


Disassembly of section .text:

00000000000060a0 <_start>:
    60a0:	f3 0f 1e fa          	endbr64 
    60a4:	31 ed                	xor    %ebp,%ebp
    60a6:	49 89 d1             	mov    %rdx,%r9
    60a9:	5e                   	pop    %rsi
    60aa:	48 89 e2             	mov    %rsp,%rdx
    60ad:	48 83 e4 f0          	and    $0xfffffffffffffff0,%rsp
    60b1:	50                   	push   %rax
    60b2:	54                   	push   %rsp
    60b3:	4c 8d 05 b6 02 01 00 	lea    0x102b6(%rip),%r8        # 16370 <__libc_csu_fini>
    60ba:	48 8d 0d 3f 02 01 00 	lea    0x1023f(%rip),%rcx        # 16300 <__libc_csu_init>
    60c1:	48 8d 3d b0 90 00 00 	lea    0x90b0(%rip),%rdi        # f178 <main>
    60c8:	ff 15 12 5f 01 00    	callq  *0x15f12(%rip)        # 1bfe0 <__libc_start_main@GLIBC_2.2.5>
    60ce:	f4                   	hlt    
    60cf:	90                   	nop

00000000000060d0 <deregister_tm_clones>:
    60d0:	48 8d 3d c9 e1 01 00 	lea    0x1e1c9(%rip),%rdi        # 242a0 <__TMC_END__>
    60d7:	48 8d 05 c2 e1 01 00 	lea    0x1e1c2(%rip),%rax        # 242a0 <__TMC_END__>
    60de:	48 39 f8             	cmp    %rdi,%rax
    60e1:	74 15                	je     60f8 <deregister_tm_clones+0x28>
    60e3:	48 8b 05 ee 5e 01 00 	mov    0x15eee(%rip),%rax        # 1bfd8 <_ITM_deregisterTMCloneTable>
    60ea:	48 85 c0             	test   %rax,%rax
    60ed:	74 09                	je     60f8 <deregister_tm_clones+0x28>
    60ef:	ff e0                	jmpq   *%rax
    60f1:	0f 1f 80 00 00 00 00 	nopl   0x0(%rax)
    60f8:	c3                   	retq   
    60f9:	0f 1f 80 00 00 00 00 	nopl   0x0(%rax)

0000000000006100 <register_tm_clones>:
    6100:	48 8d 3d 99 e1 01 00 	lea    0x1e199(%rip),%rdi        # 242a0 <__TMC_END__>
    6107:	48 8d 35 92 e1 01 00 	lea    0x1e192(%rip),%rsi        # 242a0 <__TMC_END__>
    610e:	48 29 fe             	sub    %rdi,%rsi
    6111:	48 89 f0             	mov    %rsi,%rax
    6114:	48 c1 ee 3f          	shr    $0x3f,%rsi
    6118:	48 c1 f8 03          	sar    $0x3,%rax
    611c:	48 01 c6             	add    %rax,%rsi
    611f:	48 d1 fe             	sar    %rsi
    6122:	74 14                	je     6138 <register_tm_clones+0x38>
    6124:	48 8b 05 c5 5e 01 00 	mov    0x15ec5(%rip),%rax        # 1bff0 <_ITM_registerTMCloneTable>
    612b:	48 85 c0             	test   %rax,%rax
    612e:	74 08                	je     6138 <register_tm_clones+0x38>
    6130:	ff e0                	jmpq   *%rax
    6132:	66 0f 1f 44 00 00    	nopw   0x0(%rax,%rax,1)
    6138:	c3                   	retq   
    6139:	0f 1f 80 00 00 00 00 	nopl   0x0(%rax)

0000000000006140 <__do_global_dtors_aux>:
    6140:	f3 0f 1e fa          	endbr64 
    6144:	80 3d 55 e1 01 00 00 	cmpb   $0x0,0x1e155(%rip)        # 242a0 <__TMC_END__>
    614b:	75 2b                	jne    6178 <__do_global_dtors_aux+0x38>
    614d:	55                   	push   %rbp
    614e:	48 83 3d a2 5e 01 00 	cmpq   $0x0,0x15ea2(%rip)        # 1bff8 <__cxa_finalize@GLIBC_2.2.5>
    6155:	00 
    6156:	48 89 e5             	mov    %rsp,%rbp
    6159:	74 0c                	je     6167 <__do_global_dtors_aux+0x27>
    615b:	48 8b 3d a6 5e 01 00 	mov    0x15ea6(%rip),%rdi        # 1c008 <__dso_handle>
    6162:	e8 f9 fe ff ff       	callq  6060 <__cxa_finalize@plt>
    6167:	e8 64 ff ff ff       	callq  60d0 <deregister_tm_clones>
    616c:	c6 05 2d e1 01 00 01 	movb   $0x1,0x1e12d(%rip)        # 242a0 <__TMC_END__>
    6173:	5d                   	pop    %rbp
    6174:	c3                   	retq   
    6175:	0f 1f 00             	nopl   (%rax)
    6178:	c3                   	retq   
    6179:	0f 1f 80 00 00 00 00 	nopl   0x0(%rax)

0000000000006180 <frame_dummy>:
    6180:	f3 0f 1e fa          	endbr64 
    6184:	e9 77 ff ff ff       	jmpq   6100 <register_tm_clones>

0000000000006189 <platform_main_begin>:
    6189:	f3 0f 1e fa          	endbr64 
    618d:	55                   	push   %rbp
    618e:	48 89 e5             	mov    %rsp,%rbp
    6191:	90                   	nop
    6192:	5d                   	pop    %rbp
    6193:	c3                   	retq   

0000000000006194 <platform_main_end>:
    6194:	f3 0f 1e fa          	endbr64 
    6198:	55                   	push   %rbp
    6199:	48 89 e5             	mov    %rsp,%rbp
    619c:	48 83 ec 10          	sub    $0x10,%rsp
    61a0:	89 7d fc             	mov    %edi,-0x4(%rbp)
    61a3:	89 75 f8             	mov    %esi,-0x8(%rbp)
    61a6:	8b 45 fc             	mov    -0x4(%rbp),%eax
    61a9:	89 c6                	mov    %eax,%esi
    61ab:	48 8d 3d 6e 0e 01 00 	lea    0x10e6e(%rip),%rdi        # 17020 <_IO_stdin_used+0x20>
    61b2:	b8 00 00 00 00       	mov    $0x0,%eax
    61b7:	e8 c4 fe ff ff       	callq  6080 <printf@plt>
    61bc:	90                   	nop
    61bd:	c9                   	leaveq 
    61be:	c3                   	retq   

00000000000061bf <safe_unary_minus_func_int8_t_s>:
    61bf:	f3 0f 1e fa          	endbr64 
    61c3:	55                   	push   %rbp
    61c4:	48 89 e5             	mov    %rsp,%rbp
    61c7:	89 f8                	mov    %edi,%eax
    61c9:	88 45 fc             	mov    %al,-0x4(%rbp)
    61cc:	0f b6 45 fc          	movzbl -0x4(%rbp),%eax
    61d0:	f7 d8                	neg    %eax
    61d2:	5d                   	pop    %rbp
    61d3:	c3                   	retq   

00000000000061d4 <safe_add_func_int8_t_s_s>:
    61d4:	f3 0f 1e fa          	endbr64 
    61d8:	55                   	push   %rbp
    61d9:	48 89 e5             	mov    %rsp,%rbp
    61dc:	89 fa                	mov    %edi,%edx
    61de:	89 f0                	mov    %esi,%eax
    61e0:	88 55 fc             	mov    %dl,-0x4(%rbp)
    61e3:	88 45 f8             	mov    %al,-0x8(%rbp)
    61e6:	0f b6 55 fc          	movzbl -0x4(%rbp),%edx
    61ea:	0f b6 45 f8          	movzbl -0x8(%rbp),%eax
    61ee:	01 d0                	add    %edx,%eax
    61f0:	5d                   	pop    %rbp
    61f1:	c3                   	retq   

00000000000061f2 <safe_sub_func_int8_t_s_s>:
    61f2:	f3 0f 1e fa          	endbr64 
    61f6:	55                   	push   %rbp
    61f7:	48 89 e5             	mov    %rsp,%rbp
    61fa:	89 fa                	mov    %edi,%edx
    61fc:	89 f0                	mov    %esi,%eax
    61fe:	88 55 fc             	mov    %dl,-0x4(%rbp)
    6201:	88 45 f8             	mov    %al,-0x8(%rbp)
    6204:	0f b6 55 fc          	movzbl -0x4(%rbp),%edx
    6208:	0f b6 45 f8          	movzbl -0x8(%rbp),%eax
    620c:	29 c2                	sub    %eax,%edx
    620e:	89 d0                	mov    %edx,%eax
    6210:	5d                   	pop    %rbp
    6211:	c3                   	retq   

0000000000006212 <safe_mul_func_int8_t_s_s>:
    6212:	f3 0f 1e fa          	endbr64 
    6216:	55                   	push   %rbp
    6217:	48 89 e5             	mov    %rsp,%rbp
    621a:	89 fa                	mov    %edi,%edx
    621c:	89 f0                	mov    %esi,%eax
    621e:	88 55 fc             	mov    %dl,-0x4(%rbp)
    6221:	88 45 f8             	mov    %al,-0x8(%rbp)
    6224:	0f b6 45 fc          	movzbl -0x4(%rbp),%eax
    6228:	0f b6 55 f8          	movzbl -0x8(%rbp),%edx
    622c:	0f af c2             	imul   %edx,%eax
    622f:	5d                   	pop    %rbp
    6230:	c3                   	retq   

0000000000006231 <safe_mod_func_int8_t_s_s>:
    6231:	f3 0f 1e fa          	endbr64 
    6235:	55                   	push   %rbp
    6236:	48 89 e5             	mov    %rsp,%rbp
    6239:	89 fa                	mov    %edi,%edx
    623b:	89 f0                	mov    %esi,%eax
    623d:	88 55 fc             	mov    %dl,-0x4(%rbp)
    6240:	88 45 f8             	mov    %al,-0x8(%rbp)
    6243:	80 7d f8 00          	cmpb   $0x0,-0x8(%rbp)
    6247:	74 1b                	je     6264 <safe_mod_func_int8_t_s_s+0x33>
    6249:	80 7d fc 80          	cmpb   $0x80,-0x4(%rbp)
    624d:	75 06                	jne    6255 <safe_mod_func_int8_t_s_s+0x24>
    624f:	80 7d f8 ff          	cmpb   $0xff,-0x8(%rbp)
    6253:	74 0f                	je     6264 <safe_mod_func_int8_t_s_s+0x33>
    6255:	0f be 45 fc          	movsbl -0x4(%rbp),%eax
    6259:	0f be 4d f8          	movsbl -0x8(%rbp),%ecx
    625d:	99                   	cltd   
    625e:	f7 f9                	idiv   %ecx
    6260:	89 d0                	mov    %edx,%eax
    6262:	eb 04                	jmp    6268 <safe_mod_func_int8_t_s_s+0x37>
    6264:	0f b6 45 fc          	movzbl -0x4(%rbp),%eax
    6268:	5d                   	pop    %rbp
    6269:	c3                   	retq   

000000000000626a <safe_div_func_int8_t_s_s>:
    626a:	f3 0f 1e fa          	endbr64 
    626e:	55                   	push   %rbp
    626f:	48 89 e5             	mov    %rsp,%rbp
    6272:	89 fa                	mov    %edi,%edx
    6274:	89 f0                	mov    %esi,%eax
    6276:	88 55 fc             	mov    %dl,-0x4(%rbp)
    6279:	88 45 f8             	mov    %al,-0x8(%rbp)
    627c:	80 7d f8 00          	cmpb   $0x0,-0x8(%rbp)
    6280:	74 19                	je     629b <safe_div_func_int8_t_s_s+0x31>
    6282:	80 7d fc 80          	cmpb   $0x80,-0x4(%rbp)
    6286:	75 06                	jne    628e <safe_div_func_int8_t_s_s+0x24>
    6288:	80 7d f8 ff          	cmpb   $0xff,-0x8(%rbp)
    628c:	74 0d                	je     629b <safe_div_func_int8_t_s_s+0x31>
    628e:	0f be 45 fc          	movsbl -0x4(%rbp),%eax
    6292:	0f be 4d f8          	movsbl -0x8(%rbp),%ecx
    6296:	99                   	cltd   
    6297:	f7 f9                	idiv   %ecx
    6299:	eb 04                	jmp    629f <safe_div_func_int8_t_s_s+0x35>
    629b:	0f b6 45 fc          	movzbl -0x4(%rbp),%eax
    629f:	5d                   	pop    %rbp
    62a0:	c3                   	retq   

00000000000062a1 <safe_lshift_func_int8_t_s_s>:
    62a1:	f3 0f 1e fa          	endbr64 
    62a5:	55                   	push   %rbp
    62a6:	48 89 e5             	mov    %rsp,%rbp
    62a9:	89 f8                	mov    %edi,%eax
    62ab:	89 75 f8             	mov    %esi,-0x8(%rbp)
    62ae:	88 45 fc             	mov    %al,-0x4(%rbp)
    62b1:	80 7d fc 00          	cmpb   $0x0,-0x4(%rbp)
    62b5:	78 31                	js     62e8 <safe_lshift_func_int8_t_s_s+0x47>
    62b7:	83 7d f8 00          	cmpl   $0x0,-0x8(%rbp)
    62bb:	78 2b                	js     62e8 <safe_lshift_func_int8_t_s_s+0x47>
    62bd:	83 7d f8 1f          	cmpl   $0x1f,-0x8(%rbp)
    62c1:	7f 25                	jg     62e8 <safe_lshift_func_int8_t_s_s+0x47>
    62c3:	0f be 55 fc          	movsbl -0x4(%rbp),%edx
    62c7:	8b 45 f8             	mov    -0x8(%rbp),%eax
    62ca:	be 7f 00 00 00       	mov    $0x7f,%esi
    62cf:	89 c1                	mov    %eax,%ecx
    62d1:	d3 fe                	sar    %cl,%esi
    62d3:	89 f0                	mov    %esi,%eax
    62d5:	39 c2                	cmp    %eax,%edx
    62d7:	7f 0f                	jg     62e8 <safe_lshift_func_int8_t_s_s+0x47>
    62d9:	0f be 55 fc          	movsbl -0x4(%rbp),%edx
    62dd:	8b 45 f8             	mov    -0x8(%rbp),%eax
    62e0:	89 c1                	mov    %eax,%ecx
    62e2:	d3 e2                	shl    %cl,%edx
    62e4:	89 d0                	mov    %edx,%eax
    62e6:	eb 04                	jmp    62ec <safe_lshift_func_int8_t_s_s+0x4b>
    62e8:	0f b6 45 fc          	movzbl -0x4(%rbp),%eax
    62ec:	5d                   	pop    %rbp
    62ed:	c3                   	retq   

00000000000062ee <safe_lshift_func_int8_t_s_u>:
    62ee:	f3 0f 1e fa          	endbr64 
    62f2:	55                   	push   %rbp
    62f3:	48 89 e5             	mov    %rsp,%rbp
    62f6:	89 f8                	mov    %edi,%eax
    62f8:	89 75 f8             	mov    %esi,-0x8(%rbp)
    62fb:	88 45 fc             	mov    %al,-0x4(%rbp)
    62fe:	80 7d fc 00          	cmpb   $0x0,-0x4(%rbp)
    6302:	78 2b                	js     632f <safe_lshift_func_int8_t_s_u+0x41>
    6304:	83 7d f8 1f          	cmpl   $0x1f,-0x8(%rbp)
    6308:	77 25                	ja     632f <safe_lshift_func_int8_t_s_u+0x41>
    630a:	0f be 55 fc          	movsbl -0x4(%rbp),%edx
    630e:	8b 45 f8             	mov    -0x8(%rbp),%eax
    6311:	be 7f 00 00 00       	mov    $0x7f,%esi
    6316:	89 c1                	mov    %eax,%ecx
    6318:	d3 fe                	sar    %cl,%esi
    631a:	89 f0                	mov    %esi,%eax
    631c:	39 c2                	cmp    %eax,%edx
    631e:	7f 0f                	jg     632f <safe_lshift_func_int8_t_s_u+0x41>
    6320:	0f be 55 fc          	movsbl -0x4(%rbp),%edx
    6324:	8b 45 f8             	mov    -0x8(%rbp),%eax
    6327:	89 c1                	mov    %eax,%ecx
    6329:	d3 e2                	shl    %cl,%edx
    632b:	89 d0                	mov    %edx,%eax
    632d:	eb 04                	jmp    6333 <safe_lshift_func_int8_t_s_u+0x45>
    632f:	0f b6 45 fc          	movzbl -0x4(%rbp),%eax
    6333:	5d                   	pop    %rbp
    6334:	c3                   	retq   

0000000000006335 <safe_rshift_func_int8_t_s_s>:
    6335:	f3 0f 1e fa          	endbr64 
    6339:	55                   	push   %rbp
    633a:	48 89 e5             	mov    %rsp,%rbp
    633d:	89 f8                	mov    %edi,%eax
    633f:	89 75 f8             	mov    %esi,-0x8(%rbp)
    6342:	88 45 fc             	mov    %al,-0x4(%rbp)
    6345:	80 7d fc 00          	cmpb   $0x0,-0x4(%rbp)
    6349:	78 1b                	js     6366 <safe_rshift_func_int8_t_s_s+0x31>
    634b:	83 7d f8 00          	cmpl   $0x0,-0x8(%rbp)
    634f:	78 15                	js     6366 <safe_rshift_func_int8_t_s_s+0x31>
    6351:	83 7d f8 1f          	cmpl   $0x1f,-0x8(%rbp)
    6355:	7f 0f                	jg     6366 <safe_rshift_func_int8_t_s_s+0x31>
    6357:	0f be 55 fc          	movsbl -0x4(%rbp),%edx
    635b:	8b 45 f8             	mov    -0x8(%rbp),%eax
    635e:	89 c1                	mov    %eax,%ecx
    6360:	d3 fa                	sar    %cl,%edx
    6362:	89 d0                	mov    %edx,%eax
    6364:	eb 04                	jmp    636a <safe_rshift_func_int8_t_s_s+0x35>
    6366:	0f b6 45 fc          	movzbl -0x4(%rbp),%eax
    636a:	5d                   	pop    %rbp
    636b:	c3                   	retq   

000000000000636c <safe_rshift_func_int8_t_s_u>:
    636c:	f3 0f 1e fa          	endbr64 
    6370:	55                   	push   %rbp
    6371:	48 89 e5             	mov    %rsp,%rbp
    6374:	89 f8                	mov    %edi,%eax
    6376:	89 75 f8             	mov    %esi,-0x8(%rbp)
    6379:	88 45 fc             	mov    %al,-0x4(%rbp)
    637c:	80 7d fc 00          	cmpb   $0x0,-0x4(%rbp)
    6380:	78 15                	js     6397 <safe_rshift_func_int8_t_s_u+0x2b>
    6382:	83 7d f8 1f          	cmpl   $0x1f,-0x8(%rbp)
    6386:	77 0f                	ja     6397 <safe_rshift_func_int8_t_s_u+0x2b>
    6388:	0f be 55 fc          	movsbl -0x4(%rbp),%edx
    638c:	8b 45 f8             	mov    -0x8(%rbp),%eax
    638f:	89 c1                	mov    %eax,%ecx
    6391:	d3 fa                	sar    %cl,%edx
    6393:	89 d0                	mov    %edx,%eax
    6395:	eb 04                	jmp    639b <safe_rshift_func_int8_t_s_u+0x2f>
    6397:	0f b6 45 fc          	movzbl -0x4(%rbp),%eax
    639b:	5d                   	pop    %rbp
    639c:	c3                   	retq   

000000000000639d <safe_unary_minus_func_int16_t_s>:
    639d:	f3 0f 1e fa          	endbr64 
    63a1:	55                   	push   %rbp
    63a2:	48 89 e5             	mov    %rsp,%rbp
    63a5:	89 f8                	mov    %edi,%eax
    63a7:	66 89 45 fc          	mov    %ax,-0x4(%rbp)
    63ab:	0f b7 45 fc          	movzwl -0x4(%rbp),%eax
    63af:	f7 d8                	neg    %eax
    63b1:	5d                   	pop    %rbp
    63b2:	c3                   	retq   

00000000000063b3 <safe_add_func_int16_t_s_s>:
    63b3:	f3 0f 1e fa          	endbr64 
    63b7:	55                   	push   %rbp
    63b8:	48 89 e5             	mov    %rsp,%rbp
    63bb:	89 fa                	mov    %edi,%edx
    63bd:	89 f0                	mov    %esi,%eax
    63bf:	66 89 55 fc          	mov    %dx,-0x4(%rbp)
    63c3:	66 89 45 f8          	mov    %ax,-0x8(%rbp)
    63c7:	0f b7 55 fc          	movzwl -0x4(%rbp),%edx
    63cb:	0f b7 45 f8          	movzwl -0x8(%rbp),%eax
    63cf:	01 d0                	add    %edx,%eax
    63d1:	5d                   	pop    %rbp
    63d2:	c3                   	retq   

00000000000063d3 <safe_sub_func_int16_t_s_s>:
    63d3:	f3 0f 1e fa          	endbr64 
    63d7:	55                   	push   %rbp
    63d8:	48 89 e5             	mov    %rsp,%rbp
    63db:	89 fa                	mov    %edi,%edx
    63dd:	89 f0                	mov    %esi,%eax
    63df:	66 89 55 fc          	mov    %dx,-0x4(%rbp)
    63e3:	66 89 45 f8          	mov    %ax,-0x8(%rbp)
    63e7:	0f b7 55 fc          	movzwl -0x4(%rbp),%edx
    63eb:	0f b7 45 f8          	movzwl -0x8(%rbp),%eax
    63ef:	29 c2                	sub    %eax,%edx
    63f1:	89 d0                	mov    %edx,%eax
    63f3:	5d                   	pop    %rbp
    63f4:	c3                   	retq   

00000000000063f5 <safe_mul_func_int16_t_s_s>:
    63f5:	f3 0f 1e fa          	endbr64 
    63f9:	55                   	push   %rbp
    63fa:	48 89 e5             	mov    %rsp,%rbp
    63fd:	89 fa                	mov    %edi,%edx
    63ff:	89 f0                	mov    %esi,%eax
    6401:	66 89 55 fc          	mov    %dx,-0x4(%rbp)
    6405:	66 89 45 f8          	mov    %ax,-0x8(%rbp)
    6409:	0f b7 55 fc          	movzwl -0x4(%rbp),%edx
    640d:	0f b7 45 f8          	movzwl -0x8(%rbp),%eax
    6411:	0f af c2             	imul   %edx,%eax
    6414:	5d                   	pop    %rbp
    6415:	c3                   	retq   

0000000000006416 <safe_mod_func_int16_t_s_s>:
    6416:	f3 0f 1e fa          	endbr64 
    641a:	55                   	push   %rbp
    641b:	48 89 e5             	mov    %rsp,%rbp
    641e:	89 fa                	mov    %edi,%edx
    6420:	89 f0                	mov    %esi,%eax
    6422:	66 89 55 fc          	mov    %dx,-0x4(%rbp)
    6426:	66 89 45 f8          	mov    %ax,-0x8(%rbp)
    642a:	66 83 7d f8 00       	cmpw   $0x0,-0x8(%rbp)
    642f:	74 1e                	je     644f <safe_mod_func_int16_t_s_s+0x39>
    6431:	66 81 7d fc 00 80    	cmpw   $0x8000,-0x4(%rbp)
    6437:	75 07                	jne    6440 <safe_mod_func_int16_t_s_s+0x2a>
    6439:	66 83 7d f8 ff       	cmpw   $0xffff,-0x8(%rbp)
    643e:	74 0f                	je     644f <safe_mod_func_int16_t_s_s+0x39>
    6440:	0f bf 45 fc          	movswl -0x4(%rbp),%eax
    6444:	0f bf 4d f8          	movswl -0x8(%rbp),%ecx
    6448:	99                   	cltd   
    6449:	f7 f9                	idiv   %ecx
    644b:	89 d0                	mov    %edx,%eax
    644d:	eb 04                	jmp    6453 <safe_mod_func_int16_t_s_s+0x3d>
    644f:	0f b7 45 fc          	movzwl -0x4(%rbp),%eax
    6453:	5d                   	pop    %rbp
    6454:	c3                   	retq   

0000000000006455 <safe_div_func_int16_t_s_s>:
    6455:	f3 0f 1e fa          	endbr64 
    6459:	55                   	push   %rbp
    645a:	48 89 e5             	mov    %rsp,%rbp
    645d:	89 fa                	mov    %edi,%edx
    645f:	89 f0                	mov    %esi,%eax
    6461:	66 89 55 fc          	mov    %dx,-0x4(%rbp)
    6465:	66 89 45 f8          	mov    %ax,-0x8(%rbp)
    6469:	66 83 7d f8 00       	cmpw   $0x0,-0x8(%rbp)
    646e:	74 1c                	je     648c <safe_div_func_int16_t_s_s+0x37>
    6470:	66 81 7d fc 00 80    	cmpw   $0x8000,-0x4(%rbp)
    6476:	75 07                	jne    647f <safe_div_func_int16_t_s_s+0x2a>
    6478:	66 83 7d f8 ff       	cmpw   $0xffff,-0x8(%rbp)
    647d:	74 0d                	je     648c <safe_div_func_int16_t_s_s+0x37>
    647f:	0f bf 45 fc          	movswl -0x4(%rbp),%eax
    6483:	0f bf 4d f8          	movswl -0x8(%rbp),%ecx
    6487:	99                   	cltd   
    6488:	f7 f9                	idiv   %ecx
    648a:	eb 04                	jmp    6490 <safe_div_func_int16_t_s_s+0x3b>
    648c:	0f b7 45 fc          	movzwl -0x4(%rbp),%eax
    6490:	5d                   	pop    %rbp
    6491:	c3                   	retq   

0000000000006492 <safe_lshift_func_int16_t_s_s>:
    6492:	f3 0f 1e fa          	endbr64 
    6496:	55                   	push   %rbp
    6497:	48 89 e5             	mov    %rsp,%rbp
    649a:	89 f8                	mov    %edi,%eax
    649c:	89 75 f8             	mov    %esi,-0x8(%rbp)
    649f:	66 89 45 fc          	mov    %ax,-0x4(%rbp)
    64a3:	66 83 7d fc 00       	cmpw   $0x0,-0x4(%rbp)
    64a8:	78 31                	js     64db <safe_lshift_func_int16_t_s_s+0x49>
    64aa:	83 7d f8 00          	cmpl   $0x0,-0x8(%rbp)
    64ae:	78 2b                	js     64db <safe_lshift_func_int16_t_s_s+0x49>
    64b0:	83 7d f8 1f          	cmpl   $0x1f,-0x8(%rbp)
    64b4:	7f 25                	jg     64db <safe_lshift_func_int16_t_s_s+0x49>
    64b6:	0f bf 55 fc          	movswl -0x4(%rbp),%edx
    64ba:	8b 45 f8             	mov    -0x8(%rbp),%eax
    64bd:	be ff 7f 00 00       	mov    $0x7fff,%esi
    64c2:	89 c1                	mov    %eax,%ecx
    64c4:	d3 fe                	sar    %cl,%esi
    64c6:	89 f0                	mov    %esi,%eax
    64c8:	39 c2                	cmp    %eax,%edx
    64ca:	7f 0f                	jg     64db <safe_lshift_func_int16_t_s_s+0x49>
    64cc:	0f bf 55 fc          	movswl -0x4(%rbp),%edx
    64d0:	8b 45 f8             	mov    -0x8(%rbp),%eax
    64d3:	89 c1                	mov    %eax,%ecx
    64d5:	d3 e2                	shl    %cl,%edx
    64d7:	89 d0                	mov    %edx,%eax
    64d9:	eb 04                	jmp    64df <safe_lshift_func_int16_t_s_s+0x4d>
    64db:	0f b7 45 fc          	movzwl -0x4(%rbp),%eax
    64df:	5d                   	pop    %rbp
    64e0:	c3                   	retq   

00000000000064e1 <safe_lshift_func_int16_t_s_u>:
    64e1:	f3 0f 1e fa          	endbr64 
    64e5:	55                   	push   %rbp
    64e6:	48 89 e5             	mov    %rsp,%rbp
    64e9:	89 f8                	mov    %edi,%eax
    64eb:	89 75 f8             	mov    %esi,-0x8(%rbp)
    64ee:	66 89 45 fc          	mov    %ax,-0x4(%rbp)
    64f2:	66 83 7d fc 00       	cmpw   $0x0,-0x4(%rbp)
    64f7:	78 2b                	js     6524 <safe_lshift_func_int16_t_s_u+0x43>
    64f9:	83 7d f8 1f          	cmpl   $0x1f,-0x8(%rbp)
    64fd:	77 25                	ja     6524 <safe_lshift_func_int16_t_s_u+0x43>
    64ff:	0f bf 55 fc          	movswl -0x4(%rbp),%edx
    6503:	8b 45 f8             	mov    -0x8(%rbp),%eax
    6506:	be ff 7f 00 00       	mov    $0x7fff,%esi
    650b:	89 c1                	mov    %eax,%ecx
    650d:	d3 fe                	sar    %cl,%esi
    650f:	89 f0                	mov    %esi,%eax
    6511:	39 c2                	cmp    %eax,%edx
    6513:	7f 0f                	jg     6524 <safe_lshift_func_int16_t_s_u+0x43>
    6515:	0f bf 55 fc          	movswl -0x4(%rbp),%edx
    6519:	8b 45 f8             	mov    -0x8(%rbp),%eax
    651c:	89 c1                	mov    %eax,%ecx
    651e:	d3 e2                	shl    %cl,%edx
    6520:	89 d0                	mov    %edx,%eax
    6522:	eb 04                	jmp    6528 <safe_lshift_func_int16_t_s_u+0x47>
    6524:	0f b7 45 fc          	movzwl -0x4(%rbp),%eax
    6528:	5d                   	pop    %rbp
    6529:	c3                   	retq   

000000000000652a <safe_rshift_func_int16_t_s_s>:
    652a:	f3 0f 1e fa          	endbr64 
    652e:	55                   	push   %rbp
    652f:	48 89 e5             	mov    %rsp,%rbp
    6532:	89 f8                	mov    %edi,%eax
    6534:	89 75 f8             	mov    %esi,-0x8(%rbp)
    6537:	66 89 45 fc          	mov    %ax,-0x4(%rbp)
    653b:	66 83 7d fc 00       	cmpw   $0x0,-0x4(%rbp)
    6540:	78 1b                	js     655d <safe_rshift_func_int16_t_s_s+0x33>
    6542:	83 7d f8 00          	cmpl   $0x0,-0x8(%rbp)
    6546:	78 15                	js     655d <safe_rshift_func_int16_t_s_s+0x33>
    6548:	83 7d f8 1f          	cmpl   $0x1f,-0x8(%rbp)
    654c:	7f 0f                	jg     655d <safe_rshift_func_int16_t_s_s+0x33>
    654e:	0f bf 55 fc          	movswl -0x4(%rbp),%edx
    6552:	8b 45 f8             	mov    -0x8(%rbp),%eax
    6555:	89 c1                	mov    %eax,%ecx
    6557:	d3 fa                	sar    %cl,%edx
    6559:	89 d0                	mov    %edx,%eax
    655b:	eb 04                	jmp    6561 <safe_rshift_func_int16_t_s_s+0x37>
    655d:	0f b7 45 fc          	movzwl -0x4(%rbp),%eax
    6561:	5d                   	pop    %rbp
    6562:	c3                   	retq   

0000000000006563 <safe_rshift_func_int16_t_s_u>:
    6563:	f3 0f 1e fa          	endbr64 
    6567:	55                   	push   %rbp
    6568:	48 89 e5             	mov    %rsp,%rbp
    656b:	89 f8                	mov    %edi,%eax
    656d:	89 75 f8             	mov    %esi,-0x8(%rbp)
    6570:	66 89 45 fc          	mov    %ax,-0x4(%rbp)
    6574:	66 83 7d fc 00       	cmpw   $0x0,-0x4(%rbp)
    6579:	78 15                	js     6590 <safe_rshift_func_int16_t_s_u+0x2d>
    657b:	83 7d f8 1f          	cmpl   $0x1f,-0x8(%rbp)
    657f:	77 0f                	ja     6590 <safe_rshift_func_int16_t_s_u+0x2d>
    6581:	0f bf 55 fc          	movswl -0x4(%rbp),%edx
    6585:	8b 45 f8             	mov    -0x8(%rbp),%eax
    6588:	89 c1                	mov    %eax,%ecx
    658a:	d3 fa                	sar    %cl,%edx
    658c:	89 d0                	mov    %edx,%eax
    658e:	eb 04                	jmp    6594 <safe_rshift_func_int16_t_s_u+0x31>
    6590:	0f b7 45 fc          	movzwl -0x4(%rbp),%eax
    6594:	5d                   	pop    %rbp
    6595:	c3                   	retq   

0000000000006596 <safe_unary_minus_func_int32_t_s>:
    6596:	f3 0f 1e fa          	endbr64 
    659a:	55                   	push   %rbp
    659b:	48 89 e5             	mov    %rsp,%rbp
    659e:	89 7d fc             	mov    %edi,-0x4(%rbp)
    65a1:	81 7d fc 00 00 00 80 	cmpl   $0x80000000,-0x4(%rbp)
    65a8:	74 07                	je     65b1 <safe_unary_minus_func_int32_t_s+0x1b>
    65aa:	8b 45 fc             	mov    -0x4(%rbp),%eax
    65ad:	f7 d8                	neg    %eax
    65af:	eb 03                	jmp    65b4 <safe_unary_minus_func_int32_t_s+0x1e>
    65b1:	8b 45 fc             	mov    -0x4(%rbp),%eax
    65b4:	5d                   	pop    %rbp
    65b5:	c3                   	retq   

00000000000065b6 <safe_add_func_int32_t_s_s>:
    65b6:	f3 0f 1e fa          	endbr64 
    65ba:	55                   	push   %rbp
    65bb:	48 89 e5             	mov    %rsp,%rbp
    65be:	89 7d fc             	mov    %edi,-0x4(%rbp)
    65c1:	89 75 f8             	mov    %esi,-0x8(%rbp)
    65c4:	83 7d fc 00          	cmpl   $0x0,-0x4(%rbp)
    65c8:	7e 13                	jle    65dd <safe_add_func_int32_t_s_s+0x27>
    65ca:	83 7d f8 00          	cmpl   $0x0,-0x8(%rbp)
    65ce:	7e 0d                	jle    65dd <safe_add_func_int32_t_s_s+0x27>
    65d0:	b8 ff ff ff 7f       	mov    $0x7fffffff,%eax
    65d5:	2b 45 f8             	sub    -0x8(%rbp),%eax
    65d8:	39 45 fc             	cmp    %eax,-0x4(%rbp)
    65db:	7f 23                	jg     6600 <safe_add_func_int32_t_s_s+0x4a>
    65dd:	83 7d fc 00          	cmpl   $0x0,-0x4(%rbp)
    65e1:	79 13                	jns    65f6 <safe_add_func_int32_t_s_s+0x40>
    65e3:	83 7d f8 00          	cmpl   $0x0,-0x8(%rbp)
    65e7:	79 0d                	jns    65f6 <safe_add_func_int32_t_s_s+0x40>
    65e9:	b8 00 00 00 80       	mov    $0x80000000,%eax
    65ee:	2b 45 f8             	sub    -0x8(%rbp),%eax
    65f1:	39 45 fc             	cmp    %eax,-0x4(%rbp)
    65f4:	7c 0a                	jl     6600 <safe_add_func_int32_t_s_s+0x4a>
    65f6:	8b 55 fc             	mov    -0x4(%rbp),%edx
    65f9:	8b 45 f8             	mov    -0x8(%rbp),%eax
    65fc:	01 d0                	add    %edx,%eax
    65fe:	eb 03                	jmp    6603 <safe_add_func_int32_t_s_s+0x4d>
    6600:	8b 45 fc             	mov    -0x4(%rbp),%eax
    6603:	5d                   	pop    %rbp
    6604:	c3                   	retq   

0000000000006605 <safe_sub_func_int32_t_s_s>:
    6605:	f3 0f 1e fa          	endbr64 
    6609:	55                   	push   %rbp
    660a:	48 89 e5             	mov    %rsp,%rbp
    660d:	89 7d fc             	mov    %edi,-0x4(%rbp)
    6610:	89 75 f8             	mov    %esi,-0x8(%rbp)
    6613:	8b 45 fc             	mov    -0x4(%rbp),%eax
    6616:	33 45 f8             	xor    -0x8(%rbp),%eax
    6619:	89 c2                	mov    %eax,%edx
    661b:	8b 45 fc             	mov    -0x4(%rbp),%eax
    661e:	33 45 f8             	xor    -0x8(%rbp),%eax
    6621:	25 00 00 00 80       	and    $0x80000000,%eax
    6626:	33 45 fc             	xor    -0x4(%rbp),%eax
    6629:	2b 45 f8             	sub    -0x8(%rbp),%eax
    662c:	33 45 f8             	xor    -0x8(%rbp),%eax
    662f:	21 d0                	and    %edx,%eax
    6631:	85 c0                	test   %eax,%eax
    6633:	78 08                	js     663d <safe_sub_func_int32_t_s_s+0x38>
    6635:	8b 45 fc             	mov    -0x4(%rbp),%eax
    6638:	2b 45 f8             	sub    -0x8(%rbp),%eax
    663b:	eb 03                	jmp    6640 <safe_sub_func_int32_t_s_s+0x3b>
    663d:	8b 45 fc             	mov    -0x4(%rbp),%eax
    6640:	5d                   	pop    %rbp
    6641:	c3                   	retq   

0000000000006642 <safe_mul_func_int32_t_s_s>:
    6642:	f3 0f 1e fa          	endbr64 
    6646:	55                   	push   %rbp
    6647:	48 89 e5             	mov    %rsp,%rbp
    664a:	89 7d fc             	mov    %edi,-0x4(%rbp)
    664d:	89 75 f8             	mov    %esi,-0x8(%rbp)
    6650:	83 7d fc 00          	cmpl   $0x0,-0x4(%rbp)
    6654:	7e 14                	jle    666a <safe_mul_func_int32_t_s_s+0x28>
    6656:	83 7d f8 00          	cmpl   $0x0,-0x8(%rbp)
    665a:	7e 0e                	jle    666a <safe_mul_func_int32_t_s_s+0x28>
    665c:	b8 ff ff ff 7f       	mov    $0x7fffffff,%eax
    6661:	99                   	cltd   
    6662:	f7 7d f8             	idivl  -0x8(%rbp)
    6665:	39 45 fc             	cmp    %eax,-0x4(%rbp)
    6668:	7f 5d                	jg     66c7 <safe_mul_func_int32_t_s_s+0x85>
    666a:	83 7d fc 00          	cmpl   $0x0,-0x4(%rbp)
    666e:	7e 14                	jle    6684 <safe_mul_func_int32_t_s_s+0x42>
    6670:	83 7d f8 00          	cmpl   $0x0,-0x8(%rbp)
    6674:	7f 0e                	jg     6684 <safe_mul_func_int32_t_s_s+0x42>
    6676:	b8 00 00 00 80       	mov    $0x80000000,%eax
    667b:	99                   	cltd   
    667c:	f7 7d fc             	idivl  -0x4(%rbp)
    667f:	39 45 f8             	cmp    %eax,-0x8(%rbp)
    6682:	7c 43                	jl     66c7 <safe_mul_func_int32_t_s_s+0x85>
    6684:	83 7d fc 00          	cmpl   $0x0,-0x4(%rbp)
    6688:	7f 14                	jg     669e <safe_mul_func_int32_t_s_s+0x5c>
    668a:	83 7d f8 00          	cmpl   $0x0,-0x8(%rbp)
    668e:	7e 0e                	jle    669e <safe_mul_func_int32_t_s_s+0x5c>
    6690:	b8 00 00 00 80       	mov    $0x80000000,%eax
    6695:	99                   	cltd   
    6696:	f7 7d f8             	idivl  -0x8(%rbp)
    6699:	39 45 fc             	cmp    %eax,-0x4(%rbp)
    669c:	7c 29                	jl     66c7 <safe_mul_func_int32_t_s_s+0x85>
    669e:	83 7d fc 00          	cmpl   $0x0,-0x4(%rbp)
    66a2:	7f 1a                	jg     66be <safe_mul_func_int32_t_s_s+0x7c>
    66a4:	83 7d f8 00          	cmpl   $0x0,-0x8(%rbp)
    66a8:	7f 14                	jg     66be <safe_mul_func_int32_t_s_s+0x7c>
    66aa:	83 7d fc 00          	cmpl   $0x0,-0x4(%rbp)
    66ae:	74 0e                	je     66be <safe_mul_func_int32_t_s_s+0x7c>
    66b0:	b8 ff ff ff 7f       	mov    $0x7fffffff,%eax
    66b5:	99                   	cltd   
    66b6:	f7 7d fc             	idivl  -0x4(%rbp)
    66b9:	39 45 f8             	cmp    %eax,-0x8(%rbp)
    66bc:	7c 09                	jl     66c7 <safe_mul_func_int32_t_s_s+0x85>
    66be:	8b 45 fc             	mov    -0x4(%rbp),%eax
    66c1:	0f af 45 f8          	imul   -0x8(%rbp),%eax
    66c5:	eb 03                	jmp    66ca <safe_mul_func_int32_t_s_s+0x88>
    66c7:	8b 45 fc             	mov    -0x4(%rbp),%eax
    66ca:	5d                   	pop    %rbp
    66cb:	c3                   	retq   

00000000000066cc <safe_mod_func_int32_t_s_s>:
    66cc:	f3 0f 1e fa          	endbr64 
    66d0:	55                   	push   %rbp
    66d1:	48 89 e5             	mov    %rsp,%rbp
    66d4:	89 7d fc             	mov    %edi,-0x4(%rbp)
    66d7:	89 75 f8             	mov    %esi,-0x8(%rbp)
    66da:	83 7d f8 00          	cmpl   $0x0,-0x8(%rbp)
    66de:	74 1a                	je     66fa <safe_mod_func_int32_t_s_s+0x2e>
    66e0:	81 7d fc 00 00 00 80 	cmpl   $0x80000000,-0x4(%rbp)
    66e7:	75 06                	jne    66ef <safe_mod_func_int32_t_s_s+0x23>
    66e9:	83 7d f8 ff          	cmpl   $0xffffffff,-0x8(%rbp)
    66ed:	74 0b                	je     66fa <safe_mod_func_int32_t_s_s+0x2e>
    66ef:	8b 45 fc             	mov    -0x4(%rbp),%eax
    66f2:	99                   	cltd   
    66f3:	f7 7d f8             	idivl  -0x8(%rbp)
    66f6:	89 d0                	mov    %edx,%eax
    66f8:	eb 03                	jmp    66fd <safe_mod_func_int32_t_s_s+0x31>
    66fa:	8b 45 fc             	mov    -0x4(%rbp),%eax
    66fd:	5d                   	pop    %rbp
    66fe:	c3                   	retq   

00000000000066ff <safe_div_func_int32_t_s_s>:
    66ff:	f3 0f 1e fa          	endbr64 
    6703:	55                   	push   %rbp
    6704:	48 89 e5             	mov    %rsp,%rbp
    6707:	89 7d fc             	mov    %edi,-0x4(%rbp)
    670a:	89 75 f8             	mov    %esi,-0x8(%rbp)
    670d:	83 7d f8 00          	cmpl   $0x0,-0x8(%rbp)
    6711:	74 18                	je     672b <safe_div_func_int32_t_s_s+0x2c>
    6713:	81 7d fc 00 00 00 80 	cmpl   $0x80000000,-0x4(%rbp)
    671a:	75 06                	jne    6722 <safe_div_func_int32_t_s_s+0x23>
    671c:	83 7d f8 ff          	cmpl   $0xffffffff,-0x8(%rbp)
    6720:	74 09                	je     672b <safe_div_func_int32_t_s_s+0x2c>
    6722:	8b 45 fc             	mov    -0x4(%rbp),%eax
    6725:	99                   	cltd   
    6726:	f7 7d f8             	idivl  -0x8(%rbp)
    6729:	eb 03                	jmp    672e <safe_div_func_int32_t_s_s+0x2f>
    672b:	8b 45 fc             	mov    -0x4(%rbp),%eax
    672e:	5d                   	pop    %rbp
    672f:	c3                   	retq   

0000000000006730 <safe_lshift_func_int32_t_s_s>:
    6730:	f3 0f 1e fa          	endbr64 
    6734:	55                   	push   %rbp
    6735:	48 89 e5             	mov    %rsp,%rbp
    6738:	89 7d fc             	mov    %edi,-0x4(%rbp)
    673b:	89 75 f8             	mov    %esi,-0x8(%rbp)
    673e:	83 7d fc 00          	cmpl   $0x0,-0x4(%rbp)
    6742:	78 2d                	js     6771 <safe_lshift_func_int32_t_s_s+0x41>
    6744:	83 7d f8 00          	cmpl   $0x0,-0x8(%rbp)
    6748:	78 27                	js     6771 <safe_lshift_func_int32_t_s_s+0x41>
    674a:	83 7d f8 1f          	cmpl   $0x1f,-0x8(%rbp)
    674e:	7f 21                	jg     6771 <safe_lshift_func_int32_t_s_s+0x41>
    6750:	8b 45 f8             	mov    -0x8(%rbp),%eax
    6753:	ba ff ff ff 7f       	mov    $0x7fffffff,%edx
    6758:	89 c1                	mov    %eax,%ecx
    675a:	d3 fa                	sar    %cl,%edx
    675c:	89 d0                	mov    %edx,%eax
    675e:	39 45 fc             	cmp    %eax,-0x4(%rbp)
    6761:	7f 0e                	jg     6771 <safe_lshift_func_int32_t_s_s+0x41>
    6763:	8b 45 f8             	mov    -0x8(%rbp),%eax
    6766:	8b 55 fc             	mov    -0x4(%rbp),%edx
    6769:	89 c1                	mov    %eax,%ecx
    676b:	d3 e2                	shl    %cl,%edx
    676d:	89 d0                	mov    %edx,%eax
    676f:	eb 03                	jmp    6774 <safe_lshift_func_int32_t_s_s+0x44>
    6771:	8b 45 fc             	mov    -0x4(%rbp),%eax
    6774:	5d                   	pop    %rbp
    6775:	c3                   	retq   

0000000000006776 <safe_lshift_func_int32_t_s_u>:
    6776:	f3 0f 1e fa          	endbr64 
    677a:	55                   	push   %rbp
    677b:	48 89 e5             	mov    %rsp,%rbp
    677e:	89 7d fc             	mov    %edi,-0x4(%rbp)
    6781:	89 75 f8             	mov    %esi,-0x8(%rbp)
    6784:	83 7d fc 00          	cmpl   $0x0,-0x4(%rbp)
    6788:	78 27                	js     67b1 <safe_lshift_func_int32_t_s_u+0x3b>
    678a:	83 7d f8 1f          	cmpl   $0x1f,-0x8(%rbp)
    678e:	77 21                	ja     67b1 <safe_lshift_func_int32_t_s_u+0x3b>
    6790:	8b 45 f8             	mov    -0x8(%rbp),%eax
    6793:	ba ff ff ff 7f       	mov    $0x7fffffff,%edx
    6798:	89 c1                	mov    %eax,%ecx
    679a:	d3 fa                	sar    %cl,%edx
    679c:	89 d0                	mov    %edx,%eax
    679e:	39 45 fc             	cmp    %eax,-0x4(%rbp)
    67a1:	7f 0e                	jg     67b1 <safe_lshift_func_int32_t_s_u+0x3b>
    67a3:	8b 45 f8             	mov    -0x8(%rbp),%eax
    67a6:	8b 55 fc             	mov    -0x4(%rbp),%edx
    67a9:	89 c1                	mov    %eax,%ecx
    67ab:	d3 e2                	shl    %cl,%edx
    67ad:	89 d0                	mov    %edx,%eax
    67af:	eb 03                	jmp    67b4 <safe_lshift_func_int32_t_s_u+0x3e>
    67b1:	8b 45 fc             	mov    -0x4(%rbp),%eax
    67b4:	5d                   	pop    %rbp
    67b5:	c3                   	retq   

00000000000067b6 <safe_rshift_func_int32_t_s_s>:
    67b6:	f3 0f 1e fa          	endbr64 
    67ba:	55                   	push   %rbp
    67bb:	48 89 e5             	mov    %rsp,%rbp
    67be:	89 7d fc             	mov    %edi,-0x4(%rbp)
    67c1:	89 75 f8             	mov    %esi,-0x8(%rbp)
    67c4:	83 7d fc 00          	cmpl   $0x0,-0x4(%rbp)
    67c8:	78 1a                	js     67e4 <safe_rshift_func_int32_t_s_s+0x2e>
    67ca:	83 7d f8 00          	cmpl   $0x0,-0x8(%rbp)
    67ce:	78 14                	js     67e4 <safe_rshift_func_int32_t_s_s+0x2e>
    67d0:	83 7d f8 1f          	cmpl   $0x1f,-0x8(%rbp)
    67d4:	7f 0e                	jg     67e4 <safe_rshift_func_int32_t_s_s+0x2e>
    67d6:	8b 45 f8             	mov    -0x8(%rbp),%eax
    67d9:	8b 55 fc             	mov    -0x4(%rbp),%edx
    67dc:	89 c1                	mov    %eax,%ecx
    67de:	d3 fa                	sar    %cl,%edx
    67e0:	89 d0                	mov    %edx,%eax
    67e2:	eb 03                	jmp    67e7 <safe_rshift_func_int32_t_s_s+0x31>
    67e4:	8b 45 fc             	mov    -0x4(%rbp),%eax
    67e7:	5d                   	pop    %rbp
    67e8:	c3                   	retq   

00000000000067e9 <safe_rshift_func_int32_t_s_u>:
    67e9:	f3 0f 1e fa          	endbr64 
    67ed:	55                   	push   %rbp
    67ee:	48 89 e5             	mov    %rsp,%rbp
    67f1:	89 7d fc             	mov    %edi,-0x4(%rbp)
    67f4:	89 75 f8             	mov    %esi,-0x8(%rbp)
    67f7:	83 7d fc 00          	cmpl   $0x0,-0x4(%rbp)
    67fb:	78 14                	js     6811 <safe_rshift_func_int32_t_s_u+0x28>
    67fd:	83 7d f8 1f          	cmpl   $0x1f,-0x8(%rbp)
    6801:	77 0e                	ja     6811 <safe_rshift_func_int32_t_s_u+0x28>
    6803:	8b 45 f8             	mov    -0x8(%rbp),%eax
    6806:	8b 55 fc             	mov    -0x4(%rbp),%edx
    6809:	89 c1                	mov    %eax,%ecx
    680b:	d3 fa                	sar    %cl,%edx
    680d:	89 d0                	mov    %edx,%eax
    680f:	eb 03                	jmp    6814 <safe_rshift_func_int32_t_s_u+0x2b>
    6811:	8b 45 fc             	mov    -0x4(%rbp),%eax
    6814:	5d                   	pop    %rbp
    6815:	c3                   	retq   

0000000000006816 <safe_unary_minus_func_int64_t_s>:
    6816:	f3 0f 1e fa          	endbr64 
    681a:	55                   	push   %rbp
    681b:	48 89 e5             	mov    %rsp,%rbp
    681e:	48 89 7d f8          	mov    %rdi,-0x8(%rbp)
    6822:	48 b8 00 00 00 00 00 	movabs $0x8000000000000000,%rax
    6829:	00 00 80 
    682c:	48 39 45 f8          	cmp    %rax,-0x8(%rbp)
    6830:	74 09                	je     683b <safe_unary_minus_func_int64_t_s+0x25>
    6832:	48 8b 45 f8          	mov    -0x8(%rbp),%rax
    6836:	48 f7 d8             	neg    %rax
    6839:	eb 04                	jmp    683f <safe_unary_minus_func_int64_t_s+0x29>
    683b:	48 8b 45 f8          	mov    -0x8(%rbp),%rax
    683f:	5d                   	pop    %rbp
    6840:	c3                   	retq   

0000000000006841 <safe_add_func_int64_t_s_s>:
    6841:	f3 0f 1e fa          	endbr64 
    6845:	55                   	push   %rbp
    6846:	48 89 e5             	mov    %rsp,%rbp
    6849:	48 89 7d f8          	mov    %rdi,-0x8(%rbp)
    684d:	48 89 75 f0          	mov    %rsi,-0x10(%rbp)
    6851:	48 83 7d f8 00       	cmpq   $0x0,-0x8(%rbp)
    6856:	7e 1b                	jle    6873 <safe_add_func_int64_t_s_s+0x32>
    6858:	48 83 7d f0 00       	cmpq   $0x0,-0x10(%rbp)
    685d:	7e 14                	jle    6873 <safe_add_func_int64_t_s_s+0x32>
    685f:	48 b8 ff ff ff ff ff 	movabs $0x7fffffffffffffff,%rax
    6866:	ff ff 7f 
    6869:	48 2b 45 f0          	sub    -0x10(%rbp),%rax
    686d:	48 39 45 f8          	cmp    %rax,-0x8(%rbp)
    6871:	7f 2f                	jg     68a2 <safe_add_func_int64_t_s_s+0x61>
    6873:	48 83 7d f8 00       	cmpq   $0x0,-0x8(%rbp)
    6878:	79 1b                	jns    6895 <safe_add_func_int64_t_s_s+0x54>
    687a:	48 83 7d f0 00       	cmpq   $0x0,-0x10(%rbp)
    687f:	79 14                	jns    6895 <safe_add_func_int64_t_s_s+0x54>
    6881:	48 b8 00 00 00 00 00 	movabs $0x8000000000000000,%rax
    6888:	00 00 80 
    688b:	48 2b 45 f0          	sub    -0x10(%rbp),%rax
    688f:	48 39 45 f8          	cmp    %rax,-0x8(%rbp)
    6893:	7c 0d                	jl     68a2 <safe_add_func_int64_t_s_s+0x61>
    6895:	48 8b 55 f8          	mov    -0x8(%rbp),%rdx
    6899:	48 8b 45 f0          	mov    -0x10(%rbp),%rax
    689d:	48 01 d0             	add    %rdx,%rax
    68a0:	eb 04                	jmp    68a6 <safe_add_func_int64_t_s_s+0x65>
    68a2:	48 8b 45 f8          	mov    -0x8(%rbp),%rax
    68a6:	5d                   	pop    %rbp
    68a7:	c3                   	retq   

00000000000068a8 <safe_sub_func_int64_t_s_s>:
    68a8:	f3 0f 1e fa          	endbr64 
    68ac:	55                   	push   %rbp
    68ad:	48 89 e5             	mov    %rsp,%rbp
    68b0:	48 89 7d f8          	mov    %rdi,-0x8(%rbp)
    68b4:	48 89 75 f0          	mov    %rsi,-0x10(%rbp)
    68b8:	48 8b 45 f8          	mov    -0x8(%rbp),%rax
    68bc:	48 33 45 f0          	xor    -0x10(%rbp),%rax
    68c0:	48 89 c2             	mov    %rax,%rdx
    68c3:	48 8b 45 f8          	mov    -0x8(%rbp),%rax
    68c7:	48 33 45 f0          	xor    -0x10(%rbp),%rax
    68cb:	48 b9 00 00 00 00 00 	movabs $0x8000000000000000,%rcx
    68d2:	00 00 80 
    68d5:	48 21 c8             	and    %rcx,%rax
    68d8:	48 33 45 f8          	xor    -0x8(%rbp),%rax
    68dc:	48 2b 45 f0          	sub    -0x10(%rbp),%rax
    68e0:	48 33 45 f0          	xor    -0x10(%rbp),%rax
    68e4:	48 21 d0             	and    %rdx,%rax
    68e7:	48 85 c0             	test   %rax,%rax
    68ea:	78 0a                	js     68f6 <safe_sub_func_int64_t_s_s+0x4e>
    68ec:	48 8b 45 f8          	mov    -0x8(%rbp),%rax
    68f0:	48 2b 45 f0          	sub    -0x10(%rbp),%rax
    68f4:	eb 04                	jmp    68fa <safe_sub_func_int64_t_s_s+0x52>
    68f6:	48 8b 45 f8          	mov    -0x8(%rbp),%rax
    68fa:	5d                   	pop    %rbp
    68fb:	c3                   	retq   

00000000000068fc <safe_mul_func_int64_t_s_s>:
    68fc:	f3 0f 1e fa          	endbr64 
    6900:	55                   	push   %rbp
    6901:	48 89 e5             	mov    %rsp,%rbp
    6904:	48 89 7d f8          	mov    %rdi,-0x8(%rbp)
    6908:	48 89 75 f0          	mov    %rsi,-0x10(%rbp)
    690c:	48 83 7d f8 00       	cmpq   $0x0,-0x8(%rbp)
    6911:	7e 1d                	jle    6930 <safe_mul_func_int64_t_s_s+0x34>
    6913:	48 83 7d f0 00       	cmpq   $0x0,-0x10(%rbp)
    6918:	7e 16                	jle    6930 <safe_mul_func_int64_t_s_s+0x34>
    691a:	48 b8 ff ff ff ff ff 	movabs $0x7fffffffffffffff,%rax
    6921:	ff ff 7f 
    6924:	48 99                	cqto   
    6926:	48 f7 7d f0          	idivq  -0x10(%rbp)
    692a:	48 39 45 f8          	cmp    %rax,-0x8(%rbp)
    692e:	7f 7e                	jg     69ae <safe_mul_func_int64_t_s_s+0xb2>
    6930:	48 83 7d f8 00       	cmpq   $0x0,-0x8(%rbp)
    6935:	7e 1d                	jle    6954 <safe_mul_func_int64_t_s_s+0x58>
    6937:	48 83 7d f0 00       	cmpq   $0x0,-0x10(%rbp)
    693c:	7f 16                	jg     6954 <safe_mul_func_int64_t_s_s+0x58>
    693e:	48 b8 00 00 00 00 00 	movabs $0x8000000000000000,%rax
    6945:	00 00 80 
    6948:	48 99                	cqto   
    694a:	48 f7 7d f8          	idivq  -0x8(%rbp)
    694e:	48 39 45 f0          	cmp    %rax,-0x10(%rbp)
    6952:	7c 5a                	jl     69ae <safe_mul_func_int64_t_s_s+0xb2>
    6954:	48 83 7d f8 00       	cmpq   $0x0,-0x8(%rbp)
    6959:	7f 1d                	jg     6978 <safe_mul_func_int64_t_s_s+0x7c>
    695b:	48 83 7d f0 00       	cmpq   $0x0,-0x10(%rbp)
    6960:	7e 16                	jle    6978 <safe_mul_func_int64_t_s_s+0x7c>
    6962:	48 b8 00 00 00 00 00 	movabs $0x8000000000000000,%rax
    6969:	00 00 80 
    696c:	48 99                	cqto   
    696e:	48 f7 7d f0          	idivq  -0x10(%rbp)
    6972:	48 39 45 f8          	cmp    %rax,-0x8(%rbp)
    6976:	7c 36                	jl     69ae <safe_mul_func_int64_t_s_s+0xb2>
    6978:	48 83 7d f8 00       	cmpq   $0x0,-0x8(%rbp)
    697d:	7f 24                	jg     69a3 <safe_mul_func_int64_t_s_s+0xa7>
    697f:	48 83 7d f0 00       	cmpq   $0x0,-0x10(%rbp)
    6984:	7f 1d                	jg     69a3 <safe_mul_func_int64_t_s_s+0xa7>
    6986:	48 83 7d f8 00       	cmpq   $0x0,-0x8(%rbp)
    698b:	74 16                	je     69a3 <safe_mul_func_int64_t_s_s+0xa7>
    698d:	48 b8 ff ff ff ff ff 	movabs $0x7fffffffffffffff,%rax
    6994:	ff ff 7f 
    6997:	48 99                	cqto   
    6999:	48 f7 7d f8          	idivq  -0x8(%rbp)
    699d:	48 39 45 f0          	cmp    %rax,-0x10(%rbp)
    69a1:	7c 0b                	jl     69ae <safe_mul_func_int64_t_s_s+0xb2>
    69a3:	48 8b 45 f8          	mov    -0x8(%rbp),%rax
    69a7:	48 0f af 45 f0       	imul   -0x10(%rbp),%rax
    69ac:	eb 04                	jmp    69b2 <safe_mul_func_int64_t_s_s+0xb6>
    69ae:	48 8b 45 f8          	mov    -0x8(%rbp),%rax
    69b2:	5d                   	pop    %rbp
    69b3:	c3                   	retq   

00000000000069b4 <safe_mod_func_int64_t_s_s>:
    69b4:	f3 0f 1e fa          	endbr64 
    69b8:	55                   	push   %rbp
    69b9:	48 89 e5             	mov    %rsp,%rbp
    69bc:	48 89 7d f8          	mov    %rdi,-0x8(%rbp)
    69c0:	48 89 75 f0          	mov    %rsi,-0x10(%rbp)
    69c4:	48 83 7d f0 00       	cmpq   $0x0,-0x10(%rbp)
    69c9:	74 26                	je     69f1 <safe_mod_func_int64_t_s_s+0x3d>
    69cb:	48 b8 00 00 00 00 00 	movabs $0x8000000000000000,%rax
    69d2:	00 00 80 
    69d5:	48 39 45 f8          	cmp    %rax,-0x8(%rbp)
    69d9:	75 07                	jne    69e2 <safe_mod_func_int64_t_s_s+0x2e>
    69db:	48 83 7d f0 ff       	cmpq   $0xffffffffffffffff,-0x10(%rbp)
    69e0:	74 0f                	je     69f1 <safe_mod_func_int64_t_s_s+0x3d>
    69e2:	48 8b 45 f8          	mov    -0x8(%rbp),%rax
    69e6:	48 99                	cqto   
    69e8:	48 f7 7d f0          	idivq  -0x10(%rbp)
    69ec:	48 89 d0             	mov    %rdx,%rax
    69ef:	eb 04                	jmp    69f5 <safe_mod_func_int64_t_s_s+0x41>
    69f1:	48 8b 45 f8          	mov    -0x8(%rbp),%rax
    69f5:	5d                   	pop    %rbp
    69f6:	c3                   	retq   

00000000000069f7 <safe_div_func_int64_t_s_s>:
    69f7:	f3 0f 1e fa          	endbr64 
    69fb:	55                   	push   %rbp
    69fc:	48 89 e5             	mov    %rsp,%rbp
    69ff:	48 89 7d f8          	mov    %rdi,-0x8(%rbp)
    6a03:	48 89 75 f0          	mov    %rsi,-0x10(%rbp)
    6a07:	48 83 7d f0 00       	cmpq   $0x0,-0x10(%rbp)
    6a0c:	74 23                	je     6a31 <safe_div_func_int64_t_s_s+0x3a>
    6a0e:	48 b8 00 00 00 00 00 	movabs $0x8000000000000000,%rax
    6a15:	00 00 80 
    6a18:	48 39 45 f8          	cmp    %rax,-0x8(%rbp)
    6a1c:	75 07                	jne    6a25 <safe_div_func_int64_t_s_s+0x2e>
    6a1e:	48 83 7d f0 ff       	cmpq   $0xffffffffffffffff,-0x10(%rbp)
    6a23:	74 0c                	je     6a31 <safe_div_func_int64_t_s_s+0x3a>
    6a25:	48 8b 45 f8          	mov    -0x8(%rbp),%rax
    6a29:	48 99                	cqto   
    6a2b:	48 f7 7d f0          	idivq  -0x10(%rbp)
    6a2f:	eb 04                	jmp    6a35 <safe_div_func_int64_t_s_s+0x3e>
    6a31:	48 8b 45 f8          	mov    -0x8(%rbp),%rax
    6a35:	5d                   	pop    %rbp
    6a36:	c3                   	retq   

0000000000006a37 <safe_lshift_func_int64_t_s_s>:
    6a37:	f3 0f 1e fa          	endbr64 
    6a3b:	55                   	push   %rbp
    6a3c:	48 89 e5             	mov    %rsp,%rbp
    6a3f:	48 89 7d f8          	mov    %rdi,-0x8(%rbp)
    6a43:	89 75 f4             	mov    %esi,-0xc(%rbp)
    6a46:	48 83 7d f8 00       	cmpq   $0x0,-0x8(%rbp)
    6a4b:	78 38                	js     6a85 <safe_lshift_func_int64_t_s_s+0x4e>
    6a4d:	83 7d f4 00          	cmpl   $0x0,-0xc(%rbp)
    6a51:	78 32                	js     6a85 <safe_lshift_func_int64_t_s_s+0x4e>
    6a53:	83 7d f4 1f          	cmpl   $0x1f,-0xc(%rbp)
    6a57:	7f 2c                	jg     6a85 <safe_lshift_func_int64_t_s_s+0x4e>
    6a59:	8b 45 f4             	mov    -0xc(%rbp),%eax
    6a5c:	48 ba ff ff ff ff ff 	movabs $0x7fffffffffffffff,%rdx
    6a63:	ff ff 7f 
    6a66:	89 c1                	mov    %eax,%ecx
    6a68:	48 d3 fa             	sar    %cl,%rdx
    6a6b:	48 89 d0             	mov    %rdx,%rax
    6a6e:	48 39 45 f8          	cmp    %rax,-0x8(%rbp)
    6a72:	7f 11                	jg     6a85 <safe_lshift_func_int64_t_s_s+0x4e>
    6a74:	8b 45 f4             	mov    -0xc(%rbp),%eax
    6a77:	48 8b 55 f8          	mov    -0x8(%rbp),%rdx
    6a7b:	89 c1                	mov    %eax,%ecx
    6a7d:	48 d3 e2             	shl    %cl,%rdx
    6a80:	48 89 d0             	mov    %rdx,%rax
    6a83:	eb 04                	jmp    6a89 <safe_lshift_func_int64_t_s_s+0x52>
    6a85:	48 8b 45 f8          	mov    -0x8(%rbp),%rax
    6a89:	5d                   	pop    %rbp
    6a8a:	c3                   	retq   

0000000000006a8b <safe_lshift_func_int64_t_s_u>:
    6a8b:	f3 0f 1e fa          	endbr64 
    6a8f:	55                   	push   %rbp
    6a90:	48 89 e5             	mov    %rsp,%rbp
    6a93:	48 89 7d f8          	mov    %rdi,-0x8(%rbp)
    6a97:	89 75 f4             	mov    %esi,-0xc(%rbp)
    6a9a:	48 83 7d f8 00       	cmpq   $0x0,-0x8(%rbp)
    6a9f:	78 32                	js     6ad3 <safe_lshift_func_int64_t_s_u+0x48>
    6aa1:	83 7d f4 1f          	cmpl   $0x1f,-0xc(%rbp)
    6aa5:	77 2c                	ja     6ad3 <safe_lshift_func_int64_t_s_u+0x48>
    6aa7:	8b 45 f4             	mov    -0xc(%rbp),%eax
    6aaa:	48 ba ff ff ff ff ff 	movabs $0x7fffffffffffffff,%rdx
    6ab1:	ff ff 7f 
    6ab4:	89 c1                	mov    %eax,%ecx
    6ab6:	48 d3 fa             	sar    %cl,%rdx
    6ab9:	48 89 d0             	mov    %rdx,%rax
    6abc:	48 39 45 f8          	cmp    %rax,-0x8(%rbp)
    6ac0:	7f 11                	jg     6ad3 <safe_lshift_func_int64_t_s_u+0x48>
    6ac2:	8b 45 f4             	mov    -0xc(%rbp),%eax
    6ac5:	48 8b 55 f8          	mov    -0x8(%rbp),%rdx
    6ac9:	89 c1                	mov    %eax,%ecx
    6acb:	48 d3 e2             	shl    %cl,%rdx
    6ace:	48 89 d0             	mov    %rdx,%rax
    6ad1:	eb 04                	jmp    6ad7 <safe_lshift_func_int64_t_s_u+0x4c>
    6ad3:	48 8b 45 f8          	mov    -0x8(%rbp),%rax
    6ad7:	5d                   	pop    %rbp
    6ad8:	c3                   	retq   

0000000000006ad9 <safe_rshift_func_int64_t_s_s>:
    6ad9:	f3 0f 1e fa          	endbr64 
    6add:	55                   	push   %rbp
    6ade:	48 89 e5             	mov    %rsp,%rbp
    6ae1:	48 89 7d f8          	mov    %rdi,-0x8(%rbp)
    6ae5:	89 75 f4             	mov    %esi,-0xc(%rbp)
    6ae8:	48 83 7d f8 00       	cmpq   $0x0,-0x8(%rbp)
    6aed:	78 1d                	js     6b0c <safe_rshift_func_int64_t_s_s+0x33>
    6aef:	83 7d f4 00          	cmpl   $0x0,-0xc(%rbp)
    6af3:	78 17                	js     6b0c <safe_rshift_func_int64_t_s_s+0x33>
    6af5:	83 7d f4 1f          	cmpl   $0x1f,-0xc(%rbp)
    6af9:	7f 11                	jg     6b0c <safe_rshift_func_int64_t_s_s+0x33>
    6afb:	8b 45 f4             	mov    -0xc(%rbp),%eax
    6afe:	48 8b 55 f8          	mov    -0x8(%rbp),%rdx
    6b02:	89 c1                	mov    %eax,%ecx
    6b04:	48 d3 fa             	sar    %cl,%rdx
    6b07:	48 89 d0             	mov    %rdx,%rax
    6b0a:	eb 04                	jmp    6b10 <safe_rshift_func_int64_t_s_s+0x37>
    6b0c:	48 8b 45 f8          	mov    -0x8(%rbp),%rax
    6b10:	5d                   	pop    %rbp
    6b11:	c3                   	retq   

0000000000006b12 <safe_rshift_func_int64_t_s_u>:
    6b12:	f3 0f 1e fa          	endbr64 
    6b16:	55                   	push   %rbp
    6b17:	48 89 e5             	mov    %rsp,%rbp
    6b1a:	48 89 7d f8          	mov    %rdi,-0x8(%rbp)
    6b1e:	89 75 f4             	mov    %esi,-0xc(%rbp)
    6b21:	48 83 7d f8 00       	cmpq   $0x0,-0x8(%rbp)
    6b26:	78 17                	js     6b3f <safe_rshift_func_int64_t_s_u+0x2d>
    6b28:	83 7d f4 1f          	cmpl   $0x1f,-0xc(%rbp)
    6b2c:	77 11                	ja     6b3f <safe_rshift_func_int64_t_s_u+0x2d>
    6b2e:	8b 45 f4             	mov    -0xc(%rbp),%eax
    6b31:	48 8b 55 f8          	mov    -0x8(%rbp),%rdx
    6b35:	89 c1                	mov    %eax,%ecx
    6b37:	48 d3 fa             	sar    %cl,%rdx
    6b3a:	48 89 d0             	mov    %rdx,%rax
    6b3d:	eb 04                	jmp    6b43 <safe_rshift_func_int64_t_s_u+0x31>
    6b3f:	48 8b 45 f8          	mov    -0x8(%rbp),%rax
    6b43:	5d                   	pop    %rbp
    6b44:	c3                   	retq   

0000000000006b45 <safe_unary_minus_func_uint8_t_u>:
    6b45:	f3 0f 1e fa          	endbr64 
    6b49:	55                   	push   %rbp
    6b4a:	48 89 e5             	mov    %rsp,%rbp
    6b4d:	89 f8                	mov    %edi,%eax
    6b4f:	88 45 fc             	mov    %al,-0x4(%rbp)
    6b52:	0f b6 45 fc          	movzbl -0x4(%rbp),%eax
    6b56:	f7 d8                	neg    %eax
    6b58:	5d                   	pop    %rbp
    6b59:	c3                   	retq   

0000000000006b5a <safe_add_func_uint8_t_u_u>:
    6b5a:	f3 0f 1e fa          	endbr64 
    6b5e:	55                   	push   %rbp
    6b5f:	48 89 e5             	mov    %rsp,%rbp
    6b62:	89 fa                	mov    %edi,%edx
    6b64:	89 f0                	mov    %esi,%eax
    6b66:	88 55 fc             	mov    %dl,-0x4(%rbp)
    6b69:	88 45 f8             	mov    %al,-0x8(%rbp)
    6b6c:	0f b6 55 fc          	movzbl -0x4(%rbp),%edx
    6b70:	0f b6 45 f8          	movzbl -0x8(%rbp),%eax
    6b74:	01 d0                	add    %edx,%eax
    6b76:	5d                   	pop    %rbp
    6b77:	c3                   	retq   

0000000000006b78 <safe_sub_func_uint8_t_u_u>:
    6b78:	f3 0f 1e fa          	endbr64 
    6b7c:	55                   	push   %rbp
    6b7d:	48 89 e5             	mov    %rsp,%rbp
    6b80:	89 fa                	mov    %edi,%edx
    6b82:	89 f0                	mov    %esi,%eax
    6b84:	88 55 fc             	mov    %dl,-0x4(%rbp)
    6b87:	88 45 f8             	mov    %al,-0x8(%rbp)
    6b8a:	0f b6 45 fc          	movzbl -0x4(%rbp),%eax
    6b8e:	2a 45 f8             	sub    -0x8(%rbp),%al
    6b91:	5d                   	pop    %rbp
    6b92:	c3                   	retq   

0000000000006b93 <safe_mul_func_uint8_t_u_u>:
    6b93:	f3 0f 1e fa          	endbr64 
    6b97:	55                   	push   %rbp
    6b98:	48 89 e5             	mov    %rsp,%rbp
    6b9b:	89 fa                	mov    %edi,%edx
    6b9d:	89 f0                	mov    %esi,%eax
    6b9f:	88 55 fc             	mov    %dl,-0x4(%rbp)
    6ba2:	88 45 f8             	mov    %al,-0x8(%rbp)
    6ba5:	0f b6 45 fc          	movzbl -0x4(%rbp),%eax
    6ba9:	f6 65 f8             	mulb   -0x8(%rbp)
    6bac:	5d                   	pop    %rbp
    6bad:	c3                   	retq   

0000000000006bae <safe_mod_func_uint8_t_u_u>:
    6bae:	f3 0f 1e fa          	endbr64 
    6bb2:	55                   	push   %rbp
    6bb3:	48 89 e5             	mov    %rsp,%rbp
    6bb6:	89 fa                	mov    %edi,%edx
    6bb8:	89 f0                	mov    %esi,%eax
    6bba:	88 55 fc             	mov    %dl,-0x4(%rbp)
    6bbd:	88 45 f8             	mov    %al,-0x8(%rbp)
    6bc0:	80 7d f8 00          	cmpb   $0x0,-0x8(%rbp)
    6bc4:	74 0f                	je     6bd5 <safe_mod_func_uint8_t_u_u+0x27>
    6bc6:	0f b6 45 fc          	movzbl -0x4(%rbp),%eax
    6bca:	0f b6 c0             	movzbl %al,%eax
    6bcd:	f6 75 f8             	divb   -0x8(%rbp)
    6bd0:	0f b6 c4             	movzbl %ah,%eax
    6bd3:	eb 04                	jmp    6bd9 <safe_mod_func_uint8_t_u_u+0x2b>
    6bd5:	0f b6 45 fc          	movzbl -0x4(%rbp),%eax
    6bd9:	5d                   	pop    %rbp
    6bda:	c3                   	retq   

0000000000006bdb <safe_div_func_uint8_t_u_u>:
    6bdb:	f3 0f 1e fa          	endbr64 
    6bdf:	55                   	push   %rbp
    6be0:	48 89 e5             	mov    %rsp,%rbp
    6be3:	89 fa                	mov    %edi,%edx
    6be5:	89 f0                	mov    %esi,%eax
    6be7:	88 55 fc             	mov    %dl,-0x4(%rbp)
    6bea:	88 45 f8             	mov    %al,-0x8(%rbp)
    6bed:	80 7d f8 00          	cmpb   $0x0,-0x8(%rbp)
    6bf1:	74 0c                	je     6bff <safe_div_func_uint8_t_u_u+0x24>
    6bf3:	0f b6 45 fc          	movzbl -0x4(%rbp),%eax
    6bf7:	0f b6 c0             	movzbl %al,%eax
    6bfa:	f6 75 f8             	divb   -0x8(%rbp)
    6bfd:	eb 04                	jmp    6c03 <safe_div_func_uint8_t_u_u+0x28>
    6bff:	0f b6 45 fc          	movzbl -0x4(%rbp),%eax
    6c03:	5d                   	pop    %rbp
    6c04:	c3                   	retq   

0000000000006c05 <safe_lshift_func_uint8_t_u_s>:
    6c05:	f3 0f 1e fa          	endbr64 
    6c09:	55                   	push   %rbp
    6c0a:	48 89 e5             	mov    %rsp,%rbp
    6c0d:	89 f8                	mov    %edi,%eax
    6c0f:	89 75 f8             	mov    %esi,-0x8(%rbp)
    6c12:	88 45 fc             	mov    %al,-0x4(%rbp)
    6c15:	83 7d f8 00          	cmpl   $0x0,-0x8(%rbp)
    6c19:	78 2b                	js     6c46 <safe_lshift_func_uint8_t_u_s+0x41>
    6c1b:	83 7d f8 1f          	cmpl   $0x1f,-0x8(%rbp)
    6c1f:	7f 25                	jg     6c46 <safe_lshift_func_uint8_t_u_s+0x41>
    6c21:	0f b6 55 fc          	movzbl -0x4(%rbp),%edx
    6c25:	8b 45 f8             	mov    -0x8(%rbp),%eax
    6c28:	be ff 00 00 00       	mov    $0xff,%esi
    6c2d:	89 c1                	mov    %eax,%ecx
    6c2f:	d3 fe                	sar    %cl,%esi
    6c31:	89 f0                	mov    %esi,%eax
    6c33:	39 c2                	cmp    %eax,%edx
    6c35:	7f 0f                	jg     6c46 <safe_lshift_func_uint8_t_u_s+0x41>
    6c37:	0f b6 55 fc          	movzbl -0x4(%rbp),%edx
    6c3b:	8b 45 f8             	mov    -0x8(%rbp),%eax
    6c3e:	89 c1                	mov    %eax,%ecx
    6c40:	d3 e2                	shl    %cl,%edx
    6c42:	89 d0                	mov    %edx,%eax
    6c44:	eb 04                	jmp    6c4a <safe_lshift_func_uint8_t_u_s+0x45>
    6c46:	0f b6 45 fc          	movzbl -0x4(%rbp),%eax
    6c4a:	5d                   	pop    %rbp
    6c4b:	c3                   	retq   

0000000000006c4c <safe_lshift_func_uint8_t_u_u>:
    6c4c:	f3 0f 1e fa          	endbr64 
    6c50:	55                   	push   %rbp
    6c51:	48 89 e5             	mov    %rsp,%rbp
    6c54:	89 f8                	mov    %edi,%eax
    6c56:	89 75 f8             	mov    %esi,-0x8(%rbp)
    6c59:	88 45 fc             	mov    %al,-0x4(%rbp)
    6c5c:	83 7d f8 1f          	cmpl   $0x1f,-0x8(%rbp)
    6c60:	77 25                	ja     6c87 <safe_lshift_func_uint8_t_u_u+0x3b>
    6c62:	0f b6 55 fc          	movzbl -0x4(%rbp),%edx
    6c66:	8b 45 f8             	mov    -0x8(%rbp),%eax
    6c69:	be ff 00 00 00       	mov    $0xff,%esi
    6c6e:	89 c1                	mov    %eax,%ecx
    6c70:	d3 fe                	sar    %cl,%esi
    6c72:	89 f0                	mov    %esi,%eax
    6c74:	39 c2                	cmp    %eax,%edx
    6c76:	7f 0f                	jg     6c87 <safe_lshift_func_uint8_t_u_u+0x3b>
    6c78:	0f b6 55 fc          	movzbl -0x4(%rbp),%edx
    6c7c:	8b 45 f8             	mov    -0x8(%rbp),%eax
    6c7f:	89 c1                	mov    %eax,%ecx
    6c81:	d3 e2                	shl    %cl,%edx
    6c83:	89 d0                	mov    %edx,%eax
    6c85:	eb 04                	jmp    6c8b <safe_lshift_func_uint8_t_u_u+0x3f>
    6c87:	0f b6 45 fc          	movzbl -0x4(%rbp),%eax
    6c8b:	5d                   	pop    %rbp
    6c8c:	c3                   	retq   

0000000000006c8d <safe_rshift_func_uint8_t_u_s>:
    6c8d:	f3 0f 1e fa          	endbr64 
    6c91:	55                   	push   %rbp
    6c92:	48 89 e5             	mov    %rsp,%rbp
    6c95:	89 f8                	mov    %edi,%eax
    6c97:	89 75 f8             	mov    %esi,-0x8(%rbp)
    6c9a:	88 45 fc             	mov    %al,-0x4(%rbp)
    6c9d:	83 7d f8 00          	cmpl   $0x0,-0x8(%rbp)
    6ca1:	78 15                	js     6cb8 <safe_rshift_func_uint8_t_u_s+0x2b>
    6ca3:	83 7d f8 1f          	cmpl   $0x1f,-0x8(%rbp)
    6ca7:	7f 0f                	jg     6cb8 <safe_rshift_func_uint8_t_u_s+0x2b>
    6ca9:	0f b6 55 fc          	movzbl -0x4(%rbp),%edx
    6cad:	8b 45 f8             	mov    -0x8(%rbp),%eax
    6cb0:	89 c1                	mov    %eax,%ecx
    6cb2:	d3 fa                	sar    %cl,%edx
    6cb4:	89 d0                	mov    %edx,%eax
    6cb6:	eb 04                	jmp    6cbc <safe_rshift_func_uint8_t_u_s+0x2f>
    6cb8:	0f b6 45 fc          	movzbl -0x4(%rbp),%eax
    6cbc:	5d                   	pop    %rbp
    6cbd:	c3                   	retq   

0000000000006cbe <safe_rshift_func_uint8_t_u_u>:
    6cbe:	f3 0f 1e fa          	endbr64 
    6cc2:	55                   	push   %rbp
    6cc3:	48 89 e5             	mov    %rsp,%rbp
    6cc6:	89 f8                	mov    %edi,%eax
    6cc8:	89 75 f8             	mov    %esi,-0x8(%rbp)
    6ccb:	88 45 fc             	mov    %al,-0x4(%rbp)
    6cce:	83 7d f8 1f          	cmpl   $0x1f,-0x8(%rbp)
    6cd2:	77 0f                	ja     6ce3 <safe_rshift_func_uint8_t_u_u+0x25>
    6cd4:	0f b6 55 fc          	movzbl -0x4(%rbp),%edx
    6cd8:	8b 45 f8             	mov    -0x8(%rbp),%eax
    6cdb:	89 c1                	mov    %eax,%ecx
    6cdd:	d3 fa                	sar    %cl,%edx
    6cdf:	89 d0                	mov    %edx,%eax
    6ce1:	eb 04                	jmp    6ce7 <safe_rshift_func_uint8_t_u_u+0x29>
    6ce3:	0f b6 45 fc          	movzbl -0x4(%rbp),%eax
    6ce7:	5d                   	pop    %rbp
    6ce8:	c3                   	retq   

0000000000006ce9 <safe_unary_minus_func_uint16_t_u>:
    6ce9:	f3 0f 1e fa          	endbr64 
    6ced:	55                   	push   %rbp
    6cee:	48 89 e5             	mov    %rsp,%rbp
    6cf1:	89 f8                	mov    %edi,%eax
    6cf3:	66 89 45 fc          	mov    %ax,-0x4(%rbp)
    6cf7:	0f b7 45 fc          	movzwl -0x4(%rbp),%eax
    6cfb:	f7 d8                	neg    %eax
    6cfd:	5d                   	pop    %rbp
    6cfe:	c3                   	retq   

0000000000006cff <safe_add_func_uint16_t_u_u>:
    6cff:	f3 0f 1e fa          	endbr64 
    6d03:	55                   	push   %rbp
    6d04:	48 89 e5             	mov    %rsp,%rbp
    6d07:	89 fa                	mov    %edi,%edx
    6d09:	89 f0                	mov    %esi,%eax
    6d0b:	66 89 55 fc          	mov    %dx,-0x4(%rbp)
    6d0f:	66 89 45 f8          	mov    %ax,-0x8(%rbp)
    6d13:	0f b7 55 fc          	movzwl -0x4(%rbp),%edx
    6d17:	0f b7 45 f8          	movzwl -0x8(%rbp),%eax
    6d1b:	01 d0                	add    %edx,%eax
    6d1d:	5d                   	pop    %rbp
    6d1e:	c3                   	retq   

0000000000006d1f <safe_sub_func_uint16_t_u_u>:
    6d1f:	f3 0f 1e fa          	endbr64 
    6d23:	55                   	push   %rbp
    6d24:	48 89 e5             	mov    %rsp,%rbp
    6d27:	89 fa                	mov    %edi,%edx
    6d29:	89 f0                	mov    %esi,%eax
    6d2b:	66 89 55 fc          	mov    %dx,-0x4(%rbp)
    6d2f:	66 89 45 f8          	mov    %ax,-0x8(%rbp)
    6d33:	0f b7 45 fc          	movzwl -0x4(%rbp),%eax
    6d37:	66 2b 45 f8          	sub    -0x8(%rbp),%ax
    6d3b:	5d                   	pop    %rbp
    6d3c:	c3                   	retq   

0000000000006d3d <safe_mul_func_uint16_t_u_u>:
    6d3d:	f3 0f 1e fa          	endbr64 
    6d41:	55                   	push   %rbp
    6d42:	48 89 e5             	mov    %rsp,%rbp
    6d45:	89 fa                	mov    %edi,%edx
    6d47:	89 f0                	mov    %esi,%eax
    6d49:	66 89 55 fc          	mov    %dx,-0x4(%rbp)
    6d4d:	66 89 45 f8          	mov    %ax,-0x8(%rbp)
    6d51:	0f b7 45 fc          	movzwl -0x4(%rbp),%eax
    6d55:	66 0f af 45 f8       	imul   -0x8(%rbp),%ax
    6d5a:	5d                   	pop    %rbp
    6d5b:	c3                   	retq   

0000000000006d5c <safe_mod_func_uint16_t_u_u>:
    6d5c:	f3 0f 1e fa          	endbr64 
    6d60:	55                   	push   %rbp
    6d61:	48 89 e5             	mov    %rsp,%rbp
    6d64:	89 fa                	mov    %edi,%edx
    6d66:	89 f0                	mov    %esi,%eax
    6d68:	66 89 55 fc          	mov    %dx,-0x4(%rbp)
    6d6c:	66 89 45 f8          	mov    %ax,-0x8(%rbp)
    6d70:	66 83 7d f8 00       	cmpw   $0x0,-0x8(%rbp)
    6d75:	74 11                	je     6d88 <safe_mod_func_uint16_t_u_u+0x2c>
    6d77:	0f b7 45 fc          	movzwl -0x4(%rbp),%eax
    6d7b:	ba 00 00 00 00       	mov    $0x0,%edx
    6d80:	66 f7 75 f8          	divw   -0x8(%rbp)
    6d84:	89 d0                	mov    %edx,%eax
    6d86:	eb 04                	jmp    6d8c <safe_mod_func_uint16_t_u_u+0x30>
    6d88:	0f b7 45 fc          	movzwl -0x4(%rbp),%eax
    6d8c:	5d                   	pop    %rbp
    6d8d:	c3                   	retq   

0000000000006d8e <safe_div_func_uint16_t_u_u>:
    6d8e:	f3 0f 1e fa          	endbr64 
    6d92:	55                   	push   %rbp
    6d93:	48 89 e5             	mov    %rsp,%rbp
    6d96:	89 fa                	mov    %edi,%edx
    6d98:	89 f0                	mov    %esi,%eax
    6d9a:	66 89 55 fc          	mov    %dx,-0x4(%rbp)
    6d9e:	66 89 45 f8          	mov    %ax,-0x8(%rbp)
    6da2:	66 83 7d f8 00       	cmpw   $0x0,-0x8(%rbp)
    6da7:	74 0f                	je     6db8 <safe_div_func_uint16_t_u_u+0x2a>
    6da9:	0f b7 45 fc          	movzwl -0x4(%rbp),%eax
    6dad:	ba 00 00 00 00       	mov    $0x0,%edx
    6db2:	66 f7 75 f8          	divw   -0x8(%rbp)
    6db6:	eb 04                	jmp    6dbc <safe_div_func_uint16_t_u_u+0x2e>
    6db8:	0f b7 45 fc          	movzwl -0x4(%rbp),%eax
    6dbc:	5d                   	pop    %rbp
    6dbd:	c3                   	retq   

0000000000006dbe <safe_lshift_func_uint16_t_u_s>:
    6dbe:	f3 0f 1e fa          	endbr64 
    6dc2:	55                   	push   %rbp
    6dc3:	48 89 e5             	mov    %rsp,%rbp
    6dc6:	89 f8                	mov    %edi,%eax
    6dc8:	89 75 f8             	mov    %esi,-0x8(%rbp)
    6dcb:	66 89 45 fc          	mov    %ax,-0x4(%rbp)
    6dcf:	83 7d f8 00          	cmpl   $0x0,-0x8(%rbp)
    6dd3:	78 2b                	js     6e00 <safe_lshift_func_uint16_t_u_s+0x42>
    6dd5:	83 7d f8 1f          	cmpl   $0x1f,-0x8(%rbp)
    6dd9:	7f 25                	jg     6e00 <safe_lshift_func_uint16_t_u_s+0x42>
    6ddb:	0f b7 55 fc          	movzwl -0x4(%rbp),%edx
    6ddf:	8b 45 f8             	mov    -0x8(%rbp),%eax
    6de2:	be ff ff 00 00       	mov    $0xffff,%esi
    6de7:	89 c1                	mov    %eax,%ecx
    6de9:	d3 fe                	sar    %cl,%esi
    6deb:	89 f0                	mov    %esi,%eax
    6ded:	39 c2                	cmp    %eax,%edx
    6def:	7f 0f                	jg     6e00 <safe_lshift_func_uint16_t_u_s+0x42>
    6df1:	0f b7 55 fc          	movzwl -0x4(%rbp),%edx
    6df5:	8b 45 f8             	mov    -0x8(%rbp),%eax
    6df8:	89 c1                	mov    %eax,%ecx
    6dfa:	d3 e2                	shl    %cl,%edx
    6dfc:	89 d0                	mov    %edx,%eax
    6dfe:	eb 04                	jmp    6e04 <safe_lshift_func_uint16_t_u_s+0x46>
    6e00:	0f b7 45 fc          	movzwl -0x4(%rbp),%eax
    6e04:	5d                   	pop    %rbp
    6e05:	c3                   	retq   

0000000000006e06 <safe_lshift_func_uint16_t_u_u>:
    6e06:	f3 0f 1e fa          	endbr64 
    6e0a:	55                   	push   %rbp
    6e0b:	48 89 e5             	mov    %rsp,%rbp
    6e0e:	89 f8                	mov    %edi,%eax
    6e10:	89 75 f8             	mov    %esi,-0x8(%rbp)
    6e13:	66 89 45 fc          	mov    %ax,-0x4(%rbp)
    6e17:	83 7d f8 1f          	cmpl   $0x1f,-0x8(%rbp)
    6e1b:	77 25                	ja     6e42 <safe_lshift_func_uint16_t_u_u+0x3c>
    6e1d:	0f b7 55 fc          	movzwl -0x4(%rbp),%edx
    6e21:	8b 45 f8             	mov    -0x8(%rbp),%eax
    6e24:	be ff ff 00 00       	mov    $0xffff,%esi
    6e29:	89 c1                	mov    %eax,%ecx
    6e2b:	d3 fe                	sar    %cl,%esi
    6e2d:	89 f0                	mov    %esi,%eax
    6e2f:	39 c2                	cmp    %eax,%edx
    6e31:	7f 0f                	jg     6e42 <safe_lshift_func_uint16_t_u_u+0x3c>
    6e33:	0f b7 55 fc          	movzwl -0x4(%rbp),%edx
    6e37:	8b 45 f8             	mov    -0x8(%rbp),%eax
    6e3a:	89 c1                	mov    %eax,%ecx
    6e3c:	d3 e2                	shl    %cl,%edx
    6e3e:	89 d0                	mov    %edx,%eax
    6e40:	eb 04                	jmp    6e46 <safe_lshift_func_uint16_t_u_u+0x40>
    6e42:	0f b7 45 fc          	movzwl -0x4(%rbp),%eax
    6e46:	5d                   	pop    %rbp
    6e47:	c3                   	retq   

0000000000006e48 <safe_rshift_func_uint16_t_u_s>:
    6e48:	f3 0f 1e fa          	endbr64 
    6e4c:	55                   	push   %rbp
    6e4d:	48 89 e5             	mov    %rsp,%rbp
    6e50:	89 f8                	mov    %edi,%eax
    6e52:	89 75 f8             	mov    %esi,-0x8(%rbp)
    6e55:	66 89 45 fc          	mov    %ax,-0x4(%rbp)
    6e59:	83 7d f8 00          	cmpl   $0x0,-0x8(%rbp)
    6e5d:	78 15                	js     6e74 <safe_rshift_func_uint16_t_u_s+0x2c>
    6e5f:	83 7d f8 1f          	cmpl   $0x1f,-0x8(%rbp)
    6e63:	7f 0f                	jg     6e74 <safe_rshift_func_uint16_t_u_s+0x2c>
    6e65:	0f b7 55 fc          	movzwl -0x4(%rbp),%edx
    6e69:	8b 45 f8             	mov    -0x8(%rbp),%eax
    6e6c:	89 c1                	mov    %eax,%ecx
    6e6e:	d3 fa                	sar    %cl,%edx
    6e70:	89 d0                	mov    %edx,%eax
    6e72:	eb 04                	jmp    6e78 <safe_rshift_func_uint16_t_u_s+0x30>
    6e74:	0f b7 45 fc          	movzwl -0x4(%rbp),%eax
    6e78:	5d                   	pop    %rbp
    6e79:	c3                   	retq   

0000000000006e7a <safe_rshift_func_uint16_t_u_u>:
    6e7a:	f3 0f 1e fa          	endbr64 
    6e7e:	55                   	push   %rbp
    6e7f:	48 89 e5             	mov    %rsp,%rbp
    6e82:	89 f8                	mov    %edi,%eax
    6e84:	89 75 f8             	mov    %esi,-0x8(%rbp)
    6e87:	66 89 45 fc          	mov    %ax,-0x4(%rbp)
    6e8b:	83 7d f8 1f          	cmpl   $0x1f,-0x8(%rbp)
    6e8f:	77 0f                	ja     6ea0 <safe_rshift_func_uint16_t_u_u+0x26>
    6e91:	0f b7 55 fc          	movzwl -0x4(%rbp),%edx
    6e95:	8b 45 f8             	mov    -0x8(%rbp),%eax
    6e98:	89 c1                	mov    %eax,%ecx
    6e9a:	d3 fa                	sar    %cl,%edx
    6e9c:	89 d0                	mov    %edx,%eax
    6e9e:	eb 04                	jmp    6ea4 <safe_rshift_func_uint16_t_u_u+0x2a>
    6ea0:	0f b7 45 fc          	movzwl -0x4(%rbp),%eax
    6ea4:	5d                   	pop    %rbp
    6ea5:	c3                   	retq   

0000000000006ea6 <safe_unary_minus_func_uint32_t_u>:
    6ea6:	f3 0f 1e fa          	endbr64 
    6eaa:	55                   	push   %rbp
    6eab:	48 89 e5             	mov    %rsp,%rbp
    6eae:	89 7d fc             	mov    %edi,-0x4(%rbp)
    6eb1:	8b 45 fc             	mov    -0x4(%rbp),%eax
    6eb4:	f7 d8                	neg    %eax
    6eb6:	5d                   	pop    %rbp
    6eb7:	c3                   	retq   

0000000000006eb8 <safe_add_func_uint32_t_u_u>:
    6eb8:	f3 0f 1e fa          	endbr64 
    6ebc:	55                   	push   %rbp
    6ebd:	48 89 e5             	mov    %rsp,%rbp
    6ec0:	89 7d fc             	mov    %edi,-0x4(%rbp)
    6ec3:	89 75 f8             	mov    %esi,-0x8(%rbp)
    6ec6:	8b 55 fc             	mov    -0x4(%rbp),%edx
    6ec9:	8b 45 f8             	mov    -0x8(%rbp),%eax
    6ecc:	01 d0                	add    %edx,%eax
    6ece:	5d                   	pop    %rbp
    6ecf:	c3                   	retq   

0000000000006ed0 <safe_sub_func_uint32_t_u_u>:
    6ed0:	f3 0f 1e fa          	endbr64 
    6ed4:	55                   	push   %rbp
    6ed5:	48 89 e5             	mov    %rsp,%rbp
    6ed8:	89 7d fc             	mov    %edi,-0x4(%rbp)
    6edb:	89 75 f8             	mov    %esi,-0x8(%rbp)
    6ede:	8b 45 fc             	mov    -0x4(%rbp),%eax
    6ee1:	2b 45 f8             	sub    -0x8(%rbp),%eax
    6ee4:	5d                   	pop    %rbp
    6ee5:	c3                   	retq   

0000000000006ee6 <safe_mul_func_uint32_t_u_u>:
    6ee6:	f3 0f 1e fa          	endbr64 
    6eea:	55                   	push   %rbp
    6eeb:	48 89 e5             	mov    %rsp,%rbp
    6eee:	89 7d fc             	mov    %edi,-0x4(%rbp)
    6ef1:	89 75 f8             	mov    %esi,-0x8(%rbp)
    6ef4:	8b 45 fc             	mov    -0x4(%rbp),%eax
    6ef7:	0f af 45 f8          	imul   -0x8(%rbp),%eax
    6efb:	5d                   	pop    %rbp
    6efc:	c3                   	retq   

0000000000006efd <safe_mod_func_uint32_t_u_u>:
    6efd:	f3 0f 1e fa          	endbr64 
    6f01:	55                   	push   %rbp
    6f02:	48 89 e5             	mov    %rsp,%rbp
    6f05:	89 7d fc             	mov    %edi,-0x4(%rbp)
    6f08:	89 75 f8             	mov    %esi,-0x8(%rbp)
    6f0b:	83 7d f8 00          	cmpl   $0x0,-0x8(%rbp)
    6f0f:	74 0f                	je     6f20 <safe_mod_func_uint32_t_u_u+0x23>
    6f11:	8b 45 fc             	mov    -0x4(%rbp),%eax
    6f14:	ba 00 00 00 00       	mov    $0x0,%edx
    6f19:	f7 75 f8             	divl   -0x8(%rbp)
    6f1c:	89 d0                	mov    %edx,%eax
    6f1e:	eb 03                	jmp    6f23 <safe_mod_func_uint32_t_u_u+0x26>
    6f20:	8b 45 fc             	mov    -0x4(%rbp),%eax
    6f23:	5d                   	pop    %rbp
    6f24:	c3                   	retq   

0000000000006f25 <safe_div_func_uint32_t_u_u>:
    6f25:	f3 0f 1e fa          	endbr64 
    6f29:	55                   	push   %rbp
    6f2a:	48 89 e5             	mov    %rsp,%rbp
    6f2d:	89 7d fc             	mov    %edi,-0x4(%rbp)
    6f30:	89 75 f8             	mov    %esi,-0x8(%rbp)
    6f33:	83 7d f8 00          	cmpl   $0x0,-0x8(%rbp)
    6f37:	74 0d                	je     6f46 <safe_div_func_uint32_t_u_u+0x21>
    6f39:	8b 45 fc             	mov    -0x4(%rbp),%eax
    6f3c:	ba 00 00 00 00       	mov    $0x0,%edx
    6f41:	f7 75 f8             	divl   -0x8(%rbp)
    6f44:	eb 03                	jmp    6f49 <safe_div_func_uint32_t_u_u+0x24>
    6f46:	8b 45 fc             	mov    -0x4(%rbp),%eax
    6f49:	5d                   	pop    %rbp
    6f4a:	c3                   	retq   

0000000000006f4b <safe_lshift_func_uint32_t_u_s>:
    6f4b:	f3 0f 1e fa          	endbr64 
    6f4f:	55                   	push   %rbp
    6f50:	48 89 e5             	mov    %rsp,%rbp
    6f53:	89 7d fc             	mov    %edi,-0x4(%rbp)
    6f56:	89 75 f8             	mov    %esi,-0x8(%rbp)
    6f59:	83 7d f8 00          	cmpl   $0x0,-0x8(%rbp)
    6f5d:	78 27                	js     6f86 <safe_lshift_func_uint32_t_u_s+0x3b>
    6f5f:	83 7d f8 1f          	cmpl   $0x1f,-0x8(%rbp)
    6f63:	7f 21                	jg     6f86 <safe_lshift_func_uint32_t_u_s+0x3b>
    6f65:	8b 45 f8             	mov    -0x8(%rbp),%eax
    6f68:	ba ff ff ff ff       	mov    $0xffffffff,%edx
    6f6d:	89 c1                	mov    %eax,%ecx
    6f6f:	d3 ea                	shr    %cl,%edx
    6f71:	89 d0                	mov    %edx,%eax
    6f73:	39 45 fc             	cmp    %eax,-0x4(%rbp)
    6f76:	77 0e                	ja     6f86 <safe_lshift_func_uint32_t_u_s+0x3b>
    6f78:	8b 45 f8             	mov    -0x8(%rbp),%eax
    6f7b:	8b 55 fc             	mov    -0x4(%rbp),%edx
    6f7e:	89 c1                	mov    %eax,%ecx
    6f80:	d3 e2                	shl    %cl,%edx
    6f82:	89 d0                	mov    %edx,%eax
    6f84:	eb 03                	jmp    6f89 <safe_lshift_func_uint32_t_u_s+0x3e>
    6f86:	8b 45 fc             	mov    -0x4(%rbp),%eax
    6f89:	5d                   	pop    %rbp
    6f8a:	c3                   	retq   

0000000000006f8b <safe_lshift_func_uint32_t_u_u>:
    6f8b:	f3 0f 1e fa          	endbr64 
    6f8f:	55                   	push   %rbp
    6f90:	48 89 e5             	mov    %rsp,%rbp
    6f93:	89 7d fc             	mov    %edi,-0x4(%rbp)
    6f96:	89 75 f8             	mov    %esi,-0x8(%rbp)
    6f99:	83 7d f8 1f          	cmpl   $0x1f,-0x8(%rbp)
    6f9d:	77 21                	ja     6fc0 <safe_lshift_func_uint32_t_u_u+0x35>
    6f9f:	8b 45 f8             	mov    -0x8(%rbp),%eax
    6fa2:	ba ff ff ff ff       	mov    $0xffffffff,%edx
    6fa7:	89 c1                	mov    %eax,%ecx
    6fa9:	d3 ea                	shr    %cl,%edx
    6fab:	89 d0                	mov    %edx,%eax
    6fad:	39 45 fc             	cmp    %eax,-0x4(%rbp)
    6fb0:	77 0e                	ja     6fc0 <safe_lshift_func_uint32_t_u_u+0x35>
    6fb2:	8b 45 f8             	mov    -0x8(%rbp),%eax
    6fb5:	8b 55 fc             	mov    -0x4(%rbp),%edx
    6fb8:	89 c1                	mov    %eax,%ecx
    6fba:	d3 e2                	shl    %cl,%edx
    6fbc:	89 d0                	mov    %edx,%eax
    6fbe:	eb 03                	jmp    6fc3 <safe_lshift_func_uint32_t_u_u+0x38>
    6fc0:	8b 45 fc             	mov    -0x4(%rbp),%eax
    6fc3:	5d                   	pop    %rbp
    6fc4:	c3                   	retq   

0000000000006fc5 <safe_rshift_func_uint32_t_u_s>:
    6fc5:	f3 0f 1e fa          	endbr64 
    6fc9:	55                   	push   %rbp
    6fca:	48 89 e5             	mov    %rsp,%rbp
    6fcd:	89 7d fc             	mov    %edi,-0x4(%rbp)
    6fd0:	89 75 f8             	mov    %esi,-0x8(%rbp)
    6fd3:	83 7d f8 00          	cmpl   $0x0,-0x8(%rbp)
    6fd7:	78 14                	js     6fed <safe_rshift_func_uint32_t_u_s+0x28>
    6fd9:	83 7d f8 1f          	cmpl   $0x1f,-0x8(%rbp)
    6fdd:	7f 0e                	jg     6fed <safe_rshift_func_uint32_t_u_s+0x28>
    6fdf:	8b 45 f8             	mov    -0x8(%rbp),%eax
    6fe2:	8b 55 fc             	mov    -0x4(%rbp),%edx
    6fe5:	89 c1                	mov    %eax,%ecx
    6fe7:	d3 ea                	shr    %cl,%edx
    6fe9:	89 d0                	mov    %edx,%eax
    6feb:	eb 03                	jmp    6ff0 <safe_rshift_func_uint32_t_u_s+0x2b>
    6fed:	8b 45 fc             	mov    -0x4(%rbp),%eax
    6ff0:	5d                   	pop    %rbp
    6ff1:	c3                   	retq   

0000000000006ff2 <safe_rshift_func_uint32_t_u_u>:
    6ff2:	f3 0f 1e fa          	endbr64 
    6ff6:	55                   	push   %rbp
    6ff7:	48 89 e5             	mov    %rsp,%rbp
    6ffa:	89 7d fc             	mov    %edi,-0x4(%rbp)
    6ffd:	89 75 f8             	mov    %esi,-0x8(%rbp)
    7000:	83 7d f8 1f          	cmpl   $0x1f,-0x8(%rbp)
    7004:	77 0e                	ja     7014 <safe_rshift_func_uint32_t_u_u+0x22>
    7006:	8b 45 f8             	mov    -0x8(%rbp),%eax
    7009:	8b 55 fc             	mov    -0x4(%rbp),%edx
    700c:	89 c1                	mov    %eax,%ecx
    700e:	d3 ea                	shr    %cl,%edx
    7010:	89 d0                	mov    %edx,%eax
    7012:	eb 03                	jmp    7017 <safe_rshift_func_uint32_t_u_u+0x25>
    7014:	8b 45 fc             	mov    -0x4(%rbp),%eax
    7017:	5d                   	pop    %rbp
    7018:	c3                   	retq   

0000000000007019 <safe_unary_minus_func_uint64_t_u>:
    7019:	f3 0f 1e fa          	endbr64 
    701d:	55                   	push   %rbp
    701e:	48 89 e5             	mov    %rsp,%rbp
    7021:	48 89 7d f8          	mov    %rdi,-0x8(%rbp)
    7025:	48 8b 45 f8          	mov    -0x8(%rbp),%rax
    7029:	48 f7 d8             	neg    %rax
    702c:	5d                   	pop    %rbp
    702d:	c3                   	retq   

000000000000702e <safe_add_func_uint64_t_u_u>:
    702e:	f3 0f 1e fa          	endbr64 
    7032:	55                   	push   %rbp
    7033:	48 89 e5             	mov    %rsp,%rbp
    7036:	48 89 7d f8          	mov    %rdi,-0x8(%rbp)
    703a:	48 89 75 f0          	mov    %rsi,-0x10(%rbp)
    703e:	48 8b 55 f8          	mov    -0x8(%rbp),%rdx
    7042:	48 8b 45 f0          	mov    -0x10(%rbp),%rax
    7046:	48 01 d0             	add    %rdx,%rax
    7049:	5d                   	pop    %rbp
    704a:	c3                   	retq   

000000000000704b <safe_sub_func_uint64_t_u_u>:
    704b:	f3 0f 1e fa          	endbr64 
    704f:	55                   	push   %rbp
    7050:	48 89 e5             	mov    %rsp,%rbp
    7053:	48 89 7d f8          	mov    %rdi,-0x8(%rbp)
    7057:	48 89 75 f0          	mov    %rsi,-0x10(%rbp)
    705b:	48 8b 45 f8          	mov    -0x8(%rbp),%rax
    705f:	48 2b 45 f0          	sub    -0x10(%rbp),%rax
    7063:	5d                   	pop    %rbp
    7064:	c3                   	retq   

0000000000007065 <safe_mul_func_uint64_t_u_u>:
    7065:	f3 0f 1e fa          	endbr64 
    7069:	55                   	push   %rbp
    706a:	48 89 e5             	mov    %rsp,%rbp
    706d:	48 89 7d f8          	mov    %rdi,-0x8(%rbp)
    7071:	48 89 75 f0          	mov    %rsi,-0x10(%rbp)
    7075:	48 8b 45 f8          	mov    -0x8(%rbp),%rax
    7079:	48 0f af 45 f0       	imul   -0x10(%rbp),%rax
    707e:	5d                   	pop    %rbp
    707f:	c3                   	retq   

0000000000007080 <safe_mod_func_uint64_t_u_u>:
    7080:	f3 0f 1e fa          	endbr64 
    7084:	55                   	push   %rbp
    7085:	48 89 e5             	mov    %rsp,%rbp
    7088:	48 89 7d f8          	mov    %rdi,-0x8(%rbp)
    708c:	48 89 75 f0          	mov    %rsi,-0x10(%rbp)
    7090:	48 83 7d f0 00       	cmpq   $0x0,-0x10(%rbp)
    7095:	74 12                	je     70a9 <safe_mod_func_uint64_t_u_u+0x29>
    7097:	48 8b 45 f8          	mov    -0x8(%rbp),%rax
    709b:	ba 00 00 00 00       	mov    $0x0,%edx
    70a0:	48 f7 75 f0          	divq   -0x10(%rbp)
    70a4:	48 89 d0             	mov    %rdx,%rax
    70a7:	eb 04                	jmp    70ad <safe_mod_func_uint64_t_u_u+0x2d>
    70a9:	48 8b 45 f8          	mov    -0x8(%rbp),%rax
    70ad:	5d                   	pop    %rbp
    70ae:	c3                   	retq   

00000000000070af <safe_div_func_uint64_t_u_u>:
    70af:	f3 0f 1e fa          	endbr64 
    70b3:	55                   	push   %rbp
    70b4:	48 89 e5             	mov    %rsp,%rbp
    70b7:	48 89 7d f8          	mov    %rdi,-0x8(%rbp)
    70bb:	48 89 75 f0          	mov    %rsi,-0x10(%rbp)
    70bf:	48 83 7d f0 00       	cmpq   $0x0,-0x10(%rbp)
    70c4:	74 0f                	je     70d5 <safe_div_func_uint64_t_u_u+0x26>
    70c6:	48 8b 45 f8          	mov    -0x8(%rbp),%rax
    70ca:	ba 00 00 00 00       	mov    $0x0,%edx
    70cf:	48 f7 75 f0          	divq   -0x10(%rbp)
    70d3:	eb 04                	jmp    70d9 <safe_div_func_uint64_t_u_u+0x2a>
    70d5:	48 8b 45 f8          	mov    -0x8(%rbp),%rax
    70d9:	5d                   	pop    %rbp
    70da:	c3                   	retq   

00000000000070db <safe_lshift_func_uint64_t_u_s>:
    70db:	f3 0f 1e fa          	endbr64 
    70df:	55                   	push   %rbp
    70e0:	48 89 e5             	mov    %rsp,%rbp
    70e3:	48 89 7d f8          	mov    %rdi,-0x8(%rbp)
    70e7:	89 75 f4             	mov    %esi,-0xc(%rbp)
    70ea:	83 7d f4 00          	cmpl   $0x0,-0xc(%rbp)
    70ee:	78 2f                	js     711f <safe_lshift_func_uint64_t_u_s+0x44>
    70f0:	83 7d f4 1f          	cmpl   $0x1f,-0xc(%rbp)
    70f4:	7f 29                	jg     711f <safe_lshift_func_uint64_t_u_s+0x44>
    70f6:	8b 45 f4             	mov    -0xc(%rbp),%eax
    70f9:	48 c7 c2 ff ff ff ff 	mov    $0xffffffffffffffff,%rdx
    7100:	89 c1                	mov    %eax,%ecx
    7102:	48 d3 ea             	shr    %cl,%rdx
    7105:	48 89 d0             	mov    %rdx,%rax
    7108:	48 39 45 f8          	cmp    %rax,-0x8(%rbp)
    710c:	77 11                	ja     711f <safe_lshift_func_uint64_t_u_s+0x44>
    710e:	8b 45 f4             	mov    -0xc(%rbp),%eax
    7111:	48 8b 55 f8          	mov    -0x8(%rbp),%rdx
    7115:	89 c1                	mov    %eax,%ecx
    7117:	48 d3 e2             	shl    %cl,%rdx
    711a:	48 89 d0             	mov    %rdx,%rax
    711d:	eb 04                	jmp    7123 <safe_lshift_func_uint64_t_u_s+0x48>
    711f:	48 8b 45 f8          	mov    -0x8(%rbp),%rax
    7123:	5d                   	pop    %rbp
    7124:	c3                   	retq   

0000000000007125 <safe_lshift_func_uint64_t_u_u>:
    7125:	f3 0f 1e fa          	endbr64 
    7129:	55                   	push   %rbp
    712a:	48 89 e5             	mov    %rsp,%rbp
    712d:	48 89 7d f8          	mov    %rdi,-0x8(%rbp)
    7131:	89 75 f4             	mov    %esi,-0xc(%rbp)
    7134:	83 7d f4 1f          	cmpl   $0x1f,-0xc(%rbp)
    7138:	77 29                	ja     7163 <safe_lshift_func_uint64_t_u_u+0x3e>
    713a:	8b 45 f4             	mov    -0xc(%rbp),%eax
    713d:	48 c7 c2 ff ff ff ff 	mov    $0xffffffffffffffff,%rdx
    7144:	89 c1                	mov    %eax,%ecx
    7146:	48 d3 ea             	shr    %cl,%rdx
    7149:	48 89 d0             	mov    %rdx,%rax
    714c:	48 39 45 f8          	cmp    %rax,-0x8(%rbp)
    7150:	77 11                	ja     7163 <safe_lshift_func_uint64_t_u_u+0x3e>
    7152:	8b 45 f4             	mov    -0xc(%rbp),%eax
    7155:	48 8b 55 f8          	mov    -0x8(%rbp),%rdx
    7159:	89 c1                	mov    %eax,%ecx
    715b:	48 d3 e2             	shl    %cl,%rdx
    715e:	48 89 d0             	mov    %rdx,%rax
    7161:	eb 04                	jmp    7167 <safe_lshift_func_uint64_t_u_u+0x42>
    7163:	48 8b 45 f8          	mov    -0x8(%rbp),%rax
    7167:	5d                   	pop    %rbp
    7168:	c3                   	retq   

0000000000007169 <safe_rshift_func_uint64_t_u_s>:
    7169:	f3 0f 1e fa          	endbr64 
    716d:	55                   	push   %rbp
    716e:	48 89 e5             	mov    %rsp,%rbp
    7171:	48 89 7d f8          	mov    %rdi,-0x8(%rbp)
    7175:	89 75 f4             	mov    %esi,-0xc(%rbp)
    7178:	83 7d f4 00          	cmpl   $0x0,-0xc(%rbp)
    717c:	78 17                	js     7195 <safe_rshift_func_uint64_t_u_s+0x2c>
    717e:	83 7d f4 1f          	cmpl   $0x1f,-0xc(%rbp)
    7182:	7f 11                	jg     7195 <safe_rshift_func_uint64_t_u_s+0x2c>
    7184:	8b 45 f4             	mov    -0xc(%rbp),%eax
    7187:	48 8b 55 f8          	mov    -0x8(%rbp),%rdx
    718b:	89 c1                	mov    %eax,%ecx
    718d:	48 d3 ea             	shr    %cl,%rdx
    7190:	48 89 d0             	mov    %rdx,%rax
    7193:	eb 04                	jmp    7199 <safe_rshift_func_uint64_t_u_s+0x30>
    7195:	48 8b 45 f8          	mov    -0x8(%rbp),%rax
    7199:	5d                   	pop    %rbp
    719a:	c3                   	retq   

000000000000719b <safe_rshift_func_uint64_t_u_u>:
    719b:	f3 0f 1e fa          	endbr64 
    719f:	55                   	push   %rbp
    71a0:	48 89 e5             	mov    %rsp,%rbp
    71a3:	48 89 7d f8          	mov    %rdi,-0x8(%rbp)
    71a7:	89 75 f4             	mov    %esi,-0xc(%rbp)
    71aa:	83 7d f4 1f          	cmpl   $0x1f,-0xc(%rbp)
    71ae:	77 11                	ja     71c1 <safe_rshift_func_uint64_t_u_u+0x26>
    71b0:	8b 45 f4             	mov    -0xc(%rbp),%eax
    71b3:	48 8b 55 f8          	mov    -0x8(%rbp),%rdx
    71b7:	89 c1                	mov    %eax,%ecx
    71b9:	48 d3 ea             	shr    %cl,%rdx
    71bc:	48 89 d0             	mov    %rdx,%rax
    71bf:	eb 04                	jmp    71c5 <safe_rshift_func_uint64_t_u_u+0x2a>
    71c1:	48 8b 45 f8          	mov    -0x8(%rbp),%rax
    71c5:	5d                   	pop    %rbp
    71c6:	c3                   	retq   

00000000000071c7 <safe_add_func_float_f_f>:
    71c7:	f3 0f 1e fa          	endbr64 
    71cb:	55                   	push   %rbp
    71cc:	48 89 e5             	mov    %rsp,%rbp
    71cf:	f3 0f 11 45 fc       	movss  %xmm0,-0x4(%rbp)
    71d4:	f3 0f 11 4d f8       	movss  %xmm1,-0x8(%rbp)
    71d9:	f3 0f 10 4d fc       	movss  -0x4(%rbp),%xmm1
    71de:	f3 0f 10 05 ae 26 01 	movss  0x126ae(%rip),%xmm0        # 19894 <l_1403.4564+0x14>
    71e5:	00 
    71e6:	f3 0f 59 c8          	mulss  %xmm0,%xmm1
    71ea:	f3 0f 10 55 f8       	movss  -0x8(%rbp),%xmm2
    71ef:	f3 0f 10 05 9d 26 01 	movss  0x1269d(%rip),%xmm0        # 19894 <l_1403.4564+0x14>
    71f6:	00 
    71f7:	f3 0f 59 c2          	mulss  %xmm2,%xmm0
    71fb:	f3 0f 58 c1          	addss  %xmm1,%xmm0
    71ff:	f3 0f 10 0d 99 26 01 	movss  0x12699(%rip),%xmm1        # 198a0 <l_1403.4564+0x20>
    7206:	00 
    7207:	0f 54 c1             	andps  %xmm1,%xmm0
    720a:	0f 2f 05 9f 26 01 00 	comiss 0x1269f(%rip),%xmm0        # 198b0 <l_1403.4564+0x30>
    7211:	76 07                	jbe    721a <safe_add_func_float_f_f+0x53>
    7213:	f3 0f 10 45 fc       	movss  -0x4(%rbp),%xmm0
    7218:	eb 0a                	jmp    7224 <safe_add_func_float_f_f+0x5d>
    721a:	f3 0f 10 45 fc       	movss  -0x4(%rbp),%xmm0
    721f:	f3 0f 58 45 f8       	addss  -0x8(%rbp),%xmm0
    7224:	5d                   	pop    %rbp
    7225:	c3                   	retq   

0000000000007226 <safe_sub_func_float_f_f>:
    7226:	f3 0f 1e fa          	endbr64 
    722a:	55                   	push   %rbp
    722b:	48 89 e5             	mov    %rsp,%rbp
    722e:	f3 0f 11 45 fc       	movss  %xmm0,-0x4(%rbp)
    7233:	f3 0f 11 4d f8       	movss  %xmm1,-0x8(%rbp)
    7238:	f3 0f 10 4d fc       	movss  -0x4(%rbp),%xmm1
    723d:	f3 0f 10 05 4f 26 01 	movss  0x1264f(%rip),%xmm0        # 19894 <l_1403.4564+0x14>
    7244:	00 
    7245:	f3 0f 59 c1          	mulss  %xmm1,%xmm0
    7249:	f3 0f 10 55 f8       	movss  -0x8(%rbp),%xmm2
    724e:	f3 0f 10 0d 3e 26 01 	movss  0x1263e(%rip),%xmm1        # 19894 <l_1403.4564+0x14>
    7255:	00 
    7256:	f3 0f 59 ca          	mulss  %xmm2,%xmm1
    725a:	f3 0f 5c c1          	subss  %xmm1,%xmm0
    725e:	f3 0f 10 0d 3a 26 01 	movss  0x1263a(%rip),%xmm1        # 198a0 <l_1403.4564+0x20>
    7265:	00 
    7266:	0f 54 c1             	andps  %xmm1,%xmm0
    7269:	0f 2f 05 40 26 01 00 	comiss 0x12640(%rip),%xmm0        # 198b0 <l_1403.4564+0x30>
    7270:	76 07                	jbe    7279 <safe_sub_func_float_f_f+0x53>
    7272:	f3 0f 10 45 fc       	movss  -0x4(%rbp),%xmm0
    7277:	eb 0a                	jmp    7283 <safe_sub_func_float_f_f+0x5d>
    7279:	f3 0f 10 45 fc       	movss  -0x4(%rbp),%xmm0
    727e:	f3 0f 5c 45 f8       	subss  -0x8(%rbp),%xmm0
    7283:	5d                   	pop    %rbp
    7284:	c3                   	retq   

0000000000007285 <safe_mul_func_float_f_f>:
    7285:	f3 0f 1e fa          	endbr64 
    7289:	55                   	push   %rbp
    728a:	48 89 e5             	mov    %rsp,%rbp
    728d:	f3 0f 11 45 fc       	movss  %xmm0,-0x4(%rbp)
    7292:	f3 0f 11 4d f8       	movss  %xmm1,-0x8(%rbp)
    7297:	f3 0f 10 4d fc       	movss  -0x4(%rbp),%xmm1
    729c:	f3 0f 10 05 10 26 01 	movss  0x12610(%rip),%xmm0        # 198b4 <l_1403.4564+0x34>
    72a3:	00 
    72a4:	f3 0f 59 c8          	mulss  %xmm0,%xmm1
    72a8:	f3 0f 10 55 f8       	movss  -0x8(%rbp),%xmm2
    72ad:	f3 0f 10 05 03 26 01 	movss  0x12603(%rip),%xmm0        # 198b8 <l_1403.4564+0x38>
    72b4:	00 
    72b5:	f3 0f 59 c2          	mulss  %xmm2,%xmm0
    72b9:	f3 0f 59 c1          	mulss  %xmm1,%xmm0
    72bd:	f3 0f 10 0d db 25 01 	movss  0x125db(%rip),%xmm1        # 198a0 <l_1403.4564+0x20>
    72c4:	00 
    72c5:	0f 54 c1             	andps  %xmm1,%xmm0
    72c8:	0f 2f 05 ed 25 01 00 	comiss 0x125ed(%rip),%xmm0        # 198bc <l_1403.4564+0x3c>
    72cf:	76 07                	jbe    72d8 <safe_mul_func_float_f_f+0x53>
    72d1:	f3 0f 10 45 fc       	movss  -0x4(%rbp),%xmm0
    72d6:	eb 0a                	jmp    72e2 <safe_mul_func_float_f_f+0x5d>
    72d8:	f3 0f 10 45 fc       	movss  -0x4(%rbp),%xmm0
    72dd:	f3 0f 59 45 f8       	mulss  -0x8(%rbp),%xmm0
    72e2:	5d                   	pop    %rbp
    72e3:	c3                   	retq   

00000000000072e4 <safe_div_func_float_f_f>:
    72e4:	f3 0f 1e fa          	endbr64 
    72e8:	55                   	push   %rbp
    72e9:	48 89 e5             	mov    %rsp,%rbp
    72ec:	f3 0f 11 45 fc       	movss  %xmm0,-0x4(%rbp)
    72f1:	f3 0f 11 4d f8       	movss  %xmm1,-0x8(%rbp)
    72f6:	f3 0f 10 45 f8       	movss  -0x8(%rbp),%xmm0
    72fb:	f3 0f 10 0d 9d 25 01 	movss  0x1259d(%rip),%xmm1        # 198a0 <l_1403.4564+0x20>
    7302:	00 
    7303:	0f 54 c8             	andps  %xmm0,%xmm1
    7306:	f3 0f 10 05 b2 25 01 	movss  0x125b2(%rip),%xmm0        # 198c0 <l_1403.4564+0x40>
    730d:	00 
    730e:	0f 2f c1             	comiss %xmm1,%xmm0
    7311:	0f 97 c0             	seta   %al
    7314:	83 f0 01             	xor    $0x1,%eax
    7317:	84 c0                	test   %al,%al
    7319:	75 56                	jne    7371 <safe_div_func_float_f_f+0x8d>
    731b:	66 0f ef c0          	pxor   %xmm0,%xmm0
    731f:	0f 2e 45 f8          	ucomiss -0x8(%rbp),%xmm0
    7323:	7a 0a                	jp     732f <safe_div_func_float_f_f+0x4b>
    7325:	66 0f ef c0          	pxor   %xmm0,%xmm0
    7329:	0f 2e 45 f8          	ucomiss -0x8(%rbp),%xmm0
    732d:	74 4e                	je     737d <safe_div_func_float_f_f+0x99>
    732f:	f3 0f 10 4d fc       	movss  -0x4(%rbp),%xmm1
    7334:	f3 0f 10 05 88 25 01 	movss  0x12588(%rip),%xmm0        # 198c4 <l_1403.4564+0x44>
    733b:	00 
    733c:	f3 0f 59 c1          	mulss  %xmm1,%xmm0
    7340:	f3 0f 10 55 f8       	movss  -0x8(%rbp),%xmm2
    7345:	f3 0f 10 0d 7b 25 01 	movss  0x1257b(%rip),%xmm1        # 198c8 <l_1403.4564+0x48>
    734c:	00 
    734d:	f3 0f 59 ca          	mulss  %xmm2,%xmm1
    7351:	f3 0f 5e c1          	divss  %xmm1,%xmm0
    7355:	f3 0f 10 0d 43 25 01 	movss  0x12543(%rip),%xmm1        # 198a0 <l_1403.4564+0x20>
    735c:	00 
    735d:	0f 54 c1             	andps  %xmm1,%xmm0
    7360:	0f 2f 05 65 25 01 00 	comiss 0x12565(%rip),%xmm0        # 198cc <l_1403.4564+0x4c>
    7367:	0f 97 c0             	seta   %al
    736a:	83 f0 01             	xor    $0x1,%eax
    736d:	84 c0                	test   %al,%al
    736f:	74 0c                	je     737d <safe_div_func_float_f_f+0x99>
    7371:	f3 0f 10 45 fc       	movss  -0x4(%rbp),%xmm0
    7376:	f3 0f 5e 45 f8       	divss  -0x8(%rbp),%xmm0
    737b:	eb 05                	jmp    7382 <safe_div_func_float_f_f+0x9e>
    737d:	f3 0f 10 45 fc       	movss  -0x4(%rbp),%xmm0
    7382:	5d                   	pop    %rbp
    7383:	c3                   	retq   

0000000000007384 <safe_add_func_double_f_f>:
    7384:	f3 0f 1e fa          	endbr64 
    7388:	55                   	push   %rbp
    7389:	48 89 e5             	mov    %rsp,%rbp
    738c:	f2 0f 11 45 f8       	movsd  %xmm0,-0x8(%rbp)
    7391:	f2 0f 11 4d f0       	movsd  %xmm1,-0x10(%rbp)
    7396:	f2 0f 10 4d f8       	movsd  -0x8(%rbp),%xmm1
    739b:	f2 0f 10 05 2d 25 01 	movsd  0x1252d(%rip),%xmm0        # 198d0 <l_1403.4564+0x50>
    73a2:	00 
    73a3:	f2 0f 59 c8          	mulsd  %xmm0,%xmm1
    73a7:	f2 0f 10 55 f0       	movsd  -0x10(%rbp),%xmm2
    73ac:	f2 0f 10 05 1c 25 01 	movsd  0x1251c(%rip),%xmm0        # 198d0 <l_1403.4564+0x50>
    73b3:	00 
    73b4:	f2 0f 59 c2          	mulsd  %xmm2,%xmm0
    73b8:	f2 0f 58 c1          	addsd  %xmm1,%xmm0
    73bc:	f3 0f 7e 0d 1c 25 01 	movq   0x1251c(%rip),%xmm1        # 198e0 <l_1403.4564+0x60>
    73c3:	00 
    73c4:	66 0f 54 c1          	andpd  %xmm1,%xmm0
    73c8:	66 0f 2f 05 20 25 01 	comisd 0x12520(%rip),%xmm0        # 198f0 <l_1403.4564+0x70>
    73cf:	00 
    73d0:	76 07                	jbe    73d9 <safe_add_func_double_f_f+0x55>
    73d2:	f2 0f 10 45 f8       	movsd  -0x8(%rbp),%xmm0
    73d7:	eb 0a                	jmp    73e3 <safe_add_func_double_f_f+0x5f>
    73d9:	f2 0f 10 45 f8       	movsd  -0x8(%rbp),%xmm0
    73de:	f2 0f 58 45 f0       	addsd  -0x10(%rbp),%xmm0
    73e3:	5d                   	pop    %rbp
    73e4:	c3                   	retq   

00000000000073e5 <safe_sub_func_double_f_f>:
    73e5:	f3 0f 1e fa          	endbr64 
    73e9:	55                   	push   %rbp
    73ea:	48 89 e5             	mov    %rsp,%rbp
    73ed:	f2 0f 11 45 f8       	movsd  %xmm0,-0x8(%rbp)
    73f2:	f2 0f 11 4d f0       	movsd  %xmm1,-0x10(%rbp)
    73f7:	f2 0f 10 4d f8       	movsd  -0x8(%rbp),%xmm1
    73fc:	f2 0f 10 05 cc 24 01 	movsd  0x124cc(%rip),%xmm0        # 198d0 <l_1403.4564+0x50>
    7403:	00 
    7404:	f2 0f 59 c1          	mulsd  %xmm1,%xmm0
    7408:	f2 0f 10 55 f0       	movsd  -0x10(%rbp),%xmm2
    740d:	f2 0f 10 0d bb 24 01 	movsd  0x124bb(%rip),%xmm1        # 198d0 <l_1403.4564+0x50>
    7414:	00 
    7415:	f2 0f 59 ca          	mulsd  %xmm2,%xmm1
    7419:	f2 0f 5c c1          	subsd  %xmm1,%xmm0
    741d:	f3 0f 7e 0d bb 24 01 	movq   0x124bb(%rip),%xmm1        # 198e0 <l_1403.4564+0x60>
    7424:	00 
    7425:	66 0f 54 c1          	andpd  %xmm1,%xmm0
    7429:	66 0f 2f 05 bf 24 01 	comisd 0x124bf(%rip),%xmm0        # 198f0 <l_1403.4564+0x70>
    7430:	00 
    7431:	76 07                	jbe    743a <safe_sub_func_double_f_f+0x55>
    7433:	f2 0f 10 45 f8       	movsd  -0x8(%rbp),%xmm0
    7438:	eb 0a                	jmp    7444 <safe_sub_func_double_f_f+0x5f>
    743a:	f2 0f 10 45 f8       	movsd  -0x8(%rbp),%xmm0
    743f:	f2 0f 5c 45 f0       	subsd  -0x10(%rbp),%xmm0
    7444:	5d                   	pop    %rbp
    7445:	c3                   	retq   

0000000000007446 <safe_mul_func_double_f_f>:
    7446:	f3 0f 1e fa          	endbr64 
    744a:	55                   	push   %rbp
    744b:	48 89 e5             	mov    %rsp,%rbp
    744e:	f2 0f 11 45 f8       	movsd  %xmm0,-0x8(%rbp)
    7453:	f2 0f 11 4d f0       	movsd  %xmm1,-0x10(%rbp)
    7458:	f2 0f 10 4d f8       	movsd  -0x8(%rbp),%xmm1
    745d:	f2 0f 10 05 93 24 01 	movsd  0x12493(%rip),%xmm0        # 198f8 <l_1403.4564+0x78>
    7464:	00 
    7465:	f2 0f 59 c8          	mulsd  %xmm0,%xmm1
    7469:	f2 0f 10 55 f0       	movsd  -0x10(%rbp),%xmm2
    746e:	f2 0f 10 05 8a 24 01 	movsd  0x1248a(%rip),%xmm0        # 19900 <l_1403.4564+0x80>
    7475:	00 
    7476:	f2 0f 59 c2          	mulsd  %xmm2,%xmm0
    747a:	f2 0f 59 c1          	mulsd  %xmm1,%xmm0
    747e:	f3 0f 7e 0d 5a 24 01 	movq   0x1245a(%rip),%xmm1        # 198e0 <l_1403.4564+0x60>
    7485:	00 
    7486:	66 0f 54 c1          	andpd  %xmm1,%xmm0
    748a:	66 0f 2f 05 76 24 01 	comisd 0x12476(%rip),%xmm0        # 19908 <l_1403.4564+0x88>
    7491:	00 
    7492:	76 07                	jbe    749b <safe_mul_func_double_f_f+0x55>
    7494:	f2 0f 10 45 f8       	movsd  -0x8(%rbp),%xmm0
    7499:	eb 0a                	jmp    74a5 <safe_mul_func_double_f_f+0x5f>
    749b:	f2 0f 10 45 f8       	movsd  -0x8(%rbp),%xmm0
    74a0:	f2 0f 59 45 f0       	mulsd  -0x10(%rbp),%xmm0
    74a5:	5d                   	pop    %rbp
    74a6:	c3                   	retq   

00000000000074a7 <safe_div_func_double_f_f>:
    74a7:	f3 0f 1e fa          	endbr64 
    74ab:	55                   	push   %rbp
    74ac:	48 89 e5             	mov    %rsp,%rbp
    74af:	f2 0f 11 45 f8       	movsd  %xmm0,-0x8(%rbp)
    74b4:	f2 0f 11 4d f0       	movsd  %xmm1,-0x10(%rbp)
    74b9:	f2 0f 10 45 f0       	movsd  -0x10(%rbp),%xmm0
    74be:	f3 0f 7e 0d 1a 24 01 	movq   0x1241a(%rip),%xmm1        # 198e0 <l_1403.4564+0x60>
    74c5:	00 
    74c6:	66 0f 54 c8          	andpd  %xmm0,%xmm1
    74ca:	f2 0f 10 05 3e 24 01 	movsd  0x1243e(%rip),%xmm0        # 19910 <l_1403.4564+0x90>
    74d1:	00 
    74d2:	66 0f 2f c1          	comisd %xmm1,%xmm0
    74d6:	0f 97 c0             	seta   %al
    74d9:	83 f0 01             	xor    $0x1,%eax
    74dc:	84 c0                	test   %al,%al
    74de:	75 5a                	jne    753a <safe_div_func_double_f_f+0x93>
    74e0:	66 0f ef c0          	pxor   %xmm0,%xmm0
    74e4:	66 0f 2e 45 f0       	ucomisd -0x10(%rbp),%xmm0
    74e9:	7a 0b                	jp     74f6 <safe_div_func_double_f_f+0x4f>
    74eb:	66 0f ef c0          	pxor   %xmm0,%xmm0
    74ef:	66 0f 2e 45 f0       	ucomisd -0x10(%rbp),%xmm0
    74f4:	74 50                	je     7546 <safe_div_func_double_f_f+0x9f>
    74f6:	f2 0f 10 4d f8       	movsd  -0x8(%rbp),%xmm1
    74fb:	f2 0f 10 05 15 24 01 	movsd  0x12415(%rip),%xmm0        # 19918 <l_1403.4564+0x98>
    7502:	00 
    7503:	f2 0f 59 c1          	mulsd  %xmm1,%xmm0
    7507:	f2 0f 10 55 f0       	movsd  -0x10(%rbp),%xmm2
    750c:	f2 0f 10 0d 0c 24 01 	movsd  0x1240c(%rip),%xmm1        # 19920 <l_1403.4564+0xa0>
    7513:	00 
    7514:	f2 0f 59 ca          	mulsd  %xmm2,%xmm1
    7518:	f2 0f 5e c1          	divsd  %xmm1,%xmm0
    751c:	f3 0f 7e 0d bc 23 01 	movq   0x123bc(%rip),%xmm1        # 198e0 <l_1403.4564+0x60>
    7523:	00 
    7524:	66 0f 54 c1          	andpd  %xmm1,%xmm0
    7528:	66 0f 2f 05 f8 23 01 	comisd 0x123f8(%rip),%xmm0        # 19928 <l_1403.4564+0xa8>
    752f:	00 
    7530:	0f 97 c0             	seta   %al
    7533:	83 f0 01             	xor    $0x1,%eax
    7536:	84 c0                	test   %al,%al
    7538:	74 0c                	je     7546 <safe_div_func_double_f_f+0x9f>
    753a:	f2 0f 10 45 f8       	movsd  -0x8(%rbp),%xmm0
    753f:	f2 0f 5e 45 f0       	divsd  -0x10(%rbp),%xmm0
    7544:	eb 05                	jmp    754b <safe_div_func_double_f_f+0xa4>
    7546:	f2 0f 10 45 f8       	movsd  -0x8(%rbp),%xmm0
    754b:	5d                   	pop    %rbp
    754c:	c3                   	retq   

000000000000754d <safe_convert_func_float_to_int32_t>:
    754d:	f3 0f 1e fa          	endbr64 
    7551:	55                   	push   %rbp
    7552:	48 89 e5             	mov    %rsp,%rbp
    7555:	f3 0f 11 45 fc       	movss  %xmm0,-0x4(%rbp)
    755a:	f3 0f 10 05 ce 23 01 	movss  0x123ce(%rip),%xmm0        # 19930 <l_1403.4564+0xb0>
    7561:	00 
    7562:	0f 2f 45 fc          	comiss -0x4(%rbp),%xmm0
    7566:	0f 93 c0             	setae  %al
    7569:	83 f0 01             	xor    $0x1,%eax
    756c:	84 c0                	test   %al,%al
    756e:	74 21                	je     7591 <safe_convert_func_float_to_int32_t+0x44>
    7570:	f3 0f 10 45 fc       	movss  -0x4(%rbp),%xmm0
    7575:	0f 2f 05 b8 23 01 00 	comiss 0x123b8(%rip),%xmm0        # 19934 <l_1403.4564+0xb4>
    757c:	0f 93 c0             	setae  %al
    757f:	83 f0 01             	xor    $0x1,%eax
    7582:	84 c0                	test   %al,%al
    7584:	74 0b                	je     7591 <safe_convert_func_float_to_int32_t+0x44>
    7586:	f3 0f 10 45 fc       	movss  -0x4(%rbp),%xmm0
    758b:	f3 0f 2c c0          	cvttss2si %xmm0,%eax
    758f:	eb 05                	jmp    7596 <safe_convert_func_float_to_int32_t+0x49>
    7591:	b8 ff ff ff 7f       	mov    $0x7fffffff,%eax
    7596:	5d                   	pop    %rbp
    7597:	c3                   	retq   

0000000000007598 <crc32_gentab>:
    7598:	f3 0f 1e fa          	endbr64 
    759c:	55                   	push   %rbp
    759d:	48 89 e5             	mov    %rsp,%rbp
    75a0:	c7 45 fc 20 83 b8 ed 	movl   $0xedb88320,-0x4(%rbp)
    75a7:	c7 45 f4 00 00 00 00 	movl   $0x0,-0xc(%rbp)
    75ae:	eb 51                	jmp    7601 <crc32_gentab+0x69>
    75b0:	8b 45 f4             	mov    -0xc(%rbp),%eax
    75b3:	89 45 f0             	mov    %eax,-0x10(%rbp)
    75b6:	c7 45 f8 08 00 00 00 	movl   $0x8,-0x8(%rbp)
    75bd:	eb 1e                	jmp    75dd <crc32_gentab+0x45>
    75bf:	8b 45 f0             	mov    -0x10(%rbp),%eax
    75c2:	83 e0 01             	and    $0x1,%eax
    75c5:	85 c0                	test   %eax,%eax
    75c7:	74 0d                	je     75d6 <crc32_gentab+0x3e>
    75c9:	8b 45 f0             	mov    -0x10(%rbp),%eax
    75cc:	d1 e8                	shr    %eax
    75ce:	33 45 fc             	xor    -0x4(%rbp),%eax
    75d1:	89 45 f0             	mov    %eax,-0x10(%rbp)
    75d4:	eb 03                	jmp    75d9 <crc32_gentab+0x41>
    75d6:	d1 6d f0             	shrl   -0x10(%rbp)
    75d9:	83 6d f8 01          	subl   $0x1,-0x8(%rbp)
    75dd:	83 7d f8 00          	cmpl   $0x0,-0x8(%rbp)
    75e1:	7f dc                	jg     75bf <crc32_gentab+0x27>
    75e3:	8b 45 f4             	mov    -0xc(%rbp),%eax
    75e6:	48 98                	cltq   
    75e8:	48 8d 0c 85 00 00 00 	lea    0x0(,%rax,4),%rcx
    75ef:	00 
    75f0:	48 8d 15 c9 cc 01 00 	lea    0x1ccc9(%rip),%rdx        # 242c0 <crc32_tab>
    75f7:	8b 45 f0             	mov    -0x10(%rbp),%eax
    75fa:	89 04 11             	mov    %eax,(%rcx,%rdx,1)
    75fd:	83 45 f4 01          	addl   $0x1,-0xc(%rbp)
    7601:	81 7d f4 ff 00 00 00 	cmpl   $0xff,-0xc(%rbp)
    7608:	7e a6                	jle    75b0 <crc32_gentab+0x18>
    760a:	90                   	nop
    760b:	90                   	nop
    760c:	5d                   	pop    %rbp
    760d:	c3                   	retq   

000000000000760e <crc32_byte>:
    760e:	f3 0f 1e fa          	endbr64 
    7612:	55                   	push   %rbp
    7613:	48 89 e5             	mov    %rsp,%rbp
    7616:	89 f8                	mov    %edi,%eax
    7618:	88 45 fc             	mov    %al,-0x4(%rbp)
    761b:	8b 05 ff 49 01 00    	mov    0x149ff(%rip),%eax        # 1c020 <crc32_context>
    7621:	c1 e8 08             	shr    $0x8,%eax
    7624:	89 c1                	mov    %eax,%ecx
    7626:	0f b6 55 fc          	movzbl -0x4(%rbp),%edx
    762a:	8b 05 f0 49 01 00    	mov    0x149f0(%rip),%eax        # 1c020 <crc32_context>
    7630:	31 d0                	xor    %edx,%eax
    7632:	0f b6 c0             	movzbl %al,%eax
    7635:	89 c0                	mov    %eax,%eax
    7637:	48 8d 14 85 00 00 00 	lea    0x0(,%rax,4),%rdx
    763e:	00 
    763f:	48 8d 05 7a cc 01 00 	lea    0x1cc7a(%rip),%rax        # 242c0 <crc32_tab>
    7646:	8b 04 02             	mov    (%rdx,%rax,1),%eax
    7649:	31 c8                	xor    %ecx,%eax
    764b:	89 05 cf 49 01 00    	mov    %eax,0x149cf(%rip)        # 1c020 <crc32_context>
    7651:	90                   	nop
    7652:	5d                   	pop    %rbp
    7653:	c3                   	retq   

0000000000007654 <crc32_8bytes>:
    7654:	f3 0f 1e fa          	endbr64 
    7658:	55                   	push   %rbp
    7659:	48 89 e5             	mov    %rsp,%rbp
    765c:	48 83 ec 08          	sub    $0x8,%rsp
    7660:	48 89 7d f8          	mov    %rdi,-0x8(%rbp)
    7664:	48 8b 45 f8          	mov    -0x8(%rbp),%rax
    7668:	0f b6 c0             	movzbl %al,%eax
    766b:	89 c7                	mov    %eax,%edi
    766d:	e8 9c ff ff ff       	callq  760e <crc32_byte>
    7672:	48 8b 45 f8          	mov    -0x8(%rbp),%rax
    7676:	48 c1 e8 08          	shr    $0x8,%rax
    767a:	0f b6 c0             	movzbl %al,%eax
    767d:	89 c7                	mov    %eax,%edi
    767f:	e8 8a ff ff ff       	callq  760e <crc32_byte>
    7684:	48 8b 45 f8          	mov    -0x8(%rbp),%rax
    7688:	48 c1 e8 10          	shr    $0x10,%rax
    768c:	0f b6 c0             	movzbl %al,%eax
    768f:	89 c7                	mov    %eax,%edi
    7691:	e8 78 ff ff ff       	callq  760e <crc32_byte>
    7696:	48 8b 45 f8          	mov    -0x8(%rbp),%rax
    769a:	48 c1 e8 18          	shr    $0x18,%rax
    769e:	0f b6 c0             	movzbl %al,%eax
    76a1:	89 c7                	mov    %eax,%edi
    76a3:	e8 66 ff ff ff       	callq  760e <crc32_byte>
    76a8:	48 8b 45 f8          	mov    -0x8(%rbp),%rax
    76ac:	48 c1 e8 20          	shr    $0x20,%rax
    76b0:	0f b6 c0             	movzbl %al,%eax
    76b3:	89 c7                	mov    %eax,%edi
    76b5:	e8 54 ff ff ff       	callq  760e <crc32_byte>
    76ba:	48 8b 45 f8          	mov    -0x8(%rbp),%rax
    76be:	48 c1 e8 28          	shr    $0x28,%rax
    76c2:	0f b6 c0             	movzbl %al,%eax
    76c5:	89 c7                	mov    %eax,%edi
    76c7:	e8 42 ff ff ff       	callq  760e <crc32_byte>
    76cc:	48 8b 45 f8          	mov    -0x8(%rbp),%rax
    76d0:	48 c1 e8 30          	shr    $0x30,%rax
    76d4:	0f b6 c0             	movzbl %al,%eax
    76d7:	89 c7                	mov    %eax,%edi
    76d9:	e8 30 ff ff ff       	callq  760e <crc32_byte>
    76de:	48 8b 45 f8          	mov    -0x8(%rbp),%rax
    76e2:	48 c1 e8 38          	shr    $0x38,%rax
    76e6:	0f b6 c0             	movzbl %al,%eax
    76e9:	89 c7                	mov    %eax,%edi
    76eb:	e8 1e ff ff ff       	callq  760e <crc32_byte>
    76f0:	90                   	nop
    76f1:	c9                   	leaveq 
    76f2:	c3                   	retq   

00000000000076f3 <transparent_crc>:
    76f3:	f3 0f 1e fa          	endbr64 
    76f7:	55                   	push   %rbp
    76f8:	48 89 e5             	mov    %rsp,%rbp
    76fb:	48 83 ec 20          	sub    $0x20,%rsp
    76ff:	48 89 7d f8          	mov    %rdi,-0x8(%rbp)
    7703:	48 89 75 f0          	mov    %rsi,-0x10(%rbp)
    7707:	89 55 ec             	mov    %edx,-0x14(%rbp)
    770a:	48 8b 45 f8          	mov    -0x8(%rbp),%rax
    770e:	48 89 c7             	mov    %rax,%rdi
    7711:	e8 3e ff ff ff       	callq  7654 <crc32_8bytes>
    7716:	83 7d ec 00          	cmpl   $0x0,-0x14(%rbp)
    771a:	74 22                	je     773e <transparent_crc+0x4b>
    771c:	8b 05 fe 48 01 00    	mov    0x148fe(%rip),%eax        # 1c020 <crc32_context>
    7722:	f7 d0                	not    %eax
    7724:	89 c2                	mov    %eax,%edx
    7726:	48 8b 45 f0          	mov    -0x10(%rbp),%rax
    772a:	48 89 c6             	mov    %rax,%rsi
    772d:	48 8d 3d fc f8 00 00 	lea    0xf8fc(%rip),%rdi        # 17030 <_IO_stdin_used+0x30>
    7734:	b8 00 00 00 00       	mov    $0x0,%eax
    7739:	e8 42 e9 ff ff       	callq  6080 <printf@plt>
    773e:	90                   	nop
    773f:	c9                   	leaveq 
    7740:	c3                   	retq   

0000000000007741 <transparent_crc_bytes>:
    7741:	f3 0f 1e fa          	endbr64 
    7745:	55                   	push   %rbp
    7746:	48 89 e5             	mov    %rsp,%rbp
    7749:	48 83 ec 30          	sub    $0x30,%rsp
    774d:	48 89 7d e8          	mov    %rdi,-0x18(%rbp)
    7751:	89 75 e4             	mov    %esi,-0x1c(%rbp)
    7754:	48 89 55 d8          	mov    %rdx,-0x28(%rbp)
    7758:	89 4d e0             	mov    %ecx,-0x20(%rbp)
    775b:	c7 45 fc 00 00 00 00 	movl   $0x0,-0x4(%rbp)
    7762:	eb 1e                	jmp    7782 <transparent_crc_bytes+0x41>
    7764:	8b 45 fc             	mov    -0x4(%rbp),%eax
    7767:	48 63 d0             	movslq %eax,%rdx
    776a:	48 8b 45 e8          	mov    -0x18(%rbp),%rax
    776e:	48 01 d0             	add    %rdx,%rax
    7771:	0f b6 00             	movzbl (%rax),%eax
    7774:	0f b6 c0             	movzbl %al,%eax
    7777:	89 c7                	mov    %eax,%edi
    7779:	e8 90 fe ff ff       	callq  760e <crc32_byte>
    777e:	83 45 fc 01          	addl   $0x1,-0x4(%rbp)
    7782:	8b 45 fc             	mov    -0x4(%rbp),%eax
    7785:	3b 45 e4             	cmp    -0x1c(%rbp),%eax
    7788:	7c da                	jl     7764 <transparent_crc_bytes+0x23>
    778a:	83 7d e0 00          	cmpl   $0x0,-0x20(%rbp)
    778e:	74 22                	je     77b2 <transparent_crc_bytes+0x71>
    7790:	8b 05 8a 48 01 00    	mov    0x1488a(%rip),%eax        # 1c020 <crc32_context>
    7796:	f7 d0                	not    %eax
    7798:	89 c2                	mov    %eax,%edx
    779a:	48 8b 45 d8          	mov    -0x28(%rbp),%rax
    779e:	48 89 c6             	mov    %rax,%rsi
    77a1:	48 8d 3d 88 f8 00 00 	lea    0xf888(%rip),%rdi        # 17030 <_IO_stdin_used+0x30>
    77a8:	b8 00 00 00 00       	mov    $0x0,%eax
    77ad:	e8 ce e8 ff ff       	callq  6080 <printf@plt>
    77b2:	90                   	nop
    77b3:	c9                   	leaveq 
    77b4:	c3                   	retq   

00000000000077b5 <func_1>:
    77b5:	f3 0f 1e fa          	endbr64 
    77b9:	55                   	push   %rbp
    77ba:	48 89 e5             	mov    %rsp,%rbp
    77bd:	41 57                	push   %r15
    77bf:	41 56                	push   %r14
    77c1:	41 55                	push   %r13
    77c3:	41 54                	push   %r12
    77c5:	53                   	push   %rbx
    77c6:	48 81 ec 48 0d 00 00 	sub    $0xd48,%rsp
    77cd:	48 89 bd b8 f2 ff ff 	mov    %rdi,-0xd48(%rbp)
    77d4:	64 48 8b 04 25 28 00 	mov    %fs:0x28,%rax
    77db:	00 00 
    77dd:	48 89 45 c8          	mov    %rax,-0x38(%rbp)
    77e1:	31 c0                	xor    %eax,%eax
    77e3:	48 b8 9c 00 e1 00 9c 	movabs $0xe1009c9c00e1009c,%rax
    77ea:	9c 00 e1 
    77ed:	48 89 85 70 f6 ff ff 	mov    %rax,-0x990(%rbp)
    77f4:	c6 85 78 f6 ff ff 00 	movb   $0x0,-0x988(%rbp)
    77fb:	48 bb 00 f8 e1 e1 f8 	movabs $0xe1f800f8e1e1f800,%rbx
    7802:	00 f8 e1 
    7805:	48 89 9d 79 f6 ff ff 	mov    %rbx,-0x987(%rbp)
    780c:	c6 85 81 f6 ff ff e1 	movb   $0xe1,-0x97f(%rbp)
    7813:	48 bb 9c 9c 00 e1 00 	movabs $0x9c9c00e1009c9c,%rbx
    781a:	9c 9c 00 
    781d:	48 89 9d 82 f6 ff ff 	mov    %rbx,-0x97e(%rbp)
    7824:	c6 85 8a f6 ff ff e1 	movb   $0xe1,-0x976(%rbp)
    782b:	48 bb 00 f8 00 00 00 	movabs $0xf800000000f800,%rbx
    7832:	00 f8 00 
    7835:	48 89 9d 8b f6 ff ff 	mov    %rbx,-0x975(%rbp)
    783c:	c6 85 93 f6 ff ff 00 	movb   $0x0,-0x96d(%rbp)
    7843:	48 bb 00 00 00 00 f8 	movabs $0xf800000000,%rbx
    784a:	00 00 00 
    784d:	48 89 9d 94 f6 ff ff 	mov    %rbx,-0x96c(%rbp)
    7854:	c6 85 9c f6 ff ff 00 	movb   $0x0,-0x964(%rbp)
    785b:	48 89 85 9d f6 ff ff 	mov    %rax,-0x963(%rbp)
    7862:	c6 85 a5 f6 ff ff 00 	movb   $0x0,-0x95b(%rbp)
    7869:	66 c7 85 d2 f2 ff ff 	movw   $0x0,-0xd2e(%rbp)
    7870:	00 00 
    7872:	48 8d 05 ab 47 01 00 	lea    0x147ab(%rip),%rax        # 1c024 <g_5>
    7879:	48 89 85 f8 f3 ff ff 	mov    %rax,-0xc08(%rbp)
    7880:	48 c7 85 d0 f5 ff ff 	movq   $0x0,-0xa30(%rbp)
    7887:	00 00 00 00 
    788b:	48 c7 85 d8 f5 ff ff 	movq   $0x0,-0xa28(%rbp)
    7892:	00 00 00 00 
    7896:	48 c7 85 e0 f5 ff ff 	movq   $0x0,-0xa20(%rbp)
    789d:	00 00 00 00 
    78a1:	48 c7 85 e8 f5 ff ff 	movq   $0x0,-0xa18(%rbp)
    78a8:	00 00 00 00 
    78ac:	48 8d 05 95 4c 01 00 	lea    0x14c95(%rip),%rax        # 1c548 <g_374>
    78b3:	48 89 85 00 f4 ff ff 	mov    %rax,-0xc00(%rbp)
    78ba:	48 8d 05 87 4c 01 00 	lea    0x14c87(%rip),%rax        # 1c548 <g_374>
    78c1:	48 89 85 08 f4 ff ff 	mov    %rax,-0xbf8(%rbp)
    78c8:	48 8d 05 31 6f 01 00 	lea    0x16f31(%rip),%rax        # 1e800 <g_1238>
    78cf:	48 89 85 10 f4 ff ff 	mov    %rax,-0xbf0(%rbp)
    78d6:	48 c7 85 a8 f3 ff ff 	movq   $0x0,-0xc58(%rbp)
    78dd:	00 00 00 00 
    78e1:	66 c7 85 d4 f2 ff ff 	movw   $0x42e8,-0xd2c(%rbp)
    78e8:	e8 42 
    78ea:	48 8d 05 6f b8 01 00 	lea    0x1b86f(%rip),%rax        # 23160 <g_609>
    78f1:	48 89 85 b0 f3 ff ff 	mov    %rax,-0xc50(%rbp)
    78f8:	48 b8 7a e7 80 e5 be 	movabs $0xebd5a5bee580e77a,%rax
    78ff:	a5 d5 eb 
    7902:	48 89 85 18 f4 ff ff 	mov    %rax,-0xbe8(%rbp)
    7909:	c7 85 f0 f2 ff ff 41 	movl   $0x26c11d41,-0xd10(%rbp)
    7910:	1d c1 26 
    7913:	48 8d 05 12 47 01 00 	lea    0x14712(%rip),%rax        # 1c02c <g_63>
    791a:	48 89 85 20 f4 ff ff 	mov    %rax,-0xbe0(%rbp)
    7921:	48 c7 85 28 f4 ff ff 	movq   $0xfffffffffffffffa,-0xbd8(%rbp)
    7928:	fa ff ff ff 
    792c:	48 b8 b4 22 bb 90 92 	movabs $0x4fb7179290bb22b4,%rax
    7933:	17 b7 4f 
    7936:	48 89 85 30 f4 ff ff 	mov    %rax,-0xbd0(%rbp)
    793d:	48 8d 05 04 4c 01 00 	lea    0x14c04(%rip),%rax        # 1c548 <g_374>
    7944:	48 89 85 10 f6 ff ff 	mov    %rax,-0x9f0(%rbp)
    794b:	48 8d 05 f6 4b 01 00 	lea    0x14bf6(%rip),%rax        # 1c548 <g_374>
    7952:	48 89 85 18 f6 ff ff 	mov    %rax,-0x9e8(%rbp)
    7959:	48 8d 05 e8 4b 01 00 	lea    0x14be8(%rip),%rax        # 1c548 <g_374>
    7960:	48 89 85 20 f6 ff ff 	mov    %rax,-0x9e0(%rbp)
    7967:	48 8d 05 da 4b 01 00 	lea    0x14bda(%rip),%rax        # 1c548 <g_374>
    796e:	48 89 85 28 f6 ff ff 	mov    %rax,-0x9d8(%rbp)
    7975:	48 8d 05 cc 4b 01 00 	lea    0x14bcc(%rip),%rax        # 1c548 <g_374>
    797c:	48 89 85 30 f6 ff ff 	mov    %rax,-0x9d0(%rbp)
    7983:	48 8d 05 be 4b 01 00 	lea    0x14bbe(%rip),%rax        # 1c548 <g_374>
    798a:	48 89 85 38 f6 ff ff 	mov    %rax,-0x9c8(%rbp)
    7991:	c6 85 cb f2 ff ff 01 	movb   $0x1,-0xd35(%rbp)
    7998:	c7 85 2c f3 ff ff ff 	movl   $0xffffffff,-0xcd4(%rbp)
    799f:	ff ff ff 
    79a2:	48 8d 85 d4 f2 ff ff 	lea    -0xd2c(%rbp),%rax
    79a9:	48 89 85 b8 f3 ff ff 	mov    %rax,-0xc48(%rbp)
    79b0:	48 8d 85 b8 f3 ff ff 	lea    -0xc48(%rbp),%rax
    79b7:	48 89 85 38 f4 ff ff 	mov    %rax,-0xbc8(%rbp)
    79be:	48 8d 05 cb c8 01 00 	lea    0x1c8cb(%rip),%rax        # 24290 <g_2568>
    79c5:	48 89 85 40 f4 ff ff 	mov    %rax,-0xbc0(%rbp)
    79cc:	48 c7 85 c0 f3 ff ff 	movq   $0x0,-0xc40(%rbp)
    79d3:	00 00 00 00 
    79d7:	48 8d 85 c0 f3 ff ff 	lea    -0xc40(%rbp),%rax
    79de:	48 89 85 c8 f3 ff ff 	mov    %rax,-0xc38(%rbp)
    79e5:	c7 85 f4 f2 ff ff 00 	movl   $0x0,-0xd0c(%rbp)
    79ec:	00 00 00 
    79ef:	eb 1e                	jmp    7a0f <func_1+0x25a>
    79f1:	8b 85 f4 f2 ff ff    	mov    -0xd0c(%rbp),%eax
    79f7:	48 98                	cltq   
    79f9:	48 8d 95 a8 f3 ff ff 	lea    -0xc58(%rbp),%rdx
    7a00:	48 89 94 c5 a8 f5 ff 	mov    %rdx,-0xa58(%rbp,%rax,8)
    7a07:	ff 
    7a08:	83 85 f4 f2 ff ff 01 	addl   $0x1,-0xd0c(%rbp)
    7a0f:	83 bd f4 f2 ff ff 00 	cmpl   $0x0,-0xd0c(%rbp)
    7a16:	7e d9                	jle    79f1 <func_1+0x23c>
    7a18:	c7 85 f4 f2 ff ff 00 	movl   $0x0,-0xd0c(%rbp)
    7a1f:	00 00 00 
    7a22:	eb 1e                	jmp    7a42 <func_1+0x28d>
    7a24:	8b 85 f4 f2 ff ff    	mov    -0xd0c(%rbp),%eax
    7a2a:	48 98                	cltq   
    7a2c:	48 8d 15 35 b7 01 00 	lea    0x1b735(%rip),%rdx        # 23168 <g_609+0x8>
    7a33:	48 89 94 c5 f0 f6 ff 	mov    %rdx,-0x910(%rbp,%rax,8)
    7a3a:	ff 
    7a3b:	83 85 f4 f2 ff ff 01 	addl   $0x1,-0xd0c(%rbp)
    7a42:	83 bd f4 f2 ff ff 07 	cmpl   $0x7,-0xd0c(%rbp)
    7a49:	7e d9                	jle    7a24 <func_1+0x26f>
    7a4b:	90                   	nop
    7a4c:	c6 85 81 f6 ff ff ff 	movb   $0xff,-0x97f(%rbp)
    7a53:	0f b7 85 d2 f2 ff ff 	movzwl -0xd2e(%rbp),%eax
    7a5a:	0f bf d0             	movswl %ax,%edx
    7a5d:	48 8b 85 f8 f3 ff ff 	mov    -0xc08(%rbp),%rax
    7a64:	89 10                	mov    %edx,(%rax)
    7a66:	48 8b 05 3b b1 01 00 	mov    0x1b13b(%rip),%rax        # 22ba8 <g_8>
    7a6d:	48 8b 95 f8 f3 ff ff 	mov    -0xc08(%rbp),%rdx
    7a74:	8b 12                	mov    (%rdx),%edx
    7a76:	89 10                	mov    %edx,(%rax)
    7a78:	8b 05 12 6f 01 00    	mov    0x16f12(%rip),%eax        # 1e990 <g_1583>
    7a7e:	c1 e0 0d             	shl    $0xd,%eax
    7a81:	c1 f8 0d             	sar    $0xd,%eax
    7a84:	41 89 c4             	mov    %eax,%r12d
    7a87:	8b 05 97 45 01 00    	mov    0x14597(%rip),%eax        # 1c024 <g_5>
    7a8d:	0f b6 c0             	movzbl %al,%eax
    7a90:	48 8b 1d 71 b4 01 00 	mov    0x1b471(%rip),%rbx        # 22f08 <g_380>
    7a97:	89 c7                	mov    %eax,%edi
    7a99:	e8 cc 2a 00 00       	callq  a56a <func_14>
    7a9e:	48 89 03             	mov    %rax,(%rbx)
    7aa1:	48 8b 03             	mov    (%rbx),%rax
    7aa4:	48 8b 95 08 f4 ff ff 	mov    -0xbf8(%rbp),%rdx
    7aab:	48 8b b5 00 f4 ff ff 	mov    -0xc00(%rbp),%rsi
    7ab2:	44 89 e1             	mov    %r12d,%ecx
    7ab5:	48 89 c7             	mov    %rax,%rdi
    7ab8:	e8 69 27 00 00       	callq  a226 <func_9>
    7abd:	85 c0                	test   %eax,%eax
    7abf:	0f 84 2b 03 00 00    	je     7df0 <func_1+0x63b>
    7ac5:	c7 85 f8 f2 ff ff 57 	movl   $0x7ed3cb57,-0xd08(%rbp)
    7acc:	cb d3 7e 
    7acf:	48 8d 05 ba 6e 01 00 	lea    0x16eba(%rip),%rax        # 1e990 <g_1583>
    7ad6:	48 89 85 70 f5 ff ff 	mov    %rax,-0xa90(%rbp)
    7add:	48 c7 05 be 5c 01 00 	movq   $0x0,0x15cbe(%rip)        # 1d7a6 <g_474+0x6>
    7ae4:	00 00 00 00 
    7ae8:	eb 58                	jmp    7b42 <func_1+0x38d>
    7aea:	48 8d 05 df b9 01 00 	lea    0x1b9df(%rip),%rax        # 234d0 <g_1456>
    7af1:	48 89 85 a0 f5 ff ff 	mov    %rax,-0xa60(%rbp)
    7af8:	83 ad f8 f2 ff ff 01 	subl   $0x1,-0xd08(%rbp)
    7aff:	48 8d 05 ca b9 01 00 	lea    0x1b9ca(%rip),%rax        # 234d0 <g_1456>
    7b06:	48 89 85 a0 f5 ff ff 	mov    %rax,-0xa60(%rbp)
    7b0d:	48 8b 15 b4 b0 01 00 	mov    0x1b0b4(%rip),%rdx        # 22bc8 <g_166>
    7b14:	48 8b 05 ed b3 01 00 	mov    0x1b3ed(%rip),%rax        # 22f08 <g_380>
    7b1b:	48 8b 12             	mov    (%rdx),%rdx
    7b1e:	48 89 10             	mov    %rdx,(%rax)
    7b21:	48 8b 05 7e 5c 01 00 	mov    0x15c7e(%rip),%rax        # 1d7a6 <g_474+0x6>
    7b28:	0f be c0             	movsbl %al,%eax
    7b2b:	be 09 00 00 00       	mov    $0x9,%esi
    7b30:	89 c7                	mov    %eax,%edi
    7b32:	e8 9d e6 ff ff       	callq  61d4 <safe_add_func_int8_t_s_s>
    7b37:	48 0f be c0          	movsbq %al,%rax
    7b3b:	48 89 05 64 5c 01 00 	mov    %rax,0x15c64(%rip)        # 1d7a6 <g_474+0x6>
    7b42:	48 8b 05 5d 5c 01 00 	mov    0x15c5d(%rip),%rax        # 1d7a6 <g_474+0x6>
    7b49:	48 83 f8 08          	cmp    $0x8,%rax
    7b4d:	7f 9b                	jg     7aea <func_1+0x335>
    7b4f:	48 c7 05 e6 87 01 00 	movq   $0x10,0x187e6(%rip)        # 20340 <g_1687>
    7b56:	10 00 00 00 
    7b5a:	e9 57 01 00 00       	jmpq   7cb6 <func_1+0x501>
    7b5f:	c7 85 fc f2 ff ff 00 	movl   $0x0,-0xd04(%rbp)
    7b66:	00 00 00 
    7b69:	eb 46                	jmp    7bb1 <func_1+0x3fc>
    7b6b:	c7 85 00 f3 ff ff 00 	movl   $0x0,-0xd00(%rbp)
    7b72:	00 00 00 
    7b75:	eb 2a                	jmp    7ba1 <func_1+0x3ec>
    7b77:	8b 85 00 f3 ff ff    	mov    -0xd00(%rbp),%eax
    7b7d:	48 98                	cltq   
    7b7f:	8b 95 fc f2 ff ff    	mov    -0xd04(%rbp),%edx
    7b85:	48 63 d2             	movslq %edx,%rdx
    7b88:	48 c1 e2 03          	shl    $0x3,%rdx
    7b8c:	48 01 d0             	add    %rdx,%rax
    7b8f:	c7 84 85 20 f8 ff ff 	movl   $0x1,-0x7e0(%rbp,%rax,4)
    7b96:	01 00 00 00 
    7b9a:	83 85 00 f3 ff ff 01 	addl   $0x1,-0xd00(%rbp)
    7ba1:	83 bd 00 f3 ff ff 07 	cmpl   $0x7,-0xd00(%rbp)
    7ba8:	7e cd                	jle    7b77 <func_1+0x3c2>
    7baa:	83 85 fc f2 ff ff 01 	addl   $0x1,-0xd04(%rbp)
    7bb1:	83 bd fc f2 ff ff 05 	cmpl   $0x5,-0xd04(%rbp)
    7bb8:	7e b1                	jle    7b6b <func_1+0x3b6>
    7bba:	66 c7 05 d5 63 01 00 	movw   $0x0,0x163d5(%rip)        # 1df98 <g_835>
    7bc1:	00 00 
    7bc3:	e9 bd 00 00 00       	jmpq   7c85 <func_1+0x4d0>
    7bc8:	48 c7 85 88 f5 ff ff 	movq   $0x5,-0xa78(%rbp)
    7bcf:	05 00 00 00 
    7bd3:	48 c7 85 90 f5 ff ff 	movq   $0x0,-0xa70(%rbp)
    7bda:	00 00 00 00 
    7bde:	48 8d 05 d3 45 01 00 	lea    0x145d3(%rip),%rax        # 1c1b8 <g_218+0x8>
    7be5:	48 89 85 98 f5 ff ff 	mov    %rax,-0xa68(%rbp)
    7bec:	48 8b 05 c5 af 01 00 	mov    0x1afc5(%rip),%rax        # 22bb8 <g_148>
    7bf3:	48 8b 10             	mov    (%rax),%rdx
    7bf6:	48 8b 05 a3 bb 01 00 	mov    0x1bba3(%rip),%rax        # 237a0 <g_2195>
    7bfd:	48 8b 0a             	mov    (%rdx),%rcx
    7c00:	48 89 08             	mov    %rcx,(%rax)
    7c03:	8b 52 08             	mov    0x8(%rdx),%edx
    7c06:	89 50 08             	mov    %edx,0x8(%rax)
    7c09:	48 8b 85 88 f5 ff ff 	mov    -0xa78(%rbp),%rax
    7c10:	98                   	cwtl   
    7c11:	89 c6                	mov    %eax,%esi
    7c13:	bf ff ff ff ff       	mov    $0xffffffff,%edi
    7c18:	e8 38 e8 ff ff       	callq  6455 <safe_div_func_int16_t_s_s>
    7c1d:	8b 95 b4 f8 ff ff    	mov    -0x74c(%rbp),%edx
    7c23:	48 8b 85 98 f5 ff ff 	mov    -0xa68(%rbp),%rax
    7c2a:	0f b7 00             	movzwl (%rax),%eax
    7c2d:	48 8b 8d 88 f5 ff ff 	mov    -0xa78(%rbp),%rcx
    7c34:	21 c1                	and    %eax,%ecx
    7c36:	48 8b 85 98 f5 ff ff 	mov    -0xa68(%rbp),%rax
    7c3d:	66 89 08             	mov    %cx,(%rax)
    7c40:	48 8b 85 98 f5 ff ff 	mov    -0xa68(%rbp),%rax
    7c47:	0f b7 00             	movzwl (%rax),%eax
    7c4a:	98                   	cwtl   
    7c4b:	31 d0                	xor    %edx,%eax
    7c4d:	f7 d0                	not    %eax
    7c4f:	89 c2                	mov    %eax,%edx
    7c51:	48 8b 05 68 af 01 00 	mov    0x1af68(%rip),%rax        # 22bc0 <g_167>
    7c58:	8b 00                	mov    (%rax),%eax
    7c5a:	31 c2                	xor    %eax,%edx
    7c5c:	48 8b 05 5d af 01 00 	mov    0x1af5d(%rip),%rax        # 22bc0 <g_167>
    7c63:	89 10                	mov    %edx,(%rax)
    7c65:	48 83 bd 88 f5 ff ff 	cmpq   $0x0,-0xa78(%rbp)
    7c6c:	00 
    7c6d:	74 05                	je     7c74 <func_1+0x4bf>
    7c6f:	e9 df fd ff ff       	jmpq   7a53 <func_1+0x29e>
    7c74:	0f b7 05 1d 63 01 00 	movzwl 0x1631d(%rip),%eax        # 1df98 <g_835>
    7c7b:	83 c0 01             	add    $0x1,%eax
    7c7e:	66 89 05 13 63 01 00 	mov    %ax,0x16313(%rip)        # 1df98 <g_835>
    7c85:	0f b7 05 0c 63 01 00 	movzwl 0x1630c(%rip),%eax        # 1df98 <g_835>
    7c8c:	66 83 f8 03          	cmp    $0x3,%ax
    7c90:	0f 8e 32 ff ff ff    	jle    7bc8 <func_1+0x413>
    7c96:	48 8b 05 a3 86 01 00 	mov    0x186a3(%rip),%rax        # 20340 <g_1687>
    7c9d:	0f b7 c0             	movzwl %ax,%eax
    7ca0:	be 04 00 00 00       	mov    $0x4,%esi
    7ca5:	89 c7                	mov    %eax,%edi
    7ca7:	e8 53 f0 ff ff       	callq  6cff <safe_add_func_uint16_t_u_u>
    7cac:	0f b7 c0             	movzwl %ax,%eax
    7caf:	48 89 05 8a 86 01 00 	mov    %rax,0x1868a(%rip)        # 20340 <g_1687>
    7cb6:	48 8b 05 83 86 01 00 	mov    0x18683(%rip),%rax        # 20340 <g_1687>
    7cbd:	48 83 f8 1f          	cmp    $0x1f,%rax
    7cc1:	0f 84 98 fe ff ff    	je     7b5f <func_1+0x3aa>
    7cc7:	48 c7 05 66 86 01 00 	movq   $0x0,0x18666(%rip)        # 20338 <g_1668>
    7cce:	00 00 00 00 
    7cd2:	90                   	nop
    7cd3:	48 8b 05 5e 86 01 00 	mov    0x1865e(%rip),%rax        # 20338 <g_1668>
    7cda:	48 83 f8 f4          	cmp    $0xfffffffffffffff4,%rax
    7cde:	0f 84 d0 24 00 00    	je     a1b4 <func_1+0x29ff>
    7ce4:	48 c7 85 78 f5 ff ff 	movq   $0xfffffffffffffff6,-0xa88(%rbp)
    7ceb:	f6 ff ff ff 
    7cef:	48 c7 85 80 f5 ff ff 	movq   $0x0,-0xa80(%rbp)
    7cf6:	00 00 00 00 
    7cfa:	48 83 bd 78 f5 ff ff 	cmpq   $0x0,-0xa88(%rbp)
    7d01:	00 
    7d02:	75 10                	jne    7d14 <func_1+0x55f>
    7d04:	83 bd f8 f2 ff ff 00 	cmpl   $0x0,-0xd08(%rbp)
    7d0b:	74 07                	je     7d14 <func_1+0x55f>
    7d0d:	b8 01 00 00 00       	mov    $0x1,%eax
    7d12:	eb 05                	jmp    7d19 <func_1+0x564>
    7d14:	b8 00 00 00 00       	mov    $0x0,%eax
    7d19:	0f b7 c0             	movzwl %ax,%eax
    7d1c:	be 0e 00 00 00       	mov    $0xe,%esi
    7d21:	89 c7                	mov    %eax,%edi
    7d23:	e8 20 f1 ff ff       	callq  6e48 <safe_rshift_func_uint16_t_u_s>
    7d28:	66 83 f8 01          	cmp    $0x1,%ax
    7d2c:	0f 95 c0             	setne  %al
    7d2f:	0f b6 d8             	movzbl %al,%ebx
    7d32:	48 8b 05 97 b7 01 00 	mov    0x1b797(%rip),%rax        # 234d0 <g_1456>
    7d39:	48 8b 00             	mov    (%rax),%rax
    7d3c:	48 8b 10             	mov    (%rax),%rdx
    7d3f:	48 8b 05 8a b7 01 00 	mov    0x1b78a(%rip),%rax        # 234d0 <g_1456>
    7d46:	48 8b 00             	mov    (%rax),%rax
    7d49:	48 8b 00             	mov    (%rax),%rax
    7d4c:	48 8b 12             	mov    (%rdx),%rdx
    7d4f:	48 89 10             	mov    %rdx,(%rax)
    7d52:	48 8b 00             	mov    (%rax),%rax
    7d55:	48 89 85 70 f5 ff ff 	mov    %rax,-0xa90(%rbp)
    7d5c:	8b 85 f8 f2 ff ff    	mov    -0xd08(%rbp),%eax
    7d62:	89 c6                	mov    %eax,%esi
    7d64:	bf ff ff ff ff       	mov    $0xffffffff,%edi
    7d69:	e8 bc e7 ff ff       	callq  652a <safe_rshift_func_int16_t_s_s>
    7d6e:	0f b7 c0             	movzwl %ax,%eax
    7d71:	be 08 00 00 00       	mov    $0x8,%esi
    7d76:	89 c7                	mov    %eax,%edi
    7d78:	e8 cb f0 ff ff       	callq  6e48 <safe_rshift_func_uint16_t_u_s>
    7d7d:	0f b7 c0             	movzwl %ax,%eax
    7d80:	21 c3                	and    %eax,%ebx
    7d82:	89 d9                	mov    %ebx,%ecx
    7d84:	48 8b 05 35 ae 01 00 	mov    0x1ae35(%rip),%rax        # 22bc0 <g_167>
    7d8b:	8b 10                	mov    (%rax),%edx
    7d8d:	48 8b 05 2c ae 01 00 	mov    0x1ae2c(%rip),%rax        # 22bc0 <g_167>
    7d94:	21 ca                	and    %ecx,%edx
    7d96:	89 10                	mov    %edx,(%rax)
    7d98:	48 8b 05 21 ae 01 00 	mov    0x1ae21(%rip),%rax        # 22bc0 <g_167>
    7d9f:	8b 10                	mov    (%rax),%edx
    7da1:	48 8b 05 18 ae 01 00 	mov    0x1ae18(%rip),%rax        # 22bc0 <g_167>
    7da8:	83 f2 01             	xor    $0x1,%edx
    7dab:	89 10                	mov    %edx,(%rax)
    7dad:	48 8b 05 f4 b9 01 00 	mov    0x1b9f4(%rip),%rax        # 237a8 <g_2221>
    7db4:	48 8b 15 bd a0 01 00 	mov    0x1a0bd(%rip),%rdx        # 21e78 <g_2219+0x198>
    7dbb:	48 89 10             	mov    %rdx,(%rax)
    7dbe:	8b 15 bc a0 01 00    	mov    0x1a0bc(%rip),%edx        # 21e80 <g_2219+0x1a0>
    7dc4:	89 50 08             	mov    %edx,0x8(%rax)
    7dc7:	48 8b 8d b8 f2 ff ff 	mov    -0xd48(%rbp),%rcx
    7dce:	48 8b b5 70 f5 ff ff 	mov    -0xa90(%rbp),%rsi
    7dd5:	48 8b 06             	mov    (%rsi),%rax
    7dd8:	48 8b 56 08          	mov    0x8(%rsi),%rdx
    7ddc:	48 89 01             	mov    %rax,(%rcx)
    7ddf:	48 89 51 08          	mov    %rdx,0x8(%rcx)
    7de3:	0f b7 46 10          	movzwl 0x10(%rsi),%eax
    7de7:	66 89 41 10          	mov    %ax,0x10(%rcx)
    7deb:	e9 09 24 00 00       	jmpq   a1f9 <func_1+0x2a44>
    7df0:	c6 85 cc f2 ff ff 0d 	movb   $0xd,-0xd34(%rbp)
    7df7:	c7 85 ec f2 ff ff 00 	movl   $0x0,-0xd14(%rbp)
    7dfe:	00 00 00 
    7e01:	c7 85 e8 f2 ff ff 01 	movl   $0x1,-0xd18(%rbp)
    7e08:	00 00 00 
    7e0b:	c7 85 30 f3 ff ff fa 	movl   $0x749cedfa,-0xcd0(%rbp)
    7e12:	ed 9c 74 
    7e15:	c7 85 04 f3 ff ff da 	movl   $0xd66e29da,-0xcfc(%rbp)
    7e1c:	29 6e d6 
    7e1f:	48 b8 72 7a fc 7c ea 	movabs $0x66744eea7cfc7a72,%rax
    7e26:	4e 74 66 
    7e29:	48 89 85 48 f4 ff ff 	mov    %rax,-0xbb8(%rbp)
    7e30:	48 c7 85 50 f4 ff ff 	movq   $0x0,-0xbb0(%rbp)
    7e37:	00 00 00 00 
    7e3b:	c7 85 08 f3 ff ff 01 	movl   $0x1,-0xcf8(%rbp)
    7e42:	00 00 00 
    7e45:	66 c7 85 d6 f2 ff ff 	movw   $0xa06d,-0xd2a(%rbp)
    7e4c:	6d a0 
    7e4e:	c7 85 34 f3 ff ff 01 	movl   $0x1,-0xccc(%rbp)
    7e55:	00 00 00 
    7e58:	c6 85 cd f2 ff ff 00 	movb   $0x0,-0xd33(%rbp)
    7e5f:	66 c7 85 dc f2 ff ff 	movw   $0x1,-0xd24(%rbp)
    7e66:	01 00 
    7e68:	48 c7 05 13 7e 01 00 	movq   $0xffffffffffffffe5,0x17e13(%rip)        # 1fc86 <g_1617+0x6>
    7e6f:	e5 ff ff ff 
    7e73:	e9 25 23 00 00       	jmpq   a19d <func_1+0x29e8>
    7e78:	48 c7 85 58 f4 ff ff 	movq   $0x0,-0xba8(%rbp)
    7e7f:	00 00 00 00 
    7e83:	48 8d 05 5a 47 01 00 	lea    0x1475a(%rip),%rax        # 1c5e4 <g_378+0x84>
    7e8a:	48 89 85 b0 f6 ff ff 	mov    %rax,-0x950(%rbp)
    7e91:	48 8d 05 4c 47 01 00 	lea    0x1474c(%rip),%rax        # 1c5e4 <g_378+0x84>
    7e98:	48 89 85 b8 f6 ff ff 	mov    %rax,-0x948(%rbp)
    7e9f:	48 c7 85 c0 f6 ff ff 	movq   $0x0,-0x940(%rbp)
    7ea6:	00 00 00 00 
    7eaa:	48 8d 05 33 47 01 00 	lea    0x14733(%rip),%rax        # 1c5e4 <g_378+0x84>
    7eb1:	48 89 85 c8 f6 ff ff 	mov    %rax,-0x938(%rbp)
    7eb8:	48 8d 05 25 47 01 00 	lea    0x14725(%rip),%rax        # 1c5e4 <g_378+0x84>
    7ebf:	48 89 85 d0 f6 ff ff 	mov    %rax,-0x930(%rbp)
    7ec6:	48 c7 85 d8 f6 ff ff 	movq   $0x0,-0x928(%rbp)
    7ecd:	00 00 00 00 
    7ed1:	48 8d 05 0c 47 01 00 	lea    0x1470c(%rip),%rax        # 1c5e4 <g_378+0x84>
    7ed8:	48 89 85 e0 f6 ff ff 	mov    %rax,-0x920(%rbp)
    7edf:	c7 85 b0 f5 ff ff fd 	movl   $0xfffffffd,-0xa50(%rbp)
    7ee6:	ff ff ff 
    7ee9:	c7 85 b4 f5 ff ff 70 	movl   $0x55a8970,-0xa4c(%rbp)
    7ef0:	89 5a 05 
    7ef3:	c7 85 b8 f5 ff ff 70 	movl   $0x55a8970,-0xa48(%rbp)
    7efa:	89 5a 05 
    7efd:	c7 85 bc f5 ff ff fd 	movl   $0xfffffffd,-0xa44(%rbp)
    7f04:	ff ff ff 
    7f07:	c7 85 c0 f5 ff ff 70 	movl   $0x55a8970,-0xa40(%rbp)
    7f0e:	89 5a 05 
    7f11:	c7 85 c4 f5 ff ff 70 	movl   $0x55a8970,-0xa3c(%rbp)
    7f18:	89 5a 05 
    7f1b:	c7 85 38 f3 ff ff f8 	movl   $0xfffffff8,-0xcc8(%rbp)
    7f22:	ff ff ff 
    7f25:	66 c7 85 de f2 ff ff 	movw   $0xf29f,-0xd22(%rbp)
    7f2c:	9f f2 
    7f2e:	48 b8 c3 70 f3 66 0c 	movabs $0x42d75b0c66f370c3,%rax
    7f35:	5b d7 42 
    7f38:	48 89 85 60 f4 ff ff 	mov    %rax,-0xba0(%rbp)
    7f3f:	48 8d 05 a6 46 01 00 	lea    0x146a6(%rip),%rax        # 1c5ec <g_378+0x8c>
    7f46:	48 89 85 68 f4 ff ff 	mov    %rax,-0xb98(%rbp)
    7f4d:	c7 85 0c f3 ff ff ff 	movl   $0xffffffff,-0xcf4(%rbp)
    7f54:	ff ff ff 
    7f57:	c7 85 3c f3 ff ff 93 	movl   $0x9656bc93,-0xcc4(%rbp)
    7f5e:	bc 56 96 
    7f61:	48 8d 05 e0 45 01 00 	lea    0x145e0(%rip),%rax        # 1c548 <g_374>
    7f68:	48 89 85 30 f7 ff ff 	mov    %rax,-0x8d0(%rbp)
    7f6f:	48 8d 05 d2 45 01 00 	lea    0x145d2(%rip),%rax        # 1c548 <g_374>
    7f76:	48 89 85 38 f7 ff ff 	mov    %rax,-0x8c8(%rbp)
    7f7d:	48 8d 05 c4 45 01 00 	lea    0x145c4(%rip),%rax        # 1c548 <g_374>
    7f84:	48 89 85 40 f7 ff ff 	mov    %rax,-0x8c0(%rbp)
    7f8b:	48 8d 05 b6 45 01 00 	lea    0x145b6(%rip),%rax        # 1c548 <g_374>
    7f92:	48 89 85 48 f7 ff ff 	mov    %rax,-0x8b8(%rbp)
    7f99:	48 8d 05 a8 45 01 00 	lea    0x145a8(%rip),%rax        # 1c548 <g_374>
    7fa0:	48 89 85 50 f7 ff ff 	mov    %rax,-0x8b0(%rbp)
    7fa7:	48 8d 05 9a 45 01 00 	lea    0x1459a(%rip),%rax        # 1c548 <g_374>
    7fae:	48 89 85 58 f7 ff ff 	mov    %rax,-0x8a8(%rbp)
    7fb5:	48 8d 05 8c 45 01 00 	lea    0x1458c(%rip),%rax        # 1c548 <g_374>
    7fbc:	48 89 85 60 f7 ff ff 	mov    %rax,-0x8a0(%rbp)
    7fc3:	48 8d 05 7e 45 01 00 	lea    0x1457e(%rip),%rax        # 1c548 <g_374>
    7fca:	48 89 85 68 f7 ff ff 	mov    %rax,-0x898(%rbp)
    7fd1:	48 8d 05 70 45 01 00 	lea    0x14570(%rip),%rax        # 1c548 <g_374>
    7fd8:	48 89 85 70 f7 ff ff 	mov    %rax,-0x890(%rbp)
    7fdf:	48 8d 05 0e 68 01 00 	lea    0x1680e(%rip),%rax        # 1e7f4 <g_1235>
    7fe6:	48 89 85 e8 f3 ff ff 	mov    %rax,-0xc18(%rbp)
    7fed:	c7 85 40 f3 ff ff d5 	movl   $0x509960d5,-0xcc0(%rbp)
    7ff4:	60 99 50 
    7ff7:	66 c7 85 80 f7 ff ff 	movw   $0x0,-0x880(%rbp)
    7ffe:	00 00 
    8000:	66 c7 85 82 f7 ff ff 	movw   $0xbac5,-0x87e(%rbp)
    8007:	c5 ba 
    8009:	66 c7 85 84 f7 ff ff 	movw   $0x5,-0x87c(%rbp)
    8010:	05 00 
    8012:	66 c7 85 86 f7 ff ff 	movw   $0x5,-0x87a(%rbp)
    8019:	05 00 
    801b:	66 c7 85 88 f7 ff ff 	movw   $0xfff7,-0x878(%rbp)
    8022:	f7 ff 
    8024:	66 c7 85 8a f7 ff ff 	movw   $0xffff,-0x876(%rbp)
    802b:	ff ff 
    802d:	66 c7 85 8c f7 ff ff 	movw   $0x7ff9,-0x874(%rbp)
    8034:	f9 7f 
    8036:	66 c7 85 8e f7 ff ff 	movw   $0x21ac,-0x872(%rbp)
    803d:	ac 21 
    803f:	66 c7 85 90 f7 ff ff 	movw   $0xadee,-0x870(%rbp)
    8046:	ee ad 
    8048:	66 c7 85 92 f7 ff ff 	movw   $0x0,-0x86e(%rbp)
    804f:	00 00 
    8051:	66 c7 85 94 f7 ff ff 	movw   $0x502c,-0x86c(%rbp)
    8058:	2c 50 
    805a:	66 c7 85 96 f7 ff ff 	movw   $0xadee,-0x86a(%rbp)
    8061:	ee ad 
    8063:	66 c7 85 98 f7 ff ff 	movw   $0x119b,-0x868(%rbp)
    806a:	9b 11 
    806c:	66 c7 85 9a f7 ff ff 	movw   $0x5,-0x866(%rbp)
    8073:	05 00 
    8075:	66 c7 85 9c f7 ff ff 	movw   $0x119b,-0x864(%rbp)
    807c:	9b 11 
    807e:	66 c7 85 9e f7 ff ff 	movw   $0xadee,-0x862(%rbp)
    8085:	ee ad 
    8087:	66 c7 85 a0 f7 ff ff 	movw   $0x502c,-0x860(%rbp)
    808e:	2c 50 
    8090:	66 c7 85 a2 f7 ff ff 	movw   $0x0,-0x85e(%rbp)
    8097:	00 00 
    8099:	66 c7 85 a4 f7 ff ff 	movw   $0xadee,-0x85c(%rbp)
    80a0:	ee ad 
    80a2:	66 c7 85 a6 f7 ff ff 	movw   $0x21ac,-0x85a(%rbp)
    80a9:	ac 21 
    80ab:	66 c7 85 a8 f7 ff ff 	movw   $0x7ff9,-0x858(%rbp)
    80b2:	f9 7f 
    80b4:	66 c7 85 aa f7 ff ff 	movw   $0xffff,-0x856(%rbp)
    80bb:	ff ff 
    80bd:	66 c7 85 ac f7 ff ff 	movw   $0xfff7,-0x854(%rbp)
    80c4:	f7 ff 
    80c6:	66 c7 85 ae f7 ff ff 	movw   $0x5,-0x852(%rbp)
    80cd:	05 00 
    80cf:	66 c7 85 b0 f7 ff ff 	movw   $0x5,-0x850(%rbp)
    80d6:	05 00 
    80d8:	66 c7 85 b2 f7 ff ff 	movw   $0xbac5,-0x84e(%rbp)
    80df:	c5 ba 
    80e1:	66 c7 85 b4 f7 ff ff 	movw   $0x0,-0x84c(%rbp)
    80e8:	00 00 
    80ea:	66 c7 85 b6 f7 ff ff 	movw   $0xffff,-0x84a(%rbp)
    80f1:	ff ff 
    80f3:	66 c7 85 b8 f7 ff ff 	movw   $0xf078,-0x848(%rbp)
    80fa:	78 f0 
    80fc:	66 c7 85 ba f7 ff ff 	movw   $0x646b,-0x846(%rbp)
    8103:	6b 64 
    8105:	66 c7 85 bc f7 ff ff 	movw   $0xadee,-0x844(%rbp)
    810c:	ee ad 
    810e:	66 c7 85 be f7 ff ff 	movw   $0xfff7,-0x842(%rbp)
    8115:	f7 ff 
    8117:	66 c7 85 c0 f7 ff ff 	movw   $0x70a1,-0x840(%rbp)
    811e:	a1 70 
    8120:	66 c7 85 c2 f7 ff ff 	movw   $0xadee,-0x83e(%rbp)
    8127:	ee ad 
    8129:	66 c7 85 c4 f7 ff ff 	movw   $0xfffb,-0x83c(%rbp)
    8130:	fb ff 
    8132:	66 c7 85 c6 f7 ff ff 	movw   $0xa4b2,-0x83a(%rbp)
    8139:	b2 a4 
    813b:	66 c7 85 c8 f7 ff ff 	movw   $0x119b,-0x838(%rbp)
    8142:	9b 11 
    8144:	66 c7 85 ca f7 ff ff 	movw   $0x6cdc,-0x836(%rbp)
    814b:	dc 6c 
    814d:	66 c7 85 cc f7 ff ff 	movw   $0x70a1,-0x834(%rbp)
    8154:	a1 70 
    8156:	66 c7 85 ce f7 ff ff 	movw   $0x0,-0x832(%rbp)
    815d:	00 00 
    815f:	66 c7 85 d0 f7 ff ff 	movw   $0x6cdc,-0x830(%rbp)
    8166:	dc 6c 
    8168:	66 c7 85 d2 f7 ff ff 	movw   $0x646b,-0x82e(%rbp)
    816f:	6b 64 
    8171:	66 c7 85 d4 f7 ff ff 	movw   $0x7ff9,-0x82c(%rbp)
    8178:	f9 7f 
    817a:	66 c7 85 d6 f7 ff ff 	movw   $0xffff,-0x82a(%rbp)
    8181:	ff ff 
    8183:	66 c7 85 d8 f7 ff ff 	movw   $0x0,-0x828(%rbp)
    818a:	00 00 
    818c:	66 c7 85 da f7 ff ff 	movw   $0x5,-0x826(%rbp)
    8193:	05 00 
    8195:	66 c7 85 dc f7 ff ff 	movw   $0xbac5,-0x824(%rbp)
    819c:	c5 ba 
    819e:	66 c7 85 de f7 ff ff 	movw   $0x5,-0x822(%rbp)
    81a5:	05 00 
    81a7:	66 c7 85 e0 f7 ff ff 	movw   $0x0,-0x820(%rbp)
    81ae:	00 00 
    81b0:	66 c7 85 e2 f7 ff ff 	movw   $0xffff,-0x81e(%rbp)
    81b7:	ff ff 
    81b9:	66 c7 85 e4 f7 ff ff 	movw   $0x7ff9,-0x81c(%rbp)
    81c0:	f9 7f 
    81c2:	66 c7 85 e6 f7 ff ff 	movw   $0x646b,-0x81a(%rbp)
    81c9:	6b 64 
    81cb:	66 c7 85 e8 f7 ff ff 	movw   $0x6cdc,-0x818(%rbp)
    81d2:	dc 6c 
    81d4:	66 c7 85 ea f7 ff ff 	movw   $0x0,-0x816(%rbp)
    81db:	00 00 
    81dd:	66 c7 85 ec f7 ff ff 	movw   $0x70a1,-0x814(%rbp)
    81e4:	a1 70 
    81e6:	66 c7 85 ee f7 ff ff 	movw   $0x6cdc,-0x812(%rbp)
    81ed:	dc 6c 
    81ef:	66 c7 85 f0 f7 ff ff 	movw   $0x119b,-0x810(%rbp)
    81f6:	9b 11 
    81f8:	66 c7 85 f2 f7 ff ff 	movw   $0xa4b2,-0x80e(%rbp)
    81ff:	b2 a4 
    8201:	66 c7 85 f4 f7 ff ff 	movw   $0xfffb,-0x80c(%rbp)
    8208:	fb ff 
    820a:	66 c7 85 f6 f7 ff ff 	movw   $0xadee,-0x80a(%rbp)
    8211:	ee ad 
    8213:	66 c7 85 f8 f7 ff ff 	movw   $0x70a1,-0x808(%rbp)
    821a:	a1 70 
    821c:	66 c7 85 fa f7 ff ff 	movw   $0xfff7,-0x806(%rbp)
    8223:	f7 ff 
    8225:	66 c7 85 fc f7 ff ff 	movw   $0xadee,-0x804(%rbp)
    822c:	ee ad 
    822e:	66 c7 85 fe f7 ff ff 	movw   $0x646b,-0x802(%rbp)
    8235:	6b 64 
    8237:	66 c7 85 00 f8 ff ff 	movw   $0xf078,-0x800(%rbp)
    823e:	78 f0 
    8240:	66 c7 85 02 f8 ff ff 	movw   $0xffff,-0x7fe(%rbp)
    8247:	ff ff 
    8249:	66 c7 85 04 f8 ff ff 	movw   $0x0,-0x7fc(%rbp)
    8250:	00 00 
    8252:	66 c7 85 06 f8 ff ff 	movw   $0xbac5,-0x7fa(%rbp)
    8259:	c5 ba 
    825b:	66 c7 85 08 f8 ff ff 	movw   $0x5,-0x7f8(%rbp)
    8262:	05 00 
    8264:	66 c7 85 0a f8 ff ff 	movw   $0x5,-0x7f6(%rbp)
    826b:	05 00 
    826d:	66 c7 85 0c f8 ff ff 	movw   $0xfff7,-0x7f4(%rbp)
    8274:	f7 ff 
    8276:	66 c7 85 0e f8 ff ff 	movw   $0xffff,-0x7f2(%rbp)
    827d:	ff ff 
    827f:	66 c7 85 10 f8 ff ff 	movw   $0x7ff9,-0x7f0(%rbp)
    8286:	f9 7f 
    8288:	66 c7 85 12 f8 ff ff 	movw   $0x21ac,-0x7ee(%rbp)
    828f:	ac 21 
    8291:	66 c7 85 14 f8 ff ff 	movw   $0xadee,-0x7ec(%rbp)
    8298:	ee ad 
    829a:	66 c7 85 16 f8 ff ff 	movw   $0x0,-0x7ea(%rbp)
    82a1:	00 00 
    82a3:	66 c7 85 18 f8 ff ff 	movw   $0x502c,-0x7e8(%rbp)
    82aa:	2c 50 
    82ac:	66 c7 85 1a f8 ff ff 	movw   $0xadee,-0x7e6(%rbp)
    82b3:	ee ad 
    82b5:	66 c7 85 1c f8 ff ff 	movw   $0x119b,-0x7e4(%rbp)
    82bc:	9b 11 
    82be:	66 c7 85 1e f8 ff ff 	movw   $0x5,-0x7e2(%rbp)
    82c5:	05 00 
    82c7:	c6 85 ce f2 ff ff 12 	movb   $0x12,-0xd32(%rbp)
    82ce:	66 c7 85 da f2 ff ff 	movw   $0x0,-0xd26(%rbp)
    82d5:	00 00 
    82d7:	8b 9d b4 f5 ff ff    	mov    -0xa4c(%rbp),%ebx
    82dd:	4c 8b 35 22 81 01 00 	mov    0x18122(%rip),%r14        # 20406 <g_1889+0x6>
    82e4:	0f b6 05 a1 3f 01 00 	movzbl 0x13fa1(%rip),%eax        # 1c28c <g_300+0xc>
    82eb:	88 85 cc f2 ff ff    	mov    %al,-0xd34(%rbp)
    82f1:	44 0f be bd cc f2 ff 	movsbl -0xd34(%rbp),%r15d
    82f8:	ff 
    82f9:	8b 05 25 3d 01 00    	mov    0x13d25(%rip),%eax        # 1c024 <g_5>
    82ff:	44 0f b6 e0          	movzbl %al,%r12d
    8303:	8b 85 b4 f5 ff ff    	mov    -0xa4c(%rbp),%eax
    8309:	44 0f b7 e8          	movzwl %ax,%r13d
    830d:	8b 85 ec f2 ff ff    	mov    -0xd14(%rbp),%eax
    8313:	89 c6                	mov    %eax,%esi
    8315:	bf 4d 00 00 00       	mov    $0x4d,%edi
    831a:	e8 2d e9 ff ff       	callq  6c4c <safe_lshift_func_uint8_t_u_u>
    831f:	b8 01 00 00 00       	mov    $0x1,%eax
    8324:	0f b6 c0             	movzbl %al,%eax
    8327:	44 89 ee             	mov    %r13d,%esi
    832a:	89 c7                	mov    %eax,%edi
    832c:	e8 0c ea ff ff       	callq  6d3d <safe_mul_func_uint16_t_u_u>
    8331:	48 8b 95 a8 f5 ff ff 	mov    -0xa58(%rbp),%rdx
    8338:	48 8d 85 a8 f3 ff ff 	lea    -0xc58(%rbp),%rax
    833f:	48 39 c2             	cmp    %rax,%rdx
    8342:	0f 94 c0             	sete   %al
    8345:	0f b6 d0             	movzbl %al,%edx
    8348:	8b 85 ec f2 ff ff    	mov    -0xd14(%rbp),%eax
    834e:	0f b6 c0             	movzbl %al,%eax
    8351:	89 d6                	mov    %edx,%esi
    8353:	89 c7                	mov    %eax,%edi
    8355:	e8 39 e8 ff ff       	callq  6b93 <safe_mul_func_uint8_t_u_u>
    835a:	44 89 e6             	mov    %r12d,%esi
    835d:	bf 00 00 00 00       	mov    $0x0,%edi
    8362:	e8 11 e8 ff ff       	callq  6b78 <safe_sub_func_uint8_t_u_u>
    8367:	0f b6 d0             	movzbl %al,%edx
    836a:	48 8b 05 8f ab 01 00 	mov    0x1ab8f(%rip),%rax        # 22f00 <g_371>
    8371:	48 8b 00             	mov    (%rax),%rax
    8374:	8b 00                	mov    (%rax),%eax
    8376:	39 c2                	cmp    %eax,%edx
    8378:	0f 95 c0             	setne  %al
    837b:	0f b6 c0             	movzbl %al,%eax
    837e:	44 09 f8             	or     %r15d,%eax
    8381:	48 98                	cltq   
    8383:	48 89 c6             	mov    %rax,%rsi
    8386:	48 bf a8 9e f9 d5 5c 	movabs $0xb0593e5cd5f99ea8,%rdi
    838d:	3e 59 b0 
    8390:	e8 1a ed ff ff       	callq  70af <safe_div_func_uint64_t_u_u>
    8395:	0f b7 15 c4 7f 01 00 	movzwl 0x17fc4(%rip),%edx        # 20360 <g_1761+0x10>
    839c:	66 c1 ea 06          	shr    $0x6,%dx
    83a0:	83 e2 07             	and    $0x7,%edx
    83a3:	0f b6 d2             	movzbl %dl,%edx
    83a6:	48 39 d0             	cmp    %rdx,%rax
    83a9:	0f 93 c0             	setae  %al
    83ac:	0f b6 c0             	movzbl %al,%eax
    83af:	49 39 c6             	cmp    %rax,%r14
    83b2:	0f 9d c0             	setge  %al
    83b5:	0f b6 d0             	movzbl %al,%edx
    83b8:	8b 85 b4 f5 ff ff    	mov    -0xa4c(%rbp),%eax
    83be:	39 c2                	cmp    %eax,%edx
    83c0:	0f 9c c0             	setl   %al
    83c3:	0f b6 d0             	movzbl %al,%edx
    83c6:	48 8b 85 00 f4 ff ff 	mov    -0xc00(%rbp),%rax
    83cd:	89 10                	mov    %edx,(%rax)
    83cf:	48 8b 85 00 f4 ff ff 	mov    -0xc00(%rbp),%rax
    83d6:	8b 08                	mov    (%rax),%ecx
    83d8:	48 8b 05 e1 a7 01 00 	mov    0x1a7e1(%rip),%rax        # 22bc0 <g_167>
    83df:	8b 10                	mov    (%rax),%edx
    83e1:	48 8b 05 d8 a7 01 00 	mov    0x1a7d8(%rip),%rax        # 22bc0 <g_167>
    83e8:	09 ca                	or     %ecx,%edx
    83ea:	89 10                	mov    %edx,(%rax)
    83ec:	8b 00                	mov    (%rax),%eax
    83ee:	f7 d0                	not    %eax
    83f0:	c1 e8 1f             	shr    $0x1f,%eax
    83f3:	0f b6 d0             	movzbl %al,%edx
    83f6:	8b 85 bc f5 ff ff    	mov    -0xa44(%rbp),%eax
    83fc:	39 c2                	cmp    %eax,%edx
    83fe:	0f 94 c0             	sete   %al
    8401:	0f b6 d0             	movzbl %al,%edx
    8404:	8b 85 b4 f5 ff ff    	mov    -0xa4c(%rbp),%eax
    840a:	31 d0                	xor    %edx,%eax
    840c:	89 de                	mov    %ebx,%esi
    840e:	89 c7                	mov    %eax,%edi
    8410:	e8 f0 e1 ff ff       	callq  6605 <safe_sub_func_int32_t_s_s>
    8415:	85 c0                	test   %eax,%eax
    8417:	0f 84 a6 0f 00 00    	je     93c3 <func_1+0x1c0e>
    841d:	c7 45 c3 00 00 00 00 	movl   $0x0,-0x3d(%rbp)
    8424:	c6 45 c7 00          	movb   $0x0,-0x39(%rbp)
    8428:	66 c7 85 d0 f3 ff ff 	movw   $0x0,-0xc30(%rbp)
    842f:	00 00 
    8431:	48 8d 05 ae 7a 01 00 	lea    0x17aae(%rip),%rax        # 1fee6 <g_1663+0x6>
    8438:	48 89 85 c8 f4 ff ff 	mov    %rax,-0xb38(%rbp)
    843f:	48 b8 05 be 66 93 4e 	movabs $0xeebdcf4e9366be05,%rax
    8446:	cf bd ee 
    8449:	48 89 85 d0 f4 ff ff 	mov    %rax,-0xb30(%rbp)
    8450:	48 8d 05 e1 ac 01 00 	lea    0x1ace1(%rip),%rax        # 23138 <g_610+0x18>
    8457:	48 89 85 d8 f4 ff ff 	mov    %rax,-0xb28(%rbp)
    845e:	48 8d 85 b0 f5 ff ff 	lea    -0xa50(%rbp),%rax
    8465:	48 83 c0 04          	add    $0x4,%rax
    8469:	48 89 85 f0 f3 ff ff 	mov    %rax,-0xc10(%rbp)
    8470:	48 c7 85 e0 f4 ff ff 	movq   $0x0,-0xb20(%rbp)
    8477:	00 00 00 00 
    847b:	c7 85 10 f3 ff ff 6d 	movl   $0x2ee0686d,-0xcf0(%rbp)
    8482:	68 e0 2e 
    8485:	44 0f be ad cc f2 ff 	movsbl -0xd34(%rbp),%r13d
    848c:	ff 
    848d:	8b 85 e8 f2 ff ff    	mov    -0xd18(%rbp),%eax
    8493:	0f b7 d8             	movzwl %ax,%ebx
    8496:	48 8b 85 08 f4 ff ff 	mov    -0xbf8(%rbp),%rax
    849d:	8b 00                	mov    (%rax),%eax
    849f:	44 0f bf e0          	movswl %ax,%r12d
    84a3:	48 8b 15 a6 af 01 00 	mov    0x1afa6(%rip),%rdx        # 23450 <g_747>
    84aa:	48 8b 05 9f af 01 00 	mov    0x1af9f(%rip),%rax        # 23450 <g_747>
    84b1:	0f b6 12             	movzbl (%rdx),%edx
    84b4:	88 10                	mov    %dl,(%rax)
    84b6:	0f b6 00             	movzbl (%rax),%eax
    84b9:	0f b6 c0             	movzbl %al,%eax
    84bc:	be 02 00 00 00       	mov    $0x2,%esi
    84c1:	89 c7                	mov    %eax,%edi
    84c3:	e8 f6 e7 ff ff       	callq  6cbe <safe_rshift_func_uint8_t_u_u>
    84c8:	84 c0                	test   %al,%al
    84ca:	75 09                	jne    84d5 <func_1+0xd20>
    84cc:	83 bd 38 f3 ff ff 00 	cmpl   $0x0,-0xcc8(%rbp)
    84d3:	74 07                	je     84dc <func_1+0xd27>
    84d5:	b8 01 00 00 00       	mov    $0x1,%eax
    84da:	eb 05                	jmp    84e1 <func_1+0xd2c>
    84dc:	b8 00 00 00 00       	mov    $0x0,%eax
    84e1:	0f b7 c0             	movzwl %ax,%eax
    84e4:	be 03 00 00 00       	mov    $0x3,%esi
    84e9:	89 c7                	mov    %eax,%edi
    84eb:	e8 8a e9 ff ff       	callq  6e7a <safe_rshift_func_uint16_t_u_u>
    84f0:	bf 01 00 00 00       	mov    $0x1,%edi
    84f5:	e8 9c e0 ff ff       	callq  6596 <safe_unary_minus_func_int32_t_s>
    84fa:	0f be 95 cc f2 ff ff 	movsbl -0xd34(%rbp),%edx
    8501:	39 d0                	cmp    %edx,%eax
    8503:	75 09                	jne    850e <func_1+0xd59>
    8505:	83 bd 38 f3 ff ff 00 	cmpl   $0x0,-0xcc8(%rbp)
    850c:	74 07                	je     8515 <func_1+0xd60>
    850e:	b8 01 00 00 00       	mov    $0x1,%eax
    8513:	eb 05                	jmp    851a <func_1+0xd65>
    8515:	b8 00 00 00 00       	mov    $0x0,%eax
    851a:	0f b6 c0             	movzbl %al,%eax
    851d:	be 0c 00 00 00       	mov    $0xc,%esi
    8522:	89 c7                	mov    %eax,%edi
    8524:	e8 31 e6 ff ff       	callq  6b5a <safe_add_func_uint8_t_u_u>
    8529:	0f b6 c0             	movzbl %al,%eax
    852c:	66 25 04 b6          	and    $0xb604,%ax
    8530:	98                   	cwtl   
    8531:	44 89 e6             	mov    %r12d,%esi
    8534:	89 c7                	mov    %eax,%edi
    8536:	e8 1a df ff ff       	callq  6455 <safe_div_func_int16_t_s_s>
    853b:	66 89 85 d0 f3 ff ff 	mov    %ax,-0xc30(%rbp)
    8542:	0f b7 85 d0 f3 ff ff 	movzwl -0xc30(%rbp),%eax
    8549:	0f be c0             	movsbl %al,%eax
    854c:	be 05 00 00 00       	mov    $0x5,%esi
    8551:	89 c7                	mov    %eax,%edi
    8553:	e8 96 dd ff ff       	callq  62ee <safe_lshift_func_int8_t_s_u>
    8558:	be 05 00 00 00       	mov    $0x5,%esi
    855d:	bf fa ff ff ff       	mov    $0xfffffffa,%edi
    8562:	e8 3a dd ff ff       	callq  62a1 <safe_lshift_func_int8_t_s_s>
    8567:	0f be c0             	movsbl %al,%eax
    856a:	89 c6                	mov    %eax,%esi
    856c:	bf 95 2a 00 00       	mov    $0x2a95,%edi
    8571:	e8 1c df ff ff       	callq  6492 <safe_lshift_func_int16_t_s_s>
    8576:	0f bf d0             	movswl %ax,%edx
    8579:	8b 85 b4 f5 ff ff    	mov    -0xa4c(%rbp),%eax
    857f:	39 c2                	cmp    %eax,%edx
    8581:	0f 9c c0             	setl   %al
    8584:	0f b6 d0             	movzbl %al,%edx
    8587:	0f b6 45 c4          	movzbl -0x3c(%rbp),%eax
    858b:	0f be c0             	movsbl %al,%eax
    858e:	39 c2                	cmp    %eax,%edx
    8590:	0f b6 45 c4          	movzbl -0x3c(%rbp),%eax
    8594:	0f b6 c0             	movzbl %al,%eax
    8597:	89 c7                	mov    %eax,%edi
    8599:	e8 a7 e5 ff ff       	callq  6b45 <safe_unary_minus_func_uint8_t_u>
    859e:	0f b6 c0             	movzbl %al,%eax
    85a1:	be 00 00 00 00       	mov    $0x0,%esi
    85a6:	89 c7                	mov    %eax,%edi
    85a8:	e8 26 de ff ff       	callq  63d3 <safe_sub_func_int16_t_s_s>
    85ad:	0f b7 c0             	movzwl %ax,%eax
    85b0:	89 de                	mov    %ebx,%esi
    85b2:	89 c7                	mov    %eax,%edi
    85b4:	e8 d5 e7 ff ff       	callq  6d8e <safe_div_func_uint16_t_u_u>
    85b9:	0f b7 c0             	movzwl %ax,%eax
    85bc:	be 9b 7b 00 00       	mov    $0x7b9b,%esi
    85c1:	89 c7                	mov    %eax,%edi
    85c3:	e8 57 e7 ff ff       	callq  6d1f <safe_sub_func_uint16_t_u_u>
    85c8:	0f b7 d0             	movzwl %ax,%edx
    85cb:	0f bf 85 de f2 ff ff 	movswl -0xd22(%rbp),%eax
    85d2:	31 d0                	xor    %edx,%eax
    85d4:	41 39 c5             	cmp    %eax,%r13d
    85d7:	0f 9c c0             	setl   %al
    85da:	0f b6 d0             	movzbl %al,%edx
    85dd:	0f b6 45 c4          	movzbl -0x3c(%rbp),%eax
    85e1:	0f be c0             	movsbl %al,%eax
    85e4:	89 d6                	mov    %edx,%esi
    85e6:	89 c7                	mov    %eax,%edi
    85e8:	e8 08 de ff ff       	callq  63f5 <safe_mul_func_int16_t_s_s>
    85ed:	0f bf d0             	movswl %ax,%edx
    85f0:	48 8b 05 c9 a5 01 00 	mov    0x1a5c9(%rip),%rax        # 22bc0 <g_167>
    85f7:	8b 00                	mov    (%rax),%eax
    85f9:	39 c2                	cmp    %eax,%edx
    85fb:	7e 13                	jle    8610 <func_1+0xe5b>
    85fd:	0f b7 85 d0 f3 ff ff 	movzwl -0xc30(%rbp),%eax
    8604:	66 85 c0             	test   %ax,%ax
    8607:	74 07                	je     8610 <func_1+0xe5b>
    8609:	ba 01 00 00 00       	mov    $0x1,%edx
    860e:	eb 05                	jmp    8615 <func_1+0xe60>
    8610:	ba 00 00 00 00       	mov    $0x0,%edx
    8615:	8b 05 35 7d 01 00    	mov    0x17d35(%rip),%eax        # 20350 <g_1761>
    861b:	c1 e0 0d             	shl    $0xd,%eax
    861e:	c1 f8 0d             	sar    $0xd,%eax
    8621:	31 d0                	xor    %edx,%eax
    8623:	48 63 d0             	movslq %eax,%rdx
    8626:	48 8b 85 c8 f4 ff ff 	mov    -0xb38(%rbp),%rax
    862d:	48 89 10             	mov    %rdx,(%rax)
    8630:	0f b6 45 c7          	movzbl -0x39(%rbp),%eax
    8634:	3c 01                	cmp    $0x1,%al
    8636:	75 39                	jne    8671 <func_1+0xebc>
    8638:	0f bf 85 de f2 ff ff 	movswl -0xd22(%rbp),%eax
    863f:	21 85 30 f3 ff ff    	and    %eax,-0xcd0(%rbp)
    8645:	48 8b 8d b8 f2 ff ff 	mov    -0xd48(%rbp),%rcx
    864c:	48 8b 05 dd 9b 01 00 	mov    0x19bdd(%rip),%rax        # 22230 <g_2280>
    8653:	48 8b 15 de 9b 01 00 	mov    0x19bde(%rip),%rdx        # 22238 <g_2280+0x8>
    865a:	48 89 01             	mov    %rax,(%rcx)
    865d:	48 89 51 08          	mov    %rdx,0x8(%rcx)
    8661:	0f b7 05 d8 9b 01 00 	movzwl 0x19bd8(%rip),%eax        # 22240 <g_2280+0x10>
    8668:	66 89 41 10          	mov    %ax,0x10(%rcx)
    866c:	e9 88 1b 00 00       	jmpq   a1f9 <func_1+0x2a44>
    8671:	48 8d 05 90 62 01 00 	lea    0x16290(%rip),%rax        # 1e908 <g_1405>
    8678:	48 89 85 e8 f4 ff ff 	mov    %rax,-0xb18(%rbp)
    867f:	c7 85 54 f3 ff ff fa 	movl   $0xfffffffa,-0xcac(%rbp)
    8686:	ff ff ff 
    8689:	48 c7 85 e0 f3 ff ff 	movq   $0x0,-0xc20(%rbp)
    8690:	00 00 00 00 
    8694:	48 8d 85 e0 f3 ff ff 	lea    -0xc20(%rbp),%rax
    869b:	48 89 85 f0 f4 ff ff 	mov    %rax,-0xb10(%rbp)
    86a2:	48 8b 85 e8 f4 ff ff 	mov    -0xb18(%rbp),%rax
    86a9:	48 8b 15 98 9b 01 00 	mov    0x19b98(%rip),%rdx        # 22248 <g_2281>
    86b0:	48 89 10             	mov    %rdx,(%rax)
    86b3:	8b 15 97 9b 01 00    	mov    0x19b97(%rip),%edx        # 22250 <g_2281+0x8>
    86b9:	89 50 08             	mov    %edx,0x8(%rax)
    86bc:	48 8b 05 9d ad 01 00 	mov    0x1ad9d(%rip),%rax        # 23460 <g_753>
    86c3:	8b 00                	mov    (%rax),%eax
    86c5:	85 c0                	test   %eax,%eax
    86c7:	0f 85 e3 1a 00 00    	jne    a1b0 <func_1+0x29fb>
    86cd:	8b 85 e8 f2 ff ff    	mov    -0xd18(%rbp),%eax
    86d3:	48 98                	cltq   
    86d5:	48 39 85 d0 f4 ff ff 	cmp    %rax,-0xb30(%rbp)
    86dc:	0f 94 c2             	sete   %dl
    86df:	48 8b 05 1a a8 01 00 	mov    0x1a81a(%rip),%rax        # 22f00 <g_371>
    86e6:	48 8b 00             	mov    (%rax),%rax
    86e9:	0f b6 d2             	movzbl %dl,%edx
    86ec:	89 10                	mov    %edx,(%rax)
    86ee:	c7 85 58 f3 ff ff ad 	movl   $0xcc0141ad,-0xca8(%rbp)
    86f5:	41 01 cc 
    86f8:	48 8b 05 71 aa 01 00 	mov    0x1aa71(%rip),%rax        # 23170 <g_608>
    86ff:	48 8b 00             	mov    (%rax),%rax
    8702:	48 39 85 d8 f4 ff ff 	cmp    %rax,-0xb28(%rbp)
    8709:	48 8b 05 40 ad 01 00 	mov    0x1ad40(%rip),%rax        # 23450 <g_747>
    8710:	0f b6 00             	movzbl (%rax),%eax
    8713:	0f b6 c0             	movzbl %al,%eax
    8716:	be 04 00 00 00       	mov    $0x4,%esi
    871b:	89 c7                	mov    %eax,%edi
    871d:	e8 e3 e4 ff ff       	callq  6c05 <safe_lshift_func_uint8_t_u_s>
    8722:	84 c0                	test   %al,%al
    8724:	74 10                	je     8736 <func_1+0xf81>
    8726:	48 8b 05 c3 ad 01 00 	mov    0x1adc3(%rip),%rax        # 234f0 <g_1685>
    872d:	48 8b 00             	mov    (%rax),%rax
    8730:	48 8b 00             	mov    (%rax),%rax
    8733:	48 85 c0             	test   %rax,%rax
    8736:	48 8b 05 a3 a7 01 00 	mov    0x1a7a3(%rip),%rax        # 22ee0 <g_303>
    873d:	8b 00                	mov    (%rax),%eax
    873f:	85 c0                	test   %eax,%eax
    8741:	74 07                	je     874a <func_1+0xf95>
    8743:	b8 01 00 00 00       	mov    $0x1,%eax
    8748:	eb 05                	jmp    874f <func_1+0xf9a>
    874a:	b8 00 00 00 00       	mov    $0x0,%eax
    874f:	88 05 87 4f 01 00    	mov    %al,0x14f87(%rip)        # 1d6dc <g_447+0x5c>
    8755:	0f b6 05 80 4f 01 00 	movzbl 0x14f80(%rip),%eax        # 1d6dc <g_447+0x5c>
    875c:	0f be d0             	movsbl %al,%edx
    875f:	48 8b 85 f8 f3 ff ff 	mov    -0xc08(%rbp),%rax
    8766:	89 10                	mov    %edx,(%rax)
    8768:	48 8b 85 f8 f3 ff ff 	mov    -0xc08(%rbp),%rax
    876f:	8b 00                	mov    (%rax),%eax
    8771:	3d e0 00 00 00       	cmp    $0xe0,%eax
    8776:	0f 94 c0             	sete   %al
    8779:	0f b6 c0             	movzbl %al,%eax
    877c:	89 c2                	mov    %eax,%edx
    877e:	0f b6 05 eb 58 01 00 	movzbl 0x158eb(%rip),%eax        # 1e070 <g_1034>
    8785:	09 d0                	or     %edx,%eax
    8787:	88 05 e3 58 01 00    	mov    %al,0x158e3(%rip)        # 1e070 <g_1034>
    878d:	0f b6 05 dc 58 01 00 	movzbl 0x158dc(%rip),%eax        # 1e070 <g_1034>
    8794:	0f be c0             	movsbl %al,%eax
    8797:	33 85 ec f2 ff ff    	xor    -0xd14(%rbp),%eax
    879d:	39 85 30 f3 ff ff    	cmp    %eax,-0xcd0(%rbp)
    87a3:	0f 9e c0             	setle  %al
    87a6:	0f b6 d0             	movzbl %al,%edx
    87a9:	8b 85 b4 f5 ff ff    	mov    -0xa4c(%rbp),%eax
    87af:	98                   	cwtl   
    87b0:	89 d6                	mov    %edx,%esi
    87b2:	89 c7                	mov    %eax,%edi
    87b4:	e8 3c dc ff ff       	callq  63f5 <safe_mul_func_int16_t_s_s>
    87b9:	0f bf d0             	movswl %ax,%edx
    87bc:	0f b6 05 69 38 01 00 	movzbl 0x13869(%rip),%eax        # 1c02c <g_63>
    87c3:	0f be c0             	movsbl %al,%eax
    87c6:	89 d6                	mov    %edx,%esi
    87c8:	89 c7                	mov    %eax,%edi
    87ca:	e8 1f db ff ff       	callq  62ee <safe_lshift_func_int8_t_s_u>
    87cf:	0f be d0             	movsbl %al,%edx
    87d2:	0f b6 45 c4          	movzbl -0x3c(%rbp),%eax
    87d6:	0f be c0             	movsbl %al,%eax
    87d9:	89 d6                	mov    %edx,%esi
    87db:	89 c7                	mov    %eax,%edi
    87dd:	e8 23 de ff ff       	callq  6605 <safe_sub_func_int32_t_s_s>
    87e2:	3d a6 5d 00 00       	cmp    $0x5da6,%eax
    87e7:	0f 95 c0             	setne  %al
    87ea:	0f b6 c0             	movzbl %al,%eax
    87ed:	48 39 85 d0 f4 ff ff 	cmp    %rax,-0xb30(%rbp)
    87f4:	0f 95 c0             	setne  %al
    87f7:	0f b6 d0             	movzbl %al,%edx
    87fa:	48 8b 85 00 f4 ff ff 	mov    -0xc00(%rbp),%rax
    8801:	8b 00                	mov    (%rax),%eax
    8803:	31 c2                	xor    %eax,%edx
    8805:	48 8b 85 00 f4 ff ff 	mov    -0xc00(%rbp),%rax
    880c:	89 10                	mov    %edx,(%rax)
    880e:	48 8b 85 f0 f4 ff ff 	mov    -0xb10(%rbp),%rax
    8815:	48 c7 00 00 00 00 00 	movq   $0x0,(%rax)
    881c:	48 8b 05 a5 a3 01 00 	mov    0x1a3a5(%rip),%rax        # 22bc8 <g_166>
    8823:	48 8b 00             	mov    (%rax),%rax
    8826:	48 89 85 f0 f3 ff ff 	mov    %rax,-0xc10(%rbp)
    882d:	48 8b 85 f0 f3 ff ff 	mov    -0xc10(%rbp),%rax
    8834:	8b 00                	mov    (%rax),%eax
    8836:	85 c0                	test   %eax,%eax
    8838:	0f 84 32 05 00 00    	je     8d70 <func_1+0x15bb>
    883e:	48 b8 ed f2 1b c9 7c 	movabs $0xd5682f7cc91bf2ed,%rax
    8845:	2f 68 d5 
    8848:	48 89 85 00 f5 ff ff 	mov    %rax,-0xb00(%rbp)
    884f:	48 8d 05 42 57 01 00 	lea    0x15742(%rip),%rax        # 1df98 <g_835>
    8856:	48 89 85 08 f5 ff ff 	mov    %rax,-0xaf8(%rbp)
    885d:	48 c7 85 10 f5 ff ff 	movq   $0x0,-0xaf0(%rbp)
    8864:	00 00 00 00 
    8868:	48 8d 85 d0 f3 ff ff 	lea    -0xc30(%rbp),%rax
    886f:	48 89 85 18 f5 ff ff 	mov    %rax,-0xae8(%rbp)
    8876:	c7 85 5c f3 ff ff 75 	movl   $0xa6eb7d75,-0xca4(%rbp)
    887d:	7d eb a6 
    8880:	c7 85 60 f3 ff ff 01 	movl   $0x1,-0xca0(%rbp)
    8887:	00 00 00 
    888a:	48 8d 05 df 4a 01 00 	lea    0x14adf(%rip),%rax        # 1d370 <g_378+0xe10>
    8891:	48 89 85 d8 f3 ff ff 	mov    %rax,-0xc28(%rbp)
    8898:	48 8d 85 d8 f3 ff ff 	lea    -0xc28(%rbp),%rax
    889f:	48 89 85 e0 f3 ff ff 	mov    %rax,-0xc20(%rbp)
    88a6:	48 8d 05 93 57 01 00 	lea    0x15793(%rip),%rax        # 1e040 <g_1013>
    88ad:	48 89 85 20 f5 ff ff 	mov    %rax,-0xae0(%rbp)
    88b4:	c7 85 14 f3 ff ff 00 	movl   $0x0,-0xcec(%rbp)
    88bb:	00 00 00 
    88be:	eb 1e                	jmp    88de <func_1+0x1129>
    88c0:	8b 85 14 f3 ff ff    	mov    -0xcec(%rbp),%eax
    88c6:	48 98                	cltq   
    88c8:	48 8d 15 51 a6 01 00 	lea    0x1a651(%rip),%rdx        # 22f20 <g_444>
    88cf:	48 89 94 c5 40 f6 ff 	mov    %rdx,-0x9c0(%rbp,%rax,8)
    88d6:	ff 
    88d7:	83 85 14 f3 ff ff 01 	addl   $0x1,-0xcec(%rbp)
    88de:	83 bd 14 f3 ff ff 02 	cmpl   $0x2,-0xcec(%rbp)
    88e5:	7e d9                	jle    88c0 <func_1+0x110b>
    88e7:	c7 85 14 f3 ff ff 00 	movl   $0x0,-0xcec(%rbp)
    88ee:	00 00 00 
    88f1:	eb 1e                	jmp    8911 <func_1+0x115c>
    88f3:	8b 85 14 f3 ff ff    	mov    -0xcec(%rbp),%eax
    88f9:	48 98                	cltq   
    88fb:	48 8d 95 e0 f3 ff ff 	lea    -0xc20(%rbp),%rdx
    8902:	48 89 94 c5 20 f8 ff 	mov    %rdx,-0x7e0(%rbp,%rax,8)
    8909:	ff 
    890a:	83 85 14 f3 ff ff 01 	addl   $0x1,-0xcec(%rbp)
    8911:	83 bd 14 f3 ff ff 03 	cmpl   $0x3,-0xcec(%rbp)
    8918:	7e d9                	jle    88f3 <func_1+0x113e>
    891a:	c6 05 0b 37 01 00 00 	movb   $0x0,0x1370b(%rip)        # 1c02c <g_63>
    8921:	90                   	nop
    8922:	0f b6 05 03 37 01 00 	movzbl 0x13703(%rip),%eax        # 1c02c <g_63>
    8929:	3c 05                	cmp    $0x5,%al
    892b:	74 29                	je     8956 <func_1+0x11a1>
    892d:	48 8b 8d b8 f2 ff ff 	mov    -0xd48(%rbp),%rcx
    8934:	48 8b b5 10 f4 ff ff 	mov    -0xbf0(%rbp),%rsi
    893b:	48 8b 06             	mov    (%rsi),%rax
    893e:	48 8b 56 08          	mov    0x8(%rsi),%rdx
    8942:	48 89 01             	mov    %rax,(%rcx)
    8945:	48 89 51 08          	mov    %rdx,0x8(%rcx)
    8949:	0f b7 46 10          	movzwl 0x10(%rsi),%eax
    894d:	66 89 41 10          	mov    %ax,0x10(%rcx)
    8951:	e9 a3 18 00 00       	jmpq   a1f9 <func_1+0x2a44>
    8956:	48 8b 85 08 f4 ff ff 	mov    -0xbf8(%rbp),%rax
    895d:	8b 00                	mov    (%rax),%eax
    895f:	0f bf d8             	movswl %ax,%ebx
    8962:	48 8b 85 f0 f3 ff ff 	mov    -0xc10(%rbp),%rax
    8969:	8b 00                	mov    (%rax),%eax
    896b:	4c 63 e0             	movslq %eax,%r12
    896e:	0f b6 05 17 5f 01 00 	movzbl 0x15f17(%rip),%eax        # 1e88c <g_1329+0xc>
    8975:	22 85 cc f2 ff ff    	and    -0xd34(%rbp),%al
    897b:	88 05 0b 5f 01 00    	mov    %al,0x15f0b(%rip)        # 1e88c <g_1329+0xc>
    8981:	0f b6 05 04 5f 01 00 	movzbl 0x15f04(%rip),%eax        # 1e88c <g_1329+0xc>
    8988:	0f b6 d0             	movzbl %al,%edx
    898b:	48 8b 05 be aa 01 00 	mov    0x1aabe(%rip),%rax        # 23450 <g_747>
    8992:	0f b6 00             	movzbl (%rax),%eax
    8995:	0f b6 c0             	movzbl %al,%eax
    8998:	89 d6                	mov    %edx,%esi
    899a:	89 c7                	mov    %eax,%edi
    899c:	e8 0d e2 ff ff       	callq  6bae <safe_mod_func_uint8_t_u_u>
    89a1:	0f b6 d0             	movzbl %al,%edx
    89a4:	48 8b 85 08 f5 ff ff 	mov    -0xaf8(%rbp),%rax
    89ab:	0f b7 00             	movzwl (%rax),%eax
    89ae:	89 c1                	mov    %eax,%ecx
    89b0:	48 8b 85 60 f4 ff ff 	mov    -0xba0(%rbp),%rax
    89b7:	21 c8                	and    %ecx,%eax
    89b9:	89 c1                	mov    %eax,%ecx
    89bb:	48 8b 85 08 f5 ff ff 	mov    -0xaf8(%rbp),%rax
    89c2:	66 89 08             	mov    %cx,(%rax)
    89c5:	48 8b 85 08 f5 ff ff 	mov    -0xaf8(%rbp),%rax
    89cc:	0f b7 08             	movzwl (%rax),%ecx
    89cf:	48 8b 85 18 f5 ff ff 	mov    -0xae8(%rbp),%rax
    89d6:	66 89 08             	mov    %cx,(%rax)
    89d9:	48 8b 85 18 f5 ff ff 	mov    -0xae8(%rbp),%rax
    89e0:	0f b7 00             	movzwl (%rax),%eax
    89e3:	98                   	cwtl   
    89e4:	89 d6                	mov    %edx,%esi
    89e6:	89 c7                	mov    %eax,%edi
    89e8:	e8 08 da ff ff       	callq  63f5 <safe_mul_func_int16_t_s_s>
    89ed:	0f b7 c0             	movzwl %ax,%eax
    89f0:	8b 95 ec f2 ff ff    	mov    -0xd14(%rbp),%edx
    89f6:	89 d6                	mov    %edx,%esi
    89f8:	89 c7                	mov    %eax,%edi
    89fa:	e8 49 e4 ff ff       	callq  6e48 <safe_rshift_func_uint16_t_u_s>
    89ff:	0f b7 d0             	movzwl %ax,%edx
    8a02:	b8 fa ff ff ff       	mov    $0xfffffffa,%eax
    8a07:	0f b6 c0             	movzbl %al,%eax
    8a0a:	48 89 d6             	mov    %rdx,%rsi
    8a0d:	48 89 c7             	mov    %rax,%rdi
    8a10:	e8 9f df ff ff       	callq  69b4 <safe_mod_func_int64_t_s_s>
    8a15:	4c 89 e6             	mov    %r12,%rsi
    8a18:	bf 00 00 00 00       	mov    $0x0,%edi
    8a1d:	e8 0c e6 ff ff       	callq  702e <safe_add_func_uint64_t_u_u>
    8a22:	48 8b 85 c8 f4 ff ff 	mov    -0xb38(%rbp),%rax
    8a29:	48 c7 00 03 00 00 00 	movq   $0x3,(%rax)
    8a30:	48 8b 85 c8 f4 ff ff 	mov    -0xb38(%rbp),%rax
    8a37:	48 8b 00             	mov    (%rax),%rax
    8a3a:	83 c8 fe             	or     $0xfffffffe,%eax
    8a3d:	98                   	cwtl   
    8a3e:	be ff ff ff ff       	mov    $0xffffffff,%esi
    8a43:	89 c7                	mov    %eax,%edi
    8a45:	e8 cc d9 ff ff       	callq  6416 <safe_mod_func_int16_t_s_s>
    8a4a:	44 0f bf e0          	movswl %ax,%r12d
    8a4e:	8b 85 30 f3 ff ff    	mov    -0xcd0(%rbp),%eax
    8a54:	0f b7 c0             	movzwl %ax,%eax
    8a57:	89 c6                	mov    %eax,%esi
    8a59:	bf 07 00 00 00       	mov    $0x7,%edi
    8a5e:	e8 da e2 ff ff       	callq  6d3d <safe_mul_func_uint16_t_u_u>
    8a63:	66 85 c0             	test   %ax,%ax
    8a66:	74 1c                	je     8a84 <func_1+0x12cf>
    8a68:	48 8b 05 01 a7 01 00 	mov    0x1a701(%rip),%rax        # 23170 <g_608>
    8a6f:	48 8b 00             	mov    (%rax),%rax
    8a72:	48 8b 00             	mov    (%rax),%rax
    8a75:	48 8b 00             	mov    (%rax),%rax
    8a78:	48 85 c0             	test   %rax,%rax
    8a7b:	74 07                	je     8a84 <func_1+0x12cf>
    8a7d:	b8 01 00 00 00       	mov    $0x1,%eax
    8a82:	eb 05                	jmp    8a89 <func_1+0x12d4>
    8a84:	b8 00 00 00 00       	mov    $0x0,%eax
    8a89:	44 89 e6             	mov    %r12d,%esi
    8a8c:	89 c7                	mov    %eax,%edi
    8a8e:	e8 39 dc ff ff       	callq  66cc <safe_mod_func_int32_t_s_s>
    8a93:	8b 85 30 f3 ff ff    	mov    -0xcd0(%rbp),%eax
    8a99:	48 98                	cltq   
    8a9b:	48 39 85 00 f5 ff ff 	cmp    %rax,-0xb00(%rbp)
    8aa2:	0f 9d c0             	setge  %al
    8aa5:	0f b6 c0             	movzbl %al,%eax
    8aa8:	89 de                	mov    %ebx,%esi
    8aaa:	89 c7                	mov    %eax,%edi
    8aac:	e8 22 d9 ff ff       	callq  63d3 <safe_sub_func_int16_t_s_s>
    8ab1:	48 0f bf 95 de f2 ff 	movswq -0xd22(%rbp),%rdx
    8ab8:	ff 
    8ab9:	48 8d 05 80 78 01 00 	lea    0x17880(%rip),%rax        # 20340 <g_1687>
    8ac0:	48 8b 00             	mov    (%rax),%rax
    8ac3:	48 39 c2             	cmp    %rax,%rdx
    8ac6:	72 07                	jb     8acf <func_1+0x131a>
    8ac8:	b8 01 00 00 00       	mov    $0x1,%eax
    8acd:	eb 05                	jmp    8ad4 <func_1+0x131f>
    8acf:	b8 00 00 00 00       	mov    $0x0,%eax
    8ad4:	84 c0                	test   %al,%al
    8ad6:	74 14                	je     8aec <func_1+0x1337>
    8ad8:	48 8b 85 f0 f3 ff ff 	mov    -0xc10(%rbp),%rax
    8adf:	8b 00                	mov    (%rax),%eax
    8ae1:	85 c0                	test   %eax,%eax
    8ae3:	74 07                	je     8aec <func_1+0x1337>
    8ae5:	ba 01 00 00 00       	mov    $0x1,%edx
    8aea:	eb 05                	jmp    8af1 <func_1+0x133c>
    8aec:	ba 00 00 00 00       	mov    $0x0,%edx
    8af1:	48 8b 05 c8 a0 01 00 	mov    0x1a0c8(%rip),%rax        # 22bc0 <g_167>
    8af8:	89 10                	mov    %edx,(%rax)
    8afa:	8b 00                	mov    (%rax),%eax
    8afc:	85 c0                	test   %eax,%eax
    8afe:	0f 84 40 02 00 00    	je     8d44 <func_1+0x158f>
    8b04:	48 c7 85 28 f5 ff ff 	movq   $0x0,-0xad8(%rbp)
    8b0b:	00 00 00 00 
    8b0f:	c7 85 64 f3 ff ff ff 	movl   $0xffffffff,-0xc9c(%rbp)
    8b16:	ff ff ff 
    8b19:	48 8b 05 d0 a9 01 00 	mov    0x1a9d0(%rip),%rax        # 234f0 <g_1685>
    8b20:	48 8b 00             	mov    (%rax),%rax
    8b23:	48 8b 08             	mov    (%rax),%rcx
    8b26:	48 0f bf 95 de f2 ff 	movswq -0xd22(%rbp),%rdx
    8b2d:	ff 
    8b2e:	48 8b 05 bb a9 01 00 	mov    0x1a9bb(%rip),%rax        # 234f0 <g_1685>
    8b35:	48 8b 00             	mov    (%rax),%rax
    8b38:	48 31 ca             	xor    %rcx,%rdx
    8b3b:	48 89 10             	mov    %rdx,(%rax)
    8b3e:	48 83 bd e0 f4 ff ff 	cmpq   $0x0,-0xb20(%rbp)
    8b45:	00 
    8b46:	0f 95 c0             	setne  %al
    8b49:	0f b6 d8             	movzbl %al,%ebx
    8b4c:	48 8b 05 1d a6 01 00 	mov    0x1a61d(%rip),%rax        # 23170 <g_608>
    8b53:	48 8b 00             	mov    (%rax),%rax
    8b56:	48 39 85 28 f5 ff ff 	cmp    %rax,-0xad8(%rbp)
    8b5d:	0f 94 c0             	sete   %al
    8b60:	0f b6 c0             	movzbl %al,%eax
    8b63:	be 01 00 00 00       	mov    $0x1,%esi
    8b68:	89 c7                	mov    %eax,%edi
    8b6a:	e8 ce e1 ff ff       	callq  6d3d <safe_mul_func_uint16_t_u_u>
    8b6f:	0f b7 c0             	movzwl %ax,%eax
    8b72:	09 d8                	or     %ebx,%eax
    8b74:	3d 48 8d 32 07       	cmp    $0x7328d48,%eax
    8b79:	b8 01 00 00 00       	mov    $0x1,%eax
    8b7e:	21 85 60 f3 ff ff    	and    %eax,-0xca0(%rbp)
    8b84:	48 8b 05 d5 a8 01 00 	mov    0x1a8d5(%rip),%rax        # 23460 <g_753>
    8b8b:	8b 95 60 f3 ff ff    	mov    -0xca0(%rbp),%edx
    8b91:	89 10                	mov    %edx,(%rax)
    8b93:	8b 10                	mov    (%rax),%edx
    8b95:	48 8b 85 f8 f3 ff ff 	mov    -0xc08(%rbp),%rax
    8b9c:	89 10                	mov    %edx,(%rax)
    8b9e:	83 bd 64 f3 ff ff 00 	cmpl   $0x0,-0xc9c(%rbp)
    8ba5:	0f 85 08 16 00 00    	jne    a1b3 <func_1+0x29fe>
    8bab:	0f b7 05 48 4d 01 00 	movzwl 0x14d48(%rip),%eax        # 1d8fa <g_682+0xa>
    8bb2:	66 25 ff 03          	and    $0x3ff,%ax
    8bb6:	0f b7 d8             	movzwl %ax,%ebx
    8bb9:	83 bd 64 f3 ff ff 00 	cmpl   $0x0,-0xc9c(%rbp)
    8bc0:	74 6f                	je     8c31 <func_1+0x147c>
    8bc2:	8b 05 5c 34 01 00    	mov    0x1345c(%rip),%eax        # 1c024 <g_5>
    8bc8:	44 0f be e0          	movsbl %al,%r12d
    8bcc:	8b 85 04 f3 ff ff    	mov    -0xcfc(%rbp),%eax
    8bd2:	48 8b 95 f0 f3 ff ff 	mov    -0xc10(%rbp),%rdx
    8bd9:	c7 02 35 e0 00 00    	movl   $0xe035,(%rdx)
    8bdf:	48 8b 15 ba ab 01 00 	mov    0x1abba(%rip),%rdx        # 237a0 <g_2195>
    8be6:	89 c6                	mov    %eax,%esi
    8be8:	bf 33 47 c6 98       	mov    $0x98c64733,%edi
    8bed:	e8 0d db ff ff       	callq  66ff <safe_div_func_int32_t_s_s>
    8bf2:	0f be c0             	movsbl %al,%eax
    8bf5:	44 89 e6             	mov    %r12d,%esi
    8bf8:	89 c7                	mov    %eax,%edi
    8bfa:	e8 13 d6 ff ff       	callq  6212 <safe_mul_func_int8_t_s_s>
    8bff:	be 00 00 00 00       	mov    $0x0,%esi
    8c04:	bf 02 00 00 00       	mov    $0x2,%edi
    8c09:	e8 e0 d6 ff ff       	callq  62ee <safe_lshift_func_int8_t_s_u>
    8c0e:	66 98                	cbtw   
    8c10:	0f b7 c0             	movzwl %ax,%eax
    8c13:	be 0c 00 00 00       	mov    $0xc,%esi
    8c18:	89 c7                	mov    %eax,%edi
    8c1a:	e8 29 e2 ff ff       	callq  6e48 <safe_rshift_func_uint16_t_u_s>
    8c1f:	66 85 c0             	test   %ax,%ax
    8c22:	75 0c                	jne    8c30 <func_1+0x147b>
    8c24:	48 8b 05 25 a8 01 00 	mov    0x1a825(%rip),%rax        # 23450 <g_747>
    8c2b:	0f b6 00             	movzbl (%rax),%eax
    8c2e:	84 c0                	test   %al,%al
    8c30:	90                   	nop
    8c31:	48 8b 15 98 a8 01 00 	mov    0x1a898(%rip),%rdx        # 234d0 <g_1456>
    8c38:	48 8b 05 91 a8 01 00 	mov    0x1a891(%rip),%rax        # 234d0 <g_1456>
    8c3f:	48 8b 12             	mov    (%rdx),%rdx
    8c42:	48 89 10             	mov    %rdx,(%rax)
    8c45:	8b 85 04 f3 ff ff    	mov    -0xcfc(%rbp),%eax
    8c4b:	83 f0 01             	xor    $0x1,%eax
    8c4e:	89 c2                	mov    %eax,%edx
    8c50:	8b 85 5c f3 ff ff    	mov    -0xca4(%rbp),%eax
    8c56:	39 c2                	cmp    %eax,%edx
    8c58:	0f 97 c0             	seta   %al
    8c5b:	0f b6 c0             	movzbl %al,%eax
    8c5e:	89 de                	mov    %ebx,%esi
    8c60:	89 c7                	mov    %eax,%edi
    8c62:	e8 b8 e0 ff ff       	callq  6d1f <safe_sub_func_uint16_t_u_u>
    8c67:	66 3d 45 5d          	cmp    $0x5d45,%ax
    8c6b:	0f 96 c0             	setbe  %al
    8c6e:	0f b6 d0             	movzbl %al,%edx
    8c71:	0f b7 05 36 74 01 00 	movzwl 0x17436(%rip),%eax        # 200ae <g_1664+0x1ae>
    8c78:	66 c1 e8 06          	shr    $0x6,%ax
    8c7c:	83 e0 07             	and    $0x7,%eax
    8c7f:	0f b6 c0             	movzbl %al,%eax
    8c82:	39 c2                	cmp    %eax,%edx
    8c84:	0f 9f c0             	setg   %al
    8c87:	0f b6 c0             	movzbl %al,%eax
    8c8a:	48 8b 15 35 4b 01 00 	mov    0x14b35(%rip),%rdx        # 1d7c6 <g_485+0x6>
    8c91:	48 98                	cltq   
    8c93:	48 09 d0             	or     %rdx,%rax
    8c96:	48 89 05 29 4b 01 00 	mov    %rax,0x14b29(%rip)        # 1d7c6 <g_485+0x6>
    8c9d:	48 8b 15 22 4b 01 00 	mov    0x14b22(%rip),%rdx        # 1d7c6 <g_485+0x6>
    8ca4:	48 8b 85 c8 f4 ff ff 	mov    -0xb38(%rbp),%rax
    8cab:	48 89 10             	mov    %rdx,(%rax)
    8cae:	48 8b 85 c8 f4 ff ff 	mov    -0xb38(%rbp),%rax
    8cb5:	48 8b 00             	mov    (%rax),%rax
    8cb8:	48 85 c0             	test   %rax,%rax
    8cbb:	75 0a                	jne    8cc7 <func_1+0x1512>
    8cbd:	8b 85 bc f5 ff ff    	mov    -0xa44(%rbp),%eax
    8cc3:	85 c0                	test   %eax,%eax
    8cc5:	74 07                	je     8cce <func_1+0x1519>
    8cc7:	b9 01 00 00 00       	mov    $0x1,%ecx
    8ccc:	eb 05                	jmp    8cd3 <func_1+0x151e>
    8cce:	b9 00 00 00 00       	mov    $0x0,%ecx
    8cd3:	48 8b 95 48 f6 ff ff 	mov    -0x9b8(%rbp),%rdx
    8cda:	48 8d 05 3f a2 01 00 	lea    0x1a23f(%rip),%rax        # 22f20 <g_444>
    8ce1:	48 89 85 30 f8 ff ff 	mov    %rax,-0x7d0(%rbp)
    8ce8:	48 8b 85 30 f8 ff ff 	mov    -0x7d0(%rbp),%rax
    8cef:	48 39 c2             	cmp    %rax,%rdx
    8cf2:	0f 94 c0             	sete   %al
    8cf5:	0f b6 c0             	movzbl %al,%eax
    8cf8:	89 ce                	mov    %ecx,%esi
    8cfa:	89 c7                	mov    %eax,%edi
    8cfc:	e8 bd e0 ff ff       	callq  6dbe <safe_lshift_func_uint16_t_u_s>
    8d01:	0f b7 c0             	movzwl %ax,%eax
    8d04:	21 85 ec f2 ff ff    	and    %eax,-0xd14(%rbp)
    8d0a:	48 8b 05 f7 a1 01 00 	mov    0x1a1f7(%rip),%rax        # 22f08 <g_380>
    8d11:	48 8b 00             	mov    (%rax),%rax
    8d14:	8b 10                	mov    (%rax),%edx
    8d16:	83 e2 05             	and    $0x5,%edx
    8d19:	89 10                	mov    %edx,(%rax)
    8d1b:	48 8b 15 8e 9e 01 00 	mov    0x19e8e(%rip),%rdx        # 22bb0 <g_145>
    8d22:	48 8b 85 20 f5 ff ff 	mov    -0xae0(%rbp),%rax
    8d29:	48 8b 0a             	mov    (%rdx),%rcx
    8d2c:	48 89 08             	mov    %rcx,(%rax)
    8d2f:	8b 52 08             	mov    0x8(%rdx),%edx
    8d32:	89 50 08             	mov    %edx,0x8(%rax)
    8d35:	c7 05 09 38 01 00 f2 	movl   $0xfffffff2,0x13809(%rip)        # 1c548 <g_374>
    8d3c:	ff ff ff 
    8d3f:	e9 6b 06 00 00       	jmpq   93af <func_1+0x1bfa>
    8d44:	48 8b 05 ed a5 01 00 	mov    0x1a5ed(%rip),%rax        # 23338 <g_706>
    8d4b:	48 8b 30             	mov    (%rax),%rsi
    8d4e:	48 8b 8d b8 f2 ff ff 	mov    -0xd48(%rbp),%rcx
    8d55:	48 8b 06             	mov    (%rsi),%rax
    8d58:	48 8b 56 08          	mov    0x8(%rsi),%rdx
    8d5c:	48 89 01             	mov    %rax,(%rcx)
    8d5f:	48 89 51 08          	mov    %rdx,0x8(%rcx)
    8d63:	0f b7 46 10          	movzwl 0x10(%rsi),%eax
    8d67:	66 89 41 10          	mov    %ax,0x10(%rcx)
    8d6b:	e9 89 14 00 00       	jmpq   a1f9 <func_1+0x2a44>
    8d70:	48 8d 85 20 f8 ff ff 	lea    -0x7e0(%rbp),%rax
    8d77:	48 8d 15 e2 95 01 00 	lea    0x195e2(%rip),%rdx        # 22360 <g_2520+0x40>
    8d7e:	b9 f3 00 00 00       	mov    $0xf3,%ecx
    8d83:	48 89 c7             	mov    %rax,%rdi
    8d86:	48 89 d6             	mov    %rdx,%rsi
    8d89:	f3 48 a5             	rep movsq %ds:(%rsi),%es:(%rdi)
    8d8c:	48 8d 85 20 f8 ff ff 	lea    -0x7e0(%rbp),%rax
    8d93:	48 05 80 04 00 00    	add    $0x480,%rax
    8d99:	48 89 85 f8 f4 ff ff 	mov    %rax,-0xb08(%rbp)
    8da0:	48 83 bd 48 f4 ff ff 	cmpq   $0x0,-0xbb8(%rbp)
    8da7:	00 
    8da8:	0f 85 dc 00 00 00    	jne    8e8a <func_1+0x16d5>
    8dae:	48 8b 85 f0 f3 ff ff 	mov    -0xc10(%rbp),%rax
    8db5:	8b 00                	mov    (%rax),%eax
    8db7:	0f b7 d8             	movzwl %ax,%ebx
    8dba:	48 8b 05 af a3 01 00 	mov    0x1a3af(%rip),%rax        # 23170 <g_608>
    8dc1:	48 8b 85 f0 f3 ff ff 	mov    -0xc10(%rbp),%rax
    8dc8:	8b 00                	mov    (%rax),%eax
    8dca:	41 89 c4             	mov    %eax,%r12d
    8dcd:	48 8b 85 f8 f4 ff ff 	mov    -0xb08(%rbp),%rax
    8dd4:	48 8d 15 67 32 01 00 	lea    0x13267(%rip),%rdx        # 1c042 <g_102>
    8ddb:	48 89 10             	mov    %rdx,(%rax)
    8dde:	0f b7 05 11 5b 01 00 	movzwl 0x15b11(%rip),%eax        # 1e8f6 <g_1384+0x16>
    8de5:	66 25 ff 03          	and    $0x3ff,%ax
    8de9:	0f be d0             	movsbl %al,%edx
    8dec:	0f b7 05 4d 94 01 00 	movzwl 0x1944d(%rip),%eax        # 22240 <g_2280+0x10>
    8df3:	66 c1 e8 06          	shr    $0x6,%ax
    8df7:	83 e0 07             	and    $0x7,%eax
    8dfa:	0f b6 c0             	movzbl %al,%eax
    8dfd:	89 d6                	mov    %edx,%esi
    8dff:	89 c7                	mov    %eax,%edi
    8e01:	e8 2b d4 ff ff       	callq  6231 <safe_mod_func_int8_t_s_s>
    8e06:	0f be d0             	movsbl %al,%edx
    8e09:	48 8b 85 08 f4 ff ff 	mov    -0xbf8(%rbp),%rax
    8e10:	8b 00                	mov    (%rax),%eax
    8e12:	39 c2                	cmp    %eax,%edx
    8e14:	0f 9d c0             	setge  %al
    8e17:	0f b6 c0             	movzbl %al,%eax
    8e1a:	be 34 00 00 00       	mov    $0x34,%esi
    8e1f:	89 c7                	mov    %eax,%edi
    8e21:	e8 ae d3 ff ff       	callq  61d4 <safe_add_func_int8_t_s_s>
    8e26:	0f b7 05 c7 5a 01 00 	movzwl 0x15ac7(%rip),%eax        # 1e8f4 <g_1384+0x14>
    8e2d:	0f b7 d0             	movzwl %ax,%edx
    8e30:	48 8b 85 f0 f3 ff ff 	mov    -0xc10(%rbp),%rax
    8e37:	8b 00                	mov    (%rax),%eax
    8e39:	09 d0                	or     %edx,%eax
    8e3b:	89 05 13 94 01 00    	mov    %eax,0x19413(%rip)        # 22254 <g_2369>
    8e41:	be 01 00 00 00       	mov    $0x1,%esi
    8e46:	bf 00 00 00 00       	mov    $0x0,%edi
    8e4b:	e8 7c d8 ff ff       	callq  66cc <safe_mod_func_int32_t_s_s>
    8e50:	85 c0                	test   %eax,%eax
    8e52:	0f 94 c0             	sete   %al
    8e55:	0f b6 c0             	movzbl %al,%eax
    8e58:	44 89 e6             	mov    %r12d,%esi
    8e5b:	89 c7                	mov    %eax,%edi
    8e5d:	e8 c3 e0 ff ff       	callq  6f25 <safe_div_func_uint32_t_u_u>
    8e62:	48 8b 85 08 f4 ff ff 	mov    -0xbf8(%rbp),%rax
    8e69:	8b 00                	mov    (%rax),%eax
    8e6b:	0f b7 c0             	movzwl %ax,%eax
    8e6e:	89 de                	mov    %ebx,%esi
    8e70:	89 c7                	mov    %eax,%edi
    8e72:	e8 88 de ff ff       	callq  6cff <safe_add_func_uint16_t_u_u>
    8e77:	0f b7 d0             	movzwl %ax,%edx
    8e7a:	48 8b 05 7f a0 01 00 	mov    0x1a07f(%rip),%rax        # 22f00 <g_371>
    8e81:	48 8b 00             	mov    (%rax),%rax
    8e84:	8b 00                	mov    (%rax),%eax
    8e86:	39 c2                	cmp    %eax,%edx
    8e88:	74 07                	je     8e91 <func_1+0x16dc>
    8e8a:	ba 01 00 00 00       	mov    $0x1,%edx
    8e8f:	eb 05                	jmp    8e96 <func_1+0x16e1>
    8e91:	ba 00 00 00 00       	mov    $0x0,%edx
    8e96:	48 8b 85 f8 f3 ff ff 	mov    -0xc08(%rbp),%rax
    8e9d:	8b 00                	mov    (%rax),%eax
    8e9f:	31 c2                	xor    %eax,%edx
    8ea1:	48 8b 85 f8 f3 ff ff 	mov    -0xc08(%rbp),%rax
    8ea8:	89 10                	mov    %edx,(%rax)
    8eaa:	48 8b 85 f8 f3 ff ff 	mov    -0xc08(%rbp),%rax
    8eb1:	8b 00                	mov    (%rax),%eax
    8eb3:	85 c0                	test   %eax,%eax
    8eb5:	74 56                	je     8f0d <func_1+0x1758>
    8eb7:	c6 85 d1 f2 ff ff ff 	movb   $0xff,-0xd2f(%rbp)
    8ebe:	48 8b 05 1b a0 01 00 	mov    0x1a01b(%rip),%rax        # 22ee0 <g_303>
    8ec5:	8b 10                	mov    (%rax),%edx
    8ec7:	0f b6 85 d1 f2 ff ff 	movzbl -0xd2f(%rbp),%eax
    8ece:	48 8b 1d 33 a0 01 00 	mov    0x1a033(%rip),%rbx        # 22f08 <g_380>
    8ed5:	89 d6                	mov    %edx,%esi
    8ed7:	89 c7                	mov    %eax,%edi
    8ed9:	e8 ef 3a 00 00       	callq  c9cd <func_60>
    8ede:	48 89 03             	mov    %rax,(%rbx)
    8ee1:	48 8b 05 60 a5 01 00 	mov    0x1a560(%rip),%rax        # 23448 <g_740>
    8ee8:	48 8b 30             	mov    (%rax),%rsi
    8eeb:	48 8b 8d b8 f2 ff ff 	mov    -0xd48(%rbp),%rcx
    8ef2:	48 8b 06             	mov    (%rsi),%rax
    8ef5:	48 8b 56 08          	mov    0x8(%rsi),%rdx
    8ef9:	48 89 01             	mov    %rax,(%rcx)
    8efc:	48 89 51 08          	mov    %rdx,0x8(%rcx)
    8f00:	0f b7 46 10          	movzwl 0x10(%rsi),%eax
    8f04:	66 89 41 10          	mov    %ax,0x10(%rcx)
    8f08:	e9 ec 12 00 00       	jmpq   a1f9 <func_1+0x2a44>
    8f0d:	48 8b 05 c4 a5 01 00 	mov    0x1a5c4(%rip),%rax        # 234d8 <g_1455>
    8f14:	48 8b 00             	mov    (%rax),%rax
    8f17:	48 8b 00             	mov    (%rax),%rax
    8f1a:	48 8b 00             	mov    (%rax),%rax
    8f1d:	48 8b 30             	mov    (%rax),%rsi
    8f20:	48 8b 8d b8 f2 ff ff 	mov    -0xd48(%rbp),%rcx
    8f27:	48 8b 06             	mov    (%rsi),%rax
    8f2a:	48 8b 56 08          	mov    0x8(%rsi),%rdx
    8f2e:	48 89 01             	mov    %rax,(%rcx)
    8f31:	48 89 51 08          	mov    %rdx,0x8(%rcx)
    8f35:	0f b7 46 10          	movzwl 0x10(%rsi),%eax
    8f39:	66 89 41 10          	mov    %ax,0x10(%rcx)
    8f3d:	e9 b7 12 00 00       	jmpq   a1f9 <func_1+0x2a44>
    8f42:	66 c7 85 e6 f2 ff ff 	movw   $0xffff,-0xd1a(%rbp)
    8f49:	ff ff 
    8f4b:	c7 85 68 f3 ff ff af 	movl   $0xe1961daf,-0xc98(%rbp)
    8f52:	1d 96 e1 
    8f55:	c7 85 6c f3 ff ff 02 	movl   $0x2,-0xc94(%rbp)
    8f5c:	00 00 00 
    8f5f:	48 8d 05 da ab 01 00 	lea    0x1abda(%rip),%rax        # 23b40 <g_2398+0x380>
    8f66:	48 89 85 30 f5 ff ff 	mov    %rax,-0xad0(%rbp)
    8f6d:	48 8d 85 20 f8 ff ff 	lea    -0x7e0(%rbp),%rax
    8f74:	48 8d 15 a5 e1 00 00 	lea    0xe1a5(%rip),%rdx        # 17120 <g_2382+0x20>
    8f7b:	b9 38 00 00 00       	mov    $0x38,%ecx
    8f80:	48 89 c7             	mov    %rax,%rdi
    8f83:	48 89 d6             	mov    %rdx,%rsi
    8f86:	f3 48 a5             	rep movsq %ds:(%rsi),%es:(%rdi)
    8f89:	48 8d 05 68 9f 01 00 	lea    0x19f68(%rip),%rax        # 22ef8 <g_372+0x8>
    8f90:	48 89 85 38 f5 ff ff 	mov    %rax,-0xac8(%rbp)
    8f97:	48 8d 05 c2 a1 01 00 	lea    0x1a1c2(%rip),%rax        # 23160 <g_609>
    8f9e:	48 89 85 40 f5 ff ff 	mov    %rax,-0xac0(%rbp)
    8fa5:	48 8d 05 48 58 01 00 	lea    0x15848(%rip),%rax        # 1e7f4 <g_1235>
    8fac:	48 89 85 48 f5 ff ff 	mov    %rax,-0xab8(%rbp)
    8fb3:	83 ad 10 f3 ff ff 01 	subl   $0x1,-0xcf0(%rbp)
    8fba:	48 c7 05 a1 4f 01 00 	movq   $0x0,0x14fa1(%rip)        # 1df66 <g_693+0x6>
    8fc1:	00 00 00 00 
    8fc5:	e9 84 01 00 00       	jmpq   914e <func_1+0x1999>
    8fca:	48 8d 05 6f 58 01 00 	lea    0x1586f(%rip),%rax        # 1e840 <g_1242+0x8>
    8fd1:	48 89 85 58 f5 ff ff 	mov    %rax,-0xaa8(%rbp)
    8fd8:	c7 85 78 f3 ff ff ff 	movl   $0xffffffff,-0xc88(%rbp)
    8fdf:	ff ff ff 
    8fe2:	c7 85 18 f3 ff ff 00 	movl   $0x0,-0xce8(%rbp)
    8fe9:	00 00 00 
    8fec:	eb 1a                	jmp    9008 <func_1+0x1853>
    8fee:	8b 85 18 f3 ff ff    	mov    -0xce8(%rbp),%eax
    8ff4:	48 98                	cltq   
    8ff6:	c7 84 85 40 f6 ff ff 	movl   $0xfffffff7,-0x9c0(%rbp,%rax,4)
    8ffd:	f7 ff ff ff 
    9001:	83 85 18 f3 ff ff 01 	addl   $0x1,-0xce8(%rbp)
    9008:	83 bd 18 f3 ff ff 00 	cmpl   $0x0,-0xce8(%rbp)
    900f:	7e dd                	jle    8fee <func_1+0x1839>
    9011:	48 8b 85 48 f4 ff ff 	mov    -0xbb8(%rbp),%rax
    9018:	41 89 c4             	mov    %eax,%r12d
    901b:	0f b7 85 d6 f8 ff ff 	movzwl -0x72a(%rbp),%eax
    9022:	0f bf d8             	movswl %ax,%ebx
    9025:	48 8b 05 14 af 01 00 	mov    0x1af14(%rip),%rax        # 23f40 <g_2397>
    902c:	48 89 85 30 f5 ff ff 	mov    %rax,-0xad0(%rbp)
    9033:	0f b7 85 de f2 ff ff 	movzwl -0xd22(%rbp),%eax
    903a:	83 f0 2d             	xor    $0x2d,%eax
    903d:	48 0f bf c0          	movswq %ax,%rax
    9041:	48 f7 d0             	not    %rax
    9044:	48 89 c2             	mov    %rax,%rdx
    9047:	8b 85 ec f2 ff ff    	mov    -0xd14(%rbp),%eax
    904d:	48 98                	cltq   
    904f:	48 39 c2             	cmp    %rax,%rdx
    9052:	0f 9c c0             	setl   %al
    9055:	0f b6 d0             	movzbl %al,%edx
    9058:	8b 85 68 f3 ff ff    	mov    -0xc98(%rbp),%eax
    905e:	48 98                	cltq   
    9060:	48 89 d6             	mov    %rdx,%rsi
    9063:	48 89 c7             	mov    %rax,%rdi
    9066:	e8 d6 d7 ff ff       	callq  6841 <safe_add_func_int64_t_s_s>
    906b:	35 b5 6a 0e 82       	xor    $0x820e6ab5,%eax
    9070:	89 de                	mov    %ebx,%esi
    9072:	89 c7                	mov    %eax,%edi
    9074:	e8 86 d6 ff ff       	callq  66ff <safe_div_func_int32_t_s_s>
    9079:	89 c2                	mov    %eax,%edx
    907b:	48 8b 85 f0 f3 ff ff 	mov    -0xc10(%rbp),%rax
    9082:	8b 00                	mov    (%rax),%eax
    9084:	09 d0                	or     %edx,%eax
    9086:	89 c2                	mov    %eax,%edx
    9088:	48 8b 85 58 f5 ff ff 	mov    -0xaa8(%rbp),%rax
    908f:	66 89 10             	mov    %dx,(%rax)
    9092:	0f b7 85 e6 f2 ff ff 	movzwl -0xd1a(%rbp),%eax
    9099:	0f b7 c0             	movzwl %ax,%eax
    909c:	be 0a 00 00 00       	mov    $0xa,%esi
    90a1:	89 c7                	mov    %eax,%edi
    90a3:	e8 5e dd ff ff       	callq  6e06 <safe_lshift_func_uint16_t_u_u>
    90a8:	0f b7 d0             	movzwl %ax,%edx
    90ab:	48 8b 85 f0 f3 ff ff 	mov    -0xc10(%rbp),%rax
    90b2:	8b 00                	mov    (%rax),%eax
    90b4:	39 c2                	cmp    %eax,%edx
    90b6:	0f 9c c0             	setl   %al
    90b9:	0f b6 c0             	movzbl %al,%eax
    90bc:	be ff ff ff ff       	mov    $0xffffffff,%esi
    90c1:	89 c7                	mov    %eax,%edi
    90c3:	e8 4a d1 ff ff       	callq  6212 <safe_mul_func_int8_t_s_s>
    90c8:	84 c0                	test   %al,%al
    90ca:	0f 95 c0             	setne  %al
    90cd:	0f b6 d0             	movzbl %al,%edx
    90d0:	48 8b 05 a1 a0 01 00 	mov    0x1a0a1(%rip),%rax        # 23178 <g_625>
    90d7:	8b 00                	mov    (%rax),%eax
    90d9:	39 c2                	cmp    %eax,%edx
    90db:	0f 94 c0             	sete   %al
    90de:	0f b6 c0             	movzbl %al,%eax
    90e1:	44 89 e6             	mov    %r12d,%esi
    90e4:	89 c7                	mov    %eax,%edi
    90e6:	e8 1a db ff ff       	callq  6c05 <safe_lshift_func_uint8_t_u_s>
    90eb:	48 8b 05 66 a3 01 00 	mov    0x1a366(%rip),%rax        # 23458 <g_746>
    90f2:	48 8b 00             	mov    (%rax),%rax
    90f5:	0f b6 00             	movzbl (%rax),%eax
    90f8:	3c de                	cmp    $0xde,%al
    90fa:	75 0a                	jne    9106 <func_1+0x1951>
    90fc:	8b 85 40 f6 ff ff    	mov    -0x9c0(%rbp),%eax
    9102:	85 c0                	test   %eax,%eax
    9104:	74 07                	je     910d <func_1+0x1958>
    9106:	b8 01 00 00 00       	mov    $0x1,%eax
    910b:	eb 05                	jmp    9112 <func_1+0x195d>
    910d:	b8 00 00 00 00       	mov    $0x0,%eax
    9112:	0f b7 c0             	movzwl %ax,%eax
    9115:	89 c6                	mov    %eax,%esi
    9117:	bf 73 0f 00 00       	mov    $0xf73,%edi
    911c:	e8 3b dc ff ff       	callq  6d5c <safe_mod_func_uint16_t_u_u>
    9121:	0f b7 d0             	movzwl %ax,%edx
    9124:	48 8b 85 f0 f3 ff ff 	mov    -0xc10(%rbp),%rax
    912b:	89 10                	mov    %edx,(%rax)
    912d:	48 8b 85 f0 f3 ff ff 	mov    -0xc10(%rbp),%rax
    9134:	8b 00                	mov    (%rax),%eax
    9136:	31 85 78 f3 ff ff    	xor    %eax,-0xc88(%rbp)
    913c:	48 8b 05 23 4e 01 00 	mov    0x14e23(%rip),%rax        # 1df66 <g_693+0x6>
    9143:	48 83 c0 01          	add    $0x1,%rax
    9147:	48 89 05 18 4e 01 00 	mov    %rax,0x14e18(%rip)        # 1df66 <g_693+0x6>
    914e:	48 8b 05 11 4e 01 00 	mov    0x14e11(%rip),%rax        # 1df66 <g_693+0x6>
    9155:	48 83 f8 08          	cmp    $0x8,%rax
    9159:	0f 8e 6b fe ff ff    	jle    8fca <func_1+0x1815>
    915f:	b8 01 00 00 00       	mov    $0x1,%eax
    9164:	0f b6 d8             	movzbl %al,%ebx
    9167:	48 8b 05 ea a2 01 00 	mov    0x1a2ea(%rip),%rax        # 23458 <g_746>
    916e:	48 8b 00             	mov    (%rax),%rax
    9171:	0f b6 00             	movzbl (%rax),%eax
    9174:	44 0f b6 e0          	movzbl %al,%r12d
    9178:	48 8b 85 f0 f3 ff ff 	mov    -0xc10(%rbp),%rax
    917f:	8b 00                	mov    (%rax),%eax
    9181:	85 c0                	test   %eax,%eax
    9183:	74 29                	je     91ae <func_1+0x19f9>
    9185:	48 8b 85 f0 f3 ff ff 	mov    -0xc10(%rbp),%rax
    918c:	8b 00                	mov    (%rax),%eax
    918e:	0f b6 d0             	movzbl %al,%edx
    9191:	48 8b 05 10 ae 01 00 	mov    0x1ae10(%rip),%rax        # 23fa8 <g_2407>
    9198:	48 85 c0             	test   %rax,%rax
    919b:	0f 94 c0             	sete   %al
    919e:	0f b6 c0             	movzbl %al,%eax
    91a1:	89 d6                	mov    %edx,%esi
    91a3:	89 c7                	mov    %eax,%edi
    91a5:	e8 e9 d9 ff ff       	callq  6b93 <safe_mul_func_uint8_t_u_u>
    91aa:	84 c0                	test   %al,%al
    91ac:	74 08                	je     91b6 <func_1+0x1a01>
    91ae:	41 bd 01 00 00 00    	mov    $0x1,%r13d
    91b4:	eb 06                	jmp    91bc <func_1+0x1a07>
    91b6:	41 bd 00 00 00 00    	mov    $0x0,%r13d
    91bc:	48 83 bd 38 f5 ff ff 	cmpq   $0x0,-0xac8(%rbp)
    91c3:	00 
    91c4:	0f 94 c0             	sete   %al
    91c7:	0f b6 d0             	movzbl %al,%edx
    91ca:	48 8b 85 08 f4 ff ff 	mov    -0xbf8(%rbp),%rax
    91d1:	8b 00                	mov    (%rax),%eax
    91d3:	98                   	cwtl   
    91d4:	89 d6                	mov    %edx,%esi
    91d6:	89 c7                	mov    %eax,%edi
    91d8:	e8 b5 d2 ff ff       	callq  6492 <safe_lshift_func_int16_t_s_s>
    91dd:	98                   	cwtl   
    91de:	41 39 c5             	cmp    %eax,%r13d
    91e1:	0f 9f c0             	setg   %al
    91e4:	0f b6 c0             	movzbl %al,%eax
    91e7:	41 39 c4             	cmp    %eax,%r12d
    91ea:	0f 9c c2             	setl   %dl
    91ed:	48 8b 85 38 f5 ff ff 	mov    -0xac8(%rbp),%rax
    91f4:	48 8b 00             	mov    (%rax),%rax
    91f7:	48 39 85 68 f4 ff ff 	cmp    %rax,-0xb98(%rbp)
    91fe:	0f 94 c0             	sete   %al
    9201:	09 d0                	or     %edx,%eax
    9203:	0f b6 c8             	movzbl %al,%ecx
    9206:	48 8d 85 90 f2 ff ff 	lea    -0xd70(%rbp),%rax
    920d:	89 da                	mov    %ebx,%edx
    920f:	89 ce                	mov    %ecx,%esi
    9211:	48 89 c7             	mov    %rax,%rdi
    9214:	e8 fb 16 00 00       	callq  a914 <func_35>
    9219:	48 8b 85 90 f2 ff ff 	mov    -0xd70(%rbp),%rax
    9220:	48 8b 95 98 f2 ff ff 	mov    -0xd68(%rbp),%rdx
    9227:	48 89 05 62 90 01 00 	mov    %rax,0x19062(%rip)        # 22290 <g_2414>
    922e:	48 89 15 63 90 01 00 	mov    %rdx,0x19063(%rip)        # 22298 <g_2414+0x8>
    9235:	0f b7 85 a0 f2 ff ff 	movzwl -0xd60(%rbp),%eax
    923c:	66 89 05 5d 90 01 00 	mov    %ax,0x1905d(%rip)        # 222a0 <g_2414+0x10>
    9243:	66 c7 05 f4 55 01 00 	movw   $0x19,0x155f4(%rip)        # 1e840 <g_1242+0x8>
    924a:	19 00 
    924c:	e9 3e 01 00 00       	jmpq   938f <func_1+0x1bda>
    9251:	48 8d 05 ea 2d 01 00 	lea    0x12dea(%rip),%rax        # 1c042 <g_102>
    9258:	48 89 85 50 f5 ff ff 	mov    %rax,-0xab0(%rbp)
    925f:	48 8d 85 b0 f3 ff ff 	lea    -0xc50(%rbp),%rax
    9266:	48 89 85 40 f6 ff ff 	mov    %rax,-0x9c0(%rbp)
    926d:	48 8d 85 b0 f3 ff ff 	lea    -0xc50(%rbp),%rax
    9274:	48 89 85 48 f6 ff ff 	mov    %rax,-0x9b8(%rbp)
    927b:	48 8d 85 b0 f3 ff ff 	lea    -0xc50(%rbp),%rax
    9282:	48 89 85 50 f6 ff ff 	mov    %rax,-0x9b0(%rbp)
    9289:	48 8d 85 b0 f3 ff ff 	lea    -0xc50(%rbp),%rax
    9290:	48 89 85 58 f6 ff ff 	mov    %rax,-0x9a8(%rbp)
    9297:	48 8d 85 b0 f3 ff ff 	lea    -0xc50(%rbp),%rax
    929e:	48 89 85 60 f6 ff ff 	mov    %rax,-0x9a0(%rbp)
    92a5:	48 8d 85 b0 f3 ff ff 	lea    -0xc50(%rbp),%rax
    92ac:	48 89 85 68 f6 ff ff 	mov    %rax,-0x998(%rbp)
    92b3:	c7 85 70 f3 ff ff ff 	movl   $0xffffffff,-0xc90(%rbp)
    92ba:	ff ff ff 
    92bd:	c7 85 74 f3 ff ff 00 	movl   $0x0,-0xc8c(%rbp)
    92c4:	00 00 00 
    92c7:	c7 85 1c f3 ff ff 00 	movl   $0x0,-0xce4(%rbp)
    92ce:	00 00 00 
    92d1:	eb 1e                	jmp    92f1 <func_1+0x1b3c>
    92d3:	8b 85 1c f3 ff ff    	mov    -0xce4(%rbp),%eax
    92d9:	48 98                	cltq   
    92db:	48 8d 15 c4 44 01 00 	lea    0x144c4(%rip),%rdx        # 1d7a6 <g_474+0x6>
    92e2:	48 89 94 c5 f0 f5 ff 	mov    %rdx,-0xa10(%rbp,%rax,8)
    92e9:	ff 
    92ea:	83 85 1c f3 ff ff 01 	addl   $0x1,-0xce4(%rbp)
    92f1:	83 bd 1c f3 ff ff 03 	cmpl   $0x3,-0xce4(%rbp)
    92f8:	7e d9                	jle    92d3 <func_1+0x1b1e>
    92fa:	48 8b 85 b0 f3 ff ff 	mov    -0xc50(%rbp),%rax
    9301:	48 89 85 f8 f6 ff ff 	mov    %rax,-0x908(%rbp)
    9308:	48 8b 85 f8 f6 ff ff 	mov    -0x908(%rbp),%rax
    930f:	48 89 05 9a ac 01 00 	mov    %rax,0x1ac9a(%rip)        # 23fb0 <g_2428>
    9316:	48 8b 05 93 ac 01 00 	mov    0x1ac93(%rip),%rax        # 23fb0 <g_2428>
    931d:	48 39 85 40 f5 ff ff 	cmp    %rax,-0xac0(%rbp)
    9324:	0f 95 c0             	setne  %al
    9327:	0f b6 c0             	movzbl %al,%eax
    932a:	be f6 ff ff ff       	mov    $0xfffffff6,%esi
    932f:	89 c7                	mov    %eax,%edi
    9331:	e8 9a db ff ff       	callq  6ed0 <safe_sub_func_uint32_t_u_u>
    9336:	0f b7 d0             	movzwl %ax,%edx
    9339:	48 8b 85 50 f5 ff ff 	mov    -0xab0(%rbp),%rax
    9340:	0f b7 00             	movzwl (%rax),%eax
    9343:	8d 48 ff             	lea    -0x1(%rax),%ecx
    9346:	48 8b 85 50 f5 ff ff 	mov    -0xab0(%rbp),%rax
    934d:	66 89 08             	mov    %cx,(%rax)
    9350:	48 8b 85 50 f5 ff ff 	mov    -0xab0(%rbp),%rax
    9357:	0f b7 00             	movzwl (%rax),%eax
    935a:	0f b7 c0             	movzwl %ax,%eax
    935d:	89 d6                	mov    %edx,%esi
    935f:	89 c7                	mov    %eax,%edi
    9361:	e8 d7 d9 ff ff       	callq  6d3d <safe_mul_func_uint16_t_u_u>
    9366:	0f b7 c0             	movzwl %ax,%eax
    9369:	83 e0 5f             	and    $0x5f,%eax
    936c:	09 85 ec f2 ff ff    	or     %eax,-0xd14(%rbp)
    9372:	0f b7 05 c7 54 01 00 	movzwl 0x154c7(%rip),%eax        # 1e840 <g_1242+0x8>
    9379:	0f b7 c0             	movzwl %ax,%eax
    937c:	be 01 00 00 00       	mov    $0x1,%esi
    9381:	89 c7                	mov    %eax,%edi
    9383:	e8 97 d9 ff ff       	callq  6d1f <safe_sub_func_uint16_t_u_u>
    9388:	66 89 05 b1 54 01 00 	mov    %ax,0x154b1(%rip)        # 1e840 <g_1242+0x8>
    938f:	0f b7 05 aa 54 01 00 	movzwl 0x154aa(%rip),%eax        # 1e840 <g_1242+0x8>
    9396:	66 83 f8 08          	cmp    $0x8,%ax
    939a:	0f 86 b1 fe ff ff    	jbe    9251 <func_1+0x1a9c>
    93a0:	8b 05 a2 31 01 00    	mov    0x131a2(%rip),%eax        # 1c548 <g_374>
    93a6:	83 e8 01             	sub    $0x1,%eax
    93a9:	89 05 99 31 01 00    	mov    %eax,0x13199(%rip)        # 1c548 <g_374>
    93af:	8b 05 93 31 01 00    	mov    0x13193(%rip),%eax        # 1c548 <g_374>
    93b5:	83 f8 f1             	cmp    $0xfffffff1,%eax
    93b8:	0f 8d 84 fb ff ff    	jge    8f42 <func_1+0x178d>
    93be:	e9 91 08 00 00       	jmpq   9c54 <func_1+0x249f>
    93c3:	66 c7 85 e0 f2 ff ff 	movw   $0x866d,-0xd20(%rbp)
    93ca:	6d 86 
    93cc:	48 8d 85 f0 f6 ff ff 	lea    -0x910(%rbp),%rax
    93d3:	48 83 c0 18          	add    $0x18,%rax
    93d7:	48 89 85 70 f4 ff ff 	mov    %rax,-0xb90(%rbp)
    93de:	48 8d 05 2b 9b 01 00 	lea    0x19b2b(%rip),%rax        # 22f10 <g_400>
    93e5:	48 89 85 78 f4 ff ff 	mov    %rax,-0xb88(%rbp)
    93ec:	48 8d 05 a3 8e 01 00 	lea    0x18ea3(%rip),%rax        # 22296 <g_2414+0x6>
    93f3:	48 89 85 80 f4 ff ff 	mov    %rax,-0xb80(%rbp)
    93fa:	c6 85 cf f2 ff ff 6b 	movb   $0x6b,-0xd31(%rbp)
    9401:	c7 85 44 f3 ff ff f9 	movl   $0xfffffff9,-0xcbc(%rbp)
    9408:	ff ff ff 
    940b:	66 c7 85 d8 f2 ff ff 	movw   $0x8b27,-0xd28(%rbp)
    9412:	27 8b 
    9414:	c7 85 48 f3 ff ff 00 	movl   $0x0,-0xcb8(%rbp)
    941b:	00 00 00 
    941e:	48 8d 05 fb 9a 01 00 	lea    0x19afb(%rip),%rax        # 22f20 <g_444>
    9425:	48 89 85 d0 f3 ff ff 	mov    %rax,-0xc30(%rbp)
    942c:	48 8d 85 d0 f3 ff ff 	lea    -0xc30(%rbp),%rax
    9433:	48 89 85 88 f4 ff ff 	mov    %rax,-0xb78(%rbp)
    943a:	48 8d 05 df 9a 01 00 	lea    0x19adf(%rip),%rax        # 22f20 <g_444>
    9441:	48 89 85 d8 f3 ff ff 	mov    %rax,-0xc28(%rbp)
    9448:	48 8d 85 d8 f3 ff ff 	lea    -0xc28(%rbp),%rax
    944f:	48 89 85 90 f4 ff ff 	mov    %rax,-0xb70(%rbp)
    9456:	48 8d 05 2b 84 01 00 	lea    0x1842b(%rip),%rax        # 21888 <g_2135+0x8>
    945d:	48 89 85 98 f4 ff ff 	mov    %rax,-0xb68(%rbp)
    9464:	48 8d 85 d6 f2 ff ff 	lea    -0xd2a(%rbp),%rax
    946b:	48 89 85 a0 f4 ff ff 	mov    %rax,-0xb60(%rbp)
    9472:	48 8d 85 d2 f2 ff ff 	lea    -0xd2e(%rbp),%rax
    9479:	48 89 85 a8 f4 ff ff 	mov    %rax,-0xb58(%rbp)
    9480:	48 8d 85 d8 f2 ff ff 	lea    -0xd28(%rbp),%rax
    9487:	48 89 85 b0 f4 ff ff 	mov    %rax,-0xb50(%rbp)
    948e:	48 8b 9d 60 f4 ff ff 	mov    -0xba0(%rbp),%rbx
    9495:	44 0f bf ad e0 f2 ff 	movswl -0xd20(%rbp),%r13d
    949c:	ff 
    949d:	44 8b a5 0c f3 ff ff 	mov    -0xcf4(%rbp),%r12d
    94a4:	48 8b 85 78 f4 ff ff 	mov    -0xb88(%rbp),%rax
    94ab:	48 89 05 06 ab 01 00 	mov    %rax,0x1ab06(%rip)        # 23fb8 <g_2463>
    94b2:	48 8b 05 ff aa 01 00 	mov    0x1aaff(%rip),%rax        # 23fb8 <g_2463>
    94b9:	48 8d 15 50 9a 01 00 	lea    0x19a50(%rip),%rdx        # 22f10 <g_400>
    94c0:	48 39 d0             	cmp    %rdx,%rax
    94c3:	0f 94 c0             	sete   %al
    94c6:	0f b6 c0             	movzbl %al,%eax
    94c9:	be 00 00 00 00       	mov    $0x0,%esi
    94ce:	89 c7                	mov    %eax,%edi
    94d0:	e8 20 cf ff ff       	callq  63f5 <safe_mul_func_int16_t_s_s>
    94d5:	48 8b 95 80 f4 ff ff 	mov    -0xb80(%rbp),%rdx
    94dc:	48 8b 12             	mov    (%rdx),%rdx
    94df:	48 0f bf c0          	movswq %ax,%rax
    94e3:	48 21 c2             	and    %rax,%rdx
    94e6:	48 8b 85 80 f4 ff ff 	mov    -0xb80(%rbp),%rax
    94ed:	48 89 10             	mov    %rdx,(%rax)
    94f0:	48 8b 85 f8 f3 ff ff 	mov    -0xc08(%rbp),%rax
    94f7:	8b 10                	mov    (%rax),%edx
    94f9:	66 83 bd de f2 ff ff 	cmpw   $0x24,-0xd22(%rbp)
    9500:	24 
    9501:	0f 9f c0             	setg   %al
    9504:	0f b6 c0             	movzbl %al,%eax
    9507:	09 d0                	or     %edx,%eax
    9509:	85 c0                	test   %eax,%eax
    950b:	74 11                	je     951e <func_1+0x1d69>
    950d:	8b 85 b4 f5 ff ff    	mov    -0xa4c(%rbp),%eax
    9513:	85 c0                	test   %eax,%eax
    9515:	74 07                	je     951e <func_1+0x1d69>
    9517:	b8 01 00 00 00       	mov    $0x1,%eax
    951c:	eb 05                	jmp    9523 <func_1+0x1d6e>
    951e:	b8 00 00 00 00       	mov    $0x0,%eax
    9523:	0b 85 0c f3 ff ff    	or     -0xcf4(%rbp),%eax
    9529:	44 89 e6             	mov    %r12d,%esi
    952c:	89 c7                	mov    %eax,%edi
    952e:	e8 99 d1 ff ff       	callq  66cc <safe_mod_func_int32_t_s_s>
    9533:	89 c2                	mov    %eax,%edx
    9535:	48 8d 85 f0 f6 ff ff 	lea    -0x910(%rbp),%rax
    953c:	48 83 c0 30          	add    $0x30,%rax
    9540:	48 39 85 70 f4 ff ff 	cmp    %rax,-0xb90(%rbp)
    9547:	0f 94 c0             	sete   %al
    954a:	0f b6 c0             	movzbl %al,%eax
    954d:	31 85 f0 f2 ff ff    	xor    %eax,-0xd10(%rbp)
    9553:	8b 85 f0 f2 ff ff    	mov    -0xd10(%rbp),%eax
    9559:	0f b7 c0             	movzwl %ax,%eax
    955c:	89 d6                	mov    %edx,%esi
    955e:	89 c7                	mov    %eax,%edi
    9560:	e8 59 d8 ff ff       	callq  6dbe <safe_lshift_func_uint16_t_u_s>
    9565:	0f b7 c0             	movzwl %ax,%eax
    9568:	33 85 3c f3 ff ff    	xor    -0xcc4(%rbp),%eax
    956e:	89 c2                	mov    %eax,%edx
    9570:	8b 8d b8 f5 ff ff    	mov    -0xa48(%rbp),%ecx
    9576:	48 8b 05 63 99 01 00 	mov    0x19963(%rip),%rax        # 22ee0 <g_303>
    957d:	89 08                	mov    %ecx,(%rax)
    957f:	8b 00                	mov    (%rax),%eax
    9581:	0f b6 c0             	movzbl %al,%eax
    9584:	89 d6                	mov    %edx,%esi
    9586:	89 c7                	mov    %eax,%edi
    9588:	e8 31 d7 ff ff       	callq  6cbe <safe_rshift_func_uint8_t_u_u>
    958d:	84 c0                	test   %al,%al
    958f:	74 07                	je     9598 <func_1+0x1de3>
    9591:	b8 01 00 00 00       	mov    $0x1,%eax
    9596:	eb 05                	jmp    959d <func_1+0x1de8>
    9598:	b8 00 00 00 00       	mov    $0x0,%eax
    959d:	44 39 e8             	cmp    %r13d,%eax
    95a0:	0f 9f c0             	setg   %al
    95a3:	0f b6 c0             	movzbl %al,%eax
    95a6:	48 89 de             	mov    %rbx,%rsi
    95a9:	48 89 c7             	mov    %rax,%rdi
    95ac:	e8 f7 d2 ff ff       	callq  68a8 <safe_sub_func_int64_t_s_s>
    95b1:	48 85 c0             	test   %rax,%rax
    95b4:	0f 84 67 02 00 00    	je     9821 <func_1+0x206c>
    95ba:	48 8d 05 77 9d 01 00 	lea    0x19d77(%rip),%rax        # 23338 <g_706>
    95c1:	48 89 85 b8 f4 ff ff 	mov    %rax,-0xb48(%rbp)
    95c8:	c7 85 4c f3 ff ff 09 	movl   $0x67093809,-0xcb4(%rbp)
    95cf:	38 09 67 
    95d2:	c7 85 50 f3 ff ff 47 	movl   $0x947ffc47,-0xcb0(%rbp)
    95d9:	fc 7f 94 
    95dc:	48 8b 05 0d 9f 01 00 	mov    0x19f0d(%rip),%rax        # 234f0 <g_1685>
    95e3:	48 8b 00             	mov    (%rax),%rax
    95e6:	48 8b 00             	mov    (%rax),%rax
    95e9:	48 89 c3             	mov    %rax,%rbx
    95ec:	48 8b 85 f8 f3 ff ff 	mov    -0xc08(%rbp),%rax
    95f3:	8b 00                	mov    (%rax),%eax
    95f5:	41 89 c4             	mov    %eax,%r12d
    95f8:	0f be 95 cf f2 ff ff 	movsbl -0xd31(%rbp),%edx
    95ff:	0f bf 85 e0 f2 ff ff 	movswl -0xd20(%rbp),%eax
    9606:	09 d0                	or     %edx,%eax
    9608:	85 c0                	test   %eax,%eax
    960a:	75 1e                	jne    962a <func_1+0x1e75>
    960c:	48 8b 85 70 f4 ff ff 	mov    -0xb90(%rbp),%rax
    9613:	48 8b 00             	mov    (%rax),%rax
    9616:	48 8b 00             	mov    (%rax),%rax
    9619:	48 85 c0             	test   %rax,%rax
    961c:	0f 95 c0             	setne  %al
    961f:	0f b6 c0             	movzbl %al,%eax
    9622:	39 85 38 f3 ff ff    	cmp    %eax,-0xcc8(%rbp)
    9628:	7e 08                	jle    9632 <func_1+0x1e7d>
    962a:	41 bd 01 00 00 00    	mov    $0x1,%r13d
    9630:	eb 06                	jmp    9638 <func_1+0x1e83>
    9632:	41 bd 00 00 00 00    	mov    $0x0,%r13d
    9638:	0f b7 05 9d 41 01 00 	movzwl 0x1419d(%rip),%eax        # 1d7dc <g_515+0x4>
    963f:	c1 e0 06             	shl    $0x6,%eax
    9642:	66 c1 f8 06          	sar    $0x6,%ax
    9646:	0f b6 c0             	movzbl %al,%eax
    9649:	48 8b 15 08 2c 01 00 	mov    0x12c08(%rip),%rdx        # 1c258 <g_277+0x38>
    9650:	89 c6                	mov    %eax,%esi
    9652:	bf 00 00 00 00       	mov    $0x0,%edi
    9657:	e8 37 d5 ff ff       	callq  6b93 <safe_mul_func_uint8_t_u_u>
    965c:	0f b6 c0             	movzbl %al,%eax
    965f:	41 39 c5             	cmp    %eax,%r13d
    9662:	0f 94 c0             	sete   %al
    9665:	0f b6 c0             	movzbl %al,%eax
    9668:	44 89 e6             	mov    %r12d,%esi
    966b:	89 c7                	mov    %eax,%edi
    966d:	e8 08 d8 ff ff       	callq  6e7a <safe_rshift_func_uint16_t_u_u>
    9672:	48 8b 95 80 f4 ff ff 	mov    -0xb80(%rbp),%rdx
    9679:	48 8b 12             	mov    (%rdx),%rdx
    967c:	0f b7 c0             	movzwl %ax,%eax
    967f:	48 31 c2             	xor    %rax,%rdx
    9682:	48 8b 85 80 f4 ff ff 	mov    -0xb80(%rbp),%rax
    9689:	48 89 10             	mov    %rdx,(%rax)
    968c:	48 8b 85 80 f4 ff ff 	mov    -0xb80(%rbp),%rax
    9693:	48 8b 00             	mov    (%rax),%rax
    9696:	48 89 de             	mov    %rbx,%rsi
    9699:	48 89 c7             	mov    %rax,%rdi
    969c:	e8 13 d3 ff ff       	callq  69b4 <safe_mod_func_int64_t_s_s>
    96a1:	0f be c0             	movsbl %al,%eax
    96a4:	be 00 00 00 00       	mov    $0x0,%esi
    96a9:	89 c7                	mov    %eax,%edi
    96ab:	e8 42 cb ff ff       	callq  61f2 <safe_sub_func_int8_t_s_s>
    96b0:	48 8b 95 00 f4 ff ff 	mov    -0xc00(%rbp),%rdx
    96b7:	8b 12                	mov    (%rdx),%edx
    96b9:	0f be c0             	movsbl %al,%eax
    96bc:	31 c2                	xor    %eax,%edx
    96be:	48 8b 85 00 f4 ff ff 	mov    -0xc00(%rbp),%rax
    96c5:	89 10                	mov    %edx,(%rax)
    96c7:	48 8b 05 72 9d 01 00 	mov    0x19d72(%rip),%rax        # 23440 <g_708>
    96ce:	48 8b 10             	mov    (%rax),%rdx
    96d1:	48 8b 85 b8 f4 ff ff 	mov    -0xb48(%rbp),%rax
    96d8:	48 89 10             	mov    %rdx,(%rax)
    96db:	66 c7 05 d4 48 01 00 	movw   $0x0,0x148d4(%rip)        # 1dfb8 <g_842+0x8>
    96e2:	00 00 
    96e4:	e9 bd 00 00 00       	jmpq   97a6 <func_1+0x1ff1>
    96e9:	48 8d 05 30 98 01 00 	lea    0x19830(%rip),%rax        # 22f20 <g_444>
    96f0:	48 89 85 20 f8 ff ff 	mov    %rax,-0x7e0(%rbp)
    96f7:	48 8d 05 22 98 01 00 	lea    0x19822(%rip),%rax        # 22f20 <g_444>
    96fe:	48 89 85 28 f8 ff ff 	mov    %rax,-0x7d8(%rbp)
    9705:	48 8d 05 14 98 01 00 	lea    0x19814(%rip),%rax        # 22f20 <g_444>
    970c:	48 89 85 30 f8 ff ff 	mov    %rax,-0x7d0(%rbp)
    9713:	48 8d 05 06 98 01 00 	lea    0x19806(%rip),%rax        # 22f20 <g_444>
    971a:	48 89 85 38 f8 ff ff 	mov    %rax,-0x7c8(%rbp)
    9721:	48 8d 05 f8 97 01 00 	lea    0x197f8(%rip),%rax        # 22f20 <g_444>
    9728:	48 89 85 40 f8 ff ff 	mov    %rax,-0x7c0(%rbp)
    972f:	48 8d 05 ea 97 01 00 	lea    0x197ea(%rip),%rax        # 22f20 <g_444>
    9736:	48 89 85 48 f8 ff ff 	mov    %rax,-0x7b8(%rbp)
    973d:	48 8d 05 dc 97 01 00 	lea    0x197dc(%rip),%rax        # 22f20 <g_444>
    9744:	48 89 85 50 f8 ff ff 	mov    %rax,-0x7b0(%rbp)
    974b:	48 8d 05 ce 97 01 00 	lea    0x197ce(%rip),%rax        # 22f20 <g_444>
    9752:	48 89 85 58 f8 ff ff 	mov    %rax,-0x7a8(%rbp)
    9759:	48 8d 05 c0 97 01 00 	lea    0x197c0(%rip),%rax        # 22f20 <g_444>
    9760:	48 89 85 60 f8 ff ff 	mov    %rax,-0x7a0(%rbp)
    9767:	48 8d 85 20 f8 ff ff 	lea    -0x7e0(%rbp),%rax
    976e:	48 83 c0 18          	add    $0x18,%rax
    9772:	48 89 85 e0 f3 ff ff 	mov    %rax,-0xc20(%rbp)
    9779:	48 8d 85 e0 f3 ff ff 	lea    -0xc20(%rbp),%rax
    9780:	48 89 85 c0 f4 ff ff 	mov    %rax,-0xb40(%rbp)
    9787:	48 8b 85 c0 f4 ff ff 	mov    -0xb40(%rbp),%rax
    978e:	48 c7 00 00 00 00 00 	movq   $0x0,(%rax)
    9795:	0f b7 05 1c 48 01 00 	movzwl 0x1481c(%rip),%eax        # 1dfb8 <g_842+0x8>
    979c:	83 c0 01             	add    $0x1,%eax
    979f:	66 89 05 12 48 01 00 	mov    %ax,0x14812(%rip)        # 1dfb8 <g_842+0x8>
    97a6:	0f b7 05 0b 48 01 00 	movzwl 0x1480b(%rip),%eax        # 1dfb8 <g_842+0x8>
    97ad:	66 83 f8 12          	cmp    $0x12,%ax
    97b1:	0f 86 32 ff ff ff    	jbe    96e9 <func_1+0x1f34>
    97b7:	c7 85 04 f3 ff ff 00 	movl   $0x0,-0xcfc(%rbp)
    97be:	00 00 00 
    97c1:	eb 50                	jmp    9813 <func_1+0x205e>
    97c3:	66 c7 85 e4 f2 ff ff 	movw   $0x3,-0xd1c(%rbp)
    97ca:	03 00 
    97cc:	80 bd cf f2 ff ff 00 	cmpb   $0x0,-0xd31(%rbp)
    97d3:	74 05                	je     97da <func_1+0x2025>
    97d5:	e9 72 e2 ff ff       	jmpq   7a4c <func_1+0x297>
    97da:	48 8b 05 57 9b 01 00 	mov    0x19b57(%rip),%rax        # 23338 <g_706>
    97e1:	48 8b 08             	mov    (%rax),%rcx
    97e4:	48 8b 05 05 8b 01 00 	mov    0x18b05(%rip),%rax        # 222f0 <g_2485>
    97eb:	48 8b 15 06 8b 01 00 	mov    0x18b06(%rip),%rdx        # 222f8 <g_2485+0x8>
    97f2:	48 89 01             	mov    %rax,(%rcx)
    97f5:	48 89 51 08          	mov    %rdx,0x8(%rcx)
    97f9:	0f b7 05 00 8b 01 00 	movzwl 0x18b00(%rip),%eax        # 22300 <g_2485+0x10>
    9800:	66 89 41 10          	mov    %ax,0x10(%rcx)
    9804:	66 83 ad e4 f2 ff ff 	subw   $0x1,-0xd1c(%rbp)
    980b:	01 
    980c:	83 85 04 f3 ff ff 01 	addl   $0x1,-0xcfc(%rbp)
    9813:	83 bd 04 f3 ff ff 09 	cmpl   $0x9,-0xcfc(%rbp)
    981a:	77 a7                	ja     97c3 <func_1+0x200e>
    981c:	e9 57 01 00 00       	jmpq   9978 <func_1+0x21c3>
    9821:	c6 85 d0 f2 ff ff fd 	movb   $0xfd,-0xd30(%rbp)
    9828:	48 8d 85 20 f8 ff ff 	lea    -0x7e0(%rbp),%rax
    982f:	48 8d 15 aa da 00 00 	lea    0xdaaa(%rip),%rdx        # 172e0 <g_2382+0x1e0>
    9836:	b9 78 00 00 00       	mov    $0x78,%ecx
    983b:	48 89 c7             	mov    %rax,%rdi
    983e:	48 89 d6             	mov    %rdx,%rsi
    9841:	f3 48 a5             	rep movsq %ds:(%rsi),%es:(%rdi)
    9844:	66 c7 85 e2 f2 ff ff 	movw   $0xfffc,-0xd1e(%rbp)
    984b:	fc ff 
    984d:	c7 85 20 f3 ff ff 00 	movl   $0x0,-0xce0(%rbp)
    9854:	00 00 00 
    9857:	eb 1e                	jmp    9877 <func_1+0x20c2>
    9859:	8b 85 20 f3 ff ff    	mov    -0xce0(%rbp),%eax
    985f:	48 98                	cltq   
    9861:	48 8d 95 d2 f2 ff ff 	lea    -0xd2e(%rbp),%rdx
    9868:	48 89 94 c5 40 f6 ff 	mov    %rdx,-0x9c0(%rbp,%rax,8)
    986f:	ff 
    9870:	83 85 20 f3 ff ff 01 	addl   $0x1,-0xce0(%rbp)
    9877:	83 bd 20 f3 ff ff 02 	cmpl   $0x2,-0xce0(%rbp)
    987e:	7e d9                	jle    9859 <func_1+0x20a4>
    9880:	66 83 ad e2 f2 ff ff 	subw   $0x1,-0xd1e(%rbp)
    9887:	01 
    9888:	48 8b 05 39 93 01 00 	mov    0x19339(%rip),%rax        # 22bc8 <g_166>
    988f:	48 8b 00             	mov    (%rax),%rax
    9892:	48 89 85 60 f7 ff ff 	mov    %rax,-0x8a0(%rbp)
    9899:	48 8b 85 60 f7 ff ff 	mov    -0x8a0(%rbp),%rax
    98a0:	48 89 85 e8 f3 ff ff 	mov    %rax,-0xc18(%rbp)
    98a7:	bf 00 00 00 00       	mov    $0x0,%edi
    98ac:	e8 f5 d5 ff ff       	callq  6ea6 <safe_unary_minus_func_uint32_t_u>
    98b1:	0f be c0             	movsbl %al,%eax
    98b4:	be 02 00 00 00       	mov    $0x2,%esi
    98b9:	89 c7                	mov    %eax,%edi
    98bb:	e8 ac ca ff ff       	callq  636c <safe_rshift_func_int8_t_s_u>
    98c0:	48 8b 05 91 9b 01 00 	mov    0x19b91(%rip),%rax        # 23458 <g_746>
    98c7:	48 8b 00             	mov    (%rax),%rax
    98ca:	0f b6 10             	movzbl (%rax),%edx
    98cd:	83 c2 01             	add    $0x1,%edx
    98d0:	88 10                	mov    %dl,(%rax)
    98d2:	48 8b 05 f7 3d 01 00 	mov    0x13df7(%rip),%rax        # 1d6d0 <g_447+0x50>
    98d9:	48 8b 85 f8 f3 ff ff 	mov    -0xc08(%rbp),%rax
    98e0:	8b 00                	mov    (%rax),%eax
    98e2:	0f bf d8             	movswl %ax,%ebx
    98e5:	0f b7 85 16 f8 ff ff 	movzwl -0x7ea(%rbp),%eax
    98ec:	0f be d0             	movsbl %al,%edx
    98ef:	48 8b 8d 38 f6 ff ff 	mov    -0x9c8(%rbp),%rcx
    98f6:	48 8d 85 e8 f2 ff ff 	lea    -0xd18(%rbp),%rax
    98fd:	48 39 c1             	cmp    %rax,%rcx
    9900:	74 07                	je     9909 <func_1+0x2154>
    9902:	b8 71 a7 ec 07       	mov    $0x7eca771,%eax
    9907:	eb 05                	jmp    990e <func_1+0x2159>
    9909:	b8 70 a7 ec 07       	mov    $0x7eca770,%eax
    990e:	89 85 08 f3 ff ff    	mov    %eax,-0xcf8(%rbp)
    9914:	8b 85 08 f3 ff ff    	mov    -0xcf8(%rbp),%eax
    991a:	3b 85 40 f3 ff ff    	cmp    -0xcc0(%rbp),%eax
    9920:	0f 94 c0             	sete   %al
    9923:	89 c1                	mov    %eax,%ecx
    9925:	48 8b 85 20 f4 ff ff 	mov    -0xbe0(%rbp),%rax
    992c:	88 08                	mov    %cl,(%rax)
    992e:	48 8b 85 20 f4 ff ff 	mov    -0xbe0(%rbp),%rax
    9935:	0f b6 00             	movzbl (%rax),%eax
    9938:	0f be c0             	movsbl %al,%eax
    993b:	89 d6                	mov    %edx,%esi
    993d:	89 c7                	mov    %eax,%edi
    993f:	e8 ce c8 ff ff       	callq  6212 <safe_mul_func_int8_t_s_s>
    9944:	0f be c0             	movsbl %al,%eax
    9947:	89 de                	mov    %ebx,%esi
    9949:	89 c7                	mov    %eax,%edi
    994b:	e8 63 ca ff ff       	callq  63b3 <safe_add_func_int16_t_s_s>
    9950:	48 0f be 85 d0 f2 ff 	movsbq -0xd30(%rbp),%rax
    9957:	ff 
    9958:	48 3d 83 00 00 00    	cmp    $0x83,%rax
    995e:	0f 95 c0             	setne  %al
    9961:	0f b6 d0             	movzbl %al,%edx
    9964:	48 8b 85 00 f4 ff ff 	mov    -0xc00(%rbp),%rax
    996b:	8b 00                	mov    (%rax),%eax
    996d:	21 c2                	and    %eax,%edx
    996f:	48 8b 85 00 f4 ff ff 	mov    -0xc00(%rbp),%rax
    9976:	89 10                	mov    %edx,(%rax)
    9978:	0f b7 85 d6 f2 ff ff 	movzwl -0xd2a(%rbp),%eax
    997f:	0f b7 d8             	movzwl %ax,%ebx
    9982:	48 8b 85 e8 f3 ff ff 	mov    -0xc18(%rbp),%rax
    9989:	8b 00                	mov    (%rax),%eax
    998b:	4c 63 e0             	movslq %eax,%r12
    998e:	66 0f be 85 ce f2 ff 	movsbw -0xd32(%rbp),%ax
    9995:	ff 
    9996:	8b 95 2c f3 ff ff    	mov    -0xcd4(%rbp),%edx
    999c:	21 d0                	and    %edx,%eax
    999e:	0f b7 d0             	movzwl %ax,%edx
    99a1:	66 0f be 85 cb f2 ff 	movsbw -0xd35(%rbp),%ax
    99a8:	ff 
    99a9:	0f b7 c0             	movzwl %ax,%eax
    99ac:	89 d6                	mov    %edx,%esi
    99ae:	89 c7                	mov    %eax,%edi
    99b0:	e8 88 d3 ff ff       	callq  6d3d <safe_mul_func_uint16_t_u_u>
    99b5:	0f b7 d0             	movzwl %ax,%edx
    99b8:	48 8b 85 08 f4 ff ff 	mov    -0xbf8(%rbp),%rax
    99bf:	8b 00                	mov    (%rax),%eax
    99c1:	39 c2                	cmp    %eax,%edx
    99c3:	0f 85 b3 00 00 00    	jne    9a7c <func_1+0x22c7>
    99c9:	44 8b ad 08 f3 ff ff 	mov    -0xcf8(%rbp),%r13d
    99d0:	be 03 00 00 00       	mov    $0x3,%esi
    99d5:	bf 81 ff ff ff       	mov    $0xffffff81,%edi
    99da:	e8 0f c9 ff ff       	callq  62ee <safe_lshift_func_int8_t_s_u>
    99df:	89 c2                	mov    %eax,%edx
    99e1:	48 8b 85 98 f4 ff ff 	mov    -0xb68(%rbp),%rax
    99e8:	0f b6 00             	movzbl (%rax),%eax
    99eb:	09 d0                	or     %edx,%eax
    99ed:	89 c2                	mov    %eax,%edx
    99ef:	48 8b 85 98 f4 ff ff 	mov    -0xb68(%rbp),%rax
    99f6:	88 10                	mov    %dl,(%rax)
    99f8:	48 8b 85 98 f4 ff ff 	mov    -0xb68(%rbp),%rax
    99ff:	0f b6 00             	movzbl (%rax),%eax
    9a02:	0f b6 d0             	movzbl %al,%edx
    9a05:	48 8b 05 44 9a 01 00 	mov    0x19a44(%rip),%rax        # 23450 <g_747>
    9a0c:	0f b6 00             	movzbl (%rax),%eax
    9a0f:	0f b6 c0             	movzbl %al,%eax
    9a12:	89 d6                	mov    %edx,%esi
    9a14:	89 c7                	mov    %eax,%edi
    9a16:	e8 31 d2 ff ff       	callq  6c4c <safe_lshift_func_uint8_t_u_u>
    9a1b:	0f b6 d0             	movzbl %al,%edx
    9a1e:	48 8b 85 88 f4 ff ff 	mov    -0xb78(%rbp),%rax
    9a25:	48 8d 0d f4 94 01 00 	lea    0x194f4(%rip),%rcx        # 22f20 <g_444>
    9a2c:	48 89 08             	mov    %rcx,(%rax)
    9a2f:	48 8b 85 88 f4 ff ff 	mov    -0xb78(%rbp),%rax
    9a36:	48 8b 08             	mov    (%rax),%rcx
    9a39:	48 8b 85 90 f4 ff ff 	mov    -0xb70(%rbp),%rax
    9a40:	48 c7 00 00 00 00 00 	movq   $0x0,(%rax)
    9a47:	48 8b 85 90 f4 ff ff 	mov    -0xb70(%rbp),%rax
    9a4e:	48 8b 00             	mov    (%rax),%rax
    9a51:	48 39 c1             	cmp    %rax,%rcx
    9a54:	0f 95 c0             	setne  %al
    9a57:	0f b6 c0             	movzbl %al,%eax
    9a5a:	89 d6                	mov    %edx,%esi
    9a5c:	89 c7                	mov    %eax,%edi
    9a5e:	e8 e5 d3 ff ff       	callq  6e48 <safe_rshift_func_uint16_t_u_s>
    9a63:	0f b7 c0             	movzwl %ax,%eax
    9a66:	44 89 ee             	mov    %r13d,%esi
    9a69:	89 c7                	mov    %eax,%edi
    9a6b:	e8 d8 d3 ff ff       	callq  6e48 <safe_rshift_func_uint16_t_u_s>
    9a70:	66 85 c0             	test   %ax,%ax
    9a73:	74 07                	je     9a7c <func_1+0x22c7>
    9a75:	b8 01 00 00 00       	mov    $0x1,%eax
    9a7a:	eb 05                	jmp    9a81 <func_1+0x22cc>
    9a7c:	b8 00 00 00 00       	mov    $0x0,%eax
    9a81:	3b 85 ec f2 ff ff    	cmp    -0xd14(%rbp),%eax
    9a87:	0f 9f c0             	setg   %al
    9a8a:	0f b6 c0             	movzbl %al,%eax
    9a8d:	0b 85 08 f3 ff ff    	or     -0xcf8(%rbp),%eax
    9a93:	89 c0                	mov    %eax,%eax
    9a95:	4c 89 e6             	mov    %r12,%rsi
    9a98:	48 89 c7             	mov    %rax,%rdi
    9a9b:	e8 0f d6 ff ff       	callq  70af <safe_div_func_uint64_t_u_u>
    9aa0:	0f be c0             	movsbl %al,%eax
    9aa3:	89 de                	mov    %ebx,%esi
    9aa5:	89 c7                	mov    %eax,%edi
    9aa7:	e8 f5 c7 ff ff       	callq  62a1 <safe_lshift_func_int8_t_s_s>
    9aac:	0f be d0             	movsbl %al,%edx
    9aaf:	48 8b 85 e8 f3 ff ff 	mov    -0xc18(%rbp),%rax
    9ab6:	89 10                	mov    %edx,(%rax)
    9ab8:	48 8b 05 d9 9c 01 00 	mov    0x19cd9(%rip),%rax        # 23798 <g_2010>
    9abf:	8b 00                	mov    (%rax),%eax
    9ac1:	85 c0                	test   %eax,%eax
    9ac3:	0f 85 c2 06 00 00    	jne    a18b <func_1+0x29d6>
    9ac9:	48 8b 05 98 99 01 00 	mov    0x19998(%rip),%rax        # 23468 <g_760>
    9ad0:	80 bd cc f2 ff ff 00 	cmpb   $0x0,-0xd34(%rbp)
    9ad7:	0f 85 d3 00 00 00    	jne    9bb0 <func_1+0x23fb>
    9add:	48 8b 05 dc 90 01 00 	mov    0x190dc(%rip),%rax        # 22bc0 <g_167>
    9ae4:	8b 00                	mov    (%rax),%eax
    9ae6:	89 c3                	mov    %eax,%ebx
    9ae8:	48 8d 05 59 9a 01 00 	lea    0x19a59(%rip),%rax        # 23548 <g_1704+0x48>
    9aef:	48 39 85 38 f4 ff ff 	cmp    %rax,-0xbc8(%rbp)
    9af6:	0f 95 c0             	setne  %al
    9af9:	0f b6 d0             	movzbl %al,%edx
    9afc:	48 8b 85 a0 f4 ff ff 	mov    -0xb60(%rbp),%rax
    9b03:	66 89 10             	mov    %dx,(%rax)
    9b06:	48 8b 85 a0 f4 ff ff 	mov    -0xb60(%rbp),%rax
    9b0d:	0f b7 00             	movzwl (%rax),%eax
    9b10:	0f b7 c0             	movzwl %ax,%eax
    9b13:	be f3 63 00 00       	mov    $0x63f3,%esi
    9b18:	89 c7                	mov    %eax,%edi
    9b1a:	e8 e0 d1 ff ff       	callq  6cff <safe_add_func_uint16_t_u_u>
    9b1f:	48 8b 05 82 a4 01 00 	mov    0x1a482(%rip),%rax        # 23fa8 <g_2407>
    9b26:	48 8b 00             	mov    (%rax),%rax
    9b29:	48 8b 00             	mov    (%rax),%rax
    9b2c:	48 8b 00             	mov    (%rax),%rax
    9b2f:	8b 00                	mov    (%rax),%eax
    9b31:	39 85 34 f3 ff ff    	cmp    %eax,-0xccc(%rbp)
    9b37:	0f 94 c0             	sete   %al
    9b3a:	0f b6 c0             	movzbl %al,%eax
    9b3d:	be 91 e8 fd 09       	mov    $0x9fde891,%esi
    9b42:	89 c7                	mov    %eax,%edi
    9b44:	e8 bc ca ff ff       	callq  6605 <safe_sub_func_int32_t_s_s>
    9b49:	89 de                	mov    %ebx,%esi
    9b4b:	89 c7                	mov    %eax,%edi
    9b4d:	e8 ab d3 ff ff       	callq  6efd <safe_mod_func_uint32_t_u_u>
    9b52:	48 8b 05 17 96 01 00 	mov    0x19617(%rip),%rax        # 23170 <g_608>
    9b59:	48 8b 00             	mov    (%rax),%rax
    9b5c:	48 8b 00             	mov    (%rax),%rax
    9b5f:	48 8b 10             	mov    (%rax),%rdx
    9b62:	0f b7 05 d7 24 01 00 	movzwl 0x124d7(%rip),%eax        # 1c040 <g_91+0x10>
    9b69:	66 c1 e8 06          	shr    $0x6,%ax
    9b6d:	83 e0 07             	and    $0x7,%eax
    9b70:	0f b6 c8             	movzbl %al,%ecx
    9b73:	0f b7 85 d6 f2 ff ff 	movzwl -0xd2a(%rbp),%eax
    9b7a:	66 39 c1             	cmp    %ax,%cx
    9b7d:	0f 97 c0             	seta   %al
    9b80:	0f b6 c8             	movzbl %al,%ecx
    9b83:	0f b6 85 cd f2 ff ff 	movzbl -0xd33(%rbp),%eax
    9b8a:	31 c8                	xor    %ecx,%eax
    9b8c:	48 98                	cltq   
    9b8e:	48 39 c2             	cmp    %rax,%rdx
    9b91:	0f 93 c0             	setae  %al
    9b94:	0f b6 d0             	movzbl %al,%edx
    9b97:	48 8b 85 a8 f4 ff ff 	mov    -0xb58(%rbp),%rax
    9b9e:	66 89 10             	mov    %dx,(%rax)
    9ba1:	48 8b 85 a8 f4 ff ff 	mov    -0xb58(%rbp),%rax
    9ba8:	0f b7 00             	movzwl (%rax),%eax
    9bab:	66 85 c0             	test   %ax,%ax
    9bae:	74 07                	je     9bb7 <func_1+0x2402>
    9bb0:	b8 01 00 00 00       	mov    $0x1,%eax
    9bb5:	eb 05                	jmp    9bbc <func_1+0x2407>
    9bb7:	b8 00 00 00 00       	mov    $0x0,%eax
    9bbc:	0f b7 d0             	movzwl %ax,%edx
    9bbf:	48 8b 85 00 f4 ff ff 	mov    -0xc00(%rbp),%rax
    9bc6:	8b 00                	mov    (%rax),%eax
    9bc8:	0f b7 c0             	movzwl %ax,%eax
    9bcb:	89 d6                	mov    %edx,%esi
    9bcd:	89 c7                	mov    %eax,%edi
    9bcf:	e8 69 d1 ff ff       	callq  6d3d <safe_mul_func_uint16_t_u_u>
    9bd4:	0f b7 d0             	movzwl %ax,%edx
    9bd7:	48 8b 05 ec 60 01 00 	mov    0x160ec(%rip),%rax        # 1fcca <g_1618+0x2a>
    9bde:	48 39 c2             	cmp    %rax,%rdx
    9be1:	0f 9d c0             	setge  %al
    9be4:	0f b6 d0             	movzbl %al,%edx
    9be7:	48 8b 85 b0 f4 ff ff 	mov    -0xb50(%rbp),%rax
    9bee:	0f b7 00             	movzwl (%rax),%eax
    9bf1:	31 c2                	xor    %eax,%edx
    9bf3:	48 8b 85 b0 f4 ff ff 	mov    -0xb50(%rbp),%rax
    9bfa:	66 89 10             	mov    %dx,(%rax)
    9bfd:	48 8b 85 b0 f4 ff ff 	mov    -0xb50(%rbp),%rax
    9c04:	0f b7 00             	movzwl (%rax),%eax
    9c07:	0f bf d0             	movswl %ax,%edx
    9c0a:	48 8b 85 08 f4 ff ff 	mov    -0xbf8(%rbp),%rax
    9c11:	8b 00                	mov    (%rax),%eax
    9c13:	39 c2                	cmp    %eax,%edx
    9c15:	0f 9d c0             	setge  %al
    9c18:	0f b6 c0             	movzbl %al,%eax
    9c1b:	be 02 00 00 00       	mov    $0x2,%esi
    9c20:	89 c7                	mov    %eax,%edi
    9c22:	e8 43 c6 ff ff       	callq  626a <safe_div_func_int8_t_s_s>
    9c27:	0f be d0             	movsbl %al,%edx
    9c2a:	48 8b 85 f8 f3 ff ff 	mov    -0xc08(%rbp),%rax
    9c31:	89 10                	mov    %edx,(%rax)
    9c33:	48 8b 85 e8 f3 ff ff 	mov    -0xc18(%rbp),%rax
    9c3a:	8b 00                	mov    (%rax),%eax
    9c3c:	48 98                	cltq   
    9c3e:	48 39 85 48 f4 ff ff 	cmp    %rax,-0xbb8(%rbp)
    9c45:	0f 92 c0             	setb   %al
    9c48:	0f b6 d0             	movzbl %al,%edx
    9c4b:	48 8b 85 00 f4 ff ff 	mov    -0xc00(%rbp),%rax
    9c52:	89 10                	mov    %edx,(%rax)
    9c54:	c7 85 0c f3 ff ff 00 	movl   $0x0,-0xcf4(%rbp)
    9c5b:	00 00 00 
    9c5e:	e9 1b 05 00 00       	jmpq   a17e <func_1+0x29c9>
    9c63:	48 8d 05 46 43 01 00 	lea    0x14346(%rip),%rax        # 1dfb0 <g_842>
    9c6a:	48 89 85 e0 f3 ff ff 	mov    %rax,-0xc20(%rbp)
    9c71:	48 8d 85 e0 f3 ff ff 	lea    -0xc20(%rbp),%rax
    9c78:	48 89 85 20 f8 ff ff 	mov    %rax,-0x7e0(%rbp)
    9c7f:	48 8d 85 e0 f3 ff ff 	lea    -0xc20(%rbp),%rax
    9c86:	48 89 85 28 f8 ff ff 	mov    %rax,-0x7d8(%rbp)
    9c8d:	48 8d 85 e0 f3 ff ff 	lea    -0xc20(%rbp),%rax
    9c94:	48 89 85 30 f8 ff ff 	mov    %rax,-0x7d0(%rbp)
    9c9b:	48 c7 85 38 f8 ff ff 	movq   $0x0,-0x7c8(%rbp)
    9ca2:	00 00 00 00 
    9ca6:	48 8d 85 e0 f3 ff ff 	lea    -0xc20(%rbp),%rax
    9cad:	48 89 85 40 f8 ff ff 	mov    %rax,-0x7c0(%rbp)
    9cb4:	48 8d 85 e0 f3 ff ff 	lea    -0xc20(%rbp),%rax
    9cbb:	48 89 85 48 f8 ff ff 	mov    %rax,-0x7b8(%rbp)
    9cc2:	48 8d 85 e0 f3 ff ff 	lea    -0xc20(%rbp),%rax
    9cc9:	48 89 85 50 f8 ff ff 	mov    %rax,-0x7b0(%rbp)
    9cd0:	48 c7 85 58 f8 ff ff 	movq   $0x0,-0x7a8(%rbp)
    9cd7:	00 00 00 00 
    9cdb:	48 c7 85 60 f8 ff ff 	movq   $0x0,-0x7a0(%rbp)
    9ce2:	00 00 00 00 
    9ce6:	48 8d 85 e0 f3 ff ff 	lea    -0xc20(%rbp),%rax
    9ced:	48 89 85 68 f8 ff ff 	mov    %rax,-0x798(%rbp)
    9cf4:	48 c7 85 70 f8 ff ff 	movq   $0x0,-0x790(%rbp)
    9cfb:	00 00 00 00 
    9cff:	48 8d 85 e0 f3 ff ff 	lea    -0xc20(%rbp),%rax
    9d06:	48 89 85 78 f8 ff ff 	mov    %rax,-0x788(%rbp)
    9d0d:	48 c7 85 80 f8 ff ff 	movq   $0x0,-0x780(%rbp)
    9d14:	00 00 00 00 
    9d18:	48 8d 85 e0 f3 ff ff 	lea    -0xc20(%rbp),%rax
    9d1f:	48 89 85 88 f8 ff ff 	mov    %rax,-0x778(%rbp)
    9d26:	48 8d 85 e0 f3 ff ff 	lea    -0xc20(%rbp),%rax
    9d2d:	48 89 85 90 f8 ff ff 	mov    %rax,-0x770(%rbp)
    9d34:	48 8d 85 e0 f3 ff ff 	lea    -0xc20(%rbp),%rax
    9d3b:	48 89 85 98 f8 ff ff 	mov    %rax,-0x768(%rbp)
    9d42:	48 8d 85 e0 f3 ff ff 	lea    -0xc20(%rbp),%rax
    9d49:	48 89 85 a0 f8 ff ff 	mov    %rax,-0x760(%rbp)
    9d50:	48 8d 85 e0 f3 ff ff 	lea    -0xc20(%rbp),%rax
    9d57:	48 89 85 a8 f8 ff ff 	mov    %rax,-0x758(%rbp)
    9d5e:	48 8d 85 e0 f3 ff ff 	lea    -0xc20(%rbp),%rax
    9d65:	48 89 85 b0 f8 ff ff 	mov    %rax,-0x750(%rbp)
    9d6c:	48 8d 85 e0 f3 ff ff 	lea    -0xc20(%rbp),%rax
    9d73:	48 89 85 b8 f8 ff ff 	mov    %rax,-0x748(%rbp)
    9d7a:	48 8d 85 e0 f3 ff ff 	lea    -0xc20(%rbp),%rax
    9d81:	48 89 85 c0 f8 ff ff 	mov    %rax,-0x740(%rbp)
    9d88:	48 8d 85 e0 f3 ff ff 	lea    -0xc20(%rbp),%rax
    9d8f:	48 89 85 c8 f8 ff ff 	mov    %rax,-0x738(%rbp)
    9d96:	48 c7 85 d0 f8 ff ff 	movq   $0x0,-0x730(%rbp)
    9d9d:	00 00 00 00 
    9da1:	48 8d 85 e0 f3 ff ff 	lea    -0xc20(%rbp),%rax
    9da8:	48 89 85 d8 f8 ff ff 	mov    %rax,-0x728(%rbp)
    9daf:	48 8d 85 e0 f3 ff ff 	lea    -0xc20(%rbp),%rax
    9db6:	48 89 85 e0 f8 ff ff 	mov    %rax,-0x720(%rbp)
    9dbd:	48 8d 85 e0 f3 ff ff 	lea    -0xc20(%rbp),%rax
    9dc4:	48 89 85 e8 f8 ff ff 	mov    %rax,-0x718(%rbp)
    9dcb:	48 8d 85 e0 f3 ff ff 	lea    -0xc20(%rbp),%rax
    9dd2:	48 89 85 f0 f8 ff ff 	mov    %rax,-0x710(%rbp)
    9dd9:	48 8d 85 e0 f3 ff ff 	lea    -0xc20(%rbp),%rax
    9de0:	48 89 85 f8 f8 ff ff 	mov    %rax,-0x708(%rbp)
    9de7:	48 c7 85 00 f9 ff ff 	movq   $0x0,-0x700(%rbp)
    9dee:	00 00 00 00 
    9df2:	48 8d 85 e0 f3 ff ff 	lea    -0xc20(%rbp),%rax
    9df9:	48 89 85 08 f9 ff ff 	mov    %rax,-0x6f8(%rbp)
    9e00:	48 8d 85 e0 f3 ff ff 	lea    -0xc20(%rbp),%rax
    9e07:	48 89 85 10 f9 ff ff 	mov    %rax,-0x6f0(%rbp)
    9e0e:	48 8d 85 e0 f3 ff ff 	lea    -0xc20(%rbp),%rax
    9e15:	48 89 85 18 f9 ff ff 	mov    %rax,-0x6e8(%rbp)
    9e1c:	48 c7 85 20 f9 ff ff 	movq   $0x0,-0x6e0(%rbp)
    9e23:	00 00 00 00 
    9e27:	48 8d 85 e0 f3 ff ff 	lea    -0xc20(%rbp),%rax
    9e2e:	48 89 85 28 f9 ff ff 	mov    %rax,-0x6d8(%rbp)
    9e35:	48 8d 85 e0 f3 ff ff 	lea    -0xc20(%rbp),%rax
    9e3c:	48 89 85 30 f9 ff ff 	mov    %rax,-0x6d0(%rbp)
    9e43:	48 8d 85 e0 f3 ff ff 	lea    -0xc20(%rbp),%rax
    9e4a:	48 89 85 38 f9 ff ff 	mov    %rax,-0x6c8(%rbp)
    9e51:	48 8d 85 e0 f3 ff ff 	lea    -0xc20(%rbp),%rax
    9e58:	48 89 85 40 f9 ff ff 	mov    %rax,-0x6c0(%rbp)
    9e5f:	48 8d 85 e0 f3 ff ff 	lea    -0xc20(%rbp),%rax
    9e66:	48 89 85 48 f9 ff ff 	mov    %rax,-0x6b8(%rbp)
    9e6d:	48 8d 85 e0 f3 ff ff 	lea    -0xc20(%rbp),%rax
    9e74:	48 89 85 50 f9 ff ff 	mov    %rax,-0x6b0(%rbp)
    9e7b:	48 8d 85 e0 f3 ff ff 	lea    -0xc20(%rbp),%rax
    9e82:	48 89 85 58 f9 ff ff 	mov    %rax,-0x6a8(%rbp)
    9e89:	48 8d 85 e0 f3 ff ff 	lea    -0xc20(%rbp),%rax
    9e90:	48 89 85 60 f9 ff ff 	mov    %rax,-0x6a0(%rbp)
    9e97:	48 8d 85 e0 f3 ff ff 	lea    -0xc20(%rbp),%rax
    9e9e:	48 89 85 68 f9 ff ff 	mov    %rax,-0x698(%rbp)
    9ea5:	48 8d 85 e0 f3 ff ff 	lea    -0xc20(%rbp),%rax
    9eac:	48 89 85 70 f9 ff ff 	mov    %rax,-0x690(%rbp)
    9eb3:	48 8d 85 e0 f3 ff ff 	lea    -0xc20(%rbp),%rax
    9eba:	48 89 85 78 f9 ff ff 	mov    %rax,-0x688(%rbp)
    9ec1:	48 c7 85 80 f9 ff ff 	movq   $0x0,-0x680(%rbp)
    9ec8:	00 00 00 00 
    9ecc:	48 8d 85 e0 f3 ff ff 	lea    -0xc20(%rbp),%rax
    9ed3:	48 89 85 88 f9 ff ff 	mov    %rax,-0x678(%rbp)
    9eda:	48 8d 85 e0 f3 ff ff 	lea    -0xc20(%rbp),%rax
    9ee1:	48 89 85 90 f9 ff ff 	mov    %rax,-0x670(%rbp)
    9ee8:	48 c7 85 98 f9 ff ff 	movq   $0x0,-0x668(%rbp)
    9eef:	00 00 00 00 
    9ef3:	48 8d 85 20 f8 ff ff 	lea    -0x7e0(%rbp),%rax
    9efa:	48 05 58 01 00 00    	add    $0x158,%rax
    9f00:	48 89 85 60 f5 ff ff 	mov    %rax,-0xaa0(%rbp)
    9f07:	48 8d 85 c8 f3 ff ff 	lea    -0xc38(%rbp),%rax
    9f0e:	48 89 85 68 f5 ff ff 	mov    %rax,-0xa98(%rbp)
    9f15:	66 c7 85 f0 f5 ff ff 	movw   $0x1,-0xa10(%rbp)
    9f1c:	01 00 
    9f1e:	66 c7 85 f2 f5 ff ff 	movw   $0x1,-0xa0e(%rbp)
    9f25:	01 00 
    9f27:	66 c7 85 f4 f5 ff ff 	movw   $0x1,-0xa0c(%rbp)
    9f2e:	01 00 
    9f30:	66 c7 85 f6 f5 ff ff 	movw   $0x1,-0xa0a(%rbp)
    9f37:	01 00 
    9f39:	66 c7 85 f8 f5 ff ff 	movw   $0x1,-0xa08(%rbp)
    9f40:	01 00 
    9f42:	66 c7 85 fa f5 ff ff 	movw   $0x1,-0xa06(%rbp)
    9f49:	01 00 
    9f4b:	66 c7 85 fc f5 ff ff 	movw   $0x1,-0xa04(%rbp)
    9f52:	01 00 
    9f54:	66 c7 85 fe f5 ff ff 	movw   $0x1,-0xa02(%rbp)
    9f5b:	01 00 
    9f5d:	c7 85 7c f3 ff ff 00 	movl   $0x0,-0xc84(%rbp)
    9f64:	00 00 00 
    9f67:	c7 85 80 f3 ff ff fe 	movl   $0xfffffffe,-0xc80(%rbp)
    9f6e:	ff ff ff 
    9f71:	c7 85 84 f3 ff ff 00 	movl   $0x0,-0xc7c(%rbp)
    9f78:	00 00 00 
    9f7b:	c7 85 88 f3 ff ff 00 	movl   $0x0,-0xc78(%rbp)
    9f82:	00 00 00 
    9f85:	c7 85 8c f3 ff ff f7 	movl   $0xfffffff7,-0xc74(%rbp)
    9f8c:	ff ff ff 
    9f8f:	c7 85 24 f3 ff ff f6 	movl   $0xfffffff6,-0xcdc(%rbp)
    9f96:	ff ff ff 
    9f99:	48 c7 85 60 f5 ff ff 	movq   $0x0,-0xaa0(%rbp)
    9fa0:	00 00 00 00 
    9fa4:	0f b7 9d dc f2 ff ff 	movzwl -0xd24(%rbp),%ebx
    9fab:	48 8b 85 00 f4 ff ff 	mov    -0xc00(%rbp),%rax
    9fb2:	8b 00                	mov    (%rax),%eax
    9fb4:	41 89 c4             	mov    %eax,%r12d
    9fb7:	be 12 00 00 00       	mov    $0x12,%esi
    9fbc:	bf 00 00 00 00       	mov    $0x0,%edi
    9fc1:	e8 cd cb ff ff       	callq  6b93 <safe_mul_func_uint8_t_u_u>
    9fc6:	0f b6 d0             	movzbl %al,%edx
    9fc9:	48 8b 8d c8 f3 ff ff 	mov    -0xc38(%rbp),%rcx
    9fd0:	48 8b 85 68 f5 ff ff 	mov    -0xa98(%rbp),%rax
    9fd7:	48 89 08             	mov    %rcx,(%rax)
    9fda:	48 8b 85 68 f5 ff ff 	mov    -0xa98(%rbp),%rax
    9fe1:	48 8b 08             	mov    (%rax),%rcx
    9fe4:	48 8b 05 ed 94 01 00 	mov    0x194ed(%rip),%rax        # 234d8 <g_1455>
    9feb:	48 8b 00             	mov    (%rax),%rax
    9fee:	48 8b 00             	mov    (%rax),%rax
    9ff1:	48 39 c1             	cmp    %rax,%rcx
    9ff4:	0f 94 c0             	sete   %al
    9ff7:	0f b6 c0             	movzbl %al,%eax
    9ffa:	89 d6                	mov    %edx,%esi
    9ffc:	89 c7                	mov    %eax,%edi
    9ffe:	e8 13 c4 ff ff       	callq  6416 <safe_mod_func_int16_t_s_s>
    a003:	66 83 f8 04          	cmp    $0x4,%ax
    a007:	0f 9e c0             	setle  %al
    a00a:	0f b6 c0             	movzbl %al,%eax
    a00d:	44 89 e6             	mov    %r12d,%esi
    a010:	89 c7                	mov    %eax,%edi
    a012:	e8 4c c5 ff ff       	callq  6563 <safe_rshift_func_int16_t_s_u>
    a017:	83 c8 47             	or     $0x47,%eax
    a01a:	66 85 c0             	test   %ax,%ax
    a01d:	0f 9f c0             	setg   %al
    a020:	0f b6 d0             	movzbl %al,%edx
    a023:	0f b7 85 f4 f5 ff ff 	movzwl -0xa0c(%rbp),%eax
    a02a:	98                   	cwtl   
    a02b:	21 d0                	and    %edx,%eax
    a02d:	89 de                	mov    %ebx,%esi
    a02f:	89 c7                	mov    %eax,%edi
    a031:	e8 9a ce ff ff       	callq  6ed0 <safe_sub_func_uint32_t_u_u>
    a036:	83 f8 01             	cmp    $0x1,%eax
    a039:	0f 95 c0             	setne  %al
    a03c:	0f b6 d0             	movzbl %al,%edx
    a03f:	8b 85 0c f3 ff ff    	mov    -0xcf4(%rbp),%eax
    a045:	8b 84 85 b0 f5 ff ff 	mov    -0xa50(%rbp,%rax,4),%eax
    a04c:	39 c2                	cmp    %eax,%edx
    a04e:	0f 95 c0             	setne  %al
    a051:	0f b6 d0             	movzbl %al,%edx
    a054:	8b 85 0c f3 ff ff    	mov    -0xcf4(%rbp),%eax
    a05a:	8b 84 85 b0 f5 ff ff 	mov    -0xa50(%rbp,%rax,4),%eax
    a061:	39 c2                	cmp    %eax,%edx
    a063:	0f 9d c0             	setge  %al
    a066:	0f b6 d0             	movzbl %al,%edx
    a069:	48 8b 05 28 a2 01 00 	mov    0x1a228(%rip),%rax        # 24298 <g_2567>
    a070:	48 39 85 40 f4 ff ff 	cmp    %rax,-0xbc0(%rbp)
    a077:	0f 95 c1             	setne  %cl
    a07a:	48 8b 05 cf 93 01 00 	mov    0x193cf(%rip),%rax        # 23450 <g_747>
    a081:	88 08                	mov    %cl,(%rax)
    a083:	0f b6 00             	movzbl (%rax),%eax
    a086:	0f b6 c0             	movzbl %al,%eax
    a089:	89 d6                	mov    %edx,%esi
    a08b:	89 c7                	mov    %eax,%edi
    a08d:	e8 01 cb ff ff       	callq  6b93 <safe_mul_func_uint8_t_u_u>
    a092:	0f b6 d0             	movzbl %al,%edx
    a095:	48 8b 85 e8 f3 ff ff 	mov    -0xc18(%rbp),%rax
    a09c:	8b 00                	mov    (%rax),%eax
    a09e:	39 c2                	cmp    %eax,%edx
    a0a0:	74 07                	je     a0a9 <func_1+0x28f4>
    a0a2:	ba 01 00 00 00       	mov    $0x1,%edx
    a0a7:	eb 05                	jmp    a0ae <func_1+0x28f9>
    a0a9:	ba 00 00 00 00       	mov    $0x0,%edx
    a0ae:	48 8b 05 3b 94 01 00 	mov    0x1943b(%rip),%rax        # 234f0 <g_1685>
    a0b5:	48 8b 00             	mov    (%rax),%rax
    a0b8:	48 8b 08             	mov    (%rax),%rcx
    a0bb:	48 63 d2             	movslq %edx,%rdx
    a0be:	48 8b 05 2b 94 01 00 	mov    0x1942b(%rip),%rax        # 234f0 <g_1685>
    a0c5:	48 8b 00             	mov    (%rax),%rax
    a0c8:	48 09 ca             	or     %rcx,%rdx
    a0cb:	48 89 10             	mov    %rdx,(%rax)
    a0ce:	b8 f2 d1 d6 56       	mov    $0x56d6d1f2,%eax
    a0d3:	66 31 85 da f2 ff ff 	xor    %ax,-0xd26(%rbp)
    a0da:	c6 05 8f 3f 01 00 01 	movb   $0x1,0x13f8f(%rip)        # 1e070 <g_1034>
    a0e1:	e9 82 00 00 00       	jmpq   a168 <func_1+0x29b3>
    a0e6:	c7 85 90 f3 ff ff 51 	movl   $0x33aded51,-0xc70(%rbp)
    a0ed:	ed ad 33 
    a0f0:	c7 85 94 f3 ff ff ff 	movl   $0xffffffff,-0xc6c(%rbp)
    a0f7:	ff ff ff 
    a0fa:	c7 85 98 f3 ff ff 01 	movl   $0x1,-0xc68(%rbp)
    a101:	00 00 00 
    a104:	c7 85 9c f3 ff ff 01 	movl   $0x1,-0xc64(%rbp)
    a10b:	00 00 00 
    a10e:	c7 85 a0 f3 ff ff c2 	movl   $0x2f3b06c2,-0xc60(%rbp)
    a115:	06 3b 2f 
    a118:	c7 85 a4 f3 ff ff ff 	movl   $0xffffffff,-0xc5c(%rbp)
    a11f:	ff ff ff 
    a122:	c7 85 28 f3 ff ff 00 	movl   $0x0,-0xcd8(%rbp)
    a129:	00 00 00 
    a12c:	eb 1a                	jmp    a148 <func_1+0x2993>
    a12e:	8b 85 28 f3 ff ff    	mov    -0xcd8(%rbp),%eax
    a134:	48 98                	cltq   
    a136:	c7 84 85 40 f6 ff ff 	movl   $0x6c6dbe2f,-0x9c0(%rbp,%rax,4)
    a13d:	2f be 6d 6c 
    a141:	83 85 28 f3 ff ff 01 	addl   $0x1,-0xcd8(%rbp)
    a148:	83 bd 28 f3 ff ff 03 	cmpl   $0x3,-0xcd8(%rbp)
    a14f:	7e dd                	jle    a12e <func_1+0x2979>
    a151:	83 85 24 f3 ff ff 01 	addl   $0x1,-0xcdc(%rbp)
    a158:	0f b6 05 11 3f 01 00 	movzbl 0x13f11(%rip),%eax        # 1e070 <g_1034>
    a15f:	83 c0 01             	add    $0x1,%eax
    a162:	88 05 08 3f 01 00    	mov    %al,0x13f08(%rip)        # 1e070 <g_1034>
    a168:	0f b6 05 01 3f 01 00 	movzbl 0x13f01(%rip),%eax        # 1e070 <g_1034>
    a16f:	3c 07                	cmp    $0x7,%al
    a171:	0f 8e 6f ff ff ff    	jle    a0e6 <func_1+0x2931>
    a177:	83 85 0c f3 ff ff 01 	addl   $0x1,-0xcf4(%rbp)
    a17e:	83 bd 0c f3 ff ff 05 	cmpl   $0x5,-0xcf4(%rbp)
    a185:	0f 86 d8 fa ff ff    	jbe    9c63 <func_1+0x24ae>
    a18b:	48 8b 05 f4 5a 01 00 	mov    0x15af4(%rip),%rax        # 1fc86 <g_1617+0x6>
    a192:	48 83 c0 01          	add    $0x1,%rax
    a196:	48 89 05 e9 5a 01 00 	mov    %rax,0x15ae9(%rip)        # 1fc86 <g_1617+0x6>
    a19d:	48 8b 05 e2 5a 01 00 	mov    0x15ae2(%rip),%rax        # 1fc86 <g_1617+0x6>
    a1a4:	48 83 f8 12          	cmp    $0x12,%rax
    a1a8:	0f 8f ca dc ff ff    	jg     7e78 <func_1+0x6c3>
    a1ae:	eb 04                	jmp    a1b4 <func_1+0x29ff>
    a1b0:	90                   	nop
    a1b1:	eb 01                	jmp    a1b4 <func_1+0x29ff>
    a1b3:	90                   	nop
    a1b4:	8b 05 36 81 01 00    	mov    0x18136(%rip),%eax        # 222f0 <g_2485>
    a1ba:	c1 e0 0d             	shl    $0xd,%eax
    a1bd:	c1 f8 0d             	sar    $0xd,%eax
    a1c0:	85 c0                	test   %eax,%eax
    a1c2:	74 05                	je     a1c9 <func_1+0x2a14>
    a1c4:	e9 83 d8 ff ff       	jmpq   7a4c <func_1+0x297>
    a1c9:	48 8b 05 08 93 01 00 	mov    0x19308(%rip),%rax        # 234d8 <g_1455>
    a1d0:	48 8b 00             	mov    (%rax),%rax
    a1d3:	48 8b 00             	mov    (%rax),%rax
    a1d6:	48 8b 00             	mov    (%rax),%rax
    a1d9:	48 8b 30             	mov    (%rax),%rsi
    a1dc:	48 8b 8d b8 f2 ff ff 	mov    -0xd48(%rbp),%rcx
    a1e3:	48 8b 06             	mov    (%rsi),%rax
    a1e6:	48 8b 56 08          	mov    0x8(%rsi),%rdx
    a1ea:	48 89 01             	mov    %rax,(%rcx)
    a1ed:	48 89 51 08          	mov    %rdx,0x8(%rcx)
    a1f1:	0f b7 46 10          	movzwl 0x10(%rsi),%eax
    a1f5:	66 89 41 10          	mov    %ax,0x10(%rcx)
    a1f9:	48 8b 45 c8          	mov    -0x38(%rbp),%rax
    a1fd:	64 48 33 04 25 28 00 	xor    %fs:0x28,%rax
    a204:	00 00 
    a206:	74 05                	je     a20d <func_1+0x2a58>
    a208:	e8 63 be ff ff       	callq  6070 <__stack_chk_fail@plt>
    a20d:	48 8b 85 b8 f2 ff ff 	mov    -0xd48(%rbp),%rax
    a214:	48 81 c4 48 0d 00 00 	add    $0xd48,%rsp
    a21b:	5b                   	pop    %rbx
    a21c:	41 5c                	pop    %r12
    a21e:	41 5d                	pop    %r13
    a220:	41 5e                	pop    %r14
    a222:	41 5f                	pop    %r15
    a224:	5d                   	pop    %rbp
    a225:	c3                   	retq   

000000000000a226 <func_9>:
    a226:	f3 0f 1e fa          	endbr64 
    a22a:	55                   	push   %rbp
    a22b:	48 89 e5             	mov    %rsp,%rbp
    a22e:	41 55                	push   %r13
    a230:	41 54                	push   %r12
    a232:	53                   	push   %rbx
    a233:	48 81 ec 48 07 00 00 	sub    $0x748,%rsp
    a23a:	48 89 bd b8 f8 ff ff 	mov    %rdi,-0x748(%rbp)
    a241:	48 89 b5 b0 f8 ff ff 	mov    %rsi,-0x750(%rbp)
    a248:	48 89 95 a8 f8 ff ff 	mov    %rdx,-0x758(%rbp)
    a24f:	89 8d a4 f8 ff ff    	mov    %ecx,-0x75c(%rbp)
    a255:	64 48 8b 04 25 28 00 	mov    %fs:0x28,%rax
    a25c:	00 00 
    a25e:	48 89 45 d8          	mov    %rax,-0x28(%rbp)
    a262:	31 c0                	xor    %eax,%eax
    a264:	48 8d 85 10 f9 ff ff 	lea    -0x6f0(%rbp),%rax
    a26b:	48 8d 15 2e d4 00 00 	lea    0xd42e(%rip),%rdx        # 176a0 <g_2382+0x5a0>
    a272:	b9 d8 00 00 00       	mov    $0xd8,%ecx
    a277:	48 89 c7             	mov    %rax,%rdi
    a27a:	48 89 d6             	mov    %rdx,%rsi
    a27d:	f3 48 a5             	rep movsq %ds:(%rsi),%es:(%rdi)
    a280:	48 c7 85 d8 f8 ff ff 	movq   $0x0,-0x728(%rbp)
    a287:	00 00 00 00 
    a28b:	48 8d 05 26 3d 01 00 	lea    0x13d26(%rip),%rax        # 1dfb8 <g_842+0x8>
    a292:	48 89 85 e0 f8 ff ff 	mov    %rax,-0x720(%rbp)
    a299:	48 8d 05 46 5c 01 00 	lea    0x15c46(%rip),%rax        # 1fee6 <g_1663+0x6>
    a2a0:	48 89 85 c8 f8 ff ff 	mov    %rax,-0x738(%rbp)
    a2a7:	48 8d 85 c8 f8 ff ff 	lea    -0x738(%rbp),%rax
    a2ae:	48 89 85 e8 f8 ff ff 	mov    %rax,-0x718(%rbp)
    a2b5:	48 8d 85 10 f9 ff ff 	lea    -0x6f0(%rbp),%rax
    a2bc:	48 05 48 02 00 00    	add    $0x248,%rax
    a2c2:	48 89 85 d0 f8 ff ff 	mov    %rax,-0x730(%rbp)
    a2c9:	48 8d 85 d0 f8 ff ff 	lea    -0x730(%rbp),%rax
    a2d0:	48 89 85 f0 f8 ff ff 	mov    %rax,-0x710(%rbp)
    a2d7:	48 c7 85 f8 f8 ff ff 	movq   $0x0,-0x708(%rbp)
    a2de:	00 00 00 00 
    a2e2:	48 8d 05 a3 45 01 00 	lea    0x145a3(%rip),%rax        # 1e88c <g_1329+0xc>
    a2e9:	48 89 85 00 f9 ff ff 	mov    %rax,-0x700(%rbp)
    a2f0:	4c 8b a5 78 fb ff ff 	mov    -0x488(%rbp),%r12
    a2f7:	8b 85 a4 f8 ff ff    	mov    -0x75c(%rbp),%eax
    a2fd:	89 c2                	mov    %eax,%edx
    a2ff:	48 8b 85 e0 f8 ff ff 	mov    -0x720(%rbp),%rax
    a306:	66 89 10             	mov    %dx,(%rax)
    a309:	48 8b 85 e0 f8 ff ff 	mov    -0x720(%rbp),%rax
    a310:	0f b7 00             	movzwl (%rax),%eax
    a313:	0f b7 c0             	movzwl %ax,%eax
    a316:	be 09 00 00 00       	mov    $0x9,%esi
    a31b:	89 c7                	mov    %eax,%edi
    a31d:	e8 9c ca ff ff       	callq  6dbe <safe_lshift_func_uint16_t_u_s>
    a322:	0f b7 c8             	movzwl %ax,%ecx
    a325:	48 8b 85 e8 f8 ff ff 	mov    -0x718(%rbp),%rax
    a32c:	48 8d 95 10 f9 ff ff 	lea    -0x6f0(%rbp),%rdx
    a333:	48 81 c2 a8 00 00 00 	add    $0xa8,%rdx
    a33a:	48 89 10             	mov    %rdx,(%rax)
    a33d:	48 8b 85 e8 f8 ff ff 	mov    -0x718(%rbp),%rax
    a344:	48 8b 10             	mov    (%rax),%rdx
    a347:	48 8b 85 f0 f8 ff ff 	mov    -0x710(%rbp),%rax
    a34e:	48 89 10             	mov    %rdx,(%rax)
    a351:	48 8b 85 f0 f8 ff ff 	mov    -0x710(%rbp),%rax
    a358:	48 8b 00             	mov    (%rax),%rax
    a35b:	48 8d 15 e6 1d 01 00 	lea    0x11de6(%rip),%rdx        # 1c148 <g_173>
    a362:	48 39 d0             	cmp    %rdx,%rax
    a365:	0f 95 c0             	setne  %al
    a368:	0f b6 c0             	movzbl %al,%eax
    a36b:	39 c1                	cmp    %eax,%ecx
    a36d:	0f 95 c0             	setne  %al
    a370:	44 0f b6 e8          	movzbl %al,%r13d
    a374:	8b 9d a4 f8 ff ff    	mov    -0x75c(%rbp),%ebx
    a37a:	be 03 00 00 00       	mov    $0x3,%esi
    a37f:	bf f9 ff 00 00       	mov    $0xfff9,%edi
    a384:	e8 bf ca ff ff       	callq  6e48 <safe_rshift_func_uint16_t_u_s>
    a389:	48 8b 15 c0 90 01 00 	mov    0x190c0(%rip),%rdx        # 23450 <g_747>
    a390:	0f b6 12             	movzbl (%rdx),%edx
    a393:	0f b6 d2             	movzbl %dl,%edx
    a396:	66 39 d0             	cmp    %dx,%ax
    a399:	0f 94 c0             	sete   %al
    a39c:	0f b6 c0             	movzbl %al,%eax
    a39f:	89 de                	mov    %ebx,%esi
    a3a1:	89 c7                	mov    %eax,%edi
    a3a3:	e8 82 c1 ff ff       	callq  652a <safe_rshift_func_int16_t_s_s>
    a3a8:	48 8b 05 31 8b 01 00 	mov    0x18b31(%rip),%rax        # 22ee0 <g_303>
    a3af:	c7 00 ff ff ff ff    	movl   $0xffffffff,(%rax)
    a3b5:	8b 00                	mov    (%rax),%eax
    a3b7:	be 02 00 00 00       	mov    $0x2,%esi
    a3bc:	89 c7                	mov    %eax,%edi
    a3be:	e8 f5 ca ff ff       	callq  6eb8 <safe_add_func_uint32_t_u_u>
    a3c3:	89 c2                	mov    %eax,%edx
    a3c5:	48 8b 05 6a 1c 01 00 	mov    0x11c6a(%rip),%rax        # 1c036 <g_91+0x6>
    a3cc:	48 39 c2             	cmp    %rax,%rdx
    a3cf:	0f 9c c0             	setl   %al
    a3d2:	0f b6 c0             	movzbl %al,%eax
    a3d5:	be c1 ff ff ff       	mov    $0xffffffc1,%esi
    a3da:	89 c7                	mov    %eax,%edi
    a3dc:	e8 50 be ff ff       	callq  6231 <safe_mod_func_int8_t_s_s>
    a3e1:	48 0f be c0          	movsbq %al,%rax
    a3e5:	48 89 05 1a 44 01 00 	mov    %rax,0x1441a(%rip)        # 1e806 <g_1238+0x6>
    a3ec:	48 8b 05 13 44 01 00 	mov    0x14413(%rip),%rax        # 1e806 <g_1238+0x6>
    a3f3:	48 c7 c6 f8 ff ff ff 	mov    $0xfffffffffffffff8,%rsi
    a3fa:	48 89 c7             	mov    %rax,%rdi
    a3fd:	e8 f5 c5 ff ff       	callq  69f7 <safe_div_func_int64_t_s_s>
    a402:	48 85 c0             	test   %rax,%rax
    a405:	0f 94 c0             	sete   %al
    a408:	0f b6 c0             	movzbl %al,%eax
    a40b:	39 85 a4 f8 ff ff    	cmp    %eax,-0x75c(%rbp)
    a411:	0f 95 c0             	setne  %al
    a414:	89 c2                	mov    %eax,%edx
    a416:	48 8b 85 00 f9 ff ff 	mov    -0x700(%rbp),%rax
    a41d:	88 10                	mov    %dl,(%rax)
    a41f:	48 8b 85 00 f9 ff ff 	mov    -0x700(%rbp),%rax
    a426:	0f b6 00             	movzbl (%rax),%eax
    a429:	0f be c0             	movsbl %al,%eax
    a42c:	41 39 c5             	cmp    %eax,%r13d
    a42f:	0f 9f c0             	setg   %al
    a432:	0f b6 c0             	movzbl %al,%eax
    a435:	4c 21 e0             	and    %r12,%rax
    a438:	48 85 c0             	test   %rax,%rax
    a43b:	74 28                	je     a465 <func_9+0x23f>
    a43d:	48 c7 05 9e 5a 01 00 	movq   $0x3,0x15a9e(%rip)        # 1fee6 <g_1663+0x6>
    a444:	03 00 00 00 
    a448:	90                   	nop
    a449:	48 8b 05 96 5a 01 00 	mov    0x15a96(%rip),%rax        # 1fee6 <g_1663+0x6>
    a450:	48 85 c0             	test   %rax,%rax
    a453:	0f 88 e8 00 00 00    	js     a541 <func_9+0x31b>
    a459:	48 8b 85 10 fb ff ff 	mov    -0x4f0(%rbp),%rax
    a460:	e9 e3 00 00 00       	jmpq   a548 <func_9+0x322>
    a465:	c6 85 0b f9 ff ff f0 	movb   $0xf0,-0x6f5(%rbp)
    a46c:	c6 85 0c f9 ff ff 44 	movb   $0x44,-0x6f4(%rbp)
    a473:	c6 85 0d f9 ff ff f0 	movb   $0xf0,-0x6f3(%rbp)
    a47a:	c6 85 0e f9 ff ff 44 	movb   $0x44,-0x6f2(%rbp)
    a481:	c6 85 0f f9 ff ff f0 	movb   $0xf0,-0x6f1(%rbp)
    a488:	c7 85 c4 f8 ff ff 83 	movl   $0xef9fce83,-0x73c(%rbp)
    a48f:	ce 9f ef 
    a492:	48 8b 85 78 fb ff ff 	mov    -0x488(%rbp),%rax
    a499:	0f bf d8             	movswl %ax,%ebx
    a49c:	48 8b 05 ad 8f 01 00 	mov    0x18fad(%rip),%rax        # 23450 <g_747>
    a4a3:	0f b6 00             	movzbl (%rax),%eax
    a4a6:	0f be d0             	movsbl %al,%edx
    a4a9:	8b 85 a4 f8 ff ff    	mov    -0x75c(%rbp),%eax
    a4af:	0f be c0             	movsbl %al,%eax
    a4b2:	89 d6                	mov    %edx,%esi
    a4b4:	89 c7                	mov    %eax,%edi
    a4b6:	e8 57 bd ff ff       	callq  6212 <safe_mul_func_int8_t_s_s>
    a4bb:	0f be c0             	movsbl %al,%eax
    a4be:	89 de                	mov    %ebx,%esi
    a4c0:	89 c7                	mov    %eax,%edi
    a4c2:	e8 0c bf ff ff       	callq  63d3 <safe_sub_func_int16_t_s_s>
    a4c7:	0f bf d0             	movswl %ax,%edx
    a4ca:	48 8b 85 a8 f8 ff ff 	mov    -0x758(%rbp),%rax
    a4d1:	8b 00                	mov    (%rax),%eax
    a4d3:	39 c2                	cmp    %eax,%edx
    a4d5:	0f 9f c0             	setg   %al
    a4d8:	0f b6 d0             	movzbl %al,%edx
    a4db:	48 8b 85 e0 f8 ff ff 	mov    -0x720(%rbp),%rax
    a4e2:	66 89 10             	mov    %dx,(%rax)
    a4e5:	48 8b 85 e0 f8 ff ff 	mov    -0x720(%rbp),%rax
    a4ec:	0f b7 00             	movzwl (%rax),%eax
    a4ef:	0f b7 d8             	movzwl %ax,%ebx
    a4f2:	8b 85 a4 f8 ff ff    	mov    -0x75c(%rbp),%eax
    a4f8:	89 c6                	mov    %eax,%esi
    a4fa:	bf 00 00 00 00       	mov    $0x0,%edi
    a4ff:	e8 cc c9 ff ff       	callq  6ed0 <safe_sub_func_uint32_t_u_u>
    a504:	39 c3                	cmp    %eax,%ebx
    a506:	0f 94 c0             	sete   %al
    a509:	0f b6 c0             	movzbl %al,%eax
    a50c:	33 85 a4 f8 ff ff    	xor    -0x75c(%rbp),%eax
    a512:	39 85 a4 f8 ff ff    	cmp    %eax,-0x75c(%rbp)
    a518:	0f 92 c0             	setb   %al
    a51b:	0f b6 c0             	movzbl %al,%eax
    a51e:	89 c6                	mov    %eax,%esi
    a520:	bf 01 00 00 00       	mov    $0x1,%edi
    a525:	e8 aa bc ff ff       	callq  61d4 <safe_add_func_int8_t_s_s>
    a52a:	48 0f be c0          	movsbq %al,%rax
    a52e:	83 e0 05             	and    $0x5,%eax
    a531:	89 c2                	mov    %eax,%edx
    a533:	8b 85 c4 f8 ff ff    	mov    -0x73c(%rbp),%eax
    a539:	31 d0                	xor    %edx,%eax
    a53b:	89 85 c4 f8 ff ff    	mov    %eax,-0x73c(%rbp)
    a541:	48 8b 85 78 fb ff ff 	mov    -0x488(%rbp),%rax
    a548:	48 8b 4d d8          	mov    -0x28(%rbp),%rcx
    a54c:	64 48 33 0c 25 28 00 	xor    %fs:0x28,%rcx
    a553:	00 00 
    a555:	74 05                	je     a55c <func_9+0x336>
    a557:	e8 14 bb ff ff       	callq  6070 <__stack_chk_fail@plt>
    a55c:	48 81 c4 48 07 00 00 	add    $0x748,%rsp
    a563:	5b                   	pop    %rbx
    a564:	41 5c                	pop    %r12
    a566:	41 5d                	pop    %r13
    a568:	5d                   	pop    %rbp
    a569:	c3                   	retq   

000000000000a56a <func_14>:
    a56a:	f3 0f 1e fa          	endbr64 
    a56e:	55                   	push   %rbp
    a56f:	48 89 e5             	mov    %rsp,%rbp
    a572:	41 55                	push   %r13
    a574:	41 54                	push   %r12
    a576:	53                   	push   %rbx
    a577:	48 81 ec d8 00 00 00 	sub    $0xd8,%rsp
    a57e:	89 f8                	mov    %edi,%eax
    a580:	88 85 3c ff ff ff    	mov    %al,-0xc4(%rbp)
    a586:	64 48 8b 04 25 28 00 	mov    %fs:0x28,%rax
    a58d:	00 00 
    a58f:	48 89 45 d8          	mov    %rax,-0x28(%rbp)
    a593:	31 c0                	xor    %eax,%eax
    a595:	48 c7 85 58 ff ff ff 	movq   $0x1,-0xa8(%rbp)
    a59c:	01 00 00 00 
    a5a0:	48 8d 05 81 1a 01 00 	lea    0x11a81(%rip),%rax        # 1c028 <g_7>
    a5a7:	48 89 85 60 ff ff ff 	mov    %rax,-0xa0(%rbp)
    a5ae:	c7 85 44 ff ff ff e9 	movl   $0xa34071e9,-0xbc(%rbp)
    a5b5:	71 40 a3 
    a5b8:	48 c7 85 68 ff ff ff 	movq   $0x0,-0x98(%rbp)
    a5bf:	00 00 00 00 
    a5c3:	48 8d 05 2a 42 01 00 	lea    0x1422a(%rip),%rax        # 1e7f4 <g_1235>
    a5ca:	48 89 85 50 ff ff ff 	mov    %rax,-0xb0(%rbp)
    a5d1:	c7 85 4c ff ff ff 05 	movl   $0x5,-0xb4(%rbp)
    a5d8:	00 00 00 
    a5db:	c7 85 48 ff ff ff 00 	movl   $0x0,-0xb8(%rbp)
    a5e2:	00 00 00 
    a5e5:	eb 1b                	jmp    a602 <func_14+0x98>
    a5e7:	8b 85 48 ff ff ff    	mov    -0xb8(%rbp),%eax
    a5ed:	48 98                	cltq   
    a5ef:	48 c7 84 c5 70 ff ff 	movq   $0x0,-0x90(%rbp,%rax,8)
    a5f6:	ff 00 00 00 00 
    a5fb:	83 85 48 ff ff ff 01 	addl   $0x1,-0xb8(%rbp)
    a602:	83 bd 48 ff ff ff 05 	cmpl   $0x5,-0xb8(%rbp)
    a609:	7e dc                	jle    a5e7 <func_14+0x7d>
    a60b:	c7 85 48 ff ff ff 00 	movl   $0x0,-0xb8(%rbp)
    a612:	00 00 00 
    a615:	eb 1b                	jmp    a632 <func_14+0xc8>
    a617:	8b 85 48 ff ff ff    	mov    -0xb8(%rbp),%eax
    a61d:	48 98                	cltq   
    a61f:	48 8d 15 02 1a 01 00 	lea    0x11a02(%rip),%rdx        # 1c028 <g_7>
    a626:	48 89 54 c5 a0       	mov    %rdx,-0x60(%rbp,%rax,8)
    a62b:	83 85 48 ff ff ff 01 	addl   $0x1,-0xb8(%rbp)
    a632:	83 bd 48 ff ff ff 05 	cmpl   $0x5,-0xb8(%rbp)
    a639:	7e dc                	jle    a617 <func_14+0xad>
    a63b:	8b 05 e3 19 01 00    	mov    0x119e3(%rip),%eax        # 1c024 <g_5>
    a641:	85 c0                	test   %eax,%eax
    a643:	0f 84 6b 01 00 00    	je     a7b4 <func_14+0x24a>
    a649:	0f b6 85 3c ff ff ff 	movzbl -0xc4(%rbp),%eax
    a650:	8d 50 01             	lea    0x1(%rax),%edx
    a653:	88 95 3c ff ff ff    	mov    %dl,-0xc4(%rbp)
    a659:	84 c0                	test   %al,%al
    a65b:	0f 85 e0 00 00 00    	jne    a741 <func_14+0x1d7>
    a661:	48 8b 85 60 ff ff ff 	mov    -0xa0(%rbp),%rax
    a668:	8b 00                	mov    (%rax),%eax
    a66a:	0f be c0             	movsbl %al,%eax
    a66d:	be 06 00 00 00       	mov    $0x6,%esi
    a672:	89 c7                	mov    %eax,%edi
    a674:	e8 75 bc ff ff       	callq  62ee <safe_lshift_func_int8_t_s_u>
    a679:	44 0f be e8          	movsbl %al,%r13d
    a67d:	0f b6 9d 3c ff ff ff 	movzbl -0xc4(%rbp),%ebx
    a684:	48 8b 85 60 ff ff ff 	mov    -0xa0(%rbp),%rax
    a68b:	8b 00                	mov    (%rax),%eax
    a68d:	44 0f be e0          	movsbl %al,%r12d
    a691:	0f b6 95 3c ff ff ff 	movzbl -0xc4(%rbp),%edx
    a698:	8b 0d 8a 19 01 00    	mov    0x1198a(%rip),%ecx        # 1c028 <g_7>
    a69e:	48 8d 85 10 ff ff ff 	lea    -0xf0(%rbp),%rax
    a6a5:	89 ce                	mov    %ecx,%esi
    a6a7:	48 89 c7             	mov    %rax,%rdi
    a6aa:	e8 65 02 00 00       	callq  a914 <func_35>
    a6af:	80 bd 3c ff ff ff 00 	cmpb   $0x0,-0xc4(%rbp)
    a6b6:	0f 95 c2             	setne  %dl
    a6b9:	48 8b 85 50 ff ff ff 	mov    -0xb0(%rbp),%rax
    a6c0:	0f b6 d2             	movzbl %dl,%edx
    a6c3:	89 10                	mov    %edx,(%rax)
    a6c5:	8b 00                	mov    (%rax),%eax
    a6c7:	89 c2                	mov    %eax,%edx
    a6c9:	48 8b 05 30 88 01 00 	mov    0x18830(%rip),%rax        # 22f00 <g_371>
    a6d0:	48 8b 00             	mov    (%rax),%rax
    a6d3:	8b 00                	mov    (%rax),%eax
    a6d5:	39 c2                	cmp    %eax,%edx
    a6d7:	0f 94 c0             	sete   %al
    a6da:	0f b6 c0             	movzbl %al,%eax
    a6dd:	be a9 50 00 00       	mov    $0x50a9,%esi
    a6e2:	89 c7                	mov    %eax,%edi
    a6e4:	e8 16 c6 ff ff       	callq  6cff <safe_add_func_uint16_t_u_u>
    a6e9:	0f b6 c0             	movzbl %al,%eax
    a6ec:	44 89 e6             	mov    %r12d,%esi
    a6ef:	89 c7                	mov    %eax,%edi
    a6f1:	e8 00 02 00 00       	callq  a8f6 <func_30>
    a6f6:	48 89 de             	mov    %rbx,%rsi
    a6f9:	48 89 c7             	mov    %rax,%rdi
    a6fc:	e8 2d c9 ff ff       	callq  702e <safe_add_func_uint64_t_u_u>
    a701:	48 85 c0             	test   %rax,%rax
    a704:	74 07                	je     a70d <func_14+0x1a3>
    a706:	ba 01 00 00 00       	mov    $0x1,%edx
    a70b:	eb 05                	jmp    a712 <func_14+0x1a8>
    a70d:	ba 00 00 00 00       	mov    $0x0,%edx
    a712:	0f b6 85 3c ff ff ff 	movzbl -0xc4(%rbp),%eax
    a719:	39 c2                	cmp    %eax,%edx
    a71b:	0f 9c c0             	setl   %al
    a71e:	0f b6 d0             	movzbl %al,%edx
    a721:	8b 05 79 30 01 00    	mov    0x13079(%rip),%eax        # 1d7a0 <g_474>
    a727:	c1 e0 0d             	shl    $0xd,%eax
    a72a:	c1 f8 0d             	sar    $0xd,%eax
    a72d:	39 c2                	cmp    %eax,%edx
    a72f:	0f 9e c0             	setle  %al
    a732:	0f b6 c0             	movzbl %al,%eax
    a735:	41 39 c5             	cmp    %eax,%r13d
    a738:	74 07                	je     a741 <func_14+0x1d7>
    a73a:	ba 01 00 00 00       	mov    $0x1,%edx
    a73f:	eb 05                	jmp    a746 <func_14+0x1dc>
    a741:	ba 00 00 00 00       	mov    $0x0,%edx
    a746:	8b 05 9c 30 01 00    	mov    0x1309c(%rip),%eax        # 1d7e8 <g_517>
    a74c:	25 ff ff ff 1f       	and    $0x1fffffff,%eax
    a751:	39 c2                	cmp    %eax,%edx
    a753:	0f 9f c0             	setg   %al
    a756:	0f b6 d0             	movzbl %al,%edx
    a759:	48 8b 85 60 ff ff ff 	mov    -0xa0(%rbp),%rax
    a760:	8b 00                	mov    (%rax),%eax
    a762:	09 c2                	or     %eax,%edx
    a764:	48 8b 85 60 ff ff ff 	mov    -0xa0(%rbp),%rax
    a76b:	8b 00                	mov    (%rax),%eax
    a76d:	09 d0                	or     %edx,%eax
    a76f:	0f b7 d0             	movzwl %ax,%edx
    a772:	48 83 bd 60 ff ff ff 	cmpq   $0x0,-0xa0(%rbp)
    a779:	00 
    a77a:	0f 94 c0             	sete   %al
    a77d:	0f b6 c0             	movzbl %al,%eax
    a780:	89 d6                	mov    %edx,%esi
    a782:	89 c7                	mov    %eax,%edi
    a784:	e8 b4 c5 ff ff       	callq  6d3d <safe_mul_func_uint16_t_u_u>
    a789:	0f b7 d0             	movzwl %ax,%edx
    a78c:	8b 05 92 18 01 00    	mov    0x11892(%rip),%eax        # 1c024 <g_5>
    a792:	0f b7 c0             	movzwl %ax,%eax
    a795:	89 d6                	mov    %edx,%esi
    a797:	89 c7                	mov    %eax,%edi
    a799:	e8 81 c5 ff ff       	callq  6d1f <safe_sub_func_uint16_t_u_u>
    a79e:	0f b7 d0             	movzwl %ax,%edx
    a7a1:	48 8b 05 b4 1a 01 00 	mov    0x11ab4(%rip),%rax        # 1c25c <g_277+0x3c>
    a7a8:	48 39 c2             	cmp    %rax,%rdx
    a7ab:	7f 07                	jg     a7b4 <func_14+0x24a>
    a7ad:	b8 01 00 00 00       	mov    $0x1,%eax
    a7b2:	eb 05                	jmp    a7b9 <func_14+0x24f>
    a7b4:	b8 00 00 00 00       	mov    $0x0,%eax
    a7b9:	48 98                	cltq   
    a7bb:	48 39 85 58 ff ff ff 	cmp    %rax,-0xa8(%rbp)
    a7c2:	0f 92 c2             	setb   %dl
    a7c5:	48 8b 85 50 ff ff ff 	mov    -0xb0(%rbp),%rax
    a7cc:	0f b6 d2             	movzbl %dl,%edx
    a7cf:	89 10                	mov    %edx,(%rax)
    a7d1:	48 83 bd 58 ff ff ff 	cmpq   $0x0,-0xa8(%rbp)
    a7d8:	00 
    a7d9:	90                   	nop
    a7da:	f3 0f 1e fa          	endbr64 
    a7de:	48 8b 85 60 ff ff ff 	mov    -0xa0(%rbp),%rax
    a7e5:	c7 00 02 e0 e6 50    	movl   $0x50e6e002,(%rax)
    a7eb:	44 0f b6 ad 3c ff ff 	movzbl -0xc4(%rbp),%r13d
    a7f2:	ff 
    a7f3:	0f b6 9d 3c ff ff ff 	movzbl -0xc4(%rbp),%ebx
    a7fa:	48 8b 85 50 ff ff ff 	mov    -0xb0(%rbp),%rax
    a801:	8b 00                	mov    (%rax),%eax
    a803:	44 0f b7 e0          	movzwl %ax,%r12d
    a807:	0f b6 95 3c ff ff ff 	movzbl -0xc4(%rbp),%edx
    a80e:	48 8b 85 50 ff ff ff 	mov    -0xb0(%rbp),%rax
    a815:	8b 00                	mov    (%rax),%eax
    a817:	83 f8 01             	cmp    $0x1,%eax
    a81a:	0f 94 c0             	sete   %al
    a81d:	0f b6 c0             	movzbl %al,%eax
    a820:	89 d6                	mov    %edx,%esi
    a822:	89 c7                	mov    %eax,%edi
    a824:	e8 d4 c6 ff ff       	callq  6efd <safe_mod_func_uint32_t_u_u>
    a829:	f7 d0                	not    %eax
    a82b:	89 c6                	mov    %eax,%esi
    a82d:	bf ff 00 00 00       	mov    $0xff,%edi
    a832:	e8 56 c4 ff ff       	callq  6c8d <safe_rshift_func_uint8_t_u_s>
    a837:	83 c8 e3             	or     $0xffffffe3,%eax
    a83a:	0f b6 c0             	movzbl %al,%eax
    a83d:	44 89 e6             	mov    %r12d,%esi
    a840:	89 c7                	mov    %eax,%edi
    a842:	e8 15 c5 ff ff       	callq  6d5c <safe_mod_func_uint16_t_u_u>
    a847:	0f b6 95 3c ff ff ff 	movzbl -0xc4(%rbp),%edx
    a84e:	66 39 d0             	cmp    %dx,%ax
    a851:	0f 93 c0             	setae  %al
    a854:	0f b6 c0             	movzbl %al,%eax
    a857:	89 de                	mov    %ebx,%esi
    a859:	89 c7                	mov    %eax,%edi
    a85b:	e8 5e c4 ff ff       	callq  6cbe <safe_rshift_func_uint8_t_u_u>
    a860:	0f b6 d0             	movzbl %al,%edx
    a863:	48 8b 85 50 ff ff ff 	mov    -0xb0(%rbp),%rax
    a86a:	8b 00                	mov    (%rax),%eax
    a86c:	31 c2                	xor    %eax,%edx
    a86e:	0f b6 85 3c ff ff ff 	movzbl -0xc4(%rbp),%eax
    a875:	31 d0                	xor    %edx,%eax
    a877:	0f b7 d0             	movzwl %ax,%edx
    a87a:	48 8b 05 67 8c 01 00 	mov    0x18c67(%rip),%rax        # 234e8 <g_1462>
    a881:	48 8d 8d 50 ff ff ff 	lea    -0xb0(%rbp),%rcx
    a888:	48 89 08             	mov    %rcx,(%rax)
    a88b:	b8 00 00 00 00       	mov    $0x0,%eax
    a890:	0f b7 c0             	movzwl %ax,%eax
    a893:	89 d6                	mov    %edx,%esi
    a895:	89 c7                	mov    %eax,%edi
    a897:	e8 a1 c4 ff ff       	callq  6d3d <safe_mul_func_uint16_t_u_u>
    a89c:	98                   	cwtl   
    a89d:	be 03 00 00 00       	mov    $0x3,%esi
    a8a2:	89 c7                	mov    %eax,%edi
    a8a4:	e8 38 bc ff ff       	callq  64e1 <safe_lshift_func_int16_t_s_u>
    a8a9:	98                   	cwtl   
    a8aa:	44 89 ea             	mov    %r13d,%edx
    a8ad:	31 c2                	xor    %eax,%edx
    a8af:	48 8b 85 60 ff ff ff 	mov    -0xa0(%rbp),%rax
    a8b6:	8b 00                	mov    (%rax),%eax
    a8b8:	31 c2                	xor    %eax,%edx
    a8ba:	48 8b 85 60 ff ff ff 	mov    -0xa0(%rbp),%rax
    a8c1:	89 10                	mov    %edx,(%rax)
    a8c3:	83 ad 4c ff ff ff 01 	subl   $0x1,-0xb4(%rbp)
    a8ca:	48 8b 05 f7 82 01 00 	mov    0x182f7(%rip),%rax        # 22bc8 <g_166>
    a8d1:	48 8b 00             	mov    (%rax),%rax
    a8d4:	48 8b 4d d8          	mov    -0x28(%rbp),%rcx
    a8d8:	64 48 33 0c 25 28 00 	xor    %fs:0x28,%rcx
    a8df:	00 00 
    a8e1:	74 05                	je     a8e8 <func_14+0x37e>
    a8e3:	e8 88 b7 ff ff       	callq  6070 <__stack_chk_fail@plt>
    a8e8:	48 81 c4 d8 00 00 00 	add    $0xd8,%rsp
    a8ef:	5b                   	pop    %rbx
    a8f0:	41 5c                	pop    %r12
    a8f2:	41 5d                	pop    %r13
    a8f4:	5d                   	pop    %rbp
    a8f5:	c3                   	retq   

000000000000a8f6 <func_30>:
    a8f6:	f3 0f 1e fa          	endbr64 
    a8fa:	55                   	push   %rbp
    a8fb:	48 89 e5             	mov    %rsp,%rbp
    a8fe:	89 fa                	mov    %edi,%edx
    a900:	89 f0                	mov    %esi,%eax
    a902:	88 55 fc             	mov    %dl,-0x4(%rbp)
    a905:	88 45 f8             	mov    %al,-0x8(%rbp)
    a908:	48 8d 05 31 5a 01 00 	lea    0x15a31(%rip),%rax        # 20340 <g_1687>
    a90f:	48 8b 00             	mov    (%rax),%rax
    a912:	5d                   	pop    %rbp
    a913:	c3                   	retq   

000000000000a914 <func_35>:
    a914:	f3 0f 1e fa          	endbr64 
    a918:	55                   	push   %rbp
    a919:	48 89 e5             	mov    %rsp,%rbp
    a91c:	48 81 ec a0 05 00 00 	sub    $0x5a0,%rsp
    a923:	48 89 bd 68 fa ff ff 	mov    %rdi,-0x598(%rbp)
    a92a:	89 b5 64 fa ff ff    	mov    %esi,-0x59c(%rbp)
    a930:	89 95 60 fa ff ff    	mov    %edx,-0x5a0(%rbp)
    a936:	64 48 8b 04 25 28 00 	mov    %fs:0x28,%rax
    a93d:	00 00 
    a93f:	48 89 45 f8          	mov    %rax,-0x8(%rbp)
    a943:	31 c0                	xor    %eax,%eax
    a945:	c6 85 72 fa ff ff ff 	movb   $0xff,-0x58e(%rbp)
    a94c:	48 c7 85 a0 fa ff ff 	movq   $0x0,-0x560(%rbp)
    a953:	00 00 00 00 
    a957:	48 c7 85 c0 fa ff ff 	movq   $0x0,-0x540(%rbp)
    a95e:	00 00 00 00 
    a962:	48 8d 05 df 1b 01 00 	lea    0x11bdf(%rip),%rax        # 1c548 <g_374>
    a969:	48 89 85 c8 fa ff ff 	mov    %rax,-0x538(%rbp)
    a970:	48 8d 05 61 1c 01 00 	lea    0x11c61(%rip),%rax        # 1c5d8 <g_378+0x78>
    a977:	48 89 85 d0 fa ff ff 	mov    %rax,-0x530(%rbp)
    a97e:	48 c7 85 c0 fb ff ff 	movq   $0x0,-0x440(%rbp)
    a985:	00 00 00 00 
    a989:	48 c7 85 c8 fb ff ff 	movq   $0x0,-0x438(%rbp)
    a990:	00 00 00 00 
    a994:	48 c7 85 d0 fb ff ff 	movq   $0x0,-0x430(%rbp)
    a99b:	00 00 00 00 
    a99f:	48 c7 85 d8 fb ff ff 	movq   $0x0,-0x428(%rbp)
    a9a6:	00 00 00 00 
    a9aa:	48 c7 85 e0 fb ff ff 	movq   $0x0,-0x420(%rbp)
    a9b1:	00 00 00 00 
    a9b5:	48 c7 85 e8 fb ff ff 	movq   $0x0,-0x418(%rbp)
    a9bc:	00 00 00 00 
    a9c0:	48 c7 85 f0 fb ff ff 	movq   $0x0,-0x410(%rbp)
    a9c7:	00 00 00 00 
    a9cb:	48 c7 85 f8 fb ff ff 	movq   $0x0,-0x408(%rbp)
    a9d2:	00 00 00 00 
    a9d6:	48 8d 85 c0 fb ff ff 	lea    -0x440(%rbp),%rax
    a9dd:	48 83 c0 38          	add    $0x38,%rax
    a9e1:	48 89 85 d8 fa ff ff 	mov    %rax,-0x528(%rbp)
    a9e8:	48 8d 05 35 16 01 00 	lea    0x11635(%rip),%rax        # 1c024 <g_5>
    a9ef:	48 89 85 a8 fa ff ff 	mov    %rax,-0x558(%rbp)
    a9f6:	c7 85 84 fa ff ff 40 	movl   $0x8ca46340,-0x57c(%rbp)
    a9fd:	63 a4 8c 
    aa00:	c7 85 90 fb ff ff f8 	movl   $0x9036c8f8,-0x470(%rbp)
    aa07:	c8 36 90 
    aa0a:	c7 85 94 fb ff ff f8 	movl   $0x9036c8f8,-0x46c(%rbp)
    aa11:	c8 36 90 
    aa14:	c7 85 98 fb ff ff f8 	movl   $0x9036c8f8,-0x468(%rbp)
    aa1b:	c8 36 90 
    aa1e:	c7 85 9c fb ff ff f8 	movl   $0x9036c8f8,-0x464(%rbp)
    aa25:	c8 36 90 
    aa28:	c7 85 a0 fb ff ff f8 	movl   $0x9036c8f8,-0x460(%rbp)
    aa2f:	c8 36 90 
    aa32:	c7 85 a4 fb ff ff f8 	movl   $0x9036c8f8,-0x45c(%rbp)
    aa39:	c8 36 90 
    aa3c:	c7 85 a8 fb ff ff f8 	movl   $0x9036c8f8,-0x458(%rbp)
    aa43:	c8 36 90 
    aa46:	c7 85 ac fb ff ff f8 	movl   $0x9036c8f8,-0x454(%rbp)
    aa4d:	c8 36 90 
    aa50:	c7 85 b0 fb ff ff f8 	movl   $0x9036c8f8,-0x450(%rbp)
    aa57:	c8 36 90 
    aa5a:	c7 85 88 fa ff ff cf 	movl   $0xe3130ecf,-0x578(%rbp)
    aa61:	0e 13 e3 
    aa64:	c7 85 8c fa ff ff 62 	movl   $0x37864e62,-0x574(%rbp)
    aa6b:	4e 86 37 
    aa6e:	48 8d 05 93 17 01 00 	lea    0x11793(%rip),%rax        # 1c208 <g_261>
    aa75:	48 89 85 e0 fa ff ff 	mov    %rax,-0x520(%rbp)
    aa7c:	48 8d 05 85 17 01 00 	lea    0x11785(%rip),%rax        # 1c208 <g_261>
    aa83:	48 89 85 00 fc ff ff 	mov    %rax,-0x400(%rbp)
    aa8a:	48 8d 05 4f 9c 01 00 	lea    0x19c4f(%rip),%rax        # 246e0 <g_307>
    aa91:	48 89 85 08 fc ff ff 	mov    %rax,-0x3f8(%rbp)
    aa98:	48 8d 05 69 17 01 00 	lea    0x11769(%rip),%rax        # 1c208 <g_261>
    aa9f:	48 89 85 10 fc ff ff 	mov    %rax,-0x3f0(%rbp)
    aaa6:	48 8d 05 5b 17 01 00 	lea    0x1175b(%rip),%rax        # 1c208 <g_261>
    aaad:	48 89 85 18 fc ff ff 	mov    %rax,-0x3e8(%rbp)
    aab4:	48 8d 05 25 9c 01 00 	lea    0x19c25(%rip),%rax        # 246e0 <g_307>
    aabb:	48 89 85 20 fc ff ff 	mov    %rax,-0x3e0(%rbp)
    aac2:	48 8d 05 3f 17 01 00 	lea    0x1173f(%rip),%rax        # 1c208 <g_261>
    aac9:	48 89 85 28 fc ff ff 	mov    %rax,-0x3d8(%rbp)
    aad0:	48 8d 05 31 17 01 00 	lea    0x11731(%rip),%rax        # 1c208 <g_261>
    aad7:	48 89 85 30 fc ff ff 	mov    %rax,-0x3d0(%rbp)
    aade:	48 8d 05 fb 9b 01 00 	lea    0x19bfb(%rip),%rax        # 246e0 <g_307>
    aae5:	48 89 85 38 fc ff ff 	mov    %rax,-0x3c8(%rbp)
    aaec:	48 8d 05 15 17 01 00 	lea    0x11715(%rip),%rax        # 1c208 <g_261>
    aaf3:	48 89 85 40 fc ff ff 	mov    %rax,-0x3c0(%rbp)
    aafa:	48 8d 85 40 fb ff ff 	lea    -0x4c0(%rbp),%rax
    ab01:	48 89 85 70 fe ff ff 	mov    %rax,-0x190(%rbp)
    ab08:	48 c7 85 78 fe ff ff 	movq   $0x0,-0x188(%rbp)
    ab0f:	00 00 00 00 
    ab13:	48 c7 85 80 fe ff ff 	movq   $0x0,-0x180(%rbp)
    ab1a:	00 00 00 00 
    ab1e:	48 8d 85 40 fb ff ff 	lea    -0x4c0(%rbp),%rax
    ab25:	48 89 85 88 fe ff ff 	mov    %rax,-0x178(%rbp)
    ab2c:	48 c7 85 90 fe ff ff 	movq   $0x0,-0x170(%rbp)
    ab33:	00 00 00 00 
    ab37:	48 c7 85 98 fe ff ff 	movq   $0x0,-0x168(%rbp)
    ab3e:	00 00 00 00 
    ab42:	48 8d 85 40 fb ff ff 	lea    -0x4c0(%rbp),%rax
    ab49:	48 89 85 a0 fe ff ff 	mov    %rax,-0x160(%rbp)
    ab50:	48 c7 85 a8 fe ff ff 	movq   $0x0,-0x158(%rbp)
    ab57:	00 00 00 00 
    ab5b:	48 c7 85 b0 fe ff ff 	movq   $0x0,-0x150(%rbp)
    ab62:	00 00 00 00 
    ab66:	48 8d 85 40 fb ff ff 	lea    -0x4c0(%rbp),%rax
    ab6d:	48 89 85 b8 fe ff ff 	mov    %rax,-0x148(%rbp)
    ab74:	48 c7 85 c0 fe ff ff 	movq   $0x0,-0x140(%rbp)
    ab7b:	00 00 00 00 
    ab7f:	48 c7 85 c8 fe ff ff 	movq   $0x0,-0x138(%rbp)
    ab86:	00 00 00 00 
    ab8a:	48 8d 85 40 fb ff ff 	lea    -0x4c0(%rbp),%rax
    ab91:	48 89 85 d0 fe ff ff 	mov    %rax,-0x130(%rbp)
    ab98:	48 c7 85 d8 fe ff ff 	movq   $0x0,-0x128(%rbp)
    ab9f:	00 00 00 00 
    aba3:	48 c7 85 e0 fe ff ff 	movq   $0x0,-0x120(%rbp)
    abaa:	00 00 00 00 
    abae:	48 8d 85 40 fb ff ff 	lea    -0x4c0(%rbp),%rax
    abb5:	48 89 85 e8 fe ff ff 	mov    %rax,-0x118(%rbp)
    abbc:	48 c7 85 f0 fe ff ff 	movq   $0x0,-0x110(%rbp)
    abc3:	00 00 00 00 
    abc7:	48 c7 85 f8 fe ff ff 	movq   $0x0,-0x108(%rbp)
    abce:	00 00 00 00 
    abd2:	48 8d 85 40 fb ff ff 	lea    -0x4c0(%rbp),%rax
    abd9:	48 89 85 00 ff ff ff 	mov    %rax,-0x100(%rbp)
    abe0:	48 c7 85 08 ff ff ff 	movq   $0x0,-0xf8(%rbp)
    abe7:	00 00 00 00 
    abeb:	48 c7 85 10 ff ff ff 	movq   $0x0,-0xf0(%rbp)
    abf2:	00 00 00 00 
    abf6:	48 8d 85 40 fb ff ff 	lea    -0x4c0(%rbp),%rax
    abfd:	48 89 85 18 ff ff ff 	mov    %rax,-0xe8(%rbp)
    ac04:	48 c7 85 20 ff ff ff 	movq   $0x0,-0xe0(%rbp)
    ac0b:	00 00 00 00 
    ac0f:	48 c7 85 28 ff ff ff 	movq   $0x0,-0xd8(%rbp)
    ac16:	00 00 00 00 
    ac1a:	48 8d 85 40 fb ff ff 	lea    -0x4c0(%rbp),%rax
    ac21:	48 89 85 30 ff ff ff 	mov    %rax,-0xd0(%rbp)
    ac28:	48 c7 85 38 ff ff ff 	movq   $0x0,-0xc8(%rbp)
    ac2f:	00 00 00 00 
    ac33:	48 c7 85 40 ff ff ff 	movq   $0x0,-0xc0(%rbp)
    ac3a:	00 00 00 00 
    ac3e:	48 8d 85 40 fb ff ff 	lea    -0x4c0(%rbp),%rax
    ac45:	48 89 85 48 ff ff ff 	mov    %rax,-0xb8(%rbp)
    ac4c:	48 c7 85 50 ff ff ff 	movq   $0x0,-0xb0(%rbp)
    ac53:	00 00 00 00 
    ac57:	48 c7 85 58 ff ff ff 	movq   $0x0,-0xa8(%rbp)
    ac5e:	00 00 00 00 
    ac62:	48 8d 85 40 fb ff ff 	lea    -0x4c0(%rbp),%rax
    ac69:	48 89 85 60 ff ff ff 	mov    %rax,-0xa0(%rbp)
    ac70:	48 c7 85 68 ff ff ff 	movq   $0x0,-0x98(%rbp)
    ac77:	00 00 00 00 
    ac7b:	48 c7 85 70 ff ff ff 	movq   $0x0,-0x90(%rbp)
    ac82:	00 00 00 00 
    ac86:	48 8d 85 40 fb ff ff 	lea    -0x4c0(%rbp),%rax
    ac8d:	48 89 85 78 ff ff ff 	mov    %rax,-0x88(%rbp)
    ac94:	48 c7 45 80 00 00 00 	movq   $0x0,-0x80(%rbp)
    ac9b:	00 
    ac9c:	48 c7 45 88 00 00 00 	movq   $0x0,-0x78(%rbp)
    aca3:	00 
    aca4:	48 8d 85 40 fb ff ff 	lea    -0x4c0(%rbp),%rax
    acab:	48 89 45 90          	mov    %rax,-0x70(%rbp)
    acaf:	48 c7 45 98 00 00 00 	movq   $0x0,-0x68(%rbp)
    acb6:	00 
    acb7:	48 c7 45 a0 00 00 00 	movq   $0x0,-0x60(%rbp)
    acbe:	00 
    acbf:	48 8d 85 40 fb ff ff 	lea    -0x4c0(%rbp),%rax
    acc6:	48 89 45 a8          	mov    %rax,-0x58(%rbp)
    acca:	48 c7 45 b0 00 00 00 	movq   $0x0,-0x50(%rbp)
    acd1:	00 
    acd2:	48 c7 45 b8 00 00 00 	movq   $0x0,-0x48(%rbp)
    acd9:	00 
    acda:	48 8d 85 40 fb ff ff 	lea    -0x4c0(%rbp),%rax
    ace1:	48 89 45 c0          	mov    %rax,-0x40(%rbp)
    ace5:	48 c7 45 c8 00 00 00 	movq   $0x0,-0x38(%rbp)
    acec:	00 
    aced:	48 c7 45 d0 00 00 00 	movq   $0x0,-0x30(%rbp)
    acf4:	00 
    acf5:	48 8d 85 40 fb ff ff 	lea    -0x4c0(%rbp),%rax
    acfc:	48 89 45 d8          	mov    %rax,-0x28(%rbp)
    ad00:	48 c7 45 e0 00 00 00 	movq   $0x0,-0x20(%rbp)
    ad07:	00 
    ad08:	48 c7 45 e8 00 00 00 	movq   $0x0,-0x18(%rbp)
    ad0f:	00 
    ad10:	c7 85 90 fa ff ff ff 	movl   $0xffffffff,-0x570(%rbp)
    ad17:	ff ff ff 
    ad1a:	48 b8 cb dc c6 60 c3 	movabs $0xf92b58c360c6dccb,%rax
    ad21:	58 2b f9 
    ad24:	48 89 85 e8 fa ff ff 	mov    %rax,-0x518(%rbp)
    ad2b:	66 c7 85 76 fa ff ff 	movw   $0x4cc9,-0x58a(%rbp)
    ad32:	c9 4c 
    ad34:	66 c7 85 78 fa ff ff 	movw   $0xb7e6,-0x588(%rbp)
    ad3b:	e6 b7 
    ad3d:	48 c7 85 f0 fa ff ff 	movq   $0x0,-0x510(%rbp)
    ad44:	00 00 00 00 
    ad48:	c7 85 94 fa ff ff 04 	movl   $0x4,-0x56c(%rbp)
    ad4f:	00 00 00 
    ad52:	48 8d 85 50 fb ff ff 	lea    -0x4b0(%rbp),%rax
    ad59:	48 83 c0 08          	add    $0x8,%rax
    ad5d:	48 89 85 f0 fc ff ff 	mov    %rax,-0x310(%rbp)
    ad64:	48 8d 85 50 fb ff ff 	lea    -0x4b0(%rbp),%rax
    ad6b:	48 83 c0 08          	add    $0x8,%rax
    ad6f:	48 89 85 f8 fc ff ff 	mov    %rax,-0x308(%rbp)
    ad76:	48 c7 85 00 fd ff ff 	movq   $0x0,-0x300(%rbp)
    ad7d:	00 00 00 00 
    ad81:	48 8d 85 50 fb ff ff 	lea    -0x4b0(%rbp),%rax
    ad88:	48 83 c0 08          	add    $0x8,%rax
    ad8c:	48 89 85 08 fd ff ff 	mov    %rax,-0x2f8(%rbp)
    ad93:	48 8d 85 50 fb ff ff 	lea    -0x4b0(%rbp),%rax
    ad9a:	48 83 c0 10          	add    $0x10,%rax
    ad9e:	48 89 85 10 fd ff ff 	mov    %rax,-0x2f0(%rbp)
    ada5:	48 8d 85 50 fb ff ff 	lea    -0x4b0(%rbp),%rax
    adac:	48 83 c0 10          	add    $0x10,%rax
    adb0:	48 89 85 18 fd ff ff 	mov    %rax,-0x2e8(%rbp)
    adb7:	48 8d 85 50 fb ff ff 	lea    -0x4b0(%rbp),%rax
    adbe:	48 83 c0 10          	add    $0x10,%rax
    adc2:	48 89 85 20 fd ff ff 	mov    %rax,-0x2e0(%rbp)
    adc9:	48 c7 85 28 fd ff ff 	movq   $0x0,-0x2d8(%rbp)
    add0:	00 00 00 00 
    add4:	48 8d 85 50 fb ff ff 	lea    -0x4b0(%rbp),%rax
    addb:	48 83 c0 10          	add    $0x10,%rax
    addf:	48 89 85 30 fd ff ff 	mov    %rax,-0x2d0(%rbp)
    ade6:	48 8d 85 50 fb ff ff 	lea    -0x4b0(%rbp),%rax
    aded:	48 83 c0 10          	add    $0x10,%rax
    adf1:	48 89 85 38 fd ff ff 	mov    %rax,-0x2c8(%rbp)
    adf8:	48 8d 85 50 fb ff ff 	lea    -0x4b0(%rbp),%rax
    adff:	48 83 c0 10          	add    $0x10,%rax
    ae03:	48 89 85 40 fd ff ff 	mov    %rax,-0x2c0(%rbp)
    ae0a:	48 8d 85 50 fb ff ff 	lea    -0x4b0(%rbp),%rax
    ae11:	48 83 c0 08          	add    $0x8,%rax
    ae15:	48 89 85 48 fd ff ff 	mov    %rax,-0x2b8(%rbp)
    ae1c:	48 8d 85 50 fb ff ff 	lea    -0x4b0(%rbp),%rax
    ae23:	48 83 c0 10          	add    $0x10,%rax
    ae27:	48 89 85 50 fd ff ff 	mov    %rax,-0x2b0(%rbp)
    ae2e:	48 8d 85 50 fb ff ff 	lea    -0x4b0(%rbp),%rax
    ae35:	48 83 c0 08          	add    $0x8,%rax
    ae39:	48 89 85 58 fd ff ff 	mov    %rax,-0x2a8(%rbp)
    ae40:	48 8d 85 50 fb ff ff 	lea    -0x4b0(%rbp),%rax
    ae47:	48 83 c0 08          	add    $0x8,%rax
    ae4b:	48 89 85 60 fd ff ff 	mov    %rax,-0x2a0(%rbp)
    ae52:	48 8d 85 50 fb ff ff 	lea    -0x4b0(%rbp),%rax
    ae59:	48 83 c0 10          	add    $0x10,%rax
    ae5d:	48 89 85 68 fd ff ff 	mov    %rax,-0x298(%rbp)
    ae64:	48 8d 85 50 fb ff ff 	lea    -0x4b0(%rbp),%rax
    ae6b:	48 83 c0 10          	add    $0x10,%rax
    ae6f:	48 89 85 70 fd ff ff 	mov    %rax,-0x290(%rbp)
    ae76:	48 8d 85 50 fb ff ff 	lea    -0x4b0(%rbp),%rax
    ae7d:	48 83 c0 08          	add    $0x8,%rax
    ae81:	48 89 85 78 fd ff ff 	mov    %rax,-0x288(%rbp)
    ae88:	48 8d 85 50 fb ff ff 	lea    -0x4b0(%rbp),%rax
    ae8f:	48 83 c0 08          	add    $0x8,%rax
    ae93:	48 89 85 80 fd ff ff 	mov    %rax,-0x280(%rbp)
    ae9a:	48 c7 85 88 fd ff ff 	movq   $0x0,-0x278(%rbp)
    aea1:	00 00 00 00 
    aea5:	48 8d 85 50 fb ff ff 	lea    -0x4b0(%rbp),%rax
    aeac:	48 83 c0 10          	add    $0x10,%rax
    aeb0:	48 89 85 90 fd ff ff 	mov    %rax,-0x270(%rbp)
    aeb7:	48 8d 85 50 fb ff ff 	lea    -0x4b0(%rbp),%rax
    aebe:	48 83 c0 10          	add    $0x10,%rax
    aec2:	48 89 85 98 fd ff ff 	mov    %rax,-0x268(%rbp)
    aec9:	48 8d 85 50 fb ff ff 	lea    -0x4b0(%rbp),%rax
    aed0:	48 83 c0 10          	add    $0x10,%rax
    aed4:	48 89 85 a0 fd ff ff 	mov    %rax,-0x260(%rbp)
    aedb:	48 8d 85 50 fb ff ff 	lea    -0x4b0(%rbp),%rax
    aee2:	48 83 c0 10          	add    $0x10,%rax
    aee6:	48 89 85 a8 fd ff ff 	mov    %rax,-0x258(%rbp)
    aeed:	48 8d 05 4c 39 01 00 	lea    0x1394c(%rip),%rax        # 1e840 <g_1242+0x8>
    aef4:	48 89 85 b0 fd ff ff 	mov    %rax,-0x250(%rbp)
    aefb:	48 8d 05 3e 39 01 00 	lea    0x1393e(%rip),%rax        # 1e840 <g_1242+0x8>
    af02:	48 89 85 b8 fd ff ff 	mov    %rax,-0x248(%rbp)
    af09:	48 8d 05 30 39 01 00 	lea    0x13930(%rip),%rax        # 1e840 <g_1242+0x8>
    af10:	48 89 85 c0 fd ff ff 	mov    %rax,-0x240(%rbp)
    af17:	48 8d 05 22 39 01 00 	lea    0x13922(%rip),%rax        # 1e840 <g_1242+0x8>
    af1e:	48 89 85 c8 fd ff ff 	mov    %rax,-0x238(%rbp)
    af25:	48 8d 05 14 39 01 00 	lea    0x13914(%rip),%rax        # 1e840 <g_1242+0x8>
    af2c:	48 89 85 d0 fd ff ff 	mov    %rax,-0x230(%rbp)
    af33:	48 8d 05 06 39 01 00 	lea    0x13906(%rip),%rax        # 1e840 <g_1242+0x8>
    af3a:	48 89 85 d8 fd ff ff 	mov    %rax,-0x228(%rbp)
    af41:	48 8d 05 f8 38 01 00 	lea    0x138f8(%rip),%rax        # 1e840 <g_1242+0x8>
    af48:	48 89 85 e0 fd ff ff 	mov    %rax,-0x220(%rbp)
    af4f:	48 8d 05 ea 38 01 00 	lea    0x138ea(%rip),%rax        # 1e840 <g_1242+0x8>
    af56:	48 89 85 e8 fd ff ff 	mov    %rax,-0x218(%rbp)
    af5d:	48 8d 05 dc 38 01 00 	lea    0x138dc(%rip),%rax        # 1e840 <g_1242+0x8>
    af64:	48 89 85 f0 fd ff ff 	mov    %rax,-0x210(%rbp)
    af6b:	48 8d 05 ce 38 01 00 	lea    0x138ce(%rip),%rax        # 1e840 <g_1242+0x8>
    af72:	48 89 85 f8 fd ff ff 	mov    %rax,-0x208(%rbp)
    af79:	48 8d 05 c0 38 01 00 	lea    0x138c0(%rip),%rax        # 1e840 <g_1242+0x8>
    af80:	48 89 85 00 fe ff ff 	mov    %rax,-0x200(%rbp)
    af87:	48 8d 05 b2 38 01 00 	lea    0x138b2(%rip),%rax        # 1e840 <g_1242+0x8>
    af8e:	48 89 85 08 fe ff ff 	mov    %rax,-0x1f8(%rbp)
    af95:	48 8d 05 a4 38 01 00 	lea    0x138a4(%rip),%rax        # 1e840 <g_1242+0x8>
    af9c:	48 89 85 10 fe ff ff 	mov    %rax,-0x1f0(%rbp)
    afa3:	48 8d 05 96 38 01 00 	lea    0x13896(%rip),%rax        # 1e840 <g_1242+0x8>
    afaa:	48 89 85 18 fe ff ff 	mov    %rax,-0x1e8(%rbp)
    afb1:	48 8d 05 88 38 01 00 	lea    0x13888(%rip),%rax        # 1e840 <g_1242+0x8>
    afb8:	48 89 85 20 fe ff ff 	mov    %rax,-0x1e0(%rbp)
    afbf:	48 8d 05 7a 38 01 00 	lea    0x1387a(%rip),%rax        # 1e840 <g_1242+0x8>
    afc6:	48 89 85 28 fe ff ff 	mov    %rax,-0x1d8(%rbp)
    afcd:	48 8d 05 6c 38 01 00 	lea    0x1386c(%rip),%rax        # 1e840 <g_1242+0x8>
    afd4:	48 89 85 30 fe ff ff 	mov    %rax,-0x1d0(%rbp)
    afdb:	48 8d 05 5e 38 01 00 	lea    0x1385e(%rip),%rax        # 1e840 <g_1242+0x8>
    afe2:	48 89 85 38 fe ff ff 	mov    %rax,-0x1c8(%rbp)
    afe9:	48 8d 05 50 38 01 00 	lea    0x13850(%rip),%rax        # 1e840 <g_1242+0x8>
    aff0:	48 89 85 40 fe ff ff 	mov    %rax,-0x1c0(%rbp)
    aff7:	48 8d 05 42 38 01 00 	lea    0x13842(%rip),%rax        # 1e840 <g_1242+0x8>
    affe:	48 89 85 48 fe ff ff 	mov    %rax,-0x1b8(%rbp)
    b005:	48 8d 05 34 38 01 00 	lea    0x13834(%rip),%rax        # 1e840 <g_1242+0x8>
    b00c:	48 89 85 50 fe ff ff 	mov    %rax,-0x1b0(%rbp)
    b013:	48 8d 05 26 38 01 00 	lea    0x13826(%rip),%rax        # 1e840 <g_1242+0x8>
    b01a:	48 89 85 58 fe ff ff 	mov    %rax,-0x1a8(%rbp)
    b021:	48 8d 05 18 38 01 00 	lea    0x13818(%rip),%rax        # 1e840 <g_1242+0x8>
    b028:	48 89 85 60 fe ff ff 	mov    %rax,-0x1a0(%rbp)
    b02f:	48 8d 05 0a 38 01 00 	lea    0x1380a(%rip),%rax        # 1e840 <g_1242+0x8>
    b036:	48 89 85 68 fe ff ff 	mov    %rax,-0x198(%rbp)
    b03d:	48 8d 05 bc 7e 01 00 	lea    0x17ebc(%rip),%rax        # 22f00 <g_371>
    b044:	48 89 85 50 fc ff ff 	mov    %rax,-0x3b0(%rbp)
    b04b:	48 8d 05 ae 7e 01 00 	lea    0x17eae(%rip),%rax        # 22f00 <g_371>
    b052:	48 89 85 58 fc ff ff 	mov    %rax,-0x3a8(%rbp)
    b059:	48 8d 05 a0 7e 01 00 	lea    0x17ea0(%rip),%rax        # 22f00 <g_371>
    b060:	48 89 85 60 fc ff ff 	mov    %rax,-0x3a0(%rbp)
    b067:	48 8d 05 92 7e 01 00 	lea    0x17e92(%rip),%rax        # 22f00 <g_371>
    b06e:	48 89 85 68 fc ff ff 	mov    %rax,-0x398(%rbp)
    b075:	48 8d 05 84 7e 01 00 	lea    0x17e84(%rip),%rax        # 22f00 <g_371>
    b07c:	48 89 85 70 fc ff ff 	mov    %rax,-0x390(%rbp)
    b083:	48 8d 05 76 7e 01 00 	lea    0x17e76(%rip),%rax        # 22f00 <g_371>
    b08a:	48 89 85 78 fc ff ff 	mov    %rax,-0x388(%rbp)
    b091:	48 8d 05 68 7e 01 00 	lea    0x17e68(%rip),%rax        # 22f00 <g_371>
    b098:	48 89 85 80 fc ff ff 	mov    %rax,-0x380(%rbp)
    b09f:	48 8d 05 5a 7e 01 00 	lea    0x17e5a(%rip),%rax        # 22f00 <g_371>
    b0a6:	48 89 85 88 fc ff ff 	mov    %rax,-0x378(%rbp)
    b0ad:	48 8d 05 4c 7e 01 00 	lea    0x17e4c(%rip),%rax        # 22f00 <g_371>
    b0b4:	48 89 85 90 fc ff ff 	mov    %rax,-0x370(%rbp)
    b0bb:	48 8d 85 a8 fa ff ff 	lea    -0x558(%rbp),%rax
    b0c2:	48 89 85 b0 fa ff ff 	mov    %rax,-0x550(%rbp)
    b0c9:	48 8d 85 b0 fa ff ff 	lea    -0x550(%rbp),%rax
    b0d0:	48 89 85 f8 fa ff ff 	mov    %rax,-0x508(%rbp)
    b0d7:	48 b8 f2 5a cf 9c c8 	movabs $0x43bdddc89ccf5af2,%rax
    b0de:	dd bd 43 
    b0e1:	48 89 85 00 fb ff ff 	mov    %rax,-0x500(%rbp)
    b0e8:	c6 85 73 fa ff ff fc 	movb   $0xfc,-0x58d(%rbp)
    b0ef:	48 8d 85 76 fa ff ff 	lea    -0x58a(%rbp),%rax
    b0f6:	48 89 85 08 fb ff ff 	mov    %rax,-0x4f8(%rbp)
    b0fd:	48 8d 05 e4 26 01 00 	lea    0x126e4(%rip),%rax        # 1d7e8 <g_517>
    b104:	48 89 85 10 fb ff ff 	mov    %rax,-0x4f0(%rbp)
    b10b:	c6 85 74 fa ff ff ff 	movb   $0xff,-0x58c(%rbp)
    b112:	48 c7 85 18 fb ff ff 	movq   $0x2,-0x4e8(%rbp)
    b119:	02 00 00 00 
    b11d:	c6 85 75 fa ff ff 9a 	movb   $0x9a,-0x58b(%rbp)
    b124:	48 8d 05 bd 84 01 00 	lea    0x184bd(%rip),%rax        # 235e8 <g_1704+0xe8>
    b12b:	48 89 85 20 fb ff ff 	mov    %rax,-0x4e0(%rbp)
    b132:	48 b8 bf c2 42 37 96 	movabs $0xfe1535963742c2bf,%rax
    b139:	35 15 fe 
    b13c:	48 89 85 28 fb ff ff 	mov    %rax,-0x4d8(%rbp)
    b143:	c7 85 98 fa ff ff ff 	movl   $0xffffffff,-0x568(%rbp)
    b14a:	ff ff ff 
    b14d:	48 8d 85 50 fb ff ff 	lea    -0x4b0(%rbp),%rax
    b154:	48 89 85 30 fb ff ff 	mov    %rax,-0x4d0(%rbp)
    b15b:	66 c7 85 7a fa ff ff 	movw   $0xb45b,-0x586(%rbp)
    b162:	5b b4 
    b164:	48 8d 85 a0 fa ff ff 	lea    -0x560(%rbp),%rax
    b16b:	48 89 85 b8 fa ff ff 	mov    %rax,-0x548(%rbp)
    b172:	48 8d 85 b8 fa ff ff 	lea    -0x548(%rbp),%rax
    b179:	48 89 85 38 fb ff ff 	mov    %rax,-0x4c8(%rbp)
    b180:	66 c7 85 7c fa ff ff 	movw   $0x4,-0x584(%rbp)
    b187:	04 00 
    b189:	c7 85 70 fb ff ff f6 	movl   $0xfffffff6,-0x490(%rbp)
    b190:	ff ff ff 
    b193:	c7 85 74 fb ff ff f6 	movl   $0xfffffff6,-0x48c(%rbp)
    b19a:	ff ff ff 
    b19d:	c7 85 78 fb ff ff f6 	movl   $0xfffffff6,-0x488(%rbp)
    b1a4:	ff ff ff 
    b1a7:	c7 85 7c fb ff ff f6 	movl   $0xfffffff6,-0x484(%rbp)
    b1ae:	ff ff ff 
    b1b1:	c7 85 80 fb ff ff f6 	movl   $0xfffffff6,-0x480(%rbp)
    b1b8:	ff ff ff 
    b1bb:	c7 85 84 fb ff ff f6 	movl   $0xfffffff6,-0x47c(%rbp)
    b1c2:	ff ff ff 
    b1c5:	c7 85 88 fb ff ff f6 	movl   $0xfffffff6,-0x478(%rbp)
    b1cc:	ff ff ff 
    b1cf:	c7 85 8c fb ff ff f6 	movl   $0xfffffff6,-0x474(%rbp)
    b1d6:	ff ff ff 
    b1d9:	48 c7 85 a0 fc ff ff 	movq   $0x0,-0x360(%rbp)
    b1e0:	00 00 00 00 
    b1e4:	48 c7 85 a8 fc ff ff 	movq   $0x0,-0x358(%rbp)
    b1eb:	00 00 00 00 
    b1ef:	48 b8 e9 81 d7 0c 89 	movabs $0x90b211890cd781e9,%rax
    b1f6:	11 b2 90 
    b1f9:	48 89 85 b0 fc ff ff 	mov    %rax,-0x350(%rbp)
    b200:	48 c7 85 b8 fc ff ff 	movq   $0xfffffffffffffff8,-0x348(%rbp)
    b207:	f8 ff ff ff 
    b20b:	48 c7 85 c0 fc ff ff 	movq   $0xfffffffffffffff8,-0x340(%rbp)
    b212:	f8 ff ff ff 
    b216:	48 c7 85 c8 fc ff ff 	movq   $0x0,-0x338(%rbp)
    b21d:	00 00 00 00 
    b221:	48 c7 85 d0 fc ff ff 	movq   $0xfffffffffffffff8,-0x330(%rbp)
    b228:	f8 ff ff ff 
    b22c:	48 c7 85 d8 fc ff ff 	movq   $0xfffffffffffffff8,-0x328(%rbp)
    b233:	f8 ff ff ff 
    b237:	48 c7 85 e0 fc ff ff 	movq   $0x0,-0x320(%rbp)
    b23e:	00 00 00 00 
    b242:	c7 85 9c fa ff ff 12 	movl   $0xb8c24812,-0x564(%rbp)
    b249:	48 c2 b8 
    b24c:	66 c7 85 7e fa ff ff 	movw   $0x79d3,-0x582(%rbp)
    b253:	d3 79 
    b255:	c7 85 80 fa ff ff 00 	movl   $0x0,-0x580(%rbp)
    b25c:	00 00 00 
    b25f:	eb 1e                	jmp    b27f <func_35+0x96b>
    b261:	8b 85 80 fa ff ff    	mov    -0x580(%rbp),%eax
    b267:	48 98                	cltq   
    b269:	48 8d 15 d4 0d 01 00 	lea    0x10dd4(%rip),%rdx        # 1c044 <g_114>
    b270:	48 89 94 c5 40 fb ff 	mov    %rdx,-0x4c0(%rbp,%rax,8)
    b277:	ff 
    b278:	83 85 80 fa ff ff 01 	addl   $0x1,-0x580(%rbp)
    b27f:	83 bd 80 fa ff ff 00 	cmpl   $0x0,-0x580(%rbp)
    b286:	7e d9                	jle    b261 <func_35+0x94d>
    b288:	c7 85 80 fa ff ff 00 	movl   $0x0,-0x580(%rbp)
    b28f:	00 00 00 
    b292:	eb 1a                	jmp    b2ae <func_35+0x99a>
    b294:	8b 85 80 fa ff ff    	mov    -0x580(%rbp),%eax
    b29a:	48 98                	cltq   
    b29c:	c7 84 85 48 fb ff ff 	movl   $0x3d84cc16,-0x4b8(%rbp,%rax,4)
    b2a3:	16 cc 84 3d 
    b2a7:	83 85 80 fa ff ff 01 	addl   $0x1,-0x580(%rbp)
    b2ae:	83 bd 80 fa ff ff 01 	cmpl   $0x1,-0x580(%rbp)
    b2b5:	7e dd                	jle    b294 <func_35+0x980>
    b2b7:	c7 85 80 fa ff ff 00 	movl   $0x0,-0x580(%rbp)
    b2be:	00 00 00 
    b2c1:	eb 1e                	jmp    b2e1 <func_35+0x9cd>
    b2c3:	8b 85 80 fa ff ff    	mov    -0x580(%rbp),%eax
    b2c9:	48 98                	cltq   
    b2cb:	48 8d 15 9e 81 01 00 	lea    0x1819e(%rip),%rdx        # 23470 <g_1033>
    b2d2:	48 89 94 c5 50 fb ff 	mov    %rdx,-0x4b0(%rbp,%rax,8)
    b2d9:	ff 
    b2da:	83 85 80 fa ff ff 01 	addl   $0x1,-0x580(%rbp)
    b2e1:	83 bd 80 fa ff ff 02 	cmpl   $0x2,-0x580(%rbp)
    b2e8:	7e d9                	jle    b2c3 <func_35+0x9af>
    b2ea:	c7 85 80 fa ff ff 00 	movl   $0x0,-0x580(%rbp)
    b2f1:	00 00 00 
    b2f4:	eb 14                	jmp    b30a <func_35+0x9f6>
    b2f6:	8b 85 80 fa ff ff    	mov    -0x580(%rbp),%eax
    b2fc:	48 98                	cltq   
    b2fe:	c6 44 05 f5 3e       	movb   $0x3e,-0xb(%rbp,%rax,1)
    b303:	83 85 80 fa ff ff 01 	addl   $0x1,-0x580(%rbp)
    b30a:	83 bd 80 fa ff ff 02 	cmpl   $0x2,-0x580(%rbp)
    b311:	7e e3                	jle    b2f6 <func_35+0x9e2>
    b313:	48 8b 05 2e 81 01 00 	mov    0x1812e(%rip),%rax        # 23448 <g_740>
    b31a:	48 8b 30             	mov    (%rax),%rsi
    b31d:	48 8b 8d 68 fa ff ff 	mov    -0x598(%rbp),%rcx
    b324:	48 8b 06             	mov    (%rsi),%rax
    b327:	48 8b 56 08          	mov    0x8(%rsi),%rdx
    b32b:	48 89 01             	mov    %rax,(%rcx)
    b32e:	48 89 51 08          	mov    %rdx,0x8(%rcx)
    b332:	0f b7 46 10          	movzwl 0x10(%rsi),%eax
    b336:	66 89 41 10          	mov    %ax,0x10(%rcx)
    b33a:	48 8b 45 f8          	mov    -0x8(%rbp),%rax
    b33e:	64 48 33 04 25 28 00 	xor    %fs:0x28,%rax
    b345:	00 00 
    b347:	74 05                	je     b34e <func_35+0xa3a>
    b349:	e8 22 ad ff ff       	callq  6070 <__stack_chk_fail@plt>
    b34e:	48 8b 85 68 fa ff ff 	mov    -0x598(%rbp),%rax
    b355:	c9                   	leaveq 
    b356:	c3                   	retq   

000000000000b357 <func_43>:
    b357:	f3 0f 1e fa          	endbr64 
    b35b:	55                   	push   %rbp
    b35c:	48 89 e5             	mov    %rsp,%rbp
    b35f:	41 56                	push   %r14
    b361:	41 55                	push   %r13
    b363:	41 54                	push   %r12
    b365:	53                   	push   %rbx
    b366:	48 83 ec 30          	sub    $0x30,%rsp
    b36a:	89 7d bc             	mov    %edi,-0x44(%rbp)
    b36d:	89 f0                	mov    %esi,%eax
    b36f:	89 55 b4             	mov    %edx,-0x4c(%rbp)
    b372:	89 4d b0             	mov    %ecx,-0x50(%rbp)
    b375:	66 89 45 b8          	mov    %ax,-0x48(%rbp)
    b379:	c7 45 c8 ff ff ff ff 	movl   $0xffffffff,-0x38(%rbp)
    b380:	c7 45 cc ac bb e9 7c 	movl   $0x7ce9bbac,-0x34(%rbp)
    b387:	66 c7 45 c6 42 c7    	movw   $0xc742,-0x3a(%rbp)
    b38d:	48 8d 05 00 2c 01 00 	lea    0x12c00(%rip),%rax        # 1df94 <g_761>
    b394:	48 89 45 d0          	mov    %rax,-0x30(%rbp)
    b398:	48 8d 05 8d 0c 01 00 	lea    0x10c8d(%rip),%rax        # 1c02c <g_63>
    b39f:	48 89 45 d8          	mov    %rax,-0x28(%rbp)
    b3a3:	c7 45 b4 00 00 00 00 	movl   $0x0,-0x4c(%rbp)
    b3aa:	83 7d b4 32          	cmpl   $0x32,-0x4c(%rbp)
    b3ae:	74 17                	je     b3c7 <func_43+0x70>
    b3b0:	48 8b 05 b1 80 01 00 	mov    0x180b1(%rip),%rax        # 23468 <g_760>
    b3b7:	8b 00                	mov    (%rax),%eax
    b3b9:	85 c0                	test   %eax,%eax
    b3bb:	75 09                	jne    b3c6 <func_43+0x6f>
    b3bd:	0f b7 45 b8          	movzwl -0x48(%rbp),%eax
    b3c1:	e9 8a 01 00 00       	jmpq   b550 <func_43+0x1f9>
    b3c6:	90                   	nop
    b3c7:	48 8b 05 72 80 01 00 	mov    0x18072(%rip),%rax        # 23440 <g_708>
    b3ce:	8b 45 b4             	mov    -0x4c(%rbp),%eax
    b3d1:	0f be c0             	movsbl %al,%eax
    b3d4:	89 c6                	mov    %eax,%esi
    b3d6:	bf 00 00 00 00       	mov    $0x0,%edi
    b3db:	e8 32 ae ff ff       	callq  6212 <safe_mul_func_int8_t_s_s>
    b3e0:	0f be c0             	movsbl %al,%eax
    b3e3:	be 01 00 00 00       	mov    $0x1,%esi
    b3e8:	89 c7                	mov    %eax,%edi
    b3ea:	e8 03 ae ff ff       	callq  61f2 <safe_sub_func_int8_t_s_s>
    b3ef:	0f be c0             	movsbl %al,%eax
    b3f2:	21 45 cc             	and    %eax,-0x34(%rbp)
    b3f5:	48 8b 05 04 24 01 00 	mov    0x12404(%rip),%rax        # 1d800 <g_526>
    b3fc:	48 83 f8 4f          	cmp    $0x4f,%rax
    b400:	0f 97 c0             	seta   %al
    b403:	0f b6 d0             	movzbl %al,%edx
    b406:	0f bf 45 c6          	movswl -0x3a(%rbp),%eax
    b40a:	39 c2                	cmp    %eax,%edx
    b40c:	0f 9f c0             	setg   %al
    b40f:	0f b6 d0             	movzbl %al,%edx
    b412:	48 8b 45 d0          	mov    -0x30(%rbp),%rax
    b416:	8b 00                	mov    (%rax),%eax
    b418:	21 c2                	and    %eax,%edx
    b41a:	48 8b 45 d0          	mov    -0x30(%rbp),%rax
    b41e:	89 10                	mov    %edx,(%rax)
    b420:	0f b7 45 b8          	movzwl -0x48(%rbp),%eax
    b424:	0f be d8             	movsbl %al,%ebx
    b427:	8b 05 c3 24 01 00    	mov    0x124c3(%rip),%eax        # 1d8f0 <g_682>
    b42d:	25 ff ff ff 1f       	and    $0x1fffffff,%eax
    b432:	44 0f b6 e0          	movzbl %al,%r12d
    b436:	48 8b 45 d0          	mov    -0x30(%rbp),%rax
    b43a:	8b 00                	mov    (%rax),%eax
    b43c:	44 0f be e8          	movsbl %al,%r13d
    b440:	48 8b 45 d0          	mov    -0x30(%rbp),%rax
    b444:	44 8b 30             	mov    (%rax),%r14d
    b447:	83 7d b4 00          	cmpl   $0x0,-0x4c(%rbp)
    b44b:	0f 95 c0             	setne  %al
    b44e:	0f b6 c0             	movzbl %al,%eax
    b451:	be 08 00 00 00       	mov    $0x8,%esi
    b456:	89 c7                	mov    %eax,%edi
    b458:	e8 35 b0 ff ff       	callq  6492 <safe_lshift_func_int16_t_s_s>
    b45d:	98                   	cwtl   
    b45e:	41 31 c6             	xor    %eax,%r14d
    b461:	48 8b 45 d0          	mov    -0x30(%rbp),%rax
    b465:	8b 10                	mov    (%rax),%edx
    b467:	8b 45 bc             	mov    -0x44(%rbp),%eax
    b46a:	89 d6                	mov    %edx,%esi
    b46c:	89 c7                	mov    %eax,%edi
    b46e:	e8 43 b1 ff ff       	callq  65b6 <safe_add_func_int32_t_s_s>
    b473:	8b 45 b0             	mov    -0x50(%rbp),%eax
    b476:	48 63 d0             	movslq %eax,%rdx
    b479:	8b 45 b4             	mov    -0x4c(%rbp),%eax
    b47c:	48 89 d6             	mov    %rdx,%rsi
    b47f:	48 89 c7             	mov    %rax,%rdi
    b482:	e8 70 b5 ff ff       	callq  69f7 <safe_div_func_int64_t_s_s>
    b487:	48 89 c2             	mov    %rax,%rdx
    b48a:	b8 fa ff ff ff       	mov    $0xfffffffa,%eax
    b48f:	48 39 c2             	cmp    %rax,%rdx
    b492:	0f 96 c0             	setbe  %al
    b495:	0f b6 d0             	movzbl %al,%edx
    b498:	b8 0b 00 00 00       	mov    $0xb,%eax
    b49d:	0f b7 c0             	movzwl %ax,%eax
    b4a0:	39 c2                	cmp    %eax,%edx
    b4a2:	74 10                	je     b4b4 <func_43+0x15d>
    b4a4:	0f b7 05 4f 24 01 00 	movzwl 0x1244f(%rip),%eax        # 1d8fa <g_682+0xa>
    b4ab:	66 25 ff 03          	and    $0x3ff,%ax
    b4af:	66 85 c0             	test   %ax,%ax
    b4b2:	74 07                	je     b4bb <func_43+0x164>
    b4b4:	b8 01 00 00 00       	mov    $0x1,%eax
    b4b9:	eb 05                	jmp    b4c0 <func_43+0x169>
    b4bb:	b8 00 00 00 00       	mov    $0x0,%eax
    b4c0:	44 39 f0             	cmp    %r14d,%eax
    b4c3:	0f 94 c0             	sete   %al
    b4c6:	0f b6 d0             	movzbl %al,%edx
    b4c9:	48 8b 05 f8 76 01 00 	mov    0x176f8(%rip),%rax        # 22bc8 <g_166>
    b4d0:	48 8b 00             	mov    (%rax),%rax
    b4d3:	8b 00                	mov    (%rax),%eax
    b4d5:	39 45 bc             	cmp    %eax,-0x44(%rbp)
    b4d8:	0f 96 c0             	setbe  %al
    b4db:	0f b6 c0             	movzbl %al,%eax
    b4de:	89 d6                	mov    %edx,%esi
    b4e0:	89 c7                	mov    %eax,%edi
    b4e2:	e8 2b ad ff ff       	callq  6212 <safe_mul_func_int8_t_s_s>
    b4e7:	66 98                	cbtw   
    b4e9:	0f b7 c0             	movzwl %ax,%eax
    b4ec:	be ff ff 00 00       	mov    $0xffff,%esi
    b4f1:	89 c7                	mov    %eax,%edi
    b4f3:	e8 64 b8 ff ff       	callq  6d5c <safe_mod_func_uint16_t_u_u>
    b4f8:	0f b7 d0             	movzwl %ax,%edx
    b4fb:	48 8b 45 d0          	mov    -0x30(%rbp),%rax
    b4ff:	8b 00                	mov    (%rax),%eax
    b501:	39 c2                	cmp    %eax,%edx
    b503:	0f 9f c0             	setg   %al
    b506:	89 c2                	mov    %eax,%edx
    b508:	48 8b 45 d8          	mov    -0x28(%rbp),%rax
    b50c:	88 10                	mov    %dl,(%rax)
    b50e:	44 89 ee             	mov    %r13d,%esi
    b511:	bf 01 00 00 00       	mov    $0x1,%edi
    b516:	e8 f7 ac ff ff       	callq  6212 <safe_mul_func_int8_t_s_s>
    b51b:	44 89 e6             	mov    %r12d,%esi
    b51e:	bf 00 00 00 00       	mov    $0x0,%edi
    b523:	e8 86 b6 ff ff       	callq  6bae <safe_mod_func_uint8_t_u_u>
    b528:	0f b6 c0             	movzbl %al,%eax
    b52b:	48 89 c6             	mov    %rax,%rsi
    b52e:	bf 03 00 00 00       	mov    $0x3,%edi
    b533:	e8 09 b3 ff ff       	callq  6841 <safe_add_func_int64_t_s_s>
    b538:	0f be c0             	movsbl %al,%eax
    b53b:	89 de                	mov    %ebx,%esi
    b53d:	89 c7                	mov    %eax,%edi
    b53f:	e8 26 ad ff ff       	callq  626a <safe_div_func_int8_t_s_s>
    b544:	0f be d0             	movsbl %al,%edx
    b547:	48 8b 45 d0          	mov    -0x30(%rbp),%rax
    b54b:	89 10                	mov    %edx,(%rax)
    b54d:	8b 45 b0             	mov    -0x50(%rbp),%eax
    b550:	48 83 c4 30          	add    $0x30,%rsp
    b554:	5b                   	pop    %rbx
    b555:	41 5c                	pop    %r12
    b557:	41 5d                	pop    %r13
    b559:	41 5e                	pop    %r14
    b55b:	5d                   	pop    %rbp
    b55c:	c3                   	retq   

000000000000b55d <func_48>:
    b55d:	f3 0f 1e fa          	endbr64 
    b561:	55                   	push   %rbp
    b562:	48 89 e5             	mov    %rsp,%rbp
    b565:	48 81 ec e0 02 00 00 	sub    $0x2e0,%rsp
    b56c:	48 89 bd 38 fd ff ff 	mov    %rdi,-0x2c8(%rbp)
    b573:	48 89 b5 30 fd ff ff 	mov    %rsi,-0x2d0(%rbp)
    b57a:	89 d0                	mov    %edx,%eax
    b57c:	48 89 8d 20 fd ff ff 	mov    %rcx,-0x2e0(%rbp)
    b583:	66 89 85 2c fd ff ff 	mov    %ax,-0x2d4(%rbp)
    b58a:	64 48 8b 04 25 28 00 	mov    %fs:0x28,%rax
    b591:	00 00 
    b593:	48 89 45 f8          	mov    %rax,-0x8(%rbp)
    b597:	31 c0                	xor    %eax,%eax
    b599:	48 8d 85 50 fd ff ff 	lea    -0x2b0(%rbp),%rax
    b5a0:	48 8d 15 b9 c7 00 00 	lea    0xc7b9(%rip),%rdx        # 17d60 <g_2382+0xc60>
    b5a7:	b9 54 00 00 00       	mov    $0x54,%ecx
    b5ac:	48 89 c7             	mov    %rax,%rdi
    b5af:	48 89 d6             	mov    %rdx,%rsi
    b5b2:	f3 48 a5             	rep movsq %ds:(%rsi),%es:(%rdi)
    b5b5:	48 8b 05 fc 75 01 00 	mov    0x175fc(%rip),%rax        # 22bb8 <g_148>
    b5bc:	48 8b 85 20 fd ff ff 	mov    -0x2e0(%rbp),%rax
    b5c3:	8b 10                	mov    (%rax),%edx
    b5c5:	48 8b 85 30 fd ff ff 	mov    -0x2d0(%rbp),%rax
    b5cc:	89 10                	mov    %edx,(%rax)
    b5ce:	48 8b 05 93 7e 01 00 	mov    0x17e93(%rip),%rax        # 23468 <g_760>
    b5d5:	48 8b 95 30 fd ff ff 	mov    -0x2d0(%rbp),%rdx
    b5dc:	8b 12                	mov    (%rdx),%edx
    b5de:	89 10                	mov    %edx,(%rax)
    b5e0:	66 c7 05 0f 23 01 00 	movw   $0x0,0x1230f(%rip)        # 1d8f8 <g_682+0x8>
    b5e7:	00 00 
    b5e9:	90                   	nop
    b5ea:	0f b7 05 07 23 01 00 	movzwl 0x12307(%rip),%eax        # 1d8f8 <g_682+0x8>
    b5f1:	66 83 f8 03          	cmp    $0x3,%ax
    b5f5:	76 12                	jbe    b609 <func_48+0xac>
    b5f7:	c7 85 4c fd ff ff 00 	movl   $0x0,-0x2b4(%rbp)
    b5fe:	00 00 00 
    b601:	8b 85 4c fd ff ff    	mov    -0x2b4(%rbp),%eax
    b607:	eb 07                	jmp    b610 <func_48+0xb3>
    b609:	0f b7 85 2c fd ff ff 	movzwl -0x2d4(%rbp),%eax
    b610:	48 8b 4d f8          	mov    -0x8(%rbp),%rcx
    b614:	64 48 33 0c 25 28 00 	xor    %fs:0x28,%rcx
    b61b:	00 00 
    b61d:	74 05                	je     b624 <func_48+0xc7>
    b61f:	e8 4c aa ff ff       	callq  6070 <__stack_chk_fail@plt>
    b624:	c9                   	leaveq 
    b625:	c3                   	retq   

000000000000b626 <func_53>:
    b626:	f3 0f 1e fa          	endbr64 
    b62a:	55                   	push   %rbp
    b62b:	48 89 e5             	mov    %rsp,%rbp
    b62e:	48 83 ec 60          	sub    $0x60,%rsp
    b632:	48 89 7d a8          	mov    %rdi,-0x58(%rbp)
    b636:	64 48 8b 04 25 28 00 	mov    %fs:0x28,%rax
    b63d:	00 00 
    b63f:	48 89 45 f8          	mov    %rax,-0x8(%rbp)
    b643:	31 c0                	xor    %eax,%eax
    b645:	48 c7 45 d0 00 00 00 	movq   $0x0,-0x30(%rbp)
    b64c:	00 
    b64d:	48 8d 45 d0          	lea    -0x30(%rbp),%rax
    b651:	48 89 45 d8          	mov    %rax,-0x28(%rbp)
    b655:	c7 45 c0 01 00 00 00 	movl   $0x1,-0x40(%rbp)
    b65c:	c7 45 c8 e0 30 7f d8 	movl   $0xd87f30e0,-0x38(%rbp)
    b663:	66 c7 45 be be ca    	movw   $0xcabe,-0x42(%rbp)
    b669:	c6 05 58 90 01 00 e7 	movb   $0xe7,0x19058(%rip)        # 246c8 <g_79>
    b670:	e9 15 01 00 00       	jmpq   b78a <func_53+0x164>
    b675:	c7 45 cc 01 00 00 00 	movl   $0x1,-0x34(%rbp)
    b67c:	c7 45 c4 00 00 00 00 	movl   $0x0,-0x3c(%rbp)
    b683:	eb 12                	jmp    b697 <func_53+0x71>
    b685:	8b 45 c4             	mov    -0x3c(%rbp),%eax
    b688:	48 98                	cltq   
    b68a:	48 8d 55 d8          	lea    -0x28(%rbp),%rdx
    b68e:	48 89 54 c5 e0       	mov    %rdx,-0x20(%rbp,%rax,8)
    b693:	83 45 c4 01          	addl   $0x1,-0x3c(%rbp)
    b697:	83 7d c4 01          	cmpl   $0x1,-0x3c(%rbp)
    b69b:	7e e8                	jle    b685 <func_53+0x5f>
    b69d:	48 8b 45 d8          	mov    -0x28(%rbp),%rax
    b6a1:	48 89 05 b0 7d 01 00 	mov    %rax,0x17db0(%rip)        # 23458 <g_746>
    b6a8:	8b 45 c8             	mov    -0x38(%rbp),%eax
    b6ab:	83 75 c0 02          	xorl   $0x2,-0x40(%rbp)
    b6af:	48 8b 15 5a 78 01 00 	mov    0x1785a(%rip),%rdx        # 22f10 <g_400>
    b6b6:	48 8b 12             	mov    (%rdx),%rdx
    b6b9:	48 85 d2             	test   %rdx,%rdx
    b6bc:	0f 95 c2             	setne  %dl
    b6bf:	0f b6 d2             	movzbl %dl,%edx
    b6c2:	39 55 cc             	cmp    %edx,-0x34(%rbp)
    b6c5:	0f 95 c2             	setne  %dl
    b6c8:	0f b6 d2             	movzbl %dl,%edx
    b6cb:	0b 55 c0             	or     -0x40(%rbp),%edx
    b6ce:	89 c6                	mov    %eax,%esi
    b6d0:	89 d7                	mov    %edx,%edi
    b6d2:	e8 e1 b7 ff ff       	callq  6eb8 <safe_add_func_uint32_t_u_u>
    b6d7:	89 c2                	mov    %eax,%edx
    b6d9:	48 8b 05 80 7d 01 00 	mov    0x17d80(%rip),%rax        # 23460 <g_753>
    b6e0:	89 10                	mov    %edx,(%rax)
    b6e2:	c7 05 5c 0e 01 00 00 	movl   $0x0,0x10e5c(%rip)        # 1c548 <g_374>
    b6e9:	00 00 00 
    b6ec:	eb 75                	jmp    b763 <func_53+0x13d>
    b6ee:	66 c7 05 f9 20 01 00 	movw   $0x0,0x120f9(%rip)        # 1d7f0 <g_517+0x8>
    b6f5:	00 00 
    b6f7:	eb 4e                	jmp    b747 <func_53+0x121>
    b6f9:	8b 05 49 0e 01 00    	mov    0x10e49(%rip),%eax        # 1c548 <g_374>
    b6ff:	0f b7 15 ea 20 01 00 	movzwl 0x120ea(%rip),%edx        # 1d7f0 <g_517+0x8>
    b706:	0f b7 d2             	movzwl %dx,%edx
    b709:	48 63 ca             	movslq %edx,%rcx
    b70c:	48 63 d0             	movslq %eax,%rdx
    b70f:	48 89 d0             	mov    %rdx,%rax
    b712:	48 c1 e0 03          	shl    $0x3,%rax
    b716:	48 29 d0             	sub    %rdx,%rax
    b719:	48 01 c8             	add    %rcx,%rax
    b71c:	48 8d 14 c5 00 00 00 	lea    0x0(,%rax,8),%rdx
    b723:	00 
    b724:	48 8d 05 d5 73 01 00 	lea    0x173d5(%rip),%rax        # 22b00 <g_6>
    b72b:	48 8d 0d 16 0e 01 00 	lea    0x10e16(%rip),%rcx        # 1c548 <g_374>
    b732:	48 89 0c 02          	mov    %rcx,(%rdx,%rax,1)
    b736:	0f b7 05 b3 20 01 00 	movzwl 0x120b3(%rip),%eax        # 1d7f0 <g_517+0x8>
    b73d:	83 c0 01             	add    $0x1,%eax
    b740:	66 89 05 a9 20 01 00 	mov    %ax,0x120a9(%rip)        # 1d7f0 <g_517+0x8>
    b747:	0f b7 05 a2 20 01 00 	movzwl 0x120a2(%rip),%eax        # 1d7f0 <g_517+0x8>
    b74e:	66 83 f8 06          	cmp    $0x6,%ax
    b752:	76 a5                	jbe    b6f9 <func_53+0xd3>
    b754:	8b 05 ee 0d 01 00    	mov    0x10dee(%rip),%eax        # 1c548 <g_374>
    b75a:	83 c0 01             	add    $0x1,%eax
    b75d:	89 05 e5 0d 01 00    	mov    %eax,0x10de5(%rip)        # 1c548 <g_374>
    b763:	8b 05 df 0d 01 00    	mov    0x10ddf(%rip),%eax        # 1c548 <g_374>
    b769:	83 f8 02             	cmp    $0x2,%eax
    b76c:	7e 80                	jle    b6ee <func_53+0xc8>
    b76e:	0f b6 05 53 8f 01 00 	movzbl 0x18f53(%rip),%eax        # 246c8 <g_79>
    b775:	0f b6 c0             	movzbl %al,%eax
    b778:	be 05 00 00 00       	mov    $0x5,%esi
    b77d:	89 c7                	mov    %eax,%edi
    b77f:	e8 34 b7 ff ff       	callq  6eb8 <safe_add_func_uint32_t_u_u>
    b784:	88 05 3e 8f 01 00    	mov    %al,0x18f3e(%rip)        # 246c8 <g_79>
    b78a:	0f b6 05 37 8f 01 00 	movzbl 0x18f37(%rip),%eax        # 246c8 <g_79>
    b791:	3c 0d                	cmp    $0xd,%al
    b793:	0f 84 dc fe ff ff    	je     b675 <func_53+0x4f>
    b799:	0f b7 45 be          	movzwl -0x42(%rbp),%eax
    b79d:	83 e8 01             	sub    $0x1,%eax
    b7a0:	66 89 45 be          	mov    %ax,-0x42(%rbp)
    b7a4:	48 8b 45 a8          	mov    -0x58(%rbp),%rax
    b7a8:	48 8b 75 f8          	mov    -0x8(%rbp),%rsi
    b7ac:	64 48 33 34 25 28 00 	xor    %fs:0x28,%rsi
    b7b3:	00 00 
    b7b5:	74 05                	je     b7bc <func_53+0x196>
    b7b7:	e8 b4 a8 ff ff       	callq  6070 <__stack_chk_fail@plt>
    b7bc:	c9                   	leaveq 
    b7bd:	c3                   	retq   

000000000000b7be <func_55>:
    b7be:	f3 0f 1e fa          	endbr64 
    b7c2:	55                   	push   %rbp
    b7c3:	48 89 e5             	mov    %rsp,%rbp
    b7c6:	48 81 ec 80 0b 00 00 	sub    $0xb80,%rsp
    b7cd:	48 89 bd 98 f4 ff ff 	mov    %rdi,-0xb68(%rbp)
    b7d4:	48 89 b5 90 f4 ff ff 	mov    %rsi,-0xb70(%rbp)
    b7db:	89 95 8c f4 ff ff    	mov    %edx,-0xb74(%rbp)
    b7e1:	89 c8                	mov    %ecx,%eax
    b7e3:	88 85 88 f4 ff ff    	mov    %al,-0xb78(%rbp)
    b7e9:	64 48 8b 04 25 28 00 	mov    %fs:0x28,%rax
    b7f0:	00 00 
    b7f2:	48 89 45 f8          	mov    %rax,-0x8(%rbp)
    b7f6:	31 c0                	xor    %eax,%eax
    b7f8:	48 8d 05 49 0d 01 00 	lea    0x10d49(%rip),%rax        # 1c548 <g_374>
    b7ff:	48 89 85 a0 f5 ff ff 	mov    %rax,-0xa60(%rbp)
    b806:	48 8d 05 3b 0d 01 00 	lea    0x10d3b(%rip),%rax        # 1c548 <g_374>
    b80d:	48 89 85 a8 f5 ff ff 	mov    %rax,-0xa58(%rbp)
    b814:	48 8d 05 0d 08 01 00 	lea    0x1080d(%rip),%rax        # 1c028 <g_7>
    b81b:	48 89 85 b0 f5 ff ff 	mov    %rax,-0xa50(%rbp)
    b822:	48 8d 05 1f 0d 01 00 	lea    0x10d1f(%rip),%rax        # 1c548 <g_374>
    b829:	48 89 85 b8 f5 ff ff 	mov    %rax,-0xa48(%rbp)
    b830:	48 8d 05 11 0d 01 00 	lea    0x10d11(%rip),%rax        # 1c548 <g_374>
    b837:	48 89 85 c0 f5 ff ff 	mov    %rax,-0xa40(%rbp)
    b83e:	48 8d 05 e3 07 01 00 	lea    0x107e3(%rip),%rax        # 1c028 <g_7>
    b845:	48 89 85 c8 f5 ff ff 	mov    %rax,-0xa38(%rbp)
    b84c:	48 8d 05 f5 0c 01 00 	lea    0x10cf5(%rip),%rax        # 1c548 <g_374>
    b853:	48 89 85 d0 f5 ff ff 	mov    %rax,-0xa30(%rbp)
    b85a:	48 8d 05 e7 0c 01 00 	lea    0x10ce7(%rip),%rax        # 1c548 <g_374>
    b861:	48 89 85 d8 f5 ff ff 	mov    %rax,-0xa28(%rbp)
    b868:	48 8d 05 7d 0d 01 00 	lea    0x10d7d(%rip),%rax        # 1c5ec <g_378+0x8c>
    b86f:	48 89 85 f0 f4 ff ff 	mov    %rax,-0xb10(%rbp)
    b876:	c7 85 c0 f4 ff ff 05 	movl   $0x5,-0xb40(%rbp)
    b87d:	00 00 00 
    b880:	48 8d 85 80 f6 ff ff 	lea    -0x980(%rbp),%rax
    b887:	48 05 88 00 00 00    	add    $0x88,%rax
    b88d:	48 89 85 f8 f4 ff ff 	mov    %rax,-0xb08(%rbp)
    b894:	48 8d 05 a9 0c 01 00 	lea    0x10ca9(%rip),%rax        # 1c544 <g_355>
    b89b:	48 89 85 00 f5 ff ff 	mov    %rax,-0xb00(%rbp)
    b8a2:	48 c7 85 d8 f4 ff ff 	movq   $0x0,-0xb28(%rbp)
    b8a9:	00 00 00 00 
    b8ad:	48 8d 05 24 1f 01 00 	lea    0x11f24(%rip),%rax        # 1d7d8 <g_515>
    b8b4:	48 89 85 08 f5 ff ff 	mov    %rax,-0xaf8(%rbp)
    b8bb:	66 c7 85 b0 f4 ff ff 	movw   $0xffff,-0xb50(%rbp)
    b8c2:	ff ff 
    b8c4:	48 8d 05 35 8e 01 00 	lea    0x18e35(%rip),%rax        # 24700 <g_401+0x10>
    b8cb:	48 89 85 10 f5 ff ff 	mov    %rax,-0xaf0(%rbp)
    b8d2:	48 c7 85 18 f5 ff ff 	movq   $0x0,-0xae8(%rbp)
    b8d9:	00 00 00 00 
    b8dd:	48 c7 85 20 f5 ff ff 	movq   $0x0,-0xae0(%rbp)
    b8e4:	00 00 00 00 
    b8e8:	c7 85 b4 f4 ff ff 00 	movl   $0x0,-0xb4c(%rbp)
    b8ef:	00 00 00 
    b8f2:	eb 51                	jmp    b945 <func_55+0x187>
    b8f4:	c7 85 b8 f4 ff ff 00 	movl   $0x0,-0xb48(%rbp)
    b8fb:	00 00 00 
    b8fe:	eb 35                	jmp    b935 <func_55+0x177>
    b900:	8b 85 b8 f4 ff ff    	mov    -0xb48(%rbp),%eax
    b906:	48 63 c8             	movslq %eax,%rcx
    b909:	8b 85 b4 f4 ff ff    	mov    -0xb4c(%rbp),%eax
    b90f:	48 63 d0             	movslq %eax,%rdx
    b912:	48 89 d0             	mov    %rdx,%rax
    b915:	48 c1 e0 03          	shl    $0x3,%rax
    b919:	48 29 d0             	sub    %rdx,%rax
    b91c:	48 01 c8             	add    %rcx,%rax
    b91f:	48 8d 15 1c 07 01 00 	lea    0x1071c(%rip),%rdx        # 1c042 <g_102>
    b926:	48 89 94 c5 80 f6 ff 	mov    %rdx,-0x980(%rbp,%rax,8)
    b92d:	ff 
    b92e:	83 85 b8 f4 ff ff 01 	addl   $0x1,-0xb48(%rbp)
    b935:	83 bd b8 f4 ff ff 06 	cmpl   $0x6,-0xb48(%rbp)
    b93c:	7e c2                	jle    b900 <func_55+0x142>
    b93e:	83 85 b4 f4 ff ff 01 	addl   $0x1,-0xb4c(%rbp)
    b945:	83 bd b4 f4 ff ff 06 	cmpl   $0x6,-0xb4c(%rbp)
    b94c:	7e a6                	jle    b8f4 <func_55+0x136>
    b94e:	c7 85 b4 f4 ff ff 00 	movl   $0x0,-0xb4c(%rbp)
    b955:	00 00 00 
    b958:	eb 1e                	jmp    b978 <func_55+0x1ba>
    b95a:	8b 85 b4 f4 ff ff    	mov    -0xb4c(%rbp),%eax
    b960:	48 98                	cltq   
    b962:	48 8d 95 d8 f4 ff ff 	lea    -0xb28(%rbp),%rdx
    b969:	48 89 94 c5 e0 f5 ff 	mov    %rdx,-0xa20(%rbp,%rax,8)
    b970:	ff 
    b971:	83 85 b4 f4 ff ff 01 	addl   $0x1,-0xb4c(%rbp)
    b978:	83 bd b4 f4 ff ff 07 	cmpl   $0x7,-0xb4c(%rbp)
    b97f:	7e d9                	jle    b95a <func_55+0x19c>
    b981:	c7 85 b4 f4 ff ff 00 	movl   $0x0,-0xb4c(%rbp)
    b988:	00 00 00 
    b98b:	eb 1a                	jmp    b9a7 <func_55+0x1e9>
    b98d:	8b 85 b4 f4 ff ff    	mov    -0xb4c(%rbp),%eax
    b993:	48 98                	cltq   
    b995:	c7 84 85 8c f5 ff ff 	movl   $0x9,-0xa74(%rbp,%rax,4)
    b99c:	09 00 00 00 
    b9a0:	83 85 b4 f4 ff ff 01 	addl   $0x1,-0xb4c(%rbp)
    b9a7:	83 bd b4 f4 ff ff 01 	cmpl   $0x1,-0xb4c(%rbp)
    b9ae:	7e dd                	jle    b98d <func_55+0x1cf>
    b9b0:	48 8b 05 51 75 01 00 	mov    0x17551(%rip),%rax        # 22f08 <g_380>
    b9b7:	48 8b 95 d8 f5 ff ff 	mov    -0xa28(%rbp),%rdx
    b9be:	48 89 10             	mov    %rdx,(%rax)
    b9c1:	48 c7 05 3c 08 01 00 	movq   $0xffffffffffffffe8,0x1083c(%rip)        # 1c208 <g_261>
    b9c8:	e8 ff ff ff 
    b9cc:	90                   	nop
    b9cd:	48 8b 05 34 08 01 00 	mov    0x10834(%rip),%rax        # 1c208 <g_261>
    b9d4:	48 83 f8 21          	cmp    $0x21,%rax
    b9d8:	0f 84 c1 0f 00 00    	je     c99f <func_55+0x11e1>
    b9de:	c7 85 c4 f4 ff ff 67 	movl   $0xda301567,-0xb3c(%rbp)
    b9e5:	15 30 da 
    b9e8:	c7 85 20 f6 ff ff 50 	movl   $0xe77c2c50,-0x9e0(%rbp)
    b9ef:	2c 7c e7 
    b9f2:	c7 85 24 f6 ff ff 50 	movl   $0xe77c2c50,-0x9dc(%rbp)
    b9f9:	2c 7c e7 
    b9fc:	c7 85 28 f6 ff ff 6e 	movl   $0x3249a36e,-0x9d8(%rbp)
    ba03:	a3 49 32 
    ba06:	c7 85 2c f6 ff ff 03 	movl   $0x3,-0x9d4(%rbp)
    ba0d:	00 00 00 
    ba10:	c7 85 30 f6 ff ff 6e 	movl   $0x3249a36e,-0x9d0(%rbp)
    ba17:	a3 49 32 
    ba1a:	c7 85 34 f6 ff ff 50 	movl   $0xe77c2c50,-0x9cc(%rbp)
    ba21:	2c 7c e7 
    ba24:	c7 85 38 f6 ff ff 50 	movl   $0xe77c2c50,-0x9c8(%rbp)
    ba2b:	2c 7c e7 
    ba2e:	c7 85 3c f6 ff ff 6e 	movl   $0x3249a36e,-0x9c4(%rbp)
    ba35:	a3 49 32 
    ba38:	c7 85 40 f6 ff ff fe 	movl   $0xfffffffe,-0x9c0(%rbp)
    ba3f:	ff ff ff 
    ba42:	c7 85 44 f6 ff ff fe 	movl   $0xfffffffe,-0x9bc(%rbp)
    ba49:	ff ff ff 
    ba4c:	c7 85 48 f6 ff ff fe 	movl   $0xfffffffe,-0x9b8(%rbp)
    ba53:	ff ff ff 
    ba56:	c7 85 4c f6 ff ff 03 	movl   $0x3,-0x9b4(%rbp)
    ba5d:	00 00 00 
    ba60:	c7 85 50 f6 ff ff 50 	movl   $0xe77c2c50,-0x9b0(%rbp)
    ba67:	2c 7c e7 
    ba6a:	c7 85 54 f6 ff ff 03 	movl   $0x3,-0x9ac(%rbp)
    ba71:	00 00 00 
    ba74:	c7 85 58 f6 ff ff fe 	movl   $0xfffffffe,-0x9a8(%rbp)
    ba7b:	ff ff ff 
    ba7e:	c7 85 5c f6 ff ff fe 	movl   $0xfffffffe,-0x9a4(%rbp)
    ba85:	ff ff ff 
    ba88:	c7 85 60 f6 ff ff fe 	movl   $0xfffffffe,-0x9a0(%rbp)
    ba8f:	ff ff ff 
    ba92:	c7 85 64 f6 ff ff 50 	movl   $0xe77c2c50,-0x99c(%rbp)
    ba99:	2c 7c e7 
    ba9c:	c7 85 68 f6 ff ff dd 	movl   $0x866731dd,-0x998(%rbp)
    baa3:	31 67 86 
    baa6:	c7 85 6c f6 ff ff dd 	movl   $0x866731dd,-0x994(%rbp)
    baad:	31 67 86 
    bab0:	c7 85 70 f6 ff ff 50 	movl   $0xe77c2c50,-0x990(%rbp)
    bab7:	2c 7c e7 
    baba:	c7 85 74 f6 ff ff fe 	movl   $0xfffffffe,-0x98c(%rbp)
    bac1:	ff ff ff 
    bac4:	c7 85 78 f6 ff ff 50 	movl   $0xe77c2c50,-0x988(%rbp)
    bacb:	2c 7c e7 
    bace:	c7 85 7c f6 ff ff dd 	movl   $0x866731dd,-0x984(%rbp)
    bad5:	31 67 86 
    bad8:	c7 85 c8 f4 ff ff f9 	movl   $0xfffffff9,-0xb38(%rbp)
    badf:	ff ff ff 
    bae2:	48 8d 05 cf 06 01 00 	lea    0x106cf(%rip),%rax        # 1c1b8 <g_218+0x8>
    bae9:	48 89 85 28 f5 ff ff 	mov    %rax,-0xad8(%rbp)
    baf0:	48 c7 85 30 f5 ff ff 	movq   $0x0,-0xad0(%rbp)
    baf7:	00 00 00 00 
    bafb:	c7 85 cc f4 ff ff 02 	movl   $0x2,-0xb34(%rbp)
    bb02:	00 00 00 
    bb05:	48 8d 05 3c 0a 01 00 	lea    0x10a3c(%rip),%rax        # 1c548 <g_374>
    bb0c:	48 89 85 38 f5 ff ff 	mov    %rax,-0xac8(%rbp)
    bb13:	48 8d 05 ae 8b 01 00 	lea    0x18bae(%rip),%rax        # 246c8 <g_79>
    bb1a:	48 89 85 40 f5 ff ff 	mov    %rax,-0xac0(%rbp)
    bb21:	c7 85 bc f4 ff ff 00 	movl   $0x0,-0xb44(%rbp)
    bb28:	00 00 00 
    bb2b:	eb 1e                	jmp    bb4b <func_55+0x38d>
    bb2d:	8b 85 bc f4 ff ff    	mov    -0xb44(%rbp),%eax
    bb33:	48 98                	cltq   
    bb35:	48 8d 15 14 06 01 00 	lea    0x10614(%rip),%rdx        # 1c150 <g_179>
    bb3c:	48 89 94 c5 80 f5 ff 	mov    %rdx,-0xa80(%rbp,%rax,8)
    bb43:	ff 
    bb44:	83 85 bc f4 ff ff 01 	addl   $0x1,-0xb44(%rbp)
    bb4b:	83 bd bc f4 ff ff 00 	cmpl   $0x0,-0xb44(%rbp)
    bb52:	7e d9                	jle    bb2d <func_55+0x36f>
    bb54:	c7 85 bc f4 ff ff 00 	movl   $0x0,-0xb44(%rbp)
    bb5b:	00 00 00 
    bb5e:	eb 1a                	jmp    bb7a <func_55+0x3bc>
    bb60:	8b 85 bc f4 ff ff    	mov    -0xb44(%rbp),%eax
    bb66:	48 98                	cltq   
    bb68:	c7 84 85 94 f5 ff ff 	movl   $0x9e7b3c20,-0xa6c(%rbp,%rax,4)
    bb6f:	20 3c 7b 9e 
    bb73:	83 85 bc f4 ff ff 01 	addl   $0x1,-0xb44(%rbp)
    bb7a:	83 bd bc f4 ff ff 02 	cmpl   $0x2,-0xb44(%rbp)
    bb81:	7e dd                	jle    bb60 <func_55+0x3a2>
    bb83:	c7 05 b3 09 01 00 00 	movl   $0x0,0x109b3(%rip)        # 1c540 <g_304>
    bb8a:	00 00 00 
    bb8d:	e9 f5 0d 00 00       	jmpq   c987 <func_55+0x11c9>
    bb92:	48 c7 85 e0 f4 ff ff 	movq   $0x0,-0xb20(%rbp)
    bb99:	00 00 00 00 
    bb9d:	48 8d 85 e0 f4 ff ff 	lea    -0xb20(%rbp),%rax
    bba4:	48 89 85 10 f8 ff ff 	mov    %rax,-0x7f0(%rbp)
    bbab:	48 8d 85 e0 f4 ff ff 	lea    -0xb20(%rbp),%rax
    bbb2:	48 89 85 18 f8 ff ff 	mov    %rax,-0x7e8(%rbp)
    bbb9:	48 8d 85 e0 f4 ff ff 	lea    -0xb20(%rbp),%rax
    bbc0:	48 89 85 20 f8 ff ff 	mov    %rax,-0x7e0(%rbp)
    bbc7:	48 8d 85 e0 f4 ff ff 	lea    -0xb20(%rbp),%rax
    bbce:	48 89 85 28 f8 ff ff 	mov    %rax,-0x7d8(%rbp)
    bbd5:	48 c7 85 30 f8 ff ff 	movq   $0x0,-0x7d0(%rbp)
    bbdc:	00 00 00 00 
    bbe0:	48 8d 85 e0 f4 ff ff 	lea    -0xb20(%rbp),%rax
    bbe7:	48 89 85 38 f8 ff ff 	mov    %rax,-0x7c8(%rbp)
    bbee:	48 c7 85 40 f8 ff ff 	movq   $0x0,-0x7c0(%rbp)
    bbf5:	00 00 00 00 
    bbf9:	48 8d 85 e0 f4 ff ff 	lea    -0xb20(%rbp),%rax
    bc00:	48 89 85 48 f8 ff ff 	mov    %rax,-0x7b8(%rbp)
    bc07:	48 8d 85 e0 f4 ff ff 	lea    -0xb20(%rbp),%rax
    bc0e:	48 89 85 50 f8 ff ff 	mov    %rax,-0x7b0(%rbp)
    bc15:	48 8d 85 e0 f4 ff ff 	lea    -0xb20(%rbp),%rax
    bc1c:	48 89 85 58 f8 ff ff 	mov    %rax,-0x7a8(%rbp)
    bc23:	48 8d 85 e0 f4 ff ff 	lea    -0xb20(%rbp),%rax
    bc2a:	48 89 85 60 f8 ff ff 	mov    %rax,-0x7a0(%rbp)
    bc31:	48 8d 85 e0 f4 ff ff 	lea    -0xb20(%rbp),%rax
    bc38:	48 89 85 68 f8 ff ff 	mov    %rax,-0x798(%rbp)
    bc3f:	48 8d 85 e0 f4 ff ff 	lea    -0xb20(%rbp),%rax
    bc46:	48 89 85 70 f8 ff ff 	mov    %rax,-0x790(%rbp)
    bc4d:	48 8d 85 e0 f4 ff ff 	lea    -0xb20(%rbp),%rax
    bc54:	48 89 85 78 f8 ff ff 	mov    %rax,-0x788(%rbp)
    bc5b:	48 8d 85 e0 f4 ff ff 	lea    -0xb20(%rbp),%rax
    bc62:	48 89 85 80 f8 ff ff 	mov    %rax,-0x780(%rbp)
    bc69:	48 8d 85 e0 f4 ff ff 	lea    -0xb20(%rbp),%rax
    bc70:	48 89 85 88 f8 ff ff 	mov    %rax,-0x778(%rbp)
    bc77:	48 8d 85 e0 f4 ff ff 	lea    -0xb20(%rbp),%rax
    bc7e:	48 89 85 90 f8 ff ff 	mov    %rax,-0x770(%rbp)
    bc85:	48 8d 85 e0 f4 ff ff 	lea    -0xb20(%rbp),%rax
    bc8c:	48 89 85 98 f8 ff ff 	mov    %rax,-0x768(%rbp)
    bc93:	48 8d 85 e0 f4 ff ff 	lea    -0xb20(%rbp),%rax
    bc9a:	48 89 85 a0 f8 ff ff 	mov    %rax,-0x760(%rbp)
    bca1:	48 8d 85 e0 f4 ff ff 	lea    -0xb20(%rbp),%rax
    bca8:	48 89 85 a8 f8 ff ff 	mov    %rax,-0x758(%rbp)
    bcaf:	48 8d 85 e0 f4 ff ff 	lea    -0xb20(%rbp),%rax
    bcb6:	48 89 85 b0 f8 ff ff 	mov    %rax,-0x750(%rbp)
    bcbd:	48 8d 85 e0 f4 ff ff 	lea    -0xb20(%rbp),%rax
    bcc4:	48 89 85 b8 f8 ff ff 	mov    %rax,-0x748(%rbp)
    bccb:	48 8d 85 e0 f4 ff ff 	lea    -0xb20(%rbp),%rax
    bcd2:	48 89 85 c0 f8 ff ff 	mov    %rax,-0x740(%rbp)
    bcd9:	48 c7 85 c8 f8 ff ff 	movq   $0x0,-0x738(%rbp)
    bce0:	00 00 00 00 
    bce4:	48 8d 85 e0 f4 ff ff 	lea    -0xb20(%rbp),%rax
    bceb:	48 89 85 d0 f8 ff ff 	mov    %rax,-0x730(%rbp)
    bcf2:	48 8d 85 e0 f4 ff ff 	lea    -0xb20(%rbp),%rax
    bcf9:	48 89 85 d8 f8 ff ff 	mov    %rax,-0x728(%rbp)
    bd00:	48 8d 85 e0 f4 ff ff 	lea    -0xb20(%rbp),%rax
    bd07:	48 89 85 e0 f8 ff ff 	mov    %rax,-0x720(%rbp)
    bd0e:	48 8d 85 e0 f4 ff ff 	lea    -0xb20(%rbp),%rax
    bd15:	48 89 85 e8 f8 ff ff 	mov    %rax,-0x718(%rbp)
    bd1c:	48 8d 85 e0 f4 ff ff 	lea    -0xb20(%rbp),%rax
    bd23:	48 89 85 f0 f8 ff ff 	mov    %rax,-0x710(%rbp)
    bd2a:	48 c7 85 f8 f8 ff ff 	movq   $0x0,-0x708(%rbp)
    bd31:	00 00 00 00 
    bd35:	48 c7 85 00 f9 ff ff 	movq   $0x0,-0x700(%rbp)
    bd3c:	00 00 00 00 
    bd40:	48 8d 85 e0 f4 ff ff 	lea    -0xb20(%rbp),%rax
    bd47:	48 89 85 08 f9 ff ff 	mov    %rax,-0x6f8(%rbp)
    bd4e:	48 8d 85 e0 f4 ff ff 	lea    -0xb20(%rbp),%rax
    bd55:	48 89 85 10 f9 ff ff 	mov    %rax,-0x6f0(%rbp)
    bd5c:	48 c7 85 18 f9 ff ff 	movq   $0x0,-0x6e8(%rbp)
    bd63:	00 00 00 00 
    bd67:	48 8d 85 e0 f4 ff ff 	lea    -0xb20(%rbp),%rax
    bd6e:	48 89 85 20 f9 ff ff 	mov    %rax,-0x6e0(%rbp)
    bd75:	48 8d 85 e0 f4 ff ff 	lea    -0xb20(%rbp),%rax
    bd7c:	48 89 85 28 f9 ff ff 	mov    %rax,-0x6d8(%rbp)
    bd83:	48 8d 85 e0 f4 ff ff 	lea    -0xb20(%rbp),%rax
    bd8a:	48 89 85 30 f9 ff ff 	mov    %rax,-0x6d0(%rbp)
    bd91:	48 8d 85 e0 f4 ff ff 	lea    -0xb20(%rbp),%rax
    bd98:	48 89 85 38 f9 ff ff 	mov    %rax,-0x6c8(%rbp)
    bd9f:	48 8d 85 e0 f4 ff ff 	lea    -0xb20(%rbp),%rax
    bda6:	48 89 85 40 f9 ff ff 	mov    %rax,-0x6c0(%rbp)
    bdad:	48 8d 85 e0 f4 ff ff 	lea    -0xb20(%rbp),%rax
    bdb4:	48 89 85 48 f9 ff ff 	mov    %rax,-0x6b8(%rbp)
    bdbb:	48 8d 85 e0 f4 ff ff 	lea    -0xb20(%rbp),%rax
    bdc2:	48 89 85 50 f9 ff ff 	mov    %rax,-0x6b0(%rbp)
    bdc9:	48 8d 85 e0 f4 ff ff 	lea    -0xb20(%rbp),%rax
    bdd0:	48 89 85 58 f9 ff ff 	mov    %rax,-0x6a8(%rbp)
    bdd7:	48 8d 85 e0 f4 ff ff 	lea    -0xb20(%rbp),%rax
    bdde:	48 89 85 60 f9 ff ff 	mov    %rax,-0x6a0(%rbp)
    bde5:	48 8d 85 e0 f4 ff ff 	lea    -0xb20(%rbp),%rax
    bdec:	48 89 85 68 f9 ff ff 	mov    %rax,-0x698(%rbp)
    bdf3:	48 8d 85 e0 f4 ff ff 	lea    -0xb20(%rbp),%rax
    bdfa:	48 89 85 70 f9 ff ff 	mov    %rax,-0x690(%rbp)
    be01:	48 8d 85 e0 f4 ff ff 	lea    -0xb20(%rbp),%rax
    be08:	48 89 85 78 f9 ff ff 	mov    %rax,-0x688(%rbp)
    be0f:	48 8d 85 e0 f4 ff ff 	lea    -0xb20(%rbp),%rax
    be16:	48 89 85 80 f9 ff ff 	mov    %rax,-0x680(%rbp)
    be1d:	48 8d 85 e0 f4 ff ff 	lea    -0xb20(%rbp),%rax
    be24:	48 89 85 88 f9 ff ff 	mov    %rax,-0x678(%rbp)
    be2b:	48 8d 85 e0 f4 ff ff 	lea    -0xb20(%rbp),%rax
    be32:	48 89 85 90 f9 ff ff 	mov    %rax,-0x670(%rbp)
    be39:	48 8d 85 e0 f4 ff ff 	lea    -0xb20(%rbp),%rax
    be40:	48 89 85 98 f9 ff ff 	mov    %rax,-0x668(%rbp)
    be47:	48 8d 85 e0 f4 ff ff 	lea    -0xb20(%rbp),%rax
    be4e:	48 89 85 a0 f9 ff ff 	mov    %rax,-0x660(%rbp)
    be55:	48 8d 85 e0 f4 ff ff 	lea    -0xb20(%rbp),%rax
    be5c:	48 89 85 a8 f9 ff ff 	mov    %rax,-0x658(%rbp)
    be63:	48 8d 85 e0 f4 ff ff 	lea    -0xb20(%rbp),%rax
    be6a:	48 89 85 b0 f9 ff ff 	mov    %rax,-0x650(%rbp)
    be71:	48 8d 85 e0 f4 ff ff 	lea    -0xb20(%rbp),%rax
    be78:	48 89 85 b8 f9 ff ff 	mov    %rax,-0x648(%rbp)
    be7f:	48 8d 85 e0 f4 ff ff 	lea    -0xb20(%rbp),%rax
    be86:	48 89 85 c0 f9 ff ff 	mov    %rax,-0x640(%rbp)
    be8d:	48 c7 85 c8 f9 ff ff 	movq   $0x0,-0x638(%rbp)
    be94:	00 00 00 00 
    be98:	48 8d 85 e0 f4 ff ff 	lea    -0xb20(%rbp),%rax
    be9f:	48 89 85 d0 f9 ff ff 	mov    %rax,-0x630(%rbp)
    bea6:	48 8d 85 e0 f4 ff ff 	lea    -0xb20(%rbp),%rax
    bead:	48 89 85 d8 f9 ff ff 	mov    %rax,-0x628(%rbp)
    beb4:	48 8d 85 e0 f4 ff ff 	lea    -0xb20(%rbp),%rax
    bebb:	48 89 85 e0 f9 ff ff 	mov    %rax,-0x620(%rbp)
    bec2:	48 8d 85 e0 f4 ff ff 	lea    -0xb20(%rbp),%rax
    bec9:	48 89 85 e8 f9 ff ff 	mov    %rax,-0x618(%rbp)
    bed0:	48 8d 85 e0 f4 ff ff 	lea    -0xb20(%rbp),%rax
    bed7:	48 89 85 f0 f9 ff ff 	mov    %rax,-0x610(%rbp)
    bede:	48 c7 85 f8 f9 ff ff 	movq   $0x0,-0x608(%rbp)
    bee5:	00 00 00 00 
    bee9:	48 c7 85 00 fa ff ff 	movq   $0x0,-0x600(%rbp)
    bef0:	00 00 00 00 
    bef4:	48 8d 85 e0 f4 ff ff 	lea    -0xb20(%rbp),%rax
    befb:	48 89 85 08 fa ff ff 	mov    %rax,-0x5f8(%rbp)
    bf02:	48 8d 85 e0 f4 ff ff 	lea    -0xb20(%rbp),%rax
    bf09:	48 89 85 10 fa ff ff 	mov    %rax,-0x5f0(%rbp)
    bf10:	48 8d 85 e0 f4 ff ff 	lea    -0xb20(%rbp),%rax
    bf17:	48 89 85 18 fa ff ff 	mov    %rax,-0x5e8(%rbp)
    bf1e:	48 8d 85 e0 f4 ff ff 	lea    -0xb20(%rbp),%rax
    bf25:	48 89 85 20 fa ff ff 	mov    %rax,-0x5e0(%rbp)
    bf2c:	48 8d 85 e0 f4 ff ff 	lea    -0xb20(%rbp),%rax
    bf33:	48 89 85 28 fa ff ff 	mov    %rax,-0x5d8(%rbp)
    bf3a:	48 8d 85 e0 f4 ff ff 	lea    -0xb20(%rbp),%rax
    bf41:	48 89 85 30 fa ff ff 	mov    %rax,-0x5d0(%rbp)
    bf48:	48 8d 85 e0 f4 ff ff 	lea    -0xb20(%rbp),%rax
    bf4f:	48 89 85 38 fa ff ff 	mov    %rax,-0x5c8(%rbp)
    bf56:	48 c7 85 40 fa ff ff 	movq   $0x0,-0x5c0(%rbp)
    bf5d:	00 00 00 00 
    bf61:	48 8d 85 e0 f4 ff ff 	lea    -0xb20(%rbp),%rax
    bf68:	48 89 85 48 fa ff ff 	mov    %rax,-0x5b8(%rbp)
    bf6f:	48 8d 85 e0 f4 ff ff 	lea    -0xb20(%rbp),%rax
    bf76:	48 89 85 50 fa ff ff 	mov    %rax,-0x5b0(%rbp)
    bf7d:	48 8d 85 e0 f4 ff ff 	lea    -0xb20(%rbp),%rax
    bf84:	48 89 85 58 fa ff ff 	mov    %rax,-0x5a8(%rbp)
    bf8b:	48 8d 85 e0 f4 ff ff 	lea    -0xb20(%rbp),%rax
    bf92:	48 89 85 60 fa ff ff 	mov    %rax,-0x5a0(%rbp)
    bf99:	48 8d 85 e0 f4 ff ff 	lea    -0xb20(%rbp),%rax
    bfa0:	48 89 85 68 fa ff ff 	mov    %rax,-0x598(%rbp)
    bfa7:	48 c7 85 70 fa ff ff 	movq   $0x0,-0x590(%rbp)
    bfae:	00 00 00 00 
    bfb2:	48 8d 85 e0 f4 ff ff 	lea    -0xb20(%rbp),%rax
    bfb9:	48 89 85 78 fa ff ff 	mov    %rax,-0x588(%rbp)
    bfc0:	48 8d 85 e0 f4 ff ff 	lea    -0xb20(%rbp),%rax
    bfc7:	48 89 85 80 fa ff ff 	mov    %rax,-0x580(%rbp)
    bfce:	48 8d 85 e0 f4 ff ff 	lea    -0xb20(%rbp),%rax
    bfd5:	48 89 85 88 fa ff ff 	mov    %rax,-0x578(%rbp)
    bfdc:	48 8d 85 e0 f4 ff ff 	lea    -0xb20(%rbp),%rax
    bfe3:	48 89 85 90 fa ff ff 	mov    %rax,-0x570(%rbp)
    bfea:	48 8d 85 e0 f4 ff ff 	lea    -0xb20(%rbp),%rax
    bff1:	48 89 85 98 fa ff ff 	mov    %rax,-0x568(%rbp)
    bff8:	48 8d 85 e0 f4 ff ff 	lea    -0xb20(%rbp),%rax
    bfff:	48 89 85 a0 fa ff ff 	mov    %rax,-0x560(%rbp)
    c006:	48 c7 85 a8 fa ff ff 	movq   $0x0,-0x558(%rbp)
    c00d:	00 00 00 00 
    c011:	48 8d 85 e0 f4 ff ff 	lea    -0xb20(%rbp),%rax
    c018:	48 89 85 b0 fa ff ff 	mov    %rax,-0x550(%rbp)
    c01f:	48 c7 85 b8 fa ff ff 	movq   $0x0,-0x548(%rbp)
    c026:	00 00 00 00 
    c02a:	48 8d 85 e0 f4 ff ff 	lea    -0xb20(%rbp),%rax
    c031:	48 89 85 c0 fa ff ff 	mov    %rax,-0x540(%rbp)
    c038:	48 8d 85 e0 f4 ff ff 	lea    -0xb20(%rbp),%rax
    c03f:	48 89 85 c8 fa ff ff 	mov    %rax,-0x538(%rbp)
    c046:	48 8d 85 e0 f4 ff ff 	lea    -0xb20(%rbp),%rax
    c04d:	48 89 85 d0 fa ff ff 	mov    %rax,-0x530(%rbp)
    c054:	48 c7 85 d8 fa ff ff 	movq   $0x0,-0x528(%rbp)
    c05b:	00 00 00 00 
    c05f:	48 8d 85 e0 f4 ff ff 	lea    -0xb20(%rbp),%rax
    c066:	48 89 85 e0 fa ff ff 	mov    %rax,-0x520(%rbp)
    c06d:	48 c7 85 e8 fa ff ff 	movq   $0x0,-0x518(%rbp)
    c074:	00 00 00 00 
    c078:	48 8d 85 e0 f4 ff ff 	lea    -0xb20(%rbp),%rax
    c07f:	48 89 85 f0 fa ff ff 	mov    %rax,-0x510(%rbp)
    c086:	48 8d 85 e0 f4 ff ff 	lea    -0xb20(%rbp),%rax
    c08d:	48 89 85 f8 fa ff ff 	mov    %rax,-0x508(%rbp)
    c094:	48 8d 85 e0 f4 ff ff 	lea    -0xb20(%rbp),%rax
    c09b:	48 89 85 00 fb ff ff 	mov    %rax,-0x500(%rbp)
    c0a2:	48 8d 85 e0 f4 ff ff 	lea    -0xb20(%rbp),%rax
    c0a9:	48 89 85 08 fb ff ff 	mov    %rax,-0x4f8(%rbp)
    c0b0:	48 8d 85 e0 f4 ff ff 	lea    -0xb20(%rbp),%rax
    c0b7:	48 89 85 10 fb ff ff 	mov    %rax,-0x4f0(%rbp)
    c0be:	48 8d 85 e0 f4 ff ff 	lea    -0xb20(%rbp),%rax
    c0c5:	48 89 85 18 fb ff ff 	mov    %rax,-0x4e8(%rbp)
    c0cc:	48 c7 85 20 fb ff ff 	movq   $0x0,-0x4e0(%rbp)
    c0d3:	00 00 00 00 
    c0d7:	48 c7 85 28 fb ff ff 	movq   $0x0,-0x4d8(%rbp)
    c0de:	00 00 00 00 
    c0e2:	48 8d 85 e0 f4 ff ff 	lea    -0xb20(%rbp),%rax
    c0e9:	48 89 85 30 fb ff ff 	mov    %rax,-0x4d0(%rbp)
    c0f0:	48 c7 85 38 fb ff ff 	movq   $0x0,-0x4c8(%rbp)
    c0f7:	00 00 00 00 
    c0fb:	48 8d 85 e0 f4 ff ff 	lea    -0xb20(%rbp),%rax
    c102:	48 89 85 40 fb ff ff 	mov    %rax,-0x4c0(%rbp)
    c109:	48 8d 85 e0 f4 ff ff 	lea    -0xb20(%rbp),%rax
    c110:	48 89 85 48 fb ff ff 	mov    %rax,-0x4b8(%rbp)
    c117:	48 8d 85 e0 f4 ff ff 	lea    -0xb20(%rbp),%rax
    c11e:	48 89 85 50 fb ff ff 	mov    %rax,-0x4b0(%rbp)
    c125:	48 8d 85 e0 f4 ff ff 	lea    -0xb20(%rbp),%rax
    c12c:	48 89 85 58 fb ff ff 	mov    %rax,-0x4a8(%rbp)
    c133:	48 8d 85 e0 f4 ff ff 	lea    -0xb20(%rbp),%rax
    c13a:	48 89 85 60 fb ff ff 	mov    %rax,-0x4a0(%rbp)
    c141:	48 8d 85 e0 f4 ff ff 	lea    -0xb20(%rbp),%rax
    c148:	48 89 85 68 fb ff ff 	mov    %rax,-0x498(%rbp)
    c14f:	48 8d 85 e0 f4 ff ff 	lea    -0xb20(%rbp),%rax
    c156:	48 89 85 70 fb ff ff 	mov    %rax,-0x490(%rbp)
    c15d:	48 8d 85 e0 f4 ff ff 	lea    -0xb20(%rbp),%rax
    c164:	48 89 85 78 fb ff ff 	mov    %rax,-0x488(%rbp)
    c16b:	48 8d 85 e0 f4 ff ff 	lea    -0xb20(%rbp),%rax
    c172:	48 89 85 80 fb ff ff 	mov    %rax,-0x480(%rbp)
    c179:	48 8d 85 e0 f4 ff ff 	lea    -0xb20(%rbp),%rax
    c180:	48 89 85 88 fb ff ff 	mov    %rax,-0x478(%rbp)
    c187:	48 8d 85 e0 f4 ff ff 	lea    -0xb20(%rbp),%rax
    c18e:	48 89 85 90 fb ff ff 	mov    %rax,-0x470(%rbp)
    c195:	48 8d 85 e0 f4 ff ff 	lea    -0xb20(%rbp),%rax
    c19c:	48 89 85 98 fb ff ff 	mov    %rax,-0x468(%rbp)
    c1a3:	48 8d 85 e0 f4 ff ff 	lea    -0xb20(%rbp),%rax
    c1aa:	48 89 85 a0 fb ff ff 	mov    %rax,-0x460(%rbp)
    c1b1:	48 8d 85 e0 f4 ff ff 	lea    -0xb20(%rbp),%rax
    c1b8:	48 89 85 a8 fb ff ff 	mov    %rax,-0x458(%rbp)
    c1bf:	48 8d 85 e0 f4 ff ff 	lea    -0xb20(%rbp),%rax
    c1c6:	48 89 85 b0 fb ff ff 	mov    %rax,-0x450(%rbp)
    c1cd:	48 c7 85 b8 fb ff ff 	movq   $0x0,-0x448(%rbp)
    c1d4:	00 00 00 00 
    c1d8:	48 8d 85 e0 f4 ff ff 	lea    -0xb20(%rbp),%rax
    c1df:	48 89 85 c0 fb ff ff 	mov    %rax,-0x440(%rbp)
    c1e6:	48 8d 85 e0 f4 ff ff 	lea    -0xb20(%rbp),%rax
    c1ed:	48 89 85 c8 fb ff ff 	mov    %rax,-0x438(%rbp)
    c1f4:	48 8d 85 e0 f4 ff ff 	lea    -0xb20(%rbp),%rax
    c1fb:	48 89 85 d0 fb ff ff 	mov    %rax,-0x430(%rbp)
    c202:	48 8d 85 e0 f4 ff ff 	lea    -0xb20(%rbp),%rax
    c209:	48 89 85 d8 fb ff ff 	mov    %rax,-0x428(%rbp)
    c210:	48 8d 85 e0 f4 ff ff 	lea    -0xb20(%rbp),%rax
    c217:	48 89 85 e0 fb ff ff 	mov    %rax,-0x420(%rbp)
    c21e:	48 c7 85 e8 fb ff ff 	movq   $0x0,-0x418(%rbp)
    c225:	00 00 00 00 
    c229:	48 8d 85 e0 f4 ff ff 	lea    -0xb20(%rbp),%rax
    c230:	48 89 85 f0 fb ff ff 	mov    %rax,-0x410(%rbp)
    c237:	48 8d 85 e0 f4 ff ff 	lea    -0xb20(%rbp),%rax
    c23e:	48 89 85 f8 fb ff ff 	mov    %rax,-0x408(%rbp)
    c245:	48 8d 85 e0 f4 ff ff 	lea    -0xb20(%rbp),%rax
    c24c:	48 89 85 00 fc ff ff 	mov    %rax,-0x400(%rbp)
    c253:	48 8d 85 e0 f4 ff ff 	lea    -0xb20(%rbp),%rax
    c25a:	48 89 85 08 fc ff ff 	mov    %rax,-0x3f8(%rbp)
    c261:	48 8d 85 e0 f4 ff ff 	lea    -0xb20(%rbp),%rax
    c268:	48 89 85 10 fc ff ff 	mov    %rax,-0x3f0(%rbp)
    c26f:	48 8d 85 e0 f4 ff ff 	lea    -0xb20(%rbp),%rax
    c276:	48 89 85 18 fc ff ff 	mov    %rax,-0x3e8(%rbp)
    c27d:	48 8d 85 e0 f4 ff ff 	lea    -0xb20(%rbp),%rax
    c284:	48 89 85 20 fc ff ff 	mov    %rax,-0x3e0(%rbp)
    c28b:	48 c7 85 28 fc ff ff 	movq   $0x0,-0x3d8(%rbp)
    c292:	00 00 00 00 
    c296:	48 8d 85 e0 f4 ff ff 	lea    -0xb20(%rbp),%rax
    c29d:	48 89 85 30 fc ff ff 	mov    %rax,-0x3d0(%rbp)
    c2a4:	48 8d 85 e0 f4 ff ff 	lea    -0xb20(%rbp),%rax
    c2ab:	48 89 85 38 fc ff ff 	mov    %rax,-0x3c8(%rbp)
    c2b2:	48 c7 85 40 fc ff ff 	movq   $0x0,-0x3c0(%rbp)
    c2b9:	00 00 00 00 
    c2bd:	48 8d 85 e0 f4 ff ff 	lea    -0xb20(%rbp),%rax
    c2c4:	48 89 85 48 fc ff ff 	mov    %rax,-0x3b8(%rbp)
    c2cb:	48 8d 85 e0 f4 ff ff 	lea    -0xb20(%rbp),%rax
    c2d2:	48 89 85 50 fc ff ff 	mov    %rax,-0x3b0(%rbp)
    c2d9:	48 8d 85 e0 f4 ff ff 	lea    -0xb20(%rbp),%rax
    c2e0:	48 89 85 58 fc ff ff 	mov    %rax,-0x3a8(%rbp)
    c2e7:	48 8d 85 e0 f4 ff ff 	lea    -0xb20(%rbp),%rax
    c2ee:	48 89 85 60 fc ff ff 	mov    %rax,-0x3a0(%rbp)
    c2f5:	48 8d 85 e0 f4 ff ff 	lea    -0xb20(%rbp),%rax
    c2fc:	48 89 85 68 fc ff ff 	mov    %rax,-0x398(%rbp)
    c303:	48 8d 85 e0 f4 ff ff 	lea    -0xb20(%rbp),%rax
    c30a:	48 89 85 70 fc ff ff 	mov    %rax,-0x390(%rbp)
    c311:	48 c7 85 78 fc ff ff 	movq   $0x0,-0x388(%rbp)
    c318:	00 00 00 00 
    c31c:	48 c7 85 80 fc ff ff 	movq   $0x0,-0x380(%rbp)
    c323:	00 00 00 00 
    c327:	48 8d 85 e0 f4 ff ff 	lea    -0xb20(%rbp),%rax
    c32e:	48 89 85 88 fc ff ff 	mov    %rax,-0x378(%rbp)
    c335:	48 8d 85 e0 f4 ff ff 	lea    -0xb20(%rbp),%rax
    c33c:	48 89 85 90 fc ff ff 	mov    %rax,-0x370(%rbp)
    c343:	48 8d 85 e0 f4 ff ff 	lea    -0xb20(%rbp),%rax
    c34a:	48 89 85 98 fc ff ff 	mov    %rax,-0x368(%rbp)
    c351:	48 8d 85 e0 f4 ff ff 	lea    -0xb20(%rbp),%rax
    c358:	48 89 85 a0 fc ff ff 	mov    %rax,-0x360(%rbp)
    c35f:	48 8d 85 e0 f4 ff ff 	lea    -0xb20(%rbp),%rax
    c366:	48 89 85 a8 fc ff ff 	mov    %rax,-0x358(%rbp)
    c36d:	48 8d 85 e0 f4 ff ff 	lea    -0xb20(%rbp),%rax
    c374:	48 89 85 b0 fc ff ff 	mov    %rax,-0x350(%rbp)
    c37b:	48 8d 85 e0 f4 ff ff 	lea    -0xb20(%rbp),%rax
    c382:	48 89 85 b8 fc ff ff 	mov    %rax,-0x348(%rbp)
    c389:	48 8d 85 e0 f4 ff ff 	lea    -0xb20(%rbp),%rax
    c390:	48 89 85 c0 fc ff ff 	mov    %rax,-0x340(%rbp)
    c397:	48 8d 85 e0 f4 ff ff 	lea    -0xb20(%rbp),%rax
    c39e:	48 89 85 c8 fc ff ff 	mov    %rax,-0x338(%rbp)
    c3a5:	48 8d 85 e0 f4 ff ff 	lea    -0xb20(%rbp),%rax
    c3ac:	48 89 85 d0 fc ff ff 	mov    %rax,-0x330(%rbp)
    c3b3:	48 8d 85 e0 f4 ff ff 	lea    -0xb20(%rbp),%rax
    c3ba:	48 89 85 d8 fc ff ff 	mov    %rax,-0x328(%rbp)
    c3c1:	48 8d 85 e0 f4 ff ff 	lea    -0xb20(%rbp),%rax
    c3c8:	48 89 85 e0 fc ff ff 	mov    %rax,-0x320(%rbp)
    c3cf:	48 8d 85 e0 f4 ff ff 	lea    -0xb20(%rbp),%rax
    c3d6:	48 89 85 e8 fc ff ff 	mov    %rax,-0x318(%rbp)
    c3dd:	48 8d 85 e0 f4 ff ff 	lea    -0xb20(%rbp),%rax
    c3e4:	48 89 85 f0 fc ff ff 	mov    %rax,-0x310(%rbp)
    c3eb:	48 8d 85 e0 f4 ff ff 	lea    -0xb20(%rbp),%rax
    c3f2:	48 89 85 f8 fc ff ff 	mov    %rax,-0x308(%rbp)
    c3f9:	48 c7 85 00 fd ff ff 	movq   $0x0,-0x300(%rbp)
    c400:	00 00 00 00 
    c404:	48 8d 85 e0 f4 ff ff 	lea    -0xb20(%rbp),%rax
    c40b:	48 89 85 08 fd ff ff 	mov    %rax,-0x2f8(%rbp)
    c412:	48 8d 85 e0 f4 ff ff 	lea    -0xb20(%rbp),%rax
    c419:	48 89 85 10 fd ff ff 	mov    %rax,-0x2f0(%rbp)
    c420:	48 8d 85 e0 f4 ff ff 	lea    -0xb20(%rbp),%rax
    c427:	48 89 85 18 fd ff ff 	mov    %rax,-0x2e8(%rbp)
    c42e:	48 8d 85 e0 f4 ff ff 	lea    -0xb20(%rbp),%rax
    c435:	48 89 85 20 fd ff ff 	mov    %rax,-0x2e0(%rbp)
    c43c:	48 c7 85 28 fd ff ff 	movq   $0x0,-0x2d8(%rbp)
    c443:	00 00 00 00 
    c447:	48 8d 85 e0 f4 ff ff 	lea    -0xb20(%rbp),%rax
    c44e:	48 89 85 30 fd ff ff 	mov    %rax,-0x2d0(%rbp)
    c455:	48 8d 85 e0 f4 ff ff 	lea    -0xb20(%rbp),%rax
    c45c:	48 89 85 38 fd ff ff 	mov    %rax,-0x2c8(%rbp)
    c463:	48 8d 85 e0 f4 ff ff 	lea    -0xb20(%rbp),%rax
    c46a:	48 89 85 40 fd ff ff 	mov    %rax,-0x2c0(%rbp)
    c471:	48 c7 85 48 fd ff ff 	movq   $0x0,-0x2b8(%rbp)
    c478:	00 00 00 00 
    c47c:	48 8d 85 e0 f4 ff ff 	lea    -0xb20(%rbp),%rax
    c483:	48 89 85 50 fd ff ff 	mov    %rax,-0x2b0(%rbp)
    c48a:	48 8d 85 e0 f4 ff ff 	lea    -0xb20(%rbp),%rax
    c491:	48 89 85 58 fd ff ff 	mov    %rax,-0x2a8(%rbp)
    c498:	48 8d 85 e0 f4 ff ff 	lea    -0xb20(%rbp),%rax
    c49f:	48 89 85 60 fd ff ff 	mov    %rax,-0x2a0(%rbp)
    c4a6:	48 8d 85 e0 f4 ff ff 	lea    -0xb20(%rbp),%rax
    c4ad:	48 89 85 68 fd ff ff 	mov    %rax,-0x298(%rbp)
    c4b4:	48 8d 85 e0 f4 ff ff 	lea    -0xb20(%rbp),%rax
    c4bb:	48 89 85 70 fd ff ff 	mov    %rax,-0x290(%rbp)
    c4c2:	48 8d 85 e0 f4 ff ff 	lea    -0xb20(%rbp),%rax
    c4c9:	48 89 85 78 fd ff ff 	mov    %rax,-0x288(%rbp)
    c4d0:	48 8d 85 e0 f4 ff ff 	lea    -0xb20(%rbp),%rax
    c4d7:	48 89 85 80 fd ff ff 	mov    %rax,-0x280(%rbp)
    c4de:	48 8d 85 e0 f4 ff ff 	lea    -0xb20(%rbp),%rax
    c4e5:	48 89 85 88 fd ff ff 	mov    %rax,-0x278(%rbp)
    c4ec:	48 8d 85 e0 f4 ff ff 	lea    -0xb20(%rbp),%rax
    c4f3:	48 89 85 90 fd ff ff 	mov    %rax,-0x270(%rbp)
    c4fa:	48 8d 85 e0 f4 ff ff 	lea    -0xb20(%rbp),%rax
    c501:	48 89 85 98 fd ff ff 	mov    %rax,-0x268(%rbp)
    c508:	48 8d 85 e0 f4 ff ff 	lea    -0xb20(%rbp),%rax
    c50f:	48 89 85 a0 fd ff ff 	mov    %rax,-0x260(%rbp)
    c516:	48 8d 85 e0 f4 ff ff 	lea    -0xb20(%rbp),%rax
    c51d:	48 89 85 a8 fd ff ff 	mov    %rax,-0x258(%rbp)
    c524:	48 8d 85 e0 f4 ff ff 	lea    -0xb20(%rbp),%rax
    c52b:	48 89 85 b0 fd ff ff 	mov    %rax,-0x250(%rbp)
    c532:	48 8d 85 e0 f4 ff ff 	lea    -0xb20(%rbp),%rax
    c539:	48 89 85 b8 fd ff ff 	mov    %rax,-0x248(%rbp)
    c540:	48 8d 85 e0 f4 ff ff 	lea    -0xb20(%rbp),%rax
    c547:	48 89 85 c0 fd ff ff 	mov    %rax,-0x240(%rbp)
    c54e:	48 8d 85 e0 f4 ff ff 	lea    -0xb20(%rbp),%rax
    c555:	48 89 85 c8 fd ff ff 	mov    %rax,-0x238(%rbp)
    c55c:	48 8d 85 e0 f4 ff ff 	lea    -0xb20(%rbp),%rax
    c563:	48 89 85 d0 fd ff ff 	mov    %rax,-0x230(%rbp)
    c56a:	48 c7 85 d8 fd ff ff 	movq   $0x0,-0x228(%rbp)
    c571:	00 00 00 00 
    c575:	48 c7 85 e0 fd ff ff 	movq   $0x0,-0x220(%rbp)
    c57c:	00 00 00 00 
    c580:	48 8d 85 e0 f4 ff ff 	lea    -0xb20(%rbp),%rax
    c587:	48 89 85 e8 fd ff ff 	mov    %rax,-0x218(%rbp)
    c58e:	48 8d 85 e0 f4 ff ff 	lea    -0xb20(%rbp),%rax
    c595:	48 89 85 f0 fd ff ff 	mov    %rax,-0x210(%rbp)
    c59c:	48 8d 85 e0 f4 ff ff 	lea    -0xb20(%rbp),%rax
    c5a3:	48 89 85 f8 fd ff ff 	mov    %rax,-0x208(%rbp)
    c5aa:	48 8d 85 e0 f4 ff ff 	lea    -0xb20(%rbp),%rax
    c5b1:	48 89 85 00 fe ff ff 	mov    %rax,-0x200(%rbp)
    c5b8:	48 8d 85 e0 f4 ff ff 	lea    -0xb20(%rbp),%rax
    c5bf:	48 89 85 08 fe ff ff 	mov    %rax,-0x1f8(%rbp)
    c5c6:	48 8d 85 e0 f4 ff ff 	lea    -0xb20(%rbp),%rax
    c5cd:	48 89 85 10 fe ff ff 	mov    %rax,-0x1f0(%rbp)
    c5d4:	48 8d 85 e0 f4 ff ff 	lea    -0xb20(%rbp),%rax
    c5db:	48 89 85 18 fe ff ff 	mov    %rax,-0x1e8(%rbp)
    c5e2:	48 8d 85 e0 f4 ff ff 	lea    -0xb20(%rbp),%rax
    c5e9:	48 89 85 20 fe ff ff 	mov    %rax,-0x1e0(%rbp)
    c5f0:	48 8d 85 e0 f4 ff ff 	lea    -0xb20(%rbp),%rax
    c5f7:	48 89 85 28 fe ff ff 	mov    %rax,-0x1d8(%rbp)
    c5fe:	48 8d 85 e0 f4 ff ff 	lea    -0xb20(%rbp),%rax
    c605:	48 89 85 30 fe ff ff 	mov    %rax,-0x1d0(%rbp)
    c60c:	48 8d 85 e0 f4 ff ff 	lea    -0xb20(%rbp),%rax
    c613:	48 89 85 38 fe ff ff 	mov    %rax,-0x1c8(%rbp)
    c61a:	48 8d 85 e0 f4 ff ff 	lea    -0xb20(%rbp),%rax
    c621:	48 89 85 40 fe ff ff 	mov    %rax,-0x1c0(%rbp)
    c628:	48 c7 85 48 fe ff ff 	movq   $0x0,-0x1b8(%rbp)
    c62f:	00 00 00 00 
    c633:	48 8d 85 e0 f4 ff ff 	lea    -0xb20(%rbp),%rax
    c63a:	48 89 85 50 fe ff ff 	mov    %rax,-0x1b0(%rbp)
    c641:	48 8d 85 e0 f4 ff ff 	lea    -0xb20(%rbp),%rax
    c648:	48 89 85 58 fe ff ff 	mov    %rax,-0x1a8(%rbp)
    c64f:	48 8d 85 e0 f4 ff ff 	lea    -0xb20(%rbp),%rax
    c656:	48 89 85 60 fe ff ff 	mov    %rax,-0x1a0(%rbp)
    c65d:	48 c7 85 68 fe ff ff 	movq   $0x0,-0x198(%rbp)
    c664:	00 00 00 00 
    c668:	48 c7 85 70 fe ff ff 	movq   $0x0,-0x190(%rbp)
    c66f:	00 00 00 00 
    c673:	48 8d 85 e0 f4 ff ff 	lea    -0xb20(%rbp),%rax
    c67a:	48 89 85 78 fe ff ff 	mov    %rax,-0x188(%rbp)
    c681:	48 8d 85 e0 f4 ff ff 	lea    -0xb20(%rbp),%rax
    c688:	48 89 85 80 fe ff ff 	mov    %rax,-0x180(%rbp)
    c68f:	48 8d 85 e0 f4 ff ff 	lea    -0xb20(%rbp),%rax
    c696:	48 89 85 88 fe ff ff 	mov    %rax,-0x178(%rbp)
    c69d:	48 8d 85 e0 f4 ff ff 	lea    -0xb20(%rbp),%rax
    c6a4:	48 89 85 90 fe ff ff 	mov    %rax,-0x170(%rbp)
    c6ab:	48 8d 85 e0 f4 ff ff 	lea    -0xb20(%rbp),%rax
    c6b2:	48 89 85 98 fe ff ff 	mov    %rax,-0x168(%rbp)
    c6b9:	48 8d 85 e0 f4 ff ff 	lea    -0xb20(%rbp),%rax
    c6c0:	48 89 85 a0 fe ff ff 	mov    %rax,-0x160(%rbp)
    c6c7:	48 8d 85 e0 f4 ff ff 	lea    -0xb20(%rbp),%rax
    c6ce:	48 89 85 a8 fe ff ff 	mov    %rax,-0x158(%rbp)
    c6d5:	48 8d 85 e0 f4 ff ff 	lea    -0xb20(%rbp),%rax
    c6dc:	48 89 85 b0 fe ff ff 	mov    %rax,-0x150(%rbp)
    c6e3:	48 8d 85 e0 f4 ff ff 	lea    -0xb20(%rbp),%rax
    c6ea:	48 89 85 b8 fe ff ff 	mov    %rax,-0x148(%rbp)
    c6f1:	48 8d 85 e0 f4 ff ff 	lea    -0xb20(%rbp),%rax
    c6f8:	48 89 85 c0 fe ff ff 	mov    %rax,-0x140(%rbp)
    c6ff:	48 c7 85 c8 fe ff ff 	movq   $0x0,-0x138(%rbp)
    c706:	00 00 00 00 
    c70a:	48 8d 85 e0 f4 ff ff 	lea    -0xb20(%rbp),%rax
    c711:	48 89 85 d0 fe ff ff 	mov    %rax,-0x130(%rbp)
    c718:	48 8d 85 e0 f4 ff ff 	lea    -0xb20(%rbp),%rax
    c71f:	48 89 85 d8 fe ff ff 	mov    %rax,-0x128(%rbp)
    c726:	48 8d 85 e0 f4 ff ff 	lea    -0xb20(%rbp),%rax
    c72d:	48 89 85 e0 fe ff ff 	mov    %rax,-0x120(%rbp)
    c734:	48 c7 85 e8 fe ff ff 	movq   $0x0,-0x118(%rbp)
    c73b:	00 00 00 00 
    c73f:	48 8d 85 e0 f4 ff ff 	lea    -0xb20(%rbp),%rax
    c746:	48 89 85 f0 fe ff ff 	mov    %rax,-0x110(%rbp)
    c74d:	48 8d 85 e0 f4 ff ff 	lea    -0xb20(%rbp),%rax
    c754:	48 89 85 f8 fe ff ff 	mov    %rax,-0x108(%rbp)
    c75b:	48 8d 85 e0 f4 ff ff 	lea    -0xb20(%rbp),%rax
    c762:	48 89 85 00 ff ff ff 	mov    %rax,-0x100(%rbp)
    c769:	48 8d 85 e0 f4 ff ff 	lea    -0xb20(%rbp),%rax
    c770:	48 89 85 08 ff ff ff 	mov    %rax,-0xf8(%rbp)
    c777:	48 8d 85 e0 f4 ff ff 	lea    -0xb20(%rbp),%rax
    c77e:	48 89 85 10 ff ff ff 	mov    %rax,-0xf0(%rbp)
    c785:	48 8d 85 e0 f4 ff ff 	lea    -0xb20(%rbp),%rax
    c78c:	48 89 85 18 ff ff ff 	mov    %rax,-0xe8(%rbp)
    c793:	48 8d 85 e0 f4 ff ff 	lea    -0xb20(%rbp),%rax
    c79a:	48 89 85 20 ff ff ff 	mov    %rax,-0xe0(%rbp)
    c7a1:	48 8d 85 e0 f4 ff ff 	lea    -0xb20(%rbp),%rax
    c7a8:	48 89 85 28 ff ff ff 	mov    %rax,-0xd8(%rbp)
    c7af:	48 8d 85 e0 f4 ff ff 	lea    -0xb20(%rbp),%rax
    c7b6:	48 89 85 30 ff ff ff 	mov    %rax,-0xd0(%rbp)
    c7bd:	48 c7 85 38 ff ff ff 	movq   $0x0,-0xc8(%rbp)
    c7c4:	00 00 00 00 
    c7c8:	48 8d 85 e0 f4 ff ff 	lea    -0xb20(%rbp),%rax
    c7cf:	48 89 85 40 ff ff ff 	mov    %rax,-0xc0(%rbp)
    c7d6:	48 8d 85 e0 f4 ff ff 	lea    -0xb20(%rbp),%rax
    c7dd:	48 89 85 48 ff ff ff 	mov    %rax,-0xb8(%rbp)
    c7e4:	48 8d 85 e0 f4 ff ff 	lea    -0xb20(%rbp),%rax
    c7eb:	48 89 85 50 ff ff ff 	mov    %rax,-0xb0(%rbp)
    c7f2:	48 8d 85 e0 f4 ff ff 	lea    -0xb20(%rbp),%rax
    c7f9:	48 89 85 58 ff ff ff 	mov    %rax,-0xa8(%rbp)
    c800:	48 8d 85 e0 f4 ff ff 	lea    -0xb20(%rbp),%rax
    c807:	48 89 85 60 ff ff ff 	mov    %rax,-0xa0(%rbp)
    c80e:	48 8d 85 e0 f4 ff ff 	lea    -0xb20(%rbp),%rax
    c815:	48 89 85 68 ff ff ff 	mov    %rax,-0x98(%rbp)
    c81c:	48 c7 85 70 ff ff ff 	movq   $0x0,-0x90(%rbp)
    c823:	00 00 00 00 
    c827:	48 8d 85 e0 f4 ff ff 	lea    -0xb20(%rbp),%rax
    c82e:	48 89 85 78 ff ff ff 	mov    %rax,-0x88(%rbp)
    c835:	48 8d 85 e0 f4 ff ff 	lea    -0xb20(%rbp),%rax
    c83c:	48 89 45 80          	mov    %rax,-0x80(%rbp)
    c840:	48 8d 85 e0 f4 ff ff 	lea    -0xb20(%rbp),%rax
    c847:	48 89 45 88          	mov    %rax,-0x78(%rbp)
    c84b:	48 8d 85 e0 f4 ff ff 	lea    -0xb20(%rbp),%rax
    c852:	48 89 45 90          	mov    %rax,-0x70(%rbp)
    c856:	48 8d 85 e0 f4 ff ff 	lea    -0xb20(%rbp),%rax
    c85d:	48 89 45 98          	mov    %rax,-0x68(%rbp)
    c861:	48 8d 85 e0 f4 ff ff 	lea    -0xb20(%rbp),%rax
    c868:	48 89 45 a0          	mov    %rax,-0x60(%rbp)
    c86c:	48 8d 85 e0 f4 ff ff 	lea    -0xb20(%rbp),%rax
    c873:	48 89 45 a8          	mov    %rax,-0x58(%rbp)
    c877:	48 8d 85 e0 f4 ff ff 	lea    -0xb20(%rbp),%rax
    c87e:	48 89 45 b0          	mov    %rax,-0x50(%rbp)
    c882:	48 8d 85 e0 f4 ff ff 	lea    -0xb20(%rbp),%rax
    c889:	48 89 45 b8          	mov    %rax,-0x48(%rbp)
    c88d:	48 8d 85 e0 f4 ff ff 	lea    -0xb20(%rbp),%rax
    c894:	48 89 45 c0          	mov    %rax,-0x40(%rbp)
    c898:	48 8d 85 e0 f4 ff ff 	lea    -0xb20(%rbp),%rax
    c89f:	48 89 45 c8          	mov    %rax,-0x38(%rbp)
    c8a3:	48 8d 85 e0 f4 ff ff 	lea    -0xb20(%rbp),%rax
    c8aa:	48 89 45 d0          	mov    %rax,-0x30(%rbp)
    c8ae:	48 8d 85 e0 f4 ff ff 	lea    -0xb20(%rbp),%rax
    c8b5:	48 89 45 d8          	mov    %rax,-0x28(%rbp)
    c8b9:	48 8d 85 e0 f4 ff ff 	lea    -0xb20(%rbp),%rax
    c8c0:	48 89 45 e0          	mov    %rax,-0x20(%rbp)
    c8c4:	48 8d 85 e0 f4 ff ff 	lea    -0xb20(%rbp),%rax
    c8cb:	48 89 45 e8          	mov    %rax,-0x18(%rbp)
    c8cf:	48 c7 85 48 f5 ff ff 	movq   $0xffffffffffffffff,-0xab8(%rbp)
    c8d6:	ff ff ff ff 
    c8da:	c6 85 ad f4 ff ff 27 	movb   $0x27,-0xb53(%rbp)
    c8e1:	48 8d 85 20 f6 ff ff 	lea    -0x9e0(%rbp),%rax
    c8e8:	48 83 c0 1c          	add    $0x1c,%rax
    c8ec:	48 89 85 50 f5 ff ff 	mov    %rax,-0xab0(%rbp)
    c8f3:	c6 85 ae f4 ff ff 03 	movb   $0x3,-0xb52(%rbp)
    c8fa:	48 8d 05 c5 0e 01 00 	lea    0x10ec5(%rip),%rax        # 1d7c6 <g_485+0x6>
    c901:	48 89 85 58 f5 ff ff 	mov    %rax,-0xaa8(%rbp)
    c908:	48 8d 05 d1 0e 01 00 	lea    0x10ed1(%rip),%rax        # 1d7e0 <g_515+0x8>
    c90f:	48 89 85 60 f5 ff ff 	mov    %rax,-0xaa0(%rbp)
    c916:	c7 85 d0 f4 ff ff 35 	movl   $0xfd054935,-0xb30(%rbp)
    c91d:	49 05 fd 
    c920:	66 c7 85 b2 f4 ff ff 	movw   $0x5ce4,-0xb4e(%rbp)
    c927:	e4 5c 
    c929:	c7 85 d4 f4 ff ff 01 	movl   $0x29710101,-0xb2c(%rbp)
    c930:	01 71 29 
    c933:	48 8d 05 9e 0e 01 00 	lea    0x10e9e(%rip),%rax        # 1d7d8 <g_515>
    c93a:	48 89 85 68 f5 ff ff 	mov    %rax,-0xa98(%rbp)
    c941:	48 8d 05 d8 65 01 00 	lea    0x165d8(%rip),%rax        # 22f20 <g_444>
    c948:	48 89 85 70 f5 ff ff 	mov    %rax,-0xa90(%rbp)
    c94f:	48 c7 85 e8 f4 ff ff 	movq   $0x0,-0xb18(%rbp)
    c956:	00 00 00 00 
    c95a:	48 8d 85 e8 f4 ff ff 	lea    -0xb18(%rbp),%rax
    c961:	48 89 85 78 f5 ff ff 	mov    %rax,-0xa88(%rbp)
    c968:	c6 85 af f4 ff ff 07 	movb   $0x7,-0xb51(%rbp)
    c96f:	8b 05 cb fb 00 00    	mov    0xfbcb(%rip),%eax        # 1c540 <g_304>
    c975:	be 02 00 00 00       	mov    $0x2,%esi
    c97a:	89 c7                	mov    %eax,%edi
    c97c:	e8 35 9c ff ff       	callq  65b6 <safe_add_func_int32_t_s_s>
    c981:	89 05 b9 fb 00 00    	mov    %eax,0xfbb9(%rip)        # 1c540 <g_304>
    c987:	8b 05 b3 fb 00 00    	mov    0xfbb3(%rip),%eax        # 1c540 <g_304>
    c98d:	83 f8 27             	cmp    $0x27,%eax
    c990:	0f 87 fc f1 ff ff    	ja     bb92 <func_55+0x3d4>
    c996:	48 8b 85 40 f5 ff ff 	mov    -0xac0(%rbp),%rax
    c99d:	eb 18                	jmp    c9b7 <func_55+0x11f9>
    c99f:	48 8b 05 a2 6a 01 00 	mov    0x16aa2(%rip),%rax        # 23448 <g_740>
    c9a6:	48 8b 95 20 f5 ff ff 	mov    -0xae0(%rbp),%rdx
    c9ad:	48 89 10             	mov    %rdx,(%rax)
    c9b0:	48 8d 05 8d fb 00 00 	lea    0xfb8d(%rip),%rax        # 1c544 <g_355>
    c9b7:	48 8b 75 f8          	mov    -0x8(%rbp),%rsi
    c9bb:	64 48 33 34 25 28 00 	xor    %fs:0x28,%rsi
    c9c2:	00 00 
    c9c4:	74 05                	je     c9cb <func_55+0x120d>
    c9c6:	e8 a5 96 ff ff       	callq  6070 <__stack_chk_fail@plt>
    c9cb:	c9                   	leaveq 
    c9cc:	c3                   	retq   

000000000000c9cd <func_60>:
    c9cd:	f3 0f 1e fa          	endbr64 
    c9d1:	55                   	push   %rbp
    c9d2:	48 89 e5             	mov    %rsp,%rbp
    c9d5:	41 57                	push   %r15
    c9d7:	41 56                	push   %r14
    c9d9:	41 55                	push   %r13
    c9db:	41 54                	push   %r12
    c9dd:	53                   	push   %rbx
    c9de:	48 81 ec 38 0c 00 00 	sub    $0xc38,%rsp
    c9e5:	89 bd ac f3 ff ff    	mov    %edi,-0xc54(%rbp)
    c9eb:	89 b5 a8 f3 ff ff    	mov    %esi,-0xc58(%rbp)
    c9f1:	64 48 8b 04 25 28 00 	mov    %fs:0x28,%rax
    c9f8:	00 00 
    c9fa:	48 89 45 c8          	mov    %rax,-0x38(%rbp)
    c9fe:	31 c0                	xor    %eax,%eax
    ca00:	48 c7 85 78 f4 ff ff 	movq   $0xfffffffffffffff7,-0xb88(%rbp)
    ca07:	f7 ff ff ff 
    ca0b:	c6 85 b5 f3 ff ff ff 	movb   $0xff,-0xc4b(%rbp)
    ca12:	c7 85 c0 f3 ff ff 2c 	movl   $0x35f2012c,-0xc40(%rbp)
    ca19:	01 f2 35 
    ca1c:	48 8d 05 a5 7c 01 00 	lea    0x17ca5(%rip),%rax        # 246c8 <g_79>
    ca23:	48 89 85 80 f4 ff ff 	mov    %rax,-0xb80(%rbp)
    ca2a:	48 8d 85 68 f5 ff ff 	lea    -0xa98(%rbp),%rax
    ca31:	48 89 85 88 f4 ff ff 	mov    %rax,-0xb78(%rbp)
    ca38:	c7 85 c4 f3 ff ff fc 	movl   $0xb0934bfc,-0xc3c(%rbp)
    ca3f:	4b 93 b0 
    ca42:	c7 85 c8 f3 ff ff 71 	movl   $0xf870ab71,-0xc38(%rbp)
    ca49:	ab 70 f8 
    ca4c:	48 c7 85 90 f4 ff ff 	movq   $0x0,-0xb70(%rbp)
    ca53:	00 00 00 00 
    ca57:	c7 85 cc f3 ff ff ff 	movl   $0xffffffff,-0xc34(%rbp)
    ca5e:	ff ff ff 
    ca61:	c7 85 fc f3 ff ff a6 	movl   $0xe2c016a6,-0xc04(%rbp)
    ca68:	16 c0 e2 
    ca6b:	48 8d 05 46 f7 00 00 	lea    0xf746(%rip),%rax        # 1c1b8 <g_218+0x8>
    ca72:	48 89 85 98 f4 ff ff 	mov    %rax,-0xb68(%rbp)
    ca79:	48 8d 05 40 61 01 00 	lea    0x16140(%rip),%rax        # 22bc0 <g_167>
    ca80:	48 89 85 a0 f4 ff ff 	mov    %rax,-0xb60(%rbp)
    ca87:	c7 85 d0 f3 ff ff b6 	movl   $0xea679eb6,-0xc30(%rbp)
    ca8e:	9e 67 ea 
    ca91:	c7 85 00 f4 ff ff 7b 	movl   $0x3370377b,-0xc00(%rbp)
    ca98:	37 70 33 
    ca9b:	c7 85 c0 f5 ff ff f4 	movl   $0xb39a41f4,-0xa40(%rbp)
    caa2:	41 9a b3 
    caa5:	c7 85 c4 f5 ff ff f4 	movl   $0xb39a41f4,-0xa3c(%rbp)
    caac:	41 9a b3 
    caaf:	c7 85 c8 f5 ff ff f4 	movl   $0xb39a41f4,-0xa38(%rbp)
    cab6:	41 9a b3 
    cab9:	c7 85 cc f5 ff ff f4 	movl   $0xb39a41f4,-0xa34(%rbp)
    cac0:	41 9a b3 
    cac3:	c7 85 d0 f5 ff ff f4 	movl   $0xb39a41f4,-0xa30(%rbp)
    caca:	41 9a b3 
    cacd:	c7 85 d4 f5 ff ff f4 	movl   $0xb39a41f4,-0xa2c(%rbp)
    cad4:	41 9a b3 
    cad7:	c7 85 d8 f5 ff ff f4 	movl   $0xb39a41f4,-0xa28(%rbp)
    cade:	41 9a b3 
    cae1:	48 b8 3a 79 86 e1 7e 	movabs $0x2185c57ee186793a,%rax
    cae8:	c5 85 21 
    caeb:	48 89 85 a8 f4 ff ff 	mov    %rax,-0xb58(%rbp)
    caf2:	c7 85 04 f4 ff ff 01 	movl   $0x1,-0xbfc(%rbp)
    caf9:	00 00 00 
    cafc:	c7 85 08 f4 ff ff a3 	movl   $0x744752a3,-0xbf8(%rbp)
    cb03:	52 47 74 
    cb06:	c7 85 0c f4 ff ff 09 	movl   $0x9,-0xbf4(%rbp)
    cb0d:	00 00 00 
    cb10:	48 8d 05 2b f5 00 00 	lea    0xf52b(%rip),%rax        # 1c042 <g_102>
    cb17:	48 89 85 40 f4 ff ff 	mov    %rax,-0xbc0(%rbp)
    cb1e:	48 8d 85 40 f4 ff ff 	lea    -0xbc0(%rbp),%rax
    cb25:	48 89 85 b0 f4 ff ff 	mov    %rax,-0xb50(%rbp)
    cb2c:	48 c7 85 b8 f4 ff ff 	movq   $0x0,-0xb48(%rbp)
    cb33:	00 00 00 00 
    cb37:	48 8d 05 06 fa 00 00 	lea    0xfa06(%rip),%rax        # 1c544 <g_355>
    cb3e:	48 89 85 c0 f4 ff ff 	mov    %rax,-0xb40(%rbp)
    cb45:	c7 85 10 f4 ff ff ff 	movl   $0xffffffff,-0xbf0(%rbp)
    cb4c:	ff ff ff 
    cb4f:	48 8d 85 d0 f3 ff ff 	lea    -0xc30(%rbp),%rax
    cb56:	48 89 85 c8 f4 ff ff 	mov    %rax,-0xb38(%rbp)
    cb5d:	c7 85 f8 f3 ff ff 00 	movl   $0x0,-0xc08(%rbp)
    cb64:	00 00 00 
    cb67:	eb 21                	jmp    cb8a <func_60+0x1bd>
    cb69:	8b 85 f8 f3 ff ff    	mov    -0xc08(%rbp),%eax
    cb6f:	48 98                	cltq   
    cb71:	48 bb a2 9c ab 10 42 	movabs $0x273394210ab9ca2,%rbx
    cb78:	39 73 02 
    cb7b:	48 89 9c c5 68 f5 ff 	mov    %rbx,-0xa98(%rbp,%rax,8)
    cb82:	ff 
    cb83:	83 85 f8 f3 ff ff 01 	addl   $0x1,-0xc08(%rbp)
    cb8a:	83 bd f8 f3 ff ff 00 	cmpl   $0x0,-0xc08(%rbp)
    cb91:	7e d6                	jle    cb69 <func_60+0x19c>
    cb93:	8b 85 a8 f3 ff ff    	mov    -0xc58(%rbp),%eax
    cb99:	41 89 c4             	mov    %eax,%r12d
    cb9c:	48 8b 85 68 f5 ff ff 	mov    -0xa98(%rbp),%rax
    cba3:	0f be d8             	movsbl %al,%ebx
    cba6:	8b 85 a8 f3 ff ff    	mov    -0xc58(%rbp),%eax
    cbac:	83 f8 01             	cmp    $0x1,%eax
    cbaf:	0f 94 c0             	sete   %al
    cbb2:	0f b6 c0             	movzbl %al,%eax
    cbb5:	89 c7                	mov    %eax,%edi
    cbb7:	e8 e1 97 ff ff       	callq  639d <safe_unary_minus_func_int16_t_s>
    cbbc:	89 c2                	mov    %eax,%edx
    cbbe:	8b 85 ac f3 ff ff    	mov    -0xc54(%rbp),%eax
    cbc4:	21 d0                	and    %edx,%eax
    cbc6:	0f be c0             	movsbl %al,%eax
    cbc9:	89 de                	mov    %ebx,%esi
    cbcb:	89 c7                	mov    %eax,%edi
    cbcd:	e8 20 96 ff ff       	callq  61f2 <safe_sub_func_int8_t_s_s>
    cbd2:	0f b6 15 53 f4 00 00 	movzbl 0xf453(%rip),%edx        # 1c02c <g_63>
    cbd9:	38 d0                	cmp    %dl,%al
    cbdb:	0f 9e c0             	setle  %al
    cbde:	0f b6 d0             	movzbl %al,%edx
    cbe1:	8b 05 41 f4 00 00    	mov    0xf441(%rip),%eax        # 1c028 <g_7>
    cbe7:	39 c2                	cmp    %eax,%edx
    cbe9:	0f 95 c0             	setne  %al
    cbec:	0f b6 c0             	movzbl %al,%eax
    cbef:	4c 89 e6             	mov    %r12,%rsi
    cbf2:	48 89 c7             	mov    %rax,%rdi
    cbf5:	e8 ba 9d ff ff       	callq  69b4 <safe_mod_func_int64_t_s_s>
    cbfa:	48 8b 85 80 f4 ff ff 	mov    -0xb80(%rbp),%rax
    cc01:	0f b6 00             	movzbl (%rax),%eax
    cc04:	8d 50 01             	lea    0x1(%rax),%edx
    cc07:	48 8b 85 80 f4 ff ff 	mov    -0xb80(%rbp),%rax
    cc0e:	88 10                	mov    %dl,(%rax)
    cc10:	48 8b 85 80 f4 ff ff 	mov    -0xb80(%rbp),%rax
    cc17:	0f b6 00             	movzbl (%rax),%eax
    cc1a:	0f b6 c0             	movzbl %al,%eax
    cc1d:	be 09 00 00 00       	mov    $0x9,%esi
    cc22:	89 c7                	mov    %eax,%edi
    cc24:	e8 23 a0 ff ff       	callq  6c4c <safe_lshift_func_uint8_t_u_u>
    cc29:	0f b6 c0             	movzbl %al,%eax
    cc2c:	be fc 00 00 00       	mov    $0xfc,%esi
    cc31:	89 c7                	mov    %eax,%edi
    cc33:	e8 5b 9f ff ff       	callq  6b93 <safe_mul_func_uint8_t_u_u>
    cc38:	0f b6 c0             	movzbl %al,%eax
    cc3b:	89 85 c0 f3 ff ff    	mov    %eax,-0xc40(%rbp)
    cc41:	8b 85 c0 f3 ff ff    	mov    -0xc40(%rbp),%eax
    cc47:	89 c2                	mov    %eax,%edx
    cc49:	0f be 85 b5 f3 ff ff 	movsbl -0xc4b(%rbp),%eax
    cc50:	89 d6                	mov    %edx,%esi
    cc52:	89 c7                	mov    %eax,%edi
    cc54:	e8 a4 a2 ff ff       	callq  6efd <safe_mod_func_uint32_t_u_u>
    cc59:	48 8b 85 68 f5 ff ff 	mov    -0xa98(%rbp),%rax
    cc60:	48 83 f8 45          	cmp    $0x45,%rax
    cc64:	74 07                	je     cc6d <func_60+0x2a0>
    cc66:	b8 01 00 00 00       	mov    $0x1,%eax
    cc6b:	eb 05                	jmp    cc72 <func_60+0x2a5>
    cc6d:	b8 00 00 00 00       	mov    $0x0,%eax
    cc72:	48 63 d0             	movslq %eax,%rdx
    cc75:	48 8b 85 88 f4 ff ff 	mov    -0xb78(%rbp),%rax
    cc7c:	48 89 10             	mov    %rdx,(%rax)
    cc7f:	48 8b 85 88 f4 ff ff 	mov    -0xb78(%rbp),%rax
    cc86:	48 8b 00             	mov    (%rax),%rax
    cc89:	48 89 c2             	mov    %rax,%rdx
    cc8c:	0f b6 05 99 f3 00 00 	movzbl 0xf399(%rip),%eax        # 1c02c <g_63>
    cc93:	48 0f be c0          	movsbq %al,%rax
    cc97:	48 89 d6             	mov    %rdx,%rsi
    cc9a:	48 89 c7             	mov    %rax,%rdi
    cc9d:	e8 0d a4 ff ff       	callq  70af <safe_div_func_uint64_t_u_u>
    cca2:	98                   	cwtl   
    cca3:	89 c7                	mov    %eax,%edi
    cca5:	e8 f3 96 ff ff       	callq  639d <safe_unary_minus_func_int16_t_s>
    ccaa:	98                   	cwtl   
    ccab:	23 85 ac f3 ff ff    	and    -0xc54(%rbp),%eax
    ccb1:	85 c0                	test   %eax,%eax
    ccb3:	0f 84 fc 20 00 00    	je     edb5 <func_60+0x23e8>
    ccb9:	c7 85 14 f4 ff ff 01 	movl   $0x1,-0xbec(%rbp)
    ccc0:	00 00 00 
    ccc3:	48 8d 05 78 f3 00 00 	lea    0xf378(%rip),%rax        # 1c042 <g_102>
    ccca:	48 89 85 a0 f7 ff ff 	mov    %rax,-0x860(%rbp)
    ccd1:	48 8d 05 6a f3 00 00 	lea    0xf36a(%rip),%rax        # 1c042 <g_102>
    ccd8:	48 89 85 a8 f7 ff ff 	mov    %rax,-0x858(%rbp)
    ccdf:	48 8d 05 5c f3 00 00 	lea    0xf35c(%rip),%rax        # 1c042 <g_102>
    cce6:	48 89 85 b0 f7 ff ff 	mov    %rax,-0x850(%rbp)
    cced:	48 8d 05 4e f3 00 00 	lea    0xf34e(%rip),%rax        # 1c042 <g_102>
    ccf4:	48 89 85 b8 f7 ff ff 	mov    %rax,-0x848(%rbp)
    ccfb:	48 8d 05 40 f3 00 00 	lea    0xf340(%rip),%rax        # 1c042 <g_102>
    cd02:	48 89 85 c0 f7 ff ff 	mov    %rax,-0x840(%rbp)
    cd09:	48 8d 05 32 f3 00 00 	lea    0xf332(%rip),%rax        # 1c042 <g_102>
    cd10:	48 89 85 c8 f7 ff ff 	mov    %rax,-0x838(%rbp)
    cd17:	48 8d 05 24 f3 00 00 	lea    0xf324(%rip),%rax        # 1c042 <g_102>
    cd1e:	48 89 85 d0 f7 ff ff 	mov    %rax,-0x830(%rbp)
    cd25:	48 8d 05 16 f3 00 00 	lea    0xf316(%rip),%rax        # 1c042 <g_102>
    cd2c:	48 89 85 d8 f7 ff ff 	mov    %rax,-0x828(%rbp)
    cd33:	48 8d 05 08 f3 00 00 	lea    0xf308(%rip),%rax        # 1c042 <g_102>
    cd3a:	48 89 85 e0 f7 ff ff 	mov    %rax,-0x820(%rbp)
    cd41:	48 8d 05 fa f2 00 00 	lea    0xf2fa(%rip),%rax        # 1c042 <g_102>
    cd48:	48 89 85 e8 f7 ff ff 	mov    %rax,-0x818(%rbp)
    cd4f:	48 8d 05 ec f2 00 00 	lea    0xf2ec(%rip),%rax        # 1c042 <g_102>
    cd56:	48 89 85 f0 f7 ff ff 	mov    %rax,-0x810(%rbp)
    cd5d:	48 8d 05 de f2 00 00 	lea    0xf2de(%rip),%rax        # 1c042 <g_102>
    cd64:	48 89 85 f8 f7 ff ff 	mov    %rax,-0x808(%rbp)
    cd6b:	48 8d 05 d0 f2 00 00 	lea    0xf2d0(%rip),%rax        # 1c042 <g_102>
    cd72:	48 89 85 00 f8 ff ff 	mov    %rax,-0x800(%rbp)
    cd79:	48 8d 05 c2 f2 00 00 	lea    0xf2c2(%rip),%rax        # 1c042 <g_102>
    cd80:	48 89 85 08 f8 ff ff 	mov    %rax,-0x7f8(%rbp)
    cd87:	48 8d 05 b4 f2 00 00 	lea    0xf2b4(%rip),%rax        # 1c042 <g_102>
    cd8e:	48 89 85 10 f8 ff ff 	mov    %rax,-0x7f0(%rbp)
    cd95:	48 8d 05 a6 f2 00 00 	lea    0xf2a6(%rip),%rax        # 1c042 <g_102>
    cd9c:	48 89 85 18 f8 ff ff 	mov    %rax,-0x7e8(%rbp)
    cda3:	48 8d 05 98 f2 00 00 	lea    0xf298(%rip),%rax        # 1c042 <g_102>
    cdaa:	48 89 85 20 f8 ff ff 	mov    %rax,-0x7e0(%rbp)
    cdb1:	48 8d 05 8a f2 00 00 	lea    0xf28a(%rip),%rax        # 1c042 <g_102>
    cdb8:	48 89 85 28 f8 ff ff 	mov    %rax,-0x7d8(%rbp)
    cdbf:	48 8d 05 7c f2 00 00 	lea    0xf27c(%rip),%rax        # 1c042 <g_102>
    cdc6:	48 89 85 30 f8 ff ff 	mov    %rax,-0x7d0(%rbp)
    cdcd:	48 8d 05 6e f2 00 00 	lea    0xf26e(%rip),%rax        # 1c042 <g_102>
    cdd4:	48 89 85 38 f8 ff ff 	mov    %rax,-0x7c8(%rbp)
    cddb:	48 8d 05 60 f2 00 00 	lea    0xf260(%rip),%rax        # 1c042 <g_102>
    cde2:	48 89 85 40 f8 ff ff 	mov    %rax,-0x7c0(%rbp)
    cde9:	48 8d 05 52 f2 00 00 	lea    0xf252(%rip),%rax        # 1c042 <g_102>
    cdf0:	48 89 85 48 f8 ff ff 	mov    %rax,-0x7b8(%rbp)
    cdf7:	48 8d 05 44 f2 00 00 	lea    0xf244(%rip),%rax        # 1c042 <g_102>
    cdfe:	48 89 85 50 f8 ff ff 	mov    %rax,-0x7b0(%rbp)
    ce05:	48 8d 05 36 f2 00 00 	lea    0xf236(%rip),%rax        # 1c042 <g_102>
    ce0c:	48 89 85 58 f8 ff ff 	mov    %rax,-0x7a8(%rbp)
    ce13:	48 8d 05 28 f2 00 00 	lea    0xf228(%rip),%rax        # 1c042 <g_102>
    ce1a:	48 89 85 60 f8 ff ff 	mov    %rax,-0x7a0(%rbp)
    ce21:	48 8d 05 1a f2 00 00 	lea    0xf21a(%rip),%rax        # 1c042 <g_102>
    ce28:	48 89 85 68 f8 ff ff 	mov    %rax,-0x798(%rbp)
    ce2f:	48 8d 05 0c f2 00 00 	lea    0xf20c(%rip),%rax        # 1c042 <g_102>
    ce36:	48 89 85 70 f8 ff ff 	mov    %rax,-0x790(%rbp)
    ce3d:	48 8d 05 fe f1 00 00 	lea    0xf1fe(%rip),%rax        # 1c042 <g_102>
    ce44:	48 89 85 78 f8 ff ff 	mov    %rax,-0x788(%rbp)
    ce4b:	48 8d 05 f0 f1 00 00 	lea    0xf1f0(%rip),%rax        # 1c042 <g_102>
    ce52:	48 89 85 80 f8 ff ff 	mov    %rax,-0x780(%rbp)
    ce59:	48 8d 05 e2 f1 00 00 	lea    0xf1e2(%rip),%rax        # 1c042 <g_102>
    ce60:	48 89 85 88 f8 ff ff 	mov    %rax,-0x778(%rbp)
    ce67:	c7 85 d4 f3 ff ff 00 	movl   $0x0,-0xc2c(%rbp)
    ce6e:	00 00 00 
    ce71:	48 8d 05 cc f1 00 00 	lea    0xf1cc(%rip),%rax        # 1c044 <g_114>
    ce78:	48 89 85 c0 f6 ff ff 	mov    %rax,-0x940(%rbp)
    ce7f:	48 8d 05 be f1 00 00 	lea    0xf1be(%rip),%rax        # 1c044 <g_114>
    ce86:	48 89 85 c8 f6 ff ff 	mov    %rax,-0x938(%rbp)
    ce8d:	48 c7 85 d0 f6 ff ff 	movq   $0x0,-0x930(%rbp)
    ce94:	00 00 00 00 
    ce98:	48 8d 05 a5 f1 00 00 	lea    0xf1a5(%rip),%rax        # 1c044 <g_114>
    ce9f:	48 89 85 d8 f6 ff ff 	mov    %rax,-0x928(%rbp)
    cea6:	48 c7 85 e0 f6 ff ff 	movq   $0x0,-0x920(%rbp)
    cead:	00 00 00 00 
    ceb1:	48 8d 05 8c f1 00 00 	lea    0xf18c(%rip),%rax        # 1c044 <g_114>
    ceb8:	48 89 85 e8 f6 ff ff 	mov    %rax,-0x918(%rbp)
    cebf:	48 8d 05 7e f1 00 00 	lea    0xf17e(%rip),%rax        # 1c044 <g_114>
    cec6:	48 89 85 f0 f6 ff ff 	mov    %rax,-0x910(%rbp)
    cecd:	48 c7 85 f8 f6 ff ff 	movq   $0x0,-0x908(%rbp)
    ced4:	00 00 00 00 
    ced8:	48 8d 05 65 f1 00 00 	lea    0xf165(%rip),%rax        # 1c044 <g_114>
    cedf:	48 89 85 00 f7 ff ff 	mov    %rax,-0x900(%rbp)
    cee6:	48 c7 85 08 f7 ff ff 	movq   $0x0,-0x8f8(%rbp)
    ceed:	00 00 00 00 
    cef1:	48 8d 05 4c f1 00 00 	lea    0xf14c(%rip),%rax        # 1c044 <g_114>
    cef8:	48 89 85 10 f7 ff ff 	mov    %rax,-0x8f0(%rbp)
    ceff:	48 8d 05 3e f1 00 00 	lea    0xf13e(%rip),%rax        # 1c044 <g_114>
    cf06:	48 89 85 18 f7 ff ff 	mov    %rax,-0x8e8(%rbp)
    cf0d:	48 c7 85 20 f7 ff ff 	movq   $0x0,-0x8e0(%rbp)
    cf14:	00 00 00 00 
    cf18:	48 8d 05 25 f1 00 00 	lea    0xf125(%rip),%rax        # 1c044 <g_114>
    cf1f:	48 89 85 28 f7 ff ff 	mov    %rax,-0x8d8(%rbp)
    cf26:	48 c7 85 30 f7 ff ff 	movq   $0x0,-0x8d0(%rbp)
    cf2d:	00 00 00 00 
    cf31:	48 8d 05 0c f1 00 00 	lea    0xf10c(%rip),%rax        # 1c044 <g_114>
    cf38:	48 89 85 38 f7 ff ff 	mov    %rax,-0x8c8(%rbp)
    cf3f:	48 8d 05 fe f0 00 00 	lea    0xf0fe(%rip),%rax        # 1c044 <g_114>
    cf46:	48 89 85 40 f7 ff ff 	mov    %rax,-0x8c0(%rbp)
    cf4d:	48 c7 85 48 f7 ff ff 	movq   $0x0,-0x8b8(%rbp)
    cf54:	00 00 00 00 
    cf58:	48 8d 05 e5 f0 00 00 	lea    0xf0e5(%rip),%rax        # 1c044 <g_114>
    cf5f:	48 89 85 50 f7 ff ff 	mov    %rax,-0x8b0(%rbp)
    cf66:	48 c7 85 58 f7 ff ff 	movq   $0x0,-0x8a8(%rbp)
    cf6d:	00 00 00 00 
    cf71:	48 8d 05 cc f0 00 00 	lea    0xf0cc(%rip),%rax        # 1c044 <g_114>
    cf78:	48 89 85 60 f7 ff ff 	mov    %rax,-0x8a0(%rbp)
    cf7f:	48 8d 05 be f0 00 00 	lea    0xf0be(%rip),%rax        # 1c044 <g_114>
    cf86:	48 89 85 68 f7 ff ff 	mov    %rax,-0x898(%rbp)
    cf8d:	48 c7 85 70 f7 ff ff 	movq   $0x0,-0x890(%rbp)
    cf94:	00 00 00 00 
    cf98:	48 8d 05 a5 f0 00 00 	lea    0xf0a5(%rip),%rax        # 1c044 <g_114>
    cf9f:	48 89 85 78 f7 ff ff 	mov    %rax,-0x888(%rbp)
    cfa6:	48 c7 85 80 f7 ff ff 	movq   $0x0,-0x880(%rbp)
    cfad:	00 00 00 00 
    cfb1:	48 8d 05 8c f0 00 00 	lea    0xf08c(%rip),%rax        # 1c044 <g_114>
    cfb8:	48 89 85 88 f7 ff ff 	mov    %rax,-0x878(%rbp)
    cfbf:	48 8d 05 7e f0 00 00 	lea    0xf07e(%rip),%rax        # 1c044 <g_114>
    cfc6:	48 89 85 90 f7 ff ff 	mov    %rax,-0x870(%rbp)
    cfcd:	48 c7 85 98 f7 ff ff 	movq   $0x0,-0x868(%rbp)
    cfd4:	00 00 00 00 
    cfd8:	c7 85 d8 f3 ff ff df 	movl   $0x2265a2df,-0xc28(%rbp)
    cfdf:	a2 65 22 
    cfe2:	c7 85 dc f3 ff ff c1 	movl   $0x5f1995c1,-0xc24(%rbp)
    cfe9:	95 19 5f 
    cfec:	48 8d 85 68 f5 ff ff 	lea    -0xa98(%rbp),%rax
    cff3:	48 89 85 d0 f4 ff ff 	mov    %rax,-0xb30(%rbp)
    cffa:	c7 85 90 f8 ff ff ff 	movl   $0xe2bbf8ff,-0x770(%rbp)
    d001:	f8 bb e2 
    d004:	c6 85 94 f8 ff ff a0 	movb   $0xa0,-0x76c(%rbp)
    d00b:	c7 85 95 f8 ff ff ba 	movl   $0x9ff0eba,-0x76b(%rbp)
    d012:	0e ff 09 
    d015:	c6 85 99 f8 ff ff 00 	movb   $0x0,-0x767(%rbp)
    d01c:	c7 85 9a f8 ff ff 4d 	movl   $0xa6b7014d,-0x766(%rbp)
    d023:	01 b7 a6 
    d026:	c6 85 9e f8 ff ff f8 	movb   $0xf8,-0x762(%rbp)
    d02d:	c7 85 9f f8 ff ff 4d 	movl   $0xd401ff4d,-0x761(%rbp)
    d034:	ff 01 d4 
    d037:	c6 85 a3 f8 ff ff ba 	movb   $0xba,-0x75d(%rbp)
    d03e:	c7 85 a4 f8 ff ff ba 	movl   $0xba0505ba,-0x75c(%rbp)
    d045:	05 05 ba 
    d048:	c6 85 a8 f8 ff ff 01 	movb   $0x1,-0x758(%rbp)
    d04f:	c7 85 a9 f8 ff ff ff 	movl   $0xef7bcff,-0x757(%rbp)
    d056:	bc f7 0e 
    d059:	c6 85 ad f8 ff ff ff 	movb   $0xff,-0x753(%rbp)
    d060:	c7 85 ae f8 ff ff 8e 	movl   $0x3d7fd8e,-0x752(%rbp)
    d067:	fd d7 03 
    d06a:	c6 85 b2 f8 ff ff da 	movb   $0xda,-0x74e(%rbp)
    d071:	c7 85 b3 f8 ff ff d7 	movl   $0xe47ffd7,-0x74d(%rbp)
    d078:	ff 47 0e 
    d07b:	c6 85 b7 f8 ff ff 8e 	movb   $0x8e,-0x749(%rbp)
    d082:	c7 85 b8 f8 ff ff ee 	movl   $0xba02dbee,-0x748(%rbp)
    d089:	db 02 ba 
    d08c:	c6 85 bc f8 ff ff 0e 	movb   $0xe,-0x744(%rbp)
    d093:	c7 85 bd f8 ff ff bb 	movl   $0xd4a0e2bb,-0x743(%rbp)
    d09a:	e2 a0 d4 
    d09d:	c6 85 c1 f8 ff ff 03 	movb   $0x3,-0x73f(%rbp)
    d0a4:	c7 85 c2 f8 ff ff f8 	movl   $0x9f5cbbf8,-0x73e(%rbp)
    d0ab:	bb 5c 9f 
    d0ae:	c6 85 c6 f8 ff ff ee 	movb   $0xee,-0x73a(%rbp)
    d0b5:	c7 85 c7 f8 ff ff 4d 	movl   $0x58ebb4d,-0x739(%rbp)
    d0bc:	bb 8e 05 
    d0bf:	c6 85 cb f8 ff ff 09 	movb   $0x9,-0x735(%rbp)
    d0c6:	c7 85 cc f8 ff ff f8 	movl   $0xff03fff8,-0x734(%rbp)
    d0cd:	ff 03 ff 
    d0d0:	c6 85 d0 f8 ff ff f8 	movb   $0xf8,-0x730(%rbp)
    d0d7:	c7 85 d1 f8 ff ff db 	movl   $0xf7dad4db,-0x72f(%rbp)
    d0de:	d4 da f7 
    d0e1:	c6 85 d5 f8 ff ff 02 	movb   $0x2,-0x72b(%rbp)
    d0e8:	c7 85 d6 f8 ff ff f8 	movl   $0x845b7f8,-0x72a(%rbp)
    d0ef:	b7 45 08 
    d0f2:	c6 85 da f8 ff ff a6 	movb   $0xa6,-0x726(%rbp)
    d0f9:	c7 85 db f8 ff ff ba 	movl   $0xd400bcba,-0x725(%rbp)
    d100:	bc 00 d4 
    d103:	c6 85 df f8 ff ff 02 	movb   $0x2,-0x721(%rbp)
    d10a:	c7 85 e0 f8 ff ff 5c 	movl   $0xff085c,-0x720(%rbp)
    d111:	08 ff 00 
    d114:	c6 85 e4 f8 ff ff f8 	movb   $0xf8,-0x71c(%rbp)
    d11b:	c7 85 e5 f8 ff ff 02 	movl   $0xff0eba02,-0x71b(%rbp)
    d122:	ba 0e ff 
    d125:	c6 85 e9 f8 ff ff 09 	movb   $0x9,-0x717(%rbp)
    d12c:	c7 85 ea f8 ff ff 9c 	movl   $0x2cdbf79c,-0x716(%rbp)
    d133:	f7 db 2c 
    d136:	c6 85 ee f8 ff ff ee 	movb   $0xee,-0x712(%rbp)
    d13d:	c7 85 ef f8 ff ff a0 	movl   $0xb7dbf9a0,-0x711(%rbp)
    d144:	f9 db b7 
    d147:	c6 85 f3 f8 ff ff 03 	movb   $0x3,-0x70d(%rbp)
    d14e:	c7 85 f4 f8 ff ff 2c 	movl   $0xe0e002c,-0x70c(%rbp)
    d155:	00 0e 0e 
    d158:	c6 85 f8 f8 ff ff 00 	movb   $0x0,-0x708(%rbp)
    d15f:	c7 85 f9 f8 ff ff 9f 	movl   $0x5cff2c9f,-0x707(%rbp)
    d166:	2c ff 5c 
    d169:	c6 85 fd f8 ff ff 01 	movb   $0x1,-0x703(%rbp)
    d170:	c7 85 fe f8 ff ff bc 	movl   $0xf800d0bc,-0x702(%rbp)
    d177:	d0 00 f8 
    d17a:	c6 85 02 f9 ff ff 47 	movb   $0x47,-0x6fe(%rbp)
    d181:	c7 85 03 f9 ff ff d7 	movl   $0xd045e2d7,-0x6fd(%rbp)
    d188:	e2 45 d0 
    d18b:	c6 85 07 f9 ff ff b7 	movb   $0xb7,-0x6f9(%rbp)
    d192:	c7 85 08 f9 ff ff bc 	movl   $0x9cdaf8bc,-0x6f8(%rbp)
    d199:	f8 da 9c 
    d19c:	c6 85 0c f9 ff ff f9 	movb   $0xf9,-0x6f4(%rbp)
    d1a3:	c7 85 0d f9 ff ff 9f 	movl   $0x4d03ff9f,-0x6f3(%rbp)
    d1aa:	ff 03 4d 
    d1ad:	c6 85 11 f9 ff ff 8e 	movb   $0x8e,-0x6ef(%rbp)
    d1b4:	c7 85 12 f9 ff ff 2c 	movl   $0x38ea02c,-0x6ee(%rbp)
    d1bb:	a0 8e 03 
    d1be:	c6 85 16 f9 ff ff a0 	movb   $0xa0,-0x6ea(%rbp)
    d1c5:	c7 85 17 f9 ff ff a0 	movl   $0x35cdaa0,-0x6e9(%rbp)
    d1cc:	da 5c 03 
    d1cf:	c6 85 1b f9 ff ff f8 	movb   $0xf8,-0x6e5(%rbp)
    d1d6:	c7 85 1c f9 ff ff 9c 	movl   $0x4df7d79c,-0x6e4(%rbp)
    d1dd:	d7 f7 4d 
    d1e0:	c6 85 20 f9 ff ff f7 	movb   $0xf7,-0x6e0(%rbp)
    d1e7:	c7 85 21 f9 ff ff 02 	movl   $0x9cf80202,-0x6df(%rbp)
    d1ee:	02 f8 9c 
    d1f1:	c6 85 25 f9 ff ff e2 	movb   $0xe2,-0x6db(%rbp)
    d1f8:	c7 85 26 f9 ff ff 5c 	movl   $0xd0ff8e5c,-0x6da(%rbp)
    d1ff:	8e ff d0 
    d202:	c6 85 2a f9 ff ff 9f 	movb   $0x9f,-0x6d6(%rbp)
    d209:	c7 85 2b f9 ff ff ba 	movl   $0xf8eefdba,-0x6d5(%rbp)
    d210:	fd ee f8 
    d213:	c6 85 2f f9 ff ff f7 	movb   $0xf7,-0x6d1(%rbp)
    d21a:	c7 85 30 f9 ff ff f8 	movl   $0x5c028ef8,-0x6d0(%rbp)
    d221:	8e 02 5c 
    d224:	c6 85 34 f9 ff ff d0 	movb   $0xd0,-0x6cc(%rbp)
    d22b:	c7 85 35 f9 ff ff db 	movl   $0xeba02db,-0x6cb(%rbp)
    d232:	02 ba 0e 
    d235:	c6 85 39 f9 ff ff ff 	movb   $0xff,-0x6c7(%rbp)
    d23c:	c7 85 3a f9 ff ff f8 	movl   $0xb7f9d7f8,-0x6c6(%rbp)
    d243:	d7 f9 b7 
    d246:	c6 85 3e f9 ff ff 9c 	movb   $0x9c,-0x6c2(%rbp)
    d24d:	c7 85 3f f9 ff ff 4d 	movl   $0x2c09da4d,-0x6c1(%rbp)
    d254:	da 09 2c 
    d257:	c6 85 43 f9 ff ff 9c 	movb   $0x9c,-0x6bd(%rbp)
    d25e:	c7 85 44 f9 ff ff f8 	movl   $0xfff7a0f8,-0x6bc(%rbp)
    d265:	a0 f7 ff 
    d268:	c6 85 48 f9 ff ff ff 	movb   $0xff,-0x6b8(%rbp)
    d26f:	c7 85 49 f9 ff ff fd 	movl   $0xfdfffd,-0x6b7(%rbp)
    d276:	ff fd 00 
    d279:	c6 85 4d f9 ff ff d0 	movb   $0xd0,-0x6b3(%rbp)
    d280:	c7 85 4e f9 ff ff 0e 	movl   $0xd4f4f80e,-0x6b2(%rbp)
    d287:	f8 f4 d4 
    d28a:	c6 85 52 f9 ff ff f7 	movb   $0xf7,-0x6ae(%rbp)
    d291:	c7 85 53 f9 ff ff ee 	movl   $0x8d4e2ee,-0x6ad(%rbp)
    d298:	e2 d4 08 
    d29b:	c6 85 57 f9 ff ff 9f 	movb   $0x9f,-0x6a9(%rbp)
    d2a2:	c7 85 58 f9 ff ff 01 	movl   $0xf7f4d001,-0x6a8(%rbp)
    d2a9:	d0 f4 f7 
    d2ac:	c6 85 5c f9 ff ff e2 	movb   $0xe2,-0x6a4(%rbp)
    d2b3:	c7 85 5d f9 ff ff f7 	movl   $0xfffd2cf7,-0x6a3(%rbp)
    d2ba:	2c fd ff 
    d2bd:	c6 85 61 f9 ff ff f7 	movb   $0xf7,-0x69f(%rbp)
    d2c4:	c7 85 62 f9 ff ff 8e 	movl   $0x5f7008e,-0x69e(%rbp)
    d2cb:	00 f7 05 
    d2ce:	c6 85 66 f9 ff ff f8 	movb   $0xf8,-0x69a(%rbp)
    d2d5:	c7 85 67 f9 ff ff d0 	movl   $0x9f09f9d0,-0x699(%rbp)
    d2dc:	f9 09 9f 
    d2df:	c6 85 6b f9 ff ff a0 	movb   $0xa0,-0x695(%rbp)
    d2e6:	c7 85 6c f9 ff ff d0 	movl   $0x45f9f7d0,-0x694(%rbp)
    d2ed:	f7 f9 45 
    d2f0:	c6 85 70 f9 ff ff 8e 	movb   $0x8e,-0x690(%rbp)
    d2f7:	c7 85 71 f9 ff ff 8e 	movl   $0x8ebaba8e,-0x68f(%rbp)
    d2fe:	ba ba 8e 
    d301:	c6 85 75 f9 ff ff f9 	movb   $0xf9,-0x68b(%rbp)
    d308:	c7 85 76 f9 ff ff f7 	movl   $0x208f7,-0x68a(%rbp)
    d30f:	08 02 00 
    d312:	c6 85 7a f9 ff ff b7 	movb   $0xb7,-0x686(%rbp)
    d319:	c7 85 7b f9 ff ff 01 	movl   $0xf4eebc01,-0x685(%rbp)
    d320:	bc ee f4 
    d323:	c6 85 7f f9 ff ff 47 	movb   $0x47,-0x681(%rbp)
    d32a:	0f b7 05 0f ed 00 00 	movzwl 0xed0f(%rip),%eax        # 1c040 <g_91+0x10>
    d331:	66 c1 e8 06          	shr    $0x6,%ax
    d335:	83 e0 07             	and    $0x7,%eax
    d338:	0f b6 d0             	movzbl %al,%edx
    d33b:	8b 05 e7 ec 00 00    	mov    0xece7(%rip),%eax        # 1c028 <g_7>
    d341:	98                   	cwtl   
    d342:	89 d6                	mov    %edx,%esi
    d344:	89 c7                	mov    %eax,%edi
    d346:	e8 88 90 ff ff       	callq  63d3 <safe_sub_func_int16_t_s_s>
    d34b:	98                   	cwtl   
    d34c:	33 85 ac f3 ff ff    	xor    -0xc54(%rbp),%eax
    d352:	be ff ff ff ff       	mov    $0xffffffff,%esi
    d357:	89 c7                	mov    %eax,%edi
    d359:	e8 72 9b ff ff       	callq  6ed0 <safe_sub_func_uint32_t_u_u>
    d35e:	85 c0                	test   %eax,%eax
    d360:	75 08                	jne    d36a <func_60+0x99d>
    d362:	8b 85 c0 f3 ff ff    	mov    -0xc40(%rbp),%eax
    d368:	85 c0                	test   %eax,%eax
    d36a:	be 00 00 00 00       	mov    $0x0,%esi
    d36f:	bf 02 00 00 00       	mov    $0x2,%edi
    d374:	e8 57 9b ff ff       	callq  6ed0 <safe_sub_func_uint32_t_u_u>
    d379:	0f b7 d0             	movzwl %ax,%edx
    d37c:	0f b7 05 bf ec 00 00 	movzwl 0xecbf(%rip),%eax        # 1c042 <g_102>
    d383:	8d 48 ff             	lea    -0x1(%rax),%ecx
    d386:	66 89 0d b5 ec 00 00 	mov    %cx,0xecb5(%rip)        # 1c042 <g_102>
    d38d:	0f b7 c0             	movzwl %ax,%eax
    d390:	89 d6                	mov    %edx,%esi
    d392:	89 c7                	mov    %eax,%edi
    d394:	e8 c3 99 ff ff       	callq  6d5c <safe_mod_func_uint16_t_u_u>
    d399:	0f b7 d0             	movzwl %ax,%edx
    d39c:	8b 05 a2 ec 00 00    	mov    0xeca2(%rip),%eax        # 1c044 <g_114>
    d3a2:	09 d0                	or     %edx,%eax
    d3a4:	89 05 9a ec 00 00    	mov    %eax,0xec9a(%rip)        # 1c044 <g_114>
    d3aa:	8b 85 d4 f3 ff ff    	mov    -0xc2c(%rbp),%eax
    d3b0:	89 85 c0 f3 ff ff    	mov    %eax,-0xc40(%rbp)
    d3b6:	8b 85 c0 f3 ff ff    	mov    -0xc40(%rbp),%eax
    d3bc:	0f b7 c0             	movzwl %ax,%eax
    d3bf:	89 c6                	mov    %eax,%esi
    d3c1:	bf 2b 82 00 00       	mov    $0x822b,%edi
    d3c6:	e8 72 99 ff ff       	callq  6d3d <safe_mul_func_uint16_t_u_u>
    d3cb:	0f b7 c0             	movzwl %ax,%eax
    d3ce:	83 c8 fa             	or     $0xfffffffa,%eax
    d3d1:	89 85 c4 f3 ff ff    	mov    %eax,-0xc3c(%rbp)
    d3d7:	8b 85 c4 f3 ff ff    	mov    -0xc3c(%rbp),%eax
    d3dd:	89 c2                	mov    %eax,%edx
    d3df:	0f b6 05 e2 72 01 00 	movzbl 0x172e2(%rip),%eax        # 246c8 <g_79>
    d3e6:	0f b6 c0             	movzbl %al,%eax
    d3e9:	21 d0                	and    %edx,%eax
    d3eb:	0f b7 d0             	movzwl %ax,%edx
    d3ee:	8b 85 14 f4 ff ff    	mov    -0xbec(%rbp),%eax
    d3f4:	0f b7 c0             	movzwl %ax,%eax
    d3f7:	89 d6                	mov    %edx,%esi
    d3f9:	89 c7                	mov    %eax,%edi
    d3fb:	e8 1f 99 ff ff       	callq  6d1f <safe_sub_func_uint16_t_u_u>
    d400:	66 85 c0             	test   %ax,%ax
    d403:	75 0a                	jne    d40f <func_60+0xa42>
    d405:	8b 85 a8 f3 ff ff    	mov    -0xc58(%rbp),%eax
    d40b:	85 c0                	test   %eax,%eax
    d40d:	74 07                	je     d416 <func_60+0xa49>
    d40f:	b8 01 00 00 00       	mov    $0x1,%eax
    d414:	eb 05                	jmp    d41b <func_60+0xa4e>
    d416:	b8 00 00 00 00       	mov    $0x0,%eax
    d41b:	89 c2                	mov    %eax,%edx
    d41d:	48 8b 05 12 ec 00 00 	mov    0xec12(%rip),%rax        # 1c036 <g_91+0x6>
    d424:	31 d0                	xor    %edx,%eax
    d426:	83 f0 55             	xor    $0x55,%eax
    d429:	0f be c0             	movsbl %al,%eax
    d42c:	be 00 00 00 00       	mov    $0x0,%esi
    d431:	89 c7                	mov    %eax,%edi
    d433:	e8 fd 8e ff ff       	callq  6335 <safe_rshift_func_int8_t_s_s>
    d438:	48 0f be c0          	movsbq %al,%rax
    d43c:	48 be 8d cf 6d 19 c4 	movabs $0x2850edc4196dcf8d,%rsi
    d443:	ed 50 28 
    d446:	48 89 c7             	mov    %rax,%rdi
    d449:	e8 a9 95 ff ff       	callq  69f7 <safe_div_func_int64_t_s_s>
    d44e:	48 3d e5 bc 4f 31    	cmp    $0x314fbce5,%rax
    d454:	74 07                	je     d45d <func_60+0xa90>
    d456:	83 bd ac f3 ff ff 00 	cmpl   $0x0,-0xc54(%rbp)
    d45d:	0f b6 05 c8 eb 00 00 	movzbl 0xebc8(%rip),%eax        # 1c02c <g_63>
    d464:	83 f0 01             	xor    $0x1,%eax
    d467:	48 0f be c0          	movsbq %al,%rax
    d46b:	48 83 f8 ff          	cmp    $0xffffffffffffffff,%rax
    d46f:	0f 85 f7 18 00 00    	jne    ed6c <func_60+0x239f>
    d475:	c6 85 b7 f3 ff ff bb 	movb   $0xbb,-0xc49(%rbp)
    d47c:	48 c7 85 48 f4 ff ff 	movq   $0x0,-0xbb8(%rbp)
    d483:	00 00 00 00 
    d487:	c7 85 e8 f3 ff ff 00 	movl   $0x0,-0xc18(%rbp)
    d48e:	00 00 00 
    d491:	eb 1a                	jmp    d4ad <func_60+0xae0>
    d493:	8b 85 e8 f3 ff ff    	mov    -0xc18(%rbp),%eax
    d499:	48 98                	cltq   
    d49b:	c7 84 85 e0 f5 ff ff 	movl   $0xa481b1f8,-0xa20(%rbp,%rax,4)
    d4a2:	f8 b1 81 a4 
    d4a6:	83 85 e8 f3 ff ff 01 	addl   $0x1,-0xc18(%rbp)
    d4ad:	83 bd e8 f3 ff ff 07 	cmpl   $0x7,-0xc18(%rbp)
    d4b4:	7e dd                	jle    d493 <func_60+0xac6>
    d4b6:	c7 85 e8 f3 ff ff 00 	movl   $0x0,-0xc18(%rbp)
    d4bd:	00 00 00 
    d4c0:	eb 1e                	jmp    d4e0 <func_60+0xb13>
    d4c2:	8b 85 e8 f3 ff ff    	mov    -0xc18(%rbp),%eax
    d4c8:	48 98                	cltq   
    d4ca:	48 8d 15 ef 56 01 00 	lea    0x156ef(%rip),%rdx        # 22bc0 <g_167>
    d4d1:	48 89 94 c5 a0 f5 ff 	mov    %rdx,-0xa60(%rbp,%rax,8)
    d4d8:	ff 
    d4d9:	83 85 e8 f3 ff ff 01 	addl   $0x1,-0xc18(%rbp)
    d4e0:	83 bd e8 f3 ff ff 02 	cmpl   $0x2,-0xc18(%rbp)
    d4e7:	7e d9                	jle    d4c2 <func_60+0xaf5>
    d4e9:	c7 85 e8 f3 ff ff 00 	movl   $0x0,-0xc18(%rbp)
    d4f0:	00 00 00 
    d4f3:	eb 1e                	jmp    d513 <func_60+0xb46>
    d4f5:	8b 85 e8 f3 ff ff    	mov    -0xc18(%rbp),%eax
    d4fb:	48 98                	cltq   
    d4fd:	48 8d 15 b6 ec 00 00 	lea    0xecb6(%rip),%rdx        # 1c1ba <g_218+0xa>
    d504:	48 89 94 c5 30 f6 ff 	mov    %rdx,-0x9d0(%rbp,%rax,8)
    d50b:	ff 
    d50c:	83 85 e8 f3 ff ff 01 	addl   $0x1,-0xc18(%rbp)
    d513:	83 bd e8 f3 ff ff 07 	cmpl   $0x7,-0xc18(%rbp)
    d51a:	7e d9                	jle    d4f5 <func_60+0xb28>
    d51c:	c7 05 1e eb 00 00 f1 	movl   $0xfffffff1,0xeb1e(%rip)        # 1c044 <g_114>
    d523:	ff ff ff 
    d526:	e9 f3 17 00 00       	jmpq   ed1e <func_60+0x2351>
    d52b:	48 8d 85 c4 f3 ff ff 	lea    -0xc3c(%rbp),%rax
    d532:	48 89 85 50 f4 ff ff 	mov    %rax,-0xbb0(%rbp)
    d539:	48 8d 85 d4 f3 ff ff 	lea    -0xc2c(%rbp),%rax
    d540:	48 89 85 e0 f4 ff ff 	mov    %rax,-0xb20(%rbp)
    d547:	48 c7 85 e8 f4 ff ff 	movq   $0x0,-0xb18(%rbp)
    d54e:	00 00 00 00 
    d552:	c7 85 e0 f3 ff ff c0 	movl   $0x457360c0,-0xc20(%rbp)
    d559:	60 73 45 
    d55c:	48 8d 85 c0 f3 ff ff 	lea    -0xc40(%rbp),%rax
    d563:	48 89 85 f0 f4 ff ff 	mov    %rax,-0xb10(%rbp)
    d56a:	48 8d 85 c0 f3 ff ff 	lea    -0xc40(%rbp),%rax
    d571:	48 89 85 00 f6 ff ff 	mov    %rax,-0xa00(%rbp)
    d578:	48 8d 85 c0 f3 ff ff 	lea    -0xc40(%rbp),%rax
    d57f:	48 89 85 08 f6 ff ff 	mov    %rax,-0x9f8(%rbp)
    d586:	48 8d 85 c0 f3 ff ff 	lea    -0xc40(%rbp),%rax
    d58d:	48 89 85 10 f6 ff ff 	mov    %rax,-0x9f0(%rbp)
    d594:	48 8d 85 c0 f3 ff ff 	lea    -0xc40(%rbp),%rax
    d59b:	48 89 85 18 f6 ff ff 	mov    %rax,-0x9e8(%rbp)
    d5a2:	48 8d 85 c0 f3 ff ff 	lea    -0xc40(%rbp),%rax
    d5a9:	48 89 85 20 f6 ff ff 	mov    %rax,-0x9e0(%rbp)
    d5b0:	48 8d 85 c0 f3 ff ff 	lea    -0xc40(%rbp),%rax
    d5b7:	48 89 85 28 f6 ff ff 	mov    %rax,-0x9d8(%rbp)
    d5be:	48 8d 05 eb ea 00 00 	lea    0xeaeb(%rip),%rax        # 1c0b0 <g_142+0x50>
    d5c5:	48 89 85 f8 f4 ff ff 	mov    %rax,-0xb08(%rbp)
    d5cc:	48 8d 85 c4 f3 ff ff 	lea    -0xc3c(%rbp),%rax
    d5d3:	48 89 85 80 f9 ff ff 	mov    %rax,-0x680(%rbp)
    d5da:	48 8d 85 e0 f3 ff ff 	lea    -0xc20(%rbp),%rax
    d5e1:	48 89 85 88 f9 ff ff 	mov    %rax,-0x678(%rbp)
    d5e8:	48 8d 85 d8 f3 ff ff 	lea    -0xc28(%rbp),%rax
    d5ef:	48 89 85 90 f9 ff ff 	mov    %rax,-0x670(%rbp)
    d5f6:	48 8d 05 2b ea 00 00 	lea    0xea2b(%rip),%rax        # 1c028 <g_7>
    d5fd:	48 89 85 98 f9 ff ff 	mov    %rax,-0x668(%rbp)
    d604:	48 8d 85 c0 f3 ff ff 	lea    -0xc40(%rbp),%rax
    d60b:	48 89 85 a0 f9 ff ff 	mov    %rax,-0x660(%rbp)
    d612:	48 c7 85 a8 f9 ff ff 	movq   $0x0,-0x658(%rbp)
    d619:	00 00 00 00 
    d61d:	48 8d 85 e0 f5 ff ff 	lea    -0xa20(%rbp),%rax
    d624:	48 83 c0 04          	add    $0x4,%rax
    d628:	48 89 85 b0 f9 ff ff 	mov    %rax,-0x650(%rbp)
    d62f:	48 8d 85 c0 f3 ff ff 	lea    -0xc40(%rbp),%rax
    d636:	48 89 85 b8 f9 ff ff 	mov    %rax,-0x648(%rbp)
    d63d:	48 c7 85 c0 f9 ff ff 	movq   $0x0,-0x640(%rbp)
    d644:	00 00 00 00 
    d648:	48 8d 85 d8 f3 ff ff 	lea    -0xc28(%rbp),%rax
    d64f:	48 89 85 c8 f9 ff ff 	mov    %rax,-0x638(%rbp)
    d656:	48 c7 85 d0 f9 ff ff 	movq   $0x0,-0x630(%rbp)
    d65d:	00 00 00 00 
    d661:	48 8d 85 c0 f3 ff ff 	lea    -0xc40(%rbp),%rax
    d668:	48 89 85 d8 f9 ff ff 	mov    %rax,-0x628(%rbp)
    d66f:	48 8d 85 e0 f5 ff ff 	lea    -0xa20(%rbp),%rax
    d676:	48 83 c0 04          	add    $0x4,%rax
    d67a:	48 89 85 e0 f9 ff ff 	mov    %rax,-0x620(%rbp)
    d681:	48 c7 85 e8 f9 ff ff 	movq   $0x0,-0x618(%rbp)
    d688:	00 00 00 00 
    d68c:	48 8d 85 c0 f3 ff ff 	lea    -0xc40(%rbp),%rax
    d693:	48 89 85 f0 f9 ff ff 	mov    %rax,-0x610(%rbp)
    d69a:	48 8d 05 87 e9 00 00 	lea    0xe987(%rip),%rax        # 1c028 <g_7>
    d6a1:	48 89 85 f8 f9 ff ff 	mov    %rax,-0x608(%rbp)
    d6a8:	48 8d 85 d8 f3 ff ff 	lea    -0xc28(%rbp),%rax
    d6af:	48 89 85 00 fa ff ff 	mov    %rax,-0x600(%rbp)
    d6b6:	48 8d 85 e0 f3 ff ff 	lea    -0xc20(%rbp),%rax
    d6bd:	48 89 85 08 fa ff ff 	mov    %rax,-0x5f8(%rbp)
    d6c4:	48 8d 85 c4 f3 ff ff 	lea    -0xc3c(%rbp),%rax
    d6cb:	48 89 85 10 fa ff ff 	mov    %rax,-0x5f0(%rbp)
    d6d2:	48 8d 85 d8 f3 ff ff 	lea    -0xc28(%rbp),%rax
    d6d9:	48 89 85 18 fa ff ff 	mov    %rax,-0x5e8(%rbp)
    d6e0:	48 8d 85 d8 f3 ff ff 	lea    -0xc28(%rbp),%rax
    d6e7:	48 89 85 20 fa ff ff 	mov    %rax,-0x5e0(%rbp)
    d6ee:	48 c7 85 28 fa ff ff 	movq   $0x0,-0x5d8(%rbp)
    d6f5:	00 00 00 00 
    d6f9:	48 c7 85 30 fa ff ff 	movq   $0x0,-0x5d0(%rbp)
    d700:	00 00 00 00 
    d704:	48 8d 85 d8 f3 ff ff 	lea    -0xc28(%rbp),%rax
    d70b:	48 89 85 38 fa ff ff 	mov    %rax,-0x5c8(%rbp)
    d712:	48 8d 85 c0 f3 ff ff 	lea    -0xc40(%rbp),%rax
    d719:	48 89 85 40 fa ff ff 	mov    %rax,-0x5c0(%rbp)
    d720:	48 8d 85 d4 f3 ff ff 	lea    -0xc2c(%rbp),%rax
    d727:	48 89 85 48 fa ff ff 	mov    %rax,-0x5b8(%rbp)
    d72e:	48 8d 85 dc f3 ff ff 	lea    -0xc24(%rbp),%rax
    d735:	48 89 85 50 fa ff ff 	mov    %rax,-0x5b0(%rbp)
    d73c:	48 8d 85 e0 f5 ff ff 	lea    -0xa20(%rbp),%rax
    d743:	48 83 c0 04          	add    $0x4,%rax
    d747:	48 89 85 58 fa ff ff 	mov    %rax,-0x5a8(%rbp)
    d74e:	48 8d 85 d4 f3 ff ff 	lea    -0xc2c(%rbp),%rax
    d755:	48 89 85 60 fa ff ff 	mov    %rax,-0x5a0(%rbp)
    d75c:	48 8d 85 d8 f3 ff ff 	lea    -0xc28(%rbp),%rax
    d763:	48 89 85 68 fa ff ff 	mov    %rax,-0x598(%rbp)
    d76a:	48 c7 85 70 fa ff ff 	movq   $0x0,-0x590(%rbp)
    d771:	00 00 00 00 
    d775:	48 8d 85 c0 f3 ff ff 	lea    -0xc40(%rbp),%rax
    d77c:	48 89 85 78 fa ff ff 	mov    %rax,-0x588(%rbp)
    d783:	48 8d 85 d4 f3 ff ff 	lea    -0xc2c(%rbp),%rax
    d78a:	48 89 85 80 fa ff ff 	mov    %rax,-0x580(%rbp)
    d791:	48 8d 05 8c e8 00 00 	lea    0xe88c(%rip),%rax        # 1c024 <g_5>
    d798:	48 89 85 88 fa ff ff 	mov    %rax,-0x578(%rbp)
    d79f:	48 8d 85 c0 f3 ff ff 	lea    -0xc40(%rbp),%rax
    d7a6:	48 89 85 90 fa ff ff 	mov    %rax,-0x570(%rbp)
    d7ad:	48 8d 05 70 e8 00 00 	lea    0xe870(%rip),%rax        # 1c024 <g_5>
    d7b4:	48 89 85 98 fa ff ff 	mov    %rax,-0x568(%rbp)
    d7bb:	48 8d 85 d4 f3 ff ff 	lea    -0xc2c(%rbp),%rax
    d7c2:	48 89 85 a0 fa ff ff 	mov    %rax,-0x560(%rbp)
    d7c9:	48 8d 85 c0 f3 ff ff 	lea    -0xc40(%rbp),%rax
    d7d0:	48 89 85 a8 fa ff ff 	mov    %rax,-0x558(%rbp)
    d7d7:	48 c7 85 b0 fa ff ff 	movq   $0x0,-0x550(%rbp)
    d7de:	00 00 00 00 
    d7e2:	48 8d 85 d8 f3 ff ff 	lea    -0xc28(%rbp),%rax
    d7e9:	48 89 85 b8 fa ff ff 	mov    %rax,-0x548(%rbp)
    d7f0:	48 8d 85 d4 f3 ff ff 	lea    -0xc2c(%rbp),%rax
    d7f7:	48 89 85 c0 fa ff ff 	mov    %rax,-0x540(%rbp)
    d7fe:	48 8d 85 e0 f5 ff ff 	lea    -0xa20(%rbp),%rax
    d805:	48 83 c0 04          	add    $0x4,%rax
    d809:	48 89 85 c8 fa ff ff 	mov    %rax,-0x538(%rbp)
    d810:	48 8d 85 dc f3 ff ff 	lea    -0xc24(%rbp),%rax
    d817:	48 89 85 d0 fa ff ff 	mov    %rax,-0x530(%rbp)
    d81e:	48 8d 85 d4 f3 ff ff 	lea    -0xc2c(%rbp),%rax
    d825:	48 89 85 d8 fa ff ff 	mov    %rax,-0x528(%rbp)
    d82c:	48 8d 85 c0 f3 ff ff 	lea    -0xc40(%rbp),%rax
    d833:	48 89 85 e0 fa ff ff 	mov    %rax,-0x520(%rbp)
    d83a:	48 8d 85 d8 f3 ff ff 	lea    -0xc28(%rbp),%rax
    d841:	48 89 85 e8 fa ff ff 	mov    %rax,-0x518(%rbp)
    d848:	48 c7 85 f0 fa ff ff 	movq   $0x0,-0x510(%rbp)
    d84f:	00 00 00 00 
    d853:	48 c7 85 f8 fa ff ff 	movq   $0x0,-0x508(%rbp)
    d85a:	00 00 00 00 
    d85e:	48 8d 85 d8 f3 ff ff 	lea    -0xc28(%rbp),%rax
    d865:	48 89 85 00 fb ff ff 	mov    %rax,-0x500(%rbp)
    d86c:	48 8d 85 d8 f3 ff ff 	lea    -0xc28(%rbp),%rax
    d873:	48 89 85 08 fb ff ff 	mov    %rax,-0x4f8(%rbp)
    d87a:	48 8d 85 c4 f3 ff ff 	lea    -0xc3c(%rbp),%rax
    d881:	48 89 85 10 fb ff ff 	mov    %rax,-0x4f0(%rbp)
    d888:	48 8d 85 e0 f3 ff ff 	lea    -0xc20(%rbp),%rax
    d88f:	48 89 85 18 fb ff ff 	mov    %rax,-0x4e8(%rbp)
    d896:	48 8d 85 d8 f3 ff ff 	lea    -0xc28(%rbp),%rax
    d89d:	48 89 85 20 fb ff ff 	mov    %rax,-0x4e0(%rbp)
    d8a4:	48 8d 05 7d e7 00 00 	lea    0xe77d(%rip),%rax        # 1c028 <g_7>
    d8ab:	48 89 85 28 fb ff ff 	mov    %rax,-0x4d8(%rbp)
    d8b2:	48 8d 85 c0 f3 ff ff 	lea    -0xc40(%rbp),%rax
    d8b9:	48 89 85 30 fb ff ff 	mov    %rax,-0x4d0(%rbp)
    d8c0:	48 c7 85 38 fb ff ff 	movq   $0x0,-0x4c8(%rbp)
    d8c7:	00 00 00 00 
    d8cb:	48 8d 85 e0 f5 ff ff 	lea    -0xa20(%rbp),%rax
    d8d2:	48 83 c0 04          	add    $0x4,%rax
    d8d6:	48 89 85 40 fb ff ff 	mov    %rax,-0x4c0(%rbp)
    d8dd:	48 8d 85 c0 f3 ff ff 	lea    -0xc40(%rbp),%rax
    d8e4:	48 89 85 48 fb ff ff 	mov    %rax,-0x4b8(%rbp)
    d8eb:	48 c7 85 50 fb ff ff 	movq   $0x0,-0x4b0(%rbp)
    d8f2:	00 00 00 00 
    d8f6:	48 8d 85 d8 f3 ff ff 	lea    -0xc28(%rbp),%rax
    d8fd:	48 89 85 58 fb ff ff 	mov    %rax,-0x4a8(%rbp)
    d904:	48 c7 85 60 fb ff ff 	movq   $0x0,-0x4a0(%rbp)
    d90b:	00 00 00 00 
    d90f:	48 8d 85 c0 f3 ff ff 	lea    -0xc40(%rbp),%rax
    d916:	48 89 85 68 fb ff ff 	mov    %rax,-0x498(%rbp)
    d91d:	48 8d 85 e0 f5 ff ff 	lea    -0xa20(%rbp),%rax
    d924:	48 83 c0 04          	add    $0x4,%rax
    d928:	48 89 85 70 fb ff ff 	mov    %rax,-0x490(%rbp)
    d92f:	48 c7 85 78 fb ff ff 	movq   $0x0,-0x488(%rbp)
    d936:	00 00 00 00 
    d93a:	48 8d 85 c0 f3 ff ff 	lea    -0xc40(%rbp),%rax
    d941:	48 89 85 80 fb ff ff 	mov    %rax,-0x480(%rbp)
    d948:	48 8d 05 d9 e6 00 00 	lea    0xe6d9(%rip),%rax        # 1c028 <g_7>
    d94f:	48 89 85 88 fb ff ff 	mov    %rax,-0x478(%rbp)
    d956:	48 8d 85 d8 f3 ff ff 	lea    -0xc28(%rbp),%rax
    d95d:	48 89 85 90 fb ff ff 	mov    %rax,-0x470(%rbp)
    d964:	48 8d 85 e0 f3 ff ff 	lea    -0xc20(%rbp),%rax
    d96b:	48 89 85 98 fb ff ff 	mov    %rax,-0x468(%rbp)
    d972:	48 8d 85 c4 f3 ff ff 	lea    -0xc3c(%rbp),%rax
    d979:	48 89 85 a0 fb ff ff 	mov    %rax,-0x460(%rbp)
    d980:	48 8d 85 d8 f3 ff ff 	lea    -0xc28(%rbp),%rax
    d987:	48 89 85 a8 fb ff ff 	mov    %rax,-0x458(%rbp)
    d98e:	48 8d 85 d8 f3 ff ff 	lea    -0xc28(%rbp),%rax
    d995:	48 89 85 b0 fb ff ff 	mov    %rax,-0x450(%rbp)
    d99c:	48 c7 85 b8 fb ff ff 	movq   $0x0,-0x448(%rbp)
    d9a3:	00 00 00 00 
    d9a7:	48 c7 85 c0 fb ff ff 	movq   $0x0,-0x440(%rbp)
    d9ae:	00 00 00 00 
    d9b2:	48 8d 85 d8 f3 ff ff 	lea    -0xc28(%rbp),%rax
    d9b9:	48 89 85 c8 fb ff ff 	mov    %rax,-0x438(%rbp)
    d9c0:	48 8d 85 c0 f3 ff ff 	lea    -0xc40(%rbp),%rax
    d9c7:	48 89 85 d0 fb ff ff 	mov    %rax,-0x430(%rbp)
    d9ce:	48 8d 85 d4 f3 ff ff 	lea    -0xc2c(%rbp),%rax
    d9d5:	48 89 85 d8 fb ff ff 	mov    %rax,-0x428(%rbp)
    d9dc:	48 8d 85 dc f3 ff ff 	lea    -0xc24(%rbp),%rax
    d9e3:	48 89 85 e0 fb ff ff 	mov    %rax,-0x420(%rbp)
    d9ea:	48 8d 85 e0 f5 ff ff 	lea    -0xa20(%rbp),%rax
    d9f1:	48 83 c0 04          	add    $0x4,%rax
    d9f5:	48 89 85 e8 fb ff ff 	mov    %rax,-0x418(%rbp)
    d9fc:	48 8d 85 d4 f3 ff ff 	lea    -0xc2c(%rbp),%rax
    da03:	48 89 85 f0 fb ff ff 	mov    %rax,-0x410(%rbp)
    da0a:	48 8d 85 d8 f3 ff ff 	lea    -0xc28(%rbp),%rax
    da11:	48 89 85 f8 fb ff ff 	mov    %rax,-0x408(%rbp)
    da18:	48 c7 85 00 fc ff ff 	movq   $0x0,-0x400(%rbp)
    da1f:	00 00 00 00 
    da23:	48 8d 85 c0 f3 ff ff 	lea    -0xc40(%rbp),%rax
    da2a:	48 89 85 08 fc ff ff 	mov    %rax,-0x3f8(%rbp)
    da31:	48 8d 85 d4 f3 ff ff 	lea    -0xc2c(%rbp),%rax
    da38:	48 89 85 10 fc ff ff 	mov    %rax,-0x3f0(%rbp)
    da3f:	48 8d 05 de e5 00 00 	lea    0xe5de(%rip),%rax        # 1c024 <g_5>
    da46:	48 89 85 18 fc ff ff 	mov    %rax,-0x3e8(%rbp)
    da4d:	48 8d 85 c0 f3 ff ff 	lea    -0xc40(%rbp),%rax
    da54:	48 89 85 20 fc ff ff 	mov    %rax,-0x3e0(%rbp)
    da5b:	48 8d 05 c2 e5 00 00 	lea    0xe5c2(%rip),%rax        # 1c024 <g_5>
    da62:	48 89 85 28 fc ff ff 	mov    %rax,-0x3d8(%rbp)
    da69:	48 8d 85 d4 f3 ff ff 	lea    -0xc2c(%rbp),%rax
    da70:	48 89 85 30 fc ff ff 	mov    %rax,-0x3d0(%rbp)
    da77:	48 8d 85 c0 f3 ff ff 	lea    -0xc40(%rbp),%rax
    da7e:	48 89 85 38 fc ff ff 	mov    %rax,-0x3c8(%rbp)
    da85:	48 c7 85 40 fc ff ff 	movq   $0x0,-0x3c0(%rbp)
    da8c:	00 00 00 00 
    da90:	48 8d 85 d8 f3 ff ff 	lea    -0xc28(%rbp),%rax
    da97:	48 89 85 48 fc ff ff 	mov    %rax,-0x3b8(%rbp)
    da9e:	48 8d 85 d4 f3 ff ff 	lea    -0xc2c(%rbp),%rax
    daa5:	48 89 85 50 fc ff ff 	mov    %rax,-0x3b0(%rbp)
    daac:	48 8d 85 e0 f5 ff ff 	lea    -0xa20(%rbp),%rax
    dab3:	48 83 c0 04          	add    $0x4,%rax
    dab7:	48 89 85 58 fc ff ff 	mov    %rax,-0x3a8(%rbp)
    dabe:	48 8d 85 dc f3 ff ff 	lea    -0xc24(%rbp),%rax
    dac5:	48 89 85 60 fc ff ff 	mov    %rax,-0x3a0(%rbp)
    dacc:	48 8d 85 d4 f3 ff ff 	lea    -0xc2c(%rbp),%rax
    dad3:	48 89 85 68 fc ff ff 	mov    %rax,-0x398(%rbp)
    dada:	48 8d 85 c0 f3 ff ff 	lea    -0xc40(%rbp),%rax
    dae1:	48 89 85 70 fc ff ff 	mov    %rax,-0x390(%rbp)
    dae8:	48 8d 85 d8 f3 ff ff 	lea    -0xc28(%rbp),%rax
    daef:	48 89 85 78 fc ff ff 	mov    %rax,-0x388(%rbp)
    daf6:	48 c7 85 80 fc ff ff 	movq   $0x0,-0x380(%rbp)
    dafd:	00 00 00 00 
    db01:	48 c7 85 88 fc ff ff 	movq   $0x0,-0x378(%rbp)
    db08:	00 00 00 00 
    db0c:	48 8d 85 d8 f3 ff ff 	lea    -0xc28(%rbp),%rax
    db13:	48 89 85 90 fc ff ff 	mov    %rax,-0x370(%rbp)
    db1a:	48 8d 85 d8 f3 ff ff 	lea    -0xc28(%rbp),%rax
    db21:	48 89 85 98 fc ff ff 	mov    %rax,-0x368(%rbp)
    db28:	48 8d 85 c4 f3 ff ff 	lea    -0xc3c(%rbp),%rax
    db2f:	48 89 85 a0 fc ff ff 	mov    %rax,-0x360(%rbp)
    db36:	48 8d 85 e0 f3 ff ff 	lea    -0xc20(%rbp),%rax
    db3d:	48 89 85 a8 fc ff ff 	mov    %rax,-0x358(%rbp)
    db44:	48 8d 85 d8 f3 ff ff 	lea    -0xc28(%rbp),%rax
    db4b:	48 89 85 b0 fc ff ff 	mov    %rax,-0x350(%rbp)
    db52:	48 8d 05 cf e4 00 00 	lea    0xe4cf(%rip),%rax        # 1c028 <g_7>
    db59:	48 89 85 b8 fc ff ff 	mov    %rax,-0x348(%rbp)
    db60:	48 8d 85 c0 f3 ff ff 	lea    -0xc40(%rbp),%rax
    db67:	48 89 85 c0 fc ff ff 	mov    %rax,-0x340(%rbp)
    db6e:	48 c7 85 c8 fc ff ff 	movq   $0x0,-0x338(%rbp)
    db75:	00 00 00 00 
    db79:	48 8d 85 e0 f5 ff ff 	lea    -0xa20(%rbp),%rax
    db80:	48 83 c0 04          	add    $0x4,%rax
    db84:	48 89 85 d0 fc ff ff 	mov    %rax,-0x330(%rbp)
    db8b:	48 8d 85 c0 f3 ff ff 	lea    -0xc40(%rbp),%rax
    db92:	48 89 85 d8 fc ff ff 	mov    %rax,-0x328(%rbp)
    db99:	48 c7 85 e0 fc ff ff 	movq   $0x0,-0x320(%rbp)
    dba0:	00 00 00 00 
    dba4:	48 8d 85 d8 f3 ff ff 	lea    -0xc28(%rbp),%rax
    dbab:	48 89 85 e8 fc ff ff 	mov    %rax,-0x318(%rbp)
    dbb2:	48 c7 85 f0 fc ff ff 	movq   $0x0,-0x310(%rbp)
    dbb9:	00 00 00 00 
    dbbd:	48 8d 85 c0 f3 ff ff 	lea    -0xc40(%rbp),%rax
    dbc4:	48 89 85 f8 fc ff ff 	mov    %rax,-0x308(%rbp)
    dbcb:	48 8d 85 e0 f5 ff ff 	lea    -0xa20(%rbp),%rax
    dbd2:	48 83 c0 04          	add    $0x4,%rax
    dbd6:	48 89 85 00 fd ff ff 	mov    %rax,-0x300(%rbp)
    dbdd:	48 c7 85 08 fd ff ff 	movq   $0x0,-0x2f8(%rbp)
    dbe4:	00 00 00 00 
    dbe8:	48 8d 85 c0 f3 ff ff 	lea    -0xc40(%rbp),%rax
    dbef:	48 89 85 10 fd ff ff 	mov    %rax,-0x2f0(%rbp)
    dbf6:	48 8d 05 2b e4 00 00 	lea    0xe42b(%rip),%rax        # 1c028 <g_7>
    dbfd:	48 89 85 18 fd ff ff 	mov    %rax,-0x2e8(%rbp)
    dc04:	48 8d 85 d8 f3 ff ff 	lea    -0xc28(%rbp),%rax
    dc0b:	48 89 85 20 fd ff ff 	mov    %rax,-0x2e0(%rbp)
    dc12:	48 8d 85 e0 f3 ff ff 	lea    -0xc20(%rbp),%rax
    dc19:	48 89 85 28 fd ff ff 	mov    %rax,-0x2d8(%rbp)
    dc20:	48 8d 85 c4 f3 ff ff 	lea    -0xc3c(%rbp),%rax
    dc27:	48 89 85 30 fd ff ff 	mov    %rax,-0x2d0(%rbp)
    dc2e:	48 8d 85 d8 f3 ff ff 	lea    -0xc28(%rbp),%rax
    dc35:	48 89 85 38 fd ff ff 	mov    %rax,-0x2c8(%rbp)
    dc3c:	48 8d 85 d8 f3 ff ff 	lea    -0xc28(%rbp),%rax
    dc43:	48 89 85 40 fd ff ff 	mov    %rax,-0x2c0(%rbp)
    dc4a:	48 c7 85 48 fd ff ff 	movq   $0x0,-0x2b8(%rbp)
    dc51:	00 00 00 00 
    dc55:	48 c7 85 50 fd ff ff 	movq   $0x0,-0x2b0(%rbp)
    dc5c:	00 00 00 00 
    dc60:	48 8d 85 d8 f3 ff ff 	lea    -0xc28(%rbp),%rax
    dc67:	48 89 85 58 fd ff ff 	mov    %rax,-0x2a8(%rbp)
    dc6e:	48 8d 85 c0 f3 ff ff 	lea    -0xc40(%rbp),%rax
    dc75:	48 89 85 60 fd ff ff 	mov    %rax,-0x2a0(%rbp)
    dc7c:	48 8d 85 d4 f3 ff ff 	lea    -0xc2c(%rbp),%rax
    dc83:	48 89 85 68 fd ff ff 	mov    %rax,-0x298(%rbp)
    dc8a:	48 8d 85 dc f3 ff ff 	lea    -0xc24(%rbp),%rax
    dc91:	48 89 85 70 fd ff ff 	mov    %rax,-0x290(%rbp)
    dc98:	48 8d 85 e0 f5 ff ff 	lea    -0xa20(%rbp),%rax
    dc9f:	48 83 c0 04          	add    $0x4,%rax
    dca3:	48 89 85 78 fd ff ff 	mov    %rax,-0x288(%rbp)
    dcaa:	48 8d 85 d4 f3 ff ff 	lea    -0xc2c(%rbp),%rax
    dcb1:	48 89 85 80 fd ff ff 	mov    %rax,-0x280(%rbp)
    dcb8:	48 8d 85 d8 f3 ff ff 	lea    -0xc28(%rbp),%rax
    dcbf:	48 89 85 88 fd ff ff 	mov    %rax,-0x278(%rbp)
    dcc6:	48 c7 85 90 fd ff ff 	movq   $0x0,-0x270(%rbp)
    dccd:	00 00 00 00 
    dcd1:	48 8d 85 c0 f3 ff ff 	lea    -0xc40(%rbp),%rax
    dcd8:	48 89 85 98 fd ff ff 	mov    %rax,-0x268(%rbp)
    dcdf:	48 8d 85 d4 f3 ff ff 	lea    -0xc2c(%rbp),%rax
    dce6:	48 89 85 a0 fd ff ff 	mov    %rax,-0x260(%rbp)
    dced:	48 8d 05 30 e3 00 00 	lea    0xe330(%rip),%rax        # 1c024 <g_5>
    dcf4:	48 89 85 a8 fd ff ff 	mov    %rax,-0x258(%rbp)
    dcfb:	48 8d 85 c0 f3 ff ff 	lea    -0xc40(%rbp),%rax
    dd02:	48 89 85 b0 fd ff ff 	mov    %rax,-0x250(%rbp)
    dd09:	48 8d 05 14 e3 00 00 	lea    0xe314(%rip),%rax        # 1c024 <g_5>
    dd10:	48 89 85 b8 fd ff ff 	mov    %rax,-0x248(%rbp)
    dd17:	48 8d 85 d4 f3 ff ff 	lea    -0xc2c(%rbp),%rax
    dd1e:	48 89 85 c0 fd ff ff 	mov    %rax,-0x240(%rbp)
    dd25:	48 8d 85 c0 f3 ff ff 	lea    -0xc40(%rbp),%rax
    dd2c:	48 89 85 c8 fd ff ff 	mov    %rax,-0x238(%rbp)
    dd33:	48 c7 85 d0 fd ff ff 	movq   $0x0,-0x230(%rbp)
    dd3a:	00 00 00 00 
    dd3e:	48 8d 85 d8 f3 ff ff 	lea    -0xc28(%rbp),%rax
    dd45:	48 89 85 d8 fd ff ff 	mov    %rax,-0x228(%rbp)
    dd4c:	48 8d 85 d4 f3 ff ff 	lea    -0xc2c(%rbp),%rax
    dd53:	48 89 85 e0 fd ff ff 	mov    %rax,-0x220(%rbp)
    dd5a:	48 8d 85 e0 f5 ff ff 	lea    -0xa20(%rbp),%rax
    dd61:	48 83 c0 04          	add    $0x4,%rax
    dd65:	48 89 85 e8 fd ff ff 	mov    %rax,-0x218(%rbp)
    dd6c:	48 8d 85 dc f3 ff ff 	lea    -0xc24(%rbp),%rax
    dd73:	48 89 85 f0 fd ff ff 	mov    %rax,-0x210(%rbp)
    dd7a:	48 8d 85 d4 f3 ff ff 	lea    -0xc2c(%rbp),%rax
    dd81:	48 89 85 f8 fd ff ff 	mov    %rax,-0x208(%rbp)
    dd88:	48 8d 85 c0 f3 ff ff 	lea    -0xc40(%rbp),%rax
    dd8f:	48 89 85 00 fe ff ff 	mov    %rax,-0x200(%rbp)
    dd96:	48 8d 85 d8 f3 ff ff 	lea    -0xc28(%rbp),%rax
    dd9d:	48 89 85 08 fe ff ff 	mov    %rax,-0x1f8(%rbp)
    dda4:	48 c7 85 10 fe ff ff 	movq   $0x0,-0x1f0(%rbp)
    ddab:	00 00 00 00 
    ddaf:	48 c7 85 18 fe ff ff 	movq   $0x0,-0x1e8(%rbp)
    ddb6:	00 00 00 00 
    ddba:	48 8d 85 d8 f3 ff ff 	lea    -0xc28(%rbp),%rax
    ddc1:	48 89 85 20 fe ff ff 	mov    %rax,-0x1e0(%rbp)
    ddc8:	48 8d 85 d8 f3 ff ff 	lea    -0xc28(%rbp),%rax
    ddcf:	48 89 85 28 fe ff ff 	mov    %rax,-0x1d8(%rbp)
    ddd6:	48 8d 85 c4 f3 ff ff 	lea    -0xc3c(%rbp),%rax
    dddd:	48 89 85 30 fe ff ff 	mov    %rax,-0x1d0(%rbp)
    dde4:	48 8d 85 e0 f3 ff ff 	lea    -0xc20(%rbp),%rax
    ddeb:	48 89 85 38 fe ff ff 	mov    %rax,-0x1c8(%rbp)
    ddf2:	48 8d 85 d8 f3 ff ff 	lea    -0xc28(%rbp),%rax
    ddf9:	48 89 85 40 fe ff ff 	mov    %rax,-0x1c0(%rbp)
    de00:	48 8d 05 21 e2 00 00 	lea    0xe221(%rip),%rax        # 1c028 <g_7>
    de07:	48 89 85 48 fe ff ff 	mov    %rax,-0x1b8(%rbp)
    de0e:	48 8d 85 c0 f3 ff ff 	lea    -0xc40(%rbp),%rax
    de15:	48 89 85 50 fe ff ff 	mov    %rax,-0x1b0(%rbp)
    de1c:	48 c7 85 58 fe ff ff 	movq   $0x0,-0x1a8(%rbp)
    de23:	00 00 00 00 
    de27:	48 8d 85 e0 f5 ff ff 	lea    -0xa20(%rbp),%rax
    de2e:	48 83 c0 04          	add    $0x4,%rax
    de32:	48 89 85 60 fe ff ff 	mov    %rax,-0x1a0(%rbp)
    de39:	48 8d 85 c0 f3 ff ff 	lea    -0xc40(%rbp),%rax
    de40:	48 89 85 68 fe ff ff 	mov    %rax,-0x198(%rbp)
    de47:	48 c7 85 70 fe ff ff 	movq   $0x0,-0x190(%rbp)
    de4e:	00 00 00 00 
    de52:	48 8d 85 d8 f3 ff ff 	lea    -0xc28(%rbp),%rax
    de59:	48 89 85 78 fe ff ff 	mov    %rax,-0x188(%rbp)
    de60:	48 c7 85 80 fe ff ff 	movq   $0x0,-0x180(%rbp)
    de67:	00 00 00 00 
    de6b:	48 8d 85 c0 f3 ff ff 	lea    -0xc40(%rbp),%rax
    de72:	48 89 85 88 fe ff ff 	mov    %rax,-0x178(%rbp)
    de79:	48 8d 85 e0 f5 ff ff 	lea    -0xa20(%rbp),%rax
    de80:	48 83 c0 04          	add    $0x4,%rax
    de84:	48 89 85 90 fe ff ff 	mov    %rax,-0x170(%rbp)
    de8b:	48 c7 85 98 fe ff ff 	movq   $0x0,-0x168(%rbp)
    de92:	00 00 00 00 
    de96:	48 8d 85 c0 f3 ff ff 	lea    -0xc40(%rbp),%rax
    de9d:	48 89 85 a0 fe ff ff 	mov    %rax,-0x160(%rbp)
    dea4:	48 8d 05 7d e1 00 00 	lea    0xe17d(%rip),%rax        # 1c028 <g_7>
    deab:	48 89 85 a8 fe ff ff 	mov    %rax,-0x158(%rbp)
    deb2:	48 8d 85 d8 f3 ff ff 	lea    -0xc28(%rbp),%rax
    deb9:	48 89 85 b0 fe ff ff 	mov    %rax,-0x150(%rbp)
    dec0:	48 8d 85 e0 f3 ff ff 	lea    -0xc20(%rbp),%rax
    dec7:	48 89 85 b8 fe ff ff 	mov    %rax,-0x148(%rbp)
    dece:	48 8d 85 c4 f3 ff ff 	lea    -0xc3c(%rbp),%rax
    ded5:	48 89 85 c0 fe ff ff 	mov    %rax,-0x140(%rbp)
    dedc:	48 8d 85 d8 f3 ff ff 	lea    -0xc28(%rbp),%rax
    dee3:	48 89 85 c8 fe ff ff 	mov    %rax,-0x138(%rbp)
    deea:	48 8d 85 d8 f3 ff ff 	lea    -0xc28(%rbp),%rax
    def1:	48 89 85 d0 fe ff ff 	mov    %rax,-0x130(%rbp)
    def8:	48 c7 85 d8 fe ff ff 	movq   $0x0,-0x128(%rbp)
    deff:	00 00 00 00 
    df03:	48 c7 85 e0 fe ff ff 	movq   $0x0,-0x120(%rbp)
    df0a:	00 00 00 00 
    df0e:	48 8d 85 d8 f3 ff ff 	lea    -0xc28(%rbp),%rax
    df15:	48 89 85 e8 fe ff ff 	mov    %rax,-0x118(%rbp)
    df1c:	48 8d 85 c0 f3 ff ff 	lea    -0xc40(%rbp),%rax
    df23:	48 89 85 f0 fe ff ff 	mov    %rax,-0x110(%rbp)
    df2a:	48 8d 85 d4 f3 ff ff 	lea    -0xc2c(%rbp),%rax
    df31:	48 89 85 f8 fe ff ff 	mov    %rax,-0x108(%rbp)
    df38:	48 8d 85 dc f3 ff ff 	lea    -0xc24(%rbp),%rax
    df3f:	48 89 85 00 ff ff ff 	mov    %rax,-0x100(%rbp)
    df46:	48 8d 85 e0 f5 ff ff 	lea    -0xa20(%rbp),%rax
    df4d:	48 83 c0 04          	add    $0x4,%rax
    df51:	48 89 85 08 ff ff ff 	mov    %rax,-0xf8(%rbp)
    df58:	48 8d 85 d4 f3 ff ff 	lea    -0xc2c(%rbp),%rax
    df5f:	48 89 85 10 ff ff ff 	mov    %rax,-0xf0(%rbp)
    df66:	48 8d 85 d8 f3 ff ff 	lea    -0xc28(%rbp),%rax
    df6d:	48 89 85 18 ff ff ff 	mov    %rax,-0xe8(%rbp)
    df74:	48 c7 85 20 ff ff ff 	movq   $0x0,-0xe0(%rbp)
    df7b:	00 00 00 00 
    df7f:	48 8d 85 c0 f3 ff ff 	lea    -0xc40(%rbp),%rax
    df86:	48 89 85 28 ff ff ff 	mov    %rax,-0xd8(%rbp)
    df8d:	48 8d 85 d4 f3 ff ff 	lea    -0xc2c(%rbp),%rax
    df94:	48 89 85 30 ff ff ff 	mov    %rax,-0xd0(%rbp)
    df9b:	48 8d 05 82 e0 00 00 	lea    0xe082(%rip),%rax        # 1c024 <g_5>
    dfa2:	48 89 85 38 ff ff ff 	mov    %rax,-0xc8(%rbp)
    dfa9:	48 8d 85 c0 f3 ff ff 	lea    -0xc40(%rbp),%rax
    dfb0:	48 89 85 40 ff ff ff 	mov    %rax,-0xc0(%rbp)
    dfb7:	48 c7 85 48 ff ff ff 	movq   $0x0,-0xb8(%rbp)
    dfbe:	00 00 00 00 
    dfc2:	48 8d 85 c0 f3 ff ff 	lea    -0xc40(%rbp),%rax
    dfc9:	48 89 85 50 ff ff ff 	mov    %rax,-0xb0(%rbp)
    dfd0:	48 8d 85 e0 f5 ff ff 	lea    -0xa20(%rbp),%rax
    dfd7:	48 83 c0 04          	add    $0x4,%rax
    dfdb:	48 89 85 58 ff ff ff 	mov    %rax,-0xa8(%rbp)
    dfe2:	48 8d 85 e0 f5 ff ff 	lea    -0xa20(%rbp),%rax
    dfe9:	48 83 c0 04          	add    $0x4,%rax
    dfed:	48 89 85 60 ff ff ff 	mov    %rax,-0xa0(%rbp)
    dff4:	48 8d 85 c0 f3 ff ff 	lea    -0xc40(%rbp),%rax
    dffb:	48 89 85 68 ff ff ff 	mov    %rax,-0x98(%rbp)
    e002:	48 c7 85 70 ff ff ff 	movq   $0x0,-0x90(%rbp)
    e009:	00 00 00 00 
    e00d:	48 8d 85 d8 f3 ff ff 	lea    -0xc28(%rbp),%rax
    e014:	48 89 85 78 ff ff ff 	mov    %rax,-0x88(%rbp)
    e01b:	48 8d 85 e0 f5 ff ff 	lea    -0xa20(%rbp),%rax
    e022:	48 83 c0 04          	add    $0x4,%rax
    e026:	48 89 45 80          	mov    %rax,-0x80(%rbp)
    e02a:	48 8d 85 c4 f3 ff ff 	lea    -0xc3c(%rbp),%rax
    e031:	48 89 45 88          	mov    %rax,-0x78(%rbp)
    e035:	48 8d 85 d4 f3 ff ff 	lea    -0xc2c(%rbp),%rax
    e03c:	48 89 45 90          	mov    %rax,-0x70(%rbp)
    e040:	48 8d 85 d8 f3 ff ff 	lea    -0xc28(%rbp),%rax
    e047:	48 89 45 98          	mov    %rax,-0x68(%rbp)
    e04b:	48 8d 05 d2 df 00 00 	lea    0xdfd2(%rip),%rax        # 1c024 <g_5>
    e052:	48 89 45 a0          	mov    %rax,-0x60(%rbp)
    e056:	48 c7 45 a8 00 00 00 	movq   $0x0,-0x58(%rbp)
    e05d:	00 
    e05e:	48 8d 85 c0 f3 ff ff 	lea    -0xc40(%rbp),%rax
    e065:	48 89 45 b0          	mov    %rax,-0x50(%rbp)
    e069:	48 8d 85 c0 f3 ff ff 	lea    -0xc40(%rbp),%rax
    e070:	48 89 45 b8          	mov    %rax,-0x48(%rbp)
    e074:	48 c7 85 00 f5 ff ff 	movq   $0x0,-0xb00(%rbp)
    e07b:	00 00 00 00 
    e07f:	48 c7 85 58 f4 ff ff 	movq   $0x0,-0xba8(%rbp)
    e086:	00 00 00 00 
    e08a:	48 c7 85 60 f4 ff ff 	movq   $0x0,-0xba0(%rbp)
    e091:	00 00 00 00 
    e095:	48 c7 85 68 f4 ff ff 	movq   $0x0,-0xb98(%rbp)
    e09c:	00 00 00 00 
    e0a0:	48 8d 85 68 f4 ff ff 	lea    -0xb98(%rbp),%rax
    e0a7:	48 89 85 70 f4 ff ff 	mov    %rax,-0xb90(%rbp)
    e0ae:	c7 85 ec f3 ff ff 00 	movl   $0x0,-0xc14(%rbp)
    e0b5:	00 00 00 
    e0b8:	eb 1e                	jmp    e0d8 <func_60+0x170b>
    e0ba:	8b 85 ec f3 ff ff    	mov    -0xc14(%rbp),%eax
    e0c0:	48 98                	cltq   
    e0c2:	48 8d 95 dc f3 ff ff 	lea    -0xc24(%rbp),%rdx
    e0c9:	48 89 94 c5 70 f5 ff 	mov    %rdx,-0xa90(%rbp,%rax,8)
    e0d0:	ff 
    e0d1:	83 85 ec f3 ff ff 01 	addl   $0x1,-0xc14(%rbp)
    e0d8:	83 bd ec f3 ff ff 01 	cmpl   $0x1,-0xc14(%rbp)
    e0df:	7e d9                	jle    e0ba <func_60+0x16ed>
    e0e1:	c7 85 ec f3 ff ff 00 	movl   $0x0,-0xc14(%rbp)
    e0e8:	00 00 00 
    e0eb:	eb 19                	jmp    e106 <func_60+0x1739>
    e0ed:	8b 85 ec f3 ff ff    	mov    -0xc14(%rbp),%eax
    e0f3:	48 98                	cltq   
    e0f5:	66 c7 84 45 80 f5 ff 	movw   $0x6,-0xa80(%rbp,%rax,2)
    e0fc:	ff 06 00 
    e0ff:	83 85 ec f3 ff ff 01 	addl   $0x1,-0xc14(%rbp)
    e106:	83 bd ec f3 ff ff 09 	cmpl   $0x9,-0xc14(%rbp)
    e10d:	7e de                	jle    e0ed <func_60+0x1720>
    e10f:	8b 85 c8 f3 ff ff    	mov    -0xc38(%rbp),%eax
    e115:	83 c0 01             	add    $0x1,%eax
    e118:	89 85 c8 f3 ff ff    	mov    %eax,-0xc38(%rbp)
    e11e:	8b 85 c4 f3 ff ff    	mov    -0xc3c(%rbp),%eax
    e124:	0f b6 d0             	movzbl %al,%edx
    e127:	0f b6 05 9a 65 01 00 	movzbl 0x1659a(%rip),%eax        # 246c8 <g_79>
    e12e:	83 f0 3c             	xor    $0x3c,%eax
    e131:	0f b6 c0             	movzbl %al,%eax
    e134:	89 d6                	mov    %edx,%esi
    e136:	89 c7                	mov    %eax,%edi
    e138:	e8 71 8a ff ff       	callq  6bae <safe_mod_func_uint8_t_u_u>
    e13d:	0f b6 c0             	movzbl %al,%eax
    e140:	be 07 00 00 00       	mov    $0x7,%esi
    e145:	89 c7                	mov    %eax,%edi
    e147:	e8 00 8b ff ff       	callq  6c4c <safe_lshift_func_uint8_t_u_u>
    e14c:	48 8b 85 f8 f4 ff ff 	mov    -0xb08(%rbp),%rax
    e153:	c7 00 01 00 00 00    	movl   $0x1,(%rax)
    e159:	8b 05 c5 de 00 00    	mov    0xdec5(%rip),%eax        # 1c024 <g_5>
    e15f:	89 c3                	mov    %eax,%ebx
    e161:	0f b6 85 b7 f3 ff ff 	movzbl -0xc49(%rbp),%eax
    e168:	89 85 c0 f3 ff ff    	mov    %eax,-0xc40(%rbp)
    e16e:	8b 85 c0 f3 ff ff    	mov    -0xc40(%rbp),%eax
    e174:	89 85 a8 f3 ff ff    	mov    %eax,-0xc58(%rbp)
    e17a:	8b 85 a8 f3 ff ff    	mov    -0xc58(%rbp),%eax
    e180:	8b 95 ac f3 ff ff    	mov    -0xc54(%rbp),%edx
    e186:	89 d6                	mov    %edx,%esi
    e188:	89 c7                	mov    %eax,%edi
    e18a:	e8 96 8d ff ff       	callq  6f25 <safe_div_func_uint32_t_u_u>
    e18f:	0f b6 05 96 de 00 00 	movzbl 0xde96(%rip),%eax        # 1c02c <g_63>
    e196:	0f be c0             	movsbl %al,%eax
    e199:	39 85 ac f3 ff ff    	cmp    %eax,-0xc54(%rbp)
    e19f:	75 0a                	jne    e1ab <func_60+0x17de>
    e1a1:	8b 85 a8 f3 ff ff    	mov    -0xc58(%rbp),%eax
    e1a7:	85 c0                	test   %eax,%eax
    e1a9:	74 07                	je     e1b2 <func_60+0x17e5>
    e1ab:	b8 01 00 00 00       	mov    $0x1,%eax
    e1b0:	eb 05                	jmp    e1b7 <func_60+0x17ea>
    e1b2:	b8 00 00 00 00       	mov    $0x0,%eax
    e1b7:	0f b6 c0             	movzbl %al,%eax
    e1ba:	89 de                	mov    %ebx,%esi
    e1bc:	89 c7                	mov    %eax,%edi
    e1be:	e8 fb 8a ff ff       	callq  6cbe <safe_rshift_func_uint8_t_u_u>
    e1c3:	0f b6 c0             	movzbl %al,%eax
    e1c6:	48 89 c7             	mov    %rax,%rdi
    e1c9:	e8 48 86 ff ff       	callq  6816 <safe_unary_minus_func_int64_t_s>
    e1ce:	8b 95 ac f3 ff ff    	mov    -0xc54(%rbp),%edx
    e1d4:	48 39 d0             	cmp    %rdx,%rax
    e1d7:	0f 9c c0             	setl   %al
    e1da:	0f b6 c0             	movzbl %al,%eax
    e1dd:	39 85 ac f3 ff ff    	cmp    %eax,-0xc54(%rbp)
    e1e3:	75 0c                	jne    e1f1 <func_60+0x1824>
    e1e5:	0f b7 05 56 de 00 00 	movzwl 0xde56(%rip),%eax        # 1c042 <g_102>
    e1ec:	66 85 c0             	test   %ax,%ax
    e1ef:	74 07                	je     e1f8 <func_60+0x182b>
    e1f1:	b8 01 00 00 00       	mov    $0x1,%eax
    e1f6:	eb 05                	jmp    e1fd <func_60+0x1830>
    e1f8:	b8 00 00 00 00       	mov    $0x0,%eax
    e1fd:	98                   	cwtl   
    e1fe:	48 8b 15 31 de 00 00 	mov    0xde31(%rip),%rdx        # 1c036 <g_91+0x6>
    e205:	0f bf d2             	movswl %dx,%edx
    e208:	83 e2 02             	and    $0x2,%edx
    e20b:	89 c6                	mov    %eax,%esi
    e20d:	89 d7                	mov    %edx,%edi
    e20f:	e8 bf 81 ff ff       	callq  63d3 <safe_sub_func_int16_t_s_s>
    e214:	0f b6 c0             	movzbl %al,%eax
    e217:	be 07 00 00 00       	mov    $0x7,%esi
    e21c:	89 c7                	mov    %eax,%edi
    e21e:	e8 8b 89 ff ff       	callq  6bae <safe_mod_func_uint8_t_u_u>
    e223:	84 c0                	test   %al,%al
    e225:	75 09                	jne    e230 <func_60+0x1863>
    e227:	80 bd b7 f3 ff ff 00 	cmpb   $0x0,-0xc49(%rbp)
    e22e:	74 07                	je     e237 <func_60+0x186a>
    e230:	ba 01 00 00 00       	mov    $0x1,%edx
    e235:	eb 05                	jmp    e23c <func_60+0x186f>
    e237:	ba 00 00 00 00       	mov    $0x0,%edx
    e23c:	48 8b 05 fd dd 00 00 	mov    0xddfd(%rip),%rax        # 1c040 <g_91+0x10>
    e243:	48 c1 e8 09          	shr    $0x9,%rax
    e247:	83 e0 07             	and    $0x7,%eax
    e24a:	0f b6 c0             	movzbl %al,%eax
    e24d:	21 d0                	and    %edx,%eax
    e24f:	85 c0                	test   %eax,%eax
    e251:	0f 84 5d 01 00 00    	je     e3b4 <func_60+0x19e7>
    e257:	66 c7 85 be f3 ff ff 	movw   $0x6a2f,-0xc42(%rbp)
    e25e:	2f 6a 
    e260:	c7 85 c8 f3 ff ff 00 	movl   $0x0,-0xc38(%rbp)
    e267:	00 00 00 
    e26a:	eb 5e                	jmp    e2ca <func_60+0x18fd>
    e26c:	8b 95 c8 f3 ff ff    	mov    -0xc38(%rbp),%edx
    e272:	8b 85 c8 f3 ff ff    	mov    -0xc38(%rbp),%eax
    e278:	83 c0 03             	add    $0x3,%eax
    e27b:	89 c1                	mov    %eax,%ecx
    e27d:	89 d2                	mov    %edx,%edx
    e27f:	48 89 d0             	mov    %rdx,%rax
    e282:	48 c1 e0 03          	shl    $0x3,%rax
    e286:	48 29 d0             	sub    %rdx,%rax
    e289:	48 01 c8             	add    %rcx,%rax
    e28c:	48 8d 0c c5 00 00 00 	lea    0x0(,%rax,8),%rcx
    e293:	00 
    e294:	48 8d 15 65 48 01 00 	lea    0x14865(%rip),%rdx        # 22b00 <g_6>
    e29b:	48 8d 85 c0 f3 ff ff 	lea    -0xc40(%rbp),%rax
    e2a2:	48 89 04 11          	mov    %rax,(%rcx,%rdx,1)
    e2a6:	48 8b 85 50 f4 ff ff 	mov    -0xbb0(%rbp),%rax
    e2ad:	8b 10                	mov    (%rax),%edx
    e2af:	48 8b 85 50 f4 ff ff 	mov    -0xbb0(%rbp),%rax
    e2b6:	83 f2 07             	xor    $0x7,%edx
    e2b9:	89 10                	mov    %edx,(%rax)
    e2bb:	8b 85 c8 f3 ff ff    	mov    -0xc38(%rbp),%eax
    e2c1:	83 c0 01             	add    $0x1,%eax
    e2c4:	89 85 c8 f3 ff ff    	mov    %eax,-0xc38(%rbp)
    e2ca:	8b 85 c8 f3 ff ff    	mov    -0xc38(%rbp),%eax
    e2d0:	83 f8 02             	cmp    $0x2,%eax
    e2d3:	76 97                	jbe    e26c <func_60+0x189f>
    e2d5:	c7 85 d4 f3 ff ff 0e 	movl   $0xe,-0xc2c(%rbp)
    e2dc:	00 00 00 
    e2df:	90                   	nop
    e2e0:	8b 85 d4 f3 ff ff    	mov    -0xc2c(%rbp),%eax
    e2e6:	83 f8 e8             	cmp    $0xffffffe8,%eax
    e2e9:	7d 45                	jge    e330 <func_60+0x1963>
    e2eb:	48 8d 85 00 f6 ff ff 	lea    -0xa00(%rbp),%rax
    e2f2:	48 83 c0 08          	add    $0x8,%rax
    e2f6:	48 89 85 60 f5 ff ff 	mov    %rax,-0xaa0(%rbp)
    e2fd:	48 8b 05 b4 48 01 00 	mov    0x148b4(%rip),%rax        # 22bb8 <g_148>
    e304:	48 8b 15 a5 48 01 00 	mov    0x148a5(%rip),%rdx        # 22bb0 <g_145>
    e30b:	48 89 10             	mov    %rdx,(%rax)
    e30e:	48 8b 85 60 f5 ff ff 	mov    -0xaa0(%rbp),%rax
    e315:	48 c7 00 00 00 00 00 	movq   $0x0,(%rax)
    e31c:	66 83 85 be f3 ff ff 	addw   $0x1,-0xc42(%rbp)
    e323:	01 
    e324:	48 8d 05 fd dc 00 00 	lea    0xdcfd(%rip),%rax        # 1c028 <g_7>
    e32b:	e9 22 0e 00 00       	jmpq   f152 <func_60+0x2785>
    e330:	c7 85 a8 f3 ff ff 00 	movl   $0x0,-0xc58(%rbp)
    e337:	00 00 00 
    e33a:	eb 61                	jmp    e39d <func_60+0x19d0>
    e33c:	48 8d 85 50 f4 ff ff 	lea    -0xbb0(%rbp),%rax
    e343:	48 89 85 50 f5 ff ff 	mov    %rax,-0xab0(%rbp)
    e34a:	c7 85 3c f4 ff ff 08 	movl   $0x8,-0xbc4(%rbp)
    e351:	00 00 00 
    e354:	48 c7 85 58 f5 ff ff 	movq   $0xffffffffffffffff,-0xaa8(%rbp)
    e35b:	ff ff ff ff 
    e35f:	0f b7 85 be f3 ff ff 	movzwl -0xc42(%rbp),%eax
    e366:	89 85 c0 f3 ff ff    	mov    %eax,-0xc40(%rbp)
    e36c:	48 8b 95 98 fe ff ff 	mov    -0x168(%rbp),%rdx
    e373:	48 8b 85 50 f5 ff ff 	mov    -0xab0(%rbp),%rax
    e37a:	48 89 10             	mov    %rdx,(%rax)
    e37d:	48 83 ad 58 f5 ff ff 	subq   $0x1,-0xaa8(%rbp)
    e384:	01 
    e385:	8b 85 a8 f3 ff ff    	mov    -0xc58(%rbp),%eax
    e38b:	be 07 00 00 00       	mov    $0x7,%esi
    e390:	89 c7                	mov    %eax,%edi
    e392:	e8 1f 82 ff ff       	callq  65b6 <safe_add_func_int32_t_s_s>
    e397:	89 85 a8 f3 ff ff    	mov    %eax,-0xc58(%rbp)
    e39d:	8b 85 a8 f3 ff ff    	mov    -0xc58(%rbp),%eax
    e3a3:	83 f8 23             	cmp    $0x23,%eax
    e3a6:	75 94                	jne    e33c <func_60+0x196f>
    e3a8:	48 8d 05 79 dc 00 00 	lea    0xdc79(%rip),%rax        # 1c028 <g_7>
    e3af:	e9 9e 0d 00 00       	jmpq   f152 <func_60+0x2785>
    e3b4:	48 c7 85 08 f5 ff ff 	movq   $0x0,-0xaf8(%rbp)
    e3bb:	00 00 00 00 
    e3bf:	48 c7 85 10 f5 ff ff 	movq   $0x0,-0xaf0(%rbp)
    e3c6:	00 00 00 00 
    e3ca:	48 8d 85 e0 f5 ff ff 	lea    -0xa20(%rbp),%rax
    e3d1:	48 83 c0 04          	add    $0x4,%rax
    e3d5:	48 89 85 f0 f4 ff ff 	mov    %rax,-0xb10(%rbp)
    e3dc:	48 8b 05 e5 47 01 00 	mov    0x147e5(%rip),%rax        # 22bc8 <g_166>
    e3e3:	48 8b 95 f0 f4 ff ff 	mov    -0xb10(%rbp),%rdx
    e3ea:	48 89 10             	mov    %rdx,(%rax)
    e3ed:	c7 85 a8 f3 ff ff 0d 	movl   $0xd,-0xc58(%rbp)
    e3f4:	00 00 00 
    e3f7:	e9 a0 00 00 00       	jmpq   e49c <func_60+0x1acf>
    e3fc:	c7 85 38 f4 ff ff 58 	movl   $0x1ddd8c58,-0xbc8(%rbp)
    e403:	8c dd 1d 
    e406:	48 8b 05 33 48 01 00 	mov    0x14833(%rip),%rax        # 22c40 <g_172+0x60>
    e40d:	48 85 c0             	test   %rax,%rax
    e410:	0f 95 c0             	setne  %al
    e413:	0f b6 c0             	movzbl %al,%eax
    e416:	89 c6                	mov    %eax,%esi
    e418:	bf c1 a2 ff ff       	mov    $0xffffa2c1,%edi
    e41d:	e8 d3 7f ff ff       	callq  63f5 <safe_mul_func_int16_t_s_s>
    e422:	66 85 c0             	test   %ax,%ax
    e425:	74 12                	je     e439 <func_60+0x1a6c>
    e427:	66 c7 85 bc f3 ff ff 	movw   $0x8e7f,-0xc44(%rbp)
    e42e:	7f 8e 
    e430:	83 85 38 f4 ff ff 01 	addl   $0x1,-0xbc8(%rbp)
    e437:	eb 54                	jmp    e48d <func_60+0x1ac0>
    e439:	48 8d 05 10 dd 00 00 	lea    0xdd10(%rip),%rax        # 1c150 <g_179>
    e440:	48 89 85 40 f5 ff ff 	mov    %rax,-0xac0(%rbp)
    e447:	48 8d 05 7a 4a 01 00 	lea    0x14a7a(%rip),%rax        # 22ec8 <g_181+0x8>
    e44e:	48 89 85 48 f5 ff ff 	mov    %rax,-0xab8(%rbp)
    e455:	48 8b 8d 40 f5 ff ff 	mov    -0xac0(%rbp),%rcx
    e45c:	48 8b 05 ed dc 00 00 	mov    0xdced(%rip),%rax        # 1c150 <g_179>
    e463:	48 8b 15 ee dc 00 00 	mov    0xdcee(%rip),%rdx        # 1c158 <g_179+0x8>
    e46a:	48 89 01             	mov    %rax,(%rcx)
    e46d:	48 89 51 08          	mov    %rdx,0x8(%rcx)
    e471:	0f b7 05 e8 dc 00 00 	movzwl 0xdce8(%rip),%eax        # 1c160 <g_179+0x10>
    e478:	66 89 41 10          	mov    %ax,0x10(%rcx)
    e47c:	48 8b 15 45 4a 01 00 	mov    0x14a45(%rip),%rdx        # 22ec8 <g_181+0x8>
    e483:	48 8b 85 48 f5 ff ff 	mov    -0xab8(%rbp),%rax
    e48a:	48 89 10             	mov    %rdx,(%rax)
    e48d:	8b 85 a8 f3 ff ff    	mov    -0xc58(%rbp),%eax
    e493:	83 c0 01             	add    $0x1,%eax
    e496:	89 85 a8 f3 ff ff    	mov    %eax,-0xc58(%rbp)
    e49c:	8b 85 a8 f3 ff ff    	mov    -0xc58(%rbp),%eax
    e4a2:	83 f8 22             	cmp    $0x22,%eax
    e4a5:	0f 86 51 ff ff ff    	jbe    e3fc <func_60+0x1a2f>
    e4ab:	8b 9d a8 f3 ff ff    	mov    -0xc58(%rbp),%ebx
    e4b1:	8b 85 a8 f3 ff ff    	mov    -0xc58(%rbp),%eax
    e4b7:	44 0f bf e0          	movswl %ax,%r12d
    e4bb:	48 8b 05 06 47 01 00 	mov    0x14706(%rip),%rax        # 22bc8 <g_166>
    e4c2:	48 8b 00             	mov    (%rax),%rax
    e4c5:	8b 00                	mov    (%rax),%eax
    e4c7:	4c 63 e8             	movslq %eax,%r13
    e4ca:	8b 85 ac f3 ff ff    	mov    -0xc54(%rbp),%eax
    e4d0:	0f be d0             	movsbl %al,%edx
    e4d3:	8b 05 6b db 00 00    	mov    0xdb6b(%rip),%eax        # 1c044 <g_114>
    e4d9:	89 c1                	mov    %eax,%ecx
    e4db:	48 8b 85 a0 f5 ff ff 	mov    -0xa60(%rbp),%rax
    e4e2:	48 85 c0             	test   %rax,%rax
    e4e5:	74 07                	je     e4ee <func_60+0x1b21>
    e4e7:	b8 d3 5c 48 fc       	mov    $0xfc485cd3,%eax
    e4ec:	eb 05                	jmp    e4f3 <func_60+0x1b26>
    e4ee:	b8 d2 5c 48 fc       	mov    $0xfc485cd2,%eax
    e4f3:	48 21 c1             	and    %rax,%rcx
    e4f6:	8b 05 b4 db 00 00    	mov    0xdbb4(%rip),%eax        # 1c0b0 <g_142+0x50>
    e4fc:	48 98                	cltq   
    e4fe:	48 39 c1             	cmp    %rax,%rcx
    e501:	0f 9e c0             	setle  %al
    e504:	0f b6 c0             	movzbl %al,%eax
    e507:	89 85 c0 f3 ff ff    	mov    %eax,-0xc40(%rbp)
    e50d:	8b 85 c0 f3 ff ff    	mov    -0xc40(%rbp),%eax
    e513:	0f be c0             	movsbl %al,%eax
    e516:	89 d6                	mov    %edx,%esi
    e518:	89 c7                	mov    %eax,%edi
    e51a:	e8 d3 7c ff ff       	callq  61f2 <safe_sub_func_int8_t_s_s>
    e51f:	0f be c0             	movsbl %al,%eax
    e522:	f7 d0                	not    %eax
    e524:	89 c2                	mov    %eax,%edx
    e526:	8b 85 c8 f3 ff ff    	mov    -0xc38(%rbp),%eax
    e52c:	39 c2                	cmp    %eax,%edx
    e52e:	0f 94 c0             	sete   %al
    e531:	0f b6 c0             	movzbl %al,%eax
    e534:	be e4 00 00 00       	mov    $0xe4,%esi
    e539:	89 c7                	mov    %eax,%edi
    e53b:	e8 53 86 ff ff       	callq  6b93 <safe_mul_func_uint8_t_u_u>
    e540:	0f b6 d0             	movzbl %al,%edx
    e543:	8b 85 d8 f3 ff ff    	mov    -0xc28(%rbp),%eax
    e549:	39 c2                	cmp    %eax,%edx
    e54b:	0f 9d c0             	setge  %al
    e54e:	0f b6 d0             	movzbl %al,%edx
    e551:	48 8b 85 68 f5 ff ff 	mov    -0xa98(%rbp),%rax
    e558:	0f b6 c0             	movzbl %al,%eax
    e55b:	89 d6                	mov    %edx,%esi
    e55d:	89 c7                	mov    %eax,%edi
    e55f:	e8 f6 85 ff ff       	callq  6b5a <safe_add_func_uint8_t_u_u>
    e564:	0f b6 c0             	movzbl %al,%eax
    e567:	89 c6                	mov    %eax,%esi
    e569:	bf bc 00 00 00       	mov    $0xbc,%edi
    e56e:	e8 68 86 ff ff       	callq  6bdb <safe_div_func_uint8_t_u_u>
    e573:	48 8b 85 80 f4 ff ff 	mov    -0xb80(%rbp),%rax
    e57a:	c6 00 01             	movb   $0x1,(%rax)
    e57d:	48 8b 85 80 f4 ff ff 	mov    -0xb80(%rbp),%rax
    e584:	0f b6 00             	movzbl (%rax),%eax
    e587:	3c 03                	cmp    $0x3,%al
    e589:	0f 96 c2             	setbe  %dl
    e58c:	48 8b 85 50 f4 ff ff 	mov    -0xbb0(%rbp),%rax
    e593:	0f b6 d2             	movzbl %dl,%edx
    e596:	89 10                	mov    %edx,(%rax)
    e598:	8b 00                	mov    (%rax),%eax
    e59a:	3d 44 5d 0e 55       	cmp    $0x550e5d44,%eax
    e59f:	0f 9e c0             	setle  %al
    e5a2:	0f b6 d0             	movzbl %al,%edx
    e5a5:	8b 05 05 db 00 00    	mov    0xdb05(%rip),%eax        # 1c0b0 <g_142+0x50>
    e5ab:	31 d0                	xor    %edx,%eax
    e5ad:	3d d1 a4 00 00       	cmp    $0xa4d1,%eax
    e5b2:	0f 9e c0             	setle  %al
    e5b5:	0f b6 c0             	movzbl %al,%eax
    e5b8:	be 02 00 00 00       	mov    $0x2,%esi
    e5bd:	48 89 c7             	mov    %rax,%rdi
    e5c0:	e8 7c 82 ff ff       	callq  6841 <safe_add_func_int64_t_s_s>
    e5c5:	49 39 c5             	cmp    %rax,%r13
    e5c8:	0f 9f c0             	setg   %al
    e5cb:	0f b6 c0             	movzbl %al,%eax
    e5ce:	39 85 ac f3 ff ff    	cmp    %eax,-0xc54(%rbp)
    e5d4:	0f 94 c0             	sete   %al
    e5d7:	0f b6 c0             	movzbl %al,%eax
    e5da:	be 31 e2 ff ff       	mov    $0xffffe231,%esi
    e5df:	89 c7                	mov    %eax,%edi
    e5e1:	e8 0f 7e ff ff       	callq  63f5 <safe_mul_func_int16_t_s_s>
    e5e6:	98                   	cwtl   
    e5e7:	44 89 e6             	mov    %r12d,%esi
    e5ea:	89 c7                	mov    %eax,%edi
    e5ec:	e8 e2 7d ff ff       	callq  63d3 <safe_sub_func_int16_t_s_s>
    e5f1:	98                   	cwtl   
    e5f2:	39 85 ac f3 ff ff    	cmp    %eax,-0xc54(%rbp)
    e5f8:	77 0d                	ja     e607 <func_60+0x1c3a>
    e5fa:	48 8b 85 e0 f4 ff ff 	mov    -0xb20(%rbp),%rax
    e601:	8b 00                	mov    (%rax),%eax
    e603:	85 c0                	test   %eax,%eax
    e605:	74 07                	je     e60e <func_60+0x1c41>
    e607:	b8 01 00 00 00       	mov    $0x1,%eax
    e60c:	eb 05                	jmp    e613 <func_60+0x1c46>
    e60e:	b8 00 00 00 00       	mov    $0x0,%eax
    e613:	89 c2                	mov    %eax,%edx
    e615:	8b 85 a8 f3 ff ff    	mov    -0xc58(%rbp),%eax
    e61b:	09 d0                	or     %edx,%eax
    e61d:	0f b6 c0             	movzbl %al,%eax
    e620:	be 01 00 00 00       	mov    $0x1,%esi
    e625:	89 c7                	mov    %eax,%edi
    e627:	e8 82 85 ff ff       	callq  6bae <safe_mod_func_uint8_t_u_u>
    e62c:	0f b6 c0             	movzbl %al,%eax
    e62f:	89 de                	mov    %ebx,%esi
    e631:	89 c7                	mov    %eax,%edi
    e633:	e8 2b 7f ff ff       	callq  6563 <safe_rshift_func_int16_t_s_u>
    e638:	66 85 c0             	test   %ax,%ax
    e63b:	0f 84 b6 03 00 00    	je     e9f7 <func_60+0x202a>
    e641:	c7 85 20 f4 ff ff ba 	movl   $0x669c13ba,-0xbe0(%rbp)
    e648:	13 9c 66 
    e64b:	c7 85 e4 f3 ff ff 82 	movl   $0x6667d682,-0xc1c(%rbp)
    e652:	d6 67 66 
    e655:	c7 85 24 f4 ff ff 01 	movl   $0x1,-0xbdc(%rbp)
    e65c:	00 00 00 
    e65f:	48 8d 05 54 db 00 00 	lea    0xdb54(%rip),%rax        # 1c1ba <g_218+0xa>
    e666:	48 89 85 20 f5 ff ff 	mov    %rax,-0xae0(%rbp)
    e66d:	48 8d 05 94 db 00 00 	lea    0xdb94(%rip),%rax        # 1c208 <g_261>
    e674:	48 89 85 28 f5 ff ff 	mov    %rax,-0xad8(%rbp)
    e67b:	c7 85 28 f4 ff ff dd 	movl   $0xafc290dd,-0xbd8(%rbp)
    e682:	90 c2 af 
    e685:	48 8b 05 c4 da 00 00 	mov    0xdac4(%rip),%rax        # 1c150 <g_179>
    e68c:	48 8d 05 25 db 00 00 	lea    0xdb25(%rip),%rax        # 1c1b8 <g_218+0x8>
    e693:	48 89 85 30 f5 ff ff 	mov    %rax,-0xad0(%rbp)
    e69a:	c7 85 2c f4 ff ff 00 	movl   $0x0,-0xbd4(%rbp)
    e6a1:	00 00 00 
    e6a4:	c7 85 30 f4 ff ff 05 	movl   $0x5,-0xbd0(%rbp)
    e6ab:	00 00 00 
    e6ae:	48 b8 2e 63 3a c8 5a 	movabs $0xf353055ac83a632e,%rax
    e6b5:	05 53 f3 
    e6b8:	48 89 85 38 f5 ff ff 	mov    %rax,-0xac8(%rbp)
    e6bf:	c7 85 34 f4 ff ff fd 	movl   $0xfffffffd,-0xbcc(%rbp)
    e6c6:	ff ff ff 
    e6c9:	c7 85 f0 f3 ff ff 00 	movl   $0x0,-0xc10(%rbp)
    e6d0:	00 00 00 
    e6d3:	eb 25                	jmp    e6fa <func_60+0x1d2d>
    e6d5:	8b 85 f0 f3 ff ff    	mov    -0xc10(%rbp),%eax
    e6db:	48 98                	cltq   
    e6dd:	48 8d 95 c0 f6 ff ff 	lea    -0x940(%rbp),%rdx
    e6e4:	48 81 c2 c0 00 00 00 	add    $0xc0,%rdx
    e6eb:	48 89 94 c5 70 f6 ff 	mov    %rdx,-0x990(%rbp,%rax,8)
    e6f2:	ff 
    e6f3:	83 85 f0 f3 ff ff 01 	addl   $0x1,-0xc10(%rbp)
    e6fa:	83 bd f0 f3 ff ff 07 	cmpl   $0x7,-0xc10(%rbp)
    e701:	7e d2                	jle    e6d5 <func_60+0x1d08>
    e703:	48 8b 05 be 44 01 00 	mov    0x144be(%rip),%rax        # 22bc8 <g_166>
    e70a:	48 8b 00             	mov    (%rax),%rax
    e70d:	48 89 85 78 f5 ff ff 	mov    %rax,-0xa88(%rbp)
    e714:	48 8b 05 65 da 00 00 	mov    0xda65(%rip),%rax        # 1c180 <g_182>
    e71b:	48 85 c0             	test   %rax,%rax
    e71e:	0f 85 9d 00 00 00    	jne    e7c1 <func_60+0x1df4>
    e724:	8b 85 c0 f3 ff ff    	mov    -0xc40(%rbp),%eax
    e72a:	0f bf d8             	movswl %ax,%ebx
    e72d:	48 8b 05 0c d9 00 00 	mov    0xd90c(%rip),%rax        # 1c040 <g_91+0x10>
    e734:	48 c1 e8 09          	shr    $0x9,%rax
    e738:	83 e0 07             	and    $0x7,%eax
    e73b:	44 0f b6 e0          	movzbl %al,%r12d
    e73f:	48 8b 85 00 f6 ff ff 	mov    -0xa00(%rbp),%rax
    e746:	48 89 85 58 f4 ff ff 	mov    %rax,-0xba8(%rbp)
    e74d:	48 8b 85 58 f4 ff ff 	mov    -0xba8(%rbp),%rax
    e754:	48 85 c0             	test   %rax,%rax
    e757:	0f 94 c0             	sete   %al
    e75a:	0f b6 c0             	movzbl %al,%eax
    e75d:	89 c7                	mov    %eax,%edi
    e75f:	e8 32 7e ff ff       	callq  6596 <safe_unary_minus_func_int32_t_s>
    e764:	3d f6 00 00 00       	cmp    $0xf6,%eax
    e769:	0f 9e c2             	setle  %dl
    e76c:	48 8b 85 50 f4 ff ff 	mov    -0xbb0(%rbp),%rax
    e773:	0f b6 d2             	movzbl %dl,%edx
    e776:	89 10                	mov    %edx,(%rax)
    e778:	8b 00                	mov    (%rax),%eax
    e77a:	85 c0                	test   %eax,%eax
    e77c:	0f 94 c2             	sete   %dl
    e77f:	48 8b 05 3a 44 01 00 	mov    0x1443a(%rip),%rax        # 22bc0 <g_167>
    e786:	0f b6 d2             	movzbl %dl,%edx
    e789:	89 10                	mov    %edx,(%rax)
    e78b:	8b 00                	mov    (%rax),%eax
    e78d:	39 85 20 f4 ff ff    	cmp    %eax,-0xbe0(%rbp)
    e793:	0f 9f c0             	setg   %al
    e796:	0f b6 c0             	movzbl %al,%eax
    e799:	41 39 c4             	cmp    %eax,%r12d
    e79c:	48 8b 85 30 f5 ff ff 	mov    -0xad0(%rbp),%rax
    e7a3:	66 c7 00 01 00       	movw   $0x1,(%rax)
    e7a8:	48 8b 85 30 f5 ff ff 	mov    -0xad0(%rbp),%rax
    e7af:	0f b7 00             	movzwl (%rax),%eax
    e7b2:	98                   	cwtl   
    e7b3:	89 de                	mov    %ebx,%esi
    e7b5:	89 c7                	mov    %eax,%edi
    e7b7:	e8 5a 7c ff ff       	callq  6416 <safe_mod_func_int16_t_s_s>
    e7bc:	66 85 c0             	test   %ax,%ax
    e7bf:	74 07                	je     e7c8 <func_60+0x1dfb>
    e7c1:	b8 01 00 00 00       	mov    $0x1,%eax
    e7c6:	eb 05                	jmp    e7cd <func_60+0x1e00>
    e7c8:	b8 00 00 00 00       	mov    $0x0,%eax
    e7cd:	89 85 c0 f3 ff ff    	mov    %eax,-0xc40(%rbp)
    e7d3:	48 8b 05 ee 43 01 00 	mov    0x143ee(%rip),%rax        # 22bc8 <g_166>
    e7da:	48 8d 95 d8 f3 ff ff 	lea    -0xc28(%rbp),%rdx
    e7e1:	48 89 10             	mov    %rdx,(%rax)
    e7e4:	48 8b 05 05 da 00 00 	mov    0xda05(%rip),%rax        # 1c1f0 <g_220>
    e7eb:	48 8b 15 06 da 00 00 	mov    0xda06(%rip),%rdx        # 1c1f8 <g_220+0x8>
    e7f2:	48 89 05 d7 d9 00 00 	mov    %rax,0xd9d7(%rip)        # 1c1d0 <g_219>
    e7f9:	48 89 15 d8 d9 00 00 	mov    %rdx,0xd9d8(%rip)        # 1c1d8 <g_219+0x8>
    e800:	0f b7 05 f9 d9 00 00 	movzwl 0xd9f9(%rip),%eax        # 1c200 <g_220+0x10>
    e807:	66 89 05 d2 d9 00 00 	mov    %ax,0xd9d2(%rip)        # 1c1e0 <g_219+0x10>
    e80e:	0f b7 85 8c f5 ff ff 	movzwl -0xa74(%rbp),%eax
    e815:	83 e8 01             	sub    $0x1,%eax
    e818:	66 89 85 8c f5 ff ff 	mov    %ax,-0xa74(%rbp)
    e81f:	8b 85 28 f4 ff ff    	mov    -0xbd8(%rbp),%eax
    e825:	48 63 d8             	movslq %eax,%rbx
    e828:	8b 05 02 d8 00 00    	mov    0xd802(%rip),%eax        # 1c030 <g_91>
    e82e:	c1 e0 0d             	shl    $0xd,%eax
    e831:	c1 f8 0d             	sar    $0xd,%eax
    e834:	44 0f b7 e0          	movzwl %ax,%r12d
    e838:	8b 85 a8 f3 ff ff    	mov    -0xc58(%rbp),%eax
    e83e:	89 c2                	mov    %eax,%edx
    e840:	48 8b 85 88 f4 ff ff 	mov    -0xb78(%rbp),%rax
    e847:	48 89 10             	mov    %rdx,(%rax)
    e84a:	0f b7 05 f1 d7 00 00 	movzwl 0xd7f1(%rip),%eax        # 1c042 <g_102>
    e851:	44 0f b7 e8          	movzwl %ax,%r13d
    e855:	48 8b 05 f4 d8 00 00 	mov    0xd8f4(%rip),%rax        # 1c150 <g_179>
    e85c:	48 c1 e0 11          	shl    $0x11,%rax
    e860:	48 c1 f8 24          	sar    $0x24,%rax
    e864:	85 c0                	test   %eax,%eax
    e866:	0f 84 bc 00 00 00    	je     e928 <func_60+0x1f5b>
    e86c:	8b 85 fc f3 ff ff    	mov    -0xc04(%rbp),%eax
    e872:	44 0f bf f0          	movswl %ax,%r14d
    e876:	8b 85 c8 f3 ff ff    	mov    -0xc38(%rbp),%eax
    e87c:	44 0f b7 f8          	movzwl %ax,%r15d
    e880:	0f b7 05 31 d9 00 00 	movzwl 0xd931(%rip),%eax        # 1c1b8 <g_218+0x8>
    e887:	48 0f bf d0          	movswq %ax,%rdx
    e88b:	8b 05 1f d8 00 00    	mov    0xd81f(%rip),%eax        # 1c0b0 <g_142+0x50>
    e891:	85 c0                	test   %eax,%eax
    e893:	75 0c                	jne    e8a1 <func_60+0x1ed4>
    e895:	0f b7 05 1e d9 00 00 	movzwl 0xd91e(%rip),%eax        # 1c1ba <g_218+0xa>
    e89c:	66 85 c0             	test   %ax,%ax
    e89f:	74 07                	je     e8a8 <func_60+0x1edb>
    e8a1:	b8 01 00 00 00       	mov    $0x1,%eax
    e8a6:	eb 05                	jmp    e8ad <func_60+0x1ee0>
    e8a8:	b8 00 00 00 00       	mov    $0x0,%eax
    e8ad:	48 98                	cltq   
    e8af:	48 89 d6             	mov    %rdx,%rsi
    e8b2:	48 89 c7             	mov    %rax,%rdi
    e8b5:	e8 fa 80 ff ff       	callq  69b4 <safe_mod_func_int64_t_s_s>
    e8ba:	8b 85 ac f3 ff ff    	mov    -0xc54(%rbp),%eax
    e8c0:	0f b7 c0             	movzwl %ax,%eax
    e8c3:	44 89 fe             	mov    %r15d,%esi
    e8c6:	89 c7                	mov    %eax,%edi
    e8c8:	e8 32 84 ff ff       	callq  6cff <safe_add_func_uint16_t_u_u>
    e8cd:	66 85 c0             	test   %ax,%ax
    e8d0:	74 07                	je     e8d9 <func_60+0x1f0c>
    e8d2:	83 bd ac f3 ff ff 00 	cmpl   $0x0,-0xc54(%rbp)
    e8d9:	44 89 f6             	mov    %r14d,%esi
    e8dc:	bf 00 00 00 00       	mov    $0x0,%edi
    e8e1:	e8 cd 7a ff ff       	callq  63b3 <safe_add_func_int16_t_s_s>
    e8e6:	0f bf d0             	movswl %ax,%edx
    e8e9:	8b 85 14 f4 ff ff    	mov    -0xbec(%rbp),%eax
    e8ef:	0f b7 c0             	movzwl %ax,%eax
    e8f2:	89 d6                	mov    %edx,%esi
    e8f4:	89 c7                	mov    %eax,%edi
    e8f6:	e8 7f 85 ff ff       	callq  6e7a <safe_rshift_func_uint16_t_u_u>
    e8fb:	0f b7 15 40 d7 00 00 	movzwl 0xd740(%rip),%edx        # 1c042 <g_102>
    e902:	66 39 d0             	cmp    %dx,%ax
    e905:	0f 97 c0             	seta   %al
    e908:	0f b6 d0             	movzbl %al,%edx
    e90b:	8b 85 a8 f3 ff ff    	mov    -0xc58(%rbp),%eax
    e911:	09 c2                	or     %eax,%edx
    e913:	0f b7 05 28 d7 00 00 	movzwl 0xd728(%rip),%eax        # 1c042 <g_102>
    e91a:	0f b7 c0             	movzwl %ax,%eax
    e91d:	39 c2                	cmp    %eax,%edx
    e91f:	76 07                	jbe    e928 <func_60+0x1f5b>
    e921:	b8 01 00 00 00       	mov    $0x1,%eax
    e926:	eb 05                	jmp    e92d <func_60+0x1f60>
    e928:	b8 00 00 00 00       	mov    $0x0,%eax
    e92d:	89 c2                	mov    %eax,%edx
    e92f:	8b 85 a8 f3 ff ff    	mov    -0xc58(%rbp),%eax
    e935:	39 c2                	cmp    %eax,%edx
    e937:	0f 96 c0             	setbe  %al
    e93a:	0f b6 c0             	movzbl %al,%eax
    e93d:	be 02 00 00 00       	mov    $0x2,%esi
    e942:	89 c7                	mov    %eax,%edi
    e944:	e8 ec 79 ff ff       	callq  6335 <safe_rshift_func_int8_t_s_s>
    e949:	48 0f be c0          	movsbq %al,%rax
    e94d:	4c 89 ee             	mov    %r13,%rsi
    e950:	48 89 c7             	mov    %rax,%rdi
    e953:	e8 d6 86 ff ff       	callq  702e <safe_add_func_uint64_t_u_u>
    e958:	48 8b 85 20 f5 ff ff 	mov    -0xae0(%rbp),%rax
    e95f:	66 c7 00 01 00       	movw   $0x1,(%rax)
    e964:	48 8b 85 20 f5 ff ff 	mov    -0xae0(%rbp),%rax
    e96b:	0f b7 00             	movzwl (%rax),%eax
    e96e:	66 85 c0             	test   %ax,%ax
    e971:	0f 9e c0             	setle  %al
    e974:	0f b6 c0             	movzbl %al,%eax
    e977:	be 00 00 00 00       	mov    $0x0,%esi
    e97c:	89 c7                	mov    %eax,%edi
    e97e:	e8 d7 81 ff ff       	callq  6b5a <safe_add_func_uint8_t_u_u>
    e983:	8b 85 dc f3 ff ff    	mov    -0xc24(%rbp),%eax
    e989:	85 c0                	test   %eax,%eax
    e98b:	be 3c 00 00 00       	mov    $0x3c,%esi
    e990:	bf 01 00 00 00       	mov    $0x1,%edi
    e995:	e8 f9 81 ff ff       	callq  6b93 <safe_mul_func_uint8_t_u_u>
    e99a:	8b 05 84 d6 00 00    	mov    0xd684(%rip),%eax        # 1c024 <g_5>
    e9a0:	c1 e8 1f             	shr    $0x1f,%eax
    e9a3:	0f b6 c0             	movzbl %al,%eax
    e9a6:	39 85 ac f3 ff ff    	cmp    %eax,-0xc54(%rbp)
    e9ac:	0f 92 c0             	setb   %al
    e9af:	0f b6 c0             	movzbl %al,%eax
    e9b2:	44 89 e6             	mov    %r12d,%esi
    e9b5:	89 c7                	mov    %eax,%edi
    e9b7:	e8 81 83 ff ff       	callq  6d3d <safe_mul_func_uint16_t_u_u>
    e9bc:	0f b7 d0             	movzwl %ax,%edx
    e9bf:	48 8b 85 28 f5 ff ff 	mov    -0xad8(%rbp),%rax
    e9c6:	48 89 10             	mov    %rdx,(%rax)
    e9c9:	48 8b 85 28 f5 ff ff 	mov    -0xad8(%rbp),%rax
    e9d0:	48 8b 00             	mov    (%rax),%rax
    e9d3:	48 89 de             	mov    %rbx,%rsi
    e9d6:	48 89 c7             	mov    %rax,%rdi
    e9d9:	e8 a2 86 ff ff       	callq  7080 <safe_mod_func_uint64_t_u_u>
    e9de:	48 8b 95 50 f4 ff ff 	mov    -0xbb0(%rbp),%rdx
    e9e5:	8b 12                	mov    (%rdx),%edx
    e9e7:	31 c2                	xor    %eax,%edx
    e9e9:	48 8b 85 50 f4 ff ff 	mov    -0xbb0(%rbp),%rax
    e9f0:	89 10                	mov    %edx,(%rax)
    e9f2:	e9 18 03 00 00       	jmpq   ed0f <func_60+0x2342>
    e9f7:	66 c7 85 ba f3 ff ff 	movw   $0x95ec,-0xc46(%rbp)
    e9fe:	ec 95 
    ea00:	c7 85 18 f4 ff ff 82 	movl   $0x6f32e082,-0xbe8(%rbp)
    ea07:	e0 32 6f 
    ea0a:	48 8d 85 c0 f6 ff ff 	lea    -0x940(%rbp),%rax
    ea11:	48 05 c0 00 00 00    	add    $0xc0,%rax
    ea17:	48 89 85 70 f6 ff ff 	mov    %rax,-0x990(%rbp)
    ea1e:	48 8d 85 58 f4 ff ff 	lea    -0xba8(%rbp),%rax
    ea25:	48 89 85 78 f6 ff ff 	mov    %rax,-0x988(%rbp)
    ea2c:	48 8d 85 c0 f6 ff ff 	lea    -0x940(%rbp),%rax
    ea33:	48 05 c0 00 00 00    	add    $0xc0,%rax
    ea39:	48 89 85 80 f6 ff ff 	mov    %rax,-0x980(%rbp)
    ea40:	48 8d 85 58 f4 ff ff 	lea    -0xba8(%rbp),%rax
    ea47:	48 89 85 88 f6 ff ff 	mov    %rax,-0x978(%rbp)
    ea4e:	48 8d 85 c0 f6 ff ff 	lea    -0x940(%rbp),%rax
    ea55:	48 05 c0 00 00 00    	add    $0xc0,%rax
    ea5b:	48 89 85 90 f6 ff ff 	mov    %rax,-0x970(%rbp)
    ea62:	48 8d 85 58 f4 ff ff 	lea    -0xba8(%rbp),%rax
    ea69:	48 89 85 98 f6 ff ff 	mov    %rax,-0x968(%rbp)
    ea70:	48 8d 85 c0 f6 ff ff 	lea    -0x940(%rbp),%rax
    ea77:	48 05 c0 00 00 00    	add    $0xc0,%rax
    ea7d:	48 89 85 a0 f6 ff ff 	mov    %rax,-0x960(%rbp)
    ea84:	48 8d 85 58 f4 ff ff 	lea    -0xba8(%rbp),%rax
    ea8b:	48 89 85 a8 f6 ff ff 	mov    %rax,-0x958(%rbp)
    ea92:	48 8d 85 c0 f6 ff ff 	lea    -0x940(%rbp),%rax
    ea99:	48 05 c0 00 00 00    	add    $0xc0,%rax
    ea9f:	48 89 85 b0 f6 ff ff 	mov    %rax,-0x950(%rbp)
    eaa6:	48 8d 85 58 f4 ff ff 	lea    -0xba8(%rbp),%rax
    eaad:	48 89 85 b8 f6 ff ff 	mov    %rax,-0x948(%rbp)
    eab4:	48 8d 85 70 f4 ff ff 	lea    -0xb90(%rbp),%rax
    eabb:	48 89 85 18 f5 ff ff 	mov    %rax,-0xae8(%rbp)
    eac2:	0f b7 05 79 d5 00 00 	movzwl 0xd579(%rip),%eax        # 1c042 <g_102>
    eac9:	83 c0 01             	add    $0x1,%eax
    eacc:	66 89 05 6f d5 00 00 	mov    %ax,0xd56f(%rip)        # 1c042 <g_102>
    ead3:	0f b7 05 68 d5 00 00 	movzwl 0xd568(%rip),%eax        # 1c042 <g_102>
    eada:	66 3d b1 80          	cmp    $0x80b1,%ax
    eade:	0f 96 c0             	setbe  %al
    eae1:	0f b6 c0             	movzbl %al,%eax
    eae4:	f7 d0                	not    %eax
    eae6:	89 c2                	mov    %eax,%edx
    eae8:	8b 85 a8 f3 ff ff    	mov    -0xc58(%rbp),%eax
    eaee:	39 c2                	cmp    %eax,%edx
    eaf0:	41 0f 97 c4          	seta   %r12b
    eaf4:	83 bd ac f3 ff ff 00 	cmpl   $0x0,-0xc54(%rbp)
    eafb:	75 6d                	jne    eb6a <func_60+0x219d>
    eafd:	48 8b 85 68 f5 ff ff 	mov    -0xa98(%rbp),%rax
    eb04:	41 89 c5             	mov    %eax,%r13d
    eb07:	0f b7 9d ba f3 ff ff 	movzwl -0xc46(%rbp),%ebx
    eb0e:	be 0c 00 00 00       	mov    $0xc,%esi
    eb13:	bf 01 00 00 00       	mov    $0x1,%edi
    eb18:	e8 75 79 ff ff       	callq  6492 <safe_lshift_func_int16_t_s_s>
    eb1d:	98                   	cwtl   
    eb1e:	89 de                	mov    %ebx,%esi
    eb20:	89 c7                	mov    %eax,%edi
    eb22:	e8 6b 79 ff ff       	callq  6492 <safe_lshift_func_int16_t_s_s>
    eb27:	48 0f bf d0          	movswq %ax,%rdx
    eb2b:	48 8b 05 c4 d6 00 00 	mov    0xd6c4(%rip),%rax        # 1c1f6 <g_220+0x6>
    eb32:	48 39 c2             	cmp    %rax,%rdx
    eb35:	0f 9c c0             	setl   %al
    eb38:	0f b6 c0             	movzbl %al,%eax
    eb3b:	be 06 00 00 00       	mov    $0x6,%esi
    eb40:	89 c7                	mov    %eax,%edi
    eb42:	e8 9a 79 ff ff       	callq  64e1 <safe_lshift_func_int16_t_s_u>
    eb47:	0f b7 c0             	movzwl %ax,%eax
    eb4a:	be 0f 00 00 00       	mov    $0xf,%esi
    eb4f:	89 c7                	mov    %eax,%edi
    eb51:	e8 68 82 ff ff       	callq  6dbe <safe_lshift_func_uint16_t_u_s>
    eb56:	0f b7 c0             	movzwl %ax,%eax
    eb59:	44 89 ee             	mov    %r13d,%esi
    eb5c:	89 c7                	mov    %eax,%edi
    eb5e:	e8 53 7a ff ff       	callq  65b6 <safe_add_func_int32_t_s_s>
    eb63:	ba 00 00 00 00       	mov    $0x0,%edx
    eb68:	eb 05                	jmp    eb6f <func_60+0x21a2>
    eb6a:	ba 01 00 00 00       	mov    $0x1,%edx
    eb6f:	0f b7 85 ba f3 ff ff 	movzwl -0xc46(%rbp),%eax
    eb76:	98                   	cwtl   
    eb77:	89 d6                	mov    %edx,%esi
    eb79:	89 c7                	mov    %eax,%edi
    eb7b:	e8 12 79 ff ff       	callq  6492 <safe_lshift_func_int16_t_s_s>
    eb80:	0f b6 c0             	movzbl %al,%eax
    eb83:	be 01 00 00 00       	mov    $0x1,%esi
    eb88:	89 c7                	mov    %eax,%edi
    eb8a:	e8 e9 7f ff ff       	callq  6b78 <safe_sub_func_uint8_t_u_u>
    eb8f:	84 c0                	test   %al,%al
    eb91:	0f 94 c0             	sete   %al
    eb94:	44 21 e0             	and    %r12d,%eax
    eb97:	0f b6 c0             	movzbl %al,%eax
    eb9a:	be 36 00 00 00       	mov    $0x36,%esi
    eb9f:	89 c7                	mov    %eax,%edi
    eba1:	e8 6c 76 ff ff       	callq  6212 <safe_mul_func_int8_t_s_s>
    eba6:	0f be c0             	movsbl %al,%eax
    eba9:	be 07 00 00 00       	mov    $0x7,%esi
    ebae:	89 c7                	mov    %eax,%edi
    ebb0:	e8 b5 76 ff ff       	callq  626a <safe_div_func_int8_t_s_s>
    ebb5:	48 8b 05 0c 40 01 00 	mov    0x1400c(%rip),%rax        # 22bc8 <g_166>
    ebbc:	48 8b 00             	mov    (%rax),%rax
    ebbf:	8b 10                	mov    (%rax),%edx
    ebc1:	8b 05 69 d4 00 00    	mov    0xd469(%rip),%eax        # 1c030 <g_91>
    ebc7:	c1 e0 0d             	shl    $0xd,%eax
    ebca:	c1 f8 0d             	sar    $0xd,%eax
    ebcd:	09 d0                	or     %edx,%eax
    ebcf:	c1 e0 0d             	shl    $0xd,%eax
    ebd2:	c1 f8 0d             	sar    $0xd,%eax
    ebd5:	25 ff ff 07 00       	and    $0x7ffff,%eax
    ebda:	89 c2                	mov    %eax,%edx
    ebdc:	8b 05 4e d4 00 00    	mov    0xd44e(%rip),%eax        # 1c030 <g_91>
    ebe2:	25 00 00 f8 ff       	and    $0xfff80000,%eax
    ebe7:	09 d0                	or     %edx,%eax
    ebe9:	89 05 41 d4 00 00    	mov    %eax,0xd441(%rip)        # 1c030 <g_91>
    ebef:	0f b7 95 ba f3 ff ff 	movzwl -0xc46(%rbp),%edx
    ebf6:	8b 85 a8 f3 ff ff    	mov    -0xc58(%rbp),%eax
    ebfc:	39 c2                	cmp    %eax,%edx
    ebfe:	0f 92 c0             	setb   %al
    ec01:	0f b6 c0             	movzbl %al,%eax
    ec04:	31 85 18 f4 ff ff    	xor    %eax,-0xbe8(%rbp)
    ec0a:	48 8b 85 68 f5 ff ff 	mov    -0xa98(%rbp),%rax
    ec11:	89 c3                	mov    %eax,%ebx
    ec13:	83 bd ac f3 ff ff 00 	cmpl   $0x0,-0xc54(%rbp)
    ec1a:	0f 95 c0             	setne  %al
    ec1d:	0f b6 d0             	movzbl %al,%edx
    ec20:	0f b7 85 ba f3 ff ff 	movzwl -0xc46(%rbp),%eax
    ec27:	0f b6 c0             	movzbl %al,%eax
    ec2a:	89 d6                	mov    %edx,%esi
    ec2c:	89 c7                	mov    %eax,%edi
    ec2e:	e8 27 7f ff ff       	callq  6b5a <safe_add_func_uint8_t_u_u>
    ec33:	84 c0                	test   %al,%al
    ec35:	75 0d                	jne    ec44 <func_60+0x2277>
    ec37:	48 8b 05 82 3f 01 00 	mov    0x13f82(%rip),%rax        # 22bc0 <g_167>
    ec3e:	8b 00                	mov    (%rax),%eax
    ec40:	85 c0                	test   %eax,%eax
    ec42:	74 07                	je     ec4b <func_60+0x227e>
    ec44:	ba 01 00 00 00       	mov    $0x1,%edx
    ec49:	eb 05                	jmp    ec50 <func_60+0x2283>
    ec4b:	ba 00 00 00 00       	mov    $0x0,%edx
    ec50:	48 8b 85 50 f4 ff ff 	mov    -0xbb0(%rbp),%rax
    ec57:	89 10                	mov    %edx,(%rax)
    ec59:	8b 10                	mov    (%rax),%edx
    ec5b:	8b 05 c3 d3 00 00    	mov    0xd3c3(%rip),%eax        # 1c024 <g_5>
    ec61:	21 d0                	and    %edx,%eax
    ec63:	48 63 d0             	movslq %eax,%rdx
    ec66:	48 8d 85 c8 f3 ff ff 	lea    -0xc38(%rbp),%rax
    ec6d:	48 89 05 6c 42 01 00 	mov    %rax,0x1426c(%rip)        # 22ee0 <g_303>
    ec74:	48 8b 0d 65 42 01 00 	mov    0x14265(%rip),%rcx        # 22ee0 <g_303>
    ec7b:	48 8d 85 a8 f3 ff ff 	lea    -0xc58(%rbp),%rax
    ec82:	48 39 c1             	cmp    %rax,%rcx
    ec85:	0f 95 c0             	setne  %al
    ec88:	0f b6 c0             	movzbl %al,%eax
    ec8b:	48 89 d6             	mov    %rdx,%rsi
    ec8e:	48 89 c7             	mov    %rax,%rdi
    ec91:	e8 12 7c ff ff       	callq  68a8 <safe_sub_func_int64_t_s_s>
    ec96:	0f b7 c0             	movzwl %ax,%eax
    ec99:	89 de                	mov    %ebx,%esi
    ec9b:	89 c7                	mov    %eax,%edi
    ec9d:	e8 1c 81 ff ff       	callq  6dbe <safe_lshift_func_uint16_t_u_s>
    eca2:	8b 85 c8 f3 ff ff    	mov    -0xc38(%rbp),%eax
    eca8:	85 c0                	test   %eax,%eax
    ecaa:	0f 94 c0             	sete   %al
    ecad:	0f b6 c0             	movzbl %al,%eax
    ecb0:	48 89 05 29 5a 01 00 	mov    %rax,0x15a29(%rip)        # 246e0 <g_307>
    ecb7:	48 8b 95 70 f4 ff ff 	mov    -0xb90(%rbp),%rdx
    ecbe:	48 8b 85 18 f5 ff ff 	mov    -0xae8(%rbp),%rax
    ecc5:	48 89 10             	mov    %rdx,(%rax)
    ecc8:	48 8b 85 18 f5 ff ff 	mov    -0xae8(%rbp),%rax
    eccf:	48 8b 00             	mov    (%rax),%rax
    ecd2:	48 8d 15 f7 41 01 00 	lea    0x141f7(%rip),%rdx        # 22ed0 <g_181+0x10>
    ecd9:	48 39 d0             	cmp    %rdx,%rax
    ecdc:	75 17                	jne    ecf5 <func_60+0x2328>
    ecde:	0f b6 85 ec f8 ff ff 	movzbl -0x714(%rbp),%eax
    ece5:	84 c0                	test   %al,%al
    ece7:	75 46                	jne    ed2f <func_60+0x2362>
    ece9:	48 83 bd 78 f4 ff ff 	cmpq   $0x0,-0xb88(%rbp)
    ecf0:	00 
    ecf1:	74 1c                	je     ed0f <func_60+0x2342>
    ecf3:	eb 3e                	jmp    ed33 <func_60+0x2366>
    ecf5:	c7 85 1c f4 ff ff 01 	movl   $0x1,-0xbe4(%rbp)
    ecfc:	00 00 00 
    ecff:	83 bd ac f3 ff ff 00 	cmpl   $0x0,-0xc54(%rbp)
    ed06:	75 2a                	jne    ed32 <func_60+0x2365>
    ed08:	83 bd 1c f4 ff ff 00 	cmpl   $0x0,-0xbe4(%rbp)
    ed0f:	8b 05 2f d3 00 00    	mov    0xd32f(%rip),%eax        # 1c044 <g_114>
    ed15:	83 c0 01             	add    $0x1,%eax
    ed18:	89 05 26 d3 00 00    	mov    %eax,0xd326(%rip)        # 1c044 <g_114>
    ed1e:	8b 05 20 d3 00 00    	mov    0xd320(%rip),%eax        # 1c044 <g_114>
    ed24:	83 f8 04             	cmp    $0x4,%eax
    ed27:	0f 86 fe e7 ff ff    	jbe    d52b <func_60+0xb5e>
    ed2d:	eb 04                	jmp    ed33 <func_60+0x2366>
    ed2f:	90                   	nop
    ed30:	eb 01                	jmp    ed33 <func_60+0x2366>
    ed32:	90                   	nop
    ed33:	0f b6 85 f9 f8 ff ff 	movzbl -0x707(%rbp),%eax
    ed3a:	0f be d0             	movsbl %al,%edx
    ed3d:	8b 85 cc f3 ff ff    	mov    -0xc34(%rbp),%eax
    ed43:	31 d0                	xor    %edx,%eax
    ed45:	89 85 cc f3 ff ff    	mov    %eax,-0xc34(%rbp)
    ed4b:	48 83 bd a0 f4 ff ff 	cmpq   $0x0,-0xb60(%rbp)
    ed52:	00 
    ed53:	0f 94 c0             	sete   %al
    ed56:	0f b6 d0             	movzbl %al,%edx
    ed59:	8b 85 d4 f3 ff ff    	mov    -0xc2c(%rbp),%eax
    ed5f:	21 d0                	and    %edx,%eax
    ed61:	89 85 d4 f3 ff ff    	mov    %eax,-0xc2c(%rbp)
    ed67:	e9 cd 01 00 00       	jmpq   ef39 <func_60+0x256c>
    ed6c:	48 8d 05 55 3e 01 00 	lea    0x13e55(%rip),%rax        # 22bc8 <g_166>
    ed73:	48 89 85 70 f4 ff ff 	mov    %rax,-0xb90(%rbp)
    ed7a:	48 8d 85 70 f4 ff ff 	lea    -0xb90(%rbp),%rax
    ed81:	48 89 85 d8 f4 ff ff 	mov    %rax,-0xb28(%rbp)
    ed88:	48 8b 85 d8 f4 ff ff 	mov    -0xb28(%rbp),%rax
    ed8f:	48 8d 15 32 3e 01 00 	lea    0x13e32(%rip),%rdx        # 22bc8 <g_166>
    ed96:	48 89 10             	mov    %rdx,(%rax)
    ed99:	48 8b 85 d8 f4 ff ff 	mov    -0xb28(%rbp),%rax
    eda0:	48 8b 00             	mov    (%rax),%rax
    eda3:	48 8b 00             	mov    (%rax),%rax
    eda6:	48 8d 95 dc f3 ff ff 	lea    -0xc24(%rbp),%rdx
    edad:	48 89 10             	mov    %rdx,(%rax)
    edb0:	e9 84 01 00 00       	jmpq   ef39 <func_60+0x256c>
    edb5:	66 c7 85 b8 f3 ff ff 	movw   $0x1,-0xc48(%rbp)
    edbc:	01 00 
    edbe:	c7 85 70 f4 ff ff 01 	movl   $0x1,-0xb90(%rbp)
    edc5:	00 00 00 
    edc8:	c6 85 b6 f3 ff ff fb 	movb   $0xfb,-0xc4a(%rbp)
    edcf:	c7 85 f4 f3 ff ff 00 	movl   $0x0,-0xc0c(%rbp)
    edd6:	00 00 00 
    edd9:	eb 1e                	jmp    edf9 <func_60+0x242c>
    eddb:	8b 85 f4 f3 ff ff    	mov    -0xc0c(%rbp),%eax
    ede1:	48 98                	cltq   
    ede3:	48 8d 95 70 f4 ff ff 	lea    -0xb90(%rbp),%rdx
    edea:	48 89 94 c5 90 f8 ff 	mov    %rdx,-0x770(%rbp,%rax,8)
    edf1:	ff 
    edf2:	83 85 f4 f3 ff ff 01 	addl   $0x1,-0xc0c(%rbp)
    edf9:	83 bd f4 f3 ff ff 01 	cmpl   $0x1,-0xc0c(%rbp)
    ee00:	7e d9                	jle    eddb <func_60+0x240e>
    ee02:	c6 05 bf 58 01 00 00 	movb   $0x0,0x158bf(%rip)        # 246c8 <g_79>
    ee09:	e9 15 01 00 00       	jmpq   ef23 <func_60+0x2556>
    ee0e:	48 8d 85 cc f3 ff ff 	lea    -0xc34(%rbp),%rax
    ee15:	48 89 85 80 f9 ff ff 	mov    %rax,-0x680(%rbp)
    ee1c:	48 c7 85 88 f9 ff ff 	movq   $0x0,-0x678(%rbp)
    ee23:	00 00 00 00 
    ee27:	48 c7 85 90 f9 ff ff 	movq   $0x0,-0x670(%rbp)
    ee2e:	00 00 00 00 
    ee32:	48 8d 85 cc f3 ff ff 	lea    -0xc34(%rbp),%rax
    ee39:	48 89 85 98 f9 ff ff 	mov    %rax,-0x668(%rbp)
    ee40:	48 8d 85 cc f3 ff ff 	lea    -0xc34(%rbp),%rax
    ee47:	48 89 85 a0 f9 ff ff 	mov    %rax,-0x660(%rbp)
    ee4e:	48 c7 85 a8 f9 ff ff 	movq   $0x0,-0x658(%rbp)
    ee55:	00 00 00 00 
    ee59:	48 8d 05 c8 d1 00 00 	lea    0xd1c8(%rip),%rax        # 1c028 <g_7>
    ee60:	48 89 85 b0 f9 ff ff 	mov    %rax,-0x650(%rbp)
    ee67:	48 c7 85 b8 f9 ff ff 	movq   $0x0,-0x648(%rbp)
    ee6e:	00 00 00 00 
    ee72:	48 c7 85 c0 f9 ff ff 	movq   $0x0,-0x640(%rbp)
    ee79:	00 00 00 00 
    ee7d:	48 c7 85 c8 f9 ff ff 	movq   $0x0,-0x638(%rbp)
    ee84:	00 00 00 00 
    ee88:	48 8d 85 cc f3 ff ff 	lea    -0xc34(%rbp),%rax
    ee8f:	48 89 85 d0 f9 ff ff 	mov    %rax,-0x630(%rbp)
    ee96:	48 c7 85 d8 f9 ff ff 	movq   $0x0,-0x628(%rbp)
    ee9d:	00 00 00 00 
    eea1:	48 8d 05 80 d1 00 00 	lea    0xd180(%rip),%rax        # 1c028 <g_7>
    eea8:	48 89 85 e0 f9 ff ff 	mov    %rax,-0x620(%rbp)
    eeaf:	48 8d 85 cc f3 ff ff 	lea    -0xc34(%rbp),%rax
    eeb6:	48 89 85 e8 f9 ff ff 	mov    %rax,-0x618(%rbp)
    eebd:	48 8d 05 64 d1 00 00 	lea    0xd164(%rip),%rax        # 1c028 <g_7>
    eec4:	48 89 85 f0 f9 ff ff 	mov    %rax,-0x610(%rbp)
    eecb:	48 8d 85 cc f3 ff ff 	lea    -0xc34(%rbp),%rax
    eed2:	48 89 85 f8 f9 ff ff 	mov    %rax,-0x608(%rbp)
    eed9:	48 c7 85 00 fa ff ff 	movq   $0x0,-0x600(%rbp)
    eee0:	00 00 00 00 
    eee4:	48 c7 85 08 fa ff ff 	movq   $0x0,-0x5f8(%rbp)
    eeeb:	00 00 00 00 
    eeef:	8b 85 ac f3 ff ff    	mov    -0xc54(%rbp),%eax
    eef5:	89 c2                	mov    %eax,%edx
    eef7:	0f b7 85 b8 f3 ff ff 	movzwl -0xc48(%rbp),%eax
    eefe:	31 d0                	xor    %edx,%eax
    ef00:	66 89 85 b8 f3 ff ff 	mov    %ax,-0xc48(%rbp)
    ef07:	0f b6 05 ba 57 01 00 	movzbl 0x157ba(%rip),%eax        # 246c8 <g_79>
    ef0e:	0f b6 c0             	movzbl %al,%eax
    ef11:	be 01 00 00 00       	mov    $0x1,%esi
    ef16:	89 c7                	mov    %eax,%edi
    ef18:	e8 e2 7d ff ff       	callq  6cff <safe_add_func_uint16_t_u_u>
    ef1d:	88 05 a5 57 01 00    	mov    %al,0x157a5(%rip)        # 246c8 <g_79>
    ef23:	0f b6 05 9e 57 01 00 	movzbl 0x1579e(%rip),%eax        # 246c8 <g_79>
    ef2a:	3c 03                	cmp    $0x3,%al
    ef2c:	0f 86 dc fe ff ff    	jbe    ee0e <func_60+0x2441>
    ef32:	83 85 04 f4 ff ff 01 	addl   $0x1,-0xbfc(%rbp)
    ef39:	8b 85 00 f4 ff ff    	mov    -0xc00(%rbp),%eax
    ef3f:	4c 63 f0             	movslq %eax,%r14
    ef42:	48 8b 05 bf d2 00 00 	mov    0xd2bf(%rip),%rax        # 1c208 <g_261>
    ef49:	0f bf d8             	movswl %ax,%ebx
    ef4c:	44 8b a5 a8 f3 ff ff 	mov    -0xc58(%rbp),%r12d
    ef53:	b8 e9 50 00 00       	mov    $0x50e9,%eax
    ef58:	44 0f b7 e8          	movzwl %ax,%r13d
    ef5c:	48 8b 05 7d 3f 01 00 	mov    0x13f7d(%rip),%rax        # 22ee0 <g_303>
    ef63:	8b 00                	mov    (%rax),%eax
    ef65:	41 89 c7             	mov    %eax,%r15d
    ef68:	0f b6 05 59 57 01 00 	movzbl 0x15759(%rip),%eax        # 246c8 <g_79>
    ef6f:	0f b6 d0             	movzbl %al,%edx
    ef72:	8b 85 0c f4 ff ff    	mov    -0xbf4(%rbp),%eax
    ef78:	0f b6 c0             	movzbl %al,%eax
    ef7b:	89 d6                	mov    %edx,%esi
    ef7d:	89 c7                	mov    %eax,%edi
    ef7f:	e8 f4 7b ff ff       	callq  6b78 <safe_sub_func_uint8_t_u_u>
    ef84:	0f b6 d0             	movzbl %al,%edx
    ef87:	b8 0b 00 00 00       	mov    $0xb,%eax
    ef8c:	0f b7 c0             	movzwl %ax,%eax
    ef8f:	39 c2                	cmp    %eax,%edx
    ef91:	0f 9c c0             	setl   %al
    ef94:	0f b6 c0             	movzbl %al,%eax
    ef97:	44 89 fe             	mov    %r15d,%esi
    ef9a:	89 c7                	mov    %eax,%edi
    ef9c:	e8 15 76 ff ff       	callq  65b6 <safe_add_func_int32_t_s_s>
    efa1:	89 c2                	mov    %eax,%edx
    efa3:	8b 85 a8 f3 ff ff    	mov    -0xc58(%rbp),%eax
    efa9:	21 d0                	and    %edx,%eax
    efab:	89 c2                	mov    %eax,%edx
    efad:	48 8b 05 2c 57 01 00 	mov    0x1572c(%rip),%rax        # 246e0 <g_307>
    efb4:	48 09 c2             	or     %rax,%rdx
    efb7:	b8 00 1a bc e7       	mov    $0xe7bc1a00,%eax
    efbc:	48 39 c2             	cmp    %rax,%rdx
    efbf:	0f 94 c0             	sete   %al
    efc2:	0f b6 d0             	movzbl %al,%edx
    efc5:	8b 05 05 d1 00 00    	mov    0xd105(%rip),%eax        # 1c0d0 <g_142+0x70>
    efcb:	39 c2                	cmp    %eax,%edx
    efcd:	0f 95 c0             	setne  %al
    efd0:	0f b6 c0             	movzbl %al,%eax
    efd3:	44 89 ee             	mov    %r13d,%esi
    efd6:	89 c7                	mov    %eax,%edi
    efd8:	e8 7f 7d ff ff       	callq  6d5c <safe_mod_func_uint16_t_u_u>
    efdd:	98                   	cwtl   
    efde:	be 4d 83 ff ff       	mov    $0xffff834d,%esi
    efe3:	89 c7                	mov    %eax,%edi
    efe5:	e8 6b 74 ff ff       	callq  6455 <safe_div_func_int16_t_s_s>
    efea:	48 8b 85 b0 f4 ff ff 	mov    -0xb50(%rbp),%rax
    eff1:	48 c7 00 00 00 00 00 	movq   $0x0,(%rax)
    eff8:	48 8b 85 b0 f4 ff ff 	mov    -0xb50(%rbp),%rax
    efff:	48 8b 00             	mov    (%rax),%rax
    f002:	48 8d 15 39 d0 00 00 	lea    0xd039(%rip),%rdx        # 1c042 <g_102>
    f009:	48 39 d0             	cmp    %rdx,%rax
    f00c:	0f 94 c0             	sete   %al
    f00f:	0f b6 d0             	movzbl %al,%edx
    f012:	8b 85 a8 f3 ff ff    	mov    -0xc58(%rbp),%eax
    f018:	39 c2                	cmp    %eax,%edx
    f01a:	0f 95 c0             	setne  %al
    f01d:	0f b6 c0             	movzbl %al,%eax
    f020:	8b 95 a8 f3 ff ff    	mov    -0xc58(%rbp),%edx
    f026:	89 d1                	mov    %edx,%ecx
    f028:	48 8b 95 98 f4 ff ff 	mov    -0xb68(%rbp),%rdx
    f02f:	66 89 0a             	mov    %cx,(%rdx)
    f032:	48 8b 95 98 f4 ff ff 	mov    -0xb68(%rbp),%rdx
    f039:	0f b7 12             	movzwl (%rdx),%edx
    f03c:	48 0f bf d2          	movswq %dx,%rdx
    f040:	83 e2 01             	and    $0x1,%edx
    f043:	48 89 c6             	mov    %rax,%rsi
    f046:	48 89 d7             	mov    %rdx,%rdi
    f049:	e8 fd 7f ff ff       	callq  704b <safe_sub_func_uint64_t_u_u>
    f04e:	89 c2                	mov    %eax,%edx
    f050:	48 8b 85 80 f4 ff ff 	mov    -0xb80(%rbp),%rax
    f057:	88 10                	mov    %dl,(%rax)
    f059:	48 8b 85 80 f4 ff ff 	mov    -0xb80(%rbp),%rax
    f060:	0f b6 10             	movzbl (%rax),%edx
    f063:	48 8b 85 c0 f4 ff ff 	mov    -0xb40(%rbp),%rax
    f06a:	88 10                	mov    %dl,(%rax)
    f06c:	48 8b 85 c0 f4 ff ff 	mov    -0xb40(%rbp),%rax
    f073:	0f b6 00             	movzbl (%rax),%eax
    f076:	0f b6 d0             	movzbl %al,%edx
    f079:	0f b6 05 ac cf 00 00 	movzbl 0xcfac(%rip),%eax        # 1c02c <g_63>
    f080:	0f be c0             	movsbl %al,%eax
    f083:	39 c2                	cmp    %eax,%edx
    f085:	0f 9d c0             	setge  %al
    f088:	0f b6 c0             	movzbl %al,%eax
    f08b:	44 89 e6             	mov    %r12d,%esi
    f08e:	89 c7                	mov    %eax,%edi
    f090:	e8 29 7c ff ff       	callq  6cbe <safe_rshift_func_uint8_t_u_u>
    f095:	0f b6 c0             	movzbl %al,%eax
    f098:	8b 15 8a cf 00 00    	mov    0xcf8a(%rip),%edx        # 1c028 <g_7>
    f09e:	21 d0                	and    %edx,%eax
    f0a0:	98                   	cwtl   
    f0a1:	89 de                	mov    %ebx,%esi
    f0a3:	89 c7                	mov    %eax,%edi
    f0a5:	e8 4b 73 ff ff       	callq  63f5 <safe_mul_func_int16_t_s_s>
    f0aa:	48 b8 d3 de 58 e2 b2 	movabs $0xfba80b2e258ded3,%rax
    f0b1:	80 ba 0f 
    f0b4:	48 89 05 4d d1 00 00 	mov    %rax,0xd14d(%rip)        # 1c208 <g_261>
    f0bb:	48 8b 05 46 d1 00 00 	mov    0xd146(%rip),%rax        # 1c208 <g_261>
    f0c2:	48 89 c2             	mov    %rax,%rdx
    f0c5:	83 bd ac f3 ff ff 00 	cmpl   $0x0,-0xc54(%rbp)
    f0cc:	75 12                	jne    f0e0 <func_60+0x2713>
    f0ce:	48 8b 05 2b d1 00 00 	mov    0xd12b(%rip),%rax        # 1c200 <g_220+0x10>
    f0d5:	48 c1 e8 09          	shr    $0x9,%rax
    f0d9:	83 e0 07             	and    $0x7,%eax
    f0dc:	84 c0                	test   %al,%al
    f0de:	74 07                	je     f0e7 <func_60+0x271a>
    f0e0:	b8 01 00 00 00       	mov    $0x1,%eax
    f0e5:	eb 05                	jmp    f0ec <func_60+0x271f>
    f0e7:	b8 00 00 00 00       	mov    $0x0,%eax
    f0ec:	48 98                	cltq   
    f0ee:	48 89 d6             	mov    %rdx,%rsi
    f0f1:	48 89 c7             	mov    %rax,%rdi
    f0f4:	e8 fe 78 ff ff       	callq  69f7 <safe_div_func_int64_t_s_s>
    f0f9:	f7 d0                	not    %eax
    f0fb:	89 85 10 f4 ff ff    	mov    %eax,-0xbf0(%rbp)
    f101:	8b 85 10 f4 ff ff    	mov    -0xbf0(%rbp),%eax
    f107:	48 63 d0             	movslq %eax,%rdx
    f10a:	8b 05 20 cf 00 00    	mov    0xcf20(%rip),%eax        # 1c030 <g_91>
    f110:	c1 e0 0d             	shl    $0xd,%eax
    f113:	c1 f8 0d             	sar    $0xd,%eax
    f116:	48 98                	cltq   
    f118:	48 89 d6             	mov    %rdx,%rsi
    f11b:	48 89 c7             	mov    %rax,%rdi
    f11e:	e8 8c 7f ff ff       	callq  70af <safe_div_func_uint64_t_u_u>
    f123:	8b 95 a8 f3 ff ff    	mov    -0xc58(%rbp),%edx
    f129:	89 d2                	mov    %edx,%edx
    f12b:	48 21 d0             	and    %rdx,%rax
    f12e:	49 39 c6             	cmp    %rax,%r14
    f131:	0f 97 c0             	seta   %al
    f134:	0f b6 d0             	movzbl %al,%edx
    f137:	48 8b 85 c8 f4 ff ff 	mov    -0xb38(%rbp),%rax
    f13e:	8b 00                	mov    (%rax),%eax
    f140:	21 c2                	and    %eax,%edx
    f142:	48 8b 85 c8 f4 ff ff 	mov    -0xb38(%rbp),%rax
    f149:	89 10                	mov    %edx,(%rax)
    f14b:	48 8d 05 d2 ce 00 00 	lea    0xced2(%rip),%rax        # 1c024 <g_5>
    f152:	48 8b 4d c8          	mov    -0x38(%rbp),%rcx
    f156:	64 48 33 0c 25 28 00 	xor    %fs:0x28,%rcx
    f15d:	00 00 
    f15f:	74 05                	je     f166 <func_60+0x2799>
    f161:	e8 0a 6f ff ff       	callq  6070 <__stack_chk_fail@plt>
    f166:	48 81 c4 38 0c 00 00 	add    $0xc38,%rsp
    f16d:	5b                   	pop    %rbx
    f16e:	41 5c                	pop    %r12
    f170:	41 5d                	pop    %r13
    f172:	41 5e                	pop    %r14
    f174:	41 5f                	pop    %r15
    f176:	5d                   	pop    %rbp
    f177:	c3                   	retq   

000000000000f178 <main>:
    f178:	f3 0f 1e fa          	endbr64 
    f17c:	55                   	push   %rbp
    f17d:	48 89 e5             	mov    %rsp,%rbp
    f180:	48 83 ec 50          	sub    $0x50,%rsp
    f184:	89 7d dc             	mov    %edi,-0x24(%rbp)
    f187:	48 89 75 d0          	mov    %rsi,-0x30(%rbp)
    f18b:	64 48 8b 04 25 28 00 	mov    %fs:0x28,%rax
    f192:	00 00 
    f194:	48 89 45 f8          	mov    %rax,-0x8(%rbp)
    f198:	31 c0                	xor    %eax,%eax
    f19a:	c7 45 f4 00 00 00 00 	movl   $0x0,-0xc(%rbp)
    f1a1:	83 7d dc 02          	cmpl   $0x2,-0x24(%rbp)
    f1a5:	75 25                	jne    f1cc <main+0x54>
    f1a7:	48 8b 45 d0          	mov    -0x30(%rbp),%rax
    f1ab:	48 83 c0 08          	add    $0x8,%rax
    f1af:	48 8b 00             	mov    (%rax),%rax
    f1b2:	48 8d 35 47 8e 00 00 	lea    0x8e47(%rip),%rsi        # 18000 <g_2382+0xf00>
    f1b9:	48 89 c7             	mov    %rax,%rdi
    f1bc:	e8 cf 6e ff ff       	callq  6090 <strcmp@plt>
    f1c1:	85 c0                	test   %eax,%eax
    f1c3:	75 07                	jne    f1cc <main+0x54>
    f1c5:	c7 45 f4 01 00 00 00 	movl   $0x1,-0xc(%rbp)
    f1cc:	e8 b8 6f ff ff       	callq  6189 <platform_main_begin>
    f1d1:	e8 c2 83 ff ff       	callq  7598 <crc32_gentab>
    f1d6:	48 8d 45 b0          	lea    -0x50(%rbp),%rax
    f1da:	48 89 c7             	mov    %rax,%rdi
    f1dd:	e8 d3 85 ff ff       	callq  77b5 <func_1>
    f1e2:	8b 05 3c ce 00 00    	mov    0xce3c(%rip),%eax        # 1c024 <g_5>
    f1e8:	48 98                	cltq   
    f1ea:	8b 55 f4             	mov    -0xc(%rbp),%edx
    f1ed:	48 8d 35 0e 8e 00 00 	lea    0x8e0e(%rip),%rsi        # 18002 <g_2382+0xf02>
    f1f4:	48 89 c7             	mov    %rax,%rdi
    f1f7:	e8 f7 84 ff ff       	callq  76f3 <transparent_crc>
    f1fc:	8b 05 26 ce 00 00    	mov    0xce26(%rip),%eax        # 1c028 <g_7>
    f202:	48 98                	cltq   
    f204:	8b 55 f4             	mov    -0xc(%rbp),%edx
    f207:	48 8d 35 f8 8d 00 00 	lea    0x8df8(%rip),%rsi        # 18006 <g_2382+0xf06>
    f20e:	48 89 c7             	mov    %rax,%rdi
    f211:	e8 dd 84 ff ff       	callq  76f3 <transparent_crc>
    f216:	0f b6 05 0f ce 00 00 	movzbl 0xce0f(%rip),%eax        # 1c02c <g_63>
    f21d:	48 0f be c0          	movsbq %al,%rax
    f221:	8b 55 f4             	mov    -0xc(%rbp),%edx
    f224:	48 8d 35 df 8d 00 00 	lea    0x8ddf(%rip),%rsi        # 1800a <g_2382+0xf0a>
    f22b:	48 89 c7             	mov    %rax,%rdi
    f22e:	e8 c0 84 ff ff       	callq  76f3 <transparent_crc>
    f233:	0f b6 05 8e 54 01 00 	movzbl 0x1548e(%rip),%eax        # 246c8 <g_79>
    f23a:	0f b6 c0             	movzbl %al,%eax
    f23d:	8b 55 f4             	mov    -0xc(%rbp),%edx
    f240:	48 8d 35 c8 8d 00 00 	lea    0x8dc8(%rip),%rsi        # 1800f <g_2382+0xf0f>
    f247:	48 89 c7             	mov    %rax,%rdi
    f24a:	e8 a4 84 ff ff       	callq  76f3 <transparent_crc>
    f24f:	8b 05 db cd 00 00    	mov    0xcddb(%rip),%eax        # 1c030 <g_91>
    f255:	c1 e0 0d             	shl    $0xd,%eax
    f258:	c1 f8 0d             	sar    $0xd,%eax
    f25b:	48 98                	cltq   
    f25d:	8b 55 f4             	mov    -0xc(%rbp),%edx
    f260:	48 8d 35 ad 8d 00 00 	lea    0x8dad(%rip),%rsi        # 18014 <g_2382+0xf14>
    f267:	48 89 c7             	mov    %rax,%rdi
    f26a:	e8 84 84 ff ff       	callq  76f3 <transparent_crc>
    f26f:	48 8b 05 ba cd 00 00 	mov    0xcdba(%rip),%rax        # 1c030 <g_91>
    f276:	48 c1 e0 11          	shl    $0x11,%rax
    f27a:	48 c1 f8 24          	sar    $0x24,%rax
    f27e:	48 98                	cltq   
    f280:	8b 55 f4             	mov    -0xc(%rbp),%edx
    f283:	48 8d 35 92 8d 00 00 	lea    0x8d92(%rip),%rsi        # 1801c <g_2382+0xf1c>
    f28a:	48 89 c7             	mov    %rax,%rdi
    f28d:	e8 61 84 ff ff       	callq  76f3 <transparent_crc>
    f292:	48 8b 05 9d cd 00 00 	mov    0xcd9d(%rip),%rax        # 1c036 <g_91+0x6>
    f299:	48 89 c1             	mov    %rax,%rcx
    f29c:	8b 45 f4             	mov    -0xc(%rbp),%eax
    f29f:	89 c2                	mov    %eax,%edx
    f2a1:	48 8d 35 7c 8d 00 00 	lea    0x8d7c(%rip),%rsi        # 18024 <g_2382+0xf24>
    f2a8:	48 89 cf             	mov    %rcx,%rdi
    f2ab:	e8 43 84 ff ff       	callq  76f3 <transparent_crc>
    f2b0:	48 8b 05 81 cd 00 00 	mov    0xcd81(%rip),%rax        # 1c038 <g_91+0x8>
    f2b7:	48 c1 e8 30          	shr    $0x30,%rax
    f2bb:	48 89 c2             	mov    %rax,%rdx
    f2be:	48 8b 05 7b cd 00 00 	mov    0xcd7b(%rip),%rax        # 1c040 <g_91+0x10>
    f2c5:	83 e0 3f             	and    $0x3f,%eax
    f2c8:	48 c1 e0 10          	shl    $0x10,%rax
    f2cc:	48 09 d0             	or     %rdx,%rax
    f2cf:	48 c1 e0 2a          	shl    $0x2a,%rax
    f2d3:	48 c1 f8 2a          	sar    $0x2a,%rax
    f2d7:	48 98                	cltq   
    f2d9:	8b 55 f4             	mov    -0xc(%rbp),%edx
    f2dc:	48 8d 35 49 8d 00 00 	lea    0x8d49(%rip),%rsi        # 1802c <g_2382+0xf2c>
    f2e3:	48 89 c7             	mov    %rax,%rdi
    f2e6:	e8 08 84 ff ff       	callq  76f3 <transparent_crc>
    f2eb:	0f b7 05 4e cd 00 00 	movzwl 0xcd4e(%rip),%eax        # 1c040 <g_91+0x10>
    f2f2:	66 c1 e8 06          	shr    $0x6,%ax
    f2f6:	83 e0 07             	and    $0x7,%eax
    f2f9:	0f b6 c0             	movzbl %al,%eax
    f2fc:	8b 55 f4             	mov    -0xc(%rbp),%edx
    f2ff:	48 8d 35 2e 8d 00 00 	lea    0x8d2e(%rip),%rsi        # 18034 <g_2382+0xf34>
    f306:	48 89 c7             	mov    %rax,%rdi
    f309:	e8 e5 83 ff ff       	callq  76f3 <transparent_crc>
    f30e:	48 8b 05 2b cd 00 00 	mov    0xcd2b(%rip),%rax        # 1c040 <g_91+0x10>
    f315:	48 c1 e8 09          	shr    $0x9,%rax
    f319:	83 e0 07             	and    $0x7,%eax
    f31c:	0f b6 c0             	movzbl %al,%eax
    f31f:	8b 55 f4             	mov    -0xc(%rbp),%edx
    f322:	48 8d 35 13 8d 00 00 	lea    0x8d13(%rip),%rsi        # 1803c <g_2382+0xf3c>
    f329:	48 89 c7             	mov    %rax,%rdi
    f32c:	e8 c2 83 ff ff       	callq  76f3 <transparent_crc>
    f331:	0f b7 05 0a cd 00 00 	movzwl 0xcd0a(%rip),%eax        # 1c042 <g_102>
    f338:	0f b7 c0             	movzwl %ax,%eax
    f33b:	8b 55 f4             	mov    -0xc(%rbp),%edx
    f33e:	48 8d 35 ff 8c 00 00 	lea    0x8cff(%rip),%rsi        # 18044 <g_2382+0xf44>
    f345:	48 89 c7             	mov    %rax,%rdi
    f348:	e8 a6 83 ff ff       	callq  76f3 <transparent_crc>
    f34d:	8b 05 f1 cc 00 00    	mov    0xccf1(%rip),%eax        # 1c044 <g_114>
    f353:	89 c1                	mov    %eax,%ecx
    f355:	8b 45 f4             	mov    -0xc(%rbp),%eax
    f358:	89 c2                	mov    %eax,%edx
    f35a:	48 8d 35 e9 8c 00 00 	lea    0x8ce9(%rip),%rsi        # 1804a <g_2382+0xf4a>
    f361:	48 89 cf             	mov    %rcx,%rdi
    f364:	e8 8a 83 ff ff       	callq  76f3 <transparent_crc>
    f369:	c7 45 e8 00 00 00 00 	movl   $0x0,-0x18(%rbp)
    f370:	eb 75                	jmp    f3e7 <main+0x26f>
    f372:	c7 45 ec 00 00 00 00 	movl   $0x0,-0x14(%rbp)
    f379:	eb 62                	jmp    f3dd <main+0x265>
    f37b:	8b 45 ec             	mov    -0x14(%rbp),%eax
    f37e:	48 63 c8             	movslq %eax,%rcx
    f381:	8b 45 e8             	mov    -0x18(%rbp),%eax
    f384:	48 63 d0             	movslq %eax,%rdx
    f387:	48 89 d0             	mov    %rdx,%rax
    f38a:	48 c1 e0 03          	shl    $0x3,%rax
    f38e:	48 01 d0             	add    %rdx,%rax
    f391:	48 01 c8             	add    %rcx,%rax
    f394:	48 8d 14 85 00 00 00 	lea    0x0(,%rax,4),%rdx
    f39b:	00 
    f39c:	48 8d 05 bd cc 00 00 	lea    0xccbd(%rip),%rax        # 1c060 <g_142>
    f3a3:	8b 04 02             	mov    (%rdx,%rax,1),%eax
    f3a6:	48 98                	cltq   
    f3a8:	8b 55 f4             	mov    -0xc(%rbp),%edx
    f3ab:	48 8d 35 9e 8c 00 00 	lea    0x8c9e(%rip),%rsi        # 18050 <g_2382+0xf50>
    f3b2:	48 89 c7             	mov    %rax,%rdi
    f3b5:	e8 39 83 ff ff       	callq  76f3 <transparent_crc>
    f3ba:	83 7d f4 00          	cmpl   $0x0,-0xc(%rbp)
    f3be:	74 19                	je     f3d9 <main+0x261>
    f3c0:	8b 55 ec             	mov    -0x14(%rbp),%edx
    f3c3:	8b 45 e8             	mov    -0x18(%rbp),%eax
    f3c6:	89 c6                	mov    %eax,%esi
    f3c8:	48 8d 3d 8d 8c 00 00 	lea    0x8c8d(%rip),%rdi        # 1805c <g_2382+0xf5c>
    f3cf:	b8 00 00 00 00       	mov    $0x0,%eax
    f3d4:	e8 a7 6c ff ff       	callq  6080 <printf@plt>
    f3d9:	83 45 ec 01          	addl   $0x1,-0x14(%rbp)
    f3dd:	83 7d ec 08          	cmpl   $0x8,-0x14(%rbp)
    f3e1:	7e 98                	jle    f37b <main+0x203>
    f3e3:	83 45 e8 01          	addl   $0x1,-0x18(%rbp)
    f3e7:	83 7d e8 05          	cmpl   $0x5,-0x18(%rbp)
    f3eb:	7e 85                	jle    f372 <main+0x1fa>
    f3ed:	48 8b 05 44 cd 00 00 	mov    0xcd44(%rip),%rax        # 1c138 <g_146>
    f3f4:	25 ff ff ff 1f       	and    $0x1fffffff,%eax
    f3f9:	89 c1                	mov    %eax,%ecx
    f3fb:	8b 45 f4             	mov    -0xc(%rbp),%eax
    f3fe:	89 c2                	mov    %eax,%edx
    f400:	48 8d 35 67 8c 00 00 	lea    0x8c67(%rip),%rsi        # 1806e <g_2382+0xf6e>
    f407:	48 89 cf             	mov    %rcx,%rdi
    f40a:	e8 e4 82 ff ff       	callq  76f3 <transparent_crc>
    f40f:	48 8b 05 22 cd 00 00 	mov    0xcd22(%rip),%rax        # 1c138 <g_146>
    f416:	48 c1 e0 16          	shl    $0x16,%rax
    f41a:	48 c1 f8 36          	sar    $0x36,%rax
    f41e:	48 0f bf c0          	movswq %ax,%rax
    f422:	8b 55 f4             	mov    -0xc(%rbp),%edx
    f425:	48 8d 35 4b 8c 00 00 	lea    0x8c4b(%rip),%rsi        # 18077 <g_2382+0xf77>
    f42c:	48 89 c7             	mov    %rax,%rdi
    f42f:	e8 bf 82 ff ff       	callq  76f3 <transparent_crc>
    f434:	48 8b 05 fd cc 00 00 	mov    0xccfd(%rip),%rax        # 1c138 <g_146>
    f43b:	48 c1 e8 2a          	shr    $0x2a,%rax
    f43f:	66 25 ff 3f          	and    $0x3fff,%ax
    f443:	0f b7 c0             	movzwl %ax,%eax
    f446:	8b 55 f4             	mov    -0xc(%rbp),%edx
    f449:	48 8d 35 30 8c 00 00 	lea    0x8c30(%rip),%rsi        # 18080 <g_2382+0xf80>
    f450:	48 89 c7             	mov    %rax,%rdi
    f453:	e8 9b 82 ff ff       	callq  76f3 <transparent_crc>
    f458:	0f b7 05 e1 cc 00 00 	movzwl 0xcce1(%rip),%eax        # 1c140 <g_146+0x8>
    f45f:	0f b7 c0             	movzwl %ax,%eax
    f462:	8b 55 f4             	mov    -0xc(%rbp),%edx
    f465:	48 8d 35 1d 8c 00 00 	lea    0x8c1d(%rip),%rsi        # 18089 <g_2382+0xf89>
    f46c:	48 89 c7             	mov    %rax,%rdi
    f46f:	e8 7f 82 ff ff       	callq  76f3 <transparent_crc>
    f474:	48 8b 05 c5 cc 00 00 	mov    0xccc5(%rip),%rax        # 1c140 <g_146+0x8>
    f47b:	48 c1 e8 10          	shr    $0x10,%rax
    f47f:	66 25 ff 03          	and    $0x3ff,%ax
    f483:	0f b7 c0             	movzwl %ax,%eax
    f486:	8b 55 f4             	mov    -0xc(%rbp),%edx
    f489:	48 8d 35 02 8c 00 00 	lea    0x8c02(%rip),%rsi        # 18092 <g_2382+0xf92>
    f490:	48 89 c7             	mov    %rax,%rdi
    f493:	e8 5b 82 ff ff       	callq  76f3 <transparent_crc>
    f498:	48 8b 05 a9 cc 00 00 	mov    0xcca9(%rip),%rax        # 1c148 <g_173>
    f49f:	48 89 c1             	mov    %rax,%rcx
    f4a2:	8b 45 f4             	mov    -0xc(%rbp),%eax
    f4a5:	89 c2                	mov    %eax,%edx
    f4a7:	48 8d 35 ed 8b 00 00 	lea    0x8bed(%rip),%rsi        # 1809b <g_2382+0xf9b>
    f4ae:	48 89 cf             	mov    %rcx,%rdi
    f4b1:	e8 3d 82 ff ff       	callq  76f3 <transparent_crc>
    f4b6:	48 8b 05 93 cc 00 00 	mov    0xcc93(%rip),%rax        # 1c150 <g_179>
    f4bd:	c1 e0 0d             	shl    $0xd,%eax
    f4c0:	c1 f8 0d             	sar    $0xd,%eax
    f4c3:	48 98                	cltq   
    f4c5:	8b 55 f4             	mov    -0xc(%rbp),%edx
    f4c8:	48 8d 35 d2 8b 00 00 	lea    0x8bd2(%rip),%rsi        # 180a1 <g_2382+0xfa1>
    f4cf:	48 89 c7             	mov    %rax,%rdi
    f4d2:	e8 1c 82 ff ff       	callq  76f3 <transparent_crc>
    f4d7:	48 8b 05 72 cc 00 00 	mov    0xcc72(%rip),%rax        # 1c150 <g_179>
    f4de:	48 c1 e0 11          	shl    $0x11,%rax
    f4e2:	48 c1 f8 24          	sar    $0x24,%rax
    f4e6:	48 98                	cltq   
    f4e8:	8b 55 f4             	mov    -0xc(%rbp),%edx
    f4eb:	48 8d 35 b8 8b 00 00 	lea    0x8bb8(%rip),%rsi        # 180aa <g_2382+0xfaa>
    f4f2:	48 89 c7             	mov    %rax,%rdi
    f4f5:	e8 f9 81 ff ff       	callq  76f3 <transparent_crc>
    f4fa:	48 8b 05 55 cc 00 00 	mov    0xcc55(%rip),%rax        # 1c156 <g_179+0x6>
    f501:	48 89 c1             	mov    %rax,%rcx
    f504:	8b 45 f4             	mov    -0xc(%rbp),%eax
    f507:	89 c2                	mov    %eax,%edx
    f509:	48 8d 35 a3 8b 00 00 	lea    0x8ba3(%rip),%rsi        # 180b3 <g_2382+0xfb3>
    f510:	48 89 cf             	mov    %rcx,%rdi
    f513:	e8 db 81 ff ff       	callq  76f3 <transparent_crc>
    f518:	48 8b 05 39 cc 00 00 	mov    0xcc39(%rip),%rax        # 1c158 <g_179+0x8>
    f51f:	48 c1 e8 30          	shr    $0x30,%rax
    f523:	48 89 c2             	mov    %rax,%rdx
    f526:	48 8b 05 33 cc 00 00 	mov    0xcc33(%rip),%rax        # 1c160 <g_179+0x10>
    f52d:	83 e0 3f             	and    $0x3f,%eax
    f530:	48 c1 e0 10          	shl    $0x10,%rax
    f534:	48 09 d0             	or     %rdx,%rax
    f537:	48 c1 e0 2a          	shl    $0x2a,%rax
    f53b:	48 c1 f8 2a          	sar    $0x2a,%rax
    f53f:	48 98                	cltq   
    f541:	8b 55 f4             	mov    -0xc(%rbp),%edx
    f544:	48 8d 35 71 8b 00 00 	lea    0x8b71(%rip),%rsi        # 180bc <g_2382+0xfbc>
    f54b:	48 89 c7             	mov    %rax,%rdi
    f54e:	e8 a0 81 ff ff       	callq  76f3 <transparent_crc>
    f553:	48 8b 05 06 cc 00 00 	mov    0xcc06(%rip),%rax        # 1c160 <g_179+0x10>
    f55a:	48 c1 e8 06          	shr    $0x6,%rax
    f55e:	83 e0 07             	and    $0x7,%eax
    f561:	0f b6 c0             	movzbl %al,%eax
    f564:	8b 55 f4             	mov    -0xc(%rbp),%edx
    f567:	48 8d 35 57 8b 00 00 	lea    0x8b57(%rip),%rsi        # 180c5 <g_2382+0xfc5>
    f56e:	48 89 c7             	mov    %rax,%rdi
    f571:	e8 7d 81 ff ff       	callq  76f3 <transparent_crc>
    f576:	48 8b 05 e3 cb 00 00 	mov    0xcbe3(%rip),%rax        # 1c160 <g_179+0x10>
    f57d:	48 c1 e8 09          	shr    $0x9,%rax
    f581:	83 e0 07             	and    $0x7,%eax
    f584:	0f b6 c0             	movzbl %al,%eax
    f587:	8b 55 f4             	mov    -0xc(%rbp),%edx
    f58a:	48 8d 35 3d 8b 00 00 	lea    0x8b3d(%rip),%rsi        # 180ce <g_2382+0xfce>
    f591:	48 89 c7             	mov    %rax,%rdi
    f594:	e8 5a 81 ff ff       	callq  76f3 <transparent_crc>
    f599:	48 8b 05 e0 cb 00 00 	mov    0xcbe0(%rip),%rax        # 1c180 <g_182>
    f5a0:	8b 55 f4             	mov    -0xc(%rbp),%edx
    f5a3:	48 8d 35 2d 8b 00 00 	lea    0x8b2d(%rip),%rsi        # 180d7 <g_2382+0xfd7>
    f5aa:	48 89 c7             	mov    %rax,%rdi
    f5ad:	e8 41 81 ff ff       	callq  76f3 <transparent_crc>
    f5b2:	0f b6 05 cf cb 00 00 	movzbl 0xcbcf(%rip),%eax        # 1c188 <g_182+0x8>
    f5b9:	0f b6 c0             	movzbl %al,%eax
    f5bc:	8b 55 f4             	mov    -0xc(%rbp),%edx
    f5bf:	48 8d 35 1a 8b 00 00 	lea    0x8b1a(%rip),%rsi        # 180e0 <g_2382+0xfe0>
    f5c6:	48 89 c7             	mov    %rax,%rdi
    f5c9:	e8 25 81 ff ff       	callq  76f3 <transparent_crc>
    f5ce:	0f b7 05 b5 cb 00 00 	movzwl 0xcbb5(%rip),%eax        # 1c18a <g_182+0xa>
    f5d5:	0f b7 c0             	movzwl %ax,%eax
    f5d8:	8b 55 f4             	mov    -0xc(%rbp),%edx
    f5db:	48 8d 35 07 8b 00 00 	lea    0x8b07(%rip),%rsi        # 180e9 <g_2382+0xfe9>
    f5e2:	48 89 c7             	mov    %rax,%rdi
    f5e5:	e8 09 81 ff ff       	callq  76f3 <transparent_crc>
    f5ea:	0f b6 05 9b cb 00 00 	movzbl 0xcb9b(%rip),%eax        # 1c18c <g_182+0xc>
    f5f1:	48 0f be c0          	movsbq %al,%rax
    f5f5:	8b 55 f4             	mov    -0xc(%rbp),%edx
    f5f8:	48 8d 35 f3 8a 00 00 	lea    0x8af3(%rip),%rsi        # 180f2 <g_2382+0xff2>
    f5ff:	48 89 c7             	mov    %rax,%rdi
    f602:	e8 ec 80 ff ff       	callq  76f3 <transparent_crc>
    f607:	48 8b 05 7a cb 00 00 	mov    0xcb7a(%rip),%rax        # 1c188 <g_182+0x8>
    f60e:	48 c1 e8 28          	shr    $0x28,%rax
    f612:	83 e0 1f             	and    $0x1f,%eax
    f615:	0f b6 c0             	movzbl %al,%eax
    f618:	8b 55 f4             	mov    -0xc(%rbp),%edx
    f61b:	48 8d 35 d9 8a 00 00 	lea    0x8ad9(%rip),%rsi        # 180fb <g_2382+0xffb>
    f622:	48 89 c7             	mov    %rax,%rdi
    f625:	e8 c9 80 ff ff       	callq  76f3 <transparent_crc>
    f62a:	48 8b 05 57 cb 00 00 	mov    0xcb57(%rip),%rax        # 1c188 <g_182+0x8>
    f631:	48 c1 e8 2d          	shr    $0x2d,%rax
    f635:	66 25 ff 0f          	and    $0xfff,%ax
    f639:	0f b7 c0             	movzwl %ax,%eax
    f63c:	8b 55 f4             	mov    -0xc(%rbp),%edx
    f63f:	48 8d 35 be 8a 00 00 	lea    0x8abe(%rip),%rsi        # 18104 <g_2382+0x1004>
    f646:	48 89 c7             	mov    %rax,%rdi
    f649:	e8 a5 80 ff ff       	callq  76f3 <transparent_crc>
    f64e:	8b 05 3c cb 00 00    	mov    0xcb3c(%rip),%eax        # 1c190 <g_182+0x10>
    f654:	48 98                	cltq   
    f656:	8b 55 f4             	mov    -0xc(%rbp),%edx
    f659:	48 8d 35 ad 8a 00 00 	lea    0x8aad(%rip),%rsi        # 1810d <g_2382+0x100d>
    f660:	48 89 c7             	mov    %rax,%rdi
    f663:	e8 8b 80 ff ff       	callq  76f3 <transparent_crc>
    f668:	8b 05 26 cb 00 00    	mov    0xcb26(%rip),%eax        # 1c194 <g_182+0x14>
    f66e:	89 c1                	mov    %eax,%ecx
    f670:	8b 45 f4             	mov    -0xc(%rbp),%eax
    f673:	89 c2                	mov    %eax,%edx
    f675:	48 8d 35 9a 8a 00 00 	lea    0x8a9a(%rip),%rsi        # 18116 <g_2382+0x1016>
    f67c:	48 89 cf             	mov    %rcx,%rdi
    f67f:	e8 6f 80 ff ff       	callq  76f3 <transparent_crc>
    f684:	8b 05 0e cb 00 00    	mov    0xcb0e(%rip),%eax        # 1c198 <g_182+0x18>
    f68a:	89 c1                	mov    %eax,%ecx
    f68c:	8b 45 f4             	mov    -0xc(%rbp),%eax
    f68f:	89 c2                	mov    %eax,%edx
    f691:	48 8d 35 87 8a 00 00 	lea    0x8a87(%rip),%rsi        # 1811f <g_2382+0x101f>
    f698:	48 89 cf             	mov    %rcx,%rdi
    f69b:	e8 53 80 ff ff       	callq  76f3 <transparent_crc>
    f6a0:	48 8b 05 f9 ca 00 00 	mov    0xcaf9(%rip),%rax        # 1c1a0 <g_182+0x20>
    f6a7:	8b 55 f4             	mov    -0xc(%rbp),%edx
    f6aa:	48 8d 35 77 8a 00 00 	lea    0x8a77(%rip),%rsi        # 18128 <g_2382+0x1028>
    f6b1:	48 89 c7             	mov    %rax,%rdi
    f6b4:	e8 3a 80 ff ff       	callq  76f3 <transparent_crc>
    f6b9:	c7 45 e8 00 00 00 00 	movl   $0x0,-0x18(%rbp)
    f6c0:	eb 6c                	jmp    f72e <main+0x5b6>
    f6c2:	c7 45 ec 00 00 00 00 	movl   $0x0,-0x14(%rbp)
    f6c9:	eb 59                	jmp    f724 <main+0x5ac>
    f6cb:	8b 45 ec             	mov    -0x14(%rbp),%eax
    f6ce:	48 98                	cltq   
    f6d0:	8b 55 e8             	mov    -0x18(%rbp),%edx
    f6d3:	48 63 d2             	movslq %edx,%rdx
    f6d6:	48 01 d2             	add    %rdx,%rdx
    f6d9:	48 01 d0             	add    %rdx,%rax
    f6dc:	48 8d 14 00          	lea    (%rax,%rax,1),%rdx
    f6e0:	48 8d 05 c9 ca 00 00 	lea    0xcac9(%rip),%rax        # 1c1b0 <g_218>
    f6e7:	0f b7 04 02          	movzwl (%rdx,%rax,1),%eax
    f6eb:	48 0f bf c0          	movswq %ax,%rax
    f6ef:	8b 55 f4             	mov    -0xc(%rbp),%edx
    f6f2:	48 8d 35 38 8a 00 00 	lea    0x8a38(%rip),%rsi        # 18131 <g_2382+0x1031>
    f6f9:	48 89 c7             	mov    %rax,%rdi
    f6fc:	e8 f2 7f ff ff       	callq  76f3 <transparent_crc>
    f701:	83 7d f4 00          	cmpl   $0x0,-0xc(%rbp)
    f705:	74 19                	je     f720 <main+0x5a8>
    f707:	8b 55 ec             	mov    -0x14(%rbp),%edx
    f70a:	8b 45 e8             	mov    -0x18(%rbp),%eax
    f70d:	89 c6                	mov    %eax,%esi
    f70f:	48 8d 3d 46 89 00 00 	lea    0x8946(%rip),%rdi        # 1805c <g_2382+0xf5c>
    f716:	b8 00 00 00 00       	mov    $0x0,%eax
    f71b:	e8 60 69 ff ff       	callq  6080 <printf@plt>
    f720:	83 45 ec 01          	addl   $0x1,-0x14(%rbp)
    f724:	83 7d ec 01          	cmpl   $0x1,-0x14(%rbp)
    f728:	7e a1                	jle    f6cb <main+0x553>
    f72a:	83 45 e8 01          	addl   $0x1,-0x18(%rbp)
    f72e:	83 7d e8 05          	cmpl   $0x5,-0x18(%rbp)
    f732:	7e 8e                	jle    f6c2 <main+0x54a>
    f734:	48 8b 05 95 ca 00 00 	mov    0xca95(%rip),%rax        # 1c1d0 <g_219>
    f73b:	c1 e0 0d             	shl    $0xd,%eax
    f73e:	c1 f8 0d             	sar    $0xd,%eax
    f741:	48 98                	cltq   
    f743:	8b 55 f4             	mov    -0xc(%rbp),%edx
    f746:	48 8d 35 f0 89 00 00 	lea    0x89f0(%rip),%rsi        # 1813d <g_2382+0x103d>
    f74d:	48 89 c7             	mov    %rax,%rdi
    f750:	e8 9e 7f ff ff       	callq  76f3 <transparent_crc>
    f755:	48 8b 05 74 ca 00 00 	mov    0xca74(%rip),%rax        # 1c1d0 <g_219>
    f75c:	48 c1 e0 11          	shl    $0x11,%rax
    f760:	48 c1 f8 24          	sar    $0x24,%rax
    f764:	48 98                	cltq   
    f766:	8b 55 f4             	mov    -0xc(%rbp),%edx
    f769:	48 8d 35 d6 89 00 00 	lea    0x89d6(%rip),%rsi        # 18146 <g_2382+0x1046>
    f770:	48 89 c7             	mov    %rax,%rdi
    f773:	e8 7b 7f ff ff       	callq  76f3 <transparent_crc>
    f778:	48 8b 05 57 ca 00 00 	mov    0xca57(%rip),%rax        # 1c1d6 <g_219+0x6>
    f77f:	48 89 c1             	mov    %rax,%rcx
    f782:	8b 45 f4             	mov    -0xc(%rbp),%eax
    f785:	89 c2                	mov    %eax,%edx
    f787:	48 8d 35 c1 89 00 00 	lea    0x89c1(%rip),%rsi        # 1814f <g_2382+0x104f>
    f78e:	48 89 cf             	mov    %rcx,%rdi
    f791:	e8 5d 7f ff ff       	callq  76f3 <transparent_crc>
    f796:	48 8b 05 3b ca 00 00 	mov    0xca3b(%rip),%rax        # 1c1d8 <g_219+0x8>
    f79d:	48 c1 e8 30          	shr    $0x30,%rax
    f7a1:	48 89 c2             	mov    %rax,%rdx
    f7a4:	48 8b 05 35 ca 00 00 	mov    0xca35(%rip),%rax        # 1c1e0 <g_219+0x10>
    f7ab:	83 e0 3f             	and    $0x3f,%eax
    f7ae:	48 c1 e0 10          	shl    $0x10,%rax
    f7b2:	48 09 d0             	or     %rdx,%rax
    f7b5:	48 c1 e0 2a          	shl    $0x2a,%rax
    f7b9:	48 c1 f8 2a          	sar    $0x2a,%rax
    f7bd:	48 98                	cltq   
    f7bf:	8b 55 f4             	mov    -0xc(%rbp),%edx
    f7c2:	48 8d 35 8f 89 00 00 	lea    0x898f(%rip),%rsi        # 18158 <g_2382+0x1058>
    f7c9:	48 89 c7             	mov    %rax,%rdi
    f7cc:	e8 22 7f ff ff       	callq  76f3 <transparent_crc>
    f7d1:	48 8b 05 08 ca 00 00 	mov    0xca08(%rip),%rax        # 1c1e0 <g_219+0x10>
    f7d8:	48 c1 e8 06          	shr    $0x6,%rax
    f7dc:	83 e0 07             	and    $0x7,%eax
    f7df:	0f b6 c0             	movzbl %al,%eax
    f7e2:	8b 55 f4             	mov    -0xc(%rbp),%edx
    f7e5:	48 8d 35 75 89 00 00 	lea    0x8975(%rip),%rsi        # 18161 <g_2382+0x1061>
    f7ec:	48 89 c7             	mov    %rax,%rdi
    f7ef:	e8 ff 7e ff ff       	callq  76f3 <transparent_crc>
    f7f4:	48 8b 05 e5 c9 00 00 	mov    0xc9e5(%rip),%rax        # 1c1e0 <g_219+0x10>
    f7fb:	48 c1 e8 09          	shr    $0x9,%rax
    f7ff:	83 e0 07             	and    $0x7,%eax
    f802:	0f b6 c0             	movzbl %al,%eax
    f805:	8b 55 f4             	mov    -0xc(%rbp),%edx
    f808:	48 8d 35 5b 89 00 00 	lea    0x895b(%rip),%rsi        # 1816a <g_2382+0x106a>
    f80f:	48 89 c7             	mov    %rax,%rdi
    f812:	e8 dc 7e ff ff       	callq  76f3 <transparent_crc>
    f817:	48 8b 05 d2 c9 00 00 	mov    0xc9d2(%rip),%rax        # 1c1f0 <g_220>
    f81e:	c1 e0 0d             	shl    $0xd,%eax
    f821:	c1 f8 0d             	sar    $0xd,%eax
    f824:	48 98                	cltq   
    f826:	8b 55 f4             	mov    -0xc(%rbp),%edx
    f829:	48 8d 35 43 89 00 00 	lea    0x8943(%rip),%rsi        # 18173 <g_2382+0x1073>
    f830:	48 89 c7             	mov    %rax,%rdi
    f833:	e8 bb 7e ff ff       	callq  76f3 <transparent_crc>
    f838:	48 8b 05 b1 c9 00 00 	mov    0xc9b1(%rip),%rax        # 1c1f0 <g_220>
    f83f:	48 c1 e0 11          	shl    $0x11,%rax
    f843:	48 c1 f8 24          	sar    $0x24,%rax
    f847:	48 98                	cltq   
    f849:	8b 55 f4             	mov    -0xc(%rbp),%edx
    f84c:	48 8d 35 29 89 00 00 	lea    0x8929(%rip),%rsi        # 1817c <g_2382+0x107c>
    f853:	48 89 c7             	mov    %rax,%rdi
    f856:	e8 98 7e ff ff       	callq  76f3 <transparent_crc>
    f85b:	48 8b 05 94 c9 00 00 	mov    0xc994(%rip),%rax        # 1c1f6 <g_220+0x6>
    f862:	48 89 c1             	mov    %rax,%rcx
    f865:	8b 45 f4             	mov    -0xc(%rbp),%eax
    f868:	89 c2                	mov    %eax,%edx
    f86a:	48 8d 35 14 89 00 00 	lea    0x8914(%rip),%rsi        # 18185 <g_2382+0x1085>
    f871:	48 89 cf             	mov    %rcx,%rdi
    f874:	e8 7a 7e ff ff       	callq  76f3 <transparent_crc>
    f879:	48 8b 05 78 c9 00 00 	mov    0xc978(%rip),%rax        # 1c1f8 <g_220+0x8>
    f880:	48 c1 e8 30          	shr    $0x30,%rax
    f884:	48 89 c2             	mov    %rax,%rdx
    f887:	48 8b 05 72 c9 00 00 	mov    0xc972(%rip),%rax        # 1c200 <g_220+0x10>
    f88e:	83 e0 3f             	and    $0x3f,%eax
    f891:	48 c1 e0 10          	shl    $0x10,%rax
    f895:	48 09 d0             	or     %rdx,%rax
    f898:	48 c1 e0 2a          	shl    $0x2a,%rax
    f89c:	48 c1 f8 2a          	sar    $0x2a,%rax
    f8a0:	48 98                	cltq   
    f8a2:	8b 55 f4             	mov    -0xc(%rbp),%edx
    f8a5:	48 8d 35 e2 88 00 00 	lea    0x88e2(%rip),%rsi        # 1818e <g_2382+0x108e>
    f8ac:	48 89 c7             	mov    %rax,%rdi
    f8af:	e8 3f 7e ff ff       	callq  76f3 <transparent_crc>
    f8b4:	48 8b 05 45 c9 00 00 	mov    0xc945(%rip),%rax        # 1c200 <g_220+0x10>
    f8bb:	48 c1 e8 06          	shr    $0x6,%rax
    f8bf:	83 e0 07             	and    $0x7,%eax
    f8c2:	0f b6 c0             	movzbl %al,%eax
    f8c5:	8b 55 f4             	mov    -0xc(%rbp),%edx
    f8c8:	48 8d 35 c8 88 00 00 	lea    0x88c8(%rip),%rsi        # 18197 <g_2382+0x1097>
    f8cf:	48 89 c7             	mov    %rax,%rdi
    f8d2:	e8 1c 7e ff ff       	callq  76f3 <transparent_crc>
    f8d7:	48 8b 05 22 c9 00 00 	mov    0xc922(%rip),%rax        # 1c200 <g_220+0x10>
    f8de:	48 c1 e8 09          	shr    $0x9,%rax
    f8e2:	83 e0 07             	and    $0x7,%eax
    f8e5:	0f b6 c0             	movzbl %al,%eax
    f8e8:	8b 55 f4             	mov    -0xc(%rbp),%edx
    f8eb:	48 8d 35 ae 88 00 00 	lea    0x88ae(%rip),%rsi        # 181a0 <g_2382+0x10a0>
    f8f2:	48 89 c7             	mov    %rax,%rdi
    f8f5:	e8 f9 7d ff ff       	callq  76f3 <transparent_crc>
    f8fa:	48 8b 05 07 c9 00 00 	mov    0xc907(%rip),%rax        # 1c208 <g_261>
    f901:	8b 55 f4             	mov    -0xc(%rbp),%edx
    f904:	48 8d 35 9e 88 00 00 	lea    0x889e(%rip),%rsi        # 181a9 <g_2382+0x10a9>
    f90b:	48 89 c7             	mov    %rax,%rdi
    f90e:	e8 e0 7d ff ff       	callq  76f3 <transparent_crc>
    f913:	c7 45 e8 00 00 00 00 	movl   $0x0,-0x18(%rbp)
    f91a:	e9 cb 01 00 00       	jmpq   faea <main+0x972>
    f91f:	8b 45 e8             	mov    -0x18(%rbp),%eax
    f922:	48 63 d0             	movslq %eax,%rdx
    f925:	48 89 d0             	mov    %rdx,%rax
    f928:	48 c1 e0 03          	shl    $0x3,%rax
    f92c:	48 01 d0             	add    %rdx,%rax
    f92f:	48 01 c0             	add    %rax,%rax
    f932:	48 89 c2             	mov    %rax,%rdx
    f935:	48 8d 05 e4 c8 00 00 	lea    0xc8e4(%rip),%rax        # 1c220 <g_277>
    f93c:	0f b7 0c 02          	movzwl (%rdx,%rax,1),%ecx
    f940:	0f b6 44 02 02       	movzbl 0x2(%rdx,%rax,1),%eax
    f945:	83 e0 07             	and    $0x7,%eax
    f948:	48 c1 e0 10          	shl    $0x10,%rax
    f94c:	48 09 c8             	or     %rcx,%rax
    f94f:	48 c1 e0 2d          	shl    $0x2d,%rax
    f953:	48 c1 f8 2d          	sar    $0x2d,%rax
    f957:	48 98                	cltq   
    f959:	8b 55 f4             	mov    -0xc(%rbp),%edx
    f95c:	48 8d 35 4c 88 00 00 	lea    0x884c(%rip),%rsi        # 181af <g_2382+0x10af>
    f963:	48 89 c7             	mov    %rax,%rdi
    f966:	e8 88 7d ff ff       	callq  76f3 <transparent_crc>
    f96b:	8b 45 e8             	mov    -0x18(%rbp),%eax
    f96e:	48 63 d0             	movslq %eax,%rdx
    f971:	48 89 d0             	mov    %rdx,%rax
    f974:	48 c1 e0 03          	shl    $0x3,%rax
    f978:	48 01 d0             	add    %rdx,%rax
    f97b:	48 01 c0             	add    %rax,%rax
    f97e:	48 89 c2             	mov    %rax,%rdx
    f981:	48 8d 05 98 c8 00 00 	lea    0xc898(%rip),%rax        # 1c220 <g_277>
    f988:	0f b7 4c 02 02       	movzwl 0x2(%rdx,%rax,1),%ecx
    f98d:	66 c1 e9 03          	shr    $0x3,%cx
    f991:	0f b7 c9             	movzwl %cx,%ecx
    f994:	0f b7 44 02 04       	movzwl 0x4(%rdx,%rax,1),%eax
    f999:	0f b7 c0             	movzwl %ax,%eax
    f99c:	25 ff 7f 00 00       	and    $0x7fff,%eax
    f9a1:	48 c1 e0 0d          	shl    $0xd,%rax
    f9a5:	48 09 c8             	or     %rcx,%rax
    f9a8:	48 c1 e0 24          	shl    $0x24,%rax
    f9ac:	48 c1 f8 24          	sar    $0x24,%rax
    f9b0:	48 98                	cltq   
    f9b2:	8b 55 f4             	mov    -0xc(%rbp),%edx
    f9b5:	48 8d 35 ff 87 00 00 	lea    0x87ff(%rip),%rsi        # 181bb <g_2382+0x10bb>
    f9bc:	48 89 c7             	mov    %rax,%rdi
    f9bf:	e8 2f 7d ff ff       	callq  76f3 <transparent_crc>
    f9c4:	8b 45 e8             	mov    -0x18(%rbp),%eax
    f9c7:	48 63 d0             	movslq %eax,%rdx
    f9ca:	48 89 d0             	mov    %rdx,%rax
    f9cd:	48 c1 e0 03          	shl    $0x3,%rax
    f9d1:	48 01 d0             	add    %rdx,%rax
    f9d4:	48 01 c0             	add    %rax,%rax
    f9d7:	48 89 c2             	mov    %rax,%rdx
    f9da:	48 8d 05 3f c8 00 00 	lea    0xc83f(%rip),%rax        # 1c220 <g_277>
    f9e1:	48 8b 44 02 06       	mov    0x6(%rdx,%rax,1),%rax
    f9e6:	48 89 c1             	mov    %rax,%rcx
    f9e9:	8b 45 f4             	mov    -0xc(%rbp),%eax
    f9ec:	89 c2                	mov    %eax,%edx
    f9ee:	48 8d 35 d2 87 00 00 	lea    0x87d2(%rip),%rsi        # 181c7 <g_2382+0x10c7>
    f9f5:	48 89 cf             	mov    %rcx,%rdi
    f9f8:	e8 f6 7c ff ff       	callq  76f3 <transparent_crc>
    f9fd:	8b 45 e8             	mov    -0x18(%rbp),%eax
    fa00:	48 63 d0             	movslq %eax,%rdx
    fa03:	48 89 d0             	mov    %rdx,%rax
    fa06:	48 c1 e0 03          	shl    $0x3,%rax
    fa0a:	48 01 d0             	add    %rdx,%rax
    fa0d:	48 01 c0             	add    %rax,%rax
    fa10:	48 89 c2             	mov    %rax,%rdx
    fa13:	48 8d 05 06 c8 00 00 	lea    0xc806(%rip),%rax        # 1c220 <g_277>
    fa1a:	0f b7 4c 02 0e       	movzwl 0xe(%rdx,%rax,1),%ecx
    fa1f:	0f b7 c9             	movzwl %cx,%ecx
    fa22:	0f b7 44 02 10       	movzwl 0x10(%rdx,%rax,1),%eax
    fa27:	0f b7 c0             	movzwl %ax,%eax
    fa2a:	83 e0 3f             	and    $0x3f,%eax
    fa2d:	48 c1 e0 10          	shl    $0x10,%rax
    fa31:	48 09 c8             	or     %rcx,%rax
    fa34:	48 c1 e0 2a          	shl    $0x2a,%rax
    fa38:	48 c1 f8 2a          	sar    $0x2a,%rax
    fa3c:	48 98                	cltq   
    fa3e:	8b 55 f4             	mov    -0xc(%rbp),%edx
    fa41:	48 8d 35 8b 87 00 00 	lea    0x878b(%rip),%rsi        # 181d3 <g_2382+0x10d3>
    fa48:	48 89 c7             	mov    %rax,%rdi
    fa4b:	e8 a3 7c ff ff       	callq  76f3 <transparent_crc>
    fa50:	8b 45 e8             	mov    -0x18(%rbp),%eax
    fa53:	48 63 d0             	movslq %eax,%rdx
    fa56:	48 89 d0             	mov    %rdx,%rax
    fa59:	48 c1 e0 03          	shl    $0x3,%rax
    fa5d:	48 01 d0             	add    %rdx,%rax
    fa60:	48 01 c0             	add    %rax,%rax
    fa63:	48 89 c2             	mov    %rax,%rdx
    fa66:	48 8d 05 c3 c7 00 00 	lea    0xc7c3(%rip),%rax        # 1c230 <g_277+0x10>
    fa6d:	0f b7 04 02          	movzwl (%rdx,%rax,1),%eax
    fa71:	66 c1 e8 06          	shr    $0x6,%ax
    fa75:	83 e0 07             	and    $0x7,%eax
    fa78:	0f b6 c0             	movzbl %al,%eax
    fa7b:	8b 55 f4             	mov    -0xc(%rbp),%edx
    fa7e:	48 8d 35 5a 87 00 00 	lea    0x875a(%rip),%rsi        # 181df <g_2382+0x10df>
    fa85:	48 89 c7             	mov    %rax,%rdi
    fa88:	e8 66 7c ff ff       	callq  76f3 <transparent_crc>
    fa8d:	8b 45 e8             	mov    -0x18(%rbp),%eax
    fa90:	48 63 d0             	movslq %eax,%rdx
    fa93:	48 89 d0             	mov    %rdx,%rax
    fa96:	48 c1 e0 03          	shl    $0x3,%rax
    fa9a:	48 01 d0             	add    %rdx,%rax
    fa9d:	48 01 c0             	add    %rax,%rax
    faa0:	48 89 c2             	mov    %rax,%rdx
    faa3:	48 8d 05 86 c7 00 00 	lea    0xc786(%rip),%rax        # 1c230 <g_277+0x10>
    faaa:	0f b7 04 02          	movzwl (%rdx,%rax,1),%eax
    faae:	66 c1 e8 09          	shr    $0x9,%ax
    fab2:	83 e0 07             	and    $0x7,%eax
    fab5:	0f b6 c0             	movzbl %al,%eax
    fab8:	8b 55 f4             	mov    -0xc(%rbp),%edx
    fabb:	48 8d 35 29 87 00 00 	lea    0x8729(%rip),%rsi        # 181eb <g_2382+0x10eb>
    fac2:	48 89 c7             	mov    %rax,%rdi
    fac5:	e8 29 7c ff ff       	callq  76f3 <transparent_crc>
    faca:	83 7d f4 00          	cmpl   $0x0,-0xc(%rbp)
    face:	74 16                	je     fae6 <main+0x96e>
    fad0:	8b 45 e8             	mov    -0x18(%rbp),%eax
    fad3:	89 c6                	mov    %eax,%esi
    fad5:	48 8d 3d 1b 87 00 00 	lea    0x871b(%rip),%rdi        # 181f7 <g_2382+0x10f7>
    fadc:	b8 00 00 00 00       	mov    $0x0,%eax
    fae1:	e8 9a 65 ff ff       	callq  6080 <printf@plt>
    fae6:	83 45 e8 01          	addl   $0x1,-0x18(%rbp)
    faea:	83 7d e8 04          	cmpl   $0x4,-0x18(%rbp)
    faee:	0f 8e 2b fe ff ff    	jle    f91f <main+0x7a7>
    faf4:	b8 aa 2b 00 00       	mov    $0x2baa,%eax
    faf9:	89 c1                	mov    %eax,%ecx
    fafb:	8b 45 f4             	mov    -0xc(%rbp),%eax
    fafe:	89 c2                	mov    %eax,%edx
    fb00:	48 8d 35 fe 86 00 00 	lea    0x86fe(%rip),%rsi        # 18205 <g_2382+0x1105>
    fb07:	48 89 cf             	mov    %rcx,%rdi
    fb0a:	e8 e4 7b ff ff       	callq  76f3 <transparent_crc>
    fb0f:	b8 e6 ff ff ff       	mov    $0xffffffe6,%eax
    fb14:	48 0f bf c0          	movswq %ax,%rax
    fb18:	8b 55 f4             	mov    -0xc(%rbp),%edx
    fb1b:	48 8d 35 ec 86 00 00 	lea    0x86ec(%rip),%rsi        # 1820e <g_2382+0x110e>
    fb22:	48 89 c7             	mov    %rax,%rdi
    fb25:	e8 c9 7b ff ff       	callq  76f3 <transparent_crc>
    fb2a:	48 8b 05 27 75 00 00 	mov    0x7527(%rip),%rax        # 17058 <g_278>
    fb31:	48 c1 e8 2a          	shr    $0x2a,%rax
    fb35:	66 25 ff 3f          	and    $0x3fff,%ax
    fb39:	0f b7 c0             	movzwl %ax,%eax
    fb3c:	8b 55 f4             	mov    -0xc(%rbp),%edx
    fb3f:	48 8d 35 d1 86 00 00 	lea    0x86d1(%rip),%rsi        # 18217 <g_2382+0x1117>
    fb46:	48 89 c7             	mov    %rax,%rdi
    fb49:	e8 a5 7b ff ff       	callq  76f3 <transparent_crc>
    fb4e:	b8 e9 50 00 00       	mov    $0x50e9,%eax
    fb53:	0f b7 c0             	movzwl %ax,%eax
    fb56:	8b 55 f4             	mov    -0xc(%rbp),%edx
    fb59:	48 8d 35 c0 86 00 00 	lea    0x86c0(%rip),%rsi        # 18220 <g_2382+0x1120>
    fb60:	48 89 c7             	mov    %rax,%rdi
    fb63:	e8 8b 7b ff ff       	callq  76f3 <transparent_crc>
    fb68:	b8 0b 00 00 00       	mov    $0xb,%eax
    fb6d:	0f b7 c0             	movzwl %ax,%eax
    fb70:	8b 55 f4             	mov    -0xc(%rbp),%edx
    fb73:	48 8d 35 af 86 00 00 	lea    0x86af(%rip),%rsi        # 18229 <g_2382+0x1129>
    fb7a:	48 89 c7             	mov    %rax,%rdi
    fb7d:	e8 71 7b ff ff       	callq  76f3 <transparent_crc>
    fb82:	c7 45 e8 00 00 00 00 	movl   $0x0,-0x18(%rbp)
    fb89:	e9 50 02 00 00       	jmpq   fdde <main+0xc66>
    fb8e:	8b 45 e8             	mov    -0x18(%rbp),%eax
    fb91:	48 63 d0             	movslq %eax,%rdx
    fb94:	48 89 d0             	mov    %rdx,%rax
    fb97:	48 c1 e0 02          	shl    $0x2,%rax
    fb9b:	48 01 d0             	add    %rdx,%rax
    fb9e:	48 c1 e0 03          	shl    $0x3,%rax
    fba2:	48 89 c2             	mov    %rax,%rdx
    fba5:	48 8d 05 d4 c6 00 00 	lea    0xc6d4(%rip),%rax        # 1c280 <g_300>
    fbac:	48 8b 04 02          	mov    (%rdx,%rax,1),%rax
    fbb0:	8b 55 f4             	mov    -0xc(%rbp),%edx
    fbb3:	48 8d 35 78 86 00 00 	lea    0x8678(%rip),%rsi        # 18232 <g_2382+0x1132>
    fbba:	48 89 c7             	mov    %rax,%rdi
    fbbd:	e8 31 7b ff ff       	callq  76f3 <transparent_crc>
    fbc2:	8b 45 e8             	mov    -0x18(%rbp),%eax
    fbc5:	48 63 d0             	movslq %eax,%rdx
    fbc8:	48 89 d0             	mov    %rdx,%rax
    fbcb:	48 c1 e0 02          	shl    $0x2,%rax
    fbcf:	48 01 d0             	add    %rdx,%rax
    fbd2:	48 c1 e0 03          	shl    $0x3,%rax
    fbd6:	48 89 c2             	mov    %rax,%rdx
    fbd9:	48 8d 05 a8 c6 00 00 	lea    0xc6a8(%rip),%rax        # 1c288 <g_300+0x8>
    fbe0:	0f b6 04 02          	movzbl (%rdx,%rax,1),%eax
    fbe4:	0f b6 c0             	movzbl %al,%eax
    fbe7:	8b 55 f4             	mov    -0xc(%rbp),%edx
    fbea:	48 8d 35 4d 86 00 00 	lea    0x864d(%rip),%rsi        # 1823e <g_2382+0x113e>
    fbf1:	48 89 c7             	mov    %rax,%rdi
    fbf4:	e8 fa 7a ff ff       	callq  76f3 <transparent_crc>
    fbf9:	8b 45 e8             	mov    -0x18(%rbp),%eax
    fbfc:	48 63 d0             	movslq %eax,%rdx
    fbff:	48 89 d0             	mov    %rdx,%rax
    fc02:	48 c1 e0 02          	shl    $0x2,%rax
    fc06:	48 01 d0             	add    %rdx,%rax
    fc09:	48 c1 e0 03          	shl    $0x3,%rax
    fc0d:	48 89 c2             	mov    %rax,%rdx
    fc10:	48 8d 05 73 c6 00 00 	lea    0xc673(%rip),%rax        # 1c28a <g_300+0xa>
    fc17:	0f b7 04 02          	movzwl (%rdx,%rax,1),%eax
    fc1b:	0f b7 c0             	movzwl %ax,%eax
    fc1e:	8b 55 f4             	mov    -0xc(%rbp),%edx
    fc21:	48 8d 35 22 86 00 00 	lea    0x8622(%rip),%rsi        # 1824a <g_2382+0x114a>
    fc28:	48 89 c7             	mov    %rax,%rdi
    fc2b:	e8 c3 7a ff ff       	callq  76f3 <transparent_crc>
    fc30:	8b 45 e8             	mov    -0x18(%rbp),%eax
    fc33:	48 63 d0             	movslq %eax,%rdx
    fc36:	48 89 d0             	mov    %rdx,%rax
    fc39:	48 c1 e0 02          	shl    $0x2,%rax
    fc3d:	48 01 d0             	add    %rdx,%rax
    fc40:	48 c1 e0 03          	shl    $0x3,%rax
    fc44:	48 89 c2             	mov    %rax,%rdx
    fc47:	48 8d 05 3e c6 00 00 	lea    0xc63e(%rip),%rax        # 1c28c <g_300+0xc>
    fc4e:	0f b6 04 02          	movzbl (%rdx,%rax,1),%eax
    fc52:	48 0f be c0          	movsbq %al,%rax
    fc56:	8b 55 f4             	mov    -0xc(%rbp),%edx
    fc59:	48 8d 35 f6 85 00 00 	lea    0x85f6(%rip),%rsi        # 18256 <g_2382+0x1156>
    fc60:	48 89 c7             	mov    %rax,%rdi
    fc63:	e8 8b 7a ff ff       	callq  76f3 <transparent_crc>
    fc68:	8b 45 e8             	mov    -0x18(%rbp),%eax
    fc6b:	48 63 d0             	movslq %eax,%rdx
    fc6e:	48 89 d0             	mov    %rdx,%rax
    fc71:	48 c1 e0 02          	shl    $0x2,%rax
    fc75:	48 01 d0             	add    %rdx,%rax
    fc78:	48 c1 e0 03          	shl    $0x3,%rax
    fc7c:	48 89 c2             	mov    %rax,%rdx
    fc7f:	48 8d 05 fa c5 00 00 	lea    0xc5fa(%rip),%rax        # 1c280 <g_300>
    fc86:	48 8b 44 02 08       	mov    0x8(%rdx,%rax,1),%rax
    fc8b:	48 c1 e8 28          	shr    $0x28,%rax
    fc8f:	83 e0 1f             	and    $0x1f,%eax
    fc92:	0f b6 c0             	movzbl %al,%eax
    fc95:	8b 55 f4             	mov    -0xc(%rbp),%edx
    fc98:	48 8d 35 c3 85 00 00 	lea    0x85c3(%rip),%rsi        # 18262 <g_2382+0x1162>
    fc9f:	48 89 c7             	mov    %rax,%rdi
    fca2:	e8 4c 7a ff ff       	callq  76f3 <transparent_crc>
    fca7:	8b 45 e8             	mov    -0x18(%rbp),%eax
    fcaa:	48 63 d0             	movslq %eax,%rdx
    fcad:	48 89 d0             	mov    %rdx,%rax
    fcb0:	48 c1 e0 02          	shl    $0x2,%rax
    fcb4:	48 01 d0             	add    %rdx,%rax
    fcb7:	48 c1 e0 03          	shl    $0x3,%rax
    fcbb:	48 89 c2             	mov    %rax,%rdx
    fcbe:	48 8d 05 bb c5 00 00 	lea    0xc5bb(%rip),%rax        # 1c280 <g_300>
    fcc5:	48 8b 44 02 08       	mov    0x8(%rdx,%rax,1),%rax
    fcca:	48 c1 e8 2d          	shr    $0x2d,%rax
    fcce:	66 25 ff 0f          	and    $0xfff,%ax
    fcd2:	0f b7 c0             	movzwl %ax,%eax
    fcd5:	8b 55 f4             	mov    -0xc(%rbp),%edx
    fcd8:	48 8d 35 8f 85 00 00 	lea    0x858f(%rip),%rsi        # 1826e <g_2382+0x116e>
    fcdf:	48 89 c7             	mov    %rax,%rdi
    fce2:	e8 0c 7a ff ff       	callq  76f3 <transparent_crc>
    fce7:	8b 45 e8             	mov    -0x18(%rbp),%eax
    fcea:	48 63 d0             	movslq %eax,%rdx
    fced:	48 89 d0             	mov    %rdx,%rax
    fcf0:	48 c1 e0 02          	shl    $0x2,%rax
    fcf4:	48 01 d0             	add    %rdx,%rax
    fcf7:	48 c1 e0 03          	shl    $0x3,%rax
    fcfb:	48 89 c2             	mov    %rax,%rdx
    fcfe:	48 8d 05 8b c5 00 00 	lea    0xc58b(%rip),%rax        # 1c290 <g_300+0x10>
    fd05:	8b 04 02             	mov    (%rdx,%rax,1),%eax
    fd08:	48 98                	cltq   
    fd0a:	8b 55 f4             	mov    -0xc(%rbp),%edx
    fd0d:	48 8d 35 66 85 00 00 	lea    0x8566(%rip),%rsi        # 1827a <g_2382+0x117a>
    fd14:	48 89 c7             	mov    %rax,%rdi
    fd17:	e8 d7 79 ff ff       	callq  76f3 <transparent_crc>
    fd1c:	8b 45 e8             	mov    -0x18(%rbp),%eax
    fd1f:	48 63 d0             	movslq %eax,%rdx
    fd22:	48 89 d0             	mov    %rdx,%rax
    fd25:	48 c1 e0 02          	shl    $0x2,%rax
    fd29:	48 01 d0             	add    %rdx,%rax
    fd2c:	48 c1 e0 03          	shl    $0x3,%rax
    fd30:	48 89 c2             	mov    %rax,%rdx
    fd33:	48 8d 05 5a c5 00 00 	lea    0xc55a(%rip),%rax        # 1c294 <g_300+0x14>
    fd3a:	8b 04 02             	mov    (%rdx,%rax,1),%eax
    fd3d:	89 c1                	mov    %eax,%ecx
    fd3f:	8b 45 f4             	mov    -0xc(%rbp),%eax
    fd42:	89 c2                	mov    %eax,%edx
    fd44:	48 8d 35 3b 85 00 00 	lea    0x853b(%rip),%rsi        # 18286 <g_2382+0x1186>
    fd4b:	48 89 cf             	mov    %rcx,%rdi
    fd4e:	e8 a0 79 ff ff       	callq  76f3 <transparent_crc>
    fd53:	8b 45 e8             	mov    -0x18(%rbp),%eax
    fd56:	48 63 d0             	movslq %eax,%rdx
    fd59:	48 89 d0             	mov    %rdx,%rax
    fd5c:	48 c1 e0 02          	shl    $0x2,%rax
    fd60:	48 01 d0             	add    %rdx,%rax
    fd63:	48 c1 e0 03          	shl    $0x3,%rax
    fd67:	48 89 c2             	mov    %rax,%rdx
    fd6a:	48 8d 05 27 c5 00 00 	lea    0xc527(%rip),%rax        # 1c298 <g_300+0x18>
    fd71:	8b 04 02             	mov    (%rdx,%rax,1),%eax
    fd74:	89 c1                	mov    %eax,%ecx
    fd76:	8b 45 f4             	mov    -0xc(%rbp),%eax
    fd79:	89 c2                	mov    %eax,%edx
    fd7b:	48 8d 35 10 85 00 00 	lea    0x8510(%rip),%rsi        # 18292 <g_2382+0x1192>
    fd82:	48 89 cf             	mov    %rcx,%rdi
    fd85:	e8 69 79 ff ff       	callq  76f3 <transparent_crc>
    fd8a:	8b 45 e8             	mov    -0x18(%rbp),%eax
    fd8d:	48 63 d0             	movslq %eax,%rdx
    fd90:	48 89 d0             	mov    %rdx,%rax
    fd93:	48 c1 e0 02          	shl    $0x2,%rax
    fd97:	48 01 d0             	add    %rdx,%rax
    fd9a:	48 c1 e0 03          	shl    $0x3,%rax
    fd9e:	48 89 c2             	mov    %rax,%rdx
    fda1:	48 8d 05 f8 c4 00 00 	lea    0xc4f8(%rip),%rax        # 1c2a0 <g_300+0x20>
    fda8:	48 8b 04 02          	mov    (%rdx,%rax,1),%rax
    fdac:	8b 55 f4             	mov    -0xc(%rbp),%edx
    fdaf:	48 8d 35 e8 84 00 00 	lea    0x84e8(%rip),%rsi        # 1829e <g_2382+0x119e>
    fdb6:	48 89 c7             	mov    %rax,%rdi
    fdb9:	e8 35 79 ff ff       	callq  76f3 <transparent_crc>
    fdbe:	83 7d f4 00          	cmpl   $0x0,-0xc(%rbp)
    fdc2:	74 16                	je     fdda <main+0xc62>
    fdc4:	8b 45 e8             	mov    -0x18(%rbp),%eax
    fdc7:	89 c6                	mov    %eax,%esi
    fdc9:	48 8d 3d 27 84 00 00 	lea    0x8427(%rip),%rdi        # 181f7 <g_2382+0x10f7>
    fdd0:	b8 00 00 00 00       	mov    $0x0,%eax
    fdd5:	e8 a6 62 ff ff       	callq  6080 <printf@plt>
    fdda:	83 45 e8 01          	addl   $0x1,-0x18(%rbp)
    fdde:	83 7d e8 00          	cmpl   $0x0,-0x18(%rbp)
    fde2:	0f 8e a6 fd ff ff    	jle    fb8e <main+0xa16>
    fde8:	c7 45 e8 00 00 00 00 	movl   $0x0,-0x18(%rbp)
    fdef:	e9 85 03 00 00       	jmpq   10179 <main+0x1001>
    fdf4:	c7 45 ec 00 00 00 00 	movl   $0x0,-0x14(%rbp)
    fdfb:	e9 6b 03 00 00       	jmpq   1016b <main+0xff3>
    fe00:	8b 45 ec             	mov    -0x14(%rbp),%eax
    fe03:	48 98                	cltq   
    fe05:	8b 55 e8             	mov    -0x18(%rbp),%edx
    fe08:	48 63 ca             	movslq %edx,%rcx
    fe0b:	48 89 c2             	mov    %rax,%rdx
    fe0e:	48 c1 e2 02          	shl    $0x2,%rdx
    fe12:	48 01 c2             	add    %rax,%rdx
    fe15:	48 8d 04 d5 00 00 00 	lea    0x0(,%rdx,8),%rax
    fe1c:	00 
    fe1d:	48 89 c2             	mov    %rax,%rdx
    fe20:	48 89 c8             	mov    %rcx,%rax
    fe23:	48 c1 e0 02          	shl    $0x2,%rax
    fe27:	48 01 c8             	add    %rcx,%rax
    fe2a:	48 c1 e0 04          	shl    $0x4,%rax
    fe2e:	48 01 c2             	add    %rax,%rdx
    fe31:	48 8d 05 88 c4 00 00 	lea    0xc488(%rip),%rax        # 1c2c0 <g_301>
    fe38:	48 01 d0             	add    %rdx,%rax
    fe3b:	48 8b 00             	mov    (%rax),%rax
    fe3e:	8b 55 f4             	mov    -0xc(%rbp),%edx
    fe41:	48 8d 35 62 84 00 00 	lea    0x8462(%rip),%rsi        # 182aa <g_2382+0x11aa>
    fe48:	48 89 c7             	mov    %rax,%rdi
    fe4b:	e8 a3 78 ff ff       	callq  76f3 <transparent_crc>
    fe50:	8b 45 ec             	mov    -0x14(%rbp),%eax
    fe53:	48 98                	cltq   
    fe55:	8b 55 e8             	mov    -0x18(%rbp),%edx
    fe58:	48 63 ca             	movslq %edx,%rcx
    fe5b:	48 89 c2             	mov    %rax,%rdx
    fe5e:	48 c1 e2 02          	shl    $0x2,%rdx
    fe62:	48 01 c2             	add    %rax,%rdx
    fe65:	48 8d 04 d5 00 00 00 	lea    0x0(,%rdx,8),%rax
    fe6c:	00 
    fe6d:	48 89 c2             	mov    %rax,%rdx
    fe70:	48 89 c8             	mov    %rcx,%rax
    fe73:	48 c1 e0 02          	shl    $0x2,%rax
    fe77:	48 01 c8             	add    %rcx,%rax
    fe7a:	48 c1 e0 04          	shl    $0x4,%rax
    fe7e:	48 01 c2             	add    %rax,%rdx
    fe81:	48 8d 05 40 c4 00 00 	lea    0xc440(%rip),%rax        # 1c2c8 <g_301+0x8>
    fe88:	48 01 d0             	add    %rdx,%rax
    fe8b:	0f b6 00             	movzbl (%rax),%eax
    fe8e:	0f b6 c0             	movzbl %al,%eax
    fe91:	8b 55 f4             	mov    -0xc(%rbp),%edx
    fe94:	48 8d 35 1e 84 00 00 	lea    0x841e(%rip),%rsi        # 182b9 <g_2382+0x11b9>
    fe9b:	48 89 c7             	mov    %rax,%rdi
    fe9e:	e8 50 78 ff ff       	callq  76f3 <transparent_crc>
    fea3:	8b 45 ec             	mov    -0x14(%rbp),%eax
    fea6:	48 98                	cltq   
    fea8:	8b 55 e8             	mov    -0x18(%rbp),%edx
    feab:	48 63 ca             	movslq %edx,%rcx
    feae:	48 89 c2             	mov    %rax,%rdx
    feb1:	48 c1 e2 02          	shl    $0x2,%rdx
    feb5:	48 01 c2             	add    %rax,%rdx
    feb8:	48 8d 04 d5 00 00 00 	lea    0x0(,%rdx,8),%rax
    febf:	00 
    fec0:	48 89 c2             	mov    %rax,%rdx
    fec3:	48 89 c8             	mov    %rcx,%rax
    fec6:	48 c1 e0 02          	shl    $0x2,%rax
    feca:	48 01 c8             	add    %rcx,%rax
    fecd:	48 c1 e0 04          	shl    $0x4,%rax
    fed1:	48 01 c2             	add    %rax,%rdx
    fed4:	48 8d 05 ef c3 00 00 	lea    0xc3ef(%rip),%rax        # 1c2ca <g_301+0xa>
    fedb:	48 01 d0             	add    %rdx,%rax
    fede:	0f b7 00             	movzwl (%rax),%eax
    fee1:	0f b7 c0             	movzwl %ax,%eax
    fee4:	8b 55 f4             	mov    -0xc(%rbp),%edx
    fee7:	48 8d 35 da 83 00 00 	lea    0x83da(%rip),%rsi        # 182c8 <g_2382+0x11c8>
    feee:	48 89 c7             	mov    %rax,%rdi
    fef1:	e8 fd 77 ff ff       	callq  76f3 <transparent_crc>
    fef6:	8b 45 ec             	mov    -0x14(%rbp),%eax
    fef9:	48 98                	cltq   
    fefb:	8b 55 e8             	mov    -0x18(%rbp),%edx
    fefe:	48 63 ca             	movslq %edx,%rcx
    ff01:	48 89 c2             	mov    %rax,%rdx
    ff04:	48 c1 e2 02          	shl    $0x2,%rdx
    ff08:	48 01 c2             	add    %rax,%rdx
    ff0b:	48 8d 04 d5 00 00 00 	lea    0x0(,%rdx,8),%rax
    ff12:	00 
    ff13:	48 89 c2             	mov    %rax,%rdx
    ff16:	48 89 c8             	mov    %rcx,%rax
    ff19:	48 c1 e0 02          	shl    $0x2,%rax
    ff1d:	48 01 c8             	add    %rcx,%rax
    ff20:	48 c1 e0 04          	shl    $0x4,%rax
    ff24:	48 01 c2             	add    %rax,%rdx
    ff27:	48 8d 05 9e c3 00 00 	lea    0xc39e(%rip),%rax        # 1c2cc <g_301+0xc>
    ff2e:	48 01 d0             	add    %rdx,%rax
    ff31:	0f b6 00             	movzbl (%rax),%eax
    ff34:	48 0f be c0          	movsbq %al,%rax
    ff38:	8b 55 f4             	mov    -0xc(%rbp),%edx
    ff3b:	48 8d 35 95 83 00 00 	lea    0x8395(%rip),%rsi        # 182d7 <g_2382+0x11d7>
    ff42:	48 89 c7             	mov    %rax,%rdi
    ff45:	e8 a9 77 ff ff       	callq  76f3 <transparent_crc>
    ff4a:	8b 45 ec             	mov    -0x14(%rbp),%eax
    ff4d:	48 98                	cltq   
    ff4f:	8b 55 e8             	mov    -0x18(%rbp),%edx
    ff52:	48 63 ca             	movslq %edx,%rcx
    ff55:	48 89 c2             	mov    %rax,%rdx
    ff58:	48 c1 e2 02          	shl    $0x2,%rdx
    ff5c:	48 01 c2             	add    %rax,%rdx
    ff5f:	48 8d 04 d5 00 00 00 	lea    0x0(,%rdx,8),%rax
    ff66:	00 
    ff67:	48 89 c2             	mov    %rax,%rdx
    ff6a:	48 89 c8             	mov    %rcx,%rax
    ff6d:	48 c1 e0 02          	shl    $0x2,%rax
    ff71:	48 01 c8             	add    %rcx,%rax
    ff74:	48 c1 e0 04          	shl    $0x4,%rax
    ff78:	48 01 c2             	add    %rax,%rdx
    ff7b:	48 8d 05 3e c3 00 00 	lea    0xc33e(%rip),%rax        # 1c2c0 <g_301>
    ff82:	48 01 d0             	add    %rdx,%rax
    ff85:	48 8b 40 08          	mov    0x8(%rax),%rax
    ff89:	48 c1 e8 28          	shr    $0x28,%rax
    ff8d:	83 e0 1f             	and    $0x1f,%eax
    ff90:	0f b6 c0             	movzbl %al,%eax
    ff93:	8b 55 f4             	mov    -0xc(%rbp),%edx
    ff96:	48 8d 35 49 83 00 00 	lea    0x8349(%rip),%rsi        # 182e6 <g_2382+0x11e6>
    ff9d:	48 89 c7             	mov    %rax,%rdi
    ffa0:	e8 4e 77 ff ff       	callq  76f3 <transparent_crc>
    ffa5:	8b 45 ec             	mov    -0x14(%rbp),%eax
    ffa8:	48 98                	cltq   
    ffaa:	8b 55 e8             	mov    -0x18(%rbp),%edx
    ffad:	48 63 ca             	movslq %edx,%rcx
    ffb0:	48 89 c2             	mov    %rax,%rdx
    ffb3:	48 c1 e2 02          	shl    $0x2,%rdx
    ffb7:	48 01 c2             	add    %rax,%rdx
    ffba:	48 8d 04 d5 00 00 00 	lea    0x0(,%rdx,8),%rax
    ffc1:	00 
    ffc2:	48 89 c2             	mov    %rax,%rdx
    ffc5:	48 89 c8             	mov    %rcx,%rax
    ffc8:	48 c1 e0 02          	shl    $0x2,%rax
    ffcc:	48 01 c8             	add    %rcx,%rax
    ffcf:	48 c1 e0 04          	shl    $0x4,%rax
    ffd3:	48 01 c2             	add    %rax,%rdx
    ffd6:	48 8d 05 e3 c2 00 00 	lea    0xc2e3(%rip),%rax        # 1c2c0 <g_301>
    ffdd:	48 01 d0             	add    %rdx,%rax
    ffe0:	48 8b 40 08          	mov    0x8(%rax),%rax
    ffe4:	48 c1 e8 2d          	shr    $0x2d,%rax
    ffe8:	66 25 ff 0f          	and    $0xfff,%ax
    ffec:	0f b7 c0             	movzwl %ax,%eax
    ffef:	8b 55 f4             	mov    -0xc(%rbp),%edx
    fff2:	48 8d 35 fc 82 00 00 	lea    0x82fc(%rip),%rsi        # 182f5 <g_2382+0x11f5>
    fff9:	48 89 c7             	mov    %rax,%rdi
    fffc:	e8 f2 76 ff ff       	callq  76f3 <transparent_crc>
   10001:	8b 45 ec             	mov    -0x14(%rbp),%eax
   10004:	48 98                	cltq   
   10006:	8b 55 e8             	mov    -0x18(%rbp),%edx
   10009:	48 63 ca             	movslq %edx,%rcx
   1000c:	48 89 c2             	mov    %rax,%rdx
   1000f:	48 c1 e2 02          	shl    $0x2,%rdx
   10013:	48 01 c2             	add    %rax,%rdx
   10016:	48 8d 04 d5 00 00 00 	lea    0x0(,%rdx,8),%rax
   1001d:	00 
   1001e:	48 89 c2             	mov    %rax,%rdx
   10021:	48 89 c8             	mov    %rcx,%rax
   10024:	48 c1 e0 02          	shl    $0x2,%rax
   10028:	48 01 c8             	add    %rcx,%rax
   1002b:	48 c1 e0 04          	shl    $0x4,%rax
   1002f:	48 01 c2             	add    %rax,%rdx
   10032:	48 8d 05 97 c2 00 00 	lea    0xc297(%rip),%rax        # 1c2d0 <g_301+0x10>
   10039:	48 01 d0             	add    %rdx,%rax
   1003c:	8b 00                	mov    (%rax),%eax
   1003e:	48 98                	cltq   
   10040:	8b 55 f4             	mov    -0xc(%rbp),%edx
   10043:	48 8d 35 ba 82 00 00 	lea    0x82ba(%rip),%rsi        # 18304 <g_2382+0x1204>
   1004a:	48 89 c7             	mov    %rax,%rdi
   1004d:	e8 a1 76 ff ff       	callq  76f3 <transparent_crc>
   10052:	8b 45 ec             	mov    -0x14(%rbp),%eax
   10055:	48 98                	cltq   
   10057:	8b 55 e8             	mov    -0x18(%rbp),%edx
   1005a:	48 63 ca             	movslq %edx,%rcx
   1005d:	48 89 c2             	mov    %rax,%rdx
   10060:	48 c1 e2 02          	shl    $0x2,%rdx
   10064:	48 01 c2             	add    %rax,%rdx
   10067:	48 8d 04 d5 00 00 00 	lea    0x0(,%rdx,8),%rax
   1006e:	00 
   1006f:	48 89 c2             	mov    %rax,%rdx
   10072:	48 89 c8             	mov    %rcx,%rax
   10075:	48 c1 e0 02          	shl    $0x2,%rax
   10079:	48 01 c8             	add    %rcx,%rax
   1007c:	48 c1 e0 04          	shl    $0x4,%rax
   10080:	48 01 c2             	add    %rax,%rdx
   10083:	48 8d 05 4a c2 00 00 	lea    0xc24a(%rip),%rax        # 1c2d4 <g_301+0x14>
   1008a:	48 01 d0             	add    %rdx,%rax
   1008d:	8b 00                	mov    (%rax),%eax
   1008f:	89 c1                	mov    %eax,%ecx
   10091:	8b 45 f4             	mov    -0xc(%rbp),%eax
   10094:	89 c2                	mov    %eax,%edx
   10096:	48 8d 35 76 82 00 00 	lea    0x8276(%rip),%rsi        # 18313 <g_2382+0x1213>
   1009d:	48 89 cf             	mov    %rcx,%rdi
   100a0:	e8 4e 76 ff ff       	callq  76f3 <transparent_crc>
   100a5:	8b 45 ec             	mov    -0x14(%rbp),%eax
   100a8:	48 98                	cltq   
   100aa:	8b 55 e8             	mov    -0x18(%rbp),%edx
   100ad:	48 63 ca             	movslq %edx,%rcx
   100b0:	48 89 c2             	mov    %rax,%rdx
   100b3:	48 c1 e2 02          	shl    $0x2,%rdx
   100b7:	48 01 c2             	add    %rax,%rdx
   100ba:	48 8d 04 d5 00 00 00 	lea    0x0(,%rdx,8),%rax
   100c1:	00 
   100c2:	48 89 c2             	mov    %rax,%rdx
   100c5:	48 89 c8             	mov    %rcx,%rax
   100c8:	48 c1 e0 02          	shl    $0x2,%rax
   100cc:	48 01 c8             	add    %rcx,%rax
   100cf:	48 c1 e0 04          	shl    $0x4,%rax
   100d3:	48 01 c2             	add    %rax,%rdx
   100d6:	48 8d 05 fb c1 00 00 	lea    0xc1fb(%rip),%rax        # 1c2d8 <g_301+0x18>
   100dd:	48 01 d0             	add    %rdx,%rax
   100e0:	8b 00                	mov    (%rax),%eax
   100e2:	89 c1                	mov    %eax,%ecx
   100e4:	8b 45 f4             	mov    -0xc(%rbp),%eax
   100e7:	89 c2                	mov    %eax,%edx
   100e9:	48 8d 35 32 82 00 00 	lea    0x8232(%rip),%rsi        # 18322 <g_2382+0x1222>
   100f0:	48 89 cf             	mov    %rcx,%rdi
   100f3:	e8 fb 75 ff ff       	callq  76f3 <transparent_crc>
   100f8:	8b 45 ec             	mov    -0x14(%rbp),%eax
   100fb:	48 98                	cltq   
   100fd:	8b 55 e8             	mov    -0x18(%rbp),%edx
   10100:	48 63 ca             	movslq %edx,%rcx
   10103:	48 89 c2             	mov    %rax,%rdx
   10106:	48 c1 e2 02          	shl    $0x2,%rdx
   1010a:	48 01 c2             	add    %rax,%rdx
   1010d:	48 8d 04 d5 00 00 00 	lea    0x0(,%rdx,8),%rax
   10114:	00 
   10115:	48 89 c2             	mov    %rax,%rdx
   10118:	48 89 c8             	mov    %rcx,%rax
   1011b:	48 c1 e0 02          	shl    $0x2,%rax
   1011f:	48 01 c8             	add    %rcx,%rax
   10122:	48 c1 e0 04          	shl    $0x4,%rax
   10126:	48 01 c2             	add    %rax,%rdx
   10129:	48 8d 05 b0 c1 00 00 	lea    0xc1b0(%rip),%rax        # 1c2e0 <g_301+0x20>
   10130:	48 01 d0             	add    %rdx,%rax
   10133:	48 8b 00             	mov    (%rax),%rax
   10136:	8b 55 f4             	mov    -0xc(%rbp),%edx
   10139:	48 8d 35 f1 81 00 00 	lea    0x81f1(%rip),%rsi        # 18331 <g_2382+0x1231>
   10140:	48 89 c7             	mov    %rax,%rdi
   10143:	e8 ab 75 ff ff       	callq  76f3 <transparent_crc>
   10148:	83 7d f4 00          	cmpl   $0x0,-0xc(%rbp)
   1014c:	74 19                	je     10167 <main+0xfef>
   1014e:	8b 55 ec             	mov    -0x14(%rbp),%edx
   10151:	8b 45 e8             	mov    -0x18(%rbp),%eax
   10154:	89 c6                	mov    %eax,%esi
   10156:	48 8d 3d ff 7e 00 00 	lea    0x7eff(%rip),%rdi        # 1805c <g_2382+0xf5c>
   1015d:	b8 00 00 00 00       	mov    $0x0,%eax
   10162:	e8 19 5f ff ff       	callq  6080 <printf@plt>
   10167:	83 45 ec 01          	addl   $0x1,-0x14(%rbp)
   1016b:	83 7d ec 01          	cmpl   $0x1,-0x14(%rbp)
   1016f:	0f 8e 8b fc ff ff    	jle    fe00 <main+0xc88>
   10175:	83 45 e8 01          	addl   $0x1,-0x18(%rbp)
   10179:	83 7d e8 07          	cmpl   $0x7,-0x18(%rbp)
   1017d:	0f 8e 71 fc ff ff    	jle    fdf4 <main+0xc7c>
   10183:	8b 05 b7 c3 00 00    	mov    0xc3b7(%rip),%eax        # 1c540 <g_304>
   10189:	89 c1                	mov    %eax,%ecx
   1018b:	8b 45 f4             	mov    -0xc(%rbp),%eax
   1018e:	89 c2                	mov    %eax,%edx
   10190:	48 8d 35 a9 81 00 00 	lea    0x81a9(%rip),%rsi        # 18340 <g_2382+0x1240>
   10197:	48 89 cf             	mov    %rcx,%rdi
   1019a:	e8 54 75 ff ff       	callq  76f3 <transparent_crc>
   1019f:	48 8b 05 3a 45 01 00 	mov    0x1453a(%rip),%rax        # 246e0 <g_307>
   101a6:	8b 55 f4             	mov    -0xc(%rbp),%edx
   101a9:	48 8d 35 96 81 00 00 	lea    0x8196(%rip),%rsi        # 18346 <g_2382+0x1246>
   101b0:	48 89 c7             	mov    %rax,%rdi
   101b3:	e8 3b 75 ff ff       	callq  76f3 <transparent_crc>
   101b8:	0f b6 05 85 c3 00 00 	movzbl 0xc385(%rip),%eax        # 1c544 <g_355>
   101bf:	0f b6 c0             	movzbl %al,%eax
   101c2:	8b 55 f4             	mov    -0xc(%rbp),%edx
   101c5:	48 8d 35 80 81 00 00 	lea    0x8180(%rip),%rsi        # 1834c <g_2382+0x124c>
   101cc:	48 89 c7             	mov    %rax,%rdi
   101cf:	e8 1f 75 ff ff       	callq  76f3 <transparent_crc>
   101d4:	8b 05 6e c3 00 00    	mov    0xc36e(%rip),%eax        # 1c548 <g_374>
   101da:	48 98                	cltq   
   101dc:	8b 55 f4             	mov    -0xc(%rbp),%edx
   101df:	48 8d 35 6c 81 00 00 	lea    0x816c(%rip),%rsi        # 18352 <g_2382+0x1252>
   101e6:	48 89 c7             	mov    %rax,%rdi
   101e9:	e8 05 75 ff ff       	callq  76f3 <transparent_crc>
   101ee:	c7 45 e8 00 00 00 00 	movl   $0x0,-0x18(%rbp)
   101f5:	e9 04 04 00 00       	jmpq   105fe <main+0x1486>
   101fa:	c7 45 ec 00 00 00 00 	movl   $0x0,-0x14(%rbp)
   10201:	e9 ea 03 00 00       	jmpq   105f0 <main+0x1478>
   10206:	c7 45 f0 00 00 00 00 	movl   $0x0,-0x10(%rbp)
   1020d:	e9 d0 03 00 00       	jmpq   105e2 <main+0x146a>
   10212:	8b 45 f0             	mov    -0x10(%rbp),%eax
   10215:	48 63 d0             	movslq %eax,%rdx
   10218:	8b 45 ec             	mov    -0x14(%rbp),%eax
   1021b:	48 63 c8             	movslq %eax,%rcx
   1021e:	8b 45 e8             	mov    -0x18(%rbp),%eax
   10221:	48 63 f0             	movslq %eax,%rsi
   10224:	48 89 d0             	mov    %rdx,%rax
   10227:	48 c1 e0 02          	shl    $0x2,%rax
   1022b:	48 01 d0             	add    %rdx,%rax
   1022e:	48 c1 e0 03          	shl    $0x3,%rax
   10232:	48 89 ca             	mov    %rcx,%rdx
   10235:	48 c1 e2 04          	shl    $0x4,%rdx
   10239:	48 29 ca             	sub    %rcx,%rdx
   1023c:	48 c1 e2 03          	shl    $0x3,%rdx
   10240:	48 01 c2             	add    %rax,%rdx
   10243:	48 69 c6 58 02 00 00 	imul   $0x258,%rsi,%rax
   1024a:	48 01 c2             	add    %rax,%rdx
   1024d:	48 8d 05 0c c3 00 00 	lea    0xc30c(%rip),%rax        # 1c560 <g_378>
   10254:	48 01 d0             	add    %rdx,%rax
   10257:	48 8b 00             	mov    (%rax),%rax
   1025a:	8b 55 f4             	mov    -0xc(%rbp),%edx
   1025d:	48 8d 35 f4 80 00 00 	lea    0x80f4(%rip),%rsi        # 18358 <g_2382+0x1258>
   10264:	48 89 c7             	mov    %rax,%rdi
   10267:	e8 87 74 ff ff       	callq  76f3 <transparent_crc>
   1026c:	8b 45 f0             	mov    -0x10(%rbp),%eax
   1026f:	48 63 d0             	movslq %eax,%rdx
   10272:	8b 45 ec             	mov    -0x14(%rbp),%eax
   10275:	48 63 c8             	movslq %eax,%rcx
   10278:	8b 45 e8             	mov    -0x18(%rbp),%eax
   1027b:	48 63 f0             	movslq %eax,%rsi
   1027e:	48 89 d0             	mov    %rdx,%rax
   10281:	48 c1 e0 02          	shl    $0x2,%rax
   10285:	48 01 d0             	add    %rdx,%rax
   10288:	48 c1 e0 03          	shl    $0x3,%rax
   1028c:	48 89 ca             	mov    %rcx,%rdx
   1028f:	48 c1 e2 04          	shl    $0x4,%rdx
   10293:	48 29 ca             	sub    %rcx,%rdx
   10296:	48 c1 e2 03          	shl    $0x3,%rdx
   1029a:	48 01 c2             	add    %rax,%rdx
   1029d:	48 69 c6 58 02 00 00 	imul   $0x258,%rsi,%rax
   102a4:	48 01 c2             	add    %rax,%rdx
   102a7:	48 8d 05 ba c2 00 00 	lea    0xc2ba(%rip),%rax        # 1c568 <g_378+0x8>
   102ae:	48 01 d0             	add    %rdx,%rax
   102b1:	0f b6 00             	movzbl (%rax),%eax
   102b4:	0f b6 c0             	movzbl %al,%eax
   102b7:	8b 55 f4             	mov    -0xc(%rbp),%edx
   102ba:	48 8d 35 a9 80 00 00 	lea    0x80a9(%rip),%rsi        # 1836a <g_2382+0x126a>
   102c1:	48 89 c7             	mov    %rax,%rdi
   102c4:	e8 2a 74 ff ff       	callq  76f3 <transparent_crc>
   102c9:	8b 45 f0             	mov    -0x10(%rbp),%eax
   102cc:	48 63 d0             	movslq %eax,%rdx
   102cf:	8b 45 ec             	mov    -0x14(%rbp),%eax
   102d2:	48 63 c8             	movslq %eax,%rcx
   102d5:	8b 45 e8             	mov    -0x18(%rbp),%eax
   102d8:	48 63 f0             	movslq %eax,%rsi
   102db:	48 89 d0             	mov    %rdx,%rax
   102de:	48 c1 e0 02          	shl    $0x2,%rax
   102e2:	48 01 d0             	add    %rdx,%rax
   102e5:	48 c1 e0 03          	shl    $0x3,%rax
   102e9:	48 89 ca             	mov    %rcx,%rdx
   102ec:	48 c1 e2 04          	shl    $0x4,%rdx
   102f0:	48 29 ca             	sub    %rcx,%rdx
   102f3:	48 c1 e2 03          	shl    $0x3,%rdx
   102f7:	48 01 c2             	add    %rax,%rdx
   102fa:	48 69 c6 58 02 00 00 	imul   $0x258,%rsi,%rax
   10301:	48 01 c2             	add    %rax,%rdx
   10304:	48 8d 05 5f c2 00 00 	lea    0xc25f(%rip),%rax        # 1c56a <g_378+0xa>
   1030b:	48 01 d0             	add    %rdx,%rax
   1030e:	0f b7 00             	movzwl (%rax),%eax
   10311:	0f b7 c0             	movzwl %ax,%eax
   10314:	8b 55 f4             	mov    -0xc(%rbp),%edx
   10317:	48 8d 35 5e 80 00 00 	lea    0x805e(%rip),%rsi        # 1837c <g_2382+0x127c>
   1031e:	48 89 c7             	mov    %rax,%rdi
   10321:	e8 cd 73 ff ff       	callq  76f3 <transparent_crc>
   10326:	8b 45 f0             	mov    -0x10(%rbp),%eax
   10329:	48 63 d0             	movslq %eax,%rdx
   1032c:	8b 45 ec             	mov    -0x14(%rbp),%eax
   1032f:	48 63 c8             	movslq %eax,%rcx
   10332:	8b 45 e8             	mov    -0x18(%rbp),%eax
   10335:	48 63 f0             	movslq %eax,%rsi
   10338:	48 89 d0             	mov    %rdx,%rax
   1033b:	48 c1 e0 02          	shl    $0x2,%rax
   1033f:	48 01 d0             	add    %rdx,%rax
   10342:	48 c1 e0 03          	shl    $0x3,%rax
   10346:	48 89 ca             	mov    %rcx,%rdx
   10349:	48 c1 e2 04          	shl    $0x4,%rdx
   1034d:	48 29 ca             	sub    %rcx,%rdx
   10350:	48 c1 e2 03          	shl    $0x3,%rdx
   10354:	48 01 c2             	add    %rax,%rdx
   10357:	48 69 c6 58 02 00 00 	imul   $0x258,%rsi,%rax
   1035e:	48 01 c2             	add    %rax,%rdx
   10361:	48 8d 05 04 c2 00 00 	lea    0xc204(%rip),%rax        # 1c56c <g_378+0xc>
   10368:	48 01 d0             	add    %rdx,%rax
   1036b:	0f b6 00             	movzbl (%rax),%eax
   1036e:	48 0f be c0          	movsbq %al,%rax
   10372:	8b 55 f4             	mov    -0xc(%rbp),%edx
   10375:	48 8d 35 12 80 00 00 	lea    0x8012(%rip),%rsi        # 1838e <g_2382+0x128e>
   1037c:	48 89 c7             	mov    %rax,%rdi
   1037f:	e8 6f 73 ff ff       	callq  76f3 <transparent_crc>
   10384:	8b 45 f0             	mov    -0x10(%rbp),%eax
   10387:	48 63 d0             	movslq %eax,%rdx
   1038a:	8b 45 ec             	mov    -0x14(%rbp),%eax
   1038d:	48 63 c8             	movslq %eax,%rcx
   10390:	8b 45 e8             	mov    -0x18(%rbp),%eax
   10393:	48 63 f0             	movslq %eax,%rsi
   10396:	48 89 d0             	mov    %rdx,%rax
   10399:	48 c1 e0 02          	shl    $0x2,%rax
   1039d:	48 01 d0             	add    %rdx,%rax
   103a0:	48 c1 e0 03          	shl    $0x3,%rax
   103a4:	48 89 ca             	mov    %rcx,%rdx
   103a7:	48 c1 e2 04          	shl    $0x4,%rdx
   103ab:	48 29 ca             	sub    %rcx,%rdx
   103ae:	48 c1 e2 03          	shl    $0x3,%rdx
   103b2:	48 01 c2             	add    %rax,%rdx
   103b5:	48 69 c6 58 02 00 00 	imul   $0x258,%rsi,%rax
   103bc:	48 01 c2             	add    %rax,%rdx
   103bf:	48 8d 05 9a c1 00 00 	lea    0xc19a(%rip),%rax        # 1c560 <g_378>
   103c6:	48 01 d0             	add    %rdx,%rax
   103c9:	0f b6 40 0d          	movzbl 0xd(%rax),%eax
   103cd:	83 e0 1f             	and    $0x1f,%eax
   103d0:	0f b6 c0             	movzbl %al,%eax
   103d3:	8b 55 f4             	mov    -0xc(%rbp),%edx
   103d6:	48 8d 35 c3 7f 00 00 	lea    0x7fc3(%rip),%rsi        # 183a0 <g_2382+0x12a0>
   103dd:	48 89 c7             	mov    %rax,%rdi
   103e0:	e8 0e 73 ff ff       	callq  76f3 <transparent_crc>
   103e5:	8b 45 f0             	mov    -0x10(%rbp),%eax
   103e8:	48 63 d0             	movslq %eax,%rdx
   103eb:	8b 45 ec             	mov    -0x14(%rbp),%eax
   103ee:	48 63 c8             	movslq %eax,%rcx
   103f1:	8b 45 e8             	mov    -0x18(%rbp),%eax
   103f4:	48 63 f0             	movslq %eax,%rsi
   103f7:	48 89 d0             	mov    %rdx,%rax
   103fa:	48 c1 e0 02          	shl    $0x2,%rax
   103fe:	48 01 d0             	add    %rdx,%rax
   10401:	48 c1 e0 03          	shl    $0x3,%rax
   10405:	48 89 ca             	mov    %rcx,%rdx
   10408:	48 c1 e2 04          	shl    $0x4,%rdx
   1040c:	48 29 ca             	sub    %rcx,%rdx
   1040f:	48 c1 e2 03          	shl    $0x3,%rdx
   10413:	48 01 c2             	add    %rax,%rdx
   10416:	48 69 c6 58 02 00 00 	imul   $0x258,%rsi,%rax
   1041d:	48 01 c2             	add    %rax,%rdx
   10420:	48 8d 05 39 c1 00 00 	lea    0xc139(%rip),%rax        # 1c560 <g_378>
   10427:	48 01 d0             	add    %rdx,%rax
   1042a:	8b 40 0c             	mov    0xc(%rax),%eax
   1042d:	c1 e8 0d             	shr    $0xd,%eax
   10430:	66 25 ff 0f          	and    $0xfff,%ax
   10434:	0f b7 c0             	movzwl %ax,%eax
   10437:	8b 55 f4             	mov    -0xc(%rbp),%edx
   1043a:	48 8d 35 71 7f 00 00 	lea    0x7f71(%rip),%rsi        # 183b2 <g_2382+0x12b2>
   10441:	48 89 c7             	mov    %rax,%rdi
   10444:	e8 aa 72 ff ff       	callq  76f3 <transparent_crc>
   10449:	8b 45 f0             	mov    -0x10(%rbp),%eax
   1044c:	48 63 c8             	movslq %eax,%rcx
   1044f:	8b 45 ec             	mov    -0x14(%rbp),%eax
   10452:	48 63 d0             	movslq %eax,%rdx
   10455:	8b 45 e8             	mov    -0x18(%rbp),%eax
   10458:	48 63 f0             	movslq %eax,%rsi
   1045b:	48 89 c8             	mov    %rcx,%rax
   1045e:	48 c1 e0 02          	shl    $0x2,%rax
   10462:	48 01 c8             	add    %rcx,%rax
   10465:	48 c1 e0 03          	shl    $0x3,%rax
   10469:	48 69 ce 58 02 00 00 	imul   $0x258,%rsi,%rcx
   10470:	48 01 c1             	add    %rax,%rcx
   10473:	48 89 d0             	mov    %rdx,%rax
   10476:	48 c1 e0 04          	shl    $0x4,%rax
   1047a:	48 29 d0             	sub    %rdx,%rax
   1047d:	48 c1 e0 03          	shl    $0x3,%rax
   10481:	48 8d 14 01          	lea    (%rcx,%rax,1),%rdx
   10485:	48 8d 05 e4 c0 00 00 	lea    0xc0e4(%rip),%rax        # 1c570 <g_378+0x10>
   1048c:	48 01 d0             	add    %rdx,%rax
   1048f:	8b 00                	mov    (%rax),%eax
   10491:	48 98                	cltq   
   10493:	8b 55 f4             	mov    -0xc(%rbp),%edx
   10496:	48 8d 35 27 7f 00 00 	lea    0x7f27(%rip),%rsi        # 183c4 <g_2382+0x12c4>
   1049d:	48 89 c7             	mov    %rax,%rdi
   104a0:	e8 4e 72 ff ff       	callq  76f3 <transparent_crc>
   104a5:	8b 45 f0             	mov    -0x10(%rbp),%eax
   104a8:	48 63 c8             	movslq %eax,%rcx
   104ab:	8b 45 ec             	mov    -0x14(%rbp),%eax
   104ae:	48 63 d0             	movslq %eax,%rdx
   104b1:	8b 45 e8             	mov    -0x18(%rbp),%eax
   104b4:	48 63 f0             	movslq %eax,%rsi
   104b7:	48 89 c8             	mov    %rcx,%rax
   104ba:	48 c1 e0 02          	shl    $0x2,%rax
   104be:	48 01 c8             	add    %rcx,%rax
   104c1:	48 c1 e0 03          	shl    $0x3,%rax
   104c5:	48 69 ce 58 02 00 00 	imul   $0x258,%rsi,%rcx
   104cc:	48 01 c1             	add    %rax,%rcx
   104cf:	48 89 d0             	mov    %rdx,%rax
   104d2:	48 c1 e0 04          	shl    $0x4,%rax
   104d6:	48 29 d0             	sub    %rdx,%rax
   104d9:	48 c1 e0 03          	shl    $0x3,%rax
   104dd:	48 8d 14 01          	lea    (%rcx,%rax,1),%rdx
   104e1:	48 8d 05 8c c0 00 00 	lea    0xc08c(%rip),%rax        # 1c574 <g_378+0x14>
   104e8:	48 01 d0             	add    %rdx,%rax
   104eb:	8b 00                	mov    (%rax),%eax
   104ed:	89 c1                	mov    %eax,%ecx
   104ef:	8b 45 f4             	mov    -0xc(%rbp),%eax
   104f2:	89 c2                	mov    %eax,%edx
   104f4:	48 8d 35 db 7e 00 00 	lea    0x7edb(%rip),%rsi        # 183d6 <g_2382+0x12d6>
   104fb:	48 89 cf             	mov    %rcx,%rdi
   104fe:	e8 f0 71 ff ff       	callq  76f3 <transparent_crc>
   10503:	8b 45 f0             	mov    -0x10(%rbp),%eax
   10506:	48 63 c8             	movslq %eax,%rcx
   10509:	8b 45 ec             	mov    -0x14(%rbp),%eax
   1050c:	48 63 d0             	movslq %eax,%rdx
   1050f:	8b 45 e8             	mov    -0x18(%rbp),%eax
   10512:	48 63 f0             	movslq %eax,%rsi
   10515:	48 89 c8             	mov    %rcx,%rax
   10518:	48 c1 e0 02          	shl    $0x2,%rax
   1051c:	48 01 c8             	add    %rcx,%rax
   1051f:	48 c1 e0 03          	shl    $0x3,%rax
   10523:	48 69 ce 58 02 00 00 	imul   $0x258,%rsi,%rcx
   1052a:	48 01 c1             	add    %rax,%rcx
   1052d:	48 89 d0             	mov    %rdx,%rax
   10530:	48 c1 e0 04          	shl    $0x4,%rax
   10534:	48 29 d0             	sub    %rdx,%rax
   10537:	48 c1 e0 03          	shl    $0x3,%rax
   1053b:	48 8d 14 01          	lea    (%rcx,%rax,1),%rdx
   1053f:	48 8d 05 32 c0 00 00 	lea    0xc032(%rip),%rax        # 1c578 <g_378+0x18>
   10546:	48 01 d0             	add    %rdx,%rax
   10549:	8b 00                	mov    (%rax),%eax
   1054b:	89 c1                	mov    %eax,%ecx
   1054d:	8b 45 f4             	mov    -0xc(%rbp),%eax
   10550:	89 c2                	mov    %eax,%edx
   10552:	48 8d 35 8f 7e 00 00 	lea    0x7e8f(%rip),%rsi        # 183e8 <g_2382+0x12e8>
   10559:	48 89 cf             	mov    %rcx,%rdi
   1055c:	e8 92 71 ff ff       	callq  76f3 <transparent_crc>
   10561:	8b 45 f0             	mov    -0x10(%rbp),%eax
   10564:	48 63 c8             	movslq %eax,%rcx
   10567:	8b 45 ec             	mov    -0x14(%rbp),%eax
   1056a:	48 63 d0             	movslq %eax,%rdx
   1056d:	8b 45 e8             	mov    -0x18(%rbp),%eax
   10570:	48 63 f0             	movslq %eax,%rsi
   10573:	48 89 c8             	mov    %rcx,%rax
   10576:	48 c1 e0 02          	shl    $0x2,%rax
   1057a:	48 01 c8             	add    %rcx,%rax
   1057d:	48 c1 e0 03          	shl    $0x3,%rax
   10581:	48 69 ce 58 02 00 00 	imul   $0x258,%rsi,%rcx
   10588:	48 01 c1             	add    %rax,%rcx
   1058b:	48 89 d0             	mov    %rdx,%rax
   1058e:	48 c1 e0 04          	shl    $0x4,%rax
   10592:	48 29 d0             	sub    %rdx,%rax
   10595:	48 c1 e0 03          	shl    $0x3,%rax
   10599:	48 8d 14 01          	lea    (%rcx,%rax,1),%rdx
   1059d:	48 8d 05 dc bf 00 00 	lea    0xbfdc(%rip),%rax        # 1c580 <g_378+0x20>
   105a4:	48 01 d0             	add    %rdx,%rax
   105a7:	48 8b 00             	mov    (%rax),%rax
   105aa:	8b 55 f4             	mov    -0xc(%rbp),%edx
   105ad:	48 8d 35 46 7e 00 00 	lea    0x7e46(%rip),%rsi        # 183fa <g_2382+0x12fa>
   105b4:	48 89 c7             	mov    %rax,%rdi
   105b7:	e8 37 71 ff ff       	callq  76f3 <transparent_crc>
   105bc:	83 7d f4 00          	cmpl   $0x0,-0xc(%rbp)
   105c0:	74 1c                	je     105de <main+0x1466>
   105c2:	8b 4d f0             	mov    -0x10(%rbp),%ecx
   105c5:	8b 55 ec             	mov    -0x14(%rbp),%edx
   105c8:	8b 45 e8             	mov    -0x18(%rbp),%eax
   105cb:	89 c6                	mov    %eax,%esi
   105cd:	48 8d 3d 38 7e 00 00 	lea    0x7e38(%rip),%rdi        # 1840c <g_2382+0x130c>
   105d4:	b8 00 00 00 00       	mov    $0x0,%eax
   105d9:	e8 a2 5a ff ff       	callq  6080 <printf@plt>
   105de:	83 45 f0 01          	addl   $0x1,-0x10(%rbp)
   105e2:	83 7d f0 02          	cmpl   $0x2,-0x10(%rbp)
   105e6:	0f 8e 26 fc ff ff    	jle    10212 <main+0x109a>
   105ec:	83 45 ec 01          	addl   $0x1,-0x14(%rbp)
   105f0:	83 7d ec 04          	cmpl   $0x4,-0x14(%rbp)
   105f4:	0f 8e 0c fc ff ff    	jle    10206 <main+0x108e>
   105fa:	83 45 e8 01          	addl   $0x1,-0x18(%rbp)
   105fe:	83 7d e8 06          	cmpl   $0x6,-0x18(%rbp)
   10602:	0f 8e f2 fb ff ff    	jle    101fa <main+0x1082>
   10608:	c7 45 e8 00 00 00 00 	movl   $0x0,-0x18(%rbp)
   1060f:	e9 7b 02 00 00       	jmpq   1088f <main+0x1717>
   10614:	c7 45 ec 00 00 00 00 	movl   $0x0,-0x14(%rbp)
   1061b:	e9 61 02 00 00       	jmpq   10881 <main+0x1709>
   10620:	8b 45 ec             	mov    -0x14(%rbp),%eax
   10623:	48 98                	cltq   
   10625:	8b 55 e8             	mov    -0x18(%rbp),%edx
   10628:	48 63 ca             	movslq %edx,%rcx
   1062b:	48 89 c2             	mov    %rax,%rdx
   1062e:	48 c1 e2 03          	shl    $0x3,%rdx
   10632:	48 01 c2             	add    %rax,%rdx
   10635:	48 8d 04 12          	lea    (%rdx,%rdx,1),%rax
   10639:	48 89 c2             	mov    %rax,%rdx
   1063c:	48 89 c8             	mov    %rcx,%rax
   1063f:	48 c1 e0 03          	shl    $0x3,%rax
   10643:	48 01 c8             	add    %rcx,%rax
   10646:	48 c1 e0 03          	shl    $0x3,%rax
   1064a:	48 01 c2             	add    %rax,%rdx
   1064d:	48 8d 05 8c cf 00 00 	lea    0xcf8c(%rip),%rax        # 1d5e0 <g_391>
   10654:	48 01 d0             	add    %rdx,%rax
   10657:	0f b7 10             	movzwl (%rax),%edx
   1065a:	0f b6 40 02          	movzbl 0x2(%rax),%eax
   1065e:	83 e0 07             	and    $0x7,%eax
   10661:	48 c1 e0 10          	shl    $0x10,%rax
   10665:	48 09 d0             	or     %rdx,%rax
   10668:	48 c1 e0 2d          	shl    $0x2d,%rax
   1066c:	48 c1 f8 2d          	sar    $0x2d,%rax
   10670:	48 98                	cltq   
   10672:	8b 55 f4             	mov    -0xc(%rbp),%edx
   10675:	48 8d 35 a6 7d 00 00 	lea    0x7da6(%rip),%rsi        # 18422 <g_2382+0x1322>
   1067c:	48 89 c7             	mov    %rax,%rdi
   1067f:	e8 6f 70 ff ff       	callq  76f3 <transparent_crc>
   10684:	8b 45 ec             	mov    -0x14(%rbp),%eax
   10687:	48 98                	cltq   
   10689:	8b 55 e8             	mov    -0x18(%rbp),%edx
   1068c:	48 63 ca             	movslq %edx,%rcx
   1068f:	48 89 c2             	mov    %rax,%rdx
   10692:	48 c1 e2 03          	shl    $0x3,%rdx
   10696:	48 01 c2             	add    %rax,%rdx
   10699:	48 8d 04 12          	lea    (%rdx,%rdx,1),%rax
   1069d:	48 89 c2             	mov    %rax,%rdx
   106a0:	48 89 c8             	mov    %rcx,%rax
   106a3:	48 c1 e0 03          	shl    $0x3,%rax
   106a7:	48 01 c8             	add    %rcx,%rax
   106aa:	48 c1 e0 03          	shl    $0x3,%rax
   106ae:	48 01 c2             	add    %rax,%rdx
   106b1:	48 8d 05 28 cf 00 00 	lea    0xcf28(%rip),%rax        # 1d5e0 <g_391>
   106b8:	48 01 d0             	add    %rdx,%rax
   106bb:	0f b7 50 02          	movzwl 0x2(%rax),%edx
   106bf:	66 c1 ea 03          	shr    $0x3,%dx
   106c3:	0f b7 d2             	movzwl %dx,%edx
   106c6:	0f b7 40 04          	movzwl 0x4(%rax),%eax
   106ca:	0f b7 c0             	movzwl %ax,%eax
   106cd:	25 ff 7f 00 00       	and    $0x7fff,%eax
   106d2:	48 c1 e0 0d          	shl    $0xd,%rax
   106d6:	48 09 d0             	or     %rdx,%rax
   106d9:	48 c1 e0 24          	shl    $0x24,%rax
   106dd:	48 c1 f8 24          	sar    $0x24,%rax
   106e1:	48 98                	cltq   
   106e3:	8b 55 f4             	mov    -0xc(%rbp),%edx
   106e6:	48 8d 35 44 7d 00 00 	lea    0x7d44(%rip),%rsi        # 18431 <g_2382+0x1331>
   106ed:	48 89 c7             	mov    %rax,%rdi
   106f0:	e8 fe 6f ff ff       	callq  76f3 <transparent_crc>
   106f5:	8b 45 ec             	mov    -0x14(%rbp),%eax
   106f8:	48 98                	cltq   
   106fa:	8b 55 e8             	mov    -0x18(%rbp),%edx
   106fd:	48 63 ca             	movslq %edx,%rcx
   10700:	48 89 c2             	mov    %rax,%rdx
   10703:	48 c1 e2 03          	shl    $0x3,%rdx
   10707:	48 01 c2             	add    %rax,%rdx
   1070a:	48 8d 04 12          	lea    (%rdx,%rdx,1),%rax
   1070e:	48 89 c2             	mov    %rax,%rdx
   10711:	48 89 c8             	mov    %rcx,%rax
   10714:	48 c1 e0 03          	shl    $0x3,%rax
   10718:	48 01 c8             	add    %rcx,%rax
   1071b:	48 c1 e0 03          	shl    $0x3,%rax
   1071f:	48 01 c2             	add    %rax,%rdx
   10722:	48 8d 05 b7 ce 00 00 	lea    0xceb7(%rip),%rax        # 1d5e0 <g_391>
   10729:	48 01 d0             	add    %rdx,%rax
   1072c:	48 8b 40 06          	mov    0x6(%rax),%rax
   10730:	48 89 c1             	mov    %rax,%rcx
   10733:	8b 45 f4             	mov    -0xc(%rbp),%eax
   10736:	89 c2                	mov    %eax,%edx
   10738:	48 8d 35 01 7d 00 00 	lea    0x7d01(%rip),%rsi        # 18440 <g_2382+0x1340>
   1073f:	48 89 cf             	mov    %rcx,%rdi
   10742:	e8 ac 6f ff ff       	callq  76f3 <transparent_crc>
   10747:	8b 45 ec             	mov    -0x14(%rbp),%eax
   1074a:	48 98                	cltq   
   1074c:	8b 55 e8             	mov    -0x18(%rbp),%edx
   1074f:	48 63 ca             	movslq %edx,%rcx
   10752:	48 89 c2             	mov    %rax,%rdx
   10755:	48 c1 e2 03          	shl    $0x3,%rdx
   10759:	48 01 c2             	add    %rax,%rdx
   1075c:	48 8d 04 12          	lea    (%rdx,%rdx,1),%rax
   10760:	48 89 c2             	mov    %rax,%rdx
   10763:	48 89 c8             	mov    %rcx,%rax
   10766:	48 c1 e0 03          	shl    $0x3,%rax
   1076a:	48 01 c8             	add    %rcx,%rax
   1076d:	48 c1 e0 03          	shl    $0x3,%rax
   10771:	48 01 c2             	add    %rax,%rdx
   10774:	48 8d 05 65 ce 00 00 	lea    0xce65(%rip),%rax        # 1d5e0 <g_391>
   1077b:	48 01 d0             	add    %rdx,%rax
   1077e:	0f b7 50 0e          	movzwl 0xe(%rax),%edx
   10782:	0f b7 d2             	movzwl %dx,%edx
   10785:	0f b7 40 10          	movzwl 0x10(%rax),%eax
   10789:	0f b7 c0             	movzwl %ax,%eax
   1078c:	83 e0 3f             	and    $0x3f,%eax
   1078f:	48 c1 e0 10          	shl    $0x10,%rax
   10793:	48 09 d0             	or     %rdx,%rax
   10796:	48 c1 e0 2a          	shl    $0x2a,%rax
   1079a:	48 c1 f8 2a          	sar    $0x2a,%rax
   1079e:	48 98                	cltq   
   107a0:	8b 55 f4             	mov    -0xc(%rbp),%edx
   107a3:	48 8d 35 a5 7c 00 00 	lea    0x7ca5(%rip),%rsi        # 1844f <g_2382+0x134f>
   107aa:	48 89 c7             	mov    %rax,%rdi
   107ad:	e8 41 6f ff ff       	callq  76f3 <transparent_crc>
   107b2:	8b 45 ec             	mov    -0x14(%rbp),%eax
   107b5:	48 98                	cltq   
   107b7:	8b 55 e8             	mov    -0x18(%rbp),%edx
   107ba:	48 63 ca             	movslq %edx,%rcx
   107bd:	48 89 c2             	mov    %rax,%rdx
   107c0:	48 c1 e2 03          	shl    $0x3,%rdx
   107c4:	48 01 c2             	add    %rax,%rdx
   107c7:	48 8d 04 12          	lea    (%rdx,%rdx,1),%rax
   107cb:	48 89 c2             	mov    %rax,%rdx
   107ce:	48 89 c8             	mov    %rcx,%rax
   107d1:	48 c1 e0 03          	shl    $0x3,%rax
   107d5:	48 01 c8             	add    %rcx,%rax
   107d8:	48 c1 e0 03          	shl    $0x3,%rax
   107dc:	48 01 c2             	add    %rax,%rdx
   107df:	48 8d 05 0a ce 00 00 	lea    0xce0a(%rip),%rax        # 1d5f0 <g_391+0x10>
   107e6:	48 01 d0             	add    %rdx,%rax
   107e9:	0f b7 00             	movzwl (%rax),%eax
   107ec:	66 c1 e8 06          	shr    $0x6,%ax
   107f0:	83 e0 07             	and    $0x7,%eax
   107f3:	0f b6 c0             	movzbl %al,%eax
   107f6:	8b 55 f4             	mov    -0xc(%rbp),%edx
   107f9:	48 8d 35 5e 7c 00 00 	lea    0x7c5e(%rip),%rsi        # 1845e <g_2382+0x135e>
   10800:	48 89 c7             	mov    %rax,%rdi
   10803:	e8 eb 6e ff ff       	callq  76f3 <transparent_crc>
   10808:	8b 45 ec             	mov    -0x14(%rbp),%eax
   1080b:	48 98                	cltq   
   1080d:	8b 55 e8             	mov    -0x18(%rbp),%edx
   10810:	48 63 ca             	movslq %edx,%rcx
   10813:	48 89 c2             	mov    %rax,%rdx
   10816:	48 c1 e2 03          	shl    $0x3,%rdx
   1081a:	48 01 c2             	add    %rax,%rdx
   1081d:	48 8d 04 12          	lea    (%rdx,%rdx,1),%rax
   10821:	48 89 c2             	mov    %rax,%rdx
   10824:	48 89 c8             	mov    %rcx,%rax
   10827:	48 c1 e0 03          	shl    $0x3,%rax
   1082b:	48 01 c8             	add    %rcx,%rax
   1082e:	48 c1 e0 03          	shl    $0x3,%rax
   10832:	48 01 c2             	add    %rax,%rdx
   10835:	48 8d 05 b4 cd 00 00 	lea    0xcdb4(%rip),%rax        # 1d5f0 <g_391+0x10>
   1083c:	48 01 d0             	add    %rdx,%rax
   1083f:	0f b7 00             	movzwl (%rax),%eax
   10842:	66 c1 e8 09          	shr    $0x9,%ax
   10846:	83 e0 07             	and    $0x7,%eax
   10849:	0f b6 c0             	movzbl %al,%eax
   1084c:	8b 55 f4             	mov    -0xc(%rbp),%edx
   1084f:	48 8d 35 17 7c 00 00 	lea    0x7c17(%rip),%rsi        # 1846d <g_2382+0x136d>
   10856:	48 89 c7             	mov    %rax,%rdi
   10859:	e8 95 6e ff ff       	callq  76f3 <transparent_crc>
   1085e:	83 7d f4 00          	cmpl   $0x0,-0xc(%rbp)
   10862:	74 19                	je     1087d <main+0x1705>
   10864:	8b 55 ec             	mov    -0x14(%rbp),%edx
   10867:	8b 45 e8             	mov    -0x18(%rbp),%eax
   1086a:	89 c6                	mov    %eax,%esi
   1086c:	48 8d 3d e9 77 00 00 	lea    0x77e9(%rip),%rdi        # 1805c <g_2382+0xf5c>
   10873:	b8 00 00 00 00       	mov    $0x0,%eax
   10878:	e8 03 58 ff ff       	callq  6080 <printf@plt>
   1087d:	83 45 ec 01          	addl   $0x1,-0x14(%rbp)
   10881:	83 7d ec 03          	cmpl   $0x3,-0x14(%rbp)
   10885:	0f 8e 95 fd ff ff    	jle    10620 <main+0x14a8>
   1088b:	83 45 e8 01          	addl   $0x1,-0x18(%rbp)
   1088f:	83 7d e8 01          	cmpl   $0x1,-0x18(%rbp)
   10893:	0f 8e 7b fd ff ff    	jle    10614 <main+0x149c>
   10899:	c7 45 e8 00 00 00 00 	movl   $0x0,-0x18(%rbp)
   108a0:	e9 4a 02 00 00       	jmpq   10aef <main+0x1977>
   108a5:	8b 45 e8             	mov    -0x18(%rbp),%eax
   108a8:	48 63 d0             	movslq %eax,%rdx
   108ab:	48 89 d0             	mov    %rdx,%rax
   108ae:	48 c1 e0 02          	shl    $0x2,%rax
   108b2:	48 01 d0             	add    %rdx,%rax
   108b5:	48 c1 e0 03          	shl    $0x3,%rax
   108b9:	48 89 c2             	mov    %rax,%rdx
   108bc:	48 8d 05 bd cd 00 00 	lea    0xcdbd(%rip),%rax        # 1d680 <g_447>
   108c3:	48 8b 04 02          	mov    (%rdx,%rax,1),%rax
   108c7:	8b 55 f4             	mov    -0xc(%rbp),%edx
   108ca:	48 8d 35 ab 7b 00 00 	lea    0x7bab(%rip),%rsi        # 1847c <g_2382+0x137c>
   108d1:	48 89 c7             	mov    %rax,%rdi
   108d4:	e8 1a 6e ff ff       	callq  76f3 <transparent_crc>
   108d9:	8b 45 e8             	mov    -0x18(%rbp),%eax
   108dc:	48 63 d0             	movslq %eax,%rdx
   108df:	48 89 d0             	mov    %rdx,%rax
   108e2:	48 c1 e0 02          	shl    $0x2,%rax
   108e6:	48 01 d0             	add    %rdx,%rax
   108e9:	48 c1 e0 03          	shl    $0x3,%rax
   108ed:	48 89 c2             	mov    %rax,%rdx
   108f0:	48 8d 05 91 cd 00 00 	lea    0xcd91(%rip),%rax        # 1d688 <g_447+0x8>
   108f7:	0f b6 04 02          	movzbl (%rdx,%rax,1),%eax
   108fb:	0f b6 c0             	movzbl %al,%eax
   108fe:	8b 55 f4             	mov    -0xc(%rbp),%edx
   10901:	48 8d 35 80 7b 00 00 	lea    0x7b80(%rip),%rsi        # 18488 <g_2382+0x1388>
   10908:	48 89 c7             	mov    %rax,%rdi
   1090b:	e8 e3 6d ff ff       	callq  76f3 <transparent_crc>
   10910:	8b 45 e8             	mov    -0x18(%rbp),%eax
   10913:	48 63 d0             	movslq %eax,%rdx
   10916:	48 89 d0             	mov    %rdx,%rax
   10919:	48 c1 e0 02          	shl    $0x2,%rax
   1091d:	48 01 d0             	add    %rdx,%rax
   10920:	48 c1 e0 03          	shl    $0x3,%rax
   10924:	48 89 c2             	mov    %rax,%rdx
   10927:	48 8d 05 5c cd 00 00 	lea    0xcd5c(%rip),%rax        # 1d68a <g_447+0xa>
   1092e:	0f b7 04 02          	movzwl (%rdx,%rax,1),%eax
   10932:	0f b7 c0             	movzwl %ax,%eax
   10935:	8b 55 f4             	mov    -0xc(%rbp),%edx
   10938:	48 8d 35 55 7b 00 00 	lea    0x7b55(%rip),%rsi        # 18494 <g_2382+0x1394>
   1093f:	48 89 c7             	mov    %rax,%rdi
   10942:	e8 ac 6d ff ff       	callq  76f3 <transparent_crc>
   10947:	8b 45 e8             	mov    -0x18(%rbp),%eax
   1094a:	48 63 d0             	movslq %eax,%rdx
   1094d:	48 89 d0             	mov    %rdx,%rax
   10950:	48 c1 e0 02          	shl    $0x2,%rax
   10954:	48 01 d0             	add    %rdx,%rax
   10957:	48 c1 e0 03          	shl    $0x3,%rax
   1095b:	48 89 c2             	mov    %rax,%rdx
   1095e:	48 8d 05 27 cd 00 00 	lea    0xcd27(%rip),%rax        # 1d68c <g_447+0xc>
   10965:	0f b6 04 02          	movzbl (%rdx,%rax,1),%eax
   10969:	48 0f be c0          	movsbq %al,%rax
   1096d:	8b 55 f4             	mov    -0xc(%rbp),%edx
   10970:	48 8d 35 29 7b 00 00 	lea    0x7b29(%rip),%rsi        # 184a0 <g_2382+0x13a0>
   10977:	48 89 c7             	mov    %rax,%rdi
   1097a:	e8 74 6d ff ff       	callq  76f3 <transparent_crc>
   1097f:	8b 45 e8             	mov    -0x18(%rbp),%eax
   10982:	48 63 d0             	movslq %eax,%rdx
   10985:	48 89 d0             	mov    %rdx,%rax
   10988:	48 c1 e0 02          	shl    $0x2,%rax
   1098c:	48 01 d0             	add    %rdx,%rax
   1098f:	48 c1 e0 03          	shl    $0x3,%rax
   10993:	48 89 c2             	mov    %rax,%rdx
   10996:	48 8d 05 e3 cc 00 00 	lea    0xcce3(%rip),%rax        # 1d680 <g_447>
   1099d:	0f b6 44 02 0d       	movzbl 0xd(%rdx,%rax,1),%eax
   109a2:	83 e0 1f             	and    $0x1f,%eax
   109a5:	0f b6 c0             	movzbl %al,%eax
   109a8:	8b 55 f4             	mov    -0xc(%rbp),%edx
   109ab:	48 8d 35 fa 7a 00 00 	lea    0x7afa(%rip),%rsi        # 184ac <g_2382+0x13ac>
   109b2:	48 89 c7             	mov    %rax,%rdi
   109b5:	e8 39 6d ff ff       	callq  76f3 <transparent_crc>
   109ba:	8b 45 e8             	mov    -0x18(%rbp),%eax
   109bd:	48 63 d0             	movslq %eax,%rdx
   109c0:	48 89 d0             	mov    %rdx,%rax
   109c3:	48 c1 e0 02          	shl    $0x2,%rax
   109c7:	48 01 d0             	add    %rdx,%rax
   109ca:	48 c1 e0 03          	shl    $0x3,%rax
   109ce:	48 89 c2             	mov    %rax,%rdx
   109d1:	48 8d 05 a8 cc 00 00 	lea    0xcca8(%rip),%rax        # 1d680 <g_447>
   109d8:	8b 44 02 0c          	mov    0xc(%rdx,%rax,1),%eax
   109dc:	c1 e8 0d             	shr    $0xd,%eax
   109df:	66 25 ff 0f          	and    $0xfff,%ax
   109e3:	0f b7 c0             	movzwl %ax,%eax
   109e6:	8b 55 f4             	mov    -0xc(%rbp),%edx
   109e9:	48 8d 35 c8 7a 00 00 	lea    0x7ac8(%rip),%rsi        # 184b8 <g_2382+0x13b8>
   109f0:	48 89 c7             	mov    %rax,%rdi
   109f3:	e8 fb 6c ff ff       	callq  76f3 <transparent_crc>
   109f8:	8b 45 e8             	mov    -0x18(%rbp),%eax
   109fb:	48 63 d0             	movslq %eax,%rdx
   109fe:	48 89 d0             	mov    %rdx,%rax
   10a01:	48 c1 e0 02          	shl    $0x2,%rax
   10a05:	48 01 d0             	add    %rdx,%rax
   10a08:	48 c1 e0 03          	shl    $0x3,%rax
   10a0c:	48 89 c2             	mov    %rax,%rdx
   10a0f:	48 8d 05 7a cc 00 00 	lea    0xcc7a(%rip),%rax        # 1d690 <g_447+0x10>
   10a16:	8b 04 02             	mov    (%rdx,%rax,1),%eax
   10a19:	48 98                	cltq   
   10a1b:	8b 55 f4             	mov    -0xc(%rbp),%edx
   10a1e:	48 8d 35 9f 7a 00 00 	lea    0x7a9f(%rip),%rsi        # 184c4 <g_2382+0x13c4>
   10a25:	48 89 c7             	mov    %rax,%rdi
   10a28:	e8 c6 6c ff ff       	callq  76f3 <transparent_crc>
   10a2d:	8b 45 e8             	mov    -0x18(%rbp),%eax
   10a30:	48 63 d0             	movslq %eax,%rdx
   10a33:	48 89 d0             	mov    %rdx,%rax
   10a36:	48 c1 e0 02          	shl    $0x2,%rax
   10a3a:	48 01 d0             	add    %rdx,%rax
   10a3d:	48 c1 e0 03          	shl    $0x3,%rax
   10a41:	48 89 c2             	mov    %rax,%rdx
   10a44:	48 8d 05 49 cc 00 00 	lea    0xcc49(%rip),%rax        # 1d694 <g_447+0x14>
   10a4b:	8b 04 02             	mov    (%rdx,%rax,1),%eax
   10a4e:	89 c1                	mov    %eax,%ecx
   10a50:	8b 45 f4             	mov    -0xc(%rbp),%eax
   10a53:	89 c2                	mov    %eax,%edx
   10a55:	48 8d 35 74 7a 00 00 	lea    0x7a74(%rip),%rsi        # 184d0 <g_2382+0x13d0>
   10a5c:	48 89 cf             	mov    %rcx,%rdi
   10a5f:	e8 8f 6c ff ff       	callq  76f3 <transparent_crc>
   10a64:	8b 45 e8             	mov    -0x18(%rbp),%eax
   10a67:	48 63 d0             	movslq %eax,%rdx
   10a6a:	48 89 d0             	mov    %rdx,%rax
   10a6d:	48 c1 e0 02          	shl    $0x2,%rax
   10a71:	48 01 d0             	add    %rdx,%rax
   10a74:	48 c1 e0 03          	shl    $0x3,%rax
   10a78:	48 89 c2             	mov    %rax,%rdx
   10a7b:	48 8d 05 16 cc 00 00 	lea    0xcc16(%rip),%rax        # 1d698 <g_447+0x18>
   10a82:	8b 04 02             	mov    (%rdx,%rax,1),%eax
   10a85:	89 c1                	mov    %eax,%ecx
   10a87:	8b 45 f4             	mov    -0xc(%rbp),%eax
   10a8a:	89 c2                	mov    %eax,%edx
   10a8c:	48 8d 35 49 7a 00 00 	lea    0x7a49(%rip),%rsi        # 184dc <g_2382+0x13dc>
   10a93:	48 89 cf             	mov    %rcx,%rdi
   10a96:	e8 58 6c ff ff       	callq  76f3 <transparent_crc>
   10a9b:	8b 45 e8             	mov    -0x18(%rbp),%eax
   10a9e:	48 63 d0             	movslq %eax,%rdx
   10aa1:	48 89 d0             	mov    %rdx,%rax
   10aa4:	48 c1 e0 02          	shl    $0x2,%rax
   10aa8:	48 01 d0             	add    %rdx,%rax
   10aab:	48 c1 e0 03          	shl    $0x3,%rax
   10aaf:	48 89 c2             	mov    %rax,%rdx
   10ab2:	48 8d 05 e7 cb 00 00 	lea    0xcbe7(%rip),%rax        # 1d6a0 <g_447+0x20>
   10ab9:	48 8b 04 02          	mov    (%rdx,%rax,1),%rax
   10abd:	8b 55 f4             	mov    -0xc(%rbp),%edx
   10ac0:	48 8d 35 21 7a 00 00 	lea    0x7a21(%rip),%rsi        # 184e8 <g_2382+0x13e8>
   10ac7:	48 89 c7             	mov    %rax,%rdi
   10aca:	e8 24 6c ff ff       	callq  76f3 <transparent_crc>
   10acf:	83 7d f4 00          	cmpl   $0x0,-0xc(%rbp)
   10ad3:	74 16                	je     10aeb <main+0x1973>
   10ad5:	8b 45 e8             	mov    -0x18(%rbp),%eax
   10ad8:	89 c6                	mov    %eax,%esi
   10ada:	48 8d 3d 16 77 00 00 	lea    0x7716(%rip),%rdi        # 181f7 <g_2382+0x10f7>
   10ae1:	b8 00 00 00 00       	mov    $0x0,%eax
   10ae6:	e8 95 55 ff ff       	callq  6080 <printf@plt>
   10aeb:	83 45 e8 01          	addl   $0x1,-0x18(%rbp)
   10aef:	83 7d e8 06          	cmpl   $0x6,-0x18(%rbp)
   10af3:	0f 8e ac fd ff ff    	jle    108a5 <main+0x172d>
   10af9:	8b 05 a1 cc 00 00    	mov    0xcca1(%rip),%eax        # 1d7a0 <g_474>
   10aff:	c1 e0 0d             	shl    $0xd,%eax
   10b02:	c1 f8 0d             	sar    $0xd,%eax
   10b05:	48 98                	cltq   
   10b07:	8b 55 f4             	mov    -0xc(%rbp),%edx
   10b0a:	48 8d 35 e3 79 00 00 	lea    0x79e3(%rip),%rsi        # 184f4 <g_2382+0x13f4>
   10b11:	48 89 c7             	mov    %rax,%rdi
   10b14:	e8 da 6b ff ff       	callq  76f3 <transparent_crc>
   10b19:	48 8b 05 80 cc 00 00 	mov    0xcc80(%rip),%rax        # 1d7a0 <g_474>
   10b20:	48 c1 e0 11          	shl    $0x11,%rax
   10b24:	48 c1 f8 24          	sar    $0x24,%rax
   10b28:	48 98                	cltq   
   10b2a:	8b 55 f4             	mov    -0xc(%rbp),%edx
   10b2d:	48 8d 35 c9 79 00 00 	lea    0x79c9(%rip),%rsi        # 184fd <g_2382+0x13fd>
   10b34:	48 89 c7             	mov    %rax,%rdi
   10b37:	e8 b7 6b ff ff       	callq  76f3 <transparent_crc>
   10b3c:	48 8b 05 63 cc 00 00 	mov    0xcc63(%rip),%rax        # 1d7a6 <g_474+0x6>
   10b43:	48 89 c1             	mov    %rax,%rcx
   10b46:	8b 45 f4             	mov    -0xc(%rbp),%eax
   10b49:	89 c2                	mov    %eax,%edx
   10b4b:	48 8d 35 b4 79 00 00 	lea    0x79b4(%rip),%rsi        # 18506 <g_2382+0x1406>
   10b52:	48 89 cf             	mov    %rcx,%rdi
   10b55:	e8 99 6b ff ff       	callq  76f3 <transparent_crc>
   10b5a:	48 8b 05 47 cc 00 00 	mov    0xcc47(%rip),%rax        # 1d7a8 <g_474+0x8>
   10b61:	48 c1 e8 30          	shr    $0x30,%rax
   10b65:	48 89 c2             	mov    %rax,%rdx
   10b68:	48 8b 05 41 cc 00 00 	mov    0xcc41(%rip),%rax        # 1d7b0 <g_474+0x10>
   10b6f:	83 e0 3f             	and    $0x3f,%eax
   10b72:	48 c1 e0 10          	shl    $0x10,%rax
   10b76:	48 09 d0             	or     %rdx,%rax
   10b79:	48 c1 e0 2a          	shl    $0x2a,%rax
   10b7d:	48 c1 f8 2a          	sar    $0x2a,%rax
   10b81:	48 98                	cltq   
   10b83:	8b 55 f4             	mov    -0xc(%rbp),%edx
   10b86:	48 8d 35 82 79 00 00 	lea    0x7982(%rip),%rsi        # 1850f <g_2382+0x140f>
   10b8d:	48 89 c7             	mov    %rax,%rdi
   10b90:	e8 5e 6b ff ff       	callq  76f3 <transparent_crc>
   10b95:	0f b7 05 14 cc 00 00 	movzwl 0xcc14(%rip),%eax        # 1d7b0 <g_474+0x10>
   10b9c:	66 c1 e8 06          	shr    $0x6,%ax
   10ba0:	83 e0 07             	and    $0x7,%eax
   10ba3:	0f b6 c0             	movzbl %al,%eax
   10ba6:	8b 55 f4             	mov    -0xc(%rbp),%edx
   10ba9:	48 8d 35 68 79 00 00 	lea    0x7968(%rip),%rsi        # 18518 <g_2382+0x1418>
   10bb0:	48 89 c7             	mov    %rax,%rdi
   10bb3:	e8 3b 6b ff ff       	callq  76f3 <transparent_crc>
   10bb8:	48 8b 05 f1 cb 00 00 	mov    0xcbf1(%rip),%rax        # 1d7b0 <g_474+0x10>
   10bbf:	48 c1 e8 09          	shr    $0x9,%rax
   10bc3:	83 e0 07             	and    $0x7,%eax
   10bc6:	0f b6 c0             	movzbl %al,%eax
   10bc9:	8b 55 f4             	mov    -0xc(%rbp),%edx
   10bcc:	48 8d 35 4e 79 00 00 	lea    0x794e(%rip),%rsi        # 18521 <g_2382+0x1421>
   10bd3:	48 89 c7             	mov    %rax,%rdi
   10bd6:	e8 18 6b ff ff       	callq  76f3 <transparent_crc>
   10bdb:	8b 05 df cb 00 00    	mov    0xcbdf(%rip),%eax        # 1d7c0 <g_485>
   10be1:	c1 e0 0d             	shl    $0xd,%eax
   10be4:	c1 f8 0d             	sar    $0xd,%eax
   10be7:	48 98                	cltq   
   10be9:	8b 55 f4             	mov    -0xc(%rbp),%edx
   10bec:	48 8d 35 37 79 00 00 	lea    0x7937(%rip),%rsi        # 1852a <g_2382+0x142a>
   10bf3:	48 89 c7             	mov    %rax,%rdi
   10bf6:	e8 f8 6a ff ff       	callq  76f3 <transparent_crc>
   10bfb:	48 8b 05 be cb 00 00 	mov    0xcbbe(%rip),%rax        # 1d7c0 <g_485>
   10c02:	48 c1 e0 11          	shl    $0x11,%rax
   10c06:	48 c1 f8 24          	sar    $0x24,%rax
   10c0a:	48 98                	cltq   
   10c0c:	8b 55 f4             	mov    -0xc(%rbp),%edx
   10c0f:	48 8d 35 1d 79 00 00 	lea    0x791d(%rip),%rsi        # 18533 <g_2382+0x1433>
   10c16:	48 89 c7             	mov    %rax,%rdi
   10c19:	e8 d5 6a ff ff       	callq  76f3 <transparent_crc>
   10c1e:	48 8b 05 a1 cb 00 00 	mov    0xcba1(%rip),%rax        # 1d7c6 <g_485+0x6>
   10c25:	48 89 c1             	mov    %rax,%rcx
   10c28:	8b 45 f4             	mov    -0xc(%rbp),%eax
   10c2b:	89 c2                	mov    %eax,%edx
   10c2d:	48 8d 35 08 79 00 00 	lea    0x7908(%rip),%rsi        # 1853c <g_2382+0x143c>
   10c34:	48 89 cf             	mov    %rcx,%rdi
   10c37:	e8 b7 6a ff ff       	callq  76f3 <transparent_crc>
   10c3c:	48 8b 05 85 cb 00 00 	mov    0xcb85(%rip),%rax        # 1d7c8 <g_485+0x8>
   10c43:	48 c1 e8 30          	shr    $0x30,%rax
   10c47:	48 89 c2             	mov    %rax,%rdx
   10c4a:	48 8b 05 7f cb 00 00 	mov    0xcb7f(%rip),%rax        # 1d7d0 <g_485+0x10>
   10c51:	83 e0 3f             	and    $0x3f,%eax
   10c54:	48 c1 e0 10          	shl    $0x10,%rax
   10c58:	48 09 d0             	or     %rdx,%rax
   10c5b:	48 c1 e0 2a          	shl    $0x2a,%rax
   10c5f:	48 c1 f8 2a          	sar    $0x2a,%rax
   10c63:	48 98                	cltq   
   10c65:	8b 55 f4             	mov    -0xc(%rbp),%edx
   10c68:	48 8d 35 d6 78 00 00 	lea    0x78d6(%rip),%rsi        # 18545 <g_2382+0x1445>
   10c6f:	48 89 c7             	mov    %rax,%rdi
   10c72:	e8 7c 6a ff ff       	callq  76f3 <transparent_crc>
   10c77:	0f b7 05 52 cb 00 00 	movzwl 0xcb52(%rip),%eax        # 1d7d0 <g_485+0x10>
   10c7e:	66 c1 e8 06          	shr    $0x6,%ax
   10c82:	83 e0 07             	and    $0x7,%eax
   10c85:	0f b6 c0             	movzbl %al,%eax
   10c88:	8b 55 f4             	mov    -0xc(%rbp),%edx
   10c8b:	48 8d 35 bc 78 00 00 	lea    0x78bc(%rip),%rsi        # 1854e <g_2382+0x144e>
   10c92:	48 89 c7             	mov    %rax,%rdi
   10c95:	e8 59 6a ff ff       	callq  76f3 <transparent_crc>
   10c9a:	48 8b 05 2f cb 00 00 	mov    0xcb2f(%rip),%rax        # 1d7d0 <g_485+0x10>
   10ca1:	48 c1 e8 09          	shr    $0x9,%rax
   10ca5:	83 e0 07             	and    $0x7,%eax
   10ca8:	0f b6 c0             	movzbl %al,%eax
   10cab:	8b 55 f4             	mov    -0xc(%rbp),%edx
   10cae:	48 8d 35 a2 78 00 00 	lea    0x78a2(%rip),%rsi        # 18557 <g_2382+0x1457>
   10cb5:	48 89 c7             	mov    %rax,%rdi
   10cb8:	e8 36 6a ff ff       	callq  76f3 <transparent_crc>
   10cbd:	8b 05 15 cb 00 00    	mov    0xcb15(%rip),%eax        # 1d7d8 <g_515>
   10cc3:	25 ff ff ff 1f       	and    $0x1fffffff,%eax
   10cc8:	89 c1                	mov    %eax,%ecx
   10cca:	8b 45 f4             	mov    -0xc(%rbp),%eax
   10ccd:	89 c2                	mov    %eax,%edx
   10ccf:	48 8d 35 8a 78 00 00 	lea    0x788a(%rip),%rsi        # 18560 <g_2382+0x1460>
   10cd6:	48 89 cf             	mov    %rcx,%rdi
   10cd9:	e8 15 6a ff ff       	callq  76f3 <transparent_crc>
   10cde:	0f b7 05 f7 ca 00 00 	movzwl 0xcaf7(%rip),%eax        # 1d7dc <g_515+0x4>
   10ce5:	c1 e0 06             	shl    $0x6,%eax
   10ce8:	66 c1 f8 06          	sar    $0x6,%ax
   10cec:	48 0f bf c0          	movswq %ax,%rax
   10cf0:	8b 55 f4             	mov    -0xc(%rbp),%edx
   10cf3:	48 8d 35 6f 78 00 00 	lea    0x786f(%rip),%rsi        # 18569 <g_2382+0x1469>
   10cfa:	48 89 c7             	mov    %rax,%rdi
   10cfd:	e8 f1 69 ff ff       	callq  76f3 <transparent_crc>
   10d02:	48 8b 05 cf ca 00 00 	mov    0xcacf(%rip),%rax        # 1d7d8 <g_515>
   10d09:	48 c1 e8 2a          	shr    $0x2a,%rax
   10d0d:	66 25 ff 3f          	and    $0x3fff,%ax
   10d11:	0f b7 c0             	movzwl %ax,%eax
   10d14:	8b 55 f4             	mov    -0xc(%rbp),%edx
   10d17:	48 8d 35 54 78 00 00 	lea    0x7854(%rip),%rsi        # 18572 <g_2382+0x1472>
   10d1e:	48 89 c7             	mov    %rax,%rdi
   10d21:	e8 cd 69 ff ff       	callq  76f3 <transparent_crc>
   10d26:	0f b7 05 b3 ca 00 00 	movzwl 0xcab3(%rip),%eax        # 1d7e0 <g_515+0x8>
   10d2d:	0f b7 c0             	movzwl %ax,%eax
   10d30:	8b 55 f4             	mov    -0xc(%rbp),%edx
   10d33:	48 8d 35 41 78 00 00 	lea    0x7841(%rip),%rsi        # 1857b <g_2382+0x147b>
   10d3a:	48 89 c7             	mov    %rax,%rdi
   10d3d:	e8 b1 69 ff ff       	callq  76f3 <transparent_crc>
   10d42:	0f b7 05 99 ca 00 00 	movzwl 0xca99(%rip),%eax        # 1d7e2 <g_515+0xa>
   10d49:	66 25 ff 03          	and    $0x3ff,%ax
   10d4d:	0f b7 c0             	movzwl %ax,%eax
   10d50:	8b 55 f4             	mov    -0xc(%rbp),%edx
   10d53:	48 8d 35 2a 78 00 00 	lea    0x782a(%rip),%rsi        # 18584 <g_2382+0x1484>
   10d5a:	48 89 c7             	mov    %rax,%rdi
   10d5d:	e8 91 69 ff ff       	callq  76f3 <transparent_crc>
   10d62:	8b 05 80 ca 00 00    	mov    0xca80(%rip),%eax        # 1d7e8 <g_517>
   10d68:	25 ff ff ff 1f       	and    $0x1fffffff,%eax
   10d6d:	89 c1                	mov    %eax,%ecx
   10d6f:	8b 45 f4             	mov    -0xc(%rbp),%eax
   10d72:	89 c2                	mov    %eax,%edx
   10d74:	48 8d 35 12 78 00 00 	lea    0x7812(%rip),%rsi        # 1858d <g_2382+0x148d>
   10d7b:	48 89 cf             	mov    %rcx,%rdi
   10d7e:	e8 70 69 ff ff       	callq  76f3 <transparent_crc>
   10d83:	0f b7 05 62 ca 00 00 	movzwl 0xca62(%rip),%eax        # 1d7ec <g_517+0x4>
   10d8a:	c1 e0 06             	shl    $0x6,%eax
   10d8d:	66 c1 f8 06          	sar    $0x6,%ax
   10d91:	48 0f bf c0          	movswq %ax,%rax
   10d95:	8b 55 f4             	mov    -0xc(%rbp),%edx
   10d98:	48 8d 35 f7 77 00 00 	lea    0x77f7(%rip),%rsi        # 18596 <g_2382+0x1496>
   10d9f:	48 89 c7             	mov    %rax,%rdi
   10da2:	e8 4c 69 ff ff       	callq  76f3 <transparent_crc>
   10da7:	48 8b 05 3a ca 00 00 	mov    0xca3a(%rip),%rax        # 1d7e8 <g_517>
   10dae:	48 c1 e8 2a          	shr    $0x2a,%rax
   10db2:	66 25 ff 3f          	and    $0x3fff,%ax
   10db6:	0f b7 c0             	movzwl %ax,%eax
   10db9:	8b 55 f4             	mov    -0xc(%rbp),%edx
   10dbc:	48 8d 35 dc 77 00 00 	lea    0x77dc(%rip),%rsi        # 1859f <g_2382+0x149f>
   10dc3:	48 89 c7             	mov    %rax,%rdi
   10dc6:	e8 28 69 ff ff       	callq  76f3 <transparent_crc>
   10dcb:	0f b7 05 1e ca 00 00 	movzwl 0xca1e(%rip),%eax        # 1d7f0 <g_517+0x8>
   10dd2:	0f b7 c0             	movzwl %ax,%eax
   10dd5:	8b 55 f4             	mov    -0xc(%rbp),%edx
   10dd8:	48 8d 35 c9 77 00 00 	lea    0x77c9(%rip),%rsi        # 185a8 <g_2382+0x14a8>
   10ddf:	48 89 c7             	mov    %rax,%rdi
   10de2:	e8 0c 69 ff ff       	callq  76f3 <transparent_crc>
   10de7:	0f b7 05 04 ca 00 00 	movzwl 0xca04(%rip),%eax        # 1d7f2 <g_517+0xa>
   10dee:	66 25 ff 03          	and    $0x3ff,%ax
   10df2:	0f b7 c0             	movzwl %ax,%eax
   10df5:	8b 55 f4             	mov    -0xc(%rbp),%edx
   10df8:	48 8d 35 b2 77 00 00 	lea    0x77b2(%rip),%rsi        # 185b1 <g_2382+0x14b1>
   10dff:	48 89 c7             	mov    %rax,%rdi
   10e02:	e8 ec 68 ff ff       	callq  76f3 <transparent_crc>
   10e07:	48 8b 05 f2 c9 00 00 	mov    0xc9f2(%rip),%rax        # 1d800 <g_526>
   10e0e:	8b 55 f4             	mov    -0xc(%rbp),%edx
   10e11:	48 8d 35 a2 77 00 00 	lea    0x77a2(%rip),%rsi        # 185ba <g_2382+0x14ba>
   10e18:	48 89 c7             	mov    %rax,%rdi
   10e1b:	e8 d3 68 ff ff       	callq  76f3 <transparent_crc>
   10e20:	0f b6 05 e1 c9 00 00 	movzbl 0xc9e1(%rip),%eax        # 1d808 <g_526+0x8>
   10e27:	0f b6 c0             	movzbl %al,%eax
   10e2a:	8b 55 f4             	mov    -0xc(%rbp),%edx
   10e2d:	48 8d 35 8f 77 00 00 	lea    0x778f(%rip),%rsi        # 185c3 <g_2382+0x14c3>
   10e34:	48 89 c7             	mov    %rax,%rdi
   10e37:	e8 b7 68 ff ff       	callq  76f3 <transparent_crc>
   10e3c:	0f b7 05 c7 c9 00 00 	movzwl 0xc9c7(%rip),%eax        # 1d80a <g_526+0xa>
   10e43:	0f b7 c0             	movzwl %ax,%eax
   10e46:	8b 55 f4             	mov    -0xc(%rbp),%edx
   10e49:	48 8d 35 7c 77 00 00 	lea    0x777c(%rip),%rsi        # 185cc <g_2382+0x14cc>
   10e50:	48 89 c7             	mov    %rax,%rdi
   10e53:	e8 9b 68 ff ff       	callq  76f3 <transparent_crc>
   10e58:	0f b6 05 ad c9 00 00 	movzbl 0xc9ad(%rip),%eax        # 1d80c <g_526+0xc>
   10e5f:	48 0f be c0          	movsbq %al,%rax
   10e63:	8b 55 f4             	mov    -0xc(%rbp),%edx
   10e66:	48 8d 35 68 77 00 00 	lea    0x7768(%rip),%rsi        # 185d5 <g_2382+0x14d5>
   10e6d:	48 89 c7             	mov    %rax,%rdi
   10e70:	e8 7e 68 ff ff       	callq  76f3 <transparent_crc>
   10e75:	48 8b 05 8c c9 00 00 	mov    0xc98c(%rip),%rax        # 1d808 <g_526+0x8>
   10e7c:	48 c1 e8 28          	shr    $0x28,%rax
   10e80:	83 e0 1f             	and    $0x1f,%eax
   10e83:	0f b6 c0             	movzbl %al,%eax
   10e86:	8b 55 f4             	mov    -0xc(%rbp),%edx
   10e89:	48 8d 35 4e 77 00 00 	lea    0x774e(%rip),%rsi        # 185de <g_2382+0x14de>
   10e90:	48 89 c7             	mov    %rax,%rdi
   10e93:	e8 5b 68 ff ff       	callq  76f3 <transparent_crc>
   10e98:	48 8b 05 69 c9 00 00 	mov    0xc969(%rip),%rax        # 1d808 <g_526+0x8>
   10e9f:	48 c1 e8 2d          	shr    $0x2d,%rax
   10ea3:	66 25 ff 0f          	and    $0xfff,%ax
   10ea7:	0f b7 c0             	movzwl %ax,%eax
   10eaa:	8b 55 f4             	mov    -0xc(%rbp),%edx
   10ead:	48 8d 35 33 77 00 00 	lea    0x7733(%rip),%rsi        # 185e7 <g_2382+0x14e7>
   10eb4:	48 89 c7             	mov    %rax,%rdi
   10eb7:	e8 37 68 ff ff       	callq  76f3 <transparent_crc>
   10ebc:	8b 05 4e c9 00 00    	mov    0xc94e(%rip),%eax        # 1d810 <g_526+0x10>
   10ec2:	48 98                	cltq   
   10ec4:	8b 55 f4             	mov    -0xc(%rbp),%edx
   10ec7:	48 8d 35 22 77 00 00 	lea    0x7722(%rip),%rsi        # 185f0 <g_2382+0x14f0>
   10ece:	48 89 c7             	mov    %rax,%rdi
   10ed1:	e8 1d 68 ff ff       	callq  76f3 <transparent_crc>
   10ed6:	8b 05 38 c9 00 00    	mov    0xc938(%rip),%eax        # 1d814 <g_526+0x14>
   10edc:	89 c1                	mov    %eax,%ecx
   10ede:	8b 45 f4             	mov    -0xc(%rbp),%eax
   10ee1:	89 c2                	mov    %eax,%edx
   10ee3:	48 8d 35 0f 77 00 00 	lea    0x770f(%rip),%rsi        # 185f9 <g_2382+0x14f9>
   10eea:	48 89 cf             	mov    %rcx,%rdi
   10eed:	e8 01 68 ff ff       	callq  76f3 <transparent_crc>
   10ef2:	8b 05 20 c9 00 00    	mov    0xc920(%rip),%eax        # 1d818 <g_526+0x18>
   10ef8:	89 c1                	mov    %eax,%ecx
   10efa:	8b 45 f4             	mov    -0xc(%rbp),%eax
   10efd:	89 c2                	mov    %eax,%edx
   10eff:	48 8d 35 fc 76 00 00 	lea    0x76fc(%rip),%rsi        # 18602 <g_2382+0x1502>
   10f06:	48 89 cf             	mov    %rcx,%rdi
   10f09:	e8 e5 67 ff ff       	callq  76f3 <transparent_crc>
   10f0e:	48 8b 05 0b c9 00 00 	mov    0xc90b(%rip),%rax        # 1d820 <g_526+0x20>
   10f15:	8b 55 f4             	mov    -0xc(%rbp),%edx
   10f18:	48 8d 35 ec 76 00 00 	lea    0x76ec(%rip),%rsi        # 1860b <g_2382+0x150b>
   10f1f:	48 89 c7             	mov    %rax,%rdi
   10f22:	e8 cc 67 ff ff       	callq  76f3 <transparent_crc>
   10f27:	48 8b 05 fa c8 00 00 	mov    0xc8fa(%rip),%rax        # 1d828 <g_555>
   10f2e:	25 ff ff ff 1f       	and    $0x1fffffff,%eax
   10f33:	89 c1                	mov    %eax,%ecx
   10f35:	8b 45 f4             	mov    -0xc(%rbp),%eax
   10f38:	89 c2                	mov    %eax,%edx
   10f3a:	48 8d 35 d3 76 00 00 	lea    0x76d3(%rip),%rsi        # 18614 <g_2382+0x1514>
   10f41:	48 89 cf             	mov    %rcx,%rdi
   10f44:	e8 aa 67 ff ff       	callq  76f3 <transparent_crc>
   10f49:	48 8b 05 d8 c8 00 00 	mov    0xc8d8(%rip),%rax        # 1d828 <g_555>
   10f50:	48 c1 e0 16          	shl    $0x16,%rax
   10f54:	48 c1 f8 36          	sar    $0x36,%rax
   10f58:	48 0f bf c0          	movswq %ax,%rax
   10f5c:	8b 55 f4             	mov    -0xc(%rbp),%edx
   10f5f:	48 8d 35 b7 76 00 00 	lea    0x76b7(%rip),%rsi        # 1861d <g_2382+0x151d>
   10f66:	48 89 c7             	mov    %rax,%rdi
   10f69:	e8 85 67 ff ff       	callq  76f3 <transparent_crc>
   10f6e:	48 8b 05 b3 c8 00 00 	mov    0xc8b3(%rip),%rax        # 1d828 <g_555>
   10f75:	48 c1 e8 2a          	shr    $0x2a,%rax
   10f79:	66 25 ff 3f          	and    $0x3fff,%ax
   10f7d:	0f b7 c0             	movzwl %ax,%eax
   10f80:	8b 55 f4             	mov    -0xc(%rbp),%edx
   10f83:	48 8d 35 9c 76 00 00 	lea    0x769c(%rip),%rsi        # 18626 <g_2382+0x1526>
   10f8a:	48 89 c7             	mov    %rax,%rdi
   10f8d:	e8 61 67 ff ff       	callq  76f3 <transparent_crc>
   10f92:	0f b7 05 97 c8 00 00 	movzwl 0xc897(%rip),%eax        # 1d830 <g_555+0x8>
   10f99:	0f b7 c0             	movzwl %ax,%eax
   10f9c:	8b 55 f4             	mov    -0xc(%rbp),%edx
   10f9f:	48 8d 35 89 76 00 00 	lea    0x7689(%rip),%rsi        # 1862f <g_2382+0x152f>
   10fa6:	48 89 c7             	mov    %rax,%rdi
   10fa9:	e8 45 67 ff ff       	callq  76f3 <transparent_crc>
   10fae:	48 8b 05 7b c8 00 00 	mov    0xc87b(%rip),%rax        # 1d830 <g_555+0x8>
   10fb5:	48 c1 e8 10          	shr    $0x10,%rax
   10fb9:	66 25 ff 03          	and    $0x3ff,%ax
   10fbd:	0f b7 c0             	movzwl %ax,%eax
   10fc0:	8b 55 f4             	mov    -0xc(%rbp),%edx
   10fc3:	48 8d 35 6e 76 00 00 	lea    0x766e(%rip),%rsi        # 18638 <g_2382+0x1538>
   10fca:	48 89 c7             	mov    %rax,%rdi
   10fcd:	e8 21 67 ff ff       	callq  76f3 <transparent_crc>
   10fd2:	8b 05 5c c8 00 00    	mov    0xc85c(%rip),%eax        # 1d834 <g_578>
   10fd8:	48 98                	cltq   
   10fda:	8b 55 f4             	mov    -0xc(%rbp),%edx
   10fdd:	48 8d 35 5d 76 00 00 	lea    0x765d(%rip),%rsi        # 18641 <g_2382+0x1541>
   10fe4:	48 89 c7             	mov    %rax,%rdi
   10fe7:	e8 07 67 ff ff       	callq  76f3 <transparent_crc>
   10fec:	c7 45 e8 00 00 00 00 	movl   $0x0,-0x18(%rbp)
   10ff3:	e9 d4 02 00 00       	jmpq   112cc <main+0x2154>
   10ff8:	c7 45 ec 00 00 00 00 	movl   $0x0,-0x14(%rbp)
   10fff:	e9 ba 02 00 00       	jmpq   112be <main+0x2146>
   11004:	c7 45 f0 00 00 00 00 	movl   $0x0,-0x10(%rbp)
   1100b:	e9 a0 02 00 00       	jmpq   112b0 <main+0x2138>
   11010:	8b 45 f0             	mov    -0x10(%rbp),%eax
   11013:	48 63 d0             	movslq %eax,%rdx
   11016:	8b 45 ec             	mov    -0x14(%rbp),%eax
   11019:	48 98                	cltq   
   1101b:	48 01 d0             	add    %rdx,%rax
   1101e:	8b 55 e8             	mov    -0x18(%rbp),%edx
   11021:	48 63 ca             	movslq %edx,%rcx
   11024:	48 89 c2             	mov    %rax,%rdx
   11027:	48 c1 e2 03          	shl    $0x3,%rdx
   1102b:	48 01 c2             	add    %rax,%rdx
   1102e:	48 8d 04 12          	lea    (%rdx,%rdx,1),%rax
   11032:	48 89 c2             	mov    %rax,%rdx
   11035:	48 89 c8             	mov    %rcx,%rax
   11038:	48 c1 e0 03          	shl    $0x3,%rax
   1103c:	48 01 c8             	add    %rcx,%rax
   1103f:	48 c1 e0 03          	shl    $0x3,%rax
   11043:	48 01 c2             	add    %rax,%rdx
   11046:	48 8d 05 f3 c7 00 00 	lea    0xc7f3(%rip),%rax        # 1d840 <g_594>
   1104d:	48 01 d0             	add    %rdx,%rax
   11050:	0f b7 10             	movzwl (%rax),%edx
   11053:	0f b7 d2             	movzwl %dx,%edx
   11056:	0f b7 40 02          	movzwl 0x2(%rax),%eax
   1105a:	0f b7 c0             	movzwl %ax,%eax
   1105d:	83 e0 07             	and    $0x7,%eax
   11060:	48 c1 e0 10          	shl    $0x10,%rax
   11064:	48 09 d0             	or     %rdx,%rax
   11067:	48 c1 e0 2d          	shl    $0x2d,%rax
   1106b:	48 c1 f8 2d          	sar    $0x2d,%rax
   1106f:	48 98                	cltq   
   11071:	8b 55 f4             	mov    -0xc(%rbp),%edx
   11074:	48 8d 35 cc 75 00 00 	lea    0x75cc(%rip),%rsi        # 18647 <g_2382+0x1547>
   1107b:	48 89 c7             	mov    %rax,%rdi
   1107e:	e8 70 66 ff ff       	callq  76f3 <transparent_crc>
   11083:	8b 45 f0             	mov    -0x10(%rbp),%eax
   11086:	48 63 d0             	movslq %eax,%rdx
   11089:	8b 45 ec             	mov    -0x14(%rbp),%eax
   1108c:	48 98                	cltq   
   1108e:	48 01 d0             	add    %rdx,%rax
   11091:	8b 55 e8             	mov    -0x18(%rbp),%edx
   11094:	48 63 ca             	movslq %edx,%rcx
   11097:	48 89 c2             	mov    %rax,%rdx
   1109a:	48 c1 e2 03          	shl    $0x3,%rdx
   1109e:	48 01 c2             	add    %rax,%rdx
   110a1:	48 8d 04 12          	lea    (%rdx,%rdx,1),%rax
   110a5:	48 89 c2             	mov    %rax,%rdx
   110a8:	48 89 c8             	mov    %rcx,%rax
   110ab:	48 c1 e0 03          	shl    $0x3,%rax
   110af:	48 01 c8             	add    %rcx,%rax
   110b2:	48 c1 e0 03          	shl    $0x3,%rax
   110b6:	48 01 c2             	add    %rax,%rdx
   110b9:	48 8d 05 80 c7 00 00 	lea    0xc780(%rip),%rax        # 1d840 <g_594>
   110c0:	48 01 d0             	add    %rdx,%rax
   110c3:	0f b7 50 02          	movzwl 0x2(%rax),%edx
   110c7:	66 c1 ea 03          	shr    $0x3,%dx
   110cb:	0f b7 d2             	movzwl %dx,%edx
   110ce:	0f b7 40 04          	movzwl 0x4(%rax),%eax
   110d2:	0f b7 c0             	movzwl %ax,%eax
   110d5:	25 ff 7f 00 00       	and    $0x7fff,%eax
   110da:	48 c1 e0 0d          	shl    $0xd,%rax
   110de:	48 09 d0             	or     %rdx,%rax
   110e1:	48 c1 e0 24          	shl    $0x24,%rax
   110e5:	48 c1 f8 24          	sar    $0x24,%rax
   110e9:	48 98                	cltq   
   110eb:	8b 55 f4             	mov    -0xc(%rbp),%edx
   110ee:	48 8d 35 64 75 00 00 	lea    0x7564(%rip),%rsi        # 18659 <g_2382+0x1559>
   110f5:	48 89 c7             	mov    %rax,%rdi
   110f8:	e8 f6 65 ff ff       	callq  76f3 <transparent_crc>
   110fd:	8b 45 f0             	mov    -0x10(%rbp),%eax
   11100:	48 63 d0             	movslq %eax,%rdx
   11103:	8b 45 ec             	mov    -0x14(%rbp),%eax
   11106:	48 98                	cltq   
   11108:	48 01 d0             	add    %rdx,%rax
   1110b:	8b 55 e8             	mov    -0x18(%rbp),%edx
   1110e:	48 63 ca             	movslq %edx,%rcx
   11111:	48 89 c2             	mov    %rax,%rdx
   11114:	48 c1 e2 03          	shl    $0x3,%rdx
   11118:	48 01 c2             	add    %rax,%rdx
   1111b:	48 8d 04 12          	lea    (%rdx,%rdx,1),%rax
   1111f:	48 89 c2             	mov    %rax,%rdx
   11122:	48 89 c8             	mov    %rcx,%rax
   11125:	48 c1 e0 03          	shl    $0x3,%rax
   11129:	48 01 c8             	add    %rcx,%rax
   1112c:	48 c1 e0 03          	shl    $0x3,%rax
   11130:	48 01 c2             	add    %rax,%rdx
   11133:	48 8d 05 06 c7 00 00 	lea    0xc706(%rip),%rax        # 1d840 <g_594>
   1113a:	48 01 d0             	add    %rdx,%rax
   1113d:	48 8b 40 06          	mov    0x6(%rax),%rax
   11141:	48 89 c1             	mov    %rax,%rcx
   11144:	8b 45 f4             	mov    -0xc(%rbp),%eax
   11147:	89 c2                	mov    %eax,%edx
   11149:	48 8d 35 1b 75 00 00 	lea    0x751b(%rip),%rsi        # 1866b <g_2382+0x156b>
   11150:	48 89 cf             	mov    %rcx,%rdi
   11153:	e8 9b 65 ff ff       	callq  76f3 <transparent_crc>
   11158:	8b 45 f0             	mov    -0x10(%rbp),%eax
   1115b:	48 63 d0             	movslq %eax,%rdx
   1115e:	8b 45 ec             	mov    -0x14(%rbp),%eax
   11161:	48 98                	cltq   
   11163:	48 01 d0             	add    %rdx,%rax
   11166:	8b 55 e8             	mov    -0x18(%rbp),%edx
   11169:	48 63 ca             	movslq %edx,%rcx
   1116c:	48 89 c2             	mov    %rax,%rdx
   1116f:	48 c1 e2 03          	shl    $0x3,%rdx
   11173:	48 01 c2             	add    %rax,%rdx
   11176:	48 8d 04 12          	lea    (%rdx,%rdx,1),%rax
   1117a:	48 89 c2             	mov    %rax,%rdx
   1117d:	48 89 c8             	mov    %rcx,%rax
   11180:	48 c1 e0 03          	shl    $0x3,%rax
   11184:	48 01 c8             	add    %rcx,%rax
   11187:	48 c1 e0 03          	shl    $0x3,%rax
   1118b:	48 01 c2             	add    %rax,%rdx
   1118e:	48 8d 05 ab c6 00 00 	lea    0xc6ab(%rip),%rax        # 1d840 <g_594>
   11195:	48 01 d0             	add    %rdx,%rax
   11198:	0f b7 50 0e          	movzwl 0xe(%rax),%edx
   1119c:	0f b7 d2             	movzwl %dx,%edx
   1119f:	0f b7 40 10          	movzwl 0x10(%rax),%eax
   111a3:	0f b7 c0             	movzwl %ax,%eax
   111a6:	83 e0 3f             	and    $0x3f,%eax
   111a9:	48 c1 e0 10          	shl    $0x10,%rax
   111ad:	48 09 d0             	or     %rdx,%rax
   111b0:	48 c1 e0 2a          	shl    $0x2a,%rax
   111b4:	48 c1 f8 2a          	sar    $0x2a,%rax
   111b8:	48 98                	cltq   
   111ba:	8b 55 f4             	mov    -0xc(%rbp),%edx
   111bd:	48 8d 35 b9 74 00 00 	lea    0x74b9(%rip),%rsi        # 1867d <g_2382+0x157d>
   111c4:	48 89 c7             	mov    %rax,%rdi
   111c7:	e8 27 65 ff ff       	callq  76f3 <transparent_crc>
   111cc:	8b 45 f0             	mov    -0x10(%rbp),%eax
   111cf:	48 63 d0             	movslq %eax,%rdx
   111d2:	8b 45 ec             	mov    -0x14(%rbp),%eax
   111d5:	48 98                	cltq   
   111d7:	48 01 d0             	add    %rdx,%rax
   111da:	8b 55 e8             	mov    -0x18(%rbp),%edx
   111dd:	48 63 ca             	movslq %edx,%rcx
   111e0:	48 89 c2             	mov    %rax,%rdx
   111e3:	48 c1 e2 03          	shl    $0x3,%rdx
   111e7:	48 01 c2             	add    %rax,%rdx
   111ea:	48 8d 04 12          	lea    (%rdx,%rdx,1),%rax
   111ee:	48 89 c2             	mov    %rax,%rdx
   111f1:	48 89 c8             	mov    %rcx,%rax
   111f4:	48 c1 e0 03          	shl    $0x3,%rax
   111f8:	48 01 c8             	add    %rcx,%rax
   111fb:	48 c1 e0 03          	shl    $0x3,%rax
   111ff:	48 01 c2             	add    %rax,%rdx
   11202:	48 8d 05 47 c6 00 00 	lea    0xc647(%rip),%rax        # 1d850 <g_594+0x10>
   11209:	48 01 d0             	add    %rdx,%rax
   1120c:	0f b7 00             	movzwl (%rax),%eax
   1120f:	66 c1 e8 06          	shr    $0x6,%ax
   11213:	83 e0 07             	and    $0x7,%eax
   11216:	0f b6 c0             	movzbl %al,%eax
   11219:	8b 55 f4             	mov    -0xc(%rbp),%edx
   1121c:	48 8d 35 6c 74 00 00 	lea    0x746c(%rip),%rsi        # 1868f <g_2382+0x158f>
   11223:	48 89 c7             	mov    %rax,%rdi
   11226:	e8 c8 64 ff ff       	callq  76f3 <transparent_crc>
   1122b:	8b 45 f0             	mov    -0x10(%rbp),%eax
   1122e:	48 63 d0             	movslq %eax,%rdx
   11231:	8b 45 ec             	mov    -0x14(%rbp),%eax
   11234:	48 98                	cltq   
   11236:	48 01 d0             	add    %rdx,%rax
   11239:	8b 55 e8             	mov    -0x18(%rbp),%edx
   1123c:	48 63 ca             	movslq %edx,%rcx
   1123f:	48 89 c2             	mov    %rax,%rdx
   11242:	48 c1 e2 03          	shl    $0x3,%rdx
   11246:	48 01 c2             	add    %rax,%rdx
   11249:	48 8d 04 12          	lea    (%rdx,%rdx,1),%rax
   1124d:	48 89 c2             	mov    %rax,%rdx
   11250:	48 89 c8             	mov    %rcx,%rax
   11253:	48 c1 e0 03          	shl    $0x3,%rax
   11257:	48 01 c8             	add    %rcx,%rax
   1125a:	48 c1 e0 03          	shl    $0x3,%rax
   1125e:	48 01 c2             	add    %rax,%rdx
   11261:	48 8d 05 e8 c5 00 00 	lea    0xc5e8(%rip),%rax        # 1d850 <g_594+0x10>
   11268:	48 01 d0             	add    %rdx,%rax
   1126b:	0f b7 00             	movzwl (%rax),%eax
   1126e:	66 c1 e8 09          	shr    $0x9,%ax
   11272:	83 e0 07             	and    $0x7,%eax
   11275:	0f b6 c0             	movzbl %al,%eax
   11278:	8b 55 f4             	mov    -0xc(%rbp),%edx
   1127b:	48 8d 35 1f 74 00 00 	lea    0x741f(%rip),%rsi        # 186a1 <g_2382+0x15a1>
   11282:	48 89 c7             	mov    %rax,%rdi
   11285:	e8 69 64 ff ff       	callq  76f3 <transparent_crc>
   1128a:	83 7d f4 00          	cmpl   $0x0,-0xc(%rbp)
   1128e:	74 1c                	je     112ac <main+0x2134>
   11290:	8b 4d f0             	mov    -0x10(%rbp),%ecx
   11293:	8b 55 ec             	mov    -0x14(%rbp),%edx
   11296:	8b 45 e8             	mov    -0x18(%rbp),%eax
   11299:	89 c6                	mov    %eax,%esi
   1129b:	48 8d 3d 6a 71 00 00 	lea    0x716a(%rip),%rdi        # 1840c <g_2382+0x130c>
   112a2:	b8 00 00 00 00       	mov    $0x0,%eax
   112a7:	e8 d4 4d ff ff       	callq  6080 <printf@plt>
   112ac:	83 45 f0 01          	addl   $0x1,-0x10(%rbp)
   112b0:	83 7d f0 00          	cmpl   $0x0,-0x10(%rbp)
   112b4:	0f 8e 56 fd ff ff    	jle    11010 <main+0x1e98>
   112ba:	83 45 ec 01          	addl   $0x1,-0x14(%rbp)
   112be:	83 7d ec 03          	cmpl   $0x3,-0x14(%rbp)
   112c2:	0f 8e 3c fd ff ff    	jle    11004 <main+0x1e8c>
   112c8:	83 45 e8 01          	addl   $0x1,-0x18(%rbp)
   112cc:	83 7d e8 01          	cmpl   $0x1,-0x18(%rbp)
   112d0:	0f 8e 22 fd ff ff    	jle    10ff8 <main+0x1e80>
   112d6:	48 8b 05 f3 c5 00 00 	mov    0xc5f3(%rip),%rax        # 1d8d0 <g_595>
   112dd:	c1 e0 0d             	shl    $0xd,%eax
   112e0:	c1 f8 0d             	sar    $0xd,%eax
   112e3:	48 98                	cltq   
   112e5:	8b 55 f4             	mov    -0xc(%rbp),%edx
   112e8:	48 8d 35 c4 73 00 00 	lea    0x73c4(%rip),%rsi        # 186b3 <g_2382+0x15b3>
   112ef:	48 89 c7             	mov    %rax,%rdi
   112f2:	e8 fc 63 ff ff       	callq  76f3 <transparent_crc>
   112f7:	48 8b 05 d2 c5 00 00 	mov    0xc5d2(%rip),%rax        # 1d8d0 <g_595>
   112fe:	48 c1 e0 11          	shl    $0x11,%rax
   11302:	48 c1 f8 24          	sar    $0x24,%rax
   11306:	48 98                	cltq   
   11308:	8b 55 f4             	mov    -0xc(%rbp),%edx
   1130b:	48 8d 35 aa 73 00 00 	lea    0x73aa(%rip),%rsi        # 186bc <g_2382+0x15bc>
   11312:	48 89 c7             	mov    %rax,%rdi
   11315:	e8 d9 63 ff ff       	callq  76f3 <transparent_crc>
   1131a:	48 8b 05 b5 c5 00 00 	mov    0xc5b5(%rip),%rax        # 1d8d6 <g_595+0x6>
   11321:	48 89 c1             	mov    %rax,%rcx
   11324:	8b 45 f4             	mov    -0xc(%rbp),%eax
   11327:	89 c2                	mov    %eax,%edx
   11329:	48 8d 35 95 73 00 00 	lea    0x7395(%rip),%rsi        # 186c5 <g_2382+0x15c5>
   11330:	48 89 cf             	mov    %rcx,%rdi
   11333:	e8 bb 63 ff ff       	callq  76f3 <transparent_crc>
   11338:	48 8b 05 99 c5 00 00 	mov    0xc599(%rip),%rax        # 1d8d8 <g_595+0x8>
   1133f:	48 c1 e8 30          	shr    $0x30,%rax
   11343:	48 89 c2             	mov    %rax,%rdx
   11346:	48 8b 05 93 c5 00 00 	mov    0xc593(%rip),%rax        # 1d8e0 <g_595+0x10>
   1134d:	83 e0 3f             	and    $0x3f,%eax
   11350:	48 c1 e0 10          	shl    $0x10,%rax
   11354:	48 09 d0             	or     %rdx,%rax
   11357:	48 c1 e0 2a          	shl    $0x2a,%rax
   1135b:	48 c1 f8 2a          	sar    $0x2a,%rax
   1135f:	48 98                	cltq   
   11361:	8b 55 f4             	mov    -0xc(%rbp),%edx
   11364:	48 8d 35 63 73 00 00 	lea    0x7363(%rip),%rsi        # 186ce <g_2382+0x15ce>
   1136b:	48 89 c7             	mov    %rax,%rdi
   1136e:	e8 80 63 ff ff       	callq  76f3 <transparent_crc>
   11373:	48 8b 05 66 c5 00 00 	mov    0xc566(%rip),%rax        # 1d8e0 <g_595+0x10>
   1137a:	48 c1 e8 06          	shr    $0x6,%rax
   1137e:	83 e0 07             	and    $0x7,%eax
   11381:	0f b6 c0             	movzbl %al,%eax
   11384:	8b 55 f4             	mov    -0xc(%rbp),%edx
   11387:	48 8d 35 49 73 00 00 	lea    0x7349(%rip),%rsi        # 186d7 <g_2382+0x15d7>
   1138e:	48 89 c7             	mov    %rax,%rdi
   11391:	e8 5d 63 ff ff       	callq  76f3 <transparent_crc>
   11396:	48 8b 05 43 c5 00 00 	mov    0xc543(%rip),%rax        # 1d8e0 <g_595+0x10>
   1139d:	48 c1 e8 09          	shr    $0x9,%rax
   113a1:	83 e0 07             	and    $0x7,%eax
   113a4:	0f b6 c0             	movzbl %al,%eax
   113a7:	8b 55 f4             	mov    -0xc(%rbp),%edx
   113aa:	48 8d 35 2f 73 00 00 	lea    0x732f(%rip),%rsi        # 186e0 <g_2382+0x15e0>
   113b1:	48 89 c7             	mov    %rax,%rdi
   113b4:	e8 3a 63 ff ff       	callq  76f3 <transparent_crc>
   113b9:	8b 05 25 c5 00 00    	mov    0xc525(%rip),%eax        # 1d8e4 <g_626>
   113bf:	48 98                	cltq   
   113c1:	8b 55 f4             	mov    -0xc(%rbp),%edx
   113c4:	48 8d 35 1e 73 00 00 	lea    0x731e(%rip),%rsi        # 186e9 <g_2382+0x15e9>
   113cb:	48 89 c7             	mov    %rax,%rdi
   113ce:	e8 20 63 ff ff       	callq  76f3 <transparent_crc>
   113d3:	8b 05 0f c5 00 00    	mov    0xc50f(%rip),%eax        # 1d8e8 <g_680>
   113d9:	48 98                	cltq   
   113db:	8b 55 f4             	mov    -0xc(%rbp),%edx
   113de:	48 8d 35 0a 73 00 00 	lea    0x730a(%rip),%rsi        # 186ef <g_2382+0x15ef>
   113e5:	48 89 c7             	mov    %rax,%rdi
   113e8:	e8 06 63 ff ff       	callq  76f3 <transparent_crc>
   113ed:	8b 05 fd c4 00 00    	mov    0xc4fd(%rip),%eax        # 1d8f0 <g_682>
   113f3:	25 ff ff ff 1f       	and    $0x1fffffff,%eax
   113f8:	89 c1                	mov    %eax,%ecx
   113fa:	8b 45 f4             	mov    -0xc(%rbp),%eax
   113fd:	89 c2                	mov    %eax,%edx
   113ff:	48 8d 35 ef 72 00 00 	lea    0x72ef(%rip),%rsi        # 186f5 <g_2382+0x15f5>
   11406:	48 89 cf             	mov    %rcx,%rdi
   11409:	e8 e5 62 ff ff       	callq  76f3 <transparent_crc>
   1140e:	0f b7 05 df c4 00 00 	movzwl 0xc4df(%rip),%eax        # 1d8f4 <g_682+0x4>
   11415:	c1 e0 06             	shl    $0x6,%eax
   11418:	66 c1 f8 06          	sar    $0x6,%ax
   1141c:	48 0f bf c0          	movswq %ax,%rax
   11420:	8b 55 f4             	mov    -0xc(%rbp),%edx
   11423:	48 8d 35 d4 72 00 00 	lea    0x72d4(%rip),%rsi        # 186fe <g_2382+0x15fe>
   1142a:	48 89 c7             	mov    %rax,%rdi
   1142d:	e8 c1 62 ff ff       	callq  76f3 <transparent_crc>
   11432:	48 8b 05 b7 c4 00 00 	mov    0xc4b7(%rip),%rax        # 1d8f0 <g_682>
   11439:	48 c1 e8 2a          	shr    $0x2a,%rax
   1143d:	66 25 ff 3f          	and    $0x3fff,%ax
   11441:	0f b7 c0             	movzwl %ax,%eax
   11444:	8b 55 f4             	mov    -0xc(%rbp),%edx
   11447:	48 8d 35 b9 72 00 00 	lea    0x72b9(%rip),%rsi        # 18707 <g_2382+0x1607>
   1144e:	48 89 c7             	mov    %rax,%rdi
   11451:	e8 9d 62 ff ff       	callq  76f3 <transparent_crc>
   11456:	0f b7 05 9b c4 00 00 	movzwl 0xc49b(%rip),%eax        # 1d8f8 <g_682+0x8>
   1145d:	0f b7 c0             	movzwl %ax,%eax
   11460:	8b 55 f4             	mov    -0xc(%rbp),%edx
   11463:	48 8d 35 a6 72 00 00 	lea    0x72a6(%rip),%rsi        # 18710 <g_2382+0x1610>
   1146a:	48 89 c7             	mov    %rax,%rdi
   1146d:	e8 81 62 ff ff       	callq  76f3 <transparent_crc>
   11472:	0f b7 05 81 c4 00 00 	movzwl 0xc481(%rip),%eax        # 1d8fa <g_682+0xa>
   11479:	66 25 ff 03          	and    $0x3ff,%ax
   1147d:	0f b7 c0             	movzwl %ax,%eax
   11480:	8b 55 f4             	mov    -0xc(%rbp),%edx
   11483:	48 8d 35 8f 72 00 00 	lea    0x728f(%rip),%rsi        # 18719 <g_2382+0x1619>
   1148a:	48 89 c7             	mov    %rax,%rdi
   1148d:	e8 61 62 ff ff       	callq  76f3 <transparent_crc>
   11492:	c7 45 e8 00 00 00 00 	movl   $0x0,-0x18(%rbp)
   11499:	e9 85 03 00 00       	jmpq   11823 <main+0x26ab>
   1149e:	c7 45 ec 00 00 00 00 	movl   $0x0,-0x14(%rbp)
   114a5:	e9 6b 03 00 00       	jmpq   11815 <main+0x269d>
   114aa:	8b 45 ec             	mov    -0x14(%rbp),%eax
   114ad:	48 98                	cltq   
   114af:	8b 55 e8             	mov    -0x18(%rbp),%edx
   114b2:	48 63 ca             	movslq %edx,%rcx
   114b5:	48 89 c2             	mov    %rax,%rdx
   114b8:	48 c1 e2 02          	shl    $0x2,%rdx
   114bc:	48 01 c2             	add    %rax,%rdx
   114bf:	48 8d 04 d5 00 00 00 	lea    0x0(,%rdx,8),%rax
   114c6:	00 
   114c7:	48 89 c2             	mov    %rax,%rdx
   114ca:	48 89 c8             	mov    %rcx,%rax
   114cd:	48 c1 e0 02          	shl    $0x2,%rax
   114d1:	48 01 c8             	add    %rcx,%rax
   114d4:	48 c1 e0 05          	shl    $0x5,%rax
   114d8:	48 01 c2             	add    %rax,%rdx
   114db:	48 8d 05 1e c4 00 00 	lea    0xc41e(%rip),%rax        # 1d900 <g_683>
   114e2:	48 01 d0             	add    %rdx,%rax
   114e5:	48 8b 00             	mov    (%rax),%rax
   114e8:	8b 55 f4             	mov    -0xc(%rbp),%edx
   114eb:	48 8d 35 30 72 00 00 	lea    0x7230(%rip),%rsi        # 18722 <g_2382+0x1622>
   114f2:	48 89 c7             	mov    %rax,%rdi
   114f5:	e8 f9 61 ff ff       	callq  76f3 <transparent_crc>
   114fa:	8b 45 ec             	mov    -0x14(%rbp),%eax
   114fd:	48 98                	cltq   
   114ff:	8b 55 e8             	mov    -0x18(%rbp),%edx
   11502:	48 63 ca             	movslq %edx,%rcx
   11505:	48 89 c2             	mov    %rax,%rdx
   11508:	48 c1 e2 02          	shl    $0x2,%rdx
   1150c:	48 01 c2             	add    %rax,%rdx
   1150f:	48 8d 04 d5 00 00 00 	lea    0x0(,%rdx,8),%rax
   11516:	00 
   11517:	48 89 c2             	mov    %rax,%rdx
   1151a:	48 89 c8             	mov    %rcx,%rax
   1151d:	48 c1 e0 02          	shl    $0x2,%rax
   11521:	48 01 c8             	add    %rcx,%rax
   11524:	48 c1 e0 05          	shl    $0x5,%rax
   11528:	48 01 c2             	add    %rax,%rdx
   1152b:	48 8d 05 d6 c3 00 00 	lea    0xc3d6(%rip),%rax        # 1d908 <g_683+0x8>
   11532:	48 01 d0             	add    %rdx,%rax
   11535:	0f b6 00             	movzbl (%rax),%eax
   11538:	0f b6 c0             	movzbl %al,%eax
   1153b:	8b 55 f4             	mov    -0xc(%rbp),%edx
   1153e:	48 8d 35 ec 71 00 00 	lea    0x71ec(%rip),%rsi        # 18731 <g_2382+0x1631>
   11545:	48 89 c7             	mov    %rax,%rdi
   11548:	e8 a6 61 ff ff       	callq  76f3 <transparent_crc>
   1154d:	8b 45 ec             	mov    -0x14(%rbp),%eax
   11550:	48 98                	cltq   
   11552:	8b 55 e8             	mov    -0x18(%rbp),%edx
   11555:	48 63 ca             	movslq %edx,%rcx
   11558:	48 89 c2             	mov    %rax,%rdx
   1155b:	48 c1 e2 02          	shl    $0x2,%rdx
   1155f:	48 01 c2             	add    %rax,%rdx
   11562:	48 8d 04 d5 00 00 00 	lea    0x0(,%rdx,8),%rax
   11569:	00 
   1156a:	48 89 c2             	mov    %rax,%rdx
   1156d:	48 89 c8             	mov    %rcx,%rax
   11570:	48 c1 e0 02          	shl    $0x2,%rax
   11574:	48 01 c8             	add    %rcx,%rax
   11577:	48 c1 e0 05          	shl    $0x5,%rax
   1157b:	48 01 c2             	add    %rax,%rdx
   1157e:	48 8d 05 85 c3 00 00 	lea    0xc385(%rip),%rax        # 1d90a <g_683+0xa>
   11585:	48 01 d0             	add    %rdx,%rax
   11588:	0f b7 00             	movzwl (%rax),%eax
   1158b:	0f b7 c0             	movzwl %ax,%eax
   1158e:	8b 55 f4             	mov    -0xc(%rbp),%edx
   11591:	48 8d 35 a8 71 00 00 	lea    0x71a8(%rip),%rsi        # 18740 <g_2382+0x1640>
   11598:	48 89 c7             	mov    %rax,%rdi
   1159b:	e8 53 61 ff ff       	callq  76f3 <transparent_crc>
   115a0:	8b 45 ec             	mov    -0x14(%rbp),%eax
   115a3:	48 98                	cltq   
   115a5:	8b 55 e8             	mov    -0x18(%rbp),%edx
   115a8:	48 63 ca             	movslq %edx,%rcx
   115ab:	48 89 c2             	mov    %rax,%rdx
   115ae:	48 c1 e2 02          	shl    $0x2,%rdx
   115b2:	48 01 c2             	add    %rax,%rdx
   115b5:	48 8d 04 d5 00 00 00 	lea    0x0(,%rdx,8),%rax
   115bc:	00 
   115bd:	48 89 c2             	mov    %rax,%rdx
   115c0:	48 89 c8             	mov    %rcx,%rax
   115c3:	48 c1 e0 02          	shl    $0x2,%rax
   115c7:	48 01 c8             	add    %rcx,%rax
   115ca:	48 c1 e0 05          	shl    $0x5,%rax
   115ce:	48 01 c2             	add    %rax,%rdx
   115d1:	48 8d 05 34 c3 00 00 	lea    0xc334(%rip),%rax        # 1d90c <g_683+0xc>
   115d8:	48 01 d0             	add    %rdx,%rax
   115db:	0f b6 00             	movzbl (%rax),%eax
   115de:	48 0f be c0          	movsbq %al,%rax
   115e2:	8b 55 f4             	mov    -0xc(%rbp),%edx
   115e5:	48 8d 35 63 71 00 00 	lea    0x7163(%rip),%rsi        # 1874f <g_2382+0x164f>
   115ec:	48 89 c7             	mov    %rax,%rdi
   115ef:	e8 ff 60 ff ff       	callq  76f3 <transparent_crc>
   115f4:	8b 45 ec             	mov    -0x14(%rbp),%eax
   115f7:	48 98                	cltq   
   115f9:	8b 55 e8             	mov    -0x18(%rbp),%edx
   115fc:	48 63 ca             	movslq %edx,%rcx
   115ff:	48 89 c2             	mov    %rax,%rdx
   11602:	48 c1 e2 02          	shl    $0x2,%rdx
   11606:	48 01 c2             	add    %rax,%rdx
   11609:	48 8d 04 d5 00 00 00 	lea    0x0(,%rdx,8),%rax
   11610:	00 
   11611:	48 89 c2             	mov    %rax,%rdx
   11614:	48 89 c8             	mov    %rcx,%rax
   11617:	48 c1 e0 02          	shl    $0x2,%rax
   1161b:	48 01 c8             	add    %rcx,%rax
   1161e:	48 c1 e0 05          	shl    $0x5,%rax
   11622:	48 01 c2             	add    %rax,%rdx
   11625:	48 8d 05 d4 c2 00 00 	lea    0xc2d4(%rip),%rax        # 1d900 <g_683>
   1162c:	48 01 d0             	add    %rdx,%rax
   1162f:	48 8b 40 08          	mov    0x8(%rax),%rax
   11633:	48 c1 e8 28          	shr    $0x28,%rax
   11637:	83 e0 1f             	and    $0x1f,%eax
   1163a:	0f b6 c0             	movzbl %al,%eax
   1163d:	8b 55 f4             	mov    -0xc(%rbp),%edx
   11640:	48 8d 35 17 71 00 00 	lea    0x7117(%rip),%rsi        # 1875e <g_2382+0x165e>
   11647:	48 89 c7             	mov    %rax,%rdi
   1164a:	e8 a4 60 ff ff       	callq  76f3 <transparent_crc>
   1164f:	8b 45 ec             	mov    -0x14(%rbp),%eax
   11652:	48 98                	cltq   
   11654:	8b 55 e8             	mov    -0x18(%rbp),%edx
   11657:	48 63 ca             	movslq %edx,%rcx
   1165a:	48 89 c2             	mov    %rax,%rdx
   1165d:	48 c1 e2 02          	shl    $0x2,%rdx
   11661:	48 01 c2             	add    %rax,%rdx
   11664:	48 8d 04 d5 00 00 00 	lea    0x0(,%rdx,8),%rax
   1166b:	00 
   1166c:	48 89 c2             	mov    %rax,%rdx
   1166f:	48 89 c8             	mov    %rcx,%rax
   11672:	48 c1 e0 02          	shl    $0x2,%rax
   11676:	48 01 c8             	add    %rcx,%rax
   11679:	48 c1 e0 05          	shl    $0x5,%rax
   1167d:	48 01 c2             	add    %rax,%rdx
   11680:	48 8d 05 79 c2 00 00 	lea    0xc279(%rip),%rax        # 1d900 <g_683>
   11687:	48 01 d0             	add    %rdx,%rax
   1168a:	48 8b 40 08          	mov    0x8(%rax),%rax
   1168e:	48 c1 e8 2d          	shr    $0x2d,%rax
   11692:	66 25 ff 0f          	and    $0xfff,%ax
   11696:	0f b7 c0             	movzwl %ax,%eax
   11699:	8b 55 f4             	mov    -0xc(%rbp),%edx
   1169c:	48 8d 35 ca 70 00 00 	lea    0x70ca(%rip),%rsi        # 1876d <g_2382+0x166d>
   116a3:	48 89 c7             	mov    %rax,%rdi
   116a6:	e8 48 60 ff ff       	callq  76f3 <transparent_crc>
   116ab:	8b 45 ec             	mov    -0x14(%rbp),%eax
   116ae:	48 98                	cltq   
   116b0:	8b 55 e8             	mov    -0x18(%rbp),%edx
   116b3:	48 63 ca             	movslq %edx,%rcx
   116b6:	48 89 c2             	mov    %rax,%rdx
   116b9:	48 c1 e2 02          	shl    $0x2,%rdx
   116bd:	48 01 c2             	add    %rax,%rdx
   116c0:	48 8d 04 d5 00 00 00 	lea    0x0(,%rdx,8),%rax
   116c7:	00 
   116c8:	48 89 c2             	mov    %rax,%rdx
   116cb:	48 89 c8             	mov    %rcx,%rax
   116ce:	48 c1 e0 02          	shl    $0x2,%rax
   116d2:	48 01 c8             	add    %rcx,%rax
   116d5:	48 c1 e0 05          	shl    $0x5,%rax
   116d9:	48 01 c2             	add    %rax,%rdx
   116dc:	48 8d 05 2d c2 00 00 	lea    0xc22d(%rip),%rax        # 1d910 <g_683+0x10>
   116e3:	48 01 d0             	add    %rdx,%rax
   116e6:	8b 00                	mov    (%rax),%eax
   116e8:	48 98                	cltq   
   116ea:	8b 55 f4             	mov    -0xc(%rbp),%edx
   116ed:	48 8d 35 88 70 00 00 	lea    0x7088(%rip),%rsi        # 1877c <g_2382+0x167c>
   116f4:	48 89 c7             	mov    %rax,%rdi
   116f7:	e8 f7 5f ff ff       	callq  76f3 <transparent_crc>
   116fc:	8b 45 ec             	mov    -0x14(%rbp),%eax
   116ff:	48 98                	cltq   
   11701:	8b 55 e8             	mov    -0x18(%rbp),%edx
   11704:	48 63 ca             	movslq %edx,%rcx
   11707:	48 89 c2             	mov    %rax,%rdx
   1170a:	48 c1 e2 02          	shl    $0x2,%rdx
   1170e:	48 01 c2             	add    %rax,%rdx
   11711:	48 8d 04 d5 00 00 00 	lea    0x0(,%rdx,8),%rax
   11718:	00 
   11719:	48 89 c2             	mov    %rax,%rdx
   1171c:	48 89 c8             	mov    %rcx,%rax
   1171f:	48 c1 e0 02          	shl    $0x2,%rax
   11723:	48 01 c8             	add    %rcx,%rax
   11726:	48 c1 e0 05          	shl    $0x5,%rax
   1172a:	48 01 c2             	add    %rax,%rdx
   1172d:	48 8d 05 e0 c1 00 00 	lea    0xc1e0(%rip),%rax        # 1d914 <g_683+0x14>
   11734:	48 01 d0             	add    %rdx,%rax
   11737:	8b 00                	mov    (%rax),%eax
   11739:	89 c1                	mov    %eax,%ecx
   1173b:	8b 45 f4             	mov    -0xc(%rbp),%eax
   1173e:	89 c2                	mov    %eax,%edx
   11740:	48 8d 35 44 70 00 00 	lea    0x7044(%rip),%rsi        # 1878b <g_2382+0x168b>
   11747:	48 89 cf             	mov    %rcx,%rdi
   1174a:	e8 a4 5f ff ff       	callq  76f3 <transparent_crc>
   1174f:	8b 45 ec             	mov    -0x14(%rbp),%eax
   11752:	48 98                	cltq   
   11754:	8b 55 e8             	mov    -0x18(%rbp),%edx
   11757:	48 63 ca             	movslq %edx,%rcx
   1175a:	48 89 c2             	mov    %rax,%rdx
   1175d:	48 c1 e2 02          	shl    $0x2,%rdx
   11761:	48 01 c2             	add    %rax,%rdx
   11764:	48 8d 04 d5 00 00 00 	lea    0x0(,%rdx,8),%rax
   1176b:	00 
   1176c:	48 89 c2             	mov    %rax,%rdx
   1176f:	48 89 c8             	mov    %rcx,%rax
   11772:	48 c1 e0 02          	shl    $0x2,%rax
   11776:	48 01 c8             	add    %rcx,%rax
   11779:	48 c1 e0 05          	shl    $0x5,%rax
   1177d:	48 01 c2             	add    %rax,%rdx
   11780:	48 8d 05 91 c1 00 00 	lea    0xc191(%rip),%rax        # 1d918 <g_683+0x18>
   11787:	48 01 d0             	add    %rdx,%rax
   1178a:	8b 00                	mov    (%rax),%eax
   1178c:	89 c1                	mov    %eax,%ecx
   1178e:	8b 45 f4             	mov    -0xc(%rbp),%eax
   11791:	89 c2                	mov    %eax,%edx
   11793:	48 8d 35 00 70 00 00 	lea    0x7000(%rip),%rsi        # 1879a <g_2382+0x169a>
   1179a:	48 89 cf             	mov    %rcx,%rdi
   1179d:	e8 51 5f ff ff       	callq  76f3 <transparent_crc>
   117a2:	8b 45 ec             	mov    -0x14(%rbp),%eax
   117a5:	48 98                	cltq   
   117a7:	8b 55 e8             	mov    -0x18(%rbp),%edx
   117aa:	48 63 ca             	movslq %edx,%rcx
   117ad:	48 89 c2             	mov    %rax,%rdx
   117b0:	48 c1 e2 02          	shl    $0x2,%rdx
   117b4:	48 01 c2             	add    %rax,%rdx
   117b7:	48 8d 04 d5 00 00 00 	lea    0x0(,%rdx,8),%rax
   117be:	00 
   117bf:	48 89 c2             	mov    %rax,%rdx
   117c2:	48 89 c8             	mov    %rcx,%rax
   117c5:	48 c1 e0 02          	shl    $0x2,%rax
   117c9:	48 01 c8             	add    %rcx,%rax
   117cc:	48 c1 e0 05          	shl    $0x5,%rax
   117d0:	48 01 c2             	add    %rax,%rdx
   117d3:	48 8d 05 46 c1 00 00 	lea    0xc146(%rip),%rax        # 1d920 <g_683+0x20>
   117da:	48 01 d0             	add    %rdx,%rax
   117dd:	48 8b 00             	mov    (%rax),%rax
   117e0:	8b 55 f4             	mov    -0xc(%rbp),%edx
   117e3:	48 8d 35 bf 6f 00 00 	lea    0x6fbf(%rip),%rsi        # 187a9 <g_2382+0x16a9>
   117ea:	48 89 c7             	mov    %rax,%rdi
   117ed:	e8 01 5f ff ff       	callq  76f3 <transparent_crc>
   117f2:	83 7d f4 00          	cmpl   $0x0,-0xc(%rbp)
   117f6:	74 19                	je     11811 <main+0x2699>
   117f8:	8b 55 ec             	mov    -0x14(%rbp),%edx
   117fb:	8b 45 e8             	mov    -0x18(%rbp),%eax
   117fe:	89 c6                	mov    %eax,%esi
   11800:	48 8d 3d 55 68 00 00 	lea    0x6855(%rip),%rdi        # 1805c <g_2382+0xf5c>
   11807:	b8 00 00 00 00       	mov    $0x0,%eax
   1180c:	e8 6f 48 ff ff       	callq  6080 <printf@plt>
   11811:	83 45 ec 01          	addl   $0x1,-0x14(%rbp)
   11815:	83 7d ec 03          	cmpl   $0x3,-0x14(%rbp)
   11819:	0f 8e 8b fc ff ff    	jle    114aa <main+0x2332>
   1181f:	83 45 e8 01          	addl   $0x1,-0x18(%rbp)
   11823:	83 7d e8 09          	cmpl   $0x9,-0x18(%rbp)
   11827:	0f 8e 71 fc ff ff    	jle    1149e <main+0x2326>
   1182d:	8b 05 0d c7 00 00    	mov    0xc70d(%rip),%eax        # 1df40 <g_690>
   11833:	c1 e0 0d             	shl    $0xd,%eax
   11836:	c1 f8 0d             	sar    $0xd,%eax
   11839:	48 98                	cltq   
   1183b:	8b 55 f4             	mov    -0xc(%rbp),%edx
   1183e:	48 8d 35 73 6f 00 00 	lea    0x6f73(%rip),%rsi        # 187b8 <g_2382+0x16b8>
   11845:	48 89 c7             	mov    %rax,%rdi
   11848:	e8 a6 5e ff ff       	callq  76f3 <transparent_crc>
   1184d:	48 8b 05 ec c6 00 00 	mov    0xc6ec(%rip),%rax        # 1df40 <g_690>
   11854:	48 c1 e0 11          	shl    $0x11,%rax
   11858:	48 c1 f8 24          	sar    $0x24,%rax
   1185c:	48 98                	cltq   
   1185e:	8b 55 f4             	mov    -0xc(%rbp),%edx
   11861:	48 8d 35 59 6f 00 00 	lea    0x6f59(%rip),%rsi        # 187c1 <g_2382+0x16c1>
   11868:	48 89 c7             	mov    %rax,%rdi
   1186b:	e8 83 5e ff ff       	callq  76f3 <transparent_crc>
   11870:	48 8b 05 cf c6 00 00 	mov    0xc6cf(%rip),%rax        # 1df46 <g_690+0x6>
   11877:	48 89 c1             	mov    %rax,%rcx
   1187a:	8b 45 f4             	mov    -0xc(%rbp),%eax
   1187d:	89 c2                	mov    %eax,%edx
   1187f:	48 8d 35 44 6f 00 00 	lea    0x6f44(%rip),%rsi        # 187ca <g_2382+0x16ca>
   11886:	48 89 cf             	mov    %rcx,%rdi
   11889:	e8 65 5e ff ff       	callq  76f3 <transparent_crc>
   1188e:	48 8b 05 b3 c6 00 00 	mov    0xc6b3(%rip),%rax        # 1df48 <g_690+0x8>
   11895:	48 c1 e8 30          	shr    $0x30,%rax
   11899:	48 89 c2             	mov    %rax,%rdx
   1189c:	48 8b 05 ad c6 00 00 	mov    0xc6ad(%rip),%rax        # 1df50 <g_690+0x10>
   118a3:	83 e0 3f             	and    $0x3f,%eax
   118a6:	48 c1 e0 10          	shl    $0x10,%rax
   118aa:	48 09 d0             	or     %rdx,%rax
   118ad:	48 c1 e0 2a          	shl    $0x2a,%rax
   118b1:	48 c1 f8 2a          	sar    $0x2a,%rax
   118b5:	48 98                	cltq   
   118b7:	8b 55 f4             	mov    -0xc(%rbp),%edx
   118ba:	48 8d 35 12 6f 00 00 	lea    0x6f12(%rip),%rsi        # 187d3 <g_2382+0x16d3>
   118c1:	48 89 c7             	mov    %rax,%rdi
   118c4:	e8 2a 5e ff ff       	callq  76f3 <transparent_crc>
   118c9:	0f b7 05 80 c6 00 00 	movzwl 0xc680(%rip),%eax        # 1df50 <g_690+0x10>
   118d0:	66 c1 e8 06          	shr    $0x6,%ax
   118d4:	83 e0 07             	and    $0x7,%eax
   118d7:	0f b6 c0             	movzbl %al,%eax
   118da:	8b 55 f4             	mov    -0xc(%rbp),%edx
   118dd:	48 8d 35 f8 6e 00 00 	lea    0x6ef8(%rip),%rsi        # 187dc <g_2382+0x16dc>
   118e4:	48 89 c7             	mov    %rax,%rdi
   118e7:	e8 07 5e ff ff       	callq  76f3 <transparent_crc>
   118ec:	48 8b 05 5d c6 00 00 	mov    0xc65d(%rip),%rax        # 1df50 <g_690+0x10>
   118f3:	48 c1 e8 09          	shr    $0x9,%rax
   118f7:	83 e0 07             	and    $0x7,%eax
   118fa:	0f b6 c0             	movzbl %al,%eax
   118fd:	8b 55 f4             	mov    -0xc(%rbp),%edx
   11900:	48 8d 35 de 6e 00 00 	lea    0x6ede(%rip),%rsi        # 187e5 <g_2382+0x16e5>
   11907:	48 89 c7             	mov    %rax,%rdi
   1190a:	e8 e4 5d ff ff       	callq  76f3 <transparent_crc>
   1190f:	8b 05 4b c6 00 00    	mov    0xc64b(%rip),%eax        # 1df60 <g_693>
   11915:	c1 e0 0d             	shl    $0xd,%eax
   11918:	c1 f8 0d             	sar    $0xd,%eax
   1191b:	48 98                	cltq   
   1191d:	8b 55 f4             	mov    -0xc(%rbp),%edx
   11920:	48 8d 35 c7 6e 00 00 	lea    0x6ec7(%rip),%rsi        # 187ee <g_2382+0x16ee>
   11927:	48 89 c7             	mov    %rax,%rdi
   1192a:	e8 c4 5d ff ff       	callq  76f3 <transparent_crc>
   1192f:	48 8b 05 2a c6 00 00 	mov    0xc62a(%rip),%rax        # 1df60 <g_693>
   11936:	48 c1 e0 11          	shl    $0x11,%rax
   1193a:	48 c1 f8 24          	sar    $0x24,%rax
   1193e:	48 98                	cltq   
   11940:	8b 55 f4             	mov    -0xc(%rbp),%edx
   11943:	48 8d 35 ad 6e 00 00 	lea    0x6ead(%rip),%rsi        # 187f7 <g_2382+0x16f7>
   1194a:	48 89 c7             	mov    %rax,%rdi
   1194d:	e8 a1 5d ff ff       	callq  76f3 <transparent_crc>
   11952:	48 8b 05 0d c6 00 00 	mov    0xc60d(%rip),%rax        # 1df66 <g_693+0x6>
   11959:	48 89 c1             	mov    %rax,%rcx
   1195c:	8b 45 f4             	mov    -0xc(%rbp),%eax
   1195f:	89 c2                	mov    %eax,%edx
   11961:	48 8d 35 98 6e 00 00 	lea    0x6e98(%rip),%rsi        # 18800 <g_2382+0x1700>
   11968:	48 89 cf             	mov    %rcx,%rdi
   1196b:	e8 83 5d ff ff       	callq  76f3 <transparent_crc>
   11970:	48 8b 05 f1 c5 00 00 	mov    0xc5f1(%rip),%rax        # 1df68 <g_693+0x8>
   11977:	48 c1 e8 30          	shr    $0x30,%rax
   1197b:	48 89 c2             	mov    %rax,%rdx
   1197e:	48 8b 05 eb c5 00 00 	mov    0xc5eb(%rip),%rax        # 1df70 <g_693+0x10>
   11985:	83 e0 3f             	and    $0x3f,%eax
   11988:	48 c1 e0 10          	shl    $0x10,%rax
   1198c:	48 09 d0             	or     %rdx,%rax
   1198f:	48 c1 e0 2a          	shl    $0x2a,%rax
   11993:	48 c1 f8 2a          	sar    $0x2a,%rax
   11997:	48 98                	cltq   
   11999:	8b 55 f4             	mov    -0xc(%rbp),%edx
   1199c:	48 8d 35 66 6e 00 00 	lea    0x6e66(%rip),%rsi        # 18809 <g_2382+0x1709>
   119a3:	48 89 c7             	mov    %rax,%rdi
   119a6:	e8 48 5d ff ff       	callq  76f3 <transparent_crc>
   119ab:	0f b7 05 be c5 00 00 	movzwl 0xc5be(%rip),%eax        # 1df70 <g_693+0x10>
   119b2:	66 c1 e8 06          	shr    $0x6,%ax
   119b6:	83 e0 07             	and    $0x7,%eax
   119b9:	0f b6 c0             	movzbl %al,%eax
   119bc:	8b 55 f4             	mov    -0xc(%rbp),%edx
   119bf:	48 8d 35 4c 6e 00 00 	lea    0x6e4c(%rip),%rsi        # 18812 <g_2382+0x1712>
   119c6:	48 89 c7             	mov    %rax,%rdi
   119c9:	e8 25 5d ff ff       	callq  76f3 <transparent_crc>
   119ce:	48 8b 05 9b c5 00 00 	mov    0xc59b(%rip),%rax        # 1df70 <g_693+0x10>
   119d5:	48 c1 e8 09          	shr    $0x9,%rax
   119d9:	83 e0 07             	and    $0x7,%eax
   119dc:	0f b6 c0             	movzbl %al,%eax
   119df:	8b 55 f4             	mov    -0xc(%rbp),%edx
   119e2:	48 8d 35 32 6e 00 00 	lea    0x6e32(%rip),%rsi        # 1881b <g_2382+0x171b>
   119e9:	48 89 c7             	mov    %rax,%rdi
   119ec:	e8 02 5d ff ff       	callq  76f3 <transparent_crc>
   119f1:	48 8b 05 88 c5 00 00 	mov    0xc588(%rip),%rax        # 1df80 <g_759>
   119f8:	c1 e0 0d             	shl    $0xd,%eax
   119fb:	c1 f8 0d             	sar    $0xd,%eax
   119fe:	48 98                	cltq   
   11a00:	8b 55 f4             	mov    -0xc(%rbp),%edx
   11a03:	48 8d 35 1a 6e 00 00 	lea    0x6e1a(%rip),%rsi        # 18824 <g_2382+0x1724>
   11a0a:	48 89 c7             	mov    %rax,%rdi
   11a0d:	e8 e1 5c ff ff       	callq  76f3 <transparent_crc>
   11a12:	48 8b 05 67 c5 00 00 	mov    0xc567(%rip),%rax        # 1df80 <g_759>
   11a19:	48 c1 e0 11          	shl    $0x11,%rax
   11a1d:	48 c1 f8 24          	sar    $0x24,%rax
   11a21:	48 98                	cltq   
   11a23:	8b 55 f4             	mov    -0xc(%rbp),%edx
   11a26:	48 8d 35 00 6e 00 00 	lea    0x6e00(%rip),%rsi        # 1882d <g_2382+0x172d>
   11a2d:	48 89 c7             	mov    %rax,%rdi
   11a30:	e8 be 5c ff ff       	callq  76f3 <transparent_crc>
   11a35:	48 8b 05 4a c5 00 00 	mov    0xc54a(%rip),%rax        # 1df86 <g_759+0x6>
   11a3c:	48 89 c1             	mov    %rax,%rcx
   11a3f:	8b 45 f4             	mov    -0xc(%rbp),%eax
   11a42:	89 c2                	mov    %eax,%edx
   11a44:	48 8d 35 eb 6d 00 00 	lea    0x6deb(%rip),%rsi        # 18836 <g_2382+0x1736>
   11a4b:	48 89 cf             	mov    %rcx,%rdi
   11a4e:	e8 a0 5c ff ff       	callq  76f3 <transparent_crc>
   11a53:	48 8b 05 2e c5 00 00 	mov    0xc52e(%rip),%rax        # 1df88 <g_759+0x8>
   11a5a:	48 c1 e8 30          	shr    $0x30,%rax
   11a5e:	48 89 c2             	mov    %rax,%rdx
   11a61:	48 8b 05 28 c5 00 00 	mov    0xc528(%rip),%rax        # 1df90 <g_759+0x10>
   11a68:	83 e0 3f             	and    $0x3f,%eax
   11a6b:	48 c1 e0 10          	shl    $0x10,%rax
   11a6f:	48 09 d0             	or     %rdx,%rax
   11a72:	48 c1 e0 2a          	shl    $0x2a,%rax
   11a76:	48 c1 f8 2a          	sar    $0x2a,%rax
   11a7a:	48 98                	cltq   
   11a7c:	8b 55 f4             	mov    -0xc(%rbp),%edx
   11a7f:	48 8d 35 b9 6d 00 00 	lea    0x6db9(%rip),%rsi        # 1883f <g_2382+0x173f>
   11a86:	48 89 c7             	mov    %rax,%rdi
   11a89:	e8 65 5c ff ff       	callq  76f3 <transparent_crc>
   11a8e:	48 8b 05 fb c4 00 00 	mov    0xc4fb(%rip),%rax        # 1df90 <g_759+0x10>
   11a95:	48 c1 e8 06          	shr    $0x6,%rax
   11a99:	83 e0 07             	and    $0x7,%eax
   11a9c:	0f b6 c0             	movzbl %al,%eax
   11a9f:	8b 55 f4             	mov    -0xc(%rbp),%edx
   11aa2:	48 8d 35 9f 6d 00 00 	lea    0x6d9f(%rip),%rsi        # 18848 <g_2382+0x1748>
   11aa9:	48 89 c7             	mov    %rax,%rdi
   11aac:	e8 42 5c ff ff       	callq  76f3 <transparent_crc>
   11ab1:	48 8b 05 d8 c4 00 00 	mov    0xc4d8(%rip),%rax        # 1df90 <g_759+0x10>
   11ab8:	48 c1 e8 09          	shr    $0x9,%rax
   11abc:	83 e0 07             	and    $0x7,%eax
   11abf:	0f b6 c0             	movzbl %al,%eax
   11ac2:	8b 55 f4             	mov    -0xc(%rbp),%edx
   11ac5:	48 8d 35 85 6d 00 00 	lea    0x6d85(%rip),%rsi        # 18851 <g_2382+0x1751>
   11acc:	48 89 c7             	mov    %rax,%rdi
   11acf:	e8 1f 5c ff ff       	callq  76f3 <transparent_crc>
   11ad4:	8b 05 ba c4 00 00    	mov    0xc4ba(%rip),%eax        # 1df94 <g_761>
   11ada:	48 98                	cltq   
   11adc:	8b 55 f4             	mov    -0xc(%rbp),%edx
   11adf:	48 8d 35 74 6d 00 00 	lea    0x6d74(%rip),%rsi        # 1885a <g_2382+0x175a>
   11ae6:	48 89 c7             	mov    %rax,%rdi
   11ae9:	e8 05 5c ff ff       	callq  76f3 <transparent_crc>
   11aee:	0f b7 05 a3 c4 00 00 	movzwl 0xc4a3(%rip),%eax        # 1df98 <g_835>
   11af5:	48 0f bf c0          	movswq %ax,%rax
   11af9:	8b 55 f4             	mov    -0xc(%rbp),%edx
   11afc:	48 8d 35 5d 6d 00 00 	lea    0x6d5d(%rip),%rsi        # 18860 <g_2382+0x1760>
   11b03:	48 89 c7             	mov    %rax,%rdi
   11b06:	e8 e8 5b ff ff       	callq  76f3 <transparent_crc>
   11b0b:	8b 05 8f c4 00 00    	mov    0xc48f(%rip),%eax        # 1dfa0 <g_840>
   11b11:	25 ff ff ff 1f       	and    $0x1fffffff,%eax
   11b16:	89 c1                	mov    %eax,%ecx
   11b18:	8b 45 f4             	mov    -0xc(%rbp),%eax
   11b1b:	89 c2                	mov    %eax,%edx
   11b1d:	48 8d 35 42 6d 00 00 	lea    0x6d42(%rip),%rsi        # 18866 <g_2382+0x1766>
   11b24:	48 89 cf             	mov    %rcx,%rdi
   11b27:	e8 c7 5b ff ff       	callq  76f3 <transparent_crc>
   11b2c:	0f b7 05 71 c4 00 00 	movzwl 0xc471(%rip),%eax        # 1dfa4 <g_840+0x4>
   11b33:	c1 e0 06             	shl    $0x6,%eax
   11b36:	66 c1 f8 06          	sar    $0x6,%ax
   11b3a:	48 0f bf c0          	movswq %ax,%rax
   11b3e:	8b 55 f4             	mov    -0xc(%rbp),%edx
   11b41:	48 8d 35 27 6d 00 00 	lea    0x6d27(%rip),%rsi        # 1886f <g_2382+0x176f>
   11b48:	48 89 c7             	mov    %rax,%rdi
   11b4b:	e8 a3 5b ff ff       	callq  76f3 <transparent_crc>
   11b50:	48 8b 05 49 c4 00 00 	mov    0xc449(%rip),%rax        # 1dfa0 <g_840>
   11b57:	48 c1 e8 2a          	shr    $0x2a,%rax
   11b5b:	66 25 ff 3f          	and    $0x3fff,%ax
   11b5f:	0f b7 c0             	movzwl %ax,%eax
   11b62:	8b 55 f4             	mov    -0xc(%rbp),%edx
   11b65:	48 8d 35 0c 6d 00 00 	lea    0x6d0c(%rip),%rsi        # 18878 <g_2382+0x1778>
   11b6c:	48 89 c7             	mov    %rax,%rdi
   11b6f:	e8 7f 5b ff ff       	callq  76f3 <transparent_crc>
   11b74:	0f b7 05 2d c4 00 00 	movzwl 0xc42d(%rip),%eax        # 1dfa8 <g_840+0x8>
   11b7b:	0f b7 c0             	movzwl %ax,%eax
   11b7e:	8b 55 f4             	mov    -0xc(%rbp),%edx
   11b81:	48 8d 35 f9 6c 00 00 	lea    0x6cf9(%rip),%rsi        # 18881 <g_2382+0x1781>
   11b88:	48 89 c7             	mov    %rax,%rdi
   11b8b:	e8 63 5b ff ff       	callq  76f3 <transparent_crc>
   11b90:	0f b7 05 13 c4 00 00 	movzwl 0xc413(%rip),%eax        # 1dfaa <g_840+0xa>
   11b97:	66 25 ff 03          	and    $0x3ff,%ax
   11b9b:	0f b7 c0             	movzwl %ax,%eax
   11b9e:	8b 55 f4             	mov    -0xc(%rbp),%edx
   11ba1:	48 8d 35 e2 6c 00 00 	lea    0x6ce2(%rip),%rsi        # 1888a <g_2382+0x178a>
   11ba8:	48 89 c7             	mov    %rax,%rdi
   11bab:	e8 43 5b ff ff       	callq  76f3 <transparent_crc>
   11bb0:	8b 05 fa c3 00 00    	mov    0xc3fa(%rip),%eax        # 1dfb0 <g_842>
   11bb6:	25 ff ff ff 1f       	and    $0x1fffffff,%eax
   11bbb:	89 c1                	mov    %eax,%ecx
   11bbd:	8b 45 f4             	mov    -0xc(%rbp),%eax
   11bc0:	89 c2                	mov    %eax,%edx
   11bc2:	48 8d 35 ca 6c 00 00 	lea    0x6cca(%rip),%rsi        # 18893 <g_2382+0x1793>
   11bc9:	48 89 cf             	mov    %rcx,%rdi
   11bcc:	e8 22 5b ff ff       	callq  76f3 <transparent_crc>
   11bd1:	0f b7 05 dc c3 00 00 	movzwl 0xc3dc(%rip),%eax        # 1dfb4 <g_842+0x4>
   11bd8:	c1 e0 06             	shl    $0x6,%eax
   11bdb:	66 c1 f8 06          	sar    $0x6,%ax
   11bdf:	48 0f bf c0          	movswq %ax,%rax
   11be3:	8b 55 f4             	mov    -0xc(%rbp),%edx
   11be6:	48 8d 35 af 6c 00 00 	lea    0x6caf(%rip),%rsi        # 1889c <g_2382+0x179c>
   11bed:	48 89 c7             	mov    %rax,%rdi
   11bf0:	e8 fe 5a ff ff       	callq  76f3 <transparent_crc>
   11bf5:	48 8b 05 b4 c3 00 00 	mov    0xc3b4(%rip),%rax        # 1dfb0 <g_842>
   11bfc:	48 c1 e8 2a          	shr    $0x2a,%rax
   11c00:	66 25 ff 3f          	and    $0x3fff,%ax
   11c04:	0f b7 c0             	movzwl %ax,%eax
   11c07:	8b 55 f4             	mov    -0xc(%rbp),%edx
   11c0a:	48 8d 35 94 6c 00 00 	lea    0x6c94(%rip),%rsi        # 188a5 <g_2382+0x17a5>
   11c11:	48 89 c7             	mov    %rax,%rdi
   11c14:	e8 da 5a ff ff       	callq  76f3 <transparent_crc>
   11c19:	0f b7 05 98 c3 00 00 	movzwl 0xc398(%rip),%eax        # 1dfb8 <g_842+0x8>
   11c20:	0f b7 c0             	movzwl %ax,%eax
   11c23:	8b 55 f4             	mov    -0xc(%rbp),%edx
   11c26:	48 8d 35 81 6c 00 00 	lea    0x6c81(%rip),%rsi        # 188ae <g_2382+0x17ae>
   11c2d:	48 89 c7             	mov    %rax,%rdi
   11c30:	e8 be 5a ff ff       	callq  76f3 <transparent_crc>
   11c35:	0f b7 05 7e c3 00 00 	movzwl 0xc37e(%rip),%eax        # 1dfba <g_842+0xa>
   11c3c:	66 25 ff 03          	and    $0x3ff,%ax
   11c40:	0f b7 c0             	movzwl %ax,%eax
   11c43:	8b 55 f4             	mov    -0xc(%rbp),%edx
   11c46:	48 8d 35 6a 6c 00 00 	lea    0x6c6a(%rip),%rsi        # 188b7 <g_2382+0x17b7>
   11c4d:	48 89 c7             	mov    %rax,%rdi
   11c50:	e8 9e 5a ff ff       	callq  76f3 <transparent_crc>
   11c55:	8b 05 65 c3 00 00    	mov    0xc365(%rip),%eax        # 1dfc0 <g_847>
   11c5b:	c1 e0 0d             	shl    $0xd,%eax
   11c5e:	c1 f8 0d             	sar    $0xd,%eax
   11c61:	48 98                	cltq   
   11c63:	8b 55 f4             	mov    -0xc(%rbp),%edx
   11c66:	48 8d 35 53 6c 00 00 	lea    0x6c53(%rip),%rsi        # 188c0 <g_2382+0x17c0>
   11c6d:	48 89 c7             	mov    %rax,%rdi
   11c70:	e8 7e 5a ff ff       	callq  76f3 <transparent_crc>
   11c75:	48 8b 05 44 c3 00 00 	mov    0xc344(%rip),%rax        # 1dfc0 <g_847>
   11c7c:	48 c1 e0 11          	shl    $0x11,%rax
   11c80:	48 c1 f8 24          	sar    $0x24,%rax
   11c84:	48 98                	cltq   
   11c86:	8b 55 f4             	mov    -0xc(%rbp),%edx
   11c89:	48 8d 35 39 6c 00 00 	lea    0x6c39(%rip),%rsi        # 188c9 <g_2382+0x17c9>
   11c90:	48 89 c7             	mov    %rax,%rdi
   11c93:	e8 5b 5a ff ff       	callq  76f3 <transparent_crc>
   11c98:	48 8b 05 27 c3 00 00 	mov    0xc327(%rip),%rax        # 1dfc6 <g_847+0x6>
   11c9f:	48 89 c1             	mov    %rax,%rcx
   11ca2:	8b 45 f4             	mov    -0xc(%rbp),%eax
   11ca5:	89 c2                	mov    %eax,%edx
   11ca7:	48 8d 35 24 6c 00 00 	lea    0x6c24(%rip),%rsi        # 188d2 <g_2382+0x17d2>
   11cae:	48 89 cf             	mov    %rcx,%rdi
   11cb1:	e8 3d 5a ff ff       	callq  76f3 <transparent_crc>
   11cb6:	48 8b 05 0b c3 00 00 	mov    0xc30b(%rip),%rax        # 1dfc8 <g_847+0x8>
   11cbd:	48 c1 e8 30          	shr    $0x30,%rax
   11cc1:	48 89 c2             	mov    %rax,%rdx
   11cc4:	48 8b 05 05 c3 00 00 	mov    0xc305(%rip),%rax        # 1dfd0 <g_847+0x10>
   11ccb:	83 e0 3f             	and    $0x3f,%eax
   11cce:	48 c1 e0 10          	shl    $0x10,%rax
   11cd2:	48 09 d0             	or     %rdx,%rax
   11cd5:	48 c1 e0 2a          	shl    $0x2a,%rax
   11cd9:	48 c1 f8 2a          	sar    $0x2a,%rax
   11cdd:	48 98                	cltq   
   11cdf:	8b 55 f4             	mov    -0xc(%rbp),%edx
   11ce2:	48 8d 35 f2 6b 00 00 	lea    0x6bf2(%rip),%rsi        # 188db <g_2382+0x17db>
   11ce9:	48 89 c7             	mov    %rax,%rdi
   11cec:	e8 02 5a ff ff       	callq  76f3 <transparent_crc>
   11cf1:	0f b7 05 d8 c2 00 00 	movzwl 0xc2d8(%rip),%eax        # 1dfd0 <g_847+0x10>
   11cf8:	66 c1 e8 06          	shr    $0x6,%ax
   11cfc:	83 e0 07             	and    $0x7,%eax
   11cff:	0f b6 c0             	movzbl %al,%eax
   11d02:	8b 55 f4             	mov    -0xc(%rbp),%edx
   11d05:	48 8d 35 d8 6b 00 00 	lea    0x6bd8(%rip),%rsi        # 188e4 <g_2382+0x17e4>
   11d0c:	48 89 c7             	mov    %rax,%rdi
   11d0f:	e8 df 59 ff ff       	callq  76f3 <transparent_crc>
   11d14:	48 8b 05 b5 c2 00 00 	mov    0xc2b5(%rip),%rax        # 1dfd0 <g_847+0x10>
   11d1b:	48 c1 e8 09          	shr    $0x9,%rax
   11d1f:	83 e0 07             	and    $0x7,%eax
   11d22:	0f b6 c0             	movzbl %al,%eax
   11d25:	8b 55 f4             	mov    -0xc(%rbp),%edx
   11d28:	48 8d 35 be 6b 00 00 	lea    0x6bbe(%rip),%rsi        # 188ed <g_2382+0x17ed>
   11d2f:	48 89 c7             	mov    %rax,%rdi
   11d32:	e8 bc 59 ff ff       	callq  76f3 <transparent_crc>
   11d37:	48 8b 05 a2 c2 00 00 	mov    0xc2a2(%rip),%rax        # 1dfe0 <g_956>
   11d3e:	8b 55 f4             	mov    -0xc(%rbp),%edx
   11d41:	48 8d 35 ae 6b 00 00 	lea    0x6bae(%rip),%rsi        # 188f6 <g_2382+0x17f6>
   11d48:	48 89 c7             	mov    %rax,%rdi
   11d4b:	e8 a3 59 ff ff       	callq  76f3 <transparent_crc>
   11d50:	0f b6 05 91 c2 00 00 	movzbl 0xc291(%rip),%eax        # 1dfe8 <g_956+0x8>
   11d57:	0f b6 c0             	movzbl %al,%eax
   11d5a:	8b 55 f4             	mov    -0xc(%rbp),%edx
   11d5d:	48 8d 35 9b 6b 00 00 	lea    0x6b9b(%rip),%rsi        # 188ff <g_2382+0x17ff>
   11d64:	48 89 c7             	mov    %rax,%rdi
   11d67:	e8 87 59 ff ff       	callq  76f3 <transparent_crc>
   11d6c:	0f b7 05 77 c2 00 00 	movzwl 0xc277(%rip),%eax        # 1dfea <g_956+0xa>
   11d73:	0f b7 c0             	movzwl %ax,%eax
   11d76:	8b 55 f4             	mov    -0xc(%rbp),%edx
   11d79:	48 8d 35 88 6b 00 00 	lea    0x6b88(%rip),%rsi        # 18908 <g_2382+0x1808>
   11d80:	48 89 c7             	mov    %rax,%rdi
   11d83:	e8 6b 59 ff ff       	callq  76f3 <transparent_crc>
   11d88:	0f b6 05 5d c2 00 00 	movzbl 0xc25d(%rip),%eax        # 1dfec <g_956+0xc>
   11d8f:	48 0f be c0          	movsbq %al,%rax
   11d93:	8b 55 f4             	mov    -0xc(%rbp),%edx
   11d96:	48 8d 35 74 6b 00 00 	lea    0x6b74(%rip),%rsi        # 18911 <g_2382+0x1811>
   11d9d:	48 89 c7             	mov    %rax,%rdi
   11da0:	e8 4e 59 ff ff       	callq  76f3 <transparent_crc>
   11da5:	48 8b 05 3c c2 00 00 	mov    0xc23c(%rip),%rax        # 1dfe8 <g_956+0x8>
   11dac:	48 c1 e8 28          	shr    $0x28,%rax
   11db0:	83 e0 1f             	and    $0x1f,%eax
   11db3:	0f b6 c0             	movzbl %al,%eax
   11db6:	8b 55 f4             	mov    -0xc(%rbp),%edx
   11db9:	48 8d 35 5a 6b 00 00 	lea    0x6b5a(%rip),%rsi        # 1891a <g_2382+0x181a>
   11dc0:	48 89 c7             	mov    %rax,%rdi
   11dc3:	e8 2b 59 ff ff       	callq  76f3 <transparent_crc>
   11dc8:	48 8b 05 19 c2 00 00 	mov    0xc219(%rip),%rax        # 1dfe8 <g_956+0x8>
   11dcf:	48 c1 e8 2d          	shr    $0x2d,%rax
   11dd3:	66 25 ff 0f          	and    $0xfff,%ax
   11dd7:	0f b7 c0             	movzwl %ax,%eax
   11dda:	8b 55 f4             	mov    -0xc(%rbp),%edx
   11ddd:	48 8d 35 3f 6b 00 00 	lea    0x6b3f(%rip),%rsi        # 18923 <g_2382+0x1823>
   11de4:	48 89 c7             	mov    %rax,%rdi
   11de7:	e8 07 59 ff ff       	callq  76f3 <transparent_crc>
   11dec:	8b 05 fe c1 00 00    	mov    0xc1fe(%rip),%eax        # 1dff0 <g_956+0x10>
   11df2:	48 98                	cltq   
   11df4:	8b 55 f4             	mov    -0xc(%rbp),%edx
   11df7:	48 8d 35 2e 6b 00 00 	lea    0x6b2e(%rip),%rsi        # 1892c <g_2382+0x182c>
   11dfe:	48 89 c7             	mov    %rax,%rdi
   11e01:	e8 ed 58 ff ff       	callq  76f3 <transparent_crc>
   11e06:	8b 05 e8 c1 00 00    	mov    0xc1e8(%rip),%eax        # 1dff4 <g_956+0x14>
   11e0c:	89 c1                	mov    %eax,%ecx
   11e0e:	8b 45 f4             	mov    -0xc(%rbp),%eax
   11e11:	89 c2                	mov    %eax,%edx
   11e13:	48 8d 35 1b 6b 00 00 	lea    0x6b1b(%rip),%rsi        # 18935 <g_2382+0x1835>
   11e1a:	48 89 cf             	mov    %rcx,%rdi
   11e1d:	e8 d1 58 ff ff       	callq  76f3 <transparent_crc>
   11e22:	8b 05 d0 c1 00 00    	mov    0xc1d0(%rip),%eax        # 1dff8 <g_956+0x18>
   11e28:	89 c1                	mov    %eax,%ecx
   11e2a:	8b 45 f4             	mov    -0xc(%rbp),%eax
   11e2d:	89 c2                	mov    %eax,%edx
   11e2f:	48 8d 35 08 6b 00 00 	lea    0x6b08(%rip),%rsi        # 1893e <g_2382+0x183e>
   11e36:	48 89 cf             	mov    %rcx,%rdi
   11e39:	e8 b5 58 ff ff       	callq  76f3 <transparent_crc>
   11e3e:	48 8b 05 bb c1 00 00 	mov    0xc1bb(%rip),%rax        # 1e000 <g_956+0x20>
   11e45:	8b 55 f4             	mov    -0xc(%rbp),%edx
   11e48:	48 8d 35 f8 6a 00 00 	lea    0x6af8(%rip),%rsi        # 18947 <g_2382+0x1847>
   11e4f:	48 89 c7             	mov    %rax,%rdi
   11e52:	e8 9c 58 ff ff       	callq  76f3 <transparent_crc>
   11e57:	8b 05 b3 c1 00 00    	mov    0xc1b3(%rip),%eax        # 1e010 <g_978>
   11e5d:	c1 e0 0d             	shl    $0xd,%eax
   11e60:	c1 f8 0d             	sar    $0xd,%eax
   11e63:	48 98                	cltq   
   11e65:	8b 55 f4             	mov    -0xc(%rbp),%edx
   11e68:	48 8d 35 e1 6a 00 00 	lea    0x6ae1(%rip),%rsi        # 18950 <g_2382+0x1850>
   11e6f:	48 89 c7             	mov    %rax,%rdi
   11e72:	e8 7c 58 ff ff       	callq  76f3 <transparent_crc>
   11e77:	48 8b 05 92 c1 00 00 	mov    0xc192(%rip),%rax        # 1e010 <g_978>
   11e7e:	48 c1 e0 11          	shl    $0x11,%rax
   11e82:	48 c1 f8 24          	sar    $0x24,%rax
   11e86:	48 98                	cltq   
   11e88:	8b 55 f4             	mov    -0xc(%rbp),%edx
   11e8b:	48 8d 35 c7 6a 00 00 	lea    0x6ac7(%rip),%rsi        # 18959 <g_2382+0x1859>
   11e92:	48 89 c7             	mov    %rax,%rdi
   11e95:	e8 59 58 ff ff       	callq  76f3 <transparent_crc>
   11e9a:	48 8b 05 75 c1 00 00 	mov    0xc175(%rip),%rax        # 1e016 <g_978+0x6>
   11ea1:	48 89 c1             	mov    %rax,%rcx
   11ea4:	8b 45 f4             	mov    -0xc(%rbp),%eax
   11ea7:	89 c2                	mov    %eax,%edx
   11ea9:	48 8d 35 b2 6a 00 00 	lea    0x6ab2(%rip),%rsi        # 18962 <g_2382+0x1862>
   11eb0:	48 89 cf             	mov    %rcx,%rdi
   11eb3:	e8 3b 58 ff ff       	callq  76f3 <transparent_crc>
   11eb8:	48 8b 05 59 c1 00 00 	mov    0xc159(%rip),%rax        # 1e018 <g_978+0x8>
   11ebf:	48 c1 e8 30          	shr    $0x30,%rax
   11ec3:	48 89 c2             	mov    %rax,%rdx
   11ec6:	48 8b 05 53 c1 00 00 	mov    0xc153(%rip),%rax        # 1e020 <g_978+0x10>
   11ecd:	83 e0 3f             	and    $0x3f,%eax
   11ed0:	48 c1 e0 10          	shl    $0x10,%rax
   11ed4:	48 09 d0             	or     %rdx,%rax
   11ed7:	48 c1 e0 2a          	shl    $0x2a,%rax
   11edb:	48 c1 f8 2a          	sar    $0x2a,%rax
   11edf:	48 98                	cltq   
   11ee1:	8b 55 f4             	mov    -0xc(%rbp),%edx
   11ee4:	48 8d 35 80 6a 00 00 	lea    0x6a80(%rip),%rsi        # 1896b <g_2382+0x186b>
   11eeb:	48 89 c7             	mov    %rax,%rdi
   11eee:	e8 00 58 ff ff       	callq  76f3 <transparent_crc>
   11ef3:	0f b7 05 26 c1 00 00 	movzwl 0xc126(%rip),%eax        # 1e020 <g_978+0x10>
   11efa:	66 c1 e8 06          	shr    $0x6,%ax
   11efe:	83 e0 07             	and    $0x7,%eax
   11f01:	0f b6 c0             	movzbl %al,%eax
   11f04:	8b 55 f4             	mov    -0xc(%rbp),%edx
   11f07:	48 8d 35 66 6a 00 00 	lea    0x6a66(%rip),%rsi        # 18974 <g_2382+0x1874>
   11f0e:	48 89 c7             	mov    %rax,%rdi
   11f11:	e8 dd 57 ff ff       	callq  76f3 <transparent_crc>
   11f16:	48 8b 05 03 c1 00 00 	mov    0xc103(%rip),%rax        # 1e020 <g_978+0x10>
   11f1d:	48 c1 e8 09          	shr    $0x9,%rax
   11f21:	83 e0 07             	and    $0x7,%eax
   11f24:	0f b6 c0             	movzbl %al,%eax
   11f27:	8b 55 f4             	mov    -0xc(%rbp),%edx
   11f2a:	48 8d 35 4c 6a 00 00 	lea    0x6a4c(%rip),%rsi        # 1897d <g_2382+0x187d>
   11f31:	48 89 c7             	mov    %rax,%rdi
   11f34:	e8 ba 57 ff ff       	callq  76f3 <transparent_crc>
   11f39:	c7 45 e8 00 00 00 00 	movl   $0x0,-0x18(%rbp)
   11f40:	e9 f2 01 00 00       	jmpq   12137 <main+0x2fbf>
   11f45:	c7 45 ec 00 00 00 00 	movl   $0x0,-0x14(%rbp)
   11f4c:	e9 d8 01 00 00       	jmpq   12129 <main+0x2fb1>
   11f51:	8b 45 ec             	mov    -0x14(%rbp),%eax
   11f54:	48 98                	cltq   
   11f56:	8b 55 e8             	mov    -0x18(%rbp),%edx
   11f59:	48 63 ca             	movslq %edx,%rcx
   11f5c:	48 89 c2             	mov    %rax,%rdx
   11f5f:	48 01 d2             	add    %rdx,%rdx
   11f62:	48 01 c2             	add    %rax,%rdx
   11f65:	48 8d 04 95 00 00 00 	lea    0x0(,%rdx,4),%rax
   11f6c:	00 
   11f6d:	48 89 c2             	mov    %rax,%rdx
   11f70:	48 89 c8             	mov    %rcx,%rax
   11f73:	48 c1 e0 03          	shl    $0x3,%rax
   11f77:	48 01 c8             	add    %rcx,%rax
   11f7a:	48 c1 e0 02          	shl    $0x2,%rax
   11f7e:	48 01 c2             	add    %rax,%rdx
   11f81:	48 8d 05 b8 c0 00 00 	lea    0xc0b8(%rip),%rax        # 1e040 <g_1013>
   11f88:	48 01 d0             	add    %rdx,%rax
   11f8b:	8b 00                	mov    (%rax),%eax
   11f8d:	25 ff ff ff 1f       	and    $0x1fffffff,%eax
   11f92:	89 c1                	mov    %eax,%ecx
   11f94:	8b 45 f4             	mov    -0xc(%rbp),%eax
   11f97:	89 c2                	mov    %eax,%edx
   11f99:	48 8d 35 e6 69 00 00 	lea    0x69e6(%rip),%rsi        # 18986 <g_2382+0x1886>
   11fa0:	48 89 cf             	mov    %rcx,%rdi
   11fa3:	e8 4b 57 ff ff       	callq  76f3 <transparent_crc>
   11fa8:	8b 45 ec             	mov    -0x14(%rbp),%eax
   11fab:	48 98                	cltq   
   11fad:	8b 55 e8             	mov    -0x18(%rbp),%edx
   11fb0:	48 63 ca             	movslq %edx,%rcx
   11fb3:	48 89 c2             	mov    %rax,%rdx
   11fb6:	48 01 d2             	add    %rdx,%rdx
   11fb9:	48 01 c2             	add    %rax,%rdx
   11fbc:	48 8d 04 95 00 00 00 	lea    0x0(,%rdx,4),%rax
   11fc3:	00 
   11fc4:	48 89 c2             	mov    %rax,%rdx
   11fc7:	48 89 c8             	mov    %rcx,%rax
   11fca:	48 c1 e0 03          	shl    $0x3,%rax
   11fce:	48 01 c8             	add    %rcx,%rax
   11fd1:	48 c1 e0 02          	shl    $0x2,%rax
   11fd5:	48 01 c2             	add    %rax,%rdx
   11fd8:	48 8d 05 61 c0 00 00 	lea    0xc061(%rip),%rax        # 1e040 <g_1013>
   11fdf:	48 01 d0             	add    %rdx,%rax
   11fe2:	8b 40 04             	mov    0x4(%rax),%eax
   11fe5:	c1 e0 06             	shl    $0x6,%eax
   11fe8:	66 c1 f8 06          	sar    $0x6,%ax
   11fec:	48 0f bf c0          	movswq %ax,%rax
   11ff0:	8b 55 f4             	mov    -0xc(%rbp),%edx
   11ff3:	48 8d 35 9c 69 00 00 	lea    0x699c(%rip),%rsi        # 18996 <g_2382+0x1896>
   11ffa:	48 89 c7             	mov    %rax,%rdi
   11ffd:	e8 f1 56 ff ff       	callq  76f3 <transparent_crc>
   12002:	8b 45 ec             	mov    -0x14(%rbp),%eax
   12005:	48 98                	cltq   
   12007:	8b 55 e8             	mov    -0x18(%rbp),%edx
   1200a:	48 63 ca             	movslq %edx,%rcx
   1200d:	48 89 c2             	mov    %rax,%rdx
   12010:	48 01 d2             	add    %rdx,%rdx
   12013:	48 01 c2             	add    %rax,%rdx
   12016:	48 8d 04 95 00 00 00 	lea    0x0(,%rdx,4),%rax
   1201d:	00 
   1201e:	48 89 c2             	mov    %rax,%rdx
   12021:	48 89 c8             	mov    %rcx,%rax
   12024:	48 c1 e0 03          	shl    $0x3,%rax
   12028:	48 01 c8             	add    %rcx,%rax
   1202b:	48 c1 e0 02          	shl    $0x2,%rax
   1202f:	48 01 c2             	add    %rax,%rdx
   12032:	48 8d 05 07 c0 00 00 	lea    0xc007(%rip),%rax        # 1e040 <g_1013>
   12039:	48 01 d0             	add    %rdx,%rax
   1203c:	8b 40 04             	mov    0x4(%rax),%eax
   1203f:	c1 e8 0a             	shr    $0xa,%eax
   12042:	66 25 ff 3f          	and    $0x3fff,%ax
   12046:	0f b7 c0             	movzwl %ax,%eax
   12049:	8b 55 f4             	mov    -0xc(%rbp),%edx
   1204c:	48 8d 35 53 69 00 00 	lea    0x6953(%rip),%rsi        # 189a6 <g_2382+0x18a6>
   12053:	48 89 c7             	mov    %rax,%rdi
   12056:	e8 98 56 ff ff       	callq  76f3 <transparent_crc>
   1205b:	8b 45 ec             	mov    -0x14(%rbp),%eax
   1205e:	48 98                	cltq   
   12060:	8b 55 e8             	mov    -0x18(%rbp),%edx
   12063:	48 63 ca             	movslq %edx,%rcx
   12066:	48 89 c2             	mov    %rax,%rdx
   12069:	48 01 d2             	add    %rdx,%rdx
   1206c:	48 01 c2             	add    %rax,%rdx
   1206f:	48 8d 04 95 00 00 00 	lea    0x0(,%rdx,4),%rax
   12076:	00 
   12077:	48 89 c2             	mov    %rax,%rdx
   1207a:	48 89 c8             	mov    %rcx,%rax
   1207d:	48 c1 e0 03          	shl    $0x3,%rax
   12081:	48 01 c8             	add    %rcx,%rax
   12084:	48 c1 e0 02          	shl    $0x2,%rax
   12088:	48 01 c2             	add    %rax,%rdx
   1208b:	48 8d 05 b6 bf 00 00 	lea    0xbfb6(%rip),%rax        # 1e048 <g_1013+0x8>
   12092:	48 01 d0             	add    %rdx,%rax
   12095:	0f b7 00             	movzwl (%rax),%eax
   12098:	0f b7 c0             	movzwl %ax,%eax
   1209b:	8b 55 f4             	mov    -0xc(%rbp),%edx
   1209e:	48 8d 35 11 69 00 00 	lea    0x6911(%rip),%rsi        # 189b6 <g_2382+0x18b6>
   120a5:	48 89 c7             	mov    %rax,%rdi
   120a8:	e8 46 56 ff ff       	callq  76f3 <transparent_crc>
   120ad:	8b 45 ec             	mov    -0x14(%rbp),%eax
   120b0:	48 98                	cltq   
   120b2:	8b 55 e8             	mov    -0x18(%rbp),%edx
   120b5:	48 63 ca             	movslq %edx,%rcx
   120b8:	48 89 c2             	mov    %rax,%rdx
   120bb:	48 01 d2             	add    %rdx,%rdx
   120be:	48 01 c2             	add    %rax,%rdx
   120c1:	48 8d 04 95 00 00 00 	lea    0x0(,%rdx,4),%rax
   120c8:	00 
   120c9:	48 89 c2             	mov    %rax,%rdx
   120cc:	48 89 c8             	mov    %rcx,%rax
   120cf:	48 c1 e0 03          	shl    $0x3,%rax
   120d3:	48 01 c8             	add    %rcx,%rax
   120d6:	48 c1 e0 02          	shl    $0x2,%rax
   120da:	48 01 c2             	add    %rax,%rdx
   120dd:	48 8d 05 5c bf 00 00 	lea    0xbf5c(%rip),%rax        # 1e040 <g_1013>
   120e4:	48 01 d0             	add    %rdx,%rax
   120e7:	8b 40 08             	mov    0x8(%rax),%eax
   120ea:	c1 e8 10             	shr    $0x10,%eax
   120ed:	66 25 ff 03          	and    $0x3ff,%ax
   120f1:	0f b7 c0             	movzwl %ax,%eax
   120f4:	8b 55 f4             	mov    -0xc(%rbp),%edx
   120f7:	48 8d 35 c8 68 00 00 	lea    0x68c8(%rip),%rsi        # 189c6 <g_2382+0x18c6>
   120fe:	48 89 c7             	mov    %rax,%rdi
   12101:	e8 ed 55 ff ff       	callq  76f3 <transparent_crc>
   12106:	83 7d f4 00          	cmpl   $0x0,-0xc(%rbp)
   1210a:	74 19                	je     12125 <main+0x2fad>
   1210c:	8b 55 ec             	mov    -0x14(%rbp),%edx
   1210f:	8b 45 e8             	mov    -0x18(%rbp),%eax
   12112:	89 c6                	mov    %eax,%esi
   12114:	48 8d 3d 41 5f 00 00 	lea    0x5f41(%rip),%rdi        # 1805c <g_2382+0xf5c>
   1211b:	b8 00 00 00 00       	mov    $0x0,%eax
   12120:	e8 5b 3f ff ff       	callq  6080 <printf@plt>
   12125:	83 45 ec 01          	addl   $0x1,-0x14(%rbp)
   12129:	83 7d ec 02          	cmpl   $0x2,-0x14(%rbp)
   1212d:	0f 8e 1e fe ff ff    	jle    11f51 <main+0x2dd9>
   12133:	83 45 e8 01          	addl   $0x1,-0x18(%rbp)
   12137:	83 7d e8 00          	cmpl   $0x0,-0x18(%rbp)
   1213b:	0f 8e 04 fe ff ff    	jle    11f45 <main+0x2dcd>
   12141:	48 8b 05 20 bf 00 00 	mov    0xbf20(%rip),%rax        # 1e068 <g_1019>
   12148:	8b 55 f4             	mov    -0xc(%rbp),%edx
   1214b:	48 8d 35 84 68 00 00 	lea    0x6884(%rip),%rsi        # 189d6 <g_2382+0x18d6>
   12152:	48 89 c7             	mov    %rax,%rdi
   12155:	e8 99 55 ff ff       	callq  76f3 <transparent_crc>
   1215a:	48 8b 05 1f 4f 00 00 	mov    0x4f1f(%rip),%rax        # 17080 <g_1024>
   12161:	8b 55 f4             	mov    -0xc(%rbp),%edx
   12164:	48 8d 35 72 68 00 00 	lea    0x6872(%rip),%rsi        # 189dd <g_2382+0x18dd>
   1216b:	48 89 c7             	mov    %rax,%rdi
   1216e:	e8 80 55 ff ff       	callq  76f3 <transparent_crc>
   12173:	b8 fa ff ff ff       	mov    $0xfffffffa,%eax
   12178:	0f b6 c0             	movzbl %al,%eax
   1217b:	8b 55 f4             	mov    -0xc(%rbp),%edx
   1217e:	48 8d 35 62 68 00 00 	lea    0x6862(%rip),%rsi        # 189e7 <g_2382+0x18e7>
   12185:	48 89 c7             	mov    %rax,%rdi
   12188:	e8 66 55 ff ff       	callq  76f3 <transparent_crc>
   1218d:	0f b7 05 f6 4e 00 00 	movzwl 0x4ef6(%rip),%eax        # 1708a <g_1024+0xa>
   12194:	0f b7 c0             	movzwl %ax,%eax
   12197:	8b 55 f4             	mov    -0xc(%rbp),%edx
   1219a:	48 8d 35 50 68 00 00 	lea    0x6850(%rip),%rsi        # 189f1 <g_2382+0x18f1>
   121a1:	48 89 c7             	mov    %rax,%rdi
   121a4:	e8 4a 55 ff ff       	callq  76f3 <transparent_crc>
   121a9:	b8 01 00 00 00       	mov    $0x1,%eax
   121ae:	48 0f be c0          	movsbq %al,%rax
   121b2:	8b 55 f4             	mov    -0xc(%rbp),%edx
   121b5:	48 8d 35 3f 68 00 00 	lea    0x683f(%rip),%rsi        # 189fb <g_2382+0x18fb>
   121bc:	48 89 c7             	mov    %rax,%rdi
   121bf:	e8 2f 55 ff ff       	callq  76f3 <transparent_crc>
   121c4:	b8 00 00 00 00       	mov    $0x0,%eax
   121c9:	0f b6 c0             	movzbl %al,%eax
   121cc:	8b 55 f4             	mov    -0xc(%rbp),%edx
   121cf:	48 8d 35 2f 68 00 00 	lea    0x682f(%rip),%rsi        # 18a05 <g_2382+0x1905>
   121d6:	48 89 c7             	mov    %rax,%rdi
   121d9:	e8 15 55 ff ff       	callq  76f3 <transparent_crc>
   121de:	b8 31 00 00 00       	mov    $0x31,%eax
   121e3:	0f b7 c0             	movzwl %ax,%eax
   121e6:	8b 55 f4             	mov    -0xc(%rbp),%edx
   121e9:	48 8d 35 1f 68 00 00 	lea    0x681f(%rip),%rsi        # 18a0f <g_2382+0x190f>
   121f0:	48 89 c7             	mov    %rax,%rdi
   121f3:	e8 fb 54 ff ff       	callq  76f3 <transparent_crc>
   121f8:	8b 05 92 4e 00 00    	mov    0x4e92(%rip),%eax        # 17090 <g_1024+0x10>
   121fe:	48 98                	cltq   
   12200:	8b 55 f4             	mov    -0xc(%rbp),%edx
   12203:	48 8d 35 0f 68 00 00 	lea    0x680f(%rip),%rsi        # 18a19 <g_2382+0x1919>
   1220a:	48 89 c7             	mov    %rax,%rdi
   1220d:	e8 e1 54 ff ff       	callq  76f3 <transparent_crc>
   12212:	b8 01 00 00 00       	mov    $0x1,%eax
   12217:	89 c1                	mov    %eax,%ecx
   12219:	8b 45 f4             	mov    -0xc(%rbp),%eax
   1221c:	89 c2                	mov    %eax,%edx
   1221e:	48 8d 35 fe 67 00 00 	lea    0x67fe(%rip),%rsi        # 18a23 <g_2382+0x1923>
   12225:	48 89 cf             	mov    %rcx,%rdi
   12228:	e8 c6 54 ff ff       	callq  76f3 <transparent_crc>
   1222d:	b8 f9 ff ff ff       	mov    $0xfffffff9,%eax
   12232:	89 c1                	mov    %eax,%ecx
   12234:	8b 45 f4             	mov    -0xc(%rbp),%eax
   12237:	89 c2                	mov    %eax,%edx
   12239:	48 8d 35 ed 67 00 00 	lea    0x67ed(%rip),%rsi        # 18a2d <g_2382+0x192d>
   12240:	48 89 cf             	mov    %rcx,%rdi
   12243:	e8 ab 54 ff ff       	callq  76f3 <transparent_crc>
   12248:	48 8b 05 51 4e 00 00 	mov    0x4e51(%rip),%rax        # 170a0 <g_1024+0x20>
   1224f:	8b 55 f4             	mov    -0xc(%rbp),%edx
   12252:	48 8d 35 de 67 00 00 	lea    0x67de(%rip),%rsi        # 18a37 <g_2382+0x1937>
   12259:	48 89 c7             	mov    %rax,%rdi
   1225c:	e8 92 54 ff ff       	callq  76f3 <transparent_crc>
   12261:	0f b6 05 08 be 00 00 	movzbl 0xbe08(%rip),%eax        # 1e070 <g_1034>
   12268:	48 0f be c0          	movsbq %al,%rax
   1226c:	8b 55 f4             	mov    -0xc(%rbp),%edx
   1226f:	48 8d 35 cb 67 00 00 	lea    0x67cb(%rip),%rsi        # 18a41 <g_2382+0x1941>
   12276:	48 89 c7             	mov    %rax,%rdi
   12279:	e8 75 54 ff ff       	callq  76f3 <transparent_crc>
   1227e:	48 8b 05 f3 bd 00 00 	mov    0xbdf3(%rip),%rax        # 1e078 <g_1041>
   12285:	25 ff ff ff 1f       	and    $0x1fffffff,%eax
   1228a:	89 c1                	mov    %eax,%ecx
   1228c:	8b 45 f4             	mov    -0xc(%rbp),%eax
   1228f:	89 c2                	mov    %eax,%edx
   12291:	48 8d 35 b0 67 00 00 	lea    0x67b0(%rip),%rsi        # 18a48 <g_2382+0x1948>
   12298:	48 89 cf             	mov    %rcx,%rdi
   1229b:	e8 53 54 ff ff       	callq  76f3 <transparent_crc>
   122a0:	48 8b 05 d1 bd 00 00 	mov    0xbdd1(%rip),%rax        # 1e078 <g_1041>
   122a7:	48 c1 e0 16          	shl    $0x16,%rax
   122ab:	48 c1 f8 36          	sar    $0x36,%rax
   122af:	48 0f bf c0          	movswq %ax,%rax
   122b3:	8b 55 f4             	mov    -0xc(%rbp),%edx
   122b6:	48 8d 35 95 67 00 00 	lea    0x6795(%rip),%rsi        # 18a52 <g_2382+0x1952>
   122bd:	48 89 c7             	mov    %rax,%rdi
   122c0:	e8 2e 54 ff ff       	callq  76f3 <transparent_crc>
   122c5:	48 8b 05 ac bd 00 00 	mov    0xbdac(%rip),%rax        # 1e078 <g_1041>
   122cc:	48 c1 e8 2a          	shr    $0x2a,%rax
   122d0:	66 25 ff 3f          	and    $0x3fff,%ax
   122d4:	0f b7 c0             	movzwl %ax,%eax
   122d7:	8b 55 f4             	mov    -0xc(%rbp),%edx
   122da:	48 8d 35 7b 67 00 00 	lea    0x677b(%rip),%rsi        # 18a5c <g_2382+0x195c>
   122e1:	48 89 c7             	mov    %rax,%rdi
   122e4:	e8 0a 54 ff ff       	callq  76f3 <transparent_crc>
   122e9:	0f b7 05 90 bd 00 00 	movzwl 0xbd90(%rip),%eax        # 1e080 <g_1041+0x8>
   122f0:	0f b7 c0             	movzwl %ax,%eax
   122f3:	8b 55 f4             	mov    -0xc(%rbp),%edx
   122f6:	48 8d 35 69 67 00 00 	lea    0x6769(%rip),%rsi        # 18a66 <g_2382+0x1966>
   122fd:	48 89 c7             	mov    %rax,%rdi
   12300:	e8 ee 53 ff ff       	callq  76f3 <transparent_crc>
   12305:	48 8b 05 74 bd 00 00 	mov    0xbd74(%rip),%rax        # 1e080 <g_1041+0x8>
   1230c:	48 c1 e8 10          	shr    $0x10,%rax
   12310:	66 25 ff 03          	and    $0x3ff,%ax
   12314:	0f b7 c0             	movzwl %ax,%eax
   12317:	8b 55 f4             	mov    -0xc(%rbp),%edx
   1231a:	48 8d 35 4f 67 00 00 	lea    0x674f(%rip),%rsi        # 18a70 <g_2382+0x1970>
   12321:	48 89 c7             	mov    %rax,%rdi
   12324:	e8 ca 53 ff ff       	callq  76f3 <transparent_crc>
   12329:	c7 45 e8 00 00 00 00 	movl   $0x0,-0x18(%rbp)
   12330:	e9 41 02 00 00       	jmpq   12576 <main+0x33fe>
   12335:	c7 45 ec 00 00 00 00 	movl   $0x0,-0x14(%rbp)
   1233c:	e9 27 02 00 00       	jmpq   12568 <main+0x33f0>
   12341:	c7 45 f0 00 00 00 00 	movl   $0x0,-0x10(%rbp)
   12348:	e9 0d 02 00 00       	jmpq   1255a <main+0x33e2>
   1234d:	8b 45 f0             	mov    -0x10(%rbp),%eax
   12350:	48 63 d0             	movslq %eax,%rdx
   12353:	8b 45 ec             	mov    -0x14(%rbp),%eax
   12356:	48 63 c8             	movslq %eax,%rcx
   12359:	8b 45 e8             	mov    -0x18(%rbp),%eax
   1235c:	48 63 f0             	movslq %eax,%rsi
   1235f:	48 89 d0             	mov    %rdx,%rax
   12362:	48 01 c0             	add    %rax,%rax
   12365:	48 01 d0             	add    %rdx,%rax
   12368:	48 c1 e0 02          	shl    $0x2,%rax
   1236c:	48 89 ca             	mov    %rcx,%rdx
   1236f:	48 c1 e2 04          	shl    $0x4,%rdx
   12373:	48 29 ca             	sub    %rcx,%rdx
   12376:	48 c1 e2 03          	shl    $0x3,%rdx
   1237a:	48 01 c2             	add    %rax,%rdx
   1237d:	48 69 c6 68 01 00 00 	imul   $0x168,%rsi,%rax
   12384:	48 01 c2             	add    %rax,%rdx
   12387:	48 8d 05 12 bd 00 00 	lea    0xbd12(%rip),%rax        # 1e0a0 <g_1044>
   1238e:	48 01 d0             	add    %rdx,%rax
   12391:	8b 00                	mov    (%rax),%eax
   12393:	25 ff ff ff 1f       	and    $0x1fffffff,%eax
   12398:	89 c1                	mov    %eax,%ecx
   1239a:	8b 45 f4             	mov    -0xc(%rbp),%eax
   1239d:	89 c2                	mov    %eax,%edx
   1239f:	48 8d 35 d4 66 00 00 	lea    0x66d4(%rip),%rsi        # 18a7a <g_2382+0x197a>
   123a6:	48 89 cf             	mov    %rcx,%rdi
   123a9:	e8 45 53 ff ff       	callq  76f3 <transparent_crc>
   123ae:	8b 45 f0             	mov    -0x10(%rbp),%eax
   123b1:	48 63 d0             	movslq %eax,%rdx
   123b4:	8b 45 ec             	mov    -0x14(%rbp),%eax
   123b7:	48 63 c8             	movslq %eax,%rcx
   123ba:	8b 45 e8             	mov    -0x18(%rbp),%eax
   123bd:	48 63 f0             	movslq %eax,%rsi
   123c0:	48 89 d0             	mov    %rdx,%rax
   123c3:	48 01 c0             	add    %rax,%rax
   123c6:	48 01 d0             	add    %rdx,%rax
   123c9:	48 c1 e0 02          	shl    $0x2,%rax
   123cd:	48 89 ca             	mov    %rcx,%rdx
   123d0:	48 c1 e2 04          	shl    $0x4,%rdx
   123d4:	48 29 ca             	sub    %rcx,%rdx
   123d7:	48 c1 e2 03          	shl    $0x3,%rdx
   123db:	48 01 c2             	add    %rax,%rdx
   123de:	48 69 c6 68 01 00 00 	imul   $0x168,%rsi,%rax
   123e5:	48 01 c2             	add    %rax,%rdx
   123e8:	48 8d 05 b1 bc 00 00 	lea    0xbcb1(%rip),%rax        # 1e0a0 <g_1044>
   123ef:	48 01 d0             	add    %rdx,%rax
   123f2:	8b 40 04             	mov    0x4(%rax),%eax
   123f5:	c1 e0 06             	shl    $0x6,%eax
   123f8:	66 c1 f8 06          	sar    $0x6,%ax
   123fc:	48 0f bf c0          	movswq %ax,%rax
   12400:	8b 55 f4             	mov    -0xc(%rbp),%edx
   12403:	48 8d 35 83 66 00 00 	lea    0x6683(%rip),%rsi        # 18a8d <g_2382+0x198d>
   1240a:	48 89 c7             	mov    %rax,%rdi
   1240d:	e8 e1 52 ff ff       	callq  76f3 <transparent_crc>
   12412:	8b 45 f0             	mov    -0x10(%rbp),%eax
   12415:	48 63 d0             	movslq %eax,%rdx
   12418:	8b 45 ec             	mov    -0x14(%rbp),%eax
   1241b:	48 63 c8             	movslq %eax,%rcx
   1241e:	8b 45 e8             	mov    -0x18(%rbp),%eax
   12421:	48 63 f0             	movslq %eax,%rsi
   12424:	48 89 d0             	mov    %rdx,%rax
   12427:	48 01 c0             	add    %rax,%rax
   1242a:	48 01 d0             	add    %rdx,%rax
   1242d:	48 c1 e0 02          	shl    $0x2,%rax
   12431:	48 89 ca             	mov    %rcx,%rdx
   12434:	48 c1 e2 04          	shl    $0x4,%rdx
   12438:	48 29 ca             	sub    %rcx,%rdx
   1243b:	48 c1 e2 03          	shl    $0x3,%rdx
   1243f:	48 01 c2             	add    %rax,%rdx
   12442:	48 69 c6 68 01 00 00 	imul   $0x168,%rsi,%rax
   12449:	48 01 c2             	add    %rax,%rdx
   1244c:	48 8d 05 4d bc 00 00 	lea    0xbc4d(%rip),%rax        # 1e0a0 <g_1044>
   12453:	48 01 d0             	add    %rdx,%rax
   12456:	8b 40 04             	mov    0x4(%rax),%eax
   12459:	c1 e8 0a             	shr    $0xa,%eax
   1245c:	66 25 ff 3f          	and    $0x3fff,%ax
   12460:	0f b7 c0             	movzwl %ax,%eax
   12463:	8b 55 f4             	mov    -0xc(%rbp),%edx
   12466:	48 8d 35 33 66 00 00 	lea    0x6633(%rip),%rsi        # 18aa0 <g_2382+0x19a0>
   1246d:	48 89 c7             	mov    %rax,%rdi
   12470:	e8 7e 52 ff ff       	callq  76f3 <transparent_crc>
   12475:	8b 45 f0             	mov    -0x10(%rbp),%eax
   12478:	48 63 d0             	movslq %eax,%rdx
   1247b:	8b 45 ec             	mov    -0x14(%rbp),%eax
   1247e:	48 63 c8             	movslq %eax,%rcx
   12481:	8b 45 e8             	mov    -0x18(%rbp),%eax
   12484:	48 63 f0             	movslq %eax,%rsi
   12487:	48 89 d0             	mov    %rdx,%rax
   1248a:	48 01 c0             	add    %rax,%rax
   1248d:	48 01 d0             	add    %rdx,%rax
   12490:	48 c1 e0 02          	shl    $0x2,%rax
   12494:	48 89 ca             	mov    %rcx,%rdx
   12497:	48 c1 e2 04          	shl    $0x4,%rdx
   1249b:	48 29 ca             	sub    %rcx,%rdx
   1249e:	48 c1 e2 03          	shl    $0x3,%rdx
   124a2:	48 01 c2             	add    %rax,%rdx
   124a5:	48 69 c6 68 01 00 00 	imul   $0x168,%rsi,%rax
   124ac:	48 01 c2             	add    %rax,%rdx
   124af:	48 8d 05 f2 bb 00 00 	lea    0xbbf2(%rip),%rax        # 1e0a8 <g_1044+0x8>
   124b6:	48 01 d0             	add    %rdx,%rax
   124b9:	0f b7 00             	movzwl (%rax),%eax
   124bc:	0f b7 c0             	movzwl %ax,%eax
   124bf:	8b 55 f4             	mov    -0xc(%rbp),%edx
   124c2:	48 8d 35 ea 65 00 00 	lea    0x65ea(%rip),%rsi        # 18ab3 <g_2382+0x19b3>
   124c9:	48 89 c7             	mov    %rax,%rdi
   124cc:	e8 22 52 ff ff       	callq  76f3 <transparent_crc>
   124d1:	8b 45 f0             	mov    -0x10(%rbp),%eax
   124d4:	48 63 d0             	movslq %eax,%rdx
   124d7:	8b 45 ec             	mov    -0x14(%rbp),%eax
   124da:	48 63 c8             	movslq %eax,%rcx
   124dd:	8b 45 e8             	mov    -0x18(%rbp),%eax
   124e0:	48 63 f0             	movslq %eax,%rsi
   124e3:	48 89 d0             	mov    %rdx,%rax
   124e6:	48 01 c0             	add    %rax,%rax
   124e9:	48 01 d0             	add    %rdx,%rax
   124ec:	48 c1 e0 02          	shl    $0x2,%rax
   124f0:	48 89 ca             	mov    %rcx,%rdx
   124f3:	48 c1 e2 04          	shl    $0x4,%rdx
   124f7:	48 29 ca             	sub    %rcx,%rdx
   124fa:	48 c1 e2 03          	shl    $0x3,%rdx
   124fe:	48 01 c2             	add    %rax,%rdx
   12501:	48 69 c6 68 01 00 00 	imul   $0x168,%rsi,%rax
   12508:	48 01 c2             	add    %rax,%rdx
   1250b:	48 8d 05 8e bb 00 00 	lea    0xbb8e(%rip),%rax        # 1e0a0 <g_1044>
   12512:	48 01 d0             	add    %rdx,%rax
   12515:	8b 40 08             	mov    0x8(%rax),%eax
   12518:	c1 e8 10             	shr    $0x10,%eax
   1251b:	66 25 ff 03          	and    $0x3ff,%ax
   1251f:	0f b7 c0             	movzwl %ax,%eax
   12522:	8b 55 f4             	mov    -0xc(%rbp),%edx
   12525:	48 8d 35 9a 65 00 00 	lea    0x659a(%rip),%rsi        # 18ac6 <g_2382+0x19c6>
   1252c:	48 89 c7             	mov    %rax,%rdi
   1252f:	e8 bf 51 ff ff       	callq  76f3 <transparent_crc>
   12534:	83 7d f4 00          	cmpl   $0x0,-0xc(%rbp)
   12538:	74 1c                	je     12556 <main+0x33de>
   1253a:	8b 4d f0             	mov    -0x10(%rbp),%ecx
   1253d:	8b 55 ec             	mov    -0x14(%rbp),%edx
   12540:	8b 45 e8             	mov    -0x18(%rbp),%eax
   12543:	89 c6                	mov    %eax,%esi
   12545:	48 8d 3d c0 5e 00 00 	lea    0x5ec0(%rip),%rdi        # 1840c <g_2382+0x130c>
   1254c:	b8 00 00 00 00       	mov    $0x0,%eax
   12551:	e8 2a 3b ff ff       	callq  6080 <printf@plt>
   12556:	83 45 f0 01          	addl   $0x1,-0x10(%rbp)
   1255a:	83 7d f0 09          	cmpl   $0x9,-0x10(%rbp)
   1255e:	0f 8e e9 fd ff ff    	jle    1234d <main+0x31d5>
   12564:	83 45 ec 01          	addl   $0x1,-0x14(%rbp)
   12568:	83 7d ec 02          	cmpl   $0x2,-0x14(%rbp)
   1256c:	0f 8e cf fd ff ff    	jle    12341 <main+0x31c9>
   12572:	83 45 e8 01          	addl   $0x1,-0x18(%rbp)
   12576:	83 7d e8 04          	cmpl   $0x4,-0x18(%rbp)
   1257a:	0f 8e b5 fd ff ff    	jle    12335 <main+0x31bd>
   12580:	8b 05 2a c2 00 00    	mov    0xc22a(%rip),%eax        # 1e7b0 <g_1102>
   12586:	c1 e0 0d             	shl    $0xd,%eax
   12589:	c1 f8 0d             	sar    $0xd,%eax
   1258c:	48 98                	cltq   
   1258e:	8b 55 f4             	mov    -0xc(%rbp),%edx
   12591:	48 8d 35 41 65 00 00 	lea    0x6541(%rip),%rsi        # 18ad9 <g_2382+0x19d9>
   12598:	48 89 c7             	mov    %rax,%rdi
   1259b:	e8 53 51 ff ff       	callq  76f3 <transparent_crc>
   125a0:	48 8b 05 09 c2 00 00 	mov    0xc209(%rip),%rax        # 1e7b0 <g_1102>
   125a7:	48 c1 e0 11          	shl    $0x11,%rax
   125ab:	48 c1 f8 24          	sar    $0x24,%rax
   125af:	48 98                	cltq   
   125b1:	8b 55 f4             	mov    -0xc(%rbp),%edx
   125b4:	48 8d 35 28 65 00 00 	lea    0x6528(%rip),%rsi        # 18ae3 <g_2382+0x19e3>
   125bb:	48 89 c7             	mov    %rax,%rdi
   125be:	e8 30 51 ff ff       	callq  76f3 <transparent_crc>
   125c3:	48 8b 05 ec c1 00 00 	mov    0xc1ec(%rip),%rax        # 1e7b6 <g_1102+0x6>
   125ca:	48 89 c1             	mov    %rax,%rcx
   125cd:	8b 45 f4             	mov    -0xc(%rbp),%eax
   125d0:	89 c2                	mov    %eax,%edx
   125d2:	48 8d 35 14 65 00 00 	lea    0x6514(%rip),%rsi        # 18aed <g_2382+0x19ed>
   125d9:	48 89 cf             	mov    %rcx,%rdi
   125dc:	e8 12 51 ff ff       	callq  76f3 <transparent_crc>
   125e1:	48 8b 05 d0 c1 00 00 	mov    0xc1d0(%rip),%rax        # 1e7b8 <g_1102+0x8>
   125e8:	48 c1 e8 30          	shr    $0x30,%rax
   125ec:	48 89 c2             	mov    %rax,%rdx
   125ef:	48 8b 05 ca c1 00 00 	mov    0xc1ca(%rip),%rax        # 1e7c0 <g_1102+0x10>
   125f6:	83 e0 3f             	and    $0x3f,%eax
   125f9:	48 c1 e0 10          	shl    $0x10,%rax
   125fd:	48 09 d0             	or     %rdx,%rax
   12600:	48 c1 e0 2a          	shl    $0x2a,%rax
   12604:	48 c1 f8 2a          	sar    $0x2a,%rax
   12608:	48 98                	cltq   
   1260a:	8b 55 f4             	mov    -0xc(%rbp),%edx
   1260d:	48 8d 35 e3 64 00 00 	lea    0x64e3(%rip),%rsi        # 18af7 <g_2382+0x19f7>
   12614:	48 89 c7             	mov    %rax,%rdi
   12617:	e8 d7 50 ff ff       	callq  76f3 <transparent_crc>
   1261c:	0f b7 05 9d c1 00 00 	movzwl 0xc19d(%rip),%eax        # 1e7c0 <g_1102+0x10>
   12623:	66 c1 e8 06          	shr    $0x6,%ax
   12627:	83 e0 07             	and    $0x7,%eax
   1262a:	0f b6 c0             	movzbl %al,%eax
   1262d:	8b 55 f4             	mov    -0xc(%rbp),%edx
   12630:	48 8d 35 ca 64 00 00 	lea    0x64ca(%rip),%rsi        # 18b01 <g_2382+0x1a01>
   12637:	48 89 c7             	mov    %rax,%rdi
   1263a:	e8 b4 50 ff ff       	callq  76f3 <transparent_crc>
   1263f:	48 8b 05 7a c1 00 00 	mov    0xc17a(%rip),%rax        # 1e7c0 <g_1102+0x10>
   12646:	48 c1 e8 09          	shr    $0x9,%rax
   1264a:	83 e0 07             	and    $0x7,%eax
   1264d:	0f b6 c0             	movzbl %al,%eax
   12650:	8b 55 f4             	mov    -0xc(%rbp),%edx
   12653:	48 8d 35 b1 64 00 00 	lea    0x64b1(%rip),%rsi        # 18b0b <g_2382+0x1a0b>
   1265a:	48 89 c7             	mov    %rax,%rdi
   1265d:	e8 91 50 ff ff       	callq  76f3 <transparent_crc>
   12662:	48 8b 05 5f c1 00 00 	mov    0xc15f(%rip),%rax        # 1e7c8 <g_1132>
   12669:	25 ff ff ff 1f       	and    $0x1fffffff,%eax
   1266e:	89 c1                	mov    %eax,%ecx
   12670:	8b 45 f4             	mov    -0xc(%rbp),%eax
   12673:	89 c2                	mov    %eax,%edx
   12675:	48 8d 35 99 64 00 00 	lea    0x6499(%rip),%rsi        # 18b15 <g_2382+0x1a15>
   1267c:	48 89 cf             	mov    %rcx,%rdi
   1267f:	e8 6f 50 ff ff       	callq  76f3 <transparent_crc>
   12684:	48 8b 05 3d c1 00 00 	mov    0xc13d(%rip),%rax        # 1e7c8 <g_1132>
   1268b:	48 c1 e0 16          	shl    $0x16,%rax
   1268f:	48 c1 f8 36          	sar    $0x36,%rax
   12693:	48 0f bf c0          	movswq %ax,%rax
   12697:	8b 55 f4             	mov    -0xc(%rbp),%edx
   1269a:	48 8d 35 7e 64 00 00 	lea    0x647e(%rip),%rsi        # 18b1f <g_2382+0x1a1f>
   126a1:	48 89 c7             	mov    %rax,%rdi
   126a4:	e8 4a 50 ff ff       	callq  76f3 <transparent_crc>
   126a9:	48 8b 05 18 c1 00 00 	mov    0xc118(%rip),%rax        # 1e7c8 <g_1132>
   126b0:	48 c1 e8 2a          	shr    $0x2a,%rax
   126b4:	66 25 ff 3f          	and    $0x3fff,%ax
   126b8:	0f b7 c0             	movzwl %ax,%eax
   126bb:	8b 55 f4             	mov    -0xc(%rbp),%edx
   126be:	48 8d 35 64 64 00 00 	lea    0x6464(%rip),%rsi        # 18b29 <g_2382+0x1a29>
   126c5:	48 89 c7             	mov    %rax,%rdi
   126c8:	e8 26 50 ff ff       	callq  76f3 <transparent_crc>
   126cd:	0f b7 05 fc c0 00 00 	movzwl 0xc0fc(%rip),%eax        # 1e7d0 <g_1132+0x8>
   126d4:	0f b7 c0             	movzwl %ax,%eax
   126d7:	8b 55 f4             	mov    -0xc(%rbp),%edx
   126da:	48 8d 35 52 64 00 00 	lea    0x6452(%rip),%rsi        # 18b33 <g_2382+0x1a33>
   126e1:	48 89 c7             	mov    %rax,%rdi
   126e4:	e8 0a 50 ff ff       	callq  76f3 <transparent_crc>
   126e9:	48 8b 05 e0 c0 00 00 	mov    0xc0e0(%rip),%rax        # 1e7d0 <g_1132+0x8>
   126f0:	48 c1 e8 10          	shr    $0x10,%rax
   126f4:	66 25 ff 03          	and    $0x3ff,%ax
   126f8:	0f b7 c0             	movzwl %ax,%eax
   126fb:	8b 55 f4             	mov    -0xc(%rbp),%edx
   126fe:	48 8d 35 38 64 00 00 	lea    0x6438(%rip),%rsi        # 18b3d <g_2382+0x1a3d>
   12705:	48 89 c7             	mov    %rax,%rdi
   12708:	e8 e6 4f ff ff       	callq  76f3 <transparent_crc>
   1270d:	b8 89 fe ff ff       	mov    $0xfffffe89,%eax
   12712:	48 98                	cltq   
   12714:	8b 55 f4             	mov    -0xc(%rbp),%edx
   12717:	48 8d 35 29 64 00 00 	lea    0x6429(%rip),%rsi        # 18b47 <g_2382+0x1a47>
   1271e:	48 89 c7             	mov    %rax,%rdi
   12721:	e8 cd 4f ff ff       	callq  76f3 <transparent_crc>
   12726:	48 8b 05 83 49 00 00 	mov    0x4983(%rip),%rax        # 170b0 <g_1140>
   1272d:	48 c1 e0 11          	shl    $0x11,%rax
   12731:	48 c1 f8 24          	sar    $0x24,%rax
   12735:	48 98                	cltq   
   12737:	8b 55 f4             	mov    -0xc(%rbp),%edx
   1273a:	48 8d 35 10 64 00 00 	lea    0x6410(%rip),%rsi        # 18b51 <g_2382+0x1a51>
   12741:	48 89 c7             	mov    %rax,%rdi
   12744:	e8 aa 4f ff ff       	callq  76f3 <transparent_crc>
   12749:	48 c7 c0 fb ff ff ff 	mov    $0xfffffffffffffffb,%rax
   12750:	48 89 c1             	mov    %rax,%rcx
   12753:	8b 45 f4             	mov    -0xc(%rbp),%eax
   12756:	89 c2                	mov    %eax,%edx
   12758:	48 8d 35 fc 63 00 00 	lea    0x63fc(%rip),%rsi        # 18b5b <g_2382+0x1a5b>
   1275f:	48 89 cf             	mov    %rcx,%rdi
   12762:	e8 8c 4f ff ff       	callq  76f3 <transparent_crc>
   12767:	48 8b 05 4a 49 00 00 	mov    0x494a(%rip),%rax        # 170b8 <g_1140+0x8>
   1276e:	48 c1 e8 30          	shr    $0x30,%rax
   12772:	48 89 c2             	mov    %rax,%rdx
   12775:	48 8b 05 44 49 00 00 	mov    0x4944(%rip),%rax        # 170c0 <g_1140+0x10>
   1277c:	83 e0 3f             	and    $0x3f,%eax
   1277f:	48 c1 e0 10          	shl    $0x10,%rax
   12783:	48 09 d0             	or     %rdx,%rax
   12786:	48 c1 e0 2a          	shl    $0x2a,%rax
   1278a:	48 c1 f8 2a          	sar    $0x2a,%rax
   1278e:	48 98                	cltq   
   12790:	8b 55 f4             	mov    -0xc(%rbp),%edx
   12793:	48 8d 35 cb 63 00 00 	lea    0x63cb(%rip),%rsi        # 18b65 <g_2382+0x1a65>
   1279a:	48 89 c7             	mov    %rax,%rdi
   1279d:	e8 51 4f ff ff       	callq  76f3 <transparent_crc>
   127a2:	b8 01 00 00 00       	mov    $0x1,%eax
   127a7:	0f b6 c0             	movzbl %al,%eax
   127aa:	8b 55 f4             	mov    -0xc(%rbp),%edx
   127ad:	48 8d 35 bb 63 00 00 	lea    0x63bb(%rip),%rsi        # 18b6f <g_2382+0x1a6f>
   127b4:	48 89 c7             	mov    %rax,%rdi
   127b7:	e8 37 4f ff ff       	callq  76f3 <transparent_crc>
   127bc:	48 8b 05 fd 48 00 00 	mov    0x48fd(%rip),%rax        # 170c0 <g_1140+0x10>
   127c3:	48 c1 e8 09          	shr    $0x9,%rax
   127c7:	83 e0 07             	and    $0x7,%eax
   127ca:	0f b6 c0             	movzbl %al,%eax
   127cd:	8b 55 f4             	mov    -0xc(%rbp),%edx
   127d0:	48 8d 35 a2 63 00 00 	lea    0x63a2(%rip),%rsi        # 18b79 <g_2382+0x1a79>
   127d7:	48 89 c7             	mov    %rax,%rdi
   127da:	e8 14 4f ff ff       	callq  76f3 <transparent_crc>
   127df:	8b 05 fb bf 00 00    	mov    0xbffb(%rip),%eax        # 1e7e0 <g_1198>
   127e5:	c1 e0 0d             	shl    $0xd,%eax
   127e8:	c1 f8 0d             	sar    $0xd,%eax
   127eb:	48 98                	cltq   
   127ed:	8b 55 f4             	mov    -0xc(%rbp),%edx
   127f0:	48 8d 35 8c 63 00 00 	lea    0x638c(%rip),%rsi        # 18b83 <g_2382+0x1a83>
   127f7:	48 89 c7             	mov    %rax,%rdi
   127fa:	e8 f4 4e ff ff       	callq  76f3 <transparent_crc>
   127ff:	48 8b 05 da bf 00 00 	mov    0xbfda(%rip),%rax        # 1e7e0 <g_1198>
   12806:	48 c1 e0 11          	shl    $0x11,%rax
   1280a:	48 c1 f8 24          	sar    $0x24,%rax
   1280e:	48 98                	cltq   
   12810:	8b 55 f4             	mov    -0xc(%rbp),%edx
   12813:	48 8d 35 73 63 00 00 	lea    0x6373(%rip),%rsi        # 18b8d <g_2382+0x1a8d>
   1281a:	48 89 c7             	mov    %rax,%rdi
   1281d:	e8 d1 4e ff ff       	callq  76f3 <transparent_crc>
   12822:	48 8b 05 bd bf 00 00 	mov    0xbfbd(%rip),%rax        # 1e7e6 <g_1198+0x6>
   12829:	48 89 c1             	mov    %rax,%rcx
   1282c:	8b 45 f4             	mov    -0xc(%rbp),%eax
   1282f:	89 c2                	mov    %eax,%edx
   12831:	48 8d 35 5f 63 00 00 	lea    0x635f(%rip),%rsi        # 18b97 <g_2382+0x1a97>
   12838:	48 89 cf             	mov    %rcx,%rdi
   1283b:	e8 b3 4e ff ff       	callq  76f3 <transparent_crc>
   12840:	48 8b 05 a1 bf 00 00 	mov    0xbfa1(%rip),%rax        # 1e7e8 <g_1198+0x8>
   12847:	48 c1 e8 30          	shr    $0x30,%rax
   1284b:	48 89 c2             	mov    %rax,%rdx
   1284e:	48 8b 05 9b bf 00 00 	mov    0xbf9b(%rip),%rax        # 1e7f0 <g_1198+0x10>
   12855:	83 e0 3f             	and    $0x3f,%eax
   12858:	48 c1 e0 10          	shl    $0x10,%rax
   1285c:	48 09 d0             	or     %rdx,%rax
   1285f:	48 c1 e0 2a          	shl    $0x2a,%rax
   12863:	48 c1 f8 2a          	sar    $0x2a,%rax
   12867:	48 98                	cltq   
   12869:	8b 55 f4             	mov    -0xc(%rbp),%edx
   1286c:	48 8d 35 2e 63 00 00 	lea    0x632e(%rip),%rsi        # 18ba1 <g_2382+0x1aa1>
   12873:	48 89 c7             	mov    %rax,%rdi
   12876:	e8 78 4e ff ff       	callq  76f3 <transparent_crc>
   1287b:	0f b7 05 6e bf 00 00 	movzwl 0xbf6e(%rip),%eax        # 1e7f0 <g_1198+0x10>
   12882:	66 c1 e8 06          	shr    $0x6,%ax
   12886:	83 e0 07             	and    $0x7,%eax
   12889:	0f b6 c0             	movzbl %al,%eax
   1288c:	8b 55 f4             	mov    -0xc(%rbp),%edx
   1288f:	48 8d 35 15 63 00 00 	lea    0x6315(%rip),%rsi        # 18bab <g_2382+0x1aab>
   12896:	48 89 c7             	mov    %rax,%rdi
   12899:	e8 55 4e ff ff       	callq  76f3 <transparent_crc>
   1289e:	48 8b 05 4b bf 00 00 	mov    0xbf4b(%rip),%rax        # 1e7f0 <g_1198+0x10>
   128a5:	48 c1 e8 09          	shr    $0x9,%rax
   128a9:	83 e0 07             	and    $0x7,%eax
   128ac:	0f b6 c0             	movzbl %al,%eax
   128af:	8b 55 f4             	mov    -0xc(%rbp),%edx
   128b2:	48 8d 35 fc 62 00 00 	lea    0x62fc(%rip),%rsi        # 18bb5 <g_2382+0x1ab5>
   128b9:	48 89 c7             	mov    %rax,%rdi
   128bc:	e8 32 4e ff ff       	callq  76f3 <transparent_crc>
   128c1:	8b 05 2d bf 00 00    	mov    0xbf2d(%rip),%eax        # 1e7f4 <g_1235>
   128c7:	48 98                	cltq   
   128c9:	8b 55 f4             	mov    -0xc(%rbp),%edx
   128cc:	48 8d 35 ec 62 00 00 	lea    0x62ec(%rip),%rsi        # 18bbf <g_2382+0x1abf>
   128d3:	48 89 c7             	mov    %rax,%rdi
   128d6:	e8 18 4e ff ff       	callq  76f3 <transparent_crc>
   128db:	8b 05 1f bf 00 00    	mov    0xbf1f(%rip),%eax        # 1e800 <g_1238>
   128e1:	c1 e0 0d             	shl    $0xd,%eax
   128e4:	c1 f8 0d             	sar    $0xd,%eax
   128e7:	48 98                	cltq   
   128e9:	8b 55 f4             	mov    -0xc(%rbp),%edx
   128ec:	48 8d 35 d3 62 00 00 	lea    0x62d3(%rip),%rsi        # 18bc6 <g_2382+0x1ac6>
   128f3:	48 89 c7             	mov    %rax,%rdi
   128f6:	e8 f8 4d ff ff       	callq  76f3 <transparent_crc>
   128fb:	48 8b 05 fe be 00 00 	mov    0xbefe(%rip),%rax        # 1e800 <g_1238>
   12902:	48 c1 e0 11          	shl    $0x11,%rax
   12906:	48 c1 f8 24          	sar    $0x24,%rax
   1290a:	48 98                	cltq   
   1290c:	8b 55 f4             	mov    -0xc(%rbp),%edx
   1290f:	48 8d 35 ba 62 00 00 	lea    0x62ba(%rip),%rsi        # 18bd0 <g_2382+0x1ad0>
   12916:	48 89 c7             	mov    %rax,%rdi
   12919:	e8 d5 4d ff ff       	callq  76f3 <transparent_crc>
   1291e:	48 8b 05 e1 be 00 00 	mov    0xbee1(%rip),%rax        # 1e806 <g_1238+0x6>
   12925:	48 89 c1             	mov    %rax,%rcx
   12928:	8b 45 f4             	mov    -0xc(%rbp),%eax
   1292b:	89 c2                	mov    %eax,%edx
   1292d:	48 8d 35 a6 62 00 00 	lea    0x62a6(%rip),%rsi        # 18bda <g_2382+0x1ada>
   12934:	48 89 cf             	mov    %rcx,%rdi
   12937:	e8 b7 4d ff ff       	callq  76f3 <transparent_crc>
   1293c:	48 8b 05 c5 be 00 00 	mov    0xbec5(%rip),%rax        # 1e808 <g_1238+0x8>
   12943:	48 c1 e8 30          	shr    $0x30,%rax
   12947:	48 89 c2             	mov    %rax,%rdx
   1294a:	48 8b 05 bf be 00 00 	mov    0xbebf(%rip),%rax        # 1e810 <g_1238+0x10>
   12951:	83 e0 3f             	and    $0x3f,%eax
   12954:	48 c1 e0 10          	shl    $0x10,%rax
   12958:	48 09 d0             	or     %rdx,%rax
   1295b:	48 c1 e0 2a          	shl    $0x2a,%rax
   1295f:	48 c1 f8 2a          	sar    $0x2a,%rax
   12963:	48 98                	cltq   
   12965:	8b 55 f4             	mov    -0xc(%rbp),%edx
   12968:	48 8d 35 75 62 00 00 	lea    0x6275(%rip),%rsi        # 18be4 <g_2382+0x1ae4>
   1296f:	48 89 c7             	mov    %rax,%rdi
   12972:	e8 7c 4d ff ff       	callq  76f3 <transparent_crc>
   12977:	0f b7 05 92 be 00 00 	movzwl 0xbe92(%rip),%eax        # 1e810 <g_1238+0x10>
   1297e:	66 c1 e8 06          	shr    $0x6,%ax
   12982:	83 e0 07             	and    $0x7,%eax
   12985:	0f b6 c0             	movzbl %al,%eax
   12988:	8b 55 f4             	mov    -0xc(%rbp),%edx
   1298b:	48 8d 35 5c 62 00 00 	lea    0x625c(%rip),%rsi        # 18bee <g_2382+0x1aee>
   12992:	48 89 c7             	mov    %rax,%rdi
   12995:	e8 59 4d ff ff       	callq  76f3 <transparent_crc>
   1299a:	48 8b 05 6f be 00 00 	mov    0xbe6f(%rip),%rax        # 1e810 <g_1238+0x10>
   129a1:	48 c1 e8 09          	shr    $0x9,%rax
   129a5:	83 e0 07             	and    $0x7,%eax
   129a8:	0f b6 c0             	movzbl %al,%eax
   129ab:	8b 55 f4             	mov    -0xc(%rbp),%edx
   129ae:	48 8d 35 43 62 00 00 	lea    0x6243(%rip),%rsi        # 18bf8 <g_2382+0x1af8>
   129b5:	48 89 c7             	mov    %rax,%rdi
   129b8:	e8 36 4d ff ff       	callq  76f3 <transparent_crc>
   129bd:	8b 05 5d be 00 00    	mov    0xbe5d(%rip),%eax        # 1e820 <g_1240>
   129c3:	c1 e0 0d             	shl    $0xd,%eax
   129c6:	c1 f8 0d             	sar    $0xd,%eax
   129c9:	48 98                	cltq   
   129cb:	8b 55 f4             	mov    -0xc(%rbp),%edx
   129ce:	48 8d 35 2d 62 00 00 	lea    0x622d(%rip),%rsi        # 18c02 <g_2382+0x1b02>
   129d5:	48 89 c7             	mov    %rax,%rdi
   129d8:	e8 16 4d ff ff       	callq  76f3 <transparent_crc>
   129dd:	48 8b 05 3c be 00 00 	mov    0xbe3c(%rip),%rax        # 1e820 <g_1240>
   129e4:	48 c1 e0 11          	shl    $0x11,%rax
   129e8:	48 c1 f8 24          	sar    $0x24,%rax
   129ec:	48 98                	cltq   
   129ee:	8b 55 f4             	mov    -0xc(%rbp),%edx
   129f1:	48 8d 35 14 62 00 00 	lea    0x6214(%rip),%rsi        # 18c0c <g_2382+0x1b0c>
   129f8:	48 89 c7             	mov    %rax,%rdi
   129fb:	e8 f3 4c ff ff       	callq  76f3 <transparent_crc>
   12a00:	48 8b 05 1f be 00 00 	mov    0xbe1f(%rip),%rax        # 1e826 <g_1240+0x6>
   12a07:	48 89 c1             	mov    %rax,%rcx
   12a0a:	8b 45 f4             	mov    -0xc(%rbp),%eax
   12a0d:	89 c2                	mov    %eax,%edx
   12a0f:	48 8d 35 00 62 00 00 	lea    0x6200(%rip),%rsi        # 18c16 <g_2382+0x1b16>
   12a16:	48 89 cf             	mov    %rcx,%rdi
   12a19:	e8 d5 4c ff ff       	callq  76f3 <transparent_crc>
   12a1e:	48 8b 05 03 be 00 00 	mov    0xbe03(%rip),%rax        # 1e828 <g_1240+0x8>
   12a25:	48 c1 e8 30          	shr    $0x30,%rax
   12a29:	48 89 c2             	mov    %rax,%rdx
   12a2c:	48 8b 05 fd bd 00 00 	mov    0xbdfd(%rip),%rax        # 1e830 <g_1240+0x10>
   12a33:	83 e0 3f             	and    $0x3f,%eax
   12a36:	48 c1 e0 10          	shl    $0x10,%rax
   12a3a:	48 09 d0             	or     %rdx,%rax
   12a3d:	48 c1 e0 2a          	shl    $0x2a,%rax
   12a41:	48 c1 f8 2a          	sar    $0x2a,%rax
   12a45:	48 98                	cltq   
   12a47:	8b 55 f4             	mov    -0xc(%rbp),%edx
   12a4a:	48 8d 35 cf 61 00 00 	lea    0x61cf(%rip),%rsi        # 18c20 <g_2382+0x1b20>
   12a51:	48 89 c7             	mov    %rax,%rdi
   12a54:	e8 9a 4c ff ff       	callq  76f3 <transparent_crc>
   12a59:	0f b7 05 d0 bd 00 00 	movzwl 0xbdd0(%rip),%eax        # 1e830 <g_1240+0x10>
   12a60:	66 c1 e8 06          	shr    $0x6,%ax
   12a64:	83 e0 07             	and    $0x7,%eax
   12a67:	0f b6 c0             	movzbl %al,%eax
   12a6a:	8b 55 f4             	mov    -0xc(%rbp),%edx
   12a6d:	48 8d 35 b6 61 00 00 	lea    0x61b6(%rip),%rsi        # 18c2a <g_2382+0x1b2a>
   12a74:	48 89 c7             	mov    %rax,%rdi
   12a77:	e8 77 4c ff ff       	callq  76f3 <transparent_crc>
   12a7c:	48 8b 05 ad bd 00 00 	mov    0xbdad(%rip),%rax        # 1e830 <g_1240+0x10>
   12a83:	48 c1 e8 09          	shr    $0x9,%rax
   12a87:	83 e0 07             	and    $0x7,%eax
   12a8a:	0f b6 c0             	movzbl %al,%eax
   12a8d:	8b 55 f4             	mov    -0xc(%rbp),%edx
   12a90:	48 8d 35 9d 61 00 00 	lea    0x619d(%rip),%rsi        # 18c34 <g_2382+0x1b34>
   12a97:	48 89 c7             	mov    %rax,%rdi
   12a9a:	e8 54 4c ff ff       	callq  76f3 <transparent_crc>
   12a9f:	8b 05 93 bd 00 00    	mov    0xbd93(%rip),%eax        # 1e838 <g_1242>
   12aa5:	25 ff ff ff 1f       	and    $0x1fffffff,%eax
   12aaa:	89 c1                	mov    %eax,%ecx
   12aac:	8b 45 f4             	mov    -0xc(%rbp),%eax
   12aaf:	89 c2                	mov    %eax,%edx
   12ab1:	48 8d 35 86 61 00 00 	lea    0x6186(%rip),%rsi        # 18c3e <g_2382+0x1b3e>
   12ab8:	48 89 cf             	mov    %rcx,%rdi
   12abb:	e8 33 4c ff ff       	callq  76f3 <transparent_crc>
   12ac0:	0f b7 05 75 bd 00 00 	movzwl 0xbd75(%rip),%eax        # 1e83c <g_1242+0x4>
   12ac7:	c1 e0 06             	shl    $0x6,%eax
   12aca:	66 c1 f8 06          	sar    $0x6,%ax
   12ace:	48 0f bf c0          	movswq %ax,%rax
   12ad2:	8b 55 f4             	mov    -0xc(%rbp),%edx
   12ad5:	48 8d 35 6c 61 00 00 	lea    0x616c(%rip),%rsi        # 18c48 <g_2382+0x1b48>
   12adc:	48 89 c7             	mov    %rax,%rdi
   12adf:	e8 0f 4c ff ff       	callq  76f3 <transparent_crc>
   12ae4:	48 8b 05 4d bd 00 00 	mov    0xbd4d(%rip),%rax        # 1e838 <g_1242>
   12aeb:	48 c1 e8 2a          	shr    $0x2a,%rax
   12aef:	66 25 ff 3f          	and    $0x3fff,%ax
   12af3:	0f b7 c0             	movzwl %ax,%eax
   12af6:	8b 55 f4             	mov    -0xc(%rbp),%edx
   12af9:	48 8d 35 52 61 00 00 	lea    0x6152(%rip),%rsi        # 18c52 <g_2382+0x1b52>
   12b00:	48 89 c7             	mov    %rax,%rdi
   12b03:	e8 eb 4b ff ff       	callq  76f3 <transparent_crc>
   12b08:	0f b7 05 31 bd 00 00 	movzwl 0xbd31(%rip),%eax        # 1e840 <g_1242+0x8>
   12b0f:	0f b7 c0             	movzwl %ax,%eax
   12b12:	8b 55 f4             	mov    -0xc(%rbp),%edx
   12b15:	48 8d 35 40 61 00 00 	lea    0x6140(%rip),%rsi        # 18c5c <g_2382+0x1b5c>
   12b1c:	48 89 c7             	mov    %rax,%rdi
   12b1f:	e8 cf 4b ff ff       	callq  76f3 <transparent_crc>
   12b24:	0f b7 05 17 bd 00 00 	movzwl 0xbd17(%rip),%eax        # 1e842 <g_1242+0xa>
   12b2b:	66 25 ff 03          	and    $0x3ff,%ax
   12b2f:	0f b7 c0             	movzwl %ax,%eax
   12b32:	8b 55 f4             	mov    -0xc(%rbp),%edx
   12b35:	48 8d 35 2a 61 00 00 	lea    0x612a(%rip),%rsi        # 18c66 <g_2382+0x1b66>
   12b3c:	48 89 c7             	mov    %rax,%rdi
   12b3f:	e8 af 4b ff ff       	callq  76f3 <transparent_crc>
   12b44:	8b 05 06 bd 00 00    	mov    0xbd06(%rip),%eax        # 1e850 <g_1277>
   12b4a:	c1 e0 0d             	shl    $0xd,%eax
   12b4d:	c1 f8 0d             	sar    $0xd,%eax
   12b50:	48 98                	cltq   
   12b52:	8b 55 f4             	mov    -0xc(%rbp),%edx
   12b55:	48 8d 35 14 61 00 00 	lea    0x6114(%rip),%rsi        # 18c70 <g_2382+0x1b70>
   12b5c:	48 89 c7             	mov    %rax,%rdi
   12b5f:	e8 8f 4b ff ff       	callq  76f3 <transparent_crc>
   12b64:	48 8b 05 e5 bc 00 00 	mov    0xbce5(%rip),%rax        # 1e850 <g_1277>
   12b6b:	48 c1 e0 11          	shl    $0x11,%rax
   12b6f:	48 c1 f8 24          	sar    $0x24,%rax
   12b73:	48 98                	cltq   
   12b75:	8b 55 f4             	mov    -0xc(%rbp),%edx
   12b78:	48 8d 35 fb 60 00 00 	lea    0x60fb(%rip),%rsi        # 18c7a <g_2382+0x1b7a>
   12b7f:	48 89 c7             	mov    %rax,%rdi
   12b82:	e8 6c 4b ff ff       	callq  76f3 <transparent_crc>
   12b87:	48 8b 05 c8 bc 00 00 	mov    0xbcc8(%rip),%rax        # 1e856 <g_1277+0x6>
   12b8e:	48 89 c1             	mov    %rax,%rcx
   12b91:	8b 45 f4             	mov    -0xc(%rbp),%eax
   12b94:	89 c2                	mov    %eax,%edx
   12b96:	48 8d 35 e7 60 00 00 	lea    0x60e7(%rip),%rsi        # 18c84 <g_2382+0x1b84>
   12b9d:	48 89 cf             	mov    %rcx,%rdi
   12ba0:	e8 4e 4b ff ff       	callq  76f3 <transparent_crc>
   12ba5:	48 8b 05 ac bc 00 00 	mov    0xbcac(%rip),%rax        # 1e858 <g_1277+0x8>
   12bac:	48 c1 e8 30          	shr    $0x30,%rax
   12bb0:	48 89 c2             	mov    %rax,%rdx
   12bb3:	48 8b 05 a6 bc 00 00 	mov    0xbca6(%rip),%rax        # 1e860 <g_1277+0x10>
   12bba:	83 e0 3f             	and    $0x3f,%eax
   12bbd:	48 c1 e0 10          	shl    $0x10,%rax
   12bc1:	48 09 d0             	or     %rdx,%rax
   12bc4:	48 c1 e0 2a          	shl    $0x2a,%rax
   12bc8:	48 c1 f8 2a          	sar    $0x2a,%rax
   12bcc:	48 98                	cltq   
   12bce:	8b 55 f4             	mov    -0xc(%rbp),%edx
   12bd1:	48 8d 35 b6 60 00 00 	lea    0x60b6(%rip),%rsi        # 18c8e <g_2382+0x1b8e>
   12bd8:	48 89 c7             	mov    %rax,%rdi
   12bdb:	e8 13 4b ff ff       	callq  76f3 <transparent_crc>
   12be0:	0f b7 05 79 bc 00 00 	movzwl 0xbc79(%rip),%eax        # 1e860 <g_1277+0x10>
   12be7:	66 c1 e8 06          	shr    $0x6,%ax
   12beb:	83 e0 07             	and    $0x7,%eax
   12bee:	0f b6 c0             	movzbl %al,%eax
   12bf1:	8b 55 f4             	mov    -0xc(%rbp),%edx
   12bf4:	48 8d 35 9d 60 00 00 	lea    0x609d(%rip),%rsi        # 18c98 <g_2382+0x1b98>
   12bfb:	48 89 c7             	mov    %rax,%rdi
   12bfe:	e8 f0 4a ff ff       	callq  76f3 <transparent_crc>
   12c03:	48 8b 05 56 bc 00 00 	mov    0xbc56(%rip),%rax        # 1e860 <g_1277+0x10>
   12c0a:	48 c1 e8 09          	shr    $0x9,%rax
   12c0e:	83 e0 07             	and    $0x7,%eax
   12c11:	0f b6 c0             	movzbl %al,%eax
   12c14:	8b 55 f4             	mov    -0xc(%rbp),%edx
   12c17:	48 8d 35 84 60 00 00 	lea    0x6084(%rip),%rsi        # 18ca2 <g_2382+0x1ba2>
   12c1e:	48 89 c7             	mov    %rax,%rdi
   12c21:	e8 cd 4a ff ff       	callq  76f3 <transparent_crc>
   12c26:	8b 05 38 bc 00 00    	mov    0xbc38(%rip),%eax        # 1e864 <g_1290>
   12c2c:	48 98                	cltq   
   12c2e:	8b 55 f4             	mov    -0xc(%rbp),%edx
   12c31:	48 8d 35 74 60 00 00 	lea    0x6074(%rip),%rsi        # 18cac <g_2382+0x1bac>
   12c38:	48 89 c7             	mov    %rax,%rdi
   12c3b:	e8 b3 4a ff ff       	callq  76f3 <transparent_crc>
   12c40:	0f b7 05 21 bc 00 00 	movzwl 0xbc21(%rip),%eax        # 1e868 <g_1305>
   12c47:	48 0f bf c0          	movswq %ax,%rax
   12c4b:	8b 55 f4             	mov    -0xc(%rbp),%edx
   12c4e:	48 8d 35 5e 60 00 00 	lea    0x605e(%rip),%rsi        # 18cb3 <g_2382+0x1bb3>
   12c55:	48 89 c7             	mov    %rax,%rdi
   12c58:	e8 96 4a ff ff       	callq  76f3 <transparent_crc>
   12c5d:	48 8b 05 1c bc 00 00 	mov    0xbc1c(%rip),%rax        # 1e880 <g_1329>
   12c64:	8b 55 f4             	mov    -0xc(%rbp),%edx
   12c67:	48 8d 35 4c 60 00 00 	lea    0x604c(%rip),%rsi        # 18cba <g_2382+0x1bba>
   12c6e:	48 89 c7             	mov    %rax,%rdi
   12c71:	e8 7d 4a ff ff       	callq  76f3 <transparent_crc>
   12c76:	0f b6 05 0b bc 00 00 	movzbl 0xbc0b(%rip),%eax        # 1e888 <g_1329+0x8>
   12c7d:	0f b6 c0             	movzbl %al,%eax
   12c80:	8b 55 f4             	mov    -0xc(%rbp),%edx
   12c83:	48 8d 35 3a 60 00 00 	lea    0x603a(%rip),%rsi        # 18cc4 <g_2382+0x1bc4>
   12c8a:	48 89 c7             	mov    %rax,%rdi
   12c8d:	e8 61 4a ff ff       	callq  76f3 <transparent_crc>
   12c92:	0f b7 05 f1 bb 00 00 	movzwl 0xbbf1(%rip),%eax        # 1e88a <g_1329+0xa>
   12c99:	0f b7 c0             	movzwl %ax,%eax
   12c9c:	8b 55 f4             	mov    -0xc(%rbp),%edx
   12c9f:	48 8d 35 28 60 00 00 	lea    0x6028(%rip),%rsi        # 18cce <g_2382+0x1bce>
   12ca6:	48 89 c7             	mov    %rax,%rdi
   12ca9:	e8 45 4a ff ff       	callq  76f3 <transparent_crc>
   12cae:	0f b6 05 d7 bb 00 00 	movzbl 0xbbd7(%rip),%eax        # 1e88c <g_1329+0xc>
   12cb5:	48 0f be c0          	movsbq %al,%rax
   12cb9:	8b 55 f4             	mov    -0xc(%rbp),%edx
   12cbc:	48 8d 35 15 60 00 00 	lea    0x6015(%rip),%rsi        # 18cd8 <g_2382+0x1bd8>
   12cc3:	48 89 c7             	mov    %rax,%rdi
   12cc6:	e8 28 4a ff ff       	callq  76f3 <transparent_crc>
   12ccb:	0f b6 05 bb bb 00 00 	movzbl 0xbbbb(%rip),%eax        # 1e88d <g_1329+0xd>
   12cd2:	83 e0 1f             	and    $0x1f,%eax
   12cd5:	0f b6 c0             	movzbl %al,%eax
   12cd8:	8b 55 f4             	mov    -0xc(%rbp),%edx
   12cdb:	48 8d 35 00 60 00 00 	lea    0x6000(%rip),%rsi        # 18ce2 <g_2382+0x1be2>
   12ce2:	48 89 c7             	mov    %rax,%rdi
   12ce5:	e8 09 4a ff ff       	callq  76f3 <transparent_crc>
   12cea:	8b 05 9c bb 00 00    	mov    0xbb9c(%rip),%eax        # 1e88c <g_1329+0xc>
   12cf0:	c1 e8 0d             	shr    $0xd,%eax
   12cf3:	66 25 ff 0f          	and    $0xfff,%ax
   12cf7:	0f b7 c0             	movzwl %ax,%eax
   12cfa:	8b 55 f4             	mov    -0xc(%rbp),%edx
   12cfd:	48 8d 35 e8 5f 00 00 	lea    0x5fe8(%rip),%rsi        # 18cec <g_2382+0x1bec>
   12d04:	48 89 c7             	mov    %rax,%rdi
   12d07:	e8 e7 49 ff ff       	callq  76f3 <transparent_crc>
   12d0c:	8b 05 7e bb 00 00    	mov    0xbb7e(%rip),%eax        # 1e890 <g_1329+0x10>
   12d12:	48 98                	cltq   
   12d14:	8b 55 f4             	mov    -0xc(%rbp),%edx
   12d17:	48 8d 35 d8 5f 00 00 	lea    0x5fd8(%rip),%rsi        # 18cf6 <g_2382+0x1bf6>
   12d1e:	48 89 c7             	mov    %rax,%rdi
   12d21:	e8 cd 49 ff ff       	callq  76f3 <transparent_crc>
   12d26:	8b 05 68 bb 00 00    	mov    0xbb68(%rip),%eax        # 1e894 <g_1329+0x14>
   12d2c:	89 c1                	mov    %eax,%ecx
   12d2e:	8b 45 f4             	mov    -0xc(%rbp),%eax
   12d31:	89 c2                	mov    %eax,%edx
   12d33:	48 8d 35 c6 5f 00 00 	lea    0x5fc6(%rip),%rsi        # 18d00 <g_2382+0x1c00>
   12d3a:	48 89 cf             	mov    %rcx,%rdi
   12d3d:	e8 b1 49 ff ff       	callq  76f3 <transparent_crc>
   12d42:	8b 05 50 bb 00 00    	mov    0xbb50(%rip),%eax        # 1e898 <g_1329+0x18>
   12d48:	89 c1                	mov    %eax,%ecx
   12d4a:	8b 45 f4             	mov    -0xc(%rbp),%eax
   12d4d:	89 c2                	mov    %eax,%edx
   12d4f:	48 8d 35 b4 5f 00 00 	lea    0x5fb4(%rip),%rsi        # 18d0a <g_2382+0x1c0a>
   12d56:	48 89 cf             	mov    %rcx,%rdi
   12d59:	e8 95 49 ff ff       	callq  76f3 <transparent_crc>
   12d5e:	48 8b 05 3b bb 00 00 	mov    0xbb3b(%rip),%rax        # 1e8a0 <g_1329+0x20>
   12d65:	8b 55 f4             	mov    -0xc(%rbp),%edx
   12d68:	48 8d 35 a5 5f 00 00 	lea    0x5fa5(%rip),%rsi        # 18d14 <g_2382+0x1c14>
   12d6f:	48 89 c7             	mov    %rax,%rdi
   12d72:	e8 7c 49 ff ff       	callq  76f3 <transparent_crc>
   12d77:	48 8b 05 32 bb 00 00 	mov    0xbb32(%rip),%rax        # 1e8b0 <g_1370>
   12d7e:	c1 e0 0d             	shl    $0xd,%eax
   12d81:	c1 f8 0d             	sar    $0xd,%eax
   12d84:	48 98                	cltq   
   12d86:	8b 55 f4             	mov    -0xc(%rbp),%edx
   12d89:	48 8d 35 8e 5f 00 00 	lea    0x5f8e(%rip),%rsi        # 18d1e <g_2382+0x1c1e>
   12d90:	48 89 c7             	mov    %rax,%rdi
   12d93:	e8 5b 49 ff ff       	callq  76f3 <transparent_crc>
   12d98:	48 8b 05 11 bb 00 00 	mov    0xbb11(%rip),%rax        # 1e8b0 <g_1370>
   12d9f:	48 c1 e0 11          	shl    $0x11,%rax
   12da3:	48 c1 f8 24          	sar    $0x24,%rax
   12da7:	48 98                	cltq   
   12da9:	8b 55 f4             	mov    -0xc(%rbp),%edx
   12dac:	48 8d 35 75 5f 00 00 	lea    0x5f75(%rip),%rsi        # 18d28 <g_2382+0x1c28>
   12db3:	48 89 c7             	mov    %rax,%rdi
   12db6:	e8 38 49 ff ff       	callq  76f3 <transparent_crc>
   12dbb:	48 8b 05 f4 ba 00 00 	mov    0xbaf4(%rip),%rax        # 1e8b6 <g_1370+0x6>
   12dc2:	48 89 c1             	mov    %rax,%rcx
   12dc5:	8b 45 f4             	mov    -0xc(%rbp),%eax
   12dc8:	89 c2                	mov    %eax,%edx
   12dca:	48 8d 35 61 5f 00 00 	lea    0x5f61(%rip),%rsi        # 18d32 <g_2382+0x1c32>
   12dd1:	48 89 cf             	mov    %rcx,%rdi
   12dd4:	e8 1a 49 ff ff       	callq  76f3 <transparent_crc>
   12dd9:	48 8b 05 d8 ba 00 00 	mov    0xbad8(%rip),%rax        # 1e8b8 <g_1370+0x8>
   12de0:	48 c1 e8 30          	shr    $0x30,%rax
   12de4:	48 89 c2             	mov    %rax,%rdx
   12de7:	48 8b 05 d2 ba 00 00 	mov    0xbad2(%rip),%rax        # 1e8c0 <g_1370+0x10>
   12dee:	83 e0 3f             	and    $0x3f,%eax
   12df1:	48 c1 e0 10          	shl    $0x10,%rax
   12df5:	48 09 d0             	or     %rdx,%rax
   12df8:	48 c1 e0 2a          	shl    $0x2a,%rax
   12dfc:	48 c1 f8 2a          	sar    $0x2a,%rax
   12e00:	48 98                	cltq   
   12e02:	8b 55 f4             	mov    -0xc(%rbp),%edx
   12e05:	48 8d 35 30 5f 00 00 	lea    0x5f30(%rip),%rsi        # 18d3c <g_2382+0x1c3c>
   12e0c:	48 89 c7             	mov    %rax,%rdi
   12e0f:	e8 df 48 ff ff       	callq  76f3 <transparent_crc>
   12e14:	48 8b 05 a5 ba 00 00 	mov    0xbaa5(%rip),%rax        # 1e8c0 <g_1370+0x10>
   12e1b:	48 c1 e8 06          	shr    $0x6,%rax
   12e1f:	83 e0 07             	and    $0x7,%eax
   12e22:	0f b6 c0             	movzbl %al,%eax
   12e25:	8b 55 f4             	mov    -0xc(%rbp),%edx
   12e28:	48 8d 35 17 5f 00 00 	lea    0x5f17(%rip),%rsi        # 18d46 <g_2382+0x1c46>
   12e2f:	48 89 c7             	mov    %rax,%rdi
   12e32:	e8 bc 48 ff ff       	callq  76f3 <transparent_crc>
   12e37:	48 8b 05 82 ba 00 00 	mov    0xba82(%rip),%rax        # 1e8c0 <g_1370+0x10>
   12e3e:	48 c1 e8 09          	shr    $0x9,%rax
   12e42:	83 e0 07             	and    $0x7,%eax
   12e45:	0f b6 c0             	movzbl %al,%eax
   12e48:	8b 55 f4             	mov    -0xc(%rbp),%edx
   12e4b:	48 8d 35 fe 5e 00 00 	lea    0x5efe(%rip),%rsi        # 18d50 <g_2382+0x1c50>
   12e52:	48 89 c7             	mov    %rax,%rdi
   12e55:	e8 99 48 ff ff       	callq  76f3 <transparent_crc>
   12e5a:	c7 45 e8 00 00 00 00 	movl   $0x0,-0x18(%rbp)
   12e61:	e9 48 01 00 00       	jmpq   12fae <main+0x3e36>
   12e66:	8b 45 e8             	mov    -0x18(%rbp),%eax
   12e69:	48 63 d0             	movslq %eax,%rdx
   12e6c:	48 89 d0             	mov    %rdx,%rax
   12e6f:	48 01 c0             	add    %rax,%rax
   12e72:	48 01 d0             	add    %rdx,%rax
   12e75:	48 c1 e0 02          	shl    $0x2,%rax
   12e79:	48 89 c2             	mov    %rax,%rdx
   12e7c:	48 8d 05 5d ba 00 00 	lea    0xba5d(%rip),%rax        # 1e8e0 <g_1384>
   12e83:	8b 04 02             	mov    (%rdx,%rax,1),%eax
   12e86:	25 ff ff ff 1f       	and    $0x1fffffff,%eax
   12e8b:	89 c1                	mov    %eax,%ecx
   12e8d:	8b 45 f4             	mov    -0xc(%rbp),%eax
   12e90:	89 c2                	mov    %eax,%edx
   12e92:	48 8d 35 c1 5e 00 00 	lea    0x5ec1(%rip),%rsi        # 18d5a <g_2382+0x1c5a>
   12e99:	48 89 cf             	mov    %rcx,%rdi
   12e9c:	e8 52 48 ff ff       	callq  76f3 <transparent_crc>
   12ea1:	8b 45 e8             	mov    -0x18(%rbp),%eax
   12ea4:	48 63 d0             	movslq %eax,%rdx
   12ea7:	48 89 d0             	mov    %rdx,%rax
   12eaa:	48 01 c0             	add    %rax,%rax
   12ead:	48 01 d0             	add    %rdx,%rax
   12eb0:	48 c1 e0 02          	shl    $0x2,%rax
   12eb4:	48 89 c2             	mov    %rax,%rdx
   12eb7:	48 8d 05 22 ba 00 00 	lea    0xba22(%rip),%rax        # 1e8e0 <g_1384>
   12ebe:	0f b7 44 02 04       	movzwl 0x4(%rdx,%rax,1),%eax
   12ec3:	c1 e0 06             	shl    $0x6,%eax
   12ec6:	66 c1 f8 06          	sar    $0x6,%ax
   12eca:	48 0f bf c0          	movswq %ax,%rax
   12ece:	8b 55 f4             	mov    -0xc(%rbp),%edx
   12ed1:	48 8d 35 8f 5e 00 00 	lea    0x5e8f(%rip),%rsi        # 18d67 <g_2382+0x1c67>
   12ed8:	48 89 c7             	mov    %rax,%rdi
   12edb:	e8 13 48 ff ff       	callq  76f3 <transparent_crc>
   12ee0:	8b 45 e8             	mov    -0x18(%rbp),%eax
   12ee3:	48 63 d0             	movslq %eax,%rdx
   12ee6:	48 89 d0             	mov    %rdx,%rax
   12ee9:	48 01 c0             	add    %rax,%rax
   12eec:	48 01 d0             	add    %rdx,%rax
   12eef:	48 c1 e0 02          	shl    $0x2,%rax
   12ef3:	48 89 c2             	mov    %rax,%rdx
   12ef6:	48 8d 05 e3 b9 00 00 	lea    0xb9e3(%rip),%rax        # 1e8e0 <g_1384>
   12efd:	8b 44 02 04          	mov    0x4(%rdx,%rax,1),%eax
   12f01:	c1 e8 0a             	shr    $0xa,%eax
   12f04:	66 25 ff 3f          	and    $0x3fff,%ax
   12f08:	0f b7 c0             	movzwl %ax,%eax
   12f0b:	8b 55 f4             	mov    -0xc(%rbp),%edx
   12f0e:	48 8d 35 5f 5e 00 00 	lea    0x5e5f(%rip),%rsi        # 18d74 <g_2382+0x1c74>
   12f15:	48 89 c7             	mov    %rax,%rdi
   12f18:	e8 d6 47 ff ff       	callq  76f3 <transparent_crc>
   12f1d:	8b 45 e8             	mov    -0x18(%rbp),%eax
   12f20:	48 63 d0             	movslq %eax,%rdx
   12f23:	48 89 d0             	mov    %rdx,%rax
   12f26:	48 01 c0             	add    %rax,%rax
   12f29:	48 01 d0             	add    %rdx,%rax
   12f2c:	48 c1 e0 02          	shl    $0x2,%rax
   12f30:	48 89 c2             	mov    %rax,%rdx
   12f33:	48 8d 05 ae b9 00 00 	lea    0xb9ae(%rip),%rax        # 1e8e8 <g_1384+0x8>
   12f3a:	0f b7 04 02          	movzwl (%rdx,%rax,1),%eax
   12f3e:	0f b7 c0             	movzwl %ax,%eax
   12f41:	8b 55 f4             	mov    -0xc(%rbp),%edx
   12f44:	48 8d 35 36 5e 00 00 	lea    0x5e36(%rip),%rsi        # 18d81 <g_2382+0x1c81>
   12f4b:	48 89 c7             	mov    %rax,%rdi
   12f4e:	e8 a0 47 ff ff       	callq  76f3 <transparent_crc>
   12f53:	8b 45 e8             	mov    -0x18(%rbp),%eax
   12f56:	48 63 d0             	movslq %eax,%rdx
   12f59:	48 89 d0             	mov    %rdx,%rax
   12f5c:	48 01 c0             	add    %rax,%rax
   12f5f:	48 01 d0             	add    %rdx,%rax
   12f62:	48 c1 e0 02          	shl    $0x2,%rax
   12f66:	48 89 c2             	mov    %rax,%rdx
   12f69:	48 8d 05 70 b9 00 00 	lea    0xb970(%rip),%rax        # 1e8e0 <g_1384>
   12f70:	0f b7 44 02 0a       	movzwl 0xa(%rdx,%rax,1),%eax
   12f75:	66 25 ff 03          	and    $0x3ff,%ax
   12f79:	0f b7 c0             	movzwl %ax,%eax
   12f7c:	8b 55 f4             	mov    -0xc(%rbp),%edx
   12f7f:	48 8d 35 08 5e 00 00 	lea    0x5e08(%rip),%rsi        # 18d8e <g_2382+0x1c8e>
   12f86:	48 89 c7             	mov    %rax,%rdi
   12f89:	e8 65 47 ff ff       	callq  76f3 <transparent_crc>
   12f8e:	83 7d f4 00          	cmpl   $0x0,-0xc(%rbp)
   12f92:	74 16                	je     12faa <main+0x3e32>
   12f94:	8b 45 e8             	mov    -0x18(%rbp),%eax
   12f97:	89 c6                	mov    %eax,%esi
   12f99:	48 8d 3d 57 52 00 00 	lea    0x5257(%rip),%rdi        # 181f7 <g_2382+0x10f7>
   12fa0:	b8 00 00 00 00       	mov    $0x0,%eax
   12fa5:	e8 d6 30 ff ff       	callq  6080 <printf@plt>
   12faa:	83 45 e8 01          	addl   $0x1,-0x18(%rbp)
   12fae:	83 7d e8 02          	cmpl   $0x2,-0x18(%rbp)
   12fb2:	0f 8e ae fe ff ff    	jle    12e66 <main+0x3cee>
   12fb8:	48 8b 05 49 b9 00 00 	mov    0xb949(%rip),%rax        # 1e908 <g_1405>
   12fbf:	25 ff ff ff 1f       	and    $0x1fffffff,%eax
   12fc4:	89 c1                	mov    %eax,%ecx
   12fc6:	8b 45 f4             	mov    -0xc(%rbp),%eax
   12fc9:	89 c2                	mov    %eax,%edx
   12fcb:	48 8d 35 c9 5d 00 00 	lea    0x5dc9(%rip),%rsi        # 18d9b <g_2382+0x1c9b>
   12fd2:	48 89 cf             	mov    %rcx,%rdi
   12fd5:	e8 19 47 ff ff       	callq  76f3 <transparent_crc>
   12fda:	48 8b 05 27 b9 00 00 	mov    0xb927(%rip),%rax        # 1e908 <g_1405>
   12fe1:	48 c1 e0 16          	shl    $0x16,%rax
   12fe5:	48 c1 f8 36          	sar    $0x36,%rax
   12fe9:	48 0f bf c0          	movswq %ax,%rax
   12fed:	8b 55 f4             	mov    -0xc(%rbp),%edx
   12ff0:	48 8d 35 ae 5d 00 00 	lea    0x5dae(%rip),%rsi        # 18da5 <g_2382+0x1ca5>
   12ff7:	48 89 c7             	mov    %rax,%rdi
   12ffa:	e8 f4 46 ff ff       	callq  76f3 <transparent_crc>
   12fff:	48 8b 05 02 b9 00 00 	mov    0xb902(%rip),%rax        # 1e908 <g_1405>
   13006:	48 c1 e8 2a          	shr    $0x2a,%rax
   1300a:	66 25 ff 3f          	and    $0x3fff,%ax
   1300e:	0f b7 c0             	movzwl %ax,%eax
   13011:	8b 55 f4             	mov    -0xc(%rbp),%edx
   13014:	48 8d 35 94 5d 00 00 	lea    0x5d94(%rip),%rsi        # 18daf <g_2382+0x1caf>
   1301b:	48 89 c7             	mov    %rax,%rdi
   1301e:	e8 d0 46 ff ff       	callq  76f3 <transparent_crc>
   13023:	0f b7 05 e6 b8 00 00 	movzwl 0xb8e6(%rip),%eax        # 1e910 <g_1405+0x8>
   1302a:	0f b7 c0             	movzwl %ax,%eax
   1302d:	8b 55 f4             	mov    -0xc(%rbp),%edx
   13030:	48 8d 35 82 5d 00 00 	lea    0x5d82(%rip),%rsi        # 18db9 <g_2382+0x1cb9>
   13037:	48 89 c7             	mov    %rax,%rdi
   1303a:	e8 b4 46 ff ff       	callq  76f3 <transparent_crc>
   1303f:	48 8b 05 ca b8 00 00 	mov    0xb8ca(%rip),%rax        # 1e910 <g_1405+0x8>
   13046:	48 c1 e8 10          	shr    $0x10,%rax
   1304a:	66 25 ff 03          	and    $0x3ff,%ax
   1304e:	0f b7 c0             	movzwl %ax,%eax
   13051:	8b 55 f4             	mov    -0xc(%rbp),%edx
   13054:	48 8d 35 68 5d 00 00 	lea    0x5d68(%rip),%rsi        # 18dc3 <g_2382+0x1cc3>
   1305b:	48 89 c7             	mov    %rax,%rdi
   1305e:	e8 90 46 ff ff       	callq  76f3 <transparent_crc>
   13063:	b8 74 fd ff ff       	mov    $0xfffffd74,%eax
   13068:	48 98                	cltq   
   1306a:	8b 55 f4             	mov    -0xc(%rbp),%edx
   1306d:	48 8d 35 59 5d 00 00 	lea    0x5d59(%rip),%rsi        # 18dcd <g_2382+0x1ccd>
   13074:	48 89 c7             	mov    %rax,%rdi
   13077:	e8 77 46 ff ff       	callq  76f3 <transparent_crc>
   1307c:	48 8b 05 4d 40 00 00 	mov    0x404d(%rip),%rax        # 170d0 <g_1444>
   13083:	48 c1 e0 11          	shl    $0x11,%rax
   13087:	48 c1 f8 24          	sar    $0x24,%rax
   1308b:	48 98                	cltq   
   1308d:	8b 55 f4             	mov    -0xc(%rbp),%edx
   13090:	48 8d 35 40 5d 00 00 	lea    0x5d40(%rip),%rsi        # 18dd7 <g_2382+0x1cd7>
   13097:	48 89 c7             	mov    %rax,%rdi
   1309a:	e8 54 46 ff ff       	callq  76f3 <transparent_crc>
   1309f:	48 b8 d5 35 8e ce fd 	movabs $0xce10e2fdce8e35d5,%rax
   130a6:	e2 10 ce 
   130a9:	48 89 c1             	mov    %rax,%rcx
   130ac:	8b 45 f4             	mov    -0xc(%rbp),%eax
   130af:	89 c2                	mov    %eax,%edx
   130b1:	48 8d 35 29 5d 00 00 	lea    0x5d29(%rip),%rsi        # 18de1 <g_2382+0x1ce1>
   130b8:	48 89 cf             	mov    %rcx,%rdi
   130bb:	e8 33 46 ff ff       	callq  76f3 <transparent_crc>
   130c0:	48 8b 05 11 40 00 00 	mov    0x4011(%rip),%rax        # 170d8 <g_1444+0x8>
   130c7:	48 c1 e8 30          	shr    $0x30,%rax
   130cb:	48 89 c2             	mov    %rax,%rdx
   130ce:	48 8b 05 0b 40 00 00 	mov    0x400b(%rip),%rax        # 170e0 <g_1444+0x10>
   130d5:	83 e0 3f             	and    $0x3f,%eax
   130d8:	48 c1 e0 10          	shl    $0x10,%rax
   130dc:	48 09 d0             	or     %rdx,%rax
   130df:	48 c1 e0 2a          	shl    $0x2a,%rax
   130e3:	48 c1 f8 2a          	sar    $0x2a,%rax
   130e7:	48 98                	cltq   
   130e9:	8b 55 f4             	mov    -0xc(%rbp),%edx
   130ec:	48 8d 35 f8 5c 00 00 	lea    0x5cf8(%rip),%rsi        # 18deb <g_2382+0x1ceb>
   130f3:	48 89 c7             	mov    %rax,%rdi
   130f6:	e8 f8 45 ff ff       	callq  76f3 <transparent_crc>
   130fb:	b8 01 00 00 00       	mov    $0x1,%eax
   13100:	0f b6 c0             	movzbl %al,%eax
   13103:	8b 55 f4             	mov    -0xc(%rbp),%edx
   13106:	48 8d 35 e8 5c 00 00 	lea    0x5ce8(%rip),%rsi        # 18df5 <g_2382+0x1cf5>
   1310d:	48 89 c7             	mov    %rax,%rdi
   13110:	e8 de 45 ff ff       	callq  76f3 <transparent_crc>
   13115:	48 8b 05 c4 3f 00 00 	mov    0x3fc4(%rip),%rax        # 170e0 <g_1444+0x10>
   1311c:	48 c1 e8 09          	shr    $0x9,%rax
   13120:	83 e0 07             	and    $0x7,%eax
   13123:	0f b6 c0             	movzbl %al,%eax
   13126:	8b 55 f4             	mov    -0xc(%rbp),%edx
   13129:	48 8d 35 cf 5c 00 00 	lea    0x5ccf(%rip),%rsi        # 18dff <g_2382+0x1cff>
   13130:	48 89 c7             	mov    %rax,%rdi
   13133:	e8 bb 45 ff ff       	callq  76f3 <transparent_crc>
   13138:	48 8b 05 e1 b7 00 00 	mov    0xb7e1(%rip),%rax        # 1e920 <g_1451>
   1313f:	c1 e0 0d             	shl    $0xd,%eax
   13142:	c1 f8 0d             	sar    $0xd,%eax
   13145:	48 98                	cltq   
   13147:	8b 55 f4             	mov    -0xc(%rbp),%edx
   1314a:	48 8d 35 b8 5c 00 00 	lea    0x5cb8(%rip),%rsi        # 18e09 <g_2382+0x1d09>
   13151:	48 89 c7             	mov    %rax,%rdi
   13154:	e8 9a 45 ff ff       	callq  76f3 <transparent_crc>
   13159:	48 8b 05 c0 b7 00 00 	mov    0xb7c0(%rip),%rax        # 1e920 <g_1451>
   13160:	48 c1 e0 11          	shl    $0x11,%rax
   13164:	48 c1 f8 24          	sar    $0x24,%rax
   13168:	48 98                	cltq   
   1316a:	8b 55 f4             	mov    -0xc(%rbp),%edx
   1316d:	48 8d 35 9f 5c 00 00 	lea    0x5c9f(%rip),%rsi        # 18e13 <g_2382+0x1d13>
   13174:	48 89 c7             	mov    %rax,%rdi
   13177:	e8 77 45 ff ff       	callq  76f3 <transparent_crc>
   1317c:	48 8b 05 a3 b7 00 00 	mov    0xb7a3(%rip),%rax        # 1e926 <g_1451+0x6>
   13183:	48 89 c1             	mov    %rax,%rcx
   13186:	8b 45 f4             	mov    -0xc(%rbp),%eax
   13189:	89 c2                	mov    %eax,%edx
   1318b:	48 8d 35 8b 5c 00 00 	lea    0x5c8b(%rip),%rsi        # 18e1d <g_2382+0x1d1d>
   13192:	48 89 cf             	mov    %rcx,%rdi
   13195:	e8 59 45 ff ff       	callq  76f3 <transparent_crc>
   1319a:	48 8b 05 87 b7 00 00 	mov    0xb787(%rip),%rax        # 1e928 <g_1451+0x8>
   131a1:	48 c1 e8 30          	shr    $0x30,%rax
   131a5:	48 89 c2             	mov    %rax,%rdx
   131a8:	48 8b 05 81 b7 00 00 	mov    0xb781(%rip),%rax        # 1e930 <g_1451+0x10>
   131af:	83 e0 3f             	and    $0x3f,%eax
   131b2:	48 c1 e0 10          	shl    $0x10,%rax
   131b6:	48 09 d0             	or     %rdx,%rax
   131b9:	48 c1 e0 2a          	shl    $0x2a,%rax
   131bd:	48 c1 f8 2a          	sar    $0x2a,%rax
   131c1:	48 98                	cltq   
   131c3:	8b 55 f4             	mov    -0xc(%rbp),%edx
   131c6:	48 8d 35 5a 5c 00 00 	lea    0x5c5a(%rip),%rsi        # 18e27 <g_2382+0x1d27>
   131cd:	48 89 c7             	mov    %rax,%rdi
   131d0:	e8 1e 45 ff ff       	callq  76f3 <transparent_crc>
   131d5:	48 8b 05 54 b7 00 00 	mov    0xb754(%rip),%rax        # 1e930 <g_1451+0x10>
   131dc:	48 c1 e8 06          	shr    $0x6,%rax
   131e0:	83 e0 07             	and    $0x7,%eax
   131e3:	0f b6 c0             	movzbl %al,%eax
   131e6:	8b 55 f4             	mov    -0xc(%rbp),%edx
   131e9:	48 8d 35 41 5c 00 00 	lea    0x5c41(%rip),%rsi        # 18e31 <g_2382+0x1d31>
   131f0:	48 89 c7             	mov    %rax,%rdi
   131f3:	e8 fb 44 ff ff       	callq  76f3 <transparent_crc>
   131f8:	48 8b 05 31 b7 00 00 	mov    0xb731(%rip),%rax        # 1e930 <g_1451+0x10>
   131ff:	48 c1 e8 09          	shr    $0x9,%rax
   13203:	83 e0 07             	and    $0x7,%eax
   13206:	0f b6 c0             	movzbl %al,%eax
   13209:	8b 55 f4             	mov    -0xc(%rbp),%edx
   1320c:	48 8d 35 28 5c 00 00 	lea    0x5c28(%rip),%rsi        # 18e3b <g_2382+0x1d3b>
   13213:	48 89 c7             	mov    %rax,%rdi
   13216:	e8 d8 44 ff ff       	callq  76f3 <transparent_crc>
   1321b:	c7 45 e8 00 00 00 00 	movl   $0x0,-0x18(%rbp)
   13222:	e9 49 01 00 00       	jmpq   13370 <main+0x41f8>
   13227:	8b 45 e8             	mov    -0x18(%rbp),%eax
   1322a:	48 63 d0             	movslq %eax,%rdx
   1322d:	48 89 d0             	mov    %rdx,%rax
   13230:	48 01 c0             	add    %rax,%rax
   13233:	48 01 d0             	add    %rdx,%rax
   13236:	48 c1 e0 02          	shl    $0x2,%rax
   1323a:	48 89 c2             	mov    %rax,%rdx
   1323d:	48 8d 05 fc b6 00 00 	lea    0xb6fc(%rip),%rax        # 1e940 <g_1464>
   13244:	8b 04 02             	mov    (%rdx,%rax,1),%eax
   13247:	25 ff ff ff 1f       	and    $0x1fffffff,%eax
   1324c:	89 c1                	mov    %eax,%ecx
   1324e:	8b 45 f4             	mov    -0xc(%rbp),%eax
   13251:	89 c2                	mov    %eax,%edx
   13253:	48 8d 35 eb 5b 00 00 	lea    0x5beb(%rip),%rsi        # 18e45 <g_2382+0x1d45>
   1325a:	48 89 cf             	mov    %rcx,%rdi
   1325d:	e8 91 44 ff ff       	callq  76f3 <transparent_crc>
   13262:	8b 45 e8             	mov    -0x18(%rbp),%eax
   13265:	48 63 d0             	movslq %eax,%rdx
   13268:	48 89 d0             	mov    %rdx,%rax
   1326b:	48 01 c0             	add    %rax,%rax
   1326e:	48 01 d0             	add    %rdx,%rax
   13271:	48 c1 e0 02          	shl    $0x2,%rax
   13275:	48 89 c2             	mov    %rax,%rdx
   13278:	48 8d 05 c1 b6 00 00 	lea    0xb6c1(%rip),%rax        # 1e940 <g_1464>
   1327f:	8b 44 02 04          	mov    0x4(%rdx,%rax,1),%eax
   13283:	c1 e0 06             	shl    $0x6,%eax
   13286:	66 c1 f8 06          	sar    $0x6,%ax
   1328a:	48 0f bf c0          	movswq %ax,%rax
   1328e:	8b 55 f4             	mov    -0xc(%rbp),%edx
   13291:	48 8d 35 ba 5b 00 00 	lea    0x5bba(%rip),%rsi        # 18e52 <g_2382+0x1d52>
   13298:	48 89 c7             	mov    %rax,%rdi
   1329b:	e8 53 44 ff ff       	callq  76f3 <transparent_crc>
   132a0:	8b 45 e8             	mov    -0x18(%rbp),%eax
   132a3:	48 63 d0             	movslq %eax,%rdx
   132a6:	48 89 d0             	mov    %rdx,%rax
   132a9:	48 01 c0             	add    %rax,%rax
   132ac:	48 01 d0             	add    %rdx,%rax
   132af:	48 c1 e0 02          	shl    $0x2,%rax
   132b3:	48 89 c2             	mov    %rax,%rdx
   132b6:	48 8d 05 83 b6 00 00 	lea    0xb683(%rip),%rax        # 1e940 <g_1464>
   132bd:	8b 44 02 04          	mov    0x4(%rdx,%rax,1),%eax
   132c1:	c1 e8 0a             	shr    $0xa,%eax
   132c4:	66 25 ff 3f          	and    $0x3fff,%ax
   132c8:	0f b7 c0             	movzwl %ax,%eax
   132cb:	8b 55 f4             	mov    -0xc(%rbp),%edx
   132ce:	48 8d 35 8a 5b 00 00 	lea    0x5b8a(%rip),%rsi        # 18e5f <g_2382+0x1d5f>
   132d5:	48 89 c7             	mov    %rax,%rdi
   132d8:	e8 16 44 ff ff       	callq  76f3 <transparent_crc>
   132dd:	8b 45 e8             	mov    -0x18(%rbp),%eax
   132e0:	48 63 d0             	movslq %eax,%rdx
   132e3:	48 89 d0             	mov    %rdx,%rax
   132e6:	48 01 c0             	add    %rax,%rax
   132e9:	48 01 d0             	add    %rdx,%rax
   132ec:	48 c1 e0 02          	shl    $0x2,%rax
   132f0:	48 89 c2             	mov    %rax,%rdx
   132f3:	48 8d 05 4e b6 00 00 	lea    0xb64e(%rip),%rax        # 1e948 <g_1464+0x8>
   132fa:	0f b7 04 02          	movzwl (%rdx,%rax,1),%eax
   132fe:	0f b7 c0             	movzwl %ax,%eax
   13301:	8b 55 f4             	mov    -0xc(%rbp),%edx
   13304:	48 8d 35 61 5b 00 00 	lea    0x5b61(%rip),%rsi        # 18e6c <g_2382+0x1d6c>
   1330b:	48 89 c7             	mov    %rax,%rdi
   1330e:	e8 e0 43 ff ff       	callq  76f3 <transparent_crc>
   13313:	8b 45 e8             	mov    -0x18(%rbp),%eax
   13316:	48 63 d0             	movslq %eax,%rdx
   13319:	48 89 d0             	mov    %rdx,%rax
   1331c:	48 01 c0             	add    %rax,%rax
   1331f:	48 01 d0             	add    %rdx,%rax
   13322:	48 c1 e0 02          	shl    $0x2,%rax
   13326:	48 89 c2             	mov    %rax,%rdx
   13329:	48 8d 05 10 b6 00 00 	lea    0xb610(%rip),%rax        # 1e940 <g_1464>
   13330:	8b 44 02 08          	mov    0x8(%rdx,%rax,1),%eax
   13334:	c1 e8 10             	shr    $0x10,%eax
   13337:	66 25 ff 03          	and    $0x3ff,%ax
   1333b:	0f b7 c0             	movzwl %ax,%eax
   1333e:	8b 55 f4             	mov    -0xc(%rbp),%edx
   13341:	48 8d 35 31 5b 00 00 	lea    0x5b31(%rip),%rsi        # 18e79 <g_2382+0x1d79>
   13348:	48 89 c7             	mov    %rax,%rdi
   1334b:	e8 a3 43 ff ff       	callq  76f3 <transparent_crc>
   13350:	83 7d f4 00          	cmpl   $0x0,-0xc(%rbp)
   13354:	74 16                	je     1336c <main+0x41f4>
   13356:	8b 45 e8             	mov    -0x18(%rbp),%eax
   13359:	89 c6                	mov    %eax,%esi
   1335b:	48 8d 3d 95 4e 00 00 	lea    0x4e95(%rip),%rdi        # 181f7 <g_2382+0x10f7>
   13362:	b8 00 00 00 00       	mov    $0x0,%eax
   13367:	e8 14 2d ff ff       	callq  6080 <printf@plt>
   1336c:	83 45 e8 01          	addl   $0x1,-0x18(%rbp)
   13370:	83 7d e8 03          	cmpl   $0x3,-0x18(%rbp)
   13374:	0f 8e ad fe ff ff    	jle    13227 <main+0x40af>
   1337a:	8b 05 f0 b5 00 00    	mov    0xb5f0(%rip),%eax        # 1e970 <g_1465>
   13380:	c1 e0 0d             	shl    $0xd,%eax
   13383:	c1 f8 0d             	sar    $0xd,%eax
   13386:	48 98                	cltq   
   13388:	8b 55 f4             	mov    -0xc(%rbp),%edx
   1338b:	48 8d 35 f4 5a 00 00 	lea    0x5af4(%rip),%rsi        # 18e86 <g_2382+0x1d86>
   13392:	48 89 c7             	mov    %rax,%rdi
   13395:	e8 59 43 ff ff       	callq  76f3 <transparent_crc>
   1339a:	48 8b 05 cf b5 00 00 	mov    0xb5cf(%rip),%rax        # 1e970 <g_1465>
   133a1:	48 c1 e0 11          	shl    $0x11,%rax
   133a5:	48 c1 f8 24          	sar    $0x24,%rax
   133a9:	48 98                	cltq   
   133ab:	8b 55 f4             	mov    -0xc(%rbp),%edx
   133ae:	48 8d 35 db 5a 00 00 	lea    0x5adb(%rip),%rsi        # 18e90 <g_2382+0x1d90>
   133b5:	48 89 c7             	mov    %rax,%rdi
   133b8:	e8 36 43 ff ff       	callq  76f3 <transparent_crc>
   133bd:	48 8b 05 b2 b5 00 00 	mov    0xb5b2(%rip),%rax        # 1e976 <g_1465+0x6>
   133c4:	48 89 c1             	mov    %rax,%rcx
   133c7:	8b 45 f4             	mov    -0xc(%rbp),%eax
   133ca:	89 c2                	mov    %eax,%edx
   133cc:	48 8d 35 c7 5a 00 00 	lea    0x5ac7(%rip),%rsi        # 18e9a <g_2382+0x1d9a>
   133d3:	48 89 cf             	mov    %rcx,%rdi
   133d6:	e8 18 43 ff ff       	callq  76f3 <transparent_crc>
   133db:	48 8b 05 96 b5 00 00 	mov    0xb596(%rip),%rax        # 1e978 <g_1465+0x8>
   133e2:	48 c1 e8 30          	shr    $0x30,%rax
   133e6:	48 89 c2             	mov    %rax,%rdx
   133e9:	48 8b 05 90 b5 00 00 	mov    0xb590(%rip),%rax        # 1e980 <g_1465+0x10>
   133f0:	83 e0 3f             	and    $0x3f,%eax
   133f3:	48 c1 e0 10          	shl    $0x10,%rax
   133f7:	48 09 d0             	or     %rdx,%rax
   133fa:	48 c1 e0 2a          	shl    $0x2a,%rax
   133fe:	48 c1 f8 2a          	sar    $0x2a,%rax
   13402:	48 98                	cltq   
   13404:	8b 55 f4             	mov    -0xc(%rbp),%edx
   13407:	48 8d 35 96 5a 00 00 	lea    0x5a96(%rip),%rsi        # 18ea4 <g_2382+0x1da4>
   1340e:	48 89 c7             	mov    %rax,%rdi
   13411:	e8 dd 42 ff ff       	callq  76f3 <transparent_crc>
   13416:	0f b7 05 63 b5 00 00 	movzwl 0xb563(%rip),%eax        # 1e980 <g_1465+0x10>
   1341d:	66 c1 e8 06          	shr    $0x6,%ax
   13421:	83 e0 07             	and    $0x7,%eax
   13424:	0f b6 c0             	movzbl %al,%eax
   13427:	8b 55 f4             	mov    -0xc(%rbp),%edx
   1342a:	48 8d 35 7d 5a 00 00 	lea    0x5a7d(%rip),%rsi        # 18eae <g_2382+0x1dae>
   13431:	48 89 c7             	mov    %rax,%rdi
   13434:	e8 ba 42 ff ff       	callq  76f3 <transparent_crc>
   13439:	48 8b 05 40 b5 00 00 	mov    0xb540(%rip),%rax        # 1e980 <g_1465+0x10>
   13440:	48 c1 e8 09          	shr    $0x9,%rax
   13444:	83 e0 07             	and    $0x7,%eax
   13447:	0f b6 c0             	movzbl %al,%eax
   1344a:	8b 55 f4             	mov    -0xc(%rbp),%edx
   1344d:	48 8d 35 64 5a 00 00 	lea    0x5a64(%rip),%rsi        # 18eb8 <g_2382+0x1db8>
   13454:	48 89 c7             	mov    %rax,%rdi
   13457:	e8 97 42 ff ff       	callq  76f3 <transparent_crc>
   1345c:	8b 05 22 b5 00 00    	mov    0xb522(%rip),%eax        # 1e984 <g_1493>
   13462:	89 c1                	mov    %eax,%ecx
   13464:	8b 45 f4             	mov    -0xc(%rbp),%eax
   13467:	89 c2                	mov    %eax,%edx
   13469:	48 8d 35 52 5a 00 00 	lea    0x5a52(%rip),%rsi        # 18ec2 <g_2382+0x1dc2>
   13470:	48 89 cf             	mov    %rcx,%rdi
   13473:	e8 7b 42 ff ff       	callq  76f3 <transparent_crc>
   13478:	0f b7 05 09 b5 00 00 	movzwl 0xb509(%rip),%eax        # 1e988 <g_1574>
   1347f:	48 0f bf c0          	movswq %ax,%rax
   13483:	8b 55 f4             	mov    -0xc(%rbp),%edx
   13486:	48 8d 35 3c 5a 00 00 	lea    0x5a3c(%rip),%rsi        # 18ec9 <g_2382+0x1dc9>
   1348d:	48 89 c7             	mov    %rax,%rdi
   13490:	e8 5e 42 ff ff       	callq  76f3 <transparent_crc>
   13495:	8b 05 f5 b4 00 00    	mov    0xb4f5(%rip),%eax        # 1e990 <g_1583>
   1349b:	c1 e0 0d             	shl    $0xd,%eax
   1349e:	c1 f8 0d             	sar    $0xd,%eax
   134a1:	48 98                	cltq   
   134a3:	8b 55 f4             	mov    -0xc(%rbp),%edx
   134a6:	48 8d 35 23 5a 00 00 	lea    0x5a23(%rip),%rsi        # 18ed0 <g_2382+0x1dd0>
   134ad:	48 89 c7             	mov    %rax,%rdi
   134b0:	e8 3e 42 ff ff       	callq  76f3 <transparent_crc>
   134b5:	48 8b 05 d4 b4 00 00 	mov    0xb4d4(%rip),%rax        # 1e990 <g_1583>
   134bc:	48 c1 e0 11          	shl    $0x11,%rax
   134c0:	48 c1 f8 24          	sar    $0x24,%rax
   134c4:	48 98                	cltq   
   134c6:	8b 55 f4             	mov    -0xc(%rbp),%edx
   134c9:	48 8d 35 0a 5a 00 00 	lea    0x5a0a(%rip),%rsi        # 18eda <g_2382+0x1dda>
   134d0:	48 89 c7             	mov    %rax,%rdi
   134d3:	e8 1b 42 ff ff       	callq  76f3 <transparent_crc>
   134d8:	48 8b 05 b7 b4 00 00 	mov    0xb4b7(%rip),%rax        # 1e996 <g_1583+0x6>
   134df:	48 89 c1             	mov    %rax,%rcx
   134e2:	8b 45 f4             	mov    -0xc(%rbp),%eax
   134e5:	89 c2                	mov    %eax,%edx
   134e7:	48 8d 35 f6 59 00 00 	lea    0x59f6(%rip),%rsi        # 18ee4 <g_2382+0x1de4>
   134ee:	48 89 cf             	mov    %rcx,%rdi
   134f1:	e8 fd 41 ff ff       	callq  76f3 <transparent_crc>
   134f6:	48 8b 05 9b b4 00 00 	mov    0xb49b(%rip),%rax        # 1e998 <g_1583+0x8>
   134fd:	48 c1 e8 30          	shr    $0x30,%rax
   13501:	48 89 c2             	mov    %rax,%rdx
   13504:	48 8b 05 95 b4 00 00 	mov    0xb495(%rip),%rax        # 1e9a0 <g_1583+0x10>
   1350b:	83 e0 3f             	and    $0x3f,%eax
   1350e:	48 c1 e0 10          	shl    $0x10,%rax
   13512:	48 09 d0             	or     %rdx,%rax
   13515:	48 c1 e0 2a          	shl    $0x2a,%rax
   13519:	48 c1 f8 2a          	sar    $0x2a,%rax
   1351d:	48 98                	cltq   
   1351f:	8b 55 f4             	mov    -0xc(%rbp),%edx
   13522:	48 8d 35 c5 59 00 00 	lea    0x59c5(%rip),%rsi        # 18eee <g_2382+0x1dee>
   13529:	48 89 c7             	mov    %rax,%rdi
   1352c:	e8 c2 41 ff ff       	callq  76f3 <transparent_crc>
   13531:	0f b7 05 68 b4 00 00 	movzwl 0xb468(%rip),%eax        # 1e9a0 <g_1583+0x10>
   13538:	66 c1 e8 06          	shr    $0x6,%ax
   1353c:	83 e0 07             	and    $0x7,%eax
   1353f:	0f b6 c0             	movzbl %al,%eax
   13542:	8b 55 f4             	mov    -0xc(%rbp),%edx
   13545:	48 8d 35 ac 59 00 00 	lea    0x59ac(%rip),%rsi        # 18ef8 <g_2382+0x1df8>
   1354c:	48 89 c7             	mov    %rax,%rdi
   1354f:	e8 9f 41 ff ff       	callq  76f3 <transparent_crc>
   13554:	48 8b 05 45 b4 00 00 	mov    0xb445(%rip),%rax        # 1e9a0 <g_1583+0x10>
   1355b:	48 c1 e8 09          	shr    $0x9,%rax
   1355f:	83 e0 07             	and    $0x7,%eax
   13562:	0f b6 c0             	movzbl %al,%eax
   13565:	8b 55 f4             	mov    -0xc(%rbp),%edx
   13568:	48 8d 35 93 59 00 00 	lea    0x5993(%rip),%rsi        # 18f02 <g_2382+0x1e02>
   1356f:	48 89 c7             	mov    %rax,%rdi
   13572:	e8 7c 41 ff ff       	callq  76f3 <transparent_crc>
   13577:	c7 45 e8 00 00 00 00 	movl   $0x0,-0x18(%rbp)
   1357e:	e9 78 05 00 00       	jmpq   13afb <main+0x4983>
   13583:	c7 45 ec 00 00 00 00 	movl   $0x0,-0x14(%rbp)
   1358a:	e9 5e 05 00 00       	jmpq   13aed <main+0x4975>
   1358f:	c7 45 f0 00 00 00 00 	movl   $0x0,-0x10(%rbp)
   13596:	e9 44 05 00 00       	jmpq   13adf <main+0x4967>
   1359b:	8b 45 f0             	mov    -0x10(%rbp),%eax
   1359e:	48 98                	cltq   
   135a0:	8b 55 ec             	mov    -0x14(%rbp),%edx
   135a3:	48 63 f2             	movslq %edx,%rsi
   135a6:	8b 55 e8             	mov    -0x18(%rbp),%edx
   135a9:	48 63 ca             	movslq %edx,%rcx
   135ac:	48 89 c2             	mov    %rax,%rdx
   135af:	48 c1 e2 02          	shl    $0x2,%rdx
   135b3:	48 01 c2             	add    %rax,%rdx
   135b6:	48 8d 04 d5 00 00 00 	lea    0x0(,%rdx,8),%rax
   135bd:	00 
   135be:	48 89 c2             	mov    %rax,%rdx
   135c1:	48 89 f0             	mov    %rsi,%rax
   135c4:	48 c1 e0 02          	shl    $0x2,%rax
   135c8:	48 01 f0             	add    %rsi,%rax
   135cb:	48 8d 34 85 00 00 00 	lea    0x0(,%rax,4),%rsi
   135d2:	00 
   135d3:	48 01 f0             	add    %rsi,%rax
   135d6:	48 c1 e0 04          	shl    $0x4,%rax
   135da:	48 8d 34 02          	lea    (%rdx,%rax,1),%rsi
   135de:	48 89 c8             	mov    %rcx,%rax
   135e1:	48 c1 e0 02          	shl    $0x2,%rax
   135e5:	48 01 c8             	add    %rcx,%rax
   135e8:	48 8d 14 85 00 00 00 	lea    0x0(,%rax,4),%rdx
   135ef:	00 
   135f0:	48 01 d0             	add    %rdx,%rax
   135f3:	48 c1 e0 05          	shl    $0x5,%rax
   135f7:	48 8d 14 06          	lea    (%rsi,%rax,1),%rdx
   135fb:	48 8d 05 be b3 00 00 	lea    0xb3be(%rip),%rax        # 1e9c0 <g_1616>
   13602:	48 01 d0             	add    %rdx,%rax
   13605:	48 8b 00             	mov    (%rax),%rax
   13608:	8b 55 f4             	mov    -0xc(%rbp),%edx
   1360b:	48 8d 35 fa 58 00 00 	lea    0x58fa(%rip),%rsi        # 18f0c <g_2382+0x1e0c>
   13612:	48 89 c7             	mov    %rax,%rdi
   13615:	e8 d9 40 ff ff       	callq  76f3 <transparent_crc>
   1361a:	8b 45 f0             	mov    -0x10(%rbp),%eax
   1361d:	48 98                	cltq   
   1361f:	8b 55 ec             	mov    -0x14(%rbp),%edx
   13622:	48 63 f2             	movslq %edx,%rsi
   13625:	8b 55 e8             	mov    -0x18(%rbp),%edx
   13628:	48 63 ca             	movslq %edx,%rcx
   1362b:	48 89 c2             	mov    %rax,%rdx
   1362e:	48 c1 e2 02          	shl    $0x2,%rdx
   13632:	48 01 c2             	add    %rax,%rdx
   13635:	48 8d 04 d5 00 00 00 	lea    0x0(,%rdx,8),%rax
   1363c:	00 
   1363d:	48 89 c2             	mov    %rax,%rdx
   13640:	48 89 f0             	mov    %rsi,%rax
   13643:	48 c1 e0 02          	shl    $0x2,%rax
   13647:	48 01 f0             	add    %rsi,%rax
   1364a:	48 8d 34 85 00 00 00 	lea    0x0(,%rax,4),%rsi
   13651:	00 
   13652:	48 01 f0             	add    %rsi,%rax
   13655:	48 c1 e0 04          	shl    $0x4,%rax
   13659:	48 8d 34 02          	lea    (%rdx,%rax,1),%rsi
   1365d:	48 89 c8             	mov    %rcx,%rax
   13660:	48 c1 e0 02          	shl    $0x2,%rax
   13664:	48 01 c8             	add    %rcx,%rax
   13667:	48 8d 14 85 00 00 00 	lea    0x0(,%rax,4),%rdx
   1366e:	00 
   1366f:	48 01 d0             	add    %rdx,%rax
   13672:	48 c1 e0 05          	shl    $0x5,%rax
   13676:	48 8d 14 06          	lea    (%rsi,%rax,1),%rdx
   1367a:	48 8d 05 47 b3 00 00 	lea    0xb347(%rip),%rax        # 1e9c8 <g_1616+0x8>
   13681:	48 01 d0             	add    %rdx,%rax
   13684:	0f b6 00             	movzbl (%rax),%eax
   13687:	0f b6 c0             	movzbl %al,%eax
   1368a:	8b 55 f4             	mov    -0xc(%rbp),%edx
   1368d:	48 8d 35 8b 58 00 00 	lea    0x588b(%rip),%rsi        # 18f1f <g_2382+0x1e1f>
   13694:	48 89 c7             	mov    %rax,%rdi
   13697:	e8 57 40 ff ff       	callq  76f3 <transparent_crc>
   1369c:	8b 45 f0             	mov    -0x10(%rbp),%eax
   1369f:	48 98                	cltq   
   136a1:	8b 55 ec             	mov    -0x14(%rbp),%edx
   136a4:	48 63 f2             	movslq %edx,%rsi
   136a7:	8b 55 e8             	mov    -0x18(%rbp),%edx
   136aa:	48 63 ca             	movslq %edx,%rcx
   136ad:	48 89 c2             	mov    %rax,%rdx
   136b0:	48 c1 e2 02          	shl    $0x2,%rdx
   136b4:	48 01 c2             	add    %rax,%rdx
   136b7:	48 8d 04 d5 00 00 00 	lea    0x0(,%rdx,8),%rax
   136be:	00 
   136bf:	48 89 c2             	mov    %rax,%rdx
   136c2:	48 89 f0             	mov    %rsi,%rax
   136c5:	48 c1 e0 02          	shl    $0x2,%rax
   136c9:	48 01 f0             	add    %rsi,%rax
   136cc:	48 8d 34 85 00 00 00 	lea    0x0(,%rax,4),%rsi
   136d3:	00 
   136d4:	48 01 f0             	add    %rsi,%rax
   136d7:	48 c1 e0 04          	shl    $0x4,%rax
   136db:	48 8d 34 02          	lea    (%rdx,%rax,1),%rsi
   136df:	48 89 c8             	mov    %rcx,%rax
   136e2:	48 c1 e0 02          	shl    $0x2,%rax
   136e6:	48 01 c8             	add    %rcx,%rax
   136e9:	48 8d 14 85 00 00 00 	lea    0x0(,%rax,4),%rdx
   136f0:	00 
   136f1:	48 01 d0             	add    %rdx,%rax
   136f4:	48 c1 e0 05          	shl    $0x5,%rax
   136f8:	48 8d 14 06          	lea    (%rsi,%rax,1),%rdx
   136fc:	48 8d 05 c7 b2 00 00 	lea    0xb2c7(%rip),%rax        # 1e9ca <g_1616+0xa>
   13703:	48 01 d0             	add    %rdx,%rax
   13706:	0f b7 00             	movzwl (%rax),%eax
   13709:	0f b7 c0             	movzwl %ax,%eax
   1370c:	8b 55 f4             	mov    -0xc(%rbp),%edx
   1370f:	48 8d 35 1c 58 00 00 	lea    0x581c(%rip),%rsi        # 18f32 <g_2382+0x1e32>
   13716:	48 89 c7             	mov    %rax,%rdi
   13719:	e8 d5 3f ff ff       	callq  76f3 <transparent_crc>
   1371e:	8b 45 f0             	mov    -0x10(%rbp),%eax
   13721:	48 98                	cltq   
   13723:	8b 55 ec             	mov    -0x14(%rbp),%edx
   13726:	48 63 f2             	movslq %edx,%rsi
   13729:	8b 55 e8             	mov    -0x18(%rbp),%edx
   1372c:	48 63 ca             	movslq %edx,%rcx
   1372f:	48 89 c2             	mov    %rax,%rdx
   13732:	48 c1 e2 02          	shl    $0x2,%rdx
   13736:	48 01 c2             	add    %rax,%rdx
   13739:	48 8d 04 d5 00 00 00 	lea    0x0(,%rdx,8),%rax
   13740:	00 
   13741:	48 89 c2             	mov    %rax,%rdx
   13744:	48 89 f0             	mov    %rsi,%rax
   13747:	48 c1 e0 02          	shl    $0x2,%rax
   1374b:	48 01 f0             	add    %rsi,%rax
   1374e:	48 8d 34 85 00 00 00 	lea    0x0(,%rax,4),%rsi
   13755:	00 
   13756:	48 01 f0             	add    %rsi,%rax
   13759:	48 c1 e0 04          	shl    $0x4,%rax
   1375d:	48 8d 34 02          	lea    (%rdx,%rax,1),%rsi
   13761:	48 89 c8             	mov    %rcx,%rax
   13764:	48 c1 e0 02          	shl    $0x2,%rax
   13768:	48 01 c8             	add    %rcx,%rax
   1376b:	48 8d 14 85 00 00 00 	lea    0x0(,%rax,4),%rdx
   13772:	00 
   13773:	48 01 d0             	add    %rdx,%rax
   13776:	48 c1 e0 05          	shl    $0x5,%rax
   1377a:	48 8d 14 06          	lea    (%rsi,%rax,1),%rdx
   1377e:	48 8d 05 47 b2 00 00 	lea    0xb247(%rip),%rax        # 1e9cc <g_1616+0xc>
   13785:	48 01 d0             	add    %rdx,%rax
   13788:	0f b6 00             	movzbl (%rax),%eax
   1378b:	48 0f be c0          	movsbq %al,%rax
   1378f:	8b 55 f4             	mov    -0xc(%rbp),%edx
   13792:	48 8d 35 ac 57 00 00 	lea    0x57ac(%rip),%rsi        # 18f45 <g_2382+0x1e45>
   13799:	48 89 c7             	mov    %rax,%rdi
   1379c:	e8 52 3f ff ff       	callq  76f3 <transparent_crc>
   137a1:	8b 45 f0             	mov    -0x10(%rbp),%eax
   137a4:	48 98                	cltq   
   137a6:	8b 55 ec             	mov    -0x14(%rbp),%edx
   137a9:	48 63 f2             	movslq %edx,%rsi
   137ac:	8b 55 e8             	mov    -0x18(%rbp),%edx
   137af:	48 63 ca             	movslq %edx,%rcx
   137b2:	48 89 c2             	mov    %rax,%rdx
   137b5:	48 c1 e2 02          	shl    $0x2,%rdx
   137b9:	48 01 c2             	add    %rax,%rdx
   137bc:	48 8d 04 d5 00 00 00 	lea    0x0(,%rdx,8),%rax
   137c3:	00 
   137c4:	48 89 c2             	mov    %rax,%rdx
   137c7:	48 89 f0             	mov    %rsi,%rax
   137ca:	48 c1 e0 02          	shl    $0x2,%rax
   137ce:	48 01 f0             	add    %rsi,%rax
   137d1:	48 8d 34 85 00 00 00 	lea    0x0(,%rax,4),%rsi
   137d8:	00 
   137d9:	48 01 f0             	add    %rsi,%rax
   137dc:	48 c1 e0 04          	shl    $0x4,%rax
   137e0:	48 8d 34 02          	lea    (%rdx,%rax,1),%rsi
   137e4:	48 89 c8             	mov    %rcx,%rax
   137e7:	48 c1 e0 02          	shl    $0x2,%rax
   137eb:	48 01 c8             	add    %rcx,%rax
   137ee:	48 8d 14 85 00 00 00 	lea    0x0(,%rax,4),%rdx
   137f5:	00 
   137f6:	48 01 d0             	add    %rdx,%rax
   137f9:	48 c1 e0 05          	shl    $0x5,%rax
   137fd:	48 8d 14 06          	lea    (%rsi,%rax,1),%rdx
   13801:	48 8d 05 b8 b1 00 00 	lea    0xb1b8(%rip),%rax        # 1e9c0 <g_1616>
   13808:	48 01 d0             	add    %rdx,%rax
   1380b:	48 8b 40 08          	mov    0x8(%rax),%rax
   1380f:	48 c1 e8 28          	shr    $0x28,%rax
   13813:	83 e0 1f             	and    $0x1f,%eax
   13816:	0f b6 c0             	movzbl %al,%eax
   13819:	8b 55 f4             	mov    -0xc(%rbp),%edx
   1381c:	48 8d 35 35 57 00 00 	lea    0x5735(%rip),%rsi        # 18f58 <g_2382+0x1e58>
   13823:	48 89 c7             	mov    %rax,%rdi
   13826:	e8 c8 3e ff ff       	callq  76f3 <transparent_crc>
   1382b:	8b 45 f0             	mov    -0x10(%rbp),%eax
   1382e:	48 98                	cltq   
   13830:	8b 55 ec             	mov    -0x14(%rbp),%edx
   13833:	48 63 f2             	movslq %edx,%rsi
   13836:	8b 55 e8             	mov    -0x18(%rbp),%edx
   13839:	48 63 ca             	movslq %edx,%rcx
   1383c:	48 89 c2             	mov    %rax,%rdx
   1383f:	48 c1 e2 02          	shl    $0x2,%rdx
   13843:	48 01 c2             	add    %rax,%rdx
   13846:	48 8d 04 d5 00 00 00 	lea    0x0(,%rdx,8),%rax
   1384d:	00 
   1384e:	48 89 c2             	mov    %rax,%rdx
   13851:	48 89 f0             	mov    %rsi,%rax
   13854:	48 c1 e0 02          	shl    $0x2,%rax
   13858:	48 01 f0             	add    %rsi,%rax
   1385b:	48 8d 34 85 00 00 00 	lea    0x0(,%rax,4),%rsi
   13862:	00 
   13863:	48 01 f0             	add    %rsi,%rax
   13866:	48 c1 e0 04          	shl    $0x4,%rax
   1386a:	48 8d 34 02          	lea    (%rdx,%rax,1),%rsi
   1386e:	48 89 c8             	mov    %rcx,%rax
   13871:	48 c1 e0 02          	shl    $0x2,%rax
   13875:	48 01 c8             	add    %rcx,%rax
   13878:	48 8d 14 85 00 00 00 	lea    0x0(,%rax,4),%rdx
   1387f:	00 
   13880:	48 01 d0             	add    %rdx,%rax
   13883:	48 c1 e0 05          	shl    $0x5,%rax
   13887:	48 8d 14 06          	lea    (%rsi,%rax,1),%rdx
   1388b:	48 8d 05 2e b1 00 00 	lea    0xb12e(%rip),%rax        # 1e9c0 <g_1616>
   13892:	48 01 d0             	add    %rdx,%rax
   13895:	48 8b 40 08          	mov    0x8(%rax),%rax
   13899:	48 c1 e8 2d          	shr    $0x2d,%rax
   1389d:	66 25 ff 0f          	and    $0xfff,%ax
   138a1:	0f b7 c0             	movzwl %ax,%eax
   138a4:	8b 55 f4             	mov    -0xc(%rbp),%edx
   138a7:	48 8d 35 bd 56 00 00 	lea    0x56bd(%rip),%rsi        # 18f6b <g_2382+0x1e6b>
   138ae:	48 89 c7             	mov    %rax,%rdi
   138b1:	e8 3d 3e ff ff       	callq  76f3 <transparent_crc>
   138b6:	8b 45 f0             	mov    -0x10(%rbp),%eax
   138b9:	48 98                	cltq   
   138bb:	8b 55 ec             	mov    -0x14(%rbp),%edx
   138be:	48 63 ca             	movslq %edx,%rcx
   138c1:	8b 55 e8             	mov    -0x18(%rbp),%edx
   138c4:	48 63 f2             	movslq %edx,%rsi
   138c7:	48 89 c2             	mov    %rax,%rdx
   138ca:	48 c1 e2 02          	shl    $0x2,%rdx
   138ce:	48 01 c2             	add    %rax,%rdx
   138d1:	48 8d 04 d5 00 00 00 	lea    0x0(,%rdx,8),%rax
   138d8:	00 
   138d9:	48 89 c2             	mov    %rax,%rdx
   138dc:	48 89 f0             	mov    %rsi,%rax
   138df:	48 c1 e0 02          	shl    $0x2,%rax
   138e3:	48 01 f0             	add    %rsi,%rax
   138e6:	48 8d 34 85 00 00 00 	lea    0x0(,%rax,4),%rsi
   138ed:	00 
   138ee:	48 01 f0             	add    %rsi,%rax
   138f1:	48 c1 e0 05          	shl    $0x5,%rax
   138f5:	48 8d 34 02          	lea    (%rdx,%rax,1),%rsi
   138f9:	48 89 c8             	mov    %rcx,%rax
   138fc:	48 c1 e0 02          	shl    $0x2,%rax
   13900:	48 01 c8             	add    %rcx,%rax
   13903:	48 8d 14 85 00 00 00 	lea    0x0(,%rax,4),%rdx
   1390a:	00 
   1390b:	48 01 d0             	add    %rdx,%rax
   1390e:	48 c1 e0 04          	shl    $0x4,%rax
   13912:	48 8d 14 06          	lea    (%rsi,%rax,1),%rdx
   13916:	48 8d 05 b3 b0 00 00 	lea    0xb0b3(%rip),%rax        # 1e9d0 <g_1616+0x10>
   1391d:	48 01 d0             	add    %rdx,%rax
   13920:	8b 00                	mov    (%rax),%eax
   13922:	48 98                	cltq   
   13924:	8b 55 f4             	mov    -0xc(%rbp),%edx
   13927:	48 8d 35 50 56 00 00 	lea    0x5650(%rip),%rsi        # 18f7e <g_2382+0x1e7e>
   1392e:	48 89 c7             	mov    %rax,%rdi
   13931:	e8 bd 3d ff ff       	callq  76f3 <transparent_crc>
   13936:	8b 45 f0             	mov    -0x10(%rbp),%eax
   13939:	48 98                	cltq   
   1393b:	8b 55 ec             	mov    -0x14(%rbp),%edx
   1393e:	48 63 ca             	movslq %edx,%rcx
   13941:	8b 55 e8             	mov    -0x18(%rbp),%edx
   13944:	48 63 f2             	movslq %edx,%rsi
   13947:	48 89 c2             	mov    %rax,%rdx
   1394a:	48 c1 e2 02          	shl    $0x2,%rdx
   1394e:	48 01 c2             	add    %rax,%rdx
   13951:	48 8d 04 d5 00 00 00 	lea    0x0(,%rdx,8),%rax
   13958:	00 
   13959:	48 89 c2             	mov    %rax,%rdx
   1395c:	48 89 f0             	mov    %rsi,%rax
   1395f:	48 c1 e0 02          	shl    $0x2,%rax
   13963:	48 01 f0             	add    %rsi,%rax
   13966:	48 8d 34 85 00 00 00 	lea    0x0(,%rax,4),%rsi
   1396d:	00 
   1396e:	48 01 f0             	add    %rsi,%rax
   13971:	48 c1 e0 05          	shl    $0x5,%rax
   13975:	48 8d 34 02          	lea    (%rdx,%rax,1),%rsi
   13979:	48 89 c8             	mov    %rcx,%rax
   1397c:	48 c1 e0 02          	shl    $0x2,%rax
   13980:	48 01 c8             	add    %rcx,%rax
   13983:	48 8d 14 85 00 00 00 	lea    0x0(,%rax,4),%rdx
   1398a:	00 
   1398b:	48 01 d0             	add    %rdx,%rax
   1398e:	48 c1 e0 04          	shl    $0x4,%rax
   13992:	48 8d 14 06          	lea    (%rsi,%rax,1),%rdx
   13996:	48 8d 05 37 b0 00 00 	lea    0xb037(%rip),%rax        # 1e9d4 <g_1616+0x14>
   1399d:	48 01 d0             	add    %rdx,%rax
   139a0:	8b 00                	mov    (%rax),%eax
   139a2:	89 c1                	mov    %eax,%ecx
   139a4:	8b 45 f4             	mov    -0xc(%rbp),%eax
   139a7:	89 c2                	mov    %eax,%edx
   139a9:	48 8d 35 e1 55 00 00 	lea    0x55e1(%rip),%rsi        # 18f91 <g_2382+0x1e91>
   139b0:	48 89 cf             	mov    %rcx,%rdi
   139b3:	e8 3b 3d ff ff       	callq  76f3 <transparent_crc>
   139b8:	8b 45 f0             	mov    -0x10(%rbp),%eax
   139bb:	48 98                	cltq   
   139bd:	8b 55 ec             	mov    -0x14(%rbp),%edx
   139c0:	48 63 ca             	movslq %edx,%rcx
   139c3:	8b 55 e8             	mov    -0x18(%rbp),%edx
   139c6:	48 63 f2             	movslq %edx,%rsi
   139c9:	48 89 c2             	mov    %rax,%rdx
   139cc:	48 c1 e2 02          	shl    $0x2,%rdx
   139d0:	48 01 c2             	add    %rax,%rdx
   139d3:	48 8d 04 d5 00 00 00 	lea    0x0(,%rdx,8),%rax
   139da:	00 
   139db:	48 89 c2             	mov    %rax,%rdx
   139de:	48 89 f0             	mov    %rsi,%rax
   139e1:	48 c1 e0 02          	shl    $0x2,%rax
   139e5:	48 01 f0             	add    %rsi,%rax
   139e8:	48 8d 34 85 00 00 00 	lea    0x0(,%rax,4),%rsi
   139ef:	00 
   139f0:	48 01 f0             	add    %rsi,%rax
   139f3:	48 c1 e0 05          	shl    $0x5,%rax
   139f7:	48 8d 34 02          	lea    (%rdx,%rax,1),%rsi
   139fb:	48 89 c8             	mov    %rcx,%rax
   139fe:	48 c1 e0 02          	shl    $0x2,%rax
   13a02:	48 01 c8             	add    %rcx,%rax
   13a05:	48 8d 14 85 00 00 00 	lea    0x0(,%rax,4),%rdx
   13a0c:	00 
   13a0d:	48 01 d0             	add    %rdx,%rax
   13a10:	48 c1 e0 04          	shl    $0x4,%rax
   13a14:	48 8d 14 06          	lea    (%rsi,%rax,1),%rdx
   13a18:	48 8d 05 b9 af 00 00 	lea    0xafb9(%rip),%rax        # 1e9d8 <g_1616+0x18>
   13a1f:	48 01 d0             	add    %rdx,%rax
   13a22:	8b 00                	mov    (%rax),%eax
   13a24:	89 c1                	mov    %eax,%ecx
   13a26:	8b 45 f4             	mov    -0xc(%rbp),%eax
   13a29:	89 c2                	mov    %eax,%edx
   13a2b:	48 8d 35 72 55 00 00 	lea    0x5572(%rip),%rsi        # 18fa4 <g_2382+0x1ea4>
   13a32:	48 89 cf             	mov    %rcx,%rdi
   13a35:	e8 b9 3c ff ff       	callq  76f3 <transparent_crc>
   13a3a:	8b 45 f0             	mov    -0x10(%rbp),%eax
   13a3d:	48 98                	cltq   
   13a3f:	8b 55 ec             	mov    -0x14(%rbp),%edx
   13a42:	48 63 ca             	movslq %edx,%rcx
   13a45:	8b 55 e8             	mov    -0x18(%rbp),%edx
   13a48:	48 63 f2             	movslq %edx,%rsi
   13a4b:	48 89 c2             	mov    %rax,%rdx
   13a4e:	48 c1 e2 02          	shl    $0x2,%rdx
   13a52:	48 01 c2             	add    %rax,%rdx
   13a55:	48 8d 04 d5 00 00 00 	lea    0x0(,%rdx,8),%rax
   13a5c:	00 
   13a5d:	48 89 c2             	mov    %rax,%rdx
   13a60:	48 89 f0             	mov    %rsi,%rax
   13a63:	48 c1 e0 02          	shl    $0x2,%rax
   13a67:	48 01 f0             	add    %rsi,%rax
   13a6a:	48 8d 34 85 00 00 00 	lea    0x0(,%rax,4),%rsi
   13a71:	00 
   13a72:	48 01 f0             	add    %rsi,%rax
   13a75:	48 c1 e0 05          	shl    $0x5,%rax
   13a79:	48 8d 34 02          	lea    (%rdx,%rax,1),%rsi
   13a7d:	48 89 c8             	mov    %rcx,%rax
   13a80:	48 c1 e0 02          	shl    $0x2,%rax
   13a84:	48 01 c8             	add    %rcx,%rax
   13a87:	48 8d 14 85 00 00 00 	lea    0x0(,%rax,4),%rdx
   13a8e:	00 
   13a8f:	48 01 d0             	add    %rdx,%rax
   13a92:	48 c1 e0 04          	shl    $0x4,%rax
   13a96:	48 8d 14 06          	lea    (%rsi,%rax,1),%rdx
   13a9a:	48 8d 05 3f af 00 00 	lea    0xaf3f(%rip),%rax        # 1e9e0 <g_1616+0x20>
   13aa1:	48 01 d0             	add    %rdx,%rax
   13aa4:	48 8b 00             	mov    (%rax),%rax
   13aa7:	8b 55 f4             	mov    -0xc(%rbp),%edx
   13aaa:	48 8d 35 06 55 00 00 	lea    0x5506(%rip),%rsi        # 18fb7 <g_2382+0x1eb7>
   13ab1:	48 89 c7             	mov    %rax,%rdi
   13ab4:	e8 3a 3c ff ff       	callq  76f3 <transparent_crc>
   13ab9:	83 7d f4 00          	cmpl   $0x0,-0xc(%rbp)
   13abd:	74 1c                	je     13adb <main+0x4963>
   13abf:	8b 4d f0             	mov    -0x10(%rbp),%ecx
   13ac2:	8b 55 ec             	mov    -0x14(%rbp),%edx
   13ac5:	8b 45 e8             	mov    -0x18(%rbp),%eax
   13ac8:	89 c6                	mov    %eax,%esi
   13aca:	48 8d 3d 3b 49 00 00 	lea    0x493b(%rip),%rdi        # 1840c <g_2382+0x130c>
   13ad1:	b8 00 00 00 00       	mov    $0x0,%eax
   13ad6:	e8 a5 25 ff ff       	callq  6080 <printf@plt>
   13adb:	83 45 f0 01          	addl   $0x1,-0x10(%rbp)
   13adf:	83 7d f0 09          	cmpl   $0x9,-0x10(%rbp)
   13ae3:	0f 8e b2 fa ff ff    	jle    1359b <main+0x4423>
   13ae9:	83 45 ec 01          	addl   $0x1,-0x14(%rbp)
   13aed:	83 7d ec 01          	cmpl   $0x1,-0x14(%rbp)
   13af1:	0f 8e 98 fa ff ff    	jle    1358f <main+0x4417>
   13af7:	83 45 e8 01          	addl   $0x1,-0x18(%rbp)
   13afb:	83 7d e8 05          	cmpl   $0x5,-0x18(%rbp)
   13aff:	0f 8e 7e fa ff ff    	jle    13583 <main+0x440b>
   13b05:	8b 05 75 c1 00 00    	mov    0xc175(%rip),%eax        # 1fc80 <g_1617>
   13b0b:	c1 e0 0d             	shl    $0xd,%eax
   13b0e:	c1 f8 0d             	sar    $0xd,%eax
   13b11:	48 98                	cltq   
   13b13:	8b 55 f4             	mov    -0xc(%rbp),%edx
   13b16:	48 8d 35 ad 54 00 00 	lea    0x54ad(%rip),%rsi        # 18fca <g_2382+0x1eca>
   13b1d:	48 89 c7             	mov    %rax,%rdi
   13b20:	e8 ce 3b ff ff       	callq  76f3 <transparent_crc>
   13b25:	48 8b 05 54 c1 00 00 	mov    0xc154(%rip),%rax        # 1fc80 <g_1617>
   13b2c:	48 c1 e0 11          	shl    $0x11,%rax
   13b30:	48 c1 f8 24          	sar    $0x24,%rax
   13b34:	48 98                	cltq   
   13b36:	8b 55 f4             	mov    -0xc(%rbp),%edx
   13b39:	48 8d 35 94 54 00 00 	lea    0x5494(%rip),%rsi        # 18fd4 <g_2382+0x1ed4>
   13b40:	48 89 c7             	mov    %rax,%rdi
   13b43:	e8 ab 3b ff ff       	callq  76f3 <transparent_crc>
   13b48:	48 8b 05 37 c1 00 00 	mov    0xc137(%rip),%rax        # 1fc86 <g_1617+0x6>
   13b4f:	48 89 c1             	mov    %rax,%rcx
   13b52:	8b 45 f4             	mov    -0xc(%rbp),%eax
   13b55:	89 c2                	mov    %eax,%edx
   13b57:	48 8d 35 80 54 00 00 	lea    0x5480(%rip),%rsi        # 18fde <g_2382+0x1ede>
   13b5e:	48 89 cf             	mov    %rcx,%rdi
   13b61:	e8 8d 3b ff ff       	callq  76f3 <transparent_crc>
   13b66:	48 8b 05 1b c1 00 00 	mov    0xc11b(%rip),%rax        # 1fc88 <g_1617+0x8>
   13b6d:	48 c1 e8 30          	shr    $0x30,%rax
   13b71:	48 89 c2             	mov    %rax,%rdx
   13b74:	48 8b 05 15 c1 00 00 	mov    0xc115(%rip),%rax        # 1fc90 <g_1617+0x10>
   13b7b:	83 e0 3f             	and    $0x3f,%eax
   13b7e:	48 c1 e0 10          	shl    $0x10,%rax
   13b82:	48 09 d0             	or     %rdx,%rax
   13b85:	48 c1 e0 2a          	shl    $0x2a,%rax
   13b89:	48 c1 f8 2a          	sar    $0x2a,%rax
   13b8d:	48 98                	cltq   
   13b8f:	8b 55 f4             	mov    -0xc(%rbp),%edx
   13b92:	48 8d 35 4f 54 00 00 	lea    0x544f(%rip),%rsi        # 18fe8 <g_2382+0x1ee8>
   13b99:	48 89 c7             	mov    %rax,%rdi
   13b9c:	e8 52 3b ff ff       	callq  76f3 <transparent_crc>
   13ba1:	0f b7 05 e8 c0 00 00 	movzwl 0xc0e8(%rip),%eax        # 1fc90 <g_1617+0x10>
   13ba8:	66 c1 e8 06          	shr    $0x6,%ax
   13bac:	83 e0 07             	and    $0x7,%eax
   13baf:	0f b6 c0             	movzbl %al,%eax
   13bb2:	8b 55 f4             	mov    -0xc(%rbp),%edx
   13bb5:	48 8d 35 36 54 00 00 	lea    0x5436(%rip),%rsi        # 18ff2 <g_2382+0x1ef2>
   13bbc:	48 89 c7             	mov    %rax,%rdi
   13bbf:	e8 2f 3b ff ff       	callq  76f3 <transparent_crc>
   13bc4:	48 8b 05 c5 c0 00 00 	mov    0xc0c5(%rip),%rax        # 1fc90 <g_1617+0x10>
   13bcb:	48 c1 e8 09          	shr    $0x9,%rax
   13bcf:	83 e0 07             	and    $0x7,%eax
   13bd2:	0f b6 c0             	movzbl %al,%eax
   13bd5:	8b 55 f4             	mov    -0xc(%rbp),%edx
   13bd8:	48 8d 35 1d 54 00 00 	lea    0x541d(%rip),%rsi        # 18ffc <g_2382+0x1efc>
   13bdf:	48 89 c7             	mov    %rax,%rdi
   13be2:	e8 0c 3b ff ff       	callq  76f3 <transparent_crc>
   13be7:	c7 45 e8 00 00 00 00 	movl   $0x0,-0x18(%rbp)
   13bee:	e9 22 03 00 00       	jmpq   13f15 <main+0x4d9d>
   13bf3:	c7 45 ec 00 00 00 00 	movl   $0x0,-0x14(%rbp)
   13bfa:	e9 08 03 00 00       	jmpq   13f07 <main+0x4d8f>
   13bff:	c7 45 f0 00 00 00 00 	movl   $0x0,-0x10(%rbp)
   13c06:	e9 ee 02 00 00       	jmpq   13ef9 <main+0x4d81>
   13c0b:	8b 45 f0             	mov    -0x10(%rbp),%eax
   13c0e:	48 98                	cltq   
   13c10:	8b 55 ec             	mov    -0x14(%rbp),%edx
   13c13:	48 63 f2             	movslq %edx,%rsi
   13c16:	8b 55 e8             	mov    -0x18(%rbp),%edx
   13c19:	48 63 ca             	movslq %edx,%rcx
   13c1c:	48 89 c2             	mov    %rax,%rdx
   13c1f:	48 c1 e2 03          	shl    $0x3,%rdx
   13c23:	48 01 c2             	add    %rax,%rdx
   13c26:	48 8d 04 12          	lea    (%rdx,%rdx,1),%rax
   13c2a:	48 89 c2             	mov    %rax,%rdx
   13c2d:	48 89 f0             	mov    %rsi,%rax
   13c30:	48 c1 e0 03          	shl    $0x3,%rax
   13c34:	48 01 f0             	add    %rsi,%rax
   13c37:	48 c1 e0 03          	shl    $0x3,%rax
   13c3b:	48 01 c2             	add    %rax,%rdx
   13c3e:	48 89 c8             	mov    %rcx,%rax
   13c41:	48 c1 e0 03          	shl    $0x3,%rax
   13c45:	48 01 c8             	add    %rcx,%rax
   13c48:	48 c1 e0 06          	shl    $0x6,%rax
   13c4c:	48 01 c2             	add    %rax,%rdx
   13c4f:	48 8d 05 4a c0 00 00 	lea    0xc04a(%rip),%rax        # 1fca0 <g_1618>
   13c56:	48 01 d0             	add    %rdx,%rax
   13c59:	0f b7 10             	movzwl (%rax),%edx
   13c5c:	0f b6 40 02          	movzbl 0x2(%rax),%eax
   13c60:	83 e0 07             	and    $0x7,%eax
   13c63:	48 c1 e0 10          	shl    $0x10,%rax
   13c67:	48 09 d0             	or     %rdx,%rax
   13c6a:	48 c1 e0 2d          	shl    $0x2d,%rax
   13c6e:	48 c1 f8 2d          	sar    $0x2d,%rax
   13c72:	48 98                	cltq   
   13c74:	8b 55 f4             	mov    -0xc(%rbp),%edx
   13c77:	48 8d 35 88 53 00 00 	lea    0x5388(%rip),%rsi        # 19006 <g_2382+0x1f06>
   13c7e:	48 89 c7             	mov    %rax,%rdi
   13c81:	e8 6d 3a ff ff       	callq  76f3 <transparent_crc>
   13c86:	8b 45 f0             	mov    -0x10(%rbp),%eax
   13c89:	48 98                	cltq   
   13c8b:	8b 55 ec             	mov    -0x14(%rbp),%edx
   13c8e:	48 63 f2             	movslq %edx,%rsi
   13c91:	8b 55 e8             	mov    -0x18(%rbp),%edx
   13c94:	48 63 ca             	movslq %edx,%rcx
   13c97:	48 89 c2             	mov    %rax,%rdx
   13c9a:	48 c1 e2 03          	shl    $0x3,%rdx
   13c9e:	48 01 c2             	add    %rax,%rdx
   13ca1:	48 8d 04 12          	lea    (%rdx,%rdx,1),%rax
   13ca5:	48 89 c2             	mov    %rax,%rdx
   13ca8:	48 89 f0             	mov    %rsi,%rax
   13cab:	48 c1 e0 03          	shl    $0x3,%rax
   13caf:	48 01 f0             	add    %rsi,%rax
   13cb2:	48 c1 e0 03          	shl    $0x3,%rax
   13cb6:	48 01 c2             	add    %rax,%rdx
   13cb9:	48 89 c8             	mov    %rcx,%rax
   13cbc:	48 c1 e0 03          	shl    $0x3,%rax
   13cc0:	48 01 c8             	add    %rcx,%rax
   13cc3:	48 c1 e0 06          	shl    $0x6,%rax
   13cc7:	48 01 c2             	add    %rax,%rdx
   13cca:	48 8d 05 cf bf 00 00 	lea    0xbfcf(%rip),%rax        # 1fca0 <g_1618>
   13cd1:	48 01 d0             	add    %rdx,%rax
   13cd4:	0f b7 50 02          	movzwl 0x2(%rax),%edx
   13cd8:	66 c1 ea 03          	shr    $0x3,%dx
   13cdc:	0f b7 d2             	movzwl %dx,%edx
   13cdf:	0f b7 40 04          	movzwl 0x4(%rax),%eax
   13ce3:	0f b7 c0             	movzwl %ax,%eax
   13ce6:	25 ff 7f 00 00       	and    $0x7fff,%eax
   13ceb:	48 c1 e0 0d          	shl    $0xd,%rax
   13cef:	48 09 d0             	or     %rdx,%rax
   13cf2:	48 c1 e0 24          	shl    $0x24,%rax
   13cf6:	48 c1 f8 24          	sar    $0x24,%rax
   13cfa:	48 98                	cltq   
   13cfc:	8b 55 f4             	mov    -0xc(%rbp),%edx
   13cff:	48 8d 35 13 53 00 00 	lea    0x5313(%rip),%rsi        # 19019 <g_2382+0x1f19>
   13d06:	48 89 c7             	mov    %rax,%rdi
   13d09:	e8 e5 39 ff ff       	callq  76f3 <transparent_crc>
   13d0e:	8b 45 f0             	mov    -0x10(%rbp),%eax
   13d11:	48 98                	cltq   
   13d13:	8b 55 ec             	mov    -0x14(%rbp),%edx
   13d16:	48 63 f2             	movslq %edx,%rsi
   13d19:	8b 55 e8             	mov    -0x18(%rbp),%edx
   13d1c:	48 63 ca             	movslq %edx,%rcx
   13d1f:	48 89 c2             	mov    %rax,%rdx
   13d22:	48 c1 e2 03          	shl    $0x3,%rdx
   13d26:	48 01 c2             	add    %rax,%rdx
   13d29:	48 8d 04 12          	lea    (%rdx,%rdx,1),%rax
   13d2d:	48 89 c2             	mov    %rax,%rdx
   13d30:	48 89 f0             	mov    %rsi,%rax
   13d33:	48 c1 e0 03          	shl    $0x3,%rax
   13d37:	48 01 f0             	add    %rsi,%rax
   13d3a:	48 c1 e0 03          	shl    $0x3,%rax
   13d3e:	48 01 c2             	add    %rax,%rdx
   13d41:	48 89 c8             	mov    %rcx,%rax
   13d44:	48 c1 e0 03          	shl    $0x3,%rax
   13d48:	48 01 c8             	add    %rcx,%rax
   13d4b:	48 c1 e0 06          	shl    $0x6,%rax
   13d4f:	48 01 c2             	add    %rax,%rdx
   13d52:	48 8d 05 47 bf 00 00 	lea    0xbf47(%rip),%rax        # 1fca0 <g_1618>
   13d59:	48 01 d0             	add    %rdx,%rax
   13d5c:	48 8b 40 06          	mov    0x6(%rax),%rax
   13d60:	48 89 c1             	mov    %rax,%rcx
   13d63:	8b 45 f4             	mov    -0xc(%rbp),%eax
   13d66:	89 c2                	mov    %eax,%edx
   13d68:	48 8d 35 bd 52 00 00 	lea    0x52bd(%rip),%rsi        # 1902c <g_2382+0x1f2c>
   13d6f:	48 89 cf             	mov    %rcx,%rdi
   13d72:	e8 7c 39 ff ff       	callq  76f3 <transparent_crc>
   13d77:	8b 45 f0             	mov    -0x10(%rbp),%eax
   13d7a:	48 98                	cltq   
   13d7c:	8b 55 ec             	mov    -0x14(%rbp),%edx
   13d7f:	48 63 f2             	movslq %edx,%rsi
   13d82:	8b 55 e8             	mov    -0x18(%rbp),%edx
   13d85:	48 63 ca             	movslq %edx,%rcx
   13d88:	48 89 c2             	mov    %rax,%rdx
   13d8b:	48 c1 e2 03          	shl    $0x3,%rdx
   13d8f:	48 01 c2             	add    %rax,%rdx
   13d92:	48 8d 04 12          	lea    (%rdx,%rdx,1),%rax
   13d96:	48 89 c2             	mov    %rax,%rdx
   13d99:	48 89 f0             	mov    %rsi,%rax
   13d9c:	48 c1 e0 03          	shl    $0x3,%rax
   13da0:	48 01 f0             	add    %rsi,%rax
   13da3:	48 c1 e0 03          	shl    $0x3,%rax
   13da7:	48 01 c2             	add    %rax,%rdx
   13daa:	48 89 c8             	mov    %rcx,%rax
   13dad:	48 c1 e0 03          	shl    $0x3,%rax
   13db1:	48 01 c8             	add    %rcx,%rax
   13db4:	48 c1 e0 06          	shl    $0x6,%rax
   13db8:	48 01 c2             	add    %rax,%rdx
   13dbb:	48 8d 05 de be 00 00 	lea    0xbede(%rip),%rax        # 1fca0 <g_1618>
   13dc2:	48 01 d0             	add    %rdx,%rax
   13dc5:	0f b7 50 0e          	movzwl 0xe(%rax),%edx
   13dc9:	0f b7 d2             	movzwl %dx,%edx
   13dcc:	0f b7 40 10          	movzwl 0x10(%rax),%eax
   13dd0:	0f b7 c0             	movzwl %ax,%eax
   13dd3:	83 e0 3f             	and    $0x3f,%eax
   13dd6:	48 c1 e0 10          	shl    $0x10,%rax
   13dda:	48 09 d0             	or     %rdx,%rax
   13ddd:	48 c1 e0 2a          	shl    $0x2a,%rax
   13de1:	48 c1 f8 2a          	sar    $0x2a,%rax
   13de5:	48 98                	cltq   
   13de7:	8b 55 f4             	mov    -0xc(%rbp),%edx
   13dea:	48 8d 35 4e 52 00 00 	lea    0x524e(%rip),%rsi        # 1903f <g_2382+0x1f3f>
   13df1:	48 89 c7             	mov    %rax,%rdi
   13df4:	e8 fa 38 ff ff       	callq  76f3 <transparent_crc>
   13df9:	8b 45 f0             	mov    -0x10(%rbp),%eax
   13dfc:	48 98                	cltq   
   13dfe:	8b 55 ec             	mov    -0x14(%rbp),%edx
   13e01:	48 63 ca             	movslq %edx,%rcx
   13e04:	8b 55 e8             	mov    -0x18(%rbp),%edx
   13e07:	48 63 f2             	movslq %edx,%rsi
   13e0a:	48 89 c2             	mov    %rax,%rdx
   13e0d:	48 c1 e2 03          	shl    $0x3,%rdx
   13e11:	48 01 c2             	add    %rax,%rdx
   13e14:	48 8d 04 12          	lea    (%rdx,%rdx,1),%rax
   13e18:	48 89 c2             	mov    %rax,%rdx
   13e1b:	48 89 f0             	mov    %rsi,%rax
   13e1e:	48 c1 e0 03          	shl    $0x3,%rax
   13e22:	48 01 f0             	add    %rsi,%rax
   13e25:	48 c1 e0 06          	shl    $0x6,%rax
   13e29:	48 01 c2             	add    %rax,%rdx
   13e2c:	48 89 c8             	mov    %rcx,%rax
   13e2f:	48 c1 e0 03          	shl    $0x3,%rax
   13e33:	48 01 c8             	add    %rcx,%rax
   13e36:	48 c1 e0 03          	shl    $0x3,%rax
   13e3a:	48 01 c2             	add    %rax,%rdx
   13e3d:	48 8d 05 6c be 00 00 	lea    0xbe6c(%rip),%rax        # 1fcb0 <g_1618+0x10>
   13e44:	48 01 d0             	add    %rdx,%rax
   13e47:	0f b7 00             	movzwl (%rax),%eax
   13e4a:	66 c1 e8 06          	shr    $0x6,%ax
   13e4e:	83 e0 07             	and    $0x7,%eax
   13e51:	0f b6 c0             	movzbl %al,%eax
   13e54:	8b 55 f4             	mov    -0xc(%rbp),%edx
   13e57:	48 8d 35 f4 51 00 00 	lea    0x51f4(%rip),%rsi        # 19052 <g_2382+0x1f52>
   13e5e:	48 89 c7             	mov    %rax,%rdi
   13e61:	e8 8d 38 ff ff       	callq  76f3 <transparent_crc>
   13e66:	8b 45 f0             	mov    -0x10(%rbp),%eax
   13e69:	48 98                	cltq   
   13e6b:	8b 55 ec             	mov    -0x14(%rbp),%edx
   13e6e:	48 63 ca             	movslq %edx,%rcx
   13e71:	8b 55 e8             	mov    -0x18(%rbp),%edx
   13e74:	48 63 f2             	movslq %edx,%rsi
   13e77:	48 89 c2             	mov    %rax,%rdx
   13e7a:	48 c1 e2 03          	shl    $0x3,%rdx
   13e7e:	48 01 c2             	add    %rax,%rdx
   13e81:	48 8d 04 12          	lea    (%rdx,%rdx,1),%rax
   13e85:	48 89 c2             	mov    %rax,%rdx
   13e88:	48 89 f0             	mov    %rsi,%rax
   13e8b:	48 c1 e0 03          	shl    $0x3,%rax
   13e8f:	48 01 f0             	add    %rsi,%rax
   13e92:	48 c1 e0 06          	shl    $0x6,%rax
   13e96:	48 01 c2             	add    %rax,%rdx
   13e99:	48 89 c8             	mov    %rcx,%rax
   13e9c:	48 c1 e0 03          	shl    $0x3,%rax
   13ea0:	48 01 c8             	add    %rcx,%rax
   13ea3:	48 c1 e0 03          	shl    $0x3,%rax
   13ea7:	48 01 c2             	add    %rax,%rdx
   13eaa:	48 8d 05 ff bd 00 00 	lea    0xbdff(%rip),%rax        # 1fcb0 <g_1618+0x10>
   13eb1:	48 01 d0             	add    %rdx,%rax
   13eb4:	0f b7 00             	movzwl (%rax),%eax
   13eb7:	66 c1 e8 09          	shr    $0x9,%ax
   13ebb:	83 e0 07             	and    $0x7,%eax
   13ebe:	0f b6 c0             	movzbl %al,%eax
   13ec1:	8b 55 f4             	mov    -0xc(%rbp),%edx
   13ec4:	48 8d 35 9a 51 00 00 	lea    0x519a(%rip),%rsi        # 19065 <g_2382+0x1f65>
   13ecb:	48 89 c7             	mov    %rax,%rdi
   13ece:	e8 20 38 ff ff       	callq  76f3 <transparent_crc>
   13ed3:	83 7d f4 00          	cmpl   $0x0,-0xc(%rbp)
   13ed7:	74 1c                	je     13ef5 <main+0x4d7d>
   13ed9:	8b 4d f0             	mov    -0x10(%rbp),%ecx
   13edc:	8b 55 ec             	mov    -0x14(%rbp),%edx
   13edf:	8b 45 e8             	mov    -0x18(%rbp),%eax
   13ee2:	89 c6                	mov    %eax,%esi
   13ee4:	48 8d 3d 21 45 00 00 	lea    0x4521(%rip),%rdi        # 1840c <g_2382+0x130c>
   13eeb:	b8 00 00 00 00       	mov    $0x0,%eax
   13ef0:	e8 8b 21 ff ff       	callq  6080 <printf@plt>
   13ef5:	83 45 f0 01          	addl   $0x1,-0x10(%rbp)
   13ef9:	83 7d f0 03          	cmpl   $0x3,-0x10(%rbp)
   13efd:	0f 8e 08 fd ff ff    	jle    13c0b <main+0x4a93>
   13f03:	83 45 ec 01          	addl   $0x1,-0x14(%rbp)
   13f07:	83 7d ec 07          	cmpl   $0x7,-0x14(%rbp)
   13f0b:	0f 8e ee fc ff ff    	jle    13bff <main+0x4a87>
   13f11:	83 45 e8 01          	addl   $0x1,-0x18(%rbp)
   13f15:	83 7d e8 00          	cmpl   $0x0,-0x18(%rbp)
   13f19:	0f 8e d4 fc ff ff    	jle    13bf3 <main+0x4a7b>
   13f1f:	8b 05 eb 07 01 00    	mov    0x107eb(%rip),%eax        # 24710 <g_1656>
   13f25:	89 c1                	mov    %eax,%ecx
   13f27:	8b 45 f4             	mov    -0xc(%rbp),%eax
   13f2a:	89 c2                	mov    %eax,%edx
   13f2c:	48 8d 35 45 51 00 00 	lea    0x5145(%rip),%rsi        # 19078 <g_2382+0x1f78>
   13f33:	48 89 cf             	mov    %rcx,%rdi
   13f36:	e8 b8 37 ff ff       	callq  76f3 <transparent_crc>
   13f3b:	8b 05 9f bf 00 00    	mov    0xbf9f(%rip),%eax        # 1fee0 <g_1663>
   13f41:	c1 e0 0d             	shl    $0xd,%eax
   13f44:	c1 f8 0d             	sar    $0xd,%eax
   13f47:	48 98                	cltq   
   13f49:	8b 55 f4             	mov    -0xc(%rbp),%edx
   13f4c:	48 8d 35 2c 51 00 00 	lea    0x512c(%rip),%rsi        # 1907f <g_2382+0x1f7f>
   13f53:	48 89 c7             	mov    %rax,%rdi
   13f56:	e8 98 37 ff ff       	callq  76f3 <transparent_crc>
   13f5b:	48 8b 05 7e bf 00 00 	mov    0xbf7e(%rip),%rax        # 1fee0 <g_1663>
   13f62:	48 c1 e0 11          	shl    $0x11,%rax
   13f66:	48 c1 f8 24          	sar    $0x24,%rax
   13f6a:	48 98                	cltq   
   13f6c:	8b 55 f4             	mov    -0xc(%rbp),%edx
   13f6f:	48 8d 35 13 51 00 00 	lea    0x5113(%rip),%rsi        # 19089 <g_2382+0x1f89>
   13f76:	48 89 c7             	mov    %rax,%rdi
   13f79:	e8 75 37 ff ff       	callq  76f3 <transparent_crc>
   13f7e:	48 8b 05 61 bf 00 00 	mov    0xbf61(%rip),%rax        # 1fee6 <g_1663+0x6>
   13f85:	48 89 c1             	mov    %rax,%rcx
   13f88:	8b 45 f4             	mov    -0xc(%rbp),%eax
   13f8b:	89 c2                	mov    %eax,%edx
   13f8d:	48 8d 35 ff 50 00 00 	lea    0x50ff(%rip),%rsi        # 19093 <g_2382+0x1f93>
   13f94:	48 89 cf             	mov    %rcx,%rdi
   13f97:	e8 57 37 ff ff       	callq  76f3 <transparent_crc>
   13f9c:	48 8b 05 45 bf 00 00 	mov    0xbf45(%rip),%rax        # 1fee8 <g_1663+0x8>
   13fa3:	48 c1 e8 30          	shr    $0x30,%rax
   13fa7:	48 89 c2             	mov    %rax,%rdx
   13faa:	48 8b 05 3f bf 00 00 	mov    0xbf3f(%rip),%rax        # 1fef0 <g_1663+0x10>
   13fb1:	83 e0 3f             	and    $0x3f,%eax
   13fb4:	48 c1 e0 10          	shl    $0x10,%rax
   13fb8:	48 09 d0             	or     %rdx,%rax
   13fbb:	48 c1 e0 2a          	shl    $0x2a,%rax
   13fbf:	48 c1 f8 2a          	sar    $0x2a,%rax
   13fc3:	48 98                	cltq   
   13fc5:	8b 55 f4             	mov    -0xc(%rbp),%edx
   13fc8:	48 8d 35 ce 50 00 00 	lea    0x50ce(%rip),%rsi        # 1909d <g_2382+0x1f9d>
   13fcf:	48 89 c7             	mov    %rax,%rdi
   13fd2:	e8 1c 37 ff ff       	callq  76f3 <transparent_crc>
   13fd7:	0f b7 05 12 bf 00 00 	movzwl 0xbf12(%rip),%eax        # 1fef0 <g_1663+0x10>
   13fde:	66 c1 e8 06          	shr    $0x6,%ax
   13fe2:	83 e0 07             	and    $0x7,%eax
   13fe5:	0f b6 c0             	movzbl %al,%eax
   13fe8:	8b 55 f4             	mov    -0xc(%rbp),%edx
   13feb:	48 8d 35 b5 50 00 00 	lea    0x50b5(%rip),%rsi        # 190a7 <g_2382+0x1fa7>
   13ff2:	48 89 c7             	mov    %rax,%rdi
   13ff5:	e8 f9 36 ff ff       	callq  76f3 <transparent_crc>
   13ffa:	48 8b 05 ef be 00 00 	mov    0xbeef(%rip),%rax        # 1fef0 <g_1663+0x10>
   14001:	48 c1 e8 09          	shr    $0x9,%rax
   14005:	83 e0 07             	and    $0x7,%eax
   14008:	0f b6 c0             	movzbl %al,%eax
   1400b:	8b 55 f4             	mov    -0xc(%rbp),%edx
   1400e:	48 8d 35 9c 50 00 00 	lea    0x509c(%rip),%rsi        # 190b1 <g_2382+0x1fb1>
   14015:	48 89 c7             	mov    %rax,%rdi
   14018:	e8 d6 36 ff ff       	callq  76f3 <transparent_crc>
   1401d:	c7 45 e8 00 00 00 00 	movl   $0x0,-0x18(%rbp)
   14024:	e9 3f 02 00 00       	jmpq   14268 <main+0x50f0>
   14029:	c7 45 ec 00 00 00 00 	movl   $0x0,-0x14(%rbp)
   14030:	e9 25 02 00 00       	jmpq   1425a <main+0x50e2>
   14035:	8b 45 ec             	mov    -0x14(%rbp),%eax
   14038:	48 63 d0             	movslq %eax,%rdx
   1403b:	8b 45 e8             	mov    -0x18(%rbp),%eax
   1403e:	48 63 c8             	movslq %eax,%rcx
   14041:	48 89 d0             	mov    %rdx,%rax
   14044:	48 c1 e0 03          	shl    $0x3,%rax
   14048:	48 01 d0             	add    %rdx,%rax
   1404b:	48 01 c0             	add    %rax,%rax
   1404e:	48 69 d1 b4 00 00 00 	imul   $0xb4,%rcx,%rdx
   14055:	48 01 c2             	add    %rax,%rdx
   14058:	48 8d 05 a1 be 00 00 	lea    0xbea1(%rip),%rax        # 1ff00 <g_1664>
   1405f:	48 01 d0             	add    %rdx,%rax
   14062:	0f b7 10             	movzwl (%rax),%edx
   14065:	0f b6 40 02          	movzbl 0x2(%rax),%eax
   14069:	83 e0 07             	and    $0x7,%eax
   1406c:	48 c1 e0 10          	shl    $0x10,%rax
   14070:	48 09 d0             	or     %rdx,%rax
   14073:	48 c1 e0 2d          	shl    $0x2d,%rax
   14077:	48 c1 f8 2d          	sar    $0x2d,%rax
   1407b:	48 98                	cltq   
   1407d:	8b 55 f4             	mov    -0xc(%rbp),%edx
   14080:	48 8d 35 34 50 00 00 	lea    0x5034(%rip),%rsi        # 190bb <g_2382+0x1fbb>
   14087:	48 89 c7             	mov    %rax,%rdi
   1408a:	e8 64 36 ff ff       	callq  76f3 <transparent_crc>
   1408f:	8b 45 ec             	mov    -0x14(%rbp),%eax
   14092:	48 63 d0             	movslq %eax,%rdx
   14095:	8b 45 e8             	mov    -0x18(%rbp),%eax
   14098:	48 63 c8             	movslq %eax,%rcx
   1409b:	48 89 d0             	mov    %rdx,%rax
   1409e:	48 c1 e0 03          	shl    $0x3,%rax
   140a2:	48 01 d0             	add    %rdx,%rax
   140a5:	48 01 c0             	add    %rax,%rax
   140a8:	48 69 d1 b4 00 00 00 	imul   $0xb4,%rcx,%rdx
   140af:	48 01 c2             	add    %rax,%rdx
   140b2:	48 8d 05 47 be 00 00 	lea    0xbe47(%rip),%rax        # 1ff00 <g_1664>
   140b9:	48 01 d0             	add    %rdx,%rax
   140bc:	0f b7 50 02          	movzwl 0x2(%rax),%edx
   140c0:	66 c1 ea 03          	shr    $0x3,%dx
   140c4:	0f b7 d2             	movzwl %dx,%edx
   140c7:	0f b7 40 04          	movzwl 0x4(%rax),%eax
   140cb:	0f b7 c0             	movzwl %ax,%eax
   140ce:	25 ff 7f 00 00       	and    $0x7fff,%eax
   140d3:	48 c1 e0 0d          	shl    $0xd,%rax
   140d7:	48 09 d0             	or     %rdx,%rax
   140da:	48 c1 e0 24          	shl    $0x24,%rax
   140de:	48 c1 f8 24          	sar    $0x24,%rax
   140e2:	48 98                	cltq   
   140e4:	8b 55 f4             	mov    -0xc(%rbp),%edx
   140e7:	48 8d 35 dd 4f 00 00 	lea    0x4fdd(%rip),%rsi        # 190cb <g_2382+0x1fcb>
   140ee:	48 89 c7             	mov    %rax,%rdi
   140f1:	e8 fd 35 ff ff       	callq  76f3 <transparent_crc>
   140f6:	8b 45 ec             	mov    -0x14(%rbp),%eax
   140f9:	48 63 d0             	movslq %eax,%rdx
   140fc:	8b 45 e8             	mov    -0x18(%rbp),%eax
   140ff:	48 63 c8             	movslq %eax,%rcx
   14102:	48 89 d0             	mov    %rdx,%rax
   14105:	48 c1 e0 03          	shl    $0x3,%rax
   14109:	48 01 d0             	add    %rdx,%rax
   1410c:	48 01 c0             	add    %rax,%rax
   1410f:	48 69 d1 b4 00 00 00 	imul   $0xb4,%rcx,%rdx
   14116:	48 01 c2             	add    %rax,%rdx
   14119:	48 8d 05 e0 bd 00 00 	lea    0xbde0(%rip),%rax        # 1ff00 <g_1664>
   14120:	48 01 d0             	add    %rdx,%rax
   14123:	48 8b 40 06          	mov    0x6(%rax),%rax
   14127:	48 89 c1             	mov    %rax,%rcx
   1412a:	8b 45 f4             	mov    -0xc(%rbp),%eax
   1412d:	89 c2                	mov    %eax,%edx
   1412f:	48 8d 35 a5 4f 00 00 	lea    0x4fa5(%rip),%rsi        # 190db <g_2382+0x1fdb>
   14136:	48 89 cf             	mov    %rcx,%rdi
   14139:	e8 b5 35 ff ff       	callq  76f3 <transparent_crc>
   1413e:	8b 45 ec             	mov    -0x14(%rbp),%eax
   14141:	48 63 d0             	movslq %eax,%rdx
   14144:	8b 45 e8             	mov    -0x18(%rbp),%eax
   14147:	48 63 c8             	movslq %eax,%rcx
   1414a:	48 89 d0             	mov    %rdx,%rax
   1414d:	48 c1 e0 03          	shl    $0x3,%rax
   14151:	48 01 d0             	add    %rdx,%rax
   14154:	48 01 c0             	add    %rax,%rax
   14157:	48 69 d1 b4 00 00 00 	imul   $0xb4,%rcx,%rdx
   1415e:	48 01 c2             	add    %rax,%rdx
   14161:	48 8d 05 98 bd 00 00 	lea    0xbd98(%rip),%rax        # 1ff00 <g_1664>
   14168:	48 01 d0             	add    %rdx,%rax
   1416b:	0f b7 50 0e          	movzwl 0xe(%rax),%edx
   1416f:	0f b7 d2             	movzwl %dx,%edx
   14172:	0f b7 40 10          	movzwl 0x10(%rax),%eax
   14176:	0f b7 c0             	movzwl %ax,%eax
   14179:	83 e0 3f             	and    $0x3f,%eax
   1417c:	48 c1 e0 10          	shl    $0x10,%rax
   14180:	48 09 d0             	or     %rdx,%rax
   14183:	48 c1 e0 2a          	shl    $0x2a,%rax
   14187:	48 c1 f8 2a          	sar    $0x2a,%rax
   1418b:	48 98                	cltq   
   1418d:	8b 55 f4             	mov    -0xc(%rbp),%edx
   14190:	48 8d 35 54 4f 00 00 	lea    0x4f54(%rip),%rsi        # 190eb <g_2382+0x1feb>
   14197:	48 89 c7             	mov    %rax,%rdi
   1419a:	e8 54 35 ff ff       	callq  76f3 <transparent_crc>
   1419f:	8b 45 ec             	mov    -0x14(%rbp),%eax
   141a2:	48 63 d0             	movslq %eax,%rdx
   141a5:	8b 45 e8             	mov    -0x18(%rbp),%eax
   141a8:	48 63 c8             	movslq %eax,%rcx
   141ab:	48 89 d0             	mov    %rdx,%rax
   141ae:	48 c1 e0 03          	shl    $0x3,%rax
   141b2:	48 01 d0             	add    %rdx,%rax
   141b5:	48 01 c0             	add    %rax,%rax
   141b8:	48 69 d1 b4 00 00 00 	imul   $0xb4,%rcx,%rdx
   141bf:	48 01 c2             	add    %rax,%rdx
   141c2:	48 8d 05 47 bd 00 00 	lea    0xbd47(%rip),%rax        # 1ff10 <g_1664+0x10>
   141c9:	48 01 d0             	add    %rdx,%rax
   141cc:	0f b7 00             	movzwl (%rax),%eax
   141cf:	66 c1 e8 06          	shr    $0x6,%ax
   141d3:	83 e0 07             	and    $0x7,%eax
   141d6:	0f b6 c0             	movzbl %al,%eax
   141d9:	8b 55 f4             	mov    -0xc(%rbp),%edx
   141dc:	48 8d 35 18 4f 00 00 	lea    0x4f18(%rip),%rsi        # 190fb <g_2382+0x1ffb>
   141e3:	48 89 c7             	mov    %rax,%rdi
   141e6:	e8 08 35 ff ff       	callq  76f3 <transparent_crc>
   141eb:	8b 45 ec             	mov    -0x14(%rbp),%eax
   141ee:	48 63 d0             	movslq %eax,%rdx
   141f1:	8b 45 e8             	mov    -0x18(%rbp),%eax
   141f4:	48 63 c8             	movslq %eax,%rcx
   141f7:	48 89 d0             	mov    %rdx,%rax
   141fa:	48 c1 e0 03          	shl    $0x3,%rax
   141fe:	48 01 d0             	add    %rdx,%rax
   14201:	48 01 c0             	add    %rax,%rax
   14204:	48 69 d1 b4 00 00 00 	imul   $0xb4,%rcx,%rdx
   1420b:	48 01 c2             	add    %rax,%rdx
   1420e:	48 8d 05 fb bc 00 00 	lea    0xbcfb(%rip),%rax        # 1ff10 <g_1664+0x10>
   14215:	48 01 d0             	add    %rdx,%rax
   14218:	0f b7 00             	movzwl (%rax),%eax
   1421b:	66 c1 e8 09          	shr    $0x9,%ax
   1421f:	83 e0 07             	and    $0x7,%eax
   14222:	0f b6 c0             	movzbl %al,%eax
   14225:	8b 55 f4             	mov    -0xc(%rbp),%edx
   14228:	48 8d 35 dc 4e 00 00 	lea    0x4edc(%rip),%rsi        # 1910b <g_2382+0x200b>
   1422f:	48 89 c7             	mov    %rax,%rdi
   14232:	e8 bc 34 ff ff       	callq  76f3 <transparent_crc>
   14237:	83 7d f4 00          	cmpl   $0x0,-0xc(%rbp)
   1423b:	74 19                	je     14256 <main+0x50de>
   1423d:	8b 55 ec             	mov    -0x14(%rbp),%edx
   14240:	8b 45 e8             	mov    -0x18(%rbp),%eax
   14243:	89 c6                	mov    %eax,%esi
   14245:	48 8d 3d 10 3e 00 00 	lea    0x3e10(%rip),%rdi        # 1805c <g_2382+0xf5c>
   1424c:	b8 00 00 00 00       	mov    $0x0,%eax
   14251:	e8 2a 1e ff ff       	callq  6080 <printf@plt>
   14256:	83 45 ec 01          	addl   $0x1,-0x14(%rbp)
   1425a:	83 7d ec 09          	cmpl   $0x9,-0x14(%rbp)
   1425e:	0f 8e d1 fd ff ff    	jle    14035 <main+0x4ebd>
   14264:	83 45 e8 01          	addl   $0x1,-0x18(%rbp)
   14268:	83 7d e8 05          	cmpl   $0x5,-0x18(%rbp)
   1426c:	0f 8e b7 fd ff ff    	jle    14029 <main+0x4eb1>
   14272:	48 8b 05 bf c0 00 00 	mov    0xc0bf(%rip),%rax        # 20338 <g_1668>
   14279:	48 89 c1             	mov    %rax,%rcx
   1427c:	8b 45 f4             	mov    -0xc(%rbp),%eax
   1427f:	89 c2                	mov    %eax,%edx
   14281:	48 8d 35 93 4e 00 00 	lea    0x4e93(%rip),%rsi        # 1911b <g_2382+0x201b>
   14288:	48 89 cf             	mov    %rcx,%rdi
   1428b:	e8 63 34 ff ff       	callq  76f3 <transparent_crc>
   14290:	48 8b 05 a9 c0 00 00 	mov    0xc0a9(%rip),%rax        # 20340 <g_1687>
   14297:	8b 55 f4             	mov    -0xc(%rbp),%edx
   1429a:	48 8d 35 81 4e 00 00 	lea    0x4e81(%rip),%rsi        # 19122 <g_2382+0x2022>
   142a1:	48 89 c7             	mov    %rax,%rdi
   142a4:	e8 4a 34 ff ff       	callq  76f3 <transparent_crc>
   142a9:	8b 05 a1 c0 00 00    	mov    0xc0a1(%rip),%eax        # 20350 <g_1761>
   142af:	c1 e0 0d             	shl    $0xd,%eax
   142b2:	c1 f8 0d             	sar    $0xd,%eax
   142b5:	48 98                	cltq   
   142b7:	8b 55 f4             	mov    -0xc(%rbp),%edx
   142ba:	48 8d 35 68 4e 00 00 	lea    0x4e68(%rip),%rsi        # 19129 <g_2382+0x2029>
   142c1:	48 89 c7             	mov    %rax,%rdi
   142c4:	e8 2a 34 ff ff       	callq  76f3 <transparent_crc>
   142c9:	48 8b 05 80 c0 00 00 	mov    0xc080(%rip),%rax        # 20350 <g_1761>
   142d0:	48 c1 e0 11          	shl    $0x11,%rax
   142d4:	48 c1 f8 24          	sar    $0x24,%rax
   142d8:	48 98                	cltq   
   142da:	8b 55 f4             	mov    -0xc(%rbp),%edx
   142dd:	48 8d 35 4f 4e 00 00 	lea    0x4e4f(%rip),%rsi        # 19133 <g_2382+0x2033>
   142e4:	48 89 c7             	mov    %rax,%rdi
   142e7:	e8 07 34 ff ff       	callq  76f3 <transparent_crc>
   142ec:	48 8b 05 63 c0 00 00 	mov    0xc063(%rip),%rax        # 20356 <g_1761+0x6>
   142f3:	48 89 c1             	mov    %rax,%rcx
   142f6:	8b 45 f4             	mov    -0xc(%rbp),%eax
   142f9:	89 c2                	mov    %eax,%edx
   142fb:	48 8d 35 3b 4e 00 00 	lea    0x4e3b(%rip),%rsi        # 1913d <g_2382+0x203d>
   14302:	48 89 cf             	mov    %rcx,%rdi
   14305:	e8 e9 33 ff ff       	callq  76f3 <transparent_crc>
   1430a:	48 8b 05 47 c0 00 00 	mov    0xc047(%rip),%rax        # 20358 <g_1761+0x8>
   14311:	48 c1 e8 30          	shr    $0x30,%rax
   14315:	48 89 c2             	mov    %rax,%rdx
   14318:	48 8b 05 41 c0 00 00 	mov    0xc041(%rip),%rax        # 20360 <g_1761+0x10>
   1431f:	83 e0 3f             	and    $0x3f,%eax
   14322:	48 c1 e0 10          	shl    $0x10,%rax
   14326:	48 09 d0             	or     %rdx,%rax
   14329:	48 c1 e0 2a          	shl    $0x2a,%rax
   1432d:	48 c1 f8 2a          	sar    $0x2a,%rax
   14331:	48 98                	cltq   
   14333:	8b 55 f4             	mov    -0xc(%rbp),%edx
   14336:	48 8d 35 0a 4e 00 00 	lea    0x4e0a(%rip),%rsi        # 19147 <g_2382+0x2047>
   1433d:	48 89 c7             	mov    %rax,%rdi
   14340:	e8 ae 33 ff ff       	callq  76f3 <transparent_crc>
   14345:	0f b7 05 14 c0 00 00 	movzwl 0xc014(%rip),%eax        # 20360 <g_1761+0x10>
   1434c:	66 c1 e8 06          	shr    $0x6,%ax
   14350:	83 e0 07             	and    $0x7,%eax
   14353:	0f b6 c0             	movzbl %al,%eax
   14356:	8b 55 f4             	mov    -0xc(%rbp),%edx
   14359:	48 8d 35 f1 4d 00 00 	lea    0x4df1(%rip),%rsi        # 19151 <g_2382+0x2051>
   14360:	48 89 c7             	mov    %rax,%rdi
   14363:	e8 8b 33 ff ff       	callq  76f3 <transparent_crc>
   14368:	48 8b 05 f1 bf 00 00 	mov    0xbff1(%rip),%rax        # 20360 <g_1761+0x10>
   1436f:	48 c1 e8 09          	shr    $0x9,%rax
   14373:	83 e0 07             	and    $0x7,%eax
   14376:	0f b6 c0             	movzbl %al,%eax
   14379:	8b 55 f4             	mov    -0xc(%rbp),%edx
   1437c:	48 8d 35 d8 4d 00 00 	lea    0x4dd8(%rip),%rsi        # 1915b <g_2382+0x205b>
   14383:	48 89 c7             	mov    %rax,%rdi
   14386:	e8 68 33 ff ff       	callq  76f3 <transparent_crc>
   1438b:	b8 9b 53 00 00       	mov    $0x539b,%eax
   14390:	89 c1                	mov    %eax,%ecx
   14392:	8b 45 f4             	mov    -0xc(%rbp),%eax
   14395:	89 c2                	mov    %eax,%edx
   14397:	48 8d 35 c7 4d 00 00 	lea    0x4dc7(%rip),%rsi        # 19165 <g_2382+0x2065>
   1439e:	48 89 cf             	mov    %rcx,%rdi
   143a1:	e8 4d 33 ff ff       	callq  76f3 <transparent_crc>
   143a6:	b8 11 00 00 00       	mov    $0x11,%eax
   143ab:	48 0f bf c0          	movswq %ax,%rax
   143af:	8b 55 f4             	mov    -0xc(%rbp),%edx
   143b2:	48 8d 35 b6 4d 00 00 	lea    0x4db6(%rip),%rsi        # 1916f <g_2382+0x206f>
   143b9:	48 89 c7             	mov    %rax,%rdi
   143bc:	e8 32 33 ff ff       	callq  76f3 <transparent_crc>
   143c1:	48 8b 05 20 2d 00 00 	mov    0x2d20(%rip),%rax        # 170e8 <g_1776>
   143c8:	48 c1 e8 2a          	shr    $0x2a,%rax
   143cc:	66 25 ff 3f          	and    $0x3fff,%ax
   143d0:	0f b7 c0             	movzwl %ax,%eax
   143d3:	8b 55 f4             	mov    -0xc(%rbp),%edx
   143d6:	48 8d 35 9c 4d 00 00 	lea    0x4d9c(%rip),%rsi        # 19179 <g_2382+0x2079>
   143dd:	48 89 c7             	mov    %rax,%rdi
   143e0:	e8 0e 33 ff ff       	callq  76f3 <transparent_crc>
   143e5:	b8 ff ff ff ff       	mov    $0xffffffff,%eax
   143ea:	0f b7 c0             	movzwl %ax,%eax
   143ed:	8b 55 f4             	mov    -0xc(%rbp),%edx
   143f0:	48 8d 35 8c 4d 00 00 	lea    0x4d8c(%rip),%rsi        # 19183 <g_2382+0x2083>
   143f7:	48 89 c7             	mov    %rax,%rdi
   143fa:	e8 f4 32 ff ff       	callq  76f3 <transparent_crc>
   143ff:	b8 02 00 00 00       	mov    $0x2,%eax
   14404:	0f b7 c0             	movzwl %ax,%eax
   14407:	8b 55 f4             	mov    -0xc(%rbp),%edx
   1440a:	48 8d 35 7c 4d 00 00 	lea    0x4d7c(%rip),%rsi        # 1918d <g_2382+0x208d>
   14411:	48 89 c7             	mov    %rax,%rdi
   14414:	e8 da 32 ff ff       	callq  76f3 <transparent_crc>
   14419:	c7 45 e8 00 00 00 00 	movl   $0x0,-0x18(%rbp)
   14420:	e9 cb 01 00 00       	jmpq   145f0 <main+0x5478>
   14425:	8b 45 e8             	mov    -0x18(%rbp),%eax
   14428:	48 63 d0             	movslq %eax,%rdx
   1442b:	48 89 d0             	mov    %rdx,%rax
   1442e:	48 c1 e0 03          	shl    $0x3,%rax
   14432:	48 01 d0             	add    %rdx,%rax
   14435:	48 01 c0             	add    %rax,%rax
   14438:	48 89 c2             	mov    %rax,%rdx
   1443b:	48 8d 05 3e bf 00 00 	lea    0xbf3e(%rip),%rax        # 20380 <g_1821>
   14442:	0f b7 0c 02          	movzwl (%rdx,%rax,1),%ecx
   14446:	0f b6 44 02 02       	movzbl 0x2(%rdx,%rax,1),%eax
   1444b:	83 e0 07             	and    $0x7,%eax
   1444e:	48 c1 e0 10          	shl    $0x10,%rax
   14452:	48 09 c8             	or     %rcx,%rax
   14455:	48 c1 e0 2d          	shl    $0x2d,%rax
   14459:	48 c1 f8 2d          	sar    $0x2d,%rax
   1445d:	48 98                	cltq   
   1445f:	8b 55 f4             	mov    -0xc(%rbp),%edx
   14462:	48 8d 35 2e 4d 00 00 	lea    0x4d2e(%rip),%rsi        # 19197 <g_2382+0x2097>
   14469:	48 89 c7             	mov    %rax,%rdi
   1446c:	e8 82 32 ff ff       	callq  76f3 <transparent_crc>
   14471:	8b 45 e8             	mov    -0x18(%rbp),%eax
   14474:	48 63 d0             	movslq %eax,%rdx
   14477:	48 89 d0             	mov    %rdx,%rax
   1447a:	48 c1 e0 03          	shl    $0x3,%rax
   1447e:	48 01 d0             	add    %rdx,%rax
   14481:	48 01 c0             	add    %rax,%rax
   14484:	48 89 c2             	mov    %rax,%rdx
   14487:	48 8d 05 f2 be 00 00 	lea    0xbef2(%rip),%rax        # 20380 <g_1821>
   1448e:	0f b7 4c 02 02       	movzwl 0x2(%rdx,%rax,1),%ecx
   14493:	66 c1 e9 03          	shr    $0x3,%cx
   14497:	0f b7 c9             	movzwl %cx,%ecx
   1449a:	0f b7 44 02 04       	movzwl 0x4(%rdx,%rax,1),%eax
   1449f:	0f b7 c0             	movzwl %ax,%eax
   144a2:	25 ff 7f 00 00       	and    $0x7fff,%eax
   144a7:	48 c1 e0 0d          	shl    $0xd,%rax
   144ab:	48 09 c8             	or     %rcx,%rax
   144ae:	48 c1 e0 24          	shl    $0x24,%rax
   144b2:	48 c1 f8 24          	sar    $0x24,%rax
   144b6:	48 98                	cltq   
   144b8:	8b 55 f4             	mov    -0xc(%rbp),%edx
   144bb:	48 8d 35 e2 4c 00 00 	lea    0x4ce2(%rip),%rsi        # 191a4 <g_2382+0x20a4>
   144c2:	48 89 c7             	mov    %rax,%rdi
   144c5:	e8 29 32 ff ff       	callq  76f3 <transparent_crc>
   144ca:	8b 45 e8             	mov    -0x18(%rbp),%eax
   144cd:	48 63 d0             	movslq %eax,%rdx
   144d0:	48 89 d0             	mov    %rdx,%rax
   144d3:	48 c1 e0 03          	shl    $0x3,%rax
   144d7:	48 01 d0             	add    %rdx,%rax
   144da:	48 01 c0             	add    %rax,%rax
   144dd:	48 89 c2             	mov    %rax,%rdx
   144e0:	48 8d 05 99 be 00 00 	lea    0xbe99(%rip),%rax        # 20380 <g_1821>
   144e7:	48 8b 44 02 06       	mov    0x6(%rdx,%rax,1),%rax
   144ec:	48 89 c1             	mov    %rax,%rcx
   144ef:	8b 45 f4             	mov    -0xc(%rbp),%eax
   144f2:	89 c2                	mov    %eax,%edx
   144f4:	48 8d 35 b6 4c 00 00 	lea    0x4cb6(%rip),%rsi        # 191b1 <g_2382+0x20b1>
   144fb:	48 89 cf             	mov    %rcx,%rdi
   144fe:	e8 f0 31 ff ff       	callq  76f3 <transparent_crc>
   14503:	8b 45 e8             	mov    -0x18(%rbp),%eax
   14506:	48 63 d0             	movslq %eax,%rdx
   14509:	48 89 d0             	mov    %rdx,%rax
   1450c:	48 c1 e0 03          	shl    $0x3,%rax
   14510:	48 01 d0             	add    %rdx,%rax
   14513:	48 01 c0             	add    %rax,%rax
   14516:	48 89 c2             	mov    %rax,%rdx
   14519:	48 8d 05 60 be 00 00 	lea    0xbe60(%rip),%rax        # 20380 <g_1821>
   14520:	0f b7 4c 02 0e       	movzwl 0xe(%rdx,%rax,1),%ecx
   14525:	0f b7 c9             	movzwl %cx,%ecx
   14528:	0f b7 44 02 10       	movzwl 0x10(%rdx,%rax,1),%eax
   1452d:	0f b7 c0             	movzwl %ax,%eax
   14530:	83 e0 3f             	and    $0x3f,%eax
   14533:	48 c1 e0 10          	shl    $0x10,%rax
   14537:	48 09 c8             	or     %rcx,%rax
   1453a:	48 c1 e0 2a          	shl    $0x2a,%rax
   1453e:	48 c1 f8 2a          	sar    $0x2a,%rax
   14542:	48 98                	cltq   
   14544:	8b 55 f4             	mov    -0xc(%rbp),%edx
   14547:	48 8d 35 70 4c 00 00 	lea    0x4c70(%rip),%rsi        # 191be <g_2382+0x20be>
   1454e:	48 89 c7             	mov    %rax,%rdi
   14551:	e8 9d 31 ff ff       	callq  76f3 <transparent_crc>
   14556:	8b 45 e8             	mov    -0x18(%rbp),%eax
   14559:	48 63 d0             	movslq %eax,%rdx
   1455c:	48 89 d0             	mov    %rdx,%rax
   1455f:	48 c1 e0 03          	shl    $0x3,%rax
   14563:	48 01 d0             	add    %rdx,%rax
   14566:	48 01 c0             	add    %rax,%rax
   14569:	48 89 c2             	mov    %rax,%rdx
   1456c:	48 8d 05 1d be 00 00 	lea    0xbe1d(%rip),%rax        # 20390 <g_1821+0x10>
   14573:	0f b7 04 02          	movzwl (%rdx,%rax,1),%eax
   14577:	66 c1 e8 06          	shr    $0x6,%ax
   1457b:	83 e0 07             	and    $0x7,%eax
   1457e:	0f b6 c0             	movzbl %al,%eax
   14581:	8b 55 f4             	mov    -0xc(%rbp),%edx
   14584:	48 8d 35 40 4c 00 00 	lea    0x4c40(%rip),%rsi        # 191cb <g_2382+0x20cb>
   1458b:	48 89 c7             	mov    %rax,%rdi
   1458e:	e8 60 31 ff ff       	callq  76f3 <transparent_crc>
   14593:	8b 45 e8             	mov    -0x18(%rbp),%eax
   14596:	48 63 d0             	movslq %eax,%rdx
   14599:	48 89 d0             	mov    %rdx,%rax
   1459c:	48 c1 e0 03          	shl    $0x3,%rax
   145a0:	48 01 d0             	add    %rdx,%rax
   145a3:	48 01 c0             	add    %rax,%rax
   145a6:	48 89 c2             	mov    %rax,%rdx
   145a9:	48 8d 05 e0 bd 00 00 	lea    0xbde0(%rip),%rax        # 20390 <g_1821+0x10>
   145b0:	0f b7 04 02          	movzwl (%rdx,%rax,1),%eax
   145b4:	66 c1 e8 09          	shr    $0x9,%ax
   145b8:	83 e0 07             	and    $0x7,%eax
   145bb:	0f b6 c0             	movzbl %al,%eax
   145be:	8b 55 f4             	mov    -0xc(%rbp),%edx
   145c1:	48 8d 35 10 4c 00 00 	lea    0x4c10(%rip),%rsi        # 191d8 <g_2382+0x20d8>
   145c8:	48 89 c7             	mov    %rax,%rdi
   145cb:	e8 23 31 ff ff       	callq  76f3 <transparent_crc>
   145d0:	83 7d f4 00          	cmpl   $0x0,-0xc(%rbp)
   145d4:	74 16                	je     145ec <main+0x5474>
   145d6:	8b 45 e8             	mov    -0x18(%rbp),%eax
   145d9:	89 c6                	mov    %eax,%esi
   145db:	48 8d 3d 15 3c 00 00 	lea    0x3c15(%rip),%rdi        # 181f7 <g_2382+0x10f7>
   145e2:	b8 00 00 00 00       	mov    $0x0,%eax
   145e7:	e8 94 1a ff ff       	callq  6080 <printf@plt>
   145ec:	83 45 e8 01          	addl   $0x1,-0x18(%rbp)
   145f0:	83 7d e8 06          	cmpl   $0x6,-0x18(%rbp)
   145f4:	0f 8e 2b fe ff ff    	jle    14425 <main+0x52ad>
   145fa:	8b 05 00 be 00 00    	mov    0xbe00(%rip),%eax        # 20400 <g_1889>
   14600:	c1 e0 0d             	shl    $0xd,%eax
   14603:	c1 f8 0d             	sar    $0xd,%eax
   14606:	48 98                	cltq   
   14608:	8b 55 f4             	mov    -0xc(%rbp),%edx
   1460b:	48 8d 35 d3 4b 00 00 	lea    0x4bd3(%rip),%rsi        # 191e5 <g_2382+0x20e5>
   14612:	48 89 c7             	mov    %rax,%rdi
   14615:	e8 d9 30 ff ff       	callq  76f3 <transparent_crc>
   1461a:	48 8b 05 df bd 00 00 	mov    0xbddf(%rip),%rax        # 20400 <g_1889>
   14621:	48 c1 e0 11          	shl    $0x11,%rax
   14625:	48 c1 f8 24          	sar    $0x24,%rax
   14629:	48 98                	cltq   
   1462b:	8b 55 f4             	mov    -0xc(%rbp),%edx
   1462e:	48 8d 35 ba 4b 00 00 	lea    0x4bba(%rip),%rsi        # 191ef <g_2382+0x20ef>
   14635:	48 89 c7             	mov    %rax,%rdi
   14638:	e8 b6 30 ff ff       	callq  76f3 <transparent_crc>
   1463d:	48 8b 05 c2 bd 00 00 	mov    0xbdc2(%rip),%rax        # 20406 <g_1889+0x6>
   14644:	48 89 c1             	mov    %rax,%rcx
   14647:	8b 45 f4             	mov    -0xc(%rbp),%eax
   1464a:	89 c2                	mov    %eax,%edx
   1464c:	48 8d 35 a6 4b 00 00 	lea    0x4ba6(%rip),%rsi        # 191f9 <g_2382+0x20f9>
   14653:	48 89 cf             	mov    %rcx,%rdi
   14656:	e8 98 30 ff ff       	callq  76f3 <transparent_crc>
   1465b:	48 8b 05 a6 bd 00 00 	mov    0xbda6(%rip),%rax        # 20408 <g_1889+0x8>
   14662:	48 c1 e8 30          	shr    $0x30,%rax
   14666:	48 89 c2             	mov    %rax,%rdx
   14669:	48 8b 05 a0 bd 00 00 	mov    0xbda0(%rip),%rax        # 20410 <g_1889+0x10>
   14670:	83 e0 3f             	and    $0x3f,%eax
   14673:	48 c1 e0 10          	shl    $0x10,%rax
   14677:	48 09 d0             	or     %rdx,%rax
   1467a:	48 c1 e0 2a          	shl    $0x2a,%rax
   1467e:	48 c1 f8 2a          	sar    $0x2a,%rax
   14682:	48 98                	cltq   
   14684:	8b 55 f4             	mov    -0xc(%rbp),%edx
   14687:	48 8d 35 75 4b 00 00 	lea    0x4b75(%rip),%rsi        # 19203 <g_2382+0x2103>
   1468e:	48 89 c7             	mov    %rax,%rdi
   14691:	e8 5d 30 ff ff       	callq  76f3 <transparent_crc>
   14696:	0f b7 05 73 bd 00 00 	movzwl 0xbd73(%rip),%eax        # 20410 <g_1889+0x10>
   1469d:	66 c1 e8 06          	shr    $0x6,%ax
   146a1:	83 e0 07             	and    $0x7,%eax
   146a4:	0f b6 c0             	movzbl %al,%eax
   146a7:	8b 55 f4             	mov    -0xc(%rbp),%edx
   146aa:	48 8d 35 5c 4b 00 00 	lea    0x4b5c(%rip),%rsi        # 1920d <g_2382+0x210d>
   146b1:	48 89 c7             	mov    %rax,%rdi
   146b4:	e8 3a 30 ff ff       	callq  76f3 <transparent_crc>
   146b9:	48 8b 05 50 bd 00 00 	mov    0xbd50(%rip),%rax        # 20410 <g_1889+0x10>
   146c0:	48 c1 e8 09          	shr    $0x9,%rax
   146c4:	83 e0 07             	and    $0x7,%eax
   146c7:	0f b6 c0             	movzbl %al,%eax
   146ca:	8b 55 f4             	mov    -0xc(%rbp),%edx
   146cd:	48 8d 35 43 4b 00 00 	lea    0x4b43(%rip),%rsi        # 19217 <g_2382+0x2117>
   146d4:	48 89 c7             	mov    %rax,%rdi
   146d7:	e8 17 30 ff ff       	callq  76f3 <transparent_crc>
   146dc:	c7 45 e8 00 00 00 00 	movl   $0x0,-0x18(%rbp)
   146e3:	e9 0a 03 00 00       	jmpq   149f2 <main+0x587a>
   146e8:	c7 45 ec 00 00 00 00 	movl   $0x0,-0x14(%rbp)
   146ef:	e9 f0 02 00 00       	jmpq   149e4 <main+0x586c>
   146f4:	c7 45 f0 00 00 00 00 	movl   $0x0,-0x10(%rbp)
   146fb:	e9 d6 02 00 00       	jmpq   149d6 <main+0x585e>
   14700:	8b 45 f0             	mov    -0x10(%rbp),%eax
   14703:	48 63 d0             	movslq %eax,%rdx
   14706:	8b 45 ec             	mov    -0x14(%rbp),%eax
   14709:	48 63 f0             	movslq %eax,%rsi
   1470c:	8b 45 e8             	mov    -0x18(%rbp),%eax
   1470f:	48 63 c8             	movslq %eax,%rcx
   14712:	48 89 d0             	mov    %rdx,%rax
   14715:	48 c1 e0 03          	shl    $0x3,%rax
   14719:	48 01 d0             	add    %rdx,%rax
   1471c:	48 01 c0             	add    %rax,%rax
   1471f:	48 89 f2             	mov    %rsi,%rdx
   14722:	48 c1 e2 06          	shl    $0x6,%rdx
   14726:	48 29 f2             	sub    %rsi,%rdx
   14729:	48 01 d2             	add    %rdx,%rdx
   1472c:	48 01 c2             	add    %rax,%rdx
   1472f:	48 89 c8             	mov    %rcx,%rax
   14732:	48 c1 e0 06          	shl    $0x6,%rax
   14736:	48 29 c8             	sub    %rcx,%rax
   14739:	48 c1 e0 03          	shl    $0x3,%rax
   1473d:	48 01 c2             	add    %rax,%rdx
   14740:	48 8d 05 d9 bc 00 00 	lea    0xbcd9(%rip),%rax        # 20420 <g_1897>
   14747:	48 01 d0             	add    %rdx,%rax
   1474a:	0f b7 10             	movzwl (%rax),%edx
   1474d:	0f b6 40 02          	movzbl 0x2(%rax),%eax
   14751:	83 e0 07             	and    $0x7,%eax
   14754:	48 c1 e0 10          	shl    $0x10,%rax
   14758:	48 09 d0             	or     %rdx,%rax
   1475b:	48 c1 e0 2d          	shl    $0x2d,%rax
   1475f:	48 c1 f8 2d          	sar    $0x2d,%rax
   14763:	48 98                	cltq   
   14765:	8b 55 f4             	mov    -0xc(%rbp),%edx
   14768:	48 8d 35 b2 4a 00 00 	lea    0x4ab2(%rip),%rsi        # 19221 <g_2382+0x2121>
   1476f:	48 89 c7             	mov    %rax,%rdi
   14772:	e8 7c 2f ff ff       	callq  76f3 <transparent_crc>
   14777:	8b 45 f0             	mov    -0x10(%rbp),%eax
   1477a:	48 63 d0             	movslq %eax,%rdx
   1477d:	8b 45 ec             	mov    -0x14(%rbp),%eax
   14780:	48 63 f0             	movslq %eax,%rsi
   14783:	8b 45 e8             	mov    -0x18(%rbp),%eax
   14786:	48 63 c8             	movslq %eax,%rcx
   14789:	48 89 d0             	mov    %rdx,%rax
   1478c:	48 c1 e0 03          	shl    $0x3,%rax
   14790:	48 01 d0             	add    %rdx,%rax
   14793:	48 01 c0             	add    %rax,%rax
   14796:	48 89 f2             	mov    %rsi,%rdx
   14799:	48 c1 e2 06          	shl    $0x6,%rdx
   1479d:	48 29 f2             	sub    %rsi,%rdx
   147a0:	48 01 d2             	add    %rdx,%rdx
   147a3:	48 01 c2             	add    %rax,%rdx
   147a6:	48 89 c8             	mov    %rcx,%rax
   147a9:	48 c1 e0 06          	shl    $0x6,%rax
   147ad:	48 29 c8             	sub    %rcx,%rax
   147b0:	48 c1 e0 03          	shl    $0x3,%rax
   147b4:	48 01 c2             	add    %rax,%rdx
   147b7:	48 8d 05 62 bc 00 00 	lea    0xbc62(%rip),%rax        # 20420 <g_1897>
   147be:	48 01 d0             	add    %rdx,%rax
   147c1:	0f b7 50 02          	movzwl 0x2(%rax),%edx
   147c5:	66 c1 ea 03          	shr    $0x3,%dx
   147c9:	0f b7 d2             	movzwl %dx,%edx
   147cc:	0f b7 40 04          	movzwl 0x4(%rax),%eax
   147d0:	0f b7 c0             	movzwl %ax,%eax
   147d3:	25 ff 7f 00 00       	and    $0x7fff,%eax
   147d8:	48 c1 e0 0d          	shl    $0xd,%rax
   147dc:	48 09 d0             	or     %rdx,%rax
   147df:	48 c1 e0 24          	shl    $0x24,%rax
   147e3:	48 c1 f8 24          	sar    $0x24,%rax
   147e7:	48 98                	cltq   
   147e9:	8b 55 f4             	mov    -0xc(%rbp),%edx
   147ec:	48 8d 35 41 4a 00 00 	lea    0x4a41(%rip),%rsi        # 19234 <g_2382+0x2134>
   147f3:	48 89 c7             	mov    %rax,%rdi
   147f6:	e8 f8 2e ff ff       	callq  76f3 <transparent_crc>
   147fb:	8b 45 f0             	mov    -0x10(%rbp),%eax
   147fe:	48 63 d0             	movslq %eax,%rdx
   14801:	8b 45 ec             	mov    -0x14(%rbp),%eax
   14804:	48 63 f0             	movslq %eax,%rsi
   14807:	8b 45 e8             	mov    -0x18(%rbp),%eax
   1480a:	48 63 c8             	movslq %eax,%rcx
   1480d:	48 89 d0             	mov    %rdx,%rax
   14810:	48 c1 e0 03          	shl    $0x3,%rax
   14814:	48 01 d0             	add    %rdx,%rax
   14817:	48 01 c0             	add    %rax,%rax
   1481a:	48 89 f2             	mov    %rsi,%rdx
   1481d:	48 c1 e2 06          	shl    $0x6,%rdx
   14821:	48 29 f2             	sub    %rsi,%rdx
   14824:	48 01 d2             	add    %rdx,%rdx
   14827:	48 01 c2             	add    %rax,%rdx
   1482a:	48 89 c8             	mov    %rcx,%rax
   1482d:	48 c1 e0 06          	shl    $0x6,%rax
   14831:	48 29 c8             	sub    %rcx,%rax
   14834:	48 c1 e0 03          	shl    $0x3,%rax
   14838:	48 01 c2             	add    %rax,%rdx
   1483b:	48 8d 05 de bb 00 00 	lea    0xbbde(%rip),%rax        # 20420 <g_1897>
   14842:	48 01 d0             	add    %rdx,%rax
   14845:	48 8b 40 06          	mov    0x6(%rax),%rax
   14849:	48 89 c1             	mov    %rax,%rcx
   1484c:	8b 45 f4             	mov    -0xc(%rbp),%eax
   1484f:	89 c2                	mov    %eax,%edx
   14851:	48 8d 35 ef 49 00 00 	lea    0x49ef(%rip),%rsi        # 19247 <g_2382+0x2147>
   14858:	48 89 cf             	mov    %rcx,%rdi
   1485b:	e8 93 2e ff ff       	callq  76f3 <transparent_crc>
   14860:	8b 45 f0             	mov    -0x10(%rbp),%eax
   14863:	48 63 d0             	movslq %eax,%rdx
   14866:	8b 45 ec             	mov    -0x14(%rbp),%eax
   14869:	48 63 f0             	movslq %eax,%rsi
   1486c:	8b 45 e8             	mov    -0x18(%rbp),%eax
   1486f:	48 63 c8             	movslq %eax,%rcx
   14872:	48 89 d0             	mov    %rdx,%rax
   14875:	48 c1 e0 03          	shl    $0x3,%rax
   14879:	48 01 d0             	add    %rdx,%rax
   1487c:	48 01 c0             	add    %rax,%rax
   1487f:	48 89 f2             	mov    %rsi,%rdx
   14882:	48 c1 e2 06          	shl    $0x6,%rdx
   14886:	48 29 f2             	sub    %rsi,%rdx
   14889:	48 01 d2             	add    %rdx,%rdx
   1488c:	48 01 c2             	add    %rax,%rdx
   1488f:	48 89 c8             	mov    %rcx,%rax
   14892:	48 c1 e0 06          	shl    $0x6,%rax
   14896:	48 29 c8             	sub    %rcx,%rax
   14899:	48 c1 e0 03          	shl    $0x3,%rax
   1489d:	48 01 c2             	add    %rax,%rdx
   148a0:	48 8d 05 79 bb 00 00 	lea    0xbb79(%rip),%rax        # 20420 <g_1897>
   148a7:	48 01 d0             	add    %rdx,%rax
   148aa:	0f b7 50 0e          	movzwl 0xe(%rax),%edx
   148ae:	0f b7 d2             	movzwl %dx,%edx
   148b1:	0f b7 40 10          	movzwl 0x10(%rax),%eax
   148b5:	0f b7 c0             	movzwl %ax,%eax
   148b8:	83 e0 3f             	and    $0x3f,%eax
   148bb:	48 c1 e0 10          	shl    $0x10,%rax
   148bf:	48 09 d0             	or     %rdx,%rax
   148c2:	48 c1 e0 2a          	shl    $0x2a,%rax
   148c6:	48 c1 f8 2a          	sar    $0x2a,%rax
   148ca:	48 98                	cltq   
   148cc:	8b 55 f4             	mov    -0xc(%rbp),%edx
   148cf:	48 8d 35 84 49 00 00 	lea    0x4984(%rip),%rsi        # 1925a <g_2382+0x215a>
   148d6:	48 89 c7             	mov    %rax,%rdi
   148d9:	e8 15 2e ff ff       	callq  76f3 <transparent_crc>
   148de:	8b 45 f0             	mov    -0x10(%rbp),%eax
   148e1:	48 63 d0             	movslq %eax,%rdx
   148e4:	8b 45 ec             	mov    -0x14(%rbp),%eax
   148e7:	48 63 c8             	movslq %eax,%rcx
   148ea:	8b 45 e8             	mov    -0x18(%rbp),%eax
   148ed:	48 63 f0             	movslq %eax,%rsi
   148f0:	48 89 d0             	mov    %rdx,%rax
   148f3:	48 c1 e0 03          	shl    $0x3,%rax
   148f7:	48 01 d0             	add    %rdx,%rax
   148fa:	48 01 c0             	add    %rax,%rax
   148fd:	48 89 f2             	mov    %rsi,%rdx
   14900:	48 c1 e2 06          	shl    $0x6,%rdx
   14904:	48 29 f2             	sub    %rsi,%rdx
   14907:	48 c1 e2 03          	shl    $0x3,%rdx
   1490b:	48 01 c2             	add    %rax,%rdx
   1490e:	48 89 c8             	mov    %rcx,%rax
   14911:	48 c1 e0 06          	shl    $0x6,%rax
   14915:	48 29 c8             	sub    %rcx,%rax
   14918:	48 01 c0             	add    %rax,%rax
   1491b:	48 01 c2             	add    %rax,%rdx
   1491e:	48 8d 05 0b bb 00 00 	lea    0xbb0b(%rip),%rax        # 20430 <g_1897+0x10>
   14925:	48 01 d0             	add    %rdx,%rax
   14928:	0f b7 00             	movzwl (%rax),%eax
   1492b:	66 c1 e8 06          	shr    $0x6,%ax
   1492f:	83 e0 07             	and    $0x7,%eax
   14932:	0f b6 c0             	movzbl %al,%eax
   14935:	8b 55 f4             	mov    -0xc(%rbp),%edx
   14938:	48 8d 35 2e 49 00 00 	lea    0x492e(%rip),%rsi        # 1926d <g_2382+0x216d>
   1493f:	48 89 c7             	mov    %rax,%rdi
   14942:	e8 ac 2d ff ff       	callq  76f3 <transparent_crc>
   14947:	8b 45 f0             	mov    -0x10(%rbp),%eax
   1494a:	48 63 d0             	movslq %eax,%rdx
   1494d:	8b 45 ec             	mov    -0x14(%rbp),%eax
   14950:	48 63 c8             	movslq %eax,%rcx
   14953:	8b 45 e8             	mov    -0x18(%rbp),%eax
   14956:	48 63 f0             	movslq %eax,%rsi
   14959:	48 89 d0             	mov    %rdx,%rax
   1495c:	48 c1 e0 03          	shl    $0x3,%rax
   14960:	48 01 d0             	add    %rdx,%rax
   14963:	48 01 c0             	add    %rax,%rax
   14966:	48 89 f2             	mov    %rsi,%rdx
   14969:	48 c1 e2 06          	shl    $0x6,%rdx
   1496d:	48 29 f2             	sub    %rsi,%rdx
   14970:	48 c1 e2 03          	shl    $0x3,%rdx
   14974:	48 01 c2             	add    %rax,%rdx
   14977:	48 89 c8             	mov    %rcx,%rax
   1497a:	48 c1 e0 06          	shl    $0x6,%rax
   1497e:	48 29 c8             	sub    %rcx,%rax
   14981:	48 01 c0             	add    %rax,%rax
   14984:	48 01 c2             	add    %rax,%rdx
   14987:	48 8d 05 a2 ba 00 00 	lea    0xbaa2(%rip),%rax        # 20430 <g_1897+0x10>
   1498e:	48 01 d0             	add    %rdx,%rax
   14991:	0f b7 00             	movzwl (%rax),%eax
   14994:	66 c1 e8 09          	shr    $0x9,%ax
   14998:	83 e0 07             	and    $0x7,%eax
   1499b:	0f b6 c0             	movzbl %al,%eax
   1499e:	8b 55 f4             	mov    -0xc(%rbp),%edx
   149a1:	48 8d 35 d8 48 00 00 	lea    0x48d8(%rip),%rsi        # 19280 <g_2382+0x2180>
   149a8:	48 89 c7             	mov    %rax,%rdi
   149ab:	e8 43 2d ff ff       	callq  76f3 <transparent_crc>
   149b0:	83 7d f4 00          	cmpl   $0x0,-0xc(%rbp)
   149b4:	74 1c                	je     149d2 <main+0x585a>
   149b6:	8b 4d f0             	mov    -0x10(%rbp),%ecx
   149b9:	8b 55 ec             	mov    -0x14(%rbp),%edx
   149bc:	8b 45 e8             	mov    -0x18(%rbp),%eax
   149bf:	89 c6                	mov    %eax,%esi
   149c1:	48 8d 3d 44 3a 00 00 	lea    0x3a44(%rip),%rdi        # 1840c <g_2382+0x130c>
   149c8:	b8 00 00 00 00       	mov    $0x0,%eax
   149cd:	e8 ae 16 ff ff       	callq  6080 <printf@plt>
   149d2:	83 45 f0 01          	addl   $0x1,-0x10(%rbp)
   149d6:	83 7d f0 06          	cmpl   $0x6,-0x10(%rbp)
   149da:	0f 8e 20 fd ff ff    	jle    14700 <main+0x5588>
   149e0:	83 45 ec 01          	addl   $0x1,-0x14(%rbp)
   149e4:	83 7d ec 03          	cmpl   $0x3,-0x14(%rbp)
   149e8:	0f 8e 06 fd ff ff    	jle    146f4 <main+0x557c>
   149ee:	83 45 e8 01          	addl   $0x1,-0x18(%rbp)
   149f2:	83 7d e8 08          	cmpl   $0x8,-0x18(%rbp)
   149f6:	0f 8e ec fc ff ff    	jle    146e8 <main+0x5570>
   149fc:	8b 05 de cb 00 00    	mov    0xcbde(%rip),%eax        # 215e0 <g_1947>
   14a02:	c1 e0 0d             	shl    $0xd,%eax
   14a05:	c1 f8 0d             	sar    $0xd,%eax
   14a08:	48 98                	cltq   
   14a0a:	8b 55 f4             	mov    -0xc(%rbp),%edx
   14a0d:	48 8d 35 7f 48 00 00 	lea    0x487f(%rip),%rsi        # 19293 <g_2382+0x2193>
   14a14:	48 89 c7             	mov    %rax,%rdi
   14a17:	e8 d7 2c ff ff       	callq  76f3 <transparent_crc>
   14a1c:	48 8b 05 bd cb 00 00 	mov    0xcbbd(%rip),%rax        # 215e0 <g_1947>
   14a23:	48 c1 e0 11          	shl    $0x11,%rax
   14a27:	48 c1 f8 24          	sar    $0x24,%rax
   14a2b:	48 98                	cltq   
   14a2d:	8b 55 f4             	mov    -0xc(%rbp),%edx
   14a30:	48 8d 35 66 48 00 00 	lea    0x4866(%rip),%rsi        # 1929d <g_2382+0x219d>
   14a37:	48 89 c7             	mov    %rax,%rdi
   14a3a:	e8 b4 2c ff ff       	callq  76f3 <transparent_crc>
   14a3f:	48 8b 05 a0 cb 00 00 	mov    0xcba0(%rip),%rax        # 215e6 <g_1947+0x6>
   14a46:	48 89 c1             	mov    %rax,%rcx
   14a49:	8b 45 f4             	mov    -0xc(%rbp),%eax
   14a4c:	89 c2                	mov    %eax,%edx
   14a4e:	48 8d 35 52 48 00 00 	lea    0x4852(%rip),%rsi        # 192a7 <g_2382+0x21a7>
   14a55:	48 89 cf             	mov    %rcx,%rdi
   14a58:	e8 96 2c ff ff       	callq  76f3 <transparent_crc>
   14a5d:	48 8b 05 84 cb 00 00 	mov    0xcb84(%rip),%rax        # 215e8 <g_1947+0x8>
   14a64:	48 c1 e8 30          	shr    $0x30,%rax
   14a68:	48 89 c2             	mov    %rax,%rdx
   14a6b:	48 8b 05 7e cb 00 00 	mov    0xcb7e(%rip),%rax        # 215f0 <g_1947+0x10>
   14a72:	83 e0 3f             	and    $0x3f,%eax
   14a75:	48 c1 e0 10          	shl    $0x10,%rax
   14a79:	48 09 d0             	or     %rdx,%rax
   14a7c:	48 c1 e0 2a          	shl    $0x2a,%rax
   14a80:	48 c1 f8 2a          	sar    $0x2a,%rax
   14a84:	48 98                	cltq   
   14a86:	8b 55 f4             	mov    -0xc(%rbp),%edx
   14a89:	48 8d 35 21 48 00 00 	lea    0x4821(%rip),%rsi        # 192b1 <g_2382+0x21b1>
   14a90:	48 89 c7             	mov    %rax,%rdi
   14a93:	e8 5b 2c ff ff       	callq  76f3 <transparent_crc>
   14a98:	0f b7 05 51 cb 00 00 	movzwl 0xcb51(%rip),%eax        # 215f0 <g_1947+0x10>
   14a9f:	66 c1 e8 06          	shr    $0x6,%ax
   14aa3:	83 e0 07             	and    $0x7,%eax
   14aa6:	0f b6 c0             	movzbl %al,%eax
   14aa9:	8b 55 f4             	mov    -0xc(%rbp),%edx
   14aac:	48 8d 35 08 48 00 00 	lea    0x4808(%rip),%rsi        # 192bb <g_2382+0x21bb>
   14ab3:	48 89 c7             	mov    %rax,%rdi
   14ab6:	e8 38 2c ff ff       	callq  76f3 <transparent_crc>
   14abb:	48 8b 05 2e cb 00 00 	mov    0xcb2e(%rip),%rax        # 215f0 <g_1947+0x10>
   14ac2:	48 c1 e8 09          	shr    $0x9,%rax
   14ac6:	83 e0 07             	and    $0x7,%eax
   14ac9:	0f b6 c0             	movzbl %al,%eax
   14acc:	8b 55 f4             	mov    -0xc(%rbp),%edx
   14acf:	48 8d 35 ef 47 00 00 	lea    0x47ef(%rip),%rsi        # 192c5 <g_2382+0x21c5>
   14ad6:	48 89 c7             	mov    %rax,%rdi
   14ad9:	e8 15 2c ff ff       	callq  76f3 <transparent_crc>
   14ade:	48 8b 05 13 cb 00 00 	mov    0xcb13(%rip),%rax        # 215f8 <g_1954>
   14ae5:	25 ff ff ff 1f       	and    $0x1fffffff,%eax
   14aea:	89 c1                	mov    %eax,%ecx
   14aec:	8b 45 f4             	mov    -0xc(%rbp),%eax
   14aef:	89 c2                	mov    %eax,%edx
   14af1:	48 8d 35 d7 47 00 00 	lea    0x47d7(%rip),%rsi        # 192cf <g_2382+0x21cf>
   14af8:	48 89 cf             	mov    %rcx,%rdi
   14afb:	e8 f3 2b ff ff       	callq  76f3 <transparent_crc>
   14b00:	48 8b 05 f1 ca 00 00 	mov    0xcaf1(%rip),%rax        # 215f8 <g_1954>
   14b07:	48 c1 e0 16          	shl    $0x16,%rax
   14b0b:	48 c1 f8 36          	sar    $0x36,%rax
   14b0f:	48 0f bf c0          	movswq %ax,%rax
   14b13:	8b 55 f4             	mov    -0xc(%rbp),%edx
   14b16:	48 8d 35 bc 47 00 00 	lea    0x47bc(%rip),%rsi        # 192d9 <g_2382+0x21d9>
   14b1d:	48 89 c7             	mov    %rax,%rdi
   14b20:	e8 ce 2b ff ff       	callq  76f3 <transparent_crc>
   14b25:	48 8b 05 cc ca 00 00 	mov    0xcacc(%rip),%rax        # 215f8 <g_1954>
   14b2c:	48 c1 e8 2a          	shr    $0x2a,%rax
   14b30:	66 25 ff 3f          	and    $0x3fff,%ax
   14b34:	0f b7 c0             	movzwl %ax,%eax
   14b37:	8b 55 f4             	mov    -0xc(%rbp),%edx
   14b3a:	48 8d 35 a2 47 00 00 	lea    0x47a2(%rip),%rsi        # 192e3 <g_2382+0x21e3>
   14b41:	48 89 c7             	mov    %rax,%rdi
   14b44:	e8 aa 2b ff ff       	callq  76f3 <transparent_crc>
   14b49:	0f b7 05 b0 ca 00 00 	movzwl 0xcab0(%rip),%eax        # 21600 <g_1954+0x8>
   14b50:	0f b7 c0             	movzwl %ax,%eax
   14b53:	8b 55 f4             	mov    -0xc(%rbp),%edx
   14b56:	48 8d 35 90 47 00 00 	lea    0x4790(%rip),%rsi        # 192ed <g_2382+0x21ed>
   14b5d:	48 89 c7             	mov    %rax,%rdi
   14b60:	e8 8e 2b ff ff       	callq  76f3 <transparent_crc>
   14b65:	48 8b 05 94 ca 00 00 	mov    0xca94(%rip),%rax        # 21600 <g_1954+0x8>
   14b6c:	48 c1 e8 10          	shr    $0x10,%rax
   14b70:	66 25 ff 03          	and    $0x3ff,%ax
   14b74:	0f b7 c0             	movzwl %ax,%eax
   14b77:	8b 55 f4             	mov    -0xc(%rbp),%edx
   14b7a:	48 8d 35 76 47 00 00 	lea    0x4776(%rip),%rsi        # 192f7 <g_2382+0x21f7>
   14b81:	48 89 c7             	mov    %rax,%rdi
   14b84:	e8 6a 2b ff ff       	callq  76f3 <transparent_crc>
   14b89:	8b 05 81 ca 00 00    	mov    0xca81(%rip),%eax        # 21610 <g_1990>
   14b8f:	c1 e0 0d             	shl    $0xd,%eax
   14b92:	c1 f8 0d             	sar    $0xd,%eax
   14b95:	48 98                	cltq   
   14b97:	8b 55 f4             	mov    -0xc(%rbp),%edx
   14b9a:	48 8d 35 60 47 00 00 	lea    0x4760(%rip),%rsi        # 19301 <g_2382+0x2201>
   14ba1:	48 89 c7             	mov    %rax,%rdi
   14ba4:	e8 4a 2b ff ff       	callq  76f3 <transparent_crc>
   14ba9:	48 8b 05 60 ca 00 00 	mov    0xca60(%rip),%rax        # 21610 <g_1990>
   14bb0:	48 c1 e0 11          	shl    $0x11,%rax
   14bb4:	48 c1 f8 24          	sar    $0x24,%rax
   14bb8:	48 98                	cltq   
   14bba:	8b 55 f4             	mov    -0xc(%rbp),%edx
   14bbd:	48 8d 35 47 47 00 00 	lea    0x4747(%rip),%rsi        # 1930b <g_2382+0x220b>
   14bc4:	48 89 c7             	mov    %rax,%rdi
   14bc7:	e8 27 2b ff ff       	callq  76f3 <transparent_crc>
   14bcc:	48 8b 05 43 ca 00 00 	mov    0xca43(%rip),%rax        # 21616 <g_1990+0x6>
   14bd3:	48 89 c1             	mov    %rax,%rcx
   14bd6:	8b 45 f4             	mov    -0xc(%rbp),%eax
   14bd9:	89 c2                	mov    %eax,%edx
   14bdb:	48 8d 35 33 47 00 00 	lea    0x4733(%rip),%rsi        # 19315 <g_2382+0x2215>
   14be2:	48 89 cf             	mov    %rcx,%rdi
   14be5:	e8 09 2b ff ff       	callq  76f3 <transparent_crc>
   14bea:	48 8b 05 27 ca 00 00 	mov    0xca27(%rip),%rax        # 21618 <g_1990+0x8>
   14bf1:	48 c1 e8 30          	shr    $0x30,%rax
   14bf5:	48 89 c2             	mov    %rax,%rdx
   14bf8:	48 8b 05 21 ca 00 00 	mov    0xca21(%rip),%rax        # 21620 <g_1990+0x10>
   14bff:	83 e0 3f             	and    $0x3f,%eax
   14c02:	48 c1 e0 10          	shl    $0x10,%rax
   14c06:	48 09 d0             	or     %rdx,%rax
   14c09:	48 c1 e0 2a          	shl    $0x2a,%rax
   14c0d:	48 c1 f8 2a          	sar    $0x2a,%rax
   14c11:	48 98                	cltq   
   14c13:	8b 55 f4             	mov    -0xc(%rbp),%edx
   14c16:	48 8d 35 02 47 00 00 	lea    0x4702(%rip),%rsi        # 1931f <g_2382+0x221f>
   14c1d:	48 89 c7             	mov    %rax,%rdi
   14c20:	e8 ce 2a ff ff       	callq  76f3 <transparent_crc>
   14c25:	0f b7 05 f4 c9 00 00 	movzwl 0xc9f4(%rip),%eax        # 21620 <g_1990+0x10>
   14c2c:	66 c1 e8 06          	shr    $0x6,%ax
   14c30:	83 e0 07             	and    $0x7,%eax
   14c33:	0f b6 c0             	movzbl %al,%eax
   14c36:	8b 55 f4             	mov    -0xc(%rbp),%edx
   14c39:	48 8d 35 e9 46 00 00 	lea    0x46e9(%rip),%rsi        # 19329 <g_2382+0x2229>
   14c40:	48 89 c7             	mov    %rax,%rdi
   14c43:	e8 ab 2a ff ff       	callq  76f3 <transparent_crc>
   14c48:	48 8b 05 d1 c9 00 00 	mov    0xc9d1(%rip),%rax        # 21620 <g_1990+0x10>
   14c4f:	48 c1 e8 09          	shr    $0x9,%rax
   14c53:	83 e0 07             	and    $0x7,%eax
   14c56:	0f b6 c0             	movzbl %al,%eax
   14c59:	8b 55 f4             	mov    -0xc(%rbp),%edx
   14c5c:	48 8d 35 d0 46 00 00 	lea    0x46d0(%rip),%rsi        # 19333 <g_2382+0x2233>
   14c63:	48 89 c7             	mov    %rax,%rdi
   14c66:	e8 88 2a ff ff       	callq  76f3 <transparent_crc>
   14c6b:	8b 05 b3 c9 00 00    	mov    0xc9b3(%rip),%eax        # 21624 <g_2007>
   14c71:	48 98                	cltq   
   14c73:	8b 55 f4             	mov    -0xc(%rbp),%edx
   14c76:	48 8d 35 c0 46 00 00 	lea    0x46c0(%rip),%rsi        # 1933d <g_2382+0x223d>
   14c7d:	48 89 c7             	mov    %rax,%rdi
   14c80:	e8 6e 2a ff ff       	callq  76f3 <transparent_crc>
   14c85:	c7 45 e8 00 00 00 00 	movl   $0x0,-0x18(%rbp)
   14c8c:	eb 6d                	jmp    14cfb <main+0x5b83>
   14c8e:	c7 45 ec 00 00 00 00 	movl   $0x0,-0x14(%rbp)
   14c95:	eb 5a                	jmp    14cf1 <main+0x5b79>
   14c97:	8b 45 ec             	mov    -0x14(%rbp),%eax
   14c9a:	48 98                	cltq   
   14c9c:	8b 55 e8             	mov    -0x18(%rbp),%edx
   14c9f:	48 63 d2             	movslq %edx,%rdx
   14ca2:	48 c1 e2 03          	shl    $0x3,%rdx
   14ca6:	48 01 d0             	add    %rdx,%rax
   14ca9:	48 8d 14 c5 00 00 00 	lea    0x0(,%rax,8),%rdx
   14cb0:	00 
   14cb1:	48 8d 05 88 c9 00 00 	lea    0xc988(%rip),%rax        # 21640 <g_2008>
   14cb8:	48 8b 04 02          	mov    (%rdx,%rax,1),%rax
   14cbc:	8b 55 f4             	mov    -0xc(%rbp),%edx
   14cbf:	48 8d 35 7e 46 00 00 	lea    0x467e(%rip),%rsi        # 19344 <g_2382+0x2244>
   14cc6:	48 89 c7             	mov    %rax,%rdi
   14cc9:	e8 25 2a ff ff       	callq  76f3 <transparent_crc>
   14cce:	83 7d f4 00          	cmpl   $0x0,-0xc(%rbp)
   14cd2:	74 19                	je     14ced <main+0x5b75>
   14cd4:	8b 55 ec             	mov    -0x14(%rbp),%edx
   14cd7:	8b 45 e8             	mov    -0x18(%rbp),%eax
   14cda:	89 c6                	mov    %eax,%esi
   14cdc:	48 8d 3d 79 33 00 00 	lea    0x3379(%rip),%rdi        # 1805c <g_2382+0xf5c>
   14ce3:	b8 00 00 00 00       	mov    $0x0,%eax
   14ce8:	e8 93 13 ff ff       	callq  6080 <printf@plt>
   14ced:	83 45 ec 01          	addl   $0x1,-0x14(%rbp)
   14cf1:	83 7d ec 07          	cmpl   $0x7,-0x14(%rbp)
   14cf5:	7e a0                	jle    14c97 <main+0x5b1f>
   14cf7:	83 45 e8 01          	addl   $0x1,-0x18(%rbp)
   14cfb:	83 7d e8 06          	cmpl   $0x6,-0x18(%rbp)
   14cff:	7e 8d                	jle    14c8e <main+0x5b16>
   14d01:	c7 45 e8 00 00 00 00 	movl   $0x0,-0x18(%rbp)
   14d08:	e9 d1 01 00 00       	jmpq   14ede <main+0x5d66>
   14d0d:	8b 45 e8             	mov    -0x18(%rbp),%eax
   14d10:	48 63 d0             	movslq %eax,%rdx
   14d13:	48 89 d0             	mov    %rdx,%rax
   14d16:	48 c1 e0 03          	shl    $0x3,%rax
   14d1a:	48 01 d0             	add    %rdx,%rax
   14d1d:	48 01 c0             	add    %rax,%rax
   14d20:	48 89 c2             	mov    %rax,%rdx
   14d23:	48 8d 05 d6 ca 00 00 	lea    0xcad6(%rip),%rax        # 21800 <g_2039>
   14d2a:	0f b7 0c 02          	movzwl (%rdx,%rax,1),%ecx
   14d2e:	0f b7 c9             	movzwl %cx,%ecx
   14d31:	0f b7 44 02 02       	movzwl 0x2(%rdx,%rax,1),%eax
   14d36:	0f b7 c0             	movzwl %ax,%eax
   14d39:	83 e0 07             	and    $0x7,%eax
   14d3c:	48 c1 e0 10          	shl    $0x10,%rax
   14d40:	48 09 c8             	or     %rcx,%rax
   14d43:	48 c1 e0 2d          	shl    $0x2d,%rax
   14d47:	48 c1 f8 2d          	sar    $0x2d,%rax
   14d4b:	48 98                	cltq   
   14d4d:	8b 55 f4             	mov    -0xc(%rbp),%edx
   14d50:	48 8d 35 fa 45 00 00 	lea    0x45fa(%rip),%rsi        # 19351 <g_2382+0x2251>
   14d57:	48 89 c7             	mov    %rax,%rdi
   14d5a:	e8 94 29 ff ff       	callq  76f3 <transparent_crc>
   14d5f:	8b 45 e8             	mov    -0x18(%rbp),%eax
   14d62:	48 63 d0             	movslq %eax,%rdx
   14d65:	48 89 d0             	mov    %rdx,%rax
   14d68:	48 c1 e0 03          	shl    $0x3,%rax
   14d6c:	48 01 d0             	add    %rdx,%rax
   14d6f:	48 01 c0             	add    %rax,%rax
   14d72:	48 89 c2             	mov    %rax,%rdx
   14d75:	48 8d 05 84 ca 00 00 	lea    0xca84(%rip),%rax        # 21800 <g_2039>
   14d7c:	0f b7 4c 02 02       	movzwl 0x2(%rdx,%rax,1),%ecx
   14d81:	66 c1 e9 03          	shr    $0x3,%cx
   14d85:	0f b7 c9             	movzwl %cx,%ecx
   14d88:	0f b7 44 02 04       	movzwl 0x4(%rdx,%rax,1),%eax
   14d8d:	0f b7 c0             	movzwl %ax,%eax
   14d90:	25 ff 7f 00 00       	and    $0x7fff,%eax
   14d95:	48 c1 e0 0d          	shl    $0xd,%rax
   14d99:	48 09 c8             	or     %rcx,%rax
   14d9c:	48 c1 e0 24          	shl    $0x24,%rax
   14da0:	48 c1 f8 24          	sar    $0x24,%rax
   14da4:	48 98                	cltq   
   14da6:	8b 55 f4             	mov    -0xc(%rbp),%edx
   14da9:	48 8d 35 ae 45 00 00 	lea    0x45ae(%rip),%rsi        # 1935e <g_2382+0x225e>
   14db0:	48 89 c7             	mov    %rax,%rdi
   14db3:	e8 3b 29 ff ff       	callq  76f3 <transparent_crc>
   14db8:	8b 45 e8             	mov    -0x18(%rbp),%eax
   14dbb:	48 63 d0             	movslq %eax,%rdx
   14dbe:	48 89 d0             	mov    %rdx,%rax
   14dc1:	48 c1 e0 03          	shl    $0x3,%rax
   14dc5:	48 01 d0             	add    %rdx,%rax
   14dc8:	48 01 c0             	add    %rax,%rax
   14dcb:	48 89 c2             	mov    %rax,%rdx
   14dce:	48 8d 05 2b ca 00 00 	lea    0xca2b(%rip),%rax        # 21800 <g_2039>
   14dd5:	48 8b 44 02 06       	mov    0x6(%rdx,%rax,1),%rax
   14dda:	48 89 c1             	mov    %rax,%rcx
   14ddd:	8b 45 f4             	mov    -0xc(%rbp),%eax
   14de0:	89 c2                	mov    %eax,%edx
   14de2:	48 8d 35 82 45 00 00 	lea    0x4582(%rip),%rsi        # 1936b <g_2382+0x226b>
   14de9:	48 89 cf             	mov    %rcx,%rdi
   14dec:	e8 02 29 ff ff       	callq  76f3 <transparent_crc>
   14df1:	8b 45 e8             	mov    -0x18(%rbp),%eax
   14df4:	48 63 d0             	movslq %eax,%rdx
   14df7:	48 89 d0             	mov    %rdx,%rax
   14dfa:	48 c1 e0 03          	shl    $0x3,%rax
   14dfe:	48 01 d0             	add    %rdx,%rax
   14e01:	48 01 c0             	add    %rax,%rax
   14e04:	48 89 c2             	mov    %rax,%rdx
   14e07:	48 8d 05 f2 c9 00 00 	lea    0xc9f2(%rip),%rax        # 21800 <g_2039>
   14e0e:	0f b7 4c 02 0e       	movzwl 0xe(%rdx,%rax,1),%ecx
   14e13:	0f b7 c9             	movzwl %cx,%ecx
   14e16:	0f b7 44 02 10       	movzwl 0x10(%rdx,%rax,1),%eax
   14e1b:	0f b7 c0             	movzwl %ax,%eax
   14e1e:	83 e0 3f             	and    $0x3f,%eax
   14e21:	48 c1 e0 10          	shl    $0x10,%rax
   14e25:	48 09 c8             	or     %rcx,%rax
   14e28:	48 c1 e0 2a          	shl    $0x2a,%rax
   14e2c:	48 c1 f8 2a          	sar    $0x2a,%rax
   14e30:	48 98                	cltq   
   14e32:	8b 55 f4             	mov    -0xc(%rbp),%edx
   14e35:	48 8d 35 3c 45 00 00 	lea    0x453c(%rip),%rsi        # 19378 <g_2382+0x2278>
   14e3c:	48 89 c7             	mov    %rax,%rdi
   14e3f:	e8 af 28 ff ff       	callq  76f3 <transparent_crc>
   14e44:	8b 45 e8             	mov    -0x18(%rbp),%eax
   14e47:	48 63 d0             	movslq %eax,%rdx
   14e4a:	48 89 d0             	mov    %rdx,%rax
   14e4d:	48 c1 e0 03          	shl    $0x3,%rax
   14e51:	48 01 d0             	add    %rdx,%rax
   14e54:	48 01 c0             	add    %rax,%rax
   14e57:	48 89 c2             	mov    %rax,%rdx
   14e5a:	48 8d 05 af c9 00 00 	lea    0xc9af(%rip),%rax        # 21810 <g_2039+0x10>
   14e61:	0f b7 04 02          	movzwl (%rdx,%rax,1),%eax
   14e65:	66 c1 e8 06          	shr    $0x6,%ax
   14e69:	83 e0 07             	and    $0x7,%eax
   14e6c:	0f b6 c0             	movzbl %al,%eax
   14e6f:	8b 55 f4             	mov    -0xc(%rbp),%edx
   14e72:	48 8d 35 0c 45 00 00 	lea    0x450c(%rip),%rsi        # 19385 <g_2382+0x2285>
   14e79:	48 89 c7             	mov    %rax,%rdi
   14e7c:	e8 72 28 ff ff       	callq  76f3 <transparent_crc>
   14e81:	8b 45 e8             	mov    -0x18(%rbp),%eax
   14e84:	48 63 d0             	movslq %eax,%rdx
   14e87:	48 89 d0             	mov    %rdx,%rax
   14e8a:	48 c1 e0 03          	shl    $0x3,%rax
   14e8e:	48 01 d0             	add    %rdx,%rax
   14e91:	48 01 c0             	add    %rax,%rax
   14e94:	48 89 c2             	mov    %rax,%rdx
   14e97:	48 8d 05 72 c9 00 00 	lea    0xc972(%rip),%rax        # 21810 <g_2039+0x10>
   14e9e:	0f b7 04 02          	movzwl (%rdx,%rax,1),%eax
   14ea2:	66 c1 e8 09          	shr    $0x9,%ax
   14ea6:	83 e0 07             	and    $0x7,%eax
   14ea9:	0f b6 c0             	movzbl %al,%eax
   14eac:	8b 55 f4             	mov    -0xc(%rbp),%edx
   14eaf:	48 8d 35 dc 44 00 00 	lea    0x44dc(%rip),%rsi        # 19392 <g_2382+0x2292>
   14eb6:	48 89 c7             	mov    %rax,%rdi
   14eb9:	e8 35 28 ff ff       	callq  76f3 <transparent_crc>
   14ebe:	83 7d f4 00          	cmpl   $0x0,-0xc(%rbp)
   14ec2:	74 16                	je     14eda <main+0x5d62>
   14ec4:	8b 45 e8             	mov    -0x18(%rbp),%eax
   14ec7:	89 c6                	mov    %eax,%esi
   14ec9:	48 8d 3d 27 33 00 00 	lea    0x3327(%rip),%rdi        # 181f7 <g_2382+0x10f7>
   14ed0:	b8 00 00 00 00       	mov    $0x0,%eax
   14ed5:	e8 a6 11 ff ff       	callq  6080 <printf@plt>
   14eda:	83 45 e8 01          	addl   $0x1,-0x18(%rbp)
   14ede:	83 7d e8 03          	cmpl   $0x3,-0x18(%rbp)
   14ee2:	0f 8e 25 fe ff ff    	jle    14d0d <main+0x5b95>
   14ee8:	48 8b 05 61 c9 00 00 	mov    0xc961(%rip),%rax        # 21850 <g_2092>
   14eef:	c1 e0 0d             	shl    $0xd,%eax
   14ef2:	c1 f8 0d             	sar    $0xd,%eax
   14ef5:	48 98                	cltq   
   14ef7:	8b 55 f4             	mov    -0xc(%rbp),%edx
   14efa:	48 8d 35 9e 44 00 00 	lea    0x449e(%rip),%rsi        # 1939f <g_2382+0x229f>
   14f01:	48 89 c7             	mov    %rax,%rdi
   14f04:	e8 ea 27 ff ff       	callq  76f3 <transparent_crc>
   14f09:	48 8b 05 40 c9 00 00 	mov    0xc940(%rip),%rax        # 21850 <g_2092>
   14f10:	48 c1 e0 11          	shl    $0x11,%rax
   14f14:	48 c1 f8 24          	sar    $0x24,%rax
   14f18:	48 98                	cltq   
   14f1a:	8b 55 f4             	mov    -0xc(%rbp),%edx
   14f1d:	48 8d 35 85 44 00 00 	lea    0x4485(%rip),%rsi        # 193a9 <g_2382+0x22a9>
   14f24:	48 89 c7             	mov    %rax,%rdi
   14f27:	e8 c7 27 ff ff       	callq  76f3 <transparent_crc>
   14f2c:	48 8b 05 23 c9 00 00 	mov    0xc923(%rip),%rax        # 21856 <g_2092+0x6>
   14f33:	48 89 c1             	mov    %rax,%rcx
   14f36:	8b 45 f4             	mov    -0xc(%rbp),%eax
   14f39:	89 c2                	mov    %eax,%edx
   14f3b:	48 8d 35 71 44 00 00 	lea    0x4471(%rip),%rsi        # 193b3 <g_2382+0x22b3>
   14f42:	48 89 cf             	mov    %rcx,%rdi
   14f45:	e8 a9 27 ff ff       	callq  76f3 <transparent_crc>
   14f4a:	48 8b 05 07 c9 00 00 	mov    0xc907(%rip),%rax        # 21858 <g_2092+0x8>
   14f51:	48 c1 e8 30          	shr    $0x30,%rax
   14f55:	48 89 c2             	mov    %rax,%rdx
   14f58:	48 8b 05 01 c9 00 00 	mov    0xc901(%rip),%rax        # 21860 <g_2092+0x10>
   14f5f:	83 e0 3f             	and    $0x3f,%eax
   14f62:	48 c1 e0 10          	shl    $0x10,%rax
   14f66:	48 09 d0             	or     %rdx,%rax
   14f69:	48 c1 e0 2a          	shl    $0x2a,%rax
   14f6d:	48 c1 f8 2a          	sar    $0x2a,%rax
   14f71:	48 98                	cltq   
   14f73:	8b 55 f4             	mov    -0xc(%rbp),%edx
   14f76:	48 8d 35 40 44 00 00 	lea    0x4440(%rip),%rsi        # 193bd <g_2382+0x22bd>
   14f7d:	48 89 c7             	mov    %rax,%rdi
   14f80:	e8 6e 27 ff ff       	callq  76f3 <transparent_crc>
   14f85:	48 8b 05 d4 c8 00 00 	mov    0xc8d4(%rip),%rax        # 21860 <g_2092+0x10>
   14f8c:	48 c1 e8 06          	shr    $0x6,%rax
   14f90:	83 e0 07             	and    $0x7,%eax
   14f93:	0f b6 c0             	movzbl %al,%eax
   14f96:	8b 55 f4             	mov    -0xc(%rbp),%edx
   14f99:	48 8d 35 27 44 00 00 	lea    0x4427(%rip),%rsi        # 193c7 <g_2382+0x22c7>
   14fa0:	48 89 c7             	mov    %rax,%rdi
   14fa3:	e8 4b 27 ff ff       	callq  76f3 <transparent_crc>
   14fa8:	48 8b 05 b1 c8 00 00 	mov    0xc8b1(%rip),%rax        # 21860 <g_2092+0x10>
   14faf:	48 c1 e8 09          	shr    $0x9,%rax
   14fb3:	83 e0 07             	and    $0x7,%eax
   14fb6:	0f b6 c0             	movzbl %al,%eax
   14fb9:	8b 55 f4             	mov    -0xc(%rbp),%edx
   14fbc:	48 8d 35 0e 44 00 00 	lea    0x440e(%rip),%rsi        # 193d1 <g_2382+0x22d1>
   14fc3:	48 89 c7             	mov    %rax,%rdi
   14fc6:	e8 28 27 ff ff       	callq  76f3 <transparent_crc>
   14fcb:	48 8b 05 ae c8 00 00 	mov    0xc8ae(%rip),%rax        # 21880 <g_2135>
   14fd2:	8b 55 f4             	mov    -0xc(%rbp),%edx
   14fd5:	48 8d 35 ff 43 00 00 	lea    0x43ff(%rip),%rsi        # 193db <g_2382+0x22db>
   14fdc:	48 89 c7             	mov    %rax,%rdi
   14fdf:	e8 0f 27 ff ff       	callq  76f3 <transparent_crc>
   14fe4:	0f b6 05 9d c8 00 00 	movzbl 0xc89d(%rip),%eax        # 21888 <g_2135+0x8>
   14feb:	0f b6 c0             	movzbl %al,%eax
   14fee:	8b 55 f4             	mov    -0xc(%rbp),%edx
   14ff1:	48 8d 35 ed 43 00 00 	lea    0x43ed(%rip),%rsi        # 193e5 <g_2382+0x22e5>
   14ff8:	48 89 c7             	mov    %rax,%rdi
   14ffb:	e8 f3 26 ff ff       	callq  76f3 <transparent_crc>
   15000:	0f b7 05 83 c8 00 00 	movzwl 0xc883(%rip),%eax        # 2188a <g_2135+0xa>
   15007:	0f b7 c0             	movzwl %ax,%eax
   1500a:	8b 55 f4             	mov    -0xc(%rbp),%edx
   1500d:	48 8d 35 db 43 00 00 	lea    0x43db(%rip),%rsi        # 193ef <g_2382+0x22ef>
   15014:	48 89 c7             	mov    %rax,%rdi
   15017:	e8 d7 26 ff ff       	callq  76f3 <transparent_crc>
   1501c:	0f b6 05 69 c8 00 00 	movzbl 0xc869(%rip),%eax        # 2188c <g_2135+0xc>
   15023:	48 0f be c0          	movsbq %al,%rax
   15027:	8b 55 f4             	mov    -0xc(%rbp),%edx
   1502a:	48 8d 35 c8 43 00 00 	lea    0x43c8(%rip),%rsi        # 193f9 <g_2382+0x22f9>
   15031:	48 89 c7             	mov    %rax,%rdi
   15034:	e8 ba 26 ff ff       	callq  76f3 <transparent_crc>
   15039:	0f b6 05 4d c8 00 00 	movzbl 0xc84d(%rip),%eax        # 2188d <g_2135+0xd>
   15040:	83 e0 1f             	and    $0x1f,%eax
   15043:	0f b6 c0             	movzbl %al,%eax
   15046:	8b 55 f4             	mov    -0xc(%rbp),%edx
   15049:	48 8d 35 b3 43 00 00 	lea    0x43b3(%rip),%rsi        # 19403 <g_2382+0x2303>
   15050:	48 89 c7             	mov    %rax,%rdi
   15053:	e8 9b 26 ff ff       	callq  76f3 <transparent_crc>
   15058:	8b 05 2e c8 00 00    	mov    0xc82e(%rip),%eax        # 2188c <g_2135+0xc>
   1505e:	c1 e8 0d             	shr    $0xd,%eax
   15061:	66 25 ff 0f          	and    $0xfff,%ax
   15065:	0f b7 c0             	movzwl %ax,%eax
   15068:	8b 55 f4             	mov    -0xc(%rbp),%edx
   1506b:	48 8d 35 9b 43 00 00 	lea    0x439b(%rip),%rsi        # 1940d <g_2382+0x230d>
   15072:	48 89 c7             	mov    %rax,%rdi
   15075:	e8 79 26 ff ff       	callq  76f3 <transparent_crc>
   1507a:	8b 05 10 c8 00 00    	mov    0xc810(%rip),%eax        # 21890 <g_2135+0x10>
   15080:	48 98                	cltq   
   15082:	8b 55 f4             	mov    -0xc(%rbp),%edx
   15085:	48 8d 35 8b 43 00 00 	lea    0x438b(%rip),%rsi        # 19417 <g_2382+0x2317>
   1508c:	48 89 c7             	mov    %rax,%rdi
   1508f:	e8 5f 26 ff ff       	callq  76f3 <transparent_crc>
   15094:	8b 05 fa c7 00 00    	mov    0xc7fa(%rip),%eax        # 21894 <g_2135+0x14>
   1509a:	89 c1                	mov    %eax,%ecx
   1509c:	8b 45 f4             	mov    -0xc(%rbp),%eax
   1509f:	89 c2                	mov    %eax,%edx
   150a1:	48 8d 35 79 43 00 00 	lea    0x4379(%rip),%rsi        # 19421 <g_2382+0x2321>
   150a8:	48 89 cf             	mov    %rcx,%rdi
   150ab:	e8 43 26 ff ff       	callq  76f3 <transparent_crc>
   150b0:	8b 05 e2 c7 00 00    	mov    0xc7e2(%rip),%eax        # 21898 <g_2135+0x18>
   150b6:	89 c1                	mov    %eax,%ecx
   150b8:	8b 45 f4             	mov    -0xc(%rbp),%eax
   150bb:	89 c2                	mov    %eax,%edx
   150bd:	48 8d 35 67 43 00 00 	lea    0x4367(%rip),%rsi        # 1942b <g_2382+0x232b>
   150c4:	48 89 cf             	mov    %rcx,%rdi
   150c7:	e8 27 26 ff ff       	callq  76f3 <transparent_crc>
   150cc:	48 8b 05 cd c7 00 00 	mov    0xc7cd(%rip),%rax        # 218a0 <g_2135+0x20>
   150d3:	8b 55 f4             	mov    -0xc(%rbp),%edx
   150d6:	48 8d 35 58 43 00 00 	lea    0x4358(%rip),%rsi        # 19435 <g_2382+0x2335>
   150dd:	48 89 c7             	mov    %rax,%rdi
   150e0:	e8 0e 26 ff ff       	callq  76f3 <transparent_crc>
   150e5:	c7 45 e8 00 00 00 00 	movl   $0x0,-0x18(%rbp)
   150ec:	e9 50 02 00 00       	jmpq   15341 <main+0x61c9>
   150f1:	8b 45 e8             	mov    -0x18(%rbp),%eax
   150f4:	48 63 d0             	movslq %eax,%rdx
   150f7:	48 89 d0             	mov    %rdx,%rax
   150fa:	48 c1 e0 02          	shl    $0x2,%rax
   150fe:	48 01 d0             	add    %rdx,%rax
   15101:	48 c1 e0 03          	shl    $0x3,%rax
   15105:	48 89 c2             	mov    %rax,%rdx
   15108:	48 8d 05 b1 c7 00 00 	lea    0xc7b1(%rip),%rax        # 218c0 <g_2174>
   1510f:	48 8b 04 02          	mov    (%rdx,%rax,1),%rax
   15113:	8b 55 f4             	mov    -0xc(%rbp),%edx
   15116:	48 8d 35 22 43 00 00 	lea    0x4322(%rip),%rsi        # 1943f <g_2382+0x233f>
   1511d:	48 89 c7             	mov    %rax,%rdi
   15120:	e8 ce 25 ff ff       	callq  76f3 <transparent_crc>
   15125:	8b 45 e8             	mov    -0x18(%rbp),%eax
   15128:	48 63 d0             	movslq %eax,%rdx
   1512b:	48 89 d0             	mov    %rdx,%rax
   1512e:	48 c1 e0 02          	shl    $0x2,%rax
   15132:	48 01 d0             	add    %rdx,%rax
   15135:	48 c1 e0 03          	shl    $0x3,%rax
   15139:	48 89 c2             	mov    %rax,%rdx
   1513c:	48 8d 05 85 c7 00 00 	lea    0xc785(%rip),%rax        # 218c8 <g_2174+0x8>
   15143:	0f b6 04 02          	movzbl (%rdx,%rax,1),%eax
   15147:	0f b6 c0             	movzbl %al,%eax
   1514a:	8b 55 f4             	mov    -0xc(%rbp),%edx
   1514d:	48 8d 35 f8 42 00 00 	lea    0x42f8(%rip),%rsi        # 1944c <g_2382+0x234c>
   15154:	48 89 c7             	mov    %rax,%rdi
   15157:	e8 97 25 ff ff       	callq  76f3 <transparent_crc>
   1515c:	8b 45 e8             	mov    -0x18(%rbp),%eax
   1515f:	48 63 d0             	movslq %eax,%rdx
   15162:	48 89 d0             	mov    %rdx,%rax
   15165:	48 c1 e0 02          	shl    $0x2,%rax
   15169:	48 01 d0             	add    %rdx,%rax
   1516c:	48 c1 e0 03          	shl    $0x3,%rax
   15170:	48 89 c2             	mov    %rax,%rdx
   15173:	48 8d 05 50 c7 00 00 	lea    0xc750(%rip),%rax        # 218ca <g_2174+0xa>
   1517a:	0f b7 04 02          	movzwl (%rdx,%rax,1),%eax
   1517e:	0f b7 c0             	movzwl %ax,%eax
   15181:	8b 55 f4             	mov    -0xc(%rbp),%edx
   15184:	48 8d 35 ce 42 00 00 	lea    0x42ce(%rip),%rsi        # 19459 <g_2382+0x2359>
   1518b:	48 89 c7             	mov    %rax,%rdi
   1518e:	e8 60 25 ff ff       	callq  76f3 <transparent_crc>
   15193:	8b 45 e8             	mov    -0x18(%rbp),%eax
   15196:	48 63 d0             	movslq %eax,%rdx
   15199:	48 89 d0             	mov    %rdx,%rax
   1519c:	48 c1 e0 02          	shl    $0x2,%rax
   151a0:	48 01 d0             	add    %rdx,%rax
   151a3:	48 c1 e0 03          	shl    $0x3,%rax
   151a7:	48 89 c2             	mov    %rax,%rdx
   151aa:	48 8d 05 1b c7 00 00 	lea    0xc71b(%rip),%rax        # 218cc <g_2174+0xc>
   151b1:	0f b6 04 02          	movzbl (%rdx,%rax,1),%eax
   151b5:	48 0f be c0          	movsbq %al,%rax
   151b9:	8b 55 f4             	mov    -0xc(%rbp),%edx
   151bc:	48 8d 35 a3 42 00 00 	lea    0x42a3(%rip),%rsi        # 19466 <g_2382+0x2366>
   151c3:	48 89 c7             	mov    %rax,%rdi
   151c6:	e8 28 25 ff ff       	callq  76f3 <transparent_crc>
   151cb:	8b 45 e8             	mov    -0x18(%rbp),%eax
   151ce:	48 63 d0             	movslq %eax,%rdx
   151d1:	48 89 d0             	mov    %rdx,%rax
   151d4:	48 c1 e0 02          	shl    $0x2,%rax
   151d8:	48 01 d0             	add    %rdx,%rax
   151db:	48 c1 e0 03          	shl    $0x3,%rax
   151df:	48 89 c2             	mov    %rax,%rdx
   151e2:	48 8d 05 d7 c6 00 00 	lea    0xc6d7(%rip),%rax        # 218c0 <g_2174>
   151e9:	48 8b 44 02 08       	mov    0x8(%rdx,%rax,1),%rax
   151ee:	48 c1 e8 28          	shr    $0x28,%rax
   151f2:	83 e0 1f             	and    $0x1f,%eax
   151f5:	0f b6 c0             	movzbl %al,%eax
   151f8:	8b 55 f4             	mov    -0xc(%rbp),%edx
   151fb:	48 8d 35 71 42 00 00 	lea    0x4271(%rip),%rsi        # 19473 <g_2382+0x2373>
   15202:	48 89 c7             	mov    %rax,%rdi
   15205:	e8 e9 24 ff ff       	callq  76f3 <transparent_crc>
   1520a:	8b 45 e8             	mov    -0x18(%rbp),%eax
   1520d:	48 63 d0             	movslq %eax,%rdx
   15210:	48 89 d0             	mov    %rdx,%rax
   15213:	48 c1 e0 02          	shl    $0x2,%rax
   15217:	48 01 d0             	add    %rdx,%rax
   1521a:	48 c1 e0 03          	shl    $0x3,%rax
   1521e:	48 89 c2             	mov    %rax,%rdx
   15221:	48 8d 05 98 c6 00 00 	lea    0xc698(%rip),%rax        # 218c0 <g_2174>
   15228:	48 8b 44 02 08       	mov    0x8(%rdx,%rax,1),%rax
   1522d:	48 c1 e8 2d          	shr    $0x2d,%rax
   15231:	66 25 ff 0f          	and    $0xfff,%ax
   15235:	0f b7 c0             	movzwl %ax,%eax
   15238:	8b 55 f4             	mov    -0xc(%rbp),%edx
   1523b:	48 8d 35 3e 42 00 00 	lea    0x423e(%rip),%rsi        # 19480 <g_2382+0x2380>
   15242:	48 89 c7             	mov    %rax,%rdi
   15245:	e8 a9 24 ff ff       	callq  76f3 <transparent_crc>
   1524a:	8b 45 e8             	mov    -0x18(%rbp),%eax
   1524d:	48 63 d0             	movslq %eax,%rdx
   15250:	48 89 d0             	mov    %rdx,%rax
   15253:	48 c1 e0 02          	shl    $0x2,%rax
   15257:	48 01 d0             	add    %rdx,%rax
   1525a:	48 c1 e0 03          	shl    $0x3,%rax
   1525e:	48 89 c2             	mov    %rax,%rdx
   15261:	48 8d 05 68 c6 00 00 	lea    0xc668(%rip),%rax        # 218d0 <g_2174+0x10>
   15268:	8b 04 02             	mov    (%rdx,%rax,1),%eax
   1526b:	48 98                	cltq   
   1526d:	8b 55 f4             	mov    -0xc(%rbp),%edx
   15270:	48 8d 35 16 42 00 00 	lea    0x4216(%rip),%rsi        # 1948d <g_2382+0x238d>
   15277:	48 89 c7             	mov    %rax,%rdi
   1527a:	e8 74 24 ff ff       	callq  76f3 <transparent_crc>
   1527f:	8b 45 e8             	mov    -0x18(%rbp),%eax
   15282:	48 63 d0             	movslq %eax,%rdx
   15285:	48 89 d0             	mov    %rdx,%rax
   15288:	48 c1 e0 02          	shl    $0x2,%rax
   1528c:	48 01 d0             	add    %rdx,%rax
   1528f:	48 c1 e0 03          	shl    $0x3,%rax
   15293:	48 89 c2             	mov    %rax,%rdx
   15296:	48 8d 05 37 c6 00 00 	lea    0xc637(%rip),%rax        # 218d4 <g_2174+0x14>
   1529d:	8b 04 02             	mov    (%rdx,%rax,1),%eax
   152a0:	89 c1                	mov    %eax,%ecx
   152a2:	8b 45 f4             	mov    -0xc(%rbp),%eax
   152a5:	89 c2                	mov    %eax,%edx
   152a7:	48 8d 35 ec 41 00 00 	lea    0x41ec(%rip),%rsi        # 1949a <g_2382+0x239a>
   152ae:	48 89 cf             	mov    %rcx,%rdi
   152b1:	e8 3d 24 ff ff       	callq  76f3 <transparent_crc>
   152b6:	8b 45 e8             	mov    -0x18(%rbp),%eax
   152b9:	48 63 d0             	movslq %eax,%rdx
   152bc:	48 89 d0             	mov    %rdx,%rax
   152bf:	48 c1 e0 02          	shl    $0x2,%rax
   152c3:	48 01 d0             	add    %rdx,%rax
   152c6:	48 c1 e0 03          	shl    $0x3,%rax
   152ca:	48 89 c2             	mov    %rax,%rdx
   152cd:	48 8d 05 04 c6 00 00 	lea    0xc604(%rip),%rax        # 218d8 <g_2174+0x18>
   152d4:	8b 04 02             	mov    (%rdx,%rax,1),%eax
   152d7:	89 c1                	mov    %eax,%ecx
   152d9:	8b 45 f4             	mov    -0xc(%rbp),%eax
   152dc:	89 c2                	mov    %eax,%edx
   152de:	48 8d 35 c2 41 00 00 	lea    0x41c2(%rip),%rsi        # 194a7 <g_2382+0x23a7>
   152e5:	48 89 cf             	mov    %rcx,%rdi
   152e8:	e8 06 24 ff ff       	callq  76f3 <transparent_crc>
   152ed:	8b 45 e8             	mov    -0x18(%rbp),%eax
   152f0:	48 63 d0             	movslq %eax,%rdx
   152f3:	48 89 d0             	mov    %rdx,%rax
   152f6:	48 c1 e0 02          	shl    $0x2,%rax
   152fa:	48 01 d0             	add    %rdx,%rax
   152fd:	48 c1 e0 03          	shl    $0x3,%rax
   15301:	48 89 c2             	mov    %rax,%rdx
   15304:	48 8d 05 d5 c5 00 00 	lea    0xc5d5(%rip),%rax        # 218e0 <g_2174+0x20>
   1530b:	48 8b 04 02          	mov    (%rdx,%rax,1),%rax
   1530f:	8b 55 f4             	mov    -0xc(%rbp),%edx
   15312:	48 8d 35 9b 41 00 00 	lea    0x419b(%rip),%rsi        # 194b4 <g_2382+0x23b4>
   15319:	48 89 c7             	mov    %rax,%rdi
   1531c:	e8 d2 23 ff ff       	callq  76f3 <transparent_crc>
   15321:	83 7d f4 00          	cmpl   $0x0,-0xc(%rbp)
   15325:	74 16                	je     1533d <main+0x61c5>
   15327:	8b 45 e8             	mov    -0x18(%rbp),%eax
   1532a:	89 c6                	mov    %eax,%esi
   1532c:	48 8d 3d c4 2e 00 00 	lea    0x2ec4(%rip),%rdi        # 181f7 <g_2382+0x10f7>
   15333:	b8 00 00 00 00       	mov    $0x0,%eax
   15338:	e8 43 0d ff ff       	callq  6080 <printf@plt>
   1533d:	83 45 e8 01          	addl   $0x1,-0x18(%rbp)
   15341:	83 7d e8 09          	cmpl   $0x9,-0x18(%rbp)
   15345:	0f 8e a6 fd ff ff    	jle    150f1 <main+0x5f79>
   1534b:	c7 45 e8 00 00 00 00 	movl   $0x0,-0x18(%rbp)
   15352:	e9 85 03 00 00       	jmpq   156dc <main+0x6564>
   15357:	c7 45 ec 00 00 00 00 	movl   $0x0,-0x14(%rbp)
   1535e:	e9 6b 03 00 00       	jmpq   156ce <main+0x6556>
   15363:	8b 45 ec             	mov    -0x14(%rbp),%eax
   15366:	48 98                	cltq   
   15368:	8b 55 e8             	mov    -0x18(%rbp),%edx
   1536b:	48 63 ca             	movslq %edx,%rcx
   1536e:	48 89 c2             	mov    %rax,%rdx
   15371:	48 c1 e2 02          	shl    $0x2,%rdx
   15375:	48 01 c2             	add    %rax,%rdx
   15378:	48 8d 04 d5 00 00 00 	lea    0x0(,%rdx,8),%rax
   1537f:	00 
   15380:	48 89 c2             	mov    %rax,%rdx
   15383:	48 89 c8             	mov    %rcx,%rax
   15386:	48 c1 e0 02          	shl    $0x2,%rax
   1538a:	48 01 c8             	add    %rcx,%rax
   1538d:	48 c1 e0 04          	shl    $0x4,%rax
   15391:	48 01 c2             	add    %rax,%rdx
   15394:	48 8d 05 c5 c6 00 00 	lea    0xc6c5(%rip),%rax        # 21a60 <g_2218>
   1539b:	48 01 d0             	add    %rdx,%rax
   1539e:	48 8b 00             	mov    (%rax),%rax
   153a1:	8b 55 f4             	mov    -0xc(%rbp),%edx
   153a4:	48 8d 35 16 41 00 00 	lea    0x4116(%rip),%rsi        # 194c1 <g_2382+0x23c1>
   153ab:	48 89 c7             	mov    %rax,%rdi
   153ae:	e8 40 23 ff ff       	callq  76f3 <transparent_crc>
   153b3:	8b 45 ec             	mov    -0x14(%rbp),%eax
   153b6:	48 98                	cltq   
   153b8:	8b 55 e8             	mov    -0x18(%rbp),%edx
   153bb:	48 63 ca             	movslq %edx,%rcx
   153be:	48 89 c2             	mov    %rax,%rdx
   153c1:	48 c1 e2 02          	shl    $0x2,%rdx
   153c5:	48 01 c2             	add    %rax,%rdx
   153c8:	48 8d 04 d5 00 00 00 	lea    0x0(,%rdx,8),%rax
   153cf:	00 
   153d0:	48 89 c2             	mov    %rax,%rdx
   153d3:	48 89 c8             	mov    %rcx,%rax
   153d6:	48 c1 e0 02          	shl    $0x2,%rax
   153da:	48 01 c8             	add    %rcx,%rax
   153dd:	48 c1 e0 04          	shl    $0x4,%rax
   153e1:	48 01 c2             	add    %rax,%rdx
   153e4:	48 8d 05 7d c6 00 00 	lea    0xc67d(%rip),%rax        # 21a68 <g_2218+0x8>
   153eb:	48 01 d0             	add    %rdx,%rax
   153ee:	0f b6 00             	movzbl (%rax),%eax
   153f1:	0f b6 c0             	movzbl %al,%eax
   153f4:	8b 55 f4             	mov    -0xc(%rbp),%edx
   153f7:	48 8d 35 d3 40 00 00 	lea    0x40d3(%rip),%rsi        # 194d1 <g_2382+0x23d1>
   153fe:	48 89 c7             	mov    %rax,%rdi
   15401:	e8 ed 22 ff ff       	callq  76f3 <transparent_crc>
   15406:	8b 45 ec             	mov    -0x14(%rbp),%eax
   15409:	48 98                	cltq   
   1540b:	8b 55 e8             	mov    -0x18(%rbp),%edx
   1540e:	48 63 ca             	movslq %edx,%rcx
   15411:	48 89 c2             	mov    %rax,%rdx
   15414:	48 c1 e2 02          	shl    $0x2,%rdx
   15418:	48 01 c2             	add    %rax,%rdx
   1541b:	48 8d 04 d5 00 00 00 	lea    0x0(,%rdx,8),%rax
   15422:	00 
   15423:	48 89 c2             	mov    %rax,%rdx
   15426:	48 89 c8             	mov    %rcx,%rax
   15429:	48 c1 e0 02          	shl    $0x2,%rax
   1542d:	48 01 c8             	add    %rcx,%rax
   15430:	48 c1 e0 04          	shl    $0x4,%rax
   15434:	48 01 c2             	add    %rax,%rdx
   15437:	48 8d 05 2c c6 00 00 	lea    0xc62c(%rip),%rax        # 21a6a <g_2218+0xa>
   1543e:	48 01 d0             	add    %rdx,%rax
   15441:	0f b7 00             	movzwl (%rax),%eax
   15444:	0f b7 c0             	movzwl %ax,%eax
   15447:	8b 55 f4             	mov    -0xc(%rbp),%edx
   1544a:	48 8d 35 90 40 00 00 	lea    0x4090(%rip),%rsi        # 194e1 <g_2382+0x23e1>
   15451:	48 89 c7             	mov    %rax,%rdi
   15454:	e8 9a 22 ff ff       	callq  76f3 <transparent_crc>
   15459:	8b 45 ec             	mov    -0x14(%rbp),%eax
   1545c:	48 98                	cltq   
   1545e:	8b 55 e8             	mov    -0x18(%rbp),%edx
   15461:	48 63 ca             	movslq %edx,%rcx
   15464:	48 89 c2             	mov    %rax,%rdx
   15467:	48 c1 e2 02          	shl    $0x2,%rdx
   1546b:	48 01 c2             	add    %rax,%rdx
   1546e:	48 8d 04 d5 00 00 00 	lea    0x0(,%rdx,8),%rax
   15475:	00 
   15476:	48 89 c2             	mov    %rax,%rdx
   15479:	48 89 c8             	mov    %rcx,%rax
   1547c:	48 c1 e0 02          	shl    $0x2,%rax
   15480:	48 01 c8             	add    %rcx,%rax
   15483:	48 c1 e0 04          	shl    $0x4,%rax
   15487:	48 01 c2             	add    %rax,%rdx
   1548a:	48 8d 05 db c5 00 00 	lea    0xc5db(%rip),%rax        # 21a6c <g_2218+0xc>
   15491:	48 01 d0             	add    %rdx,%rax
   15494:	0f b6 00             	movzbl (%rax),%eax
   15497:	48 0f be c0          	movsbq %al,%rax
   1549b:	8b 55 f4             	mov    -0xc(%rbp),%edx
   1549e:	48 8d 35 4c 40 00 00 	lea    0x404c(%rip),%rsi        # 194f1 <g_2382+0x23f1>
   154a5:	48 89 c7             	mov    %rax,%rdi
   154a8:	e8 46 22 ff ff       	callq  76f3 <transparent_crc>
   154ad:	8b 45 ec             	mov    -0x14(%rbp),%eax
   154b0:	48 98                	cltq   
   154b2:	8b 55 e8             	mov    -0x18(%rbp),%edx
   154b5:	48 63 ca             	movslq %edx,%rcx
   154b8:	48 89 c2             	mov    %rax,%rdx
   154bb:	48 c1 e2 02          	shl    $0x2,%rdx
   154bf:	48 01 c2             	add    %rax,%rdx
   154c2:	48 8d 04 d5 00 00 00 	lea    0x0(,%rdx,8),%rax
   154c9:	00 
   154ca:	48 89 c2             	mov    %rax,%rdx
   154cd:	48 89 c8             	mov    %rcx,%rax
   154d0:	48 c1 e0 02          	shl    $0x2,%rax
   154d4:	48 01 c8             	add    %rcx,%rax
   154d7:	48 c1 e0 04          	shl    $0x4,%rax
   154db:	48 01 c2             	add    %rax,%rdx
   154de:	48 8d 05 7b c5 00 00 	lea    0xc57b(%rip),%rax        # 21a60 <g_2218>
   154e5:	48 01 d0             	add    %rdx,%rax
   154e8:	48 8b 40 08          	mov    0x8(%rax),%rax
   154ec:	48 c1 e8 28          	shr    $0x28,%rax
   154f0:	83 e0 1f             	and    $0x1f,%eax
   154f3:	0f b6 c0             	movzbl %al,%eax
   154f6:	8b 55 f4             	mov    -0xc(%rbp),%edx
   154f9:	48 8d 35 01 40 00 00 	lea    0x4001(%rip),%rsi        # 19501 <g_2382+0x2401>
   15500:	48 89 c7             	mov    %rax,%rdi
   15503:	e8 eb 21 ff ff       	callq  76f3 <transparent_crc>
   15508:	8b 45 ec             	mov    -0x14(%rbp),%eax
   1550b:	48 98                	cltq   
   1550d:	8b 55 e8             	mov    -0x18(%rbp),%edx
   15510:	48 63 ca             	movslq %edx,%rcx
   15513:	48 89 c2             	mov    %rax,%rdx
   15516:	48 c1 e2 02          	shl    $0x2,%rdx
   1551a:	48 01 c2             	add    %rax,%rdx
   1551d:	48 8d 04 d5 00 00 00 	lea    0x0(,%rdx,8),%rax
   15524:	00 
   15525:	48 89 c2             	mov    %rax,%rdx
   15528:	48 89 c8             	mov    %rcx,%rax
   1552b:	48 c1 e0 02          	shl    $0x2,%rax
   1552f:	48 01 c8             	add    %rcx,%rax
   15532:	48 c1 e0 04          	shl    $0x4,%rax
   15536:	48 01 c2             	add    %rax,%rdx
   15539:	48 8d 05 20 c5 00 00 	lea    0xc520(%rip),%rax        # 21a60 <g_2218>
   15540:	48 01 d0             	add    %rdx,%rax
   15543:	48 8b 40 08          	mov    0x8(%rax),%rax
   15547:	48 c1 e8 2d          	shr    $0x2d,%rax
   1554b:	66 25 ff 0f          	and    $0xfff,%ax
   1554f:	0f b7 c0             	movzwl %ax,%eax
   15552:	8b 55 f4             	mov    -0xc(%rbp),%edx
   15555:	48 8d 35 b5 3f 00 00 	lea    0x3fb5(%rip),%rsi        # 19511 <g_2382+0x2411>
   1555c:	48 89 c7             	mov    %rax,%rdi
   1555f:	e8 8f 21 ff ff       	callq  76f3 <transparent_crc>
   15564:	8b 45 ec             	mov    -0x14(%rbp),%eax
   15567:	48 98                	cltq   
   15569:	8b 55 e8             	mov    -0x18(%rbp),%edx
   1556c:	48 63 ca             	movslq %edx,%rcx
   1556f:	48 89 c2             	mov    %rax,%rdx
   15572:	48 c1 e2 02          	shl    $0x2,%rdx
   15576:	48 01 c2             	add    %rax,%rdx
   15579:	48 8d 04 d5 00 00 00 	lea    0x0(,%rdx,8),%rax
   15580:	00 
   15581:	48 89 c2             	mov    %rax,%rdx
   15584:	48 89 c8             	mov    %rcx,%rax
   15587:	48 c1 e0 02          	shl    $0x2,%rax
   1558b:	48 01 c8             	add    %rcx,%rax
   1558e:	48 c1 e0 04          	shl    $0x4,%rax
   15592:	48 01 c2             	add    %rax,%rdx
   15595:	48 8d 05 d4 c4 00 00 	lea    0xc4d4(%rip),%rax        # 21a70 <g_2218+0x10>
   1559c:	48 01 d0             	add    %rdx,%rax
   1559f:	8b 00                	mov    (%rax),%eax
   155a1:	48 98                	cltq   
   155a3:	8b 55 f4             	mov    -0xc(%rbp),%edx
   155a6:	48 8d 35 74 3f 00 00 	lea    0x3f74(%rip),%rsi        # 19521 <g_2382+0x2421>
   155ad:	48 89 c7             	mov    %rax,%rdi
   155b0:	e8 3e 21 ff ff       	callq  76f3 <transparent_crc>
   155b5:	8b 45 ec             	mov    -0x14(%rbp),%eax
   155b8:	48 98                	cltq   
   155ba:	8b 55 e8             	mov    -0x18(%rbp),%edx
   155bd:	48 63 ca             	movslq %edx,%rcx
   155c0:	48 89 c2             	mov    %rax,%rdx
   155c3:	48 c1 e2 02          	shl    $0x2,%rdx
   155c7:	48 01 c2             	add    %rax,%rdx
   155ca:	48 8d 04 d5 00 00 00 	lea    0x0(,%rdx,8),%rax
   155d1:	00 
   155d2:	48 89 c2             	mov    %rax,%rdx
   155d5:	48 89 c8             	mov    %rcx,%rax
   155d8:	48 c1 e0 02          	shl    $0x2,%rax
   155dc:	48 01 c8             	add    %rcx,%rax
   155df:	48 c1 e0 04          	shl    $0x4,%rax
   155e3:	48 01 c2             	add    %rax,%rdx
   155e6:	48 8d 05 87 c4 00 00 	lea    0xc487(%rip),%rax        # 21a74 <g_2218+0x14>
   155ed:	48 01 d0             	add    %rdx,%rax
   155f0:	8b 00                	mov    (%rax),%eax
   155f2:	89 c1                	mov    %eax,%ecx
   155f4:	8b 45 f4             	mov    -0xc(%rbp),%eax
   155f7:	89 c2                	mov    %eax,%edx
   155f9:	48 8d 35 31 3f 00 00 	lea    0x3f31(%rip),%rsi        # 19531 <g_2382+0x2431>
   15600:	48 89 cf             	mov    %rcx,%rdi
   15603:	e8 eb 20 ff ff       	callq  76f3 <transparent_crc>
   15608:	8b 45 ec             	mov    -0x14(%rbp),%eax
   1560b:	48 98                	cltq   
   1560d:	8b 55 e8             	mov    -0x18(%rbp),%edx
   15610:	48 63 ca             	movslq %edx,%rcx
   15613:	48 89 c2             	mov    %rax,%rdx
   15616:	48 c1 e2 02          	shl    $0x2,%rdx
   1561a:	48 01 c2             	add    %rax,%rdx
   1561d:	48 8d 04 d5 00 00 00 	lea    0x0(,%rdx,8),%rax
   15624:	00 
   15625:	48 89 c2             	mov    %rax,%rdx
   15628:	48 89 c8             	mov    %rcx,%rax
   1562b:	48 c1 e0 02          	shl    $0x2,%rax
   1562f:	48 01 c8             	add    %rcx,%rax
   15632:	48 c1 e0 04          	shl    $0x4,%rax
   15636:	48 01 c2             	add    %rax,%rdx
   15639:	48 8d 05 38 c4 00 00 	lea    0xc438(%rip),%rax        # 21a78 <g_2218+0x18>
   15640:	48 01 d0             	add    %rdx,%rax
   15643:	8b 00                	mov    (%rax),%eax
   15645:	89 c1                	mov    %eax,%ecx
   15647:	8b 45 f4             	mov    -0xc(%rbp),%eax
   1564a:	89 c2                	mov    %eax,%edx
   1564c:	48 8d 35 ee 3e 00 00 	lea    0x3eee(%rip),%rsi        # 19541 <g_2382+0x2441>
   15653:	48 89 cf             	mov    %rcx,%rdi
   15656:	e8 98 20 ff ff       	callq  76f3 <transparent_crc>
   1565b:	8b 45 ec             	mov    -0x14(%rbp),%eax
   1565e:	48 98                	cltq   
   15660:	8b 55 e8             	mov    -0x18(%rbp),%edx
   15663:	48 63 ca             	movslq %edx,%rcx
   15666:	48 89 c2             	mov    %rax,%rdx
   15669:	48 c1 e2 02          	shl    $0x2,%rdx
   1566d:	48 01 c2             	add    %rax,%rdx
   15670:	48 8d 04 d5 00 00 00 	lea    0x0(,%rdx,8),%rax
   15677:	00 
   15678:	48 89 c2             	mov    %rax,%rdx
   1567b:	48 89 c8             	mov    %rcx,%rax
   1567e:	48 c1 e0 02          	shl    $0x2,%rax
   15682:	48 01 c8             	add    %rcx,%rax
   15685:	48 c1 e0 04          	shl    $0x4,%rax
   15689:	48 01 c2             	add    %rax,%rdx
   1568c:	48 8d 05 ed c3 00 00 	lea    0xc3ed(%rip),%rax        # 21a80 <g_2218+0x20>
   15693:	48 01 d0             	add    %rdx,%rax
   15696:	48 8b 00             	mov    (%rax),%rax
   15699:	8b 55 f4             	mov    -0xc(%rbp),%edx
   1569c:	48 8d 35 ae 3e 00 00 	lea    0x3eae(%rip),%rsi        # 19551 <g_2382+0x2451>
   156a3:	48 89 c7             	mov    %rax,%rdi
   156a6:	e8 48 20 ff ff       	callq  76f3 <transparent_crc>
   156ab:	83 7d f4 00          	cmpl   $0x0,-0xc(%rbp)
   156af:	74 19                	je     156ca <main+0x6552>
   156b1:	8b 55 ec             	mov    -0x14(%rbp),%edx
   156b4:	8b 45 e8             	mov    -0x18(%rbp),%eax
   156b7:	89 c6                	mov    %eax,%esi
   156b9:	48 8d 3d 9c 29 00 00 	lea    0x299c(%rip),%rdi        # 1805c <g_2382+0xf5c>
   156c0:	b8 00 00 00 00       	mov    $0x0,%eax
   156c5:	e8 b6 09 ff ff       	callq  6080 <printf@plt>
   156ca:	83 45 ec 01          	addl   $0x1,-0x14(%rbp)
   156ce:	83 7d ec 01          	cmpl   $0x1,-0x14(%rbp)
   156d2:	0f 8e 8b fc ff ff    	jle    15363 <main+0x61eb>
   156d8:	83 45 e8 01          	addl   $0x1,-0x18(%rbp)
   156dc:	83 7d e8 07          	cmpl   $0x7,-0x18(%rbp)
   156e0:	0f 8e 71 fc ff ff    	jle    15357 <main+0x61df>
   156e6:	c7 45 e8 00 00 00 00 	movl   $0x0,-0x18(%rbp)
   156ed:	e9 f5 02 00 00       	jmpq   159e7 <main+0x686f>
   156f2:	c7 45 ec 00 00 00 00 	movl   $0x0,-0x14(%rbp)
   156f9:	e9 db 02 00 00       	jmpq   159d9 <main+0x6861>
   156fe:	c7 45 f0 00 00 00 00 	movl   $0x0,-0x10(%rbp)
   15705:	e9 c1 02 00 00       	jmpq   159cb <main+0x6853>
   1570a:	8b 45 f0             	mov    -0x10(%rbp),%eax
   1570d:	48 98                	cltq   
   1570f:	8b 55 ec             	mov    -0x14(%rbp),%edx
   15712:	48 63 f2             	movslq %edx,%rsi
   15715:	8b 55 e8             	mov    -0x18(%rbp),%edx
   15718:	48 63 ca             	movslq %edx,%rcx
   1571b:	48 89 c2             	mov    %rax,%rdx
   1571e:	48 01 d2             	add    %rdx,%rdx
   15721:	48 01 c2             	add    %rax,%rdx
   15724:	48 8d 04 95 00 00 00 	lea    0x0(,%rdx,4),%rax
   1572b:	00 
   1572c:	48 89 c2             	mov    %rax,%rdx
   1572f:	48 89 f0             	mov    %rsi,%rax
   15732:	48 01 c0             	add    %rax,%rax
   15735:	48 01 f0             	add    %rsi,%rax
   15738:	48 8d 34 c5 00 00 00 	lea    0x0(,%rax,8),%rsi
   1573f:	00 
   15740:	48 01 f0             	add    %rsi,%rax
   15743:	48 c1 e0 02          	shl    $0x2,%rax
   15747:	48 8d 34 02          	lea    (%rdx,%rax,1),%rsi
   1574b:	48 89 c8             	mov    %rcx,%rax
   1574e:	48 c1 e0 03          	shl    $0x3,%rax
   15752:	48 01 c8             	add    %rcx,%rax
   15755:	48 8d 14 c5 00 00 00 	lea    0x0(,%rax,8),%rdx
   1575c:	00 
   1575d:	48 01 d0             	add    %rdx,%rax
   15760:	48 c1 e0 03          	shl    $0x3,%rax
   15764:	48 8d 14 06          	lea    (%rsi,%rax,1),%rdx
   15768:	48 8d 05 71 c5 00 00 	lea    0xc571(%rip),%rax        # 21ce0 <g_2219>
   1576f:	48 01 d0             	add    %rdx,%rax
   15772:	8b 00                	mov    (%rax),%eax
   15774:	25 ff ff ff 1f       	and    $0x1fffffff,%eax
   15779:	89 c1                	mov    %eax,%ecx
   1577b:	8b 45 f4             	mov    -0xc(%rbp),%eax
   1577e:	89 c2                	mov    %eax,%edx
   15780:	48 8d 35 da 3d 00 00 	lea    0x3dda(%rip),%rsi        # 19561 <g_2382+0x2461>
   15787:	48 89 cf             	mov    %rcx,%rdi
   1578a:	e8 64 1f ff ff       	callq  76f3 <transparent_crc>
   1578f:	8b 45 f0             	mov    -0x10(%rbp),%eax
   15792:	48 98                	cltq   
   15794:	8b 55 ec             	mov    -0x14(%rbp),%edx
   15797:	48 63 f2             	movslq %edx,%rsi
   1579a:	8b 55 e8             	mov    -0x18(%rbp),%edx
   1579d:	48 63 ca             	movslq %edx,%rcx
   157a0:	48 89 c2             	mov    %rax,%rdx
   157a3:	48 01 d2             	add    %rdx,%rdx
   157a6:	48 01 c2             	add    %rax,%rdx
   157a9:	48 8d 04 95 00 00 00 	lea    0x0(,%rdx,4),%rax
   157b0:	00 
   157b1:	48 89 c2             	mov    %rax,%rdx
   157b4:	48 89 f0             	mov    %rsi,%rax
   157b7:	48 01 c0             	add    %rax,%rax
   157ba:	48 01 f0             	add    %rsi,%rax
   157bd:	48 8d 34 c5 00 00 00 	lea    0x0(,%rax,8),%rsi
   157c4:	00 
   157c5:	48 01 f0             	add    %rsi,%rax
   157c8:	48 c1 e0 02          	shl    $0x2,%rax
   157cc:	48 8d 34 02          	lea    (%rdx,%rax,1),%rsi
   157d0:	48 89 c8             	mov    %rcx,%rax
   157d3:	48 c1 e0 03          	shl    $0x3,%rax
   157d7:	48 01 c8             	add    %rcx,%rax
   157da:	48 8d 14 c5 00 00 00 	lea    0x0(,%rax,8),%rdx
   157e1:	00 
   157e2:	48 01 d0             	add    %rdx,%rax
   157e5:	48 c1 e0 03          	shl    $0x3,%rax
   157e9:	48 8d 14 06          	lea    (%rsi,%rax,1),%rdx
   157ed:	48 8d 05 ec c4 00 00 	lea    0xc4ec(%rip),%rax        # 21ce0 <g_2219>
   157f4:	48 01 d0             	add    %rdx,%rax
   157f7:	8b 40 04             	mov    0x4(%rax),%eax
   157fa:	c1 e0 06             	shl    $0x6,%eax
   157fd:	66 c1 f8 06          	sar    $0x6,%ax
   15801:	48 0f bf c0          	movswq %ax,%rax
   15805:	8b 55 f4             	mov    -0xc(%rbp),%edx
   15808:	48 8d 35 65 3d 00 00 	lea    0x3d65(%rip),%rsi        # 19574 <g_2382+0x2474>
   1580f:	48 89 c7             	mov    %rax,%rdi
   15812:	e8 dc 1e ff ff       	callq  76f3 <transparent_crc>
   15817:	8b 45 f0             	mov    -0x10(%rbp),%eax
   1581a:	48 98                	cltq   
   1581c:	8b 55 ec             	mov    -0x14(%rbp),%edx
   1581f:	48 63 f2             	movslq %edx,%rsi
   15822:	8b 55 e8             	mov    -0x18(%rbp),%edx
   15825:	48 63 ca             	movslq %edx,%rcx
   15828:	48 89 c2             	mov    %rax,%rdx
   1582b:	48 01 d2             	add    %rdx,%rdx
   1582e:	48 01 c2             	add    %rax,%rdx
   15831:	48 8d 04 95 00 00 00 	lea    0x0(,%rdx,4),%rax
   15838:	00 
   15839:	48 89 c2             	mov    %rax,%rdx
   1583c:	48 89 f0             	mov    %rsi,%rax
   1583f:	48 01 c0             	add    %rax,%rax
   15842:	48 01 f0             	add    %rsi,%rax
   15845:	48 8d 34 c5 00 00 00 	lea    0x0(,%rax,8),%rsi
   1584c:	00 
   1584d:	48 01 f0             	add    %rsi,%rax
   15850:	48 c1 e0 02          	shl    $0x2,%rax
   15854:	48 8d 34 02          	lea    (%rdx,%rax,1),%rsi
   15858:	48 89 c8             	mov    %rcx,%rax
   1585b:	48 c1 e0 03          	shl    $0x3,%rax
   1585f:	48 01 c8             	add    %rcx,%rax
   15862:	48 8d 14 c5 00 00 00 	lea    0x0(,%rax,8),%rdx
   15869:	00 
   1586a:	48 01 d0             	add    %rdx,%rax
   1586d:	48 c1 e0 03          	shl    $0x3,%rax
   15871:	48 8d 14 06          	lea    (%rsi,%rax,1),%rdx
   15875:	48 8d 05 64 c4 00 00 	lea    0xc464(%rip),%rax        # 21ce0 <g_2219>
   1587c:	48 01 d0             	add    %rdx,%rax
   1587f:	8b 40 04             	mov    0x4(%rax),%eax
   15882:	c1 e8 0a             	shr    $0xa,%eax
   15885:	66 25 ff 3f          	and    $0x3fff,%ax
   15889:	0f b7 c0             	movzwl %ax,%eax
   1588c:	8b 55 f4             	mov    -0xc(%rbp),%edx
   1588f:	48 8d 35 f1 3c 00 00 	lea    0x3cf1(%rip),%rsi        # 19587 <g_2382+0x2487>
   15896:	48 89 c7             	mov    %rax,%rdi
   15899:	e8 55 1e ff ff       	callq  76f3 <transparent_crc>
   1589e:	8b 45 f0             	mov    -0x10(%rbp),%eax
   158a1:	48 98                	cltq   
   158a3:	8b 55 ec             	mov    -0x14(%rbp),%edx
   158a6:	48 63 f2             	movslq %edx,%rsi
   158a9:	8b 55 e8             	mov    -0x18(%rbp),%edx
   158ac:	48 63 ca             	movslq %edx,%rcx
   158af:	48 89 c2             	mov    %rax,%rdx
   158b2:	48 01 d2             	add    %rdx,%rdx
   158b5:	48 01 c2             	add    %rax,%rdx
   158b8:	48 8d 04 95 00 00 00 	lea    0x0(,%rdx,4),%rax
   158bf:	00 
   158c0:	48 89 c2             	mov    %rax,%rdx
   158c3:	48 89 f0             	mov    %rsi,%rax
   158c6:	48 01 c0             	add    %rax,%rax
   158c9:	48 01 f0             	add    %rsi,%rax
   158cc:	48 8d 34 c5 00 00 00 	lea    0x0(,%rax,8),%rsi
   158d3:	00 
   158d4:	48 01 f0             	add    %rsi,%rax
   158d7:	48 c1 e0 02          	shl    $0x2,%rax
   158db:	48 8d 34 02          	lea    (%rdx,%rax,1),%rsi
   158df:	48 89 c8             	mov    %rcx,%rax
   158e2:	48 c1 e0 03          	shl    $0x3,%rax
   158e6:	48 01 c8             	add    %rcx,%rax
   158e9:	48 8d 14 c5 00 00 00 	lea    0x0(,%rax,8),%rdx
   158f0:	00 
   158f1:	48 01 d0             	add    %rdx,%rax
   158f4:	48 c1 e0 03          	shl    $0x3,%rax
   158f8:	48 8d 14 06          	lea    (%rsi,%rax,1),%rdx
   158fc:	48 8d 05 e5 c3 00 00 	lea    0xc3e5(%rip),%rax        # 21ce8 <g_2219+0x8>
   15903:	48 01 d0             	add    %rdx,%rax
   15906:	0f b7 00             	movzwl (%rax),%eax
   15909:	0f b7 c0             	movzwl %ax,%eax
   1590c:	8b 55 f4             	mov    -0xc(%rbp),%edx
   1590f:	48 8d 35 84 3c 00 00 	lea    0x3c84(%rip),%rsi        # 1959a <g_2382+0x249a>
   15916:	48 89 c7             	mov    %rax,%rdi
   15919:	e8 d5 1d ff ff       	callq  76f3 <transparent_crc>
   1591e:	8b 45 f0             	mov    -0x10(%rbp),%eax
   15921:	48 98                	cltq   
   15923:	8b 55 ec             	mov    -0x14(%rbp),%edx
   15926:	48 63 f2             	movslq %edx,%rsi
   15929:	8b 55 e8             	mov    -0x18(%rbp),%edx
   1592c:	48 63 ca             	movslq %edx,%rcx
   1592f:	48 89 c2             	mov    %rax,%rdx
   15932:	48 01 d2             	add    %rdx,%rdx
   15935:	48 01 c2             	add    %rax,%rdx
   15938:	48 8d 04 95 00 00 00 	lea    0x0(,%rdx,4),%rax
   1593f:	00 
   15940:	48 89 c2             	mov    %rax,%rdx
   15943:	48 89 f0             	mov    %rsi,%rax
   15946:	48 01 c0             	add    %rax,%rax
   15949:	48 01 f0             	add    %rsi,%rax
   1594c:	48 8d 34 c5 00 00 00 	lea    0x0(,%rax,8),%rsi
   15953:	00 
   15954:	48 01 f0             	add    %rsi,%rax
   15957:	48 c1 e0 02          	shl    $0x2,%rax
   1595b:	48 8d 34 02          	lea    (%rdx,%rax,1),%rsi
   1595f:	48 89 c8             	mov    %rcx,%rax
   15962:	48 c1 e0 03          	shl    $0x3,%rax
   15966:	48 01 c8             	add    %rcx,%rax
   15969:	48 8d 14 c5 00 00 00 	lea    0x0(,%rax,8),%rdx
   15970:	00 
   15971:	48 01 d0             	add    %rdx,%rax
   15974:	48 c1 e0 03          	shl    $0x3,%rax
   15978:	48 8d 14 06          	lea    (%rsi,%rax,1),%rdx
   1597c:	48 8d 05 5d c3 00 00 	lea    0xc35d(%rip),%rax        # 21ce0 <g_2219>
   15983:	48 01 d0             	add    %rdx,%rax
   15986:	8b 40 08             	mov    0x8(%rax),%eax
   15989:	c1 e8 10             	shr    $0x10,%eax
   1598c:	66 25 ff 03          	and    $0x3ff,%ax
   15990:	0f b7 c0             	movzwl %ax,%eax
   15993:	8b 55 f4             	mov    -0xc(%rbp),%edx
   15996:	48 8d 35 10 3c 00 00 	lea    0x3c10(%rip),%rsi        # 195ad <g_2382+0x24ad>
   1599d:	48 89 c7             	mov    %rax,%rdi
   159a0:	e8 4e 1d ff ff       	callq  76f3 <transparent_crc>
   159a5:	83 7d f4 00          	cmpl   $0x0,-0xc(%rbp)
   159a9:	74 1c                	je     159c7 <main+0x684f>
   159ab:	8b 4d f0             	mov    -0x10(%rbp),%ecx
   159ae:	8b 55 ec             	mov    -0x14(%rbp),%edx
   159b1:	8b 45 e8             	mov    -0x18(%rbp),%eax
   159b4:	89 c6                	mov    %eax,%esi
   159b6:	48 8d 3d 4f 2a 00 00 	lea    0x2a4f(%rip),%rdi        # 1840c <g_2382+0x130c>
   159bd:	b8 00 00 00 00       	mov    $0x0,%eax
   159c2:	e8 b9 06 ff ff       	callq  6080 <printf@plt>
   159c7:	83 45 f0 01          	addl   $0x1,-0x10(%rbp)
   159cb:	83 7d f0 08          	cmpl   $0x8,-0x10(%rbp)
   159cf:	0f 8e 35 fd ff ff    	jle    1570a <main+0x6592>
   159d5:	83 45 ec 01          	addl   $0x1,-0x14(%rbp)
   159d9:	83 7d ec 05          	cmpl   $0x5,-0x14(%rbp)
   159dd:	0f 8e 1b fd ff ff    	jle    156fe <main+0x6586>
   159e3:	83 45 e8 01          	addl   $0x1,-0x18(%rbp)
   159e7:	83 7d e8 01          	cmpl   $0x1,-0x18(%rbp)
   159eb:	0f 8e 01 fd ff ff    	jle    156f2 <main+0x657a>
   159f1:	48 8b 05 08 c8 00 00 	mov    0xc808(%rip),%rax        # 22200 <g_2273>
   159f8:	8b 55 f4             	mov    -0xc(%rbp),%edx
   159fb:	48 8d 35 be 3b 00 00 	lea    0x3bbe(%rip),%rsi        # 195c0 <g_2382+0x24c0>
   15a02:	48 89 c7             	mov    %rax,%rdi
   15a05:	e8 e9 1c ff ff       	callq  76f3 <transparent_crc>
   15a0a:	0f b6 05 f7 c7 00 00 	movzbl 0xc7f7(%rip),%eax        # 22208 <g_2273+0x8>
   15a11:	0f b6 c0             	movzbl %al,%eax
   15a14:	8b 55 f4             	mov    -0xc(%rbp),%edx
   15a17:	48 8d 35 ac 3b 00 00 	lea    0x3bac(%rip),%rsi        # 195ca <g_2382+0x24ca>
   15a1e:	48 89 c7             	mov    %rax,%rdi
   15a21:	e8 cd 1c ff ff       	callq  76f3 <transparent_crc>
   15a26:	0f b7 05 dd c7 00 00 	movzwl 0xc7dd(%rip),%eax        # 2220a <g_2273+0xa>
   15a2d:	0f b7 c0             	movzwl %ax,%eax
   15a30:	8b 55 f4             	mov    -0xc(%rbp),%edx
   15a33:	48 8d 35 9a 3b 00 00 	lea    0x3b9a(%rip),%rsi        # 195d4 <g_2382+0x24d4>
   15a3a:	48 89 c7             	mov    %rax,%rdi
   15a3d:	e8 b1 1c ff ff       	callq  76f3 <transparent_crc>
   15a42:	0f b6 05 c3 c7 00 00 	movzbl 0xc7c3(%rip),%eax        # 2220c <g_2273+0xc>
   15a49:	48 0f be c0          	movsbq %al,%rax
   15a4d:	8b 55 f4             	mov    -0xc(%rbp),%edx
   15a50:	48 8d 35 87 3b 00 00 	lea    0x3b87(%rip),%rsi        # 195de <g_2382+0x24de>
   15a57:	48 89 c7             	mov    %rax,%rdi
   15a5a:	e8 94 1c ff ff       	callq  76f3 <transparent_crc>
   15a5f:	48 8b 05 a2 c7 00 00 	mov    0xc7a2(%rip),%rax        # 22208 <g_2273+0x8>
   15a66:	48 c1 e8 28          	shr    $0x28,%rax
   15a6a:	83 e0 1f             	and    $0x1f,%eax
   15a6d:	0f b6 c0             	movzbl %al,%eax
   15a70:	8b 55 f4             	mov    -0xc(%rbp),%edx
   15a73:	48 8d 35 6e 3b 00 00 	lea    0x3b6e(%rip),%rsi        # 195e8 <g_2382+0x24e8>
   15a7a:	48 89 c7             	mov    %rax,%rdi
   15a7d:	e8 71 1c ff ff       	callq  76f3 <transparent_crc>
   15a82:	48 8b 05 7f c7 00 00 	mov    0xc77f(%rip),%rax        # 22208 <g_2273+0x8>
   15a89:	48 c1 e8 2d          	shr    $0x2d,%rax
   15a8d:	66 25 ff 0f          	and    $0xfff,%ax
   15a91:	0f b7 c0             	movzwl %ax,%eax
   15a94:	8b 55 f4             	mov    -0xc(%rbp),%edx
   15a97:	48 8d 35 54 3b 00 00 	lea    0x3b54(%rip),%rsi        # 195f2 <g_2382+0x24f2>
   15a9e:	48 89 c7             	mov    %rax,%rdi
   15aa1:	e8 4d 1c ff ff       	callq  76f3 <transparent_crc>
   15aa6:	8b 05 64 c7 00 00    	mov    0xc764(%rip),%eax        # 22210 <g_2273+0x10>
   15aac:	48 98                	cltq   
   15aae:	8b 55 f4             	mov    -0xc(%rbp),%edx
   15ab1:	48 8d 35 44 3b 00 00 	lea    0x3b44(%rip),%rsi        # 195fc <g_2382+0x24fc>
   15ab8:	48 89 c7             	mov    %rax,%rdi
   15abb:	e8 33 1c ff ff       	callq  76f3 <transparent_crc>
   15ac0:	8b 05 4e c7 00 00    	mov    0xc74e(%rip),%eax        # 22214 <g_2273+0x14>
   15ac6:	89 c1                	mov    %eax,%ecx
   15ac8:	8b 45 f4             	mov    -0xc(%rbp),%eax
   15acb:	89 c2                	mov    %eax,%edx
   15acd:	48 8d 35 32 3b 00 00 	lea    0x3b32(%rip),%rsi        # 19606 <g_2382+0x2506>
   15ad4:	48 89 cf             	mov    %rcx,%rdi
   15ad7:	e8 17 1c ff ff       	callq  76f3 <transparent_crc>
   15adc:	8b 05 36 c7 00 00    	mov    0xc736(%rip),%eax        # 22218 <g_2273+0x18>
   15ae2:	89 c1                	mov    %eax,%ecx
   15ae4:	8b 45 f4             	mov    -0xc(%rbp),%eax
   15ae7:	89 c2                	mov    %eax,%edx
   15ae9:	48 8d 35 20 3b 00 00 	lea    0x3b20(%rip),%rsi        # 19610 <g_2382+0x2510>
   15af0:	48 89 cf             	mov    %rcx,%rdi
   15af3:	e8 fb 1b ff ff       	callq  76f3 <transparent_crc>
   15af8:	48 8b 05 21 c7 00 00 	mov    0xc721(%rip),%rax        # 22220 <g_2273+0x20>
   15aff:	8b 55 f4             	mov    -0xc(%rbp),%edx
   15b02:	48 8d 35 11 3b 00 00 	lea    0x3b11(%rip),%rsi        # 1961a <g_2382+0x251a>
   15b09:	48 89 c7             	mov    %rax,%rdi
   15b0c:	e8 e2 1b ff ff       	callq  76f3 <transparent_crc>
   15b11:	8b 05 19 c7 00 00    	mov    0xc719(%rip),%eax        # 22230 <g_2280>
   15b17:	c1 e0 0d             	shl    $0xd,%eax
   15b1a:	c1 f8 0d             	sar    $0xd,%eax
   15b1d:	48 98                	cltq   
   15b1f:	8b 55 f4             	mov    -0xc(%rbp),%edx
   15b22:	48 8d 35 fb 3a 00 00 	lea    0x3afb(%rip),%rsi        # 19624 <g_2382+0x2524>
   15b29:	48 89 c7             	mov    %rax,%rdi
   15b2c:	e8 c2 1b ff ff       	callq  76f3 <transparent_crc>
   15b31:	48 8b 05 f8 c6 00 00 	mov    0xc6f8(%rip),%rax        # 22230 <g_2280>
   15b38:	48 c1 e0 11          	shl    $0x11,%rax
   15b3c:	48 c1 f8 24          	sar    $0x24,%rax
   15b40:	48 98                	cltq   
   15b42:	8b 55 f4             	mov    -0xc(%rbp),%edx
   15b45:	48 8d 35 e2 3a 00 00 	lea    0x3ae2(%rip),%rsi        # 1962e <g_2382+0x252e>
   15b4c:	48 89 c7             	mov    %rax,%rdi
   15b4f:	e8 9f 1b ff ff       	callq  76f3 <transparent_crc>
   15b54:	48 8b 05 db c6 00 00 	mov    0xc6db(%rip),%rax        # 22236 <g_2280+0x6>
   15b5b:	48 89 c1             	mov    %rax,%rcx
   15b5e:	8b 45 f4             	mov    -0xc(%rbp),%eax
   15b61:	89 c2                	mov    %eax,%edx
   15b63:	48 8d 35 ce 3a 00 00 	lea    0x3ace(%rip),%rsi        # 19638 <g_2382+0x2538>
   15b6a:	48 89 cf             	mov    %rcx,%rdi
   15b6d:	e8 81 1b ff ff       	callq  76f3 <transparent_crc>
   15b72:	48 8b 05 bf c6 00 00 	mov    0xc6bf(%rip),%rax        # 22238 <g_2280+0x8>
   15b79:	48 c1 e8 30          	shr    $0x30,%rax
   15b7d:	48 89 c2             	mov    %rax,%rdx
   15b80:	48 8b 05 b9 c6 00 00 	mov    0xc6b9(%rip),%rax        # 22240 <g_2280+0x10>
   15b87:	83 e0 3f             	and    $0x3f,%eax
   15b8a:	48 c1 e0 10          	shl    $0x10,%rax
   15b8e:	48 09 d0             	or     %rdx,%rax
   15b91:	48 c1 e0 2a          	shl    $0x2a,%rax
   15b95:	48 c1 f8 2a          	sar    $0x2a,%rax
   15b99:	48 98                	cltq   
   15b9b:	8b 55 f4             	mov    -0xc(%rbp),%edx
   15b9e:	48 8d 35 9d 3a 00 00 	lea    0x3a9d(%rip),%rsi        # 19642 <g_2382+0x2542>
   15ba5:	48 89 c7             	mov    %rax,%rdi
   15ba8:	e8 46 1b ff ff       	callq  76f3 <transparent_crc>
   15bad:	0f b7 05 8c c6 00 00 	movzwl 0xc68c(%rip),%eax        # 22240 <g_2280+0x10>
   15bb4:	66 c1 e8 06          	shr    $0x6,%ax
   15bb8:	83 e0 07             	and    $0x7,%eax
   15bbb:	0f b6 c0             	movzbl %al,%eax
   15bbe:	8b 55 f4             	mov    -0xc(%rbp),%edx
   15bc1:	48 8d 35 84 3a 00 00 	lea    0x3a84(%rip),%rsi        # 1964c <g_2382+0x254c>
   15bc8:	48 89 c7             	mov    %rax,%rdi
   15bcb:	e8 23 1b ff ff       	callq  76f3 <transparent_crc>
   15bd0:	48 8b 05 69 c6 00 00 	mov    0xc669(%rip),%rax        # 22240 <g_2280+0x10>
   15bd7:	48 c1 e8 09          	shr    $0x9,%rax
   15bdb:	83 e0 07             	and    $0x7,%eax
   15bde:	0f b6 c0             	movzbl %al,%eax
   15be1:	8b 55 f4             	mov    -0xc(%rbp),%edx
   15be4:	48 8d 35 6b 3a 00 00 	lea    0x3a6b(%rip),%rsi        # 19656 <g_2382+0x2556>
   15beb:	48 89 c7             	mov    %rax,%rdi
   15bee:	e8 00 1b ff ff       	callq  76f3 <transparent_crc>
   15bf3:	48 8b 05 4e c6 00 00 	mov    0xc64e(%rip),%rax        # 22248 <g_2281>
   15bfa:	25 ff ff ff 1f       	and    $0x1fffffff,%eax
   15bff:	89 c1                	mov    %eax,%ecx
   15c01:	8b 45 f4             	mov    -0xc(%rbp),%eax
   15c04:	89 c2                	mov    %eax,%edx
   15c06:	48 8d 35 53 3a 00 00 	lea    0x3a53(%rip),%rsi        # 19660 <g_2382+0x2560>
   15c0d:	48 89 cf             	mov    %rcx,%rdi
   15c10:	e8 de 1a ff ff       	callq  76f3 <transparent_crc>
   15c15:	48 8b 05 2c c6 00 00 	mov    0xc62c(%rip),%rax        # 22248 <g_2281>
   15c1c:	48 c1 e0 16          	shl    $0x16,%rax
   15c20:	48 c1 f8 36          	sar    $0x36,%rax
   15c24:	48 0f bf c0          	movswq %ax,%rax
   15c28:	8b 55 f4             	mov    -0xc(%rbp),%edx
   15c2b:	48 8d 35 38 3a 00 00 	lea    0x3a38(%rip),%rsi        # 1966a <g_2382+0x256a>
   15c32:	48 89 c7             	mov    %rax,%rdi
   15c35:	e8 b9 1a ff ff       	callq  76f3 <transparent_crc>
   15c3a:	48 8b 05 07 c6 00 00 	mov    0xc607(%rip),%rax        # 22248 <g_2281>
   15c41:	48 c1 e8 2a          	shr    $0x2a,%rax
   15c45:	66 25 ff 3f          	and    $0x3fff,%ax
   15c49:	0f b7 c0             	movzwl %ax,%eax
   15c4c:	8b 55 f4             	mov    -0xc(%rbp),%edx
   15c4f:	48 8d 35 1e 3a 00 00 	lea    0x3a1e(%rip),%rsi        # 19674 <g_2382+0x2574>
   15c56:	48 89 c7             	mov    %rax,%rdi
   15c59:	e8 95 1a ff ff       	callq  76f3 <transparent_crc>
   15c5e:	0f b7 05 eb c5 00 00 	movzwl 0xc5eb(%rip),%eax        # 22250 <g_2281+0x8>
   15c65:	0f b7 c0             	movzwl %ax,%eax
   15c68:	8b 55 f4             	mov    -0xc(%rbp),%edx
   15c6b:	48 8d 35 0c 3a 00 00 	lea    0x3a0c(%rip),%rsi        # 1967e <g_2382+0x257e>
   15c72:	48 89 c7             	mov    %rax,%rdi
   15c75:	e8 79 1a ff ff       	callq  76f3 <transparent_crc>
   15c7a:	48 8b 05 cf c5 00 00 	mov    0xc5cf(%rip),%rax        # 22250 <g_2281+0x8>
   15c81:	48 c1 e8 10          	shr    $0x10,%rax
   15c85:	66 25 ff 03          	and    $0x3ff,%ax
   15c89:	0f b7 c0             	movzwl %ax,%eax
   15c8c:	8b 55 f4             	mov    -0xc(%rbp),%edx
   15c8f:	48 8d 35 f2 39 00 00 	lea    0x39f2(%rip),%rsi        # 19688 <g_2382+0x2588>
   15c96:	48 89 c7             	mov    %rax,%rdi
   15c99:	e8 55 1a ff ff       	callq  76f3 <transparent_crc>
   15c9e:	8b 05 b0 c5 00 00    	mov    0xc5b0(%rip),%eax        # 22254 <g_2369>
   15ca4:	89 c1                	mov    %eax,%ecx
   15ca6:	8b 45 f4             	mov    -0xc(%rbp),%eax
   15ca9:	89 c2                	mov    %eax,%edx
   15cab:	48 8d 35 e0 39 00 00 	lea    0x39e0(%rip),%rsi        # 19692 <g_2382+0x2592>
   15cb2:	48 89 cf             	mov    %rcx,%rdi
   15cb5:	e8 39 1a ff ff       	callq  76f3 <transparent_crc>
   15cba:	48 8b 05 97 c5 00 00 	mov    0xc597(%rip),%rax        # 22258 <g_2374>
   15cc1:	48 89 c1             	mov    %rax,%rcx
   15cc4:	8b 45 f4             	mov    -0xc(%rbp),%eax
   15cc7:	89 c2                	mov    %eax,%edx
   15cc9:	48 8d 35 c9 39 00 00 	lea    0x39c9(%rip),%rsi        # 19699 <g_2382+0x2599>
   15cd0:	48 89 cf             	mov    %rcx,%rdi
   15cd3:	e8 1b 1a ff ff       	callq  76f3 <transparent_crc>
   15cd8:	b8 96 fd ff ff       	mov    $0xfffffd96,%eax
   15cdd:	48 98                	cltq   
   15cdf:	8b 55 f4             	mov    -0xc(%rbp),%edx
   15ce2:	48 8d 35 b7 39 00 00 	lea    0x39b7(%rip),%rsi        # 196a0 <g_2382+0x25a0>
   15ce9:	48 89 c7             	mov    %rax,%rdi
   15cec:	e8 02 1a ff ff       	callq  76f3 <transparent_crc>
   15cf1:	48 8b 05 08 14 00 00 	mov    0x1408(%rip),%rax        # 17100 <g_2382>
   15cf8:	48 c1 e0 11          	shl    $0x11,%rax
   15cfc:	48 c1 f8 24          	sar    $0x24,%rax
   15d00:	48 98                	cltq   
   15d02:	8b 55 f4             	mov    -0xc(%rbp),%edx
   15d05:	48 8d 35 9e 39 00 00 	lea    0x399e(%rip),%rsi        # 196aa <g_2382+0x25aa>
   15d0c:	48 89 c7             	mov    %rax,%rdi
   15d0f:	e8 df 19 ff ff       	callq  76f3 <transparent_crc>
   15d14:	48 b8 2f ad c8 52 06 	movabs $0x19e9ac0652c8ad2f,%rax
   15d1b:	ac e9 19 
   15d1e:	48 89 c1             	mov    %rax,%rcx
   15d21:	8b 45 f4             	mov    -0xc(%rbp),%eax
   15d24:	89 c2                	mov    %eax,%edx
   15d26:	48 8d 35 87 39 00 00 	lea    0x3987(%rip),%rsi        # 196b4 <g_2382+0x25b4>
   15d2d:	48 89 cf             	mov    %rcx,%rdi
   15d30:	e8 be 19 ff ff       	callq  76f3 <transparent_crc>
   15d35:	48 8b 05 cc 13 00 00 	mov    0x13cc(%rip),%rax        # 17108 <g_2382+0x8>
   15d3c:	48 c1 e8 30          	shr    $0x30,%rax
   15d40:	48 89 c2             	mov    %rax,%rdx
   15d43:	48 8b 05 c6 13 00 00 	mov    0x13c6(%rip),%rax        # 17110 <g_2382+0x10>
   15d4a:	83 e0 3f             	and    $0x3f,%eax
   15d4d:	48 c1 e0 10          	shl    $0x10,%rax
   15d51:	48 09 d0             	or     %rdx,%rax
   15d54:	48 c1 e0 2a          	shl    $0x2a,%rax
   15d58:	48 c1 f8 2a          	sar    $0x2a,%rax
   15d5c:	48 98                	cltq   
   15d5e:	8b 55 f4             	mov    -0xc(%rbp),%edx
   15d61:	48 8d 35 56 39 00 00 	lea    0x3956(%rip),%rsi        # 196be <g_2382+0x25be>
   15d68:	48 89 c7             	mov    %rax,%rdi
   15d6b:	e8 83 19 ff ff       	callq  76f3 <transparent_crc>
   15d70:	b8 00 00 00 00       	mov    $0x0,%eax
   15d75:	0f b6 c0             	movzbl %al,%eax
   15d78:	8b 55 f4             	mov    -0xc(%rbp),%edx
   15d7b:	48 8d 35 46 39 00 00 	lea    0x3946(%rip),%rsi        # 196c8 <g_2382+0x25c8>
   15d82:	48 89 c7             	mov    %rax,%rdi
   15d85:	e8 69 19 ff ff       	callq  76f3 <transparent_crc>
   15d8a:	48 8b 05 7f 13 00 00 	mov    0x137f(%rip),%rax        # 17110 <g_2382+0x10>
   15d91:	48 c1 e8 09          	shr    $0x9,%rax
   15d95:	83 e0 07             	and    $0x7,%eax
   15d98:	0f b6 c0             	movzbl %al,%eax
   15d9b:	8b 55 f4             	mov    -0xc(%rbp),%edx
   15d9e:	48 8d 35 2d 39 00 00 	lea    0x392d(%rip),%rsi        # 196d2 <g_2382+0x25d2>
   15da5:	48 89 c7             	mov    %rax,%rdi
   15da8:	e8 46 19 ff ff       	callq  76f3 <transparent_crc>
   15dad:	48 8b 05 ac c4 00 00 	mov    0xc4ac(%rip),%rax        # 22260 <g_2383>
   15db4:	8b 55 f4             	mov    -0xc(%rbp),%edx
   15db7:	48 8d 35 1e 39 00 00 	lea    0x391e(%rip),%rsi        # 196dc <g_2382+0x25dc>
   15dbe:	48 89 c7             	mov    %rax,%rdi
   15dc1:	e8 2d 19 ff ff       	callq  76f3 <transparent_crc>
   15dc6:	0f b6 05 9b c4 00 00 	movzbl 0xc49b(%rip),%eax        # 22268 <g_2383+0x8>
   15dcd:	0f b6 c0             	movzbl %al,%eax
   15dd0:	8b 55 f4             	mov    -0xc(%rbp),%edx
   15dd3:	48 8d 35 0c 39 00 00 	lea    0x390c(%rip),%rsi        # 196e6 <g_2382+0x25e6>
   15dda:	48 89 c7             	mov    %rax,%rdi
   15ddd:	e8 11 19 ff ff       	callq  76f3 <transparent_crc>
   15de2:	0f b7 05 81 c4 00 00 	movzwl 0xc481(%rip),%eax        # 2226a <g_2383+0xa>
   15de9:	0f b7 c0             	movzwl %ax,%eax
   15dec:	8b 55 f4             	mov    -0xc(%rbp),%edx
   15def:	48 8d 35 fa 38 00 00 	lea    0x38fa(%rip),%rsi        # 196f0 <g_2382+0x25f0>
   15df6:	48 89 c7             	mov    %rax,%rdi
   15df9:	e8 f5 18 ff ff       	callq  76f3 <transparent_crc>
   15dfe:	0f b6 05 67 c4 00 00 	movzbl 0xc467(%rip),%eax        # 2226c <g_2383+0xc>
   15e05:	48 0f be c0          	movsbq %al,%rax
   15e09:	8b 55 f4             	mov    -0xc(%rbp),%edx
   15e0c:	48 8d 35 e7 38 00 00 	lea    0x38e7(%rip),%rsi        # 196fa <g_2382+0x25fa>
   15e13:	48 89 c7             	mov    %rax,%rdi
   15e16:	e8 d8 18 ff ff       	callq  76f3 <transparent_crc>
   15e1b:	48 8b 05 46 c4 00 00 	mov    0xc446(%rip),%rax        # 22268 <g_2383+0x8>
   15e22:	48 c1 e8 28          	shr    $0x28,%rax
   15e26:	83 e0 1f             	and    $0x1f,%eax
   15e29:	0f b6 c0             	movzbl %al,%eax
   15e2c:	8b 55 f4             	mov    -0xc(%rbp),%edx
   15e2f:	48 8d 35 ce 38 00 00 	lea    0x38ce(%rip),%rsi        # 19704 <g_2382+0x2604>
   15e36:	48 89 c7             	mov    %rax,%rdi
   15e39:	e8 b5 18 ff ff       	callq  76f3 <transparent_crc>
   15e3e:	48 8b 05 23 c4 00 00 	mov    0xc423(%rip),%rax        # 22268 <g_2383+0x8>
   15e45:	48 c1 e8 2d          	shr    $0x2d,%rax
   15e49:	66 25 ff 0f          	and    $0xfff,%ax
   15e4d:	0f b7 c0             	movzwl %ax,%eax
   15e50:	8b 55 f4             	mov    -0xc(%rbp),%edx
   15e53:	48 8d 35 b4 38 00 00 	lea    0x38b4(%rip),%rsi        # 1970e <g_2382+0x260e>
   15e5a:	48 89 c7             	mov    %rax,%rdi
   15e5d:	e8 91 18 ff ff       	callq  76f3 <transparent_crc>
   15e62:	8b 05 08 c4 00 00    	mov    0xc408(%rip),%eax        # 22270 <g_2383+0x10>
   15e68:	48 98                	cltq   
   15e6a:	8b 55 f4             	mov    -0xc(%rbp),%edx
   15e6d:	48 8d 35 a4 38 00 00 	lea    0x38a4(%rip),%rsi        # 19718 <g_2382+0x2618>
   15e74:	48 89 c7             	mov    %rax,%rdi
   15e77:	e8 77 18 ff ff       	callq  76f3 <transparent_crc>
   15e7c:	8b 05 f2 c3 00 00    	mov    0xc3f2(%rip),%eax        # 22274 <g_2383+0x14>
   15e82:	89 c1                	mov    %eax,%ecx
   15e84:	8b 45 f4             	mov    -0xc(%rbp),%eax
   15e87:	89 c2                	mov    %eax,%edx
   15e89:	48 8d 35 92 38 00 00 	lea    0x3892(%rip),%rsi        # 19722 <g_2382+0x2622>
   15e90:	48 89 cf             	mov    %rcx,%rdi
   15e93:	e8 5b 18 ff ff       	callq  76f3 <transparent_crc>
   15e98:	8b 05 da c3 00 00    	mov    0xc3da(%rip),%eax        # 22278 <g_2383+0x18>
   15e9e:	89 c1                	mov    %eax,%ecx
   15ea0:	8b 45 f4             	mov    -0xc(%rbp),%eax
   15ea3:	89 c2                	mov    %eax,%edx
   15ea5:	48 8d 35 80 38 00 00 	lea    0x3880(%rip),%rsi        # 1972c <g_2382+0x262c>
   15eac:	48 89 cf             	mov    %rcx,%rdi
   15eaf:	e8 3f 18 ff ff       	callq  76f3 <transparent_crc>
   15eb4:	48 8b 05 c5 c3 00 00 	mov    0xc3c5(%rip),%rax        # 22280 <g_2383+0x20>
   15ebb:	8b 55 f4             	mov    -0xc(%rbp),%edx
   15ebe:	48 8d 35 71 38 00 00 	lea    0x3871(%rip),%rsi        # 19736 <g_2382+0x2636>
   15ec5:	48 89 c7             	mov    %rax,%rdi
   15ec8:	e8 26 18 ff ff       	callq  76f3 <transparent_crc>
   15ecd:	8b 05 bd c3 00 00    	mov    0xc3bd(%rip),%eax        # 22290 <g_2414>
   15ed3:	c1 e0 0d             	shl    $0xd,%eax
   15ed6:	c1 f8 0d             	sar    $0xd,%eax
   15ed9:	48 98                	cltq   
   15edb:	8b 55 f4             	mov    -0xc(%rbp),%edx
   15ede:	48 8d 35 5b 38 00 00 	lea    0x385b(%rip),%rsi        # 19740 <g_2382+0x2640>
   15ee5:	48 89 c7             	mov    %rax,%rdi
   15ee8:	e8 06 18 ff ff       	callq  76f3 <transparent_crc>
   15eed:	48 8b 05 9c c3 00 00 	mov    0xc39c(%rip),%rax        # 22290 <g_2414>
   15ef4:	48 c1 e0 11          	shl    $0x11,%rax
   15ef8:	48 c1 f8 24          	sar    $0x24,%rax
   15efc:	48 98                	cltq   
   15efe:	8b 55 f4             	mov    -0xc(%rbp),%edx
   15f01:	48 8d 35 42 38 00 00 	lea    0x3842(%rip),%rsi        # 1974a <g_2382+0x264a>
   15f08:	48 89 c7             	mov    %rax,%rdi
   15f0b:	e8 e3 17 ff ff       	callq  76f3 <transparent_crc>
   15f10:	48 8b 05 7f c3 00 00 	mov    0xc37f(%rip),%rax        # 22296 <g_2414+0x6>
   15f17:	48 89 c1             	mov    %rax,%rcx
   15f1a:	8b 45 f4             	mov    -0xc(%rbp),%eax
   15f1d:	89 c2                	mov    %eax,%edx
   15f1f:	48 8d 35 2e 38 00 00 	lea    0x382e(%rip),%rsi        # 19754 <g_2382+0x2654>
   15f26:	48 89 cf             	mov    %rcx,%rdi
   15f29:	e8 c5 17 ff ff       	callq  76f3 <transparent_crc>
   15f2e:	48 8b 05 63 c3 00 00 	mov    0xc363(%rip),%rax        # 22298 <g_2414+0x8>
   15f35:	48 c1 e8 30          	shr    $0x30,%rax
   15f39:	48 89 c2             	mov    %rax,%rdx
   15f3c:	48 8b 05 5d c3 00 00 	mov    0xc35d(%rip),%rax        # 222a0 <g_2414+0x10>
   15f43:	83 e0 3f             	and    $0x3f,%eax
   15f46:	48 c1 e0 10          	shl    $0x10,%rax
   15f4a:	48 09 d0             	or     %rdx,%rax
   15f4d:	48 c1 e0 2a          	shl    $0x2a,%rax
   15f51:	48 c1 f8 2a          	sar    $0x2a,%rax
   15f55:	48 98                	cltq   
   15f57:	8b 55 f4             	mov    -0xc(%rbp),%edx
   15f5a:	48 8d 35 fd 37 00 00 	lea    0x37fd(%rip),%rsi        # 1975e <g_2382+0x265e>
   15f61:	48 89 c7             	mov    %rax,%rdi
   15f64:	e8 8a 17 ff ff       	callq  76f3 <transparent_crc>
   15f69:	0f b7 05 30 c3 00 00 	movzwl 0xc330(%rip),%eax        # 222a0 <g_2414+0x10>
   15f70:	66 c1 e8 06          	shr    $0x6,%ax
   15f74:	83 e0 07             	and    $0x7,%eax
   15f77:	0f b6 c0             	movzbl %al,%eax
   15f7a:	8b 55 f4             	mov    -0xc(%rbp),%edx
   15f7d:	48 8d 35 e4 37 00 00 	lea    0x37e4(%rip),%rsi        # 19768 <g_2382+0x2668>
   15f84:	48 89 c7             	mov    %rax,%rdi
   15f87:	e8 67 17 ff ff       	callq  76f3 <transparent_crc>
   15f8c:	48 8b 05 0d c3 00 00 	mov    0xc30d(%rip),%rax        # 222a0 <g_2414+0x10>
   15f93:	48 c1 e8 09          	shr    $0x9,%rax
   15f97:	83 e0 07             	and    $0x7,%eax
   15f9a:	0f b6 c0             	movzbl %al,%eax
   15f9d:	8b 55 f4             	mov    -0xc(%rbp),%edx
   15fa0:	48 8d 35 cb 37 00 00 	lea    0x37cb(%rip),%rsi        # 19772 <g_2382+0x2672>
   15fa7:	48 89 c7             	mov    %rax,%rdi
   15faa:	e8 44 17 ff ff       	callq  76f3 <transparent_crc>
   15faf:	48 8b 05 0a c3 00 00 	mov    0xc30a(%rip),%rax        # 222c0 <g_2459>
   15fb6:	8b 55 f4             	mov    -0xc(%rbp),%edx
   15fb9:	48 8d 35 bc 37 00 00 	lea    0x37bc(%rip),%rsi        # 1977c <g_2382+0x267c>
   15fc0:	48 89 c7             	mov    %rax,%rdi
   15fc3:	e8 2b 17 ff ff       	callq  76f3 <transparent_crc>
   15fc8:	0f b6 05 f9 c2 00 00 	movzbl 0xc2f9(%rip),%eax        # 222c8 <g_2459+0x8>
   15fcf:	0f b6 c0             	movzbl %al,%eax
   15fd2:	8b 55 f4             	mov    -0xc(%rbp),%edx
   15fd5:	48 8d 35 aa 37 00 00 	lea    0x37aa(%rip),%rsi        # 19786 <g_2382+0x2686>
   15fdc:	48 89 c7             	mov    %rax,%rdi
   15fdf:	e8 0f 17 ff ff       	callq  76f3 <transparent_crc>
   15fe4:	0f b7 05 df c2 00 00 	movzwl 0xc2df(%rip),%eax        # 222ca <g_2459+0xa>
   15feb:	0f b7 c0             	movzwl %ax,%eax
   15fee:	8b 55 f4             	mov    -0xc(%rbp),%edx
   15ff1:	48 8d 35 98 37 00 00 	lea    0x3798(%rip),%rsi        # 19790 <g_2382+0x2690>
   15ff8:	48 89 c7             	mov    %rax,%rdi
   15ffb:	e8 f3 16 ff ff       	callq  76f3 <transparent_crc>
   16000:	0f b6 05 c5 c2 00 00 	movzbl 0xc2c5(%rip),%eax        # 222cc <g_2459+0xc>
   16007:	48 0f be c0          	movsbq %al,%rax
   1600b:	8b 55 f4             	mov    -0xc(%rbp),%edx
   1600e:	48 8d 35 85 37 00 00 	lea    0x3785(%rip),%rsi        # 1979a <g_2382+0x269a>
   16015:	48 89 c7             	mov    %rax,%rdi
   16018:	e8 d6 16 ff ff       	callq  76f3 <transparent_crc>
   1601d:	0f b6 05 a9 c2 00 00 	movzbl 0xc2a9(%rip),%eax        # 222cd <g_2459+0xd>
   16024:	83 e0 1f             	and    $0x1f,%eax
   16027:	0f b6 c0             	movzbl %al,%eax
   1602a:	8b 55 f4             	mov    -0xc(%rbp),%edx
   1602d:	48 8d 35 70 37 00 00 	lea    0x3770(%rip),%rsi        # 197a4 <g_2382+0x26a4>
   16034:	48 89 c7             	mov    %rax,%rdi
   16037:	e8 b7 16 ff ff       	callq  76f3 <transparent_crc>
   1603c:	8b 05 8a c2 00 00    	mov    0xc28a(%rip),%eax        # 222cc <g_2459+0xc>
   16042:	c1 e8 0d             	shr    $0xd,%eax
   16045:	66 25 ff 0f          	and    $0xfff,%ax
   16049:	0f b7 c0             	movzwl %ax,%eax
   1604c:	8b 55 f4             	mov    -0xc(%rbp),%edx
   1604f:	48 8d 35 58 37 00 00 	lea    0x3758(%rip),%rsi        # 197ae <g_2382+0x26ae>
   16056:	48 89 c7             	mov    %rax,%rdi
   16059:	e8 95 16 ff ff       	callq  76f3 <transparent_crc>
   1605e:	8b 05 6c c2 00 00    	mov    0xc26c(%rip),%eax        # 222d0 <g_2459+0x10>
   16064:	48 98                	cltq   
   16066:	8b 55 f4             	mov    -0xc(%rbp),%edx
   16069:	48 8d 35 48 37 00 00 	lea    0x3748(%rip),%rsi        # 197b8 <g_2382+0x26b8>
   16070:	48 89 c7             	mov    %rax,%rdi
   16073:	e8 7b 16 ff ff       	callq  76f3 <transparent_crc>
   16078:	8b 05 56 c2 00 00    	mov    0xc256(%rip),%eax        # 222d4 <g_2459+0x14>
   1607e:	89 c1                	mov    %eax,%ecx
   16080:	8b 45 f4             	mov    -0xc(%rbp),%eax
   16083:	89 c2                	mov    %eax,%edx
   16085:	48 8d 35 36 37 00 00 	lea    0x3736(%rip),%rsi        # 197c2 <g_2382+0x26c2>
   1608c:	48 89 cf             	mov    %rcx,%rdi
   1608f:	e8 5f 16 ff ff       	callq  76f3 <transparent_crc>
   16094:	8b 05 3e c2 00 00    	mov    0xc23e(%rip),%eax        # 222d8 <g_2459+0x18>
   1609a:	89 c1                	mov    %eax,%ecx
   1609c:	8b 45 f4             	mov    -0xc(%rbp),%eax
   1609f:	89 c2                	mov    %eax,%edx
   160a1:	48 8d 35 24 37 00 00 	lea    0x3724(%rip),%rsi        # 197cc <g_2382+0x26cc>
   160a8:	48 89 cf             	mov    %rcx,%rdi
   160ab:	e8 43 16 ff ff       	callq  76f3 <transparent_crc>
   160b0:	48 8b 05 29 c2 00 00 	mov    0xc229(%rip),%rax        # 222e0 <g_2459+0x20>
   160b7:	8b 55 f4             	mov    -0xc(%rbp),%edx
   160ba:	48 8d 35 15 37 00 00 	lea    0x3715(%rip),%rsi        # 197d6 <g_2382+0x26d6>
   160c1:	48 89 c7             	mov    %rax,%rdi
   160c4:	e8 2a 16 ff ff       	callq  76f3 <transparent_crc>
   160c9:	8b 05 21 c2 00 00    	mov    0xc221(%rip),%eax        # 222f0 <g_2485>
   160cf:	c1 e0 0d             	shl    $0xd,%eax
   160d2:	c1 f8 0d             	sar    $0xd,%eax
   160d5:	48 98                	cltq   
   160d7:	8b 55 f4             	mov    -0xc(%rbp),%edx
   160da:	48 8d 35 ff 36 00 00 	lea    0x36ff(%rip),%rsi        # 197e0 <g_2382+0x26e0>
   160e1:	48 89 c7             	mov    %rax,%rdi
   160e4:	e8 0a 16 ff ff       	callq  76f3 <transparent_crc>
   160e9:	48 8b 05 00 c2 00 00 	mov    0xc200(%rip),%rax        # 222f0 <g_2485>
   160f0:	48 c1 e0 11          	shl    $0x11,%rax
   160f4:	48 c1 f8 24          	sar    $0x24,%rax
   160f8:	48 98                	cltq   
   160fa:	8b 55 f4             	mov    -0xc(%rbp),%edx
   160fd:	48 8d 35 e6 36 00 00 	lea    0x36e6(%rip),%rsi        # 197ea <g_2382+0x26ea>
   16104:	48 89 c7             	mov    %rax,%rdi
   16107:	e8 e7 15 ff ff       	callq  76f3 <transparent_crc>
   1610c:	48 8b 05 e3 c1 00 00 	mov    0xc1e3(%rip),%rax        # 222f6 <g_2485+0x6>
   16113:	48 89 c1             	mov    %rax,%rcx
   16116:	8b 45 f4             	mov    -0xc(%rbp),%eax
   16119:	89 c2                	mov    %eax,%edx
   1611b:	48 8d 35 d2 36 00 00 	lea    0x36d2(%rip),%rsi        # 197f4 <g_2382+0x26f4>
   16122:	48 89 cf             	mov    %rcx,%rdi
   16125:	e8 c9 15 ff ff       	callq  76f3 <transparent_crc>
   1612a:	48 8b 05 c7 c1 00 00 	mov    0xc1c7(%rip),%rax        # 222f8 <g_2485+0x8>
   16131:	48 c1 e8 30          	shr    $0x30,%rax
   16135:	48 89 c2             	mov    %rax,%rdx
   16138:	48 8b 05 c1 c1 00 00 	mov    0xc1c1(%rip),%rax        # 22300 <g_2485+0x10>
   1613f:	83 e0 3f             	and    $0x3f,%eax
   16142:	48 c1 e0 10          	shl    $0x10,%rax
   16146:	48 09 d0             	or     %rdx,%rax
   16149:	48 c1 e0 2a          	shl    $0x2a,%rax
   1614d:	48 c1 f8 2a          	sar    $0x2a,%rax
   16151:	48 98                	cltq   
   16153:	8b 55 f4             	mov    -0xc(%rbp),%edx
   16156:	48 8d 35 a1 36 00 00 	lea    0x36a1(%rip),%rsi        # 197fe <g_2382+0x26fe>
   1615d:	48 89 c7             	mov    %rax,%rdi
   16160:	e8 8e 15 ff ff       	callq  76f3 <transparent_crc>
   16165:	0f b7 05 94 c1 00 00 	movzwl 0xc194(%rip),%eax        # 22300 <g_2485+0x10>
   1616c:	66 c1 e8 06          	shr    $0x6,%ax
   16170:	83 e0 07             	and    $0x7,%eax
   16173:	0f b6 c0             	movzbl %al,%eax
   16176:	8b 55 f4             	mov    -0xc(%rbp),%edx
   16179:	48 8d 35 88 36 00 00 	lea    0x3688(%rip),%rsi        # 19808 <g_2382+0x2708>
   16180:	48 89 c7             	mov    %rax,%rdi
   16183:	e8 6b 15 ff ff       	callq  76f3 <transparent_crc>
   16188:	48 8b 05 71 c1 00 00 	mov    0xc171(%rip),%rax        # 22300 <g_2485+0x10>
   1618f:	48 c1 e8 09          	shr    $0x9,%rax
   16193:	83 e0 07             	and    $0x7,%eax
   16196:	0f b6 c0             	movzbl %al,%eax
   16199:	8b 55 f4             	mov    -0xc(%rbp),%edx
   1619c:	48 8d 35 6f 36 00 00 	lea    0x366f(%rip),%rsi        # 19812 <g_2382+0x2712>
   161a3:	48 89 c7             	mov    %rax,%rdi
   161a6:	e8 48 15 ff ff       	callq  76f3 <transparent_crc>
   161ab:	48 8b 05 6e c1 00 00 	mov    0xc16e(%rip),%rax        # 22320 <g_2520>
   161b2:	8b 55 f4             	mov    -0xc(%rbp),%edx
   161b5:	48 8d 35 60 36 00 00 	lea    0x3660(%rip),%rsi        # 1981c <g_2382+0x271c>
   161bc:	48 89 c7             	mov    %rax,%rdi
   161bf:	e8 2f 15 ff ff       	callq  76f3 <transparent_crc>
   161c4:	0f b6 05 5d c1 00 00 	movzbl 0xc15d(%rip),%eax        # 22328 <g_2520+0x8>
   161cb:	0f b6 c0             	movzbl %al,%eax
   161ce:	8b 55 f4             	mov    -0xc(%rbp),%edx
   161d1:	48 8d 35 4e 36 00 00 	lea    0x364e(%rip),%rsi        # 19826 <g_2382+0x2726>
   161d8:	48 89 c7             	mov    %rax,%rdi
   161db:	e8 13 15 ff ff       	callq  76f3 <transparent_crc>
   161e0:	0f b7 05 43 c1 00 00 	movzwl 0xc143(%rip),%eax        # 2232a <g_2520+0xa>
   161e7:	0f b7 c0             	movzwl %ax,%eax
   161ea:	8b 55 f4             	mov    -0xc(%rbp),%edx
   161ed:	48 8d 35 3c 36 00 00 	lea    0x363c(%rip),%rsi        # 19830 <g_2382+0x2730>
   161f4:	48 89 c7             	mov    %rax,%rdi
   161f7:	e8 f7 14 ff ff       	callq  76f3 <transparent_crc>
   161fc:	0f b6 05 29 c1 00 00 	movzbl 0xc129(%rip),%eax        # 2232c <g_2520+0xc>
   16203:	48 0f be c0          	movsbq %al,%rax
   16207:	8b 55 f4             	mov    -0xc(%rbp),%edx
   1620a:	48 8d 35 29 36 00 00 	lea    0x3629(%rip),%rsi        # 1983a <g_2382+0x273a>
   16211:	48 89 c7             	mov    %rax,%rdi
   16214:	e8 da 14 ff ff       	callq  76f3 <transparent_crc>
   16219:	48 8b 05 08 c1 00 00 	mov    0xc108(%rip),%rax        # 22328 <g_2520+0x8>
   16220:	48 c1 e8 28          	shr    $0x28,%rax
   16224:	83 e0 1f             	and    $0x1f,%eax
   16227:	0f b6 c0             	movzbl %al,%eax
   1622a:	8b 55 f4             	mov    -0xc(%rbp),%edx
   1622d:	48 8d 35 10 36 00 00 	lea    0x3610(%rip),%rsi        # 19844 <g_2382+0x2744>
   16234:	48 89 c7             	mov    %rax,%rdi
   16237:	e8 b7 14 ff ff       	callq  76f3 <transparent_crc>
   1623c:	48 8b 05 e5 c0 00 00 	mov    0xc0e5(%rip),%rax        # 22328 <g_2520+0x8>
   16243:	48 c1 e8 2d          	shr    $0x2d,%rax
   16247:	66 25 ff 0f          	and    $0xfff,%ax
   1624b:	0f b7 c0             	movzwl %ax,%eax
   1624e:	8b 55 f4             	mov    -0xc(%rbp),%edx
   16251:	48 8d 35 f6 35 00 00 	lea    0x35f6(%rip),%rsi        # 1984e <g_2382+0x274e>
   16258:	48 89 c7             	mov    %rax,%rdi
   1625b:	e8 93 14 ff ff       	callq  76f3 <transparent_crc>
   16260:	8b 05 ca c0 00 00    	mov    0xc0ca(%rip),%eax        # 22330 <g_2520+0x10>
   16266:	48 98                	cltq   
   16268:	8b 55 f4             	mov    -0xc(%rbp),%edx
   1626b:	48 8d 35 e6 35 00 00 	lea    0x35e6(%rip),%rsi        # 19858 <g_2382+0x2758>
   16272:	48 89 c7             	mov    %rax,%rdi
   16275:	e8 79 14 ff ff       	callq  76f3 <transparent_crc>
   1627a:	8b 05 b4 c0 00 00    	mov    0xc0b4(%rip),%eax        # 22334 <g_2520+0x14>
   16280:	89 c1                	mov    %eax,%ecx
   16282:	8b 45 f4             	mov    -0xc(%rbp),%eax
   16285:	89 c2                	mov    %eax,%edx
   16287:	48 8d 35 d4 35 00 00 	lea    0x35d4(%rip),%rsi        # 19862 <g_2382+0x2762>
   1628e:	48 89 cf             	mov    %rcx,%rdi
   16291:	e8 5d 14 ff ff       	callq  76f3 <transparent_crc>
   16296:	8b 05 9c c0 00 00    	mov    0xc09c(%rip),%eax        # 22338 <g_2520+0x18>
   1629c:	89 c1                	mov    %eax,%ecx
   1629e:	8b 45 f4             	mov    -0xc(%rbp),%eax
   162a1:	89 c2                	mov    %eax,%edx
   162a3:	48 8d 35 c2 35 00 00 	lea    0x35c2(%rip),%rsi        # 1986c <g_2382+0x276c>
   162aa:	48 89 cf             	mov    %rcx,%rdi
   162ad:	e8 41 14 ff ff       	callq  76f3 <transparent_crc>
   162b2:	48 8b 05 87 c0 00 00 	mov    0xc087(%rip),%rax        # 22340 <g_2520+0x20>
   162b9:	8b 55 f4             	mov    -0xc(%rbp),%edx
   162bc:	48 8d 35 b3 35 00 00 	lea    0x35b3(%rip),%rsi        # 19876 <g_2382+0x2776>
   162c3:	48 89 c7             	mov    %rax,%rdi
   162c6:	e8 28 14 ff ff       	callq  76f3 <transparent_crc>
   162cb:	8b 05 4f 5d 00 00    	mov    0x5d4f(%rip),%eax        # 1c020 <crc32_context>
   162d1:	f7 d0                	not    %eax
   162d3:	89 c2                	mov    %eax,%edx
   162d5:	8b 45 f4             	mov    -0xc(%rbp),%eax
   162d8:	89 c6                	mov    %eax,%esi
   162da:	89 d7                	mov    %edx,%edi
   162dc:	e8 b3 fe fe ff       	callq  6194 <platform_main_end>
   162e1:	b8 00 00 00 00       	mov    $0x0,%eax
   162e6:	48 8b 4d f8          	mov    -0x8(%rbp),%rcx
   162ea:	64 48 33 0c 25 28 00 	xor    %fs:0x28,%rcx
   162f1:	00 00 
   162f3:	74 05                	je     162fa <main+0x7182>
   162f5:	e8 76 fd fe ff       	callq  6070 <__stack_chk_fail@plt>
   162fa:	c9                   	leaveq 
   162fb:	c3                   	retq   
   162fc:	0f 1f 40 00          	nopl   0x0(%rax)

0000000000016300 <__libc_csu_init>:
   16300:	f3 0f 1e fa          	endbr64 
   16304:	41 57                	push   %r15
   16306:	4c 8d 3d 93 5a 00 00 	lea    0x5a93(%rip),%r15        # 1bda0 <__frame_dummy_init_array_entry>
   1630d:	41 56                	push   %r14
   1630f:	49 89 d6             	mov    %rdx,%r14
   16312:	41 55                	push   %r13
   16314:	49 89 f5             	mov    %rsi,%r13
   16317:	41 54                	push   %r12
   16319:	41 89 fc             	mov    %edi,%r12d
   1631c:	55                   	push   %rbp
   1631d:	48 8d 2d 84 5a 00 00 	lea    0x5a84(%rip),%rbp        # 1bda8 <__do_global_dtors_aux_fini_array_entry>
   16324:	53                   	push   %rbx
   16325:	4c 29 fd             	sub    %r15,%rbp
   16328:	48 83 ec 08          	sub    $0x8,%rsp
   1632c:	e8 cf fc fe ff       	callq  6000 <_init>
   16331:	48 c1 fd 03          	sar    $0x3,%rbp
   16335:	74 1f                	je     16356 <__libc_csu_init+0x56>
   16337:	31 db                	xor    %ebx,%ebx
   16339:	0f 1f 80 00 00 00 00 	nopl   0x0(%rax)
   16340:	4c 89 f2             	mov    %r14,%rdx
   16343:	4c 89 ee             	mov    %r13,%rsi
   16346:	44 89 e7             	mov    %r12d,%edi
   16349:	41 ff 14 df          	callq  *(%r15,%rbx,8)
   1634d:	48 83 c3 01          	add    $0x1,%rbx
   16351:	48 39 dd             	cmp    %rbx,%rbp
   16354:	75 ea                	jne    16340 <__libc_csu_init+0x40>
   16356:	48 83 c4 08          	add    $0x8,%rsp
   1635a:	5b                   	pop    %rbx
   1635b:	5d                   	pop    %rbp
   1635c:	41 5c                	pop    %r12
   1635e:	41 5d                	pop    %r13
   16360:	41 5e                	pop    %r14
   16362:	41 5f                	pop    %r15
   16364:	c3                   	retq   
   16365:	66 66 2e 0f 1f 84 00 	data16 nopw %cs:0x0(%rax,%rax,1)
   1636c:	00 00 00 00 

0000000000016370 <__libc_csu_fini>:
   16370:	f3 0f 1e fa          	endbr64 
   16374:	c3                   	retq   
