


Disassembly of section .text:

00000000000070a0 <_start>:
    70a0:	f3 0f 1e fa          	endbr64 
    70a4:	31 ed                	xor    %ebp,%ebp
    70a6:	49 89 d1             	mov    %rdx,%r9
    70a9:	5e                   	pop    %rsi
    70aa:	48 89 e2             	mov    %rsp,%rdx
    70ad:	48 83 e4 f0          	and    $0xfffffffffffffff0,%rsp
    70b1:	50                   	push   %rax
    70b2:	54                   	push   %rsp
    70b3:	4c 8d 05 96 58 00 00 	lea    0x5896(%rip),%r8        # c950 <__libc_csu_fini>
    70ba:	48 8d 0d 1f 58 00 00 	lea    0x581f(%rip),%rcx        # c8e0 <__libc_csu_init>
    70c1:	48 8d 3d a6 49 00 00 	lea    0x49a6(%rip),%rdi        # ba6e <main>
    70c8:	ff 15 12 9f 00 00    	callq  *0x9f12(%rip)        # 10fe0 <__libc_start_main@GLIBC_2.2.5>
    70ce:	f4                   	hlt    
    70cf:	90                   	nop

00000000000070d0 <deregister_tm_clones>:
    70d0:	48 8d 3d f1 d0 00 00 	lea    0xd0f1(%rip),%rdi        # 141c8 <__TMC_END__>
    70d7:	48 8d 05 ea d0 00 00 	lea    0xd0ea(%rip),%rax        # 141c8 <__TMC_END__>
    70de:	48 39 f8             	cmp    %rdi,%rax
    70e1:	74 15                	je     70f8 <deregister_tm_clones+0x28>
    70e3:	48 8b 05 ee 9e 00 00 	mov    0x9eee(%rip),%rax        # 10fd8 <_ITM_deregisterTMCloneTable>
    70ea:	48 85 c0             	test   %rax,%rax
    70ed:	74 09                	je     70f8 <deregister_tm_clones+0x28>
    70ef:	ff e0                	jmpq   *%rax
    70f1:	0f 1f 80 00 00 00 00 	nopl   0x0(%rax)
    70f8:	c3                   	retq   
    70f9:	0f 1f 80 00 00 00 00 	nopl   0x0(%rax)

0000000000007100 <register_tm_clones>:
    7100:	48 8d 3d c1 d0 00 00 	lea    0xd0c1(%rip),%rdi        # 141c8 <__TMC_END__>
    7107:	48 8d 35 ba d0 00 00 	lea    0xd0ba(%rip),%rsi        # 141c8 <__TMC_END__>
    710e:	48 29 fe             	sub    %rdi,%rsi
    7111:	48 89 f0             	mov    %rsi,%rax
    7114:	48 c1 ee 3f          	shr    $0x3f,%rsi
    7118:	48 c1 f8 03          	sar    $0x3,%rax
    711c:	48 01 c6             	add    %rax,%rsi
    711f:	48 d1 fe             	sar    %rsi
    7122:	74 14                	je     7138 <register_tm_clones+0x38>
    7124:	48 8b 05 c5 9e 00 00 	mov    0x9ec5(%rip),%rax        # 10ff0 <_ITM_registerTMCloneTable>
    712b:	48 85 c0             	test   %rax,%rax
    712e:	74 08                	je     7138 <register_tm_clones+0x38>
    7130:	ff e0                	jmpq   *%rax
    7132:	66 0f 1f 44 00 00    	nopw   0x0(%rax,%rax,1)
    7138:	c3                   	retq   
    7139:	0f 1f 80 00 00 00 00 	nopl   0x0(%rax)

0000000000007140 <__do_global_dtors_aux>:
    7140:	f3 0f 1e fa          	endbr64 
    7144:	80 3d 95 d0 00 00 00 	cmpb   $0x0,0xd095(%rip)        # 141e0 <completed.8061>
    714b:	75 2b                	jne    7178 <__do_global_dtors_aux+0x38>
    714d:	55                   	push   %rbp
    714e:	48 83 3d a2 9e 00 00 	cmpq   $0x0,0x9ea2(%rip)        # 10ff8 <__cxa_finalize@GLIBC_2.2.5>
    7155:	00 
    7156:	48 89 e5             	mov    %rsp,%rbp
    7159:	74 0c                	je     7167 <__do_global_dtors_aux+0x27>
    715b:	48 8b 3d a6 9e 00 00 	mov    0x9ea6(%rip),%rdi        # 11008 <__dso_handle>
    7162:	e8 f9 fe ff ff       	callq  7060 <__cxa_finalize@plt>
    7167:	e8 64 ff ff ff       	callq  70d0 <deregister_tm_clones>
    716c:	c6 05 6d d0 00 00 01 	movb   $0x1,0xd06d(%rip)        # 141e0 <completed.8061>
    7173:	5d                   	pop    %rbp
    7174:	c3                   	retq   
    7175:	0f 1f 00             	nopl   (%rax)
    7178:	c3                   	retq   
    7179:	0f 1f 80 00 00 00 00 	nopl   0x0(%rax)

0000000000007180 <frame_dummy>:
    7180:	f3 0f 1e fa          	endbr64 
    7184:	e9 77 ff ff ff       	jmpq   7100 <register_tm_clones>

0000000000007189 <platform_main_begin>:
    7189:	f3 0f 1e fa          	endbr64 
    718d:	55                   	push   %rbp
    718e:	48 89 e5             	mov    %rsp,%rbp
    7191:	90                   	nop
    7192:	5d                   	pop    %rbp
    7193:	c3                   	retq   

0000000000007194 <platform_main_end>:
    7194:	f3 0f 1e fa          	endbr64 
    7198:	55                   	push   %rbp
    7199:	48 89 e5             	mov    %rsp,%rbp
    719c:	48 83 ec 10          	sub    $0x10,%rsp
    71a0:	89 7d fc             	mov    %edi,-0x4(%rbp)
    71a3:	89 75 f8             	mov    %esi,-0x8(%rbp)
    71a6:	8b 45 fc             	mov    -0x4(%rbp),%eax
    71a9:	89 c6                	mov    %eax,%esi
    71ab:	48 8d 3d 6e 5e 00 00 	lea    0x5e6e(%rip),%rdi        # d020 <_IO_stdin_used+0x20>
    71b2:	b8 00 00 00 00       	mov    $0x0,%eax
    71b7:	e8 c4 fe ff ff       	callq  7080 <printf@plt>
    71bc:	90                   	nop
    71bd:	c9                   	leaveq 
    71be:	c3                   	retq   

00000000000071bf <safe_unary_minus_func_int8_t_s>:
    71bf:	f3 0f 1e fa          	endbr64 
    71c3:	55                   	push   %rbp
    71c4:	48 89 e5             	mov    %rsp,%rbp
    71c7:	89 f8                	mov    %edi,%eax
    71c9:	88 45 fc             	mov    %al,-0x4(%rbp)
    71cc:	0f b6 45 fc          	movzbl -0x4(%rbp),%eax
    71d0:	f7 d8                	neg    %eax
    71d2:	5d                   	pop    %rbp
    71d3:	c3                   	retq   

00000000000071d4 <safe_add_func_int8_t_s_s>:
    71d4:	f3 0f 1e fa          	endbr64 
    71d8:	55                   	push   %rbp
    71d9:	48 89 e5             	mov    %rsp,%rbp
    71dc:	89 fa                	mov    %edi,%edx
    71de:	89 f0                	mov    %esi,%eax
    71e0:	88 55 fc             	mov    %dl,-0x4(%rbp)
    71e3:	88 45 f8             	mov    %al,-0x8(%rbp)
    71e6:	0f b6 55 fc          	movzbl -0x4(%rbp),%edx
    71ea:	0f b6 45 f8          	movzbl -0x8(%rbp),%eax
    71ee:	01 d0                	add    %edx,%eax
    71f0:	5d                   	pop    %rbp
    71f1:	c3                   	retq   

00000000000071f2 <safe_sub_func_int8_t_s_s>:
    71f2:	f3 0f 1e fa          	endbr64 
    71f6:	55                   	push   %rbp
    71f7:	48 89 e5             	mov    %rsp,%rbp
    71fa:	89 fa                	mov    %edi,%edx
    71fc:	89 f0                	mov    %esi,%eax
    71fe:	88 55 fc             	mov    %dl,-0x4(%rbp)
    7201:	88 45 f8             	mov    %al,-0x8(%rbp)
    7204:	0f b6 55 fc          	movzbl -0x4(%rbp),%edx
    7208:	0f b6 45 f8          	movzbl -0x8(%rbp),%eax
    720c:	29 c2                	sub    %eax,%edx
    720e:	89 d0                	mov    %edx,%eax
    7210:	5d                   	pop    %rbp
    7211:	c3                   	retq   

0000000000007212 <safe_mul_func_int8_t_s_s>:
    7212:	f3 0f 1e fa          	endbr64 
    7216:	55                   	push   %rbp
    7217:	48 89 e5             	mov    %rsp,%rbp
    721a:	89 fa                	mov    %edi,%edx
    721c:	89 f0                	mov    %esi,%eax
    721e:	88 55 fc             	mov    %dl,-0x4(%rbp)
    7221:	88 45 f8             	mov    %al,-0x8(%rbp)
    7224:	0f b6 45 fc          	movzbl -0x4(%rbp),%eax
    7228:	0f b6 55 f8          	movzbl -0x8(%rbp),%edx
    722c:	0f af c2             	imul   %edx,%eax
    722f:	5d                   	pop    %rbp
    7230:	c3                   	retq   

0000000000007231 <safe_mod_func_int8_t_s_s>:
    7231:	f3 0f 1e fa          	endbr64 
    7235:	55                   	push   %rbp
    7236:	48 89 e5             	mov    %rsp,%rbp
    7239:	89 fa                	mov    %edi,%edx
    723b:	89 f0                	mov    %esi,%eax
    723d:	88 55 fc             	mov    %dl,-0x4(%rbp)
    7240:	88 45 f8             	mov    %al,-0x8(%rbp)
    7243:	80 7d f8 00          	cmpb   $0x0,-0x8(%rbp)
    7247:	74 1b                	je     7264 <safe_mod_func_int8_t_s_s+0x33>
    7249:	80 7d fc 80          	cmpb   $0x80,-0x4(%rbp)
    724d:	75 06                	jne    7255 <safe_mod_func_int8_t_s_s+0x24>
    724f:	80 7d f8 ff          	cmpb   $0xff,-0x8(%rbp)
    7253:	74 0f                	je     7264 <safe_mod_func_int8_t_s_s+0x33>
    7255:	0f be 45 fc          	movsbl -0x4(%rbp),%eax
    7259:	0f be 4d f8          	movsbl -0x8(%rbp),%ecx
    725d:	99                   	cltd   
    725e:	f7 f9                	idiv   %ecx
    7260:	89 d0                	mov    %edx,%eax
    7262:	eb 04                	jmp    7268 <safe_mod_func_int8_t_s_s+0x37>
    7264:	0f b6 45 fc          	movzbl -0x4(%rbp),%eax
    7268:	5d                   	pop    %rbp
    7269:	c3                   	retq   

000000000000726a <safe_div_func_int8_t_s_s>:
    726a:	f3 0f 1e fa          	endbr64 
    726e:	55                   	push   %rbp
    726f:	48 89 e5             	mov    %rsp,%rbp
    7272:	89 fa                	mov    %edi,%edx
    7274:	89 f0                	mov    %esi,%eax
    7276:	88 55 fc             	mov    %dl,-0x4(%rbp)
    7279:	88 45 f8             	mov    %al,-0x8(%rbp)
    727c:	80 7d f8 00          	cmpb   $0x0,-0x8(%rbp)
    7280:	74 19                	je     729b <safe_div_func_int8_t_s_s+0x31>
    7282:	80 7d fc 80          	cmpb   $0x80,-0x4(%rbp)
    7286:	75 06                	jne    728e <safe_div_func_int8_t_s_s+0x24>
    7288:	80 7d f8 ff          	cmpb   $0xff,-0x8(%rbp)
    728c:	74 0d                	je     729b <safe_div_func_int8_t_s_s+0x31>
    728e:	0f be 45 fc          	movsbl -0x4(%rbp),%eax
    7292:	0f be 4d f8          	movsbl -0x8(%rbp),%ecx
    7296:	99                   	cltd   
    7297:	f7 f9                	idiv   %ecx
    7299:	eb 04                	jmp    729f <safe_div_func_int8_t_s_s+0x35>
    729b:	0f b6 45 fc          	movzbl -0x4(%rbp),%eax
    729f:	5d                   	pop    %rbp
    72a0:	c3                   	retq   

00000000000072a1 <safe_lshift_func_int8_t_s_s>:
    72a1:	f3 0f 1e fa          	endbr64 
    72a5:	55                   	push   %rbp
    72a6:	48 89 e5             	mov    %rsp,%rbp
    72a9:	89 f8                	mov    %edi,%eax
    72ab:	89 75 f8             	mov    %esi,-0x8(%rbp)
    72ae:	88 45 fc             	mov    %al,-0x4(%rbp)
    72b1:	80 7d fc 00          	cmpb   $0x0,-0x4(%rbp)
    72b5:	78 31                	js     72e8 <safe_lshift_func_int8_t_s_s+0x47>
    72b7:	83 7d f8 00          	cmpl   $0x0,-0x8(%rbp)
    72bb:	78 2b                	js     72e8 <safe_lshift_func_int8_t_s_s+0x47>
    72bd:	83 7d f8 1f          	cmpl   $0x1f,-0x8(%rbp)
    72c1:	7f 25                	jg     72e8 <safe_lshift_func_int8_t_s_s+0x47>
    72c3:	0f be 55 fc          	movsbl -0x4(%rbp),%edx
    72c7:	8b 45 f8             	mov    -0x8(%rbp),%eax
    72ca:	be 7f 00 00 00       	mov    $0x7f,%esi
    72cf:	89 c1                	mov    %eax,%ecx
    72d1:	d3 fe                	sar    %cl,%esi
    72d3:	89 f0                	mov    %esi,%eax
    72d5:	39 c2                	cmp    %eax,%edx
    72d7:	7f 0f                	jg     72e8 <safe_lshift_func_int8_t_s_s+0x47>
    72d9:	0f be 55 fc          	movsbl -0x4(%rbp),%edx
    72dd:	8b 45 f8             	mov    -0x8(%rbp),%eax
    72e0:	89 c1                	mov    %eax,%ecx
    72e2:	d3 e2                	shl    %cl,%edx
    72e4:	89 d0                	mov    %edx,%eax
    72e6:	eb 04                	jmp    72ec <safe_lshift_func_int8_t_s_s+0x4b>
    72e8:	0f b6 45 fc          	movzbl -0x4(%rbp),%eax
    72ec:	5d                   	pop    %rbp
    72ed:	c3                   	retq   

00000000000072ee <safe_lshift_func_int8_t_s_u>:
    72ee:	f3 0f 1e fa          	endbr64 
    72f2:	55                   	push   %rbp
    72f3:	48 89 e5             	mov    %rsp,%rbp
    72f6:	89 f8                	mov    %edi,%eax
    72f8:	89 75 f8             	mov    %esi,-0x8(%rbp)
    72fb:	88 45 fc             	mov    %al,-0x4(%rbp)
    72fe:	80 7d fc 00          	cmpb   $0x0,-0x4(%rbp)
    7302:	78 2b                	js     732f <safe_lshift_func_int8_t_s_u+0x41>
    7304:	83 7d f8 1f          	cmpl   $0x1f,-0x8(%rbp)
    7308:	77 25                	ja     732f <safe_lshift_func_int8_t_s_u+0x41>
    730a:	0f be 55 fc          	movsbl -0x4(%rbp),%edx
    730e:	8b 45 f8             	mov    -0x8(%rbp),%eax
    7311:	be 7f 00 00 00       	mov    $0x7f,%esi
    7316:	89 c1                	mov    %eax,%ecx
    7318:	d3 fe                	sar    %cl,%esi
    731a:	89 f0                	mov    %esi,%eax
    731c:	39 c2                	cmp    %eax,%edx
    731e:	7f 0f                	jg     732f <safe_lshift_func_int8_t_s_u+0x41>
    7320:	0f be 55 fc          	movsbl -0x4(%rbp),%edx
    7324:	8b 45 f8             	mov    -0x8(%rbp),%eax
    7327:	89 c1                	mov    %eax,%ecx
    7329:	d3 e2                	shl    %cl,%edx
    732b:	89 d0                	mov    %edx,%eax
    732d:	eb 04                	jmp    7333 <safe_lshift_func_int8_t_s_u+0x45>
    732f:	0f b6 45 fc          	movzbl -0x4(%rbp),%eax
    7333:	5d                   	pop    %rbp
    7334:	c3                   	retq   

0000000000007335 <safe_rshift_func_int8_t_s_s>:
    7335:	f3 0f 1e fa          	endbr64 
    7339:	55                   	push   %rbp
    733a:	48 89 e5             	mov    %rsp,%rbp
    733d:	89 f8                	mov    %edi,%eax
    733f:	89 75 f8             	mov    %esi,-0x8(%rbp)
    7342:	88 45 fc             	mov    %al,-0x4(%rbp)
    7345:	80 7d fc 00          	cmpb   $0x0,-0x4(%rbp)
    7349:	78 1b                	js     7366 <safe_rshift_func_int8_t_s_s+0x31>
    734b:	83 7d f8 00          	cmpl   $0x0,-0x8(%rbp)
    734f:	78 15                	js     7366 <safe_rshift_func_int8_t_s_s+0x31>
    7351:	83 7d f8 1f          	cmpl   $0x1f,-0x8(%rbp)
    7355:	7f 0f                	jg     7366 <safe_rshift_func_int8_t_s_s+0x31>
    7357:	0f be 55 fc          	movsbl -0x4(%rbp),%edx
    735b:	8b 45 f8             	mov    -0x8(%rbp),%eax
    735e:	89 c1                	mov    %eax,%ecx
    7360:	d3 fa                	sar    %cl,%edx
    7362:	89 d0                	mov    %edx,%eax
    7364:	eb 04                	jmp    736a <safe_rshift_func_int8_t_s_s+0x35>
    7366:	0f b6 45 fc          	movzbl -0x4(%rbp),%eax
    736a:	5d                   	pop    %rbp
    736b:	c3                   	retq   

000000000000736c <safe_rshift_func_int8_t_s_u>:
    736c:	f3 0f 1e fa          	endbr64 
    7370:	55                   	push   %rbp
    7371:	48 89 e5             	mov    %rsp,%rbp
    7374:	89 f8                	mov    %edi,%eax
    7376:	89 75 f8             	mov    %esi,-0x8(%rbp)
    7379:	88 45 fc             	mov    %al,-0x4(%rbp)
    737c:	80 7d fc 00          	cmpb   $0x0,-0x4(%rbp)
    7380:	78 15                	js     7397 <safe_rshift_func_int8_t_s_u+0x2b>
    7382:	83 7d f8 1f          	cmpl   $0x1f,-0x8(%rbp)
    7386:	77 0f                	ja     7397 <safe_rshift_func_int8_t_s_u+0x2b>
    7388:	0f be 55 fc          	movsbl -0x4(%rbp),%edx
    738c:	8b 45 f8             	mov    -0x8(%rbp),%eax
    738f:	89 c1                	mov    %eax,%ecx
    7391:	d3 fa                	sar    %cl,%edx
    7393:	89 d0                	mov    %edx,%eax
    7395:	eb 04                	jmp    739b <safe_rshift_func_int8_t_s_u+0x2f>
    7397:	0f b6 45 fc          	movzbl -0x4(%rbp),%eax
    739b:	5d                   	pop    %rbp
    739c:	c3                   	retq   

000000000000739d <safe_unary_minus_func_int16_t_s>:
    739d:	f3 0f 1e fa          	endbr64 
    73a1:	55                   	push   %rbp
    73a2:	48 89 e5             	mov    %rsp,%rbp
    73a5:	89 f8                	mov    %edi,%eax
    73a7:	66 89 45 fc          	mov    %ax,-0x4(%rbp)
    73ab:	0f b7 45 fc          	movzwl -0x4(%rbp),%eax
    73af:	f7 d8                	neg    %eax
    73b1:	5d                   	pop    %rbp
    73b2:	c3                   	retq   

00000000000073b3 <safe_add_func_int16_t_s_s>:
    73b3:	f3 0f 1e fa          	endbr64 
    73b7:	55                   	push   %rbp
    73b8:	48 89 e5             	mov    %rsp,%rbp
    73bb:	89 fa                	mov    %edi,%edx
    73bd:	89 f0                	mov    %esi,%eax
    73bf:	66 89 55 fc          	mov    %dx,-0x4(%rbp)
    73c3:	66 89 45 f8          	mov    %ax,-0x8(%rbp)
    73c7:	0f b7 55 fc          	movzwl -0x4(%rbp),%edx
    73cb:	0f b7 45 f8          	movzwl -0x8(%rbp),%eax
    73cf:	01 d0                	add    %edx,%eax
    73d1:	5d                   	pop    %rbp
    73d2:	c3                   	retq   

00000000000073d3 <safe_sub_func_int16_t_s_s>:
    73d3:	f3 0f 1e fa          	endbr64 
    73d7:	55                   	push   %rbp
    73d8:	48 89 e5             	mov    %rsp,%rbp
    73db:	89 fa                	mov    %edi,%edx
    73dd:	89 f0                	mov    %esi,%eax
    73df:	66 89 55 fc          	mov    %dx,-0x4(%rbp)
    73e3:	66 89 45 f8          	mov    %ax,-0x8(%rbp)
    73e7:	0f b7 55 fc          	movzwl -0x4(%rbp),%edx
    73eb:	0f b7 45 f8          	movzwl -0x8(%rbp),%eax
    73ef:	29 c2                	sub    %eax,%edx
    73f1:	89 d0                	mov    %edx,%eax
    73f3:	5d                   	pop    %rbp
    73f4:	c3                   	retq   

00000000000073f5 <safe_mul_func_int16_t_s_s>:
    73f5:	f3 0f 1e fa          	endbr64 
    73f9:	55                   	push   %rbp
    73fa:	48 89 e5             	mov    %rsp,%rbp
    73fd:	89 fa                	mov    %edi,%edx
    73ff:	89 f0                	mov    %esi,%eax
    7401:	66 89 55 fc          	mov    %dx,-0x4(%rbp)
    7405:	66 89 45 f8          	mov    %ax,-0x8(%rbp)
    7409:	0f b7 55 fc          	movzwl -0x4(%rbp),%edx
    740d:	0f b7 45 f8          	movzwl -0x8(%rbp),%eax
    7411:	0f af c2             	imul   %edx,%eax
    7414:	5d                   	pop    %rbp
    7415:	c3                   	retq   

0000000000007416 <safe_mod_func_int16_t_s_s>:
    7416:	f3 0f 1e fa          	endbr64 
    741a:	55                   	push   %rbp
    741b:	48 89 e5             	mov    %rsp,%rbp
    741e:	89 fa                	mov    %edi,%edx
    7420:	89 f0                	mov    %esi,%eax
    7422:	66 89 55 fc          	mov    %dx,-0x4(%rbp)
    7426:	66 89 45 f8          	mov    %ax,-0x8(%rbp)
    742a:	66 83 7d f8 00       	cmpw   $0x0,-0x8(%rbp)
    742f:	74 1e                	je     744f <safe_mod_func_int16_t_s_s+0x39>
    7431:	66 81 7d fc 00 80    	cmpw   $0x8000,-0x4(%rbp)
    7437:	75 07                	jne    7440 <safe_mod_func_int16_t_s_s+0x2a>
    7439:	66 83 7d f8 ff       	cmpw   $0xffff,-0x8(%rbp)
    743e:	74 0f                	je     744f <safe_mod_func_int16_t_s_s+0x39>
    7440:	0f bf 45 fc          	movswl -0x4(%rbp),%eax
    7444:	0f bf 4d f8          	movswl -0x8(%rbp),%ecx
    7448:	99                   	cltd   
    7449:	f7 f9                	idiv   %ecx
    744b:	89 d0                	mov    %edx,%eax
    744d:	eb 04                	jmp    7453 <safe_mod_func_int16_t_s_s+0x3d>
    744f:	0f b7 45 fc          	movzwl -0x4(%rbp),%eax
    7453:	5d                   	pop    %rbp
    7454:	c3                   	retq   

0000000000007455 <safe_div_func_int16_t_s_s>:
    7455:	f3 0f 1e fa          	endbr64 
    7459:	55                   	push   %rbp
    745a:	48 89 e5             	mov    %rsp,%rbp
    745d:	89 fa                	mov    %edi,%edx
    745f:	89 f0                	mov    %esi,%eax
    7461:	66 89 55 fc          	mov    %dx,-0x4(%rbp)
    7465:	66 89 45 f8          	mov    %ax,-0x8(%rbp)
    7469:	66 83 7d f8 00       	cmpw   $0x0,-0x8(%rbp)
    746e:	74 1c                	je     748c <safe_div_func_int16_t_s_s+0x37>
    7470:	66 81 7d fc 00 80    	cmpw   $0x8000,-0x4(%rbp)
    7476:	75 07                	jne    747f <safe_div_func_int16_t_s_s+0x2a>
    7478:	66 83 7d f8 ff       	cmpw   $0xffff,-0x8(%rbp)
    747d:	74 0d                	je     748c <safe_div_func_int16_t_s_s+0x37>
    747f:	0f bf 45 fc          	movswl -0x4(%rbp),%eax
    7483:	0f bf 4d f8          	movswl -0x8(%rbp),%ecx
    7487:	99                   	cltd   
    7488:	f7 f9                	idiv   %ecx
    748a:	eb 04                	jmp    7490 <safe_div_func_int16_t_s_s+0x3b>
    748c:	0f b7 45 fc          	movzwl -0x4(%rbp),%eax
    7490:	5d                   	pop    %rbp
    7491:	c3                   	retq   

0000000000007492 <safe_lshift_func_int16_t_s_s>:
    7492:	f3 0f 1e fa          	endbr64 
    7496:	55                   	push   %rbp
    7497:	48 89 e5             	mov    %rsp,%rbp
    749a:	89 f8                	mov    %edi,%eax
    749c:	89 75 f8             	mov    %esi,-0x8(%rbp)
    749f:	66 89 45 fc          	mov    %ax,-0x4(%rbp)
    74a3:	66 83 7d fc 00       	cmpw   $0x0,-0x4(%rbp)
    74a8:	78 31                	js     74db <safe_lshift_func_int16_t_s_s+0x49>
    74aa:	83 7d f8 00          	cmpl   $0x0,-0x8(%rbp)
    74ae:	78 2b                	js     74db <safe_lshift_func_int16_t_s_s+0x49>
    74b0:	83 7d f8 1f          	cmpl   $0x1f,-0x8(%rbp)
    74b4:	7f 25                	jg     74db <safe_lshift_func_int16_t_s_s+0x49>
    74b6:	0f bf 55 fc          	movswl -0x4(%rbp),%edx
    74ba:	8b 45 f8             	mov    -0x8(%rbp),%eax
    74bd:	be ff 7f 00 00       	mov    $0x7fff,%esi
    74c2:	89 c1                	mov    %eax,%ecx
    74c4:	d3 fe                	sar    %cl,%esi
    74c6:	89 f0                	mov    %esi,%eax
    74c8:	39 c2                	cmp    %eax,%edx
    74ca:	7f 0f                	jg     74db <safe_lshift_func_int16_t_s_s+0x49>
    74cc:	0f bf 55 fc          	movswl -0x4(%rbp),%edx
    74d0:	8b 45 f8             	mov    -0x8(%rbp),%eax
    74d3:	89 c1                	mov    %eax,%ecx
    74d5:	d3 e2                	shl    %cl,%edx
    74d7:	89 d0                	mov    %edx,%eax
    74d9:	eb 04                	jmp    74df <safe_lshift_func_int16_t_s_s+0x4d>
    74db:	0f b7 45 fc          	movzwl -0x4(%rbp),%eax
    74df:	5d                   	pop    %rbp
    74e0:	c3                   	retq   

00000000000074e1 <safe_lshift_func_int16_t_s_u>:
    74e1:	f3 0f 1e fa          	endbr64 
    74e5:	55                   	push   %rbp
    74e6:	48 89 e5             	mov    %rsp,%rbp
    74e9:	89 f8                	mov    %edi,%eax
    74eb:	89 75 f8             	mov    %esi,-0x8(%rbp)
    74ee:	66 89 45 fc          	mov    %ax,-0x4(%rbp)
    74f2:	66 83 7d fc 00       	cmpw   $0x0,-0x4(%rbp)
    74f7:	78 2b                	js     7524 <safe_lshift_func_int16_t_s_u+0x43>
    74f9:	83 7d f8 1f          	cmpl   $0x1f,-0x8(%rbp)
    74fd:	77 25                	ja     7524 <safe_lshift_func_int16_t_s_u+0x43>
    74ff:	0f bf 55 fc          	movswl -0x4(%rbp),%edx
    7503:	8b 45 f8             	mov    -0x8(%rbp),%eax
    7506:	be ff 7f 00 00       	mov    $0x7fff,%esi
    750b:	89 c1                	mov    %eax,%ecx
    750d:	d3 fe                	sar    %cl,%esi
    750f:	89 f0                	mov    %esi,%eax
    7511:	39 c2                	cmp    %eax,%edx
    7513:	7f 0f                	jg     7524 <safe_lshift_func_int16_t_s_u+0x43>
    7515:	0f bf 55 fc          	movswl -0x4(%rbp),%edx
    7519:	8b 45 f8             	mov    -0x8(%rbp),%eax
    751c:	89 c1                	mov    %eax,%ecx
    751e:	d3 e2                	shl    %cl,%edx
    7520:	89 d0                	mov    %edx,%eax
    7522:	eb 04                	jmp    7528 <safe_lshift_func_int16_t_s_u+0x47>
    7524:	0f b7 45 fc          	movzwl -0x4(%rbp),%eax
    7528:	5d                   	pop    %rbp
    7529:	c3                   	retq   

000000000000752a <safe_rshift_func_int16_t_s_s>:
    752a:	f3 0f 1e fa          	endbr64 
    752e:	55                   	push   %rbp
    752f:	48 89 e5             	mov    %rsp,%rbp
    7532:	89 f8                	mov    %edi,%eax
    7534:	89 75 f8             	mov    %esi,-0x8(%rbp)
    7537:	66 89 45 fc          	mov    %ax,-0x4(%rbp)
    753b:	66 83 7d fc 00       	cmpw   $0x0,-0x4(%rbp)
    7540:	78 1b                	js     755d <safe_rshift_func_int16_t_s_s+0x33>
    7542:	83 7d f8 00          	cmpl   $0x0,-0x8(%rbp)
    7546:	78 15                	js     755d <safe_rshift_func_int16_t_s_s+0x33>
    7548:	83 7d f8 1f          	cmpl   $0x1f,-0x8(%rbp)
    754c:	7f 0f                	jg     755d <safe_rshift_func_int16_t_s_s+0x33>
    754e:	0f bf 55 fc          	movswl -0x4(%rbp),%edx
    7552:	8b 45 f8             	mov    -0x8(%rbp),%eax
    7555:	89 c1                	mov    %eax,%ecx
    7557:	d3 fa                	sar    %cl,%edx
    7559:	89 d0                	mov    %edx,%eax
    755b:	eb 04                	jmp    7561 <safe_rshift_func_int16_t_s_s+0x37>
    755d:	0f b7 45 fc          	movzwl -0x4(%rbp),%eax
    7561:	5d                   	pop    %rbp
    7562:	c3                   	retq   

0000000000007563 <safe_rshift_func_int16_t_s_u>:
    7563:	f3 0f 1e fa          	endbr64 
    7567:	55                   	push   %rbp
    7568:	48 89 e5             	mov    %rsp,%rbp
    756b:	89 f8                	mov    %edi,%eax
    756d:	89 75 f8             	mov    %esi,-0x8(%rbp)
    7570:	66 89 45 fc          	mov    %ax,-0x4(%rbp)
    7574:	66 83 7d fc 00       	cmpw   $0x0,-0x4(%rbp)
    7579:	78 15                	js     7590 <safe_rshift_func_int16_t_s_u+0x2d>
    757b:	83 7d f8 1f          	cmpl   $0x1f,-0x8(%rbp)
    757f:	77 0f                	ja     7590 <safe_rshift_func_int16_t_s_u+0x2d>
    7581:	0f bf 55 fc          	movswl -0x4(%rbp),%edx
    7585:	8b 45 f8             	mov    -0x8(%rbp),%eax
    7588:	89 c1                	mov    %eax,%ecx
    758a:	d3 fa                	sar    %cl,%edx
    758c:	89 d0                	mov    %edx,%eax
    758e:	eb 04                	jmp    7594 <safe_rshift_func_int16_t_s_u+0x31>
    7590:	0f b7 45 fc          	movzwl -0x4(%rbp),%eax
    7594:	5d                   	pop    %rbp
    7595:	c3                   	retq   

0000000000007596 <safe_unary_minus_func_int32_t_s>:
    7596:	f3 0f 1e fa          	endbr64 
    759a:	55                   	push   %rbp
    759b:	48 89 e5             	mov    %rsp,%rbp
    759e:	89 7d fc             	mov    %edi,-0x4(%rbp)
    75a1:	81 7d fc 00 00 00 80 	cmpl   $0x80000000,-0x4(%rbp)
    75a8:	74 07                	je     75b1 <safe_unary_minus_func_int32_t_s+0x1b>
    75aa:	8b 45 fc             	mov    -0x4(%rbp),%eax
    75ad:	f7 d8                	neg    %eax
    75af:	eb 03                	jmp    75b4 <safe_unary_minus_func_int32_t_s+0x1e>
    75b1:	8b 45 fc             	mov    -0x4(%rbp),%eax
    75b4:	5d                   	pop    %rbp
    75b5:	c3                   	retq   

00000000000075b6 <safe_add_func_int32_t_s_s>:
    75b6:	f3 0f 1e fa          	endbr64 
    75ba:	55                   	push   %rbp
    75bb:	48 89 e5             	mov    %rsp,%rbp
    75be:	89 7d fc             	mov    %edi,-0x4(%rbp)
    75c1:	89 75 f8             	mov    %esi,-0x8(%rbp)
    75c4:	83 7d fc 00          	cmpl   $0x0,-0x4(%rbp)
    75c8:	7e 13                	jle    75dd <safe_add_func_int32_t_s_s+0x27>
    75ca:	83 7d f8 00          	cmpl   $0x0,-0x8(%rbp)
    75ce:	7e 0d                	jle    75dd <safe_add_func_int32_t_s_s+0x27>
    75d0:	b8 ff ff ff 7f       	mov    $0x7fffffff,%eax
    75d5:	2b 45 f8             	sub    -0x8(%rbp),%eax
    75d8:	39 45 fc             	cmp    %eax,-0x4(%rbp)
    75db:	7f 23                	jg     7600 <safe_add_func_int32_t_s_s+0x4a>
    75dd:	83 7d fc 00          	cmpl   $0x0,-0x4(%rbp)
    75e1:	79 13                	jns    75f6 <safe_add_func_int32_t_s_s+0x40>
    75e3:	83 7d f8 00          	cmpl   $0x0,-0x8(%rbp)
    75e7:	79 0d                	jns    75f6 <safe_add_func_int32_t_s_s+0x40>
    75e9:	b8 00 00 00 80       	mov    $0x80000000,%eax
    75ee:	2b 45 f8             	sub    -0x8(%rbp),%eax
    75f1:	39 45 fc             	cmp    %eax,-0x4(%rbp)
    75f4:	7c 0a                	jl     7600 <safe_add_func_int32_t_s_s+0x4a>
    75f6:	8b 55 fc             	mov    -0x4(%rbp),%edx
    75f9:	8b 45 f8             	mov    -0x8(%rbp),%eax
    75fc:	01 d0                	add    %edx,%eax
    75fe:	eb 03                	jmp    7603 <safe_add_func_int32_t_s_s+0x4d>
    7600:	8b 45 fc             	mov    -0x4(%rbp),%eax
    7603:	5d                   	pop    %rbp
    7604:	c3                   	retq   

0000000000007605 <safe_sub_func_int32_t_s_s>:
    7605:	f3 0f 1e fa          	endbr64 
    7609:	55                   	push   %rbp
    760a:	48 89 e5             	mov    %rsp,%rbp
    760d:	89 7d fc             	mov    %edi,-0x4(%rbp)
    7610:	89 75 f8             	mov    %esi,-0x8(%rbp)
    7613:	8b 45 fc             	mov    -0x4(%rbp),%eax
    7616:	33 45 f8             	xor    -0x8(%rbp),%eax
    7619:	89 c2                	mov    %eax,%edx
    761b:	8b 45 fc             	mov    -0x4(%rbp),%eax
    761e:	33 45 f8             	xor    -0x8(%rbp),%eax
    7621:	25 00 00 00 80       	and    $0x80000000,%eax
    7626:	33 45 fc             	xor    -0x4(%rbp),%eax
    7629:	2b 45 f8             	sub    -0x8(%rbp),%eax
    762c:	33 45 f8             	xor    -0x8(%rbp),%eax
    762f:	21 d0                	and    %edx,%eax
    7631:	85 c0                	test   %eax,%eax
    7633:	78 08                	js     763d <safe_sub_func_int32_t_s_s+0x38>
    7635:	8b 45 fc             	mov    -0x4(%rbp),%eax
    7638:	2b 45 f8             	sub    -0x8(%rbp),%eax
    763b:	eb 03                	jmp    7640 <safe_sub_func_int32_t_s_s+0x3b>
    763d:	8b 45 fc             	mov    -0x4(%rbp),%eax
    7640:	5d                   	pop    %rbp
    7641:	c3                   	retq   

0000000000007642 <safe_mul_func_int32_t_s_s>:
    7642:	f3 0f 1e fa          	endbr64 
    7646:	55                   	push   %rbp
    7647:	48 89 e5             	mov    %rsp,%rbp
    764a:	89 7d fc             	mov    %edi,-0x4(%rbp)
    764d:	89 75 f8             	mov    %esi,-0x8(%rbp)
    7650:	83 7d fc 00          	cmpl   $0x0,-0x4(%rbp)
    7654:	7e 14                	jle    766a <safe_mul_func_int32_t_s_s+0x28>
    7656:	83 7d f8 00          	cmpl   $0x0,-0x8(%rbp)
    765a:	7e 0e                	jle    766a <safe_mul_func_int32_t_s_s+0x28>
    765c:	b8 ff ff ff 7f       	mov    $0x7fffffff,%eax
    7661:	99                   	cltd   
    7662:	f7 7d f8             	idivl  -0x8(%rbp)
    7665:	39 45 fc             	cmp    %eax,-0x4(%rbp)
    7668:	7f 5d                	jg     76c7 <safe_mul_func_int32_t_s_s+0x85>
    766a:	83 7d fc 00          	cmpl   $0x0,-0x4(%rbp)
    766e:	7e 14                	jle    7684 <safe_mul_func_int32_t_s_s+0x42>
    7670:	83 7d f8 00          	cmpl   $0x0,-0x8(%rbp)
    7674:	7f 0e                	jg     7684 <safe_mul_func_int32_t_s_s+0x42>
    7676:	b8 00 00 00 80       	mov    $0x80000000,%eax
    767b:	99                   	cltd   
    767c:	f7 7d fc             	idivl  -0x4(%rbp)
    767f:	39 45 f8             	cmp    %eax,-0x8(%rbp)
    7682:	7c 43                	jl     76c7 <safe_mul_func_int32_t_s_s+0x85>
    7684:	83 7d fc 00          	cmpl   $0x0,-0x4(%rbp)
    7688:	7f 14                	jg     769e <safe_mul_func_int32_t_s_s+0x5c>
    768a:	83 7d f8 00          	cmpl   $0x0,-0x8(%rbp)
    768e:	7e 0e                	jle    769e <safe_mul_func_int32_t_s_s+0x5c>
    7690:	b8 00 00 00 80       	mov    $0x80000000,%eax
    7695:	99                   	cltd   
    7696:	f7 7d f8             	idivl  -0x8(%rbp)
    7699:	39 45 fc             	cmp    %eax,-0x4(%rbp)
    769c:	7c 29                	jl     76c7 <safe_mul_func_int32_t_s_s+0x85>
    769e:	83 7d fc 00          	cmpl   $0x0,-0x4(%rbp)
    76a2:	7f 1a                	jg     76be <safe_mul_func_int32_t_s_s+0x7c>
    76a4:	83 7d f8 00          	cmpl   $0x0,-0x8(%rbp)
    76a8:	7f 14                	jg     76be <safe_mul_func_int32_t_s_s+0x7c>
    76aa:	83 7d fc 00          	cmpl   $0x0,-0x4(%rbp)
    76ae:	74 0e                	je     76be <safe_mul_func_int32_t_s_s+0x7c>
    76b0:	b8 ff ff ff 7f       	mov    $0x7fffffff,%eax
    76b5:	99                   	cltd   
    76b6:	f7 7d fc             	idivl  -0x4(%rbp)
    76b9:	39 45 f8             	cmp    %eax,-0x8(%rbp)
    76bc:	7c 09                	jl     76c7 <safe_mul_func_int32_t_s_s+0x85>
    76be:	8b 45 fc             	mov    -0x4(%rbp),%eax
    76c1:	0f af 45 f8          	imul   -0x8(%rbp),%eax
    76c5:	eb 03                	jmp    76ca <safe_mul_func_int32_t_s_s+0x88>
    76c7:	8b 45 fc             	mov    -0x4(%rbp),%eax
    76ca:	5d                   	pop    %rbp
    76cb:	c3                   	retq   

00000000000076cc <safe_mod_func_int32_t_s_s>:
    76cc:	f3 0f 1e fa          	endbr64 
    76d0:	55                   	push   %rbp
    76d1:	48 89 e5             	mov    %rsp,%rbp
    76d4:	89 7d fc             	mov    %edi,-0x4(%rbp)
    76d7:	89 75 f8             	mov    %esi,-0x8(%rbp)
    76da:	83 7d f8 00          	cmpl   $0x0,-0x8(%rbp)
    76de:	74 1a                	je     76fa <safe_mod_func_int32_t_s_s+0x2e>
    76e0:	81 7d fc 00 00 00 80 	cmpl   $0x80000000,-0x4(%rbp)
    76e7:	75 06                	jne    76ef <safe_mod_func_int32_t_s_s+0x23>
    76e9:	83 7d f8 ff          	cmpl   $0xffffffff,-0x8(%rbp)
    76ed:	74 0b                	je     76fa <safe_mod_func_int32_t_s_s+0x2e>
    76ef:	8b 45 fc             	mov    -0x4(%rbp),%eax
    76f2:	99                   	cltd   
    76f3:	f7 7d f8             	idivl  -0x8(%rbp)
    76f6:	89 d0                	mov    %edx,%eax
    76f8:	eb 03                	jmp    76fd <safe_mod_func_int32_t_s_s+0x31>
    76fa:	8b 45 fc             	mov    -0x4(%rbp),%eax
    76fd:	5d                   	pop    %rbp
    76fe:	c3                   	retq   

00000000000076ff <safe_div_func_int32_t_s_s>:
    76ff:	f3 0f 1e fa          	endbr64 
    7703:	55                   	push   %rbp
    7704:	48 89 e5             	mov    %rsp,%rbp
    7707:	89 7d fc             	mov    %edi,-0x4(%rbp)
    770a:	89 75 f8             	mov    %esi,-0x8(%rbp)
    770d:	83 7d f8 00          	cmpl   $0x0,-0x8(%rbp)
    7711:	74 18                	je     772b <safe_div_func_int32_t_s_s+0x2c>
    7713:	81 7d fc 00 00 00 80 	cmpl   $0x80000000,-0x4(%rbp)
    771a:	75 06                	jne    7722 <safe_div_func_int32_t_s_s+0x23>
    771c:	83 7d f8 ff          	cmpl   $0xffffffff,-0x8(%rbp)
    7720:	74 09                	je     772b <safe_div_func_int32_t_s_s+0x2c>
    7722:	8b 45 fc             	mov    -0x4(%rbp),%eax
    7725:	99                   	cltd   
    7726:	f7 7d f8             	idivl  -0x8(%rbp)
    7729:	eb 03                	jmp    772e <safe_div_func_int32_t_s_s+0x2f>
    772b:	8b 45 fc             	mov    -0x4(%rbp),%eax
    772e:	5d                   	pop    %rbp
    772f:	c3                   	retq   

0000000000007730 <safe_lshift_func_int32_t_s_s>:
    7730:	f3 0f 1e fa          	endbr64 
    7734:	55                   	push   %rbp
    7735:	48 89 e5             	mov    %rsp,%rbp
    7738:	89 7d fc             	mov    %edi,-0x4(%rbp)
    773b:	89 75 f8             	mov    %esi,-0x8(%rbp)
    773e:	83 7d fc 00          	cmpl   $0x0,-0x4(%rbp)
    7742:	78 2d                	js     7771 <safe_lshift_func_int32_t_s_s+0x41>
    7744:	83 7d f8 00          	cmpl   $0x0,-0x8(%rbp)
    7748:	78 27                	js     7771 <safe_lshift_func_int32_t_s_s+0x41>
    774a:	83 7d f8 1f          	cmpl   $0x1f,-0x8(%rbp)
    774e:	7f 21                	jg     7771 <safe_lshift_func_int32_t_s_s+0x41>
    7750:	8b 45 f8             	mov    -0x8(%rbp),%eax
    7753:	ba ff ff ff 7f       	mov    $0x7fffffff,%edx
    7758:	89 c1                	mov    %eax,%ecx
    775a:	d3 fa                	sar    %cl,%edx
    775c:	89 d0                	mov    %edx,%eax
    775e:	39 45 fc             	cmp    %eax,-0x4(%rbp)
    7761:	7f 0e                	jg     7771 <safe_lshift_func_int32_t_s_s+0x41>
    7763:	8b 45 f8             	mov    -0x8(%rbp),%eax
    7766:	8b 55 fc             	mov    -0x4(%rbp),%edx
    7769:	89 c1                	mov    %eax,%ecx
    776b:	d3 e2                	shl    %cl,%edx
    776d:	89 d0                	mov    %edx,%eax
    776f:	eb 03                	jmp    7774 <safe_lshift_func_int32_t_s_s+0x44>
    7771:	8b 45 fc             	mov    -0x4(%rbp),%eax
    7774:	5d                   	pop    %rbp
    7775:	c3                   	retq   

0000000000007776 <safe_lshift_func_int32_t_s_u>:
    7776:	f3 0f 1e fa          	endbr64 
    777a:	55                   	push   %rbp
    777b:	48 89 e5             	mov    %rsp,%rbp
    777e:	89 7d fc             	mov    %edi,-0x4(%rbp)
    7781:	89 75 f8             	mov    %esi,-0x8(%rbp)
    7784:	83 7d fc 00          	cmpl   $0x0,-0x4(%rbp)
    7788:	78 27                	js     77b1 <safe_lshift_func_int32_t_s_u+0x3b>
    778a:	83 7d f8 1f          	cmpl   $0x1f,-0x8(%rbp)
    778e:	77 21                	ja     77b1 <safe_lshift_func_int32_t_s_u+0x3b>
    7790:	8b 45 f8             	mov    -0x8(%rbp),%eax
    7793:	ba ff ff ff 7f       	mov    $0x7fffffff,%edx
    7798:	89 c1                	mov    %eax,%ecx
    779a:	d3 fa                	sar    %cl,%edx
    779c:	89 d0                	mov    %edx,%eax
    779e:	39 45 fc             	cmp    %eax,-0x4(%rbp)
    77a1:	7f 0e                	jg     77b1 <safe_lshift_func_int32_t_s_u+0x3b>
    77a3:	8b 45 f8             	mov    -0x8(%rbp),%eax
    77a6:	8b 55 fc             	mov    -0x4(%rbp),%edx
    77a9:	89 c1                	mov    %eax,%ecx
    77ab:	d3 e2                	shl    %cl,%edx
    77ad:	89 d0                	mov    %edx,%eax
    77af:	eb 03                	jmp    77b4 <safe_lshift_func_int32_t_s_u+0x3e>
    77b1:	8b 45 fc             	mov    -0x4(%rbp),%eax
    77b4:	5d                   	pop    %rbp
    77b5:	c3                   	retq   

00000000000077b6 <safe_rshift_func_int32_t_s_s>:
    77b6:	f3 0f 1e fa          	endbr64 
    77ba:	55                   	push   %rbp
    77bb:	48 89 e5             	mov    %rsp,%rbp
    77be:	89 7d fc             	mov    %edi,-0x4(%rbp)
    77c1:	89 75 f8             	mov    %esi,-0x8(%rbp)
    77c4:	83 7d fc 00          	cmpl   $0x0,-0x4(%rbp)
    77c8:	78 1a                	js     77e4 <safe_rshift_func_int32_t_s_s+0x2e>
    77ca:	83 7d f8 00          	cmpl   $0x0,-0x8(%rbp)
    77ce:	78 14                	js     77e4 <safe_rshift_func_int32_t_s_s+0x2e>
    77d0:	83 7d f8 1f          	cmpl   $0x1f,-0x8(%rbp)
    77d4:	7f 0e                	jg     77e4 <safe_rshift_func_int32_t_s_s+0x2e>
    77d6:	8b 45 f8             	mov    -0x8(%rbp),%eax
    77d9:	8b 55 fc             	mov    -0x4(%rbp),%edx
    77dc:	89 c1                	mov    %eax,%ecx
    77de:	d3 fa                	sar    %cl,%edx
    77e0:	89 d0                	mov    %edx,%eax
    77e2:	eb 03                	jmp    77e7 <safe_rshift_func_int32_t_s_s+0x31>
    77e4:	8b 45 fc             	mov    -0x4(%rbp),%eax
    77e7:	5d                   	pop    %rbp
    77e8:	c3                   	retq   

00000000000077e9 <safe_rshift_func_int32_t_s_u>:
    77e9:	f3 0f 1e fa          	endbr64 
    77ed:	55                   	push   %rbp
    77ee:	48 89 e5             	mov    %rsp,%rbp
    77f1:	89 7d fc             	mov    %edi,-0x4(%rbp)
    77f4:	89 75 f8             	mov    %esi,-0x8(%rbp)
    77f7:	83 7d fc 00          	cmpl   $0x0,-0x4(%rbp)
    77fb:	78 14                	js     7811 <safe_rshift_func_int32_t_s_u+0x28>
    77fd:	83 7d f8 1f          	cmpl   $0x1f,-0x8(%rbp)
    7801:	77 0e                	ja     7811 <safe_rshift_func_int32_t_s_u+0x28>
    7803:	8b 45 f8             	mov    -0x8(%rbp),%eax
    7806:	8b 55 fc             	mov    -0x4(%rbp),%edx
    7809:	89 c1                	mov    %eax,%ecx
    780b:	d3 fa                	sar    %cl,%edx
    780d:	89 d0                	mov    %edx,%eax
    780f:	eb 03                	jmp    7814 <safe_rshift_func_int32_t_s_u+0x2b>
    7811:	8b 45 fc             	mov    -0x4(%rbp),%eax
    7814:	5d                   	pop    %rbp
    7815:	c3                   	retq   

0000000000007816 <safe_unary_minus_func_int64_t_s>:
    7816:	f3 0f 1e fa          	endbr64 
    781a:	55                   	push   %rbp
    781b:	48 89 e5             	mov    %rsp,%rbp
    781e:	48 89 7d f8          	mov    %rdi,-0x8(%rbp)
    7822:	48 b8 00 00 00 00 00 	movabs $0x8000000000000000,%rax
    7829:	00 00 80 
    782c:	48 39 45 f8          	cmp    %rax,-0x8(%rbp)
    7830:	74 09                	je     783b <safe_unary_minus_func_int64_t_s+0x25>
    7832:	48 8b 45 f8          	mov    -0x8(%rbp),%rax
    7836:	48 f7 d8             	neg    %rax
    7839:	eb 04                	jmp    783f <safe_unary_minus_func_int64_t_s+0x29>
    783b:	48 8b 45 f8          	mov    -0x8(%rbp),%rax
    783f:	5d                   	pop    %rbp
    7840:	c3                   	retq   

0000000000007841 <safe_add_func_int64_t_s_s>:
    7841:	f3 0f 1e fa          	endbr64 
    7845:	55                   	push   %rbp
    7846:	48 89 e5             	mov    %rsp,%rbp
    7849:	48 89 7d f8          	mov    %rdi,-0x8(%rbp)
    784d:	48 89 75 f0          	mov    %rsi,-0x10(%rbp)
    7851:	48 83 7d f8 00       	cmpq   $0x0,-0x8(%rbp)
    7856:	7e 1b                	jle    7873 <safe_add_func_int64_t_s_s+0x32>
    7858:	48 83 7d f0 00       	cmpq   $0x0,-0x10(%rbp)
    785d:	7e 14                	jle    7873 <safe_add_func_int64_t_s_s+0x32>
    785f:	48 b8 ff ff ff ff ff 	movabs $0x7fffffffffffffff,%rax
    7866:	ff ff 7f 
    7869:	48 2b 45 f0          	sub    -0x10(%rbp),%rax
    786d:	48 39 45 f8          	cmp    %rax,-0x8(%rbp)
    7871:	7f 2f                	jg     78a2 <safe_add_func_int64_t_s_s+0x61>
    7873:	48 83 7d f8 00       	cmpq   $0x0,-0x8(%rbp)
    7878:	79 1b                	jns    7895 <safe_add_func_int64_t_s_s+0x54>
    787a:	48 83 7d f0 00       	cmpq   $0x0,-0x10(%rbp)
    787f:	79 14                	jns    7895 <safe_add_func_int64_t_s_s+0x54>
    7881:	48 b8 00 00 00 00 00 	movabs $0x8000000000000000,%rax
    7888:	00 00 80 
    788b:	48 2b 45 f0          	sub    -0x10(%rbp),%rax
    788f:	48 39 45 f8          	cmp    %rax,-0x8(%rbp)
    7893:	7c 0d                	jl     78a2 <safe_add_func_int64_t_s_s+0x61>
    7895:	48 8b 55 f8          	mov    -0x8(%rbp),%rdx
    7899:	48 8b 45 f0          	mov    -0x10(%rbp),%rax
    789d:	48 01 d0             	add    %rdx,%rax
    78a0:	eb 04                	jmp    78a6 <safe_add_func_int64_t_s_s+0x65>
    78a2:	48 8b 45 f8          	mov    -0x8(%rbp),%rax
    78a6:	5d                   	pop    %rbp
    78a7:	c3                   	retq   

00000000000078a8 <safe_sub_func_int64_t_s_s>:
    78a8:	f3 0f 1e fa          	endbr64 
    78ac:	55                   	push   %rbp
    78ad:	48 89 e5             	mov    %rsp,%rbp
    78b0:	48 89 7d f8          	mov    %rdi,-0x8(%rbp)
    78b4:	48 89 75 f0          	mov    %rsi,-0x10(%rbp)
    78b8:	48 8b 45 f8          	mov    -0x8(%rbp),%rax
    78bc:	48 33 45 f0          	xor    -0x10(%rbp),%rax
    78c0:	48 89 c2             	mov    %rax,%rdx
    78c3:	48 8b 45 f8          	mov    -0x8(%rbp),%rax
    78c7:	48 33 45 f0          	xor    -0x10(%rbp),%rax
    78cb:	48 b9 00 00 00 00 00 	movabs $0x8000000000000000,%rcx
    78d2:	00 00 80 
    78d5:	48 21 c8             	and    %rcx,%rax
    78d8:	48 33 45 f8          	xor    -0x8(%rbp),%rax
    78dc:	48 2b 45 f0          	sub    -0x10(%rbp),%rax
    78e0:	48 33 45 f0          	xor    -0x10(%rbp),%rax
    78e4:	48 21 d0             	and    %rdx,%rax
    78e7:	48 85 c0             	test   %rax,%rax
    78ea:	78 0a                	js     78f6 <safe_sub_func_int64_t_s_s+0x4e>
    78ec:	48 8b 45 f8          	mov    -0x8(%rbp),%rax
    78f0:	48 2b 45 f0          	sub    -0x10(%rbp),%rax
    78f4:	eb 04                	jmp    78fa <safe_sub_func_int64_t_s_s+0x52>
    78f6:	48 8b 45 f8          	mov    -0x8(%rbp),%rax
    78fa:	5d                   	pop    %rbp
    78fb:	c3                   	retq   

00000000000078fc <safe_mul_func_int64_t_s_s>:
    78fc:	f3 0f 1e fa          	endbr64 
    7900:	55                   	push   %rbp
    7901:	48 89 e5             	mov    %rsp,%rbp
    7904:	48 89 7d f8          	mov    %rdi,-0x8(%rbp)
    7908:	48 89 75 f0          	mov    %rsi,-0x10(%rbp)
    790c:	48 83 7d f8 00       	cmpq   $0x0,-0x8(%rbp)
    7911:	7e 1d                	jle    7930 <safe_mul_func_int64_t_s_s+0x34>
    7913:	48 83 7d f0 00       	cmpq   $0x0,-0x10(%rbp)
    7918:	7e 16                	jle    7930 <safe_mul_func_int64_t_s_s+0x34>
    791a:	48 b8 ff ff ff ff ff 	movabs $0x7fffffffffffffff,%rax
    7921:	ff ff 7f 
    7924:	48 99                	cqto   
    7926:	48 f7 7d f0          	idivq  -0x10(%rbp)
    792a:	48 39 45 f8          	cmp    %rax,-0x8(%rbp)
    792e:	7f 7e                	jg     79ae <safe_mul_func_int64_t_s_s+0xb2>
    7930:	48 83 7d f8 00       	cmpq   $0x0,-0x8(%rbp)
    7935:	7e 1d                	jle    7954 <safe_mul_func_int64_t_s_s+0x58>
    7937:	48 83 7d f0 00       	cmpq   $0x0,-0x10(%rbp)
    793c:	7f 16                	jg     7954 <safe_mul_func_int64_t_s_s+0x58>
    793e:	48 b8 00 00 00 00 00 	movabs $0x8000000000000000,%rax
    7945:	00 00 80 
    7948:	48 99                	cqto   
    794a:	48 f7 7d f8          	idivq  -0x8(%rbp)
    794e:	48 39 45 f0          	cmp    %rax,-0x10(%rbp)
    7952:	7c 5a                	jl     79ae <safe_mul_func_int64_t_s_s+0xb2>
    7954:	48 83 7d f8 00       	cmpq   $0x0,-0x8(%rbp)
    7959:	7f 1d                	jg     7978 <safe_mul_func_int64_t_s_s+0x7c>
    795b:	48 83 7d f0 00       	cmpq   $0x0,-0x10(%rbp)
    7960:	7e 16                	jle    7978 <safe_mul_func_int64_t_s_s+0x7c>
    7962:	48 b8 00 00 00 00 00 	movabs $0x8000000000000000,%rax
    7969:	00 00 80 
    796c:	48 99                	cqto   
    796e:	48 f7 7d f0          	idivq  -0x10(%rbp)
    7972:	48 39 45 f8          	cmp    %rax,-0x8(%rbp)
    7976:	7c 36                	jl     79ae <safe_mul_func_int64_t_s_s+0xb2>
    7978:	48 83 7d f8 00       	cmpq   $0x0,-0x8(%rbp)
    797d:	7f 24                	jg     79a3 <safe_mul_func_int64_t_s_s+0xa7>
    797f:	48 83 7d f0 00       	cmpq   $0x0,-0x10(%rbp)
    7984:	7f 1d                	jg     79a3 <safe_mul_func_int64_t_s_s+0xa7>
    7986:	48 83 7d f8 00       	cmpq   $0x0,-0x8(%rbp)
    798b:	74 16                	je     79a3 <safe_mul_func_int64_t_s_s+0xa7>
    798d:	48 b8 ff ff ff ff ff 	movabs $0x7fffffffffffffff,%rax
    7994:	ff ff 7f 
    7997:	48 99                	cqto   
    7999:	48 f7 7d f8          	idivq  -0x8(%rbp)
    799d:	48 39 45 f0          	cmp    %rax,-0x10(%rbp)
    79a1:	7c 0b                	jl     79ae <safe_mul_func_int64_t_s_s+0xb2>
    79a3:	48 8b 45 f8          	mov    -0x8(%rbp),%rax
    79a7:	48 0f af 45 f0       	imul   -0x10(%rbp),%rax
    79ac:	eb 04                	jmp    79b2 <safe_mul_func_int64_t_s_s+0xb6>
    79ae:	48 8b 45 f8          	mov    -0x8(%rbp),%rax
    79b2:	5d                   	pop    %rbp
    79b3:	c3                   	retq   

00000000000079b4 <safe_mod_func_int64_t_s_s>:
    79b4:	f3 0f 1e fa          	endbr64 
    79b8:	55                   	push   %rbp
    79b9:	48 89 e5             	mov    %rsp,%rbp
    79bc:	48 89 7d f8          	mov    %rdi,-0x8(%rbp)
    79c0:	48 89 75 f0          	mov    %rsi,-0x10(%rbp)
    79c4:	48 83 7d f0 00       	cmpq   $0x0,-0x10(%rbp)
    79c9:	74 26                	je     79f1 <safe_mod_func_int64_t_s_s+0x3d>
    79cb:	48 b8 00 00 00 00 00 	movabs $0x8000000000000000,%rax
    79d2:	00 00 80 
    79d5:	48 39 45 f8          	cmp    %rax,-0x8(%rbp)
    79d9:	75 07                	jne    79e2 <safe_mod_func_int64_t_s_s+0x2e>
    79db:	48 83 7d f0 ff       	cmpq   $0xffffffffffffffff,-0x10(%rbp)
    79e0:	74 0f                	je     79f1 <safe_mod_func_int64_t_s_s+0x3d>
    79e2:	48 8b 45 f8          	mov    -0x8(%rbp),%rax
    79e6:	48 99                	cqto   
    79e8:	48 f7 7d f0          	idivq  -0x10(%rbp)
    79ec:	48 89 d0             	mov    %rdx,%rax
    79ef:	eb 04                	jmp    79f5 <safe_mod_func_int64_t_s_s+0x41>
    79f1:	48 8b 45 f8          	mov    -0x8(%rbp),%rax
    79f5:	5d                   	pop    %rbp
    79f6:	c3                   	retq   

00000000000079f7 <safe_div_func_int64_t_s_s>:
    79f7:	f3 0f 1e fa          	endbr64 
    79fb:	55                   	push   %rbp
    79fc:	48 89 e5             	mov    %rsp,%rbp
    79ff:	48 89 7d f8          	mov    %rdi,-0x8(%rbp)
    7a03:	48 89 75 f0          	mov    %rsi,-0x10(%rbp)
    7a07:	48 83 7d f0 00       	cmpq   $0x0,-0x10(%rbp)
    7a0c:	74 23                	je     7a31 <safe_div_func_int64_t_s_s+0x3a>
    7a0e:	48 b8 00 00 00 00 00 	movabs $0x8000000000000000,%rax
    7a15:	00 00 80 
    7a18:	48 39 45 f8          	cmp    %rax,-0x8(%rbp)
    7a1c:	75 07                	jne    7a25 <safe_div_func_int64_t_s_s+0x2e>
    7a1e:	48 83 7d f0 ff       	cmpq   $0xffffffffffffffff,-0x10(%rbp)
    7a23:	74 0c                	je     7a31 <safe_div_func_int64_t_s_s+0x3a>
    7a25:	48 8b 45 f8          	mov    -0x8(%rbp),%rax
    7a29:	48 99                	cqto   
    7a2b:	48 f7 7d f0          	idivq  -0x10(%rbp)
    7a2f:	eb 04                	jmp    7a35 <safe_div_func_int64_t_s_s+0x3e>
    7a31:	48 8b 45 f8          	mov    -0x8(%rbp),%rax
    7a35:	5d                   	pop    %rbp
    7a36:	c3                   	retq   

0000000000007a37 <safe_lshift_func_int64_t_s_s>:
    7a37:	f3 0f 1e fa          	endbr64 
    7a3b:	55                   	push   %rbp
    7a3c:	48 89 e5             	mov    %rsp,%rbp
    7a3f:	48 89 7d f8          	mov    %rdi,-0x8(%rbp)
    7a43:	89 75 f4             	mov    %esi,-0xc(%rbp)
    7a46:	48 83 7d f8 00       	cmpq   $0x0,-0x8(%rbp)
    7a4b:	78 38                	js     7a85 <safe_lshift_func_int64_t_s_s+0x4e>
    7a4d:	83 7d f4 00          	cmpl   $0x0,-0xc(%rbp)
    7a51:	78 32                	js     7a85 <safe_lshift_func_int64_t_s_s+0x4e>
    7a53:	83 7d f4 1f          	cmpl   $0x1f,-0xc(%rbp)
    7a57:	7f 2c                	jg     7a85 <safe_lshift_func_int64_t_s_s+0x4e>
    7a59:	8b 45 f4             	mov    -0xc(%rbp),%eax
    7a5c:	48 ba ff ff ff ff ff 	movabs $0x7fffffffffffffff,%rdx
    7a63:	ff ff 7f 
    7a66:	89 c1                	mov    %eax,%ecx
    7a68:	48 d3 fa             	sar    %cl,%rdx
    7a6b:	48 89 d0             	mov    %rdx,%rax
    7a6e:	48 39 45 f8          	cmp    %rax,-0x8(%rbp)
    7a72:	7f 11                	jg     7a85 <safe_lshift_func_int64_t_s_s+0x4e>
    7a74:	8b 45 f4             	mov    -0xc(%rbp),%eax
    7a77:	48 8b 55 f8          	mov    -0x8(%rbp),%rdx
    7a7b:	89 c1                	mov    %eax,%ecx
    7a7d:	48 d3 e2             	shl    %cl,%rdx
    7a80:	48 89 d0             	mov    %rdx,%rax
    7a83:	eb 04                	jmp    7a89 <safe_lshift_func_int64_t_s_s+0x52>
    7a85:	48 8b 45 f8          	mov    -0x8(%rbp),%rax
    7a89:	5d                   	pop    %rbp
    7a8a:	c3                   	retq   

0000000000007a8b <safe_lshift_func_int64_t_s_u>:
    7a8b:	f3 0f 1e fa          	endbr64 
    7a8f:	55                   	push   %rbp
    7a90:	48 89 e5             	mov    %rsp,%rbp
    7a93:	48 89 7d f8          	mov    %rdi,-0x8(%rbp)
    7a97:	89 75 f4             	mov    %esi,-0xc(%rbp)
    7a9a:	48 83 7d f8 00       	cmpq   $0x0,-0x8(%rbp)
    7a9f:	78 32                	js     7ad3 <safe_lshift_func_int64_t_s_u+0x48>
    7aa1:	83 7d f4 1f          	cmpl   $0x1f,-0xc(%rbp)
    7aa5:	77 2c                	ja     7ad3 <safe_lshift_func_int64_t_s_u+0x48>
    7aa7:	8b 45 f4             	mov    -0xc(%rbp),%eax
    7aaa:	48 ba ff ff ff ff ff 	movabs $0x7fffffffffffffff,%rdx
    7ab1:	ff ff 7f 
    7ab4:	89 c1                	mov    %eax,%ecx
    7ab6:	48 d3 fa             	sar    %cl,%rdx
    7ab9:	48 89 d0             	mov    %rdx,%rax
    7abc:	48 39 45 f8          	cmp    %rax,-0x8(%rbp)
    7ac0:	7f 11                	jg     7ad3 <safe_lshift_func_int64_t_s_u+0x48>
    7ac2:	8b 45 f4             	mov    -0xc(%rbp),%eax
    7ac5:	48 8b 55 f8          	mov    -0x8(%rbp),%rdx
    7ac9:	89 c1                	mov    %eax,%ecx
    7acb:	48 d3 e2             	shl    %cl,%rdx
    7ace:	48 89 d0             	mov    %rdx,%rax
    7ad1:	eb 04                	jmp    7ad7 <safe_lshift_func_int64_t_s_u+0x4c>
    7ad3:	48 8b 45 f8          	mov    -0x8(%rbp),%rax
    7ad7:	5d                   	pop    %rbp
    7ad8:	c3                   	retq   

0000000000007ad9 <safe_rshift_func_int64_t_s_s>:
    7ad9:	f3 0f 1e fa          	endbr64 
    7add:	55                   	push   %rbp
    7ade:	48 89 e5             	mov    %rsp,%rbp
    7ae1:	48 89 7d f8          	mov    %rdi,-0x8(%rbp)
    7ae5:	89 75 f4             	mov    %esi,-0xc(%rbp)
    7ae8:	48 83 7d f8 00       	cmpq   $0x0,-0x8(%rbp)
    7aed:	78 1d                	js     7b0c <safe_rshift_func_int64_t_s_s+0x33>
    7aef:	83 7d f4 00          	cmpl   $0x0,-0xc(%rbp)
    7af3:	78 17                	js     7b0c <safe_rshift_func_int64_t_s_s+0x33>
    7af5:	83 7d f4 1f          	cmpl   $0x1f,-0xc(%rbp)
    7af9:	7f 11                	jg     7b0c <safe_rshift_func_int64_t_s_s+0x33>
    7afb:	8b 45 f4             	mov    -0xc(%rbp),%eax
    7afe:	48 8b 55 f8          	mov    -0x8(%rbp),%rdx
    7b02:	89 c1                	mov    %eax,%ecx
    7b04:	48 d3 fa             	sar    %cl,%rdx
    7b07:	48 89 d0             	mov    %rdx,%rax
    7b0a:	eb 04                	jmp    7b10 <safe_rshift_func_int64_t_s_s+0x37>
    7b0c:	48 8b 45 f8          	mov    -0x8(%rbp),%rax
    7b10:	5d                   	pop    %rbp
    7b11:	c3                   	retq   

0000000000007b12 <safe_rshift_func_int64_t_s_u>:
    7b12:	f3 0f 1e fa          	endbr64 
    7b16:	55                   	push   %rbp
    7b17:	48 89 e5             	mov    %rsp,%rbp
    7b1a:	48 89 7d f8          	mov    %rdi,-0x8(%rbp)
    7b1e:	89 75 f4             	mov    %esi,-0xc(%rbp)
    7b21:	48 83 7d f8 00       	cmpq   $0x0,-0x8(%rbp)
    7b26:	78 17                	js     7b3f <safe_rshift_func_int64_t_s_u+0x2d>
    7b28:	83 7d f4 1f          	cmpl   $0x1f,-0xc(%rbp)
    7b2c:	77 11                	ja     7b3f <safe_rshift_func_int64_t_s_u+0x2d>
    7b2e:	8b 45 f4             	mov    -0xc(%rbp),%eax
    7b31:	48 8b 55 f8          	mov    -0x8(%rbp),%rdx
    7b35:	89 c1                	mov    %eax,%ecx
    7b37:	48 d3 fa             	sar    %cl,%rdx
    7b3a:	48 89 d0             	mov    %rdx,%rax
    7b3d:	eb 04                	jmp    7b43 <safe_rshift_func_int64_t_s_u+0x31>
    7b3f:	48 8b 45 f8          	mov    -0x8(%rbp),%rax
    7b43:	5d                   	pop    %rbp
    7b44:	c3                   	retq   

0000000000007b45 <safe_unary_minus_func_uint8_t_u>:
    7b45:	f3 0f 1e fa          	endbr64 
    7b49:	55                   	push   %rbp
    7b4a:	48 89 e5             	mov    %rsp,%rbp
    7b4d:	89 f8                	mov    %edi,%eax
    7b4f:	88 45 fc             	mov    %al,-0x4(%rbp)
    7b52:	0f b6 45 fc          	movzbl -0x4(%rbp),%eax
    7b56:	f7 d8                	neg    %eax
    7b58:	5d                   	pop    %rbp
    7b59:	c3                   	retq   

0000000000007b5a <safe_add_func_uint8_t_u_u>:
    7b5a:	f3 0f 1e fa          	endbr64 
    7b5e:	55                   	push   %rbp
    7b5f:	48 89 e5             	mov    %rsp,%rbp
    7b62:	89 fa                	mov    %edi,%edx
    7b64:	89 f0                	mov    %esi,%eax
    7b66:	88 55 fc             	mov    %dl,-0x4(%rbp)
    7b69:	88 45 f8             	mov    %al,-0x8(%rbp)
    7b6c:	0f b6 55 fc          	movzbl -0x4(%rbp),%edx
    7b70:	0f b6 45 f8          	movzbl -0x8(%rbp),%eax
    7b74:	01 d0                	add    %edx,%eax
    7b76:	5d                   	pop    %rbp
    7b77:	c3                   	retq   

0000000000007b78 <safe_sub_func_uint8_t_u_u>:
    7b78:	f3 0f 1e fa          	endbr64 
    7b7c:	55                   	push   %rbp
    7b7d:	48 89 e5             	mov    %rsp,%rbp
    7b80:	89 fa                	mov    %edi,%edx
    7b82:	89 f0                	mov    %esi,%eax
    7b84:	88 55 fc             	mov    %dl,-0x4(%rbp)
    7b87:	88 45 f8             	mov    %al,-0x8(%rbp)
    7b8a:	0f b6 45 fc          	movzbl -0x4(%rbp),%eax
    7b8e:	2a 45 f8             	sub    -0x8(%rbp),%al
    7b91:	5d                   	pop    %rbp
    7b92:	c3                   	retq   

0000000000007b93 <safe_mul_func_uint8_t_u_u>:
    7b93:	f3 0f 1e fa          	endbr64 
    7b97:	55                   	push   %rbp
    7b98:	48 89 e5             	mov    %rsp,%rbp
    7b9b:	89 fa                	mov    %edi,%edx
    7b9d:	89 f0                	mov    %esi,%eax
    7b9f:	88 55 fc             	mov    %dl,-0x4(%rbp)
    7ba2:	88 45 f8             	mov    %al,-0x8(%rbp)
    7ba5:	0f b6 45 fc          	movzbl -0x4(%rbp),%eax
    7ba9:	f6 65 f8             	mulb   -0x8(%rbp)
    7bac:	5d                   	pop    %rbp
    7bad:	c3                   	retq   

0000000000007bae <safe_mod_func_uint8_t_u_u>:
    7bae:	f3 0f 1e fa          	endbr64 
    7bb2:	55                   	push   %rbp
    7bb3:	48 89 e5             	mov    %rsp,%rbp
    7bb6:	89 fa                	mov    %edi,%edx
    7bb8:	89 f0                	mov    %esi,%eax
    7bba:	88 55 fc             	mov    %dl,-0x4(%rbp)
    7bbd:	88 45 f8             	mov    %al,-0x8(%rbp)
    7bc0:	80 7d f8 00          	cmpb   $0x0,-0x8(%rbp)
    7bc4:	74 0f                	je     7bd5 <safe_mod_func_uint8_t_u_u+0x27>
    7bc6:	0f b6 45 fc          	movzbl -0x4(%rbp),%eax
    7bca:	0f b6 c0             	movzbl %al,%eax
    7bcd:	f6 75 f8             	divb   -0x8(%rbp)
    7bd0:	0f b6 c4             	movzbl %ah,%eax
    7bd3:	eb 04                	jmp    7bd9 <safe_mod_func_uint8_t_u_u+0x2b>
    7bd5:	0f b6 45 fc          	movzbl -0x4(%rbp),%eax
    7bd9:	5d                   	pop    %rbp
    7bda:	c3                   	retq   

0000000000007bdb <safe_div_func_uint8_t_u_u>:
    7bdb:	f3 0f 1e fa          	endbr64 
    7bdf:	55                   	push   %rbp
    7be0:	48 89 e5             	mov    %rsp,%rbp
    7be3:	89 fa                	mov    %edi,%edx
    7be5:	89 f0                	mov    %esi,%eax
    7be7:	88 55 fc             	mov    %dl,-0x4(%rbp)
    7bea:	88 45 f8             	mov    %al,-0x8(%rbp)
    7bed:	80 7d f8 00          	cmpb   $0x0,-0x8(%rbp)
    7bf1:	74 0c                	je     7bff <safe_div_func_uint8_t_u_u+0x24>
    7bf3:	0f b6 45 fc          	movzbl -0x4(%rbp),%eax
    7bf7:	0f b6 c0             	movzbl %al,%eax
    7bfa:	f6 75 f8             	divb   -0x8(%rbp)
    7bfd:	eb 04                	jmp    7c03 <safe_div_func_uint8_t_u_u+0x28>
    7bff:	0f b6 45 fc          	movzbl -0x4(%rbp),%eax
    7c03:	5d                   	pop    %rbp
    7c04:	c3                   	retq   

0000000000007c05 <safe_lshift_func_uint8_t_u_s>:
    7c05:	f3 0f 1e fa          	endbr64 
    7c09:	55                   	push   %rbp
    7c0a:	48 89 e5             	mov    %rsp,%rbp
    7c0d:	89 f8                	mov    %edi,%eax
    7c0f:	89 75 f8             	mov    %esi,-0x8(%rbp)
    7c12:	88 45 fc             	mov    %al,-0x4(%rbp)
    7c15:	83 7d f8 00          	cmpl   $0x0,-0x8(%rbp)
    7c19:	78 2b                	js     7c46 <safe_lshift_func_uint8_t_u_s+0x41>
    7c1b:	83 7d f8 1f          	cmpl   $0x1f,-0x8(%rbp)
    7c1f:	7f 25                	jg     7c46 <safe_lshift_func_uint8_t_u_s+0x41>
    7c21:	0f b6 55 fc          	movzbl -0x4(%rbp),%edx
    7c25:	8b 45 f8             	mov    -0x8(%rbp),%eax
    7c28:	be ff 00 00 00       	mov    $0xff,%esi
    7c2d:	89 c1                	mov    %eax,%ecx
    7c2f:	d3 fe                	sar    %cl,%esi
    7c31:	89 f0                	mov    %esi,%eax
    7c33:	39 c2                	cmp    %eax,%edx
    7c35:	7f 0f                	jg     7c46 <safe_lshift_func_uint8_t_u_s+0x41>
    7c37:	0f b6 55 fc          	movzbl -0x4(%rbp),%edx
    7c3b:	8b 45 f8             	mov    -0x8(%rbp),%eax
    7c3e:	89 c1                	mov    %eax,%ecx
    7c40:	d3 e2                	shl    %cl,%edx
    7c42:	89 d0                	mov    %edx,%eax
    7c44:	eb 04                	jmp    7c4a <safe_lshift_func_uint8_t_u_s+0x45>
    7c46:	0f b6 45 fc          	movzbl -0x4(%rbp),%eax
    7c4a:	5d                   	pop    %rbp
    7c4b:	c3                   	retq   

0000000000007c4c <safe_lshift_func_uint8_t_u_u>:
    7c4c:	f3 0f 1e fa          	endbr64 
    7c50:	55                   	push   %rbp
    7c51:	48 89 e5             	mov    %rsp,%rbp
    7c54:	89 f8                	mov    %edi,%eax
    7c56:	89 75 f8             	mov    %esi,-0x8(%rbp)
    7c59:	88 45 fc             	mov    %al,-0x4(%rbp)
    7c5c:	83 7d f8 1f          	cmpl   $0x1f,-0x8(%rbp)
    7c60:	77 25                	ja     7c87 <safe_lshift_func_uint8_t_u_u+0x3b>
    7c62:	0f b6 55 fc          	movzbl -0x4(%rbp),%edx
    7c66:	8b 45 f8             	mov    -0x8(%rbp),%eax
    7c69:	be ff 00 00 00       	mov    $0xff,%esi
    7c6e:	89 c1                	mov    %eax,%ecx
    7c70:	d3 fe                	sar    %cl,%esi
    7c72:	89 f0                	mov    %esi,%eax
    7c74:	39 c2                	cmp    %eax,%edx
    7c76:	7f 0f                	jg     7c87 <safe_lshift_func_uint8_t_u_u+0x3b>
    7c78:	0f b6 55 fc          	movzbl -0x4(%rbp),%edx
    7c7c:	8b 45 f8             	mov    -0x8(%rbp),%eax
    7c7f:	89 c1                	mov    %eax,%ecx
    7c81:	d3 e2                	shl    %cl,%edx
    7c83:	89 d0                	mov    %edx,%eax
    7c85:	eb 04                	jmp    7c8b <safe_lshift_func_uint8_t_u_u+0x3f>
    7c87:	0f b6 45 fc          	movzbl -0x4(%rbp),%eax
    7c8b:	5d                   	pop    %rbp
    7c8c:	c3                   	retq   

0000000000007c8d <safe_rshift_func_uint8_t_u_s>:
    7c8d:	f3 0f 1e fa          	endbr64 
    7c91:	55                   	push   %rbp
    7c92:	48 89 e5             	mov    %rsp,%rbp
    7c95:	89 f8                	mov    %edi,%eax
    7c97:	89 75 f8             	mov    %esi,-0x8(%rbp)
    7c9a:	88 45 fc             	mov    %al,-0x4(%rbp)
    7c9d:	83 7d f8 00          	cmpl   $0x0,-0x8(%rbp)
    7ca1:	78 15                	js     7cb8 <safe_rshift_func_uint8_t_u_s+0x2b>
    7ca3:	83 7d f8 1f          	cmpl   $0x1f,-0x8(%rbp)
    7ca7:	7f 0f                	jg     7cb8 <safe_rshift_func_uint8_t_u_s+0x2b>
    7ca9:	0f b6 55 fc          	movzbl -0x4(%rbp),%edx
    7cad:	8b 45 f8             	mov    -0x8(%rbp),%eax
    7cb0:	89 c1                	mov    %eax,%ecx
    7cb2:	d3 fa                	sar    %cl,%edx
    7cb4:	89 d0                	mov    %edx,%eax
    7cb6:	eb 04                	jmp    7cbc <safe_rshift_func_uint8_t_u_s+0x2f>
    7cb8:	0f b6 45 fc          	movzbl -0x4(%rbp),%eax
    7cbc:	5d                   	pop    %rbp
    7cbd:	c3                   	retq   

0000000000007cbe <safe_rshift_func_uint8_t_u_u>:
    7cbe:	f3 0f 1e fa          	endbr64 
    7cc2:	55                   	push   %rbp
    7cc3:	48 89 e5             	mov    %rsp,%rbp
    7cc6:	89 f8                	mov    %edi,%eax
    7cc8:	89 75 f8             	mov    %esi,-0x8(%rbp)
    7ccb:	88 45 fc             	mov    %al,-0x4(%rbp)
    7cce:	83 7d f8 1f          	cmpl   $0x1f,-0x8(%rbp)
    7cd2:	77 0f                	ja     7ce3 <safe_rshift_func_uint8_t_u_u+0x25>
    7cd4:	0f b6 55 fc          	movzbl -0x4(%rbp),%edx
    7cd8:	8b 45 f8             	mov    -0x8(%rbp),%eax
    7cdb:	89 c1                	mov    %eax,%ecx
    7cdd:	d3 fa                	sar    %cl,%edx
    7cdf:	89 d0                	mov    %edx,%eax
    7ce1:	eb 04                	jmp    7ce7 <safe_rshift_func_uint8_t_u_u+0x29>
    7ce3:	0f b6 45 fc          	movzbl -0x4(%rbp),%eax
    7ce7:	5d                   	pop    %rbp
    7ce8:	c3                   	retq   

0000000000007ce9 <safe_unary_minus_func_uint16_t_u>:
    7ce9:	f3 0f 1e fa          	endbr64 
    7ced:	55                   	push   %rbp
    7cee:	48 89 e5             	mov    %rsp,%rbp
    7cf1:	89 f8                	mov    %edi,%eax
    7cf3:	66 89 45 fc          	mov    %ax,-0x4(%rbp)
    7cf7:	0f b7 45 fc          	movzwl -0x4(%rbp),%eax
    7cfb:	f7 d8                	neg    %eax
    7cfd:	5d                   	pop    %rbp
    7cfe:	c3                   	retq   

0000000000007cff <safe_add_func_uint16_t_u_u>:
    7cff:	f3 0f 1e fa          	endbr64 
    7d03:	55                   	push   %rbp
    7d04:	48 89 e5             	mov    %rsp,%rbp
    7d07:	89 fa                	mov    %edi,%edx
    7d09:	89 f0                	mov    %esi,%eax
    7d0b:	66 89 55 fc          	mov    %dx,-0x4(%rbp)
    7d0f:	66 89 45 f8          	mov    %ax,-0x8(%rbp)
    7d13:	0f b7 55 fc          	movzwl -0x4(%rbp),%edx
    7d17:	0f b7 45 f8          	movzwl -0x8(%rbp),%eax
    7d1b:	01 d0                	add    %edx,%eax
    7d1d:	5d                   	pop    %rbp
    7d1e:	c3                   	retq   

0000000000007d1f <safe_sub_func_uint16_t_u_u>:
    7d1f:	f3 0f 1e fa          	endbr64 
    7d23:	55                   	push   %rbp
    7d24:	48 89 e5             	mov    %rsp,%rbp
    7d27:	89 fa                	mov    %edi,%edx
    7d29:	89 f0                	mov    %esi,%eax
    7d2b:	66 89 55 fc          	mov    %dx,-0x4(%rbp)
    7d2f:	66 89 45 f8          	mov    %ax,-0x8(%rbp)
    7d33:	0f b7 45 fc          	movzwl -0x4(%rbp),%eax
    7d37:	66 2b 45 f8          	sub    -0x8(%rbp),%ax
    7d3b:	5d                   	pop    %rbp
    7d3c:	c3                   	retq   

0000000000007d3d <safe_mul_func_uint16_t_u_u>:
    7d3d:	f3 0f 1e fa          	endbr64 
    7d41:	55                   	push   %rbp
    7d42:	48 89 e5             	mov    %rsp,%rbp
    7d45:	89 fa                	mov    %edi,%edx
    7d47:	89 f0                	mov    %esi,%eax
    7d49:	66 89 55 fc          	mov    %dx,-0x4(%rbp)
    7d4d:	66 89 45 f8          	mov    %ax,-0x8(%rbp)
    7d51:	0f b7 45 fc          	movzwl -0x4(%rbp),%eax
    7d55:	66 0f af 45 f8       	imul   -0x8(%rbp),%ax
    7d5a:	5d                   	pop    %rbp
    7d5b:	c3                   	retq   

0000000000007d5c <safe_mod_func_uint16_t_u_u>:
    7d5c:	f3 0f 1e fa          	endbr64 
    7d60:	55                   	push   %rbp
    7d61:	48 89 e5             	mov    %rsp,%rbp
    7d64:	89 fa                	mov    %edi,%edx
    7d66:	89 f0                	mov    %esi,%eax
    7d68:	66 89 55 fc          	mov    %dx,-0x4(%rbp)
    7d6c:	66 89 45 f8          	mov    %ax,-0x8(%rbp)
    7d70:	66 83 7d f8 00       	cmpw   $0x0,-0x8(%rbp)
    7d75:	74 11                	je     7d88 <safe_mod_func_uint16_t_u_u+0x2c>
    7d77:	0f b7 45 fc          	movzwl -0x4(%rbp),%eax
    7d7b:	ba 00 00 00 00       	mov    $0x0,%edx
    7d80:	66 f7 75 f8          	divw   -0x8(%rbp)
    7d84:	89 d0                	mov    %edx,%eax
    7d86:	eb 04                	jmp    7d8c <safe_mod_func_uint16_t_u_u+0x30>
    7d88:	0f b7 45 fc          	movzwl -0x4(%rbp),%eax
    7d8c:	5d                   	pop    %rbp
    7d8d:	c3                   	retq   

0000000000007d8e <safe_div_func_uint16_t_u_u>:
    7d8e:	f3 0f 1e fa          	endbr64 
    7d92:	55                   	push   %rbp
    7d93:	48 89 e5             	mov    %rsp,%rbp
    7d96:	89 fa                	mov    %edi,%edx
    7d98:	89 f0                	mov    %esi,%eax
    7d9a:	66 89 55 fc          	mov    %dx,-0x4(%rbp)
    7d9e:	66 89 45 f8          	mov    %ax,-0x8(%rbp)
    7da2:	66 83 7d f8 00       	cmpw   $0x0,-0x8(%rbp)
    7da7:	74 0f                	je     7db8 <safe_div_func_uint16_t_u_u+0x2a>
    7da9:	0f b7 45 fc          	movzwl -0x4(%rbp),%eax
    7dad:	ba 00 00 00 00       	mov    $0x0,%edx
    7db2:	66 f7 75 f8          	divw   -0x8(%rbp)
    7db6:	eb 04                	jmp    7dbc <safe_div_func_uint16_t_u_u+0x2e>
    7db8:	0f b7 45 fc          	movzwl -0x4(%rbp),%eax
    7dbc:	5d                   	pop    %rbp
    7dbd:	c3                   	retq   

0000000000007dbe <safe_lshift_func_uint16_t_u_s>:
    7dbe:	f3 0f 1e fa          	endbr64 
    7dc2:	55                   	push   %rbp
    7dc3:	48 89 e5             	mov    %rsp,%rbp
    7dc6:	89 f8                	mov    %edi,%eax
    7dc8:	89 75 f8             	mov    %esi,-0x8(%rbp)
    7dcb:	66 89 45 fc          	mov    %ax,-0x4(%rbp)
    7dcf:	83 7d f8 00          	cmpl   $0x0,-0x8(%rbp)
    7dd3:	78 2b                	js     7e00 <safe_lshift_func_uint16_t_u_s+0x42>
    7dd5:	83 7d f8 1f          	cmpl   $0x1f,-0x8(%rbp)
    7dd9:	7f 25                	jg     7e00 <safe_lshift_func_uint16_t_u_s+0x42>
    7ddb:	0f b7 55 fc          	movzwl -0x4(%rbp),%edx
    7ddf:	8b 45 f8             	mov    -0x8(%rbp),%eax
    7de2:	be ff ff 00 00       	mov    $0xffff,%esi
    7de7:	89 c1                	mov    %eax,%ecx
    7de9:	d3 fe                	sar    %cl,%esi
    7deb:	89 f0                	mov    %esi,%eax
    7ded:	39 c2                	cmp    %eax,%edx
    7def:	7f 0f                	jg     7e00 <safe_lshift_func_uint16_t_u_s+0x42>
    7df1:	0f b7 55 fc          	movzwl -0x4(%rbp),%edx
    7df5:	8b 45 f8             	mov    -0x8(%rbp),%eax
    7df8:	89 c1                	mov    %eax,%ecx
    7dfa:	d3 e2                	shl    %cl,%edx
    7dfc:	89 d0                	mov    %edx,%eax
    7dfe:	eb 04                	jmp    7e04 <safe_lshift_func_uint16_t_u_s+0x46>
    7e00:	0f b7 45 fc          	movzwl -0x4(%rbp),%eax
    7e04:	5d                   	pop    %rbp
    7e05:	c3                   	retq   

0000000000007e06 <safe_lshift_func_uint16_t_u_u>:
    7e06:	f3 0f 1e fa          	endbr64 
    7e0a:	55                   	push   %rbp
    7e0b:	48 89 e5             	mov    %rsp,%rbp
    7e0e:	89 f8                	mov    %edi,%eax
    7e10:	89 75 f8             	mov    %esi,-0x8(%rbp)
    7e13:	66 89 45 fc          	mov    %ax,-0x4(%rbp)
    7e17:	83 7d f8 1f          	cmpl   $0x1f,-0x8(%rbp)
    7e1b:	77 25                	ja     7e42 <safe_lshift_func_uint16_t_u_u+0x3c>
    7e1d:	0f b7 55 fc          	movzwl -0x4(%rbp),%edx
    7e21:	8b 45 f8             	mov    -0x8(%rbp),%eax
    7e24:	be ff ff 00 00       	mov    $0xffff,%esi
    7e29:	89 c1                	mov    %eax,%ecx
    7e2b:	d3 fe                	sar    %cl,%esi
    7e2d:	89 f0                	mov    %esi,%eax
    7e2f:	39 c2                	cmp    %eax,%edx
    7e31:	7f 0f                	jg     7e42 <safe_lshift_func_uint16_t_u_u+0x3c>
    7e33:	0f b7 55 fc          	movzwl -0x4(%rbp),%edx
    7e37:	8b 45 f8             	mov    -0x8(%rbp),%eax
    7e3a:	89 c1                	mov    %eax,%ecx
    7e3c:	d3 e2                	shl    %cl,%edx
    7e3e:	89 d0                	mov    %edx,%eax
    7e40:	eb 04                	jmp    7e46 <safe_lshift_func_uint16_t_u_u+0x40>
    7e42:	0f b7 45 fc          	movzwl -0x4(%rbp),%eax
    7e46:	5d                   	pop    %rbp
    7e47:	c3                   	retq   

0000000000007e48 <safe_rshift_func_uint16_t_u_s>:
    7e48:	f3 0f 1e fa          	endbr64 
    7e4c:	55                   	push   %rbp
    7e4d:	48 89 e5             	mov    %rsp,%rbp
    7e50:	89 f8                	mov    %edi,%eax
    7e52:	89 75 f8             	mov    %esi,-0x8(%rbp)
    7e55:	66 89 45 fc          	mov    %ax,-0x4(%rbp)
    7e59:	83 7d f8 00          	cmpl   $0x0,-0x8(%rbp)
    7e5d:	78 15                	js     7e74 <safe_rshift_func_uint16_t_u_s+0x2c>
    7e5f:	83 7d f8 1f          	cmpl   $0x1f,-0x8(%rbp)
    7e63:	7f 0f                	jg     7e74 <safe_rshift_func_uint16_t_u_s+0x2c>
    7e65:	0f b7 55 fc          	movzwl -0x4(%rbp),%edx
    7e69:	8b 45 f8             	mov    -0x8(%rbp),%eax
    7e6c:	89 c1                	mov    %eax,%ecx
    7e6e:	d3 fa                	sar    %cl,%edx
    7e70:	89 d0                	mov    %edx,%eax
    7e72:	eb 04                	jmp    7e78 <safe_rshift_func_uint16_t_u_s+0x30>
    7e74:	0f b7 45 fc          	movzwl -0x4(%rbp),%eax
    7e78:	5d                   	pop    %rbp
    7e79:	c3                   	retq   

0000000000007e7a <safe_rshift_func_uint16_t_u_u>:
    7e7a:	f3 0f 1e fa          	endbr64 
    7e7e:	55                   	push   %rbp
    7e7f:	48 89 e5             	mov    %rsp,%rbp
    7e82:	89 f8                	mov    %edi,%eax
    7e84:	89 75 f8             	mov    %esi,-0x8(%rbp)
    7e87:	66 89 45 fc          	mov    %ax,-0x4(%rbp)
    7e8b:	83 7d f8 1f          	cmpl   $0x1f,-0x8(%rbp)
    7e8f:	77 0f                	ja     7ea0 <safe_rshift_func_uint16_t_u_u+0x26>
    7e91:	0f b7 55 fc          	movzwl -0x4(%rbp),%edx
    7e95:	8b 45 f8             	mov    -0x8(%rbp),%eax
    7e98:	89 c1                	mov    %eax,%ecx
    7e9a:	d3 fa                	sar    %cl,%edx
    7e9c:	89 d0                	mov    %edx,%eax
    7e9e:	eb 04                	jmp    7ea4 <safe_rshift_func_uint16_t_u_u+0x2a>
    7ea0:	0f b7 45 fc          	movzwl -0x4(%rbp),%eax
    7ea4:	5d                   	pop    %rbp
    7ea5:	c3                   	retq   

0000000000007ea6 <safe_unary_minus_func_uint32_t_u>:
    7ea6:	f3 0f 1e fa          	endbr64 
    7eaa:	55                   	push   %rbp
    7eab:	48 89 e5             	mov    %rsp,%rbp
    7eae:	89 7d fc             	mov    %edi,-0x4(%rbp)
    7eb1:	8b 45 fc             	mov    -0x4(%rbp),%eax
    7eb4:	f7 d8                	neg    %eax
    7eb6:	5d                   	pop    %rbp
    7eb7:	c3                   	retq   

0000000000007eb8 <safe_add_func_uint32_t_u_u>:
    7eb8:	f3 0f 1e fa          	endbr64 
    7ebc:	55                   	push   %rbp
    7ebd:	48 89 e5             	mov    %rsp,%rbp
    7ec0:	89 7d fc             	mov    %edi,-0x4(%rbp)
    7ec3:	89 75 f8             	mov    %esi,-0x8(%rbp)
    7ec6:	8b 55 fc             	mov    -0x4(%rbp),%edx
    7ec9:	8b 45 f8             	mov    -0x8(%rbp),%eax
    7ecc:	01 d0                	add    %edx,%eax
    7ece:	5d                   	pop    %rbp
    7ecf:	c3                   	retq   

0000000000007ed0 <safe_sub_func_uint32_t_u_u>:
    7ed0:	f3 0f 1e fa          	endbr64 
    7ed4:	55                   	push   %rbp
    7ed5:	48 89 e5             	mov    %rsp,%rbp
    7ed8:	89 7d fc             	mov    %edi,-0x4(%rbp)
    7edb:	89 75 f8             	mov    %esi,-0x8(%rbp)
    7ede:	8b 45 fc             	mov    -0x4(%rbp),%eax
    7ee1:	2b 45 f8             	sub    -0x8(%rbp),%eax
    7ee4:	5d                   	pop    %rbp
    7ee5:	c3                   	retq   

0000000000007ee6 <safe_mul_func_uint32_t_u_u>:
    7ee6:	f3 0f 1e fa          	endbr64 
    7eea:	55                   	push   %rbp
    7eeb:	48 89 e5             	mov    %rsp,%rbp
    7eee:	89 7d fc             	mov    %edi,-0x4(%rbp)
    7ef1:	89 75 f8             	mov    %esi,-0x8(%rbp)
    7ef4:	8b 45 fc             	mov    -0x4(%rbp),%eax
    7ef7:	0f af 45 f8          	imul   -0x8(%rbp),%eax
    7efb:	5d                   	pop    %rbp
    7efc:	c3                   	retq   

0000000000007efd <safe_mod_func_uint32_t_u_u>:
    7efd:	f3 0f 1e fa          	endbr64 
    7f01:	55                   	push   %rbp
    7f02:	48 89 e5             	mov    %rsp,%rbp
    7f05:	89 7d fc             	mov    %edi,-0x4(%rbp)
    7f08:	89 75 f8             	mov    %esi,-0x8(%rbp)
    7f0b:	83 7d f8 00          	cmpl   $0x0,-0x8(%rbp)
    7f0f:	74 0f                	je     7f20 <safe_mod_func_uint32_t_u_u+0x23>
    7f11:	8b 45 fc             	mov    -0x4(%rbp),%eax
    7f14:	ba 00 00 00 00       	mov    $0x0,%edx
    7f19:	f7 75 f8             	divl   -0x8(%rbp)
    7f1c:	89 d0                	mov    %edx,%eax
    7f1e:	eb 03                	jmp    7f23 <safe_mod_func_uint32_t_u_u+0x26>
    7f20:	8b 45 fc             	mov    -0x4(%rbp),%eax
    7f23:	5d                   	pop    %rbp
    7f24:	c3                   	retq   

0000000000007f25 <safe_div_func_uint32_t_u_u>:
    7f25:	f3 0f 1e fa          	endbr64 
    7f29:	55                   	push   %rbp
    7f2a:	48 89 e5             	mov    %rsp,%rbp
    7f2d:	89 7d fc             	mov    %edi,-0x4(%rbp)
    7f30:	89 75 f8             	mov    %esi,-0x8(%rbp)
    7f33:	83 7d f8 00          	cmpl   $0x0,-0x8(%rbp)
    7f37:	74 0d                	je     7f46 <safe_div_func_uint32_t_u_u+0x21>
    7f39:	8b 45 fc             	mov    -0x4(%rbp),%eax
    7f3c:	ba 00 00 00 00       	mov    $0x0,%edx
    7f41:	f7 75 f8             	divl   -0x8(%rbp)
    7f44:	eb 03                	jmp    7f49 <safe_div_func_uint32_t_u_u+0x24>
    7f46:	8b 45 fc             	mov    -0x4(%rbp),%eax
    7f49:	5d                   	pop    %rbp
    7f4a:	c3                   	retq   

0000000000007f4b <safe_lshift_func_uint32_t_u_s>:
    7f4b:	f3 0f 1e fa          	endbr64 
    7f4f:	55                   	push   %rbp
    7f50:	48 89 e5             	mov    %rsp,%rbp
    7f53:	89 7d fc             	mov    %edi,-0x4(%rbp)
    7f56:	89 75 f8             	mov    %esi,-0x8(%rbp)
    7f59:	83 7d f8 00          	cmpl   $0x0,-0x8(%rbp)
    7f5d:	78 27                	js     7f86 <safe_lshift_func_uint32_t_u_s+0x3b>
    7f5f:	83 7d f8 1f          	cmpl   $0x1f,-0x8(%rbp)
    7f63:	7f 21                	jg     7f86 <safe_lshift_func_uint32_t_u_s+0x3b>
    7f65:	8b 45 f8             	mov    -0x8(%rbp),%eax
    7f68:	ba ff ff ff ff       	mov    $0xffffffff,%edx
    7f6d:	89 c1                	mov    %eax,%ecx
    7f6f:	d3 ea                	shr    %cl,%edx
    7f71:	89 d0                	mov    %edx,%eax
    7f73:	39 45 fc             	cmp    %eax,-0x4(%rbp)
    7f76:	77 0e                	ja     7f86 <safe_lshift_func_uint32_t_u_s+0x3b>
    7f78:	8b 45 f8             	mov    -0x8(%rbp),%eax
    7f7b:	8b 55 fc             	mov    -0x4(%rbp),%edx
    7f7e:	89 c1                	mov    %eax,%ecx
    7f80:	d3 e2                	shl    %cl,%edx
    7f82:	89 d0                	mov    %edx,%eax
    7f84:	eb 03                	jmp    7f89 <safe_lshift_func_uint32_t_u_s+0x3e>
    7f86:	8b 45 fc             	mov    -0x4(%rbp),%eax
    7f89:	5d                   	pop    %rbp
    7f8a:	c3                   	retq   

0000000000007f8b <safe_lshift_func_uint32_t_u_u>:
    7f8b:	f3 0f 1e fa          	endbr64 
    7f8f:	55                   	push   %rbp
    7f90:	48 89 e5             	mov    %rsp,%rbp
    7f93:	89 7d fc             	mov    %edi,-0x4(%rbp)
    7f96:	89 75 f8             	mov    %esi,-0x8(%rbp)
    7f99:	83 7d f8 1f          	cmpl   $0x1f,-0x8(%rbp)
    7f9d:	77 21                	ja     7fc0 <safe_lshift_func_uint32_t_u_u+0x35>
    7f9f:	8b 45 f8             	mov    -0x8(%rbp),%eax
    7fa2:	ba ff ff ff ff       	mov    $0xffffffff,%edx
    7fa7:	89 c1                	mov    %eax,%ecx
    7fa9:	d3 ea                	shr    %cl,%edx
    7fab:	89 d0                	mov    %edx,%eax
    7fad:	39 45 fc             	cmp    %eax,-0x4(%rbp)
    7fb0:	77 0e                	ja     7fc0 <safe_lshift_func_uint32_t_u_u+0x35>
    7fb2:	8b 45 f8             	mov    -0x8(%rbp),%eax
    7fb5:	8b 55 fc             	mov    -0x4(%rbp),%edx
    7fb8:	89 c1                	mov    %eax,%ecx
    7fba:	d3 e2                	shl    %cl,%edx
    7fbc:	89 d0                	mov    %edx,%eax
    7fbe:	eb 03                	jmp    7fc3 <safe_lshift_func_uint32_t_u_u+0x38>
    7fc0:	8b 45 fc             	mov    -0x4(%rbp),%eax
    7fc3:	5d                   	pop    %rbp
    7fc4:	c3                   	retq   

0000000000007fc5 <safe_rshift_func_uint32_t_u_s>:
    7fc5:	f3 0f 1e fa          	endbr64 
    7fc9:	55                   	push   %rbp
    7fca:	48 89 e5             	mov    %rsp,%rbp
    7fcd:	89 7d fc             	mov    %edi,-0x4(%rbp)
    7fd0:	89 75 f8             	mov    %esi,-0x8(%rbp)
    7fd3:	83 7d f8 00          	cmpl   $0x0,-0x8(%rbp)
    7fd7:	78 14                	js     7fed <safe_rshift_func_uint32_t_u_s+0x28>
    7fd9:	83 7d f8 1f          	cmpl   $0x1f,-0x8(%rbp)
    7fdd:	7f 0e                	jg     7fed <safe_rshift_func_uint32_t_u_s+0x28>
    7fdf:	8b 45 f8             	mov    -0x8(%rbp),%eax
    7fe2:	8b 55 fc             	mov    -0x4(%rbp),%edx
    7fe5:	89 c1                	mov    %eax,%ecx
    7fe7:	d3 ea                	shr    %cl,%edx
    7fe9:	89 d0                	mov    %edx,%eax
    7feb:	eb 03                	jmp    7ff0 <safe_rshift_func_uint32_t_u_s+0x2b>
    7fed:	8b 45 fc             	mov    -0x4(%rbp),%eax
    7ff0:	5d                   	pop    %rbp
    7ff1:	c3                   	retq   

0000000000007ff2 <safe_rshift_func_uint32_t_u_u>:
    7ff2:	f3 0f 1e fa          	endbr64 
    7ff6:	55                   	push   %rbp
    7ff7:	48 89 e5             	mov    %rsp,%rbp
    7ffa:	89 7d fc             	mov    %edi,-0x4(%rbp)
    7ffd:	89 75 f8             	mov    %esi,-0x8(%rbp)
    8000:	83 7d f8 1f          	cmpl   $0x1f,-0x8(%rbp)
    8004:	77 0e                	ja     8014 <safe_rshift_func_uint32_t_u_u+0x22>
    8006:	8b 45 f8             	mov    -0x8(%rbp),%eax
    8009:	8b 55 fc             	mov    -0x4(%rbp),%edx
    800c:	89 c1                	mov    %eax,%ecx
    800e:	d3 ea                	shr    %cl,%edx
    8010:	89 d0                	mov    %edx,%eax
    8012:	eb 03                	jmp    8017 <safe_rshift_func_uint32_t_u_u+0x25>
    8014:	8b 45 fc             	mov    -0x4(%rbp),%eax
    8017:	5d                   	pop    %rbp
    8018:	c3                   	retq   

0000000000008019 <safe_unary_minus_func_uint64_t_u>:
    8019:	f3 0f 1e fa          	endbr64 
    801d:	55                   	push   %rbp
    801e:	48 89 e5             	mov    %rsp,%rbp
    8021:	48 89 7d f8          	mov    %rdi,-0x8(%rbp)
    8025:	48 8b 45 f8          	mov    -0x8(%rbp),%rax
    8029:	48 f7 d8             	neg    %rax
    802c:	5d                   	pop    %rbp
    802d:	c3                   	retq   

000000000000802e <safe_add_func_uint64_t_u_u>:
    802e:	f3 0f 1e fa          	endbr64 
    8032:	55                   	push   %rbp
    8033:	48 89 e5             	mov    %rsp,%rbp
    8036:	48 89 7d f8          	mov    %rdi,-0x8(%rbp)
    803a:	48 89 75 f0          	mov    %rsi,-0x10(%rbp)
    803e:	48 8b 55 f8          	mov    -0x8(%rbp),%rdx
    8042:	48 8b 45 f0          	mov    -0x10(%rbp),%rax
    8046:	48 01 d0             	add    %rdx,%rax
    8049:	5d                   	pop    %rbp
    804a:	c3                   	retq   

000000000000804b <safe_sub_func_uint64_t_u_u>:
    804b:	f3 0f 1e fa          	endbr64 
    804f:	55                   	push   %rbp
    8050:	48 89 e5             	mov    %rsp,%rbp
    8053:	48 89 7d f8          	mov    %rdi,-0x8(%rbp)
    8057:	48 89 75 f0          	mov    %rsi,-0x10(%rbp)
    805b:	48 8b 45 f8          	mov    -0x8(%rbp),%rax
    805f:	48 2b 45 f0          	sub    -0x10(%rbp),%rax
    8063:	5d                   	pop    %rbp
    8064:	c3                   	retq   

0000000000008065 <safe_mul_func_uint64_t_u_u>:
    8065:	f3 0f 1e fa          	endbr64 
    8069:	55                   	push   %rbp
    806a:	48 89 e5             	mov    %rsp,%rbp
    806d:	48 89 7d f8          	mov    %rdi,-0x8(%rbp)
    8071:	48 89 75 f0          	mov    %rsi,-0x10(%rbp)
    8075:	48 8b 45 f8          	mov    -0x8(%rbp),%rax
    8079:	48 0f af 45 f0       	imul   -0x10(%rbp),%rax
    807e:	5d                   	pop    %rbp
    807f:	c3                   	retq   

0000000000008080 <safe_mod_func_uint64_t_u_u>:
    8080:	f3 0f 1e fa          	endbr64 
    8084:	55                   	push   %rbp
    8085:	48 89 e5             	mov    %rsp,%rbp
    8088:	48 89 7d f8          	mov    %rdi,-0x8(%rbp)
    808c:	48 89 75 f0          	mov    %rsi,-0x10(%rbp)
    8090:	48 83 7d f0 00       	cmpq   $0x0,-0x10(%rbp)
    8095:	74 12                	je     80a9 <safe_mod_func_uint64_t_u_u+0x29>
    8097:	48 8b 45 f8          	mov    -0x8(%rbp),%rax
    809b:	ba 00 00 00 00       	mov    $0x0,%edx
    80a0:	48 f7 75 f0          	divq   -0x10(%rbp)
    80a4:	48 89 d0             	mov    %rdx,%rax
    80a7:	eb 04                	jmp    80ad <safe_mod_func_uint64_t_u_u+0x2d>
    80a9:	48 8b 45 f8          	mov    -0x8(%rbp),%rax
    80ad:	5d                   	pop    %rbp
    80ae:	c3                   	retq   

00000000000080af <safe_div_func_uint64_t_u_u>:
    80af:	f3 0f 1e fa          	endbr64 
    80b3:	55                   	push   %rbp
    80b4:	48 89 e5             	mov    %rsp,%rbp
    80b7:	48 89 7d f8          	mov    %rdi,-0x8(%rbp)
    80bb:	48 89 75 f0          	mov    %rsi,-0x10(%rbp)
    80bf:	48 83 7d f0 00       	cmpq   $0x0,-0x10(%rbp)
    80c4:	74 0f                	je     80d5 <safe_div_func_uint64_t_u_u+0x26>
    80c6:	48 8b 45 f8          	mov    -0x8(%rbp),%rax
    80ca:	ba 00 00 00 00       	mov    $0x0,%edx
    80cf:	48 f7 75 f0          	divq   -0x10(%rbp)
    80d3:	eb 04                	jmp    80d9 <safe_div_func_uint64_t_u_u+0x2a>
    80d5:	48 8b 45 f8          	mov    -0x8(%rbp),%rax
    80d9:	5d                   	pop    %rbp
    80da:	c3                   	retq   

00000000000080db <safe_lshift_func_uint64_t_u_s>:
    80db:	f3 0f 1e fa          	endbr64 
    80df:	55                   	push   %rbp
    80e0:	48 89 e5             	mov    %rsp,%rbp
    80e3:	48 89 7d f8          	mov    %rdi,-0x8(%rbp)
    80e7:	89 75 f4             	mov    %esi,-0xc(%rbp)
    80ea:	83 7d f4 00          	cmpl   $0x0,-0xc(%rbp)
    80ee:	78 2f                	js     811f <safe_lshift_func_uint64_t_u_s+0x44>
    80f0:	83 7d f4 1f          	cmpl   $0x1f,-0xc(%rbp)
    80f4:	7f 29                	jg     811f <safe_lshift_func_uint64_t_u_s+0x44>
    80f6:	8b 45 f4             	mov    -0xc(%rbp),%eax
    80f9:	48 c7 c2 ff ff ff ff 	mov    $0xffffffffffffffff,%rdx
    8100:	89 c1                	mov    %eax,%ecx
    8102:	48 d3 ea             	shr    %cl,%rdx
    8105:	48 89 d0             	mov    %rdx,%rax
    8108:	48 39 45 f8          	cmp    %rax,-0x8(%rbp)
    810c:	77 11                	ja     811f <safe_lshift_func_uint64_t_u_s+0x44>
    810e:	8b 45 f4             	mov    -0xc(%rbp),%eax
    8111:	48 8b 55 f8          	mov    -0x8(%rbp),%rdx
    8115:	89 c1                	mov    %eax,%ecx
    8117:	48 d3 e2             	shl    %cl,%rdx
    811a:	48 89 d0             	mov    %rdx,%rax
    811d:	eb 04                	jmp    8123 <safe_lshift_func_uint64_t_u_s+0x48>
    811f:	48 8b 45 f8          	mov    -0x8(%rbp),%rax
    8123:	5d                   	pop    %rbp
    8124:	c3                   	retq   

0000000000008125 <safe_lshift_func_uint64_t_u_u>:
    8125:	f3 0f 1e fa          	endbr64 
    8129:	55                   	push   %rbp
    812a:	48 89 e5             	mov    %rsp,%rbp
    812d:	48 89 7d f8          	mov    %rdi,-0x8(%rbp)
    8131:	89 75 f4             	mov    %esi,-0xc(%rbp)
    8134:	83 7d f4 1f          	cmpl   $0x1f,-0xc(%rbp)
    8138:	77 29                	ja     8163 <safe_lshift_func_uint64_t_u_u+0x3e>
    813a:	8b 45 f4             	mov    -0xc(%rbp),%eax
    813d:	48 c7 c2 ff ff ff ff 	mov    $0xffffffffffffffff,%rdx
    8144:	89 c1                	mov    %eax,%ecx
    8146:	48 d3 ea             	shr    %cl,%rdx
    8149:	48 89 d0             	mov    %rdx,%rax
    814c:	48 39 45 f8          	cmp    %rax,-0x8(%rbp)
    8150:	77 11                	ja     8163 <safe_lshift_func_uint64_t_u_u+0x3e>
    8152:	8b 45 f4             	mov    -0xc(%rbp),%eax
    8155:	48 8b 55 f8          	mov    -0x8(%rbp),%rdx
    8159:	89 c1                	mov    %eax,%ecx
    815b:	48 d3 e2             	shl    %cl,%rdx
    815e:	48 89 d0             	mov    %rdx,%rax
    8161:	eb 04                	jmp    8167 <safe_lshift_func_uint64_t_u_u+0x42>
    8163:	48 8b 45 f8          	mov    -0x8(%rbp),%rax
    8167:	5d                   	pop    %rbp
    8168:	c3                   	retq   

0000000000008169 <safe_rshift_func_uint64_t_u_s>:
    8169:	f3 0f 1e fa          	endbr64 
    816d:	55                   	push   %rbp
    816e:	48 89 e5             	mov    %rsp,%rbp
    8171:	48 89 7d f8          	mov    %rdi,-0x8(%rbp)
    8175:	89 75 f4             	mov    %esi,-0xc(%rbp)
    8178:	83 7d f4 00          	cmpl   $0x0,-0xc(%rbp)
    817c:	78 17                	js     8195 <safe_rshift_func_uint64_t_u_s+0x2c>
    817e:	83 7d f4 1f          	cmpl   $0x1f,-0xc(%rbp)
    8182:	7f 11                	jg     8195 <safe_rshift_func_uint64_t_u_s+0x2c>
    8184:	8b 45 f4             	mov    -0xc(%rbp),%eax
    8187:	48 8b 55 f8          	mov    -0x8(%rbp),%rdx
    818b:	89 c1                	mov    %eax,%ecx
    818d:	48 d3 ea             	shr    %cl,%rdx
    8190:	48 89 d0             	mov    %rdx,%rax
    8193:	eb 04                	jmp    8199 <safe_rshift_func_uint64_t_u_s+0x30>
    8195:	48 8b 45 f8          	mov    -0x8(%rbp),%rax
    8199:	5d                   	pop    %rbp
    819a:	c3                   	retq   

000000000000819b <safe_rshift_func_uint64_t_u_u>:
    819b:	f3 0f 1e fa          	endbr64 
    819f:	55                   	push   %rbp
    81a0:	48 89 e5             	mov    %rsp,%rbp
    81a3:	48 89 7d f8          	mov    %rdi,-0x8(%rbp)
    81a7:	89 75 f4             	mov    %esi,-0xc(%rbp)
    81aa:	83 7d f4 1f          	cmpl   $0x1f,-0xc(%rbp)
    81ae:	77 11                	ja     81c1 <safe_rshift_func_uint64_t_u_u+0x26>
    81b0:	8b 45 f4             	mov    -0xc(%rbp),%eax
    81b3:	48 8b 55 f8          	mov    -0x8(%rbp),%rdx
    81b7:	89 c1                	mov    %eax,%ecx
    81b9:	48 d3 ea             	shr    %cl,%rdx
    81bc:	48 89 d0             	mov    %rdx,%rax
    81bf:	eb 04                	jmp    81c5 <safe_rshift_func_uint64_t_u_u+0x2a>
    81c1:	48 8b 45 f8          	mov    -0x8(%rbp),%rax
    81c5:	5d                   	pop    %rbp
    81c6:	c3                   	retq   

00000000000081c7 <safe_add_func_float_f_f>:
    81c7:	f3 0f 1e fa          	endbr64 
    81cb:	55                   	push   %rbp
    81cc:	48 89 e5             	mov    %rsp,%rbp
    81cf:	f3 0f 11 45 fc       	movss  %xmm0,-0x4(%rbp)
    81d4:	f3 0f 11 4d f8       	movss  %xmm1,-0x8(%rbp)
    81d9:	f3 0f 10 4d fc       	movss  -0x4(%rbp),%xmm1
    81de:	f3 0f 10 05 4a 62 00 	movss  0x624a(%rip),%xmm0        # e430 <g_1560+0x13b0>
    81e5:	00 
    81e6:	f3 0f 59 c8          	mulss  %xmm0,%xmm1
    81ea:	f3 0f 10 55 f8       	movss  -0x8(%rbp),%xmm2
    81ef:	f3 0f 10 05 39 62 00 	movss  0x6239(%rip),%xmm0        # e430 <g_1560+0x13b0>
    81f6:	00 
    81f7:	f3 0f 59 c2          	mulss  %xmm2,%xmm0
    81fb:	f3 0f 58 c1          	addss  %xmm1,%xmm0
    81ff:	f3 0f 10 0d 39 62 00 	movss  0x6239(%rip),%xmm1        # e440 <g_1560+0x13c0>
    8206:	00 
    8207:	0f 54 c1             	andps  %xmm1,%xmm0
    820a:	0f 2f 05 3f 62 00 00 	comiss 0x623f(%rip),%xmm0        # e450 <g_1560+0x13d0>
    8211:	76 07                	jbe    821a <safe_add_func_float_f_f+0x53>
    8213:	f3 0f 10 45 fc       	movss  -0x4(%rbp),%xmm0
    8218:	eb 0a                	jmp    8224 <safe_add_func_float_f_f+0x5d>
    821a:	f3 0f 10 45 fc       	movss  -0x4(%rbp),%xmm0
    821f:	f3 0f 58 45 f8       	addss  -0x8(%rbp),%xmm0
    8224:	5d                   	pop    %rbp
    8225:	c3                   	retq   

0000000000008226 <safe_sub_func_float_f_f>:
    8226:	f3 0f 1e fa          	endbr64 
    822a:	55                   	push   %rbp
    822b:	48 89 e5             	mov    %rsp,%rbp
    822e:	f3 0f 11 45 fc       	movss  %xmm0,-0x4(%rbp)
    8233:	f3 0f 11 4d f8       	movss  %xmm1,-0x8(%rbp)
    8238:	f3 0f 10 4d fc       	movss  -0x4(%rbp),%xmm1
    823d:	f3 0f 10 05 eb 61 00 	movss  0x61eb(%rip),%xmm0        # e430 <g_1560+0x13b0>
    8244:	00 
    8245:	f3 0f 59 c1          	mulss  %xmm1,%xmm0
    8249:	f3 0f 10 55 f8       	movss  -0x8(%rbp),%xmm2
    824e:	f3 0f 10 0d da 61 00 	movss  0x61da(%rip),%xmm1        # e430 <g_1560+0x13b0>
    8255:	00 
    8256:	f3 0f 59 ca          	mulss  %xmm2,%xmm1
    825a:	f3 0f 5c c1          	subss  %xmm1,%xmm0
    825e:	f3 0f 10 0d da 61 00 	movss  0x61da(%rip),%xmm1        # e440 <g_1560+0x13c0>
    8265:	00 
    8266:	0f 54 c1             	andps  %xmm1,%xmm0
    8269:	0f 2f 05 e0 61 00 00 	comiss 0x61e0(%rip),%xmm0        # e450 <g_1560+0x13d0>
    8270:	76 07                	jbe    8279 <safe_sub_func_float_f_f+0x53>
    8272:	f3 0f 10 45 fc       	movss  -0x4(%rbp),%xmm0
    8277:	eb 0a                	jmp    8283 <safe_sub_func_float_f_f+0x5d>
    8279:	f3 0f 10 45 fc       	movss  -0x4(%rbp),%xmm0
    827e:	f3 0f 5c 45 f8       	subss  -0x8(%rbp),%xmm0
    8283:	5d                   	pop    %rbp
    8284:	c3                   	retq   

0000000000008285 <safe_mul_func_float_f_f>:
    8285:	f3 0f 1e fa          	endbr64 
    8289:	55                   	push   %rbp
    828a:	48 89 e5             	mov    %rsp,%rbp
    828d:	f3 0f 11 45 fc       	movss  %xmm0,-0x4(%rbp)
    8292:	f3 0f 11 4d f8       	movss  %xmm1,-0x8(%rbp)
    8297:	f3 0f 10 4d fc       	movss  -0x4(%rbp),%xmm1
    829c:	f3 0f 10 05 b0 61 00 	movss  0x61b0(%rip),%xmm0        # e454 <g_1560+0x13d4>
    82a3:	00 
    82a4:	f3 0f 59 c8          	mulss  %xmm0,%xmm1
    82a8:	f3 0f 10 55 f8       	movss  -0x8(%rbp),%xmm2
    82ad:	f3 0f 10 05 a3 61 00 	movss  0x61a3(%rip),%xmm0        # e458 <g_1560+0x13d8>
    82b4:	00 
    82b5:	f3 0f 59 c2          	mulss  %xmm2,%xmm0
    82b9:	f3 0f 59 c1          	mulss  %xmm1,%xmm0
    82bd:	f3 0f 10 0d 7b 61 00 	movss  0x617b(%rip),%xmm1        # e440 <g_1560+0x13c0>
    82c4:	00 
    82c5:	0f 54 c1             	andps  %xmm1,%xmm0
    82c8:	0f 2f 05 8d 61 00 00 	comiss 0x618d(%rip),%xmm0        # e45c <g_1560+0x13dc>
    82cf:	76 07                	jbe    82d8 <safe_mul_func_float_f_f+0x53>
    82d1:	f3 0f 10 45 fc       	movss  -0x4(%rbp),%xmm0
    82d6:	eb 0a                	jmp    82e2 <safe_mul_func_float_f_f+0x5d>
    82d8:	f3 0f 10 45 fc       	movss  -0x4(%rbp),%xmm0
    82dd:	f3 0f 59 45 f8       	mulss  -0x8(%rbp),%xmm0
    82e2:	5d                   	pop    %rbp
    82e3:	c3                   	retq   

00000000000082e4 <safe_div_func_float_f_f>:
    82e4:	f3 0f 1e fa          	endbr64 
    82e8:	55                   	push   %rbp
    82e9:	48 89 e5             	mov    %rsp,%rbp
    82ec:	f3 0f 11 45 fc       	movss  %xmm0,-0x4(%rbp)
    82f1:	f3 0f 11 4d f8       	movss  %xmm1,-0x8(%rbp)
    82f6:	f3 0f 10 45 f8       	movss  -0x8(%rbp),%xmm0
    82fb:	f3 0f 10 0d 3d 61 00 	movss  0x613d(%rip),%xmm1        # e440 <g_1560+0x13c0>
    8302:	00 
    8303:	0f 54 c8             	andps  %xmm0,%xmm1
    8306:	f3 0f 10 05 52 61 00 	movss  0x6152(%rip),%xmm0        # e460 <g_1560+0x13e0>
    830d:	00 
    830e:	0f 2f c1             	comiss %xmm1,%xmm0
    8311:	0f 97 c0             	seta   %al
    8314:	83 f0 01             	xor    $0x1,%eax
    8317:	84 c0                	test   %al,%al
    8319:	75 56                	jne    8371 <safe_div_func_float_f_f+0x8d>
    831b:	66 0f ef c0          	pxor   %xmm0,%xmm0
    831f:	0f 2e 45 f8          	ucomiss -0x8(%rbp),%xmm0
    8323:	7a 0a                	jp     832f <safe_div_func_float_f_f+0x4b>
    8325:	66 0f ef c0          	pxor   %xmm0,%xmm0
    8329:	0f 2e 45 f8          	ucomiss -0x8(%rbp),%xmm0
    832d:	74 4e                	je     837d <safe_div_func_float_f_f+0x99>
    832f:	f3 0f 10 4d fc       	movss  -0x4(%rbp),%xmm1
    8334:	f3 0f 10 05 28 61 00 	movss  0x6128(%rip),%xmm0        # e464 <g_1560+0x13e4>
    833b:	00 
    833c:	f3 0f 59 c1          	mulss  %xmm1,%xmm0
    8340:	f3 0f 10 55 f8       	movss  -0x8(%rbp),%xmm2
    8345:	f3 0f 10 0d 1b 61 00 	movss  0x611b(%rip),%xmm1        # e468 <g_1560+0x13e8>
    834c:	00 
    834d:	f3 0f 59 ca          	mulss  %xmm2,%xmm1
    8351:	f3 0f 5e c1          	divss  %xmm1,%xmm0
    8355:	f3 0f 10 0d e3 60 00 	movss  0x60e3(%rip),%xmm1        # e440 <g_1560+0x13c0>
    835c:	00 
    835d:	0f 54 c1             	andps  %xmm1,%xmm0
    8360:	0f 2f 05 05 61 00 00 	comiss 0x6105(%rip),%xmm0        # e46c <g_1560+0x13ec>
    8367:	0f 97 c0             	seta   %al
    836a:	83 f0 01             	xor    $0x1,%eax
    836d:	84 c0                	test   %al,%al
    836f:	74 0c                	je     837d <safe_div_func_float_f_f+0x99>
    8371:	f3 0f 10 45 fc       	movss  -0x4(%rbp),%xmm0
    8376:	f3 0f 5e 45 f8       	divss  -0x8(%rbp),%xmm0
    837b:	eb 05                	jmp    8382 <safe_div_func_float_f_f+0x9e>
    837d:	f3 0f 10 45 fc       	movss  -0x4(%rbp),%xmm0
    8382:	5d                   	pop    %rbp
    8383:	c3                   	retq   

0000000000008384 <safe_add_func_double_f_f>:
    8384:	f3 0f 1e fa          	endbr64 
    8388:	55                   	push   %rbp
    8389:	48 89 e5             	mov    %rsp,%rbp
    838c:	f2 0f 11 45 f8       	movsd  %xmm0,-0x8(%rbp)
    8391:	f2 0f 11 4d f0       	movsd  %xmm1,-0x10(%rbp)
    8396:	f2 0f 10 4d f8       	movsd  -0x8(%rbp),%xmm1
    839b:	f2 0f 10 05 cd 60 00 	movsd  0x60cd(%rip),%xmm0        # e470 <g_1560+0x13f0>
    83a2:	00 
    83a3:	f2 0f 59 c8          	mulsd  %xmm0,%xmm1
    83a7:	f2 0f 10 55 f0       	movsd  -0x10(%rbp),%xmm2
    83ac:	f2 0f 10 05 bc 60 00 	movsd  0x60bc(%rip),%xmm0        # e470 <g_1560+0x13f0>
    83b3:	00 
    83b4:	f2 0f 59 c2          	mulsd  %xmm2,%xmm0
    83b8:	f2 0f 58 c1          	addsd  %xmm1,%xmm0
    83bc:	f3 0f 7e 0d bc 60 00 	movq   0x60bc(%rip),%xmm1        # e480 <g_1560+0x1400>
    83c3:	00 
    83c4:	66 0f 54 c1          	andpd  %xmm1,%xmm0
    83c8:	66 0f 2f 05 c0 60 00 	comisd 0x60c0(%rip),%xmm0        # e490 <g_1560+0x1410>
    83cf:	00 
    83d0:	76 07                	jbe    83d9 <safe_add_func_double_f_f+0x55>
    83d2:	f2 0f 10 45 f8       	movsd  -0x8(%rbp),%xmm0
    83d7:	eb 0a                	jmp    83e3 <safe_add_func_double_f_f+0x5f>
    83d9:	f2 0f 10 45 f8       	movsd  -0x8(%rbp),%xmm0
    83de:	f2 0f 58 45 f0       	addsd  -0x10(%rbp),%xmm0
    83e3:	5d                   	pop    %rbp
    83e4:	c3                   	retq   

00000000000083e5 <safe_sub_func_double_f_f>:
    83e5:	f3 0f 1e fa          	endbr64 
    83e9:	55                   	push   %rbp
    83ea:	48 89 e5             	mov    %rsp,%rbp
    83ed:	f2 0f 11 45 f8       	movsd  %xmm0,-0x8(%rbp)
    83f2:	f2 0f 11 4d f0       	movsd  %xmm1,-0x10(%rbp)
    83f7:	f2 0f 10 4d f8       	movsd  -0x8(%rbp),%xmm1
    83fc:	f2 0f 10 05 6c 60 00 	movsd  0x606c(%rip),%xmm0        # e470 <g_1560+0x13f0>
    8403:	00 
    8404:	f2 0f 59 c1          	mulsd  %xmm1,%xmm0
    8408:	f2 0f 10 55 f0       	movsd  -0x10(%rbp),%xmm2
    840d:	f2 0f 10 0d 5b 60 00 	movsd  0x605b(%rip),%xmm1        # e470 <g_1560+0x13f0>
    8414:	00 
    8415:	f2 0f 59 ca          	mulsd  %xmm2,%xmm1
    8419:	f2 0f 5c c1          	subsd  %xmm1,%xmm0
    841d:	f3 0f 7e 0d 5b 60 00 	movq   0x605b(%rip),%xmm1        # e480 <g_1560+0x1400>
    8424:	00 
    8425:	66 0f 54 c1          	andpd  %xmm1,%xmm0
    8429:	66 0f 2f 05 5f 60 00 	comisd 0x605f(%rip),%xmm0        # e490 <g_1560+0x1410>
    8430:	00 
    8431:	76 07                	jbe    843a <safe_sub_func_double_f_f+0x55>
    8433:	f2 0f 10 45 f8       	movsd  -0x8(%rbp),%xmm0
    8438:	eb 0a                	jmp    8444 <safe_sub_func_double_f_f+0x5f>
    843a:	f2 0f 10 45 f8       	movsd  -0x8(%rbp),%xmm0
    843f:	f2 0f 5c 45 f0       	subsd  -0x10(%rbp),%xmm0
    8444:	5d                   	pop    %rbp
    8445:	c3                   	retq   

0000000000008446 <safe_mul_func_double_f_f>:
    8446:	f3 0f 1e fa          	endbr64 
    844a:	55                   	push   %rbp
    844b:	48 89 e5             	mov    %rsp,%rbp
    844e:	f2 0f 11 45 f8       	movsd  %xmm0,-0x8(%rbp)
    8453:	f2 0f 11 4d f0       	movsd  %xmm1,-0x10(%rbp)
    8458:	f2 0f 10 4d f8       	movsd  -0x8(%rbp),%xmm1
    845d:	f2 0f 10 05 33 60 00 	movsd  0x6033(%rip),%xmm0        # e498 <g_1560+0x1418>
    8464:	00 
    8465:	f2 0f 59 c8          	mulsd  %xmm0,%xmm1
    8469:	f2 0f 10 55 f0       	movsd  -0x10(%rbp),%xmm2
    846e:	f2 0f 10 05 2a 60 00 	movsd  0x602a(%rip),%xmm0        # e4a0 <g_1560+0x1420>
    8475:	00 
    8476:	f2 0f 59 c2          	mulsd  %xmm2,%xmm0
    847a:	f2 0f 59 c1          	mulsd  %xmm1,%xmm0
    847e:	f3 0f 7e 0d fa 5f 00 	movq   0x5ffa(%rip),%xmm1        # e480 <g_1560+0x1400>
    8485:	00 
    8486:	66 0f 54 c1          	andpd  %xmm1,%xmm0
    848a:	66 0f 2f 05 16 60 00 	comisd 0x6016(%rip),%xmm0        # e4a8 <g_1560+0x1428>
    8491:	00 
    8492:	76 07                	jbe    849b <safe_mul_func_double_f_f+0x55>
    8494:	f2 0f 10 45 f8       	movsd  -0x8(%rbp),%xmm0
    8499:	eb 0a                	jmp    84a5 <safe_mul_func_double_f_f+0x5f>
    849b:	f2 0f 10 45 f8       	movsd  -0x8(%rbp),%xmm0
    84a0:	f2 0f 59 45 f0       	mulsd  -0x10(%rbp),%xmm0
    84a5:	5d                   	pop    %rbp
    84a6:	c3                   	retq   

00000000000084a7 <safe_div_func_double_f_f>:
    84a7:	f3 0f 1e fa          	endbr64 
    84ab:	55                   	push   %rbp
    84ac:	48 89 e5             	mov    %rsp,%rbp
    84af:	f2 0f 11 45 f8       	movsd  %xmm0,-0x8(%rbp)
    84b4:	f2 0f 11 4d f0       	movsd  %xmm1,-0x10(%rbp)
    84b9:	f2 0f 10 45 f0       	movsd  -0x10(%rbp),%xmm0
    84be:	f3 0f 7e 0d ba 5f 00 	movq   0x5fba(%rip),%xmm1        # e480 <g_1560+0x1400>
    84c5:	00 
    84c6:	66 0f 54 c8          	andpd  %xmm0,%xmm1
    84ca:	f2 0f 10 05 de 5f 00 	movsd  0x5fde(%rip),%xmm0        # e4b0 <g_1560+0x1430>
    84d1:	00 
    84d2:	66 0f 2f c1          	comisd %xmm1,%xmm0
    84d6:	0f 97 c0             	seta   %al
    84d9:	83 f0 01             	xor    $0x1,%eax
    84dc:	84 c0                	test   %al,%al
    84de:	75 5a                	jne    853a <safe_div_func_double_f_f+0x93>
    84e0:	66 0f ef c0          	pxor   %xmm0,%xmm0
    84e4:	66 0f 2e 45 f0       	ucomisd -0x10(%rbp),%xmm0
    84e9:	7a 0b                	jp     84f6 <safe_div_func_double_f_f+0x4f>
    84eb:	66 0f ef c0          	pxor   %xmm0,%xmm0
    84ef:	66 0f 2e 45 f0       	ucomisd -0x10(%rbp),%xmm0
    84f4:	74 50                	je     8546 <safe_div_func_double_f_f+0x9f>
    84f6:	f2 0f 10 4d f8       	movsd  -0x8(%rbp),%xmm1
    84fb:	f2 0f 10 05 b5 5f 00 	movsd  0x5fb5(%rip),%xmm0        # e4b8 <g_1560+0x1438>
    8502:	00 
    8503:	f2 0f 59 c1          	mulsd  %xmm1,%xmm0
    8507:	f2 0f 10 55 f0       	movsd  -0x10(%rbp),%xmm2
    850c:	f2 0f 10 0d ac 5f 00 	movsd  0x5fac(%rip),%xmm1        # e4c0 <g_1560+0x1440>
    8513:	00 
    8514:	f2 0f 59 ca          	mulsd  %xmm2,%xmm1
    8518:	f2 0f 5e c1          	divsd  %xmm1,%xmm0
    851c:	f3 0f 7e 0d 5c 5f 00 	movq   0x5f5c(%rip),%xmm1        # e480 <g_1560+0x1400>
    8523:	00 
    8524:	66 0f 54 c1          	andpd  %xmm1,%xmm0
    8528:	66 0f 2f 05 98 5f 00 	comisd 0x5f98(%rip),%xmm0        # e4c8 <g_1560+0x1448>
    852f:	00 
    8530:	0f 97 c0             	seta   %al
    8533:	83 f0 01             	xor    $0x1,%eax
    8536:	84 c0                	test   %al,%al
    8538:	74 0c                	je     8546 <safe_div_func_double_f_f+0x9f>
    853a:	f2 0f 10 45 f8       	movsd  -0x8(%rbp),%xmm0
    853f:	f2 0f 5e 45 f0       	divsd  -0x10(%rbp),%xmm0
    8544:	eb 05                	jmp    854b <safe_div_func_double_f_f+0xa4>
    8546:	f2 0f 10 45 f8       	movsd  -0x8(%rbp),%xmm0
    854b:	5d                   	pop    %rbp
    854c:	c3                   	retq   

000000000000854d <safe_convert_func_float_to_int32_t>:
    854d:	f3 0f 1e fa          	endbr64 
    8551:	55                   	push   %rbp
    8552:	48 89 e5             	mov    %rsp,%rbp
    8555:	f3 0f 11 45 fc       	movss  %xmm0,-0x4(%rbp)
    855a:	f3 0f 10 05 6e 5f 00 	movss  0x5f6e(%rip),%xmm0        # e4d0 <g_1560+0x1450>
    8561:	00 
    8562:	0f 2f 45 fc          	comiss -0x4(%rbp),%xmm0
    8566:	0f 93 c0             	setae  %al
    8569:	83 f0 01             	xor    $0x1,%eax
    856c:	84 c0                	test   %al,%al
    856e:	74 21                	je     8591 <safe_convert_func_float_to_int32_t+0x44>
    8570:	f3 0f 10 45 fc       	movss  -0x4(%rbp),%xmm0
    8575:	0f 2f 05 58 5f 00 00 	comiss 0x5f58(%rip),%xmm0        # e4d4 <g_1560+0x1454>
    857c:	0f 93 c0             	setae  %al
    857f:	83 f0 01             	xor    $0x1,%eax
    8582:	84 c0                	test   %al,%al
    8584:	74 0b                	je     8591 <safe_convert_func_float_to_int32_t+0x44>
    8586:	f3 0f 10 45 fc       	movss  -0x4(%rbp),%xmm0
    858b:	f3 0f 2c c0          	cvttss2si %xmm0,%eax
    858f:	eb 05                	jmp    8596 <safe_convert_func_float_to_int32_t+0x49>
    8591:	b8 ff ff ff 7f       	mov    $0x7fffffff,%eax
    8596:	5d                   	pop    %rbp
    8597:	c3                   	retq   

0000000000008598 <crc32_gentab>:
    8598:	f3 0f 1e fa          	endbr64 
    859c:	55                   	push   %rbp
    859d:	48 89 e5             	mov    %rsp,%rbp
    85a0:	c7 45 fc 20 83 b8 ed 	movl   $0xedb88320,-0x4(%rbp)
    85a7:	c7 45 f4 00 00 00 00 	movl   $0x0,-0xc(%rbp)
    85ae:	eb 51                	jmp    8601 <crc32_gentab+0x69>
    85b0:	8b 45 f4             	mov    -0xc(%rbp),%eax
    85b3:	89 45 f0             	mov    %eax,-0x10(%rbp)
    85b6:	c7 45 f8 08 00 00 00 	movl   $0x8,-0x8(%rbp)
    85bd:	eb 1e                	jmp    85dd <crc32_gentab+0x45>
    85bf:	8b 45 f0             	mov    -0x10(%rbp),%eax
    85c2:	83 e0 01             	and    $0x1,%eax
    85c5:	85 c0                	test   %eax,%eax
    85c7:	74 0d                	je     85d6 <crc32_gentab+0x3e>
    85c9:	8b 45 f0             	mov    -0x10(%rbp),%eax
    85cc:	d1 e8                	shr    %eax
    85ce:	33 45 fc             	xor    -0x4(%rbp),%eax
    85d1:	89 45 f0             	mov    %eax,-0x10(%rbp)
    85d4:	eb 03                	jmp    85d9 <crc32_gentab+0x41>
    85d6:	d1 6d f0             	shrl   -0x10(%rbp)
    85d9:	83 6d f8 01          	subl   $0x1,-0x8(%rbp)
    85dd:	83 7d f8 00          	cmpl   $0x0,-0x8(%rbp)
    85e1:	7f dc                	jg     85bf <crc32_gentab+0x27>
    85e3:	8b 45 f4             	mov    -0xc(%rbp),%eax
    85e6:	48 98                	cltq   
    85e8:	48 8d 0c 85 00 00 00 	lea    0x0(,%rax,4),%rcx
    85ef:	00 
    85f0:	48 8d 15 09 bc 00 00 	lea    0xbc09(%rip),%rdx        # 14200 <crc32_tab>
    85f7:	8b 45 f0             	mov    -0x10(%rbp),%eax
    85fa:	89 04 11             	mov    %eax,(%rcx,%rdx,1)
    85fd:	83 45 f4 01          	addl   $0x1,-0xc(%rbp)
    8601:	81 7d f4 ff 00 00 00 	cmpl   $0xff,-0xc(%rbp)
    8608:	7e a6                	jle    85b0 <crc32_gentab+0x18>
    860a:	90                   	nop
    860b:	90                   	nop
    860c:	5d                   	pop    %rbp
    860d:	c3                   	retq   

000000000000860e <crc32_byte>:
    860e:	f3 0f 1e fa          	endbr64 
    8612:	55                   	push   %rbp
    8613:	48 89 e5             	mov    %rsp,%rbp
    8616:	89 f8                	mov    %edi,%eax
    8618:	88 45 fc             	mov    %al,-0x4(%rbp)
    861b:	8b 05 ff 89 00 00    	mov    0x89ff(%rip),%eax        # 11020 <crc32_context>
    8621:	c1 e8 08             	shr    $0x8,%eax
    8624:	89 c1                	mov    %eax,%ecx
    8626:	0f b6 55 fc          	movzbl -0x4(%rbp),%edx
    862a:	8b 05 f0 89 00 00    	mov    0x89f0(%rip),%eax        # 11020 <crc32_context>
    8630:	31 d0                	xor    %edx,%eax
    8632:	0f b6 c0             	movzbl %al,%eax
    8635:	89 c0                	mov    %eax,%eax
    8637:	48 8d 14 85 00 00 00 	lea    0x0(,%rax,4),%rdx
    863e:	00 
    863f:	48 8d 05 ba bb 00 00 	lea    0xbbba(%rip),%rax        # 14200 <crc32_tab>
    8646:	8b 04 02             	mov    (%rdx,%rax,1),%eax
    8649:	31 c8                	xor    %ecx,%eax
    864b:	89 05 cf 89 00 00    	mov    %eax,0x89cf(%rip)        # 11020 <crc32_context>
    8651:	90                   	nop
    8652:	5d                   	pop    %rbp
    8653:	c3                   	retq   

0000000000008654 <crc32_8bytes>:
    8654:	f3 0f 1e fa          	endbr64 
    8658:	55                   	push   %rbp
    8659:	48 89 e5             	mov    %rsp,%rbp
    865c:	48 83 ec 08          	sub    $0x8,%rsp
    8660:	48 89 7d f8          	mov    %rdi,-0x8(%rbp)
    8664:	48 8b 45 f8          	mov    -0x8(%rbp),%rax
    8668:	0f b6 c0             	movzbl %al,%eax
    866b:	89 c7                	mov    %eax,%edi
    866d:	e8 9c ff ff ff       	callq  860e <crc32_byte>
    8672:	48 8b 45 f8          	mov    -0x8(%rbp),%rax
    8676:	48 c1 e8 08          	shr    $0x8,%rax
    867a:	0f b6 c0             	movzbl %al,%eax
    867d:	89 c7                	mov    %eax,%edi
    867f:	e8 8a ff ff ff       	callq  860e <crc32_byte>
    8684:	48 8b 45 f8          	mov    -0x8(%rbp),%rax
    8688:	48 c1 e8 10          	shr    $0x10,%rax
    868c:	0f b6 c0             	movzbl %al,%eax
    868f:	89 c7                	mov    %eax,%edi
    8691:	e8 78 ff ff ff       	callq  860e <crc32_byte>
    8696:	48 8b 45 f8          	mov    -0x8(%rbp),%rax
    869a:	48 c1 e8 18          	shr    $0x18,%rax
    869e:	0f b6 c0             	movzbl %al,%eax
    86a1:	89 c7                	mov    %eax,%edi
    86a3:	e8 66 ff ff ff       	callq  860e <crc32_byte>
    86a8:	48 8b 45 f8          	mov    -0x8(%rbp),%rax
    86ac:	48 c1 e8 20          	shr    $0x20,%rax
    86b0:	0f b6 c0             	movzbl %al,%eax
    86b3:	89 c7                	mov    %eax,%edi
    86b5:	e8 54 ff ff ff       	callq  860e <crc32_byte>
    86ba:	48 8b 45 f8          	mov    -0x8(%rbp),%rax
    86be:	48 c1 e8 28          	shr    $0x28,%rax
    86c2:	0f b6 c0             	movzbl %al,%eax
    86c5:	89 c7                	mov    %eax,%edi
    86c7:	e8 42 ff ff ff       	callq  860e <crc32_byte>
    86cc:	48 8b 45 f8          	mov    -0x8(%rbp),%rax
    86d0:	48 c1 e8 30          	shr    $0x30,%rax
    86d4:	0f b6 c0             	movzbl %al,%eax
    86d7:	89 c7                	mov    %eax,%edi
    86d9:	e8 30 ff ff ff       	callq  860e <crc32_byte>
    86de:	48 8b 45 f8          	mov    -0x8(%rbp),%rax
    86e2:	48 c1 e8 38          	shr    $0x38,%rax
    86e6:	0f b6 c0             	movzbl %al,%eax
    86e9:	89 c7                	mov    %eax,%edi
    86eb:	e8 1e ff ff ff       	callq  860e <crc32_byte>
    86f0:	90                   	nop
    86f1:	c9                   	leaveq 
    86f2:	c3                   	retq   

00000000000086f3 <transparent_crc>:
    86f3:	f3 0f 1e fa          	endbr64 
    86f7:	55                   	push   %rbp
    86f8:	48 89 e5             	mov    %rsp,%rbp
    86fb:	48 83 ec 20          	sub    $0x20,%rsp
    86ff:	48 89 7d f8          	mov    %rdi,-0x8(%rbp)
    8703:	48 89 75 f0          	mov    %rsi,-0x10(%rbp)
    8707:	89 55 ec             	mov    %edx,-0x14(%rbp)
    870a:	48 8b 45 f8          	mov    -0x8(%rbp),%rax
    870e:	48 89 c7             	mov    %rax,%rdi
    8711:	e8 3e ff ff ff       	callq  8654 <crc32_8bytes>
    8716:	83 7d ec 00          	cmpl   $0x0,-0x14(%rbp)
    871a:	74 22                	je     873e <transparent_crc+0x4b>
    871c:	8b 05 fe 88 00 00    	mov    0x88fe(%rip),%eax        # 11020 <crc32_context>
    8722:	f7 d0                	not    %eax
    8724:	89 c2                	mov    %eax,%edx
    8726:	48 8b 45 f0          	mov    -0x10(%rbp),%rax
    872a:	48 89 c6             	mov    %rax,%rsi
    872d:	48 8d 3d fc 48 00 00 	lea    0x48fc(%rip),%rdi        # d030 <_IO_stdin_used+0x30>
    8734:	b8 00 00 00 00       	mov    $0x0,%eax
    8739:	e8 42 e9 ff ff       	callq  7080 <printf@plt>
    873e:	90                   	nop
    873f:	c9                   	leaveq 
    8740:	c3                   	retq   

0000000000008741 <transparent_crc_bytes>:
    8741:	f3 0f 1e fa          	endbr64 
    8745:	55                   	push   %rbp
    8746:	48 89 e5             	mov    %rsp,%rbp
    8749:	48 83 ec 30          	sub    $0x30,%rsp
    874d:	48 89 7d e8          	mov    %rdi,-0x18(%rbp)
    8751:	89 75 e4             	mov    %esi,-0x1c(%rbp)
    8754:	48 89 55 d8          	mov    %rdx,-0x28(%rbp)
    8758:	89 4d e0             	mov    %ecx,-0x20(%rbp)
    875b:	c7 45 fc 00 00 00 00 	movl   $0x0,-0x4(%rbp)
    8762:	eb 1e                	jmp    8782 <transparent_crc_bytes+0x41>
    8764:	8b 45 fc             	mov    -0x4(%rbp),%eax
    8767:	48 63 d0             	movslq %eax,%rdx
    876a:	48 8b 45 e8          	mov    -0x18(%rbp),%rax
    876e:	48 01 d0             	add    %rdx,%rax
    8771:	0f b6 00             	movzbl (%rax),%eax
    8774:	0f b6 c0             	movzbl %al,%eax
    8777:	89 c7                	mov    %eax,%edi
    8779:	e8 90 fe ff ff       	callq  860e <crc32_byte>
    877e:	83 45 fc 01          	addl   $0x1,-0x4(%rbp)
    8782:	8b 45 fc             	mov    -0x4(%rbp),%eax
    8785:	3b 45 e4             	cmp    -0x1c(%rbp),%eax
    8788:	7c da                	jl     8764 <transparent_crc_bytes+0x23>
    878a:	83 7d e0 00          	cmpl   $0x0,-0x20(%rbp)
    878e:	74 22                	je     87b2 <transparent_crc_bytes+0x71>
    8790:	8b 05 8a 88 00 00    	mov    0x888a(%rip),%eax        # 11020 <crc32_context>
    8796:	f7 d0                	not    %eax
    8798:	89 c2                	mov    %eax,%edx
    879a:	48 8b 45 d8          	mov    -0x28(%rbp),%rax
    879e:	48 89 c6             	mov    %rax,%rsi
    87a1:	48 8d 3d 88 48 00 00 	lea    0x4888(%rip),%rdi        # d030 <_IO_stdin_used+0x30>
    87a8:	b8 00 00 00 00       	mov    $0x0,%eax
    87ad:	e8 ce e8 ff ff       	callq  7080 <printf@plt>
    87b2:	90                   	nop
    87b3:	c9                   	leaveq 
    87b4:	c3                   	retq   

00000000000087b5 <func_1>:
    87b5:	f3 0f 1e fa          	endbr64 
    87b9:	55                   	push   %rbp
    87ba:	48 89 e5             	mov    %rsp,%rbp
    87bd:	41 56                	push   %r14
    87bf:	41 55                	push   %r13
    87c1:	41 54                	push   %r12
    87c3:	53                   	push   %rbx
    87c4:	48 81 ec e0 02 00 00 	sub    $0x2e0,%rsp
    87cb:	64 48 8b 04 25 28 00 	mov    %fs:0x28,%rax
    87d2:	00 00 
    87d4:	48 89 45 d8          	mov    %rax,-0x28(%rbp)
    87d8:	31 c0                	xor    %eax,%eax
    87da:	c6 85 0b fd ff ff f6 	movb   $0xf6,-0x2f5(%rbp)
    87e1:	48 c7 85 50 fd ff ff 	movq   $0x0,-0x2b0(%rbp)
    87e8:	00 00 00 00 
    87ec:	c7 85 20 fd ff ff 01 	movl   $0x1,-0x2e0(%rbp)
    87f3:	00 00 00 
    87f6:	c7 85 24 fd ff ff a5 	movl   $0x2580f7a5,-0x2dc(%rbp)
    87fd:	f7 80 25 
    8800:	48 c7 85 58 fd ff ff 	movq   $0x0,-0x2a8(%rbp)
    8807:	00 00 00 00 
    880b:	48 8d 05 2e aa 00 00 	lea    0xaa2e(%rip),%rax        # 13240 <g_183>
    8812:	48 89 85 40 fd ff ff 	mov    %rax,-0x2c0(%rbp)
    8819:	48 b8 7c 3b 2d eb 41 	movabs $0xdb7f7241eb2d3b7c,%rax
    8820:	72 7f db 
    8823:	48 89 85 60 fd ff ff 	mov    %rax,-0x2a0(%rbp)
    882a:	48 8d 05 0f 8e 00 00 	lea    0x8e0f(%rip),%rax        # 11640 <g_1562>
    8831:	48 89 85 68 fd ff ff 	mov    %rax,-0x298(%rbp)
    8838:	c7 85 28 fd ff ff 97 	movl   $0xe0fdcd97,-0x2d8(%rbp)
    883f:	cd fd e0 
    8842:	48 8d 05 77 aa 00 00 	lea    0xaa77(%rip),%rax        # 132c0 <g_274+0x40>
    8849:	48 89 85 70 fd ff ff 	mov    %rax,-0x290(%rbp)
    8850:	c7 85 2c fd ff ff ff 	movl   $0xffffffff,-0x2d4(%rbp)
    8857:	ff ff ff 
    885a:	c7 85 30 fd ff ff 38 	movl   $0x6cd7b938,-0x2d0(%rbp)
    8861:	b9 d7 6c 
    8864:	48 c7 85 78 fd ff ff 	movq   $0x0,-0x288(%rbp)
    886b:	00 00 00 00 
    886f:	c6 85 0c fd ff ff 7f 	movb   $0x7f,-0x2f4(%rbp)
    8876:	c7 85 34 fd ff ff fd 	movl   $0xfffffffd,-0x2cc(%rbp)
    887d:	ff ff ff 
    8880:	48 8d 05 a1 aa 00 00 	lea    0xaaa1(%rip),%rax        # 13328 <g_350+0x28>
    8887:	48 89 85 80 fd ff ff 	mov    %rax,-0x280(%rbp)
    888e:	c7 85 18 fd ff ff 00 	movl   $0x0,-0x2e8(%rbp)
    8895:	00 00 00 
    8898:	eb 1e                	jmp    88b8 <func_1+0x103>
    889a:	8b 85 18 fd ff ff    	mov    -0x2e8(%rbp),%eax
    88a0:	48 98                	cltq   
    88a2:	48 8d 15 5f bd 00 00 	lea    0xbd5f(%rip),%rdx        # 14608 <g_12>
    88a9:	48 89 94 c5 b8 fd ff 	mov    %rdx,-0x248(%rbp,%rax,8)
    88b0:	ff 
    88b1:	83 85 18 fd ff ff 01 	addl   $0x1,-0x2e8(%rbp)
    88b8:	83 bd 18 fd ff ff 00 	cmpl   $0x0,-0x2e8(%rbp)
    88bf:	7e d9                	jle    889a <func_1+0xe5>
    88c1:	c7 85 18 fd ff ff 00 	movl   $0x0,-0x2e8(%rbp)
    88c8:	00 00 00 
    88cb:	eb 1e                	jmp    88eb <func_1+0x136>
    88cd:	8b 85 18 fd ff ff    	mov    -0x2e8(%rbp),%eax
    88d3:	48 98                	cltq   
    88d5:	48 8d 15 3c 88 00 00 	lea    0x883c(%rip),%rdx        # 11118 <g_21>
    88dc:	48 89 94 c5 c0 fd ff 	mov    %rdx,-0x240(%rbp,%rax,8)
    88e3:	ff 
    88e4:	83 85 18 fd ff ff 01 	addl   $0x1,-0x2e8(%rbp)
    88eb:	83 bd 18 fd ff ff 01 	cmpl   $0x1,-0x2e8(%rbp)
    88f2:	7e d9                	jle    88cd <func_1+0x118>
    88f4:	c7 85 18 fd ff ff 00 	movl   $0x0,-0x2e8(%rbp)
    88fb:	00 00 00 
    88fe:	eb 1a                	jmp    891a <func_1+0x165>
    8900:	8b 85 18 fd ff ff    	mov    -0x2e8(%rbp),%eax
    8906:	48 98                	cltq   
    8908:	c7 84 85 10 fe ff ff 	movl   $0xd66aedf3,-0x1f0(%rbp,%rax,4)
    890f:	f3 ed 6a d6 
    8913:	83 85 18 fd ff ff 01 	addl   $0x1,-0x2e8(%rbp)
    891a:	83 bd 18 fd ff ff 08 	cmpl   $0x8,-0x2e8(%rbp)
    8921:	7e dd                	jle    8900 <func_1+0x14b>
    8923:	4c 8b ad b8 fd ff ff 	mov    -0x248(%rbp),%r13
    892a:	48 8b 85 50 fd ff ff 	mov    -0x2b0(%rbp),%rax
    8931:	0f b6 d8             	movzbl %al,%ebx
    8934:	b8 f9 ce dd d9       	mov    $0xd9ddcef9,%eax
    8939:	41 89 c6             	mov    %eax,%r14d
    893c:	48 8b 85 b8 fd ff ff 	mov    -0x248(%rbp),%rax
    8943:	48 85 c0             	test   %rax,%rax
    8946:	75 43                	jne    898b <func_1+0x1d6>
    8948:	44 0f b6 a5 0b fd ff 	movzbl -0x2f5(%rbp),%r12d
    894f:	ff 
    8950:	48 8b 95 c0 fd ff ff 	mov    -0x240(%rbp),%rdx
    8957:	c7 05 b7 87 00 00 c5 	movl   $0x6ca0cec5,0x87b7(%rip)        # 11118 <g_21>
    895e:	ce a0 6c 
    8961:	8b 35 b1 87 00 00    	mov    0x87b1(%rip),%esi        # 11118 <g_21>
    8967:	0f b7 05 ee 86 00 00 	movzwl 0x86ee(%rip),%eax        # 1105c <g_19+0x1c>
    896e:	98                   	cwtl   
    896f:	8b 0d a7 87 00 00    	mov    0x87a7(%rip),%ecx        # 1111c <g_22>
    8975:	41 89 c8             	mov    %ecx,%r8d
    8978:	48 8d 0d 89 bc 00 00 	lea    0xbc89(%rip),%rcx        # 14608 <g_12>
    897f:	89 c7                	mov    %eax,%edi
    8981:	e8 40 09 00 00       	callq  92c6 <func_13>
    8986:	41 39 c4             	cmp    %eax,%r12d
    8989:	74 07                	je     8992 <func_1+0x1dd>
    898b:	b8 01 00 00 00       	mov    $0x1,%eax
    8990:	eb 05                	jmp    8997 <func_1+0x1e2>
    8992:	b8 00 00 00 00       	mov    $0x0,%eax
    8997:	48 98                	cltq   
    8999:	48 89 c7             	mov    %rax,%rdi
    899c:	e8 78 f6 ff ff       	callq  8019 <safe_unary_minus_func_uint64_t_u>
    89a1:	4c 89 f2             	mov    %r14,%rdx
    89a4:	48 09 c2             	or     %rax,%rdx
    89a7:	0f b6 85 0b fd ff ff 	movzbl -0x2f5(%rbp),%eax
    89ae:	48 39 c2             	cmp    %rax,%rdx
    89b1:	0f 95 c0             	setne  %al
    89b4:	0f b6 d0             	movzbl %al,%edx
    89b7:	0f b6 b5 0b fd ff ff 	movzbl -0x2f5(%rbp),%esi
    89be:	0f b6 85 0b fd ff ff 	movzbl -0x2f5(%rbp),%eax
    89c5:	4c 8b 25 74 b7 00 00 	mov    0xb774(%rip),%r12        # 14140 <g_1414>
    89cc:	4d 89 e8             	mov    %r13,%r8
    89cf:	89 d9                	mov    %ebx,%ecx
    89d1:	89 c7                	mov    %eax,%edi
    89d3:	e8 1f 04 00 00       	callq  8df7 <func_2>
    89d8:	49 89 04 24          	mov    %rax,(%r12)
    89dc:	c7 05 42 87 00 00 00 	movl   $0x0,0x8742(%rip)        # 11128 <g_96>
    89e3:	00 00 00 
    89e6:	e9 d0 03 00 00       	jmpq   8dbb <func_1+0x606>
    89eb:	66 c7 85 10 fd ff ff 	movw   $0x0,-0x2f0(%rbp)
    89f2:	00 00 
    89f4:	c7 85 14 fd ff ff 00 	movl   $0x0,-0x2ec(%rbp)
    89fb:	00 00 00 
    89fe:	66 c7 85 14 fd ff ff 	movw   $0xffff,-0x2ec(%rbp)
    8a05:	ff ff 
    8a07:	48 8d 05 f2 88 00 00 	lea    0x88f2(%rip),%rax        # 11300 <g_246+0x1a0>
    8a0e:	48 89 85 88 fd ff ff 	mov    %rax,-0x278(%rbp)
    8a15:	c7 85 40 fe ff ff 0b 	movl   $0xbdeaa50b,-0x1c0(%rbp)
    8a1c:	a5 ea bd 
    8a1f:	c7 85 44 fe ff ff 68 	movl   $0x325f2068,-0x1bc(%rbp)
    8a26:	20 5f 32 
    8a29:	c7 85 48 fe ff ff 99 	movl   $0x65884099,-0x1b8(%rbp)
    8a30:	40 88 65 
    8a33:	c7 85 4c fe ff ff 99 	movl   $0x65884099,-0x1b4(%rbp)
    8a3a:	40 88 65 
    8a3d:	c7 85 50 fe ff ff 68 	movl   $0x325f2068,-0x1b0(%rbp)
    8a44:	20 5f 32 
    8a47:	c7 85 54 fe ff ff 0b 	movl   $0xbdeaa50b,-0x1ac(%rbp)
    8a4e:	a5 ea bd 
    8a51:	c7 85 58 fe ff ff 68 	movl   $0x325f2068,-0x1a8(%rbp)
    8a58:	20 5f 32 
    8a5b:	c7 85 5c fe ff ff 99 	movl   $0x65884099,-0x1a4(%rbp)
    8a62:	40 88 65 
    8a65:	c7 85 60 fe ff ff 99 	movl   $0x65884099,-0x1a0(%rbp)
    8a6c:	40 88 65 
    8a6f:	c7 85 64 fe ff ff 68 	movl   $0x325f2068,-0x19c(%rbp)
    8a76:	20 5f 32 
    8a79:	c7 85 38 fd ff ff ea 	movl   $0x944466ea,-0x2c8(%rbp)
    8a80:	66 44 94 
    8a83:	48 b8 73 99 f3 cc 76 	movabs $0xaad88076ccf39973,%rax
    8a8a:	80 d8 aa 
    8a8d:	48 89 85 90 fd ff ff 	mov    %rax,-0x270(%rbp)
    8a94:	c6 85 0d fd ff ff 00 	movb   $0x0,-0x2f3(%rbp)
    8a9b:	48 8d 85 40 fd ff ff 	lea    -0x2c0(%rbp),%rax
    8aa2:	48 89 85 98 fd ff ff 	mov    %rax,-0x268(%rbp)
    8aa9:	66 c7 85 d0 fd ff ff 	movw   $0x42a8,-0x230(%rbp)
    8ab0:	a8 42 
    8ab2:	66 c7 85 d2 fd ff ff 	movw   $0x42a8,-0x22e(%rbp)
    8ab9:	a8 42 
    8abb:	66 c7 85 d4 fd ff ff 	movw   $0x42a8,-0x22c(%rbp)
    8ac2:	a8 42 
    8ac4:	66 c7 85 d6 fd ff ff 	movw   $0x42a8,-0x22a(%rbp)
    8acb:	a8 42 
    8acd:	66 c7 85 d8 fd ff ff 	movw   $0x42a8,-0x228(%rbp)
    8ad4:	a8 42 
    8ad6:	66 c7 85 da fd ff ff 	movw   $0x42a8,-0x226(%rbp)
    8add:	a8 42 
    8adf:	66 c7 85 dc fd ff ff 	movw   $0x42a8,-0x224(%rbp)
    8ae6:	a8 42 
    8ae8:	66 c7 85 de fd ff ff 	movw   $0x42a8,-0x222(%rbp)
    8aef:	a8 42 
    8af1:	66 c7 85 e0 fd ff ff 	movw   $0x42a8,-0x220(%rbp)
    8af8:	a8 42 
    8afa:	c6 85 0e fd ff ff f9 	movb   $0xf9,-0x2f2(%rbp)
    8b01:	48 b8 52 17 5d 49 7b 	movabs $0x5c742c7b495d1752,%rax
    8b08:	2c 74 5c 
    8b0b:	48 89 85 a0 fd ff ff 	mov    %rax,-0x260(%rbp)
    8b12:	c7 85 f0 fd ff ff 00 	movl   $0x0,-0x210(%rbp)
    8b19:	00 00 00 
    8b1c:	c7 85 f4 fd ff ff d1 	movl   $0x770889d1,-0x20c(%rbp)
    8b23:	89 08 77 
    8b26:	c7 85 f8 fd ff ff 00 	movl   $0x0,-0x208(%rbp)
    8b2d:	00 00 00 
    8b30:	c7 85 fc fd ff ff d1 	movl   $0x770889d1,-0x204(%rbp)
    8b37:	89 08 77 
    8b3a:	c7 85 00 fe ff ff 00 	movl   $0x0,-0x200(%rbp)
    8b41:	00 00 00 
    8b44:	c7 85 04 fe ff ff d1 	movl   $0x770889d1,-0x1fc(%rbp)
    8b4b:	89 08 77 
    8b4e:	c6 85 0f fd ff ff f7 	movb   $0xf7,-0x2f1(%rbp)
    8b55:	48 8d 05 1c 8b 00 00 	lea    0x8b1c(%rip),%rax        # 11678 <g_1754>
    8b5c:	48 89 85 48 fd ff ff 	mov    %rax,-0x2b8(%rbp)
    8b63:	48 8d 85 48 fd ff ff 	lea    -0x2b8(%rbp),%rax
    8b6a:	48 89 85 00 ff ff ff 	mov    %rax,-0x100(%rbp)
    8b71:	48 8d 85 48 fd ff ff 	lea    -0x2b8(%rbp),%rax
    8b78:	48 89 85 08 ff ff ff 	mov    %rax,-0xf8(%rbp)
    8b7f:	48 c7 85 10 ff ff ff 	movq   $0x0,-0xf0(%rbp)
    8b86:	00 00 00 00 
    8b8a:	48 c7 85 18 ff ff ff 	movq   $0x0,-0xe8(%rbp)
    8b91:	00 00 00 00 
    8b95:	48 c7 85 20 ff ff ff 	movq   $0x0,-0xe0(%rbp)
    8b9c:	00 00 00 00 
    8ba0:	48 8d 85 48 fd ff ff 	lea    -0x2b8(%rbp),%rax
    8ba7:	48 89 85 28 ff ff ff 	mov    %rax,-0xd8(%rbp)
    8bae:	48 8d 85 48 fd ff ff 	lea    -0x2b8(%rbp),%rax
    8bb5:	48 89 85 30 ff ff ff 	mov    %rax,-0xd0(%rbp)
    8bbc:	48 8d 85 48 fd ff ff 	lea    -0x2b8(%rbp),%rax
    8bc3:	48 89 85 38 ff ff ff 	mov    %rax,-0xc8(%rbp)
    8bca:	48 c7 85 40 ff ff ff 	movq   $0x0,-0xc0(%rbp)
    8bd1:	00 00 00 00 
    8bd5:	48 c7 85 48 ff ff ff 	movq   $0x0,-0xb8(%rbp)
    8bdc:	00 00 00 00 
    8be0:	48 c7 85 50 ff ff ff 	movq   $0x0,-0xb0(%rbp)
    8be7:	00 00 00 00 
    8beb:	48 8d 85 48 fd ff ff 	lea    -0x2b8(%rbp),%rax
    8bf2:	48 89 85 58 ff ff ff 	mov    %rax,-0xa8(%rbp)
    8bf9:	48 8d 85 48 fd ff ff 	lea    -0x2b8(%rbp),%rax
    8c00:	48 89 85 60 ff ff ff 	mov    %rax,-0xa0(%rbp)
    8c07:	48 8d 85 48 fd ff ff 	lea    -0x2b8(%rbp),%rax
    8c0e:	48 89 85 68 ff ff ff 	mov    %rax,-0x98(%rbp)
    8c15:	48 c7 85 70 ff ff ff 	movq   $0x0,-0x90(%rbp)
    8c1c:	00 00 00 00 
    8c20:	48 8d 85 48 fd ff ff 	lea    -0x2b8(%rbp),%rax
    8c27:	48 89 85 78 ff ff ff 	mov    %rax,-0x88(%rbp)
    8c2e:	48 8d 85 48 fd ff ff 	lea    -0x2b8(%rbp),%rax
    8c35:	48 89 45 80          	mov    %rax,-0x80(%rbp)
    8c39:	48 c7 45 88 00 00 00 	movq   $0x0,-0x78(%rbp)
    8c40:	00 
    8c41:	48 8d 85 48 fd ff ff 	lea    -0x2b8(%rbp),%rax
    8c48:	48 89 45 90          	mov    %rax,-0x70(%rbp)
    8c4c:	48 8d 85 48 fd ff ff 	lea    -0x2b8(%rbp),%rax
    8c53:	48 89 45 98          	mov    %rax,-0x68(%rbp)
    8c57:	48 8d 85 48 fd ff ff 	lea    -0x2b8(%rbp),%rax
    8c5e:	48 89 45 a0          	mov    %rax,-0x60(%rbp)
    8c62:	48 8d 85 48 fd ff ff 	lea    -0x2b8(%rbp),%rax
    8c69:	48 89 45 a8          	mov    %rax,-0x58(%rbp)
    8c6d:	48 8d 85 48 fd ff ff 	lea    -0x2b8(%rbp),%rax
    8c74:	48 89 45 b0          	mov    %rax,-0x50(%rbp)
    8c78:	48 c7 45 b8 00 00 00 	movq   $0x0,-0x48(%rbp)
    8c7f:	00 
    8c80:	48 8d 85 48 fd ff ff 	lea    -0x2b8(%rbp),%rax
    8c87:	48 89 45 c0          	mov    %rax,-0x40(%rbp)
    8c8b:	48 8d 85 48 fd ff ff 	lea    -0x2b8(%rbp),%rax
    8c92:	48 89 45 c8          	mov    %rax,-0x38(%rbp)
    8c96:	48 8d 85 48 fd ff ff 	lea    -0x2b8(%rbp),%rax
    8c9d:	48 89 45 d0          	mov    %rax,-0x30(%rbp)
    8ca1:	48 8d 85 c0 fd ff ff 	lea    -0x240(%rbp),%rax
    8ca8:	48 83 c0 08          	add    $0x8,%rax
    8cac:	48 89 85 a8 fd ff ff 	mov    %rax,-0x258(%rbp)
    8cb3:	c7 85 d0 fe ff ff eb 	movl   $0x2a325ceb,-0x130(%rbp)
    8cba:	5c 32 2a 
    8cbd:	c7 85 d4 fe ff ff eb 	movl   $0x2a325ceb,-0x12c(%rbp)
    8cc4:	5c 32 2a 
    8cc7:	c7 85 d8 fe ff ff 6e 	movl   $0x6ce3116e,-0x128(%rbp)
    8cce:	11 e3 6c 
    8cd1:	c7 85 dc fe ff ff eb 	movl   $0x2a325ceb,-0x124(%rbp)
    8cd8:	5c 32 2a 
    8cdb:	c7 85 e0 fe ff ff eb 	movl   $0x2a325ceb,-0x120(%rbp)
    8ce2:	5c 32 2a 
    8ce5:	c7 85 e4 fe ff ff 92 	movl   $0xf6db8692,-0x11c(%rbp)
    8cec:	86 db f6 
    8cef:	c7 85 e8 fe ff ff 92 	movl   $0xf6db8692,-0x118(%rbp)
    8cf6:	86 db f6 
    8cf9:	c7 85 ec fe ff ff eb 	movl   $0x2a325ceb,-0x114(%rbp)
    8d00:	5c 32 2a 
    8d03:	c7 85 f0 fe ff ff 92 	movl   $0xf6db8692,-0x110(%rbp)
    8d0a:	86 db f6 
    8d0d:	c7 85 f4 fe ff ff eb 	movl   $0x2a325ceb,-0x10c(%rbp)
    8d14:	5c 32 2a 
    8d17:	c7 85 f8 fe ff ff 92 	movl   $0xf6db8692,-0x108(%rbp)
    8d1e:	86 db f6 
    8d21:	c7 85 fc fe ff ff 92 	movl   $0xf6db8692,-0x104(%rbp)
    8d28:	86 db f6 
    8d2b:	66 c7 85 12 fd ff ff 	movw   $0xc4aa,-0x2ee(%rbp)
    8d32:	aa c4 
    8d34:	48 8d 05 fd 88 00 00 	lea    0x88fd(%rip),%rax        # 11638 <g_1549>
    8d3b:	48 89 85 b0 fd ff ff 	mov    %rax,-0x250(%rbp)
    8d42:	c7 85 3c fd ff ff ff 	movl   $0xffffffff,-0x2c4(%rbp)
    8d49:	ff ff ff 
    8d4c:	c7 85 1c fd ff ff 00 	movl   $0x0,-0x2e4(%rbp)
    8d53:	00 00 00 
    8d56:	eb 1b                	jmp    8d73 <func_1+0x5be>
    8d58:	8b 85 1c fd ff ff    	mov    -0x2e4(%rbp),%eax
    8d5e:	48 98                	cltq   
    8d60:	48 c7 84 c5 a0 fe ff 	movq   $0x7,-0x160(%rbp,%rax,8)
    8d67:	ff 07 00 00 00 
    8d6c:	83 85 1c fd ff ff 01 	addl   $0x1,-0x2e4(%rbp)
    8d73:	83 bd 1c fd ff ff 05 	cmpl   $0x5,-0x2e4(%rbp)
    8d7a:	7e dc                	jle    8d58 <func_1+0x5a3>
    8d7c:	c7 85 1c fd ff ff 00 	movl   $0x0,-0x2e4(%rbp)
    8d83:	00 00 00 
    8d86:	eb 1b                	jmp    8da3 <func_1+0x5ee>
    8d88:	8b 85 1c fd ff ff    	mov    -0x2e4(%rbp),%eax
    8d8e:	48 98                	cltq   
    8d90:	48 c7 84 c5 70 fe ff 	movq   $0x0,-0x190(%rbp,%rax,8)
    8d97:	ff 00 00 00 00 
    8d9c:	83 85 1c fd ff ff 01 	addl   $0x1,-0x2e4(%rbp)
    8da3:	83 bd 1c fd ff ff 04 	cmpl   $0x4,-0x2e4(%rbp)
    8daa:	7e dc                	jle    8d88 <func_1+0x5d3>
    8dac:	8b 05 76 83 00 00    	mov    0x8376(%rip),%eax        # 11128 <g_96>
    8db2:	83 e8 01             	sub    $0x1,%eax
    8db5:	89 05 6d 83 00 00    	mov    %eax,0x836d(%rip)        # 11128 <g_96>
    8dbb:	8b 05 67 83 00 00    	mov    0x8367(%rip),%eax        # 11128 <g_96>
    8dc1:	85 c0                	test   %eax,%eax
    8dc3:	0f 89 22 fc ff ff    	jns    89eb <func_1+0x236>
    8dc9:	48 8b 05 e0 b3 00 00 	mov    0xb3e0(%rip),%rax        # 141b0 <g_1827>
    8dd0:	48 8b 00             	mov    (%rax),%rax
    8dd3:	48 8b 5d d8          	mov    -0x28(%rbp),%rbx
    8dd7:	64 48 33 1c 25 28 00 	xor    %fs:0x28,%rbx
    8dde:	00 00 
    8de0:	74 05                	je     8de7 <func_1+0x632>
    8de2:	e8 89 e2 ff ff       	callq  7070 <__stack_chk_fail@plt>
    8de7:	48 81 c4 e0 02 00 00 	add    $0x2e0,%rsp
    8dee:	5b                   	pop    %rbx
    8def:	41 5c                	pop    %r12
    8df1:	41 5d                	pop    %r13
    8df3:	41 5e                	pop    %r14
    8df5:	5d                   	pop    %rbp
    8df6:	c3                   	retq   

0000000000008df7 <func_2>:
    8df7:	f3 0f 1e fa          	endbr64 
    8dfb:	55                   	push   %rbp
    8dfc:	48 89 e5             	mov    %rsp,%rbp
    8dff:	41 57                	push   %r15
    8e01:	41 56                	push   %r14
    8e03:	41 55                	push   %r13
    8e05:	41 54                	push   %r12
    8e07:	53                   	push   %rbx
    8e08:	48 81 ec 98 09 00 00 	sub    $0x998,%rsp
    8e0f:	89 f0                	mov    %esi,%eax
    8e11:	89 95 54 f6 ff ff    	mov    %edx,-0x9ac(%rbp)
    8e17:	89 ca                	mov    %ecx,%edx
    8e19:	4c 89 85 48 f6 ff ff 	mov    %r8,-0x9b8(%rbp)
    8e20:	89 f9                	mov    %edi,%ecx
    8e22:	66 89 8d 5c f6 ff ff 	mov    %cx,-0x9a4(%rbp)
    8e29:	66 89 85 58 f6 ff ff 	mov    %ax,-0x9a8(%rbp)
    8e30:	89 d0                	mov    %edx,%eax
    8e32:	88 85 50 f6 ff ff    	mov    %al,-0x9b0(%rbp)
    8e38:	64 48 8b 04 25 28 00 	mov    %fs:0x28,%rax
    8e3f:	00 00 
    8e41:	48 89 45 c8          	mov    %rax,-0x38(%rbp)
    8e45:	31 c0                	xor    %eax,%eax
    8e47:	c6 85 63 f6 ff ff 00 	movb   $0x0,-0x99d(%rbp)
    8e4e:	c7 85 64 f6 ff ff ff 	movl   $0xffffffff,-0x99c(%rbp)
    8e55:	ff ff ff 
    8e58:	c7 85 68 f6 ff ff 01 	movl   $0x1,-0x998(%rbp)
    8e5f:	00 00 00 
    8e62:	c7 85 6c f6 ff ff c7 	movl   $0xedf006c7,-0x994(%rbp)
    8e69:	06 f0 ed 
    8e6c:	c7 85 70 f6 ff ff 97 	movl   $0x50486397,-0x990(%rbp)
    8e73:	63 48 50 
    8e76:	c7 85 78 f6 ff ff 92 	movl   $0xfc11e392,-0x988(%rbp)
    8e7d:	e3 11 fc 
    8e80:	c7 85 74 f6 ff ff 02 	movl   $0x207a0202,-0x98c(%rbp)
    8e87:	02 7a 20 
    8e8a:	c7 85 7c f6 ff ff 00 	movl   $0x0,-0x984(%rbp)
    8e91:	00 00 00 
    8e94:	c7 85 80 f6 ff ff 57 	movl   $0xcccbd357,-0x980(%rbp)
    8e9b:	d3 cb cc 
    8e9e:	c7 85 84 f6 ff ff 69 	movl   $0xc0f77769,-0x97c(%rbp)
    8ea5:	77 f7 c0 
    8ea8:	66 c7 85 02 f7 ff ff 	movw   $0x6081,-0x8fe(%rbp)
    8eaf:	81 60 
    8eb1:	66 c7 85 04 f7 ff ff 	movw   $0x6081,-0x8fc(%rbp)
    8eb8:	81 60 
    8eba:	66 c7 85 06 f7 ff ff 	movw   $0x846e,-0x8fa(%rbp)
    8ec1:	6e 84 
    8ec3:	66 c7 85 08 f7 ff ff 	movw   $0x6081,-0x8f8(%rbp)
    8eca:	81 60 
    8ecc:	66 c7 85 0a f7 ff ff 	movw   $0x6081,-0x8f6(%rbp)
    8ed3:	81 60 
    8ed5:	66 c7 85 0c f7 ff ff 	movw   $0x846e,-0x8f4(%rbp)
    8edc:	6e 84 
    8ede:	66 c7 85 0e f7 ff ff 	movw   $0x6081,-0x8f2(%rbp)
    8ee5:	81 60 
    8ee7:	48 8d 05 96 82 00 00 	lea    0x8296(%rip),%rax        # 11184 <g_246+0x24>
    8eee:	48 89 85 90 f6 ff ff 	mov    %rax,-0x970(%rbp)
    8ef5:	48 8d 85 74 f6 ff ff 	lea    -0x98c(%rbp),%rax
    8efc:	48 89 85 98 f6 ff ff 	mov    %rax,-0x968(%rbp)
    8f03:	48 8d 85 68 f6 ff ff 	lea    -0x998(%rbp),%rax
    8f0a:	48 89 85 a0 f6 ff ff 	mov    %rax,-0x960(%rbp)
    8f11:	48 8d 85 6c f6 ff ff 	lea    -0x994(%rbp),%rax
    8f18:	48 89 85 a8 f6 ff ff 	mov    %rax,-0x958(%rbp)
    8f1f:	48 c7 85 b0 f6 ff ff 	movq   $0x0,-0x950(%rbp)
    8f26:	00 00 00 00 
    8f2a:	48 8d 85 70 f6 ff ff 	lea    -0x990(%rbp),%rax
    8f31:	48 89 85 b8 f6 ff ff 	mov    %rax,-0x948(%rbp)
    8f38:	48 8d 85 68 f6 ff ff 	lea    -0x998(%rbp),%rax
    8f3f:	48 89 85 c0 f6 ff ff 	mov    %rax,-0x940(%rbp)
    8f46:	48 8d 05 37 82 00 00 	lea    0x8237(%rip),%rax        # 11184 <g_246+0x24>
    8f4d:	48 89 85 c8 f6 ff ff 	mov    %rax,-0x938(%rbp)
    8f54:	48 c7 85 d0 f6 ff ff 	movq   $0x0,-0x930(%rbp)
    8f5b:	00 00 00 00 
    8f5f:	48 8d 05 ba 81 00 00 	lea    0x81ba(%rip),%rax        # 11120 <g_29>
    8f66:	48 89 85 d8 f6 ff ff 	mov    %rax,-0x928(%rbp)
    8f6d:	48 8d 05 8c 82 00 00 	lea    0x828c(%rip),%rax        # 11200 <g_246+0xa0>
    8f74:	48 89 85 e0 f6 ff ff 	mov    %rax,-0x920(%rbp)
    8f7b:	48 8d 85 68 f6 ff ff 	lea    -0x998(%rbp),%rax
    8f82:	48 89 85 e8 f6 ff ff 	mov    %rax,-0x918(%rbp)
    8f89:	48 8d 85 64 f6 ff ff 	lea    -0x99c(%rbp),%rax
    8f90:	48 89 85 f0 f6 ff ff 	mov    %rax,-0x910(%rbp)
    8f97:	c7 85 88 f6 ff ff a9 	movl   $0xc0501aa9,-0x978(%rbp)
    8f9e:	1a 50 c0 
    8fa1:	c7 85 54 f6 ff ff 01 	movl   $0x1,-0x9ac(%rbp)
    8fa8:	00 00 00 
    8fab:	e9 55 01 00 00       	jmpq   9105 <func_2+0x30e>
    8fb0:	48 8d 85 30 f8 ff ff 	lea    -0x7d0(%rbp),%rax
    8fb7:	48 8d 15 e2 86 00 00 	lea    0x86e2(%rip),%rdx        # 116a0 <g_1803+0x18>
    8fbe:	b9 f3 00 00 00       	mov    $0xf3,%ecx
    8fc3:	48 89 c7             	mov    %rax,%rdi
    8fc6:	48 89 d6             	mov    %rdx,%rsi
    8fc9:	f3 48 a5             	rep movsq %ds:(%rsi),%es:(%rdi)
    8fcc:	c7 85 8c f6 ff ff 00 	movl   $0x0,-0x974(%rbp)
    8fd3:	00 00 00 
    8fd6:	80 ad 63 f6 ff ff 01 	subb   $0x1,-0x99d(%rbp)
    8fdd:	83 85 8c f6 ff ff 01 	addl   $0x1,-0x974(%rbp)
    8fe4:	48 c7 05 79 85 00 00 	movq   $0x2,0x8579(%rip)        # 11568 <g_927>
    8feb:	02 00 00 00 
    8fef:	eb 27                	jmp    9018 <func_2+0x221>
    8ff1:	48 8b 05 98 a7 00 00 	mov    0xa798(%rip),%rax        # 13790 <g_760>
    8ff8:	8b 10                	mov    (%rax),%edx
    8ffa:	48 8b 05 8f a7 00 00 	mov    0xa78f(%rip),%rax        # 13790 <g_760>
    9001:	83 f2 fa             	xor    $0xfffffffa,%edx
    9004:	89 10                	mov    %edx,(%rax)
    9006:	48 8b 05 5b 85 00 00 	mov    0x855b(%rip),%rax        # 11568 <g_927>
    900d:	48 83 c0 01          	add    $0x1,%rax
    9011:	48 89 05 50 85 00 00 	mov    %rax,0x8550(%rip)        # 11568 <g_927>
    9018:	48 8b 05 49 85 00 00 	mov    0x8549(%rip),%rax        # 11568 <g_927>
    901f:	48 83 f8 06          	cmp    $0x6,%rax
    9023:	76 cc                	jbe    8ff1 <func_2+0x1fa>
    9025:	c7 05 15 81 00 00 00 	movl   $0x0,0x8115(%rip)        # 11144 <g_146>
    902c:	00 00 00 
    902f:	e9 bb 00 00 00       	jmpq   90ef <func_2+0x2f8>
    9034:	48 8d 85 30 f7 ff ff 	lea    -0x8d0(%rbp),%rax
    903b:	48 8d 15 fe 44 00 00 	lea    0x44fe(%rip),%rdx        # d540 <g_1560+0x4c0>
    9042:	b9 1f 00 00 00       	mov    $0x1f,%ecx
    9047:	48 89 c7             	mov    %rax,%rdi
    904a:	48 89 d6             	mov    %rdx,%rsi
    904d:	f3 48 a5             	rep movsq %ds:(%rsi),%es:(%rdi)
    9050:	48 89 f2             	mov    %rsi,%rdx
    9053:	48 89 f8             	mov    %rdi,%rax
    9056:	8b 0a                	mov    (%rdx),%ecx
    9058:	89 08                	mov    %ecx,(%rax)
    905a:	48 8d 40 04          	lea    0x4(%rax),%rax
    905e:	48 8d 52 04          	lea    0x4(%rdx),%rdx
    9062:	48 8d 85 74 f6 ff ff 	lea    -0x98c(%rbp),%rax
    9069:	48 89 85 10 f7 ff ff 	mov    %rax,-0x8f0(%rbp)
    9070:	48 8d 85 74 f6 ff ff 	lea    -0x98c(%rbp),%rax
    9077:	48 89 85 18 f7 ff ff 	mov    %rax,-0x8e8(%rbp)
    907e:	48 8d 85 74 f6 ff ff 	lea    -0x98c(%rbp),%rax
    9085:	48 89 85 20 f7 ff ff 	mov    %rax,-0x8e0(%rbp)
    908c:	48 8d 85 74 f6 ff ff 	lea    -0x98c(%rbp),%rax
    9093:	48 89 85 28 f7 ff ff 	mov    %rax,-0x8d8(%rbp)
    909a:	0f b6 85 67 f7 ff ff 	movzbl -0x899(%rbp),%eax
    90a1:	83 e8 01             	sub    $0x1,%eax
    90a4:	88 85 67 f7 ff ff    	mov    %al,-0x899(%rbp)
    90aa:	48 c7 05 4b 84 00 00 	movq   $0x3,0x844b(%rip)        # 11500 <g_538>
    90b1:	03 00 00 00 
    90b5:	90                   	nop
    90b6:	48 8b 05 43 84 00 00 	mov    0x8443(%rip),%rax        # 11500 <g_538>
    90bd:	48 83 f8 09          	cmp    $0x9,%rax
    90c1:	77 1d                	ja     90e0 <func_2+0x2e9>
    90c3:	48 8d 85 74 f6 ff ff 	lea    -0x98c(%rbp),%rax
    90ca:	48 89 85 f8 f6 ff ff 	mov    %rax,-0x908(%rbp)
    90d1:	48 8b 05 f0 ae 00 00 	mov    0xaef0(%rip),%rax        # 13fc8 <g_973>
    90d8:	48 8b 00             	mov    (%rax),%rax
    90db:	e9 c0 01 00 00       	jmpq   92a0 <func_2+0x4a9>
    90e0:	8b 05 5e 80 00 00    	mov    0x805e(%rip),%eax        # 11144 <g_146>
    90e6:	83 c0 01             	add    $0x1,%eax
    90e9:	89 05 55 80 00 00    	mov    %eax,0x8055(%rip)        # 11144 <g_146>
    90ef:	8b 05 4f 80 00 00    	mov    0x804f(%rip),%eax        # 11144 <g_146>
    90f5:	83 f8 06             	cmp    $0x6,%eax
    90f8:	0f 8e 36 ff ff ff    	jle    9034 <func_2+0x23d>
    90fe:	83 85 54 f6 ff ff 01 	addl   $0x1,-0x9ac(%rbp)
    9105:	83 bd 54 f6 ff ff 06 	cmpl   $0x6,-0x9ac(%rbp)
    910c:	0f 86 9e fe ff ff    	jbe    8fb0 <func_2+0x1b9>
    9112:	83 85 88 f6 ff ff 01 	addl   $0x1,-0x978(%rbp)
    9119:	48 8b 05 38 a1 00 00 	mov    0xa138(%rip),%rax        # 13258 <g_276>
    9120:	48 8b 00             	mov    (%rax),%rax
    9123:	0f b7 00             	movzwl (%rax),%eax
    9126:	98                   	cwtl   
    9127:	be 05 00 00 00       	mov    $0x5,%esi
    912c:	89 c7                	mov    %eax,%edi
    912e:	e8 22 e3 ff ff       	callq  7455 <safe_div_func_int16_t_s_s>
    9133:	83 bd 54 f6 ff ff 00 	cmpl   $0x0,-0x9ac(%rbp)
    913a:	74 23                	je     915f <func_2+0x368>
    913c:	8b 95 54 f6 ff ff    	mov    -0x9ac(%rbp),%edx
    9142:	8b 85 54 f6 ff ff    	mov    -0x9ac(%rbp),%eax
    9148:	48 89 05 81 82 00 00 	mov    %rax,0x8281(%rip)        # 113d0 <g_314>
    914f:	48 8b 05 7a 82 00 00 	mov    0x827a(%rip),%rax        # 113d0 <g_314>
    9156:	48 39 c2             	cmp    %rax,%rdx
    9159:	0f 86 17 01 00 00    	jbe    9276 <func_2+0x47f>
    915f:	48 8b 85 d8 f6 ff ff 	mov    -0x928(%rbp),%rax
    9166:	44 8b 30             	mov    (%rax),%r14d
    9169:	0f b6 05 c0 7f 00 00 	movzbl 0x7fc0(%rip),%eax        # 11130 <g_99>
    9170:	0f b6 d8             	movzbl %al,%ebx
    9173:	44 8b a5 54 f6 ff ff 	mov    -0x9ac(%rbp),%r12d
    917a:	48 8b 05 bf a0 00 00 	mov    0xa0bf(%rip),%rax        # 13240 <g_183>
    9181:	8b 00                	mov    (%rax),%eax
    9183:	41 89 c7             	mov    %eax,%r15d
    9186:	0f b6 85 50 f6 ff ff 	movzbl -0x9b0(%rbp),%eax
    918d:	44 0f be e8          	movsbl %al,%r13d
    9191:	8b 85 54 f6 ff ff    	mov    -0x9ac(%rbp),%eax
    9197:	0f bf d0             	movswl %ax,%edx
    919a:	48 8b 05 2f a1 00 00 	mov    0xa12f(%rip),%rax        # 132d0 <g_273>
    91a1:	48 8b 00             	mov    (%rax),%rax
    91a4:	48 8b 00             	mov    (%rax),%rax
    91a7:	48 8b 00             	mov    (%rax),%rax
    91aa:	48 8b 00             	mov    (%rax),%rax
    91ad:	0f b7 00             	movzwl (%rax),%eax
    91b0:	98                   	cwtl   
    91b1:	89 d6                	mov    %edx,%esi
    91b3:	89 c7                	mov    %eax,%edi
    91b5:	e8 f9 e1 ff ff       	callq  73b3 <safe_add_func_int16_t_s_s>
    91ba:	0f be c0             	movsbl %al,%eax
    91bd:	44 89 ee             	mov    %r13d,%esi
    91c0:	89 c7                	mov    %eax,%edi
    91c2:	e8 a3 e0 ff ff       	callq  726a <safe_div_func_int8_t_s_s>
    91c7:	0f be c0             	movsbl %al,%eax
    91ca:	89 c7                	mov    %eax,%edi
    91cc:	e8 d5 ec ff ff       	callq  7ea6 <safe_unary_minus_func_uint32_t_u>
    91d1:	48 8b 05 00 a1 00 00 	mov    0xa100(%rip),%rax        # 132d8 <g_308>
    91d8:	8b 00                	mov    (%rax),%eax
    91da:	44 89 fe             	mov    %r15d,%esi
    91dd:	89 c7                	mov    %eax,%edi
    91df:	e8 41 ed ff ff       	callq  7f25 <safe_div_func_uint32_t_u_u>
    91e4:	89 c0                	mov    %eax,%eax
    91e6:	4c 89 e6             	mov    %r12,%rsi
    91e9:	48 89 c7             	mov    %rax,%rdi
    91ec:	e8 06 e8 ff ff       	callq  79f7 <safe_div_func_int64_t_s_s>
    91f1:	48 83 f8 fa          	cmp    $0xfffffffffffffffa,%rax
    91f5:	0f 9c c0             	setl   %al
    91f8:	0f b6 c0             	movzbl %al,%eax
    91fb:	48 89 de             	mov    %rbx,%rsi
    91fe:	48 89 c7             	mov    %rax,%rdi
    9201:	e8 a2 e6 ff ff       	callq  78a8 <safe_sub_func_int64_t_s_s>
    9206:	0f be c0             	movsbl %al,%eax
    9209:	be 06 00 00 00       	mov    $0x6,%esi
    920e:	89 c7                	mov    %eax,%edi
    9210:	e8 57 e1 ff ff       	callq  736c <safe_rshift_func_int8_t_s_u>
    9215:	0f be c0             	movsbl %al,%eax
    9218:	89 c7                	mov    %eax,%edi
    921a:	e8 7e e1 ff ff       	callq  739d <safe_unary_minus_func_int16_t_s>
    921f:	66 85 c0             	test   %ax,%ax
    9222:	0f 95 c0             	setne  %al
    9225:	0f b6 c0             	movzbl %al,%eax
    9228:	41 39 c6             	cmp    %eax,%r14d
    922b:	0f 9f c0             	setg   %al
    922e:	0f b6 d8             	movzbl %al,%ebx
    9231:	0f b7 85 58 f6 ff ff 	movzwl -0x9a8(%rbp),%eax
    9238:	0f b7 c0             	movzwl %ax,%eax
    923b:	be 05 00 00 00       	mov    $0x5,%esi
    9240:	89 c7                	mov    %eax,%edi
    9242:	e8 01 ec ff ff       	callq  7e48 <safe_rshift_func_uint16_t_u_s>
    9247:	0f be c0             	movsbl %al,%eax
    924a:	89 de                	mov    %ebx,%esi
    924c:	89 c7                	mov    %eax,%edi
    924e:	e8 19 e1 ff ff       	callq  736c <safe_rshift_func_int8_t_s_u>
    9253:	0f be d0             	movsbl %al,%edx
    9256:	0f b6 85 50 f6 ff ff 	movzbl -0x9b0(%rbp),%eax
    925d:	39 c2                	cmp    %eax,%edx
    925f:	0f 9e c0             	setle  %al
    9262:	0f b6 c0             	movzbl %al,%eax
    9265:	66 89 85 58 f6 ff ff 	mov    %ax,-0x9a8(%rbp)
    926c:	66 83 bd 58 f6 ff ff 	cmpw   $0x0,-0x9a8(%rbp)
    9273:	00 
    9274:	74 07                	je     927d <func_2+0x486>
    9276:	ba 01 00 00 00       	mov    $0x1,%edx
    927b:	eb 05                	jmp    9282 <func_2+0x48b>
    927d:	ba 00 00 00 00       	mov    $0x0,%edx
    9282:	48 8b 85 c0 f6 ff ff 	mov    -0x940(%rbp),%rax
    9289:	8b 00                	mov    (%rax),%eax
    928b:	31 c2                	xor    %eax,%edx
    928d:	48 8b 85 c0 f6 ff ff 	mov    -0x940(%rbp),%rax
    9294:	89 10                	mov    %edx,(%rax)
    9296:	48 8b 05 2b ad 00 00 	mov    0xad2b(%rip),%rax        # 13fc8 <g_973>
    929d:	48 8b 00             	mov    (%rax),%rax
    92a0:	48 8b 5d c8          	mov    -0x38(%rbp),%rbx
    92a4:	64 48 33 1c 25 28 00 	xor    %fs:0x28,%rbx
    92ab:	00 00 
    92ad:	74 05                	je     92b4 <func_2+0x4bd>
    92af:	e8 bc dd ff ff       	callq  7070 <__stack_chk_fail@plt>
    92b4:	48 81 c4 98 09 00 00 	add    $0x998,%rsp
    92bb:	5b                   	pop    %rbx
    92bc:	41 5c                	pop    %r12
    92be:	41 5d                	pop    %r13
    92c0:	41 5e                	pop    %r14
    92c2:	41 5f                	pop    %r15
    92c4:	5d                   	pop    %rbp
    92c5:	c3                   	retq   

00000000000092c6 <func_13>:
    92c6:	f3 0f 1e fa          	endbr64 
    92ca:	55                   	push   %rbp
    92cb:	48 89 e5             	mov    %rsp,%rbp
    92ce:	41 56                	push   %r14
    92d0:	41 55                	push   %r13
    92d2:	41 54                	push   %r12
    92d4:	53                   	push   %rbx
    92d5:	48 81 ec 20 0a 00 00 	sub    $0xa20,%rsp
    92dc:	89 bd dc f5 ff ff    	mov    %edi,-0xa24(%rbp)
    92e2:	89 b5 d8 f5 ff ff    	mov    %esi,-0xa28(%rbp)
    92e8:	48 89 95 d0 f5 ff ff 	mov    %rdx,-0xa30(%rbp)
    92ef:	48 89 8d c8 f5 ff ff 	mov    %rcx,-0xa38(%rbp)
    92f6:	44 89 85 c4 f5 ff ff 	mov    %r8d,-0xa3c(%rbp)
    92fd:	64 48 8b 04 25 28 00 	mov    %fs:0x28,%rax
    9304:	00 00 
    9306:	48 89 45 d8          	mov    %rax,-0x28(%rbp)
    930a:	31 c0                	xor    %eax,%eax
    930c:	48 8d 05 0d 7e 00 00 	lea    0x7e0d(%rip),%rax        # 11120 <g_29>
    9313:	48 89 85 30 f6 ff ff 	mov    %rax,-0x9d0(%rbp)
    931a:	48 8d 85 30 f6 ff ff 	lea    -0x9d0(%rbp),%rax
    9321:	48 89 85 40 f6 ff ff 	mov    %rax,-0x9c0(%rbp)
    9328:	48 8d 05 e9 7d 00 00 	lea    0x7de9(%rip),%rax        # 11118 <g_21>
    932f:	48 89 85 48 f6 ff ff 	mov    %rax,-0x9b8(%rbp)
    9336:	c7 85 e8 f5 ff ff 3e 	movl   $0xccd29d3e,-0xa18(%rbp)
    933d:	9d d2 cc 
    9340:	48 8d 05 c1 b2 00 00 	lea    0xb2c1(%rip),%rax        # 14608 <g_12>
    9347:	48 89 85 50 f6 ff ff 	mov    %rax,-0x9b0(%rbp)
    934e:	48 8d 05 4b 82 00 00 	lea    0x824b(%rip),%rax        # 115a0 <g_1007>
    9355:	48 89 85 58 f6 ff ff 	mov    %rax,-0x9a8(%rbp)
    935c:	c7 85 ec f5 ff ff 00 	movl   $0x0,-0xa14(%rbp)
    9363:	00 00 00 
    9366:	66 c7 85 ec f5 ff ff 	movw   $0x9,-0xa14(%rbp)
    936d:	09 00 
    936f:	c7 85 b0 f6 ff ff f9 	movl   $0xf99941f9,-0x950(%rbp)
    9376:	41 99 f9 
    9379:	66 c7 85 b4 f6 ff ff 	movw   $0x4199,-0x94c(%rbp)
    9380:	99 41 
    9382:	c6 85 b6 f6 ff ff f9 	movb   $0xf9,-0x94a(%rbp)
    9389:	c7 85 b7 f6 ff ff f9 	movl   $0xf99941f9,-0x949(%rbp)
    9390:	41 99 f9 
    9393:	66 c7 85 bb f6 ff ff 	movw   $0x4199,-0x945(%rbp)
    939a:	99 41 
    939c:	c6 85 bd f6 ff ff f9 	movb   $0xf9,-0x943(%rbp)
    93a3:	c7 85 be f6 ff ff f9 	movl   $0xf99941f9,-0x942(%rbp)
    93aa:	41 99 f9 
    93ad:	66 c7 85 c2 f6 ff ff 	movw   $0x4199,-0x93e(%rbp)
    93b4:	99 41 
    93b6:	c6 85 c4 f6 ff ff f9 	movb   $0xf9,-0x93c(%rbp)
    93bd:	c7 85 c5 f6 ff ff f9 	movl   $0xf99941f9,-0x93b(%rbp)
    93c4:	41 99 f9 
    93c7:	66 c7 85 c9 f6 ff ff 	movw   $0x4199,-0x937(%rbp)
    93ce:	99 41 
    93d0:	c6 85 cb f6 ff ff f9 	movb   $0xf9,-0x935(%rbp)
    93d7:	c7 85 cc f6 ff ff f9 	movl   $0xf99941f9,-0x934(%rbp)
    93de:	41 99 f9 
    93e1:	66 c7 85 d0 f6 ff ff 	movw   $0x4199,-0x930(%rbp)
    93e8:	99 41 
    93ea:	c6 85 d2 f6 ff ff f9 	movb   $0xf9,-0x92e(%rbp)
    93f1:	c7 85 d3 f6 ff ff f9 	movl   $0xf99941f9,-0x92d(%rbp)
    93f8:	41 99 f9 
    93fb:	66 c7 85 d7 f6 ff ff 	movw   $0x4199,-0x929(%rbp)
    9402:	99 41 
    9404:	c6 85 d9 f6 ff ff f9 	movb   $0xf9,-0x927(%rbp)
    940b:	48 8d 05 de 9d 00 00 	lea    0x9dde(%rip),%rax        # 131f0 <g_154>
    9412:	48 89 85 60 f6 ff ff 	mov    %rax,-0x9a0(%rbp)
    9419:	48 8d 85 ec f5 ff ff 	lea    -0xa14(%rbp),%rax
    9420:	48 89 85 68 f6 ff ff 	mov    %rax,-0x998(%rbp)
    9427:	c7 85 f4 f5 ff ff 81 	movl   $0x8f2e3581,-0xa0c(%rbp)
    942e:	35 2e 8f 
    9431:	c7 85 b0 f7 ff ff ef 	movl   $0x34b67fef,-0x850(%rbp)
    9438:	7f b6 34 
    943b:	c7 85 b4 f7 ff ff 3c 	movl   $0x3b78143c,-0x84c(%rbp)
    9442:	14 78 3b 
    9445:	c7 85 b8 f7 ff ff 3c 	movl   $0x3b78143c,-0x848(%rbp)
    944c:	14 78 3b 
    944f:	c7 85 bc f7 ff ff ef 	movl   $0x34b67fef,-0x844(%rbp)
    9456:	7f b6 34 
    9459:	c7 85 c0 f7 ff ff 00 	movl   $0x0,-0x840(%rbp)
    9460:	00 00 00 
    9463:	c7 85 c4 f7 ff ff ef 	movl   $0x34b67fef,-0x83c(%rbp)
    946a:	7f b6 34 
    946d:	c7 85 c8 f7 ff ff ef 	movl   $0x34b67fef,-0x838(%rbp)
    9474:	7f b6 34 
    9477:	c7 85 cc f7 ff ff 00 	movl   $0x0,-0x834(%rbp)
    947e:	00 00 00 
    9481:	c7 85 d0 f7 ff ff ef 	movl   $0x34b67fef,-0x830(%rbp)
    9488:	7f b6 34 
    948b:	c7 85 d4 f7 ff ff 3c 	movl   $0x3b78143c,-0x82c(%rbp)
    9492:	14 78 3b 
    9495:	c7 85 d8 f7 ff ff 3c 	movl   $0x3b78143c,-0x828(%rbp)
    949c:	14 78 3b 
    949f:	c7 85 dc f7 ff ff ef 	movl   $0x34b67fef,-0x824(%rbp)
    94a6:	7f b6 34 
    94a9:	c7 85 e0 f7 ff ff 01 	movl   $0x1,-0x820(%rbp)
    94b0:	00 00 00 
    94b3:	c7 85 e4 f7 ff ff 01 	movl   $0x1,-0x81c(%rbp)
    94ba:	00 00 00 
    94bd:	c7 85 e8 f7 ff ff 3c 	movl   $0x3b78143c,-0x818(%rbp)
    94c4:	14 78 3b 
    94c7:	c7 85 ec f7 ff ff a3 	movl   $0x871827a3,-0x814(%rbp)
    94ce:	27 18 87 
    94d1:	c7 85 f0 f7 ff ff 3c 	movl   $0x3b78143c,-0x810(%rbp)
    94d8:	14 78 3b 
    94db:	c7 85 f4 f7 ff ff 01 	movl   $0x1,-0x80c(%rbp)
    94e2:	00 00 00 
    94e5:	c7 85 f8 f7 ff ff 3c 	movl   $0x3b78143c,-0x808(%rbp)
    94ec:	14 78 3b 
    94ef:	c7 85 fc f7 ff ff 00 	movl   $0x0,-0x804(%rbp)
    94f6:	00 00 00 
    94f9:	c7 85 00 f8 ff ff a3 	movl   $0x871827a3,-0x800(%rbp)
    9500:	27 18 87 
    9503:	c7 85 04 f8 ff ff a3 	movl   $0x871827a3,-0x7fc(%rbp)
    950a:	27 18 87 
    950d:	c7 85 08 f8 ff ff 00 	movl   $0x0,-0x7f8(%rbp)
    9514:	00 00 00 
    9517:	c7 85 0c f8 ff ff 3c 	movl   $0x3b78143c,-0x7f4(%rbp)
    951e:	14 78 3b 
    9521:	c7 85 10 f8 ff ff 01 	movl   $0x1,-0x7f0(%rbp)
    9528:	00 00 00 
    952b:	c7 85 14 f8 ff ff 3c 	movl   $0x3b78143c,-0x7ec(%rbp)
    9532:	14 78 3b 
    9535:	c7 85 18 f8 ff ff a3 	movl   $0x871827a3,-0x7e8(%rbp)
    953c:	27 18 87 
    953f:	c7 85 1c f8 ff ff 3c 	movl   $0x3b78143c,-0x7e4(%rbp)
    9546:	14 78 3b 
    9549:	c7 85 20 f8 ff ff 01 	movl   $0x1,-0x7e0(%rbp)
    9550:	00 00 00 
    9553:	c7 85 24 f8 ff ff 01 	movl   $0x1,-0x7dc(%rbp)
    955a:	00 00 00 
    955d:	c7 85 28 f8 ff ff ef 	movl   $0x34b67fef,-0x7d8(%rbp)
    9564:	7f b6 34 
    9567:	c7 85 2c f8 ff ff 3c 	movl   $0x3b78143c,-0x7d4(%rbp)
    956e:	14 78 3b 
    9571:	c7 85 30 f8 ff ff 3c 	movl   $0x3b78143c,-0x7d0(%rbp)
    9578:	14 78 3b 
    957b:	c7 85 34 f8 ff ff ef 	movl   $0x34b67fef,-0x7cc(%rbp)
    9582:	7f b6 34 
    9585:	c7 85 38 f8 ff ff 00 	movl   $0x0,-0x7c8(%rbp)
    958c:	00 00 00 
    958f:	c7 85 3c f8 ff ff ef 	movl   $0x34b67fef,-0x7c4(%rbp)
    9596:	7f b6 34 
    9599:	c6 85 e4 f5 ff ff f8 	movb   $0xf8,-0xa1c(%rbp)
    95a0:	48 8d 05 25 80 00 00 	lea    0x8025(%rip),%rax        # 115cc <g_1049+0xc>
    95a7:	48 89 85 10 f7 ff ff 	mov    %rax,-0x8f0(%rbp)
    95ae:	48 8d 05 17 80 00 00 	lea    0x8017(%rip),%rax        # 115cc <g_1049+0xc>
    95b5:	48 89 85 18 f7 ff ff 	mov    %rax,-0x8e8(%rbp)
    95bc:	48 8d 05 09 80 00 00 	lea    0x8009(%rip),%rax        # 115cc <g_1049+0xc>
    95c3:	48 89 85 20 f7 ff ff 	mov    %rax,-0x8e0(%rbp)
    95ca:	48 8d 05 fb 7f 00 00 	lea    0x7ffb(%rip),%rax        # 115cc <g_1049+0xc>
    95d1:	48 89 85 28 f7 ff ff 	mov    %rax,-0x8d8(%rbp)
    95d8:	48 8d 05 ed 7f 00 00 	lea    0x7fed(%rip),%rax        # 115cc <g_1049+0xc>
    95df:	48 89 85 30 f7 ff ff 	mov    %rax,-0x8d0(%rbp)
    95e6:	48 8d 05 df 7f 00 00 	lea    0x7fdf(%rip),%rax        # 115cc <g_1049+0xc>
    95ed:	48 89 85 38 f7 ff ff 	mov    %rax,-0x8c8(%rbp)
    95f4:	48 8d 05 d1 7f 00 00 	lea    0x7fd1(%rip),%rax        # 115cc <g_1049+0xc>
    95fb:	48 89 85 40 f7 ff ff 	mov    %rax,-0x8c0(%rbp)
    9602:	48 8d 05 c3 7f 00 00 	lea    0x7fc3(%rip),%rax        # 115cc <g_1049+0xc>
    9609:	48 89 85 48 f7 ff ff 	mov    %rax,-0x8b8(%rbp)
    9610:	48 8d 05 b5 7f 00 00 	lea    0x7fb5(%rip),%rax        # 115cc <g_1049+0xc>
    9617:	48 89 85 50 f7 ff ff 	mov    %rax,-0x8b0(%rbp)
    961e:	0f b6 05 db 7e 00 00 	movzbl 0x7edb(%rip),%eax        # 11500 <g_538>
    9625:	48 0f be d8          	movsbq %al,%rbx
    9629:	48 8b 05 90 a9 00 00 	mov    0xa990(%rip),%rax        # 13fc0 <g_970>
    9630:	48 8b 00             	mov    (%rax),%rax
    9633:	44 8b 20             	mov    (%rax),%r12d
    9636:	48 8b 95 30 f6 ff ff 	mov    -0x9d0(%rbp),%rdx
    963d:	48 8b 85 40 f6 ff ff 	mov    -0x9c0(%rbp),%rax
    9644:	48 89 10             	mov    %rdx,(%rax)
    9647:	48 8b 85 40 f6 ff ff 	mov    -0x9c0(%rbp),%rax
    964e:	48 8b 00             	mov    (%rax),%rax
    9651:	48 85 c0             	test   %rax,%rax
    9654:	0f 95 c2             	setne  %dl
    9657:	48 83 bd 48 f6 ff ff 	cmpq   $0x0,-0x9b8(%rbp)
    965e:	00 
    965f:	0f 95 c0             	setne  %al
    9662:	09 d0                	or     %edx,%eax
    9664:	44 0f b6 f0          	movzbl %al,%r14d
    9668:	48 8b 05 c9 a1 00 00 	mov    0xa1c9(%rip),%rax        # 13838 <g_968>
    966f:	48 8b 00             	mov    (%rax),%rax
    9672:	44 8b 28             	mov    (%rax),%r13d
    9675:	8b 15 9d 7a 00 00    	mov    0x7a9d(%rip),%edx        # 11118 <g_21>
    967b:	8b 85 e8 f5 ff ff    	mov    -0xa18(%rbp),%eax
    9681:	0f b7 f0             	movzwl %ax,%esi
    9684:	0f b7 05 d1 79 00 00 	movzwl 0x79d1(%rip),%eax        # 1105c <g_19+0x1c>
    968b:	66 85 c0             	test   %ax,%ax
    968e:	0f 94 c0             	sete   %al
    9691:	0f b6 c8             	movzbl %al,%ecx
    9694:	0f b7 05 c1 79 00 00 	movzwl 0x79c1(%rip),%eax        # 1105c <g_19+0x1c>
    969b:	98                   	cwtl   
    969c:	39 c1                	cmp    %eax,%ecx
    969e:	0f 9d c0             	setge  %al
    96a1:	0f b6 c8             	movzbl %al,%ecx
    96a4:	48 8b 85 d0 f5 ff ff 	mov    -0xa30(%rbp),%rax
    96ab:	8b 00                	mov    (%rax),%eax
    96ad:	21 c1                	and    %eax,%ecx
    96af:	8b 85 e8 f5 ff ff    	mov    -0xa18(%rbp),%eax
    96b5:	31 c8                	xor    %ecx,%eax
    96b7:	f7 d0                	not    %eax
    96b9:	c1 e8 1f             	shr    $0x1f,%eax
    96bc:	0f b6 c0             	movzbl %al,%eax
    96bf:	48 8b bd 50 f6 ff ff 	mov    -0x9b0(%rbp),%rdi
    96c6:	48 8d 8d e8 f5 ff ff 	lea    -0xa18(%rbp),%rcx
    96cd:	49 89 f8             	mov    %rdi,%r8
    96d0:	48 89 c7             	mov    %rax,%rdi
    96d3:	e8 3e 16 00 00       	callq  ad16 <func_47>
    96d8:	48 89 c7             	mov    %rax,%rdi
    96db:	e8 fc 0f 00 00       	callq  a6dc <func_45>
    96e0:	48 89 c7             	mov    %rax,%rdi
    96e3:	8b 8d dc f5 ff ff    	mov    -0xa24(%rbp),%ecx
    96e9:	48 8b 95 40 f6 ff ff 	mov    -0x9c0(%rbp),%rdx
    96f0:	48 8b 85 40 f6 ff ff 	mov    -0x9c0(%rbp),%rax
    96f7:	48 89 c6             	mov    %rax,%rsi
    96fa:	e8 b3 0f 00 00       	callq  a6b2 <func_40>
    96ff:	89 c6                	mov    %eax,%esi
    9701:	8b 05 19 7a 00 00    	mov    0x7a19(%rip),%eax        # 11120 <g_29>
    9707:	48 98                	cltq   
    9709:	8b 0d 75 7e 00 00    	mov    0x7e75(%rip),%ecx        # 11584 <g_977+0x4>
    970f:	48 8b 95 48 f6 ff ff 	mov    -0x9b8(%rbp),%rdx
    9716:	41 89 c8             	mov    %ecx,%r8d
    9719:	44 89 e9             	mov    %r13d,%ecx
    971c:	48 89 c7             	mov    %rax,%rdi
    971f:	e8 2b 0d 00 00       	callq  a44f <func_34>
    9724:	0f b7 0d 81 79 00 00 	movzwl 0x7981(%rip),%ecx        # 110ac <g_19+0x6c>
    972b:	48 8b 95 58 f6 ff ff 	mov    -0x9a8(%rbp),%rdx
    9732:	0f b7 12             	movzwl (%rdx),%edx
    9735:	31 c2                	xor    %eax,%edx
    9737:	48 8b 85 58 f6 ff ff 	mov    -0x9a8(%rbp),%rax
    973e:	66 89 10             	mov    %dx,(%rax)
    9741:	48 8b 85 58 f6 ff ff 	mov    -0x9a8(%rbp),%rax
    9748:	0f b7 00             	movzwl (%rax),%eax
    974b:	66 39 c1             	cmp    %ax,%cx
    974e:	8b 85 ec f5 ff ff    	mov    -0xa14(%rbp),%eax
    9754:	89 c7                	mov    %eax,%edi
    9756:	e8 44 0c 00 00       	callq  a39f <func_32>
    975b:	0f b6 c0             	movzbl %al,%eax
    975e:	44 21 f0             	and    %r14d,%eax
    9761:	44 89 e6             	mov    %r12d,%esi
    9764:	89 c7                	mov    %eax,%edi
    9766:	e8 65 e7 ff ff       	callq  7ed0 <safe_sub_func_uint32_t_u_u>
    976b:	89 c2                	mov    %eax,%edx
    976d:	48 8b 85 c8 f5 ff ff 	mov    -0xa38(%rbp),%rax
    9774:	88 10                	mov    %dl,(%rax)
    9776:	48 89 de             	mov    %rbx,%rsi
    9779:	bf 01 00 00 00       	mov    $0x1,%edi
    977e:	e8 ab e8 ff ff       	callq  802e <safe_add_func_uint64_t_u_u>
    9783:	0f b7 c0             	movzwl %ax,%eax
    9786:	89 c7                	mov    %eax,%edi
    9788:	e8 5c e5 ff ff       	callq  7ce9 <safe_unary_minus_func_uint16_t_u>
    978d:	0f b7 c0             	movzwl %ax,%eax
    9790:	25 b3 fe 00 00       	and    $0xfeb3,%eax
    9795:	48 85 c0             	test   %rax,%rax
    9798:	75 1e                	jne    97b8 <func_13+0x4f2>
    979a:	48 8b 85 40 f6 ff ff 	mov    -0x9c0(%rbp),%rax
    97a1:	48 8b 00             	mov    (%rax),%rax
    97a4:	8b 00                	mov    (%rax),%eax
    97a6:	85 c0                	test   %eax,%eax
    97a8:	75 0e                	jne    97b8 <func_13+0x4f2>
    97aa:	8b 05 08 7c 00 00    	mov    0x7c08(%rip),%eax        # 113b8 <g_298+0x8>
    97b0:	85 c0                	test   %eax,%eax
    97b2:	0f 84 8f 00 00 00    	je     9847 <func_13+0x581>
    97b8:	c7 85 38 f6 ff ff 00 	movl   $0x0,-0x9c8(%rbp)
    97bf:	00 00 00 
    97c2:	66 c7 85 38 f6 ff ff 	movw   $0xfffe,-0x9c8(%rbp)
    97c9:	fe ff 
    97cb:	0f b6 85 d2 f6 ff ff 	movzbl -0x92e(%rbp),%eax
    97d2:	48 0f be d8          	movsbq %al,%rbx
    97d6:	48 8b 85 d0 f5 ff ff 	mov    -0xa30(%rbp),%rax
    97dd:	8b 00                	mov    (%rax),%eax
    97df:	89 c2                	mov    %eax,%edx
    97e1:	48 8b 05 e0 99 00 00 	mov    0x99e0(%rip),%rax        # 131c8 <g_95>
    97e8:	8b 00                	mov    (%rax),%eax
    97ea:	85 c0                	test   %eax,%eax
    97ec:	0f 95 c0             	setne  %al
    97ef:	0f b6 c0             	movzbl %al,%eax
    97f2:	89 d6                	mov    %edx,%esi
    97f4:	89 c7                	mov    %eax,%edi
    97f6:	e8 02 e7 ff ff       	callq  7efd <safe_mod_func_uint32_t_u_u>
    97fb:	0f b7 85 c4 f5 ff ff 	movzwl -0xa3c(%rbp),%eax
    9802:	66 83 f8 01          	cmp    $0x1,%ax
    9806:	0f 95 c0             	setne  %al
    9809:	0f b6 c0             	movzbl %al,%eax
    980c:	48 89 de             	mov    %rbx,%rsi
    980f:	48 89 c7             	mov    %rax,%rdi
    9812:	e8 98 e8 ff ff       	callq  80af <safe_div_func_uint64_t_u_u>
    9817:	48 8b 05 72 9f 00 00 	mov    0x9f72(%rip),%rax        # 13790 <g_760>
    981e:	c7 00 00 00 00 00    	movl   $0x0,(%rax)
    9824:	48 8b 85 40 f6 ff ff 	mov    -0x9c0(%rbp),%rax
    982b:	48 8b 00             	mov    (%rax),%rax
    982e:	8b 10                	mov    (%rax),%edx
    9830:	48 8b 85 40 f6 ff ff 	mov    -0x9c0(%rbp),%rax
    9837:	48 8b 00             	mov    (%rax),%rax
    983a:	81 f2 a9 2e e0 5e    	xor    $0x5ee02ea9,%edx
    9840:	89 10                	mov    %edx,(%rax)
    9842:	e9 2b 0b 00 00       	jmpq   a372 <func_13+0x10ac>
    9847:	48 8d 85 a8 f6 ff ff 	lea    -0x958(%rbp),%rax
    984e:	48 89 85 50 fc ff ff 	mov    %rax,-0x3b0(%rbp)
    9855:	48 8d 85 a8 f6 ff ff 	lea    -0x958(%rbp),%rax
    985c:	48 89 85 58 fc ff ff 	mov    %rax,-0x3a8(%rbp)
    9863:	48 8d 85 a8 f6 ff ff 	lea    -0x958(%rbp),%rax
    986a:	48 89 85 60 fc ff ff 	mov    %rax,-0x3a0(%rbp)
    9871:	48 8d 85 a8 f6 ff ff 	lea    -0x958(%rbp),%rax
    9878:	48 89 85 68 fc ff ff 	mov    %rax,-0x398(%rbp)
    987f:	48 8d 85 a8 f6 ff ff 	lea    -0x958(%rbp),%rax
    9886:	48 89 85 70 fc ff ff 	mov    %rax,-0x390(%rbp)
    988d:	48 8d 85 a8 f6 ff ff 	lea    -0x958(%rbp),%rax
    9894:	48 89 85 78 fc ff ff 	mov    %rax,-0x388(%rbp)
    989b:	48 8d 85 a8 f6 ff ff 	lea    -0x958(%rbp),%rax
    98a2:	48 89 85 80 fc ff ff 	mov    %rax,-0x380(%rbp)
    98a9:	48 8d 85 a8 f6 ff ff 	lea    -0x958(%rbp),%rax
    98b0:	48 89 85 88 fc ff ff 	mov    %rax,-0x378(%rbp)
    98b7:	48 8d 85 a8 f6 ff ff 	lea    -0x958(%rbp),%rax
    98be:	48 89 85 90 fc ff ff 	mov    %rax,-0x370(%rbp)
    98c5:	48 8d 85 a8 f6 ff ff 	lea    -0x958(%rbp),%rax
    98cc:	48 89 85 98 fc ff ff 	mov    %rax,-0x368(%rbp)
    98d3:	48 8d 85 a8 f6 ff ff 	lea    -0x958(%rbp),%rax
    98da:	48 89 85 a0 fc ff ff 	mov    %rax,-0x360(%rbp)
    98e1:	48 8d 85 a8 f6 ff ff 	lea    -0x958(%rbp),%rax
    98e8:	48 89 85 a8 fc ff ff 	mov    %rax,-0x358(%rbp)
    98ef:	48 8d 85 a8 f6 ff ff 	lea    -0x958(%rbp),%rax
    98f6:	48 89 85 b0 fc ff ff 	mov    %rax,-0x350(%rbp)
    98fd:	48 8d 85 a8 f6 ff ff 	lea    -0x958(%rbp),%rax
    9904:	48 89 85 b8 fc ff ff 	mov    %rax,-0x348(%rbp)
    990b:	48 8d 85 a8 f6 ff ff 	lea    -0x958(%rbp),%rax
    9912:	48 89 85 c0 fc ff ff 	mov    %rax,-0x340(%rbp)
    9919:	48 8d 85 a8 f6 ff ff 	lea    -0x958(%rbp),%rax
    9920:	48 89 85 c8 fc ff ff 	mov    %rax,-0x338(%rbp)
    9927:	48 8d 85 a8 f6 ff ff 	lea    -0x958(%rbp),%rax
    992e:	48 89 85 d0 fc ff ff 	mov    %rax,-0x330(%rbp)
    9935:	48 8d 85 a8 f6 ff ff 	lea    -0x958(%rbp),%rax
    993c:	48 89 85 d8 fc ff ff 	mov    %rax,-0x328(%rbp)
    9943:	48 8d 85 a8 f6 ff ff 	lea    -0x958(%rbp),%rax
    994a:	48 89 85 e0 fc ff ff 	mov    %rax,-0x320(%rbp)
    9951:	48 8d 85 a8 f6 ff ff 	lea    -0x958(%rbp),%rax
    9958:	48 89 85 e8 fc ff ff 	mov    %rax,-0x318(%rbp)
    995f:	48 8d 85 a8 f6 ff ff 	lea    -0x958(%rbp),%rax
    9966:	48 89 85 f0 fc ff ff 	mov    %rax,-0x310(%rbp)
    996d:	48 8d 85 a8 f6 ff ff 	lea    -0x958(%rbp),%rax
    9974:	48 89 85 f8 fc ff ff 	mov    %rax,-0x308(%rbp)
    997b:	48 c7 85 00 fd ff ff 	movq   $0x0,-0x300(%rbp)
    9982:	00 00 00 00 
    9986:	48 8d 85 a8 f6 ff ff 	lea    -0x958(%rbp),%rax
    998d:	48 89 85 08 fd ff ff 	mov    %rax,-0x2f8(%rbp)
    9994:	48 8d 85 a8 f6 ff ff 	lea    -0x958(%rbp),%rax
    999b:	48 89 85 10 fd ff ff 	mov    %rax,-0x2f0(%rbp)
    99a2:	48 8d 85 a8 f6 ff ff 	lea    -0x958(%rbp),%rax
    99a9:	48 89 85 18 fd ff ff 	mov    %rax,-0x2e8(%rbp)
    99b0:	48 8d 85 a8 f6 ff ff 	lea    -0x958(%rbp),%rax
    99b7:	48 89 85 20 fd ff ff 	mov    %rax,-0x2e0(%rbp)
    99be:	48 c7 85 28 fd ff ff 	movq   $0x0,-0x2d8(%rbp)
    99c5:	00 00 00 00 
    99c9:	48 8d 85 a8 f6 ff ff 	lea    -0x958(%rbp),%rax
    99d0:	48 89 85 30 fd ff ff 	mov    %rax,-0x2d0(%rbp)
    99d7:	48 8d 85 a8 f6 ff ff 	lea    -0x958(%rbp),%rax
    99de:	48 89 85 38 fd ff ff 	mov    %rax,-0x2c8(%rbp)
    99e5:	48 8d 85 a8 f6 ff ff 	lea    -0x958(%rbp),%rax
    99ec:	48 89 85 40 fd ff ff 	mov    %rax,-0x2c0(%rbp)
    99f3:	48 8d 85 a8 f6 ff ff 	lea    -0x958(%rbp),%rax
    99fa:	48 89 85 48 fd ff ff 	mov    %rax,-0x2b8(%rbp)
    9a01:	48 8d 85 a8 f6 ff ff 	lea    -0x958(%rbp),%rax
    9a08:	48 89 85 50 fd ff ff 	mov    %rax,-0x2b0(%rbp)
    9a0f:	48 8d 85 a8 f6 ff ff 	lea    -0x958(%rbp),%rax
    9a16:	48 89 85 58 fd ff ff 	mov    %rax,-0x2a8(%rbp)
    9a1d:	48 8d 85 a8 f6 ff ff 	lea    -0x958(%rbp),%rax
    9a24:	48 89 85 60 fd ff ff 	mov    %rax,-0x2a0(%rbp)
    9a2b:	48 8d 85 a8 f6 ff ff 	lea    -0x958(%rbp),%rax
    9a32:	48 89 85 68 fd ff ff 	mov    %rax,-0x298(%rbp)
    9a39:	48 8d 85 a8 f6 ff ff 	lea    -0x958(%rbp),%rax
    9a40:	48 89 85 70 fd ff ff 	mov    %rax,-0x290(%rbp)
    9a47:	48 8d 85 a8 f6 ff ff 	lea    -0x958(%rbp),%rax
    9a4e:	48 89 85 78 fd ff ff 	mov    %rax,-0x288(%rbp)
    9a55:	48 8d 85 a8 f6 ff ff 	lea    -0x958(%rbp),%rax
    9a5c:	48 89 85 80 fd ff ff 	mov    %rax,-0x280(%rbp)
    9a63:	48 8d 85 a8 f6 ff ff 	lea    -0x958(%rbp),%rax
    9a6a:	48 89 85 88 fd ff ff 	mov    %rax,-0x278(%rbp)
    9a71:	48 8d 85 a8 f6 ff ff 	lea    -0x958(%rbp),%rax
    9a78:	48 89 85 90 fd ff ff 	mov    %rax,-0x270(%rbp)
    9a7f:	48 8d 85 a8 f6 ff ff 	lea    -0x958(%rbp),%rax
    9a86:	48 89 85 98 fd ff ff 	mov    %rax,-0x268(%rbp)
    9a8d:	48 8d 85 a8 f6 ff ff 	lea    -0x958(%rbp),%rax
    9a94:	48 89 85 a0 fd ff ff 	mov    %rax,-0x260(%rbp)
    9a9b:	48 8d 85 a8 f6 ff ff 	lea    -0x958(%rbp),%rax
    9aa2:	48 89 85 a8 fd ff ff 	mov    %rax,-0x258(%rbp)
    9aa9:	48 8d 85 a8 f6 ff ff 	lea    -0x958(%rbp),%rax
    9ab0:	48 89 85 b0 fd ff ff 	mov    %rax,-0x250(%rbp)
    9ab7:	48 8d 85 a8 f6 ff ff 	lea    -0x958(%rbp),%rax
    9abe:	48 89 85 b8 fd ff ff 	mov    %rax,-0x248(%rbp)
    9ac5:	48 8d 85 a8 f6 ff ff 	lea    -0x958(%rbp),%rax
    9acc:	48 89 85 c0 fd ff ff 	mov    %rax,-0x240(%rbp)
    9ad3:	48 8d 85 a8 f6 ff ff 	lea    -0x958(%rbp),%rax
    9ada:	48 89 85 c8 fd ff ff 	mov    %rax,-0x238(%rbp)
    9ae1:	48 8d 85 a8 f6 ff ff 	lea    -0x958(%rbp),%rax
    9ae8:	48 89 85 d0 fd ff ff 	mov    %rax,-0x230(%rbp)
    9aef:	48 8d 85 a8 f6 ff ff 	lea    -0x958(%rbp),%rax
    9af6:	48 89 85 d8 fd ff ff 	mov    %rax,-0x228(%rbp)
    9afd:	48 8d 85 a8 f6 ff ff 	lea    -0x958(%rbp),%rax
    9b04:	48 89 85 e0 fd ff ff 	mov    %rax,-0x220(%rbp)
    9b0b:	48 8d 85 a8 f6 ff ff 	lea    -0x958(%rbp),%rax
    9b12:	48 89 85 e8 fd ff ff 	mov    %rax,-0x218(%rbp)
    9b19:	48 8d 85 a8 f6 ff ff 	lea    -0x958(%rbp),%rax
    9b20:	48 89 85 f0 fd ff ff 	mov    %rax,-0x210(%rbp)
    9b27:	48 c7 85 f8 fd ff ff 	movq   $0x0,-0x208(%rbp)
    9b2e:	00 00 00 00 
    9b32:	48 8d 85 a8 f6 ff ff 	lea    -0x958(%rbp),%rax
    9b39:	48 89 85 00 fe ff ff 	mov    %rax,-0x200(%rbp)
    9b40:	48 8d 85 a8 f6 ff ff 	lea    -0x958(%rbp),%rax
    9b47:	48 89 85 08 fe ff ff 	mov    %rax,-0x1f8(%rbp)
    9b4e:	48 8d 85 a8 f6 ff ff 	lea    -0x958(%rbp),%rax
    9b55:	48 89 85 10 fe ff ff 	mov    %rax,-0x1f0(%rbp)
    9b5c:	48 8d 85 a8 f6 ff ff 	lea    -0x958(%rbp),%rax
    9b63:	48 89 85 18 fe ff ff 	mov    %rax,-0x1e8(%rbp)
    9b6a:	48 8d 85 a8 f6 ff ff 	lea    -0x958(%rbp),%rax
    9b71:	48 89 85 20 fe ff ff 	mov    %rax,-0x1e0(%rbp)
    9b78:	48 8d 85 a8 f6 ff ff 	lea    -0x958(%rbp),%rax
    9b7f:	48 89 85 28 fe ff ff 	mov    %rax,-0x1d8(%rbp)
    9b86:	48 8d 85 a8 f6 ff ff 	lea    -0x958(%rbp),%rax
    9b8d:	48 89 85 30 fe ff ff 	mov    %rax,-0x1d0(%rbp)
    9b94:	48 8d 85 a8 f6 ff ff 	lea    -0x958(%rbp),%rax
    9b9b:	48 89 85 38 fe ff ff 	mov    %rax,-0x1c8(%rbp)
    9ba2:	48 8d 85 a8 f6 ff ff 	lea    -0x958(%rbp),%rax
    9ba9:	48 89 85 40 fe ff ff 	mov    %rax,-0x1c0(%rbp)
    9bb0:	48 8d 85 a8 f6 ff ff 	lea    -0x958(%rbp),%rax
    9bb7:	48 89 85 48 fe ff ff 	mov    %rax,-0x1b8(%rbp)
    9bbe:	48 8d 85 a8 f6 ff ff 	lea    -0x958(%rbp),%rax
    9bc5:	48 89 85 50 fe ff ff 	mov    %rax,-0x1b0(%rbp)
    9bcc:	48 8d 85 a8 f6 ff ff 	lea    -0x958(%rbp),%rax
    9bd3:	48 89 85 58 fe ff ff 	mov    %rax,-0x1a8(%rbp)
    9bda:	48 8d 85 a8 f6 ff ff 	lea    -0x958(%rbp),%rax
    9be1:	48 89 85 60 fe ff ff 	mov    %rax,-0x1a0(%rbp)
    9be8:	48 c7 85 68 fe ff ff 	movq   $0x0,-0x198(%rbp)
    9bef:	00 00 00 00 
    9bf3:	48 c7 85 70 fe ff ff 	movq   $0x0,-0x190(%rbp)
    9bfa:	00 00 00 00 
    9bfe:	48 8d 85 a8 f6 ff ff 	lea    -0x958(%rbp),%rax
    9c05:	48 89 85 78 fe ff ff 	mov    %rax,-0x188(%rbp)
    9c0c:	48 8d 85 a8 f6 ff ff 	lea    -0x958(%rbp),%rax
    9c13:	48 89 85 80 fe ff ff 	mov    %rax,-0x180(%rbp)
    9c1a:	48 8d 85 a8 f6 ff ff 	lea    -0x958(%rbp),%rax
    9c21:	48 89 85 88 fe ff ff 	mov    %rax,-0x178(%rbp)
    9c28:	48 8d 85 a8 f6 ff ff 	lea    -0x958(%rbp),%rax
    9c2f:	48 89 85 90 fe ff ff 	mov    %rax,-0x170(%rbp)
    9c36:	48 8d 85 a8 f6 ff ff 	lea    -0x958(%rbp),%rax
    9c3d:	48 89 85 98 fe ff ff 	mov    %rax,-0x168(%rbp)
    9c44:	48 8d 85 a8 f6 ff ff 	lea    -0x958(%rbp),%rax
    9c4b:	48 89 85 a0 fe ff ff 	mov    %rax,-0x160(%rbp)
    9c52:	48 8d 85 a8 f6 ff ff 	lea    -0x958(%rbp),%rax
    9c59:	48 89 85 a8 fe ff ff 	mov    %rax,-0x158(%rbp)
    9c60:	48 8d 85 a8 f6 ff ff 	lea    -0x958(%rbp),%rax
    9c67:	48 89 85 b0 fe ff ff 	mov    %rax,-0x150(%rbp)
    9c6e:	48 8d 85 a8 f6 ff ff 	lea    -0x958(%rbp),%rax
    9c75:	48 89 85 b8 fe ff ff 	mov    %rax,-0x148(%rbp)
    9c7c:	48 8d 85 a8 f6 ff ff 	lea    -0x958(%rbp),%rax
    9c83:	48 89 85 c0 fe ff ff 	mov    %rax,-0x140(%rbp)
    9c8a:	48 8d 85 a8 f6 ff ff 	lea    -0x958(%rbp),%rax
    9c91:	48 89 85 c8 fe ff ff 	mov    %rax,-0x138(%rbp)
    9c98:	48 8d 85 a8 f6 ff ff 	lea    -0x958(%rbp),%rax
    9c9f:	48 89 85 d0 fe ff ff 	mov    %rax,-0x130(%rbp)
    9ca6:	48 8d 85 a8 f6 ff ff 	lea    -0x958(%rbp),%rax
    9cad:	48 89 85 d8 fe ff ff 	mov    %rax,-0x128(%rbp)
    9cb4:	48 8d 85 a8 f6 ff ff 	lea    -0x958(%rbp),%rax
    9cbb:	48 89 85 e0 fe ff ff 	mov    %rax,-0x120(%rbp)
    9cc2:	48 8d 85 a8 f6 ff ff 	lea    -0x958(%rbp),%rax
    9cc9:	48 89 85 e8 fe ff ff 	mov    %rax,-0x118(%rbp)
    9cd0:	48 8d 85 a8 f6 ff ff 	lea    -0x958(%rbp),%rax
    9cd7:	48 89 85 f0 fe ff ff 	mov    %rax,-0x110(%rbp)
    9cde:	48 8d 85 a8 f6 ff ff 	lea    -0x958(%rbp),%rax
    9ce5:	48 89 85 f8 fe ff ff 	mov    %rax,-0x108(%rbp)
    9cec:	48 8d 85 a8 f6 ff ff 	lea    -0x958(%rbp),%rax
    9cf3:	48 89 85 00 ff ff ff 	mov    %rax,-0x100(%rbp)
    9cfa:	48 8d 85 a8 f6 ff ff 	lea    -0x958(%rbp),%rax
    9d01:	48 89 85 08 ff ff ff 	mov    %rax,-0xf8(%rbp)
    9d08:	48 8d 85 a8 f6 ff ff 	lea    -0x958(%rbp),%rax
    9d0f:	48 89 85 10 ff ff ff 	mov    %rax,-0xf0(%rbp)
    9d16:	48 8d 85 a8 f6 ff ff 	lea    -0x958(%rbp),%rax
    9d1d:	48 89 85 18 ff ff ff 	mov    %rax,-0xe8(%rbp)
    9d24:	48 8d 85 a8 f6 ff ff 	lea    -0x958(%rbp),%rax
    9d2b:	48 89 85 20 ff ff ff 	mov    %rax,-0xe0(%rbp)
    9d32:	48 8d 85 a8 f6 ff ff 	lea    -0x958(%rbp),%rax
    9d39:	48 89 85 28 ff ff ff 	mov    %rax,-0xd8(%rbp)
    9d40:	48 8d 85 a8 f6 ff ff 	lea    -0x958(%rbp),%rax
    9d47:	48 89 85 30 ff ff ff 	mov    %rax,-0xd0(%rbp)
    9d4e:	48 8d 85 a8 f6 ff ff 	lea    -0x958(%rbp),%rax
    9d55:	48 89 85 38 ff ff ff 	mov    %rax,-0xc8(%rbp)
    9d5c:	48 8d 85 a8 f6 ff ff 	lea    -0x958(%rbp),%rax
    9d63:	48 89 85 40 ff ff ff 	mov    %rax,-0xc0(%rbp)
    9d6a:	48 8d 85 a8 f6 ff ff 	lea    -0x958(%rbp),%rax
    9d71:	48 89 85 48 ff ff ff 	mov    %rax,-0xb8(%rbp)
    9d78:	48 c7 85 50 ff ff ff 	movq   $0x0,-0xb0(%rbp)
    9d7f:	00 00 00 00 
    9d83:	48 8d 85 a8 f6 ff ff 	lea    -0x958(%rbp),%rax
    9d8a:	48 89 85 58 ff ff ff 	mov    %rax,-0xa8(%rbp)
    9d91:	48 8d 85 a8 f6 ff ff 	lea    -0x958(%rbp),%rax
    9d98:	48 89 85 60 ff ff ff 	mov    %rax,-0xa0(%rbp)
    9d9f:	48 8d 85 a8 f6 ff ff 	lea    -0x958(%rbp),%rax
    9da6:	48 89 85 68 ff ff ff 	mov    %rax,-0x98(%rbp)
    9dad:	48 8d 85 a8 f6 ff ff 	lea    -0x958(%rbp),%rax
    9db4:	48 89 85 70 ff ff ff 	mov    %rax,-0x90(%rbp)
    9dbb:	48 8d 85 a8 f6 ff ff 	lea    -0x958(%rbp),%rax
    9dc2:	48 89 85 78 ff ff ff 	mov    %rax,-0x88(%rbp)
    9dc9:	48 8d 85 a8 f6 ff ff 	lea    -0x958(%rbp),%rax
    9dd0:	48 89 45 80          	mov    %rax,-0x80(%rbp)
    9dd4:	48 8d 85 a8 f6 ff ff 	lea    -0x958(%rbp),%rax
    9ddb:	48 89 45 88          	mov    %rax,-0x78(%rbp)
    9ddf:	48 8d 85 a8 f6 ff ff 	lea    -0x958(%rbp),%rax
    9de6:	48 89 45 90          	mov    %rax,-0x70(%rbp)
    9dea:	48 8d 85 a8 f6 ff ff 	lea    -0x958(%rbp),%rax
    9df1:	48 89 45 98          	mov    %rax,-0x68(%rbp)
    9df5:	48 8d 85 a8 f6 ff ff 	lea    -0x958(%rbp),%rax
    9dfc:	48 89 45 a0          	mov    %rax,-0x60(%rbp)
    9e00:	48 8d 85 a8 f6 ff ff 	lea    -0x958(%rbp),%rax
    9e07:	48 89 45 a8          	mov    %rax,-0x58(%rbp)
    9e0b:	48 8d 85 a8 f6 ff ff 	lea    -0x958(%rbp),%rax
    9e12:	48 89 45 b0          	mov    %rax,-0x50(%rbp)
    9e16:	48 8d 85 a8 f6 ff ff 	lea    -0x958(%rbp),%rax
    9e1d:	48 89 45 b8          	mov    %rax,-0x48(%rbp)
    9e21:	48 8d 85 a8 f6 ff ff 	lea    -0x958(%rbp),%rax
    9e28:	48 89 45 c0          	mov    %rax,-0x40(%rbp)
    9e2c:	48 8d 85 a8 f6 ff ff 	lea    -0x958(%rbp),%rax
    9e33:	48 89 45 c8          	mov    %rax,-0x38(%rbp)
    9e37:	c7 85 f8 f5 ff ff 01 	movl   $0x1,-0xa08(%rbp)
    9e3e:	00 00 00 
    9e41:	48 8d 05 c0 a7 00 00 	lea    0xa7c0(%rip),%rax        # 14608 <g_12>
    9e48:	48 89 85 e0 f6 ff ff 	mov    %rax,-0x920(%rbp)
    9e4f:	48 8d 05 aa 76 00 00 	lea    0x76aa(%rip),%rax        # 11500 <g_538>
    9e56:	48 89 85 e8 f6 ff ff 	mov    %rax,-0x918(%rbp)
    9e5d:	48 8d 05 a4 a7 00 00 	lea    0xa7a4(%rip),%rax        # 14608 <g_12>
    9e64:	48 89 85 f0 f6 ff ff 	mov    %rax,-0x910(%rbp)
    9e6b:	48 8d 05 8e 76 00 00 	lea    0x768e(%rip),%rax        # 11500 <g_538>
    9e72:	48 89 85 f8 f6 ff ff 	mov    %rax,-0x908(%rbp)
    9e79:	48 8d 05 88 a7 00 00 	lea    0xa788(%rip),%rax        # 14608 <g_12>
    9e80:	48 89 85 00 f7 ff ff 	mov    %rax,-0x900(%rbp)
    9e87:	48 8d 05 72 76 00 00 	lea    0x7672(%rip),%rax        # 11500 <g_538>
    9e8e:	48 89 85 08 f7 ff ff 	mov    %rax,-0x8f8(%rbp)
    9e95:	66 c7 85 e6 f5 ff ff 	movw   $0xf2e,-0xa1a(%rbp)
    9e9c:	2e 0f 
    9e9e:	48 c7 85 70 f6 ff ff 	movq   $0x0,-0x990(%rbp)
    9ea5:	00 00 00 00 
    9ea9:	c7 85 fc f5 ff ff ca 	movl   $0xa19796ca,-0xa04(%rbp)
    9eb0:	96 97 a1 
    9eb3:	c7 85 00 f6 ff ff 1c 	movl   $0xa61211c,-0xa00(%rbp)
    9eba:	21 61 0a 
    9ebd:	c7 85 04 f6 ff ff 09 	movl   $0x9,-0x9fc(%rbp)
    9ec4:	00 00 00 
    9ec7:	c7 85 08 f6 ff ff b2 	movl   $0x848befb2,-0x9f8(%rbp)
    9ece:	ef 8b 84 
    9ed1:	c7 85 0c f6 ff ff 47 	movl   $0x45389747,-0x9f4(%rbp)
    9ed8:	97 38 45 
    9edb:	c7 85 10 f6 ff ff 9f 	movl   $0xb2a2c09f,-0x9f0(%rbp)
    9ee2:	c0 a2 b2 
    9ee5:	48 8d 85 30 f9 ff ff 	lea    -0x6d0(%rbp),%rax
    9eec:	48 8d 15 4d 7f 00 00 	lea    0x7f4d(%rip),%rdx        # 11e40 <g_1803+0x7b8>
    9ef3:	b9 64 00 00 00       	mov    $0x64,%ecx
    9ef8:	48 89 c7             	mov    %rax,%rdi
    9efb:	48 89 d6             	mov    %rdx,%rsi
    9efe:	f3 48 a5             	rep movsq %ds:(%rsi),%es:(%rdi)
    9f01:	48 8d 05 08 77 00 00 	lea    0x7708(%rip),%rax        # 11610 <g_1050+0x8>
    9f08:	48 89 85 78 f6 ff ff 	mov    %rax,-0x988(%rbp)
    9f0f:	48 c7 85 80 f6 ff ff 	movq   $0x0,-0x980(%rbp)
    9f16:	00 00 00 00 
    9f1a:	c7 85 f0 f5 ff ff 00 	movl   $0x0,-0xa10(%rbp)
    9f21:	00 00 00 
    9f24:	eb 1e                	jmp    9f44 <func_13+0xc7e>
    9f26:	8b 85 f0 f5 ff ff    	mov    -0xa10(%rbp),%eax
    9f2c:	48 98                	cltq   
    9f2e:	48 8d 15 4f 76 00 00 	lea    0x764f(%rip),%rdx        # 11584 <g_977+0x4>
    9f35:	48 89 94 c5 a8 f6 ff 	mov    %rdx,-0x958(%rbp,%rax,8)
    9f3c:	ff 
    9f3d:	83 85 f0 f5 ff ff 01 	addl   $0x1,-0xa10(%rbp)
    9f44:	83 bd f0 f5 ff ff 00 	cmpl   $0x0,-0xa10(%rbp)
    9f4b:	7e d9                	jle    9f26 <func_13+0xc60>
    9f4d:	c7 85 d8 f5 ff ff e3 	movl   $0xffffffe3,-0xa28(%rbp)
    9f54:	ff ff ff 
    9f57:	eb 76                	jmp    9fcf <func_13+0xd09>
    9f59:	c7 85 2c f6 ff ff 3c 	movl   $0xf4e4a23c,-0x9d4(%rbp)
    9f60:	a2 e4 f4 
    9f63:	48 8d 05 fe 75 00 00 	lea    0x75fe(%rip),%rax        # 11568 <g_927>
    9f6a:	48 89 85 98 f6 ff ff 	mov    %rax,-0x968(%rbp)
    9f71:	48 8d 05 c0 92 00 00 	lea    0x92c0(%rip),%rax        # 13238 <g_152>
    9f78:	48 89 85 a0 f6 ff ff 	mov    %rax,-0x960(%rbp)
    9f7f:	8b 95 2c f6 ff ff    	mov    -0x9d4(%rbp),%edx
    9f85:	48 8b 85 98 f6 ff ff 	mov    -0x968(%rbp),%rax
    9f8c:	48 89 10             	mov    %rdx,(%rax)
    9f8f:	48 8b 85 98 f6 ff ff 	mov    -0x968(%rbp),%rax
    9f96:	48 8b 00             	mov    (%rax),%rax
    9f99:	48 89 c6             	mov    %rax,%rsi
    9f9c:	bf 01 00 00 00       	mov    $0x1,%edi
    9fa1:	e8 02 d9 ff ff       	callq  78a8 <safe_sub_func_int64_t_s_s>
    9fa6:	48 8b 95 d0 f5 ff ff 	mov    -0xa30(%rbp),%rdx
    9fad:	8b 12                	mov    (%rdx),%edx
    9faf:	21 c2                	and    %eax,%edx
    9fb1:	48 8b 85 d0 f5 ff ff 	mov    -0xa30(%rbp),%rax
    9fb8:	89 10                	mov    %edx,(%rax)
    9fba:	48 8b 85 a0 f6 ff ff 	mov    -0x960(%rbp),%rax
    9fc1:	48 89 05 b0 97 00 00 	mov    %rax,0x97b0(%rip)        # 13778 <g_670>
    9fc8:	83 85 d8 f5 ff ff 01 	addl   $0x1,-0xa28(%rbp)
    9fcf:	83 bd d8 f5 ff ff 10 	cmpl   $0x10,-0xa28(%rbp)
    9fd6:	75 81                	jne    9f59 <func_13+0xc93>
    9fd8:	48 8d 85 c4 f5 ff ff 	lea    -0xa3c(%rbp),%rax
    9fdf:	48 89 05 3a a0 00 00 	mov    %rax,0xa03a(%rip)        # 14020 <g_1034>
    9fe6:	c7 85 dc f5 ff ff 00 	movl   $0x0,-0xa24(%rbp)
    9fed:	00 00 00 
    9ff0:	e9 70 03 00 00       	jmpq   a365 <func_13+0x109f>
    9ff5:	48 8d 05 a8 75 00 00 	lea    0x75a8(%rip),%rax        # 115a4 <g_1047>
    9ffc:	48 89 85 60 f7 ff ff 	mov    %rax,-0x8a0(%rbp)
    a003:	48 8d 05 b6 75 00 00 	lea    0x75b6(%rip),%rax        # 115c0 <g_1049>
    a00a:	48 89 85 68 f7 ff ff 	mov    %rax,-0x898(%rbp)
    a011:	48 8d 05 90 75 00 00 	lea    0x7590(%rip),%rax        # 115a8 <g_1048>
    a018:	48 89 85 70 f7 ff ff 	mov    %rax,-0x890(%rbp)
    a01f:	48 8d 05 82 75 00 00 	lea    0x7582(%rip),%rax        # 115a8 <g_1048>
    a026:	48 89 85 78 f7 ff ff 	mov    %rax,-0x888(%rbp)
    a02d:	48 8d 05 8c 75 00 00 	lea    0x758c(%rip),%rax        # 115c0 <g_1049>
    a034:	48 89 85 80 f7 ff ff 	mov    %rax,-0x880(%rbp)
    a03b:	48 8d 05 62 75 00 00 	lea    0x7562(%rip),%rax        # 115a4 <g_1047>
    a042:	48 89 85 88 f7 ff ff 	mov    %rax,-0x878(%rbp)
    a049:	48 8d 05 70 75 00 00 	lea    0x7570(%rip),%rax        # 115c0 <g_1049>
    a050:	48 89 85 90 f7 ff ff 	mov    %rax,-0x870(%rbp)
    a057:	48 8d 05 4a 75 00 00 	lea    0x754a(%rip),%rax        # 115a8 <g_1048>
    a05e:	48 89 85 98 f7 ff ff 	mov    %rax,-0x868(%rbp)
    a065:	48 8d 05 3c 75 00 00 	lea    0x753c(%rip),%rax        # 115a8 <g_1048>
    a06c:	48 89 85 a0 f7 ff ff 	mov    %rax,-0x860(%rbp)
    a073:	48 8d 05 46 75 00 00 	lea    0x7546(%rip),%rax        # 115c0 <g_1049>
    a07a:	48 89 85 a8 f7 ff ff 	mov    %rax,-0x858(%rbp)
    a081:	c7 85 14 f6 ff ff fa 	movl   $0xfffffffa,-0x9ec(%rbp)
    a088:	ff ff ff 
    a08b:	48 c7 85 88 f6 ff ff 	movq   $0x0,-0x978(%rbp)
    a092:	00 00 00 00 
    a096:	48 b8 14 bb 69 73 a4 	movabs $0xf03d1fa47369bb14,%rax
    a09d:	1f 3d f0 
    a0a0:	48 89 85 90 f6 ff ff 	mov    %rax,-0x970(%rbp)
    a0a7:	48 c7 85 38 f6 ff ff 	movq   $0x0,-0x9c8(%rbp)
    a0ae:	00 00 00 00 
    a0b2:	66 c7 85 38 f6 ff ff 	movw   $0x2999,-0x9c8(%rbp)
    a0b9:	99 29 
    a0bb:	c6 85 e5 f5 ff ff f6 	movb   $0xf6,-0xa1b(%rbp)
    a0c2:	c7 85 18 f6 ff ff f8 	movl   $0xfffffff8,-0x9e8(%rbp)
    a0c9:	ff ff ff 
    a0cc:	c7 85 1c f6 ff ff dd 	movl   $0xe9feecdd,-0x9e4(%rbp)
    a0d3:	ec fe e9 
    a0d6:	c7 85 20 f6 ff ff 8b 	movl   $0x3396ef8b,-0x9e0(%rbp)
    a0dd:	ef 96 33 
    a0e0:	c7 85 24 f6 ff ff f7 	movl   $0xfffffff7,-0x9dc(%rbp)
    a0e7:	ff ff ff 
    a0ea:	c7 85 40 f8 ff ff fc 	movl   $0xfffffffc,-0x7c0(%rbp)
    a0f1:	ff ff ff 
    a0f4:	c7 85 44 f8 ff ff 09 	movl   $0x9,-0x7bc(%rbp)
    a0fb:	00 00 00 
    a0fe:	c7 85 48 f8 ff ff 00 	movl   $0x0,-0x7b8(%rbp)
    a105:	00 00 00 
    a108:	c7 85 4c f8 ff ff 01 	movl   $0x1,-0x7b4(%rbp)
    a10f:	00 00 00 
    a112:	c7 85 50 f8 ff ff 86 	movl   $0xb5e33786,-0x7b0(%rbp)
    a119:	37 e3 b5 
    a11c:	c7 85 54 f8 ff ff 86 	movl   $0xb5e33786,-0x7ac(%rbp)
    a123:	37 e3 b5 
    a126:	c7 85 58 f8 ff ff 09 	movl   $0x9,-0x7a8(%rbp)
    a12d:	00 00 00 
    a130:	c7 85 5c f8 ff ff 00 	movl   $0x0,-0x7a4(%rbp)
    a137:	00 00 00 
    a13a:	c7 85 60 f8 ff ff 00 	movl   $0x0,-0x7a0(%rbp)
    a141:	00 00 00 
    a144:	c7 85 64 f8 ff ff 09 	movl   $0x9,-0x79c(%rbp)
    a14b:	00 00 00 
    a14e:	c7 85 68 f8 ff ff 73 	movl   $0x5b990773,-0x798(%rbp)
    a155:	07 99 5b 
    a158:	c7 85 6c f8 ff ff 86 	movl   $0xb5e33786,-0x794(%rbp)
    a15f:	37 e3 b5 
    a162:	c7 85 70 f8 ff ff 65 	movl   $0xc0647465,-0x790(%rbp)
    a169:	74 64 c0 
    a16c:	c7 85 74 f8 ff ff 86 	movl   $0xb5e33786,-0x78c(%rbp)
    a173:	37 e3 b5 
    a176:	c7 85 78 f8 ff ff 00 	movl   $0x0,-0x788(%rbp)
    a17d:	00 00 00 
    a180:	c7 85 7c f8 ff ff ff 	movl   $0xffffffff,-0x784(%rbp)
    a187:	ff ff ff 
    a18a:	c7 85 80 f8 ff ff 01 	movl   $0x1,-0x780(%rbp)
    a191:	00 00 00 
    a194:	c7 85 84 f8 ff ff ff 	movl   $0xffffffff,-0x77c(%rbp)
    a19b:	ff ff ff 
    a19e:	c7 85 88 f8 ff ff 73 	movl   $0x5b990773,-0x778(%rbp)
    a1a5:	07 99 5b 
    a1a8:	c7 85 8c f8 ff ff 89 	movl   $0xd9f6d589,-0x774(%rbp)
    a1af:	d5 f6 d9 
    a1b2:	c7 85 90 f8 ff ff 73 	movl   $0x5b990773,-0x770(%rbp)
    a1b9:	07 99 5b 
    a1bc:	c7 85 94 f8 ff ff 03 	movl   $0x3,-0x76c(%rbp)
    a1c3:	00 00 00 
    a1c6:	c7 85 98 f8 ff ff 01 	movl   $0x1,-0x768(%rbp)
    a1cd:	00 00 00 
    a1d0:	c7 85 9c f8 ff ff fc 	movl   $0xfffffffc,-0x764(%rbp)
    a1d7:	ff ff ff 
    a1da:	c7 85 a0 f8 ff ff 00 	movl   $0x0,-0x760(%rbp)
    a1e1:	00 00 00 
    a1e4:	c7 85 a4 f8 ff ff 86 	movl   $0xb5e33786,-0x75c(%rbp)
    a1eb:	37 e3 b5 
    a1ee:	c7 85 a8 f8 ff ff 65 	movl   $0xc0647465,-0x758(%rbp)
    a1f5:	74 64 c0 
    a1f8:	c7 85 ac f8 ff ff 73 	movl   $0x5b990773,-0x754(%rbp)
    a1ff:	07 99 5b 
    a202:	c7 85 b0 f8 ff ff 73 	movl   $0x5b990773,-0x750(%rbp)
    a209:	07 99 5b 
    a20c:	c7 85 b4 f8 ff ff 65 	movl   $0xc0647465,-0x74c(%rbp)
    a213:	74 64 c0 
    a216:	c7 85 b8 f8 ff ff 00 	movl   $0x0,-0x748(%rbp)
    a21d:	00 00 00 
    a220:	c7 85 bc f8 ff ff 00 	movl   $0x0,-0x744(%rbp)
    a227:	00 00 00 
    a22a:	c7 85 c0 f8 ff ff 09 	movl   $0x9,-0x740(%rbp)
    a231:	00 00 00 
    a234:	c7 85 c4 f8 ff ff 73 	movl   $0x5b990773,-0x73c(%rbp)
    a23b:	07 99 5b 
    a23e:	c7 85 c8 f8 ff ff 86 	movl   $0xb5e33786,-0x738(%rbp)
    a245:	37 e3 b5 
    a248:	c7 85 cc f8 ff ff 03 	movl   $0x3,-0x734(%rbp)
    a24f:	00 00 00 
    a252:	c7 85 d0 f8 ff ff 00 	movl   $0x0,-0x730(%rbp)
    a259:	00 00 00 
    a25c:	c7 85 d4 f8 ff ff 09 	movl   $0x9,-0x72c(%rbp)
    a263:	00 00 00 
    a266:	c7 85 d8 f8 ff ff fc 	movl   $0xfffffffc,-0x728(%rbp)
    a26d:	ff ff ff 
    a270:	c7 85 dc f8 ff ff 03 	movl   $0x3,-0x724(%rbp)
    a277:	00 00 00 
    a27a:	c7 85 e0 f8 ff ff fc 	movl   $0xfffffffc,-0x720(%rbp)
    a281:	ff ff ff 
    a284:	c7 85 e4 f8 ff ff 09 	movl   $0x9,-0x71c(%rbp)
    a28b:	00 00 00 
    a28e:	c7 85 e8 f8 ff ff 73 	movl   $0x5b990773,-0x718(%rbp)
    a295:	07 99 5b 
    a298:	c7 85 ec f8 ff ff 00 	movl   $0x0,-0x714(%rbp)
    a29f:	00 00 00 
    a2a2:	c7 85 f0 f8 ff ff fc 	movl   $0xfffffffc,-0x710(%rbp)
    a2a9:	ff ff ff 
    a2ac:	c7 85 f4 f8 ff ff ff 	movl   $0xffffffff,-0x70c(%rbp)
    a2b3:	ff ff ff 
    a2b6:	c7 85 f8 f8 ff ff 00 	movl   $0x0,-0x708(%rbp)
    a2bd:	00 00 00 
    a2c0:	c7 85 fc f8 ff ff 03 	movl   $0x3,-0x704(%rbp)
    a2c7:	00 00 00 
    a2ca:	c7 85 00 f9 ff ff 65 	movl   $0xc0647465,-0x700(%rbp)
    a2d1:	74 64 c0 
    a2d4:	c7 85 04 f9 ff ff ff 	movl   $0xffffffff,-0x6fc(%rbp)
    a2db:	ff ff ff 
    a2de:	c7 85 08 f9 ff ff 09 	movl   $0x9,-0x6f8(%rbp)
    a2e5:	00 00 00 
    a2e8:	c7 85 0c f9 ff ff 09 	movl   $0x9,-0x6f4(%rbp)
    a2ef:	00 00 00 
    a2f2:	c7 85 10 f9 ff ff ff 	movl   $0xffffffff,-0x6f0(%rbp)
    a2f9:	ff ff ff 
    a2fc:	c7 85 14 f9 ff ff 65 	movl   $0xc0647465,-0x6ec(%rbp)
    a303:	74 64 c0 
    a306:	c7 85 18 f9 ff ff 09 	movl   $0x9,-0x6e8(%rbp)
    a30d:	00 00 00 
    a310:	c7 85 1c f9 ff ff ff 	movl   $0xffffffff,-0x6e4(%rbp)
    a317:	ff ff ff 
    a31a:	c7 85 20 f9 ff ff 65 	movl   $0xc0647465,-0x6e0(%rbp)
    a321:	74 64 c0 
    a324:	c7 85 24 f9 ff ff 01 	movl   $0x1,-0x6dc(%rbp)
    a32b:	00 00 00 
    a32e:	c7 85 28 f9 ff ff 00 	movl   $0x0,-0x6d8(%rbp)
    a335:	00 00 00 
    a338:	c7 85 2c f9 ff ff fc 	movl   $0xfffffffc,-0x6d4(%rbp)
    a33f:	ff ff ff 
    a342:	c7 85 28 f6 ff ff 00 	movl   $0x0,-0x9d8(%rbp)
    a349:	00 00 00 
    a34c:	8b 85 dc f5 ff ff    	mov    -0xa24(%rbp),%eax
    a352:	be 04 00 00 00       	mov    $0x4,%esi
    a357:	48 89 c7             	mov    %rax,%rdi
    a35a:	e8 e2 d4 ff ff       	callq  7841 <safe_add_func_int64_t_s_s>
    a35f:	89 85 dc f5 ff ff    	mov    %eax,-0xa24(%rbp)
    a365:	83 bd dc f5 ff ff 09 	cmpl   $0x9,-0xa24(%rbp)
    a36c:	0f 85 83 fc ff ff    	jne    9ff5 <func_13+0xd2f>
    a372:	48 8b 85 30 f6 ff ff 	mov    -0x9d0(%rbp),%rax
    a379:	8b 00                	mov    (%rax),%eax
    a37b:	48 8b 5d d8          	mov    -0x28(%rbp),%rbx
    a37f:	64 48 33 1c 25 28 00 	xor    %fs:0x28,%rbx
    a386:	00 00 
    a388:	74 05                	je     a38f <func_13+0x10c9>
    a38a:	e8 e1 cc ff ff       	callq  7070 <__stack_chk_fail@plt>
    a38f:	48 81 c4 20 0a 00 00 	add    $0xa20,%rsp
    a396:	5b                   	pop    %rbx
    a397:	41 5c                	pop    %r12
    a399:	41 5d                	pop    %r13
    a39b:	41 5e                	pop    %r14
    a39d:	5d                   	pop    %rbp
    a39e:	c3                   	retq   

000000000000a39f <func_32>:
    a39f:	f3 0f 1e fa          	endbr64 
    a3a3:	55                   	push   %rbp
    a3a4:	48 89 e5             	mov    %rsp,%rbp
    a3a7:	48 83 c4 80          	add    $0xffffffffffffff80,%rsp
    a3ab:	89 7d 8c             	mov    %edi,-0x74(%rbp)
    a3ae:	64 48 8b 04 25 28 00 	mov    %fs:0x28,%rax
    a3b5:	00 00 
    a3b7:	48 89 45 f8          	mov    %rax,-0x8(%rbp)
    a3bb:	31 c0                	xor    %eax,%eax
    a3bd:	48 c7 45 a0 ff ff ff 	movq   $0xffffffffffffffff,-0x60(%rbp)
    a3c4:	ff 
    a3c5:	c7 45 94 13 0b ec b2 	movl   $0xb2ec0b13,-0x6c(%rbp)
    a3cc:	48 8d 05 4d 6d 00 00 	lea    0x6d4d(%rip),%rax        # 11120 <g_29>
    a3d3:	48 89 45 a8          	mov    %rax,-0x58(%rbp)
    a3d7:	48 8d 05 42 6d 00 00 	lea    0x6d42(%rip),%rax        # 11120 <g_29>
    a3de:	48 89 45 b0          	mov    %rax,-0x50(%rbp)
    a3e2:	c7 45 98 73 57 d8 62 	movl   $0x62d85773,-0x68(%rbp)
    a3e9:	48 b8 b8 70 81 7e b8 	movabs $0xa686e6b87e8170b8,%rax
    a3f0:	e6 86 a6 
    a3f3:	48 89 45 b8          	mov    %rax,-0x48(%rbp)
    a3f7:	c7 45 9c 00 00 00 00 	movl   $0x0,-0x64(%rbp)
    a3fe:	c7 45 90 00 00 00 00 	movl   $0x0,-0x70(%rbp)
    a405:	eb 12                	jmp    a419 <func_32+0x7a>
    a407:	8b 45 90             	mov    -0x70(%rbp),%eax
    a40a:	48 98                	cltq   
    a40c:	48 c7 44 c5 c0 00 00 	movq   $0x0,-0x40(%rbp,%rax,8)
    a413:	00 00 
    a415:	83 45 90 01          	addl   $0x1,-0x70(%rbp)
    a419:	83 7d 90 05          	cmpl   $0x5,-0x70(%rbp)
    a41d:	7e e8                	jle    a407 <func_32+0x68>
    a41f:	83 45 9c 01          	addl   $0x1,-0x64(%rbp)
    a423:	48 8b 05 4e 93 00 00 	mov    0x934e(%rip),%rax        # 13778 <g_670>
    a42a:	48 8b 00             	mov    (%rax),%rax
    a42d:	48 8b 00             	mov    (%rax),%rax
    a430:	48 8b 00             	mov    (%rax),%rax
    a433:	48 8b 00             	mov    (%rax),%rax
    a436:	0f b6 00             	movzbl (%rax),%eax
    a439:	48 8b 55 f8          	mov    -0x8(%rbp),%rdx
    a43d:	64 48 33 14 25 28 00 	xor    %fs:0x28,%rdx
    a444:	00 00 
    a446:	74 05                	je     a44d <func_32+0xae>
    a448:	e8 23 cc ff ff       	callq  7070 <__stack_chk_fail@plt>
    a44d:	c9                   	leaveq 
    a44e:	c3                   	retq   

000000000000a44f <func_34>:
    a44f:	f3 0f 1e fa          	endbr64 
    a453:	55                   	push   %rbp
    a454:	48 89 e5             	mov    %rsp,%rbp
    a457:	41 54                	push   %r12
    a459:	53                   	push   %rbx
    a45a:	48 81 ec 90 06 00 00 	sub    $0x690,%rsp
    a461:	48 89 bd 78 f9 ff ff 	mov    %rdi,-0x688(%rbp)
    a468:	89 b5 74 f9 ff ff    	mov    %esi,-0x68c(%rbp)
    a46e:	48 89 95 68 f9 ff ff 	mov    %rdx,-0x698(%rbp)
    a475:	89 8d 70 f9 ff ff    	mov    %ecx,-0x690(%rbp)
    a47b:	44 89 85 64 f9 ff ff 	mov    %r8d,-0x69c(%rbp)
    a482:	64 48 8b 04 25 28 00 	mov    %fs:0x28,%rax
    a489:	00 00 
    a48b:	48 89 45 e8          	mov    %rax,-0x18(%rbp)
    a48f:	31 c0                	xor    %eax,%eax
    a491:	48 8d 05 ac 6c 00 00 	lea    0x6cac(%rip),%rax        # 11144 <g_146>
    a498:	48 89 85 90 f9 ff ff 	mov    %rax,-0x670(%rbp)
    a49f:	48 8d 05 82 6c 00 00 	lea    0x6c82(%rip),%rax        # 11128 <g_96>
    a4a6:	48 89 85 a8 f9 ff ff 	mov    %rax,-0x658(%rbp)
    a4ad:	48 8d 85 e0 f9 ff ff 	lea    -0x620(%rbp),%rax
    a4b4:	48 8d 15 a5 7c 00 00 	lea    0x7ca5(%rip),%rdx        # 12160 <g_1803+0xad8>
    a4bb:	b9 40 00 00 00       	mov    $0x40,%ecx
    a4c0:	48 89 c7             	mov    %rax,%rdi
    a4c3:	48 89 d6             	mov    %rdx,%rsi
    a4c6:	f3 48 a5             	rep movsq %ds:(%rsi),%es:(%rdi)
    a4c9:	48 c7 85 b0 f9 ff ff 	movq   $0x2,-0x650(%rbp)
    a4d0:	02 00 00 00 
    a4d4:	48 c7 85 b8 f9 ff ff 	movq   $0x0,-0x648(%rbp)
    a4db:	00 00 00 00 
    a4df:	48 8d 85 90 f9 ff ff 	lea    -0x670(%rbp),%rax
    a4e6:	48 89 85 98 f9 ff ff 	mov    %rax,-0x668(%rbp)
    a4ed:	48 8d 85 98 f9 ff ff 	lea    -0x668(%rbp),%rax
    a4f4:	48 89 85 c0 f9 ff ff 	mov    %rax,-0x640(%rbp)
    a4fb:	48 c7 85 a0 f9 ff ff 	movq   $0x0,-0x660(%rbp)
    a502:	00 00 00 00 
    a506:	66 c7 85 a0 f9 ff ff 	movw   $0xfff6,-0x660(%rbp)
    a50d:	f6 ff 
    a50f:	c6 85 8a f9 ff ff d4 	movb   $0xd4,-0x676(%rbp)
    a516:	48 b8 d7 b1 c2 45 2e 	movabs $0xa140ca2e45c2b1d7,%rax
    a51d:	ca 40 a1 
    a520:	48 89 85 c8 f9 ff ff 	mov    %rax,-0x638(%rbp)
    a527:	48 8d 85 e0 fb ff ff 	lea    -0x420(%rbp),%rax
    a52e:	48 8d 15 0b 31 00 00 	lea    0x310b(%rip),%rdx        # d640 <g_1560+0x5c0>
    a535:	b9 80 00 00 00       	mov    $0x80,%ecx
    a53a:	48 89 c7             	mov    %rax,%rdi
    a53d:	48 89 d6             	mov    %rdx,%rsi
    a540:	f3 48 a5             	rep movsq %ds:(%rsi),%es:(%rdi)
    a543:	48 83 85 b0 f9 ff ff 	addq   $0x1,-0x650(%rbp)
    a54a:	01 
    a54b:	48 8b 05 e6 8c 00 00 	mov    0x8ce6(%rip),%rax        # 13238 <g_152>
    a552:	48 8b 00             	mov    (%rax),%rax
    a555:	48 8b 00             	mov    (%rax),%rax
    a558:	48 8b 00             	mov    (%rax),%rax
    a55b:	0f b6 18             	movzbl (%rax),%ebx
    a55e:	48 8b 05 fb 8c 00 00 	mov    0x8cfb(%rip),%rax        # 13260 <g_275>
    a565:	48 8b 00             	mov    (%rax),%rax
    a568:	48 39 85 b8 f9 ff ff 	cmp    %rax,-0x648(%rbp)
    a56f:	0f 95 c0             	setne  %al
    a572:	0f b6 d0             	movzbl %al,%edx
    a575:	8b 05 a5 6f 00 00    	mov    0x6fa5(%rip),%eax        # 11520 <g_668>
    a57b:	39 c2                	cmp    %eax,%edx
    a57d:	0f 93 c0             	setae  %al
    a580:	44 0f b6 e0          	movzbl %al,%r12d
    a584:	48 8b 05 bd 91 00 00 	mov    0x91bd(%rip),%rax        # 13748 <g_603>
    a58b:	48 8b 00             	mov    (%rax),%rax
    a58e:	48 8b 85 98 f9 ff ff 	mov    -0x668(%rbp),%rax
    a595:	48 8b 00             	mov    (%rax),%rax
    a598:	8b 10                	mov    (%rax),%edx
    a59a:	8b 85 70 f9 ff ff    	mov    -0x690(%rbp),%eax
    a5a0:	98                   	cwtl   
    a5a1:	89 d6                	mov    %edx,%esi
    a5a3:	89 c7                	mov    %eax,%edi
    a5a5:	e8 80 cf ff ff       	callq  752a <safe_rshift_func_int16_t_s_s>
    a5aa:	98                   	cwtl   
    a5ab:	41 39 c4             	cmp    %eax,%r12d
    a5ae:	0f 95 c0             	setne  %al
    a5b1:	0f b6 c0             	movzbl %al,%eax
    a5b4:	be 09 00 00 00       	mov    $0x9,%esi
    a5b9:	89 c7                	mov    %eax,%edi
    a5bb:	e8 9a d5 ff ff       	callq  7b5a <safe_add_func_uint8_t_u_u>
    a5c0:	38 c3                	cmp    %al,%bl
    a5c2:	74 51                	je     a615 <func_34+0x1c6>
    a5c4:	c6 85 8b f9 ff ff 37 	movb   $0x37,-0x675(%rbp)
    a5cb:	c7 85 8c f9 ff ff 00 	movl   $0x0,-0x674(%rbp)
    a5d2:	00 00 00 
    a5d5:	eb 1a                	jmp    a5f1 <func_34+0x1a2>
    a5d7:	8b 85 8c f9 ff ff    	mov    -0x674(%rbp),%eax
    a5dd:	48 98                	cltq   
    a5df:	c7 84 85 d4 f9 ff ff 	movl   $0x50d2c2f0,-0x62c(%rbp,%rax,4)
    a5e6:	f0 c2 d2 50 
    a5ea:	83 85 8c f9 ff ff 01 	addl   $0x1,-0x674(%rbp)
    a5f1:	83 bd 8c f9 ff ff 02 	cmpl   $0x2,-0x674(%rbp)
    a5f8:	7e dd                	jle    a5d7 <func_34+0x188>
    a5fa:	48 8b 05 0f 9a 00 00 	mov    0x9a0f(%rip),%rax        # 14010 <g_992>
    a601:	48 8d 15 c0 6d 00 00 	lea    0x6dc0(%rip),%rdx        # 113c8 <g_313>
    a608:	48 89 10             	mov    %rdx,(%rax)
    a60b:	48 83 85 c8 f9 ff ff 	addq   $0x1,-0x638(%rbp)
    a612:	01 
    a613:	eb 4d                	jmp    a662 <func_34+0x213>
    a615:	c6 05 ec 9f 00 00 f2 	movb   $0xf2,0x9fec(%rip)        # 14608 <g_12>
    a61c:	eb 39                	jmp    a657 <func_34+0x208>
    a61e:	48 8b 85 98 f9 ff ff 	mov    -0x668(%rbp),%rax
    a625:	48 8b 95 68 f9 ff ff 	mov    -0x698(%rbp),%rdx
    a62c:	48 89 10             	mov    %rdx,(%rax)
    a62f:	48 8b 15 e2 99 00 00 	mov    0x99e2(%rip),%rdx        # 14018 <g_1002>
    a636:	48 8b 00             	mov    (%rax),%rax
    a639:	48 89 02             	mov    %rax,(%rdx)
    a63c:	48 8b 05 9d 8c 00 00 	mov    0x8c9d(%rip),%rax        # 132e0 <g_329>
    a643:	8b 00                	mov    (%rax),%eax
    a645:	85 c0                	test   %eax,%eax
    a647:	0f b6 05 ba 9f 00 00 	movzbl 0x9fba(%rip),%eax        # 14608 <g_12>
    a64e:	83 c0 01             	add    $0x1,%eax
    a651:	88 05 b1 9f 00 00    	mov    %al,0x9fb1(%rip)        # 14608 <g_12>
    a657:	0f b6 05 aa 9f 00 00 	movzbl 0x9faa(%rip),%eax        # 14608 <g_12>
    a65e:	3c 16                	cmp    $0x16,%al
    a660:	7e bc                	jle    a61e <func_34+0x1cf>
    a662:	48 8b 85 60 fe ff ff 	mov    -0x1a0(%rbp),%rax
    a669:	48 83 c0 01          	add    $0x1,%rax
    a66d:	48 89 85 60 fe ff ff 	mov    %rax,-0x1a0(%rbp)
    a674:	48 8b 95 98 f9 ff ff 	mov    -0x668(%rbp),%rdx
    a67b:	48 8b 05 c6 8b 00 00 	mov    0x8bc6(%rip),%rax        # 13248 <g_182>
    a682:	48 8b 12             	mov    (%rdx),%rdx
    a685:	48 89 10             	mov    %rdx,(%rax)
    a688:	48 8b 05 c1 8b 00 00 	mov    0x8bc1(%rip),%rax        # 13250 <g_277>
    a68f:	0f b7 00             	movzwl (%rax),%eax
    a692:	48 8b 5d e8          	mov    -0x18(%rbp),%rbx
    a696:	64 48 33 1c 25 28 00 	xor    %fs:0x28,%rbx
    a69d:	00 00 
    a69f:	74 05                	je     a6a6 <func_34+0x257>
    a6a1:	e8 ca c9 ff ff       	callq  7070 <__stack_chk_fail@plt>
    a6a6:	48 81 c4 90 06 00 00 	add    $0x690,%rsp
    a6ad:	5b                   	pop    %rbx
    a6ae:	41 5c                	pop    %r12
    a6b0:	5d                   	pop    %rbp
    a6b1:	c3                   	retq   

000000000000a6b2 <func_40>:
    a6b2:	f3 0f 1e fa          	endbr64 
    a6b6:	55                   	push   %rbp
    a6b7:	48 89 e5             	mov    %rsp,%rbp
    a6ba:	48 89 7d e8          	mov    %rdi,-0x18(%rbp)
    a6be:	48 89 75 e0          	mov    %rsi,-0x20(%rbp)
    a6c2:	48 89 55 d8          	mov    %rdx,-0x28(%rbp)
    a6c6:	89 4d d4             	mov    %ecx,-0x2c(%rbp)
    a6c9:	48 8d 05 74 6a 00 00 	lea    0x6a74(%rip),%rax        # 11144 <g_146>
    a6d0:	48 89 45 f8          	mov    %rax,-0x8(%rbp)
    a6d4:	48 8b 45 f8          	mov    -0x8(%rbp),%rax
    a6d8:	8b 00                	mov    (%rax),%eax
    a6da:	5d                   	pop    %rbp
    a6db:	c3                   	retq   

000000000000a6dc <func_45>:
    a6dc:	f3 0f 1e fa          	endbr64 
    a6e0:	55                   	push   %rbp
    a6e1:	48 89 e5             	mov    %rsp,%rbp
    a6e4:	48 81 ec 70 0a 00 00 	sub    $0xa70,%rsp
    a6eb:	48 89 bd 98 f5 ff ff 	mov    %rdi,-0xa68(%rbp)
    a6f2:	64 48 8b 04 25 28 00 	mov    %fs:0x28,%rax
    a6f9:	00 00 
    a6fb:	48 89 45 f8          	mov    %rax,-0x8(%rbp)
    a6ff:	31 c0                	xor    %eax,%eax
    a701:	66 c7 85 ae f5 ff ff 	movw   $0x0,-0xa52(%rbp)
    a708:	00 00 
    a70a:	c7 85 cc f5 ff ff 10 	movl   $0xfe6b6110,-0xa34(%rbp)
    a711:	61 6b fe 
    a714:	48 8d 85 e0 f9 ff ff 	lea    -0x620(%rbp),%rax
    a71b:	48 8d 15 1e 33 00 00 	lea    0x331e(%rip),%rdx        # da40 <g_1560+0x9c0>
    a722:	b9 43 00 00 00       	mov    $0x43,%ecx
    a727:	48 89 c7             	mov    %rax,%rdi
    a72a:	48 89 d6             	mov    %rdx,%rsi
    a72d:	f3 48 a5             	rep movsq %ds:(%rsi),%es:(%rdi)
    a730:	48 89 f2             	mov    %rsi,%rdx
    a733:	48 89 f8             	mov    %rdi,%rax
    a736:	8b 0a                	mov    (%rdx),%ecx
    a738:	89 08                	mov    %ecx,(%rax)
    a73a:	48 8d 40 04          	lea    0x4(%rax),%rax
    a73e:	48 8d 52 04          	lea    0x4(%rdx),%rdx
    a742:	48 8d 05 a7 8a 00 00 	lea    0x8aa7(%rip),%rax        # 131f0 <g_154>
    a749:	48 89 85 08 f6 ff ff 	mov    %rax,-0x9f8(%rbp)
    a750:	48 c7 85 f8 f5 ff ff 	movq   $0x0,-0xa08(%rbp)
    a757:	00 00 00 00 
    a75b:	66 c7 85 f8 f5 ff ff 	movw   $0x673b,-0xa08(%rbp)
    a762:	3b 67 
    a764:	48 8d 05 e1 69 00 00 	lea    0x69e1(%rip),%rax        # 1114c <g_221>
    a76b:	48 89 85 80 f7 ff ff 	mov    %rax,-0x880(%rbp)
    a772:	48 c7 85 88 f7 ff ff 	movq   $0x0,-0x878(%rbp)
    a779:	00 00 00 00 
    a77d:	48 8d 05 c8 69 00 00 	lea    0x69c8(%rip),%rax        # 1114c <g_221>
    a784:	48 89 85 90 f7 ff ff 	mov    %rax,-0x870(%rbp)
    a78b:	48 8d 05 ba 69 00 00 	lea    0x69ba(%rip),%rax        # 1114c <g_221>
    a792:	48 89 85 98 f7 ff ff 	mov    %rax,-0x868(%rbp)
    a799:	48 8d 05 ac 69 00 00 	lea    0x69ac(%rip),%rax        # 1114c <g_221>
    a7a0:	48 89 85 a0 f7 ff ff 	mov    %rax,-0x860(%rbp)
    a7a7:	48 c7 85 a8 f7 ff ff 	movq   $0x0,-0x858(%rbp)
    a7ae:	00 00 00 00 
    a7b2:	48 8d 05 93 69 00 00 	lea    0x6993(%rip),%rax        # 1114c <g_221>
    a7b9:	48 89 85 b0 f7 ff ff 	mov    %rax,-0x850(%rbp)
    a7c0:	48 8d 05 55 69 00 00 	lea    0x6955(%rip),%rax        # 1111c <g_22>
    a7c7:	48 89 85 b8 f7 ff ff 	mov    %rax,-0x848(%rbp)
    a7ce:	48 8d 05 47 69 00 00 	lea    0x6947(%rip),%rax        # 1111c <g_22>
    a7d5:	48 89 85 c0 f7 ff ff 	mov    %rax,-0x840(%rbp)
    a7dc:	48 8d 05 69 69 00 00 	lea    0x6969(%rip),%rax        # 1114c <g_221>
    a7e3:	48 89 85 c8 f7 ff ff 	mov    %rax,-0x838(%rbp)
    a7ea:	48 c7 85 d0 f7 ff ff 	movq   $0x0,-0x830(%rbp)
    a7f1:	00 00 00 00 
    a7f5:	48 8d 05 50 69 00 00 	lea    0x6950(%rip),%rax        # 1114c <g_221>
    a7fc:	48 89 85 d8 f7 ff ff 	mov    %rax,-0x828(%rbp)
    a803:	48 8d 05 42 69 00 00 	lea    0x6942(%rip),%rax        # 1114c <g_221>
    a80a:	48 89 85 e0 f7 ff ff 	mov    %rax,-0x820(%rbp)
    a811:	48 8d 05 34 69 00 00 	lea    0x6934(%rip),%rax        # 1114c <g_221>
    a818:	48 89 85 e8 f7 ff ff 	mov    %rax,-0x818(%rbp)
    a81f:	48 c7 85 f0 f7 ff ff 	movq   $0x0,-0x810(%rbp)
    a826:	00 00 00 00 
    a82a:	48 8d 05 1b 69 00 00 	lea    0x691b(%rip),%rax        # 1114c <g_221>
    a831:	48 89 85 f8 f7 ff ff 	mov    %rax,-0x808(%rbp)
    a838:	48 8d 05 dd 68 00 00 	lea    0x68dd(%rip),%rax        # 1111c <g_22>
    a83f:	48 89 85 00 f8 ff ff 	mov    %rax,-0x800(%rbp)
    a846:	48 8d 05 cf 68 00 00 	lea    0x68cf(%rip),%rax        # 1111c <g_22>
    a84d:	48 89 85 08 f8 ff ff 	mov    %rax,-0x7f8(%rbp)
    a854:	48 8d 05 f1 68 00 00 	lea    0x68f1(%rip),%rax        # 1114c <g_221>
    a85b:	48 89 85 10 f8 ff ff 	mov    %rax,-0x7f0(%rbp)
    a862:	48 c7 85 18 f8 ff ff 	movq   $0x0,-0x7e8(%rbp)
    a869:	00 00 00 00 
    a86d:	48 b8 99 b1 3f d1 91 	movabs $0xac39b091d13fb199,%rax
    a874:	b0 39 ac 
    a877:	48 89 85 10 f6 ff ff 	mov    %rax,-0x9f0(%rbp)
    a87e:	48 c7 85 18 f6 ff ff 	movq   $0x0,-0x9e8(%rbp)
    a885:	00 00 00 00 
    a889:	66 c7 85 b0 f5 ff ff 	movw   $0xfffb,-0xa50(%rbp)
    a890:	fb ff 
    a892:	c7 85 d0 f5 ff ff e2 	movl   $0xdfd781e2,-0xa30(%rbp)
    a899:	81 d7 df 
    a89c:	48 b8 90 18 94 e3 3d 	movabs $0xdf06283de3941890,%rax
    a8a3:	28 06 df 
    a8a6:	48 89 85 20 f6 ff ff 	mov    %rax,-0x9e0(%rbp)
    a8ad:	48 8d 05 24 8a 00 00 	lea    0x8a24(%rip),%rax        # 132d8 <g_308>
    a8b4:	48 89 85 28 f6 ff ff 	mov    %rax,-0x9d8(%rbp)
    a8bb:	48 8d 05 56 68 00 00 	lea    0x6856(%rip),%rax        # 11118 <g_21>
    a8c2:	48 89 85 30 f6 ff ff 	mov    %rax,-0x9d0(%rbp)
    a8c9:	c7 85 b8 f5 ff ff 00 	movl   $0x0,-0xa48(%rbp)
    a8d0:	00 00 00 
    a8d3:	eb 1b                	jmp    a8f0 <func_45+0x214>
    a8d5:	8b 85 b8 f5 ff ff    	mov    -0xa48(%rbp),%eax
    a8db:	48 98                	cltq   
    a8dd:	48 c7 84 c5 f8 f6 ff 	movq   $0x0,-0x908(%rbp,%rax,8)
    a8e4:	ff 00 00 00 00 
    a8e9:	83 85 b8 f5 ff ff 01 	addl   $0x1,-0xa48(%rbp)
    a8f0:	83 bd b8 f5 ff ff 00 	cmpl   $0x0,-0xa48(%rbp)
    a8f7:	7e dc                	jle    a8d5 <func_45+0x1f9>
    a8f9:	c7 85 b8 f5 ff ff 00 	movl   $0x0,-0xa48(%rbp)
    a900:	00 00 00 
    a903:	eb 1b                	jmp    a920 <func_45+0x244>
    a905:	8b 85 b8 f5 ff ff    	mov    -0xa48(%rbp),%eax
    a90b:	48 98                	cltq   
    a90d:	48 c7 84 c5 00 f7 ff 	movq   $0x0,-0x900(%rbp,%rax,8)
    a914:	ff 00 00 00 00 
    a919:	83 85 b8 f5 ff ff 01 	addl   $0x1,-0xa48(%rbp)
    a920:	83 bd b8 f5 ff ff 02 	cmpl   $0x2,-0xa48(%rbp)
    a927:	7e dc                	jle    a905 <func_45+0x229>
    a929:	66 c7 05 de 6b 00 00 	movw   $0x4,0x6bde(%rip)        # 11510 <g_636>
    a930:	04 00 
    a932:	90                   	nop
    a933:	0f b7 05 d6 6b 00 00 	movzwl 0x6bd6(%rip),%eax        # 11510 <g_636>
    a93a:	66 85 c0             	test   %ax,%ax
    a93d:	78 22                	js     a961 <func_45+0x285>
    a93f:	0f b7 05 ca 6b 00 00 	movzwl 0x6bca(%rip),%eax        # 11510 <g_636>
    a946:	98                   	cwtl   
    a947:	48 98                	cltq   
    a949:	48 8d 14 c5 00 00 00 	lea    0x0(,%rax,8),%rdx
    a950:	00 
    a951:	48 8d 05 a8 89 00 00 	lea    0x89a8(%rip),%rax        # 13300 <g_350>
    a958:	48 8b 04 02          	mov    (%rdx,%rax,1),%rax
    a95c:	e9 9f 03 00 00       	jmpq   ad00 <func_45+0x624>
    a961:	c7 05 bd 67 00 00 00 	movl   $0x0,0x67bd(%rip)        # 11128 <g_96>
    a968:	00 00 00 
    a96b:	e9 a4 02 00 00       	jmpq   ac14 <func_45+0x538>
    a970:	48 b8 32 3f c9 f4 aa 	movabs $0x83721aaf4c93f32,%rax
    a977:	21 37 08 
    a97a:	48 89 85 48 f6 ff ff 	mov    %rax,-0x9b8(%rbp)
    a981:	c7 85 b4 f5 ff ff af 	movl   $0xf4fe62af,-0xa4c(%rbp)
    a988:	62 fe f4 
    a98b:	c7 85 e8 f5 ff ff ed 	movl   $0xbfd9bed,-0xa18(%rbp)
    a992:	9b fd 0b 
    a995:	48 8d 85 00 fc ff ff 	lea    -0x400(%rbp),%rax
    a99c:	48 8d 15 bd 32 00 00 	lea    0x32bd(%rip),%rdx        # dc60 <g_1560+0xbe0>
    a9a3:	b9 7e 00 00 00       	mov    $0x7e,%ecx
    a9a8:	48 89 c7             	mov    %rax,%rdi
    a9ab:	48 89 d6             	mov    %rdx,%rsi
    a9ae:	f3 48 a5             	rep movsq %ds:(%rsi),%es:(%rdi)
    a9b1:	48 c7 85 50 f6 ff ff 	movq   $0x0,-0x9b0(%rbp)
    a9b8:	00 00 00 00 
    a9bc:	c7 85 ec f5 ff ff 05 	movl   $0xb5950805,-0xa14(%rbp)
    a9c3:	08 95 b5 
    a9c6:	c7 85 f0 f5 ff ff 23 	movl   $0x49297f23,-0xa10(%rbp)
    a9cd:	7f 29 49 
    a9d0:	c7 85 f4 f5 ff ff 00 	movl   $0x0,-0xa0c(%rbp)
    a9d7:	00 00 00 
    a9da:	48 8d 85 b4 f5 ff ff 	lea    -0xa4c(%rbp),%rax
    a9e1:	48 89 85 58 f6 ff ff 	mov    %rax,-0x9a8(%rbp)
    a9e8:	c6 85 ad f5 ff ff ff 	movb   $0xff,-0xa53(%rbp)
    a9ef:	48 8d 05 da 69 00 00 	lea    0x69da(%rip),%rax        # 113d0 <g_314>
    a9f6:	48 89 85 60 f6 ff ff 	mov    %rax,-0x9a0(%rbp)
    a9fd:	48 8d 05 cc 69 00 00 	lea    0x69cc(%rip),%rax        # 113d0 <g_314>
    aa04:	48 89 85 68 f6 ff ff 	mov    %rax,-0x998(%rbp)
    aa0b:	48 8d 05 be 69 00 00 	lea    0x69be(%rip),%rax        # 113d0 <g_314>
    aa12:	48 89 85 70 f6 ff ff 	mov    %rax,-0x990(%rbp)
    aa19:	48 8d 05 e0 6a 00 00 	lea    0x6ae0(%rip),%rax        # 11500 <g_538>
    aa20:	48 89 85 78 f6 ff ff 	mov    %rax,-0x988(%rbp)
    aa27:	48 8d 05 a2 69 00 00 	lea    0x69a2(%rip),%rax        # 113d0 <g_314>
    aa2e:	48 89 85 80 f6 ff ff 	mov    %rax,-0x980(%rbp)
    aa35:	48 8d 05 c4 6a 00 00 	lea    0x6ac4(%rip),%rax        # 11500 <g_538>
    aa3c:	48 89 85 88 f6 ff ff 	mov    %rax,-0x978(%rbp)
    aa43:	48 8d 05 b6 6a 00 00 	lea    0x6ab6(%rip),%rax        # 11500 <g_538>
    aa4a:	48 89 85 90 f6 ff ff 	mov    %rax,-0x970(%rbp)
    aa51:	48 8d 05 a8 6a 00 00 	lea    0x6aa8(%rip),%rax        # 11500 <g_538>
    aa58:	48 89 85 98 f6 ff ff 	mov    %rax,-0x968(%rbp)
    aa5f:	48 c7 85 a0 f6 ff ff 	movq   $0x0,-0x960(%rbp)
    aa66:	00 00 00 00 
    aa6a:	48 8d 05 8f 6a 00 00 	lea    0x6a8f(%rip),%rax        # 11500 <g_538>
    aa71:	48 89 85 a8 f6 ff ff 	mov    %rax,-0x958(%rbp)
    aa78:	48 8d 05 81 6a 00 00 	lea    0x6a81(%rip),%rax        # 11500 <g_538>
    aa7f:	48 89 85 b0 f6 ff ff 	mov    %rax,-0x950(%rbp)
    aa86:	48 8d 05 43 69 00 00 	lea    0x6943(%rip),%rax        # 113d0 <g_314>
    aa8d:	48 89 85 b8 f6 ff ff 	mov    %rax,-0x948(%rbp)
    aa94:	48 8d 05 35 69 00 00 	lea    0x6935(%rip),%rax        # 113d0 <g_314>
    aa9b:	48 89 85 c0 f6 ff ff 	mov    %rax,-0x940(%rbp)
    aaa2:	48 c7 85 c8 f6 ff ff 	movq   $0x0,-0x938(%rbp)
    aaa9:	00 00 00 00 
    aaad:	48 8d 05 4c 6a 00 00 	lea    0x6a4c(%rip),%rax        # 11500 <g_538>
    aab4:	48 89 85 d0 f6 ff ff 	mov    %rax,-0x930(%rbp)
    aabb:	48 8d 05 3e 6a 00 00 	lea    0x6a3e(%rip),%rax        # 11500 <g_538>
    aac2:	48 89 85 d8 f6 ff ff 	mov    %rax,-0x928(%rbp)
    aac9:	48 8d 85 f8 f5 ff ff 	lea    -0xa08(%rbp),%rax
    aad0:	48 89 85 e0 f6 ff ff 	mov    %rax,-0x920(%rbp)
    aad7:	48 8d 05 f2 68 00 00 	lea    0x68f2(%rip),%rax        # 113d0 <g_314>
    aade:	48 89 85 00 f6 ff ff 	mov    %rax,-0xa00(%rbp)
    aae5:	48 8d 05 3c 87 00 00 	lea    0x873c(%rip),%rax        # 13228 <g_153+0x28>
    aaec:	48 89 85 e8 f6 ff ff 	mov    %rax,-0x918(%rbp)
    aaf3:	c7 85 bc f5 ff ff 00 	movl   $0x0,-0xa44(%rbp)
    aafa:	00 00 00 
    aafd:	eb 7c                	jmp    ab7b <func_45+0x49f>
    aaff:	c7 85 c0 f5 ff ff 00 	movl   $0x0,-0xa40(%rbp)
    ab06:	00 00 00 
    ab09:	eb 60                	jmp    ab6b <func_45+0x48f>
    ab0b:	c7 85 c4 f5 ff ff 00 	movl   $0x0,-0xa3c(%rbp)
    ab12:	00 00 00 
    ab15:	eb 44                	jmp    ab5b <func_45+0x47f>
    ab17:	8b 85 c4 f5 ff ff    	mov    -0xa3c(%rbp),%eax
    ab1d:	48 63 c8             	movslq %eax,%rcx
    ab20:	8b 85 bc f5 ff ff    	mov    -0xa44(%rbp),%eax
    ab26:	48 63 d0             	movslq %eax,%rdx
    ab29:	8b 85 c0 f5 ff ff    	mov    -0xa40(%rbp),%eax
    ab2f:	48 63 f0             	movslq %eax,%rsi
    ab32:	48 89 d0             	mov    %rdx,%rax
    ab35:	48 01 c0             	add    %rax,%rax
    ab38:	48 01 d0             	add    %rdx,%rax
    ab3b:	48 01 f0             	add    %rsi,%rax
    ab3e:	48 01 c0             	add    %rax,%rax
    ab41:	48 8d 14 08          	lea    (%rax,%rcx,1),%rdx
    ab45:	48 8d 85 00 f6 ff ff 	lea    -0xa00(%rbp),%rax
    ab4c:	48 89 84 d5 20 f7 ff 	mov    %rax,-0x8e0(%rbp,%rdx,8)
    ab53:	ff 
    ab54:	83 85 c4 f5 ff ff 01 	addl   $0x1,-0xa3c(%rbp)
    ab5b:	83 bd c4 f5 ff ff 01 	cmpl   $0x1,-0xa3c(%rbp)
    ab62:	7e b3                	jle    ab17 <func_45+0x43b>
    ab64:	83 85 c0 f5 ff ff 01 	addl   $0x1,-0xa40(%rbp)
    ab6b:	83 bd c0 f5 ff ff 02 	cmpl   $0x2,-0xa40(%rbp)
    ab72:	7e 97                	jle    ab0b <func_45+0x42f>
    ab74:	83 85 bc f5 ff ff 01 	addl   $0x1,-0xa44(%rbp)
    ab7b:	83 bd bc f5 ff ff 01 	cmpl   $0x1,-0xa44(%rbp)
    ab82:	0f 8e 77 ff ff ff    	jle    aaff <func_45+0x423>
    ab88:	c6 05 41 68 00 00 05 	movb   $0x5,0x6841(%rip)        # 113d0 <g_314>
    ab8f:	eb 69                	jmp    abfa <func_45+0x51e>
    ab91:	48 8d 05 ec 65 00 00 	lea    0x65ec(%rip),%rax        # 11184 <g_246+0x24>
    ab98:	48 89 85 f0 f6 ff ff 	mov    %rax,-0x910(%rbp)
    ab9f:	48 8d 85 20 f8 ff ff 	lea    -0x7e0(%rbp),%rax
    aba6:	48 8d 15 b3 77 00 00 	lea    0x77b3(%rip),%rdx        # 12360 <g_1803+0xcd8>
    abad:	b9 38 00 00 00       	mov    $0x38,%ecx
    abb2:	48 89 c7             	mov    %rax,%rdi
    abb5:	48 89 d6             	mov    %rdx,%rsi
    abb8:	f3 48 a5             	rep movsq %ds:(%rsi),%es:(%rdi)
    abbb:	8b 85 5c fd ff ff    	mov    -0x2a4(%rbp),%eax
    abc1:	83 e8 01             	sub    $0x1,%eax
    abc4:	89 85 5c fd ff ff    	mov    %eax,-0x2a4(%rbp)
    abca:	0f b6 05 ff 67 00 00 	movzbl 0x67ff(%rip),%eax        # 113d0 <g_314>
    abd1:	0f be c0             	movsbl %al,%eax
    abd4:	48 98                	cltq   
    abd6:	48 8d 14 85 00 00 00 	lea    0x0(,%rax,4),%rdx
    abdd:	00 
    abde:	48 8d 05 cb 67 00 00 	lea    0x67cb(%rip),%rax        # 113b0 <g_298>
    abe5:	8b 04 02             	mov    (%rdx,%rax,1),%eax
    abe8:	85 c0                	test   %eax,%eax
    abea:	0f b6 05 df 67 00 00 	movzbl 0x67df(%rip),%eax        # 113d0 <g_314>
    abf1:	83 e8 01             	sub    $0x1,%eax
    abf4:	88 05 d6 67 00 00    	mov    %al,0x67d6(%rip)        # 113d0 <g_314>
    abfa:	0f b6 05 cf 67 00 00 	movzbl 0x67cf(%rip),%eax        # 113d0 <g_314>
    ac01:	84 c0                	test   %al,%al
    ac03:	79 8c                	jns    ab91 <func_45+0x4b5>
    ac05:	8b 05 1d 65 00 00    	mov    0x651d(%rip),%eax        # 11128 <g_96>
    ac0b:	83 c0 01             	add    $0x1,%eax
    ac0e:	89 05 14 65 00 00    	mov    %eax,0x6514(%rip)        # 11128 <g_96>
    ac14:	8b 05 0e 65 00 00    	mov    0x650e(%rip),%eax        # 11128 <g_96>
    ac1a:	83 f8 06             	cmp    $0x6,%eax
    ac1d:	0f 8e 4d fd ff ff    	jle    a970 <func_45+0x294>
    ac23:	66 c7 05 20 65 00 00 	movw   $0x2,0x6520(%rip)        # 1114c <g_221>
    ac2a:	02 00 
    ac2c:	e9 a6 00 00 00       	jmpq   acd7 <func_45+0x5fb>
    ac31:	c7 85 d4 f5 ff ff d7 	movl   $0xbe40ecd7,-0xa2c(%rbp)
    ac38:	ec 40 be 
    ac3b:	c7 85 d8 f5 ff ff 05 	movl   $0x5,-0xa28(%rbp)
    ac42:	00 00 00 
    ac45:	c7 85 dc f5 ff ff f7 	movl   $0xfffffff7,-0xa24(%rbp)
    ac4c:	ff ff ff 
    ac4f:	c7 85 e0 f5 ff ff fc 	movl   $0xfffffffc,-0xa20(%rbp)
    ac56:	ff ff ff 
    ac59:	c7 85 e4 f5 ff ff 00 	movl   $0x0,-0xa1c(%rbp)
    ac60:	00 00 00 
    ac63:	48 8d 85 ae f5 ff ff 	lea    -0xa52(%rbp),%rax
    ac6a:	48 89 85 38 f6 ff ff 	mov    %rax,-0x9c8(%rbp)
    ac71:	48 8d 05 98 68 00 00 	lea    0x6898(%rip),%rax        # 11510 <g_636>
    ac78:	48 89 85 40 f6 ff ff 	mov    %rax,-0x9c0(%rbp)
    ac7f:	66 c7 85 b2 f5 ff ff 	movw   $0x1,-0xa4e(%rbp)
    ac86:	01 00 
    ac88:	c7 85 c8 f5 ff ff 00 	movl   $0x0,-0xa38(%rbp)
    ac8f:	00 00 00 
    ac92:	eb 1a                	jmp    acae <func_45+0x5d2>
    ac94:	8b 85 c8 f5 ff ff    	mov    -0xa38(%rbp),%eax
    ac9a:	48 98                	cltq   
    ac9c:	c7 84 85 00 fc ff ff 	movl   $0x9,-0x400(%rbp,%rax,4)
    aca3:	09 00 00 00 
    aca7:	83 85 c8 f5 ff ff 01 	addl   $0x1,-0xa38(%rbp)
    acae:	83 bd c8 f5 ff ff 07 	cmpl   $0x7,-0xa38(%rbp)
    acb5:	7e dd                	jle    ac94 <func_45+0x5b8>
    acb7:	0f b7 05 8e 64 00 00 	movzwl 0x648e(%rip),%eax        # 1114c <g_221>
    acbe:	0f b6 c0             	movzbl %al,%eax
    acc1:	be 09 00 00 00       	mov    $0x9,%esi
    acc6:	89 c7                	mov    %eax,%edi
    acc8:	e8 8d ce ff ff       	callq  7b5a <safe_add_func_uint8_t_u_u>
    accd:	0f b6 c0             	movzbl %al,%eax
    acd0:	66 89 05 75 64 00 00 	mov    %ax,0x6475(%rip)        # 1114c <g_221>
    acd7:	0f b7 05 6e 64 00 00 	movzwl 0x646e(%rip),%eax        # 1114c <g_221>
    acde:	66 83 f8 0a          	cmp    $0xa,%ax
    ace2:	0f 85 49 ff ff ff    	jne    ac31 <func_45+0x555>
    ace8:	48 8b 05 61 8a 00 00 	mov    0x8a61(%rip),%rax        # 13750 <g_615>
    acef:	48 8b 00             	mov    (%rax),%rax
    acf2:	48 89 85 98 f5 ff ff 	mov    %rax,-0xa68(%rbp)
    acf9:	48 8b 85 30 f6 ff ff 	mov    -0x9d0(%rbp),%rax
    ad00:	48 8b 7d f8          	mov    -0x8(%rbp),%rdi
    ad04:	64 48 33 3c 25 28 00 	xor    %fs:0x28,%rdi
    ad0b:	00 00 
    ad0d:	74 05                	je     ad14 <func_45+0x638>
    ad0f:	e8 5c c3 ff ff       	callq  7070 <__stack_chk_fail@plt>
    ad14:	c9                   	leaveq 
    ad15:	c3                   	retq   

000000000000ad16 <func_47>:
    ad16:	f3 0f 1e fa          	endbr64 
    ad1a:	55                   	push   %rbp
    ad1b:	48 89 e5             	mov    %rsp,%rbp
    ad1e:	41 57                	push   %r15
    ad20:	41 56                	push   %r14
    ad22:	41 55                	push   %r13
    ad24:	41 54                	push   %r12
    ad26:	53                   	push   %rbx
    ad27:	48 81 ec 58 0e 00 00 	sub    $0xe58,%rsp
    ad2e:	48 89 bd 98 f1 ff ff 	mov    %rdi,-0xe68(%rbp)
    ad35:	89 f0                	mov    %esi,%eax
    ad37:	89 95 90 f1 ff ff    	mov    %edx,-0xe70(%rbp)
    ad3d:	48 89 8d 88 f1 ff ff 	mov    %rcx,-0xe78(%rbp)
    ad44:	4c 89 85 80 f1 ff ff 	mov    %r8,-0xe80(%rbp)
    ad4b:	66 89 85 94 f1 ff ff 	mov    %ax,-0xe6c(%rbp)
    ad52:	64 48 8b 04 25 28 00 	mov    %fs:0x28,%rax
    ad59:	00 00 
    ad5b:	48 89 45 c8          	mov    %rax,-0x38(%rbp)
    ad5f:	31 c0                	xor    %eax,%eax
    ad61:	c7 85 90 f2 ff ff f2 	movl   $0xaa2eedf2,-0xd70(%rbp)
    ad68:	ed 2e aa 
    ad6b:	c7 85 94 f2 ff ff f2 	movl   $0xaa2eedf2,-0xd6c(%rbp)
    ad72:	ed 2e aa 
    ad75:	c7 85 98 f2 ff ff 1e 	movl   $0x916dc91e,-0xd68(%rbp)
    ad7c:	c9 6d 91 
    ad7f:	c7 85 9c f2 ff ff 4a 	movl   $0x15aca64a,-0xd64(%rbp)
    ad86:	a6 ac 15 
    ad89:	c7 85 a0 f2 ff ff 33 	movl   $0x61b3e233,-0xd60(%rbp)
    ad90:	e2 b3 61 
    ad93:	c7 85 a4 f2 ff ff a6 	movl   $0xc1abdda6,-0xd5c(%rbp)
    ad9a:	dd ab c1 
    ad9d:	c7 85 a8 f2 ff ff 20 	movl   $0xabf6a420,-0xd58(%rbp)
    ada4:	a4 f6 ab 
    ada7:	c7 85 ac f2 ff ff 01 	movl   $0x1,-0xd54(%rbp)
    adae:	00 00 00 
    adb1:	c7 85 b0 f2 ff ff 00 	movl   $0x0,-0xd50(%rbp)
    adb8:	00 00 00 
    adbb:	c7 85 b4 f2 ff ff 73 	movl   $0xeb74473,-0xd4c(%rbp)
    adc2:	44 b7 0e 
    adc5:	c7 85 b8 f2 ff ff 07 	movl   $0x7,-0xd48(%rbp)
    adcc:	00 00 00 
    adcf:	c7 85 bc f2 ff ff 00 	movl   $0x0,-0xd44(%rbp)
    add6:	00 00 00 
    add9:	c7 85 c0 f2 ff ff f2 	movl   $0xaa2eedf2,-0xd40(%rbp)
    ade0:	ed 2e aa 
    ade3:	c7 85 c4 f2 ff ff f0 	movl   $0xf555a6f0,-0xd3c(%rbp)
    adea:	a6 55 f5 
    aded:	c7 85 c8 f2 ff ff 08 	movl   $0x8,-0xd38(%rbp)
    adf4:	00 00 00 
    adf7:	c7 85 cc f2 ff ff f0 	movl   $0xf555a6f0,-0xd34(%rbp)
    adfe:	a6 55 f5 
    ae01:	c7 85 d0 f2 ff ff 20 	movl   $0xabf6a420,-0xd30(%rbp)
    ae08:	a4 f6 ab 
    ae0b:	c7 85 d4 f2 ff ff ff 	movl   $0xffffffff,-0xd2c(%rbp)
    ae12:	ff ff ff 
    ae15:	c7 85 d8 f2 ff ff ff 	movl   $0xffffffff,-0xd28(%rbp)
    ae1c:	ff ff ff 
    ae1f:	c7 85 dc f2 ff ff 20 	movl   $0xabf6a420,-0xd24(%rbp)
    ae26:	a4 f6 ab 
    ae29:	c7 85 e0 f2 ff ff 73 	movl   $0xeb74473,-0xd20(%rbp)
    ae30:	44 b7 0e 
    ae33:	c7 85 e4 f2 ff ff f2 	movl   $0xaa2eedf2,-0xd1c(%rbp)
    ae3a:	ed 2e aa 
    ae3d:	c7 85 e8 f2 ff ff e3 	movl   $0x175c8fe3,-0xd18(%rbp)
    ae44:	8f 5c 17 
    ae47:	c7 85 ec f2 ff ff ff 	movl   $0xffffffff,-0xd14(%rbp)
    ae4e:	ff ff ff 
    ae51:	c7 85 f0 f2 ff ff c4 	movl   $0xe2ca52c4,-0xd10(%rbp)
    ae58:	52 ca e2 
    ae5b:	c7 85 f4 f2 ff ff f9 	movl   $0xfffffff9,-0xd0c(%rbp)
    ae62:	ff ff ff 
    ae65:	c7 85 f8 f2 ff ff c4 	movl   $0xe2ca52c4,-0xd08(%rbp)
    ae6c:	52 ca e2 
    ae6f:	c7 85 fc f2 ff ff d2 	movl   $0x449123d2,-0xd04(%rbp)
    ae76:	23 91 44 
    ae79:	c7 85 00 f3 ff ff f0 	movl   $0xf555a6f0,-0xd00(%rbp)
    ae80:	a6 55 f5 
    ae83:	c7 85 04 f3 ff ff 00 	movl   $0x0,-0xcfc(%rbp)
    ae8a:	00 00 00 
    ae8d:	c7 85 08 f3 ff ff 4a 	movl   $0x15aca64a,-0xcf8(%rbp)
    ae94:	a6 ac 15 
    ae97:	c7 85 0c f3 ff ff 01 	movl   $0x1,-0xcf4(%rbp)
    ae9e:	00 00 00 
    aea1:	c7 85 10 f3 ff ff 08 	movl   $0x8,-0xcf0(%rbp)
    aea8:	00 00 00 
    aeab:	c7 85 14 f3 ff ff 00 	movl   $0x0,-0xcec(%rbp)
    aeb2:	00 00 00 
    aeb5:	c7 85 18 f3 ff ff a6 	movl   $0xc1abdda6,-0xce8(%rbp)
    aebc:	dd ab c1 
    aebf:	c7 85 1c f3 ff ff f9 	movl   $0xfffffff9,-0xce4(%rbp)
    aec6:	ff ff ff 
    aec9:	c7 85 20 f3 ff ff 4a 	movl   $0x15aca64a,-0xce0(%rbp)
    aed0:	a6 ac 15 
    aed3:	c7 85 24 f3 ff ff a6 	movl   $0xc1abdda6,-0xcdc(%rbp)
    aeda:	dd ab c1 
    aedd:	c7 85 28 f3 ff ff 4a 	movl   $0x15aca64a,-0xcd8(%rbp)
    aee4:	a6 ac 15 
    aee7:	c7 85 2c f3 ff ff f9 	movl   $0xfffffff9,-0xcd4(%rbp)
    aeee:	ff ff ff 
    aef1:	48 8d 05 10 97 00 00 	lea    0x9710(%rip),%rax        # 14608 <g_12>
    aef8:	48 89 85 b0 f1 ff ff 	mov    %rax,-0xe50(%rbp)
    aeff:	c7 85 ac f1 ff ff 00 	movl   $0x0,-0xe54(%rbp)
    af06:	00 00 00 
    af09:	48 c7 85 10 f2 ff ff 	movq   $0x0,-0xdf0(%rbp)
    af10:	00 00 00 00 
    af14:	48 c7 85 18 f2 ff ff 	movq   $0x0,-0xde8(%rbp)
    af1b:	00 00 00 00 
    af1f:	48 c7 85 20 f2 ff ff 	movq   $0x0,-0xde0(%rbp)
    af26:	00 00 00 00 
    af2a:	66 c7 85 10 f2 ff ff 	movw   $0xffff,-0xdf0(%rbp)
    af31:	ff ff 
    af33:	66 c7 85 14 f2 ff ff 	movw   $0xffff,-0xdec(%rbp)
    af3a:	ff ff 
    af3c:	66 c7 85 18 f2 ff ff 	movw   $0xffff,-0xde8(%rbp)
    af43:	ff ff 
    af45:	66 c7 85 1c f2 ff ff 	movw   $0xffff,-0xde4(%rbp)
    af4c:	ff ff 
    af4e:	66 c7 85 20 f2 ff ff 	movw   $0xffff,-0xde0(%rbp)
    af55:	ff ff 
    af57:	66 c7 85 24 f2 ff ff 	movw   $0xffff,-0xddc(%rbp)
    af5e:	ff ff 
    af60:	48 c7 85 30 f2 ff ff 	movq   $0x0,-0xdd0(%rbp)
    af67:	00 00 00 00 
    af6b:	48 c7 85 38 f2 ff ff 	movq   $0x0,-0xdc8(%rbp)
    af72:	00 00 00 00 
    af76:	48 c7 85 40 f2 ff ff 	movq   $0x0,-0xdc0(%rbp)
    af7d:	00 00 00 00 
    af81:	48 c7 85 48 f2 ff ff 	movq   $0x0,-0xdb8(%rbp)
    af88:	00 00 00 00 
    af8c:	66 c7 85 30 f2 ff ff 	movw   $0xd652,-0xdd0(%rbp)
    af93:	52 d6 
    af95:	66 c7 85 38 f2 ff ff 	movw   $0xd652,-0xdc8(%rbp)
    af9c:	52 d6 
    af9e:	66 c7 85 40 f2 ff ff 	movw   $0xd652,-0xdc0(%rbp)
    afa5:	52 d6 
    afa7:	66 c7 85 48 f2 ff ff 	movw   $0xd652,-0xdb8(%rbp)
    afae:	52 d6 
    afb0:	48 8d 05 89 82 00 00 	lea    0x8289(%rip),%rax        # 13240 <g_183>
    afb7:	48 89 85 b8 f1 ff ff 	mov    %rax,-0xe48(%rbp)
    afbe:	c7 05 50 61 00 00 00 	movl   $0x0,0x6150(%rip)        # 11118 <g_21>
    afc5:	00 00 00 
    afc8:	e9 51 07 00 00       	jmpq   b71e <func_47+0xa08>
    afcd:	66 c7 85 a4 f1 ff ff 	movw   $0xffff,-0xe5c(%rbp)
    afd4:	ff ff 
    afd6:	48 8d 05 47 61 00 00 	lea    0x6147(%rip),%rax        # 11124 <g_79>
    afdd:	48 89 85 50 f2 ff ff 	mov    %rax,-0xdb0(%rbp)
    afe4:	48 8d 05 39 61 00 00 	lea    0x6139(%rip),%rax        # 11124 <g_79>
    afeb:	48 89 85 58 f2 ff ff 	mov    %rax,-0xda8(%rbp)
    aff2:	48 8d 05 2b 61 00 00 	lea    0x612b(%rip),%rax        # 11124 <g_79>
    aff9:	48 89 85 60 f2 ff ff 	mov    %rax,-0xda0(%rbp)
    b000:	48 8d 05 1d 61 00 00 	lea    0x611d(%rip),%rax        # 11124 <g_79>
    b007:	48 89 85 68 f2 ff ff 	mov    %rax,-0xd98(%rbp)
    b00e:	48 8d 05 0f 61 00 00 	lea    0x610f(%rip),%rax        # 11124 <g_79>
    b015:	48 89 85 70 f2 ff ff 	mov    %rax,-0xd90(%rbp)
    b01c:	48 8d 05 01 61 00 00 	lea    0x6101(%rip),%rax        # 11124 <g_79>
    b023:	48 89 85 78 f2 ff ff 	mov    %rax,-0xd88(%rbp)
    b02a:	48 8d 05 f3 60 00 00 	lea    0x60f3(%rip),%rax        # 11124 <g_79>
    b031:	48 89 85 80 f2 ff ff 	mov    %rax,-0xd80(%rbp)
    b038:	48 8d 05 e5 60 00 00 	lea    0x60e5(%rip),%rax        # 11124 <g_79>
    b03f:	48 89 85 88 f2 ff ff 	mov    %rax,-0xd78(%rbp)
    b046:	48 c7 85 c0 f1 ff ff 	movq   $0x0,-0xe40(%rbp)
    b04d:	00 00 00 00 
    b051:	48 8d 05 e8 60 00 00 	lea    0x60e8(%rip),%rax        # 11140 <g_130>
    b058:	48 89 85 c8 f1 ff ff 	mov    %rax,-0xe38(%rbp)
    b05f:	48 8d 85 30 f8 ff ff 	lea    -0x7d0(%rbp),%rax
    b066:	48 8d 15 b3 74 00 00 	lea    0x74b3(%rip),%rdx        # 12520 <g_1803+0xe98>
    b06d:	b9 f3 00 00 00       	mov    $0xf3,%ecx
    b072:	48 89 c7             	mov    %rax,%rdi
    b075:	48 89 d6             	mov    %rdx,%rsi
    b078:	f3 48 a5             	rep movsq %ds:(%rsi),%es:(%rdi)
    b07b:	48 8d 85 10 f2 ff ff 	lea    -0xdf0(%rbp),%rax
    b082:	48 83 c0 10          	add    $0x10,%rax
    b086:	48 89 85 d0 f1 ff ff 	mov    %rax,-0xe30(%rbp)
    b08d:	48 8d 05 88 60 00 00 	lea    0x6088(%rip),%rax        # 1111c <g_22>
    b094:	48 89 85 d8 f1 ff ff 	mov    %rax,-0xe28(%rbp)
    b09b:	48 8d 05 6e 64 00 00 	lea    0x646e(%rip),%rax        # 11510 <g_636>
    b0a2:	48 89 85 e0 f1 ff ff 	mov    %rax,-0xe20(%rbp)
    b0a9:	48 8d 05 20 63 00 00 	lea    0x6320(%rip),%rax        # 113d0 <g_314>
    b0b0:	48 89 85 e8 f1 ff ff 	mov    %rax,-0xe18(%rbp)
    b0b7:	48 8d 05 42 64 00 00 	lea    0x6442(%rip),%rax        # 11500 <g_538>
    b0be:	48 89 85 f0 f1 ff ff 	mov    %rax,-0xe10(%rbp)
    b0c5:	66 c7 85 a6 f1 ff ff 	movw   $0xffff,-0xe5a(%rbp)
    b0cc:	ff ff 
    b0ce:	c7 85 a8 f1 ff ff 00 	movl   $0x0,-0xe58(%rbp)
    b0d5:	00 00 00 
    b0d8:	eb 1e                	jmp    b0f8 <func_47+0x3e2>
    b0da:	8b 85 a8 f1 ff ff    	mov    -0xe58(%rbp),%eax
    b0e0:	48 98                	cltq   
    b0e2:	48 8d 15 17 64 00 00 	lea    0x6417(%rip),%rdx        # 11500 <g_538>
    b0e9:	48 89 94 c5 00 f2 ff 	mov    %rdx,-0xe00(%rbp,%rax,8)
    b0f0:	ff 
    b0f1:	83 85 a8 f1 ff ff 01 	addl   $0x1,-0xe58(%rbp)
    b0f8:	83 bd a8 f1 ff ff 01 	cmpl   $0x1,-0xe58(%rbp)
    b0ff:	7e d9                	jle    b0da <func_47+0x3c4>
    b101:	48 8b 85 98 f1 ff ff 	mov    -0xe68(%rbp),%rax
    b108:	44 0f b6 e0          	movzbl %al,%r12d
    b10c:	0f b7 9d 94 f1 ff ff 	movzwl -0xe6c(%rbp),%ebx
    b113:	44 0f b7 bd a4 f1 ff 	movzwl -0xe5c(%rbp),%r15d
    b11a:	ff 
    b11b:	44 8b ad ac f1 ff ff 	mov    -0xe54(%rbp),%r13d
    b122:	8b 85 ac f1 ff ff    	mov    -0xe54(%rbp),%eax
    b128:	4c 63 f0             	movslq %eax,%r14
    b12b:	48 8d 85 90 f2 ff ff 	lea    -0xd70(%rbp),%rax
    b132:	48 83 c0 44          	add    $0x44,%rax
    b136:	48 39 85 88 f1 ff ff 	cmp    %rax,-0xe78(%rbp)
    b13d:	0f 95 c0             	setne  %al
    b140:	0f b6 c0             	movzbl %al,%eax
    b143:	be 05 00 00 00       	mov    $0x5,%esi
    b148:	89 c7                	mov    %eax,%edi
    b14a:	e8 fd ca ff ff       	callq  7c4c <safe_lshift_func_uint8_t_u_u>
    b14f:	c7 85 b0 f2 ff ff 00 	movl   $0x0,-0xd50(%rbp)
    b156:	00 00 00 
    b159:	bf 00 00 00 00       	mov    $0x0,%edi
    b15e:	e8 e2 c9 ff ff       	callq  7b45 <safe_unary_minus_func_uint8_t_u>
    b163:	8b 85 24 f3 ff ff    	mov    -0xcdc(%rbp),%eax
    b169:	39 85 ac f1 ff ff    	cmp    %eax,-0xe54(%rbp)
    b16f:	0f 9e c0             	setle  %al
    b172:	0f b6 c0             	movzbl %al,%eax
    b175:	48 be 01 3b 08 32 fd 	movabs $0x7f0bbffd32083b01,%rsi
    b17c:	bf 0b 7f 
    b17f:	48 89 c7             	mov    %rax,%rdi
    b182:	e8 2d c8 ff ff       	callq  79b4 <safe_mod_func_int64_t_s_s>
    b187:	4c 89 f6             	mov    %r14,%rsi
    b18a:	48 89 c7             	mov    %rax,%rdi
    b18d:	e8 22 c8 ff ff       	callq  79b4 <safe_mod_func_int64_t_s_s>
    b192:	98                   	cwtl   
    b193:	44 89 ee             	mov    %r13d,%esi
    b196:	89 c7                	mov    %eax,%edi
    b198:	e8 44 c3 ff ff       	callq  74e1 <safe_lshift_func_int16_t_s_u>
    b19d:	0f bf d0             	movswl %ax,%edx
    b1a0:	0f b7 05 75 5f 00 00 	movzwl 0x5f75(%rip),%eax        # 1111c <g_22>
    b1a7:	0f b7 c8             	movzwl %ax,%ecx
    b1aa:	0f b7 05 ab 5e 00 00 	movzwl 0x5eab(%rip),%eax        # 1105c <g_19+0x1c>
    b1b1:	98                   	cwtl   
    b1b2:	39 c1                	cmp    %eax,%ecx
    b1b4:	0f 9c c0             	setl   %al
    b1b7:	0f b6 c0             	movzbl %al,%eax
    b1ba:	89 d6                	mov    %edx,%esi
    b1bc:	89 c7                	mov    %eax,%edi
    b1be:	e8 89 ca ff ff       	callq  7c4c <safe_lshift_func_uint8_t_u_u>
    b1c3:	0f b6 c0             	movzbl %al,%eax
    b1c6:	44 89 fa             	mov    %r15d,%edx
    b1c9:	09 c2                	or     %eax,%edx
    b1cb:	0f b7 85 a4 f1 ff ff 	movzwl -0xe5c(%rbp),%eax
    b1d2:	39 c2                	cmp    %eax,%edx
    b1d4:	0f 9c c0             	setl   %al
    b1d7:	0f b6 c0             	movzbl %al,%eax
    b1da:	89 85 90 f1 ff ff    	mov    %eax,-0xe70(%rbp)
    b1e0:	0f b6 05 21 94 00 00 	movzbl 0x9421(%rip),%eax        # 14608 <g_12>
    b1e7:	0f be c0             	movsbl %al,%eax
    b1ea:	44 89 e1             	mov    %r12d,%ecx
    b1ed:	48 8d 15 14 94 00 00 	lea    0x9414(%rip),%rdx        # 14608 <g_12>
    b1f4:	89 de                	mov    %ebx,%esi
    b1f6:	89 c7                	mov    %eax,%edi
    b1f8:	e8 34 08 00 00       	callq  ba31 <func_61>
    b1fd:	89 c1                	mov    %eax,%ecx
    b1ff:	48 8b 1d 52 85 00 00 	mov    0x8552(%rip),%rbx        # 13758 <g_616>
    b206:	48 8b 95 98 f1 ff ff 	mov    -0xe68(%rbp),%rdx
    b20d:	48 8b 85 b0 f1 ff ff 	mov    -0xe50(%rbp),%rax
    b214:	89 ce                	mov    %ecx,%esi
    b216:	48 89 c7             	mov    %rax,%rdi
    b219:	e8 50 05 00 00       	callq  b76e <func_56>
    b21e:	48 89 03             	mov    %rax,(%rbx)
    b221:	0f b7 85 a4 f1 ff ff 	movzwl -0xe5c(%rbp),%eax
    b228:	0f be d8             	movsbl %al,%ebx
    b22b:	48 8b 05 06 80 00 00 	mov    0x8006(%rip),%rax        # 13238 <g_152>
    b232:	48 8b 00             	mov    (%rax),%rax
    b235:	48 8b 00             	mov    (%rax),%rax
    b238:	48 8b 00             	mov    (%rax),%rax
    b23b:	c6 00 fc             	movb   $0xfc,(%rax)
    b23e:	8b 85 ac f1 ff ff    	mov    -0xe54(%rbp),%eax
    b244:	4c 63 e0             	movslq %eax,%r12
    b247:	0f b7 85 a4 f1 ff ff 	movzwl -0xe5c(%rbp),%eax
    b24e:	0f b6 d0             	movzbl %al,%edx
    b251:	48 8b 85 d0 f1 ff ff 	mov    -0xe30(%rbp),%rax
    b258:	8b 8d 20 f2 ff ff    	mov    -0xde0(%rbp),%ecx
    b25e:	89 08                	mov    %ecx,(%rax)
    b260:	48 8b 85 d8 f1 ff ff 	mov    -0xe28(%rbp),%rax
    b267:	48 8b 8d d0 f1 ff ff 	mov    -0xe30(%rbp),%rcx
    b26e:	8b 09                	mov    (%rcx),%ecx
    b270:	89 08                	mov    %ecx,(%rax)
    b272:	48 8b 85 e0 f1 ff ff 	mov    -0xe20(%rbp),%rax
    b279:	66 c7 00 01 00       	movw   $0x1,(%rax)
    b27e:	48 8b 85 e0 f1 ff ff 	mov    -0xe20(%rbp),%rax
    b285:	0f b7 00             	movzwl (%rax),%eax
    b288:	66 3d 8d 60          	cmp    $0x608d,%ax
    b28c:	0f 95 c1             	setne  %cl
    b28f:	48 8b 05 3a 7f 00 00 	mov    0x7f3a(%rip),%rax        # 131d0 <g_128>
    b296:	88 08                	mov    %cl,(%rax)
    b298:	0f b6 00             	movzbl (%rax),%eax
    b29b:	0f b6 c0             	movzbl %al,%eax
    b29e:	89 d6                	mov    %edx,%esi
    b2a0:	89 c7                	mov    %eax,%edi
    b2a2:	e8 d1 c8 ff ff       	callq  7b78 <safe_sub_func_uint8_t_u_u>
    b2a7:	be 01 00 00 00       	mov    $0x1,%esi
    b2ac:	bf 07 00 00 00       	mov    $0x7,%edi
    b2b1:	e8 8b c5 ff ff       	callq  7841 <safe_add_func_int64_t_s_s>
    b2b6:	0f b6 c0             	movzbl %al,%eax
    b2b9:	89 c6                	mov    %eax,%esi
    b2bb:	bf 01 00 00 00       	mov    $0x1,%edi
    b2c0:	e8 95 c8 ff ff       	callq  7b5a <safe_add_func_uint8_t_u_u>
    b2c5:	8b 95 b8 f2 ff ff    	mov    -0xd48(%rbp),%edx
    b2cb:	0f b6 c0             	movzbl %al,%eax
    b2ce:	21 d0                	and    %edx,%eax
    b2d0:	89 85 b8 f2 ff ff    	mov    %eax,-0xd48(%rbp)
    b2d6:	8b 85 b8 f2 ff ff    	mov    -0xd48(%rbp),%eax
    b2dc:	48 98                	cltq   
    b2de:	4c 89 e6             	mov    %r12,%rsi
    b2e1:	48 89 c7             	mov    %rax,%rdi
    b2e4:	e8 45 cd ff ff       	callq  802e <safe_add_func_uint64_t_u_u>
    b2e9:	89 c2                	mov    %eax,%edx
    b2eb:	48 8b 85 b0 f1 ff ff 	mov    -0xe50(%rbp),%rax
    b2f2:	88 10                	mov    %dl,(%rax)
    b2f4:	48 8b 85 b0 f1 ff ff 	mov    -0xe50(%rbp),%rax
    b2fb:	0f b6 00             	movzbl (%rax),%eax
    b2fe:	0f be c0             	movsbl %al,%eax
    b301:	89 de                	mov    %ebx,%esi
    b303:	89 c7                	mov    %eax,%edi
    b305:	e8 08 bf ff ff       	callq  7212 <safe_mul_func_int8_t_s_s>
    b30a:	0f be d0             	movsbl %al,%edx
    b30d:	48 c7 85 c8 f1 ff ff 	movq   $0x0,-0xe38(%rbp)
    b314:	00 00 00 00 
    b318:	48 8b 85 c8 f1 ff ff 	mov    -0xe38(%rbp),%rax
    b31f:	48 89 85 a8 fc ff ff 	mov    %rax,-0x358(%rbp)
    b326:	48 8b 85 a8 fc ff ff 	mov    -0x358(%rbp),%rax
    b32d:	48 8d 0d 0c 5e 00 00 	lea    0x5e0c(%rip),%rcx        # 11140 <g_130>
    b334:	48 39 c8             	cmp    %rcx,%rax
    b337:	0f 95 c0             	setne  %al
    b33a:	0f b6 c0             	movzbl %al,%eax
    b33d:	89 d6                	mov    %edx,%esi
    b33f:	89 c7                	mov    %eax,%edi
    b341:	e8 cc be ff ff       	callq  7212 <safe_mul_func_int8_t_s_s>
    b346:	48 8b 95 88 f1 ff ff 	mov    -0xe78(%rbp),%rdx
    b34d:	8b 12                	mov    (%rdx),%edx
    b34f:	0f be c0             	movsbl %al,%eax
    b352:	09 c2                	or     %eax,%edx
    b354:	48 8b 85 88 f1 ff ff 	mov    -0xe78(%rbp),%rax
    b35b:	89 10                	mov    %edx,(%rax)
    b35d:	be 06 00 00 00       	mov    $0x6,%esi
    b362:	bf 01 00 00 00       	mov    $0x1,%edi
    b367:	e8 26 c1 ff ff       	callq  7492 <safe_lshift_func_int16_t_s_s>
    b36c:	66 c1 e8 0f          	shr    $0xf,%ax
    b370:	44 0f b6 e0          	movzbl %al,%r12d
    b374:	0f bf 9d a6 f1 ff ff 	movswl -0xe5a(%rbp),%ebx
    b37b:	bf 01 00 00 00       	mov    $0x1,%edi
    b380:	e8 11 c2 ff ff       	callq  7596 <safe_unary_minus_func_int32_t_s>
    b385:	21 d8                	and    %ebx,%eax
    b387:	f7 d0                	not    %eax
    b389:	41 89 c5             	mov    %eax,%r13d
    b38c:	48 8b 05 cd 7e 00 00 	mov    0x7ecd(%rip),%rax        # 13260 <g_275>
    b393:	48 8b 00             	mov    (%rax),%rax
    b396:	48 8b 00             	mov    (%rax),%rax
    b399:	0f b7 00             	movzwl (%rax),%eax
    b39c:	0f bf d8             	movswl %ax,%ebx
    b39f:	48 8b 05 32 7f 00 00 	mov    0x7f32(%rip),%rax        # 132d8 <g_308>
    b3a6:	8b 10                	mov    (%rax),%edx
    b3a8:	0f b7 85 20 f2 ff ff 	movzwl -0xde0(%rbp),%eax
    b3af:	0f b7 c0             	movzwl %ax,%eax
    b3b2:	31 c2                	xor    %eax,%edx
    b3b4:	48 8b 05 1d 7e 00 00 	mov    0x7e1d(%rip),%rax        # 131d8 <g_127>
    b3bb:	48 8b 00             	mov    (%rax),%rax
    b3be:	0f b6 08             	movzbl (%rax),%ecx
    b3c1:	83 c1 01             	add    $0x1,%ecx
    b3c4:	88 08                	mov    %cl,(%rax)
    b3c6:	0f b6 00             	movzbl (%rax),%eax
    b3c9:	0f b6 c0             	movzbl %al,%eax
    b3cc:	89 d6                	mov    %edx,%esi
    b3ce:	89 c7                	mov    %eax,%edi
    b3d0:	e8 77 c8 ff ff       	callq  7c4c <safe_lshift_func_uint8_t_u_u>
    b3d5:	0f b6 c0             	movzbl %al,%eax
    b3d8:	89 de                	mov    %ebx,%esi
    b3da:	89 c7                	mov    %eax,%edi
    b3dc:	e8 67 ca ff ff       	callq  7e48 <safe_rshift_func_uint16_t_u_s>
    b3e1:	98                   	cwtl   
    b3e2:	be 01 00 00 00       	mov    $0x1,%esi
    b3e7:	89 c7                	mov    %eax,%edi
    b3e9:	e8 67 c0 ff ff       	callq  7455 <safe_div_func_int16_t_s_s>
    b3ee:	0f b7 d0             	movzwl %ax,%edx
    b3f1:	8b 05 e9 5d 00 00    	mov    0x5de9(%rip),%eax        # 111e0 <g_246+0x80>
    b3f7:	3d ff ff 00 00       	cmp    $0xffff,%eax
    b3fc:	0f 95 c0             	setne  %al
    b3ff:	0f b6 c0             	movzbl %al,%eax
    b402:	89 d6                	mov    %edx,%esi
    b404:	89 c7                	mov    %eax,%edi
    b406:	e8 14 c9 ff ff       	callq  7d1f <safe_sub_func_uint16_t_u_u>
    b40b:	48 8b 85 e0 f1 ff ff 	mov    -0xe20(%rbp),%rax
    b412:	0f b7 00             	movzwl (%rax),%eax
    b415:	44 89 ea             	mov    %r13d,%edx
    b418:	21 c2                	and    %eax,%edx
    b41a:	48 8b 85 e0 f1 ff ff 	mov    -0xe20(%rbp),%rax
    b421:	66 89 10             	mov    %dx,(%rax)
    b424:	48 8b 85 e0 f1 ff ff 	mov    -0xe20(%rbp),%rax
    b42b:	0f b7 00             	movzwl (%rax),%eax
    b42e:	98                   	cwtl   
    b42f:	48 8b 15 52 60 00 00 	mov    0x6052(%rip),%rdx        # 11488 <g_332+0xa8>
    b436:	48 c1 e2 04          	shl    $0x4,%rdx
    b43a:	48 c1 fa 24          	sar    $0x24,%rdx
    b43e:	39 d0                	cmp    %edx,%eax
    b440:	74 07                	je     b449 <func_47+0x733>
    b442:	ba 01 00 00 00       	mov    $0x1,%edx
    b447:	eb 05                	jmp    b44e <func_47+0x738>
    b449:	ba 00 00 00 00       	mov    $0x0,%edx
    b44e:	0f b7 05 a5 5c 00 00 	movzwl 0x5ca5(%rip),%eax        # 110fa <g_19+0xba>
    b455:	98                   	cwtl   
    b456:	21 d0                	and    %edx,%eax
    b458:	44 21 e0             	and    %r12d,%eax
    b45b:	85 c0                	test   %eax,%eax
    b45d:	0f 9f c0             	setg   %al
    b460:	0f b6 c8             	movzbl %al,%ecx
    b463:	48 8b 05 d6 7d 00 00 	mov    0x7dd6(%rip),%rax        # 13240 <g_183>
    b46a:	8b 10                	mov    (%rax),%edx
    b46c:	48 8b 05 cd 7d 00 00 	mov    0x7dcd(%rip),%rax        # 13240 <g_183>
    b473:	21 ca                	and    %ecx,%edx
    b475:	89 10                	mov    %edx,(%rax)
    b477:	66 c7 05 cc 5c 00 00 	movw   $0x0,0x5ccc(%rip)        # 1114c <g_221>
    b47e:	00 00 
    b480:	e9 79 02 00 00       	jmpq   b6fe <func_47+0x9e8>
    b485:	48 c7 85 f8 f1 ff ff 	movq   $0x0,-0xe08(%rbp)
    b48c:	00 00 00 00 
    b490:	c7 05 8e 5c 00 00 01 	movl   $0x1,0x5c8e(%rip)        # 11128 <g_96>
    b497:	00 00 00 
    b49a:	e9 3f 02 00 00       	jmpq   b6de <func_47+0x9c8>
    b49f:	66 c7 05 74 5c 00 00 	movw   $0x0,0x5c74(%rip)        # 1111c <g_22>
    b4a6:	00 00 
    b4a8:	e9 85 01 00 00       	jmpq   b632 <func_47+0x91c>
    b4ad:	48 8d 85 30 f3 ff ff 	lea    -0xcd0(%rbp),%rax
    b4b4:	48 8d 15 05 78 00 00 	lea    0x7805(%rip),%rdx        # 12cc0 <g_1803+0x1638>
    b4bb:	b9 a0 00 00 00       	mov    $0xa0,%ecx
    b4c0:	48 89 c7             	mov    %rax,%rdi
    b4c3:	48 89 d6             	mov    %rdx,%rsi
    b4c6:	f3 48 a5             	rep movsq %ds:(%rsi),%es:(%rdi)
    b4c9:	8b 05 59 5c 00 00    	mov    0x5c59(%rip),%eax        # 11128 <g_96>
    b4cf:	0f b7 15 76 5c 00 00 	movzwl 0x5c76(%rip),%edx        # 1114c <g_221>
    b4d6:	0f b7 d2             	movzwl %dx,%edx
    b4d9:	48 63 ca             	movslq %edx,%rcx
    b4dc:	48 63 d0             	movslq %eax,%rdx
    b4df:	48 89 d0             	mov    %rdx,%rax
    b4e2:	48 c1 e0 02          	shl    $0x2,%rax
    b4e6:	48 01 d0             	add    %rdx,%rax
    b4e9:	48 01 c8             	add    %rcx,%rax
    b4ec:	8b 84 85 90 f2 ff ff 	mov    -0xd70(%rbp,%rax,4),%eax
    b4f3:	85 c0                	test   %eax,%eax
    b4f5:	0f 85 4a 01 00 00    	jne    b645 <func_47+0x92f>
    b4fb:	48 8b 05 6e 82 00 00 	mov    0x826e(%rip),%rax        # 13770 <g_656>
    b502:	48 39 85 f8 f1 ff ff 	cmp    %rax,-0xe08(%rbp)
    b509:	0f 95 c1             	setne  %cl
    b50c:	8b 05 16 5c 00 00    	mov    0x5c16(%rip),%eax        # 11128 <g_96>
    b512:	8d 50 03             	lea    0x3(%rax),%edx
    b515:	0f b7 05 00 5c 00 00 	movzwl 0x5c00(%rip),%eax        # 1111c <g_22>
    b51c:	0f b7 c0             	movzwl %ax,%eax
    b51f:	0f b6 c9             	movzbl %cl,%ecx
    b522:	48 63 f0             	movslq %eax,%rsi
    b525:	48 63 d2             	movslq %edx,%rdx
    b528:	48 89 d0             	mov    %rdx,%rax
    b52b:	48 c1 e0 02          	shl    $0x2,%rax
    b52f:	48 01 d0             	add    %rdx,%rax
    b532:	48 01 f0             	add    %rsi,%rax
    b535:	89 8c 85 90 f2 ff ff 	mov    %ecx,-0xd70(%rbp,%rax,4)
    b53c:	8b 05 de 5f 00 00    	mov    0x5fde(%rip),%eax        # 11520 <g_668>
    b542:	88 05 88 5e 00 00    	mov    %al,0x5e88(%rip)        # 113d0 <g_314>
    b548:	0f b6 05 81 5e 00 00 	movzbl 0x5e81(%rip),%eax        # 113d0 <g_314>
    b54f:	0f be d0             	movsbl %al,%edx
    b552:	8b 85 90 f1 ff ff    	mov    -0xe70(%rbp),%eax
    b558:	39 c2                	cmp    %eax,%edx
    b55a:	0f 93 c0             	setae  %al
    b55d:	0f b6 d0             	movzbl %al,%edx
    b560:	48 8b 85 80 f1 ff ff 	mov    -0xe80(%rbp),%rax
    b567:	0f b6 00             	movzbl (%rax),%eax
    b56a:	0f be c0             	movsbl %al,%eax
    b56d:	39 c2                	cmp    %eax,%edx
    b56f:	0f 9d c0             	setge  %al
    b572:	0f b6 c0             	movzbl %al,%eax
    b575:	be 1e 15 00 00       	mov    $0x151e,%esi
    b57a:	89 c7                	mov    %eax,%edi
    b57c:	e8 74 be ff ff       	callq  73f5 <safe_mul_func_int16_t_s_s>
    b581:	48 8b 85 88 f1 ff ff 	mov    -0xe78(%rbp),%rax
    b588:	8b 00                	mov    (%rax),%eax
    b58a:	89 c2                	mov    %eax,%edx
    b58c:	48 8b 05 dd 81 00 00 	mov    0x81dd(%rip),%rax        # 13770 <g_656>
    b593:	48 8b 00             	mov    (%rax),%rax
    b596:	48 8b 00             	mov    (%rax),%rax
    b599:	8b 00                	mov    (%rax),%eax
    b59b:	39 c2                	cmp    %eax,%edx
    b59d:	0f 95 c0             	setne  %al
    b5a0:	0f b6 d0             	movzbl %al,%edx
    b5a3:	48 8b 05 a6 7c 00 00 	mov    0x7ca6(%rip),%rax        # 13250 <g_277>
    b5aa:	0f b7 00             	movzwl (%rax),%eax
    b5ad:	98                   	cwtl   
    b5ae:	89 d6                	mov    %edx,%esi
    b5b0:	89 c7                	mov    %eax,%edi
    b5b2:	e8 3e be ff ff       	callq  73f5 <safe_mul_func_int16_t_s_s>
    b5b7:	0f b7 c8             	movzwl %ax,%ecx
    b5ba:	0f b7 05 5b 5b 00 00 	movzwl 0x5b5b(%rip),%eax        # 1111c <g_22>
    b5c1:	0f b7 c0             	movzwl %ax,%eax
    b5c4:	0f b7 15 51 5b 00 00 	movzwl 0x5b51(%rip),%edx        # 1111c <g_22>
    b5cb:	0f b7 d2             	movzwl %dx,%edx
    b5ce:	48 63 f2             	movslq %edx,%rsi
    b5d1:	48 63 d0             	movslq %eax,%rdx
    b5d4:	48 89 d0             	mov    %rdx,%rax
    b5d7:	48 c1 e0 02          	shl    $0x2,%rax
    b5db:	48 01 d0             	add    %rdx,%rax
    b5de:	48 01 f0             	add    %rsi,%rax
    b5e1:	8b 84 85 90 f2 ff ff 	mov    -0xd70(%rbp,%rax,4),%eax
    b5e8:	85 c0                	test   %eax,%eax
    b5ea:	0f 9f c0             	setg   %al
    b5ed:	0f b6 c0             	movzbl %al,%eax
    b5f0:	89 ce                	mov    %ecx,%esi
    b5f2:	89 c7                	mov    %eax,%edi
    b5f4:	e8 44 c7 ff ff       	callq  7d3d <safe_mul_func_uint16_t_u_u>
    b5f9:	48 8b 15 40 7c 00 00 	mov    0x7c40(%rip),%rdx        # 13240 <g_183>
    b600:	8b 0a                	mov    (%rdx),%ecx
    b602:	0f b7 d0             	movzwl %ax,%edx
    b605:	48 8b 05 34 7c 00 00 	mov    0x7c34(%rip),%rax        # 13240 <g_183>
    b60c:	31 ca                	xor    %ecx,%edx
    b60e:	89 10                	mov    %edx,(%rax)
    b610:	48 8b 05 61 81 00 00 	mov    0x8161(%rip),%rax        # 13778 <g_670>
    b617:	48 8d 15 f2 7b 00 00 	lea    0x7bf2(%rip),%rdx        # 13210 <g_153+0x10>
    b61e:	48 89 10             	mov    %rdx,(%rax)
    b621:	0f b7 05 f4 5a 00 00 	movzwl 0x5af4(%rip),%eax        # 1111c <g_22>
    b628:	83 c0 01             	add    $0x1,%eax
    b62b:	66 89 05 ea 5a 00 00 	mov    %ax,0x5aea(%rip)        # 1111c <g_22>
    b632:	0f b7 05 e3 5a 00 00 	movzwl 0x5ae3(%rip),%eax        # 1111c <g_22>
    b639:	66 83 f8 04          	cmp    $0x4,%ax
    b63d:	0f 86 6a fe ff ff    	jbe    b4ad <func_47+0x797>
    b643:	eb 01                	jmp    b646 <func_47+0x930>
    b645:	90                   	nop
    b646:	66 83 bd a6 f1 ff ff 	cmpw   $0x0,-0xe5a(%rbp)
    b64d:	00 
    b64e:	75 7e                	jne    b6ce <func_47+0x9b8>
    b650:	66 c7 05 c3 5a 00 00 	movw   $0x0,0x5ac3(%rip)        # 1111c <g_22>
    b657:	00 00 
    b659:	eb 64                	jmp    b6bf <func_47+0x9a9>
    b65b:	c7 05 db 5a 00 00 00 	movl   $0x0,0x5adb(%rip)        # 11140 <g_130>
    b662:	00 00 00 
    b665:	eb 3c                	jmp    b6a3 <func_47+0x98d>
    b667:	0f b7 05 ae 5a 00 00 	movzwl 0x5aae(%rip),%eax        # 1111c <g_22>
    b66e:	0f b7 c0             	movzwl %ax,%eax
    b671:	8b 15 c9 5a 00 00    	mov    0x5ac9(%rip),%edx        # 11140 <g_130>
    b677:	89 d1                	mov    %edx,%ecx
    b679:	48 63 d0             	movslq %eax,%rdx
    b67c:	48 89 d0             	mov    %rdx,%rax
    b67f:	48 c1 e0 02          	shl    $0x2,%rax
    b683:	48 01 d0             	add    %rdx,%rax
    b686:	48 01 c8             	add    %rcx,%rax
    b689:	c7 84 85 90 f2 ff ff 	movl   $0x491a1ccc,-0xd70(%rbp,%rax,4)
    b690:	cc 1c 1a 49 
    b694:	8b 05 a6 5a 00 00    	mov    0x5aa6(%rip),%eax        # 11140 <g_130>
    b69a:	83 c0 01             	add    $0x1,%eax
    b69d:	89 05 9d 5a 00 00    	mov    %eax,0x5a9d(%rip)        # 11140 <g_130>
    b6a3:	8b 05 97 5a 00 00    	mov    0x5a97(%rip),%eax        # 11140 <g_130>
    b6a9:	83 f8 04             	cmp    $0x4,%eax
    b6ac:	76 b9                	jbe    b667 <func_47+0x951>
    b6ae:	0f b7 05 67 5a 00 00 	movzwl 0x5a67(%rip),%eax        # 1111c <g_22>
    b6b5:	83 c0 01             	add    $0x1,%eax
    b6b8:	66 89 05 5d 5a 00 00 	mov    %ax,0x5a5d(%rip)        # 1111c <g_22>
    b6bf:	0f b7 05 56 5a 00 00 	movzwl 0x5a56(%rip),%eax        # 1111c <g_22>
    b6c6:	66 83 f8 07          	cmp    $0x7,%ax
    b6ca:	76 8f                	jbe    b65b <func_47+0x945>
    b6cc:	eb 01                	jmp    b6cf <func_47+0x9b9>
    b6ce:	90                   	nop
    b6cf:	8b 05 53 5a 00 00    	mov    0x5a53(%rip),%eax        # 11128 <g_96>
    b6d5:	83 c0 01             	add    $0x1,%eax
    b6d8:	89 05 4a 5a 00 00    	mov    %eax,0x5a4a(%rip)        # 11128 <g_96>
    b6de:	8b 05 44 5a 00 00    	mov    0x5a44(%rip),%eax        # 11128 <g_96>
    b6e4:	83 f8 04             	cmp    $0x4,%eax
    b6e7:	0f 8e b2 fd ff ff    	jle    b49f <func_47+0x789>
    b6ed:	0f b7 05 58 5a 00 00 	movzwl 0x5a58(%rip),%eax        # 1114c <g_221>
    b6f4:	83 c0 01             	add    $0x1,%eax
    b6f7:	66 89 05 4e 5a 00 00 	mov    %ax,0x5a4e(%rip)        # 1114c <g_221>
    b6fe:	0f b7 05 47 5a 00 00 	movzwl 0x5a47(%rip),%eax        # 1114c <g_221>
    b705:	66 83 f8 04          	cmp    $0x4,%ax
    b709:	0f 86 76 fd ff ff    	jbe    b485 <func_47+0x76f>
    b70f:	8b 05 03 5a 00 00    	mov    0x5a03(%rip),%eax        # 11118 <g_21>
    b715:	83 c0 01             	add    $0x1,%eax
    b718:	89 05 fa 59 00 00    	mov    %eax,0x59fa(%rip)        # 11118 <g_21>
    b71e:	8b 05 f4 59 00 00    	mov    0x59f4(%rip),%eax        # 11118 <g_21>
    b724:	83 f8 04             	cmp    $0x4,%eax
    b727:	0f 86 a0 f8 ff ff    	jbe    afcd <func_47+0x2b7>
    b72d:	48 8b 85 b8 f1 ff ff 	mov    -0xe48(%rbp),%rax
    b734:	48 8b 95 88 f1 ff ff 	mov    -0xe78(%rbp),%rdx
    b73b:	48 89 10             	mov    %rdx,(%rax)
    b73e:	48 8b 85 b8 f1 ff ff 	mov    -0xe48(%rbp),%rax
    b745:	48 8b 00             	mov    (%rax),%rax
    b748:	48 8b 5d c8          	mov    -0x38(%rbp),%rbx
    b74c:	64 48 33 1c 25 28 00 	xor    %fs:0x28,%rbx
    b753:	00 00 
    b755:	74 05                	je     b75c <func_47+0xa46>
    b757:	e8 14 b9 ff ff       	callq  7070 <__stack_chk_fail@plt>
    b75c:	48 81 c4 58 0e 00 00 	add    $0xe58,%rsp
    b763:	5b                   	pop    %rbx
    b764:	41 5c                	pop    %r12
    b766:	41 5d                	pop    %r13
    b768:	41 5e                	pop    %r14
    b76a:	41 5f                	pop    %r15
    b76c:	5d                   	pop    %rbp
    b76d:	c3                   	retq   

000000000000b76e <func_56>:
    b76e:	f3 0f 1e fa          	endbr64 
    b772:	55                   	push   %rbp
    b773:	48 89 e5             	mov    %rsp,%rbp
    b776:	41 54                	push   %r12
    b778:	53                   	push   %rbx
    b779:	48 81 ec 00 02 00 00 	sub    $0x200,%rsp
    b780:	48 89 bd 08 fe ff ff 	mov    %rdi,-0x1f8(%rbp)
    b787:	89 b5 04 fe ff ff    	mov    %esi,-0x1fc(%rbp)
    b78d:	48 89 95 f8 fd ff ff 	mov    %rdx,-0x208(%rbp)
    b794:	64 48 8b 04 25 28 00 	mov    %fs:0x28,%rax
    b79b:	00 00 
    b79d:	48 89 45 e8          	mov    %rax,-0x18(%rbp)
    b7a1:	31 c0                	xor    %eax,%eax
    b7a3:	48 b8 82 21 11 e0 5b 	movabs $0x2e546c5be0112182,%rax
    b7aa:	6c 54 2e 
    b7ad:	48 89 85 58 fe ff ff 	mov    %rax,-0x1a8(%rbp)
    b7b4:	66 c7 85 1e fe ff ff 	movw   $0xdef1,-0x1e2(%rbp)
    b7bb:	f1 de 
    b7bd:	c7 85 20 fe ff ff 9a 	movl   $0x2be4639a,-0x1e0(%rbp)
    b7c4:	63 e4 2b 
    b7c7:	48 8d 05 62 59 00 00 	lea    0x5962(%rip),%rax        # 11130 <g_99>
    b7ce:	48 89 85 30 fe ff ff 	mov    %rax,-0x1d0(%rbp)
    b7d5:	48 8d 85 30 fe ff ff 	lea    -0x1d0(%rbp),%rax
    b7dc:	48 89 85 60 fe ff ff 	mov    %rax,-0x1a0(%rbp)
    b7e3:	c7 85 24 fe ff ff 9b 	movl   $0x4bd75d9b,-0x1dc(%rbp)
    b7ea:	5d d7 4b 
    b7ed:	c6 85 1c fe ff ff 00 	movb   $0x0,-0x1e4(%rbp)
    b7f4:	48 8d 05 35 59 00 00 	lea    0x5935(%rip),%rax        # 11130 <g_99>
    b7fb:	48 89 85 68 fe ff ff 	mov    %rax,-0x198(%rbp)
    b802:	c7 85 28 fe ff ff b7 	movl   $0x9f390bb7,-0x1d8(%rbp)
    b809:	0b 39 9f 
    b80c:	48 c7 85 38 fe ff ff 	movq   $0x0,-0x1c8(%rbp)
    b813:	00 00 00 00 
    b817:	48 8d 85 38 fe ff ff 	lea    -0x1c8(%rbp),%rax
    b81e:	48 89 85 40 fe ff ff 	mov    %rax,-0x1c0(%rbp)
    b825:	48 8d 85 40 fe ff ff 	lea    -0x1c0(%rbp),%rax
    b82c:	48 89 85 48 fe ff ff 	mov    %rax,-0x1b8(%rbp)
    b833:	48 8d 85 48 fe ff ff 	lea    -0x1b8(%rbp),%rax
    b83a:	48 89 85 70 fe ff ff 	mov    %rax,-0x190(%rbp)
    b841:	c7 85 2c fe ff ff fc 	movl   $0xfffffffc,-0x1d4(%rbp)
    b848:	ff ff ff 
    b84b:	c6 85 1d fe ff ff 3b 	movb   $0x3b,-0x1e3(%rbp)
    b852:	48 8d 05 c3 58 00 00 	lea    0x58c3(%rip),%rax        # 1111c <g_22>
    b859:	48 89 85 78 fe ff ff 	mov    %rax,-0x188(%rbp)
    b860:	48 8d 05 d9 58 00 00 	lea    0x58d9(%rip),%rax        # 11140 <g_130>
    b867:	48 89 85 80 fe ff ff 	mov    %rax,-0x180(%rbp)
    b86e:	48 c7 85 88 fe ff ff 	movq   $0x0,-0x178(%rbp)
    b875:	00 00 00 00 
    b879:	48 8d 85 20 fe ff ff 	lea    -0x1e0(%rbp),%rax
    b880:	48 89 85 90 fe ff ff 	mov    %rax,-0x170(%rbp)
    b887:	48 8d 85 e0 fe ff ff 	lea    -0x120(%rbp),%rax
    b88e:	48 8d 15 cb 27 00 00 	lea    0x27cb(%rip),%rdx        # e060 <g_1560+0xfe0>
    b895:	b9 1f 00 00 00       	mov    $0x1f,%ecx
    b89a:	48 89 c7             	mov    %rax,%rdi
    b89d:	48 89 d6             	mov    %rdx,%rsi
    b8a0:	f3 48 a5             	rep movsq %ds:(%rsi),%es:(%rdi)
    b8a3:	48 89 f2             	mov    %rsi,%rdx
    b8a6:	48 89 f8             	mov    %rdi,%rax
    b8a9:	8b 0a                	mov    (%rdx),%ecx
    b8ab:	89 08                	mov    %ecx,(%rax)
    b8ad:	48 8d 40 04          	lea    0x4(%rax),%rax
    b8b1:	48 8d 52 04          	lea    0x4(%rdx),%rdx
    b8b5:	48 8d 05 6c 79 00 00 	lea    0x796c(%rip),%rax        # 13228 <g_153+0x28>
    b8bc:	48 89 85 98 fe ff ff 	mov    %rax,-0x168(%rbp)
    b8c3:	48 c7 85 50 fe ff ff 	movq   $0x0,-0x1b0(%rbp)
    b8ca:	00 00 00 00 
    b8ce:	48 8d 85 50 fe ff ff 	lea    -0x1b0(%rbp),%rax
    b8d5:	48 89 85 b0 fe ff ff 	mov    %rax,-0x150(%rbp)
    b8dc:	48 8d 85 50 fe ff ff 	lea    -0x1b0(%rbp),%rax
    b8e3:	48 89 85 b8 fe ff ff 	mov    %rax,-0x148(%rbp)
    b8ea:	48 8d 85 50 fe ff ff 	lea    -0x1b0(%rbp),%rax
    b8f1:	48 89 85 c0 fe ff ff 	mov    %rax,-0x140(%rbp)
    b8f8:	48 8d 85 50 fe ff ff 	lea    -0x1b0(%rbp),%rax
    b8ff:	48 89 85 c8 fe ff ff 	mov    %rax,-0x138(%rbp)
    b906:	48 8d 85 50 fe ff ff 	lea    -0x1b0(%rbp),%rax
    b90d:	48 89 85 d0 fe ff ff 	mov    %rax,-0x130(%rbp)
    b914:	48 8d 85 50 fe ff ff 	lea    -0x1b0(%rbp),%rax
    b91b:	48 89 85 d8 fe ff ff 	mov    %rax,-0x128(%rbp)
    b922:	48 8d 05 8f 59 00 00 	lea    0x598f(%rip),%rax        # 112b8 <g_246+0x158>
    b929:	48 89 85 a0 fe ff ff 	mov    %rax,-0x160(%rbp)
    b930:	48 8d 05 01 79 00 00 	lea    0x7901(%rip),%rax        # 13238 <g_152>
    b937:	48 89 85 a8 fe ff ff 	mov    %rax,-0x158(%rbp)
    b93e:	b8 f9 ce dd d9       	mov    $0xd9ddcef9,%eax
    b943:	41 89 c4             	mov    %eax,%r12d
    b946:	48 83 bd 58 fe ff ff 	cmpq   $0x0,-0x1a8(%rbp)
    b94d:	00 
    b94e:	0f 85 85 00 00 00    	jne    b9d9 <func_56+0x26b>
    b954:	48 8b 85 08 fe ff ff 	mov    -0x1f8(%rbp),%rax
    b95b:	0f b6 00             	movzbl (%rax),%eax
    b95e:	0f b6 d8             	movzbl %al,%ebx
    b961:	b8 f9 ce dd d9       	mov    $0xd9ddcef9,%eax
    b966:	89 c2                	mov    %eax,%edx
    b968:	0f b7 85 1e fe ff ff 	movzwl -0x1e2(%rbp),%eax
    b96f:	83 e0 fb             	and    $0xfffffffb,%eax
    b972:	48 0f bf c0          	movswq %ax,%rax
    b976:	48 39 c2             	cmp    %rax,%rdx
    b979:	0f 9d c0             	setge  %al
    b97c:	0f b6 c0             	movzbl %al,%eax
    b97f:	be 01 00 00 00       	mov    $0x1,%esi
    b984:	89 c7                	mov    %eax,%edi
    b986:	e8 2d c5 ff ff       	callq  7eb8 <safe_add_func_uint32_t_u_u>
    b98b:	0f b7 85 04 fe ff ff 	movzwl -0x1fc(%rbp),%eax
    b992:	98                   	cwtl   
    b993:	be 00 00 00 00       	mov    $0x0,%esi
    b998:	89 c7                	mov    %eax,%edi
    b99a:	e8 42 bb ff ff       	callq  74e1 <safe_lshift_func_int16_t_s_u>
    b99f:	98                   	cwtl   
    b9a0:	89 85 20 fe ff ff    	mov    %eax,-0x1e0(%rbp)
    b9a6:	8b 85 20 fe ff ff    	mov    -0x1e0(%rbp),%eax
    b9ac:	0f b6 c0             	movzbl %al,%eax
    b9af:	89 de                	mov    %ebx,%esi
    b9b1:	89 c7                	mov    %eax,%edi
    b9b3:	e8 f6 c1 ff ff       	callq  7bae <safe_mod_func_uint8_t_u_u>
    b9b8:	0f b6 d0             	movzbl %al,%edx
    b9bb:	0f b7 85 04 fe ff ff 	movzwl -0x1fc(%rbp),%eax
    b9c2:	66 39 c2             	cmp    %ax,%dx
    b9c5:	0f 95 c0             	setne  %al
    b9c8:	0f b6 d0             	movzbl %al,%edx
    b9cb:	0f b7 05 26 57 00 00 	movzwl 0x5726(%rip),%eax        # 110f8 <g_19+0xb8>
    b9d2:	98                   	cwtl   
    b9d3:	21 d0                	and    %edx,%eax
    b9d5:	85 c0                	test   %eax,%eax
    b9d7:	74 07                	je     b9e0 <func_56+0x272>
    b9d9:	b8 01 00 00 00       	mov    $0x1,%eax
    b9de:	eb 05                	jmp    b9e5 <func_56+0x277>
    b9e0:	b8 00 00 00 00       	mov    $0x0,%eax
    b9e5:	89 c2                	mov    %eax,%edx
    b9e7:	b8 f9 ce dd d9       	mov    $0xd9ddcef9,%eax
    b9ec:	39 c2                	cmp    %eax,%edx
    b9ee:	0f 92 c0             	setb   %al
    b9f1:	0f b6 c0             	movzbl %al,%eax
    b9f4:	48 8b 1d cd 77 00 00 	mov    0x77cd(%rip),%rbx        # 131c8 <g_95>
    b9fb:	44 89 e6             	mov    %r12d,%esi
    b9fe:	89 c7                	mov    %eax,%edi
    ba00:	e8 00 bc ff ff       	callq  7605 <safe_sub_func_int32_t_s_s>
    ba05:	89 03                	mov    %eax,(%rbx)
    ba07:	48 8b 05 42 7d 00 00 	mov    0x7d42(%rip),%rax        # 13750 <g_615>
    ba0e:	48 8b 00             	mov    (%rax),%rax
    ba11:	48 8b 4d e8          	mov    -0x18(%rbp),%rcx
    ba15:	64 48 33 0c 25 28 00 	xor    %fs:0x28,%rcx
    ba1c:	00 00 
    ba1e:	74 05                	je     ba25 <func_56+0x2b7>
    ba20:	e8 4b b6 ff ff       	callq  7070 <__stack_chk_fail@plt>
    ba25:	48 81 c4 00 02 00 00 	add    $0x200,%rsp
    ba2c:	5b                   	pop    %rbx
    ba2d:	41 5c                	pop    %r12
    ba2f:	5d                   	pop    %rbp
    ba30:	c3                   	retq   

000000000000ba31 <func_61>:
    ba31:	f3 0f 1e fa          	endbr64 
    ba35:	55                   	push   %rbp
    ba36:	48 89 e5             	mov    %rsp,%rbp
    ba39:	89 7d ec             	mov    %edi,-0x14(%rbp)
    ba3c:	89 f0                	mov    %esi,%eax
    ba3e:	48 89 55 e0          	mov    %rdx,-0x20(%rbp)
    ba42:	89 ca                	mov    %ecx,%edx
    ba44:	66 89 45 e8          	mov    %ax,-0x18(%rbp)
    ba48:	89 d0                	mov    %edx,%eax
    ba4a:	88 45 dc             	mov    %al,-0x24(%rbp)
    ba4d:	48 8d 05 6c 77 00 00 	lea    0x776c(%rip),%rax        # 131c0 <g_81>
    ba54:	48 89 45 f8          	mov    %rax,-0x8(%rbp)
    ba58:	48 8b 15 61 77 00 00 	mov    0x7761(%rip),%rdx        # 131c0 <g_81>
    ba5f:	48 8b 45 f8          	mov    -0x8(%rbp),%rax
    ba63:	48 89 10             	mov    %rdx,(%rax)
    ba66:	8b 05 b0 56 00 00    	mov    0x56b0(%rip),%eax        # 1111c <g_22>
    ba6c:	5d                   	pop    %rbp
    ba6d:	c3                   	retq   

000000000000ba6e <main>:
    ba6e:	f3 0f 1e fa          	endbr64 
    ba72:	55                   	push   %rbp
    ba73:	48 89 e5             	mov    %rsp,%rbp
    ba76:	48 83 ec 20          	sub    $0x20,%rsp
    ba7a:	89 7d ec             	mov    %edi,-0x14(%rbp)
    ba7d:	48 89 75 e0          	mov    %rsi,-0x20(%rbp)
    ba81:	c7 45 fc 00 00 00 00 	movl   $0x0,-0x4(%rbp)
    ba88:	83 7d ec 02          	cmpl   $0x2,-0x14(%rbp)
    ba8c:	74 25                	je     bab3 <main+0x45>
    ba8e:	48 8b 45 e0          	mov    -0x20(%rbp),%rax
    ba92:	48 83 c0 08          	add    $0x8,%rax
    ba96:	48 8b 00             	mov    (%rax),%rax
    ba99:	48 8d 35 bc 26 00 00 	lea    0x26bc(%rip),%rsi        # e15c <g_1560+0x10dc>
    baa0:	48 89 c7             	mov    %rax,%rdi
    baa3:	e8 e8 b5 ff ff       	callq  7090 <strcmp@plt>
    baa8:	85 c0                	test   %eax,%eax
    baaa:	74 07                	je     bab3 <main+0x45>
    baac:	c7 45 fc 01 00 00 00 	movl   $0x1,-0x4(%rbp)
    bab3:	e8 d1 b6 ff ff       	callq  7189 <platform_main_begin>
    bab8:	e8 db ca ff ff       	callq  8598 <crc32_gentab>
    babd:	e8 f3 cc ff ff       	callq  87b5 <func_1>
    bac2:	b8 f9 ce dd d9       	mov    $0xd9ddcef9,%eax
    bac7:	89 c1                	mov    %eax,%ecx
    bac9:	8b 45 fc             	mov    -0x4(%rbp),%eax
    bacc:	89 c2                	mov    %eax,%edx
    bace:	48 8d 35 89 26 00 00 	lea    0x2689(%rip),%rsi        # e15e <g_1560+0x10de>
    bad5:	48 89 cf             	mov    %rcx,%rdi
    bad8:	e8 16 cc ff ff       	callq  86f3 <transparent_crc>
    badd:	0f b6 05 24 8b 00 00 	movzbl 0x8b24(%rip),%eax        # 14608 <g_12>
    bae4:	48 0f be c0          	movsbq %al,%rax
    bae8:	8b 55 fc             	mov    -0x4(%rbp),%edx
    baeb:	48 8d 35 70 26 00 00 	lea    0x2670(%rip),%rsi        # e162 <g_1560+0x10e2>
    baf2:	48 89 c7             	mov    %rax,%rdi
    baf5:	e8 f9 cb ff ff       	callq  86f3 <transparent_crc>
    bafa:	c7 45 f0 00 00 00 00 	movl   $0x0,-0x10(%rbp)
    bb01:	e9 ba 00 00 00       	jmpq   bbc0 <main+0x152>
    bb06:	c7 45 f4 00 00 00 00 	movl   $0x0,-0xc(%rbp)
    bb0d:	e9 a0 00 00 00       	jmpq   bbb2 <main+0x144>
    bb12:	c7 45 f8 00 00 00 00 	movl   $0x0,-0x8(%rbp)
    bb19:	e9 86 00 00 00       	jmpq   bba4 <main+0x136>
    bb1e:	8b 45 f8             	mov    -0x8(%rbp),%eax
    bb21:	48 63 f0             	movslq %eax,%rsi
    bb24:	8b 45 f0             	mov    -0x10(%rbp),%eax
    bb27:	48 63 d0             	movslq %eax,%rdx
    bb2a:	8b 45 f4             	mov    -0xc(%rbp),%eax
    bb2d:	48 63 c8             	movslq %eax,%rcx
    bb30:	48 89 d0             	mov    %rdx,%rax
    bb33:	48 01 c0             	add    %rax,%rax
    bb36:	48 01 d0             	add    %rdx,%rax
    bb39:	48 8d 14 c5 00 00 00 	lea    0x0(,%rax,8),%rdx
    bb40:	00 
    bb41:	48 01 d0             	add    %rdx,%rax
    bb44:	48 01 c0             	add    %rax,%rax
    bb47:	48 89 ca             	mov    %rcx,%rdx
    bb4a:	48 01 d2             	add    %rdx,%rdx
    bb4d:	48 01 ca             	add    %rcx,%rdx
    bb50:	48 01 d2             	add    %rdx,%rdx
    bb53:	48 01 d0             	add    %rdx,%rax
    bb56:	48 01 f0             	add    %rsi,%rax
    bb59:	48 8d 14 00          	lea    (%rax,%rax,1),%rdx
    bb5d:	48 8d 05 dc 54 00 00 	lea    0x54dc(%rip),%rax        # 11040 <g_19>
    bb64:	0f b7 04 02          	movzwl (%rdx,%rax,1),%eax
    bb68:	48 0f bf c0          	movswq %ax,%rax
    bb6c:	8b 55 fc             	mov    -0x4(%rbp),%edx
    bb6f:	48 8d 35 f1 25 00 00 	lea    0x25f1(%rip),%rsi        # e167 <g_1560+0x10e7>
    bb76:	48 89 c7             	mov    %rax,%rdi
    bb79:	e8 75 cb ff ff       	callq  86f3 <transparent_crc>
    bb7e:	83 7d fc 00          	cmpl   $0x0,-0x4(%rbp)
    bb82:	74 1c                	je     bba0 <main+0x132>
    bb84:	8b 4d f8             	mov    -0x8(%rbp),%ecx
    bb87:	8b 55 f4             	mov    -0xc(%rbp),%edx
    bb8a:	8b 45 f0             	mov    -0x10(%rbp),%eax
    bb8d:	89 c6                	mov    %eax,%esi
    bb8f:	48 8d 3d df 25 00 00 	lea    0x25df(%rip),%rdi        # e175 <g_1560+0x10f5>
    bb96:	b8 00 00 00 00       	mov    $0x0,%eax
    bb9b:	e8 e0 b4 ff ff       	callq  7080 <printf@plt>
    bba0:	83 45 f8 01          	addl   $0x1,-0x8(%rbp)
    bba4:	83 7d f8 05          	cmpl   $0x5,-0x8(%rbp)
    bba8:	0f 8e 70 ff ff ff    	jle    bb1e <main+0xb0>
    bbae:	83 45 f4 01          	addl   $0x1,-0xc(%rbp)
    bbb2:	83 7d f4 08          	cmpl   $0x8,-0xc(%rbp)
    bbb6:	0f 8e 56 ff ff ff    	jle    bb12 <main+0xa4>
    bbbc:	83 45 f0 01          	addl   $0x1,-0x10(%rbp)
    bbc0:	83 7d f0 01          	cmpl   $0x1,-0x10(%rbp)
    bbc4:	0f 8e 3c ff ff ff    	jle    bb06 <main+0x98>
    bbca:	8b 05 48 55 00 00    	mov    0x5548(%rip),%eax        # 11118 <g_21>
    bbd0:	89 c1                	mov    %eax,%ecx
    bbd2:	8b 45 fc             	mov    -0x4(%rbp),%eax
    bbd5:	89 c2                	mov    %eax,%edx
    bbd7:	48 8d 35 ad 25 00 00 	lea    0x25ad(%rip),%rsi        # e18b <g_1560+0x110b>
    bbde:	48 89 cf             	mov    %rcx,%rdi
    bbe1:	e8 0d cb ff ff       	callq  86f3 <transparent_crc>
    bbe6:	0f b7 05 2f 55 00 00 	movzwl 0x552f(%rip),%eax        # 1111c <g_22>
    bbed:	0f b7 c0             	movzwl %ax,%eax
    bbf0:	8b 55 fc             	mov    -0x4(%rbp),%edx
    bbf3:	48 8d 35 96 25 00 00 	lea    0x2596(%rip),%rsi        # e190 <g_1560+0x1110>
    bbfa:	48 89 c7             	mov    %rax,%rdi
    bbfd:	e8 f1 ca ff ff       	callq  86f3 <transparent_crc>
    bc02:	0f b7 05 13 55 00 00 	movzwl 0x5513(%rip),%eax        # 1111c <g_22>
    bc09:	0f b7 c0             	movzwl %ax,%eax
    bc0c:	8b 55 fc             	mov    -0x4(%rbp),%edx
    bc0f:	48 8d 35 82 25 00 00 	lea    0x2582(%rip),%rsi        # e198 <g_1560+0x1118>
    bc16:	48 89 c7             	mov    %rax,%rdi
    bc19:	e8 d5 ca ff ff       	callq  86f3 <transparent_crc>
    bc1e:	8b 05 fc 54 00 00    	mov    0x54fc(%rip),%eax        # 11120 <g_29>
    bc24:	48 98                	cltq   
    bc26:	8b 55 fc             	mov    -0x4(%rbp),%edx
    bc29:	48 8d 35 70 25 00 00 	lea    0x2570(%rip),%rsi        # e1a0 <g_1560+0x1120>
    bc30:	48 89 c7             	mov    %rax,%rdi
    bc33:	e8 bb ca ff ff       	callq  86f3 <transparent_crc>
    bc38:	0f b6 05 e5 54 00 00 	movzbl 0x54e5(%rip),%eax        # 11124 <g_79>
    bc3f:	0f b6 c0             	movzbl %al,%eax
    bc42:	8b 55 fc             	mov    -0x4(%rbp),%edx
    bc45:	48 8d 35 59 25 00 00 	lea    0x2559(%rip),%rsi        # e1a5 <g_1560+0x1125>
    bc4c:	48 89 c7             	mov    %rax,%rdi
    bc4f:	e8 9f ca ff ff       	callq  86f3 <transparent_crc>
    bc54:	8b 05 ce 54 00 00    	mov    0x54ce(%rip),%eax        # 11128 <g_96>
    bc5a:	48 98                	cltq   
    bc5c:	8b 55 fc             	mov    -0x4(%rbp),%edx
    bc5f:	48 8d 35 44 25 00 00 	lea    0x2544(%rip),%rsi        # e1aa <g_1560+0x112a>
    bc66:	48 89 c7             	mov    %rax,%rdi
    bc69:	e8 85 ca ff ff       	callq  86f3 <transparent_crc>
    bc6e:	0f b6 05 bb 54 00 00 	movzbl 0x54bb(%rip),%eax        # 11130 <g_99>
    bc75:	0f b6 c0             	movzbl %al,%eax
    bc78:	8b 55 fc             	mov    -0x4(%rbp),%edx
    bc7b:	48 8d 35 2d 25 00 00 	lea    0x252d(%rip),%rsi        # e1af <g_1560+0x112f>
    bc82:	48 89 c7             	mov    %rax,%rdi
    bc85:	e8 69 ca ff ff       	callq  86f3 <transparent_crc>
    bc8a:	0f b6 05 a7 54 00 00 	movzbl 0x54a7(%rip),%eax        # 11138 <g_100>
    bc91:	48 0f be c0          	movsbq %al,%rax
    bc95:	8b 55 fc             	mov    -0x4(%rbp),%edx
    bc98:	48 8d 35 18 25 00 00 	lea    0x2518(%rip),%rsi        # e1b7 <g_1560+0x1137>
    bc9f:	48 89 c7             	mov    %rax,%rdi
    bca2:	e8 4c ca ff ff       	callq  86f3 <transparent_crc>
    bca7:	8b 05 93 54 00 00    	mov    0x5493(%rip),%eax        # 11140 <g_130>
    bcad:	89 c1                	mov    %eax,%ecx
    bcaf:	8b 45 fc             	mov    -0x4(%rbp),%eax
    bcb2:	89 c2                	mov    %eax,%edx
    bcb4:	48 8d 35 05 25 00 00 	lea    0x2505(%rip),%rsi        # e1c0 <g_1560+0x1140>
    bcbb:	48 89 cf             	mov    %rcx,%rdi
    bcbe:	e8 30 ca ff ff       	callq  86f3 <transparent_crc>
    bcc3:	8b 05 7b 54 00 00    	mov    0x547b(%rip),%eax        # 11144 <g_146>
    bcc9:	48 98                	cltq   
    bccb:	8b 55 fc             	mov    -0x4(%rbp),%edx
    bcce:	48 8d 35 f1 24 00 00 	lea    0x24f1(%rip),%rsi        # e1c6 <g_1560+0x1146>
    bcd5:	48 89 c7             	mov    %rax,%rdi
    bcd8:	e8 16 ca ff ff       	callq  86f3 <transparent_crc>
    bcdd:	8b 05 65 54 00 00    	mov    0x5465(%rip),%eax        # 11148 <g_170>
    bce3:	89 c1                	mov    %eax,%ecx
    bce5:	8b 45 fc             	mov    -0x4(%rbp),%eax
    bce8:	89 c2                	mov    %eax,%edx
    bcea:	48 8d 35 db 24 00 00 	lea    0x24db(%rip),%rsi        # e1cc <g_1560+0x114c>
    bcf1:	48 89 cf             	mov    %rcx,%rdi
    bcf4:	e8 fa c9 ff ff       	callq  86f3 <transparent_crc>
    bcf9:	0f b7 05 4c 54 00 00 	movzwl 0x544c(%rip),%eax        # 1114c <g_221>
    bd00:	0f b7 c0             	movzwl %ax,%eax
    bd03:	8b 55 fc             	mov    -0x4(%rbp),%edx
    bd06:	48 8d 35 c5 24 00 00 	lea    0x24c5(%rip),%rsi        # e1d2 <g_1560+0x1152>
    bd0d:	48 89 c7             	mov    %rax,%rdi
    bd10:	e8 de c9 ff ff       	callq  86f3 <transparent_crc>
    bd15:	0f b7 05 30 54 00 00 	movzwl 0x5430(%rip),%eax        # 1114c <g_221>
    bd1c:	0f b7 c0             	movzwl %ax,%eax
    bd1f:	8b 55 fc             	mov    -0x4(%rbp),%edx
    bd22:	48 8d 35 b2 24 00 00 	lea    0x24b2(%rip),%rsi        # e1db <g_1560+0x115b>
    bd29:	48 89 c7             	mov    %rax,%rdi
    bd2c:	e8 c2 c9 ff ff       	callq  86f3 <transparent_crc>
    bd31:	c7 45 f0 00 00 00 00 	movl   $0x0,-0x10(%rbp)
    bd38:	e9 9f 00 00 00       	jmpq   bddc <main+0x36e>
    bd3d:	c7 45 f4 00 00 00 00 	movl   $0x0,-0xc(%rbp)
    bd44:	e9 85 00 00 00       	jmpq   bdce <main+0x360>
    bd49:	c7 45 f8 00 00 00 00 	movl   $0x0,-0x8(%rbp)
    bd50:	eb 72                	jmp    bdc4 <main+0x356>
    bd52:	8b 45 f8             	mov    -0x8(%rbp),%eax
    bd55:	48 63 c8             	movslq %eax,%rcx
    bd58:	8b 45 f0             	mov    -0x10(%rbp),%eax
    bd5b:	48 63 d0             	movslq %eax,%rdx
    bd5e:	8b 45 f4             	mov    -0xc(%rbp),%eax
    bd61:	48 63 f0             	movslq %eax,%rsi
    bd64:	48 89 d0             	mov    %rdx,%rax
    bd67:	48 c1 e0 03          	shl    $0x3,%rax
    bd6b:	48 01 d0             	add    %rdx,%rax
    bd6e:	48 01 f0             	add    %rsi,%rax
    bd71:	48 c1 e0 03          	shl    $0x3,%rax
    bd75:	48 01 c8             	add    %rcx,%rax
    bd78:	48 8d 14 85 00 00 00 	lea    0x0(,%rax,4),%rdx
    bd7f:	00 
    bd80:	48 8d 05 d9 53 00 00 	lea    0x53d9(%rip),%rax        # 11160 <g_246>
    bd87:	8b 04 02             	mov    (%rdx,%rax,1),%eax
    bd8a:	48 98                	cltq   
    bd8c:	8b 55 fc             	mov    -0x4(%rbp),%edx
    bd8f:	48 8d 35 4e 24 00 00 	lea    0x244e(%rip),%rsi        # e1e4 <g_1560+0x1164>
    bd96:	48 89 c7             	mov    %rax,%rdi
    bd99:	e8 55 c9 ff ff       	callq  86f3 <transparent_crc>
    bd9e:	83 7d fc 00          	cmpl   $0x0,-0x4(%rbp)
    bda2:	74 1c                	je     bdc0 <main+0x352>
    bda4:	8b 4d f8             	mov    -0x8(%rbp),%ecx
    bda7:	8b 55 f4             	mov    -0xc(%rbp),%edx
    bdaa:	8b 45 f0             	mov    -0x10(%rbp),%eax
    bdad:	89 c6                	mov    %eax,%esi
    bdaf:	48 8d 3d bf 23 00 00 	lea    0x23bf(%rip),%rdi        # e175 <g_1560+0x10f5>
    bdb6:	b8 00 00 00 00       	mov    $0x0,%eax
    bdbb:	e8 c0 b2 ff ff       	callq  7080 <printf@plt>
    bdc0:	83 45 f8 01          	addl   $0x1,-0x8(%rbp)
    bdc4:	83 7d f8 07          	cmpl   $0x7,-0x8(%rbp)
    bdc8:	7e 88                	jle    bd52 <main+0x2e4>
    bdca:	83 45 f4 01          	addl   $0x1,-0xc(%rbp)
    bdce:	83 7d f4 08          	cmpl   $0x8,-0xc(%rbp)
    bdd2:	0f 8e 71 ff ff ff    	jle    bd49 <main+0x2db>
    bdd8:	83 45 f0 01          	addl   $0x1,-0x10(%rbp)
    bddc:	83 7d f0 01          	cmpl   $0x1,-0x10(%rbp)
    bde0:	0f 8e 57 ff ff ff    	jle    bd3d <main+0x2cf>
    bde6:	8b 05 b4 55 00 00    	mov    0x55b4(%rip),%eax        # 113a0 <g_291>
    bdec:	c1 e0 04             	shl    $0x4,%eax
    bdef:	c1 f8 04             	sar    $0x4,%eax
    bdf2:	48 98                	cltq   
    bdf4:	8b 55 fc             	mov    -0x4(%rbp),%edx
    bdf7:	48 8d 35 f5 23 00 00 	lea    0x23f5(%rip),%rsi        # e1f3 <g_1560+0x1173>
    bdfe:	48 89 c7             	mov    %rax,%rdi
    be01:	e8 ed c8 ff ff       	callq  86f3 <transparent_crc>
    be06:	c7 45 f0 00 00 00 00 	movl   $0x0,-0x10(%rbp)
    be0d:	eb 4b                	jmp    be5a <main+0x3ec>
    be0f:	8b 45 f0             	mov    -0x10(%rbp),%eax
    be12:	48 98                	cltq   
    be14:	48 8d 14 85 00 00 00 	lea    0x0(,%rax,4),%rdx
    be1b:	00 
    be1c:	48 8d 05 8d 55 00 00 	lea    0x558d(%rip),%rax        # 113b0 <g_298>
    be23:	8b 04 02             	mov    (%rdx,%rax,1),%eax
    be26:	48 98                	cltq   
    be28:	8b 55 fc             	mov    -0x4(%rbp),%edx
    be2b:	48 8d 35 ca 23 00 00 	lea    0x23ca(%rip),%rsi        # e1fc <g_1560+0x117c>
    be32:	48 89 c7             	mov    %rax,%rdi
    be35:	e8 b9 c8 ff ff       	callq  86f3 <transparent_crc>
    be3a:	83 7d fc 00          	cmpl   $0x0,-0x4(%rbp)
    be3e:	74 16                	je     be56 <main+0x3e8>
    be40:	8b 45 f0             	mov    -0x10(%rbp),%eax
    be43:	89 c6                	mov    %eax,%esi
    be45:	48 8d 3d b9 23 00 00 	lea    0x23b9(%rip),%rdi        # e205 <g_1560+0x1185>
    be4c:	b8 00 00 00 00       	mov    $0x0,%eax
    be51:	e8 2a b2 ff ff       	callq  7080 <printf@plt>
    be56:	83 45 f0 01          	addl   $0x1,-0x10(%rbp)
    be5a:	83 7d f0 05          	cmpl   $0x5,-0x10(%rbp)
    be5e:	7e af                	jle    be0f <main+0x3a1>
    be60:	8b 05 62 55 00 00    	mov    0x5562(%rip),%eax        # 113c8 <g_313>
    be66:	c1 e0 04             	shl    $0x4,%eax
    be69:	c1 f8 04             	sar    $0x4,%eax
    be6c:	48 98                	cltq   
    be6e:	8b 55 fc             	mov    -0x4(%rbp),%edx
    be71:	48 8d 35 9b 23 00 00 	lea    0x239b(%rip),%rsi        # e213 <g_1560+0x1193>
    be78:	48 89 c7             	mov    %rax,%rdi
    be7b:	e8 73 c8 ff ff       	callq  86f3 <transparent_crc>
    be80:	0f b6 05 49 55 00 00 	movzbl 0x5549(%rip),%eax        # 113d0 <g_314>
    be87:	48 0f be c0          	movsbq %al,%rax
    be8b:	8b 55 fc             	mov    -0x4(%rbp),%edx
    be8e:	48 8d 35 87 23 00 00 	lea    0x2387(%rip),%rsi        # e21c <g_1560+0x119c>
    be95:	48 89 c7             	mov    %rax,%rdi
    be98:	e8 56 c8 ff ff       	callq  86f3 <transparent_crc>
    be9d:	c7 45 f0 00 00 00 00 	movl   $0x0,-0x10(%rbp)
    bea4:	eb 7b                	jmp    bf21 <main+0x4b3>
    bea6:	c7 45 f4 00 00 00 00 	movl   $0x0,-0xc(%rbp)
    bead:	eb 68                	jmp    bf17 <main+0x4a9>
    beaf:	8b 45 f4             	mov    -0xc(%rbp),%eax
    beb2:	48 63 c8             	movslq %eax,%rcx
    beb5:	8b 45 f0             	mov    -0x10(%rbp),%eax
    beb8:	48 63 d0             	movslq %eax,%rdx
    bebb:	48 89 d0             	mov    %rdx,%rax
    bebe:	48 c1 e0 03          	shl    $0x3,%rax
    bec2:	48 29 d0             	sub    %rdx,%rax
    bec5:	48 01 c8             	add    %rcx,%rax
    bec8:	48 8d 14 85 00 00 00 	lea    0x0(,%rax,4),%rdx
    becf:	00 
    bed0:	48 8d 05 09 55 00 00 	lea    0x5509(%rip),%rax        # 113e0 <g_332>
    bed7:	8b 04 02             	mov    (%rdx,%rax,1),%eax
    beda:	c1 e0 04             	shl    $0x4,%eax
    bedd:	c1 f8 04             	sar    $0x4,%eax
    bee0:	48 98                	cltq   
    bee2:	8b 55 fc             	mov    -0x4(%rbp),%edx
    bee5:	48 8d 35 39 23 00 00 	lea    0x2339(%rip),%rsi        # e225 <g_1560+0x11a5>
    beec:	48 89 c7             	mov    %rax,%rdi
    beef:	e8 ff c7 ff ff       	callq  86f3 <transparent_crc>
    bef4:	83 7d fc 00          	cmpl   $0x0,-0x4(%rbp)
    bef8:	74 19                	je     bf13 <main+0x4a5>
    befa:	8b 55 f4             	mov    -0xc(%rbp),%edx
    befd:	8b 45 f0             	mov    -0x10(%rbp),%eax
    bf00:	89 c6                	mov    %eax,%esi
    bf02:	48 8d 3d 2b 23 00 00 	lea    0x232b(%rip),%rdi        # e234 <g_1560+0x11b4>
    bf09:	b8 00 00 00 00       	mov    $0x0,%eax
    bf0e:	e8 6d b1 ff ff       	callq  7080 <printf@plt>
    bf13:	83 45 f4 01          	addl   $0x1,-0xc(%rbp)
    bf17:	83 7d f4 06          	cmpl   $0x6,-0xc(%rbp)
    bf1b:	7e 92                	jle    beaf <main+0x441>
    bf1d:	83 45 f0 01          	addl   $0x1,-0x10(%rbp)
    bf21:	83 7d f0 06          	cmpl   $0x6,-0x10(%rbp)
    bf25:	0f 8e 7b ff ff ff    	jle    bea6 <main+0x438>
    bf2b:	8b 05 73 55 00 00    	mov    0x5573(%rip),%eax        # 114a4 <g_366>
    bf31:	c1 e0 04             	shl    $0x4,%eax
    bf34:	c1 f8 04             	sar    $0x4,%eax
    bf37:	48 98                	cltq   
    bf39:	8b 55 fc             	mov    -0x4(%rbp),%edx
    bf3c:	48 8d 35 03 23 00 00 	lea    0x2303(%rip),%rsi        # e246 <g_1560+0x11c6>
    bf43:	48 89 c7             	mov    %rax,%rdi
    bf46:	e8 a8 c7 ff ff       	callq  86f3 <transparent_crc>
    bf4b:	c7 45 f0 00 00 00 00 	movl   $0x0,-0x10(%rbp)
    bf52:	eb 4e                	jmp    bfa2 <main+0x534>
    bf54:	8b 45 f0             	mov    -0x10(%rbp),%eax
    bf57:	48 98                	cltq   
    bf59:	48 8d 14 c5 00 00 00 	lea    0x0(,%rax,8),%rdx
    bf60:	00 
    bf61:	48 8d 05 58 55 00 00 	lea    0x5558(%rip),%rax        # 114c0 <g_393>
    bf68:	0f b6 04 02          	movzbl (%rdx,%rax,1),%eax
    bf6c:	48 0f be c0          	movsbq %al,%rax
    bf70:	8b 55 fc             	mov    -0x4(%rbp),%edx
    bf73:	48 8d 35 d5 22 00 00 	lea    0x22d5(%rip),%rsi        # e24f <g_1560+0x11cf>
    bf7a:	48 89 c7             	mov    %rax,%rdi
    bf7d:	e8 71 c7 ff ff       	callq  86f3 <transparent_crc>
    bf82:	83 7d fc 00          	cmpl   $0x0,-0x4(%rbp)
    bf86:	74 16                	je     bf9e <main+0x530>
    bf88:	8b 45 f0             	mov    -0x10(%rbp),%eax
    bf8b:	89 c6                	mov    %eax,%esi
    bf8d:	48 8d 3d 71 22 00 00 	lea    0x2271(%rip),%rdi        # e205 <g_1560+0x1185>
    bf94:	b8 00 00 00 00       	mov    $0x0,%eax
    bf99:	e8 e2 b0 ff ff       	callq  7080 <printf@plt>
    bf9e:	83 45 f0 01          	addl   $0x1,-0x10(%rbp)
    bfa2:	83 7d f0 03          	cmpl   $0x3,-0x10(%rbp)
    bfa6:	7e ac                	jle    bf54 <main+0x4e6>
    bfa8:	8b 05 32 55 00 00    	mov    0x5532(%rip),%eax        # 114e0 <g_433>
    bfae:	c1 e0 04             	shl    $0x4,%eax
    bfb1:	c1 f8 04             	sar    $0x4,%eax
    bfb4:	48 98                	cltq   
    bfb6:	8b 55 fc             	mov    -0x4(%rbp),%edx
    bfb9:	48 8d 35 9b 22 00 00 	lea    0x229b(%rip),%rsi        # e25b <g_1560+0x11db>
    bfc0:	48 89 c7             	mov    %rax,%rdi
    bfc3:	e8 2b c7 ff ff       	callq  86f3 <transparent_crc>
    bfc8:	0f b6 05 19 55 00 00 	movzbl 0x5519(%rip),%eax        # 114e8 <g_481>
    bfcf:	48 0f be c0          	movsbq %al,%rax
    bfd3:	8b 55 fc             	mov    -0x4(%rbp),%edx
    bfd6:	48 8d 35 87 22 00 00 	lea    0x2287(%rip),%rsi        # e264 <g_1560+0x11e4>
    bfdd:	48 89 c7             	mov    %rax,%rdi
    bfe0:	e8 0e c7 ff ff       	callq  86f3 <transparent_crc>
    bfe5:	0f b6 05 04 55 00 00 	movzbl 0x5504(%rip),%eax        # 114f0 <g_488>
    bfec:	48 0f be c0          	movsbq %al,%rax
    bff0:	8b 55 fc             	mov    -0x4(%rbp),%edx
    bff3:	48 8d 35 73 22 00 00 	lea    0x2273(%rip),%rsi        # e26d <g_1560+0x11ed>
    bffa:	48 89 c7             	mov    %rax,%rdi
    bffd:	e8 f1 c6 ff ff       	callq  86f3 <transparent_crc>
    c002:	8b 05 f0 54 00 00    	mov    0x54f0(%rip),%eax        # 114f8 <g_521>
    c008:	48 98                	cltq   
    c00a:	8b 55 fc             	mov    -0x4(%rbp),%edx
    c00d:	48 8d 35 62 22 00 00 	lea    0x2262(%rip),%rsi        # e276 <g_1560+0x11f6>
    c014:	48 89 c7             	mov    %rax,%rdi
    c017:	e8 d7 c6 ff ff       	callq  86f3 <transparent_crc>
    c01c:	0f b6 05 dd 54 00 00 	movzbl 0x54dd(%rip),%eax        # 11500 <g_538>
    c023:	48 0f be c0          	movsbq %al,%rax
    c027:	8b 55 fc             	mov    -0x4(%rbp),%edx
    c02a:	48 8d 35 4b 22 00 00 	lea    0x224b(%rip),%rsi        # e27c <g_1560+0x11fc>
    c031:	48 89 c7             	mov    %rax,%rdi
    c034:	e8 ba c6 ff ff       	callq  86f3 <transparent_crc>
    c039:	48 8b 05 c8 54 00 00 	mov    0x54c8(%rip),%rax        # 11508 <g_604>
    c040:	48 89 c1             	mov    %rax,%rcx
    c043:	8b 45 fc             	mov    -0x4(%rbp),%eax
    c046:	89 c2                	mov    %eax,%edx
    c048:	48 8d 35 36 22 00 00 	lea    0x2236(%rip),%rsi        # e285 <g_1560+0x1205>
    c04f:	48 89 cf             	mov    %rcx,%rdi
    c052:	e8 9c c6 ff ff       	callq  86f3 <transparent_crc>
    c057:	0f b7 05 b2 54 00 00 	movzwl 0x54b2(%rip),%eax        # 11510 <g_636>
    c05e:	48 0f bf c0          	movswq %ax,%rax
    c062:	8b 55 fc             	mov    -0x4(%rbp),%edx
    c065:	48 8d 35 1f 22 00 00 	lea    0x221f(%rip),%rsi        # e28b <g_1560+0x120b>
    c06c:	48 89 c7             	mov    %rax,%rdi
    c06f:	e8 7f c6 ff ff       	callq  86f3 <transparent_crc>
    c074:	8b 05 c6 85 00 00    	mov    0x85c6(%rip),%eax        # 14640 <g_659>
    c07a:	89 c1                	mov    %eax,%ecx
    c07c:	8b 45 fc             	mov    -0x4(%rbp),%eax
    c07f:	89 c2                	mov    %eax,%edx
    c081:	48 8d 35 09 22 00 00 	lea    0x2209(%rip),%rsi        # e291 <g_1560+0x1211>
    c088:	48 89 cf             	mov    %rcx,%rdi
    c08b:	e8 63 c6 ff ff       	callq  86f3 <transparent_crc>
    c090:	c7 45 f0 00 00 00 00 	movl   $0x0,-0x10(%rbp)
    c097:	eb 7a                	jmp    c113 <main+0x6a5>
    c099:	c7 45 f4 00 00 00 00 	movl   $0x0,-0xc(%rbp)
    c0a0:	eb 67                	jmp    c109 <main+0x69b>
    c0a2:	8b 45 f4             	mov    -0xc(%rbp),%eax
    c0a5:	48 63 c8             	movslq %eax,%rcx
    c0a8:	8b 45 f0             	mov    -0x10(%rbp),%eax
    c0ab:	48 63 d0             	movslq %eax,%rdx
    c0ae:	48 89 d0             	mov    %rdx,%rax
    c0b1:	48 c1 e0 02          	shl    $0x2,%rax
    c0b5:	48 01 d0             	add    %rdx,%rax
    c0b8:	48 01 c0             	add    %rax,%rax
    c0bb:	48 01 c8             	add    %rcx,%rax
    c0be:	48 8d 14 85 00 00 00 	lea    0x0(,%rax,4),%rdx
    c0c5:	00 
    c0c6:	48 8d 05 53 54 00 00 	lea    0x5453(%rip),%rax        # 11520 <g_668>
    c0cd:	8b 04 02             	mov    (%rdx,%rax,1),%eax
    c0d0:	89 c1                	mov    %eax,%ecx
    c0d2:	8b 45 fc             	mov    -0x4(%rbp),%eax
    c0d5:	89 c2                	mov    %eax,%edx
    c0d7:	48 8d 35 b9 21 00 00 	lea    0x21b9(%rip),%rsi        # e297 <g_1560+0x1217>
    c0de:	48 89 cf             	mov    %rcx,%rdi
    c0e1:	e8 0d c6 ff ff       	callq  86f3 <transparent_crc>
    c0e6:	83 7d fc 00          	cmpl   $0x0,-0x4(%rbp)
    c0ea:	74 19                	je     c105 <main+0x697>
    c0ec:	8b 55 f4             	mov    -0xc(%rbp),%edx
    c0ef:	8b 45 f0             	mov    -0x10(%rbp),%eax
    c0f2:	89 c6                	mov    %eax,%esi
    c0f4:	48 8d 3d 39 21 00 00 	lea    0x2139(%rip),%rdi        # e234 <g_1560+0x11b4>
    c0fb:	b8 00 00 00 00       	mov    $0x0,%eax
    c100:	e8 7b af ff ff       	callq  7080 <printf@plt>
    c105:	83 45 f4 01          	addl   $0x1,-0xc(%rbp)
    c109:	83 7d f4 09          	cmpl   $0x9,-0xc(%rbp)
    c10d:	7e 93                	jle    c0a2 <main+0x634>
    c10f:	83 45 f0 01          	addl   $0x1,-0x10(%rbp)
    c113:	83 7d f0 00          	cmpl   $0x0,-0x10(%rbp)
    c117:	7e 80                	jle    c099 <main+0x62b>
    c119:	0f b6 05 28 54 00 00 	movzbl 0x5428(%rip),%eax        # 11548 <g_707>
    c120:	48 0f be c0          	movsbq %al,%rax
    c124:	8b 55 fc             	mov    -0x4(%rbp),%edx
    c127:	48 8d 35 75 21 00 00 	lea    0x2175(%rip),%rsi        # e2a3 <g_1560+0x1223>
    c12e:	48 89 c7             	mov    %rax,%rdi
    c131:	e8 bd c5 ff ff       	callq  86f3 <transparent_crc>
    c136:	8b 05 14 54 00 00    	mov    0x5414(%rip),%eax        # 11550 <g_740>
    c13c:	c1 e0 04             	shl    $0x4,%eax
    c13f:	c1 f8 04             	sar    $0x4,%eax
    c142:	48 98                	cltq   
    c144:	8b 55 fc             	mov    -0x4(%rbp),%edx
    c147:	48 8d 35 5e 21 00 00 	lea    0x215e(%rip),%rsi        # e2ac <g_1560+0x122c>
    c14e:	48 89 c7             	mov    %rax,%rdi
    c151:	e8 9d c5 ff ff       	callq  86f3 <transparent_crc>
    c156:	0f b6 05 fb 53 00 00 	movzbl 0x53fb(%rip),%eax        # 11558 <g_794>
    c15d:	48 0f be c0          	movsbq %al,%rax
    c161:	8b 55 fc             	mov    -0x4(%rbp),%edx
    c164:	48 8d 35 4a 21 00 00 	lea    0x214a(%rip),%rsi        # e2b5 <g_1560+0x1235>
    c16b:	48 89 c7             	mov    %rax,%rdi
    c16e:	e8 80 c5 ff ff       	callq  86f3 <transparent_crc>
    c173:	8b 05 e7 53 00 00    	mov    0x53e7(%rip),%eax        # 11560 <g_875>
    c179:	c1 e0 04             	shl    $0x4,%eax
    c17c:	c1 f8 04             	sar    $0x4,%eax
    c17f:	48 98                	cltq   
    c181:	8b 55 fc             	mov    -0x4(%rbp),%edx
    c184:	48 8d 35 33 21 00 00 	lea    0x2133(%rip),%rsi        # e2be <g_1560+0x123e>
    c18b:	48 89 c7             	mov    %rax,%rdi
    c18e:	e8 60 c5 ff ff       	callq  86f3 <transparent_crc>
    c193:	48 8b 05 ce 53 00 00 	mov    0x53ce(%rip),%rax        # 11568 <g_927>
    c19a:	8b 55 fc             	mov    -0x4(%rbp),%edx
    c19d:	48 8d 35 23 21 00 00 	lea    0x2123(%rip),%rsi        # e2c7 <g_1560+0x1247>
    c1a4:	48 89 c7             	mov    %rax,%rdi
    c1a7:	e8 47 c5 ff ff       	callq  86f3 <transparent_crc>
    c1ac:	c7 45 f0 00 00 00 00 	movl   $0x0,-0x10(%rbp)
    c1b3:	e9 a9 00 00 00       	jmpq   c261 <main+0x7f3>
    c1b8:	c7 45 f4 00 00 00 00 	movl   $0x0,-0xc(%rbp)
    c1bf:	e9 8f 00 00 00       	jmpq   c253 <main+0x7e5>
    c1c4:	8b 45 f4             	mov    -0xc(%rbp),%eax
    c1c7:	48 63 d0             	movslq %eax,%rdx
    c1ca:	8b 45 f0             	mov    -0x10(%rbp),%eax
    c1cd:	48 98                	cltq   
    c1cf:	48 01 d0             	add    %rdx,%rax
    c1d2:	48 8d 14 85 00 00 00 	lea    0x0(,%rax,4),%rdx
    c1d9:	00 
    c1da:	48 8d 05 9f 53 00 00 	lea    0x539f(%rip),%rax        # 11580 <g_977>
    c1e1:	0f b7 04 02          	movzwl (%rdx,%rax,1),%eax
    c1e5:	0f b7 c0             	movzwl %ax,%eax
    c1e8:	8b 55 fc             	mov    -0x4(%rbp),%edx
    c1eb:	48 8d 35 db 20 00 00 	lea    0x20db(%rip),%rsi        # e2cd <g_1560+0x124d>
    c1f2:	48 89 c7             	mov    %rax,%rdi
    c1f5:	e8 f9 c4 ff ff       	callq  86f3 <transparent_crc>
    c1fa:	8b 45 f4             	mov    -0xc(%rbp),%eax
    c1fd:	48 63 d0             	movslq %eax,%rdx
    c200:	8b 45 f0             	mov    -0x10(%rbp),%eax
    c203:	48 98                	cltq   
    c205:	48 01 d0             	add    %rdx,%rax
    c208:	48 8d 14 85 00 00 00 	lea    0x0(,%rax,4),%rdx
    c20f:	00 
    c210:	48 8d 05 69 53 00 00 	lea    0x5369(%rip),%rax        # 11580 <g_977>
    c217:	0f b7 04 02          	movzwl (%rdx,%rax,1),%eax
    c21b:	0f b7 c0             	movzwl %ax,%eax
    c21e:	8b 55 fc             	mov    -0x4(%rbp),%edx
    c221:	48 8d 35 b4 20 00 00 	lea    0x20b4(%rip),%rsi        # e2dc <g_1560+0x125c>
    c228:	48 89 c7             	mov    %rax,%rdi
    c22b:	e8 c3 c4 ff ff       	callq  86f3 <transparent_crc>
    c230:	83 7d fc 00          	cmpl   $0x0,-0x4(%rbp)
    c234:	74 19                	je     c24f <main+0x7e1>
    c236:	8b 55 f4             	mov    -0xc(%rbp),%edx
    c239:	8b 45 f0             	mov    -0x10(%rbp),%eax
    c23c:	89 c6                	mov    %eax,%esi
    c23e:	48 8d 3d ef 1f 00 00 	lea    0x1fef(%rip),%rdi        # e234 <g_1560+0x11b4>
    c245:	b8 00 00 00 00       	mov    $0x0,%eax
    c24a:	e8 31 ae ff ff       	callq  7080 <printf@plt>
    c24f:	83 45 f4 01          	addl   $0x1,-0xc(%rbp)
    c253:	83 7d f4 00          	cmpl   $0x0,-0xc(%rbp)
    c257:	0f 8e 67 ff ff ff    	jle    c1c4 <main+0x756>
    c25d:	83 45 f0 01          	addl   $0x1,-0x10(%rbp)
    c261:	83 7d f0 07          	cmpl   $0x7,-0x10(%rbp)
    c265:	0f 8e 4d ff ff ff    	jle    c1b8 <main+0x74a>
    c26b:	0f b7 05 2e 53 00 00 	movzwl 0x532e(%rip),%eax        # 115a0 <g_1007>
    c272:	48 0f bf c0          	movswq %ax,%rax
    c276:	8b 55 fc             	mov    -0x4(%rbp),%edx
    c279:	48 8d 35 6b 20 00 00 	lea    0x206b(%rip),%rsi        # e2eb <g_1560+0x126b>
    c280:	48 89 c7             	mov    %rax,%rdi
    c283:	e8 6b c4 ff ff       	callq  86f3 <transparent_crc>
    c288:	0f b7 05 b5 83 00 00 	movzwl 0x83b5(%rip),%eax        # 14644 <g_1039>
    c28f:	0f b7 c0             	movzwl %ax,%eax
    c292:	8b 55 fc             	mov    -0x4(%rbp),%edx
    c295:	48 8d 35 56 20 00 00 	lea    0x2056(%rip),%rsi        # e2f2 <g_1560+0x1272>
    c29c:	48 89 c7             	mov    %rax,%rdi
    c29f:	e8 4f c4 ff ff       	callq  86f3 <transparent_crc>
    c2a4:	8b 05 fa 52 00 00    	mov    0x52fa(%rip),%eax        # 115a4 <g_1047>
    c2aa:	c1 e0 04             	shl    $0x4,%eax
    c2ad:	c1 f8 04             	sar    $0x4,%eax
    c2b0:	48 98                	cltq   
    c2b2:	8b 55 fc             	mov    -0x4(%rbp),%edx
    c2b5:	48 8d 35 3d 20 00 00 	lea    0x203d(%rip),%rsi        # e2f9 <g_1560+0x1279>
    c2bc:	48 89 c7             	mov    %rax,%rdi
    c2bf:	e8 2f c4 ff ff       	callq  86f3 <transparent_crc>
    c2c4:	8b 05 de 52 00 00    	mov    0x52de(%rip),%eax        # 115a8 <g_1048>
    c2ca:	c1 e0 04             	shl    $0x4,%eax
    c2cd:	c1 f8 04             	sar    $0x4,%eax
    c2d0:	48 98                	cltq   
    c2d2:	8b 55 fc             	mov    -0x4(%rbp),%edx
    c2d5:	48 8d 35 27 20 00 00 	lea    0x2027(%rip),%rsi        # e303 <g_1560+0x1283>
    c2dc:	48 89 c7             	mov    %rax,%rdi
    c2df:	e8 0f c4 ff ff       	callq  86f3 <transparent_crc>
    c2e4:	c7 45 f0 00 00 00 00 	movl   $0x0,-0x10(%rbp)
    c2eb:	e9 a0 00 00 00       	jmpq   c390 <main+0x922>
    c2f0:	c7 45 f4 00 00 00 00 	movl   $0x0,-0xc(%rbp)
    c2f7:	e9 86 00 00 00       	jmpq   c382 <main+0x914>
    c2fc:	c7 45 f8 00 00 00 00 	movl   $0x0,-0x8(%rbp)
    c303:	eb 73                	jmp    c378 <main+0x90a>
    c305:	8b 45 f8             	mov    -0x8(%rbp),%eax
    c308:	48 63 f0             	movslq %eax,%rsi
    c30b:	8b 45 f4             	mov    -0xc(%rbp),%eax
    c30e:	48 63 c8             	movslq %eax,%rcx
    c311:	8b 45 f0             	mov    -0x10(%rbp),%eax
    c314:	48 63 d0             	movslq %eax,%rdx
    c317:	48 89 d0             	mov    %rdx,%rax
    c31a:	48 01 c0             	add    %rax,%rax
    c31d:	48 01 d0             	add    %rdx,%rax
    c320:	48 01 f0             	add    %rsi,%rax
    c323:	48 01 c8             	add    %rcx,%rax
    c326:	48 8d 14 85 00 00 00 	lea    0x0(,%rax,4),%rdx
    c32d:	00 
    c32e:	48 8d 05 8b 52 00 00 	lea    0x528b(%rip),%rax        # 115c0 <g_1049>
    c335:	8b 04 02             	mov    (%rdx,%rax,1),%eax
    c338:	c1 e0 04             	shl    $0x4,%eax
    c33b:	c1 f8 04             	sar    $0x4,%eax
    c33e:	48 98                	cltq   
    c340:	8b 55 fc             	mov    -0x4(%rbp),%edx
    c343:	48 8d 35 c3 1f 00 00 	lea    0x1fc3(%rip),%rsi        # e30d <g_1560+0x128d>
    c34a:	48 89 c7             	mov    %rax,%rdi
    c34d:	e8 a1 c3 ff ff       	callq  86f3 <transparent_crc>
    c352:	83 7d fc 00          	cmpl   $0x0,-0x4(%rbp)
    c356:	74 1c                	je     c374 <main+0x906>
    c358:	8b 4d f8             	mov    -0x8(%rbp),%ecx
    c35b:	8b 55 f4             	mov    -0xc(%rbp),%edx
    c35e:	8b 45 f0             	mov    -0x10(%rbp),%eax
    c361:	89 c6                	mov    %eax,%esi
    c363:	48 8d 3d 0b 1e 00 00 	lea    0x1e0b(%rip),%rdi        # e175 <g_1560+0x10f5>
    c36a:	b8 00 00 00 00       	mov    $0x0,%eax
    c36f:	e8 0c ad ff ff       	callq  7080 <printf@plt>
    c374:	83 45 f8 01          	addl   $0x1,-0x8(%rbp)
    c378:	83 7d f8 00          	cmpl   $0x0,-0x8(%rbp)
    c37c:	7e 87                	jle    c305 <main+0x897>
    c37e:	83 45 f4 01          	addl   $0x1,-0xc(%rbp)
    c382:	83 7d f4 02          	cmpl   $0x2,-0xc(%rbp)
    c386:	0f 8e 70 ff ff ff    	jle    c2fc <main+0x88e>
    c38c:	83 45 f0 01          	addl   $0x1,-0x10(%rbp)
    c390:	83 7d f0 05          	cmpl   $0x5,-0x10(%rbp)
    c394:	0f 8e 56 ff ff ff    	jle    c2f0 <main+0x882>
    c39a:	c7 45 f0 00 00 00 00 	movl   $0x0,-0x10(%rbp)
    c3a1:	eb 51                	jmp    c3f4 <main+0x986>
    c3a3:	8b 45 f0             	mov    -0x10(%rbp),%eax
    c3a6:	48 98                	cltq   
    c3a8:	48 8d 14 85 00 00 00 	lea    0x0(,%rax,4),%rdx
    c3af:	00 
    c3b0:	48 8d 05 51 52 00 00 	lea    0x5251(%rip),%rax        # 11608 <g_1050>
    c3b7:	8b 04 02             	mov    (%rdx,%rax,1),%eax
    c3ba:	c1 e0 04             	shl    $0x4,%eax
    c3bd:	c1 f8 04             	sar    $0x4,%eax
    c3c0:	48 98                	cltq   
    c3c2:	8b 55 fc             	mov    -0x4(%rbp),%edx
    c3c5:	48 8d 35 54 1f 00 00 	lea    0x1f54(%rip),%rsi        # e320 <g_1560+0x12a0>
    c3cc:	48 89 c7             	mov    %rax,%rdi
    c3cf:	e8 1f c3 ff ff       	callq  86f3 <transparent_crc>
    c3d4:	83 7d fc 00          	cmpl   $0x0,-0x4(%rbp)
    c3d8:	74 16                	je     c3f0 <main+0x982>
    c3da:	8b 45 f0             	mov    -0x10(%rbp),%eax
    c3dd:	89 c6                	mov    %eax,%esi
    c3df:	48 8d 3d 1f 1e 00 00 	lea    0x1e1f(%rip),%rdi        # e205 <g_1560+0x1185>
    c3e6:	b8 00 00 00 00       	mov    $0x0,%eax
    c3eb:	e8 90 ac ff ff       	callq  7080 <printf@plt>
    c3f0:	83 45 f0 01          	addl   $0x1,-0x10(%rbp)
    c3f4:	83 7d f0 02          	cmpl   $0x2,-0x10(%rbp)
    c3f8:	7e a9                	jle    c3a3 <main+0x935>
    c3fa:	8b 05 14 52 00 00    	mov    0x5214(%rip),%eax        # 11614 <g_1067>
    c400:	c1 e0 04             	shl    $0x4,%eax
    c403:	c1 f8 04             	sar    $0x4,%eax
    c406:	48 98                	cltq   
    c408:	8b 55 fc             	mov    -0x4(%rbp),%edx
    c40b:	48 8d 35 1b 1f 00 00 	lea    0x1f1b(%rip),%rsi        # e32d <g_1560+0x12ad>
    c412:	48 89 c7             	mov    %rax,%rdi
    c415:	e8 d9 c2 ff ff       	callq  86f3 <transparent_crc>
    c41a:	c7 45 f0 00 00 00 00 	movl   $0x0,-0x10(%rbp)
    c421:	eb 66                	jmp    c489 <main+0xa1b>
    c423:	c7 45 f4 00 00 00 00 	movl   $0x0,-0xc(%rbp)
    c42a:	eb 53                	jmp    c47f <main+0xa11>
    c42c:	8b 45 f4             	mov    -0xc(%rbp),%eax
    c42f:	48 63 d0             	movslq %eax,%rdx
    c432:	8b 45 f0             	mov    -0x10(%rbp),%eax
    c435:	48 98                	cltq   
    c437:	48 01 c2             	add    %rax,%rdx
    c43a:	48 8d 05 d7 51 00 00 	lea    0x51d7(%rip),%rax        # 11618 <g_1087>
    c441:	48 01 d0             	add    %rdx,%rax
    c444:	0f b6 00             	movzbl (%rax),%eax
    c447:	0f b6 c0             	movzbl %al,%eax
    c44a:	8b 55 fc             	mov    -0x4(%rbp),%edx
    c44d:	48 8d 35 e3 1e 00 00 	lea    0x1ee3(%rip),%rsi        # e337 <g_1560+0x12b7>
    c454:	48 89 c7             	mov    %rax,%rdi
    c457:	e8 97 c2 ff ff       	callq  86f3 <transparent_crc>
    c45c:	83 7d fc 00          	cmpl   $0x0,-0x4(%rbp)
    c460:	74 19                	je     c47b <main+0xa0d>
    c462:	8b 55 f4             	mov    -0xc(%rbp),%edx
    c465:	8b 45 f0             	mov    -0x10(%rbp),%eax
    c468:	89 c6                	mov    %eax,%esi
    c46a:	48 8d 3d c3 1d 00 00 	lea    0x1dc3(%rip),%rdi        # e234 <g_1560+0x11b4>
    c471:	b8 00 00 00 00       	mov    $0x0,%eax
    c476:	e8 05 ac ff ff       	callq  7080 <printf@plt>
    c47b:	83 45 f4 01          	addl   $0x1,-0xc(%rbp)
    c47f:	83 7d f4 00          	cmpl   $0x0,-0xc(%rbp)
    c483:	7e a7                	jle    c42c <main+0x9be>
    c485:	83 45 f0 01          	addl   $0x1,-0x10(%rbp)
    c489:	83 7d f0 06          	cmpl   $0x6,-0x10(%rbp)
    c48d:	7e 94                	jle    c423 <main+0x9b5>
    c48f:	c7 45 f0 00 00 00 00 	movl   $0x0,-0x10(%rbp)
    c496:	eb 4a                	jmp    c4e2 <main+0xa74>
    c498:	8b 45 f0             	mov    -0x10(%rbp),%eax
    c49b:	48 98                	cltq   
    c49d:	48 8d 14 00          	lea    (%rax,%rax,1),%rdx
    c4a1:	48 8d 05 78 51 00 00 	lea    0x5178(%rip),%rax        # 11620 <g_1224>
    c4a8:	0f b7 04 02          	movzwl (%rdx,%rax,1),%eax
    c4ac:	48 0f bf c0          	movswq %ax,%rax
    c4b0:	8b 55 fc             	mov    -0x4(%rbp),%edx
    c4b3:	48 8d 35 8a 1e 00 00 	lea    0x1e8a(%rip),%rsi        # e344 <g_1560+0x12c4>
    c4ba:	48 89 c7             	mov    %rax,%rdi
    c4bd:	e8 31 c2 ff ff       	callq  86f3 <transparent_crc>
    c4c2:	83 7d fc 00          	cmpl   $0x0,-0x4(%rbp)
    c4c6:	74 16                	je     c4de <main+0xa70>
    c4c8:	8b 45 f0             	mov    -0x10(%rbp),%eax
    c4cb:	89 c6                	mov    %eax,%esi
    c4cd:	48 8d 3d 31 1d 00 00 	lea    0x1d31(%rip),%rdi        # e205 <g_1560+0x1185>
    c4d4:	b8 00 00 00 00       	mov    $0x0,%eax
    c4d9:	e8 a2 ab ff ff       	callq  7080 <printf@plt>
    c4de:	83 45 f0 01          	addl   $0x1,-0x10(%rbp)
    c4e2:	83 7d f0 00          	cmpl   $0x0,-0x10(%rbp)
    c4e6:	7e b0                	jle    c498 <main+0xa2a>
    c4e8:	8b 05 36 51 00 00    	mov    0x5136(%rip),%eax        # 11624 <g_1259>
    c4ee:	c1 e0 04             	shl    $0x4,%eax
    c4f1:	c1 f8 04             	sar    $0x4,%eax
    c4f4:	48 98                	cltq   
    c4f6:	8b 55 fc             	mov    -0x4(%rbp),%edx
    c4f9:	48 8d 35 4e 1e 00 00 	lea    0x1e4e(%rip),%rsi        # e34e <g_1560+0x12ce>
    c500:	48 89 c7             	mov    %rax,%rdi
    c503:	e8 eb c1 ff ff       	callq  86f3 <transparent_crc>
    c508:	0f b7 05 19 51 00 00 	movzwl 0x5119(%rip),%eax        # 11628 <g_1292>
    c50f:	48 0f bf c0          	movswq %ax,%rax
    c513:	8b 55 fc             	mov    -0x4(%rbp),%edx
    c516:	48 8d 35 3b 1e 00 00 	lea    0x1e3b(%rip),%rsi        # e358 <g_1560+0x12d8>
    c51d:	48 89 c7             	mov    %rax,%rdi
    c520:	e8 ce c1 ff ff       	callq  86f3 <transparent_crc>
    c525:	b8 00 00 00 00       	mov    $0x0,%eax
    c52a:	48 0f be c0          	movsbq %al,%rax
    c52e:	8b 55 fc             	mov    -0x4(%rbp),%edx
    c531:	48 8d 35 27 1e 00 00 	lea    0x1e27(%rip),%rsi        # e35f <g_1560+0x12df>
    c538:	48 89 c7             	mov    %rax,%rdi
    c53b:	e8 b3 c1 ff ff       	callq  86f3 <transparent_crc>
    c540:	8b 05 e6 50 00 00    	mov    0x50e6(%rip),%eax        # 1162c <g_1462>
    c546:	c1 e0 04             	shl    $0x4,%eax
    c549:	c1 f8 04             	sar    $0x4,%eax
    c54c:	48 98                	cltq   
    c54e:	8b 55 fc             	mov    -0x4(%rbp),%edx
    c551:	48 8d 35 11 1e 00 00 	lea    0x1e11(%rip),%rsi        # e369 <g_1560+0x12e9>
    c558:	48 89 c7             	mov    %rax,%rdi
    c55b:	e8 93 c1 ff ff       	callq  86f3 <transparent_crc>
    c560:	b8 41 0e 00 00       	mov    $0xe41,%eax
    c565:	0f b7 c0             	movzwl %ax,%eax
    c568:	8b 55 fc             	mov    -0x4(%rbp),%edx
    c56b:	48 8d 35 01 1e 00 00 	lea    0x1e01(%rip),%rsi        # e373 <g_1560+0x12f3>
    c572:	48 89 c7             	mov    %rax,%rdi
    c575:	e8 79 c1 ff ff       	callq  86f3 <transparent_crc>
    c57a:	b8 fc ff ff ff       	mov    $0xfffffffc,%eax
    c57f:	0f b7 c0             	movzwl %ax,%eax
    c582:	8b 55 fc             	mov    -0x4(%rbp),%edx
    c585:	48 8d 35 ee 1d 00 00 	lea    0x1dee(%rip),%rsi        # e37a <g_1560+0x12fa>
    c58c:	48 89 c7             	mov    %rax,%rdi
    c58f:	e8 5f c1 ff ff       	callq  86f3 <transparent_crc>
    c594:	0f b6 05 95 50 00 00 	movzbl 0x5095(%rip),%eax        # 11630 <g_1515>
    c59b:	0f b6 c0             	movzbl %al,%eax
    c59e:	8b 55 fc             	mov    -0x4(%rbp),%edx
    c5a1:	48 8d 35 d9 1d 00 00 	lea    0x1dd9(%rip),%rsi        # e381 <g_1560+0x1301>
    c5a8:	48 89 c7             	mov    %rax,%rdi
    c5ab:	e8 43 c1 ff ff       	callq  86f3 <transparent_crc>
    c5b0:	0f b6 05 81 50 00 00 	movzbl 0x5081(%rip),%eax        # 11638 <g_1549>
    c5b7:	48 0f be c0          	movsbq %al,%rax
    c5bb:	8b 55 fc             	mov    -0x4(%rbp),%edx
    c5be:	48 8d 35 c3 1d 00 00 	lea    0x1dc3(%rip),%rsi        # e388 <g_1560+0x1308>
    c5c5:	48 89 c7             	mov    %rax,%rdi
    c5c8:	e8 26 c1 ff ff       	callq  86f3 <transparent_crc>
    c5cd:	b8 5e de f9 13       	mov    $0x13f9de5e,%eax
    c5d2:	48 98                	cltq   
    c5d4:	8b 55 fc             	mov    -0x4(%rbp),%edx
    c5d7:	48 8d 35 b4 1d 00 00 	lea    0x1db4(%rip),%rsi        # e392 <g_1560+0x1312>
    c5de:	48 89 c7             	mov    %rax,%rdi
    c5e1:	e8 0d c1 ff ff       	callq  86f3 <transparent_crc>
    c5e6:	c7 45 f0 00 00 00 00 	movl   $0x0,-0x10(%rbp)
    c5ed:	e9 5f 01 00 00       	jmpq   c751 <main+0xce3>
    c5f2:	c7 45 f4 00 00 00 00 	movl   $0x0,-0xc(%rbp)
    c5f9:	e9 45 01 00 00       	jmpq   c743 <main+0xcd5>
    c5fe:	c7 45 f8 00 00 00 00 	movl   $0x0,-0x8(%rbp)
    c605:	e9 2b 01 00 00       	jmpq   c735 <main+0xcc7>
    c60a:	8b 45 f8             	mov    -0x8(%rbp),%eax
    c60d:	48 63 f0             	movslq %eax,%rsi
    c610:	8b 45 f0             	mov    -0x10(%rbp),%eax
    c613:	48 63 d0             	movslq %eax,%rdx
    c616:	8b 45 f4             	mov    -0xc(%rbp),%eax
    c619:	48 63 c8             	movslq %eax,%rcx
    c61c:	48 89 d0             	mov    %rdx,%rax
    c61f:	48 c1 e0 04          	shl    $0x4,%rax
    c623:	48 29 d0             	sub    %rdx,%rax
    c626:	48 01 c0             	add    %rax,%rax
    c629:	48 89 ca             	mov    %rcx,%rdx
    c62c:	48 c1 e2 02          	shl    $0x2,%rdx
    c630:	48 01 ca             	add    %rcx,%rdx
    c633:	48 01 d0             	add    %rdx,%rax
    c636:	48 01 f0             	add    %rsi,%rax
    c639:	48 8d 14 c5 00 00 00 	lea    0x0(,%rax,8),%rdx
    c640:	00 
    c641:	48 8d 05 38 0a 00 00 	lea    0xa38(%rip),%rax        # d080 <g_1560>
    c648:	0f b7 04 02          	movzwl (%rdx,%rax,1),%eax
    c64c:	0f b7 c0             	movzwl %ax,%eax
    c64f:	8b 55 fc             	mov    -0x4(%rbp),%edx
    c652:	48 8d 35 40 1d 00 00 	lea    0x1d40(%rip),%rsi        # e399 <g_1560+0x1319>
    c659:	48 89 c7             	mov    %rax,%rdi
    c65c:	e8 92 c0 ff ff       	callq  86f3 <transparent_crc>
    c661:	8b 45 f8             	mov    -0x8(%rbp),%eax
    c664:	48 63 f0             	movslq %eax,%rsi
    c667:	8b 45 f0             	mov    -0x10(%rbp),%eax
    c66a:	48 63 d0             	movslq %eax,%rdx
    c66d:	8b 45 f4             	mov    -0xc(%rbp),%eax
    c670:	48 63 c8             	movslq %eax,%rcx
    c673:	48 89 d0             	mov    %rdx,%rax
    c676:	48 c1 e0 04          	shl    $0x4,%rax
    c67a:	48 29 d0             	sub    %rdx,%rax
    c67d:	48 01 c0             	add    %rax,%rax
    c680:	48 89 ca             	mov    %rcx,%rdx
    c683:	48 c1 e2 02          	shl    $0x2,%rdx
    c687:	48 01 ca             	add    %rcx,%rdx
    c68a:	48 01 d0             	add    %rdx,%rax
    c68d:	48 01 f0             	add    %rsi,%rax
    c690:	48 8d 14 c5 00 00 00 	lea    0x0(,%rax,8),%rdx
    c697:	00 
    c698:	48 8d 05 e1 09 00 00 	lea    0x9e1(%rip),%rax        # d080 <g_1560>
    c69f:	0f b7 04 02          	movzwl (%rdx,%rax,1),%eax
    c6a3:	0f b7 c0             	movzwl %ax,%eax
    c6a6:	8b 55 fc             	mov    -0x4(%rbp),%edx
    c6a9:	48 8d 35 fc 1c 00 00 	lea    0x1cfc(%rip),%rsi        # e3ac <g_1560+0x132c>
    c6b0:	48 89 c7             	mov    %rax,%rdi
    c6b3:	e8 3b c0 ff ff       	callq  86f3 <transparent_crc>
    c6b8:	8b 45 f8             	mov    -0x8(%rbp),%eax
    c6bb:	48 63 f0             	movslq %eax,%rsi
    c6be:	8b 45 f0             	mov    -0x10(%rbp),%eax
    c6c1:	48 63 d0             	movslq %eax,%rdx
    c6c4:	8b 45 f4             	mov    -0xc(%rbp),%eax
    c6c7:	48 63 c8             	movslq %eax,%rcx
    c6ca:	48 89 d0             	mov    %rdx,%rax
    c6cd:	48 c1 e0 04          	shl    $0x4,%rax
    c6d1:	48 29 d0             	sub    %rdx,%rax
    c6d4:	48 01 c0             	add    %rax,%rax
    c6d7:	48 89 ca             	mov    %rcx,%rdx
    c6da:	48 c1 e2 02          	shl    $0x2,%rdx
    c6de:	48 01 ca             	add    %rcx,%rdx
    c6e1:	48 01 d0             	add    %rdx,%rax
    c6e4:	48 01 f0             	add    %rsi,%rax
    c6e7:	48 8d 14 c5 00 00 00 	lea    0x0(,%rax,8),%rdx
    c6ee:	00 
    c6ef:	48 8d 05 8a 09 00 00 	lea    0x98a(%rip),%rax        # d080 <g_1560>
    c6f6:	0f b6 04 02          	movzbl (%rdx,%rax,1),%eax
    c6fa:	0f b6 c0             	movzbl %al,%eax
    c6fd:	8b 55 fc             	mov    -0x4(%rbp),%edx
    c700:	48 8d 35 b8 1c 00 00 	lea    0x1cb8(%rip),%rsi        # e3bf <g_1560+0x133f>
    c707:	48 89 c7             	mov    %rax,%rdi
    c70a:	e8 e4 bf ff ff       	callq  86f3 <transparent_crc>
    c70f:	83 7d fc 00          	cmpl   $0x0,-0x4(%rbp)
    c713:	74 1c                	je     c731 <main+0xcc3>
    c715:	8b 4d f8             	mov    -0x8(%rbp),%ecx
    c718:	8b 55 f4             	mov    -0xc(%rbp),%edx
    c71b:	8b 45 f0             	mov    -0x10(%rbp),%eax
    c71e:	89 c6                	mov    %eax,%esi
    c720:	48 8d 3d 4e 1a 00 00 	lea    0x1a4e(%rip),%rdi        # e175 <g_1560+0x10f5>
    c727:	b8 00 00 00 00       	mov    $0x0,%eax
    c72c:	e8 4f a9 ff ff       	callq  7080 <printf@plt>
    c731:	83 45 f8 01          	addl   $0x1,-0x8(%rbp)
    c735:	83 7d f8 04          	cmpl   $0x4,-0x8(%rbp)
    c739:	0f 8e cb fe ff ff    	jle    c60a <main+0xb9c>
    c73f:	83 45 f4 01          	addl   $0x1,-0xc(%rbp)
    c743:	83 7d f4 05          	cmpl   $0x5,-0xc(%rbp)
    c747:	0f 8e b1 fe ff ff    	jle    c5fe <main+0xb90>
    c74d:	83 45 f0 01          	addl   $0x1,-0x10(%rbp)
    c751:	83 7d f0 04          	cmpl   $0x4,-0x10(%rbp)
    c755:	0f 8e 97 fe ff ff    	jle    c5f2 <main+0xb84>
    c75b:	0f b7 05 de 4e 00 00 	movzwl 0x4ede(%rip),%eax        # 11640 <g_1562>
    c762:	0f b7 c0             	movzwl %ax,%eax
    c765:	8b 55 fc             	mov    -0x4(%rbp),%edx
    c768:	48 8d 35 63 1c 00 00 	lea    0x1c63(%rip),%rsi        # e3d2 <g_1560+0x1352>
    c76f:	48 89 c7             	mov    %rax,%rdi
    c772:	e8 7c bf ff ff       	callq  86f3 <transparent_crc>
    c777:	0f b7 05 c2 4e 00 00 	movzwl 0x4ec2(%rip),%eax        # 11640 <g_1562>
    c77e:	0f b7 c0             	movzwl %ax,%eax
    c781:	8b 55 fc             	mov    -0x4(%rbp),%edx
    c784:	48 8d 35 51 1c 00 00 	lea    0x1c51(%rip),%rsi        # e3dc <g_1560+0x135c>
    c78b:	48 89 c7             	mov    %rax,%rdi
    c78e:	e8 60 bf ff ff       	callq  86f3 <transparent_crc>
    c793:	0f b6 05 a6 4e 00 00 	movzbl 0x4ea6(%rip),%eax        # 11640 <g_1562>
    c79a:	0f b6 c0             	movzbl %al,%eax
    c79d:	8b 55 fc             	mov    -0x4(%rbp),%edx
    c7a0:	48 8d 35 3f 1c 00 00 	lea    0x1c3f(%rip),%rsi        # e3e6 <g_1560+0x1366>
    c7a7:	48 89 c7             	mov    %rax,%rdi
    c7aa:	e8 44 bf ff ff       	callq  86f3 <transparent_crc>
    c7af:	0f b6 05 92 4e 00 00 	movzbl 0x4e92(%rip),%eax        # 11648 <g_1580>
    c7b6:	48 0f be c0          	movsbq %al,%rax
    c7ba:	8b 55 fc             	mov    -0x4(%rbp),%edx
    c7bd:	48 8d 35 2c 1c 00 00 	lea    0x1c2c(%rip),%rsi        # e3f0 <g_1560+0x1370>
    c7c4:	48 89 c7             	mov    %rax,%rdi
    c7c7:	e8 27 bf ff ff       	callq  86f3 <transparent_crc>
    c7cc:	c7 45 f0 00 00 00 00 	movl   $0x0,-0x10(%rbp)
    c7d3:	eb 51                	jmp    c826 <main+0xdb8>
    c7d5:	8b 45 f0             	mov    -0x10(%rbp),%eax
    c7d8:	48 98                	cltq   
    c7da:	48 8d 14 85 00 00 00 	lea    0x0(,%rax,4),%rdx
    c7e1:	00 
    c7e2:	48 8d 05 67 4e 00 00 	lea    0x4e67(%rip),%rax        # 11650 <g_1639>
    c7e9:	8b 04 02             	mov    (%rdx,%rax,1),%eax
    c7ec:	c1 e0 04             	shl    $0x4,%eax
    c7ef:	c1 f8 04             	sar    $0x4,%eax
    c7f2:	48 98                	cltq   
    c7f4:	8b 55 fc             	mov    -0x4(%rbp),%edx
    c7f7:	48 8d 35 fc 1b 00 00 	lea    0x1bfc(%rip),%rsi        # e3fa <g_1560+0x137a>
    c7fe:	48 89 c7             	mov    %rax,%rdi
    c801:	e8 ed be ff ff       	callq  86f3 <transparent_crc>
    c806:	83 7d fc 00          	cmpl   $0x0,-0x4(%rbp)
    c80a:	74 16                	je     c822 <main+0xdb4>
    c80c:	8b 45 f0             	mov    -0x10(%rbp),%eax
    c80f:	89 c6                	mov    %eax,%esi
    c811:	48 8d 3d ed 19 00 00 	lea    0x19ed(%rip),%rdi        # e205 <g_1560+0x1185>
    c818:	b8 00 00 00 00       	mov    $0x0,%eax
    c81d:	e8 5e a8 ff ff       	callq  7080 <printf@plt>
    c822:	83 45 f0 01          	addl   $0x1,-0x10(%rbp)
    c826:	83 7d f0 06          	cmpl   $0x6,-0x10(%rbp)
    c82a:	7e a9                	jle    c7d5 <main+0xd67>
    c82c:	0f b6 05 39 4e 00 00 	movzbl 0x4e39(%rip),%eax        # 1166c <g_1682>
    c833:	48 0f be c0          	movsbq %al,%rax
    c837:	8b 55 fc             	mov    -0x4(%rbp),%edx
    c83a:	48 8d 35 c6 1b 00 00 	lea    0x1bc6(%rip),%rsi        # e407 <g_1560+0x1387>
    c841:	48 89 c7             	mov    %rax,%rdi
    c844:	e8 aa be ff ff       	callq  86f3 <transparent_crc>
    c849:	8b 05 21 4e 00 00    	mov    0x4e21(%rip),%eax        # 11670 <g_1714>
    c84f:	89 c1                	mov    %eax,%ecx
    c851:	8b 45 fc             	mov    -0x4(%rbp),%eax
    c854:	89 c2                	mov    %eax,%edx
    c856:	48 8d 35 b1 1b 00 00 	lea    0x1bb1(%rip),%rsi        # e40e <g_1560+0x138e>
    c85d:	48 89 cf             	mov    %rcx,%rdi
    c860:	e8 8e be ff ff       	callq  86f3 <transparent_crc>
    c865:	0f b6 05 0c 4e 00 00 	movzbl 0x4e0c(%rip),%eax        # 11678 <g_1754>
    c86c:	48 0f be c0          	movsbq %al,%rax
    c870:	8b 55 fc             	mov    -0x4(%rbp),%edx
    c873:	48 8d 35 9b 1b 00 00 	lea    0x1b9b(%rip),%rsi        # e415 <g_1560+0x1395>
    c87a:	48 89 c7             	mov    %rax,%rdi
    c87d:	e8 71 be ff ff       	callq  86f3 <transparent_crc>
    c882:	48 8b 05 f7 4d 00 00 	mov    0x4df7(%rip),%rax        # 11680 <g_1765>
    c889:	48 89 c1             	mov    %rax,%rcx
    c88c:	8b 45 fc             	mov    -0x4(%rbp),%eax
    c88f:	89 c2                	mov    %eax,%edx
    c891:	48 8d 35 87 1b 00 00 	lea    0x1b87(%rip),%rsi        # e41f <g_1560+0x139f>
    c898:	48 89 cf             	mov    %rcx,%rdi
    c89b:	e8 53 be ff ff       	callq  86f3 <transparent_crc>
    c8a0:	0f b6 05 e1 4d 00 00 	movzbl 0x4de1(%rip),%eax        # 11688 <g_1803>
    c8a7:	48 0f be c0          	movsbq %al,%rax
    c8ab:	8b 55 fc             	mov    -0x4(%rbp),%edx
    c8ae:	48 8d 35 71 1b 00 00 	lea    0x1b71(%rip),%rsi        # e426 <g_1560+0x13a6>
    c8b5:	48 89 c7             	mov    %rax,%rdi
    c8b8:	e8 36 be ff ff       	callq  86f3 <transparent_crc>
    c8bd:	8b 05 5d 47 00 00    	mov    0x475d(%rip),%eax        # 11020 <crc32_context>
    c8c3:	f7 d0                	not    %eax
    c8c5:	89 c2                	mov    %eax,%edx
    c8c7:	8b 45 fc             	mov    -0x4(%rbp),%eax
    c8ca:	89 c6                	mov    %eax,%esi
    c8cc:	89 d7                	mov    %edx,%edi
    c8ce:	e8 c1 a8 ff ff       	callq  7194 <platform_main_end>
    c8d3:	b8 00 00 00 00       	mov    $0x0,%eax
    c8d8:	c9                   	leaveq 
    c8d9:	c3                   	retq   
    c8da:	66 0f 1f 44 00 00    	nopw   0x0(%rax,%rax,1)

000000000000c8e0 <__libc_csu_init>:
    c8e0:	f3 0f 1e fa          	endbr64 
    c8e4:	41 57                	push   %r15
    c8e6:	4c 8d 3d b3 44 00 00 	lea    0x44b3(%rip),%r15        # 10da0 <__frame_dummy_init_array_entry>
    c8ed:	41 56                	push   %r14
    c8ef:	49 89 d6             	mov    %rdx,%r14
    c8f2:	41 55                	push   %r13
    c8f4:	49 89 f5             	mov    %rsi,%r13
    c8f7:	41 54                	push   %r12
    c8f9:	41 89 fc             	mov    %edi,%r12d
    c8fc:	55                   	push   %rbp
    c8fd:	48 8d 2d a4 44 00 00 	lea    0x44a4(%rip),%rbp        # 10da8 <__do_global_dtors_aux_fini_array_entry>
    c904:	53                   	push   %rbx
    c905:	4c 29 fd             	sub    %r15,%rbp
    c908:	48 83 ec 08          	sub    $0x8,%rsp
    c90c:	e8 ef a6 ff ff       	callq  7000 <_init>
    c911:	48 c1 fd 03          	sar    $0x3,%rbp
    c915:	74 1f                	je     c936 <__libc_csu_init+0x56>
    c917:	31 db                	xor    %ebx,%ebx
    c919:	0f 1f 80 00 00 00 00 	nopl   0x0(%rax)
    c920:	4c 89 f2             	mov    %r14,%rdx
    c923:	4c 89 ee             	mov    %r13,%rsi
    c926:	44 89 e7             	mov    %r12d,%edi
    c929:	41 ff 14 df          	callq  *(%r15,%rbx,8)
    c92d:	48 83 c3 01          	add    $0x1,%rbx
    c931:	48 39 dd             	cmp    %rbx,%rbp
    c934:	75 ea                	jne    c920 <__libc_csu_init+0x40>
    c936:	48 83 c4 08          	add    $0x8,%rsp
    c93a:	5b                   	pop    %rbx
    c93b:	5d                   	pop    %rbp
    c93c:	41 5c                	pop    %r12
    c93e:	41 5d                	pop    %r13
    c940:	41 5e                	pop    %r14
    c942:	41 5f                	pop    %r15
    c944:	c3                   	retq   
    c945:	66 66 2e 0f 1f 84 00 	data16 nopw %cs:0x0(%rax,%rax,1)
    c94c:	00 00 00 00 

000000000000c950 <__libc_csu_fini>:
    c950:	f3 0f 1e fa          	endbr64 
    c954:	c3                   	retq   
