


Disassembly of section .text:

00000000000030a0 <_start>:
    30a0:	f3 0f 1e fa          	endbr64 
    30a4:	31 ed                	xor    %ebp,%ebp
    30a6:	49 89 d1             	mov    %rdx,%r9
    30a9:	5e                   	pop    %rsi
    30aa:	48 89 e2             	mov    %rsp,%rdx
    30ad:	48 83 e4 f0          	and    $0xfffffffffffffff0,%rsp
    30b1:	50                   	push   %rax
    30b2:	54                   	push   %rsp
    30b3:	4c 8d 05 b6 6a 00 00 	lea    0x6ab6(%rip),%r8        # 9b70 <__libc_csu_fini>
    30ba:	48 8d 0d 3f 6a 00 00 	lea    0x6a3f(%rip),%rcx        # 9b00 <__libc_csu_init>
    30c1:	48 8d 3d 79 5e 00 00 	lea    0x5e79(%rip),%rdi        # 8f41 <main>
    30c8:	ff 15 12 af 00 00    	callq  *0xaf12(%rip)        # dfe0 <__libc_start_main@GLIBC_2.2.5>
    30ce:	f4                   	hlt    
    30cf:	90                   	nop

00000000000030d0 <deregister_tm_clones>:
    30d0:	48 8d 3d 39 c7 00 00 	lea    0xc739(%rip),%rdi        # f810 <__TMC_END__>
    30d7:	48 8d 05 32 c7 00 00 	lea    0xc732(%rip),%rax        # f810 <__TMC_END__>
    30de:	48 39 f8             	cmp    %rdi,%rax
    30e1:	74 15                	je     30f8 <deregister_tm_clones+0x28>
    30e3:	48 8b 05 ee ae 00 00 	mov    0xaeee(%rip),%rax        # dfd8 <_ITM_deregisterTMCloneTable>
    30ea:	48 85 c0             	test   %rax,%rax
    30ed:	74 09                	je     30f8 <deregister_tm_clones+0x28>
    30ef:	ff e0                	jmpq   *%rax
    30f1:	0f 1f 80 00 00 00 00 	nopl   0x0(%rax)
    30f8:	c3                   	retq   
    30f9:	0f 1f 80 00 00 00 00 	nopl   0x0(%rax)

0000000000003100 <register_tm_clones>:
    3100:	48 8d 3d 09 c7 00 00 	lea    0xc709(%rip),%rdi        # f810 <__TMC_END__>
    3107:	48 8d 35 02 c7 00 00 	lea    0xc702(%rip),%rsi        # f810 <__TMC_END__>
    310e:	48 29 fe             	sub    %rdi,%rsi
    3111:	48 89 f0             	mov    %rsi,%rax
    3114:	48 c1 ee 3f          	shr    $0x3f,%rsi
    3118:	48 c1 f8 03          	sar    $0x3,%rax
    311c:	48 01 c6             	add    %rax,%rsi
    311f:	48 d1 fe             	sar    %rsi
    3122:	74 14                	je     3138 <register_tm_clones+0x38>
    3124:	48 8b 05 c5 ae 00 00 	mov    0xaec5(%rip),%rax        # dff0 <_ITM_registerTMCloneTable>
    312b:	48 85 c0             	test   %rax,%rax
    312e:	74 08                	je     3138 <register_tm_clones+0x38>
    3130:	ff e0                	jmpq   *%rax
    3132:	66 0f 1f 44 00 00    	nopw   0x0(%rax,%rax,1)
    3138:	c3                   	retq   
    3139:	0f 1f 80 00 00 00 00 	nopl   0x0(%rax)

0000000000003140 <__do_global_dtors_aux>:
    3140:	f3 0f 1e fa          	endbr64 
    3144:	80 3d d5 c6 00 00 00 	cmpb   $0x0,0xc6d5(%rip)        # f820 <completed.8061>
    314b:	75 2b                	jne    3178 <__do_global_dtors_aux+0x38>
    314d:	55                   	push   %rbp
    314e:	48 83 3d a2 ae 00 00 	cmpq   $0x0,0xaea2(%rip)        # dff8 <__cxa_finalize@GLIBC_2.2.5>
    3155:	00 
    3156:	48 89 e5             	mov    %rsp,%rbp
    3159:	74 0c                	je     3167 <__do_global_dtors_aux+0x27>
    315b:	48 8b 3d a6 ae 00 00 	mov    0xaea6(%rip),%rdi        # e008 <__dso_handle>
    3162:	e8 f9 fe ff ff       	callq  3060 <__cxa_finalize@plt>
    3167:	e8 64 ff ff ff       	callq  30d0 <deregister_tm_clones>
    316c:	c6 05 ad c6 00 00 01 	movb   $0x1,0xc6ad(%rip)        # f820 <completed.8061>
    3173:	5d                   	pop    %rbp
    3174:	c3                   	retq   
    3175:	0f 1f 00             	nopl   (%rax)
    3178:	c3                   	retq   
    3179:	0f 1f 80 00 00 00 00 	nopl   0x0(%rax)

0000000000003180 <frame_dummy>:
    3180:	f3 0f 1e fa          	endbr64 
    3184:	e9 77 ff ff ff       	jmpq   3100 <register_tm_clones>

0000000000003189 <platform_main_begin>:
    3189:	f3 0f 1e fa          	endbr64 
    318d:	55                   	push   %rbp
    318e:	48 89 e5             	mov    %rsp,%rbp
    3191:	90                   	nop
    3192:	5d                   	pop    %rbp
    3193:	c3                   	retq   

0000000000003194 <platform_main_end>:
    3194:	f3 0f 1e fa          	endbr64 
    3198:	55                   	push   %rbp
    3199:	48 89 e5             	mov    %rsp,%rbp
    319c:	48 83 ec 10          	sub    $0x10,%rsp
    31a0:	89 7d fc             	mov    %edi,-0x4(%rbp)
    31a3:	89 75 f8             	mov    %esi,-0x8(%rbp)
    31a6:	8b 45 fc             	mov    -0x4(%rbp),%eax
    31a9:	89 c6                	mov    %eax,%esi
    31ab:	48 8d 3d 6e 6e 00 00 	lea    0x6e6e(%rip),%rdi        # a020 <_IO_stdin_used+0x20>
    31b2:	b8 00 00 00 00       	mov    $0x0,%eax
    31b7:	e8 c4 fe ff ff       	callq  3080 <printf@plt>
    31bc:	90                   	nop
    31bd:	c9                   	leaveq 
    31be:	c3                   	retq   

00000000000031bf <safe_unary_minus_func_int8_t_s>:
    31bf:	f3 0f 1e fa          	endbr64 
    31c3:	55                   	push   %rbp
    31c4:	48 89 e5             	mov    %rsp,%rbp
    31c7:	89 f8                	mov    %edi,%eax
    31c9:	88 45 fc             	mov    %al,-0x4(%rbp)
    31cc:	0f b6 45 fc          	movzbl -0x4(%rbp),%eax
    31d0:	f7 d8                	neg    %eax
    31d2:	5d                   	pop    %rbp
    31d3:	c3                   	retq   

00000000000031d4 <safe_add_func_int8_t_s_s>:
    31d4:	f3 0f 1e fa          	endbr64 
    31d8:	55                   	push   %rbp
    31d9:	48 89 e5             	mov    %rsp,%rbp
    31dc:	89 fa                	mov    %edi,%edx
    31de:	89 f0                	mov    %esi,%eax
    31e0:	88 55 fc             	mov    %dl,-0x4(%rbp)
    31e3:	88 45 f8             	mov    %al,-0x8(%rbp)
    31e6:	0f b6 55 fc          	movzbl -0x4(%rbp),%edx
    31ea:	0f b6 45 f8          	movzbl -0x8(%rbp),%eax
    31ee:	01 d0                	add    %edx,%eax
    31f0:	5d                   	pop    %rbp
    31f1:	c3                   	retq   

00000000000031f2 <safe_sub_func_int8_t_s_s>:
    31f2:	f3 0f 1e fa          	endbr64 
    31f6:	55                   	push   %rbp
    31f7:	48 89 e5             	mov    %rsp,%rbp
    31fa:	89 fa                	mov    %edi,%edx
    31fc:	89 f0                	mov    %esi,%eax
    31fe:	88 55 fc             	mov    %dl,-0x4(%rbp)
    3201:	88 45 f8             	mov    %al,-0x8(%rbp)
    3204:	0f b6 55 fc          	movzbl -0x4(%rbp),%edx
    3208:	0f b6 45 f8          	movzbl -0x8(%rbp),%eax
    320c:	29 c2                	sub    %eax,%edx
    320e:	89 d0                	mov    %edx,%eax
    3210:	5d                   	pop    %rbp
    3211:	c3                   	retq   

0000000000003212 <safe_mul_func_int8_t_s_s>:
    3212:	f3 0f 1e fa          	endbr64 
    3216:	55                   	push   %rbp
    3217:	48 89 e5             	mov    %rsp,%rbp
    321a:	89 fa                	mov    %edi,%edx
    321c:	89 f0                	mov    %esi,%eax
    321e:	88 55 fc             	mov    %dl,-0x4(%rbp)
    3221:	88 45 f8             	mov    %al,-0x8(%rbp)
    3224:	0f b6 45 fc          	movzbl -0x4(%rbp),%eax
    3228:	0f b6 55 f8          	movzbl -0x8(%rbp),%edx
    322c:	0f af c2             	imul   %edx,%eax
    322f:	5d                   	pop    %rbp
    3230:	c3                   	retq   

0000000000003231 <safe_mod_func_int8_t_s_s>:
    3231:	f3 0f 1e fa          	endbr64 
    3235:	55                   	push   %rbp
    3236:	48 89 e5             	mov    %rsp,%rbp
    3239:	89 fa                	mov    %edi,%edx
    323b:	89 f0                	mov    %esi,%eax
    323d:	88 55 fc             	mov    %dl,-0x4(%rbp)
    3240:	88 45 f8             	mov    %al,-0x8(%rbp)
    3243:	80 7d f8 00          	cmpb   $0x0,-0x8(%rbp)
    3247:	74 1b                	je     3264 <safe_mod_func_int8_t_s_s+0x33>
    3249:	80 7d fc 80          	cmpb   $0x80,-0x4(%rbp)
    324d:	75 06                	jne    3255 <safe_mod_func_int8_t_s_s+0x24>
    324f:	80 7d f8 ff          	cmpb   $0xff,-0x8(%rbp)
    3253:	74 0f                	je     3264 <safe_mod_func_int8_t_s_s+0x33>
    3255:	0f be 45 fc          	movsbl -0x4(%rbp),%eax
    3259:	0f be 4d f8          	movsbl -0x8(%rbp),%ecx
    325d:	99                   	cltd   
    325e:	f7 f9                	idiv   %ecx
    3260:	89 d0                	mov    %edx,%eax
    3262:	eb 04                	jmp    3268 <safe_mod_func_int8_t_s_s+0x37>
    3264:	0f b6 45 fc          	movzbl -0x4(%rbp),%eax
    3268:	5d                   	pop    %rbp
    3269:	c3                   	retq   

000000000000326a <safe_div_func_int8_t_s_s>:
    326a:	f3 0f 1e fa          	endbr64 
    326e:	55                   	push   %rbp
    326f:	48 89 e5             	mov    %rsp,%rbp
    3272:	89 fa                	mov    %edi,%edx
    3274:	89 f0                	mov    %esi,%eax
    3276:	88 55 fc             	mov    %dl,-0x4(%rbp)
    3279:	88 45 f8             	mov    %al,-0x8(%rbp)
    327c:	80 7d f8 00          	cmpb   $0x0,-0x8(%rbp)
    3280:	74 19                	je     329b <safe_div_func_int8_t_s_s+0x31>
    3282:	80 7d fc 80          	cmpb   $0x80,-0x4(%rbp)
    3286:	75 06                	jne    328e <safe_div_func_int8_t_s_s+0x24>
    3288:	80 7d f8 ff          	cmpb   $0xff,-0x8(%rbp)
    328c:	74 0d                	je     329b <safe_div_func_int8_t_s_s+0x31>
    328e:	0f be 45 fc          	movsbl -0x4(%rbp),%eax
    3292:	0f be 4d f8          	movsbl -0x8(%rbp),%ecx
    3296:	99                   	cltd   
    3297:	f7 f9                	idiv   %ecx
    3299:	eb 04                	jmp    329f <safe_div_func_int8_t_s_s+0x35>
    329b:	0f b6 45 fc          	movzbl -0x4(%rbp),%eax
    329f:	5d                   	pop    %rbp
    32a0:	c3                   	retq   

00000000000032a1 <safe_lshift_func_int8_t_s_s>:
    32a1:	f3 0f 1e fa          	endbr64 
    32a5:	55                   	push   %rbp
    32a6:	48 89 e5             	mov    %rsp,%rbp
    32a9:	89 f8                	mov    %edi,%eax
    32ab:	89 75 f8             	mov    %esi,-0x8(%rbp)
    32ae:	88 45 fc             	mov    %al,-0x4(%rbp)
    32b1:	80 7d fc 00          	cmpb   $0x0,-0x4(%rbp)
    32b5:	78 31                	js     32e8 <safe_lshift_func_int8_t_s_s+0x47>
    32b7:	83 7d f8 00          	cmpl   $0x0,-0x8(%rbp)
    32bb:	78 2b                	js     32e8 <safe_lshift_func_int8_t_s_s+0x47>
    32bd:	83 7d f8 1f          	cmpl   $0x1f,-0x8(%rbp)
    32c1:	7f 25                	jg     32e8 <safe_lshift_func_int8_t_s_s+0x47>
    32c3:	0f be 55 fc          	movsbl -0x4(%rbp),%edx
    32c7:	8b 45 f8             	mov    -0x8(%rbp),%eax
    32ca:	be 7f 00 00 00       	mov    $0x7f,%esi
    32cf:	89 c1                	mov    %eax,%ecx
    32d1:	d3 fe                	sar    %cl,%esi
    32d3:	89 f0                	mov    %esi,%eax
    32d5:	39 c2                	cmp    %eax,%edx
    32d7:	7f 0f                	jg     32e8 <safe_lshift_func_int8_t_s_s+0x47>
    32d9:	0f be 55 fc          	movsbl -0x4(%rbp),%edx
    32dd:	8b 45 f8             	mov    -0x8(%rbp),%eax
    32e0:	89 c1                	mov    %eax,%ecx
    32e2:	d3 e2                	shl    %cl,%edx
    32e4:	89 d0                	mov    %edx,%eax
    32e6:	eb 04                	jmp    32ec <safe_lshift_func_int8_t_s_s+0x4b>
    32e8:	0f b6 45 fc          	movzbl -0x4(%rbp),%eax
    32ec:	5d                   	pop    %rbp
    32ed:	c3                   	retq   

00000000000032ee <safe_lshift_func_int8_t_s_u>:
    32ee:	f3 0f 1e fa          	endbr64 
    32f2:	55                   	push   %rbp
    32f3:	48 89 e5             	mov    %rsp,%rbp
    32f6:	89 f8                	mov    %edi,%eax
    32f8:	89 75 f8             	mov    %esi,-0x8(%rbp)
    32fb:	88 45 fc             	mov    %al,-0x4(%rbp)
    32fe:	80 7d fc 00          	cmpb   $0x0,-0x4(%rbp)
    3302:	78 2b                	js     332f <safe_lshift_func_int8_t_s_u+0x41>
    3304:	83 7d f8 1f          	cmpl   $0x1f,-0x8(%rbp)
    3308:	77 25                	ja     332f <safe_lshift_func_int8_t_s_u+0x41>
    330a:	0f be 55 fc          	movsbl -0x4(%rbp),%edx
    330e:	8b 45 f8             	mov    -0x8(%rbp),%eax
    3311:	be 7f 00 00 00       	mov    $0x7f,%esi
    3316:	89 c1                	mov    %eax,%ecx
    3318:	d3 fe                	sar    %cl,%esi
    331a:	89 f0                	mov    %esi,%eax
    331c:	39 c2                	cmp    %eax,%edx
    331e:	7f 0f                	jg     332f <safe_lshift_func_int8_t_s_u+0x41>
    3320:	0f be 55 fc          	movsbl -0x4(%rbp),%edx
    3324:	8b 45 f8             	mov    -0x8(%rbp),%eax
    3327:	89 c1                	mov    %eax,%ecx
    3329:	d3 e2                	shl    %cl,%edx
    332b:	89 d0                	mov    %edx,%eax
    332d:	eb 04                	jmp    3333 <safe_lshift_func_int8_t_s_u+0x45>
    332f:	0f b6 45 fc          	movzbl -0x4(%rbp),%eax
    3333:	5d                   	pop    %rbp
    3334:	c3                   	retq   

0000000000003335 <safe_rshift_func_int8_t_s_s>:
    3335:	f3 0f 1e fa          	endbr64 
    3339:	55                   	push   %rbp
    333a:	48 89 e5             	mov    %rsp,%rbp
    333d:	89 f8                	mov    %edi,%eax
    333f:	89 75 f8             	mov    %esi,-0x8(%rbp)
    3342:	88 45 fc             	mov    %al,-0x4(%rbp)
    3345:	80 7d fc 00          	cmpb   $0x0,-0x4(%rbp)
    3349:	78 1b                	js     3366 <safe_rshift_func_int8_t_s_s+0x31>
    334b:	83 7d f8 00          	cmpl   $0x0,-0x8(%rbp)
    334f:	78 15                	js     3366 <safe_rshift_func_int8_t_s_s+0x31>
    3351:	83 7d f8 1f          	cmpl   $0x1f,-0x8(%rbp)
    3355:	7f 0f                	jg     3366 <safe_rshift_func_int8_t_s_s+0x31>
    3357:	0f be 55 fc          	movsbl -0x4(%rbp),%edx
    335b:	8b 45 f8             	mov    -0x8(%rbp),%eax
    335e:	89 c1                	mov    %eax,%ecx
    3360:	d3 fa                	sar    %cl,%edx
    3362:	89 d0                	mov    %edx,%eax
    3364:	eb 04                	jmp    336a <safe_rshift_func_int8_t_s_s+0x35>
    3366:	0f b6 45 fc          	movzbl -0x4(%rbp),%eax
    336a:	5d                   	pop    %rbp
    336b:	c3                   	retq   

000000000000336c <safe_rshift_func_int8_t_s_u>:
    336c:	f3 0f 1e fa          	endbr64 
    3370:	55                   	push   %rbp
    3371:	48 89 e5             	mov    %rsp,%rbp
    3374:	89 f8                	mov    %edi,%eax
    3376:	89 75 f8             	mov    %esi,-0x8(%rbp)
    3379:	88 45 fc             	mov    %al,-0x4(%rbp)
    337c:	80 7d fc 00          	cmpb   $0x0,-0x4(%rbp)
    3380:	78 15                	js     3397 <safe_rshift_func_int8_t_s_u+0x2b>
    3382:	83 7d f8 1f          	cmpl   $0x1f,-0x8(%rbp)
    3386:	77 0f                	ja     3397 <safe_rshift_func_int8_t_s_u+0x2b>
    3388:	0f be 55 fc          	movsbl -0x4(%rbp),%edx
    338c:	8b 45 f8             	mov    -0x8(%rbp),%eax
    338f:	89 c1                	mov    %eax,%ecx
    3391:	d3 fa                	sar    %cl,%edx
    3393:	89 d0                	mov    %edx,%eax
    3395:	eb 04                	jmp    339b <safe_rshift_func_int8_t_s_u+0x2f>
    3397:	0f b6 45 fc          	movzbl -0x4(%rbp),%eax
    339b:	5d                   	pop    %rbp
    339c:	c3                   	retq   

000000000000339d <safe_unary_minus_func_int16_t_s>:
    339d:	f3 0f 1e fa          	endbr64 
    33a1:	55                   	push   %rbp
    33a2:	48 89 e5             	mov    %rsp,%rbp
    33a5:	89 f8                	mov    %edi,%eax
    33a7:	66 89 45 fc          	mov    %ax,-0x4(%rbp)
    33ab:	0f b7 45 fc          	movzwl -0x4(%rbp),%eax
    33af:	f7 d8                	neg    %eax
    33b1:	5d                   	pop    %rbp
    33b2:	c3                   	retq   

00000000000033b3 <safe_add_func_int16_t_s_s>:
    33b3:	f3 0f 1e fa          	endbr64 
    33b7:	55                   	push   %rbp
    33b8:	48 89 e5             	mov    %rsp,%rbp
    33bb:	89 fa                	mov    %edi,%edx
    33bd:	89 f0                	mov    %esi,%eax
    33bf:	66 89 55 fc          	mov    %dx,-0x4(%rbp)
    33c3:	66 89 45 f8          	mov    %ax,-0x8(%rbp)
    33c7:	0f b7 55 fc          	movzwl -0x4(%rbp),%edx
    33cb:	0f b7 45 f8          	movzwl -0x8(%rbp),%eax
    33cf:	01 d0                	add    %edx,%eax
    33d1:	5d                   	pop    %rbp
    33d2:	c3                   	retq   

00000000000033d3 <safe_sub_func_int16_t_s_s>:
    33d3:	f3 0f 1e fa          	endbr64 
    33d7:	55                   	push   %rbp
    33d8:	48 89 e5             	mov    %rsp,%rbp
    33db:	89 fa                	mov    %edi,%edx
    33dd:	89 f0                	mov    %esi,%eax
    33df:	66 89 55 fc          	mov    %dx,-0x4(%rbp)
    33e3:	66 89 45 f8          	mov    %ax,-0x8(%rbp)
    33e7:	0f b7 55 fc          	movzwl -0x4(%rbp),%edx
    33eb:	0f b7 45 f8          	movzwl -0x8(%rbp),%eax
    33ef:	29 c2                	sub    %eax,%edx
    33f1:	89 d0                	mov    %edx,%eax
    33f3:	5d                   	pop    %rbp
    33f4:	c3                   	retq   

00000000000033f5 <safe_mul_func_int16_t_s_s>:
    33f5:	f3 0f 1e fa          	endbr64 
    33f9:	55                   	push   %rbp
    33fa:	48 89 e5             	mov    %rsp,%rbp
    33fd:	89 fa                	mov    %edi,%edx
    33ff:	89 f0                	mov    %esi,%eax
    3401:	66 89 55 fc          	mov    %dx,-0x4(%rbp)
    3405:	66 89 45 f8          	mov    %ax,-0x8(%rbp)
    3409:	0f b7 55 fc          	movzwl -0x4(%rbp),%edx
    340d:	0f b7 45 f8          	movzwl -0x8(%rbp),%eax
    3411:	0f af c2             	imul   %edx,%eax
    3414:	5d                   	pop    %rbp
    3415:	c3                   	retq   

0000000000003416 <safe_mod_func_int16_t_s_s>:
    3416:	f3 0f 1e fa          	endbr64 
    341a:	55                   	push   %rbp
    341b:	48 89 e5             	mov    %rsp,%rbp
    341e:	89 fa                	mov    %edi,%edx
    3420:	89 f0                	mov    %esi,%eax
    3422:	66 89 55 fc          	mov    %dx,-0x4(%rbp)
    3426:	66 89 45 f8          	mov    %ax,-0x8(%rbp)
    342a:	66 83 7d f8 00       	cmpw   $0x0,-0x8(%rbp)
    342f:	74 1e                	je     344f <safe_mod_func_int16_t_s_s+0x39>
    3431:	66 81 7d fc 00 80    	cmpw   $0x8000,-0x4(%rbp)
    3437:	75 07                	jne    3440 <safe_mod_func_int16_t_s_s+0x2a>
    3439:	66 83 7d f8 ff       	cmpw   $0xffff,-0x8(%rbp)
    343e:	74 0f                	je     344f <safe_mod_func_int16_t_s_s+0x39>
    3440:	0f bf 45 fc          	movswl -0x4(%rbp),%eax
    3444:	0f bf 4d f8          	movswl -0x8(%rbp),%ecx
    3448:	99                   	cltd   
    3449:	f7 f9                	idiv   %ecx
    344b:	89 d0                	mov    %edx,%eax
    344d:	eb 04                	jmp    3453 <safe_mod_func_int16_t_s_s+0x3d>
    344f:	0f b7 45 fc          	movzwl -0x4(%rbp),%eax
    3453:	5d                   	pop    %rbp
    3454:	c3                   	retq   

0000000000003455 <safe_div_func_int16_t_s_s>:
    3455:	f3 0f 1e fa          	endbr64 
    3459:	55                   	push   %rbp
    345a:	48 89 e5             	mov    %rsp,%rbp
    345d:	89 fa                	mov    %edi,%edx
    345f:	89 f0                	mov    %esi,%eax
    3461:	66 89 55 fc          	mov    %dx,-0x4(%rbp)
    3465:	66 89 45 f8          	mov    %ax,-0x8(%rbp)
    3469:	66 83 7d f8 00       	cmpw   $0x0,-0x8(%rbp)
    346e:	74 1c                	je     348c <safe_div_func_int16_t_s_s+0x37>
    3470:	66 81 7d fc 00 80    	cmpw   $0x8000,-0x4(%rbp)
    3476:	75 07                	jne    347f <safe_div_func_int16_t_s_s+0x2a>
    3478:	66 83 7d f8 ff       	cmpw   $0xffff,-0x8(%rbp)
    347d:	74 0d                	je     348c <safe_div_func_int16_t_s_s+0x37>
    347f:	0f bf 45 fc          	movswl -0x4(%rbp),%eax
    3483:	0f bf 4d f8          	movswl -0x8(%rbp),%ecx
    3487:	99                   	cltd   
    3488:	f7 f9                	idiv   %ecx
    348a:	eb 04                	jmp    3490 <safe_div_func_int16_t_s_s+0x3b>
    348c:	0f b7 45 fc          	movzwl -0x4(%rbp),%eax
    3490:	5d                   	pop    %rbp
    3491:	c3                   	retq   

0000000000003492 <safe_lshift_func_int16_t_s_s>:
    3492:	f3 0f 1e fa          	endbr64 
    3496:	55                   	push   %rbp
    3497:	48 89 e5             	mov    %rsp,%rbp
    349a:	89 f8                	mov    %edi,%eax
    349c:	89 75 f8             	mov    %esi,-0x8(%rbp)
    349f:	66 89 45 fc          	mov    %ax,-0x4(%rbp)
    34a3:	66 83 7d fc 00       	cmpw   $0x0,-0x4(%rbp)
    34a8:	78 31                	js     34db <safe_lshift_func_int16_t_s_s+0x49>
    34aa:	83 7d f8 00          	cmpl   $0x0,-0x8(%rbp)
    34ae:	78 2b                	js     34db <safe_lshift_func_int16_t_s_s+0x49>
    34b0:	83 7d f8 1f          	cmpl   $0x1f,-0x8(%rbp)
    34b4:	7f 25                	jg     34db <safe_lshift_func_int16_t_s_s+0x49>
    34b6:	0f bf 55 fc          	movswl -0x4(%rbp),%edx
    34ba:	8b 45 f8             	mov    -0x8(%rbp),%eax
    34bd:	be ff 7f 00 00       	mov    $0x7fff,%esi
    34c2:	89 c1                	mov    %eax,%ecx
    34c4:	d3 fe                	sar    %cl,%esi
    34c6:	89 f0                	mov    %esi,%eax
    34c8:	39 c2                	cmp    %eax,%edx
    34ca:	7f 0f                	jg     34db <safe_lshift_func_int16_t_s_s+0x49>
    34cc:	0f bf 55 fc          	movswl -0x4(%rbp),%edx
    34d0:	8b 45 f8             	mov    -0x8(%rbp),%eax
    34d3:	89 c1                	mov    %eax,%ecx
    34d5:	d3 e2                	shl    %cl,%edx
    34d7:	89 d0                	mov    %edx,%eax
    34d9:	eb 04                	jmp    34df <safe_lshift_func_int16_t_s_s+0x4d>
    34db:	0f b7 45 fc          	movzwl -0x4(%rbp),%eax
    34df:	5d                   	pop    %rbp
    34e0:	c3                   	retq   

00000000000034e1 <safe_lshift_func_int16_t_s_u>:
    34e1:	f3 0f 1e fa          	endbr64 
    34e5:	55                   	push   %rbp
    34e6:	48 89 e5             	mov    %rsp,%rbp
    34e9:	89 f8                	mov    %edi,%eax
    34eb:	89 75 f8             	mov    %esi,-0x8(%rbp)
    34ee:	66 89 45 fc          	mov    %ax,-0x4(%rbp)
    34f2:	66 83 7d fc 00       	cmpw   $0x0,-0x4(%rbp)
    34f7:	78 2b                	js     3524 <safe_lshift_func_int16_t_s_u+0x43>
    34f9:	83 7d f8 1f          	cmpl   $0x1f,-0x8(%rbp)
    34fd:	77 25                	ja     3524 <safe_lshift_func_int16_t_s_u+0x43>
    34ff:	0f bf 55 fc          	movswl -0x4(%rbp),%edx
    3503:	8b 45 f8             	mov    -0x8(%rbp),%eax
    3506:	be ff 7f 00 00       	mov    $0x7fff,%esi
    350b:	89 c1                	mov    %eax,%ecx
    350d:	d3 fe                	sar    %cl,%esi
    350f:	89 f0                	mov    %esi,%eax
    3511:	39 c2                	cmp    %eax,%edx
    3513:	7f 0f                	jg     3524 <safe_lshift_func_int16_t_s_u+0x43>
    3515:	0f bf 55 fc          	movswl -0x4(%rbp),%edx
    3519:	8b 45 f8             	mov    -0x8(%rbp),%eax
    351c:	89 c1                	mov    %eax,%ecx
    351e:	d3 e2                	shl    %cl,%edx
    3520:	89 d0                	mov    %edx,%eax
    3522:	eb 04                	jmp    3528 <safe_lshift_func_int16_t_s_u+0x47>
    3524:	0f b7 45 fc          	movzwl -0x4(%rbp),%eax
    3528:	5d                   	pop    %rbp
    3529:	c3                   	retq   

000000000000352a <safe_rshift_func_int16_t_s_s>:
    352a:	f3 0f 1e fa          	endbr64 
    352e:	55                   	push   %rbp
    352f:	48 89 e5             	mov    %rsp,%rbp
    3532:	89 f8                	mov    %edi,%eax
    3534:	89 75 f8             	mov    %esi,-0x8(%rbp)
    3537:	66 89 45 fc          	mov    %ax,-0x4(%rbp)
    353b:	66 83 7d fc 00       	cmpw   $0x0,-0x4(%rbp)
    3540:	78 1b                	js     355d <safe_rshift_func_int16_t_s_s+0x33>
    3542:	83 7d f8 00          	cmpl   $0x0,-0x8(%rbp)
    3546:	78 15                	js     355d <safe_rshift_func_int16_t_s_s+0x33>
    3548:	83 7d f8 1f          	cmpl   $0x1f,-0x8(%rbp)
    354c:	7f 0f                	jg     355d <safe_rshift_func_int16_t_s_s+0x33>
    354e:	0f bf 55 fc          	movswl -0x4(%rbp),%edx
    3552:	8b 45 f8             	mov    -0x8(%rbp),%eax
    3555:	89 c1                	mov    %eax,%ecx
    3557:	d3 fa                	sar    %cl,%edx
    3559:	89 d0                	mov    %edx,%eax
    355b:	eb 04                	jmp    3561 <safe_rshift_func_int16_t_s_s+0x37>
    355d:	0f b7 45 fc          	movzwl -0x4(%rbp),%eax
    3561:	5d                   	pop    %rbp
    3562:	c3                   	retq   

0000000000003563 <safe_rshift_func_int16_t_s_u>:
    3563:	f3 0f 1e fa          	endbr64 
    3567:	55                   	push   %rbp
    3568:	48 89 e5             	mov    %rsp,%rbp
    356b:	89 f8                	mov    %edi,%eax
    356d:	89 75 f8             	mov    %esi,-0x8(%rbp)
    3570:	66 89 45 fc          	mov    %ax,-0x4(%rbp)
    3574:	66 83 7d fc 00       	cmpw   $0x0,-0x4(%rbp)
    3579:	78 15                	js     3590 <safe_rshift_func_int16_t_s_u+0x2d>
    357b:	83 7d f8 1f          	cmpl   $0x1f,-0x8(%rbp)
    357f:	77 0f                	ja     3590 <safe_rshift_func_int16_t_s_u+0x2d>
    3581:	0f bf 55 fc          	movswl -0x4(%rbp),%edx
    3585:	8b 45 f8             	mov    -0x8(%rbp),%eax
    3588:	89 c1                	mov    %eax,%ecx
    358a:	d3 fa                	sar    %cl,%edx
    358c:	89 d0                	mov    %edx,%eax
    358e:	eb 04                	jmp    3594 <safe_rshift_func_int16_t_s_u+0x31>
    3590:	0f b7 45 fc          	movzwl -0x4(%rbp),%eax
    3594:	5d                   	pop    %rbp
    3595:	c3                   	retq   

0000000000003596 <safe_unary_minus_func_int32_t_s>:
    3596:	f3 0f 1e fa          	endbr64 
    359a:	55                   	push   %rbp
    359b:	48 89 e5             	mov    %rsp,%rbp
    359e:	89 7d fc             	mov    %edi,-0x4(%rbp)
    35a1:	81 7d fc 00 00 00 80 	cmpl   $0x80000000,-0x4(%rbp)
    35a8:	74 07                	je     35b1 <safe_unary_minus_func_int32_t_s+0x1b>
    35aa:	8b 45 fc             	mov    -0x4(%rbp),%eax
    35ad:	f7 d8                	neg    %eax
    35af:	eb 03                	jmp    35b4 <safe_unary_minus_func_int32_t_s+0x1e>
    35b1:	8b 45 fc             	mov    -0x4(%rbp),%eax
    35b4:	5d                   	pop    %rbp
    35b5:	c3                   	retq   

00000000000035b6 <safe_add_func_int32_t_s_s>:
    35b6:	f3 0f 1e fa          	endbr64 
    35ba:	55                   	push   %rbp
    35bb:	48 89 e5             	mov    %rsp,%rbp
    35be:	89 7d fc             	mov    %edi,-0x4(%rbp)
    35c1:	89 75 f8             	mov    %esi,-0x8(%rbp)
    35c4:	83 7d fc 00          	cmpl   $0x0,-0x4(%rbp)
    35c8:	7e 13                	jle    35dd <safe_add_func_int32_t_s_s+0x27>
    35ca:	83 7d f8 00          	cmpl   $0x0,-0x8(%rbp)
    35ce:	7e 0d                	jle    35dd <safe_add_func_int32_t_s_s+0x27>
    35d0:	b8 ff ff ff 7f       	mov    $0x7fffffff,%eax
    35d5:	2b 45 f8             	sub    -0x8(%rbp),%eax
    35d8:	39 45 fc             	cmp    %eax,-0x4(%rbp)
    35db:	7f 23                	jg     3600 <safe_add_func_int32_t_s_s+0x4a>
    35dd:	83 7d fc 00          	cmpl   $0x0,-0x4(%rbp)
    35e1:	79 13                	jns    35f6 <safe_add_func_int32_t_s_s+0x40>
    35e3:	83 7d f8 00          	cmpl   $0x0,-0x8(%rbp)
    35e7:	79 0d                	jns    35f6 <safe_add_func_int32_t_s_s+0x40>
    35e9:	b8 00 00 00 80       	mov    $0x80000000,%eax
    35ee:	2b 45 f8             	sub    -0x8(%rbp),%eax
    35f1:	39 45 fc             	cmp    %eax,-0x4(%rbp)
    35f4:	7c 0a                	jl     3600 <safe_add_func_int32_t_s_s+0x4a>
    35f6:	8b 55 fc             	mov    -0x4(%rbp),%edx
    35f9:	8b 45 f8             	mov    -0x8(%rbp),%eax
    35fc:	01 d0                	add    %edx,%eax
    35fe:	eb 03                	jmp    3603 <safe_add_func_int32_t_s_s+0x4d>
    3600:	8b 45 fc             	mov    -0x4(%rbp),%eax
    3603:	5d                   	pop    %rbp
    3604:	c3                   	retq   

0000000000003605 <safe_sub_func_int32_t_s_s>:
    3605:	f3 0f 1e fa          	endbr64 
    3609:	55                   	push   %rbp
    360a:	48 89 e5             	mov    %rsp,%rbp
    360d:	89 7d fc             	mov    %edi,-0x4(%rbp)
    3610:	89 75 f8             	mov    %esi,-0x8(%rbp)
    3613:	8b 45 fc             	mov    -0x4(%rbp),%eax
    3616:	33 45 f8             	xor    -0x8(%rbp),%eax
    3619:	89 c2                	mov    %eax,%edx
    361b:	8b 45 fc             	mov    -0x4(%rbp),%eax
    361e:	33 45 f8             	xor    -0x8(%rbp),%eax
    3621:	25 00 00 00 80       	and    $0x80000000,%eax
    3626:	33 45 fc             	xor    -0x4(%rbp),%eax
    3629:	2b 45 f8             	sub    -0x8(%rbp),%eax
    362c:	33 45 f8             	xor    -0x8(%rbp),%eax
    362f:	21 d0                	and    %edx,%eax
    3631:	85 c0                	test   %eax,%eax
    3633:	78 08                	js     363d <safe_sub_func_int32_t_s_s+0x38>
    3635:	8b 45 fc             	mov    -0x4(%rbp),%eax
    3638:	2b 45 f8             	sub    -0x8(%rbp),%eax
    363b:	eb 03                	jmp    3640 <safe_sub_func_int32_t_s_s+0x3b>
    363d:	8b 45 fc             	mov    -0x4(%rbp),%eax
    3640:	5d                   	pop    %rbp
    3641:	c3                   	retq   

0000000000003642 <safe_mul_func_int32_t_s_s>:
    3642:	f3 0f 1e fa          	endbr64 
    3646:	55                   	push   %rbp
    3647:	48 89 e5             	mov    %rsp,%rbp
    364a:	89 7d fc             	mov    %edi,-0x4(%rbp)
    364d:	89 75 f8             	mov    %esi,-0x8(%rbp)
    3650:	83 7d fc 00          	cmpl   $0x0,-0x4(%rbp)
    3654:	7e 14                	jle    366a <safe_mul_func_int32_t_s_s+0x28>
    3656:	83 7d f8 00          	cmpl   $0x0,-0x8(%rbp)
    365a:	7e 0e                	jle    366a <safe_mul_func_int32_t_s_s+0x28>
    365c:	b8 ff ff ff 7f       	mov    $0x7fffffff,%eax
    3661:	99                   	cltd   
    3662:	f7 7d f8             	idivl  -0x8(%rbp)
    3665:	39 45 fc             	cmp    %eax,-0x4(%rbp)
    3668:	7f 5d                	jg     36c7 <safe_mul_func_int32_t_s_s+0x85>
    366a:	83 7d fc 00          	cmpl   $0x0,-0x4(%rbp)
    366e:	7e 14                	jle    3684 <safe_mul_func_int32_t_s_s+0x42>
    3670:	83 7d f8 00          	cmpl   $0x0,-0x8(%rbp)
    3674:	7f 0e                	jg     3684 <safe_mul_func_int32_t_s_s+0x42>
    3676:	b8 00 00 00 80       	mov    $0x80000000,%eax
    367b:	99                   	cltd   
    367c:	f7 7d fc             	idivl  -0x4(%rbp)
    367f:	39 45 f8             	cmp    %eax,-0x8(%rbp)
    3682:	7c 43                	jl     36c7 <safe_mul_func_int32_t_s_s+0x85>
    3684:	83 7d fc 00          	cmpl   $0x0,-0x4(%rbp)
    3688:	7f 14                	jg     369e <safe_mul_func_int32_t_s_s+0x5c>
    368a:	83 7d f8 00          	cmpl   $0x0,-0x8(%rbp)
    368e:	7e 0e                	jle    369e <safe_mul_func_int32_t_s_s+0x5c>
    3690:	b8 00 00 00 80       	mov    $0x80000000,%eax
    3695:	99                   	cltd   
    3696:	f7 7d f8             	idivl  -0x8(%rbp)
    3699:	39 45 fc             	cmp    %eax,-0x4(%rbp)
    369c:	7c 29                	jl     36c7 <safe_mul_func_int32_t_s_s+0x85>
    369e:	83 7d fc 00          	cmpl   $0x0,-0x4(%rbp)
    36a2:	7f 1a                	jg     36be <safe_mul_func_int32_t_s_s+0x7c>
    36a4:	83 7d f8 00          	cmpl   $0x0,-0x8(%rbp)
    36a8:	7f 14                	jg     36be <safe_mul_func_int32_t_s_s+0x7c>
    36aa:	83 7d fc 00          	cmpl   $0x0,-0x4(%rbp)
    36ae:	74 0e                	je     36be <safe_mul_func_int32_t_s_s+0x7c>
    36b0:	b8 ff ff ff 7f       	mov    $0x7fffffff,%eax
    36b5:	99                   	cltd   
    36b6:	f7 7d fc             	idivl  -0x4(%rbp)
    36b9:	39 45 f8             	cmp    %eax,-0x8(%rbp)
    36bc:	7c 09                	jl     36c7 <safe_mul_func_int32_t_s_s+0x85>
    36be:	8b 45 fc             	mov    -0x4(%rbp),%eax
    36c1:	0f af 45 f8          	imul   -0x8(%rbp),%eax
    36c5:	eb 03                	jmp    36ca <safe_mul_func_int32_t_s_s+0x88>
    36c7:	8b 45 fc             	mov    -0x4(%rbp),%eax
    36ca:	5d                   	pop    %rbp
    36cb:	c3                   	retq   

00000000000036cc <safe_mod_func_int32_t_s_s>:
    36cc:	f3 0f 1e fa          	endbr64 
    36d0:	55                   	push   %rbp
    36d1:	48 89 e5             	mov    %rsp,%rbp
    36d4:	89 7d fc             	mov    %edi,-0x4(%rbp)
    36d7:	89 75 f8             	mov    %esi,-0x8(%rbp)
    36da:	83 7d f8 00          	cmpl   $0x0,-0x8(%rbp)
    36de:	74 1a                	je     36fa <safe_mod_func_int32_t_s_s+0x2e>
    36e0:	81 7d fc 00 00 00 80 	cmpl   $0x80000000,-0x4(%rbp)
    36e7:	75 06                	jne    36ef <safe_mod_func_int32_t_s_s+0x23>
    36e9:	83 7d f8 ff          	cmpl   $0xffffffff,-0x8(%rbp)
    36ed:	74 0b                	je     36fa <safe_mod_func_int32_t_s_s+0x2e>
    36ef:	8b 45 fc             	mov    -0x4(%rbp),%eax
    36f2:	99                   	cltd   
    36f3:	f7 7d f8             	idivl  -0x8(%rbp)
    36f6:	89 d0                	mov    %edx,%eax
    36f8:	eb 03                	jmp    36fd <safe_mod_func_int32_t_s_s+0x31>
    36fa:	8b 45 fc             	mov    -0x4(%rbp),%eax
    36fd:	5d                   	pop    %rbp
    36fe:	c3                   	retq   

00000000000036ff <safe_div_func_int32_t_s_s>:
    36ff:	f3 0f 1e fa          	endbr64 
    3703:	55                   	push   %rbp
    3704:	48 89 e5             	mov    %rsp,%rbp
    3707:	89 7d fc             	mov    %edi,-0x4(%rbp)
    370a:	89 75 f8             	mov    %esi,-0x8(%rbp)
    370d:	83 7d f8 00          	cmpl   $0x0,-0x8(%rbp)
    3711:	74 18                	je     372b <safe_div_func_int32_t_s_s+0x2c>
    3713:	81 7d fc 00 00 00 80 	cmpl   $0x80000000,-0x4(%rbp)
    371a:	75 06                	jne    3722 <safe_div_func_int32_t_s_s+0x23>
    371c:	83 7d f8 ff          	cmpl   $0xffffffff,-0x8(%rbp)
    3720:	74 09                	je     372b <safe_div_func_int32_t_s_s+0x2c>
    3722:	8b 45 fc             	mov    -0x4(%rbp),%eax
    3725:	99                   	cltd   
    3726:	f7 7d f8             	idivl  -0x8(%rbp)
    3729:	eb 03                	jmp    372e <safe_div_func_int32_t_s_s+0x2f>
    372b:	8b 45 fc             	mov    -0x4(%rbp),%eax
    372e:	5d                   	pop    %rbp
    372f:	c3                   	retq   

0000000000003730 <safe_lshift_func_int32_t_s_s>:
    3730:	f3 0f 1e fa          	endbr64 
    3734:	55                   	push   %rbp
    3735:	48 89 e5             	mov    %rsp,%rbp
    3738:	89 7d fc             	mov    %edi,-0x4(%rbp)
    373b:	89 75 f8             	mov    %esi,-0x8(%rbp)
    373e:	83 7d fc 00          	cmpl   $0x0,-0x4(%rbp)
    3742:	78 2d                	js     3771 <safe_lshift_func_int32_t_s_s+0x41>
    3744:	83 7d f8 00          	cmpl   $0x0,-0x8(%rbp)
    3748:	78 27                	js     3771 <safe_lshift_func_int32_t_s_s+0x41>
    374a:	83 7d f8 1f          	cmpl   $0x1f,-0x8(%rbp)
    374e:	7f 21                	jg     3771 <safe_lshift_func_int32_t_s_s+0x41>
    3750:	8b 45 f8             	mov    -0x8(%rbp),%eax
    3753:	ba ff ff ff 7f       	mov    $0x7fffffff,%edx
    3758:	89 c1                	mov    %eax,%ecx
    375a:	d3 fa                	sar    %cl,%edx
    375c:	89 d0                	mov    %edx,%eax
    375e:	39 45 fc             	cmp    %eax,-0x4(%rbp)
    3761:	7f 0e                	jg     3771 <safe_lshift_func_int32_t_s_s+0x41>
    3763:	8b 45 f8             	mov    -0x8(%rbp),%eax
    3766:	8b 55 fc             	mov    -0x4(%rbp),%edx
    3769:	89 c1                	mov    %eax,%ecx
    376b:	d3 e2                	shl    %cl,%edx
    376d:	89 d0                	mov    %edx,%eax
    376f:	eb 03                	jmp    3774 <safe_lshift_func_int32_t_s_s+0x44>
    3771:	8b 45 fc             	mov    -0x4(%rbp),%eax
    3774:	5d                   	pop    %rbp
    3775:	c3                   	retq   

0000000000003776 <safe_lshift_func_int32_t_s_u>:
    3776:	f3 0f 1e fa          	endbr64 
    377a:	55                   	push   %rbp
    377b:	48 89 e5             	mov    %rsp,%rbp
    377e:	89 7d fc             	mov    %edi,-0x4(%rbp)
    3781:	89 75 f8             	mov    %esi,-0x8(%rbp)
    3784:	83 7d fc 00          	cmpl   $0x0,-0x4(%rbp)
    3788:	78 27                	js     37b1 <safe_lshift_func_int32_t_s_u+0x3b>
    378a:	83 7d f8 1f          	cmpl   $0x1f,-0x8(%rbp)
    378e:	77 21                	ja     37b1 <safe_lshift_func_int32_t_s_u+0x3b>
    3790:	8b 45 f8             	mov    -0x8(%rbp),%eax
    3793:	ba ff ff ff 7f       	mov    $0x7fffffff,%edx
    3798:	89 c1                	mov    %eax,%ecx
    379a:	d3 fa                	sar    %cl,%edx
    379c:	89 d0                	mov    %edx,%eax
    379e:	39 45 fc             	cmp    %eax,-0x4(%rbp)
    37a1:	7f 0e                	jg     37b1 <safe_lshift_func_int32_t_s_u+0x3b>
    37a3:	8b 45 f8             	mov    -0x8(%rbp),%eax
    37a6:	8b 55 fc             	mov    -0x4(%rbp),%edx
    37a9:	89 c1                	mov    %eax,%ecx
    37ab:	d3 e2                	shl    %cl,%edx
    37ad:	89 d0                	mov    %edx,%eax
    37af:	eb 03                	jmp    37b4 <safe_lshift_func_int32_t_s_u+0x3e>
    37b1:	8b 45 fc             	mov    -0x4(%rbp),%eax
    37b4:	5d                   	pop    %rbp
    37b5:	c3                   	retq   

00000000000037b6 <safe_rshift_func_int32_t_s_s>:
    37b6:	f3 0f 1e fa          	endbr64 
    37ba:	55                   	push   %rbp
    37bb:	48 89 e5             	mov    %rsp,%rbp
    37be:	89 7d fc             	mov    %edi,-0x4(%rbp)
    37c1:	89 75 f8             	mov    %esi,-0x8(%rbp)
    37c4:	83 7d fc 00          	cmpl   $0x0,-0x4(%rbp)
    37c8:	78 1a                	js     37e4 <safe_rshift_func_int32_t_s_s+0x2e>
    37ca:	83 7d f8 00          	cmpl   $0x0,-0x8(%rbp)
    37ce:	78 14                	js     37e4 <safe_rshift_func_int32_t_s_s+0x2e>
    37d0:	83 7d f8 1f          	cmpl   $0x1f,-0x8(%rbp)
    37d4:	7f 0e                	jg     37e4 <safe_rshift_func_int32_t_s_s+0x2e>
    37d6:	8b 45 f8             	mov    -0x8(%rbp),%eax
    37d9:	8b 55 fc             	mov    -0x4(%rbp),%edx
    37dc:	89 c1                	mov    %eax,%ecx
    37de:	d3 fa                	sar    %cl,%edx
    37e0:	89 d0                	mov    %edx,%eax
    37e2:	eb 03                	jmp    37e7 <safe_rshift_func_int32_t_s_s+0x31>
    37e4:	8b 45 fc             	mov    -0x4(%rbp),%eax
    37e7:	5d                   	pop    %rbp
    37e8:	c3                   	retq   

00000000000037e9 <safe_rshift_func_int32_t_s_u>:
    37e9:	f3 0f 1e fa          	endbr64 
    37ed:	55                   	push   %rbp
    37ee:	48 89 e5             	mov    %rsp,%rbp
    37f1:	89 7d fc             	mov    %edi,-0x4(%rbp)
    37f4:	89 75 f8             	mov    %esi,-0x8(%rbp)
    37f7:	83 7d fc 00          	cmpl   $0x0,-0x4(%rbp)
    37fb:	78 14                	js     3811 <safe_rshift_func_int32_t_s_u+0x28>
    37fd:	83 7d f8 1f          	cmpl   $0x1f,-0x8(%rbp)
    3801:	77 0e                	ja     3811 <safe_rshift_func_int32_t_s_u+0x28>
    3803:	8b 45 f8             	mov    -0x8(%rbp),%eax
    3806:	8b 55 fc             	mov    -0x4(%rbp),%edx
    3809:	89 c1                	mov    %eax,%ecx
    380b:	d3 fa                	sar    %cl,%edx
    380d:	89 d0                	mov    %edx,%eax
    380f:	eb 03                	jmp    3814 <safe_rshift_func_int32_t_s_u+0x2b>
    3811:	8b 45 fc             	mov    -0x4(%rbp),%eax
    3814:	5d                   	pop    %rbp
    3815:	c3                   	retq   

0000000000003816 <safe_unary_minus_func_int64_t_s>:
    3816:	f3 0f 1e fa          	endbr64 
    381a:	55                   	push   %rbp
    381b:	48 89 e5             	mov    %rsp,%rbp
    381e:	48 89 7d f8          	mov    %rdi,-0x8(%rbp)
    3822:	48 b8 00 00 00 00 00 	movabs $0x8000000000000000,%rax
    3829:	00 00 80 
    382c:	48 39 45 f8          	cmp    %rax,-0x8(%rbp)
    3830:	74 09                	je     383b <safe_unary_minus_func_int64_t_s+0x25>
    3832:	48 8b 45 f8          	mov    -0x8(%rbp),%rax
    3836:	48 f7 d8             	neg    %rax
    3839:	eb 04                	jmp    383f <safe_unary_minus_func_int64_t_s+0x29>
    383b:	48 8b 45 f8          	mov    -0x8(%rbp),%rax
    383f:	5d                   	pop    %rbp
    3840:	c3                   	retq   

0000000000003841 <safe_add_func_int64_t_s_s>:
    3841:	f3 0f 1e fa          	endbr64 
    3845:	55                   	push   %rbp
    3846:	48 89 e5             	mov    %rsp,%rbp
    3849:	48 89 7d f8          	mov    %rdi,-0x8(%rbp)
    384d:	48 89 75 f0          	mov    %rsi,-0x10(%rbp)
    3851:	48 83 7d f8 00       	cmpq   $0x0,-0x8(%rbp)
    3856:	7e 1b                	jle    3873 <safe_add_func_int64_t_s_s+0x32>
    3858:	48 83 7d f0 00       	cmpq   $0x0,-0x10(%rbp)
    385d:	7e 14                	jle    3873 <safe_add_func_int64_t_s_s+0x32>
    385f:	48 b8 ff ff ff ff ff 	movabs $0x7fffffffffffffff,%rax
    3866:	ff ff 7f 
    3869:	48 2b 45 f0          	sub    -0x10(%rbp),%rax
    386d:	48 39 45 f8          	cmp    %rax,-0x8(%rbp)
    3871:	7f 2f                	jg     38a2 <safe_add_func_int64_t_s_s+0x61>
    3873:	48 83 7d f8 00       	cmpq   $0x0,-0x8(%rbp)
    3878:	79 1b                	jns    3895 <safe_add_func_int64_t_s_s+0x54>
    387a:	48 83 7d f0 00       	cmpq   $0x0,-0x10(%rbp)
    387f:	79 14                	jns    3895 <safe_add_func_int64_t_s_s+0x54>
    3881:	48 b8 00 00 00 00 00 	movabs $0x8000000000000000,%rax
    3888:	00 00 80 
    388b:	48 2b 45 f0          	sub    -0x10(%rbp),%rax
    388f:	48 39 45 f8          	cmp    %rax,-0x8(%rbp)
    3893:	7c 0d                	jl     38a2 <safe_add_func_int64_t_s_s+0x61>
    3895:	48 8b 55 f8          	mov    -0x8(%rbp),%rdx
    3899:	48 8b 45 f0          	mov    -0x10(%rbp),%rax
    389d:	48 01 d0             	add    %rdx,%rax
    38a0:	eb 04                	jmp    38a6 <safe_add_func_int64_t_s_s+0x65>
    38a2:	48 8b 45 f8          	mov    -0x8(%rbp),%rax
    38a6:	5d                   	pop    %rbp
    38a7:	c3                   	retq   

00000000000038a8 <safe_sub_func_int64_t_s_s>:
    38a8:	f3 0f 1e fa          	endbr64 
    38ac:	55                   	push   %rbp
    38ad:	48 89 e5             	mov    %rsp,%rbp
    38b0:	48 89 7d f8          	mov    %rdi,-0x8(%rbp)
    38b4:	48 89 75 f0          	mov    %rsi,-0x10(%rbp)
    38b8:	48 8b 45 f8          	mov    -0x8(%rbp),%rax
    38bc:	48 33 45 f0          	xor    -0x10(%rbp),%rax
    38c0:	48 89 c2             	mov    %rax,%rdx
    38c3:	48 8b 45 f8          	mov    -0x8(%rbp),%rax
    38c7:	48 33 45 f0          	xor    -0x10(%rbp),%rax
    38cb:	48 b9 00 00 00 00 00 	movabs $0x8000000000000000,%rcx
    38d2:	00 00 80 
    38d5:	48 21 c8             	and    %rcx,%rax
    38d8:	48 33 45 f8          	xor    -0x8(%rbp),%rax
    38dc:	48 2b 45 f0          	sub    -0x10(%rbp),%rax
    38e0:	48 33 45 f0          	xor    -0x10(%rbp),%rax
    38e4:	48 21 d0             	and    %rdx,%rax
    38e7:	48 85 c0             	test   %rax,%rax
    38ea:	78 0a                	js     38f6 <safe_sub_func_int64_t_s_s+0x4e>
    38ec:	48 8b 45 f8          	mov    -0x8(%rbp),%rax
    38f0:	48 2b 45 f0          	sub    -0x10(%rbp),%rax
    38f4:	eb 04                	jmp    38fa <safe_sub_func_int64_t_s_s+0x52>
    38f6:	48 8b 45 f8          	mov    -0x8(%rbp),%rax
    38fa:	5d                   	pop    %rbp
    38fb:	c3                   	retq   

00000000000038fc <safe_mul_func_int64_t_s_s>:
    38fc:	f3 0f 1e fa          	endbr64 
    3900:	55                   	push   %rbp
    3901:	48 89 e5             	mov    %rsp,%rbp
    3904:	48 89 7d f8          	mov    %rdi,-0x8(%rbp)
    3908:	48 89 75 f0          	mov    %rsi,-0x10(%rbp)
    390c:	48 83 7d f8 00       	cmpq   $0x0,-0x8(%rbp)
    3911:	7e 1d                	jle    3930 <safe_mul_func_int64_t_s_s+0x34>
    3913:	48 83 7d f0 00       	cmpq   $0x0,-0x10(%rbp)
    3918:	7e 16                	jle    3930 <safe_mul_func_int64_t_s_s+0x34>
    391a:	48 b8 ff ff ff ff ff 	movabs $0x7fffffffffffffff,%rax
    3921:	ff ff 7f 
    3924:	48 99                	cqto   
    3926:	48 f7 7d f0          	idivq  -0x10(%rbp)
    392a:	48 39 45 f8          	cmp    %rax,-0x8(%rbp)
    392e:	7f 7e                	jg     39ae <safe_mul_func_int64_t_s_s+0xb2>
    3930:	48 83 7d f8 00       	cmpq   $0x0,-0x8(%rbp)
    3935:	7e 1d                	jle    3954 <safe_mul_func_int64_t_s_s+0x58>
    3937:	48 83 7d f0 00       	cmpq   $0x0,-0x10(%rbp)
    393c:	7f 16                	jg     3954 <safe_mul_func_int64_t_s_s+0x58>
    393e:	48 b8 00 00 00 00 00 	movabs $0x8000000000000000,%rax
    3945:	00 00 80 
    3948:	48 99                	cqto   
    394a:	48 f7 7d f8          	idivq  -0x8(%rbp)
    394e:	48 39 45 f0          	cmp    %rax,-0x10(%rbp)
    3952:	7c 5a                	jl     39ae <safe_mul_func_int64_t_s_s+0xb2>
    3954:	48 83 7d f8 00       	cmpq   $0x0,-0x8(%rbp)
    3959:	7f 1d                	jg     3978 <safe_mul_func_int64_t_s_s+0x7c>
    395b:	48 83 7d f0 00       	cmpq   $0x0,-0x10(%rbp)
    3960:	7e 16                	jle    3978 <safe_mul_func_int64_t_s_s+0x7c>
    3962:	48 b8 00 00 00 00 00 	movabs $0x8000000000000000,%rax
    3969:	00 00 80 
    396c:	48 99                	cqto   
    396e:	48 f7 7d f0          	idivq  -0x10(%rbp)
    3972:	48 39 45 f8          	cmp    %rax,-0x8(%rbp)
    3976:	7c 36                	jl     39ae <safe_mul_func_int64_t_s_s+0xb2>
    3978:	48 83 7d f8 00       	cmpq   $0x0,-0x8(%rbp)
    397d:	7f 24                	jg     39a3 <safe_mul_func_int64_t_s_s+0xa7>
    397f:	48 83 7d f0 00       	cmpq   $0x0,-0x10(%rbp)
    3984:	7f 1d                	jg     39a3 <safe_mul_func_int64_t_s_s+0xa7>
    3986:	48 83 7d f8 00       	cmpq   $0x0,-0x8(%rbp)
    398b:	74 16                	je     39a3 <safe_mul_func_int64_t_s_s+0xa7>
    398d:	48 b8 ff ff ff ff ff 	movabs $0x7fffffffffffffff,%rax
    3994:	ff ff 7f 
    3997:	48 99                	cqto   
    3999:	48 f7 7d f8          	idivq  -0x8(%rbp)
    399d:	48 39 45 f0          	cmp    %rax,-0x10(%rbp)
    39a1:	7c 0b                	jl     39ae <safe_mul_func_int64_t_s_s+0xb2>
    39a3:	48 8b 45 f8          	mov    -0x8(%rbp),%rax
    39a7:	48 0f af 45 f0       	imul   -0x10(%rbp),%rax
    39ac:	eb 04                	jmp    39b2 <safe_mul_func_int64_t_s_s+0xb6>
    39ae:	48 8b 45 f8          	mov    -0x8(%rbp),%rax
    39b2:	5d                   	pop    %rbp
    39b3:	c3                   	retq   

00000000000039b4 <safe_mod_func_int64_t_s_s>:
    39b4:	f3 0f 1e fa          	endbr64 
    39b8:	55                   	push   %rbp
    39b9:	48 89 e5             	mov    %rsp,%rbp
    39bc:	48 89 7d f8          	mov    %rdi,-0x8(%rbp)
    39c0:	48 89 75 f0          	mov    %rsi,-0x10(%rbp)
    39c4:	48 83 7d f0 00       	cmpq   $0x0,-0x10(%rbp)
    39c9:	74 26                	je     39f1 <safe_mod_func_int64_t_s_s+0x3d>
    39cb:	48 b8 00 00 00 00 00 	movabs $0x8000000000000000,%rax
    39d2:	00 00 80 
    39d5:	48 39 45 f8          	cmp    %rax,-0x8(%rbp)
    39d9:	75 07                	jne    39e2 <safe_mod_func_int64_t_s_s+0x2e>
    39db:	48 83 7d f0 ff       	cmpq   $0xffffffffffffffff,-0x10(%rbp)
    39e0:	74 0f                	je     39f1 <safe_mod_func_int64_t_s_s+0x3d>
    39e2:	48 8b 45 f8          	mov    -0x8(%rbp),%rax
    39e6:	48 99                	cqto   
    39e8:	48 f7 7d f0          	idivq  -0x10(%rbp)
    39ec:	48 89 d0             	mov    %rdx,%rax
    39ef:	eb 04                	jmp    39f5 <safe_mod_func_int64_t_s_s+0x41>
    39f1:	48 8b 45 f8          	mov    -0x8(%rbp),%rax
    39f5:	5d                   	pop    %rbp
    39f6:	c3                   	retq   

00000000000039f7 <safe_div_func_int64_t_s_s>:
    39f7:	f3 0f 1e fa          	endbr64 
    39fb:	55                   	push   %rbp
    39fc:	48 89 e5             	mov    %rsp,%rbp
    39ff:	48 89 7d f8          	mov    %rdi,-0x8(%rbp)
    3a03:	48 89 75 f0          	mov    %rsi,-0x10(%rbp)
    3a07:	48 83 7d f0 00       	cmpq   $0x0,-0x10(%rbp)
    3a0c:	74 23                	je     3a31 <safe_div_func_int64_t_s_s+0x3a>
    3a0e:	48 b8 00 00 00 00 00 	movabs $0x8000000000000000,%rax
    3a15:	00 00 80 
    3a18:	48 39 45 f8          	cmp    %rax,-0x8(%rbp)
    3a1c:	75 07                	jne    3a25 <safe_div_func_int64_t_s_s+0x2e>
    3a1e:	48 83 7d f0 ff       	cmpq   $0xffffffffffffffff,-0x10(%rbp)
    3a23:	74 0c                	je     3a31 <safe_div_func_int64_t_s_s+0x3a>
    3a25:	48 8b 45 f8          	mov    -0x8(%rbp),%rax
    3a29:	48 99                	cqto   
    3a2b:	48 f7 7d f0          	idivq  -0x10(%rbp)
    3a2f:	eb 04                	jmp    3a35 <safe_div_func_int64_t_s_s+0x3e>
    3a31:	48 8b 45 f8          	mov    -0x8(%rbp),%rax
    3a35:	5d                   	pop    %rbp
    3a36:	c3                   	retq   

0000000000003a37 <safe_lshift_func_int64_t_s_s>:
    3a37:	f3 0f 1e fa          	endbr64 
    3a3b:	55                   	push   %rbp
    3a3c:	48 89 e5             	mov    %rsp,%rbp
    3a3f:	48 89 7d f8          	mov    %rdi,-0x8(%rbp)
    3a43:	89 75 f4             	mov    %esi,-0xc(%rbp)
    3a46:	48 83 7d f8 00       	cmpq   $0x0,-0x8(%rbp)
    3a4b:	78 38                	js     3a85 <safe_lshift_func_int64_t_s_s+0x4e>
    3a4d:	83 7d f4 00          	cmpl   $0x0,-0xc(%rbp)
    3a51:	78 32                	js     3a85 <safe_lshift_func_int64_t_s_s+0x4e>
    3a53:	83 7d f4 1f          	cmpl   $0x1f,-0xc(%rbp)
    3a57:	7f 2c                	jg     3a85 <safe_lshift_func_int64_t_s_s+0x4e>
    3a59:	8b 45 f4             	mov    -0xc(%rbp),%eax
    3a5c:	48 ba ff ff ff ff ff 	movabs $0x7fffffffffffffff,%rdx
    3a63:	ff ff 7f 
    3a66:	89 c1                	mov    %eax,%ecx
    3a68:	48 d3 fa             	sar    %cl,%rdx
    3a6b:	48 89 d0             	mov    %rdx,%rax
    3a6e:	48 39 45 f8          	cmp    %rax,-0x8(%rbp)
    3a72:	7f 11                	jg     3a85 <safe_lshift_func_int64_t_s_s+0x4e>
    3a74:	8b 45 f4             	mov    -0xc(%rbp),%eax
    3a77:	48 8b 55 f8          	mov    -0x8(%rbp),%rdx
    3a7b:	89 c1                	mov    %eax,%ecx
    3a7d:	48 d3 e2             	shl    %cl,%rdx
    3a80:	48 89 d0             	mov    %rdx,%rax
    3a83:	eb 04                	jmp    3a89 <safe_lshift_func_int64_t_s_s+0x52>
    3a85:	48 8b 45 f8          	mov    -0x8(%rbp),%rax
    3a89:	5d                   	pop    %rbp
    3a8a:	c3                   	retq   

0000000000003a8b <safe_lshift_func_int64_t_s_u>:
    3a8b:	f3 0f 1e fa          	endbr64 
    3a8f:	55                   	push   %rbp
    3a90:	48 89 e5             	mov    %rsp,%rbp
    3a93:	48 89 7d f8          	mov    %rdi,-0x8(%rbp)
    3a97:	89 75 f4             	mov    %esi,-0xc(%rbp)
    3a9a:	48 83 7d f8 00       	cmpq   $0x0,-0x8(%rbp)
    3a9f:	78 32                	js     3ad3 <safe_lshift_func_int64_t_s_u+0x48>
    3aa1:	83 7d f4 1f          	cmpl   $0x1f,-0xc(%rbp)
    3aa5:	77 2c                	ja     3ad3 <safe_lshift_func_int64_t_s_u+0x48>
    3aa7:	8b 45 f4             	mov    -0xc(%rbp),%eax
    3aaa:	48 ba ff ff ff ff ff 	movabs $0x7fffffffffffffff,%rdx
    3ab1:	ff ff 7f 
    3ab4:	89 c1                	mov    %eax,%ecx
    3ab6:	48 d3 fa             	sar    %cl,%rdx
    3ab9:	48 89 d0             	mov    %rdx,%rax
    3abc:	48 39 45 f8          	cmp    %rax,-0x8(%rbp)
    3ac0:	7f 11                	jg     3ad3 <safe_lshift_func_int64_t_s_u+0x48>
    3ac2:	8b 45 f4             	mov    -0xc(%rbp),%eax
    3ac5:	48 8b 55 f8          	mov    -0x8(%rbp),%rdx
    3ac9:	89 c1                	mov    %eax,%ecx
    3acb:	48 d3 e2             	shl    %cl,%rdx
    3ace:	48 89 d0             	mov    %rdx,%rax
    3ad1:	eb 04                	jmp    3ad7 <safe_lshift_func_int64_t_s_u+0x4c>
    3ad3:	48 8b 45 f8          	mov    -0x8(%rbp),%rax
    3ad7:	5d                   	pop    %rbp
    3ad8:	c3                   	retq   

0000000000003ad9 <safe_rshift_func_int64_t_s_s>:
    3ad9:	f3 0f 1e fa          	endbr64 
    3add:	55                   	push   %rbp
    3ade:	48 89 e5             	mov    %rsp,%rbp
    3ae1:	48 89 7d f8          	mov    %rdi,-0x8(%rbp)
    3ae5:	89 75 f4             	mov    %esi,-0xc(%rbp)
    3ae8:	48 83 7d f8 00       	cmpq   $0x0,-0x8(%rbp)
    3aed:	78 1d                	js     3b0c <safe_rshift_func_int64_t_s_s+0x33>
    3aef:	83 7d f4 00          	cmpl   $0x0,-0xc(%rbp)
    3af3:	78 17                	js     3b0c <safe_rshift_func_int64_t_s_s+0x33>
    3af5:	83 7d f4 1f          	cmpl   $0x1f,-0xc(%rbp)
    3af9:	7f 11                	jg     3b0c <safe_rshift_func_int64_t_s_s+0x33>
    3afb:	8b 45 f4             	mov    -0xc(%rbp),%eax
    3afe:	48 8b 55 f8          	mov    -0x8(%rbp),%rdx
    3b02:	89 c1                	mov    %eax,%ecx
    3b04:	48 d3 fa             	sar    %cl,%rdx
    3b07:	48 89 d0             	mov    %rdx,%rax
    3b0a:	eb 04                	jmp    3b10 <safe_rshift_func_int64_t_s_s+0x37>
    3b0c:	48 8b 45 f8          	mov    -0x8(%rbp),%rax
    3b10:	5d                   	pop    %rbp
    3b11:	c3                   	retq   

0000000000003b12 <safe_rshift_func_int64_t_s_u>:
    3b12:	f3 0f 1e fa          	endbr64 
    3b16:	55                   	push   %rbp
    3b17:	48 89 e5             	mov    %rsp,%rbp
    3b1a:	48 89 7d f8          	mov    %rdi,-0x8(%rbp)
    3b1e:	89 75 f4             	mov    %esi,-0xc(%rbp)
    3b21:	48 83 7d f8 00       	cmpq   $0x0,-0x8(%rbp)
    3b26:	78 17                	js     3b3f <safe_rshift_func_int64_t_s_u+0x2d>
    3b28:	83 7d f4 1f          	cmpl   $0x1f,-0xc(%rbp)
    3b2c:	77 11                	ja     3b3f <safe_rshift_func_int64_t_s_u+0x2d>
    3b2e:	8b 45 f4             	mov    -0xc(%rbp),%eax
    3b31:	48 8b 55 f8          	mov    -0x8(%rbp),%rdx
    3b35:	89 c1                	mov    %eax,%ecx
    3b37:	48 d3 fa             	sar    %cl,%rdx
    3b3a:	48 89 d0             	mov    %rdx,%rax
    3b3d:	eb 04                	jmp    3b43 <safe_rshift_func_int64_t_s_u+0x31>
    3b3f:	48 8b 45 f8          	mov    -0x8(%rbp),%rax
    3b43:	5d                   	pop    %rbp
    3b44:	c3                   	retq   

0000000000003b45 <safe_unary_minus_func_uint8_t_u>:
    3b45:	f3 0f 1e fa          	endbr64 
    3b49:	55                   	push   %rbp
    3b4a:	48 89 e5             	mov    %rsp,%rbp
    3b4d:	89 f8                	mov    %edi,%eax
    3b4f:	88 45 fc             	mov    %al,-0x4(%rbp)
    3b52:	0f b6 45 fc          	movzbl -0x4(%rbp),%eax
    3b56:	f7 d8                	neg    %eax
    3b58:	5d                   	pop    %rbp
    3b59:	c3                   	retq   

0000000000003b5a <safe_add_func_uint8_t_u_u>:
    3b5a:	f3 0f 1e fa          	endbr64 
    3b5e:	55                   	push   %rbp
    3b5f:	48 89 e5             	mov    %rsp,%rbp
    3b62:	89 fa                	mov    %edi,%edx
    3b64:	89 f0                	mov    %esi,%eax
    3b66:	88 55 fc             	mov    %dl,-0x4(%rbp)
    3b69:	88 45 f8             	mov    %al,-0x8(%rbp)
    3b6c:	0f b6 55 fc          	movzbl -0x4(%rbp),%edx
    3b70:	0f b6 45 f8          	movzbl -0x8(%rbp),%eax
    3b74:	01 d0                	add    %edx,%eax
    3b76:	5d                   	pop    %rbp
    3b77:	c3                   	retq   

0000000000003b78 <safe_sub_func_uint8_t_u_u>:
    3b78:	f3 0f 1e fa          	endbr64 
    3b7c:	55                   	push   %rbp
    3b7d:	48 89 e5             	mov    %rsp,%rbp
    3b80:	89 fa                	mov    %edi,%edx
    3b82:	89 f0                	mov    %esi,%eax
    3b84:	88 55 fc             	mov    %dl,-0x4(%rbp)
    3b87:	88 45 f8             	mov    %al,-0x8(%rbp)
    3b8a:	0f b6 45 fc          	movzbl -0x4(%rbp),%eax
    3b8e:	2a 45 f8             	sub    -0x8(%rbp),%al
    3b91:	5d                   	pop    %rbp
    3b92:	c3                   	retq   

0000000000003b93 <safe_mul_func_uint8_t_u_u>:
    3b93:	f3 0f 1e fa          	endbr64 
    3b97:	55                   	push   %rbp
    3b98:	48 89 e5             	mov    %rsp,%rbp
    3b9b:	89 fa                	mov    %edi,%edx
    3b9d:	89 f0                	mov    %esi,%eax
    3b9f:	88 55 fc             	mov    %dl,-0x4(%rbp)
    3ba2:	88 45 f8             	mov    %al,-0x8(%rbp)
    3ba5:	0f b6 45 fc          	movzbl -0x4(%rbp),%eax
    3ba9:	f6 65 f8             	mulb   -0x8(%rbp)
    3bac:	5d                   	pop    %rbp
    3bad:	c3                   	retq   

0000000000003bae <safe_mod_func_uint8_t_u_u>:
    3bae:	f3 0f 1e fa          	endbr64 
    3bb2:	55                   	push   %rbp
    3bb3:	48 89 e5             	mov    %rsp,%rbp
    3bb6:	89 fa                	mov    %edi,%edx
    3bb8:	89 f0                	mov    %esi,%eax
    3bba:	88 55 fc             	mov    %dl,-0x4(%rbp)
    3bbd:	88 45 f8             	mov    %al,-0x8(%rbp)
    3bc0:	80 7d f8 00          	cmpb   $0x0,-0x8(%rbp)
    3bc4:	74 0f                	je     3bd5 <safe_mod_func_uint8_t_u_u+0x27>
    3bc6:	0f b6 45 fc          	movzbl -0x4(%rbp),%eax
    3bca:	0f b6 c0             	movzbl %al,%eax
    3bcd:	f6 75 f8             	divb   -0x8(%rbp)
    3bd0:	0f b6 c4             	movzbl %ah,%eax
    3bd3:	eb 04                	jmp    3bd9 <safe_mod_func_uint8_t_u_u+0x2b>
    3bd5:	0f b6 45 fc          	movzbl -0x4(%rbp),%eax
    3bd9:	5d                   	pop    %rbp
    3bda:	c3                   	retq   

0000000000003bdb <safe_div_func_uint8_t_u_u>:
    3bdb:	f3 0f 1e fa          	endbr64 
    3bdf:	55                   	push   %rbp
    3be0:	48 89 e5             	mov    %rsp,%rbp
    3be3:	89 fa                	mov    %edi,%edx
    3be5:	89 f0                	mov    %esi,%eax
    3be7:	88 55 fc             	mov    %dl,-0x4(%rbp)
    3bea:	88 45 f8             	mov    %al,-0x8(%rbp)
    3bed:	80 7d f8 00          	cmpb   $0x0,-0x8(%rbp)
    3bf1:	74 0c                	je     3bff <safe_div_func_uint8_t_u_u+0x24>
    3bf3:	0f b6 45 fc          	movzbl -0x4(%rbp),%eax
    3bf7:	0f b6 c0             	movzbl %al,%eax
    3bfa:	f6 75 f8             	divb   -0x8(%rbp)
    3bfd:	eb 04                	jmp    3c03 <safe_div_func_uint8_t_u_u+0x28>
    3bff:	0f b6 45 fc          	movzbl -0x4(%rbp),%eax
    3c03:	5d                   	pop    %rbp
    3c04:	c3                   	retq   

0000000000003c05 <safe_lshift_func_uint8_t_u_s>:
    3c05:	f3 0f 1e fa          	endbr64 
    3c09:	55                   	push   %rbp
    3c0a:	48 89 e5             	mov    %rsp,%rbp
    3c0d:	89 f8                	mov    %edi,%eax
    3c0f:	89 75 f8             	mov    %esi,-0x8(%rbp)
    3c12:	88 45 fc             	mov    %al,-0x4(%rbp)
    3c15:	83 7d f8 00          	cmpl   $0x0,-0x8(%rbp)
    3c19:	78 2b                	js     3c46 <safe_lshift_func_uint8_t_u_s+0x41>
    3c1b:	83 7d f8 1f          	cmpl   $0x1f,-0x8(%rbp)
    3c1f:	7f 25                	jg     3c46 <safe_lshift_func_uint8_t_u_s+0x41>
    3c21:	0f b6 55 fc          	movzbl -0x4(%rbp),%edx
    3c25:	8b 45 f8             	mov    -0x8(%rbp),%eax
    3c28:	be ff 00 00 00       	mov    $0xff,%esi
    3c2d:	89 c1                	mov    %eax,%ecx
    3c2f:	d3 fe                	sar    %cl,%esi
    3c31:	89 f0                	mov    %esi,%eax
    3c33:	39 c2                	cmp    %eax,%edx
    3c35:	7f 0f                	jg     3c46 <safe_lshift_func_uint8_t_u_s+0x41>
    3c37:	0f b6 55 fc          	movzbl -0x4(%rbp),%edx
    3c3b:	8b 45 f8             	mov    -0x8(%rbp),%eax
    3c3e:	89 c1                	mov    %eax,%ecx
    3c40:	d3 e2                	shl    %cl,%edx
    3c42:	89 d0                	mov    %edx,%eax
    3c44:	eb 04                	jmp    3c4a <safe_lshift_func_uint8_t_u_s+0x45>
    3c46:	0f b6 45 fc          	movzbl -0x4(%rbp),%eax
    3c4a:	5d                   	pop    %rbp
    3c4b:	c3                   	retq   

0000000000003c4c <safe_lshift_func_uint8_t_u_u>:
    3c4c:	f3 0f 1e fa          	endbr64 
    3c50:	55                   	push   %rbp
    3c51:	48 89 e5             	mov    %rsp,%rbp
    3c54:	89 f8                	mov    %edi,%eax
    3c56:	89 75 f8             	mov    %esi,-0x8(%rbp)
    3c59:	88 45 fc             	mov    %al,-0x4(%rbp)
    3c5c:	83 7d f8 1f          	cmpl   $0x1f,-0x8(%rbp)
    3c60:	77 25                	ja     3c87 <safe_lshift_func_uint8_t_u_u+0x3b>
    3c62:	0f b6 55 fc          	movzbl -0x4(%rbp),%edx
    3c66:	8b 45 f8             	mov    -0x8(%rbp),%eax
    3c69:	be ff 00 00 00       	mov    $0xff,%esi
    3c6e:	89 c1                	mov    %eax,%ecx
    3c70:	d3 fe                	sar    %cl,%esi
    3c72:	89 f0                	mov    %esi,%eax
    3c74:	39 c2                	cmp    %eax,%edx
    3c76:	7f 0f                	jg     3c87 <safe_lshift_func_uint8_t_u_u+0x3b>
    3c78:	0f b6 55 fc          	movzbl -0x4(%rbp),%edx
    3c7c:	8b 45 f8             	mov    -0x8(%rbp),%eax
    3c7f:	89 c1                	mov    %eax,%ecx
    3c81:	d3 e2                	shl    %cl,%edx
    3c83:	89 d0                	mov    %edx,%eax
    3c85:	eb 04                	jmp    3c8b <safe_lshift_func_uint8_t_u_u+0x3f>
    3c87:	0f b6 45 fc          	movzbl -0x4(%rbp),%eax
    3c8b:	5d                   	pop    %rbp
    3c8c:	c3                   	retq   

0000000000003c8d <safe_rshift_func_uint8_t_u_s>:
    3c8d:	f3 0f 1e fa          	endbr64 
    3c91:	55                   	push   %rbp
    3c92:	48 89 e5             	mov    %rsp,%rbp
    3c95:	89 f8                	mov    %edi,%eax
    3c97:	89 75 f8             	mov    %esi,-0x8(%rbp)
    3c9a:	88 45 fc             	mov    %al,-0x4(%rbp)
    3c9d:	83 7d f8 00          	cmpl   $0x0,-0x8(%rbp)
    3ca1:	78 15                	js     3cb8 <safe_rshift_func_uint8_t_u_s+0x2b>
    3ca3:	83 7d f8 1f          	cmpl   $0x1f,-0x8(%rbp)
    3ca7:	7f 0f                	jg     3cb8 <safe_rshift_func_uint8_t_u_s+0x2b>
    3ca9:	0f b6 55 fc          	movzbl -0x4(%rbp),%edx
    3cad:	8b 45 f8             	mov    -0x8(%rbp),%eax
    3cb0:	89 c1                	mov    %eax,%ecx
    3cb2:	d3 fa                	sar    %cl,%edx
    3cb4:	89 d0                	mov    %edx,%eax
    3cb6:	eb 04                	jmp    3cbc <safe_rshift_func_uint8_t_u_s+0x2f>
    3cb8:	0f b6 45 fc          	movzbl -0x4(%rbp),%eax
    3cbc:	5d                   	pop    %rbp
    3cbd:	c3                   	retq   

0000000000003cbe <safe_rshift_func_uint8_t_u_u>:
    3cbe:	f3 0f 1e fa          	endbr64 
    3cc2:	55                   	push   %rbp
    3cc3:	48 89 e5             	mov    %rsp,%rbp
    3cc6:	89 f8                	mov    %edi,%eax
    3cc8:	89 75 f8             	mov    %esi,-0x8(%rbp)
    3ccb:	88 45 fc             	mov    %al,-0x4(%rbp)
    3cce:	83 7d f8 1f          	cmpl   $0x1f,-0x8(%rbp)
    3cd2:	77 0f                	ja     3ce3 <safe_rshift_func_uint8_t_u_u+0x25>
    3cd4:	0f b6 55 fc          	movzbl -0x4(%rbp),%edx
    3cd8:	8b 45 f8             	mov    -0x8(%rbp),%eax
    3cdb:	89 c1                	mov    %eax,%ecx
    3cdd:	d3 fa                	sar    %cl,%edx
    3cdf:	89 d0                	mov    %edx,%eax
    3ce1:	eb 04                	jmp    3ce7 <safe_rshift_func_uint8_t_u_u+0x29>
    3ce3:	0f b6 45 fc          	movzbl -0x4(%rbp),%eax
    3ce7:	5d                   	pop    %rbp
    3ce8:	c3                   	retq   

0000000000003ce9 <safe_unary_minus_func_uint16_t_u>:
    3ce9:	f3 0f 1e fa          	endbr64 
    3ced:	55                   	push   %rbp
    3cee:	48 89 e5             	mov    %rsp,%rbp
    3cf1:	89 f8                	mov    %edi,%eax
    3cf3:	66 89 45 fc          	mov    %ax,-0x4(%rbp)
    3cf7:	0f b7 45 fc          	movzwl -0x4(%rbp),%eax
    3cfb:	f7 d8                	neg    %eax
    3cfd:	5d                   	pop    %rbp
    3cfe:	c3                   	retq   

0000000000003cff <safe_add_func_uint16_t_u_u>:
    3cff:	f3 0f 1e fa          	endbr64 
    3d03:	55                   	push   %rbp
    3d04:	48 89 e5             	mov    %rsp,%rbp
    3d07:	89 fa                	mov    %edi,%edx
    3d09:	89 f0                	mov    %esi,%eax
    3d0b:	66 89 55 fc          	mov    %dx,-0x4(%rbp)
    3d0f:	66 89 45 f8          	mov    %ax,-0x8(%rbp)
    3d13:	0f b7 55 fc          	movzwl -0x4(%rbp),%edx
    3d17:	0f b7 45 f8          	movzwl -0x8(%rbp),%eax
    3d1b:	01 d0                	add    %edx,%eax
    3d1d:	5d                   	pop    %rbp
    3d1e:	c3                   	retq   

0000000000003d1f <safe_sub_func_uint16_t_u_u>:
    3d1f:	f3 0f 1e fa          	endbr64 
    3d23:	55                   	push   %rbp
    3d24:	48 89 e5             	mov    %rsp,%rbp
    3d27:	89 fa                	mov    %edi,%edx
    3d29:	89 f0                	mov    %esi,%eax
    3d2b:	66 89 55 fc          	mov    %dx,-0x4(%rbp)
    3d2f:	66 89 45 f8          	mov    %ax,-0x8(%rbp)
    3d33:	0f b7 45 fc          	movzwl -0x4(%rbp),%eax
    3d37:	66 2b 45 f8          	sub    -0x8(%rbp),%ax
    3d3b:	5d                   	pop    %rbp
    3d3c:	c3                   	retq   

0000000000003d3d <safe_mul_func_uint16_t_u_u>:
    3d3d:	f3 0f 1e fa          	endbr64 
    3d41:	55                   	push   %rbp
    3d42:	48 89 e5             	mov    %rsp,%rbp
    3d45:	89 fa                	mov    %edi,%edx
    3d47:	89 f0                	mov    %esi,%eax
    3d49:	66 89 55 fc          	mov    %dx,-0x4(%rbp)
    3d4d:	66 89 45 f8          	mov    %ax,-0x8(%rbp)
    3d51:	0f b7 45 fc          	movzwl -0x4(%rbp),%eax
    3d55:	66 0f af 45 f8       	imul   -0x8(%rbp),%ax
    3d5a:	5d                   	pop    %rbp
    3d5b:	c3                   	retq   

0000000000003d5c <safe_mod_func_uint16_t_u_u>:
    3d5c:	f3 0f 1e fa          	endbr64 
    3d60:	55                   	push   %rbp
    3d61:	48 89 e5             	mov    %rsp,%rbp
    3d64:	89 fa                	mov    %edi,%edx
    3d66:	89 f0                	mov    %esi,%eax
    3d68:	66 89 55 fc          	mov    %dx,-0x4(%rbp)
    3d6c:	66 89 45 f8          	mov    %ax,-0x8(%rbp)
    3d70:	66 83 7d f8 00       	cmpw   $0x0,-0x8(%rbp)
    3d75:	74 11                	je     3d88 <safe_mod_func_uint16_t_u_u+0x2c>
    3d77:	0f b7 45 fc          	movzwl -0x4(%rbp),%eax
    3d7b:	ba 00 00 00 00       	mov    $0x0,%edx
    3d80:	66 f7 75 f8          	divw   -0x8(%rbp)
    3d84:	89 d0                	mov    %edx,%eax
    3d86:	eb 04                	jmp    3d8c <safe_mod_func_uint16_t_u_u+0x30>
    3d88:	0f b7 45 fc          	movzwl -0x4(%rbp),%eax
    3d8c:	5d                   	pop    %rbp
    3d8d:	c3                   	retq   

0000000000003d8e <safe_div_func_uint16_t_u_u>:
    3d8e:	f3 0f 1e fa          	endbr64 
    3d92:	55                   	push   %rbp
    3d93:	48 89 e5             	mov    %rsp,%rbp
    3d96:	89 fa                	mov    %edi,%edx
    3d98:	89 f0                	mov    %esi,%eax
    3d9a:	66 89 55 fc          	mov    %dx,-0x4(%rbp)
    3d9e:	66 89 45 f8          	mov    %ax,-0x8(%rbp)
    3da2:	66 83 7d f8 00       	cmpw   $0x0,-0x8(%rbp)
    3da7:	74 0f                	je     3db8 <safe_div_func_uint16_t_u_u+0x2a>
    3da9:	0f b7 45 fc          	movzwl -0x4(%rbp),%eax
    3dad:	ba 00 00 00 00       	mov    $0x0,%edx
    3db2:	66 f7 75 f8          	divw   -0x8(%rbp)
    3db6:	eb 04                	jmp    3dbc <safe_div_func_uint16_t_u_u+0x2e>
    3db8:	0f b7 45 fc          	movzwl -0x4(%rbp),%eax
    3dbc:	5d                   	pop    %rbp
    3dbd:	c3                   	retq   

0000000000003dbe <safe_lshift_func_uint16_t_u_s>:
    3dbe:	f3 0f 1e fa          	endbr64 
    3dc2:	55                   	push   %rbp
    3dc3:	48 89 e5             	mov    %rsp,%rbp
    3dc6:	89 f8                	mov    %edi,%eax
    3dc8:	89 75 f8             	mov    %esi,-0x8(%rbp)
    3dcb:	66 89 45 fc          	mov    %ax,-0x4(%rbp)
    3dcf:	83 7d f8 00          	cmpl   $0x0,-0x8(%rbp)
    3dd3:	78 2b                	js     3e00 <safe_lshift_func_uint16_t_u_s+0x42>
    3dd5:	83 7d f8 1f          	cmpl   $0x1f,-0x8(%rbp)
    3dd9:	7f 25                	jg     3e00 <safe_lshift_func_uint16_t_u_s+0x42>
    3ddb:	0f b7 55 fc          	movzwl -0x4(%rbp),%edx
    3ddf:	8b 45 f8             	mov    -0x8(%rbp),%eax
    3de2:	be ff ff 00 00       	mov    $0xffff,%esi
    3de7:	89 c1                	mov    %eax,%ecx
    3de9:	d3 fe                	sar    %cl,%esi
    3deb:	89 f0                	mov    %esi,%eax
    3ded:	39 c2                	cmp    %eax,%edx
    3def:	7f 0f                	jg     3e00 <safe_lshift_func_uint16_t_u_s+0x42>
    3df1:	0f b7 55 fc          	movzwl -0x4(%rbp),%edx
    3df5:	8b 45 f8             	mov    -0x8(%rbp),%eax
    3df8:	89 c1                	mov    %eax,%ecx
    3dfa:	d3 e2                	shl    %cl,%edx
    3dfc:	89 d0                	mov    %edx,%eax
    3dfe:	eb 04                	jmp    3e04 <safe_lshift_func_uint16_t_u_s+0x46>
    3e00:	0f b7 45 fc          	movzwl -0x4(%rbp),%eax
    3e04:	5d                   	pop    %rbp
    3e05:	c3                   	retq   

0000000000003e06 <safe_lshift_func_uint16_t_u_u>:
    3e06:	f3 0f 1e fa          	endbr64 
    3e0a:	55                   	push   %rbp
    3e0b:	48 89 e5             	mov    %rsp,%rbp
    3e0e:	89 f8                	mov    %edi,%eax
    3e10:	89 75 f8             	mov    %esi,-0x8(%rbp)
    3e13:	66 89 45 fc          	mov    %ax,-0x4(%rbp)
    3e17:	83 7d f8 1f          	cmpl   $0x1f,-0x8(%rbp)
    3e1b:	77 25                	ja     3e42 <safe_lshift_func_uint16_t_u_u+0x3c>
    3e1d:	0f b7 55 fc          	movzwl -0x4(%rbp),%edx
    3e21:	8b 45 f8             	mov    -0x8(%rbp),%eax
    3e24:	be ff ff 00 00       	mov    $0xffff,%esi
    3e29:	89 c1                	mov    %eax,%ecx
    3e2b:	d3 fe                	sar    %cl,%esi
    3e2d:	89 f0                	mov    %esi,%eax
    3e2f:	39 c2                	cmp    %eax,%edx
    3e31:	7f 0f                	jg     3e42 <safe_lshift_func_uint16_t_u_u+0x3c>
    3e33:	0f b7 55 fc          	movzwl -0x4(%rbp),%edx
    3e37:	8b 45 f8             	mov    -0x8(%rbp),%eax
    3e3a:	89 c1                	mov    %eax,%ecx
    3e3c:	d3 e2                	shl    %cl,%edx
    3e3e:	89 d0                	mov    %edx,%eax
    3e40:	eb 04                	jmp    3e46 <safe_lshift_func_uint16_t_u_u+0x40>
    3e42:	0f b7 45 fc          	movzwl -0x4(%rbp),%eax
    3e46:	5d                   	pop    %rbp
    3e47:	c3                   	retq   

0000000000003e48 <safe_rshift_func_uint16_t_u_s>:
    3e48:	f3 0f 1e fa          	endbr64 
    3e4c:	55                   	push   %rbp
    3e4d:	48 89 e5             	mov    %rsp,%rbp
    3e50:	89 f8                	mov    %edi,%eax
    3e52:	89 75 f8             	mov    %esi,-0x8(%rbp)
    3e55:	66 89 45 fc          	mov    %ax,-0x4(%rbp)
    3e59:	83 7d f8 00          	cmpl   $0x0,-0x8(%rbp)
    3e5d:	78 15                	js     3e74 <safe_rshift_func_uint16_t_u_s+0x2c>
    3e5f:	83 7d f8 1f          	cmpl   $0x1f,-0x8(%rbp)
    3e63:	7f 0f                	jg     3e74 <safe_rshift_func_uint16_t_u_s+0x2c>
    3e65:	0f b7 55 fc          	movzwl -0x4(%rbp),%edx
    3e69:	8b 45 f8             	mov    -0x8(%rbp),%eax
    3e6c:	89 c1                	mov    %eax,%ecx
    3e6e:	d3 fa                	sar    %cl,%edx
    3e70:	89 d0                	mov    %edx,%eax
    3e72:	eb 04                	jmp    3e78 <safe_rshift_func_uint16_t_u_s+0x30>
    3e74:	0f b7 45 fc          	movzwl -0x4(%rbp),%eax
    3e78:	5d                   	pop    %rbp
    3e79:	c3                   	retq   

0000000000003e7a <safe_rshift_func_uint16_t_u_u>:
    3e7a:	f3 0f 1e fa          	endbr64 
    3e7e:	55                   	push   %rbp
    3e7f:	48 89 e5             	mov    %rsp,%rbp
    3e82:	89 f8                	mov    %edi,%eax
    3e84:	89 75 f8             	mov    %esi,-0x8(%rbp)
    3e87:	66 89 45 fc          	mov    %ax,-0x4(%rbp)
    3e8b:	83 7d f8 1f          	cmpl   $0x1f,-0x8(%rbp)
    3e8f:	77 0f                	ja     3ea0 <safe_rshift_func_uint16_t_u_u+0x26>
    3e91:	0f b7 55 fc          	movzwl -0x4(%rbp),%edx
    3e95:	8b 45 f8             	mov    -0x8(%rbp),%eax
    3e98:	89 c1                	mov    %eax,%ecx
    3e9a:	d3 fa                	sar    %cl,%edx
    3e9c:	89 d0                	mov    %edx,%eax
    3e9e:	eb 04                	jmp    3ea4 <safe_rshift_func_uint16_t_u_u+0x2a>
    3ea0:	0f b7 45 fc          	movzwl -0x4(%rbp),%eax
    3ea4:	5d                   	pop    %rbp
    3ea5:	c3                   	retq   

0000000000003ea6 <safe_unary_minus_func_uint32_t_u>:
    3ea6:	f3 0f 1e fa          	endbr64 
    3eaa:	55                   	push   %rbp
    3eab:	48 89 e5             	mov    %rsp,%rbp
    3eae:	89 7d fc             	mov    %edi,-0x4(%rbp)
    3eb1:	8b 45 fc             	mov    -0x4(%rbp),%eax
    3eb4:	f7 d8                	neg    %eax
    3eb6:	5d                   	pop    %rbp
    3eb7:	c3                   	retq   

0000000000003eb8 <safe_add_func_uint32_t_u_u>:
    3eb8:	f3 0f 1e fa          	endbr64 
    3ebc:	55                   	push   %rbp
    3ebd:	48 89 e5             	mov    %rsp,%rbp
    3ec0:	89 7d fc             	mov    %edi,-0x4(%rbp)
    3ec3:	89 75 f8             	mov    %esi,-0x8(%rbp)
    3ec6:	8b 55 fc             	mov    -0x4(%rbp),%edx
    3ec9:	8b 45 f8             	mov    -0x8(%rbp),%eax
    3ecc:	01 d0                	add    %edx,%eax
    3ece:	5d                   	pop    %rbp
    3ecf:	c3                   	retq   

0000000000003ed0 <safe_sub_func_uint32_t_u_u>:
    3ed0:	f3 0f 1e fa          	endbr64 
    3ed4:	55                   	push   %rbp
    3ed5:	48 89 e5             	mov    %rsp,%rbp
    3ed8:	89 7d fc             	mov    %edi,-0x4(%rbp)
    3edb:	89 75 f8             	mov    %esi,-0x8(%rbp)
    3ede:	8b 45 fc             	mov    -0x4(%rbp),%eax
    3ee1:	2b 45 f8             	sub    -0x8(%rbp),%eax
    3ee4:	5d                   	pop    %rbp
    3ee5:	c3                   	retq   

0000000000003ee6 <safe_mul_func_uint32_t_u_u>:
    3ee6:	f3 0f 1e fa          	endbr64 
    3eea:	55                   	push   %rbp
    3eeb:	48 89 e5             	mov    %rsp,%rbp
    3eee:	89 7d fc             	mov    %edi,-0x4(%rbp)
    3ef1:	89 75 f8             	mov    %esi,-0x8(%rbp)
    3ef4:	8b 45 fc             	mov    -0x4(%rbp),%eax
    3ef7:	0f af 45 f8          	imul   -0x8(%rbp),%eax
    3efb:	5d                   	pop    %rbp
    3efc:	c3                   	retq   

0000000000003efd <safe_mod_func_uint32_t_u_u>:
    3efd:	f3 0f 1e fa          	endbr64 
    3f01:	55                   	push   %rbp
    3f02:	48 89 e5             	mov    %rsp,%rbp
    3f05:	89 7d fc             	mov    %edi,-0x4(%rbp)
    3f08:	89 75 f8             	mov    %esi,-0x8(%rbp)
    3f0b:	83 7d f8 00          	cmpl   $0x0,-0x8(%rbp)
    3f0f:	74 0f                	je     3f20 <safe_mod_func_uint32_t_u_u+0x23>
    3f11:	8b 45 fc             	mov    -0x4(%rbp),%eax
    3f14:	ba 00 00 00 00       	mov    $0x0,%edx
    3f19:	f7 75 f8             	divl   -0x8(%rbp)
    3f1c:	89 d0                	mov    %edx,%eax
    3f1e:	eb 03                	jmp    3f23 <safe_mod_func_uint32_t_u_u+0x26>
    3f20:	8b 45 fc             	mov    -0x4(%rbp),%eax
    3f23:	5d                   	pop    %rbp
    3f24:	c3                   	retq   

0000000000003f25 <safe_div_func_uint32_t_u_u>:
    3f25:	f3 0f 1e fa          	endbr64 
    3f29:	55                   	push   %rbp
    3f2a:	48 89 e5             	mov    %rsp,%rbp
    3f2d:	89 7d fc             	mov    %edi,-0x4(%rbp)
    3f30:	89 75 f8             	mov    %esi,-0x8(%rbp)
    3f33:	83 7d f8 00          	cmpl   $0x0,-0x8(%rbp)
    3f37:	74 0d                	je     3f46 <safe_div_func_uint32_t_u_u+0x21>
    3f39:	8b 45 fc             	mov    -0x4(%rbp),%eax
    3f3c:	ba 00 00 00 00       	mov    $0x0,%edx
    3f41:	f7 75 f8             	divl   -0x8(%rbp)
    3f44:	eb 03                	jmp    3f49 <safe_div_func_uint32_t_u_u+0x24>
    3f46:	8b 45 fc             	mov    -0x4(%rbp),%eax
    3f49:	5d                   	pop    %rbp
    3f4a:	c3                   	retq   

0000000000003f4b <safe_lshift_func_uint32_t_u_s>:
    3f4b:	f3 0f 1e fa          	endbr64 
    3f4f:	55                   	push   %rbp
    3f50:	48 89 e5             	mov    %rsp,%rbp
    3f53:	89 7d fc             	mov    %edi,-0x4(%rbp)
    3f56:	89 75 f8             	mov    %esi,-0x8(%rbp)
    3f59:	83 7d f8 00          	cmpl   $0x0,-0x8(%rbp)
    3f5d:	78 27                	js     3f86 <safe_lshift_func_uint32_t_u_s+0x3b>
    3f5f:	83 7d f8 1f          	cmpl   $0x1f,-0x8(%rbp)
    3f63:	7f 21                	jg     3f86 <safe_lshift_func_uint32_t_u_s+0x3b>
    3f65:	8b 45 f8             	mov    -0x8(%rbp),%eax
    3f68:	ba ff ff ff ff       	mov    $0xffffffff,%edx
    3f6d:	89 c1                	mov    %eax,%ecx
    3f6f:	d3 ea                	shr    %cl,%edx
    3f71:	89 d0                	mov    %edx,%eax
    3f73:	39 45 fc             	cmp    %eax,-0x4(%rbp)
    3f76:	77 0e                	ja     3f86 <safe_lshift_func_uint32_t_u_s+0x3b>
    3f78:	8b 45 f8             	mov    -0x8(%rbp),%eax
    3f7b:	8b 55 fc             	mov    -0x4(%rbp),%edx
    3f7e:	89 c1                	mov    %eax,%ecx
    3f80:	d3 e2                	shl    %cl,%edx
    3f82:	89 d0                	mov    %edx,%eax
    3f84:	eb 03                	jmp    3f89 <safe_lshift_func_uint32_t_u_s+0x3e>
    3f86:	8b 45 fc             	mov    -0x4(%rbp),%eax
    3f89:	5d                   	pop    %rbp
    3f8a:	c3                   	retq   

0000000000003f8b <safe_lshift_func_uint32_t_u_u>:
    3f8b:	f3 0f 1e fa          	endbr64 
    3f8f:	55                   	push   %rbp
    3f90:	48 89 e5             	mov    %rsp,%rbp
    3f93:	89 7d fc             	mov    %edi,-0x4(%rbp)
    3f96:	89 75 f8             	mov    %esi,-0x8(%rbp)
    3f99:	83 7d f8 1f          	cmpl   $0x1f,-0x8(%rbp)
    3f9d:	77 21                	ja     3fc0 <safe_lshift_func_uint32_t_u_u+0x35>
    3f9f:	8b 45 f8             	mov    -0x8(%rbp),%eax
    3fa2:	ba ff ff ff ff       	mov    $0xffffffff,%edx
    3fa7:	89 c1                	mov    %eax,%ecx
    3fa9:	d3 ea                	shr    %cl,%edx
    3fab:	89 d0                	mov    %edx,%eax
    3fad:	39 45 fc             	cmp    %eax,-0x4(%rbp)
    3fb0:	77 0e                	ja     3fc0 <safe_lshift_func_uint32_t_u_u+0x35>
    3fb2:	8b 45 f8             	mov    -0x8(%rbp),%eax
    3fb5:	8b 55 fc             	mov    -0x4(%rbp),%edx
    3fb8:	89 c1                	mov    %eax,%ecx
    3fba:	d3 e2                	shl    %cl,%edx
    3fbc:	89 d0                	mov    %edx,%eax
    3fbe:	eb 03                	jmp    3fc3 <safe_lshift_func_uint32_t_u_u+0x38>
    3fc0:	8b 45 fc             	mov    -0x4(%rbp),%eax
    3fc3:	5d                   	pop    %rbp
    3fc4:	c3                   	retq   

0000000000003fc5 <safe_rshift_func_uint32_t_u_s>:
    3fc5:	f3 0f 1e fa          	endbr64 
    3fc9:	55                   	push   %rbp
    3fca:	48 89 e5             	mov    %rsp,%rbp
    3fcd:	89 7d fc             	mov    %edi,-0x4(%rbp)
    3fd0:	89 75 f8             	mov    %esi,-0x8(%rbp)
    3fd3:	83 7d f8 00          	cmpl   $0x0,-0x8(%rbp)
    3fd7:	78 14                	js     3fed <safe_rshift_func_uint32_t_u_s+0x28>
    3fd9:	83 7d f8 1f          	cmpl   $0x1f,-0x8(%rbp)
    3fdd:	7f 0e                	jg     3fed <safe_rshift_func_uint32_t_u_s+0x28>
    3fdf:	8b 45 f8             	mov    -0x8(%rbp),%eax
    3fe2:	8b 55 fc             	mov    -0x4(%rbp),%edx
    3fe5:	89 c1                	mov    %eax,%ecx
    3fe7:	d3 ea                	shr    %cl,%edx
    3fe9:	89 d0                	mov    %edx,%eax
    3feb:	eb 03                	jmp    3ff0 <safe_rshift_func_uint32_t_u_s+0x2b>
    3fed:	8b 45 fc             	mov    -0x4(%rbp),%eax
    3ff0:	5d                   	pop    %rbp
    3ff1:	c3                   	retq   

0000000000003ff2 <safe_rshift_func_uint32_t_u_u>:
    3ff2:	f3 0f 1e fa          	endbr64 
    3ff6:	55                   	push   %rbp
    3ff7:	48 89 e5             	mov    %rsp,%rbp
    3ffa:	89 7d fc             	mov    %edi,-0x4(%rbp)
    3ffd:	89 75 f8             	mov    %esi,-0x8(%rbp)
    4000:	83 7d f8 1f          	cmpl   $0x1f,-0x8(%rbp)
    4004:	77 0e                	ja     4014 <safe_rshift_func_uint32_t_u_u+0x22>
    4006:	8b 45 f8             	mov    -0x8(%rbp),%eax
    4009:	8b 55 fc             	mov    -0x4(%rbp),%edx
    400c:	89 c1                	mov    %eax,%ecx
    400e:	d3 ea                	shr    %cl,%edx
    4010:	89 d0                	mov    %edx,%eax
    4012:	eb 03                	jmp    4017 <safe_rshift_func_uint32_t_u_u+0x25>
    4014:	8b 45 fc             	mov    -0x4(%rbp),%eax
    4017:	5d                   	pop    %rbp
    4018:	c3                   	retq   

0000000000004019 <safe_unary_minus_func_uint64_t_u>:
    4019:	f3 0f 1e fa          	endbr64 
    401d:	55                   	push   %rbp
    401e:	48 89 e5             	mov    %rsp,%rbp
    4021:	48 89 7d f8          	mov    %rdi,-0x8(%rbp)
    4025:	48 8b 45 f8          	mov    -0x8(%rbp),%rax
    4029:	48 f7 d8             	neg    %rax
    402c:	5d                   	pop    %rbp
    402d:	c3                   	retq   

000000000000402e <safe_add_func_uint64_t_u_u>:
    402e:	f3 0f 1e fa          	endbr64 
    4032:	55                   	push   %rbp
    4033:	48 89 e5             	mov    %rsp,%rbp
    4036:	48 89 7d f8          	mov    %rdi,-0x8(%rbp)
    403a:	48 89 75 f0          	mov    %rsi,-0x10(%rbp)
    403e:	48 8b 55 f8          	mov    -0x8(%rbp),%rdx
    4042:	48 8b 45 f0          	mov    -0x10(%rbp),%rax
    4046:	48 01 d0             	add    %rdx,%rax
    4049:	5d                   	pop    %rbp
    404a:	c3                   	retq   

000000000000404b <safe_sub_func_uint64_t_u_u>:
    404b:	f3 0f 1e fa          	endbr64 
    404f:	55                   	push   %rbp
    4050:	48 89 e5             	mov    %rsp,%rbp
    4053:	48 89 7d f8          	mov    %rdi,-0x8(%rbp)
    4057:	48 89 75 f0          	mov    %rsi,-0x10(%rbp)
    405b:	48 8b 45 f8          	mov    -0x8(%rbp),%rax
    405f:	48 2b 45 f0          	sub    -0x10(%rbp),%rax
    4063:	5d                   	pop    %rbp
    4064:	c3                   	retq   

0000000000004065 <safe_mul_func_uint64_t_u_u>:
    4065:	f3 0f 1e fa          	endbr64 
    4069:	55                   	push   %rbp
    406a:	48 89 e5             	mov    %rsp,%rbp
    406d:	48 89 7d f8          	mov    %rdi,-0x8(%rbp)
    4071:	48 89 75 f0          	mov    %rsi,-0x10(%rbp)
    4075:	48 8b 45 f8          	mov    -0x8(%rbp),%rax
    4079:	48 0f af 45 f0       	imul   -0x10(%rbp),%rax
    407e:	5d                   	pop    %rbp
    407f:	c3                   	retq   

0000000000004080 <safe_mod_func_uint64_t_u_u>:
    4080:	f3 0f 1e fa          	endbr64 
    4084:	55                   	push   %rbp
    4085:	48 89 e5             	mov    %rsp,%rbp
    4088:	48 89 7d f8          	mov    %rdi,-0x8(%rbp)
    408c:	48 89 75 f0          	mov    %rsi,-0x10(%rbp)
    4090:	48 83 7d f0 00       	cmpq   $0x0,-0x10(%rbp)
    4095:	74 12                	je     40a9 <safe_mod_func_uint64_t_u_u+0x29>
    4097:	48 8b 45 f8          	mov    -0x8(%rbp),%rax
    409b:	ba 00 00 00 00       	mov    $0x0,%edx
    40a0:	48 f7 75 f0          	divq   -0x10(%rbp)
    40a4:	48 89 d0             	mov    %rdx,%rax
    40a7:	eb 04                	jmp    40ad <safe_mod_func_uint64_t_u_u+0x2d>
    40a9:	48 8b 45 f8          	mov    -0x8(%rbp),%rax
    40ad:	5d                   	pop    %rbp
    40ae:	c3                   	retq   

00000000000040af <safe_div_func_uint64_t_u_u>:
    40af:	f3 0f 1e fa          	endbr64 
    40b3:	55                   	push   %rbp
    40b4:	48 89 e5             	mov    %rsp,%rbp
    40b7:	48 89 7d f8          	mov    %rdi,-0x8(%rbp)
    40bb:	48 89 75 f0          	mov    %rsi,-0x10(%rbp)
    40bf:	48 83 7d f0 00       	cmpq   $0x0,-0x10(%rbp)
    40c4:	74 0f                	je     40d5 <safe_div_func_uint64_t_u_u+0x26>
    40c6:	48 8b 45 f8          	mov    -0x8(%rbp),%rax
    40ca:	ba 00 00 00 00       	mov    $0x0,%edx
    40cf:	48 f7 75 f0          	divq   -0x10(%rbp)
    40d3:	eb 04                	jmp    40d9 <safe_div_func_uint64_t_u_u+0x2a>
    40d5:	48 8b 45 f8          	mov    -0x8(%rbp),%rax
    40d9:	5d                   	pop    %rbp
    40da:	c3                   	retq   

00000000000040db <safe_lshift_func_uint64_t_u_s>:
    40db:	f3 0f 1e fa          	endbr64 
    40df:	55                   	push   %rbp
    40e0:	48 89 e5             	mov    %rsp,%rbp
    40e3:	48 89 7d f8          	mov    %rdi,-0x8(%rbp)
    40e7:	89 75 f4             	mov    %esi,-0xc(%rbp)
    40ea:	83 7d f4 00          	cmpl   $0x0,-0xc(%rbp)
    40ee:	78 2f                	js     411f <safe_lshift_func_uint64_t_u_s+0x44>
    40f0:	83 7d f4 1f          	cmpl   $0x1f,-0xc(%rbp)
    40f4:	7f 29                	jg     411f <safe_lshift_func_uint64_t_u_s+0x44>
    40f6:	8b 45 f4             	mov    -0xc(%rbp),%eax
    40f9:	48 c7 c2 ff ff ff ff 	mov    $0xffffffffffffffff,%rdx
    4100:	89 c1                	mov    %eax,%ecx
    4102:	48 d3 ea             	shr    %cl,%rdx
    4105:	48 89 d0             	mov    %rdx,%rax
    4108:	48 39 45 f8          	cmp    %rax,-0x8(%rbp)
    410c:	77 11                	ja     411f <safe_lshift_func_uint64_t_u_s+0x44>
    410e:	8b 45 f4             	mov    -0xc(%rbp),%eax
    4111:	48 8b 55 f8          	mov    -0x8(%rbp),%rdx
    4115:	89 c1                	mov    %eax,%ecx
    4117:	48 d3 e2             	shl    %cl,%rdx
    411a:	48 89 d0             	mov    %rdx,%rax
    411d:	eb 04                	jmp    4123 <safe_lshift_func_uint64_t_u_s+0x48>
    411f:	48 8b 45 f8          	mov    -0x8(%rbp),%rax
    4123:	5d                   	pop    %rbp
    4124:	c3                   	retq   

0000000000004125 <safe_lshift_func_uint64_t_u_u>:
    4125:	f3 0f 1e fa          	endbr64 
    4129:	55                   	push   %rbp
    412a:	48 89 e5             	mov    %rsp,%rbp
    412d:	48 89 7d f8          	mov    %rdi,-0x8(%rbp)
    4131:	89 75 f4             	mov    %esi,-0xc(%rbp)
    4134:	83 7d f4 1f          	cmpl   $0x1f,-0xc(%rbp)
    4138:	77 29                	ja     4163 <safe_lshift_func_uint64_t_u_u+0x3e>
    413a:	8b 45 f4             	mov    -0xc(%rbp),%eax
    413d:	48 c7 c2 ff ff ff ff 	mov    $0xffffffffffffffff,%rdx
    4144:	89 c1                	mov    %eax,%ecx
    4146:	48 d3 ea             	shr    %cl,%rdx
    4149:	48 89 d0             	mov    %rdx,%rax
    414c:	48 39 45 f8          	cmp    %rax,-0x8(%rbp)
    4150:	77 11                	ja     4163 <safe_lshift_func_uint64_t_u_u+0x3e>
    4152:	8b 45 f4             	mov    -0xc(%rbp),%eax
    4155:	48 8b 55 f8          	mov    -0x8(%rbp),%rdx
    4159:	89 c1                	mov    %eax,%ecx
    415b:	48 d3 e2             	shl    %cl,%rdx
    415e:	48 89 d0             	mov    %rdx,%rax
    4161:	eb 04                	jmp    4167 <safe_lshift_func_uint64_t_u_u+0x42>
    4163:	48 8b 45 f8          	mov    -0x8(%rbp),%rax
    4167:	5d                   	pop    %rbp
    4168:	c3                   	retq   

0000000000004169 <safe_rshift_func_uint64_t_u_s>:
    4169:	f3 0f 1e fa          	endbr64 
    416d:	55                   	push   %rbp
    416e:	48 89 e5             	mov    %rsp,%rbp
    4171:	48 89 7d f8          	mov    %rdi,-0x8(%rbp)
    4175:	89 75 f4             	mov    %esi,-0xc(%rbp)
    4178:	83 7d f4 00          	cmpl   $0x0,-0xc(%rbp)
    417c:	78 17                	js     4195 <safe_rshift_func_uint64_t_u_s+0x2c>
    417e:	83 7d f4 1f          	cmpl   $0x1f,-0xc(%rbp)
    4182:	7f 11                	jg     4195 <safe_rshift_func_uint64_t_u_s+0x2c>
    4184:	8b 45 f4             	mov    -0xc(%rbp),%eax
    4187:	48 8b 55 f8          	mov    -0x8(%rbp),%rdx
    418b:	89 c1                	mov    %eax,%ecx
    418d:	48 d3 ea             	shr    %cl,%rdx
    4190:	48 89 d0             	mov    %rdx,%rax
    4193:	eb 04                	jmp    4199 <safe_rshift_func_uint64_t_u_s+0x30>
    4195:	48 8b 45 f8          	mov    -0x8(%rbp),%rax
    4199:	5d                   	pop    %rbp
    419a:	c3                   	retq   

000000000000419b <safe_rshift_func_uint64_t_u_u>:
    419b:	f3 0f 1e fa          	endbr64 
    419f:	55                   	push   %rbp
    41a0:	48 89 e5             	mov    %rsp,%rbp
    41a3:	48 89 7d f8          	mov    %rdi,-0x8(%rbp)
    41a7:	89 75 f4             	mov    %esi,-0xc(%rbp)
    41aa:	83 7d f4 1f          	cmpl   $0x1f,-0xc(%rbp)
    41ae:	77 11                	ja     41c1 <safe_rshift_func_uint64_t_u_u+0x26>
    41b0:	8b 45 f4             	mov    -0xc(%rbp),%eax
    41b3:	48 8b 55 f8          	mov    -0x8(%rbp),%rdx
    41b7:	89 c1                	mov    %eax,%ecx
    41b9:	48 d3 ea             	shr    %cl,%rdx
    41bc:	48 89 d0             	mov    %rdx,%rax
    41bf:	eb 04                	jmp    41c5 <safe_rshift_func_uint64_t_u_u+0x2a>
    41c1:	48 8b 45 f8          	mov    -0x8(%rbp),%rax
    41c5:	5d                   	pop    %rbp
    41c6:	c3                   	retq   

00000000000041c7 <safe_add_func_float_f_f>:
    41c7:	f3 0f 1e fa          	endbr64 
    41cb:	55                   	push   %rbp
    41cc:	48 89 e5             	mov    %rsp,%rbp
    41cf:	f3 0f 11 45 fc       	movss  %xmm0,-0x4(%rbp)
    41d4:	f3 0f 11 4d f8       	movss  %xmm1,-0x8(%rbp)
    41d9:	f3 0f 10 4d fc       	movss  -0x4(%rbp),%xmm1
    41de:	f3 0f 10 05 fe 6e 00 	movss  0x6efe(%rip),%xmm0        # b0e4 <g_889+0x1082>
    41e5:	00 
    41e6:	f3 0f 59 c8          	mulss  %xmm0,%xmm1
    41ea:	f3 0f 10 55 f8       	movss  -0x8(%rbp),%xmm2
    41ef:	f3 0f 10 05 ed 6e 00 	movss  0x6eed(%rip),%xmm0        # b0e4 <g_889+0x1082>
    41f6:	00 
    41f7:	f3 0f 59 c2          	mulss  %xmm2,%xmm0
    41fb:	f3 0f 58 c1          	addss  %xmm1,%xmm0
    41ff:	f3 0f 10 0d e9 6e 00 	movss  0x6ee9(%rip),%xmm1        # b0f0 <g_889+0x108e>
    4206:	00 
    4207:	0f 54 c1             	andps  %xmm1,%xmm0
    420a:	0f 2f 05 ef 6e 00 00 	comiss 0x6eef(%rip),%xmm0        # b100 <g_889+0x109e>
    4211:	76 07                	jbe    421a <safe_add_func_float_f_f+0x53>
    4213:	f3 0f 10 45 fc       	movss  -0x4(%rbp),%xmm0
    4218:	eb 0a                	jmp    4224 <safe_add_func_float_f_f+0x5d>
    421a:	f3 0f 10 45 fc       	movss  -0x4(%rbp),%xmm0
    421f:	f3 0f 58 45 f8       	addss  -0x8(%rbp),%xmm0
    4224:	5d                   	pop    %rbp
    4225:	c3                   	retq   

0000000000004226 <safe_sub_func_float_f_f>:
    4226:	f3 0f 1e fa          	endbr64 
    422a:	55                   	push   %rbp
    422b:	48 89 e5             	mov    %rsp,%rbp
    422e:	f3 0f 11 45 fc       	movss  %xmm0,-0x4(%rbp)
    4233:	f3 0f 11 4d f8       	movss  %xmm1,-0x8(%rbp)
    4238:	f3 0f 10 4d fc       	movss  -0x4(%rbp),%xmm1
    423d:	f3 0f 10 05 9f 6e 00 	movss  0x6e9f(%rip),%xmm0        # b0e4 <g_889+0x1082>
    4244:	00 
    4245:	f3 0f 59 c1          	mulss  %xmm1,%xmm0
    4249:	f3 0f 10 55 f8       	movss  -0x8(%rbp),%xmm2
    424e:	f3 0f 10 0d 8e 6e 00 	movss  0x6e8e(%rip),%xmm1        # b0e4 <g_889+0x1082>
    4255:	00 
    4256:	f3 0f 59 ca          	mulss  %xmm2,%xmm1
    425a:	f3 0f 5c c1          	subss  %xmm1,%xmm0
    425e:	f3 0f 10 0d 8a 6e 00 	movss  0x6e8a(%rip),%xmm1        # b0f0 <g_889+0x108e>
    4265:	00 
    4266:	0f 54 c1             	andps  %xmm1,%xmm0
    4269:	0f 2f 05 90 6e 00 00 	comiss 0x6e90(%rip),%xmm0        # b100 <g_889+0x109e>
    4270:	76 07                	jbe    4279 <safe_sub_func_float_f_f+0x53>
    4272:	f3 0f 10 45 fc       	movss  -0x4(%rbp),%xmm0
    4277:	eb 0a                	jmp    4283 <safe_sub_func_float_f_f+0x5d>
    4279:	f3 0f 10 45 fc       	movss  -0x4(%rbp),%xmm0
    427e:	f3 0f 5c 45 f8       	subss  -0x8(%rbp),%xmm0
    4283:	5d                   	pop    %rbp
    4284:	c3                   	retq   

0000000000004285 <safe_mul_func_float_f_f>:
    4285:	f3 0f 1e fa          	endbr64 
    4289:	55                   	push   %rbp
    428a:	48 89 e5             	mov    %rsp,%rbp
    428d:	f3 0f 11 45 fc       	movss  %xmm0,-0x4(%rbp)
    4292:	f3 0f 11 4d f8       	movss  %xmm1,-0x8(%rbp)
    4297:	f3 0f 10 4d fc       	movss  -0x4(%rbp),%xmm1
    429c:	f3 0f 10 05 60 6e 00 	movss  0x6e60(%rip),%xmm0        # b104 <g_889+0x10a2>
    42a3:	00 
    42a4:	f3 0f 59 c8          	mulss  %xmm0,%xmm1
    42a8:	f3 0f 10 55 f8       	movss  -0x8(%rbp),%xmm2
    42ad:	f3 0f 10 05 53 6e 00 	movss  0x6e53(%rip),%xmm0        # b108 <g_889+0x10a6>
    42b4:	00 
    42b5:	f3 0f 59 c2          	mulss  %xmm2,%xmm0
    42b9:	f3 0f 59 c1          	mulss  %xmm1,%xmm0
    42bd:	f3 0f 10 0d 2b 6e 00 	movss  0x6e2b(%rip),%xmm1        # b0f0 <g_889+0x108e>
    42c4:	00 
    42c5:	0f 54 c1             	andps  %xmm1,%xmm0
    42c8:	0f 2f 05 3d 6e 00 00 	comiss 0x6e3d(%rip),%xmm0        # b10c <g_889+0x10aa>
    42cf:	76 07                	jbe    42d8 <safe_mul_func_float_f_f+0x53>
    42d1:	f3 0f 10 45 fc       	movss  -0x4(%rbp),%xmm0
    42d6:	eb 0a                	jmp    42e2 <safe_mul_func_float_f_f+0x5d>
    42d8:	f3 0f 10 45 fc       	movss  -0x4(%rbp),%xmm0
    42dd:	f3 0f 59 45 f8       	mulss  -0x8(%rbp),%xmm0
    42e2:	5d                   	pop    %rbp
    42e3:	c3                   	retq   

00000000000042e4 <safe_div_func_float_f_f>:
    42e4:	f3 0f 1e fa          	endbr64 
    42e8:	55                   	push   %rbp
    42e9:	48 89 e5             	mov    %rsp,%rbp
    42ec:	f3 0f 11 45 fc       	movss  %xmm0,-0x4(%rbp)
    42f1:	f3 0f 11 4d f8       	movss  %xmm1,-0x8(%rbp)
    42f6:	f3 0f 10 45 f8       	movss  -0x8(%rbp),%xmm0
    42fb:	f3 0f 10 0d ed 6d 00 	movss  0x6ded(%rip),%xmm1        # b0f0 <g_889+0x108e>
    4302:	00 
    4303:	0f 54 c8             	andps  %xmm0,%xmm1
    4306:	f3 0f 10 05 02 6e 00 	movss  0x6e02(%rip),%xmm0        # b110 <g_889+0x10ae>
    430d:	00 
    430e:	0f 2f c1             	comiss %xmm1,%xmm0
    4311:	0f 97 c0             	seta   %al
    4314:	83 f0 01             	xor    $0x1,%eax
    4317:	84 c0                	test   %al,%al
    4319:	75 56                	jne    4371 <safe_div_func_float_f_f+0x8d>
    431b:	66 0f ef c0          	pxor   %xmm0,%xmm0
    431f:	0f 2e 45 f8          	ucomiss -0x8(%rbp),%xmm0
    4323:	7a 0a                	jp     432f <safe_div_func_float_f_f+0x4b>
    4325:	66 0f ef c0          	pxor   %xmm0,%xmm0
    4329:	0f 2e 45 f8          	ucomiss -0x8(%rbp),%xmm0
    432d:	74 4e                	je     437d <safe_div_func_float_f_f+0x99>
    432f:	f3 0f 10 4d fc       	movss  -0x4(%rbp),%xmm1
    4334:	f3 0f 10 05 d8 6d 00 	movss  0x6dd8(%rip),%xmm0        # b114 <g_889+0x10b2>
    433b:	00 
    433c:	f3 0f 59 c1          	mulss  %xmm1,%xmm0
    4340:	f3 0f 10 55 f8       	movss  -0x8(%rbp),%xmm2
    4345:	f3 0f 10 0d cb 6d 00 	movss  0x6dcb(%rip),%xmm1        # b118 <g_889+0x10b6>
    434c:	00 
    434d:	f3 0f 59 ca          	mulss  %xmm2,%xmm1
    4351:	f3 0f 5e c1          	divss  %xmm1,%xmm0
    4355:	f3 0f 10 0d 93 6d 00 	movss  0x6d93(%rip),%xmm1        # b0f0 <g_889+0x108e>
    435c:	00 
    435d:	0f 54 c1             	andps  %xmm1,%xmm0
    4360:	0f 2f 05 b5 6d 00 00 	comiss 0x6db5(%rip),%xmm0        # b11c <g_889+0x10ba>
    4367:	0f 97 c0             	seta   %al
    436a:	83 f0 01             	xor    $0x1,%eax
    436d:	84 c0                	test   %al,%al
    436f:	74 0c                	je     437d <safe_div_func_float_f_f+0x99>
    4371:	f3 0f 10 45 fc       	movss  -0x4(%rbp),%xmm0
    4376:	f3 0f 5e 45 f8       	divss  -0x8(%rbp),%xmm0
    437b:	eb 05                	jmp    4382 <safe_div_func_float_f_f+0x9e>
    437d:	f3 0f 10 45 fc       	movss  -0x4(%rbp),%xmm0
    4382:	5d                   	pop    %rbp
    4383:	c3                   	retq   

0000000000004384 <safe_add_func_double_f_f>:
    4384:	f3 0f 1e fa          	endbr64 
    4388:	55                   	push   %rbp
    4389:	48 89 e5             	mov    %rsp,%rbp
    438c:	f2 0f 11 45 f8       	movsd  %xmm0,-0x8(%rbp)
    4391:	f2 0f 11 4d f0       	movsd  %xmm1,-0x10(%rbp)
    4396:	f2 0f 10 4d f8       	movsd  -0x8(%rbp),%xmm1
    439b:	f2 0f 10 05 7d 6d 00 	movsd  0x6d7d(%rip),%xmm0        # b120 <g_889+0x10be>
    43a2:	00 
    43a3:	f2 0f 59 c8          	mulsd  %xmm0,%xmm1
    43a7:	f2 0f 10 55 f0       	movsd  -0x10(%rbp),%xmm2
    43ac:	f2 0f 10 05 6c 6d 00 	movsd  0x6d6c(%rip),%xmm0        # b120 <g_889+0x10be>
    43b3:	00 
    43b4:	f2 0f 59 c2          	mulsd  %xmm2,%xmm0
    43b8:	f2 0f 58 c1          	addsd  %xmm1,%xmm0
    43bc:	f3 0f 7e 0d 6c 6d 00 	movq   0x6d6c(%rip),%xmm1        # b130 <g_889+0x10ce>
    43c3:	00 
    43c4:	66 0f 54 c1          	andpd  %xmm1,%xmm0
    43c8:	66 0f 2f 05 70 6d 00 	comisd 0x6d70(%rip),%xmm0        # b140 <g_889+0x10de>
    43cf:	00 
    43d0:	76 07                	jbe    43d9 <safe_add_func_double_f_f+0x55>
    43d2:	f2 0f 10 45 f8       	movsd  -0x8(%rbp),%xmm0
    43d7:	eb 0a                	jmp    43e3 <safe_add_func_double_f_f+0x5f>
    43d9:	f2 0f 10 45 f8       	movsd  -0x8(%rbp),%xmm0
    43de:	f2 0f 58 45 f0       	addsd  -0x10(%rbp),%xmm0
    43e3:	5d                   	pop    %rbp
    43e4:	c3                   	retq   

00000000000043e5 <safe_sub_func_double_f_f>:
    43e5:	f3 0f 1e fa          	endbr64 
    43e9:	55                   	push   %rbp
    43ea:	48 89 e5             	mov    %rsp,%rbp
    43ed:	f2 0f 11 45 f8       	movsd  %xmm0,-0x8(%rbp)
    43f2:	f2 0f 11 4d f0       	movsd  %xmm1,-0x10(%rbp)
    43f7:	f2 0f 10 4d f8       	movsd  -0x8(%rbp),%xmm1
    43fc:	f2 0f 10 05 1c 6d 00 	movsd  0x6d1c(%rip),%xmm0        # b120 <g_889+0x10be>
    4403:	00 
    4404:	f2 0f 59 c1          	mulsd  %xmm1,%xmm0
    4408:	f2 0f 10 55 f0       	movsd  -0x10(%rbp),%xmm2
    440d:	f2 0f 10 0d 0b 6d 00 	movsd  0x6d0b(%rip),%xmm1        # b120 <g_889+0x10be>
    4414:	00 
    4415:	f2 0f 59 ca          	mulsd  %xmm2,%xmm1
    4419:	f2 0f 5c c1          	subsd  %xmm1,%xmm0
    441d:	f3 0f 7e 0d 0b 6d 00 	movq   0x6d0b(%rip),%xmm1        # b130 <g_889+0x10ce>
    4424:	00 
    4425:	66 0f 54 c1          	andpd  %xmm1,%xmm0
    4429:	66 0f 2f 05 0f 6d 00 	comisd 0x6d0f(%rip),%xmm0        # b140 <g_889+0x10de>
    4430:	00 
    4431:	76 07                	jbe    443a <safe_sub_func_double_f_f+0x55>
    4433:	f2 0f 10 45 f8       	movsd  -0x8(%rbp),%xmm0
    4438:	eb 0a                	jmp    4444 <safe_sub_func_double_f_f+0x5f>
    443a:	f2 0f 10 45 f8       	movsd  -0x8(%rbp),%xmm0
    443f:	f2 0f 5c 45 f0       	subsd  -0x10(%rbp),%xmm0
    4444:	5d                   	pop    %rbp
    4445:	c3                   	retq   

0000000000004446 <safe_mul_func_double_f_f>:
    4446:	f3 0f 1e fa          	endbr64 
    444a:	55                   	push   %rbp
    444b:	48 89 e5             	mov    %rsp,%rbp
    444e:	f2 0f 11 45 f8       	movsd  %xmm0,-0x8(%rbp)
    4453:	f2 0f 11 4d f0       	movsd  %xmm1,-0x10(%rbp)
    4458:	f2 0f 10 4d f8       	movsd  -0x8(%rbp),%xmm1
    445d:	f2 0f 10 05 e3 6c 00 	movsd  0x6ce3(%rip),%xmm0        # b148 <g_889+0x10e6>
    4464:	00 
    4465:	f2 0f 59 c8          	mulsd  %xmm0,%xmm1
    4469:	f2 0f 10 55 f0       	movsd  -0x10(%rbp),%xmm2
    446e:	f2 0f 10 05 da 6c 00 	movsd  0x6cda(%rip),%xmm0        # b150 <g_889+0x10ee>
    4475:	00 
    4476:	f2 0f 59 c2          	mulsd  %xmm2,%xmm0
    447a:	f2 0f 59 c1          	mulsd  %xmm1,%xmm0
    447e:	f3 0f 7e 0d aa 6c 00 	movq   0x6caa(%rip),%xmm1        # b130 <g_889+0x10ce>
    4485:	00 
    4486:	66 0f 54 c1          	andpd  %xmm1,%xmm0
    448a:	66 0f 2f 05 c6 6c 00 	comisd 0x6cc6(%rip),%xmm0        # b158 <g_889+0x10f6>
    4491:	00 
    4492:	76 07                	jbe    449b <safe_mul_func_double_f_f+0x55>
    4494:	f2 0f 10 45 f8       	movsd  -0x8(%rbp),%xmm0
    4499:	eb 0a                	jmp    44a5 <safe_mul_func_double_f_f+0x5f>
    449b:	f2 0f 10 45 f8       	movsd  -0x8(%rbp),%xmm0
    44a0:	f2 0f 59 45 f0       	mulsd  -0x10(%rbp),%xmm0
    44a5:	5d                   	pop    %rbp
    44a6:	c3                   	retq   

00000000000044a7 <safe_div_func_double_f_f>:
    44a7:	f3 0f 1e fa          	endbr64 
    44ab:	55                   	push   %rbp
    44ac:	48 89 e5             	mov    %rsp,%rbp
    44af:	f2 0f 11 45 f8       	movsd  %xmm0,-0x8(%rbp)
    44b4:	f2 0f 11 4d f0       	movsd  %xmm1,-0x10(%rbp)
    44b9:	f2 0f 10 45 f0       	movsd  -0x10(%rbp),%xmm0
    44be:	f3 0f 7e 0d 6a 6c 00 	movq   0x6c6a(%rip),%xmm1        # b130 <g_889+0x10ce>
    44c5:	00 
    44c6:	66 0f 54 c8          	andpd  %xmm0,%xmm1
    44ca:	f2 0f 10 05 8e 6c 00 	movsd  0x6c8e(%rip),%xmm0        # b160 <g_889+0x10fe>
    44d1:	00 
    44d2:	66 0f 2f c1          	comisd %xmm1,%xmm0
    44d6:	0f 97 c0             	seta   %al
    44d9:	83 f0 01             	xor    $0x1,%eax
    44dc:	84 c0                	test   %al,%al
    44de:	75 5a                	jne    453a <safe_div_func_double_f_f+0x93>
    44e0:	66 0f ef c0          	pxor   %xmm0,%xmm0
    44e4:	66 0f 2e 45 f0       	ucomisd -0x10(%rbp),%xmm0
    44e9:	7a 0b                	jp     44f6 <safe_div_func_double_f_f+0x4f>
    44eb:	66 0f ef c0          	pxor   %xmm0,%xmm0
    44ef:	66 0f 2e 45 f0       	ucomisd -0x10(%rbp),%xmm0
    44f4:	74 50                	je     4546 <safe_div_func_double_f_f+0x9f>
    44f6:	f2 0f 10 4d f8       	movsd  -0x8(%rbp),%xmm1
    44fb:	f2 0f 10 05 65 6c 00 	movsd  0x6c65(%rip),%xmm0        # b168 <g_889+0x1106>
    4502:	00 
    4503:	f2 0f 59 c1          	mulsd  %xmm1,%xmm0
    4507:	f2 0f 10 55 f0       	movsd  -0x10(%rbp),%xmm2
    450c:	f2 0f 10 0d 5c 6c 00 	movsd  0x6c5c(%rip),%xmm1        # b170 <g_889+0x110e>
    4513:	00 
    4514:	f2 0f 59 ca          	mulsd  %xmm2,%xmm1
    4518:	f2 0f 5e c1          	divsd  %xmm1,%xmm0
    451c:	f3 0f 7e 0d 0c 6c 00 	movq   0x6c0c(%rip),%xmm1        # b130 <g_889+0x10ce>
    4523:	00 
    4524:	66 0f 54 c1          	andpd  %xmm1,%xmm0
    4528:	66 0f 2f 05 48 6c 00 	comisd 0x6c48(%rip),%xmm0        # b178 <g_889+0x1116>
    452f:	00 
    4530:	0f 97 c0             	seta   %al
    4533:	83 f0 01             	xor    $0x1,%eax
    4536:	84 c0                	test   %al,%al
    4538:	74 0c                	je     4546 <safe_div_func_double_f_f+0x9f>
    453a:	f2 0f 10 45 f8       	movsd  -0x8(%rbp),%xmm0
    453f:	f2 0f 5e 45 f0       	divsd  -0x10(%rbp),%xmm0
    4544:	eb 05                	jmp    454b <safe_div_func_double_f_f+0xa4>
    4546:	f2 0f 10 45 f8       	movsd  -0x8(%rbp),%xmm0
    454b:	5d                   	pop    %rbp
    454c:	c3                   	retq   

000000000000454d <safe_convert_func_float_to_int32_t>:
    454d:	f3 0f 1e fa          	endbr64 
    4551:	55                   	push   %rbp
    4552:	48 89 e5             	mov    %rsp,%rbp
    4555:	f3 0f 11 45 fc       	movss  %xmm0,-0x4(%rbp)
    455a:	f3 0f 10 05 1e 6c 00 	movss  0x6c1e(%rip),%xmm0        # b180 <g_889+0x111e>
    4561:	00 
    4562:	0f 2f 45 fc          	comiss -0x4(%rbp),%xmm0
    4566:	0f 93 c0             	setae  %al
    4569:	83 f0 01             	xor    $0x1,%eax
    456c:	84 c0                	test   %al,%al
    456e:	74 21                	je     4591 <safe_convert_func_float_to_int32_t+0x44>
    4570:	f3 0f 10 45 fc       	movss  -0x4(%rbp),%xmm0
    4575:	0f 2f 05 08 6c 00 00 	comiss 0x6c08(%rip),%xmm0        # b184 <g_889+0x1122>
    457c:	0f 93 c0             	setae  %al
    457f:	83 f0 01             	xor    $0x1,%eax
    4582:	84 c0                	test   %al,%al
    4584:	74 0b                	je     4591 <safe_convert_func_float_to_int32_t+0x44>
    4586:	f3 0f 10 45 fc       	movss  -0x4(%rbp),%xmm0
    458b:	f3 0f 2c c0          	cvttss2si %xmm0,%eax
    458f:	eb 05                	jmp    4596 <safe_convert_func_float_to_int32_t+0x49>
    4591:	b8 ff ff ff 7f       	mov    $0x7fffffff,%eax
    4596:	5d                   	pop    %rbp
    4597:	c3                   	retq   

0000000000004598 <crc32_gentab>:
    4598:	f3 0f 1e fa          	endbr64 
    459c:	55                   	push   %rbp
    459d:	48 89 e5             	mov    %rsp,%rbp
    45a0:	c7 45 fc 20 83 b8 ed 	movl   $0xedb88320,-0x4(%rbp)
    45a7:	c7 45 f4 00 00 00 00 	movl   $0x0,-0xc(%rbp)
    45ae:	eb 51                	jmp    4601 <crc32_gentab+0x69>
    45b0:	8b 45 f4             	mov    -0xc(%rbp),%eax
    45b3:	89 45 f0             	mov    %eax,-0x10(%rbp)
    45b6:	c7 45 f8 08 00 00 00 	movl   $0x8,-0x8(%rbp)
    45bd:	eb 1e                	jmp    45dd <crc32_gentab+0x45>
    45bf:	8b 45 f0             	mov    -0x10(%rbp),%eax
    45c2:	83 e0 01             	and    $0x1,%eax
    45c5:	85 c0                	test   %eax,%eax
    45c7:	74 0d                	je     45d6 <crc32_gentab+0x3e>
    45c9:	8b 45 f0             	mov    -0x10(%rbp),%eax
    45cc:	d1 e8                	shr    %eax
    45ce:	33 45 fc             	xor    -0x4(%rbp),%eax
    45d1:	89 45 f0             	mov    %eax,-0x10(%rbp)
    45d4:	eb 03                	jmp    45d9 <crc32_gentab+0x41>
    45d6:	d1 6d f0             	shrl   -0x10(%rbp)
    45d9:	83 6d f8 01          	subl   $0x1,-0x8(%rbp)
    45dd:	83 7d f8 00          	cmpl   $0x0,-0x8(%rbp)
    45e1:	7f dc                	jg     45bf <crc32_gentab+0x27>
    45e3:	8b 45 f4             	mov    -0xc(%rbp),%eax
    45e6:	48 98                	cltq   
    45e8:	48 8d 0c 85 00 00 00 	lea    0x0(,%rax,4),%rcx
    45ef:	00 
    45f0:	48 8d 15 49 b2 00 00 	lea    0xb249(%rip),%rdx        # f840 <crc32_tab>
    45f7:	8b 45 f0             	mov    -0x10(%rbp),%eax
    45fa:	89 04 11             	mov    %eax,(%rcx,%rdx,1)
    45fd:	83 45 f4 01          	addl   $0x1,-0xc(%rbp)
    4601:	81 7d f4 ff 00 00 00 	cmpl   $0xff,-0xc(%rbp)
    4608:	7e a6                	jle    45b0 <crc32_gentab+0x18>
    460a:	90                   	nop
    460b:	90                   	nop
    460c:	5d                   	pop    %rbp
    460d:	c3                   	retq   

000000000000460e <crc32_byte>:
    460e:	f3 0f 1e fa          	endbr64 
    4612:	55                   	push   %rbp
    4613:	48 89 e5             	mov    %rsp,%rbp
    4616:	89 f8                	mov    %edi,%eax
    4618:	88 45 fc             	mov    %al,-0x4(%rbp)
    461b:	8b 05 ff 99 00 00    	mov    0x99ff(%rip),%eax        # e020 <crc32_context>
    4621:	c1 e8 08             	shr    $0x8,%eax
    4624:	89 c1                	mov    %eax,%ecx
    4626:	0f b6 55 fc          	movzbl -0x4(%rbp),%edx
    462a:	8b 05 f0 99 00 00    	mov    0x99f0(%rip),%eax        # e020 <crc32_context>
    4630:	31 d0                	xor    %edx,%eax
    4632:	0f b6 c0             	movzbl %al,%eax
    4635:	89 c0                	mov    %eax,%eax
    4637:	48 8d 14 85 00 00 00 	lea    0x0(,%rax,4),%rdx
    463e:	00 
    463f:	48 8d 05 fa b1 00 00 	lea    0xb1fa(%rip),%rax        # f840 <crc32_tab>
    4646:	8b 04 02             	mov    (%rdx,%rax,1),%eax
    4649:	31 c8                	xor    %ecx,%eax
    464b:	89 05 cf 99 00 00    	mov    %eax,0x99cf(%rip)        # e020 <crc32_context>
    4651:	90                   	nop
    4652:	5d                   	pop    %rbp
    4653:	c3                   	retq   

0000000000004654 <crc32_8bytes>:
    4654:	f3 0f 1e fa          	endbr64 
    4658:	55                   	push   %rbp
    4659:	48 89 e5             	mov    %rsp,%rbp
    465c:	48 83 ec 08          	sub    $0x8,%rsp
    4660:	48 89 7d f8          	mov    %rdi,-0x8(%rbp)
    4664:	48 8b 45 f8          	mov    -0x8(%rbp),%rax
    4668:	0f b6 c0             	movzbl %al,%eax
    466b:	89 c7                	mov    %eax,%edi
    466d:	e8 9c ff ff ff       	callq  460e <crc32_byte>
    4672:	48 8b 45 f8          	mov    -0x8(%rbp),%rax
    4676:	48 c1 e8 08          	shr    $0x8,%rax
    467a:	0f b6 c0             	movzbl %al,%eax
    467d:	89 c7                	mov    %eax,%edi
    467f:	e8 8a ff ff ff       	callq  460e <crc32_byte>
    4684:	48 8b 45 f8          	mov    -0x8(%rbp),%rax
    4688:	48 c1 e8 10          	shr    $0x10,%rax
    468c:	0f b6 c0             	movzbl %al,%eax
    468f:	89 c7                	mov    %eax,%edi
    4691:	e8 78 ff ff ff       	callq  460e <crc32_byte>
    4696:	48 8b 45 f8          	mov    -0x8(%rbp),%rax
    469a:	48 c1 e8 18          	shr    $0x18,%rax
    469e:	0f b6 c0             	movzbl %al,%eax
    46a1:	89 c7                	mov    %eax,%edi
    46a3:	e8 66 ff ff ff       	callq  460e <crc32_byte>
    46a8:	48 8b 45 f8          	mov    -0x8(%rbp),%rax
    46ac:	48 c1 e8 20          	shr    $0x20,%rax
    46b0:	0f b6 c0             	movzbl %al,%eax
    46b3:	89 c7                	mov    %eax,%edi
    46b5:	e8 54 ff ff ff       	callq  460e <crc32_byte>
    46ba:	48 8b 45 f8          	mov    -0x8(%rbp),%rax
    46be:	48 c1 e8 28          	shr    $0x28,%rax
    46c2:	0f b6 c0             	movzbl %al,%eax
    46c5:	89 c7                	mov    %eax,%edi
    46c7:	e8 42 ff ff ff       	callq  460e <crc32_byte>
    46cc:	48 8b 45 f8          	mov    -0x8(%rbp),%rax
    46d0:	48 c1 e8 30          	shr    $0x30,%rax
    46d4:	0f b6 c0             	movzbl %al,%eax
    46d7:	89 c7                	mov    %eax,%edi
    46d9:	e8 30 ff ff ff       	callq  460e <crc32_byte>
    46de:	48 8b 45 f8          	mov    -0x8(%rbp),%rax
    46e2:	48 c1 e8 38          	shr    $0x38,%rax
    46e6:	0f b6 c0             	movzbl %al,%eax
    46e9:	89 c7                	mov    %eax,%edi
    46eb:	e8 1e ff ff ff       	callq  460e <crc32_byte>
    46f0:	90                   	nop
    46f1:	c9                   	leaveq 
    46f2:	c3                   	retq   

00000000000046f3 <transparent_crc>:
    46f3:	f3 0f 1e fa          	endbr64 
    46f7:	55                   	push   %rbp
    46f8:	48 89 e5             	mov    %rsp,%rbp
    46fb:	48 83 ec 20          	sub    $0x20,%rsp
    46ff:	48 89 7d f8          	mov    %rdi,-0x8(%rbp)
    4703:	48 89 75 f0          	mov    %rsi,-0x10(%rbp)
    4707:	89 55 ec             	mov    %edx,-0x14(%rbp)
    470a:	48 8b 45 f8          	mov    -0x8(%rbp),%rax
    470e:	48 89 c7             	mov    %rax,%rdi
    4711:	e8 3e ff ff ff       	callq  4654 <crc32_8bytes>
    4716:	83 7d ec 00          	cmpl   $0x0,-0x14(%rbp)
    471a:	74 22                	je     473e <transparent_crc+0x4b>
    471c:	8b 05 fe 98 00 00    	mov    0x98fe(%rip),%eax        # e020 <crc32_context>
    4722:	f7 d0                	not    %eax
    4724:	89 c2                	mov    %eax,%edx
    4726:	48 8b 45 f0          	mov    -0x10(%rbp),%rax
    472a:	48 89 c6             	mov    %rax,%rsi
    472d:	48 8d 3d fc 58 00 00 	lea    0x58fc(%rip),%rdi        # a030 <_IO_stdin_used+0x30>
    4734:	b8 00 00 00 00       	mov    $0x0,%eax
    4739:	e8 42 e9 ff ff       	callq  3080 <printf@plt>
    473e:	90                   	nop
    473f:	c9                   	leaveq 
    4740:	c3                   	retq   

0000000000004741 <transparent_crc_bytes>:
    4741:	f3 0f 1e fa          	endbr64 
    4745:	55                   	push   %rbp
    4746:	48 89 e5             	mov    %rsp,%rbp
    4749:	48 83 ec 30          	sub    $0x30,%rsp
    474d:	48 89 7d e8          	mov    %rdi,-0x18(%rbp)
    4751:	89 75 e4             	mov    %esi,-0x1c(%rbp)
    4754:	48 89 55 d8          	mov    %rdx,-0x28(%rbp)
    4758:	89 4d e0             	mov    %ecx,-0x20(%rbp)
    475b:	c7 45 fc 00 00 00 00 	movl   $0x0,-0x4(%rbp)
    4762:	eb 1e                	jmp    4782 <transparent_crc_bytes+0x41>
    4764:	8b 45 fc             	mov    -0x4(%rbp),%eax
    4767:	48 63 d0             	movslq %eax,%rdx
    476a:	48 8b 45 e8          	mov    -0x18(%rbp),%rax
    476e:	48 01 d0             	add    %rdx,%rax
    4771:	0f b6 00             	movzbl (%rax),%eax
    4774:	0f b6 c0             	movzbl %al,%eax
    4777:	89 c7                	mov    %eax,%edi
    4779:	e8 90 fe ff ff       	callq  460e <crc32_byte>
    477e:	83 45 fc 01          	addl   $0x1,-0x4(%rbp)
    4782:	8b 45 fc             	mov    -0x4(%rbp),%eax
    4785:	3b 45 e4             	cmp    -0x1c(%rbp),%eax
    4788:	7c da                	jl     4764 <transparent_crc_bytes+0x23>
    478a:	83 7d e0 00          	cmpl   $0x0,-0x20(%rbp)
    478e:	74 22                	je     47b2 <transparent_crc_bytes+0x71>
    4790:	8b 05 8a 98 00 00    	mov    0x988a(%rip),%eax        # e020 <crc32_context>
    4796:	f7 d0                	not    %eax
    4798:	89 c2                	mov    %eax,%edx
    479a:	48 8b 45 d8          	mov    -0x28(%rbp),%rax
    479e:	48 89 c6             	mov    %rax,%rsi
    47a1:	48 8d 3d 88 58 00 00 	lea    0x5888(%rip),%rdi        # a030 <_IO_stdin_used+0x30>
    47a8:	b8 00 00 00 00       	mov    $0x0,%eax
    47ad:	e8 ce e8 ff ff       	callq  3080 <printf@plt>
    47b2:	90                   	nop
    47b3:	c9                   	leaveq 
    47b4:	c3                   	retq   

00000000000047b5 <func_1>:
    47b5:	f3 0f 1e fa          	endbr64 
    47b9:	55                   	push   %rbp
    47ba:	48 89 e5             	mov    %rsp,%rbp
    47bd:	41 57                	push   %r15
    47bf:	41 56                	push   %r14
    47c1:	41 55                	push   %r13
    47c3:	41 54                	push   %r12
    47c5:	53                   	push   %rbx
    47c6:	48 81 ec 68 02 00 00 	sub    $0x268,%rsp
    47cd:	64 48 8b 04 25 28 00 	mov    %fs:0x28,%rax
    47d4:	00 00 
    47d6:	48 89 45 c8          	mov    %rax,-0x38(%rbp)
    47da:	31 c0                	xor    %eax,%eax
    47dc:	66 c7 85 82 fd ff ff 	movw   $0x811f,-0x27e(%rbp)
    47e3:	1f 81 
    47e5:	48 8d 85 90 fd ff ff 	lea    -0x270(%rbp),%rax
    47ec:	48 8d 15 2d a2 00 00 	lea    0xa22d(%rip),%rdx        # ea20 <g_1149+0x20>
    47f3:	b9 46 00 00 00       	mov    $0x46,%ecx
    47f8:	48 89 c7             	mov    %rax,%rdi
    47fb:	48 89 d6             	mov    %rdx,%rsi
    47fe:	f3 48 a5             	rep movsq %ds:(%rsi),%es:(%rdi)
    4801:	c7 85 88 fd ff ff 99 	movl   $0xb1167399,-0x278(%rbp)
    4808:	73 16 b1 
    480b:	c7 85 84 fd ff ff e6 	movl   $0x3a4561e6,-0x27c(%rbp)
    4812:	61 45 3a 
    4815:	c7 85 8c fd ff ff 01 	movl   $0x1,-0x274(%rbp)
    481c:	00 00 00 
    481f:	0f b6 05 52 b4 00 00 	movzbl 0xb452(%rip),%eax        # fc78 <g_453>
    4826:	0f be c0             	movsbl %al,%eax
    4829:	89 85 7c fd ff ff    	mov    %eax,-0x284(%rbp)
    482f:	0f b7 85 82 fd ff ff 	movzwl -0x27e(%rbp),%eax
    4836:	44 0f be e0          	movsbl %al,%r12d
    483a:	0f bf 9d 82 fd ff ff 	movswl -0x27e(%rbp),%ebx
    4841:	0f b7 05 dc 97 00 00 	movzwl 0x97dc(%rip),%eax        # e024 <g_16>
    4848:	0f b7 c0             	movzwl %ax,%eax
    484b:	8b 15 d7 97 00 00    	mov    0x97d7(%rip),%edx        # e028 <g_17>
    4851:	89 d6                	mov    %edx,%esi
    4853:	89 c7                	mov    %eax,%edi
    4855:	e8 51 0a 00 00       	callq  52ab <func_13>
    485a:	44 0f bf ad 82 fd ff 	movswl -0x27e(%rbp),%r13d
    4861:	ff 
    4862:	0f b6 05 6f a1 00 00 	movzbl 0xa16f(%rip),%eax        # e9d8 <g_436>
    4869:	83 e0 0f             	and    $0xf,%eax
    486c:	44 0f b6 f0          	movzbl %al,%r14d
    4870:	48 8b 0d 09 9c 00 00 	mov    0x9c09(%rip),%rcx        # e480 <g_126+0x3c0>
    4877:	48 89 8d 70 fd ff ff 	mov    %rcx,-0x290(%rbp)
    487e:	48 8b 05 c3 9f 00 00 	mov    0x9fc3(%rip),%rax        # e848 <g_159>
    4885:	48 85 c0             	test   %rax,%rax
    4888:	0f 94 c0             	sete   %al
    488b:	0f b6 f0             	movzbl %al,%esi
    488e:	89 b5 78 fd ff ff    	mov    %esi,-0x288(%rbp)
    4894:	44 0f bf bd 82 fd ff 	movswl -0x27e(%rbp),%r15d
    489b:	ff 
    489c:	48 8b 15 cd b3 00 00 	mov    0xb3cd(%rip),%rdx        # fc70 <g_449>
    48a3:	48 0f bf 85 82 fd ff 	movswq -0x27e(%rbp),%rax
    48aa:	ff 
    48ab:	48 89 d6             	mov    %rdx,%rsi
    48ae:	48 89 c7             	mov    %rax,%rdi
    48b1:	e8 ca f7 ff ff       	callq  4080 <safe_mod_func_uint64_t_u_u>
    48b6:	98                   	cwtl   
    48b7:	44 89 fe             	mov    %r15d,%esi
    48ba:	89 c7                	mov    %eax,%edi
    48bc:	e8 20 ec ff ff       	callq  34e1 <safe_lshift_func_int16_t_s_u>
    48c1:	98                   	cwtl   
    48c2:	39 85 78 fd ff ff    	cmp    %eax,-0x288(%rbp)
    48c8:	0f 9f c0             	setg   %al
    48cb:	0f b6 c0             	movzbl %al,%eax
    48ce:	48 39 85 70 fd ff ff 	cmp    %rax,-0x290(%rbp)
    48d5:	0f 94 c0             	sete   %al
    48d8:	0f b6 d0             	movzbl %al,%edx
    48db:	0f bf 85 82 fd ff ff 	movswl -0x27e(%rbp),%eax
    48e2:	39 c2                	cmp    %eax,%edx
    48e4:	0f 9f c0             	setg   %al
    48e7:	0f b6 c0             	movzbl %al,%eax
    48ea:	44 89 f6             	mov    %r14d,%esi
    48ed:	89 c7                	mov    %eax,%edi
    48ef:	e8 1e e9 ff ff       	callq  3212 <safe_mul_func_int8_t_s_s>
    48f4:	66 98                	cbtw   
    48f6:	66 39 85 82 fd ff ff 	cmp    %ax,-0x27e(%rbp)
    48fd:	0f 9f c0             	setg   %al
    4900:	0f b6 c0             	movzbl %al,%eax
    4903:	44 89 ee             	mov    %r13d,%esi
    4906:	89 c7                	mov    %eax,%edi
    4908:	e8 c6 ea ff ff       	callq  33d3 <safe_sub_func_int16_t_s_s>
    490d:	0f be c0             	movsbl %al,%eax
    4910:	89 c6                	mov    %eax,%esi
    4912:	bf 00 00 00 00       	mov    $0x0,%edi
    4917:	e8 d6 e8 ff ff       	callq  31f2 <safe_sub_func_int8_t_s_s>
    491c:	0f be c0             	movsbl %al,%eax
    491f:	89 85 88 fd ff ff    	mov    %eax,-0x278(%rbp)
    4925:	8b 85 88 fd ff ff    	mov    -0x278(%rbp),%eax
    492b:	0f be c0             	movsbl %al,%eax
    492e:	8b 95 84 fd ff ff    	mov    -0x27c(%rbp),%edx
    4934:	44 8b 85 7c fd ff ff 	mov    -0x284(%rbp),%r8d
    493b:	89 d1                	mov    %edx,%ecx
    493d:	44 89 e2             	mov    %r12d,%edx
    4940:	89 de                	mov    %ebx,%esi
    4942:	89 c7                	mov    %eax,%edi
    4944:	e8 78 00 00 00       	callq  49c1 <func_7>
    4949:	48 0f bf 85 82 fd ff 	movswq -0x27e(%rbp),%rax
    4950:	ff 
    4951:	48 89 c6             	mov    %rax,%rsi
    4954:	bf 01 00 00 00       	mov    $0x1,%edi
    4959:	e8 4a ef ff ff       	callq  38a8 <safe_sub_func_int64_t_s_s>
    495e:	be 02 00 00 00       	mov    $0x2,%esi
    4963:	48 89 c7             	mov    %rax,%rdi
    4966:	e8 44 f7 ff ff       	callq  40af <safe_div_func_uint64_t_u_u>
    496b:	89 85 8c fd ff ff    	mov    %eax,-0x274(%rbp)
    4971:	0f b6 05 83 a0 00 00 	movzbl 0xa083(%rip),%eax        # e9fb <g_1008>
    4978:	c0 e8 04             	shr    $0x4,%al
    497b:	0f b6 c0             	movzbl %al,%eax
    497e:	0f b6 15 77 a0 00 00 	movzbl 0xa077(%rip),%edx        # e9fc <g_1008+0x1>
    4985:	0f b6 d2             	movzbl %dl,%edx
    4988:	83 e2 1f             	and    $0x1f,%edx
    498b:	48 c1 e2 04          	shl    $0x4,%rdx
    498f:	48 09 d0             	or     %rdx,%rax
    4992:	48 c1 e0 37          	shl    $0x37,%rax
    4996:	48 c1 f8 37          	sar    $0x37,%rax
    499a:	98                   	cwtl   
    499b:	48 8b 5d c8          	mov    -0x38(%rbp),%rbx
    499f:	64 48 33 1c 25 28 00 	xor    %fs:0x28,%rbx
    49a6:	00 00 
    49a8:	74 05                	je     49af <func_1+0x1fa>
    49aa:	e8 c1 e6 ff ff       	callq  3070 <__stack_chk_fail@plt>
    49af:	48 81 c4 68 02 00 00 	add    $0x268,%rsp
    49b6:	5b                   	pop    %rbx
    49b7:	41 5c                	pop    %r12
    49b9:	41 5d                	pop    %r13
    49bb:	41 5e                	pop    %r14
    49bd:	41 5f                	pop    %r15
    49bf:	5d                   	pop    %rbp
    49c0:	c3                   	retq   

00000000000049c1 <func_7>:
    49c1:	f3 0f 1e fa          	endbr64 
    49c5:	55                   	push   %rbp
    49c6:	48 89 e5             	mov    %rsp,%rbp
    49c9:	41 55                	push   %r13
    49cb:	41 54                	push   %r12
    49cd:	53                   	push   %rbx
    49ce:	48 81 ec c8 0c 00 00 	sub    $0xcc8,%rsp
    49d5:	89 b5 38 f3 ff ff    	mov    %esi,-0xcc8(%rbp)
    49db:	89 d0                	mov    %edx,%eax
    49dd:	89 8d 30 f3 ff ff    	mov    %ecx,-0xcd0(%rbp)
    49e3:	44 89 c1             	mov    %r8d,%ecx
    49e6:	89 fa                	mov    %edi,%edx
    49e8:	88 95 3c f3 ff ff    	mov    %dl,-0xcc4(%rbp)
    49ee:	88 85 34 f3 ff ff    	mov    %al,-0xccc(%rbp)
    49f4:	89 c8                	mov    %ecx,%eax
    49f6:	88 85 2c f3 ff ff    	mov    %al,-0xcd4(%rbp)
    49fc:	64 48 8b 04 25 28 00 	mov    %fs:0x28,%rax
    4a03:	00 00 
    4a05:	48 89 45 d8          	mov    %rax,-0x28(%rbp)
    4a09:	31 c0                	xor    %eax,%eax
    4a0b:	48 b8 b0 6e ea a1 5d 	movabs $0xd287245da1ea6eb0,%rax
    4a12:	24 87 d2 
    4a15:	48 89 85 88 f3 ff ff 	mov    %rax,-0xc78(%rbp)
    4a1c:	48 8d 05 01 96 00 00 	lea    0x9601(%rip),%rax        # e024 <g_16>
    4a23:	48 89 85 90 f4 ff ff 	mov    %rax,-0xb70(%rbp)
    4a2a:	48 8d 05 f7 95 00 00 	lea    0x95f7(%rip),%rax        # e028 <g_17>
    4a31:	48 89 85 90 f3 ff ff 	mov    %rax,-0xc70(%rbp)
    4a38:	48 8d 85 bc f4 ff ff 	lea    -0xb44(%rbp),%rax
    4a3f:	48 89 85 98 f4 ff ff 	mov    %rax,-0xb68(%rbp)
    4a46:	c6 85 43 f3 ff ff 00 	movb   $0x0,-0xcbd(%rbp)
    4a4d:	48 8d 05 14 ab 00 00 	lea    0xab14(%rip),%rax        # f568 <g_134>
    4a54:	48 89 85 98 f3 ff ff 	mov    %rax,-0xc68(%rbp)
    4a5b:	48 8d 85 98 f3 ff ff 	lea    -0xc68(%rbp),%rax
    4a62:	48 89 85 a0 f4 ff ff 	mov    %rax,-0xb60(%rbp)
    4a69:	48 8d 05 68 9f 00 00 	lea    0x9f68(%rip),%rax        # e9d8 <g_436>
    4a70:	48 89 85 a0 f3 ff ff 	mov    %rax,-0xc60(%rbp)
    4a77:	48 c7 85 a8 f4 ff ff 	movq   $0x0,-0xb58(%rbp)
    4a7e:	00 00 00 00 
    4a82:	48 c7 85 b0 f4 ff ff 	movq   $0x0,-0xb50(%rbp)
    4a89:	00 00 00 00 
    4a8d:	48 8d 85 30 f5 ff ff 	lea    -0xad0(%rbp),%rax
    4a94:	48 8d 15 e5 55 00 00 	lea    0x55e5(%rip),%rdx        # a080 <g_889+0x1e>
    4a9b:	b9 5e 00 00 00       	mov    $0x5e,%ecx
    4aa0:	48 89 c7             	mov    %rax,%rdi
    4aa3:	48 89 d6             	mov    %rdx,%rsi
    4aa6:	f3 48 a5             	rep movsq %ds:(%rsi),%es:(%rdi)
    4aa9:	48 89 f2             	mov    %rsi,%rdx
    4aac:	48 89 f8             	mov    %rdi,%rax
    4aaf:	8b 0a                	mov    (%rdx),%ecx
    4ab1:	89 08                	mov    %ecx,(%rax)
    4ab3:	48 8d 40 04          	lea    0x4(%rax),%rax
    4ab7:	48 8d 52 04          	lea    0x4(%rdx),%rdx
    4abb:	48 8d 85 30 f8 ff ff 	lea    -0x7d0(%rbp),%rax
    4ac2:	48 8d 15 b7 58 00 00 	lea    0x58b7(%rip),%rdx        # a380 <g_889+0x31e>
    4ac9:	b9 78 00 00 00       	mov    $0x78,%ecx
    4ace:	48 89 c7             	mov    %rax,%rdi
    4ad1:	48 89 d6             	mov    %rdx,%rsi
    4ad4:	f3 48 a5             	rep movsq %ds:(%rsi),%es:(%rdi)
    4ad7:	48 b8 84 0e 57 c6 05 	movabs $0x162e4a05c6570e84,%rax
    4ade:	4a 2e 16 
    4ae1:	48 89 85 a8 f3 ff ff 	mov    %rax,-0xc58(%rbp)
    4ae8:	66 c7 85 e0 f4 ff ff 	movw   $0xfffa,-0xb20(%rbp)
    4aef:	fa ff 
    4af1:	66 c7 85 e2 f4 ff ff 	movw   $0xfffa,-0xb1e(%rbp)
    4af8:	fa ff 
    4afa:	66 c7 85 e4 f4 ff ff 	movw   $0xfffa,-0xb1c(%rbp)
    4b01:	fa ff 
    4b03:	66 c7 85 e6 f4 ff ff 	movw   $0xfffa,-0xb1a(%rbp)
    4b0a:	fa ff 
    4b0c:	66 c7 85 e8 f4 ff ff 	movw   $0xfffa,-0xb18(%rbp)
    4b13:	fa ff 
    4b15:	66 c7 85 ea f4 ff ff 	movw   $0xfffa,-0xb16(%rbp)
    4b1c:	fa ff 
    4b1e:	66 c7 85 ec f4 ff ff 	movw   $0xfffa,-0xb14(%rbp)
    4b25:	fa ff 
    4b27:	66 c7 85 ee f4 ff ff 	movw   $0xfffa,-0xb12(%rbp)
    4b2e:	fa ff 
    4b30:	66 c7 85 f0 f4 ff ff 	movw   $0xfffa,-0xb10(%rbp)
    4b37:	fa ff 
    4b39:	c6 85 42 f3 ff ff 09 	movb   $0x9,-0xcbe(%rbp)
    4b40:	48 8d 85 a8 f3 ff ff 	lea    -0xc58(%rbp),%rax
    4b47:	48 89 85 b0 f3 ff ff 	mov    %rax,-0xc50(%rbp)
    4b4e:	48 8d 85 b0 f3 ff ff 	lea    -0xc50(%rbp),%rax
    4b55:	48 89 85 88 f4 ff ff 	mov    %rax,-0xb78(%rbp)
    4b5c:	c6 85 41 f3 ff ff 94 	movb   $0x94,-0xcbf(%rbp)
    4b63:	48 b8 18 59 42 f3 04 	movabs $0xaf497d04f3425918,%rax
    4b6a:	7d 49 af 
    4b6d:	48 89 85 38 f4 ff ff 	mov    %rax,-0xbc8(%rbp)
    4b74:	48 8d 05 1d ac 00 00 	lea    0xac1d(%rip),%rax        # f798 <g_613>
    4b7b:	48 89 85 40 f4 ff ff 	mov    %rax,-0xbc0(%rbp)
    4b82:	48 c7 85 48 f4 ff ff 	movq   $0x0,-0xbb8(%rbp)
    4b89:	00 00 00 00 
    4b8d:	c7 85 4c f3 ff ff 85 	movl   $0x95efc85,-0xcb4(%rbp)
    4b94:	fc 5e 09 
    4b97:	c7 85 50 f3 ff ff 00 	movl   $0x0,-0xcb0(%rbp)
    4b9e:	00 00 00 
    4ba1:	eb 1a                	jmp    4bbd <func_7+0x1fc>
    4ba3:	8b 85 50 f3 ff ff    	mov    -0xcb0(%rbp),%eax
    4ba9:	48 98                	cltq   
    4bab:	c7 84 85 bc f4 ff ff 	movl   $0x2,-0xb44(%rbp,%rax,4)
    4bb2:	02 00 00 00 
    4bb6:	83 85 50 f3 ff ff 01 	addl   $0x1,-0xcb0(%rbp)
    4bbd:	83 bd 50 f3 ff ff 00 	cmpl   $0x0,-0xcb0(%rbp)
    4bc4:	7e dd                	jle    4ba3 <func_7+0x1e2>
    4bc6:	c7 85 50 f3 ff ff 00 	movl   $0x0,-0xcb0(%rbp)
    4bcd:	00 00 00 
    4bd0:	eb 14                	jmp    4be6 <func_7+0x225>
    4bd2:	8b 85 50 f3 ff ff    	mov    -0xcb0(%rbp),%eax
    4bd8:	48 98                	cltq   
    4bda:	c6 44 05 d4 ff       	movb   $0xff,-0x2c(%rbp,%rax,1)
    4bdf:	83 85 50 f3 ff ff 01 	addl   $0x1,-0xcb0(%rbp)
    4be6:	83 bd 50 f3 ff ff 03 	cmpl   $0x3,-0xcb0(%rbp)
    4bed:	7e e3                	jle    4bd2 <func_7+0x211>
    4bef:	c7 85 50 f3 ff ff 00 	movl   $0x0,-0xcb0(%rbp)
    4bf6:	00 00 00 
    4bf9:	eb 19                	jmp    4c14 <func_7+0x253>
    4bfb:	8b 85 50 f3 ff ff    	mov    -0xcb0(%rbp),%eax
    4c01:	48 98                	cltq   
    4c03:	66 c7 84 45 d6 f4 ff 	movw   $0xeda9,-0xb2a(%rbp,%rax,2)
    4c0a:	ff a9 ed 
    4c0d:	83 85 50 f3 ff ff 01 	addl   $0x1,-0xcb0(%rbp)
    4c14:	83 bd 50 f3 ff ff 04 	cmpl   $0x4,-0xcb0(%rbp)
    4c1b:	7e de                	jle    4bfb <func_7+0x23a>
    4c1d:	48 8b 15 3c a9 00 00 	mov    0xa93c(%rip),%rdx        # f560 <g_135>
    4c24:	48 8b 05 35 a9 00 00 	mov    0xa935(%rip),%rax        # f560 <g_135>
    4c2b:	48 8b 12             	mov    (%rdx),%rdx
    4c2e:	48 89 10             	mov    %rdx,(%rax)
    4c31:	0f b6 05 00 94 00 00 	movzbl 0x9400(%rip),%eax        # e038 <g_47>
    4c38:	0f b6 d0             	movzbl %al,%edx
    4c3b:	0f b6 05 96 9d 00 00 	movzbl 0x9d96(%rip),%eax        # e9d8 <g_436>
    4c42:	c0 e8 04             	shr    $0x4,%al
    4c45:	0f b6 c0             	movzbl %al,%eax
    4c48:	0f b6 0d 8a 9d 00 00 	movzbl 0x9d8a(%rip),%ecx        # e9d9 <g_436+0x1>
    4c4f:	0f b6 c9             	movzbl %cl,%ecx
    4c52:	83 e1 1f             	and    $0x1f,%ecx
    4c55:	48 c1 e1 04          	shl    $0x4,%rcx
    4c59:	48 09 c8             	or     %rcx,%rax
    4c5c:	48 c1 e0 37          	shl    $0x37,%rax
    4c60:	48 c1 f8 37          	sar    $0x37,%rax
    4c64:	0f be c0             	movsbl %al,%eax
    4c67:	89 d6                	mov    %edx,%esi
    4c69:	89 c7                	mov    %eax,%edi
    4c6b:	e8 c5 e6 ff ff       	callq  3335 <safe_rshift_func_int8_t_s_s>
    4c70:	89 c2                	mov    %eax,%edx
    4c72:	48 8b 05 07 ab 00 00 	mov    0xab07(%rip),%rax        # f780 <g_456>
    4c79:	0f be d2             	movsbl %dl,%edx
    4c7c:	89 10                	mov    %edx,(%rax)
    4c7e:	48 83 bd 90 f4 ff ff 	cmpq   $0x0,-0xb70(%rbp)
    4c85:	00 
    4c86:	0f 95 c0             	setne  %al
    4c89:	0f b6 d0             	movzbl %al,%edx
    4c8c:	48 8b 85 88 f3 ff ff 	mov    -0xc78(%rbp),%rax
    4c93:	48 39 c2             	cmp    %rax,%rdx
    4c96:	8b 85 bc f4 ff ff    	mov    -0xb44(%rbp),%eax
    4c9c:	85 c0                	test   %eax,%eax
    4c9e:	0f 95 c0             	setne  %al
    4ca1:	0f b6 c0             	movzbl %al,%eax
    4ca4:	89 c6                	mov    %eax,%esi
    4ca6:	bf 00 00 00 00       	mov    $0x0,%edi
    4cab:	e8 e3 ee ff ff       	callq  3b93 <safe_mul_func_uint8_t_u_u>
    4cb0:	8b 85 bc f4 ff ff    	mov    -0xb44(%rbp),%eax
    4cb6:	85 c0                	test   %eax,%eax
    4cb8:	0f 84 47 02 00 00    	je     4f05 <func_7+0x544>
    4cbe:	48 8d 05 e3 9c 00 00 	lea    0x9ce3(%rip),%rax        # e9a8 <g_194+0x8>
    4cc5:	48 89 85 d8 f3 ff ff 	mov    %rax,-0xc28(%rbp)
    4ccc:	48 c7 85 e8 f3 ff ff 	movq   $0x0,-0xc18(%rbp)
    4cd3:	00 00 00 00 
    4cd7:	48 8d 05 9a af 00 00 	lea    0xaf9a(%rip),%rax        # fc78 <g_453>
    4cde:	48 89 85 f0 f3 ff ff 	mov    %rax,-0xc10(%rbp)
    4ce5:	48 8d 05 74 a8 00 00 	lea    0xa874(%rip),%rax        # f560 <g_135>
    4cec:	48 89 85 f8 f3 ff ff 	mov    %rax,-0xc08(%rbp)
    4cf3:	c7 85 64 f3 ff ff ff 	movl   $0xffffffff,-0xc9c(%rbp)
    4cfa:	ff ff ff 
    4cfd:	48 c7 85 b8 f3 ff ff 	movq   $0x0,-0xc48(%rbp)
    4d04:	00 00 00 00 
    4d08:	48 8d 85 b8 f3 ff ff 	lea    -0xc48(%rbp),%rax
    4d0f:	48 89 85 00 f4 ff ff 	mov    %rax,-0xc00(%rbp)
    4d16:	c7 85 68 f3 ff ff 9f 	movl   $0x91eacd9f,-0xc98(%rbp)
    4d1d:	cd ea 91 
    4d20:	c7 85 5c f3 ff ff d2 	movl   $0xaf9f91d2,-0xca4(%rbp)
    4d27:	91 9f af 
    4d2a:	66 c7 85 44 f3 ff ff 	movw   $0xffff,-0xcbc(%rbp)
    4d31:	ff ff 
    4d33:	48 b8 b7 66 a5 13 e1 	movabs $0xc061c9e113a566b7,%rax
    4d3a:	c9 61 c0 
    4d3d:	48 89 85 c8 f3 ff ff 	mov    %rax,-0xc38(%rbp)
    4d44:	48 c7 85 d0 f3 ff ff 	movq   $0x0,-0xc30(%rbp)
    4d4b:	00 00 00 00 
    4d4f:	c7 85 54 f3 ff ff 00 	movl   $0x0,-0xcac(%rbp)
    4d56:	00 00 00 
    4d59:	eb 1b                	jmp    4d76 <func_7+0x3b5>
    4d5b:	8b 85 54 f3 ff ff    	mov    -0xcac(%rbp),%eax
    4d61:	48 98                	cltq   
    4d63:	48 c7 84 c5 00 f5 ff 	movq   $0x0,-0xb00(%rbp,%rax,8)
    4d6a:	ff 00 00 00 00 
    4d6f:	83 85 54 f3 ff ff 01 	addl   $0x1,-0xcac(%rbp)
    4d76:	83 bd 54 f3 ff ff 01 	cmpl   $0x1,-0xcac(%rbp)
    4d7d:	7e dc                	jle    4d5b <func_7+0x39a>
    4d7f:	48 8b 85 98 f4 ff ff 	mov    -0xb68(%rbp),%rax
    4d86:	48 89 85 d8 f3 ff ff 	mov    %rax,-0xc28(%rbp)
    4d8d:	c6 85 3c f3 ff ff 00 	movb   $0x0,-0xcc4(%rbp)
    4d94:	80 bd 3c f3 ff ff 04 	cmpb   $0x4,-0xcc4(%rbp)
    4d9b:	75 0b                	jne    4da8 <func_7+0x3e7>
    4d9d:	8b 85 30 f3 ff ff    	mov    -0xcd0(%rbp),%eax
    4da3:	e9 e1 04 00 00       	jmpq   5289 <func_7+0x8c8>
    4da8:	be 00 00 00 00       	mov    $0x0,%esi
    4dad:	bf ff ff 00 00       	mov    $0xffff,%edi
    4db2:	e8 4f f0 ff ff       	callq  3e06 <safe_lshift_func_uint16_t_u_u>
    4db7:	0f b7 d0             	movzwl %ax,%edx
    4dba:	8b 05 f4 9b 00 00    	mov    0x9bf4(%rip),%eax        # e9b4 <g_194+0x14>
    4dc0:	39 c2                	cmp    %eax,%edx
    4dc2:	0f 9c c0             	setl   %al
    4dc5:	0f b6 d0             	movzbl %al,%edx
    4dc8:	48 8d 05 19 af 00 00 	lea    0xaf19(%rip),%rax        # fce8 <g_471+0x68>
    4dcf:	48 39 85 e8 f3 ff ff 	cmp    %rax,-0xc18(%rbp)
    4dd6:	0f 94 c0             	sete   %al
    4dd9:	0f b6 c0             	movzbl %al,%eax
    4ddc:	31 d0                	xor    %edx,%eax
    4dde:	83 e0 f7             	and    $0xfffffff7,%eax
    4de1:	83 f0 08             	xor    $0x8,%eax
    4de4:	89 c2                	mov    %eax,%edx
    4de6:	48 8b 05 a3 a9 00 00 	mov    0xa9a3(%rip),%rax        # f790 <g_473>
    4ded:	48 89 05 9c a9 00 00 	mov    %rax,0xa99c(%rip)        # f790 <g_473>
    4df4:	48 8b 05 95 a9 00 00 	mov    0xa995(%rip),%rax        # f790 <g_473>
    4dfb:	48 85 c0             	test   %rax,%rax
    4dfe:	0f 94 c0             	sete   %al
    4e01:	0f b6 c0             	movzbl %al,%eax
    4e04:	39 c2                	cmp    %eax,%edx
    4e06:	0f b6 05 c8 9b 00 00 	movzbl 0x9bc8(%rip),%eax        # e9d5 <g_403+0x3>
    4e0d:	c0 e8 04             	shr    $0x4,%al
    4e10:	0f b6 c0             	movzbl %al,%eax
    4e13:	0f b6 15 bc 9b 00 00 	movzbl 0x9bbc(%rip),%edx        # e9d6 <g_403+0x4>
    4e1a:	0f b6 d2             	movzbl %dl,%edx
    4e1d:	83 e2 1f             	and    $0x1f,%edx
    4e20:	48 c1 e2 04          	shl    $0x4,%rdx
    4e24:	48 09 d0             	or     %rdx,%rax
    4e27:	48 c1 e0 37          	shl    $0x37,%rax
    4e2b:	48 c1 f8 37          	sar    $0x37,%rax
    4e2f:	0f be d0             	movsbl %al,%edx
    4e32:	48 8b 85 f0 f3 ff ff 	mov    -0xc10(%rbp),%rax
    4e39:	0f b6 00             	movzbl (%rax),%eax
    4e3c:	89 c1                	mov    %eax,%ecx
    4e3e:	48 8b 85 d8 f3 ff ff 	mov    -0xc28(%rbp),%rax
    4e45:	8b 00                	mov    (%rax),%eax
    4e47:	85 c0                	test   %eax,%eax
    4e49:	0f 95 c0             	setne  %al
    4e4c:	31 c8                	xor    %ecx,%eax
    4e4e:	89 c1                	mov    %eax,%ecx
    4e50:	48 8b 85 f0 f3 ff ff 	mov    -0xc10(%rbp),%rax
    4e57:	88 08                	mov    %cl,(%rax)
    4e59:	48 8b 85 f0 f3 ff ff 	mov    -0xc10(%rbp),%rax
    4e60:	0f b6 00             	movzbl (%rax),%eax
    4e63:	0f b6 c0             	movzbl %al,%eax
    4e66:	89 85 bc f4 ff ff    	mov    %eax,-0xb44(%rbp)
    4e6c:	8b 8d bc f4 ff ff    	mov    -0xb44(%rbp),%ecx
    4e72:	0f b6 05 52 9b 00 00 	movzbl 0x9b52(%rip),%eax        # e9cb <g_378>
    4e79:	0f be c0             	movsbl %al,%eax
    4e7c:	39 c1                	cmp    %eax,%ecx
    4e7e:	0f 95 c0             	setne  %al
    4e81:	0f b6 c0             	movzbl %al,%eax
    4e84:	89 d6                	mov    %edx,%esi
    4e86:	89 c7                	mov    %eax,%edi
    4e88:	e8 47 e3 ff ff       	callq  31d4 <safe_add_func_int8_t_s_s>
    4e8d:	48 8d 05 cc a6 00 00 	lea    0xa6cc(%rip),%rax        # f560 <g_135>
    4e94:	48 89 85 c0 f3 ff ff 	mov    %rax,-0xc40(%rbp)
    4e9b:	c7 85 58 f3 ff ff c0 	movl   $0x406eb5c0,-0xca8(%rbp)
    4ea2:	b5 6e 40 
    4ea5:	48 8b 05 b4 a8 00 00 	mov    0xa8b4(%rip),%rax        # f760 <g_361>
    4eac:	8b 00                	mov    (%rax),%eax
    4eae:	85 c0                	test   %eax,%eax
    4eb0:	74 12                	je     4ec4 <func_7+0x503>
    4eb2:	80 bd 3c f3 ff ff 00 	cmpb   $0x0,-0xcc4(%rbp)
    4eb9:	0f 84 c4 03 00 00    	je     5283 <func_7+0x8c2>
    4ebf:	e9 6d fd ff ff       	jmpq   4c31 <func_7+0x270>
    4ec4:	48 8d 85 c0 f3 ff ff 	lea    -0xc40(%rbp),%rax
    4ecb:	48 89 85 e0 f3 ff ff 	mov    %rax,-0xc20(%rbp)
    4ed2:	48 8b 95 c0 f3 ff ff 	mov    -0xc40(%rbp),%rdx
    4ed9:	48 8b 85 e0 f3 ff ff 	mov    -0xc20(%rbp),%rax
    4ee0:	48 89 10             	mov    %rdx,(%rax)
    4ee3:	48 8b 85 e0 f3 ff ff 	mov    -0xc20(%rbp),%rax
    4eea:	48 8b 00             	mov    (%rax),%rax
    4eed:	48 39 85 f8 f3 ff ff 	cmp    %rax,-0xc08(%rbp)
    4ef4:	0f 95 c0             	setne  %al
    4ef7:	0f b6 c0             	movzbl %al,%eax
    4efa:	89 85 58 f3 ff ff    	mov    %eax,-0xca8(%rbp)
    4f00:	e9 7e 03 00 00       	jmpq   5283 <func_7+0x8c2>
    4f05:	48 8d 05 7c a6 00 00 	lea    0xa67c(%rip),%rax        # f588 <g_240+0x8>
    4f0c:	48 89 85 c0 f3 ff ff 	mov    %rax,-0xc40(%rbp)
    4f13:	48 8d 85 c0 f3 ff ff 	lea    -0xc40(%rbp),%rax
    4f1a:	48 89 85 50 f4 ff ff 	mov    %rax,-0xbb0(%rbp)
    4f21:	48 8d 05 98 9a 00 00 	lea    0x9a98(%rip),%rax        # e9c0 <g_209>
    4f28:	48 89 85 58 f4 ff ff 	mov    %rax,-0xba8(%rbp)
    4f2f:	48 8d 05 62 a8 00 00 	lea    0xa862(%rip),%rax        # f798 <g_613>
    4f36:	48 89 85 60 f4 ff ff 	mov    %rax,-0xba0(%rbp)
    4f3d:	48 8d 05 87 9a 00 00 	lea    0x9a87(%rip),%rax        # e9cb <g_378>
    4f44:	48 89 85 68 f4 ff ff 	mov    %rax,-0xb98(%rbp)
    4f4b:	c7 85 70 f3 ff ff ff 	movl   $0xffffffff,-0xc90(%rbp)
    4f52:	ff ff ff 
    4f55:	48 8d 05 6a 9a 00 00 	lea    0x9a6a(%rip),%rax        # e9c6 <g_278>
    4f5c:	48 89 85 70 f4 ff ff 	mov    %rax,-0xb90(%rbp)
    4f63:	66 c7 85 4a f3 ff ff 	movw   $0x7f9e,-0xcb6(%rbp)
    4f6a:	9e 7f 
    4f6c:	48 c7 85 78 f4 ff ff 	movq   $0x0,-0xb88(%rbp)
    4f73:	00 00 00 00 
    4f77:	c7 85 74 f3 ff ff f8 	movl   $0xfffffff8,-0xc8c(%rbp)
    4f7e:	ff ff ff 
    4f81:	c7 85 78 f3 ff ff ff 	movl   $0xffffffff,-0xc88(%rbp)
    4f88:	ff ff ff 
    4f8b:	c7 85 7c f3 ff ff fc 	movl   $0xfffffffc,-0xc84(%rbp)
    4f92:	ff ff ff 
    4f95:	c7 85 80 f3 ff ff 01 	movl   $0x1,-0xc80(%rbp)
    4f9c:	00 00 00 
    4f9f:	c7 85 84 f3 ff ff 4e 	movl   $0x29c39b4e,-0xc7c(%rbp)
    4fa6:	9b c3 29 
    4fa9:	48 b8 bb 4e 52 89 38 	movabs $0x1755c3889524ebb,%rax
    4fb0:	5c 75 01 
    4fb3:	48 89 85 80 f4 ff ff 	mov    %rax,-0xb80(%rbp)
    4fba:	c7 85 6c f3 ff ff ff 	movl   $0xffffffff,-0xc94(%rbp)
    4fc1:	ff ff ff 
    4fc4:	48 8d 05 97 50 00 00 	lea    0x5097(%rip),%rax        # a062 <g_889>
    4fcb:	48 89 85 20 f4 ff ff 	mov    %rax,-0xbe0(%rbp)
    4fd2:	48 8d 05 cf 99 00 00 	lea    0x99cf(%rip),%rax        # e9a8 <g_194+0x8>
    4fd9:	48 89 85 28 f4 ff ff 	mov    %rax,-0xbd8(%rbp)
    4fe0:	48 b8 16 ca 8f 2a d2 	movabs $0x666636d22a8fca16,%rax
    4fe7:	36 66 66 
    4fea:	48 89 85 30 f4 ff ff 	mov    %rax,-0xbd0(%rbp)
    4ff1:	c7 85 00 f5 ff ff 07 	movl   $0x7,-0xb00(%rbp)
    4ff8:	00 00 00 
    4ffb:	c7 85 04 f5 ff ff 07 	movl   $0x7,-0xafc(%rbp)
    5002:	00 00 00 
    5005:	c7 85 08 f5 ff ff 07 	movl   $0x7,-0xaf8(%rbp)
    500c:	00 00 00 
    500f:	c7 85 0c f5 ff ff 07 	movl   $0x7,-0xaf4(%rbp)
    5016:	00 00 00 
    5019:	c7 85 10 f5 ff ff 07 	movl   $0x7,-0xaf0(%rbp)
    5020:	00 00 00 
    5023:	c7 85 14 f5 ff ff 07 	movl   $0x7,-0xaec(%rbp)
    502a:	00 00 00 
    502d:	c7 85 18 f5 ff ff 07 	movl   $0x7,-0xae8(%rbp)
    5034:	00 00 00 
    5037:	c7 85 1c f5 ff ff 07 	movl   $0x7,-0xae4(%rbp)
    503e:	00 00 00 
    5041:	c7 85 20 f5 ff ff 07 	movl   $0x7,-0xae0(%rbp)
    5048:	00 00 00 
    504b:	c7 85 24 f5 ff ff 07 	movl   $0x7,-0xadc(%rbp)
    5052:	00 00 00 
    5055:	48 b8 75 8e 11 fe bd 	movabs $0x872552bdfe118e75,%rax
    505c:	52 25 87 
    505f:	48 89 85 18 f4 ff ff 	mov    %rax,-0xbe8(%rbp)
    5066:	66 c7 85 46 f3 ff ff 	movw   $0xfff6,-0xcba(%rbp)
    506d:	f6 ff 
    506f:	66 c7 85 48 f3 ff ff 	movw   $0x26e5,-0xcb8(%rbp)
    5076:	e5 26 
    5078:	48 c7 85 10 f4 ff ff 	movq   $0x1,-0xbf0(%rbp)
    507f:	01 00 00 00 
    5083:	48 8d 85 c0 f4 ff ff 	lea    -0xb40(%rbp),%rax
    508a:	48 89 85 08 f4 ff ff 	mov    %rax,-0xbf8(%rbp)
    5091:	c7 85 60 f3 ff ff 00 	movl   $0x0,-0xca0(%rbp)
    5098:	00 00 00 
    509b:	eb 1a                	jmp    50b7 <func_7+0x6f6>
    509d:	8b 85 60 f3 ff ff    	mov    -0xca0(%rbp),%eax
    50a3:	48 98                	cltq   
    50a5:	c7 84 85 cc f4 ff ff 	movl   $0xffffffff,-0xb34(%rbp,%rax,4)
    50ac:	ff ff ff ff 
    50b0:	83 85 60 f3 ff ff 01 	addl   $0x1,-0xca0(%rbp)
    50b7:	83 bd 60 f3 ff ff 01 	cmpl   $0x1,-0xca0(%rbp)
    50be:	7e dd                	jle    509d <func_7+0x6dc>
    50c0:	c7 85 60 f3 ff ff 00 	movl   $0x0,-0xca0(%rbp)
    50c7:	00 00 00 
    50ca:	eb 1b                	jmp    50e7 <func_7+0x726>
    50cc:	8b 85 60 f3 ff ff    	mov    -0xca0(%rbp),%eax
    50d2:	48 98                	cltq   
    50d4:	48 c7 84 c5 c0 f4 ff 	movq   $0x0,-0xb40(%rbp,%rax,8)
    50db:	ff 00 00 00 00 
    50e0:	83 85 60 f3 ff ff 01 	addl   $0x1,-0xca0(%rbp)
    50e7:	83 bd 60 f3 ff ff 00 	cmpl   $0x0,-0xca0(%rbp)
    50ee:	7e dc                	jle    50cc <func_7+0x70b>
    50f0:	48 8b 85 98 f4 ff ff 	mov    -0xb68(%rbp),%rax
    50f7:	8b 18                	mov    (%rax),%ebx
    50f9:	0f b6 85 3c f3 ff ff 	movzbl -0xcc4(%rbp),%eax
    5100:	44 0f b6 e0          	movzbl %al,%r12d
    5104:	8b 85 38 f3 ff ff    	mov    -0xcc8(%rbp),%eax
    510a:	48 98                	cltq   
    510c:	48 39 85 b0 f4 ff ff 	cmp    %rax,-0xb50(%rbp)
    5113:	0f 96 c0             	setbe  %al
    5116:	0a 85 3c f3 ff ff    	or     -0xcc4(%rbp),%al
    511c:	89 c2                	mov    %eax,%edx
    511e:	48 8b 85 68 f4 ff ff 	mov    -0xb98(%rbp),%rax
    5125:	88 10                	mov    %dl,(%rax)
    5127:	48 8b 85 68 f4 ff ff 	mov    -0xb98(%rbp),%rax
    512e:	0f b6 00             	movzbl (%rax),%eax
    5131:	0f be c0             	movsbl %al,%eax
    5134:	be 06 00 00 00       	mov    $0x6,%esi
    5139:	89 c7                	mov    %eax,%edi
    513b:	e8 ae e1 ff ff       	callq  32ee <safe_lshift_func_int8_t_s_u>
    5140:	0f be c0             	movsbl %al,%eax
    5143:	33 85 70 f3 ff ff    	xor    -0xc90(%rbp),%eax
    5149:	48 98                	cltq   
    514b:	be 03 00 00 00       	mov    $0x3,%esi
    5150:	48 89 c7             	mov    %rax,%rdi
    5153:	e8 e9 e6 ff ff       	callq  3841 <safe_add_func_int64_t_s_s>
    5158:	0f b6 c0             	movzbl %al,%eax
    515b:	be 03 00 00 00       	mov    $0x3,%esi
    5160:	89 c7                	mov    %eax,%edi
    5162:	e8 26 eb ff ff       	callq  3c8d <safe_rshift_func_uint8_t_u_s>
    5167:	84 c0                	test   %al,%al
    5169:	0f 94 c0             	sete   %al
    516c:	0f b6 d0             	movzbl %al,%edx
    516f:	48 8b 85 98 f4 ff ff 	mov    -0xb68(%rbp),%rax
    5176:	8b 00                	mov    (%rax),%eax
    5178:	0f be c0             	movsbl %al,%eax
    517b:	89 d6                	mov    %edx,%esi
    517d:	89 c7                	mov    %eax,%edi
    517f:	e8 e8 e1 ff ff       	callq  336c <safe_rshift_func_int8_t_s_u>
    5184:	4c 0f be e8          	movsbq %al,%r13
    5188:	48 8b 85 58 f4 ff ff 	mov    -0xba8(%rbp),%rax
    518f:	8b 10                	mov    (%rax),%edx
    5191:	0f be 85 3c f3 ff ff 	movsbl -0xcc4(%rbp),%eax
    5198:	31 c2                	xor    %eax,%edx
    519a:	48 8b 85 58 f4 ff ff 	mov    -0xba8(%rbp),%rax
    51a1:	89 10                	mov    %edx,(%rax)
    51a3:	48 8b 85 60 f4 ff ff 	mov    -0xba0(%rbp),%rax
    51aa:	48 c7 00 00 00 00 00 	movq   $0x0,(%rax)
    51b1:	48 8b 85 60 f4 ff ff 	mov    -0xba0(%rbp),%rax
    51b8:	48 8b 00             	mov    (%rax),%rax
    51bb:	48 85 c0             	test   %rax,%rax
    51be:	0f 94 c0             	sete   %al
    51c1:	0f b6 c0             	movzbl %al,%eax
    51c4:	be 0c 00 00 00       	mov    $0xc,%esi
    51c9:	89 c7                	mov    %eax,%edi
    51cb:	e8 78 ec ff ff       	callq  3e48 <safe_rshift_func_uint16_t_u_s>
    51d0:	0f bf d0             	movswl %ax,%edx
    51d3:	48 8b 8d c0 f3 ff ff 	mov    -0xc40(%rbp),%rcx
    51da:	48 8b 85 50 f4 ff ff 	mov    -0xbb0(%rbp),%rax
    51e1:	48 89 08             	mov    %rcx,(%rax)
    51e4:	48 8b 85 50 f4 ff ff 	mov    -0xbb0(%rbp),%rax
    51eb:	48 8b 00             	mov    (%rax),%rax
    51ee:	48 39 85 a8 f4 ff ff 	cmp    %rax,-0xb58(%rbp)
    51f5:	0f 95 c0             	setne  %al
    51f8:	0f b6 c0             	movzbl %al,%eax
    51fb:	89 d6                	mov    %edx,%esi
    51fd:	89 c7                	mov    %eax,%edi
    51ff:	e8 cf e1 ff ff       	callq  33d3 <safe_sub_func_int16_t_s_s>
    5204:	48 0f bf c0          	movswq %ax,%rax
    5208:	4c 89 ee             	mov    %r13,%rsi
    520b:	48 89 c7             	mov    %rax,%rdi
    520e:	e8 38 ee ff ff       	callq  404b <safe_sub_func_uint64_t_u_u>
    5213:	0f b6 c0             	movzbl %al,%eax
    5216:	44 89 e6             	mov    %r12d,%esi
    5219:	89 c7                	mov    %eax,%edi
    521b:	e8 73 e9 ff ff       	callq  3b93 <safe_mul_func_uint8_t_u_u>
    5220:	0f b6 d0             	movzbl %al,%edx
    5223:	48 8b 85 70 f4 ff ff 	mov    -0xb90(%rbp),%rax
    522a:	66 89 10             	mov    %dx,(%rax)
    522d:	48 8b 85 70 f4 ff ff 	mov    -0xb90(%rbp),%rax
    5234:	0f b7 00             	movzwl (%rax),%eax
    5237:	0f b7 c0             	movzwl %ax,%eax
    523a:	be fa ff 00 00       	mov    $0xfffa,%esi
    523f:	89 c7                	mov    %eax,%edi
    5241:	e8 48 eb ff ff       	callq  3d8e <safe_div_func_uint16_t_u_u>
    5246:	0f b7 d0             	movzwl %ax,%edx
    5249:	0f be 85 34 f3 ff ff 	movsbl -0xccc(%rbp),%eax
    5250:	89 d6                	mov    %edx,%esi
    5252:	89 c7                	mov    %eax,%edi
    5254:	e8 5f ec ff ff       	callq  3eb8 <safe_add_func_uint32_t_u_u>
    5259:	8b 95 44 f5 ff ff    	mov    -0xabc(%rbp),%edx
    525f:	39 d0                	cmp    %edx,%eax
    5261:	0f 93 c0             	setae  %al
    5264:	0f b6 c0             	movzbl %al,%eax
    5267:	89 de                	mov    %ebx,%esi
    5269:	89 c7                	mov    %eax,%edi
    526b:	e8 ba e2 ff ff       	callq  352a <safe_rshift_func_int16_t_s_s>
    5270:	ba 00 00 00 00       	mov    $0x0,%edx
    5275:	8b 85 38 f8 ff ff    	mov    -0x7c8(%rbp),%eax
    527b:	31 d0                	xor    %edx,%eax
    527d:	89 85 38 f8 ff ff    	mov    %eax,-0x7c8(%rbp)
    5283:	8b 85 4c f3 ff ff    	mov    -0xcb4(%rbp),%eax
    5289:	48 8b 5d d8          	mov    -0x28(%rbp),%rbx
    528d:	64 48 33 1c 25 28 00 	xor    %fs:0x28,%rbx
    5294:	00 00 
    5296:	74 05                	je     529d <func_7+0x8dc>
    5298:	e8 d3 dd ff ff       	callq  3070 <__stack_chk_fail@plt>
    529d:	48 81 c4 c8 0c 00 00 	add    $0xcc8,%rsp
    52a4:	5b                   	pop    %rbx
    52a5:	41 5c                	pop    %r12
    52a7:	41 5d                	pop    %r13
    52a9:	5d                   	pop    %rbp
    52aa:	c3                   	retq   

00000000000052ab <func_13>:
    52ab:	f3 0f 1e fa          	endbr64 
    52af:	55                   	push   %rbp
    52b0:	48 89 e5             	mov    %rsp,%rbp
    52b3:	41 57                	push   %r15
    52b5:	41 56                	push   %r14
    52b7:	41 55                	push   %r13
    52b9:	41 54                	push   %r12
    52bb:	53                   	push   %rbx
    52bc:	48 81 ec 08 08 00 00 	sub    $0x808,%rsp
    52c3:	89 f8                	mov    %edi,%eax
    52c5:	89 b5 d8 f7 ff ff    	mov    %esi,-0x828(%rbp)
    52cb:	66 89 85 dc f7 ff ff 	mov    %ax,-0x824(%rbp)
    52d2:	64 48 8b 04 25 28 00 	mov    %fs:0x28,%rax
    52d9:	00 00 
    52db:	48 89 45 c8          	mov    %rax,-0x38(%rbp)
    52df:	31 c0                	xor    %eax,%eax
    52e1:	48 8d 05 40 8d 00 00 	lea    0x8d40(%rip),%rax        # e028 <g_17>
    52e8:	48 89 85 58 f8 ff ff 	mov    %rax,-0x7a8(%rbp)
    52ef:	48 c7 85 80 f9 ff ff 	movq   $0x0,-0x680(%rbp)
    52f6:	00 00 00 00 
    52fa:	48 8d 05 23 8d 00 00 	lea    0x8d23(%rip),%rax        # e024 <g_16>
    5301:	48 89 85 88 f9 ff ff 	mov    %rax,-0x678(%rbp)
    5308:	48 8d 05 91 8d 00 00 	lea    0x8d91(%rip),%rax        # e0a0 <g_119>
    530f:	48 89 85 90 f9 ff ff 	mov    %rax,-0x670(%rbp)
    5316:	48 8d 05 83 8d 00 00 	lea    0x8d83(%rip),%rax        # e0a0 <g_119>
    531d:	48 89 85 98 f9 ff ff 	mov    %rax,-0x668(%rbp)
    5324:	48 8d 05 75 8d 00 00 	lea    0x8d75(%rip),%rax        # e0a0 <g_119>
    532b:	48 89 85 a0 f9 ff ff 	mov    %rax,-0x660(%rbp)
    5332:	48 8d 05 eb 8c 00 00 	lea    0x8ceb(%rip),%rax        # e024 <g_16>
    5339:	48 89 85 a8 f9 ff ff 	mov    %rax,-0x658(%rbp)
    5340:	48 c7 85 b0 f9 ff ff 	movq   $0x0,-0x650(%rbp)
    5347:	00 00 00 00 
    534b:	48 c7 85 b8 f9 ff ff 	movq   $0x0,-0x648(%rbp)
    5352:	00 00 00 00 
    5356:	48 8d 05 c7 8c 00 00 	lea    0x8cc7(%rip),%rax        # e024 <g_16>
    535d:	48 89 85 c0 f9 ff ff 	mov    %rax,-0x640(%rbp)
    5364:	48 c7 85 c8 f9 ff ff 	movq   $0x0,-0x638(%rbp)
    536b:	00 00 00 00 
    536f:	c7 85 e8 f7 ff ff 05 	movl   $0x5,-0x818(%rbp)
    5376:	00 00 00 
    5379:	48 8d 05 e0 a8 00 00 	lea    0xa8e0(%rip),%rax        # fc60 <g_313>
    5380:	48 89 85 40 f8 ff ff 	mov    %rax,-0x7c0(%rbp)
    5387:	48 8d 85 40 f8 ff ff 	lea    -0x7c0(%rbp),%rax
    538e:	48 89 85 d0 f9 ff ff 	mov    %rax,-0x630(%rbp)
    5395:	48 8d 85 40 f8 ff ff 	lea    -0x7c0(%rbp),%rax
    539c:	48 89 85 d8 f9 ff ff 	mov    %rax,-0x628(%rbp)
    53a3:	48 8d 85 40 f8 ff ff 	lea    -0x7c0(%rbp),%rax
    53aa:	48 89 85 e0 f9 ff ff 	mov    %rax,-0x620(%rbp)
    53b1:	48 8d 85 40 f8 ff ff 	lea    -0x7c0(%rbp),%rax
    53b8:	48 89 85 e8 f9 ff ff 	mov    %rax,-0x618(%rbp)
    53bf:	48 8d 85 40 f8 ff ff 	lea    -0x7c0(%rbp),%rax
    53c6:	48 89 85 f0 f9 ff ff 	mov    %rax,-0x610(%rbp)
    53cd:	48 8d 85 40 f8 ff ff 	lea    -0x7c0(%rbp),%rax
    53d4:	48 89 85 f8 f9 ff ff 	mov    %rax,-0x608(%rbp)
    53db:	48 8d 85 40 f8 ff ff 	lea    -0x7c0(%rbp),%rax
    53e2:	48 89 85 00 fa ff ff 	mov    %rax,-0x600(%rbp)
    53e9:	48 8d 85 40 f8 ff ff 	lea    -0x7c0(%rbp),%rax
    53f0:	48 89 85 08 fa ff ff 	mov    %rax,-0x5f8(%rbp)
    53f7:	48 8d 85 40 f8 ff ff 	lea    -0x7c0(%rbp),%rax
    53fe:	48 89 85 10 fa ff ff 	mov    %rax,-0x5f0(%rbp)
    5405:	48 8d 85 40 f8 ff ff 	lea    -0x7c0(%rbp),%rax
    540c:	48 89 85 18 fa ff ff 	mov    %rax,-0x5e8(%rbp)
    5413:	48 8d 85 40 f8 ff ff 	lea    -0x7c0(%rbp),%rax
    541a:	48 89 85 20 fa ff ff 	mov    %rax,-0x5e0(%rbp)
    5421:	48 8d 85 40 f8 ff ff 	lea    -0x7c0(%rbp),%rax
    5428:	48 89 85 28 fa ff ff 	mov    %rax,-0x5d8(%rbp)
    542f:	48 8d 05 0a 8c 00 00 	lea    0x8c0a(%rip),%rax        # e040 <g_57>
    5436:	48 89 85 40 f9 ff ff 	mov    %rax,-0x6c0(%rbp)
    543d:	48 8d 85 20 fb ff ff 	lea    -0x4e0(%rbp),%rax
    5444:	48 83 c0 68          	add    $0x68,%rax
    5448:	48 89 85 48 f9 ff ff 	mov    %rax,-0x6b8(%rbp)
    544f:	48 8d 05 ea 8b 00 00 	lea    0x8bea(%rip),%rax        # e040 <g_57>
    5456:	48 89 85 50 f9 ff ff 	mov    %rax,-0x6b0(%rbp)
    545d:	48 8d 05 dc 8b 00 00 	lea    0x8bdc(%rip),%rax        # e040 <g_57>
    5464:	48 89 85 58 f9 ff ff 	mov    %rax,-0x6a8(%rbp)
    546b:	48 8d 85 20 fb ff ff 	lea    -0x4e0(%rbp),%rax
    5472:	48 83 c0 68          	add    $0x68,%rax
    5476:	48 89 85 60 f9 ff ff 	mov    %rax,-0x6a0(%rbp)
    547d:	48 8d 05 bc 8b 00 00 	lea    0x8bbc(%rip),%rax        # e040 <g_57>
    5484:	48 89 85 68 f9 ff ff 	mov    %rax,-0x698(%rbp)
    548b:	48 8d 05 ae 8b 00 00 	lea    0x8bae(%rip),%rax        # e040 <g_57>
    5492:	48 89 85 70 f9 ff ff 	mov    %rax,-0x690(%rbp)
    5499:	48 8d 85 20 fb ff ff 	lea    -0x4e0(%rbp),%rax
    54a0:	48 83 c0 68          	add    $0x68,%rax
    54a4:	48 89 85 78 f9 ff ff 	mov    %rax,-0x688(%rbp)
    54ab:	48 8d 85 40 f9 ff ff 	lea    -0x6c0(%rbp),%rax
    54b2:	48 83 c0 28          	add    $0x28,%rax
    54b6:	48 89 85 48 f8 ff ff 	mov    %rax,-0x7b8(%rbp)
    54bd:	48 8d 85 48 f8 ff ff 	lea    -0x7b8(%rbp),%rax
    54c4:	48 89 85 60 f8 ff ff 	mov    %rax,-0x7a0(%rbp)
    54cb:	48 8d 05 5a 8b 00 00 	lea    0x8b5a(%rip),%rax        # e02c <g_21>
    54d2:	48 89 85 68 f8 ff ff 	mov    %rax,-0x798(%rbp)
    54d9:	c7 85 04 f8 ff ff e9 	movl   $0xc1908de9,-0x7fc(%rbp)
    54e0:	8d 90 c1 
    54e3:	c7 85 08 f8 ff ff 61 	movl   $0xe5953961,-0x7f8(%rbp)
    54ea:	39 95 e5 
    54ed:	c7 85 f4 f7 ff ff 0c 	movl   $0x39479f0c,-0x80c(%rbp)
    54f4:	9f 47 39 
    54f7:	c7 85 0c f8 ff ff 31 	movl   $0x3797531,-0x7f4(%rbp)
    54fe:	75 79 03 
    5501:	c7 85 10 f8 ff ff 03 	movl   $0x3,-0x7f0(%rbp)
    5508:	00 00 00 
    550b:	c7 85 f8 f7 ff ff 00 	movl   $0x0,-0x808(%rbp)
    5512:	00 00 00 
    5515:	eb 50                	jmp    5567 <func_13+0x2bc>
    5517:	c7 85 ec f7 ff ff 00 	movl   $0x0,-0x814(%rbp)
    551e:	00 00 00 
    5521:	eb 34                	jmp    5557 <func_13+0x2ac>
    5523:	8b 85 ec f7 ff ff    	mov    -0x814(%rbp),%eax
    5529:	48 63 c8             	movslq %eax,%rcx
    552c:	8b 85 f8 f7 ff ff    	mov    -0x808(%rbp),%eax
    5532:	48 63 d0             	movslq %eax,%rdx
    5535:	48 89 d0             	mov    %rdx,%rax
    5538:	48 01 c0             	add    %rax,%rax
    553b:	48 01 d0             	add    %rdx,%rax
    553e:	48 01 c0             	add    %rax,%rax
    5541:	48 01 c8             	add    %rcx,%rax
    5544:	48 c7 84 c5 20 fb ff 	movq   $0xfffffffffffffff7,-0x4e0(%rbp,%rax,8)
    554b:	ff f7 ff ff ff 
    5550:	83 85 ec f7 ff ff 01 	addl   $0x1,-0x814(%rbp)
    5557:	83 bd ec f7 ff ff 05 	cmpl   $0x5,-0x814(%rbp)
    555e:	7e c3                	jle    5523 <func_13+0x278>
    5560:	83 85 f8 f7 ff ff 01 	addl   $0x1,-0x808(%rbp)
    5567:	83 bd f8 f7 ff ff 05 	cmpl   $0x5,-0x808(%rbp)
    556e:	7e a7                	jle    5517 <func_13+0x26c>
    5570:	c7 05 ae 8a 00 00 08 	movl   $0x8,0x8aae(%rip)        # e028 <g_17>
    5577:	00 00 00 
    557a:	90                   	nop
    557b:	8b 05 a7 8a 00 00    	mov    0x8aa7(%rip),%eax        # e028 <g_17>
    5581:	83 f8 14             	cmp    $0x14,%eax
    5584:	0f 8f 41 09 00 00    	jg     5ecb <func_13+0xc20>
    558a:	48 8d 05 9b 8a 00 00 	lea    0x8a9b(%rip),%rax        # e02c <g_21>
    5591:	48 89 85 c0 f8 ff ff 	mov    %rax,-0x740(%rbp)
    5598:	48 8d 85 80 fd ff ff 	lea    -0x280(%rbp),%rax
    559f:	48 8d 15 ba 96 00 00 	lea    0x96ba(%rip),%rdx        # ec60 <g_1149+0x260>
    55a6:	b9 48 00 00 00       	mov    $0x48,%ecx
    55ab:	48 89 c7             	mov    %rax,%rdi
    55ae:	48 89 d6             	mov    %rdx,%rsi
    55b1:	f3 48 a5             	rep movsq %ds:(%rsi),%es:(%rdi)
    55b4:	48 8d 05 69 8a 00 00 	lea    0x8a69(%rip),%rax        # e024 <g_16>
    55bb:	48 89 85 c8 f8 ff ff 	mov    %rax,-0x738(%rbp)
    55c2:	c7 85 40 fc ff ff 8f 	movl   $0x2882098f,-0x3c0(%rbp)
    55c9:	09 82 28 
    55cc:	c7 85 44 fc ff ff 8f 	movl   $0x2882098f,-0x3bc(%rbp)
    55d3:	09 82 28 
    55d6:	c7 85 48 fc ff ff 8f 	movl   $0x2882098f,-0x3b8(%rbp)
    55dd:	09 82 28 
    55e0:	c7 85 4c fc ff ff 8f 	movl   $0x2882098f,-0x3b4(%rbp)
    55e7:	09 82 28 
    55ea:	c7 85 50 fc ff ff 8f 	movl   $0x2882098f,-0x3b0(%rbp)
    55f1:	09 82 28 
    55f4:	c7 85 54 fc ff ff 8f 	movl   $0x2882098f,-0x3ac(%rbp)
    55fb:	09 82 28 
    55fe:	c7 85 58 fc ff ff 8f 	movl   $0x2882098f,-0x3a8(%rbp)
    5605:	09 82 28 
    5608:	c7 85 5c fc ff ff 8f 	movl   $0x2882098f,-0x3a4(%rbp)
    560f:	09 82 28 
    5612:	c7 85 60 fc ff ff 8f 	movl   $0x2882098f,-0x3a0(%rbp)
    5619:	09 82 28 
    561c:	c7 85 64 fc ff ff 8f 	movl   $0x2882098f,-0x39c(%rbp)
    5623:	09 82 28 
    5626:	c7 85 68 fc ff ff 8f 	movl   $0x2882098f,-0x398(%rbp)
    562d:	09 82 28 
    5630:	c7 85 6c fc ff ff 8f 	movl   $0x2882098f,-0x394(%rbp)
    5637:	09 82 28 
    563a:	c7 85 70 fc ff ff 8f 	movl   $0x2882098f,-0x390(%rbp)
    5641:	09 82 28 
    5644:	c7 85 74 fc ff ff 8f 	movl   $0x2882098f,-0x38c(%rbp)
    564b:	09 82 28 
    564e:	c7 85 78 fc ff ff 8f 	movl   $0x2882098f,-0x388(%rbp)
    5655:	09 82 28 
    5658:	c7 85 7c fc ff ff 8f 	movl   $0x2882098f,-0x384(%rbp)
    565f:	09 82 28 
    5662:	c7 85 80 fc ff ff 8f 	movl   $0x2882098f,-0x380(%rbp)
    5669:	09 82 28 
    566c:	c7 85 84 fc ff ff 8f 	movl   $0x2882098f,-0x37c(%rbp)
    5673:	09 82 28 
    5676:	c7 85 88 fc ff ff 8f 	movl   $0x2882098f,-0x378(%rbp)
    567d:	09 82 28 
    5680:	c7 85 8c fc ff ff 8f 	movl   $0x2882098f,-0x374(%rbp)
    5687:	09 82 28 
    568a:	c7 85 90 fc ff ff 8f 	movl   $0x2882098f,-0x370(%rbp)
    5691:	09 82 28 
    5694:	c7 85 94 fc ff ff 8f 	movl   $0x2882098f,-0x36c(%rbp)
    569b:	09 82 28 
    569e:	c7 85 98 fc ff ff 8f 	movl   $0x2882098f,-0x368(%rbp)
    56a5:	09 82 28 
    56a8:	c7 85 9c fc ff ff 8f 	movl   $0x2882098f,-0x364(%rbp)
    56af:	09 82 28 
    56b2:	c7 85 a0 fc ff ff 8f 	movl   $0x2882098f,-0x360(%rbp)
    56b9:	09 82 28 
    56bc:	c7 85 a4 fc ff ff 8f 	movl   $0x2882098f,-0x35c(%rbp)
    56c3:	09 82 28 
    56c6:	c7 85 a8 fc ff ff 8f 	movl   $0x2882098f,-0x358(%rbp)
    56cd:	09 82 28 
    56d0:	c7 85 ac fc ff ff 8f 	movl   $0x2882098f,-0x354(%rbp)
    56d7:	09 82 28 
    56da:	c7 85 b0 fc ff ff 8f 	movl   $0x2882098f,-0x350(%rbp)
    56e1:	09 82 28 
    56e4:	c7 85 b4 fc ff ff 8f 	movl   $0x2882098f,-0x34c(%rbp)
    56eb:	09 82 28 
    56ee:	c7 85 b8 fc ff ff 8f 	movl   $0x2882098f,-0x348(%rbp)
    56f5:	09 82 28 
    56f8:	c7 85 bc fc ff ff 8f 	movl   $0x2882098f,-0x344(%rbp)
    56ff:	09 82 28 
    5702:	c7 85 c0 fc ff ff 8f 	movl   $0x2882098f,-0x340(%rbp)
    5709:	09 82 28 
    570c:	c7 85 c4 fc ff ff 8f 	movl   $0x2882098f,-0x33c(%rbp)
    5713:	09 82 28 
    5716:	c7 85 c8 fc ff ff 8f 	movl   $0x2882098f,-0x338(%rbp)
    571d:	09 82 28 
    5720:	c7 85 cc fc ff ff 8f 	movl   $0x2882098f,-0x334(%rbp)
    5727:	09 82 28 
    572a:	c7 85 d0 fc ff ff 8f 	movl   $0x2882098f,-0x330(%rbp)
    5731:	09 82 28 
    5734:	c7 85 d4 fc ff ff 8f 	movl   $0x2882098f,-0x32c(%rbp)
    573b:	09 82 28 
    573e:	c7 85 d8 fc ff ff 8f 	movl   $0x2882098f,-0x328(%rbp)
    5745:	09 82 28 
    5748:	c7 85 dc fc ff ff 8f 	movl   $0x2882098f,-0x324(%rbp)
    574f:	09 82 28 
    5752:	c7 85 e0 fc ff ff 8f 	movl   $0x2882098f,-0x320(%rbp)
    5759:	09 82 28 
    575c:	c7 85 e4 fc ff ff 8f 	movl   $0x2882098f,-0x31c(%rbp)
    5763:	09 82 28 
    5766:	c7 85 e8 fc ff ff 8f 	movl   $0x2882098f,-0x318(%rbp)
    576d:	09 82 28 
    5770:	c7 85 ec fc ff ff 8f 	movl   $0x2882098f,-0x314(%rbp)
    5777:	09 82 28 
    577a:	c7 85 f0 fc ff ff 8f 	movl   $0x2882098f,-0x310(%rbp)
    5781:	09 82 28 
    5784:	c7 85 f4 fc ff ff 8f 	movl   $0x2882098f,-0x30c(%rbp)
    578b:	09 82 28 
    578e:	c7 85 f8 fc ff ff 8f 	movl   $0x2882098f,-0x308(%rbp)
    5795:	09 82 28 
    5798:	c7 85 fc fc ff ff 8f 	movl   $0x2882098f,-0x304(%rbp)
    579f:	09 82 28 
    57a2:	48 8b 05 87 88 00 00 	mov    0x8887(%rip),%rax        # e030 <g_23>
    57a9:	48 83 e8 01          	sub    $0x1,%rax
    57ad:	48 89 05 7c 88 00 00 	mov    %rax,0x887c(%rip)        # e030 <g_23>
    57b4:	48 8b 85 c8 f8 ff ff 	mov    -0x738(%rbp),%rax
    57bb:	0f b7 10             	movzwl (%rax),%edx
    57be:	48 83 bd 58 f8 ff ff 	cmpq   $0x0,-0x7a8(%rbp)
    57c5:	00 
    57c6:	0f 95 c0             	setne  %al
    57c9:	0f b6 c0             	movzbl %al,%eax
    57cc:	31 c2                	xor    %eax,%edx
    57ce:	48 8b 85 c8 f8 ff ff 	mov    -0x738(%rbp),%rax
    57d5:	66 89 10             	mov    %dx,(%rax)
    57d8:	48 8b 85 c8 f8 ff ff 	mov    -0x738(%rbp),%rax
    57df:	0f b7 00             	movzwl (%rax),%eax
    57e2:	66 85 c0             	test   %ax,%ax
    57e5:	0f 85 db 05 00 00    	jne    5dc6 <func_13+0xb1b>
    57eb:	c7 85 f0 f7 ff ff 05 	movl   $0x939c0105,-0x810(%rbp)
    57f2:	01 9c 93 
    57f5:	48 8d 05 28 88 00 00 	lea    0x8828(%rip),%rax        # e024 <g_16>
    57fc:	48 89 85 e0 f8 ff ff 	mov    %rax,-0x720(%rbp)
    5803:	8b 85 d8 f7 ff ff    	mov    -0x828(%rbp),%eax
    5809:	31 85 f0 f7 ff ff    	xor    %eax,-0x810(%rbp)
    580f:	c7 85 d8 f7 ff ff eb 	movl   $0xffffffeb,-0x828(%rbp)
    5816:	ff ff ff 
    5819:	e9 76 05 00 00       	jmpq   5d94 <func_13+0xae9>
    581e:	48 8d 05 13 88 00 00 	lea    0x8813(%rip),%rax        # e038 <g_47>
    5825:	48 89 85 00 f9 ff ff 	mov    %rax,-0x700(%rbp)
    582c:	48 8d 05 05 88 00 00 	lea    0x8805(%rip),%rax        # e038 <g_47>
    5833:	48 89 85 08 f9 ff ff 	mov    %rax,-0x6f8(%rbp)
    583a:	48 8d 05 f7 87 00 00 	lea    0x87f7(%rip),%rax        # e038 <g_47>
    5841:	48 89 85 10 f9 ff ff 	mov    %rax,-0x6f0(%rbp)
    5848:	48 8d 05 e9 87 00 00 	lea    0x87e9(%rip),%rax        # e038 <g_47>
    584f:	48 89 85 18 f9 ff ff 	mov    %rax,-0x6e8(%rbp)
    5856:	c7 85 34 f8 ff ff b5 	movl   $0x2708cdb5,-0x7cc(%rbp)
    585d:	cd 08 27 
    5860:	48 8d 85 20 f9 ff ff 	lea    -0x6e0(%rbp),%rax
    5867:	48 83 c0 18          	add    $0x18,%rax
    586b:	48 89 85 a0 fa ff ff 	mov    %rax,-0x560(%rbp)
    5872:	48 8d 85 20 f9 ff ff 	lea    -0x6e0(%rbp),%rax
    5879:	48 83 c0 18          	add    $0x18,%rax
    587d:	48 89 85 a8 fa ff ff 	mov    %rax,-0x558(%rbp)
    5884:	48 8d 85 20 f9 ff ff 	lea    -0x6e0(%rbp),%rax
    588b:	48 83 c0 18          	add    $0x18,%rax
    588f:	48 89 85 b0 fa ff ff 	mov    %rax,-0x550(%rbp)
    5896:	48 8d 85 20 f9 ff ff 	lea    -0x6e0(%rbp),%rax
    589d:	48 83 c0 18          	add    $0x18,%rax
    58a1:	48 89 85 b8 fa ff ff 	mov    %rax,-0x548(%rbp)
    58a8:	48 8d 85 20 f9 ff ff 	lea    -0x6e0(%rbp),%rax
    58af:	48 83 c0 18          	add    $0x18,%rax
    58b3:	48 89 85 c0 fa ff ff 	mov    %rax,-0x540(%rbp)
    58ba:	48 8d 85 20 f9 ff ff 	lea    -0x6e0(%rbp),%rax
    58c1:	48 83 c0 18          	add    $0x18,%rax
    58c5:	48 89 85 c8 fa ff ff 	mov    %rax,-0x538(%rbp)
    58cc:	48 8d 85 20 f9 ff ff 	lea    -0x6e0(%rbp),%rax
    58d3:	48 83 c0 18          	add    $0x18,%rax
    58d7:	48 89 85 d0 fa ff ff 	mov    %rax,-0x530(%rbp)
    58de:	48 8d 85 20 f9 ff ff 	lea    -0x6e0(%rbp),%rax
    58e5:	48 83 c0 18          	add    $0x18,%rax
    58e9:	48 89 85 d8 fa ff ff 	mov    %rax,-0x528(%rbp)
    58f0:	48 8d 85 20 f9 ff ff 	lea    -0x6e0(%rbp),%rax
    58f7:	48 83 c0 18          	add    $0x18,%rax
    58fb:	48 89 85 e0 fa ff ff 	mov    %rax,-0x520(%rbp)
    5902:	48 8d 85 20 f9 ff ff 	lea    -0x6e0(%rbp),%rax
    5909:	48 83 c0 18          	add    $0x18,%rax
    590d:	48 89 85 e8 fa ff ff 	mov    %rax,-0x518(%rbp)
    5914:	48 8d 85 20 f9 ff ff 	lea    -0x6e0(%rbp),%rax
    591b:	48 83 c0 18          	add    $0x18,%rax
    591f:	48 89 85 f0 fa ff ff 	mov    %rax,-0x510(%rbp)
    5926:	48 8d 85 20 f9 ff ff 	lea    -0x6e0(%rbp),%rax
    592d:	48 83 c0 18          	add    $0x18,%rax
    5931:	48 89 85 f8 fa ff ff 	mov    %rax,-0x508(%rbp)
    5938:	48 8d 85 20 f9 ff ff 	lea    -0x6e0(%rbp),%rax
    593f:	48 83 c0 18          	add    $0x18,%rax
    5943:	48 89 85 00 fb ff ff 	mov    %rax,-0x500(%rbp)
    594a:	48 8d 85 20 f9 ff ff 	lea    -0x6e0(%rbp),%rax
    5951:	48 83 c0 18          	add    $0x18,%rax
    5955:	48 89 85 08 fb ff ff 	mov    %rax,-0x4f8(%rbp)
    595c:	48 8d 85 20 f9 ff ff 	lea    -0x6e0(%rbp),%rax
    5963:	48 83 c0 18          	add    $0x18,%rax
    5967:	48 89 85 10 fb ff ff 	mov    %rax,-0x4f0(%rbp)
    596e:	48 8d 05 4b 90 00 00 	lea    0x904b(%rip),%rax        # e9c0 <g_209>
    5975:	48 89 85 e8 f8 ff ff 	mov    %rax,-0x718(%rbp)
    597c:	c7 85 fc f7 ff ff 09 	movl   $0x9,-0x804(%rbp)
    5983:	00 00 00 
    5986:	48 8d 05 39 90 00 00 	lea    0x9039(%rip),%rax        # e9c6 <g_278>
    598d:	48 89 85 30 fa ff ff 	mov    %rax,-0x5d0(%rbp)
    5994:	48 8d 05 2b 90 00 00 	lea    0x902b(%rip),%rax        # e9c6 <g_278>
    599b:	48 89 85 38 fa ff ff 	mov    %rax,-0x5c8(%rbp)
    59a2:	48 8d 05 1d 90 00 00 	lea    0x901d(%rip),%rax        # e9c6 <g_278>
    59a9:	48 89 85 40 fa ff ff 	mov    %rax,-0x5c0(%rbp)
    59b0:	48 8d 05 0f 90 00 00 	lea    0x900f(%rip),%rax        # e9c6 <g_278>
    59b7:	48 89 85 48 fa ff ff 	mov    %rax,-0x5b8(%rbp)
    59be:	48 8d 05 01 90 00 00 	lea    0x9001(%rip),%rax        # e9c6 <g_278>
    59c5:	48 89 85 50 fa ff ff 	mov    %rax,-0x5b0(%rbp)
    59cc:	48 8d 05 f3 8f 00 00 	lea    0x8ff3(%rip),%rax        # e9c6 <g_278>
    59d3:	48 89 85 58 fa ff ff 	mov    %rax,-0x5a8(%rbp)
    59da:	48 8d 05 e5 8f 00 00 	lea    0x8fe5(%rip),%rax        # e9c6 <g_278>
    59e1:	48 89 85 60 fa ff ff 	mov    %rax,-0x5a0(%rbp)
    59e8:	48 8d 05 d7 8f 00 00 	lea    0x8fd7(%rip),%rax        # e9c6 <g_278>
    59ef:	48 89 85 68 fa ff ff 	mov    %rax,-0x598(%rbp)
    59f6:	48 8d 05 c9 8f 00 00 	lea    0x8fc9(%rip),%rax        # e9c6 <g_278>
    59fd:	48 89 85 70 fa ff ff 	mov    %rax,-0x590(%rbp)
    5a04:	48 8d 05 bb 8f 00 00 	lea    0x8fbb(%rip),%rax        # e9c6 <g_278>
    5a0b:	48 89 85 78 fa ff ff 	mov    %rax,-0x588(%rbp)
    5a12:	48 8d 05 ad 8f 00 00 	lea    0x8fad(%rip),%rax        # e9c6 <g_278>
    5a19:	48 89 85 80 fa ff ff 	mov    %rax,-0x580(%rbp)
    5a20:	48 8d 05 9f 8f 00 00 	lea    0x8f9f(%rip),%rax        # e9c6 <g_278>
    5a27:	48 89 85 88 fa ff ff 	mov    %rax,-0x578(%rbp)
    5a2e:	48 8d 05 91 8f 00 00 	lea    0x8f91(%rip),%rax        # e9c6 <g_278>
    5a35:	48 89 85 90 fa ff ff 	mov    %rax,-0x570(%rbp)
    5a3c:	48 8d 05 83 8f 00 00 	lea    0x8f83(%rip),%rax        # e9c6 <g_278>
    5a43:	48 89 85 98 fa ff ff 	mov    %rax,-0x568(%rbp)
    5a4a:	c7 85 00 f8 ff ff 00 	movl   $0x0,-0x800(%rbp)
    5a51:	00 00 00 
    5a54:	eb 1e                	jmp    5a74 <func_13+0x7c9>
    5a56:	8b 85 00 f8 ff ff    	mov    -0x800(%rbp),%eax
    5a5c:	48 98                	cltq   
    5a5e:	48 8d 15 5f 8f 00 00 	lea    0x8f5f(%rip),%rdx        # e9c4 <g_251>
    5a65:	48 89 94 c5 20 f9 ff 	mov    %rdx,-0x6e0(%rbp,%rax,8)
    5a6c:	ff 
    5a6d:	83 85 00 f8 ff ff 01 	addl   $0x1,-0x800(%rbp)
    5a74:	83 bd 00 f8 ff ff 03 	cmpl   $0x3,-0x800(%rbp)
    5a7b:	7e d9                	jle    5a56 <func_13+0x7ab>
    5a7d:	48 8b 85 58 f8 ff ff 	mov    -0x7a8(%rbp),%rax
    5a84:	8b 00                	mov    (%rax),%eax
    5a86:	85 c0                	test   %eax,%eax
    5a88:	0f 85 17 03 00 00    	jne    5da5 <func_13+0xafa>
    5a8e:	66 83 bd dc f7 ff ff 	cmpw   $0x0,-0x824(%rbp)
    5a95:	00 
    5a96:	74 07                	je     5a9f <func_13+0x7f4>
    5a98:	b8 01 00 00 00       	mov    $0x1,%eax
    5a9d:	eb 05                	jmp    5aa4 <func_13+0x7f9>
    5a9f:	b8 00 00 00 00       	mov    $0x0,%eax
    5aa4:	41 89 c7             	mov    %eax,%r15d
    5aa7:	48 8b 1d b2 a1 00 00 	mov    0xa1b2(%rip),%rbx        # fc60 <g_313>
    5aae:	0f b7 85 dc f7 ff ff 	movzwl -0x824(%rbp),%eax
    5ab5:	44 0f b6 f0          	movzbl %al,%r14d
    5ab9:	48 8b 85 58 f8 ff ff 	mov    -0x7a8(%rbp),%rax
    5ac0:	44 8b 28             	mov    (%rax),%r13d
    5ac3:	b8 f9 ff ff ff       	mov    $0xfffffff9,%eax
    5ac8:	44 0f b7 e0          	movzwl %ax,%r12d
    5acc:	0f b7 85 dc f7 ff ff 	movzwl -0x824(%rbp),%eax
    5ad3:	48 8b 8d e0 f8 ff ff 	mov    -0x720(%rbp),%rcx
    5ada:	48 8d 15 57 85 00 00 	lea    0x8557(%rip),%rdx        # e038 <g_47>
    5ae1:	48 89 ce             	mov    %rcx,%rsi
    5ae4:	89 c7                	mov    %eax,%edi
    5ae6:	e8 e2 0e 00 00       	callq  69cd <func_49>
    5aeb:	48 c7 85 88 f9 ff ff 	movq   $0x0,-0x678(%rbp)
    5af2:	00 00 00 00 
    5af6:	48 8b 05 33 85 00 00 	mov    0x8533(%rip),%rax        # e030 <g_23>
    5afd:	89 85 34 f8 ff ff    	mov    %eax,-0x7cc(%rbp)
    5b03:	0f b7 85 dc f7 ff ff 	movzwl -0x824(%rbp),%eax
    5b0a:	39 85 34 f8 ff ff    	cmp    %eax,-0x7cc(%rbp)
    5b10:	0f 95 c0             	setne  %al
    5b13:	0f b6 c0             	movzbl %al,%eax
    5b16:	44 89 f1             	mov    %r14d,%ecx
    5b19:	44 89 ea             	mov    %r13d,%edx
    5b1c:	44 89 e6             	mov    %r12d,%esi
    5b1f:	48 89 c7             	mov    %rax,%rdi
    5b22:	e8 f2 0d 00 00       	callq  6919 <func_41>
    5b27:	0f b7 95 dc f7 ff ff 	movzwl -0x824(%rbp),%edx
    5b2e:	8b 05 8c 8e 00 00    	mov    0x8e8c(%rip),%eax        # e9c0 <g_209>
    5b34:	39 c2                	cmp    %eax,%edx
    5b36:	73 0a                	jae    5b42 <func_13+0x897>
    5b38:	8b 85 d8 f7 ff ff    	mov    -0x828(%rbp),%eax
    5b3e:	85 c0                	test   %eax,%eax
    5b40:	74 07                	je     5b49 <func_13+0x89e>
    5b42:	b8 01 00 00 00       	mov    $0x1,%eax
    5b47:	eb 05                	jmp    5b4e <func_13+0x8a3>
    5b49:	b8 00 00 00 00       	mov    $0x0,%eax
    5b4e:	83 f8 01             	cmp    $0x1,%eax
    5b51:	0f 9f c0             	setg   %al
    5b54:	0f b6 d0             	movzbl %al,%edx
    5b57:	48 8b 85 e8 f8 ff ff 	mov    -0x718(%rbp),%rax
    5b5e:	89 10                	mov    %edx,(%rax)
    5b60:	48 8b 85 e8 f8 ff ff 	mov    -0x718(%rbp),%rax
    5b67:	8b 30                	mov    (%rax),%esi
    5b69:	8b 85 d8 f7 ff ff    	mov    -0x828(%rbp),%eax
    5b6f:	8b 8d fc f7 ff ff    	mov    -0x804(%rbp),%ecx
    5b75:	8b 95 d8 f7 ff ff    	mov    -0x828(%rbp),%edx
    5b7b:	41 89 c8             	mov    %ecx,%r8d
    5b7e:	89 d1                	mov    %edx,%ecx
    5b80:	48 89 da             	mov    %rbx,%rdx
    5b83:	89 c7                	mov    %eax,%edi
    5b85:	e8 05 0c 00 00       	callq  678f <func_35>
    5b8a:	89 c2                	mov    %eax,%edx
    5b8c:	8b 85 f0 f7 ff ff    	mov    -0x810(%rbp),%eax
    5b92:	89 c6                	mov    %eax,%esi
    5b94:	89 d7                	mov    %edx,%edi
    5b96:	e8 62 e3 ff ff       	callq  3efd <safe_mod_func_uint32_t_u_u>
    5b9b:	44 21 f8             	and    %r15d,%eax
    5b9e:	66 89 05 21 8e 00 00 	mov    %ax,0x8e21(%rip)        # e9c6 <g_278>
    5ba5:	0f b7 05 1a 8e 00 00 	movzwl 0x8e1a(%rip),%eax        # e9c6 <g_278>
    5bac:	66 85 c0             	test   %ax,%ax
    5baf:	75 0d                	jne    5bbe <func_13+0x913>
    5bb1:	48 8b 85 58 f8 ff ff 	mov    -0x7a8(%rbp),%rax
    5bb8:	8b 00                	mov    (%rax),%eax
    5bba:	85 c0                	test   %eax,%eax
    5bbc:	74 38                	je     5bf6 <func_13+0x94b>
    5bbe:	48 8b 85 c0 f8 ff ff 	mov    -0x740(%rbp),%rax
    5bc5:	8b 00                	mov    (%rax),%eax
    5bc7:	33 85 34 f8 ff ff    	xor    -0x7cc(%rbp),%eax
    5bcd:	89 c2                	mov    %eax,%edx
    5bcf:	48 8b 85 c0 f8 ff ff 	mov    -0x740(%rbp),%rax
    5bd6:	89 10                	mov    %edx,(%rax)
    5bd8:	48 8b 85 c0 f8 ff ff 	mov    -0x740(%rbp),%rax
    5bdf:	8b 00                	mov    (%rax),%eax
    5be1:	48 8b 95 88 fb ff ff 	mov    -0x478(%rbp),%rdx
    5be8:	48 98                	cltq   
    5bea:	48 31 d0             	xor    %rdx,%rax
    5bed:	48 89 85 88 fb ff ff 	mov    %rax,-0x478(%rbp)
    5bf4:	eb 49                	jmp    5c3f <func_13+0x994>
    5bf6:	c7 85 38 f8 ff ff 01 	movl   $0x1,-0x7c8(%rbp)
    5bfd:	00 00 00 
    5c00:	48 8b 05 59 9b 00 00 	mov    0x9b59(%rip),%rax        # f760 <g_361>
    5c07:	8b 00                	mov    (%rax),%eax
    5c09:	89 85 e8 f7 ff ff    	mov    %eax,-0x818(%rbp)
    5c0f:	48 8b 85 c0 f8 ff ff 	mov    -0x740(%rbp),%rax
    5c16:	8b 00                	mov    (%rax),%eax
    5c18:	0b 85 38 f8 ff ff    	or     -0x7c8(%rbp),%eax
    5c1e:	89 c2                	mov    %eax,%edx
    5c20:	48 8b 85 c0 f8 ff ff 	mov    -0x740(%rbp),%rax
    5c27:	89 10                	mov    %edx,(%rax)
    5c29:	48 8b 85 58 f8 ff ff 	mov    -0x7a8(%rbp),%rax
    5c30:	8b 08                	mov    (%rax),%ecx
    5c32:	48 8b 05 27 9b 00 00 	mov    0x9b27(%rip),%rax        # f760 <g_361>
    5c39:	8b 10                	mov    (%rax),%edx
    5c3b:	21 ca                	and    %ecx,%edx
    5c3d:	89 10                	mov    %edx,(%rax)
    5c3f:	c7 85 fc f7 ff ff 0d 	movl   $0xd,-0x804(%rbp)
    5c46:	00 00 00 
    5c49:	e9 2a 01 00 00       	jmpq   5d78 <func_13+0xacd>
    5c4e:	48 8d 05 76 8d 00 00 	lea    0x8d76(%rip),%rax        # e9cb <g_378>
    5c55:	48 89 85 f0 f8 ff ff 	mov    %rax,-0x710(%rbp)
    5c5c:	c7 85 3c f8 ff ff 00 	movl   $0x0,-0x7c4(%rbp)
    5c63:	00 00 00 
    5c66:	c7 85 f0 f7 ff ff 00 	movl   $0x0,-0x810(%rbp)
    5c6d:	00 00 00 
    5c70:	eb 58                	jmp    5cca <func_13+0xa1f>
    5c72:	48 8d 85 d0 f9 ff ff 	lea    -0x630(%rbp),%rax
    5c79:	48 83 c0 08          	add    $0x8,%rax
    5c7d:	48 89 85 f8 f8 ff ff 	mov    %rax,-0x708(%rbp)
    5c84:	48 8b 85 58 f8 ff ff 	mov    -0x7a8(%rbp),%rax
    5c8b:	8b 10                	mov    (%rax),%edx
    5c8d:	48 8b 85 c0 f8 ff ff 	mov    -0x740(%rbp),%rax
    5c94:	89 10                	mov    %edx,(%rax)
    5c96:	48 8b 85 c0 f8 ff ff 	mov    -0x740(%rbp),%rax
    5c9d:	8b 00                	mov    (%rax),%eax
    5c9f:	89 85 34 f8 ff ff    	mov    %eax,-0x7cc(%rbp)
    5ca5:	66 83 bd dc f7 ff ff 	cmpw   $0x0,-0x824(%rbp)
    5cac:	00 
    5cad:	75 13                	jne    5cc2 <func_13+0xa17>
    5caf:	48 8b 95 d8 f9 ff ff 	mov    -0x628(%rbp),%rdx
    5cb6:	48 8b 85 f8 f8 ff ff 	mov    -0x708(%rbp),%rax
    5cbd:	48 89 10             	mov    %rdx,(%rax)
    5cc0:	eb 01                	jmp    5cc3 <func_13+0xa18>
    5cc2:	90                   	nop
    5cc3:	83 85 f0 f7 ff ff 01 	addl   $0x1,-0x810(%rbp)
    5cca:	83 bd f0 f7 ff ff 1d 	cmpl   $0x1d,-0x810(%rbp)
    5cd1:	76 9f                	jbe    5c72 <func_13+0x9c7>
    5cd3:	0f b7 85 dc f7 ff ff 	movzwl -0x824(%rbp),%eax
    5cda:	83 f0 01             	xor    $0x1,%eax
    5cdd:	66 39 85 dc f7 ff ff 	cmp    %ax,-0x824(%rbp)
    5ce4:	0f 96 c0             	setbe  %al
    5ce7:	89 c2                	mov    %eax,%edx
    5ce9:	48 8b 85 f0 f8 ff ff 	mov    -0x710(%rbp),%rax
    5cf0:	88 10                	mov    %dl,(%rax)
    5cf2:	48 8b 85 f0 f8 ff ff 	mov    -0x710(%rbp),%rax
    5cf9:	0f b6 00             	movzbl (%rax),%eax
    5cfc:	0f be d8             	movsbl %al,%ebx
    5cff:	8b 85 fc f7 ff ff    	mov    -0x804(%rbp),%eax
    5d05:	0f b7 c0             	movzwl %ax,%eax
    5d08:	89 c6                	mov    %eax,%esi
    5d0a:	bf 00 00 00 00       	mov    $0x0,%edi
    5d0f:	e8 48 e0 ff ff       	callq  3d5c <safe_mod_func_uint16_t_u_u>
    5d14:	0f b7 c0             	movzwl %ax,%eax
    5d17:	39 c3                	cmp    %eax,%ebx
    5d19:	0f 9f c0             	setg   %al
    5d1c:	0f b6 d0             	movzbl %al,%edx
    5d1f:	48 8b 85 c0 f8 ff ff 	mov    -0x740(%rbp),%rax
    5d26:	89 10                	mov    %edx,(%rax)
    5d28:	c7 05 0e 8b 00 00 02 	movl   $0x2,0x8b0e(%rip)        # e840 <g_139>
    5d2f:	00 00 00 
    5d32:	eb 1e                	jmp    5d52 <func_13+0xaa7>
    5d34:	48 8b 05 25 9a 00 00 	mov    0x9a25(%rip),%rax        # f760 <g_361>
    5d3b:	8b 00                	mov    (%rax),%eax
    5d3d:	89 85 3c f8 ff ff    	mov    %eax,-0x7c4(%rbp)
    5d43:	8b 05 f7 8a 00 00    	mov    0x8af7(%rip),%eax        # e840 <g_139>
    5d49:	83 c0 01             	add    $0x1,%eax
    5d4c:	89 05 ee 8a 00 00    	mov    %eax,0x8aee(%rip)        # e840 <g_139>
    5d52:	8b 05 e8 8a 00 00    	mov    0x8ae8(%rip),%eax        # e840 <g_139>
    5d58:	83 f8 06             	cmp    $0x6,%eax
    5d5b:	76 d7                	jbe    5d34 <func_13+0xa89>
    5d5d:	8b 85 fc f7 ff ff    	mov    -0x804(%rbp),%eax
    5d63:	48 98                	cltq   
    5d65:	be 05 00 00 00       	mov    $0x5,%esi
    5d6a:	48 89 c7             	mov    %rax,%rdi
    5d6d:	e8 36 db ff ff       	callq  38a8 <safe_sub_func_int64_t_s_s>
    5d72:	89 85 fc f7 ff ff    	mov    %eax,-0x804(%rbp)
    5d78:	83 bd fc f7 ff ff f9 	cmpl   $0xfffffff9,-0x804(%rbp)
    5d7f:	0f 8c c9 fe ff ff    	jl     5c4e <func_13+0x9a3>
    5d85:	8b 85 d8 f7 ff ff    	mov    -0x828(%rbp),%eax
    5d8b:	83 c0 01             	add    $0x1,%eax
    5d8e:	89 85 d8 f7 ff ff    	mov    %eax,-0x828(%rbp)
    5d94:	8b 85 d8 f7 ff ff    	mov    -0x828(%rbp),%eax
    5d9a:	83 f8 ec             	cmp    $0xffffffec,%eax
    5d9d:	0f 8d 7b fa ff ff    	jge    581e <func_13+0x573>
    5da3:	eb 01                	jmp    5da6 <func_13+0xafb>
    5da5:	90                   	nop
    5da6:	0f b7 05 1b 8c 00 00 	movzwl 0x8c1b(%rip),%eax        # e9c8 <g_343>
    5dad:	66 89 85 e5 f7 ff ff 	mov    %ax,-0x81b(%rbp)
    5db4:	0f b6 05 0f 8c 00 00 	movzbl 0x8c0f(%rip),%eax        # e9ca <g_343+0x2>
    5dbb:	88 85 e7 f7 ff ff    	mov    %al,-0x819(%rbp)
    5dc1:	e9 76 09 00 00       	jmpq   673c <func_13+0x1491>
    5dc6:	48 8d 85 40 f9 ff ff 	lea    -0x6c0(%rbp),%rax
    5dcd:	48 83 c0 28          	add    $0x28,%rax
    5dd1:	48 89 85 50 f8 ff ff 	mov    %rax,-0x7b0(%rbp)
    5dd8:	48 8d 85 50 f8 ff ff 	lea    -0x7b0(%rbp),%rax
    5ddf:	48 89 85 d0 f8 ff ff 	mov    %rax,-0x730(%rbp)
    5de6:	c7 85 30 f8 ff ff 00 	movl   $0x0,-0x7d0(%rbp)
    5ded:	00 00 00 
    5df0:	48 8d 05 99 97 00 00 	lea    0x9799(%rip),%rax        # f590 <g_240+0x10>
    5df7:	48 89 85 d8 f8 ff ff 	mov    %rax,-0x728(%rbp)
    5dfe:	48 8b 85 60 f8 ff ff 	mov    -0x7a0(%rbp),%rax
    5e05:	48 3b 85 d0 f8 ff ff 	cmp    -0x730(%rbp),%rax
    5e0c:	0f 95 c0             	setne  %al
    5e0f:	0f b6 d0             	movzbl %al,%edx
    5e12:	8b 85 44 fc ff ff    	mov    -0x3bc(%rbp),%eax
    5e18:	0f b6 c0             	movzbl %al,%eax
    5e1b:	89 d6                	mov    %edx,%esi
    5e1d:	89 c7                	mov    %eax,%edi
    5e1f:	e8 36 dd ff ff       	callq  3b5a <safe_add_func_uint8_t_u_u>
    5e24:	0f b6 c0             	movzbl %al,%eax
    5e27:	66 39 85 dc f7 ff ff 	cmp    %ax,-0x824(%rbp)
    5e2e:	0f 94 c0             	sete   %al
    5e31:	0f b6 d8             	movzbl %al,%ebx
    5e34:	be 90 47 86 0c       	mov    $0xc864790,%esi
    5e39:	bf 73 40 fa 1b       	mov    $0x1bfa4073,%edi
    5e3e:	e8 c2 d7 ff ff       	callq  3605 <safe_sub_func_int32_t_s_s>
    5e43:	0f b7 15 7a 8b 00 00 	movzwl 0x8b7a(%rip),%edx        # e9c4 <g_251>
    5e4a:	0f bf d2             	movswl %dx,%edx
    5e4d:	83 e2 01             	and    $0x1,%edx
    5e50:	39 d0                	cmp    %edx,%eax
    5e52:	0f 9e c0             	setle  %al
    5e55:	0f b6 c0             	movzbl %al,%eax
    5e58:	39 c3                	cmp    %eax,%ebx
    5e5a:	0f 9d c2             	setge  %dl
    5e5d:	48 8b 05 fc 98 00 00 	mov    0x98fc(%rip),%rax        # f760 <g_361>
    5e64:	0f b6 d2             	movzbl %dl,%edx
    5e67:	89 10                	mov    %edx,(%rax)
    5e69:	8b 10                	mov    (%rax),%edx
    5e6b:	48 8b 85 c0 f8 ff ff 	mov    -0x740(%rbp),%rax
    5e72:	89 10                	mov    %edx,(%rax)
    5e74:	c7 85 30 f8 ff ff 00 	movl   $0x0,-0x7d0(%rbp)
    5e7b:	00 00 00 
    5e7e:	48 8d 05 13 97 00 00 	lea    0x9713(%rip),%rax        # f598 <g_240+0x18>
    5e85:	48 39 85 d8 f8 ff ff 	cmp    %rax,-0x728(%rbp)
    5e8c:	0f 95 c0             	setne  %al
    5e8f:	0f b6 d0             	movzbl %al,%edx
    5e92:	48 8b 85 58 f8 ff ff 	mov    -0x7a8(%rbp),%rax
    5e99:	8b 00                	mov    (%rax),%eax
    5e9b:	21 c2                	and    %eax,%edx
    5e9d:	8b 85 d8 f7 ff ff    	mov    -0x828(%rbp),%eax
    5ea3:	21 d0                	and    %edx,%eax
    5ea5:	89 85 d8 f7 ff ff    	mov    %eax,-0x828(%rbp)
    5eab:	0f b7 05 1a 8b 00 00 	movzwl 0x8b1a(%rip),%eax        # e9cc <g_394>
    5eb2:	66 89 85 e5 f7 ff ff 	mov    %ax,-0x81b(%rbp)
    5eb9:	0f b6 05 0e 8b 00 00 	movzbl 0x8b0e(%rip),%eax        # e9ce <g_394+0x2>
    5ec0:	88 85 e7 f7 ff ff    	mov    %al,-0x819(%rbp)
    5ec6:	e9 71 08 00 00       	jmpq   673c <func_13+0x1491>
    5ecb:	c7 05 a7 8a 00 00 00 	movl   $0x0,0x8aa7(%rip)        # e97c <g_174>
    5ed2:	00 00 00 
    5ed5:	e9 1e 08 00 00       	jmpq   66f8 <func_13+0x144d>
    5eda:	48 8d 05 c7 8a 00 00 	lea    0x8ac7(%rip),%rax        # e9a8 <g_194+0x8>
    5ee1:	48 89 85 50 f8 ff ff 	mov    %rax,-0x7b0(%rbp)
    5ee8:	48 8d 85 50 f8 ff ff 	lea    -0x7b0(%rbp),%rax
    5eef:	48 89 85 80 fd ff ff 	mov    %rax,-0x280(%rbp)
    5ef6:	48 8d 85 50 f8 ff ff 	lea    -0x7b0(%rbp),%rax
    5efd:	48 89 85 88 fd ff ff 	mov    %rax,-0x278(%rbp)
    5f04:	48 8d 85 50 f8 ff ff 	lea    -0x7b0(%rbp),%rax
    5f0b:	48 89 85 90 fd ff ff 	mov    %rax,-0x270(%rbp)
    5f12:	48 8d 85 50 f8 ff ff 	lea    -0x7b0(%rbp),%rax
    5f19:	48 89 85 98 fd ff ff 	mov    %rax,-0x268(%rbp)
    5f20:	48 c7 85 a0 fd ff ff 	movq   $0x0,-0x260(%rbp)
    5f27:	00 00 00 00 
    5f2b:	48 c7 85 a8 fd ff ff 	movq   $0x0,-0x258(%rbp)
    5f32:	00 00 00 00 
    5f36:	48 c7 85 b0 fd ff ff 	movq   $0x0,-0x250(%rbp)
    5f3d:	00 00 00 00 
    5f41:	48 8d 85 50 f8 ff ff 	lea    -0x7b0(%rbp),%rax
    5f48:	48 89 85 b8 fd ff ff 	mov    %rax,-0x248(%rbp)
    5f4f:	48 8d 85 50 f8 ff ff 	lea    -0x7b0(%rbp),%rax
    5f56:	48 89 85 c0 fd ff ff 	mov    %rax,-0x240(%rbp)
    5f5d:	48 8d 85 50 f8 ff ff 	lea    -0x7b0(%rbp),%rax
    5f64:	48 89 85 c8 fd ff ff 	mov    %rax,-0x238(%rbp)
    5f6b:	48 8d 85 50 f8 ff ff 	lea    -0x7b0(%rbp),%rax
    5f72:	48 89 85 d0 fd ff ff 	mov    %rax,-0x230(%rbp)
    5f79:	48 8d 85 50 f8 ff ff 	lea    -0x7b0(%rbp),%rax
    5f80:	48 89 85 d8 fd ff ff 	mov    %rax,-0x228(%rbp)
    5f87:	48 8d 85 50 f8 ff ff 	lea    -0x7b0(%rbp),%rax
    5f8e:	48 89 85 e0 fd ff ff 	mov    %rax,-0x220(%rbp)
    5f95:	48 c7 85 e8 fd ff ff 	movq   $0x0,-0x218(%rbp)
    5f9c:	00 00 00 00 
    5fa0:	48 8d 85 50 f8 ff ff 	lea    -0x7b0(%rbp),%rax
    5fa7:	48 89 85 f0 fd ff ff 	mov    %rax,-0x210(%rbp)
    5fae:	48 c7 85 f8 fd ff ff 	movq   $0x0,-0x208(%rbp)
    5fb5:	00 00 00 00 
    5fb9:	48 8d 85 50 f8 ff ff 	lea    -0x7b0(%rbp),%rax
    5fc0:	48 89 85 00 fe ff ff 	mov    %rax,-0x200(%rbp)
    5fc7:	48 8d 85 50 f8 ff ff 	lea    -0x7b0(%rbp),%rax
    5fce:	48 89 85 08 fe ff ff 	mov    %rax,-0x1f8(%rbp)
    5fd5:	48 8d 85 50 f8 ff ff 	lea    -0x7b0(%rbp),%rax
    5fdc:	48 89 85 10 fe ff ff 	mov    %rax,-0x1f0(%rbp)
    5fe3:	48 8d 85 50 f8 ff ff 	lea    -0x7b0(%rbp),%rax
    5fea:	48 89 85 18 fe ff ff 	mov    %rax,-0x1e8(%rbp)
    5ff1:	48 8d 85 50 f8 ff ff 	lea    -0x7b0(%rbp),%rax
    5ff8:	48 89 85 20 fe ff ff 	mov    %rax,-0x1e0(%rbp)
    5fff:	48 8d 85 50 f8 ff ff 	lea    -0x7b0(%rbp),%rax
    6006:	48 89 85 28 fe ff ff 	mov    %rax,-0x1d8(%rbp)
    600d:	48 8d 85 50 f8 ff ff 	lea    -0x7b0(%rbp),%rax
    6014:	48 89 85 30 fe ff ff 	mov    %rax,-0x1d0(%rbp)
    601b:	48 8d 85 50 f8 ff ff 	lea    -0x7b0(%rbp),%rax
    6022:	48 89 85 38 fe ff ff 	mov    %rax,-0x1c8(%rbp)
    6029:	48 8d 85 50 f8 ff ff 	lea    -0x7b0(%rbp),%rax
    6030:	48 89 85 40 fe ff ff 	mov    %rax,-0x1c0(%rbp)
    6037:	48 c7 85 48 fe ff ff 	movq   $0x0,-0x1b8(%rbp)
    603e:	00 00 00 00 
    6042:	48 c7 85 50 fe ff ff 	movq   $0x0,-0x1b0(%rbp)
    6049:	00 00 00 00 
    604d:	48 8d 85 50 f8 ff ff 	lea    -0x7b0(%rbp),%rax
    6054:	48 89 85 58 fe ff ff 	mov    %rax,-0x1a8(%rbp)
    605b:	48 8d 85 50 f8 ff ff 	lea    -0x7b0(%rbp),%rax
    6062:	48 89 85 60 fe ff ff 	mov    %rax,-0x1a0(%rbp)
    6069:	48 8d 85 50 f8 ff ff 	lea    -0x7b0(%rbp),%rax
    6070:	48 89 85 68 fe ff ff 	mov    %rax,-0x198(%rbp)
    6077:	48 8d 85 50 f8 ff ff 	lea    -0x7b0(%rbp),%rax
    607e:	48 89 85 70 fe ff ff 	mov    %rax,-0x190(%rbp)
    6085:	48 c7 85 78 fe ff ff 	movq   $0x0,-0x188(%rbp)
    608c:	00 00 00 00 
    6090:	48 8d 85 50 f8 ff ff 	lea    -0x7b0(%rbp),%rax
    6097:	48 89 85 80 fe ff ff 	mov    %rax,-0x180(%rbp)
    609e:	48 8d 85 50 f8 ff ff 	lea    -0x7b0(%rbp),%rax
    60a5:	48 89 85 88 fe ff ff 	mov    %rax,-0x178(%rbp)
    60ac:	48 8d 85 50 f8 ff ff 	lea    -0x7b0(%rbp),%rax
    60b3:	48 89 85 90 fe ff ff 	mov    %rax,-0x170(%rbp)
    60ba:	48 8d 85 50 f8 ff ff 	lea    -0x7b0(%rbp),%rax
    60c1:	48 89 85 98 fe ff ff 	mov    %rax,-0x168(%rbp)
    60c8:	48 c7 85 a0 fe ff ff 	movq   $0x0,-0x160(%rbp)
    60cf:	00 00 00 00 
    60d3:	48 8d 85 50 f8 ff ff 	lea    -0x7b0(%rbp),%rax
    60da:	48 89 85 a8 fe ff ff 	mov    %rax,-0x158(%rbp)
    60e1:	48 c7 85 b0 fe ff ff 	movq   $0x0,-0x150(%rbp)
    60e8:	00 00 00 00 
    60ec:	48 8d 85 50 f8 ff ff 	lea    -0x7b0(%rbp),%rax
    60f3:	48 89 85 b8 fe ff ff 	mov    %rax,-0x148(%rbp)
    60fa:	48 8d 85 50 f8 ff ff 	lea    -0x7b0(%rbp),%rax
    6101:	48 89 85 c0 fe ff ff 	mov    %rax,-0x140(%rbp)
    6108:	48 8d 85 50 f8 ff ff 	lea    -0x7b0(%rbp),%rax
    610f:	48 89 85 c8 fe ff ff 	mov    %rax,-0x138(%rbp)
    6116:	48 8d 85 50 f8 ff ff 	lea    -0x7b0(%rbp),%rax
    611d:	48 89 85 d0 fe ff ff 	mov    %rax,-0x130(%rbp)
    6124:	48 8d 85 50 f8 ff ff 	lea    -0x7b0(%rbp),%rax
    612b:	48 89 85 d8 fe ff ff 	mov    %rax,-0x128(%rbp)
    6132:	48 8d 85 50 f8 ff ff 	lea    -0x7b0(%rbp),%rax
    6139:	48 89 85 e0 fe ff ff 	mov    %rax,-0x120(%rbp)
    6140:	48 8d 85 50 f8 ff ff 	lea    -0x7b0(%rbp),%rax
    6147:	48 89 85 e8 fe ff ff 	mov    %rax,-0x118(%rbp)
    614e:	48 8d 85 50 f8 ff ff 	lea    -0x7b0(%rbp),%rax
    6155:	48 89 85 f0 fe ff ff 	mov    %rax,-0x110(%rbp)
    615c:	48 8d 85 50 f8 ff ff 	lea    -0x7b0(%rbp),%rax
    6163:	48 89 85 f8 fe ff ff 	mov    %rax,-0x108(%rbp)
    616a:	48 8d 85 50 f8 ff ff 	lea    -0x7b0(%rbp),%rax
    6171:	48 89 85 00 ff ff ff 	mov    %rax,-0x100(%rbp)
    6178:	48 c7 85 08 ff ff ff 	movq   $0x0,-0xf8(%rbp)
    617f:	00 00 00 00 
    6183:	48 8d 85 50 f8 ff ff 	lea    -0x7b0(%rbp),%rax
    618a:	48 89 85 10 ff ff ff 	mov    %rax,-0xf0(%rbp)
    6191:	48 c7 85 18 ff ff ff 	movq   $0x0,-0xe8(%rbp)
    6198:	00 00 00 00 
    619c:	48 8d 85 50 f8 ff ff 	lea    -0x7b0(%rbp),%rax
    61a3:	48 89 85 20 ff ff ff 	mov    %rax,-0xe0(%rbp)
    61aa:	48 8d 85 50 f8 ff ff 	lea    -0x7b0(%rbp),%rax
    61b1:	48 89 85 28 ff ff ff 	mov    %rax,-0xd8(%rbp)
    61b8:	48 8d 85 50 f8 ff ff 	lea    -0x7b0(%rbp),%rax
    61bf:	48 89 85 30 ff ff ff 	mov    %rax,-0xd0(%rbp)
    61c6:	48 8d 85 50 f8 ff ff 	lea    -0x7b0(%rbp),%rax
    61cd:	48 89 85 38 ff ff ff 	mov    %rax,-0xc8(%rbp)
    61d4:	48 c7 85 40 ff ff ff 	movq   $0x0,-0xc0(%rbp)
    61db:	00 00 00 00 
    61df:	48 8d 85 50 f8 ff ff 	lea    -0x7b0(%rbp),%rax
    61e6:	48 89 85 48 ff ff ff 	mov    %rax,-0xb8(%rbp)
    61ed:	48 8d 85 50 f8 ff ff 	lea    -0x7b0(%rbp),%rax
    61f4:	48 89 85 50 ff ff ff 	mov    %rax,-0xb0(%rbp)
    61fb:	48 8d 85 50 f8 ff ff 	lea    -0x7b0(%rbp),%rax
    6202:	48 89 85 58 ff ff ff 	mov    %rax,-0xa8(%rbp)
    6209:	48 8d 85 50 f8 ff ff 	lea    -0x7b0(%rbp),%rax
    6210:	48 89 85 60 ff ff ff 	mov    %rax,-0xa0(%rbp)
    6217:	48 c7 85 68 ff ff ff 	movq   $0x0,-0x98(%rbp)
    621e:	00 00 00 00 
    6222:	48 8d 85 50 f8 ff ff 	lea    -0x7b0(%rbp),%rax
    6229:	48 89 85 70 ff ff ff 	mov    %rax,-0x90(%rbp)
    6230:	48 8d 85 50 f8 ff ff 	lea    -0x7b0(%rbp),%rax
    6237:	48 89 85 78 ff ff ff 	mov    %rax,-0x88(%rbp)
    623e:	48 8d 85 50 f8 ff ff 	lea    -0x7b0(%rbp),%rax
    6245:	48 89 45 80          	mov    %rax,-0x80(%rbp)
    6249:	48 8d 85 50 f8 ff ff 	lea    -0x7b0(%rbp),%rax
    6250:	48 89 45 88          	mov    %rax,-0x78(%rbp)
    6254:	48 8d 85 50 f8 ff ff 	lea    -0x7b0(%rbp),%rax
    625b:	48 89 45 90          	mov    %rax,-0x70(%rbp)
    625f:	48 8d 85 50 f8 ff ff 	lea    -0x7b0(%rbp),%rax
    6266:	48 89 45 98          	mov    %rax,-0x68(%rbp)
    626a:	48 8d 85 50 f8 ff ff 	lea    -0x7b0(%rbp),%rax
    6271:	48 89 45 a0          	mov    %rax,-0x60(%rbp)
    6275:	48 c7 45 a8 00 00 00 	movq   $0x0,-0x58(%rbp)
    627c:	00 
    627d:	48 c7 45 b0 00 00 00 	movq   $0x0,-0x50(%rbp)
    6284:	00 
    6285:	48 8d 85 50 f8 ff ff 	lea    -0x7b0(%rbp),%rax
    628c:	48 89 45 b8          	mov    %rax,-0x48(%rbp)
    6290:	c7 85 14 f8 ff ff 99 	movl   $0xb9594699,-0x7ec(%rbp)
    6297:	46 59 b9 
    629a:	c7 85 18 f8 ff ff 41 	movl   $0x3849af41,-0x7e8(%rbp)
    62a1:	af 49 38 
    62a4:	c7 85 1c f8 ff ff 01 	movl   $0x1,-0x7e4(%rbp)
    62ab:	00 00 00 
    62ae:	c7 85 20 f8 ff ff 6a 	movl   $0x61e1eb6a,-0x7e0(%rbp)
    62b5:	eb e1 61 
    62b8:	c7 85 24 f8 ff ff d4 	movl   $0xede9ffd4,-0x7dc(%rbp)
    62bf:	ff e9 ed 
    62c2:	c7 85 28 f8 ff ff 87 	movl   $0xd939e87,-0x7d8(%rbp)
    62c9:	9e 93 0d 
    62cc:	c7 85 2c f8 ff ff fc 	movl   $0xfffffffc,-0x7d4(%rbp)
    62d3:	ff ff ff 
    62d6:	48 c7 85 30 fa ff ff 	movq   $0x0,-0x5d0(%rbp)
    62dd:	00 00 00 00 
    62e1:	48 c7 85 38 fa ff ff 	movq   $0x0,-0x5c8(%rbp)
    62e8:	00 00 00 00 
    62ec:	48 c7 85 40 fa ff ff 	movq   $0x0,-0x5c0(%rbp)
    62f3:	00 00 00 00 
    62f7:	48 8d 05 a2 92 00 00 	lea    0x92a2(%rip),%rax        # f5a0 <g_240+0x20>
    62fe:	48 89 85 48 fa ff ff 	mov    %rax,-0x5b8(%rbp)
    6305:	48 8d 05 94 92 00 00 	lea    0x9294(%rip),%rax        # f5a0 <g_240+0x20>
    630c:	48 89 85 50 fa ff ff 	mov    %rax,-0x5b0(%rbp)
    6313:	48 8d 05 86 92 00 00 	lea    0x9286(%rip),%rax        # f5a0 <g_240+0x20>
    631a:	48 89 85 58 fa ff ff 	mov    %rax,-0x5a8(%rbp)
    6321:	48 8d 85 30 fa ff ff 	lea    -0x5d0(%rbp),%rax
    6328:	48 83 c0 28          	add    $0x28,%rax
    632c:	48 89 85 70 f8 ff ff 	mov    %rax,-0x790(%rbp)
    6333:	48 8b 85 50 f8 ff ff 	mov    -0x7b0(%rbp),%rax
    633a:	48 89 05 27 94 00 00 	mov    %rax,0x9427(%rip)        # f768 <g_399>
    6341:	48 8b 05 20 94 00 00 	mov    0x9420(%rip),%rax        # f768 <g_399>
    6348:	48 89 85 68 f8 ff ff 	mov    %rax,-0x798(%rbp)
    634f:	66 83 bd dc f7 ff ff 	cmpw   $0x0,-0x824(%rbp)
    6356:	00 
    6357:	0f 85 ac 03 00 00    	jne    6709 <func_13+0x145e>
    635d:	48 8b 85 50 f8 ff ff 	mov    -0x7b0(%rbp),%rax
    6364:	8b 00                	mov    (%rax),%eax
    6366:	85 c0                	test   %eax,%eax
    6368:	74 73                	je     63dd <func_13+0x1132>
    636a:	c7 05 b4 7c 00 00 00 	movl   $0x0,0x7cb4(%rip)        # e028 <g_17>
    6371:	00 00 00 
    6374:	90                   	nop
    6375:	8b 05 ad 7c 00 00    	mov    0x7cad(%rip),%eax        # e028 <g_17>
    637b:	83 f8 07             	cmp    $0x7,%eax
    637e:	7f 2e                	jg     63ae <func_13+0x1103>
    6380:	48 8b 85 68 f8 ff ff 	mov    -0x798(%rbp),%rax
    6387:	8b 00                	mov    (%rax),%eax
    6389:	85 c0                	test   %eax,%eax
    638b:	75 20                	jne    63ad <func_13+0x1102>
    638d:	0f b7 05 3b 86 00 00 	movzwl 0x863b(%rip),%eax        # e9cf <g_402>
    6394:	66 89 85 e5 f7 ff ff 	mov    %ax,-0x81b(%rbp)
    639b:	0f b6 05 2f 86 00 00 	movzbl 0x862f(%rip),%eax        # e9d1 <g_402+0x2>
    63a2:	88 85 e7 f7 ff ff    	mov    %al,-0x819(%rbp)
    63a8:	e9 8f 03 00 00       	jmpq   673c <func_13+0x1491>
    63ad:	90                   	nop
    63ae:	8b 95 d8 f7 ff ff    	mov    -0x828(%rbp),%edx
    63b4:	48 8b 85 58 f8 ff ff 	mov    -0x7a8(%rbp),%rax
    63bb:	89 10                	mov    %edx,(%rax)
    63bd:	0f b7 05 11 86 00 00 	movzwl 0x8611(%rip),%eax        # e9d5 <g_403+0x3>
    63c4:	66 89 85 e5 f7 ff ff 	mov    %ax,-0x81b(%rbp)
    63cb:	0f b6 05 05 86 00 00 	movzbl 0x8605(%rip),%eax        # e9d7 <g_403+0x5>
    63d2:	88 85 e7 f7 ff ff    	mov    %al,-0x819(%rbp)
    63d8:	e9 5f 03 00 00       	jmpq   673c <func_13+0x1491>
    63dd:	48 8d 05 44 7c 00 00 	lea    0x7c44(%rip),%rax        # e028 <g_17>
    63e4:	48 89 85 78 f8 ff ff 	mov    %rax,-0x788(%rbp)
    63eb:	48 c7 85 80 f8 ff ff 	movq   $0x0,-0x780(%rbp)
    63f2:	00 00 00 00 
    63f6:	48 8d 05 ab 85 00 00 	lea    0x85ab(%rip),%rax        # e9a8 <g_194+0x8>
    63fd:	48 89 85 88 f8 ff ff 	mov    %rax,-0x778(%rbp)
    6404:	48 8d 05 1d 7c 00 00 	lea    0x7c1d(%rip),%rax        # e028 <g_17>
    640b:	48 89 85 90 f8 ff ff 	mov    %rax,-0x770(%rbp)
    6412:	48 8d 85 e8 f7 ff ff 	lea    -0x818(%rbp),%rax
    6419:	48 89 85 98 f8 ff ff 	mov    %rax,-0x768(%rbp)
    6420:	48 8d 05 05 7c 00 00 	lea    0x7c05(%rip),%rax        # e02c <g_21>
    6427:	48 89 85 a0 f8 ff ff 	mov    %rax,-0x760(%rbp)
    642e:	48 8d 05 73 85 00 00 	lea    0x8573(%rip),%rax        # e9a8 <g_194+0x8>
    6435:	48 89 85 a8 f8 ff ff 	mov    %rax,-0x758(%rbp)
    643c:	48 c7 85 b0 f8 ff ff 	movq   $0x0,-0x750(%rbp)
    6443:	00 00 00 00 
    6447:	48 8d 05 de 7b 00 00 	lea    0x7bde(%rip),%rax        # e02c <g_21>
    644e:	48 89 85 b8 f8 ff ff 	mov    %rax,-0x748(%rbp)
    6455:	48 8d 85 e8 f7 ff ff 	lea    -0x818(%rbp),%rax
    645c:	48 89 85 40 fc ff ff 	mov    %rax,-0x3c0(%rbp)
    6463:	48 8d 85 e8 f7 ff ff 	lea    -0x818(%rbp),%rax
    646a:	48 89 85 48 fc ff ff 	mov    %rax,-0x3b8(%rbp)
    6471:	48 8d 85 e8 f7 ff ff 	lea    -0x818(%rbp),%rax
    6478:	48 89 85 50 fc ff ff 	mov    %rax,-0x3b0(%rbp)
    647f:	48 8d 85 e8 f7 ff ff 	lea    -0x818(%rbp),%rax
    6486:	48 89 85 58 fc ff ff 	mov    %rax,-0x3a8(%rbp)
    648d:	48 8d 05 14 85 00 00 	lea    0x8514(%rip),%rax        # e9a8 <g_194+0x8>
    6494:	48 89 85 60 fc ff ff 	mov    %rax,-0x3a0(%rbp)
    649b:	48 8d 85 e8 f7 ff ff 	lea    -0x818(%rbp),%rax
    64a2:	48 89 85 68 fc ff ff 	mov    %rax,-0x398(%rbp)
    64a9:	48 8d 05 f8 84 00 00 	lea    0x84f8(%rip),%rax        # e9a8 <g_194+0x8>
    64b0:	48 89 85 70 fc ff ff 	mov    %rax,-0x390(%rbp)
    64b7:	48 8d 85 e8 f7 ff ff 	lea    -0x818(%rbp),%rax
    64be:	48 89 85 78 fc ff ff 	mov    %rax,-0x388(%rbp)
    64c5:	48 8d 85 e8 f7 ff ff 	lea    -0x818(%rbp),%rax
    64cc:	48 89 85 80 fc ff ff 	mov    %rax,-0x380(%rbp)
    64d3:	48 8d 85 e8 f7 ff ff 	lea    -0x818(%rbp),%rax
    64da:	48 89 85 88 fc ff ff 	mov    %rax,-0x378(%rbp)
    64e1:	48 8d 05 c0 84 00 00 	lea    0x84c0(%rip),%rax        # e9a8 <g_194+0x8>
    64e8:	48 89 85 90 fc ff ff 	mov    %rax,-0x370(%rbp)
    64ef:	48 c7 85 98 fc ff ff 	movq   $0x0,-0x368(%rbp)
    64f6:	00 00 00 00 
    64fa:	48 8d 05 27 7b 00 00 	lea    0x7b27(%rip),%rax        # e028 <g_17>
    6501:	48 89 85 a0 fc ff ff 	mov    %rax,-0x360(%rbp)
    6508:	48 8d 05 99 84 00 00 	lea    0x8499(%rip),%rax        # e9a8 <g_194+0x8>
    650f:	48 89 85 a8 fc ff ff 	mov    %rax,-0x358(%rbp)
    6516:	48 8d 85 e8 f7 ff ff 	lea    -0x818(%rbp),%rax
    651d:	48 89 85 b0 fc ff ff 	mov    %rax,-0x350(%rbp)
    6524:	48 8d 85 e8 f7 ff ff 	lea    -0x818(%rbp),%rax
    652b:	48 89 85 b8 fc ff ff 	mov    %rax,-0x348(%rbp)
    6532:	48 8d 05 6f 84 00 00 	lea    0x846f(%rip),%rax        # e9a8 <g_194+0x8>
    6539:	48 89 85 c0 fc ff ff 	mov    %rax,-0x340(%rbp)
    6540:	48 8d 05 e1 7a 00 00 	lea    0x7ae1(%rip),%rax        # e028 <g_17>
    6547:	48 89 85 c8 fc ff ff 	mov    %rax,-0x338(%rbp)
    654e:	48 c7 85 d0 fc ff ff 	movq   $0x0,-0x330(%rbp)
    6555:	00 00 00 00 
    6559:	48 8d 05 48 84 00 00 	lea    0x8448(%rip),%rax        # e9a8 <g_194+0x8>
    6560:	48 89 85 d8 fc ff ff 	mov    %rax,-0x328(%rbp)
    6567:	48 8d 05 ba 7a 00 00 	lea    0x7aba(%rip),%rax        # e028 <g_17>
    656e:	48 89 85 e0 fc ff ff 	mov    %rax,-0x320(%rbp)
    6575:	48 8d 85 e8 f7 ff ff 	lea    -0x818(%rbp),%rax
    657c:	48 89 85 e8 fc ff ff 	mov    %rax,-0x318(%rbp)
    6583:	48 c7 85 f0 fc ff ff 	movq   $0x0,-0x310(%rbp)
    658a:	00 00 00 00 
    658e:	48 8d 85 e8 f7 ff ff 	lea    -0x818(%rbp),%rax
    6595:	48 89 85 f8 fc ff ff 	mov    %rax,-0x308(%rbp)
    659c:	48 8d 05 85 7a 00 00 	lea    0x7a85(%rip),%rax        # e028 <g_17>
    65a3:	48 89 85 00 fd ff ff 	mov    %rax,-0x300(%rbp)
    65aa:	48 8d 05 07 84 00 00 	lea    0x8407(%rip),%rax        # e9b8 <g_194+0x18>
    65b1:	48 89 85 08 fd ff ff 	mov    %rax,-0x2f8(%rbp)
    65b8:	48 8d 85 e8 f7 ff ff 	lea    -0x818(%rbp),%rax
    65bf:	48 89 85 10 fd ff ff 	mov    %rax,-0x2f0(%rbp)
    65c6:	48 8d 05 5b 7a 00 00 	lea    0x7a5b(%rip),%rax        # e028 <g_17>
    65cd:	48 89 85 18 fd ff ff 	mov    %rax,-0x2e8(%rbp)
    65d4:	48 c7 85 20 fd ff ff 	movq   $0x0,-0x2e0(%rbp)
    65db:	00 00 00 00 
    65df:	48 c7 85 28 fd ff ff 	movq   $0x0,-0x2d8(%rbp)
    65e6:	00 00 00 00 
    65ea:	48 8d 85 e8 f7 ff ff 	lea    -0x818(%rbp),%rax
    65f1:	48 89 85 30 fd ff ff 	mov    %rax,-0x2d0(%rbp)
    65f8:	48 c7 85 38 fd ff ff 	movq   $0x0,-0x2c8(%rbp)
    65ff:	00 00 00 00 
    6603:	48 8d 85 e8 f7 ff ff 	lea    -0x818(%rbp),%rax
    660a:	48 89 85 40 fd ff ff 	mov    %rax,-0x2c0(%rbp)
    6611:	48 8d 05 10 7a 00 00 	lea    0x7a10(%rip),%rax        # e028 <g_17>
    6618:	48 89 85 48 fd ff ff 	mov    %rax,-0x2b8(%rbp)
    661f:	48 8d 05 02 7a 00 00 	lea    0x7a02(%rip),%rax        # e028 <g_17>
    6626:	48 89 85 50 fd ff ff 	mov    %rax,-0x2b0(%rbp)
    662d:	48 8d 85 e8 f7 ff ff 	lea    -0x818(%rbp),%rax
    6634:	48 89 85 58 fd ff ff 	mov    %rax,-0x2a8(%rbp)
    663b:	48 c7 85 60 fd ff ff 	movq   $0x0,-0x2a0(%rbp)
    6642:	00 00 00 00 
    6646:	48 8d 85 e8 f7 ff ff 	lea    -0x818(%rbp),%rax
    664d:	48 89 85 68 fd ff ff 	mov    %rax,-0x298(%rbp)
    6654:	48 8d 85 e8 f7 ff ff 	lea    -0x818(%rbp),%rax
    665b:	48 89 85 70 fd ff ff 	mov    %rax,-0x290(%rbp)
    6662:	48 8d 85 e8 f7 ff ff 	lea    -0x818(%rbp),%rax
    6669:	48 89 85 78 fd ff ff 	mov    %rax,-0x288(%rbp)
    6670:	48 bb 7f 23 4d e7 9f 	movabs $0x777a299fe74d237f,%rbx
    6677:	29 7a 77 
    667a:	48 89 9d a0 fa ff ff 	mov    %rbx,-0x560(%rbp)
    6681:	48 b8 d7 85 1f 44 27 	movabs $0x8714a27441f85d7,%rax
    6688:	4a 71 08 
    668b:	48 89 85 a8 fa ff ff 	mov    %rax,-0x558(%rbp)
    6692:	48 89 85 b0 fa ff ff 	mov    %rax,-0x550(%rbp)
    6699:	48 89 9d b8 fa ff ff 	mov    %rbx,-0x548(%rbp)
    66a0:	48 89 85 c0 fa ff ff 	mov    %rax,-0x540(%rbp)
    66a7:	48 89 85 c8 fa ff ff 	mov    %rax,-0x538(%rbp)
    66ae:	48 8b 05 03 8f 00 00 	mov    0x8f03(%rip),%rax        # f5b8 <g_239>
    66b5:	48 8d 95 d8 f7 ff ff 	lea    -0x828(%rbp),%rdx
    66bc:	48 89 10             	mov    %rdx,(%rax)
    66bf:	83 ad f4 f7 ff ff 01 	subl   $0x1,-0x80c(%rbp)
    66c6:	48 8b 85 b0 fa ff ff 	mov    -0x550(%rbp),%rax
    66cd:	48 83 c0 01          	add    $0x1,%rax
    66d1:	48 89 85 b0 fa ff ff 	mov    %rax,-0x550(%rbp)
    66d8:	48 8b 05 99 90 00 00 	mov    0x9099(%rip),%rax        # f778 <g_433>
    66df:	48 8b 95 70 f8 ff ff 	mov    -0x790(%rbp),%rdx
    66e6:	48 89 10             	mov    %rdx,(%rax)
    66e9:	8b 05 8d 82 00 00    	mov    0x828d(%rip),%eax        # e97c <g_174>
    66ef:	83 e8 01             	sub    $0x1,%eax
    66f2:	89 05 84 82 00 00    	mov    %eax,0x8284(%rip)        # e97c <g_174>
    66f8:	8b 05 7e 82 00 00    	mov    0x827e(%rip),%eax        # e97c <g_174>
    66fe:	83 f8 f0             	cmp    $0xfffffff0,%eax
    6701:	0f 8d d3 f7 ff ff    	jge    5eda <func_13+0xc2f>
    6707:	eb 01                	jmp    670a <func_13+0x145f>
    6709:	90                   	nop
    670a:	8b 95 d8 f7 ff ff    	mov    -0x828(%rbp),%edx
    6710:	48 8b 85 58 f8 ff ff 	mov    -0x7a8(%rbp),%rax
    6717:	8b 00                	mov    (%rax),%eax
    6719:	21 d0                	and    %edx,%eax
    671b:	89 85 d8 f7 ff ff    	mov    %eax,-0x828(%rbp)
    6721:	0f b7 05 b0 82 00 00 	movzwl 0x82b0(%rip),%eax        # e9d8 <g_436>
    6728:	66 89 85 e5 f7 ff ff 	mov    %ax,-0x81b(%rbp)
    672f:	0f b6 05 a4 82 00 00 	movzbl 0x82a4(%rip),%eax        # e9da <g_436+0x2>
    6736:	88 85 e7 f7 ff ff    	mov    %al,-0x819(%rbp)
    673c:	b8 00 00 00 00       	mov    $0x0,%eax
    6741:	0f b7 95 e5 f7 ff ff 	movzwl -0x81b(%rbp),%edx
    6748:	0f b7 d2             	movzwl %dx,%edx
    674b:	66 b8 00 00          	mov    $0x0,%ax
    674f:	48 09 d0             	or     %rdx,%rax
    6752:	0f b6 95 e7 f7 ff ff 	movzbl -0x819(%rbp),%edx
    6759:	0f b6 d2             	movzbl %dl,%edx
    675c:	48 c1 e2 10          	shl    $0x10,%rdx
    6760:	48 25 ff ff 00 ff    	and    $0xffffffffff00ffff,%rax
    6766:	48 09 d0             	or     %rdx,%rax
    6769:	48 8b 7d c8          	mov    -0x38(%rbp),%rdi
    676d:	64 48 33 3c 25 28 00 	xor    %fs:0x28,%rdi
    6774:	00 00 
    6776:	74 05                	je     677d <func_13+0x14d2>
    6778:	e8 f3 c8 ff ff       	callq  3070 <__stack_chk_fail@plt>
    677d:	48 81 c4 08 08 00 00 	add    $0x808,%rsp
    6784:	5b                   	pop    %rbx
    6785:	41 5c                	pop    %r12
    6787:	41 5d                	pop    %r13
    6789:	41 5e                	pop    %r14
    678b:	41 5f                	pop    %r15
    678d:	5d                   	pop    %rbp
    678e:	c3                   	retq   

000000000000678f <func_35>:
    678f:	f3 0f 1e fa          	endbr64 
    6793:	55                   	push   %rbp
    6794:	48 89 e5             	mov    %rsp,%rbp
    6797:	41 54                	push   %r12
    6799:	53                   	push   %rbx
    679a:	48 83 ec 60          	sub    $0x60,%rsp
    679e:	89 7d ac             	mov    %edi,-0x54(%rbp)
    67a1:	89 75 a8             	mov    %esi,-0x58(%rbp)
    67a4:	48 89 55 a0          	mov    %rdx,-0x60(%rbp)
    67a8:	89 4d 9c             	mov    %ecx,-0x64(%rbp)
    67ab:	44 89 45 98          	mov    %r8d,-0x68(%rbp)
    67af:	64 48 8b 04 25 28 00 	mov    %fs:0x28,%rax
    67b6:	00 00 
    67b8:	48 89 45 e8          	mov    %rax,-0x18(%rbp)
    67bc:	31 c0                	xor    %eax,%eax
    67be:	48 c7 45 c8 00 00 00 	movq   $0x0,-0x38(%rbp)
    67c5:	00 
    67c6:	48 c7 45 b8 00 00 00 	movq   $0x0,-0x48(%rbp)
    67cd:	00 
    67ce:	48 8d 45 b8          	lea    -0x48(%rbp),%rax
    67d2:	48 89 45 c0          	mov    %rax,-0x40(%rbp)
    67d6:	48 c7 45 d0 00 00 00 	movq   $0x0,-0x30(%rbp)
    67dd:	00 
    67de:	48 8d 45 c0          	lea    -0x40(%rbp),%rax
    67e2:	48 89 45 d8          	mov    %rax,-0x28(%rbp)
    67e6:	c7 45 b4 fc ff ff ff 	movl   $0xfffffffc,-0x4c(%rbp)
    67ed:	48 8d 05 b4 81 00 00 	lea    0x81b4(%rip),%rax        # e9a8 <g_194+0x8>
    67f4:	48 89 45 e0          	mov    %rax,-0x20(%rbp)
    67f8:	b8 f9 ff ff ff       	mov    $0xfffffff9,%eax
    67fd:	85 c0                	test   %eax,%eax
    67ff:	74 12                	je     6813 <func_35+0x84>
    6801:	0f b6 05 78 81 00 00 	movzbl 0x8178(%rip),%eax        # e980 <g_189>
    6808:	84 c0                	test   %al,%al
    680a:	74 07                	je     6813 <func_35+0x84>
    680c:	b8 01 00 00 00       	mov    $0x1,%eax
    6811:	eb 05                	jmp    6818 <func_35+0x89>
    6813:	b8 00 00 00 00       	mov    $0x0,%eax
    6818:	3b 45 b4             	cmp    -0x4c(%rbp),%eax
    681b:	0f 9c c0             	setl   %al
    681e:	0f b6 d0             	movzbl %al,%edx
    6821:	48 8b 4d c0          	mov    -0x40(%rbp),%rcx
    6825:	48 8b 45 d8          	mov    -0x28(%rbp),%rax
    6829:	48 89 08             	mov    %rcx,(%rax)
    682c:	48 8b 45 d8          	mov    -0x28(%rbp),%rax
    6830:	48 8b 00             	mov    (%rax),%rax
    6833:	48 39 45 c8          	cmp    %rax,-0x38(%rbp)
    6837:	0f 95 c0             	setne  %al
    683a:	0f b6 c0             	movzbl %al,%eax
    683d:	89 d6                	mov    %edx,%esi
    683f:	89 c7                	mov    %eax,%edi
    6841:	e8 cc c9 ff ff       	callq  3212 <safe_mul_func_int8_t_s_s>
    6846:	44 0f be e0          	movsbl %al,%r12d
    684a:	8b 5d 98             	mov    -0x68(%rbp),%ebx
    684d:	83 7d b4 00          	cmpl   $0x0,-0x4c(%rbp)
    6851:	75 56                	jne    68a9 <func_35+0x11a>
    6853:	8b 45 a8             	mov    -0x58(%rbp),%eax
    6856:	0f bf d0             	movswl %ax,%edx
    6859:	0f b6 05 68 81 00 00 	movzbl 0x8168(%rip),%eax        # e9c8 <g_343>
    6860:	83 e0 0f             	and    $0xf,%eax
    6863:	0f b6 c8             	movzbl %al,%ecx
    6866:	48 8b 05 db 77 00 00 	mov    0x77db(%rip),%rax        # e048 <g_58>
    686d:	48 39 c1             	cmp    %rax,%rcx
    6870:	0f 9f c0             	setg   %al
    6873:	0f b6 c8             	movzbl %al,%ecx
    6876:	8b 45 9c             	mov    -0x64(%rbp),%eax
    6879:	39 c1                	cmp    %eax,%ecx
    687b:	0f 9f c0             	setg   %al
    687e:	0f b6 c0             	movzbl %al,%eax
    6881:	89 d6                	mov    %edx,%esi
    6883:	89 c7                	mov    %eax,%edi
    6885:	e8 6b cb ff ff       	callq  33f5 <safe_mul_func_int16_t_s_s>
    688a:	98                   	cwtl   
    688b:	be 07 85 ff ff       	mov    $0xffff8507,%esi
    6890:	89 c7                	mov    %eax,%edi
    6892:	e8 1c cb ff ff       	callq  33b3 <safe_add_func_int16_t_s_s>
    6897:	0f b7 c0             	movzwl %ax,%eax
    689a:	be 07 00 00 00       	mov    $0x7,%esi
    689f:	89 c7                	mov    %eax,%edi
    68a1:	e8 79 d4 ff ff       	callq  3d1f <safe_sub_func_uint16_t_u_u>
    68a6:	66 85 c0             	test   %ax,%ax
    68a9:	8b 45 ac             	mov    -0x54(%rbp),%eax
    68ac:	89 c6                	mov    %eax,%esi
    68ae:	bf a2 ae 00 00       	mov    $0xaea2,%edi
    68b3:	e8 90 d5 ff ff       	callq  3e48 <safe_rshift_func_uint16_t_u_s>
    68b8:	0f b7 c0             	movzwl %ax,%eax
    68bb:	89 de                	mov    %ebx,%esi
    68bd:	89 c7                	mov    %eax,%edi
    68bf:	e8 0c d6 ff ff       	callq  3ed0 <safe_sub_func_uint32_t_u_u>
    68c4:	8b 55 b4             	mov    -0x4c(%rbp),%edx
    68c7:	39 d0                	cmp    %edx,%eax
    68c9:	0f 95 c0             	setne  %al
    68cc:	0f b6 c0             	movzbl %al,%eax
    68cf:	0b 45 ac             	or     -0x54(%rbp),%eax
    68d2:	23 45 98             	and    -0x68(%rbp),%eax
    68d5:	83 f8 04             	cmp    $0x4,%eax
    68d8:	0f 9e c0             	setle  %al
    68db:	0f b6 d0             	movzbl %al,%edx
    68de:	48 8b 05 7b 8e 00 00 	mov    0x8e7b(%rip),%rax        # f760 <g_361>
    68e5:	44 31 e2             	xor    %r12d,%edx
    68e8:	89 10                	mov    %edx,(%rax)
    68ea:	48 8b 05 6f 8e 00 00 	mov    0x8e6f(%rip),%rax        # f760 <g_361>
    68f1:	8b 10                	mov    (%rax),%edx
    68f3:	48 8b 45 e0          	mov    -0x20(%rbp),%rax
    68f7:	89 10                	mov    %edx,(%rax)
    68f9:	8b 45 a8             	mov    -0x58(%rbp),%eax
    68fc:	48 8b 5d e8          	mov    -0x18(%rbp),%rbx
    6900:	64 48 33 1c 25 28 00 	xor    %fs:0x28,%rbx
    6907:	00 00 
    6909:	74 05                	je     6910 <func_35+0x181>
    690b:	e8 60 c7 ff ff       	callq  3070 <__stack_chk_fail@plt>
    6910:	48 83 c4 60          	add    $0x60,%rsp
    6914:	5b                   	pop    %rbx
    6915:	41 5c                	pop    %r12
    6917:	5d                   	pop    %rbp
    6918:	c3                   	retq   

0000000000006919 <func_41>:
    6919:	f3 0f 1e fa          	endbr64 
    691d:	55                   	push   %rbp
    691e:	48 89 e5             	mov    %rsp,%rbp
    6921:	48 81 ec a0 00 00 00 	sub    $0xa0,%rsp
    6928:	48 89 bd 78 ff ff ff 	mov    %rdi,-0x88(%rbp)
    692f:	89 f0                	mov    %esi,%eax
    6931:	89 95 70 ff ff ff    	mov    %edx,-0x90(%rbp)
    6937:	89 ca                	mov    %ecx,%edx
    6939:	66 89 85 74 ff ff ff 	mov    %ax,-0x8c(%rbp)
    6940:	89 d0                	mov    %edx,%eax
    6942:	88 85 6c ff ff ff    	mov    %al,-0x94(%rbp)
    6948:	64 48 8b 04 25 28 00 	mov    %fs:0x28,%rax
    694f:	00 00 
    6951:	48 89 45 f8          	mov    %rax,-0x8(%rbp)
    6955:	31 c0                	xor    %eax,%eax
    6957:	48 8d 05 02 8c 00 00 	lea    0x8c02(%rip),%rax        # f560 <g_135>
    695e:	48 89 45 88          	mov    %rax,-0x78(%rbp)
    6962:	c7 45 90 c9 43 2d 3f 	movl   $0x3f2d43c9,-0x70(%rbp)
    6969:	c7 45 94 c9 43 2d 3f 	movl   $0x3f2d43c9,-0x6c(%rbp)
    6970:	c7 45 98 c9 43 2d 3f 	movl   $0x3f2d43c9,-0x68(%rbp)
    6977:	c7 45 9c c9 43 2d 3f 	movl   $0x3f2d43c9,-0x64(%rbp)
    697e:	c7 45 a0 c9 43 2d 3f 	movl   $0x3f2d43c9,-0x60(%rbp)
    6985:	c7 45 84 00 00 00 00 	movl   $0x0,-0x7c(%rbp)
    698c:	eb 15                	jmp    69a3 <func_41+0x8a>
    698e:	8b 45 84             	mov    -0x7c(%rbp),%eax
    6991:	48 98                	cltq   
    6993:	48 8d 15 ce 8b 00 00 	lea    0x8bce(%rip),%rdx        # f568 <g_134>
    699a:	48 89 54 c5 b0       	mov    %rdx,-0x50(%rbp,%rax,8)
    699f:	83 45 84 01          	addl   $0x1,-0x7c(%rbp)
    69a3:	83 7d 84 07          	cmpl   $0x7,-0x7c(%rbp)
    69a7:	7e e5                	jle    698e <func_41+0x75>
    69a9:	48 8d 05 b0 8b 00 00 	lea    0x8bb0(%rip),%rax        # f560 <g_135>
    69b0:	48 89 45 88          	mov    %rax,-0x78(%rbp)
    69b4:	8b 45 9c             	mov    -0x64(%rbp),%eax
    69b7:	48 8b 4d f8          	mov    -0x8(%rbp),%rcx
    69bb:	64 48 33 0c 25 28 00 	xor    %fs:0x28,%rcx
    69c2:	00 00 
    69c4:	74 05                	je     69cb <func_41+0xb2>
    69c6:	e8 a5 c6 ff ff       	callq  3070 <__stack_chk_fail@plt>
    69cb:	c9                   	leaveq 
    69cc:	c3                   	retq   

00000000000069cd <func_49>:
    69cd:	f3 0f 1e fa          	endbr64 
    69d1:	55                   	push   %rbp
    69d2:	48 89 e5             	mov    %rsp,%rbp
    69d5:	41 57                	push   %r15
    69d7:	41 56                	push   %r14
    69d9:	41 55                	push   %r13
    69db:	41 54                	push   %r12
    69dd:	53                   	push   %rbx
    69de:	48 81 ec 98 05 00 00 	sub    $0x598,%rsp
    69e5:	89 bd 5c fa ff ff    	mov    %edi,-0x5a4(%rbp)
    69eb:	48 89 b5 50 fa ff ff 	mov    %rsi,-0x5b0(%rbp)
    69f2:	48 89 95 48 fa ff ff 	mov    %rdx,-0x5b8(%rbp)
    69f9:	64 48 8b 04 25 28 00 	mov    %fs:0x28,%rax
    6a00:	00 00 
    6a02:	48 89 45 c8          	mov    %rax,-0x38(%rbp)
    6a06:	31 c0                	xor    %eax,%eax
    6a08:	48 c7 85 80 fb ff ff 	movq   $0x3,-0x480(%rbp)
    6a0f:	03 00 00 00 
    6a13:	48 c7 85 88 fb ff ff 	movq   $0x3,-0x478(%rbp)
    6a1a:	03 00 00 00 
    6a1e:	48 c7 85 90 fb ff ff 	movq   $0x0,-0x470(%rbp)
    6a25:	00 00 00 00 
    6a29:	48 c7 85 98 fb ff ff 	movq   $0x3,-0x468(%rbp)
    6a30:	03 00 00 00 
    6a34:	48 c7 85 a0 fb ff ff 	movq   $0x3,-0x460(%rbp)
    6a3b:	03 00 00 00 
    6a3f:	48 c7 85 a8 fb ff ff 	movq   $0x0,-0x458(%rbp)
    6a46:	00 00 00 00 
    6a4a:	48 c7 85 b0 fb ff ff 	movq   $0x3,-0x450(%rbp)
    6a51:	03 00 00 00 
    6a55:	48 c7 85 b8 fb ff ff 	movq   $0x3,-0x448(%rbp)
    6a5c:	03 00 00 00 
    6a60:	48 c7 85 c0 fb ff ff 	movq   $0x0,-0x440(%rbp)
    6a67:	00 00 00 00 
    6a6b:	c7 85 64 fa ff ff ae 	movl   $0xf96394ae,-0x59c(%rbp)
    6a72:	94 63 f9 
    6a75:	c7 85 80 fa ff ff d4 	movl   $0xb53a2ad4,-0x580(%rbp)
    6a7c:	2a 3a b5 
    6a7f:	48 8d 05 9e 75 00 00 	lea    0x759e(%rip),%rax        # e024 <g_16>
    6a86:	48 89 85 a8 fa ff ff 	mov    %rax,-0x558(%rbp)
    6a8d:	48 8d 05 a4 75 00 00 	lea    0x75a4(%rip),%rax        # e038 <g_47>
    6a94:	48 89 85 b0 fa ff ff 	mov    %rax,-0x550(%rbp)
    6a9b:	48 8d 05 ae 91 00 00 	lea    0x91ae(%rip),%rax        # fc50 <g_136>
    6aa2:	48 89 85 b8 fa ff ff 	mov    %rax,-0x548(%rbp)
    6aa9:	48 8d 05 b8 8a 00 00 	lea    0x8ab8(%rip),%rax        # f568 <g_134>
    6ab0:	48 89 85 c0 fa ff ff 	mov    %rax,-0x540(%rbp)
    6ab7:	c7 85 20 fb ff ff f8 	movl   $0xfffffff8,-0x4e0(%rbp)
    6abe:	ff ff ff 
    6ac1:	c7 85 24 fb ff ff 03 	movl   $0x3,-0x4dc(%rbp)
    6ac8:	00 00 00 
    6acb:	c7 85 28 fb ff ff f8 	movl   $0xfffffff8,-0x4d8(%rbp)
    6ad2:	ff ff ff 
    6ad5:	c7 85 2c fb ff ff 69 	movl   $0x4268f69,-0x4d4(%rbp)
    6adc:	8f 26 04 
    6adf:	c7 85 30 fb ff ff 69 	movl   $0x4268f69,-0x4d0(%rbp)
    6ae6:	8f 26 04 
    6ae9:	c7 85 34 fb ff ff f8 	movl   $0xfffffff8,-0x4cc(%rbp)
    6af0:	ff ff ff 
    6af3:	c7 85 38 fb ff ff 03 	movl   $0x3,-0x4c8(%rbp)
    6afa:	00 00 00 
    6afd:	c7 85 3c fb ff ff f8 	movl   $0xfffffff8,-0x4c4(%rbp)
    6b04:	ff ff ff 
    6b07:	c7 85 40 fb ff ff 69 	movl   $0x4268f69,-0x4c0(%rbp)
    6b0e:	8f 26 04 
    6b11:	c7 85 44 fb ff ff 69 	movl   $0x4268f69,-0x4bc(%rbp)
    6b18:	8f 26 04 
    6b1b:	c6 05 16 75 00 00 00 	movb   $0x0,0x7516(%rip)        # e038 <g_47>
    6b22:	e9 4b 06 00 00       	jmpq   7172 <func_49+0x7a5>
    6b27:	48 8d 85 64 fa ff ff 	lea    -0x59c(%rbp),%rax
    6b2e:	48 89 85 c8 fa ff ff 	mov    %rax,-0x538(%rbp)
    6b35:	c7 85 68 fa ff ff fa 	movl   $0xfffffffa,-0x598(%rbp)
    6b3c:	ff ff ff 
    6b3f:	c7 85 00 fb ff ff 5f 	movl   $0xdf71b75f,-0x500(%rbp)
    6b46:	b7 71 df 
    6b49:	c7 85 04 fb ff ff 5f 	movl   $0xdf71b75f,-0x4fc(%rbp)
    6b50:	b7 71 df 
    6b53:	c7 85 08 fb ff ff 5f 	movl   $0xdf71b75f,-0x4f8(%rbp)
    6b5a:	b7 71 df 
    6b5d:	c7 85 0c fb ff ff 5f 	movl   $0xdf71b75f,-0x4f4(%rbp)
    6b64:	b7 71 df 
    6b67:	c7 85 10 fb ff ff 5f 	movl   $0xdf71b75f,-0x4f0(%rbp)
    6b6e:	b7 71 df 
    6b71:	66 c7 05 aa 74 00 00 	movw   $0x0,0x74aa(%rip)        # e024 <g_16>
    6b78:	00 00 
    6b7a:	e9 01 03 00 00       	jmpq   6e80 <func_49+0x4b3>
    6b7f:	c7 85 84 fa ff ff 59 	movl   $0x2121a659,-0x57c(%rbp)
    6b86:	a6 21 21 
    6b89:	0f b7 05 94 74 00 00 	movzwl 0x7494(%rip),%eax        # e024 <g_16>
    6b90:	98                   	cwtl   
    6b91:	8d 48 01             	lea    0x1(%rax),%ecx
    6b94:	0f b7 05 89 74 00 00 	movzwl 0x7489(%rip),%eax        # e024 <g_16>
    6b9b:	98                   	cwtl   
    6b9c:	48 63 d0             	movslq %eax,%rdx
    6b9f:	48 63 c1             	movslq %ecx,%rax
    6ba2:	48 01 d0             	add    %rdx,%rax
    6ba5:	48 8b 84 c5 80 fb ff 	mov    -0x480(%rbp,%rax,8),%rax
    6bac:	ff 
    6bad:	48 85 c0             	test   %rax,%rax
    6bb0:	0f 84 28 01 00 00    	je     6cde <func_49+0x311>
    6bb6:	48 8d 05 6f 74 00 00 	lea    0x746f(%rip),%rax        # e02c <g_21>
    6bbd:	48 89 85 d8 fa ff ff 	mov    %rax,-0x528(%rbp)
    6bc4:	c7 85 d0 fb ff ff b4 	movl   $0xba6f2db4,-0x430(%rbp)
    6bcb:	2d 6f ba 
    6bce:	c7 85 d4 fb ff ff fd 	movl   $0xfffffffd,-0x42c(%rbp)
    6bd5:	ff ff ff 
    6bd8:	c7 85 d8 fb ff ff b4 	movl   $0xba6f2db4,-0x428(%rbp)
    6bdf:	2d 6f ba 
    6be2:	c7 85 dc fb ff ff fb 	movl   $0xfffffffb,-0x424(%rbp)
    6be9:	ff ff ff 
    6bec:	c7 85 e0 fb ff ff fb 	movl   $0xfffffffb,-0x420(%rbp)
    6bf3:	ff ff ff 
    6bf6:	c7 85 e4 fb ff ff b4 	movl   $0xba6f2db4,-0x41c(%rbp)
    6bfd:	2d 6f ba 
    6c00:	c7 85 e8 fb ff ff fd 	movl   $0xfffffffd,-0x418(%rbp)
    6c07:	ff ff ff 
    6c0a:	c7 85 ec fb ff ff b4 	movl   $0xba6f2db4,-0x414(%rbp)
    6c11:	2d 6f ba 
    6c14:	c7 85 f0 fb ff ff fb 	movl   $0xfffffffb,-0x410(%rbp)
    6c1b:	ff ff ff 
    6c1e:	c7 85 f4 fb ff ff fb 	movl   $0xfffffffb,-0x40c(%rbp)
    6c25:	ff ff ff 
    6c28:	48 8d 05 25 34 00 00 	lea    0x3425(%rip),%rax        # a054 <g_68>
    6c2f:	48 89 85 a0 fa ff ff 	mov    %rax,-0x560(%rbp)
    6c36:	48 8d 85 a0 fa ff ff 	lea    -0x560(%rbp),%rax
    6c3d:	48 89 85 e0 fa ff ff 	mov    %rax,-0x520(%rbp)
    6c44:	c7 85 6c fa ff ff 00 	movl   $0x0,-0x594(%rbp)
    6c4b:	00 00 00 
    6c4e:	eb 1e                	jmp    6c6e <func_49+0x2a1>
    6c50:	8b 85 6c fa ff ff    	mov    -0x594(%rbp),%eax
    6c56:	48 98                	cltq   
    6c58:	48 8d 15 cd 73 00 00 	lea    0x73cd(%rip),%rdx        # e02c <g_21>
    6c5f:	48 89 94 c5 50 fb ff 	mov    %rdx,-0x4b0(%rbp,%rax,8)
    6c66:	ff 
    6c67:	83 85 6c fa ff ff 01 	addl   $0x1,-0x594(%rbp)
    6c6e:	83 bd 6c fa ff ff 01 	cmpl   $0x1,-0x594(%rbp)
    6c75:	7e d9                	jle    6c50 <func_49+0x283>
    6c77:	8b 85 f4 fb ff ff    	mov    -0x40c(%rbp),%eax
    6c7d:	83 c0 01             	add    $0x1,%eax
    6c80:	89 85 f4 fb ff ff    	mov    %eax,-0x40c(%rbp)
    6c86:	0f b6 05 ab 73 00 00 	movzbl 0x73ab(%rip),%eax        # e038 <g_47>
    6c8d:	0f b6 c0             	movzbl %al,%eax
    6c90:	8d 48 01             	lea    0x1(%rax),%ecx
    6c93:	0f b6 05 9e 73 00 00 	movzbl 0x739e(%rip),%eax        # e038 <g_47>
    6c9a:	0f b6 c0             	movzbl %al,%eax
    6c9d:	48 63 d0             	movslq %eax,%rdx
    6ca0:	48 63 c1             	movslq %ecx,%rax
    6ca3:	48 01 d0             	add    %rdx,%rax
    6ca6:	48 8b 84 c5 80 fb ff 	mov    -0x480(%rbp,%rax,8),%rax
    6cad:	ff 
    6cae:	48 85 c0             	test   %rax,%rax
    6cb1:	0f 85 b4 01 00 00    	jne    6e6b <func_49+0x49e>
    6cb7:	48 8b 85 e0 fa ff ff 	mov    -0x520(%rbp),%rax
    6cbe:	48 c7 00 00 00 00 00 	movq   $0x0,(%rax)
    6cc5:	48 83 bd c8 fa ff ff 	cmpq   $0x0,-0x538(%rbp)
    6ccc:	00 
    6ccd:	0f 94 c0             	sete   %al
    6cd0:	0f b6 c0             	movzbl %al,%eax
    6cd3:	89 85 84 fa ff ff    	mov    %eax,-0x57c(%rbp)
    6cd9:	e9 84 01 00 00       	jmpq   6e62 <func_49+0x495>
    6cde:	48 8d 05 db 7c 00 00 	lea    0x7cdb(%rip),%rax        # e9c0 <g_209>
    6ce5:	48 89 85 d0 fa ff ff 	mov    %rax,-0x530(%rbp)
    6cec:	48 8d 85 d0 fb ff ff 	lea    -0x430(%rbp),%rax
    6cf3:	48 8d 15 46 3a 00 00 	lea    0x3a46(%rip),%rdx        # a740 <g_889+0x6de>
    6cfa:	b9 7e 00 00 00       	mov    $0x7e,%ecx
    6cff:	48 89 c7             	mov    %rax,%rdi
    6d02:	48 89 d6             	mov    %rdx,%rsi
    6d05:	f3 48 a5             	rep movsq %ds:(%rsi),%es:(%rdi)
    6d08:	48 8b 85 48 fa ff ff 	mov    -0x5b8(%rbp),%rax
    6d0f:	0f b6 00             	movzbl (%rax),%eax
    6d12:	0f b6 d8             	movzbl %al,%ebx
    6d15:	48 8b 85 50 fa ff ff 	mov    -0x5b0(%rbp),%rax
    6d1c:	0f b7 00             	movzwl (%rax),%eax
    6d1f:	44 0f bf e0          	movswl %ax,%r12d
    6d23:	48 8b 05 1e 73 00 00 	mov    0x731e(%rip),%rax        # e048 <g_58>
    6d2a:	49 89 c5             	mov    %rax,%r13
    6d2d:	48 8b 85 a8 fa ff ff 	mov    -0x558(%rbp),%rax
    6d34:	48 89 c7             	mov    %rax,%rdi
    6d37:	e8 e1 08 00 00       	callq  761d <func_90>
    6d3c:	0f b6 05 f5 72 00 00 	movzbl 0x72f5(%rip),%eax        # e038 <g_47>
    6d43:	0f b6 c0             	movzbl %al,%eax
    6d46:	0f b7 15 d7 72 00 00 	movzwl 0x72d7(%rip),%edx        # e024 <g_16>
    6d4d:	0f bf d2             	movswl %dx,%edx
    6d50:	48 63 d2             	movslq %edx,%rdx
    6d53:	48 98                	cltq   
    6d55:	48 01 d0             	add    %rdx,%rax
    6d58:	48 8b 84 c5 80 fb ff 	mov    -0x480(%rbp,%rax,8),%rax
    6d5f:	ff 
    6d60:	0f be c8             	movsbl %al,%ecx
    6d63:	0f b6 05 ce 72 00 00 	movzbl 0x72ce(%rip),%eax        # e038 <g_47>
    6d6a:	0f b6 d0             	movzbl %al,%edx
    6d6d:	0f b7 05 e0 72 00 00 	movzwl 0x72e0(%rip),%eax        # e054 <g_89>
    6d74:	83 e0 08             	and    $0x8,%eax
    6d77:	66 89 05 d6 72 00 00 	mov    %ax,0x72d6(%rip)        # e054 <g_89>
    6d7e:	0f b7 05 cf 72 00 00 	movzwl 0x72cf(%rip),%eax        # e054 <g_89>
    6d85:	0f be c0             	movsbl %al,%eax
    6d88:	48 8b b5 b0 fa ff ff 	mov    -0x550(%rbp),%rsi
    6d8f:	49 89 f0             	mov    %rsi,%r8
    6d92:	89 c6                	mov    %eax,%esi
    6d94:	bf 00 00 00 00       	mov    $0x0,%edi
    6d99:	e8 d3 07 00 00       	callq  7571 <func_83>
    6d9e:	48 89 05 bb 87 00 00 	mov    %rax,0x87bb(%rip)        # f560 <g_135>
    6da5:	48 8b 05 b4 87 00 00 	mov    0x87b4(%rip),%rax        # f560 <g_135>
    6dac:	0f b6 15 85 72 00 00 	movzbl 0x7285(%rip),%edx        # e038 <g_47>
    6db3:	0f b6 d2             	movzbl %dl,%edx
    6db6:	0f b7 0d 67 72 00 00 	movzwl 0x7267(%rip),%ecx        # e024 <g_16>
    6dbd:	0f bf c9             	movswl %cx,%ecx
    6dc0:	48 63 c9             	movslq %ecx,%rcx
    6dc3:	48 63 d2             	movslq %edx,%rdx
    6dc6:	48 01 ca             	add    %rcx,%rdx
    6dc9:	48 8b 8c d5 80 fb ff 	mov    -0x480(%rbp,%rdx,8),%rcx
    6dd0:	ff 
    6dd1:	0f b7 15 4c 72 00 00 	movzwl 0x724c(%rip),%edx        # e024 <g_16>
    6dd8:	0f bf d2             	movswl %dx,%edx
    6ddb:	8d 7a 01             	lea    0x1(%rdx),%edi
    6dde:	0f b7 15 3f 72 00 00 	movzwl 0x723f(%rip),%edx        # e024 <g_16>
    6de5:	0f bf d2             	movswl %dx,%edx
    6de8:	48 63 f2             	movslq %edx,%rsi
    6deb:	48 63 d7             	movslq %edi,%rdx
    6dee:	48 01 f2             	add    %rsi,%rdx
    6df1:	48 8b 94 d5 80 fb ff 	mov    -0x480(%rbp,%rdx,8),%rdx
    6df8:	ff 
    6df9:	48 31 ca             	xor    %rcx,%rdx
    6dfc:	48 89 d7             	mov    %rdx,%rdi
    6dff:	44 89 e1             	mov    %r12d,%ecx
    6e02:	4c 89 ea             	mov    %r13,%rdx
    6e05:	48 89 c6             	mov    %rax,%rsi
    6e08:	e8 06 07 00 00       	callq  7513 <func_78>
    6e0d:	48 89 c1             	mov    %rax,%rcx
    6e10:	8b 95 c0 fc ff ff    	mov    -0x340(%rbp),%edx
    6e16:	8b 85 5c fa ff ff    	mov    -0x5a4(%rbp),%eax
    6e1c:	89 c6                	mov    %eax,%esi
    6e1e:	48 89 cf             	mov    %rcx,%rdi
    6e21:	e8 87 03 00 00       	callq  71ad <func_74>
    6e26:	0f b6 c0             	movzbl %al,%eax
    6e29:	89 de                	mov    %ebx,%esi
    6e2b:	89 c7                	mov    %eax,%edi
    6e2d:	e8 61 cd ff ff       	callq  3b93 <safe_mul_func_uint8_t_u_u>
    6e32:	be 07 00 00 00       	mov    $0x7,%esi
    6e37:	bf 00 00 00 00       	mov    $0x0,%edi
    6e3c:	e8 2b c5 ff ff       	callq  336c <safe_rshift_func_int8_t_s_u>
    6e41:	0f be d0             	movsbl %al,%edx
    6e44:	48 8b 85 c8 fa ff ff 	mov    -0x538(%rbp),%rax
    6e4b:	89 10                	mov    %edx,(%rax)
    6e4d:	48 8b 85 b8 fb ff ff 	mov    -0x448(%rbp),%rax
    6e54:	48 85 c0             	test   %rax,%rax
    6e57:	75 39                	jne    6e92 <func_49+0x4c5>
    6e59:	83 bd 5c fa ff ff 00 	cmpl   $0x0,-0x5a4(%rbp)
    6e60:	75 0c                	jne    6e6e <func_49+0x4a1>
    6e62:	83 bd 5c fa ff ff 00 	cmpl   $0x0,-0x5a4(%rbp)
    6e69:	eb 04                	jmp    6e6f <func_49+0x4a2>
    6e6b:	90                   	nop
    6e6c:	eb 01                	jmp    6e6f <func_49+0x4a2>
    6e6e:	90                   	nop
    6e6f:	0f b7 05 ae 71 00 00 	movzwl 0x71ae(%rip),%eax        # e024 <g_16>
    6e76:	83 c0 01             	add    $0x1,%eax
    6e79:	66 89 05 a4 71 00 00 	mov    %ax,0x71a4(%rip)        # e024 <g_16>
    6e80:	0f b7 05 9d 71 00 00 	movzwl 0x719d(%rip),%eax        # e024 <g_16>
    6e87:	66 85 c0             	test   %ax,%ax
    6e8a:	0f 8e ef fc ff ff    	jle    6b7f <func_49+0x1b2>
    6e90:	eb 01                	jmp    6e93 <func_49+0x4c6>
    6e92:	90                   	nop
    6e93:	48 c7 05 aa 71 00 00 	movq   $0x0,0x71aa(%rip)        # e048 <g_58>
    6e9a:	00 00 00 00 
    6e9e:	e9 af 02 00 00       	jmpq   7152 <func_49+0x785>
    6ea3:	48 8d 85 d0 fb ff ff 	lea    -0x430(%rbp),%rax
    6eaa:	48 8d 15 8f 3c 00 00 	lea    0x3c8f(%rip),%rdx        # ab40 <g_889+0xade>
    6eb1:	b9 24 00 00 00       	mov    $0x24,%ecx
    6eb6:	48 89 c7             	mov    %rax,%rdi
    6eb9:	48 89 d6             	mov    %rdx,%rsi
    6ebc:	f3 48 a5             	rep movsq %ds:(%rsi),%es:(%rdi)
    6ebf:	48 8d 05 8a 8d 00 00 	lea    0x8d8a(%rip),%rax        # fc50 <g_136>
    6ec6:	48 89 85 98 fa ff ff 	mov    %rax,-0x568(%rbp)
    6ecd:	48 8d 85 98 fa ff ff 	lea    -0x568(%rbp),%rax
    6ed4:	48 89 85 a0 fa ff ff 	mov    %rax,-0x560(%rbp)
    6edb:	48 8d 85 a0 fa ff ff 	lea    -0x560(%rbp),%rax
    6ee2:	48 89 85 e8 fa ff ff 	mov    %rax,-0x518(%rbp)
    6ee9:	c7 85 70 fa ff ff 00 	movl   $0x0,-0x590(%rbp)
    6ef0:	00 00 00 
    6ef3:	eb 1a                	jmp    6f0f <func_49+0x542>
    6ef5:	8b 85 70 fa ff ff    	mov    -0x590(%rbp),%eax
    6efb:	48 98                	cltq   
    6efd:	c7 84 85 f8 fa ff ff 	movl   $0x0,-0x508(%rbp,%rax,4)
    6f04:	00 00 00 00 
    6f08:	83 85 70 fa ff ff 01 	addl   $0x1,-0x590(%rbp)
    6f0f:	83 bd 70 fa ff ff 01 	cmpl   $0x1,-0x590(%rbp)
    6f16:	7e dd                	jle    6ef5 <func_49+0x528>
    6f18:	48 8b 05 a1 72 00 00 	mov    0x72a1(%rip),%rax        # e1c0 <g_126+0x100>
    6f1f:	0f b7 d8             	movzwl %ax,%ebx
    6f22:	44 8b a5 5c fa ff ff 	mov    -0x5a4(%rbp),%r12d
    6f29:	44 8b ad 5c fa ff ff 	mov    -0x5a4(%rbp),%r13d
    6f30:	48 8b 85 50 fa ff ff 	mov    -0x5b0(%rbp),%rax
    6f37:	0f b7 00             	movzwl (%rax),%eax
    6f3a:	44 0f b7 f0          	movzwl %ax,%r14d
    6f3e:	48 8b 85 48 fa ff ff 	mov    -0x5b8(%rbp),%rax
    6f45:	0f b6 00             	movzbl (%rax),%eax
    6f48:	44 0f b6 f8          	movzbl %al,%r15d
    6f4c:	8b 85 2c fc ff ff    	mov    -0x3d4(%rbp),%eax
    6f52:	0f be c8             	movsbl %al,%ecx
    6f55:	0f b6 05 dc 70 00 00 	movzbl 0x70dc(%rip),%eax        # e038 <g_47>
    6f5c:	0f b6 d0             	movzbl %al,%edx
    6f5f:	48 8b 85 c8 fa ff ff 	mov    -0x538(%rbp),%rax
    6f66:	8b 00                	mov    (%rax),%eax
    6f68:	0f be c0             	movsbl %al,%eax
    6f6b:	48 8b b5 48 fa ff ff 	mov    -0x5b8(%rbp),%rsi
    6f72:	49 89 f0             	mov    %rsi,%r8
    6f75:	89 c6                	mov    %eax,%esi
    6f77:	bf ff ff ff ff       	mov    $0xffffffff,%edi
    6f7c:	e8 f0 05 00 00       	callq  7571 <func_83>
    6f81:	48 39 85 b8 fa ff ff 	cmp    %rax,-0x548(%rbp)
    6f88:	0f 94 c0             	sete   %al
    6f8b:	0f b6 c0             	movzbl %al,%eax
    6f8e:	41 39 c7             	cmp    %eax,%r15d
    6f91:	0f 9d c0             	setge  %al
    6f94:	0f b6 c0             	movzbl %al,%eax
    6f97:	44 89 f6             	mov    %r14d,%esi
    6f9a:	89 c7                	mov    %eax,%edi
    6f9c:	e8 bb cd ff ff       	callq  3d5c <safe_mod_func_uint16_t_u_u>
    6fa1:	0f b7 d0             	movzwl %ax,%edx
    6fa4:	48 8b 05 15 72 00 00 	mov    0x7215(%rip),%rax        # e1c0 <g_126+0x100>
    6fab:	48 39 c2             	cmp    %rax,%rdx
    6fae:	0f 93 c0             	setae  %al
    6fb1:	0f b6 d0             	movzbl %al,%edx
    6fb4:	48 8b 05 3d 77 00 00 	mov    0x773d(%rip),%rax        # e6f8 <g_126+0x638>
    6fbb:	48 39 c2             	cmp    %rax,%rdx
    6fbe:	0f 93 c0             	setae  %al
    6fc1:	0f b6 d0             	movzbl %al,%edx
    6fc4:	8b 85 5c fa ff ff    	mov    -0x5a4(%rbp),%eax
    6fca:	89 d6                	mov    %edx,%esi
    6fcc:	89 c7                	mov    %eax,%edi
    6fce:	e8 e3 c5 ff ff       	callq  35b6 <safe_add_func_int32_t_s_s>
    6fd3:	44 89 ee             	mov    %r13d,%esi
    6fd6:	89 c7                	mov    %eax,%edi
    6fd8:	e8 28 c6 ff ff       	callq  3605 <safe_sub_func_int32_t_s_s>
    6fdd:	39 85 5c fa ff ff    	cmp    %eax,-0x5a4(%rbp)
    6fe3:	0f 93 c0             	setae  %al
    6fe6:	0f b6 d0             	movzbl %al,%edx
    6fe9:	8b 05 b9 79 00 00    	mov    0x79b9(%rip),%eax        # e9a8 <g_194+0x8>
    6fef:	09 d0                	or     %edx,%eax
    6ff1:	48 63 d0             	movslq %eax,%rdx
    6ff4:	48 8b 05 45 79 00 00 	mov    0x7945(%rip),%rax        # e940 <g_160+0xe0>
    6ffb:	48 21 d0             	and    %rdx,%rax
    6ffe:	48 83 f8 08          	cmp    $0x8,%rax
    7002:	0f 96 c0             	setbe  %al
    7005:	0f b6 c0             	movzbl %al,%eax
    7008:	44 89 e6             	mov    %r12d,%esi
    700b:	89 c7                	mov    %eax,%edi
    700d:	e8 f3 c5 ff ff       	callq  3605 <safe_sub_func_int32_t_s_s>
    7012:	89 de                	mov    %ebx,%esi
    7014:	bf 24 a2 00 00       	mov    $0xa224,%edi
    7019:	e8 70 cd ff ff       	callq  3d8e <safe_div_func_uint16_t_u_u>
    701e:	0f b7 c0             	movzwl %ax,%eax
    7021:	39 85 5c fa ff ff    	cmp    %eax,-0x5a4(%rbp)
    7027:	0f 92 c0             	setb   %al
    702a:	0f b6 d0             	movzbl %al,%edx
    702d:	48 8b 85 c8 fa ff ff 	mov    -0x538(%rbp),%rax
    7034:	89 10                	mov    %edx,(%rax)
    7036:	83 bd 5c fa ff ff 00 	cmpl   $0x0,-0x5a4(%rbp)
    703d:	0f 85 fc 00 00 00    	jne    713f <func_49+0x772>
    7043:	66 c7 05 08 70 00 00 	movw   $0x0,0x7008(%rip)        # e054 <g_89>
    704a:	00 00 
    704c:	e9 dc 00 00 00       	jmpq   712d <func_49+0x760>
    7051:	c7 85 88 fa ff ff bb 	movl   $0x78d6e3bb,-0x578(%rbp)
    7058:	e3 d6 78 
    705b:	c7 85 8c fa ff ff 49 	movl   $0x8c3e5849,-0x574(%rbp)
    7062:	58 3e 8c 
    7065:	c7 85 90 fa ff ff fa 	movl   $0xfffffffa,-0x570(%rbp)
    706c:	ff ff ff 
    706f:	c7 85 94 fa ff ff ff 	movl   $0xffffffff,-0x56c(%rbp)
    7076:	ff ff ff 
    7079:	48 c7 85 f0 fa ff ff 	movq   $0x0,-0x510(%rbp)
    7080:	00 00 00 00 
    7084:	c7 85 74 fa ff ff 00 	movl   $0x0,-0x58c(%rbp)
    708b:	00 00 00 
    708e:	eb 7f                	jmp    710f <func_49+0x742>
    7090:	c7 85 78 fa ff ff 00 	movl   $0x0,-0x588(%rbp)
    7097:	00 00 00 
    709a:	eb 63                	jmp    70ff <func_49+0x732>
    709c:	c7 85 7c fa ff ff 00 	movl   $0x0,-0x584(%rbp)
    70a3:	00 00 00 
    70a6:	eb 47                	jmp    70ef <func_49+0x722>
    70a8:	8b 85 7c fa ff ff    	mov    -0x584(%rbp),%eax
    70ae:	48 63 f0             	movslq %eax,%rsi
    70b1:	8b 85 78 fa ff ff    	mov    -0x588(%rbp),%eax
    70b7:	48 63 c8             	movslq %eax,%rcx
    70ba:	8b 85 74 fa ff ff    	mov    -0x58c(%rbp),%eax
    70c0:	48 63 d0             	movslq %eax,%rdx
    70c3:	48 89 d0             	mov    %rdx,%rax
    70c6:	48 01 c0             	add    %rax,%rax
    70c9:	48 01 d0             	add    %rdx,%rax
    70cc:	48 01 c0             	add    %rax,%rax
    70cf:	48 01 f0             	add    %rsi,%rax
    70d2:	48 01 c8             	add    %rcx,%rax
    70d5:	48 8d 95 80 fb ff ff 	lea    -0x480(%rbp),%rdx
    70dc:	48 83 c2 30          	add    $0x30,%rdx
    70e0:	48 89 94 c5 50 fb ff 	mov    %rdx,-0x4b0(%rbp,%rax,8)
    70e7:	ff 
    70e8:	83 85 7c fa ff ff 01 	addl   $0x1,-0x584(%rbp)
    70ef:	83 bd 7c fa ff ff 00 	cmpl   $0x0,-0x584(%rbp)
    70f6:	7e b0                	jle    70a8 <func_49+0x6db>
    70f8:	83 85 78 fa ff ff 01 	addl   $0x1,-0x588(%rbp)
    70ff:	83 bd 78 fa ff ff 05 	cmpl   $0x5,-0x588(%rbp)
    7106:	7e 94                	jle    709c <func_49+0x6cf>
    7108:	83 85 74 fa ff ff 01 	addl   $0x1,-0x58c(%rbp)
    710f:	83 bd 74 fa ff ff 00 	cmpl   $0x0,-0x58c(%rbp)
    7116:	0f 8e 74 ff ff ff    	jle    7090 <func_49+0x6c3>
    711c:	0f b7 05 31 6f 00 00 	movzwl 0x6f31(%rip),%eax        # e054 <g_89>
    7123:	83 c0 01             	add    $0x1,%eax
    7126:	66 89 05 27 6f 00 00 	mov    %ax,0x6f27(%rip)        # e054 <g_89>
    712d:	0f b7 05 20 6f 00 00 	movzwl 0x6f20(%rip),%eax        # e054 <g_89>
    7134:	66 85 c0             	test   %ax,%ax
    7137:	0f 84 14 ff ff ff    	je     7051 <func_49+0x684>
    713d:	eb 01                	jmp    7140 <func_49+0x773>
    713f:	90                   	nop
    7140:	48 8b 05 01 6f 00 00 	mov    0x6f01(%rip),%rax        # e048 <g_58>
    7147:	48 83 e8 01          	sub    $0x1,%rax
    714b:	48 89 05 f6 6e 00 00 	mov    %rax,0x6ef6(%rip)        # e048 <g_58>
    7152:	48 8b 05 ef 6e 00 00 	mov    0x6eef(%rip),%rax        # e048 <g_58>
    7159:	48 85 c0             	test   %rax,%rax
    715c:	0f 89 41 fd ff ff    	jns    6ea3 <func_49+0x4d6>
    7162:	0f b6 05 cf 6e 00 00 	movzbl 0x6ecf(%rip),%eax        # e038 <g_47>
    7169:	83 c0 01             	add    $0x1,%eax
    716c:	88 05 c6 6e 00 00    	mov    %al,0x6ec6(%rip)        # e038 <g_47>
    7172:	0f b6 05 bf 6e 00 00 	movzbl 0x6ebf(%rip),%eax        # e038 <g_47>
    7179:	84 c0                	test   %al,%al
    717b:	0f 84 a6 f9 ff ff    	je     6b27 <func_49+0x15a>
    7181:	8b 85 5c fa ff ff    	mov    -0x5a4(%rbp),%eax
    7187:	48 8b 5d c8          	mov    -0x38(%rbp),%rbx
    718b:	64 48 33 1c 25 28 00 	xor    %fs:0x28,%rbx
    7192:	00 00 
    7194:	74 05                	je     719b <func_49+0x7ce>
    7196:	e8 d5 be ff ff       	callq  3070 <__stack_chk_fail@plt>
    719b:	48 81 c4 98 05 00 00 	add    $0x598,%rsp
    71a2:	5b                   	pop    %rbx
    71a3:	41 5c                	pop    %r12
    71a5:	41 5d                	pop    %r13
    71a7:	41 5e                	pop    %r14
    71a9:	41 5f                	pop    %r15
    71ab:	5d                   	pop    %rbp
    71ac:	c3                   	retq   

00000000000071ad <func_74>:
    71ad:	f3 0f 1e fa          	endbr64 
    71b1:	55                   	push   %rbp
    71b2:	48 89 e5             	mov    %rsp,%rbp
    71b5:	53                   	push   %rbx
    71b6:	48 81 ec d8 01 00 00 	sub    $0x1d8,%rsp
    71bd:	48 89 bd 28 fe ff ff 	mov    %rdi,-0x1d8(%rbp)
    71c4:	89 b5 24 fe ff ff    	mov    %esi,-0x1dc(%rbp)
    71ca:	89 95 20 fe ff ff    	mov    %edx,-0x1e0(%rbp)
    71d0:	64 48 8b 04 25 28 00 	mov    %fs:0x28,%rax
    71d7:	00 00 
    71d9:	48 89 45 e8          	mov    %rax,-0x18(%rbp)
    71dd:	31 c0                	xor    %eax,%eax
    71df:	48 c7 85 48 fe ff ff 	movq   $0xfffffffffffffff8,-0x1b8(%rbp)
    71e6:	f8 ff ff ff 
    71ea:	48 8d 05 b7 77 00 00 	lea    0x77b7(%rip),%rax        # e9a8 <g_194+0x8>
    71f1:	48 89 85 50 fe ff ff 	mov    %rax,-0x1b0(%rbp)
    71f8:	c7 85 34 fe ff ff 19 	movl   $0x7767ce19,-0x1cc(%rbp)
    71ff:	ce 67 77 
    7202:	c7 85 38 fe ff ff 01 	movl   $0x1,-0x1c8(%rbp)
    7209:	00 00 00 
    720c:	48 8d 05 8d 77 00 00 	lea    0x778d(%rip),%rax        # e9a0 <g_194>
    7213:	48 89 85 58 fe ff ff 	mov    %rax,-0x1a8(%rbp)
    721a:	48 8d 85 38 fe ff ff 	lea    -0x1c8(%rbp),%rax
    7221:	48 89 85 60 fe ff ff 	mov    %rax,-0x1a0(%rbp)
    7228:	48 8d 05 79 77 00 00 	lea    0x7779(%rip),%rax        # e9a8 <g_194+0x8>
    722f:	48 89 85 68 fe ff ff 	mov    %rax,-0x198(%rbp)
    7236:	48 8d 85 34 fe ff ff 	lea    -0x1cc(%rbp),%rax
    723d:	48 89 85 70 fe ff ff 	mov    %rax,-0x190(%rbp)
    7244:	48 8d 05 e1 6d 00 00 	lea    0x6de1(%rip),%rax        # e02c <g_21>
    724b:	48 89 85 78 fe ff ff 	mov    %rax,-0x188(%rbp)
    7252:	48 8d 85 c0 fe ff ff 	lea    -0x140(%rbp),%rax
    7259:	48 8d 15 00 3a 00 00 	lea    0x3a00(%rip),%rdx        # ac60 <g_889+0xbfe>
    7260:	b9 24 00 00 00       	mov    $0x24,%ecx
    7265:	48 89 c7             	mov    %rax,%rdi
    7268:	48 89 d6             	mov    %rdx,%rsi
    726b:	f3 48 a5             	rep movsq %ds:(%rsi),%es:(%rdi)
    726e:	c7 85 44 fe ff ff 01 	movl   $0x1,-0x1bc(%rbp)
    7275:	00 00 00 
    7278:	48 c7 85 80 fe ff ff 	movq   $0xfffffffffffffffa,-0x180(%rbp)
    727f:	fa ff ff ff 
    7283:	48 8d 05 2e 83 00 00 	lea    0x832e(%rip),%rax        # f5b8 <g_239>
    728a:	48 89 85 88 fe ff ff 	mov    %rax,-0x178(%rbp)
    7291:	48 8d 05 e8 76 00 00 	lea    0x76e8(%rip),%rax        # e980 <g_189>
    7298:	48 89 85 90 fe ff ff 	mov    %rax,-0x170(%rbp)
    729f:	48 8d 05 a2 89 00 00 	lea    0x89a2(%rip),%rax        # fc48 <g_110>
    72a6:	48 89 85 98 fe ff ff 	mov    %rax,-0x168(%rbp)
    72ad:	c7 85 3c fe ff ff 00 	movl   $0x0,-0x1c4(%rbp)
    72b4:	00 00 00 
    72b7:	eb 1b                	jmp    72d4 <func_74+0x127>
    72b9:	8b 85 3c fe ff ff    	mov    -0x1c4(%rbp),%eax
    72bf:	48 98                	cltq   
    72c1:	48 c7 84 c5 a0 fe ff 	movq   $0x0,-0x160(%rbp,%rax,8)
    72c8:	ff 00 00 00 00 
    72cd:	83 85 3c fe ff ff 01 	addl   $0x1,-0x1c4(%rbp)
    72d4:	83 bd 3c fe ff ff 01 	cmpl   $0x1,-0x1c4(%rbp)
    72db:	7e dc                	jle    72b9 <func_74+0x10c>
    72dd:	c7 85 3c fe ff ff 00 	movl   $0x0,-0x1c4(%rbp)
    72e4:	00 00 00 
    72e7:	eb 49                	jmp    7332 <func_74+0x185>
    72e9:	c7 85 40 fe ff ff 00 	movl   $0x0,-0x1c0(%rbp)
    72f0:	00 00 00 
    72f3:	eb 2d                	jmp    7322 <func_74+0x175>
    72f5:	8b 85 40 fe ff ff    	mov    -0x1c0(%rbp),%eax
    72fb:	48 98                	cltq   
    72fd:	8b 95 3c fe ff ff    	mov    -0x1c4(%rbp),%edx
    7303:	48 63 d2             	movslq %edx,%rdx
    7306:	48 01 d2             	add    %rdx,%rdx
    7309:	48 01 d0             	add    %rdx,%rax
    730c:	48 8d 15 41 6d 00 00 	lea    0x6d41(%rip),%rdx        # e054 <g_89>
    7313:	48 89 94 c5 b0 fe ff 	mov    %rdx,-0x150(%rbp,%rax,8)
    731a:	ff 
    731b:	83 85 40 fe ff ff 01 	addl   $0x1,-0x1c0(%rbp)
    7322:	83 bd 40 fe ff ff 01 	cmpl   $0x1,-0x1c0(%rbp)
    7329:	7e ca                	jle    72f5 <func_74+0x148>
    732b:	83 85 3c fe ff ff 01 	addl   $0x1,-0x1c4(%rbp)
    7332:	83 bd 3c fe ff ff 00 	cmpl   $0x0,-0x1c4(%rbp)
    7339:	7e ae                	jle    72e9 <func_74+0x13c>
    733b:	48 c7 05 fa 6c 00 00 	movq   $0x0,0x6cfa(%rip)        # e040 <g_57>
    7342:	00 00 00 00 
    7346:	90                   	nop
    7347:	48 8b 05 f2 6c 00 00 	mov    0x6cf2(%rip),%rax        # e040 <g_57>
    734e:	48 83 f8 f7          	cmp    $0xfffffffffffffff7,%rax
    7352:	7c 0c                	jl     7360 <func_74+0x1b3>
    7354:	48 8b 85 48 fe ff ff 	mov    -0x1b8(%rbp),%rax
    735b:	e9 95 01 00 00       	jmpq   74f5 <func_74+0x348>
    7360:	48 83 85 80 fe ff ff 	addq   $0x1,-0x180(%rbp)
    7367:	01 
    7368:	8b 85 24 fe ff ff    	mov    -0x1dc(%rbp),%eax
    736e:	0f b6 c0             	movzbl %al,%eax
    7371:	be 03 00 00 00       	mov    $0x3,%esi
    7376:	89 c7                	mov    %eax,%edi
    7378:	e8 cf c8 ff ff       	callq  3c4c <safe_lshift_func_uint8_t_u_u>
    737d:	84 c0                	test   %al,%al
    737f:	0f 85 00 01 00 00    	jne    7485 <func_74+0x2d8>
    7385:	8b 85 20 fe ff ff    	mov    -0x1e0(%rbp),%eax
    738b:	89 c3                	mov    %eax,%ebx
    738d:	48 8b 85 78 fe ff ff 	mov    -0x188(%rbp),%rax
    7394:	8b 00                	mov    (%rax),%eax
    7396:	39 85 24 fe ff ff    	cmp    %eax,-0x1dc(%rbp)
    739c:	0f 95 c0             	setne  %al
    739f:	0f b6 c0             	movzbl %al,%eax
    73a2:	66 89 05 ab 6c 00 00 	mov    %ax,0x6cab(%rip)        # e054 <g_89>
    73a9:	0f b7 05 a4 6c 00 00 	movzwl 0x6ca4(%rip),%eax        # e054 <g_89>
    73b0:	66 89 05 0d 76 00 00 	mov    %ax,0x760d(%rip)        # e9c4 <g_251>
    73b7:	0f b7 05 06 76 00 00 	movzwl 0x7606(%rip),%eax        # e9c4 <g_251>
    73be:	0f bf d0             	movswl %ax,%edx
    73c1:	8b 85 20 fe ff ff    	mov    -0x1e0(%rbp),%eax
    73c7:	98                   	cwtl   
    73c8:	89 d6                	mov    %edx,%esi
    73ca:	89 c7                	mov    %eax,%edi
    73cc:	e8 e2 bf ff ff       	callq  33b3 <safe_add_func_int16_t_s_s>
    73d1:	98                   	cwtl   
    73d2:	be 01 21 29 28       	mov    $0x28292101,%esi
    73d7:	89 c7                	mov    %eax,%edi
    73d9:	e8 27 c2 ff ff       	callq  3605 <safe_sub_func_int32_t_s_s>
    73de:	8b 95 24 fe ff ff    	mov    -0x1dc(%rbp),%edx
    73e4:	8b 85 24 fe ff ff    	mov    -0x1dc(%rbp),%eax
    73ea:	48 89 d6             	mov    %rdx,%rsi
    73ed:	48 89 c7             	mov    %rax,%rdi
    73f0:	e8 bf c5 ff ff       	callq  39b4 <safe_mod_func_int64_t_s_s>
    73f5:	98                   	cwtl   
    73f6:	89 de                	mov    %ebx,%esi
    73f8:	89 c7                	mov    %eax,%edi
    73fa:	e8 e2 c0 ff ff       	callq  34e1 <safe_lshift_func_int16_t_s_u>
    73ff:	0f b6 d0             	movzbl %al,%edx
    7402:	48 8b 0d af 81 00 00 	mov    0x81af(%rip),%rcx        # f5b8 <g_239>
    7409:	48 8b 85 88 fe ff ff 	mov    -0x178(%rbp),%rax
    7410:	48 89 08             	mov    %rcx,(%rax)
    7413:	48 8b 85 88 fe ff ff 	mov    -0x178(%rbp),%rax
    741a:	48 8b 00             	mov    (%rax),%rax
    741d:	48 8d 0d 6c 81 00 00 	lea    0x816c(%rip),%rcx        # f590 <g_240+0x10>
    7424:	48 39 c8             	cmp    %rcx,%rax
    7427:	0f 94 c0             	sete   %al
    742a:	0f b6 c0             	movzbl %al,%eax
    742d:	89 d6                	mov    %edx,%esi
    742f:	89 c7                	mov    %eax,%edi
    7431:	e8 78 c7 ff ff       	callq  3bae <safe_mod_func_uint8_t_u_u>
    7436:	48 8b 95 90 fe ff ff 	mov    -0x170(%rbp),%rdx
    743d:	88 02                	mov    %al,(%rdx)
    743f:	48 8b 85 90 fe ff ff 	mov    -0x170(%rbp),%rax
    7446:	0f b6 10             	movzbl (%rax),%edx
    7449:	48 8b 85 98 fe ff ff 	mov    -0x168(%rbp),%rax
    7450:	0f b6 00             	movzbl (%rax),%eax
    7453:	09 c2                	or     %eax,%edx
    7455:	48 8b 85 98 fe ff ff 	mov    -0x168(%rbp),%rax
    745c:	88 10                	mov    %dl,(%rax)
    745e:	48 8b 85 98 fe ff ff 	mov    -0x168(%rbp),%rax
    7465:	0f b6 00             	movzbl (%rax),%eax
    7468:	84 c0                	test   %al,%al
    746a:	75 07                	jne    7473 <func_74+0x2c6>
    746c:	ba 20 00 00 00       	mov    $0x20,%edx
    7471:	eb 05                	jmp    7478 <func_74+0x2cb>
    7473:	ba 21 00 00 00       	mov    $0x21,%edx
    7478:	8b 05 2e 75 00 00    	mov    0x752e(%rip),%eax        # e9ac <g_194+0xc>
    747e:	48 98                	cltq   
    7480:	48 39 c2             	cmp    %rax,%rdx
    7483:	74 07                	je     748c <func_74+0x2df>
    7485:	b8 01 00 00 00       	mov    $0x1,%eax
    748a:	eb 05                	jmp    7491 <func_74+0x2e4>
    748c:	b8 00 00 00 00       	mov    $0x0,%eax
    7491:	be fe ff ff ff       	mov    $0xfffffffe,%esi
    7496:	89 c7                	mov    %eax,%edi
    7498:	e8 2f c2 ff ff       	callq  36cc <safe_mod_func_int32_t_s_s>
    749d:	48 8b 95 70 fe ff ff 	mov    -0x190(%rbp),%rdx
    74a4:	89 02                	mov    %eax,(%rdx)
    74a6:	83 bd 24 fe ff ff 00 	cmpl   $0x0,-0x1dc(%rbp)
    74ad:	75 1f                	jne    74ce <func_74+0x321>
    74af:	48 8b 85 78 fe ff ff 	mov    -0x188(%rbp),%rax
    74b6:	8b 10                	mov    (%rax),%edx
    74b8:	48 8b 85 58 fe ff ff 	mov    -0x1a8(%rbp),%rax
    74bf:	89 10                	mov    %edx,(%rax)
    74c1:	48 8b 85 58 fe ff ff 	mov    -0x1a8(%rbp),%rax
    74c8:	8b 00                	mov    (%rax),%eax
    74ca:	85 c0                	test   %eax,%eax
    74cc:	74 07                	je     74d5 <func_74+0x328>
    74ce:	ba 01 00 00 00       	mov    $0x1,%edx
    74d3:	eb 05                	jmp    74da <func_74+0x32d>
    74d5:	ba 00 00 00 00       	mov    $0x0,%edx
    74da:	48 8b 85 70 fe ff ff 	mov    -0x190(%rbp),%rax
    74e1:	8b 00                	mov    (%rax),%eax
    74e3:	21 c2                	and    %eax,%edx
    74e5:	48 8b 85 70 fe ff ff 	mov    -0x190(%rbp),%rax
    74ec:	89 10                	mov    %edx,(%rax)
    74ee:	48 8b 05 4b 74 00 00 	mov    0x744b(%rip),%rax        # e940 <g_160+0xe0>
    74f5:	48 8b 5d e8          	mov    -0x18(%rbp),%rbx
    74f9:	64 48 33 1c 25 28 00 	xor    %fs:0x28,%rbx
    7500:	00 00 
    7502:	74 05                	je     7509 <func_74+0x35c>
    7504:	e8 67 bb ff ff       	callq  3070 <__stack_chk_fail@plt>
    7509:	48 81 c4 d8 01 00 00 	add    $0x1d8,%rsp
    7510:	5b                   	pop    %rbx
    7511:	5d                   	pop    %rbp
    7512:	c3                   	retq   

0000000000007513 <func_78>:
    7513:	f3 0f 1e fa          	endbr64 
    7517:	55                   	push   %rbp
    7518:	48 89 e5             	mov    %rsp,%rbp
    751b:	48 89 7d d8          	mov    %rdi,-0x28(%rbp)
    751f:	48 89 75 d0          	mov    %rsi,-0x30(%rbp)
    7523:	48 89 55 c8          	mov    %rdx,-0x38(%rbp)
    7527:	89 c8                	mov    %ecx,%eax
    7529:	66 89 45 c4          	mov    %ax,-0x3c(%rbp)
    752d:	c6 45 ef ef          	movb   $0xef,-0x11(%rbp)
    7531:	48 8d 05 70 74 00 00 	lea    0x7470(%rip),%rax        # e9a8 <g_194+0x8>
    7538:	48 89 45 f0          	mov    %rax,-0x10(%rbp)
    753c:	48 c7 45 f8 00 00 00 	movq   $0x0,-0x8(%rbp)
    7543:	00 
    7544:	0f be 55 ef          	movsbl -0x11(%rbp),%edx
    7548:	48 8b 45 f0          	mov    -0x10(%rbp),%rax
    754c:	89 10                	mov    %edx,(%rax)
    754e:	48 8b 45 f0          	mov    -0x10(%rbp),%rax
    7552:	8b 00                	mov    (%rax),%eax
    7554:	89 05 d2 6a 00 00    	mov    %eax,0x6ad2(%rip)        # e02c <g_21>
    755a:	48 8b 05 ff 7f 00 00 	mov    0x7fff(%rip),%rax        # f560 <g_135>
    7561:	48 8b 55 f8          	mov    -0x8(%rbp),%rdx
    7565:	48 89 10             	mov    %rdx,(%rax)
    7568:	48 8d 05 e1 86 00 00 	lea    0x86e1(%rip),%rax        # fc50 <g_136>
    756f:	5d                   	pop    %rbp
    7570:	c3                   	retq   

0000000000007571 <func_83>:
    7571:	f3 0f 1e fa          	endbr64 
    7575:	55                   	push   %rbp
    7576:	48 89 e5             	mov    %rsp,%rbp
    7579:	48 83 ec 70          	sub    $0x70,%rsp
    757d:	89 7d ac             	mov    %edi,-0x54(%rbp)
    7580:	89 55 a4             	mov    %edx,-0x5c(%rbp)
    7583:	89 c8                	mov    %ecx,%eax
    7585:	4c 89 45 98          	mov    %r8,-0x68(%rbp)
    7589:	89 f2                	mov    %esi,%edx
    758b:	88 55 a8             	mov    %dl,-0x58(%rbp)
    758e:	88 45 a0             	mov    %al,-0x60(%rbp)
    7591:	64 48 8b 04 25 28 00 	mov    %fs:0x28,%rax
    7598:	00 00 
    759a:	48 89 45 f8          	mov    %rax,-0x8(%rbp)
    759e:	31 c0                	xor    %eax,%eax
    75a0:	48 8d 05 a9 86 00 00 	lea    0x86a9(%rip),%rax        # fc50 <g_136>
    75a7:	48 89 45 b0          	mov    %rax,-0x50(%rbp)
    75ab:	48 8d 05 9e 86 00 00 	lea    0x869e(%rip),%rax        # fc50 <g_136>
    75b2:	48 89 45 b8          	mov    %rax,-0x48(%rbp)
    75b6:	48 8d 05 93 86 00 00 	lea    0x8693(%rip),%rax        # fc50 <g_136>
    75bd:	48 89 45 c0          	mov    %rax,-0x40(%rbp)
    75c1:	48 8d 05 88 86 00 00 	lea    0x8688(%rip),%rax        # fc50 <g_136>
    75c8:	48 89 45 c8          	mov    %rax,-0x38(%rbp)
    75cc:	48 8d 05 7d 86 00 00 	lea    0x867d(%rip),%rax        # fc50 <g_136>
    75d3:	48 89 45 d0          	mov    %rax,-0x30(%rbp)
    75d7:	48 8d 05 72 86 00 00 	lea    0x8672(%rip),%rax        # fc50 <g_136>
    75de:	48 89 45 d8          	mov    %rax,-0x28(%rbp)
    75e2:	48 8d 05 67 86 00 00 	lea    0x8667(%rip),%rax        # fc50 <g_136>
    75e9:	48 89 45 e0          	mov    %rax,-0x20(%rbp)
    75ed:	48 8d 05 5c 86 00 00 	lea    0x865c(%rip),%rax        # fc50 <g_136>
    75f4:	48 89 45 e8          	mov    %rax,-0x18(%rbp)
    75f8:	48 8d 05 51 86 00 00 	lea    0x8651(%rip),%rax        # fc50 <g_136>
    75ff:	48 89 45 f0          	mov    %rax,-0x10(%rbp)
    7603:	48 8b 45 b0          	mov    -0x50(%rbp),%rax
    7607:	48 8b 4d f8          	mov    -0x8(%rbp),%rcx
    760b:	64 48 33 0c 25 28 00 	xor    %fs:0x28,%rcx
    7612:	00 00 
    7614:	74 05                	je     761b <func_83+0xaa>
    7616:	e8 55 ba ff ff       	callq  3070 <__stack_chk_fail@plt>
    761b:	c9                   	leaveq 
    761c:	c3                   	retq   

000000000000761d <func_90>:
    761d:	f3 0f 1e fa          	endbr64 
    7621:	55                   	push   %rbp
    7622:	48 89 e5             	mov    %rsp,%rbp
    7625:	41 55                	push   %r13
    7627:	41 54                	push   %r12
    7629:	53                   	push   %rbx
    762a:	48 81 ec 00 10 00 00 	sub    $0x1000,%rsp
    7631:	48 83 0c 24 00       	orq    $0x0,(%rsp)
    7636:	48 81 ec 68 01 00 00 	sub    $0x168,%rsp
    763d:	48 89 bd 88 ee ff ff 	mov    %rdi,-0x1178(%rbp)
    7644:	64 48 8b 04 25 28 00 	mov    %fs:0x28,%rax
    764b:	00 00 
    764d:	48 89 45 d8          	mov    %rax,-0x28(%rbp)
    7651:	31 c0                	xor    %eax,%eax
    7653:	48 8d 85 80 f0 ff ff 	lea    -0xf80(%rbp),%rax
    765a:	48 8d 15 1f 37 00 00 	lea    0x371f(%rip),%rdx        # ad80 <g_889+0xd1e>
    7661:	b9 28 00 00 00       	mov    $0x28,%ecx
    7666:	48 89 c7             	mov    %rax,%rdi
    7669:	48 89 d6             	mov    %rdx,%rsi
    766c:	f3 48 a5             	rep movsq %ds:(%rsi),%es:(%rdi)
    766f:	c7 85 9c ee ff ff b5 	movl   $0xa9e323b5,-0x1164(%rbp)
    7676:	23 e3 a9 
    7679:	48 8d 05 a8 69 00 00 	lea    0x69a8(%rip),%rax        # e028 <g_17>
    7680:	48 89 85 c0 f1 ff ff 	mov    %rax,-0xe40(%rbp)
    7687:	48 8d 85 9c ee ff ff 	lea    -0x1164(%rbp),%rax
    768e:	48 89 85 c8 f1 ff ff 	mov    %rax,-0xe38(%rbp)
    7695:	48 8d 85 9c ee ff ff 	lea    -0x1164(%rbp),%rax
    769c:	48 89 85 d0 f1 ff ff 	mov    %rax,-0xe30(%rbp)
    76a3:	48 8d 85 9c ee ff ff 	lea    -0x1164(%rbp),%rax
    76aa:	48 89 85 d8 f1 ff ff 	mov    %rax,-0xe28(%rbp)
    76b1:	48 8d 05 70 69 00 00 	lea    0x6970(%rip),%rax        # e028 <g_17>
    76b8:	48 89 85 e0 f1 ff ff 	mov    %rax,-0xe20(%rbp)
    76bf:	48 8d 85 9c ee ff ff 	lea    -0x1164(%rbp),%rax
    76c6:	48 89 85 e8 f1 ff ff 	mov    %rax,-0xe18(%rbp)
    76cd:	48 8d 05 54 69 00 00 	lea    0x6954(%rip),%rax        # e028 <g_17>
    76d4:	48 89 85 f0 f1 ff ff 	mov    %rax,-0xe10(%rbp)
    76db:	48 8d 05 4a 69 00 00 	lea    0x694a(%rip),%rax        # e02c <g_21>
    76e2:	48 89 85 f8 f1 ff ff 	mov    %rax,-0xe08(%rbp)
    76e9:	48 c7 85 00 f2 ff ff 	movq   $0x0,-0xe00(%rbp)
    76f0:	00 00 00 00 
    76f4:	48 8d 85 9c ee ff ff 	lea    -0x1164(%rbp),%rax
    76fb:	48 89 85 08 f2 ff ff 	mov    %rax,-0xdf8(%rbp)
    7702:	48 c7 85 10 f2 ff ff 	movq   $0x0,-0xdf0(%rbp)
    7709:	00 00 00 00 
    770d:	48 c7 85 18 f2 ff ff 	movq   $0x0,-0xde8(%rbp)
    7714:	00 00 00 00 
    7718:	48 8d 85 9c ee ff ff 	lea    -0x1164(%rbp),%rax
    771f:	48 89 85 20 f2 ff ff 	mov    %rax,-0xde0(%rbp)
    7726:	48 8d 85 9c ee ff ff 	lea    -0x1164(%rbp),%rax
    772d:	48 89 85 28 f2 ff ff 	mov    %rax,-0xdd8(%rbp)
    7734:	48 8d 85 9c ee ff ff 	lea    -0x1164(%rbp),%rax
    773b:	48 89 85 30 f2 ff ff 	mov    %rax,-0xdd0(%rbp)
    7742:	48 c7 85 38 f2 ff ff 	movq   $0x0,-0xdc8(%rbp)
    7749:	00 00 00 00 
    774d:	48 c7 85 40 f2 ff ff 	movq   $0x0,-0xdc0(%rbp)
    7754:	00 00 00 00 
    7758:	48 8d 05 cd 68 00 00 	lea    0x68cd(%rip),%rax        # e02c <g_21>
    775f:	48 89 85 48 f2 ff ff 	mov    %rax,-0xdb8(%rbp)
    7766:	48 8d 05 bb 68 00 00 	lea    0x68bb(%rip),%rax        # e028 <g_17>
    776d:	48 89 85 50 f2 ff ff 	mov    %rax,-0xdb0(%rbp)
    7774:	48 8d 05 ad 68 00 00 	lea    0x68ad(%rip),%rax        # e028 <g_17>
    777b:	48 89 85 58 f2 ff ff 	mov    %rax,-0xda8(%rbp)
    7782:	48 8d 85 9c ee ff ff 	lea    -0x1164(%rbp),%rax
    7789:	48 89 85 60 f2 ff ff 	mov    %rax,-0xda0(%rbp)
    7790:	48 8d 05 95 68 00 00 	lea    0x6895(%rip),%rax        # e02c <g_21>
    7797:	48 89 85 68 f2 ff ff 	mov    %rax,-0xd98(%rbp)
    779e:	48 8d 85 9c ee ff ff 	lea    -0x1164(%rbp),%rax
    77a5:	48 89 85 70 f2 ff ff 	mov    %rax,-0xd90(%rbp)
    77ac:	48 8d 85 9c ee ff ff 	lea    -0x1164(%rbp),%rax
    77b3:	48 89 85 78 f2 ff ff 	mov    %rax,-0xd88(%rbp)
    77ba:	48 8d 05 6b 68 00 00 	lea    0x686b(%rip),%rax        # e02c <g_21>
    77c1:	48 89 85 80 f2 ff ff 	mov    %rax,-0xd80(%rbp)
    77c8:	48 8d 85 9c ee ff ff 	lea    -0x1164(%rbp),%rax
    77cf:	48 89 85 88 f2 ff ff 	mov    %rax,-0xd78(%rbp)
    77d6:	48 8d 85 9c ee ff ff 	lea    -0x1164(%rbp),%rax
    77dd:	48 89 85 90 f2 ff ff 	mov    %rax,-0xd70(%rbp)
    77e4:	48 c7 85 98 f2 ff ff 	movq   $0x0,-0xd68(%rbp)
    77eb:	00 00 00 00 
    77ef:	48 8d 05 36 68 00 00 	lea    0x6836(%rip),%rax        # e02c <g_21>
    77f6:	48 89 85 a0 f2 ff ff 	mov    %rax,-0xd60(%rbp)
    77fd:	48 8d 85 9c ee ff ff 	lea    -0x1164(%rbp),%rax
    7804:	48 89 85 a8 f2 ff ff 	mov    %rax,-0xd58(%rbp)
    780b:	48 c7 85 b0 f2 ff ff 	movq   $0x0,-0xd50(%rbp)
    7812:	00 00 00 00 
    7816:	48 8d 85 9c ee ff ff 	lea    -0x1164(%rbp),%rax
    781d:	48 89 85 b8 f2 ff ff 	mov    %rax,-0xd48(%rbp)
    7824:	48 8d 05 fd 67 00 00 	lea    0x67fd(%rip),%rax        # e028 <g_17>
    782b:	48 89 85 c0 f2 ff ff 	mov    %rax,-0xd40(%rbp)
    7832:	48 8d 85 9c ee ff ff 	lea    -0x1164(%rbp),%rax
    7839:	48 89 85 c8 f2 ff ff 	mov    %rax,-0xd38(%rbp)
    7840:	48 8d 85 9c ee ff ff 	lea    -0x1164(%rbp),%rax
    7847:	48 89 85 d0 f2 ff ff 	mov    %rax,-0xd30(%rbp)
    784e:	48 c7 85 d8 f2 ff ff 	movq   $0x0,-0xd28(%rbp)
    7855:	00 00 00 00 
    7859:	48 8d 05 c8 67 00 00 	lea    0x67c8(%rip),%rax        # e028 <g_17>
    7860:	48 89 85 e0 f2 ff ff 	mov    %rax,-0xd20(%rbp)
    7867:	48 c7 85 e8 f2 ff ff 	movq   $0x0,-0xd18(%rbp)
    786e:	00 00 00 00 
    7872:	48 8d 85 9c ee ff ff 	lea    -0x1164(%rbp),%rax
    7879:	48 89 85 f0 f2 ff ff 	mov    %rax,-0xd10(%rbp)
    7880:	48 c7 85 f8 f2 ff ff 	movq   $0x0,-0xd08(%rbp)
    7887:	00 00 00 00 
    788b:	48 8d 85 9c ee ff ff 	lea    -0x1164(%rbp),%rax
    7892:	48 89 85 00 f3 ff ff 	mov    %rax,-0xd00(%rbp)
    7899:	48 c7 85 08 f3 ff ff 	movq   $0x0,-0xcf8(%rbp)
    78a0:	00 00 00 00 
    78a4:	48 8d 05 81 67 00 00 	lea    0x6781(%rip),%rax        # e02c <g_21>
    78ab:	48 89 85 10 f3 ff ff 	mov    %rax,-0xcf0(%rbp)
    78b2:	48 8d 85 9c ee ff ff 	lea    -0x1164(%rbp),%rax
    78b9:	48 89 85 18 f3 ff ff 	mov    %rax,-0xce8(%rbp)
    78c0:	48 8d 05 65 67 00 00 	lea    0x6765(%rip),%rax        # e02c <g_21>
    78c7:	48 89 85 20 f3 ff ff 	mov    %rax,-0xce0(%rbp)
    78ce:	48 8d 85 9c ee ff ff 	lea    -0x1164(%rbp),%rax
    78d5:	48 89 85 28 f3 ff ff 	mov    %rax,-0xcd8(%rbp)
    78dc:	48 8d 05 49 67 00 00 	lea    0x6749(%rip),%rax        # e02c <g_21>
    78e3:	48 89 85 30 f3 ff ff 	mov    %rax,-0xcd0(%rbp)
    78ea:	48 8d 05 3b 67 00 00 	lea    0x673b(%rip),%rax        # e02c <g_21>
    78f1:	48 89 85 38 f3 ff ff 	mov    %rax,-0xcc8(%rbp)
    78f8:	48 8d 05 2d 67 00 00 	lea    0x672d(%rip),%rax        # e02c <g_21>
    78ff:	48 89 85 40 f3 ff ff 	mov    %rax,-0xcc0(%rbp)
    7906:	48 8d 05 1f 67 00 00 	lea    0x671f(%rip),%rax        # e02c <g_21>
    790d:	48 89 85 48 f3 ff ff 	mov    %rax,-0xcb8(%rbp)
    7914:	48 8d 85 9c ee ff ff 	lea    -0x1164(%rbp),%rax
    791b:	48 89 85 50 f3 ff ff 	mov    %rax,-0xcb0(%rbp)
    7922:	48 8d 05 ff 66 00 00 	lea    0x66ff(%rip),%rax        # e028 <g_17>
    7929:	48 89 85 58 f3 ff ff 	mov    %rax,-0xca8(%rbp)
    7930:	48 8d 85 9c ee ff ff 	lea    -0x1164(%rbp),%rax
    7937:	48 89 85 60 f3 ff ff 	mov    %rax,-0xca0(%rbp)
    793e:	48 8d 05 e7 66 00 00 	lea    0x66e7(%rip),%rax        # e02c <g_21>
    7945:	48 89 85 68 f3 ff ff 	mov    %rax,-0xc98(%rbp)
    794c:	c6 85 99 ee ff ff f7 	movb   $0xf7,-0x1167(%rbp)
    7953:	c7 05 cf 66 00 00 07 	movl   $0x7,0x66cf(%rip)        # e02c <g_21>
    795a:	00 00 00 
    795d:	e9 2f 14 00 00       	jmpq   8d91 <func_90+0x1774>
    7962:	c7 85 a8 ee ff ff d4 	movl   $0x5ed5a8d4,-0x1158(%rbp)
    7969:	a8 d5 5e 
    796c:	48 c7 85 d0 ee ff ff 	movq   $0x0,-0x1130(%rbp)
    7973:	00 00 00 00 
    7977:	8b 05 af 66 00 00    	mov    0x66af(%rip),%eax        # e02c <g_21>
    797d:	48 98                	cltq   
    797f:	48 8d 14 c5 00 00 00 	lea    0x0(,%rax,8),%rdx
    7986:	00 
    7987:	48 8d 05 d2 66 00 00 	lea    0x66d2(%rip),%rax        # e060 <g_93>
    798e:	48 01 d0             	add    %rdx,%rax
    7991:	48 89 85 d8 ee ff ff 	mov    %rax,-0x1128(%rbp)
    7998:	c7 85 ac ee ff ff ff 	movl   $0xffffffff,-0x1154(%rbp)
    799f:	ff ff ff 
    79a2:	48 8d 05 8f 66 00 00 	lea    0x668f(%rip),%rax        # e038 <g_47>
    79a9:	48 89 85 f0 ee ff ff 	mov    %rax,-0x1110(%rbp)
    79b0:	48 8d 05 e9 66 00 00 	lea    0x66e9(%rip),%rax        # e0a0 <g_119>
    79b7:	48 89 85 50 ef ff ff 	mov    %rax,-0x10b0(%rbp)
    79be:	48 8d 05 db 66 00 00 	lea    0x66db(%rip),%rax        # e0a0 <g_119>
    79c5:	48 89 85 58 ef ff ff 	mov    %rax,-0x10a8(%rbp)
    79cc:	48 8d 05 cd 66 00 00 	lea    0x66cd(%rip),%rax        # e0a0 <g_119>
    79d3:	48 89 85 60 ef ff ff 	mov    %rax,-0x10a0(%rbp)
    79da:	48 8d 05 bf 66 00 00 	lea    0x66bf(%rip),%rax        # e0a0 <g_119>
    79e1:	48 89 85 68 ef ff ff 	mov    %rax,-0x1098(%rbp)
    79e8:	48 8d 05 b1 66 00 00 	lea    0x66b1(%rip),%rax        # e0a0 <g_119>
    79ef:	48 89 85 70 ef ff ff 	mov    %rax,-0x1090(%rbp)
    79f6:	48 c7 85 70 f3 ff ff 	movq   $0x0,-0xc90(%rbp)
    79fd:	00 00 00 00 
    7a01:	48 8d 85 80 ef ff ff 	lea    -0x1080(%rbp),%rax
    7a08:	48 89 85 78 f3 ff ff 	mov    %rax,-0xc88(%rbp)
    7a0f:	48 8d 85 80 ef ff ff 	lea    -0x1080(%rbp),%rax
    7a16:	48 83 c0 10          	add    $0x10,%rax
    7a1a:	48 89 85 80 f3 ff ff 	mov    %rax,-0xc80(%rbp)
    7a21:	48 8d 85 80 ef ff ff 	lea    -0x1080(%rbp),%rax
    7a28:	48 83 c0 08          	add    $0x8,%rax
    7a2c:	48 89 85 88 f3 ff ff 	mov    %rax,-0xc78(%rbp)
    7a33:	48 c7 85 90 f3 ff ff 	movq   $0x0,-0xc70(%rbp)
    7a3a:	00 00 00 00 
    7a3e:	48 c7 85 98 f3 ff ff 	movq   $0x0,-0xc68(%rbp)
    7a45:	00 00 00 00 
    7a49:	48 8d 85 80 ef ff ff 	lea    -0x1080(%rbp),%rax
    7a50:	48 83 c0 10          	add    $0x10,%rax
    7a54:	48 89 85 a0 f3 ff ff 	mov    %rax,-0xc60(%rbp)
    7a5b:	48 8d 85 80 ef ff ff 	lea    -0x1080(%rbp),%rax
    7a62:	48 83 c0 08          	add    $0x8,%rax
    7a66:	48 89 85 a8 f3 ff ff 	mov    %rax,-0xc58(%rbp)
    7a6d:	48 8d 85 80 ef ff ff 	lea    -0x1080(%rbp),%rax
    7a74:	48 89 85 b0 f3 ff ff 	mov    %rax,-0xc50(%rbp)
    7a7b:	48 8d 85 80 ef ff ff 	lea    -0x1080(%rbp),%rax
    7a82:	48 83 c0 18          	add    $0x18,%rax
    7a86:	48 89 85 b8 f3 ff ff 	mov    %rax,-0xc48(%rbp)
    7a8d:	48 c7 85 c0 f3 ff ff 	movq   $0x0,-0xc40(%rbp)
    7a94:	00 00 00 00 
    7a98:	48 8d 85 80 ef ff ff 	lea    -0x1080(%rbp),%rax
    7a9f:	48 89 85 c8 f3 ff ff 	mov    %rax,-0xc38(%rbp)
    7aa6:	48 8d 85 80 ef ff ff 	lea    -0x1080(%rbp),%rax
    7aad:	48 83 c0 10          	add    $0x10,%rax
    7ab1:	48 89 85 d0 f3 ff ff 	mov    %rax,-0xc30(%rbp)
    7ab8:	48 c7 85 d8 f3 ff ff 	movq   $0x0,-0xc28(%rbp)
    7abf:	00 00 00 00 
    7ac3:	48 8d 85 80 ef ff ff 	lea    -0x1080(%rbp),%rax
    7aca:	48 83 c0 08          	add    $0x8,%rax
    7ace:	48 89 85 e0 f3 ff ff 	mov    %rax,-0xc20(%rbp)
    7ad5:	48 8d 85 80 ef ff ff 	lea    -0x1080(%rbp),%rax
    7adc:	48 89 85 e8 f3 ff ff 	mov    %rax,-0xc18(%rbp)
    7ae3:	48 8d 85 80 ef ff ff 	lea    -0x1080(%rbp),%rax
    7aea:	48 83 c0 10          	add    $0x10,%rax
    7aee:	48 89 85 f0 f3 ff ff 	mov    %rax,-0xc10(%rbp)
    7af5:	48 8d 85 80 ef ff ff 	lea    -0x1080(%rbp),%rax
    7afc:	48 83 c0 08          	add    $0x8,%rax
    7b00:	48 89 85 f8 f3 ff ff 	mov    %rax,-0xc08(%rbp)
    7b07:	48 8d 85 80 ef ff ff 	lea    -0x1080(%rbp),%rax
    7b0e:	48 89 85 00 f4 ff ff 	mov    %rax,-0xc00(%rbp)
    7b15:	48 8d 85 80 ef ff ff 	lea    -0x1080(%rbp),%rax
    7b1c:	48 83 c0 18          	add    $0x18,%rax
    7b20:	48 89 85 08 f4 ff ff 	mov    %rax,-0xbf8(%rbp)
    7b27:	48 8d 85 80 ef ff ff 	lea    -0x1080(%rbp),%rax
    7b2e:	48 83 c0 10          	add    $0x10,%rax
    7b32:	48 89 85 10 f4 ff ff 	mov    %rax,-0xbf0(%rbp)
    7b39:	48 8d 85 80 ef ff ff 	lea    -0x1080(%rbp),%rax
    7b40:	48 83 c0 08          	add    $0x8,%rax
    7b44:	48 89 85 18 f4 ff ff 	mov    %rax,-0xbe8(%rbp)
    7b4b:	48 8d 85 80 ef ff ff 	lea    -0x1080(%rbp),%rax
    7b52:	48 83 c0 10          	add    $0x10,%rax
    7b56:	48 89 85 20 f4 ff ff 	mov    %rax,-0xbe0(%rbp)
    7b5d:	48 8d 85 80 ef ff ff 	lea    -0x1080(%rbp),%rax
    7b64:	48 83 c0 10          	add    $0x10,%rax
    7b68:	48 89 85 28 f4 ff ff 	mov    %rax,-0xbd8(%rbp)
    7b6f:	48 8d 85 80 ef ff ff 	lea    -0x1080(%rbp),%rax
    7b76:	48 83 c0 08          	add    $0x8,%rax
    7b7a:	48 89 85 30 f4 ff ff 	mov    %rax,-0xbd0(%rbp)
    7b81:	48 8d 85 80 ef ff ff 	lea    -0x1080(%rbp),%rax
    7b88:	48 89 85 38 f4 ff ff 	mov    %rax,-0xbc8(%rbp)
    7b8f:	48 8d 85 80 ef ff ff 	lea    -0x1080(%rbp),%rax
    7b96:	48 83 c0 28          	add    $0x28,%rax
    7b9a:	48 89 85 40 f4 ff ff 	mov    %rax,-0xbc0(%rbp)
    7ba1:	48 8d 85 80 ef ff ff 	lea    -0x1080(%rbp),%rax
    7ba8:	48 83 c0 10          	add    $0x10,%rax
    7bac:	48 89 85 48 f4 ff ff 	mov    %rax,-0xbb8(%rbp)
    7bb3:	48 8d 85 80 ef ff ff 	lea    -0x1080(%rbp),%rax
    7bba:	48 83 c0 08          	add    $0x8,%rax
    7bbe:	48 89 85 50 f4 ff ff 	mov    %rax,-0xbb0(%rbp)
    7bc5:	48 8d 85 80 ef ff ff 	lea    -0x1080(%rbp),%rax
    7bcc:	48 83 c0 18          	add    $0x18,%rax
    7bd0:	48 89 85 58 f4 ff ff 	mov    %rax,-0xba8(%rbp)
    7bd7:	48 8d 85 80 ef ff ff 	lea    -0x1080(%rbp),%rax
    7bde:	48 83 c0 10          	add    $0x10,%rax
    7be2:	48 89 85 60 f4 ff ff 	mov    %rax,-0xba0(%rbp)
    7be9:	48 8d 85 80 ef ff ff 	lea    -0x1080(%rbp),%rax
    7bf0:	48 83 c0 08          	add    $0x8,%rax
    7bf4:	48 89 85 68 f4 ff ff 	mov    %rax,-0xb98(%rbp)
    7bfb:	48 c7 85 70 f4 ff ff 	movq   $0x0,-0xb90(%rbp)
    7c02:	00 00 00 00 
    7c06:	48 8d 85 80 ef ff ff 	lea    -0x1080(%rbp),%rax
    7c0d:	48 83 c0 10          	add    $0x10,%rax
    7c11:	48 89 85 78 f4 ff ff 	mov    %rax,-0xb88(%rbp)
    7c18:	48 c7 85 80 f4 ff ff 	movq   $0x0,-0xb80(%rbp)
    7c1f:	00 00 00 00 
    7c23:	48 8d 85 80 ef ff ff 	lea    -0x1080(%rbp),%rax
    7c2a:	48 83 c0 08          	add    $0x8,%rax
    7c2e:	48 89 85 88 f4 ff ff 	mov    %rax,-0xb78(%rbp)
    7c35:	48 8d 85 80 ef ff ff 	lea    -0x1080(%rbp),%rax
    7c3c:	48 83 c0 10          	add    $0x10,%rax
    7c40:	48 89 85 90 f4 ff ff 	mov    %rax,-0xb70(%rbp)
    7c47:	48 8d 85 80 ef ff ff 	lea    -0x1080(%rbp),%rax
    7c4e:	48 83 c0 18          	add    $0x18,%rax
    7c52:	48 89 85 98 f4 ff ff 	mov    %rax,-0xb68(%rbp)
    7c59:	48 8d 85 80 ef ff ff 	lea    -0x1080(%rbp),%rax
    7c60:	48 83 c0 08          	add    $0x8,%rax
    7c64:	48 89 85 a0 f4 ff ff 	mov    %rax,-0xb60(%rbp)
    7c6b:	48 8d 85 80 ef ff ff 	lea    -0x1080(%rbp),%rax
    7c72:	48 83 c0 10          	add    $0x10,%rax
    7c76:	48 89 85 a8 f4 ff ff 	mov    %rax,-0xb58(%rbp)
    7c7d:	48 8d 85 80 ef ff ff 	lea    -0x1080(%rbp),%rax
    7c84:	48 83 c0 28          	add    $0x28,%rax
    7c88:	48 89 85 b0 f4 ff ff 	mov    %rax,-0xb50(%rbp)
    7c8f:	48 8d 85 80 ef ff ff 	lea    -0x1080(%rbp),%rax
    7c96:	48 89 85 b8 f4 ff ff 	mov    %rax,-0xb48(%rbp)
    7c9d:	48 8d 85 80 ef ff ff 	lea    -0x1080(%rbp),%rax
    7ca4:	48 83 c0 08          	add    $0x8,%rax
    7ca8:	48 89 85 c0 f4 ff ff 	mov    %rax,-0xb40(%rbp)
    7caf:	48 8d 85 80 ef ff ff 	lea    -0x1080(%rbp),%rax
    7cb6:	48 83 c0 10          	add    $0x10,%rax
    7cba:	48 89 85 c8 f4 ff ff 	mov    %rax,-0xb38(%rbp)
    7cc1:	48 8d 85 80 ef ff ff 	lea    -0x1080(%rbp),%rax
    7cc8:	48 83 c0 10          	add    $0x10,%rax
    7ccc:	48 89 85 d0 f4 ff ff 	mov    %rax,-0xb30(%rbp)
    7cd3:	48 8d 85 80 ef ff ff 	lea    -0x1080(%rbp),%rax
    7cda:	48 83 c0 08          	add    $0x8,%rax
    7cde:	48 89 85 d8 f4 ff ff 	mov    %rax,-0xb28(%rbp)
    7ce5:	48 8d 85 80 ef ff ff 	lea    -0x1080(%rbp),%rax
    7cec:	48 83 c0 10          	add    $0x10,%rax
    7cf0:	48 89 85 e0 f4 ff ff 	mov    %rax,-0xb20(%rbp)
    7cf7:	48 8d 85 80 ef ff ff 	lea    -0x1080(%rbp),%rax
    7cfe:	48 83 c0 18          	add    $0x18,%rax
    7d02:	48 89 85 e8 f4 ff ff 	mov    %rax,-0xb18(%rbp)
    7d09:	48 8d 85 80 ef ff ff 	lea    -0x1080(%rbp),%rax
    7d10:	48 89 85 f0 f4 ff ff 	mov    %rax,-0xb10(%rbp)
    7d17:	48 8d 85 80 ef ff ff 	lea    -0x1080(%rbp),%rax
    7d1e:	48 83 c0 08          	add    $0x8,%rax
    7d22:	48 89 85 f8 f4 ff ff 	mov    %rax,-0xb08(%rbp)
    7d29:	48 8d 85 80 ef ff ff 	lea    -0x1080(%rbp),%rax
    7d30:	48 83 c0 10          	add    $0x10,%rax
    7d34:	48 89 85 00 f5 ff ff 	mov    %rax,-0xb00(%rbp)
    7d3b:	48 8d 85 80 ef ff ff 	lea    -0x1080(%rbp),%rax
    7d42:	48 89 85 08 f5 ff ff 	mov    %rax,-0xaf8(%rbp)
    7d49:	48 8d 85 80 ef ff ff 	lea    -0x1080(%rbp),%rax
    7d50:	48 83 c0 08          	add    $0x8,%rax
    7d54:	48 89 85 10 f5 ff ff 	mov    %rax,-0xaf0(%rbp)
    7d5b:	48 c7 85 18 f5 ff ff 	movq   $0x0,-0xae8(%rbp)
    7d62:	00 00 00 00 
    7d66:	48 8d 85 80 ef ff ff 	lea    -0x1080(%rbp),%rax
    7d6d:	48 83 c0 10          	add    $0x10,%rax
    7d71:	48 89 85 20 f5 ff ff 	mov    %rax,-0xae0(%rbp)
    7d78:	48 8d 85 80 ef ff ff 	lea    -0x1080(%rbp),%rax
    7d7f:	48 89 85 28 f5 ff ff 	mov    %rax,-0xad8(%rbp)
    7d86:	48 c7 85 30 f5 ff ff 	movq   $0x0,-0xad0(%rbp)
    7d8d:	00 00 00 00 
    7d91:	48 8d 85 80 ef ff ff 	lea    -0x1080(%rbp),%rax
    7d98:	48 83 c0 18          	add    $0x18,%rax
    7d9c:	48 89 85 38 f5 ff ff 	mov    %rax,-0xac8(%rbp)
    7da3:	48 8d 85 80 ef ff ff 	lea    -0x1080(%rbp),%rax
    7daa:	48 89 85 40 f5 ff ff 	mov    %rax,-0xac0(%rbp)
    7db1:	48 8d 85 80 ef ff ff 	lea    -0x1080(%rbp),%rax
    7db8:	48 83 c0 08          	add    $0x8,%rax
    7dbc:	48 89 85 48 f5 ff ff 	mov    %rax,-0xab8(%rbp)
    7dc3:	48 8d 85 80 ef ff ff 	lea    -0x1080(%rbp),%rax
    7dca:	48 83 c0 10          	add    $0x10,%rax
    7dce:	48 89 85 50 f5 ff ff 	mov    %rax,-0xab0(%rbp)
    7dd5:	48 c7 85 58 f5 ff ff 	movq   $0x0,-0xaa8(%rbp)
    7ddc:	00 00 00 00 
    7de0:	48 c7 85 60 f5 ff ff 	movq   $0x0,-0xaa0(%rbp)
    7de7:	00 00 00 00 
    7deb:	48 8d 85 80 ef ff ff 	lea    -0x1080(%rbp),%rax
    7df2:	48 83 c0 08          	add    $0x8,%rax
    7df6:	48 89 85 68 f5 ff ff 	mov    %rax,-0xa98(%rbp)
    7dfd:	48 8d 85 80 ef ff ff 	lea    -0x1080(%rbp),%rax
    7e04:	48 83 c0 10          	add    $0x10,%rax
    7e08:	48 89 85 70 f5 ff ff 	mov    %rax,-0xa90(%rbp)
    7e0f:	48 8d 85 80 ef ff ff 	lea    -0x1080(%rbp),%rax
    7e16:	48 89 85 78 f5 ff ff 	mov    %rax,-0xa88(%rbp)
    7e1d:	48 c7 85 80 f5 ff ff 	movq   $0x0,-0xa80(%rbp)
    7e24:	00 00 00 00 
    7e28:	48 8d 85 80 ef ff ff 	lea    -0x1080(%rbp),%rax
    7e2f:	48 83 c0 10          	add    $0x10,%rax
    7e33:	48 89 85 88 f5 ff ff 	mov    %rax,-0xa78(%rbp)
    7e3a:	48 c7 85 90 f5 ff ff 	movq   $0x0,-0xa70(%rbp)
    7e41:	00 00 00 00 
    7e45:	48 8d 85 80 ef ff ff 	lea    -0x1080(%rbp),%rax
    7e4c:	48 83 c0 10          	add    $0x10,%rax
    7e50:	48 89 85 98 f5 ff ff 	mov    %rax,-0xa68(%rbp)
    7e57:	48 c7 85 a0 f5 ff ff 	movq   $0x0,-0xa60(%rbp)
    7e5e:	00 00 00 00 
    7e62:	48 8d 85 80 ef ff ff 	lea    -0x1080(%rbp),%rax
    7e69:	48 89 85 a8 f5 ff ff 	mov    %rax,-0xa58(%rbp)
    7e70:	48 8d 85 80 ef ff ff 	lea    -0x1080(%rbp),%rax
    7e77:	48 83 c0 10          	add    $0x10,%rax
    7e7b:	48 89 85 b0 f5 ff ff 	mov    %rax,-0xa50(%rbp)
    7e82:	48 8d 85 80 ef ff ff 	lea    -0x1080(%rbp),%rax
    7e89:	48 83 c0 08          	add    $0x8,%rax
    7e8d:	48 89 85 b8 f5 ff ff 	mov    %rax,-0xa48(%rbp)
    7e94:	48 c7 85 c0 f5 ff ff 	movq   $0x0,-0xa40(%rbp)
    7e9b:	00 00 00 00 
    7e9f:	48 c7 85 c8 f5 ff ff 	movq   $0x0,-0xa38(%rbp)
    7ea6:	00 00 00 00 
    7eaa:	48 8d 85 80 ef ff ff 	lea    -0x1080(%rbp),%rax
    7eb1:	48 83 c0 10          	add    $0x10,%rax
    7eb5:	48 89 85 d0 f5 ff ff 	mov    %rax,-0xa30(%rbp)
    7ebc:	48 8d 85 80 ef ff ff 	lea    -0x1080(%rbp),%rax
    7ec3:	48 83 c0 08          	add    $0x8,%rax
    7ec7:	48 89 85 d8 f5 ff ff 	mov    %rax,-0xa28(%rbp)
    7ece:	48 8d 85 80 ef ff ff 	lea    -0x1080(%rbp),%rax
    7ed5:	48 89 85 e0 f5 ff ff 	mov    %rax,-0xa20(%rbp)
    7edc:	48 8d 85 80 ef ff ff 	lea    -0x1080(%rbp),%rax
    7ee3:	48 83 c0 18          	add    $0x18,%rax
    7ee7:	48 89 85 e8 f5 ff ff 	mov    %rax,-0xa18(%rbp)
    7eee:	48 c7 85 f0 f5 ff ff 	movq   $0x0,-0xa10(%rbp)
    7ef5:	00 00 00 00 
    7ef9:	48 8d 85 80 ef ff ff 	lea    -0x1080(%rbp),%rax
    7f00:	48 89 85 f8 f5 ff ff 	mov    %rax,-0xa08(%rbp)
    7f07:	48 8d 85 80 ef ff ff 	lea    -0x1080(%rbp),%rax
    7f0e:	48 83 c0 10          	add    $0x10,%rax
    7f12:	48 89 85 00 f6 ff ff 	mov    %rax,-0xa00(%rbp)
    7f19:	48 c7 85 08 f6 ff ff 	movq   $0x0,-0x9f8(%rbp)
    7f20:	00 00 00 00 
    7f24:	48 8d 85 80 ef ff ff 	lea    -0x1080(%rbp),%rax
    7f2b:	48 83 c0 08          	add    $0x8,%rax
    7f2f:	48 89 85 10 f6 ff ff 	mov    %rax,-0x9f0(%rbp)
    7f36:	48 8d 85 80 ef ff ff 	lea    -0x1080(%rbp),%rax
    7f3d:	48 89 85 18 f6 ff ff 	mov    %rax,-0x9e8(%rbp)
    7f44:	48 8d 85 80 ef ff ff 	lea    -0x1080(%rbp),%rax
    7f4b:	48 83 c0 10          	add    $0x10,%rax
    7f4f:	48 89 85 20 f6 ff ff 	mov    %rax,-0x9e0(%rbp)
    7f56:	48 8d 85 80 ef ff ff 	lea    -0x1080(%rbp),%rax
    7f5d:	48 83 c0 08          	add    $0x8,%rax
    7f61:	48 89 85 28 f6 ff ff 	mov    %rax,-0x9d8(%rbp)
    7f68:	48 8d 85 80 ef ff ff 	lea    -0x1080(%rbp),%rax
    7f6f:	48 89 85 30 f6 ff ff 	mov    %rax,-0x9d0(%rbp)
    7f76:	48 8d 85 80 ef ff ff 	lea    -0x1080(%rbp),%rax
    7f7d:	48 83 c0 18          	add    $0x18,%rax
    7f81:	48 89 85 38 f6 ff ff 	mov    %rax,-0x9c8(%rbp)
    7f88:	48 8d 85 80 ef ff ff 	lea    -0x1080(%rbp),%rax
    7f8f:	48 83 c0 10          	add    $0x10,%rax
    7f93:	48 89 85 40 f6 ff ff 	mov    %rax,-0x9c0(%rbp)
    7f9a:	48 8d 85 80 ef ff ff 	lea    -0x1080(%rbp),%rax
    7fa1:	48 83 c0 08          	add    $0x8,%rax
    7fa5:	48 89 85 48 f6 ff ff 	mov    %rax,-0x9b8(%rbp)
    7fac:	48 8d 85 80 ef ff ff 	lea    -0x1080(%rbp),%rax
    7fb3:	48 83 c0 10          	add    $0x10,%rax
    7fb7:	48 89 85 50 f6 ff ff 	mov    %rax,-0x9b0(%rbp)
    7fbe:	48 8d 85 80 ef ff ff 	lea    -0x1080(%rbp),%rax
    7fc5:	48 83 c0 10          	add    $0x10,%rax
    7fc9:	48 89 85 58 f6 ff ff 	mov    %rax,-0x9a8(%rbp)
    7fd0:	48 8d 85 80 ef ff ff 	lea    -0x1080(%rbp),%rax
    7fd7:	48 83 c0 08          	add    $0x8,%rax
    7fdb:	48 89 85 60 f6 ff ff 	mov    %rax,-0x9a0(%rbp)
    7fe2:	48 8d 85 80 ef ff ff 	lea    -0x1080(%rbp),%rax
    7fe9:	48 89 85 68 f6 ff ff 	mov    %rax,-0x998(%rbp)
    7ff0:	48 8d 85 80 ef ff ff 	lea    -0x1080(%rbp),%rax
    7ff7:	48 83 c0 28          	add    $0x28,%rax
    7ffb:	48 89 85 70 f6 ff ff 	mov    %rax,-0x990(%rbp)
    8002:	48 8d 85 80 ef ff ff 	lea    -0x1080(%rbp),%rax
    8009:	48 83 c0 10          	add    $0x10,%rax
    800d:	48 89 85 78 f6 ff ff 	mov    %rax,-0x988(%rbp)
    8014:	48 8d 85 80 ef ff ff 	lea    -0x1080(%rbp),%rax
    801b:	48 83 c0 08          	add    $0x8,%rax
    801f:	48 89 85 80 f6 ff ff 	mov    %rax,-0x980(%rbp)
    8026:	48 8d 85 80 ef ff ff 	lea    -0x1080(%rbp),%rax
    802d:	48 83 c0 18          	add    $0x18,%rax
    8031:	48 89 85 88 f6 ff ff 	mov    %rax,-0x978(%rbp)
    8038:	48 8d 85 80 ef ff ff 	lea    -0x1080(%rbp),%rax
    803f:	48 83 c0 10          	add    $0x10,%rax
    8043:	48 89 85 90 f6 ff ff 	mov    %rax,-0x970(%rbp)
    804a:	48 8d 85 80 ef ff ff 	lea    -0x1080(%rbp),%rax
    8051:	48 83 c0 08          	add    $0x8,%rax
    8055:	48 89 85 98 f6 ff ff 	mov    %rax,-0x968(%rbp)
    805c:	48 c7 85 a0 f6 ff ff 	movq   $0x0,-0x960(%rbp)
    8063:	00 00 00 00 
    8067:	48 8d 85 80 ef ff ff 	lea    -0x1080(%rbp),%rax
    806e:	48 83 c0 10          	add    $0x10,%rax
    8072:	48 89 85 a8 f6 ff ff 	mov    %rax,-0x958(%rbp)
    8079:	48 c7 85 b0 f6 ff ff 	movq   $0x0,-0x950(%rbp)
    8080:	00 00 00 00 
    8084:	48 8d 85 80 ef ff ff 	lea    -0x1080(%rbp),%rax
    808b:	48 83 c0 08          	add    $0x8,%rax
    808f:	48 89 85 b8 f6 ff ff 	mov    %rax,-0x948(%rbp)
    8096:	48 8d 85 80 ef ff ff 	lea    -0x1080(%rbp),%rax
    809d:	48 83 c0 10          	add    $0x10,%rax
    80a1:	48 89 85 c0 f6 ff ff 	mov    %rax,-0x940(%rbp)
    80a8:	48 8d 85 80 ef ff ff 	lea    -0x1080(%rbp),%rax
    80af:	48 83 c0 18          	add    $0x18,%rax
    80b3:	48 89 85 c8 f6 ff ff 	mov    %rax,-0x938(%rbp)
    80ba:	48 8d 85 80 ef ff ff 	lea    -0x1080(%rbp),%rax
    80c1:	48 83 c0 08          	add    $0x8,%rax
    80c5:	48 89 85 d0 f6 ff ff 	mov    %rax,-0x930(%rbp)
    80cc:	48 8d 85 80 ef ff ff 	lea    -0x1080(%rbp),%rax
    80d3:	48 83 c0 10          	add    $0x10,%rax
    80d7:	48 89 85 d8 f6 ff ff 	mov    %rax,-0x928(%rbp)
    80de:	48 8d 85 80 ef ff ff 	lea    -0x1080(%rbp),%rax
    80e5:	48 83 c0 28          	add    $0x28,%rax
    80e9:	48 89 85 e0 f6 ff ff 	mov    %rax,-0x920(%rbp)
    80f0:	48 8d 85 80 ef ff ff 	lea    -0x1080(%rbp),%rax
    80f7:	48 89 85 e8 f6 ff ff 	mov    %rax,-0x918(%rbp)
    80fe:	48 8d 85 80 ef ff ff 	lea    -0x1080(%rbp),%rax
    8105:	48 83 c0 08          	add    $0x8,%rax
    8109:	48 89 85 f0 f6 ff ff 	mov    %rax,-0x910(%rbp)
    8110:	48 8d 85 80 ef ff ff 	lea    -0x1080(%rbp),%rax
    8117:	48 83 c0 10          	add    $0x10,%rax
    811b:	48 89 85 f8 f6 ff ff 	mov    %rax,-0x908(%rbp)
    8122:	48 8d 85 80 ef ff ff 	lea    -0x1080(%rbp),%rax
    8129:	48 83 c0 10          	add    $0x10,%rax
    812d:	48 89 85 00 f7 ff ff 	mov    %rax,-0x900(%rbp)
    8134:	48 8d 85 80 ef ff ff 	lea    -0x1080(%rbp),%rax
    813b:	48 83 c0 08          	add    $0x8,%rax
    813f:	48 89 85 08 f7 ff ff 	mov    %rax,-0x8f8(%rbp)
    8146:	48 8d 85 80 ef ff ff 	lea    -0x1080(%rbp),%rax
    814d:	48 83 c0 10          	add    $0x10,%rax
    8151:	48 89 85 10 f7 ff ff 	mov    %rax,-0x8f0(%rbp)
    8158:	48 8d 85 80 ef ff ff 	lea    -0x1080(%rbp),%rax
    815f:	48 83 c0 18          	add    $0x18,%rax
    8163:	48 89 85 18 f7 ff ff 	mov    %rax,-0x8e8(%rbp)
    816a:	48 8d 85 80 ef ff ff 	lea    -0x1080(%rbp),%rax
    8171:	48 89 85 20 f7 ff ff 	mov    %rax,-0x8e0(%rbp)
    8178:	48 8d 85 80 ef ff ff 	lea    -0x1080(%rbp),%rax
    817f:	48 83 c0 08          	add    $0x8,%rax
    8183:	48 89 85 28 f7 ff ff 	mov    %rax,-0x8d8(%rbp)
    818a:	48 8d 85 80 ef ff ff 	lea    -0x1080(%rbp),%rax
    8191:	48 83 c0 10          	add    $0x10,%rax
    8195:	48 89 85 30 f7 ff ff 	mov    %rax,-0x8d0(%rbp)
    819c:	48 8d 85 80 ef ff ff 	lea    -0x1080(%rbp),%rax
    81a3:	48 89 85 38 f7 ff ff 	mov    %rax,-0x8c8(%rbp)
    81aa:	48 8d 85 80 ef ff ff 	lea    -0x1080(%rbp),%rax
    81b1:	48 83 c0 08          	add    $0x8,%rax
    81b5:	48 89 85 40 f7 ff ff 	mov    %rax,-0x8c0(%rbp)
    81bc:	48 c7 85 48 f7 ff ff 	movq   $0x0,-0x8b8(%rbp)
    81c3:	00 00 00 00 
    81c7:	48 8d 85 80 ef ff ff 	lea    -0x1080(%rbp),%rax
    81ce:	48 83 c0 10          	add    $0x10,%rax
    81d2:	48 89 85 50 f7 ff ff 	mov    %rax,-0x8b0(%rbp)
    81d9:	48 8d 85 80 ef ff ff 	lea    -0x1080(%rbp),%rax
    81e0:	48 89 85 58 f7 ff ff 	mov    %rax,-0x8a8(%rbp)
    81e7:	48 c7 85 60 f7 ff ff 	movq   $0x0,-0x8a0(%rbp)
    81ee:	00 00 00 00 
    81f2:	48 8d 85 80 ef ff ff 	lea    -0x1080(%rbp),%rax
    81f9:	48 83 c0 18          	add    $0x18,%rax
    81fd:	48 89 85 68 f7 ff ff 	mov    %rax,-0x898(%rbp)
    8204:	48 8d 85 80 ef ff ff 	lea    -0x1080(%rbp),%rax
    820b:	48 89 85 70 f7 ff ff 	mov    %rax,-0x890(%rbp)
    8212:	48 8d 85 80 ef ff ff 	lea    -0x1080(%rbp),%rax
    8219:	48 83 c0 08          	add    $0x8,%rax
    821d:	48 89 85 78 f7 ff ff 	mov    %rax,-0x888(%rbp)
    8224:	48 8d 85 80 ef ff ff 	lea    -0x1080(%rbp),%rax
    822b:	48 83 c0 10          	add    $0x10,%rax
    822f:	48 89 85 80 f7 ff ff 	mov    %rax,-0x880(%rbp)
    8236:	48 c7 85 88 f7 ff ff 	movq   $0x0,-0x878(%rbp)
    823d:	00 00 00 00 
    8241:	48 c7 85 90 f7 ff ff 	movq   $0x0,-0x870(%rbp)
    8248:	00 00 00 00 
    824c:	48 8d 85 80 ef ff ff 	lea    -0x1080(%rbp),%rax
    8253:	48 83 c0 08          	add    $0x8,%rax
    8257:	48 89 85 98 f7 ff ff 	mov    %rax,-0x868(%rbp)
    825e:	48 8d 85 80 ef ff ff 	lea    -0x1080(%rbp),%rax
    8265:	48 83 c0 10          	add    $0x10,%rax
    8269:	48 89 85 a0 f7 ff ff 	mov    %rax,-0x860(%rbp)
    8270:	48 8d 85 80 ef ff ff 	lea    -0x1080(%rbp),%rax
    8277:	48 89 85 a8 f7 ff ff 	mov    %rax,-0x858(%rbp)
    827e:	48 c7 85 b0 f7 ff ff 	movq   $0x0,-0x850(%rbp)
    8285:	00 00 00 00 
    8289:	48 8d 85 80 ef ff ff 	lea    -0x1080(%rbp),%rax
    8290:	48 83 c0 10          	add    $0x10,%rax
    8294:	48 89 85 b8 f7 ff ff 	mov    %rax,-0x848(%rbp)
    829b:	48 c7 85 c0 f7 ff ff 	movq   $0x0,-0x840(%rbp)
    82a2:	00 00 00 00 
    82a6:	48 8d 85 80 ef ff ff 	lea    -0x1080(%rbp),%rax
    82ad:	48 83 c0 10          	add    $0x10,%rax
    82b1:	48 89 85 c8 f7 ff ff 	mov    %rax,-0x838(%rbp)
    82b8:	48 c7 85 d0 f7 ff ff 	movq   $0x0,-0x830(%rbp)
    82bf:	00 00 00 00 
    82c3:	48 8d 85 80 ef ff ff 	lea    -0x1080(%rbp),%rax
    82ca:	48 89 85 d8 f7 ff ff 	mov    %rax,-0x828(%rbp)
    82d1:	48 8d 85 80 ef ff ff 	lea    -0x1080(%rbp),%rax
    82d8:	48 83 c0 10          	add    $0x10,%rax
    82dc:	48 89 85 e0 f7 ff ff 	mov    %rax,-0x820(%rbp)
    82e3:	48 8d 85 80 ef ff ff 	lea    -0x1080(%rbp),%rax
    82ea:	48 83 c0 08          	add    $0x8,%rax
    82ee:	48 89 85 e8 f7 ff ff 	mov    %rax,-0x818(%rbp)
    82f5:	48 c7 85 f0 f7 ff ff 	movq   $0x0,-0x810(%rbp)
    82fc:	00 00 00 00 
    8300:	48 c7 85 f8 f7 ff ff 	movq   $0x0,-0x808(%rbp)
    8307:	00 00 00 00 
    830b:	48 8d 85 80 ef ff ff 	lea    -0x1080(%rbp),%rax
    8312:	48 83 c0 10          	add    $0x10,%rax
    8316:	48 89 85 00 f8 ff ff 	mov    %rax,-0x800(%rbp)
    831d:	48 8d 85 80 ef ff ff 	lea    -0x1080(%rbp),%rax
    8324:	48 83 c0 08          	add    $0x8,%rax
    8328:	48 89 85 08 f8 ff ff 	mov    %rax,-0x7f8(%rbp)
    832f:	48 8d 85 80 ef ff ff 	lea    -0x1080(%rbp),%rax
    8336:	48 89 85 10 f8 ff ff 	mov    %rax,-0x7f0(%rbp)
    833d:	48 8d 85 80 ef ff ff 	lea    -0x1080(%rbp),%rax
    8344:	48 83 c0 18          	add    $0x18,%rax
    8348:	48 89 85 18 f8 ff ff 	mov    %rax,-0x7e8(%rbp)
    834f:	48 c7 85 20 f8 ff ff 	movq   $0x0,-0x7e0(%rbp)
    8356:	00 00 00 00 
    835a:	48 8d 85 80 ef ff ff 	lea    -0x1080(%rbp),%rax
    8361:	48 89 85 28 f8 ff ff 	mov    %rax,-0x7d8(%rbp)
    8368:	48 8d 85 80 ef ff ff 	lea    -0x1080(%rbp),%rax
    836f:	48 83 c0 10          	add    $0x10,%rax
    8373:	48 89 85 30 f8 ff ff 	mov    %rax,-0x7d0(%rbp)
    837a:	48 c7 85 38 f8 ff ff 	movq   $0x0,-0x7c8(%rbp)
    8381:	00 00 00 00 
    8385:	48 8d 85 80 ef ff ff 	lea    -0x1080(%rbp),%rax
    838c:	48 83 c0 08          	add    $0x8,%rax
    8390:	48 89 85 40 f8 ff ff 	mov    %rax,-0x7c0(%rbp)
    8397:	48 8d 85 80 ef ff ff 	lea    -0x1080(%rbp),%rax
    839e:	48 89 85 48 f8 ff ff 	mov    %rax,-0x7b8(%rbp)
    83a5:	48 8d 85 80 ef ff ff 	lea    -0x1080(%rbp),%rax
    83ac:	48 83 c0 10          	add    $0x10,%rax
    83b0:	48 89 85 50 f8 ff ff 	mov    %rax,-0x7b0(%rbp)
    83b7:	48 8d 85 80 ef ff ff 	lea    -0x1080(%rbp),%rax
    83be:	48 83 c0 08          	add    $0x8,%rax
    83c2:	48 89 85 58 f8 ff ff 	mov    %rax,-0x7a8(%rbp)
    83c9:	48 c7 85 60 f8 ff ff 	movq   $0x0,-0x7a0(%rbp)
    83d0:	00 00 00 00 
    83d4:	48 8d 85 80 ef ff ff 	lea    -0x1080(%rbp),%rax
    83db:	48 83 c0 08          	add    $0x8,%rax
    83df:	48 89 85 68 f8 ff ff 	mov    %rax,-0x798(%rbp)
    83e6:	48 8d 85 80 ef ff ff 	lea    -0x1080(%rbp),%rax
    83ed:	48 83 c0 10          	add    $0x10,%rax
    83f1:	48 89 85 70 f8 ff ff 	mov    %rax,-0x790(%rbp)
    83f8:	48 8d 85 80 ef ff ff 	lea    -0x1080(%rbp),%rax
    83ff:	48 83 c0 28          	add    $0x28,%rax
    8403:	48 89 85 78 f8 ff ff 	mov    %rax,-0x788(%rbp)
    840a:	48 8d 85 80 ef ff ff 	lea    -0x1080(%rbp),%rax
    8411:	48 83 c0 08          	add    $0x8,%rax
    8415:	48 89 85 80 f8 ff ff 	mov    %rax,-0x780(%rbp)
    841c:	48 8d 85 80 ef ff ff 	lea    -0x1080(%rbp),%rax
    8423:	48 83 c0 08          	add    $0x8,%rax
    8427:	48 89 85 88 f8 ff ff 	mov    %rax,-0x778(%rbp)
    842e:	48 c7 85 90 f8 ff ff 	movq   $0x0,-0x770(%rbp)
    8435:	00 00 00 00 
    8439:	48 c7 85 98 f8 ff ff 	movq   $0x0,-0x768(%rbp)
    8440:	00 00 00 00 
    8444:	48 8d 85 80 ef ff ff 	lea    -0x1080(%rbp),%rax
    844b:	48 83 c0 10          	add    $0x10,%rax
    844f:	48 89 85 a0 f8 ff ff 	mov    %rax,-0x760(%rbp)
    8456:	48 8d 85 80 ef ff ff 	lea    -0x1080(%rbp),%rax
    845d:	48 83 c0 08          	add    $0x8,%rax
    8461:	48 89 85 a8 f8 ff ff 	mov    %rax,-0x758(%rbp)
    8468:	48 8d 85 80 ef ff ff 	lea    -0x1080(%rbp),%rax
    846f:	48 83 c0 28          	add    $0x28,%rax
    8473:	48 89 85 b0 f8 ff ff 	mov    %rax,-0x750(%rbp)
    847a:	48 c7 85 b8 f8 ff ff 	movq   $0x0,-0x748(%rbp)
    8481:	00 00 00 00 
    8485:	48 8d 85 80 ef ff ff 	lea    -0x1080(%rbp),%rax
    848c:	48 83 c0 20          	add    $0x20,%rax
    8490:	48 89 85 c0 f8 ff ff 	mov    %rax,-0x740(%rbp)
    8497:	48 8d 85 80 ef ff ff 	lea    -0x1080(%rbp),%rax
    849e:	48 83 c0 28          	add    $0x28,%rax
    84a2:	48 89 85 c8 f8 ff ff 	mov    %rax,-0x738(%rbp)
    84a9:	48 8d 85 80 ef ff ff 	lea    -0x1080(%rbp),%rax
    84b0:	48 83 c0 08          	add    $0x8,%rax
    84b4:	48 89 85 d0 f8 ff ff 	mov    %rax,-0x730(%rbp)
    84bb:	48 8d 85 80 ef ff ff 	lea    -0x1080(%rbp),%rax
    84c2:	48 83 c0 10          	add    $0x10,%rax
    84c6:	48 89 85 d8 f8 ff ff 	mov    %rax,-0x728(%rbp)
    84cd:	48 8d 85 80 ef ff ff 	lea    -0x1080(%rbp),%rax
    84d4:	48 83 c0 08          	add    $0x8,%rax
    84d8:	48 89 85 e0 f8 ff ff 	mov    %rax,-0x720(%rbp)
    84df:	48 8d 85 80 ef ff ff 	lea    -0x1080(%rbp),%rax
    84e6:	48 83 c0 28          	add    $0x28,%rax
    84ea:	48 89 85 e8 f8 ff ff 	mov    %rax,-0x718(%rbp)
    84f1:	48 8d 85 80 ef ff ff 	lea    -0x1080(%rbp),%rax
    84f8:	48 83 c0 20          	add    $0x20,%rax
    84fc:	48 89 85 f0 f8 ff ff 	mov    %rax,-0x710(%rbp)
    8503:	48 c7 85 f8 f8 ff ff 	movq   $0x0,-0x708(%rbp)
    850a:	00 00 00 00 
    850e:	48 8d 85 80 ef ff ff 	lea    -0x1080(%rbp),%rax
    8515:	48 83 c0 28          	add    $0x28,%rax
    8519:	48 89 85 00 f9 ff ff 	mov    %rax,-0x700(%rbp)
    8520:	48 8d 85 80 ef ff ff 	lea    -0x1080(%rbp),%rax
    8527:	48 83 c0 08          	add    $0x8,%rax
    852b:	48 89 85 08 f9 ff ff 	mov    %rax,-0x6f8(%rbp)
    8532:	48 8d 05 87 5c 00 00 	lea    0x5c87(%rip),%rax        # e1c0 <g_126+0x100>
    8539:	48 89 85 f8 ee ff ff 	mov    %rax,-0x1108(%rbp)
    8540:	48 8d 85 d8 ee ff ff 	lea    -0x1128(%rbp),%rax
    8547:	48 89 85 00 ef ff ff 	mov    %rax,-0x1100(%rbp)
    854e:	48 8d 05 d3 5a 00 00 	lea    0x5ad3(%rip),%rax        # e028 <g_17>
    8555:	48 89 85 08 ef ff ff 	mov    %rax,-0x10f8(%rbp)
    855c:	48 8d 05 e5 76 00 00 	lea    0x76e5(%rip),%rax        # fc48 <g_110>
    8563:	48 89 85 10 ef ff ff 	mov    %rax,-0x10f0(%rbp)
    856a:	48 8d 05 0f 64 00 00 	lea    0x640f(%rip),%rax        # e980 <g_189>
    8571:	48 89 85 18 ef ff ff 	mov    %rax,-0x10e8(%rbp)
    8578:	48 8d 05 d9 76 00 00 	lea    0x76d9(%rip),%rax        # fc58 <g_193>
    857f:	48 89 85 20 ef ff ff 	mov    %rax,-0x10e0(%rbp)
    8586:	c7 85 a4 ee ff ff 00 	movl   $0x0,-0x115c(%rbp)
    858d:	00 00 00 
    8590:	eb 1e                	jmp    85b0 <func_90+0xf93>
    8592:	8b 85 a4 ee ff ff    	mov    -0x115c(%rbp),%eax
    8598:	48 98                	cltq   
    859a:	48 8d 95 9c ee ff ff 	lea    -0x1164(%rbp),%rdx
    85a1:	48 89 94 c5 80 ef ff 	mov    %rdx,-0x1080(%rbp,%rax,8)
    85a8:	ff 
    85a9:	83 85 a4 ee ff ff 01 	addl   $0x1,-0x115c(%rbp)
    85b0:	83 bd a4 ee ff ff 05 	cmpl   $0x5,-0x115c(%rbp)
    85b7:	7e d9                	jle    8592 <func_90+0xf75>
    85b9:	48 8b 05 80 5a 00 00 	mov    0x5a80(%rip),%rax        # e040 <g_57>
    85c0:	41 89 c5             	mov    %eax,%r13d
    85c3:	8b 85 9c ee ff ff    	mov    -0x1164(%rbp),%eax
    85c9:	0f b6 d8             	movzbl %al,%ebx
    85cc:	8b 85 ac ee ff ff    	mov    -0x1154(%rbp),%eax
    85d2:	4c 63 e0             	movslq %eax,%r12
    85d5:	0f b6 05 6c 76 00 00 	movzbl 0x766c(%rip),%eax        # fc48 <g_110>
    85dc:	83 e8 01             	sub    $0x1,%eax
    85df:	88 05 63 76 00 00    	mov    %al,0x7663(%rip)        # fc48 <g_110>
    85e5:	48 83 bd f0 ee ff ff 	cmpq   $0x0,-0x1110(%rbp)
    85ec:	00 
    85ed:	75 53                	jne    8642 <func_90+0x1025>
    85ef:	c7 85 68 f1 ff ff 06 	movl   $0x6,-0xe98(%rbp)
    85f6:	00 00 00 
    85f9:	8b 85 68 f1 ff ff    	mov    -0xe98(%rbp),%eax
    85ff:	3d a4 8c 00 00       	cmp    $0x8ca4,%eax
    8604:	0f 96 c0             	setbe  %al
    8607:	0f b6 d0             	movzbl %al,%edx
    860a:	8b 85 9c ee ff ff    	mov    -0x1164(%rbp),%eax
    8610:	39 c2                	cmp    %eax,%edx
    8612:	0f 9e c0             	setle  %al
    8615:	0f b6 c0             	movzbl %al,%eax
    8618:	89 c6                	mov    %eax,%esi
    861a:	bf 01 00 00 00       	mov    $0x1,%edi
    861f:	e8 69 b6 ff ff       	callq  3c8d <safe_rshift_func_uint8_t_u_s>
    8624:	8b 85 9c ee ff ff    	mov    -0x1164(%rbp),%eax
    862a:	0f b6 c0             	movzbl %al,%eax
    862d:	be 06 00 00 00       	mov    $0x6,%esi
    8632:	89 c7                	mov    %eax,%edi
    8634:	e8 cc b5 ff ff       	callq  3c05 <safe_lshift_func_uint8_t_u_s>
    8639:	0f b6 c0             	movzbl %al,%eax
    863c:	39 85 ac ee ff ff    	cmp    %eax,-0x1154(%rbp)
    8642:	48 8d 05 e3 59 00 00 	lea    0x59e3(%rip),%rax        # e02c <g_21>
    8649:	48 89 85 c0 f2 ff ff 	mov    %rax,-0xd40(%rbp)
    8650:	48 8b 85 c0 f2 ff ff 	mov    -0xd40(%rbp),%rax
    8657:	48 8d 15 ce 59 00 00 	lea    0x59ce(%rip),%rdx        # e02c <g_21>
    865e:	48 39 d0             	cmp    %rdx,%rax
    8661:	0f 94 c0             	sete   %al
    8664:	0f b6 d0             	movzbl %al,%edx
    8667:	48 8b 85 f8 ee ff ff 	mov    -0x1108(%rbp),%rax
    866e:	48 89 10             	mov    %rdx,(%rax)
    8671:	48 8b 85 f8 ee ff ff 	mov    -0x1108(%rbp),%rax
    8678:	48 8b 00             	mov    (%rax),%rax
    867b:	49 39 c4             	cmp    %rax,%r12
    867e:	0f 93 c0             	setae  %al
    8681:	0f b6 c0             	movzbl %al,%eax
    8684:	89 de                	mov    %ebx,%esi
    8686:	89 c7                	mov    %eax,%edi
    8688:	e8 21 b5 ff ff       	callq  3bae <safe_mod_func_uint8_t_u_u>
    868d:	0f b6 c0             	movzbl %al,%eax
    8690:	48 c7 c6 fe ff ff ff 	mov    $0xfffffffffffffffe,%rsi
    8697:	48 89 c7             	mov    %rax,%rdi
    869a:	e8 ac b9 ff ff       	callq  404b <safe_sub_func_uint64_t_u_u>
    869f:	8b 95 9c ee ff ff    	mov    -0x1164(%rbp),%edx
    86a5:	48 63 d2             	movslq %edx,%rdx
    86a8:	48 39 d0             	cmp    %rdx,%rax
    86ab:	73 11                	jae    86be <func_90+0x10a1>
    86ad:	8b 05 9d 59 00 00    	mov    0x599d(%rip),%eax        # e050 <g_60>
    86b3:	85 c0                	test   %eax,%eax
    86b5:	74 07                	je     86be <func_90+0x10a1>
    86b7:	ba 01 00 00 00       	mov    $0x1,%edx
    86bc:	eb 05                	jmp    86c3 <func_90+0x10a6>
    86be:	ba 00 00 00 00       	mov    $0x0,%edx
    86c3:	0f b7 05 d6 59 00 00 	movzwl 0x59d6(%rip),%eax        # e0a0 <g_119>
    86ca:	98                   	cwtl   
    86cb:	39 c2                	cmp    %eax,%edx
    86cd:	0f 9d c0             	setge  %al
    86d0:	0f b6 c0             	movzbl %al,%eax
    86d3:	44 89 ee             	mov    %r13d,%esi
    86d6:	89 c7                	mov    %eax,%edi
    86d8:	e8 6f b5 ff ff       	callq  3c4c <safe_lshift_func_uint8_t_u_u>
    86dd:	0f b6 c0             	movzbl %al,%eax
    86e0:	ba f9 ff ff ff       	mov    $0xfffffff9,%edx
    86e5:	89 c6                	mov    %eax,%esi
    86e7:	89 d7                	mov    %edx,%edi
    86e9:	e8 e2 b7 ff ff       	callq  3ed0 <safe_sub_func_uint32_t_u_u>
    86ee:	0f be d8             	movsbl %al,%ebx
    86f1:	8b 85 ac ee ff ff    	mov    -0x1154(%rbp),%eax
    86f7:	48 63 d0             	movslq %eax,%rdx
    86fa:	8b 05 2c 59 00 00    	mov    0x592c(%rip),%eax        # e02c <g_21>
    8700:	48 98                	cltq   
    8702:	48 8d 0c c5 00 00 00 	lea    0x0(,%rax,8),%rcx
    8709:	00 
    870a:	48 8d 05 4f 59 00 00 	lea    0x594f(%rip),%rax        # e060 <g_93>
    8711:	48 8b 04 01          	mov    (%rcx,%rax,1),%rax
    8715:	21 85 a8 ee ff ff    	and    %eax,-0x1158(%rbp)
    871b:	48 8b 85 d8 ee ff ff 	mov    -0x1128(%rbp),%rax
    8722:	8b 8d a8 ee ff ff    	mov    -0x1158(%rbp),%ecx
    8728:	48 63 c9             	movslq %ecx,%rcx
    872b:	48 89 08             	mov    %rcx,(%rax)
    872e:	48 8b 00             	mov    (%rax),%rax
    8731:	48 89 d6             	mov    %rdx,%rsi
    8734:	48 89 c7             	mov    %rax,%rdi
    8737:	e8 6c b1 ff ff       	callq  38a8 <safe_sub_func_int64_t_s_s>
    873c:	89 c2                	mov    %eax,%edx
    873e:	8b 05 e4 58 00 00    	mov    0x58e4(%rip),%eax        # e028 <g_17>
    8744:	21 d0                	and    %edx,%eax
    8746:	0f be c0             	movsbl %al,%eax
    8749:	89 de                	mov    %ebx,%esi
    874b:	89 c7                	mov    %eax,%edi
    874d:	e8 c0 aa ff ff       	callq  3212 <safe_mul_func_int8_t_s_s>
    8752:	0f be d0             	movsbl %al,%edx
    8755:	8b 85 9c ee ff ff    	mov    -0x1164(%rbp),%eax
    875b:	39 c2                	cmp    %eax,%edx
    875d:	0f 8e 88 04 00 00    	jle    8beb <func_90+0x15ce>
    8763:	c7 85 b0 ee ff ff 06 	movl   $0x6,-0x1150(%rbp)
    876a:	00 00 00 
    876d:	c7 85 b4 ee ff ff ff 	movl   $0xffffffff,-0x114c(%rbp)
    8774:	ff ff ff 
    8777:	48 8d 05 e2 6d 00 00 	lea    0x6de2(%rip),%rax        # f560 <g_135>
    877e:	48 89 85 e0 ee ff ff 	mov    %rax,-0x1120(%rbp)
    8785:	48 8d 85 e0 ee ff ff 	lea    -0x1120(%rbp),%rax
    878c:	48 89 85 00 f0 ff ff 	mov    %rax,-0x1000(%rbp)
    8793:	48 8d 85 e0 ee ff ff 	lea    -0x1120(%rbp),%rax
    879a:	48 89 85 08 f0 ff ff 	mov    %rax,-0xff8(%rbp)
    87a1:	48 8d 85 e0 ee ff ff 	lea    -0x1120(%rbp),%rax
    87a8:	48 89 85 10 f0 ff ff 	mov    %rax,-0xff0(%rbp)
    87af:	48 8d 85 e0 ee ff ff 	lea    -0x1120(%rbp),%rax
    87b6:	48 89 85 18 f0 ff ff 	mov    %rax,-0xfe8(%rbp)
    87bd:	48 8d 85 e0 ee ff ff 	lea    -0x1120(%rbp),%rax
    87c4:	48 89 85 20 f0 ff ff 	mov    %rax,-0xfe0(%rbp)
    87cb:	48 8d 85 e0 ee ff ff 	lea    -0x1120(%rbp),%rax
    87d2:	48 89 85 28 f0 ff ff 	mov    %rax,-0xfd8(%rbp)
    87d9:	48 8d 85 e0 ee ff ff 	lea    -0x1120(%rbp),%rax
    87e0:	48 89 85 30 f0 ff ff 	mov    %rax,-0xfd0(%rbp)
    87e7:	48 8d 85 e0 ee ff ff 	lea    -0x1120(%rbp),%rax
    87ee:	48 89 85 38 f0 ff ff 	mov    %rax,-0xfc8(%rbp)
    87f5:	48 8d 85 e0 ee ff ff 	lea    -0x1120(%rbp),%rax
    87fc:	48 89 85 40 f0 ff ff 	mov    %rax,-0xfc0(%rbp)
    8803:	48 8d 85 e0 ee ff ff 	lea    -0x1120(%rbp),%rax
    880a:	48 89 85 48 f0 ff ff 	mov    %rax,-0xfb8(%rbp)
    8811:	48 8d 85 e0 ee ff ff 	lea    -0x1120(%rbp),%rax
    8818:	48 89 85 50 f0 ff ff 	mov    %rax,-0xfb0(%rbp)
    881f:	48 8d 85 e0 ee ff ff 	lea    -0x1120(%rbp),%rax
    8826:	48 89 85 58 f0 ff ff 	mov    %rax,-0xfa8(%rbp)
    882d:	48 8d 85 e0 ee ff ff 	lea    -0x1120(%rbp),%rax
    8834:	48 89 85 60 f0 ff ff 	mov    %rax,-0xfa0(%rbp)
    883b:	48 8d 85 e0 ee ff ff 	lea    -0x1120(%rbp),%rax
    8842:	48 89 85 68 f0 ff ff 	mov    %rax,-0xf98(%rbp)
    8849:	48 8d 85 e0 ee ff ff 	lea    -0x1120(%rbp),%rax
    8850:	48 89 85 70 f0 ff ff 	mov    %rax,-0xf90(%rbp)
    8857:	48 8d 85 e0 ee ff ff 	lea    -0x1120(%rbp),%rax
    885e:	48 89 85 78 f0 ff ff 	mov    %rax,-0xf88(%rbp)
    8865:	c6 05 dc 73 00 00 00 	movb   $0x0,0x73dc(%rip)        # fc48 <g_110>
    886c:	e9 e7 02 00 00       	jmpq   8b58 <func_90+0x153b>
    8871:	c7 85 b8 ee ff ff a1 	movl   $0x7e6343a1,-0x1148(%rbp)
    8878:	43 63 7e 
    887b:	48 8d 85 10 f9 ff ff 	lea    -0x6f0(%rbp),%rax
    8882:	48 8d 15 17 66 00 00 	lea    0x6617(%rip),%rdx        # eea0 <g_1149+0x4a0>
    8889:	b9 d8 00 00 00       	mov    $0xd8,%ecx
    888e:	48 89 c7             	mov    %rax,%rdi
    8891:	48 89 d6             	mov    %rdx,%rsi
    8894:	f3 48 a5             	rep movsq %ds:(%rsi),%es:(%rdi)
    8897:	83 bd b8 ee ff ff 00 	cmpl   $0x0,-0x1148(%rbp)
    889e:	0f 85 c5 02 00 00    	jne    8b69 <func_90+0x154c>
    88a4:	48 c7 05 91 57 00 00 	movq   $0x0,0x5791(%rip)        # e040 <g_57>
    88ab:	00 00 00 00 
    88af:	e9 80 02 00 00       	jmpq   8b34 <func_90+0x1517>
    88b4:	48 8d 85 70 f3 ff ff 	lea    -0xc90(%rbp),%rax
    88bb:	48 83 c0 28          	add    $0x28,%rax
    88bf:	48 89 85 e8 ee ff ff 	mov    %rax,-0x1118(%rbp)
    88c6:	48 8d 85 e8 ee ff ff 	lea    -0x1118(%rbp),%rax
    88cd:	48 89 85 b0 ef ff ff 	mov    %rax,-0x1050(%rbp)
    88d4:	48 8d 85 e8 ee ff ff 	lea    -0x1118(%rbp),%rax
    88db:	48 89 85 b8 ef ff ff 	mov    %rax,-0x1048(%rbp)
    88e2:	48 8d 85 e8 ee ff ff 	lea    -0x1118(%rbp),%rax
    88e9:	48 89 85 c0 ef ff ff 	mov    %rax,-0x1040(%rbp)
    88f0:	48 8d 85 e8 ee ff ff 	lea    -0x1118(%rbp),%rax
    88f7:	48 89 85 c8 ef ff ff 	mov    %rax,-0x1038(%rbp)
    88fe:	48 8d 85 e8 ee ff ff 	lea    -0x1118(%rbp),%rax
    8905:	48 89 85 d0 ef ff ff 	mov    %rax,-0x1030(%rbp)
    890c:	48 8d 85 e8 ee ff ff 	lea    -0x1118(%rbp),%rax
    8913:	48 89 85 d8 ef ff ff 	mov    %rax,-0x1028(%rbp)
    891a:	48 8d 85 e8 ee ff ff 	lea    -0x1118(%rbp),%rax
    8921:	48 89 85 e0 ef ff ff 	mov    %rax,-0x1020(%rbp)
    8928:	48 8d 85 e8 ee ff ff 	lea    -0x1118(%rbp),%rax
    892f:	48 89 85 e8 ef ff ff 	mov    %rax,-0x1018(%rbp)
    8936:	48 8d 85 e8 ee ff ff 	lea    -0x1118(%rbp),%rax
    893d:	48 89 85 f0 ef ff ff 	mov    %rax,-0x1010(%rbp)
    8944:	48 c7 85 30 ef ff ff 	movq   $0x0,-0x10d0(%rbp)
    894b:	00 00 00 00 
    894f:	48 8d 05 ea 5e 00 00 	lea    0x5eea(%rip),%rax        # e840 <g_139>
    8956:	48 89 85 38 ef ff ff 	mov    %rax,-0x10c8(%rbp)
    895d:	c7 85 a0 ee ff ff ff 	movl   $0xffffffff,-0x1160(%rbp)
    8964:	ff ff ff 
    8967:	48 8b 85 e8 ee ff ff 	mov    -0x1118(%rbp),%rax
    896e:	48 89 05 f3 6b 00 00 	mov    %rax,0x6bf3(%rip)        # f568 <g_134>
    8975:	b8 f9 ff ff ff       	mov    $0xfffffff9,%eax
    897a:	89 c2                	mov    %eax,%edx
    897c:	48 8b 85 38 ef ff ff 	mov    -0x10c8(%rbp),%rax
    8983:	89 10                	mov    %edx,(%rax)
    8985:	8b 85 b0 ee ff ff    	mov    -0x1150(%rbp),%eax
    898b:	0f b7 d8             	movzwl %ax,%ebx
    898e:	48 8b 85 88 ee ff ff 	mov    -0x1178(%rbp),%rax
    8995:	0f b7 00             	movzwl (%rax),%eax
    8998:	0f bf d0             	movswl %ax,%edx
    899b:	8b 05 87 56 00 00    	mov    0x5687(%rip),%eax        # e028 <g_17>
    89a1:	83 f8 03             	cmp    $0x3,%eax
    89a4:	0f 94 c0             	sete   %al
    89a7:	0f b6 c0             	movzbl %al,%eax
    89aa:	b9 f9 ff ff ff       	mov    $0xfffffff9,%ecx
    89af:	39 c8                	cmp    %ecx,%eax
    89b1:	0f 94 c0             	sete   %al
    89b4:	0f b6 c0             	movzbl %al,%eax
    89b7:	89 d6                	mov    %edx,%esi
    89b9:	89 c7                	mov    %eax,%edi
    89bb:	e8 88 b4 ff ff       	callq  3e48 <safe_rshift_func_uint16_t_u_s>
    89c0:	8b 85 b8 ee ff ff    	mov    -0x1148(%rbp),%eax
    89c6:	0f b7 c0             	movzwl %ax,%eax
    89c9:	89 de                	mov    %ebx,%esi
    89cb:	89 c7                	mov    %eax,%edi
    89cd:	e8 bc b3 ff ff       	callq  3d8e <safe_div_func_uint16_t_u_u>
    89d2:	8b 85 b8 ee ff ff    	mov    -0x1148(%rbp),%eax
    89d8:	89 c6                	mov    %eax,%esi
    89da:	bf 00 00 00 00       	mov    $0x0,%edi
    89df:	e8 21 ac ff ff       	callq  3605 <safe_sub_func_int32_t_s_s>
    89e4:	89 85 b4 ee ff ff    	mov    %eax,-0x114c(%rbp)
    89ea:	8b 85 b4 ee ff ff    	mov    -0x114c(%rbp),%eax
    89f0:	98                   	cwtl   
    89f1:	89 c6                	mov    %eax,%esi
    89f3:	bf 01 00 00 00       	mov    $0x1,%edi
    89f8:	e8 f8 a9 ff ff       	callq  33f5 <safe_mul_func_int16_t_s_s>
    89fd:	48 0f bf d0          	movswq %ax,%rdx
    8a01:	48 8b 05 40 56 00 00 	mov    0x5640(%rip),%rax        # e048 <g_58>
    8a08:	48 39 c2             	cmp    %rax,%rdx
    8a0b:	74 0b                	je     8a18 <func_90+0x13fb>
    8a0d:	8b 05 3d 56 00 00    	mov    0x563d(%rip),%eax        # e050 <g_60>
    8a13:	e9 07 05 00 00       	jmpq   8f1f <func_90+0x1902>
    8a18:	c7 85 bc ee ff ff 02 	movl   $0x2,-0x1144(%rbp)
    8a1f:	00 00 00 
    8a22:	83 bd bc ee ff ff 00 	cmpl   $0x0,-0x1144(%rbp)
    8a29:	0f 85 18 01 00 00    	jne    8b47 <func_90+0x152a>
    8a2f:	48 8b 95 28 f0 ff ff 	mov    -0xfd8(%rbp),%rdx
    8a36:	48 8b 85 d8 fb ff ff 	mov    -0x428(%rbp),%rax
    8a3d:	48 39 c2             	cmp    %rax,%rdx
    8a40:	0f 84 81 00 00 00    	je     8ac7 <func_90+0x14aa>
    8a46:	be 01 00 00 00       	mov    $0x1,%esi
    8a4b:	bf a0 38 00 00       	mov    $0x38a0,%edi
    8a50:	e8 d5 aa ff ff       	callq  352a <safe_rshift_func_int16_t_s_s>
    8a55:	0f bf d0             	movswl %ax,%edx
    8a58:	48 8b 05 61 57 00 00 	mov    0x5761(%rip),%rax        # e1c0 <g_126+0x100>
    8a5f:	48 85 c0             	test   %rax,%rax
    8a62:	74 16                	je     8a7a <func_90+0x145d>
    8a64:	48 8b 85 88 ee ff ff 	mov    -0x1178(%rbp),%rax
    8a6b:	0f b7 00             	movzwl (%rax),%eax
    8a6e:	66 85 c0             	test   %ax,%ax
    8a71:	74 07                	je     8a7a <func_90+0x145d>
    8a73:	b8 01 00 00 00       	mov    $0x1,%eax
    8a78:	eb 05                	jmp    8a7f <func_90+0x1462>
    8a7a:	b8 00 00 00 00       	mov    $0x0,%eax
    8a7f:	3b 85 bc ee ff ff    	cmp    -0x1144(%rbp),%eax
    8a85:	7f 0a                	jg     8a91 <func_90+0x1474>
    8a87:	8b 05 c3 55 00 00    	mov    0x55c3(%rip),%eax        # e050 <g_60>
    8a8d:	85 c0                	test   %eax,%eax
    8a8f:	74 07                	je     8a98 <func_90+0x147b>
    8a91:	b8 01 00 00 00       	mov    $0x1,%eax
    8a96:	eb 05                	jmp    8a9d <func_90+0x1480>
    8a98:	b8 00 00 00 00       	mov    $0x0,%eax
    8a9d:	48 63 c8             	movslq %eax,%rcx
    8aa0:	48 8b 05 11 5b 00 00 	mov    0x5b11(%rip),%rax        # e5b8 <g_126+0x4f8>
    8aa7:	48 39 c1             	cmp    %rax,%rcx
    8aaa:	0f 92 c0             	setb   %al
    8aad:	0f b6 c0             	movzbl %al,%eax
    8ab0:	39 c2                	cmp    %eax,%edx
    8ab2:	0f 9d c0             	setge  %al
    8ab5:	0f b6 c0             	movzbl %al,%eax
    8ab8:	39 85 bc ee ff ff    	cmp    %eax,-0x1144(%rbp)
    8abe:	7d 07                	jge    8ac7 <func_90+0x14aa>
    8ac0:	b8 01 00 00 00       	mov    $0x1,%eax
    8ac5:	eb 05                	jmp    8acc <func_90+0x14af>
    8ac7:	b8 00 00 00 00       	mov    $0x0,%eax
    8acc:	89 c2                	mov    %eax,%edx
    8ace:	8b 85 bc ee ff ff    	mov    -0x1144(%rbp),%eax
    8ad4:	31 d0                	xor    %edx,%eax
    8ad6:	0f bf d0             	movswl %ax,%edx
    8ad9:	b8 f9 ff ff ff       	mov    $0xfffffff9,%eax
    8ade:	98                   	cwtl   
    8adf:	89 d6                	mov    %edx,%esi
    8ae1:	89 c7                	mov    %eax,%edi
    8ae3:	e8 0d a9 ff ff       	callq  33f5 <safe_mul_func_int16_t_s_s>
    8ae8:	8b 05 62 55 00 00    	mov    0x5562(%rip),%eax        # e050 <g_60>
    8aee:	48 63 d0             	movslq %eax,%rdx
    8af1:	48 8b 05 50 5d 00 00 	mov    0x5d50(%rip),%rax        # e848 <g_159>
    8af8:	48 31 d0             	xor    %rdx,%rax
    8afb:	48 89 05 46 5d 00 00 	mov    %rax,0x5d46(%rip)        # e848 <g_159>
    8b02:	48 8b 05 37 5e 00 00 	mov    0x5e37(%rip),%rax        # e940 <g_160+0xe0>
    8b09:	83 e0 09             	and    $0x9,%eax
    8b0c:	48 89 05 2d 5e 00 00 	mov    %rax,0x5e2d(%rip)        # e940 <g_160+0xe0>
    8b13:	8b 05 5f 5e 00 00    	mov    0x5e5f(%rip),%eax        # e978 <g_161>
    8b19:	83 e8 01             	sub    $0x1,%eax
    8b1c:	89 05 56 5e 00 00    	mov    %eax,0x5e56(%rip)        # e978 <g_161>
    8b22:	48 8b 05 17 55 00 00 	mov    0x5517(%rip),%rax        # e040 <g_57>
    8b29:	48 83 e8 01          	sub    $0x1,%rax
    8b2d:	48 89 05 0c 55 00 00 	mov    %rax,0x550c(%rip)        # e040 <g_57>
    8b34:	48 8b 05 05 55 00 00 	mov    0x5505(%rip),%rax        # e040 <g_57>
    8b3b:	48 83 f8 e2          	cmp    $0xffffffffffffffe2,%rax
    8b3f:	0f 85 6f fd ff ff    	jne    88b4 <func_90+0x1297>
    8b45:	eb 01                	jmp    8b48 <func_90+0x152b>
    8b47:	90                   	nop
    8b48:	0f b6 05 f9 70 00 00 	movzbl 0x70f9(%rip),%eax        # fc48 <g_110>
    8b4f:	83 c0 01             	add    $0x1,%eax
    8b52:	88 05 f0 70 00 00    	mov    %al,0x70f0(%rip)        # fc48 <g_110>
    8b58:	0f b6 05 e9 70 00 00 	movzbl 0x70e9(%rip),%eax        # fc48 <g_110>
    8b5f:	3c 0f                	cmp    $0xf,%al
    8b61:	0f 86 0a fd ff ff    	jbe    8871 <func_90+0x1254>
    8b67:	eb 01                	jmp    8b6a <func_90+0x154d>
    8b69:	90                   	nop
    8b6a:	48 8b 05 ef 69 00 00 	mov    0x69ef(%rip),%rax        # f560 <g_135>
    8b71:	48 8d 95 9c ee ff ff 	lea    -0x1164(%rbp),%rdx
    8b78:	48 89 10             	mov    %rdx,(%rax)
    8b7b:	48 c7 05 ba 54 00 00 	movq   $0x16,0x54ba(%rip)        # e040 <g_57>
    8b82:	16 00 00 00 
    8b86:	eb 39                	jmp    8bc1 <func_90+0x15a4>
    8b88:	48 c7 85 e8 ee ff ff 	movq   $0x0,-0x1118(%rbp)
    8b8f:	00 00 00 00 
    8b93:	48 8d 85 e8 ee ff ff 	lea    -0x1118(%rbp),%rax
    8b9a:	48 89 85 40 ef ff ff 	mov    %rax,-0x10c0(%rbp)
    8ba1:	48 8b 85 40 ef ff ff 	mov    -0x10c0(%rbp),%rax
    8ba8:	48 c7 00 00 00 00 00 	movq   $0x0,(%rax)
    8baf:	48 8b 05 8a 54 00 00 	mov    0x548a(%rip),%rax        # e040 <g_57>
    8bb6:	48 83 c0 01          	add    $0x1,%rax
    8bba:	48 89 05 7f 54 00 00 	mov    %rax,0x547f(%rip)        # e040 <g_57>
    8bc1:	48 8b 05 78 54 00 00 	mov    0x5478(%rip),%rax        # e040 <g_57>
    8bc8:	48 83 f8 17          	cmp    $0x17,%rax
    8bcc:	74 ba                	je     8b88 <func_90+0x156b>
    8bce:	c7 85 b4 ee ff ff ee 	movl   $0xffffffee,-0x114c(%rbp)
    8bd5:	ff ff ff 
    8bd8:	83 bd b4 ee ff ff f7 	cmpl   $0xfffffff7,-0x114c(%rbp)
    8bdf:	75 4b                	jne    8c2c <func_90+0x160f>
    8be1:	b8 f9 ff ff ff       	mov    $0xfffffff9,%eax
    8be6:	e9 34 03 00 00       	jmpq   8f1f <func_90+0x1902>
    8beb:	c6 85 9a ee ff ff fa 	movb   $0xfa,-0x1166(%rbp)
    8bf2:	48 8d 85 d0 ee ff ff 	lea    -0x1130(%rbp),%rax
    8bf9:	48 89 85 e8 ee ff ff 	mov    %rax,-0x1118(%rbp)
    8c00:	48 8d 85 e8 ee ff ff 	lea    -0x1118(%rbp),%rax
    8c07:	48 89 85 28 ef ff ff 	mov    %rax,-0x10d8(%rbp)
    8c0e:	80 bd 9a ee ff ff 00 	cmpb   $0x0,-0x1166(%rbp)
    8c15:	0f 85 84 01 00 00    	jne    8d9f <func_90+0x1782>
    8c1b:	48 8b 85 28 ef ff ff 	mov    -0x10d8(%rbp),%rax
    8c22:	48 8d 95 d0 ee ff ff 	lea    -0x1130(%rbp),%rdx
    8c29:	48 89 10             	mov    %rdx,(%rax)
    8c2c:	8b 05 4a 5d 00 00    	mov    0x5d4a(%rip),%eax        # e97c <g_174>
    8c32:	0d 72 c8 00 00       	or     $0xc872,%eax
    8c37:	89 05 3f 5d 00 00    	mov    %eax,0x5d3f(%rip)        # e97c <g_174>
    8c3d:	48 8b 85 00 ef ff ff 	mov    -0x1100(%rbp),%rax
    8c44:	48 8d 15 fd 53 00 00 	lea    0x53fd(%rip),%rdx        # e048 <g_58>
    8c4b:	48 89 10             	mov    %rdx,(%rax)
    8c4e:	48 8b 85 00 ef ff ff 	mov    -0x1100(%rbp),%rax
    8c55:	48 8b 00             	mov    (%rax),%rax
    8c58:	8b 15 ce 53 00 00    	mov    0x53ce(%rip),%edx        # e02c <g_21>
    8c5e:	48 63 d2             	movslq %edx,%rdx
    8c61:	48 8d 0c d5 00 00 00 	lea    0x0(,%rdx,8),%rcx
    8c68:	00 
    8c69:	48 8d 15 f0 53 00 00 	lea    0x53f0(%rip),%rdx        # e060 <g_93>
    8c70:	48 01 ca             	add    %rcx,%rdx
    8c73:	48 39 d0             	cmp    %rdx,%rax
    8c76:	0f 84 9f 00 00 00    	je     8d1b <func_90+0x16fe>
    8c7c:	0f be 9d 99 ee ff ff 	movsbl -0x1167(%rbp),%ebx
    8c83:	48 8b 85 10 ef ff ff 	mov    -0x10f0(%rbp),%rax
    8c8a:	0f b6 00             	movzbl (%rax),%eax
    8c8d:	83 c8 c3             	or     $0xffffffc3,%eax
    8c90:	89 c2                	mov    %eax,%edx
    8c92:	48 8b 85 10 ef ff ff 	mov    -0x10f0(%rbp),%rax
    8c99:	88 10                	mov    %dl,(%rax)
    8c9b:	48 8b 85 10 ef ff ff 	mov    -0x10f0(%rbp),%rax
    8ca2:	0f b6 10             	movzbl (%rax),%edx
    8ca5:	48 8b 85 18 ef ff ff 	mov    -0x10e8(%rbp),%rax
    8cac:	88 10                	mov    %dl,(%rax)
    8cae:	48 8b 85 18 ef ff ff 	mov    -0x10e8(%rbp),%rax
    8cb5:	0f b6 00             	movzbl (%rax),%eax
    8cb8:	83 f0 01             	xor    $0x1,%eax
    8cbb:	0f b6 c0             	movzbl %al,%eax
    8cbe:	48 89 c6             	mov    %rax,%rsi
    8cc1:	48 bf 17 59 87 28 e6 	movabs $0x9feab6e628875917,%rdi
    8cc8:	b6 ea 9f 
    8ccb:	e8 7b b3 ff ff       	callq  404b <safe_sub_func_uint64_t_u_u>
    8cd0:	66 c7 05 c7 53 00 00 	movw   $0x1,0x53c7(%rip)        # e0a0 <g_119>
    8cd7:	01 00 
    8cd9:	0f b7 05 c0 53 00 00 	movzwl 0x53c0(%rip),%eax        # e0a0 <g_119>
    8ce0:	98                   	cwtl   
    8ce1:	be f7 ff ff ff       	mov    $0xfffffff7,%esi
    8ce6:	89 c7                	mov    %eax,%edi
    8ce8:	e8 08 a7 ff ff       	callq  33f5 <safe_mul_func_int16_t_s_s>
    8ced:	66 85 c0             	test   %ax,%ax
    8cf0:	74 0a                	je     8cfc <func_90+0x16df>
    8cf2:	0f b7 05 2b 53 00 00 	movzwl 0x532b(%rip),%eax        # e024 <g_16>
    8cf9:	66 85 c0             	test   %ax,%ax
    8cfc:	c7 05 7e 5c 00 00 01 	movl   $0x1,0x5c7e(%rip)        # e984 <g_190>
    8d03:	00 00 00 
    8d06:	8b 05 78 5c 00 00    	mov    0x5c78(%rip),%eax        # e984 <g_190>
    8d0c:	98                   	cwtl   
    8d0d:	89 de                	mov    %ebx,%esi
    8d0f:	89 c7                	mov    %eax,%edi
    8d11:	e8 df a6 ff ff       	callq  33f5 <safe_mul_func_int16_t_s_s>
    8d16:	66 85 c0             	test   %ax,%ax
    8d19:	74 07                	je     8d22 <func_90+0x1705>
    8d1b:	b8 01 00 00 00       	mov    $0x1,%eax
    8d20:	eb 05                	jmp    8d27 <func_90+0x170a>
    8d22:	b8 00 00 00 00       	mov    $0x0,%eax
    8d27:	3d 1d e8 51 5c       	cmp    $0x5c51e81d,%eax
    8d2c:	0f 9f c0             	setg   %al
    8d2f:	0f b6 d0             	movzbl %al,%edx
    8d32:	8b 05 18 53 00 00    	mov    0x5318(%rip),%eax        # e050 <g_60>
    8d38:	39 c2                	cmp    %eax,%edx
    8d3a:	0f 9d c0             	setge  %al
    8d3d:	0f b6 c0             	movzbl %al,%eax
    8d40:	be fd ff 00 00       	mov    $0xfffd,%esi
    8d45:	89 c7                	mov    %eax,%edi
    8d47:	e8 10 b0 ff ff       	callq  3d5c <safe_mod_func_uint16_t_u_u>
    8d4c:	48 8b 85 20 ef ff ff 	mov    -0x10e0(%rbp),%rax
    8d53:	c6 00 00             	movb   $0x0,(%rax)
    8d56:	48 8b 85 20 ef ff ff 	mov    -0x10e0(%rbp),%rax
    8d5d:	0f b6 00             	movzbl (%rax),%eax
    8d60:	0f b6 c0             	movzbl %al,%eax
    8d63:	89 c6                	mov    %eax,%esi
    8d65:	bf a2 00 00 00       	mov    $0xa2,%edi
    8d6a:	e8 24 ae ff ff       	callq  3b93 <safe_mul_func_uint8_t_u_u>
    8d6f:	ba 00 00 00 00       	mov    $0x0,%edx
    8d74:	8b 05 2e 5c 00 00    	mov    0x5c2e(%rip),%eax        # e9a8 <g_194+0x8>
    8d7a:	09 d0                	or     %edx,%eax
    8d7c:	89 05 26 5c 00 00    	mov    %eax,0x5c26(%rip)        # e9a8 <g_194+0x8>
    8d82:	8b 05 a4 52 00 00    	mov    0x52a4(%rip),%eax        # e02c <g_21>
    8d88:	83 e8 01             	sub    $0x1,%eax
    8d8b:	89 05 9b 52 00 00    	mov    %eax,0x529b(%rip)        # e02c <g_21>
    8d91:	8b 05 95 52 00 00    	mov    0x5295(%rip),%eax        # e02c <g_21>
    8d97:	85 c0                	test   %eax,%eax
    8d99:	0f 89 c3 eb ff ff    	jns    7962 <func_90+0x345>
    8d9f:	c7 05 a7 52 00 00 00 	movl   $0x0,0x52a7(%rip)        # e050 <g_60>
    8da6:	00 00 00 
    8da9:	e9 47 01 00 00       	jmpq   8ef5 <func_90+0x18d8>
    8dae:	48 c7 85 48 ef ff ff 	movq   $0x1,-0x10b8(%rbp)
    8db5:	01 00 00 00 
    8db9:	c7 85 c0 ee ff ff af 	movl   $0x12d827af,-0x1140(%rbp)
    8dc0:	27 d8 12 
    8dc3:	c7 85 c4 ee ff ff fe 	movl   $0xfffffffe,-0x113c(%rbp)
    8dca:	ff ff ff 
    8dcd:	c7 85 c8 ee ff ff 01 	movl   $0x1,-0x1138(%rbp)
    8dd4:	00 00 00 
    8dd7:	c7 85 10 f9 ff ff 66 	movl   $0xfa4e0b66,-0x6f0(%rbp)
    8dde:	0b 4e fa 
    8de1:	c7 85 14 f9 ff ff 66 	movl   $0xfa4e0b66,-0x6ec(%rbp)
    8de8:	0b 4e fa 
    8deb:	c7 85 18 f9 ff ff 00 	movl   $0x0,-0x6e8(%rbp)
    8df2:	00 00 00 
    8df5:	c7 85 1c f9 ff ff 66 	movl   $0xfa4e0b66,-0x6e4(%rbp)
    8dfc:	0b 4e fa 
    8dff:	c7 85 20 f9 ff ff 66 	movl   $0xfa4e0b66,-0x6e0(%rbp)
    8e06:	0b 4e fa 
    8e09:	c7 85 24 f9 ff ff 00 	movl   $0x0,-0x6dc(%rbp)
    8e10:	00 00 00 
    8e13:	c7 85 28 f9 ff ff 66 	movl   $0xfa4e0b66,-0x6d8(%rbp)
    8e1a:	0b 4e fa 
    8e1d:	c7 85 2c f9 ff ff 66 	movl   $0xfa4e0b66,-0x6d4(%rbp)
    8e24:	0b 4e fa 
    8e27:	c7 85 30 f9 ff ff 00 	movl   $0x0,-0x6d0(%rbp)
    8e2e:	00 00 00 
    8e31:	c7 85 34 f9 ff ff 66 	movl   $0xfa4e0b66,-0x6cc(%rbp)
    8e38:	0b 4e fa 
    8e3b:	c7 85 38 f9 ff ff 66 	movl   $0xfa4e0b66,-0x6c8(%rbp)
    8e42:	0b 4e fa 
    8e45:	c7 85 3c f9 ff ff 00 	movl   $0x0,-0x6c4(%rbp)
    8e4c:	00 00 00 
    8e4f:	c7 85 40 f9 ff ff 66 	movl   $0xfa4e0b66,-0x6c0(%rbp)
    8e56:	0b 4e fa 
    8e59:	c7 85 44 f9 ff ff 66 	movl   $0xfa4e0b66,-0x6bc(%rbp)
    8e60:	0b 4e fa 
    8e63:	c7 85 48 f9 ff ff 00 	movl   $0x0,-0x6b8(%rbp)
    8e6a:	00 00 00 
    8e6d:	c7 85 4c f9 ff ff 66 	movl   $0xfa4e0b66,-0x6b4(%rbp)
    8e74:	0b 4e fa 
    8e77:	c7 85 50 f9 ff ff 66 	movl   $0xfa4e0b66,-0x6b0(%rbp)
    8e7e:	0b 4e fa 
    8e81:	c7 85 54 f9 ff ff 00 	movl   $0x0,-0x6ac(%rbp)
    8e88:	00 00 00 
    8e8b:	c7 85 58 f9 ff ff 66 	movl   $0xfa4e0b66,-0x6a8(%rbp)
    8e92:	0b 4e fa 
    8e95:	c7 85 5c f9 ff ff 66 	movl   $0xfa4e0b66,-0x6a4(%rbp)
    8e9c:	0b 4e fa 
    8e9f:	c7 85 60 f9 ff ff 00 	movl   $0x0,-0x6a0(%rbp)
    8ea6:	00 00 00 
    8ea9:	c7 85 64 f9 ff ff 66 	movl   $0xfa4e0b66,-0x69c(%rbp)
    8eb0:	0b 4e fa 
    8eb3:	c7 85 68 f9 ff ff 66 	movl   $0xfa4e0b66,-0x698(%rbp)
    8eba:	0b 4e fa 
    8ebd:	c7 85 6c f9 ff ff 00 	movl   $0x0,-0x694(%rbp)
    8ec4:	00 00 00 
    8ec7:	c6 85 9b ee ff ff 08 	movb   $0x8,-0x1165(%rbp)
    8ece:	c7 85 cc ee ff ff 36 	movl   $0x8cf6da36,-0x1134(%rbp)
    8ed5:	da f6 8c 
    8ed8:	80 ad 9b ee ff ff 01 	subb   $0x1,-0x1165(%rbp)
    8edf:	83 ad cc ee ff ff 01 	subl   $0x1,-0x1134(%rbp)
    8ee6:	8b 05 64 51 00 00    	mov    0x5164(%rip),%eax        # e050 <g_60>
    8eec:	83 c0 01             	add    $0x1,%eax
    8eef:	89 05 5b 51 00 00    	mov    %eax,0x515b(%rip)        # e050 <g_60>
    8ef5:	8b 05 55 51 00 00    	mov    0x5155(%rip),%eax        # e050 <g_60>
    8efb:	83 f8 0d             	cmp    $0xd,%eax
    8efe:	0f 8f aa fe ff ff    	jg     8dae <func_90+0x1791>
    8f04:	48 8b 05 55 66 00 00 	mov    0x6655(%rip),%rax        # f560 <g_135>
    8f0b:	48 8d 95 9c ee ff ff 	lea    -0x1164(%rbp),%rdx
    8f12:	48 89 10             	mov    %rdx,(%rax)
    8f15:	48 8b 85 88 ee ff ff 	mov    -0x1178(%rbp),%rax
    8f1c:	0f b7 00             	movzwl (%rax),%eax
    8f1f:	48 8b 5d d8          	mov    -0x28(%rbp),%rbx
    8f23:	64 48 33 1c 25 28 00 	xor    %fs:0x28,%rbx
    8f2a:	00 00 
    8f2c:	74 05                	je     8f33 <func_90+0x1916>
    8f2e:	e8 3d a1 ff ff       	callq  3070 <__stack_chk_fail@plt>
    8f33:	48 81 c4 68 11 00 00 	add    $0x1168,%rsp
    8f3a:	5b                   	pop    %rbx
    8f3b:	41 5c                	pop    %r12
    8f3d:	41 5d                	pop    %r13
    8f3f:	5d                   	pop    %rbp
    8f40:	c3                   	retq   

0000000000008f41 <main>:
    8f41:	f3 0f 1e fa          	endbr64 
    8f45:	55                   	push   %rbp
    8f46:	48 89 e5             	mov    %rsp,%rbp
    8f49:	48 83 ec 20          	sub    $0x20,%rsp
    8f4d:	89 7d ec             	mov    %edi,-0x14(%rbp)
    8f50:	48 89 75 e0          	mov    %rsi,-0x20(%rbp)
    8f54:	c7 45 fc 00 00 00 00 	movl   $0x0,-0x4(%rbp)
    8f5b:	83 7d ec 02          	cmpl   $0x2,-0x14(%rbp)
    8f5f:	75 25                	jne    8f86 <main+0x45>
    8f61:	48 8b 45 e0          	mov    -0x20(%rbp),%rax
    8f65:	48 83 c0 08          	add    $0x8,%rax
    8f69:	48 8b 00             	mov    (%rax),%rax
    8f6c:	48 8d 35 4d 1f 00 00 	lea    0x1f4d(%rip),%rsi        # aec0 <g_889+0xe5e>
    8f73:	48 89 c7             	mov    %rax,%rdi
    8f76:	e8 15 a1 ff ff       	callq  3090 <strcmp@plt>
    8f7b:	85 c0                	test   %eax,%eax
    8f7d:	75 07                	jne    8f86 <main+0x45>
    8f7f:	c7 45 fc 01 00 00 00 	movl   $0x1,-0x4(%rbp)
    8f86:	e8 fe a1 ff ff       	callq  3189 <platform_main_begin>
    8f8b:	e8 08 b6 ff ff       	callq  4598 <crc32_gentab>
    8f90:	e8 20 b8 ff ff       	callq  47b5 <func_1>
    8f95:	0f b7 05 88 50 00 00 	movzwl 0x5088(%rip),%eax        # e024 <g_16>
    8f9c:	48 0f bf c0          	movswq %ax,%rax
    8fa0:	8b 55 fc             	mov    -0x4(%rbp),%edx
    8fa3:	48 8d 35 18 1f 00 00 	lea    0x1f18(%rip),%rsi        # aec2 <g_889+0xe60>
    8faa:	48 89 c7             	mov    %rax,%rdi
    8fad:	e8 41 b7 ff ff       	callq  46f3 <transparent_crc>
    8fb2:	8b 05 70 50 00 00    	mov    0x5070(%rip),%eax        # e028 <g_17>
    8fb8:	48 98                	cltq   
    8fba:	8b 55 fc             	mov    -0x4(%rbp),%edx
    8fbd:	48 8d 35 03 1f 00 00 	lea    0x1f03(%rip),%rsi        # aec7 <g_889+0xe65>
    8fc4:	48 89 c7             	mov    %rax,%rdi
    8fc7:	e8 27 b7 ff ff       	callq  46f3 <transparent_crc>
    8fcc:	8b 05 5a 50 00 00    	mov    0x505a(%rip),%eax        # e02c <g_21>
    8fd2:	48 98                	cltq   
    8fd4:	8b 55 fc             	mov    -0x4(%rbp),%edx
    8fd7:	48 8d 35 f1 1e 00 00 	lea    0x1ef1(%rip),%rsi        # aecf <g_889+0xe6d>
    8fde:	48 89 c7             	mov    %rax,%rdi
    8fe1:	e8 0d b7 ff ff       	callq  46f3 <transparent_crc>
    8fe6:	48 8b 05 43 50 00 00 	mov    0x5043(%rip),%rax        # e030 <g_23>
    8fed:	8b 55 fc             	mov    -0x4(%rbp),%edx
    8ff0:	48 8d 35 dd 1e 00 00 	lea    0x1edd(%rip),%rsi        # aed4 <g_889+0xe72>
    8ff7:	48 89 c7             	mov    %rax,%rdi
    8ffa:	e8 f4 b6 ff ff       	callq  46f3 <transparent_crc>
    8fff:	0f b6 05 32 50 00 00 	movzbl 0x5032(%rip),%eax        # e038 <g_47>
    9006:	0f b6 c0             	movzbl %al,%eax
    9009:	8b 55 fc             	mov    -0x4(%rbp),%edx
    900c:	48 8d 35 c6 1e 00 00 	lea    0x1ec6(%rip),%rsi        # aed9 <g_889+0xe77>
    9013:	48 89 c7             	mov    %rax,%rdi
    9016:	e8 d8 b6 ff ff       	callq  46f3 <transparent_crc>
    901b:	48 8b 05 1e 50 00 00 	mov    0x501e(%rip),%rax        # e040 <g_57>
    9022:	48 89 c1             	mov    %rax,%rcx
    9025:	8b 45 fc             	mov    -0x4(%rbp),%eax
    9028:	89 c2                	mov    %eax,%edx
    902a:	48 8d 35 ad 1e 00 00 	lea    0x1ead(%rip),%rsi        # aede <g_889+0xe7c>
    9031:	48 89 cf             	mov    %rcx,%rdi
    9034:	e8 ba b6 ff ff       	callq  46f3 <transparent_crc>
    9039:	48 8b 05 08 50 00 00 	mov    0x5008(%rip),%rax        # e048 <g_58>
    9040:	48 89 c1             	mov    %rax,%rcx
    9043:	8b 45 fc             	mov    -0x4(%rbp),%eax
    9046:	89 c2                	mov    %eax,%edx
    9048:	48 8d 35 94 1e 00 00 	lea    0x1e94(%rip),%rsi        # aee3 <g_889+0xe81>
    904f:	48 89 cf             	mov    %rcx,%rdi
    9052:	e8 9c b6 ff ff       	callq  46f3 <transparent_crc>
    9057:	8b 05 f3 4f 00 00    	mov    0x4ff3(%rip),%eax        # e050 <g_60>
    905d:	48 98                	cltq   
    905f:	8b 55 fc             	mov    -0x4(%rbp),%edx
    9062:	48 8d 35 7f 1e 00 00 	lea    0x1e7f(%rip),%rsi        # aee8 <g_889+0xe86>
    9069:	48 89 c7             	mov    %rax,%rdi
    906c:	e8 82 b6 ff ff       	callq  46f3 <transparent_crc>
    9071:	b8 f9 ff ff ff       	mov    $0xfffffff9,%eax
    9076:	48 98                	cltq   
    9078:	8b 55 fc             	mov    -0x4(%rbp),%edx
    907b:	48 8d 35 6b 1e 00 00 	lea    0x1e6b(%rip),%rsi        # aeed <g_889+0xe8b>
    9082:	48 89 c7             	mov    %rax,%rdi
    9085:	e8 69 b6 ff ff       	callq  46f3 <transparent_crc>
    908a:	0f b7 05 c3 4f 00 00 	movzwl 0x4fc3(%rip),%eax        # e054 <g_89>
    9091:	0f b7 c0             	movzwl %ax,%eax
    9094:	8b 55 fc             	mov    -0x4(%rbp),%edx
    9097:	48 8d 35 54 1e 00 00 	lea    0x1e54(%rip),%rsi        # aef2 <g_889+0xe90>
    909e:	48 89 c7             	mov    %rax,%rdi
    90a1:	e8 4d b6 ff ff       	callq  46f3 <transparent_crc>
    90a6:	c7 45 f0 00 00 00 00 	movl   $0x0,-0x10(%rbp)
    90ad:	eb 4f                	jmp    90fe <main+0x1bd>
    90af:	8b 45 f0             	mov    -0x10(%rbp),%eax
    90b2:	48 98                	cltq   
    90b4:	48 8d 14 c5 00 00 00 	lea    0x0(,%rax,8),%rdx
    90bb:	00 
    90bc:	48 8d 05 9d 4f 00 00 	lea    0x4f9d(%rip),%rax        # e060 <g_93>
    90c3:	48 8b 04 02          	mov    (%rdx,%rax,1),%rax
    90c7:	48 89 c1             	mov    %rax,%rcx
    90ca:	8b 45 fc             	mov    -0x4(%rbp),%eax
    90cd:	89 c2                	mov    %eax,%edx
    90cf:	48 8d 35 21 1e 00 00 	lea    0x1e21(%rip),%rsi        # aef7 <g_889+0xe95>
    90d6:	48 89 cf             	mov    %rcx,%rdi
    90d9:	e8 15 b6 ff ff       	callq  46f3 <transparent_crc>
    90de:	83 7d fc 00          	cmpl   $0x0,-0x4(%rbp)
    90e2:	74 16                	je     90fa <main+0x1b9>
    90e4:	8b 45 f0             	mov    -0x10(%rbp),%eax
    90e7:	89 c6                	mov    %eax,%esi
    90e9:	48 8d 3d 0f 1e 00 00 	lea    0x1e0f(%rip),%rdi        # aeff <g_889+0xe9d>
    90f0:	b8 00 00 00 00       	mov    $0x0,%eax
    90f5:	e8 86 9f ff ff       	callq  3080 <printf@plt>
    90fa:	83 45 f0 01          	addl   $0x1,-0x10(%rbp)
    90fe:	83 7d f0 07          	cmpl   $0x7,-0x10(%rbp)
    9102:	7e ab                	jle    90af <main+0x16e>
    9104:	0f b6 05 3d 6b 00 00 	movzbl 0x6b3d(%rip),%eax        # fc48 <g_110>
    910b:	0f b6 c0             	movzbl %al,%eax
    910e:	8b 55 fc             	mov    -0x4(%rbp),%edx
    9111:	48 8d 35 f5 1d 00 00 	lea    0x1df5(%rip),%rsi        # af0d <g_889+0xeab>
    9118:	48 89 c7             	mov    %rax,%rdi
    911b:	e8 d3 b5 ff ff       	callq  46f3 <transparent_crc>
    9120:	0f b7 05 79 4f 00 00 	movzwl 0x4f79(%rip),%eax        # e0a0 <g_119>
    9127:	48 0f bf c0          	movswq %ax,%rax
    912b:	8b 55 fc             	mov    -0x4(%rbp),%edx
    912e:	48 8d 35 de 1d 00 00 	lea    0x1dde(%rip),%rsi        # af13 <g_889+0xeb1>
    9135:	48 89 c7             	mov    %rax,%rdi
    9138:	e8 b6 b5 ff ff       	callq  46f3 <transparent_crc>
    913d:	c7 45 f0 00 00 00 00 	movl   $0x0,-0x10(%rbp)
    9144:	e9 a6 00 00 00       	jmpq   91ef <main+0x2ae>
    9149:	c7 45 f4 00 00 00 00 	movl   $0x0,-0xc(%rbp)
    9150:	e9 8c 00 00 00       	jmpq   91e1 <main+0x2a0>
    9155:	c7 45 f8 00 00 00 00 	movl   $0x0,-0x8(%rbp)
    915c:	eb 79                	jmp    91d7 <main+0x296>
    915e:	8b 45 f8             	mov    -0x8(%rbp),%eax
    9161:	48 63 f0             	movslq %eax,%rsi
    9164:	8b 45 f0             	mov    -0x10(%rbp),%eax
    9167:	48 63 d0             	movslq %eax,%rdx
    916a:	8b 45 f4             	mov    -0xc(%rbp),%eax
    916d:	48 63 c8             	movslq %eax,%rcx
    9170:	48 89 d0             	mov    %rdx,%rax
    9173:	48 01 c0             	add    %rax,%rax
    9176:	48 01 d0             	add    %rdx,%rax
    9179:	48 c1 e0 03          	shl    $0x3,%rax
    917d:	48 89 ca             	mov    %rcx,%rdx
    9180:	48 01 d2             	add    %rdx,%rdx
    9183:	48 01 ca             	add    %rcx,%rdx
    9186:	48 01 d0             	add    %rdx,%rax
    9189:	48 01 f0             	add    %rsi,%rax
    918c:	48 8d 14 c5 00 00 00 	lea    0x0(,%rax,8),%rdx
    9193:	00 
    9194:	48 8d 05 25 4f 00 00 	lea    0x4f25(%rip),%rax        # e0c0 <g_126>
    919b:	48 8b 04 02          	mov    (%rdx,%rax,1),%rax
    919f:	8b 55 fc             	mov    -0x4(%rbp),%edx
    91a2:	48 8d 35 70 1d 00 00 	lea    0x1d70(%rip),%rsi        # af19 <g_889+0xeb7>
    91a9:	48 89 c7             	mov    %rax,%rdi
    91ac:	e8 42 b5 ff ff       	callq  46f3 <transparent_crc>
    91b1:	83 7d fc 00          	cmpl   $0x0,-0x4(%rbp)
    91b5:	74 1c                	je     91d3 <main+0x292>
    91b7:	8b 4d f8             	mov    -0x8(%rbp),%ecx
    91ba:	8b 55 f4             	mov    -0xc(%rbp),%edx
    91bd:	8b 45 f0             	mov    -0x10(%rbp),%eax
    91c0:	89 c6                	mov    %eax,%esi
    91c2:	48 8d 3d 5f 1d 00 00 	lea    0x1d5f(%rip),%rdi        # af28 <g_889+0xec6>
    91c9:	b8 00 00 00 00       	mov    $0x0,%eax
    91ce:	e8 ad 9e ff ff       	callq  3080 <printf@plt>
    91d3:	83 45 f8 01          	addl   $0x1,-0x8(%rbp)
    91d7:	83 7d f8 02          	cmpl   $0x2,-0x8(%rbp)
    91db:	7e 81                	jle    915e <main+0x21d>
    91dd:	83 45 f4 01          	addl   $0x1,-0xc(%rbp)
    91e1:	83 7d f4 07          	cmpl   $0x7,-0xc(%rbp)
    91e5:	0f 8e 6a ff ff ff    	jle    9155 <main+0x214>
    91eb:	83 45 f0 01          	addl   $0x1,-0x10(%rbp)
    91ef:	83 7d f0 09          	cmpl   $0x9,-0x10(%rbp)
    91f3:	0f 8e 50 ff ff ff    	jle    9149 <main+0x208>
    91f9:	8b 05 41 56 00 00    	mov    0x5641(%rip),%eax        # e840 <g_139>
    91ff:	89 c1                	mov    %eax,%ecx
    9201:	8b 45 fc             	mov    -0x4(%rbp),%eax
    9204:	89 c2                	mov    %eax,%edx
    9206:	48 8d 35 31 1d 00 00 	lea    0x1d31(%rip),%rsi        # af3e <g_889+0xedc>
    920d:	48 89 cf             	mov    %rcx,%rdi
    9210:	e8 de b4 ff ff       	callq  46f3 <transparent_crc>
    9215:	48 8b 05 2c 56 00 00 	mov    0x562c(%rip),%rax        # e848 <g_159>
    921c:	48 89 c1             	mov    %rax,%rcx
    921f:	8b 45 fc             	mov    -0x4(%rbp),%eax
    9222:	89 c2                	mov    %eax,%edx
    9224:	48 8d 35 19 1d 00 00 	lea    0x1d19(%rip),%rsi        # af44 <g_889+0xee2>
    922b:	48 89 cf             	mov    %rcx,%rdi
    922e:	e8 c0 b4 ff ff       	callq  46f3 <transparent_crc>
    9233:	c7 45 f0 00 00 00 00 	movl   $0x0,-0x10(%rbp)
    923a:	eb 74                	jmp    92b0 <main+0x36f>
    923c:	c7 45 f4 00 00 00 00 	movl   $0x0,-0xc(%rbp)
    9243:	eb 61                	jmp    92a6 <main+0x365>
    9245:	8b 45 f4             	mov    -0xc(%rbp),%eax
    9248:	48 63 c8             	movslq %eax,%rcx
    924b:	8b 45 f0             	mov    -0x10(%rbp),%eax
    924e:	48 63 d0             	movslq %eax,%rdx
    9251:	48 89 d0             	mov    %rdx,%rax
    9254:	48 c1 e0 02          	shl    $0x2,%rax
    9258:	48 01 d0             	add    %rdx,%rax
    925b:	48 01 c8             	add    %rcx,%rax
    925e:	48 8d 14 c5 00 00 00 	lea    0x0(,%rax,8),%rdx
    9265:	00 
    9266:	48 8d 05 f3 55 00 00 	lea    0x55f3(%rip),%rax        # e860 <g_160>
    926d:	48 8b 04 02          	mov    (%rdx,%rax,1),%rax
    9271:	8b 55 fc             	mov    -0x4(%rbp),%edx
    9274:	48 8d 35 cf 1c 00 00 	lea    0x1ccf(%rip),%rsi        # af4a <g_889+0xee8>
    927b:	48 89 c7             	mov    %rax,%rdi
    927e:	e8 70 b4 ff ff       	callq  46f3 <transparent_crc>
    9283:	83 7d fc 00          	cmpl   $0x0,-0x4(%rbp)
    9287:	74 19                	je     92a2 <main+0x361>
    9289:	8b 55 f4             	mov    -0xc(%rbp),%edx
    928c:	8b 45 f0             	mov    -0x10(%rbp),%eax
    928f:	89 c6                	mov    %eax,%esi
    9291:	48 8d 3d be 1c 00 00 	lea    0x1cbe(%rip),%rdi        # af56 <g_889+0xef4>
    9298:	b8 00 00 00 00       	mov    $0x0,%eax
    929d:	e8 de 9d ff ff       	callq  3080 <printf@plt>
    92a2:	83 45 f4 01          	addl   $0x1,-0xc(%rbp)
    92a6:	83 7d f4 04          	cmpl   $0x4,-0xc(%rbp)
    92aa:	7e 99                	jle    9245 <main+0x304>
    92ac:	83 45 f0 01          	addl   $0x1,-0x10(%rbp)
    92b0:	83 7d f0 06          	cmpl   $0x6,-0x10(%rbp)
    92b4:	7e 86                	jle    923c <main+0x2fb>
    92b6:	8b 05 bc 56 00 00    	mov    0x56bc(%rip),%eax        # e978 <g_161>
    92bc:	89 c1                	mov    %eax,%ecx
    92be:	8b 45 fc             	mov    -0x4(%rbp),%eax
    92c1:	89 c2                	mov    %eax,%edx
    92c3:	48 8d 35 9e 1c 00 00 	lea    0x1c9e(%rip),%rsi        # af68 <g_889+0xf06>
    92ca:	48 89 cf             	mov    %rcx,%rdi
    92cd:	e8 21 b4 ff ff       	callq  46f3 <transparent_crc>
    92d2:	8b 05 a4 56 00 00    	mov    0x56a4(%rip),%eax        # e97c <g_174>
    92d8:	48 98                	cltq   
    92da:	8b 55 fc             	mov    -0x4(%rbp),%edx
    92dd:	48 8d 35 8a 1c 00 00 	lea    0x1c8a(%rip),%rsi        # af6e <g_889+0xf0c>
    92e4:	48 89 c7             	mov    %rax,%rdi
    92e7:	e8 07 b4 ff ff       	callq  46f3 <transparent_crc>
    92ec:	0f b6 05 8d 56 00 00 	movzbl 0x568d(%rip),%eax        # e980 <g_189>
    92f3:	0f b6 c0             	movzbl %al,%eax
    92f6:	8b 55 fc             	mov    -0x4(%rbp),%edx
    92f9:	48 8d 35 74 1c 00 00 	lea    0x1c74(%rip),%rsi        # af74 <g_889+0xf12>
    9300:	48 89 c7             	mov    %rax,%rdi
    9303:	e8 eb b3 ff ff       	callq  46f3 <transparent_crc>
    9308:	8b 05 76 56 00 00    	mov    0x5676(%rip),%eax        # e984 <g_190>
    930e:	89 c1                	mov    %eax,%ecx
    9310:	8b 45 fc             	mov    -0x4(%rbp),%eax
    9313:	89 c2                	mov    %eax,%edx
    9315:	48 8d 35 5e 1c 00 00 	lea    0x1c5e(%rip),%rsi        # af7a <g_889+0xf18>
    931c:	48 89 cf             	mov    %rcx,%rdi
    931f:	e8 cf b3 ff ff       	callq  46f3 <transparent_crc>
    9324:	0f b6 05 2d 69 00 00 	movzbl 0x692d(%rip),%eax        # fc58 <g_193>
    932b:	0f b6 c0             	movzbl %al,%eax
    932e:	8b 55 fc             	mov    -0x4(%rbp),%edx
    9331:	48 8d 35 48 1c 00 00 	lea    0x1c48(%rip),%rsi        # af80 <g_889+0xf1e>
    9338:	48 89 c7             	mov    %rax,%rdi
    933b:	e8 b3 b3 ff ff       	callq  46f3 <transparent_crc>
    9340:	c7 45 f0 00 00 00 00 	movl   $0x0,-0x10(%rbp)
    9347:	eb 4b                	jmp    9394 <main+0x453>
    9349:	8b 45 f0             	mov    -0x10(%rbp),%eax
    934c:	48 98                	cltq   
    934e:	48 8d 14 85 00 00 00 	lea    0x0(,%rax,4),%rdx
    9355:	00 
    9356:	48 8d 05 43 56 00 00 	lea    0x5643(%rip),%rax        # e9a0 <g_194>
    935d:	8b 04 02             	mov    (%rdx,%rax,1),%eax
    9360:	48 98                	cltq   
    9362:	8b 55 fc             	mov    -0x4(%rbp),%edx
    9365:	48 8d 35 1a 1c 00 00 	lea    0x1c1a(%rip),%rsi        # af86 <g_889+0xf24>
    936c:	48 89 c7             	mov    %rax,%rdi
    936f:	e8 7f b3 ff ff       	callq  46f3 <transparent_crc>
    9374:	83 7d fc 00          	cmpl   $0x0,-0x4(%rbp)
    9378:	74 16                	je     9390 <main+0x44f>
    937a:	8b 45 f0             	mov    -0x10(%rbp),%eax
    937d:	89 c6                	mov    %eax,%esi
    937f:	48 8d 3d 79 1b 00 00 	lea    0x1b79(%rip),%rdi        # aeff <g_889+0xe9d>
    9386:	b8 00 00 00 00       	mov    $0x0,%eax
    938b:	e8 f0 9c ff ff       	callq  3080 <printf@plt>
    9390:	83 45 f0 01          	addl   $0x1,-0x10(%rbp)
    9394:	83 7d f0 07          	cmpl   $0x7,-0x10(%rbp)
    9398:	7e af                	jle    9349 <main+0x408>
    939a:	8b 05 20 56 00 00    	mov    0x5620(%rip),%eax        # e9c0 <g_209>
    93a0:	89 c1                	mov    %eax,%ecx
    93a2:	8b 45 fc             	mov    -0x4(%rbp),%eax
    93a5:	89 c2                	mov    %eax,%edx
    93a7:	48 8d 35 e1 1b 00 00 	lea    0x1be1(%rip),%rsi        # af8f <g_889+0xf2d>
    93ae:	48 89 cf             	mov    %rcx,%rdi
    93b1:	e8 3d b3 ff ff       	callq  46f3 <transparent_crc>
    93b6:	0f b7 05 07 56 00 00 	movzwl 0x5607(%rip),%eax        # e9c4 <g_251>
    93bd:	48 0f bf c0          	movswq %ax,%rax
    93c1:	8b 55 fc             	mov    -0x4(%rbp),%edx
    93c4:	48 8d 35 ca 1b 00 00 	lea    0x1bca(%rip),%rsi        # af95 <g_889+0xf33>
    93cb:	48 89 c7             	mov    %rax,%rdi
    93ce:	e8 20 b3 ff ff       	callq  46f3 <transparent_crc>
    93d3:	0f b7 05 ec 55 00 00 	movzwl 0x55ec(%rip),%eax        # e9c6 <g_278>
    93da:	0f b7 c0             	movzwl %ax,%eax
    93dd:	8b 55 fc             	mov    -0x4(%rbp),%edx
    93e0:	48 8d 35 b4 1b 00 00 	lea    0x1bb4(%rip),%rsi        # af9b <g_889+0xf39>
    93e7:	48 89 c7             	mov    %rax,%rdi
    93ea:	e8 04 b3 ff ff       	callq  46f3 <transparent_crc>
    93ef:	0f b6 05 d2 55 00 00 	movzbl 0x55d2(%rip),%eax        # e9c8 <g_343>
    93f6:	83 e0 0f             	and    $0xf,%eax
    93f9:	0f b6 c0             	movzbl %al,%eax
    93fc:	8b 55 fc             	mov    -0x4(%rbp),%edx
    93ff:	48 8d 35 9b 1b 00 00 	lea    0x1b9b(%rip),%rsi        # afa1 <g_889+0xf3f>
    9406:	48 89 c7             	mov    %rax,%rdi
    9409:	e8 e5 b2 ff ff       	callq  46f3 <transparent_crc>
    940e:	0f b6 05 b3 55 00 00 	movzbl 0x55b3(%rip),%eax        # e9c8 <g_343>
    9415:	c0 e8 04             	shr    $0x4,%al
    9418:	0f b6 c0             	movzbl %al,%eax
    941b:	0f b6 15 a7 55 00 00 	movzbl 0x55a7(%rip),%edx        # e9c9 <g_343+0x1>
    9422:	0f b6 d2             	movzbl %dl,%edx
    9425:	83 e2 1f             	and    $0x1f,%edx
    9428:	48 c1 e2 04          	shl    $0x4,%rdx
    942c:	48 09 d0             	or     %rdx,%rax
    942f:	48 c1 e0 37          	shl    $0x37,%rax
    9433:	48 c1 f8 37          	sar    $0x37,%rax
    9437:	48 0f bf c0          	movswq %ax,%rax
    943b:	8b 55 fc             	mov    -0x4(%rbp),%edx
    943e:	48 8d 35 65 1b 00 00 	lea    0x1b65(%rip),%rsi        # afaa <g_889+0xf48>
    9445:	48 89 c7             	mov    %rax,%rdi
    9448:	e8 a6 b2 ff ff       	callq  46f3 <transparent_crc>
    944d:	0f b6 05 75 55 00 00 	movzbl 0x5575(%rip),%eax        # e9c9 <g_343+0x1>
    9454:	c0 e8 05             	shr    $0x5,%al
    9457:	0f b6 c0             	movzbl %al,%eax
    945a:	0f b6 15 69 55 00 00 	movzbl 0x5569(%rip),%edx        # e9ca <g_343+0x2>
    9461:	0f b6 d2             	movzbl %dl,%edx
    9464:	83 e2 0f             	and    $0xf,%edx
    9467:	48 c1 e2 03          	shl    $0x3,%rdx
    946b:	48 09 d0             	or     %rdx,%rax
    946e:	48 c1 e0 39          	shl    $0x39,%rax
    9472:	48 c1 f8 39          	sar    $0x39,%rax
    9476:	48 0f be c0          	movsbq %al,%rax
    947a:	8b 55 fc             	mov    -0x4(%rbp),%edx
    947d:	48 8d 35 2f 1b 00 00 	lea    0x1b2f(%rip),%rsi        # afb3 <g_889+0xf51>
    9484:	48 89 c7             	mov    %rax,%rdi
    9487:	e8 67 b2 ff ff       	callq  46f3 <transparent_crc>
    948c:	0f b6 05 38 55 00 00 	movzbl 0x5538(%rip),%eax        # e9cb <g_378>
    9493:	48 0f be c0          	movsbq %al,%rax
    9497:	8b 55 fc             	mov    -0x4(%rbp),%edx
    949a:	48 8d 35 1b 1b 00 00 	lea    0x1b1b(%rip),%rsi        # afbc <g_889+0xf5a>
    94a1:	48 89 c7             	mov    %rax,%rdi
    94a4:	e8 4a b2 ff ff       	callq  46f3 <transparent_crc>
    94a9:	0f b6 05 1c 55 00 00 	movzbl 0x551c(%rip),%eax        # e9cc <g_394>
    94b0:	83 e0 0f             	and    $0xf,%eax
    94b3:	0f b6 c0             	movzbl %al,%eax
    94b6:	8b 55 fc             	mov    -0x4(%rbp),%edx
    94b9:	48 8d 35 02 1b 00 00 	lea    0x1b02(%rip),%rsi        # afc2 <g_889+0xf60>
    94c0:	48 89 c7             	mov    %rax,%rdi
    94c3:	e8 2b b2 ff ff       	callq  46f3 <transparent_crc>
    94c8:	0f b6 05 fd 54 00 00 	movzbl 0x54fd(%rip),%eax        # e9cc <g_394>
    94cf:	c0 e8 04             	shr    $0x4,%al
    94d2:	0f b6 c0             	movzbl %al,%eax
    94d5:	0f b6 15 f1 54 00 00 	movzbl 0x54f1(%rip),%edx        # e9cd <g_394+0x1>
    94dc:	0f b6 d2             	movzbl %dl,%edx
    94df:	83 e2 1f             	and    $0x1f,%edx
    94e2:	48 c1 e2 04          	shl    $0x4,%rdx
    94e6:	48 09 d0             	or     %rdx,%rax
    94e9:	48 c1 e0 37          	shl    $0x37,%rax
    94ed:	48 c1 f8 37          	sar    $0x37,%rax
    94f1:	48 0f bf c0          	movswq %ax,%rax
    94f5:	8b 55 fc             	mov    -0x4(%rbp),%edx
    94f8:	48 8d 35 cc 1a 00 00 	lea    0x1acc(%rip),%rsi        # afcb <g_889+0xf69>
    94ff:	48 89 c7             	mov    %rax,%rdi
    9502:	e8 ec b1 ff ff       	callq  46f3 <transparent_crc>
    9507:	0f b6 05 bf 54 00 00 	movzbl 0x54bf(%rip),%eax        # e9cd <g_394+0x1>
    950e:	c0 e8 05             	shr    $0x5,%al
    9511:	0f b6 c0             	movzbl %al,%eax
    9514:	0f b6 15 b3 54 00 00 	movzbl 0x54b3(%rip),%edx        # e9ce <g_394+0x2>
    951b:	0f b6 d2             	movzbl %dl,%edx
    951e:	83 e2 0f             	and    $0xf,%edx
    9521:	48 c1 e2 03          	shl    $0x3,%rdx
    9525:	48 09 d0             	or     %rdx,%rax
    9528:	48 c1 e0 39          	shl    $0x39,%rax
    952c:	48 c1 f8 39          	sar    $0x39,%rax
    9530:	48 0f be c0          	movsbq %al,%rax
    9534:	8b 55 fc             	mov    -0x4(%rbp),%edx
    9537:	48 8d 35 96 1a 00 00 	lea    0x1a96(%rip),%rsi        # afd4 <g_889+0xf72>
    953e:	48 89 c7             	mov    %rax,%rdi
    9541:	e8 ad b1 ff ff       	callq  46f3 <transparent_crc>
    9546:	b8 01 00 00 00       	mov    $0x1,%eax
    954b:	48 98                	cltq   
    954d:	8b 55 fc             	mov    -0x4(%rbp),%edx
    9550:	48 8d 35 86 1a 00 00 	lea    0x1a86(%rip),%rsi        # afdd <g_889+0xf7b>
    9557:	48 89 c7             	mov    %rax,%rdi
    955a:	e8 94 b1 ff ff       	callq  46f3 <transparent_crc>
    955f:	0f b6 05 69 54 00 00 	movzbl 0x5469(%rip),%eax        # e9cf <g_402>
    9566:	83 e0 0f             	and    $0xf,%eax
    9569:	0f b6 c0             	movzbl %al,%eax
    956c:	8b 55 fc             	mov    -0x4(%rbp),%edx
    956f:	48 8d 35 6d 1a 00 00 	lea    0x1a6d(%rip),%rsi        # afe3 <g_889+0xf81>
    9576:	48 89 c7             	mov    %rax,%rdi
    9579:	e8 75 b1 ff ff       	callq  46f3 <transparent_crc>
    957e:	0f b6 05 4a 54 00 00 	movzbl 0x544a(%rip),%eax        # e9cf <g_402>
    9585:	c0 e8 04             	shr    $0x4,%al
    9588:	0f b6 c0             	movzbl %al,%eax
    958b:	0f b6 15 3e 54 00 00 	movzbl 0x543e(%rip),%edx        # e9d0 <g_402+0x1>
    9592:	0f b6 d2             	movzbl %dl,%edx
    9595:	83 e2 1f             	and    $0x1f,%edx
    9598:	48 c1 e2 04          	shl    $0x4,%rdx
    959c:	48 09 d0             	or     %rdx,%rax
    959f:	48 c1 e0 37          	shl    $0x37,%rax
    95a3:	48 c1 f8 37          	sar    $0x37,%rax
    95a7:	48 0f bf c0          	movswq %ax,%rax
    95ab:	8b 55 fc             	mov    -0x4(%rbp),%edx
    95ae:	48 8d 35 37 1a 00 00 	lea    0x1a37(%rip),%rsi        # afec <g_889+0xf8a>
    95b5:	48 89 c7             	mov    %rax,%rdi
    95b8:	e8 36 b1 ff ff       	callq  46f3 <transparent_crc>
    95bd:	0f b6 05 0c 54 00 00 	movzbl 0x540c(%rip),%eax        # e9d0 <g_402+0x1>
    95c4:	c0 e8 05             	shr    $0x5,%al
    95c7:	0f b6 c0             	movzbl %al,%eax
    95ca:	0f b6 15 00 54 00 00 	movzbl 0x5400(%rip),%edx        # e9d1 <g_402+0x2>
    95d1:	0f b6 d2             	movzbl %dl,%edx
    95d4:	83 e2 0f             	and    $0xf,%edx
    95d7:	48 c1 e2 03          	shl    $0x3,%rdx
    95db:	48 09 d0             	or     %rdx,%rax
    95de:	48 c1 e0 39          	shl    $0x39,%rax
    95e2:	48 c1 f8 39          	sar    $0x39,%rax
    95e6:	48 0f be c0          	movsbq %al,%rax
    95ea:	8b 55 fc             	mov    -0x4(%rbp),%edx
    95ed:	48 8d 35 01 1a 00 00 	lea    0x1a01(%rip),%rsi        # aff5 <g_889+0xf93>
    95f4:	48 89 c7             	mov    %rax,%rdi
    95f7:	e8 f7 b0 ff ff       	callq  46f3 <transparent_crc>
    95fc:	c7 45 f0 00 00 00 00 	movl   $0x0,-0x10(%rbp)
    9603:	e9 f3 00 00 00       	jmpq   96fb <main+0x7ba>
    9608:	8b 45 f0             	mov    -0x10(%rbp),%eax
    960b:	48 63 d0             	movslq %eax,%rdx
    960e:	48 89 d0             	mov    %rdx,%rax
    9611:	48 01 c0             	add    %rax,%rax
    9614:	48 01 c2             	add    %rax,%rdx
    9617:	48 8d 05 b4 53 00 00 	lea    0x53b4(%rip),%rax        # e9d2 <g_403>
    961e:	0f b6 04 02          	movzbl (%rdx,%rax,1),%eax
    9622:	83 e0 0f             	and    $0xf,%eax
    9625:	0f b6 c0             	movzbl %al,%eax
    9628:	8b 55 fc             	mov    -0x4(%rbp),%edx
    962b:	48 8d 35 cc 19 00 00 	lea    0x19cc(%rip),%rsi        # affe <g_889+0xf9c>
    9632:	48 89 c7             	mov    %rax,%rdi
    9635:	e8 b9 b0 ff ff       	callq  46f3 <transparent_crc>
    963a:	8b 45 f0             	mov    -0x10(%rbp),%eax
    963d:	48 63 d0             	movslq %eax,%rdx
    9640:	48 89 d0             	mov    %rdx,%rax
    9643:	48 01 c0             	add    %rax,%rax
    9646:	48 01 c2             	add    %rax,%rdx
    9649:	48 8d 05 82 53 00 00 	lea    0x5382(%rip),%rax        # e9d2 <g_403>
    9650:	0f b6 0c 02          	movzbl (%rdx,%rax,1),%ecx
    9654:	c0 e9 04             	shr    $0x4,%cl
    9657:	0f b6 c9             	movzbl %cl,%ecx
    965a:	0f b6 44 02 01       	movzbl 0x1(%rdx,%rax,1),%eax
    965f:	0f b6 c0             	movzbl %al,%eax
    9662:	83 e0 1f             	and    $0x1f,%eax
    9665:	48 c1 e0 04          	shl    $0x4,%rax
    9669:	48 09 c8             	or     %rcx,%rax
    966c:	48 c1 e0 37          	shl    $0x37,%rax
    9670:	48 c1 f8 37          	sar    $0x37,%rax
    9674:	48 0f bf c0          	movswq %ax,%rax
    9678:	8b 55 fc             	mov    -0x4(%rbp),%edx
    967b:	48 8d 35 88 19 00 00 	lea    0x1988(%rip),%rsi        # b00a <g_889+0xfa8>
    9682:	48 89 c7             	mov    %rax,%rdi
    9685:	e8 69 b0 ff ff       	callq  46f3 <transparent_crc>
    968a:	8b 45 f0             	mov    -0x10(%rbp),%eax
    968d:	48 63 d0             	movslq %eax,%rdx
    9690:	48 89 d0             	mov    %rdx,%rax
    9693:	48 01 c0             	add    %rax,%rax
    9696:	48 01 c2             	add    %rax,%rdx
    9699:	48 8d 05 32 53 00 00 	lea    0x5332(%rip),%rax        # e9d2 <g_403>
    96a0:	0f b6 4c 02 01       	movzbl 0x1(%rdx,%rax,1),%ecx
    96a5:	c0 e9 05             	shr    $0x5,%cl
    96a8:	0f b6 c9             	movzbl %cl,%ecx
    96ab:	0f b6 44 02 02       	movzbl 0x2(%rdx,%rax,1),%eax
    96b0:	0f b6 c0             	movzbl %al,%eax
    96b3:	83 e0 0f             	and    $0xf,%eax
    96b6:	48 c1 e0 03          	shl    $0x3,%rax
    96ba:	48 09 c8             	or     %rcx,%rax
    96bd:	48 c1 e0 39          	shl    $0x39,%rax
    96c1:	48 c1 f8 39          	sar    $0x39,%rax
    96c5:	48 0f be c0          	movsbq %al,%rax
    96c9:	8b 55 fc             	mov    -0x4(%rbp),%edx
    96cc:	48 8d 35 43 19 00 00 	lea    0x1943(%rip),%rsi        # b016 <g_889+0xfb4>
    96d3:	48 89 c7             	mov    %rax,%rdi
    96d6:	e8 18 b0 ff ff       	callq  46f3 <transparent_crc>
    96db:	83 7d fc 00          	cmpl   $0x0,-0x4(%rbp)
    96df:	74 16                	je     96f7 <main+0x7b6>
    96e1:	8b 45 f0             	mov    -0x10(%rbp),%eax
    96e4:	89 c6                	mov    %eax,%esi
    96e6:	48 8d 3d 12 18 00 00 	lea    0x1812(%rip),%rdi        # aeff <g_889+0xe9d>
    96ed:	b8 00 00 00 00       	mov    $0x0,%eax
    96f2:	e8 89 99 ff ff       	callq  3080 <printf@plt>
    96f7:	83 45 f0 01          	addl   $0x1,-0x10(%rbp)
    96fb:	83 7d f0 01          	cmpl   $0x1,-0x10(%rbp)
    96ff:	0f 8e 03 ff ff ff    	jle    9608 <main+0x6c7>
    9705:	0f b6 05 cc 52 00 00 	movzbl 0x52cc(%rip),%eax        # e9d8 <g_436>
    970c:	83 e0 0f             	and    $0xf,%eax
    970f:	0f b6 c0             	movzbl %al,%eax
    9712:	8b 55 fc             	mov    -0x4(%rbp),%edx
    9715:	48 8d 35 06 19 00 00 	lea    0x1906(%rip),%rsi        # b022 <g_889+0xfc0>
    971c:	48 89 c7             	mov    %rax,%rdi
    971f:	e8 cf af ff ff       	callq  46f3 <transparent_crc>
    9724:	0f b6 05 ad 52 00 00 	movzbl 0x52ad(%rip),%eax        # e9d8 <g_436>
    972b:	c0 e8 04             	shr    $0x4,%al
    972e:	0f b6 c0             	movzbl %al,%eax
    9731:	0f b6 15 a1 52 00 00 	movzbl 0x52a1(%rip),%edx        # e9d9 <g_436+0x1>
    9738:	0f b6 d2             	movzbl %dl,%edx
    973b:	83 e2 1f             	and    $0x1f,%edx
    973e:	48 c1 e2 04          	shl    $0x4,%rdx
    9742:	48 09 d0             	or     %rdx,%rax
    9745:	48 c1 e0 37          	shl    $0x37,%rax
    9749:	48 c1 f8 37          	sar    $0x37,%rax
    974d:	48 0f bf c0          	movswq %ax,%rax
    9751:	8b 55 fc             	mov    -0x4(%rbp),%edx
    9754:	48 8d 35 d0 18 00 00 	lea    0x18d0(%rip),%rsi        # b02b <g_889+0xfc9>
    975b:	48 89 c7             	mov    %rax,%rdi
    975e:	e8 90 af ff ff       	callq  46f3 <transparent_crc>
    9763:	0f b6 05 6f 52 00 00 	movzbl 0x526f(%rip),%eax        # e9d9 <g_436+0x1>
    976a:	c0 e8 05             	shr    $0x5,%al
    976d:	0f b6 c0             	movzbl %al,%eax
    9770:	0f b6 15 63 52 00 00 	movzbl 0x5263(%rip),%edx        # e9da <g_436+0x2>
    9777:	0f b6 d2             	movzbl %dl,%edx
    977a:	83 e2 0f             	and    $0xf,%edx
    977d:	48 c1 e2 03          	shl    $0x3,%rdx
    9781:	48 09 d0             	or     %rdx,%rax
    9784:	48 c1 e0 39          	shl    $0x39,%rax
    9788:	48 c1 f8 39          	sar    $0x39,%rax
    978c:	48 0f be c0          	movsbq %al,%rax
    9790:	8b 55 fc             	mov    -0x4(%rbp),%edx
    9793:	48 8d 35 9a 18 00 00 	lea    0x189a(%rip),%rsi        # b034 <g_889+0xfd2>
    979a:	48 89 c7             	mov    %rax,%rdi
    979d:	e8 51 af ff ff       	callq  46f3 <transparent_crc>
    97a2:	48 8b 05 c7 64 00 00 	mov    0x64c7(%rip),%rax        # fc70 <g_449>
    97a9:	8b 55 fc             	mov    -0x4(%rbp),%edx
    97ac:	48 8d 35 8a 18 00 00 	lea    0x188a(%rip),%rsi        # b03d <g_889+0xfdb>
    97b3:	48 89 c7             	mov    %rax,%rdi
    97b6:	e8 38 af ff ff       	callq  46f3 <transparent_crc>
    97bb:	0f b6 05 b6 64 00 00 	movzbl 0x64b6(%rip),%eax        # fc78 <g_453>
    97c2:	0f b6 c0             	movzbl %al,%eax
    97c5:	8b 55 fc             	mov    -0x4(%rbp),%edx
    97c8:	48 8d 35 74 18 00 00 	lea    0x1874(%rip),%rsi        # b043 <g_889+0xfe1>
    97cf:	48 89 c7             	mov    %rax,%rdi
    97d2:	e8 1c af ff ff       	callq  46f3 <transparent_crc>
    97d7:	0f b6 05 fd 51 00 00 	movzbl 0x51fd(%rip),%eax        # e9db <g_487>
    97de:	0f b6 c0             	movzbl %al,%eax
    97e1:	8b 55 fc             	mov    -0x4(%rbp),%edx
    97e4:	48 8d 35 5e 18 00 00 	lea    0x185e(%rip),%rsi        # b049 <g_889+0xfe7>
    97eb:	48 89 c7             	mov    %rax,%rdi
    97ee:	e8 00 af ff ff       	callq  46f3 <transparent_crc>
    97f3:	48 8b 05 e6 51 00 00 	mov    0x51e6(%rip),%rax        # e9e0 <g_529>
    97fa:	48 89 c1             	mov    %rax,%rcx
    97fd:	8b 45 fc             	mov    -0x4(%rbp),%eax
    9800:	89 c2                	mov    %eax,%edx
    9802:	48 8d 35 46 18 00 00 	lea    0x1846(%rip),%rsi        # b04f <g_889+0xfed>
    9809:	48 89 cf             	mov    %rcx,%rdi
    980c:	e8 e2 ae ff ff       	callq  46f3 <transparent_crc>
    9811:	8b 05 d1 51 00 00    	mov    0x51d1(%rip),%eax        # e9e8 <g_530>
    9817:	48 98                	cltq   
    9819:	8b 55 fc             	mov    -0x4(%rbp),%edx
    981c:	48 8d 35 32 18 00 00 	lea    0x1832(%rip),%rsi        # b055 <g_889+0xff3>
    9823:	48 89 c7             	mov    %rax,%rdi
    9826:	e8 c8 ae ff ff       	callq  46f3 <transparent_crc>
    982b:	0f b6 05 ba 51 00 00 	movzbl 0x51ba(%rip),%eax        # e9ec <g_614>
    9832:	83 e0 0f             	and    $0xf,%eax
    9835:	0f b6 c0             	movzbl %al,%eax
    9838:	8b 55 fc             	mov    -0x4(%rbp),%edx
    983b:	48 8d 35 19 18 00 00 	lea    0x1819(%rip),%rsi        # b05b <g_889+0xff9>
    9842:	48 89 c7             	mov    %rax,%rdi
    9845:	e8 a9 ae ff ff       	callq  46f3 <transparent_crc>
    984a:	0f b6 05 9b 51 00 00 	movzbl 0x519b(%rip),%eax        # e9ec <g_614>
    9851:	c0 e8 04             	shr    $0x4,%al
    9854:	0f b6 c0             	movzbl %al,%eax
    9857:	0f b6 15 8f 51 00 00 	movzbl 0x518f(%rip),%edx        # e9ed <g_614+0x1>
    985e:	0f b6 d2             	movzbl %dl,%edx
    9861:	83 e2 1f             	and    $0x1f,%edx
    9864:	48 c1 e2 04          	shl    $0x4,%rdx
    9868:	48 09 d0             	or     %rdx,%rax
    986b:	48 c1 e0 37          	shl    $0x37,%rax
    986f:	48 c1 f8 37          	sar    $0x37,%rax
    9873:	48 0f bf c0          	movswq %ax,%rax
    9877:	8b 55 fc             	mov    -0x4(%rbp),%edx
    987a:	48 8d 35 e3 17 00 00 	lea    0x17e3(%rip),%rsi        # b064 <g_889+0x1002>
    9881:	48 89 c7             	mov    %rax,%rdi
    9884:	e8 6a ae ff ff       	callq  46f3 <transparent_crc>
    9889:	0f b6 05 5d 51 00 00 	movzbl 0x515d(%rip),%eax        # e9ed <g_614+0x1>
    9890:	c0 e8 05             	shr    $0x5,%al
    9893:	0f b6 c0             	movzbl %al,%eax
    9896:	0f b6 15 51 51 00 00 	movzbl 0x5151(%rip),%edx        # e9ee <g_614+0x2>
    989d:	0f b6 d2             	movzbl %dl,%edx
    98a0:	83 e2 0f             	and    $0xf,%edx
    98a3:	48 c1 e2 03          	shl    $0x3,%rdx
    98a7:	48 09 d0             	or     %rdx,%rax
    98aa:	48 c1 e0 39          	shl    $0x39,%rax
    98ae:	48 c1 f8 39          	sar    $0x39,%rax
    98b2:	48 0f be c0          	movsbq %al,%rax
    98b6:	8b 55 fc             	mov    -0x4(%rbp),%edx
    98b9:	48 8d 35 ad 17 00 00 	lea    0x17ad(%rip),%rsi        # b06d <g_889+0x100b>
    98c0:	48 89 c7             	mov    %rax,%rdi
    98c3:	e8 2b ae ff ff       	callq  46f3 <transparent_crc>
    98c8:	0f b7 05 21 51 00 00 	movzwl 0x5121(%rip),%eax        # e9f0 <g_672>
    98cf:	48 0f bf c0          	movswq %ax,%rax
    98d3:	8b 55 fc             	mov    -0x4(%rbp),%edx
    98d6:	48 8d 35 99 17 00 00 	lea    0x1799(%rip),%rsi        # b076 <g_889+0x1014>
    98dd:	48 89 c7             	mov    %rax,%rdi
    98e0:	e8 0e ae ff ff       	callq  46f3 <transparent_crc>
    98e5:	0f b6 05 06 51 00 00 	movzbl 0x5106(%rip),%eax        # e9f2 <g_763>
    98ec:	48 0f be c0          	movsbq %al,%rax
    98f0:	8b 55 fc             	mov    -0x4(%rbp),%edx
    98f3:	48 8d 35 82 17 00 00 	lea    0x1782(%rip),%rsi        # b07c <g_889+0x101a>
    98fa:	48 89 c7             	mov    %rax,%rdi
    98fd:	e8 f1 ad ff ff       	callq  46f3 <transparent_crc>
    9902:	0f b6 05 ea 50 00 00 	movzbl 0x50ea(%rip),%eax        # e9f3 <g_770>
    9909:	0f b6 c0             	movzbl %al,%eax
    990c:	8b 55 fc             	mov    -0x4(%rbp),%edx
    990f:	48 8d 35 6c 17 00 00 	lea    0x176c(%rip),%rsi        # b082 <g_889+0x1020>
    9916:	48 89 c7             	mov    %rax,%rdi
    9919:	e8 d5 ad ff ff       	callq  46f3 <transparent_crc>
    991e:	8b 05 d0 50 00 00    	mov    0x50d0(%rip),%eax        # e9f4 <g_808>
    9924:	48 98                	cltq   
    9926:	8b 55 fc             	mov    -0x4(%rbp),%edx
    9929:	48 8d 35 58 17 00 00 	lea    0x1758(%rip),%rsi        # b088 <g_889+0x1026>
    9930:	48 89 c7             	mov    %rax,%rdi
    9933:	e8 bb ad ff ff       	callq  46f3 <transparent_crc>
    9938:	b8 a6 29 de 1b       	mov    $0x1bde29a6,%eax
    993d:	89 c1                	mov    %eax,%ecx
    993f:	8b 45 fc             	mov    -0x4(%rbp),%eax
    9942:	89 c2                	mov    %eax,%edx
    9944:	48 8d 35 46 17 00 00 	lea    0x1746(%rip),%rsi        # b091 <g_889+0x102f>
    994b:	48 89 cf             	mov    %rcx,%rdi
    994e:	e8 a0 ad ff ff       	callq  46f3 <transparent_crc>
    9953:	b8 fa ff ff ff       	mov    $0xfffffffa,%eax
    9958:	0f b7 c0             	movzwl %ax,%eax
    995b:	8b 55 fc             	mov    -0x4(%rbp),%edx
    995e:	48 8d 35 32 17 00 00 	lea    0x1732(%rip),%rsi        # b097 <g_889+0x1035>
    9965:	48 89 c7             	mov    %rax,%rdi
    9968:	e8 86 ad ff ff       	callq  46f3 <transparent_crc>
    996d:	b8 01 00 00 00       	mov    $0x1,%eax
    9972:	0f b7 c0             	movzwl %ax,%eax
    9975:	8b 55 fc             	mov    -0x4(%rbp),%edx
    9978:	48 8d 35 1e 17 00 00 	lea    0x171e(%rip),%rsi        # b09d <g_889+0x103b>
    997f:	48 89 c7             	mov    %rax,%rdi
    9982:	e8 6c ad ff ff       	callq  46f3 <transparent_crc>
    9987:	0f b6 05 6a 50 00 00 	movzbl 0x506a(%rip),%eax        # e9f8 <g_900>
    998e:	83 e0 0f             	and    $0xf,%eax
    9991:	0f b6 c0             	movzbl %al,%eax
    9994:	8b 55 fc             	mov    -0x4(%rbp),%edx
    9997:	48 8d 35 05 17 00 00 	lea    0x1705(%rip),%rsi        # b0a3 <g_889+0x1041>
    999e:	48 89 c7             	mov    %rax,%rdi
    99a1:	e8 4d ad ff ff       	callq  46f3 <transparent_crc>
    99a6:	0f b6 05 4b 50 00 00 	movzbl 0x504b(%rip),%eax        # e9f8 <g_900>
    99ad:	c0 e8 04             	shr    $0x4,%al
    99b0:	0f b6 c0             	movzbl %al,%eax
    99b3:	0f b6 15 3f 50 00 00 	movzbl 0x503f(%rip),%edx        # e9f9 <g_900+0x1>
    99ba:	0f b6 d2             	movzbl %dl,%edx
    99bd:	83 e2 1f             	and    $0x1f,%edx
    99c0:	48 c1 e2 04          	shl    $0x4,%rdx
    99c4:	48 09 d0             	or     %rdx,%rax
    99c7:	48 c1 e0 37          	shl    $0x37,%rax
    99cb:	48 c1 f8 37          	sar    $0x37,%rax
    99cf:	48 0f bf c0          	movswq %ax,%rax
    99d3:	8b 55 fc             	mov    -0x4(%rbp),%edx
    99d6:	48 8d 35 cf 16 00 00 	lea    0x16cf(%rip),%rsi        # b0ac <g_889+0x104a>
    99dd:	48 89 c7             	mov    %rax,%rdi
    99e0:	e8 0e ad ff ff       	callq  46f3 <transparent_crc>
    99e5:	0f b6 05 0d 50 00 00 	movzbl 0x500d(%rip),%eax        # e9f9 <g_900+0x1>
    99ec:	c0 e8 05             	shr    $0x5,%al
    99ef:	0f b6 c0             	movzbl %al,%eax
    99f2:	0f b6 15 01 50 00 00 	movzbl 0x5001(%rip),%edx        # e9fa <g_900+0x2>
    99f9:	0f b6 d2             	movzbl %dl,%edx
    99fc:	83 e2 0f             	and    $0xf,%edx
    99ff:	48 c1 e2 03          	shl    $0x3,%rdx
    9a03:	48 09 d0             	or     %rdx,%rax
    9a06:	48 c1 e0 39          	shl    $0x39,%rax
    9a0a:	48 c1 f8 39          	sar    $0x39,%rax
    9a0e:	48 0f be c0          	movsbq %al,%rax
    9a12:	8b 55 fc             	mov    -0x4(%rbp),%edx
    9a15:	48 8d 35 99 16 00 00 	lea    0x1699(%rip),%rsi        # b0b5 <g_889+0x1053>
    9a1c:	48 89 c7             	mov    %rax,%rdi
    9a1f:	e8 cf ac ff ff       	callq  46f3 <transparent_crc>
    9a24:	0f b6 05 d0 4f 00 00 	movzbl 0x4fd0(%rip),%eax        # e9fb <g_1008>
    9a2b:	83 e0 0f             	and    $0xf,%eax
    9a2e:	0f b6 c0             	movzbl %al,%eax
    9a31:	8b 55 fc             	mov    -0x4(%rbp),%edx
    9a34:	48 8d 35 83 16 00 00 	lea    0x1683(%rip),%rsi        # b0be <g_889+0x105c>
    9a3b:	48 89 c7             	mov    %rax,%rdi
    9a3e:	e8 b0 ac ff ff       	callq  46f3 <transparent_crc>
    9a43:	0f b6 05 b1 4f 00 00 	movzbl 0x4fb1(%rip),%eax        # e9fb <g_1008>
    9a4a:	c0 e8 04             	shr    $0x4,%al
    9a4d:	0f b6 c0             	movzbl %al,%eax
    9a50:	0f b6 15 a5 4f 00 00 	movzbl 0x4fa5(%rip),%edx        # e9fc <g_1008+0x1>
    9a57:	0f b6 d2             	movzbl %dl,%edx
    9a5a:	83 e2 1f             	and    $0x1f,%edx
    9a5d:	48 c1 e2 04          	shl    $0x4,%rdx
    9a61:	48 09 d0             	or     %rdx,%rax
    9a64:	48 c1 e0 37          	shl    $0x37,%rax
    9a68:	48 c1 f8 37          	sar    $0x37,%rax
    9a6c:	48 0f bf c0          	movswq %ax,%rax
    9a70:	8b 55 fc             	mov    -0x4(%rbp),%edx
    9a73:	48 8d 35 4e 16 00 00 	lea    0x164e(%rip),%rsi        # b0c8 <g_889+0x1066>
    9a7a:	48 89 c7             	mov    %rax,%rdi
    9a7d:	e8 71 ac ff ff       	callq  46f3 <transparent_crc>
    9a82:	0f b6 05 73 4f 00 00 	movzbl 0x4f73(%rip),%eax        # e9fc <g_1008+0x1>
    9a89:	c0 e8 05             	shr    $0x5,%al
    9a8c:	0f b6 c0             	movzbl %al,%eax
    9a8f:	0f b6 15 67 4f 00 00 	movzbl 0x4f67(%rip),%edx        # e9fd <g_1008+0x2>
    9a96:	0f b6 d2             	movzbl %dl,%edx
    9a99:	83 e2 0f             	and    $0xf,%edx
    9a9c:	48 c1 e2 03          	shl    $0x3,%rdx
    9aa0:	48 09 d0             	or     %rdx,%rax
    9aa3:	48 c1 e0 39          	shl    $0x39,%rax
    9aa7:	48 c1 f8 39          	sar    $0x39,%rax
    9aab:	48 0f be c0          	movsbq %al,%rax
    9aaf:	8b 55 fc             	mov    -0x4(%rbp),%edx
    9ab2:	48 8d 35 19 16 00 00 	lea    0x1619(%rip),%rsi        # b0d2 <g_889+0x1070>
    9ab9:	48 89 c7             	mov    %rax,%rdi
    9abc:	e8 32 ac ff ff       	callq  46f3 <transparent_crc>
    9ac1:	8b 05 39 4f 00 00    	mov    0x4f39(%rip),%eax        # ea00 <g_1149>
    9ac7:	48 98                	cltq   
    9ac9:	8b 55 fc             	mov    -0x4(%rbp),%edx
    9acc:	48 8d 35 09 16 00 00 	lea    0x1609(%rip),%rsi        # b0dc <g_889+0x107a>
    9ad3:	48 89 c7             	mov    %rax,%rdi
    9ad6:	e8 18 ac ff ff       	callq  46f3 <transparent_crc>
    9adb:	8b 05 3f 45 00 00    	mov    0x453f(%rip),%eax        # e020 <crc32_context>
    9ae1:	f7 d0                	not    %eax
    9ae3:	89 c2                	mov    %eax,%edx
    9ae5:	8b 45 fc             	mov    -0x4(%rbp),%eax
    9ae8:	89 c6                	mov    %eax,%esi
    9aea:	89 d7                	mov    %edx,%edi
    9aec:	e8 a3 96 ff ff       	callq  3194 <platform_main_end>
    9af1:	b8 00 00 00 00       	mov    $0x0,%eax
    9af6:	c9                   	leaveq 
    9af7:	c3                   	retq   
    9af8:	0f 1f 84 00 00 00 00 	nopl   0x0(%rax,%rax,1)
    9aff:	00 

0000000000009b00 <__libc_csu_init>:
    9b00:	f3 0f 1e fa          	endbr64 
    9b04:	41 57                	push   %r15
    9b06:	4c 8d 3d 93 42 00 00 	lea    0x4293(%rip),%r15        # dda0 <__frame_dummy_init_array_entry>
    9b0d:	41 56                	push   %r14
    9b0f:	49 89 d6             	mov    %rdx,%r14
    9b12:	41 55                	push   %r13
    9b14:	49 89 f5             	mov    %rsi,%r13
    9b17:	41 54                	push   %r12
    9b19:	41 89 fc             	mov    %edi,%r12d
    9b1c:	55                   	push   %rbp
    9b1d:	48 8d 2d 84 42 00 00 	lea    0x4284(%rip),%rbp        # dda8 <__do_global_dtors_aux_fini_array_entry>
    9b24:	53                   	push   %rbx
    9b25:	4c 29 fd             	sub    %r15,%rbp
    9b28:	48 83 ec 08          	sub    $0x8,%rsp
    9b2c:	e8 cf 94 ff ff       	callq  3000 <_init>
    9b31:	48 c1 fd 03          	sar    $0x3,%rbp
    9b35:	74 1f                	je     9b56 <__libc_csu_init+0x56>
    9b37:	31 db                	xor    %ebx,%ebx
    9b39:	0f 1f 80 00 00 00 00 	nopl   0x0(%rax)
    9b40:	4c 89 f2             	mov    %r14,%rdx
    9b43:	4c 89 ee             	mov    %r13,%rsi
    9b46:	44 89 e7             	mov    %r12d,%edi
    9b49:	41 ff 14 df          	callq  *(%r15,%rbx,8)
    9b4d:	48 83 c3 01          	add    $0x1,%rbx
    9b51:	48 39 dd             	cmp    %rbx,%rbp
    9b54:	75 ea                	jne    9b40 <__libc_csu_init+0x40>
    9b56:	48 83 c4 08          	add    $0x8,%rsp
    9b5a:	5b                   	pop    %rbx
    9b5b:	5d                   	pop    %rbp
    9b5c:	41 5c                	pop    %r12
    9b5e:	41 5d                	pop    %r13
    9b60:	41 5e                	pop    %r14
    9b62:	41 5f                	pop    %r15
    9b64:	c3                   	retq   
    9b65:	66 66 2e 0f 1f 84 00 	data16 nopw %cs:0x0(%rax,%rax,1)
    9b6c:	00 00 00 00 

0000000000009b70 <__libc_csu_fini>:
    9b70:	f3 0f 1e fa          	endbr64 
    9b74:	c3                   	retq   
