


Disassembly of section .text:

00000000000050a0 <_start>:
    50a0:	f3 0f 1e fa          	endbr64 
    50a4:	31 ed                	xor    %ebp,%ebp
    50a6:	49 89 d1             	mov    %rdx,%r9
    50a9:	5e                   	pop    %rsi
    50aa:	48 89 e2             	mov    %rsp,%rdx
    50ad:	48 83 e4 f0          	and    $0xfffffffffffffff0,%rsp
    50b1:	50                   	push   %rax
    50b2:	54                   	push   %rsp
    50b3:	4c 8d 05 76 14 01 00 	lea    0x11476(%rip),%r8        # 16530 <__libc_csu_fini>
    50ba:	48 8d 0d ff 13 01 00 	lea    0x113ff(%rip),%rcx        # 164c0 <__libc_csu_init>
    50c1:	48 8d 3d cf e6 00 00 	lea    0xe6cf(%rip),%rdi        # 13797 <main>
    50c8:	ff 15 12 6f 01 00    	callq  *0x16f12(%rip)        # 1bfe0 <__libc_start_main@GLIBC_2.2.5>
    50ce:	f4                   	hlt    
    50cf:	90                   	nop

00000000000050d0 <deregister_tm_clones>:
    50d0:	48 8d 3d 69 ac 01 00 	lea    0x1ac69(%rip),%rdi        # 1fd40 <__TMC_END__>
    50d7:	48 8d 05 62 ac 01 00 	lea    0x1ac62(%rip),%rax        # 1fd40 <__TMC_END__>
    50de:	48 39 f8             	cmp    %rdi,%rax
    50e1:	74 15                	je     50f8 <deregister_tm_clones+0x28>
    50e3:	48 8b 05 ee 6e 01 00 	mov    0x16eee(%rip),%rax        # 1bfd8 <_ITM_deregisterTMCloneTable>
    50ea:	48 85 c0             	test   %rax,%rax
    50ed:	74 09                	je     50f8 <deregister_tm_clones+0x28>
    50ef:	ff e0                	jmpq   *%rax
    50f1:	0f 1f 80 00 00 00 00 	nopl   0x0(%rax)
    50f8:	c3                   	retq   
    50f9:	0f 1f 80 00 00 00 00 	nopl   0x0(%rax)

0000000000005100 <register_tm_clones>:
    5100:	48 8d 3d 39 ac 01 00 	lea    0x1ac39(%rip),%rdi        # 1fd40 <__TMC_END__>
    5107:	48 8d 35 32 ac 01 00 	lea    0x1ac32(%rip),%rsi        # 1fd40 <__TMC_END__>
    510e:	48 29 fe             	sub    %rdi,%rsi
    5111:	48 89 f0             	mov    %rsi,%rax
    5114:	48 c1 ee 3f          	shr    $0x3f,%rsi
    5118:	48 c1 f8 03          	sar    $0x3,%rax
    511c:	48 01 c6             	add    %rax,%rsi
    511f:	48 d1 fe             	sar    %rsi
    5122:	74 14                	je     5138 <register_tm_clones+0x38>
    5124:	48 8b 05 c5 6e 01 00 	mov    0x16ec5(%rip),%rax        # 1bff0 <_ITM_registerTMCloneTable>
    512b:	48 85 c0             	test   %rax,%rax
    512e:	74 08                	je     5138 <register_tm_clones+0x38>
    5130:	ff e0                	jmpq   *%rax
    5132:	66 0f 1f 44 00 00    	nopw   0x0(%rax,%rax,1)
    5138:	c3                   	retq   
    5139:	0f 1f 80 00 00 00 00 	nopl   0x0(%rax)

0000000000005140 <__do_global_dtors_aux>:
    5140:	f3 0f 1e fa          	endbr64 
    5144:	80 3d f5 ab 01 00 00 	cmpb   $0x0,0x1abf5(%rip)        # 1fd40 <__TMC_END__>
    514b:	75 2b                	jne    5178 <__do_global_dtors_aux+0x38>
    514d:	55                   	push   %rbp
    514e:	48 83 3d a2 6e 01 00 	cmpq   $0x0,0x16ea2(%rip)        # 1bff8 <__cxa_finalize@GLIBC_2.2.5>
    5155:	00 
    5156:	48 89 e5             	mov    %rsp,%rbp
    5159:	74 0c                	je     5167 <__do_global_dtors_aux+0x27>
    515b:	48 8b 3d a6 6e 01 00 	mov    0x16ea6(%rip),%rdi        # 1c008 <__dso_handle>
    5162:	e8 f9 fe ff ff       	callq  5060 <__cxa_finalize@plt>
    5167:	e8 64 ff ff ff       	callq  50d0 <deregister_tm_clones>
    516c:	c6 05 cd ab 01 00 01 	movb   $0x1,0x1abcd(%rip)        # 1fd40 <__TMC_END__>
    5173:	5d                   	pop    %rbp
    5174:	c3                   	retq   
    5175:	0f 1f 00             	nopl   (%rax)
    5178:	c3                   	retq   
    5179:	0f 1f 80 00 00 00 00 	nopl   0x0(%rax)

0000000000005180 <frame_dummy>:
    5180:	f3 0f 1e fa          	endbr64 
    5184:	e9 77 ff ff ff       	jmpq   5100 <register_tm_clones>

0000000000005189 <platform_main_begin>:
    5189:	f3 0f 1e fa          	endbr64 
    518d:	55                   	push   %rbp
    518e:	48 89 e5             	mov    %rsp,%rbp
    5191:	90                   	nop
    5192:	5d                   	pop    %rbp
    5193:	c3                   	retq   

0000000000005194 <platform_main_end>:
    5194:	f3 0f 1e fa          	endbr64 
    5198:	55                   	push   %rbp
    5199:	48 89 e5             	mov    %rsp,%rbp
    519c:	48 83 ec 10          	sub    $0x10,%rsp
    51a0:	89 7d fc             	mov    %edi,-0x4(%rbp)
    51a3:	89 75 f8             	mov    %esi,-0x8(%rbp)
    51a6:	8b 45 fc             	mov    -0x4(%rbp),%eax
    51a9:	89 c6                	mov    %eax,%esi
    51ab:	48 8d 3d 6e 1e 01 00 	lea    0x11e6e(%rip),%rdi        # 17020 <_IO_stdin_used+0x20>
    51b2:	b8 00 00 00 00       	mov    $0x0,%eax
    51b7:	e8 c4 fe ff ff       	callq  5080 <printf@plt>
    51bc:	90                   	nop
    51bd:	c9                   	leaveq 
    51be:	c3                   	retq   

00000000000051bf <safe_unary_minus_func_int8_t_s>:
    51bf:	f3 0f 1e fa          	endbr64 
    51c3:	55                   	push   %rbp
    51c4:	48 89 e5             	mov    %rsp,%rbp
    51c7:	89 f8                	mov    %edi,%eax
    51c9:	88 45 fc             	mov    %al,-0x4(%rbp)
    51cc:	0f b6 45 fc          	movzbl -0x4(%rbp),%eax
    51d0:	f7 d8                	neg    %eax
    51d2:	5d                   	pop    %rbp
    51d3:	c3                   	retq   

00000000000051d4 <safe_add_func_int8_t_s_s>:
    51d4:	f3 0f 1e fa          	endbr64 
    51d8:	55                   	push   %rbp
    51d9:	48 89 e5             	mov    %rsp,%rbp
    51dc:	89 fa                	mov    %edi,%edx
    51de:	89 f0                	mov    %esi,%eax
    51e0:	88 55 fc             	mov    %dl,-0x4(%rbp)
    51e3:	88 45 f8             	mov    %al,-0x8(%rbp)
    51e6:	0f b6 55 fc          	movzbl -0x4(%rbp),%edx
    51ea:	0f b6 45 f8          	movzbl -0x8(%rbp),%eax
    51ee:	01 d0                	add    %edx,%eax
    51f0:	5d                   	pop    %rbp
    51f1:	c3                   	retq   

00000000000051f2 <safe_sub_func_int8_t_s_s>:
    51f2:	f3 0f 1e fa          	endbr64 
    51f6:	55                   	push   %rbp
    51f7:	48 89 e5             	mov    %rsp,%rbp
    51fa:	89 fa                	mov    %edi,%edx
    51fc:	89 f0                	mov    %esi,%eax
    51fe:	88 55 fc             	mov    %dl,-0x4(%rbp)
    5201:	88 45 f8             	mov    %al,-0x8(%rbp)
    5204:	0f b6 55 fc          	movzbl -0x4(%rbp),%edx
    5208:	0f b6 45 f8          	movzbl -0x8(%rbp),%eax
    520c:	29 c2                	sub    %eax,%edx
    520e:	89 d0                	mov    %edx,%eax
    5210:	5d                   	pop    %rbp
    5211:	c3                   	retq   

0000000000005212 <safe_mul_func_int8_t_s_s>:
    5212:	f3 0f 1e fa          	endbr64 
    5216:	55                   	push   %rbp
    5217:	48 89 e5             	mov    %rsp,%rbp
    521a:	89 fa                	mov    %edi,%edx
    521c:	89 f0                	mov    %esi,%eax
    521e:	88 55 fc             	mov    %dl,-0x4(%rbp)
    5221:	88 45 f8             	mov    %al,-0x8(%rbp)
    5224:	0f b6 45 fc          	movzbl -0x4(%rbp),%eax
    5228:	0f b6 55 f8          	movzbl -0x8(%rbp),%edx
    522c:	0f af c2             	imul   %edx,%eax
    522f:	5d                   	pop    %rbp
    5230:	c3                   	retq   

0000000000005231 <safe_mod_func_int8_t_s_s>:
    5231:	f3 0f 1e fa          	endbr64 
    5235:	55                   	push   %rbp
    5236:	48 89 e5             	mov    %rsp,%rbp
    5239:	89 fa                	mov    %edi,%edx
    523b:	89 f0                	mov    %esi,%eax
    523d:	88 55 fc             	mov    %dl,-0x4(%rbp)
    5240:	88 45 f8             	mov    %al,-0x8(%rbp)
    5243:	80 7d f8 00          	cmpb   $0x0,-0x8(%rbp)
    5247:	74 1b                	je     5264 <safe_mod_func_int8_t_s_s+0x33>
    5249:	80 7d fc 80          	cmpb   $0x80,-0x4(%rbp)
    524d:	75 06                	jne    5255 <safe_mod_func_int8_t_s_s+0x24>
    524f:	80 7d f8 ff          	cmpb   $0xff,-0x8(%rbp)
    5253:	74 0f                	je     5264 <safe_mod_func_int8_t_s_s+0x33>
    5255:	0f be 45 fc          	movsbl -0x4(%rbp),%eax
    5259:	0f be 4d f8          	movsbl -0x8(%rbp),%ecx
    525d:	99                   	cltd   
    525e:	f7 f9                	idiv   %ecx
    5260:	89 d0                	mov    %edx,%eax
    5262:	eb 04                	jmp    5268 <safe_mod_func_int8_t_s_s+0x37>
    5264:	0f b6 45 fc          	movzbl -0x4(%rbp),%eax
    5268:	5d                   	pop    %rbp
    5269:	c3                   	retq   

000000000000526a <safe_div_func_int8_t_s_s>:
    526a:	f3 0f 1e fa          	endbr64 
    526e:	55                   	push   %rbp
    526f:	48 89 e5             	mov    %rsp,%rbp
    5272:	89 fa                	mov    %edi,%edx
    5274:	89 f0                	mov    %esi,%eax
    5276:	88 55 fc             	mov    %dl,-0x4(%rbp)
    5279:	88 45 f8             	mov    %al,-0x8(%rbp)
    527c:	80 7d f8 00          	cmpb   $0x0,-0x8(%rbp)
    5280:	74 19                	je     529b <safe_div_func_int8_t_s_s+0x31>
    5282:	80 7d fc 80          	cmpb   $0x80,-0x4(%rbp)
    5286:	75 06                	jne    528e <safe_div_func_int8_t_s_s+0x24>
    5288:	80 7d f8 ff          	cmpb   $0xff,-0x8(%rbp)
    528c:	74 0d                	je     529b <safe_div_func_int8_t_s_s+0x31>
    528e:	0f be 45 fc          	movsbl -0x4(%rbp),%eax
    5292:	0f be 4d f8          	movsbl -0x8(%rbp),%ecx
    5296:	99                   	cltd   
    5297:	f7 f9                	idiv   %ecx
    5299:	eb 04                	jmp    529f <safe_div_func_int8_t_s_s+0x35>
    529b:	0f b6 45 fc          	movzbl -0x4(%rbp),%eax
    529f:	5d                   	pop    %rbp
    52a0:	c3                   	retq   

00000000000052a1 <safe_lshift_func_int8_t_s_s>:
    52a1:	f3 0f 1e fa          	endbr64 
    52a5:	55                   	push   %rbp
    52a6:	48 89 e5             	mov    %rsp,%rbp
    52a9:	89 f8                	mov    %edi,%eax
    52ab:	89 75 f8             	mov    %esi,-0x8(%rbp)
    52ae:	88 45 fc             	mov    %al,-0x4(%rbp)
    52b1:	80 7d fc 00          	cmpb   $0x0,-0x4(%rbp)
    52b5:	78 31                	js     52e8 <safe_lshift_func_int8_t_s_s+0x47>
    52b7:	83 7d f8 00          	cmpl   $0x0,-0x8(%rbp)
    52bb:	78 2b                	js     52e8 <safe_lshift_func_int8_t_s_s+0x47>
    52bd:	83 7d f8 1f          	cmpl   $0x1f,-0x8(%rbp)
    52c1:	7f 25                	jg     52e8 <safe_lshift_func_int8_t_s_s+0x47>
    52c3:	0f be 55 fc          	movsbl -0x4(%rbp),%edx
    52c7:	8b 45 f8             	mov    -0x8(%rbp),%eax
    52ca:	be 7f 00 00 00       	mov    $0x7f,%esi
    52cf:	89 c1                	mov    %eax,%ecx
    52d1:	d3 fe                	sar    %cl,%esi
    52d3:	89 f0                	mov    %esi,%eax
    52d5:	39 c2                	cmp    %eax,%edx
    52d7:	7f 0f                	jg     52e8 <safe_lshift_func_int8_t_s_s+0x47>
    52d9:	0f be 55 fc          	movsbl -0x4(%rbp),%edx
    52dd:	8b 45 f8             	mov    -0x8(%rbp),%eax
    52e0:	89 c1                	mov    %eax,%ecx
    52e2:	d3 e2                	shl    %cl,%edx
    52e4:	89 d0                	mov    %edx,%eax
    52e6:	eb 04                	jmp    52ec <safe_lshift_func_int8_t_s_s+0x4b>
    52e8:	0f b6 45 fc          	movzbl -0x4(%rbp),%eax
    52ec:	5d                   	pop    %rbp
    52ed:	c3                   	retq   

00000000000052ee <safe_lshift_func_int8_t_s_u>:
    52ee:	f3 0f 1e fa          	endbr64 
    52f2:	55                   	push   %rbp
    52f3:	48 89 e5             	mov    %rsp,%rbp
    52f6:	89 f8                	mov    %edi,%eax
    52f8:	89 75 f8             	mov    %esi,-0x8(%rbp)
    52fb:	88 45 fc             	mov    %al,-0x4(%rbp)
    52fe:	80 7d fc 00          	cmpb   $0x0,-0x4(%rbp)
    5302:	78 2b                	js     532f <safe_lshift_func_int8_t_s_u+0x41>
    5304:	83 7d f8 1f          	cmpl   $0x1f,-0x8(%rbp)
    5308:	77 25                	ja     532f <safe_lshift_func_int8_t_s_u+0x41>
    530a:	0f be 55 fc          	movsbl -0x4(%rbp),%edx
    530e:	8b 45 f8             	mov    -0x8(%rbp),%eax
    5311:	be 7f 00 00 00       	mov    $0x7f,%esi
    5316:	89 c1                	mov    %eax,%ecx
    5318:	d3 fe                	sar    %cl,%esi
    531a:	89 f0                	mov    %esi,%eax
    531c:	39 c2                	cmp    %eax,%edx
    531e:	7f 0f                	jg     532f <safe_lshift_func_int8_t_s_u+0x41>
    5320:	0f be 55 fc          	movsbl -0x4(%rbp),%edx
    5324:	8b 45 f8             	mov    -0x8(%rbp),%eax
    5327:	89 c1                	mov    %eax,%ecx
    5329:	d3 e2                	shl    %cl,%edx
    532b:	89 d0                	mov    %edx,%eax
    532d:	eb 04                	jmp    5333 <safe_lshift_func_int8_t_s_u+0x45>
    532f:	0f b6 45 fc          	movzbl -0x4(%rbp),%eax
    5333:	5d                   	pop    %rbp
    5334:	c3                   	retq   

0000000000005335 <safe_rshift_func_int8_t_s_s>:
    5335:	f3 0f 1e fa          	endbr64 
    5339:	55                   	push   %rbp
    533a:	48 89 e5             	mov    %rsp,%rbp
    533d:	89 f8                	mov    %edi,%eax
    533f:	89 75 f8             	mov    %esi,-0x8(%rbp)
    5342:	88 45 fc             	mov    %al,-0x4(%rbp)
    5345:	80 7d fc 00          	cmpb   $0x0,-0x4(%rbp)
    5349:	78 1b                	js     5366 <safe_rshift_func_int8_t_s_s+0x31>
    534b:	83 7d f8 00          	cmpl   $0x0,-0x8(%rbp)
    534f:	78 15                	js     5366 <safe_rshift_func_int8_t_s_s+0x31>
    5351:	83 7d f8 1f          	cmpl   $0x1f,-0x8(%rbp)
    5355:	7f 0f                	jg     5366 <safe_rshift_func_int8_t_s_s+0x31>
    5357:	0f be 55 fc          	movsbl -0x4(%rbp),%edx
    535b:	8b 45 f8             	mov    -0x8(%rbp),%eax
    535e:	89 c1                	mov    %eax,%ecx
    5360:	d3 fa                	sar    %cl,%edx
    5362:	89 d0                	mov    %edx,%eax
    5364:	eb 04                	jmp    536a <safe_rshift_func_int8_t_s_s+0x35>
    5366:	0f b6 45 fc          	movzbl -0x4(%rbp),%eax
    536a:	5d                   	pop    %rbp
    536b:	c3                   	retq   

000000000000536c <safe_rshift_func_int8_t_s_u>:
    536c:	f3 0f 1e fa          	endbr64 
    5370:	55                   	push   %rbp
    5371:	48 89 e5             	mov    %rsp,%rbp
    5374:	89 f8                	mov    %edi,%eax
    5376:	89 75 f8             	mov    %esi,-0x8(%rbp)
    5379:	88 45 fc             	mov    %al,-0x4(%rbp)
    537c:	80 7d fc 00          	cmpb   $0x0,-0x4(%rbp)
    5380:	78 15                	js     5397 <safe_rshift_func_int8_t_s_u+0x2b>
    5382:	83 7d f8 1f          	cmpl   $0x1f,-0x8(%rbp)
    5386:	77 0f                	ja     5397 <safe_rshift_func_int8_t_s_u+0x2b>
    5388:	0f be 55 fc          	movsbl -0x4(%rbp),%edx
    538c:	8b 45 f8             	mov    -0x8(%rbp),%eax
    538f:	89 c1                	mov    %eax,%ecx
    5391:	d3 fa                	sar    %cl,%edx
    5393:	89 d0                	mov    %edx,%eax
    5395:	eb 04                	jmp    539b <safe_rshift_func_int8_t_s_u+0x2f>
    5397:	0f b6 45 fc          	movzbl -0x4(%rbp),%eax
    539b:	5d                   	pop    %rbp
    539c:	c3                   	retq   

000000000000539d <safe_unary_minus_func_int16_t_s>:
    539d:	f3 0f 1e fa          	endbr64 
    53a1:	55                   	push   %rbp
    53a2:	48 89 e5             	mov    %rsp,%rbp
    53a5:	89 f8                	mov    %edi,%eax
    53a7:	66 89 45 fc          	mov    %ax,-0x4(%rbp)
    53ab:	0f b7 45 fc          	movzwl -0x4(%rbp),%eax
    53af:	f7 d8                	neg    %eax
    53b1:	5d                   	pop    %rbp
    53b2:	c3                   	retq   

00000000000053b3 <safe_add_func_int16_t_s_s>:
    53b3:	f3 0f 1e fa          	endbr64 
    53b7:	55                   	push   %rbp
    53b8:	48 89 e5             	mov    %rsp,%rbp
    53bb:	89 fa                	mov    %edi,%edx
    53bd:	89 f0                	mov    %esi,%eax
    53bf:	66 89 55 fc          	mov    %dx,-0x4(%rbp)
    53c3:	66 89 45 f8          	mov    %ax,-0x8(%rbp)
    53c7:	0f b7 55 fc          	movzwl -0x4(%rbp),%edx
    53cb:	0f b7 45 f8          	movzwl -0x8(%rbp),%eax
    53cf:	01 d0                	add    %edx,%eax
    53d1:	5d                   	pop    %rbp
    53d2:	c3                   	retq   

00000000000053d3 <safe_sub_func_int16_t_s_s>:
    53d3:	f3 0f 1e fa          	endbr64 
    53d7:	55                   	push   %rbp
    53d8:	48 89 e5             	mov    %rsp,%rbp
    53db:	89 fa                	mov    %edi,%edx
    53dd:	89 f0                	mov    %esi,%eax
    53df:	66 89 55 fc          	mov    %dx,-0x4(%rbp)
    53e3:	66 89 45 f8          	mov    %ax,-0x8(%rbp)
    53e7:	0f b7 55 fc          	movzwl -0x4(%rbp),%edx
    53eb:	0f b7 45 f8          	movzwl -0x8(%rbp),%eax
    53ef:	29 c2                	sub    %eax,%edx
    53f1:	89 d0                	mov    %edx,%eax
    53f3:	5d                   	pop    %rbp
    53f4:	c3                   	retq   

00000000000053f5 <safe_mul_func_int16_t_s_s>:
    53f5:	f3 0f 1e fa          	endbr64 
    53f9:	55                   	push   %rbp
    53fa:	48 89 e5             	mov    %rsp,%rbp
    53fd:	89 fa                	mov    %edi,%edx
    53ff:	89 f0                	mov    %esi,%eax
    5401:	66 89 55 fc          	mov    %dx,-0x4(%rbp)
    5405:	66 89 45 f8          	mov    %ax,-0x8(%rbp)
    5409:	0f b7 55 fc          	movzwl -0x4(%rbp),%edx
    540d:	0f b7 45 f8          	movzwl -0x8(%rbp),%eax
    5411:	0f af c2             	imul   %edx,%eax
    5414:	5d                   	pop    %rbp
    5415:	c3                   	retq   

0000000000005416 <safe_mod_func_int16_t_s_s>:
    5416:	f3 0f 1e fa          	endbr64 
    541a:	55                   	push   %rbp
    541b:	48 89 e5             	mov    %rsp,%rbp
    541e:	89 fa                	mov    %edi,%edx
    5420:	89 f0                	mov    %esi,%eax
    5422:	66 89 55 fc          	mov    %dx,-0x4(%rbp)
    5426:	66 89 45 f8          	mov    %ax,-0x8(%rbp)
    542a:	66 83 7d f8 00       	cmpw   $0x0,-0x8(%rbp)
    542f:	74 1e                	je     544f <safe_mod_func_int16_t_s_s+0x39>
    5431:	66 81 7d fc 00 80    	cmpw   $0x8000,-0x4(%rbp)
    5437:	75 07                	jne    5440 <safe_mod_func_int16_t_s_s+0x2a>
    5439:	66 83 7d f8 ff       	cmpw   $0xffff,-0x8(%rbp)
    543e:	74 0f                	je     544f <safe_mod_func_int16_t_s_s+0x39>
    5440:	0f bf 45 fc          	movswl -0x4(%rbp),%eax
    5444:	0f bf 4d f8          	movswl -0x8(%rbp),%ecx
    5448:	99                   	cltd   
    5449:	f7 f9                	idiv   %ecx
    544b:	89 d0                	mov    %edx,%eax
    544d:	eb 04                	jmp    5453 <safe_mod_func_int16_t_s_s+0x3d>
    544f:	0f b7 45 fc          	movzwl -0x4(%rbp),%eax
    5453:	5d                   	pop    %rbp
    5454:	c3                   	retq   

0000000000005455 <safe_div_func_int16_t_s_s>:
    5455:	f3 0f 1e fa          	endbr64 
    5459:	55                   	push   %rbp
    545a:	48 89 e5             	mov    %rsp,%rbp
    545d:	89 fa                	mov    %edi,%edx
    545f:	89 f0                	mov    %esi,%eax
    5461:	66 89 55 fc          	mov    %dx,-0x4(%rbp)
    5465:	66 89 45 f8          	mov    %ax,-0x8(%rbp)
    5469:	66 83 7d f8 00       	cmpw   $0x0,-0x8(%rbp)
    546e:	74 1c                	je     548c <safe_div_func_int16_t_s_s+0x37>
    5470:	66 81 7d fc 00 80    	cmpw   $0x8000,-0x4(%rbp)
    5476:	75 07                	jne    547f <safe_div_func_int16_t_s_s+0x2a>
    5478:	66 83 7d f8 ff       	cmpw   $0xffff,-0x8(%rbp)
    547d:	74 0d                	je     548c <safe_div_func_int16_t_s_s+0x37>
    547f:	0f bf 45 fc          	movswl -0x4(%rbp),%eax
    5483:	0f bf 4d f8          	movswl -0x8(%rbp),%ecx
    5487:	99                   	cltd   
    5488:	f7 f9                	idiv   %ecx
    548a:	eb 04                	jmp    5490 <safe_div_func_int16_t_s_s+0x3b>
    548c:	0f b7 45 fc          	movzwl -0x4(%rbp),%eax
    5490:	5d                   	pop    %rbp
    5491:	c3                   	retq   

0000000000005492 <safe_lshift_func_int16_t_s_s>:
    5492:	f3 0f 1e fa          	endbr64 
    5496:	55                   	push   %rbp
    5497:	48 89 e5             	mov    %rsp,%rbp
    549a:	89 f8                	mov    %edi,%eax
    549c:	89 75 f8             	mov    %esi,-0x8(%rbp)
    549f:	66 89 45 fc          	mov    %ax,-0x4(%rbp)
    54a3:	66 83 7d fc 00       	cmpw   $0x0,-0x4(%rbp)
    54a8:	78 31                	js     54db <safe_lshift_func_int16_t_s_s+0x49>
    54aa:	83 7d f8 00          	cmpl   $0x0,-0x8(%rbp)
    54ae:	78 2b                	js     54db <safe_lshift_func_int16_t_s_s+0x49>
    54b0:	83 7d f8 1f          	cmpl   $0x1f,-0x8(%rbp)
    54b4:	7f 25                	jg     54db <safe_lshift_func_int16_t_s_s+0x49>
    54b6:	0f bf 55 fc          	movswl -0x4(%rbp),%edx
    54ba:	8b 45 f8             	mov    -0x8(%rbp),%eax
    54bd:	be ff 7f 00 00       	mov    $0x7fff,%esi
    54c2:	89 c1                	mov    %eax,%ecx
    54c4:	d3 fe                	sar    %cl,%esi
    54c6:	89 f0                	mov    %esi,%eax
    54c8:	39 c2                	cmp    %eax,%edx
    54ca:	7f 0f                	jg     54db <safe_lshift_func_int16_t_s_s+0x49>
    54cc:	0f bf 55 fc          	movswl -0x4(%rbp),%edx
    54d0:	8b 45 f8             	mov    -0x8(%rbp),%eax
    54d3:	89 c1                	mov    %eax,%ecx
    54d5:	d3 e2                	shl    %cl,%edx
    54d7:	89 d0                	mov    %edx,%eax
    54d9:	eb 04                	jmp    54df <safe_lshift_func_int16_t_s_s+0x4d>
    54db:	0f b7 45 fc          	movzwl -0x4(%rbp),%eax
    54df:	5d                   	pop    %rbp
    54e0:	c3                   	retq   

00000000000054e1 <safe_lshift_func_int16_t_s_u>:
    54e1:	f3 0f 1e fa          	endbr64 
    54e5:	55                   	push   %rbp
    54e6:	48 89 e5             	mov    %rsp,%rbp
    54e9:	89 f8                	mov    %edi,%eax
    54eb:	89 75 f8             	mov    %esi,-0x8(%rbp)
    54ee:	66 89 45 fc          	mov    %ax,-0x4(%rbp)
    54f2:	66 83 7d fc 00       	cmpw   $0x0,-0x4(%rbp)
    54f7:	78 2b                	js     5524 <safe_lshift_func_int16_t_s_u+0x43>
    54f9:	83 7d f8 1f          	cmpl   $0x1f,-0x8(%rbp)
    54fd:	77 25                	ja     5524 <safe_lshift_func_int16_t_s_u+0x43>
    54ff:	0f bf 55 fc          	movswl -0x4(%rbp),%edx
    5503:	8b 45 f8             	mov    -0x8(%rbp),%eax
    5506:	be ff 7f 00 00       	mov    $0x7fff,%esi
    550b:	89 c1                	mov    %eax,%ecx
    550d:	d3 fe                	sar    %cl,%esi
    550f:	89 f0                	mov    %esi,%eax
    5511:	39 c2                	cmp    %eax,%edx
    5513:	7f 0f                	jg     5524 <safe_lshift_func_int16_t_s_u+0x43>
    5515:	0f bf 55 fc          	movswl -0x4(%rbp),%edx
    5519:	8b 45 f8             	mov    -0x8(%rbp),%eax
    551c:	89 c1                	mov    %eax,%ecx
    551e:	d3 e2                	shl    %cl,%edx
    5520:	89 d0                	mov    %edx,%eax
    5522:	eb 04                	jmp    5528 <safe_lshift_func_int16_t_s_u+0x47>
    5524:	0f b7 45 fc          	movzwl -0x4(%rbp),%eax
    5528:	5d                   	pop    %rbp
    5529:	c3                   	retq   

000000000000552a <safe_rshift_func_int16_t_s_s>:
    552a:	f3 0f 1e fa          	endbr64 
    552e:	55                   	push   %rbp
    552f:	48 89 e5             	mov    %rsp,%rbp
    5532:	89 f8                	mov    %edi,%eax
    5534:	89 75 f8             	mov    %esi,-0x8(%rbp)
    5537:	66 89 45 fc          	mov    %ax,-0x4(%rbp)
    553b:	66 83 7d fc 00       	cmpw   $0x0,-0x4(%rbp)
    5540:	78 1b                	js     555d <safe_rshift_func_int16_t_s_s+0x33>
    5542:	83 7d f8 00          	cmpl   $0x0,-0x8(%rbp)
    5546:	78 15                	js     555d <safe_rshift_func_int16_t_s_s+0x33>
    5548:	83 7d f8 1f          	cmpl   $0x1f,-0x8(%rbp)
    554c:	7f 0f                	jg     555d <safe_rshift_func_int16_t_s_s+0x33>
    554e:	0f bf 55 fc          	movswl -0x4(%rbp),%edx
    5552:	8b 45 f8             	mov    -0x8(%rbp),%eax
    5555:	89 c1                	mov    %eax,%ecx
    5557:	d3 fa                	sar    %cl,%edx
    5559:	89 d0                	mov    %edx,%eax
    555b:	eb 04                	jmp    5561 <safe_rshift_func_int16_t_s_s+0x37>
    555d:	0f b7 45 fc          	movzwl -0x4(%rbp),%eax
    5561:	5d                   	pop    %rbp
    5562:	c3                   	retq   

0000000000005563 <safe_rshift_func_int16_t_s_u>:
    5563:	f3 0f 1e fa          	endbr64 
    5567:	55                   	push   %rbp
    5568:	48 89 e5             	mov    %rsp,%rbp
    556b:	89 f8                	mov    %edi,%eax
    556d:	89 75 f8             	mov    %esi,-0x8(%rbp)
    5570:	66 89 45 fc          	mov    %ax,-0x4(%rbp)
    5574:	66 83 7d fc 00       	cmpw   $0x0,-0x4(%rbp)
    5579:	78 15                	js     5590 <safe_rshift_func_int16_t_s_u+0x2d>
    557b:	83 7d f8 1f          	cmpl   $0x1f,-0x8(%rbp)
    557f:	77 0f                	ja     5590 <safe_rshift_func_int16_t_s_u+0x2d>
    5581:	0f bf 55 fc          	movswl -0x4(%rbp),%edx
    5585:	8b 45 f8             	mov    -0x8(%rbp),%eax
    5588:	89 c1                	mov    %eax,%ecx
    558a:	d3 fa                	sar    %cl,%edx
    558c:	89 d0                	mov    %edx,%eax
    558e:	eb 04                	jmp    5594 <safe_rshift_func_int16_t_s_u+0x31>
    5590:	0f b7 45 fc          	movzwl -0x4(%rbp),%eax
    5594:	5d                   	pop    %rbp
    5595:	c3                   	retq   

0000000000005596 <safe_unary_minus_func_int32_t_s>:
    5596:	f3 0f 1e fa          	endbr64 
    559a:	55                   	push   %rbp
    559b:	48 89 e5             	mov    %rsp,%rbp
    559e:	89 7d fc             	mov    %edi,-0x4(%rbp)
    55a1:	81 7d fc 00 00 00 80 	cmpl   $0x80000000,-0x4(%rbp)
    55a8:	74 07                	je     55b1 <safe_unary_minus_func_int32_t_s+0x1b>
    55aa:	8b 45 fc             	mov    -0x4(%rbp),%eax
    55ad:	f7 d8                	neg    %eax
    55af:	eb 03                	jmp    55b4 <safe_unary_minus_func_int32_t_s+0x1e>
    55b1:	8b 45 fc             	mov    -0x4(%rbp),%eax
    55b4:	5d                   	pop    %rbp
    55b5:	c3                   	retq   

00000000000055b6 <safe_add_func_int32_t_s_s>:
    55b6:	f3 0f 1e fa          	endbr64 
    55ba:	55                   	push   %rbp
    55bb:	48 89 e5             	mov    %rsp,%rbp
    55be:	89 7d fc             	mov    %edi,-0x4(%rbp)
    55c1:	89 75 f8             	mov    %esi,-0x8(%rbp)
    55c4:	83 7d fc 00          	cmpl   $0x0,-0x4(%rbp)
    55c8:	7e 13                	jle    55dd <safe_add_func_int32_t_s_s+0x27>
    55ca:	83 7d f8 00          	cmpl   $0x0,-0x8(%rbp)
    55ce:	7e 0d                	jle    55dd <safe_add_func_int32_t_s_s+0x27>
    55d0:	b8 ff ff ff 7f       	mov    $0x7fffffff,%eax
    55d5:	2b 45 f8             	sub    -0x8(%rbp),%eax
    55d8:	39 45 fc             	cmp    %eax,-0x4(%rbp)
    55db:	7f 23                	jg     5600 <safe_add_func_int32_t_s_s+0x4a>
    55dd:	83 7d fc 00          	cmpl   $0x0,-0x4(%rbp)
    55e1:	79 13                	jns    55f6 <safe_add_func_int32_t_s_s+0x40>
    55e3:	83 7d f8 00          	cmpl   $0x0,-0x8(%rbp)
    55e7:	79 0d                	jns    55f6 <safe_add_func_int32_t_s_s+0x40>
    55e9:	b8 00 00 00 80       	mov    $0x80000000,%eax
    55ee:	2b 45 f8             	sub    -0x8(%rbp),%eax
    55f1:	39 45 fc             	cmp    %eax,-0x4(%rbp)
    55f4:	7c 0a                	jl     5600 <safe_add_func_int32_t_s_s+0x4a>
    55f6:	8b 55 fc             	mov    -0x4(%rbp),%edx
    55f9:	8b 45 f8             	mov    -0x8(%rbp),%eax
    55fc:	01 d0                	add    %edx,%eax
    55fe:	eb 03                	jmp    5603 <safe_add_func_int32_t_s_s+0x4d>
    5600:	8b 45 fc             	mov    -0x4(%rbp),%eax
    5603:	5d                   	pop    %rbp
    5604:	c3                   	retq   

0000000000005605 <safe_sub_func_int32_t_s_s>:
    5605:	f3 0f 1e fa          	endbr64 
    5609:	55                   	push   %rbp
    560a:	48 89 e5             	mov    %rsp,%rbp
    560d:	89 7d fc             	mov    %edi,-0x4(%rbp)
    5610:	89 75 f8             	mov    %esi,-0x8(%rbp)
    5613:	8b 45 fc             	mov    -0x4(%rbp),%eax
    5616:	33 45 f8             	xor    -0x8(%rbp),%eax
    5619:	89 c2                	mov    %eax,%edx
    561b:	8b 45 fc             	mov    -0x4(%rbp),%eax
    561e:	33 45 f8             	xor    -0x8(%rbp),%eax
    5621:	25 00 00 00 80       	and    $0x80000000,%eax
    5626:	33 45 fc             	xor    -0x4(%rbp),%eax
    5629:	2b 45 f8             	sub    -0x8(%rbp),%eax
    562c:	33 45 f8             	xor    -0x8(%rbp),%eax
    562f:	21 d0                	and    %edx,%eax
    5631:	85 c0                	test   %eax,%eax
    5633:	78 08                	js     563d <safe_sub_func_int32_t_s_s+0x38>
    5635:	8b 45 fc             	mov    -0x4(%rbp),%eax
    5638:	2b 45 f8             	sub    -0x8(%rbp),%eax
    563b:	eb 03                	jmp    5640 <safe_sub_func_int32_t_s_s+0x3b>
    563d:	8b 45 fc             	mov    -0x4(%rbp),%eax
    5640:	5d                   	pop    %rbp
    5641:	c3                   	retq   

0000000000005642 <safe_mul_func_int32_t_s_s>:
    5642:	f3 0f 1e fa          	endbr64 
    5646:	55                   	push   %rbp
    5647:	48 89 e5             	mov    %rsp,%rbp
    564a:	89 7d fc             	mov    %edi,-0x4(%rbp)
    564d:	89 75 f8             	mov    %esi,-0x8(%rbp)
    5650:	83 7d fc 00          	cmpl   $0x0,-0x4(%rbp)
    5654:	7e 14                	jle    566a <safe_mul_func_int32_t_s_s+0x28>
    5656:	83 7d f8 00          	cmpl   $0x0,-0x8(%rbp)
    565a:	7e 0e                	jle    566a <safe_mul_func_int32_t_s_s+0x28>
    565c:	b8 ff ff ff 7f       	mov    $0x7fffffff,%eax
    5661:	99                   	cltd   
    5662:	f7 7d f8             	idivl  -0x8(%rbp)
    5665:	39 45 fc             	cmp    %eax,-0x4(%rbp)
    5668:	7f 5d                	jg     56c7 <safe_mul_func_int32_t_s_s+0x85>
    566a:	83 7d fc 00          	cmpl   $0x0,-0x4(%rbp)
    566e:	7e 14                	jle    5684 <safe_mul_func_int32_t_s_s+0x42>
    5670:	83 7d f8 00          	cmpl   $0x0,-0x8(%rbp)
    5674:	7f 0e                	jg     5684 <safe_mul_func_int32_t_s_s+0x42>
    5676:	b8 00 00 00 80       	mov    $0x80000000,%eax
    567b:	99                   	cltd   
    567c:	f7 7d fc             	idivl  -0x4(%rbp)
    567f:	39 45 f8             	cmp    %eax,-0x8(%rbp)
    5682:	7c 43                	jl     56c7 <safe_mul_func_int32_t_s_s+0x85>
    5684:	83 7d fc 00          	cmpl   $0x0,-0x4(%rbp)
    5688:	7f 14                	jg     569e <safe_mul_func_int32_t_s_s+0x5c>
    568a:	83 7d f8 00          	cmpl   $0x0,-0x8(%rbp)
    568e:	7e 0e                	jle    569e <safe_mul_func_int32_t_s_s+0x5c>
    5690:	b8 00 00 00 80       	mov    $0x80000000,%eax
    5695:	99                   	cltd   
    5696:	f7 7d f8             	idivl  -0x8(%rbp)
    5699:	39 45 fc             	cmp    %eax,-0x4(%rbp)
    569c:	7c 29                	jl     56c7 <safe_mul_func_int32_t_s_s+0x85>
    569e:	83 7d fc 00          	cmpl   $0x0,-0x4(%rbp)
    56a2:	7f 1a                	jg     56be <safe_mul_func_int32_t_s_s+0x7c>
    56a4:	83 7d f8 00          	cmpl   $0x0,-0x8(%rbp)
    56a8:	7f 14                	jg     56be <safe_mul_func_int32_t_s_s+0x7c>
    56aa:	83 7d fc 00          	cmpl   $0x0,-0x4(%rbp)
    56ae:	74 0e                	je     56be <safe_mul_func_int32_t_s_s+0x7c>
    56b0:	b8 ff ff ff 7f       	mov    $0x7fffffff,%eax
    56b5:	99                   	cltd   
    56b6:	f7 7d fc             	idivl  -0x4(%rbp)
    56b9:	39 45 f8             	cmp    %eax,-0x8(%rbp)
    56bc:	7c 09                	jl     56c7 <safe_mul_func_int32_t_s_s+0x85>
    56be:	8b 45 fc             	mov    -0x4(%rbp),%eax
    56c1:	0f af 45 f8          	imul   -0x8(%rbp),%eax
    56c5:	eb 03                	jmp    56ca <safe_mul_func_int32_t_s_s+0x88>
    56c7:	8b 45 fc             	mov    -0x4(%rbp),%eax
    56ca:	5d                   	pop    %rbp
    56cb:	c3                   	retq   

00000000000056cc <safe_mod_func_int32_t_s_s>:
    56cc:	f3 0f 1e fa          	endbr64 
    56d0:	55                   	push   %rbp
    56d1:	48 89 e5             	mov    %rsp,%rbp
    56d4:	89 7d fc             	mov    %edi,-0x4(%rbp)
    56d7:	89 75 f8             	mov    %esi,-0x8(%rbp)
    56da:	83 7d f8 00          	cmpl   $0x0,-0x8(%rbp)
    56de:	74 1a                	je     56fa <safe_mod_func_int32_t_s_s+0x2e>
    56e0:	81 7d fc 00 00 00 80 	cmpl   $0x80000000,-0x4(%rbp)
    56e7:	75 06                	jne    56ef <safe_mod_func_int32_t_s_s+0x23>
    56e9:	83 7d f8 ff          	cmpl   $0xffffffff,-0x8(%rbp)
    56ed:	74 0b                	je     56fa <safe_mod_func_int32_t_s_s+0x2e>
    56ef:	8b 45 fc             	mov    -0x4(%rbp),%eax
    56f2:	99                   	cltd   
    56f3:	f7 7d f8             	idivl  -0x8(%rbp)
    56f6:	89 d0                	mov    %edx,%eax
    56f8:	eb 03                	jmp    56fd <safe_mod_func_int32_t_s_s+0x31>
    56fa:	8b 45 fc             	mov    -0x4(%rbp),%eax
    56fd:	5d                   	pop    %rbp
    56fe:	c3                   	retq   

00000000000056ff <safe_div_func_int32_t_s_s>:
    56ff:	f3 0f 1e fa          	endbr64 
    5703:	55                   	push   %rbp
    5704:	48 89 e5             	mov    %rsp,%rbp
    5707:	89 7d fc             	mov    %edi,-0x4(%rbp)
    570a:	89 75 f8             	mov    %esi,-0x8(%rbp)
    570d:	83 7d f8 00          	cmpl   $0x0,-0x8(%rbp)
    5711:	74 18                	je     572b <safe_div_func_int32_t_s_s+0x2c>
    5713:	81 7d fc 00 00 00 80 	cmpl   $0x80000000,-0x4(%rbp)
    571a:	75 06                	jne    5722 <safe_div_func_int32_t_s_s+0x23>
    571c:	83 7d f8 ff          	cmpl   $0xffffffff,-0x8(%rbp)
    5720:	74 09                	je     572b <safe_div_func_int32_t_s_s+0x2c>
    5722:	8b 45 fc             	mov    -0x4(%rbp),%eax
    5725:	99                   	cltd   
    5726:	f7 7d f8             	idivl  -0x8(%rbp)
    5729:	eb 03                	jmp    572e <safe_div_func_int32_t_s_s+0x2f>
    572b:	8b 45 fc             	mov    -0x4(%rbp),%eax
    572e:	5d                   	pop    %rbp
    572f:	c3                   	retq   

0000000000005730 <safe_lshift_func_int32_t_s_s>:
    5730:	f3 0f 1e fa          	endbr64 
    5734:	55                   	push   %rbp
    5735:	48 89 e5             	mov    %rsp,%rbp
    5738:	89 7d fc             	mov    %edi,-0x4(%rbp)
    573b:	89 75 f8             	mov    %esi,-0x8(%rbp)
    573e:	83 7d fc 00          	cmpl   $0x0,-0x4(%rbp)
    5742:	78 2d                	js     5771 <safe_lshift_func_int32_t_s_s+0x41>
    5744:	83 7d f8 00          	cmpl   $0x0,-0x8(%rbp)
    5748:	78 27                	js     5771 <safe_lshift_func_int32_t_s_s+0x41>
    574a:	83 7d f8 1f          	cmpl   $0x1f,-0x8(%rbp)
    574e:	7f 21                	jg     5771 <safe_lshift_func_int32_t_s_s+0x41>
    5750:	8b 45 f8             	mov    -0x8(%rbp),%eax
    5753:	ba ff ff ff 7f       	mov    $0x7fffffff,%edx
    5758:	89 c1                	mov    %eax,%ecx
    575a:	d3 fa                	sar    %cl,%edx
    575c:	89 d0                	mov    %edx,%eax
    575e:	39 45 fc             	cmp    %eax,-0x4(%rbp)
    5761:	7f 0e                	jg     5771 <safe_lshift_func_int32_t_s_s+0x41>
    5763:	8b 45 f8             	mov    -0x8(%rbp),%eax
    5766:	8b 55 fc             	mov    -0x4(%rbp),%edx
    5769:	89 c1                	mov    %eax,%ecx
    576b:	d3 e2                	shl    %cl,%edx
    576d:	89 d0                	mov    %edx,%eax
    576f:	eb 03                	jmp    5774 <safe_lshift_func_int32_t_s_s+0x44>
    5771:	8b 45 fc             	mov    -0x4(%rbp),%eax
    5774:	5d                   	pop    %rbp
    5775:	c3                   	retq   

0000000000005776 <safe_lshift_func_int32_t_s_u>:
    5776:	f3 0f 1e fa          	endbr64 
    577a:	55                   	push   %rbp
    577b:	48 89 e5             	mov    %rsp,%rbp
    577e:	89 7d fc             	mov    %edi,-0x4(%rbp)
    5781:	89 75 f8             	mov    %esi,-0x8(%rbp)
    5784:	83 7d fc 00          	cmpl   $0x0,-0x4(%rbp)
    5788:	78 27                	js     57b1 <safe_lshift_func_int32_t_s_u+0x3b>
    578a:	83 7d f8 1f          	cmpl   $0x1f,-0x8(%rbp)
    578e:	77 21                	ja     57b1 <safe_lshift_func_int32_t_s_u+0x3b>
    5790:	8b 45 f8             	mov    -0x8(%rbp),%eax
    5793:	ba ff ff ff 7f       	mov    $0x7fffffff,%edx
    5798:	89 c1                	mov    %eax,%ecx
    579a:	d3 fa                	sar    %cl,%edx
    579c:	89 d0                	mov    %edx,%eax
    579e:	39 45 fc             	cmp    %eax,-0x4(%rbp)
    57a1:	7f 0e                	jg     57b1 <safe_lshift_func_int32_t_s_u+0x3b>
    57a3:	8b 45 f8             	mov    -0x8(%rbp),%eax
    57a6:	8b 55 fc             	mov    -0x4(%rbp),%edx
    57a9:	89 c1                	mov    %eax,%ecx
    57ab:	d3 e2                	shl    %cl,%edx
    57ad:	89 d0                	mov    %edx,%eax
    57af:	eb 03                	jmp    57b4 <safe_lshift_func_int32_t_s_u+0x3e>
    57b1:	8b 45 fc             	mov    -0x4(%rbp),%eax
    57b4:	5d                   	pop    %rbp
    57b5:	c3                   	retq   

00000000000057b6 <safe_rshift_func_int32_t_s_s>:
    57b6:	f3 0f 1e fa          	endbr64 
    57ba:	55                   	push   %rbp
    57bb:	48 89 e5             	mov    %rsp,%rbp
    57be:	89 7d fc             	mov    %edi,-0x4(%rbp)
    57c1:	89 75 f8             	mov    %esi,-0x8(%rbp)
    57c4:	83 7d fc 00          	cmpl   $0x0,-0x4(%rbp)
    57c8:	78 1a                	js     57e4 <safe_rshift_func_int32_t_s_s+0x2e>
    57ca:	83 7d f8 00          	cmpl   $0x0,-0x8(%rbp)
    57ce:	78 14                	js     57e4 <safe_rshift_func_int32_t_s_s+0x2e>
    57d0:	83 7d f8 1f          	cmpl   $0x1f,-0x8(%rbp)
    57d4:	7f 0e                	jg     57e4 <safe_rshift_func_int32_t_s_s+0x2e>
    57d6:	8b 45 f8             	mov    -0x8(%rbp),%eax
    57d9:	8b 55 fc             	mov    -0x4(%rbp),%edx
    57dc:	89 c1                	mov    %eax,%ecx
    57de:	d3 fa                	sar    %cl,%edx
    57e0:	89 d0                	mov    %edx,%eax
    57e2:	eb 03                	jmp    57e7 <safe_rshift_func_int32_t_s_s+0x31>
    57e4:	8b 45 fc             	mov    -0x4(%rbp),%eax
    57e7:	5d                   	pop    %rbp
    57e8:	c3                   	retq   

00000000000057e9 <safe_rshift_func_int32_t_s_u>:
    57e9:	f3 0f 1e fa          	endbr64 
    57ed:	55                   	push   %rbp
    57ee:	48 89 e5             	mov    %rsp,%rbp
    57f1:	89 7d fc             	mov    %edi,-0x4(%rbp)
    57f4:	89 75 f8             	mov    %esi,-0x8(%rbp)
    57f7:	83 7d fc 00          	cmpl   $0x0,-0x4(%rbp)
    57fb:	78 14                	js     5811 <safe_rshift_func_int32_t_s_u+0x28>
    57fd:	83 7d f8 1f          	cmpl   $0x1f,-0x8(%rbp)
    5801:	77 0e                	ja     5811 <safe_rshift_func_int32_t_s_u+0x28>
    5803:	8b 45 f8             	mov    -0x8(%rbp),%eax
    5806:	8b 55 fc             	mov    -0x4(%rbp),%edx
    5809:	89 c1                	mov    %eax,%ecx
    580b:	d3 fa                	sar    %cl,%edx
    580d:	89 d0                	mov    %edx,%eax
    580f:	eb 03                	jmp    5814 <safe_rshift_func_int32_t_s_u+0x2b>
    5811:	8b 45 fc             	mov    -0x4(%rbp),%eax
    5814:	5d                   	pop    %rbp
    5815:	c3                   	retq   

0000000000005816 <safe_unary_minus_func_int64_t_s>:
    5816:	f3 0f 1e fa          	endbr64 
    581a:	55                   	push   %rbp
    581b:	48 89 e5             	mov    %rsp,%rbp
    581e:	48 89 7d f8          	mov    %rdi,-0x8(%rbp)
    5822:	48 b8 00 00 00 00 00 	movabs $0x8000000000000000,%rax
    5829:	00 00 80 
    582c:	48 39 45 f8          	cmp    %rax,-0x8(%rbp)
    5830:	74 09                	je     583b <safe_unary_minus_func_int64_t_s+0x25>
    5832:	48 8b 45 f8          	mov    -0x8(%rbp),%rax
    5836:	48 f7 d8             	neg    %rax
    5839:	eb 04                	jmp    583f <safe_unary_minus_func_int64_t_s+0x29>
    583b:	48 8b 45 f8          	mov    -0x8(%rbp),%rax
    583f:	5d                   	pop    %rbp
    5840:	c3                   	retq   

0000000000005841 <safe_add_func_int64_t_s_s>:
    5841:	f3 0f 1e fa          	endbr64 
    5845:	55                   	push   %rbp
    5846:	48 89 e5             	mov    %rsp,%rbp
    5849:	48 89 7d f8          	mov    %rdi,-0x8(%rbp)
    584d:	48 89 75 f0          	mov    %rsi,-0x10(%rbp)
    5851:	48 83 7d f8 00       	cmpq   $0x0,-0x8(%rbp)
    5856:	7e 1b                	jle    5873 <safe_add_func_int64_t_s_s+0x32>
    5858:	48 83 7d f0 00       	cmpq   $0x0,-0x10(%rbp)
    585d:	7e 14                	jle    5873 <safe_add_func_int64_t_s_s+0x32>
    585f:	48 b8 ff ff ff ff ff 	movabs $0x7fffffffffffffff,%rax
    5866:	ff ff 7f 
    5869:	48 2b 45 f0          	sub    -0x10(%rbp),%rax
    586d:	48 39 45 f8          	cmp    %rax,-0x8(%rbp)
    5871:	7f 2f                	jg     58a2 <safe_add_func_int64_t_s_s+0x61>
    5873:	48 83 7d f8 00       	cmpq   $0x0,-0x8(%rbp)
    5878:	79 1b                	jns    5895 <safe_add_func_int64_t_s_s+0x54>
    587a:	48 83 7d f0 00       	cmpq   $0x0,-0x10(%rbp)
    587f:	79 14                	jns    5895 <safe_add_func_int64_t_s_s+0x54>
    5881:	48 b8 00 00 00 00 00 	movabs $0x8000000000000000,%rax
    5888:	00 00 80 
    588b:	48 2b 45 f0          	sub    -0x10(%rbp),%rax
    588f:	48 39 45 f8          	cmp    %rax,-0x8(%rbp)
    5893:	7c 0d                	jl     58a2 <safe_add_func_int64_t_s_s+0x61>
    5895:	48 8b 55 f8          	mov    -0x8(%rbp),%rdx
    5899:	48 8b 45 f0          	mov    -0x10(%rbp),%rax
    589d:	48 01 d0             	add    %rdx,%rax
    58a0:	eb 04                	jmp    58a6 <safe_add_func_int64_t_s_s+0x65>
    58a2:	48 8b 45 f8          	mov    -0x8(%rbp),%rax
    58a6:	5d                   	pop    %rbp
    58a7:	c3                   	retq   

00000000000058a8 <safe_sub_func_int64_t_s_s>:
    58a8:	f3 0f 1e fa          	endbr64 
    58ac:	55                   	push   %rbp
    58ad:	48 89 e5             	mov    %rsp,%rbp
    58b0:	48 89 7d f8          	mov    %rdi,-0x8(%rbp)
    58b4:	48 89 75 f0          	mov    %rsi,-0x10(%rbp)
    58b8:	48 8b 45 f8          	mov    -0x8(%rbp),%rax
    58bc:	48 33 45 f0          	xor    -0x10(%rbp),%rax
    58c0:	48 89 c2             	mov    %rax,%rdx
    58c3:	48 8b 45 f8          	mov    -0x8(%rbp),%rax
    58c7:	48 33 45 f0          	xor    -0x10(%rbp),%rax
    58cb:	48 b9 00 00 00 00 00 	movabs $0x8000000000000000,%rcx
    58d2:	00 00 80 
    58d5:	48 21 c8             	and    %rcx,%rax
    58d8:	48 33 45 f8          	xor    -0x8(%rbp),%rax
    58dc:	48 2b 45 f0          	sub    -0x10(%rbp),%rax
    58e0:	48 33 45 f0          	xor    -0x10(%rbp),%rax
    58e4:	48 21 d0             	and    %rdx,%rax
    58e7:	48 85 c0             	test   %rax,%rax
    58ea:	78 0a                	js     58f6 <safe_sub_func_int64_t_s_s+0x4e>
    58ec:	48 8b 45 f8          	mov    -0x8(%rbp),%rax
    58f0:	48 2b 45 f0          	sub    -0x10(%rbp),%rax
    58f4:	eb 04                	jmp    58fa <safe_sub_func_int64_t_s_s+0x52>
    58f6:	48 8b 45 f8          	mov    -0x8(%rbp),%rax
    58fa:	5d                   	pop    %rbp
    58fb:	c3                   	retq   

00000000000058fc <safe_mul_func_int64_t_s_s>:
    58fc:	f3 0f 1e fa          	endbr64 
    5900:	55                   	push   %rbp
    5901:	48 89 e5             	mov    %rsp,%rbp
    5904:	48 89 7d f8          	mov    %rdi,-0x8(%rbp)
    5908:	48 89 75 f0          	mov    %rsi,-0x10(%rbp)
    590c:	48 83 7d f8 00       	cmpq   $0x0,-0x8(%rbp)
    5911:	7e 1d                	jle    5930 <safe_mul_func_int64_t_s_s+0x34>
    5913:	48 83 7d f0 00       	cmpq   $0x0,-0x10(%rbp)
    5918:	7e 16                	jle    5930 <safe_mul_func_int64_t_s_s+0x34>
    591a:	48 b8 ff ff ff ff ff 	movabs $0x7fffffffffffffff,%rax
    5921:	ff ff 7f 
    5924:	48 99                	cqto   
    5926:	48 f7 7d f0          	idivq  -0x10(%rbp)
    592a:	48 39 45 f8          	cmp    %rax,-0x8(%rbp)
    592e:	7f 7e                	jg     59ae <safe_mul_func_int64_t_s_s+0xb2>
    5930:	48 83 7d f8 00       	cmpq   $0x0,-0x8(%rbp)
    5935:	7e 1d                	jle    5954 <safe_mul_func_int64_t_s_s+0x58>
    5937:	48 83 7d f0 00       	cmpq   $0x0,-0x10(%rbp)
    593c:	7f 16                	jg     5954 <safe_mul_func_int64_t_s_s+0x58>
    593e:	48 b8 00 00 00 00 00 	movabs $0x8000000000000000,%rax
    5945:	00 00 80 
    5948:	48 99                	cqto   
    594a:	48 f7 7d f8          	idivq  -0x8(%rbp)
    594e:	48 39 45 f0          	cmp    %rax,-0x10(%rbp)
    5952:	7c 5a                	jl     59ae <safe_mul_func_int64_t_s_s+0xb2>
    5954:	48 83 7d f8 00       	cmpq   $0x0,-0x8(%rbp)
    5959:	7f 1d                	jg     5978 <safe_mul_func_int64_t_s_s+0x7c>
    595b:	48 83 7d f0 00       	cmpq   $0x0,-0x10(%rbp)
    5960:	7e 16                	jle    5978 <safe_mul_func_int64_t_s_s+0x7c>
    5962:	48 b8 00 00 00 00 00 	movabs $0x8000000000000000,%rax
    5969:	00 00 80 
    596c:	48 99                	cqto   
    596e:	48 f7 7d f0          	idivq  -0x10(%rbp)
    5972:	48 39 45 f8          	cmp    %rax,-0x8(%rbp)
    5976:	7c 36                	jl     59ae <safe_mul_func_int64_t_s_s+0xb2>
    5978:	48 83 7d f8 00       	cmpq   $0x0,-0x8(%rbp)
    597d:	7f 24                	jg     59a3 <safe_mul_func_int64_t_s_s+0xa7>
    597f:	48 83 7d f0 00       	cmpq   $0x0,-0x10(%rbp)
    5984:	7f 1d                	jg     59a3 <safe_mul_func_int64_t_s_s+0xa7>
    5986:	48 83 7d f8 00       	cmpq   $0x0,-0x8(%rbp)
    598b:	74 16                	je     59a3 <safe_mul_func_int64_t_s_s+0xa7>
    598d:	48 b8 ff ff ff ff ff 	movabs $0x7fffffffffffffff,%rax
    5994:	ff ff 7f 
    5997:	48 99                	cqto   
    5999:	48 f7 7d f8          	idivq  -0x8(%rbp)
    599d:	48 39 45 f0          	cmp    %rax,-0x10(%rbp)
    59a1:	7c 0b                	jl     59ae <safe_mul_func_int64_t_s_s+0xb2>
    59a3:	48 8b 45 f8          	mov    -0x8(%rbp),%rax
    59a7:	48 0f af 45 f0       	imul   -0x10(%rbp),%rax
    59ac:	eb 04                	jmp    59b2 <safe_mul_func_int64_t_s_s+0xb6>
    59ae:	48 8b 45 f8          	mov    -0x8(%rbp),%rax
    59b2:	5d                   	pop    %rbp
    59b3:	c3                   	retq   

00000000000059b4 <safe_mod_func_int64_t_s_s>:
    59b4:	f3 0f 1e fa          	endbr64 
    59b8:	55                   	push   %rbp
    59b9:	48 89 e5             	mov    %rsp,%rbp
    59bc:	48 89 7d f8          	mov    %rdi,-0x8(%rbp)
    59c0:	48 89 75 f0          	mov    %rsi,-0x10(%rbp)
    59c4:	48 83 7d f0 00       	cmpq   $0x0,-0x10(%rbp)
    59c9:	74 26                	je     59f1 <safe_mod_func_int64_t_s_s+0x3d>
    59cb:	48 b8 00 00 00 00 00 	movabs $0x8000000000000000,%rax
    59d2:	00 00 80 
    59d5:	48 39 45 f8          	cmp    %rax,-0x8(%rbp)
    59d9:	75 07                	jne    59e2 <safe_mod_func_int64_t_s_s+0x2e>
    59db:	48 83 7d f0 ff       	cmpq   $0xffffffffffffffff,-0x10(%rbp)
    59e0:	74 0f                	je     59f1 <safe_mod_func_int64_t_s_s+0x3d>
    59e2:	48 8b 45 f8          	mov    -0x8(%rbp),%rax
    59e6:	48 99                	cqto   
    59e8:	48 f7 7d f0          	idivq  -0x10(%rbp)
    59ec:	48 89 d0             	mov    %rdx,%rax
    59ef:	eb 04                	jmp    59f5 <safe_mod_func_int64_t_s_s+0x41>
    59f1:	48 8b 45 f8          	mov    -0x8(%rbp),%rax
    59f5:	5d                   	pop    %rbp
    59f6:	c3                   	retq   

00000000000059f7 <safe_div_func_int64_t_s_s>:
    59f7:	f3 0f 1e fa          	endbr64 
    59fb:	55                   	push   %rbp
    59fc:	48 89 e5             	mov    %rsp,%rbp
    59ff:	48 89 7d f8          	mov    %rdi,-0x8(%rbp)
    5a03:	48 89 75 f0          	mov    %rsi,-0x10(%rbp)
    5a07:	48 83 7d f0 00       	cmpq   $0x0,-0x10(%rbp)
    5a0c:	74 23                	je     5a31 <safe_div_func_int64_t_s_s+0x3a>
    5a0e:	48 b8 00 00 00 00 00 	movabs $0x8000000000000000,%rax
    5a15:	00 00 80 
    5a18:	48 39 45 f8          	cmp    %rax,-0x8(%rbp)
    5a1c:	75 07                	jne    5a25 <safe_div_func_int64_t_s_s+0x2e>
    5a1e:	48 83 7d f0 ff       	cmpq   $0xffffffffffffffff,-0x10(%rbp)
    5a23:	74 0c                	je     5a31 <safe_div_func_int64_t_s_s+0x3a>
    5a25:	48 8b 45 f8          	mov    -0x8(%rbp),%rax
    5a29:	48 99                	cqto   
    5a2b:	48 f7 7d f0          	idivq  -0x10(%rbp)
    5a2f:	eb 04                	jmp    5a35 <safe_div_func_int64_t_s_s+0x3e>
    5a31:	48 8b 45 f8          	mov    -0x8(%rbp),%rax
    5a35:	5d                   	pop    %rbp
    5a36:	c3                   	retq   

0000000000005a37 <safe_lshift_func_int64_t_s_s>:
    5a37:	f3 0f 1e fa          	endbr64 
    5a3b:	55                   	push   %rbp
    5a3c:	48 89 e5             	mov    %rsp,%rbp
    5a3f:	48 89 7d f8          	mov    %rdi,-0x8(%rbp)
    5a43:	89 75 f4             	mov    %esi,-0xc(%rbp)
    5a46:	48 83 7d f8 00       	cmpq   $0x0,-0x8(%rbp)
    5a4b:	78 38                	js     5a85 <safe_lshift_func_int64_t_s_s+0x4e>
    5a4d:	83 7d f4 00          	cmpl   $0x0,-0xc(%rbp)
    5a51:	78 32                	js     5a85 <safe_lshift_func_int64_t_s_s+0x4e>
    5a53:	83 7d f4 1f          	cmpl   $0x1f,-0xc(%rbp)
    5a57:	7f 2c                	jg     5a85 <safe_lshift_func_int64_t_s_s+0x4e>
    5a59:	8b 45 f4             	mov    -0xc(%rbp),%eax
    5a5c:	48 ba ff ff ff ff ff 	movabs $0x7fffffffffffffff,%rdx
    5a63:	ff ff 7f 
    5a66:	89 c1                	mov    %eax,%ecx
    5a68:	48 d3 fa             	sar    %cl,%rdx
    5a6b:	48 89 d0             	mov    %rdx,%rax
    5a6e:	48 39 45 f8          	cmp    %rax,-0x8(%rbp)
    5a72:	7f 11                	jg     5a85 <safe_lshift_func_int64_t_s_s+0x4e>
    5a74:	8b 45 f4             	mov    -0xc(%rbp),%eax
    5a77:	48 8b 55 f8          	mov    -0x8(%rbp),%rdx
    5a7b:	89 c1                	mov    %eax,%ecx
    5a7d:	48 d3 e2             	shl    %cl,%rdx
    5a80:	48 89 d0             	mov    %rdx,%rax
    5a83:	eb 04                	jmp    5a89 <safe_lshift_func_int64_t_s_s+0x52>
    5a85:	48 8b 45 f8          	mov    -0x8(%rbp),%rax
    5a89:	5d                   	pop    %rbp
    5a8a:	c3                   	retq   

0000000000005a8b <safe_lshift_func_int64_t_s_u>:
    5a8b:	f3 0f 1e fa          	endbr64 
    5a8f:	55                   	push   %rbp
    5a90:	48 89 e5             	mov    %rsp,%rbp
    5a93:	48 89 7d f8          	mov    %rdi,-0x8(%rbp)
    5a97:	89 75 f4             	mov    %esi,-0xc(%rbp)
    5a9a:	48 83 7d f8 00       	cmpq   $0x0,-0x8(%rbp)
    5a9f:	78 32                	js     5ad3 <safe_lshift_func_int64_t_s_u+0x48>
    5aa1:	83 7d f4 1f          	cmpl   $0x1f,-0xc(%rbp)
    5aa5:	77 2c                	ja     5ad3 <safe_lshift_func_int64_t_s_u+0x48>
    5aa7:	8b 45 f4             	mov    -0xc(%rbp),%eax
    5aaa:	48 ba ff ff ff ff ff 	movabs $0x7fffffffffffffff,%rdx
    5ab1:	ff ff 7f 
    5ab4:	89 c1                	mov    %eax,%ecx
    5ab6:	48 d3 fa             	sar    %cl,%rdx
    5ab9:	48 89 d0             	mov    %rdx,%rax
    5abc:	48 39 45 f8          	cmp    %rax,-0x8(%rbp)
    5ac0:	7f 11                	jg     5ad3 <safe_lshift_func_int64_t_s_u+0x48>
    5ac2:	8b 45 f4             	mov    -0xc(%rbp),%eax
    5ac5:	48 8b 55 f8          	mov    -0x8(%rbp),%rdx
    5ac9:	89 c1                	mov    %eax,%ecx
    5acb:	48 d3 e2             	shl    %cl,%rdx
    5ace:	48 89 d0             	mov    %rdx,%rax
    5ad1:	eb 04                	jmp    5ad7 <safe_lshift_func_int64_t_s_u+0x4c>
    5ad3:	48 8b 45 f8          	mov    -0x8(%rbp),%rax
    5ad7:	5d                   	pop    %rbp
    5ad8:	c3                   	retq   

0000000000005ad9 <safe_rshift_func_int64_t_s_s>:
    5ad9:	f3 0f 1e fa          	endbr64 
    5add:	55                   	push   %rbp
    5ade:	48 89 e5             	mov    %rsp,%rbp
    5ae1:	48 89 7d f8          	mov    %rdi,-0x8(%rbp)
    5ae5:	89 75 f4             	mov    %esi,-0xc(%rbp)
    5ae8:	48 83 7d f8 00       	cmpq   $0x0,-0x8(%rbp)
    5aed:	78 1d                	js     5b0c <safe_rshift_func_int64_t_s_s+0x33>
    5aef:	83 7d f4 00          	cmpl   $0x0,-0xc(%rbp)
    5af3:	78 17                	js     5b0c <safe_rshift_func_int64_t_s_s+0x33>
    5af5:	83 7d f4 1f          	cmpl   $0x1f,-0xc(%rbp)
    5af9:	7f 11                	jg     5b0c <safe_rshift_func_int64_t_s_s+0x33>
    5afb:	8b 45 f4             	mov    -0xc(%rbp),%eax
    5afe:	48 8b 55 f8          	mov    -0x8(%rbp),%rdx
    5b02:	89 c1                	mov    %eax,%ecx
    5b04:	48 d3 fa             	sar    %cl,%rdx
    5b07:	48 89 d0             	mov    %rdx,%rax
    5b0a:	eb 04                	jmp    5b10 <safe_rshift_func_int64_t_s_s+0x37>
    5b0c:	48 8b 45 f8          	mov    -0x8(%rbp),%rax
    5b10:	5d                   	pop    %rbp
    5b11:	c3                   	retq   

0000000000005b12 <safe_rshift_func_int64_t_s_u>:
    5b12:	f3 0f 1e fa          	endbr64 
    5b16:	55                   	push   %rbp
    5b17:	48 89 e5             	mov    %rsp,%rbp
    5b1a:	48 89 7d f8          	mov    %rdi,-0x8(%rbp)
    5b1e:	89 75 f4             	mov    %esi,-0xc(%rbp)
    5b21:	48 83 7d f8 00       	cmpq   $0x0,-0x8(%rbp)
    5b26:	78 17                	js     5b3f <safe_rshift_func_int64_t_s_u+0x2d>
    5b28:	83 7d f4 1f          	cmpl   $0x1f,-0xc(%rbp)
    5b2c:	77 11                	ja     5b3f <safe_rshift_func_int64_t_s_u+0x2d>
    5b2e:	8b 45 f4             	mov    -0xc(%rbp),%eax
    5b31:	48 8b 55 f8          	mov    -0x8(%rbp),%rdx
    5b35:	89 c1                	mov    %eax,%ecx
    5b37:	48 d3 fa             	sar    %cl,%rdx
    5b3a:	48 89 d0             	mov    %rdx,%rax
    5b3d:	eb 04                	jmp    5b43 <safe_rshift_func_int64_t_s_u+0x31>
    5b3f:	48 8b 45 f8          	mov    -0x8(%rbp),%rax
    5b43:	5d                   	pop    %rbp
    5b44:	c3                   	retq   

0000000000005b45 <safe_unary_minus_func_uint8_t_u>:
    5b45:	f3 0f 1e fa          	endbr64 
    5b49:	55                   	push   %rbp
    5b4a:	48 89 e5             	mov    %rsp,%rbp
    5b4d:	89 f8                	mov    %edi,%eax
    5b4f:	88 45 fc             	mov    %al,-0x4(%rbp)
    5b52:	0f b6 45 fc          	movzbl -0x4(%rbp),%eax
    5b56:	f7 d8                	neg    %eax
    5b58:	5d                   	pop    %rbp
    5b59:	c3                   	retq   

0000000000005b5a <safe_add_func_uint8_t_u_u>:
    5b5a:	f3 0f 1e fa          	endbr64 
    5b5e:	55                   	push   %rbp
    5b5f:	48 89 e5             	mov    %rsp,%rbp
    5b62:	89 fa                	mov    %edi,%edx
    5b64:	89 f0                	mov    %esi,%eax
    5b66:	88 55 fc             	mov    %dl,-0x4(%rbp)
    5b69:	88 45 f8             	mov    %al,-0x8(%rbp)
    5b6c:	0f b6 55 fc          	movzbl -0x4(%rbp),%edx
    5b70:	0f b6 45 f8          	movzbl -0x8(%rbp),%eax
    5b74:	01 d0                	add    %edx,%eax
    5b76:	5d                   	pop    %rbp
    5b77:	c3                   	retq   

0000000000005b78 <safe_sub_func_uint8_t_u_u>:
    5b78:	f3 0f 1e fa          	endbr64 
    5b7c:	55                   	push   %rbp
    5b7d:	48 89 e5             	mov    %rsp,%rbp
    5b80:	89 fa                	mov    %edi,%edx
    5b82:	89 f0                	mov    %esi,%eax
    5b84:	88 55 fc             	mov    %dl,-0x4(%rbp)
    5b87:	88 45 f8             	mov    %al,-0x8(%rbp)
    5b8a:	0f b6 45 fc          	movzbl -0x4(%rbp),%eax
    5b8e:	2a 45 f8             	sub    -0x8(%rbp),%al
    5b91:	5d                   	pop    %rbp
    5b92:	c3                   	retq   

0000000000005b93 <safe_mul_func_uint8_t_u_u>:
    5b93:	f3 0f 1e fa          	endbr64 
    5b97:	55                   	push   %rbp
    5b98:	48 89 e5             	mov    %rsp,%rbp
    5b9b:	89 fa                	mov    %edi,%edx
    5b9d:	89 f0                	mov    %esi,%eax
    5b9f:	88 55 fc             	mov    %dl,-0x4(%rbp)
    5ba2:	88 45 f8             	mov    %al,-0x8(%rbp)
    5ba5:	0f b6 45 fc          	movzbl -0x4(%rbp),%eax
    5ba9:	f6 65 f8             	mulb   -0x8(%rbp)
    5bac:	5d                   	pop    %rbp
    5bad:	c3                   	retq   

0000000000005bae <safe_mod_func_uint8_t_u_u>:
    5bae:	f3 0f 1e fa          	endbr64 
    5bb2:	55                   	push   %rbp
    5bb3:	48 89 e5             	mov    %rsp,%rbp
    5bb6:	89 fa                	mov    %edi,%edx
    5bb8:	89 f0                	mov    %esi,%eax
    5bba:	88 55 fc             	mov    %dl,-0x4(%rbp)
    5bbd:	88 45 f8             	mov    %al,-0x8(%rbp)
    5bc0:	80 7d f8 00          	cmpb   $0x0,-0x8(%rbp)
    5bc4:	74 0f                	je     5bd5 <safe_mod_func_uint8_t_u_u+0x27>
    5bc6:	0f b6 45 fc          	movzbl -0x4(%rbp),%eax
    5bca:	0f b6 c0             	movzbl %al,%eax
    5bcd:	f6 75 f8             	divb   -0x8(%rbp)
    5bd0:	0f b6 c4             	movzbl %ah,%eax
    5bd3:	eb 04                	jmp    5bd9 <safe_mod_func_uint8_t_u_u+0x2b>
    5bd5:	0f b6 45 fc          	movzbl -0x4(%rbp),%eax
    5bd9:	5d                   	pop    %rbp
    5bda:	c3                   	retq   

0000000000005bdb <safe_div_func_uint8_t_u_u>:
    5bdb:	f3 0f 1e fa          	endbr64 
    5bdf:	55                   	push   %rbp
    5be0:	48 89 e5             	mov    %rsp,%rbp
    5be3:	89 fa                	mov    %edi,%edx
    5be5:	89 f0                	mov    %esi,%eax
    5be7:	88 55 fc             	mov    %dl,-0x4(%rbp)
    5bea:	88 45 f8             	mov    %al,-0x8(%rbp)
    5bed:	80 7d f8 00          	cmpb   $0x0,-0x8(%rbp)
    5bf1:	74 0c                	je     5bff <safe_div_func_uint8_t_u_u+0x24>
    5bf3:	0f b6 45 fc          	movzbl -0x4(%rbp),%eax
    5bf7:	0f b6 c0             	movzbl %al,%eax
    5bfa:	f6 75 f8             	divb   -0x8(%rbp)
    5bfd:	eb 04                	jmp    5c03 <safe_div_func_uint8_t_u_u+0x28>
    5bff:	0f b6 45 fc          	movzbl -0x4(%rbp),%eax
    5c03:	5d                   	pop    %rbp
    5c04:	c3                   	retq   

0000000000005c05 <safe_lshift_func_uint8_t_u_s>:
    5c05:	f3 0f 1e fa          	endbr64 
    5c09:	55                   	push   %rbp
    5c0a:	48 89 e5             	mov    %rsp,%rbp
    5c0d:	89 f8                	mov    %edi,%eax
    5c0f:	89 75 f8             	mov    %esi,-0x8(%rbp)
    5c12:	88 45 fc             	mov    %al,-0x4(%rbp)
    5c15:	83 7d f8 00          	cmpl   $0x0,-0x8(%rbp)
    5c19:	78 2b                	js     5c46 <safe_lshift_func_uint8_t_u_s+0x41>
    5c1b:	83 7d f8 1f          	cmpl   $0x1f,-0x8(%rbp)
    5c1f:	7f 25                	jg     5c46 <safe_lshift_func_uint8_t_u_s+0x41>
    5c21:	0f b6 55 fc          	movzbl -0x4(%rbp),%edx
    5c25:	8b 45 f8             	mov    -0x8(%rbp),%eax
    5c28:	be ff 00 00 00       	mov    $0xff,%esi
    5c2d:	89 c1                	mov    %eax,%ecx
    5c2f:	d3 fe                	sar    %cl,%esi
    5c31:	89 f0                	mov    %esi,%eax
    5c33:	39 c2                	cmp    %eax,%edx
    5c35:	7f 0f                	jg     5c46 <safe_lshift_func_uint8_t_u_s+0x41>
    5c37:	0f b6 55 fc          	movzbl -0x4(%rbp),%edx
    5c3b:	8b 45 f8             	mov    -0x8(%rbp),%eax
    5c3e:	89 c1                	mov    %eax,%ecx
    5c40:	d3 e2                	shl    %cl,%edx
    5c42:	89 d0                	mov    %edx,%eax
    5c44:	eb 04                	jmp    5c4a <safe_lshift_func_uint8_t_u_s+0x45>
    5c46:	0f b6 45 fc          	movzbl -0x4(%rbp),%eax
    5c4a:	5d                   	pop    %rbp
    5c4b:	c3                   	retq   

0000000000005c4c <safe_lshift_func_uint8_t_u_u>:
    5c4c:	f3 0f 1e fa          	endbr64 
    5c50:	55                   	push   %rbp
    5c51:	48 89 e5             	mov    %rsp,%rbp
    5c54:	89 f8                	mov    %edi,%eax
    5c56:	89 75 f8             	mov    %esi,-0x8(%rbp)
    5c59:	88 45 fc             	mov    %al,-0x4(%rbp)
    5c5c:	83 7d f8 1f          	cmpl   $0x1f,-0x8(%rbp)
    5c60:	77 25                	ja     5c87 <safe_lshift_func_uint8_t_u_u+0x3b>
    5c62:	0f b6 55 fc          	movzbl -0x4(%rbp),%edx
    5c66:	8b 45 f8             	mov    -0x8(%rbp),%eax
    5c69:	be ff 00 00 00       	mov    $0xff,%esi
    5c6e:	89 c1                	mov    %eax,%ecx
    5c70:	d3 fe                	sar    %cl,%esi
    5c72:	89 f0                	mov    %esi,%eax
    5c74:	39 c2                	cmp    %eax,%edx
    5c76:	7f 0f                	jg     5c87 <safe_lshift_func_uint8_t_u_u+0x3b>
    5c78:	0f b6 55 fc          	movzbl -0x4(%rbp),%edx
    5c7c:	8b 45 f8             	mov    -0x8(%rbp),%eax
    5c7f:	89 c1                	mov    %eax,%ecx
    5c81:	d3 e2                	shl    %cl,%edx
    5c83:	89 d0                	mov    %edx,%eax
    5c85:	eb 04                	jmp    5c8b <safe_lshift_func_uint8_t_u_u+0x3f>
    5c87:	0f b6 45 fc          	movzbl -0x4(%rbp),%eax
    5c8b:	5d                   	pop    %rbp
    5c8c:	c3                   	retq   

0000000000005c8d <safe_rshift_func_uint8_t_u_s>:
    5c8d:	f3 0f 1e fa          	endbr64 
    5c91:	55                   	push   %rbp
    5c92:	48 89 e5             	mov    %rsp,%rbp
    5c95:	89 f8                	mov    %edi,%eax
    5c97:	89 75 f8             	mov    %esi,-0x8(%rbp)
    5c9a:	88 45 fc             	mov    %al,-0x4(%rbp)
    5c9d:	83 7d f8 00          	cmpl   $0x0,-0x8(%rbp)
    5ca1:	78 15                	js     5cb8 <safe_rshift_func_uint8_t_u_s+0x2b>
    5ca3:	83 7d f8 1f          	cmpl   $0x1f,-0x8(%rbp)
    5ca7:	7f 0f                	jg     5cb8 <safe_rshift_func_uint8_t_u_s+0x2b>
    5ca9:	0f b6 55 fc          	movzbl -0x4(%rbp),%edx
    5cad:	8b 45 f8             	mov    -0x8(%rbp),%eax
    5cb0:	89 c1                	mov    %eax,%ecx
    5cb2:	d3 fa                	sar    %cl,%edx
    5cb4:	89 d0                	mov    %edx,%eax
    5cb6:	eb 04                	jmp    5cbc <safe_rshift_func_uint8_t_u_s+0x2f>
    5cb8:	0f b6 45 fc          	movzbl -0x4(%rbp),%eax
    5cbc:	5d                   	pop    %rbp
    5cbd:	c3                   	retq   

0000000000005cbe <safe_rshift_func_uint8_t_u_u>:
    5cbe:	f3 0f 1e fa          	endbr64 
    5cc2:	55                   	push   %rbp
    5cc3:	48 89 e5             	mov    %rsp,%rbp
    5cc6:	89 f8                	mov    %edi,%eax
    5cc8:	89 75 f8             	mov    %esi,-0x8(%rbp)
    5ccb:	88 45 fc             	mov    %al,-0x4(%rbp)
    5cce:	83 7d f8 1f          	cmpl   $0x1f,-0x8(%rbp)
    5cd2:	77 0f                	ja     5ce3 <safe_rshift_func_uint8_t_u_u+0x25>
    5cd4:	0f b6 55 fc          	movzbl -0x4(%rbp),%edx
    5cd8:	8b 45 f8             	mov    -0x8(%rbp),%eax
    5cdb:	89 c1                	mov    %eax,%ecx
    5cdd:	d3 fa                	sar    %cl,%edx
    5cdf:	89 d0                	mov    %edx,%eax
    5ce1:	eb 04                	jmp    5ce7 <safe_rshift_func_uint8_t_u_u+0x29>
    5ce3:	0f b6 45 fc          	movzbl -0x4(%rbp),%eax
    5ce7:	5d                   	pop    %rbp
    5ce8:	c3                   	retq   

0000000000005ce9 <safe_unary_minus_func_uint16_t_u>:
    5ce9:	f3 0f 1e fa          	endbr64 
    5ced:	55                   	push   %rbp
    5cee:	48 89 e5             	mov    %rsp,%rbp
    5cf1:	89 f8                	mov    %edi,%eax
    5cf3:	66 89 45 fc          	mov    %ax,-0x4(%rbp)
    5cf7:	0f b7 45 fc          	movzwl -0x4(%rbp),%eax
    5cfb:	f7 d8                	neg    %eax
    5cfd:	5d                   	pop    %rbp
    5cfe:	c3                   	retq   

0000000000005cff <safe_add_func_uint16_t_u_u>:
    5cff:	f3 0f 1e fa          	endbr64 
    5d03:	55                   	push   %rbp
    5d04:	48 89 e5             	mov    %rsp,%rbp
    5d07:	89 fa                	mov    %edi,%edx
    5d09:	89 f0                	mov    %esi,%eax
    5d0b:	66 89 55 fc          	mov    %dx,-0x4(%rbp)
    5d0f:	66 89 45 f8          	mov    %ax,-0x8(%rbp)
    5d13:	0f b7 55 fc          	movzwl -0x4(%rbp),%edx
    5d17:	0f b7 45 f8          	movzwl -0x8(%rbp),%eax
    5d1b:	01 d0                	add    %edx,%eax
    5d1d:	5d                   	pop    %rbp
    5d1e:	c3                   	retq   

0000000000005d1f <safe_sub_func_uint16_t_u_u>:
    5d1f:	f3 0f 1e fa          	endbr64 
    5d23:	55                   	push   %rbp
    5d24:	48 89 e5             	mov    %rsp,%rbp
    5d27:	89 fa                	mov    %edi,%edx
    5d29:	89 f0                	mov    %esi,%eax
    5d2b:	66 89 55 fc          	mov    %dx,-0x4(%rbp)
    5d2f:	66 89 45 f8          	mov    %ax,-0x8(%rbp)
    5d33:	0f b7 45 fc          	movzwl -0x4(%rbp),%eax
    5d37:	66 2b 45 f8          	sub    -0x8(%rbp),%ax
    5d3b:	5d                   	pop    %rbp
    5d3c:	c3                   	retq   

0000000000005d3d <safe_mul_func_uint16_t_u_u>:
    5d3d:	f3 0f 1e fa          	endbr64 
    5d41:	55                   	push   %rbp
    5d42:	48 89 e5             	mov    %rsp,%rbp
    5d45:	89 fa                	mov    %edi,%edx
    5d47:	89 f0                	mov    %esi,%eax
    5d49:	66 89 55 fc          	mov    %dx,-0x4(%rbp)
    5d4d:	66 89 45 f8          	mov    %ax,-0x8(%rbp)
    5d51:	0f b7 45 fc          	movzwl -0x4(%rbp),%eax
    5d55:	66 0f af 45 f8       	imul   -0x8(%rbp),%ax
    5d5a:	5d                   	pop    %rbp
    5d5b:	c3                   	retq   

0000000000005d5c <safe_mod_func_uint16_t_u_u>:
    5d5c:	f3 0f 1e fa          	endbr64 
    5d60:	55                   	push   %rbp
    5d61:	48 89 e5             	mov    %rsp,%rbp
    5d64:	89 fa                	mov    %edi,%edx
    5d66:	89 f0                	mov    %esi,%eax
    5d68:	66 89 55 fc          	mov    %dx,-0x4(%rbp)
    5d6c:	66 89 45 f8          	mov    %ax,-0x8(%rbp)
    5d70:	66 83 7d f8 00       	cmpw   $0x0,-0x8(%rbp)
    5d75:	74 11                	je     5d88 <safe_mod_func_uint16_t_u_u+0x2c>
    5d77:	0f b7 45 fc          	movzwl -0x4(%rbp),%eax
    5d7b:	ba 00 00 00 00       	mov    $0x0,%edx
    5d80:	66 f7 75 f8          	divw   -0x8(%rbp)
    5d84:	89 d0                	mov    %edx,%eax
    5d86:	eb 04                	jmp    5d8c <safe_mod_func_uint16_t_u_u+0x30>
    5d88:	0f b7 45 fc          	movzwl -0x4(%rbp),%eax
    5d8c:	5d                   	pop    %rbp
    5d8d:	c3                   	retq   

0000000000005d8e <safe_div_func_uint16_t_u_u>:
    5d8e:	f3 0f 1e fa          	endbr64 
    5d92:	55                   	push   %rbp
    5d93:	48 89 e5             	mov    %rsp,%rbp
    5d96:	89 fa                	mov    %edi,%edx
    5d98:	89 f0                	mov    %esi,%eax
    5d9a:	66 89 55 fc          	mov    %dx,-0x4(%rbp)
    5d9e:	66 89 45 f8          	mov    %ax,-0x8(%rbp)
    5da2:	66 83 7d f8 00       	cmpw   $0x0,-0x8(%rbp)
    5da7:	74 0f                	je     5db8 <safe_div_func_uint16_t_u_u+0x2a>
    5da9:	0f b7 45 fc          	movzwl -0x4(%rbp),%eax
    5dad:	ba 00 00 00 00       	mov    $0x0,%edx
    5db2:	66 f7 75 f8          	divw   -0x8(%rbp)
    5db6:	eb 04                	jmp    5dbc <safe_div_func_uint16_t_u_u+0x2e>
    5db8:	0f b7 45 fc          	movzwl -0x4(%rbp),%eax
    5dbc:	5d                   	pop    %rbp
    5dbd:	c3                   	retq   

0000000000005dbe <safe_lshift_func_uint16_t_u_s>:
    5dbe:	f3 0f 1e fa          	endbr64 
    5dc2:	55                   	push   %rbp
    5dc3:	48 89 e5             	mov    %rsp,%rbp
    5dc6:	89 f8                	mov    %edi,%eax
    5dc8:	89 75 f8             	mov    %esi,-0x8(%rbp)
    5dcb:	66 89 45 fc          	mov    %ax,-0x4(%rbp)
    5dcf:	83 7d f8 00          	cmpl   $0x0,-0x8(%rbp)
    5dd3:	78 2b                	js     5e00 <safe_lshift_func_uint16_t_u_s+0x42>
    5dd5:	83 7d f8 1f          	cmpl   $0x1f,-0x8(%rbp)
    5dd9:	7f 25                	jg     5e00 <safe_lshift_func_uint16_t_u_s+0x42>
    5ddb:	0f b7 55 fc          	movzwl -0x4(%rbp),%edx
    5ddf:	8b 45 f8             	mov    -0x8(%rbp),%eax
    5de2:	be ff ff 00 00       	mov    $0xffff,%esi
    5de7:	89 c1                	mov    %eax,%ecx
    5de9:	d3 fe                	sar    %cl,%esi
    5deb:	89 f0                	mov    %esi,%eax
    5ded:	39 c2                	cmp    %eax,%edx
    5def:	7f 0f                	jg     5e00 <safe_lshift_func_uint16_t_u_s+0x42>
    5df1:	0f b7 55 fc          	movzwl -0x4(%rbp),%edx
    5df5:	8b 45 f8             	mov    -0x8(%rbp),%eax
    5df8:	89 c1                	mov    %eax,%ecx
    5dfa:	d3 e2                	shl    %cl,%edx
    5dfc:	89 d0                	mov    %edx,%eax
    5dfe:	eb 04                	jmp    5e04 <safe_lshift_func_uint16_t_u_s+0x46>
    5e00:	0f b7 45 fc          	movzwl -0x4(%rbp),%eax
    5e04:	5d                   	pop    %rbp
    5e05:	c3                   	retq   

0000000000005e06 <safe_lshift_func_uint16_t_u_u>:
    5e06:	f3 0f 1e fa          	endbr64 
    5e0a:	55                   	push   %rbp
    5e0b:	48 89 e5             	mov    %rsp,%rbp
    5e0e:	89 f8                	mov    %edi,%eax
    5e10:	89 75 f8             	mov    %esi,-0x8(%rbp)
    5e13:	66 89 45 fc          	mov    %ax,-0x4(%rbp)
    5e17:	83 7d f8 1f          	cmpl   $0x1f,-0x8(%rbp)
    5e1b:	77 25                	ja     5e42 <safe_lshift_func_uint16_t_u_u+0x3c>
    5e1d:	0f b7 55 fc          	movzwl -0x4(%rbp),%edx
    5e21:	8b 45 f8             	mov    -0x8(%rbp),%eax
    5e24:	be ff ff 00 00       	mov    $0xffff,%esi
    5e29:	89 c1                	mov    %eax,%ecx
    5e2b:	d3 fe                	sar    %cl,%esi
    5e2d:	89 f0                	mov    %esi,%eax
    5e2f:	39 c2                	cmp    %eax,%edx
    5e31:	7f 0f                	jg     5e42 <safe_lshift_func_uint16_t_u_u+0x3c>
    5e33:	0f b7 55 fc          	movzwl -0x4(%rbp),%edx
    5e37:	8b 45 f8             	mov    -0x8(%rbp),%eax
    5e3a:	89 c1                	mov    %eax,%ecx
    5e3c:	d3 e2                	shl    %cl,%edx
    5e3e:	89 d0                	mov    %edx,%eax
    5e40:	eb 04                	jmp    5e46 <safe_lshift_func_uint16_t_u_u+0x40>
    5e42:	0f b7 45 fc          	movzwl -0x4(%rbp),%eax
    5e46:	5d                   	pop    %rbp
    5e47:	c3                   	retq   

0000000000005e48 <safe_rshift_func_uint16_t_u_s>:
    5e48:	f3 0f 1e fa          	endbr64 
    5e4c:	55                   	push   %rbp
    5e4d:	48 89 e5             	mov    %rsp,%rbp
    5e50:	89 f8                	mov    %edi,%eax
    5e52:	89 75 f8             	mov    %esi,-0x8(%rbp)
    5e55:	66 89 45 fc          	mov    %ax,-0x4(%rbp)
    5e59:	83 7d f8 00          	cmpl   $0x0,-0x8(%rbp)
    5e5d:	78 15                	js     5e74 <safe_rshift_func_uint16_t_u_s+0x2c>
    5e5f:	83 7d f8 1f          	cmpl   $0x1f,-0x8(%rbp)
    5e63:	7f 0f                	jg     5e74 <safe_rshift_func_uint16_t_u_s+0x2c>
    5e65:	0f b7 55 fc          	movzwl -0x4(%rbp),%edx
    5e69:	8b 45 f8             	mov    -0x8(%rbp),%eax
    5e6c:	89 c1                	mov    %eax,%ecx
    5e6e:	d3 fa                	sar    %cl,%edx
    5e70:	89 d0                	mov    %edx,%eax
    5e72:	eb 04                	jmp    5e78 <safe_rshift_func_uint16_t_u_s+0x30>
    5e74:	0f b7 45 fc          	movzwl -0x4(%rbp),%eax
    5e78:	5d                   	pop    %rbp
    5e79:	c3                   	retq   

0000000000005e7a <safe_rshift_func_uint16_t_u_u>:
    5e7a:	f3 0f 1e fa          	endbr64 
    5e7e:	55                   	push   %rbp
    5e7f:	48 89 e5             	mov    %rsp,%rbp
    5e82:	89 f8                	mov    %edi,%eax
    5e84:	89 75 f8             	mov    %esi,-0x8(%rbp)
    5e87:	66 89 45 fc          	mov    %ax,-0x4(%rbp)
    5e8b:	83 7d f8 1f          	cmpl   $0x1f,-0x8(%rbp)
    5e8f:	77 0f                	ja     5ea0 <safe_rshift_func_uint16_t_u_u+0x26>
    5e91:	0f b7 55 fc          	movzwl -0x4(%rbp),%edx
    5e95:	8b 45 f8             	mov    -0x8(%rbp),%eax
    5e98:	89 c1                	mov    %eax,%ecx
    5e9a:	d3 fa                	sar    %cl,%edx
    5e9c:	89 d0                	mov    %edx,%eax
    5e9e:	eb 04                	jmp    5ea4 <safe_rshift_func_uint16_t_u_u+0x2a>
    5ea0:	0f b7 45 fc          	movzwl -0x4(%rbp),%eax
    5ea4:	5d                   	pop    %rbp
    5ea5:	c3                   	retq   

0000000000005ea6 <safe_unary_minus_func_uint32_t_u>:
    5ea6:	f3 0f 1e fa          	endbr64 
    5eaa:	55                   	push   %rbp
    5eab:	48 89 e5             	mov    %rsp,%rbp
    5eae:	89 7d fc             	mov    %edi,-0x4(%rbp)
    5eb1:	8b 45 fc             	mov    -0x4(%rbp),%eax
    5eb4:	f7 d8                	neg    %eax
    5eb6:	5d                   	pop    %rbp
    5eb7:	c3                   	retq   

0000000000005eb8 <safe_add_func_uint32_t_u_u>:
    5eb8:	f3 0f 1e fa          	endbr64 
    5ebc:	55                   	push   %rbp
    5ebd:	48 89 e5             	mov    %rsp,%rbp
    5ec0:	89 7d fc             	mov    %edi,-0x4(%rbp)
    5ec3:	89 75 f8             	mov    %esi,-0x8(%rbp)
    5ec6:	8b 55 fc             	mov    -0x4(%rbp),%edx
    5ec9:	8b 45 f8             	mov    -0x8(%rbp),%eax
    5ecc:	01 d0                	add    %edx,%eax
    5ece:	5d                   	pop    %rbp
    5ecf:	c3                   	retq   

0000000000005ed0 <safe_sub_func_uint32_t_u_u>:
    5ed0:	f3 0f 1e fa          	endbr64 
    5ed4:	55                   	push   %rbp
    5ed5:	48 89 e5             	mov    %rsp,%rbp
    5ed8:	89 7d fc             	mov    %edi,-0x4(%rbp)
    5edb:	89 75 f8             	mov    %esi,-0x8(%rbp)
    5ede:	8b 45 fc             	mov    -0x4(%rbp),%eax
    5ee1:	2b 45 f8             	sub    -0x8(%rbp),%eax
    5ee4:	5d                   	pop    %rbp
    5ee5:	c3                   	retq   

0000000000005ee6 <safe_mul_func_uint32_t_u_u>:
    5ee6:	f3 0f 1e fa          	endbr64 
    5eea:	55                   	push   %rbp
    5eeb:	48 89 e5             	mov    %rsp,%rbp
    5eee:	89 7d fc             	mov    %edi,-0x4(%rbp)
    5ef1:	89 75 f8             	mov    %esi,-0x8(%rbp)
    5ef4:	8b 45 fc             	mov    -0x4(%rbp),%eax
    5ef7:	0f af 45 f8          	imul   -0x8(%rbp),%eax
    5efb:	5d                   	pop    %rbp
    5efc:	c3                   	retq   

0000000000005efd <safe_mod_func_uint32_t_u_u>:
    5efd:	f3 0f 1e fa          	endbr64 
    5f01:	55                   	push   %rbp
    5f02:	48 89 e5             	mov    %rsp,%rbp
    5f05:	89 7d fc             	mov    %edi,-0x4(%rbp)
    5f08:	89 75 f8             	mov    %esi,-0x8(%rbp)
    5f0b:	83 7d f8 00          	cmpl   $0x0,-0x8(%rbp)
    5f0f:	74 0f                	je     5f20 <safe_mod_func_uint32_t_u_u+0x23>
    5f11:	8b 45 fc             	mov    -0x4(%rbp),%eax
    5f14:	ba 00 00 00 00       	mov    $0x0,%edx
    5f19:	f7 75 f8             	divl   -0x8(%rbp)
    5f1c:	89 d0                	mov    %edx,%eax
    5f1e:	eb 03                	jmp    5f23 <safe_mod_func_uint32_t_u_u+0x26>
    5f20:	8b 45 fc             	mov    -0x4(%rbp),%eax
    5f23:	5d                   	pop    %rbp
    5f24:	c3                   	retq   

0000000000005f25 <safe_div_func_uint32_t_u_u>:
    5f25:	f3 0f 1e fa          	endbr64 
    5f29:	55                   	push   %rbp
    5f2a:	48 89 e5             	mov    %rsp,%rbp
    5f2d:	89 7d fc             	mov    %edi,-0x4(%rbp)
    5f30:	89 75 f8             	mov    %esi,-0x8(%rbp)
    5f33:	83 7d f8 00          	cmpl   $0x0,-0x8(%rbp)
    5f37:	74 0d                	je     5f46 <safe_div_func_uint32_t_u_u+0x21>
    5f39:	8b 45 fc             	mov    -0x4(%rbp),%eax
    5f3c:	ba 00 00 00 00       	mov    $0x0,%edx
    5f41:	f7 75 f8             	divl   -0x8(%rbp)
    5f44:	eb 03                	jmp    5f49 <safe_div_func_uint32_t_u_u+0x24>
    5f46:	8b 45 fc             	mov    -0x4(%rbp),%eax
    5f49:	5d                   	pop    %rbp
    5f4a:	c3                   	retq   

0000000000005f4b <safe_lshift_func_uint32_t_u_s>:
    5f4b:	f3 0f 1e fa          	endbr64 
    5f4f:	55                   	push   %rbp
    5f50:	48 89 e5             	mov    %rsp,%rbp
    5f53:	89 7d fc             	mov    %edi,-0x4(%rbp)
    5f56:	89 75 f8             	mov    %esi,-0x8(%rbp)
    5f59:	83 7d f8 00          	cmpl   $0x0,-0x8(%rbp)
    5f5d:	78 27                	js     5f86 <safe_lshift_func_uint32_t_u_s+0x3b>
    5f5f:	83 7d f8 1f          	cmpl   $0x1f,-0x8(%rbp)
    5f63:	7f 21                	jg     5f86 <safe_lshift_func_uint32_t_u_s+0x3b>
    5f65:	8b 45 f8             	mov    -0x8(%rbp),%eax
    5f68:	ba ff ff ff ff       	mov    $0xffffffff,%edx
    5f6d:	89 c1                	mov    %eax,%ecx
    5f6f:	d3 ea                	shr    %cl,%edx
    5f71:	89 d0                	mov    %edx,%eax
    5f73:	39 45 fc             	cmp    %eax,-0x4(%rbp)
    5f76:	77 0e                	ja     5f86 <safe_lshift_func_uint32_t_u_s+0x3b>
    5f78:	8b 45 f8             	mov    -0x8(%rbp),%eax
    5f7b:	8b 55 fc             	mov    -0x4(%rbp),%edx
    5f7e:	89 c1                	mov    %eax,%ecx
    5f80:	d3 e2                	shl    %cl,%edx
    5f82:	89 d0                	mov    %edx,%eax
    5f84:	eb 03                	jmp    5f89 <safe_lshift_func_uint32_t_u_s+0x3e>
    5f86:	8b 45 fc             	mov    -0x4(%rbp),%eax
    5f89:	5d                   	pop    %rbp
    5f8a:	c3                   	retq   

0000000000005f8b <safe_lshift_func_uint32_t_u_u>:
    5f8b:	f3 0f 1e fa          	endbr64 
    5f8f:	55                   	push   %rbp
    5f90:	48 89 e5             	mov    %rsp,%rbp
    5f93:	89 7d fc             	mov    %edi,-0x4(%rbp)
    5f96:	89 75 f8             	mov    %esi,-0x8(%rbp)
    5f99:	83 7d f8 1f          	cmpl   $0x1f,-0x8(%rbp)
    5f9d:	77 21                	ja     5fc0 <safe_lshift_func_uint32_t_u_u+0x35>
    5f9f:	8b 45 f8             	mov    -0x8(%rbp),%eax
    5fa2:	ba ff ff ff ff       	mov    $0xffffffff,%edx
    5fa7:	89 c1                	mov    %eax,%ecx
    5fa9:	d3 ea                	shr    %cl,%edx
    5fab:	89 d0                	mov    %edx,%eax
    5fad:	39 45 fc             	cmp    %eax,-0x4(%rbp)
    5fb0:	77 0e                	ja     5fc0 <safe_lshift_func_uint32_t_u_u+0x35>
    5fb2:	8b 45 f8             	mov    -0x8(%rbp),%eax
    5fb5:	8b 55 fc             	mov    -0x4(%rbp),%edx
    5fb8:	89 c1                	mov    %eax,%ecx
    5fba:	d3 e2                	shl    %cl,%edx
    5fbc:	89 d0                	mov    %edx,%eax
    5fbe:	eb 03                	jmp    5fc3 <safe_lshift_func_uint32_t_u_u+0x38>
    5fc0:	8b 45 fc             	mov    -0x4(%rbp),%eax
    5fc3:	5d                   	pop    %rbp
    5fc4:	c3                   	retq   

0000000000005fc5 <safe_rshift_func_uint32_t_u_s>:
    5fc5:	f3 0f 1e fa          	endbr64 
    5fc9:	55                   	push   %rbp
    5fca:	48 89 e5             	mov    %rsp,%rbp
    5fcd:	89 7d fc             	mov    %edi,-0x4(%rbp)
    5fd0:	89 75 f8             	mov    %esi,-0x8(%rbp)
    5fd3:	83 7d f8 00          	cmpl   $0x0,-0x8(%rbp)
    5fd7:	78 14                	js     5fed <safe_rshift_func_uint32_t_u_s+0x28>
    5fd9:	83 7d f8 1f          	cmpl   $0x1f,-0x8(%rbp)
    5fdd:	7f 0e                	jg     5fed <safe_rshift_func_uint32_t_u_s+0x28>
    5fdf:	8b 45 f8             	mov    -0x8(%rbp),%eax
    5fe2:	8b 55 fc             	mov    -0x4(%rbp),%edx
    5fe5:	89 c1                	mov    %eax,%ecx
    5fe7:	d3 ea                	shr    %cl,%edx
    5fe9:	89 d0                	mov    %edx,%eax
    5feb:	eb 03                	jmp    5ff0 <safe_rshift_func_uint32_t_u_s+0x2b>
    5fed:	8b 45 fc             	mov    -0x4(%rbp),%eax
    5ff0:	5d                   	pop    %rbp
    5ff1:	c3                   	retq   

0000000000005ff2 <safe_rshift_func_uint32_t_u_u>:
    5ff2:	f3 0f 1e fa          	endbr64 
    5ff6:	55                   	push   %rbp
    5ff7:	48 89 e5             	mov    %rsp,%rbp
    5ffa:	89 7d fc             	mov    %edi,-0x4(%rbp)
    5ffd:	89 75 f8             	mov    %esi,-0x8(%rbp)
    6000:	83 7d f8 1f          	cmpl   $0x1f,-0x8(%rbp)
    6004:	77 0e                	ja     6014 <safe_rshift_func_uint32_t_u_u+0x22>
    6006:	8b 45 f8             	mov    -0x8(%rbp),%eax
    6009:	8b 55 fc             	mov    -0x4(%rbp),%edx
    600c:	89 c1                	mov    %eax,%ecx
    600e:	d3 ea                	shr    %cl,%edx
    6010:	89 d0                	mov    %edx,%eax
    6012:	eb 03                	jmp    6017 <safe_rshift_func_uint32_t_u_u+0x25>
    6014:	8b 45 fc             	mov    -0x4(%rbp),%eax
    6017:	5d                   	pop    %rbp
    6018:	c3                   	retq   

0000000000006019 <safe_unary_minus_func_uint64_t_u>:
    6019:	f3 0f 1e fa          	endbr64 
    601d:	55                   	push   %rbp
    601e:	48 89 e5             	mov    %rsp,%rbp
    6021:	48 89 7d f8          	mov    %rdi,-0x8(%rbp)
    6025:	48 8b 45 f8          	mov    -0x8(%rbp),%rax
    6029:	48 f7 d8             	neg    %rax
    602c:	5d                   	pop    %rbp
    602d:	c3                   	retq   

000000000000602e <safe_add_func_uint64_t_u_u>:
    602e:	f3 0f 1e fa          	endbr64 
    6032:	55                   	push   %rbp
    6033:	48 89 e5             	mov    %rsp,%rbp
    6036:	48 89 7d f8          	mov    %rdi,-0x8(%rbp)
    603a:	48 89 75 f0          	mov    %rsi,-0x10(%rbp)
    603e:	48 8b 55 f8          	mov    -0x8(%rbp),%rdx
    6042:	48 8b 45 f0          	mov    -0x10(%rbp),%rax
    6046:	48 01 d0             	add    %rdx,%rax
    6049:	5d                   	pop    %rbp
    604a:	c3                   	retq   

000000000000604b <safe_sub_func_uint64_t_u_u>:
    604b:	f3 0f 1e fa          	endbr64 
    604f:	55                   	push   %rbp
    6050:	48 89 e5             	mov    %rsp,%rbp
    6053:	48 89 7d f8          	mov    %rdi,-0x8(%rbp)
    6057:	48 89 75 f0          	mov    %rsi,-0x10(%rbp)
    605b:	48 8b 45 f8          	mov    -0x8(%rbp),%rax
    605f:	48 2b 45 f0          	sub    -0x10(%rbp),%rax
    6063:	5d                   	pop    %rbp
    6064:	c3                   	retq   

0000000000006065 <safe_mul_func_uint64_t_u_u>:
    6065:	f3 0f 1e fa          	endbr64 
    6069:	55                   	push   %rbp
    606a:	48 89 e5             	mov    %rsp,%rbp
    606d:	48 89 7d f8          	mov    %rdi,-0x8(%rbp)
    6071:	48 89 75 f0          	mov    %rsi,-0x10(%rbp)
    6075:	48 8b 45 f8          	mov    -0x8(%rbp),%rax
    6079:	48 0f af 45 f0       	imul   -0x10(%rbp),%rax
    607e:	5d                   	pop    %rbp
    607f:	c3                   	retq   

0000000000006080 <safe_mod_func_uint64_t_u_u>:
    6080:	f3 0f 1e fa          	endbr64 
    6084:	55                   	push   %rbp
    6085:	48 89 e5             	mov    %rsp,%rbp
    6088:	48 89 7d f8          	mov    %rdi,-0x8(%rbp)
    608c:	48 89 75 f0          	mov    %rsi,-0x10(%rbp)
    6090:	48 83 7d f0 00       	cmpq   $0x0,-0x10(%rbp)
    6095:	74 12                	je     60a9 <safe_mod_func_uint64_t_u_u+0x29>
    6097:	48 8b 45 f8          	mov    -0x8(%rbp),%rax
    609b:	ba 00 00 00 00       	mov    $0x0,%edx
    60a0:	48 f7 75 f0          	divq   -0x10(%rbp)
    60a4:	48 89 d0             	mov    %rdx,%rax
    60a7:	eb 04                	jmp    60ad <safe_mod_func_uint64_t_u_u+0x2d>
    60a9:	48 8b 45 f8          	mov    -0x8(%rbp),%rax
    60ad:	5d                   	pop    %rbp
    60ae:	c3                   	retq   

00000000000060af <safe_div_func_uint64_t_u_u>:
    60af:	f3 0f 1e fa          	endbr64 
    60b3:	55                   	push   %rbp
    60b4:	48 89 e5             	mov    %rsp,%rbp
    60b7:	48 89 7d f8          	mov    %rdi,-0x8(%rbp)
    60bb:	48 89 75 f0          	mov    %rsi,-0x10(%rbp)
    60bf:	48 83 7d f0 00       	cmpq   $0x0,-0x10(%rbp)
    60c4:	74 0f                	je     60d5 <safe_div_func_uint64_t_u_u+0x26>
    60c6:	48 8b 45 f8          	mov    -0x8(%rbp),%rax
    60ca:	ba 00 00 00 00       	mov    $0x0,%edx
    60cf:	48 f7 75 f0          	divq   -0x10(%rbp)
    60d3:	eb 04                	jmp    60d9 <safe_div_func_uint64_t_u_u+0x2a>
    60d5:	48 8b 45 f8          	mov    -0x8(%rbp),%rax
    60d9:	5d                   	pop    %rbp
    60da:	c3                   	retq   

00000000000060db <safe_lshift_func_uint64_t_u_s>:
    60db:	f3 0f 1e fa          	endbr64 
    60df:	55                   	push   %rbp
    60e0:	48 89 e5             	mov    %rsp,%rbp
    60e3:	48 89 7d f8          	mov    %rdi,-0x8(%rbp)
    60e7:	89 75 f4             	mov    %esi,-0xc(%rbp)
    60ea:	83 7d f4 00          	cmpl   $0x0,-0xc(%rbp)
    60ee:	78 2f                	js     611f <safe_lshift_func_uint64_t_u_s+0x44>
    60f0:	83 7d f4 1f          	cmpl   $0x1f,-0xc(%rbp)
    60f4:	7f 29                	jg     611f <safe_lshift_func_uint64_t_u_s+0x44>
    60f6:	8b 45 f4             	mov    -0xc(%rbp),%eax
    60f9:	48 c7 c2 ff ff ff ff 	mov    $0xffffffffffffffff,%rdx
    6100:	89 c1                	mov    %eax,%ecx
    6102:	48 d3 ea             	shr    %cl,%rdx
    6105:	48 89 d0             	mov    %rdx,%rax
    6108:	48 39 45 f8          	cmp    %rax,-0x8(%rbp)
    610c:	77 11                	ja     611f <safe_lshift_func_uint64_t_u_s+0x44>
    610e:	8b 45 f4             	mov    -0xc(%rbp),%eax
    6111:	48 8b 55 f8          	mov    -0x8(%rbp),%rdx
    6115:	89 c1                	mov    %eax,%ecx
    6117:	48 d3 e2             	shl    %cl,%rdx
    611a:	48 89 d0             	mov    %rdx,%rax
    611d:	eb 04                	jmp    6123 <safe_lshift_func_uint64_t_u_s+0x48>
    611f:	48 8b 45 f8          	mov    -0x8(%rbp),%rax
    6123:	5d                   	pop    %rbp
    6124:	c3                   	retq   

0000000000006125 <safe_lshift_func_uint64_t_u_u>:
    6125:	f3 0f 1e fa          	endbr64 
    6129:	55                   	push   %rbp
    612a:	48 89 e5             	mov    %rsp,%rbp
    612d:	48 89 7d f8          	mov    %rdi,-0x8(%rbp)
    6131:	89 75 f4             	mov    %esi,-0xc(%rbp)
    6134:	83 7d f4 1f          	cmpl   $0x1f,-0xc(%rbp)
    6138:	77 29                	ja     6163 <safe_lshift_func_uint64_t_u_u+0x3e>
    613a:	8b 45 f4             	mov    -0xc(%rbp),%eax
    613d:	48 c7 c2 ff ff ff ff 	mov    $0xffffffffffffffff,%rdx
    6144:	89 c1                	mov    %eax,%ecx
    6146:	48 d3 ea             	shr    %cl,%rdx
    6149:	48 89 d0             	mov    %rdx,%rax
    614c:	48 39 45 f8          	cmp    %rax,-0x8(%rbp)
    6150:	77 11                	ja     6163 <safe_lshift_func_uint64_t_u_u+0x3e>
    6152:	8b 45 f4             	mov    -0xc(%rbp),%eax
    6155:	48 8b 55 f8          	mov    -0x8(%rbp),%rdx
    6159:	89 c1                	mov    %eax,%ecx
    615b:	48 d3 e2             	shl    %cl,%rdx
    615e:	48 89 d0             	mov    %rdx,%rax
    6161:	eb 04                	jmp    6167 <safe_lshift_func_uint64_t_u_u+0x42>
    6163:	48 8b 45 f8          	mov    -0x8(%rbp),%rax
    6167:	5d                   	pop    %rbp
    6168:	c3                   	retq   

0000000000006169 <safe_rshift_func_uint64_t_u_s>:
    6169:	f3 0f 1e fa          	endbr64 
    616d:	55                   	push   %rbp
    616e:	48 89 e5             	mov    %rsp,%rbp
    6171:	48 89 7d f8          	mov    %rdi,-0x8(%rbp)
    6175:	89 75 f4             	mov    %esi,-0xc(%rbp)
    6178:	83 7d f4 00          	cmpl   $0x0,-0xc(%rbp)
    617c:	78 17                	js     6195 <safe_rshift_func_uint64_t_u_s+0x2c>
    617e:	83 7d f4 1f          	cmpl   $0x1f,-0xc(%rbp)
    6182:	7f 11                	jg     6195 <safe_rshift_func_uint64_t_u_s+0x2c>
    6184:	8b 45 f4             	mov    -0xc(%rbp),%eax
    6187:	48 8b 55 f8          	mov    -0x8(%rbp),%rdx
    618b:	89 c1                	mov    %eax,%ecx
    618d:	48 d3 ea             	shr    %cl,%rdx
    6190:	48 89 d0             	mov    %rdx,%rax
    6193:	eb 04                	jmp    6199 <safe_rshift_func_uint64_t_u_s+0x30>
    6195:	48 8b 45 f8          	mov    -0x8(%rbp),%rax
    6199:	5d                   	pop    %rbp
    619a:	c3                   	retq   

000000000000619b <safe_rshift_func_uint64_t_u_u>:
    619b:	f3 0f 1e fa          	endbr64 
    619f:	55                   	push   %rbp
    61a0:	48 89 e5             	mov    %rsp,%rbp
    61a3:	48 89 7d f8          	mov    %rdi,-0x8(%rbp)
    61a7:	89 75 f4             	mov    %esi,-0xc(%rbp)
    61aa:	83 7d f4 1f          	cmpl   $0x1f,-0xc(%rbp)
    61ae:	77 11                	ja     61c1 <safe_rshift_func_uint64_t_u_u+0x26>
    61b0:	8b 45 f4             	mov    -0xc(%rbp),%eax
    61b3:	48 8b 55 f8          	mov    -0x8(%rbp),%rdx
    61b7:	89 c1                	mov    %eax,%ecx
    61b9:	48 d3 ea             	shr    %cl,%rdx
    61bc:	48 89 d0             	mov    %rdx,%rax
    61bf:	eb 04                	jmp    61c5 <safe_rshift_func_uint64_t_u_u+0x2a>
    61c1:	48 8b 45 f8          	mov    -0x8(%rbp),%rax
    61c5:	5d                   	pop    %rbp
    61c6:	c3                   	retq   

00000000000061c7 <safe_add_func_float_f_f>:
    61c7:	f3 0f 1e fa          	endbr64 
    61cb:	55                   	push   %rbp
    61cc:	48 89 e5             	mov    %rsp,%rbp
    61cf:	f3 0f 11 45 fc       	movss  %xmm0,-0x4(%rbp)
    61d4:	f3 0f 11 4d f8       	movss  %xmm1,-0x8(%rbp)
    61d9:	f3 0f 10 4d fc       	movss  -0x4(%rbp),%xmm1
    61de:	f3 0f 10 05 42 30 01 	movss  0x13042(%rip),%xmm0        # 19228 <l_949.5052+0x18>
    61e5:	00 
    61e6:	f3 0f 59 c8          	mulss  %xmm0,%xmm1
    61ea:	f3 0f 10 55 f8       	movss  -0x8(%rbp),%xmm2
    61ef:	f3 0f 10 05 31 30 01 	movss  0x13031(%rip),%xmm0        # 19228 <l_949.5052+0x18>
    61f6:	00 
    61f7:	f3 0f 59 c2          	mulss  %xmm2,%xmm0
    61fb:	f3 0f 58 c1          	addss  %xmm1,%xmm0
    61ff:	f3 0f 10 0d 29 30 01 	movss  0x13029(%rip),%xmm1        # 19230 <l_949.5052+0x20>
    6206:	00 
    6207:	0f 54 c1             	andps  %xmm1,%xmm0
    620a:	0f 2f 05 2f 30 01 00 	comiss 0x1302f(%rip),%xmm0        # 19240 <l_949.5052+0x30>
    6211:	76 07                	jbe    621a <safe_add_func_float_f_f+0x53>
    6213:	f3 0f 10 45 fc       	movss  -0x4(%rbp),%xmm0
    6218:	eb 0a                	jmp    6224 <safe_add_func_float_f_f+0x5d>
    621a:	f3 0f 10 45 fc       	movss  -0x4(%rbp),%xmm0
    621f:	f3 0f 58 45 f8       	addss  -0x8(%rbp),%xmm0
    6224:	5d                   	pop    %rbp
    6225:	c3                   	retq   

0000000000006226 <safe_sub_func_float_f_f>:
    6226:	f3 0f 1e fa          	endbr64 
    622a:	55                   	push   %rbp
    622b:	48 89 e5             	mov    %rsp,%rbp
    622e:	f3 0f 11 45 fc       	movss  %xmm0,-0x4(%rbp)
    6233:	f3 0f 11 4d f8       	movss  %xmm1,-0x8(%rbp)
    6238:	f3 0f 10 4d fc       	movss  -0x4(%rbp),%xmm1
    623d:	f3 0f 10 05 e3 2f 01 	movss  0x12fe3(%rip),%xmm0        # 19228 <l_949.5052+0x18>
    6244:	00 
    6245:	f3 0f 59 c1          	mulss  %xmm1,%xmm0
    6249:	f3 0f 10 55 f8       	movss  -0x8(%rbp),%xmm2
    624e:	f3 0f 10 0d d2 2f 01 	movss  0x12fd2(%rip),%xmm1        # 19228 <l_949.5052+0x18>
    6255:	00 
    6256:	f3 0f 59 ca          	mulss  %xmm2,%xmm1
    625a:	f3 0f 5c c1          	subss  %xmm1,%xmm0
    625e:	f3 0f 10 0d ca 2f 01 	movss  0x12fca(%rip),%xmm1        # 19230 <l_949.5052+0x20>
    6265:	00 
    6266:	0f 54 c1             	andps  %xmm1,%xmm0
    6269:	0f 2f 05 d0 2f 01 00 	comiss 0x12fd0(%rip),%xmm0        # 19240 <l_949.5052+0x30>
    6270:	76 07                	jbe    6279 <safe_sub_func_float_f_f+0x53>
    6272:	f3 0f 10 45 fc       	movss  -0x4(%rbp),%xmm0
    6277:	eb 0a                	jmp    6283 <safe_sub_func_float_f_f+0x5d>
    6279:	f3 0f 10 45 fc       	movss  -0x4(%rbp),%xmm0
    627e:	f3 0f 5c 45 f8       	subss  -0x8(%rbp),%xmm0
    6283:	5d                   	pop    %rbp
    6284:	c3                   	retq   

0000000000006285 <safe_mul_func_float_f_f>:
    6285:	f3 0f 1e fa          	endbr64 
    6289:	55                   	push   %rbp
    628a:	48 89 e5             	mov    %rsp,%rbp
    628d:	f3 0f 11 45 fc       	movss  %xmm0,-0x4(%rbp)
    6292:	f3 0f 11 4d f8       	movss  %xmm1,-0x8(%rbp)
    6297:	f3 0f 10 4d fc       	movss  -0x4(%rbp),%xmm1
    629c:	f3 0f 10 05 a0 2f 01 	movss  0x12fa0(%rip),%xmm0        # 19244 <l_949.5052+0x34>
    62a3:	00 
    62a4:	f3 0f 59 c8          	mulss  %xmm0,%xmm1
    62a8:	f3 0f 10 55 f8       	movss  -0x8(%rbp),%xmm2
    62ad:	f3 0f 10 05 93 2f 01 	movss  0x12f93(%rip),%xmm0        # 19248 <l_949.5052+0x38>
    62b4:	00 
    62b5:	f3 0f 59 c2          	mulss  %xmm2,%xmm0
    62b9:	f3 0f 59 c1          	mulss  %xmm1,%xmm0
    62bd:	f3 0f 10 0d 6b 2f 01 	movss  0x12f6b(%rip),%xmm1        # 19230 <l_949.5052+0x20>
    62c4:	00 
    62c5:	0f 54 c1             	andps  %xmm1,%xmm0
    62c8:	0f 2f 05 7d 2f 01 00 	comiss 0x12f7d(%rip),%xmm0        # 1924c <l_949.5052+0x3c>
    62cf:	76 07                	jbe    62d8 <safe_mul_func_float_f_f+0x53>
    62d1:	f3 0f 10 45 fc       	movss  -0x4(%rbp),%xmm0
    62d6:	eb 0a                	jmp    62e2 <safe_mul_func_float_f_f+0x5d>
    62d8:	f3 0f 10 45 fc       	movss  -0x4(%rbp),%xmm0
    62dd:	f3 0f 59 45 f8       	mulss  -0x8(%rbp),%xmm0
    62e2:	5d                   	pop    %rbp
    62e3:	c3                   	retq   

00000000000062e4 <safe_div_func_float_f_f>:
    62e4:	f3 0f 1e fa          	endbr64 
    62e8:	55                   	push   %rbp
    62e9:	48 89 e5             	mov    %rsp,%rbp
    62ec:	f3 0f 11 45 fc       	movss  %xmm0,-0x4(%rbp)
    62f1:	f3 0f 11 4d f8       	movss  %xmm1,-0x8(%rbp)
    62f6:	f3 0f 10 45 f8       	movss  -0x8(%rbp),%xmm0
    62fb:	f3 0f 10 0d 2d 2f 01 	movss  0x12f2d(%rip),%xmm1        # 19230 <l_949.5052+0x20>
    6302:	00 
    6303:	0f 54 c8             	andps  %xmm0,%xmm1
    6306:	f3 0f 10 05 42 2f 01 	movss  0x12f42(%rip),%xmm0        # 19250 <l_949.5052+0x40>
    630d:	00 
    630e:	0f 2f c1             	comiss %xmm1,%xmm0
    6311:	0f 97 c0             	seta   %al
    6314:	83 f0 01             	xor    $0x1,%eax
    6317:	84 c0                	test   %al,%al
    6319:	75 56                	jne    6371 <safe_div_func_float_f_f+0x8d>
    631b:	66 0f ef c0          	pxor   %xmm0,%xmm0
    631f:	0f 2e 45 f8          	ucomiss -0x8(%rbp),%xmm0
    6323:	7a 0a                	jp     632f <safe_div_func_float_f_f+0x4b>
    6325:	66 0f ef c0          	pxor   %xmm0,%xmm0
    6329:	0f 2e 45 f8          	ucomiss -0x8(%rbp),%xmm0
    632d:	74 4e                	je     637d <safe_div_func_float_f_f+0x99>
    632f:	f3 0f 10 4d fc       	movss  -0x4(%rbp),%xmm1
    6334:	f3 0f 10 05 18 2f 01 	movss  0x12f18(%rip),%xmm0        # 19254 <l_949.5052+0x44>
    633b:	00 
    633c:	f3 0f 59 c1          	mulss  %xmm1,%xmm0
    6340:	f3 0f 10 55 f8       	movss  -0x8(%rbp),%xmm2
    6345:	f3 0f 10 0d 0b 2f 01 	movss  0x12f0b(%rip),%xmm1        # 19258 <l_949.5052+0x48>
    634c:	00 
    634d:	f3 0f 59 ca          	mulss  %xmm2,%xmm1
    6351:	f3 0f 5e c1          	divss  %xmm1,%xmm0
    6355:	f3 0f 10 0d d3 2e 01 	movss  0x12ed3(%rip),%xmm1        # 19230 <l_949.5052+0x20>
    635c:	00 
    635d:	0f 54 c1             	andps  %xmm1,%xmm0
    6360:	0f 2f 05 f5 2e 01 00 	comiss 0x12ef5(%rip),%xmm0        # 1925c <l_949.5052+0x4c>
    6367:	0f 97 c0             	seta   %al
    636a:	83 f0 01             	xor    $0x1,%eax
    636d:	84 c0                	test   %al,%al
    636f:	74 0c                	je     637d <safe_div_func_float_f_f+0x99>
    6371:	f3 0f 10 45 fc       	movss  -0x4(%rbp),%xmm0
    6376:	f3 0f 5e 45 f8       	divss  -0x8(%rbp),%xmm0
    637b:	eb 05                	jmp    6382 <safe_div_func_float_f_f+0x9e>
    637d:	f3 0f 10 45 fc       	movss  -0x4(%rbp),%xmm0
    6382:	5d                   	pop    %rbp
    6383:	c3                   	retq   

0000000000006384 <safe_add_func_double_f_f>:
    6384:	f3 0f 1e fa          	endbr64 
    6388:	55                   	push   %rbp
    6389:	48 89 e5             	mov    %rsp,%rbp
    638c:	f2 0f 11 45 f8       	movsd  %xmm0,-0x8(%rbp)
    6391:	f2 0f 11 4d f0       	movsd  %xmm1,-0x10(%rbp)
    6396:	f2 0f 10 4d f8       	movsd  -0x8(%rbp),%xmm1
    639b:	f2 0f 10 05 bd 2e 01 	movsd  0x12ebd(%rip),%xmm0        # 19260 <l_949.5052+0x50>
    63a2:	00 
    63a3:	f2 0f 59 c8          	mulsd  %xmm0,%xmm1
    63a7:	f2 0f 10 55 f0       	movsd  -0x10(%rbp),%xmm2
    63ac:	f2 0f 10 05 ac 2e 01 	movsd  0x12eac(%rip),%xmm0        # 19260 <l_949.5052+0x50>
    63b3:	00 
    63b4:	f2 0f 59 c2          	mulsd  %xmm2,%xmm0
    63b8:	f2 0f 58 c1          	addsd  %xmm1,%xmm0
    63bc:	f3 0f 7e 0d ac 2e 01 	movq   0x12eac(%rip),%xmm1        # 19270 <l_949.5052+0x60>
    63c3:	00 
    63c4:	66 0f 54 c1          	andpd  %xmm1,%xmm0
    63c8:	66 0f 2f 05 b0 2e 01 	comisd 0x12eb0(%rip),%xmm0        # 19280 <l_949.5052+0x70>
    63cf:	00 
    63d0:	76 07                	jbe    63d9 <safe_add_func_double_f_f+0x55>
    63d2:	f2 0f 10 45 f8       	movsd  -0x8(%rbp),%xmm0
    63d7:	eb 0a                	jmp    63e3 <safe_add_func_double_f_f+0x5f>
    63d9:	f2 0f 10 45 f8       	movsd  -0x8(%rbp),%xmm0
    63de:	f2 0f 58 45 f0       	addsd  -0x10(%rbp),%xmm0
    63e3:	5d                   	pop    %rbp
    63e4:	c3                   	retq   

00000000000063e5 <safe_sub_func_double_f_f>:
    63e5:	f3 0f 1e fa          	endbr64 
    63e9:	55                   	push   %rbp
    63ea:	48 89 e5             	mov    %rsp,%rbp
    63ed:	f2 0f 11 45 f8       	movsd  %xmm0,-0x8(%rbp)
    63f2:	f2 0f 11 4d f0       	movsd  %xmm1,-0x10(%rbp)
    63f7:	f2 0f 10 4d f8       	movsd  -0x8(%rbp),%xmm1
    63fc:	f2 0f 10 05 5c 2e 01 	movsd  0x12e5c(%rip),%xmm0        # 19260 <l_949.5052+0x50>
    6403:	00 
    6404:	f2 0f 59 c1          	mulsd  %xmm1,%xmm0
    6408:	f2 0f 10 55 f0       	movsd  -0x10(%rbp),%xmm2
    640d:	f2 0f 10 0d 4b 2e 01 	movsd  0x12e4b(%rip),%xmm1        # 19260 <l_949.5052+0x50>
    6414:	00 
    6415:	f2 0f 59 ca          	mulsd  %xmm2,%xmm1
    6419:	f2 0f 5c c1          	subsd  %xmm1,%xmm0
    641d:	f3 0f 7e 0d 4b 2e 01 	movq   0x12e4b(%rip),%xmm1        # 19270 <l_949.5052+0x60>
    6424:	00 
    6425:	66 0f 54 c1          	andpd  %xmm1,%xmm0
    6429:	66 0f 2f 05 4f 2e 01 	comisd 0x12e4f(%rip),%xmm0        # 19280 <l_949.5052+0x70>
    6430:	00 
    6431:	76 07                	jbe    643a <safe_sub_func_double_f_f+0x55>
    6433:	f2 0f 10 45 f8       	movsd  -0x8(%rbp),%xmm0
    6438:	eb 0a                	jmp    6444 <safe_sub_func_double_f_f+0x5f>
    643a:	f2 0f 10 45 f8       	movsd  -0x8(%rbp),%xmm0
    643f:	f2 0f 5c 45 f0       	subsd  -0x10(%rbp),%xmm0
    6444:	5d                   	pop    %rbp
    6445:	c3                   	retq   

0000000000006446 <safe_mul_func_double_f_f>:
    6446:	f3 0f 1e fa          	endbr64 
    644a:	55                   	push   %rbp
    644b:	48 89 e5             	mov    %rsp,%rbp
    644e:	f2 0f 11 45 f8       	movsd  %xmm0,-0x8(%rbp)
    6453:	f2 0f 11 4d f0       	movsd  %xmm1,-0x10(%rbp)
    6458:	f2 0f 10 4d f8       	movsd  -0x8(%rbp),%xmm1
    645d:	f2 0f 10 05 23 2e 01 	movsd  0x12e23(%rip),%xmm0        # 19288 <l_949.5052+0x78>
    6464:	00 
    6465:	f2 0f 59 c8          	mulsd  %xmm0,%xmm1
    6469:	f2 0f 10 55 f0       	movsd  -0x10(%rbp),%xmm2
    646e:	f2 0f 10 05 1a 2e 01 	movsd  0x12e1a(%rip),%xmm0        # 19290 <l_949.5052+0x80>
    6475:	00 
    6476:	f2 0f 59 c2          	mulsd  %xmm2,%xmm0
    647a:	f2 0f 59 c1          	mulsd  %xmm1,%xmm0
    647e:	f3 0f 7e 0d ea 2d 01 	movq   0x12dea(%rip),%xmm1        # 19270 <l_949.5052+0x60>
    6485:	00 
    6486:	66 0f 54 c1          	andpd  %xmm1,%xmm0
    648a:	66 0f 2f 05 06 2e 01 	comisd 0x12e06(%rip),%xmm0        # 19298 <l_949.5052+0x88>
    6491:	00 
    6492:	76 07                	jbe    649b <safe_mul_func_double_f_f+0x55>
    6494:	f2 0f 10 45 f8       	movsd  -0x8(%rbp),%xmm0
    6499:	eb 0a                	jmp    64a5 <safe_mul_func_double_f_f+0x5f>
    649b:	f2 0f 10 45 f8       	movsd  -0x8(%rbp),%xmm0
    64a0:	f2 0f 59 45 f0       	mulsd  -0x10(%rbp),%xmm0
    64a5:	5d                   	pop    %rbp
    64a6:	c3                   	retq   

00000000000064a7 <safe_div_func_double_f_f>:
    64a7:	f3 0f 1e fa          	endbr64 
    64ab:	55                   	push   %rbp
    64ac:	48 89 e5             	mov    %rsp,%rbp
    64af:	f2 0f 11 45 f8       	movsd  %xmm0,-0x8(%rbp)
    64b4:	f2 0f 11 4d f0       	movsd  %xmm1,-0x10(%rbp)
    64b9:	f2 0f 10 45 f0       	movsd  -0x10(%rbp),%xmm0
    64be:	f3 0f 7e 0d aa 2d 01 	movq   0x12daa(%rip),%xmm1        # 19270 <l_949.5052+0x60>
    64c5:	00 
    64c6:	66 0f 54 c8          	andpd  %xmm0,%xmm1
    64ca:	f2 0f 10 05 ce 2d 01 	movsd  0x12dce(%rip),%xmm0        # 192a0 <l_949.5052+0x90>
    64d1:	00 
    64d2:	66 0f 2f c1          	comisd %xmm1,%xmm0
    64d6:	0f 97 c0             	seta   %al
    64d9:	83 f0 01             	xor    $0x1,%eax
    64dc:	84 c0                	test   %al,%al
    64de:	75 5a                	jne    653a <safe_div_func_double_f_f+0x93>
    64e0:	66 0f ef c0          	pxor   %xmm0,%xmm0
    64e4:	66 0f 2e 45 f0       	ucomisd -0x10(%rbp),%xmm0
    64e9:	7a 0b                	jp     64f6 <safe_div_func_double_f_f+0x4f>
    64eb:	66 0f ef c0          	pxor   %xmm0,%xmm0
    64ef:	66 0f 2e 45 f0       	ucomisd -0x10(%rbp),%xmm0
    64f4:	74 50                	je     6546 <safe_div_func_double_f_f+0x9f>
    64f6:	f2 0f 10 4d f8       	movsd  -0x8(%rbp),%xmm1
    64fb:	f2 0f 10 05 a5 2d 01 	movsd  0x12da5(%rip),%xmm0        # 192a8 <l_949.5052+0x98>
    6502:	00 
    6503:	f2 0f 59 c1          	mulsd  %xmm1,%xmm0
    6507:	f2 0f 10 55 f0       	movsd  -0x10(%rbp),%xmm2
    650c:	f2 0f 10 0d 9c 2d 01 	movsd  0x12d9c(%rip),%xmm1        # 192b0 <l_949.5052+0xa0>
    6513:	00 
    6514:	f2 0f 59 ca          	mulsd  %xmm2,%xmm1
    6518:	f2 0f 5e c1          	divsd  %xmm1,%xmm0
    651c:	f3 0f 7e 0d 4c 2d 01 	movq   0x12d4c(%rip),%xmm1        # 19270 <l_949.5052+0x60>
    6523:	00 
    6524:	66 0f 54 c1          	andpd  %xmm1,%xmm0
    6528:	66 0f 2f 05 88 2d 01 	comisd 0x12d88(%rip),%xmm0        # 192b8 <l_949.5052+0xa8>
    652f:	00 
    6530:	0f 97 c0             	seta   %al
    6533:	83 f0 01             	xor    $0x1,%eax
    6536:	84 c0                	test   %al,%al
    6538:	74 0c                	je     6546 <safe_div_func_double_f_f+0x9f>
    653a:	f2 0f 10 45 f8       	movsd  -0x8(%rbp),%xmm0
    653f:	f2 0f 5e 45 f0       	divsd  -0x10(%rbp),%xmm0
    6544:	eb 05                	jmp    654b <safe_div_func_double_f_f+0xa4>
    6546:	f2 0f 10 45 f8       	movsd  -0x8(%rbp),%xmm0
    654b:	5d                   	pop    %rbp
    654c:	c3                   	retq   

000000000000654d <safe_convert_func_float_to_int32_t>:
    654d:	f3 0f 1e fa          	endbr64 
    6551:	55                   	push   %rbp
    6552:	48 89 e5             	mov    %rsp,%rbp
    6555:	f3 0f 11 45 fc       	movss  %xmm0,-0x4(%rbp)
    655a:	f3 0f 10 05 5e 2d 01 	movss  0x12d5e(%rip),%xmm0        # 192c0 <l_949.5052+0xb0>
    6561:	00 
    6562:	0f 2f 45 fc          	comiss -0x4(%rbp),%xmm0
    6566:	0f 93 c0             	setae  %al
    6569:	83 f0 01             	xor    $0x1,%eax
    656c:	84 c0                	test   %al,%al
    656e:	74 21                	je     6591 <safe_convert_func_float_to_int32_t+0x44>
    6570:	f3 0f 10 45 fc       	movss  -0x4(%rbp),%xmm0
    6575:	0f 2f 05 48 2d 01 00 	comiss 0x12d48(%rip),%xmm0        # 192c4 <l_949.5052+0xb4>
    657c:	0f 93 c0             	setae  %al
    657f:	83 f0 01             	xor    $0x1,%eax
    6582:	84 c0                	test   %al,%al
    6584:	74 0b                	je     6591 <safe_convert_func_float_to_int32_t+0x44>
    6586:	f3 0f 10 45 fc       	movss  -0x4(%rbp),%xmm0
    658b:	f3 0f 2c c0          	cvttss2si %xmm0,%eax
    658f:	eb 05                	jmp    6596 <safe_convert_func_float_to_int32_t+0x49>
    6591:	b8 ff ff ff 7f       	mov    $0x7fffffff,%eax
    6596:	5d                   	pop    %rbp
    6597:	c3                   	retq   

0000000000006598 <crc32_gentab>:
    6598:	f3 0f 1e fa          	endbr64 
    659c:	55                   	push   %rbp
    659d:	48 89 e5             	mov    %rsp,%rbp
    65a0:	c7 45 fc 20 83 b8 ed 	movl   $0xedb88320,-0x4(%rbp)
    65a7:	c7 45 f4 00 00 00 00 	movl   $0x0,-0xc(%rbp)
    65ae:	eb 51                	jmp    6601 <crc32_gentab+0x69>
    65b0:	8b 45 f4             	mov    -0xc(%rbp),%eax
    65b3:	89 45 f0             	mov    %eax,-0x10(%rbp)
    65b6:	c7 45 f8 08 00 00 00 	movl   $0x8,-0x8(%rbp)
    65bd:	eb 1e                	jmp    65dd <crc32_gentab+0x45>
    65bf:	8b 45 f0             	mov    -0x10(%rbp),%eax
    65c2:	83 e0 01             	and    $0x1,%eax
    65c5:	85 c0                	test   %eax,%eax
    65c7:	74 0d                	je     65d6 <crc32_gentab+0x3e>
    65c9:	8b 45 f0             	mov    -0x10(%rbp),%eax
    65cc:	d1 e8                	shr    %eax
    65ce:	33 45 fc             	xor    -0x4(%rbp),%eax
    65d1:	89 45 f0             	mov    %eax,-0x10(%rbp)
    65d4:	eb 03                	jmp    65d9 <crc32_gentab+0x41>
    65d6:	d1 6d f0             	shrl   -0x10(%rbp)
    65d9:	83 6d f8 01          	subl   $0x1,-0x8(%rbp)
    65dd:	83 7d f8 00          	cmpl   $0x0,-0x8(%rbp)
    65e1:	7f dc                	jg     65bf <crc32_gentab+0x27>
    65e3:	8b 45 f4             	mov    -0xc(%rbp),%eax
    65e6:	48 98                	cltq   
    65e8:	48 8d 0c 85 00 00 00 	lea    0x0(,%rax,4),%rcx
    65ef:	00 
    65f0:	48 8d 15 69 97 01 00 	lea    0x19769(%rip),%rdx        # 1fd60 <crc32_tab>
    65f7:	8b 45 f0             	mov    -0x10(%rbp),%eax
    65fa:	89 04 11             	mov    %eax,(%rcx,%rdx,1)
    65fd:	83 45 f4 01          	addl   $0x1,-0xc(%rbp)
    6601:	81 7d f4 ff 00 00 00 	cmpl   $0xff,-0xc(%rbp)
    6608:	7e a6                	jle    65b0 <crc32_gentab+0x18>
    660a:	90                   	nop
    660b:	90                   	nop
    660c:	5d                   	pop    %rbp
    660d:	c3                   	retq   

000000000000660e <crc32_byte>:
    660e:	f3 0f 1e fa          	endbr64 
    6612:	55                   	push   %rbp
    6613:	48 89 e5             	mov    %rsp,%rbp
    6616:	89 f8                	mov    %edi,%eax
    6618:	88 45 fc             	mov    %al,-0x4(%rbp)
    661b:	8b 05 ff 59 01 00    	mov    0x159ff(%rip),%eax        # 1c020 <crc32_context>
    6621:	c1 e8 08             	shr    $0x8,%eax
    6624:	89 c1                	mov    %eax,%ecx
    6626:	0f b6 55 fc          	movzbl -0x4(%rbp),%edx
    662a:	8b 05 f0 59 01 00    	mov    0x159f0(%rip),%eax        # 1c020 <crc32_context>
    6630:	31 d0                	xor    %edx,%eax
    6632:	0f b6 c0             	movzbl %al,%eax
    6635:	89 c0                	mov    %eax,%eax
    6637:	48 8d 14 85 00 00 00 	lea    0x0(,%rax,4),%rdx
    663e:	00 
    663f:	48 8d 05 1a 97 01 00 	lea    0x1971a(%rip),%rax        # 1fd60 <crc32_tab>
    6646:	8b 04 02             	mov    (%rdx,%rax,1),%eax
    6649:	31 c8                	xor    %ecx,%eax
    664b:	89 05 cf 59 01 00    	mov    %eax,0x159cf(%rip)        # 1c020 <crc32_context>
    6651:	90                   	nop
    6652:	5d                   	pop    %rbp
    6653:	c3                   	retq   

0000000000006654 <crc32_8bytes>:
    6654:	f3 0f 1e fa          	endbr64 
    6658:	55                   	push   %rbp
    6659:	48 89 e5             	mov    %rsp,%rbp
    665c:	48 83 ec 08          	sub    $0x8,%rsp
    6660:	48 89 7d f8          	mov    %rdi,-0x8(%rbp)
    6664:	48 8b 45 f8          	mov    -0x8(%rbp),%rax
    6668:	0f b6 c0             	movzbl %al,%eax
    666b:	89 c7                	mov    %eax,%edi
    666d:	e8 9c ff ff ff       	callq  660e <crc32_byte>
    6672:	48 8b 45 f8          	mov    -0x8(%rbp),%rax
    6676:	48 c1 e8 08          	shr    $0x8,%rax
    667a:	0f b6 c0             	movzbl %al,%eax
    667d:	89 c7                	mov    %eax,%edi
    667f:	e8 8a ff ff ff       	callq  660e <crc32_byte>
    6684:	48 8b 45 f8          	mov    -0x8(%rbp),%rax
    6688:	48 c1 e8 10          	shr    $0x10,%rax
    668c:	0f b6 c0             	movzbl %al,%eax
    668f:	89 c7                	mov    %eax,%edi
    6691:	e8 78 ff ff ff       	callq  660e <crc32_byte>
    6696:	48 8b 45 f8          	mov    -0x8(%rbp),%rax
    669a:	48 c1 e8 18          	shr    $0x18,%rax
    669e:	0f b6 c0             	movzbl %al,%eax
    66a1:	89 c7                	mov    %eax,%edi
    66a3:	e8 66 ff ff ff       	callq  660e <crc32_byte>
    66a8:	48 8b 45 f8          	mov    -0x8(%rbp),%rax
    66ac:	48 c1 e8 20          	shr    $0x20,%rax
    66b0:	0f b6 c0             	movzbl %al,%eax
    66b3:	89 c7                	mov    %eax,%edi
    66b5:	e8 54 ff ff ff       	callq  660e <crc32_byte>
    66ba:	48 8b 45 f8          	mov    -0x8(%rbp),%rax
    66be:	48 c1 e8 28          	shr    $0x28,%rax
    66c2:	0f b6 c0             	movzbl %al,%eax
    66c5:	89 c7                	mov    %eax,%edi
    66c7:	e8 42 ff ff ff       	callq  660e <crc32_byte>
    66cc:	48 8b 45 f8          	mov    -0x8(%rbp),%rax
    66d0:	48 c1 e8 30          	shr    $0x30,%rax
    66d4:	0f b6 c0             	movzbl %al,%eax
    66d7:	89 c7                	mov    %eax,%edi
    66d9:	e8 30 ff ff ff       	callq  660e <crc32_byte>
    66de:	48 8b 45 f8          	mov    -0x8(%rbp),%rax
    66e2:	48 c1 e8 38          	shr    $0x38,%rax
    66e6:	0f b6 c0             	movzbl %al,%eax
    66e9:	89 c7                	mov    %eax,%edi
    66eb:	e8 1e ff ff ff       	callq  660e <crc32_byte>
    66f0:	90                   	nop
    66f1:	c9                   	leaveq 
    66f2:	c3                   	retq   

00000000000066f3 <transparent_crc>:
    66f3:	f3 0f 1e fa          	endbr64 
    66f7:	55                   	push   %rbp
    66f8:	48 89 e5             	mov    %rsp,%rbp
    66fb:	48 83 ec 20          	sub    $0x20,%rsp
    66ff:	48 89 7d f8          	mov    %rdi,-0x8(%rbp)
    6703:	48 89 75 f0          	mov    %rsi,-0x10(%rbp)
    6707:	89 55 ec             	mov    %edx,-0x14(%rbp)
    670a:	48 8b 45 f8          	mov    -0x8(%rbp),%rax
    670e:	48 89 c7             	mov    %rax,%rdi
    6711:	e8 3e ff ff ff       	callq  6654 <crc32_8bytes>
    6716:	83 7d ec 00          	cmpl   $0x0,-0x14(%rbp)
    671a:	74 22                	je     673e <transparent_crc+0x4b>
    671c:	8b 05 fe 58 01 00    	mov    0x158fe(%rip),%eax        # 1c020 <crc32_context>
    6722:	f7 d0                	not    %eax
    6724:	89 c2                	mov    %eax,%edx
    6726:	48 8b 45 f0          	mov    -0x10(%rbp),%rax
    672a:	48 89 c6             	mov    %rax,%rsi
    672d:	48 8d 3d fc 08 01 00 	lea    0x108fc(%rip),%rdi        # 17030 <_IO_stdin_used+0x30>
    6734:	b8 00 00 00 00       	mov    $0x0,%eax
    6739:	e8 42 e9 ff ff       	callq  5080 <printf@plt>
    673e:	90                   	nop
    673f:	c9                   	leaveq 
    6740:	c3                   	retq   

0000000000006741 <transparent_crc_bytes>:
    6741:	f3 0f 1e fa          	endbr64 
    6745:	55                   	push   %rbp
    6746:	48 89 e5             	mov    %rsp,%rbp
    6749:	48 83 ec 30          	sub    $0x30,%rsp
    674d:	48 89 7d e8          	mov    %rdi,-0x18(%rbp)
    6751:	89 75 e4             	mov    %esi,-0x1c(%rbp)
    6754:	48 89 55 d8          	mov    %rdx,-0x28(%rbp)
    6758:	89 4d e0             	mov    %ecx,-0x20(%rbp)
    675b:	c7 45 fc 00 00 00 00 	movl   $0x0,-0x4(%rbp)
    6762:	eb 1e                	jmp    6782 <transparent_crc_bytes+0x41>
    6764:	8b 45 fc             	mov    -0x4(%rbp),%eax
    6767:	48 63 d0             	movslq %eax,%rdx
    676a:	48 8b 45 e8          	mov    -0x18(%rbp),%rax
    676e:	48 01 d0             	add    %rdx,%rax
    6771:	0f b6 00             	movzbl (%rax),%eax
    6774:	0f b6 c0             	movzbl %al,%eax
    6777:	89 c7                	mov    %eax,%edi
    6779:	e8 90 fe ff ff       	callq  660e <crc32_byte>
    677e:	83 45 fc 01          	addl   $0x1,-0x4(%rbp)
    6782:	8b 45 fc             	mov    -0x4(%rbp),%eax
    6785:	3b 45 e4             	cmp    -0x1c(%rbp),%eax
    6788:	7c da                	jl     6764 <transparent_crc_bytes+0x23>
    678a:	83 7d e0 00          	cmpl   $0x0,-0x20(%rbp)
    678e:	74 22                	je     67b2 <transparent_crc_bytes+0x71>
    6790:	8b 05 8a 58 01 00    	mov    0x1588a(%rip),%eax        # 1c020 <crc32_context>
    6796:	f7 d0                	not    %eax
    6798:	89 c2                	mov    %eax,%edx
    679a:	48 8b 45 d8          	mov    -0x28(%rbp),%rax
    679e:	48 89 c6             	mov    %rax,%rsi
    67a1:	48 8d 3d 88 08 01 00 	lea    0x10888(%rip),%rdi        # 17030 <_IO_stdin_used+0x30>
    67a8:	b8 00 00 00 00       	mov    $0x0,%eax
    67ad:	e8 ce e8 ff ff       	callq  5080 <printf@plt>
    67b2:	90                   	nop
    67b3:	c9                   	leaveq 
    67b4:	c3                   	retq   

00000000000067b5 <func_1>:
    67b5:	f3 0f 1e fa          	endbr64 
    67b9:	55                   	push   %rbp
    67ba:	48 89 e5             	mov    %rsp,%rbp
    67bd:	41 57                	push   %r15
    67bf:	41 56                	push   %r14
    67c1:	41 55                	push   %r13
    67c3:	41 54                	push   %r12
    67c5:	53                   	push   %rbx
    67c6:	48 83 ec 78          	sub    $0x78,%rsp
    67ca:	64 48 8b 04 25 28 00 	mov    %fs:0x28,%rax
    67d1:	00 00 
    67d3:	48 89 45 c8          	mov    %rax,-0x38(%rbp)
    67d7:	31 c0                	xor    %eax,%eax
    67d9:	c7 45 8c 59 54 e5 4c 	movl   $0x4ce55459,-0x74(%rbp)
    67e0:	48 8d 05 41 58 01 00 	lea    0x15841(%rip),%rax        # 1c028 <g_11>
    67e7:	48 89 45 a0          	mov    %rax,-0x60(%rbp)
    67eb:	48 8d 05 40 58 01 00 	lea    0x15840(%rip),%rax        # 1c032 <g_16>
    67f2:	48 89 45 a8          	mov    %rax,-0x58(%rbp)
    67f6:	48 8d 05 83 99 01 00 	lea    0x19983(%rip),%rax        # 20180 <g_44>
    67fd:	48 89 45 b0          	mov    %rax,-0x50(%rbp)
    6801:	c7 45 90 ff ff ff ff 	movl   $0xffffffff,-0x70(%rbp)
    6808:	48 c7 45 98 00 00 00 	movq   $0x0,-0x68(%rbp)
    680f:	00 
    6810:	48 8d 45 98          	lea    -0x68(%rbp),%rax
    6814:	48 89 45 b8          	mov    %rax,-0x48(%rbp)
    6818:	48 8d 05 51 58 01 00 	lea    0x15851(%rip),%rax        # 1c070 <g_214>
    681f:	48 89 45 c0          	mov    %rax,-0x40(%rbp)
    6823:	c7 45 94 e4 84 47 61 	movl   $0x614784e4,-0x6c(%rbp)
    682a:	44 8b 65 8c          	mov    -0x74(%rbp),%r12d
    682e:	48 8b 05 c3 6d 01 00 	mov    0x16dc3(%rip),%rax        # 1d5f8 <g_1817>
    6835:	48 c1 e0 17          	shl    $0x17,%rax
    6839:	48 c1 f8 36          	sar    $0x36,%rax
    683d:	0f bf d8             	movswl %ax,%ebx
    6840:	48 8b 45 a0          	mov    -0x60(%rbp),%rax
    6844:	48 8b 00             	mov    (%rax),%rax
    6847:	48 8d 50 01          	lea    0x1(%rax),%rdx
    684b:	48 8b 45 a0          	mov    -0x60(%rbp),%rax
    684f:	48 89 10             	mov    %rdx,(%rax)
    6852:	48 8b 45 a0          	mov    -0x60(%rbp),%rax
    6856:	48 8b 00             	mov    (%rax),%rax
    6859:	88 05 d1 57 01 00    	mov    %al,0x157d1(%rip)        # 1c030 <g_14>
    685f:	48 8b 45 a8          	mov    -0x58(%rbp),%rax
    6863:	0f b6 00             	movzbl (%rax),%eax
    6866:	8d 50 ff             	lea    -0x1(%rax),%edx
    6869:	48 8b 45 a8          	mov    -0x58(%rbp),%rax
    686d:	88 10                	mov    %dl,(%rax)
    686f:	0f b6 05 41 6d 01 00 	movzbl 0x16d41(%rip),%eax        # 1d5b7 <g_1590+0x57>
    6876:	c0 e8 07             	shr    $0x7,%al
    6879:	0f b6 c0             	movzbl %al,%eax
    687c:	0f b7 15 35 6d 01 00 	movzwl 0x16d35(%rip),%edx        # 1d5b8 <g_1590+0x58>
    6883:	81 e2 ff 01 00 00    	and    $0x1ff,%edx
    6889:	48 01 d2             	add    %rdx,%rdx
    688c:	48 09 d0             	or     %rdx,%rax
    688f:	48 c1 e0 36          	shl    $0x36,%rax
    6893:	48 c1 f8 36          	sar    $0x36,%rax
    6897:	48 0f bf c0          	movswq %ax,%rax
    689b:	48 89 85 78 ff ff ff 	mov    %rax,-0x88(%rbp)
    68a2:	48 8b 05 4f 5b 01 00 	mov    0x15b4f(%rip),%rax        # 1c3f8 <g_380>
    68a9:	48 c1 e0 17          	shl    $0x17,%rax
    68ad:	48 c1 f8 36          	sar    $0x36,%rax
    68b1:	44 0f bf e8          	movswl %ax,%r13d
    68b5:	8b 45 8c             	mov    -0x74(%rbp),%eax
    68b8:	44 0f b6 f0          	movzbl %al,%r14d
    68bc:	0f b6 05 6d 57 01 00 	movzbl 0x1576d(%rip),%eax        # 1c030 <g_14>
    68c3:	0f be c0             	movsbl %al,%eax
    68c6:	89 85 74 ff ff ff    	mov    %eax,-0x8c(%rbp)
    68cc:	48 8b 45 98          	mov    -0x68(%rbp),%rax
    68d0:	48 89 85 68 ff ff ff 	mov    %rax,-0x98(%rbp)
    68d7:	0f b6 05 52 57 01 00 	movzbl 0x15752(%rip),%eax        # 1c030 <g_14>
    68de:	4c 0f be f8          	movsbq %al,%r15
    68e2:	48 8b 45 b0          	mov    -0x50(%rbp),%rax
    68e6:	8b 00                	mov    (%rax),%eax
    68e8:	8d 50 ff             	lea    -0x1(%rax),%edx
    68eb:	48 8b 45 b0          	mov    -0x50(%rbp),%rax
    68ef:	89 10                	mov    %edx,(%rax)
    68f1:	48 8b 45 b0          	mov    -0x50(%rbp),%rax
    68f5:	8b 00                	mov    (%rax),%eax
    68f7:	89 85 70 ff ff ff    	mov    %eax,-0x90(%rbp)
    68fd:	0f b6 05 2d 57 01 00 	movzbl 0x1572d(%rip),%eax        # 1c031 <g_14+0x1>
    6904:	0f be c0             	movsbl %al,%eax
    6907:	89 85 64 ff ff ff    	mov    %eax,-0x9c(%rbp)
    690d:	8b 55 8c             	mov    -0x74(%rbp),%edx
    6910:	8b 45 8c             	mov    -0x74(%rbp),%eax
    6913:	89 d6                	mov    %edx,%esi
    6915:	89 c7                	mov    %eax,%edi
    6917:	e8 b4 f5 ff ff       	callq  5ed0 <safe_sub_func_uint32_t_u_u>
    691c:	85 c0                	test   %eax,%eax
    691e:	74 13                	je     6933 <func_1+0x17e>
    6920:	48 8d 3d 01 57 01 00 	lea    0x15701(%rip),%rdi        # 1c028 <g_11>
    6927:	e8 fe 9a 00 00       	callq  1042a <func_49>
    692c:	b8 01 00 00 00       	mov    $0x1,%eax
    6931:	eb 05                	jmp    6938 <func_1+0x183>
    6933:	b8 00 00 00 00       	mov    $0x0,%eax
    6938:	3b 85 64 ff ff ff    	cmp    -0x9c(%rbp),%eax
    693e:	0f 95 c0             	setne  %al
    6941:	0f b6 c0             	movzbl %al,%eax
    6944:	39 85 70 ff ff ff    	cmp    %eax,-0x90(%rbp)
    694a:	0f 93 c0             	setae  %al
    694d:	0f b6 c0             	movzbl %al,%eax
    6950:	f7 d0                	not    %eax
    6952:	39 45 90             	cmp    %eax,-0x70(%rbp)
    6955:	0f 93 c0             	setae  %al
    6958:	0f b6 c0             	movzbl %al,%eax
    695b:	39 45 90             	cmp    %eax,-0x70(%rbp)
    695e:	0f 92 c0             	setb   %al
    6961:	0f b6 c0             	movzbl %al,%eax
    6964:	8b 8d 74 ff ff ff    	mov    -0x8c(%rbp),%ecx
    696a:	48 8b 95 68 ff ff ff 	mov    -0x98(%rbp),%rdx
    6971:	4c 89 fe             	mov    %r15,%rsi
    6974:	89 c7                	mov    %eax,%edi
    6976:	e8 52 7f 00 00       	callq  e8cd <func_37>
    697b:	48 89 c1             	mov    %rax,%rcx
    697e:	48 8b 55 a8          	mov    -0x58(%rbp),%rdx
    6982:	48 8b 45 a8          	mov    -0x58(%rbp),%rax
    6986:	48 89 c6             	mov    %rax,%rsi
    6989:	48 89 cf             	mov    %rcx,%rdi
    698c:	e8 6c 7c 00 00       	callq  e5fd <func_33>
    6991:	44 89 f6             	mov    %r14d,%esi
    6994:	48 89 c7             	mov    %rax,%rdi
    6997:	e8 9d 28 00 00       	callq  9239 <func_30>
    699c:	48 8b 55 b8          	mov    -0x48(%rbp),%rdx
    69a0:	48 89 02             	mov    %rax,(%rdx)
    69a3:	48 8b 45 b8          	mov    -0x48(%rbp),%rax
    69a7:	48 8b 10             	mov    (%rax),%rdx
    69aa:	0f b6 05 7f 56 01 00 	movzbl 0x1567f(%rip),%eax        # 1c030 <g_14>
    69b1:	48 0f be c0          	movsbq %al,%rax
    69b5:	48 8b 0d 6c 56 01 00 	mov    0x1566c(%rip),%rcx        # 1c028 <g_11>
    69bc:	89 cf                	mov    %ecx,%edi
    69be:	4c 8b 85 78 ff ff ff 	mov    -0x88(%rbp),%r8
    69c5:	44 89 e9             	mov    %r13d,%ecx
    69c8:	48 89 c6             	mov    %rax,%rsi
    69cb:	e8 14 20 00 00       	callq  89e4 <func_24>
    69d0:	0f b7 d0             	movzwl %ax,%edx
    69d3:	0f b6 05 56 56 01 00 	movzbl 0x15656(%rip),%eax        # 1c030 <g_14>
    69da:	0f be c0             	movsbl %al,%eax
    69dd:	89 05 51 56 01 00    	mov    %eax,0x15651(%rip)        # 1c034 <g_21>
    69e3:	8b 05 4b 56 01 00    	mov    0x1564b(%rip),%eax        # 1c034 <g_21>
    69e9:	89 c1                	mov    %eax,%ecx
    69eb:	48 8b 05 76 97 01 00 	mov    0x19776(%rip),%rax        # 20168 <g_23>
    69f2:	48 85 c0             	test   %rax,%rax
    69f5:	0f 95 c0             	setne  %al
    69f8:	0f b6 c0             	movzbl %al,%eax
    69fb:	09 c8                	or     %ecx,%eax
    69fd:	0f b7 c0             	movzwl %ax,%eax
    6a00:	89 d6                	mov    %edx,%esi
    6a02:	89 c7                	mov    %eax,%edi
    6a04:	e8 34 f3 ff ff       	callq  5d3d <safe_mul_func_uint16_t_u_u>
    6a09:	0f b7 c0             	movzwl %ax,%eax
    6a0c:	39 45 8c             	cmp    %eax,-0x74(%rbp)
    6a0f:	48 83 7d b0 00       	cmpq   $0x0,-0x50(%rbp)
    6a14:	0f 95 c0             	setne  %al
    6a17:	89 c2                	mov    %eax,%edx
    6a19:	48 8b 45 c0          	mov    -0x40(%rbp),%rax
    6a1d:	88 10                	mov    %dl,(%rax)
    6a1f:	48 8b 45 c0          	mov    -0x40(%rbp),%rax
    6a23:	0f b6 00             	movzbl (%rax),%eax
    6a26:	0f be c0             	movsbl %al,%eax
    6a29:	89 c7                	mov    %eax,%edi
    6a2b:	e8 e1 1d 00 00       	callq  8811 <func_7>
    6a30:	48 89 c7             	mov    %rax,%rdi
    6a33:	8b 45 94             	mov    -0x6c(%rbp),%eax
    6a36:	44 89 e1             	mov    %r12d,%ecx
    6a39:	89 c2                	mov    %eax,%edx
    6a3b:	89 de                	mov    %ebx,%esi
    6a3d:	e8 2d 00 00 00       	callq  6a6f <func_2>
    6a42:	48 8b 55 b8          	mov    -0x48(%rbp),%rdx
    6a46:	48 89 02             	mov    %rax,(%rdx)
    6a49:	8b 45 90             	mov    -0x70(%rbp),%eax
    6a4c:	48 8b 5d c8          	mov    -0x38(%rbp),%rbx
    6a50:	64 48 33 1c 25 28 00 	xor    %fs:0x28,%rbx
    6a57:	00 00 
    6a59:	74 05                	je     6a60 <func_1+0x2ab>
    6a5b:	e8 10 e6 ff ff       	callq  5070 <__stack_chk_fail@plt>
    6a60:	48 83 c4 78          	add    $0x78,%rsp
    6a64:	5b                   	pop    %rbx
    6a65:	41 5c                	pop    %r12
    6a67:	41 5d                	pop    %r13
    6a69:	41 5e                	pop    %r14
    6a6b:	41 5f                	pop    %r15
    6a6d:	5d                   	pop    %rbp
    6a6e:	c3                   	retq   

0000000000006a6f <func_2>:
    6a6f:	f3 0f 1e fa          	endbr64 
    6a73:	55                   	push   %rbp
    6a74:	48 89 e5             	mov    %rsp,%rbp
    6a77:	41 57                	push   %r15
    6a79:	41 56                	push   %r14
    6a7b:	41 55                	push   %r13
    6a7d:	41 54                	push   %r12
    6a7f:	53                   	push   %rbx
    6a80:	48 81 ec 08 07 00 00 	sub    $0x708,%rsp
    6a87:	48 89 bd e8 f8 ff ff 	mov    %rdi,-0x718(%rbp)
    6a8e:	89 b5 e4 f8 ff ff    	mov    %esi,-0x71c(%rbp)
    6a94:	89 95 e0 f8 ff ff    	mov    %edx,-0x720(%rbp)
    6a9a:	89 8d dc f8 ff ff    	mov    %ecx,-0x724(%rbp)
    6aa0:	64 48 8b 04 25 28 00 	mov    %fs:0x28,%rax
    6aa7:	00 00 
    6aa9:	48 89 45 c8          	mov    %rax,-0x38(%rbp)
    6aad:	31 c0                	xor    %eax,%eax
    6aaf:	c6 85 fe f8 ff ff 3c 	movb   $0x3c,-0x702(%rbp)
    6ab6:	48 8d 85 48 fb ff ff 	lea    -0x4b8(%rbp),%rax
    6abd:	48 83 c0 04          	add    $0x4,%rax
    6ac1:	48 89 85 d8 f9 ff ff 	mov    %rax,-0x628(%rbp)
    6ac8:	c6 85 ff f8 ff ff 00 	movb   $0x0,-0x701(%rbp)
    6acf:	48 b8 9a 3c d4 f2 f3 	movabs $0xa89fbf3f2d43c9a,%rax
    6ad6:	fb 89 0a 
    6ad9:	48 89 85 c8 f9 ff ff 	mov    %rax,-0x638(%rbp)
    6ae0:	c7 85 0c f9 ff ff 6a 	movl   $0x2343886a,-0x6f4(%rbp)
    6ae7:	88 43 23 
    6aea:	48 8d 05 5f 8c 01 00 	lea    0x18c5f(%rip),%rax        # 1f750 <g_1362+0x10>
    6af1:	48 89 85 a0 fc ff ff 	mov    %rax,-0x360(%rbp)
    6af8:	48 8d 05 41 8c 01 00 	lea    0x18c41(%rip),%rax        # 1f740 <g_1362>
    6aff:	48 89 85 a8 fc ff ff 	mov    %rax,-0x358(%rbp)
    6b06:	48 8d 05 43 8c 01 00 	lea    0x18c43(%rip),%rax        # 1f750 <g_1362+0x10>
    6b0d:	48 89 85 b0 fc ff ff 	mov    %rax,-0x350(%rbp)
    6b14:	48 8d 05 25 8c 01 00 	lea    0x18c25(%rip),%rax        # 1f740 <g_1362>
    6b1b:	48 89 85 b8 fc ff ff 	mov    %rax,-0x348(%rbp)
    6b22:	48 8d 05 27 8c 01 00 	lea    0x18c27(%rip),%rax        # 1f750 <g_1362+0x10>
    6b29:	48 89 85 c0 fc ff ff 	mov    %rax,-0x340(%rbp)
    6b30:	48 8d 05 09 8c 01 00 	lea    0x18c09(%rip),%rax        # 1f740 <g_1362>
    6b37:	48 89 85 c8 fc ff ff 	mov    %rax,-0x338(%rbp)
    6b3e:	48 8d 05 0b 8c 01 00 	lea    0x18c0b(%rip),%rax        # 1f750 <g_1362+0x10>
    6b45:	48 89 85 d0 fc ff ff 	mov    %rax,-0x330(%rbp)
    6b4c:	48 8d 05 ed 8b 01 00 	lea    0x18bed(%rip),%rax        # 1f740 <g_1362>
    6b53:	48 89 85 d8 fc ff ff 	mov    %rax,-0x328(%rbp)
    6b5a:	48 8d 05 ef 8b 01 00 	lea    0x18bef(%rip),%rax        # 1f750 <g_1362+0x10>
    6b61:	48 89 85 e0 fc ff ff 	mov    %rax,-0x320(%rbp)
    6b68:	48 8d 05 d1 8b 01 00 	lea    0x18bd1(%rip),%rax        # 1f740 <g_1362>
    6b6f:	48 89 85 e8 fc ff ff 	mov    %rax,-0x318(%rbp)
    6b76:	48 8d 05 d3 8b 01 00 	lea    0x18bd3(%rip),%rax        # 1f750 <g_1362+0x10>
    6b7d:	48 89 85 f0 fc ff ff 	mov    %rax,-0x310(%rbp)
    6b84:	48 8d 05 b5 8b 01 00 	lea    0x18bb5(%rip),%rax        # 1f740 <g_1362>
    6b8b:	48 89 85 f8 fc ff ff 	mov    %rax,-0x308(%rbp)
    6b92:	48 8d 05 b7 8b 01 00 	lea    0x18bb7(%rip),%rax        # 1f750 <g_1362+0x10>
    6b99:	48 89 85 00 fd ff ff 	mov    %rax,-0x300(%rbp)
    6ba0:	48 8d 05 99 8b 01 00 	lea    0x18b99(%rip),%rax        # 1f740 <g_1362>
    6ba7:	48 89 85 08 fd ff ff 	mov    %rax,-0x2f8(%rbp)
    6bae:	48 8d 05 9b 8b 01 00 	lea    0x18b9b(%rip),%rax        # 1f750 <g_1362+0x10>
    6bb5:	48 89 85 10 fd ff ff 	mov    %rax,-0x2f0(%rbp)
    6bbc:	48 8d 05 7d 8b 01 00 	lea    0x18b7d(%rip),%rax        # 1f740 <g_1362>
    6bc3:	48 89 85 18 fd ff ff 	mov    %rax,-0x2e8(%rbp)
    6bca:	48 8d 05 7f 8b 01 00 	lea    0x18b7f(%rip),%rax        # 1f750 <g_1362+0x10>
    6bd1:	48 89 85 20 fd ff ff 	mov    %rax,-0x2e0(%rbp)
    6bd8:	48 8d 05 61 8b 01 00 	lea    0x18b61(%rip),%rax        # 1f740 <g_1362>
    6bdf:	48 89 85 28 fd ff ff 	mov    %rax,-0x2d8(%rbp)
    6be6:	48 8d 05 63 8b 01 00 	lea    0x18b63(%rip),%rax        # 1f750 <g_1362+0x10>
    6bed:	48 89 85 30 fd ff ff 	mov    %rax,-0x2d0(%rbp)
    6bf4:	48 8d 05 45 8b 01 00 	lea    0x18b45(%rip),%rax        # 1f740 <g_1362>
    6bfb:	48 89 85 38 fd ff ff 	mov    %rax,-0x2c8(%rbp)
    6c02:	c7 85 20 f9 ff ff 00 	movl   $0x0,-0x6e0(%rbp)
    6c09:	00 00 00 
    6c0c:	eb 1a                	jmp    6c28 <func_2+0x1b9>
    6c0e:	8b 85 20 f9 ff ff    	mov    -0x6e0(%rbp),%eax
    6c14:	48 98                	cltq   
    6c16:	c7 84 85 48 fb ff ff 	movl   $0xfffffffb,-0x4b8(%rbp,%rax,4)
    6c1d:	fb ff ff ff 
    6c21:	83 85 20 f9 ff ff 01 	addl   $0x1,-0x6e0(%rbp)
    6c28:	83 bd 20 f9 ff ff 01 	cmpl   $0x1,-0x6e0(%rbp)
    6c2f:	7e dd                	jle    6c0e <func_2+0x19f>
    6c31:	c7 05 01 54 01 00 01 	movl   $0x1,0x15401(%rip)        # 1c03c <g_58>
    6c38:	00 00 00 
    6c3b:	e9 1b 1b 00 00       	jmpq   875b <func_2+0x1cec>
    6c40:	c7 85 50 fb ff ff 64 	movl   $0xebd04f64,-0x4b0(%rbp)
    6c47:	4f d0 eb 
    6c4a:	c7 85 54 fb ff ff 64 	movl   $0xebd04f64,-0x4ac(%rbp)
    6c51:	4f d0 eb 
    6c54:	c7 85 58 fb ff ff 64 	movl   $0xebd04f64,-0x4a8(%rbp)
    6c5b:	4f d0 eb 
    6c5e:	c7 85 5c fb ff ff 64 	movl   $0xebd04f64,-0x4a4(%rbp)
    6c65:	4f d0 eb 
    6c68:	c7 85 60 fb ff ff 64 	movl   $0xebd04f64,-0x4a0(%rbp)
    6c6f:	4f d0 eb 
    6c72:	c7 85 64 fb ff ff 64 	movl   $0xebd04f64,-0x49c(%rbp)
    6c79:	4f d0 eb 
    6c7c:	48 c7 85 e0 f9 ff ff 	movq   $0x0,-0x620(%rbp)
    6c83:	00 00 00 00 
    6c87:	c6 85 00 f9 ff ff ab 	movb   $0xab,-0x700(%rbp)
    6c8e:	48 8d 85 48 fb ff ff 	lea    -0x4b8(%rbp),%rax
    6c95:	48 89 85 e8 f9 ff ff 	mov    %rax,-0x618(%rbp)
    6c9c:	48 8d 85 40 fd ff ff 	lea    -0x2c0(%rbp),%rax
    6ca3:	48 8d 15 b6 08 01 00 	lea    0x108b6(%rip),%rdx        # 17560 <g_1058+0x13>
    6caa:	b9 50 00 00 00       	mov    $0x50,%ecx
    6caf:	48 89 c7             	mov    %rax,%rdi
    6cb2:	48 89 d6             	mov    %rdx,%rsi
    6cb5:	f3 48 a5             	rep movsq %ds:(%rsi),%es:(%rdi)
    6cb8:	48 c7 85 a8 f9 ff ff 	movq   $0x0,-0x658(%rbp)
    6cbf:	00 00 00 00 
    6cc3:	c7 85 10 f9 ff ff 00 	movl   $0x0,-0x6f0(%rbp)
    6cca:	00 00 00 
    6ccd:	48 b8 6f ac 3e 78 39 	movabs $0x67028839783eac6f,%rax
    6cd4:	88 02 67 
    6cd7:	48 89 85 d0 f9 ff ff 	mov    %rax,-0x630(%rbp)
    6cde:	48 c7 85 f0 f9 ff ff 	movq   $0x1,-0x610(%rbp)
    6ce5:	01 00 00 00 
    6ce9:	48 8d 85 48 fb ff ff 	lea    -0x4b8(%rbp),%rax
    6cf0:	48 89 85 b0 f9 ff ff 	mov    %rax,-0x650(%rbp)
    6cf7:	48 8d 05 32 59 01 00 	lea    0x15932(%rip),%rax        # 1c630 <g_1048>
    6cfe:	48 89 85 f8 f9 ff ff 	mov    %rax,-0x608(%rbp)
    6d05:	c7 85 58 f9 ff ff b3 	movl   $0xc8eeb1b3,-0x6a8(%rbp)
    6d0c:	b1 ee c8 
    6d0f:	48 c7 05 0e 53 01 00 	movq   $0x0,0x1530e(%rip)        # 1c028 <g_11>
    6d16:	00 00 00 00 
    6d1a:	e9 ce 14 00 00       	jmpq   81ed <func_2+0x177e>
    6d1f:	66 c7 85 08 f9 ff ff 	movw   $0xd8de,-0x6f8(%rbp)
    6d26:	de d8 
    6d28:	48 c7 85 40 fa ff ff 	movq   $0x0,-0x5c0(%rbp)
    6d2f:	00 00 00 00 
    6d33:	c7 85 14 f9 ff ff 01 	movl   $0x1,-0x6ec(%rbp)
    6d3a:	00 00 00 
    6d3d:	c7 85 80 f9 ff ff fb 	movl   $0xfffffffb,-0x680(%rbp)
    6d44:	ff ff ff 
    6d47:	c7 85 18 f9 ff ff f6 	movl   $0xfffffff6,-0x6e8(%rbp)
    6d4e:	ff ff ff 
    6d51:	c7 85 84 f9 ff ff 61 	movl   $0x17dd661,-0x67c(%rbp)
    6d58:	d6 7d 01 
    6d5b:	c7 85 88 f9 ff ff 06 	movl   $0x2a752d06,-0x678(%rbp)
    6d62:	2d 75 2a 
    6d65:	c7 85 1c f9 ff ff 01 	movl   $0x1,-0x6e4(%rbp)
    6d6c:	00 00 00 
    6d6f:	48 8d 05 ca 89 01 00 	lea    0x189ca(%rip),%rax        # 1f740 <g_1362>
    6d76:	48 89 85 48 fa ff ff 	mov    %rax,-0x5b8(%rbp)
    6d7d:	48 8d 05 4c 94 01 00 	lea    0x1944c(%rip),%rax        # 201d0 <g_1520>
    6d84:	48 89 85 50 fa ff ff 	mov    %rax,-0x5b0(%rbp)
    6d8b:	c6 85 03 f9 ff ff 00 	movb   $0x0,-0x6fd(%rbp)
    6d92:	c7 85 8c f9 ff ff 28 	movl   $0x1d359e28,-0x674(%rbp)
    6d99:	9e 35 1d 
    6d9c:	66 c7 05 13 94 01 00 	movw   $0x0,0x19413(%rip)        # 201b8 <g_421>
    6da3:	00 00 
    6da5:	e9 12 07 00 00       	jmpq   74bc <func_2+0xa4d>
    6daa:	66 c7 85 04 f9 ff ff 	movw   $0xac27,-0x6fc(%rbp)
    6db1:	27 ac 
    6db3:	48 c7 85 20 fb ff ff 	movq   $0x0,-0x4e0(%rbp)
    6dba:	00 00 00 00 
    6dbe:	c7 85 24 f9 ff ff 1e 	movl   $0x1c8c171e,-0x6dc(%rbp)
    6dc5:	17 8c 1c 
    6dc8:	c6 85 01 f9 ff ff 06 	movb   $0x6,-0x6ff(%rbp)
    6dcf:	c6 05 5c 52 01 00 00 	movb   $0x0,0x1525c(%rip)        # 1c032 <g_16>
    6dd6:	e9 df 02 00 00       	jmpq   70ba <func_2+0x64b>
    6ddb:	48 8d 05 52 52 01 00 	lea    0x15252(%rip),%rax        # 1c034 <g_21>
    6de2:	48 89 85 30 fb ff ff 	mov    %rax,-0x4d0(%rbp)
    6de9:	c7 05 41 52 01 00 00 	movl   $0x0,0x15241(%rip)        # 1c034 <g_21>
    6df0:	00 00 00 
    6df3:	eb 31                	jmp    6e26 <func_2+0x3b7>
    6df5:	0f b6 05 36 52 01 00 	movzbl 0x15236(%rip),%eax        # 1c032 <g_16>
    6dfc:	0f b6 c0             	movzbl %al,%eax
    6dff:	48 98                	cltq   
    6e01:	48 8d 14 85 00 00 00 	lea    0x0(,%rax,4),%rdx
    6e08:	00 
    6e09:	48 8d 05 68 52 01 00 	lea    0x15268(%rip),%rax        # 1c078 <g_244>
    6e10:	8b 04 02             	mov    (%rdx,%rax,1),%eax
    6e13:	85 c0                	test   %eax,%eax
    6e15:	75 1c                	jne    6e33 <func_2+0x3c4>
    6e17:	8b 05 17 52 01 00    	mov    0x15217(%rip),%eax        # 1c034 <g_21>
    6e1d:	83 c0 01             	add    $0x1,%eax
    6e20:	89 05 0e 52 01 00    	mov    %eax,0x1520e(%rip)        # 1c034 <g_21>
    6e26:	8b 05 08 52 01 00    	mov    0x15208(%rip),%eax        # 1c034 <g_21>
    6e2c:	83 f8 05             	cmp    $0x5,%eax
    6e2f:	7e c4                	jle    6df5 <func_2+0x386>
    6e31:	eb 01                	jmp    6e34 <func_2+0x3c5>
    6e33:	90                   	nop
    6e34:	8b 85 58 fb ff ff    	mov    -0x4a8(%rbp),%eax
    6e3a:	66 89 85 04 f9 ff ff 	mov    %ax,-0x6fc(%rbp)
    6e41:	0f b7 8d 04 f9 ff ff 	movzwl -0x6fc(%rbp),%ecx
    6e48:	48 8b 85 30 fb ff ff 	mov    -0x4d0(%rbp),%rax
    6e4f:	8b 10                	mov    (%rax),%edx
    6e51:	0f b7 c1             	movzwl %cx,%eax
    6e54:	21 c2                	and    %eax,%edx
    6e56:	48 8b 85 30 fb ff ff 	mov    -0x4d0(%rbp),%rax
    6e5d:	89 10                	mov    %edx,(%rax)
    6e5f:	48 8b 05 6a 87 01 00 	mov    0x1876a(%rip),%rax        # 1f5d0 <g_637>
    6e66:	0f b7 00             	movzwl (%rax),%eax
    6e69:	0f bf d0             	movswl %ax,%edx
    6e6c:	8b 85 e0 f8 ff ff    	mov    -0x720(%rbp),%eax
    6e72:	98                   	cwtl   
    6e73:	89 d6                	mov    %edx,%esi
    6e75:	89 c7                	mov    %eax,%edi
    6e77:	e8 79 e5 ff ff       	callq  53f5 <safe_mul_func_int16_t_s_s>
    6e7c:	0f bf d0             	movswl %ax,%edx
    6e7f:	48 8b 85 30 fb ff ff 	mov    -0x4d0(%rbp),%rax
    6e86:	89 10                	mov    %edx,(%rax)
    6e88:	c6 05 99 61 01 00 05 	movb   $0x5,0x16199(%rip)        # 1d028 <g_1301>
    6e8f:	e9 07 02 00 00       	jmpq   709b <func_2+0x62c>
    6e94:	48 8d 05 a5 51 01 00 	lea    0x151a5(%rip),%rax        # 1c040 <g_69>
    6e9b:	48 89 85 38 fb ff ff 	mov    %rax,-0x4c8(%rbp)
    6ea2:	48 8d 05 8f 51 01 00 	lea    0x1518f(%rip),%rax        # 1c038 <g_53>
    6ea9:	48 89 85 40 fb ff ff 	mov    %rax,-0x4c0(%rbp)
    6eb0:	be ff ff ff ff       	mov    $0xffffffff,%esi
    6eb5:	bf 00 00 00 00       	mov    $0x0,%edi
    6eba:	e8 14 e5 ff ff       	callq  53d3 <safe_sub_func_int16_t_s_s>
    6ebf:	48 8b 05 92 88 01 00 	mov    0x18892(%rip),%rax        # 1f758 <g_1361>
    6ec6:	48 8b 00             	mov    (%rax),%rax
    6ec9:	66 c7 00 00 00       	movw   $0x0,(%rax)
    6ece:	0f b6 05 5d 51 01 00 	movzbl 0x1515d(%rip),%eax        # 1c032 <g_16>
    6ed5:	0f b6 d0             	movzbl %al,%edx
    6ed8:	0f b6 05 53 51 01 00 	movzbl 0x15153(%rip),%eax        # 1c032 <g_16>
    6edf:	0f b6 c0             	movzbl %al,%eax
    6ee2:	83 c0 02             	add    $0x2,%eax
    6ee5:	48 98                	cltq   
    6ee7:	48 63 d2             	movslq %edx,%rdx
    6eea:	48 c1 e2 02          	shl    $0x2,%rdx
    6eee:	48 01 d0             	add    %rdx,%rax
    6ef1:	48 8d 14 85 00 00 00 	lea    0x0(,%rax,4),%rdx
    6ef8:	00 
    6ef9:	48 8d 05 80 92 01 00 	lea    0x19280(%rip),%rax        # 20180 <g_44>
    6f00:	8b 04 02             	mov    (%rdx,%rax,1),%eax
    6f03:	3d b3 cf 00 00       	cmp    $0xcfb3,%eax
    6f08:	0f 97 c0             	seta   %al
    6f0b:	0f b6 c0             	movzbl %al,%eax
    6f0e:	39 85 dc f8 ff ff    	cmp    %eax,-0x724(%rbp)
    6f14:	0f 96 c0             	setbe  %al
    6f17:	0f b6 d0             	movzbl %al,%edx
    6f1a:	48 8b 85 30 fb ff ff 	mov    -0x4d0(%rbp),%rax
    6f21:	89 10                	mov    %edx,(%rax)
    6f23:	48 8b 05 a6 86 01 00 	mov    0x186a6(%rip),%rax        # 1f5d0 <g_637>
    6f2a:	0f b7 00             	movzwl (%rax),%eax
    6f2d:	0f b7 d0             	movzwl %ax,%edx
    6f30:	48 8b 85 30 fb ff ff 	mov    -0x4d0(%rbp),%rax
    6f37:	89 10                	mov    %edx,(%rax)
    6f39:	48 8b 85 30 fb ff ff 	mov    -0x4d0(%rbp),%rax
    6f40:	8b 18                	mov    (%rax),%ebx
    6f42:	8b 85 5c fb ff ff    	mov    -0x4a4(%rbp),%eax
    6f48:	88 85 fe f8 ff ff    	mov    %al,-0x702(%rbp)
    6f4e:	44 0f b6 a5 fe f8 ff 	movzbl -0x702(%rbp),%r12d
    6f55:	ff 
    6f56:	48 8b 05 2b 89 01 00 	mov    0x1892b(%rip),%rax        # 1f888 <g_2237+0x8>
    6f5d:	48 85 c0             	test   %rax,%rax
    6f60:	0f 94 c0             	sete   %al
    6f63:	0f b6 c0             	movzbl %al,%eax
    6f66:	33 85 dc f8 ff ff    	xor    -0x724(%rbp),%eax
    6f6c:	89 c2                	mov    %eax,%edx
    6f6e:	8b 85 e4 f8 ff ff    	mov    -0x71c(%rbp),%eax
    6f74:	39 c2                	cmp    %eax,%edx
    6f76:	0f 95 c0             	setne  %al
    6f79:	0f b6 c0             	movzbl %al,%eax
    6f7c:	be ff ff 00 00       	mov    $0xffff,%esi
    6f81:	89 c7                	mov    %eax,%edi
    6f83:	e8 d4 ed ff ff       	callq  5d5c <safe_mod_func_uint16_t_u_u>
    6f88:	0f b7 c0             	movzwl %ax,%eax
    6f8b:	39 85 dc f8 ff ff    	cmp    %eax,-0x724(%rbp)
    6f91:	0f 94 c0             	sete   %al
    6f94:	0f b6 d0             	movzbl %al,%edx
    6f97:	48 8b 85 38 fb ff ff 	mov    -0x4c8(%rbp),%rax
    6f9e:	0f b6 00             	movzbl (%rax),%eax
    6fa1:	89 c1                	mov    %eax,%ecx
    6fa3:	89 d0                	mov    %edx,%eax
    6fa5:	21 c8                	and    %ecx,%eax
    6fa7:	89 c2                	mov    %eax,%edx
    6fa9:	48 8b 85 38 fb ff ff 	mov    -0x4c8(%rbp),%rax
    6fb0:	88 10                	mov    %dl,(%rax)
    6fb2:	48 8b 05 e7 87 01 00 	mov    0x187e7(%rip),%rax        # 1f7a0 <g_1566>
    6fb9:	48 8b 00             	mov    (%rax),%rax
    6fbc:	0f b6 00             	movzbl (%rax),%eax
    6fbf:	0f be c0             	movsbl %al,%eax
    6fc2:	be 01 00 00 00       	mov    $0x1,%esi
    6fc7:	89 c7                	mov    %eax,%edi
    6fc9:	e8 20 e3 ff ff       	callq  52ee <safe_lshift_func_int8_t_s_u>
    6fce:	48 8b 05 fb 85 01 00 	mov    0x185fb(%rip),%rax        # 1f5d0 <g_637>
    6fd5:	0f b7 00             	movzwl (%rax),%eax
    6fd8:	0f b7 c0             	movzwl %ax,%eax
    6fdb:	39 85 dc f8 ff ff    	cmp    %eax,-0x724(%rbp)
    6fe1:	0f 95 c0             	setne  %al
    6fe4:	0f b6 c0             	movzbl %al,%eax
    6fe7:	be ee 00 00 00       	mov    $0xee,%esi
    6fec:	89 c7                	mov    %eax,%edi
    6fee:	e8 85 eb ff ff       	callq  5b78 <safe_sub_func_uint8_t_u_u>
    6ff3:	0f b6 c0             	movzbl %al,%eax
    6ff6:	89 c6                	mov    %eax,%esi
    6ff8:	bf d0 00 00 00       	mov    $0xd0,%edi
    6ffd:	e8 8b ec ff ff       	callq  5c8d <safe_rshift_func_uint8_t_u_s>
    7002:	48 8b 05 4f 87 01 00 	mov    0x1874f(%rip),%rax        # 1f758 <g_1361>
    7009:	48 8b 00             	mov    (%rax),%rax
    700c:	0f b7 08             	movzwl (%rax),%ecx
    700f:	41 0f b6 d4          	movzbl %r12b,%edx
    7013:	48 8b 05 3e 87 01 00 	mov    0x1873e(%rip),%rax        # 1f758 <g_1361>
    701a:	48 8b 00             	mov    (%rax),%rax
    701d:	31 ca                	xor    %ecx,%edx
    701f:	66 89 10             	mov    %dx,(%rax)
    7022:	09 9d 24 f9 ff ff    	or     %ebx,-0x6dc(%rbp)
    7028:	8b 85 24 f9 ff ff    	mov    -0x6dc(%rbp),%eax
    702e:	0b 85 e4 f8 ff ff    	or     -0x71c(%rbp),%eax
    7034:	48 98                	cltq   
    7036:	0f b6 15 f5 4f 01 00 	movzbl 0x14ff5(%rip),%edx        # 1c032 <g_16>
    703d:	0f b6 ca             	movzbl %dl,%ecx
    7040:	0f b6 15 eb 4f 01 00 	movzbl 0x14feb(%rip),%edx        # 1c032 <g_16>
    7047:	0f b6 d2             	movzbl %dl,%edx
    704a:	83 c2 02             	add    $0x2,%edx
    704d:	48 63 d2             	movslq %edx,%rdx
    7050:	48 63 c9             	movslq %ecx,%rcx
    7053:	48 c1 e1 02          	shl    $0x2,%rcx
    7057:	48 01 ca             	add    %rcx,%rdx
    705a:	48 8d 0c 95 00 00 00 	lea    0x0(,%rdx,4),%rcx
    7061:	00 
    7062:	48 8d 15 17 91 01 00 	lea    0x19117(%rip),%rdx        # 20180 <g_44>
    7069:	8b 14 11             	mov    (%rcx,%rdx,1),%edx
    706c:	89 d2                	mov    %edx,%edx
    706e:	48 39 d0             	cmp    %rdx,%rax
    7071:	0f 95 c0             	setne  %al
    7074:	0f b6 d0             	movzbl %al,%edx
    7077:	48 8b 85 40 fb ff ff 	mov    -0x4c0(%rbp),%rax
    707e:	8b 00                	mov    (%rax),%eax
    7080:	21 c2                	and    %eax,%edx
    7082:	48 8b 85 40 fb ff ff 	mov    -0x4c0(%rbp),%rax
    7089:	89 10                	mov    %edx,(%rax)
    708b:	0f b6 05 96 5f 01 00 	movzbl 0x15f96(%rip),%eax        # 1d028 <g_1301>
    7092:	83 e8 01             	sub    $0x1,%eax
    7095:	88 05 8d 5f 01 00    	mov    %al,0x15f8d(%rip)        # 1d028 <g_1301>
    709b:	0f b6 05 86 5f 01 00 	movzbl 0x15f86(%rip),%eax        # 1d028 <g_1301>
    70a2:	84 c0                	test   %al,%al
    70a4:	0f 89 ea fd ff ff    	jns    6e94 <func_2+0x425>
    70aa:	0f b6 05 81 4f 01 00 	movzbl 0x14f81(%rip),%eax        # 1c032 <g_16>
    70b1:	83 c0 01             	add    $0x1,%eax
    70b4:	88 05 78 4f 01 00    	mov    %al,0x14f78(%rip)        # 1c032 <g_16>
    70ba:	0f b6 05 71 4f 01 00 	movzbl 0x14f71(%rip),%eax        # 1c032 <g_16>
    70c1:	3c 01                	cmp    $0x1,%al
    70c3:	0f 86 12 fd ff ff    	jbe    6ddb <func_2+0x36c>
    70c9:	c6 85 fe f8 ff ff 00 	movb   $0x0,-0x702(%rbp)
    70d0:	e9 c4 01 00 00       	jmpq   7299 <func_2+0x82a>
    70d5:	c7 85 c0 f9 ff ff ff 	movl   $0xffffffff,-0x640(%rbp)
    70dc:	ff ff ff 
    70df:	48 8d 85 c0 f9 ff ff 	lea    -0x640(%rbp),%rax
    70e6:	48 89 85 30 fc ff ff 	mov    %rax,-0x3d0(%rbp)
    70ed:	48 8d 85 c0 f9 ff ff 	lea    -0x640(%rbp),%rax
    70f4:	48 89 85 38 fc ff ff 	mov    %rax,-0x3c8(%rbp)
    70fb:	48 8d 05 3a 4f 01 00 	lea    0x14f3a(%rip),%rax        # 1c03c <g_58>
    7102:	48 89 85 40 fc ff ff 	mov    %rax,-0x3c0(%rbp)
    7109:	48 8d 05 2c 4f 01 00 	lea    0x14f2c(%rip),%rax        # 1c03c <g_58>
    7110:	48 89 85 48 fc ff ff 	mov    %rax,-0x3b8(%rbp)
    7117:	48 8d 05 1e 4f 01 00 	lea    0x14f1e(%rip),%rax        # 1c03c <g_58>
    711e:	48 89 85 50 fc ff ff 	mov    %rax,-0x3b0(%rbp)
    7125:	48 8d 05 10 4f 01 00 	lea    0x14f10(%rip),%rax        # 1c03c <g_58>
    712c:	48 89 85 58 fc ff ff 	mov    %rax,-0x3a8(%rbp)
    7133:	48 8d 05 02 4f 01 00 	lea    0x14f02(%rip),%rax        # 1c03c <g_58>
    713a:	48 89 85 60 fc ff ff 	mov    %rax,-0x3a0(%rbp)
    7141:	48 8d 05 f4 4e 01 00 	lea    0x14ef4(%rip),%rax        # 1c03c <g_58>
    7148:	48 89 85 68 fc ff ff 	mov    %rax,-0x398(%rbp)
    714f:	0f b7 85 04 f9 ff ff 	movzwl -0x6fc(%rbp),%eax
    7156:	0f be d8             	movsbl %al,%ebx
    7159:	44 8b a5 e0 f8 ff ff 	mov    -0x720(%rbp),%r12d
    7160:	48 8b 05 69 78 01 00 	mov    0x17869(%rip),%rax        # 1e9d0 <g_274>
    7167:	4c 8b 30             	mov    (%rax),%r14
    716a:	0f b6 85 fe f8 ff ff 	movzbl -0x702(%rbp),%eax
    7171:	48 98                	cltq   
    7173:	48 8d 14 c5 00 00 00 	lea    0x0(,%rax,8),%rdx
    717a:	00 
    717b:	48 8d 05 fe 86 01 00 	lea    0x186fe(%rip),%rax        # 1f880 <g_2237>
    7182:	48 8b 04 02          	mov    (%rdx,%rax,1),%rax
    7186:	48 85 c0             	test   %rax,%rax
    7189:	0f 94 c0             	sete   %al
    718c:	44 0f b6 f8          	movzbl %al,%r15d
    7190:	8b 85 58 fb ff ff    	mov    -0x4a8(%rbp),%eax
    7196:	85 c0                	test   %eax,%eax
    7198:	75 76                	jne    7210 <func_2+0x7a1>
    719a:	8b 85 58 fb ff ff    	mov    -0x4a8(%rbp),%eax
    71a0:	83 f8 01             	cmp    $0x1,%eax
    71a3:	0f 9e c0             	setle  %al
    71a6:	44 0f b6 e8          	movzbl %al,%r13d
    71aa:	be ff ff ff ff       	mov    $0xffffffff,%esi
    71af:	bf f9 ff ff ff       	mov    $0xfffffff9,%edi
    71b4:	e8 59 e0 ff ff       	callq  5212 <safe_mul_func_int8_t_s_s>
    71b9:	0f b6 c0             	movzbl %al,%eax
    71bc:	44 89 ee             	mov    %r13d,%esi
    71bf:	89 c7                	mov    %eax,%edi
    71c1:	e8 cd e9 ff ff       	callq  5b93 <safe_mul_func_uint8_t_u_u>
    71c6:	0f b6 d0             	movzbl %al,%edx
    71c9:	8b 85 c0 f9 ff ff    	mov    -0x640(%rbp),%eax
    71cf:	39 c2                	cmp    %eax,%edx
    71d1:	0f 9d c2             	setge  %dl
    71d4:	48 8b 05 d5 77 01 00 	mov    0x177d5(%rip),%rax        # 1e9b0 <g_75>
    71db:	48 8b 00             	mov    (%rax),%rax
    71de:	0f b6 d2             	movzbl %dl,%edx
    71e1:	89 10                	mov    %edx,(%rax)
    71e3:	8b 10                	mov    (%rax),%edx
    71e5:	48 8b 85 e8 f8 ff ff 	mov    -0x718(%rbp),%rax
    71ec:	8b 00                	mov    (%rax),%eax
    71ee:	39 c2                	cmp    %eax,%edx
    71f0:	0f 97 c0             	seta   %al
    71f3:	0f b6 c0             	movzbl %al,%eax
    71f6:	89 c2                	mov    %eax,%edx
    71f8:	0f b6 85 00 f9 ff ff 	movzbl -0x700(%rbp),%eax
    71ff:	09 d0                	or     %edx,%eax
    7201:	88 85 00 f9 ff ff    	mov    %al,-0x700(%rbp)
    7207:	80 bd 00 f9 ff ff 00 	cmpb   $0x0,-0x700(%rbp)
    720e:	74 10                	je     7220 <func_2+0x7b1>
    7210:	80 bd 00 f9 ff ff 00 	cmpb   $0x0,-0x700(%rbp)
    7217:	74 07                	je     7220 <func_2+0x7b1>
    7219:	b8 01 00 00 00       	mov    $0x1,%eax
    721e:	eb 05                	jmp    7225 <func_2+0x7b6>
    7220:	b8 00 00 00 00       	mov    $0x0,%eax
    7225:	48 98                	cltq   
    7227:	48 be 69 59 cb 4a 11 	movabs $0x56941d114acb5969,%rsi
    722e:	1d 94 56 
    7231:	48 89 c7             	mov    %rax,%rdi
    7234:	e8 f5 ed ff ff       	callq  602e <safe_add_func_uint64_t_u_u>
    7239:	49 39 c7             	cmp    %rax,%r15
    723c:	0f 92 c0             	setb   %al
    723f:	0f b6 c0             	movzbl %al,%eax
    7242:	49 39 c6             	cmp    %rax,%r14
    7245:	0f 9e c0             	setle  %al
    7248:	0f b6 c0             	movzbl %al,%eax
    724b:	4c 89 e6             	mov    %r12,%rsi
    724e:	48 89 c7             	mov    %rax,%rdi
    7251:	e8 59 ee ff ff       	callq  60af <safe_div_func_uint64_t_u_u>
    7256:	0f b6 95 fe f8 ff ff 	movzbl -0x702(%rbp),%edx
    725d:	48 39 d0             	cmp    %rdx,%rax
    7260:	0f 97 c0             	seta   %al
    7263:	0f b6 c0             	movzbl %al,%eax
    7266:	89 de                	mov    %ebx,%esi
    7268:	89 c7                	mov    %eax,%edi
    726a:	e8 a3 df ff ff       	callq  5212 <safe_mul_func_int8_t_s_s>
    726f:	be ff ff 00 00       	mov    $0xffff,%esi
    7274:	bf 01 00 00 00       	mov    $0x1,%edi
    7279:	e8 10 eb ff ff       	callq  5d8e <safe_div_func_uint16_t_u_u>
    727e:	98                   	cwtl   
    727f:	be 09 00 00 00       	mov    $0x9,%esi
    7284:	89 c7                	mov    %eax,%edi
    7286:	e8 6a e1 ff ff       	callq  53f5 <safe_mul_func_int16_t_s_s>
    728b:	98                   	cwtl   
    728c:	89 85 48 fb ff ff    	mov    %eax,-0x4b8(%rbp)
    7292:	80 85 fe f8 ff ff 01 	addb   $0x1,-0x702(%rbp)
    7299:	80 bd fe f8 ff ff 04 	cmpb   $0x4,-0x702(%rbp)
    72a0:	0f 86 2f fe ff ff    	jbe    70d5 <func_2+0x666>
    72a6:	c6 85 fe f8 ff ff 00 	movb   $0x0,-0x702(%rbp)
    72ad:	e9 76 01 00 00       	jmpq   7428 <func_2+0x9b9>
    72b2:	80 85 01 f9 ff ff 01 	addb   $0x1,-0x6ff(%rbp)
    72b9:	48 c7 05 54 5d 01 00 	movq   $0x0,0x15d54(%rip)        # 1d018 <g_1164>
    72c0:	00 00 00 00 
    72c4:	eb 6d                	jmp    7333 <func_2+0x8c4>
    72c6:	c7 85 28 f9 ff ff 00 	movl   $0x0,-0x6d8(%rbp)
    72cd:	00 00 00 
    72d0:	eb 1e                	jmp    72f0 <func_2+0x881>
    72d2:	8b 85 28 f9 ff ff    	mov    -0x6d8(%rbp),%eax
    72d8:	48 98                	cltq   
    72da:	48 8d 95 48 fb ff ff 	lea    -0x4b8(%rbp),%rdx
    72e1:	48 89 94 c5 30 fc ff 	mov    %rdx,-0x3d0(%rbp,%rax,8)
    72e8:	ff 
    72e9:	83 85 28 f9 ff ff 01 	addl   $0x1,-0x6d8(%rbp)
    72f0:	83 bd 28 f9 ff ff 09 	cmpl   $0x9,-0x6d8(%rbp)
    72f7:	7e d9                	jle    72d2 <func_2+0x863>
    72f9:	66 c7 85 08 f9 ff ff 	movw   $0x3f2c,-0x6f8(%rbp)
    7300:	2c 3f 
    7302:	0f b6 95 fe f8 ff ff 	movzbl -0x702(%rbp),%edx
    7309:	48 8d 85 48 fb ff ff 	lea    -0x4b8(%rbp),%rax
    7310:	48 63 d2             	movslq %edx,%rdx
    7313:	48 c1 e2 02          	shl    $0x2,%rdx
    7317:	48 01 d0             	add    %rdx,%rax
    731a:	48 89 85 e8 f8 ff ff 	mov    %rax,-0x718(%rbp)
    7321:	48 8b 05 f0 5c 01 00 	mov    0x15cf0(%rip),%rax        # 1d018 <g_1164>
    7328:	48 83 c0 01          	add    $0x1,%rax
    732c:	48 89 05 e5 5c 01 00 	mov    %rax,0x15ce5(%rip)        # 1d018 <g_1164>
    7333:	48 8b 05 de 5c 01 00 	mov    0x15cde(%rip),%rax        # 1d018 <g_1164>
    733a:	48 83 f8 01          	cmp    $0x1,%rax
    733e:	76 86                	jbe    72c6 <func_2+0x857>
    7340:	c6 05 0f 4d 01 00 00 	movb   $0x0,0x14d0f(%rip)        # 1c056 <g_101>
    7347:	90                   	nop
    7348:	0f b6 05 07 4d 01 00 	movzbl 0x14d07(%rip),%eax        # 1c056 <g_101>
    734f:	3c 05                	cmp    $0x5,%al
    7351:	0f 8f ca 00 00 00    	jg     7421 <func_2+0x9b2>
    7357:	c7 85 a4 f9 ff ff 31 	movl   $0x487c2631,-0x65c(%rbp)
    735e:	26 7c 48 
    7361:	48 8d 05 d8 82 01 00 	lea    0x182d8(%rip),%rax        # 1f640 <g_840+0x40>
    7368:	48 89 85 c0 f9 ff ff 	mov    %rax,-0x640(%rbp)
    736f:	48 8d 85 c0 f9 ff ff 	lea    -0x640(%rbp),%rax
    7376:	48 89 85 28 fb ff ff 	mov    %rax,-0x4d8(%rbp)
    737d:	0f b6 85 fe f8 ff ff 	movzbl -0x702(%rbp),%eax
    7384:	8d 48 02             	lea    0x2(%rax),%ecx
    7387:	0f b6 85 fe f8 ff ff 	movzbl -0x702(%rbp),%eax
    738e:	0f b7 15 23 8e 01 00 	movzwl 0x18e23(%rip),%edx        # 201b8 <g_421>
    7395:	0f b7 d2             	movzwl %dx,%edx
    7398:	83 c2 03             	add    $0x3,%edx
    739b:	48 8b 35 de 88 01 00 	mov    0x188de(%rip),%rsi        # 1fc80 <g_2266>
    73a2:	48 63 fa             	movslq %edx,%rdi
    73a5:	48 63 d1             	movslq %ecx,%rdx
    73a8:	48 63 c8             	movslq %eax,%rcx
    73ab:	48 89 d0             	mov    %rdx,%rax
    73ae:	48 c1 e0 03          	shl    $0x3,%rax
    73b2:	48 01 d0             	add    %rdx,%rax
    73b5:	48 01 c0             	add    %rax,%rax
    73b8:	48 89 ca             	mov    %rcx,%rdx
    73bb:	48 c1 e2 03          	shl    $0x3,%rdx
    73bf:	48 01 ca             	add    %rcx,%rdx
    73c2:	48 01 d0             	add    %rdx,%rax
    73c5:	48 01 f8             	add    %rdi,%rax
    73c8:	48 8d 14 c5 00 00 00 	lea    0x0(,%rax,8),%rdx
    73cf:	00 
    73d0:	48 8d 05 09 7e 01 00 	lea    0x17e09(%rip),%rax        # 1f1e0 <g_518>
    73d7:	48 8b 04 02          	mov    (%rdx,%rax,1),%rax
    73db:	48 89 06             	mov    %rax,(%rsi)
    73de:	0f b6 85 fe f8 ff ff 	movzbl -0x702(%rbp),%eax
    73e5:	48 98                	cltq   
    73e7:	48 8d 14 85 00 00 00 	lea    0x0(,%rax,4),%rdx
    73ee:	00 
    73ef:	48 8d 05 82 4c 01 00 	lea    0x14c82(%rip),%rax        # 1c078 <g_244>
    73f6:	8b 14 02             	mov    (%rdx,%rax,1),%edx
    73f9:	8b 85 a4 f9 ff ff    	mov    -0x65c(%rbp),%eax
    73ff:	31 d0                	xor    %edx,%eax
    7401:	89 85 a4 f9 ff ff    	mov    %eax,-0x65c(%rbp)
    7407:	48 8b 85 28 fb ff ff 	mov    -0x4d8(%rbp),%rax
    740e:	48 c7 00 00 00 00 00 	movq   $0x0,(%rax)
    7415:	48 8b 85 40 fa ff ff 	mov    -0x5c0(%rbp),%rax
    741c:	e9 ca 13 00 00       	jmpq   87eb <func_2+0x1d7c>
    7421:	80 85 fe f8 ff ff 01 	addb   $0x1,-0x702(%rbp)
    7428:	80 bd fe f8 ff ff 01 	cmpb   $0x1,-0x702(%rbp)
    742f:	0f 86 7d fe ff ff    	jbe    72b2 <func_2+0x843>
    7435:	c7 85 dc f8 ff ff 00 	movl   $0x0,-0x724(%rbp)
    743c:	00 00 00 
    743f:	eb 61                	jmp    74a2 <func_2+0xa33>
    7441:	0f b7 05 70 8d 01 00 	movzwl 0x18d70(%rip),%eax        # 201b8 <g_421>
    7448:	0f b7 c0             	movzwl %ax,%eax
    744b:	8d 50 01             	lea    0x1(%rax),%edx
    744e:	0f b7 05 63 8d 01 00 	movzwl 0x18d63(%rip),%eax        # 201b8 <g_421>
    7455:	0f b7 c0             	movzwl %ax,%eax
    7458:	83 c0 03             	add    $0x3,%eax
    745b:	48 63 f0             	movslq %eax,%rsi
    745e:	48 63 d2             	movslq %edx,%rdx
    7461:	8b 8d dc f8 ff ff    	mov    -0x724(%rbp),%ecx
    7467:	48 89 d0             	mov    %rdx,%rax
    746a:	48 c1 e0 03          	shl    $0x3,%rax
    746e:	48 01 d0             	add    %rdx,%rax
    7471:	48 01 c0             	add    %rax,%rax
    7474:	48 89 ca             	mov    %rcx,%rdx
    7477:	48 c1 e2 03          	shl    $0x3,%rdx
    747b:	48 01 ca             	add    %rcx,%rdx
    747e:	48 01 d0             	add    %rdx,%rax
    7481:	48 01 f0             	add    %rsi,%rax
    7484:	48 8d 14 c5 00 00 00 	lea    0x0(,%rax,8),%rdx
    748b:	00 
    748c:	48 8d 05 4d 7d 01 00 	lea    0x17d4d(%rip),%rax        # 1f1e0 <g_518>
    7493:	48 c7 04 02 00 00 00 	movq   $0x0,(%rdx,%rax,1)
    749a:	00 
    749b:	83 85 dc f8 ff ff 01 	addl   $0x1,-0x724(%rbp)
    74a2:	83 bd dc f8 ff ff 01 	cmpl   $0x1,-0x724(%rbp)
    74a9:	76 96                	jbe    7441 <func_2+0x9d2>
    74ab:	0f b7 05 06 8d 01 00 	movzwl 0x18d06(%rip),%eax        # 201b8 <g_421>
    74b2:	83 c0 01             	add    $0x1,%eax
    74b5:	66 89 05 fc 8c 01 00 	mov    %ax,0x18cfc(%rip)        # 201b8 <g_421>
    74bc:	0f b7 05 f5 8c 01 00 	movzwl 0x18cf5(%rip),%eax        # 201b8 <g_421>
    74c3:	66 83 f8 05          	cmp    $0x5,%ax
    74c7:	0f 86 dd f8 ff ff    	jbe    6daa <func_2+0x33b>
    74cd:	8b 85 48 fb ff ff    	mov    -0x4b8(%rbp),%eax
    74d3:	85 c0                	test   %eax,%eax
    74d5:	0f 84 f6 09 00 00    	je     7ed1 <func_2+0x1462>
    74db:	48 8d 05 50 4b 01 00 	lea    0x14b50(%rip),%rax        # 1c032 <g_16>
    74e2:	48 89 85 c0 fa ff ff 	mov    %rax,-0x540(%rbp)
    74e9:	c7 85 e0 fb ff ff 05 	movl   $0x5,-0x420(%rbp)
    74f0:	00 00 00 
    74f3:	c7 85 e4 fb ff ff ff 	movl   $0xffffffff,-0x41c(%rbp)
    74fa:	ff ff ff 
    74fd:	c7 85 e8 fb ff ff 1d 	movl   $0x52471f1d,-0x418(%rbp)
    7504:	1f 47 52 
    7507:	c7 85 ec fb ff ff f9 	movl   $0xb939c0f9,-0x414(%rbp)
    750e:	c0 39 b9 
    7511:	c7 85 f0 fb ff ff b8 	movl   $0x39c2c3b8,-0x410(%rbp)
    7518:	c3 c2 39 
    751b:	c7 85 f4 fb ff ff e5 	movl   $0x576b83e5,-0x40c(%rbp)
    7522:	83 6b 57 
    7525:	c7 85 f8 fb ff ff cb 	movl   $0xe2b50ecb,-0x408(%rbp)
    752c:	0e b5 e2 
    752f:	c7 85 fc fb ff ff e5 	movl   $0x576b83e5,-0x404(%rbp)
    7536:	83 6b 57 
    7539:	c7 85 00 fc ff ff e5 	movl   $0x576b83e5,-0x400(%rbp)
    7540:	83 6b 57 
    7543:	c7 85 04 fc ff ff 1d 	movl   $0x52471f1d,-0x3fc(%rbp)
    754a:	1f 47 52 
    754d:	c7 85 08 fc ff ff 05 	movl   $0x5,-0x3f8(%rbp)
    7554:	00 00 00 
    7557:	c7 85 0c fc ff ff e5 	movl   $0x576b83e5,-0x3f4(%rbp)
    755e:	83 6b 57 
    7561:	c7 85 10 fc ff ff 05 	movl   $0x5,-0x3f0(%rbp)
    7568:	00 00 00 
    756b:	c7 85 14 fc ff ff e5 	movl   $0x576b83e5,-0x3ec(%rbp)
    7572:	83 6b 57 
    7575:	c7 85 18 fc ff ff f9 	movl   $0xb939c0f9,-0x3e8(%rbp)
    757c:	c0 39 b9 
    757f:	c7 85 1c fc ff ff f9 	movl   $0xb939c0f9,-0x3e4(%rbp)
    7586:	c0 39 b9 
    7589:	c7 85 20 fc ff ff ff 	movl   $0xffffffff,-0x3e0(%rbp)
    7590:	ff ff ff 
    7593:	c7 85 24 fc ff ff ff 	movl   $0xffffffff,-0x3dc(%rbp)
    759a:	ff ff ff 
    759d:	c7 85 28 fc ff ff cb 	movl   $0xe2b50ecb,-0x3d8(%rbp)
    75a4:	0e b5 e2 
    75a7:	c7 85 2c fc ff ff b8 	movl   $0x39c2c3b8,-0x3d4(%rbp)
    75ae:	c3 c2 39 
    75b1:	c7 85 90 f9 ff ff c0 	movl   $0x5e5d6fc0,-0x670(%rbp)
    75b8:	6f 5d 5e 
    75bb:	c7 85 b8 f9 ff ff 01 	movl   $0x1,-0x648(%rbp)
    75c2:	00 00 00 
    75c5:	c7 85 94 f9 ff ff fd 	movl   $0xfffffffd,-0x66c(%rbp)
    75cc:	ff ff ff 
    75cf:	66 c7 85 0a f9 ff ff 	movw   $0xfff7,-0x6f6(%rbp)
    75d6:	f7 ff 
    75d8:	c6 85 02 f9 ff ff 1d 	movb   $0x1d,-0x6fe(%rbp)
    75df:	c7 85 2c f9 ff ff 00 	movl   $0x0,-0x6d4(%rbp)
    75e6:	00 00 00 
    75e9:	eb 14                	jmp    75ff <func_2+0xb90>
    75eb:	8b 85 2c f9 ff ff    	mov    -0x6d4(%rbp),%eax
    75f1:	48 98                	cltq   
    75f3:	c6 44 05 c3 84       	movb   $0x84,-0x3d(%rbp,%rax,1)
    75f8:	83 85 2c f9 ff ff 01 	addl   $0x1,-0x6d4(%rbp)
    75ff:	83 bd 2c f9 ff ff 04 	cmpl   $0x4,-0x6d4(%rbp)
    7606:	7e e3                	jle    75eb <func_2+0xb7c>
    7608:	c7 05 6e 4a 01 00 00 	movl   $0x0,0x14a6e(%rip)        # 1c080 <g_252>
    760f:	00 00 00 
    7612:	90                   	nop
    7613:	8b 05 67 4a 01 00    	mov    0x14a67(%rip),%eax        # 1c080 <g_252>
    7619:	83 f8 05             	cmp    $0x5,%eax
    761c:	0f 87 08 02 00 00    	ja     782a <func_2+0xdbb>
    7622:	48 8d 05 0b 4a 01 00 	lea    0x14a0b(%rip),%rax        # 1c034 <g_21>
    7629:	48 89 85 10 fb ff ff 	mov    %rax,-0x4f0(%rbp)
    7630:	8b 85 50 fb ff ff    	mov    -0x4b0(%rbp),%eax
    7636:	98                   	cwtl   
    7637:	be 0f 00 00 00       	mov    $0xf,%esi
    763c:	89 c7                	mov    %eax,%edi
    763e:	e8 4f de ff ff       	callq  5492 <safe_lshift_func_int16_t_s_s>
    7643:	48 0f bf c0          	movswq %ax,%rax
    7647:	48 89 c6             	mov    %rax,%rsi
    764a:	48 c7 c7 fd ff ff ff 	mov    $0xfffffffffffffffd,%rdi
    7651:	e8 52 e2 ff ff       	callq  58a8 <safe_sub_func_int64_t_s_s>
    7656:	8b 95 e0 f8 ff ff    	mov    -0x720(%rbp),%edx
    765c:	48 31 d0             	xor    %rdx,%rax
    765f:	89 c2                	mov    %eax,%edx
    7661:	8b 85 14 f9 ff ff    	mov    -0x6ec(%rbp),%eax
    7667:	21 d0                	and    %edx,%eax
    7669:	89 85 14 f9 ff ff    	mov    %eax,-0x6ec(%rbp)
    766f:	8b 85 14 f9 ff ff    	mov    -0x6ec(%rbp),%eax
    7675:	89 c2                	mov    %eax,%edx
    7677:	48 8b 85 e8 f8 ff ff 	mov    -0x718(%rbp),%rax
    767e:	8b 00                	mov    (%rax),%eax
    7680:	09 c2                	or     %eax,%edx
    7682:	48 8b 05 47 7f 01 00 	mov    0x17f47(%rip),%rax        # 1f5d0 <g_637>
    7689:	66 89 10             	mov    %dx,(%rax)
    768c:	8b 85 58 fb ff ff    	mov    -0x4a8(%rbp),%eax
    7692:	83 f8 01             	cmp    $0x1,%eax
    7695:	0f 95 c0             	setne  %al
    7698:	0f b6 c0             	movzbl %al,%eax
    769b:	8b 95 80 f9 ff ff    	mov    -0x680(%rbp),%edx
    76a1:	89 d6                	mov    %edx,%esi
    76a3:	89 c7                	mov    %eax,%edi
    76a5:	e8 f7 db ff ff       	callq  52a1 <safe_lshift_func_int8_t_s_s>
    76aa:	3c 01                	cmp    $0x1,%al
    76ac:	0f 96 c0             	setbe  %al
    76af:	0f b6 d0             	movzbl %al,%edx
    76b2:	48 8b 85 10 fb ff ff 	mov    -0x4f0(%rbp),%rax
    76b9:	8b 00                	mov    (%rax),%eax
    76bb:	21 c2                	and    %eax,%edx
    76bd:	48 8b 85 10 fb ff ff 	mov    -0x4f0(%rbp),%rax
    76c4:	89 10                	mov    %edx,(%rax)
    76c6:	48 8b 85 10 fb ff ff 	mov    -0x4f0(%rbp),%rax
    76cd:	8b 18                	mov    (%rax),%ebx
    76cf:	44 0f b6 a5 00 f9 ff 	movzbl -0x700(%rbp),%r12d
    76d6:	ff 
    76d7:	48 8b 05 ea 72 01 00 	mov    0x172ea(%rip),%rax        # 1e9c8 <g_217>
    76de:	48 8b 00             	mov    (%rax),%rax
    76e1:	41 89 c6             	mov    %eax,%r14d
    76e4:	48 8b 05 d5 7f 01 00 	mov    0x17fd5(%rip),%rax        # 1f6c0 <g_1057>
    76eb:	0f b6 00             	movzbl (%rax),%eax
    76ee:	44 0f b6 e8          	movzbl %al,%r13d
    76f2:	be f8 ff ff ff       	mov    $0xfffffff8,%esi
    76f7:	bf 5c fd ff ff       	mov    $0xfffffd5c,%edi
    76fc:	e8 f4 dc ff ff       	callq  53f5 <safe_mul_func_int16_t_s_s>
    7701:	48 8b 05 90 7f 01 00 	mov    0x17f90(%rip),%rax        # 1f698 <g_884>
    7708:	48 8b 00             	mov    (%rax),%rax
    770b:	c7 00 00 00 00 00    	movl   $0x0,(%rax)
    7711:	8b 85 58 fb ff ff    	mov    -0x4a8(%rbp),%eax
    7717:	89 c6                	mov    %eax,%esi
    7719:	bf 01 00 00 00       	mov    $0x1,%edi
    771e:	e8 07 de ff ff       	callq  552a <safe_rshift_func_int16_t_s_s>
    7723:	0f bf d0             	movswl %ax,%edx
    7726:	8b 85 48 fb ff ff    	mov    -0x4b8(%rbp),%eax
    772c:	39 c2                	cmp    %eax,%edx
    772e:	0f 9e c0             	setle  %al
    7731:	0f b6 c0             	movzbl %al,%eax
    7734:	44 89 ee             	mov    %r13d,%esi
    7737:	89 c7                	mov    %eax,%edi
    7739:	e8 b0 db ff ff       	callq  52ee <safe_lshift_func_int8_t_s_u>
    773e:	0f be c0             	movsbl %al,%eax
    7741:	39 85 e4 f8 ff ff    	cmp    %eax,-0x71c(%rbp)
    7747:	0f 95 c0             	setne  %al
    774a:	0f b6 d0             	movzbl %al,%edx
    774d:	48 8b 05 7c 72 01 00 	mov    0x1727c(%rip),%rax        # 1e9d0 <g_274>
    7754:	48 8b 00             	mov    (%rax),%rax
    7757:	48 39 c2             	cmp    %rax,%rdx
    775a:	0f 95 c0             	setne  %al
    775d:	0f b6 d0             	movzbl %al,%edx
    7760:	0f b6 45 c4          	movzbl -0x3c(%rbp),%eax
    7764:	0f b6 c0             	movzbl %al,%eax
    7767:	39 c2                	cmp    %eax,%edx
    7769:	0f 95 c0             	setne  %al
    776c:	44 21 f0             	and    %r14d,%eax
    776f:	0f be c0             	movsbl %al,%eax
    7772:	44 89 e6             	mov    %r12d,%esi
    7775:	89 c7                	mov    %eax,%edi
    7777:	e8 25 db ff ff       	callq  52a1 <safe_lshift_func_int8_t_s_s>
    777c:	0f be c0             	movsbl %al,%eax
    777f:	89 de                	mov    %ebx,%esi
    7781:	89 c7                	mov    %eax,%edi
    7783:	e8 a2 dd ff ff       	callq  552a <safe_rshift_func_int16_t_s_s>
    7788:	0f bf d0             	movswl %ax,%edx
    778b:	0f b6 45 c6          	movzbl -0x3a(%rbp),%eax
    778f:	0f b6 c0             	movzbl %al,%eax
    7792:	89 d6                	mov    %edx,%esi
    7794:	89 c7                	mov    %eax,%edi
    7796:	e8 6b e6 ff ff       	callq  5e06 <safe_lshift_func_uint16_t_u_u>
    779b:	83 c8 01             	or     $0x1,%eax
    779e:	0f b7 d0             	movzwl %ax,%edx
    77a1:	8b 85 dc f8 ff ff    	mov    -0x724(%rbp),%eax
    77a7:	48 39 c2             	cmp    %rax,%rdx
    77aa:	0f 9c c0             	setl   %al
    77ad:	0f b6 c0             	movzbl %al,%eax
    77b0:	8b 95 e4 f8 ff ff    	mov    -0x71c(%rbp),%edx
    77b6:	89 d6                	mov    %edx,%esi
    77b8:	89 c7                	mov    %eax,%edi
    77ba:	e8 46 e4 ff ff       	callq  5c05 <safe_lshift_func_uint8_t_u_s>
    77bf:	0f b6 c0             	movzbl %al,%eax
    77c2:	be 01 00 00 00       	mov    $0x1,%esi
    77c7:	89 c7                	mov    %eax,%edi
    77c9:	e8 48 dc ff ff       	callq  5416 <safe_mod_func_int16_t_s_s>
    77ce:	0f bf d0             	movswl %ax,%edx
    77d1:	8b 85 58 fb ff ff    	mov    -0x4a8(%rbp),%eax
    77d7:	39 c2                	cmp    %eax,%edx
    77d9:	0f 9d c0             	setge  %al
    77dc:	0f b6 c0             	movzbl %al,%eax
    77df:	be 00 00 00 00       	mov    $0x0,%esi
    77e4:	89 c7                	mov    %eax,%edi
    77e6:	e8 4a db ff ff       	callq  5335 <safe_rshift_func_int8_t_s_s>
    77eb:	84 c0                	test   %al,%al
    77ed:	74 0c                	je     77fb <func_2+0xd8c>
    77ef:	48 8b 85 10 fb ff ff 	mov    -0x4f0(%rbp),%rax
    77f6:	e9 f0 0f 00 00       	jmpq   87eb <func_2+0x1d7c>
    77fb:	48 8d 05 3a 48 01 00 	lea    0x1483a(%rip),%rax        # 1c03c <g_58>
    7802:	48 89 85 18 fb ff ff 	mov    %rax,-0x4e8(%rbp)
    7809:	48 8b 05 e0 7f 01 00 	mov    0x17fe0(%rip),%rax        # 1f7f0 <g_1677>
    7810:	48 8b 00             	mov    (%rax),%rax
    7813:	8b 10                	mov    (%rax),%edx
    7815:	48 8b 85 e8 f9 ff ff 	mov    -0x618(%rbp),%rax
    781c:	89 10                	mov    %edx,(%rax)
    781e:	48 8b 85 18 fb ff ff 	mov    -0x4e8(%rbp),%rax
    7825:	e9 c1 0f 00 00       	jmpq   87eb <func_2+0x1d7c>
    782a:	8b 85 e0 f8 ff ff    	mov    -0x720(%rbp),%eax
    7830:	83 c8 01             	or     $0x1,%eax
    7833:	89 c2                	mov    %eax,%edx
    7835:	48 8b 85 c0 fa ff ff 	mov    -0x540(%rbp),%rax
    783c:	88 10                	mov    %dl,(%rax)
    783e:	48 8b 85 c0 fa ff ff 	mov    -0x540(%rbp),%rax
    7845:	0f b6 00             	movzbl (%rax),%eax
    7848:	0f b6 d8             	movzbl %al,%ebx
    784b:	8b 85 e0 fb ff ff    	mov    -0x420(%rbp),%eax
    7851:	23 85 dc f8 ff ff    	and    -0x724(%rbp),%eax
    7857:	89 85 e0 fb ff ff    	mov    %eax,-0x420(%rbp)
    785d:	8b 95 e0 fb ff ff    	mov    -0x420(%rbp),%edx
    7863:	83 bd dc f8 ff ff 2e 	cmpl   $0x2e,-0x724(%rbp)
    786a:	0f 95 c0             	setne  %al
    786d:	0f b6 c0             	movzbl %al,%eax
    7870:	39 c2                	cmp    %eax,%edx
    7872:	0f 95 c2             	setne  %dl
    7875:	48 8b 85 e8 f9 ff ff 	mov    -0x618(%rbp),%rax
    787c:	8b 00                	mov    (%rax),%eax
    787e:	39 85 90 f9 ff ff    	cmp    %eax,-0x670(%rbp)
    7884:	0f 96 c0             	setbe  %al
    7887:	31 d0                	xor    %edx,%eax
    7889:	0f b6 d0             	movzbl %al,%edx
    788c:	8b 85 e4 f8 ff ff    	mov    -0x71c(%rbp),%eax
    7892:	0f b6 c0             	movzbl %al,%eax
    7895:	89 d6                	mov    %edx,%esi
    7897:	89 c7                	mov    %eax,%edi
    7899:	e8 f5 e2 ff ff       	callq  5b93 <safe_mul_func_uint8_t_u_u>
    789e:	0f b6 c0             	movzbl %al,%eax
    78a1:	48 35 fc ff 00 00    	xor    $0xfffc,%rax
    78a7:	48 39 c3             	cmp    %rax,%rbx
    78aa:	48 8b 85 e8 f8 ff ff 	mov    -0x718(%rbp),%rax
    78b1:	8b 10                	mov    (%rax),%edx
    78b3:	8b 85 b8 f9 ff ff    	mov    -0x648(%rbp),%eax
    78b9:	21 d0                	and    %edx,%eax
    78bb:	89 85 b8 f9 ff ff    	mov    %eax,-0x648(%rbp)
    78c1:	c7 05 65 4d 01 00 05 	movl   $0x5,0x14d65(%rip)        # 1c630 <g_1048>
    78c8:	00 00 00 
    78cb:	e9 42 02 00 00       	jmpq   7b12 <func_2+0x10a3>
    78d0:	c7 85 30 fc ff ff 57 	movl   $0xe5ac4157,-0x3d0(%rbp)
    78d7:	41 ac e5 
    78da:	c7 85 34 fc ff ff 55 	movl   $0x9a763955,-0x3cc(%rbp)
    78e1:	39 76 9a 
    78e4:	c7 85 38 fc ff ff 55 	movl   $0x9a763955,-0x3c8(%rbp)
    78eb:	39 76 9a 
    78ee:	c7 85 3c fc ff ff 57 	movl   $0xe5ac4157,-0x3c4(%rbp)
    78f5:	41 ac e5 
    78f8:	c7 85 40 fc ff ff 09 	movl   $0xe5cdf09,-0x3c0(%rbp)
    78ff:	df 5c 0e 
    7902:	c7 85 44 fc ff ff 57 	movl   $0xe5ac4157,-0x3bc(%rbp)
    7909:	41 ac e5 
    790c:	c7 85 48 fc ff ff 55 	movl   $0x9a763955,-0x3b8(%rbp)
    7913:	39 76 9a 
    7916:	c7 85 4c fc ff ff 51 	movl   $0xe0713f51,-0x3b4(%rbp)
    791d:	3f 71 e0 
    7920:	c7 85 50 fc ff ff 51 	movl   $0xe0713f51,-0x3b0(%rbp)
    7927:	3f 71 e0 
    792a:	c7 85 54 fc ff ff 09 	movl   $0x9,-0x3ac(%rbp)
    7931:	00 00 00 
    7934:	c7 85 58 fc ff ff fb 	movl   $0xfffffffb,-0x3a8(%rbp)
    793b:	ff ff ff 
    793e:	c7 85 5c fc ff ff 09 	movl   $0x9,-0x3a4(%rbp)
    7945:	00 00 00 
    7948:	c7 85 60 fc ff ff 51 	movl   $0xe0713f51,-0x3a0(%rbp)
    794f:	3f 71 e0 
    7952:	c7 85 64 fc ff ff 51 	movl   $0xe0713f51,-0x39c(%rbp)
    7959:	3f 71 e0 
    795c:	c7 85 68 fc ff ff d9 	movl   $0x7171a2d9,-0x398(%rbp)
    7963:	a2 71 71 
    7966:	c7 85 6c fc ff ff 55 	movl   $0x9a763955,-0x394(%rbp)
    796d:	39 76 9a 
    7970:	c7 85 70 fc ff ff 05 	movl   $0x5,-0x390(%rbp)
    7977:	00 00 00 
    797a:	c7 85 74 fc ff ff 55 	movl   $0x9a763955,-0x38c(%rbp)
    7981:	39 76 9a 
    7984:	c7 85 78 fc ff ff d9 	movl   $0x7171a2d9,-0x388(%rbp)
    798b:	a2 71 71 
    798e:	c7 85 7c fc ff ff d9 	movl   $0x7171a2d9,-0x384(%rbp)
    7995:	a2 71 71 
    7998:	c7 85 80 fc ff ff 55 	movl   $0x9a763955,-0x380(%rbp)
    799f:	39 76 9a 
    79a2:	c7 85 70 fb ff ff fb 	movl   $0xfffffffb,-0x490(%rbp)
    79a9:	ff ff ff 
    79ac:	c7 85 74 fb ff ff fb 	movl   $0xfffffffb,-0x48c(%rbp)
    79b3:	ff ff ff 
    79b6:	c7 85 78 fb ff ff fb 	movl   $0xfffffffb,-0x488(%rbp)
    79bd:	ff ff ff 
    79c0:	c7 85 7c fb ff ff fb 	movl   $0xfffffffb,-0x484(%rbp)
    79c7:	ff ff ff 
    79ca:	c7 85 80 fb ff ff fb 	movl   $0xfffffffb,-0x480(%rbp)
    79d1:	ff ff ff 
    79d4:	c7 85 84 fb ff ff fb 	movl   $0xfffffffb,-0x47c(%rbp)
    79db:	ff ff ff 
    79de:	c7 85 88 fb ff ff fb 	movl   $0xfffffffb,-0x478(%rbp)
    79e5:	ff ff ff 
    79e8:	c7 85 8c fb ff ff fb 	movl   $0xfffffffb,-0x474(%rbp)
    79ef:	ff ff ff 
    79f2:	c7 85 90 fb ff ff fb 	movl   $0xfffffffb,-0x470(%rbp)
    79f9:	ff ff ff 
    79fc:	c7 85 30 f9 ff ff 45 	movl   $0x62944a45,-0x6d0(%rbp)
    7a03:	4a 94 62 
    7a06:	8b 85 e4 f8 ff ff    	mov    -0x71c(%rbp),%eax
    7a0c:	0f b6 c0             	movzbl %al,%eax
    7a0f:	be 07 00 00 00       	mov    $0x7,%esi
    7a14:	89 c7                	mov    %eax,%edi
    7a16:	e8 72 e2 ff ff       	callq  5c8d <safe_rshift_func_uint8_t_u_s>
    7a1b:	0f b6 d0             	movzbl %al,%edx
    7a1e:	48 8b 85 e8 f9 ff ff 	mov    -0x618(%rbp),%rax
    7a25:	89 10                	mov    %edx,(%rax)
    7a27:	c6 05 bc 49 01 00 00 	movb   $0x0,0x149bc(%rip)        # 1c3ea <g_330>
    7a2e:	e9 c1 00 00 00       	jmpq   7af4 <func_2+0x1085>
    7a33:	c7 85 c0 f9 ff ff f0 	movl   $0xab4624f0,-0x640(%rbp)
    7a3a:	24 46 ab 
    7a3d:	48 8d 85 c0 f9 ff ff 	lea    -0x640(%rbp),%rax
    7a44:	48 89 85 08 fb ff ff 	mov    %rax,-0x4f8(%rbp)
    7a4b:	48 c7 85 a0 fb ff ff 	movq   $0x0,-0x460(%rbp)
    7a52:	00 00 00 00 
    7a56:	48 c7 85 a8 fb ff ff 	movq   $0x0,-0x458(%rbp)
    7a5d:	00 00 00 00 
    7a61:	48 c7 85 b0 fb ff ff 	movq   $0x0,-0x450(%rbp)
    7a68:	00 00 00 00 
    7a6c:	48 c7 85 b8 fb ff ff 	movq   $0x0,-0x448(%rbp)
    7a73:	00 00 00 00 
    7a77:	48 c7 85 c0 fb ff ff 	movq   $0x0,-0x440(%rbp)
    7a7e:	00 00 00 00 
    7a82:	48 c7 85 c8 fb ff ff 	movq   $0x0,-0x438(%rbp)
    7a89:	00 00 00 00 
    7a8d:	48 c7 85 d0 fb ff ff 	movq   $0x0,-0x430(%rbp)
    7a94:	00 00 00 00 
    7a98:	48 c7 85 d8 fb ff ff 	movq   $0x0,-0x428(%rbp)
    7a9f:	00 00 00 00 
    7aa3:	c7 85 a0 f9 ff ff 95 	movl   $0xb3691595,-0x660(%rbp)
    7aaa:	15 69 b3 
    7aad:	c7 85 34 f9 ff ff 00 	movl   $0x0,-0x6cc(%rbp)
    7ab4:	00 00 00 
    7ab7:	eb 14                	jmp    7acd <func_2+0x105e>
    7ab9:	8b 85 34 f9 ff ff    	mov    -0x6cc(%rbp),%eax
    7abf:	48 98                	cltq   
    7ac1:	c6 44 05 c2 e5       	movb   $0xe5,-0x3e(%rbp,%rax,1)
    7ac6:	83 85 34 f9 ff ff 01 	addl   $0x1,-0x6cc(%rbp)
    7acd:	83 bd 34 f9 ff ff 00 	cmpl   $0x0,-0x6cc(%rbp)
    7ad4:	7e e3                	jle    7ab9 <func_2+0x104a>
    7ad6:	83 85 30 f9 ff ff 01 	addl   $0x1,-0x6d0(%rbp)
    7add:	83 ad a0 f9 ff ff 01 	subl   $0x1,-0x660(%rbp)
    7ae4:	0f b6 05 ff 48 01 00 	movzbl 0x148ff(%rip),%eax        # 1c3ea <g_330>
    7aeb:	83 c0 01             	add    $0x1,%eax
    7aee:	88 05 f6 48 01 00    	mov    %al,0x148f6(%rip)        # 1c3ea <g_330>
    7af4:	0f b6 05 ef 48 01 00 	movzbl 0x148ef(%rip),%eax        # 1c3ea <g_330>
    7afb:	3c 05                	cmp    $0x5,%al
    7afd:	0f 86 30 ff ff ff    	jbe    7a33 <func_2+0xfc4>
    7b03:	8b 05 27 4b 01 00    	mov    0x14b27(%rip),%eax        # 1c630 <g_1048>
    7b09:	83 e8 01             	sub    $0x1,%eax
    7b0c:	89 05 1e 4b 01 00    	mov    %eax,0x14b1e(%rip)        # 1c630 <g_1048>
    7b12:	8b 05 18 4b 01 00    	mov    0x14b18(%rip),%eax        # 1c630 <g_1048>
    7b18:	85 c0                	test   %eax,%eax
    7b1a:	0f 89 b0 fd ff ff    	jns    78d0 <func_2+0xe61>
    7b20:	48 c7 05 ed 54 01 00 	movq   $0x0,0x154ed(%rip)        # 1d018 <g_1164>
    7b27:	00 00 00 00 
    7b2b:	e9 8b 03 00 00       	jmpq   7ebb <func_2+0x144c>
    7b30:	48 b8 53 23 ff 04 71 	movabs $0x800e8f7104ff2353,%rax
    7b37:	8f 0e 80 
    7b3a:	48 89 85 c8 fa ff ff 	mov    %rax,-0x538(%rbp)
    7b41:	c7 85 98 f9 ff ff 6e 	movl   $0x1d2cdc6e,-0x668(%rbp)
    7b48:	dc 2c 1d 
    7b4b:	c7 85 38 f9 ff ff 00 	movl   $0x0,-0x6c8(%rbp)
    7b52:	00 00 00 
    7b55:	eb 1b                	jmp    7b72 <func_2+0x1103>
    7b57:	8b 85 38 f9 ff ff    	mov    -0x6c8(%rbp),%eax
    7b5d:	48 98                	cltq   
    7b5f:	48 c7 84 c5 70 fb ff 	movq   $0x0,-0x490(%rbp,%rax,8)
    7b66:	ff 00 00 00 00 
    7b6b:	83 85 38 f9 ff ff 01 	addl   $0x1,-0x6c8(%rbp)
    7b72:	83 bd 38 f9 ff ff 04 	cmpl   $0x4,-0x6c8(%rbp)
    7b79:	7e dc                	jle    7b57 <func_2+0x10e8>
    7b7b:	c7 85 38 f9 ff ff 00 	movl   $0x0,-0x6c8(%rbp)
    7b82:	00 00 00 
    7b85:	eb 1a                	jmp    7ba1 <func_2+0x1132>
    7b87:	8b 85 38 f9 ff ff    	mov    -0x6c8(%rbp),%eax
    7b8d:	48 98                	cltq   
    7b8f:	c7 84 85 a0 fb ff ff 	movl   $0xffffffff,-0x460(%rbp,%rax,4)
    7b96:	ff ff ff ff 
    7b9a:	83 85 38 f9 ff ff 01 	addl   $0x1,-0x6c8(%rbp)
    7ba1:	83 bd 38 f9 ff ff 09 	cmpl   $0x9,-0x6c8(%rbp)
    7ba8:	7e dd                	jle    7b87 <func_2+0x1118>
    7baa:	c6 85 00 f9 ff ff 00 	movb   $0x0,-0x700(%rbp)
    7bb1:	e9 34 01 00 00       	jmpq   7cea <func_2+0x127b>
    7bb6:	c7 85 c0 f9 ff ff e0 	movl   $0x28c40fe0,-0x640(%rbp)
    7bbd:	0f c4 28 
    7bc0:	c7 85 9c f9 ff ff ce 	movl   $0xb985e9ce,-0x664(%rbp)
    7bc7:	e9 85 b9 
    7bca:	48 8d 85 a0 fb ff ff 	lea    -0x460(%rbp),%rax
    7bd1:	48 83 c0 14          	add    $0x14,%rax
    7bd5:	48 89 85 e8 fa ff ff 	mov    %rax,-0x518(%rbp)
    7bdc:	48 8d 05 51 44 01 00 	lea    0x14451(%rip),%rax        # 1c034 <g_21>
    7be3:	48 89 85 f0 fa ff ff 	mov    %rax,-0x510(%rbp)
    7bea:	48 8d 85 a0 fb ff ff 	lea    -0x460(%rbp),%rax
    7bf1:	48 83 c0 14          	add    $0x14,%rax
    7bf5:	48 89 85 f8 fa ff ff 	mov    %rax,-0x508(%rbp)
    7bfc:	48 8d 85 c0 f9 ff ff 	lea    -0x640(%rbp),%rax
    7c03:	48 89 85 00 fb ff ff 	mov    %rax,-0x500(%rbp)
    7c0a:	c7 85 3c f9 ff ff 00 	movl   $0x0,-0x6c4(%rbp)
    7c11:	00 00 00 
    7c14:	eb 4a                	jmp    7c60 <func_2+0x11f1>
    7c16:	c7 85 40 f9 ff ff 00 	movl   $0x0,-0x6c0(%rbp)
    7c1d:	00 00 00 
    7c20:	eb 2e                	jmp    7c50 <func_2+0x11e1>
    7c22:	8b 85 40 f9 ff ff    	mov    -0x6c0(%rbp),%eax
    7c28:	48 98                	cltq   
    7c2a:	8b 95 3c f9 ff ff    	mov    -0x6c4(%rbp),%edx
    7c30:	48 63 d2             	movslq %edx,%rdx
    7c33:	48 c1 e2 02          	shl    $0x2,%rdx
    7c37:	48 01 c2             	add    %rax,%rdx
    7c3a:	48 8d 85 b8 f9 ff ff 	lea    -0x648(%rbp),%rax
    7c41:	48 89 84 d5 30 fc ff 	mov    %rax,-0x3d0(%rbp,%rdx,8)
    7c48:	ff 
    7c49:	83 85 40 f9 ff ff 01 	addl   $0x1,-0x6c0(%rbp)
    7c50:	83 bd 40 f9 ff ff 03 	cmpl   $0x3,-0x6c0(%rbp)
    7c57:	7e c9                	jle    7c22 <func_2+0x11b3>
    7c59:	83 85 3c f9 ff ff 01 	addl   $0x1,-0x6c4(%rbp)
    7c60:	83 bd 3c f9 ff ff 01 	cmpl   $0x1,-0x6c4(%rbp)
    7c67:	7e ad                	jle    7c16 <func_2+0x11a7>
    7c69:	48 8b 85 d8 f9 ff ff 	mov    -0x628(%rbp),%rax
    7c70:	8b 00                	mov    (%rax),%eax
    7c72:	89 c7                	mov    %eax,%edi
    7c74:	0f b6 95 00 f9 ff ff 	movzbl -0x700(%rbp),%edx
    7c7b:	0f b6 85 00 f9 ff ff 	movzbl -0x700(%rbp),%eax
    7c82:	48 8b 35 8f 53 01 00 	mov    0x1538f(%rip),%rsi        # 1d018 <g_1164>
    7c89:	48 98                	cltq   
    7c8b:	48 63 ca             	movslq %edx,%rcx
    7c8e:	48 89 c2             	mov    %rax,%rdx
    7c91:	48 c1 e2 03          	shl    $0x3,%rdx
    7c95:	48 29 c2             	sub    %rax,%rdx
    7c98:	48 89 c8             	mov    %rcx,%rax
    7c9b:	48 c1 e0 03          	shl    $0x3,%rax
    7c9f:	48 29 c8             	sub    %rcx,%rax
    7ca2:	48 01 c0             	add    %rax,%rax
    7ca5:	48 01 d0             	add    %rdx,%rax
    7ca8:	48 01 f0             	add    %rsi,%rax
    7cab:	48 8d 14 c5 00 00 00 	lea    0x0(,%rax,8),%rdx
    7cb2:	00 
    7cb3:	48 8d 05 86 48 01 00 	lea    0x14886(%rip),%rax        # 1c540 <g_1009>
    7cba:	48 8b 04 02          	mov    (%rdx,%rax,1),%rax
    7cbe:	09 f8                	or     %edi,%eax
    7cc0:	89 c2                	mov    %eax,%edx
    7cc2:	48 8b 85 d8 f9 ff ff 	mov    -0x628(%rbp),%rax
    7cc9:	89 10                	mov    %edx,(%rax)
    7ccb:	48 8b 05 be 7f 01 00 	mov    0x17fbe(%rip),%rax        # 1fc90 <g_2336>
    7cd2:	48 8b 95 78 fb ff ff 	mov    -0x488(%rbp),%rdx
    7cd9:	48 89 10             	mov    %rdx,(%rax)
    7cdc:	80 85 ff f8 ff ff 01 	addb   $0x1,-0x701(%rbp)
    7ce3:	80 85 00 f9 ff ff 01 	addb   $0x1,-0x700(%rbp)
    7cea:	80 bd 00 f9 ff ff 01 	cmpb   $0x1,-0x700(%rbp)
    7cf1:	0f 86 bf fe ff ff    	jbe    7bb6 <func_2+0x1147>
    7cf7:	c7 05 33 43 01 00 04 	movl   $0x4,0x14333(%rip)        # 1c034 <g_21>
    7cfe:	00 00 00 
    7d01:	e9 92 01 00 00       	jmpq   7e98 <func_2+0x1429>
    7d06:	48 8d 85 a8 f9 ff ff 	lea    -0x658(%rbp),%rax
    7d0d:	48 89 85 d0 fa ff ff 	mov    %rax,-0x530(%rbp)
    7d14:	48 8d 05 e5 7a 01 00 	lea    0x17ae5(%rip),%rax        # 1f800 <g_1783>
    7d1b:	48 89 85 d8 fa ff ff 	mov    %rax,-0x528(%rbp)
    7d22:	48 8d 85 b8 f9 ff ff 	lea    -0x648(%rbp),%rax
    7d29:	48 89 85 e0 fa ff ff 	mov    %rax,-0x520(%rbp)
    7d30:	48 8d 85 1c f9 ff ff 	lea    -0x6e4(%rbp),%rax
    7d37:	48 89 85 30 fc ff ff 	mov    %rax,-0x3d0(%rbp)
    7d3e:	48 8d 85 1c f9 ff ff 	lea    -0x6e4(%rbp),%rax
    7d45:	48 89 85 38 fc ff ff 	mov    %rax,-0x3c8(%rbp)
    7d4c:	48 8d 85 1c f9 ff ff 	lea    -0x6e4(%rbp),%rax
    7d53:	48 89 85 40 fc ff ff 	mov    %rax,-0x3c0(%rbp)
    7d5a:	48 8d 85 1c f9 ff ff 	lea    -0x6e4(%rbp),%rax
    7d61:	48 89 85 48 fc ff ff 	mov    %rax,-0x3b8(%rbp)
    7d68:	48 8d 85 1c f9 ff ff 	lea    -0x6e4(%rbp),%rax
    7d6f:	48 89 85 50 fc ff ff 	mov    %rax,-0x3b0(%rbp)
    7d76:	8b 85 ac fb ff ff    	mov    -0x454(%rbp),%eax
    7d7c:	34 a4                	xor    $0xa4,%al
    7d7e:	89 c2                	mov    %eax,%edx
    7d80:	48 8b 05 49 6c 01 00 	mov    0x16c49(%rip),%rax        # 1e9d0 <g_274>
    7d87:	48 63 d2             	movslq %edx,%rdx
    7d8a:	48 89 10             	mov    %rdx,(%rax)
    7d8d:	48 8b 00             	mov    (%rax),%rax
    7d90:	48 89 c3             	mov    %rax,%rbx
    7d93:	48 8b 05 3e 6c 01 00 	mov    0x16c3e(%rip),%rax        # 1e9d8 <g_402>
    7d9a:	0f b6 00             	movzbl (%rax),%eax
    7d9d:	0f be c0             	movsbl %al,%eax
    7da0:	be 00 00 00 00       	mov    $0x0,%esi
    7da5:	89 c7                	mov    %eax,%edi
    7da7:	e8 42 d5 ff ff       	callq  52ee <safe_lshift_func_int8_t_s_u>
    7dac:	48 0f be d0          	movsbq %al,%rdx
    7db0:	48 8b 85 d0 fa ff ff 	mov    -0x530(%rbp),%rax
    7db7:	48 89 10             	mov    %rdx,(%rax)
    7dba:	48 8b 85 d0 fa ff ff 	mov    -0x530(%rbp),%rax
    7dc1:	48 8b 00             	mov    (%rax),%rax
    7dc4:	48 89 c2             	mov    %rax,%rdx
    7dc7:	48 8b 85 e8 f9 ff ff 	mov    -0x618(%rbp),%rax
    7dce:	8b 00                	mov    (%rax),%eax
    7dd0:	48 98                	cltq   
    7dd2:	48 89 d6             	mov    %rdx,%rsi
    7dd5:	48 89 c7             	mov    %rax,%rdi
    7dd8:	e8 6e e2 ff ff       	callq  604b <safe_sub_func_uint64_t_u_u>
    7ddd:	48 39 c3             	cmp    %rax,%rbx
    7de0:	0f 97 c0             	seta   %al
    7de3:	0f b6 d8             	movzbl %al,%ebx
    7de6:	8b 05 d0 13 01 00    	mov    0x113d0(%rip),%eax        # 191bc <l_2361.4199+0x1c>
    7dec:	0f b6 c0             	movzbl %al,%eax
    7def:	be 00 00 00 00       	mov    $0x0,%esi
    7df4:	89 c7                	mov    %eax,%edi
    7df6:	e8 92 de ff ff       	callq  5c8d <safe_rshift_func_uint8_t_u_s>
    7dfb:	89 c2                	mov    %eax,%edx
    7dfd:	48 8b 05 54 79 01 00 	mov    0x17954(%rip),%rax        # 1f758 <g_1361>
    7e04:	48 8b 00             	mov    (%rax),%rax
    7e07:	0f b6 d2             	movzbl %dl,%edx
    7e0a:	66 89 10             	mov    %dx,(%rax)
    7e0d:	0f b7 00             	movzwl (%rax),%eax
    7e10:	44 0f bf e0          	movswl %ax,%r12d
    7e14:	48 8b 85 d8 f9 ff ff 	mov    -0x628(%rbp),%rax
    7e1b:	8b 00                	mov    (%rax),%eax
    7e1d:	98                   	cwtl   
    7e1e:	be 04 00 00 00       	mov    $0x4,%esi
    7e23:	89 c7                	mov    %eax,%edi
    7e25:	e8 39 d7 ff ff       	callq  5563 <safe_rshift_func_int16_t_s_u>
    7e2a:	98                   	cwtl   
    7e2b:	44 89 e6             	mov    %r12d,%esi
    7e2e:	89 c7                	mov    %eax,%edi
    7e30:	e8 9e d5 ff ff       	callq  53d3 <safe_sub_func_int16_t_s_s>
    7e35:	48 0f bf c0          	movswq %ax,%rax
    7e39:	48 89 de             	mov    %rbx,%rsi
    7e3c:	48 89 c7             	mov    %rax,%rdi
    7e3f:	e8 ea e1 ff ff       	callq  602e <safe_add_func_uint64_t_u_u>
    7e44:	48 8d 05 b5 79 01 00 	lea    0x179b5(%rip),%rax        # 1f800 <g_1783>
    7e4b:	48 89 85 d8 fa ff ff 	mov    %rax,-0x528(%rbp)
    7e52:	48 8b 85 d8 f9 ff ff 	mov    -0x628(%rbp),%rax
    7e59:	c7 00 00 00 00 00    	movl   $0x0,(%rax)
    7e5f:	0f b6 85 02 f9 ff ff 	movzbl -0x6fe(%rbp),%eax
    7e66:	83 c0 01             	add    $0x1,%eax
    7e69:	88 85 02 f9 ff ff    	mov    %al,-0x6fe(%rbp)
    7e6f:	48 8b 85 e8 f8 ff ff 	mov    -0x718(%rbp),%rax
    7e76:	8b 00                	mov    (%rax),%eax
    7e78:	85 c0                	test   %eax,%eax
    7e7a:	75 2c                	jne    7ea8 <func_2+0x1439>
    7e7c:	48 8b 85 e8 f9 ff ff 	mov    -0x618(%rbp),%rax
    7e83:	c7 00 00 00 00 00    	movl   $0x0,(%rax)
    7e89:	8b 05 a5 41 01 00    	mov    0x141a5(%rip),%eax        # 1c034 <g_21>
    7e8f:	83 e8 01             	sub    $0x1,%eax
    7e92:	89 05 9c 41 01 00    	mov    %eax,0x1419c(%rip)        # 1c034 <g_21>
    7e98:	8b 05 96 41 01 00    	mov    0x14196(%rip),%eax        # 1c034 <g_21>
    7e9e:	85 c0                	test   %eax,%eax
    7ea0:	0f 8f 60 fe ff ff    	jg     7d06 <func_2+0x1297>
    7ea6:	eb 01                	jmp    7ea9 <func_2+0x143a>
    7ea8:	90                   	nop
    7ea9:	48 8b 05 68 51 01 00 	mov    0x15168(%rip),%rax        # 1d018 <g_1164>
    7eb0:	48 83 c0 01          	add    $0x1,%rax
    7eb4:	48 89 05 5d 51 01 00 	mov    %rax,0x1515d(%rip)        # 1d018 <g_1164>
    7ebb:	48 8b 05 56 51 01 00 	mov    0x15156(%rip),%rax        # 1d018 <g_1164>
    7ec2:	48 83 f8 05          	cmp    $0x5,%rax
    7ec6:	0f 86 64 fc ff ff    	jbe    7b30 <func_2+0x10c1>
    7ecc:	e9 0a 03 00 00       	jmpq   81db <func_2+0x176c>
    7ed1:	48 8d 85 48 fb ff ff 	lea    -0x4b8(%rbp),%rax
    7ed8:	48 89 85 58 fa ff ff 	mov    %rax,-0x5a8(%rbp)
    7edf:	48 8d 85 48 fb ff ff 	lea    -0x4b8(%rbp),%rax
    7ee6:	48 83 c0 04          	add    $0x4,%rax
    7eea:	48 89 85 60 fa ff ff 	mov    %rax,-0x5a0(%rbp)
    7ef1:	48 8d 05 40 41 01 00 	lea    0x14140(%rip),%rax        # 1c038 <g_53>
    7ef8:	48 89 85 68 fa ff ff 	mov    %rax,-0x598(%rbp)
    7eff:	48 8d 85 40 fd ff ff 	lea    -0x2c0(%rbp),%rax
    7f06:	48 05 8c 01 00 00    	add    $0x18c,%rax
    7f0c:	48 89 85 70 fa ff ff 	mov    %rax,-0x590(%rbp)
    7f13:	48 8d 85 48 fb ff ff 	lea    -0x4b8(%rbp),%rax
    7f1a:	48 89 85 78 fa ff ff 	mov    %rax,-0x588(%rbp)
    7f21:	48 c7 85 80 fa ff ff 	movq   $0x0,-0x580(%rbp)
    7f28:	00 00 00 00 
    7f2c:	48 c7 85 88 fa ff ff 	movq   $0x0,-0x578(%rbp)
    7f33:	00 00 00 00 
    7f37:	48 8d 85 18 f9 ff ff 	lea    -0x6e8(%rbp),%rax
    7f3e:	48 89 85 90 fa ff ff 	mov    %rax,-0x570(%rbp)
    7f45:	48 8d 05 e8 40 01 00 	lea    0x140e8(%rip),%rax        # 1c034 <g_21>
    7f4c:	48 89 85 98 fa ff ff 	mov    %rax,-0x568(%rbp)
    7f53:	48 c7 85 a0 fa ff ff 	movq   $0x0,-0x560(%rbp)
    7f5a:	00 00 00 00 
    7f5e:	48 8d 85 18 f9 ff ff 	lea    -0x6e8(%rbp),%rax
    7f65:	48 89 85 a8 fa ff ff 	mov    %rax,-0x558(%rbp)
    7f6c:	c7 85 30 fc ff ff 2d 	movl   $0xd675422d,-0x3d0(%rbp)
    7f73:	42 75 d6 
    7f76:	c7 85 34 fc ff ff 8d 	movl   $0x81dcce8d,-0x3cc(%rbp)
    7f7d:	ce dc 81 
    7f80:	c7 85 38 fc ff ff 02 	movl   $0x2,-0x3c8(%rbp)
    7f87:	00 00 00 
    7f8a:	c7 85 3c fc ff ff 02 	movl   $0x2,-0x3c4(%rbp)
    7f91:	00 00 00 
    7f94:	c7 85 40 fc ff ff 8d 	movl   $0x81dcce8d,-0x3c0(%rbp)
    7f9b:	ce dc 81 
    7f9e:	c7 85 44 fc ff ff 2d 	movl   $0xd675422d,-0x3bc(%rbp)
    7fa5:	42 75 d6 
    7fa8:	c7 85 48 fc ff ff 8d 	movl   $0x81dcce8d,-0x3b8(%rbp)
    7faf:	ce dc 81 
    7fb2:	c7 85 4c fc ff ff 02 	movl   $0x2,-0x3b4(%rbp)
    7fb9:	00 00 00 
    7fbc:	c7 85 50 fc ff ff 02 	movl   $0x2,-0x3b0(%rbp)
    7fc3:	00 00 00 
    7fc6:	c7 85 54 fc ff ff 07 	movl   $0x7,-0x3ac(%rbp)
    7fcd:	00 00 00 
    7fd0:	c7 85 58 fc ff ff 07 	movl   $0x7,-0x3a8(%rbp)
    7fd7:	00 00 00 
    7fda:	c7 85 5c fc ff ff 01 	movl   $0x1,-0x3a4(%rbp)
    7fe1:	00 00 00 
    7fe4:	c7 85 60 fc ff ff 09 	movl   $0x9,-0x3a0(%rbp)
    7feb:	00 00 00 
    7fee:	c7 85 64 fc ff ff 01 	movl   $0x1,-0x39c(%rbp)
    7ff5:	00 00 00 
    7ff8:	c7 85 68 fc ff ff 07 	movl   $0x7,-0x398(%rbp)
    7fff:	00 00 00 
    8002:	c7 85 6c fc ff ff 07 	movl   $0x7,-0x394(%rbp)
    8009:	00 00 00 
    800c:	c7 85 70 fc ff ff 01 	movl   $0x1,-0x390(%rbp)
    8013:	00 00 00 
    8016:	c7 85 74 fc ff ff 09 	movl   $0x9,-0x38c(%rbp)
    801d:	00 00 00 
    8020:	c7 85 78 fc ff ff 05 	movl   $0x9688ea05,-0x388(%rbp)
    8027:	ea 88 96 
    802a:	c7 85 7c fc ff ff 8d 	movl   $0x81dcce8d,-0x384(%rbp)
    8031:	ce dc 81 
    8034:	c7 85 80 fc ff ff 05 	movl   $0x9688ea05,-0x380(%rbp)
    803b:	ea 88 96 
    803e:	c7 85 84 fc ff ff 2d 	movl   $0xd675422d,-0x37c(%rbp)
    8045:	42 75 d6 
    8048:	c7 85 88 fc ff ff 2d 	movl   $0xd675422d,-0x378(%rbp)
    804f:	42 75 d6 
    8052:	c7 85 8c fc ff ff 05 	movl   $0x9688ea05,-0x374(%rbp)
    8059:	ea 88 96 
    805c:	c7 85 90 fc ff ff 8d 	movl   $0x81dcce8d,-0x370(%rbp)
    8063:	ce dc 81 
    8066:	c7 85 94 fc ff ff 05 	movl   $0x9688ea05,-0x36c(%rbp)
    806d:	ea 88 96 
    8070:	c7 85 98 fc ff ff 2d 	movl   $0xd675422d,-0x368(%rbp)
    8077:	42 75 d6 
    807a:	48 c7 85 b0 fa ff ff 	movq   $0x0,-0x550(%rbp)
    8081:	00 00 00 00 
    8085:	48 8d 85 40 fd ff ff 	lea    -0x2c0(%rbp),%rax
    808c:	48 05 d4 01 00 00    	add    $0x1d4,%rax
    8092:	48 89 85 b8 fa ff ff 	mov    %rax,-0x548(%rbp)
    8099:	c7 85 44 f9 ff ff 00 	movl   $0x0,-0x6bc(%rbp)
    80a0:	00 00 00 
    80a3:	eb 1b                	jmp    80c0 <func_2+0x1651>
    80a5:	8b 85 44 f9 ff ff    	mov    -0x6bc(%rbp),%eax
    80ab:	48 98                	cltq   
    80ad:	48 c7 84 c5 70 fb ff 	movq   $0x0,-0x490(%rbp,%rax,8)
    80b4:	ff 00 00 00 00 
    80b9:	83 85 44 f9 ff ff 01 	addl   $0x1,-0x6bc(%rbp)
    80c0:	83 bd 44 f9 ff ff 02 	cmpl   $0x2,-0x6bc(%rbp)
    80c7:	7e dc                	jle    80a5 <func_2+0x1636>
    80c9:	c7 85 44 f9 ff ff 00 	movl   $0x0,-0x6bc(%rbp)
    80d0:	00 00 00 
    80d3:	eb 54                	jmp    8129 <func_2+0x16ba>
    80d5:	c7 85 48 f9 ff ff 00 	movl   $0x0,-0x6b8(%rbp)
    80dc:	00 00 00 
    80df:	eb 38                	jmp    8119 <func_2+0x16aa>
    80e1:	8b 85 48 f9 ff ff    	mov    -0x6b8(%rbp),%eax
    80e7:	48 63 c8             	movslq %eax,%rcx
    80ea:	8b 85 44 f9 ff ff    	mov    -0x6bc(%rbp),%eax
    80f0:	48 63 d0             	movslq %eax,%rdx
    80f3:	48 89 d0             	mov    %rdx,%rax
    80f6:	48 01 c0             	add    %rax,%rax
    80f9:	48 01 d0             	add    %rdx,%rax
    80fc:	48 01 c0             	add    %rax,%rax
    80ff:	48 8d 14 08          	lea    (%rax,%rcx,1),%rdx
    8103:	48 8d 85 14 f9 ff ff 	lea    -0x6ec(%rbp),%rax
    810a:	48 89 84 d5 e0 fb ff 	mov    %rax,-0x420(%rbp,%rdx,8)
    8111:	ff 
    8112:	83 85 48 f9 ff ff 01 	addl   $0x1,-0x6b8(%rbp)
    8119:	83 bd 48 f9 ff ff 05 	cmpl   $0x5,-0x6b8(%rbp)
    8120:	7e bf                	jle    80e1 <func_2+0x1672>
    8122:	83 85 44 f9 ff ff 01 	addl   $0x1,-0x6bc(%rbp)
    8129:	83 bd 44 f9 ff ff 00 	cmpl   $0x0,-0x6bc(%rbp)
    8130:	7e a3                	jle    80d5 <func_2+0x1666>
    8132:	48 c7 85 48 fa ff ff 	movq   $0x0,-0x5b8(%rbp)
    8139:	00 00 00 00 
    813d:	48 8b 05 54 7b 01 00 	mov    0x17b54(%rip),%rax        # 1fc98 <g_2377>
    8144:	48 8b 95 50 fa ff ff 	mov    -0x5b0(%rbp),%rdx
    814b:	48 89 10             	mov    %rdx,(%rax)
    814e:	83 ad 8c f9 ff ff 01 	subl   $0x1,-0x674(%rbp)
    8155:	c7 85 dc f8 ff ff 00 	movl   $0x0,-0x724(%rbp)
    815c:	00 00 00 
    815f:	83 bd dc f8 ff ff 15 	cmpl   $0x15,-0x724(%rbp)
    8166:	74 73                	je     81db <func_2+0x176c>
    8168:	48 8d 85 40 fd ff ff 	lea    -0x2c0(%rbp),%rax
    816f:	48 05 8c 01 00 00    	add    $0x18c,%rax
    8175:	48 89 85 a0 fb ff ff 	mov    %rax,-0x460(%rbp)
    817c:	48 8d 85 40 fd ff ff 	lea    -0x2c0(%rbp),%rax
    8183:	48 05 8c 01 00 00    	add    $0x18c,%rax
    8189:	48 89 85 a8 fb ff ff 	mov    %rax,-0x458(%rbp)
    8190:	48 8d 85 40 fd ff ff 	lea    -0x2c0(%rbp),%rax
    8197:	48 05 8c 01 00 00    	add    $0x18c,%rax
    819d:	48 89 85 b0 fb ff ff 	mov    %rax,-0x450(%rbp)
    81a4:	48 8d 85 40 fd ff ff 	lea    -0x2c0(%rbp),%rax
    81ab:	48 05 8c 01 00 00    	add    $0x18c,%rax
    81b1:	48 89 85 b8 fb ff ff 	mov    %rax,-0x448(%rbp)
    81b8:	48 8d 85 40 fd ff ff 	lea    -0x2c0(%rbp),%rax
    81bf:	48 05 8c 01 00 00    	add    $0x18c,%rax
    81c5:	48 89 85 c0 fb ff ff 	mov    %rax,-0x440(%rbp)
    81cc:	48 8b 05 1d 76 01 00 	mov    0x1761d(%rip),%rax        # 1f7f0 <g_1677>
    81d3:	48 8b 00             	mov    (%rax),%rax
    81d6:	e9 10 06 00 00       	jmpq   87eb <func_2+0x1d7c>
    81db:	48 8b 05 46 3e 01 00 	mov    0x13e46(%rip),%rax        # 1c028 <g_11>
    81e2:	48 83 c0 01          	add    $0x1,%rax
    81e6:	48 89 05 3b 3e 01 00 	mov    %rax,0x13e3b(%rip)        # 1c028 <g_11>
    81ed:	48 8b 05 34 3e 01 00 	mov    0x13e34(%rip),%rax        # 1c028 <g_11>
    81f4:	48 83 f8 05          	cmp    $0x5,%rax
    81f8:	0f 86 21 eb ff ff    	jbe    6d1f <func_2+0x2b0>
    81fe:	48 c7 85 d0 f9 ff ff 	movq   $0x0,-0x630(%rbp)
    8205:	00 00 00 00 
    8209:	e9 30 05 00 00       	jmpq   873e <func_2+0x1ccf>
    820e:	c7 85 4c f9 ff ff f9 	movl   $0xfffffff9,-0x6b4(%rbp)
    8215:	ff ff ff 
    8218:	48 8d 85 40 fd ff ff 	lea    -0x2c0(%rbp),%rax
    821f:	48 05 64 01 00 00    	add    $0x164,%rax
    8225:	48 89 85 00 fa ff ff 	mov    %rax,-0x600(%rbp)
    822c:	c7 85 5c f9 ff ff fa 	movl   $0xfffffffa,-0x6a4(%rbp)
    8233:	ff ff ff 
    8236:	c7 85 60 f9 ff ff fe 	movl   $0x35dba0fe,-0x6a0(%rbp)
    823d:	a0 db 35 
    8240:	48 8b 85 e8 f8 ff ff 	mov    -0x718(%rbp),%rax
    8247:	48 89 85 e8 f9 ff ff 	mov    %rax,-0x618(%rbp)
    824e:	48 c7 05 cf 3d 01 00 	movq   $0x14,0x13dcf(%rip)        # 1c028 <g_11>
    8255:	14 00 00 00 
    8259:	e9 b3 04 00 00       	jmpq   8711 <func_2+0x1ca2>
    825e:	48 8d 05 93 41 01 00 	lea    0x14193(%rip),%rax        # 1c3f8 <g_380>
    8265:	48 89 85 08 fa ff ff 	mov    %rax,-0x5f8(%rbp)
    826c:	48 c7 85 10 fa ff ff 	movq   $0x0,-0x5f0(%rbp)
    8273:	00 00 00 00 
    8277:	48 8d 05 52 7f 01 00 	lea    0x17f52(%rip),%rax        # 201d0 <g_1520>
    827e:	48 89 85 18 fa ff ff 	mov    %rax,-0x5e8(%rbp)
    8285:	48 8d 05 04 3f 01 00 	lea    0x13f04(%rip),%rax        # 1c190 <g_290+0xf0>
    828c:	48 89 85 e0 fb ff ff 	mov    %rax,-0x420(%rbp)
    8293:	48 8d 05 f6 3e 01 00 	lea    0x13ef6(%rip),%rax        # 1c190 <g_290+0xf0>
    829a:	48 89 85 e8 fb ff ff 	mov    %rax,-0x418(%rbp)
    82a1:	48 8d 05 e8 3e 01 00 	lea    0x13ee8(%rip),%rax        # 1c190 <g_290+0xf0>
    82a8:	48 89 85 f0 fb ff ff 	mov    %rax,-0x410(%rbp)
    82af:	48 8d 05 da 3e 01 00 	lea    0x13eda(%rip),%rax        # 1c190 <g_290+0xf0>
    82b6:	48 89 85 f8 fb ff ff 	mov    %rax,-0x408(%rbp)
    82bd:	48 8d 05 cc 3e 01 00 	lea    0x13ecc(%rip),%rax        # 1c190 <g_290+0xf0>
    82c4:	48 89 85 00 fc ff ff 	mov    %rax,-0x400(%rbp)
    82cb:	48 8d 05 be 3e 01 00 	lea    0x13ebe(%rip),%rax        # 1c190 <g_290+0xf0>
    82d2:	48 89 85 08 fc ff ff 	mov    %rax,-0x3f8(%rbp)
    82d9:	48 8d 05 b0 3e 01 00 	lea    0x13eb0(%rip),%rax        # 1c190 <g_290+0xf0>
    82e0:	48 89 85 10 fc ff ff 	mov    %rax,-0x3f0(%rbp)
    82e7:	48 8d 05 a2 3e 01 00 	lea    0x13ea2(%rip),%rax        # 1c190 <g_290+0xf0>
    82ee:	48 89 85 18 fc ff ff 	mov    %rax,-0x3e8(%rbp)
    82f5:	c7 85 64 f9 ff ff 38 	movl   $0x9b8e3c38,-0x69c(%rbp)
    82fc:	3c 8e 9b 
    82ff:	48 8d 05 f2 7e 01 00 	lea    0x17ef2(%rip),%rax        # 201f8 <g_2447>
    8306:	48 89 85 20 fa ff ff 	mov    %rax,-0x5e0(%rbp)
    830d:	c7 85 68 f9 ff ff f7 	movl   $0xfffffff7,-0x698(%rbp)
    8314:	ff ff ff 
    8317:	c7 85 6c f9 ff ff 43 	movl   $0x35986043,-0x694(%rbp)
    831e:	60 98 35 
    8321:	48 8b 85 18 fa ff ff 	mov    -0x5e8(%rbp),%rax
    8328:	48 8b 95 08 fa ff ff 	mov    -0x5f8(%rbp),%rdx
    832f:	48 89 10             	mov    %rdx,(%rax)
    8332:	48 8b 05 67 73 01 00 	mov    0x17367(%rip),%rax        # 1f6a0 <g_883>
    8339:	48 8b 00             	mov    (%rax),%rax
    833c:	48 8b 00             	mov    (%rax),%rax
    833f:	8b 10                	mov    (%rax),%edx
    8341:	83 ea 01             	sub    $0x1,%edx
    8344:	89 10                	mov    %edx,(%rax)
    8346:	48 8b 05 83 72 01 00 	mov    0x17283(%rip),%rax        # 1f5d0 <g_637>
    834d:	8b 95 dc f8 ff ff    	mov    -0x724(%rbp),%edx
    8353:	66 89 10             	mov    %dx,(%rax)
    8356:	0f b7 00             	movzwl (%rax),%eax
    8359:	66 85 c0             	test   %ax,%ax
    835c:	75 70                	jne    83ce <func_2+0x195f>
    835e:	8b 85 e4 f8 ff ff    	mov    -0x71c(%rbp),%eax
    8364:	0f b6 c0             	movzbl %al,%eax
    8367:	be 01 00 00 00       	mov    $0x1,%esi
    836c:	89 c7                	mov    %eax,%edi
    836e:	e8 92 d8 ff ff       	callq  5c05 <safe_lshift_func_uint8_t_u_s>
    8373:	0f b6 c0             	movzbl %al,%eax
    8376:	be 01 00 00 00       	mov    $0x1,%esi
    837b:	89 c7                	mov    %eax,%edi
    837d:	e8 3c d9 ff ff       	callq  5cbe <safe_rshift_func_uint8_t_u_u>
    8382:	8b 05 00 61 01 00    	mov    0x16100(%rip),%eax        # 1e488 <g_2418>
    8388:	be 00 00 00 00       	mov    $0x0,%esi
    838d:	89 c7                	mov    %eax,%edi
    838f:	e8 3c db ff ff       	callq  5ed0 <safe_sub_func_uint32_t_u_u>
    8394:	0f b6 c0             	movzbl %al,%eax
    8397:	be ff ff ff ff       	mov    $0xffffffff,%esi
    839c:	89 c7                	mov    %eax,%edi
    839e:	e8 ea d8 ff ff       	callq  5c8d <safe_rshift_func_uint8_t_u_s>
    83a3:	89 c2                	mov    %eax,%edx
    83a5:	48 8b 05 24 72 01 00 	mov    0x17224(%rip),%rax        # 1f5d0 <g_637>
    83ac:	0f b6 d2             	movzbl %dl,%edx
    83af:	66 89 10             	mov    %dx,(%rax)
    83b2:	8b 85 4c f9 ff ff    	mov    -0x6b4(%rbp),%eax
    83b8:	0f be c0             	movsbl %al,%eax
    83bb:	8b 95 e4 f8 ff ff    	mov    -0x71c(%rbp),%edx
    83c1:	89 d6                	mov    %edx,%esi
    83c3:	89 c7                	mov    %eax,%edi
    83c5:	e8 d7 ce ff ff       	callq  52a1 <safe_lshift_func_int8_t_s_s>
    83ca:	84 c0                	test   %al,%al
    83cc:	74 07                	je     83d5 <func_2+0x1966>
    83ce:	b8 01 00 00 00       	mov    $0x1,%eax
    83d3:	eb 05                	jmp    83da <func_2+0x196b>
    83d5:	b8 00 00 00 00       	mov    $0x0,%eax
    83da:	35 3a 4c f2 90       	xor    $0x90f24c3a,%eax
    83df:	89 85 dc f8 ff ff    	mov    %eax,-0x724(%rbp)
    83e5:	8b 85 dc f8 ff ff    	mov    -0x724(%rbp),%eax
    83eb:	0f be c0             	movsbl %al,%eax
    83ee:	89 c7                	mov    %eax,%edi
    83f0:	e8 1c 04 00 00       	callq  8811 <func_7>
    83f5:	48 89 85 e8 f8 ff ff 	mov    %rax,-0x718(%rbp)
    83fc:	48 c7 85 c8 f9 ff ff 	movq   $0x10,-0x638(%rbp)
    8403:	10 00 00 00 
    8407:	e9 e5 02 00 00       	jmpq   86f1 <func_2+0x1c82>
    840c:	48 8d 85 10 f9 ff ff 	lea    -0x6f0(%rbp),%rax
    8413:	48 89 85 b8 f9 ff ff 	mov    %rax,-0x648(%rbp)
    841a:	48 8d 85 b8 f9 ff ff 	lea    -0x648(%rbp),%rax
    8421:	48 89 85 28 fa ff ff 	mov    %rax,-0x5d8(%rbp)
    8428:	48 8d 85 50 fb ff ff 	lea    -0x4b0(%rbp),%rax
    842f:	48 83 c0 08          	add    $0x8,%rax
    8433:	48 89 85 c0 f9 ff ff 	mov    %rax,-0x640(%rbp)
    843a:	48 8d 85 c0 f9 ff ff 	lea    -0x640(%rbp),%rax
    8441:	48 89 85 30 fa ff ff 	mov    %rax,-0x5d0(%rbp)
    8448:	c7 85 70 f9 ff ff 00 	movl   $0x0,-0x690(%rbp)
    844f:	00 00 00 
    8452:	48 8d 85 b0 f9 ff ff 	lea    -0x650(%rbp),%rax
    8459:	48 89 85 38 fa ff ff 	mov    %rax,-0x5c8(%rbp)
    8460:	c7 85 74 f9 ff ff 0f 	movl   $0x2f34a80f,-0x68c(%rbp)
    8467:	a8 34 2f 
    846a:	c7 85 78 f9 ff ff e1 	movl   $0xc71dcde1,-0x688(%rbp)
    8471:	cd 1d c7 
    8474:	c7 85 7c f9 ff ff ff 	movl   $0xffffffff,-0x684(%rbp)
    847b:	ff ff ff 
    847e:	66 c7 85 06 f9 ff ff 	movw   $0x72cf,-0x6fa(%rbp)
    8485:	cf 72 
    8487:	48 8b 05 42 71 01 00 	mov    0x17142(%rip),%rax        # 1f5d0 <g_637>
    848e:	0f b7 00             	movzwl (%rax),%eax
    8491:	0f b7 d8             	movzwl %ax,%ebx
    8494:	48 8b 85 e8 f9 ff ff 	mov    -0x618(%rbp),%rax
    849b:	44 8b 20             	mov    (%rax),%r12d
    849e:	8b 85 70 f9 ff ff    	mov    -0x690(%rbp),%eax
    84a4:	39 85 dc f8 ff ff    	cmp    %eax,-0x724(%rbp)
    84aa:	0f 92 c0             	setb   %al
    84ad:	0f b6 c0             	movzbl %al,%eax
    84b0:	48 8b 15 f1 64 01 00 	mov    0x164f1(%rip),%rdx        # 1e9a8 <g_76>
    84b7:	8b 0a                	mov    (%rdx),%ecx
    84b9:	48 8b 95 e8 f9 ff ff 	mov    -0x618(%rbp),%rdx
    84c0:	8b 12                	mov    (%rdx),%edx
    84c2:	89 d6                	mov    %edx,%esi
    84c4:	48 8b 15 dd 64 01 00 	mov    0x164dd(%rip),%rdx        # 1e9a8 <g_76>
    84cb:	31 f1                	xor    %esi,%ecx
    84cd:	89 0a                	mov    %ecx,(%rdx)
    84cf:	83 bd dc f8 ff ff 00 	cmpl   $0x0,-0x724(%rbp)
    84d6:	74 50                	je     8528 <func_2+0x1ab9>
    84d8:	48 8b 95 e8 f8 ff ff 	mov    -0x718(%rbp),%rdx
    84df:	48 89 95 f8 f9 ff ff 	mov    %rdx,-0x608(%rbp)
    84e6:	48 8b 95 28 fa ff ff 	mov    -0x5d8(%rbp),%rdx
    84ed:	48 8b 8d f8 f9 ff ff 	mov    -0x608(%rbp),%rcx
    84f4:	48 89 0a             	mov    %rcx,(%rdx)
    84f7:	48 8b 95 28 fa ff ff 	mov    -0x5d8(%rbp),%rdx
    84fe:	48 8b 32             	mov    (%rdx),%rsi
    8501:	48 8b 95 30 fa ff ff 	mov    -0x5d0(%rbp),%rdx
    8508:	48 8b 8d e8 f8 ff ff 	mov    -0x718(%rbp),%rcx
    850f:	48 89 0a             	mov    %rcx,(%rdx)
    8512:	48 8b 95 30 fa ff ff 	mov    -0x5d0(%rbp),%rdx
    8519:	48 8b 12             	mov    (%rdx),%rdx
    851c:	48 39 d6             	cmp    %rdx,%rsi
    851f:	75 07                	jne    8528 <func_2+0x1ab9>
    8521:	ba 01 00 00 00       	mov    $0x1,%edx
    8526:	eb 05                	jmp    852d <func_2+0x1abe>
    8528:	ba 00 00 00 00       	mov    $0x0,%edx
    852d:	89 c6                	mov    %eax,%esi
    852f:	89 d7                	mov    %edx,%edi
    8531:	e8 cf d0 ff ff       	callq  5605 <safe_sub_func_int32_t_s_s>
    8536:	89 c2                	mov    %eax,%edx
    8538:	48 8b 85 e8 f8 ff ff 	mov    -0x718(%rbp),%rax
    853f:	8b 00                	mov    (%rax),%eax
    8541:	89 d6                	mov    %edx,%esi
    8543:	89 c7                	mov    %eax,%edi
    8545:	e8 bb d0 ff ff       	callq  5605 <safe_sub_func_int32_t_s_s>
    854a:	48 8b 95 d8 f9 ff ff 	mov    -0x628(%rbp),%rdx
    8551:	8b 12                	mov    (%rdx),%edx
    8553:	09 d0                	or     %edx,%eax
    8555:	41 39 c4             	cmp    %eax,%r12d
    8558:	0f 94 c2             	sete   %dl
    855b:	48 8b 05 f6 71 01 00 	mov    0x171f6(%rip),%rax        # 1f758 <g_1361>
    8562:	48 8b 00             	mov    (%rax),%rax
    8565:	0f b6 d2             	movzbl %dl,%edx
    8568:	66 89 10             	mov    %dx,(%rax)
    856b:	0f b7 00             	movzwl (%rax),%eax
    856e:	98                   	cwtl   
    856f:	39 c3                	cmp    %eax,%ebx
    8571:	7f 07                	jg     857a <func_2+0x1b0b>
    8573:	b8 04 00 00 00       	mov    $0x4,%eax
    8578:	eb 05                	jmp    857f <func_2+0x1b10>
    857a:	b8 05 00 00 00       	mov    $0x5,%eax
    857f:	89 85 64 f9 ff ff    	mov    %eax,-0x69c(%rbp)
    8585:	8b 85 64 f9 ff ff    	mov    -0x69c(%rbp),%eax
    858b:	0f be c0             	movsbl %al,%eax
    858e:	89 c7                	mov    %eax,%edi
    8590:	e8 7c 02 00 00       	callq  8811 <func_7>
    8595:	48 89 85 00 fa ff ff 	mov    %rax,-0x600(%rbp)
    859c:	48 8b 85 38 fa ff ff 	mov    -0x5c8(%rbp),%rax
    85a3:	48 c7 00 00 00 00 00 	movq   $0x0,(%rax)
    85aa:	8b 85 dc f8 ff ff    	mov    -0x724(%rbp),%eax
    85b0:	f7 d0                	not    %eax
    85b2:	0f be d0             	movsbl %al,%edx
    85b5:	8b 85 dc f8 ff ff    	mov    -0x724(%rbp),%eax
    85bb:	83 f0 94             	xor    $0xffffff94,%eax
    85be:	0f be c0             	movsbl %al,%eax
    85c1:	89 d6                	mov    %edx,%esi
    85c3:	89 c7                	mov    %eax,%edi
    85c5:	e8 48 cc ff ff       	callq  5212 <safe_mul_func_int8_t_s_s>
    85ca:	0f be c0             	movsbl %al,%eax
    85cd:	89 c7                	mov    %eax,%edi
    85cf:	e8 3d 02 00 00       	callq  8811 <func_7>
    85d4:	48 8b 95 38 fa ff ff 	mov    -0x5c8(%rbp),%rdx
    85db:	48 89 02             	mov    %rax,(%rdx)
    85de:	c7 85 4c f9 ff ff 00 	movl   $0x0,-0x6b4(%rbp)
    85e5:	00 00 00 
    85e8:	e9 d8 00 00 00       	jmpq   86c5 <func_2+0x1c56>
    85ed:	c7 85 50 f9 ff ff 00 	movl   $0x0,-0x6b0(%rbp)
    85f4:	00 00 00 
    85f7:	eb 5a                	jmp    8653 <func_2+0x1be4>
    85f9:	c7 85 54 f9 ff ff 00 	movl   $0x0,-0x6ac(%rbp)
    8600:	00 00 00 
    8603:	eb 3e                	jmp    8643 <func_2+0x1bd4>
    8605:	8b 85 54 f9 ff ff    	mov    -0x6ac(%rbp),%eax
    860b:	48 63 c8             	movslq %eax,%rcx
    860e:	8b 85 50 f9 ff ff    	mov    -0x6b0(%rbp),%eax
    8614:	48 63 d0             	movslq %eax,%rdx
    8617:	48 89 d0             	mov    %rdx,%rax
    861a:	48 01 c0             	add    %rax,%rax
    861d:	48 01 d0             	add    %rdx,%rax
    8620:	48 01 c0             	add    %rax,%rax
    8623:	48 01 c8             	add    %rcx,%rax
    8626:	48 8d 95 40 fd ff ff 	lea    -0x2c0(%rbp),%rdx
    862d:	48 81 c2 44 01 00 00 	add    $0x144,%rdx
    8634:	48 89 94 c5 30 fc ff 	mov    %rdx,-0x3d0(%rbp,%rax,8)
    863b:	ff 
    863c:	83 85 54 f9 ff ff 01 	addl   $0x1,-0x6ac(%rbp)
    8643:	83 bd 54 f9 ff ff 05 	cmpl   $0x5,-0x6ac(%rbp)
    864a:	7e b9                	jle    8605 <func_2+0x1b96>
    864c:	83 85 50 f9 ff ff 01 	addl   $0x1,-0x6b0(%rbp)
    8653:	83 bd 50 f9 ff ff 01 	cmpl   $0x1,-0x6b0(%rbp)
    865a:	7e 9d                	jle    85f9 <func_2+0x1b8a>
    865c:	48 8b 05 6d 6f 01 00 	mov    0x16f6d(%rip),%rax        # 1f5d0 <g_637>
    8663:	0f b7 00             	movzwl (%rax),%eax
    8666:	0f b7 d0             	movzwl %ax,%edx
    8669:	48 8b 05 b0 76 01 00 	mov    0x176b0(%rip),%rax        # 1fd20 <g_2446+0x20>
    8670:	48 89 85 20 fa ff ff 	mov    %rax,-0x5e0(%rbp)
    8677:	48 8d 05 52 6f 01 00 	lea    0x16f52(%rip),%rax        # 1f5d0 <g_637>
    867e:	48 39 85 20 fa ff ff 	cmp    %rax,-0x5e0(%rbp)
    8685:	0f 95 c0             	setne  %al
    8688:	0f b6 c0             	movzbl %al,%eax
    868b:	39 c2                	cmp    %eax,%edx
    868d:	0f 94 c0             	sete   %al
    8690:	0f b6 d0             	movzbl %al,%edx
    8693:	48 8b 85 d8 f9 ff ff 	mov    -0x628(%rbp),%rax
    869a:	8b 00                	mov    (%rax),%eax
    869c:	09 c2                	or     %eax,%edx
    869e:	48 8b 85 d8 f9 ff ff 	mov    -0x628(%rbp),%rax
    86a5:	89 10                	mov    %edx,(%rax)
    86a7:	66 83 85 06 f9 ff ff 	addw   $0x1,-0x6fa(%rbp)
    86ae:	01 
    86af:	8b 05 eb 5d 01 00    	mov    0x15deb(%rip),%eax        # 1e4a0 <g_2462>
    86b5:	83 e8 01             	sub    $0x1,%eax
    86b8:	89 05 e2 5d 01 00    	mov    %eax,0x15de2(%rip)        # 1e4a0 <g_2462>
    86be:	83 85 4c f9 ff ff 01 	addl   $0x1,-0x6b4(%rbp)
    86c5:	83 bd 4c f9 ff ff 05 	cmpl   $0x5,-0x6b4(%rbp)
    86cc:	0f 8e 1b ff ff ff    	jle    85ed <func_2+0x1b7e>
    86d2:	48 8b 85 c8 f9 ff ff 	mov    -0x638(%rbp),%rax
    86d9:	98                   	cwtl   
    86da:	be 04 00 00 00       	mov    $0x4,%esi
    86df:	89 c7                	mov    %eax,%edi
    86e1:	e8 ed cc ff ff       	callq  53d3 <safe_sub_func_int16_t_s_s>
    86e6:	48 0f bf c0          	movswq %ax,%rax
    86ea:	48 89 85 c8 f9 ff ff 	mov    %rax,-0x638(%rbp)
    86f1:	48 83 bd c8 f9 ff ff 	cmpq   $0xe,-0x638(%rbp)
    86f8:	0e 
    86f9:	0f 84 0d fd ff ff    	je     840c <func_2+0x199d>
    86ff:	48 8b 05 22 39 01 00 	mov    0x13922(%rip),%rax        # 1c028 <g_11>
    8706:	48 83 c0 01          	add    $0x1,%rax
    870a:	48 89 05 17 39 01 00 	mov    %rax,0x13917(%rip)        # 1c028 <g_11>
    8711:	48 8b 05 10 39 01 00 	mov    0x13910(%rip),%rax        # 1c028 <g_11>
    8718:	48 83 f8 34          	cmp    $0x34,%rax
    871c:	0f 87 3c fb ff ff    	ja     825e <func_2+0x17ef>
    8722:	48 8b 85 d0 f9 ff ff 	mov    -0x630(%rbp),%rax
    8729:	be 01 00 00 00       	mov    $0x1,%esi
    872e:	89 c7                	mov    %eax,%edi
    8730:	e8 9b d7 ff ff       	callq  5ed0 <safe_sub_func_uint32_t_u_u>
    8735:	89 c0                	mov    %eax,%eax
    8737:	48 89 85 d0 f9 ff ff 	mov    %rax,-0x630(%rbp)
    873e:	48 83 bd d0 f9 ff ff 	cmpq   $0xfffffffffffffffa,-0x630(%rbp)
    8745:	fa 
    8746:	0f 8d c2 fa ff ff    	jge    820e <func_2+0x179f>
    874c:	8b 05 ea 38 01 00    	mov    0x138ea(%rip),%eax        # 1c03c <g_58>
    8752:	83 c0 01             	add    $0x1,%eax
    8755:	89 05 e1 38 01 00    	mov    %eax,0x138e1(%rip)        # 1c03c <g_58>
    875b:	8b 05 db 38 01 00    	mov    0x138db(%rip),%eax        # 1c03c <g_58>
    8761:	83 f8 0d             	cmp    $0xd,%eax
    8764:	0f 8e d6 e4 ff ff    	jle    6c40 <func_2+0x1d1>
    876a:	48 8b 85 d8 f9 ff ff 	mov    -0x628(%rbp),%rax
    8771:	8b 10                	mov    (%rax),%edx
    8773:	48 8b 05 1e 70 01 00 	mov    0x1701e(%rip),%rax        # 1f798 <g_1567>
    877a:	0f b6 00             	movzbl (%rax),%eax
    877d:	0f be c0             	movsbl %al,%eax
    8780:	89 d6                	mov    %edx,%esi
    8782:	89 c7                	mov    %eax,%edi
    8784:	e8 ac cb ff ff       	callq  5335 <safe_rshift_func_int8_t_s_s>
    8789:	48 8b 85 d8 f9 ff ff 	mov    -0x628(%rbp),%rax
    8790:	8b 00                	mov    (%rax),%eax
    8792:	89 c6                	mov    %eax,%esi
    8794:	bf 00 00 00 00       	mov    $0x0,%edi
    8799:	e8 1a d7 ff ff       	callq  5eb8 <safe_add_func_uint32_t_u_u>
    879e:	48 8b 85 e8 f8 ff ff 	mov    -0x718(%rbp),%rax
    87a5:	8b 00                	mov    (%rax),%eax
    87a7:	89 c2                	mov    %eax,%edx
    87a9:	48 8b 85 d8 f9 ff ff 	mov    -0x628(%rbp),%rax
    87b0:	8b 00                	mov    (%rax),%eax
    87b2:	83 f8 01             	cmp    $0x1,%eax
    87b5:	0f 94 c0             	sete   %al
    87b8:	31 d0                	xor    %edx,%eax
    87ba:	0f be d0             	movsbl %al,%edx
    87bd:	48 8d 05 6c 38 01 00 	lea    0x1386c(%rip),%rax        # 1c030 <g_14>
    87c4:	0f b6 00             	movzbl (%rax),%eax
    87c7:	0f be c0             	movsbl %al,%eax
    87ca:	89 d6                	mov    %edx,%esi
    87cc:	89 c7                	mov    %eax,%edi
    87ce:	e8 5e ca ff ff       	callq  5231 <safe_mod_func_int8_t_s_s>
    87d3:	89 c2                	mov    %eax,%edx
    87d5:	48 8b 05 cc 6f 01 00 	mov    0x16fcc(%rip),%rax        # 1f7a8 <g_1627>
    87dc:	0f be d2             	movsbl %dl,%edx
    87df:	89 10                	mov    %edx,(%rax)
    87e1:	48 8b 05 08 70 01 00 	mov    0x17008(%rip),%rax        # 1f7f0 <g_1677>
    87e8:	48 8b 00             	mov    (%rax),%rax
    87eb:	48 8b 5d c8          	mov    -0x38(%rbp),%rbx
    87ef:	64 48 33 1c 25 28 00 	xor    %fs:0x28,%rbx
    87f6:	00 00 
    87f8:	74 05                	je     87ff <func_2+0x1d90>
    87fa:	e8 71 c8 ff ff       	callq  5070 <__stack_chk_fail@plt>
    87ff:	48 81 c4 08 07 00 00 	add    $0x708,%rsp
    8806:	5b                   	pop    %rbx
    8807:	41 5c                	pop    %r12
    8809:	41 5d                	pop    %r13
    880b:	41 5e                	pop    %r14
    880d:	41 5f                	pop    %r15
    880f:	5d                   	pop    %rbp
    8810:	c3                   	retq   

0000000000008811 <func_7>:
    8811:	f3 0f 1e fa          	endbr64 
    8815:	55                   	push   %rbp
    8816:	48 89 e5             	mov    %rsp,%rbp
    8819:	53                   	push   %rbx
    881a:	48 81 ec a8 00 00 00 	sub    $0xa8,%rsp
    8821:	89 f8                	mov    %edi,%eax
    8823:	88 85 5c ff ff ff    	mov    %al,-0xa4(%rbp)
    8829:	64 48 8b 04 25 28 00 	mov    %fs:0x28,%rax
    8830:	00 00 
    8832:	48 89 45 e8          	mov    %rax,-0x18(%rbp)
    8836:	31 c0                	xor    %eax,%eax
    8838:	c7 85 6c ff ff ff bd 	movl   $0x113f5bbd,-0x94(%rbp)
    883f:	5b 3f 11 
    8842:	48 c7 85 78 ff ff ff 	movq   $0x0,-0x88(%rbp)
    8849:	00 00 00 00 
    884d:	48 8d 05 2a 3c 01 00 	lea    0x13c2a(%rip),%rax        # 1c47e <g_423+0x5e>
    8854:	48 89 45 b0          	mov    %rax,-0x50(%rbp)
    8858:	48 8d 05 1f 3c 01 00 	lea    0x13c1f(%rip),%rax        # 1c47e <g_423+0x5e>
    885f:	48 89 45 b8          	mov    %rax,-0x48(%rbp)
    8863:	48 8d 05 1e 3c 01 00 	lea    0x13c1e(%rip),%rax        # 1c488 <g_423+0x68>
    886a:	48 89 45 c0          	mov    %rax,-0x40(%rbp)
    886e:	48 8d 05 09 3c 01 00 	lea    0x13c09(%rip),%rax        # 1c47e <g_423+0x5e>
    8875:	48 89 45 c8          	mov    %rax,-0x38(%rbp)
    8879:	48 8d 05 fe 3b 01 00 	lea    0x13bfe(%rip),%rax        # 1c47e <g_423+0x5e>
    8880:	48 89 45 d0          	mov    %rax,-0x30(%rbp)
    8884:	48 8d 05 fd 3b 01 00 	lea    0x13bfd(%rip),%rax        # 1c488 <g_423+0x68>
    888b:	48 89 45 d8          	mov    %rax,-0x28(%rbp)
    888f:	c7 85 70 ff ff ff e5 	movl   $0x454deae5,-0x90(%rbp)
    8896:	ea 4d 45 
    8899:	c7 85 74 ff ff ff 6b 	movl   $0x8d45ab6b,-0x8c(%rbp)
    88a0:	ab 45 8d 
    88a3:	48 8d 05 8e 37 01 00 	lea    0x1378e(%rip),%rax        # 1c038 <g_53>
    88aa:	48 89 45 80          	mov    %rax,-0x80(%rbp)
    88ae:	48 8d 05 83 37 01 00 	lea    0x13783(%rip),%rax        # 1c038 <g_53>
    88b5:	48 89 45 88          	mov    %rax,-0x78(%rbp)
    88b9:	48 8d 05 78 37 01 00 	lea    0x13778(%rip),%rax        # 1c038 <g_53>
    88c0:	48 89 45 90          	mov    %rax,-0x70(%rbp)
    88c4:	48 8d 05 6d 37 01 00 	lea    0x1376d(%rip),%rax        # 1c038 <g_53>
    88cb:	48 89 45 98          	mov    %rax,-0x68(%rbp)
    88cf:	48 8d 05 62 37 01 00 	lea    0x13762(%rip),%rax        # 1c038 <g_53>
    88d6:	48 89 45 a0          	mov    %rax,-0x60(%rbp)
    88da:	48 8b 05 bf 6e 01 00 	mov    0x16ebf(%rip),%rax        # 1f7a0 <g_1566>
    88e1:	48 8b 10             	mov    (%rax),%rdx
    88e4:	48 8b 05 d5 60 01 00 	mov    0x160d5(%rip),%rax        # 1e9c0 <g_213>
    88eb:	0f b6 12             	movzbl (%rdx),%edx
    88ee:	88 10                	mov    %dl,(%rax)
    88f0:	48 8b 05 c9 60 01 00 	mov    0x160c9(%rip),%rax        # 1e9c0 <g_213>
    88f7:	0f b6 00             	movzbl (%rax),%eax
    88fa:	0f b6 d8             	movzbl %al,%ebx
    88fd:	48 8b 05 bc 6d 01 00 	mov    0x16dbc(%rip),%rax        # 1f6c0 <g_1057>
    8904:	0f b6 00             	movzbl (%rax),%eax
    8907:	0f b6 c0             	movzbl %al,%eax
    890a:	89 c7                	mov    %eax,%edi
    890c:	e8 34 d2 ff ff       	callq  5b45 <safe_unary_minus_func_uint8_t_u>
    8911:	0f be 85 5c ff ff ff 	movsbl -0xa4(%rbp),%eax
    8918:	39 85 6c ff ff ff    	cmp    %eax,-0x94(%rbp)
    891e:	0f b7 05 1b 4d 01 00 	movzwl 0x14d1b(%rip),%eax        # 1d640 <g_1963>
    8925:	66 25 ff 0f          	and    $0xfff,%ax
    8929:	0f b7 c0             	movzwl %ax,%eax
    892c:	21 85 70 ff ff ff    	and    %eax,-0x90(%rbp)
    8932:	8b 85 70 ff ff ff    	mov    -0x90(%rbp),%eax
    8938:	0f b7 d0             	movzwl %ax,%edx
    893b:	8b 85 6c ff ff ff    	mov    -0x94(%rbp),%eax
    8941:	0f b7 c0             	movzwl %ax,%eax
    8944:	89 d6                	mov    %edx,%esi
    8946:	89 c7                	mov    %eax,%edi
    8948:	e8 f0 d3 ff ff       	callq  5d3d <safe_mul_func_uint16_t_u_u>
    894d:	48 8b 05 54 60 01 00 	mov    0x16054(%rip),%rax        # 1e9a8 <g_76>
    8954:	8b 10                	mov    (%rax),%edx
    8956:	8b 85 6c ff ff ff    	mov    -0x94(%rbp),%eax
    895c:	39 c2                	cmp    %eax,%edx
    895e:	0f 94 c0             	sete   %al
    8961:	32 85 5c ff ff ff    	xor    -0xa4(%rbp),%al
    8967:	0f b6 c0             	movzbl %al,%eax
    896a:	89 de                	mov    %ebx,%esi
    896c:	89 c7                	mov    %eax,%edi
    896e:	e8 20 d2 ff ff       	callq  5b93 <safe_mul_func_uint8_t_u_u>
    8973:	0f b6 d0             	movzbl %al,%edx
    8976:	48 8b 05 33 60 01 00 	mov    0x16033(%rip),%rax        # 1e9b0 <g_75>
    897d:	48 8b 00             	mov    (%rax),%rax
    8980:	8b 08                	mov    (%rax),%ecx
    8982:	0f be 85 5c ff ff ff 	movsbl -0xa4(%rbp),%eax
    8989:	39 c1                	cmp    %eax,%ecx
    898b:	0f 97 c1             	seta   %cl
    898e:	48 8b 05 3b 6c 01 00 	mov    0x16c3b(%rip),%rax        # 1f5d0 <g_637>
    8995:	0f b6 c9             	movzbl %cl,%ecx
    8998:	66 89 08             	mov    %cx,(%rax)
    899b:	0f b7 00             	movzwl (%rax),%eax
    899e:	0f b7 c0             	movzwl %ax,%eax
    89a1:	89 d6                	mov    %edx,%esi
    89a3:	89 c7                	mov    %eax,%edi
    89a5:	e8 55 d3 ff ff       	callq  5cff <safe_add_func_uint16_t_u_u>
    89aa:	0f b7 d0             	movzwl %ax,%edx
    89ad:	0f be 85 5c ff ff ff 	movsbl -0xa4(%rbp),%eax
    89b4:	21 d0                	and    %edx,%eax
    89b6:	89 85 74 ff ff ff    	mov    %eax,-0x8c(%rbp)
    89bc:	48 8b 05 2d 6e 01 00 	mov    0x16e2d(%rip),%rax        # 1f7f0 <g_1677>
    89c3:	48 8b 00             	mov    (%rax),%rax
    89c6:	48 8b 5d e8          	mov    -0x18(%rbp),%rbx
    89ca:	64 48 33 1c 25 28 00 	xor    %fs:0x28,%rbx
    89d1:	00 00 
    89d3:	74 05                	je     89da <func_7+0x1c9>
    89d5:	e8 96 c6 ff ff       	callq  5070 <__stack_chk_fail@plt>
    89da:	48 81 c4 a8 00 00 00 	add    $0xa8,%rsp
    89e1:	5b                   	pop    %rbx
    89e2:	5d                   	pop    %rbp
    89e3:	c3                   	retq   

00000000000089e4 <func_24>:
    89e4:	f3 0f 1e fa          	endbr64 
    89e8:	55                   	push   %rbp
    89e9:	48 89 e5             	mov    %rsp,%rbp
    89ec:	48 81 ec a0 07 00 00 	sub    $0x7a0,%rsp
    89f3:	89 bd 7c f8 ff ff    	mov    %edi,-0x784(%rbp)
    89f9:	48 89 b5 70 f8 ff ff 	mov    %rsi,-0x790(%rbp)
    8a00:	48 89 95 68 f8 ff ff 	mov    %rdx,-0x798(%rbp)
    8a07:	89 8d 78 f8 ff ff    	mov    %ecx,-0x788(%rbp)
    8a0d:	4c 89 85 60 f8 ff ff 	mov    %r8,-0x7a0(%rbp)
    8a14:	64 48 8b 04 25 28 00 	mov    %fs:0x28,%rax
    8a1b:	00 00 
    8a1d:	48 89 45 f8          	mov    %rax,-0x8(%rbp)
    8a21:	31 c0                	xor    %eax,%eax
    8a23:	66 c7 85 88 f8 ff ff 	movw   $0x7efd,-0x778(%rbp)
    8a2a:	fd 7e 
    8a2c:	48 8d 05 35 77 01 00 	lea    0x17735(%rip),%rax        # 20168 <g_23>
    8a33:	48 89 85 b8 f8 ff ff 	mov    %rax,-0x748(%rbp)
    8a3a:	48 8d 85 b8 f8 ff ff 	lea    -0x748(%rbp),%rax
    8a41:	48 89 85 c8 f8 ff ff 	mov    %rax,-0x738(%rbp)
    8a48:	c7 85 90 f8 ff ff 95 	movl   $0xa30bf795,-0x770(%rbp)
    8a4f:	f7 0b a3 
    8a52:	48 8d 05 ef 6c 01 00 	lea    0x16cef(%rip),%rax        # 1f748 <g_1362+0x8>
    8a59:	48 89 85 d0 f8 ff ff 	mov    %rax,-0x730(%rbp)
    8a60:	c7 85 90 f9 ff ff ec 	movl   $0xdaeb3dec,-0x670(%rbp)
    8a67:	3d eb da 
    8a6a:	c7 85 94 f9 ff ff 60 	movl   $0xba7ee060,-0x66c(%rbp)
    8a71:	e0 7e ba 
    8a74:	c7 85 98 f9 ff ff ec 	movl   $0xdaeb3dec,-0x668(%rbp)
    8a7b:	3d eb da 
    8a7e:	c7 85 9c f9 ff ff 60 	movl   $0xba7ee060,-0x664(%rbp)
    8a85:	e0 7e ba 
    8a88:	c7 85 a4 f8 ff ff 58 	movl   $0xe2208e58,-0x75c(%rbp)
    8a8f:	8e 20 e2 
    8a92:	48 c7 85 d8 f8 ff ff 	movq   $0x0,-0x728(%rbp)
    8a99:	00 00 00 00 
    8a9d:	48 8d 05 3c 6b 01 00 	lea    0x16b3c(%rip),%rax        # 1f5e0 <g_739>
    8aa4:	48 89 85 e0 f8 ff ff 	mov    %rax,-0x720(%rbp)
    8aab:	c7 85 94 f8 ff ff 01 	movl   $0x1,-0x76c(%rbp)
    8ab2:	00 00 00 
    8ab5:	48 8d 05 04 5f 01 00 	lea    0x15f04(%rip),%rax        # 1e9c0 <g_213>
    8abc:	48 89 85 e8 f8 ff ff 	mov    %rax,-0x718(%rbp)
    8ac3:	48 8d 05 06 77 01 00 	lea    0x17706(%rip),%rax        # 201d0 <g_1520>
    8aca:	48 89 85 f0 f8 ff ff 	mov    %rax,-0x710(%rbp)
    8ad1:	48 8d 05 60 35 01 00 	lea    0x13560(%rip),%rax        # 1c038 <g_53>
    8ad8:	48 89 85 f8 f8 ff ff 	mov    %rax,-0x708(%rbp)
    8adf:	48 8d 85 90 f9 ff ff 	lea    -0x670(%rbp),%rax
    8ae6:	48 89 85 00 f9 ff ff 	mov    %rax,-0x700(%rbp)
    8aed:	48 c7 85 08 f9 ff ff 	movq   $0x0,-0x6f8(%rbp)
    8af4:	00 00 00 00 
    8af8:	c6 85 86 f8 ff ff 00 	movb   $0x0,-0x77a(%rbp)
    8aff:	c7 85 a8 f8 ff ff ff 	movl   $0xffffffff,-0x758(%rbp)
    8b06:	ff ff ff 
    8b09:	48 8d 85 10 fb ff ff 	lea    -0x4f0(%rbp),%rax
    8b10:	48 8d 15 c9 ec 00 00 	lea    0xecc9(%rip),%rdx        # 177e0 <g_1058+0x293>
    8b17:	b9 24 00 00 00       	mov    $0x24,%ecx
    8b1c:	48 89 c7             	mov    %rax,%rdi
    8b1f:	48 89 d6             	mov    %rdx,%rsi
    8b22:	f3 48 a5             	rep movsq %ds:(%rsi),%es:(%rdi)
    8b25:	48 8d 05 45 35 01 00 	lea    0x13545(%rip),%rax        # 1c071 <g_214+0x1>
    8b2c:	48 89 85 10 f9 ff ff 	mov    %rax,-0x6f0(%rbp)
    8b33:	48 c7 85 18 f9 ff ff 	movq   $0x9,-0x6e8(%rbp)
    8b3a:	09 00 00 00 
    8b3e:	48 8d 05 eb 3a 01 00 	lea    0x13aeb(%rip),%rax        # 1c630 <g_1048>
    8b45:	48 89 85 20 f9 ff ff 	mov    %rax,-0x6e0(%rbp)
    8b4c:	c7 85 98 f8 ff ff 00 	movl   $0x0,-0x768(%rbp)
    8b53:	00 00 00 
    8b56:	eb 14                	jmp    8b6c <func_24+0x188>
    8b58:	8b 85 98 f8 ff ff    	mov    -0x768(%rbp),%eax
    8b5e:	48 98                	cltq   
    8b60:	c6 44 05 f7 f9       	movb   $0xf9,-0x9(%rbp,%rax,1)
    8b65:	83 85 98 f8 ff ff 01 	addl   $0x1,-0x768(%rbp)
    8b6c:	83 bd 98 f8 ff ff 00 	cmpl   $0x0,-0x768(%rbp)
    8b73:	7e e3                	jle    8b58 <func_24+0x174>
    8b75:	48 c7 05 98 44 01 00 	movq   $0x0,0x14498(%rip)        # 1d018 <g_1164>
    8b7c:	00 00 00 00 
    8b80:	e9 cf 03 00 00       	jmpq   8f54 <func_24+0x570>
    8b85:	c7 85 ac f8 ff ff ff 	movl   $0xffffffff,-0x754(%rbp)
    8b8c:	ff ff ff 
    8b8f:	c7 85 b0 f8 ff ff 78 	movl   $0x74aa5b78,-0x750(%rbp)
    8b96:	5b aa 74 
    8b99:	c7 85 90 fa ff ff ff 	movl   $0xffffffff,-0x570(%rbp)
    8ba0:	ff ff ff 
    8ba3:	c7 85 94 fa ff ff f9 	movl   $0xfffffff9,-0x56c(%rbp)
    8baa:	ff ff ff 
    8bad:	c7 85 98 fa ff ff f7 	movl   $0xfffffff7,-0x568(%rbp)
    8bb4:	ff ff ff 
    8bb7:	c7 85 9c fa ff ff f9 	movl   $0xfffffff9,-0x564(%rbp)
    8bbe:	ff ff ff 
    8bc1:	c7 85 a0 fa ff ff ff 	movl   $0xffffffff,-0x560(%rbp)
    8bc8:	ff ff ff 
    8bcb:	c7 85 a4 fa ff ff ff 	movl   $0xffffffff,-0x55c(%rbp)
    8bd2:	ff ff ff 
    8bd5:	c7 85 a8 fa ff ff fc 	movl   $0xfffffffc,-0x558(%rbp)
    8bdc:	ff ff ff 
    8bdf:	c7 85 ac fa ff ff f9 	movl   $0xfffffff9,-0x554(%rbp)
    8be6:	ff ff ff 
    8be9:	c7 85 b0 fa ff ff f9 	movl   $0xfffffff9,-0x550(%rbp)
    8bf0:	ff ff ff 
    8bf3:	c7 85 b4 fa ff ff fc 	movl   $0xfffffffc,-0x54c(%rbp)
    8bfa:	ff ff ff 
    8bfd:	c7 85 b8 fa ff ff 00 	movl   $0x0,-0x548(%rbp)
    8c04:	00 00 00 
    8c07:	c7 85 bc fa ff ff fc 	movl   $0xfffffffc,-0x544(%rbp)
    8c0e:	ff ff ff 
    8c11:	c7 85 c0 fa ff ff fc 	movl   $0xfffffffc,-0x540(%rbp)
    8c18:	ff ff ff 
    8c1b:	c7 85 c4 fa ff ff 00 	movl   $0x0,-0x53c(%rbp)
    8c22:	00 00 00 
    8c25:	c7 85 c8 fa ff ff fc 	movl   $0xfffffffc,-0x538(%rbp)
    8c2c:	ff ff ff 
    8c2f:	c7 85 cc fa ff ff f9 	movl   $0xfffffff9,-0x534(%rbp)
    8c36:	ff ff ff 
    8c39:	c7 85 d0 fa ff ff f9 	movl   $0xfffffff9,-0x530(%rbp)
    8c40:	ff ff ff 
    8c43:	c7 85 d4 fa ff ff fc 	movl   $0xfffffffc,-0x52c(%rbp)
    8c4a:	ff ff ff 
    8c4d:	c7 85 d8 fa ff ff ff 	movl   $0xffffffff,-0x528(%rbp)
    8c54:	ff ff ff 
    8c57:	c7 85 dc fa ff ff ff 	movl   $0xffffffff,-0x524(%rbp)
    8c5e:	ff ff ff 
    8c61:	c7 85 e0 fa ff ff f9 	movl   $0xfffffff9,-0x520(%rbp)
    8c68:	ff ff ff 
    8c6b:	c7 85 e4 fa ff ff f7 	movl   $0xfffffff7,-0x51c(%rbp)
    8c72:	ff ff ff 
    8c75:	c7 85 e8 fa ff ff f9 	movl   $0xfffffff9,-0x518(%rbp)
    8c7c:	ff ff ff 
    8c7f:	c7 85 ec fa ff ff ff 	movl   $0xffffffff,-0x514(%rbp)
    8c86:	ff ff ff 
    8c89:	c7 85 f0 fa ff ff f9 	movl   $0xfffffff9,-0x510(%rbp)
    8c90:	ff ff ff 
    8c93:	c7 85 f4 fa ff ff 00 	movl   $0x0,-0x50c(%rbp)
    8c9a:	00 00 00 
    8c9d:	c7 85 f8 fa ff ff f7 	movl   $0xfffffff7,-0x508(%rbp)
    8ca4:	ff ff ff 
    8ca7:	c7 85 fc fa ff ff f7 	movl   $0xfffffff7,-0x504(%rbp)
    8cae:	ff ff ff 
    8cb1:	c7 85 00 fb ff ff 00 	movl   $0x0,-0x500(%rbp)
    8cb8:	00 00 00 
    8cbb:	c7 85 04 fb ff ff f9 	movl   $0xfffffff9,-0x4fc(%rbp)
    8cc2:	ff ff ff 
    8cc5:	c6 85 87 f8 ff ff 5e 	movb   $0x5e,-0x779(%rbp)
    8ccc:	c7 85 b4 f8 ff ff 2e 	movl   $0xe95fc72e,-0x74c(%rbp)
    8cd3:	c7 5f e9 
    8cd6:	48 8d 05 03 5d 01 00 	lea    0x15d03(%rip),%rax        # 1e9e0 <g_401>
    8cdd:	48 89 85 00 fa ff ff 	mov    %rax,-0x600(%rbp)
    8ce4:	48 8d 05 f5 5c 01 00 	lea    0x15cf5(%rip),%rax        # 1e9e0 <g_401>
    8ceb:	48 89 85 08 fa ff ff 	mov    %rax,-0x5f8(%rbp)
    8cf2:	48 8d 05 e7 5c 01 00 	lea    0x15ce7(%rip),%rax        # 1e9e0 <g_401>
    8cf9:	48 89 85 10 fa ff ff 	mov    %rax,-0x5f0(%rbp)
    8d00:	48 8d 05 d9 5c 01 00 	lea    0x15cd9(%rip),%rax        # 1e9e0 <g_401>
    8d07:	48 89 85 18 fa ff ff 	mov    %rax,-0x5e8(%rbp)
    8d0e:	48 8d 05 cb 5c 01 00 	lea    0x15ccb(%rip),%rax        # 1e9e0 <g_401>
    8d15:	48 89 85 20 fa ff ff 	mov    %rax,-0x5e0(%rbp)
    8d1c:	48 8d 05 bd 5c 01 00 	lea    0x15cbd(%rip),%rax        # 1e9e0 <g_401>
    8d23:	48 89 85 28 fa ff ff 	mov    %rax,-0x5d8(%rbp)
    8d2a:	48 8d 85 00 fa ff ff 	lea    -0x600(%rbp),%rax
    8d31:	48 83 c0 20          	add    $0x20,%rax
    8d35:	48 89 85 48 f9 ff ff 	mov    %rax,-0x6b8(%rbp)
    8d3c:	48 8d 05 b5 37 01 00 	lea    0x137b5(%rip),%rax        # 1c4f8 <g_427>
    8d43:	48 89 85 50 f9 ff ff 	mov    %rax,-0x6b0(%rbp)
    8d4a:	48 8d 85 90 f9 ff ff 	lea    -0x670(%rbp),%rax
    8d51:	48 89 85 58 f9 ff ff 	mov    %rax,-0x6a8(%rbp)
    8d58:	48 b8 00 9a 00 9a 00 	movabs $0x9a009a009a009a00,%rax
    8d5f:	9a 00 9a 
    8d62:	48 89 85 30 fa ff ff 	mov    %rax,-0x5d0(%rbp)
    8d69:	c6 85 38 fa ff ff 00 	movb   $0x0,-0x5c8(%rbp)
    8d70:	48 b9 94 94 ae ae 94 	movabs $0xaeae9494aeae9494,%rcx
    8d77:	94 ae ae 
    8d7a:	48 89 8d 39 fa ff ff 	mov    %rcx,-0x5c7(%rbp)
    8d81:	c6 85 41 fa ff ff 94 	movb   $0x94,-0x5bf(%rbp)
    8d88:	48 bf d9 9a d9 9a d9 	movabs $0x9ad99ad99ad99ad9,%rdi
    8d8f:	9a d9 9a 
    8d92:	48 89 bd 42 fa ff ff 	mov    %rdi,-0x5be(%rbp)
    8d99:	c6 85 4a fa ff ff d9 	movb   $0xd9,-0x5b6(%rbp)
    8da0:	48 be 94 ae ae 94 94 	movabs $0x94aeae9494aeae94,%rsi
    8da7:	ae ae 94 
    8daa:	48 89 b5 4b fa ff ff 	mov    %rsi,-0x5b5(%rbp)
    8db1:	c6 85 53 fa ff ff 94 	movb   $0x94,-0x5ad(%rbp)
    8db8:	48 89 85 54 fa ff ff 	mov    %rax,-0x5ac(%rbp)
    8dbf:	c6 85 5c fa ff ff 00 	movb   $0x0,-0x5a4(%rbp)
    8dc6:	48 89 8d 5d fa ff ff 	mov    %rcx,-0x5a3(%rbp)
    8dcd:	c6 85 65 fa ff ff 94 	movb   $0x94,-0x59b(%rbp)
    8dd4:	48 89 bd 66 fa ff ff 	mov    %rdi,-0x59a(%rbp)
    8ddb:	c6 85 6e fa ff ff d9 	movb   $0xd9,-0x592(%rbp)
    8de2:	48 89 b5 6f fa ff ff 	mov    %rsi,-0x591(%rbp)
    8de9:	c6 85 77 fa ff ff 94 	movb   $0x94,-0x589(%rbp)
    8df0:	48 89 85 78 fa ff ff 	mov    %rax,-0x588(%rbp)
    8df7:	c6 85 80 fa ff ff 00 	movb   $0x0,-0x580(%rbp)
    8dfe:	48 89 8d 81 fa ff ff 	mov    %rcx,-0x57f(%rbp)
    8e05:	c6 85 89 fa ff ff 94 	movb   $0x94,-0x577(%rbp)
    8e0c:	48 8d 85 b8 f8 ff ff 	lea    -0x748(%rbp),%rax
    8e13:	48 89 85 60 f9 ff ff 	mov    %rax,-0x6a0(%rbp)
    8e1a:	48 8d 05 c7 35 01 00 	lea    0x135c7(%rip),%rax        # 1c3e8 <g_320>
    8e21:	48 89 85 68 f9 ff ff 	mov    %rax,-0x698(%rbp)
    8e28:	48 b8 55 ed f8 ff ff 	movabs $0x55edf8fffff8ed55,%rax
    8e2f:	f8 ed 55 
    8e32:	48 89 85 a0 f9 ff ff 	mov    %rax,-0x660(%rbp)
    8e39:	66 c7 85 a8 f9 ff ff 	movw   $0x55f8,-0x658(%rbp)
    8e40:	f8 55 
    8e42:	48 b8 ff ff 53 ff 53 	movabs $0x1ffff53ff53ffff,%rax
    8e49:	ff ff 01 
    8e4c:	48 89 85 aa f9 ff ff 	mov    %rax,-0x656(%rbp)
    8e53:	66 c7 85 b2 f9 ff ff 	movw   $0xff01,-0x64e(%rbp)
    8e5a:	01 ff 
    8e5c:	48 b8 01 55 53 53 55 	movabs $0x55ff015553535501,%rax
    8e63:	01 ff 55 
    8e66:	48 89 85 b4 f9 ff ff 	mov    %rax,-0x64c(%rbp)
    8e6d:	66 c7 85 bc f9 ff ff 	movw   $0x1ff,-0x644(%rbp)
    8e74:	ff 01 
    8e76:	48 b8 ed 55 f8 55 ed 	movabs $0xfffff8ed55f855ed,%rax
    8e7d:	f8 ff ff 
    8e80:	48 89 85 be f9 ff ff 	mov    %rax,-0x642(%rbp)
    8e87:	66 c7 85 c6 f9 ff ff 	movw   $0xedf8,-0x63a(%rbp)
    8e8e:	f8 ed 
    8e90:	66 c7 85 8e f8 ff ff 	movw   $0xeeed,-0x772(%rbp)
    8e97:	ed ee 
    8e99:	48 c7 85 70 f9 ff ff 	movq   $0x0,-0x690(%rbp)
    8ea0:	00 00 00 00 
    8ea4:	48 8d 05 2d 67 01 00 	lea    0x1672d(%rip),%rax        # 1f5d8 <g_740>
    8eab:	48 89 85 78 f9 ff ff 	mov    %rax,-0x688(%rbp)
    8eb2:	48 8d 85 30 fc ff ff 	lea    -0x3d0(%rbp),%rax
    8eb9:	48 8d 15 40 ea 00 00 	lea    0xea40(%rip),%rdx        # 17900 <g_1058+0x3b3>
    8ec0:	b9 78 00 00 00       	mov    $0x78,%ecx
    8ec5:	48 89 c7             	mov    %rax,%rdi
    8ec8:	48 89 d6             	mov    %rdx,%rsi
    8ecb:	f3 48 a5             	rep movsq %ds:(%rsi),%es:(%rdi)
    8ece:	48 b8 a4 95 4a 54 64 	movabs $0x194e4064544a95a4,%rax
    8ed5:	40 4e 19 
    8ed8:	48 89 85 80 f9 ff ff 	mov    %rax,-0x680(%rbp)
    8edf:	48 c7 85 88 f9 ff ff 	movq   $0x0,-0x678(%rbp)
    8ee6:	00 00 00 00 
    8eea:	c7 85 9c f8 ff ff 00 	movl   $0x0,-0x764(%rbp)
    8ef1:	00 00 00 
    8ef4:	eb 43                	jmp    8f39 <func_24+0x555>
    8ef6:	c7 85 a0 f8 ff ff 00 	movl   $0x0,-0x760(%rbp)
    8efd:	00 00 00 
    8f00:	eb 27                	jmp    8f29 <func_24+0x545>
    8f02:	8b 85 a0 f8 ff ff    	mov    -0x760(%rbp),%eax
    8f08:	48 63 d0             	movslq %eax,%rdx
    8f0b:	8b 85 9c f8 ff ff    	mov    -0x764(%rbp),%eax
    8f11:	48 98                	cltq   
    8f13:	48 01 d0             	add    %rdx,%rax
    8f16:	48 c7 84 c5 d0 f9 ff 	movq   $0xfffffffffffffff8,-0x630(%rbp,%rax,8)
    8f1d:	ff f8 ff ff ff 
    8f22:	83 85 a0 f8 ff ff 01 	addl   $0x1,-0x760(%rbp)
    8f29:	83 bd a0 f8 ff ff 00 	cmpl   $0x0,-0x760(%rbp)
    8f30:	7e d0                	jle    8f02 <func_24+0x51e>
    8f32:	83 85 9c f8 ff ff 01 	addl   $0x1,-0x764(%rbp)
    8f39:	83 bd 9c f8 ff ff 04 	cmpl   $0x4,-0x764(%rbp)
    8f40:	7e b4                	jle    8ef6 <func_24+0x512>
    8f42:	48 8b 05 cf 40 01 00 	mov    0x140cf(%rip),%rax        # 1d018 <g_1164>
    8f49:	48 83 c0 01          	add    $0x1,%rax
    8f4d:	48 89 05 c4 40 01 00 	mov    %rax,0x140c4(%rip)        # 1d018 <g_1164>
    8f54:	48 8b 05 bd 40 01 00 	mov    0x140bd(%rip),%rax        # 1d018 <g_1164>
    8f5b:	48 83 f8 03          	cmp    $0x3,%rax
    8f5f:	0f 86 20 fc ff ff    	jbe    8b85 <func_24+0x1a1>
    8f65:	48 8b 85 00 f9 ff ff 	mov    -0x700(%rbp),%rax
    8f6c:	8b 00                	mov    (%rax),%eax
    8f6e:	0f be c0             	movsbl %al,%eax
    8f71:	be 01 00 00 00       	mov    $0x1,%esi
    8f76:	89 c7                	mov    %eax,%edi
    8f78:	e8 71 c3 ff ff       	callq  52ee <safe_lshift_func_int8_t_s_u>
    8f7d:	84 c0                	test   %al,%al
    8f7f:	0f 85 99 00 00 00    	jne    901e <func_24+0x63a>
    8f85:	48 8b 05 54 5a 01 00 	mov    0x15a54(%rip),%rax        # 1e9e0 <g_401>
    8f8c:	48 8b 00             	mov    (%rax),%rax
    8f8f:	0f b6 00             	movzbl (%rax),%eax
    8f92:	84 c0                	test   %al,%al
    8f94:	0f 95 c0             	setne  %al
    8f97:	0f b6 c0             	movzbl %al,%eax
    8f9a:	be 01 00 00 00       	mov    $0x1,%esi
    8f9f:	89 c7                	mov    %eax,%edi
    8fa1:	e8 fb c2 ff ff       	callq  52a1 <safe_lshift_func_int8_t_s_s>
    8fa6:	48 8b 05 23 66 01 00 	mov    0x16623(%rip),%rax        # 1f5d0 <g_637>
    8fad:	0f b7 00             	movzwl (%rax),%eax
    8fb0:	66 85 c0             	test   %ax,%ax
    8fb3:	75 2f                	jne    8fe4 <func_24+0x600>
    8fb5:	48 8b 85 e8 f8 ff ff 	mov    -0x718(%rbp),%rax
    8fbc:	48 8b 95 10 f9 ff ff 	mov    -0x6f0(%rbp),%rdx
    8fc3:	48 89 10             	mov    %rdx,(%rax)
    8fc6:	48 8b 85 e8 f8 ff ff 	mov    -0x718(%rbp),%rax
    8fcd:	48 8b 00             	mov    (%rax),%rax
    8fd0:	48 85 c0             	test   %rax,%rax
    8fd3:	0f 94 c0             	sete   %al
    8fd6:	0f b6 d0             	movzbl %al,%edx
    8fd9:	48 8b 85 00 f9 ff ff 	mov    -0x700(%rbp),%rax
    8fe0:	8b 00                	mov    (%rax),%eax
    8fe2:	39 c2                	cmp    %eax,%edx
    8fe4:	48 8b 15 e5 59 01 00 	mov    0x159e5(%rip),%rdx        # 1e9d0 <g_274>
    8feb:	48 8b 05 de 59 01 00 	mov    0x159de(%rip),%rax        # 1e9d0 <g_274>
    8ff2:	48 8b 12             	mov    (%rdx),%rdx
    8ff5:	48 89 10             	mov    %rdx,(%rax)
    8ff8:	48 8b 00             	mov    (%rax),%rax
    8ffb:	48 be 6f 19 b7 d9 ac 	movabs $0xf541a3acd9b7196f,%rsi
    9002:	a3 41 f5 
    9005:	48 89 c7             	mov    %rax,%rdi
    9008:	e8 ea c9 ff ff       	callq  59f7 <safe_div_func_int64_t_s_s>
    900d:	48 8b 95 f8 f8 ff ff 	mov    -0x708(%rbp),%rdx
    9014:	8b 12                	mov    (%rdx),%edx
    9016:	48 63 d2             	movslq %edx,%rdx
    9019:	48 39 d0             	cmp    %rdx,%rax
    901c:	74 10                	je     902e <func_24+0x64a>
    901e:	83 bd 7c f8 ff ff 00 	cmpl   $0x0,-0x784(%rbp)
    9025:	74 07                	je     902e <func_24+0x64a>
    9027:	b8 01 00 00 00       	mov    $0x1,%eax
    902c:	eb 05                	jmp    9033 <func_24+0x64f>
    902e:	b8 00 00 00 00       	mov    $0x0,%eax
    9033:	f7 d0                	not    %eax
    9035:	48 63 d0             	movslq %eax,%rdx
    9038:	48 8b 05 89 59 01 00 	mov    0x15989(%rip),%rax        # 1e9c8 <g_217>
    903f:	48 8b 00             	mov    (%rax),%rax
    9042:	48 09 c2             	or     %rax,%rdx
    9045:	48 8b 85 70 f8 ff ff 	mov    -0x790(%rbp),%rax
    904c:	48 39 c2             	cmp    %rax,%rdx
    904f:	74 33                	je     9084 <func_24+0x6a0>
    9051:	48 8b 85 00 f9 ff ff 	mov    -0x700(%rbp),%rax
    9058:	8b 10                	mov    (%rax),%edx
    905a:	48 8b 85 f8 f8 ff ff 	mov    -0x708(%rbp),%rax
    9061:	89 10                	mov    %edx,(%rax)
    9063:	48 8b 05 96 67 01 00 	mov    0x16796(%rip),%rax        # 1f800 <g_1783>
    906a:	48 8b 00             	mov    (%rax),%rax
    906d:	48 8b 95 68 f8 ff ff 	mov    -0x798(%rbp),%rdx
    9074:	48 89 10             	mov    %rdx,(%rax)
    9077:	48 83 85 18 f9 ff ff 	addq   $0x1,-0x6e8(%rbp)
    907e:	01 
    907f:	e9 a5 00 00 00       	jmpq   9129 <func_24+0x745>
    9084:	48 8d 85 94 f8 ff ff 	lea    -0x76c(%rbp),%rax
    908b:	48 89 85 28 f9 ff ff 	mov    %rax,-0x6d8(%rbp)
    9092:	48 8d 05 1f 71 01 00 	lea    0x1711f(%rip),%rax        # 201b8 <g_421>
    9099:	48 89 85 30 f9 ff ff 	mov    %rax,-0x6d0(%rbp)
    90a0:	66 c7 85 8a f8 ff ff 	movw   $0x4a8a,-0x776(%rbp)
    90a7:	8a 4a 
    90a9:	66 c7 85 8c f8 ff ff 	movw   $0xf003,-0x774(%rbp)
    90b0:	03 f0 
    90b2:	48 c7 85 38 f9 ff ff 	movq   $0x0,-0x6c8(%rbp)
    90b9:	00 00 00 00 
    90bd:	48 c7 85 c0 f8 ff ff 	movq   $0x0,-0x740(%rbp)
    90c4:	00 00 00 00 
    90c8:	48 8d 85 c0 f8 ff ff 	lea    -0x740(%rbp),%rax
    90cf:	48 89 85 40 f9 ff ff 	mov    %rax,-0x6c0(%rbp)
    90d6:	48 8b 05 1b 67 01 00 	mov    0x1671b(%rip),%rax        # 1f7f8 <g_1784>
    90dd:	48 8b 95 28 f9 ff ff 	mov    -0x6d8(%rbp),%rdx
    90e4:	48 89 10             	mov    %rdx,(%rax)
    90e7:	48 8d 05 92 2f 01 00 	lea    0x12f92(%rip),%rax        # 1c080 <g_252>
    90ee:	48 39 85 38 f9 ff ff 	cmp    %rax,-0x6c8(%rbp)
    90f5:	0f 95 c0             	setne  %al
    90f8:	0f b6 c0             	movzbl %al,%eax
    90fb:	8b 95 7c f8 ff ff    	mov    -0x784(%rbp),%edx
    9101:	89 d6                	mov    %edx,%esi
    9103:	89 c7                	mov    %eax,%edi
    9105:	e8 b4 cc ff ff       	callq  5dbe <safe_lshift_func_uint16_t_u_s>
    910a:	89 c2                	mov    %eax,%edx
    910c:	48 8b 05 95 66 01 00 	mov    0x16695(%rip),%rax        # 1f7a8 <g_1627>
    9113:	0f b7 d2             	movzwl %dx,%edx
    9116:	89 10                	mov    %edx,(%rax)
    9118:	48 8b 95 c0 f8 ff ff 	mov    -0x740(%rbp),%rdx
    911f:	48 8b 85 40 f9 ff ff 	mov    -0x6c0(%rbp),%rax
    9126:	48 89 10             	mov    %rdx,(%rax)
    9129:	48 8b 85 00 f9 ff ff 	mov    -0x700(%rbp),%rax
    9130:	8b 10                	mov    (%rax),%edx
    9132:	48 8b 85 20 f9 ff ff 	mov    -0x6e0(%rbp),%rax
    9139:	89 10                	mov    %edx,(%rax)
    913b:	48 8b 85 00 f9 ff ff 	mov    -0x700(%rbp),%rax
    9142:	8b 10                	mov    (%rax),%edx
    9144:	48 8b 05 5d 66 01 00 	mov    0x1665d(%rip),%rax        # 1f7a8 <g_1627>
    914b:	8b 30                	mov    (%rax),%esi
    914d:	48 8b 85 f8 f8 ff ff 	mov    -0x708(%rbp),%rax
    9154:	8b 08                	mov    (%rax),%ecx
    9156:	48 8b 05 4b 66 01 00 	mov    0x1664b(%rip),%rax        # 1f7a8 <g_1627>
    915d:	21 f1                	and    %esi,%ecx
    915f:	89 08                	mov    %ecx,(%rax)
    9161:	8b 00                	mov    (%rax),%eax
    9163:	89 d6                	mov    %edx,%esi
    9165:	89 c7                	mov    %eax,%edi
    9167:	e8 4a c4 ff ff       	callq  55b6 <safe_add_func_int32_t_s_s>
    916c:	89 c2                	mov    %eax,%edx
    916e:	48 8b 05 e3 65 01 00 	mov    0x165e3(%rip),%rax        # 1f758 <g_1361>
    9175:	48 8b 00             	mov    (%rax),%rax
    9178:	66 89 10             	mov    %dx,(%rax)
    917b:	0f b7 00             	movzwl (%rax),%eax
    917e:	f7 d0                	not    %eax
    9180:	66 c1 e8 0f          	shr    $0xf,%ax
    9184:	89 c2                	mov    %eax,%edx
    9186:	48 8b 05 3b 58 01 00 	mov    0x1583b(%rip),%rax        # 1e9c8 <g_217>
    918d:	0f b6 d2             	movzbl %dl,%edx
    9190:	48 89 10             	mov    %rdx,(%rax)
    9193:	48 8b 05 66 66 01 00 	mov    0x16666(%rip),%rax        # 1f800 <g_1783>
    919a:	48 8d 95 68 f8 ff ff 	lea    -0x798(%rbp),%rdx
    91a1:	48 89 10             	mov    %rdx,(%rax)
    91a4:	48 8b 10             	mov    (%rax),%rdx
    91a7:	48 8d 85 68 f8 ff ff 	lea    -0x798(%rbp),%rax
    91ae:	48 39 c2             	cmp    %rax,%rdx
    91b1:	0f 95 c0             	setne  %al
    91b4:	0f b6 c0             	movzbl %al,%eax
    91b7:	be 92 00 00 00       	mov    $0x92,%esi
    91bc:	89 c7                	mov    %eax,%edi
    91be:	e8 eb c9 ff ff       	callq  5bae <safe_mod_func_uint8_t_u_u>
    91c3:	0f b6 c0             	movzbl %al,%eax
    91c6:	48 0b 85 60 f8 ff ff 	or     -0x7a0(%rbp),%rax
    91cd:	48 35 06 bd 00 00    	xor    $0xbd06,%rax
    91d3:	48 89 c2             	mov    %rax,%rdx
    91d6:	48 8b 85 f8 f8 ff ff 	mov    -0x708(%rbp),%rax
    91dd:	8b 00                	mov    (%rax),%eax
    91df:	48 98                	cltq   
    91e1:	48 39 c2             	cmp    %rax,%rdx
    91e4:	48 8b 85 f8 f8 ff ff 	mov    -0x708(%rbp),%rax
    91eb:	8b 00                	mov    (%rax),%eax
    91ed:	be ac 3d 2d c2       	mov    $0xc22d3dac,%esi
    91f2:	89 c7                	mov    %eax,%edi
    91f4:	e8 04 cd ff ff       	callq  5efd <safe_mod_func_uint32_t_u_u>
    91f9:	3d 7e 23 00 00       	cmp    $0x237e,%eax
    91fe:	0f 95 c0             	setne  %al
    9201:	0f b6 d0             	movzbl %al,%edx
    9204:	48 8b 85 00 f9 ff ff 	mov    -0x700(%rbp),%rax
    920b:	89 10                	mov    %edx,(%rax)
    920d:	48 8b 05 94 65 01 00 	mov    0x16594(%rip),%rax        # 1f7a8 <g_1627>
    9214:	c7 00 7c db 16 1d    	movl   $0x1d16db7c,(%rax)
    921a:	48 8b 85 f8 f8 ff ff 	mov    -0x708(%rbp),%rax
    9221:	8b 00                	mov    (%rax),%eax
    9223:	48 8b 7d f8          	mov    -0x8(%rbp),%rdi
    9227:	64 48 33 3c 25 28 00 	xor    %fs:0x28,%rdi
    922e:	00 00 
    9230:	74 05                	je     9237 <func_24+0x853>
    9232:	e8 39 be ff ff       	callq  5070 <__stack_chk_fail@plt>
    9237:	c9                   	leaveq 
    9238:	c3                   	retq   

0000000000009239 <func_30>:
    9239:	f3 0f 1e fa          	endbr64 
    923d:	55                   	push   %rbp
    923e:	48 89 e5             	mov    %rsp,%rbp
    9241:	41 57                	push   %r15
    9243:	41 56                	push   %r14
    9245:	41 55                	push   %r13
    9247:	41 54                	push   %r12
    9249:	53                   	push   %rbx
    924a:	48 81 ec 00 10 00 00 	sub    $0x1000,%rsp
    9251:	48 83 0c 24 00       	orq    $0x0,(%rsp)
    9256:	48 81 ec 58 03 00 00 	sub    $0x358,%rsp
    925d:	48 89 bd 88 ec ff ff 	mov    %rdi,-0x1378(%rbp)
    9264:	89 f0                	mov    %esi,%eax
    9266:	88 85 84 ec ff ff    	mov    %al,-0x137c(%rbp)
    926c:	64 48 8b 04 25 28 00 	mov    %fs:0x28,%rax
    9273:	00 00 
    9275:	48 89 45 c8          	mov    %rax,-0x38(%rbp)
    9279:	31 c0                	xor    %eax,%eax
    927b:	66 c7 85 a6 ec ff ff 	movw   $0xfffb,-0x135a(%rbp)
    9282:	fb ff 
    9284:	48 c7 85 28 ed ff ff 	movq   $0x0,-0x12d8(%rbp)
    928b:	00 00 00 00 
    928f:	48 c7 85 a0 ed ff ff 	movq   $0x0,-0x1260(%rbp)
    9296:	00 00 00 00 
    929a:	48 8d 85 28 ed ff ff 	lea    -0x12d8(%rbp),%rax
    92a1:	48 89 85 a8 ed ff ff 	mov    %rax,-0x1258(%rbp)
    92a8:	48 c7 85 30 ed ff ff 	movq   $0x0,-0x12d0(%rbp)
    92af:	00 00 00 00 
    92b3:	48 8d 85 30 ed ff ff 	lea    -0x12d0(%rbp),%rax
    92ba:	48 89 85 b0 ed ff ff 	mov    %rax,-0x1250(%rbp)
    92c1:	c7 85 b0 ec ff ff f8 	movl   $0x5d83aaf8,-0x1350(%rbp)
    92c8:	aa 83 5d 
    92cb:	48 c7 85 38 ed ff ff 	movq   $0x0,-0x12c8(%rbp)
    92d2:	00 00 00 00 
    92d6:	48 8d 05 5f 2d 01 00 	lea    0x12d5f(%rip),%rax        # 1c03c <g_58>
    92dd:	48 89 85 b8 ed ff ff 	mov    %rax,-0x1248(%rbp)
    92e4:	48 8d 05 cd 56 01 00 	lea    0x156cd(%rip),%rax        # 1e9b8 <g_87>
    92eb:	48 89 85 40 ed ff ff 	mov    %rax,-0x12c0(%rbp)
    92f2:	48 8d 85 40 ed ff ff 	lea    -0x12c0(%rbp),%rax
    92f9:	48 89 85 c0 ed ff ff 	mov    %rax,-0x1240(%rbp)
    9300:	48 c7 85 c8 ed ff ff 	movq   $0x0,-0x1238(%rbp)
    9307:	00 00 00 00 
    930b:	48 8d 85 40 ed ff ff 	lea    -0x12c0(%rbp),%rax
    9312:	48 89 85 48 ed ff ff 	mov    %rax,-0x12b8(%rbp)
    9319:	48 8d 85 48 ed ff ff 	lea    -0x12b8(%rbp),%rax
    9320:	48 89 85 d0 ed ff ff 	mov    %rax,-0x1230(%rbp)
    9327:	48 8d 85 40 ed ff ff 	lea    -0x12c0(%rbp),%rax
    932e:	48 89 85 d8 ed ff ff 	mov    %rax,-0x1228(%rbp)
    9335:	48 8d 05 44 2d 01 00 	lea    0x12d44(%rip),%rax        # 1c080 <g_252>
    933c:	48 89 85 50 ed ff ff 	mov    %rax,-0x12b0(%rbp)
    9343:	48 8d 85 50 ed ff ff 	lea    -0x12b0(%rbp),%rax
    934a:	48 89 85 e0 ed ff ff 	mov    %rax,-0x1220(%rbp)
    9351:	48 c7 85 e8 ed ff ff 	movq   $0x0,-0x1218(%rbp)
    9358:	00 00 00 00 
    935c:	48 c7 85 f0 ed ff ff 	movq   $0x0,-0x1210(%rbp)
    9363:	00 00 00 00 
    9367:	c7 85 50 f0 ff ff 08 	movl   $0x88f8f08,-0xfb0(%rbp)
    936e:	8f 8f 08 
    9371:	66 c7 85 54 f0 ff ff 	movw   $0x8fd,-0xfac(%rbp)
    9378:	fd 08 
    937a:	c7 85 56 f0 ff ff 08 	movl   $0x884f908,-0xfaa(%rbp)
    9381:	f9 84 08 
    9384:	66 c7 85 5a f0 ff ff 	movw   $0x8408,-0xfa6(%rbp)
    938b:	08 84 
    938d:	c7 85 5c f0 ff ff 8f 	movl   $0xfd088f8f,-0xfa4(%rbp)
    9394:	8f 08 fd 
    9397:	66 c7 85 60 f0 ff ff 	movw   $0x8f08,-0xfa0(%rbp)
    939e:	08 8f 
    93a0:	c7 85 62 f0 ff ff 08 	movl   $0xfdfdf908,-0xf9e(%rbp)
    93a7:	f9 fd fd 
    93aa:	66 c7 85 66 f0 ff ff 	movw   $0x8f9,-0xf9a(%rbp)
    93b1:	f9 08 
    93b3:	c7 85 68 f0 ff ff 8f 	movl   $0x8fd088f,-0xf98(%rbp)
    93ba:	08 fd 08 
    93bd:	66 c7 85 6c f0 ff ff 	movw   $0x8f8f,-0xf94(%rbp)
    93c4:	8f 8f 
    93c6:	c7 85 6e f0 ff ff 84 	movl   $0x84080884,-0xf92(%rbp)
    93cd:	08 08 84 
    93d0:	66 c7 85 72 f0 ff ff 	movw   $0x84f9,-0xf8e(%rbp)
    93d7:	f9 84 
    93d9:	c7 85 74 f0 ff ff 84 	movl   $0x884f984,-0xf8c(%rbp)
    93e0:	f9 84 08 
    93e3:	66 c7 85 78 f0 ff ff 	movw   $0x8408,-0xf88(%rbp)
    93ea:	08 84 
    93ec:	c7 85 7a f0 ff ff 8f 	movl   $0xfd088f8f,-0xf86(%rbp)
    93f3:	8f 08 fd 
    93f6:	66 c7 85 7e f0 ff ff 	movw   $0x8f08,-0xf82(%rbp)
    93fd:	08 8f 
    93ff:	c7 85 80 f0 ff ff 08 	movl   $0xfdfdf908,-0xf80(%rbp)
    9406:	f9 fd fd 
    9409:	66 c7 85 84 f0 ff ff 	movw   $0x8f9,-0xf7c(%rbp)
    9410:	f9 08 
    9412:	48 8d 05 97 55 01 00 	lea    0x15597(%rip),%rax        # 1e9b0 <g_75>
    9419:	48 89 85 58 ed ff ff 	mov    %rax,-0x12a8(%rbp)
    9420:	48 c7 85 f8 ed ff ff 	movq   $0x0,-0x1208(%rbp)
    9427:	00 00 00 00 
    942b:	48 8d 85 70 f5 ff ff 	lea    -0xa90(%rbp),%rax
    9432:	48 8d 15 87 50 01 00 	lea    0x15087(%rip),%rdx        # 1e4c0 <g_2462+0x20>
    9439:	b9 54 00 00 00       	mov    $0x54,%ecx
    943e:	48 89 c7             	mov    %rax,%rdi
    9441:	48 89 d6             	mov    %rdx,%rsi
    9444:	f3 48 a5             	rep movsq %ds:(%rsi),%es:(%rdi)
    9447:	48 8d 85 70 f5 ff ff 	lea    -0xa90(%rbp),%rax
    944e:	48 83 c0 68          	add    $0x68,%rax
    9452:	48 89 85 00 ee ff ff 	mov    %rax,-0x1200(%rbp)
    9459:	48 8d 05 26 30 01 00 	lea    0x13026(%rip),%rax        # 1c486 <g_423+0x66>
    9460:	48 89 85 60 ed ff ff 	mov    %rax,-0x12a0(%rbp)
    9467:	48 8d 85 60 ed ff ff 	lea    -0x12a0(%rbp),%rax
    946e:	48 89 85 08 ee ff ff 	mov    %rax,-0x11f8(%rbp)
    9475:	48 8d 05 5c 61 01 00 	lea    0x1615c(%rip),%rax        # 1f5d8 <g_740>
    947c:	48 89 85 10 ee ff ff 	mov    %rax,-0x11f0(%rbp)
    9483:	c7 85 c8 ec ff ff 00 	movl   $0x0,-0x1338(%rbp)
    948a:	00 00 00 
    948d:	48 8d 85 38 ed ff ff 	lea    -0x12c8(%rbp),%rax
    9494:	48 89 85 90 f0 ff ff 	mov    %rax,-0xf70(%rbp)
    949b:	48 8d 85 38 ed ff ff 	lea    -0x12c8(%rbp),%rax
    94a2:	48 89 85 98 f0 ff ff 	mov    %rax,-0xf68(%rbp)
    94a9:	48 8d 85 38 ed ff ff 	lea    -0x12c8(%rbp),%rax
    94b0:	48 89 85 a0 f0 ff ff 	mov    %rax,-0xf60(%rbp)
    94b7:	48 8d 85 38 ed ff ff 	lea    -0x12c8(%rbp),%rax
    94be:	48 89 85 a8 f0 ff ff 	mov    %rax,-0xf58(%rbp)
    94c5:	48 8d 85 38 ed ff ff 	lea    -0x12c8(%rbp),%rax
    94cc:	48 89 85 b0 f0 ff ff 	mov    %rax,-0xf50(%rbp)
    94d3:	48 8d 85 38 ed ff ff 	lea    -0x12c8(%rbp),%rax
    94da:	48 89 85 b8 f0 ff ff 	mov    %rax,-0xf48(%rbp)
    94e1:	48 8d 85 38 ed ff ff 	lea    -0x12c8(%rbp),%rax
    94e8:	48 89 85 c0 f0 ff ff 	mov    %rax,-0xf40(%rbp)
    94ef:	c6 85 9f ec ff ff 00 	movb   $0x0,-0x1361(%rbp)
    94f6:	c7 85 d0 f0 ff ff 60 	movl   $0xe7946560,-0xf30(%rbp)
    94fd:	65 94 e7 
    9500:	c7 85 d4 f0 ff ff f8 	movl   $0xfffffff8,-0xf2c(%rbp)
    9507:	ff ff ff 
    950a:	c7 85 d8 f0 ff ff f8 	movl   $0xfffffff8,-0xf28(%rbp)
    9511:	ff ff ff 
    9514:	c7 85 dc f0 ff ff 60 	movl   $0xe7946560,-0xf24(%rbp)
    951b:	65 94 e7 
    951e:	c7 85 e0 f0 ff ff 09 	movl   $0x46870009,-0xf20(%rbp)
    9525:	00 87 46 
    9528:	c7 85 e4 f0 ff ff a9 	movl   $0x4d2c31a9,-0xf1c(%rbp)
    952f:	31 2c 4d 
    9532:	c7 85 e8 f0 ff ff 09 	movl   $0x46870009,-0xf18(%rbp)
    9539:	00 87 46 
    953c:	c7 85 ec f0 ff ff 60 	movl   $0xe7946560,-0xf14(%rbp)
    9543:	65 94 e7 
    9546:	c7 85 f0 f0 ff ff f8 	movl   $0xfffffff8,-0xf10(%rbp)
    954d:	ff ff ff 
    9550:	c7 85 f4 f0 ff ff f8 	movl   $0xfffffff8,-0xf0c(%rbp)
    9557:	ff ff ff 
    955a:	c7 85 f8 f0 ff ff 60 	movl   $0xe7946560,-0xf08(%rbp)
    9561:	65 94 e7 
    9564:	c7 85 fc f0 ff ff 09 	movl   $0x46870009,-0xf04(%rbp)
    956b:	00 87 46 
    956e:	c7 85 00 f1 ff ff a9 	movl   $0x4d2c31a9,-0xf00(%rbp)
    9575:	31 2c 4d 
    9578:	c7 85 04 f1 ff ff 09 	movl   $0x46870009,-0xefc(%rbp)
    957f:	00 87 46 
    9582:	c7 85 e8 ec ff ff c2 	movl   $0x70a4dc2,-0x1318(%rbp)
    9589:	4d 0a 07 
    958c:	c7 85 b0 f1 ff ff 5c 	movl   $0x81846d5c,-0xe50(%rbp)
    9593:	6d 84 81 
    9596:	c7 85 b4 f1 ff ff 3f 	movl   $0x110a6d3f,-0xe4c(%rbp)
    959d:	6d 0a 11 
    95a0:	c7 85 b8 f1 ff ff f7 	movl   $0xfffffff7,-0xe48(%rbp)
    95a7:	ff ff ff 
    95aa:	c7 85 bc f1 ff ff fe 	movl   $0xfffffffe,-0xe44(%rbp)
    95b1:	ff ff ff 
    95b4:	c7 85 c0 f1 ff ff f6 	movl   $0xfffffff6,-0xe40(%rbp)
    95bb:	ff ff ff 
    95be:	c7 85 c4 f1 ff ff 5c 	movl   $0x81846d5c,-0xe3c(%rbp)
    95c5:	6d 84 81 
    95c8:	c7 85 c8 f1 ff ff fe 	movl   $0xfffffffe,-0xe38(%rbp)
    95cf:	ff ff ff 
    95d2:	c7 85 cc f1 ff ff 01 	movl   $0x1,-0xe34(%rbp)
    95d9:	00 00 00 
    95dc:	c7 85 d0 f1 ff ff fe 	movl   $0xfffffffe,-0xe30(%rbp)
    95e3:	ff ff ff 
    95e6:	c7 85 d4 f1 ff ff 5c 	movl   $0x81846d5c,-0xe2c(%rbp)
    95ed:	6d 84 81 
    95f0:	c7 85 d8 f1 ff ff f6 	movl   $0xfffffff6,-0xe28(%rbp)
    95f7:	ff ff ff 
    95fa:	c7 85 dc f1 ff ff fe 	movl   $0xfffffffe,-0xe24(%rbp)
    9601:	ff ff ff 
    9604:	c7 85 e0 f1 ff ff f7 	movl   $0xfffffff7,-0xe20(%rbp)
    960b:	ff ff ff 
    960e:	c7 85 e4 f1 ff ff 3f 	movl   $0x110a6d3f,-0xe1c(%rbp)
    9615:	6d 0a 11 
    9618:	c7 85 e8 f1 ff ff 5c 	movl   $0x81846d5c,-0xe18(%rbp)
    961f:	6d 84 81 
    9622:	c7 85 ec f1 ff ff 5c 	movl   $0x81846d5c,-0xe14(%rbp)
    9629:	6d 84 81 
    962c:	c7 85 f0 f1 ff ff 3f 	movl   $0x110a6d3f,-0xe10(%rbp)
    9633:	6d 0a 11 
    9636:	c7 85 f4 f1 ff ff f7 	movl   $0xfffffff7,-0xe0c(%rbp)
    963d:	ff ff ff 
    9640:	c7 85 f8 f1 ff ff fe 	movl   $0xfffffffe,-0xe08(%rbp)
    9647:	ff ff ff 
    964a:	c7 85 fc f1 ff ff f6 	movl   $0xfffffff6,-0xe04(%rbp)
    9651:	ff ff ff 
    9654:	c7 85 00 f2 ff ff 5c 	movl   $0x81846d5c,-0xe00(%rbp)
    965b:	6d 84 81 
    965e:	c7 85 04 f2 ff ff fe 	movl   $0xfffffffe,-0xdfc(%rbp)
    9665:	ff ff ff 
    9668:	c7 85 08 f2 ff ff 01 	movl   $0x1,-0xdf8(%rbp)
    966f:	00 00 00 
    9672:	c7 85 0c f2 ff ff fe 	movl   $0xfffffffe,-0xdf4(%rbp)
    9679:	ff ff ff 
    967c:	c7 85 10 f2 ff ff 5c 	movl   $0x81846d5c,-0xdf0(%rbp)
    9683:	6d 84 81 
    9686:	c7 85 14 f2 ff ff f6 	movl   $0xfffffff6,-0xdec(%rbp)
    968d:	ff ff ff 
    9690:	c7 85 18 f2 ff ff fe 	movl   $0xfffffffe,-0xde8(%rbp)
    9697:	ff ff ff 
    969a:	c7 85 1c f2 ff ff f7 	movl   $0xfffffff7,-0xde4(%rbp)
    96a1:	ff ff ff 
    96a4:	c7 85 20 f2 ff ff 3f 	movl   $0x110a6d3f,-0xde0(%rbp)
    96ab:	6d 0a 11 
    96ae:	c7 85 24 f2 ff ff 5c 	movl   $0x81846d5c,-0xddc(%rbp)
    96b5:	6d 84 81 
    96b8:	c7 85 28 f2 ff ff 5c 	movl   $0x81846d5c,-0xdd8(%rbp)
    96bf:	6d 84 81 
    96c2:	c7 85 2c f2 ff ff 3f 	movl   $0x110a6d3f,-0xdd4(%rbp)
    96c9:	6d 0a 11 
    96cc:	c7 85 30 f2 ff ff f7 	movl   $0xfffffff7,-0xdd0(%rbp)
    96d3:	ff ff ff 
    96d6:	c7 85 34 f2 ff ff fe 	movl   $0xfffffffe,-0xdcc(%rbp)
    96dd:	ff ff ff 
    96e0:	c7 85 38 f2 ff ff f6 	movl   $0xfffffff6,-0xdc8(%rbp)
    96e7:	ff ff ff 
    96ea:	48 8d 05 4f 29 01 00 	lea    0x1294f(%rip),%rax        # 1c040 <g_69>
    96f1:	48 89 85 18 ee ff ff 	mov    %rax,-0x11e8(%rbp)
    96f8:	c7 85 cc ec ff ff 00 	movl   $0x0,-0x1334(%rbp)
    96ff:	00 00 00 
    9702:	eb 1a                	jmp    971e <func_30+0x4e5>
    9704:	8b 85 cc ec ff ff    	mov    -0x1334(%rbp),%eax
    970a:	48 98                	cltq   
    970c:	c7 84 85 04 f0 ff ff 	movl   $0x1,-0xffc(%rbp,%rax,4)
    9713:	01 00 00 00 
    9717:	83 85 cc ec ff ff 01 	addl   $0x1,-0x1334(%rbp)
    971e:	83 bd cc ec ff ff 02 	cmpl   $0x2,-0x1334(%rbp)
    9725:	7e dd                	jle    9704 <func_30+0x4cb>
    9727:	90                   	nop
    9728:	8b 85 0c f0 ff ff    	mov    -0xff4(%rbp),%eax
    972e:	41 89 c5             	mov    %eax,%r13d
    9731:	8b 85 0c f0 ff ff    	mov    -0xff4(%rbp),%eax
    9737:	0f b6 d8             	movzbl %al,%ebx
    973a:	44 0f b7 a5 a6 ec ff 	movzwl -0x135a(%rbp),%r12d
    9741:	ff 
    9742:	8b 85 0c f0 ff ff    	mov    -0xff4(%rbp),%eax
    9748:	0f b7 d0             	movzwl %ax,%edx
    974b:	48 8b 05 46 5f 01 00 	mov    0x15f46(%rip),%rax        # 1f698 <g_884>
    9752:	48 8b 00             	mov    (%rax),%rax
    9755:	8b 08                	mov    (%rax),%ecx
    9757:	48 8b 05 3a 5f 01 00 	mov    0x15f3a(%rip),%rax        # 1f698 <g_884>
    975e:	48 8b 00             	mov    (%rax),%rax
    9761:	83 c9 02             	or     $0x2,%ecx
    9764:	89 08                	mov    %ecx,(%rax)
    9766:	8b 30                	mov    (%rax),%esi
    9768:	48 8b 8d 28 ed ff ff 	mov    -0x12d8(%rbp),%rcx
    976f:	48 8b 85 a8 ed ff ff 	mov    -0x1258(%rbp),%rax
    9776:	48 89 08             	mov    %rcx,(%rax)
    9779:	48 8b 85 a8 ed ff ff 	mov    -0x1258(%rbp),%rax
    9780:	48 8b 08             	mov    (%rax),%rcx
    9783:	48 8b 85 b0 ed ff ff 	mov    -0x1250(%rbp),%rax
    978a:	48 89 08             	mov    %rcx,(%rax)
    978d:	48 8b 85 b0 ed ff ff 	mov    -0x1250(%rbp),%rax
    9794:	48 8b 08             	mov    (%rax),%rcx
    9797:	48 8d 05 f2 5e 01 00 	lea    0x15ef2(%rip),%rax        # 1f690 <g_882>
    979e:	48 89 05 3b 5f 01 00 	mov    %rax,0x15f3b(%rip)        # 1f6e0 <g_1108>
    97a5:	48 8b 05 34 5f 01 00 	mov    0x15f34(%rip),%rax        # 1f6e0 <g_1108>
    97ac:	48 39 c1             	cmp    %rax,%rcx
    97af:	0f 95 c0             	setne  %al
    97b2:	0f b6 c8             	movzbl %al,%ecx
    97b5:	8b 85 b0 ec ff ff    	mov    -0x1350(%rbp),%eax
    97bb:	39 c1                	cmp    %eax,%ecx
    97bd:	74 07                	je     97c6 <func_30+0x58d>
    97bf:	b8 01 00 00 00       	mov    $0x1,%eax
    97c4:	eb 05                	jmp    97cb <func_30+0x592>
    97c6:	b8 00 00 00 00       	mov    $0x0,%eax
    97cb:	f7 d0                	not    %eax
    97cd:	39 c6                	cmp    %eax,%esi
    97cf:	72 0d                	jb     97de <func_30+0x5a5>
    97d1:	48 8b 85 88 ec ff ff 	mov    -0x1378(%rbp),%rax
    97d8:	48 8b 00             	mov    (%rax),%rax
    97db:	48 85 c0             	test   %rax,%rax
    97de:	89 d6                	mov    %edx,%esi
    97e0:	bf 00 00 00 00       	mov    $0x0,%edi
    97e5:	e8 53 c5 ff ff       	callq  5d3d <safe_mul_func_uint16_t_u_u>
    97ea:	0f b6 95 84 ec ff ff 	movzbl -0x137c(%rbp),%edx
    97f1:	0f b6 d2             	movzbl %dl,%edx
    97f4:	66 39 d0             	cmp    %dx,%ax
    97f7:	0f 95 c0             	setne  %al
    97fa:	0f b6 c0             	movzbl %al,%eax
    97fd:	41 39 c4             	cmp    %eax,%r12d
    9800:	0f 95 c0             	setne  %al
    9803:	0f b6 d0             	movzbl %al,%edx
    9806:	0f b7 85 a6 ec ff ff 	movzwl -0x135a(%rbp),%eax
    980d:	89 d6                	mov    %edx,%esi
    980f:	89 c7                	mov    %eax,%edi
    9811:	e8 64 c6 ff ff       	callq  5e7a <safe_rshift_func_uint16_t_u_u>
    9816:	0f b7 d0             	movzwl %ax,%edx
    9819:	8b 85 0c f0 ff ff    	mov    -0xff4(%rbp),%eax
    981f:	39 c2                	cmp    %eax,%edx
    9821:	0f 95 c0             	setne  %al
    9824:	0f b6 c0             	movzbl %al,%eax
    9827:	be 00 00 00 00       	mov    $0x0,%esi
    982c:	89 c7                	mov    %eax,%edi
    982e:	e8 39 bb ff ff       	callq  536c <safe_rshift_func_int8_t_s_u>
    9833:	0f b7 85 a6 ec ff ff 	movzwl -0x135a(%rbp),%eax
    983a:	0f b6 c0             	movzbl %al,%eax
    983d:	89 c6                	mov    %eax,%esi
    983f:	bf f6 00 00 00       	mov    $0xf6,%edi
    9844:	e8 2f c3 ff ff       	callq  5b78 <safe_sub_func_uint8_t_u_u>
    9849:	0f b6 95 84 ec ff ff 	movzbl -0x137c(%rbp),%edx
    9850:	31 d0                	xor    %edx,%eax
    9852:	0f b6 c0             	movzbl %al,%eax
    9855:	66 39 85 a6 ec ff ff 	cmp    %ax,-0x135a(%rbp)
    985c:	0f 97 c0             	seta   %al
    985f:	0f b6 c0             	movzbl %al,%eax
    9862:	89 de                	mov    %ebx,%esi
    9864:	89 c7                	mov    %eax,%edi
    9866:	e8 28 c3 ff ff       	callq  5b93 <safe_mul_func_uint8_t_u_u>
    986b:	4c 89 ee             	mov    %r13,%rsi
    986e:	bf 01 00 00 00       	mov    $0x1,%edi
    9873:	e8 37 c8 ff ff       	callq  60af <safe_div_func_uint64_t_u_u>
    9878:	89 c2                	mov    %eax,%edx
    987a:	8b 85 08 f0 ff ff    	mov    -0xff8(%rbp),%eax
    9880:	31 d0                	xor    %edx,%eax
    9882:	89 85 b0 ec ff ff    	mov    %eax,-0x1350(%rbp)
    9888:	8b 85 b0 ec ff ff    	mov    -0x1350(%rbp),%eax
    988e:	0f b7 d0             	movzwl %ax,%edx
    9891:	48 8b 05 38 5d 01 00 	mov    0x15d38(%rip),%rax        # 1f5d0 <g_637>
    9898:	0f b7 08             	movzwl (%rax),%ecx
    989b:	83 e9 01             	sub    $0x1,%ecx
    989e:	66 89 08             	mov    %cx,(%rax)
    98a1:	0f b7 00             	movzwl (%rax),%eax
    98a4:	0f b7 c0             	movzwl %ax,%eax
    98a7:	89 d6                	mov    %edx,%esi
    98a9:	89 c7                	mov    %eax,%edi
    98ab:	e8 8d c4 ff ff       	callq  5d3d <safe_mul_func_uint16_t_u_u>
    98b0:	48 8b 85 b8 ed ff ff 	mov    -0x1248(%rbp),%rax
    98b7:	c7 00 45 8d 61 2f    	movl   $0x2f618d45,(%rax)
    98bd:	0f b7 05 5c 2d 01 00 	movzwl 0x12d5c(%rip),%eax        # 1c620 <g_1019>
    98c4:	66 25 ff 0f          	and    $0xfff,%ax
    98c8:	0f b7 d8             	movzwl %ax,%ebx
    98cb:	48 8b 85 88 ec ff ff 	mov    -0x1378(%rbp),%rax
    98d2:	4c 8b 20             	mov    (%rax),%r12
    98d5:	0f b6 05 54 27 01 00 	movzbl 0x12754(%rip),%eax        # 1c030 <g_14>
    98dc:	66 98                	cbtw   
    98de:	44 0f b7 e8          	movzwl %ax,%r13d
    98e2:	0f b6 85 84 ec ff ff 	movzbl -0x137c(%rbp),%eax
    98e9:	44 0f b6 f0          	movzbl %al,%r14d
    98ed:	0f b6 85 84 ec ff ff 	movzbl -0x137c(%rbp),%eax
    98f4:	0f b6 c0             	movzbl %al,%eax
    98f7:	89 c7                	mov    %eax,%edi
    98f9:	e8 9f ba ff ff       	callq  539d <safe_unary_minus_func_int16_t_s>
    98fe:	0f bf d0             	movswl %ax,%edx
    9901:	48 8b 85 e0 ed ff ff 	mov    -0x1220(%rbp),%rax
    9908:	48 89 05 29 5e 01 00 	mov    %rax,0x15e29(%rip)        # 1f738 <g_1140>
    990f:	48 8b 05 22 5e 01 00 	mov    0x15e22(%rip),%rax        # 1f738 <g_1140>
    9916:	48 8d 0d 13 5e 01 00 	lea    0x15e13(%rip),%rcx        # 1f730 <g_1141>
    991d:	48 39 c8             	cmp    %rcx,%rax
    9920:	0f 95 c0             	setne  %al
    9923:	0f b6 c8             	movzbl %al,%ecx
    9926:	48 8b 05 e3 da 00 00 	mov    0xdae3(%rip),%rax        # 17410 <g_1028+0x3b0>
    992d:	66 c1 f8 06          	sar    $0x6,%ax
    9931:	98                   	cwtl   
    9932:	39 c1                	cmp    %eax,%ecx
    9934:	0f 9c c0             	setl   %al
    9937:	0f b6 c0             	movzbl %al,%eax
    993a:	39 c2                	cmp    %eax,%edx
    993c:	0f 95 c0             	setne  %al
    993f:	0f b6 c0             	movzbl %al,%eax
    9942:	41 39 c6             	cmp    %eax,%r14d
    9945:	0f 95 c0             	setne  %al
    9948:	0f b6 d0             	movzbl %al,%edx
    994b:	0f b6 85 84 ec ff ff 	movzbl -0x137c(%rbp),%eax
    9952:	0f b6 c0             	movzbl %al,%eax
    9955:	89 d6                	mov    %edx,%esi
    9957:	89 c7                	mov    %eax,%edi
    9959:	e8 55 ba ff ff       	callq  53b3 <safe_add_func_int16_t_s_s>
    995e:	0f b7 c0             	movzwl %ax,%eax
    9961:	44 89 ee             	mov    %r13d,%esi
    9964:	89 c7                	mov    %eax,%edi
    9966:	e8 b4 c3 ff ff       	callq  5d1f <safe_sub_func_uint16_t_u_u>
    996b:	0f b7 c0             	movzwl %ax,%eax
    996e:	4c 89 e6             	mov    %r12,%rsi
    9971:	48 89 c7             	mov    %rax,%rdi
    9974:	e8 b5 c6 ff ff       	callq  602e <safe_add_func_uint64_t_u_u>
    9979:	0f b6 c0             	movzbl %al,%eax
    997c:	be 05 00 00 00       	mov    $0x5,%esi
    9981:	89 c7                	mov    %eax,%edi
    9983:	e8 f0 c1 ff ff       	callq  5b78 <safe_sub_func_uint8_t_u_u>
    9988:	0f b6 d0             	movzbl %al,%edx
    998b:	0f b6 85 80 f0 ff ff 	movzbl -0xf80(%rbp),%eax
    9992:	0f be c0             	movsbl %al,%eax
    9995:	39 c2                	cmp    %eax,%edx
    9997:	0f 9e c0             	setle  %al
    999a:	44 0f b6 e0          	movzbl %al,%r12d
    999e:	0f b6 95 84 ec ff ff 	movzbl -0x137c(%rbp),%edx
    99a5:	48 8b 05 24 5c 01 00 	mov    0x15c24(%rip),%rax        # 1f5d0 <g_637>
    99ac:	0f b6 d2             	movzbl %dl,%edx
    99af:	66 89 10             	mov    %dx,(%rax)
    99b2:	0f b7 00             	movzwl (%rax),%eax
    99b5:	0f b7 d0             	movzwl %ax,%edx
    99b8:	0f b6 85 84 ec ff ff 	movzbl -0x137c(%rbp),%eax
    99bf:	0f b6 c0             	movzbl %al,%eax
    99c2:	89 d6                	mov    %edx,%esi
    99c4:	89 c7                	mov    %eax,%edi
    99c6:	e8 98 bb ff ff       	callq  5563 <safe_rshift_func_int16_t_s_u>
    99cb:	98                   	cwtl   
    99cc:	44 89 e6             	mov    %r12d,%esi
    99cf:	89 c7                	mov    %eax,%edi
    99d1:	e8 fd b9 ff ff       	callq  53d3 <safe_sub_func_int16_t_s_s>
    99d6:	0f bf d0             	movswl %ax,%edx
    99d9:	0f b6 85 84 ec ff ff 	movzbl -0x137c(%rbp),%eax
    99e0:	0f b6 c0             	movzbl %al,%eax
    99e3:	21 c2                	and    %eax,%edx
    99e5:	0f b6 85 84 ec ff ff 	movzbl -0x137c(%rbp),%eax
    99ec:	0f b6 c0             	movzbl %al,%eax
    99ef:	39 c2                	cmp    %eax,%edx
    99f1:	0f 9c c0             	setl   %al
    99f4:	0f b6 d0             	movzbl %al,%edx
    99f7:	0f b6 85 84 ec ff ff 	movzbl -0x137c(%rbp),%eax
    99fe:	0f b6 c0             	movzbl %al,%eax
    9a01:	39 c2                	cmp    %eax,%edx
    9a03:	75 12                	jne    9a17 <func_30+0x7de>
    9a05:	0f b6 85 84 ec ff ff 	movzbl -0x137c(%rbp),%eax
    9a0c:	84 c0                	test   %al,%al
    9a0e:	74 07                	je     9a17 <func_30+0x7de>
    9a10:	ba 01 00 00 00       	mov    $0x1,%edx
    9a15:	eb 05                	jmp    9a1c <func_30+0x7e3>
    9a17:	ba 00 00 00 00       	mov    $0x0,%edx
    9a1c:	0f b6 85 84 ec ff ff 	movzbl -0x137c(%rbp),%eax
    9a23:	0f b6 c0             	movzbl %al,%eax
    9a26:	39 c2                	cmp    %eax,%edx
    9a28:	0f 9d c0             	setge  %al
    9a2b:	0f b6 d0             	movzbl %al,%edx
    9a2e:	48 8b 85 d0 ed ff ff 	mov    -0x1230(%rbp),%rax
    9a35:	48 8d 8d 40 ed ff ff 	lea    -0x12c0(%rbp),%rcx
    9a3c:	48 89 08             	mov    %rcx,(%rax)
    9a3f:	48 8b 85 d0 ed ff ff 	mov    -0x1230(%rbp),%rax
    9a46:	48 8b 00             	mov    (%rax),%rax
    9a49:	48 89 85 d8 ed ff ff 	mov    %rax,-0x1228(%rbp)
    9a50:	48 8b 85 d8 ed ff ff 	mov    -0x1228(%rbp),%rax
    9a57:	48 3b 85 c0 ed ff ff 	cmp    -0x1240(%rbp),%rax
    9a5e:	0f 95 c0             	setne  %al
    9a61:	0f b6 c0             	movzbl %al,%eax
    9a64:	89 d6                	mov    %edx,%esi
    9a66:	89 c7                	mov    %eax,%edi
    9a68:	e8 20 c2 ff ff       	callq  5c8d <safe_rshift_func_uint8_t_u_s>
    9a6d:	0f b6 c0             	movzbl %al,%eax
    9a70:	89 de                	mov    %ebx,%esi
    9a72:	89 c7                	mov    %eax,%edi
    9a74:	e8 a6 c2 ff ff       	callq  5d1f <safe_sub_func_uint16_t_u_u>
    9a79:	0f b7 d0             	movzwl %ax,%edx
    9a7c:	48 8b 85 88 ec ff ff 	mov    -0x1378(%rbp),%rax
    9a83:	48 8b 00             	mov    (%rax),%rax
    9a86:	48 39 c2             	cmp    %rax,%rdx
    9a89:	0f 86 90 0f 00 00    	jbe    aa1f <func_30+0x17e6>
    9a8f:	48 8d 05 62 2a 01 00 	lea    0x12a62(%rip),%rax        # 1c4f8 <g_427>
    9a96:	48 89 85 20 ef ff ff 	mov    %rax,-0x10e0(%rbp)
    9a9d:	48 8d 05 0c 4f 01 00 	lea    0x14f0c(%rip),%rax        # 1e9b0 <g_75>
    9aa4:	48 89 85 80 ed ff ff 	mov    %rax,-0x1280(%rbp)
    9aab:	48 c7 85 28 ef ff ff 	movq   $0x0,-0x10d8(%rbp)
    9ab2:	00 00 00 00 
    9ab6:	48 8d 85 80 ed ff ff 	lea    -0x1280(%rbp),%rax
    9abd:	48 89 85 10 f8 ff ff 	mov    %rax,-0x7f0(%rbp)
    9ac4:	48 8d 85 80 ed ff ff 	lea    -0x1280(%rbp),%rax
    9acb:	48 89 85 18 f8 ff ff 	mov    %rax,-0x7e8(%rbp)
    9ad2:	48 8d 85 80 ed ff ff 	lea    -0x1280(%rbp),%rax
    9ad9:	48 89 85 20 f8 ff ff 	mov    %rax,-0x7e0(%rbp)
    9ae0:	48 8d 85 80 ed ff ff 	lea    -0x1280(%rbp),%rax
    9ae7:	48 89 85 28 f8 ff ff 	mov    %rax,-0x7d8(%rbp)
    9aee:	48 8d 05 9b 5b 01 00 	lea    0x15b9b(%rip),%rax        # 1f690 <g_882>
    9af5:	48 89 85 30 f8 ff ff 	mov    %rax,-0x7d0(%rbp)
    9afc:	48 8d 85 58 ed ff ff 	lea    -0x12a8(%rbp),%rax
    9b03:	48 89 85 38 f8 ff ff 	mov    %rax,-0x7c8(%rbp)
    9b0a:	48 c7 85 40 f8 ff ff 	movq   $0x0,-0x7c0(%rbp)
    9b11:	00 00 00 00 
    9b15:	48 c7 85 48 f8 ff ff 	movq   $0x0,-0x7b8(%rbp)
    9b1c:	00 00 00 00 
    9b20:	48 8d 85 80 ed ff ff 	lea    -0x1280(%rbp),%rax
    9b27:	48 89 85 50 f8 ff ff 	mov    %rax,-0x7b0(%rbp)
    9b2e:	48 8d 85 80 ed ff ff 	lea    -0x1280(%rbp),%rax
    9b35:	48 89 85 58 f8 ff ff 	mov    %rax,-0x7a8(%rbp)
    9b3c:	48 8d 85 80 ed ff ff 	lea    -0x1280(%rbp),%rax
    9b43:	48 89 85 60 f8 ff ff 	mov    %rax,-0x7a0(%rbp)
    9b4a:	48 8d 85 80 ed ff ff 	lea    -0x1280(%rbp),%rax
    9b51:	48 89 85 68 f8 ff ff 	mov    %rax,-0x798(%rbp)
    9b58:	48 c7 85 70 f8 ff ff 	movq   $0x0,-0x790(%rbp)
    9b5f:	00 00 00 00 
    9b63:	48 8d 85 80 ed ff ff 	lea    -0x1280(%rbp),%rax
    9b6a:	48 89 85 78 f8 ff ff 	mov    %rax,-0x788(%rbp)
    9b71:	48 c7 85 80 f8 ff ff 	movq   $0x0,-0x780(%rbp)
    9b78:	00 00 00 00 
    9b7c:	48 8d 85 80 ed ff ff 	lea    -0x1280(%rbp),%rax
    9b83:	48 89 85 88 f8 ff ff 	mov    %rax,-0x778(%rbp)
    9b8a:	48 8d 85 80 ed ff ff 	lea    -0x1280(%rbp),%rax
    9b91:	48 89 85 90 f8 ff ff 	mov    %rax,-0x770(%rbp)
    9b98:	48 8d 85 58 ed ff ff 	lea    -0x12a8(%rbp),%rax
    9b9f:	48 89 85 98 f8 ff ff 	mov    %rax,-0x768(%rbp)
    9ba6:	48 8d 05 e3 5a 01 00 	lea    0x15ae3(%rip),%rax        # 1f690 <g_882>
    9bad:	48 89 85 a0 f8 ff ff 	mov    %rax,-0x760(%rbp)
    9bb4:	48 8d 85 80 ed ff ff 	lea    -0x1280(%rbp),%rax
    9bbb:	48 89 85 a8 f8 ff ff 	mov    %rax,-0x758(%rbp)
    9bc2:	48 8d 05 c7 5a 01 00 	lea    0x15ac7(%rip),%rax        # 1f690 <g_882>
    9bc9:	48 89 85 b0 f8 ff ff 	mov    %rax,-0x750(%rbp)
    9bd0:	48 8d 85 80 ed ff ff 	lea    -0x1280(%rbp),%rax
    9bd7:	48 89 85 b8 f8 ff ff 	mov    %rax,-0x748(%rbp)
    9bde:	48 8d 05 ab 5a 01 00 	lea    0x15aab(%rip),%rax        # 1f690 <g_882>
    9be5:	48 89 85 c0 f8 ff ff 	mov    %rax,-0x740(%rbp)
    9bec:	48 8d 85 58 ed ff ff 	lea    -0x12a8(%rbp),%rax
    9bf3:	48 89 85 c8 f8 ff ff 	mov    %rax,-0x738(%rbp)
    9bfa:	48 8d 85 80 ed ff ff 	lea    -0x1280(%rbp),%rax
    9c01:	48 89 85 d0 f8 ff ff 	mov    %rax,-0x730(%rbp)
    9c08:	48 c7 85 d8 f8 ff ff 	movq   $0x0,-0x728(%rbp)
    9c0f:	00 00 00 00 
    9c13:	48 8d 05 76 5a 01 00 	lea    0x15a76(%rip),%rax        # 1f690 <g_882>
    9c1a:	48 89 85 e0 f8 ff ff 	mov    %rax,-0x720(%rbp)
    9c21:	48 8d 85 58 ed ff ff 	lea    -0x12a8(%rbp),%rax
    9c28:	48 89 85 e8 f8 ff ff 	mov    %rax,-0x718(%rbp)
    9c2f:	48 8d 85 80 ed ff ff 	lea    -0x1280(%rbp),%rax
    9c36:	48 89 85 f0 f8 ff ff 	mov    %rax,-0x710(%rbp)
    9c3d:	48 c7 85 f8 f8 ff ff 	movq   $0x0,-0x708(%rbp)
    9c44:	00 00 00 00 
    9c48:	48 8d 85 80 ed ff ff 	lea    -0x1280(%rbp),%rax
    9c4f:	48 89 85 00 f9 ff ff 	mov    %rax,-0x700(%rbp)
    9c56:	48 8d 85 80 ed ff ff 	lea    -0x1280(%rbp),%rax
    9c5d:	48 89 85 08 f9 ff ff 	mov    %rax,-0x6f8(%rbp)
    9c64:	48 c7 85 10 f9 ff ff 	movq   $0x0,-0x6f0(%rbp)
    9c6b:	00 00 00 00 
    9c6f:	48 8d 85 80 ed ff ff 	lea    -0x1280(%rbp),%rax
    9c76:	48 89 85 18 f9 ff ff 	mov    %rax,-0x6e8(%rbp)
    9c7d:	48 8d 85 58 ed ff ff 	lea    -0x12a8(%rbp),%rax
    9c84:	48 89 85 20 f9 ff ff 	mov    %rax,-0x6e0(%rbp)
    9c8b:	48 c7 85 28 f9 ff ff 	movq   $0x0,-0x6d8(%rbp)
    9c92:	00 00 00 00 
    9c96:	48 8d 85 80 ed ff ff 	lea    -0x1280(%rbp),%rax
    9c9d:	48 89 85 30 f9 ff ff 	mov    %rax,-0x6d0(%rbp)
    9ca4:	48 8d 85 58 ed ff ff 	lea    -0x12a8(%rbp),%rax
    9cab:	48 89 85 38 f9 ff ff 	mov    %rax,-0x6c8(%rbp)
    9cb2:	48 8d 85 80 ed ff ff 	lea    -0x1280(%rbp),%rax
    9cb9:	48 89 85 40 f9 ff ff 	mov    %rax,-0x6c0(%rbp)
    9cc0:	48 c7 85 48 f9 ff ff 	movq   $0x0,-0x6b8(%rbp)
    9cc7:	00 00 00 00 
    9ccb:	48 8d 85 80 ed ff ff 	lea    -0x1280(%rbp),%rax
    9cd2:	48 89 85 50 f9 ff ff 	mov    %rax,-0x6b0(%rbp)
    9cd9:	48 c7 85 58 f9 ff ff 	movq   $0x0,-0x6a8(%rbp)
    9ce0:	00 00 00 00 
    9ce4:	48 c7 85 60 f9 ff ff 	movq   $0x0,-0x6a0(%rbp)
    9ceb:	00 00 00 00 
    9cef:	48 c7 85 68 f9 ff ff 	movq   $0x0,-0x698(%rbp)
    9cf6:	00 00 00 00 
    9cfa:	48 c7 85 70 f9 ff ff 	movq   $0x0,-0x690(%rbp)
    9d01:	00 00 00 00 
    9d05:	48 8d 85 80 ed ff ff 	lea    -0x1280(%rbp),%rax
    9d0c:	48 89 85 78 f9 ff ff 	mov    %rax,-0x688(%rbp)
    9d13:	48 8d 85 80 ed ff ff 	lea    -0x1280(%rbp),%rax
    9d1a:	48 89 85 80 f9 ff ff 	mov    %rax,-0x680(%rbp)
    9d21:	48 8d 85 58 ed ff ff 	lea    -0x12a8(%rbp),%rax
    9d28:	48 89 85 88 f9 ff ff 	mov    %rax,-0x678(%rbp)
    9d2f:	48 8d 85 80 ed ff ff 	lea    -0x1280(%rbp),%rax
    9d36:	48 89 85 90 f9 ff ff 	mov    %rax,-0x670(%rbp)
    9d3d:	48 8d 85 80 ed ff ff 	lea    -0x1280(%rbp),%rax
    9d44:	48 89 85 98 f9 ff ff 	mov    %rax,-0x668(%rbp)
    9d4b:	48 8d 85 80 ed ff ff 	lea    -0x1280(%rbp),%rax
    9d52:	48 89 85 a0 f9 ff ff 	mov    %rax,-0x660(%rbp)
    9d59:	48 c7 85 a8 f9 ff ff 	movq   $0x0,-0x658(%rbp)
    9d60:	00 00 00 00 
    9d64:	48 c7 85 b0 f9 ff ff 	movq   $0x0,-0x650(%rbp)
    9d6b:	00 00 00 00 
    9d6f:	48 8d 85 80 ed ff ff 	lea    -0x1280(%rbp),%rax
    9d76:	48 89 85 b8 f9 ff ff 	mov    %rax,-0x648(%rbp)
    9d7d:	48 c7 85 c0 f9 ff ff 	movq   $0x0,-0x640(%rbp)
    9d84:	00 00 00 00 
    9d88:	48 8d 85 80 ed ff ff 	lea    -0x1280(%rbp),%rax
    9d8f:	48 89 85 c8 f9 ff ff 	mov    %rax,-0x638(%rbp)
    9d96:	48 c7 85 d0 f9 ff ff 	movq   $0x0,-0x630(%rbp)
    9d9d:	00 00 00 00 
    9da1:	48 c7 85 d8 f9 ff ff 	movq   $0x0,-0x628(%rbp)
    9da8:	00 00 00 00 
    9dac:	48 8d 85 80 ed ff ff 	lea    -0x1280(%rbp),%rax
    9db3:	48 89 85 e0 f9 ff ff 	mov    %rax,-0x620(%rbp)
    9dba:	48 8d 05 cf 58 01 00 	lea    0x158cf(%rip),%rax        # 1f690 <g_882>
    9dc1:	48 89 85 e8 f9 ff ff 	mov    %rax,-0x618(%rbp)
    9dc8:	48 8d 85 58 ed ff ff 	lea    -0x12a8(%rbp),%rax
    9dcf:	48 89 85 f0 f9 ff ff 	mov    %rax,-0x610(%rbp)
    9dd6:	48 8d 85 58 ed ff ff 	lea    -0x12a8(%rbp),%rax
    9ddd:	48 89 85 f8 f9 ff ff 	mov    %rax,-0x608(%rbp)
    9de4:	48 8d 85 80 ed ff ff 	lea    -0x1280(%rbp),%rax
    9deb:	48 89 85 00 fa ff ff 	mov    %rax,-0x600(%rbp)
    9df2:	48 8d 85 58 ed ff ff 	lea    -0x12a8(%rbp),%rax
    9df9:	48 89 85 08 fa ff ff 	mov    %rax,-0x5f8(%rbp)
    9e00:	48 8d 05 89 58 01 00 	lea    0x15889(%rip),%rax        # 1f690 <g_882>
    9e07:	48 89 85 10 fa ff ff 	mov    %rax,-0x5f0(%rbp)
    9e0e:	48 8d 85 80 ed ff ff 	lea    -0x1280(%rbp),%rax
    9e15:	48 89 85 18 fa ff ff 	mov    %rax,-0x5e8(%rbp)
    9e1c:	48 8d 85 58 ed ff ff 	lea    -0x12a8(%rbp),%rax
    9e23:	48 89 85 20 fa ff ff 	mov    %rax,-0x5e0(%rbp)
    9e2a:	48 8d 85 58 ed ff ff 	lea    -0x12a8(%rbp),%rax
    9e31:	48 89 85 28 fa ff ff 	mov    %rax,-0x5d8(%rbp)
    9e38:	48 8d 85 80 ed ff ff 	lea    -0x1280(%rbp),%rax
    9e3f:	48 89 85 30 fa ff ff 	mov    %rax,-0x5d0(%rbp)
    9e46:	48 8d 05 43 58 01 00 	lea    0x15843(%rip),%rax        # 1f690 <g_882>
    9e4d:	48 89 85 38 fa ff ff 	mov    %rax,-0x5c8(%rbp)
    9e54:	48 8d 05 35 58 01 00 	lea    0x15835(%rip),%rax        # 1f690 <g_882>
    9e5b:	48 89 85 40 fa ff ff 	mov    %rax,-0x5c0(%rbp)
    9e62:	48 8d 85 80 ed ff ff 	lea    -0x1280(%rbp),%rax
    9e69:	48 89 85 48 fa ff ff 	mov    %rax,-0x5b8(%rbp)
    9e70:	48 c7 85 50 fa ff ff 	movq   $0x0,-0x5b0(%rbp)
    9e77:	00 00 00 00 
    9e7b:	48 8d 05 0e 58 01 00 	lea    0x1580e(%rip),%rax        # 1f690 <g_882>
    9e82:	48 89 85 58 fa ff ff 	mov    %rax,-0x5a8(%rbp)
    9e89:	48 c7 85 60 fa ff ff 	movq   $0x0,-0x5a0(%rbp)
    9e90:	00 00 00 00 
    9e94:	48 c7 85 68 fa ff ff 	movq   $0x0,-0x598(%rbp)
    9e9b:	00 00 00 00 
    9e9f:	48 c7 85 70 fa ff ff 	movq   $0x0,-0x590(%rbp)
    9ea6:	00 00 00 00 
    9eaa:	48 8d 85 80 ed ff ff 	lea    -0x1280(%rbp),%rax
    9eb1:	48 89 85 78 fa ff ff 	mov    %rax,-0x588(%rbp)
    9eb8:	48 8d 85 80 ed ff ff 	lea    -0x1280(%rbp),%rax
    9ebf:	48 89 85 80 fa ff ff 	mov    %rax,-0x580(%rbp)
    9ec6:	48 c7 85 88 fa ff ff 	movq   $0x0,-0x578(%rbp)
    9ecd:	00 00 00 00 
    9ed1:	48 c7 85 90 fa ff ff 	movq   $0x0,-0x570(%rbp)
    9ed8:	00 00 00 00 
    9edc:	48 8d 85 80 ed ff ff 	lea    -0x1280(%rbp),%rax
    9ee3:	48 89 85 98 fa ff ff 	mov    %rax,-0x568(%rbp)
    9eea:	48 8d 05 9f 57 01 00 	lea    0x1579f(%rip),%rax        # 1f690 <g_882>
    9ef1:	48 89 85 a0 fa ff ff 	mov    %rax,-0x560(%rbp)
    9ef8:	48 8d 05 91 57 01 00 	lea    0x15791(%rip),%rax        # 1f690 <g_882>
    9eff:	48 89 85 a8 fa ff ff 	mov    %rax,-0x558(%rbp)
    9f06:	48 8d 85 80 ed ff ff 	lea    -0x1280(%rbp),%rax
    9f0d:	48 89 85 b0 fa ff ff 	mov    %rax,-0x550(%rbp)
    9f14:	48 8d 85 80 ed ff ff 	lea    -0x1280(%rbp),%rax
    9f1b:	48 89 85 b8 fa ff ff 	mov    %rax,-0x548(%rbp)
    9f22:	48 8d 85 58 ed ff ff 	lea    -0x12a8(%rbp),%rax
    9f29:	48 89 85 c0 fa ff ff 	mov    %rax,-0x540(%rbp)
    9f30:	48 8d 05 59 57 01 00 	lea    0x15759(%rip),%rax        # 1f690 <g_882>
    9f37:	48 89 85 c8 fa ff ff 	mov    %rax,-0x538(%rbp)
    9f3e:	48 c7 85 d0 fa ff ff 	movq   $0x0,-0x530(%rbp)
    9f45:	00 00 00 00 
    9f49:	48 c7 85 d8 fa ff ff 	movq   $0x0,-0x528(%rbp)
    9f50:	00 00 00 00 
    9f54:	48 c7 85 e0 fa ff ff 	movq   $0x0,-0x520(%rbp)
    9f5b:	00 00 00 00 
    9f5f:	48 8d 85 80 ed ff ff 	lea    -0x1280(%rbp),%rax
    9f66:	48 89 85 e8 fa ff ff 	mov    %rax,-0x518(%rbp)
    9f6d:	48 8d 05 1c 57 01 00 	lea    0x1571c(%rip),%rax        # 1f690 <g_882>
    9f74:	48 89 85 f0 fa ff ff 	mov    %rax,-0x510(%rbp)
    9f7b:	48 8d 85 80 ed ff ff 	lea    -0x1280(%rbp),%rax
    9f82:	48 89 85 f8 fa ff ff 	mov    %rax,-0x508(%rbp)
    9f89:	48 8d 85 58 ed ff ff 	lea    -0x12a8(%rbp),%rax
    9f90:	48 89 85 00 fb ff ff 	mov    %rax,-0x500(%rbp)
    9f97:	48 8d 85 80 ed ff ff 	lea    -0x1280(%rbp),%rax
    9f9e:	48 89 85 08 fb ff ff 	mov    %rax,-0x4f8(%rbp)
    9fa5:	48 8d 85 80 ed ff ff 	lea    -0x1280(%rbp),%rax
    9fac:	48 89 85 10 fb ff ff 	mov    %rax,-0x4f0(%rbp)
    9fb3:	48 c7 85 18 fb ff ff 	movq   $0x0,-0x4e8(%rbp)
    9fba:	00 00 00 00 
    9fbe:	48 8d 85 80 ed ff ff 	lea    -0x1280(%rbp),%rax
    9fc5:	48 89 85 20 fb ff ff 	mov    %rax,-0x4e0(%rbp)
    9fcc:	48 c7 85 28 fb ff ff 	movq   $0x0,-0x4d8(%rbp)
    9fd3:	00 00 00 00 
    9fd7:	48 8d 85 58 ed ff ff 	lea    -0x12a8(%rbp),%rax
    9fde:	48 89 85 30 fb ff ff 	mov    %rax,-0x4d0(%rbp)
    9fe5:	48 8d 05 a4 56 01 00 	lea    0x156a4(%rip),%rax        # 1f690 <g_882>
    9fec:	48 89 85 38 fb ff ff 	mov    %rax,-0x4c8(%rbp)
    9ff3:	48 8d 85 80 ed ff ff 	lea    -0x1280(%rbp),%rax
    9ffa:	48 89 85 40 fb ff ff 	mov    %rax,-0x4c0(%rbp)
    a001:	48 8d 85 80 ed ff ff 	lea    -0x1280(%rbp),%rax
    a008:	48 89 85 48 fb ff ff 	mov    %rax,-0x4b8(%rbp)
    a00f:	48 8d 05 7a 56 01 00 	lea    0x1567a(%rip),%rax        # 1f690 <g_882>
    a016:	48 89 85 50 fb ff ff 	mov    %rax,-0x4b0(%rbp)
    a01d:	48 8d 85 80 ed ff ff 	lea    -0x1280(%rbp),%rax
    a024:	48 89 85 58 fb ff ff 	mov    %rax,-0x4a8(%rbp)
    a02b:	48 8d 85 80 ed ff ff 	lea    -0x1280(%rbp),%rax
    a032:	48 89 85 60 fb ff ff 	mov    %rax,-0x4a0(%rbp)
    a039:	48 8d 85 80 ed ff ff 	lea    -0x1280(%rbp),%rax
    a040:	48 89 85 68 fb ff ff 	mov    %rax,-0x498(%rbp)
    a047:	48 c7 85 70 fb ff ff 	movq   $0x0,-0x490(%rbp)
    a04e:	00 00 00 00 
    a052:	48 c7 85 78 fb ff ff 	movq   $0x0,-0x488(%rbp)
    a059:	00 00 00 00 
    a05d:	48 8d 05 2c 56 01 00 	lea    0x1562c(%rip),%rax        # 1f690 <g_882>
    a064:	48 89 85 80 fb ff ff 	mov    %rax,-0x480(%rbp)
    a06b:	48 8d 05 1e 56 01 00 	lea    0x1561e(%rip),%rax        # 1f690 <g_882>
    a072:	48 89 85 88 fb ff ff 	mov    %rax,-0x478(%rbp)
    a079:	48 8d 85 80 ed ff ff 	lea    -0x1280(%rbp),%rax
    a080:	48 89 85 90 fb ff ff 	mov    %rax,-0x470(%rbp)
    a087:	48 8d 85 58 ed ff ff 	lea    -0x12a8(%rbp),%rax
    a08e:	48 89 85 98 fb ff ff 	mov    %rax,-0x468(%rbp)
    a095:	48 8d 85 80 ed ff ff 	lea    -0x1280(%rbp),%rax
    a09c:	48 89 85 a0 fb ff ff 	mov    %rax,-0x460(%rbp)
    a0a3:	48 8d 85 80 ed ff ff 	lea    -0x1280(%rbp),%rax
    a0aa:	48 89 85 a8 fb ff ff 	mov    %rax,-0x458(%rbp)
    a0b1:	48 8d 85 80 ed ff ff 	lea    -0x1280(%rbp),%rax
    a0b8:	48 89 85 b0 fb ff ff 	mov    %rax,-0x450(%rbp)
    a0bf:	48 8d 85 80 ed ff ff 	lea    -0x1280(%rbp),%rax
    a0c6:	48 89 85 b8 fb ff ff 	mov    %rax,-0x448(%rbp)
    a0cd:	48 8d 85 80 ed ff ff 	lea    -0x1280(%rbp),%rax
    a0d4:	48 89 85 c0 fb ff ff 	mov    %rax,-0x440(%rbp)
    a0db:	48 8d 85 80 ed ff ff 	lea    -0x1280(%rbp),%rax
    a0e2:	48 89 85 c8 fb ff ff 	mov    %rax,-0x438(%rbp)
    a0e9:	48 8d 85 58 ed ff ff 	lea    -0x12a8(%rbp),%rax
    a0f0:	48 89 85 d0 fb ff ff 	mov    %rax,-0x430(%rbp)
    a0f7:	48 8d 85 80 ed ff ff 	lea    -0x1280(%rbp),%rax
    a0fe:	48 89 85 d8 fb ff ff 	mov    %rax,-0x428(%rbp)
    a105:	48 8d 85 80 ed ff ff 	lea    -0x1280(%rbp),%rax
    a10c:	48 89 85 e0 fb ff ff 	mov    %rax,-0x420(%rbp)
    a113:	48 c7 85 e8 fb ff ff 	movq   $0x0,-0x418(%rbp)
    a11a:	00 00 00 00 
    a11e:	48 8d 05 6b 55 01 00 	lea    0x1556b(%rip),%rax        # 1f690 <g_882>
    a125:	48 89 85 f0 fb ff ff 	mov    %rax,-0x410(%rbp)
    a12c:	48 8d 85 80 ed ff ff 	lea    -0x1280(%rbp),%rax
    a133:	48 89 85 f8 fb ff ff 	mov    %rax,-0x408(%rbp)
    a13a:	48 8d 05 4f 55 01 00 	lea    0x1554f(%rip),%rax        # 1f690 <g_882>
    a141:	48 89 85 00 fc ff ff 	mov    %rax,-0x400(%rbp)
    a148:	48 8d 85 80 ed ff ff 	lea    -0x1280(%rbp),%rax
    a14f:	48 89 85 08 fc ff ff 	mov    %rax,-0x3f8(%rbp)
    a156:	48 8d 05 33 55 01 00 	lea    0x15533(%rip),%rax        # 1f690 <g_882>
    a15d:	48 89 85 10 fc ff ff 	mov    %rax,-0x3f0(%rbp)
    a164:	48 8d 85 80 ed ff ff 	lea    -0x1280(%rbp),%rax
    a16b:	48 89 85 18 fc ff ff 	mov    %rax,-0x3e8(%rbp)
    a172:	48 8d 85 58 ed ff ff 	lea    -0x12a8(%rbp),%rax
    a179:	48 89 85 20 fc ff ff 	mov    %rax,-0x3e0(%rbp)
    a180:	48 8d 85 80 ed ff ff 	lea    -0x1280(%rbp),%rax
    a187:	48 89 85 28 fc ff ff 	mov    %rax,-0x3d8(%rbp)
    a18e:	48 8d 85 80 ed ff ff 	lea    -0x1280(%rbp),%rax
    a195:	48 89 85 30 fc ff ff 	mov    %rax,-0x3d0(%rbp)
    a19c:	48 c7 85 38 fc ff ff 	movq   $0x0,-0x3c8(%rbp)
    a1a3:	00 00 00 00 
    a1a7:	48 8d 85 80 ed ff ff 	lea    -0x1280(%rbp),%rax
    a1ae:	48 89 85 40 fc ff ff 	mov    %rax,-0x3c0(%rbp)
    a1b5:	48 8d 85 80 ed ff ff 	lea    -0x1280(%rbp),%rax
    a1bc:	48 89 85 48 fc ff ff 	mov    %rax,-0x3b8(%rbp)
    a1c3:	48 8d 85 80 ed ff ff 	lea    -0x1280(%rbp),%rax
    a1ca:	48 89 85 50 fc ff ff 	mov    %rax,-0x3b0(%rbp)
    a1d1:	48 8d 85 58 ed ff ff 	lea    -0x12a8(%rbp),%rax
    a1d8:	48 89 85 58 fc ff ff 	mov    %rax,-0x3a8(%rbp)
    a1df:	48 8d 85 80 ed ff ff 	lea    -0x1280(%rbp),%rax
    a1e6:	48 89 85 60 fc ff ff 	mov    %rax,-0x3a0(%rbp)
    a1ed:	48 8d 85 80 ed ff ff 	lea    -0x1280(%rbp),%rax
    a1f4:	48 89 85 68 fc ff ff 	mov    %rax,-0x398(%rbp)
    a1fb:	48 8d 85 80 ed ff ff 	lea    -0x1280(%rbp),%rax
    a202:	48 89 85 70 fc ff ff 	mov    %rax,-0x390(%rbp)
    a209:	48 8d 85 58 ed ff ff 	lea    -0x12a8(%rbp),%rax
    a210:	48 89 85 78 fc ff ff 	mov    %rax,-0x388(%rbp)
    a217:	48 8d 85 80 ed ff ff 	lea    -0x1280(%rbp),%rax
    a21e:	48 89 85 80 fc ff ff 	mov    %rax,-0x380(%rbp)
    a225:	48 8d 85 58 ed ff ff 	lea    -0x12a8(%rbp),%rax
    a22c:	48 89 85 88 fc ff ff 	mov    %rax,-0x378(%rbp)
    a233:	48 8d 85 80 ed ff ff 	lea    -0x1280(%rbp),%rax
    a23a:	48 89 85 90 fc ff ff 	mov    %rax,-0x370(%rbp)
    a241:	48 c7 85 98 fc ff ff 	movq   $0x0,-0x368(%rbp)
    a248:	00 00 00 00 
    a24c:	48 8d 85 80 ed ff ff 	lea    -0x1280(%rbp),%rax
    a253:	48 89 85 a0 fc ff ff 	mov    %rax,-0x360(%rbp)
    a25a:	48 c7 85 a8 fc ff ff 	movq   $0x0,-0x358(%rbp)
    a261:	00 00 00 00 
    a265:	48 8d 85 80 ed ff ff 	lea    -0x1280(%rbp),%rax
    a26c:	48 89 85 b0 fc ff ff 	mov    %rax,-0x350(%rbp)
    a273:	48 c7 85 b8 fc ff ff 	movq   $0x0,-0x348(%rbp)
    a27a:	00 00 00 00 
    a27e:	48 8d 85 80 ed ff ff 	lea    -0x1280(%rbp),%rax
    a285:	48 89 85 c0 fc ff ff 	mov    %rax,-0x340(%rbp)
    a28c:	48 8d 85 80 ed ff ff 	lea    -0x1280(%rbp),%rax
    a293:	48 89 85 c8 fc ff ff 	mov    %rax,-0x338(%rbp)
    a29a:	48 8d 05 ef 53 01 00 	lea    0x153ef(%rip),%rax        # 1f690 <g_882>
    a2a1:	48 89 85 d0 fc ff ff 	mov    %rax,-0x330(%rbp)
    a2a8:	48 8d 85 80 ed ff ff 	lea    -0x1280(%rbp),%rax
    a2af:	48 89 85 d8 fc ff ff 	mov    %rax,-0x328(%rbp)
    a2b6:	48 8d 85 58 ed ff ff 	lea    -0x12a8(%rbp),%rax
    a2bd:	48 89 85 e0 fc ff ff 	mov    %rax,-0x320(%rbp)
    a2c4:	48 8d 05 c5 53 01 00 	lea    0x153c5(%rip),%rax        # 1f690 <g_882>
    a2cb:	48 89 85 e8 fc ff ff 	mov    %rax,-0x318(%rbp)
    a2d2:	48 8d 85 80 ed ff ff 	lea    -0x1280(%rbp),%rax
    a2d9:	48 89 85 f0 fc ff ff 	mov    %rax,-0x310(%rbp)
    a2e0:	48 8d 85 80 ed ff ff 	lea    -0x1280(%rbp),%rax
    a2e7:	48 89 85 f8 fc ff ff 	mov    %rax,-0x308(%rbp)
    a2ee:	48 c7 85 00 fd ff ff 	movq   $0x0,-0x300(%rbp)
    a2f5:	00 00 00 00 
    a2f9:	48 c7 85 08 fd ff ff 	movq   $0x0,-0x2f8(%rbp)
    a300:	00 00 00 00 
    a304:	48 8d 05 85 53 01 00 	lea    0x15385(%rip),%rax        # 1f690 <g_882>
    a30b:	48 89 85 10 fd ff ff 	mov    %rax,-0x2f0(%rbp)
    a312:	48 c7 85 18 fd ff ff 	movq   $0x0,-0x2e8(%rbp)
    a319:	00 00 00 00 
    a31d:	48 8d 85 80 ed ff ff 	lea    -0x1280(%rbp),%rax
    a324:	48 89 85 20 fd ff ff 	mov    %rax,-0x2e0(%rbp)
    a32b:	48 8d 85 80 ed ff ff 	lea    -0x1280(%rbp),%rax
    a332:	48 89 85 28 fd ff ff 	mov    %rax,-0x2d8(%rbp)
    a339:	48 c7 85 30 fd ff ff 	movq   $0x0,-0x2d0(%rbp)
    a340:	00 00 00 00 
    a344:	48 c7 85 38 fd ff ff 	movq   $0x0,-0x2c8(%rbp)
    a34b:	00 00 00 00 
    a34f:	48 8d 85 80 ed ff ff 	lea    -0x1280(%rbp),%rax
    a356:	48 89 85 40 fd ff ff 	mov    %rax,-0x2c0(%rbp)
    a35d:	48 8d 05 2c 53 01 00 	lea    0x1532c(%rip),%rax        # 1f690 <g_882>
    a364:	48 89 85 48 fd ff ff 	mov    %rax,-0x2b8(%rbp)
    a36b:	48 8d 85 80 ed ff ff 	lea    -0x1280(%rbp),%rax
    a372:	48 89 85 50 fd ff ff 	mov    %rax,-0x2b0(%rbp)
    a379:	48 c7 85 58 fd ff ff 	movq   $0x0,-0x2a8(%rbp)
    a380:	00 00 00 00 
    a384:	48 8d 85 80 ed ff ff 	lea    -0x1280(%rbp),%rax
    a38b:	48 89 85 60 fd ff ff 	mov    %rax,-0x2a0(%rbp)
    a392:	48 8d 85 80 ed ff ff 	lea    -0x1280(%rbp),%rax
    a399:	48 89 85 68 fd ff ff 	mov    %rax,-0x298(%rbp)
    a3a0:	48 c7 85 70 fd ff ff 	movq   $0x0,-0x290(%rbp)
    a3a7:	00 00 00 00 
    a3ab:	48 8d 85 58 ed ff ff 	lea    -0x12a8(%rbp),%rax
    a3b2:	48 89 85 78 fd ff ff 	mov    %rax,-0x288(%rbp)
    a3b9:	48 c7 85 80 fd ff ff 	movq   $0x0,-0x280(%rbp)
    a3c0:	00 00 00 00 
    a3c4:	48 c7 85 88 fd ff ff 	movq   $0x0,-0x278(%rbp)
    a3cb:	00 00 00 00 
    a3cf:	48 c7 85 90 fd ff ff 	movq   $0x0,-0x270(%rbp)
    a3d6:	00 00 00 00 
    a3da:	48 8d 05 af 52 01 00 	lea    0x152af(%rip),%rax        # 1f690 <g_882>
    a3e1:	48 89 85 98 fd ff ff 	mov    %rax,-0x268(%rbp)
    a3e8:	48 8d 85 80 ed ff ff 	lea    -0x1280(%rbp),%rax
    a3ef:	48 89 85 a0 fd ff ff 	mov    %rax,-0x260(%rbp)
    a3f6:	48 8d 05 93 52 01 00 	lea    0x15293(%rip),%rax        # 1f690 <g_882>
    a3fd:	48 89 85 a8 fd ff ff 	mov    %rax,-0x258(%rbp)
    a404:	48 c7 85 b0 fd ff ff 	movq   $0x0,-0x250(%rbp)
    a40b:	00 00 00 00 
    a40f:	48 c7 85 b8 fd ff ff 	movq   $0x0,-0x248(%rbp)
    a416:	00 00 00 00 
    a41a:	48 8d 05 6f 52 01 00 	lea    0x1526f(%rip),%rax        # 1f690 <g_882>
    a421:	48 89 85 c0 fd ff ff 	mov    %rax,-0x240(%rbp)
    a428:	48 8d 85 80 ed ff ff 	lea    -0x1280(%rbp),%rax
    a42f:	48 89 85 c8 fd ff ff 	mov    %rax,-0x238(%rbp)
    a436:	48 8d 05 53 52 01 00 	lea    0x15253(%rip),%rax        # 1f690 <g_882>
    a43d:	48 89 85 d0 fd ff ff 	mov    %rax,-0x230(%rbp)
    a444:	48 c7 85 d8 fd ff ff 	movq   $0x0,-0x228(%rbp)
    a44b:	00 00 00 00 
    a44f:	48 8d 85 80 ed ff ff 	lea    -0x1280(%rbp),%rax
    a456:	48 89 85 e0 fd ff ff 	mov    %rax,-0x220(%rbp)
    a45d:	48 8d 85 80 ed ff ff 	lea    -0x1280(%rbp),%rax
    a464:	48 89 85 e8 fd ff ff 	mov    %rax,-0x218(%rbp)
    a46b:	48 8d 85 80 ed ff ff 	lea    -0x1280(%rbp),%rax
    a472:	48 89 85 f0 fd ff ff 	mov    %rax,-0x210(%rbp)
    a479:	48 c7 85 f8 fd ff ff 	movq   $0x0,-0x208(%rbp)
    a480:	00 00 00 00 
    a484:	48 8d 85 58 ed ff ff 	lea    -0x12a8(%rbp),%rax
    a48b:	48 89 85 00 fe ff ff 	mov    %rax,-0x200(%rbp)
    a492:	48 8d 85 58 ed ff ff 	lea    -0x12a8(%rbp),%rax
    a499:	48 89 85 08 fe ff ff 	mov    %rax,-0x1f8(%rbp)
    a4a0:	48 8d 05 e9 51 01 00 	lea    0x151e9(%rip),%rax        # 1f690 <g_882>
    a4a7:	48 89 85 10 fe ff ff 	mov    %rax,-0x1f0(%rbp)
    a4ae:	48 8d 05 db 51 01 00 	lea    0x151db(%rip),%rax        # 1f690 <g_882>
    a4b5:	48 89 85 18 fe ff ff 	mov    %rax,-0x1e8(%rbp)
    a4bc:	48 8d 85 80 ed ff ff 	lea    -0x1280(%rbp),%rax
    a4c3:	48 89 85 20 fe ff ff 	mov    %rax,-0x1e0(%rbp)
    a4ca:	48 8d 05 bf 51 01 00 	lea    0x151bf(%rip),%rax        # 1f690 <g_882>
    a4d1:	48 89 85 28 fe ff ff 	mov    %rax,-0x1d8(%rbp)
    a4d8:	48 8d 05 b1 51 01 00 	lea    0x151b1(%rip),%rax        # 1f690 <g_882>
    a4df:	48 89 85 30 fe ff ff 	mov    %rax,-0x1d0(%rbp)
    a4e6:	48 c7 85 38 fe ff ff 	movq   $0x0,-0x1c8(%rbp)
    a4ed:	00 00 00 00 
    a4f1:	48 c7 85 40 fe ff ff 	movq   $0x0,-0x1c0(%rbp)
    a4f8:	00 00 00 00 
    a4fc:	48 8d 85 58 ed ff ff 	lea    -0x12a8(%rbp),%rax
    a503:	48 89 85 48 fe ff ff 	mov    %rax,-0x1b8(%rbp)
    a50a:	48 8d 05 7f 51 01 00 	lea    0x1517f(%rip),%rax        # 1f690 <g_882>
    a511:	48 89 85 50 fe ff ff 	mov    %rax,-0x1b0(%rbp)
    a518:	48 8d 85 80 ed ff ff 	lea    -0x1280(%rbp),%rax
    a51f:	48 89 85 58 fe ff ff 	mov    %rax,-0x1a8(%rbp)
    a526:	48 8d 85 80 ed ff ff 	lea    -0x1280(%rbp),%rax
    a52d:	48 89 85 60 fe ff ff 	mov    %rax,-0x1a0(%rbp)
    a534:	48 8d 05 55 51 01 00 	lea    0x15155(%rip),%rax        # 1f690 <g_882>
    a53b:	48 89 85 68 fe ff ff 	mov    %rax,-0x198(%rbp)
    a542:	48 8d 85 80 ed ff ff 	lea    -0x1280(%rbp),%rax
    a549:	48 89 85 70 fe ff ff 	mov    %rax,-0x190(%rbp)
    a550:	48 8d 85 80 ed ff ff 	lea    -0x1280(%rbp),%rax
    a557:	48 89 85 78 fe ff ff 	mov    %rax,-0x188(%rbp)
    a55e:	48 8d 85 80 ed ff ff 	lea    -0x1280(%rbp),%rax
    a565:	48 89 85 80 fe ff ff 	mov    %rax,-0x180(%rbp)
    a56c:	48 c7 85 88 fe ff ff 	movq   $0x0,-0x178(%rbp)
    a573:	00 00 00 00 
    a577:	48 8d 85 58 ed ff ff 	lea    -0x12a8(%rbp),%rax
    a57e:	48 89 85 90 fe ff ff 	mov    %rax,-0x170(%rbp)
    a585:	48 8d 05 04 51 01 00 	lea    0x15104(%rip),%rax        # 1f690 <g_882>
    a58c:	48 89 85 98 fe ff ff 	mov    %rax,-0x168(%rbp)
    a593:	48 c7 85 a0 fe ff ff 	movq   $0x0,-0x160(%rbp)
    a59a:	00 00 00 00 
    a59e:	48 8d 05 eb 50 01 00 	lea    0x150eb(%rip),%rax        # 1f690 <g_882>
    a5a5:	48 89 85 a8 fe ff ff 	mov    %rax,-0x158(%rbp)
    a5ac:	48 c7 85 b0 fe ff ff 	movq   $0x0,-0x150(%rbp)
    a5b3:	00 00 00 00 
    a5b7:	48 8d 85 80 ed ff ff 	lea    -0x1280(%rbp),%rax
    a5be:	48 89 85 b8 fe ff ff 	mov    %rax,-0x148(%rbp)
    a5c5:	48 8d 05 c4 50 01 00 	lea    0x150c4(%rip),%rax        # 1f690 <g_882>
    a5cc:	48 89 85 c0 fe ff ff 	mov    %rax,-0x140(%rbp)
    a5d3:	48 8d 85 80 ed ff ff 	lea    -0x1280(%rbp),%rax
    a5da:	48 89 85 c8 fe ff ff 	mov    %rax,-0x138(%rbp)
    a5e1:	48 c7 85 d0 fe ff ff 	movq   $0x0,-0x130(%rbp)
    a5e8:	00 00 00 00 
    a5ec:	48 8d 85 80 ed ff ff 	lea    -0x1280(%rbp),%rax
    a5f3:	48 89 85 d8 fe ff ff 	mov    %rax,-0x128(%rbp)
    a5fa:	48 8d 85 80 ed ff ff 	lea    -0x1280(%rbp),%rax
    a601:	48 89 85 e0 fe ff ff 	mov    %rax,-0x120(%rbp)
    a608:	48 8d 05 81 50 01 00 	lea    0x15081(%rip),%rax        # 1f690 <g_882>
    a60f:	48 89 85 e8 fe ff ff 	mov    %rax,-0x118(%rbp)
    a616:	48 8d 85 58 ed ff ff 	lea    -0x12a8(%rbp),%rax
    a61d:	48 89 85 f0 fe ff ff 	mov    %rax,-0x110(%rbp)
    a624:	48 c7 85 f8 fe ff ff 	movq   $0x0,-0x108(%rbp)
    a62b:	00 00 00 00 
    a62f:	48 8d 85 58 ed ff ff 	lea    -0x12a8(%rbp),%rax
    a636:	48 89 85 00 ff ff ff 	mov    %rax,-0x100(%rbp)
    a63d:	48 8d 05 4c 50 01 00 	lea    0x1504c(%rip),%rax        # 1f690 <g_882>
    a644:	48 89 85 08 ff ff ff 	mov    %rax,-0xf8(%rbp)
    a64b:	48 8d 85 80 ed ff ff 	lea    -0x1280(%rbp),%rax
    a652:	48 89 85 10 ff ff ff 	mov    %rax,-0xf0(%rbp)
    a659:	48 8d 85 80 ed ff ff 	lea    -0x1280(%rbp),%rax
    a660:	48 89 85 18 ff ff ff 	mov    %rax,-0xe8(%rbp)
    a667:	48 8d 85 80 ed ff ff 	lea    -0x1280(%rbp),%rax
    a66e:	48 89 85 20 ff ff ff 	mov    %rax,-0xe0(%rbp)
    a675:	48 8d 05 14 50 01 00 	lea    0x15014(%rip),%rax        # 1f690 <g_882>
    a67c:	48 89 85 28 ff ff ff 	mov    %rax,-0xd8(%rbp)
    a683:	48 8d 85 58 ed ff ff 	lea    -0x12a8(%rbp),%rax
    a68a:	48 89 85 30 ff ff ff 	mov    %rax,-0xd0(%rbp)
    a691:	48 c7 85 38 ff ff ff 	movq   $0x0,-0xc8(%rbp)
    a698:	00 00 00 00 
    a69c:	48 8d 85 58 ed ff ff 	lea    -0x12a8(%rbp),%rax
    a6a3:	48 89 85 40 ff ff ff 	mov    %rax,-0xc0(%rbp)
    a6aa:	48 c7 85 48 ff ff ff 	movq   $0x0,-0xb8(%rbp)
    a6b1:	00 00 00 00 
    a6b5:	48 8d 85 58 ed ff ff 	lea    -0x12a8(%rbp),%rax
    a6bc:	48 89 85 50 ff ff ff 	mov    %rax,-0xb0(%rbp)
    a6c3:	48 8d 85 80 ed ff ff 	lea    -0x1280(%rbp),%rax
    a6ca:	48 89 85 58 ff ff ff 	mov    %rax,-0xa8(%rbp)
    a6d1:	48 c7 85 60 ff ff ff 	movq   $0x0,-0xa0(%rbp)
    a6d8:	00 00 00 00 
    a6dc:	48 c7 85 68 ff ff ff 	movq   $0x0,-0x98(%rbp)
    a6e3:	00 00 00 00 
    a6e7:	48 c7 85 70 ff ff ff 	movq   $0x0,-0x90(%rbp)
    a6ee:	00 00 00 00 
    a6f2:	48 c7 85 78 ff ff ff 	movq   $0x0,-0x88(%rbp)
    a6f9:	00 00 00 00 
    a6fd:	48 8d 05 8c 4f 01 00 	lea    0x14f8c(%rip),%rax        # 1f690 <g_882>
    a704:	48 89 45 80          	mov    %rax,-0x80(%rbp)
    a708:	48 c7 45 88 00 00 00 	movq   $0x0,-0x78(%rbp)
    a70f:	00 
    a710:	48 8d 85 80 ed ff ff 	lea    -0x1280(%rbp),%rax
    a717:	48 89 45 90          	mov    %rax,-0x70(%rbp)
    a71b:	48 8d 85 80 ed ff ff 	lea    -0x1280(%rbp),%rax
    a722:	48 89 45 98          	mov    %rax,-0x68(%rbp)
    a726:	48 8d 05 63 4f 01 00 	lea    0x14f63(%rip),%rax        # 1f690 <g_882>
    a72d:	48 89 45 a0          	mov    %rax,-0x60(%rbp)
    a731:	48 8d 85 80 ed ff ff 	lea    -0x1280(%rbp),%rax
    a738:	48 89 45 a8          	mov    %rax,-0x58(%rbp)
    a73c:	48 8d 85 80 ed ff ff 	lea    -0x1280(%rbp),%rax
    a743:	48 89 45 b0          	mov    %rax,-0x50(%rbp)
    a747:	48 8d 05 b2 1e 01 00 	lea    0x11eb2(%rip),%rax        # 1c600 <g_1009+0xc0>
    a74e:	48 89 85 30 ef ff ff 	mov    %rax,-0x10d0(%rbp)
    a755:	c7 85 04 ed ff ff ff 	movl   $0xffffffff,-0x12fc(%rbp)
    a75c:	ff ff ff 
    a75f:	48 8d 85 38 ed ff ff 	lea    -0x12c8(%rbp),%rax
    a766:	48 89 85 88 ed ff ff 	mov    %rax,-0x1278(%rbp)
    a76d:	48 8d 85 88 ed ff ff 	lea    -0x1278(%rbp),%rax
    a774:	48 89 85 38 ef ff ff 	mov    %rax,-0x10c8(%rbp)
    a77b:	c7 85 d0 ec ff ff 00 	movl   $0x0,-0x1330(%rbp)
    a782:	00 00 00 
    a785:	eb 1e                	jmp    a7a5 <func_30+0x156c>
    a787:	8b 85 d0 ec ff ff    	mov    -0x1330(%rbp),%eax
    a78d:	48 98                	cltq   
    a78f:	48 8d 15 82 28 01 00 	lea    0x12882(%rip),%rdx        # 1d018 <g_1164>
    a796:	48 89 94 c5 30 f3 ff 	mov    %rdx,-0xcd0(%rbp,%rax,8)
    a79d:	ff 
    a79e:	83 85 d0 ec ff ff 01 	addl   $0x1,-0x1330(%rbp)
    a7a5:	83 bd d0 ec ff ff 05 	cmpl   $0x5,-0x1330(%rbp)
    a7ac:	7e d9                	jle    a787 <func_30+0x154e>
    a7ae:	8b 05 20 ea 00 00    	mov    0xea20(%rip),%eax        # 191d4 <l_1146.4570+0x14>
    a7b4:	85 c0                	test   %eax,%eax
    a7b6:	74 22                	je     a7da <func_30+0x15a1>
    a7b8:	48 8b 85 88 ec ff ff 	mov    -0x1378(%rbp),%rax
    a7bf:	48 8b 00             	mov    (%rax),%rax
    a7c2:	89 c2                	mov    %eax,%edx
    a7c4:	48 8b 05 dd 41 01 00 	mov    0x141dd(%rip),%rax        # 1e9a8 <g_76>
    a7cb:	83 f2 01             	xor    $0x1,%edx
    a7ce:	89 10                	mov    %edx,(%rax)
    a7d0:	8b 00                	mov    (%rax),%eax
    a7d2:	85 c0                	test   %eax,%eax
    a7d4:	0f 85 29 01 00 00    	jne    a903 <func_30+0x16ca>
    a7da:	48 8b 85 88 ec ff ff 	mov    -0x1378(%rbp),%rax
    a7e1:	48 8b 18             	mov    (%rax),%rbx
    a7e4:	0f b6 85 84 ec ff ff 	movzbl -0x137c(%rbp),%eax
    a7eb:	44 0f b6 e0          	movzbl %al,%r12d
    a7ef:	8b 05 df e9 00 00    	mov    0xe9df(%rip),%eax        # 191d4 <l_1146.4570+0x14>
    a7f5:	0f b6 d0             	movzbl %al,%edx
    a7f8:	0f b6 85 84 ec ff ff 	movzbl -0x137c(%rbp),%eax
    a7ff:	84 c0                	test   %al,%al
    a801:	74 07                	je     a80a <func_30+0x15d1>
    a803:	b8 01 00 00 00       	mov    $0x1,%eax
    a808:	eb 05                	jmp    a80f <func_30+0x15d6>
    a80a:	b8 00 00 00 00       	mov    $0x0,%eax
    a80f:	48 63 c8             	movslq %eax,%rcx
    a812:	48 8b 85 88 ec ff ff 	mov    -0x1378(%rbp),%rax
    a819:	48 8b 00             	mov    (%rax),%rax
    a81c:	48 21 c1             	and    %rax,%rcx
    a81f:	8b 05 ab e9 00 00    	mov    0xe9ab(%rip),%eax        # 191d0 <l_1146.4570+0x10>
    a825:	48 98                	cltq   
    a827:	48 39 c1             	cmp    %rax,%rcx
    a82a:	0f 95 c0             	setne  %al
    a82d:	0f b6 c0             	movzbl %al,%eax
    a830:	89 d6                	mov    %edx,%esi
    a832:	89 c7                	mov    %eax,%edi
    a834:	e8 5a b3 ff ff       	callq  5b93 <safe_mul_func_uint8_t_u_u>
    a839:	83 f0 03             	xor    $0x3,%eax
    a83c:	0f b6 d0             	movzbl %al,%edx
    a83f:	48 8b 85 30 ef ff ff 	mov    -0x10d0(%rbp),%rax
    a846:	48 89 10             	mov    %rdx,(%rax)
    a849:	48 8b 85 30 ef ff ff 	mov    -0x10d0(%rbp),%rax
    a850:	48 8b 00             	mov    (%rax),%rax
    a853:	48 ba 14 69 a4 77 85 	movabs $0x4a3d268577a46914,%rdx
    a85a:	26 3d 4a 
    a85d:	48 39 d0             	cmp    %rdx,%rax
    a860:	48 8b 85 80 ed ff ff 	mov    -0x1280(%rbp),%rax
    a867:	48 89 85 f8 ed ff ff 	mov    %rax,-0x1208(%rbp)
    a86e:	48 8b 85 58 ed ff ff 	mov    -0x12a8(%rbp),%rax
    a875:	48 39 85 f8 ed ff ff 	cmp    %rax,-0x1208(%rbp)
    a87c:	0f 94 c0             	sete   %al
    a87f:	0f b6 d0             	movzbl %al,%edx
    a882:	48 8b 05 27 4e 01 00 	mov    0x14e27(%rip),%rax        # 1f6b0 <g_906>
    a889:	48 8b 08             	mov    (%rax),%rcx
    a88c:	48 8d 85 38 ed ff ff 	lea    -0x12c8(%rbp),%rax
    a893:	48 39 c1             	cmp    %rax,%rcx
    a896:	0f 95 c0             	setne  %al
    a899:	0f b6 c0             	movzbl %al,%eax
    a89c:	31 c2                	xor    %eax,%edx
    a89e:	48 8b 05 2b 41 01 00 	mov    0x1412b(%rip),%rax        # 1e9d0 <g_274>
    a8a5:	48 63 d2             	movslq %edx,%rdx
    a8a8:	48 89 10             	mov    %rdx,(%rax)
    a8ab:	48 8b 00             	mov    (%rax),%rax
    a8ae:	48 85 c0             	test   %rax,%rax
    a8b1:	74 14                	je     a8c7 <func_30+0x168e>
    a8b3:	48 8b 85 b8 ed ff ff 	mov    -0x1248(%rbp),%rax
    a8ba:	8b 00                	mov    (%rax),%eax
    a8bc:	85 c0                	test   %eax,%eax
    a8be:	74 07                	je     a8c7 <func_30+0x168e>
    a8c0:	b8 01 00 00 00       	mov    $0x1,%eax
    a8c5:	eb 05                	jmp    a8cc <func_30+0x1693>
    a8c7:	b8 00 00 00 00       	mov    $0x0,%eax
    a8cc:	0f b6 c0             	movzbl %al,%eax
    a8cf:	be 04 00 00 00       	mov    $0x4,%esi
    a8d4:	89 c7                	mov    %eax,%edi
    a8d6:	e8 e3 b3 ff ff       	callq  5cbe <safe_rshift_func_uint8_t_u_u>
    a8db:	0f b6 c0             	movzbl %al,%eax
    a8de:	44 89 e6             	mov    %r12d,%esi
    a8e1:	89 c7                	mov    %eax,%edi
    a8e3:	e8 0d ab ff ff       	callq  53f5 <safe_mul_func_int16_t_s_s>
    a8e8:	48 8b 05 d9 40 01 00 	mov    0x140d9(%rip),%rax        # 1e9c8 <g_217>
    a8ef:	48 8b 00             	mov    (%rax),%rax
    a8f2:	48 89 de             	mov    %rbx,%rsi
    a8f5:	48 89 c7             	mov    %rax,%rdi
    a8f8:	e8 4e b7 ff ff       	callq  604b <safe_sub_func_uint64_t_u_u>
    a8fd:	48 83 f8 f7          	cmp    $0xfffffffffffffff7,%rax
    a901:	77 07                	ja     a90a <func_30+0x16d1>
    a903:	b8 01 00 00 00       	mov    $0x1,%eax
    a908:	eb 05                	jmp    a90f <func_30+0x16d6>
    a90a:	b8 00 00 00 00       	mov    $0x0,%eax
    a90f:	89 85 04 ed ff ff    	mov    %eax,-0x12fc(%rbp)
    a915:	8b 85 04 ed ff ff    	mov    -0x12fc(%rbp),%eax
    a91b:	48 63 d0             	movslq %eax,%rdx
    a91e:	48 8b 85 20 ef ff ff 	mov    -0x10e0(%rbp),%rax
    a925:	48 c7 00 fa ff ff ff 	movq   $0xfffffffffffffffa,(%rax)
    a92c:	48 8b 85 20 ef ff ff 	mov    -0x10e0(%rbp),%rax
    a933:	48 8b 00             	mov    (%rax),%rax
    a936:	48 89 d6             	mov    %rdx,%rsi
    a939:	48 89 c7             	mov    %rax,%rdi
    a93c:	e8 0a b7 ff ff       	callq  604b <safe_sub_func_uint64_t_u_u>
    a941:	89 c2                	mov    %eax,%edx
    a943:	48 8b 85 b8 ed ff ff 	mov    -0x1248(%rbp),%rax
    a94a:	89 10                	mov    %edx,(%rax)
    a94c:	48 c7 05 99 1a 01 00 	movq   $0x0,0x11a99(%rip)        # 1c3f0 <g_354>
    a953:	00 00 00 00 
    a957:	eb 2c                	jmp    a985 <func_30+0x174c>
    a959:	48 8b 85 b8 ed ff ff 	mov    -0x1248(%rbp),%rax
    a960:	8b 10                	mov    (%rax),%edx
    a962:	8b 05 6c e8 00 00    	mov    0xe86c(%rip),%eax        # 191d4 <l_1146.4570+0x14>
    a968:	21 c2                	and    %eax,%edx
    a96a:	48 8b 85 b8 ed ff ff 	mov    -0x1248(%rbp),%rax
    a971:	89 10                	mov    %edx,(%rax)
    a973:	48 8b 05 76 1a 01 00 	mov    0x11a76(%rip),%rax        # 1c3f0 <g_354>
    a97a:	48 83 e8 01          	sub    $0x1,%rax
    a97e:	48 89 05 6b 1a 01 00 	mov    %rax,0x11a6b(%rip)        # 1c3f0 <g_354>
    a985:	48 8b 05 64 1a 01 00 	mov    0x11a64(%rip),%rax        # 1c3f0 <g_354>
    a98c:	48 83 f8 e8          	cmp    $0xffffffffffffffe8,%rax
    a990:	7d c7                	jge    a959 <func_30+0x1720>
    a992:	8b 05 48 e8 00 00    	mov    0xe848(%rip),%eax        # 191e0 <l_1146.4570+0x20>
    a998:	85 c0                	test   %eax,%eax
    a99a:	75 5e                	jne    a9fa <func_30+0x17c1>
    a99c:	48 8b 85 20 ef ff ff 	mov    -0x10e0(%rbp),%rax
    a9a3:	48 8b 10             	mov    (%rax),%rdx
    a9a6:	8b 05 28 e8 00 00    	mov    0xe828(%rip),%eax        # 191d4 <l_1146.4570+0x14>
    a9ac:	48 98                	cltq   
    a9ae:	48 31 c2             	xor    %rax,%rdx
    a9b1:	48 8b 85 20 ef ff ff 	mov    -0x10e0(%rbp),%rax
    a9b8:	48 89 10             	mov    %rdx,(%rax)
    a9bb:	48 8b 85 20 ef ff ff 	mov    -0x10e0(%rbp),%rax
    a9c2:	48 8b 00             	mov    (%rax),%rax
    a9c5:	48 85 c0             	test   %rax,%rax
    a9c8:	0f 94 c0             	sete   %al
    a9cb:	0f b6 c0             	movzbl %al,%eax
    a9ce:	be ff 00 00 00       	mov    $0xff,%esi
    a9d3:	89 c7                	mov    %eax,%edi
    a9d5:	e8 b9 b1 ff ff       	callq  5b93 <safe_mul_func_uint8_t_u_u>
    a9da:	0f b6 d0             	movzbl %al,%edx
    a9dd:	8b 05 dd e7 00 00    	mov    0xe7dd(%rip),%eax        # 191c0 <l_1146.4570>
    a9e3:	39 c2                	cmp    %eax,%edx
    a9e5:	0f 9d c0             	setge  %al
    a9e8:	0f b6 c0             	movzbl %al,%eax
    a9eb:	89 85 04 ed ff ff    	mov    %eax,-0x12fc(%rbp)
    a9f1:	83 bd 04 ed ff ff 00 	cmpl   $0x0,-0x12fc(%rbp)
    a9f8:	74 07                	je     aa01 <func_30+0x17c8>
    a9fa:	ba 01 00 00 00       	mov    $0x1,%edx
    a9ff:	eb 05                	jmp    aa06 <func_30+0x17cd>
    aa01:	ba 00 00 00 00       	mov    $0x0,%edx
    aa06:	48 8b 85 b8 ed ff ff 	mov    -0x1248(%rbp),%rax
    aa0d:	8b 00                	mov    (%rax),%eax
    aa0f:	31 c2                	xor    %eax,%edx
    aa11:	48 8b 85 b8 ed ff ff 	mov    -0x1248(%rbp),%rax
    aa18:	89 10                	mov    %edx,(%rax)
    aa1a:	e9 fa 18 00 00       	jmpq   c319 <func_30+0x30e0>
    aa1f:	c7 85 b4 ec ff ff a5 	movl   $0x9ef202a5,-0x134c(%rbp)
    aa26:	02 f2 9e 
    aa29:	48 c7 85 70 ed ff ff 	movq   $0xfffffffffffffffb,-0x1290(%rbp)
    aa30:	fb ff ff ff 
    aa34:	c7 85 b8 ec ff ff ff 	movl   $0xffffffff,-0x1348(%rbp)
    aa3b:	ff ff ff 
    aa3e:	c7 85 bc ec ff ff 7d 	movl   $0xd878f77d,-0x1344(%rbp)
    aa45:	f7 78 d8 
    aa48:	c7 85 c0 ec ff ff 9b 	movl   $0x292d1b9b,-0x1340(%rbp)
    aa4f:	1b 2d 29 
    aa52:	c7 85 d4 ec ff ff da 	movl   $0xe2df33da,-0x132c(%rbp)
    aa59:	33 df e2 
    aa5c:	48 c7 85 20 ee ff ff 	movq   $0x0,-0x11e0(%rbp)
    aa63:	00 00 00 00 
    aa67:	48 8d 05 ea 4c 01 00 	lea    0x14cea(%rip),%rax        # 1f758 <g_1361>
    aa6e:	48 89 85 28 ee ff ff 	mov    %rax,-0x11d8(%rbp)
    aa75:	48 8d 85 bc ec ff ff 	lea    -0x1344(%rbp),%rax
    aa7c:	48 89 85 10 f1 ff ff 	mov    %rax,-0xef0(%rbp)
    aa83:	48 8d 85 bc ec ff ff 	lea    -0x1344(%rbp),%rax
    aa8a:	48 89 85 18 f1 ff ff 	mov    %rax,-0xee8(%rbp)
    aa91:	48 8d 85 b8 ec ff ff 	lea    -0x1348(%rbp),%rax
    aa98:	48 89 85 20 f1 ff ff 	mov    %rax,-0xee0(%rbp)
    aa9f:	48 8d 85 bc ec ff ff 	lea    -0x1344(%rbp),%rax
    aaa6:	48 89 85 28 f1 ff ff 	mov    %rax,-0xed8(%rbp)
    aaad:	48 8d 85 bc ec ff ff 	lea    -0x1344(%rbp),%rax
    aab4:	48 89 85 30 f1 ff ff 	mov    %rax,-0xed0(%rbp)
    aabb:	48 8d 85 b8 ec ff ff 	lea    -0x1348(%rbp),%rax
    aac2:	48 89 85 38 f1 ff ff 	mov    %rax,-0xec8(%rbp)
    aac9:	48 8d 85 bc ec ff ff 	lea    -0x1344(%rbp),%rax
    aad0:	48 89 85 40 f1 ff ff 	mov    %rax,-0xec0(%rbp)
    aad7:	48 8d 85 bc ec ff ff 	lea    -0x1344(%rbp),%rax
    aade:	48 89 85 48 f1 ff ff 	mov    %rax,-0xeb8(%rbp)
    aae5:	48 8d 85 b8 ec ff ff 	lea    -0x1348(%rbp),%rax
    aaec:	48 89 85 50 f1 ff ff 	mov    %rax,-0xeb0(%rbp)
    aaf3:	c7 85 ec ec ff ff 7c 	movl   $0xc375567c,-0x1314(%rbp)
    aafa:	56 75 c3 
    aafd:	66 c7 85 a8 ec ff ff 	movw   $0x1,-0x1358(%rbp)
    ab04:	01 00 
    ab06:	48 c7 85 30 ee ff ff 	movq   $0x0,-0x11d0(%rbp)
    ab0d:	00 00 00 00 
    ab11:	48 8d 05 20 15 01 00 	lea    0x11520(%rip),%rax        # 1c038 <g_53>
    ab18:	48 89 85 38 ee ff ff 	mov    %rax,-0x11c8(%rbp)
    ab1f:	c7 85 d8 ec ff ff 00 	movl   $0x0,-0x1328(%rbp)
    ab26:	00 00 00 
    ab29:	eb 14                	jmp    ab3f <func_30+0x1906>
    ab2b:	8b 85 d8 ec ff ff    	mov    -0x1328(%rbp),%eax
    ab31:	48 98                	cltq   
    ab33:	c6 44 05 c1 fd       	movb   $0xfd,-0x3f(%rbp,%rax,1)
    ab38:	83 85 d8 ec ff ff 01 	addl   $0x1,-0x1328(%rbp)
    ab3f:	83 bd d8 ec ff ff 06 	cmpl   $0x6,-0x1328(%rbp)
    ab46:	7e e3                	jle    ab2b <func_30+0x18f2>
    ab48:	c7 85 d8 ec ff ff 00 	movl   $0x0,-0x1328(%rbp)
    ab4f:	00 00 00 
    ab52:	eb 1b                	jmp    ab6f <func_30+0x1936>
    ab54:	8b 85 d8 ec ff ff    	mov    -0x1328(%rbp),%eax
    ab5a:	48 98                	cltq   
    ab5c:	48 c7 84 c5 10 f0 ff 	movq   $0x0,-0xff0(%rbp,%rax,8)
    ab63:	ff 00 00 00 00 
    ab68:	83 85 d8 ec ff ff 01 	addl   $0x1,-0x1328(%rbp)
    ab6f:	83 bd d8 ec ff ff 05 	cmpl   $0x5,-0x1328(%rbp)
    ab76:	7e dc                	jle    ab54 <func_30+0x191b>
    ab78:	90                   	nop
    ab79:	f3 0f 1e fa          	endbr64 
    ab7d:	c7 85 b0 ec ff ff 01 	movl   $0x1,-0x1350(%rbp)
    ab84:	00 00 00 
    ab87:	e9 fa 0f 00 00       	jmpq   bb86 <func_30+0x294d>
    ab8c:	48 8d 05 a9 14 01 00 	lea    0x114a9(%rip),%rax        # 1c03c <g_58>
    ab93:	48 89 85 90 ee ff ff 	mov    %rax,-0x1170(%rbp)
    ab9a:	c7 85 c4 ec ff ff f1 	movl   $0x1c7219f1,-0x133c(%rbp)
    aba1:	19 72 1c 
    aba4:	48 c7 85 98 ee ff ff 	movq   $0x0,-0x1168(%rbp)
    abab:	00 00 00 00 
    abaf:	48 8d 05 b2 55 01 00 	lea    0x155b2(%rip),%rax        # 20168 <g_23>
    abb6:	48 89 85 78 ed ff ff 	mov    %rax,-0x1288(%rbp)
    abbd:	48 c7 85 a0 ee ff ff 	movq   $0x0,-0x1160(%rbp)
    abc4:	00 00 00 00 
    abc8:	48 8d 85 78 ed ff ff 	lea    -0x1288(%rbp),%rax
    abcf:	48 89 85 a8 ee ff ff 	mov    %rax,-0x1158(%rbp)
    abd6:	48 c7 85 b0 ee ff ff 	movq   $0x0,-0x1150(%rbp)
    abdd:	00 00 00 00 
    abe1:	48 8d 05 80 55 01 00 	lea    0x15580(%rip),%rax        # 20168 <g_23>
    abe8:	48 89 85 80 ed ff ff 	mov    %rax,-0x1280(%rbp)
    abef:	48 8d 85 80 ed ff ff 	lea    -0x1280(%rbp),%rax
    abf6:	48 89 85 b8 ee ff ff 	mov    %rax,-0x1148(%rbp)
    abfd:	48 b8 c4 d3 68 ed f2 	movabs $0xc43401f2ed68d3c4,%rax
    ac04:	01 34 c4 
    ac07:	48 89 85 c0 ee ff ff 	mov    %rax,-0x1140(%rbp)
    ac0e:	48 8d 05 e3 18 01 00 	lea    0x118e3(%rip),%rax        # 1c4f8 <g_427>
    ac15:	48 89 85 c8 ee ff ff 	mov    %rax,-0x1138(%rbp)
    ac1c:	48 8d 05 85 3d 01 00 	lea    0x13d85(%rip),%rax        # 1e9a8 <g_76>
    ac23:	48 89 85 d0 ee ff ff 	mov    %rax,-0x1130(%rbp)
    ac2a:	48 8d 05 97 3d 01 00 	lea    0x13d97(%rip),%rax        # 1e9c8 <g_217>
    ac31:	48 89 85 88 ed ff ff 	mov    %rax,-0x1278(%rbp)
    ac38:	48 8d 85 88 ed ff ff 	lea    -0x1278(%rbp),%rax
    ac3f:	48 89 85 d8 ee ff ff 	mov    %rax,-0x1128(%rbp)
    ac46:	48 8d 85 80 ed ff ff 	lea    -0x1280(%rbp),%rax
    ac4d:	48 89 85 e0 ee ff ff 	mov    %rax,-0x1120(%rbp)
    ac54:	48 8d 05 e1 13 01 00 	lea    0x113e1(%rip),%rax        # 1c03c <g_58>
    ac5b:	48 89 85 30 f3 ff ff 	mov    %rax,-0xcd0(%rbp)
    ac62:	48 8d 85 b0 ec ff ff 	lea    -0x1350(%rbp),%rax
    ac69:	48 89 85 38 f3 ff ff 	mov    %rax,-0xcc8(%rbp)
    ac70:	48 8d 05 c5 13 01 00 	lea    0x113c5(%rip),%rax        # 1c03c <g_58>
    ac77:	48 89 85 40 f3 ff ff 	mov    %rax,-0xcc0(%rbp)
    ac7e:	48 8d 85 b0 ec ff ff 	lea    -0x1350(%rbp),%rax
    ac85:	48 89 85 48 f3 ff ff 	mov    %rax,-0xcb8(%rbp)
    ac8c:	48 8d 05 a9 13 01 00 	lea    0x113a9(%rip),%rax        # 1c03c <g_58>
    ac93:	48 89 85 50 f3 ff ff 	mov    %rax,-0xcb0(%rbp)
    ac9a:	48 8d 85 b0 ec ff ff 	lea    -0x1350(%rbp),%rax
    aca1:	48 89 85 58 f3 ff ff 	mov    %rax,-0xca8(%rbp)
    aca8:	48 8d 05 8d 13 01 00 	lea    0x1138d(%rip),%rax        # 1c03c <g_58>
    acaf:	48 89 85 60 f3 ff ff 	mov    %rax,-0xca0(%rbp)
    acb6:	48 8d 85 b0 ec ff ff 	lea    -0x1350(%rbp),%rax
    acbd:	48 89 85 68 f3 ff ff 	mov    %rax,-0xc98(%rbp)
    acc4:	48 8d 05 71 13 01 00 	lea    0x11371(%rip),%rax        # 1c03c <g_58>
    accb:	48 89 85 70 f3 ff ff 	mov    %rax,-0xc90(%rbp)
    acd2:	48 8d 85 b0 ec ff ff 	lea    -0x1350(%rbp),%rax
    acd9:	48 89 85 78 f3 ff ff 	mov    %rax,-0xc88(%rbp)
    ace0:	48 8d 05 55 13 01 00 	lea    0x11355(%rip),%rax        # 1c03c <g_58>
    ace7:	48 89 85 80 f3 ff ff 	mov    %rax,-0xc80(%rbp)
    acee:	48 8d 85 b0 ec ff ff 	lea    -0x1350(%rbp),%rax
    acf5:	48 89 85 88 f3 ff ff 	mov    %rax,-0xc78(%rbp)
    acfc:	48 8d 05 39 13 01 00 	lea    0x11339(%rip),%rax        # 1c03c <g_58>
    ad03:	48 89 85 90 f3 ff ff 	mov    %rax,-0xc70(%rbp)
    ad0a:	48 8d 85 b0 ec ff ff 	lea    -0x1350(%rbp),%rax
    ad11:	48 89 85 98 f3 ff ff 	mov    %rax,-0xc68(%rbp)
    ad18:	48 8d 05 1d 13 01 00 	lea    0x1131d(%rip),%rax        # 1c03c <g_58>
    ad1f:	48 89 85 a0 f3 ff ff 	mov    %rax,-0xc60(%rbp)
    ad26:	48 8d 85 b0 ec ff ff 	lea    -0x1350(%rbp),%rax
    ad2d:	48 89 85 a8 f3 ff ff 	mov    %rax,-0xc58(%rbp)
    ad34:	48 8d 05 01 13 01 00 	lea    0x11301(%rip),%rax        # 1c03c <g_58>
    ad3b:	48 89 85 b0 f3 ff ff 	mov    %rax,-0xc50(%rbp)
    ad42:	48 8d 85 b0 ec ff ff 	lea    -0x1350(%rbp),%rax
    ad49:	48 89 85 b8 f3 ff ff 	mov    %rax,-0xc48(%rbp)
    ad50:	48 8d 05 e5 12 01 00 	lea    0x112e5(%rip),%rax        # 1c03c <g_58>
    ad57:	48 89 85 c0 f3 ff ff 	mov    %rax,-0xc40(%rbp)
    ad5e:	48 8d 85 b0 ec ff ff 	lea    -0x1350(%rbp),%rax
    ad65:	48 89 85 c8 f3 ff ff 	mov    %rax,-0xc38(%rbp)
    ad6c:	48 8d 05 c9 12 01 00 	lea    0x112c9(%rip),%rax        # 1c03c <g_58>
    ad73:	48 89 85 d0 f3 ff ff 	mov    %rax,-0xc30(%rbp)
    ad7a:	48 8d 85 b0 ec ff ff 	lea    -0x1350(%rbp),%rax
    ad81:	48 89 85 d8 f3 ff ff 	mov    %rax,-0xc28(%rbp)
    ad88:	48 8d 05 ad 12 01 00 	lea    0x112ad(%rip),%rax        # 1c03c <g_58>
    ad8f:	48 89 85 e0 f3 ff ff 	mov    %rax,-0xc20(%rbp)
    ad96:	48 8d 85 b0 ec ff ff 	lea    -0x1350(%rbp),%rax
    ad9d:	48 89 85 e8 f3 ff ff 	mov    %rax,-0xc18(%rbp)
    ada4:	48 8d 85 30 f3 ff ff 	lea    -0xcd0(%rbp),%rax
    adab:	48 83 c0 58          	add    $0x58,%rax
    adaf:	48 89 85 e8 ee ff ff 	mov    %rax,-0x1118(%rbp)
    adb6:	48 c7 85 40 f2 ff ff 	movq   $0x0,-0xdc0(%rbp)
    adbd:	00 00 00 00 
    adc1:	48 c7 85 48 f2 ff ff 	movq   $0x0,-0xdb8(%rbp)
    adc8:	00 00 00 00 
    adcc:	48 c7 85 50 f2 ff ff 	movq   $0x0,-0xdb0(%rbp)
    add3:	00 00 00 00 
    add7:	48 c7 85 58 f2 ff ff 	movq   $0x0,-0xda8(%rbp)
    adde:	00 00 00 00 
    ade2:	48 c7 85 60 f2 ff ff 	movq   $0x0,-0xda0(%rbp)
    ade9:	00 00 00 00 
    aded:	48 c7 85 68 f2 ff ff 	movq   $0x0,-0xd98(%rbp)
    adf4:	00 00 00 00 
    adf8:	48 c7 85 70 f2 ff ff 	movq   $0x0,-0xd90(%rbp)
    adff:	00 00 00 00 
    ae03:	48 c7 85 78 f2 ff ff 	movq   $0x0,-0xd88(%rbp)
    ae0a:	00 00 00 00 
    ae0e:	48 c7 85 80 f2 ff ff 	movq   $0x0,-0xd80(%rbp)
    ae15:	00 00 00 00 
    ae19:	48 c7 85 88 f2 ff ff 	movq   $0x0,-0xd78(%rbp)
    ae20:	00 00 00 00 
    ae24:	48 8d 85 40 f2 ff ff 	lea    -0xdc0(%rbp),%rax
    ae2b:	48 83 c0 38          	add    $0x38,%rax
    ae2f:	48 89 85 f0 ee ff ff 	mov    %rax,-0x1110(%rbp)
    ae36:	48 c7 05 d7 21 01 00 	movq   $0x0,0x121d7(%rip)        # 1d018 <g_1164>
    ae3d:	00 00 00 00 
    ae41:	e9 36 01 00 00       	jmpq   af7c <func_30+0x1d43>
    ae46:	c7 85 00 ed ff ff 80 	movl   $0x90482680,-0x1300(%rbp)
    ae4d:	26 48 90 
    ae50:	c6 05 e9 11 01 00 00 	movb   $0x0,0x111e9(%rip)        # 1c040 <g_69>
    ae57:	e9 e6 00 00 00       	jmpq   af42 <func_30+0x1d09>
    ae5c:	48 8d 05 d5 11 01 00 	lea    0x111d5(%rip),%rax        # 1c038 <g_53>
    ae63:	48 89 85 10 f8 ff ff 	mov    %rax,-0x7f0(%rbp)
    ae6a:	48 c7 85 18 f8 ff ff 	movq   $0x0,-0x7e8(%rbp)
    ae71:	00 00 00 00 
    ae75:	48 c7 85 20 f8 ff ff 	movq   $0x0,-0x7e0(%rbp)
    ae7c:	00 00 00 00 
    ae80:	48 8d 05 b1 11 01 00 	lea    0x111b1(%rip),%rax        # 1c038 <g_53>
    ae87:	48 89 85 28 f8 ff ff 	mov    %rax,-0x7d8(%rbp)
    ae8e:	48 c7 85 30 f8 ff ff 	movq   $0x0,-0x7d0(%rbp)
    ae95:	00 00 00 00 
    ae99:	48 8d 05 98 11 01 00 	lea    0x11198(%rip),%rax        # 1c038 <g_53>
    aea0:	48 89 85 38 f8 ff ff 	mov    %rax,-0x7c8(%rbp)
    aea7:	48 8d 05 8a 11 01 00 	lea    0x1118a(%rip),%rax        # 1c038 <g_53>
    aeae:	48 89 85 40 f8 ff ff 	mov    %rax,-0x7c0(%rbp)
    aeb5:	48 8d 05 7c 11 01 00 	lea    0x1117c(%rip),%rax        # 1c038 <g_53>
    aebc:	48 89 85 48 f8 ff ff 	mov    %rax,-0x7b8(%rbp)
    aec3:	48 8d 05 6e 11 01 00 	lea    0x1116e(%rip),%rax        # 1c038 <g_53>
    aeca:	48 89 85 50 f8 ff ff 	mov    %rax,-0x7b0(%rbp)
    aed1:	48 8d 05 60 11 01 00 	lea    0x11160(%rip),%rax        # 1c038 <g_53>
    aed8:	48 89 85 58 f8 ff ff 	mov    %rax,-0x7a8(%rbp)
    aedf:	48 8d 05 12 16 01 00 	lea    0x11612(%rip),%rax        # 1c4f8 <g_427>
    aee6:	48 89 85 08 ef ff ff 	mov    %rax,-0x10f8(%rbp)
    aeed:	48 c7 85 60 f1 ff ff 	movq   $0x0,-0xea0(%rbp)
    aef4:	00 00 00 00 
    aef8:	48 c7 85 68 f1 ff ff 	movq   $0x0,-0xe98(%rbp)
    aeff:	00 00 00 00 
    af03:	48 c7 85 70 f1 ff ff 	movq   $0x0,-0xe90(%rbp)
    af0a:	00 00 00 00 
    af0e:	48 c7 85 78 f1 ff ff 	movq   $0x0,-0xe88(%rbp)
    af15:	00 00 00 00 
    af19:	48 c7 85 10 ef ff ff 	movq   $0x0,-0x10f0(%rbp)
    af20:	00 00 00 00 
    af24:	48 8d 05 bf 14 01 00 	lea    0x114bf(%rip),%rax        # 1c3ea <g_330>
    af2b:	48 89 85 18 ef ff ff 	mov    %rax,-0x10e8(%rbp)
    af32:	0f b6 05 07 11 01 00 	movzbl 0x11107(%rip),%eax        # 1c040 <g_69>
    af39:	83 c0 01             	add    $0x1,%eax
    af3c:	88 05 fe 10 01 00    	mov    %al,0x110fe(%rip)        # 1c040 <g_69>
    af42:	0f b6 05 f7 10 01 00 	movzbl 0x110f7(%rip),%eax        # 1c040 <g_69>
    af49:	3c 01                	cmp    $0x1,%al
    af4b:	0f 86 0b ff ff ff    	jbe    ae5c <func_30+0x1c23>
    af51:	48 8b 85 b8 ed ff ff 	mov    -0x1248(%rbp),%rax
    af58:	8b 00                	mov    (%rax),%eax
    af5a:	25 6f 15 be a0       	and    $0xa0be156f,%eax
    af5f:	89 c2                	mov    %eax,%edx
    af61:	48 8b 85 b8 ed ff ff 	mov    -0x1248(%rbp),%rax
    af68:	89 10                	mov    %edx,(%rax)
    af6a:	48 8b 05 a7 20 01 00 	mov    0x120a7(%rip),%rax        # 1d018 <g_1164>
    af71:	48 83 c0 01          	add    $0x1,%rax
    af75:	48 89 05 9c 20 01 00 	mov    %rax,0x1209c(%rip)        # 1d018 <g_1164>
    af7c:	48 8b 05 95 20 01 00 	mov    0x12095(%rip),%rax        # 1d018 <g_1164>
    af83:	48 83 f8 01          	cmp    $0x1,%rax
    af87:	0f 86 b9 fe ff ff    	jbe    ae46 <func_30+0x1c0d>
    af8d:	48 8b 95 78 ed ff ff 	mov    -0x1288(%rbp),%rdx
    af94:	48 8b 85 a8 ee ff ff 	mov    -0x1158(%rbp),%rax
    af9b:	48 89 10             	mov    %rdx,(%rax)
    af9e:	48 8b 85 a8 ee ff ff 	mov    -0x1158(%rbp),%rax
    afa5:	48 8b 10             	mov    (%rax),%rdx
    afa8:	48 8b 85 b8 ee ff ff 	mov    -0x1148(%rbp),%rax
    afaf:	48 8d 0d b2 51 01 00 	lea    0x151b2(%rip),%rcx        # 20168 <g_23>
    afb6:	48 89 08             	mov    %rcx,(%rax)
    afb9:	48 8b 85 b8 ee ff ff 	mov    -0x1148(%rbp),%rax
    afc0:	48 8b 00             	mov    (%rax),%rax
    afc3:	48 39 c2             	cmp    %rax,%rdx
    afc6:	0f 94 c2             	sete   %dl
    afc9:	48 8b 05 00 46 01 00 	mov    0x14600(%rip),%rax        # 1f5d0 <g_637>
    afd0:	0f b6 d2             	movzbl %dl,%edx
    afd3:	66 89 10             	mov    %dx,(%rax)
    afd6:	0f b7 00             	movzwl (%rax),%eax
    afd9:	66 85 c0             	test   %ax,%ax
    afdc:	75 26                	jne    b004 <func_30+0x1dcb>
    afde:	8b 85 b4 ec ff ff    	mov    -0x134c(%rbp),%eax
    afe4:	48 98                	cltq   
    afe6:	48 ba 27 8e 36 10 a8 	movabs $0x85e4bea810368e27,%rdx
    afed:	be e4 85 
    aff0:	48 39 d0             	cmp    %rdx,%rax
    aff3:	75 16                	jne    b00b <func_30+0x1dd2>
    aff5:	48 8b 05 d4 45 01 00 	mov    0x145d4(%rip),%rax        # 1f5d0 <g_637>
    affc:	0f b7 00             	movzwl (%rax),%eax
    afff:	66 85 c0             	test   %ax,%ax
    b002:	74 07                	je     b00b <func_30+0x1dd2>
    b004:	b8 01 00 00 00       	mov    $0x1,%eax
    b009:	eb 05                	jmp    b010 <func_30+0x1dd7>
    b00b:	b8 00 00 00 00       	mov    $0x0,%eax
    b010:	0f be c0             	movsbl %al,%eax
    b013:	be f8 ff ff ff       	mov    $0xfffffff8,%esi
    b018:	89 c7                	mov    %eax,%edi
    b01a:	e8 d3 a1 ff ff       	callq  51f2 <safe_sub_func_int8_t_s_s>
    b01f:	48 8b 85 90 ee ff ff 	mov    -0x1170(%rbp),%rax
    b026:	8b 00                	mov    (%rax),%eax
    b028:	48 63 d0             	movslq %eax,%rdx
    b02b:	48 8b 05 9e 39 01 00 	mov    0x1399e(%rip),%rax        # 1e9d0 <g_274>
    b032:	48 8b 00             	mov    (%rax),%rax
    b035:	48 39 c2             	cmp    %rax,%rdx
    b038:	0f 95 c2             	setne  %dl
    b03b:	48 8b 05 a6 39 01 00 	mov    0x139a6(%rip),%rax        # 1e9e8 <g_442>
    b042:	0f b6 d2             	movzbl %dl,%edx
    b045:	89 10                	mov    %edx,(%rax)
    b047:	8b 00                	mov    (%rax),%eax
    b049:	85 c0                	test   %eax,%eax
    b04b:	74 11                	je     b05e <func_30+0x1e25>
    b04d:	8b 85 b8 ec ff ff    	mov    -0x1348(%rbp),%eax
    b053:	85 c0                	test   %eax,%eax
    b055:	74 07                	je     b05e <func_30+0x1e25>
    b057:	b8 01 00 00 00       	mov    $0x1,%eax
    b05c:	eb 05                	jmp    b063 <func_30+0x1e2a>
    b05e:	b8 00 00 00 00       	mov    $0x0,%eax
    b063:	0f be d0             	movsbl %al,%edx
    b066:	48 8d 05 c3 0f 01 00 	lea    0x10fc3(%rip),%rax        # 1c030 <g_14>
    b06d:	0f b6 00             	movzbl (%rax),%eax
    b070:	0f be c0             	movsbl %al,%eax
    b073:	89 d6                	mov    %edx,%esi
    b075:	89 c7                	mov    %eax,%edi
    b077:	e8 58 a1 ff ff       	callq  51d4 <safe_add_func_int8_t_s_s>
    b07c:	84 c0                	test   %al,%al
    b07e:	74 1c                	je     b09c <func_30+0x1e63>
    b080:	83 85 c8 ec ff ff 01 	addl   $0x1,-0x1338(%rbp)
    b087:	0f b7 05 2a 51 01 00 	movzwl 0x1512a(%rip),%eax        # 201b8 <g_421>
    b08e:	66 85 c0             	test   %ax,%ax
    b091:	0f 84 70 09 00 00    	je     ba07 <func_30+0x27ce>
    b097:	e9 8c e6 ff ff       	jmpq   9728 <func_30+0x4ef>
    b09c:	48 8d 05 9d 45 01 00 	lea    0x1459d(%rip),%rax        # 1f640 <g_840+0x40>
    b0a3:	48 89 85 60 f1 ff ff 	mov    %rax,-0xea0(%rbp)
    b0aa:	48 8d 05 87 45 01 00 	lea    0x14587(%rip),%rax        # 1f638 <g_840+0x38>
    b0b1:	48 89 85 68 f1 ff ff 	mov    %rax,-0xe98(%rbp)
    b0b8:	48 8d 05 81 45 01 00 	lea    0x14581(%rip),%rax        # 1f640 <g_840+0x40>
    b0bf:	48 89 85 70 f1 ff ff 	mov    %rax,-0xe90(%rbp)
    b0c6:	48 8d 05 6b 45 01 00 	lea    0x1456b(%rip),%rax        # 1f638 <g_840+0x38>
    b0cd:	48 89 85 78 f1 ff ff 	mov    %rax,-0xe88(%rbp)
    b0d4:	48 8d 05 65 45 01 00 	lea    0x14565(%rip),%rax        # 1f640 <g_840+0x40>
    b0db:	48 89 85 80 f1 ff ff 	mov    %rax,-0xe80(%rbp)
    b0e2:	48 8d 05 4f 45 01 00 	lea    0x1454f(%rip),%rax        # 1f638 <g_840+0x38>
    b0e9:	48 89 85 88 f1 ff ff 	mov    %rax,-0xe78(%rbp)
    b0f0:	48 8d 05 49 45 01 00 	lea    0x14549(%rip),%rax        # 1f640 <g_840+0x40>
    b0f7:	48 89 85 90 f1 ff ff 	mov    %rax,-0xe70(%rbp)
    b0fe:	48 8d 05 33 45 01 00 	lea    0x14533(%rip),%rax        # 1f638 <g_840+0x38>
    b105:	48 89 85 98 f1 ff ff 	mov    %rax,-0xe68(%rbp)
    b10c:	48 8d 05 2d 45 01 00 	lea    0x1452d(%rip),%rax        # 1f640 <g_840+0x40>
    b113:	48 89 85 a0 f1 ff ff 	mov    %rax,-0xe60(%rbp)
    b11a:	48 8d 05 87 38 01 00 	lea    0x13887(%rip),%rax        # 1e9a8 <g_76>
    b121:	48 89 85 f8 ee ff ff 	mov    %rax,-0x1108(%rbp)
    b128:	c7 85 68 ed ff ff 00 	movl   $0x0,-0x1298(%rbp)
    b12f:	00 00 00 
    b132:	48 8d 05 03 0f 01 00 	lea    0x10f03(%rip),%rax        # 1c03c <g_58>
    b139:	48 89 85 90 ed ff ff 	mov    %rax,-0x1270(%rbp)
    b140:	48 8b 05 d1 1e 01 00 	mov    0x11ed1(%rip),%rax        # 1d018 <g_1164>
    b147:	48 85 c0             	test   %rax,%rax
    b14a:	0f 85 30 0a 00 00    	jne    bb80 <func_30+0x2947>
    b150:	48 83 bd c0 ee ff ff 	cmpq   $0x4,-0x1140(%rbp)
    b157:	04 
    b158:	0f 95 c0             	setne  %al
    b15b:	0f b6 d0             	movzbl %al,%edx
    b15e:	48 8b 85 b8 ed ff ff 	mov    -0x1248(%rbp),%rax
    b165:	89 10                	mov    %edx,(%rax)
    b167:	0f b6 85 84 ec ff ff 	movzbl -0x137c(%rbp),%eax
    b16e:	84 c0                	test   %al,%al
    b170:	75 59                	jne    b1cb <func_30+0x1f92>
    b172:	0f b6 45 c5          	movzbl -0x3b(%rbp),%eax
    b176:	66 98                	cbtw   
    b178:	0f b7 c0             	movzwl %ax,%eax
    b17b:	89 c6                	mov    %eax,%esi
    b17d:	bf ff ff 00 00       	mov    $0xffff,%edi
    b182:	e8 78 ab ff ff       	callq  5cff <safe_add_func_uint16_t_u_u>
    b187:	0f be d0             	movsbl %al,%edx
    b18a:	48 8b 05 0f 45 01 00 	mov    0x1450f(%rip),%rax        # 1f6a0 <g_883>
    b191:	48 8b 00             	mov    (%rax),%rax
    b194:	48 8b 00             	mov    (%rax),%rax
    b197:	8b 00                	mov    (%rax),%eax
    b199:	85 c0                	test   %eax,%eax
    b19b:	75 0b                	jne    b1a8 <func_30+0x1f6f>
    b19d:	0f b6 85 84 ec ff ff 	movzbl -0x137c(%rbp),%eax
    b1a4:	84 c0                	test   %al,%al
    b1a6:	74 07                	je     b1af <func_30+0x1f76>
    b1a8:	b8 01 00 00 00       	mov    $0x1,%eax
    b1ad:	eb 05                	jmp    b1b4 <func_30+0x1f7b>
    b1af:	b8 00 00 00 00       	mov    $0x0,%eax
    b1b4:	0f be c0             	movsbl %al,%eax
    b1b7:	89 d6                	mov    %edx,%esi
    b1b9:	89 c7                	mov    %eax,%edi
    b1bb:	e8 52 a0 ff ff       	callq  5212 <safe_mul_func_int8_t_s_s>
    b1c0:	84 c0                	test   %al,%al
    b1c2:	75 07                	jne    b1cb <func_30+0x1f92>
    b1c4:	b8 01 00 00 00       	mov    $0x1,%eax
    b1c9:	eb 05                	jmp    b1d0 <func_30+0x1f97>
    b1cb:	b8 00 00 00 00       	mov    $0x0,%eax
    b1d0:	0f be d8             	movsbl %al,%ebx
    b1d3:	0f b6 45 c5          	movzbl -0x3b(%rbp),%eax
    b1d7:	66 98                	cbtw   
    b1d9:	44 0f b7 e0          	movzwl %ax,%r12d
    b1dd:	48 8d 05 14 13 01 00 	lea    0x11314(%rip),%rax        # 1c4f8 <g_427>
    b1e4:	48 89 85 c8 ee ff ff 	mov    %rax,-0x1138(%rbp)
    b1eb:	48 8b 85 00 ee ff ff 	mov    -0x1200(%rbp),%rax
    b1f2:	48 8b 00             	mov    (%rax),%rax
    b1f5:	48 8d 15 fc 12 01 00 	lea    0x112fc(%rip),%rdx        # 1c4f8 <g_427>
    b1fc:	48 39 d0             	cmp    %rdx,%rax
    b1ff:	0f 95 c0             	setne  %al
    b202:	0f b6 c0             	movzbl %al,%eax
    b205:	89 c7                	mov    %eax,%edi
    b207:	e8 b3 9f ff ff       	callq  51bf <safe_unary_minus_func_int8_t_s>
    b20c:	0f be c0             	movsbl %al,%eax
    b20f:	89 c7                	mov    %eax,%edi
    b211:	e8 80 a3 ff ff       	callq  5596 <safe_unary_minus_func_int32_t_s>
    b216:	89 c2                	mov    %eax,%edx
    b218:	48 8b 85 d0 ee ff ff 	mov    -0x1130(%rbp),%rax
    b21f:	48 89 85 f8 ee ff ff 	mov    %rax,-0x1108(%rbp)
    b226:	48 83 bd f8 ee ff ff 	cmpq   $0x0,-0x1108(%rbp)
    b22d:	00 
    b22e:	0f 95 c0             	setne  %al
    b231:	0f b6 c0             	movzbl %al,%eax
    b234:	09 d0                	or     %edx,%eax
    b236:	0f b7 c0             	movzwl %ax,%eax
    b239:	44 89 e6             	mov    %r12d,%esi
    b23c:	89 c7                	mov    %eax,%edi
    b23e:	e8 fa aa ff ff       	callq  5d3d <safe_mul_func_uint16_t_u_u>
    b243:	0f be c0             	movsbl %al,%eax
    b246:	89 de                	mov    %ebx,%esi
    b248:	89 c7                	mov    %eax,%edi
    b24a:	e8 85 9f ff ff       	callq  51d4 <safe_add_func_int8_t_s_s>
    b24f:	0f be d0             	movsbl %al,%edx
    b252:	0f b6 85 84 ec ff ff 	movzbl -0x137c(%rbp),%eax
    b259:	0f b6 c0             	movzbl %al,%eax
    b25c:	39 c2                	cmp    %eax,%edx
    b25e:	7f 16                	jg     b276 <func_30+0x203d>
    b260:	8b 85 68 ed ff ff    	mov    -0x1298(%rbp),%eax
    b266:	85 c0                	test   %eax,%eax
    b268:	74 0c                	je     b276 <func_30+0x203d>
    b26a:	c6 85 a1 ec ff ff 01 	movb   $0x1,-0x135f(%rbp)
    b271:	e9 7d 07 00 00       	jmpq   b9f3 <func_30+0x27ba>
    b276:	48 8d 85 b8 ec ff ff 	lea    -0x1348(%rbp),%rax
    b27d:	48 89 85 10 f8 ff ff 	mov    %rax,-0x7f0(%rbp)
    b284:	48 8d 85 c0 ec ff ff 	lea    -0x1340(%rbp),%rax
    b28b:	48 89 85 18 f8 ff ff 	mov    %rax,-0x7e8(%rbp)
    b292:	48 8d 85 b8 ec ff ff 	lea    -0x1348(%rbp),%rax
    b299:	48 89 85 20 f8 ff ff 	mov    %rax,-0x7e0(%rbp)
    b2a0:	48 8d 05 95 0d 01 00 	lea    0x10d95(%rip),%rax        # 1c03c <g_58>
    b2a7:	48 89 85 28 f8 ff ff 	mov    %rax,-0x7d8(%rbp)
    b2ae:	48 c7 85 30 f8 ff ff 	movq   $0x0,-0x7d0(%rbp)
    b2b5:	00 00 00 00 
    b2b9:	48 c7 85 38 f8 ff ff 	movq   $0x0,-0x7c8(%rbp)
    b2c0:	00 00 00 00 
    b2c4:	48 8d 85 68 ed ff ff 	lea    -0x1298(%rbp),%rax
    b2cb:	48 89 85 40 f8 ff ff 	mov    %rax,-0x7c0(%rbp)
    b2d2:	48 8d 85 b8 ec ff ff 	lea    -0x1348(%rbp),%rax
    b2d9:	48 89 85 48 f8 ff ff 	mov    %rax,-0x7b8(%rbp)
    b2e0:	48 8d 85 b8 ec ff ff 	lea    -0x1348(%rbp),%rax
    b2e7:	48 89 85 50 f8 ff ff 	mov    %rax,-0x7b0(%rbp)
    b2ee:	48 c7 85 58 f8 ff ff 	movq   $0x0,-0x7a8(%rbp)
    b2f5:	00 00 00 00 
    b2f9:	48 8d 05 3c 0d 01 00 	lea    0x10d3c(%rip),%rax        # 1c03c <g_58>
    b300:	48 89 85 60 f8 ff ff 	mov    %rax,-0x7a0(%rbp)
    b307:	48 8d 05 2e 0d 01 00 	lea    0x10d2e(%rip),%rax        # 1c03c <g_58>
    b30e:	48 89 85 68 f8 ff ff 	mov    %rax,-0x798(%rbp)
    b315:	48 c7 85 70 f8 ff ff 	movq   $0x0,-0x790(%rbp)
    b31c:	00 00 00 00 
    b320:	48 8d 85 c0 ec ff ff 	lea    -0x1340(%rbp),%rax
    b327:	48 89 85 78 f8 ff ff 	mov    %rax,-0x788(%rbp)
    b32e:	48 c7 85 80 f8 ff ff 	movq   $0x0,-0x780(%rbp)
    b335:	00 00 00 00 
    b339:	48 8d 85 b0 ec ff ff 	lea    -0x1350(%rbp),%rax
    b340:	48 89 85 88 f8 ff ff 	mov    %rax,-0x778(%rbp)
    b347:	48 8d 85 b0 ec ff ff 	lea    -0x1350(%rbp),%rax
    b34e:	48 89 85 90 f8 ff ff 	mov    %rax,-0x770(%rbp)
    b355:	48 8d 05 e0 0c 01 00 	lea    0x10ce0(%rip),%rax        # 1c03c <g_58>
    b35c:	48 89 85 98 f8 ff ff 	mov    %rax,-0x768(%rbp)
    b363:	48 8d 85 c0 ec ff ff 	lea    -0x1340(%rbp),%rax
    b36a:	48 89 85 a0 f8 ff ff 	mov    %rax,-0x760(%rbp)
    b371:	48 c7 85 a8 f8 ff ff 	movq   $0x0,-0x758(%rbp)
    b378:	00 00 00 00 
    b37c:	48 8d 05 b9 0c 01 00 	lea    0x10cb9(%rip),%rax        # 1c03c <g_58>
    b383:	48 89 85 b0 f8 ff ff 	mov    %rax,-0x750(%rbp)
    b38a:	48 8d 85 b0 ec ff ff 	lea    -0x1350(%rbp),%rax
    b391:	48 89 85 b8 f8 ff ff 	mov    %rax,-0x748(%rbp)
    b398:	48 8d 85 b0 ec ff ff 	lea    -0x1350(%rbp),%rax
    b39f:	48 89 85 c0 f8 ff ff 	mov    %rax,-0x740(%rbp)
    b3a6:	48 8d 05 8f 0c 01 00 	lea    0x10c8f(%rip),%rax        # 1c03c <g_58>
    b3ad:	48 89 85 c8 f8 ff ff 	mov    %rax,-0x738(%rbp)
    b3b4:	48 8d 05 81 0c 01 00 	lea    0x10c81(%rip),%rax        # 1c03c <g_58>
    b3bb:	48 89 85 d0 f8 ff ff 	mov    %rax,-0x730(%rbp)
    b3c2:	48 8d 85 b8 ec ff ff 	lea    -0x1348(%rbp),%rax
    b3c9:	48 89 85 d8 f8 ff ff 	mov    %rax,-0x728(%rbp)
    b3d0:	48 8d 85 b0 ec ff ff 	lea    -0x1350(%rbp),%rax
    b3d7:	48 89 85 e0 f8 ff ff 	mov    %rax,-0x720(%rbp)
    b3de:	48 8d 85 c4 ec ff ff 	lea    -0x133c(%rbp),%rax
    b3e5:	48 89 85 e8 f8 ff ff 	mov    %rax,-0x718(%rbp)
    b3ec:	48 8d 05 49 0c 01 00 	lea    0x10c49(%rip),%rax        # 1c03c <g_58>
    b3f3:	48 89 85 f0 f8 ff ff 	mov    %rax,-0x710(%rbp)
    b3fa:	48 8d 85 c0 ec ff ff 	lea    -0x1340(%rbp),%rax
    b401:	48 89 85 f8 f8 ff ff 	mov    %rax,-0x708(%rbp)
    b408:	48 8d 85 c0 ec ff ff 	lea    -0x1340(%rbp),%rax
    b40f:	48 89 85 00 f9 ff ff 	mov    %rax,-0x700(%rbp)
    b416:	48 8d 05 1f 0c 01 00 	lea    0x10c1f(%rip),%rax        # 1c03c <g_58>
    b41d:	48 89 85 08 f9 ff ff 	mov    %rax,-0x6f8(%rbp)
    b424:	48 8d 85 b0 ec ff ff 	lea    -0x1350(%rbp),%rax
    b42b:	48 89 85 10 f9 ff ff 	mov    %rax,-0x6f0(%rbp)
    b432:	48 8d 05 03 0c 01 00 	lea    0x10c03(%rip),%rax        # 1c03c <g_58>
    b439:	48 89 85 18 f9 ff ff 	mov    %rax,-0x6e8(%rbp)
    b440:	48 c7 85 20 f9 ff ff 	movq   $0x0,-0x6e0(%rbp)
    b447:	00 00 00 00 
    b44b:	48 8d 05 ea 0b 01 00 	lea    0x10bea(%rip),%rax        # 1c03c <g_58>
    b452:	48 89 85 28 f9 ff ff 	mov    %rax,-0x6d8(%rbp)
    b459:	48 c7 85 30 f9 ff ff 	movq   $0x0,-0x6d0(%rbp)
    b460:	00 00 00 00 
    b464:	48 8d 05 d1 0b 01 00 	lea    0x10bd1(%rip),%rax        # 1c03c <g_58>
    b46b:	48 89 85 38 f9 ff ff 	mov    %rax,-0x6c8(%rbp)
    b472:	48 8d 05 c3 0b 01 00 	lea    0x10bc3(%rip),%rax        # 1c03c <g_58>
    b479:	48 89 85 40 f9 ff ff 	mov    %rax,-0x6c0(%rbp)
    b480:	48 8d 85 b8 ec ff ff 	lea    -0x1348(%rbp),%rax
    b487:	48 89 85 48 f9 ff ff 	mov    %rax,-0x6b8(%rbp)
    b48e:	48 8d 85 b8 ec ff ff 	lea    -0x1348(%rbp),%rax
    b495:	48 89 85 50 f9 ff ff 	mov    %rax,-0x6b0(%rbp)
    b49c:	48 8d 85 bc ec ff ff 	lea    -0x1344(%rbp),%rax
    b4a3:	48 89 85 58 f9 ff ff 	mov    %rax,-0x6a8(%rbp)
    b4aa:	48 8d 85 68 ed ff ff 	lea    -0x1298(%rbp),%rax
    b4b1:	48 89 85 60 f9 ff ff 	mov    %rax,-0x6a0(%rbp)
    b4b8:	48 8d 85 b8 ec ff ff 	lea    -0x1348(%rbp),%rax
    b4bf:	48 89 85 68 f9 ff ff 	mov    %rax,-0x698(%rbp)
    b4c6:	48 c7 85 70 f9 ff ff 	movq   $0x0,-0x690(%rbp)
    b4cd:	00 00 00 00 
    b4d1:	48 8d 05 64 0b 01 00 	lea    0x10b64(%rip),%rax        # 1c03c <g_58>
    b4d8:	48 89 85 78 f9 ff ff 	mov    %rax,-0x688(%rbp)
    b4df:	48 8d 85 b8 ec ff ff 	lea    -0x1348(%rbp),%rax
    b4e6:	48 89 85 80 f9 ff ff 	mov    %rax,-0x680(%rbp)
    b4ed:	48 8d 05 48 0b 01 00 	lea    0x10b48(%rip),%rax        # 1c03c <g_58>
    b4f4:	48 89 85 88 f9 ff ff 	mov    %rax,-0x678(%rbp)
    b4fb:	48 8d 85 b8 ec ff ff 	lea    -0x1348(%rbp),%rax
    b502:	48 89 85 90 f9 ff ff 	mov    %rax,-0x670(%rbp)
    b509:	48 8d 05 2c 0b 01 00 	lea    0x10b2c(%rip),%rax        # 1c03c <g_58>
    b510:	48 89 85 98 f9 ff ff 	mov    %rax,-0x668(%rbp)
    b517:	48 8d 85 c0 ec ff ff 	lea    -0x1340(%rbp),%rax
    b51e:	48 89 85 a0 f9 ff ff 	mov    %rax,-0x660(%rbp)
    b525:	48 8d 05 10 0b 01 00 	lea    0x10b10(%rip),%rax        # 1c03c <g_58>
    b52c:	48 89 85 a8 f9 ff ff 	mov    %rax,-0x658(%rbp)
    b533:	48 8d 05 02 0b 01 00 	lea    0x10b02(%rip),%rax        # 1c03c <g_58>
    b53a:	48 89 85 b0 f9 ff ff 	mov    %rax,-0x650(%rbp)
    b541:	48 8d 85 c0 ec ff ff 	lea    -0x1340(%rbp),%rax
    b548:	48 89 85 b8 f9 ff ff 	mov    %rax,-0x648(%rbp)
    b54f:	48 c7 85 c0 f9 ff ff 	movq   $0x0,-0x640(%rbp)
    b556:	00 00 00 00 
    b55a:	48 8d 85 c4 ec ff ff 	lea    -0x133c(%rbp),%rax
    b561:	48 89 85 c8 f9 ff ff 	mov    %rax,-0x638(%rbp)
    b568:	48 c7 85 00 ef ff ff 	movq   $0x0,-0x1100(%rbp)
    b56f:	00 00 00 00 
    b573:	66 c7 85 ae ec ff ff 	movw   $0xffff,-0x1352(%rbp)
    b57a:	ff ff 
    b57c:	c6 05 67 0e 01 00 00 	movb   $0x0,0x10e67(%rip)        # 1c3ea <g_330>
    b583:	e9 6a 03 00 00       	jmpq   b8f2 <func_30+0x26b9>
    b588:	c7 85 f8 ec ff ff f7 	movl   $0xfffffff7,-0x1308(%rbp)
    b58f:	ff ff ff 
    b592:	c7 85 fc ec ff ff 7b 	movl   $0x95d2fe7b,-0x1304(%rbp)
    b599:	fe d2 95 
    b59c:	0f b6 85 84 ec ff ff 	movzbl -0x137c(%rbp),%eax
    b5a3:	0f b6 d8             	movzbl %al,%ebx
    b5a6:	8b 85 b0 ec ff ff    	mov    -0x1350(%rbp),%eax
    b5ac:	83 c0 03             	add    $0x3,%eax
    b5af:	48 63 d0             	movslq %eax,%rdx
    b5b2:	48 89 d0             	mov    %rdx,%rax
    b5b5:	48 01 c0             	add    %rax,%rax
    b5b8:	48 01 d0             	add    %rdx,%rax
    b5bb:	48 01 c0             	add    %rax,%rax
    b5be:	be ff ff ff ff       	mov    $0xffffffff,%esi
    b5c3:	bf cc ff ff ff       	mov    $0xffffffcc,%edi
    b5c8:	e8 45 9c ff ff       	callq  5212 <safe_mul_func_int8_t_s_s>
    b5cd:	48 0f be d0          	movsbq %al,%rdx
    b5d1:	48 8b 85 88 ec ff ff 	mov    -0x1378(%rbp),%rax
    b5d8:	48 8b 08             	mov    (%rax),%rcx
    b5db:	48 8b 85 c8 ee ff ff 	mov    -0x1138(%rbp),%rax
    b5e2:	48 89 08             	mov    %rcx,(%rax)
    b5e5:	48 8b 85 c8 ee ff ff 	mov    -0x1138(%rbp),%rax
    b5ec:	48 8b 00             	mov    (%rax),%rax
    b5ef:	48 89 d6             	mov    %rdx,%rsi
    b5f2:	48 89 c7             	mov    %rax,%rdi
    b5f5:	e8 34 aa ff ff       	callq  602e <safe_add_func_uint64_t_u_u>
    b5fa:	48 8b 85 90 ee ff ff 	mov    -0x1170(%rbp),%rax
    b601:	8b 00                	mov    (%rax),%eax
    b603:	0f b7 c0             	movzwl %ax,%eax
    b606:	be 00 00 00 00       	mov    $0x0,%esi
    b60b:	89 c7                	mov    %eax,%edi
    b60d:	e8 0d a7 ff ff       	callq  5d1f <safe_sub_func_uint16_t_u_u>
    b612:	89 c1                	mov    %eax,%ecx
    b614:	0f b6 45 c5          	movzbl -0x3b(%rbp),%eax
    b618:	66 0f be d0          	movsbw %al,%dx
    b61c:	48 8b 05 ad 3f 01 00 	mov    0x13fad(%rip),%rax        # 1f5d0 <g_637>
    b623:	83 e2 25             	and    $0x25,%edx
    b626:	66 89 10             	mov    %dx,(%rax)
    b629:	0f b7 00             	movzwl (%rax),%eax
    b62c:	31 c8                	xor    %ecx,%eax
    b62e:	89 c2                	mov    %eax,%edx
    b630:	48 8b 85 b8 ed ff ff 	mov    -0x1248(%rbp),%rax
    b637:	8b 00                	mov    (%rax),%eax
    b639:	21 d0                	and    %edx,%eax
    b63b:	0f be c0             	movsbl %al,%eax
    b63e:	be 71 00 00 00       	mov    $0x71,%esi
    b643:	89 c7                	mov    %eax,%edi
    b645:	e8 e7 9b ff ff       	callq  5231 <safe_mod_func_int8_t_s_s>
    b64a:	0f b6 85 84 ec ff ff 	movzbl -0x137c(%rbp),%eax
    b651:	0f b6 c0             	movzbl %al,%eax
    b654:	be 00 00 00 00       	mov    $0x0,%esi
    b659:	89 c7                	mov    %eax,%edi
    b65b:	e8 73 9d ff ff       	callq  53d3 <safe_sub_func_int16_t_s_s>
    b660:	0f b6 05 83 0d 01 00 	movzbl 0x10d83(%rip),%eax        # 1c3ea <g_330>
    b667:	0f b6 d0             	movzbl %al,%edx
    b66a:	0f b6 05 79 0d 01 00 	movzbl 0x10d79(%rip),%eax        # 1c3ea <g_330>
    b671:	0f b6 c0             	movzbl %al,%eax
    b674:	83 c0 02             	add    $0x2,%eax
    b677:	48 98                	cltq   
    b679:	48 63 d2             	movslq %edx,%rdx
    b67c:	48 c1 e2 02          	shl    $0x2,%rdx
    b680:	48 01 d0             	add    %rdx,%rax
    b683:	48 8d 14 85 00 00 00 	lea    0x0(,%rax,4),%rdx
    b68a:	00 
    b68b:	48 8d 05 ee 4a 01 00 	lea    0x14aee(%rip),%rax        # 20180 <g_44>
    b692:	8b 04 02             	mov    (%rdx,%rax,1),%eax
    b695:	0f b7 c0             	movzwl %ax,%eax
    b698:	be 8e ed 00 00       	mov    $0xed8e,%esi
    b69d:	89 c7                	mov    %eax,%edi
    b69f:	e8 99 a6 ff ff       	callq  5d3d <safe_mul_func_uint16_t_u_u>
    b6a4:	0f b7 c0             	movzwl %ax,%eax
    b6a7:	be ff ff 00 00       	mov    $0xffff,%esi
    b6ac:	89 c7                	mov    %eax,%edi
    b6ae:	e8 6c a6 ff ff       	callq  5d1f <safe_sub_func_uint16_t_u_u>
    b6b3:	88 05 87 09 01 00    	mov    %al,0x10987(%rip)        # 1c040 <g_69>
    b6b9:	0f b6 05 80 09 01 00 	movzbl 0x10980(%rip),%eax        # 1c040 <g_69>
    b6c0:	88 05 62 19 01 00    	mov    %al,0x11962(%rip)        # 1d028 <g_1301>
    b6c6:	0f b6 05 5b 19 01 00 	movzbl 0x1195b(%rip),%eax        # 1d028 <g_1301>
    b6cd:	84 c0                	test   %al,%al
    b6cf:	75 0d                	jne    b6de <func_30+0x24a5>
    b6d1:	48 8b 85 90 ee ff ff 	mov    -0x1170(%rbp),%rax
    b6d8:	8b 00                	mov    (%rax),%eax
    b6da:	85 c0                	test   %eax,%eax
    b6dc:	74 07                	je     b6e5 <func_30+0x24ac>
    b6de:	b8 01 00 00 00       	mov    $0x1,%eax
    b6e3:	eb 05                	jmp    b6ea <func_30+0x24b1>
    b6e5:	b8 00 00 00 00       	mov    $0x0,%eax
    b6ea:	48 98                	cltq   
    b6ec:	48 ba f7 5d 9b 42 64 	movabs $0xc2dbe264429b5df7,%rdx
    b6f3:	e2 db c2 
    b6f6:	48 21 d0             	and    %rdx,%rax
    b6f9:	89 c2                	mov    %eax,%edx
    b6fb:	8b 85 68 ed ff ff    	mov    -0x1298(%rbp),%eax
    b701:	21 d0                	and    %edx,%eax
    b703:	89 85 68 ed ff ff    	mov    %eax,-0x1298(%rbp)
    b709:	8b 95 68 ed ff ff    	mov    -0x1298(%rbp),%edx
    b70f:	48 8b 05 7a 3f 01 00 	mov    0x13f7a(%rip),%rax        # 1f690 <g_882>
    b716:	48 8b 00             	mov    (%rax),%rax
    b719:	48 8b 00             	mov    (%rax),%rax
    b71c:	89 10                	mov    %edx,(%rax)
    b71e:	8b 10                	mov    (%rax),%edx
    b720:	0f b6 85 84 ec ff ff 	movzbl -0x137c(%rbp),%eax
    b727:	0f b6 c0             	movzbl %al,%eax
    b72a:	39 c2                	cmp    %eax,%edx
    b72c:	0f 97 c0             	seta   %al
    b72f:	0f b6 d0             	movzbl %al,%edx
    b732:	48 8b 85 90 ee ff ff 	mov    -0x1170(%rbp),%rax
    b739:	89 10                	mov    %edx,(%rax)
    b73b:	48 8b 85 90 ee ff ff 	mov    -0x1170(%rbp),%rax
    b742:	8b 00                	mov    (%rax),%eax
    b744:	89 c2                	mov    %eax,%edx
    b746:	0f b6 85 84 ec ff ff 	movzbl -0x137c(%rbp),%eax
    b74d:	0f b6 c0             	movzbl %al,%eax
    b750:	31 d0                	xor    %edx,%eax
    b752:	0f b7 c0             	movzwl %ax,%eax
    b755:	89 de                	mov    %ebx,%esi
    b757:	89 c7                	mov    %eax,%edi
    b759:	e8 fe a5 ff ff       	callq  5d5c <safe_mod_func_uint16_t_u_u>
    b75e:	48 8b 85 48 ed ff ff 	mov    -0x12b8(%rbp),%rax
    b765:	48 8b 00             	mov    (%rax),%rax
    b768:	48 8b 95 18 f8 ff ff 	mov    -0x7e8(%rbp),%rdx
    b76f:	48 89 10             	mov    %rdx,(%rax)
    b772:	48 8b 05 57 3e 01 00 	mov    0x13e57(%rip),%rax        # 1f5d0 <g_637>
    b779:	0f b7 00             	movzwl (%rax),%eax
    b77c:	0f b7 d0             	movzwl %ax,%edx
    b77f:	0f b6 85 84 ec ff ff 	movzbl -0x137c(%rbp),%eax
    b786:	0f b6 c0             	movzbl %al,%eax
    b789:	89 d6                	mov    %edx,%esi
    b78b:	89 c7                	mov    %eax,%edi
    b78d:	e8 fc a5 ff ff       	callq  5d8e <safe_div_func_uint16_t_u_u>
    b792:	66 85 c0             	test   %ax,%ax
    b795:	0f 84 30 01 00 00    	je     b8cb <func_30+0x2692>
    b79b:	0f b6 85 84 ec ff ff 	movzbl -0x137c(%rbp),%eax
    b7a2:	44 0f be e8          	movsbl %al,%r13d
    b7a6:	8b 85 b4 ec ff ff    	mov    -0x134c(%rbp),%eax
    b7ac:	85 c0                	test   %eax,%eax
    b7ae:	0f 84 e1 00 00 00    	je     b895 <func_30+0x265c>
    b7b4:	48 83 bd 98 ee ff ff 	cmpq   $0x0,-0x1168(%rbp)
    b7bb:	00 
    b7bc:	0f 95 c0             	setne  %al
    b7bf:	89 c3                	mov    %eax,%ebx
    b7c1:	48 8b 85 88 ec ff ff 	mov    -0x1378(%rbp),%rax
    b7c8:	48 8b 10             	mov    (%rax),%rdx
    b7cb:	48 8b 05 f6 31 01 00 	mov    0x131f6(%rip),%rax        # 1e9c8 <g_217>
    b7d2:	48 8b 00             	mov    (%rax),%rax
    b7d5:	48 85 c0             	test   %rax,%rax
    b7d8:	74 16                	je     b7f0 <func_30+0x25b7>
    b7da:	48 8b 85 88 ec ff ff 	mov    -0x1378(%rbp),%rax
    b7e1:	48 8b 00             	mov    (%rax),%rax
    b7e4:	48 85 c0             	test   %rax,%rax
    b7e7:	74 07                	je     b7f0 <func_30+0x25b7>
    b7e9:	b8 01 00 00 00       	mov    $0x1,%eax
    b7ee:	eb 05                	jmp    b7f5 <func_30+0x25bc>
    b7f0:	b8 00 00 00 00       	mov    $0x0,%eax
    b7f5:	48 98                	cltq   
    b7f7:	48 89 d6             	mov    %rdx,%rsi
    b7fa:	48 89 c7             	mov    %rax,%rdi
    b7fd:	e8 49 a8 ff ff       	callq  604b <safe_sub_func_uint64_t_u_u>
    b802:	be 05 00 00 00       	mov    $0x5,%esi
    b807:	bf 01 00 00 00       	mov    $0x1,%edi
    b80c:	e8 90 9a ff ff       	callq  52a1 <safe_lshift_func_int8_t_s_s>
    b811:	21 d8                	and    %ebx,%eax
    b813:	0f be c0             	movsbl %al,%eax
    b816:	0f b6 15 cd 0b 01 00 	movzbl 0x10bcd(%rip),%edx        # 1c3ea <g_330>
    b81d:	0f b6 d2             	movzbl %dl,%edx
    b820:	44 8d 62 03          	lea    0x3(%rdx),%r12d
    b824:	0f b6 15 bf 0b 01 00 	movzbl 0x10bbf(%rip),%edx        # 1c3ea <g_330>
    b82b:	0f b6 da             	movzbl %dl,%ebx
    b82e:	be 01 00 00 00       	mov    $0x1,%esi
    b833:	89 c7                	mov    %eax,%edi
    b835:	e8 fb 9a ff ff       	callq  5335 <safe_rshift_func_int8_t_s_s>
    b83a:	89 c1                	mov    %eax,%ecx
    b83c:	48 63 f3             	movslq %ebx,%rsi
    b83f:	49 63 d4             	movslq %r12d,%rdx
    b842:	48 89 d0             	mov    %rdx,%rax
    b845:	48 01 c0             	add    %rax,%rax
    b848:	48 01 d0             	add    %rdx,%rax
    b84b:	48 01 c0             	add    %rax,%rax
    b84e:	48 8d 7d d0          	lea    -0x30(%rbp),%rdi
    b852:	48 01 f8             	add    %rdi,%rax
    b855:	48 01 f0             	add    %rsi,%rax
    b858:	48 2d 80 0f 00 00    	sub    $0xf80,%rax
    b85e:	88 08                	mov    %cl,(%rax)
    b860:	48 63 cb             	movslq %ebx,%rcx
    b863:	49 63 d4             	movslq %r12d,%rdx
    b866:	48 89 d0             	mov    %rdx,%rax
    b869:	48 01 c0             	add    %rax,%rax
    b86c:	48 01 d0             	add    %rdx,%rax
    b86f:	48 01 c0             	add    %rax,%rax
    b872:	48 8d 5d d0          	lea    -0x30(%rbp),%rbx
    b876:	48 01 d8             	add    %rbx,%rax
    b879:	48 01 c8             	add    %rcx,%rax
    b87c:	48 2d 80 0f 00 00    	sub    $0xf80,%rax
    b882:	0f b6 00             	movzbl (%rax),%eax
    b885:	0f be c0             	movsbl %al,%eax
    b888:	89 85 f8 ec ff ff    	mov    %eax,-0x1308(%rbp)
    b88e:	83 bd f8 ec ff ff 00 	cmpl   $0x0,-0x1308(%rbp)
    b895:	48 8b 05 34 31 01 00 	mov    0x13134(%rip),%rax        # 1e9d0 <g_274>
    b89c:	48 8b 00             	mov    (%rax),%rax
    b89f:	34 a1                	xor    $0xa1,%al
    b8a1:	48 be 75 bb 70 e3 cd 	movabs $0xc5ee3cde370bb75,%rsi
    b8a8:	e3 5e 0c 
    b8ab:	48 89 c7             	mov    %rax,%rdi
    b8ae:	e8 44 a1 ff ff       	callq  59f7 <safe_div_func_int64_t_s_s>
    b8b3:	0f be c0             	movsbl %al,%eax
    b8b6:	44 89 ee             	mov    %r13d,%esi
    b8b9:	89 c7                	mov    %eax,%edi
    b8bb:	e8 52 99 ff ff       	callq  5212 <safe_mul_func_int8_t_s_s>
    b8c0:	84 c0                	test   %al,%al
    b8c2:	74 07                	je     b8cb <func_30+0x2692>
    b8c4:	b8 01 00 00 00       	mov    $0x1,%eax
    b8c9:	eb 05                	jmp    b8d0 <func_30+0x2697>
    b8cb:	b8 00 00 00 00       	mov    $0x0,%eax
    b8d0:	21 85 fc ec ff ff    	and    %eax,-0x1304(%rbp)
    b8d6:	8b 85 fc ec ff ff    	mov    -0x1304(%rbp),%eax
    b8dc:	09 85 d4 ec ff ff    	or     %eax,-0x132c(%rbp)
    b8e2:	0f b6 05 01 0b 01 00 	movzbl 0x10b01(%rip),%eax        # 1c3ea <g_330>
    b8e9:	83 c0 01             	add    $0x1,%eax
    b8ec:	88 05 f8 0a 01 00    	mov    %al,0x10af8(%rip)        # 1c3ea <g_330>
    b8f2:	0f b6 05 f1 0a 01 00 	movzbl 0x10af1(%rip),%eax        # 1c3ea <g_330>
    b8f9:	3c 01                	cmp    $0x1,%al
    b8fb:	0f 86 87 fc ff ff    	jbe    b588 <func_30+0x234f>
    b901:	48 83 bd d8 ee ff ff 	cmpq   $0x0,-0x1128(%rbp)
    b908:	00 
    b909:	0f 95 c0             	setne  %al
    b90c:	0f b6 d0             	movzbl %al,%edx
    b90f:	48 8b 85 b8 ed ff ff 	mov    -0x1248(%rbp),%rax
    b916:	89 10                	mov    %edx,(%rax)
    b918:	c7 85 b8 ec ff ff ee 	movl   $0xffffffee,-0x1348(%rbp)
    b91f:	ff ff ff 
    b922:	eb 4e                	jmp    b972 <func_30+0x2739>
    b924:	48 8b 85 40 ed ff ff 	mov    -0x12c0(%rbp),%rax
    b92b:	48 8b 95 00 ef ff ff 	mov    -0x1100(%rbp),%rdx
    b932:	48 89 10             	mov    %rdx,(%rax)
    b935:	48 8b 85 48 ed ff ff 	mov    -0x12b8(%rbp),%rax
    b93c:	48 8b 00             	mov    (%rax),%rax
    b93f:	48 c7 00 00 00 00 00 	movq   $0x0,(%rax)
    b946:	48 8d 85 b8 ec ff ff 	lea    -0x1348(%rbp),%rax
    b94d:	48 89 85 90 ed ff ff 	mov    %rax,-0x1270(%rbp)
    b954:	8b 85 b8 ec ff ff    	mov    -0x1348(%rbp),%eax
    b95a:	0f b7 c0             	movzwl %ax,%eax
    b95d:	be 01 00 00 00       	mov    $0x1,%esi
    b962:	89 c7                	mov    %eax,%edi
    b964:	e8 96 a3 ff ff       	callq  5cff <safe_add_func_uint16_t_u_u>
    b969:	0f b7 c0             	movzwl %ax,%eax
    b96c:	89 85 b8 ec ff ff    	mov    %eax,-0x1348(%rbp)
    b972:	8b 85 b8 ec ff ff    	mov    -0x1348(%rbp),%eax
    b978:	83 f8 15             	cmp    $0x15,%eax
    b97b:	7e a7                	jle    b924 <func_30+0x26eb>
    b97d:	48 8b 05 6c 30 01 00 	mov    0x1306c(%rip),%rax        # 1e9f0 <g_457>
    b984:	0f b7 85 ae ec ff ff 	movzwl -0x1352(%rbp),%eax
    b98b:	83 c8 01             	or     $0x1,%eax
    b98e:	0f bf d8             	movswl %ax,%ebx
    b991:	48 8b 85 90 ee ff ff 	mov    -0x1170(%rbp),%rax
    b998:	8b 00                	mov    (%rax),%eax
    b99a:	85 c0                	test   %eax,%eax
    b99c:	74 2a                	je     b9c8 <func_30+0x278f>
    b99e:	48 8b 85 90 ed ff ff 	mov    -0x1270(%rbp),%rax
    b9a5:	8b 00                	mov    (%rax),%eax
    b9a7:	0f be c0             	movsbl %al,%eax
    b9aa:	89 c6                	mov    %eax,%esi
    b9ac:	bf ec ff ff ff       	mov    $0xffffffec,%edi
    b9b1:	e8 7b 98 ff ff       	callq  5231 <safe_mod_func_int8_t_s_s>
    b9b6:	0f b6 85 84 ec ff ff 	movzbl -0x137c(%rbp),%eax
    b9bd:	84 c0                	test   %al,%al
    b9bf:	74 07                	je     b9c8 <func_30+0x278f>
    b9c1:	b8 01 00 00 00       	mov    $0x1,%eax
    b9c6:	eb 05                	jmp    b9cd <func_30+0x2794>
    b9c8:	b8 00 00 00 00       	mov    $0x0,%eax
    b9cd:	39 d8                	cmp    %ebx,%eax
    b9cf:	48 8b 85 88 ed ff ff 	mov    -0x1278(%rbp),%rax
    b9d6:	48 8b 00             	mov    (%rax),%rax
    b9d9:	48 8d 15 20 0c 01 00 	lea    0x10c20(%rip),%rdx        # 1c600 <g_1009+0xc0>
    b9e0:	48 39 d0             	cmp    %rdx,%rax
    b9e3:	48 8b 95 70 ed ff ff 	mov    -0x1290(%rbp),%rdx
    b9ea:	48 8b 05 ff 2f 01 00 	mov    0x12fff(%rip),%rax        # 1e9f0 <g_457>
    b9f1:	89 10                	mov    %edx,(%rax)
    b9f3:	48 8b 85 d8 ed ff ff 	mov    -0x1228(%rbp),%rax
    b9fa:	48 8b 00             	mov    (%rax),%rax
    b9fd:	48 8d 95 b8 ec ff ff 	lea    -0x1348(%rbp),%rdx
    ba04:	48 89 10             	mov    %rdx,(%rax)
    ba07:	48 8b 85 10 ee ff ff 	mov    -0x11f0(%rbp),%rax
    ba0e:	48 8b 00             	mov    (%rax),%rax
    ba11:	48 85 c0             	test   %rax,%rax
    ba14:	0f 95 c0             	setne  %al
    ba17:	0f b6 d0             	movzbl %al,%edx
    ba1a:	48 8b 05 87 2f 01 00 	mov    0x12f87(%rip),%rax        # 1e9a8 <g_76>
    ba21:	8b 00                	mov    (%rax),%eax
    ba23:	85 c0                	test   %eax,%eax
    ba25:	0f 95 c0             	setne  %al
    ba28:	0f b6 c0             	movzbl %al,%eax
    ba2b:	39 c2                	cmp    %eax,%edx
    ba2d:	0f 9c c0             	setl   %al
    ba30:	0f b6 d0             	movzbl %al,%edx
    ba33:	48 8b 85 90 ee ff ff 	mov    -0x1170(%rbp),%rax
    ba3a:	89 10                	mov    %edx,(%rax)
    ba3c:	0f b6 85 84 ec ff ff 	movzbl -0x137c(%rbp),%eax
    ba43:	0f b6 d8             	movzbl %al,%ebx
    ba46:	48 83 bd e0 ee ff ff 	cmpq   $0x0,-0x1120(%rbp)
    ba4d:	00 
    ba4e:	0f 95 c0             	setne  %al
    ba51:	0f b6 c0             	movzbl %al,%eax
    ba54:	89 c6                	mov    %eax,%esi
    ba56:	bf 00 00 00 00       	mov    $0x0,%edi
    ba5b:	e8 18 a1 ff ff       	callq  5b78 <safe_sub_func_uint8_t_u_u>
    ba60:	84 c0                	test   %al,%al
    ba62:	0f 84 c9 00 00 00    	je     bb31 <func_30+0x28f8>
    ba68:	0f b6 85 84 ec ff ff 	movzbl -0x137c(%rbp),%eax
    ba6f:	84 c0                	test   %al,%al
    ba71:	0f 84 ba 00 00 00    	je     bb31 <func_30+0x28f8>
    ba77:	8b 05 03 06 01 00    	mov    0x10603(%rip),%eax        # 1c080 <g_252>
    ba7d:	44 0f b6 e0          	movzbl %al,%r12d
    ba81:	8b 85 c0 ec ff ff    	mov    -0x1340(%rbp),%eax
    ba87:	44 0f b6 e8          	movzbl %al,%r13d
    ba8b:	44 8b b5 b8 ec ff ff 	mov    -0x1348(%rbp),%r14d
    ba92:	48 83 bd f0 ee ff ff 	cmpq   $0x0,-0x1110(%rbp)
    ba99:	00 
    ba9a:	0f 95 c0             	setne  %al
    ba9d:	0f b6 c0             	movzbl %al,%eax
    baa0:	be 95 ff ff ff       	mov    $0xffffff95,%esi
    baa5:	89 c7                	mov    %eax,%edi
    baa7:	e8 66 97 ff ff       	callq  5212 <safe_mul_func_int8_t_s_s>
    baac:	0f b6 c0             	movzbl %al,%eax
    baaf:	44 89 f6             	mov    %r14d,%esi
    bab2:	89 c7                	mov    %eax,%edi
    bab4:	e8 d4 a1 ff ff       	callq  5c8d <safe_rshift_func_uint8_t_u_s>
    bab9:	0f b6 d0             	movzbl %al,%edx
    babc:	48 8b 85 90 ee ff ff 	mov    -0x1170(%rbp),%rax
    bac3:	8b 00                	mov    (%rax),%eax
    bac5:	39 c2                	cmp    %eax,%edx
    bac7:	0f 9e c0             	setle  %al
    baca:	0f b6 c0             	movzbl %al,%eax
    bacd:	44 89 ee             	mov    %r13d,%esi
    bad0:	89 c7                	mov    %eax,%edi
    bad2:	e8 d7 a0 ff ff       	callq  5bae <safe_mod_func_uint8_t_u_u>
    bad7:	84 c0                	test   %al,%al
    bad9:	75 11                	jne    baec <func_30+0x28b3>
    badb:	48 8b 05 fe 2e 01 00 	mov    0x12efe(%rip),%rax        # 1e9e0 <g_401>
    bae2:	48 8b 00             	mov    (%rax),%rax
    bae5:	0f b6 00             	movzbl (%rax),%eax
    bae8:	84 c0                	test   %al,%al
    baea:	74 07                	je     baf3 <func_30+0x28ba>
    baec:	b8 01 00 00 00       	mov    $0x1,%eax
    baf1:	eb 05                	jmp    baf8 <func_30+0x28bf>
    baf3:	b8 00 00 00 00       	mov    $0x0,%eax
    baf8:	0f b6 c0             	movzbl %al,%eax
    bafb:	44 89 e6             	mov    %r12d,%esi
    bafe:	89 c7                	mov    %eax,%edi
    bb00:	e8 8e a0 ff ff       	callq  5b93 <safe_mul_func_uint8_t_u_u>
    bb05:	3c 02                	cmp    $0x2,%al
    bb07:	0f 96 c0             	setbe  %al
    bb0a:	0f b6 c0             	movzbl %al,%eax
    bb0d:	66 89 05 d4 08 01 00 	mov    %ax,0x108d4(%rip)        # 1c3e8 <g_320>
    bb14:	48 8b 05 85 2e 01 00 	mov    0x12e85(%rip),%rax        # 1e9a0 <g_52>
    bb1b:	8b 00                	mov    (%rax),%eax
    bb1d:	89 c6                	mov    %eax,%esi
    bb1f:	bf bb bc c1 45       	mov    $0x45c1bcbb,%edi
    bb24:	e8 fc a3 ff ff       	callq  5f25 <safe_div_func_uint32_t_u_u>
    bb29:	39 85 d4 ec ff ff    	cmp    %eax,-0x132c(%rbp)
    bb2f:	75 07                	jne    bb38 <func_30+0x28ff>
    bb31:	b8 01 00 00 00       	mov    $0x1,%eax
    bb36:	eb 05                	jmp    bb3d <func_30+0x2904>
    bb38:	b8 00 00 00 00       	mov    $0x0,%eax
    bb3d:	0f b7 c0             	movzwl %ax,%eax
    bb40:	89 de                	mov    %ebx,%esi
    bb42:	89 c7                	mov    %eax,%edi
    bb44:	e8 d6 a1 ff ff       	callq  5d1f <safe_sub_func_uint16_t_u_u>
    bb49:	66 83 f8 01          	cmp    $0x1,%ax
    bb4d:	76 0b                	jbe    bb5a <func_30+0x2921>
    bb4f:	48 8b 85 90 ee ff ff 	mov    -0x1170(%rbp),%rax
    bb56:	8b 00                	mov    (%rax),%eax
    bb58:	85 c0                	test   %eax,%eax
    bb5a:	0f b6 45 c5          	movzbl -0x3b(%rbp),%eax
    bb5e:	0f be d0             	movsbl %al,%edx
    bb61:	8b 85 bc ec ff ff    	mov    -0x1344(%rbp),%eax
    bb67:	09 d0                	or     %edx,%eax
    bb69:	89 85 bc ec ff ff    	mov    %eax,-0x1344(%rbp)
    bb6f:	8b 85 b0 ec ff ff    	mov    -0x1350(%rbp),%eax
    bb75:	83 c0 01             	add    $0x1,%eax
    bb78:	89 85 b0 ec ff ff    	mov    %eax,-0x1350(%rbp)
    bb7e:	eb 06                	jmp    bb86 <func_30+0x294d>
    bb80:	90                   	nop
    bb81:	e9 a2 db ff ff       	jmpq   9728 <func_30+0x4ef>
    bb86:	8b 85 b0 ec ff ff    	mov    -0x1350(%rbp),%eax
    bb8c:	83 f8 05             	cmp    $0x5,%eax
    bb8f:	0f 8e f7 ef ff ff    	jle    ab8c <func_30+0x1953>
    bb95:	8b 05 dd 04 01 00    	mov    0x104dd(%rip),%eax        # 1c078 <g_244>
    bb9b:	0f be d8             	movsbl %al,%ebx
    bb9e:	0f b6 85 84 ec ff ff 	movzbl -0x137c(%rbp),%eax
    bba5:	0f be d0             	movsbl %al,%edx
    bba8:	0f b6 85 84 ec ff ff 	movzbl -0x137c(%rbp),%eax
    bbaf:	0f be c0             	movsbl %al,%eax
    bbb2:	89 d6                	mov    %edx,%esi
    bbb4:	89 c7                	mov    %eax,%edi
    bbb6:	e8 37 96 ff ff       	callq  51f2 <safe_sub_func_int8_t_s_s>
    bbbb:	66 98                	cbtw   
    bbbd:	0f b7 c0             	movzwl %ax,%eax
    bbc0:	be 0e 00 00 00       	mov    $0xe,%esi
    bbc5:	89 c7                	mov    %eax,%edi
    bbc7:	e8 f2 a1 ff ff       	callq  5dbe <safe_lshift_func_uint16_t_u_s>
    bbcc:	66 85 c0             	test   %ax,%ax
    bbcf:	0f 95 c0             	setne  %al
    bbd2:	0f b6 d0             	movzbl %al,%edx
    bbd5:	8b 85 bc ec ff ff    	mov    -0x1344(%rbp),%eax
    bbdb:	31 d0                	xor    %edx,%eax
    bbdd:	89 c6                	mov    %eax,%esi
    bbdf:	48 8b 8d a8 f0 ff ff 	mov    -0xf58(%rbp),%rcx
    bbe6:	48 8b 15 6b 3b 01 00 	mov    0x13b6b(%rip),%rdx        # 1f758 <g_1361>
    bbed:	48 8b 85 28 ee ff ff 	mov    -0x11d8(%rbp),%rax
    bbf4:	48 89 10             	mov    %rdx,(%rax)
    bbf7:	48 8b 85 28 ee ff ff 	mov    -0x11d8(%rbp),%rax
    bbfe:	48 8b 00             	mov    (%rax),%rax
    bc01:	48 39 c1             	cmp    %rax,%rcx
    bc04:	75 0a                	jne    bc10 <func_30+0x29d7>
    bc06:	8b 85 c0 ec ff ff    	mov    -0x1340(%rbp),%eax
    bc0c:	85 c0                	test   %eax,%eax
    bc0e:	74 07                	je     bc17 <func_30+0x29de>
    bc10:	b8 01 00 00 00       	mov    $0x1,%eax
    bc15:	eb 05                	jmp    bc1c <func_30+0x29e3>
    bc17:	b8 00 00 00 00       	mov    $0x0,%eax
    bc1c:	89 c7                	mov    %eax,%edi
    bc1e:	e8 da a2 ff ff       	callq  5efd <safe_mod_func_uint32_t_u_u>
    bc23:	89 c2                	mov    %eax,%edx
    bc25:	0f b6 85 84 ec ff ff 	movzbl -0x137c(%rbp),%eax
    bc2c:	09 d0                	or     %edx,%eax
    bc2e:	0f be c0             	movsbl %al,%eax
    bc31:	89 de                	mov    %ebx,%esi
    bc33:	89 c7                	mov    %eax,%edi
    bc35:	e8 f7 95 ff ff       	callq  5231 <safe_mod_func_int8_t_s_s>
    bc3a:	0f be c0             	movsbl %al,%eax
    bc3d:	be ff ff ff ff       	mov    $0xffffffff,%esi
    bc42:	89 c7                	mov    %eax,%edi
    bc44:	e8 8a 97 ff ff       	callq  53d3 <safe_sub_func_int16_t_s_s>
    bc49:	0f b7 c0             	movzwl %ax,%eax
    bc4c:	be 5b 03 00 00       	mov    $0x35b,%esi
    bc51:	89 c7                	mov    %eax,%edi
    bc53:	e8 04 a1 ff ff       	callq  5d5c <safe_mod_func_uint16_t_u_u>
    bc58:	0f be c0             	movsbl %al,%eax
    bc5b:	be f7 ff ff ff       	mov    $0xfffffff7,%esi
    bc60:	89 c7                	mov    %eax,%edi
    bc62:	e8 8b 95 ff ff       	callq  51f2 <safe_sub_func_int8_t_s_s>
    bc67:	84 c0                	test   %al,%al
    bc69:	0f 84 3b 03 00 00    	je     bfaa <func_30+0x2d71>
    bc6f:	c7 85 f0 ec ff ff 5a 	movl   $0x2377615a,-0x1310(%rbp)
    bc76:	61 77 23 
    bc79:	48 8d 05 08 08 01 00 	lea    0x10808(%rip),%rax        # 1c488 <g_423+0x68>
    bc80:	48 89 85 68 ee ff ff 	mov    %rax,-0x1198(%rbp)
    bc87:	48 8d 05 8a 3a 01 00 	lea    0x13a8a(%rip),%rax        # 1f718 <g_1108+0x38>
    bc8e:	48 89 85 70 ee ff ff 	mov    %rax,-0x1190(%rbp)
    bc95:	48 c7 85 78 ee ff ff 	movq   $0x0,-0x1188(%rbp)
    bc9c:	00 00 00 00 
    bca0:	c7 85 dc ec ff ff 00 	movl   $0x0,-0x1324(%rbp)
    bca7:	00 00 00 
    bcaa:	eb 1e                	jmp    bcca <func_30+0x2a91>
    bcac:	8b 85 dc ec ff ff    	mov    -0x1324(%rbp),%eax
    bcb2:	48 98                	cltq   
    bcb4:	48 8d 15 ed 2c 01 00 	lea    0x12ced(%rip),%rdx        # 1e9a8 <g_76>
    bcbb:	48 89 94 c5 30 f3 ff 	mov    %rdx,-0xcd0(%rbp,%rax,8)
    bcc2:	ff 
    bcc3:	83 85 dc ec ff ff 01 	addl   $0x1,-0x1324(%rbp)
    bcca:	83 bd dc ec ff ff 00 	cmpl   $0x0,-0x1324(%rbp)
    bcd1:	7e d9                	jle    bcac <func_30+0x2a73>
    bcd3:	48 8b 85 48 ed ff ff 	mov    -0x12b8(%rbp),%rax
    bcda:	48 8b 00             	mov    (%rax),%rax
    bcdd:	48 8b 95 38 f1 ff ff 	mov    -0xec8(%rbp),%rdx
    bce4:	48 89 10             	mov    %rdx,(%rax)
    bce7:	66 c7 05 f8 06 01 00 	movw   $0xffe8,0x106f8(%rip)        # 1c3e8 <g_320>
    bcee:	e8 ff 
    bcf0:	e9 d5 01 00 00       	jmpq   beca <func_30+0x2c91>
    bcf5:	48 8d 85 70 ed ff ff 	lea    -0x1290(%rbp),%rax
    bcfc:	48 89 85 80 ee ff ff 	mov    %rax,-0x1180(%rbp)
    bd03:	c7 85 f4 ec ff ff f5 	movl   $0xfcb148f5,-0x130c(%rbp)
    bd0a:	48 b1 fc 
    bd0d:	c7 85 10 f8 ff ff 00 	movl   $0x0,-0x7f0(%rbp)
    bd14:	00 00 00 
    bd17:	c7 85 14 f8 ff ff 00 	movl   $0x0,-0x7ec(%rbp)
    bd1e:	00 00 00 
    bd21:	c7 85 18 f8 ff ff fe 	movl   $0xfffffffe,-0x7e8(%rbp)
    bd28:	ff ff ff 
    bd2b:	c7 85 1c f8 ff ff 00 	movl   $0x0,-0x7e4(%rbp)
    bd32:	00 00 00 
    bd35:	c7 85 20 f8 ff ff 00 	movl   $0x0,-0x7e0(%rbp)
    bd3c:	00 00 00 
    bd3f:	c7 85 24 f8 ff ff 00 	movl   $0x0,-0x7dc(%rbp)
    bd46:	00 00 00 
    bd49:	c7 85 28 f8 ff ff f0 	movl   $0x661c6f0,-0x7d8(%rbp)
    bd50:	c6 61 06 
    bd53:	c7 85 2c f8 ff ff f0 	movl   $0x661c6f0,-0x7d4(%rbp)
    bd5a:	c6 61 06 
    bd5d:	c7 85 30 f8 ff ff 00 	movl   $0x0,-0x7d0(%rbp)
    bd64:	00 00 00 
    bd67:	c7 85 34 f8 ff ff f0 	movl   $0x661c6f0,-0x7cc(%rbp)
    bd6e:	c6 61 06 
    bd71:	c7 85 38 f8 ff ff f0 	movl   $0x661c6f0,-0x7c8(%rbp)
    bd78:	c6 61 06 
    bd7b:	c7 85 3c f8 ff ff fe 	movl   $0xfffffffe,-0x7c4(%rbp)
    bd82:	ff ff ff 
    bd85:	c7 85 40 f8 ff ff fe 	movl   $0xfffffffe,-0x7c0(%rbp)
    bd8c:	ff ff ff 
    bd8f:	c7 85 44 f8 ff ff f0 	movl   $0x661c6f0,-0x7bc(%rbp)
    bd96:	c6 61 06 
    bd99:	c7 85 48 f8 ff ff fe 	movl   $0xfffffffe,-0x7b8(%rbp)
    bda0:	ff ff ff 
    bda3:	c7 85 4c f8 ff ff fe 	movl   $0xfffffffe,-0x7b4(%rbp)
    bdaa:	ff ff ff 
    bdad:	c7 85 50 f8 ff ff f0 	movl   $0x661c6f0,-0x7b0(%rbp)
    bdb4:	c6 61 06 
    bdb7:	c7 85 54 f8 ff ff fe 	movl   $0xfffffffe,-0x7ac(%rbp)
    bdbe:	ff ff ff 
    bdc1:	c7 85 58 f8 ff ff fe 	movl   $0xfffffffe,-0x7a8(%rbp)
    bdc8:	ff ff ff 
    bdcb:	c7 85 5c f8 ff ff f0 	movl   $0x661c6f0,-0x7a4(%rbp)
    bdd2:	c6 61 06 
    bdd5:	c7 85 60 f8 ff ff fe 	movl   $0xfffffffe,-0x7a0(%rbp)
    bddc:	ff ff ff 
    bddf:	c7 85 64 f8 ff ff f0 	movl   $0x661c6f0,-0x79c(%rbp)
    bde6:	c6 61 06 
    bde9:	c7 85 68 f8 ff ff fe 	movl   $0xfffffffe,-0x798(%rbp)
    bdf0:	ff ff ff 
    bdf3:	c7 85 6c f8 ff ff fe 	movl   $0xfffffffe,-0x794(%rbp)
    bdfa:	ff ff ff 
    bdfd:	c7 85 70 f8 ff ff f0 	movl   $0x661c6f0,-0x790(%rbp)
    be04:	c6 61 06 
    be07:	c7 85 74 f8 ff ff fe 	movl   $0xfffffffe,-0x78c(%rbp)
    be0e:	ff ff ff 
    be11:	c7 85 78 f8 ff ff fe 	movl   $0xfffffffe,-0x788(%rbp)
    be18:	ff ff ff 
    be1b:	c7 85 7c f8 ff ff f0 	movl   $0x661c6f0,-0x784(%rbp)
    be22:	c6 61 06 
    be25:	c7 85 80 f8 ff ff fe 	movl   $0xfffffffe,-0x780(%rbp)
    be2c:	ff ff ff 
    be2f:	c7 85 84 f8 ff ff fe 	movl   $0xfffffffe,-0x77c(%rbp)
    be36:	ff ff ff 
    be39:	c7 85 88 f8 ff ff f0 	movl   $0x661c6f0,-0x778(%rbp)
    be40:	c6 61 06 
    be43:	c7 85 8c f8 ff ff f0 	movl   $0x661c6f0,-0x774(%rbp)
    be4a:	c6 61 06 
    be4d:	c7 85 90 f8 ff ff 00 	movl   $0x0,-0x770(%rbp)
    be54:	00 00 00 
    be57:	c7 85 94 f8 ff ff f0 	movl   $0x661c6f0,-0x76c(%rbp)
    be5e:	c6 61 06 
    be61:	c7 85 98 f8 ff ff f0 	movl   $0x661c6f0,-0x768(%rbp)
    be68:	c6 61 06 
    be6b:	c7 85 9c f8 ff ff 00 	movl   $0x0,-0x764(%rbp)
    be72:	00 00 00 
    be75:	c7 85 a0 f8 ff ff f0 	movl   $0x661c6f0,-0x760(%rbp)
    be7c:	c6 61 06 
    be7f:	c7 85 a4 f8 ff ff f0 	movl   $0x661c6f0,-0x75c(%rbp)
    be86:	c6 61 06 
    be89:	c7 85 a8 f8 ff ff 00 	movl   $0x0,-0x758(%rbp)
    be90:	00 00 00 
    be93:	c7 85 ac f8 ff ff f0 	movl   $0x661c6f0,-0x754(%rbp)
    be9a:	c6 61 06 
    be9d:	48 c7 85 88 ee ff ff 	movq   $0x0,-0x1178(%rbp)
    bea4:	00 00 00 00 
    bea8:	c6 85 a0 ec ff ff 01 	movb   $0x1,-0x1360(%rbp)
    beaf:	0f b7 05 32 05 01 00 	movzwl 0x10532(%rip),%eax        # 1c3e8 <g_320>
    beb6:	98                   	cwtl   
    beb7:	be 04 00 00 00       	mov    $0x4,%esi
    bebc:	89 c7                	mov    %eax,%edi
    bebe:	e8 f5 9f ff ff       	callq  5eb8 <safe_add_func_uint32_t_u_u>
    bec3:	66 89 05 1e 05 01 00 	mov    %ax,0x1051e(%rip)        # 1c3e8 <g_320>
    beca:	0f b7 05 17 05 01 00 	movzwl 0x10517(%rip),%eax        # 1c3e8 <g_320>
    bed1:	66 83 f8 16          	cmp    $0x16,%ax
    bed5:	0f 8f 1a fe ff ff    	jg     bcf5 <func_30+0x2abc>
    bedb:	66 c7 05 a0 01 01 00 	movw   $0x13,0x101a0(%rip)        # 1c084 <g_258>
    bee2:	13 00 
    bee4:	90                   	nop
    bee5:	0f b7 05 98 01 01 00 	movzwl 0x10198(%rip),%eax        # 1c084 <g_258>
    beec:	66 83 f8 0e          	cmp    $0xe,%ax
    bef0:	0f 8e 10 04 00 00    	jle    c306 <func_30+0x30cd>
    bef6:	48 8d 85 c0 ec ff ff 	lea    -0x1340(%rbp),%rax
    befd:	48 89 85 10 f8 ff ff 	mov    %rax,-0x7f0(%rbp)
    bf04:	48 8d 85 b8 ec ff ff 	lea    -0x1348(%rbp),%rax
    bf0b:	48 89 85 18 f8 ff ff 	mov    %rax,-0x7e8(%rbp)
    bf12:	48 8d 85 c0 ec ff ff 	lea    -0x1340(%rbp),%rax
    bf19:	48 89 85 20 f8 ff ff 	mov    %rax,-0x7e0(%rbp)
    bf20:	48 8d 85 b8 ec ff ff 	lea    -0x1348(%rbp),%rax
    bf27:	48 89 85 28 f8 ff ff 	mov    %rax,-0x7d8(%rbp)
    bf2e:	48 8d 85 c0 ec ff ff 	lea    -0x1340(%rbp),%rax
    bf35:	48 89 85 30 f8 ff ff 	mov    %rax,-0x7d0(%rbp)
    bf3c:	48 8d 85 b8 ec ff ff 	lea    -0x1348(%rbp),%rax
    bf43:	48 89 85 38 f8 ff ff 	mov    %rax,-0x7c8(%rbp)
    bf4a:	48 8d 85 c0 ec ff ff 	lea    -0x1340(%rbp),%rax
    bf51:	48 89 85 40 f8 ff ff 	mov    %rax,-0x7c0(%rbp)
    bf58:	48 8d 85 b8 ec ff ff 	lea    -0x1348(%rbp),%rax
    bf5f:	48 89 85 48 f8 ff ff 	mov    %rax,-0x7b8(%rbp)
    bf66:	48 8d 85 c0 ec ff ff 	lea    -0x1340(%rbp),%rax
    bf6d:	48 89 85 50 f8 ff ff 	mov    %rax,-0x7b0(%rbp)
    bf74:	48 8b 85 48 ed ff ff 	mov    -0x12b8(%rbp),%rax
    bf7b:	48 8b 00             	mov    (%rax),%rax
    bf7e:	48 8b 00             	mov    (%rax),%rax
    bf81:	8b 08                	mov    (%rax),%ecx
    bf83:	0f b6 85 84 ec ff ff 	movzbl -0x137c(%rbp),%eax
    bf8a:	0f b6 d0             	movzbl %al,%edx
    bf8d:	48 8b 85 48 ed ff ff 	mov    -0x12b8(%rbp),%rax
    bf94:	48 8b 00             	mov    (%rax),%rax
    bf97:	48 8b 00             	mov    (%rax),%rax
    bf9a:	21 ca                	and    %ecx,%edx
    bf9c:	89 10                	mov    %edx,(%rax)
    bf9e:	48 8b 85 38 ee ff ff 	mov    -0x11c8(%rbp),%rax
    bfa5:	e9 2d 26 00 00       	jmpq   e5d7 <func_30+0x539e>
    bfaa:	48 c7 85 40 ee ff ff 	movq   $0x0,-0x11c0(%rbp)
    bfb1:	00 00 00 00 
    bfb5:	48 c7 85 88 ed ff ff 	movq   $0x0,-0x1278(%rbp)
    bfbc:	00 00 00 00 
    bfc0:	48 8d 85 88 ed ff ff 	lea    -0x1278(%rbp),%rax
    bfc7:	48 89 85 48 ee ff ff 	mov    %rax,-0x11b8(%rbp)
    bfce:	66 c7 85 aa ec ff ff 	movw   $0x55dc,-0x1356(%rbp)
    bfd5:	dc 55 
    bfd7:	66 83 bd aa ec ff ff 	cmpw   $0x0,-0x1356(%rbp)
    bfde:	00 
    bfdf:	75 0b                	jne    bfec <func_30+0x2db3>
    bfe1:	0f b6 85 84 ec ff ff 	movzbl -0x137c(%rbp),%eax
    bfe8:	84 c0                	test   %al,%al
    bfea:	74 07                	je     bff3 <func_30+0x2dba>
    bfec:	ba 01 00 00 00       	mov    $0x1,%edx
    bff1:	eb 05                	jmp    bff8 <func_30+0x2dbf>
    bff3:	ba 00 00 00 00       	mov    $0x0,%edx
    bff8:	0f b7 85 aa ec ff ff 	movzwl -0x1356(%rbp),%eax
    bfff:	39 c2                	cmp    %eax,%edx
    c001:	7c 31                	jl     c034 <func_30+0x2dfb>
    c003:	48 c7 85 50 ee ff ff 	movq   $0x0,-0x11b0(%rbp)
    c00a:	00 00 00 00 
    c00e:	48 8b 85 b8 ed ff ff 	mov    -0x1248(%rbp),%rax
    c015:	8b 00                	mov    (%rax),%eax
    c017:	83 f0 01             	xor    $0x1,%eax
    c01a:	89 c2                	mov    %eax,%edx
    c01c:	48 8b 85 b8 ed ff ff 	mov    -0x1248(%rbp),%rax
    c023:	89 10                	mov    %edx,(%rax)
    c025:	c7 85 bc ec ff ff 08 	movl   $0x8,-0x1344(%rbp)
    c02c:	00 00 00 
    c02f:	e9 e3 01 00 00       	jmpq   c217 <func_30+0x2fde>
    c034:	48 8b 85 40 ee ff ff 	mov    -0x11c0(%rbp),%rax
    c03b:	e9 97 25 00 00       	jmpq   e5d7 <func_30+0x539e>
    c040:	48 c7 85 58 ee ff ff 	movq   $0x1,-0x11a8(%rbp)
    c047:	01 00 00 00 
    c04b:	48 8d 85 b4 ec ff ff 	lea    -0x134c(%rbp),%rax
    c052:	48 89 85 60 ee ff ff 	mov    %rax,-0x11a0(%rbp)
    c059:	66 c7 85 ac ec ff ff 	movw   $0x1,-0x1354(%rbp)
    c060:	01 00 
    c062:	0f b6 85 84 ec ff ff 	movzbl -0x137c(%rbp),%eax
    c069:	0f b6 d0             	movzbl %al,%edx
    c06c:	48 8b 05 65 29 01 00 	mov    0x12965(%rip),%rax        # 1e9d8 <g_402>
    c073:	0f b6 00             	movzbl (%rax),%eax
    c076:	66 0f be c8          	movsbw %al,%cx
    c07a:	48 8b 05 4f 35 01 00 	mov    0x1354f(%rip),%rax        # 1f5d0 <g_637>
    c081:	0f b7 00             	movzwl (%rax),%eax
    c084:	66 85 c0             	test   %ax,%ax
    c087:	75 0a                	jne    c093 <func_30+0x2e5a>
    c089:	48 83 bd 58 ee ff ff 	cmpq   $0x0,-0x11a8(%rbp)
    c090:	00 
    c091:	74 07                	je     c09a <func_30+0x2e61>
    c093:	b8 01 00 00 00       	mov    $0x1,%eax
    c098:	eb 05                	jmp    c09f <func_30+0x2e66>
    c09a:	b8 00 00 00 00       	mov    $0x0,%eax
    c09f:	21 c8                	and    %ecx,%eax
    c0a1:	f7 d0                	not    %eax
    c0a3:	98                   	cwtl   
    c0a4:	89 d6                	mov    %edx,%esi
    c0a6:	89 c7                	mov    %eax,%edi
    c0a8:	e8 a8 93 ff ff       	callq  5455 <safe_div_func_int16_t_s_s>
    c0ad:	0f bf d0             	movswl %ax,%edx
    c0b0:	0f b6 85 84 ec ff ff 	movzbl -0x137c(%rbp),%eax
    c0b7:	0f b6 c0             	movzbl %al,%eax
    c0ba:	31 c2                	xor    %eax,%edx
    c0bc:	48 8b 85 60 ee ff ff 	mov    -0x11a0(%rbp),%rax
    c0c3:	8b 00                	mov    (%rax),%eax
    c0c5:	21 c2                	and    %eax,%edx
    c0c7:	48 8b 85 60 ee ff ff 	mov    -0x11a0(%rbp),%rax
    c0ce:	89 10                	mov    %edx,(%rax)
    c0d0:	0f b6 85 84 ec ff ff 	movzbl -0x137c(%rbp),%eax
    c0d7:	83 c8 01             	or     $0x1,%eax
    c0da:	3c 07                	cmp    $0x7,%al
    c0dc:	0f 95 c0             	setne  %al
    c0df:	0f b6 c0             	movzbl %al,%eax
    c0e2:	48 39 85 58 ee ff ff 	cmp    %rax,-0x11a8(%rbp)
    c0e9:	0f 94 c0             	sete   %al
    c0ec:	0f b6 d0             	movzbl %al,%edx
    c0ef:	0f b6 85 84 ec ff ff 	movzbl -0x137c(%rbp),%eax
    c0f6:	0f b6 c0             	movzbl %al,%eax
    c0f9:	39 c2                	cmp    %eax,%edx
    c0fb:	7c 46                	jl     c143 <func_30+0x2f0a>
    c0fd:	c7 85 c0 ec ff ff e6 	movl   $0xffffffe6,-0x1340(%rbp)
    c104:	ff ff ff 
    c107:	eb 1a                	jmp    c123 <func_30+0x2eea>
    c109:	0f b6 85 84 ec ff ff 	movzbl -0x137c(%rbp),%eax
    c110:	84 c0                	test   %al,%al
    c112:	75 1c                	jne    c130 <func_30+0x2ef7>
    c114:	8b 85 c0 ec ff ff    	mov    -0x1340(%rbp),%eax
    c11a:	83 c0 01             	add    $0x1,%eax
    c11d:	89 85 c0 ec ff ff    	mov    %eax,-0x1340(%rbp)
    c123:	8b 85 c0 ec ff ff    	mov    -0x1340(%rbp),%eax
    c129:	83 f8 ee             	cmp    $0xffffffee,%eax
    c12c:	74 db                	je     c109 <func_30+0x2ed0>
    c12e:	eb 01                	jmp    c131 <func_30+0x2ef8>
    c130:	90                   	nop
    c131:	48 8b 85 b8 ed ff ff 	mov    -0x1248(%rbp),%rax
    c138:	c7 00 ff ff ff ff    	movl   $0xffffffff,(%rax)
    c13e:	e9 ba 00 00 00       	jmpq   c1fd <func_30+0x2fc4>
    c143:	48 8b 85 38 ee ff ff 	mov    -0x11c8(%rbp),%rax
    c14a:	8b 00                	mov    (%rax),%eax
    c14c:	0f b7 d8             	movzwl %ax,%ebx
    c14f:	48 8b 05 6a 28 01 00 	mov    0x1286a(%rip),%rax        # 1e9c0 <g_213>
    c156:	0f b6 00             	movzbl (%rax),%eax
    c159:	0f b6 d0             	movzbl %al,%edx
    c15c:	0f b6 85 84 ec ff ff 	movzbl -0x137c(%rbp),%eax
    c163:	0f b6 c0             	movzbl %al,%eax
    c166:	89 d6                	mov    %edx,%esi
    c168:	89 c7                	mov    %eax,%edi
    c16a:	e8 3f 9a ff ff       	callq  5bae <safe_mod_func_uint8_t_u_u>
    c16f:	84 c0                	test   %al,%al
    c171:	0f bf 85 ac ec ff ff 	movswl -0x1354(%rbp),%eax
    c178:	be 00 00 00 00       	mov    $0x0,%esi
    c17d:	89 c7                	mov    %eax,%edi
    c17f:	e8 5d 93 ff ff       	callq  54e1 <safe_lshift_func_int16_t_s_u>
    c184:	83 f0 01             	xor    $0x1,%eax
    c187:	0f b7 c0             	movzwl %ax,%eax
    c18a:	89 de                	mov    %ebx,%esi
    c18c:	89 c7                	mov    %eax,%edi
    c18e:	e8 fb 9b ff ff       	callq  5d8e <safe_div_func_uint16_t_u_u>
    c193:	66 85 c0             	test   %ax,%ax
    c196:	0f b6 85 84 ec ff ff 	movzbl -0x137c(%rbp),%eax
    c19d:	0f b6 d0             	movzbl %al,%edx
    c1a0:	48 8d 05 b9 fe 00 00 	lea    0xfeb9(%rip),%rax        # 1c060 <g_202>
    c1a7:	48 39 85 88 ec ff ff 	cmp    %rax,-0x1378(%rbp)
    c1ae:	0f 94 c1             	sete   %cl
    c1b1:	48 8b 05 18 34 01 00 	mov    0x13418(%rip),%rax        # 1f5d0 <g_637>
    c1b8:	0f b6 c9             	movzbl %cl,%ecx
    c1bb:	66 89 08             	mov    %cx,(%rax)
    c1be:	0f b7 00             	movzwl (%rax),%eax
    c1c1:	0f b7 c0             	movzwl %ax,%eax
    c1c4:	89 d6                	mov    %edx,%esi
    c1c6:	89 c7                	mov    %eax,%edi
    c1c8:	e8 7b 9c ff ff       	callq  5e48 <safe_rshift_func_uint16_t_u_s>
    c1cd:	66 85 c0             	test   %ax,%ax
    c1d0:	0f 94 c0             	sete   %al
    c1d3:	0f b6 d0             	movzbl %al,%edx
    c1d6:	0f b6 85 84 ec ff ff 	movzbl -0x137c(%rbp),%eax
    c1dd:	0f b6 c0             	movzbl %al,%eax
    c1e0:	21 c2                	and    %eax,%edx
    c1e2:	0f b6 85 84 ec ff ff 	movzbl -0x137c(%rbp),%eax
    c1e9:	0f b6 c0             	movzbl %al,%eax
    c1ec:	39 c2                	cmp    %eax,%edx
    c1ee:	0f 95 c2             	setne  %dl
    c1f1:	48 8b 05 f8 27 01 00 	mov    0x127f8(%rip),%rax        # 1e9f0 <g_457>
    c1f8:	0f b6 d2             	movzbl %dl,%edx
    c1fb:	89 10                	mov    %edx,(%rax)
    c1fd:	8b 85 bc ec ff ff    	mov    -0x1344(%rbp),%eax
    c203:	98                   	cwtl   
    c204:	be 09 00 00 00       	mov    $0x9,%esi
    c209:	89 c7                	mov    %eax,%edi
    c20b:	e8 a3 91 ff ff       	callq  53b3 <safe_add_func_int16_t_s_s>
    c210:	98                   	cwtl   
    c211:	89 85 bc ec ff ff    	mov    %eax,-0x1344(%rbp)
    c217:	8b 85 bc ec ff ff    	mov    -0x1344(%rbp),%eax
    c21d:	83 f8 11             	cmp    $0x11,%eax
    c220:	0f 85 1a fe ff ff    	jne    c040 <func_30+0x2e07>
    c226:	48 8b 85 48 ee ff ff 	mov    -0x11b8(%rbp),%rax
    c22d:	48 c7 00 00 00 00 00 	movq   $0x0,(%rax)
    c234:	66 c7 05 ab 01 01 00 	movw   $0x0,0x101ab(%rip)        # 1c3e8 <g_320>
    c23b:	00 00 
    c23d:	e9 b3 00 00 00       	jmpq   c2f5 <func_30+0x30bc>
    c242:	c6 05 a1 01 01 00 00 	movb   $0x0,0x101a1(%rip)        # 1c3ea <g_330>
    c249:	e9 87 00 00 00       	jmpq   c2d5 <func_30+0x309c>
    c24e:	c7 05 dc 03 01 00 00 	movl   $0x0,0x103dc(%rip)        # 1c634 <g_1072>
    c255:	00 00 00 
    c258:	eb 60                	jmp    c2ba <func_30+0x3081>
    c25a:	0f b7 05 87 01 01 00 	movzwl 0x10187(%rip),%eax        # 1c3e8 <g_320>
    c261:	0f bf d0             	movswl %ax,%edx
    c264:	0f b6 05 7f 01 01 00 	movzbl 0x1017f(%rip),%eax        # 1c3ea <g_330>
    c26b:	0f b6 c0             	movzbl %al,%eax
    c26e:	8b 0d c0 03 01 00    	mov    0x103c0(%rip),%ecx        # 1c634 <g_1072>
    c274:	48 63 c9             	movslq %ecx,%rcx
    c277:	48 63 d2             	movslq %edx,%rdx
    c27a:	48 63 f0             	movslq %eax,%rsi
    c27d:	48 89 d0             	mov    %rdx,%rax
    c280:	48 c1 e0 03          	shl    $0x3,%rax
    c284:	48 01 d0             	add    %rdx,%rax
    c287:	48 01 f0             	add    %rsi,%rax
    c28a:	48 c1 e0 02          	shl    $0x2,%rax
    c28e:	48 01 c8             	add    %rcx,%rax
    c291:	48 8d 14 c5 00 00 00 	lea    0x0(,%rax,8),%rdx
    c298:	00 
    c299:	48 8d 05 60 27 01 00 	lea    0x12760(%rip),%rax        # 1ea00 <g_460>
    c2a0:	48 8d 0d 11 27 01 00 	lea    0x12711(%rip),%rcx        # 1e9b8 <g_87>
    c2a7:	48 89 0c 02          	mov    %rcx,(%rdx,%rax,1)
    c2ab:	8b 05 83 03 01 00    	mov    0x10383(%rip),%eax        # 1c634 <g_1072>
    c2b1:	83 c0 01             	add    $0x1,%eax
    c2b4:	89 05 7a 03 01 00    	mov    %eax,0x1037a(%rip)        # 1c634 <g_1072>
    c2ba:	8b 05 74 03 01 00    	mov    0x10374(%rip),%eax        # 1c634 <g_1072>
    c2c0:	83 f8 03             	cmp    $0x3,%eax
    c2c3:	7e 95                	jle    c25a <func_30+0x3021>
    c2c5:	0f b6 05 1e 01 01 00 	movzbl 0x1011e(%rip),%eax        # 1c3ea <g_330>
    c2cc:	83 c0 01             	add    $0x1,%eax
    c2cf:	88 05 15 01 01 00    	mov    %al,0x10115(%rip)        # 1c3ea <g_330>
    c2d5:	0f b6 05 0e 01 01 00 	movzbl 0x1010e(%rip),%eax        # 1c3ea <g_330>
    c2dc:	3c 08                	cmp    $0x8,%al
    c2de:	0f 86 6a ff ff ff    	jbe    c24e <func_30+0x3015>
    c2e4:	0f b7 05 fd 00 01 00 	movzwl 0x100fd(%rip),%eax        # 1c3e8 <g_320>
    c2eb:	83 c0 01             	add    $0x1,%eax
    c2ee:	66 89 05 f3 00 01 00 	mov    %ax,0x100f3(%rip)        # 1c3e8 <g_320>
    c2f5:	0f b7 05 ec 00 01 00 	movzwl 0x100ec(%rip),%eax        # 1c3e8 <g_320>
    c2fc:	66 83 f8 06          	cmp    $0x6,%ax
    c300:	0f 8e 3c ff ff ff    	jle    c242 <func_30+0x3009>
    c306:	0f b6 85 84 ec ff ff 	movzbl -0x137c(%rbp),%eax
    c30d:	0f b6 d0             	movzbl %al,%edx
    c310:	48 8b 85 b8 ed ff ff 	mov    -0x1248(%rbp),%rax
    c317:	89 10                	mov    %edx,(%rax)
    c319:	c7 85 c8 ec ff ff 00 	movl   $0x0,-0x1338(%rbp)
    c320:	00 00 00 
    c323:	e9 81 22 00 00       	jmpq   e5a9 <func_30+0x5370>
    c328:	48 8d 05 69 33 01 00 	lea    0x13369(%rip),%rax        # 1f698 <g_884>
    c32f:	48 89 85 40 ef ff ff 	mov    %rax,-0x10c0(%rbp)
    c336:	c7 85 40 f2 ff ff 00 	movl   $0x0,-0xdc0(%rbp)
    c33d:	00 00 00 
    c340:	c7 85 44 f2 ff ff a6 	movl   $0xd5707ea6,-0xdbc(%rbp)
    c347:	7e 70 d5 
    c34a:	c7 85 48 f2 ff ff e9 	movl   $0x97b0a2e9,-0xdb8(%rbp)
    c351:	a2 b0 97 
    c354:	c7 85 4c f2 ff ff ff 	movl   $0xffffffff,-0xdb4(%rbp)
    c35b:	ff ff ff 
    c35e:	c7 85 50 f2 ff ff e9 	movl   $0x97b0a2e9,-0xdb0(%rbp)
    c365:	a2 b0 97 
    c368:	c7 85 54 f2 ff ff a6 	movl   $0xd5707ea6,-0xdac(%rbp)
    c36f:	7e 70 d5 
    c372:	c7 85 58 f2 ff ff 00 	movl   $0x0,-0xda8(%rbp)
    c379:	00 00 00 
    c37c:	c7 85 5c f2 ff ff 9d 	movl   $0xa53e989d,-0xda4(%rbp)
    c383:	98 3e a5 
    c386:	c7 85 60 f2 ff ff 5f 	movl   $0xae6ebc5f,-0xda0(%rbp)
    c38d:	bc 6e ae 
    c390:	c7 85 64 f2 ff ff fd 	movl   $0xfffffffd,-0xd9c(%rbp)
    c397:	ff ff ff 
    c39a:	c7 85 68 f2 ff ff fd 	movl   $0xfffffffd,-0xd98(%rbp)
    c3a1:	ff ff ff 
    c3a4:	c7 85 6c f2 ff ff 5f 	movl   $0xae6ebc5f,-0xd94(%rbp)
    c3ab:	bc 6e ae 
    c3ae:	c7 85 70 f2 ff ff 9d 	movl   $0xa53e989d,-0xd90(%rbp)
    c3b5:	98 3e a5 
    c3b8:	c7 85 74 f2 ff ff 00 	movl   $0x0,-0xd8c(%rbp)
    c3bf:	00 00 00 
    c3c2:	c7 85 78 f2 ff ff a6 	movl   $0xd5707ea6,-0xd88(%rbp)
    c3c9:	7e 70 d5 
    c3cc:	c7 85 7c f2 ff ff e9 	movl   $0x97b0a2e9,-0xd84(%rbp)
    c3d3:	a2 b0 97 
    c3d6:	c7 85 80 f2 ff ff ff 	movl   $0xffffffff,-0xd80(%rbp)
    c3dd:	ff ff ff 
    c3e0:	c7 85 84 f2 ff ff e9 	movl   $0x97b0a2e9,-0xd7c(%rbp)
    c3e7:	a2 b0 97 
    c3ea:	c7 85 88 f2 ff ff a6 	movl   $0xd5707ea6,-0xd78(%rbp)
    c3f1:	7e 70 d5 
    c3f4:	c7 85 8c f2 ff ff 00 	movl   $0x0,-0xd74(%rbp)
    c3fb:	00 00 00 
    c3fe:	c7 85 90 f2 ff ff 9d 	movl   $0xa53e989d,-0xd70(%rbp)
    c405:	98 3e a5 
    c408:	c7 85 94 f2 ff ff 5f 	movl   $0xae6ebc5f,-0xd6c(%rbp)
    c40f:	bc 6e ae 
    c412:	c7 85 98 f2 ff ff fd 	movl   $0xfffffffd,-0xd68(%rbp)
    c419:	ff ff ff 
    c41c:	c7 85 9c f2 ff ff fd 	movl   $0xfffffffd,-0xd64(%rbp)
    c423:	ff ff ff 
    c426:	c7 85 a0 f2 ff ff 5f 	movl   $0xae6ebc5f,-0xd60(%rbp)
    c42d:	bc 6e ae 
    c430:	c7 85 a4 f2 ff ff 9d 	movl   $0xa53e989d,-0xd5c(%rbp)
    c437:	98 3e a5 
    c43a:	c7 85 a8 f2 ff ff 00 	movl   $0x0,-0xd58(%rbp)
    c441:	00 00 00 
    c444:	c7 85 ac f2 ff ff a6 	movl   $0xd5707ea6,-0xd54(%rbp)
    c44b:	7e 70 d5 
    c44e:	c7 85 b0 f2 ff ff e9 	movl   $0x97b0a2e9,-0xd50(%rbp)
    c455:	a2 b0 97 
    c458:	c7 85 b4 f2 ff ff ff 	movl   $0xffffffff,-0xd4c(%rbp)
    c45f:	ff ff ff 
    c462:	c7 85 b8 f2 ff ff e9 	movl   $0x97b0a2e9,-0xd48(%rbp)
    c469:	a2 b0 97 
    c46c:	c7 85 bc f2 ff ff a6 	movl   $0xd5707ea6,-0xd44(%rbp)
    c473:	7e 70 d5 
    c476:	c7 85 c0 f2 ff ff 00 	movl   $0x0,-0xd40(%rbp)
    c47d:	00 00 00 
    c480:	c7 85 c4 f2 ff ff 9d 	movl   $0xa53e989d,-0xd3c(%rbp)
    c487:	98 3e a5 
    c48a:	c7 85 c8 f2 ff ff 5f 	movl   $0xae6ebc5f,-0xd38(%rbp)
    c491:	bc 6e ae 
    c494:	c7 85 cc f2 ff ff fd 	movl   $0xfffffffd,-0xd34(%rbp)
    c49b:	ff ff ff 
    c49e:	c7 85 d0 f2 ff ff fd 	movl   $0xfffffffd,-0xd30(%rbp)
    c4a5:	ff ff ff 
    c4a8:	c7 85 d4 f2 ff ff 5f 	movl   $0xae6ebc5f,-0xd2c(%rbp)
    c4af:	bc 6e ae 
    c4b2:	c7 85 d8 f2 ff ff 9d 	movl   $0xa53e989d,-0xd28(%rbp)
    c4b9:	98 3e a5 
    c4bc:	c7 85 dc f2 ff ff 00 	movl   $0x0,-0xd24(%rbp)
    c4c3:	00 00 00 
    c4c6:	c7 85 e0 f2 ff ff a6 	movl   $0xd5707ea6,-0xd20(%rbp)
    c4cd:	7e 70 d5 
    c4d0:	c7 85 e4 f2 ff ff e9 	movl   $0x97b0a2e9,-0xd1c(%rbp)
    c4d7:	a2 b0 97 
    c4da:	c7 85 e8 f2 ff ff ff 	movl   $0xffffffff,-0xd18(%rbp)
    c4e1:	ff ff ff 
    c4e4:	c7 85 ec f2 ff ff e9 	movl   $0x97b0a2e9,-0xd14(%rbp)
    c4eb:	a2 b0 97 
    c4ee:	c7 85 f0 f2 ff ff a6 	movl   $0xd5707ea6,-0xd10(%rbp)
    c4f5:	7e 70 d5 
    c4f8:	c7 85 f4 f2 ff ff 00 	movl   $0x0,-0xd0c(%rbp)
    c4ff:	00 00 00 
    c502:	c7 85 f8 f2 ff ff 9d 	movl   $0xa53e989d,-0xd08(%rbp)
    c509:	98 3e a5 
    c50c:	c7 85 fc f2 ff ff 5f 	movl   $0xae6ebc5f,-0xd04(%rbp)
    c513:	bc 6e ae 
    c516:	c7 85 00 f3 ff ff fd 	movl   $0xfffffffd,-0xd00(%rbp)
    c51d:	ff ff ff 
    c520:	c7 85 04 f3 ff ff fd 	movl   $0xfffffffd,-0xcfc(%rbp)
    c527:	ff ff ff 
    c52a:	c7 85 08 f3 ff ff 5f 	movl   $0xae6ebc5f,-0xcf8(%rbp)
    c531:	bc 6e ae 
    c534:	c7 85 0c f3 ff ff 9d 	movl   $0xa53e989d,-0xcf4(%rbp)
    c53b:	98 3e a5 
    c53e:	c7 85 10 f3 ff ff 00 	movl   $0x0,-0xcf0(%rbp)
    c545:	00 00 00 
    c548:	c7 85 14 f3 ff ff a6 	movl   $0xd5707ea6,-0xcec(%rbp)
    c54f:	7e 70 d5 
    c552:	c7 85 18 f3 ff ff e9 	movl   $0x97b0a2e9,-0xce8(%rbp)
    c559:	a2 b0 97 
    c55c:	c7 85 1c f3 ff ff ff 	movl   $0xffffffff,-0xce4(%rbp)
    c563:	ff ff ff 
    c566:	c7 85 20 f3 ff ff e9 	movl   $0x97b0a2e9,-0xce0(%rbp)
    c56d:	a2 b0 97 
    c570:	c7 85 24 f3 ff ff a6 	movl   $0xd5707ea6,-0xcdc(%rbp)
    c577:	7e 70 d5 
    c57a:	c7 85 28 f3 ff ff 00 	movl   $0x0,-0xcd8(%rbp)
    c581:	00 00 00 
    c584:	c7 85 2c f3 ff ff 9d 	movl   $0xa53e989d,-0xcd4(%rbp)
    c58b:	98 3e a5 
    c58e:	66 c7 85 a4 ec ff ff 	movw   $0x7,-0x135c(%rbp)
    c595:	07 00 
    c597:	48 8d 05 42 31 01 00 	lea    0x13142(%rip),%rax        # 1f6e0 <g_1108>
    c59e:	48 89 85 48 ef ff ff 	mov    %rax,-0x10b8(%rbp)
    c5a5:	48 8d 85 40 f2 ff ff 	lea    -0xdc0(%rbp),%rax
    c5ac:	48 83 c0 34          	add    $0x34,%rax
    c5b0:	48 89 85 10 f1 ff ff 	mov    %rax,-0xef0(%rbp)
    c5b7:	48 c7 85 18 f1 ff ff 	movq   $0x0,-0xee8(%rbp)
    c5be:	00 00 00 00 
    c5c2:	48 8d 85 40 f2 ff ff 	lea    -0xdc0(%rbp),%rax
    c5c9:	48 83 c0 34          	add    $0x34,%rax
    c5cd:	48 89 85 20 f1 ff ff 	mov    %rax,-0xee0(%rbp)
    c5d4:	48 c7 85 28 f1 ff ff 	movq   $0x0,-0xed8(%rbp)
    c5db:	00 00 00 00 
    c5df:	48 8d 85 40 f2 ff ff 	lea    -0xdc0(%rbp),%rax
    c5e6:	48 83 c0 34          	add    $0x34,%rax
    c5ea:	48 89 85 30 f1 ff ff 	mov    %rax,-0xed0(%rbp)
    c5f1:	48 c7 85 38 f1 ff ff 	movq   $0x0,-0xec8(%rbp)
    c5f8:	00 00 00 00 
    c5fc:	48 8d 85 40 f2 ff ff 	lea    -0xdc0(%rbp),%rax
    c603:	48 83 c0 34          	add    $0x34,%rax
    c607:	48 89 85 40 f1 ff ff 	mov    %rax,-0xec0(%rbp)
    c60e:	48 c7 85 48 f1 ff ff 	movq   $0x0,-0xeb8(%rbp)
    c615:	00 00 00 00 
    c619:	48 8d 85 40 f2 ff ff 	lea    -0xdc0(%rbp),%rax
    c620:	48 83 c0 34          	add    $0x34,%rax
    c624:	48 89 85 50 f1 ff ff 	mov    %rax,-0xeb0(%rbp)
    c62b:	c7 85 08 ed ff ff 23 	movl   $0xd5a1b223,-0x12f8(%rbp)
    c632:	b2 a1 d5 
    c635:	c6 85 a2 ec ff ff 07 	movb   $0x7,-0x135e(%rbp)
    c63c:	66 c7 05 a3 fd 00 00 	movw   $0x0,0xfda3(%rip)        # 1c3e8 <g_320>
    c643:	00 00 
    c645:	e9 81 1d 00 00       	jmpq   e3cb <func_30+0x5192>
    c64a:	48 c7 85 58 ef ff ff 	movq   $0x0,-0x10a8(%rbp)
    c651:	00 00 00 00 
    c655:	48 8d 85 58 ed ff ff 	lea    -0x12a8(%rbp),%rax
    c65c:	48 89 85 60 ef ff ff 	mov    %rax,-0x10a0(%rbp)
    c663:	48 8d 85 b0 ec ff ff 	lea    -0x1350(%rbp),%rax
    c66a:	48 89 85 68 ef ff ff 	mov    %rax,-0x1098(%rbp)
    c671:	66 c7 85 10 f0 ff ff 	movw   $0xc3c3,-0xff0(%rbp)
    c678:	c3 c3 
    c67a:	66 c7 85 12 f0 ff ff 	movw   $0xc3c3,-0xfee(%rbp)
    c681:	c3 c3 
    c683:	66 c7 85 14 f0 ff ff 	movw   $0xc3c3,-0xfec(%rbp)
    c68a:	c3 c3 
    c68c:	66 c7 85 16 f0 ff ff 	movw   $0xc3c3,-0xfea(%rbp)
    c693:	c3 c3 
    c695:	66 c7 85 18 f0 ff ff 	movw   $0xc3c3,-0xfe8(%rbp)
    c69c:	c3 c3 
    c69e:	66 c7 85 1a f0 ff ff 	movw   $0xc3c3,-0xfe6(%rbp)
    c6a5:	c3 c3 
    c6a7:	66 c7 85 1c f0 ff ff 	movw   $0xc3c3,-0xfe4(%rbp)
    c6ae:	c3 c3 
    c6b0:	66 c7 85 1e f0 ff ff 	movw   $0xc3c3,-0xfe2(%rbp)
    c6b7:	c3 c3 
    c6b9:	66 c7 85 20 f0 ff ff 	movw   $0xc3c3,-0xfe0(%rbp)
    c6c0:	c3 c3 
    c6c2:	66 c7 85 22 f0 ff ff 	movw   $0xc3c3,-0xfde(%rbp)
    c6c9:	c3 c3 
    c6cb:	66 c7 85 24 f0 ff ff 	movw   $0xc3c3,-0xfdc(%rbp)
    c6d2:	c3 c3 
    c6d4:	66 c7 85 26 f0 ff ff 	movw   $0xc3c3,-0xfda(%rbp)
    c6db:	c3 c3 
    c6dd:	66 c7 85 28 f0 ff ff 	movw   $0xc3c3,-0xfd8(%rbp)
    c6e4:	c3 c3 
    c6e6:	66 c7 85 2a f0 ff ff 	movw   $0xc3c3,-0xfd6(%rbp)
    c6ed:	c3 c3 
    c6ef:	66 c7 85 2c f0 ff ff 	movw   $0xc3c3,-0xfd4(%rbp)
    c6f6:	c3 c3 
    c6f8:	66 c7 85 2e f0 ff ff 	movw   $0xc3c3,-0xfd2(%rbp)
    c6ff:	c3 c3 
    c701:	66 c7 85 30 f0 ff ff 	movw   $0xc3c3,-0xfd0(%rbp)
    c708:	c3 c3 
    c70a:	66 c7 85 32 f0 ff ff 	movw   $0xc3c3,-0xfce(%rbp)
    c711:	c3 c3 
    c713:	66 c7 85 34 f0 ff ff 	movw   $0xc3c3,-0xfcc(%rbp)
    c71a:	c3 c3 
    c71c:	66 c7 85 36 f0 ff ff 	movw   $0xc3c3,-0xfca(%rbp)
    c723:	c3 c3 
    c725:	66 c7 85 38 f0 ff ff 	movw   $0xc3c3,-0xfc8(%rbp)
    c72c:	c3 c3 
    c72e:	66 c7 85 3a f0 ff ff 	movw   $0xc3c3,-0xfc6(%rbp)
    c735:	c3 c3 
    c737:	66 c7 85 3c f0 ff ff 	movw   $0xc3c3,-0xfc4(%rbp)
    c73e:	c3 c3 
    c740:	66 c7 85 3e f0 ff ff 	movw   $0xc3c3,-0xfc2(%rbp)
    c747:	c3 c3 
    c749:	66 c7 85 40 f0 ff ff 	movw   $0xc3c3,-0xfc0(%rbp)
    c750:	c3 c3 
    c752:	48 8d 85 50 f0 ff ff 	lea    -0xfb0(%rbp),%rax
    c759:	48 83 c0 0f          	add    $0xf,%rax
    c75d:	48 89 85 70 ef ff ff 	mov    %rax,-0x1090(%rbp)
    c764:	48 8b 85 60 ef ff ff 	mov    -0x10a0(%rbp),%rax
    c76b:	48 8b 95 58 ef ff ff 	mov    -0x10a8(%rbp),%rdx
    c772:	48 89 10             	mov    %rdx,(%rax)
    c775:	8b 95 74 f2 ff ff    	mov    -0xd8c(%rbp),%edx
    c77b:	48 8b 85 b8 ed ff ff 	mov    -0x1248(%rbp),%rax
    c782:	89 10                	mov    %edx,(%rax)
    c784:	48 8b 85 b8 ed ff ff 	mov    -0x1248(%rbp),%rax
    c78b:	8b 00                	mov    (%rax),%eax
    c78d:	89 85 04 f1 ff ff    	mov    %eax,-0xefc(%rbp)
    c793:	48 c7 05 82 08 01 00 	movq   $0x0,0x10882(%rip)        # 1d020 <g_1199>
    c79a:	00 00 00 00 
    c79e:	e9 a0 00 00 00       	jmpq   c843 <func_30+0x360a>
    c7a3:	c6 05 6c fd 00 00 00 	movb   $0x0,0xfd6c(%rip)        # 1c516 <g_676>
    c7aa:	eb 76                	jmp    c822 <func_30+0x35e9>
    c7ac:	c7 05 7a fe 00 00 00 	movl   $0x0,0xfe7a(%rip)        # 1c630 <g_1048>
    c7b3:	00 00 00 
    c7b6:	eb 4f                	jmp    c807 <func_30+0x35ce>
    c7b8:	48 8b 15 61 08 01 00 	mov    0x10861(%rip),%rdx        # 1d020 <g_1199>
    c7bf:	0f b6 05 50 fd 00 00 	movzbl 0xfd50(%rip),%eax        # 1c516 <g_676>
    c7c6:	0f be c0             	movsbl %al,%eax
    c7c9:	8b 0d 61 fe 00 00    	mov    0xfe61(%rip),%ecx        # 1c630 <g_1048>
    c7cf:	48 63 c9             	movslq %ecx,%rcx
    c7d2:	48 63 f0             	movslq %eax,%rsi
    c7d5:	48 89 d0             	mov    %rdx,%rax
    c7d8:	48 c1 e0 03          	shl    $0x3,%rax
    c7dc:	48 29 d0             	sub    %rdx,%rax
    c7df:	48 01 f0             	add    %rsi,%rax
    c7e2:	48 c1 e0 02          	shl    $0x2,%rax
    c7e6:	48 01 c8             	add    %rcx,%rax
    c7e9:	48 8d 15 08 fd 00 00 	lea    0xfd08(%rip),%rdx        # 1c4f8 <g_427>
    c7f0:	48 89 94 c5 70 f5 ff 	mov    %rdx,-0xa90(%rbp,%rax,8)
    c7f7:	ff 
    c7f8:	8b 05 32 fe 00 00    	mov    0xfe32(%rip),%eax        # 1c630 <g_1048>
    c7fe:	83 c0 01             	add    $0x1,%eax
    c801:	89 05 29 fe 00 00    	mov    %eax,0xfe29(%rip)        # 1c630 <g_1048>
    c807:	8b 05 23 fe 00 00    	mov    0xfe23(%rip),%eax        # 1c630 <g_1048>
    c80d:	83 f8 03             	cmp    $0x3,%eax
    c810:	7e a6                	jle    c7b8 <func_30+0x357f>
    c812:	0f b6 05 fd fc 00 00 	movzbl 0xfcfd(%rip),%eax        # 1c516 <g_676>
    c819:	83 c0 01             	add    $0x1,%eax
    c81c:	88 05 f4 fc 00 00    	mov    %al,0xfcf4(%rip)        # 1c516 <g_676>
    c822:	0f b6 05 ed fc 00 00 	movzbl 0xfced(%rip),%eax        # 1c516 <g_676>
    c829:	3c 06                	cmp    $0x6,%al
    c82b:	0f 8e 7b ff ff ff    	jle    c7ac <func_30+0x3573>
    c831:	48 8b 05 e8 07 01 00 	mov    0x107e8(%rip),%rax        # 1d020 <g_1199>
    c838:	48 83 c0 01          	add    $0x1,%rax
    c83c:	48 89 05 dd 07 01 00 	mov    %rax,0x107dd(%rip)        # 1d020 <g_1199>
    c843:	48 8b 05 d6 07 01 00 	mov    0x107d6(%rip),%rax        # 1d020 <g_1199>
    c84a:	48 83 f8 02          	cmp    $0x2,%rax
    c84e:	0f 8e 4f ff ff ff    	jle    c7a3 <func_30+0x356a>
    c854:	c7 05 de f7 00 00 00 	movl   $0x0,0xf7de(%rip)        # 1c03c <g_58>
    c85b:	00 00 00 
    c85e:	e9 37 1b 00 00       	jmpq   e39a <func_30+0x5161>
    c863:	48 b8 b3 12 a8 7f 1e 	movabs $0xeefb4b1e7fa812b3,%rax
    c86a:	4b fb ee 
    c86d:	48 89 85 78 ef ff ff 	mov    %rax,-0x1088(%rbp)
    c874:	c7 85 c4 ec ff ff a7 	movl   $0x8ea13ba7,-0x133c(%rbp)
    c87b:	3b a1 8e 
    c87e:	48 8d 05 d9 0b 01 00 	lea    0x10bd9(%rip),%rax        # 1d45e <g_1516+0x3fe>
    c885:	48 89 85 68 ed ff ff 	mov    %rax,-0x1298(%rbp)
    c88c:	48 8d 85 68 ed ff ff 	lea    -0x1298(%rbp),%rax
    c893:	48 89 85 70 ed ff ff 	mov    %rax,-0x1290(%rbp)
    c89a:	48 8d 85 c4 ec ff ff 	lea    -0x133c(%rbp),%rax
    c8a1:	48 89 85 10 f8 ff ff 	mov    %rax,-0x7f0(%rbp)
    c8a8:	48 8d 85 40 f2 ff ff 	lea    -0xdc0(%rbp),%rax
    c8af:	48 83 c0 70          	add    $0x70,%rax
    c8b3:	48 89 85 18 f8 ff ff 	mov    %rax,-0x7e8(%rbp)
    c8ba:	48 8d 85 b0 ec ff ff 	lea    -0x1350(%rbp),%rax
    c8c1:	48 89 85 20 f8 ff ff 	mov    %rax,-0x7e0(%rbp)
    c8c8:	48 8d 85 40 f2 ff ff 	lea    -0xdc0(%rbp),%rax
    c8cf:	48 83 c0 70          	add    $0x70,%rax
    c8d3:	48 89 85 28 f8 ff ff 	mov    %rax,-0x7d8(%rbp)
    c8da:	48 8d 05 57 f7 00 00 	lea    0xf757(%rip),%rax        # 1c038 <g_53>
    c8e1:	48 89 85 30 f8 ff ff 	mov    %rax,-0x7d0(%rbp)
    c8e8:	48 8d 05 4d f7 00 00 	lea    0xf74d(%rip),%rax        # 1c03c <g_58>
    c8ef:	48 89 85 38 f8 ff ff 	mov    %rax,-0x7c8(%rbp)
    c8f6:	48 8d 85 b0 ec ff ff 	lea    -0x1350(%rbp),%rax
    c8fd:	48 89 85 40 f8 ff ff 	mov    %rax,-0x7c0(%rbp)
    c904:	48 8d 85 c4 ec ff ff 	lea    -0x133c(%rbp),%rax
    c90b:	48 89 85 48 f8 ff ff 	mov    %rax,-0x7b8(%rbp)
    c912:	48 c7 85 50 f8 ff ff 	movq   $0x0,-0x7b0(%rbp)
    c919:	00 00 00 00 
    c91d:	48 c7 85 58 f8 ff ff 	movq   $0x0,-0x7a8(%rbp)
    c924:	00 00 00 00 
    c928:	48 c7 85 60 f8 ff ff 	movq   $0x0,-0x7a0(%rbp)
    c92f:	00 00 00 00 
    c933:	48 8d 85 b0 ec ff ff 	lea    -0x1350(%rbp),%rax
    c93a:	48 89 85 68 f8 ff ff 	mov    %rax,-0x798(%rbp)
    c941:	48 8d 85 c4 ec ff ff 	lea    -0x133c(%rbp),%rax
    c948:	48 89 85 70 f8 ff ff 	mov    %rax,-0x790(%rbp)
    c94f:	48 8d 05 e2 f6 00 00 	lea    0xf6e2(%rip),%rax        # 1c038 <g_53>
    c956:	48 89 85 78 f8 ff ff 	mov    %rax,-0x788(%rbp)
    c95d:	48 8d 05 d8 f6 00 00 	lea    0xf6d8(%rip),%rax        # 1c03c <g_58>
    c964:	48 89 85 80 f8 ff ff 	mov    %rax,-0x780(%rbp)
    c96b:	48 c7 85 88 f8 ff ff 	movq   $0x0,-0x778(%rbp)
    c972:	00 00 00 00 
    c976:	48 8d 85 c4 ec ff ff 	lea    -0x133c(%rbp),%rax
    c97d:	48 89 85 90 f8 ff ff 	mov    %rax,-0x770(%rbp)
    c984:	48 c7 85 98 f8 ff ff 	movq   $0x0,-0x768(%rbp)
    c98b:	00 00 00 00 
    c98f:	48 c7 85 a0 f8 ff ff 	movq   $0x0,-0x760(%rbp)
    c996:	00 00 00 00 
    c99a:	48 8d 85 b0 ec ff ff 	lea    -0x1350(%rbp),%rax
    c9a1:	48 89 85 a8 f8 ff ff 	mov    %rax,-0x758(%rbp)
    c9a8:	48 c7 85 b0 f8 ff ff 	movq   $0x0,-0x750(%rbp)
    c9af:	00 00 00 00 
    c9b3:	48 c7 85 b8 f8 ff ff 	movq   $0x0,-0x748(%rbp)
    c9ba:	00 00 00 00 
    c9be:	48 8d 85 b0 ec ff ff 	lea    -0x1350(%rbp),%rax
    c9c5:	48 89 85 c0 f8 ff ff 	mov    %rax,-0x740(%rbp)
    c9cc:	48 c7 85 c8 f8 ff ff 	movq   $0x0,-0x738(%rbp)
    c9d3:	00 00 00 00 
    c9d7:	48 8d 05 5a f6 00 00 	lea    0xf65a(%rip),%rax        # 1c038 <g_53>
    c9de:	48 89 85 d0 f8 ff ff 	mov    %rax,-0x730(%rbp)
    c9e5:	48 8d 85 c4 ec ff ff 	lea    -0x133c(%rbp),%rax
    c9ec:	48 89 85 d8 f8 ff ff 	mov    %rax,-0x728(%rbp)
    c9f3:	48 8d 85 b0 ec ff ff 	lea    -0x1350(%rbp),%rax
    c9fa:	48 89 85 e0 f8 ff ff 	mov    %rax,-0x720(%rbp)
    ca01:	48 8d 05 30 f6 00 00 	lea    0xf630(%rip),%rax        # 1c038 <g_53>
    ca08:	48 89 85 e8 f8 ff ff 	mov    %rax,-0x718(%rbp)
    ca0f:	48 8d 85 40 f2 ff ff 	lea    -0xdc0(%rbp),%rax
    ca16:	48 05 d8 00 00 00    	add    $0xd8,%rax
    ca1c:	48 89 85 f0 f8 ff ff 	mov    %rax,-0x710(%rbp)
    ca23:	48 8d 05 0e f6 00 00 	lea    0xf60e(%rip),%rax        # 1c038 <g_53>
    ca2a:	48 89 85 f8 f8 ff ff 	mov    %rax,-0x708(%rbp)
    ca31:	48 8d 85 40 f2 ff ff 	lea    -0xdc0(%rbp),%rax
    ca38:	48 05 b8 00 00 00    	add    $0xb8,%rax
    ca3e:	48 89 85 00 f9 ff ff 	mov    %rax,-0x700(%rbp)
    ca45:	48 8d 85 40 f2 ff ff 	lea    -0xdc0(%rbp),%rax
    ca4c:	48 83 c0 34          	add    $0x34,%rax
    ca50:	48 89 85 08 f9 ff ff 	mov    %rax,-0x6f8(%rbp)
    ca57:	48 8d 85 40 f2 ff ff 	lea    -0xdc0(%rbp),%rax
    ca5e:	48 05 d4 00 00 00    	add    $0xd4,%rax
    ca64:	48 89 85 10 f9 ff ff 	mov    %rax,-0x6f0(%rbp)
    ca6b:	48 8d 05 ca f5 00 00 	lea    0xf5ca(%rip),%rax        # 1c03c <g_58>
    ca72:	48 89 85 18 f9 ff ff 	mov    %rax,-0x6e8(%rbp)
    ca79:	48 c7 85 20 f9 ff ff 	movq   $0x0,-0x6e0(%rbp)
    ca80:	00 00 00 00 
    ca84:	48 c7 85 28 f9 ff ff 	movq   $0x0,-0x6d8(%rbp)
    ca8b:	00 00 00 00 
    ca8f:	48 c7 85 30 f9 ff ff 	movq   $0x0,-0x6d0(%rbp)
    ca96:	00 00 00 00 
    ca9a:	48 c7 85 38 f9 ff ff 	movq   $0x0,-0x6c8(%rbp)
    caa1:	00 00 00 00 
    caa5:	48 8d 85 c4 ec ff ff 	lea    -0x133c(%rbp),%rax
    caac:	48 89 85 40 f9 ff ff 	mov    %rax,-0x6c0(%rbp)
    cab3:	48 8d 05 7e f5 00 00 	lea    0xf57e(%rip),%rax        # 1c038 <g_53>
    caba:	48 89 85 48 f9 ff ff 	mov    %rax,-0x6b8(%rbp)
    cac1:	48 8d 85 40 f2 ff ff 	lea    -0xdc0(%rbp),%rax
    cac8:	48 83 c0 58          	add    $0x58,%rax
    cacc:	48 89 85 50 f9 ff ff 	mov    %rax,-0x6b0(%rbp)
    cad3:	48 8d 85 40 f2 ff ff 	lea    -0xdc0(%rbp),%rax
    cada:	48 83 c0 34          	add    $0x34,%rax
    cade:	48 89 85 58 f9 ff ff 	mov    %rax,-0x6a8(%rbp)
    cae5:	48 8d 85 40 f2 ff ff 	lea    -0xdc0(%rbp),%rax
    caec:	48 83 c0 24          	add    $0x24,%rax
    caf0:	48 89 85 60 f9 ff ff 	mov    %rax,-0x6a0(%rbp)
    caf7:	48 c7 85 68 f9 ff ff 	movq   $0x0,-0x698(%rbp)
    cafe:	00 00 00 00 
    cb02:	48 c7 85 70 f9 ff ff 	movq   $0x0,-0x690(%rbp)
    cb09:	00 00 00 00 
    cb0d:	48 8d 05 28 f5 00 00 	lea    0xf528(%rip),%rax        # 1c03c <g_58>
    cb14:	48 89 85 78 f9 ff ff 	mov    %rax,-0x688(%rbp)
    cb1b:	48 8d 85 b0 ec ff ff 	lea    -0x1350(%rbp),%rax
    cb22:	48 89 85 80 f9 ff ff 	mov    %rax,-0x680(%rbp)
    cb29:	48 8d 05 08 f5 00 00 	lea    0xf508(%rip),%rax        # 1c038 <g_53>
    cb30:	48 89 85 88 f9 ff ff 	mov    %rax,-0x678(%rbp)
    cb37:	48 8d 85 40 f2 ff ff 	lea    -0xdc0(%rbp),%rax
    cb3e:	48 83 c0 34          	add    $0x34,%rax
    cb42:	48 89 85 90 f9 ff ff 	mov    %rax,-0x670(%rbp)
    cb49:	48 8d 85 40 f2 ff ff 	lea    -0xdc0(%rbp),%rax
    cb50:	48 83 c0 58          	add    $0x58,%rax
    cb54:	48 89 85 98 f9 ff ff 	mov    %rax,-0x668(%rbp)
    cb5b:	48 8d 85 c4 ec ff ff 	lea    -0x133c(%rbp),%rax
    cb62:	48 89 85 a0 f9 ff ff 	mov    %rax,-0x660(%rbp)
    cb69:	48 8d 05 cc f4 00 00 	lea    0xf4cc(%rip),%rax        # 1c03c <g_58>
    cb70:	48 89 85 a8 f9 ff ff 	mov    %rax,-0x658(%rbp)
    cb77:	48 8d 85 b0 ec ff ff 	lea    -0x1350(%rbp),%rax
    cb7e:	48 89 85 b0 f9 ff ff 	mov    %rax,-0x650(%rbp)
    cb85:	48 c7 85 b8 f9 ff ff 	movq   $0x0,-0x648(%rbp)
    cb8c:	00 00 00 00 
    cb90:	48 8d 05 a5 f4 00 00 	lea    0xf4a5(%rip),%rax        # 1c03c <g_58>
    cb97:	48 89 85 c0 f9 ff ff 	mov    %rax,-0x640(%rbp)
    cb9e:	48 8d 05 97 f4 00 00 	lea    0xf497(%rip),%rax        # 1c03c <g_58>
    cba5:	48 89 85 c8 f9 ff ff 	mov    %rax,-0x638(%rbp)
    cbac:	48 c7 85 d0 f9 ff ff 	movq   $0x0,-0x630(%rbp)
    cbb3:	00 00 00 00 
    cbb7:	48 8d 85 b0 ec ff ff 	lea    -0x1350(%rbp),%rax
    cbbe:	48 89 85 d8 f9 ff ff 	mov    %rax,-0x628(%rbp)
    cbc5:	48 8d 85 b0 ec ff ff 	lea    -0x1350(%rbp),%rax
    cbcc:	48 89 85 e0 f9 ff ff 	mov    %rax,-0x620(%rbp)
    cbd3:	48 8d 85 b0 ec ff ff 	lea    -0x1350(%rbp),%rax
    cbda:	48 89 85 e8 f9 ff ff 	mov    %rax,-0x618(%rbp)
    cbe1:	48 8d 05 54 f4 00 00 	lea    0xf454(%rip),%rax        # 1c03c <g_58>
    cbe8:	48 89 85 f0 f9 ff ff 	mov    %rax,-0x610(%rbp)
    cbef:	48 8d 05 46 f4 00 00 	lea    0xf446(%rip),%rax        # 1c03c <g_58>
    cbf6:	48 89 85 f8 f9 ff ff 	mov    %rax,-0x608(%rbp)
    cbfd:	48 8d 05 34 f4 00 00 	lea    0xf434(%rip),%rax        # 1c038 <g_53>
    cc04:	48 89 85 00 fa ff ff 	mov    %rax,-0x600(%rbp)
    cc0b:	48 8d 85 b0 ec ff ff 	lea    -0x1350(%rbp),%rax
    cc12:	48 89 85 08 fa ff ff 	mov    %rax,-0x5f8(%rbp)
    cc19:	48 8d 85 40 f2 ff ff 	lea    -0xdc0(%rbp),%rax
    cc20:	48 83 c0 58          	add    $0x58,%rax
    cc24:	48 89 85 10 fa ff ff 	mov    %rax,-0x5f0(%rbp)
    cc2b:	48 8d 85 b0 ec ff ff 	lea    -0x1350(%rbp),%rax
    cc32:	48 89 85 18 fa ff ff 	mov    %rax,-0x5e8(%rbp)
    cc39:	48 8d 05 fc f3 00 00 	lea    0xf3fc(%rip),%rax        # 1c03c <g_58>
    cc40:	48 89 85 20 fa ff ff 	mov    %rax,-0x5e0(%rbp)
    cc47:	48 c7 85 28 fa ff ff 	movq   $0x0,-0x5d8(%rbp)
    cc4e:	00 00 00 00 
    cc52:	48 8d 85 40 f2 ff ff 	lea    -0xdc0(%rbp),%rax
    cc59:	48 83 c0 34          	add    $0x34,%rax
    cc5d:	48 89 85 30 fa ff ff 	mov    %rax,-0x5d0(%rbp)
    cc64:	48 8d 85 40 f2 ff ff 	lea    -0xdc0(%rbp),%rax
    cc6b:	48 05 d8 00 00 00    	add    $0xd8,%rax
    cc71:	48 89 85 38 fa ff ff 	mov    %rax,-0x5c8(%rbp)
    cc78:	48 c7 85 40 fa ff ff 	movq   $0x0,-0x5c0(%rbp)
    cc7f:	00 00 00 00 
    cc83:	48 8d 05 b2 f3 00 00 	lea    0xf3b2(%rip),%rax        # 1c03c <g_58>
    cc8a:	48 89 85 48 fa ff ff 	mov    %rax,-0x5b8(%rbp)
    cc91:	48 c7 85 50 fa ff ff 	movq   $0x0,-0x5b0(%rbp)
    cc98:	00 00 00 00 
    cc9c:	48 8d 85 40 f2 ff ff 	lea    -0xdc0(%rbp),%rax
    cca3:	48 05 d8 00 00 00    	add    $0xd8,%rax
    cca9:	48 89 85 58 fa ff ff 	mov    %rax,-0x5a8(%rbp)
    ccb0:	48 8d 85 c4 ec ff ff 	lea    -0x133c(%rbp),%rax
    ccb7:	48 89 85 60 fa ff ff 	mov    %rax,-0x5a0(%rbp)
    ccbe:	48 c7 85 68 fa ff ff 	movq   $0x0,-0x598(%rbp)
    ccc5:	00 00 00 00 
    ccc9:	48 8d 85 40 f2 ff ff 	lea    -0xdc0(%rbp),%rax
    ccd0:	48 05 d8 00 00 00    	add    $0xd8,%rax
    ccd6:	48 89 85 70 fa ff ff 	mov    %rax,-0x590(%rbp)
    ccdd:	48 8d 85 b0 ec ff ff 	lea    -0x1350(%rbp),%rax
    cce4:	48 89 85 78 fa ff ff 	mov    %rax,-0x588(%rbp)
    cceb:	48 8d 85 40 f2 ff ff 	lea    -0xdc0(%rbp),%rax
    ccf2:	48 83 c0 34          	add    $0x34,%rax
    ccf6:	48 89 85 80 fa ff ff 	mov    %rax,-0x580(%rbp)
    ccfd:	48 8d 85 b0 ec ff ff 	lea    -0x1350(%rbp),%rax
    cd04:	48 89 85 88 fa ff ff 	mov    %rax,-0x578(%rbp)
    cd0b:	48 8d 85 b0 ec ff ff 	lea    -0x1350(%rbp),%rax
    cd12:	48 89 85 90 fa ff ff 	mov    %rax,-0x570(%rbp)
    cd19:	48 8d 05 1c f3 00 00 	lea    0xf31c(%rip),%rax        # 1c03c <g_58>
    cd20:	48 89 85 98 fa ff ff 	mov    %rax,-0x568(%rbp)
    cd27:	48 c7 85 a0 fa ff ff 	movq   $0x0,-0x560(%rbp)
    cd2e:	00 00 00 00 
    cd32:	48 8d 85 b0 ec ff ff 	lea    -0x1350(%rbp),%rax
    cd39:	48 89 85 a8 fa ff ff 	mov    %rax,-0x558(%rbp)
    cd40:	48 c7 85 b0 fa ff ff 	movq   $0x0,-0x550(%rbp)
    cd47:	00 00 00 00 
    cd4b:	48 8d 85 b0 ec ff ff 	lea    -0x1350(%rbp),%rax
    cd52:	48 89 85 b8 fa ff ff 	mov    %rax,-0x548(%rbp)
    cd59:	48 8d 85 c4 ec ff ff 	lea    -0x133c(%rbp),%rax
    cd60:	48 89 85 c0 fa ff ff 	mov    %rax,-0x540(%rbp)
    cd67:	48 8d 05 ce f2 00 00 	lea    0xf2ce(%rip),%rax        # 1c03c <g_58>
    cd6e:	48 89 85 c8 fa ff ff 	mov    %rax,-0x538(%rbp)
    cd75:	48 c7 85 d0 fa ff ff 	movq   $0x0,-0x530(%rbp)
    cd7c:	00 00 00 00 
    cd80:	48 c7 85 d8 fa ff ff 	movq   $0x0,-0x528(%rbp)
    cd87:	00 00 00 00 
    cd8b:	48 8d 85 c4 ec ff ff 	lea    -0x133c(%rbp),%rax
    cd92:	48 89 85 e0 fa ff ff 	mov    %rax,-0x520(%rbp)
    cd99:	48 8d 05 9c f2 00 00 	lea    0xf29c(%rip),%rax        # 1c03c <g_58>
    cda0:	48 89 85 e8 fa ff ff 	mov    %rax,-0x518(%rbp)
    cda7:	48 8d 85 b0 ec ff ff 	lea    -0x1350(%rbp),%rax
    cdae:	48 89 85 f0 fa ff ff 	mov    %rax,-0x510(%rbp)
    cdb5:	48 8d 85 40 f2 ff ff 	lea    -0xdc0(%rbp),%rax
    cdbc:	48 83 c0 58          	add    $0x58,%rax
    cdc0:	48 89 85 f8 fa ff ff 	mov    %rax,-0x508(%rbp)
    cdc7:	48 c7 85 00 fb ff ff 	movq   $0x0,-0x500(%rbp)
    cdce:	00 00 00 00 
    cdd2:	48 8d 05 5f f2 00 00 	lea    0xf25f(%rip),%rax        # 1c038 <g_53>
    cdd9:	48 89 85 08 fb ff ff 	mov    %rax,-0x4f8(%rbp)
    cde0:	48 c7 85 10 fb ff ff 	movq   $0x0,-0x4f0(%rbp)
    cde7:	00 00 00 00 
    cdeb:	48 8d 05 4a f2 00 00 	lea    0xf24a(%rip),%rax        # 1c03c <g_58>
    cdf2:	48 89 85 18 fb ff ff 	mov    %rax,-0x4e8(%rbp)
    cdf9:	48 8d 05 38 f2 00 00 	lea    0xf238(%rip),%rax        # 1c038 <g_53>
    ce00:	48 89 85 20 fb ff ff 	mov    %rax,-0x4e0(%rbp)
    ce07:	48 c7 85 28 fb ff ff 	movq   $0x0,-0x4d8(%rbp)
    ce0e:	00 00 00 00 
    ce12:	48 8d 85 40 f2 ff ff 	lea    -0xdc0(%rbp),%rax
    ce19:	48 05 a4 00 00 00    	add    $0xa4,%rax
    ce1f:	48 89 85 30 fb ff ff 	mov    %rax,-0x4d0(%rbp)
    ce26:	48 8d 85 40 f2 ff ff 	lea    -0xdc0(%rbp),%rax
    ce2d:	48 83 c0 34          	add    $0x34,%rax
    ce31:	48 89 85 38 fb ff ff 	mov    %rax,-0x4c8(%rbp)
    ce38:	48 8d 85 40 f2 ff ff 	lea    -0xdc0(%rbp),%rax
    ce3f:	48 83 c0 34          	add    $0x34,%rax
    ce43:	48 89 85 40 fb ff ff 	mov    %rax,-0x4c0(%rbp)
    ce4a:	48 8d 05 e7 f1 00 00 	lea    0xf1e7(%rip),%rax        # 1c038 <g_53>
    ce51:	48 89 85 48 fb ff ff 	mov    %rax,-0x4b8(%rbp)
    ce58:	48 8d 85 c4 ec ff ff 	lea    -0x133c(%rbp),%rax
    ce5f:	48 89 85 50 fb ff ff 	mov    %rax,-0x4b0(%rbp)
    ce66:	48 c7 85 58 fb ff ff 	movq   $0x0,-0x4a8(%rbp)
    ce6d:	00 00 00 00 
    ce71:	48 8d 85 40 f2 ff ff 	lea    -0xdc0(%rbp),%rax
    ce78:	48 05 b8 00 00 00    	add    $0xb8,%rax
    ce7e:	48 89 85 60 fb ff ff 	mov    %rax,-0x4a0(%rbp)
    ce85:	48 c7 85 68 fb ff ff 	movq   $0x0,-0x498(%rbp)
    ce8c:	00 00 00 00 
    ce90:	48 c7 85 70 fb ff ff 	movq   $0x0,-0x490(%rbp)
    ce97:	00 00 00 00 
    ce9b:	48 8d 05 9a f1 00 00 	lea    0xf19a(%rip),%rax        # 1c03c <g_58>
    cea2:	48 89 85 78 fb ff ff 	mov    %rax,-0x488(%rbp)
    cea9:	48 8d 85 40 f2 ff ff 	lea    -0xdc0(%rbp),%rax
    ceb0:	48 83 c0 70          	add    $0x70,%rax
    ceb4:	48 89 85 80 fb ff ff 	mov    %rax,-0x480(%rbp)
    cebb:	48 8d 85 40 f2 ff ff 	lea    -0xdc0(%rbp),%rax
    cec2:	48 83 c0 34          	add    $0x34,%rax
    cec6:	48 89 85 88 fb ff ff 	mov    %rax,-0x478(%rbp)
    cecd:	48 c7 85 90 fb ff ff 	movq   $0x0,-0x470(%rbp)
    ced4:	00 00 00 00 
    ced8:	48 8d 05 59 f1 00 00 	lea    0xf159(%rip),%rax        # 1c038 <g_53>
    cedf:	48 89 85 98 fb ff ff 	mov    %rax,-0x468(%rbp)
    cee6:	48 8d 05 4f f1 00 00 	lea    0xf14f(%rip),%rax        # 1c03c <g_58>
    ceed:	48 89 85 a0 fb ff ff 	mov    %rax,-0x460(%rbp)
    cef4:	48 8d 05 3d f1 00 00 	lea    0xf13d(%rip),%rax        # 1c038 <g_53>
    cefb:	48 89 85 a8 fb ff ff 	mov    %rax,-0x458(%rbp)
    cf02:	48 8d 85 40 f2 ff ff 	lea    -0xdc0(%rbp),%rax
    cf09:	48 83 c0 24          	add    $0x24,%rax
    cf0d:	48 89 85 b0 fb ff ff 	mov    %rax,-0x450(%rbp)
    cf14:	48 c7 85 b8 fb ff ff 	movq   $0x0,-0x448(%rbp)
    cf1b:	00 00 00 00 
    cf1f:	48 8d 85 40 f2 ff ff 	lea    -0xdc0(%rbp),%rax
    cf26:	48 83 c0 24          	add    $0x24,%rax
    cf2a:	48 89 85 c0 fb ff ff 	mov    %rax,-0x440(%rbp)
    cf31:	48 8d 85 40 f2 ff ff 	lea    -0xdc0(%rbp),%rax
    cf38:	48 83 c0 34          	add    $0x34,%rax
    cf3c:	48 89 85 c8 fb ff ff 	mov    %rax,-0x438(%rbp)
    cf43:	48 8d 05 f2 f0 00 00 	lea    0xf0f2(%rip),%rax        # 1c03c <g_58>
    cf4a:	48 89 85 d0 fb ff ff 	mov    %rax,-0x430(%rbp)
    cf51:	48 8d 05 e4 f0 00 00 	lea    0xf0e4(%rip),%rax        # 1c03c <g_58>
    cf58:	48 89 85 d8 fb ff ff 	mov    %rax,-0x428(%rbp)
    cf5f:	48 8d 05 d6 f0 00 00 	lea    0xf0d6(%rip),%rax        # 1c03c <g_58>
    cf66:	48 89 85 e0 fb ff ff 	mov    %rax,-0x420(%rbp)
    cf6d:	48 c7 85 e8 fb ff ff 	movq   $0x0,-0x418(%rbp)
    cf74:	00 00 00 00 
    cf78:	48 8d 85 40 f2 ff ff 	lea    -0xdc0(%rbp),%rax
    cf7f:	48 83 c0 34          	add    $0x34,%rax
    cf83:	48 89 85 f0 fb ff ff 	mov    %rax,-0x410(%rbp)
    cf8a:	48 8d 85 40 f2 ff ff 	lea    -0xdc0(%rbp),%rax
    cf91:	48 83 c0 24          	add    $0x24,%rax
    cf95:	48 89 85 f8 fb ff ff 	mov    %rax,-0x408(%rbp)
    cf9c:	48 8d 05 99 f0 00 00 	lea    0xf099(%rip),%rax        # 1c03c <g_58>
    cfa3:	48 89 85 00 fc ff ff 	mov    %rax,-0x400(%rbp)
    cfaa:	48 8d 05 8b f0 00 00 	lea    0xf08b(%rip),%rax        # 1c03c <g_58>
    cfb1:	48 89 85 08 fc ff ff 	mov    %rax,-0x3f8(%rbp)
    cfb8:	48 8d 85 b0 ec ff ff 	lea    -0x1350(%rbp),%rax
    cfbf:	48 89 85 10 fc ff ff 	mov    %rax,-0x3f0(%rbp)
    cfc6:	48 c7 85 18 fc ff ff 	movq   $0x0,-0x3e8(%rbp)
    cfcd:	00 00 00 00 
    cfd1:	48 8d 05 64 f0 00 00 	lea    0xf064(%rip),%rax        # 1c03c <g_58>
    cfd8:	48 89 85 20 fc ff ff 	mov    %rax,-0x3e0(%rbp)
    cfdf:	48 8d 85 b0 ec ff ff 	lea    -0x1350(%rbp),%rax
    cfe6:	48 89 85 28 fc ff ff 	mov    %rax,-0x3d8(%rbp)
    cfed:	48 8d 85 40 f2 ff ff 	lea    -0xdc0(%rbp),%rax
    cff4:	48 83 c0 34          	add    $0x34,%rax
    cff8:	48 89 85 30 fc ff ff 	mov    %rax,-0x3d0(%rbp)
    cfff:	48 8d 85 b0 ec ff ff 	lea    -0x1350(%rbp),%rax
    d006:	48 89 85 38 fc ff ff 	mov    %rax,-0x3c8(%rbp)
    d00d:	48 8d 05 28 f0 00 00 	lea    0xf028(%rip),%rax        # 1c03c <g_58>
    d014:	48 89 85 40 fc ff ff 	mov    %rax,-0x3c0(%rbp)
    d01b:	48 c7 85 48 fc ff ff 	movq   $0x0,-0x3b8(%rbp)
    d022:	00 00 00 00 
    d026:	48 8d 05 0f f0 00 00 	lea    0xf00f(%rip),%rax        # 1c03c <g_58>
    d02d:	48 89 85 50 fc ff ff 	mov    %rax,-0x3b0(%rbp)
    d034:	48 c7 85 58 fc ff ff 	movq   $0x0,-0x3a8(%rbp)
    d03b:	00 00 00 00 
    d03f:	48 8d 85 40 f2 ff ff 	lea    -0xdc0(%rbp),%rax
    d046:	48 83 c0 24          	add    $0x24,%rax
    d04a:	48 89 85 60 fc ff ff 	mov    %rax,-0x3a0(%rbp)
    d051:	48 8d 85 b0 ec ff ff 	lea    -0x1350(%rbp),%rax
    d058:	48 89 85 68 fc ff ff 	mov    %rax,-0x398(%rbp)
    d05f:	48 8d 85 40 f2 ff ff 	lea    -0xdc0(%rbp),%rax
    d066:	48 83 c0 24          	add    $0x24,%rax
    d06a:	48 89 85 70 fc ff ff 	mov    %rax,-0x390(%rbp)
    d071:	48 8d 85 b0 ec ff ff 	lea    -0x1350(%rbp),%rax
    d078:	48 89 85 78 fc ff ff 	mov    %rax,-0x388(%rbp)
    d07f:	48 8d 05 b6 ef 00 00 	lea    0xefb6(%rip),%rax        # 1c03c <g_58>
    d086:	48 89 85 80 fc ff ff 	mov    %rax,-0x380(%rbp)
    d08d:	48 8d 85 40 f2 ff ff 	lea    -0xdc0(%rbp),%rax
    d094:	48 83 c0 34          	add    $0x34,%rax
    d098:	48 89 85 88 fc ff ff 	mov    %rax,-0x378(%rbp)
    d09f:	48 c7 85 90 fc ff ff 	movq   $0x0,-0x370(%rbp)
    d0a6:	00 00 00 00 
    d0aa:	48 8d 85 40 f2 ff ff 	lea    -0xdc0(%rbp),%rax
    d0b1:	48 05 d8 00 00 00    	add    $0xd8,%rax
    d0b7:	48 89 85 98 fc ff ff 	mov    %rax,-0x368(%rbp)
    d0be:	48 8d 85 40 f2 ff ff 	lea    -0xdc0(%rbp),%rax
    d0c5:	48 83 c0 70          	add    $0x70,%rax
    d0c9:	48 89 85 a0 fc ff ff 	mov    %rax,-0x360(%rbp)
    d0d0:	48 8d 85 c4 ec ff ff 	lea    -0x133c(%rbp),%rax
    d0d7:	48 89 85 a8 fc ff ff 	mov    %rax,-0x358(%rbp)
    d0de:	48 c7 85 b0 fc ff ff 	movq   $0x0,-0x350(%rbp)
    d0e5:	00 00 00 00 
    d0e9:	48 8d 85 c4 ec ff ff 	lea    -0x133c(%rbp),%rax
    d0f0:	48 89 85 b8 fc ff ff 	mov    %rax,-0x348(%rbp)
    d0f7:	48 8d 85 40 f2 ff ff 	lea    -0xdc0(%rbp),%rax
    d0fe:	48 05 b8 00 00 00    	add    $0xb8,%rax
    d104:	48 89 85 c0 fc ff ff 	mov    %rax,-0x340(%rbp)
    d10b:	48 c7 85 c8 fc ff ff 	movq   $0x0,-0x338(%rbp)
    d112:	00 00 00 00 
    d116:	48 8d 85 c4 ec ff ff 	lea    -0x133c(%rbp),%rax
    d11d:	48 89 85 d0 fc ff ff 	mov    %rax,-0x330(%rbp)
    d124:	48 8d 85 b0 ec ff ff 	lea    -0x1350(%rbp),%rax
    d12b:	48 89 85 d8 fc ff ff 	mov    %rax,-0x328(%rbp)
    d132:	48 8d 85 40 f2 ff ff 	lea    -0xdc0(%rbp),%rax
    d139:	48 83 c0 34          	add    $0x34,%rax
    d13d:	48 89 85 e0 fc ff ff 	mov    %rax,-0x320(%rbp)
    d144:	48 8d 85 b0 ec ff ff 	lea    -0x1350(%rbp),%rax
    d14b:	48 89 85 e8 fc ff ff 	mov    %rax,-0x318(%rbp)
    d152:	48 8d 85 40 f2 ff ff 	lea    -0xdc0(%rbp),%rax
    d159:	48 05 a4 00 00 00    	add    $0xa4,%rax
    d15f:	48 89 85 f0 fc ff ff 	mov    %rax,-0x310(%rbp)
    d166:	48 8d 05 cf ee 00 00 	lea    0xeecf(%rip),%rax        # 1c03c <g_58>
    d16d:	48 89 85 f8 fc ff ff 	mov    %rax,-0x308(%rbp)
    d174:	48 8d 05 bd ee 00 00 	lea    0xeebd(%rip),%rax        # 1c038 <g_53>
    d17b:	48 89 85 00 fd ff ff 	mov    %rax,-0x300(%rbp)
    d182:	48 c7 85 08 fd ff ff 	movq   $0x0,-0x2f8(%rbp)
    d189:	00 00 00 00 
    d18d:	48 c7 85 10 fd ff ff 	movq   $0x0,-0x2f0(%rbp)
    d194:	00 00 00 00 
    d198:	48 8d 85 40 f2 ff ff 	lea    -0xdc0(%rbp),%rax
    d19f:	48 83 c0 34          	add    $0x34,%rax
    d1a3:	48 89 85 18 fd ff ff 	mov    %rax,-0x2e8(%rbp)
    d1aa:	48 c7 85 20 fd ff ff 	movq   $0x0,-0x2e0(%rbp)
    d1b1:	00 00 00 00 
    d1b5:	48 8d 05 80 ee 00 00 	lea    0xee80(%rip),%rax        # 1c03c <g_58>
    d1bc:	48 89 85 28 fd ff ff 	mov    %rax,-0x2d8(%rbp)
    d1c3:	48 8d 85 b0 ec ff ff 	lea    -0x1350(%rbp),%rax
    d1ca:	48 89 85 30 fd ff ff 	mov    %rax,-0x2d0(%rbp)
    d1d1:	48 c7 85 38 fd ff ff 	movq   $0x0,-0x2c8(%rbp)
    d1d8:	00 00 00 00 
    d1dc:	48 8d 85 c4 ec ff ff 	lea    -0x133c(%rbp),%rax
    d1e3:	48 89 85 40 fd ff ff 	mov    %rax,-0x2c0(%rbp)
    d1ea:	48 c7 85 48 fd ff ff 	movq   $0x0,-0x2b8(%rbp)
    d1f1:	00 00 00 00 
    d1f5:	48 c7 85 50 fd ff ff 	movq   $0x0,-0x2b0(%rbp)
    d1fc:	00 00 00 00 
    d200:	48 8d 85 40 f2 ff ff 	lea    -0xdc0(%rbp),%rax
    d207:	48 83 c0 58          	add    $0x58,%rax
    d20b:	48 89 85 58 fd ff ff 	mov    %rax,-0x2a8(%rbp)
    d212:	48 8d 85 c4 ec ff ff 	lea    -0x133c(%rbp),%rax
    d219:	48 89 85 60 fd ff ff 	mov    %rax,-0x2a0(%rbp)
    d220:	48 c7 85 68 fd ff ff 	movq   $0x0,-0x298(%rbp)
    d227:	00 00 00 00 
    d22b:	48 c7 85 70 fd ff ff 	movq   $0x0,-0x290(%rbp)
    d232:	00 00 00 00 
    d236:	48 c7 85 78 fd ff ff 	movq   $0x0,-0x288(%rbp)
    d23d:	00 00 00 00 
    d241:	48 c7 85 80 fd ff ff 	movq   $0x0,-0x280(%rbp)
    d248:	00 00 00 00 
    d24c:	48 c7 85 88 fd ff ff 	movq   $0x0,-0x278(%rbp)
    d253:	00 00 00 00 
    d257:	48 8d 85 b0 ec ff ff 	lea    -0x1350(%rbp),%rax
    d25e:	48 89 85 90 fd ff ff 	mov    %rax,-0x270(%rbp)
    d265:	48 c7 85 98 fd ff ff 	movq   $0x0,-0x268(%rbp)
    d26c:	00 00 00 00 
    d270:	48 8d 85 40 f2 ff ff 	lea    -0xdc0(%rbp),%rax
    d277:	48 83 c0 34          	add    $0x34,%rax
    d27b:	48 89 85 a0 fd ff ff 	mov    %rax,-0x260(%rbp)
    d282:	48 8d 05 b3 ed 00 00 	lea    0xedb3(%rip),%rax        # 1c03c <g_58>
    d289:	48 89 85 a8 fd ff ff 	mov    %rax,-0x258(%rbp)
    d290:	48 8d 85 40 f2 ff ff 	lea    -0xdc0(%rbp),%rax
    d297:	48 05 d8 00 00 00    	add    $0xd8,%rax
    d29d:	48 89 85 b0 fd ff ff 	mov    %rax,-0x250(%rbp)
    d2a4:	48 c7 85 b8 fd ff ff 	movq   $0x0,-0x248(%rbp)
    d2ab:	00 00 00 00 
    d2af:	48 8d 85 c4 ec ff ff 	lea    -0x133c(%rbp),%rax
    d2b6:	48 89 85 c0 fd ff ff 	mov    %rax,-0x240(%rbp)
    d2bd:	48 8d 85 40 f2 ff ff 	lea    -0xdc0(%rbp),%rax
    d2c4:	48 83 c0 34          	add    $0x34,%rax
    d2c8:	48 89 85 c8 fd ff ff 	mov    %rax,-0x238(%rbp)
    d2cf:	48 c7 85 d0 fd ff ff 	movq   $0x0,-0x230(%rbp)
    d2d6:	00 00 00 00 
    d2da:	48 8d 85 b0 ec ff ff 	lea    -0x1350(%rbp),%rax
    d2e1:	48 89 85 d8 fd ff ff 	mov    %rax,-0x228(%rbp)
    d2e8:	48 c7 85 e0 fd ff ff 	movq   $0x0,-0x220(%rbp)
    d2ef:	00 00 00 00 
    d2f3:	48 8d 85 40 f2 ff ff 	lea    -0xdc0(%rbp),%rax
    d2fa:	48 83 c0 34          	add    $0x34,%rax
    d2fe:	48 89 85 e8 fd ff ff 	mov    %rax,-0x218(%rbp)
    d305:	48 8d 85 40 f2 ff ff 	lea    -0xdc0(%rbp),%rax
    d30c:	48 83 c0 34          	add    $0x34,%rax
    d310:	48 89 85 f0 fd ff ff 	mov    %rax,-0x210(%rbp)
    d317:	48 c7 85 f8 fd ff ff 	movq   $0x0,-0x208(%rbp)
    d31e:	00 00 00 00 
    d322:	48 8d 05 13 ed 00 00 	lea    0xed13(%rip),%rax        # 1c03c <g_58>
    d329:	48 89 85 00 fe ff ff 	mov    %rax,-0x200(%rbp)
    d330:	48 8d 05 05 ed 00 00 	lea    0xed05(%rip),%rax        # 1c03c <g_58>
    d337:	48 89 85 08 fe ff ff 	mov    %rax,-0x1f8(%rbp)
    d33e:	48 8d 85 40 f2 ff ff 	lea    -0xdc0(%rbp),%rax
    d345:	48 83 c0 58          	add    $0x58,%rax
    d349:	48 89 85 10 fe ff ff 	mov    %rax,-0x1f0(%rbp)
    d350:	48 c7 85 18 fe ff ff 	movq   $0x0,-0x1e8(%rbp)
    d357:	00 00 00 00 
    d35b:	48 8d 05 d6 ec 00 00 	lea    0xecd6(%rip),%rax        # 1c038 <g_53>
    d362:	48 89 85 20 fe ff ff 	mov    %rax,-0x1e0(%rbp)
    d369:	48 c7 85 28 fe ff ff 	movq   $0x0,-0x1d8(%rbp)
    d370:	00 00 00 00 
    d374:	48 8d 05 c1 ec 00 00 	lea    0xecc1(%rip),%rax        # 1c03c <g_58>
    d37b:	48 89 85 30 fe ff ff 	mov    %rax,-0x1d0(%rbp)
    d382:	48 c7 85 38 fe ff ff 	movq   $0x0,-0x1c8(%rbp)
    d389:	00 00 00 00 
    d38d:	48 8d 85 b0 ec ff ff 	lea    -0x1350(%rbp),%rax
    d394:	48 89 85 40 fe ff ff 	mov    %rax,-0x1c0(%rbp)
    d39b:	48 c7 85 48 fe ff ff 	movq   $0x0,-0x1b8(%rbp)
    d3a2:	00 00 00 00 
    d3a6:	48 c7 85 50 fe ff ff 	movq   $0x0,-0x1b0(%rbp)
    d3ad:	00 00 00 00 
    d3b1:	48 8d 85 40 f2 ff ff 	lea    -0xdc0(%rbp),%rax
    d3b8:	48 83 c0 58          	add    $0x58,%rax
    d3bc:	48 89 85 58 fe ff ff 	mov    %rax,-0x1a8(%rbp)
    d3c3:	48 8d 05 72 ec 00 00 	lea    0xec72(%rip),%rax        # 1c03c <g_58>
    d3ca:	48 89 85 60 fe ff ff 	mov    %rax,-0x1a0(%rbp)
    d3d1:	48 c7 85 68 fe ff ff 	movq   $0x0,-0x198(%rbp)
    d3d8:	00 00 00 00 
    d3dc:	48 8d 85 b0 ec ff ff 	lea    -0x1350(%rbp),%rax
    d3e3:	48 89 85 70 fe ff ff 	mov    %rax,-0x190(%rbp)
    d3ea:	48 c7 85 78 fe ff ff 	movq   $0x0,-0x188(%rbp)
    d3f1:	00 00 00 00 
    d3f5:	48 8d 85 c4 ec ff ff 	lea    -0x133c(%rbp),%rax
    d3fc:	48 89 85 80 fe ff ff 	mov    %rax,-0x180(%rbp)
    d403:	48 8d 05 32 ec 00 00 	lea    0xec32(%rip),%rax        # 1c03c <g_58>
    d40a:	48 89 85 88 fe ff ff 	mov    %rax,-0x178(%rbp)
    d411:	48 8d 85 40 f2 ff ff 	lea    -0xdc0(%rbp),%rax
    d418:	48 83 c0 34          	add    $0x34,%rax
    d41c:	48 89 85 90 fe ff ff 	mov    %rax,-0x170(%rbp)
    d423:	48 8d 85 40 f2 ff ff 	lea    -0xdc0(%rbp),%rax
    d42a:	48 83 c0 34          	add    $0x34,%rax
    d42e:	48 89 85 98 fe ff ff 	mov    %rax,-0x168(%rbp)
    d435:	48 8d 85 b0 ec ff ff 	lea    -0x1350(%rbp),%rax
    d43c:	48 89 85 a0 fe ff ff 	mov    %rax,-0x160(%rbp)
    d443:	48 c7 85 a8 fe ff ff 	movq   $0x0,-0x158(%rbp)
    d44a:	00 00 00 00 
    d44e:	48 c7 85 b0 fe ff ff 	movq   $0x0,-0x150(%rbp)
    d455:	00 00 00 00 
    d459:	48 8d 05 dc eb 00 00 	lea    0xebdc(%rip),%rax        # 1c03c <g_58>
    d460:	48 89 85 b8 fe ff ff 	mov    %rax,-0x148(%rbp)
    d467:	48 8d 85 40 f2 ff ff 	lea    -0xdc0(%rbp),%rax
    d46e:	48 83 c0 24          	add    $0x24,%rax
    d472:	48 89 85 c0 fe ff ff 	mov    %rax,-0x140(%rbp)
    d479:	48 8d 85 b0 ec ff ff 	lea    -0x1350(%rbp),%rax
    d480:	48 89 85 c8 fe ff ff 	mov    %rax,-0x138(%rbp)
    d487:	48 8d 85 40 f2 ff ff 	lea    -0xdc0(%rbp),%rax
    d48e:	48 83 c0 58          	add    $0x58,%rax
    d492:	48 89 85 d0 fe ff ff 	mov    %rax,-0x130(%rbp)
    d499:	48 8d 85 b0 ec ff ff 	lea    -0x1350(%rbp),%rax
    d4a0:	48 89 85 d8 fe ff ff 	mov    %rax,-0x128(%rbp)
    d4a7:	48 8d 85 40 f2 ff ff 	lea    -0xdc0(%rbp),%rax
    d4ae:	48 05 d8 00 00 00    	add    $0xd8,%rax
    d4b4:	48 89 85 e0 fe ff ff 	mov    %rax,-0x120(%rbp)
    d4bb:	48 c7 85 e8 fe ff ff 	movq   $0x0,-0x118(%rbp)
    d4c2:	00 00 00 00 
    d4c6:	48 c7 85 f0 fe ff ff 	movq   $0x0,-0x110(%rbp)
    d4cd:	00 00 00 00 
    d4d1:	48 c7 85 f8 fe ff ff 	movq   $0x0,-0x108(%rbp)
    d4d8:	00 00 00 00 
    d4dc:	48 8d 85 40 f2 ff ff 	lea    -0xdc0(%rbp),%rax
    d4e3:	48 83 c0 64          	add    $0x64,%rax
    d4e7:	48 89 85 00 ff ff ff 	mov    %rax,-0x100(%rbp)
    d4ee:	48 8d 85 c4 ec ff ff 	lea    -0x133c(%rbp),%rax
    d4f5:	48 89 85 08 ff ff ff 	mov    %rax,-0xf8(%rbp)
    d4fc:	48 83 ad 78 ef ff ff 	subq   $0x1,-0x1088(%rbp)
    d503:	01 
    d504:	bf 23 c9 00 00       	mov    $0xc923,%edi
    d509:	e8 db 87 ff ff       	callq  5ce9 <safe_unary_minus_func_uint16_t_u>
    d50e:	66 85 c0             	test   %ax,%ax
    d511:	0f 84 cc 07 00 00    	je     dce3 <func_30+0x4aaa>
    d517:	48 c7 85 a0 ef ff ff 	movq   $0x0,-0x1060(%rbp)
    d51e:	00 00 00 00 
    d522:	48 c7 85 a8 ef ff ff 	movq   $0x0,-0x1058(%rbp)
    d529:	00 00 00 00 
    d52d:	48 c7 85 b0 ef ff ff 	movq   $0x0,-0x1050(%rbp)
    d534:	00 00 00 00 
    d538:	48 c7 85 b8 ef ff ff 	movq   $0x0,-0x1048(%rbp)
    d53f:	00 00 00 00 
    d543:	48 8d 85 40 f2 ff ff 	lea    -0xdc0(%rbp),%rax
    d54a:	48 83 c0 24          	add    $0x24,%rax
    d54e:	48 89 85 c0 ef ff ff 	mov    %rax,-0x1040(%rbp)
    d555:	48 8d 85 00 f0 ff ff 	lea    -0x1000(%rbp),%rax
    d55c:	48 89 85 30 f3 ff ff 	mov    %rax,-0xcd0(%rbp)
    d563:	48 8d 85 00 f0 ff ff 	lea    -0x1000(%rbp),%rax
    d56a:	48 89 85 38 f3 ff ff 	mov    %rax,-0xcc8(%rbp)
    d571:	48 8d 85 b0 ec ff ff 	lea    -0x1350(%rbp),%rax
    d578:	48 89 85 40 f3 ff ff 	mov    %rax,-0xcc0(%rbp)
    d57f:	48 8d 85 b0 ec ff ff 	lea    -0x1350(%rbp),%rax
    d586:	48 89 85 48 f3 ff ff 	mov    %rax,-0xcb8(%rbp)
    d58d:	48 8d 85 b0 ec ff ff 	lea    -0x1350(%rbp),%rax
    d594:	48 89 85 50 f3 ff ff 	mov    %rax,-0xcb0(%rbp)
    d59b:	48 8d 85 00 f0 ff ff 	lea    -0x1000(%rbp),%rax
    d5a2:	48 89 85 58 f3 ff ff 	mov    %rax,-0xca8(%rbp)
    d5a9:	48 8d 85 00 f0 ff ff 	lea    -0x1000(%rbp),%rax
    d5b0:	48 89 85 60 f3 ff ff 	mov    %rax,-0xca0(%rbp)
    d5b7:	48 8d 85 b0 ec ff ff 	lea    -0x1350(%rbp),%rax
    d5be:	48 89 85 68 f3 ff ff 	mov    %rax,-0xc98(%rbp)
    d5c5:	48 8d 85 40 f2 ff ff 	lea    -0xdc0(%rbp),%rax
    d5cc:	48 05 b8 00 00 00    	add    $0xb8,%rax
    d5d2:	48 89 85 70 f3 ff ff 	mov    %rax,-0xc90(%rbp)
    d5d9:	48 8d 85 b0 ec ff ff 	lea    -0x1350(%rbp),%rax
    d5e0:	48 89 85 78 f3 ff ff 	mov    %rax,-0xc88(%rbp)
    d5e7:	48 8d 85 b0 ec ff ff 	lea    -0x1350(%rbp),%rax
    d5ee:	48 89 85 80 f3 ff ff 	mov    %rax,-0xc80(%rbp)
    d5f5:	48 8d 85 40 f2 ff ff 	lea    -0xdc0(%rbp),%rax
    d5fc:	48 05 b8 00 00 00    	add    $0xb8,%rax
    d602:	48 89 85 88 f3 ff ff 	mov    %rax,-0xc78(%rbp)
    d609:	48 8d 05 2c ea 00 00 	lea    0xea2c(%rip),%rax        # 1c03c <g_58>
    d610:	48 89 85 90 f3 ff ff 	mov    %rax,-0xc70(%rbp)
    d617:	48 8d 85 40 f2 ff ff 	lea    -0xdc0(%rbp),%rax
    d61e:	48 05 b8 00 00 00    	add    $0xb8,%rax
    d624:	48 89 85 98 f3 ff ff 	mov    %rax,-0xc68(%rbp)
    d62b:	48 8d 85 b0 ec ff ff 	lea    -0x1350(%rbp),%rax
    d632:	48 89 85 a0 f3 ff ff 	mov    %rax,-0xc60(%rbp)
    d639:	48 8d 85 b0 ec ff ff 	lea    -0x1350(%rbp),%rax
    d640:	48 89 85 a8 f3 ff ff 	mov    %rax,-0xc58(%rbp)
    d647:	48 8d 85 b0 ec ff ff 	lea    -0x1350(%rbp),%rax
    d64e:	48 89 85 b0 f3 ff ff 	mov    %rax,-0xc50(%rbp)
    d655:	48 8d 05 e0 e9 00 00 	lea    0xe9e0(%rip),%rax        # 1c03c <g_58>
    d65c:	48 89 85 b8 f3 ff ff 	mov    %rax,-0xc48(%rbp)
    d663:	48 8d 85 b0 ec ff ff 	lea    -0x1350(%rbp),%rax
    d66a:	48 89 85 c0 f3 ff ff 	mov    %rax,-0xc40(%rbp)
    d671:	48 8d 85 b0 ec ff ff 	lea    -0x1350(%rbp),%rax
    d678:	48 89 85 c8 f3 ff ff 	mov    %rax,-0xc38(%rbp)
    d67f:	48 8d 05 b6 e9 00 00 	lea    0xe9b6(%rip),%rax        # 1c03c <g_58>
    d686:	48 89 85 d0 f3 ff ff 	mov    %rax,-0xc30(%rbp)
    d68d:	48 8d 85 b0 ec ff ff 	lea    -0x1350(%rbp),%rax
    d694:	48 89 85 d8 f3 ff ff 	mov    %rax,-0xc28(%rbp)
    d69b:	48 8d 05 9a e9 00 00 	lea    0xe99a(%rip),%rax        # 1c03c <g_58>
    d6a2:	48 89 85 e0 f3 ff ff 	mov    %rax,-0xc20(%rbp)
    d6a9:	48 8d 85 b0 ec ff ff 	lea    -0x1350(%rbp),%rax
    d6b0:	48 89 85 e8 f3 ff ff 	mov    %rax,-0xc18(%rbp)
    d6b7:	48 8d 85 40 f2 ff ff 	lea    -0xdc0(%rbp),%rax
    d6be:	48 05 b8 00 00 00    	add    $0xb8,%rax
    d6c4:	48 89 85 f0 f3 ff ff 	mov    %rax,-0xc10(%rbp)
    d6cb:	48 8d 05 6a e9 00 00 	lea    0xe96a(%rip),%rax        # 1c03c <g_58>
    d6d2:	48 89 85 f8 f3 ff ff 	mov    %rax,-0xc08(%rbp)
    d6d9:	48 8d 85 40 f2 ff ff 	lea    -0xdc0(%rbp),%rax
    d6e0:	48 05 b8 00 00 00    	add    $0xb8,%rax
    d6e6:	48 89 85 00 f4 ff ff 	mov    %rax,-0xc00(%rbp)
    d6ed:	48 8d 85 b0 ec ff ff 	lea    -0x1350(%rbp),%rax
    d6f4:	48 89 85 08 f4 ff ff 	mov    %rax,-0xbf8(%rbp)
    d6fb:	48 8d 85 b0 ec ff ff 	lea    -0x1350(%rbp),%rax
    d702:	48 89 85 10 f4 ff ff 	mov    %rax,-0xbf0(%rbp)
    d709:	48 8d 85 40 f2 ff ff 	lea    -0xdc0(%rbp),%rax
    d710:	48 05 b8 00 00 00    	add    $0xb8,%rax
    d716:	48 89 85 18 f4 ff ff 	mov    %rax,-0xbe8(%rbp)
    d71d:	48 8d 05 18 e9 00 00 	lea    0xe918(%rip),%rax        # 1c03c <g_58>
    d724:	48 89 85 20 f4 ff ff 	mov    %rax,-0xbe0(%rbp)
    d72b:	48 8d 85 40 f2 ff ff 	lea    -0xdc0(%rbp),%rax
    d732:	48 05 b8 00 00 00    	add    $0xb8,%rax
    d738:	48 89 85 28 f4 ff ff 	mov    %rax,-0xbd8(%rbp)
    d73f:	48 8d 85 00 f0 ff ff 	lea    -0x1000(%rbp),%rax
    d746:	48 89 85 30 f4 ff ff 	mov    %rax,-0xbd0(%rbp)
    d74d:	48 8d 85 b0 ec ff ff 	lea    -0x1350(%rbp),%rax
    d754:	48 89 85 38 f4 ff ff 	mov    %rax,-0xbc8(%rbp)
    d75b:	48 8d 85 b0 ec ff ff 	lea    -0x1350(%rbp),%rax
    d762:	48 89 85 40 f4 ff ff 	mov    %rax,-0xbc0(%rbp)
    d769:	48 8d 85 b0 ec ff ff 	lea    -0x1350(%rbp),%rax
    d770:	48 89 85 48 f4 ff ff 	mov    %rax,-0xbb8(%rbp)
    d777:	48 8d 85 00 f0 ff ff 	lea    -0x1000(%rbp),%rax
    d77e:	48 89 85 50 f4 ff ff 	mov    %rax,-0xbb0(%rbp)
    d785:	48 8d 85 00 f0 ff ff 	lea    -0x1000(%rbp),%rax
    d78c:	48 89 85 58 f4 ff ff 	mov    %rax,-0xba8(%rbp)
    d793:	48 8d 85 b0 ec ff ff 	lea    -0x1350(%rbp),%rax
    d79a:	48 89 85 60 f4 ff ff 	mov    %rax,-0xba0(%rbp)
    d7a1:	48 8d 85 b0 ec ff ff 	lea    -0x1350(%rbp),%rax
    d7a8:	48 89 85 68 f4 ff ff 	mov    %rax,-0xb98(%rbp)
    d7af:	48 8d 85 00 f0 ff ff 	lea    -0x1000(%rbp),%rax
    d7b6:	48 89 85 70 f4 ff ff 	mov    %rax,-0xb90(%rbp)
    d7bd:	48 8d 85 00 f0 ff ff 	lea    -0x1000(%rbp),%rax
    d7c4:	48 89 85 78 f4 ff ff 	mov    %rax,-0xb88(%rbp)
    d7cb:	48 8d 85 b0 ec ff ff 	lea    -0x1350(%rbp),%rax
    d7d2:	48 89 85 80 f4 ff ff 	mov    %rax,-0xb80(%rbp)
    d7d9:	48 8d 85 b0 ec ff ff 	lea    -0x1350(%rbp),%rax
    d7e0:	48 89 85 88 f4 ff ff 	mov    %rax,-0xb78(%rbp)
    d7e7:	48 8d 85 b0 ec ff ff 	lea    -0x1350(%rbp),%rax
    d7ee:	48 89 85 90 f4 ff ff 	mov    %rax,-0xb70(%rbp)
    d7f5:	48 8d 85 00 f0 ff ff 	lea    -0x1000(%rbp),%rax
    d7fc:	48 89 85 98 f4 ff ff 	mov    %rax,-0xb68(%rbp)
    d803:	48 8d 85 00 f0 ff ff 	lea    -0x1000(%rbp),%rax
    d80a:	48 89 85 a0 f4 ff ff 	mov    %rax,-0xb60(%rbp)
    d811:	48 8d 85 b0 ec ff ff 	lea    -0x1350(%rbp),%rax
    d818:	48 89 85 a8 f4 ff ff 	mov    %rax,-0xb58(%rbp)
    d81f:	48 8d 85 40 f2 ff ff 	lea    -0xdc0(%rbp),%rax
    d826:	48 05 b8 00 00 00    	add    $0xb8,%rax
    d82c:	48 89 85 b0 f4 ff ff 	mov    %rax,-0xb50(%rbp)
    d833:	48 8d 85 b0 ec ff ff 	lea    -0x1350(%rbp),%rax
    d83a:	48 89 85 b8 f4 ff ff 	mov    %rax,-0xb48(%rbp)
    d841:	48 8d 85 b0 ec ff ff 	lea    -0x1350(%rbp),%rax
    d848:	48 89 85 c0 f4 ff ff 	mov    %rax,-0xb40(%rbp)
    d84f:	48 8d 85 40 f2 ff ff 	lea    -0xdc0(%rbp),%rax
    d856:	48 05 b8 00 00 00    	add    $0xb8,%rax
    d85c:	48 89 85 c8 f4 ff ff 	mov    %rax,-0xb38(%rbp)
    d863:	48 8d 05 d2 e7 00 00 	lea    0xe7d2(%rip),%rax        # 1c03c <g_58>
    d86a:	48 89 85 d0 f4 ff ff 	mov    %rax,-0xb30(%rbp)
    d871:	48 8d 85 40 f2 ff ff 	lea    -0xdc0(%rbp),%rax
    d878:	48 05 b8 00 00 00    	add    $0xb8,%rax
    d87e:	48 89 85 d8 f4 ff ff 	mov    %rax,-0xb28(%rbp)
    d885:	48 8d 85 b0 ec ff ff 	lea    -0x1350(%rbp),%rax
    d88c:	48 89 85 e0 f4 ff ff 	mov    %rax,-0xb20(%rbp)
    d893:	48 8d 85 b0 ec ff ff 	lea    -0x1350(%rbp),%rax
    d89a:	48 89 85 e8 f4 ff ff 	mov    %rax,-0xb18(%rbp)
    d8a1:	48 8d 85 b0 ec ff ff 	lea    -0x1350(%rbp),%rax
    d8a8:	48 89 85 f0 f4 ff ff 	mov    %rax,-0xb10(%rbp)
    d8af:	48 8d 05 86 e7 00 00 	lea    0xe786(%rip),%rax        # 1c03c <g_58>
    d8b6:	48 89 85 f8 f4 ff ff 	mov    %rax,-0xb08(%rbp)
    d8bd:	48 8d 85 b0 ec ff ff 	lea    -0x1350(%rbp),%rax
    d8c4:	48 89 85 00 f5 ff ff 	mov    %rax,-0xb00(%rbp)
    d8cb:	48 8d 85 b0 ec ff ff 	lea    -0x1350(%rbp),%rax
    d8d2:	48 89 85 08 f5 ff ff 	mov    %rax,-0xaf8(%rbp)
    d8d9:	48 8d 05 5c e7 00 00 	lea    0xe75c(%rip),%rax        # 1c03c <g_58>
    d8e0:	48 89 85 10 f5 ff ff 	mov    %rax,-0xaf0(%rbp)
    d8e7:	48 8d 85 b0 ec ff ff 	lea    -0x1350(%rbp),%rax
    d8ee:	48 89 85 18 f5 ff ff 	mov    %rax,-0xae8(%rbp)
    d8f5:	48 8d 05 40 e7 00 00 	lea    0xe740(%rip),%rax        # 1c03c <g_58>
    d8fc:	48 89 85 20 f5 ff ff 	mov    %rax,-0xae0(%rbp)
    d903:	48 8d 85 b0 ec ff ff 	lea    -0x1350(%rbp),%rax
    d90a:	48 89 85 28 f5 ff ff 	mov    %rax,-0xad8(%rbp)
    d911:	48 8d 85 40 f2 ff ff 	lea    -0xdc0(%rbp),%rax
    d918:	48 05 b8 00 00 00    	add    $0xb8,%rax
    d91e:	48 89 85 30 f5 ff ff 	mov    %rax,-0xad0(%rbp)
    d925:	48 8d 05 10 e7 00 00 	lea    0xe710(%rip),%rax        # 1c03c <g_58>
    d92c:	48 89 85 38 f5 ff ff 	mov    %rax,-0xac8(%rbp)
    d933:	48 8d 85 40 f2 ff ff 	lea    -0xdc0(%rbp),%rax
    d93a:	48 05 b8 00 00 00    	add    $0xb8,%rax
    d940:	48 89 85 40 f5 ff ff 	mov    %rax,-0xac0(%rbp)
    d947:	48 8d 85 b0 ec ff ff 	lea    -0x1350(%rbp),%rax
    d94e:	48 89 85 48 f5 ff ff 	mov    %rax,-0xab8(%rbp)
    d955:	48 8d 85 b0 ec ff ff 	lea    -0x1350(%rbp),%rax
    d95c:	48 89 85 50 f5 ff ff 	mov    %rax,-0xab0(%rbp)
    d963:	48 8d 85 40 f2 ff ff 	lea    -0xdc0(%rbp),%rax
    d96a:	48 05 b8 00 00 00    	add    $0xb8,%rax
    d970:	48 89 85 58 f5 ff ff 	mov    %rax,-0xaa8(%rbp)
    d977:	48 8d 05 be e6 00 00 	lea    0xe6be(%rip),%rax        # 1c03c <g_58>
    d97e:	48 89 85 60 f5 ff ff 	mov    %rax,-0xaa0(%rbp)
    d985:	48 8d 85 40 f2 ff ff 	lea    -0xdc0(%rbp),%rax
    d98c:	48 05 b8 00 00 00    	add    $0xb8,%rax
    d992:	48 89 85 68 f5 ff ff 	mov    %rax,-0xa98(%rbp)
    d999:	c7 85 18 ed ff ff 01 	movl   $0x1,-0x12e8(%rbp)
    d9a0:	00 00 00 
    d9a3:	48 b8 42 f8 fa 57 f9 	movabs $0x37ca78f957faf842,%rax
    d9aa:	78 ca 37 
    d9ad:	48 89 85 c8 ef ff ff 	mov    %rax,-0x1038(%rbp)
    d9b4:	48 c7 85 d0 ef ff ff 	movq   $0x0,-0x1030(%rbp)
    d9bb:	00 00 00 00 
    d9bf:	48 8d 05 ab e6 00 00 	lea    0xe6ab(%rip),%rax        # 1c071 <g_214+0x1>
    d9c6:	48 89 85 78 ed ff ff 	mov    %rax,-0x1288(%rbp)
    d9cd:	48 8d 85 78 ed ff ff 	lea    -0x1288(%rbp),%rax
    d9d4:	48 89 85 80 ed ff ff 	mov    %rax,-0x1280(%rbp)
    d9db:	48 8d 85 80 ed ff ff 	lea    -0x1280(%rbp),%rax
    d9e2:	48 89 85 88 ed ff ff 	mov    %rax,-0x1278(%rbp)
    d9e9:	48 8d 85 88 ed ff ff 	lea    -0x1278(%rbp),%rax
    d9f0:	48 89 85 d8 ef ff ff 	mov    %rax,-0x1028(%rbp)
    d9f7:	c7 85 e0 ec ff ff 00 	movl   $0x0,-0x1320(%rbp)
    d9fe:	00 00 00 
    da01:	eb 1a                	jmp    da1d <func_30+0x47e4>
    da03:	8b 85 e0 ec ff ff    	mov    -0x1320(%rbp),%eax
    da09:	48 98                	cltq   
    da0b:	c7 84 85 00 f0 ff ff 	movl   $0xbfb64588,-0x1000(%rbp,%rax,4)
    da12:	88 45 b6 bf 
    da16:	83 85 e0 ec ff ff 01 	addl   $0x1,-0x1320(%rbp)
    da1d:	83 bd e0 ec ff ff 00 	cmpl   $0x0,-0x1320(%rbp)
    da24:	7e dd                	jle    da03 <func_30+0x47ca>
    da26:	0f b7 85 a4 ec ff ff 	movzwl -0x135c(%rbp),%eax
    da2d:	83 c0 01             	add    $0x1,%eax
    da30:	66 89 85 a4 ec ff ff 	mov    %ax,-0x135c(%rbp)
    da37:	48 8b 85 d8 ed ff ff 	mov    -0x1228(%rbp),%rax
    da3e:	48 8b 00             	mov    (%rax),%rax
    da41:	48 8b 95 68 ef ff ff 	mov    -0x1098(%rbp),%rdx
    da48:	48 89 10             	mov    %rdx,(%rax)
    da4b:	8b 85 18 ed ff ff    	mov    -0x12e8(%rbp),%eax
    da51:	f7 d0                	not    %eax
    da53:	41 89 c4             	mov    %eax,%r12d
    da56:	8b 9d 64 f2 ff ff    	mov    -0xd9c(%rbp),%ebx
    da5c:	48 8b 85 68 ef ff ff 	mov    -0x1098(%rbp),%rax
    da63:	8b 00                	mov    (%rax),%eax
    da65:	85 c0                	test   %eax,%eax
    da67:	74 1e                	je     da87 <func_30+0x484e>
    da69:	48 8b 05 60 0f 01 00 	mov    0x10f60(%rip),%rax        # 1e9d0 <g_274>
    da70:	48 8b 00             	mov    (%rax),%rax
    da73:	48 89 c6             	mov    %rax,%rsi
    da76:	bf 00 00 00 00       	mov    $0x0,%edi
    da7b:	e8 ae 85 ff ff       	callq  602e <safe_add_func_uint64_t_u_u>
    da80:	b8 01 00 00 00       	mov    $0x1,%eax
    da85:	eb 05                	jmp    da8c <func_30+0x4853>
    da87:	b8 00 00 00 00       	mov    $0x0,%eax
    da8c:	48 98                	cltq   
    da8e:	48 39 85 c8 ef ff ff 	cmp    %rax,-0x1038(%rbp)
    da95:	0f 9c c0             	setl   %al
    da98:	0f b6 c0             	movzbl %al,%eax
    da9b:	48 8b 15 2e 1b 01 00 	mov    0x11b2e(%rip),%rdx        # 1f5d0 <g_637>
    daa2:	0f b7 0a             	movzwl (%rdx),%ecx
    daa5:	0f b6 95 84 ec ff ff 	movzbl -0x137c(%rbp),%edx
    daac:	0f b6 d2             	movzbl %dl,%edx
    daaf:	66 39 d1             	cmp    %dx,%cx
    dab2:	0f 97 c2             	seta   %dl
    dab5:	0f b6 d2             	movzbl %dl,%edx
    dab8:	48 0b 95 78 ef ff ff 	or     -0x1088(%rbp),%rdx
    dabf:	48 89 c6             	mov    %rax,%rsi
    dac2:	48 89 d7             	mov    %rdx,%rdi
    dac5:	e8 de 7d ff ff       	callq  58a8 <safe_sub_func_int64_t_s_s>
    daca:	89 85 c4 ec ff ff    	mov    %eax,-0x133c(%rbp)
    dad0:	48 8b 05 f1 1b 01 00 	mov    0x11bf1(%rip),%rax        # 1f6c8 <g_1059>
    dad7:	8b 00                	mov    (%rax),%eax
    dad9:	89 de                	mov    %ebx,%esi
    dadb:	89 c7                	mov    %eax,%edi
    dadd:	e8 1d 7c ff ff       	callq  56ff <safe_div_func_int32_t_s_s>
    dae2:	41 39 c4             	cmp    %eax,%r12d
    dae5:	74 15                	je     dafc <func_30+0x48c3>
    dae7:	48 8b 05 02 0f 01 00 	mov    0x10f02(%rip),%rax        # 1e9f0 <g_457>
    daee:	48 8b 95 78 ef ff ff 	mov    -0x1088(%rbp),%rdx
    daf5:	89 10                	mov    %edx,(%rax)
    daf7:	e9 55 01 00 00       	jmpq   dc51 <func_30+0x4a18>
    dafc:	48 c7 85 e0 ef ff ff 	movq   $0x0,-0x1020(%rbp)
    db03:	00 00 00 00 
    db07:	48 8d 85 70 ed ff ff 	lea    -0x1290(%rbp),%rax
    db0e:	48 89 85 60 f1 ff ff 	mov    %rax,-0xea0(%rbp)
    db15:	48 c7 85 68 f1 ff ff 	movq   $0x0,-0xe98(%rbp)
    db1c:	00 00 00 00 
    db20:	48 c7 85 70 f1 ff ff 	movq   $0x0,-0xe90(%rbp)
    db27:	00 00 00 00 
    db2b:	48 8d 85 70 ed ff ff 	lea    -0x1290(%rbp),%rax
    db32:	48 89 85 78 f1 ff ff 	mov    %rax,-0xe88(%rbp)
    db39:	48 c7 85 80 f1 ff ff 	movq   $0x0,-0xe80(%rbp)
    db40:	00 00 00 00 
    db44:	48 c7 85 88 f1 ff ff 	movq   $0x0,-0xe78(%rbp)
    db4b:	00 00 00 00 
    db4f:	48 8d 05 9a e8 00 00 	lea    0xe89a(%rip),%rax        # 1c3f0 <g_354>
    db56:	48 89 85 e8 ef ff ff 	mov    %rax,-0x1018(%rbp)
    db5d:	c6 85 a3 ec ff ff ff 	movb   $0xff,-0x135d(%rbp)
    db64:	c7 85 1c ed ff ff 06 	movl   $0x6,-0x12e4(%rbp)
    db6b:	00 00 00 
    db6e:	48 8b 05 73 0e 01 00 	mov    0x10e73(%rip),%rax        # 1e9e8 <g_442>
    db75:	48 8b 85 68 ef ff ff 	mov    -0x1098(%rbp),%rax
    db7c:	8b 00                	mov    (%rax),%eax
    db7e:	83 f8 01             	cmp    $0x1,%eax
    db81:	40 0f 9f c6          	setg   %sil
    db85:	48 83 bd 78 ef ff ff 	cmpq   $0x0,-0x1088(%rbp)
    db8c:	00 
    db8d:	75 48                	jne    dbd7 <func_30+0x499e>
    db8f:	48 8b 05 3a 0e 01 00 	mov    0x10e3a(%rip),%rax        # 1e9d0 <g_274>
    db96:	48 8b 08             	mov    (%rax),%rcx
    db99:	48 8b 85 70 ed ff ff 	mov    -0x1290(%rbp),%rax
    dba0:	48 89 05 d1 1b 01 00 	mov    %rax,0x11bd1(%rip)        # 1f778 <g_1519+0x18>
    dba7:	48 8b 05 ca 1b 01 00 	mov    0x11bca(%rip),%rax        # 1f778 <g_1519+0x18>
    dbae:	48 8d 15 1b 26 01 00 	lea    0x1261b(%rip),%rdx        # 201d0 <g_1520>
    dbb5:	48 39 d0             	cmp    %rdx,%rax
    dbb8:	0f 95 c0             	setne  %al
    dbbb:	0f b6 d0             	movzbl %al,%edx
    dbbe:	48 8b 85 e8 ef ff ff 	mov    -0x1018(%rbp),%rax
    dbc5:	48 89 10             	mov    %rdx,(%rax)
    dbc8:	48 8b 85 e8 ef ff ff 	mov    -0x1018(%rbp),%rax
    dbcf:	48 8b 00             	mov    (%rax),%rax
    dbd2:	48 39 c1             	cmp    %rax,%rcx
    dbd5:	74 07                	je     dbde <func_30+0x49a5>
    dbd7:	b8 01 00 00 00       	mov    $0x1,%eax
    dbdc:	eb 05                	jmp    dbe3 <func_30+0x49aa>
    dbde:	b8 00 00 00 00       	mov    $0x0,%eax
    dbe3:	83 e0 01             	and    $0x1,%eax
    dbe6:	31 f0                	xor    %esi,%eax
    dbe8:	0f b6 c0             	movzbl %al,%eax
    dbeb:	be 0a 00 00 00       	mov    $0xa,%esi
    dbf0:	89 c7                	mov    %eax,%edi
    dbf2:	e8 51 82 ff ff       	callq  5e48 <safe_rshift_func_uint16_t_u_s>
    dbf7:	80 bd a3 ec ff ff 00 	cmpb   $0x0,-0x135d(%rbp)
    dbfe:	0f 9f c0             	setg   %al
    dc01:	0f b6 d0             	movzbl %al,%edx
    dc04:	48 8b 85 88 ec ff ff 	mov    -0x1378(%rbp),%rax
    dc0b:	48 8b 00             	mov    (%rax),%rax
    dc0e:	48 31 c2             	xor    %rax,%rdx
    dc11:	48 8b 05 b0 0d 01 00 	mov    0x10db0(%rip),%rax        # 1e9c8 <g_217>
    dc18:	48 8b 00             	mov    (%rax),%rax
    dc1b:	48 39 c2             	cmp    %rax,%rdx
    dc1e:	0f 97 c2             	seta   %dl
    dc21:	48 8b 85 10 ee ff ff 	mov    -0x11f0(%rbp),%rax
    dc28:	48 8b 00             	mov    (%rax),%rax
    dc2b:	48 8b 00             	mov    (%rax),%rax
    dc2e:	88 10                	mov    %dl,(%rax)
    dc30:	48 83 bd 48 ef ff ff 	cmpq   $0x0,-0x10b8(%rbp)
    dc37:	00 
    dc38:	0f 95 c0             	setne  %al
    dc3b:	0f b6 c0             	movzbl %al,%eax
    dc3e:	21 85 1c ed ff ff    	and    %eax,-0x12e4(%rbp)
    dc44:	80 bd a3 ec ff ff 00 	cmpb   $0x0,-0x135d(%rbp)
    dc4b:	0f 85 2e 07 00 00    	jne    e37f <func_30+0x5146>
    dc51:	48 8b 85 68 ef ff ff 	mov    -0x1098(%rbp),%rax
    dc58:	8b 00                	mov    (%rax),%eax
    dc5a:	48 63 d0             	movslq %eax,%rdx
    dc5d:	48 83 bd 70 ef ff ff 	cmpq   $0x0,-0x1090(%rbp)
    dc64:	00 
    dc65:	0f 94 c0             	sete   %al
    dc68:	0f b6 c0             	movzbl %al,%eax
    dc6b:	48 89 d6             	mov    %rdx,%rsi
    dc6e:	48 89 c7             	mov    %rax,%rdi
    dc71:	e8 d5 83 ff ff       	callq  604b <safe_sub_func_uint64_t_u_u>
    dc76:	48 8b 85 d8 ef ff ff 	mov    -0x1028(%rbp),%rax
    dc7d:	48 c7 00 00 00 00 00 	movq   $0x0,(%rax)
    dc84:	48 8b 85 d8 ef ff ff 	mov    -0x1028(%rbp),%rax
    dc8b:	48 8b 00             	mov    (%rax),%rax
    dc8e:	48 39 85 10 ee ff ff 	cmp    %rax,-0x11f0(%rbp)
    dc95:	0f b6 95 84 ec ff ff 	movzbl -0x137c(%rbp),%edx
    dc9c:	48 8b 05 0d 0d 01 00 	mov    0x10d0d(%rip),%rax        # 1e9b0 <g_75>
    dca3:	48 8b 00             	mov    (%rax),%rax
    dca6:	0f b6 d2             	movzbl %dl,%edx
    dca9:	89 10                	mov    %edx,(%rax)
    dcab:	48 8b 05 26 19 01 00 	mov    0x11926(%rip),%rax        # 1f5d8 <g_740>
    dcb2:	48 8b 00             	mov    (%rax),%rax
    dcb5:	0f b6 00             	movzbl (%rax),%eax
    dcb8:	0f be c0             	movsbl %al,%eax
    dcbb:	be 00 00 00 00       	mov    $0x0,%esi
    dcc0:	89 c7                	mov    %eax,%edi
    dcc2:	e8 4b 75 ff ff       	callq  5212 <safe_mul_func_int8_t_s_s>
    dcc7:	48 8b 95 c0 ef ff ff 	mov    -0x1040(%rbp),%rdx
    dcce:	8b 12                	mov    (%rdx),%edx
    dcd0:	0f be c0             	movsbl %al,%eax
    dcd3:	31 c2                	xor    %eax,%edx
    dcd5:	48 8b 85 c0 ef ff ff 	mov    -0x1040(%rbp),%rax
    dcdc:	89 10                	mov    %edx,(%rax)
    dcde:	e9 13 03 00 00       	jmpq   dff6 <func_30+0x4dbd>
    dce3:	48 b8 41 5f df b9 d9 	movabs $0x705bf6d9b9df5f41,%rax
    dcea:	f6 5b 70 
    dced:	48 89 85 98 ed ff ff 	mov    %rax,-0x1268(%rbp)
    dcf4:	c7 85 10 ed ff ff 14 	movl   $0xb593ef14,-0x12f0(%rbp)
    dcfb:	ef 93 b5 
    dcfe:	48 83 bd 78 ef ff ff 	cmpq   $0x0,-0x1088(%rbp)
    dd05:	00 
    dd06:	0f 85 9f 06 00 00    	jne    e3ab <func_30+0x5172>
    dd0c:	c7 85 b0 ec ff ff 01 	movl   $0x1,-0x1350(%rbp)
    dd13:	00 00 00 
    dd16:	e9 cb 00 00 00       	jmpq   dde6 <func_30+0x4bad>
    dd1b:	48 8d 85 40 f2 ff ff 	lea    -0xdc0(%rbp),%rax
    dd22:	48 83 c0 34          	add    $0x34,%rax
    dd26:	48 89 85 80 ef ff ff 	mov    %rax,-0x1080(%rbp)
    dd2d:	48 c7 85 88 ef ff ff 	movq   $0x0,-0x1078(%rbp)
    dd34:	00 00 00 00 
    dd38:	c7 85 e4 ec ff ff 00 	movl   $0x0,-0x131c(%rbp)
    dd3f:	00 00 00 
    dd42:	eb 19                	jmp    dd5d <func_30+0x4b24>
    dd44:	8b 85 e4 ec ff ff    	mov    -0x131c(%rbp),%eax
    dd4a:	48 98                	cltq   
    dd4c:	66 c7 84 45 30 f3 ff 	movw   $0xfffa,-0xcd0(%rbp,%rax,2)
    dd53:	ff fa ff 
    dd56:	83 85 e4 ec ff ff 01 	addl   $0x1,-0x131c(%rbp)
    dd5d:	83 bd e4 ec ff ff 08 	cmpl   $0x8,-0x131c(%rbp)
    dd64:	7e de                	jle    dd44 <func_30+0x4b0b>
    dd66:	c7 85 e4 ec ff ff 00 	movl   $0x0,-0x131c(%rbp)
    dd6d:	00 00 00 
    dd70:	eb 22                	jmp    dd94 <func_30+0x4b5b>
    dd72:	8b 85 e4 ec ff ff    	mov    -0x131c(%rbp),%eax
    dd78:	48 98                	cltq   
    dd7a:	48 8d 95 40 f2 ff ff 	lea    -0xdc0(%rbp),%rdx
    dd81:	48 83 c2 58          	add    $0x58,%rdx
    dd85:	48 89 94 c5 60 f1 ff 	mov    %rdx,-0xea0(%rbp,%rax,8)
    dd8c:	ff 
    dd8d:	83 85 e4 ec ff ff 01 	addl   $0x1,-0x131c(%rbp)
    dd94:	83 bd e4 ec ff ff 00 	cmpl   $0x0,-0x131c(%rbp)
    dd9b:	7e d5                	jle    dd72 <func_30+0x4b39>
    dd9d:	8b 85 b0 ec ff ff    	mov    -0x1350(%rbp),%eax
    dda3:	48 98                	cltq   
    dda5:	48 8d 14 85 00 00 00 	lea    0x0(,%rax,4),%rdx
    ddac:	00 
    ddad:	48 8d 05 c4 e2 00 00 	lea    0xe2c4(%rip),%rax        # 1c078 <g_244>
    ddb4:	8b 04 02             	mov    (%rdx,%rax,1),%eax
    ddb7:	85 c0                	test   %eax,%eax
    ddb9:	75 3b                	jne    ddf6 <func_30+0x4bbd>
    ddbb:	48 8b 85 c0 ed ff ff 	mov    -0x1240(%rbp),%rax
    ddc2:	48 8b 00             	mov    (%rax),%rax
    ddc5:	48 8d 95 c4 ec ff ff 	lea    -0x133c(%rbp),%rdx
    ddcc:	48 89 10             	mov    %rdx,(%rax)
    ddcf:	48 83 ad 98 ed ff ff 	subq   $0x1,-0x1268(%rbp)
    ddd6:	01 
    ddd7:	8b 85 b0 ec ff ff    	mov    -0x1350(%rbp),%eax
    dddd:	83 e8 01             	sub    $0x1,%eax
    dde0:	89 85 b0 ec ff ff    	mov    %eax,-0x1350(%rbp)
    dde6:	8b 85 b0 ec ff ff    	mov    -0x1350(%rbp),%eax
    ddec:	85 c0                	test   %eax,%eax
    ddee:	0f 89 27 ff ff ff    	jns    dd1b <func_30+0x4ae2>
    ddf4:	eb 01                	jmp    ddf7 <func_30+0x4bbe>
    ddf6:	90                   	nop
    ddf7:	c7 85 b0 ec ff ff 00 	movl   $0x0,-0x1350(%rbp)
    ddfe:	00 00 00 
    de01:	e9 a2 01 00 00       	jmpq   dfa8 <func_30+0x4d6f>
    de06:	c7 85 14 ed ff ff 5c 	movl   $0xe6b2805c,-0x12ec(%rbp)
    de0d:	80 b2 e6 
    de10:	48 8d 85 10 f0 ff ff 	lea    -0xff0(%rbp),%rax
    de17:	48 83 c0 09          	add    $0x9,%rax
    de1b:	48 89 85 90 ef ff ff 	mov    %rax,-0x1070(%rbp)
    de22:	48 8d 05 c1 e5 00 00 	lea    0xe5c1(%rip),%rax        # 1c3ea <g_330>
    de29:	48 89 85 98 ef ff ff 	mov    %rax,-0x1068(%rbp)
    de30:	48 8b 85 68 ef ff ff 	mov    -0x1098(%rbp),%rax
    de37:	8b 00                	mov    (%rax),%eax
    de39:	31 85 14 ed ff ff    	xor    %eax,-0x12ec(%rbp)
    de3f:	8b 85 74 f2 ff ff    	mov    -0xd8c(%rbp),%eax
    de45:	0f b6 d8             	movzbl %al,%ebx
    de48:	0f b7 85 a4 ec ff ff 	movzwl -0x135c(%rbp),%eax
    de4f:	41 89 c7             	mov    %eax,%r15d
    de52:	48 8b 05 77 17 01 00 	mov    0x11777(%rip),%rax        # 1f5d0 <g_637>
    de59:	0f b7 00             	movzwl (%rax),%eax
    de5c:	44 0f bf e0          	movswl %ax,%r12d
    de60:	0f b6 85 84 ec ff ff 	movzbl -0x137c(%rbp),%eax
    de67:	44 0f b6 f0          	movzbl %al,%r14d
    de6b:	48 8b 85 68 ef ff ff 	mov    -0x1098(%rbp),%rax
    de72:	8b 00                	mov    (%rax),%eax
    de74:	4c 63 e8             	movslq %eax,%r13
    de77:	0f b6 85 84 ec ff ff 	movzbl -0x137c(%rbp),%eax
    de7e:	0f b6 c0             	movzbl %al,%eax
    de81:	89 c6                	mov    %eax,%esi
    de83:	bf ff ff ff ff       	mov    $0xffffffff,%edi
    de88:	e8 46 75 ff ff       	callq  53d3 <safe_sub_func_int16_t_s_s>
    de8d:	0f bf d0             	movswl %ax,%edx
    de90:	0f b6 85 84 ec ff ff 	movzbl -0x137c(%rbp),%eax
    de97:	0f b6 c0             	movzbl %al,%eax
    de9a:	09 d0                	or     %edx,%eax
    de9c:	48 98                	cltq   
    de9e:	4c 89 ee             	mov    %r13,%rsi
    dea1:	48 89 c7             	mov    %rax,%rdi
    dea4:	e8 85 81 ff ff       	callq  602e <safe_add_func_uint64_t_u_u>
    dea9:	4c 21 f0             	and    %r14,%rax
    deac:	48 85 c0             	test   %rax,%rax
    deaf:	0f 94 c0             	sete   %al
    deb2:	0f b6 c0             	movzbl %al,%eax
    deb5:	be 0e d3 98 3d       	mov    $0x3d98d30e,%esi
    deba:	89 c7                	mov    %eax,%edi
    debc:	e8 44 77 ff ff       	callq  5605 <safe_sub_func_int32_t_s_s>
    dec1:	c7 85 10 ed ff ff 00 	movl   $0x0,-0x12f0(%rbp)
    dec8:	00 00 00 
    decb:	83 bd 10 ed ff ff 00 	cmpl   $0x0,-0x12f0(%rbp)
    ded2:	75 10                	jne    dee4 <func_30+0x4cab>
    ded4:	48 8b 05 d5 0a 01 00 	mov    0x10ad5(%rip),%rax        # 1e9b0 <g_75>
    dedb:	48 8b 00             	mov    (%rax),%rax
    dede:	8b 00                	mov    (%rax),%eax
    dee0:	85 c0                	test   %eax,%eax
    dee2:	74 07                	je     deeb <func_30+0x4cb2>
    dee4:	b8 01 00 00 00       	mov    $0x1,%eax
    dee9:	eb 05                	jmp    def0 <func_30+0x4cb7>
    deeb:	b8 00 00 00 00       	mov    $0x0,%eax
    def0:	98                   	cwtl   
    def1:	44 89 e6             	mov    %r12d,%esi
    def4:	89 c7                	mov    %eax,%edi
    def6:	e8 5a 75 ff ff       	callq  5455 <safe_div_func_int16_t_s_s>
    defb:	89 c2                	mov    %eax,%edx
    defd:	48 8b 85 90 ef ff ff 	mov    -0x1070(%rbp),%rax
    df04:	88 10                	mov    %dl,(%rax)
    df06:	48 8b 85 90 ef ff ff 	mov    -0x1070(%rbp),%rax
    df0d:	44 0f b6 20          	movzbl (%rax),%r12d
    df11:	0f b6 85 84 ec ff ff 	movzbl -0x137c(%rbp),%eax
    df18:	0f b6 c0             	movzbl %al,%eax
    df1b:	f7 d0                	not    %eax
    df1d:	0f bf d0             	movswl %ax,%edx
    df20:	0f b6 85 84 ec ff ff 	movzbl -0x137c(%rbp),%eax
    df27:	0f b6 c0             	movzbl %al,%eax
    df2a:	89 d6                	mov    %edx,%esi
    df2c:	89 c7                	mov    %eax,%edi
    df2e:	e8 22 75 ff ff       	callq  5455 <safe_div_func_int16_t_s_s>
    df33:	48 8b 85 98 ef ff ff 	mov    -0x1068(%rbp),%rax
    df3a:	0f b6 00             	movzbl (%rax),%eax
    df3d:	44 89 e2             	mov    %r12d,%edx
    df40:	21 c2                	and    %eax,%edx
    df42:	48 8b 85 98 ef ff ff 	mov    -0x1068(%rbp),%rax
    df49:	88 10                	mov    %dl,(%rax)
    df4b:	83 bd 14 ed ff ff 00 	cmpl   $0x0,-0x12ec(%rbp)
    df52:	7f 19                	jg     df6d <func_30+0x4d34>
    df54:	48 8b 05 fd 17 01 00 	mov    0x117fd(%rip),%rax        # 1f758 <g_1361>
    df5b:	48 8b 00             	mov    (%rax),%rax
    df5e:	0f b7 00             	movzwl (%rax),%eax
    df61:	66 85 c0             	test   %ax,%ax
    df64:	74 07                	je     df6d <func_30+0x4d34>
    df66:	b8 01 00 00 00       	mov    $0x1,%eax
    df6b:	eb 05                	jmp    df72 <func_30+0x4d39>
    df6d:	b8 00 00 00 00       	mov    $0x0,%eax
    df72:	0f be c0             	movsbl %al,%eax
    df75:	89 c6                	mov    %eax,%esi
    df77:	bf b0 ff ff ff       	mov    $0xffffffb0,%edi
    df7c:	e8 b0 72 ff ff       	callq  5231 <safe_mod_func_int8_t_s_s>
    df81:	44 21 f8             	and    %r15d,%eax
    df84:	0f b6 c0             	movzbl %al,%eax
    df87:	89 de                	mov    %ebx,%esi
    df89:	89 c7                	mov    %eax,%edi
    df8b:	e8 4b 7c ff ff       	callq  5bdb <safe_div_func_uint8_t_u_u>
    df90:	0f b6 c0             	movzbl %al,%eax
    df93:	89 85 bc f2 ff ff    	mov    %eax,-0xd44(%rbp)
    df99:	8b 85 b0 ec ff ff    	mov    -0x1350(%rbp),%eax
    df9f:	83 e8 01             	sub    $0x1,%eax
    dfa2:	89 85 b0 ec ff ff    	mov    %eax,-0x1350(%rbp)
    dfa8:	8b 85 b0 ec ff ff    	mov    -0x1350(%rbp),%eax
    dfae:	83 f8 ff             	cmp    $0xffffffff,%eax
    dfb1:	0f 8c 4f fe ff ff    	jl     de06 <func_30+0x4bcd>
    dfb7:	c7 05 6f e6 00 00 00 	movl   $0x0,0xe66f(%rip)        # 1c630 <g_1048>
    dfbe:	00 00 00 
    dfc1:	eb 26                	jmp    dfe9 <func_30+0x4db0>
    dfc3:	8b 05 67 e6 00 00    	mov    0xe667(%rip),%eax        # 1c630 <g_1048>
    dfc9:	48 98                	cltq   
    dfcb:	48 8d 15 9e e0 00 00 	lea    0xe09e(%rip),%rdx        # 1c070 <g_214>
    dfd2:	0f b6 04 10          	movzbl (%rax,%rdx,1),%eax
    dfd6:	84 c0                	test   %al,%al
    dfd8:	75 1b                	jne    dff5 <func_30+0x4dbc>
    dfda:	8b 05 50 e6 00 00    	mov    0xe650(%rip),%eax        # 1c630 <g_1048>
    dfe0:	83 e8 01             	sub    $0x1,%eax
    dfe3:	89 05 47 e6 00 00    	mov    %eax,0xe647(%rip)        # 1c630 <g_1048>
    dfe9:	8b 05 41 e6 00 00    	mov    0xe641(%rip),%eax        # 1c630 <g_1048>
    dfef:	85 c0                	test   %eax,%eax
    dff1:	79 d0                	jns    dfc3 <func_30+0x4d8a>
    dff3:	eb 01                	jmp    dff6 <func_30+0x4dbd>
    dff5:	90                   	nop
    dff6:	0f b6 85 84 ec ff ff 	movzbl -0x137c(%rbp),%eax
    dffd:	84 c0                	test   %al,%al
    dfff:	74 2f                	je     e030 <func_30+0x4df7>
    e001:	48 8d 05 98 17 01 00 	lea    0x11798(%rip),%rax        # 1f7a0 <g_1566>
    e008:	48 39 85 10 ee ff ff 	cmp    %rax,-0x11f0(%rbp)
    e00f:	0f 94 c0             	sete   %al
    e012:	0f b6 c0             	movzbl %al,%eax
    e015:	89 85 b8 f2 ff ff    	mov    %eax,-0xd48(%rbp)
    e01b:	0f b7 05 96 21 01 00 	movzwl 0x12196(%rip),%eax        # 201b8 <g_421>
    e022:	66 85 c0             	test   %ax,%ax
    e025:	0f 84 40 03 00 00    	je     e36b <func_30+0x5132>
    e02b:	e9 8d b8 ff ff       	jmpq   98bd <func_30+0x684>
    e030:	48 8d 05 c9 f2 00 00 	lea    0xf2c9(%rip),%rax        # 1d300 <g_1516+0x2a0>
    e037:	48 89 85 60 f1 ff ff 	mov    %rax,-0xea0(%rbp)
    e03e:	48 8d 05 19 f4 00 00 	lea    0xf419(%rip),%rax        # 1d45e <g_1516+0x3fe>
    e045:	48 89 85 68 f1 ff ff 	mov    %rax,-0xe98(%rbp)
    e04c:	48 8d 05 0b f4 00 00 	lea    0xf40b(%rip),%rax        # 1d45e <g_1516+0x3fe>
    e053:	48 89 85 70 f1 ff ff 	mov    %rax,-0xe90(%rbp)
    e05a:	48 8d 05 9f f2 00 00 	lea    0xf29f(%rip),%rax        # 1d300 <g_1516+0x2a0>
    e061:	48 89 85 78 f1 ff ff 	mov    %rax,-0xe88(%rbp)
    e068:	48 8d 05 b3 f4 00 00 	lea    0xf4b3(%rip),%rax        # 1d522 <g_1516+0x4c2>
    e06f:	48 89 85 80 f1 ff ff 	mov    %rax,-0xe80(%rbp)
    e076:	48 8d 05 83 f2 00 00 	lea    0xf283(%rip),%rax        # 1d300 <g_1516+0x2a0>
    e07d:	48 89 85 88 f1 ff ff 	mov    %rax,-0xe78(%rbp)
    e084:	48 8d 05 d3 f3 00 00 	lea    0xf3d3(%rip),%rax        # 1d45e <g_1516+0x3fe>
    e08b:	48 89 85 90 f1 ff ff 	mov    %rax,-0xe70(%rbp)
    e092:	48 8d 05 c5 f3 00 00 	lea    0xf3c5(%rip),%rax        # 1d45e <g_1516+0x3fe>
    e099:	48 89 85 98 f1 ff ff 	mov    %rax,-0xe68(%rbp)
    e0a0:	48 8d 05 59 f2 00 00 	lea    0xf259(%rip),%rax        # 1d300 <g_1516+0x2a0>
    e0a7:	48 89 85 a0 f1 ff ff 	mov    %rax,-0xe60(%rbp)
    e0ae:	48 8d 05 6d f4 00 00 	lea    0xf46d(%rip),%rax        # 1d522 <g_1516+0x4c2>
    e0b5:	48 89 85 a8 f1 ff ff 	mov    %rax,-0xe58(%rbp)
    e0bc:	c7 85 20 ed ff ff 19 	movl   $0x419a2619,-0x12e0(%rbp)
    e0c3:	26 9a 41 
    e0c6:	48 8b 05 cb 16 01 00 	mov    0x116cb(%rip),%rax        # 1f798 <g_1567>
    e0cd:	0f b6 00             	movzbl (%rax),%eax
    e0d0:	0f be c0             	movsbl %al,%eax
    e0d3:	be 05 00 00 00       	mov    $0x5,%esi
    e0d8:	89 c7                	mov    %eax,%edi
    e0da:	e8 f5 70 ff ff       	callq  51d4 <safe_add_func_int8_t_s_s>
    e0df:	84 c0                	test   %al,%al
    e0e1:	74 1a                	je     e0fd <func_30+0x4ec4>
    e0e3:	48 8d 05 4e df 00 00 	lea    0xdf4e(%rip),%rax        # 1c038 <g_53>
    e0ea:	48 89 85 f8 ef ff ff 	mov    %rax,-0x1008(%rbp)
    e0f1:	48 8b 85 f8 ef ff ff 	mov    -0x1008(%rbp),%rax
    e0f8:	e9 da 04 00 00       	jmpq   e5d7 <func_30+0x539e>
    e0fd:	48 c7 85 f0 ef ff ff 	movq   $0x0,-0x1010(%rbp)
    e104:	00 00 00 00 
    e108:	c7 85 24 ed ff ff 00 	movl   $0x0,-0x12dc(%rbp)
    e10f:	00 00 00 
    e112:	48 c7 85 30 f3 ff ff 	movq   $0x0,-0xcd0(%rbp)
    e119:	00 00 00 00 
    e11d:	48 8d 05 4c ee 00 00 	lea    0xee4c(%rip),%rax        # 1cf70 <g_1161+0x930>
    e124:	48 89 85 38 f3 ff ff 	mov    %rax,-0xcc8(%rbp)
    e12b:	48 8d 05 3e ee 00 00 	lea    0xee3e(%rip),%rax        # 1cf70 <g_1161+0x930>
    e132:	48 89 85 40 f3 ff ff 	mov    %rax,-0xcc0(%rbp)
    e139:	48 c7 85 48 f3 ff ff 	movq   $0x0,-0xcb8(%rbp)
    e140:	00 00 00 00 
    e144:	48 8d 05 fb f1 00 00 	lea    0xf1fb(%rip),%rax        # 1d346 <g_1516+0x2e6>
    e14b:	48 89 85 50 f3 ff ff 	mov    %rax,-0xcb0(%rbp)
    e152:	48 c7 85 58 f3 ff ff 	movq   $0x0,-0xca8(%rbp)
    e159:	00 00 00 00 
    e15d:	48 8d 05 0c ee 00 00 	lea    0xee0c(%rip),%rax        # 1cf70 <g_1161+0x930>
    e164:	48 89 85 60 f3 ff ff 	mov    %rax,-0xca0(%rbp)
    e16b:	48 8d 05 fe ed 00 00 	lea    0xedfe(%rip),%rax        # 1cf70 <g_1161+0x930>
    e172:	48 89 85 68 f3 ff ff 	mov    %rax,-0xc98(%rbp)
    e179:	48 c7 85 70 f3 ff ff 	movq   $0x0,-0xc90(%rbp)
    e180:	00 00 00 00 
    e184:	48 8d 05 bb f1 00 00 	lea    0xf1bb(%rip),%rax        # 1d346 <g_1516+0x2e6>
    e18b:	48 89 85 78 f3 ff ff 	mov    %rax,-0xc88(%rbp)
    e192:	48 c7 85 80 f3 ff ff 	movq   $0x0,-0xc80(%rbp)
    e199:	00 00 00 00 
    e19d:	48 8d 05 cc ed 00 00 	lea    0xedcc(%rip),%rax        # 1cf70 <g_1161+0x930>
    e1a4:	48 89 85 88 f3 ff ff 	mov    %rax,-0xc78(%rbp)
    e1ab:	48 8d 05 be ed 00 00 	lea    0xedbe(%rip),%rax        # 1cf70 <g_1161+0x930>
    e1b2:	48 89 85 90 f3 ff ff 	mov    %rax,-0xc70(%rbp)
    e1b9:	48 c7 85 98 f3 ff ff 	movq   $0x0,-0xc68(%rbp)
    e1c0:	00 00 00 00 
    e1c4:	48 8d 05 7b f1 00 00 	lea    0xf17b(%rip),%rax        # 1d346 <g_1516+0x2e6>
    e1cb:	48 89 85 a0 f3 ff ff 	mov    %rax,-0xc60(%rbp)
    e1d2:	48 c7 85 a8 f3 ff ff 	movq   $0x0,-0xc58(%rbp)
    e1d9:	00 00 00 00 
    e1dd:	48 8d 05 8c ed 00 00 	lea    0xed8c(%rip),%rax        # 1cf70 <g_1161+0x930>
    e1e4:	48 89 85 b0 f3 ff ff 	mov    %rax,-0xc50(%rbp)
    e1eb:	48 8d 05 7e ed 00 00 	lea    0xed7e(%rip),%rax        # 1cf70 <g_1161+0x930>
    e1f2:	48 89 85 b8 f3 ff ff 	mov    %rax,-0xc48(%rbp)
    e1f9:	48 c7 85 c0 f3 ff ff 	movq   $0x0,-0xc40(%rbp)
    e200:	00 00 00 00 
    e204:	48 8d 05 3b f1 00 00 	lea    0xf13b(%rip),%rax        # 1d346 <g_1516+0x2e6>
    e20b:	48 89 85 c8 f3 ff ff 	mov    %rax,-0xc38(%rbp)
    e212:	8b 05 30 de 00 00    	mov    0xde30(%rip),%eax        # 1c048 <g_83>
    e218:	01 c0                	add    %eax,%eax
    e21a:	c1 f8 0d             	sar    $0xd,%eax
    e21d:	89 c3                	mov    %eax,%ebx
    e21f:	0f b6 05 1a de 00 00 	movzbl 0xde1a(%rip),%eax        # 1c040 <g_69>
    e226:	83 e8 01             	sub    $0x1,%eax
    e229:	88 05 11 de 00 00    	mov    %al,0xde11(%rip)        # 1c040 <g_69>
    e22f:	be 07 00 00 00       	mov    $0x7,%esi
    e234:	bf 00 00 00 00       	mov    $0x0,%edi
    e239:	e8 f7 70 ff ff       	callq  5335 <safe_rshift_func_int8_t_s_s>
    e23e:	f7 d0                	not    %eax
    e240:	c0 e8 07             	shr    $0x7,%al
    e243:	0f b6 c0             	movzbl %al,%eax
    e246:	be 03 00 00 00       	mov    $0x3,%esi
    e24b:	89 c7                	mov    %eax,%edi
    e24d:	e8 a3 71 ff ff       	callq  53f5 <safe_mul_func_int16_t_s_s>
    e252:	66 3d 18 29          	cmp    $0x2918,%ax
    e256:	7e 0d                	jle    e265 <func_30+0x502c>
    e258:	48 8b 05 69 07 01 00 	mov    0x10769(%rip),%rax        # 1e9c8 <g_217>
    e25f:	48 8b 00             	mov    (%rax),%rax
    e262:	48 85 c0             	test   %rax,%rax
    e265:	8b 85 f4 f2 ff ff    	mov    -0xd0c(%rbp),%eax
    e26b:	85 c0                	test   %eax,%eax
    e26d:	be 09 00 00 00       	mov    $0x9,%esi
    e272:	bf 01 00 00 00       	mov    $0x1,%edi
    e277:	e8 16 72 ff ff       	callq  5492 <safe_lshift_func_int16_t_s_s>
    e27c:	48 8b 95 70 f1 ff ff 	mov    -0xe90(%rbp),%rdx
    e283:	48 8b 85 78 f3 ff ff 	mov    -0xc88(%rbp),%rax
    e28a:	48 39 c2             	cmp    %rax,%rdx
    e28d:	0f 95 c0             	setne  %al
    e290:	0f b6 c0             	movzbl %al,%eax
    e293:	89 de                	mov    %ebx,%esi
    e295:	89 c7                	mov    %eax,%edi
    e297:	e8 22 7a ff ff       	callq  5cbe <safe_rshift_func_uint8_t_u_u>
    e29c:	0f b6 85 84 ec ff ff 	movzbl -0x137c(%rbp),%eax
    e2a3:	0f b6 d0             	movzbl %al,%edx
    e2a6:	48 8b 85 68 ef ff ff 	mov    -0x1098(%rbp),%rax
    e2ad:	89 10                	mov    %edx,(%rax)
    e2af:	0f b6 85 84 ec ff ff 	movzbl -0x137c(%rbp),%eax
    e2b6:	84 c0                	test   %al,%al
    e2b8:	75 61                	jne    e31b <func_30+0x50e2>
    e2ba:	48 8b 05 df 06 01 00 	mov    0x106df(%rip),%rax        # 1e9a0 <g_52>
    e2c1:	0f b6 85 84 ec ff ff 	movzbl -0x137c(%rbp),%eax
    e2c8:	0f b6 d0             	movzbl %al,%edx
    e2cb:	0f b6 8d 84 ec ff ff 	movzbl -0x137c(%rbp),%ecx
    e2d2:	48 8b 05 f7 12 01 00 	mov    0x112f7(%rip),%rax        # 1f5d0 <g_637>
    e2d9:	0f b6 c9             	movzbl %cl,%ecx
    e2dc:	66 89 08             	mov    %cx,(%rax)
    e2df:	0f b6 8d 84 ec ff ff 	movzbl -0x137c(%rbp),%ecx
    e2e6:	48 8b 05 6b 14 01 00 	mov    0x1146b(%rip),%rax        # 1f758 <g_1361>
    e2ed:	48 8b 00             	mov    (%rax),%rax
    e2f0:	0f b6 c9             	movzbl %cl,%ecx
    e2f3:	66 89 08             	mov    %cx,(%rax)
    e2f6:	0f b7 00             	movzwl (%rax),%eax
    e2f9:	98                   	cwtl   
    e2fa:	89 d6                	mov    %edx,%esi
    e2fc:	89 c7                	mov    %eax,%edi
    e2fe:	e8 d0 70 ff ff       	callq  53d3 <safe_sub_func_int16_t_s_s>
    e303:	98                   	cwtl   
    e304:	be 0c 00 00 00       	mov    $0xc,%esi
    e309:	89 c7                	mov    %eax,%edi
    e30b:	e8 82 71 ff ff       	callq  5492 <safe_lshift_func_int16_t_s_s>
    e310:	98                   	cwtl   
    e311:	23 85 20 ed ff ff    	and    -0x12e0(%rbp),%eax
    e317:	85 c0                	test   %eax,%eax
    e319:	74 07                	je     e322 <func_30+0x50e9>
    e31b:	ba 01 00 00 00       	mov    $0x1,%edx
    e320:	eb 05                	jmp    e327 <func_30+0x50ee>
    e322:	ba 00 00 00 00       	mov    $0x0,%edx
    e327:	48 8b 85 68 ef ff ff 	mov    -0x1098(%rbp),%rax
    e32e:	89 10                	mov    %edx,(%rax)
    e330:	48 8b 85 68 ef ff ff 	mov    -0x1098(%rbp),%rax
    e337:	8b 10                	mov    (%rax),%edx
    e339:	8b 85 74 f2 ff ff    	mov    -0xd8c(%rbp),%eax
    e33f:	21 d0                	and    %edx,%eax
    e341:	89 85 74 f2 ff ff    	mov    %eax,-0xd8c(%rbp)
    e347:	48 8b 85 68 ef ff ff 	mov    -0x1098(%rbp),%rax
    e34e:	8b 00                	mov    (%rax),%eax
    e350:	83 e0 07             	and    $0x7,%eax
    e353:	89 c2                	mov    %eax,%edx
    e355:	48 8b 85 68 ef ff ff 	mov    -0x1098(%rbp),%rax
    e35c:	89 10                	mov    %edx,(%rax)
    e35e:	48 8b 05 3b 06 01 00 	mov    0x1063b(%rip),%rax        # 1e9a0 <g_52>
    e365:	8b 00                	mov    (%rax),%eax
    e367:	85 c0                	test   %eax,%eax
    e369:	75 13                	jne    e37e <func_30+0x5145>
    e36b:	0f b7 05 66 1e 01 00 	movzwl 0x11e66(%rip),%eax        # 201d8 <g_1594>
    e372:	83 c0 01             	add    $0x1,%eax
    e375:	66 89 05 5c 1e 01 00 	mov    %ax,0x11e5c(%rip)        # 201d8 <g_1594>
    e37c:	eb 01                	jmp    e37f <func_30+0x5146>
    e37e:	90                   	nop
    e37f:	8b 05 b7 dc 00 00    	mov    0xdcb7(%rip),%eax        # 1c03c <g_58>
    e385:	48 98                	cltq   
    e387:	be 08 00 00 00       	mov    $0x8,%esi
    e38c:	48 89 c7             	mov    %rax,%rdi
    e38f:	e8 9a 7c ff ff       	callq  602e <safe_add_func_uint64_t_u_u>
    e394:	89 05 a2 dc 00 00    	mov    %eax,0xdca2(%rip)        # 1c03c <g_58>
    e39a:	8b 05 9c dc 00 00    	mov    0xdc9c(%rip),%eax        # 1c03c <g_58>
    e3a0:	83 f8 18             	cmp    $0x18,%eax
    e3a3:	0f 85 ba e4 ff ff    	jne    c863 <func_30+0x362a>
    e3a9:	eb 01                	jmp    e3ac <func_30+0x5173>
    e3ab:	90                   	nop
    e3ac:	0f b7 05 35 e0 00 00 	movzwl 0xe035(%rip),%eax        # 1c3e8 <g_320>
    e3b3:	0f be c0             	movsbl %al,%eax
    e3b6:	be 03 00 00 00       	mov    $0x3,%esi
    e3bb:	89 c7                	mov    %eax,%edi
    e3bd:	e8 12 6e ff ff       	callq  51d4 <safe_add_func_int8_t_s_s>
    e3c2:	66 98                	cbtw   
    e3c4:	66 89 05 1d e0 00 00 	mov    %ax,0xe01d(%rip)        # 1c3e8 <g_320>
    e3cb:	0f b7 05 16 e0 00 00 	movzwl 0xe016(%rip),%eax        # 1c3e8 <g_320>
    e3d2:	66 83 f8 15          	cmp    $0x15,%ax
    e3d6:	0f 8f 6e e2 ff ff    	jg     c64a <func_30+0x3411>
    e3dc:	83 ad 08 ed ff ff 01 	subl   $0x1,-0x12f8(%rbp)
    e3e3:	48 8b 85 b8 ed ff ff 	mov    -0x1248(%rbp),%rax
    e3ea:	8b 00                	mov    (%rax),%eax
    e3ec:	0f b6 d0             	movzbl %al,%edx
    e3ef:	0f b6 85 84 ec ff ff 	movzbl -0x137c(%rbp),%eax
    e3f6:	0f b6 c0             	movzbl %al,%eax
    e3f9:	89 d6                	mov    %edx,%esi
    e3fb:	89 c7                	mov    %eax,%edi
    e3fd:	e8 91 77 ff ff       	callq  5b93 <safe_mul_func_uint8_t_u_u>
    e402:	0f b6 d0             	movzbl %al,%edx
    e405:	48 83 bd 18 ee ff ff 	cmpq   $0x0,-0x11e8(%rbp)
    e40c:	00 
    e40d:	0f 95 c0             	setne  %al
    e410:	0f b6 c0             	movzbl %al,%eax
    e413:	39 c2                	cmp    %eax,%edx
    e415:	0f 9d c0             	setge  %al
    e418:	0f b6 d8             	movzbl %al,%ebx
    e41b:	be 02 00 00 00       	mov    $0x2,%esi
    e420:	bf 88 99 00 00       	mov    $0x9988,%edi
    e425:	e8 1e 7a ff ff       	callq  5e48 <safe_rshift_func_uint16_t_u_s>
    e42a:	0f b7 c0             	movzwl %ax,%eax
    e42d:	39 c3                	cmp    %eax,%ebx
    e42f:	74 4f                	je     e480 <func_30+0x5247>
    e431:	c7 85 0c ed ff ff 01 	movl   $0x1,-0x12f4(%rbp)
    e438:	00 00 00 
    e43b:	8b 85 0c ed ff ff    	mov    -0x12f4(%rbp),%eax
    e441:	0f bf d0             	movswl %ax,%edx
    e444:	0f b6 85 84 ec ff ff 	movzbl -0x137c(%rbp),%eax
    e44b:	0f b6 c0             	movzbl %al,%eax
    e44e:	89 d6                	mov    %edx,%esi
    e450:	89 c7                	mov    %eax,%edi
    e452:	e8 bf 6f ff ff       	callq  5416 <safe_mod_func_int16_t_s_s>
    e457:	48 0f bf d0          	movswq %ax,%rdx
    e45b:	48 8b 05 6e 05 01 00 	mov    0x1056e(%rip),%rax        # 1e9d0 <g_274>
    e462:	48 8b 00             	mov    (%rax),%rax
    e465:	48 89 d6             	mov    %rdx,%rsi
    e468:	48 89 c7             	mov    %rax,%rdi
    e46b:	e8 44 75 ff ff       	callq  59b4 <safe_mod_func_int64_t_s_s>
    e470:	89 c2                	mov    %eax,%edx
    e472:	48 8b 85 b8 ed ff ff 	mov    -0x1248(%rbp),%rax
    e479:	89 10                	mov    %edx,(%rax)
    e47b:	e9 0a 01 00 00       	jmpq   e58a <func_30+0x5351>
    e480:	48 c7 85 50 ef ff ff 	movq   $0xffffffffffffffff,-0x10b0(%rbp)
    e487:	ff ff ff ff 
    e48b:	c7 85 88 ed ff ff 60 	movl   $0x251b0d60,-0x1278(%rbp)
    e492:	0d 1b 25 
    e495:	48 8b 05 34 11 01 00 	mov    0x11134(%rip),%rax        # 1f5d0 <g_637>
    e49c:	0f b7 00             	movzwl (%rax),%eax
    e49f:	0f b7 d8             	movzwl %ax,%ebx
    e4a2:	48 8b 05 2f 11 01 00 	mov    0x1112f(%rip),%rax        # 1f5d8 <g_740>
    e4a9:	48 8b 00             	mov    (%rax),%rax
    e4ac:	0f b6 00             	movzbl (%rax),%eax
    e4af:	0f be d0             	movsbl %al,%edx
    e4b2:	48 8b 05 07 05 01 00 	mov    0x10507(%rip),%rax        # 1e9c0 <g_213>
    e4b9:	0f b6 00             	movzbl (%rax),%eax
    e4bc:	0f be c0             	movsbl %al,%eax
    e4bf:	89 d6                	mov    %edx,%esi
    e4c1:	89 c7                	mov    %eax,%edi
    e4c3:	e8 69 6d ff ff       	callq  5231 <safe_mod_func_int8_t_s_s>
    e4c8:	48 8b 05 f1 04 01 00 	mov    0x104f1(%rip),%rax        # 1e9c0 <g_213>
    e4cf:	c6 00 4f             	movb   $0x4f,(%rax)
    e4d2:	48 8b 85 50 ef ff ff 	mov    -0x10b0(%rbp),%rax
    e4d9:	0f b7 d0             	movzwl %ax,%edx
    e4dc:	0f b6 85 84 ec ff ff 	movzbl -0x137c(%rbp),%eax
    e4e3:	0f b6 c0             	movzbl %al,%eax
    e4e6:	89 d6                	mov    %edx,%esi
    e4e8:	89 c7                	mov    %eax,%edi
    e4ea:	e8 4e 78 ff ff       	callq  5d3d <safe_mul_func_uint16_t_u_u>
    e4ef:	0f b7 c0             	movzwl %ax,%eax
    e4f2:	48 8b 95 50 ef ff ff 	mov    -0x10b0(%rbp),%rdx
    e4f9:	31 c2                	xor    %eax,%edx
    e4fb:	48 8b 85 b8 ed ff ff 	mov    -0x1248(%rbp),%rax
    e502:	89 10                	mov    %edx,(%rax)
    e504:	48 8b 85 b8 ed ff ff 	mov    -0x1248(%rbp),%rax
    e50b:	8b 00                	mov    (%rax),%eax
    e50d:	48 98                	cltq   
    e50f:	48 0b 85 50 ef ff ff 	or     -0x10b0(%rbp),%rax
    e516:	48 83 f8 06          	cmp    $0x6,%rax
    e51a:	0f 97 c0             	seta   %al
    e51d:	0f b6 c0             	movzbl %al,%eax
    e520:	89 c6                	mov    %eax,%esi
    e522:	bf 79 58 00 00       	mov    $0x5879,%edi
    e527:	e8 37 70 ff ff       	callq  5563 <safe_rshift_func_int16_t_s_u>
    e52c:	0f bf d0             	movswl %ax,%edx
    e52f:	0f b6 85 84 ec ff ff 	movzbl -0x137c(%rbp),%eax
    e536:	0f b6 c0             	movzbl %al,%eax
    e539:	39 c2                	cmp    %eax,%edx
    e53b:	0f 95 c0             	setne  %al
    e53e:	0f b6 c0             	movzbl %al,%eax
    e541:	89 c7                	mov    %eax,%edi
    e543:	e8 77 6c ff ff       	callq  51bf <safe_unary_minus_func_int8_t_s>
    e548:	48 0f be d0          	movsbq %al,%rdx
    e54c:	48 8b 05 7d 04 01 00 	mov    0x1047d(%rip),%rax        # 1e9d0 <g_274>
    e553:	48 8b 00             	mov    (%rax),%rax
    e556:	48 89 d6             	mov    %rdx,%rsi
    e559:	48 89 c7             	mov    %rax,%rdi
    e55c:	e8 e0 72 ff ff       	callq  5841 <safe_add_func_int64_t_s_s>
    e561:	0f b7 c0             	movzwl %ax,%eax
    e564:	89 de                	mov    %ebx,%esi
    e566:	89 c7                	mov    %eax,%edi
    e568:	e8 99 78 ff ff       	callq  5e06 <safe_lshift_func_uint16_t_u_u>
    e56d:	0f b7 c0             	movzwl %ax,%eax
    e570:	89 85 88 ed ff ff    	mov    %eax,-0x1278(%rbp)
    e576:	48 8b 85 d8 ed ff ff 	mov    -0x1228(%rbp),%rax
    e57d:	48 8b 00             	mov    (%rax),%rax
    e580:	48 8d 95 88 ed ff ff 	lea    -0x1278(%rbp),%rdx
    e587:	48 89 10             	mov    %rdx,(%rax)
    e58a:	48 8b 85 d8 ed ff ff 	mov    -0x1228(%rbp),%rax
    e591:	48 8b 00             	mov    (%rax),%rax
    e594:	48 8d 95 40 f2 ff ff 	lea    -0xdc0(%rbp),%rdx
    e59b:	48 83 c2 2c          	add    $0x2c,%rdx
    e59f:	48 89 10             	mov    %rdx,(%rax)
    e5a2:	83 85 c8 ec ff ff 01 	addl   $0x1,-0x1338(%rbp)
    e5a9:	83 bd c8 ec ff ff 28 	cmpl   $0x28,-0x1338(%rbp)
    e5b0:	0f 87 72 dd ff ff    	ja     c328 <func_30+0x30ef>
    e5b6:	48 8b 85 d8 ed ff ff 	mov    -0x1228(%rbp),%rax
    e5bd:	48 8b 00             	mov    (%rax),%rax
    e5c0:	48 8b 15 e1 11 01 00 	mov    0x111e1(%rip),%rdx        # 1f7a8 <g_1627>
    e5c7:	48 89 10             	mov    %rdx,(%rax)
    e5ca:	48 8b 85 48 ed ff ff 	mov    -0x12b8(%rbp),%rax
    e5d1:	48 8b 00             	mov    (%rax),%rax
    e5d4:	48 8b 00             	mov    (%rax),%rax
    e5d7:	48 8b 5d c8          	mov    -0x38(%rbp),%rbx
    e5db:	64 48 33 1c 25 28 00 	xor    %fs:0x28,%rbx
    e5e2:	00 00 
    e5e4:	74 05                	je     e5eb <func_30+0x53b2>
    e5e6:	e8 85 6a ff ff       	callq  5070 <__stack_chk_fail@plt>
    e5eb:	48 81 c4 58 13 00 00 	add    $0x1358,%rsp
    e5f2:	5b                   	pop    %rbx
    e5f3:	41 5c                	pop    %r12
    e5f5:	41 5d                	pop    %r13
    e5f7:	41 5e                	pop    %r14
    e5f9:	41 5f                	pop    %r15
    e5fb:	5d                   	pop    %rbp
    e5fc:	c3                   	retq   

000000000000e5fd <func_33>:
    e5fd:	f3 0f 1e fa          	endbr64 
    e601:	55                   	push   %rbp
    e602:	48 89 e5             	mov    %rsp,%rbp
    e605:	41 56                	push   %r14
    e607:	41 55                	push   %r13
    e609:	41 54                	push   %r12
    e60b:	53                   	push   %rbx
    e60c:	48 81 ec 90 00 00 00 	sub    $0x90,%rsp
    e613:	48 89 bd 68 ff ff ff 	mov    %rdi,-0x98(%rbp)
    e61a:	48 89 b5 60 ff ff ff 	mov    %rsi,-0xa0(%rbp)
    e621:	48 89 95 58 ff ff ff 	mov    %rdx,-0xa8(%rbp)
    e628:	64 48 8b 04 25 28 00 	mov    %fs:0x28,%rax
    e62f:	00 00 
    e631:	48 89 45 d8          	mov    %rax,-0x28(%rbp)
    e635:	31 c0                	xor    %eax,%eax
    e637:	48 8d 05 0e 8f 00 00 	lea    0x8f0e(%rip),%rax        # 1754c <g_1056>
    e63e:	48 89 45 80          	mov    %rax,-0x80(%rbp)
    e642:	c7 85 7c ff ff ff 3c 	movl   $0x781a653c,-0x84(%rbp)
    e649:	65 1a 78 
    e64c:	48 8d 05 03 da 00 00 	lea    0xda03(%rip),%rax        # 1c056 <g_101>
    e653:	48 89 45 88          	mov    %rax,-0x78(%rbp)
    e657:	48 8d 05 9a de 00 00 	lea    0xde9a(%rip),%rax        # 1c4f8 <g_427>
    e65e:	48 89 45 90          	mov    %rax,-0x70(%rbp)
    e662:	48 8d 05 5b dc 00 00 	lea    0xdc5b(%rip),%rax        # 1c2c4 <g_290+0x224>
    e669:	48 89 45 98          	mov    %rax,-0x68(%rbp)
    e66d:	48 b8 0b 59 05 cb c0 	movabs $0x586eccc0cb05590b,%rax
    e674:	cc 6e 58 
    e677:	48 89 45 a0          	mov    %rax,-0x60(%rbp)
    e67b:	48 8d 05 ba d9 00 00 	lea    0xd9ba(%rip),%rax        # 1c03c <g_58>
    e682:	48 89 45 a8          	mov    %rax,-0x58(%rbp)
    e686:	c7 85 78 ff ff ff 00 	movl   $0x0,-0x88(%rbp)
    e68d:	00 00 00 
    e690:	eb 18                	jmp    e6aa <func_33+0xad>
    e692:	8b 85 78 ff ff ff    	mov    -0x88(%rbp),%eax
    e698:	48 98                	cltq   
    e69a:	48 8d 55 80          	lea    -0x80(%rbp),%rdx
    e69e:	48 89 54 c5 c0       	mov    %rdx,-0x40(%rbp,%rax,8)
    e6a3:	83 85 78 ff ff ff 01 	addl   $0x1,-0x88(%rbp)
    e6aa:	83 bd 78 ff ff ff 02 	cmpl   $0x2,-0x88(%rbp)
    e6b1:	7e df                	jle    e692 <func_33+0x95>
    e6b3:	c7 85 78 ff ff ff 00 	movl   $0x0,-0x88(%rbp)
    e6ba:	00 00 00 
    e6bd:	eb 1b                	jmp    e6da <func_33+0xdd>
    e6bf:	8b 85 78 ff ff ff    	mov    -0x88(%rbp),%eax
    e6c5:	48 98                	cltq   
    e6c7:	48 8d 15 62 d9 00 00 	lea    0xd962(%rip),%rdx        # 1c030 <g_14>
    e6ce:	48 89 54 c5 b0       	mov    %rdx,-0x50(%rbp,%rax,8)
    e6d3:	83 85 78 ff ff ff 01 	addl   $0x1,-0x88(%rbp)
    e6da:	83 bd 78 ff ff ff 01 	cmpl   $0x1,-0x88(%rbp)
    e6e1:	7e dc                	jle    e6bf <func_33+0xc2>
    e6e3:	48 8b 85 60 ff ff ff 	mov    -0xa0(%rbp),%rax
    e6ea:	48 89 05 cf 0f 01 00 	mov    %rax,0x10fcf(%rip)        # 1f6c0 <g_1057>
    e6f1:	48 8b 05 c8 0f 01 00 	mov    0x10fc8(%rip),%rax        # 1f6c0 <g_1057>
    e6f8:	48 85 c0             	test   %rax,%rax
    e6fb:	0f 95 c2             	setne  %dl
    e6fe:	48 8b 05 c3 0f 01 00 	mov    0x10fc3(%rip),%rax        # 1f6c8 <g_1059>
    e705:	0f b6 d2             	movzbl %dl,%edx
    e708:	89 10                	mov    %edx,(%rax)
    e70a:	48 8b 05 bf 0e 01 00 	mov    0x10ebf(%rip),%rax        # 1f5d0 <g_637>
    e711:	0f b7 10             	movzwl (%rax),%edx
    e714:	8d 4a ff             	lea    -0x1(%rdx),%ecx
    e717:	66 89 08             	mov    %cx,(%rax)
    e71a:	44 0f b7 e2          	movzwl %dx,%r12d
    e71e:	48 8b 05 b3 0e 01 00 	mov    0x10eb3(%rip),%rax        # 1f5d8 <g_740>
    e725:	48 8b 55 88          	mov    -0x78(%rbp),%rdx
    e729:	48 89 10             	mov    %rdx,(%rax)
    e72c:	48 8b 10             	mov    (%rax),%rdx
    e72f:	48 8b 45 b8          	mov    -0x48(%rbp),%rax
    e733:	48 39 c2             	cmp    %rax,%rdx
    e736:	0f 95 c0             	setne  %al
    e739:	0f b6 d0             	movzbl %al,%edx
    e73c:	48 8b 45 90          	mov    -0x70(%rbp),%rax
    e740:	48 89 10             	mov    %rdx,(%rax)
    e743:	48 8b 45 90          	mov    -0x70(%rbp),%rax
    e747:	4c 8b 28             	mov    (%rax),%r13
    e74a:	48 8b 05 4f 02 01 00 	mov    0x1024f(%rip),%rax        # 1e9a0 <g_52>
    e751:	8b 00                	mov    (%rax),%eax
    e753:	85 c0                	test   %eax,%eax
    e755:	0f 85 bc 00 00 00    	jne    e817 <func_33+0x21a>
    e75b:	8b 85 7c ff ff ff    	mov    -0x84(%rbp),%eax
    e761:	0f b6 d8             	movzbl %al,%ebx
    e764:	48 8b 05 6d 02 01 00 	mov    0x1026d(%rip),%rax        # 1e9d8 <g_402>
    e76b:	0f b6 00             	movzbl (%rax),%eax
    e76e:	84 c0                	test   %al,%al
    e770:	75 5c                	jne    e7ce <func_33+0x1d1>
    e772:	48 8b 45 a0          	mov    -0x60(%rbp),%rax
    e776:	41 89 c6             	mov    %eax,%r14d
    e779:	48 8b 05 f8 dd 00 00 	mov    0xddf8(%rip),%rax        # 1c578 <g_1009+0x38>
    e780:	0f b7 d0             	movzwl %ax,%edx
    e783:	48 8b 0d 26 02 01 00 	mov    0x10226(%rip),%rcx        # 1e9b0 <g_75>
    e78a:	48 8b 05 1f 02 01 00 	mov    0x1021f(%rip),%rax        # 1e9b0 <g_75>
    e791:	48 8b 09             	mov    (%rcx),%rcx
    e794:	48 89 08             	mov    %rcx,(%rax)
    e797:	48 8b 00             	mov    (%rax),%rax
    e79a:	48 39 45 98          	cmp    %rax,-0x68(%rbp)
    e79e:	0f 95 c0             	setne  %al
    e7a1:	0f b6 c0             	movzbl %al,%eax
    e7a4:	39 85 7c ff ff ff    	cmp    %eax,-0x84(%rbp)
    e7aa:	0f 9f c0             	setg   %al
    e7ad:	0f b6 c0             	movzbl %al,%eax
    e7b0:	89 d6                	mov    %edx,%esi
    e7b2:	89 c7                	mov    %eax,%edi
    e7b4:	e8 66 75 ff ff       	callq  5d1f <safe_sub_func_uint16_t_u_u>
    e7b9:	0f b7 c0             	movzwl %ax,%eax
    e7bc:	44 89 f6             	mov    %r14d,%esi
    e7bf:	89 c7                	mov    %eax,%edi
    e7c1:	e8 39 6f ff ff       	callq  56ff <safe_div_func_int32_t_s_s>
    e7c6:	48 98                	cltq   
    e7c8:	48 39 45 a0          	cmp    %rax,-0x60(%rbp)
    e7cc:	74 07                	je     e7d5 <func_33+0x1d8>
    e7ce:	b8 01 00 00 00       	mov    $0x1,%eax
    e7d3:	eb 05                	jmp    e7da <func_33+0x1dd>
    e7d5:	b8 00 00 00 00       	mov    $0x0,%eax
    e7da:	48 98                	cltq   
    e7dc:	48 39 45 a0          	cmp    %rax,-0x60(%rbp)
    e7e0:	0f 94 c0             	sete   %al
    e7e3:	0f b6 c0             	movzbl %al,%eax
    e7e6:	be 1d 00 00 00       	mov    $0x1d,%esi
    e7eb:	89 c7                	mov    %eax,%edi
    e7ed:	e8 20 6a ff ff       	callq  5212 <safe_mul_func_int8_t_s_s>
    e7f2:	0f b6 c0             	movzbl %al,%eax
    e7f5:	89 de                	mov    %ebx,%esi
    e7f7:	89 c7                	mov    %eax,%edi
    e7f9:	e8 7a 73 ff ff       	callq  5b78 <safe_sub_func_uint8_t_u_u>
    e7fe:	0f b6 d0             	movzbl %al,%edx
    e801:	8b 05 2d de 00 00    	mov    0xde2d(%rip),%eax        # 1c634 <g_1072>
    e807:	0f b6 c0             	movzbl %al,%eax
    e80a:	89 d6                	mov    %edx,%esi
    e80c:	89 c7                	mov    %eax,%edi
    e80e:	e8 9b 73 ff ff       	callq  5bae <safe_mod_func_uint8_t_u_u>
    e813:	84 c0                	test   %al,%al
    e815:	74 07                	je     e81e <func_33+0x221>
    e817:	b8 01 00 00 00       	mov    $0x1,%eax
    e81c:	eb 05                	jmp    e823 <func_33+0x226>
    e81e:	b8 00 00 00 00       	mov    $0x0,%eax
    e823:	3b 85 7c ff ff ff    	cmp    -0x84(%rbp),%eax
    e829:	0f 9c c0             	setl   %al
    e82c:	0f b6 c0             	movzbl %al,%eax
    e82f:	49 39 c5             	cmp    %rax,%r13
    e832:	0f 95 c0             	setne  %al
    e835:	0f b6 c0             	movzbl %al,%eax
    e838:	41 39 c4             	cmp    %eax,%r12d
    e83b:	0f 94 c0             	sete   %al
    e83e:	0f b6 d0             	movzbl %al,%edx
    e841:	48 8b 45 98          	mov    -0x68(%rbp),%rax
    e845:	89 10                	mov    %edx,(%rax)
    e847:	48 8b 45 98          	mov    -0x68(%rbp),%rax
    e84b:	8b 00                	mov    (%rax),%eax
    e84d:	be 42 e2 ff d6       	mov    $0xd6ffe242,%esi
    e852:	89 c7                	mov    %eax,%edi
    e854:	e8 5f 76 ff ff       	callq  5eb8 <safe_add_func_uint32_t_u_u>
    e859:	0f b6 c0             	movzbl %al,%eax
    e85c:	be 05 00 00 00       	mov    $0x5,%esi
    e861:	89 c7                	mov    %eax,%edi
    e863:	e8 9d 73 ff ff       	callq  5c05 <safe_lshift_func_uint8_t_u_s>
    e868:	0f b6 c0             	movzbl %al,%eax
    e86b:	89 85 7c ff ff ff    	mov    %eax,-0x84(%rbp)
    e871:	8b 85 7c ff ff ff    	mov    -0x84(%rbp),%eax
    e877:	48 98                	cltq   
    e879:	48 39 45 a0          	cmp    %rax,-0x60(%rbp)
    e87d:	0f 92 c0             	setb   %al
    e880:	0f b6 c0             	movzbl %al,%eax
    e883:	48 39 45 a0          	cmp    %rax,-0x60(%rbp)
    e887:	0f 94 c2             	sete   %dl
    e88a:	48 8b 05 3f 0e 01 00 	mov    0x10e3f(%rip),%rax        # 1f6d0 <g_1083>
    e891:	0f b6 d2             	movzbl %dl,%edx
    e894:	89 10                	mov    %edx,(%rax)
    e896:	48 8b 45 a8          	mov    -0x58(%rbp),%rax
    e89a:	8b 10                	mov    (%rax),%edx
    e89c:	48 8b 45 a8          	mov    -0x58(%rbp),%rax
    e8a0:	89 10                	mov    %edx,(%rax)
    e8a2:	48 8d 05 7f d7 00 00 	lea    0xd77f(%rip),%rax        # 1c028 <g_11>
    e8a9:	48 8b 5d d8          	mov    -0x28(%rbp),%rbx
    e8ad:	64 48 33 1c 25 28 00 	xor    %fs:0x28,%rbx
    e8b4:	00 00 
    e8b6:	74 05                	je     e8bd <func_33+0x2c0>
    e8b8:	e8 b3 67 ff ff       	callq  5070 <__stack_chk_fail@plt>
    e8bd:	48 81 c4 90 00 00 00 	add    $0x90,%rsp
    e8c4:	5b                   	pop    %rbx
    e8c5:	41 5c                	pop    %r12
    e8c7:	41 5d                	pop    %r13
    e8c9:	41 5e                	pop    %r14
    e8cb:	5d                   	pop    %rbp
    e8cc:	c3                   	retq   

000000000000e8cd <func_37>:
    e8cd:	f3 0f 1e fa          	endbr64 
    e8d1:	55                   	push   %rbp
    e8d2:	48 89 e5             	mov    %rsp,%rbp
    e8d5:	41 57                	push   %r15
    e8d7:	41 56                	push   %r14
    e8d9:	41 55                	push   %r13
    e8db:	41 54                	push   %r12
    e8dd:	53                   	push   %rbx
    e8de:	48 81 ec 00 10 00 00 	sub    $0x1000,%rsp
    e8e5:	48 83 0c 24 00       	orq    $0x0,(%rsp)
    e8ea:	48 81 ec f8 00 00 00 	sub    $0xf8,%rsp
    e8f1:	89 f8                	mov    %edi,%eax
    e8f3:	48 89 b5 f0 ee ff ff 	mov    %rsi,-0x1110(%rbp)
    e8fa:	48 89 95 e8 ee ff ff 	mov    %rdx,-0x1118(%rbp)
    e901:	89 8d f8 ee ff ff    	mov    %ecx,-0x1108(%rbp)
    e907:	66 89 85 fc ee ff ff 	mov    %ax,-0x1104(%rbp)
    e90e:	64 48 8b 04 25 28 00 	mov    %fs:0x28,%rax
    e915:	00 00 
    e917:	48 89 45 c8          	mov    %rax,-0x38(%rbp)
    e91b:	31 c0                	xor    %eax,%eax
    e91d:	48 8d 05 18 d7 00 00 	lea    0xd718(%rip),%rax        # 1c03c <g_58>
    e924:	48 89 85 50 ef ff ff 	mov    %rax,-0x10b0(%rbp)
    e92b:	c7 85 14 ef ff ff 26 	movl   $0xd7132c26,-0x10ec(%rbp)
    e932:	2c 13 d7 
    e935:	c6 85 0b ef ff ff 00 	movb   $0x0,-0x10f5(%rbp)
    e93c:	48 8d 05 fd d6 00 00 	lea    0xd6fd(%rip),%rax        # 1c040 <g_69>
    e943:	48 89 85 58 ef ff ff 	mov    %rax,-0x10a8(%rbp)
    e94a:	48 c7 85 d0 ef ff ff 	movq   $0x0,-0x1030(%rbp)
    e951:	00 00 00 00 
    e955:	48 8d 05 24 18 01 00 	lea    0x11824(%rip),%rax        # 20180 <g_44>
    e95c:	48 89 85 30 f8 ff ff 	mov    %rax,-0x7d0(%rbp)
    e963:	48 8d 85 14 ef ff ff 	lea    -0x10ec(%rbp),%rax
    e96a:	48 89 85 38 f8 ff ff 	mov    %rax,-0x7c8(%rbp)
    e971:	48 8d 05 08 18 01 00 	lea    0x11808(%rip),%rax        # 20180 <g_44>
    e978:	48 89 85 40 f8 ff ff 	mov    %rax,-0x7c0(%rbp)
    e97f:	48 8d 05 fa 17 01 00 	lea    0x117fa(%rip),%rax        # 20180 <g_44>
    e986:	48 89 85 48 f8 ff ff 	mov    %rax,-0x7b8(%rbp)
    e98d:	48 8d 05 ec 17 01 00 	lea    0x117ec(%rip),%rax        # 20180 <g_44>
    e994:	48 89 85 50 f8 ff ff 	mov    %rax,-0x7b0(%rbp)
    e99b:	48 8d 05 de 17 01 00 	lea    0x117de(%rip),%rax        # 20180 <g_44>
    e9a2:	48 89 85 58 f8 ff ff 	mov    %rax,-0x7a8(%rbp)
    e9a9:	48 8d 05 dc 17 01 00 	lea    0x117dc(%rip),%rax        # 2018c <g_44+0xc>
    e9b0:	48 89 85 60 f8 ff ff 	mov    %rax,-0x7a0(%rbp)
    e9b7:	48 8d 85 14 ef ff ff 	lea    -0x10ec(%rbp),%rax
    e9be:	48 89 85 68 f8 ff ff 	mov    %rax,-0x798(%rbp)
    e9c5:	48 8d 05 b4 17 01 00 	lea    0x117b4(%rip),%rax        # 20180 <g_44>
    e9cc:	48 89 85 70 f8 ff ff 	mov    %rax,-0x790(%rbp)
    e9d3:	48 8d 05 aa 17 01 00 	lea    0x117aa(%rip),%rax        # 20184 <g_44+0x4>
    e9da:	48 89 85 78 f8 ff ff 	mov    %rax,-0x788(%rbp)
    e9e1:	48 8d 05 9c 17 01 00 	lea    0x1179c(%rip),%rax        # 20184 <g_44+0x4>
    e9e8:	48 89 85 80 f8 ff ff 	mov    %rax,-0x780(%rbp)
    e9ef:	48 8d 05 96 17 01 00 	lea    0x11796(%rip),%rax        # 2018c <g_44+0xc>
    e9f6:	48 89 85 88 f8 ff ff 	mov    %rax,-0x778(%rbp)
    e9fd:	48 8d 85 14 ef ff ff 	lea    -0x10ec(%rbp),%rax
    ea04:	48 89 85 90 f8 ff ff 	mov    %rax,-0x770(%rbp)
    ea0b:	48 8d 05 6e 17 01 00 	lea    0x1176e(%rip),%rax        # 20180 <g_44>
    ea12:	48 89 85 98 f8 ff ff 	mov    %rax,-0x768(%rbp)
    ea19:	48 c7 85 a0 f8 ff ff 	movq   $0x0,-0x760(%rbp)
    ea20:	00 00 00 00 
    ea24:	48 8d 85 14 ef ff ff 	lea    -0x10ec(%rbp),%rax
    ea2b:	48 89 85 a8 f8 ff ff 	mov    %rax,-0x758(%rbp)
    ea32:	48 c7 85 b0 f8 ff ff 	movq   $0x0,-0x750(%rbp)
    ea39:	00 00 00 00 
    ea3d:	48 8d 05 3c 17 01 00 	lea    0x1173c(%rip),%rax        # 20180 <g_44>
    ea44:	48 89 85 b8 f8 ff ff 	mov    %rax,-0x748(%rbp)
    ea4b:	48 8d 05 2e 17 01 00 	lea    0x1172e(%rip),%rax        # 20180 <g_44>
    ea52:	48 89 85 c0 f8 ff ff 	mov    %rax,-0x740(%rbp)
    ea59:	48 c7 85 c8 f8 ff ff 	movq   $0x0,-0x738(%rbp)
    ea60:	00 00 00 00 
    ea64:	48 8d 85 14 ef ff ff 	lea    -0x10ec(%rbp),%rax
    ea6b:	48 89 85 d0 f8 ff ff 	mov    %rax,-0x730(%rbp)
    ea72:	48 8d 85 14 ef ff ff 	lea    -0x10ec(%rbp),%rax
    ea79:	48 89 85 d8 f8 ff ff 	mov    %rax,-0x728(%rbp)
    ea80:	48 8d 85 14 ef ff ff 	lea    -0x10ec(%rbp),%rax
    ea87:	48 89 85 e0 f8 ff ff 	mov    %rax,-0x720(%rbp)
    ea8e:	48 8d 05 eb 16 01 00 	lea    0x116eb(%rip),%rax        # 20180 <g_44>
    ea95:	48 89 85 e8 f8 ff ff 	mov    %rax,-0x718(%rbp)
    ea9c:	48 8d 05 dd 16 01 00 	lea    0x116dd(%rip),%rax        # 20180 <g_44>
    eaa3:	48 89 85 f0 f8 ff ff 	mov    %rax,-0x710(%rbp)
    eaaa:	48 c7 85 f8 f8 ff ff 	movq   $0x0,-0x708(%rbp)
    eab1:	00 00 00 00 
    eab5:	48 c7 85 00 f9 ff ff 	movq   $0x0,-0x700(%rbp)
    eabc:	00 00 00 00 
    eac0:	48 8d 85 14 ef ff ff 	lea    -0x10ec(%rbp),%rax
    eac7:	48 89 85 08 f9 ff ff 	mov    %rax,-0x6f8(%rbp)
    eace:	48 8d 05 ab 16 01 00 	lea    0x116ab(%rip),%rax        # 20180 <g_44>
    ead5:	48 89 85 10 f9 ff ff 	mov    %rax,-0x6f0(%rbp)
    eadc:	48 8d 05 a9 16 01 00 	lea    0x116a9(%rip),%rax        # 2018c <g_44+0xc>
    eae3:	48 89 85 18 f9 ff ff 	mov    %rax,-0x6e8(%rbp)
    eaea:	48 8d 05 8f 16 01 00 	lea    0x1168f(%rip),%rax        # 20180 <g_44>
    eaf1:	48 89 85 20 f9 ff ff 	mov    %rax,-0x6e0(%rbp)
    eaf8:	48 8d 05 99 16 01 00 	lea    0x11699(%rip),%rax        # 20198 <g_44+0x18>
    eaff:	48 89 85 28 f9 ff ff 	mov    %rax,-0x6d8(%rbp)
    eb06:	48 8d 05 73 16 01 00 	lea    0x11673(%rip),%rax        # 20180 <g_44>
    eb0d:	48 89 85 30 f9 ff ff 	mov    %rax,-0x6d0(%rbp)
    eb14:	48 8d 05 65 16 01 00 	lea    0x11665(%rip),%rax        # 20180 <g_44>
    eb1b:	48 89 85 38 f9 ff ff 	mov    %rax,-0x6c8(%rbp)
    eb22:	48 8d 85 14 ef ff ff 	lea    -0x10ec(%rbp),%rax
    eb29:	48 89 85 40 f9 ff ff 	mov    %rax,-0x6c0(%rbp)
    eb30:	48 8d 05 49 16 01 00 	lea    0x11649(%rip),%rax        # 20180 <g_44>
    eb37:	48 89 85 48 f9 ff ff 	mov    %rax,-0x6b8(%rbp)
    eb3e:	48 8d 85 14 ef ff ff 	lea    -0x10ec(%rbp),%rax
    eb45:	48 89 85 50 f9 ff ff 	mov    %rax,-0x6b0(%rbp)
    eb4c:	48 c7 85 58 f9 ff ff 	movq   $0x0,-0x6a8(%rbp)
    eb53:	00 00 00 00 
    eb57:	48 8d 05 22 16 01 00 	lea    0x11622(%rip),%rax        # 20180 <g_44>
    eb5e:	48 89 85 60 f9 ff ff 	mov    %rax,-0x6a0(%rbp)
    eb65:	48 8d 05 28 16 01 00 	lea    0x11628(%rip),%rax        # 20194 <g_44+0x14>
    eb6c:	48 89 85 68 f9 ff ff 	mov    %rax,-0x698(%rbp)
    eb73:	48 8d 85 14 ef ff ff 	lea    -0x10ec(%rbp),%rax
    eb7a:	48 89 85 70 f9 ff ff 	mov    %rax,-0x690(%rbp)
    eb81:	48 8d 05 fc 15 01 00 	lea    0x115fc(%rip),%rax        # 20184 <g_44+0x4>
    eb88:	48 89 85 78 f9 ff ff 	mov    %rax,-0x688(%rbp)
    eb8f:	48 8d 05 ea 15 01 00 	lea    0x115ea(%rip),%rax        # 20180 <g_44>
    eb96:	48 89 85 80 f9 ff ff 	mov    %rax,-0x680(%rbp)
    eb9d:	48 8d 05 dc 15 01 00 	lea    0x115dc(%rip),%rax        # 20180 <g_44>
    eba4:	48 89 85 88 f9 ff ff 	mov    %rax,-0x678(%rbp)
    ebab:	48 8d 85 14 ef ff ff 	lea    -0x10ec(%rbp),%rax
    ebb2:	48 89 85 90 f9 ff ff 	mov    %rax,-0x670(%rbp)
    ebb9:	48 8d 85 14 ef ff ff 	lea    -0x10ec(%rbp),%rax
    ebc0:	48 89 85 98 f9 ff ff 	mov    %rax,-0x668(%rbp)
    ebc7:	48 8d 05 be 15 01 00 	lea    0x115be(%rip),%rax        # 2018c <g_44+0xc>
    ebce:	48 89 85 a0 f9 ff ff 	mov    %rax,-0x660(%rbp)
    ebd5:	48 8d 05 a4 15 01 00 	lea    0x115a4(%rip),%rax        # 20180 <g_44>
    ebdc:	48 89 85 a8 f9 ff ff 	mov    %rax,-0x658(%rbp)
    ebe3:	48 8d 05 96 15 01 00 	lea    0x11596(%rip),%rax        # 20180 <g_44>
    ebea:	48 89 85 b0 f9 ff ff 	mov    %rax,-0x650(%rbp)
    ebf1:	48 8d 05 88 15 01 00 	lea    0x11588(%rip),%rax        # 20180 <g_44>
    ebf8:	48 89 85 b8 f9 ff ff 	mov    %rax,-0x648(%rbp)
    ebff:	48 8d 05 86 15 01 00 	lea    0x11586(%rip),%rax        # 2018c <g_44+0xc>
    ec06:	48 89 85 c0 f9 ff ff 	mov    %rax,-0x640(%rbp)
    ec0d:	48 8d 05 84 15 01 00 	lea    0x11584(%rip),%rax        # 20198 <g_44+0x18>
    ec14:	48 89 85 c8 f9 ff ff 	mov    %rax,-0x638(%rbp)
    ec1b:	48 8d 85 14 ef ff ff 	lea    -0x10ec(%rbp),%rax
    ec22:	48 89 85 d0 f9 ff ff 	mov    %rax,-0x630(%rbp)
    ec29:	48 c7 85 d8 f9 ff ff 	movq   $0x0,-0x628(%rbp)
    ec30:	00 00 00 00 
    ec34:	48 8d 85 14 ef ff ff 	lea    -0x10ec(%rbp),%rax
    ec3b:	48 89 85 e0 f9 ff ff 	mov    %rax,-0x620(%rbp)
    ec42:	48 8d 05 37 15 01 00 	lea    0x11537(%rip),%rax        # 20180 <g_44>
    ec49:	48 89 85 e8 f9 ff ff 	mov    %rax,-0x618(%rbp)
    ec50:	48 8d 05 35 15 01 00 	lea    0x11535(%rip),%rax        # 2018c <g_44+0xc>
    ec57:	48 89 85 f0 f9 ff ff 	mov    %rax,-0x610(%rbp)
    ec5e:	48 8d 05 1b 15 01 00 	lea    0x1151b(%rip),%rax        # 20180 <g_44>
    ec65:	48 89 85 f8 f9 ff ff 	mov    %rax,-0x608(%rbp)
    ec6c:	48 8d 05 0d 15 01 00 	lea    0x1150d(%rip),%rax        # 20180 <g_44>
    ec73:	48 89 85 00 fa ff ff 	mov    %rax,-0x600(%rbp)
    ec7a:	48 8d 85 14 ef ff ff 	lea    -0x10ec(%rbp),%rax
    ec81:	48 89 85 08 fa ff ff 	mov    %rax,-0x5f8(%rbp)
    ec88:	48 8d 05 f1 14 01 00 	lea    0x114f1(%rip),%rax        # 20180 <g_44>
    ec8f:	48 89 85 10 fa ff ff 	mov    %rax,-0x5f0(%rbp)
    ec96:	48 8d 85 14 ef ff ff 	lea    -0x10ec(%rbp),%rax
    ec9d:	48 89 85 18 fa ff ff 	mov    %rax,-0x5e8(%rbp)
    eca4:	48 8d 85 14 ef ff ff 	lea    -0x10ec(%rbp),%rax
    ecab:	48 89 85 20 fa ff ff 	mov    %rax,-0x5e0(%rbp)
    ecb2:	48 8d 05 c7 14 01 00 	lea    0x114c7(%rip),%rax        # 20180 <g_44>
    ecb9:	48 89 85 28 fa ff ff 	mov    %rax,-0x5d8(%rbp)
    ecc0:	48 c7 85 30 fa ff ff 	movq   $0x0,-0x5d0(%rbp)
    ecc7:	00 00 00 00 
    eccb:	48 8d 05 c6 14 01 00 	lea    0x114c6(%rip),%rax        # 20198 <g_44+0x18>
    ecd2:	48 89 85 38 fa ff ff 	mov    %rax,-0x5c8(%rbp)
    ecd9:	48 8d 85 14 ef ff ff 	lea    -0x10ec(%rbp),%rax
    ece0:	48 89 85 40 fa ff ff 	mov    %rax,-0x5c0(%rbp)
    ece7:	48 c7 85 48 fa ff ff 	movq   $0x0,-0x5b8(%rbp)
    ecee:	00 00 00 00 
    ecf2:	48 8d 05 87 14 01 00 	lea    0x11487(%rip),%rax        # 20180 <g_44>
    ecf9:	48 89 85 50 fa ff ff 	mov    %rax,-0x5b0(%rbp)
    ed00:	48 8d 85 14 ef ff ff 	lea    -0x10ec(%rbp),%rax
    ed07:	48 89 85 58 fa ff ff 	mov    %rax,-0x5a8(%rbp)
    ed0e:	48 8d 85 14 ef ff ff 	lea    -0x10ec(%rbp),%rax
    ed15:	48 89 85 60 fa ff ff 	mov    %rax,-0x5a0(%rbp)
    ed1c:	48 8d 05 5d 14 01 00 	lea    0x1145d(%rip),%rax        # 20180 <g_44>
    ed23:	48 89 85 68 fa ff ff 	mov    %rax,-0x598(%rbp)
    ed2a:	48 c7 85 70 fa ff ff 	movq   $0x0,-0x590(%rbp)
    ed31:	00 00 00 00 
    ed35:	48 8d 05 44 14 01 00 	lea    0x11444(%rip),%rax        # 20180 <g_44>
    ed3c:	48 89 85 78 fa ff ff 	mov    %rax,-0x588(%rbp)
    ed43:	48 8d 05 36 14 01 00 	lea    0x11436(%rip),%rax        # 20180 <g_44>
    ed4a:	48 89 85 80 fa ff ff 	mov    %rax,-0x580(%rbp)
    ed51:	48 c7 85 88 fa ff ff 	movq   $0x0,-0x578(%rbp)
    ed58:	00 00 00 00 
    ed5c:	48 8d 05 1d 14 01 00 	lea    0x1141d(%rip),%rax        # 20180 <g_44>
    ed63:	48 89 85 90 fa ff ff 	mov    %rax,-0x570(%rbp)
    ed6a:	48 8d 05 1b 14 01 00 	lea    0x1141b(%rip),%rax        # 2018c <g_44+0xc>
    ed71:	48 89 85 98 fa ff ff 	mov    %rax,-0x568(%rbp)
    ed78:	48 8d 05 0d 14 01 00 	lea    0x1140d(%rip),%rax        # 2018c <g_44+0xc>
    ed7f:	48 89 85 a0 fa ff ff 	mov    %rax,-0x560(%rbp)
    ed86:	48 8d 05 f3 13 01 00 	lea    0x113f3(%rip),%rax        # 20180 <g_44>
    ed8d:	48 89 85 a8 fa ff ff 	mov    %rax,-0x558(%rbp)
    ed94:	48 8d 05 e5 13 01 00 	lea    0x113e5(%rip),%rax        # 20180 <g_44>
    ed9b:	48 89 85 b0 fa ff ff 	mov    %rax,-0x550(%rbp)
    eda2:	48 8d 85 14 ef ff ff 	lea    -0x10ec(%rbp),%rax
    eda9:	48 89 85 b8 fa ff ff 	mov    %rax,-0x548(%rbp)
    edb0:	48 8d 05 d5 13 01 00 	lea    0x113d5(%rip),%rax        # 2018c <g_44+0xc>
    edb7:	48 89 85 c0 fa ff ff 	mov    %rax,-0x540(%rbp)
    edbe:	48 c7 85 c8 fa ff ff 	movq   $0x0,-0x538(%rbp)
    edc5:	00 00 00 00 
    edc9:	48 8d 85 14 ef ff ff 	lea    -0x10ec(%rbp),%rax
    edd0:	48 89 85 d0 fa ff ff 	mov    %rax,-0x530(%rbp)
    edd7:	48 c7 85 d8 fa ff ff 	movq   $0x0,-0x528(%rbp)
    edde:	00 00 00 00 
    ede2:	48 8d 85 14 ef ff ff 	lea    -0x10ec(%rbp),%rax
    ede9:	48 89 85 e0 fa ff ff 	mov    %rax,-0x520(%rbp)
    edf0:	48 8d 05 89 13 01 00 	lea    0x11389(%rip),%rax        # 20180 <g_44>
    edf7:	48 89 85 e8 fa ff ff 	mov    %rax,-0x518(%rbp)
    edfe:	48 8d 05 7b 13 01 00 	lea    0x1137b(%rip),%rax        # 20180 <g_44>
    ee05:	48 89 85 f0 fa ff ff 	mov    %rax,-0x510(%rbp)
    ee0c:	48 8d 05 79 13 01 00 	lea    0x11379(%rip),%rax        # 2018c <g_44+0xc>
    ee13:	48 89 85 f8 fa ff ff 	mov    %rax,-0x508(%rbp)
    ee1a:	48 c7 85 00 fb ff ff 	movq   $0x0,-0x500(%rbp)
    ee21:	00 00 00 00 
    ee25:	48 8d 85 14 ef ff ff 	lea    -0x10ec(%rbp),%rax
    ee2c:	48 89 85 08 fb ff ff 	mov    %rax,-0x4f8(%rbp)
    ee33:	48 8d 05 4e 13 01 00 	lea    0x1134e(%rip),%rax        # 20188 <g_44+0x8>
    ee3a:	48 89 85 10 fb ff ff 	mov    %rax,-0x4f0(%rbp)
    ee41:	48 8d 05 38 13 01 00 	lea    0x11338(%rip),%rax        # 20180 <g_44>
    ee48:	48 89 85 18 fb ff ff 	mov    %rax,-0x4e8(%rbp)
    ee4f:	48 c7 85 20 fb ff ff 	movq   $0x0,-0x4e0(%rbp)
    ee56:	00 00 00 00 
    ee5a:	48 8d 85 14 ef ff ff 	lea    -0x10ec(%rbp),%rax
    ee61:	48 89 85 28 fb ff ff 	mov    %rax,-0x4d8(%rbp)
    ee68:	48 8d 05 1d 13 01 00 	lea    0x1131d(%rip),%rax        # 2018c <g_44+0xc>
    ee6f:	48 89 85 30 fb ff ff 	mov    %rax,-0x4d0(%rbp)
    ee76:	48 8d 05 03 13 01 00 	lea    0x11303(%rip),%rax        # 20180 <g_44>
    ee7d:	48 89 85 38 fb ff ff 	mov    %rax,-0x4c8(%rbp)
    ee84:	48 8d 05 f5 12 01 00 	lea    0x112f5(%rip),%rax        # 20180 <g_44>
    ee8b:	48 89 85 40 fb ff ff 	mov    %rax,-0x4c0(%rbp)
    ee92:	48 8d 05 e7 12 01 00 	lea    0x112e7(%rip),%rax        # 20180 <g_44>
    ee99:	48 89 85 48 fb ff ff 	mov    %rax,-0x4b8(%rbp)
    eea0:	48 8d 05 d9 12 01 00 	lea    0x112d9(%rip),%rax        # 20180 <g_44>
    eea7:	48 89 85 50 fb ff ff 	mov    %rax,-0x4b0(%rbp)
    eeae:	48 8d 05 cb 12 01 00 	lea    0x112cb(%rip),%rax        # 20180 <g_44>
    eeb5:	48 89 85 58 fb ff ff 	mov    %rax,-0x4a8(%rbp)
    eebc:	48 8d 85 14 ef ff ff 	lea    -0x10ec(%rbp),%rax
    eec3:	48 89 85 60 fb ff ff 	mov    %rax,-0x4a0(%rbp)
    eeca:	48 8d 05 b7 12 01 00 	lea    0x112b7(%rip),%rax        # 20188 <g_44+0x8>
    eed1:	48 89 85 68 fb ff ff 	mov    %rax,-0x498(%rbp)
    eed8:	48 8d 05 a1 12 01 00 	lea    0x112a1(%rip),%rax        # 20180 <g_44>
    eedf:	48 89 85 70 fb ff ff 	mov    %rax,-0x490(%rbp)
    eee6:	48 8d 05 93 12 01 00 	lea    0x11293(%rip),%rax        # 20180 <g_44>
    eeed:	48 89 85 78 fb ff ff 	mov    %rax,-0x488(%rbp)
    eef4:	48 8d 05 85 12 01 00 	lea    0x11285(%rip),%rax        # 20180 <g_44>
    eefb:	48 89 85 80 fb ff ff 	mov    %rax,-0x480(%rbp)
    ef02:	48 c7 85 88 fb ff ff 	movq   $0x0,-0x478(%rbp)
    ef09:	00 00 00 00 
    ef0d:	48 c7 85 90 fb ff ff 	movq   $0x0,-0x470(%rbp)
    ef14:	00 00 00 00 
    ef18:	48 c7 85 98 fb ff ff 	movq   $0x0,-0x468(%rbp)
    ef1f:	00 00 00 00 
    ef23:	48 8d 05 62 12 01 00 	lea    0x11262(%rip),%rax        # 2018c <g_44+0xc>
    ef2a:	48 89 85 a0 fb ff ff 	mov    %rax,-0x460(%rbp)
    ef31:	48 8d 05 48 12 01 00 	lea    0x11248(%rip),%rax        # 20180 <g_44>
    ef38:	48 89 85 a8 fb ff ff 	mov    %rax,-0x458(%rbp)
    ef3f:	48 8d 05 4a 12 01 00 	lea    0x1124a(%rip),%rax        # 20190 <g_44+0x10>
    ef46:	48 89 85 b0 fb ff ff 	mov    %rax,-0x450(%rbp)
    ef4d:	48 c7 85 b8 fb ff ff 	movq   $0x0,-0x448(%rbp)
    ef54:	00 00 00 00 
    ef58:	48 c7 85 c0 fb ff ff 	movq   $0x0,-0x440(%rbp)
    ef5f:	00 00 00 00 
    ef63:	48 c7 85 c8 fb ff ff 	movq   $0x0,-0x438(%rbp)
    ef6a:	00 00 00 00 
    ef6e:	48 8d 85 14 ef ff ff 	lea    -0x10ec(%rbp),%rax
    ef75:	48 89 85 d0 fb ff ff 	mov    %rax,-0x430(%rbp)
    ef7c:	48 8d 05 fd 11 01 00 	lea    0x111fd(%rip),%rax        # 20180 <g_44>
    ef83:	48 89 85 d8 fb ff ff 	mov    %rax,-0x428(%rbp)
    ef8a:	48 8d 05 ef 11 01 00 	lea    0x111ef(%rip),%rax        # 20180 <g_44>
    ef91:	48 89 85 e0 fb ff ff 	mov    %rax,-0x420(%rbp)
    ef98:	48 8d 05 ed 11 01 00 	lea    0x111ed(%rip),%rax        # 2018c <g_44+0xc>
    ef9f:	48 89 85 e8 fb ff ff 	mov    %rax,-0x418(%rbp)
    efa6:	48 8d 85 14 ef ff ff 	lea    -0x10ec(%rbp),%rax
    efad:	48 89 85 f0 fb ff ff 	mov    %rax,-0x410(%rbp)
    efb4:	48 8d 05 c5 11 01 00 	lea    0x111c5(%rip),%rax        # 20180 <g_44>
    efbb:	48 89 85 f8 fb ff ff 	mov    %rax,-0x408(%rbp)
    efc2:	48 8d 05 c7 11 01 00 	lea    0x111c7(%rip),%rax        # 20190 <g_44+0x10>
    efc9:	48 89 85 00 fc ff ff 	mov    %rax,-0x400(%rbp)
    efd0:	48 8d 05 a9 11 01 00 	lea    0x111a9(%rip),%rax        # 20180 <g_44>
    efd7:	48 89 85 08 fc ff ff 	mov    %rax,-0x3f8(%rbp)
    efde:	48 8d 85 14 ef ff ff 	lea    -0x10ec(%rbp),%rax
    efe5:	48 89 85 10 fc ff ff 	mov    %rax,-0x3f0(%rbp)
    efec:	48 c7 85 18 fc ff ff 	movq   $0x0,-0x3e8(%rbp)
    eff3:	00 00 00 00 
    eff7:	48 8d 05 8e 11 01 00 	lea    0x1118e(%rip),%rax        # 2018c <g_44+0xc>
    effe:	48 89 85 20 fc ff ff 	mov    %rax,-0x3e0(%rbp)
    f005:	48 8d 05 74 11 01 00 	lea    0x11174(%rip),%rax        # 20180 <g_44>
    f00c:	48 89 85 28 fc ff ff 	mov    %rax,-0x3d8(%rbp)
    f013:	48 c7 85 30 fc ff ff 	movq   $0x0,-0x3d0(%rbp)
    f01a:	00 00 00 00 
    f01e:	48 8d 05 5b 11 01 00 	lea    0x1115b(%rip),%rax        # 20180 <g_44>
    f025:	48 89 85 38 fc ff ff 	mov    %rax,-0x3c8(%rbp)
    f02c:	48 8d 85 14 ef ff ff 	lea    -0x10ec(%rbp),%rax
    f033:	48 89 85 40 fc ff ff 	mov    %rax,-0x3c0(%rbp)
    f03a:	48 8d 05 3f 11 01 00 	lea    0x1113f(%rip),%rax        # 20180 <g_44>
    f041:	48 89 85 48 fc ff ff 	mov    %rax,-0x3b8(%rbp)
    f048:	48 c7 85 50 fc ff ff 	movq   $0x0,-0x3b0(%rbp)
    f04f:	00 00 00 00 
    f053:	48 8d 05 3e 11 01 00 	lea    0x1113e(%rip),%rax        # 20198 <g_44+0x18>
    f05a:	48 89 85 58 fc ff ff 	mov    %rax,-0x3a8(%rbp)
    f061:	48 8d 85 14 ef ff ff 	lea    -0x10ec(%rbp),%rax
    f068:	48 89 85 60 fc ff ff 	mov    %rax,-0x3a0(%rbp)
    f06f:	48 8d 05 0a 11 01 00 	lea    0x1110a(%rip),%rax        # 20180 <g_44>
    f076:	48 89 85 68 fc ff ff 	mov    %rax,-0x398(%rbp)
    f07d:	48 c7 85 70 fc ff ff 	movq   $0x0,-0x390(%rbp)
    f084:	00 00 00 00 
    f088:	48 8d 05 f1 10 01 00 	lea    0x110f1(%rip),%rax        # 20180 <g_44>
    f08f:	48 89 85 78 fc ff ff 	mov    %rax,-0x388(%rbp)
    f096:	48 8d 85 14 ef ff ff 	lea    -0x10ec(%rbp),%rax
    f09d:	48 89 85 80 fc ff ff 	mov    %rax,-0x380(%rbp)
    f0a4:	48 c7 85 88 fc ff ff 	movq   $0x0,-0x378(%rbp)
    f0ab:	00 00 00 00 
    f0af:	48 8d 05 ca 10 01 00 	lea    0x110ca(%rip),%rax        # 20180 <g_44>
    f0b6:	48 89 85 90 fc ff ff 	mov    %rax,-0x370(%rbp)
    f0bd:	48 8d 85 14 ef ff ff 	lea    -0x10ec(%rbp),%rax
    f0c4:	48 89 85 98 fc ff ff 	mov    %rax,-0x368(%rbp)
    f0cb:	48 8d 05 ba 10 01 00 	lea    0x110ba(%rip),%rax        # 2018c <g_44+0xc>
    f0d2:	48 89 85 a0 fc ff ff 	mov    %rax,-0x360(%rbp)
    f0d9:	48 8d 85 14 ef ff ff 	lea    -0x10ec(%rbp),%rax
    f0e0:	48 89 85 a8 fc ff ff 	mov    %rax,-0x358(%rbp)
    f0e7:	48 8d 05 9e 10 01 00 	lea    0x1109e(%rip),%rax        # 2018c <g_44+0xc>
    f0ee:	48 89 85 b0 fc ff ff 	mov    %rax,-0x350(%rbp)
    f0f5:	48 8d 05 8c 10 01 00 	lea    0x1108c(%rip),%rax        # 20188 <g_44+0x8>
    f0fc:	48 89 85 b8 fc ff ff 	mov    %rax,-0x348(%rbp)
    f103:	48 8d 85 14 ef ff ff 	lea    -0x10ec(%rbp),%rax
    f10a:	48 89 85 c0 fc ff ff 	mov    %rax,-0x340(%rbp)
    f111:	48 8d 05 78 10 01 00 	lea    0x11078(%rip),%rax        # 20190 <g_44+0x10>
    f118:	48 89 85 c8 fc ff ff 	mov    %rax,-0x338(%rbp)
    f11f:	48 c7 85 d0 fc ff ff 	movq   $0x0,-0x330(%rbp)
    f126:	00 00 00 00 
    f12a:	48 8d 85 14 ef ff ff 	lea    -0x10ec(%rbp),%rax
    f131:	48 89 85 d8 fc ff ff 	mov    %rax,-0x328(%rbp)
    f138:	48 c7 85 e0 fc ff ff 	movq   $0x0,-0x320(%rbp)
    f13f:	00 00 00 00 
    f143:	48 8d 05 46 10 01 00 	lea    0x11046(%rip),%rax        # 20190 <g_44+0x10>
    f14a:	48 89 85 e8 fc ff ff 	mov    %rax,-0x318(%rbp)
    f151:	48 8d 85 14 ef ff ff 	lea    -0x10ec(%rbp),%rax
    f158:	48 89 85 f0 fc ff ff 	mov    %rax,-0x310(%rbp)
    f15f:	48 8d 05 1a 10 01 00 	lea    0x1101a(%rip),%rax        # 20180 <g_44>
    f166:	48 89 85 f8 fc ff ff 	mov    %rax,-0x308(%rbp)
    f16d:	48 8d 05 24 10 01 00 	lea    0x11024(%rip),%rax        # 20198 <g_44+0x18>
    f174:	48 89 85 00 fd ff ff 	mov    %rax,-0x300(%rbp)
    f17b:	48 8d 85 14 ef ff ff 	lea    -0x10ec(%rbp),%rax
    f182:	48 89 85 08 fd ff ff 	mov    %rax,-0x2f8(%rbp)
    f189:	48 8d 85 14 ef ff ff 	lea    -0x10ec(%rbp),%rax
    f190:	48 89 85 10 fd ff ff 	mov    %rax,-0x2f0(%rbp)
    f197:	48 8d 05 e2 0f 01 00 	lea    0x10fe2(%rip),%rax        # 20180 <g_44>
    f19e:	48 89 85 18 fd ff ff 	mov    %rax,-0x2e8(%rbp)
    f1a5:	48 8d 85 14 ef ff ff 	lea    -0x10ec(%rbp),%rax
    f1ac:	48 89 85 20 fd ff ff 	mov    %rax,-0x2e0(%rbp)
    f1b3:	48 c7 85 28 fd ff ff 	movq   $0x0,-0x2d8(%rbp)
    f1ba:	00 00 00 00 
    f1be:	48 8d 05 bb 0f 01 00 	lea    0x10fbb(%rip),%rax        # 20180 <g_44>
    f1c5:	48 89 85 30 fd ff ff 	mov    %rax,-0x2d0(%rbp)
    f1cc:	48 8d 85 14 ef ff ff 	lea    -0x10ec(%rbp),%rax
    f1d3:	48 89 85 38 fd ff ff 	mov    %rax,-0x2c8(%rbp)
    f1da:	48 8d 05 9f 0f 01 00 	lea    0x10f9f(%rip),%rax        # 20180 <g_44>
    f1e1:	48 89 85 40 fd ff ff 	mov    %rax,-0x2c0(%rbp)
    f1e8:	48 8d 85 14 ef ff ff 	lea    -0x10ec(%rbp),%rax
    f1ef:	48 89 85 48 fd ff ff 	mov    %rax,-0x2b8(%rbp)
    f1f6:	48 8d 85 14 ef ff ff 	lea    -0x10ec(%rbp),%rax
    f1fd:	48 89 85 50 fd ff ff 	mov    %rax,-0x2b0(%rbp)
    f204:	48 8d 05 75 0f 01 00 	lea    0x10f75(%rip),%rax        # 20180 <g_44>
    f20b:	48 89 85 58 fd ff ff 	mov    %rax,-0x2a8(%rbp)
    f212:	48 8d 05 73 0f 01 00 	lea    0x10f73(%rip),%rax        # 2018c <g_44+0xc>
    f219:	48 89 85 60 fd ff ff 	mov    %rax,-0x2a0(%rbp)
    f220:	48 8d 85 14 ef ff ff 	lea    -0x10ec(%rbp),%rax
    f227:	48 89 85 68 fd ff ff 	mov    %rax,-0x298(%rbp)
    f22e:	48 c7 85 70 fd ff ff 	movq   $0x0,-0x290(%rbp)
    f235:	00 00 00 00 
    f239:	48 8d 85 14 ef ff ff 	lea    -0x10ec(%rbp),%rax
    f240:	48 89 85 78 fd ff ff 	mov    %rax,-0x288(%rbp)
    f247:	48 8d 85 14 ef ff ff 	lea    -0x10ec(%rbp),%rax
    f24e:	48 89 85 80 fd ff ff 	mov    %rax,-0x280(%rbp)
    f255:	48 8d 05 24 0f 01 00 	lea    0x10f24(%rip),%rax        # 20180 <g_44>
    f25c:	48 89 85 88 fd ff ff 	mov    %rax,-0x278(%rbp)
    f263:	48 8d 05 16 0f 01 00 	lea    0x10f16(%rip),%rax        # 20180 <g_44>
    f26a:	48 89 85 90 fd ff ff 	mov    %rax,-0x270(%rbp)
    f271:	48 8d 05 08 0f 01 00 	lea    0x10f08(%rip),%rax        # 20180 <g_44>
    f278:	48 89 85 98 fd ff ff 	mov    %rax,-0x268(%rbp)
    f27f:	48 8d 05 fa 0e 01 00 	lea    0x10efa(%rip),%rax        # 20180 <g_44>
    f286:	48 89 85 a0 fd ff ff 	mov    %rax,-0x260(%rbp)
    f28d:	48 8d 05 fc 0e 01 00 	lea    0x10efc(%rip),%rax        # 20190 <g_44+0x10>
    f294:	48 89 85 a8 fd ff ff 	mov    %rax,-0x258(%rbp)
    f29b:	48 8d 05 de 0e 01 00 	lea    0x10ede(%rip),%rax        # 20180 <g_44>
    f2a2:	48 89 85 b0 fd ff ff 	mov    %rax,-0x250(%rbp)
    f2a9:	48 8d 05 d0 0e 01 00 	lea    0x10ed0(%rip),%rax        # 20180 <g_44>
    f2b0:	48 89 85 b8 fd ff ff 	mov    %rax,-0x248(%rbp)
    f2b7:	48 8d 05 c2 0e 01 00 	lea    0x10ec2(%rip),%rax        # 20180 <g_44>
    f2be:	48 89 85 c0 fd ff ff 	mov    %rax,-0x240(%rbp)
    f2c5:	48 8d 85 14 ef ff ff 	lea    -0x10ec(%rbp),%rax
    f2cc:	48 89 85 c8 fd ff ff 	mov    %rax,-0x238(%rbp)
    f2d3:	48 c7 85 d0 fd ff ff 	movq   $0x0,-0x230(%rbp)
    f2da:	00 00 00 00 
    f2de:	48 8d 05 af 0e 01 00 	lea    0x10eaf(%rip),%rax        # 20194 <g_44+0x14>
    f2e5:	48 89 85 d8 fd ff ff 	mov    %rax,-0x228(%rbp)
    f2ec:	48 8d 05 8d 0e 01 00 	lea    0x10e8d(%rip),%rax        # 20180 <g_44>
    f2f3:	48 89 85 e0 fd ff ff 	mov    %rax,-0x220(%rbp)
    f2fa:	48 8d 05 8b 0e 01 00 	lea    0x10e8b(%rip),%rax        # 2018c <g_44+0xc>
    f301:	48 89 85 e8 fd ff ff 	mov    %rax,-0x218(%rbp)
    f308:	48 8d 05 7d 0e 01 00 	lea    0x10e7d(%rip),%rax        # 2018c <g_44+0xc>
    f30f:	48 89 85 f0 fd ff ff 	mov    %rax,-0x210(%rbp)
    f316:	48 c7 85 f8 fd ff ff 	movq   $0x0,-0x208(%rbp)
    f31d:	00 00 00 00 
    f321:	48 8d 05 68 0e 01 00 	lea    0x10e68(%rip),%rax        # 20190 <g_44+0x10>
    f328:	48 89 85 00 fe ff ff 	mov    %rax,-0x200(%rbp)
    f32f:	48 c7 85 08 fe ff ff 	movq   $0x0,-0x1f8(%rbp)
    f336:	00 00 00 00 
    f33a:	48 c7 85 10 fe ff ff 	movq   $0x0,-0x1f0(%rbp)
    f341:	00 00 00 00 
    f345:	48 8d 05 34 0e 01 00 	lea    0x10e34(%rip),%rax        # 20180 <g_44>
    f34c:	48 89 85 18 fe ff ff 	mov    %rax,-0x1e8(%rbp)
    f353:	48 8d 05 36 0e 01 00 	lea    0x10e36(%rip),%rax        # 20190 <g_44+0x10>
    f35a:	48 89 85 20 fe ff ff 	mov    %rax,-0x1e0(%rbp)
    f361:	48 8d 05 28 0e 01 00 	lea    0x10e28(%rip),%rax        # 20190 <g_44+0x10>
    f368:	48 89 85 28 fe ff ff 	mov    %rax,-0x1d8(%rbp)
    f36f:	48 c7 85 30 fe ff ff 	movq   $0x0,-0x1d0(%rbp)
    f376:	00 00 00 00 
    f37a:	48 8d 05 ff 0d 01 00 	lea    0x10dff(%rip),%rax        # 20180 <g_44>
    f381:	48 89 85 38 fe ff ff 	mov    %rax,-0x1c8(%rbp)
    f388:	48 8d 05 fd 0d 01 00 	lea    0x10dfd(%rip),%rax        # 2018c <g_44+0xc>
    f38f:	48 89 85 40 fe ff ff 	mov    %rax,-0x1c0(%rbp)
    f396:	48 8d 05 ef 0d 01 00 	lea    0x10def(%rip),%rax        # 2018c <g_44+0xc>
    f39d:	48 89 85 48 fe ff ff 	mov    %rax,-0x1b8(%rbp)
    f3a4:	48 8d 85 14 ef ff ff 	lea    -0x10ec(%rbp),%rax
    f3ab:	48 89 85 50 fe ff ff 	mov    %rax,-0x1b0(%rbp)
    f3b2:	48 8d 85 14 ef ff ff 	lea    -0x10ec(%rbp),%rax
    f3b9:	48 89 85 58 fe ff ff 	mov    %rax,-0x1a8(%rbp)
    f3c0:	48 8d 85 14 ef ff ff 	lea    -0x10ec(%rbp),%rax
    f3c7:	48 89 85 60 fe ff ff 	mov    %rax,-0x1a0(%rbp)
    f3ce:	48 8d 05 ab 0d 01 00 	lea    0x10dab(%rip),%rax        # 20180 <g_44>
    f3d5:	48 89 85 68 fe ff ff 	mov    %rax,-0x198(%rbp)
    f3dc:	48 c7 85 70 fe ff ff 	movq   $0x0,-0x190(%rbp)
    f3e3:	00 00 00 00 
    f3e7:	48 8d 85 14 ef ff ff 	lea    -0x10ec(%rbp),%rax
    f3ee:	48 89 85 78 fe ff ff 	mov    %rax,-0x188(%rbp)
    f3f5:	48 8d 85 14 ef ff ff 	lea    -0x10ec(%rbp),%rax
    f3fc:	48 89 85 80 fe ff ff 	mov    %rax,-0x180(%rbp)
    f403:	48 8d 05 82 0d 01 00 	lea    0x10d82(%rip),%rax        # 2018c <g_44+0xc>
    f40a:	48 89 85 88 fe ff ff 	mov    %rax,-0x178(%rbp)
    f411:	48 8d 05 68 0d 01 00 	lea    0x10d68(%rip),%rax        # 20180 <g_44>
    f418:	48 89 85 90 fe ff ff 	mov    %rax,-0x170(%rbp)
    f41f:	48 8d 05 5a 0d 01 00 	lea    0x10d5a(%rip),%rax        # 20180 <g_44>
    f426:	48 89 85 98 fe ff ff 	mov    %rax,-0x168(%rbp)
    f42d:	48 c7 85 a0 fe ff ff 	movq   $0x0,-0x160(%rbp)
    f434:	00 00 00 00 
    f438:	48 c7 85 a8 fe ff ff 	movq   $0x0,-0x158(%rbp)
    f43f:	00 00 00 00 
    f443:	48 8d 85 14 ef ff ff 	lea    -0x10ec(%rbp),%rax
    f44a:	48 89 85 b0 fe ff ff 	mov    %rax,-0x150(%rbp)
    f451:	48 8d 05 28 0d 01 00 	lea    0x10d28(%rip),%rax        # 20180 <g_44>
    f458:	48 89 85 b8 fe ff ff 	mov    %rax,-0x148(%rbp)
    f45f:	48 8d 85 30 f8 ff ff 	lea    -0x7d0(%rbp),%rax
    f466:	48 05 90 03 00 00    	add    $0x390,%rax
    f46c:	48 89 85 c0 ef ff ff 	mov    %rax,-0x1040(%rbp)
    f473:	48 8d 05 7e d0 00 00 	lea    0xd07e(%rip),%rax        # 1c4f8 <g_427>
    f47a:	48 89 85 c8 ef ff ff 	mov    %rax,-0x1038(%rbp)
    f481:	48 8d 05 30 f5 00 00 	lea    0xf530(%rip),%rax        # 1e9b8 <g_87>
    f488:	48 89 85 60 ef ff ff 	mov    %rax,-0x10a0(%rbp)
    f48f:	66 c7 85 10 ef ff ff 	movw   $0x160b,-0x10f0(%rbp)
    f496:	0b 16 
    f498:	c7 85 40 ef ff ff 00 	movl   $0x21bcef00,-0x10c0(%rbp)
    f49f:	ef bc 21 
    f4a2:	c7 85 50 f0 ff ff d4 	movl   $0xd40645d4,-0xfb0(%rbp)
    f4a9:	45 06 d4 
    f4ac:	c6 85 54 f0 ff ff 02 	movb   $0x2,-0xfac(%rbp)
    f4b3:	c7 85 55 f0 ff ff 15 	movl   $0x15060615,-0xfab(%rbp)
    f4ba:	06 06 15 
    f4bd:	c6 85 59 f0 ff ff fc 	movb   $0xfc,-0xfa7(%rbp)
    f4c4:	c7 85 5a f0 ff ff 15 	movl   $0x159a4515,-0xfa6(%rbp)
    f4cb:	45 9a 15 
    f4ce:	c6 85 5e f0 ff ff 02 	movb   $0x2,-0xfa2(%rbp)
    f4d5:	c7 85 5f f0 ff ff d4 	movl   $0xd40645d4,-0xfa1(%rbp)
    f4dc:	45 06 d4 
    f4df:	c6 85 63 f0 ff ff 02 	movb   $0x2,-0xf9d(%rbp)
    f4e6:	c7 85 64 f0 ff ff 15 	movl   $0x15060615,-0xf9c(%rbp)
    f4ed:	06 06 15 
    f4f0:	c6 85 68 f0 ff ff fc 	movb   $0xfc,-0xf98(%rbp)
    f4f7:	c7 85 69 f0 ff ff 15 	movl   $0x159a4515,-0xf97(%rbp)
    f4fe:	45 9a 15 
    f501:	c6 85 6d f0 ff ff 02 	movb   $0x2,-0xf93(%rbp)
    f508:	c7 85 6e f0 ff ff d4 	movl   $0xd40645d4,-0xf92(%rbp)
    f50f:	45 06 d4 
    f512:	c6 85 72 f0 ff ff 02 	movb   $0x2,-0xf8e(%rbp)
    f519:	c7 85 73 f0 ff ff 15 	movl   $0x15060615,-0xf8d(%rbp)
    f520:	06 06 15 
    f523:	c6 85 77 f0 ff ff fc 	movb   $0xfc,-0xf89(%rbp)
    f52a:	c7 85 78 f0 ff ff 15 	movl   $0x159a4515,-0xf88(%rbp)
    f531:	45 9a 15 
    f534:	c6 85 7c f0 ff ff 02 	movb   $0x2,-0xf84(%rbp)
    f53b:	c7 85 7d f0 ff ff d4 	movl   $0xd40645d4,-0xf83(%rbp)
    f542:	45 06 d4 
    f545:	c6 85 81 f0 ff ff 02 	movb   $0x2,-0xf7f(%rbp)
    f54c:	c7 85 82 f0 ff ff 15 	movl   $0x15060615,-0xf7e(%rbp)
    f553:	06 06 15 
    f556:	c6 85 86 f0 ff ff fc 	movb   $0xfc,-0xf7a(%rbp)
    f55d:	c7 85 87 f0 ff ff 15 	movl   $0x4f154515,-0xf79(%rbp)
    f564:	45 15 4f 
    f567:	c6 85 8b f0 ff ff ff 	movb   $0xff,-0xf75(%rbp)
    f56e:	c7 85 8c f0 ff ff 53 	movl   $0x536ed453,-0xf74(%rbp)
    f575:	d4 6e 53 
    f578:	c6 85 90 f0 ff ff ff 	movb   $0xff,-0xf70(%rbp)
    f57f:	c7 85 91 f0 ff ff 4f 	movl   $0x4f6e6e4f,-0xf6f(%rbp)
    f586:	6e 6e 4f 
    f589:	c6 85 95 f0 ff ff 93 	movb   $0x93,-0xf6b(%rbp)
    f590:	c7 85 96 f0 ff ff 4f 	movl   $0x4f15d44f,-0xf6a(%rbp)
    f597:	d4 15 4f 
    f59a:	c6 85 9a f0 ff ff ff 	movb   $0xff,-0xf66(%rbp)
    f5a1:	c7 85 9b f0 ff ff 53 	movl   $0x536ed453,-0xf65(%rbp)
    f5a8:	d4 6e 53 
    f5ab:	c6 85 9f f0 ff ff ff 	movb   $0xff,-0xf61(%rbp)
    f5b2:	c7 85 a0 f0 ff ff 4f 	movl   $0x4f6e6e4f,-0xf60(%rbp)
    f5b9:	6e 6e 4f 
    f5bc:	c6 85 a4 f0 ff ff 93 	movb   $0x93,-0xf5c(%rbp)
    f5c3:	c7 85 a5 f0 ff ff 4f 	movl   $0x4f15d44f,-0xf5b(%rbp)
    f5ca:	d4 15 4f 
    f5cd:	c6 85 a9 f0 ff ff ff 	movb   $0xff,-0xf57(%rbp)
    f5d4:	48 c7 85 68 ef ff ff 	movq   $0xfffffffffffffffd,-0x1098(%rbp)
    f5db:	fd ff ff ff 
    f5df:	c7 85 44 ef ff ff 15 	movl   $0x9a44e015,-0x10bc(%rbp)
    f5e6:	e0 44 9a 
    f5e9:	c7 85 18 ef ff ff 00 	movl   $0x0,-0x10e8(%rbp)
    f5f0:	00 00 00 
    f5f3:	c7 85 e0 ef ff ff 01 	movl   $0x1,-0x1020(%rbp)
    f5fa:	00 00 00 
    f5fd:	c7 85 e4 ef ff ff fe 	movl   $0xfffffffe,-0x101c(%rbp)
    f604:	ff ff ff 
    f607:	c7 85 e8 ef ff ff 01 	movl   $0x1,-0x1018(%rbp)
    f60e:	00 00 00 
    f611:	c7 85 ec ef ff ff 01 	movl   $0x1,-0x1014(%rbp)
    f618:	00 00 00 
    f61b:	c7 85 f0 ef ff ff fe 	movl   $0xfffffffe,-0x1010(%rbp)
    f622:	ff ff ff 
    f625:	c7 85 f4 ef ff ff 01 	movl   $0x1,-0x100c(%rbp)
    f62c:	00 00 00 
    f62f:	c7 85 f8 ef ff ff 01 	movl   $0x1,-0x1008(%rbp)
    f636:	00 00 00 
    f639:	c6 85 0c ef ff ff 03 	movb   $0x3,-0x10f4(%rbp)
    f640:	c6 85 0d ef ff ff 00 	movb   $0x0,-0x10f3(%rbp)
    f647:	66 c7 85 12 ef ff ff 	movw   $0xedd9,-0x10ee(%rbp)
    f64e:	d9 ed 
    f650:	48 8d 85 b0 f0 ff ff 	lea    -0xf50(%rbp),%rax
    f657:	48 8d 15 02 f1 00 00 	lea    0xf102(%rip),%rdx        # 1e760 <g_2462+0x2c0>
    f65e:	b9 48 00 00 00       	mov    $0x48,%ecx
    f663:	48 89 c7             	mov    %rax,%rdi
    f666:	48 89 d6             	mov    %rdx,%rsi
    f669:	f3 48 a5             	rep movsq %ds:(%rsi),%es:(%rdi)
    f66c:	48 8d 05 75 cd 00 00 	lea    0xcd75(%rip),%rax        # 1c3e8 <g_320>
    f673:	48 89 85 20 f0 ff ff 	mov    %rax,-0xfe0(%rbp)
    f67a:	48 8d 05 67 cd 00 00 	lea    0xcd67(%rip),%rax        # 1c3e8 <g_320>
    f681:	48 89 85 28 f0 ff ff 	mov    %rax,-0xfd8(%rbp)
    f688:	48 8d 05 59 cd 00 00 	lea    0xcd59(%rip),%rax        # 1c3e8 <g_320>
    f68f:	48 89 85 30 f0 ff ff 	mov    %rax,-0xfd0(%rbp)
    f696:	48 8d 05 4b cd 00 00 	lea    0xcd4b(%rip),%rax        # 1c3e8 <g_320>
    f69d:	48 89 85 38 f0 ff ff 	mov    %rax,-0xfc8(%rbp)
    f6a4:	48 8d 05 3d cd 00 00 	lea    0xcd3d(%rip),%rax        # 1c3e8 <g_320>
    f6ab:	48 89 85 40 f0 ff ff 	mov    %rax,-0xfc0(%rbp)
    f6b2:	c7 85 48 ef ff ff 09 	movl   $0x9,-0x10b8(%rbp)
    f6b9:	00 00 00 
    f6bc:	c7 85 4c ef ff ff fd 	movl   $0xfffffffd,-0x10b4(%rbp)
    f6c3:	ff ff ff 
    f6c6:	c7 85 38 ef ff ff 00 	movl   $0x0,-0x10c8(%rbp)
    f6cd:	00 00 00 
    f6d0:	eb 46                	jmp    f718 <func_37+0xe4b>
    f6d2:	c7 85 34 ef ff ff 00 	movl   $0x0,-0x10cc(%rbp)
    f6d9:	00 00 00 
    f6dc:	eb 2a                	jmp    f708 <func_37+0xe3b>
    f6de:	8b 85 34 ef ff ff    	mov    -0x10cc(%rbp),%eax
    f6e4:	48 63 d0             	movslq %eax,%rdx
    f6e7:	8b 85 38 ef ff ff    	mov    -0x10c8(%rbp),%eax
    f6ed:	48 98                	cltq   
    f6ef:	48 01 d0             	add    %rdx,%rax
    f6f2:	48 8d 15 87 c9 00 00 	lea    0xc987(%rip),%rdx        # 1c080 <g_252>
    f6f9:	48 89 94 c5 d8 ef ff 	mov    %rdx,-0x1028(%rbp,%rax,8)
    f700:	ff 
    f701:	83 85 34 ef ff ff 01 	addl   $0x1,-0x10cc(%rbp)
    f708:	83 bd 34 ef ff ff 00 	cmpl   $0x0,-0x10cc(%rbp)
    f70f:	7e cd                	jle    f6de <func_37+0xe11>
    f711:	83 85 38 ef ff ff 01 	addl   $0x1,-0x10c8(%rbp)
    f718:	83 bd 38 ef ff ff 00 	cmpl   $0x0,-0x10c8(%rbp)
    f71f:	7e b1                	jle    f6d2 <func_37+0xe05>
    f721:	48 8b 05 78 f2 00 00 	mov    0xf278(%rip),%rax        # 1e9a0 <g_52>
    f728:	8b 08                	mov    (%rax),%ecx
    f72a:	48 8b 85 50 ef ff ff 	mov    -0x10b0(%rbp),%rax
    f731:	8b 10                	mov    (%rax),%edx
    f733:	48 8b 85 50 ef ff ff 	mov    -0x10b0(%rbp),%rax
    f73a:	21 ca                	and    %ecx,%edx
    f73c:	89 10                	mov    %edx,(%rax)
    f73e:	48 8b 85 c0 ef ff ff 	mov    -0x1040(%rbp),%rax
    f745:	48 8b 95 e8 ee ff ff 	mov    -0x1118(%rbp),%rdx
    f74c:	48 89 10             	mov    %rdx,(%rax)
    f74f:	48 8b 85 c0 ef ff ff 	mov    -0x1040(%rbp),%rax
    f756:	48 8b 10             	mov    (%rax),%rdx
    f759:	0f b6 85 0b ef ff ff 	movzbl -0x10f5(%rbp),%eax
    f760:	0f be c8             	movsbl %al,%ecx
    f763:	48 8b 85 58 ef ff ff 	mov    -0x10a8(%rbp),%rax
    f76a:	0f b6 30             	movzbl (%rax),%esi
    f76d:	83 c6 01             	add    $0x1,%esi
    f770:	40 88 30             	mov    %sil,(%rax)
    f773:	0f b6 00             	movzbl (%rax),%eax
    f776:	0f b6 c0             	movzbl %al,%eax
    f779:	39 c1                	cmp    %eax,%ecx
    f77b:	0f 9f c0             	setg   %al
    f77e:	0f b6 c8             	movzbl %al,%ecx
    f781:	8b 85 14 ef ff ff    	mov    -0x10ec(%rbp),%eax
    f787:	39 c1                	cmp    %eax,%ecx
    f789:	0f 95 c0             	setne  %al
    f78c:	0f b6 c0             	movzbl %al,%eax
    f78f:	48 8b 8d e8 ee ff ff 	mov    -0x1118(%rbp),%rcx
    f796:	48 8d 35 9b c8 00 00 	lea    0xc89b(%rip),%rsi        # 1c038 <g_53>
    f79d:	89 c7                	mov    %eax,%edi
    f79f:	e8 e0 0f 00 00       	callq  10784 <func_61>
    f7a4:	48 89 85 c8 ef ff ff 	mov    %rax,-0x1038(%rbp)
    f7ab:	48 8b 9d 60 ef ff ff 	mov    -0x10a0(%rbp),%rbx
    f7b2:	48 8b 85 c8 ef ff ff 	mov    -0x1038(%rbp),%rax
    f7b9:	48 89 c7             	mov    %rax,%rdi
    f7bc:	e8 a3 0c 00 00       	callq  10464 <func_59>
    f7c1:	48 89 03             	mov    %rax,(%rbx)
    f7c4:	0f b6 85 96 f0 ff ff 	movzbl -0xf6a(%rbp),%eax
    f7cb:	0f be d8             	movsbl %al,%ebx
    f7ce:	48 8b 85 60 ef ff ff 	mov    -0x10a0(%rbp),%rax
    f7d5:	48 8b 00             	mov    (%rax),%rax
    f7d8:	8b 00                	mov    (%rax),%eax
    f7da:	41 89 c7             	mov    %eax,%r15d
    f7dd:	0f b7 85 fc ee ff ff 	movzwl -0x1104(%rbp),%eax
    f7e4:	44 0f bf e0          	movswl %ax,%r12d
    f7e8:	4c 8b ad f0 ee ff ff 	mov    -0x1110(%rbp),%r13
    f7ef:	48 8b 85 f0 ee ff ff 	mov    -0x1110(%rbp),%rax
    f7f6:	44 0f be f0          	movsbl %al,%r14d
    f7fa:	0f b7 85 10 ef ff ff 	movzwl -0x10f0(%rbp),%eax
    f801:	0f bf d0             	movswl %ax,%edx
    f804:	48 8b 85 50 ef ff ff 	mov    -0x10b0(%rbp),%rax
    f80b:	8b 00                	mov    (%rax),%eax
    f80d:	48 63 c8             	movslq %eax,%rcx
    f810:	48 8b 85 f0 ee ff ff 	mov    -0x1110(%rbp),%rax
    f817:	48 39 c1             	cmp    %rax,%rcx
    f81a:	0f 9d c0             	setge  %al
    f81d:	0f b6 c0             	movzbl %al,%eax
    f820:	89 d6                	mov    %edx,%esi
    f822:	89 c7                	mov    %eax,%edi
    f824:	e8 cc 5b ff ff       	callq  53f5 <safe_mul_func_int16_t_s_s>
    f829:	89 c2                	mov    %eax,%edx
    f82b:	0f b7 85 fc ee ff ff 	movzwl -0x1104(%rbp),%eax
    f832:	21 d0                	and    %edx,%eax
    f834:	0f be c0             	movsbl %al,%eax
    f837:	44 89 f6             	mov    %r14d,%esi
    f83a:	89 c7                	mov    %eax,%edi
    f83c:	e8 b1 59 ff ff       	callq  51f2 <safe_sub_func_int8_t_s_s>
    f841:	48 0f be c0          	movsbq %al,%rax
    f845:	4c 89 ee             	mov    %r13,%rsi
    f848:	48 89 c7             	mov    %rax,%rdi
    f84b:	e8 64 61 ff ff       	callq  59b4 <safe_mod_func_int64_t_s_s>
    f850:	48 89 c2             	mov    %rax,%rdx
    f853:	48 8b 05 66 f1 00 00 	mov    0xf166(%rip),%rax        # 1e9c0 <g_213>
    f85a:	0f b6 08             	movzbl (%rax),%ecx
    f85d:	48 8b 05 5c f1 00 00 	mov    0xf15c(%rip),%rax        # 1e9c0 <g_213>
    f864:	09 ca                	or     %ecx,%edx
    f866:	88 10                	mov    %dl,(%rax)
    f868:	0f b6 00             	movzbl (%rax),%eax
    f86b:	0f be c0             	movsbl %al,%eax
    f86e:	be 01 00 00 00       	mov    $0x1,%esi
    f873:	89 c7                	mov    %eax,%edi
    f875:	e8 78 59 ff ff       	callq  51f2 <safe_sub_func_int8_t_s_s>
    f87a:	0f be c0             	movsbl %al,%eax
    f87d:	44 89 e6             	mov    %r12d,%esi
    f880:	89 c7                	mov    %eax,%edi
    f882:	e8 6e 5b ff ff       	callq  53f5 <safe_mul_func_int16_t_s_s>
    f887:	be 01 00 00 00       	mov    $0x1,%esi
    f88c:	bf 00 00 00 00       	mov    $0x0,%edi
    f891:	e8 5c 59 ff ff       	callq  51f2 <safe_sub_func_int8_t_s_s>
    f896:	0f be c0             	movsbl %al,%eax
    f899:	89 c6                	mov    %eax,%esi
    f89b:	bf 01 00 00 00       	mov    $0x1,%edi
    f8a0:	e8 3c 5c ff ff       	callq  54e1 <safe_lshift_func_int16_t_s_u>
    f8a5:	66 85 c0             	test   %ax,%ax
    f8a8:	75 0d                	jne    f8b7 <func_37+0xfea>
    f8aa:	48 8b 85 50 ef ff ff 	mov    -0x10b0(%rbp),%rax
    f8b1:	8b 00                	mov    (%rax),%eax
    f8b3:	85 c0                	test   %eax,%eax
    f8b5:	74 07                	je     f8be <func_37+0xff1>
    f8b7:	ba 01 00 00 00       	mov    $0x1,%edx
    f8bc:	eb 05                	jmp    f8c3 <func_37+0xff6>
    f8be:	ba 00 00 00 00       	mov    $0x0,%edx
    f8c3:	48 8d 05 66 c7 00 00 	lea    0xc766(%rip),%rax        # 1c030 <g_14>
    f8ca:	0f b6 00             	movzbl (%rax),%eax
    f8cd:	0f be c0             	movsbl %al,%eax
    f8d0:	39 c2                	cmp    %eax,%edx
    f8d2:	0f 9c c0             	setl   %al
    f8d5:	0f b6 c0             	movzbl %al,%eax
    f8d8:	be 01 00 00 00       	mov    $0x1,%esi
    f8dd:	89 c7                	mov    %eax,%edi
    f8df:	e8 af 62 ff ff       	callq  5b93 <safe_mul_func_uint8_t_u_u>
    f8e4:	44 89 fe             	mov    %r15d,%esi
    f8e7:	bf 00 00 00 00       	mov    $0x0,%edi
    f8ec:	e8 df 65 ff ff       	callq  5ed0 <safe_sub_func_uint32_t_u_u>
    f8f1:	48 8b 95 60 ef ff ff 	mov    -0x10a0(%rbp),%rdx
    f8f8:	48 8b 12             	mov    (%rdx),%rdx
    f8fb:	8b 12                	mov    (%rdx),%edx
    f8fd:	39 d0                	cmp    %edx,%eax
    f8ff:	0f 94 c0             	sete   %al
    f902:	0f b6 c0             	movzbl %al,%eax
    f905:	39 85 40 ef ff ff    	cmp    %eax,-0x10c0(%rbp)
    f90b:	0f 9f c0             	setg   %al
    f90e:	0f b6 c0             	movzbl %al,%eax
    f911:	39 85 f8 ee ff ff    	cmp    %eax,-0x1108(%rbp)
    f917:	0f 94 c0             	sete   %al
    f91a:	0f b6 c0             	movzbl %al,%eax
    f91d:	33 85 f8 ee ff ff    	xor    -0x1108(%rbp),%eax
    f923:	89 c2                	mov    %eax,%edx
    f925:	48 8b 05 8c f0 00 00 	mov    0xf08c(%rip),%rax        # 1e9b8 <g_87>
    f92c:	89 10                	mov    %edx,(%rax)
    f92e:	8b 00                	mov    (%rax),%eax
    f930:	83 f0 fc             	xor    $0xfffffffc,%eax
    f933:	0f be c0             	movsbl %al,%eax
    f936:	be 09 00 00 00       	mov    $0x9,%esi
    f93b:	89 c7                	mov    %eax,%edi
    f93d:	e8 28 59 ff ff       	callq  526a <safe_div_func_int8_t_s_s>
    f942:	84 c0                	test   %al,%al
    f944:	75 0c                	jne    f952 <func_37+0x1085>
    f946:	0f b7 05 6b 08 01 00 	movzwl 0x1086b(%rip),%eax        # 201b8 <g_421>
    f94d:	66 85 c0             	test   %ax,%ax
    f950:	74 07                	je     f959 <func_37+0x108c>
    f952:	b8 01 00 00 00       	mov    $0x1,%eax
    f957:	eb 05                	jmp    f95e <func_37+0x1091>
    f959:	b8 00 00 00 00       	mov    $0x0,%eax
    f95e:	89 c2                	mov    %eax,%edx
    f960:	48 8b 85 f0 ee ff ff 	mov    -0x1110(%rbp),%rax
    f967:	09 d0                	or     %edx,%eax
    f969:	0f be c0             	movsbl %al,%eax
    f96c:	89 de                	mov    %ebx,%esi
    f96e:	89 c7                	mov    %eax,%edi
    f970:	e8 79 59 ff ff       	callq  52ee <safe_lshift_func_int8_t_s_u>
    f975:	0f b7 05 12 cb 00 00 	movzwl 0xcb12(%rip),%eax        # 1c48e <g_423+0x6e>
    f97c:	0f b7 c0             	movzwl %ax,%eax
    f97f:	89 c6                	mov    %eax,%esi
    f981:	bf fa ff 00 00       	mov    $0xfffa,%edi
    f986:	e8 d1 63 ff ff       	callq  5d5c <safe_mod_func_uint16_t_u_u>
    f98b:	48 8b 85 60 ef ff ff 	mov    -0x10a0(%rbp),%rax
    f992:	48 8b 00             	mov    (%rax),%rax
    f995:	8b 00                	mov    (%rax),%eax
    f997:	89 05 e3 c6 00 00    	mov    %eax,0xc6e3(%rip)        # 1c080 <g_252>
    f99d:	48 8b 05 5c ca 00 00 	mov    0xca5c(%rip),%rax        # 1c400 <g_380+0x8>
    f9a4:	48 c7 85 b8 ef ff ff 	movq   $0x0,-0x1048(%rbp)
    f9ab:	00 00 00 00 
    f9af:	c7 85 3c ef ff ff 00 	movl   $0x0,-0x10c4(%rbp)
    f9b6:	00 00 00 
    f9b9:	48 c7 85 f0 f2 ff ff 	movq   $0x0,-0xd10(%rbp)
    f9c0:	00 00 00 00 
    f9c4:	48 c7 85 f8 f2 ff ff 	movq   $0x0,-0xd08(%rbp)
    f9cb:	00 00 00 00 
    f9cf:	48 c7 85 00 f3 ff ff 	movq   $0x0,-0xd00(%rbp)
    f9d6:	00 00 00 00 
    f9da:	48 c7 85 08 f3 ff ff 	movq   $0x0,-0xcf8(%rbp)
    f9e1:	00 00 00 00 
    f9e5:	48 8d 85 68 ef ff ff 	lea    -0x1098(%rbp),%rax
    f9ec:	48 89 85 10 f3 ff ff 	mov    %rax,-0xcf0(%rbp)
    f9f3:	48 8d 05 fe ca 00 00 	lea    0xcafe(%rip),%rax        # 1c4f8 <g_427>
    f9fa:	48 89 85 18 f3 ff ff 	mov    %rax,-0xce8(%rbp)
    fa01:	48 c7 85 20 f3 ff ff 	movq   $0x0,-0xce0(%rbp)
    fa08:	00 00 00 00 
    fa0c:	48 c7 85 28 f3 ff ff 	movq   $0x0,-0xcd8(%rbp)
    fa13:	00 00 00 00 
    fa17:	48 8d 85 68 ef ff ff 	lea    -0x1098(%rbp),%rax
    fa1e:	48 89 85 30 f3 ff ff 	mov    %rax,-0xcd0(%rbp)
    fa25:	48 c7 85 38 f3 ff ff 	movq   $0x0,-0xcc8(%rbp)
    fa2c:	00 00 00 00 
    fa30:	48 8d 85 68 ef ff ff 	lea    -0x1098(%rbp),%rax
    fa37:	48 89 85 40 f3 ff ff 	mov    %rax,-0xcc0(%rbp)
    fa3e:	48 8d 85 68 ef ff ff 	lea    -0x1098(%rbp),%rax
    fa45:	48 89 85 48 f3 ff ff 	mov    %rax,-0xcb8(%rbp)
    fa4c:	48 8d 05 d5 c5 00 00 	lea    0xc5d5(%rip),%rax        # 1c028 <g_11>
    fa53:	48 89 85 50 f3 ff ff 	mov    %rax,-0xcb0(%rbp)
    fa5a:	48 c7 85 58 f3 ff ff 	movq   $0x0,-0xca8(%rbp)
    fa61:	00 00 00 00 
    fa65:	48 8d 85 68 ef ff ff 	lea    -0x1098(%rbp),%rax
    fa6c:	48 89 85 60 f3 ff ff 	mov    %rax,-0xca0(%rbp)
    fa73:	48 8d 85 68 ef ff ff 	lea    -0x1098(%rbp),%rax
    fa7a:	48 89 85 68 f3 ff ff 	mov    %rax,-0xc98(%rbp)
    fa81:	48 8d 85 68 ef ff ff 	lea    -0x1098(%rbp),%rax
    fa88:	48 89 85 70 f3 ff ff 	mov    %rax,-0xc90(%rbp)
    fa8f:	48 8d 05 92 c5 00 00 	lea    0xc592(%rip),%rax        # 1c028 <g_11>
    fa96:	48 89 85 78 f3 ff ff 	mov    %rax,-0xc88(%rbp)
    fa9d:	48 8d 85 68 ef ff ff 	lea    -0x1098(%rbp),%rax
    faa4:	48 89 85 80 f3 ff ff 	mov    %rax,-0xc80(%rbp)
    faab:	48 c7 85 88 f3 ff ff 	movq   $0x0,-0xc78(%rbp)
    fab2:	00 00 00 00 
    fab6:	48 c7 85 90 f3 ff ff 	movq   $0x0,-0xc70(%rbp)
    fabd:	00 00 00 00 
    fac1:	48 8d 05 30 ca 00 00 	lea    0xca30(%rip),%rax        # 1c4f8 <g_427>
    fac8:	48 89 85 98 f3 ff ff 	mov    %rax,-0xc68(%rbp)
    facf:	48 8d 05 22 ca 00 00 	lea    0xca22(%rip),%rax        # 1c4f8 <g_427>
    fad6:	48 89 85 a0 f3 ff ff 	mov    %rax,-0xc60(%rbp)
    fadd:	48 8d 85 68 ef ff ff 	lea    -0x1098(%rbp),%rax
    fae4:	48 89 85 a8 f3 ff ff 	mov    %rax,-0xc58(%rbp)
    faeb:	48 8d 05 06 ca 00 00 	lea    0xca06(%rip),%rax        # 1c4f8 <g_427>
    faf2:	48 89 85 b0 f3 ff ff 	mov    %rax,-0xc50(%rbp)
    faf9:	48 c7 85 b8 f3 ff ff 	movq   $0x0,-0xc48(%rbp)
    fb00:	00 00 00 00 
    fb04:	48 8d 85 68 ef ff ff 	lea    -0x1098(%rbp),%rax
    fb0b:	48 89 85 c0 f3 ff ff 	mov    %rax,-0xc40(%rbp)
    fb12:	48 8d 85 68 ef ff ff 	lea    -0x1098(%rbp),%rax
    fb19:	48 89 85 c8 f3 ff ff 	mov    %rax,-0xc38(%rbp)
    fb20:	48 8d 85 68 ef ff ff 	lea    -0x1098(%rbp),%rax
    fb27:	48 89 85 d0 f3 ff ff 	mov    %rax,-0xc30(%rbp)
    fb2e:	48 c7 85 d8 f3 ff ff 	movq   $0x0,-0xc28(%rbp)
    fb35:	00 00 00 00 
    fb39:	48 8d 05 b8 c9 00 00 	lea    0xc9b8(%rip),%rax        # 1c4f8 <g_427>
    fb40:	48 89 85 e0 f3 ff ff 	mov    %rax,-0xc20(%rbp)
    fb47:	48 8d 05 aa c9 00 00 	lea    0xc9aa(%rip),%rax        # 1c4f8 <g_427>
    fb4e:	48 89 85 e8 f3 ff ff 	mov    %rax,-0xc18(%rbp)
    fb55:	48 8d 85 68 ef ff ff 	lea    -0x1098(%rbp),%rax
    fb5c:	48 89 85 f0 f3 ff ff 	mov    %rax,-0xc10(%rbp)
    fb63:	48 8d 85 68 ef ff ff 	lea    -0x1098(%rbp),%rax
    fb6a:	48 89 85 f8 f3 ff ff 	mov    %rax,-0xc08(%rbp)
    fb71:	48 8d 05 80 c9 00 00 	lea    0xc980(%rip),%rax        # 1c4f8 <g_427>
    fb78:	48 89 85 00 f4 ff ff 	mov    %rax,-0xc00(%rbp)
    fb7f:	48 c7 85 08 f4 ff ff 	movq   $0x0,-0xbf8(%rbp)
    fb86:	00 00 00 00 
    fb8a:	48 8d 85 68 ef ff ff 	lea    -0x1098(%rbp),%rax
    fb91:	48 89 85 10 f4 ff ff 	mov    %rax,-0xbf0(%rbp)
    fb98:	48 8d 05 59 c9 00 00 	lea    0xc959(%rip),%rax        # 1c4f8 <g_427>
    fb9f:	48 89 85 18 f4 ff ff 	mov    %rax,-0xbe8(%rbp)
    fba6:	48 8d 05 4b c9 00 00 	lea    0xc94b(%rip),%rax        # 1c4f8 <g_427>
    fbad:	48 89 85 20 f4 ff ff 	mov    %rax,-0xbe0(%rbp)
    fbb4:	48 8d 05 3d c9 00 00 	lea    0xc93d(%rip),%rax        # 1c4f8 <g_427>
    fbbb:	48 89 85 28 f4 ff ff 	mov    %rax,-0xbd8(%rbp)
    fbc2:	48 8d 85 68 ef ff ff 	lea    -0x1098(%rbp),%rax
    fbc9:	48 89 85 30 f4 ff ff 	mov    %rax,-0xbd0(%rbp)
    fbd0:	48 8d 85 68 ef ff ff 	lea    -0x1098(%rbp),%rax
    fbd7:	48 89 85 38 f4 ff ff 	mov    %rax,-0xbc8(%rbp)
    fbde:	48 8d 05 13 c9 00 00 	lea    0xc913(%rip),%rax        # 1c4f8 <g_427>
    fbe5:	48 89 85 40 f4 ff ff 	mov    %rax,-0xbc0(%rbp)
    fbec:	48 8d 85 68 ef ff ff 	lea    -0x1098(%rbp),%rax
    fbf3:	48 89 85 48 f4 ff ff 	mov    %rax,-0xbb8(%rbp)
    fbfa:	48 8d 05 27 c4 00 00 	lea    0xc427(%rip),%rax        # 1c028 <g_11>
    fc01:	48 89 85 50 f4 ff ff 	mov    %rax,-0xbb0(%rbp)
    fc08:	48 8d 85 68 ef ff ff 	lea    -0x1098(%rbp),%rax
    fc0f:	48 89 85 58 f4 ff ff 	mov    %rax,-0xba8(%rbp)
    fc16:	48 8d 05 db c8 00 00 	lea    0xc8db(%rip),%rax        # 1c4f8 <g_427>
    fc1d:	48 89 85 60 f4 ff ff 	mov    %rax,-0xba0(%rbp)
    fc24:	48 8d 05 cd c8 00 00 	lea    0xc8cd(%rip),%rax        # 1c4f8 <g_427>
    fc2b:	48 89 85 68 f4 ff ff 	mov    %rax,-0xb98(%rbp)
    fc32:	48 8d 05 ef c3 00 00 	lea    0xc3ef(%rip),%rax        # 1c028 <g_11>
    fc39:	48 89 85 70 f4 ff ff 	mov    %rax,-0xb90(%rbp)
    fc40:	48 8d 85 68 ef ff ff 	lea    -0x1098(%rbp),%rax
    fc47:	48 89 85 78 f4 ff ff 	mov    %rax,-0xb88(%rbp)
    fc4e:	48 8d 05 d3 c3 00 00 	lea    0xc3d3(%rip),%rax        # 1c028 <g_11>
    fc55:	48 89 85 80 f4 ff ff 	mov    %rax,-0xb80(%rbp)
    fc5c:	48 8d 85 68 ef ff ff 	lea    -0x1098(%rbp),%rax
    fc63:	48 89 85 88 f4 ff ff 	mov    %rax,-0xb78(%rbp)
    fc6a:	48 8d 05 b7 c3 00 00 	lea    0xc3b7(%rip),%rax        # 1c028 <g_11>
    fc71:	48 89 85 90 f4 ff ff 	mov    %rax,-0xb70(%rbp)
    fc78:	48 8d 85 68 ef ff ff 	lea    -0x1098(%rbp),%rax
    fc7f:	48 89 85 98 f4 ff ff 	mov    %rax,-0xb68(%rbp)
    fc86:	48 8d 05 9b c3 00 00 	lea    0xc39b(%rip),%rax        # 1c028 <g_11>
    fc8d:	48 89 85 a0 f4 ff ff 	mov    %rax,-0xb60(%rbp)
    fc94:	48 8d 05 5d c8 00 00 	lea    0xc85d(%rip),%rax        # 1c4f8 <g_427>
    fc9b:	48 89 85 a8 f4 ff ff 	mov    %rax,-0xb58(%rbp)
    fca2:	48 8d 05 4f c8 00 00 	lea    0xc84f(%rip),%rax        # 1c4f8 <g_427>
    fca9:	48 89 85 b0 f4 ff ff 	mov    %rax,-0xb50(%rbp)
    fcb0:	48 8d 05 71 c3 00 00 	lea    0xc371(%rip),%rax        # 1c028 <g_11>
    fcb7:	48 89 85 b8 f4 ff ff 	mov    %rax,-0xb48(%rbp)
    fcbe:	48 8d 85 68 ef ff ff 	lea    -0x1098(%rbp),%rax
    fcc5:	48 89 85 c0 f4 ff ff 	mov    %rax,-0xb40(%rbp)
    fccc:	48 c7 85 c8 f4 ff ff 	movq   $0x0,-0xb38(%rbp)
    fcd3:	00 00 00 00 
    fcd7:	48 8d 05 1a c8 00 00 	lea    0xc81a(%rip),%rax        # 1c4f8 <g_427>
    fcde:	48 89 85 d0 f4 ff ff 	mov    %rax,-0xb30(%rbp)
    fce5:	48 8d 85 68 ef ff ff 	lea    -0x1098(%rbp),%rax
    fcec:	48 89 85 d8 f4 ff ff 	mov    %rax,-0xb28(%rbp)
    fcf3:	48 c7 85 e0 f4 ff ff 	movq   $0x0,-0xb20(%rbp)
    fcfa:	00 00 00 00 
    fcfe:	48 8d 85 68 ef ff ff 	lea    -0x1098(%rbp),%rax
    fd05:	48 89 85 e8 f4 ff ff 	mov    %rax,-0xb18(%rbp)
    fd0c:	48 8d 85 68 ef ff ff 	lea    -0x1098(%rbp),%rax
    fd13:	48 89 85 f0 f4 ff ff 	mov    %rax,-0xb10(%rbp)
    fd1a:	48 8d 05 07 c3 00 00 	lea    0xc307(%rip),%rax        # 1c028 <g_11>
    fd21:	48 89 85 f8 f4 ff ff 	mov    %rax,-0xb08(%rbp)
    fd28:	48 8d 05 c9 c7 00 00 	lea    0xc7c9(%rip),%rax        # 1c4f8 <g_427>
    fd2f:	48 89 85 00 f5 ff ff 	mov    %rax,-0xb00(%rbp)
    fd36:	48 8d 05 bb c7 00 00 	lea    0xc7bb(%rip),%rax        # 1c4f8 <g_427>
    fd3d:	48 89 85 08 f5 ff ff 	mov    %rax,-0xaf8(%rbp)
    fd44:	48 8d 05 ad c7 00 00 	lea    0xc7ad(%rip),%rax        # 1c4f8 <g_427>
    fd4b:	48 89 85 10 f5 ff ff 	mov    %rax,-0xaf0(%rbp)
    fd52:	48 8d 05 cf c2 00 00 	lea    0xc2cf(%rip),%rax        # 1c028 <g_11>
    fd59:	48 89 85 18 f5 ff ff 	mov    %rax,-0xae8(%rbp)
    fd60:	48 8d 85 68 ef ff ff 	lea    -0x1098(%rbp),%rax
    fd67:	48 89 85 20 f5 ff ff 	mov    %rax,-0xae0(%rbp)
    fd6e:	48 8d 85 68 ef ff ff 	lea    -0x1098(%rbp),%rax
    fd75:	48 89 85 28 f5 ff ff 	mov    %rax,-0xad8(%rbp)
    fd7c:	48 8d 05 75 c7 00 00 	lea    0xc775(%rip),%rax        # 1c4f8 <g_427>
    fd83:	48 89 85 30 f5 ff ff 	mov    %rax,-0xad0(%rbp)
    fd8a:	48 8d 85 68 ef ff ff 	lea    -0x1098(%rbp),%rax
    fd91:	48 89 85 38 f5 ff ff 	mov    %rax,-0xac8(%rbp)
    fd98:	48 8d 85 68 ef ff ff 	lea    -0x1098(%rbp),%rax
    fd9f:	48 89 85 40 f5 ff ff 	mov    %rax,-0xac0(%rbp)
    fda6:	48 8d 85 68 ef ff ff 	lea    -0x1098(%rbp),%rax
    fdad:	48 89 85 48 f5 ff ff 	mov    %rax,-0xab8(%rbp)
    fdb4:	48 8d 05 6d c2 00 00 	lea    0xc26d(%rip),%rax        # 1c028 <g_11>
    fdbb:	48 89 85 50 f5 ff ff 	mov    %rax,-0xab0(%rbp)
    fdc2:	48 c7 85 58 f5 ff ff 	movq   $0x0,-0xaa8(%rbp)
    fdc9:	00 00 00 00 
    fdcd:	48 8d 85 68 ef ff ff 	lea    -0x1098(%rbp),%rax
    fdd4:	48 89 85 60 f5 ff ff 	mov    %rax,-0xaa0(%rbp)
    fddb:	48 8d 05 46 c2 00 00 	lea    0xc246(%rip),%rax        # 1c028 <g_11>
    fde2:	48 89 85 68 f5 ff ff 	mov    %rax,-0xa98(%rbp)
    fde9:	48 8d 05 38 c2 00 00 	lea    0xc238(%rip),%rax        # 1c028 <g_11>
    fdf0:	48 89 85 70 f5 ff ff 	mov    %rax,-0xa90(%rbp)
    fdf7:	48 8d 05 2a c2 00 00 	lea    0xc22a(%rip),%rax        # 1c028 <g_11>
    fdfe:	48 89 85 78 f5 ff ff 	mov    %rax,-0xa88(%rbp)
    fe05:	48 8d 05 ec c6 00 00 	lea    0xc6ec(%rip),%rax        # 1c4f8 <g_427>
    fe0c:	48 89 85 80 f5 ff ff 	mov    %rax,-0xa80(%rbp)
    fe13:	48 8d 05 0e c2 00 00 	lea    0xc20e(%rip),%rax        # 1c028 <g_11>
    fe1a:	48 89 85 88 f5 ff ff 	mov    %rax,-0xa78(%rbp)
    fe21:	48 8d 05 d0 c6 00 00 	lea    0xc6d0(%rip),%rax        # 1c4f8 <g_427>
    fe28:	48 89 85 90 f5 ff ff 	mov    %rax,-0xa70(%rbp)
    fe2f:	48 8d 05 c2 c6 00 00 	lea    0xc6c2(%rip),%rax        # 1c4f8 <g_427>
    fe36:	48 89 85 98 f5 ff ff 	mov    %rax,-0xa68(%rbp)
    fe3d:	48 8d 85 68 ef ff ff 	lea    -0x1098(%rbp),%rax
    fe44:	48 89 85 a0 f5 ff ff 	mov    %rax,-0xa60(%rbp)
    fe4b:	48 8d 85 68 ef ff ff 	lea    -0x1098(%rbp),%rax
    fe52:	48 89 85 a8 f5 ff ff 	mov    %rax,-0xa58(%rbp)
    fe59:	48 8d 05 98 c6 00 00 	lea    0xc698(%rip),%rax        # 1c4f8 <g_427>
    fe60:	48 89 85 b0 f5 ff ff 	mov    %rax,-0xa50(%rbp)
    fe67:	48 8d 05 8a c6 00 00 	lea    0xc68a(%rip),%rax        # 1c4f8 <g_427>
    fe6e:	48 89 85 b8 f5 ff ff 	mov    %rax,-0xa48(%rbp)
    fe75:	48 8d 05 ac c1 00 00 	lea    0xc1ac(%rip),%rax        # 1c028 <g_11>
    fe7c:	48 89 85 c0 f5 ff ff 	mov    %rax,-0xa40(%rbp)
    fe83:	48 8d 85 68 ef ff ff 	lea    -0x1098(%rbp),%rax
    fe8a:	48 89 85 c8 f5 ff ff 	mov    %rax,-0xa38(%rbp)
    fe91:	48 c7 85 d0 f5 ff ff 	movq   $0x0,-0xa30(%rbp)
    fe98:	00 00 00 00 
    fe9c:	48 8d 05 85 c1 00 00 	lea    0xc185(%rip),%rax        # 1c028 <g_11>
    fea3:	48 89 85 d8 f5 ff ff 	mov    %rax,-0xa28(%rbp)
    feaa:	48 8d 05 77 c1 00 00 	lea    0xc177(%rip),%rax        # 1c028 <g_11>
    feb1:	48 89 85 e0 f5 ff ff 	mov    %rax,-0xa20(%rbp)
    feb8:	48 8d 05 69 c1 00 00 	lea    0xc169(%rip),%rax        # 1c028 <g_11>
    febf:	48 89 85 e8 f5 ff ff 	mov    %rax,-0xa18(%rbp)
    fec6:	48 8d 05 5b c1 00 00 	lea    0xc15b(%rip),%rax        # 1c028 <g_11>
    fecd:	48 89 85 f0 f5 ff ff 	mov    %rax,-0xa10(%rbp)
    fed4:	48 8d 05 1d c6 00 00 	lea    0xc61d(%rip),%rax        # 1c4f8 <g_427>
    fedb:	48 89 85 f8 f5 ff ff 	mov    %rax,-0xa08(%rbp)
    fee2:	48 c7 85 00 f6 ff ff 	movq   $0x0,-0xa00(%rbp)
    fee9:	00 00 00 00 
    feed:	48 8d 05 04 c6 00 00 	lea    0xc604(%rip),%rax        # 1c4f8 <g_427>
    fef4:	48 89 85 08 f6 ff ff 	mov    %rax,-0x9f8(%rbp)
    fefb:	48 8d 05 f6 c5 00 00 	lea    0xc5f6(%rip),%rax        # 1c4f8 <g_427>
    ff02:	48 89 85 10 f6 ff ff 	mov    %rax,-0x9f0(%rbp)
    ff09:	48 8d 05 18 c1 00 00 	lea    0xc118(%rip),%rax        # 1c028 <g_11>
    ff10:	48 89 85 18 f6 ff ff 	mov    %rax,-0x9e8(%rbp)
    ff17:	48 8d 85 68 ef ff ff 	lea    -0x1098(%rbp),%rax
    ff1e:	48 89 85 20 f6 ff ff 	mov    %rax,-0x9e0(%rbp)
    ff25:	48 8d 85 68 ef ff ff 	lea    -0x1098(%rbp),%rax
    ff2c:	48 89 85 28 f6 ff ff 	mov    %rax,-0x9d8(%rbp)
    ff33:	48 8d 85 68 ef ff ff 	lea    -0x1098(%rbp),%rax
    ff3a:	48 89 85 30 f6 ff ff 	mov    %rax,-0x9d0(%rbp)
    ff41:	48 8d 05 b0 c5 00 00 	lea    0xc5b0(%rip),%rax        # 1c4f8 <g_427>
    ff48:	48 89 85 38 f6 ff ff 	mov    %rax,-0x9c8(%rbp)
    ff4f:	48 8d 05 a2 c5 00 00 	lea    0xc5a2(%rip),%rax        # 1c4f8 <g_427>
    ff56:	48 89 85 40 f6 ff ff 	mov    %rax,-0x9c0(%rbp)
    ff5d:	48 8d 05 94 c5 00 00 	lea    0xc594(%rip),%rax        # 1c4f8 <g_427>
    ff64:	48 89 85 48 f6 ff ff 	mov    %rax,-0x9b8(%rbp)
    ff6b:	48 c7 85 50 f6 ff ff 	movq   $0x0,-0x9b0(%rbp)
    ff72:	00 00 00 00 
    ff76:	48 c7 85 58 f6 ff ff 	movq   $0x0,-0x9a8(%rbp)
    ff7d:	00 00 00 00 
    ff81:	48 c7 85 60 f6 ff ff 	movq   $0x0,-0x9a0(%rbp)
    ff88:	00 00 00 00 
    ff8c:	48 c7 85 68 f6 ff ff 	movq   $0x0,-0x998(%rbp)
    ff93:	00 00 00 00 
    ff97:	48 8d 05 5a c5 00 00 	lea    0xc55a(%rip),%rax        # 1c4f8 <g_427>
    ff9e:	48 89 85 70 f6 ff ff 	mov    %rax,-0x990(%rbp)
    ffa5:	48 c7 85 78 f6 ff ff 	movq   $0x0,-0x988(%rbp)
    ffac:	00 00 00 00 
    ffb0:	48 8d 05 41 c5 00 00 	lea    0xc541(%rip),%rax        # 1c4f8 <g_427>
    ffb7:	48 89 85 80 f6 ff ff 	mov    %rax,-0x980(%rbp)
    ffbe:	48 8d 85 68 ef ff ff 	lea    -0x1098(%rbp),%rax
    ffc5:	48 89 85 88 f6 ff ff 	mov    %rax,-0x978(%rbp)
    ffcc:	48 8d 05 25 c5 00 00 	lea    0xc525(%rip),%rax        # 1c4f8 <g_427>
    ffd3:	48 89 85 90 f6 ff ff 	mov    %rax,-0x970(%rbp)
    ffda:	48 c7 85 98 f6 ff ff 	movq   $0x0,-0x968(%rbp)
    ffe1:	00 00 00 00 
    ffe5:	48 8d 05 0c c5 00 00 	lea    0xc50c(%rip),%rax        # 1c4f8 <g_427>
    ffec:	48 89 85 a0 f6 ff ff 	mov    %rax,-0x960(%rbp)
    fff3:	48 8d 05 fe c4 00 00 	lea    0xc4fe(%rip),%rax        # 1c4f8 <g_427>
    fffa:	48 89 85 a8 f6 ff ff 	mov    %rax,-0x958(%rbp)
   10001:	48 8d 05 20 c0 00 00 	lea    0xc020(%rip),%rax        # 1c028 <g_11>
   10008:	48 89 85 b0 f6 ff ff 	mov    %rax,-0x950(%rbp)
   1000f:	48 8d 85 68 ef ff ff 	lea    -0x1098(%rbp),%rax
   10016:	48 89 85 b8 f6 ff ff 	mov    %rax,-0x948(%rbp)
   1001d:	48 c7 85 c0 f6 ff ff 	movq   $0x0,-0x940(%rbp)
   10024:	00 00 00 00 
   10028:	48 8d 05 c9 c4 00 00 	lea    0xc4c9(%rip),%rax        # 1c4f8 <g_427>
   1002f:	48 89 85 c8 f6 ff ff 	mov    %rax,-0x938(%rbp)
   10036:	48 8d 85 68 ef ff ff 	lea    -0x1098(%rbp),%rax
   1003d:	48 89 85 d0 f6 ff ff 	mov    %rax,-0x930(%rbp)
   10044:	48 8d 05 ad c4 00 00 	lea    0xc4ad(%rip),%rax        # 1c4f8 <g_427>
   1004b:	48 89 85 d8 f6 ff ff 	mov    %rax,-0x928(%rbp)
   10052:	48 8d 85 68 ef ff ff 	lea    -0x1098(%rbp),%rax
   10059:	48 89 85 e0 f6 ff ff 	mov    %rax,-0x920(%rbp)
   10060:	48 8d 85 68 ef ff ff 	lea    -0x1098(%rbp),%rax
   10067:	48 89 85 e8 f6 ff ff 	mov    %rax,-0x918(%rbp)
   1006e:	48 c7 85 f0 f6 ff ff 	movq   $0x0,-0x910(%rbp)
   10075:	00 00 00 00 
   10079:	48 8d 85 68 ef ff ff 	lea    -0x1098(%rbp),%rax
   10080:	48 89 85 f8 f6 ff ff 	mov    %rax,-0x908(%rbp)
   10087:	48 8d 05 9a bf 00 00 	lea    0xbf9a(%rip),%rax        # 1c028 <g_11>
   1008e:	48 89 85 00 f7 ff ff 	mov    %rax,-0x900(%rbp)
   10095:	48 8d 05 8c bf 00 00 	lea    0xbf8c(%rip),%rax        # 1c028 <g_11>
   1009c:	48 89 85 08 f7 ff ff 	mov    %rax,-0x8f8(%rbp)
   100a3:	48 8d 85 68 ef ff ff 	lea    -0x1098(%rbp),%rax
   100aa:	48 89 85 10 f7 ff ff 	mov    %rax,-0x8f0(%rbp)
   100b1:	48 c7 85 18 f7 ff ff 	movq   $0x0,-0x8e8(%rbp)
   100b8:	00 00 00 00 
   100bc:	48 8d 05 35 c4 00 00 	lea    0xc435(%rip),%rax        # 1c4f8 <g_427>
   100c3:	48 89 85 20 f7 ff ff 	mov    %rax,-0x8e0(%rbp)
   100ca:	48 8d 05 27 c4 00 00 	lea    0xc427(%rip),%rax        # 1c4f8 <g_427>
   100d1:	48 89 85 28 f7 ff ff 	mov    %rax,-0x8d8(%rbp)
   100d8:	48 8d 05 19 c4 00 00 	lea    0xc419(%rip),%rax        # 1c4f8 <g_427>
   100df:	48 89 85 30 f7 ff ff 	mov    %rax,-0x8d0(%rbp)
   100e6:	48 c7 85 38 f7 ff ff 	movq   $0x0,-0x8c8(%rbp)
   100ed:	00 00 00 00 
   100f1:	48 8d 05 30 bf 00 00 	lea    0xbf30(%rip),%rax        # 1c028 <g_11>
   100f8:	48 89 85 40 f7 ff ff 	mov    %rax,-0x8c0(%rbp)
   100ff:	48 8d 05 22 bf 00 00 	lea    0xbf22(%rip),%rax        # 1c028 <g_11>
   10106:	48 89 85 48 f7 ff ff 	mov    %rax,-0x8b8(%rbp)
   1010d:	48 8d 85 68 ef ff ff 	lea    -0x1098(%rbp),%rax
   10114:	48 89 85 50 f7 ff ff 	mov    %rax,-0x8b0(%rbp)
   1011b:	48 8d 85 68 ef ff ff 	lea    -0x1098(%rbp),%rax
   10122:	48 89 85 58 f7 ff ff 	mov    %rax,-0x8a8(%rbp)
   10129:	48 8d 05 c8 c3 00 00 	lea    0xc3c8(%rip),%rax        # 1c4f8 <g_427>
   10130:	48 89 85 60 f7 ff ff 	mov    %rax,-0x8a0(%rbp)
   10137:	48 8d 85 68 ef ff ff 	lea    -0x1098(%rbp),%rax
   1013e:	48 89 85 68 f7 ff ff 	mov    %rax,-0x898(%rbp)
   10145:	48 8d 05 ac c3 00 00 	lea    0xc3ac(%rip),%rax        # 1c4f8 <g_427>
   1014c:	48 89 85 70 f7 ff ff 	mov    %rax,-0x890(%rbp)
   10153:	48 8d 05 9e c3 00 00 	lea    0xc39e(%rip),%rax        # 1c4f8 <g_427>
   1015a:	48 89 85 78 f7 ff ff 	mov    %rax,-0x888(%rbp)
   10161:	48 8d 05 c0 be 00 00 	lea    0xbec0(%rip),%rax        # 1c028 <g_11>
   10168:	48 89 85 80 f7 ff ff 	mov    %rax,-0x880(%rbp)
   1016f:	48 8d 05 b2 be 00 00 	lea    0xbeb2(%rip),%rax        # 1c028 <g_11>
   10176:	48 89 85 88 f7 ff ff 	mov    %rax,-0x878(%rbp)
   1017d:	48 8d 05 a4 be 00 00 	lea    0xbea4(%rip),%rax        # 1c028 <g_11>
   10184:	48 89 85 90 f7 ff ff 	mov    %rax,-0x870(%rbp)
   1018b:	48 8d 85 68 ef ff ff 	lea    -0x1098(%rbp),%rax
   10192:	48 89 85 98 f7 ff ff 	mov    %rax,-0x868(%rbp)
   10199:	48 8d 85 68 ef ff ff 	lea    -0x1098(%rbp),%rax
   101a0:	48 89 85 a0 f7 ff ff 	mov    %rax,-0x860(%rbp)
   101a7:	48 8d 05 4a c3 00 00 	lea    0xc34a(%rip),%rax        # 1c4f8 <g_427>
   101ae:	48 89 85 a8 f7 ff ff 	mov    %rax,-0x858(%rbp)
   101b5:	48 8d 05 3c c3 00 00 	lea    0xc33c(%rip),%rax        # 1c4f8 <g_427>
   101bc:	48 89 85 b0 f7 ff ff 	mov    %rax,-0x850(%rbp)
   101c3:	48 8d 05 5e be 00 00 	lea    0xbe5e(%rip),%rax        # 1c028 <g_11>
   101ca:	48 89 85 b8 f7 ff ff 	mov    %rax,-0x848(%rbp)
   101d1:	48 8d 85 68 ef ff ff 	lea    -0x1098(%rbp),%rax
   101d8:	48 89 85 c0 f7 ff ff 	mov    %rax,-0x840(%rbp)
   101df:	48 8d 05 42 be 00 00 	lea    0xbe42(%rip),%rax        # 1c028 <g_11>
   101e6:	48 89 85 c8 f7 ff ff 	mov    %rax,-0x838(%rbp)
   101ed:	48 c7 85 d0 f7 ff ff 	movq   $0x0,-0x830(%rbp)
   101f4:	00 00 00 00 
   101f8:	48 8d 85 68 ef ff ff 	lea    -0x1098(%rbp),%rax
   101ff:	48 89 85 d8 f7 ff ff 	mov    %rax,-0x828(%rbp)
   10206:	48 c7 85 e0 f7 ff ff 	movq   $0x0,-0x820(%rbp)
   1020d:	00 00 00 00 
   10211:	48 8d 85 68 ef ff ff 	lea    -0x1098(%rbp),%rax
   10218:	48 89 85 e8 f7 ff ff 	mov    %rax,-0x818(%rbp)
   1021f:	48 c7 85 f0 f7 ff ff 	movq   $0x0,-0x810(%rbp)
   10226:	00 00 00 00 
   1022a:	48 8d 05 f7 bd 00 00 	lea    0xbdf7(%rip),%rax        # 1c028 <g_11>
   10231:	48 89 85 f8 f7 ff ff 	mov    %rax,-0x808(%rbp)
   10238:	48 c7 85 00 f8 ff ff 	movq   $0x0,-0x800(%rbp)
   1023f:	00 00 00 00 
   10243:	48 8d 05 ae c2 00 00 	lea    0xc2ae(%rip),%rax        # 1c4f8 <g_427>
   1024a:	48 89 85 08 f8 ff ff 	mov    %rax,-0x7f8(%rbp)
   10251:	48 8d 85 68 ef ff ff 	lea    -0x1098(%rbp),%rax
   10258:	48 89 85 10 f8 ff ff 	mov    %rax,-0x7f0(%rbp)
   1025f:	48 8d 05 92 c2 00 00 	lea    0xc292(%rip),%rax        # 1c4f8 <g_427>
   10266:	48 89 85 18 f8 ff ff 	mov    %rax,-0x7e8(%rbp)
   1026d:	48 8d 05 b4 bd 00 00 	lea    0xbdb4(%rip),%rax        # 1c028 <g_11>
   10274:	48 89 85 20 f8 ff ff 	mov    %rax,-0x7e0(%rbp)
   1027b:	48 8d 05 76 c2 00 00 	lea    0xc276(%rip),%rax        # 1c4f8 <g_427>
   10282:	48 89 85 28 f8 ff ff 	mov    %rax,-0x7d8(%rbp)
   10289:	48 8d 85 b0 f0 ff ff 	lea    -0xf50(%rbp),%rax
   10290:	48 05 28 01 00 00    	add    $0x128,%rax
   10296:	48 89 85 78 ef ff ff 	mov    %rax,-0x1088(%rbp)
   1029d:	48 c7 85 00 f0 ff ff 	movq   $0x0,-0x1000(%rbp)
   102a4:	00 00 00 00 
   102a8:	48 c7 85 08 f0 ff ff 	movq   $0x0,-0xff8(%rbp)
   102af:	00 00 00 00 
   102b3:	48 c7 85 10 f0 ff ff 	movq   $0x0,-0xff0(%rbp)
   102ba:	00 00 00 00 
   102be:	c7 85 18 f0 ff ff 00 	movl   $0x0,-0xfe8(%rbp)
   102c5:	00 00 00 
   102c8:	c7 85 f8 ee ff ff eb 	movl   $0xffffffeb,-0x1108(%rbp)
   102cf:	ff ff ff 
   102d2:	e9 01 01 00 00       	jmpq   103d8 <func_37+0x1b0b>
   102d7:	48 8d 05 5a bd 00 00 	lea    0xbd5a(%rip),%rax        # 1c038 <g_53>
   102de:	48 89 85 80 ef ff ff 	mov    %rax,-0x1080(%rbp)
   102e5:	66 c7 85 0e ef ff ff 	movw   $0xfffc,-0x10f2(%rbp)
   102ec:	fc ff 
   102ee:	c7 85 1c ef ff ff 21 	movl   $0x61613e21,-0x10e4(%rbp)
   102f5:	3e 61 61 
   102f8:	48 8d 85 58 ef ff ff 	lea    -0x10a8(%rbp),%rax
   102ff:	48 89 85 88 ef ff ff 	mov    %rax,-0x1078(%rbp)
   10306:	c7 85 20 ef ff ff 61 	movl   $0x1e82e61,-0x10e0(%rbp)
   1030d:	2e e8 01 
   10310:	c7 85 24 ef ff ff 01 	movl   $0x1,-0x10dc(%rbp)
   10317:	00 00 00 
   1031a:	c7 85 18 ef ff ff 0a 	movl   $0xa,-0x10e8(%rbp)
   10321:	00 00 00 
   10324:	eb 7e                	jmp    103a4 <func_37+0x1ad7>
   10326:	c7 85 28 ef ff ff 34 	movl   $0x4030cd34,-0x10d8(%rbp)
   1032d:	cd 30 40 
   10330:	48 8d 05 01 bd 00 00 	lea    0xbd01(%rip),%rax        # 1c038 <g_53>
   10337:	48 89 85 70 ef ff ff 	mov    %rax,-0x1090(%rbp)
   1033e:	48 8d 85 18 ef ff ff 	lea    -0x10e8(%rbp),%rax
   10345:	48 89 85 90 ef ff ff 	mov    %rax,-0x1070(%rbp)
   1034c:	48 8d 05 5d e6 00 00 	lea    0xe65d(%rip),%rax        # 1e9b0 <g_75>
   10353:	48 89 85 98 ef ff ff 	mov    %rax,-0x1068(%rbp)
   1035a:	48 8d 05 c7 bc 00 00 	lea    0xbcc7(%rip),%rax        # 1c028 <g_11>
   10361:	48 89 85 a0 ef ff ff 	mov    %rax,-0x1060(%rbp)
   10368:	c7 85 2c ef ff ff 37 	movl   $0xa0920d37,-0x10d4(%rbp)
   1036f:	0d 92 a0 
   10372:	c7 85 30 ef ff ff 0f 	movl   $0x9a8e470f,-0x10d0(%rbp)
   10379:	47 8e 9a 
   1037c:	48 c7 85 a8 ef ff ff 	movq   $0x0,-0x1058(%rbp)
   10383:	00 00 00 00 
   10387:	48 8d 85 70 ef ff ff 	lea    -0x1090(%rbp),%rax
   1038e:	48 89 85 b0 ef ff ff 	mov    %rax,-0x1050(%rbp)
   10395:	8b 85 18 ef ff ff    	mov    -0x10e8(%rbp),%eax
   1039b:	83 c0 01             	add    $0x1,%eax
   1039e:	89 85 18 ef ff ff    	mov    %eax,-0x10e8(%rbp)
   103a4:	8b 85 18 ef ff ff    	mov    -0x10e8(%rbp),%eax
   103aa:	83 f8 0d             	cmp    $0xd,%eax
   103ad:	0f 84 73 ff ff ff    	je     10326 <func_37+0x1a59>
   103b3:	48 8b 85 50 ef ff ff 	mov    -0x10b0(%rbp),%rax
   103ba:	8b 00                	mov    (%rax),%eax
   103bc:	85 c0                	test   %eax,%eax
   103be:	75 27                	jne    103e7 <func_37+0x1b1a>
   103c0:	8b 85 f8 ee ff ff    	mov    -0x1108(%rbp),%eax
   103c6:	be 08 00 00 00       	mov    $0x8,%esi
   103cb:	89 c7                	mov    %eax,%edi
   103cd:	e8 e6 5a ff ff       	callq  5eb8 <safe_add_func_uint32_t_u_u>
   103d2:	89 85 f8 ee ff ff    	mov    %eax,-0x1108(%rbp)
   103d8:	83 bd f8 ee ff ff 2a 	cmpl   $0x2a,-0x1108(%rbp)
   103df:	0f 87 f2 fe ff ff    	ja     102d7 <func_37+0x1a0a>
   103e5:	eb 01                	jmp    103e8 <func_37+0x1b1b>
   103e7:	90                   	nop
   103e8:	48 8b 85 60 ef ff ff 	mov    -0x10a0(%rbp),%rax
   103ef:	48 8d 95 e0 ef ff ff 	lea    -0x1020(%rbp),%rdx
   103f6:	48 83 c2 04          	add    $0x4,%rdx
   103fa:	48 89 10             	mov    %rdx,(%rax)
   103fd:	48 8b 85 e8 ee ff ff 	mov    -0x1118(%rbp),%rax
   10404:	48 8b 5d c8          	mov    -0x38(%rbp),%rbx
   10408:	64 48 33 1c 25 28 00 	xor    %fs:0x28,%rbx
   1040f:	00 00 
   10411:	74 05                	je     10418 <func_37+0x1b4b>
   10413:	e8 58 4c ff ff       	callq  5070 <__stack_chk_fail@plt>
   10418:	48 81 c4 f8 10 00 00 	add    $0x10f8,%rsp
   1041f:	5b                   	pop    %rbx
   10420:	41 5c                	pop    %r12
   10422:	41 5d                	pop    %r13
   10424:	41 5e                	pop    %r14
   10426:	41 5f                	pop    %r15
   10428:	5d                   	pop    %rbp
   10429:	c3                   	retq   

000000000001042a <func_49>:
   1042a:	f3 0f 1e fa          	endbr64 
   1042e:	55                   	push   %rbp
   1042f:	48 89 e5             	mov    %rsp,%rbp
   10432:	48 89 7d e8          	mov    %rdi,-0x18(%rbp)
   10436:	c7 45 fc 66 29 f8 32 	movl   $0x32f82966,-0x4(%rbp)
   1043d:	c6 45 fb 29          	movb   $0x29,-0x5(%rbp)
   10441:	83 7d fc 00          	cmpl   $0x0,-0x4(%rbp)
   10445:	74 09                	je     10450 <func_49+0x26>
   10447:	0f b6 05 e2 bb 00 00 	movzbl 0xbbe2(%rip),%eax        # 1c030 <g_14>
   1044e:	eb 12                	jmp    10462 <func_49+0x38>
   10450:	48 8b 05 49 e5 00 00 	mov    0xe549(%rip),%rax        # 1e9a0 <g_52>
   10457:	8b 10                	mov    (%rax),%edx
   10459:	33 55 fc             	xor    -0x4(%rbp),%edx
   1045c:	89 10                	mov    %edx,(%rax)
   1045e:	0f b6 45 fb          	movzbl -0x5(%rbp),%eax
   10462:	5d                   	pop    %rbp
   10463:	c3                   	retq   

0000000000010464 <func_59>:
   10464:	f3 0f 1e fa          	endbr64 
   10468:	55                   	push   %rbp
   10469:	48 89 e5             	mov    %rsp,%rbp
   1046c:	41 54                	push   %r12
   1046e:	53                   	push   %rbx
   1046f:	48 81 ec a0 00 00 00 	sub    $0xa0,%rsp
   10476:	48 89 bd 58 ff ff ff 	mov    %rdi,-0xa8(%rbp)
   1047d:	64 48 8b 04 25 28 00 	mov    %fs:0x28,%rax
   10484:	00 00 
   10486:	48 89 45 e8          	mov    %rax,-0x18(%rbp)
   1048a:	31 c0                	xor    %eax,%eax
   1048c:	c7 85 6c ff ff ff d2 	movl   $0xd7e682d2,-0x94(%rbp)
   10493:	82 e6 d7 
   10496:	c7 85 68 ff ff ff fa 	movl   $0xfffffffa,-0x98(%rbp)
   1049d:	ff ff ff 
   104a0:	48 8d 05 19 e5 00 00 	lea    0xe519(%rip),%rax        # 1e9c0 <g_213>
   104a7:	48 89 85 78 ff ff ff 	mov    %rax,-0x88(%rbp)
   104ae:	48 8d 85 78 ff ff ff 	lea    -0x88(%rbp),%rax
   104b5:	48 89 45 88          	mov    %rax,-0x78(%rbp)
   104b9:	c7 85 70 ff ff ff cb 	movl   $0xf8b1d5cb,-0x90(%rbp)
   104c0:	d5 b1 f8 
   104c3:	c7 85 74 ff ff ff 0e 	movl   $0xfe42ff0e,-0x8c(%rbp)
   104ca:	ff 42 fe 
   104cd:	48 8d 05 b4 bf 00 00 	lea    0xbfb4(%rip),%rax        # 1c488 <g_423+0x68>
   104d4:	48 89 45 a0          	mov    %rax,-0x60(%rbp)
   104d8:	48 8d 05 a9 bf 00 00 	lea    0xbfa9(%rip),%rax        # 1c488 <g_423+0x68>
   104df:	48 89 45 a8          	mov    %rax,-0x58(%rbp)
   104e3:	48 8d 05 9e bf 00 00 	lea    0xbf9e(%rip),%rax        # 1c488 <g_423+0x68>
   104ea:	48 89 45 b0          	mov    %rax,-0x50(%rbp)
   104ee:	48 8d 05 93 bf 00 00 	lea    0xbf93(%rip),%rax        # 1c488 <g_423+0x68>
   104f5:	48 89 45 b8          	mov    %rax,-0x48(%rbp)
   104f9:	48 8d 05 88 bf 00 00 	lea    0xbf88(%rip),%rax        # 1c488 <g_423+0x68>
   10500:	48 89 45 c0          	mov    %rax,-0x40(%rbp)
   10504:	48 8d 05 7d bf 00 00 	lea    0xbf7d(%rip),%rax        # 1c488 <g_423+0x68>
   1050b:	48 89 45 c8          	mov    %rax,-0x38(%rbp)
   1050f:	48 8d 05 72 bf 00 00 	lea    0xbf72(%rip),%rax        # 1c488 <g_423+0x68>
   10516:	48 89 45 d0          	mov    %rax,-0x30(%rbp)
   1051a:	48 8d 05 67 bf 00 00 	lea    0xbf67(%rip),%rax        # 1c488 <g_423+0x68>
   10521:	48 89 45 d8          	mov    %rax,-0x28(%rbp)
   10525:	48 8d 05 5c bf 00 00 	lea    0xbf5c(%rip),%rax        # 1c488 <g_423+0x68>
   1052c:	48 89 45 e0          	mov    %rax,-0x20(%rbp)
   10530:	48 8d 05 71 e4 00 00 	lea    0xe471(%rip),%rax        # 1e9a8 <g_76>
   10537:	48 89 45 80          	mov    %rax,-0x80(%rbp)
   1053b:	48 8d 45 80          	lea    -0x80(%rbp),%rax
   1053f:	48 89 45 90          	mov    %rax,-0x70(%rbp)
   10543:	48 8d 85 68 ff ff ff 	lea    -0x98(%rbp),%rax
   1054a:	48 89 45 98          	mov    %rax,-0x68(%rbp)
   1054e:	48 8b 05 bb be 00 00 	mov    0xbebb(%rip),%rax        # 1c410 <g_390+0x8>
   10555:	25 ff ff ff 07       	and    $0x7ffffff,%eax
   1055a:	0f bf d8             	movswl %ax,%ebx
   1055d:	48 83 bd 58 ff ff ff 	cmpq   $0x0,-0xa8(%rbp)
   10564:	00 
   10565:	0f 95 c0             	setne  %al
   10568:	0f b6 c0             	movzbl %al,%eax
   1056b:	89 c7                	mov    %eax,%edi
   1056d:	e8 4d 4c ff ff       	callq  51bf <safe_unary_minus_func_int8_t_s>
   10572:	0f be d0             	movsbl %al,%edx
   10575:	8b 85 6c ff ff ff    	mov    -0x94(%rbp),%eax
   1057b:	98                   	cwtl   
   1057c:	89 d6                	mov    %edx,%esi
   1057e:	89 c7                	mov    %eax,%edi
   10580:	e8 4e 4e ff ff       	callq  53d3 <safe_sub_func_int16_t_s_s>
   10585:	0f bf d0             	movswl %ax,%edx
   10588:	0f b6 05 e3 ba 00 00 	movzbl 0xbae3(%rip),%eax        # 1c072 <g_214+0x2>
   1058f:	66 98                	cbtw   
   10591:	0f b7 c0             	movzwl %ax,%eax
   10594:	89 d6                	mov    %edx,%esi
   10596:	89 c7                	mov    %eax,%edi
   10598:	e8 ab 58 ff ff       	callq  5e48 <safe_rshift_func_uint16_t_u_s>
   1059d:	0f b7 d0             	movzwl %ax,%edx
   105a0:	48 83 7d 88 00       	cmpq   $0x0,-0x78(%rbp)
   105a5:	0f 95 c0             	setne  %al
   105a8:	0f b6 c0             	movzbl %al,%eax
   105ab:	39 c2                	cmp    %eax,%edx
   105ad:	0f 95 c0             	setne  %al
   105b0:	0f b6 c0             	movzbl %al,%eax
   105b3:	89 de                	mov    %ebx,%esi
   105b5:	89 c7                	mov    %eax,%edi
   105b7:	e8 17 4e ff ff       	callq  53d3 <safe_sub_func_int16_t_s_s>
   105bc:	8b 85 6c ff ff ff    	mov    -0x94(%rbp),%eax
   105c2:	89 85 70 ff ff ff    	mov    %eax,-0x90(%rbp)
   105c8:	8b 85 70 ff ff ff    	mov    -0x90(%rbp),%eax
   105ce:	39 85 6c ff ff ff    	cmp    %eax,-0x94(%rbp)
   105d4:	0f 95 c0             	setne  %al
   105d7:	0f b6 d0             	movzbl %al,%edx
   105da:	83 bd 6c ff ff ff 00 	cmpl   $0x0,-0x94(%rbp)
   105e1:	75 09                	jne    105ec <func_59+0x188>
   105e3:	83 bd 6c ff ff ff 00 	cmpl   $0x0,-0x94(%rbp)
   105ea:	74 07                	je     105f3 <func_59+0x18f>
   105ec:	b8 01 00 00 00       	mov    $0x1,%eax
   105f1:	eb 05                	jmp    105f8 <func_59+0x194>
   105f3:	b8 00 00 00 00       	mov    $0x0,%eax
   105f8:	89 85 68 ff ff ff    	mov    %eax,-0x98(%rbp)
   105fe:	8b 85 68 ff ff ff    	mov    -0x98(%rbp),%eax
   10604:	0f be c0             	movsbl %al,%eax
   10607:	89 d6                	mov    %edx,%esi
   10609:	89 c7                	mov    %eax,%edi
   1060b:	e8 e2 4b ff ff       	callq  51f2 <safe_sub_func_int8_t_s_s>
   10610:	89 c2                	mov    %eax,%edx
   10612:	48 8b 05 cf e3 00 00 	mov    0xe3cf(%rip),%rax        # 1e9e8 <g_442>
   10619:	0f be d2             	movsbl %dl,%edx
   1061c:	89 10                	mov    %edx,(%rax)
   1061e:	8b 85 70 ff ff ff    	mov    -0x90(%rbp),%eax
   10624:	23 85 6c ff ff ff    	and    -0x94(%rbp),%eax
   1062a:	89 85 70 ff ff ff    	mov    %eax,-0x90(%rbp)
   10630:	bf fe c8 04 f4       	mov    $0xf404c8fe,%edi
   10635:	e8 6c 58 ff ff       	callq  5ea6 <safe_unary_minus_func_uint32_t_u>
   1063a:	85 c0                	test   %eax,%eax
   1063c:	0f 85 c6 00 00 00    	jne    10708 <func_59+0x2a4>
   10642:	48 8b 05 af be 00 00 	mov    0xbeaf(%rip),%rax        # 1c4f8 <g_427>
   10649:	41 89 c4             	mov    %eax,%r12d
   1064c:	8b 85 6c ff ff ff    	mov    -0x94(%rbp),%eax
   10652:	98                   	cwtl   
   10653:	89 c6                	mov    %eax,%esi
   10655:	bf ff ff ff ff       	mov    $0xffffffff,%edi
   1065a:	e8 74 4d ff ff       	callq  53d3 <safe_sub_func_int16_t_s_s>
   1065f:	66 85 c0             	test   %ax,%ax
   10662:	75 08                	jne    1066c <func_59+0x208>
   10664:	8b 85 68 ff ff ff    	mov    -0x98(%rbp),%eax
   1066a:	85 c0                	test   %eax,%eax
   1066c:	48 8b 55 80          	mov    -0x80(%rbp),%rdx
   10670:	48 8b 45 90          	mov    -0x70(%rbp),%rax
   10674:	48 89 10             	mov    %rdx,(%rax)
   10677:	48 8b 45 90          	mov    -0x70(%rbp),%rax
   1067b:	48 8b 00             	mov    (%rax),%rax
   1067e:	48 8d 15 23 e3 00 00 	lea    0xe323(%rip),%rdx        # 1e9a8 <g_76>
   10685:	48 39 d0             	cmp    %rdx,%rax
   10688:	0f 95 c0             	setne  %al
   1068b:	0f b6 d0             	movzbl %al,%edx
   1068e:	48 8b 05 53 e3 00 00 	mov    0xe353(%rip),%rax        # 1e9e8 <g_442>
   10695:	8b 00                	mov    (%rax),%eax
   10697:	89 c1                	mov    %eax,%ecx
   10699:	8b 85 6c ff ff ff    	mov    -0x94(%rbp),%eax
   1069f:	31 c8                	xor    %ecx,%eax
   106a1:	0f be c0             	movsbl %al,%eax
   106a4:	48 8b 8d 78 ff ff ff 	mov    -0x88(%rbp),%rcx
   106ab:	48 8b 19             	mov    (%rcx),%rbx
   106ae:	89 d6                	mov    %edx,%esi
   106b0:	89 c7                	mov    %eax,%edi
   106b2:	e8 5b 4b ff ff       	callq  5212 <safe_mul_func_int8_t_s_s>
   106b7:	88 03                	mov    %al,(%rbx)
   106b9:	0f b6 03             	movzbl (%rbx),%eax
   106bc:	48 0f be d0          	movsbq %al,%rdx
   106c0:	48 8b 05 61 b9 00 00 	mov    0xb961(%rip),%rax        # 1c028 <g_11>
   106c7:	48 39 c2             	cmp    %rax,%rdx
   106ca:	0f 93 c0             	setae  %al
   106cd:	0f b6 d0             	movzbl %al,%edx
   106d0:	48 8b 05 f1 e2 00 00 	mov    0xe2f1(%rip),%rax        # 1e9c8 <g_217>
   106d7:	48 8b 00             	mov    (%rax),%rax
   106da:	48 39 c2             	cmp    %rax,%rdx
   106dd:	0f 93 c0             	setae  %al
   106e0:	0f b6 c0             	movzbl %al,%eax
   106e3:	39 85 74 ff ff ff    	cmp    %eax,-0x8c(%rbp)
   106e9:	0f 9f c0             	setg   %al
   106ec:	0f b6 c0             	movzbl %al,%eax
   106ef:	44 89 e6             	mov    %r12d,%esi
   106f2:	89 c7                	mov    %eax,%edi
   106f4:	e8 31 4e ff ff       	callq  552a <safe_rshift_func_int16_t_s_s>
   106f9:	66 3d fe 00          	cmp    $0xfe,%ax
   106fd:	76 09                	jbe    10708 <func_59+0x2a4>
   106ff:	83 bd 74 ff ff ff 00 	cmpl   $0x0,-0x8c(%rbp)
   10706:	74 07                	je     1070f <func_59+0x2ab>
   10708:	b8 01 00 00 00       	mov    $0x1,%eax
   1070d:	eb 05                	jmp    10714 <func_59+0x2b0>
   1070f:	b8 00 00 00 00       	mov    $0x0,%eax
   10714:	39 85 70 ff ff ff    	cmp    %eax,-0x90(%rbp)
   1071a:	0f 9c c0             	setl   %al
   1071d:	0f b6 d0             	movzbl %al,%edx
   10720:	0f b7 05 55 bd 00 00 	movzwl 0xbd55(%rip),%eax        # 1c47c <g_423+0x5c>
   10727:	0f b7 c0             	movzwl %ax,%eax
   1072a:	31 d0                	xor    %edx,%eax
   1072c:	23 85 74 ff ff ff    	and    -0x8c(%rbp),%eax
   10732:	89 85 68 ff ff ff    	mov    %eax,-0x98(%rbp)
   10738:	48 8b 05 b1 e2 00 00 	mov    0xe2b1(%rip),%rax        # 1e9f0 <g_457>
   1073f:	8b 95 68 ff ff ff    	mov    -0x98(%rbp),%edx
   10745:	89 10                	mov    %edx,(%rax)
   10747:	8b 85 6c ff ff ff    	mov    -0x94(%rbp),%eax
   1074d:	48 89 c7             	mov    %rax,%rdi
   10750:	e8 c1 50 ff ff       	callq  5816 <safe_unary_minus_func_int64_t_s>
   10755:	89 c2                	mov    %eax,%edx
   10757:	48 8b 45 98          	mov    -0x68(%rbp),%rax
   1075b:	89 10                	mov    %edx,(%rax)
   1075d:	48 8d 05 d8 b8 00 00 	lea    0xb8d8(%rip),%rax        # 1c03c <g_58>
   10764:	48 8b 4d e8          	mov    -0x18(%rbp),%rcx
   10768:	64 48 33 0c 25 28 00 	xor    %fs:0x28,%rcx
   1076f:	00 00 
   10771:	74 05                	je     10778 <func_59+0x314>
   10773:	e8 f8 48 ff ff       	callq  5070 <__stack_chk_fail@plt>
   10778:	48 81 c4 a0 00 00 00 	add    $0xa0,%rsp
   1077f:	5b                   	pop    %rbx
   10780:	41 5c                	pop    %r12
   10782:	5d                   	pop    %rbp
   10783:	c3                   	retq   

0000000000010784 <func_61>:
   10784:	f3 0f 1e fa          	endbr64 
   10788:	55                   	push   %rbp
   10789:	48 89 e5             	mov    %rsp,%rbp
   1078c:	41 57                	push   %r15
   1078e:	41 56                	push   %r14
   10790:	41 55                	push   %r13
   10792:	41 54                	push   %r12
   10794:	53                   	push   %rbx
   10795:	48 81 ec 00 10 00 00 	sub    $0x1000,%rsp
   1079c:	48 83 0c 24 00       	orq    $0x0,(%rsp)
   107a1:	48 81 ec 88 08 00 00 	sub    $0x888,%rsp
   107a8:	89 bd 6c e7 ff ff    	mov    %edi,-0x1894(%rbp)
   107ae:	48 89 b5 60 e7 ff ff 	mov    %rsi,-0x18a0(%rbp)
   107b5:	48 89 95 58 e7 ff ff 	mov    %rdx,-0x18a8(%rbp)
   107bc:	48 89 8d 50 e7 ff ff 	mov    %rcx,-0x18b0(%rbp)
   107c3:	64 48 8b 04 25 28 00 	mov    %fs:0x28,%rax
   107ca:	00 00 
   107cc:	48 89 45 c8          	mov    %rax,-0x38(%rbp)
   107d0:	31 c0                	xor    %eax,%eax
   107d2:	48 c7 85 30 e8 ff ff 	movq   $0x0,-0x17d0(%rbp)
   107d9:	00 00 00 00 
   107dd:	48 8d 05 cc e1 00 00 	lea    0xe1cc(%rip),%rax        # 1e9b0 <g_75>
   107e4:	48 89 85 38 e8 ff ff 	mov    %rax,-0x17c8(%rbp)
   107eb:	c7 85 90 e7 ff ff 04 	movl   $0x4,-0x1870(%rbp)
   107f2:	00 00 00 
   107f5:	48 8d 05 2c b8 00 00 	lea    0xb82c(%rip),%rax        # 1c028 <g_11>
   107fc:	48 89 85 40 e8 ff ff 	mov    %rax,-0x17c0(%rbp)
   10803:	c7 85 b4 e7 ff ff 67 	movl   $0x4f7b7267,-0x184c(%rbp)
   1080a:	72 7b 4f 
   1080d:	c7 85 b0 e7 ff ff 46 	movl   $0x126cf246,-0x1850(%rbp)
   10814:	f2 6c 12 
   10817:	c7 85 a8 e7 ff ff 09 	movl   $0x9,-0x1858(%rbp)
   1081e:	00 00 00 
   10821:	48 8d 05 08 b8 00 00 	lea    0xb808(%rip),%rax        # 1c030 <g_14>
   10828:	48 89 85 00 e8 ff ff 	mov    %rax,-0x1800(%rbp)
   1082f:	c7 85 b8 e7 ff ff 63 	movl   $0x98675463,-0x1848(%rbp)
   10836:	54 67 98 
   10839:	48 8d 05 44 b8 00 00 	lea    0xb844(%rip),%rax        # 1c084 <g_258>
   10840:	48 89 85 08 e8 ff ff 	mov    %rax,-0x17f8(%rbp)
   10847:	48 8d 05 62 f9 00 00 	lea    0xf962(%rip),%rax        # 201b0 <g_410>
   1084e:	48 89 85 48 e8 ff ff 	mov    %rax,-0x17b8(%rbp)
   10855:	48 8d 05 5c f9 00 00 	lea    0xf95c(%rip),%rax        # 201b8 <g_421>
   1085c:	48 89 85 50 e8 ff ff 	mov    %rax,-0x17b0(%rbp)
   10863:	48 8d 05 1e bc 00 00 	lea    0xbc1e(%rip),%rax        # 1c488 <g_423+0x68>
   1086a:	48 89 85 58 e8 ff ff 	mov    %rax,-0x17a8(%rbp)
   10871:	48 8d 85 08 e8 ff ff 	lea    -0x17f8(%rbp),%rax
   10878:	48 89 85 60 e8 ff ff 	mov    %rax,-0x17a0(%rbp)
   1087f:	c7 85 ac e7 ff ff 00 	movl   $0x0,-0x1854(%rbp)
   10886:	00 00 00 
   10889:	eb 21                	jmp    108ac <func_61+0x128>
   1088b:	8b 85 ac e7 ff ff    	mov    -0x1854(%rbp),%eax
   10891:	48 98                	cltq   
   10893:	48 bb c7 a9 02 aa b0 	movabs $0x60f2acb0aa02a9c7,%rbx
   1089a:	ac f2 60 
   1089d:	48 89 9c c5 c0 e9 ff 	mov    %rbx,-0x1640(%rbp,%rax,8)
   108a4:	ff 
   108a5:	83 85 ac e7 ff ff 01 	addl   $0x1,-0x1854(%rbp)
   108ac:	83 bd ac e7 ff ff 02 	cmpl   $0x2,-0x1854(%rbp)
   108b3:	7e d6                	jle    1088b <func_61+0x107>
   108b5:	90                   	nop
   108b6:	48 8b 15 f3 e0 00 00 	mov    0xe0f3(%rip),%rdx        # 1e9b0 <g_75>
   108bd:	48 8b 85 38 e8 ff ff 	mov    -0x17c8(%rbp),%rax
   108c4:	48 89 10             	mov    %rdx,(%rax)
   108c7:	48 8b 85 38 e8 ff ff 	mov    -0x17c8(%rbp),%rax
   108ce:	48 8b 10             	mov    (%rax),%rdx
   108d1:	48 8d 85 58 e7 ff ff 	lea    -0x18a8(%rbp),%rax
   108d8:	48 39 c2             	cmp    %rax,%rdx
   108db:	0f 94 c2             	sete   %dl
   108de:	48 8b 85 60 e7 ff ff 	mov    -0x18a0(%rbp),%rax
   108e5:	0f b6 d2             	movzbl %dl,%edx
   108e8:	89 10                	mov    %edx,(%rax)
   108ea:	8b 00                	mov    (%rax),%eax
   108ec:	85 c0                	test   %eax,%eax
   108ee:	0f 84 51 02 00 00    	je     10b45 <func_61+0x3c1>
   108f4:	c6 85 80 e7 ff ff 00 	movb   $0x0,-0x1880(%rbp)
   108fb:	c7 85 bc e7 ff ff fe 	movl   $0xfffffffe,-0x1844(%rbp)
   10902:	ff ff ff 
   10905:	48 8d 05 1c b7 00 00 	lea    0xb71c(%rip),%rax        # 1c028 <g_11>
   1090c:	48 89 85 68 e8 ff ff 	mov    %rax,-0x1798(%rbp)
   10913:	c7 05 1b b7 00 00 00 	movl   $0x0,0xb71b(%rip)        # 1c038 <g_53>
   1091a:	00 00 00 
   1091d:	e9 c6 01 00 00       	jmpq   10ae8 <func_61+0x364>
   10922:	c6 85 83 e7 ff ff 00 	movb   $0x0,-0x187d(%rbp)
   10929:	c6 05 10 b7 00 00 00 	movb   $0x0,0xb710(%rip)        # 1c040 <g_69>
   10930:	90                   	nop
   10931:	0f b6 05 08 b7 00 00 	movzbl 0xb708(%rip),%eax        # 1c040 <g_69>
   10938:	3c 01                	cmp    $0x1,%al
   1093a:	0f 87 99 01 00 00    	ja     10ad9 <func_61+0x355>
   10940:	48 c7 85 58 e9 ff ff 	movq   $0x0,-0x16a8(%rbp)
   10947:	00 00 00 00 
   1094b:	48 c7 85 28 e8 ff ff 	movq   $0x0,-0x17d8(%rbp)
   10952:	00 00 00 00 
   10956:	48 c7 85 60 e9 ff ff 	movq   $0x0,-0x16a0(%rbp)
   1095d:	00 00 00 00 
   10961:	48 c7 85 68 e9 ff ff 	movq   $0x0,-0x1698(%rbp)
   10968:	00 00 00 00 
   1096c:	48 8d 05 e3 b6 00 00 	lea    0xb6e3(%rip),%rax        # 1c056 <g_101>
   10973:	48 89 85 70 e9 ff ff 	mov    %rax,-0x1690(%rbp)
   1097a:	c7 85 a0 e7 ff ff 00 	movl   $0x0,-0x1860(%rbp)
   10981:	00 00 00 
   10984:	eb 1e                	jmp    109a4 <func_61+0x220>
   10986:	8b 85 a0 e7 ff ff    	mov    -0x1860(%rbp),%eax
   1098c:	48 98                	cltq   
   1098e:	48 8d 95 28 e8 ff ff 	lea    -0x17d8(%rbp),%rdx
   10995:	48 89 94 c5 40 f8 ff 	mov    %rdx,-0x7c0(%rbp,%rax,8)
   1099c:	ff 
   1099d:	83 85 a0 e7 ff ff 01 	addl   $0x1,-0x1860(%rbp)
   109a4:	83 bd a0 e7 ff ff 02 	cmpl   $0x2,-0x1860(%rbp)
   109ab:	7e d9                	jle    10986 <func_61+0x202>
   109ad:	0f b6 9d 83 e7 ff ff 	movzbl -0x187d(%rbp),%ebx
   109b4:	be 0a 00 00 00       	mov    $0xa,%esi
   109b9:	bf d4 9f 00 00       	mov    $0x9fd4,%edi
   109be:	e8 43 54 ff ff       	callq  5e06 <safe_lshift_func_uint16_t_u_u>
   109c3:	0f b7 c0             	movzwl %ax,%eax
   109c6:	89 de                	mov    %ebx,%esi
   109c8:	89 c7                	mov    %eax,%edi
   109ca:	e8 50 53 ff ff       	callq  5d1f <safe_sub_func_uint16_t_u_u>
   109cf:	8b 85 6c e7 ff ff    	mov    -0x1894(%rbp),%eax
   109d5:	89 c2                	mov    %eax,%edx
   109d7:	48 8b 85 70 e9 ff ff 	mov    -0x1690(%rbp),%rax
   109de:	88 10                	mov    %dl,(%rax)
   109e0:	48 8b 85 70 e9 ff ff 	mov    -0x1690(%rbp),%rax
   109e7:	0f b6 00             	movzbl (%rax),%eax
   109ea:	83 f0 0d             	xor    $0xd,%eax
   109ed:	48 0f be d0          	movsbq %al,%rdx
   109f1:	0f b6 05 48 b6 00 00 	movzbl 0xb648(%rip),%eax        # 1c040 <g_69>
   109f8:	0f b6 c8             	movzbl %al,%ecx
   109fb:	0f b6 05 3e b6 00 00 	movzbl 0xb63e(%rip),%eax        # 1c040 <g_69>
   10a02:	0f b6 c0             	movzbl %al,%eax
   10a05:	48 98                	cltq   
   10a07:	48 63 c9             	movslq %ecx,%rcx
   10a0a:	48 c1 e1 02          	shl    $0x2,%rcx
   10a0e:	48 01 c8             	add    %rcx,%rax
   10a11:	48 8d 0c 85 00 00 00 	lea    0x0(,%rax,4),%rcx
   10a18:	00 
   10a19:	48 8d 05 60 f7 00 00 	lea    0xf760(%rip),%rax        # 20180 <g_44>
   10a20:	8b 0c 01             	mov    (%rcx,%rax,1),%ecx
   10a23:	48 8b 05 26 b6 00 00 	mov    0xb626(%rip),%rax        # 1c050 <g_83+0x8>
   10a2a:	48 c1 e8 1b          	shr    $0x1b,%rax
   10a2e:	66 25 ff 3f          	and    $0x3fff,%ax
   10a32:	0f b7 c0             	movzwl %ax,%eax
   10a35:	39 c1                	cmp    %eax,%ecx
   10a37:	76 10                	jbe    10a49 <func_61+0x2c5>
   10a39:	80 bd 80 e7 ff ff 00 	cmpb   $0x0,-0x1880(%rbp)
   10a40:	74 07                	je     10a49 <func_61+0x2c5>
   10a42:	b8 01 00 00 00       	mov    $0x1,%eax
   10a47:	eb 05                	jmp    10a4e <func_61+0x2ca>
   10a49:	b8 00 00 00 00       	mov    $0x0,%eax
   10a4e:	48 98                	cltq   
   10a50:	48 89 d6             	mov    %rdx,%rsi
   10a53:	48 89 c7             	mov    %rax,%rdi
   10a56:	e8 4d 4e ff ff       	callq  58a8 <safe_sub_func_int64_t_s_s>
   10a5b:	48 8b 05 3e df 00 00 	mov    0xdf3e(%rip),%rax        # 1e9a0 <g_52>
   10a62:	8b 00                	mov    (%rax),%eax
   10a64:	c1 e0 06             	shl    $0x6,%eax
   10a67:	66 c1 f8 06          	sar    $0x6,%ax
   10a6b:	0f b7 c0             	movzwl %ax,%eax
   10a6e:	25 ff 03 00 00       	and    $0x3ff,%eax
   10a73:	48 c1 e0 1f          	shl    $0x1f,%rax
   10a77:	48 89 c2             	mov    %rax,%rdx
   10a7a:	48 8b 05 c7 b5 00 00 	mov    0xb5c7(%rip),%rax        # 1c048 <g_83>
   10a81:	48 b9 ff ff ff 7f 00 	movabs $0xfffffe007fffffff,%rcx
   10a88:	fe ff ff 
   10a8b:	48 21 c8             	and    %rcx,%rax
   10a8e:	48 09 d0             	or     %rdx,%rax
   10a91:	48 89 05 b0 b5 00 00 	mov    %rax,0xb5b0(%rip)        # 1c048 <g_83>
   10a98:	48 8d 05 99 b5 00 00 	lea    0xb599(%rip),%rax        # 1c038 <g_53>
   10a9f:	48 89 85 60 e7 ff ff 	mov    %rax,-0x18a0(%rbp)
   10aa6:	48 8b 85 60 e7 ff ff 	mov    -0x18a0(%rbp),%rax
   10aad:	48 89 05 04 df 00 00 	mov    %rax,0xdf04(%rip)        # 1e9b8 <g_87>
   10ab4:	be 45 00 00 00       	mov    $0x45,%esi
   10ab9:	bf 00 00 00 00       	mov    $0x0,%edi
   10abe:	e8 97 50 ff ff       	callq  5b5a <safe_add_func_uint8_t_u_u>
   10ac3:	c7 85 6c e7 ff ff 01 	movl   $0x1,-0x1894(%rbp)
   10aca:	00 00 00 
   10acd:	48 8b 85 68 e8 ff ff 	mov    -0x1798(%rbp),%rax
   10ad4:	e9 98 2c 00 00       	jmpq   13771 <func_61+0x2fed>
   10ad9:	8b 05 59 b5 00 00    	mov    0xb559(%rip),%eax        # 1c038 <g_53>
   10adf:	83 e8 01             	sub    $0x1,%eax
   10ae2:	89 05 50 b5 00 00    	mov    %eax,0xb550(%rip)        # 1c038 <g_53>
   10ae8:	8b 05 4a b5 00 00    	mov    0xb54a(%rip),%eax        # 1c038 <g_53>
   10aee:	83 f8 e6             	cmp    $0xffffffe6,%eax
   10af1:	0f 8d 2b fe ff ff    	jge    10922 <func_61+0x19e>
   10af7:	c7 05 3b b5 00 00 00 	movl   $0x0,0xb53b(%rip)        # 1c03c <g_58>
   10afe:	00 00 00 
   10b01:	eb 35                	jmp    10b38 <func_61+0x3b4>
   10b03:	48 8d 05 ae de 00 00 	lea    0xdeae(%rip),%rax        # 1e9b8 <g_87>
   10b0a:	48 89 85 50 e9 ff ff 	mov    %rax,-0x16b0(%rbp)
   10b11:	48 8b 85 50 e9 ff ff 	mov    -0x16b0(%rbp),%rax
   10b18:	48 8d 95 6c e7 ff ff 	lea    -0x1894(%rbp),%rdx
   10b1f:	48 89 10             	mov    %rdx,(%rax)
   10b22:	83 bd bc e7 ff ff 00 	cmpl   $0x0,-0x1844(%rbp)
   10b29:	8b 05 0d b5 00 00    	mov    0xb50d(%rip),%eax        # 1c03c <g_58>
   10b2f:	83 e8 01             	sub    $0x1,%eax
   10b32:	89 05 04 b5 00 00    	mov    %eax,0xb504(%rip)        # 1c03c <g_58>
   10b38:	8b 05 fe b4 00 00    	mov    0xb4fe(%rip),%eax        # 1c03c <g_58>
   10b3e:	83 f8 e5             	cmp    $0xffffffe5,%eax
   10b41:	75 c0                	jne    10b03 <func_61+0x37f>
   10b43:	eb 0c                	jmp    10b51 <func_61+0x3cd>
   10b45:	48 8b 85 40 e8 ff ff 	mov    -0x17c0(%rbp),%rax
   10b4c:	e9 20 2c 00 00       	jmpq   13771 <func_61+0x2fed>
   10b51:	c7 05 e1 b4 00 00 00 	movl   $0x0,0xb4e1(%rip)        # 1c03c <g_58>
   10b58:	00 00 00 
   10b5b:	e9 b6 2a 00 00       	jmpq   13616 <func_61+0x2e92>
   10b60:	48 8d 05 51 de 00 00 	lea    0xde51(%rip),%rax        # 1e9b8 <g_87>
   10b67:	48 89 85 10 e8 ff ff 	mov    %rax,-0x17f0(%rbp)
   10b6e:	48 8d 05 c3 b4 00 00 	lea    0xb4c3(%rip),%rax        # 1c038 <g_53>
   10b75:	48 89 85 70 e8 ff ff 	mov    %rax,-0x1790(%rbp)
   10b7c:	48 c7 85 78 e8 ff ff 	movq   $0x0,-0x1788(%rbp)
   10b83:	00 00 00 00 
   10b87:	48 8d 05 aa b4 00 00 	lea    0xb4aa(%rip),%rax        # 1c038 <g_53>
   10b8e:	48 89 85 80 e8 ff ff 	mov    %rax,-0x1780(%rbp)
   10b95:	48 8d 05 9c b4 00 00 	lea    0xb49c(%rip),%rax        # 1c038 <g_53>
   10b9c:	48 89 85 88 e8 ff ff 	mov    %rax,-0x1778(%rbp)
   10ba3:	48 8d 85 90 e7 ff ff 	lea    -0x1870(%rbp),%rax
   10baa:	48 89 85 90 e8 ff ff 	mov    %rax,-0x1770(%rbp)
   10bb1:	48 8d 05 80 b4 00 00 	lea    0xb480(%rip),%rax        # 1c038 <g_53>
   10bb8:	48 89 85 98 e8 ff ff 	mov    %rax,-0x1768(%rbp)
   10bbf:	48 8d 85 90 e7 ff ff 	lea    -0x1870(%rbp),%rax
   10bc6:	48 89 85 a0 e8 ff ff 	mov    %rax,-0x1760(%rbp)
   10bcd:	48 8d 85 90 e7 ff ff 	lea    -0x1870(%rbp),%rax
   10bd4:	48 89 85 a8 e8 ff ff 	mov    %rax,-0x1758(%rbp)
   10bdb:	48 8d 85 90 e7 ff ff 	lea    -0x1870(%rbp),%rax
   10be2:	48 89 85 90 ee ff ff 	mov    %rax,-0x1170(%rbp)
   10be9:	48 8d 05 48 b4 00 00 	lea    0xb448(%rip),%rax        # 1c038 <g_53>
   10bf0:	48 89 85 98 ee ff ff 	mov    %rax,-0x1168(%rbp)
   10bf7:	48 8d 85 90 e7 ff ff 	lea    -0x1870(%rbp),%rax
   10bfe:	48 89 85 a0 ee ff ff 	mov    %rax,-0x1160(%rbp)
   10c05:	48 8d 85 90 e7 ff ff 	lea    -0x1870(%rbp),%rax
   10c0c:	48 89 85 a8 ee ff ff 	mov    %rax,-0x1158(%rbp)
   10c13:	48 8d 85 90 e7 ff ff 	lea    -0x1870(%rbp),%rax
   10c1a:	48 89 85 b0 ee ff ff 	mov    %rax,-0x1150(%rbp)
   10c21:	48 8d 05 14 b4 00 00 	lea    0xb414(%rip),%rax        # 1c03c <g_58>
   10c28:	48 89 85 b8 ee ff ff 	mov    %rax,-0x1148(%rbp)
   10c2f:	48 c7 85 c0 ee ff ff 	movq   $0x0,-0x1140(%rbp)
   10c36:	00 00 00 00 
   10c3a:	48 8d 05 f7 b3 00 00 	lea    0xb3f7(%rip),%rax        # 1c038 <g_53>
   10c41:	48 89 85 c8 ee ff ff 	mov    %rax,-0x1138(%rbp)
   10c48:	48 8d 05 ed b3 00 00 	lea    0xb3ed(%rip),%rax        # 1c03c <g_58>
   10c4f:	48 89 85 d0 ee ff ff 	mov    %rax,-0x1130(%rbp)
   10c56:	48 8d 05 db b3 00 00 	lea    0xb3db(%rip),%rax        # 1c038 <g_53>
   10c5d:	48 89 85 d8 ee ff ff 	mov    %rax,-0x1128(%rbp)
   10c64:	48 8d 85 90 e7 ff ff 	lea    -0x1870(%rbp),%rax
   10c6b:	48 89 85 e0 ee ff ff 	mov    %rax,-0x1120(%rbp)
   10c72:	48 8d 05 bf b3 00 00 	lea    0xb3bf(%rip),%rax        # 1c038 <g_53>
   10c79:	48 89 85 e8 ee ff ff 	mov    %rax,-0x1118(%rbp)
   10c80:	48 8d 05 b1 b3 00 00 	lea    0xb3b1(%rip),%rax        # 1c038 <g_53>
   10c87:	48 89 85 f0 ee ff ff 	mov    %rax,-0x1110(%rbp)
   10c8e:	48 8d 85 90 e7 ff ff 	lea    -0x1870(%rbp),%rax
   10c95:	48 89 85 f8 ee ff ff 	mov    %rax,-0x1108(%rbp)
   10c9c:	48 c7 85 00 ef ff ff 	movq   $0x0,-0x1100(%rbp)
   10ca3:	00 00 00 00 
   10ca7:	48 c7 85 08 ef ff ff 	movq   $0x0,-0x10f8(%rbp)
   10cae:	00 00 00 00 
   10cb2:	48 c7 85 10 ef ff ff 	movq   $0x0,-0x10f0(%rbp)
   10cb9:	00 00 00 00 
   10cbd:	48 8d 85 90 e7 ff ff 	lea    -0x1870(%rbp),%rax
   10cc4:	48 89 85 18 ef ff ff 	mov    %rax,-0x10e8(%rbp)
   10ccb:	48 c7 85 20 ef ff ff 	movq   $0x0,-0x10e0(%rbp)
   10cd2:	00 00 00 00 
   10cd6:	48 8d 05 5b b3 00 00 	lea    0xb35b(%rip),%rax        # 1c038 <g_53>
   10cdd:	48 89 85 28 ef ff ff 	mov    %rax,-0x10d8(%rbp)
   10ce4:	48 8d 85 90 e7 ff ff 	lea    -0x1870(%rbp),%rax
   10ceb:	48 89 85 30 ef ff ff 	mov    %rax,-0x10d0(%rbp)
   10cf2:	48 8d 05 3f b3 00 00 	lea    0xb33f(%rip),%rax        # 1c038 <g_53>
   10cf9:	48 89 85 38 ef ff ff 	mov    %rax,-0x10c8(%rbp)
   10d00:	48 8d 05 31 b3 00 00 	lea    0xb331(%rip),%rax        # 1c038 <g_53>
   10d07:	48 89 85 40 ef ff ff 	mov    %rax,-0x10c0(%rbp)
   10d0e:	48 8d 85 90 e7 ff ff 	lea    -0x1870(%rbp),%rax
   10d15:	48 89 85 48 ef ff ff 	mov    %rax,-0x10b8(%rbp)
   10d1c:	48 8d 85 90 e7 ff ff 	lea    -0x1870(%rbp),%rax
   10d23:	48 89 85 50 ef ff ff 	mov    %rax,-0x10b0(%rbp)
   10d2a:	48 c7 85 58 ef ff ff 	movq   $0x0,-0x10a8(%rbp)
   10d31:	00 00 00 00 
   10d35:	48 8d 05 fc b2 00 00 	lea    0xb2fc(%rip),%rax        # 1c038 <g_53>
   10d3c:	48 89 85 60 ef ff ff 	mov    %rax,-0x10a0(%rbp)
   10d43:	48 8d 05 ee b2 00 00 	lea    0xb2ee(%rip),%rax        # 1c038 <g_53>
   10d4a:	48 89 85 68 ef ff ff 	mov    %rax,-0x1098(%rbp)
   10d51:	48 c7 85 70 ef ff ff 	movq   $0x0,-0x1090(%rbp)
   10d58:	00 00 00 00 
   10d5c:	48 8d 05 d9 b2 00 00 	lea    0xb2d9(%rip),%rax        # 1c03c <g_58>
   10d63:	48 89 85 78 ef ff ff 	mov    %rax,-0x1088(%rbp)
   10d6a:	48 8d 85 90 e7 ff ff 	lea    -0x1870(%rbp),%rax
   10d71:	48 89 85 80 ef ff ff 	mov    %rax,-0x1080(%rbp)
   10d78:	48 8d 05 b9 b2 00 00 	lea    0xb2b9(%rip),%rax        # 1c038 <g_53>
   10d7f:	48 89 85 88 ef ff ff 	mov    %rax,-0x1078(%rbp)
   10d86:	48 8d 85 90 e7 ff ff 	lea    -0x1870(%rbp),%rax
   10d8d:	48 89 85 90 ef ff ff 	mov    %rax,-0x1070(%rbp)
   10d94:	48 8d 85 90 e7 ff ff 	lea    -0x1870(%rbp),%rax
   10d9b:	48 89 85 98 ef ff ff 	mov    %rax,-0x1068(%rbp)
   10da2:	48 8d 85 90 e7 ff ff 	lea    -0x1870(%rbp),%rax
   10da9:	48 89 85 a0 ef ff ff 	mov    %rax,-0x1060(%rbp)
   10db0:	48 8d 05 85 b2 00 00 	lea    0xb285(%rip),%rax        # 1c03c <g_58>
   10db7:	48 89 85 a8 ef ff ff 	mov    %rax,-0x1058(%rbp)
   10dbe:	48 8d 05 77 b2 00 00 	lea    0xb277(%rip),%rax        # 1c03c <g_58>
   10dc5:	48 89 85 b0 ef ff ff 	mov    %rax,-0x1050(%rbp)
   10dcc:	48 8d 05 69 b2 00 00 	lea    0xb269(%rip),%rax        # 1c03c <g_58>
   10dd3:	48 89 85 b8 ef ff ff 	mov    %rax,-0x1048(%rbp)
   10dda:	48 8d 85 90 e7 ff ff 	lea    -0x1870(%rbp),%rax
   10de1:	48 89 85 c0 ef ff ff 	mov    %rax,-0x1040(%rbp)
   10de8:	48 c7 85 c8 ef ff ff 	movq   $0x0,-0x1038(%rbp)
   10def:	00 00 00 00 
   10df3:	48 8d 05 42 b2 00 00 	lea    0xb242(%rip),%rax        # 1c03c <g_58>
   10dfa:	48 89 85 d0 ef ff ff 	mov    %rax,-0x1030(%rbp)
   10e01:	48 8d 05 34 b2 00 00 	lea    0xb234(%rip),%rax        # 1c03c <g_58>
   10e08:	48 89 85 d8 ef ff ff 	mov    %rax,-0x1028(%rbp)
   10e0f:	48 8d 05 26 b2 00 00 	lea    0xb226(%rip),%rax        # 1c03c <g_58>
   10e16:	48 89 85 e0 ef ff ff 	mov    %rax,-0x1020(%rbp)
   10e1d:	48 8d 05 18 b2 00 00 	lea    0xb218(%rip),%rax        # 1c03c <g_58>
   10e24:	48 89 85 e8 ef ff ff 	mov    %rax,-0x1018(%rbp)
   10e2b:	48 8d 85 90 e7 ff ff 	lea    -0x1870(%rbp),%rax
   10e32:	48 89 85 f0 ef ff ff 	mov    %rax,-0x1010(%rbp)
   10e39:	48 8d 05 f8 b1 00 00 	lea    0xb1f8(%rip),%rax        # 1c038 <g_53>
   10e40:	48 89 85 f8 ef ff ff 	mov    %rax,-0x1008(%rbp)
   10e47:	48 8d 05 ee b1 00 00 	lea    0xb1ee(%rip),%rax        # 1c03c <g_58>
   10e4e:	48 89 85 00 f0 ff ff 	mov    %rax,-0x1000(%rbp)
   10e55:	48 c7 85 08 f0 ff ff 	movq   $0x0,-0xff8(%rbp)
   10e5c:	00 00 00 00 
   10e60:	48 8d 05 d1 b1 00 00 	lea    0xb1d1(%rip),%rax        # 1c038 <g_53>
   10e67:	48 89 85 10 f0 ff ff 	mov    %rax,-0xff0(%rbp)
   10e6e:	48 c7 85 18 f0 ff ff 	movq   $0x0,-0xfe8(%rbp)
   10e75:	00 00 00 00 
   10e79:	48 8d 85 90 e7 ff ff 	lea    -0x1870(%rbp),%rax
   10e80:	48 89 85 20 f0 ff ff 	mov    %rax,-0xfe0(%rbp)
   10e87:	48 8d 85 90 e7 ff ff 	lea    -0x1870(%rbp),%rax
   10e8e:	48 89 85 28 f0 ff ff 	mov    %rax,-0xfd8(%rbp)
   10e95:	48 8d 05 a0 b1 00 00 	lea    0xb1a0(%rip),%rax        # 1c03c <g_58>
   10e9c:	48 89 85 30 f0 ff ff 	mov    %rax,-0xfd0(%rbp)
   10ea3:	48 8d 85 90 e7 ff ff 	lea    -0x1870(%rbp),%rax
   10eaa:	48 89 85 38 f0 ff ff 	mov    %rax,-0xfc8(%rbp)
   10eb1:	48 8d 05 80 b1 00 00 	lea    0xb180(%rip),%rax        # 1c038 <g_53>
   10eb8:	48 89 85 40 f0 ff ff 	mov    %rax,-0xfc0(%rbp)
   10ebf:	48 8d 05 72 b1 00 00 	lea    0xb172(%rip),%rax        # 1c038 <g_53>
   10ec6:	48 89 85 48 f0 ff ff 	mov    %rax,-0xfb8(%rbp)
   10ecd:	48 8d 05 68 b1 00 00 	lea    0xb168(%rip),%rax        # 1c03c <g_58>
   10ed4:	48 89 85 50 f0 ff ff 	mov    %rax,-0xfb0(%rbp)
   10edb:	48 8d 05 5a b1 00 00 	lea    0xb15a(%rip),%rax        # 1c03c <g_58>
   10ee2:	48 89 85 58 f0 ff ff 	mov    %rax,-0xfa8(%rbp)
   10ee9:	48 8d 05 48 b1 00 00 	lea    0xb148(%rip),%rax        # 1c038 <g_53>
   10ef0:	48 89 85 60 f0 ff ff 	mov    %rax,-0xfa0(%rbp)
   10ef7:	48 8d 85 90 e7 ff ff 	lea    -0x1870(%rbp),%rax
   10efe:	48 89 85 68 f0 ff ff 	mov    %rax,-0xf98(%rbp)
   10f05:	48 8d 05 30 b1 00 00 	lea    0xb130(%rip),%rax        # 1c03c <g_58>
   10f0c:	48 89 85 70 f0 ff ff 	mov    %rax,-0xf90(%rbp)
   10f13:	48 8d 85 90 e7 ff ff 	lea    -0x1870(%rbp),%rax
   10f1a:	48 89 85 78 f0 ff ff 	mov    %rax,-0xf88(%rbp)
   10f21:	48 8d 85 90 e7 ff ff 	lea    -0x1870(%rbp),%rax
   10f28:	48 89 85 80 f0 ff ff 	mov    %rax,-0xf80(%rbp)
   10f2f:	48 8d 05 06 b1 00 00 	lea    0xb106(%rip),%rax        # 1c03c <g_58>
   10f36:	48 89 85 88 f0 ff ff 	mov    %rax,-0xf78(%rbp)
   10f3d:	48 8d 05 f4 b0 00 00 	lea    0xb0f4(%rip),%rax        # 1c038 <g_53>
   10f44:	48 89 85 90 f0 ff ff 	mov    %rax,-0xf70(%rbp)
   10f4b:	48 8d 85 90 e7 ff ff 	lea    -0x1870(%rbp),%rax
   10f52:	48 89 85 98 f0 ff ff 	mov    %rax,-0xf68(%rbp)
   10f59:	48 8d 05 dc b0 00 00 	lea    0xb0dc(%rip),%rax        # 1c03c <g_58>
   10f60:	48 89 85 a0 f0 ff ff 	mov    %rax,-0xf60(%rbp)
   10f67:	48 8d 05 ce b0 00 00 	lea    0xb0ce(%rip),%rax        # 1c03c <g_58>
   10f6e:	48 89 85 a8 f0 ff ff 	mov    %rax,-0xf58(%rbp)
   10f75:	48 8d 85 90 e7 ff ff 	lea    -0x1870(%rbp),%rax
   10f7c:	48 89 85 b0 f0 ff ff 	mov    %rax,-0xf50(%rbp)
   10f83:	48 c7 85 b8 f0 ff ff 	movq   $0x0,-0xf48(%rbp)
   10f8a:	00 00 00 00 
   10f8e:	48 8d 05 a7 b0 00 00 	lea    0xb0a7(%rip),%rax        # 1c03c <g_58>
   10f95:	48 89 85 c0 f0 ff ff 	mov    %rax,-0xf40(%rbp)
   10f9c:	48 8d 05 99 b0 00 00 	lea    0xb099(%rip),%rax        # 1c03c <g_58>
   10fa3:	48 89 85 c8 f0 ff ff 	mov    %rax,-0xf38(%rbp)
   10faa:	48 8d 05 8b b0 00 00 	lea    0xb08b(%rip),%rax        # 1c03c <g_58>
   10fb1:	48 89 85 d0 f0 ff ff 	mov    %rax,-0xf30(%rbp)
   10fb8:	48 8d 05 7d b0 00 00 	lea    0xb07d(%rip),%rax        # 1c03c <g_58>
   10fbf:	48 89 85 d8 f0 ff ff 	mov    %rax,-0xf28(%rbp)
   10fc6:	48 8d 85 90 e7 ff ff 	lea    -0x1870(%rbp),%rax
   10fcd:	48 89 85 e0 f0 ff ff 	mov    %rax,-0xf20(%rbp)
   10fd4:	48 8d 05 5d b0 00 00 	lea    0xb05d(%rip),%rax        # 1c038 <g_53>
   10fdb:	48 89 85 e8 f0 ff ff 	mov    %rax,-0xf18(%rbp)
   10fe2:	48 8d 05 53 b0 00 00 	lea    0xb053(%rip),%rax        # 1c03c <g_58>
   10fe9:	48 89 85 f0 f0 ff ff 	mov    %rax,-0xf10(%rbp)
   10ff0:	48 c7 85 f8 f0 ff ff 	movq   $0x0,-0xf08(%rbp)
   10ff7:	00 00 00 00 
   10ffb:	48 8d 05 36 b0 00 00 	lea    0xb036(%rip),%rax        # 1c038 <g_53>
   11002:	48 89 85 00 f1 ff ff 	mov    %rax,-0xf00(%rbp)
   11009:	48 c7 85 08 f1 ff ff 	movq   $0x0,-0xef8(%rbp)
   11010:	00 00 00 00 
   11014:	48 8d 85 90 e7 ff ff 	lea    -0x1870(%rbp),%rax
   1101b:	48 89 85 10 f1 ff ff 	mov    %rax,-0xef0(%rbp)
   11022:	48 8d 85 90 e7 ff ff 	lea    -0x1870(%rbp),%rax
   11029:	48 89 85 18 f1 ff ff 	mov    %rax,-0xee8(%rbp)
   11030:	48 8d 05 05 b0 00 00 	lea    0xb005(%rip),%rax        # 1c03c <g_58>
   11037:	48 89 85 20 f1 ff ff 	mov    %rax,-0xee0(%rbp)
   1103e:	48 8d 85 90 e7 ff ff 	lea    -0x1870(%rbp),%rax
   11045:	48 89 85 28 f1 ff ff 	mov    %rax,-0xed8(%rbp)
   1104c:	48 8d 05 e5 af 00 00 	lea    0xafe5(%rip),%rax        # 1c038 <g_53>
   11053:	48 89 85 30 f1 ff ff 	mov    %rax,-0xed0(%rbp)
   1105a:	48 8d 05 d7 af 00 00 	lea    0xafd7(%rip),%rax        # 1c038 <g_53>
   11061:	48 89 85 38 f1 ff ff 	mov    %rax,-0xec8(%rbp)
   11068:	48 8d 05 cd af 00 00 	lea    0xafcd(%rip),%rax        # 1c03c <g_58>
   1106f:	48 89 85 40 f1 ff ff 	mov    %rax,-0xec0(%rbp)
   11076:	48 8d 05 bf af 00 00 	lea    0xafbf(%rip),%rax        # 1c03c <g_58>
   1107d:	48 89 85 48 f1 ff ff 	mov    %rax,-0xeb8(%rbp)
   11084:	48 8d 05 ad af 00 00 	lea    0xafad(%rip),%rax        # 1c038 <g_53>
   1108b:	48 89 85 50 f1 ff ff 	mov    %rax,-0xeb0(%rbp)
   11092:	48 8d 85 90 e7 ff ff 	lea    -0x1870(%rbp),%rax
   11099:	48 89 85 58 f1 ff ff 	mov    %rax,-0xea8(%rbp)
   110a0:	48 8d 05 95 af 00 00 	lea    0xaf95(%rip),%rax        # 1c03c <g_58>
   110a7:	48 89 85 60 f1 ff ff 	mov    %rax,-0xea0(%rbp)
   110ae:	48 8d 85 90 e7 ff ff 	lea    -0x1870(%rbp),%rax
   110b5:	48 89 85 68 f1 ff ff 	mov    %rax,-0xe98(%rbp)
   110bc:	48 8d 85 90 e7 ff ff 	lea    -0x1870(%rbp),%rax
   110c3:	48 89 85 70 f1 ff ff 	mov    %rax,-0xe90(%rbp)
   110ca:	48 8d 05 6b af 00 00 	lea    0xaf6b(%rip),%rax        # 1c03c <g_58>
   110d1:	48 89 85 78 f1 ff ff 	mov    %rax,-0xe88(%rbp)
   110d8:	48 8d 05 59 af 00 00 	lea    0xaf59(%rip),%rax        # 1c038 <g_53>
   110df:	48 89 85 80 f1 ff ff 	mov    %rax,-0xe80(%rbp)
   110e6:	48 8d 85 90 e7 ff ff 	lea    -0x1870(%rbp),%rax
   110ed:	48 89 85 88 f1 ff ff 	mov    %rax,-0xe78(%rbp)
   110f4:	48 8d 05 41 af 00 00 	lea    0xaf41(%rip),%rax        # 1c03c <g_58>
   110fb:	48 89 85 90 f1 ff ff 	mov    %rax,-0xe70(%rbp)
   11102:	48 8d 05 33 af 00 00 	lea    0xaf33(%rip),%rax        # 1c03c <g_58>
   11109:	48 89 85 98 f1 ff ff 	mov    %rax,-0xe68(%rbp)
   11110:	48 8d 85 90 e7 ff ff 	lea    -0x1870(%rbp),%rax
   11117:	48 89 85 a0 f1 ff ff 	mov    %rax,-0xe60(%rbp)
   1111e:	48 c7 85 a8 f1 ff ff 	movq   $0x0,-0xe58(%rbp)
   11125:	00 00 00 00 
   11129:	48 8d 05 0c af 00 00 	lea    0xaf0c(%rip),%rax        # 1c03c <g_58>
   11130:	48 89 85 b0 f1 ff ff 	mov    %rax,-0xe50(%rbp)
   11137:	48 8d 05 fe ae 00 00 	lea    0xaefe(%rip),%rax        # 1c03c <g_58>
   1113e:	48 89 85 b8 f1 ff ff 	mov    %rax,-0xe48(%rbp)
   11145:	48 8d 05 f0 ae 00 00 	lea    0xaef0(%rip),%rax        # 1c03c <g_58>
   1114c:	48 89 85 c0 f1 ff ff 	mov    %rax,-0xe40(%rbp)
   11153:	48 8d 05 e2 ae 00 00 	lea    0xaee2(%rip),%rax        # 1c03c <g_58>
   1115a:	48 89 85 c8 f1 ff ff 	mov    %rax,-0xe38(%rbp)
   11161:	48 8d 85 90 e7 ff ff 	lea    -0x1870(%rbp),%rax
   11168:	48 89 85 d0 f1 ff ff 	mov    %rax,-0xe30(%rbp)
   1116f:	48 8d 05 c2 ae 00 00 	lea    0xaec2(%rip),%rax        # 1c038 <g_53>
   11176:	48 89 85 d8 f1 ff ff 	mov    %rax,-0xe28(%rbp)
   1117d:	48 8d 05 b8 ae 00 00 	lea    0xaeb8(%rip),%rax        # 1c03c <g_58>
   11184:	48 89 85 e0 f1 ff ff 	mov    %rax,-0xe20(%rbp)
   1118b:	48 c7 85 e8 f1 ff ff 	movq   $0x0,-0xe18(%rbp)
   11192:	00 00 00 00 
   11196:	48 8d 05 9b ae 00 00 	lea    0xae9b(%rip),%rax        # 1c038 <g_53>
   1119d:	48 89 85 f0 f1 ff ff 	mov    %rax,-0xe10(%rbp)
   111a4:	48 c7 85 f8 f1 ff ff 	movq   $0x0,-0xe08(%rbp)
   111ab:	00 00 00 00 
   111af:	48 8d 85 90 e7 ff ff 	lea    -0x1870(%rbp),%rax
   111b6:	48 89 85 00 f2 ff ff 	mov    %rax,-0xe00(%rbp)
   111bd:	48 8d 85 90 e7 ff ff 	lea    -0x1870(%rbp),%rax
   111c4:	48 89 85 08 f2 ff ff 	mov    %rax,-0xdf8(%rbp)
   111cb:	48 8d 05 6a ae 00 00 	lea    0xae6a(%rip),%rax        # 1c03c <g_58>
   111d2:	48 89 85 10 f2 ff ff 	mov    %rax,-0xdf0(%rbp)
   111d9:	48 8d 85 90 e7 ff ff 	lea    -0x1870(%rbp),%rax
   111e0:	48 89 85 18 f2 ff ff 	mov    %rax,-0xde8(%rbp)
   111e7:	48 8d 05 4a ae 00 00 	lea    0xae4a(%rip),%rax        # 1c038 <g_53>
   111ee:	48 89 85 20 f2 ff ff 	mov    %rax,-0xde0(%rbp)
   111f5:	48 8d 05 3c ae 00 00 	lea    0xae3c(%rip),%rax        # 1c038 <g_53>
   111fc:	48 89 85 28 f2 ff ff 	mov    %rax,-0xdd8(%rbp)
   11203:	48 8d 05 32 ae 00 00 	lea    0xae32(%rip),%rax        # 1c03c <g_58>
   1120a:	48 89 85 30 f2 ff ff 	mov    %rax,-0xdd0(%rbp)
   11211:	48 8d 05 24 ae 00 00 	lea    0xae24(%rip),%rax        # 1c03c <g_58>
   11218:	48 89 85 38 f2 ff ff 	mov    %rax,-0xdc8(%rbp)
   1121f:	48 8d 05 12 ae 00 00 	lea    0xae12(%rip),%rax        # 1c038 <g_53>
   11226:	48 89 85 40 f2 ff ff 	mov    %rax,-0xdc0(%rbp)
   1122d:	48 8d 85 90 e7 ff ff 	lea    -0x1870(%rbp),%rax
   11234:	48 89 85 48 f2 ff ff 	mov    %rax,-0xdb8(%rbp)
   1123b:	48 8d 05 fa ad 00 00 	lea    0xadfa(%rip),%rax        # 1c03c <g_58>
   11242:	48 89 85 50 f2 ff ff 	mov    %rax,-0xdb0(%rbp)
   11249:	48 8d 85 90 e7 ff ff 	lea    -0x1870(%rbp),%rax
   11250:	48 89 85 58 f2 ff ff 	mov    %rax,-0xda8(%rbp)
   11257:	48 8d 85 90 e7 ff ff 	lea    -0x1870(%rbp),%rax
   1125e:	48 89 85 60 f2 ff ff 	mov    %rax,-0xda0(%rbp)
   11265:	48 8d 05 d0 ad 00 00 	lea    0xadd0(%rip),%rax        # 1c03c <g_58>
   1126c:	48 89 85 68 f2 ff ff 	mov    %rax,-0xd98(%rbp)
   11273:	48 8d 05 be ad 00 00 	lea    0xadbe(%rip),%rax        # 1c038 <g_53>
   1127a:	48 89 85 70 f2 ff ff 	mov    %rax,-0xd90(%rbp)
   11281:	48 8d 85 90 e7 ff ff 	lea    -0x1870(%rbp),%rax
   11288:	48 89 85 78 f2 ff ff 	mov    %rax,-0xd88(%rbp)
   1128f:	48 8d 05 a6 ad 00 00 	lea    0xada6(%rip),%rax        # 1c03c <g_58>
   11296:	48 89 85 80 f2 ff ff 	mov    %rax,-0xd80(%rbp)
   1129d:	48 8d 05 98 ad 00 00 	lea    0xad98(%rip),%rax        # 1c03c <g_58>
   112a4:	48 89 85 88 f2 ff ff 	mov    %rax,-0xd78(%rbp)
   112ab:	48 8d 85 90 e7 ff ff 	lea    -0x1870(%rbp),%rax
   112b2:	48 89 85 90 f2 ff ff 	mov    %rax,-0xd70(%rbp)
   112b9:	48 c7 85 98 f2 ff ff 	movq   $0x0,-0xd68(%rbp)
   112c0:	00 00 00 00 
   112c4:	48 8d 05 71 ad 00 00 	lea    0xad71(%rip),%rax        # 1c03c <g_58>
   112cb:	48 89 85 a0 f2 ff ff 	mov    %rax,-0xd60(%rbp)
   112d2:	48 8d 05 63 ad 00 00 	lea    0xad63(%rip),%rax        # 1c03c <g_58>
   112d9:	48 89 85 a8 f2 ff ff 	mov    %rax,-0xd58(%rbp)
   112e0:	48 8d 05 55 ad 00 00 	lea    0xad55(%rip),%rax        # 1c03c <g_58>
   112e7:	48 89 85 b0 f2 ff ff 	mov    %rax,-0xd50(%rbp)
   112ee:	48 8d 05 47 ad 00 00 	lea    0xad47(%rip),%rax        # 1c03c <g_58>
   112f5:	48 89 85 b8 f2 ff ff 	mov    %rax,-0xd48(%rbp)
   112fc:	48 8d 85 90 e7 ff ff 	lea    -0x1870(%rbp),%rax
   11303:	48 89 85 c0 f2 ff ff 	mov    %rax,-0xd40(%rbp)
   1130a:	48 8d 05 27 ad 00 00 	lea    0xad27(%rip),%rax        # 1c038 <g_53>
   11311:	48 89 85 c8 f2 ff ff 	mov    %rax,-0xd38(%rbp)
   11318:	48 8d 05 1d ad 00 00 	lea    0xad1d(%rip),%rax        # 1c03c <g_58>
   1131f:	48 89 85 d0 f2 ff ff 	mov    %rax,-0xd30(%rbp)
   11326:	48 c7 85 d8 f2 ff ff 	movq   $0x0,-0xd28(%rbp)
   1132d:	00 00 00 00 
   11331:	48 8d 05 00 ad 00 00 	lea    0xad00(%rip),%rax        # 1c038 <g_53>
   11338:	48 89 85 e0 f2 ff ff 	mov    %rax,-0xd20(%rbp)
   1133f:	48 c7 85 e8 f2 ff ff 	movq   $0x0,-0xd18(%rbp)
   11346:	00 00 00 00 
   1134a:	48 8d 85 90 e7 ff ff 	lea    -0x1870(%rbp),%rax
   11351:	48 89 85 f0 f2 ff ff 	mov    %rax,-0xd10(%rbp)
   11358:	48 8d 85 90 e7 ff ff 	lea    -0x1870(%rbp),%rax
   1135f:	48 89 85 f8 f2 ff ff 	mov    %rax,-0xd08(%rbp)
   11366:	48 8d 05 cf ac 00 00 	lea    0xaccf(%rip),%rax        # 1c03c <g_58>
   1136d:	48 89 85 00 f3 ff ff 	mov    %rax,-0xd00(%rbp)
   11374:	48 8d 85 90 e7 ff ff 	lea    -0x1870(%rbp),%rax
   1137b:	48 89 85 08 f3 ff ff 	mov    %rax,-0xcf8(%rbp)
   11382:	48 8d 05 af ac 00 00 	lea    0xacaf(%rip),%rax        # 1c038 <g_53>
   11389:	48 89 85 10 f3 ff ff 	mov    %rax,-0xcf0(%rbp)
   11390:	48 8d 05 a1 ac 00 00 	lea    0xaca1(%rip),%rax        # 1c038 <g_53>
   11397:	48 89 85 18 f3 ff ff 	mov    %rax,-0xce8(%rbp)
   1139e:	48 8d 05 97 ac 00 00 	lea    0xac97(%rip),%rax        # 1c03c <g_58>
   113a5:	48 89 85 20 f3 ff ff 	mov    %rax,-0xce0(%rbp)
   113ac:	48 8d 05 89 ac 00 00 	lea    0xac89(%rip),%rax        # 1c03c <g_58>
   113b3:	48 89 85 28 f3 ff ff 	mov    %rax,-0xcd8(%rbp)
   113ba:	48 8d 05 77 ac 00 00 	lea    0xac77(%rip),%rax        # 1c038 <g_53>
   113c1:	48 89 85 30 f3 ff ff 	mov    %rax,-0xcd0(%rbp)
   113c8:	48 8d 85 90 e7 ff ff 	lea    -0x1870(%rbp),%rax
   113cf:	48 89 85 38 f3 ff ff 	mov    %rax,-0xcc8(%rbp)
   113d6:	c7 85 94 e7 ff ff fd 	movl   $0xfffffffd,-0x186c(%rbp)
   113dd:	ff ff ff 
   113e0:	c7 85 c0 e7 ff ff fb 	movl   $0xfffffffb,-0x1840(%rbp)
   113e7:	ff ff ff 
   113ea:	c7 85 a4 e7 ff ff b0 	movl   $0x5d17a2b0,-0x185c(%rbp)
   113f1:	a2 17 5d 
   113f4:	66 c7 85 84 e7 ff ff 	movw   $0x6aa6,-0x187c(%rbp)
   113fb:	a6 6a 
   113fd:	48 8d 05 5c ac 00 00 	lea    0xac5c(%rip),%rax        # 1c060 <g_202>
   11404:	48 89 85 b0 e8 ff ff 	mov    %rax,-0x1750(%rbp)
   1140b:	48 b8 ff cb f7 cb ff 	movabs $0xcbf7cbffcbf7cbff,%rax
   11412:	cb f7 cb 
   11415:	48 89 85 20 ea ff ff 	mov    %rax,-0x15e0(%rbp)
   1141c:	48 89 85 28 ea ff ff 	mov    %rax,-0x15d8(%rbp)
   11423:	48 89 85 30 ea ff ff 	mov    %rax,-0x15d0(%rbp)
   1142a:	48 89 85 38 ea ff ff 	mov    %rax,-0x15c8(%rbp)
   11431:	48 89 85 40 ea ff ff 	mov    %rax,-0x15c0(%rbp)
   11438:	48 89 85 48 ea ff ff 	mov    %rax,-0x15b8(%rbp)
   1143f:	48 89 85 50 ea ff ff 	mov    %rax,-0x15b0(%rbp)
   11446:	48 89 85 58 ea ff ff 	mov    %rax,-0x15a8(%rbp)
   1144d:	48 8d 05 84 d5 00 00 	lea    0xd584(%rip),%rax        # 1e9d8 <g_402>
   11454:	48 89 85 b8 e8 ff ff 	mov    %rax,-0x1748(%rbp)
   1145b:	c7 85 9c e7 ff ff 00 	movl   $0x0,-0x1864(%rbp)
   11462:	00 00 00 
   11465:	eb 1e                	jmp    11485 <func_61+0xd01>
   11467:	8b 85 9c e7 ff ff    	mov    -0x1864(%rbp),%eax
   1146d:	48 98                	cltq   
   1146f:	48 8d 15 e0 ab 00 00 	lea    0xabe0(%rip),%rdx        # 1c056 <g_101>
   11476:	48 89 94 c5 78 e9 ff 	mov    %rdx,-0x1688(%rbp,%rax,8)
   1147d:	ff 
   1147e:	83 85 9c e7 ff ff 01 	addl   $0x1,-0x1864(%rbp)
   11485:	83 bd 9c e7 ff ff 00 	cmpl   $0x0,-0x1864(%rbp)
   1148c:	7e d9                	jle    11467 <func_61+0xce3>
   1148e:	48 8b 85 10 e8 ff ff 	mov    -0x17f0(%rbp),%rax
   11495:	48 c7 00 00 00 00 00 	movq   $0x0,(%rax)
   1149c:	8b 05 b6 ab 00 00    	mov    0xabb6(%rip),%eax        # 1c058 <g_127>
   114a2:	83 c0 01             	add    $0x1,%eax
   114a5:	89 05 ad ab 00 00    	mov    %eax,0xabad(%rip)        # 1c058 <g_127>
   114ab:	c7 85 6c e7 ff ff 00 	movl   $0x0,-0x1894(%rbp)
   114b2:	00 00 00 
   114b5:	e9 7b 1e 00 00       	jmpq   13335 <func_61+0x2bb1>
   114ba:	c7 85 c8 e7 ff ff 00 	movl   $0x0,-0x1838(%rbp)
   114c1:	00 00 00 
   114c4:	c6 85 7f e7 ff ff 01 	movb   $0x1,-0x1881(%rbp)
   114cb:	c7 85 cc e7 ff ff 05 	movl   $0x5,-0x1834(%rbp)
   114d2:	00 00 00 
   114d5:	48 c7 85 18 e8 ff ff 	movq   $0x0,-0x17e8(%rbp)
   114dc:	00 00 00 00 
   114e0:	48 8d 85 18 e8 ff ff 	lea    -0x17e8(%rbp),%rax
   114e7:	48 89 85 20 e8 ff ff 	mov    %rax,-0x17e0(%rbp)
   114ee:	c7 85 d0 e7 ff ff ff 	movl   $0xffffffff,-0x1830(%rbp)
   114f5:	ff ff ff 
   114f8:	48 8d 85 60 ec ff ff 	lea    -0x13a0(%rbp),%rax
   114ff:	48 8d 15 ba 67 00 00 	lea    0x67ba(%rip),%rdx        # 17cc0 <g_1058+0x773>
   11506:	b9 46 00 00 00       	mov    $0x46,%ecx
   1150b:	48 89 c7             	mov    %rax,%rdi
   1150e:	48 89 d6             	mov    %rdx,%rsi
   11511:	f3 48 a5             	rep movsq %ds:(%rsi),%es:(%rdi)
   11514:	66 c7 85 88 e7 ff ff 	movw   $0x4,-0x1878(%rbp)
   1151b:	04 00 
   1151d:	48 8d 85 40 f8 ff ff 	lea    -0x7c0(%rbp),%rax
   11524:	48 8d 15 d5 69 00 00 	lea    0x69d5(%rip),%rdx        # 17f00 <g_1058+0x9b3>
   1152b:	b9 f0 00 00 00       	mov    $0xf0,%ecx
   11530:	48 89 c7             	mov    %rax,%rdi
   11533:	48 89 d6             	mov    %rdx,%rsi
   11536:	f3 48 a5             	rep movsq %ds:(%rsi),%es:(%rdi)
   11539:	66 c7 85 8a e7 ff ff 	movw   $0xfffe,-0x1876(%rbp)
   11540:	fe ff 
   11542:	48 8d 85 20 ea ff ff 	lea    -0x15e0(%rbp),%rax
   11549:	48 83 c0 31          	add    $0x31,%rax
   1154d:	48 89 85 40 f3 ff ff 	mov    %rax,-0xcc0(%rbp)
   11554:	48 c7 85 48 f3 ff ff 	movq   $0x0,-0xcb8(%rbp)
   1155b:	00 00 00 00 
   1155f:	48 c7 85 50 f3 ff ff 	movq   $0x0,-0xcb0(%rbp)
   11566:	00 00 00 00 
   1156a:	48 c7 85 58 f3 ff ff 	movq   $0x0,-0xca8(%rbp)
   11571:	00 00 00 00 
   11575:	48 8d 85 20 ea ff ff 	lea    -0x15e0(%rbp),%rax
   1157c:	48 83 c0 31          	add    $0x31,%rax
   11580:	48 89 85 60 f3 ff ff 	mov    %rax,-0xca0(%rbp)
   11587:	48 c7 85 68 f3 ff ff 	movq   $0x0,-0xc98(%rbp)
   1158e:	00 00 00 00 
   11592:	48 8d 85 20 ea ff ff 	lea    -0x15e0(%rbp),%rax
   11599:	48 83 c0 1b          	add    $0x1b,%rax
   1159d:	48 89 85 70 f3 ff ff 	mov    %rax,-0xc90(%rbp)
   115a4:	48 c7 85 78 f3 ff ff 	movq   $0x0,-0xc88(%rbp)
   115ab:	00 00 00 00 
   115af:	48 8d 85 7f e7 ff ff 	lea    -0x1881(%rbp),%rax
   115b6:	48 89 85 80 f3 ff ff 	mov    %rax,-0xc80(%rbp)
   115bd:	48 c7 85 88 f3 ff ff 	movq   $0x0,-0xc78(%rbp)
   115c4:	00 00 00 00 
   115c8:	48 8d 85 7f e7 ff ff 	lea    -0x1881(%rbp),%rax
   115cf:	48 89 85 90 f3 ff ff 	mov    %rax,-0xc70(%rbp)
   115d6:	48 c7 85 98 f3 ff ff 	movq   $0x0,-0xc68(%rbp)
   115dd:	00 00 00 00 
   115e1:	48 8d 85 7f e7 ff ff 	lea    -0x1881(%rbp),%rax
   115e8:	48 89 85 a0 f3 ff ff 	mov    %rax,-0xc60(%rbp)
   115ef:	48 c7 85 a8 f3 ff ff 	movq   $0x0,-0xc58(%rbp)
   115f6:	00 00 00 00 
   115fa:	48 8d 05 2f aa 00 00 	lea    0xaa2f(%rip),%rax        # 1c030 <g_14>
   11601:	48 89 85 b0 f3 ff ff 	mov    %rax,-0xc50(%rbp)
   11608:	48 8d 85 7f e7 ff ff 	lea    -0x1881(%rbp),%rax
   1160f:	48 89 85 b8 f3 ff ff 	mov    %rax,-0xc48(%rbp)
   11616:	48 8d 05 53 aa 00 00 	lea    0xaa53(%rip),%rax        # 1c070 <g_214>
   1161d:	48 89 85 c0 f3 ff ff 	mov    %rax,-0xc40(%rbp)
   11624:	48 8d 05 2b aa 00 00 	lea    0xaa2b(%rip),%rax        # 1c056 <g_101>
   1162b:	48 89 85 c8 f3 ff ff 	mov    %rax,-0xc38(%rbp)
   11632:	48 8d 05 1d aa 00 00 	lea    0xaa1d(%rip),%rax        # 1c056 <g_101>
   11639:	48 89 85 d0 f3 ff ff 	mov    %rax,-0xc30(%rbp)
   11640:	48 8d 85 7f e7 ff ff 	lea    -0x1881(%rbp),%rax
   11647:	48 89 85 d8 f3 ff ff 	mov    %rax,-0xc28(%rbp)
   1164e:	48 c7 85 e0 f3 ff ff 	movq   $0x0,-0xc20(%rbp)
   11655:	00 00 00 00 
   11659:	48 8d 05 12 aa 00 00 	lea    0xaa12(%rip),%rax        # 1c072 <g_214+0x2>
   11660:	48 89 85 e8 f3 ff ff 	mov    %rax,-0xc18(%rbp)
   11667:	48 8d 85 20 ea ff ff 	lea    -0x15e0(%rbp),%rax
   1166e:	48 83 c0 1b          	add    $0x1b,%rax
   11672:	48 89 85 f0 f3 ff ff 	mov    %rax,-0xc10(%rbp)
   11679:	48 8d 05 f2 a9 00 00 	lea    0xa9f2(%rip),%rax        # 1c072 <g_214+0x2>
   11680:	48 89 85 f8 f3 ff ff 	mov    %rax,-0xc08(%rbp)
   11687:	48 c7 85 00 f4 ff ff 	movq   $0x0,-0xc00(%rbp)
   1168e:	00 00 00 00 
   11692:	48 8d 85 7f e7 ff ff 	lea    -0x1881(%rbp),%rax
   11699:	48 89 85 08 f4 ff ff 	mov    %rax,-0xbf8(%rbp)
   116a0:	48 8d 05 af a9 00 00 	lea    0xa9af(%rip),%rax        # 1c056 <g_101>
   116a7:	48 89 85 10 f4 ff ff 	mov    %rax,-0xbf0(%rbp)
   116ae:	48 8d 05 a1 a9 00 00 	lea    0xa9a1(%rip),%rax        # 1c056 <g_101>
   116b5:	48 89 85 18 f4 ff ff 	mov    %rax,-0xbe8(%rbp)
   116bc:	48 8d 05 ad a9 00 00 	lea    0xa9ad(%rip),%rax        # 1c070 <g_214>
   116c3:	48 89 85 20 f4 ff ff 	mov    %rax,-0xbe0(%rbp)
   116ca:	48 8d 85 7f e7 ff ff 	lea    -0x1881(%rbp),%rax
   116d1:	48 89 85 28 f4 ff ff 	mov    %rax,-0xbd8(%rbp)
   116d8:	48 8d 05 51 a9 00 00 	lea    0xa951(%rip),%rax        # 1c030 <g_14>
   116df:	48 89 85 30 f4 ff ff 	mov    %rax,-0xbd0(%rbp)
   116e6:	48 8d 05 85 a9 00 00 	lea    0xa985(%rip),%rax        # 1c072 <g_214+0x2>
   116ed:	48 89 85 38 f4 ff ff 	mov    %rax,-0xbc8(%rbp)
   116f4:	48 8d 85 20 ea ff ff 	lea    -0x15e0(%rbp),%rax
   116fb:	48 83 c0 33          	add    $0x33,%rax
   116ff:	48 89 85 40 f4 ff ff 	mov    %rax,-0xbc0(%rbp)
   11706:	48 8d 05 65 a9 00 00 	lea    0xa965(%rip),%rax        # 1c072 <g_214+0x2>
   1170d:	48 89 85 48 f4 ff ff 	mov    %rax,-0xbb8(%rbp)
   11714:	48 8d 05 15 a9 00 00 	lea    0xa915(%rip),%rax        # 1c030 <g_14>
   1171b:	48 89 85 50 f4 ff ff 	mov    %rax,-0xbb0(%rbp)
   11722:	48 8d 85 7f e7 ff ff 	lea    -0x1881(%rbp),%rax
   11729:	48 89 85 58 f4 ff ff 	mov    %rax,-0xba8(%rbp)
   11730:	48 8d 05 39 a9 00 00 	lea    0xa939(%rip),%rax        # 1c070 <g_214>
   11737:	48 89 85 60 f4 ff ff 	mov    %rax,-0xba0(%rbp)
   1173e:	48 8d 05 11 a9 00 00 	lea    0xa911(%rip),%rax        # 1c056 <g_101>
   11745:	48 89 85 68 f4 ff ff 	mov    %rax,-0xb98(%rbp)
   1174c:	48 8d 05 03 a9 00 00 	lea    0xa903(%rip),%rax        # 1c056 <g_101>
   11753:	48 89 85 70 f4 ff ff 	mov    %rax,-0xb90(%rbp)
   1175a:	48 8d 85 7f e7 ff ff 	lea    -0x1881(%rbp),%rax
   11761:	48 89 85 78 f4 ff ff 	mov    %rax,-0xb88(%rbp)
   11768:	48 c7 85 80 f4 ff ff 	movq   $0x0,-0xb80(%rbp)
   1176f:	00 00 00 00 
   11773:	48 8d 05 f8 a8 00 00 	lea    0xa8f8(%rip),%rax        # 1c072 <g_214+0x2>
   1177a:	48 89 85 88 f4 ff ff 	mov    %rax,-0xb78(%rbp)
   11781:	48 8d 85 20 ea ff ff 	lea    -0x15e0(%rbp),%rax
   11788:	48 83 c0 1b          	add    $0x1b,%rax
   1178c:	48 89 85 90 f4 ff ff 	mov    %rax,-0xb70(%rbp)
   11793:	48 8d 05 d8 a8 00 00 	lea    0xa8d8(%rip),%rax        # 1c072 <g_214+0x2>
   1179a:	48 89 85 98 f4 ff ff 	mov    %rax,-0xb68(%rbp)
   117a1:	48 c7 85 a0 f4 ff ff 	movq   $0x0,-0xb60(%rbp)
   117a8:	00 00 00 00 
   117ac:	48 8d 85 7f e7 ff ff 	lea    -0x1881(%rbp),%rax
   117b3:	48 89 85 a8 f4 ff ff 	mov    %rax,-0xb58(%rbp)
   117ba:	48 8d 05 95 a8 00 00 	lea    0xa895(%rip),%rax        # 1c056 <g_101>
   117c1:	48 89 85 b0 f4 ff ff 	mov    %rax,-0xb50(%rbp)
   117c8:	48 8d 05 87 a8 00 00 	lea    0xa887(%rip),%rax        # 1c056 <g_101>
   117cf:	48 89 85 b8 f4 ff ff 	mov    %rax,-0xb48(%rbp)
   117d6:	48 8d 05 93 a8 00 00 	lea    0xa893(%rip),%rax        # 1c070 <g_214>
   117dd:	48 89 85 c0 f4 ff ff 	mov    %rax,-0xb40(%rbp)
   117e4:	48 8d 85 7f e7 ff ff 	lea    -0x1881(%rbp),%rax
   117eb:	48 89 85 c8 f4 ff ff 	mov    %rax,-0xb38(%rbp)
   117f2:	48 8d 05 37 a8 00 00 	lea    0xa837(%rip),%rax        # 1c030 <g_14>
   117f9:	48 89 85 d0 f4 ff ff 	mov    %rax,-0xb30(%rbp)
   11800:	48 8d 05 6b a8 00 00 	lea    0xa86b(%rip),%rax        # 1c072 <g_214+0x2>
   11807:	48 89 85 d8 f4 ff ff 	mov    %rax,-0xb28(%rbp)
   1180e:	48 8d 85 20 ea ff ff 	lea    -0x15e0(%rbp),%rax
   11815:	48 83 c0 33          	add    $0x33,%rax
   11819:	48 89 85 e0 f4 ff ff 	mov    %rax,-0xb20(%rbp)
   11820:	48 8d 05 4b a8 00 00 	lea    0xa84b(%rip),%rax        # 1c072 <g_214+0x2>
   11827:	48 89 85 e8 f4 ff ff 	mov    %rax,-0xb18(%rbp)
   1182e:	48 8d 05 fb a7 00 00 	lea    0xa7fb(%rip),%rax        # 1c030 <g_14>
   11835:	48 89 85 f0 f4 ff ff 	mov    %rax,-0xb10(%rbp)
   1183c:	48 8d 85 7f e7 ff ff 	lea    -0x1881(%rbp),%rax
   11843:	48 89 85 f8 f4 ff ff 	mov    %rax,-0xb08(%rbp)
   1184a:	48 8d 05 1f a8 00 00 	lea    0xa81f(%rip),%rax        # 1c070 <g_214>
   11851:	48 89 85 00 f5 ff ff 	mov    %rax,-0xb00(%rbp)
   11858:	48 8d 05 f7 a7 00 00 	lea    0xa7f7(%rip),%rax        # 1c056 <g_101>
   1185f:	48 89 85 08 f5 ff ff 	mov    %rax,-0xaf8(%rbp)
   11866:	48 8d 05 e9 a7 00 00 	lea    0xa7e9(%rip),%rax        # 1c056 <g_101>
   1186d:	48 89 85 10 f5 ff ff 	mov    %rax,-0xaf0(%rbp)
   11874:	48 8d 85 7f e7 ff ff 	lea    -0x1881(%rbp),%rax
   1187b:	48 89 85 18 f5 ff ff 	mov    %rax,-0xae8(%rbp)
   11882:	48 c7 85 20 f5 ff ff 	movq   $0x0,-0xae0(%rbp)
   11889:	00 00 00 00 
   1188d:	48 8d 05 de a7 00 00 	lea    0xa7de(%rip),%rax        # 1c072 <g_214+0x2>
   11894:	48 89 85 28 f5 ff ff 	mov    %rax,-0xad8(%rbp)
   1189b:	48 8d 85 20 ea ff ff 	lea    -0x15e0(%rbp),%rax
   118a2:	48 83 c0 1b          	add    $0x1b,%rax
   118a6:	48 89 85 30 f5 ff ff 	mov    %rax,-0xad0(%rbp)
   118ad:	48 8d 05 be a7 00 00 	lea    0xa7be(%rip),%rax        # 1c072 <g_214+0x2>
   118b4:	48 89 85 38 f5 ff ff 	mov    %rax,-0xac8(%rbp)
   118bb:	48 c7 85 40 f5 ff ff 	movq   $0x0,-0xac0(%rbp)
   118c2:	00 00 00 00 
   118c6:	48 8d 85 7f e7 ff ff 	lea    -0x1881(%rbp),%rax
   118cd:	48 89 85 48 f5 ff ff 	mov    %rax,-0xab8(%rbp)
   118d4:	48 8d 05 7b a7 00 00 	lea    0xa77b(%rip),%rax        # 1c056 <g_101>
   118db:	48 89 85 50 f5 ff ff 	mov    %rax,-0xab0(%rbp)
   118e2:	48 8d 05 6d a7 00 00 	lea    0xa76d(%rip),%rax        # 1c056 <g_101>
   118e9:	48 89 85 58 f5 ff ff 	mov    %rax,-0xaa8(%rbp)
   118f0:	48 8d 05 79 a7 00 00 	lea    0xa779(%rip),%rax        # 1c070 <g_214>
   118f7:	48 89 85 60 f5 ff ff 	mov    %rax,-0xaa0(%rbp)
   118fe:	48 8d 85 7f e7 ff ff 	lea    -0x1881(%rbp),%rax
   11905:	48 89 85 68 f5 ff ff 	mov    %rax,-0xa98(%rbp)
   1190c:	48 8d 05 1d a7 00 00 	lea    0xa71d(%rip),%rax        # 1c030 <g_14>
   11913:	48 89 85 70 f5 ff ff 	mov    %rax,-0xa90(%rbp)
   1191a:	48 8d 05 51 a7 00 00 	lea    0xa751(%rip),%rax        # 1c072 <g_214+0x2>
   11921:	48 89 85 78 f5 ff ff 	mov    %rax,-0xa88(%rbp)
   11928:	48 8d 85 20 ea ff ff 	lea    -0x15e0(%rbp),%rax
   1192f:	48 83 c0 33          	add    $0x33,%rax
   11933:	48 89 85 80 f5 ff ff 	mov    %rax,-0xa80(%rbp)
   1193a:	48 8d 05 31 a7 00 00 	lea    0xa731(%rip),%rax        # 1c072 <g_214+0x2>
   11941:	48 89 85 88 f5 ff ff 	mov    %rax,-0xa78(%rbp)
   11948:	48 8d 05 e1 a6 00 00 	lea    0xa6e1(%rip),%rax        # 1c030 <g_14>
   1194f:	48 89 85 90 f5 ff ff 	mov    %rax,-0xa70(%rbp)
   11956:	48 8d 85 7f e7 ff ff 	lea    -0x1881(%rbp),%rax
   1195d:	48 89 85 98 f5 ff ff 	mov    %rax,-0xa68(%rbp)
   11964:	48 8d 05 05 a7 00 00 	lea    0xa705(%rip),%rax        # 1c070 <g_214>
   1196b:	48 89 85 a0 f5 ff ff 	mov    %rax,-0xa60(%rbp)
   11972:	48 8d 05 dd a6 00 00 	lea    0xa6dd(%rip),%rax        # 1c056 <g_101>
   11979:	48 89 85 a8 f5 ff ff 	mov    %rax,-0xa58(%rbp)
   11980:	48 8d 05 cf a6 00 00 	lea    0xa6cf(%rip),%rax        # 1c056 <g_101>
   11987:	48 89 85 b0 f5 ff ff 	mov    %rax,-0xa50(%rbp)
   1198e:	48 8d 85 7f e7 ff ff 	lea    -0x1881(%rbp),%rax
   11995:	48 89 85 b8 f5 ff ff 	mov    %rax,-0xa48(%rbp)
   1199c:	48 c7 85 c0 f5 ff ff 	movq   $0x0,-0xa40(%rbp)
   119a3:	00 00 00 00 
   119a7:	48 8d 05 c4 a6 00 00 	lea    0xa6c4(%rip),%rax        # 1c072 <g_214+0x2>
   119ae:	48 89 85 c8 f5 ff ff 	mov    %rax,-0xa38(%rbp)
   119b5:	48 8d 85 20 ea ff ff 	lea    -0x15e0(%rbp),%rax
   119bc:	48 83 c0 1b          	add    $0x1b,%rax
   119c0:	48 89 85 d0 f5 ff ff 	mov    %rax,-0xa30(%rbp)
   119c7:	48 8d 05 a4 a6 00 00 	lea    0xa6a4(%rip),%rax        # 1c072 <g_214+0x2>
   119ce:	48 89 85 d8 f5 ff ff 	mov    %rax,-0xa28(%rbp)
   119d5:	48 c7 85 e0 f5 ff ff 	movq   $0x0,-0xa20(%rbp)
   119dc:	00 00 00 00 
   119e0:	48 8d 85 7f e7 ff ff 	lea    -0x1881(%rbp),%rax
   119e7:	48 89 85 e8 f5 ff ff 	mov    %rax,-0xa18(%rbp)
   119ee:	48 8d 05 61 a6 00 00 	lea    0xa661(%rip),%rax        # 1c056 <g_101>
   119f5:	48 89 85 f0 f5 ff ff 	mov    %rax,-0xa10(%rbp)
   119fc:	48 8d 05 53 a6 00 00 	lea    0xa653(%rip),%rax        # 1c056 <g_101>
   11a03:	48 89 85 f8 f5 ff ff 	mov    %rax,-0xa08(%rbp)
   11a0a:	48 8d 05 5f a6 00 00 	lea    0xa65f(%rip),%rax        # 1c070 <g_214>
   11a11:	48 89 85 00 f6 ff ff 	mov    %rax,-0xa00(%rbp)
   11a18:	48 8d 85 7f e7 ff ff 	lea    -0x1881(%rbp),%rax
   11a1f:	48 89 85 08 f6 ff ff 	mov    %rax,-0x9f8(%rbp)
   11a26:	48 8d 05 03 a6 00 00 	lea    0xa603(%rip),%rax        # 1c030 <g_14>
   11a2d:	48 89 85 10 f6 ff ff 	mov    %rax,-0x9f0(%rbp)
   11a34:	48 8d 05 37 a6 00 00 	lea    0xa637(%rip),%rax        # 1c072 <g_214+0x2>
   11a3b:	48 89 85 18 f6 ff ff 	mov    %rax,-0x9e8(%rbp)
   11a42:	48 8d 85 20 ea ff ff 	lea    -0x15e0(%rbp),%rax
   11a49:	48 83 c0 33          	add    $0x33,%rax
   11a4d:	48 89 85 20 f6 ff ff 	mov    %rax,-0x9e0(%rbp)
   11a54:	48 8d 05 17 a6 00 00 	lea    0xa617(%rip),%rax        # 1c072 <g_214+0x2>
   11a5b:	48 89 85 28 f6 ff ff 	mov    %rax,-0x9d8(%rbp)
   11a62:	48 8d 05 c7 a5 00 00 	lea    0xa5c7(%rip),%rax        # 1c030 <g_14>
   11a69:	48 89 85 30 f6 ff ff 	mov    %rax,-0x9d0(%rbp)
   11a70:	48 8d 85 7f e7 ff ff 	lea    -0x1881(%rbp),%rax
   11a77:	48 89 85 38 f6 ff ff 	mov    %rax,-0x9c8(%rbp)
   11a7e:	48 8d 05 eb a5 00 00 	lea    0xa5eb(%rip),%rax        # 1c070 <g_214>
   11a85:	48 89 85 40 f6 ff ff 	mov    %rax,-0x9c0(%rbp)
   11a8c:	48 8d 05 c3 a5 00 00 	lea    0xa5c3(%rip),%rax        # 1c056 <g_101>
   11a93:	48 89 85 48 f6 ff ff 	mov    %rax,-0x9b8(%rbp)
   11a9a:	48 8d 05 b5 a5 00 00 	lea    0xa5b5(%rip),%rax        # 1c056 <g_101>
   11aa1:	48 89 85 50 f6 ff ff 	mov    %rax,-0x9b0(%rbp)
   11aa8:	48 8d 85 7f e7 ff ff 	lea    -0x1881(%rbp),%rax
   11aaf:	48 89 85 58 f6 ff ff 	mov    %rax,-0x9a8(%rbp)
   11ab6:	48 c7 85 60 f6 ff ff 	movq   $0x0,-0x9a0(%rbp)
   11abd:	00 00 00 00 
   11ac1:	48 8d 05 aa a5 00 00 	lea    0xa5aa(%rip),%rax        # 1c072 <g_214+0x2>
   11ac8:	48 89 85 68 f6 ff ff 	mov    %rax,-0x998(%rbp)
   11acf:	48 8d 85 20 ea ff ff 	lea    -0x15e0(%rbp),%rax
   11ad6:	48 83 c0 1b          	add    $0x1b,%rax
   11ada:	48 89 85 70 f6 ff ff 	mov    %rax,-0x990(%rbp)
   11ae1:	48 8d 05 8a a5 00 00 	lea    0xa58a(%rip),%rax        # 1c072 <g_214+0x2>
   11ae8:	48 89 85 78 f6 ff ff 	mov    %rax,-0x988(%rbp)
   11aef:	48 c7 85 80 f6 ff ff 	movq   $0x0,-0x980(%rbp)
   11af6:	00 00 00 00 
   11afa:	48 8d 85 7f e7 ff ff 	lea    -0x1881(%rbp),%rax
   11b01:	48 89 85 88 f6 ff ff 	mov    %rax,-0x978(%rbp)
   11b08:	48 8d 05 47 a5 00 00 	lea    0xa547(%rip),%rax        # 1c056 <g_101>
   11b0f:	48 89 85 90 f6 ff ff 	mov    %rax,-0x970(%rbp)
   11b16:	48 8d 05 39 a5 00 00 	lea    0xa539(%rip),%rax        # 1c056 <g_101>
   11b1d:	48 89 85 98 f6 ff ff 	mov    %rax,-0x968(%rbp)
   11b24:	48 8d 05 45 a5 00 00 	lea    0xa545(%rip),%rax        # 1c070 <g_214>
   11b2b:	48 89 85 a0 f6 ff ff 	mov    %rax,-0x960(%rbp)
   11b32:	48 8d 85 7f e7 ff ff 	lea    -0x1881(%rbp),%rax
   11b39:	48 89 85 a8 f6 ff ff 	mov    %rax,-0x958(%rbp)
   11b40:	48 8d 05 e9 a4 00 00 	lea    0xa4e9(%rip),%rax        # 1c030 <g_14>
   11b47:	48 89 85 b0 f6 ff ff 	mov    %rax,-0x950(%rbp)
   11b4e:	48 8d 05 1d a5 00 00 	lea    0xa51d(%rip),%rax        # 1c072 <g_214+0x2>
   11b55:	48 89 85 b8 f6 ff ff 	mov    %rax,-0x948(%rbp)
   11b5c:	48 8d 85 20 ea ff ff 	lea    -0x15e0(%rbp),%rax
   11b63:	48 83 c0 33          	add    $0x33,%rax
   11b67:	48 89 85 c0 f6 ff ff 	mov    %rax,-0x940(%rbp)
   11b6e:	48 8d 05 fd a4 00 00 	lea    0xa4fd(%rip),%rax        # 1c072 <g_214+0x2>
   11b75:	48 89 85 c8 f6 ff ff 	mov    %rax,-0x938(%rbp)
   11b7c:	48 8d 05 ad a4 00 00 	lea    0xa4ad(%rip),%rax        # 1c030 <g_14>
   11b83:	48 89 85 d0 f6 ff ff 	mov    %rax,-0x930(%rbp)
   11b8a:	48 8d 85 7f e7 ff ff 	lea    -0x1881(%rbp),%rax
   11b91:	48 89 85 d8 f6 ff ff 	mov    %rax,-0x928(%rbp)
   11b98:	48 8d 05 d1 a4 00 00 	lea    0xa4d1(%rip),%rax        # 1c070 <g_214>
   11b9f:	48 89 85 e0 f6 ff ff 	mov    %rax,-0x920(%rbp)
   11ba6:	48 8d 05 a9 a4 00 00 	lea    0xa4a9(%rip),%rax        # 1c056 <g_101>
   11bad:	48 89 85 e8 f6 ff ff 	mov    %rax,-0x918(%rbp)
   11bb4:	48 8d 05 9b a4 00 00 	lea    0xa49b(%rip),%rax        # 1c056 <g_101>
   11bbb:	48 89 85 f0 f6 ff ff 	mov    %rax,-0x910(%rbp)
   11bc2:	48 8d 85 7f e7 ff ff 	lea    -0x1881(%rbp),%rax
   11bc9:	48 89 85 f8 f6 ff ff 	mov    %rax,-0x908(%rbp)
   11bd0:	48 c7 85 00 f7 ff ff 	movq   $0x0,-0x900(%rbp)
   11bd7:	00 00 00 00 
   11bdb:	48 8d 05 90 a4 00 00 	lea    0xa490(%rip),%rax        # 1c072 <g_214+0x2>
   11be2:	48 89 85 08 f7 ff ff 	mov    %rax,-0x8f8(%rbp)
   11be9:	48 8d 85 20 ea ff ff 	lea    -0x15e0(%rbp),%rax
   11bf0:	48 83 c0 1b          	add    $0x1b,%rax
   11bf4:	48 89 85 10 f7 ff ff 	mov    %rax,-0x8f0(%rbp)
   11bfb:	48 8d 05 70 a4 00 00 	lea    0xa470(%rip),%rax        # 1c072 <g_214+0x2>
   11c02:	48 89 85 18 f7 ff ff 	mov    %rax,-0x8e8(%rbp)
   11c09:	48 c7 85 20 f7 ff ff 	movq   $0x0,-0x8e0(%rbp)
   11c10:	00 00 00 00 
   11c14:	48 8d 85 7f e7 ff ff 	lea    -0x1881(%rbp),%rax
   11c1b:	48 89 85 28 f7 ff ff 	mov    %rax,-0x8d8(%rbp)
   11c22:	48 8d 05 2d a4 00 00 	lea    0xa42d(%rip),%rax        # 1c056 <g_101>
   11c29:	48 89 85 30 f7 ff ff 	mov    %rax,-0x8d0(%rbp)
   11c30:	48 8d 05 1f a4 00 00 	lea    0xa41f(%rip),%rax        # 1c056 <g_101>
   11c37:	48 89 85 38 f7 ff ff 	mov    %rax,-0x8c8(%rbp)
   11c3e:	48 8d 05 2b a4 00 00 	lea    0xa42b(%rip),%rax        # 1c070 <g_214>
   11c45:	48 89 85 40 f7 ff ff 	mov    %rax,-0x8c0(%rbp)
   11c4c:	48 8d 85 7f e7 ff ff 	lea    -0x1881(%rbp),%rax
   11c53:	48 89 85 48 f7 ff ff 	mov    %rax,-0x8b8(%rbp)
   11c5a:	48 8d 05 cf a3 00 00 	lea    0xa3cf(%rip),%rax        # 1c030 <g_14>
   11c61:	48 89 85 50 f7 ff ff 	mov    %rax,-0x8b0(%rbp)
   11c68:	48 8d 05 03 a4 00 00 	lea    0xa403(%rip),%rax        # 1c072 <g_214+0x2>
   11c6f:	48 89 85 58 f7 ff ff 	mov    %rax,-0x8a8(%rbp)
   11c76:	48 8d 85 20 ea ff ff 	lea    -0x15e0(%rbp),%rax
   11c7d:	48 83 c0 33          	add    $0x33,%rax
   11c81:	48 89 85 60 f7 ff ff 	mov    %rax,-0x8a0(%rbp)
   11c88:	48 8d 05 e3 a3 00 00 	lea    0xa3e3(%rip),%rax        # 1c072 <g_214+0x2>
   11c8f:	48 89 85 68 f7 ff ff 	mov    %rax,-0x898(%rbp)
   11c96:	48 8d 05 93 a3 00 00 	lea    0xa393(%rip),%rax        # 1c030 <g_14>
   11c9d:	48 89 85 70 f7 ff ff 	mov    %rax,-0x890(%rbp)
   11ca4:	48 8d 85 7f e7 ff ff 	lea    -0x1881(%rbp),%rax
   11cab:	48 89 85 78 f7 ff ff 	mov    %rax,-0x888(%rbp)
   11cb2:	48 8d 05 b7 a3 00 00 	lea    0xa3b7(%rip),%rax        # 1c070 <g_214>
   11cb9:	48 89 85 80 f7 ff ff 	mov    %rax,-0x880(%rbp)
   11cc0:	48 8d 05 8f a3 00 00 	lea    0xa38f(%rip),%rax        # 1c056 <g_101>
   11cc7:	48 89 85 88 f7 ff ff 	mov    %rax,-0x878(%rbp)
   11cce:	48 8d 05 81 a3 00 00 	lea    0xa381(%rip),%rax        # 1c056 <g_101>
   11cd5:	48 89 85 90 f7 ff ff 	mov    %rax,-0x870(%rbp)
   11cdc:	48 8d 85 7f e7 ff ff 	lea    -0x1881(%rbp),%rax
   11ce3:	48 89 85 98 f7 ff ff 	mov    %rax,-0x868(%rbp)
   11cea:	48 c7 85 a0 f7 ff ff 	movq   $0x0,-0x860(%rbp)
   11cf1:	00 00 00 00 
   11cf5:	48 8d 05 76 a3 00 00 	lea    0xa376(%rip),%rax        # 1c072 <g_214+0x2>
   11cfc:	48 89 85 a8 f7 ff ff 	mov    %rax,-0x858(%rbp)
   11d03:	48 8d 85 20 ea ff ff 	lea    -0x15e0(%rbp),%rax
   11d0a:	48 83 c0 1b          	add    $0x1b,%rax
   11d0e:	48 89 85 b0 f7 ff ff 	mov    %rax,-0x850(%rbp)
   11d15:	48 8d 05 56 a3 00 00 	lea    0xa356(%rip),%rax        # 1c072 <g_214+0x2>
   11d1c:	48 89 85 b8 f7 ff ff 	mov    %rax,-0x848(%rbp)
   11d23:	48 c7 85 c0 f7 ff ff 	movq   $0x0,-0x840(%rbp)
   11d2a:	00 00 00 00 
   11d2e:	48 8d 85 7f e7 ff ff 	lea    -0x1881(%rbp),%rax
   11d35:	48 89 85 c8 f7 ff ff 	mov    %rax,-0x838(%rbp)
   11d3c:	48 8d 05 13 a3 00 00 	lea    0xa313(%rip),%rax        # 1c056 <g_101>
   11d43:	48 89 85 d0 f7 ff ff 	mov    %rax,-0x830(%rbp)
   11d4a:	48 8d 05 05 a3 00 00 	lea    0xa305(%rip),%rax        # 1c056 <g_101>
   11d51:	48 89 85 d8 f7 ff ff 	mov    %rax,-0x828(%rbp)
   11d58:	48 8d 05 11 a3 00 00 	lea    0xa311(%rip),%rax        # 1c070 <g_214>
   11d5f:	48 89 85 e0 f7 ff ff 	mov    %rax,-0x820(%rbp)
   11d66:	48 8d 85 7f e7 ff ff 	lea    -0x1881(%rbp),%rax
   11d6d:	48 89 85 e8 f7 ff ff 	mov    %rax,-0x818(%rbp)
   11d74:	48 8d 05 b5 a2 00 00 	lea    0xa2b5(%rip),%rax        # 1c030 <g_14>
   11d7b:	48 89 85 f0 f7 ff ff 	mov    %rax,-0x810(%rbp)
   11d82:	48 8d 05 e9 a2 00 00 	lea    0xa2e9(%rip),%rax        # 1c072 <g_214+0x2>
   11d89:	48 89 85 f8 f7 ff ff 	mov    %rax,-0x808(%rbp)
   11d90:	48 8d 85 20 ea ff ff 	lea    -0x15e0(%rbp),%rax
   11d97:	48 83 c0 33          	add    $0x33,%rax
   11d9b:	48 89 85 00 f8 ff ff 	mov    %rax,-0x800(%rbp)
   11da2:	48 8d 05 c9 a2 00 00 	lea    0xa2c9(%rip),%rax        # 1c072 <g_214+0x2>
   11da9:	48 89 85 08 f8 ff ff 	mov    %rax,-0x7f8(%rbp)
   11db0:	48 8d 05 79 a2 00 00 	lea    0xa279(%rip),%rax        # 1c030 <g_14>
   11db7:	48 89 85 10 f8 ff ff 	mov    %rax,-0x7f0(%rbp)
   11dbe:	48 8d 85 7f e7 ff ff 	lea    -0x1881(%rbp),%rax
   11dc5:	48 89 85 18 f8 ff ff 	mov    %rax,-0x7e8(%rbp)
   11dcc:	48 8d 05 9d a2 00 00 	lea    0xa29d(%rip),%rax        # 1c070 <g_214>
   11dd3:	48 89 85 20 f8 ff ff 	mov    %rax,-0x7e0(%rbp)
   11dda:	48 8d 05 75 a2 00 00 	lea    0xa275(%rip),%rax        # 1c056 <g_101>
   11de1:	48 89 85 28 f8 ff ff 	mov    %rax,-0x7d8(%rbp)
   11de8:	48 8d 05 67 a2 00 00 	lea    0xa267(%rip),%rax        # 1c056 <g_101>
   11def:	48 89 85 30 f8 ff ff 	mov    %rax,-0x7d0(%rbp)
   11df6:	48 8d 85 7f e7 ff ff 	lea    -0x1881(%rbp),%rax
   11dfd:	48 89 85 38 f8 ff ff 	mov    %rax,-0x7c8(%rbp)
   11e04:	c7 85 b0 e7 ff ff 02 	movl   $0x2,-0x1850(%rbp)
   11e0b:	00 00 00 
   11e0e:	e9 6c 0d 00 00       	jmpq   12b7f <func_61+0x23fb>
   11e13:	66 c7 85 8c e7 ff ff 	movw   $0xbb49,-0x1874(%rbp)
   11e1a:	49 bb 
   11e1c:	48 8d 05 33 a2 00 00 	lea    0xa233(%rip),%rax        # 1c056 <g_101>
   11e23:	48 89 85 00 e9 ff ff 	mov    %rax,-0x1700(%rbp)
   11e2a:	48 8d 05 0f a2 00 00 	lea    0xa20f(%rip),%rax        # 1c040 <g_69>
   11e31:	48 89 85 08 e9 ff ff 	mov    %rax,-0x16f8(%rbp)
   11e38:	48 c7 85 10 e9 ff ff 	movq   $0x0,-0x16f0(%rbp)
   11e3f:	00 00 00 00 
   11e43:	c7 85 e4 e7 ff ff 93 	movl   $0x98fa3893,-0x181c(%rbp)
   11e4a:	38 fa 98 
   11e4d:	c7 85 e8 e7 ff ff 09 	movl   $0x9,-0x1818(%rbp)
   11e54:	00 00 00 
   11e57:	c7 85 e0 e9 ff ff 2b 	movl   $0x1390052b,-0x1620(%rbp)
   11e5e:	05 90 13 
   11e61:	c7 85 e4 e9 ff ff 05 	movl   $0x5,-0x161c(%rbp)
   11e68:	00 00 00 
   11e6b:	c7 85 e8 e9 ff ff 2b 	movl   $0x1390052b,-0x1618(%rbp)
   11e72:	05 90 13 
   11e75:	c7 85 ec e9 ff ff 00 	movl   $0x0,-0x1614(%rbp)
   11e7c:	00 00 00 
   11e7f:	c7 85 f0 e9 ff ff 04 	movl   $0x4,-0x1610(%rbp)
   11e86:	00 00 00 
   11e89:	c7 85 f4 e9 ff ff 00 	movl   $0x0,-0x160c(%rbp)
   11e90:	00 00 00 
   11e93:	c7 85 f8 e9 ff ff 2b 	movl   $0x1390052b,-0x1608(%rbp)
   11e9a:	05 90 13 
   11e9d:	c7 85 fc e9 ff ff 05 	movl   $0x5,-0x1604(%rbp)
   11ea4:	00 00 00 
   11ea7:	c7 85 00 ea ff ff 2b 	movl   $0x1390052b,-0x1600(%rbp)
   11eae:	05 90 13 
   11eb1:	c7 85 04 ea ff ff 00 	movl   $0x0,-0x15fc(%rbp)
   11eb8:	00 00 00 
   11ebb:	c7 85 08 ea ff ff 04 	movl   $0x4,-0x15f8(%rbp)
   11ec2:	00 00 00 
   11ec5:	c7 85 0c ea ff ff 00 	movl   $0x0,-0x15f4(%rbp)
   11ecc:	00 00 00 
   11ecf:	c7 85 10 ea ff ff 2b 	movl   $0x1390052b,-0x15f0(%rbp)
   11ed6:	05 90 13 
   11ed9:	c7 85 14 ea ff ff 05 	movl   $0x5,-0x15ec(%rbp)
   11ee0:	00 00 00 
   11ee3:	c7 85 18 ea ff ff 2b 	movl   $0x1390052b,-0x15e8(%rbp)
   11eea:	05 90 13 
   11eed:	c7 85 90 e9 ff ff 00 	movl   $0x0,-0x1670(%rbp)
   11ef4:	00 00 00 
   11ef7:	c7 85 94 e9 ff ff 00 	movl   $0x0,-0x166c(%rbp)
   11efe:	00 00 00 
   11f01:	c7 85 98 e9 ff ff 00 	movl   $0x0,-0x1668(%rbp)
   11f08:	00 00 00 
   11f0b:	c7 85 9c e9 ff ff 00 	movl   $0x0,-0x1664(%rbp)
   11f12:	00 00 00 
   11f15:	c7 85 98 e7 ff ff 00 	movl   $0x0,-0x1868(%rbp)
   11f1c:	00 00 00 
   11f1f:	eb 1b                	jmp    11f3c <func_61+0x17b8>
   11f21:	8b 85 98 e7 ff ff    	mov    -0x1868(%rbp),%eax
   11f27:	48 98                	cltq   
   11f29:	48 c7 84 c5 80 e9 ff 	movq   $0xfffffffffffffffa,-0x1680(%rbp,%rax,8)
   11f30:	ff fa ff ff ff 
   11f35:	83 85 98 e7 ff ff 01 	addl   $0x1,-0x1868(%rbp)
   11f3c:	83 bd 98 e7 ff ff 01 	cmpl   $0x1,-0x1868(%rbp)
   11f43:	7e dc                	jle    11f21 <func_61+0x179d>
   11f45:	0f b7 05 fc a0 00 00 	movzwl 0xa0fc(%rip),%eax        # 1c048 <g_83>
   11f4c:	66 25 ff 0f          	and    $0xfff,%ax
   11f50:	0f b7 d8             	movzwl %ax,%ebx
   11f53:	8b 85 6c e7 ff ff    	mov    -0x1894(%rbp),%eax
   11f59:	4c 63 e0             	movslq %eax,%r12
   11f5c:	8b 85 c8 e7 ff ff    	mov    -0x1838(%rbp),%eax
   11f62:	f7 d0                	not    %eax
   11f64:	41 89 c6             	mov    %eax,%r14d
   11f67:	48 8b 05 32 ca 00 00 	mov    0xca32(%rip),%rax        # 1e9a0 <g_52>
   11f6e:	8b 00                	mov    (%rax),%eax
   11f70:	85 c0                	test   %eax,%eax
   11f72:	0f 95 c0             	setne  %al
   11f75:	44 0f b6 e8          	movzbl %al,%r13d
   11f79:	48 8b 85 00 e9 ff ff 	mov    -0x1700(%rbp),%rax
   11f80:	0f b6 00             	movzbl (%rax),%eax
   11f83:	8b 95 6c e7 ff ff    	mov    -0x1894(%rbp),%edx
   11f89:	09 c2                	or     %eax,%edx
   11f8b:	48 8b 85 00 e9 ff ff 	mov    -0x1700(%rbp),%rax
   11f92:	88 10                	mov    %dl,(%rax)
   11f94:	48 8b 85 00 e9 ff ff 	mov    -0x1700(%rbp),%rax
   11f9b:	0f b6 00             	movzbl (%rax),%eax
   11f9e:	0f be d0             	movsbl %al,%edx
   11fa1:	8b 85 94 e7 ff ff    	mov    -0x186c(%rbp),%eax
   11fa7:	0f be c0             	movsbl %al,%eax
   11faa:	89 d6                	mov    %edx,%esi
   11fac:	89 c7                	mov    %eax,%edi
   11fae:	e8 5f 32 ff ff       	callq  5212 <safe_mul_func_int8_t_s_s>
   11fb3:	0f be c0             	movsbl %al,%eax
   11fb6:	44 89 ee             	mov    %r13d,%esi
   11fb9:	89 c7                	mov    %eax,%edi
   11fbb:	e8 13 34 ff ff       	callq  53d3 <safe_sub_func_int16_t_s_s>
   11fc0:	98                   	cwtl   
   11fc1:	44 09 f0             	or     %r14d,%eax
   11fc4:	48 98                	cltq   
   11fc6:	4c 89 e6             	mov    %r12,%rsi
   11fc9:	48 89 c7             	mov    %rax,%rdi
   11fcc:	e8 70 38 ff ff       	callq  5841 <safe_add_func_int64_t_s_s>
   11fd1:	66 81 bd 8c e7 ff ff 	cmpw   $0xb1,-0x1874(%rbp)
   11fd8:	b1 00 
   11fda:	48 8b 05 bf e1 00 00 	mov    0xe1bf(%rip),%rax        # 201a0 <g_149>
   11fe1:	48 85 c0             	test   %rax,%rax
   11fe4:	0f 95 c0             	setne  %al
   11fe7:	0f b6 d0             	movzbl %al,%edx
   11fea:	8b 85 6c e7 ff ff    	mov    -0x1894(%rbp),%eax
   11ff0:	39 c2                	cmp    %eax,%edx
   11ff2:	8b 85 6c e7 ff ff    	mov    -0x1894(%rbp),%eax
   11ff8:	0f be c0             	movsbl %al,%eax
   11ffb:	be 07 00 00 00       	mov    $0x7,%esi
   12000:	89 c7                	mov    %eax,%edi
   12002:	e8 2e 33 ff ff       	callq  5335 <safe_rshift_func_int8_t_s_s>
   12007:	48 89 de             	mov    %rbx,%rsi
   1200a:	bf 01 00 00 00       	mov    $0x1,%edi
   1200f:	e8 6c 40 ff ff       	callq  6080 <safe_mod_func_uint64_t_u_u>
   12014:	48 83 f8 f6          	cmp    $0xfffffffffffffff6,%rax
   12018:	0f 96 c0             	setbe  %al
   1201b:	89 c2                	mov    %eax,%edx
   1201d:	8b 85 6c e7 ff ff    	mov    -0x1894(%rbp),%eax
   12023:	21 d0                	and    %edx,%eax
   12025:	89 c2                	mov    %eax,%edx
   12027:	48 8b 85 08 e9 ff ff 	mov    -0x16f8(%rbp),%rax
   1202e:	88 10                	mov    %dl,(%rax)
   12030:	48 8b 85 08 e9 ff ff 	mov    -0x16f8(%rbp),%rax
   12037:	0f b6 00             	movzbl (%rax),%eax
   1203a:	0f b6 c0             	movzbl %al,%eax
   1203d:	be 01 00 00 00       	mov    $0x1,%esi
   12042:	89 c7                	mov    %eax,%edi
   12044:	e8 75 3c ff ff       	callq  5cbe <safe_rshift_func_uint8_t_u_u>
   12049:	8b 85 6c e7 ff ff    	mov    -0x1894(%rbp),%eax
   1204f:	85 c0                	test   %eax,%eax
   12051:	83 bd a8 e7 ff ff 00 	cmpl   $0x0,-0x1858(%rbp)
   12058:	66 c7 85 86 e7 ff ff 	movw   $0x3,-0x187a(%rbp)
   1205f:	03 00 
   12061:	48 8d 05 00 a0 00 00 	lea    0xa000(%rip),%rax        # 1c068 <g_202+0x8>
   12068:	48 89 85 18 e9 ff ff 	mov    %rax,-0x16e8(%rbp)
   1206f:	48 8d 85 86 e7 ff ff 	lea    -0x187a(%rbp),%rax
   12076:	48 89 85 20 e9 ff ff 	mov    %rax,-0x16e0(%rbp)
   1207d:	66 c7 85 8e e7 ff ff 	movw   $0x4158,-0x1872(%rbp)
   12084:	58 41 
   12086:	c7 85 ec e7 ff ff 01 	movl   $0x1,-0x1814(%rbp)
   1208d:	00 00 00 
   12090:	c7 85 f0 e7 ff ff 16 	movl   $0x9cc61e16,-0x1810(%rbp)
   12097:	1e c6 9c 
   1209a:	c6 05 b5 9f 00 00 00 	movb   $0x0,0x9fb5(%rip)        # 1c056 <g_101>
   120a1:	e9 93 05 00 00       	jmpq   12639 <func_61+0x1eb5>
   120a6:	c7 85 fc e7 ff ff fb 	movl   $0xfffffffb,-0x1804(%rbp)
   120ad:	ff ff ff 
   120b0:	48 8d 85 94 e7 ff ff 	lea    -0x186c(%rbp),%rax
   120b7:	48 89 85 28 e8 ff ff 	mov    %rax,-0x17d8(%rbp)
   120be:	48 8d 85 28 e8 ff ff 	lea    -0x17d8(%rbp),%rax
   120c5:	48 89 85 48 e9 ff ff 	mov    %rax,-0x16b8(%rbp)
   120cc:	48 8d 85 20 e8 ff ff 	lea    -0x17e0(%rbp),%rax
   120d3:	48 89 85 60 ea ff ff 	mov    %rax,-0x15a0(%rbp)
   120da:	48 8d 85 20 e8 ff ff 	lea    -0x17e0(%rbp),%rax
   120e1:	48 89 85 68 ea ff ff 	mov    %rax,-0x1598(%rbp)
   120e8:	48 8d 85 20 e8 ff ff 	lea    -0x17e0(%rbp),%rax
   120ef:	48 89 85 70 ea ff ff 	mov    %rax,-0x1590(%rbp)
   120f6:	48 8d 85 20 e8 ff ff 	lea    -0x17e0(%rbp),%rax
   120fd:	48 89 85 78 ea ff ff 	mov    %rax,-0x1588(%rbp)
   12104:	48 8d 85 20 e8 ff ff 	lea    -0x17e0(%rbp),%rax
   1210b:	48 89 85 80 ea ff ff 	mov    %rax,-0x1580(%rbp)
   12112:	48 8d 85 20 e8 ff ff 	lea    -0x17e0(%rbp),%rax
   12119:	48 89 85 88 ea ff ff 	mov    %rax,-0x1578(%rbp)
   12120:	48 8d 85 20 e8 ff ff 	lea    -0x17e0(%rbp),%rax
   12127:	48 89 85 90 ea ff ff 	mov    %rax,-0x1570(%rbp)
   1212e:	48 c7 85 98 ea ff ff 	movq   $0x0,-0x1568(%rbp)
   12135:	00 00 00 00 
   12139:	48 8d 85 20 e8 ff ff 	lea    -0x17e0(%rbp),%rax
   12140:	48 89 85 a0 ea ff ff 	mov    %rax,-0x1560(%rbp)
   12147:	48 8d 85 20 e8 ff ff 	lea    -0x17e0(%rbp),%rax
   1214e:	48 89 85 a8 ea ff ff 	mov    %rax,-0x1558(%rbp)
   12155:	48 c7 85 b0 ea ff ff 	movq   $0x0,-0x1550(%rbp)
   1215c:	00 00 00 00 
   12160:	48 c7 85 b8 ea ff ff 	movq   $0x0,-0x1548(%rbp)
   12167:	00 00 00 00 
   1216b:	48 c7 85 c0 ea ff ff 	movq   $0x0,-0x1540(%rbp)
   12172:	00 00 00 00 
   12176:	48 8d 85 20 e8 ff ff 	lea    -0x17e0(%rbp),%rax
   1217d:	48 89 85 c8 ea ff ff 	mov    %rax,-0x1538(%rbp)
   12184:	48 8d 85 20 e8 ff ff 	lea    -0x17e0(%rbp),%rax
   1218b:	48 89 85 d0 ea ff ff 	mov    %rax,-0x1530(%rbp)
   12192:	48 8d 85 20 e8 ff ff 	lea    -0x17e0(%rbp),%rax
   12199:	48 89 85 d8 ea ff ff 	mov    %rax,-0x1528(%rbp)
   121a0:	48 8d 85 20 e8 ff ff 	lea    -0x17e0(%rbp),%rax
   121a7:	48 89 85 e0 ea ff ff 	mov    %rax,-0x1520(%rbp)
   121ae:	48 8d 85 20 e8 ff ff 	lea    -0x17e0(%rbp),%rax
   121b5:	48 89 85 e8 ea ff ff 	mov    %rax,-0x1518(%rbp)
   121bc:	48 8d 85 20 e8 ff ff 	lea    -0x17e0(%rbp),%rax
   121c3:	48 89 85 f0 ea ff ff 	mov    %rax,-0x1510(%rbp)
   121ca:	48 8d 85 20 e8 ff ff 	lea    -0x17e0(%rbp),%rax
   121d1:	48 89 85 f8 ea ff ff 	mov    %rax,-0x1508(%rbp)
   121d8:	48 8d 85 20 e8 ff ff 	lea    -0x17e0(%rbp),%rax
   121df:	48 89 85 00 eb ff ff 	mov    %rax,-0x1500(%rbp)
   121e6:	48 8d 85 20 e8 ff ff 	lea    -0x17e0(%rbp),%rax
   121ed:	48 89 85 08 eb ff ff 	mov    %rax,-0x14f8(%rbp)
   121f4:	48 8d 85 20 e8 ff ff 	lea    -0x17e0(%rbp),%rax
   121fb:	48 89 85 10 eb ff ff 	mov    %rax,-0x14f0(%rbp)
   12202:	48 8d 85 20 e8 ff ff 	lea    -0x17e0(%rbp),%rax
   12209:	48 89 85 18 eb ff ff 	mov    %rax,-0x14e8(%rbp)
   12210:	48 8d 85 20 e8 ff ff 	lea    -0x17e0(%rbp),%rax
   12217:	48 89 85 20 eb ff ff 	mov    %rax,-0x14e0(%rbp)
   1221e:	48 c7 85 28 eb ff ff 	movq   $0x0,-0x14d8(%rbp)
   12225:	00 00 00 00 
   12229:	48 8d 85 20 e8 ff ff 	lea    -0x17e0(%rbp),%rax
   12230:	48 89 85 30 eb ff ff 	mov    %rax,-0x14d0(%rbp)
   12237:	48 c7 85 38 eb ff ff 	movq   $0x0,-0x14c8(%rbp)
   1223e:	00 00 00 00 
   12242:	48 8d 85 20 e8 ff ff 	lea    -0x17e0(%rbp),%rax
   12249:	48 89 85 40 eb ff ff 	mov    %rax,-0x14c0(%rbp)
   12250:	48 8d 85 20 e8 ff ff 	lea    -0x17e0(%rbp),%rax
   12257:	48 89 85 48 eb ff ff 	mov    %rax,-0x14b8(%rbp)
   1225e:	48 8d 85 20 e8 ff ff 	lea    -0x17e0(%rbp),%rax
   12265:	48 89 85 50 eb ff ff 	mov    %rax,-0x14b0(%rbp)
   1226c:	48 8d 85 20 e8 ff ff 	lea    -0x17e0(%rbp),%rax
   12273:	48 89 85 58 eb ff ff 	mov    %rax,-0x14a8(%rbp)
   1227a:	48 8d 85 20 e8 ff ff 	lea    -0x17e0(%rbp),%rax
   12281:	48 89 85 60 eb ff ff 	mov    %rax,-0x14a0(%rbp)
   12288:	48 8d 85 20 e8 ff ff 	lea    -0x17e0(%rbp),%rax
   1228f:	48 89 85 68 eb ff ff 	mov    %rax,-0x1498(%rbp)
   12296:	48 8d 85 20 e8 ff ff 	lea    -0x17e0(%rbp),%rax
   1229d:	48 89 85 70 eb ff ff 	mov    %rax,-0x1490(%rbp)
   122a4:	48 8d 85 20 e8 ff ff 	lea    -0x17e0(%rbp),%rax
   122ab:	48 89 85 78 eb ff ff 	mov    %rax,-0x1488(%rbp)
   122b2:	48 c7 85 80 eb ff ff 	movq   $0x0,-0x1480(%rbp)
   122b9:	00 00 00 00 
   122bd:	48 8d 85 20 e8 ff ff 	lea    -0x17e0(%rbp),%rax
   122c4:	48 89 85 88 eb ff ff 	mov    %rax,-0x1478(%rbp)
   122cb:	48 8d 85 20 e8 ff ff 	lea    -0x17e0(%rbp),%rax
   122d2:	48 89 85 90 eb ff ff 	mov    %rax,-0x1470(%rbp)
   122d9:	48 c7 85 98 eb ff ff 	movq   $0x0,-0x1468(%rbp)
   122e0:	00 00 00 00 
   122e4:	48 c7 85 a0 eb ff ff 	movq   $0x0,-0x1460(%rbp)
   122eb:	00 00 00 00 
   122ef:	48 8d 85 20 e8 ff ff 	lea    -0x17e0(%rbp),%rax
   122f6:	48 89 85 a8 eb ff ff 	mov    %rax,-0x1458(%rbp)
   122fd:	48 8d 85 20 e8 ff ff 	lea    -0x17e0(%rbp),%rax
   12304:	48 89 85 b0 eb ff ff 	mov    %rax,-0x1450(%rbp)
   1230b:	48 8d 85 20 e8 ff ff 	lea    -0x17e0(%rbp),%rax
   12312:	48 89 85 b8 eb ff ff 	mov    %rax,-0x1448(%rbp)
   12319:	48 8d 85 20 e8 ff ff 	lea    -0x17e0(%rbp),%rax
   12320:	48 89 85 c0 eb ff ff 	mov    %rax,-0x1440(%rbp)
   12327:	48 8d 85 20 e8 ff ff 	lea    -0x17e0(%rbp),%rax
   1232e:	48 89 85 c8 eb ff ff 	mov    %rax,-0x1438(%rbp)
   12335:	48 8d 85 20 e8 ff ff 	lea    -0x17e0(%rbp),%rax
   1233c:	48 89 85 d0 eb ff ff 	mov    %rax,-0x1430(%rbp)
   12343:	48 8d 85 20 e8 ff ff 	lea    -0x17e0(%rbp),%rax
   1234a:	48 89 85 d8 eb ff ff 	mov    %rax,-0x1428(%rbp)
   12351:	48 8d 85 20 e8 ff ff 	lea    -0x17e0(%rbp),%rax
   12358:	48 89 85 e0 eb ff ff 	mov    %rax,-0x1420(%rbp)
   1235f:	48 8d 85 20 e8 ff ff 	lea    -0x17e0(%rbp),%rax
   12366:	48 89 85 e8 eb ff ff 	mov    %rax,-0x1418(%rbp)
   1236d:	48 8d 85 20 e8 ff ff 	lea    -0x17e0(%rbp),%rax
   12374:	48 89 85 f0 eb ff ff 	mov    %rax,-0x1410(%rbp)
   1237b:	48 c7 85 f8 eb ff ff 	movq   $0x0,-0x1408(%rbp)
   12382:	00 00 00 00 
   12386:	48 8d 85 20 e8 ff ff 	lea    -0x17e0(%rbp),%rax
   1238d:	48 89 85 00 ec ff ff 	mov    %rax,-0x1400(%rbp)
   12394:	48 8d 85 20 e8 ff ff 	lea    -0x17e0(%rbp),%rax
   1239b:	48 89 85 08 ec ff ff 	mov    %rax,-0x13f8(%rbp)
   123a2:	48 8d 85 20 e8 ff ff 	lea    -0x17e0(%rbp),%rax
   123a9:	48 89 85 10 ec ff ff 	mov    %rax,-0x13f0(%rbp)
   123b0:	48 8d 85 20 e8 ff ff 	lea    -0x17e0(%rbp),%rax
   123b7:	48 89 85 18 ec ff ff 	mov    %rax,-0x13e8(%rbp)
   123be:	48 8d 85 20 e8 ff ff 	lea    -0x17e0(%rbp),%rax
   123c5:	48 89 85 20 ec ff ff 	mov    %rax,-0x13e0(%rbp)
   123cc:	48 8d 85 20 e8 ff ff 	lea    -0x17e0(%rbp),%rax
   123d3:	48 89 85 28 ec ff ff 	mov    %rax,-0x13d8(%rbp)
   123da:	48 8d 85 20 e8 ff ff 	lea    -0x17e0(%rbp),%rax
   123e1:	48 89 85 30 ec ff ff 	mov    %rax,-0x13d0(%rbp)
   123e8:	48 8d 85 20 e8 ff ff 	lea    -0x17e0(%rbp),%rax
   123ef:	48 89 85 38 ec ff ff 	mov    %rax,-0x13c8(%rbp)
   123f6:	48 8d 85 20 e8 ff ff 	lea    -0x17e0(%rbp),%rax
   123fd:	48 89 85 40 ec ff ff 	mov    %rax,-0x13c0(%rbp)
   12404:	48 8d 85 20 e8 ff ff 	lea    -0x17e0(%rbp),%rax
   1240b:	48 89 85 48 ec ff ff 	mov    %rax,-0x13b8(%rbp)
   12412:	48 8d 85 20 e8 ff ff 	lea    -0x17e0(%rbp),%rax
   12419:	48 89 85 50 ec ff ff 	mov    %rax,-0x13b0(%rbp)
   12420:	66 c7 85 a0 e9 ff ff 	movw   $0x57b0,-0x1660(%rbp)
   12427:	b0 57 
   12429:	66 c7 85 a2 e9 ff ff 	movw   $0xffff,-0x165e(%rbp)
   12430:	ff ff 
   12432:	66 c7 85 a4 e9 ff ff 	movw   $0x57b0,-0x165c(%rbp)
   12439:	b0 57 
   1243b:	66 c7 85 a6 e9 ff ff 	movw   $0x57b0,-0x165a(%rbp)
   12442:	b0 57 
   12444:	66 c7 85 a8 e9 ff ff 	movw   $0xffff,-0x1658(%rbp)
   1244b:	ff ff 
   1244d:	66 c7 85 aa e9 ff ff 	movw   $0x57b0,-0x1656(%rbp)
   12454:	b0 57 
   12456:	66 c7 85 ac e9 ff ff 	movw   $0x57b0,-0x1654(%rbp)
   1245d:	b0 57 
   1245f:	66 c7 85 ae e9 ff ff 	movw   $0xffff,-0x1652(%rbp)
   12466:	ff ff 
   12468:	66 c7 85 b0 e9 ff ff 	movw   $0x57b0,-0x1650(%rbp)
   1246f:	b0 57 
   12471:	66 c7 85 b2 e9 ff ff 	movw   $0x57b0,-0x164e(%rbp)
   12478:	b0 57 
   1247a:	48 8b 85 60 e7 ff ff 	mov    -0x18a0(%rbp),%rax
   12481:	8b 18                	mov    (%rax),%ebx
   12483:	8b 85 6c e7 ff ff    	mov    -0x1894(%rbp),%eax
   12489:	41 89 c4             	mov    %eax,%r12d
   1248c:	48 8b 85 78 e9 ff ff 	mov    -0x1688(%rbp),%rax
   12493:	48 8d 15 96 9b 00 00 	lea    0x9b96(%rip),%rdx        # 1c030 <g_14>
   1249a:	48 39 d0             	cmp    %rdx,%rax
   1249d:	0f 95 c0             	setne  %al
   124a0:	0f b6 c0             	movzbl %al,%eax
   124a3:	89 85 b4 e7 ff ff    	mov    %eax,-0x184c(%rbp)
   124a9:	8b 85 6c e7 ff ff    	mov    -0x1894(%rbp),%eax
   124af:	85 c0                	test   %eax,%eax
   124b1:	0f 9f c0             	setg   %al
   124b4:	f7 d0                	not    %eax
   124b6:	0f be d0             	movsbl %al,%edx
   124b9:	48 8d 05 70 9b 00 00 	lea    0x9b70(%rip),%rax        # 1c030 <g_14>
   124c0:	0f b6 00             	movzbl (%rax),%eax
   124c3:	0f be c0             	movsbl %al,%eax
   124c6:	89 d6                	mov    %edx,%esi
   124c8:	89 c7                	mov    %eax,%edi
   124ca:	e8 43 2d ff ff       	callq  5212 <safe_mul_func_int8_t_s_s>
   124cf:	0f b6 c0             	movzbl %al,%eax
   124d2:	be 04 00 00 00       	mov    $0x4,%esi
   124d7:	89 c7                	mov    %eax,%edi
   124d9:	e8 af 37 ff ff       	callq  5c8d <safe_rshift_func_uint8_t_u_s>
   124de:	48 8d 05 4b 9b 00 00 	lea    0x9b4b(%rip),%rax        # 1c030 <g_14>
   124e5:	0f b6 00             	movzbl (%rax),%eax
   124e8:	0f be d0             	movsbl %al,%edx
   124eb:	8b 85 6c e7 ff ff    	mov    -0x1894(%rbp),%eax
   124f1:	39 c2                	cmp    %eax,%edx
   124f3:	0f 9e c0             	setle  %al
   124f6:	0f b6 c0             	movzbl %al,%eax
   124f9:	be 01 00 00 00       	mov    $0x1,%esi
   124fe:	89 c7                	mov    %eax,%edi
   12500:	e8 e9 2d ff ff       	callq  52ee <safe_lshift_func_int8_t_s_u>
   12505:	0f be c0             	movsbl %al,%eax
   12508:	be e1 73 9b 7f       	mov    $0x7f9b73e1,%esi
   1250d:	89 c7                	mov    %eax,%edi
   1250f:	e8 a2 30 ff ff       	callq  55b6 <safe_add_func_int32_t_s_s>
   12514:	85 c0                	test   %eax,%eax
   12516:	0f 94 c0             	sete   %al
   12519:	0f b6 d0             	movzbl %al,%edx
   1251c:	8b 85 6c e7 ff ff    	mov    -0x1894(%rbp),%eax
   12522:	39 c2                	cmp    %eax,%edx
   12524:	7c 08                	jl     1252e <func_61+0x1daa>
   12526:	8b 85 6c e7 ff ff    	mov    -0x1894(%rbp),%eax
   1252c:	85 c0                	test   %eax,%eax
   1252e:	0f b6 05 73 dc 00 00 	movzbl 0xdc73(%rip),%eax        # 201a8 <g_173>
   12535:	48 8b 05 14 9b 00 00 	mov    0x9b14(%rip),%rax        # 1c050 <g_83+0x8>
   1253c:	c7 85 fc e7 ff ff 01 	movl   $0x1,-0x1804(%rbp)
   12543:	00 00 00 
   12546:	48 8b 85 38 e8 ff ff 	mov    -0x17c8(%rbp),%rax
   1254d:	48 8b 00             	mov    (%rax),%rax
   12550:	48 8b 10             	mov    (%rax),%rdx
   12553:	48 8b 85 48 e9 ff ff 	mov    -0x16b8(%rbp),%rax
   1255a:	48 89 10             	mov    %rdx,(%rax)
   1255d:	0f b7 05 e4 9a 00 00 	movzwl 0x9ae4(%rip),%eax        # 1c048 <g_83>
   12564:	66 25 ff 0f          	and    $0xfff,%ax
   12568:	66 85 c0             	test   %ax,%ax
   1256b:	44 89 e6             	mov    %r12d,%esi
   1256e:	bf 01 00 00 00       	mov    $0x1,%edi
   12573:	e8 69 2f ff ff       	callq  54e1 <safe_lshift_func_int16_t_s_u>
   12578:	8b 85 6c e7 ff ff    	mov    -0x1894(%rbp),%eax
   1257e:	85 c0                	test   %eax,%eax
   12580:	74 12                	je     12594 <func_61+0x1e10>
   12582:	0f b6 05 1f dc 00 00 	movzbl 0xdc1f(%rip),%eax        # 201a8 <g_173>
   12589:	84 c0                	test   %al,%al
   1258b:	74 07                	je     12594 <func_61+0x1e10>
   1258d:	b8 01 00 00 00       	mov    $0x1,%eax
   12592:	eb 05                	jmp    12599 <func_61+0x1e15>
   12594:	b8 00 00 00 00       	mov    $0x0,%eax
   12599:	39 d8                	cmp    %ebx,%eax
   1259b:	0f 94 c0             	sete   %al
   1259e:	0f b6 d0             	movzbl %al,%edx
   125a1:	48 8b 85 88 e8 ff ff 	mov    -0x1778(%rbp),%rax
   125a8:	89 10                	mov    %edx,(%rax)
   125aa:	48 8b 85 38 e8 ff ff 	mov    -0x17c8(%rbp),%rax
   125b1:	48 8b 00             	mov    (%rax),%rax
   125b4:	48 8b 00             	mov    (%rax),%rax
   125b7:	8b 10                	mov    (%rax),%edx
   125b9:	83 c2 01             	add    $0x1,%edx
   125bc:	89 10                	mov    %edx,(%rax)
   125be:	8b 85 6c e7 ff ff    	mov    -0x1894(%rbp),%eax
   125c4:	0f b6 d8             	movzbl %al,%ebx
   125c7:	be 00 00 00 00       	mov    $0x0,%esi
   125cc:	bf 01 00 00 00       	mov    $0x1,%edi
   125d1:	e8 6b 32 ff ff       	callq  5841 <safe_add_func_int64_t_s_s>
   125d6:	8b 95 6c e7 ff ff    	mov    -0x1894(%rbp),%edx
   125dc:	48 63 d2             	movslq %edx,%rdx
   125df:	48 39 d0             	cmp    %rdx,%rax
   125e2:	7e 07                	jle    125eb <func_61+0x1e67>
   125e4:	ba 01 00 00 00       	mov    $0x1,%edx
   125e9:	eb 05                	jmp    125f0 <func_61+0x1e6c>
   125eb:	ba 00 00 00 00       	mov    $0x0,%edx
   125f0:	0f b6 05 49 9a 00 00 	movzbl 0x9a49(%rip),%eax        # 1c040 <g_69>
   125f7:	0f b6 c0             	movzbl %al,%eax
   125fa:	09 d0                	or     %edx,%eax
   125fc:	85 c0                	test   %eax,%eax
   125fe:	8b 85 6c e7 ff ff    	mov    -0x1894(%rbp),%eax
   12604:	0f b6 c0             	movzbl %al,%eax
   12607:	89 de                	mov    %ebx,%esi
   12609:	89 c7                	mov    %eax,%edi
   1260b:	e8 4a 35 ff ff       	callq  5b5a <safe_add_func_uint8_t_u_u>
   12610:	b9 00 00 00 00       	mov    $0x0,%ecx
   12615:	0f b7 85 a8 e9 ff ff 	movzwl -0x1658(%rbp),%eax
   1261c:	89 c2                	mov    %eax,%edx
   1261e:	89 c8                	mov    %ecx,%eax
   12620:	31 d0                	xor    %edx,%eax
   12622:	66 89 85 a8 e9 ff ff 	mov    %ax,-0x1658(%rbp)
   12629:	0f b6 05 26 9a 00 00 	movzbl 0x9a26(%rip),%eax        # 1c056 <g_101>
   12630:	83 e8 01             	sub    $0x1,%eax
   12633:	88 05 1d 9a 00 00    	mov    %al,0x9a1d(%rip)        # 1c056 <g_101>
   12639:	0f b6 05 16 9a 00 00 	movzbl 0x9a16(%rip),%eax        # 1c056 <g_101>
   12640:	3c ec                	cmp    $0xec,%al
   12642:	0f 8d 5e fa ff ff    	jge    120a6 <func_61+0x1922>
   12648:	48 8b 85 18 e9 ff ff 	mov    -0x16e8(%rbp),%rax
   1264f:	48 8b 00             	mov    (%rax),%rax
   12652:	48 83 f0 07          	xor    $0x7,%rax
   12656:	48 89 c2             	mov    %rax,%rdx
   12659:	48 8b 85 18 e9 ff ff 	mov    -0x16e8(%rbp),%rax
   12660:	48 89 10             	mov    %rdx,(%rax)
   12663:	48 8b 85 18 e9 ff ff 	mov    -0x16e8(%rbp),%rax
   1266a:	48 8b 00             	mov    (%rax),%rax
   1266d:	48 89 c7             	mov    %rax,%rdi
   12670:	e8 a1 31 ff ff       	callq  5816 <safe_unary_minus_func_int64_t_s>
   12675:	49 89 c4             	mov    %rax,%r12
   12678:	48 8b 85 80 e9 ff ff 	mov    -0x1680(%rbp),%rax
   1267f:	41 89 c6             	mov    %eax,%r14d
   12682:	8b 85 6c e7 ff ff    	mov    -0x1894(%rbp),%eax
   12688:	48 63 d8             	movslq %eax,%rbx
   1268b:	48 8b 85 70 e8 ff ff 	mov    -0x1790(%rbp),%rax
   12692:	44 8b 28             	mov    (%rax),%r13d
   12695:	48 8b 05 04 c3 00 00 	mov    0xc304(%rip),%rax        # 1e9a0 <g_52>
   1269c:	48 8b 85 98 e8 ff ff 	mov    -0x1768(%rbp),%rax
   126a3:	8b 10                	mov    (%rax),%edx
   126a5:	48 8b 05 a4 99 00 00 	mov    0x99a4(%rip),%rax        # 1c050 <g_83+0x8>
   126ac:	25 ff ff ff 07       	and    $0x7ffffff,%eax
   126b1:	89 c6                	mov    %eax,%esi
   126b3:	48 8b 85 20 e9 ff ff 	mov    -0x16e0(%rbp),%rax
   126ba:	0f b7 00             	movzwl (%rax),%eax
   126bd:	83 e0 01             	and    $0x1,%eax
   126c0:	89 c1                	mov    %eax,%ecx
   126c2:	48 8b 85 20 e9 ff ff 	mov    -0x16e0(%rbp),%rax
   126c9:	66 89 08             	mov    %cx,(%rax)
   126cc:	48 8b 85 20 e9 ff ff 	mov    -0x16e0(%rbp),%rax
   126d3:	0f b7 00             	movzwl (%rax),%eax
   126d6:	98                   	cwtl   
   126d7:	39 c6                	cmp    %eax,%esi
   126d9:	74 14                	je     126ef <func_61+0x1f6b>
   126db:	48 8b 05 c6 c2 00 00 	mov    0xc2c6(%rip),%rax        # 1e9a8 <g_76>
   126e2:	8b 00                	mov    (%rax),%eax
   126e4:	85 c0                	test   %eax,%eax
   126e6:	74 07                	je     126ef <func_61+0x1f6b>
   126e8:	b8 01 00 00 00       	mov    $0x1,%eax
   126ed:	eb 05                	jmp    126f4 <func_61+0x1f70>
   126ef:	b8 00 00 00 00       	mov    $0x0,%eax
   126f4:	39 d0                	cmp    %edx,%eax
   126f6:	0f 9c c0             	setl   %al
   126f9:	0f b6 d0             	movzbl %al,%edx
   126fc:	0f bf 85 8e e7 ff ff 	movswl -0x1872(%rbp),%eax
   12703:	31 d0                	xor    %edx,%eax
   12705:	3d f6 ff 00 00       	cmp    $0xfff6,%eax
   1270a:	0f 97 c0             	seta   %al
   1270d:	0f b6 d0             	movzbl %al,%edx
   12710:	48 8b 85 a8 e8 ff ff 	mov    -0x1758(%rbp),%rax
   12717:	8b 00                	mov    (%rax),%eax
   12719:	21 c2                	and    %eax,%edx
   1271b:	48 8b 85 a8 e8 ff ff 	mov    -0x1758(%rbp),%rax
   12722:	89 10                	mov    %edx,(%rax)
   12724:	8b 85 6c e7 ff ff    	mov    -0x1894(%rbp),%eax
   1272a:	0f b7 c0             	movzwl %ax,%eax
   1272d:	be 09 00 00 00       	mov    $0x9,%esi
   12732:	89 c7                	mov    %eax,%edi
   12734:	e8 04 36 ff ff       	callq  5d3d <safe_mul_func_uint16_t_u_u>
   12739:	0f b7 c0             	movzwl %ax,%eax
   1273c:	41 39 c5             	cmp    %eax,%r13d
   1273f:	0f 9f c0             	setg   %al
   12742:	0f b6 c0             	movzbl %al,%eax
   12745:	48 89 de             	mov    %rbx,%rsi
   12748:	48 89 c7             	mov    %rax,%rdi
   1274b:	e8 a7 32 ff ff       	callq  59f7 <safe_div_func_int64_t_s_s>
   12750:	44 89 f6             	mov    %r14d,%esi
   12753:	89 c7                	mov    %eax,%edi
   12755:	e8 72 2f ff ff       	callq  56cc <safe_mod_func_int32_t_s_s>
   1275a:	85 c0                	test   %eax,%eax
   1275c:	75 0a                	jne    12768 <func_61+0x1fe4>
   1275e:	8b 85 6c e7 ff ff    	mov    -0x1894(%rbp),%eax
   12764:	85 c0                	test   %eax,%eax
   12766:	74 07                	je     1276f <func_61+0x1feb>
   12768:	b8 01 00 00 00       	mov    $0x1,%eax
   1276d:	eb 05                	jmp    12774 <func_61+0x1ff0>
   1276f:	b8 00 00 00 00       	mov    $0x0,%eax
   12774:	85 c0                	test   %eax,%eax
   12776:	0f 95 c0             	setne  %al
   12779:	0f b6 d0             	movzbl %al,%edx
   1277c:	8b 85 6c e7 ff ff    	mov    -0x1894(%rbp),%eax
   12782:	39 c2                	cmp    %eax,%edx
   12784:	0f 9c c0             	setl   %al
   12787:	0f b6 d0             	movzbl %al,%edx
   1278a:	8b 85 6c e7 ff ff    	mov    -0x1894(%rbp),%eax
   12790:	39 c2                	cmp    %eax,%edx
   12792:	0f 9d c0             	setge  %al
   12795:	0f b6 c0             	movzbl %al,%eax
   12798:	89 c2                	mov    %eax,%edx
   1279a:	0f b6 05 b5 98 00 00 	movzbl 0x98b5(%rip),%eax        # 1c056 <g_101>
   127a1:	09 d0                	or     %edx,%eax
   127a3:	88 05 ad 98 00 00    	mov    %al,0x98ad(%rip)        # 1c056 <g_101>
   127a9:	0f b6 05 a6 98 00 00 	movzbl 0x98a6(%rip),%eax        # 1c056 <g_101>
   127b0:	0f be d0             	movsbl %al,%edx
   127b3:	8b 85 6c e7 ff ff    	mov    -0x1894(%rbp),%eax
   127b9:	39 c2                	cmp    %eax,%edx
   127bb:	0f 9f c0             	setg   %al
   127be:	0f b6 c0             	movzbl %al,%eax
   127c1:	89 c7                	mov    %eax,%edi
   127c3:	e8 7d 33 ff ff       	callq  5b45 <safe_unary_minus_func_uint8_t_u>
   127c8:	84 c0                	test   %al,%al
   127ca:	48 8b 85 08 e9 ff ff 	mov    -0x16f8(%rbp),%rax
   127d1:	48 89 05 e8 c1 00 00 	mov    %rax,0xc1e8(%rip)        # 1e9c0 <g_213>
   127d8:	48 8b 15 e1 c1 00 00 	mov    0xc1e1(%rip),%rdx        # 1e9c0 <g_213>
   127df:	48 8b 85 00 e8 ff ff 	mov    -0x1800(%rbp),%rax
   127e6:	48 39 c2             	cmp    %rax,%rdx
   127e9:	0f 95 c0             	setne  %al
   127ec:	0f b6 c0             	movzbl %al,%eax
   127ef:	89 85 b4 e7 ff ff    	mov    %eax,-0x184c(%rbp)
   127f5:	8b 85 b4 e7 ff ff    	mov    -0x184c(%rbp),%eax
   127fb:	0c e9                	or     $0xe9,%al
   127fd:	3d 3e 46 00 00       	cmp    $0x463e,%eax
   12802:	83 bd b0 e7 ff ff 00 	cmpl   $0x0,-0x1850(%rbp)
   12809:	74 10                	je     1281b <func_61+0x2097>
   1280b:	83 bd ec e7 ff ff 00 	cmpl   $0x0,-0x1814(%rbp)
   12812:	74 07                	je     1281b <func_61+0x2097>
   12814:	b8 01 00 00 00       	mov    $0x1,%eax
   12819:	eb 05                	jmp    12820 <func_61+0x209c>
   1281b:	b8 00 00 00 00       	mov    $0x0,%eax
   12820:	48 98                	cltq   
   12822:	49 39 c4             	cmp    %rax,%r12
   12825:	7d 0c                	jge    12833 <func_61+0x20af>
   12827:	48 8b 05 9a c1 00 00 	mov    0xc19a(%rip),%rax        # 1e9c8 <g_217>
   1282e:	e9 3e 0f 00 00       	jmpq   13771 <func_61+0x2fed>
   12833:	48 c7 85 28 e9 ff ff 	movq   $0xffffffffffffffff,-0x16d8(%rbp)
   1283a:	ff ff ff ff 
   1283e:	c7 85 f4 e7 ff ff 01 	movl   $0x1,-0x180c(%rbp)
   12845:	00 00 00 
   12848:	c7 85 f8 e7 ff ff 1f 	movl   $0x7fbe321f,-0x1808(%rbp)
   1284f:	32 be 7f 
   12852:	48 8b 85 60 e7 ff ff 	mov    -0x18a0(%rbp),%rax
   12859:	8b 00                	mov    (%rax),%eax
   1285b:	89 85 a8 e7 ff ff    	mov    %eax,-0x1858(%rbp)
   12861:	48 8b 05 48 c1 00 00 	mov    0xc148(%rip),%rax        # 1e9b0 <g_75>
   12868:	48 8b 00             	mov    (%rax),%rax
   1286b:	8b 00                	mov    (%rax),%eax
   1286d:	41 89 c5             	mov    %eax,%r13d
   12870:	48 8b 85 28 e9 ff ff 	mov    -0x16d8(%rbp),%rax
   12877:	41 89 c6             	mov    %eax,%r14d
   1287a:	8b 85 6c e7 ff ff    	mov    -0x1894(%rbp),%eax
   12880:	48 63 d8             	movslq %eax,%rbx
   12883:	8b 85 a8 e7 ff ff    	mov    -0x1858(%rbp),%eax
   12889:	98                   	cwtl   
   1288a:	89 c6                	mov    %eax,%esi
   1288c:	bf 65 68 00 00       	mov    $0x6865,%edi
   12891:	e8 80 2b ff ff       	callq  5416 <safe_mod_func_int16_t_s_s>
   12896:	44 0f bf e0          	movswl %ax,%r12d
   1289a:	48 8b 05 27 c1 00 00 	mov    0xc127(%rip),%rax        # 1e9c8 <g_217>
   128a1:	48 8b 00             	mov    (%rax),%rax
   128a4:	48 83 f8 03          	cmp    $0x3,%rax
   128a8:	0f 96 c0             	setbe  %al
   128ab:	0f b6 d0             	movzbl %al,%edx
   128ae:	8b 85 6c e7 ff ff    	mov    -0x1894(%rbp),%eax
   128b4:	39 c2                	cmp    %eax,%edx
   128b6:	0f 94 c0             	sete   %al
   128b9:	0f b6 c0             	movzbl %al,%eax
   128bc:	be 09 00 00 00       	mov    $0x9,%esi
   128c1:	89 c7                	mov    %eax,%edi
   128c3:	e8 b0 32 ff ff       	callq  5b78 <safe_sub_func_uint8_t_u_u>
   128c8:	0f b6 c0             	movzbl %al,%eax
   128cb:	48 be 89 f3 23 e9 6b 	movabs $0x3714b16be923f389,%rsi
   128d2:	b1 14 37 
   128d5:	48 89 c7             	mov    %rax,%rdi
   128d8:	e8 d7 30 ff ff       	callq  59b4 <safe_mod_func_int64_t_s_s>
   128dd:	48 85 c0             	test   %rax,%rax
   128e0:	74 11                	je     128f3 <func_61+0x216f>
   128e2:	8b 85 6c e7 ff ff    	mov    -0x1894(%rbp),%eax
   128e8:	85 c0                	test   %eax,%eax
   128ea:	74 07                	je     128f3 <func_61+0x216f>
   128ec:	ba 01 00 00 00       	mov    $0x1,%edx
   128f1:	eb 05                	jmp    128f8 <func_61+0x2174>
   128f3:	ba 00 00 00 00       	mov    $0x0,%edx
   128f8:	8b 85 6c e7 ff ff    	mov    -0x1894(%rbp),%eax
   128fe:	31 c2                	xor    %eax,%edx
   12900:	0f bf 85 8e e7 ff ff 	movswl -0x1872(%rbp),%eax
   12907:	09 c2                	or     %eax,%edx
   12909:	48 8d 05 20 97 00 00 	lea    0x9720(%rip),%rax        # 1c030 <g_14>
   12910:	0f b6 00             	movzbl (%rax),%eax
   12913:	0f be c0             	movsbl %al,%eax
   12916:	09 d0                	or     %edx,%eax
   12918:	44 31 e0             	xor    %r12d,%eax
   1291b:	48 98                	cltq   
   1291d:	48 89 de             	mov    %rbx,%rsi
   12920:	48 89 c7             	mov    %rax,%rdi
   12923:	e8 87 37 ff ff       	callq  60af <safe_div_func_uint64_t_u_u>
   12928:	48 83 f0 05          	xor    $0x5,%rax
   1292c:	48 89 c2             	mov    %rax,%rdx
   1292f:	48 8b 85 28 e9 ff ff 	mov    -0x16d8(%rbp),%rax
   12936:	48 39 c2             	cmp    %rax,%rdx
   12939:	0f 96 c0             	setbe  %al
   1293c:	0f b6 c0             	movzbl %al,%eax
   1293f:	44 89 f6             	mov    %r14d,%esi
   12942:	89 c7                	mov    %eax,%edi
   12944:	e8 6f 35 ff ff       	callq  5eb8 <safe_add_func_uint32_t_u_u>
   12949:	44 89 ee             	mov    %r13d,%esi
   1294c:	89 c7                	mov    %eax,%edi
   1294e:	e8 ac 2d ff ff       	callq  56ff <safe_div_func_int32_t_s_s>
   12953:	f7 d0                	not    %eax
   12955:	89 c2                	mov    %eax,%edx
   12957:	48 8b 85 80 e8 ff ff 	mov    -0x1780(%rbp),%rax
   1295e:	89 10                	mov    %edx,(%rax)
   12960:	8b 05 16 97 00 00    	mov    0x9716(%rip),%eax        # 1c07c <g_244+0x4>
   12966:	83 c0 01             	add    $0x1,%eax
   12969:	89 05 0d 97 00 00    	mov    %eax,0x970d(%rip)        # 1c07c <g_244+0x4>
   1296f:	8b 85 6c e7 ff ff    	mov    -0x1894(%rbp),%eax
   12975:	85 c0                	test   %eax,%eax
   12977:	74 05                	je     1297e <func_61+0x21fa>
   12979:	e9 38 df ff ff       	jmpq   108b6 <func_61+0x132>
   1297e:	8b 05 fc 96 00 00    	mov    0x96fc(%rip),%eax        # 1c080 <g_252>
   12984:	83 c0 01             	add    $0x1,%eax
   12987:	89 05 f3 96 00 00    	mov    %eax,0x96f3(%rip)        # 1c080 <g_252>
   1298d:	48 8b 85 08 e8 ff ff 	mov    -0x17f8(%rbp),%rax
   12994:	48 8d 15 e9 96 00 00 	lea    0x96e9(%rip),%rdx        # 1c084 <g_258>
   1299b:	48 39 d0             	cmp    %rdx,%rax
   1299e:	0f 95 c0             	setne  %al
   129a1:	0f b6 d0             	movzbl %al,%edx
   129a4:	8b 85 b0 e7 ff ff    	mov    -0x1850(%rbp),%eax
   129aa:	0f be c0             	movsbl %al,%eax
   129ad:	89 d6                	mov    %edx,%esi
   129af:	89 c7                	mov    %eax,%edi
   129b1:	e8 3c 28 ff ff       	callq  51f2 <safe_sub_func_int8_t_s_s>
   129b6:	0f be d0             	movsbl %al,%edx
   129b9:	8b 85 6c e7 ff ff    	mov    -0x1894(%rbp),%eax
   129bf:	39 c2                	cmp    %eax,%edx
   129c1:	0f 95 c0             	setne  %al
   129c4:	0f b6 c8             	movzbl %al,%ecx
   129c7:	48 8b 85 60 e7 ff ff 	mov    -0x18a0(%rbp),%rax
   129ce:	8b 10                	mov    (%rax),%edx
   129d0:	48 8b 85 60 e7 ff ff 	mov    -0x18a0(%rbp),%rax
   129d7:	21 ca                	and    %ecx,%edx
   129d9:	89 10                	mov    %edx,(%rax)
   129db:	48 8d 05 5a 96 00 00 	lea    0x965a(%rip),%rax        # 1c03c <g_58>
   129e2:	48 89 05 b7 bf 00 00 	mov    %rax,0xbfb7(%rip)        # 1e9a0 <g_52>
   129e9:	c7 85 90 e7 ff ff 06 	movl   $0x6,-0x1870(%rbp)
   129f0:	00 00 00 
   129f3:	e9 68 01 00 00       	jmpq   12b60 <func_61+0x23dc>
   129f8:	c6 85 82 e7 ff ff 00 	movb   $0x0,-0x187e(%rbp)
   129ff:	48 c7 85 30 e9 ff ff 	movq   $0x0,-0x16d0(%rbp)
   12a06:	00 00 00 00 
   12a0a:	48 8b 05 8f bf 00 00 	mov    0xbf8f(%rip),%rax        # 1e9a0 <g_52>
   12a11:	8b 08                	mov    (%rax),%ecx
   12a13:	48 8b 85 60 e7 ff ff 	mov    -0x18a0(%rbp),%rax
   12a1a:	8b 10                	mov    (%rax),%edx
   12a1c:	48 8b 85 60 e7 ff ff 	mov    -0x18a0(%rbp),%rax
   12a23:	31 ca                	xor    %ecx,%edx
   12a25:	89 10                	mov    %edx,(%rax)
   12a27:	8b 00                	mov    (%rax),%eax
   12a29:	85 c0                	test   %eax,%eax
   12a2b:	0f 84 c0 00 00 00    	je     12af1 <func_61+0x236d>
   12a31:	48 c7 85 38 e9 ff ff 	movq   $0x0,-0x16c8(%rbp)
   12a38:	00 00 00 00 
   12a3c:	48 8d 85 00 e8 ff ff 	lea    -0x1800(%rbp),%rax
   12a43:	48 89 85 40 e9 ff ff 	mov    %rax,-0x16c0(%rbp)
   12a4a:	48 8b 85 40 e9 ff ff 	mov    -0x16c0(%rbp),%rax
   12a51:	48 8d 15 fe 95 00 00 	lea    0x95fe(%rip),%rdx        # 1c056 <g_101>
   12a58:	48 89 10             	mov    %rdx,(%rax)
   12a5b:	be 0b 00 00 00       	mov    $0xb,%esi
   12a60:	bf 00 00 00 00       	mov    $0x0,%edi
   12a65:	e8 10 34 ff ff       	callq  5e7a <safe_rshift_func_uint16_t_u_u>
   12a6a:	66 85 c0             	test   %ax,%ax
   12a6d:	75 08                	jne    12a77 <func_61+0x22f3>
   12a6f:	8b 85 6c e7 ff ff    	mov    -0x1894(%rbp),%eax
   12a75:	85 c0                	test   %eax,%eax
   12a77:	48 8b 05 ca 95 00 00 	mov    0x95ca(%rip),%rax        # 1c048 <g_83>
   12a7e:	48 c1 e0 0a          	shl    $0xa,%rax
   12a82:	48 c1 f8 33          	sar    $0x33,%rax
   12a86:	0f bf d0             	movswl %ax,%edx
   12a89:	0f b6 05 c6 95 00 00 	movzbl 0x95c6(%rip),%eax        # 1c056 <g_101>
   12a90:	0f be c0             	movsbl %al,%eax
   12a93:	89 d6                	mov    %edx,%esi
   12a95:	89 c7                	mov    %eax,%edi
   12a97:	e8 7a 29 ff ff       	callq  5416 <safe_mod_func_int16_t_s_s>
   12a9c:	0f b7 c0             	movzwl %ax,%eax
   12a9f:	be 01 00 00 00       	mov    $0x1,%esi
   12aa4:	89 c7                	mov    %eax,%edi
   12aa6:	e8 5b 33 ff ff       	callq  5e06 <safe_lshift_func_uint16_t_u_u>
   12aab:	89 c2                	mov    %eax,%edx
   12aad:	48 8b 85 60 e7 ff ff 	mov    -0x18a0(%rbp),%rax
   12ab4:	0f b7 d2             	movzwl %dx,%edx
   12ab7:	89 10                	mov    %edx,(%rax)
   12ab9:	48 b8 31 ef 84 81 d8 	movabs $0xa0727ed88184ef31,%rax
   12ac0:	7e 72 a0 
   12ac3:	89 c2                	mov    %eax,%edx
   12ac5:	0f b7 85 88 e7 ff ff 	movzwl -0x1878(%rbp),%eax
   12acc:	31 d0                	xor    %edx,%eax
   12ace:	66 89 85 88 e7 ff ff 	mov    %ax,-0x1878(%rbp)
   12ad5:	48 8b 85 20 e8 ff ff 	mov    -0x17e0(%rbp),%rax
   12adc:	48 8d 95 6c e7 ff ff 	lea    -0x1894(%rbp),%rdx
   12ae3:	48 89 10             	mov    %rdx,(%rax)
   12ae6:	80 bd 82 e7 ff ff 00 	cmpb   $0x0,-0x187e(%rbp)
   12aed:	74 54                	je     12b43 <func_61+0x23bf>
   12aef:	eb 60                	jmp    12b51 <func_61+0x23cd>
   12af1:	48 8b 05 a8 be 00 00 	mov    0xbea8(%rip),%rax        # 1e9a0 <g_52>
   12af8:	8b 00                	mov    (%rax),%eax
   12afa:	85 c0                	test   %eax,%eax
   12afc:	75 73                	jne    12b71 <func_61+0x23ed>
   12afe:	48 8b 85 60 e7 ff ff 	mov    -0x18a0(%rbp),%rax
   12b05:	8b 00                	mov    (%rax),%eax
   12b07:	85 c0                	test   %eax,%eax
   12b09:	75 69                	jne    12b74 <func_61+0x23f0>
   12b0b:	48 8b 85 60 e7 ff ff 	mov    -0x18a0(%rbp),%rax
   12b12:	8b 00                	mov    (%rax),%eax
   12b14:	85 c0                	test   %eax,%eax
   12b16:	75 5f                	jne    12b77 <func_61+0x23f3>
   12b18:	48 8b 85 b0 e8 ff ff 	mov    -0x1750(%rbp),%rax
   12b1f:	48 89 05 aa be 00 00 	mov    %rax,0xbeaa(%rip)        # 1e9d0 <g_274>
   12b26:	48 8b 05 a3 be 00 00 	mov    0xbea3(%rip),%rax        # 1e9d0 <g_274>
   12b2d:	48 39 85 30 e9 ff ff 	cmp    %rax,-0x16d0(%rbp)
   12b34:	0f 95 c0             	setne  %al
   12b37:	0f b6 d0             	movzbl %al,%edx
   12b3a:	48 8b 85 80 e8 ff ff 	mov    -0x1780(%rbp),%rax
   12b41:	89 10                	mov    %edx,(%rax)
   12b43:	48 8b 85 20 e8 ff ff 	mov    -0x17e0(%rbp),%rax
   12b4a:	48 c7 00 00 00 00 00 	movq   $0x0,(%rax)
   12b51:	8b 85 90 e7 ff ff    	mov    -0x1870(%rbp),%eax
   12b57:	83 e8 01             	sub    $0x1,%eax
   12b5a:	89 85 90 e7 ff ff    	mov    %eax,-0x1870(%rbp)
   12b60:	8b 85 90 e7 ff ff    	mov    -0x1870(%rbp),%eax
   12b66:	83 f8 01             	cmp    $0x1,%eax
   12b69:	0f 85 89 fe ff ff    	jne    129f8 <func_61+0x2274>
   12b6f:	eb 07                	jmp    12b78 <func_61+0x23f4>
   12b71:	90                   	nop
   12b72:	eb 04                	jmp    12b78 <func_61+0x23f4>
   12b74:	90                   	nop
   12b75:	eb 01                	jmp    12b78 <func_61+0x23f4>
   12b77:	90                   	nop
   12b78:	83 ad b0 e7 ff ff 01 	subl   $0x1,-0x1850(%rbp)
   12b7f:	83 bd b0 e7 ff ff 00 	cmpl   $0x0,-0x1850(%rbp)
   12b86:	0f 89 87 f2 ff ff    	jns    11e13 <func_61+0x168f>
   12b8c:	66 c7 85 84 e7 ff ff 	movw   $0x2,-0x187c(%rbp)
   12b93:	02 00 
   12b95:	90                   	nop
   12b96:	0f b7 85 84 e7 ff ff 	movzwl -0x187c(%rbp),%eax
   12b9d:	66 85 c0             	test   %ax,%ax
   12ba0:	0f 88 ce 01 00 00    	js     12d74 <func_61+0x25f0>
   12ba6:	48 8d 05 7b 94 00 00 	lea    0x947b(%rip),%rax        # 1c028 <g_11>
   12bad:	48 89 85 60 ea ff ff 	mov    %rax,-0x15a0(%rbp)
   12bb4:	48 c7 85 68 ea ff ff 	movq   $0x0,-0x1598(%rbp)
   12bbb:	00 00 00 00 
   12bbf:	48 8d 05 62 94 00 00 	lea    0x9462(%rip),%rax        # 1c028 <g_11>
   12bc6:	48 89 85 70 ea ff ff 	mov    %rax,-0x1590(%rbp)
   12bcd:	48 c7 85 78 ea ff ff 	movq   $0x0,-0x1588(%rbp)
   12bd4:	00 00 00 00 
   12bd8:	48 8d 05 49 94 00 00 	lea    0x9449(%rip),%rax        # 1c028 <g_11>
   12bdf:	48 89 85 80 ea ff ff 	mov    %rax,-0x1580(%rbp)
   12be6:	48 c7 85 88 ea ff ff 	movq   $0x0,-0x1578(%rbp)
   12bed:	00 00 00 00 
   12bf1:	48 8d 05 30 94 00 00 	lea    0x9430(%rip),%rax        # 1c028 <g_11>
   12bf8:	48 89 85 90 ea ff ff 	mov    %rax,-0x1570(%rbp)
   12bff:	48 c7 85 98 ea ff ff 	movq   $0x0,-0x1568(%rbp)
   12c06:	00 00 00 00 
   12c0a:	48 8d 05 17 94 00 00 	lea    0x9417(%rip),%rax        # 1c028 <g_11>
   12c11:	48 89 85 a0 ea ff ff 	mov    %rax,-0x1560(%rbp)
   12c18:	48 c7 85 a8 ea ff ff 	movq   $0x0,-0x1558(%rbp)
   12c1f:	00 00 00 00 
   12c23:	48 8b 85 88 e8 ff ff 	mov    -0x1778(%rbp),%rax
   12c2a:	8b 00                	mov    (%rax),%eax
   12c2c:	48 98                	cltq   
   12c2e:	48 89 c6             	mov    %rax,%rsi
   12c31:	48 bf 28 42 55 0b 51 	movabs $0xf12f4b510b554228,%rdi
   12c38:	4b 2f f1 
   12c3b:	e8 74 2d ff ff       	callq  59b4 <safe_mod_func_int64_t_s_s>
   12c40:	49 89 c5             	mov    %rax,%r13
   12c43:	48 8b 05 5e bd 00 00 	mov    0xbd5e(%rip),%rax        # 1e9a8 <g_76>
   12c4a:	44 8b 30             	mov    (%rax),%r14d
   12c4d:	8b 9d 6c e7 ff ff    	mov    -0x1894(%rbp),%ebx
   12c53:	48 8b 05 f6 93 00 00 	mov    0x93f6(%rip),%rax        # 1c050 <g_83+0x8>
   12c5a:	48 c1 e8 1b          	shr    $0x1b,%rax
   12c5e:	66 25 ff 3f          	and    $0x3fff,%ax
   12c62:	44 0f b6 e0          	movzbl %al,%r12d
   12c66:	48 8b 85 88 ea ff ff 	mov    -0x1578(%rbp),%rax
   12c6d:	48 85 c0             	test   %rax,%rax
   12c70:	0f 95 c0             	setne  %al
   12c73:	0f b6 c0             	movzbl %al,%eax
   12c76:	be 0a 00 00 00       	mov    $0xa,%esi
   12c7b:	89 c7                	mov    %eax,%edi
   12c7d:	e8 3c 31 ff ff       	callq  5dbe <safe_lshift_func_uint16_t_u_s>
   12c82:	48 8b 85 30 fb ff ff 	mov    -0x4d0(%rbp),%rax
   12c89:	48 8b 15 98 93 00 00 	mov    0x9398(%rip),%rdx        # 1c028 <g_11>
   12c90:	48 81 f2 ff ff 00 00 	xor    $0xffff,%rdx
   12c97:	48 89 c6             	mov    %rax,%rsi
   12c9a:	48 89 d7             	mov    %rdx,%rdi
   12c9d:	e8 0d 34 ff ff       	callq  60af <safe_div_func_uint64_t_u_u>
   12ca2:	8b 85 6c e7 ff ff    	mov    -0x1894(%rbp),%eax
   12ca8:	0f b6 c0             	movzbl %al,%eax
   12cab:	44 89 e6             	mov    %r12d,%esi
   12cae:	89 c7                	mov    %eax,%edi
   12cb0:	e8 f9 2e ff ff       	callq  5bae <safe_mod_func_uint8_t_u_u>
   12cb5:	0f b6 c0             	movzbl %al,%eax
   12cb8:	89 de                	mov    %ebx,%esi
   12cba:	89 c7                	mov    %eax,%edi
   12cbc:	e8 d1 27 ff ff       	callq  5492 <safe_lshift_func_int16_t_s_s>
   12cc1:	0f bf d0             	movswl %ax,%edx
   12cc4:	8b 85 6c e7 ff ff    	mov    -0x1894(%rbp),%eax
   12cca:	39 c2                	cmp    %eax,%edx
   12ccc:	0f 94 c0             	sete   %al
   12ccf:	0f b6 c0             	movzbl %al,%eax
   12cd2:	41 39 c6             	cmp    %eax,%r14d
   12cd5:	74 12                	je     12ce9 <func_61+0x2565>
   12cd7:	0f b6 05 92 93 00 00 	movzbl 0x9392(%rip),%eax        # 1c070 <g_214>
   12cde:	84 c0                	test   %al,%al
   12ce0:	74 07                	je     12ce9 <func_61+0x2565>
   12ce2:	b8 01 00 00 00       	mov    $0x1,%eax
   12ce7:	eb 05                	jmp    12cee <func_61+0x256a>
   12ce9:	b8 00 00 00 00       	mov    $0x0,%eax
   12cee:	48 98                	cltq   
   12cf0:	49 39 c5             	cmp    %rax,%r13
   12cf3:	0f 9e c0             	setle  %al
   12cf6:	0f b6 d0             	movzbl %al,%edx
   12cf9:	8b 85 6c e7 ff ff    	mov    -0x1894(%rbp),%eax
   12cff:	09 d0                	or     %edx,%eax
   12d01:	89 05 bd 95 00 00    	mov    %eax,0x95bd(%rip)        # 1c2c4 <g_290+0x224>
   12d07:	48 8b 85 90 e8 ff ff 	mov    -0x1770(%rbp),%rax
   12d0e:	8b 00                	mov    (%rax),%eax
   12d10:	85 c0                	test   %eax,%eax
   12d12:	48 8b 05 87 bc 00 00 	mov    0xbc87(%rip),%rax        # 1e9a0 <g_52>
   12d19:	48 8b 05 88 bc 00 00 	mov    0xbc88(%rip),%rax        # 1e9a8 <g_76>
   12d20:	8b 00                	mov    (%rax),%eax
   12d22:	85 c0                	test   %eax,%eax
   12d24:	75 0b                	jne    12d31 <func_61+0x25ad>
   12d26:	48 8b 85 60 e7 ff ff 	mov    -0x18a0(%rbp),%rax
   12d2d:	8b 00                	mov    (%rax),%eax
   12d2f:	85 c0                	test   %eax,%eax
   12d31:	c7 85 b0 e7 ff ff 02 	movl   $0x2,-0x1850(%rbp)
   12d38:	00 00 00 
   12d3b:	83 bd b0 e7 ff ff 00 	cmpl   $0x0,-0x1850(%rbp)
   12d42:	78 24                	js     12d68 <func_61+0x25e4>
   12d44:	bf ce f4 ff ff       	mov    $0xfffff4ce,%edi
   12d49:	e8 4f 26 ff ff       	callq  539d <safe_unary_minus_func_int16_t_s>
   12d4e:	89 c2                	mov    %eax,%edx
   12d50:	48 8b 85 60 e7 ff ff 	mov    -0x18a0(%rbp),%rax
   12d57:	0f bf d2             	movswl %dx,%edx
   12d5a:	89 10                	mov    %edx,(%rax)
   12d5c:	48 8d 05 c5 92 00 00 	lea    0x92c5(%rip),%rax        # 1c028 <g_11>
   12d63:	e9 09 0a 00 00       	jmpq   13771 <func_61+0x2fed>
   12d68:	48 8d 05 b9 92 00 00 	lea    0x92b9(%rip),%rax        # 1c028 <g_11>
   12d6f:	e9 fd 09 00 00       	jmpq   13771 <func_61+0x2fed>
   12d74:	66 c7 05 07 93 00 00 	movw   $0xfff4,0x9307(%rip)        # 1c084 <g_258>
   12d7b:	f4 ff 
   12d7d:	e9 8c 05 00 00       	jmpq   1330e <func_61+0x2b8a>
   12d82:	c6 85 81 e7 ff ff b7 	movb   $0xb7,-0x187f(%rbp)
   12d89:	c7 85 d4 e7 ff ff fe 	movl   $0xfffffffe,-0x182c(%rbp)
   12d90:	ff ff ff 
   12d93:	48 8d 85 60 ea ff ff 	lea    -0x15a0(%rbp),%rax
   12d9a:	48 8d 15 df 58 00 00 	lea    0x58df(%rip),%rdx        # 18680 <g_1058+0x1133>
   12da1:	b9 3c 00 00 00       	mov    $0x3c,%ecx
   12da6:	48 89 c7             	mov    %rax,%rdi
   12da9:	48 89 d6             	mov    %rdx,%rsi
   12dac:	f3 48 a5             	rep movsq %ds:(%rsi),%es:(%rdi)
   12daf:	c6 05 8a 92 00 00 00 	movb   $0x0,0x928a(%rip)        # 1c040 <g_69>
   12db6:	e9 d2 00 00 00       	jmpq   12e8d <func_61+0x2709>
   12dbb:	48 c7 85 e8 e8 ff ff 	movq   $0x0,-0x1718(%rbp)
   12dc2:	00 00 00 00 
   12dc6:	48 8d 85 00 e8 ff ff 	lea    -0x1800(%rbp),%rax
   12dcd:	48 89 85 28 e8 ff ff 	mov    %rax,-0x17d8(%rbp)
   12dd4:	48 8d 85 28 e8 ff ff 	lea    -0x17d8(%rbp),%rax
   12ddb:	48 89 85 f0 e8 ff ff 	mov    %rax,-0x1710(%rbp)
   12de2:	48 8b 85 f0 e8 ff ff 	mov    -0x1710(%rbp),%rax
   12de9:	48 8d 15 d0 bb 00 00 	lea    0xbbd0(%rip),%rdx        # 1e9c0 <g_213>
   12df0:	48 89 10             	mov    %rdx,(%rax)
   12df3:	48 8b 85 f0 e8 ff ff 	mov    -0x1710(%rbp),%rax
   12dfa:	48 8b 00             	mov    (%rax),%rax
   12dfd:	48 39 85 e8 e8 ff ff 	cmp    %rax,-0x1718(%rbp)
   12e04:	0f 95 c0             	setne  %al
   12e07:	0f b6 d0             	movzbl %al,%edx
   12e0a:	48 8b 05 af bb 00 00 	mov    0xbbaf(%rip),%rax        # 1e9c0 <g_213>
   12e11:	0f b6 00             	movzbl (%rax),%eax
   12e14:	0f be c0             	movsbl %al,%eax
   12e17:	89 d6                	mov    %edx,%esi
   12e19:	89 c7                	mov    %eax,%edi
   12e1b:	e8 d2 23 ff ff       	callq  51f2 <safe_sub_func_int8_t_s_s>
   12e20:	48 0f be d0          	movsbq %al,%rdx
   12e24:	48 8b 05 9d bb 00 00 	mov    0xbb9d(%rip),%rax        # 1e9c8 <g_217>
   12e2b:	48 8b 00             	mov    (%rax),%rax
   12e2e:	48 39 c2             	cmp    %rax,%rdx
   12e31:	0f 96 c0             	setbe  %al
   12e34:	0f b6 c0             	movzbl %al,%eax
   12e37:	66 89 85 8a e7 ff ff 	mov    %ax,-0x1876(%rbp)
   12e3e:	c7 85 d0 e7 ff ff 00 	movl   $0x0,-0x1830(%rbp)
   12e45:	00 00 00 
   12e48:	83 bd d0 e7 ff ff 12 	cmpl   $0x12,-0x1830(%rbp)
   12e4f:	7f 20                	jg     12e71 <func_61+0x26ed>
   12e51:	48 8d 85 40 f8 ff ff 	lea    -0x7c0(%rbp),%rax
   12e58:	48 05 d8 04 00 00    	add    $0x4d8,%rax
   12e5e:	48 89 85 f8 e8 ff ff 	mov    %rax,-0x1708(%rbp)
   12e65:	48 8d 05 bc 91 00 00 	lea    0x91bc(%rip),%rax        # 1c028 <g_11>
   12e6c:	e9 00 09 00 00       	jmpq   13771 <func_61+0x2fed>
   12e71:	0f b6 05 c8 91 00 00 	movzbl 0x91c8(%rip),%eax        # 1c040 <g_69>
   12e78:	0f be c0             	movsbl %al,%eax
   12e7b:	be 08 00 00 00       	mov    $0x8,%esi
   12e80:	89 c7                	mov    %eax,%edi
   12e82:	e8 4d 23 ff ff       	callq  51d4 <safe_add_func_int8_t_s_s>
   12e87:	88 05 b3 91 00 00    	mov    %al,0x91b3(%rip)        # 1c040 <g_69>
   12e8d:	0f b6 05 ac 91 00 00 	movzbl 0x91ac(%rip),%eax        # 1c040 <g_69>
   12e94:	3c 0d                	cmp    $0xd,%al
   12e96:	0f 84 1f ff ff ff    	je     12dbb <func_61+0x2637>
   12e9c:	8b 05 22 94 00 00    	mov    0x9422(%rip),%eax        # 1c2c4 <g_290+0x224>
   12ea2:	0f b6 d8             	movzbl %al,%ebx
   12ea5:	80 bd 81 e7 ff ff 00 	cmpb   $0x0,-0x187f(%rbp)
   12eac:	0f 84 e5 00 00 00    	je     12f97 <func_61+0x2813>
   12eb2:	8b 85 6c e7 ff ff    	mov    -0x1894(%rbp),%eax
   12eb8:	4c 63 e0             	movslq %eax,%r12
   12ebb:	48 8b 05 06 bb 00 00 	mov    0xbb06(%rip),%rax        # 1e9c8 <g_217>
   12ec2:	4c 8b 28             	mov    (%rax),%r13
   12ec5:	8b 85 6c e7 ff ff    	mov    -0x1894(%rbp),%eax
   12ecb:	0f be d0             	movsbl %al,%edx
   12ece:	48 8b 05 d3 ba 00 00 	mov    0xbad3(%rip),%rax        # 1e9a8 <g_76>
   12ed5:	8b 00                	mov    (%rax),%eax
   12ed7:	83 f8 03             	cmp    $0x3,%eax
   12eda:	0f 94 c0             	sete   %al
   12edd:	0f b6 c8             	movzbl %al,%ecx
   12ee0:	8b 05 c6 d2 00 00    	mov    0xd2c6(%rip),%eax        # 201ac <g_319>
   12ee6:	39 c1                	cmp    %eax,%ecx
   12ee8:	0f 96 c0             	setbe  %al
   12eeb:	0f b6 c0             	movzbl %al,%eax
   12eee:	89 d6                	mov    %edx,%esi
   12ef0:	89 c7                	mov    %eax,%edi
   12ef2:	e8 73 23 ff ff       	callq  526a <safe_div_func_int8_t_s_s>
   12ef7:	0f be d0             	movsbl %al,%edx
   12efa:	8b 85 a8 e7 ff ff    	mov    -0x1858(%rbp),%eax
   12f00:	0f be c0             	movsbl %al,%eax
   12f03:	89 d6                	mov    %edx,%esi
   12f05:	89 c7                	mov    %eax,%edi
   12f07:	e8 29 24 ff ff       	callq  5335 <safe_rshift_func_int8_t_s_s>
   12f0c:	0f be d0             	movsbl %al,%edx
   12f0f:	48 8b 05 9a ba 00 00 	mov    0xba9a(%rip),%rax        # 1e9b0 <g_75>
   12f16:	48 8b 00             	mov    (%rax),%rax
   12f19:	8b 00                	mov    (%rax),%eax
   12f1b:	09 d0                	or     %edx,%eax
   12f1d:	89 c0                	mov    %eax,%eax
   12f1f:	49 39 c5             	cmp    %rax,%r13
   12f22:	0f 93 c0             	setae  %al
   12f25:	0f b6 c0             	movzbl %al,%eax
   12f28:	4c 89 e6             	mov    %r12,%rsi
   12f2b:	48 89 c7             	mov    %rax,%rdi
   12f2e:	e8 75 29 ff ff       	callq  58a8 <safe_sub_func_int64_t_s_s>
   12f33:	8b 85 b0 e7 ff ff    	mov    -0x1850(%rbp),%eax
   12f39:	0f be d0             	movsbl %al,%edx
   12f3c:	0f b6 85 3b ea ff ff 	movzbl -0x15c5(%rbp),%eax
   12f43:	0f be c0             	movsbl %al,%eax
   12f46:	89 d6                	mov    %edx,%esi
   12f48:	89 c7                	mov    %eax,%edi
   12f4a:	e8 c3 22 ff ff       	callq  5212 <safe_mul_func_int8_t_s_s>
   12f4f:	84 c0                	test   %al,%al
   12f51:	75 09                	jne    12f5c <func_61+0x27d8>
   12f53:	80 bd 81 e7 ff ff 00 	cmpb   $0x0,-0x187f(%rbp)
   12f5a:	74 07                	je     12f63 <func_61+0x27df>
   12f5c:	b8 01 00 00 00       	mov    $0x1,%eax
   12f61:	eb 05                	jmp    12f68 <func_61+0x27e4>
   12f63:	b8 00 00 00 00       	mov    $0x0,%eax
   12f68:	be 3b 1f f5 4d       	mov    $0x4df51f3b,%esi
   12f6d:	89 c7                	mov    %eax,%edi
   12f6f:	e8 b1 2f ff ff       	callq  5f25 <safe_div_func_uint32_t_u_u>
   12f74:	89 c2                	mov    %eax,%edx
   12f76:	48 8b 85 b0 e8 ff ff 	mov    -0x1750(%rbp),%rax
   12f7d:	48 89 10             	mov    %rdx,(%rax)
   12f80:	48 8b 85 b0 e8 ff ff 	mov    -0x1750(%rbp),%rax
   12f87:	48 8b 00             	mov    (%rax),%rax
   12f8a:	48 83 f8 fc          	cmp    $0xfffffffffffffffc,%rax
   12f8e:	75 07                	jne    12f97 <func_61+0x2813>
   12f90:	b8 01 00 00 00       	mov    $0x1,%eax
   12f95:	eb 05                	jmp    12f9c <func_61+0x2818>
   12f97:	b8 00 00 00 00       	mov    $0x0,%eax
   12f9c:	0f b6 c0             	movzbl %al,%eax
   12f9f:	89 de                	mov    %ebx,%esi
   12fa1:	89 c7                	mov    %eax,%edi
   12fa3:	e8 33 2c ff ff       	callq  5bdb <safe_div_func_uint8_t_u_u>
   12fa8:	0f b6 d0             	movzbl %al,%edx
   12fab:	48 8b 85 90 e8 ff ff 	mov    -0x1770(%rbp),%rax
   12fb2:	8b 00                	mov    (%rax),%eax
   12fb4:	39 c2                	cmp    %eax,%edx
   12fb6:	0f 9f c0             	setg   %al
   12fb9:	0f b6 c0             	movzbl %al,%eax
   12fbc:	66 89 05 25 94 00 00 	mov    %ax,0x9425(%rip)        # 1c3e8 <g_320>
   12fc3:	0f b7 05 1e 94 00 00 	movzwl 0x941e(%rip),%eax        # 1c3e8 <g_320>
   12fca:	66 85 c0             	test   %ax,%ax
   12fcd:	0f 84 18 03 00 00    	je     132eb <func_61+0x2b67>
   12fd3:	48 8b 05 f6 b9 00 00 	mov    0xb9f6(%rip),%rax        # 1e9d0 <g_274>
   12fda:	48 8b 00             	mov    (%rax),%rax
   12fdd:	48 85 c0             	test   %rax,%rax
   12fe0:	0f 84 05 03 00 00    	je     132eb <func_61+0x2b67>
   12fe6:	48 8d 85 40 f8 ff ff 	lea    -0x7c0(%rbp),%rax
   12fed:	48 05 f0 02 00 00    	add    $0x2f0,%rax
   12ff3:	48 89 85 c8 e8 ff ff 	mov    %rax,-0x1738(%rbp)
   12ffa:	c7 85 d8 e7 ff ff ff 	movl   $0xffffffff,-0x1828(%rbp)
   13001:	ff ff ff 
   13004:	c7 85 dc e7 ff ff 00 	movl   $0x0,-0x1824(%rbp)
   1300b:	00 00 00 
   1300e:	48 8d 85 10 e8 ff ff 	lea    -0x17f0(%rbp),%rax
   13015:	48 89 85 e0 e9 ff ff 	mov    %rax,-0x1620(%rbp)
   1301c:	48 8d 85 10 e8 ff ff 	lea    -0x17f0(%rbp),%rax
   13023:	48 89 85 e8 e9 ff ff 	mov    %rax,-0x1618(%rbp)
   1302a:	48 8d 85 10 e8 ff ff 	lea    -0x17f0(%rbp),%rax
   13031:	48 89 85 f0 e9 ff ff 	mov    %rax,-0x1610(%rbp)
   13038:	48 8d 85 10 e8 ff ff 	lea    -0x17f0(%rbp),%rax
   1303f:	48 89 85 f8 e9 ff ff 	mov    %rax,-0x1608(%rbp)
   13046:	48 8d 85 10 e8 ff ff 	lea    -0x17f0(%rbp),%rax
   1304d:	48 89 85 00 ea ff ff 	mov    %rax,-0x1600(%rbp)
   13054:	c6 05 fb 8f 00 00 00 	movb   $0x0,0x8ffb(%rip)        # 1c056 <g_101>
   1305b:	90                   	nop
   1305c:	0f b6 05 f3 8f 00 00 	movzbl 0x8ff3(%rip),%eax        # 1c056 <g_101>
   13063:	3c 02                	cmp    $0x2,%al
   13065:	75 0c                	jne    13073 <func_61+0x28ef>
   13067:	48 8b 85 40 e8 ff ff 	mov    -0x17c0(%rbp),%rax
   1306e:	e9 fe 06 00 00       	jmpq   13771 <func_61+0x2fed>
   13073:	66 c7 05 6c 93 00 00 	movw   $0x0,0x936c(%rip)        # 1c3e8 <g_320>
   1307a:	00 00 
   1307c:	eb 2f                	jmp    130ad <func_61+0x2929>
   1307e:	0f b6 05 65 93 00 00 	movzbl 0x9365(%rip),%eax        # 1c3ea <g_330>
   13085:	83 e8 01             	sub    $0x1,%eax
   13088:	88 05 5c 93 00 00    	mov    %al,0x935c(%rip)        # 1c3ea <g_330>
   1308e:	0f b7 05 53 93 00 00 	movzwl 0x9353(%rip),%eax        # 1c3e8 <g_320>
   13095:	48 0f bf c0          	movswq %ax,%rax
   13099:	be 04 00 00 00       	mov    $0x4,%esi
   1309e:	48 89 c7             	mov    %rax,%rdi
   130a1:	e8 88 2f ff ff       	callq  602e <safe_add_func_uint64_t_u_u>
   130a6:	66 89 05 3b 93 00 00 	mov    %ax,0x933b(%rip)        # 1c3e8 <g_320>
   130ad:	0f b7 05 34 93 00 00 	movzwl 0x9334(%rip),%eax        # 1c3e8 <g_320>
   130b4:	66 83 f8 11          	cmp    $0x11,%ax
   130b8:	7f c4                	jg     1307e <func_61+0x28fa>
   130ba:	66 c7 85 84 e7 ff ff 	movw   $0xfffe,-0x187c(%rbp)
   130c1:	fe ff 
   130c3:	e9 10 02 00 00       	jmpq   132d8 <func_61+0x2b54>
   130c8:	48 8d 05 61 8f 00 00 	lea    0x8f61(%rip),%rax        # 1c030 <g_14>
   130cf:	48 89 85 d0 e8 ff ff 	mov    %rax,-0x1730(%rbp)
   130d6:	c7 85 e0 e7 ff ff 00 	movl   $0x0,-0x1820(%rbp)
   130dd:	00 00 00 
   130e0:	48 8d 05 09 93 00 00 	lea    0x9309(%rip),%rax        # 1c3f0 <g_354>
   130e7:	48 89 85 d8 e8 ff ff 	mov    %rax,-0x1728(%rbp)
   130ee:	48 c7 85 e0 e8 ff ff 	movq   $0xfffffffffffffff7,-0x1720(%rbp)
   130f5:	f7 ff ff ff 
   130f9:	8b 85 6c e7 ff ff    	mov    -0x1894(%rbp),%eax
   130ff:	0f b6 d8             	movzbl %al,%ebx
   13102:	8b 05 40 8f 00 00    	mov    0x8f40(%rip),%eax        # 1c048 <g_83>
   13108:	01 c0                	add    %eax,%eax
   1310a:	c1 f8 0d             	sar    $0xd,%eax
   1310d:	41 89 c6             	mov    %eax,%r14d
   13110:	48 8b 05 91 b8 00 00 	mov    0xb891(%rip),%rax        # 1e9a8 <g_76>
   13117:	8b 00                	mov    (%rax),%eax
   13119:	85 c0                	test   %eax,%eax
   1311b:	0f 84 e8 00 00 00    	je     13209 <func_61+0x2a85>
   13121:	8b 05 f5 91 00 00    	mov    0x91f5(%rip),%eax        # 1c31c <g_290+0x27c>
   13127:	41 89 c5             	mov    %eax,%r13d
   1312a:	8b 85 e0 e7 ff ff    	mov    -0x1820(%rbp),%eax
   13130:	44 0f b7 e0          	movzwl %ax,%r12d
   13134:	8b 95 6c e7 ff ff    	mov    -0x1894(%rbp),%edx
   1313a:	48 8b 85 a0 e8 ff ff 	mov    -0x1760(%rbp),%rax
   13141:	8b 00                	mov    (%rax),%eax
   13143:	0f b6 c0             	movzbl %al,%eax
   13146:	89 d6                	mov    %edx,%esi
   13148:	89 c7                	mov    %eax,%edi
   1314a:	e8 b6 2a ff ff       	callq  5c05 <safe_lshift_func_uint8_t_u_s>
   1314f:	be 09 00 00 00       	mov    $0x9,%esi
   13154:	bf 00 00 00 00       	mov    $0x0,%edi
   13159:	e8 6e 25 ff ff       	callq  56cc <safe_mod_func_int32_t_s_s>
   1315e:	0f b7 c0             	movzwl %ax,%eax
   13161:	44 89 e6             	mov    %r12d,%esi
   13164:	89 c7                	mov    %eax,%edi
   13166:	e8 d2 2b ff ff       	callq  5d3d <safe_mul_func_uint16_t_u_u>
   1316b:	48 8b 95 60 e7 ff ff 	mov    -0x18a0(%rbp),%rdx
   13172:	8b 0a                	mov    (%rdx),%ecx
   13174:	0f b7 d0             	movzwl %ax,%edx
   13177:	48 8b 85 60 e7 ff ff 	mov    -0x18a0(%rbp),%rax
   1317e:	09 ca                	or     %ecx,%edx
   13180:	89 10                	mov    %edx,(%rax)
   13182:	8b 10                	mov    (%rax),%edx
   13184:	0f b7 05 bd 8e 00 00 	movzwl 0x8ebd(%rip),%eax        # 1c048 <g_83>
   1318b:	66 25 ff 0f          	and    $0xfff,%ax
   1318f:	0f b7 c0             	movzwl %ax,%eax
   13192:	39 c2                	cmp    %eax,%edx
   13194:	0f 9c c2             	setl   %dl
   13197:	48 8b 05 32 b8 00 00 	mov    0xb832(%rip),%rax        # 1e9d0 <g_274>
   1319e:	0f b6 d2             	movzbl %dl,%edx
   131a1:	48 89 10             	mov    %rdx,(%rax)
   131a4:	48 8b 10             	mov    (%rax),%rdx
   131a7:	48 8b 85 d8 e8 ff ff 	mov    -0x1728(%rbp),%rax
   131ae:	48 89 10             	mov    %rdx,(%rax)
   131b1:	48 8b 85 d8 e8 ff ff 	mov    -0x1728(%rbp),%rax
   131b8:	48 8b 00             	mov    (%rax),%rax
   131bb:	48 83 f8 01          	cmp    $0x1,%rax
   131bf:	0f 9e c0             	setle  %al
   131c2:	0f b6 c0             	movzbl %al,%eax
   131c5:	4c 89 ee             	mov    %r13,%rsi
   131c8:	48 89 c7             	mov    %rax,%rdi
   131cb:	e8 7b 2e ff ff       	callq  604b <safe_sub_func_uint64_t_u_u>
   131d0:	48 8b 05 d9 b7 00 00 	mov    0xb7d9(%rip),%rax        # 1e9b0 <g_75>
   131d7:	48 8b 00             	mov    (%rax),%rax
   131da:	8b 00                	mov    (%rax),%eax
   131dc:	25 32 8c 52 0c       	and    $0xc528c32,%eax
   131e1:	89 c2                	mov    %eax,%edx
   131e3:	48 8b 85 a8 e8 ff ff 	mov    -0x1758(%rbp),%rax
   131ea:	89 10                	mov    %edx,(%rax)
   131ec:	48 8b 85 a8 e8 ff ff 	mov    -0x1758(%rbp),%rax
   131f3:	8b 00                	mov    (%rax),%eax
   131f5:	85 c0                	test   %eax,%eax
   131f7:	75 09                	jne    13202 <func_61+0x2a7e>
   131f9:	83 bd a8 e7 ff ff 00 	cmpl   $0x0,-0x1858(%rbp)
   13200:	74 07                	je     13209 <func_61+0x2a85>
   13202:	b8 01 00 00 00       	mov    $0x1,%eax
   13207:	eb 05                	jmp    1320e <func_61+0x2a8a>
   13209:	b8 00 00 00 00       	mov    $0x0,%eax
   1320e:	0f b6 c0             	movzbl %al,%eax
   13211:	be 00 00 00 00       	mov    $0x0,%esi
   13216:	89 c7                	mov    %eax,%edi
   13218:	e8 a1 2a ff ff       	callq  5cbe <safe_rshift_func_uint8_t_u_u>
   1321d:	44 31 f0             	xor    %r14d,%eax
   13220:	0f b6 c0             	movzbl %al,%eax
   13223:	89 de                	mov    %ebx,%esi
   13225:	89 c7                	mov    %eax,%edi
   13227:	e8 4c 29 ff ff       	callq  5b78 <safe_sub_func_uint8_t_u_u>
   1322c:	0f b6 c0             	movzbl %al,%eax
   1322f:	89 85 e0 e7 ff ff    	mov    %eax,-0x1820(%rbp)
   13235:	83 bd e0 e7 ff ff 00 	cmpl   $0x0,-0x1820(%rbp)
   1323c:	75 0a                	jne    13248 <func_61+0x2ac4>
   1323e:	8b 85 6c e7 ff ff    	mov    -0x1894(%rbp),%eax
   13244:	85 c0                	test   %eax,%eax
   13246:	74 07                	je     1324f <func_61+0x2acb>
   13248:	b8 01 00 00 00       	mov    $0x1,%eax
   1324d:	eb 05                	jmp    13254 <func_61+0x2ad0>
   1324f:	b8 00 00 00 00       	mov    $0x0,%eax
   13254:	85 c0                	test   %eax,%eax
   13256:	0f 94 c0             	sete   %al
   13259:	0f b6 c0             	movzbl %al,%eax
   1325c:	be b5 00 00 00       	mov    $0xb5,%esi
   13261:	89 c7                	mov    %eax,%edi
   13263:	e8 2b 29 ff ff       	callq  5b93 <safe_mul_func_uint8_t_u_u>
   13268:	48 8b 85 60 e7 ff ff 	mov    -0x18a0(%rbp),%rax
   1326f:	8b 00                	mov    (%rax),%eax
   13271:	89 85 a8 e7 ff ff    	mov    %eax,-0x1858(%rbp)
   13277:	48 83 85 e0 e8 ff ff 	addq   $0x1,-0x1720(%rbp)
   1327e:	01 
   1327f:	48 8b 05 2a b7 00 00 	mov    0xb72a(%rip),%rax        # 1e9b0 <g_75>
   13286:	48 8b 00             	mov    (%rax),%rax
   13289:	8b 10                	mov    (%rax),%edx
   1328b:	48 8b 85 e8 e9 ff ff 	mov    -0x1618(%rbp),%rax
   13292:	48 85 c0             	test   %rax,%rax
   13295:	0f 94 c0             	sete   %al
   13298:	0f b6 c0             	movzbl %al,%eax
   1329b:	89 d6                	mov    %edx,%esi
   1329d:	89 c7                	mov    %eax,%edi
   1329f:	e8 59 2c ff ff       	callq  5efd <safe_mod_func_uint32_t_u_u>
   132a4:	85 c0                	test   %eax,%eax
   132a6:	74 06                	je     132ae <func_61+0x2b2a>
   132a8:	8b 05 fe ce 00 00    	mov    0xcefe(%rip),%eax        # 201ac <g_319>
   132ae:	48 8b 85 90 e8 ff ff 	mov    -0x1770(%rbp),%rax
   132b5:	c7 00 00 00 00 00    	movl   $0x0,(%rax)
   132bb:	0f b7 85 84 e7 ff ff 	movzwl -0x187c(%rbp),%eax
   132c2:	0f b7 c0             	movzwl %ax,%eax
   132c5:	be 08 00 00 00       	mov    $0x8,%esi
   132ca:	89 c7                	mov    %eax,%edi
   132cc:	e8 2e 2a ff ff       	callq  5cff <safe_add_func_uint16_t_u_u>
   132d1:	66 89 85 84 e7 ff ff 	mov    %ax,-0x187c(%rbp)
   132d8:	0f b7 85 84 e7 ff ff 	movzwl -0x187c(%rbp),%eax
   132df:	66 83 f8 06          	cmp    $0x6,%ax
   132e3:	0f 8e df fd ff ff    	jle    130c8 <func_61+0x2944>
   132e9:	eb 12                	jmp    132fd <func_61+0x2b79>
   132eb:	48 8b 85 70 e8 ff ff 	mov    -0x1790(%rbp),%rax
   132f2:	8b 10                	mov    (%rax),%edx
   132f4:	48 8b 85 70 e8 ff ff 	mov    -0x1790(%rbp),%rax
   132fb:	89 10                	mov    %edx,(%rax)
   132fd:	0f b7 05 80 8d 00 00 	movzwl 0x8d80(%rip),%eax        # 1c084 <g_258>
   13304:	83 c0 01             	add    $0x1,%eax
   13307:	66 89 05 76 8d 00 00 	mov    %ax,0x8d76(%rip)        # 1c084 <g_258>
   1330e:	0f b7 05 6f 8d 00 00 	movzwl 0x8d6f(%rip),%eax        # 1c084 <g_258>
   13315:	66 83 f8 04          	cmp    $0x4,%ax
   13319:	0f 85 63 fa ff ff    	jne    12d82 <func_61+0x25fe>
   1331f:	83 bd b4 e7 ff ff 00 	cmpl   $0x0,-0x184c(%rbp)
   13326:	8b 85 6c e7 ff ff    	mov    -0x1894(%rbp),%eax
   1332c:	83 c0 01             	add    $0x1,%eax
   1332f:	89 85 6c e7 ff ff    	mov    %eax,-0x1894(%rbp)
   13335:	8b 85 6c e7 ff ff    	mov    -0x1894(%rbp),%eax
   1333b:	83 f8 02             	cmp    $0x2,%eax
   1333e:	0f 8e 76 e1 ff ff    	jle    114ba <func_61+0xd36>
   13344:	c7 85 a4 e7 ff ff 11 	movl   $0x11,-0x185c(%rbp)
   1334b:	00 00 00 
   1334e:	e9 a7 02 00 00       	jmpq   135fa <func_61+0x2e76>
   13353:	c7 85 40 f3 ff ff 00 	movl   $0x0,-0xcc0(%rbp)
   1335a:	00 00 00 
   1335d:	c7 85 44 f3 ff ff 00 	movl   $0x0,-0xcbc(%rbp)
   13364:	00 00 00 
   13367:	48 8d 85 84 e7 ff ff 	lea    -0x187c(%rbp),%rax
   1336e:	48 89 85 c0 e8 ff ff 	mov    %rax,-0x1740(%rbp)
   13375:	c7 85 c4 e7 ff ff d3 	movl   $0x9605dd3,-0x183c(%rbp)
   1337c:	5d 60 09 
   1337f:	48 8d 95 40 f8 ff ff 	lea    -0x7c0(%rbp),%rdx
   13386:	b8 00 00 00 00       	mov    $0x0,%eax
   1338b:	b9 0a 00 00 00       	mov    $0xa,%ecx
   13390:	48 89 d7             	mov    %rdx,%rdi
   13393:	f3 48 ab             	rep stos %rax,%es:(%rdi)
   13396:	48 89 fa             	mov    %rdi,%rdx
   13399:	89 02                	mov    %eax,(%rdx)
   1339b:	48 83 c2 04          	add    $0x4,%rdx
   1339f:	8b 85 6c e7 ff ff    	mov    -0x1894(%rbp),%eax
   133a5:	0f b6 d8             	movzbl %al,%ebx
   133a8:	44 8b a5 b8 e7 ff ff 	mov    -0x1848(%rbp),%r12d
   133af:	8b 85 6c e7 ff ff    	mov    -0x1894(%rbp),%eax
   133b5:	4c 63 e8             	movslq %eax,%r13
   133b8:	8b 95 6c e7 ff ff    	mov    -0x1894(%rbp),%edx
   133be:	8b 85 40 f3 ff ff    	mov    -0xcc0(%rbp),%eax
   133c4:	0f b6 c0             	movzbl %al,%eax
   133c7:	89 d6                	mov    %edx,%esi
   133c9:	89 c7                	mov    %eax,%edi
   133cb:	e8 bd 28 ff ff       	callq  5c8d <safe_rshift_func_uint8_t_u_s>
   133d0:	8b 95 6c e7 ff ff    	mov    -0x1894(%rbp),%edx
   133d6:	48 8b 85 08 e8 ff ff 	mov    -0x17f8(%rbp),%rax
   133dd:	66 89 10             	mov    %dx,(%rax)
   133e0:	c7 85 c4 e7 ff ff ee 	movl   $0x69ee,-0x183c(%rbp)
   133e7:	69 00 00 
   133ea:	48 8b 05 af b5 00 00 	mov    0xb5af(%rip),%rax        # 1e9a0 <g_52>
   133f1:	8b 10                	mov    (%rax),%edx
   133f3:	48 8b 05 ae b5 00 00 	mov    0xb5ae(%rip),%rax        # 1e9a8 <g_76>
   133fa:	8b 08                	mov    (%rax),%ecx
   133fc:	83 c1 01             	add    $0x1,%ecx
   133ff:	89 08                	mov    %ecx,(%rax)
   13401:	48 8d 05 e0 8f 00 00 	lea    0x8fe0(%rip),%rax        # 1c3e8 <g_320>
   13408:	48 39 85 c0 e8 ff ff 	cmp    %rax,-0x1740(%rbp)
   1340f:	0f 95 c0             	setne  %al
   13412:	0f b6 c0             	movzbl %al,%eax
   13415:	89 d6                	mov    %edx,%esi
   13417:	89 c7                	mov    %eax,%edi
   13419:	e8 98 21 ff ff       	callq  55b6 <safe_add_func_int32_t_s_s>
   1341e:	89 c2                	mov    %eax,%edx
   13420:	48 8b 85 08 e8 ff ff 	mov    -0x17f8(%rbp),%rax
   13427:	66 89 10             	mov    %dx,(%rax)
   1342a:	0f b7 00             	movzwl (%rax),%eax
   1342d:	98                   	cwtl   
   1342e:	be ee 69 00 00       	mov    $0x69ee,%esi
   13433:	89 c7                	mov    %eax,%edi
   13435:	e8 bb 1f ff ff       	callq  53f5 <safe_mul_func_int16_t_s_s>
   1343a:	66 85 c0             	test   %ax,%ax
   1343d:	74 2b                	je     1346a <func_61+0x2ce6>
   1343f:	8b 85 40 f3 ff ff    	mov    -0xcc0(%rbp),%eax
   13445:	89 85 b0 e7 ff ff    	mov    %eax,-0x1850(%rbp)
   1344b:	48 8b 05 f6 8b 00 00 	mov    0x8bf6(%rip),%rax        # 1c048 <g_83>
   13452:	48 c1 e0 17          	shl    $0x17,%rax
   13456:	48 c1 f8 36          	sar    $0x36,%rax
   1345a:	98                   	cwtl   
   1345b:	39 85 b0 e7 ff ff    	cmp    %eax,-0x1850(%rbp)
   13461:	7e 07                	jle    1346a <func_61+0x2ce6>
   13463:	ba 01 00 00 00       	mov    $0x1,%edx
   13468:	eb 05                	jmp    1346f <func_61+0x2ceb>
   1346a:	ba 00 00 00 00       	mov    $0x0,%edx
   1346f:	48 8b 05 82 8f 00 00 	mov    0x8f82(%rip),%rax        # 1c3f8 <g_380>
   13476:	48 c1 e0 17          	shl    $0x17,%rax
   1347a:	48 c1 f8 36          	sar    $0x36,%rax
   1347e:	98                   	cwtl   
   1347f:	09 d0                	or     %edx,%eax
   13481:	48 98                	cltq   
   13483:	4c 89 ee             	mov    %r13,%rsi
   13486:	48 89 c7             	mov    %rax,%rdi
   13489:	e8 b3 23 ff ff       	callq  5841 <safe_add_func_int64_t_s_s>
   1348e:	48 8b 95 90 e8 ff ff 	mov    -0x1770(%rbp),%rdx
   13495:	8b 12                	mov    (%rdx),%edx
   13497:	48 63 d2             	movslq %edx,%rdx
   1349a:	48 39 d0             	cmp    %rdx,%rax
   1349d:	0f 95 c0             	setne  %al
   134a0:	0f b6 c0             	movzbl %al,%eax
   134a3:	44 89 e6             	mov    %r12d,%esi
   134a6:	89 c7                	mov    %eax,%edi
   134a8:	e8 11 28 ff ff       	callq  5cbe <safe_rshift_func_uint8_t_u_u>
   134ad:	0f b6 c0             	movzbl %al,%eax
   134b0:	89 de                	mov    %ebx,%esi
   134b2:	89 c7                	mov    %eax,%edi
   134b4:	e8 bf 26 ff ff       	callq  5b78 <safe_sub_func_uint8_t_u_u>
   134b9:	0f b6 d0             	movzbl %al,%edx
   134bc:	0f b6 05 ad 8b 00 00 	movzbl 0x8bad(%rip),%eax        # 1c070 <g_214>
   134c3:	0f be c0             	movsbl %al,%eax
   134c6:	39 c2                	cmp    %eax,%edx
   134c8:	0f 9f c0             	setg   %al
   134cb:	0f b6 d0             	movzbl %al,%edx
   134ce:	8b 85 4c f8 ff ff    	mov    -0x7b4(%rbp),%eax
   134d4:	09 d0                	or     %edx,%eax
   134d6:	89 85 4c f8 ff ff    	mov    %eax,-0x7b4(%rbp)
   134dc:	8b 85 b4 e7 ff ff    	mov    -0x184c(%rbp),%eax
   134e2:	0f bf d8             	movswl %ax,%ebx
   134e5:	8b 85 84 f8 ff ff    	mov    -0x77c(%rbp),%eax
   134eb:	44 0f be e0          	movsbl %al,%r12d
   134ef:	48 8b 85 88 e8 ff ff 	mov    -0x1778(%rbp),%rax
   134f6:	8b 00                	mov    (%rax),%eax
   134f8:	0f be c0             	movsbl %al,%eax
   134fb:	be 07 00 00 00       	mov    $0x7,%esi
   13500:	89 c7                	mov    %eax,%edi
   13502:	e8 e7 1d ff ff       	callq  52ee <safe_lshift_func_int8_t_s_u>
   13507:	8b 85 b0 e7 ff ff    	mov    -0x1850(%rbp),%eax
   1350d:	f7 d0                	not    %eax
   1350f:	c1 e8 1f             	shr    $0x1f,%eax
   13512:	41 89 c7             	mov    %eax,%r15d
   13515:	8b 85 6c e7 ff ff    	mov    -0x1894(%rbp),%eax
   1351b:	4c 63 e8             	movslq %eax,%r13
   1351e:	8b 85 6c e7 ff ff    	mov    -0x1894(%rbp),%eax
   13524:	44 0f b7 f0          	movzwl %ax,%r14d
   13528:	48 8b 05 b1 b4 00 00 	mov    0xb4b1(%rip),%rax        # 1e9e0 <g_401>
   1352f:	48 89 85 b8 e8 ff ff 	mov    %rax,-0x1748(%rbp)
   13536:	48 83 bd b8 e8 ff ff 	cmpq   $0x0,-0x1748(%rbp)
   1353d:	00 
   1353e:	0f 94 c0             	sete   %al
   13541:	0f b6 c0             	movzbl %al,%eax
   13544:	be 0f 00 00 00       	mov    $0xf,%esi
   13549:	89 c7                	mov    %eax,%edi
   1354b:	e8 e1 1c ff ff       	callq  5231 <safe_mod_func_int8_t_s_s>
   13550:	44 89 f6             	mov    %r14d,%esi
   13553:	bf 01 00 00 00       	mov    $0x1,%edi
   13558:	e8 e0 27 ff ff       	callq  5d3d <safe_mul_func_uint16_t_u_u>
   1355d:	66 85 c0             	test   %ax,%ax
   13560:	48 8b 05 69 b4 00 00 	mov    0xb469(%rip),%rax        # 1e9d0 <g_274>
   13567:	48 8b 00             	mov    (%rax),%rax
   1356a:	48 be f8 a3 bb 37 8e 	movabs $0x9ffac68e37bba3f8,%rsi
   13571:	c6 fa 9f 
   13574:	48 89 c7             	mov    %rax,%rdi
   13577:	e8 2c 23 ff ff       	callq  58a8 <safe_sub_func_int64_t_s_s>
   1357c:	4c 89 ee             	mov    %r13,%rsi
   1357f:	48 89 c7             	mov    %rax,%rdi
   13582:	e8 ba 22 ff ff       	callq  5841 <safe_add_func_int64_t_s_s>
   13587:	44 09 f8             	or     %r15d,%eax
   1358a:	0f be c0             	movsbl %al,%eax
   1358d:	44 89 e6             	mov    %r12d,%esi
   13590:	89 c7                	mov    %eax,%edi
   13592:	e8 7b 1c ff ff       	callq  5212 <safe_mul_func_int8_t_s_s>
   13597:	0f b6 c0             	movzbl %al,%eax
   1359a:	be 07 00 00 00       	mov    $0x7,%esi
   1359f:	89 c7                	mov    %eax,%edi
   135a1:	e8 a6 26 ff ff       	callq  5c4c <safe_lshift_func_uint8_t_u_u>
   135a6:	0f be d0             	movsbl %al,%edx
   135a9:	48 8b 05 10 b4 00 00 	mov    0xb410(%rip),%rax        # 1e9c0 <g_213>
   135b0:	0f b6 00             	movzbl (%rax),%eax
   135b3:	0f be c0             	movsbl %al,%eax
   135b6:	89 d6                	mov    %edx,%esi
   135b8:	89 c7                	mov    %eax,%edi
   135ba:	e8 53 1c ff ff       	callq  5212 <safe_mul_func_int8_t_s_s>
   135bf:	0f be c0             	movsbl %al,%eax
   135c2:	89 de                	mov    %ebx,%esi
   135c4:	89 c7                	mov    %eax,%edi
   135c6:	e8 2a 1e ff ff       	callq  53f5 <safe_mul_func_int16_t_s_s>
   135cb:	8b 85 40 f3 ff ff    	mov    -0xcc0(%rbp),%eax
   135d1:	89 c2                	mov    %eax,%edx
   135d3:	48 8b 85 a8 e8 ff ff 	mov    -0x1758(%rbp),%rax
   135da:	89 10                	mov    %edx,(%rax)
   135dc:	8b 85 a4 e7 ff ff    	mov    -0x185c(%rbp),%eax
   135e2:	0f b6 c0             	movzbl %al,%eax
   135e5:	be 01 00 00 00       	mov    $0x1,%esi
   135ea:	89 c7                	mov    %eax,%edi
   135ec:	e8 87 25 ff ff       	callq  5b78 <safe_sub_func_uint8_t_u_u>
   135f1:	0f b6 c0             	movzbl %al,%eax
   135f4:	89 85 a4 e7 ff ff    	mov    %eax,-0x185c(%rbp)
   135fa:	83 bd a4 e7 ff ff 03 	cmpl   $0x3,-0x185c(%rbp)
   13601:	0f 87 4c fd ff ff    	ja     13353 <func_61+0x2bcf>
   13607:	8b 05 2f 8a 00 00    	mov    0x8a2f(%rip),%eax        # 1c03c <g_58>
   1360d:	83 e8 01             	sub    $0x1,%eax
   13610:	89 05 26 8a 00 00    	mov    %eax,0x8a26(%rip)        # 1c03c <g_58>
   13616:	8b 05 20 8a 00 00    	mov    0x8a20(%rip),%eax        # 1c03c <g_58>
   1361c:	83 f8 f6             	cmp    $0xfffffff6,%eax
   1361f:	0f 8c 3b d5 ff ff    	jl     10b60 <func_61+0x3dc>
   13625:	8b 85 6c e7 ff ff    	mov    -0x1894(%rbp),%eax
   1362b:	41 89 c4             	mov    %eax,%r12d
   1362e:	48 8b 05 7b b3 00 00 	mov    0xb37b(%rip),%rax        # 1e9b0 <g_75>
   13635:	48 8b 00             	mov    (%rax),%rax
   13638:	48 85 c0             	test   %rax,%rax
   1363b:	0f 94 c0             	sete   %al
   1363e:	0f b6 d8             	movzbl %al,%ebx
   13641:	8b 85 6c e7 ff ff    	mov    -0x1894(%rbp),%eax
   13647:	0f b6 c0             	movzbl %al,%eax
   1364a:	be 02 00 00 00       	mov    $0x2,%esi
   1364f:	89 c7                	mov    %eax,%edi
   13651:	e8 f6 25 ff ff       	callq  5c4c <safe_lshift_func_uint8_t_u_u>
   13656:	be 01 00 00 00       	mov    $0x1,%esi
   1365b:	bf 01 00 00 00       	mov    $0x1,%edi
   13660:	e8 2e 25 ff ff       	callq  5b93 <safe_mul_func_uint8_t_u_u>
   13665:	8b 85 6c e7 ff ff    	mov    -0x1894(%rbp),%eax
   1366b:	0f be d0             	movsbl %al,%edx
   1366e:	48 8b 05 6b b3 00 00 	mov    0xb36b(%rip),%rax        # 1e9e0 <g_401>
   13675:	48 8b 00             	mov    (%rax),%rax
   13678:	0f b6 00             	movzbl (%rax),%eax
   1367b:	0f be c0             	movsbl %al,%eax
   1367e:	89 d6                	mov    %edx,%esi
   13680:	89 c7                	mov    %eax,%edi
   13682:	e8 aa 1b ff ff       	callq  5231 <safe_mod_func_int8_t_s_s>
   13687:	48 0f be c0          	movsbq %al,%rax
   1368b:	48 31 c3             	xor    %rax,%rbx
   1368e:	48 89 da             	mov    %rbx,%rdx
   13691:	48 8b 85 50 e8 ff ff 	mov    -0x17b0(%rbp),%rax
   13698:	0f b7 00             	movzwl (%rax),%eax
   1369b:	89 c1                	mov    %eax,%ecx
   1369d:	89 d0                	mov    %edx,%eax
   1369f:	09 c8                	or     %ecx,%eax
   136a1:	89 c2                	mov    %eax,%edx
   136a3:	48 8b 85 50 e8 ff ff 	mov    -0x17b0(%rbp),%rax
   136aa:	66 89 10             	mov    %dx,(%rax)
   136ad:	48 8b 85 50 e8 ff ff 	mov    -0x17b0(%rbp),%rax
   136b4:	0f b7 10             	movzwl (%rax),%edx
   136b7:	48 8b 85 58 e8 ff ff 	mov    -0x17a8(%rbp),%rax
   136be:	66 89 10             	mov    %dx,(%rax)
   136c1:	48 8b 85 58 e8 ff ff 	mov    -0x17a8(%rbp),%rax
   136c8:	0f b7 00             	movzwl (%rax),%eax
   136cb:	0f b7 c0             	movzwl %ax,%eax
   136ce:	be eb 74 00 00       	mov    $0x74eb,%esi
   136d3:	89 c7                	mov    %eax,%edi
   136d5:	e8 25 26 ff ff       	callq  5cff <safe_add_func_uint16_t_u_u>
   136da:	0f b7 d0             	movzwl %ax,%edx
   136dd:	48 8b 0d cc ca 00 00 	mov    0xcacc(%rip),%rcx        # 201b0 <g_410>
   136e4:	48 8b 85 48 e8 ff ff 	mov    -0x17b8(%rbp),%rax
   136eb:	48 89 08             	mov    %rcx,(%rax)
   136ee:	48 8b 85 48 e8 ff ff 	mov    -0x17b8(%rbp),%rax
   136f5:	48 8b 00             	mov    (%rax),%rax
   136f8:	48 85 c0             	test   %rax,%rax
   136fb:	0f 94 c0             	sete   %al
   136fe:	0f b6 c0             	movzbl %al,%eax
   13701:	89 d6                	mov    %edx,%esi
   13703:	89 c7                	mov    %eax,%edi
   13705:	e8 52 26 ff ff       	callq  5d5c <safe_mod_func_uint16_t_u_u>
   1370a:	0f b6 05 d9 8c 00 00 	movzbl 0x8cd9(%rip),%eax        # 1c3ea <g_330>
   13711:	0f b6 c0             	movzbl %al,%eax
   13714:	44 89 e6             	mov    %r12d,%esi
   13717:	89 c7                	mov    %eax,%edi
   13719:	e8 5c 27 ff ff       	callq  5e7a <safe_rshift_func_uint16_t_u_u>
   1371e:	48 8b 95 08 e8 ff ff 	mov    -0x17f8(%rbp),%rdx
   13725:	48 8b 85 60 e8 ff ff 	mov    -0x17a0(%rbp),%rax
   1372c:	48 89 10             	mov    %rdx,(%rax)
   1372f:	48 8b 85 60 e8 ff ff 	mov    -0x17a0(%rbp),%rax
   13736:	48 8b 00             	mov    (%rax),%rax
   13739:	48 8d 15 a8 8c 00 00 	lea    0x8ca8(%rip),%rdx        # 1c3e8 <g_320>
   13740:	48 39 d0             	cmp    %rdx,%rax
   13743:	0f 95 c0             	setne  %al
   13746:	0f b6 c0             	movzbl %al,%eax
   13749:	be 04 00 00 00       	mov    $0x4,%esi
   1374e:	89 c7                	mov    %eax,%edi
   13750:	e8 f7 24 ff ff       	callq  5c4c <safe_lshift_func_uint8_t_u_u>
   13755:	0f b6 c0             	movzbl %al,%eax
   13758:	48 8b 95 c0 e9 ff ff 	mov    -0x1640(%rbp),%rdx
   1375f:	21 c2                	and    %eax,%edx
   13761:	48 8b 05 38 b2 00 00 	mov    0xb238(%rip),%rax        # 1e9a0 <g_52>
   13768:	89 10                	mov    %edx,(%rax)
   1376a:	48 8d 05 b7 88 00 00 	lea    0x88b7(%rip),%rax        # 1c028 <g_11>
   13771:	48 8b 5d c8          	mov    -0x38(%rbp),%rbx
   13775:	64 48 33 1c 25 28 00 	xor    %fs:0x28,%rbx
   1377c:	00 00 
   1377e:	74 05                	je     13785 <func_61+0x3001>
   13780:	e8 eb 18 ff ff       	callq  5070 <__stack_chk_fail@plt>
   13785:	48 81 c4 88 18 00 00 	add    $0x1888,%rsp
   1378c:	5b                   	pop    %rbx
   1378d:	41 5c                	pop    %r12
   1378f:	41 5d                	pop    %r13
   13791:	41 5e                	pop    %r14
   13793:	41 5f                	pop    %r15
   13795:	5d                   	pop    %rbp
   13796:	c3                   	retq   

0000000000013797 <main>:
   13797:	f3 0f 1e fa          	endbr64 
   1379b:	55                   	push   %rbp
   1379c:	48 89 e5             	mov    %rsp,%rbp
   1379f:	48 83 ec 20          	sub    $0x20,%rsp
   137a3:	89 7d ec             	mov    %edi,-0x14(%rbp)
   137a6:	48 89 75 e0          	mov    %rsi,-0x20(%rbp)
   137aa:	c7 45 fc 00 00 00 00 	movl   $0x0,-0x4(%rbp)
   137b1:	83 7d ec 02          	cmpl   $0x2,-0x14(%rbp)
   137b5:	75 25                	jne    137dc <main+0x45>
   137b7:	48 8b 45 e0          	mov    -0x20(%rbp),%rax
   137bb:	48 83 c0 08          	add    $0x8,%rax
   137bf:	48 8b 00             	mov    (%rax),%rax
   137c2:	48 8d 35 97 50 00 00 	lea    0x5097(%rip),%rsi        # 18860 <g_1058+0x1313>
   137c9:	48 89 c7             	mov    %rax,%rdi
   137cc:	e8 bf 18 ff ff       	callq  5090 <strcmp@plt>
   137d1:	85 c0                	test   %eax,%eax
   137d3:	75 07                	jne    137dc <main+0x45>
   137d5:	c7 45 fc 01 00 00 00 	movl   $0x1,-0x4(%rbp)
   137dc:	e8 a8 19 ff ff       	callq  5189 <platform_main_begin>
   137e1:	e8 b2 2d ff ff       	callq  6598 <crc32_gentab>
   137e6:	e8 ca 2f ff ff       	callq  67b5 <func_1>
   137eb:	48 8b 05 36 88 00 00 	mov    0x8836(%rip),%rax        # 1c028 <g_11>
   137f2:	8b 55 fc             	mov    -0x4(%rbp),%edx
   137f5:	48 8d 35 66 50 00 00 	lea    0x5066(%rip),%rsi        # 18862 <g_1058+0x1315>
   137fc:	48 89 c7             	mov    %rax,%rdi
   137ff:	e8 ef 2e ff ff       	callq  66f3 <transparent_crc>
   13804:	c7 45 f0 00 00 00 00 	movl   $0x0,-0x10(%rbp)
   1380b:	eb 46                	jmp    13853 <main+0xbc>
   1380d:	8b 45 f0             	mov    -0x10(%rbp),%eax
   13810:	48 98                	cltq   
   13812:	48 8d 15 17 88 00 00 	lea    0x8817(%rip),%rdx        # 1c030 <g_14>
   13819:	0f b6 04 10          	movzbl (%rax,%rdx,1),%eax
   1381d:	48 0f be c0          	movsbq %al,%rax
   13821:	8b 55 fc             	mov    -0x4(%rbp),%edx
   13824:	48 8d 35 3c 50 00 00 	lea    0x503c(%rip),%rsi        # 18867 <g_1058+0x131a>
   1382b:	48 89 c7             	mov    %rax,%rdi
   1382e:	e8 c0 2e ff ff       	callq  66f3 <transparent_crc>
   13833:	83 7d fc 00          	cmpl   $0x0,-0x4(%rbp)
   13837:	74 16                	je     1384f <main+0xb8>
   13839:	8b 45 f0             	mov    -0x10(%rbp),%eax
   1383c:	89 c6                	mov    %eax,%esi
   1383e:	48 8d 3d 2a 50 00 00 	lea    0x502a(%rip),%rdi        # 1886f <g_1058+0x1322>
   13845:	b8 00 00 00 00       	mov    $0x0,%eax
   1384a:	e8 31 18 ff ff       	callq  5080 <printf@plt>
   1384f:	83 45 f0 01          	addl   $0x1,-0x10(%rbp)
   13853:	83 7d f0 01          	cmpl   $0x1,-0x10(%rbp)
   13857:	7e b4                	jle    1380d <main+0x76>
   13859:	0f b6 05 d2 87 00 00 	movzbl 0x87d2(%rip),%eax        # 1c032 <g_16>
   13860:	0f b6 c0             	movzbl %al,%eax
   13863:	8b 55 fc             	mov    -0x4(%rbp),%edx
   13866:	48 8d 35 10 50 00 00 	lea    0x5010(%rip),%rsi        # 1887d <g_1058+0x1330>
   1386d:	48 89 c7             	mov    %rax,%rdi
   13870:	e8 7e 2e ff ff       	callq  66f3 <transparent_crc>
   13875:	8b 05 b9 87 00 00    	mov    0x87b9(%rip),%eax        # 1c034 <g_21>
   1387b:	48 98                	cltq   
   1387d:	8b 55 fc             	mov    -0x4(%rbp),%edx
   13880:	48 8d 35 fb 4f 00 00 	lea    0x4ffb(%rip),%rsi        # 18882 <g_1058+0x1335>
   13887:	48 89 c7             	mov    %rax,%rdi
   1388a:	e8 64 2e ff ff       	callq  66f3 <transparent_crc>
   1388f:	c7 45 f0 00 00 00 00 	movl   $0x0,-0x10(%rbp)
   13896:	eb 70                	jmp    13908 <main+0x171>
   13898:	c7 45 f4 00 00 00 00 	movl   $0x0,-0xc(%rbp)
   1389f:	eb 5d                	jmp    138fe <main+0x167>
   138a1:	8b 45 f4             	mov    -0xc(%rbp),%eax
   138a4:	48 98                	cltq   
   138a6:	8b 55 f0             	mov    -0x10(%rbp),%edx
   138a9:	48 63 d2             	movslq %edx,%rdx
   138ac:	48 c1 e2 02          	shl    $0x2,%rdx
   138b0:	48 01 d0             	add    %rdx,%rax
   138b3:	48 8d 14 85 00 00 00 	lea    0x0(,%rax,4),%rdx
   138ba:	00 
   138bb:	48 8d 05 be c8 00 00 	lea    0xc8be(%rip),%rax        # 20180 <g_44>
   138c2:	8b 04 02             	mov    (%rdx,%rax,1),%eax
   138c5:	89 c1                	mov    %eax,%ecx
   138c7:	8b 45 fc             	mov    -0x4(%rbp),%eax
   138ca:	89 c2                	mov    %eax,%edx
   138cc:	48 8d 35 b4 4f 00 00 	lea    0x4fb4(%rip),%rsi        # 18887 <g_1058+0x133a>
   138d3:	48 89 cf             	mov    %rcx,%rdi
   138d6:	e8 18 2e ff ff       	callq  66f3 <transparent_crc>
   138db:	83 7d fc 00          	cmpl   $0x0,-0x4(%rbp)
   138df:	74 19                	je     138fa <main+0x163>
   138e1:	8b 55 f4             	mov    -0xc(%rbp),%edx
   138e4:	8b 45 f0             	mov    -0x10(%rbp),%eax
   138e7:	89 c6                	mov    %eax,%esi
   138e9:	48 8d 3d a2 4f 00 00 	lea    0x4fa2(%rip),%rdi        # 18892 <g_1058+0x1345>
   138f0:	b8 00 00 00 00       	mov    $0x0,%eax
   138f5:	e8 86 17 ff ff       	callq  5080 <printf@plt>
   138fa:	83 45 f4 01          	addl   $0x1,-0xc(%rbp)
   138fe:	83 7d f4 03          	cmpl   $0x3,-0xc(%rbp)
   13902:	7e 9d                	jle    138a1 <main+0x10a>
   13904:	83 45 f0 01          	addl   $0x1,-0x10(%rbp)
   13908:	83 7d f0 01          	cmpl   $0x1,-0x10(%rbp)
   1390c:	7e 8a                	jle    13898 <main+0x101>
   1390e:	8b 05 24 87 00 00    	mov    0x8724(%rip),%eax        # 1c038 <g_53>
   13914:	48 98                	cltq   
   13916:	8b 55 fc             	mov    -0x4(%rbp),%edx
   13919:	48 8d 35 84 4f 00 00 	lea    0x4f84(%rip),%rsi        # 188a4 <g_1058+0x1357>
   13920:	48 89 c7             	mov    %rax,%rdi
   13923:	e8 cb 2d ff ff       	callq  66f3 <transparent_crc>
   13928:	8b 05 0e 87 00 00    	mov    0x870e(%rip),%eax        # 1c03c <g_58>
   1392e:	48 98                	cltq   
   13930:	8b 55 fc             	mov    -0x4(%rbp),%edx
   13933:	48 8d 35 6f 4f 00 00 	lea    0x4f6f(%rip),%rsi        # 188a9 <g_1058+0x135c>
   1393a:	48 89 c7             	mov    %rax,%rdi
   1393d:	e8 b1 2d ff ff       	callq  66f3 <transparent_crc>
   13942:	0f b6 05 f7 86 00 00 	movzbl 0x86f7(%rip),%eax        # 1c040 <g_69>
   13949:	0f b6 c0             	movzbl %al,%eax
   1394c:	8b 55 fc             	mov    -0x4(%rbp),%edx
   1394f:	48 8d 35 58 4f 00 00 	lea    0x4f58(%rip),%rsi        # 188ae <g_1058+0x1361>
   13956:	48 89 c7             	mov    %rax,%rdi
   13959:	e8 95 2d ff ff       	callq  66f3 <transparent_crc>
   1395e:	0f b7 05 e3 86 00 00 	movzwl 0x86e3(%rip),%eax        # 1c048 <g_83>
   13965:	66 25 ff 0f          	and    $0xfff,%ax
   13969:	0f b7 c0             	movzwl %ax,%eax
   1396c:	8b 55 fc             	mov    -0x4(%rbp),%edx
   1396f:	48 8d 35 3d 4f 00 00 	lea    0x4f3d(%rip),%rsi        # 188b3 <g_1058+0x1366>
   13976:	48 89 c7             	mov    %rax,%rdi
   13979:	e8 75 2d ff ff       	callq  66f3 <transparent_crc>
   1397e:	8b 05 c4 86 00 00    	mov    0x86c4(%rip),%eax        # 1c048 <g_83>
   13984:	01 c0                	add    %eax,%eax
   13986:	c1 f8 0d             	sar    $0xd,%eax
   13989:	48 98                	cltq   
   1398b:	8b 55 fc             	mov    -0x4(%rbp),%edx
   1398e:	48 8d 35 26 4f 00 00 	lea    0x4f26(%rip),%rsi        # 188bb <g_1058+0x136e>
   13995:	48 89 c7             	mov    %rax,%rdi
   13998:	e8 56 2d ff ff       	callq  66f3 <transparent_crc>
   1399d:	48 8b 05 a4 86 00 00 	mov    0x86a4(%rip),%rax        # 1c048 <g_83>
   139a4:	48 c1 e0 17          	shl    $0x17,%rax
   139a8:	48 c1 f8 36          	sar    $0x36,%rax
   139ac:	48 0f bf c0          	movswq %ax,%rax
   139b0:	8b 55 fc             	mov    -0x4(%rbp),%edx
   139b3:	48 8d 35 09 4f 00 00 	lea    0x4f09(%rip),%rsi        # 188c3 <g_1058+0x1376>
   139ba:	48 89 c7             	mov    %rax,%rdi
   139bd:	e8 31 2d ff ff       	callq  66f3 <transparent_crc>
   139c2:	48 8b 05 7f 86 00 00 	mov    0x867f(%rip),%rax        # 1c048 <g_83>
   139c9:	48 c1 e0 0a          	shl    $0xa,%rax
   139cd:	48 c1 f8 33          	sar    $0x33,%rax
   139d1:	48 0f bf c0          	movswq %ax,%rax
   139d5:	8b 55 fc             	mov    -0x4(%rbp),%edx
   139d8:	48 8d 35 ec 4e 00 00 	lea    0x4eec(%rip),%rsi        # 188cb <g_1058+0x137e>
   139df:	48 89 c7             	mov    %rax,%rdi
   139e2:	e8 0c 2d ff ff       	callq  66f3 <transparent_crc>
   139e7:	48 8b 05 5a 86 00 00 	mov    0x865a(%rip),%rax        # 1c048 <g_83>
   139ee:	48 c1 f8 36          	sar    $0x36,%rax
   139f2:	48 0f bf c0          	movswq %ax,%rax
   139f6:	8b 55 fc             	mov    -0x4(%rbp),%edx
   139f9:	48 8d 35 d3 4e 00 00 	lea    0x4ed3(%rip),%rsi        # 188d3 <g_1058+0x1386>
   13a00:	48 89 c7             	mov    %rax,%rdi
   13a03:	e8 eb 2c ff ff       	callq  66f3 <transparent_crc>
   13a08:	48 8b 05 41 86 00 00 	mov    0x8641(%rip),%rax        # 1c050 <g_83+0x8>
   13a0f:	25 ff ff ff 07       	and    $0x7ffffff,%eax
   13a14:	89 c1                	mov    %eax,%ecx
   13a16:	8b 45 fc             	mov    -0x4(%rbp),%eax
   13a19:	89 c2                	mov    %eax,%edx
   13a1b:	48 8d 35 b9 4e 00 00 	lea    0x4eb9(%rip),%rsi        # 188db <g_1058+0x138e>
   13a22:	48 89 cf             	mov    %rcx,%rdi
   13a25:	e8 c9 2c ff ff       	callq  66f3 <transparent_crc>
   13a2a:	48 8b 05 1f 86 00 00 	mov    0x861f(%rip),%rax        # 1c050 <g_83+0x8>
   13a31:	48 c1 e8 1b          	shr    $0x1b,%rax
   13a35:	66 25 ff 3f          	and    $0x3fff,%ax
   13a39:	0f b7 c0             	movzwl %ax,%eax
   13a3c:	8b 55 fc             	mov    -0x4(%rbp),%edx
   13a3f:	48 8d 35 9d 4e 00 00 	lea    0x4e9d(%rip),%rsi        # 188e3 <g_1058+0x1396>
   13a46:	48 89 c7             	mov    %rax,%rdi
   13a49:	e8 a5 2c ff ff       	callq  66f3 <transparent_crc>
   13a4e:	0f b6 05 01 86 00 00 	movzbl 0x8601(%rip),%eax        # 1c056 <g_101>
   13a55:	48 0f be c0          	movsbq %al,%rax
   13a59:	8b 55 fc             	mov    -0x4(%rbp),%edx
   13a5c:	48 8d 35 88 4e 00 00 	lea    0x4e88(%rip),%rsi        # 188eb <g_1058+0x139e>
   13a63:	48 89 c7             	mov    %rax,%rdi
   13a66:	e8 88 2c ff ff       	callq  66f3 <transparent_crc>
   13a6b:	8b 05 e7 85 00 00    	mov    0x85e7(%rip),%eax        # 1c058 <g_127>
   13a71:	89 c1                	mov    %eax,%ecx
   13a73:	8b 45 fc             	mov    -0x4(%rbp),%eax
   13a76:	89 c2                	mov    %eax,%edx
   13a78:	48 8d 35 72 4e 00 00 	lea    0x4e72(%rip),%rsi        # 188f1 <g_1058+0x13a4>
   13a7f:	48 89 cf             	mov    %rcx,%rdi
   13a82:	e8 6c 2c ff ff       	callq  66f3 <transparent_crc>
   13a87:	0f b6 05 1a c7 00 00 	movzbl 0xc71a(%rip),%eax        # 201a8 <g_173>
   13a8e:	48 0f be c0          	movsbq %al,%rax
   13a92:	8b 55 fc             	mov    -0x4(%rbp),%edx
   13a95:	48 8d 35 5b 4e 00 00 	lea    0x4e5b(%rip),%rsi        # 188f7 <g_1058+0x13aa>
   13a9c:	48 89 c7             	mov    %rax,%rdi
   13a9f:	e8 4f 2c ff ff       	callq  66f3 <transparent_crc>
   13aa4:	c7 45 f0 00 00 00 00 	movl   $0x0,-0x10(%rbp)
   13aab:	eb 4f                	jmp    13afc <main+0x365>
   13aad:	8b 45 f0             	mov    -0x10(%rbp),%eax
   13ab0:	48 98                	cltq   
   13ab2:	48 8d 14 c5 00 00 00 	lea    0x0(,%rax,8),%rdx
   13ab9:	00 
   13aba:	48 8d 05 9f 85 00 00 	lea    0x859f(%rip),%rax        # 1c060 <g_202>
   13ac1:	48 8b 04 02          	mov    (%rdx,%rax,1),%rax
   13ac5:	48 89 c1             	mov    %rax,%rcx
   13ac8:	8b 45 fc             	mov    -0x4(%rbp),%eax
   13acb:	89 c2                	mov    %eax,%edx
   13acd:	48 8d 35 29 4e 00 00 	lea    0x4e29(%rip),%rsi        # 188fd <g_1058+0x13b0>
   13ad4:	48 89 cf             	mov    %rcx,%rdi
   13ad7:	e8 17 2c ff ff       	callq  66f3 <transparent_crc>
   13adc:	83 7d fc 00          	cmpl   $0x0,-0x4(%rbp)
   13ae0:	74 16                	je     13af8 <main+0x361>
   13ae2:	8b 45 f0             	mov    -0x10(%rbp),%eax
   13ae5:	89 c6                	mov    %eax,%esi
   13ae7:	48 8d 3d 81 4d 00 00 	lea    0x4d81(%rip),%rdi        # 1886f <g_1058+0x1322>
   13aee:	b8 00 00 00 00       	mov    $0x0,%eax
   13af3:	e8 88 15 ff ff       	callq  5080 <printf@plt>
   13af8:	83 45 f0 01          	addl   $0x1,-0x10(%rbp)
   13afc:	83 7d f0 01          	cmpl   $0x1,-0x10(%rbp)
   13b00:	7e ab                	jle    13aad <main+0x316>
   13b02:	c7 45 f0 00 00 00 00 	movl   $0x0,-0x10(%rbp)
   13b09:	eb 46                	jmp    13b51 <main+0x3ba>
   13b0b:	8b 45 f0             	mov    -0x10(%rbp),%eax
   13b0e:	48 98                	cltq   
   13b10:	48 8d 15 59 85 00 00 	lea    0x8559(%rip),%rdx        # 1c070 <g_214>
   13b17:	0f b6 04 10          	movzbl (%rax,%rdx,1),%eax
   13b1b:	48 0f be c0          	movsbq %al,%rax
   13b1f:	8b 55 fc             	mov    -0x4(%rbp),%edx
   13b22:	48 8d 35 dd 4d 00 00 	lea    0x4ddd(%rip),%rsi        # 18906 <g_1058+0x13b9>
   13b29:	48 89 c7             	mov    %rax,%rdi
   13b2c:	e8 c2 2b ff ff       	callq  66f3 <transparent_crc>
   13b31:	83 7d fc 00          	cmpl   $0x0,-0x4(%rbp)
   13b35:	74 16                	je     13b4d <main+0x3b6>
   13b37:	8b 45 f0             	mov    -0x10(%rbp),%eax
   13b3a:	89 c6                	mov    %eax,%esi
   13b3c:	48 8d 3d 2c 4d 00 00 	lea    0x4d2c(%rip),%rdi        # 1886f <g_1058+0x1322>
   13b43:	b8 00 00 00 00       	mov    $0x0,%eax
   13b48:	e8 33 15 ff ff       	callq  5080 <printf@plt>
   13b4d:	83 45 f0 01          	addl   $0x1,-0x10(%rbp)
   13b51:	83 7d f0 02          	cmpl   $0x2,-0x10(%rbp)
   13b55:	7e b4                	jle    13b0b <main+0x374>
   13b57:	c7 45 f0 00 00 00 00 	movl   $0x0,-0x10(%rbp)
   13b5e:	eb 4d                	jmp    13bad <main+0x416>
   13b60:	8b 45 f0             	mov    -0x10(%rbp),%eax
   13b63:	48 98                	cltq   
   13b65:	48 8d 14 85 00 00 00 	lea    0x0(,%rax,4),%rdx
   13b6c:	00 
   13b6d:	48 8d 05 04 85 00 00 	lea    0x8504(%rip),%rax        # 1c078 <g_244>
   13b74:	8b 04 02             	mov    (%rdx,%rax,1),%eax
   13b77:	89 c1                	mov    %eax,%ecx
   13b79:	8b 45 fc             	mov    -0x4(%rbp),%eax
   13b7c:	89 c2                	mov    %eax,%edx
   13b7e:	48 8d 35 8a 4d 00 00 	lea    0x4d8a(%rip),%rsi        # 1890f <g_1058+0x13c2>
   13b85:	48 89 cf             	mov    %rcx,%rdi
   13b88:	e8 66 2b ff ff       	callq  66f3 <transparent_crc>
   13b8d:	83 7d fc 00          	cmpl   $0x0,-0x4(%rbp)
   13b91:	74 16                	je     13ba9 <main+0x412>
   13b93:	8b 45 f0             	mov    -0x10(%rbp),%eax
   13b96:	89 c6                	mov    %eax,%esi
   13b98:	48 8d 3d d0 4c 00 00 	lea    0x4cd0(%rip),%rdi        # 1886f <g_1058+0x1322>
   13b9f:	b8 00 00 00 00       	mov    $0x0,%eax
   13ba4:	e8 d7 14 ff ff       	callq  5080 <printf@plt>
   13ba9:	83 45 f0 01          	addl   $0x1,-0x10(%rbp)
   13bad:	83 7d f0 01          	cmpl   $0x1,-0x10(%rbp)
   13bb1:	7e ad                	jle    13b60 <main+0x3c9>
   13bb3:	8b 05 c7 84 00 00    	mov    0x84c7(%rip),%eax        # 1c080 <g_252>
   13bb9:	89 c1                	mov    %eax,%ecx
   13bbb:	8b 45 fc             	mov    -0x4(%rbp),%eax
   13bbe:	89 c2                	mov    %eax,%edx
   13bc0:	48 8d 35 51 4d 00 00 	lea    0x4d51(%rip),%rsi        # 18918 <g_1058+0x13cb>
   13bc7:	48 89 cf             	mov    %rcx,%rdi
   13bca:	e8 24 2b ff ff       	callq  66f3 <transparent_crc>
   13bcf:	0f b7 05 ae 84 00 00 	movzwl 0x84ae(%rip),%eax        # 1c084 <g_258>
   13bd6:	48 0f bf c0          	movswq %ax,%rax
   13bda:	8b 55 fc             	mov    -0x4(%rbp),%edx
   13bdd:	48 8d 35 3a 4d 00 00 	lea    0x4d3a(%rip),%rsi        # 1891e <g_1058+0x13d1>
   13be4:	48 89 c7             	mov    %rax,%rdi
   13be7:	e8 07 2b ff ff       	callq  66f3 <transparent_crc>
   13bec:	c7 45 f0 00 00 00 00 	movl   $0x0,-0x10(%rbp)
   13bf3:	e9 b5 00 00 00       	jmpq   13cad <main+0x516>
   13bf8:	c7 45 f4 00 00 00 00 	movl   $0x0,-0xc(%rbp)
   13bff:	e9 9b 00 00 00       	jmpq   13c9f <main+0x508>
   13c04:	c7 45 f8 00 00 00 00 	movl   $0x0,-0x8(%rbp)
   13c0b:	e9 81 00 00 00       	jmpq   13c91 <main+0x4fa>
   13c10:	8b 45 f8             	mov    -0x8(%rbp),%eax
   13c13:	48 63 f0             	movslq %eax,%rsi
   13c16:	8b 45 f0             	mov    -0x10(%rbp),%eax
   13c19:	48 63 d0             	movslq %eax,%rdx
   13c1c:	8b 45 f4             	mov    -0xc(%rbp),%eax
   13c1f:	48 63 c8             	movslq %eax,%rcx
   13c22:	48 89 d0             	mov    %rdx,%rax
   13c25:	48 c1 e0 03          	shl    $0x3,%rax
   13c29:	48 01 d0             	add    %rdx,%rax
   13c2c:	48 c1 e0 02          	shl    $0x2,%rax
   13c30:	48 29 d0             	sub    %rdx,%rax
   13c33:	48 89 ca             	mov    %rcx,%rdx
   13c36:	48 c1 e2 03          	shl    $0x3,%rdx
   13c3a:	48 29 ca             	sub    %rcx,%rdx
   13c3d:	48 01 d0             	add    %rdx,%rax
   13c40:	48 01 f0             	add    %rsi,%rax
   13c43:	48 8d 14 85 00 00 00 	lea    0x0(,%rax,4),%rdx
   13c4a:	00 
   13c4b:	48 8d 05 4e 84 00 00 	lea    0x844e(%rip),%rax        # 1c0a0 <g_290>
   13c52:	8b 04 02             	mov    (%rdx,%rax,1),%eax
   13c55:	89 c1                	mov    %eax,%ecx
   13c57:	8b 45 fc             	mov    -0x4(%rbp),%eax
   13c5a:	89 c2                	mov    %eax,%edx
   13c5c:	48 8d 35 c1 4c 00 00 	lea    0x4cc1(%rip),%rsi        # 18924 <g_1058+0x13d7>
   13c63:	48 89 cf             	mov    %rcx,%rdi
   13c66:	e8 88 2a ff ff       	callq  66f3 <transparent_crc>
   13c6b:	83 7d fc 00          	cmpl   $0x0,-0x4(%rbp)
   13c6f:	74 1c                	je     13c8d <main+0x4f6>
   13c71:	8b 4d f8             	mov    -0x8(%rbp),%ecx
   13c74:	8b 55 f4             	mov    -0xc(%rbp),%edx
   13c77:	8b 45 f0             	mov    -0x10(%rbp),%eax
   13c7a:	89 c6                	mov    %eax,%esi
   13c7c:	48 8d 3d b0 4c 00 00 	lea    0x4cb0(%rip),%rdi        # 18933 <g_1058+0x13e6>
   13c83:	b8 00 00 00 00       	mov    $0x0,%eax
   13c88:	e8 f3 13 ff ff       	callq  5080 <printf@plt>
   13c8d:	83 45 f8 01          	addl   $0x1,-0x8(%rbp)
   13c91:	83 7d f8 06          	cmpl   $0x6,-0x8(%rbp)
   13c95:	0f 8e 75 ff ff ff    	jle    13c10 <main+0x479>
   13c9b:	83 45 f4 01          	addl   $0x1,-0xc(%rbp)
   13c9f:	83 7d f4 04          	cmpl   $0x4,-0xc(%rbp)
   13ca3:	0f 8e 5b ff ff ff    	jle    13c04 <main+0x46d>
   13ca9:	83 45 f0 01          	addl   $0x1,-0x10(%rbp)
   13cad:	83 7d f0 05          	cmpl   $0x5,-0x10(%rbp)
   13cb1:	0f 8e 41 ff ff ff    	jle    13bf8 <main+0x461>
   13cb7:	8b 05 ef c4 00 00    	mov    0xc4ef(%rip),%eax        # 201ac <g_319>
   13cbd:	89 c1                	mov    %eax,%ecx
   13cbf:	8b 45 fc             	mov    -0x4(%rbp),%eax
   13cc2:	89 c2                	mov    %eax,%edx
   13cc4:	48 8d 35 7e 4c 00 00 	lea    0x4c7e(%rip),%rsi        # 18949 <g_1058+0x13fc>
   13ccb:	48 89 cf             	mov    %rcx,%rdi
   13cce:	e8 20 2a ff ff       	callq  66f3 <transparent_crc>
   13cd3:	0f b7 05 0e 87 00 00 	movzwl 0x870e(%rip),%eax        # 1c3e8 <g_320>
   13cda:	48 0f bf c0          	movswq %ax,%rax
   13cde:	8b 55 fc             	mov    -0x4(%rbp),%edx
   13ce1:	48 8d 35 67 4c 00 00 	lea    0x4c67(%rip),%rsi        # 1894f <g_1058+0x1402>
   13ce8:	48 89 c7             	mov    %rax,%rdi
   13ceb:	e8 03 2a ff ff       	callq  66f3 <transparent_crc>
   13cf0:	0f b6 05 f3 86 00 00 	movzbl 0x86f3(%rip),%eax        # 1c3ea <g_330>
   13cf7:	0f b6 c0             	movzbl %al,%eax
   13cfa:	8b 55 fc             	mov    -0x4(%rbp),%edx
   13cfd:	48 8d 35 51 4c 00 00 	lea    0x4c51(%rip),%rsi        # 18955 <g_1058+0x1408>
   13d04:	48 89 c7             	mov    %rax,%rdi
   13d07:	e8 e7 29 ff ff       	callq  66f3 <transparent_crc>
   13d0c:	48 8b 05 dd 86 00 00 	mov    0x86dd(%rip),%rax        # 1c3f0 <g_354>
   13d13:	48 89 c1             	mov    %rax,%rcx
   13d16:	8b 45 fc             	mov    -0x4(%rbp),%eax
   13d19:	89 c2                	mov    %eax,%edx
   13d1b:	48 8d 35 39 4c 00 00 	lea    0x4c39(%rip),%rsi        # 1895b <g_1058+0x140e>
   13d22:	48 89 cf             	mov    %rcx,%rdi
   13d25:	e8 c9 29 ff ff       	callq  66f3 <transparent_crc>
   13d2a:	0f b7 05 c7 86 00 00 	movzwl 0x86c7(%rip),%eax        # 1c3f8 <g_380>
   13d31:	66 25 ff 0f          	and    $0xfff,%ax
   13d35:	0f b7 c0             	movzwl %ax,%eax
   13d38:	8b 55 fc             	mov    -0x4(%rbp),%edx
   13d3b:	48 8d 35 1f 4c 00 00 	lea    0x4c1f(%rip),%rsi        # 18961 <g_1058+0x1414>
   13d42:	48 89 c7             	mov    %rax,%rdi
   13d45:	e8 a9 29 ff ff       	callq  66f3 <transparent_crc>
   13d4a:	8b 05 a8 86 00 00    	mov    0x86a8(%rip),%eax        # 1c3f8 <g_380>
   13d50:	01 c0                	add    %eax,%eax
   13d52:	c1 f8 0d             	sar    $0xd,%eax
   13d55:	48 98                	cltq   
   13d57:	8b 55 fc             	mov    -0x4(%rbp),%edx
   13d5a:	48 8d 35 09 4c 00 00 	lea    0x4c09(%rip),%rsi        # 1896a <g_1058+0x141d>
   13d61:	48 89 c7             	mov    %rax,%rdi
   13d64:	e8 8a 29 ff ff       	callq  66f3 <transparent_crc>
   13d69:	48 8b 05 88 86 00 00 	mov    0x8688(%rip),%rax        # 1c3f8 <g_380>
   13d70:	48 c1 e0 17          	shl    $0x17,%rax
   13d74:	48 c1 f8 36          	sar    $0x36,%rax
   13d78:	48 0f bf c0          	movswq %ax,%rax
   13d7c:	8b 55 fc             	mov    -0x4(%rbp),%edx
   13d7f:	48 8d 35 ed 4b 00 00 	lea    0x4bed(%rip),%rsi        # 18973 <g_1058+0x1426>
   13d86:	48 89 c7             	mov    %rax,%rdi
   13d89:	e8 65 29 ff ff       	callq  66f3 <transparent_crc>
   13d8e:	48 8b 05 63 86 00 00 	mov    0x8663(%rip),%rax        # 1c3f8 <g_380>
   13d95:	48 c1 e0 0a          	shl    $0xa,%rax
   13d99:	48 c1 f8 33          	sar    $0x33,%rax
   13d9d:	48 0f bf c0          	movswq %ax,%rax
   13da1:	8b 55 fc             	mov    -0x4(%rbp),%edx
   13da4:	48 8d 35 d1 4b 00 00 	lea    0x4bd1(%rip),%rsi        # 1897c <g_1058+0x142f>
   13dab:	48 89 c7             	mov    %rax,%rdi
   13dae:	e8 40 29 ff ff       	callq  66f3 <transparent_crc>
   13db3:	48 8b 05 3e 86 00 00 	mov    0x863e(%rip),%rax        # 1c3f8 <g_380>
   13dba:	48 c1 f8 36          	sar    $0x36,%rax
   13dbe:	48 0f bf c0          	movswq %ax,%rax
   13dc2:	8b 55 fc             	mov    -0x4(%rbp),%edx
   13dc5:	48 8d 35 b9 4b 00 00 	lea    0x4bb9(%rip),%rsi        # 18985 <g_1058+0x1438>
   13dcc:	48 89 c7             	mov    %rax,%rdi
   13dcf:	e8 1f 29 ff ff       	callq  66f3 <transparent_crc>
   13dd4:	48 8b 05 25 86 00 00 	mov    0x8625(%rip),%rax        # 1c400 <g_380+0x8>
   13ddb:	25 ff ff ff 07       	and    $0x7ffffff,%eax
   13de0:	89 c1                	mov    %eax,%ecx
   13de2:	8b 45 fc             	mov    -0x4(%rbp),%eax
   13de5:	89 c2                	mov    %eax,%edx
   13de7:	48 8d 35 a0 4b 00 00 	lea    0x4ba0(%rip),%rsi        # 1898e <g_1058+0x1441>
   13dee:	48 89 cf             	mov    %rcx,%rdi
   13df1:	e8 fd 28 ff ff       	callq  66f3 <transparent_crc>
   13df6:	48 8b 05 03 86 00 00 	mov    0x8603(%rip),%rax        # 1c400 <g_380+0x8>
   13dfd:	48 c1 e8 1b          	shr    $0x1b,%rax
   13e01:	66 25 ff 3f          	and    $0x3fff,%ax
   13e05:	0f b7 c0             	movzwl %ax,%eax
   13e08:	8b 55 fc             	mov    -0x4(%rbp),%edx
   13e0b:	48 8d 35 85 4b 00 00 	lea    0x4b85(%rip),%rsi        # 18997 <g_1058+0x144a>
   13e12:	48 89 c7             	mov    %rax,%rdi
   13e15:	e8 d9 28 ff ff       	callq  66f3 <transparent_crc>
   13e1a:	48 8b 05 e7 85 00 00 	mov    0x85e7(%rip),%rax        # 1c408 <g_390>
   13e21:	66 25 ff 0f          	and    $0xfff,%ax
   13e25:	0f b7 c0             	movzwl %ax,%eax
   13e28:	8b 55 fc             	mov    -0x4(%rbp),%edx
   13e2b:	48 8d 35 6e 4b 00 00 	lea    0x4b6e(%rip),%rsi        # 189a0 <g_1058+0x1453>
   13e32:	48 89 c7             	mov    %rax,%rdi
   13e35:	e8 b9 28 ff ff       	callq  66f3 <transparent_crc>
   13e3a:	48 8b 05 c7 85 00 00 	mov    0x85c7(%rip),%rax        # 1c408 <g_390>
   13e41:	01 c0                	add    %eax,%eax
   13e43:	c1 f8 0d             	sar    $0xd,%eax
   13e46:	48 98                	cltq   
   13e48:	8b 55 fc             	mov    -0x4(%rbp),%edx
   13e4b:	48 8d 35 57 4b 00 00 	lea    0x4b57(%rip),%rsi        # 189a9 <g_1058+0x145c>
   13e52:	48 89 c7             	mov    %rax,%rdi
   13e55:	e8 99 28 ff ff       	callq  66f3 <transparent_crc>
   13e5a:	48 8b 05 a7 85 00 00 	mov    0x85a7(%rip),%rax        # 1c408 <g_390>
   13e61:	48 c1 e0 17          	shl    $0x17,%rax
   13e65:	48 c1 f8 36          	sar    $0x36,%rax
   13e69:	48 0f bf c0          	movswq %ax,%rax
   13e6d:	8b 55 fc             	mov    -0x4(%rbp),%edx
   13e70:	48 8d 35 3b 4b 00 00 	lea    0x4b3b(%rip),%rsi        # 189b2 <g_1058+0x1465>
   13e77:	48 89 c7             	mov    %rax,%rdi
   13e7a:	e8 74 28 ff ff       	callq  66f3 <transparent_crc>
   13e7f:	48 8b 05 82 85 00 00 	mov    0x8582(%rip),%rax        # 1c408 <g_390>
   13e86:	48 c1 e0 0a          	shl    $0xa,%rax
   13e8a:	48 c1 f8 33          	sar    $0x33,%rax
   13e8e:	48 0f bf c0          	movswq %ax,%rax
   13e92:	8b 55 fc             	mov    -0x4(%rbp),%edx
   13e95:	48 8d 35 1f 4b 00 00 	lea    0x4b1f(%rip),%rsi        # 189bb <g_1058+0x146e>
   13e9c:	48 89 c7             	mov    %rax,%rdi
   13e9f:	e8 4f 28 ff ff       	callq  66f3 <transparent_crc>
   13ea4:	48 8b 05 5d 85 00 00 	mov    0x855d(%rip),%rax        # 1c408 <g_390>
   13eab:	48 c1 f8 36          	sar    $0x36,%rax
   13eaf:	48 0f bf c0          	movswq %ax,%rax
   13eb3:	8b 55 fc             	mov    -0x4(%rbp),%edx
   13eb6:	48 8d 35 07 4b 00 00 	lea    0x4b07(%rip),%rsi        # 189c4 <g_1058+0x1477>
   13ebd:	48 89 c7             	mov    %rax,%rdi
   13ec0:	e8 2e 28 ff ff       	callq  66f3 <transparent_crc>
   13ec5:	48 8b 05 44 85 00 00 	mov    0x8544(%rip),%rax        # 1c410 <g_390+0x8>
   13ecc:	25 ff ff ff 07       	and    $0x7ffffff,%eax
   13ed1:	89 c1                	mov    %eax,%ecx
   13ed3:	8b 45 fc             	mov    -0x4(%rbp),%eax
   13ed6:	89 c2                	mov    %eax,%edx
   13ed8:	48 8d 35 ee 4a 00 00 	lea    0x4aee(%rip),%rsi        # 189cd <g_1058+0x1480>
   13edf:	48 89 cf             	mov    %rcx,%rdi
   13ee2:	e8 0c 28 ff ff       	callq  66f3 <transparent_crc>
   13ee7:	48 8b 05 22 85 00 00 	mov    0x8522(%rip),%rax        # 1c410 <g_390+0x8>
   13eee:	48 c1 e8 1b          	shr    $0x1b,%rax
   13ef2:	66 25 ff 3f          	and    $0x3fff,%ax
   13ef6:	0f b7 c0             	movzwl %ax,%eax
   13ef9:	8b 55 fc             	mov    -0x4(%rbp),%edx
   13efc:	48 8d 35 d3 4a 00 00 	lea    0x4ad3(%rip),%rsi        # 189d6 <g_1058+0x1489>
   13f03:	48 89 c7             	mov    %rax,%rdi
   13f06:	e8 e8 27 ff ff       	callq  66f3 <transparent_crc>
   13f0b:	0f b7 05 a6 c2 00 00 	movzwl 0xc2a6(%rip),%eax        # 201b8 <g_421>
   13f12:	0f b7 c0             	movzwl %ax,%eax
   13f15:	8b 55 fc             	mov    -0x4(%rbp),%edx
   13f18:	48 8d 35 c0 4a 00 00 	lea    0x4ac0(%rip),%rsi        # 189df <g_1058+0x1492>
   13f1f:	48 89 c7             	mov    %rax,%rdi
   13f22:	e8 cc 27 ff ff       	callq  66f3 <transparent_crc>
   13f27:	c7 45 f0 00 00 00 00 	movl   $0x0,-0x10(%rbp)
   13f2e:	e9 ae 00 00 00       	jmpq   13fe1 <main+0x84a>
   13f33:	c7 45 f4 00 00 00 00 	movl   $0x0,-0xc(%rbp)
   13f3a:	e9 94 00 00 00       	jmpq   13fd3 <main+0x83c>
   13f3f:	c7 45 f8 00 00 00 00 	movl   $0x0,-0x8(%rbp)
   13f46:	eb 7d                	jmp    13fc5 <main+0x82e>
   13f48:	8b 45 f8             	mov    -0x8(%rbp),%eax
   13f4b:	48 63 f0             	movslq %eax,%rsi
   13f4e:	8b 45 f0             	mov    -0x10(%rbp),%eax
   13f51:	48 63 d0             	movslq %eax,%rdx
   13f54:	8b 45 f4             	mov    -0xc(%rbp),%eax
   13f57:	48 63 c8             	movslq %eax,%rcx
   13f5a:	48 89 d0             	mov    %rdx,%rax
   13f5d:	48 c1 e0 03          	shl    $0x3,%rax
   13f61:	48 01 d0             	add    %rdx,%rax
   13f64:	48 c1 e0 02          	shl    $0x2,%rax
   13f68:	48 29 d0             	sub    %rdx,%rax
   13f6b:	48 89 ca             	mov    %rcx,%rdx
   13f6e:	48 c1 e2 02          	shl    $0x2,%rdx
   13f72:	48 01 ca             	add    %rcx,%rdx
   13f75:	48 01 d0             	add    %rdx,%rax
   13f78:	48 01 f0             	add    %rsi,%rax
   13f7b:	48 8d 14 00          	lea    (%rax,%rax,1),%rdx
   13f7f:	48 8d 05 9a 84 00 00 	lea    0x849a(%rip),%rax        # 1c420 <g_423>
   13f86:	0f b7 04 02          	movzwl (%rdx,%rax,1),%eax
   13f8a:	0f b7 c0             	movzwl %ax,%eax
   13f8d:	8b 55 fc             	mov    -0x4(%rbp),%edx
   13f90:	48 8d 35 4e 4a 00 00 	lea    0x4a4e(%rip),%rsi        # 189e5 <g_1058+0x1498>
   13f97:	48 89 c7             	mov    %rax,%rdi
   13f9a:	e8 54 27 ff ff       	callq  66f3 <transparent_crc>
   13f9f:	83 7d fc 00          	cmpl   $0x0,-0x4(%rbp)
   13fa3:	74 1c                	je     13fc1 <main+0x82a>
   13fa5:	8b 4d f8             	mov    -0x8(%rbp),%ecx
   13fa8:	8b 55 f4             	mov    -0xc(%rbp),%edx
   13fab:	8b 45 f0             	mov    -0x10(%rbp),%eax
   13fae:	89 c6                	mov    %eax,%esi
   13fb0:	48 8d 3d 7c 49 00 00 	lea    0x497c(%rip),%rdi        # 18933 <g_1058+0x13e6>
   13fb7:	b8 00 00 00 00       	mov    $0x0,%eax
   13fbc:	e8 bf 10 ff ff       	callq  5080 <printf@plt>
   13fc1:	83 45 f8 01          	addl   $0x1,-0x8(%rbp)
   13fc5:	83 7d f8 04          	cmpl   $0x4,-0x8(%rbp)
   13fc9:	0f 8e 79 ff ff ff    	jle    13f48 <main+0x7b1>
   13fcf:	83 45 f4 01          	addl   $0x1,-0xc(%rbp)
   13fd3:	83 7d f4 06          	cmpl   $0x6,-0xc(%rbp)
   13fd7:	0f 8e 62 ff ff ff    	jle    13f3f <main+0x7a8>
   13fdd:	83 45 f0 01          	addl   $0x1,-0x10(%rbp)
   13fe1:	83 7d f0 02          	cmpl   $0x2,-0x10(%rbp)
   13fe5:	0f 8e 48 ff ff ff    	jle    13f33 <main+0x79c>
   13feb:	48 8b 05 06 85 00 00 	mov    0x8506(%rip),%rax        # 1c4f8 <g_427>
   13ff2:	8b 55 fc             	mov    -0x4(%rbp),%edx
   13ff5:	48 8d 35 f8 49 00 00 	lea    0x49f8(%rip),%rsi        # 189f4 <g_1058+0x14a7>
   13ffc:	48 89 c7             	mov    %rax,%rdi
   13fff:	e8 ef 26 ff ff       	callq  66f3 <transparent_crc>
   14004:	8b 05 f6 84 00 00    	mov    0x84f6(%rip),%eax        # 1c500 <g_519>
   1400a:	48 98                	cltq   
   1400c:	8b 55 fc             	mov    -0x4(%rbp),%edx
   1400f:	48 8d 35 e4 49 00 00 	lea    0x49e4(%rip),%rsi        # 189fa <g_1058+0x14ad>
   14016:	48 89 c7             	mov    %rax,%rdi
   14019:	e8 d5 26 ff ff       	callq  66f3 <transparent_crc>
   1401e:	48 8b 05 e3 84 00 00 	mov    0x84e3(%rip),%rax        # 1c508 <g_549>
   14025:	66 25 ff 0f          	and    $0xfff,%ax
   14029:	0f b7 c0             	movzwl %ax,%eax
   1402c:	8b 55 fc             	mov    -0x4(%rbp),%edx
   1402f:	48 8d 35 ca 49 00 00 	lea    0x49ca(%rip),%rsi        # 18a00 <g_1058+0x14b3>
   14036:	48 89 c7             	mov    %rax,%rdi
   14039:	e8 b5 26 ff ff       	callq  66f3 <transparent_crc>
   1403e:	48 8b 05 c3 84 00 00 	mov    0x84c3(%rip),%rax        # 1c508 <g_549>
   14045:	01 c0                	add    %eax,%eax
   14047:	c1 f8 0d             	sar    $0xd,%eax
   1404a:	48 98                	cltq   
   1404c:	8b 55 fc             	mov    -0x4(%rbp),%edx
   1404f:	48 8d 35 b3 49 00 00 	lea    0x49b3(%rip),%rsi        # 18a09 <g_1058+0x14bc>
   14056:	48 89 c7             	mov    %rax,%rdi
   14059:	e8 95 26 ff ff       	callq  66f3 <transparent_crc>
   1405e:	48 8b 05 a3 84 00 00 	mov    0x84a3(%rip),%rax        # 1c508 <g_549>
   14065:	48 c1 e0 17          	shl    $0x17,%rax
   14069:	48 c1 f8 36          	sar    $0x36,%rax
   1406d:	48 0f bf c0          	movswq %ax,%rax
   14071:	8b 55 fc             	mov    -0x4(%rbp),%edx
   14074:	48 8d 35 97 49 00 00 	lea    0x4997(%rip),%rsi        # 18a12 <g_1058+0x14c5>
   1407b:	48 89 c7             	mov    %rax,%rdi
   1407e:	e8 70 26 ff ff       	callq  66f3 <transparent_crc>
   14083:	48 8b 05 7e 84 00 00 	mov    0x847e(%rip),%rax        # 1c508 <g_549>
   1408a:	48 c1 e0 0a          	shl    $0xa,%rax
   1408e:	48 c1 f8 33          	sar    $0x33,%rax
   14092:	48 0f bf c0          	movswq %ax,%rax
   14096:	8b 55 fc             	mov    -0x4(%rbp),%edx
   14099:	48 8d 35 7b 49 00 00 	lea    0x497b(%rip),%rsi        # 18a1b <g_1058+0x14ce>
   140a0:	48 89 c7             	mov    %rax,%rdi
   140a3:	e8 4b 26 ff ff       	callq  66f3 <transparent_crc>
   140a8:	48 8b 05 59 84 00 00 	mov    0x8459(%rip),%rax        # 1c508 <g_549>
   140af:	48 c1 f8 36          	sar    $0x36,%rax
   140b3:	48 0f bf c0          	movswq %ax,%rax
   140b7:	8b 55 fc             	mov    -0x4(%rbp),%edx
   140ba:	48 8d 35 63 49 00 00 	lea    0x4963(%rip),%rsi        # 18a24 <g_1058+0x14d7>
   140c1:	48 89 c7             	mov    %rax,%rdi
   140c4:	e8 2a 26 ff ff       	callq  66f3 <transparent_crc>
   140c9:	48 8b 05 40 84 00 00 	mov    0x8440(%rip),%rax        # 1c510 <g_549+0x8>
   140d0:	25 ff ff ff 07       	and    $0x7ffffff,%eax
   140d5:	89 c1                	mov    %eax,%ecx
   140d7:	8b 45 fc             	mov    -0x4(%rbp),%eax
   140da:	89 c2                	mov    %eax,%edx
   140dc:	48 8d 35 4a 49 00 00 	lea    0x494a(%rip),%rsi        # 18a2d <g_1058+0x14e0>
   140e3:	48 89 cf             	mov    %rcx,%rdi
   140e6:	e8 08 26 ff ff       	callq  66f3 <transparent_crc>
   140eb:	48 8b 05 1e 84 00 00 	mov    0x841e(%rip),%rax        # 1c510 <g_549+0x8>
   140f2:	48 c1 e8 1b          	shr    $0x1b,%rax
   140f6:	66 25 ff 3f          	and    $0x3fff,%ax
   140fa:	0f b7 c0             	movzwl %ax,%eax
   140fd:	8b 55 fc             	mov    -0x4(%rbp),%edx
   14100:	48 8d 35 2f 49 00 00 	lea    0x492f(%rip),%rsi        # 18a36 <g_1058+0x14e9>
   14107:	48 89 c7             	mov    %rax,%rdi
   1410a:	e8 e4 25 ff ff       	callq  66f3 <transparent_crc>
   1410f:	b8 fd ff ff ff       	mov    $0xfffffffd,%eax
   14114:	89 c1                	mov    %eax,%ecx
   14116:	8b 45 fc             	mov    -0x4(%rbp),%eax
   14119:	89 c2                	mov    %eax,%edx
   1411b:	48 8d 35 1d 49 00 00 	lea    0x491d(%rip),%rsi        # 18a3f <g_1058+0x14f2>
   14122:	48 89 cf             	mov    %rcx,%rdi
   14125:	e8 c9 25 ff ff       	callq  66f3 <transparent_crc>
   1412a:	0f b6 05 e5 83 00 00 	movzbl 0x83e5(%rip),%eax        # 1c516 <g_676>
   14131:	48 0f be c0          	movsbq %al,%rax
   14135:	8b 55 fc             	mov    -0x4(%rbp),%edx
   14138:	48 8d 35 06 49 00 00 	lea    0x4906(%rip),%rsi        # 18a45 <g_1058+0x14f8>
   1413f:	48 89 c7             	mov    %rax,%rdi
   14142:	e8 ac 25 ff ff       	callq  66f3 <transparent_crc>
   14147:	c7 45 f0 00 00 00 00 	movl   $0x0,-0x10(%rbp)
   1414e:	eb 4a                	jmp    1419a <main+0xa03>
   14150:	8b 45 f0             	mov    -0x10(%rbp),%eax
   14153:	48 98                	cltq   
   14155:	48 8d 14 00          	lea    (%rax,%rax,1),%rdx
   14159:	48 8d 05 b8 83 00 00 	lea    0x83b8(%rip),%rax        # 1c518 <g_776>
   14160:	0f b7 04 02          	movzwl (%rdx,%rax,1),%eax
   14164:	48 0f bf c0          	movswq %ax,%rax
   14168:	8b 55 fc             	mov    -0x4(%rbp),%edx
   1416b:	48 8d 35 d9 48 00 00 	lea    0x48d9(%rip),%rsi        # 18a4b <g_1058+0x14fe>
   14172:	48 89 c7             	mov    %rax,%rdi
   14175:	e8 79 25 ff ff       	callq  66f3 <transparent_crc>
   1417a:	83 7d fc 00          	cmpl   $0x0,-0x4(%rbp)
   1417e:	74 16                	je     14196 <main+0x9ff>
   14180:	8b 45 f0             	mov    -0x10(%rbp),%eax
   14183:	89 c6                	mov    %eax,%esi
   14185:	48 8d 3d e3 46 00 00 	lea    0x46e3(%rip),%rdi        # 1886f <g_1058+0x1322>
   1418c:	b8 00 00 00 00       	mov    $0x0,%eax
   14191:	e8 ea 0e ff ff       	callq  5080 <printf@plt>
   14196:	83 45 f0 01          	addl   $0x1,-0x10(%rbp)
   1419a:	83 7d f0 01          	cmpl   $0x1,-0x10(%rbp)
   1419e:	7e b0                	jle    14150 <main+0x9b9>
   141a0:	48 8b 05 79 83 00 00 	mov    0x8379(%rip),%rax        # 1c520 <g_867>
   141a7:	8b 55 fc             	mov    -0x4(%rbp),%edx
   141aa:	48 8d 35 a3 48 00 00 	lea    0x48a3(%rip),%rsi        # 18a54 <g_1058+0x1507>
   141b1:	48 89 c7             	mov    %rax,%rdi
   141b4:	e8 3a 25 ff ff       	callq  66f3 <transparent_crc>
   141b9:	c7 45 f0 00 00 00 00 	movl   $0x0,-0x10(%rbp)
   141c0:	e9 a7 00 00 00       	jmpq   1426c <main+0xad5>
   141c5:	c7 45 f4 00 00 00 00 	movl   $0x0,-0xc(%rbp)
   141cc:	e9 8d 00 00 00       	jmpq   1425e <main+0xac7>
   141d1:	c7 45 f8 00 00 00 00 	movl   $0x0,-0x8(%rbp)
   141d8:	eb 7a                	jmp    14254 <main+0xabd>
   141da:	8b 45 f8             	mov    -0x8(%rbp),%eax
   141dd:	48 63 f0             	movslq %eax,%rsi
   141e0:	8b 45 f0             	mov    -0x10(%rbp),%eax
   141e3:	48 63 d0             	movslq %eax,%rdx
   141e6:	8b 45 f4             	mov    -0xc(%rbp),%eax
   141e9:	48 63 c8             	movslq %eax,%rcx
   141ec:	48 89 d0             	mov    %rdx,%rax
   141ef:	48 c1 e0 03          	shl    $0x3,%rax
   141f3:	48 29 d0             	sub    %rdx,%rax
   141f6:	48 01 c0             	add    %rax,%rax
   141f9:	48 89 ca             	mov    %rcx,%rdx
   141fc:	48 c1 e2 03          	shl    $0x3,%rdx
   14200:	48 29 ca             	sub    %rcx,%rdx
   14203:	48 01 d0             	add    %rdx,%rax
   14206:	48 01 f0             	add    %rsi,%rax
   14209:	48 8d 14 c5 00 00 00 	lea    0x0(,%rax,8),%rdx
   14210:	00 
   14211:	48 8d 05 28 83 00 00 	lea    0x8328(%rip),%rax        # 1c540 <g_1009>
   14218:	48 8b 04 02          	mov    (%rdx,%rax,1),%rax
   1421c:	8b 55 fc             	mov    -0x4(%rbp),%edx
   1421f:	48 8d 35 34 48 00 00 	lea    0x4834(%rip),%rsi        # 18a5a <g_1058+0x150d>
   14226:	48 89 c7             	mov    %rax,%rdi
   14229:	e8 c5 24 ff ff       	callq  66f3 <transparent_crc>
   1422e:	83 7d fc 00          	cmpl   $0x0,-0x4(%rbp)
   14232:	74 1c                	je     14250 <main+0xab9>
   14234:	8b 4d f8             	mov    -0x8(%rbp),%ecx
   14237:	8b 55 f4             	mov    -0xc(%rbp),%edx
   1423a:	8b 45 f0             	mov    -0x10(%rbp),%eax
   1423d:	89 c6                	mov    %eax,%esi
   1423f:	48 8d 3d ed 46 00 00 	lea    0x46ed(%rip),%rdi        # 18933 <g_1058+0x13e6>
   14246:	b8 00 00 00 00       	mov    $0x0,%eax
   1424b:	e8 30 0e ff ff       	callq  5080 <printf@plt>
   14250:	83 45 f8 01          	addl   $0x1,-0x8(%rbp)
   14254:	83 7d f8 06          	cmpl   $0x6,-0x8(%rbp)
   14258:	7e 80                	jle    141da <main+0xa43>
   1425a:	83 45 f4 01          	addl   $0x1,-0xc(%rbp)
   1425e:	83 7d f4 01          	cmpl   $0x1,-0xc(%rbp)
   14262:	0f 8e 69 ff ff ff    	jle    141d1 <main+0xa3a>
   14268:	83 45 f0 01          	addl   $0x1,-0x10(%rbp)
   1426c:	83 7d f0 01          	cmpl   $0x1,-0x10(%rbp)
   14270:	0f 8e 4f ff ff ff    	jle    141c5 <main+0xa2e>
   14276:	0f b7 05 a3 83 00 00 	movzwl 0x83a3(%rip),%eax        # 1c620 <g_1019>
   1427d:	66 25 ff 0f          	and    $0xfff,%ax
   14281:	0f b7 c0             	movzwl %ax,%eax
   14284:	8b 55 fc             	mov    -0x4(%rbp),%edx
   14287:	48 8d 35 dc 47 00 00 	lea    0x47dc(%rip),%rsi        # 18a6a <g_1058+0x151d>
   1428e:	48 89 c7             	mov    %rax,%rdi
   14291:	e8 5d 24 ff ff       	callq  66f3 <transparent_crc>
   14296:	8b 05 84 83 00 00    	mov    0x8384(%rip),%eax        # 1c620 <g_1019>
   1429c:	01 c0                	add    %eax,%eax
   1429e:	c1 f8 0d             	sar    $0xd,%eax
   142a1:	48 98                	cltq   
   142a3:	8b 55 fc             	mov    -0x4(%rbp),%edx
   142a6:	48 8d 35 c7 47 00 00 	lea    0x47c7(%rip),%rsi        # 18a74 <g_1058+0x1527>
   142ad:	48 89 c7             	mov    %rax,%rdi
   142b0:	e8 3e 24 ff ff       	callq  66f3 <transparent_crc>
   142b5:	48 8b 05 64 83 00 00 	mov    0x8364(%rip),%rax        # 1c620 <g_1019>
   142bc:	48 c1 e0 17          	shl    $0x17,%rax
   142c0:	48 c1 f8 36          	sar    $0x36,%rax
   142c4:	48 0f bf c0          	movswq %ax,%rax
   142c8:	8b 55 fc             	mov    -0x4(%rbp),%edx
   142cb:	48 8d 35 ac 47 00 00 	lea    0x47ac(%rip),%rsi        # 18a7e <g_1058+0x1531>
   142d2:	48 89 c7             	mov    %rax,%rdi
   142d5:	e8 19 24 ff ff       	callq  66f3 <transparent_crc>
   142da:	48 8b 05 3f 83 00 00 	mov    0x833f(%rip),%rax        # 1c620 <g_1019>
   142e1:	48 c1 e0 0a          	shl    $0xa,%rax
   142e5:	48 c1 f8 33          	sar    $0x33,%rax
   142e9:	48 0f bf c0          	movswq %ax,%rax
   142ed:	8b 55 fc             	mov    -0x4(%rbp),%edx
   142f0:	48 8d 35 91 47 00 00 	lea    0x4791(%rip),%rsi        # 18a88 <g_1058+0x153b>
   142f7:	48 89 c7             	mov    %rax,%rdi
   142fa:	e8 f4 23 ff ff       	callq  66f3 <transparent_crc>
   142ff:	48 8b 05 1a 83 00 00 	mov    0x831a(%rip),%rax        # 1c620 <g_1019>
   14306:	48 c1 f8 36          	sar    $0x36,%rax
   1430a:	48 0f bf c0          	movswq %ax,%rax
   1430e:	8b 55 fc             	mov    -0x4(%rbp),%edx
   14311:	48 8d 35 7a 47 00 00 	lea    0x477a(%rip),%rsi        # 18a92 <g_1058+0x1545>
   14318:	48 89 c7             	mov    %rax,%rdi
   1431b:	e8 d3 23 ff ff       	callq  66f3 <transparent_crc>
   14320:	48 8b 05 01 83 00 00 	mov    0x8301(%rip),%rax        # 1c628 <g_1019+0x8>
   14327:	25 ff ff ff 07       	and    $0x7ffffff,%eax
   1432c:	89 c1                	mov    %eax,%ecx
   1432e:	8b 45 fc             	mov    -0x4(%rbp),%eax
   14331:	89 c2                	mov    %eax,%edx
   14333:	48 8d 35 62 47 00 00 	lea    0x4762(%rip),%rsi        # 18a9c <g_1058+0x154f>
   1433a:	48 89 cf             	mov    %rcx,%rdi
   1433d:	e8 b1 23 ff ff       	callq  66f3 <transparent_crc>
   14342:	48 8b 05 df 82 00 00 	mov    0x82df(%rip),%rax        # 1c628 <g_1019+0x8>
   14349:	48 c1 e8 1b          	shr    $0x1b,%rax
   1434d:	66 25 ff 3f          	and    $0x3fff,%ax
   14351:	0f b7 c0             	movzwl %ax,%eax
   14354:	8b 55 fc             	mov    -0x4(%rbp),%edx
   14357:	48 8d 35 48 47 00 00 	lea    0x4748(%rip),%rsi        # 18aa6 <g_1058+0x1559>
   1435e:	48 89 c7             	mov    %rax,%rdi
   14361:	e8 8d 23 ff ff       	callq  66f3 <transparent_crc>
   14366:	c7 45 f0 00 00 00 00 	movl   $0x0,-0x10(%rbp)
   1436d:	e9 b8 02 00 00       	jmpq   1462a <main+0xe93>
   14372:	c7 45 f4 00 00 00 00 	movl   $0x0,-0xc(%rbp)
   14379:	e9 9e 02 00 00       	jmpq   1461c <main+0xe85>
   1437e:	8b 45 f4             	mov    -0xc(%rbp),%eax
   14381:	48 63 d0             	movslq %eax,%rdx
   14384:	8b 45 f0             	mov    -0x10(%rbp),%eax
   14387:	48 63 c8             	movslq %eax,%rcx
   1438a:	48 89 d0             	mov    %rdx,%rax
   1438d:	48 c1 e0 03          	shl    $0x3,%rax
   14391:	48 29 d0             	sub    %rdx,%rax
   14394:	48 01 c0             	add    %rax,%rax
   14397:	48 69 d1 8c 00 00 00 	imul   $0x8c,%rcx,%rdx
   1439e:	48 01 c2             	add    %rax,%rdx
   143a1:	48 8d 05 b8 2c 00 00 	lea    0x2cb8(%rip),%rax        # 17060 <g_1028>
   143a8:	48 01 d0             	add    %rdx,%rax
   143ab:	0f b7 00             	movzwl (%rax),%eax
   143ae:	66 25 ff 0f          	and    $0xfff,%ax
   143b2:	0f b7 c0             	movzwl %ax,%eax
   143b5:	8b 55 fc             	mov    -0x4(%rbp),%edx
   143b8:	48 8d 35 f1 46 00 00 	lea    0x46f1(%rip),%rsi        # 18ab0 <g_1058+0x1563>
   143bf:	48 89 c7             	mov    %rax,%rdi
   143c2:	e8 2c 23 ff ff       	callq  66f3 <transparent_crc>
   143c7:	8b 45 f4             	mov    -0xc(%rbp),%eax
   143ca:	48 63 d0             	movslq %eax,%rdx
   143cd:	8b 45 f0             	mov    -0x10(%rbp),%eax
   143d0:	48 63 c8             	movslq %eax,%rcx
   143d3:	48 89 d0             	mov    %rdx,%rax
   143d6:	48 c1 e0 03          	shl    $0x3,%rax
   143da:	48 29 d0             	sub    %rdx,%rax
   143dd:	48 01 c0             	add    %rax,%rax
   143e0:	48 69 d1 8c 00 00 00 	imul   $0x8c,%rcx,%rdx
   143e7:	48 01 c2             	add    %rax,%rdx
   143ea:	48 8d 05 6f 2c 00 00 	lea    0x2c6f(%rip),%rax        # 17060 <g_1028>
   143f1:	48 01 d0             	add    %rdx,%rax
   143f4:	0f b6 50 01          	movzbl 0x1(%rax),%edx
   143f8:	c0 ea 04             	shr    $0x4,%dl
   143fb:	0f b6 d2             	movzbl %dl,%edx
   143fe:	0f b7 40 02          	movzwl 0x2(%rax),%eax
   14402:	25 ff 7f 00 00       	and    $0x7fff,%eax
   14407:	48 c1 e0 04          	shl    $0x4,%rax
   1440b:	48 09 d0             	or     %rdx,%rax
   1440e:	48 c1 e0 2d          	shl    $0x2d,%rax
   14412:	48 c1 f8 2d          	sar    $0x2d,%rax
   14416:	48 98                	cltq   
   14418:	8b 55 fc             	mov    -0x4(%rbp),%edx
   1441b:	48 8d 35 9e 46 00 00 	lea    0x469e(%rip),%rsi        # 18ac0 <g_1058+0x1573>
   14422:	48 89 c7             	mov    %rax,%rdi
   14425:	e8 c9 22 ff ff       	callq  66f3 <transparent_crc>
   1442a:	8b 45 f4             	mov    -0xc(%rbp),%eax
   1442d:	48 63 d0             	movslq %eax,%rdx
   14430:	8b 45 f0             	mov    -0x10(%rbp),%eax
   14433:	48 63 c8             	movslq %eax,%rcx
   14436:	48 89 d0             	mov    %rdx,%rax
   14439:	48 c1 e0 03          	shl    $0x3,%rax
   1443d:	48 29 d0             	sub    %rdx,%rax
   14440:	48 01 c0             	add    %rax,%rax
   14443:	48 69 d1 8c 00 00 00 	imul   $0x8c,%rcx,%rdx
   1444a:	48 01 c2             	add    %rax,%rdx
   1444d:	48 8d 05 0c 2c 00 00 	lea    0x2c0c(%rip),%rax        # 17060 <g_1028>
   14454:	48 01 d0             	add    %rdx,%rax
   14457:	0f b6 50 03          	movzbl 0x3(%rax),%edx
   1445b:	c0 ea 07             	shr    $0x7,%dl
   1445e:	0f b6 d2             	movzbl %dl,%edx
   14461:	0f b7 40 04          	movzwl 0x4(%rax),%eax
   14465:	25 ff 01 00 00       	and    $0x1ff,%eax
   1446a:	48 01 c0             	add    %rax,%rax
   1446d:	48 09 d0             	or     %rdx,%rax
   14470:	48 c1 e0 36          	shl    $0x36,%rax
   14474:	48 c1 f8 36          	sar    $0x36,%rax
   14478:	48 0f bf c0          	movswq %ax,%rax
   1447c:	8b 55 fc             	mov    -0x4(%rbp),%edx
   1447f:	48 8d 35 4a 46 00 00 	lea    0x464a(%rip),%rsi        # 18ad0 <g_1058+0x1583>
   14486:	48 89 c7             	mov    %rax,%rdi
   14489:	e8 65 22 ff ff       	callq  66f3 <transparent_crc>
   1448e:	8b 45 f4             	mov    -0xc(%rbp),%eax
   14491:	48 63 d0             	movslq %eax,%rdx
   14494:	8b 45 f0             	mov    -0x10(%rbp),%eax
   14497:	48 63 c8             	movslq %eax,%rcx
   1449a:	48 89 d0             	mov    %rdx,%rax
   1449d:	48 c1 e0 03          	shl    $0x3,%rax
   144a1:	48 29 d0             	sub    %rdx,%rax
   144a4:	48 01 c0             	add    %rax,%rax
   144a7:	48 69 d1 8c 00 00 00 	imul   $0x8c,%rcx,%rdx
   144ae:	48 01 c2             	add    %rax,%rdx
   144b1:	48 8d 05 a8 2b 00 00 	lea    0x2ba8(%rip),%rax        # 17060 <g_1028>
   144b8:	48 01 d0             	add    %rdx,%rax
   144bb:	0f b7 50 04          	movzwl 0x4(%rax),%edx
   144bf:	66 c1 ea 09          	shr    $0x9,%dx
   144c3:	0f b7 d2             	movzwl %dx,%edx
   144c6:	0f b7 40 06          	movzwl 0x6(%rax),%eax
   144ca:	0f b7 c0             	movzwl %ax,%eax
   144cd:	83 e0 3f             	and    $0x3f,%eax
   144d0:	48 c1 e0 07          	shl    $0x7,%rax
   144d4:	48 09 d0             	or     %rdx,%rax
   144d7:	48 c1 e0 33          	shl    $0x33,%rax
   144db:	48 c1 f8 33          	sar    $0x33,%rax
   144df:	48 0f bf c0          	movswq %ax,%rax
   144e3:	8b 55 fc             	mov    -0x4(%rbp),%edx
   144e6:	48 8d 35 f3 45 00 00 	lea    0x45f3(%rip),%rsi        # 18ae0 <g_1058+0x1593>
   144ed:	48 89 c7             	mov    %rax,%rdi
   144f0:	e8 fe 21 ff ff       	callq  66f3 <transparent_crc>
   144f5:	8b 45 f4             	mov    -0xc(%rbp),%eax
   144f8:	48 63 d0             	movslq %eax,%rdx
   144fb:	8b 45 f0             	mov    -0x10(%rbp),%eax
   144fe:	48 63 c8             	movslq %eax,%rcx
   14501:	48 89 d0             	mov    %rdx,%rax
   14504:	48 c1 e0 03          	shl    $0x3,%rax
   14508:	48 29 d0             	sub    %rdx,%rax
   1450b:	48 01 c0             	add    %rax,%rax
   1450e:	48 69 d1 8c 00 00 00 	imul   $0x8c,%rcx,%rdx
   14515:	48 01 c2             	add    %rax,%rdx
   14518:	48 8d 05 41 2b 00 00 	lea    0x2b41(%rip),%rax        # 17060 <g_1028>
   1451f:	48 01 d0             	add    %rdx,%rax
   14522:	0f b7 40 06          	movzwl 0x6(%rax),%eax
   14526:	66 c1 f8 06          	sar    $0x6,%ax
   1452a:	48 0f bf c0          	movswq %ax,%rax
   1452e:	8b 55 fc             	mov    -0x4(%rbp),%edx
   14531:	48 8d 35 b8 45 00 00 	lea    0x45b8(%rip),%rsi        # 18af0 <g_1058+0x15a3>
   14538:	48 89 c7             	mov    %rax,%rdi
   1453b:	e8 b3 21 ff ff       	callq  66f3 <transparent_crc>
   14540:	8b 45 f4             	mov    -0xc(%rbp),%eax
   14543:	48 63 d0             	movslq %eax,%rdx
   14546:	8b 45 f0             	mov    -0x10(%rbp),%eax
   14549:	48 63 c8             	movslq %eax,%rcx
   1454c:	48 89 d0             	mov    %rdx,%rax
   1454f:	48 c1 e0 03          	shl    $0x3,%rax
   14553:	48 29 d0             	sub    %rdx,%rax
   14556:	48 01 c0             	add    %rax,%rax
   14559:	48 69 d1 8c 00 00 00 	imul   $0x8c,%rcx,%rdx
   14560:	48 01 c2             	add    %rax,%rdx
   14563:	48 8d 05 f6 2a 00 00 	lea    0x2af6(%rip),%rax        # 17060 <g_1028>
   1456a:	48 01 d0             	add    %rdx,%rax
   1456d:	0f b7 50 08          	movzwl 0x8(%rax),%edx
   14571:	0f b7 d2             	movzwl %dx,%edx
   14574:	0f b7 40 0a          	movzwl 0xa(%rax),%eax
   14578:	0f b7 c0             	movzwl %ax,%eax
   1457b:	25 ff 07 00 00       	and    $0x7ff,%eax
   14580:	48 c1 e0 10          	shl    $0x10,%rax
   14584:	48 09 d0             	or     %rdx,%rax
   14587:	89 c1                	mov    %eax,%ecx
   14589:	8b 45 fc             	mov    -0x4(%rbp),%eax
   1458c:	89 c2                	mov    %eax,%edx
   1458e:	48 8d 35 6b 45 00 00 	lea    0x456b(%rip),%rsi        # 18b00 <g_1058+0x15b3>
   14595:	48 89 cf             	mov    %rcx,%rdi
   14598:	e8 56 21 ff ff       	callq  66f3 <transparent_crc>
   1459d:	8b 45 f4             	mov    -0xc(%rbp),%eax
   145a0:	48 63 d0             	movslq %eax,%rdx
   145a3:	8b 45 f0             	mov    -0x10(%rbp),%eax
   145a6:	48 63 c8             	movslq %eax,%rcx
   145a9:	48 89 d0             	mov    %rdx,%rax
   145ac:	48 c1 e0 03          	shl    $0x3,%rax
   145b0:	48 29 d0             	sub    %rdx,%rax
   145b3:	48 01 c0             	add    %rax,%rax
   145b6:	48 69 d1 8c 00 00 00 	imul   $0x8c,%rcx,%rdx
   145bd:	48 01 c2             	add    %rax,%rdx
   145c0:	48 8d 05 99 2a 00 00 	lea    0x2a99(%rip),%rax        # 17060 <g_1028>
   145c7:	48 01 d0             	add    %rdx,%rax
   145ca:	0f b6 50 0b          	movzbl 0xb(%rax),%edx
   145ce:	c0 ea 03             	shr    $0x3,%dl
   145d1:	0f b6 d2             	movzbl %dl,%edx
   145d4:	0f b7 40 0c          	movzwl 0xc(%rax),%eax
   145d8:	25 ff 01 00 00       	and    $0x1ff,%eax
   145dd:	48 c1 e0 05          	shl    $0x5,%rax
   145e1:	48 09 d0             	or     %rdx,%rax
   145e4:	0f b7 c0             	movzwl %ax,%eax
   145e7:	8b 55 fc             	mov    -0x4(%rbp),%edx
   145ea:	48 8d 35 1f 45 00 00 	lea    0x451f(%rip),%rsi        # 18b10 <g_1058+0x15c3>
   145f1:	48 89 c7             	mov    %rax,%rdi
   145f4:	e8 fa 20 ff ff       	callq  66f3 <transparent_crc>
   145f9:	83 7d fc 00          	cmpl   $0x0,-0x4(%rbp)
   145fd:	74 19                	je     14618 <main+0xe81>
   145ff:	8b 55 f4             	mov    -0xc(%rbp),%edx
   14602:	8b 45 f0             	mov    -0x10(%rbp),%eax
   14605:	89 c6                	mov    %eax,%esi
   14607:	48 8d 3d 84 42 00 00 	lea    0x4284(%rip),%rdi        # 18892 <g_1058+0x1345>
   1460e:	b8 00 00 00 00       	mov    $0x0,%eax
   14613:	e8 68 0a ff ff       	callq  5080 <printf@plt>
   14618:	83 45 f4 01          	addl   $0x1,-0xc(%rbp)
   1461c:	83 7d f4 09          	cmpl   $0x9,-0xc(%rbp)
   14620:	0f 8e 58 fd ff ff    	jle    1437e <main+0xbe7>
   14626:	83 45 f0 01          	addl   $0x1,-0x10(%rbp)
   1462a:	83 7d f0 08          	cmpl   $0x8,-0x10(%rbp)
   1462e:	0f 8e 3e fd ff ff    	jle    14372 <main+0xbdb>
   14634:	8b 05 f6 7f 00 00    	mov    0x7ff6(%rip),%eax        # 1c630 <g_1048>
   1463a:	48 98                	cltq   
   1463c:	8b 55 fc             	mov    -0x4(%rbp),%edx
   1463f:	48 8d 35 da 44 00 00 	lea    0x44da(%rip),%rsi        # 18b20 <g_1058+0x15d3>
   14646:	48 89 c7             	mov    %rax,%rdi
   14649:	e8 a5 20 ff ff       	callq  66f3 <transparent_crc>
   1464e:	b8 00 00 00 00       	mov    $0x0,%eax
   14653:	0f b6 c0             	movzbl %al,%eax
   14656:	8b 55 fc             	mov    -0x4(%rbp),%edx
   14659:	48 8d 35 c7 44 00 00 	lea    0x44c7(%rip),%rsi        # 18b27 <g_1058+0x15da>
   14660:	48 89 c7             	mov    %rax,%rdi
   14663:	e8 8b 20 ff ff       	callq  66f3 <transparent_crc>
   14668:	b8 0a 00 00 00       	mov    $0xa,%eax
   1466d:	0f b6 c0             	movzbl %al,%eax
   14670:	8b 55 fc             	mov    -0x4(%rbp),%edx
   14673:	48 8d 35 b4 44 00 00 	lea    0x44b4(%rip),%rsi        # 18b2e <g_1058+0x15e1>
   1467a:	48 89 c7             	mov    %rax,%rdi
   1467d:	e8 71 20 ff ff       	callq  66f3 <transparent_crc>
   14682:	8b 05 ac 7f 00 00    	mov    0x7fac(%rip),%eax        # 1c634 <g_1072>
   14688:	48 98                	cltq   
   1468a:	8b 55 fc             	mov    -0x4(%rbp),%edx
   1468d:	48 8d 35 a1 44 00 00 	lea    0x44a1(%rip),%rsi        # 18b35 <g_1058+0x15e8>
   14694:	48 89 c7             	mov    %rax,%rdi
   14697:	e8 57 20 ff ff       	callq  66f3 <transparent_crc>
   1469c:	c7 45 f0 00 00 00 00 	movl   $0x0,-0x10(%rbp)
   146a3:	e9 8b 03 00 00       	jmpq   14a33 <main+0x129c>
   146a8:	c7 45 f4 00 00 00 00 	movl   $0x0,-0xc(%rbp)
   146af:	e9 71 03 00 00       	jmpq   14a25 <main+0x128e>
   146b4:	c7 45 f8 00 00 00 00 	movl   $0x0,-0x8(%rbp)
   146bb:	e9 57 03 00 00       	jmpq   14a17 <main+0x1280>
   146c0:	8b 45 f8             	mov    -0x8(%rbp),%eax
   146c3:	48 98                	cltq   
   146c5:	8b 55 f4             	mov    -0xc(%rbp),%edx
   146c8:	48 63 ca             	movslq %edx,%rcx
   146cb:	8b 55 f0             	mov    -0x10(%rbp),%edx
   146ce:	48 63 f2             	movslq %edx,%rsi
   146d1:	48 89 c2             	mov    %rax,%rdx
   146d4:	48 c1 e2 03          	shl    $0x3,%rdx
   146d8:	48 29 c2             	sub    %rax,%rdx
   146db:	48 8d 04 12          	lea    (%rdx,%rdx,1),%rax
   146df:	48 89 c2             	mov    %rax,%rdx
   146e2:	48 89 c8             	mov    %rcx,%rax
   146e5:	48 c1 e0 03          	shl    $0x3,%rax
   146e9:	48 29 c8             	sub    %rcx,%rax
   146ec:	48 c1 e0 02          	shl    $0x2,%rax
   146f0:	48 01 c2             	add    %rax,%rdx
   146f3:	48 69 c6 18 01 00 00 	imul   $0x118,%rsi,%rax
   146fa:	48 01 c2             	add    %rax,%rdx
   146fd:	48 8d 05 3c 7f 00 00 	lea    0x7f3c(%rip),%rax        # 1c640 <g_1161>
   14704:	48 01 d0             	add    %rdx,%rax
   14707:	0f b7 00             	movzwl (%rax),%eax
   1470a:	66 25 ff 0f          	and    $0xfff,%ax
   1470e:	0f b7 c0             	movzwl %ax,%eax
   14711:	8b 55 fc             	mov    -0x4(%rbp),%edx
   14714:	48 8d 35 21 44 00 00 	lea    0x4421(%rip),%rsi        # 18b3c <g_1058+0x15ef>
   1471b:	48 89 c7             	mov    %rax,%rdi
   1471e:	e8 d0 1f ff ff       	callq  66f3 <transparent_crc>
   14723:	8b 45 f8             	mov    -0x8(%rbp),%eax
   14726:	48 98                	cltq   
   14728:	8b 55 f4             	mov    -0xc(%rbp),%edx
   1472b:	48 63 ca             	movslq %edx,%rcx
   1472e:	8b 55 f0             	mov    -0x10(%rbp),%edx
   14731:	48 63 f2             	movslq %edx,%rsi
   14734:	48 89 c2             	mov    %rax,%rdx
   14737:	48 c1 e2 03          	shl    $0x3,%rdx
   1473b:	48 29 c2             	sub    %rax,%rdx
   1473e:	48 8d 04 12          	lea    (%rdx,%rdx,1),%rax
   14742:	48 89 c2             	mov    %rax,%rdx
   14745:	48 89 c8             	mov    %rcx,%rax
   14748:	48 c1 e0 03          	shl    $0x3,%rax
   1474c:	48 29 c8             	sub    %rcx,%rax
   1474f:	48 c1 e0 02          	shl    $0x2,%rax
   14753:	48 01 c2             	add    %rax,%rdx
   14756:	48 69 c6 18 01 00 00 	imul   $0x118,%rsi,%rax
   1475d:	48 01 c2             	add    %rax,%rdx
   14760:	48 8d 05 d9 7e 00 00 	lea    0x7ed9(%rip),%rax        # 1c640 <g_1161>
   14767:	48 01 d0             	add    %rdx,%rax
   1476a:	0f b6 50 01          	movzbl 0x1(%rax),%edx
   1476e:	c0 ea 04             	shr    $0x4,%dl
   14771:	0f b6 d2             	movzbl %dl,%edx
   14774:	0f b7 40 02          	movzwl 0x2(%rax),%eax
   14778:	25 ff 7f 00 00       	and    $0x7fff,%eax
   1477d:	48 c1 e0 04          	shl    $0x4,%rax
   14781:	48 09 d0             	or     %rdx,%rax
   14784:	48 c1 e0 2d          	shl    $0x2d,%rax
   14788:	48 c1 f8 2d          	sar    $0x2d,%rax
   1478c:	48 98                	cltq   
   1478e:	8b 55 fc             	mov    -0x4(%rbp),%edx
   14791:	48 8d 35 b7 43 00 00 	lea    0x43b7(%rip),%rsi        # 18b4f <g_1058+0x1602>
   14798:	48 89 c7             	mov    %rax,%rdi
   1479b:	e8 53 1f ff ff       	callq  66f3 <transparent_crc>
   147a0:	8b 45 f8             	mov    -0x8(%rbp),%eax
   147a3:	48 98                	cltq   
   147a5:	8b 55 f4             	mov    -0xc(%rbp),%edx
   147a8:	48 63 ca             	movslq %edx,%rcx
   147ab:	8b 55 f0             	mov    -0x10(%rbp),%edx
   147ae:	48 63 f2             	movslq %edx,%rsi
   147b1:	48 89 c2             	mov    %rax,%rdx
   147b4:	48 c1 e2 03          	shl    $0x3,%rdx
   147b8:	48 29 c2             	sub    %rax,%rdx
   147bb:	48 8d 04 12          	lea    (%rdx,%rdx,1),%rax
   147bf:	48 89 c2             	mov    %rax,%rdx
   147c2:	48 89 c8             	mov    %rcx,%rax
   147c5:	48 c1 e0 03          	shl    $0x3,%rax
   147c9:	48 29 c8             	sub    %rcx,%rax
   147cc:	48 c1 e0 02          	shl    $0x2,%rax
   147d0:	48 01 c2             	add    %rax,%rdx
   147d3:	48 69 c6 18 01 00 00 	imul   $0x118,%rsi,%rax
   147da:	48 01 c2             	add    %rax,%rdx
   147dd:	48 8d 05 5c 7e 00 00 	lea    0x7e5c(%rip),%rax        # 1c640 <g_1161>
   147e4:	48 01 d0             	add    %rdx,%rax
   147e7:	0f b6 50 03          	movzbl 0x3(%rax),%edx
   147eb:	c0 ea 07             	shr    $0x7,%dl
   147ee:	0f b6 d2             	movzbl %dl,%edx
   147f1:	0f b7 40 04          	movzwl 0x4(%rax),%eax
   147f5:	25 ff 01 00 00       	and    $0x1ff,%eax
   147fa:	48 01 c0             	add    %rax,%rax
   147fd:	48 09 d0             	or     %rdx,%rax
   14800:	48 c1 e0 36          	shl    $0x36,%rax
   14804:	48 c1 f8 36          	sar    $0x36,%rax
   14808:	48 0f bf c0          	movswq %ax,%rax
   1480c:	8b 55 fc             	mov    -0x4(%rbp),%edx
   1480f:	48 8d 35 4c 43 00 00 	lea    0x434c(%rip),%rsi        # 18b62 <g_1058+0x1615>
   14816:	48 89 c7             	mov    %rax,%rdi
   14819:	e8 d5 1e ff ff       	callq  66f3 <transparent_crc>
   1481e:	8b 45 f8             	mov    -0x8(%rbp),%eax
   14821:	48 98                	cltq   
   14823:	8b 55 f4             	mov    -0xc(%rbp),%edx
   14826:	48 63 ca             	movslq %edx,%rcx
   14829:	8b 55 f0             	mov    -0x10(%rbp),%edx
   1482c:	48 63 f2             	movslq %edx,%rsi
   1482f:	48 89 c2             	mov    %rax,%rdx
   14832:	48 c1 e2 03          	shl    $0x3,%rdx
   14836:	48 29 c2             	sub    %rax,%rdx
   14839:	48 8d 04 12          	lea    (%rdx,%rdx,1),%rax
   1483d:	48 89 c2             	mov    %rax,%rdx
   14840:	48 89 c8             	mov    %rcx,%rax
   14843:	48 c1 e0 03          	shl    $0x3,%rax
   14847:	48 29 c8             	sub    %rcx,%rax
   1484a:	48 c1 e0 02          	shl    $0x2,%rax
   1484e:	48 01 c2             	add    %rax,%rdx
   14851:	48 69 c6 18 01 00 00 	imul   $0x118,%rsi,%rax
   14858:	48 01 c2             	add    %rax,%rdx
   1485b:	48 8d 05 de 7d 00 00 	lea    0x7dde(%rip),%rax        # 1c640 <g_1161>
   14862:	48 01 d0             	add    %rdx,%rax
   14865:	0f b7 50 04          	movzwl 0x4(%rax),%edx
   14869:	66 c1 ea 09          	shr    $0x9,%dx
   1486d:	0f b7 d2             	movzwl %dx,%edx
   14870:	0f b7 40 06          	movzwl 0x6(%rax),%eax
   14874:	0f b7 c0             	movzwl %ax,%eax
   14877:	83 e0 3f             	and    $0x3f,%eax
   1487a:	48 c1 e0 07          	shl    $0x7,%rax
   1487e:	48 09 d0             	or     %rdx,%rax
   14881:	48 c1 e0 33          	shl    $0x33,%rax
   14885:	48 c1 f8 33          	sar    $0x33,%rax
   14889:	48 0f bf c0          	movswq %ax,%rax
   1488d:	8b 55 fc             	mov    -0x4(%rbp),%edx
   14890:	48 8d 35 de 42 00 00 	lea    0x42de(%rip),%rsi        # 18b75 <g_1058+0x1628>
   14897:	48 89 c7             	mov    %rax,%rdi
   1489a:	e8 54 1e ff ff       	callq  66f3 <transparent_crc>
   1489f:	8b 45 f8             	mov    -0x8(%rbp),%eax
   148a2:	48 98                	cltq   
   148a4:	8b 55 f4             	mov    -0xc(%rbp),%edx
   148a7:	48 63 ca             	movslq %edx,%rcx
   148aa:	8b 55 f0             	mov    -0x10(%rbp),%edx
   148ad:	48 63 f2             	movslq %edx,%rsi
   148b0:	48 89 c2             	mov    %rax,%rdx
   148b3:	48 c1 e2 03          	shl    $0x3,%rdx
   148b7:	48 29 c2             	sub    %rax,%rdx
   148ba:	48 8d 04 12          	lea    (%rdx,%rdx,1),%rax
   148be:	48 89 c2             	mov    %rax,%rdx
   148c1:	48 89 c8             	mov    %rcx,%rax
   148c4:	48 c1 e0 03          	shl    $0x3,%rax
   148c8:	48 29 c8             	sub    %rcx,%rax
   148cb:	48 c1 e0 02          	shl    $0x2,%rax
   148cf:	48 01 c2             	add    %rax,%rdx
   148d2:	48 69 c6 18 01 00 00 	imul   $0x118,%rsi,%rax
   148d9:	48 01 c2             	add    %rax,%rdx
   148dc:	48 8d 05 5d 7d 00 00 	lea    0x7d5d(%rip),%rax        # 1c640 <g_1161>
   148e3:	48 01 d0             	add    %rdx,%rax
   148e6:	0f b7 40 06          	movzwl 0x6(%rax),%eax
   148ea:	66 c1 f8 06          	sar    $0x6,%ax
   148ee:	48 0f bf c0          	movswq %ax,%rax
   148f2:	8b 55 fc             	mov    -0x4(%rbp),%edx
   148f5:	48 8d 35 8c 42 00 00 	lea    0x428c(%rip),%rsi        # 18b88 <g_1058+0x163b>
   148fc:	48 89 c7             	mov    %rax,%rdi
   148ff:	e8 ef 1d ff ff       	callq  66f3 <transparent_crc>
   14904:	8b 45 f8             	mov    -0x8(%rbp),%eax
   14907:	48 98                	cltq   
   14909:	8b 55 f4             	mov    -0xc(%rbp),%edx
   1490c:	48 63 ca             	movslq %edx,%rcx
   1490f:	8b 55 f0             	mov    -0x10(%rbp),%edx
   14912:	48 63 f2             	movslq %edx,%rsi
   14915:	48 89 c2             	mov    %rax,%rdx
   14918:	48 c1 e2 03          	shl    $0x3,%rdx
   1491c:	48 29 c2             	sub    %rax,%rdx
   1491f:	48 8d 04 12          	lea    (%rdx,%rdx,1),%rax
   14923:	48 89 c2             	mov    %rax,%rdx
   14926:	48 89 c8             	mov    %rcx,%rax
   14929:	48 c1 e0 03          	shl    $0x3,%rax
   1492d:	48 29 c8             	sub    %rcx,%rax
   14930:	48 c1 e0 02          	shl    $0x2,%rax
   14934:	48 01 c2             	add    %rax,%rdx
   14937:	48 69 c6 18 01 00 00 	imul   $0x118,%rsi,%rax
   1493e:	48 01 c2             	add    %rax,%rdx
   14941:	48 8d 05 f8 7c 00 00 	lea    0x7cf8(%rip),%rax        # 1c640 <g_1161>
   14948:	48 01 d0             	add    %rdx,%rax
   1494b:	0f b7 50 08          	movzwl 0x8(%rax),%edx
   1494f:	0f b7 d2             	movzwl %dx,%edx
   14952:	0f b7 40 0a          	movzwl 0xa(%rax),%eax
   14956:	0f b7 c0             	movzwl %ax,%eax
   14959:	25 ff 07 00 00       	and    $0x7ff,%eax
   1495e:	48 c1 e0 10          	shl    $0x10,%rax
   14962:	48 09 d0             	or     %rdx,%rax
   14965:	89 c1                	mov    %eax,%ecx
   14967:	8b 45 fc             	mov    -0x4(%rbp),%eax
   1496a:	89 c2                	mov    %eax,%edx
   1496c:	48 8d 35 28 42 00 00 	lea    0x4228(%rip),%rsi        # 18b9b <g_1058+0x164e>
   14973:	48 89 cf             	mov    %rcx,%rdi
   14976:	e8 78 1d ff ff       	callq  66f3 <transparent_crc>
   1497b:	8b 45 f8             	mov    -0x8(%rbp),%eax
   1497e:	48 98                	cltq   
   14980:	8b 55 f4             	mov    -0xc(%rbp),%edx
   14983:	48 63 ca             	movslq %edx,%rcx
   14986:	8b 55 f0             	mov    -0x10(%rbp),%edx
   14989:	48 63 f2             	movslq %edx,%rsi
   1498c:	48 89 c2             	mov    %rax,%rdx
   1498f:	48 c1 e2 03          	shl    $0x3,%rdx
   14993:	48 29 c2             	sub    %rax,%rdx
   14996:	48 8d 04 12          	lea    (%rdx,%rdx,1),%rax
   1499a:	48 89 c2             	mov    %rax,%rdx
   1499d:	48 89 c8             	mov    %rcx,%rax
   149a0:	48 c1 e0 03          	shl    $0x3,%rax
   149a4:	48 29 c8             	sub    %rcx,%rax
   149a7:	48 c1 e0 02          	shl    $0x2,%rax
   149ab:	48 01 c2             	add    %rax,%rdx
   149ae:	48 69 c6 18 01 00 00 	imul   $0x118,%rsi,%rax
   149b5:	48 01 c2             	add    %rax,%rdx
   149b8:	48 8d 05 81 7c 00 00 	lea    0x7c81(%rip),%rax        # 1c640 <g_1161>
   149bf:	48 01 d0             	add    %rdx,%rax
   149c2:	0f b6 50 0b          	movzbl 0xb(%rax),%edx
   149c6:	c0 ea 03             	shr    $0x3,%dl
   149c9:	0f b6 d2             	movzbl %dl,%edx
   149cc:	0f b7 40 0c          	movzwl 0xc(%rax),%eax
   149d0:	25 ff 01 00 00       	and    $0x1ff,%eax
   149d5:	48 c1 e0 05          	shl    $0x5,%rax
   149d9:	48 09 d0             	or     %rdx,%rax
   149dc:	0f b7 c0             	movzwl %ax,%eax
   149df:	8b 55 fc             	mov    -0x4(%rbp),%edx
   149e2:	48 8d 35 c5 41 00 00 	lea    0x41c5(%rip),%rsi        # 18bae <g_1058+0x1661>
   149e9:	48 89 c7             	mov    %rax,%rdi
   149ec:	e8 02 1d ff ff       	callq  66f3 <transparent_crc>
   149f1:	83 7d fc 00          	cmpl   $0x0,-0x4(%rbp)
   149f5:	74 1c                	je     14a13 <main+0x127c>
   149f7:	8b 4d f8             	mov    -0x8(%rbp),%ecx
   149fa:	8b 55 f4             	mov    -0xc(%rbp),%edx
   149fd:	8b 45 f0             	mov    -0x10(%rbp),%eax
   14a00:	89 c6                	mov    %eax,%esi
   14a02:	48 8d 3d 2a 3f 00 00 	lea    0x3f2a(%rip),%rdi        # 18933 <g_1058+0x13e6>
   14a09:	b8 00 00 00 00       	mov    $0x0,%eax
   14a0e:	e8 6d 06 ff ff       	callq  5080 <printf@plt>
   14a13:	83 45 f8 01          	addl   $0x1,-0x8(%rbp)
   14a17:	83 7d f8 01          	cmpl   $0x1,-0x8(%rbp)
   14a1b:	0f 8e 9f fc ff ff    	jle    146c0 <main+0xf29>
   14a21:	83 45 f4 01          	addl   $0x1,-0xc(%rbp)
   14a25:	83 7d f4 09          	cmpl   $0x9,-0xc(%rbp)
   14a29:	0f 8e 85 fc ff ff    	jle    146b4 <main+0xf1d>
   14a2f:	83 45 f0 01          	addl   $0x1,-0x10(%rbp)
   14a33:	83 7d f0 08          	cmpl   $0x8,-0x10(%rbp)
   14a37:	0f 8e 6b fc ff ff    	jle    146a8 <main+0xf11>
   14a3d:	48 8b 05 d4 85 00 00 	mov    0x85d4(%rip),%rax        # 1d018 <g_1164>
   14a44:	8b 55 fc             	mov    -0x4(%rbp),%edx
   14a47:	48 8d 35 73 41 00 00 	lea    0x4173(%rip),%rsi        # 18bc1 <g_1058+0x1674>
   14a4e:	48 89 c7             	mov    %rax,%rdi
   14a51:	e8 9d 1c ff ff       	callq  66f3 <transparent_crc>
   14a56:	48 8b 05 c3 85 00 00 	mov    0x85c3(%rip),%rax        # 1d020 <g_1199>
   14a5d:	48 89 c1             	mov    %rax,%rcx
   14a60:	8b 45 fc             	mov    -0x4(%rbp),%eax
   14a63:	89 c2                	mov    %eax,%edx
   14a65:	48 8d 35 5c 41 00 00 	lea    0x415c(%rip),%rsi        # 18bc8 <g_1058+0x167b>
   14a6c:	48 89 cf             	mov    %rcx,%rdi
   14a6f:	e8 7f 1c ff ff       	callq  66f3 <transparent_crc>
   14a74:	0f b6 05 ad 85 00 00 	movzbl 0x85ad(%rip),%eax        # 1d028 <g_1301>
   14a7b:	48 0f be c0          	movsbq %al,%rax
   14a7f:	8b 55 fc             	mov    -0x4(%rbp),%edx
   14a82:	48 8d 35 46 41 00 00 	lea    0x4146(%rip),%rsi        # 18bcf <g_1058+0x1682>
   14a89:	48 89 c7             	mov    %rax,%rdi
   14a8c:	e8 62 1c ff ff       	callq  66f3 <transparent_crc>
   14a91:	48 8b 05 98 85 00 00 	mov    0x8598(%rip),%rax        # 1d030 <g_1328>
   14a98:	66 25 ff 0f          	and    $0xfff,%ax
   14a9c:	0f b7 c0             	movzwl %ax,%eax
   14a9f:	8b 55 fc             	mov    -0x4(%rbp),%edx
   14aa2:	48 8d 35 2d 41 00 00 	lea    0x412d(%rip),%rsi        # 18bd6 <g_1058+0x1689>
   14aa9:	48 89 c7             	mov    %rax,%rdi
   14aac:	e8 42 1c ff ff       	callq  66f3 <transparent_crc>
   14ab1:	48 8b 05 78 85 00 00 	mov    0x8578(%rip),%rax        # 1d030 <g_1328>
   14ab8:	01 c0                	add    %eax,%eax
   14aba:	c1 f8 0d             	sar    $0xd,%eax
   14abd:	48 98                	cltq   
   14abf:	8b 55 fc             	mov    -0x4(%rbp),%edx
   14ac2:	48 8d 35 17 41 00 00 	lea    0x4117(%rip),%rsi        # 18be0 <g_1058+0x1693>
   14ac9:	48 89 c7             	mov    %rax,%rdi
   14acc:	e8 22 1c ff ff       	callq  66f3 <transparent_crc>
   14ad1:	48 8b 05 58 85 00 00 	mov    0x8558(%rip),%rax        # 1d030 <g_1328>
   14ad8:	48 c1 e0 17          	shl    $0x17,%rax
   14adc:	48 c1 f8 36          	sar    $0x36,%rax
   14ae0:	48 0f bf c0          	movswq %ax,%rax
   14ae4:	8b 55 fc             	mov    -0x4(%rbp),%edx
   14ae7:	48 8d 35 fc 40 00 00 	lea    0x40fc(%rip),%rsi        # 18bea <g_1058+0x169d>
   14aee:	48 89 c7             	mov    %rax,%rdi
   14af1:	e8 fd 1b ff ff       	callq  66f3 <transparent_crc>
   14af6:	48 8b 05 33 85 00 00 	mov    0x8533(%rip),%rax        # 1d030 <g_1328>
   14afd:	48 c1 e0 0a          	shl    $0xa,%rax
   14b01:	48 c1 f8 33          	sar    $0x33,%rax
   14b05:	48 0f bf c0          	movswq %ax,%rax
   14b09:	8b 55 fc             	mov    -0x4(%rbp),%edx
   14b0c:	48 8d 35 e1 40 00 00 	lea    0x40e1(%rip),%rsi        # 18bf4 <g_1058+0x16a7>
   14b13:	48 89 c7             	mov    %rax,%rdi
   14b16:	e8 d8 1b ff ff       	callq  66f3 <transparent_crc>
   14b1b:	48 8b 05 0e 85 00 00 	mov    0x850e(%rip),%rax        # 1d030 <g_1328>
   14b22:	48 c1 f8 36          	sar    $0x36,%rax
   14b26:	48 0f bf c0          	movswq %ax,%rax
   14b2a:	8b 55 fc             	mov    -0x4(%rbp),%edx
   14b2d:	48 8d 35 ca 40 00 00 	lea    0x40ca(%rip),%rsi        # 18bfe <g_1058+0x16b1>
   14b34:	48 89 c7             	mov    %rax,%rdi
   14b37:	e8 b7 1b ff ff       	callq  66f3 <transparent_crc>
   14b3c:	48 8b 05 f5 84 00 00 	mov    0x84f5(%rip),%rax        # 1d038 <g_1328+0x8>
   14b43:	25 ff ff ff 07       	and    $0x7ffffff,%eax
   14b48:	89 c1                	mov    %eax,%ecx
   14b4a:	8b 45 fc             	mov    -0x4(%rbp),%eax
   14b4d:	89 c2                	mov    %eax,%edx
   14b4f:	48 8d 35 b2 40 00 00 	lea    0x40b2(%rip),%rsi        # 18c08 <g_1058+0x16bb>
   14b56:	48 89 cf             	mov    %rcx,%rdi
   14b59:	e8 95 1b ff ff       	callq  66f3 <transparent_crc>
   14b5e:	48 8b 05 d3 84 00 00 	mov    0x84d3(%rip),%rax        # 1d038 <g_1328+0x8>
   14b65:	48 c1 e8 1b          	shr    $0x1b,%rax
   14b69:	66 25 ff 3f          	and    $0x3fff,%ax
   14b6d:	0f b7 c0             	movzwl %ax,%eax
   14b70:	8b 55 fc             	mov    -0x4(%rbp),%edx
   14b73:	48 8d 35 98 40 00 00 	lea    0x4098(%rip),%rsi        # 18c12 <g_1058+0x16c5>
   14b7a:	48 89 c7             	mov    %rax,%rdi
   14b7d:	e8 71 1b ff ff       	callq  66f3 <transparent_crc>
   14b82:	c7 45 f0 00 00 00 00 	movl   $0x0,-0x10(%rbp)
   14b89:	e9 42 02 00 00       	jmpq   14dd0 <main+0x1639>
   14b8e:	8b 45 f0             	mov    -0x10(%rbp),%eax
   14b91:	48 63 d0             	movslq %eax,%rdx
   14b94:	48 89 d0             	mov    %rdx,%rax
   14b97:	48 c1 e0 03          	shl    $0x3,%rax
   14b9b:	48 29 d0             	sub    %rdx,%rax
   14b9e:	48 01 c0             	add    %rax,%rax
   14ba1:	48 89 c2             	mov    %rax,%rdx
   14ba4:	48 8d 05 95 84 00 00 	lea    0x8495(%rip),%rax        # 1d040 <g_1508>
   14bab:	0f b7 04 02          	movzwl (%rdx,%rax,1),%eax
   14baf:	66 25 ff 0f          	and    $0xfff,%ax
   14bb3:	0f b7 c0             	movzwl %ax,%eax
   14bb6:	8b 55 fc             	mov    -0x4(%rbp),%edx
   14bb9:	48 8d 35 5c 40 00 00 	lea    0x405c(%rip),%rsi        # 18c1c <g_1058+0x16cf>
   14bc0:	48 89 c7             	mov    %rax,%rdi
   14bc3:	e8 2b 1b ff ff       	callq  66f3 <transparent_crc>
   14bc8:	8b 45 f0             	mov    -0x10(%rbp),%eax
   14bcb:	48 63 d0             	movslq %eax,%rdx
   14bce:	48 89 d0             	mov    %rdx,%rax
   14bd1:	48 c1 e0 03          	shl    $0x3,%rax
   14bd5:	48 29 d0             	sub    %rdx,%rax
   14bd8:	48 01 c0             	add    %rax,%rax
   14bdb:	48 89 c2             	mov    %rax,%rdx
   14bde:	48 8d 05 5b 84 00 00 	lea    0x845b(%rip),%rax        # 1d040 <g_1508>
   14be5:	0f b7 0c 02          	movzwl (%rdx,%rax,1),%ecx
   14be9:	66 c1 e9 0c          	shr    $0xc,%cx
   14bed:	0f b7 c9             	movzwl %cx,%ecx
   14bf0:	0f b7 44 02 02       	movzwl 0x2(%rdx,%rax,1),%eax
   14bf5:	0f b7 c0             	movzwl %ax,%eax
   14bf8:	25 ff 7f 00 00       	and    $0x7fff,%eax
   14bfd:	48 c1 e0 04          	shl    $0x4,%rax
   14c01:	48 09 c8             	or     %rcx,%rax
   14c04:	48 c1 e0 2d          	shl    $0x2d,%rax
   14c08:	48 c1 f8 2d          	sar    $0x2d,%rax
   14c0c:	48 98                	cltq   
   14c0e:	8b 55 fc             	mov    -0x4(%rbp),%edx
   14c11:	48 8d 35 11 40 00 00 	lea    0x4011(%rip),%rsi        # 18c29 <g_1058+0x16dc>
   14c18:	48 89 c7             	mov    %rax,%rdi
   14c1b:	e8 d3 1a ff ff       	callq  66f3 <transparent_crc>
   14c20:	8b 45 f0             	mov    -0x10(%rbp),%eax
   14c23:	48 63 d0             	movslq %eax,%rdx
   14c26:	48 89 d0             	mov    %rdx,%rax
   14c29:	48 c1 e0 03          	shl    $0x3,%rax
   14c2d:	48 29 d0             	sub    %rdx,%rax
   14c30:	48 01 c0             	add    %rax,%rax
   14c33:	48 89 c2             	mov    %rax,%rdx
   14c36:	48 8d 05 03 84 00 00 	lea    0x8403(%rip),%rax        # 1d040 <g_1508>
   14c3d:	0f b7 4c 02 02       	movzwl 0x2(%rdx,%rax,1),%ecx
   14c42:	66 c1 e9 0f          	shr    $0xf,%cx
   14c46:	0f b7 c9             	movzwl %cx,%ecx
   14c49:	0f b7 44 02 04       	movzwl 0x4(%rdx,%rax,1),%eax
   14c4e:	0f b7 c0             	movzwl %ax,%eax
   14c51:	25 ff 01 00 00       	and    $0x1ff,%eax
   14c56:	48 01 c0             	add    %rax,%rax
   14c59:	48 09 c8             	or     %rcx,%rax
   14c5c:	48 c1 e0 36          	shl    $0x36,%rax
   14c60:	48 c1 f8 36          	sar    $0x36,%rax
   14c64:	48 0f bf c0          	movswq %ax,%rax
   14c68:	8b 55 fc             	mov    -0x4(%rbp),%edx
   14c6b:	48 8d 35 c4 3f 00 00 	lea    0x3fc4(%rip),%rsi        # 18c36 <g_1058+0x16e9>
   14c72:	48 89 c7             	mov    %rax,%rdi
   14c75:	e8 79 1a ff ff       	callq  66f3 <transparent_crc>
   14c7a:	8b 45 f0             	mov    -0x10(%rbp),%eax
   14c7d:	48 63 d0             	movslq %eax,%rdx
   14c80:	48 89 d0             	mov    %rdx,%rax
   14c83:	48 c1 e0 03          	shl    $0x3,%rax
   14c87:	48 29 d0             	sub    %rdx,%rax
   14c8a:	48 01 c0             	add    %rax,%rax
   14c8d:	48 89 c2             	mov    %rax,%rdx
   14c90:	48 8d 05 a9 83 00 00 	lea    0x83a9(%rip),%rax        # 1d040 <g_1508>
   14c97:	0f b7 4c 02 04       	movzwl 0x4(%rdx,%rax,1),%ecx
   14c9c:	66 c1 e9 09          	shr    $0x9,%cx
   14ca0:	0f b7 c9             	movzwl %cx,%ecx
   14ca3:	0f b7 44 02 06       	movzwl 0x6(%rdx,%rax,1),%eax
   14ca8:	0f b7 c0             	movzwl %ax,%eax
   14cab:	83 e0 3f             	and    $0x3f,%eax
   14cae:	48 c1 e0 07          	shl    $0x7,%rax
   14cb2:	48 09 c8             	or     %rcx,%rax
   14cb5:	48 c1 e0 33          	shl    $0x33,%rax
   14cb9:	48 c1 f8 33          	sar    $0x33,%rax
   14cbd:	48 0f bf c0          	movswq %ax,%rax
   14cc1:	8b 55 fc             	mov    -0x4(%rbp),%edx
   14cc4:	48 8d 35 78 3f 00 00 	lea    0x3f78(%rip),%rsi        # 18c43 <g_1058+0x16f6>
   14ccb:	48 89 c7             	mov    %rax,%rdi
   14cce:	e8 20 1a ff ff       	callq  66f3 <transparent_crc>
   14cd3:	8b 45 f0             	mov    -0x10(%rbp),%eax
   14cd6:	48 63 d0             	movslq %eax,%rdx
   14cd9:	48 89 d0             	mov    %rdx,%rax
   14cdc:	48 c1 e0 03          	shl    $0x3,%rax
   14ce0:	48 29 d0             	sub    %rdx,%rax
   14ce3:	48 01 c0             	add    %rax,%rax
   14ce6:	48 89 c2             	mov    %rax,%rdx
   14ce9:	48 8d 05 50 83 00 00 	lea    0x8350(%rip),%rax        # 1d040 <g_1508>
   14cf0:	0f b7 44 02 06       	movzwl 0x6(%rdx,%rax,1),%eax
   14cf5:	66 c1 f8 06          	sar    $0x6,%ax
   14cf9:	48 0f bf c0          	movswq %ax,%rax
   14cfd:	8b 55 fc             	mov    -0x4(%rbp),%edx
   14d00:	48 8d 35 49 3f 00 00 	lea    0x3f49(%rip),%rsi        # 18c50 <g_1058+0x1703>
   14d07:	48 89 c7             	mov    %rax,%rdi
   14d0a:	e8 e4 19 ff ff       	callq  66f3 <transparent_crc>
   14d0f:	8b 45 f0             	mov    -0x10(%rbp),%eax
   14d12:	48 63 d0             	movslq %eax,%rdx
   14d15:	48 89 d0             	mov    %rdx,%rax
   14d18:	48 c1 e0 03          	shl    $0x3,%rax
   14d1c:	48 29 d0             	sub    %rdx,%rax
   14d1f:	48 01 c0             	add    %rax,%rax
   14d22:	48 89 c2             	mov    %rax,%rdx
   14d25:	48 8d 05 14 83 00 00 	lea    0x8314(%rip),%rax        # 1d040 <g_1508>
   14d2c:	0f b7 4c 02 08       	movzwl 0x8(%rdx,%rax,1),%ecx
   14d31:	0f b7 c9             	movzwl %cx,%ecx
   14d34:	0f b7 44 02 0a       	movzwl 0xa(%rdx,%rax,1),%eax
   14d39:	0f b7 c0             	movzwl %ax,%eax
   14d3c:	25 ff 07 00 00       	and    $0x7ff,%eax
   14d41:	48 c1 e0 10          	shl    $0x10,%rax
   14d45:	48 09 c8             	or     %rcx,%rax
   14d48:	89 c1                	mov    %eax,%ecx
   14d4a:	8b 45 fc             	mov    -0x4(%rbp),%eax
   14d4d:	89 c2                	mov    %eax,%edx
   14d4f:	48 8d 35 07 3f 00 00 	lea    0x3f07(%rip),%rsi        # 18c5d <g_1058+0x1710>
   14d56:	48 89 cf             	mov    %rcx,%rdi
   14d59:	e8 95 19 ff ff       	callq  66f3 <transparent_crc>
   14d5e:	8b 45 f0             	mov    -0x10(%rbp),%eax
   14d61:	48 63 d0             	movslq %eax,%rdx
   14d64:	48 89 d0             	mov    %rdx,%rax
   14d67:	48 c1 e0 03          	shl    $0x3,%rax
   14d6b:	48 29 d0             	sub    %rdx,%rax
   14d6e:	48 01 c0             	add    %rax,%rax
   14d71:	48 89 c2             	mov    %rax,%rdx
   14d74:	48 8d 05 c5 82 00 00 	lea    0x82c5(%rip),%rax        # 1d040 <g_1508>
   14d7b:	0f b7 4c 02 0a       	movzwl 0xa(%rdx,%rax,1),%ecx
   14d80:	66 c1 e9 0b          	shr    $0xb,%cx
   14d84:	0f b7 c9             	movzwl %cx,%ecx
   14d87:	0f b7 44 02 0c       	movzwl 0xc(%rdx,%rax,1),%eax
   14d8c:	0f b7 c0             	movzwl %ax,%eax
   14d8f:	25 ff 01 00 00       	and    $0x1ff,%eax
   14d94:	48 c1 e0 05          	shl    $0x5,%rax
   14d98:	48 09 c8             	or     %rcx,%rax
   14d9b:	0f b7 c0             	movzwl %ax,%eax
   14d9e:	8b 55 fc             	mov    -0x4(%rbp),%edx
   14da1:	48 8d 35 c2 3e 00 00 	lea    0x3ec2(%rip),%rsi        # 18c6a <g_1058+0x171d>
   14da8:	48 89 c7             	mov    %rax,%rdi
   14dab:	e8 43 19 ff ff       	callq  66f3 <transparent_crc>
   14db0:	83 7d fc 00          	cmpl   $0x0,-0x4(%rbp)
   14db4:	74 16                	je     14dcc <main+0x1635>
   14db6:	8b 45 f0             	mov    -0x10(%rbp),%eax
   14db9:	89 c6                	mov    %eax,%esi
   14dbb:	48 8d 3d ad 3a 00 00 	lea    0x3aad(%rip),%rdi        # 1886f <g_1058+0x1322>
   14dc2:	b8 00 00 00 00       	mov    $0x0,%eax
   14dc7:	e8 b4 02 ff ff       	callq  5080 <printf@plt>
   14dcc:	83 45 f0 01          	addl   $0x1,-0x10(%rbp)
   14dd0:	83 7d f0 01          	cmpl   $0x1,-0x10(%rbp)
   14dd4:	0f 8e b4 fd ff ff    	jle    14b8e <main+0x13f7>
   14dda:	c7 45 f0 00 00 00 00 	movl   $0x0,-0x10(%rbp)
   14de1:	e9 f7 02 00 00       	jmpq   150dd <main+0x1946>
   14de6:	c7 45 f4 00 00 00 00 	movl   $0x0,-0xc(%rbp)
   14ded:	e9 dd 02 00 00       	jmpq   150cf <main+0x1938>
   14df2:	8b 45 f4             	mov    -0xc(%rbp),%eax
   14df5:	48 98                	cltq   
   14df7:	8b 55 f0             	mov    -0x10(%rbp),%edx
   14dfa:	48 63 ca             	movslq %edx,%rcx
   14dfd:	48 89 c2             	mov    %rax,%rdx
   14e00:	48 c1 e2 03          	shl    $0x3,%rdx
   14e04:	48 29 c2             	sub    %rax,%rdx
   14e07:	48 8d 04 12          	lea    (%rdx,%rdx,1),%rax
   14e0b:	48 89 c2             	mov    %rax,%rdx
   14e0e:	48 89 c8             	mov    %rcx,%rax
   14e11:	48 c1 e0 06          	shl    $0x6,%rax
   14e15:	48 29 c8             	sub    %rcx,%rax
   14e18:	48 01 c0             	add    %rax,%rax
   14e1b:	48 01 c2             	add    %rax,%rdx
   14e1e:	48 8d 05 3b 82 00 00 	lea    0x823b(%rip),%rax        # 1d060 <g_1516>
   14e25:	48 01 d0             	add    %rdx,%rax
   14e28:	0f b7 00             	movzwl (%rax),%eax
   14e2b:	66 25 ff 0f          	and    $0xfff,%ax
   14e2f:	0f b7 c0             	movzwl %ax,%eax
   14e32:	8b 55 fc             	mov    -0x4(%rbp),%edx
   14e35:	48 8d 35 3b 3e 00 00 	lea    0x3e3b(%rip),%rsi        # 18c77 <g_1058+0x172a>
   14e3c:	48 89 c7             	mov    %rax,%rdi
   14e3f:	e8 af 18 ff ff       	callq  66f3 <transparent_crc>
   14e44:	8b 45 f4             	mov    -0xc(%rbp),%eax
   14e47:	48 98                	cltq   
   14e49:	8b 55 f0             	mov    -0x10(%rbp),%edx
   14e4c:	48 63 ca             	movslq %edx,%rcx
   14e4f:	48 89 c2             	mov    %rax,%rdx
   14e52:	48 c1 e2 03          	shl    $0x3,%rdx
   14e56:	48 29 c2             	sub    %rax,%rdx
   14e59:	48 8d 04 12          	lea    (%rdx,%rdx,1),%rax
   14e5d:	48 89 c2             	mov    %rax,%rdx
   14e60:	48 89 c8             	mov    %rcx,%rax
   14e63:	48 c1 e0 06          	shl    $0x6,%rax
   14e67:	48 29 c8             	sub    %rcx,%rax
   14e6a:	48 01 c0             	add    %rax,%rax
   14e6d:	48 01 c2             	add    %rax,%rdx
   14e70:	48 8d 05 e9 81 00 00 	lea    0x81e9(%rip),%rax        # 1d060 <g_1516>
   14e77:	48 01 d0             	add    %rdx,%rax
   14e7a:	0f b6 50 01          	movzbl 0x1(%rax),%edx
   14e7e:	c0 ea 04             	shr    $0x4,%dl
   14e81:	0f b6 d2             	movzbl %dl,%edx
   14e84:	0f b7 40 02          	movzwl 0x2(%rax),%eax
   14e88:	25 ff 7f 00 00       	and    $0x7fff,%eax
   14e8d:	48 c1 e0 04          	shl    $0x4,%rax
   14e91:	48 09 d0             	or     %rdx,%rax
   14e94:	48 c1 e0 2d          	shl    $0x2d,%rax
   14e98:	48 c1 f8 2d          	sar    $0x2d,%rax
   14e9c:	48 98                	cltq   
   14e9e:	8b 55 fc             	mov    -0x4(%rbp),%edx
   14ea1:	48 8d 35 df 3d 00 00 	lea    0x3ddf(%rip),%rsi        # 18c87 <g_1058+0x173a>
   14ea8:	48 89 c7             	mov    %rax,%rdi
   14eab:	e8 43 18 ff ff       	callq  66f3 <transparent_crc>
   14eb0:	8b 45 f4             	mov    -0xc(%rbp),%eax
   14eb3:	48 98                	cltq   
   14eb5:	8b 55 f0             	mov    -0x10(%rbp),%edx
   14eb8:	48 63 ca             	movslq %edx,%rcx
   14ebb:	48 89 c2             	mov    %rax,%rdx
   14ebe:	48 c1 e2 03          	shl    $0x3,%rdx
   14ec2:	48 29 c2             	sub    %rax,%rdx
   14ec5:	48 8d 04 12          	lea    (%rdx,%rdx,1),%rax
   14ec9:	48 89 c2             	mov    %rax,%rdx
   14ecc:	48 89 c8             	mov    %rcx,%rax
   14ecf:	48 c1 e0 06          	shl    $0x6,%rax
   14ed3:	48 29 c8             	sub    %rcx,%rax
   14ed6:	48 01 c0             	add    %rax,%rax
   14ed9:	48 01 c2             	add    %rax,%rdx
   14edc:	48 8d 05 7d 81 00 00 	lea    0x817d(%rip),%rax        # 1d060 <g_1516>
   14ee3:	48 01 d0             	add    %rdx,%rax
   14ee6:	0f b6 50 03          	movzbl 0x3(%rax),%edx
   14eea:	c0 ea 07             	shr    $0x7,%dl
   14eed:	0f b6 d2             	movzbl %dl,%edx
   14ef0:	0f b7 40 04          	movzwl 0x4(%rax),%eax
   14ef4:	25 ff 01 00 00       	and    $0x1ff,%eax
   14ef9:	48 01 c0             	add    %rax,%rax
   14efc:	48 09 d0             	or     %rdx,%rax
   14eff:	48 c1 e0 36          	shl    $0x36,%rax
   14f03:	48 c1 f8 36          	sar    $0x36,%rax
   14f07:	48 0f bf c0          	movswq %ax,%rax
   14f0b:	8b 55 fc             	mov    -0x4(%rbp),%edx
   14f0e:	48 8d 35 82 3d 00 00 	lea    0x3d82(%rip),%rsi        # 18c97 <g_1058+0x174a>
   14f15:	48 89 c7             	mov    %rax,%rdi
   14f18:	e8 d6 17 ff ff       	callq  66f3 <transparent_crc>
   14f1d:	8b 45 f4             	mov    -0xc(%rbp),%eax
   14f20:	48 98                	cltq   
   14f22:	8b 55 f0             	mov    -0x10(%rbp),%edx
   14f25:	48 63 ca             	movslq %edx,%rcx
   14f28:	48 89 c2             	mov    %rax,%rdx
   14f2b:	48 c1 e2 03          	shl    $0x3,%rdx
   14f2f:	48 29 c2             	sub    %rax,%rdx
   14f32:	48 8d 04 12          	lea    (%rdx,%rdx,1),%rax
   14f36:	48 89 c2             	mov    %rax,%rdx
   14f39:	48 89 c8             	mov    %rcx,%rax
   14f3c:	48 c1 e0 06          	shl    $0x6,%rax
   14f40:	48 29 c8             	sub    %rcx,%rax
   14f43:	48 01 c0             	add    %rax,%rax
   14f46:	48 01 c2             	add    %rax,%rdx
   14f49:	48 8d 05 10 81 00 00 	lea    0x8110(%rip),%rax        # 1d060 <g_1516>
   14f50:	48 01 d0             	add    %rdx,%rax
   14f53:	0f b7 50 04          	movzwl 0x4(%rax),%edx
   14f57:	66 c1 ea 09          	shr    $0x9,%dx
   14f5b:	0f b7 d2             	movzwl %dx,%edx
   14f5e:	0f b7 40 06          	movzwl 0x6(%rax),%eax
   14f62:	0f b7 c0             	movzwl %ax,%eax
   14f65:	83 e0 3f             	and    $0x3f,%eax
   14f68:	48 c1 e0 07          	shl    $0x7,%rax
   14f6c:	48 09 d0             	or     %rdx,%rax
   14f6f:	48 c1 e0 33          	shl    $0x33,%rax
   14f73:	48 c1 f8 33          	sar    $0x33,%rax
   14f77:	48 0f bf c0          	movswq %ax,%rax
   14f7b:	8b 55 fc             	mov    -0x4(%rbp),%edx
   14f7e:	48 8d 35 22 3d 00 00 	lea    0x3d22(%rip),%rsi        # 18ca7 <g_1058+0x175a>
   14f85:	48 89 c7             	mov    %rax,%rdi
   14f88:	e8 66 17 ff ff       	callq  66f3 <transparent_crc>
   14f8d:	8b 45 f4             	mov    -0xc(%rbp),%eax
   14f90:	48 98                	cltq   
   14f92:	8b 55 f0             	mov    -0x10(%rbp),%edx
   14f95:	48 63 ca             	movslq %edx,%rcx
   14f98:	48 89 c2             	mov    %rax,%rdx
   14f9b:	48 c1 e2 03          	shl    $0x3,%rdx
   14f9f:	48 29 c2             	sub    %rax,%rdx
   14fa2:	48 8d 04 12          	lea    (%rdx,%rdx,1),%rax
   14fa6:	48 89 c2             	mov    %rax,%rdx
   14fa9:	48 89 c8             	mov    %rcx,%rax
   14fac:	48 c1 e0 06          	shl    $0x6,%rax
   14fb0:	48 29 c8             	sub    %rcx,%rax
   14fb3:	48 01 c0             	add    %rax,%rax
   14fb6:	48 01 c2             	add    %rax,%rdx
   14fb9:	48 8d 05 a0 80 00 00 	lea    0x80a0(%rip),%rax        # 1d060 <g_1516>
   14fc0:	48 01 d0             	add    %rdx,%rax
   14fc3:	0f b7 40 06          	movzwl 0x6(%rax),%eax
   14fc7:	66 c1 f8 06          	sar    $0x6,%ax
   14fcb:	48 0f bf c0          	movswq %ax,%rax
   14fcf:	8b 55 fc             	mov    -0x4(%rbp),%edx
   14fd2:	48 8d 35 de 3c 00 00 	lea    0x3cde(%rip),%rsi        # 18cb7 <g_1058+0x176a>
   14fd9:	48 89 c7             	mov    %rax,%rdi
   14fdc:	e8 12 17 ff ff       	callq  66f3 <transparent_crc>
   14fe1:	8b 45 f4             	mov    -0xc(%rbp),%eax
   14fe4:	48 98                	cltq   
   14fe6:	8b 55 f0             	mov    -0x10(%rbp),%edx
   14fe9:	48 63 ca             	movslq %edx,%rcx
   14fec:	48 89 c2             	mov    %rax,%rdx
   14fef:	48 c1 e2 03          	shl    $0x3,%rdx
   14ff3:	48 29 c2             	sub    %rax,%rdx
   14ff6:	48 8d 04 12          	lea    (%rdx,%rdx,1),%rax
   14ffa:	48 89 c2             	mov    %rax,%rdx
   14ffd:	48 89 c8             	mov    %rcx,%rax
   15000:	48 c1 e0 06          	shl    $0x6,%rax
   15004:	48 29 c8             	sub    %rcx,%rax
   15007:	48 01 c0             	add    %rax,%rax
   1500a:	48 01 c2             	add    %rax,%rdx
   1500d:	48 8d 05 4c 80 00 00 	lea    0x804c(%rip),%rax        # 1d060 <g_1516>
   15014:	48 01 d0             	add    %rdx,%rax
   15017:	0f b7 50 08          	movzwl 0x8(%rax),%edx
   1501b:	0f b7 d2             	movzwl %dx,%edx
   1501e:	0f b7 40 0a          	movzwl 0xa(%rax),%eax
   15022:	0f b7 c0             	movzwl %ax,%eax
   15025:	25 ff 07 00 00       	and    $0x7ff,%eax
   1502a:	48 c1 e0 10          	shl    $0x10,%rax
   1502e:	48 09 d0             	or     %rdx,%rax
   15031:	89 c1                	mov    %eax,%ecx
   15033:	8b 45 fc             	mov    -0x4(%rbp),%eax
   15036:	89 c2                	mov    %eax,%edx
   15038:	48 8d 35 88 3c 00 00 	lea    0x3c88(%rip),%rsi        # 18cc7 <g_1058+0x177a>
   1503f:	48 89 cf             	mov    %rcx,%rdi
   15042:	e8 ac 16 ff ff       	callq  66f3 <transparent_crc>
   15047:	8b 45 f4             	mov    -0xc(%rbp),%eax
   1504a:	48 98                	cltq   
   1504c:	8b 55 f0             	mov    -0x10(%rbp),%edx
   1504f:	48 63 ca             	movslq %edx,%rcx
   15052:	48 89 c2             	mov    %rax,%rdx
   15055:	48 c1 e2 03          	shl    $0x3,%rdx
   15059:	48 29 c2             	sub    %rax,%rdx
   1505c:	48 8d 04 12          	lea    (%rdx,%rdx,1),%rax
   15060:	48 89 c2             	mov    %rax,%rdx
   15063:	48 89 c8             	mov    %rcx,%rax
   15066:	48 c1 e0 06          	shl    $0x6,%rax
   1506a:	48 29 c8             	sub    %rcx,%rax
   1506d:	48 01 c0             	add    %rax,%rax
   15070:	48 01 c2             	add    %rax,%rdx
   15073:	48 8d 05 e6 7f 00 00 	lea    0x7fe6(%rip),%rax        # 1d060 <g_1516>
   1507a:	48 01 d0             	add    %rdx,%rax
   1507d:	0f b6 50 0b          	movzbl 0xb(%rax),%edx
   15081:	c0 ea 03             	shr    $0x3,%dl
   15084:	0f b6 d2             	movzbl %dl,%edx
   15087:	0f b7 40 0c          	movzwl 0xc(%rax),%eax
   1508b:	25 ff 01 00 00       	and    $0x1ff,%eax
   15090:	48 c1 e0 05          	shl    $0x5,%rax
   15094:	48 09 d0             	or     %rdx,%rax
   15097:	0f b7 c0             	movzwl %ax,%eax
   1509a:	8b 55 fc             	mov    -0x4(%rbp),%edx
   1509d:	48 8d 35 33 3c 00 00 	lea    0x3c33(%rip),%rsi        # 18cd7 <g_1058+0x178a>
   150a4:	48 89 c7             	mov    %rax,%rdi
   150a7:	e8 47 16 ff ff       	callq  66f3 <transparent_crc>
   150ac:	83 7d fc 00          	cmpl   $0x0,-0x4(%rbp)
   150b0:	74 19                	je     150cb <main+0x1934>
   150b2:	8b 55 f4             	mov    -0xc(%rbp),%edx
   150b5:	8b 45 f0             	mov    -0x10(%rbp),%eax
   150b8:	89 c6                	mov    %eax,%esi
   150ba:	48 8d 3d d1 37 00 00 	lea    0x37d1(%rip),%rdi        # 18892 <g_1058+0x1345>
   150c1:	b8 00 00 00 00       	mov    $0x0,%eax
   150c6:	e8 b5 ff fe ff       	callq  5080 <printf@plt>
   150cb:	83 45 f4 01          	addl   $0x1,-0xc(%rbp)
   150cf:	83 7d f4 08          	cmpl   $0x8,-0xc(%rbp)
   150d3:	0f 8e 19 fd ff ff    	jle    14df2 <main+0x165b>
   150d9:	83 45 f0 01          	addl   $0x1,-0x10(%rbp)
   150dd:	83 7d f0 09          	cmpl   $0x9,-0x10(%rbp)
   150e1:	0f 8e ff fc ff ff    	jle    14de6 <main+0x164f>
   150e7:	c7 45 f0 00 00 00 00 	movl   $0x0,-0x10(%rbp)
   150ee:	e9 fe 02 00 00       	jmpq   153f1 <main+0x1c5a>
   150f3:	c7 45 f4 00 00 00 00 	movl   $0x0,-0xc(%rbp)
   150fa:	e9 e4 02 00 00       	jmpq   153e3 <main+0x1c4c>
   150ff:	8b 45 f4             	mov    -0xc(%rbp),%eax
   15102:	48 98                	cltq   
   15104:	8b 55 f0             	mov    -0x10(%rbp),%edx
   15107:	48 63 ca             	movslq %edx,%rcx
   1510a:	48 89 c2             	mov    %rax,%rdx
   1510d:	48 c1 e2 03          	shl    $0x3,%rdx
   15111:	48 29 c2             	sub    %rax,%rdx
   15114:	48 8d 04 12          	lea    (%rdx,%rdx,1),%rax
   15118:	48 89 c2             	mov    %rax,%rdx
   1511b:	48 89 c8             	mov    %rcx,%rax
   1511e:	48 c1 e0 03          	shl    $0x3,%rax
   15122:	48 29 c8             	sub    %rcx,%rax
   15125:	48 c1 e0 04          	shl    $0x4,%rax
   15129:	48 01 c2             	add    %rax,%rdx
   1512c:	48 8d 05 2d 84 00 00 	lea    0x842d(%rip),%rax        # 1d560 <g_1590>
   15133:	48 01 d0             	add    %rdx,%rax
   15136:	0f b7 00             	movzwl (%rax),%eax
   15139:	66 25 ff 0f          	and    $0xfff,%ax
   1513d:	0f b7 c0             	movzwl %ax,%eax
   15140:	8b 55 fc             	mov    -0x4(%rbp),%edx
   15143:	48 8d 35 9d 3b 00 00 	lea    0x3b9d(%rip),%rsi        # 18ce7 <g_1058+0x179a>
   1514a:	48 89 c7             	mov    %rax,%rdi
   1514d:	e8 a1 15 ff ff       	callq  66f3 <transparent_crc>
   15152:	8b 45 f4             	mov    -0xc(%rbp),%eax
   15155:	48 98                	cltq   
   15157:	8b 55 f0             	mov    -0x10(%rbp),%edx
   1515a:	48 63 ca             	movslq %edx,%rcx
   1515d:	48 89 c2             	mov    %rax,%rdx
   15160:	48 c1 e2 03          	shl    $0x3,%rdx
   15164:	48 29 c2             	sub    %rax,%rdx
   15167:	48 8d 04 12          	lea    (%rdx,%rdx,1),%rax
   1516b:	48 89 c2             	mov    %rax,%rdx
   1516e:	48 89 c8             	mov    %rcx,%rax
   15171:	48 c1 e0 03          	shl    $0x3,%rax
   15175:	48 29 c8             	sub    %rcx,%rax
   15178:	48 c1 e0 04          	shl    $0x4,%rax
   1517c:	48 01 c2             	add    %rax,%rdx
   1517f:	48 8d 05 da 83 00 00 	lea    0x83da(%rip),%rax        # 1d560 <g_1590>
   15186:	48 01 d0             	add    %rdx,%rax
   15189:	0f b6 50 01          	movzbl 0x1(%rax),%edx
   1518d:	c0 ea 04             	shr    $0x4,%dl
   15190:	0f b6 d2             	movzbl %dl,%edx
   15193:	0f b7 40 02          	movzwl 0x2(%rax),%eax
   15197:	25 ff 7f 00 00       	and    $0x7fff,%eax
   1519c:	48 c1 e0 04          	shl    $0x4,%rax
   151a0:	48 09 d0             	or     %rdx,%rax
   151a3:	48 c1 e0 2d          	shl    $0x2d,%rax
   151a7:	48 c1 f8 2d          	sar    $0x2d,%rax
   151ab:	48 98                	cltq   
   151ad:	8b 55 fc             	mov    -0x4(%rbp),%edx
   151b0:	48 8d 35 40 3b 00 00 	lea    0x3b40(%rip),%rsi        # 18cf7 <g_1058+0x17aa>
   151b7:	48 89 c7             	mov    %rax,%rdi
   151ba:	e8 34 15 ff ff       	callq  66f3 <transparent_crc>
   151bf:	8b 45 f4             	mov    -0xc(%rbp),%eax
   151c2:	48 98                	cltq   
   151c4:	8b 55 f0             	mov    -0x10(%rbp),%edx
   151c7:	48 63 ca             	movslq %edx,%rcx
   151ca:	48 89 c2             	mov    %rax,%rdx
   151cd:	48 c1 e2 03          	shl    $0x3,%rdx
   151d1:	48 29 c2             	sub    %rax,%rdx
   151d4:	48 8d 04 12          	lea    (%rdx,%rdx,1),%rax
   151d8:	48 89 c2             	mov    %rax,%rdx
   151db:	48 89 c8             	mov    %rcx,%rax
   151de:	48 c1 e0 03          	shl    $0x3,%rax
   151e2:	48 29 c8             	sub    %rcx,%rax
   151e5:	48 c1 e0 04          	shl    $0x4,%rax
   151e9:	48 01 c2             	add    %rax,%rdx
   151ec:	48 8d 05 6d 83 00 00 	lea    0x836d(%rip),%rax        # 1d560 <g_1590>
   151f3:	48 01 d0             	add    %rdx,%rax
   151f6:	0f b6 50 03          	movzbl 0x3(%rax),%edx
   151fa:	c0 ea 07             	shr    $0x7,%dl
   151fd:	0f b6 d2             	movzbl %dl,%edx
   15200:	0f b7 40 04          	movzwl 0x4(%rax),%eax
   15204:	25 ff 01 00 00       	and    $0x1ff,%eax
   15209:	48 01 c0             	add    %rax,%rax
   1520c:	48 09 d0             	or     %rdx,%rax
   1520f:	48 c1 e0 36          	shl    $0x36,%rax
   15213:	48 c1 f8 36          	sar    $0x36,%rax
   15217:	48 0f bf c0          	movswq %ax,%rax
   1521b:	8b 55 fc             	mov    -0x4(%rbp),%edx
   1521e:	48 8d 35 e2 3a 00 00 	lea    0x3ae2(%rip),%rsi        # 18d07 <g_1058+0x17ba>
   15225:	48 89 c7             	mov    %rax,%rdi
   15228:	e8 c6 14 ff ff       	callq  66f3 <transparent_crc>
   1522d:	8b 45 f4             	mov    -0xc(%rbp),%eax
   15230:	48 98                	cltq   
   15232:	8b 55 f0             	mov    -0x10(%rbp),%edx
   15235:	48 63 ca             	movslq %edx,%rcx
   15238:	48 89 c2             	mov    %rax,%rdx
   1523b:	48 c1 e2 03          	shl    $0x3,%rdx
   1523f:	48 29 c2             	sub    %rax,%rdx
   15242:	48 8d 04 12          	lea    (%rdx,%rdx,1),%rax
   15246:	48 89 c2             	mov    %rax,%rdx
   15249:	48 89 c8             	mov    %rcx,%rax
   1524c:	48 c1 e0 03          	shl    $0x3,%rax
   15250:	48 29 c8             	sub    %rcx,%rax
   15253:	48 c1 e0 04          	shl    $0x4,%rax
   15257:	48 01 c2             	add    %rax,%rdx
   1525a:	48 8d 05 ff 82 00 00 	lea    0x82ff(%rip),%rax        # 1d560 <g_1590>
   15261:	48 01 d0             	add    %rdx,%rax
   15264:	0f b7 50 04          	movzwl 0x4(%rax),%edx
   15268:	66 c1 ea 09          	shr    $0x9,%dx
   1526c:	0f b7 d2             	movzwl %dx,%edx
   1526f:	0f b7 40 06          	movzwl 0x6(%rax),%eax
   15273:	0f b7 c0             	movzwl %ax,%eax
   15276:	83 e0 3f             	and    $0x3f,%eax
   15279:	48 c1 e0 07          	shl    $0x7,%rax
   1527d:	48 09 d0             	or     %rdx,%rax
   15280:	48 c1 e0 33          	shl    $0x33,%rax
   15284:	48 c1 f8 33          	sar    $0x33,%rax
   15288:	48 0f bf c0          	movswq %ax,%rax
   1528c:	8b 55 fc             	mov    -0x4(%rbp),%edx
   1528f:	48 8d 35 81 3a 00 00 	lea    0x3a81(%rip),%rsi        # 18d17 <g_1058+0x17ca>
   15296:	48 89 c7             	mov    %rax,%rdi
   15299:	e8 55 14 ff ff       	callq  66f3 <transparent_crc>
   1529e:	8b 45 f4             	mov    -0xc(%rbp),%eax
   152a1:	48 98                	cltq   
   152a3:	8b 55 f0             	mov    -0x10(%rbp),%edx
   152a6:	48 63 ca             	movslq %edx,%rcx
   152a9:	48 89 c2             	mov    %rax,%rdx
   152ac:	48 c1 e2 03          	shl    $0x3,%rdx
   152b0:	48 29 c2             	sub    %rax,%rdx
   152b3:	48 8d 04 12          	lea    (%rdx,%rdx,1),%rax
   152b7:	48 89 c2             	mov    %rax,%rdx
   152ba:	48 89 c8             	mov    %rcx,%rax
   152bd:	48 c1 e0 03          	shl    $0x3,%rax
   152c1:	48 29 c8             	sub    %rcx,%rax
   152c4:	48 c1 e0 04          	shl    $0x4,%rax
   152c8:	48 01 c2             	add    %rax,%rdx
   152cb:	48 8d 05 8e 82 00 00 	lea    0x828e(%rip),%rax        # 1d560 <g_1590>
   152d2:	48 01 d0             	add    %rdx,%rax
   152d5:	0f b7 40 06          	movzwl 0x6(%rax),%eax
   152d9:	66 c1 f8 06          	sar    $0x6,%ax
   152dd:	48 0f bf c0          	movswq %ax,%rax
   152e1:	8b 55 fc             	mov    -0x4(%rbp),%edx
   152e4:	48 8d 35 3c 3a 00 00 	lea    0x3a3c(%rip),%rsi        # 18d27 <g_1058+0x17da>
   152eb:	48 89 c7             	mov    %rax,%rdi
   152ee:	e8 00 14 ff ff       	callq  66f3 <transparent_crc>
   152f3:	8b 45 f4             	mov    -0xc(%rbp),%eax
   152f6:	48 98                	cltq   
   152f8:	8b 55 f0             	mov    -0x10(%rbp),%edx
   152fb:	48 63 ca             	movslq %edx,%rcx
   152fe:	48 89 c2             	mov    %rax,%rdx
   15301:	48 c1 e2 03          	shl    $0x3,%rdx
   15305:	48 29 c2             	sub    %rax,%rdx
   15308:	48 8d 04 12          	lea    (%rdx,%rdx,1),%rax
   1530c:	48 89 c2             	mov    %rax,%rdx
   1530f:	48 89 c8             	mov    %rcx,%rax
   15312:	48 c1 e0 03          	shl    $0x3,%rax
   15316:	48 29 c8             	sub    %rcx,%rax
   15319:	48 c1 e0 04          	shl    $0x4,%rax
   1531d:	48 01 c2             	add    %rax,%rdx
   15320:	48 8d 05 39 82 00 00 	lea    0x8239(%rip),%rax        # 1d560 <g_1590>
   15327:	48 01 d0             	add    %rdx,%rax
   1532a:	0f b7 50 08          	movzwl 0x8(%rax),%edx
   1532e:	0f b7 d2             	movzwl %dx,%edx
   15331:	0f b7 40 0a          	movzwl 0xa(%rax),%eax
   15335:	0f b7 c0             	movzwl %ax,%eax
   15338:	25 ff 07 00 00       	and    $0x7ff,%eax
   1533d:	48 c1 e0 10          	shl    $0x10,%rax
   15341:	48 09 d0             	or     %rdx,%rax
   15344:	89 c1                	mov    %eax,%ecx
   15346:	8b 45 fc             	mov    -0x4(%rbp),%eax
   15349:	89 c2                	mov    %eax,%edx
   1534b:	48 8d 35 e5 39 00 00 	lea    0x39e5(%rip),%rsi        # 18d37 <g_1058+0x17ea>
   15352:	48 89 cf             	mov    %rcx,%rdi
   15355:	e8 99 13 ff ff       	callq  66f3 <transparent_crc>
   1535a:	8b 45 f4             	mov    -0xc(%rbp),%eax
   1535d:	48 98                	cltq   
   1535f:	8b 55 f0             	mov    -0x10(%rbp),%edx
   15362:	48 63 ca             	movslq %edx,%rcx
   15365:	48 89 c2             	mov    %rax,%rdx
   15368:	48 c1 e2 03          	shl    $0x3,%rdx
   1536c:	48 29 c2             	sub    %rax,%rdx
   1536f:	48 8d 04 12          	lea    (%rdx,%rdx,1),%rax
   15373:	48 89 c2             	mov    %rax,%rdx
   15376:	48 89 c8             	mov    %rcx,%rax
   15379:	48 c1 e0 03          	shl    $0x3,%rax
   1537d:	48 29 c8             	sub    %rcx,%rax
   15380:	48 c1 e0 04          	shl    $0x4,%rax
   15384:	48 01 c2             	add    %rax,%rdx
   15387:	48 8d 05 d2 81 00 00 	lea    0x81d2(%rip),%rax        # 1d560 <g_1590>
   1538e:	48 01 d0             	add    %rdx,%rax
   15391:	0f b6 50 0b          	movzbl 0xb(%rax),%edx
   15395:	c0 ea 03             	shr    $0x3,%dl
   15398:	0f b6 d2             	movzbl %dl,%edx
   1539b:	0f b7 40 0c          	movzwl 0xc(%rax),%eax
   1539f:	25 ff 01 00 00       	and    $0x1ff,%eax
   153a4:	48 c1 e0 05          	shl    $0x5,%rax
   153a8:	48 09 d0             	or     %rdx,%rax
   153ab:	0f b7 c0             	movzwl %ax,%eax
   153ae:	8b 55 fc             	mov    -0x4(%rbp),%edx
   153b1:	48 8d 35 8f 39 00 00 	lea    0x398f(%rip),%rsi        # 18d47 <g_1058+0x17fa>
   153b8:	48 89 c7             	mov    %rax,%rdi
   153bb:	e8 33 13 ff ff       	callq  66f3 <transparent_crc>
   153c0:	83 7d fc 00          	cmpl   $0x0,-0x4(%rbp)
   153c4:	74 19                	je     153df <main+0x1c48>
   153c6:	8b 55 f4             	mov    -0xc(%rbp),%edx
   153c9:	8b 45 f0             	mov    -0x10(%rbp),%eax
   153cc:	89 c6                	mov    %eax,%esi
   153ce:	48 8d 3d bd 34 00 00 	lea    0x34bd(%rip),%rdi        # 18892 <g_1058+0x1345>
   153d5:	b8 00 00 00 00       	mov    $0x0,%eax
   153da:	e8 a1 fc fe ff       	callq  5080 <printf@plt>
   153df:	83 45 f4 01          	addl   $0x1,-0xc(%rbp)
   153e3:	83 7d f4 07          	cmpl   $0x7,-0xc(%rbp)
   153e7:	0f 8e 12 fd ff ff    	jle    150ff <main+0x1968>
   153ed:	83 45 f0 01          	addl   $0x1,-0x10(%rbp)
   153f1:	83 7d f0 00          	cmpl   $0x0,-0x10(%rbp)
   153f5:	0f 8e f8 fc ff ff    	jle    150f3 <main+0x195c>
   153fb:	0f b7 05 d6 ad 00 00 	movzwl 0xadd6(%rip),%eax        # 201d8 <g_1594>
   15402:	0f b7 c0             	movzwl %ax,%eax
   15405:	8b 55 fc             	mov    -0x4(%rbp),%edx
   15408:	48 8d 35 48 39 00 00 	lea    0x3948(%rip),%rsi        # 18d57 <g_1058+0x180a>
   1540f:	48 89 c7             	mov    %rax,%rdi
   15412:	e8 dc 12 ff ff       	callq  66f3 <transparent_crc>
   15417:	0f b7 05 b2 81 00 00 	movzwl 0x81b2(%rip),%eax        # 1d5d0 <g_1666>
   1541e:	66 25 ff 0f          	and    $0xfff,%ax
   15422:	0f b7 c0             	movzwl %ax,%eax
   15425:	8b 55 fc             	mov    -0x4(%rbp),%edx
   15428:	48 8d 35 2f 39 00 00 	lea    0x392f(%rip),%rsi        # 18d5e <g_1058+0x1811>
   1542f:	48 89 c7             	mov    %rax,%rdi
   15432:	e8 bc 12 ff ff       	callq  66f3 <transparent_crc>
   15437:	8b 05 93 81 00 00    	mov    0x8193(%rip),%eax        # 1d5d0 <g_1666>
   1543d:	01 c0                	add    %eax,%eax
   1543f:	c1 f8 0d             	sar    $0xd,%eax
   15442:	48 98                	cltq   
   15444:	8b 55 fc             	mov    -0x4(%rbp),%edx
   15447:	48 8d 35 1a 39 00 00 	lea    0x391a(%rip),%rsi        # 18d68 <g_1058+0x181b>
   1544e:	48 89 c7             	mov    %rax,%rdi
   15451:	e8 9d 12 ff ff       	callq  66f3 <transparent_crc>
   15456:	48 8b 05 73 81 00 00 	mov    0x8173(%rip),%rax        # 1d5d0 <g_1666>
   1545d:	48 c1 e0 17          	shl    $0x17,%rax
   15461:	48 c1 f8 36          	sar    $0x36,%rax
   15465:	48 0f bf c0          	movswq %ax,%rax
   15469:	8b 55 fc             	mov    -0x4(%rbp),%edx
   1546c:	48 8d 35 ff 38 00 00 	lea    0x38ff(%rip),%rsi        # 18d72 <g_1058+0x1825>
   15473:	48 89 c7             	mov    %rax,%rdi
   15476:	e8 78 12 ff ff       	callq  66f3 <transparent_crc>
   1547b:	48 8b 05 4e 81 00 00 	mov    0x814e(%rip),%rax        # 1d5d0 <g_1666>
   15482:	48 c1 e0 0a          	shl    $0xa,%rax
   15486:	48 c1 f8 33          	sar    $0x33,%rax
   1548a:	48 0f bf c0          	movswq %ax,%rax
   1548e:	8b 55 fc             	mov    -0x4(%rbp),%edx
   15491:	48 8d 35 e4 38 00 00 	lea    0x38e4(%rip),%rsi        # 18d7c <g_1058+0x182f>
   15498:	48 89 c7             	mov    %rax,%rdi
   1549b:	e8 53 12 ff ff       	callq  66f3 <transparent_crc>
   154a0:	48 8b 05 29 81 00 00 	mov    0x8129(%rip),%rax        # 1d5d0 <g_1666>
   154a7:	48 c1 f8 36          	sar    $0x36,%rax
   154ab:	48 0f bf c0          	movswq %ax,%rax
   154af:	8b 55 fc             	mov    -0x4(%rbp),%edx
   154b2:	48 8d 35 cd 38 00 00 	lea    0x38cd(%rip),%rsi        # 18d86 <g_1058+0x1839>
   154b9:	48 89 c7             	mov    %rax,%rdi
   154bc:	e8 32 12 ff ff       	callq  66f3 <transparent_crc>
   154c1:	48 8b 05 10 81 00 00 	mov    0x8110(%rip),%rax        # 1d5d8 <g_1666+0x8>
   154c8:	25 ff ff ff 07       	and    $0x7ffffff,%eax
   154cd:	89 c1                	mov    %eax,%ecx
   154cf:	8b 45 fc             	mov    -0x4(%rbp),%eax
   154d2:	89 c2                	mov    %eax,%edx
   154d4:	48 8d 35 b5 38 00 00 	lea    0x38b5(%rip),%rsi        # 18d90 <g_1058+0x1843>
   154db:	48 89 cf             	mov    %rcx,%rdi
   154de:	e8 10 12 ff ff       	callq  66f3 <transparent_crc>
   154e3:	48 8b 05 ee 80 00 00 	mov    0x80ee(%rip),%rax        # 1d5d8 <g_1666+0x8>
   154ea:	48 c1 e8 1b          	shr    $0x1b,%rax
   154ee:	66 25 ff 3f          	and    $0x3fff,%ax
   154f2:	0f b7 c0             	movzwl %ax,%eax
   154f5:	8b 55 fc             	mov    -0x4(%rbp),%edx
   154f8:	48 8d 35 9b 38 00 00 	lea    0x389b(%rip),%rsi        # 18d9a <g_1058+0x184d>
   154ff:	48 89 c7             	mov    %rax,%rdi
   15502:	e8 ec 11 ff ff       	callq  66f3 <transparent_crc>
   15507:	c7 45 f0 00 00 00 00 	movl   $0x0,-0x10(%rbp)
   1550e:	eb 4d                	jmp    1555d <main+0x1dc6>
   15510:	8b 45 f0             	mov    -0x10(%rbp),%eax
   15513:	48 98                	cltq   
   15515:	48 8d 14 85 00 00 00 	lea    0x0(,%rax,4),%rdx
   1551c:	00 
   1551d:	48 8d 05 bc 80 00 00 	lea    0x80bc(%rip),%rax        # 1d5e0 <g_1695>
   15524:	8b 04 02             	mov    (%rdx,%rax,1),%eax
   15527:	89 c1                	mov    %eax,%ecx
   15529:	8b 45 fc             	mov    -0x4(%rbp),%eax
   1552c:	89 c2                	mov    %eax,%edx
   1552e:	48 8d 35 6f 38 00 00 	lea    0x386f(%rip),%rsi        # 18da4 <g_1058+0x1857>
   15535:	48 89 cf             	mov    %rcx,%rdi
   15538:	e8 b6 11 ff ff       	callq  66f3 <transparent_crc>
   1553d:	83 7d fc 00          	cmpl   $0x0,-0x4(%rbp)
   15541:	74 16                	je     15559 <main+0x1dc2>
   15543:	8b 45 f0             	mov    -0x10(%rbp),%eax
   15546:	89 c6                	mov    %eax,%esi
   15548:	48 8d 3d 20 33 00 00 	lea    0x3320(%rip),%rdi        # 1886f <g_1058+0x1322>
   1554f:	b8 00 00 00 00       	mov    $0x0,%eax
   15554:	e8 27 fb fe ff       	callq  5080 <printf@plt>
   15559:	83 45 f0 01          	addl   $0x1,-0x10(%rbp)
   1555d:	83 7d f0 05          	cmpl   $0x5,-0x10(%rbp)
   15561:	7e ad                	jle    15510 <main+0x1d79>
   15563:	0f b7 05 8e 80 00 00 	movzwl 0x808e(%rip),%eax        # 1d5f8 <g_1817>
   1556a:	66 25 ff 0f          	and    $0xfff,%ax
   1556e:	0f b7 c0             	movzwl %ax,%eax
   15571:	8b 55 fc             	mov    -0x4(%rbp),%edx
   15574:	48 8d 35 33 38 00 00 	lea    0x3833(%rip),%rsi        # 18dae <g_1058+0x1861>
   1557b:	48 89 c7             	mov    %rax,%rdi
   1557e:	e8 70 11 ff ff       	callq  66f3 <transparent_crc>
   15583:	8b 05 6f 80 00 00    	mov    0x806f(%rip),%eax        # 1d5f8 <g_1817>
   15589:	01 c0                	add    %eax,%eax
   1558b:	c1 f8 0d             	sar    $0xd,%eax
   1558e:	48 98                	cltq   
   15590:	8b 55 fc             	mov    -0x4(%rbp),%edx
   15593:	48 8d 35 1e 38 00 00 	lea    0x381e(%rip),%rsi        # 18db8 <g_1058+0x186b>
   1559a:	48 89 c7             	mov    %rax,%rdi
   1559d:	e8 51 11 ff ff       	callq  66f3 <transparent_crc>
   155a2:	48 8b 05 4f 80 00 00 	mov    0x804f(%rip),%rax        # 1d5f8 <g_1817>
   155a9:	48 c1 e0 17          	shl    $0x17,%rax
   155ad:	48 c1 f8 36          	sar    $0x36,%rax
   155b1:	48 0f bf c0          	movswq %ax,%rax
   155b5:	8b 55 fc             	mov    -0x4(%rbp),%edx
   155b8:	48 8d 35 03 38 00 00 	lea    0x3803(%rip),%rsi        # 18dc2 <g_1058+0x1875>
   155bf:	48 89 c7             	mov    %rax,%rdi
   155c2:	e8 2c 11 ff ff       	callq  66f3 <transparent_crc>
   155c7:	48 8b 05 2a 80 00 00 	mov    0x802a(%rip),%rax        # 1d5f8 <g_1817>
   155ce:	48 c1 e0 0a          	shl    $0xa,%rax
   155d2:	48 c1 f8 33          	sar    $0x33,%rax
   155d6:	48 0f bf c0          	movswq %ax,%rax
   155da:	8b 55 fc             	mov    -0x4(%rbp),%edx
   155dd:	48 8d 35 e8 37 00 00 	lea    0x37e8(%rip),%rsi        # 18dcc <g_1058+0x187f>
   155e4:	48 89 c7             	mov    %rax,%rdi
   155e7:	e8 07 11 ff ff       	callq  66f3 <transparent_crc>
   155ec:	48 8b 05 05 80 00 00 	mov    0x8005(%rip),%rax        # 1d5f8 <g_1817>
   155f3:	48 c1 f8 36          	sar    $0x36,%rax
   155f7:	48 0f bf c0          	movswq %ax,%rax
   155fb:	8b 55 fc             	mov    -0x4(%rbp),%edx
   155fe:	48 8d 35 d1 37 00 00 	lea    0x37d1(%rip),%rsi        # 18dd6 <g_1058+0x1889>
   15605:	48 89 c7             	mov    %rax,%rdi
   15608:	e8 e6 10 ff ff       	callq  66f3 <transparent_crc>
   1560d:	48 8b 05 ec 7f 00 00 	mov    0x7fec(%rip),%rax        # 1d600 <g_1817+0x8>
   15614:	25 ff ff ff 07       	and    $0x7ffffff,%eax
   15619:	89 c1                	mov    %eax,%ecx
   1561b:	8b 45 fc             	mov    -0x4(%rbp),%eax
   1561e:	89 c2                	mov    %eax,%edx
   15620:	48 8d 35 b9 37 00 00 	lea    0x37b9(%rip),%rsi        # 18de0 <g_1058+0x1893>
   15627:	48 89 cf             	mov    %rcx,%rdi
   1562a:	e8 c4 10 ff ff       	callq  66f3 <transparent_crc>
   1562f:	48 8b 05 ca 7f 00 00 	mov    0x7fca(%rip),%rax        # 1d600 <g_1817+0x8>
   15636:	48 c1 e8 1b          	shr    $0x1b,%rax
   1563a:	66 25 ff 3f          	and    $0x3fff,%ax
   1563e:	0f b7 c0             	movzwl %ax,%eax
   15641:	8b 55 fc             	mov    -0x4(%rbp),%edx
   15644:	48 8d 35 9f 37 00 00 	lea    0x379f(%rip),%rsi        # 18dea <g_1058+0x189d>
   1564b:	48 89 c7             	mov    %rax,%rdi
   1564e:	e8 a0 10 ff ff       	callq  66f3 <transparent_crc>
   15653:	48 8b 05 ae 7f 00 00 	mov    0x7fae(%rip),%rax        # 1d608 <g_1864>
   1565a:	48 89 c1             	mov    %rax,%rcx
   1565d:	8b 45 fc             	mov    -0x4(%rbp),%eax
   15660:	89 c2                	mov    %eax,%edx
   15662:	48 8d 35 8b 37 00 00 	lea    0x378b(%rip),%rsi        # 18df4 <g_1058+0x18a7>
   15669:	48 89 cf             	mov    %rcx,%rdi
   1566c:	e8 82 10 ff ff       	callq  66f3 <transparent_crc>
   15671:	48 8b 05 98 7f 00 00 	mov    0x7f98(%rip),%rax        # 1d610 <g_1900>
   15678:	66 25 ff 0f          	and    $0xfff,%ax
   1567c:	0f b7 c0             	movzwl %ax,%eax
   1567f:	8b 55 fc             	mov    -0x4(%rbp),%edx
   15682:	48 8d 35 72 37 00 00 	lea    0x3772(%rip),%rsi        # 18dfb <g_1058+0x18ae>
   15689:	48 89 c7             	mov    %rax,%rdi
   1568c:	e8 62 10 ff ff       	callq  66f3 <transparent_crc>
   15691:	48 8b 05 78 7f 00 00 	mov    0x7f78(%rip),%rax        # 1d610 <g_1900>
   15698:	01 c0                	add    %eax,%eax
   1569a:	c1 f8 0d             	sar    $0xd,%eax
   1569d:	48 98                	cltq   
   1569f:	8b 55 fc             	mov    -0x4(%rbp),%edx
   156a2:	48 8d 35 5c 37 00 00 	lea    0x375c(%rip),%rsi        # 18e05 <g_1058+0x18b8>
   156a9:	48 89 c7             	mov    %rax,%rdi
   156ac:	e8 42 10 ff ff       	callq  66f3 <transparent_crc>
   156b1:	48 8b 05 58 7f 00 00 	mov    0x7f58(%rip),%rax        # 1d610 <g_1900>
   156b8:	48 c1 e0 17          	shl    $0x17,%rax
   156bc:	48 c1 f8 36          	sar    $0x36,%rax
   156c0:	48 0f bf c0          	movswq %ax,%rax
   156c4:	8b 55 fc             	mov    -0x4(%rbp),%edx
   156c7:	48 8d 35 41 37 00 00 	lea    0x3741(%rip),%rsi        # 18e0f <g_1058+0x18c2>
   156ce:	48 89 c7             	mov    %rax,%rdi
   156d1:	e8 1d 10 ff ff       	callq  66f3 <transparent_crc>
   156d6:	48 8b 05 33 7f 00 00 	mov    0x7f33(%rip),%rax        # 1d610 <g_1900>
   156dd:	48 c1 e0 0a          	shl    $0xa,%rax
   156e1:	48 c1 f8 33          	sar    $0x33,%rax
   156e5:	48 0f bf c0          	movswq %ax,%rax
   156e9:	8b 55 fc             	mov    -0x4(%rbp),%edx
   156ec:	48 8d 35 26 37 00 00 	lea    0x3726(%rip),%rsi        # 18e19 <g_1058+0x18cc>
   156f3:	48 89 c7             	mov    %rax,%rdi
   156f6:	e8 f8 0f ff ff       	callq  66f3 <transparent_crc>
   156fb:	48 8b 05 0e 7f 00 00 	mov    0x7f0e(%rip),%rax        # 1d610 <g_1900>
   15702:	48 c1 f8 36          	sar    $0x36,%rax
   15706:	48 0f bf c0          	movswq %ax,%rax
   1570a:	8b 55 fc             	mov    -0x4(%rbp),%edx
   1570d:	48 8d 35 0f 37 00 00 	lea    0x370f(%rip),%rsi        # 18e23 <g_1058+0x18d6>
   15714:	48 89 c7             	mov    %rax,%rdi
   15717:	e8 d7 0f ff ff       	callq  66f3 <transparent_crc>
   1571c:	48 8b 05 f5 7e 00 00 	mov    0x7ef5(%rip),%rax        # 1d618 <g_1900+0x8>
   15723:	25 ff ff ff 07       	and    $0x7ffffff,%eax
   15728:	89 c1                	mov    %eax,%ecx
   1572a:	8b 45 fc             	mov    -0x4(%rbp),%eax
   1572d:	89 c2                	mov    %eax,%edx
   1572f:	48 8d 35 f7 36 00 00 	lea    0x36f7(%rip),%rsi        # 18e2d <g_1058+0x18e0>
   15736:	48 89 cf             	mov    %rcx,%rdi
   15739:	e8 b5 0f ff ff       	callq  66f3 <transparent_crc>
   1573e:	48 8b 05 d3 7e 00 00 	mov    0x7ed3(%rip),%rax        # 1d618 <g_1900+0x8>
   15745:	48 c1 e8 1b          	shr    $0x1b,%rax
   15749:	66 25 ff 3f          	and    $0x3fff,%ax
   1574d:	0f b7 c0             	movzwl %ax,%eax
   15750:	8b 55 fc             	mov    -0x4(%rbp),%edx
   15753:	48 8d 35 dd 36 00 00 	lea    0x36dd(%rip),%rsi        # 18e37 <g_1058+0x18ea>
   1575a:	48 89 c7             	mov    %rax,%rdi
   1575d:	e8 91 0f ff ff       	callq  66f3 <transparent_crc>
   15762:	48 8b 05 b7 7e 00 00 	mov    0x7eb7(%rip),%rax        # 1d620 <g_1912>
   15769:	66 25 ff 0f          	and    $0xfff,%ax
   1576d:	0f b7 c0             	movzwl %ax,%eax
   15770:	8b 55 fc             	mov    -0x4(%rbp),%edx
   15773:	48 8d 35 c7 36 00 00 	lea    0x36c7(%rip),%rsi        # 18e41 <g_1058+0x18f4>
   1577a:	48 89 c7             	mov    %rax,%rdi
   1577d:	e8 71 0f ff ff       	callq  66f3 <transparent_crc>
   15782:	48 8b 05 97 7e 00 00 	mov    0x7e97(%rip),%rax        # 1d620 <g_1912>
   15789:	01 c0                	add    %eax,%eax
   1578b:	c1 f8 0d             	sar    $0xd,%eax
   1578e:	48 98                	cltq   
   15790:	8b 55 fc             	mov    -0x4(%rbp),%edx
   15793:	48 8d 35 b1 36 00 00 	lea    0x36b1(%rip),%rsi        # 18e4b <g_1058+0x18fe>
   1579a:	48 89 c7             	mov    %rax,%rdi
   1579d:	e8 51 0f ff ff       	callq  66f3 <transparent_crc>
   157a2:	48 8b 05 77 7e 00 00 	mov    0x7e77(%rip),%rax        # 1d620 <g_1912>
   157a9:	48 c1 e0 17          	shl    $0x17,%rax
   157ad:	48 c1 f8 36          	sar    $0x36,%rax
   157b1:	48 0f bf c0          	movswq %ax,%rax
   157b5:	8b 55 fc             	mov    -0x4(%rbp),%edx
   157b8:	48 8d 35 96 36 00 00 	lea    0x3696(%rip),%rsi        # 18e55 <g_1058+0x1908>
   157bf:	48 89 c7             	mov    %rax,%rdi
   157c2:	e8 2c 0f ff ff       	callq  66f3 <transparent_crc>
   157c7:	48 8b 05 52 7e 00 00 	mov    0x7e52(%rip),%rax        # 1d620 <g_1912>
   157ce:	48 c1 e0 0a          	shl    $0xa,%rax
   157d2:	48 c1 f8 33          	sar    $0x33,%rax
   157d6:	48 0f bf c0          	movswq %ax,%rax
   157da:	8b 55 fc             	mov    -0x4(%rbp),%edx
   157dd:	48 8d 35 7b 36 00 00 	lea    0x367b(%rip),%rsi        # 18e5f <g_1058+0x1912>
   157e4:	48 89 c7             	mov    %rax,%rdi
   157e7:	e8 07 0f ff ff       	callq  66f3 <transparent_crc>
   157ec:	48 8b 05 2d 7e 00 00 	mov    0x7e2d(%rip),%rax        # 1d620 <g_1912>
   157f3:	48 c1 f8 36          	sar    $0x36,%rax
   157f7:	48 0f bf c0          	movswq %ax,%rax
   157fb:	8b 55 fc             	mov    -0x4(%rbp),%edx
   157fe:	48 8d 35 64 36 00 00 	lea    0x3664(%rip),%rsi        # 18e69 <g_1058+0x191c>
   15805:	48 89 c7             	mov    %rax,%rdi
   15808:	e8 e6 0e ff ff       	callq  66f3 <transparent_crc>
   1580d:	48 8b 05 14 7e 00 00 	mov    0x7e14(%rip),%rax        # 1d628 <g_1912+0x8>
   15814:	25 ff ff ff 07       	and    $0x7ffffff,%eax
   15819:	89 c1                	mov    %eax,%ecx
   1581b:	8b 45 fc             	mov    -0x4(%rbp),%eax
   1581e:	89 c2                	mov    %eax,%edx
   15820:	48 8d 35 4c 36 00 00 	lea    0x364c(%rip),%rsi        # 18e73 <g_1058+0x1926>
   15827:	48 89 cf             	mov    %rcx,%rdi
   1582a:	e8 c4 0e ff ff       	callq  66f3 <transparent_crc>
   1582f:	48 8b 05 f2 7d 00 00 	mov    0x7df2(%rip),%rax        # 1d628 <g_1912+0x8>
   15836:	48 c1 e8 1b          	shr    $0x1b,%rax
   1583a:	66 25 ff 3f          	and    $0x3fff,%ax
   1583e:	0f b7 c0             	movzwl %ax,%eax
   15841:	8b 55 fc             	mov    -0x4(%rbp),%edx
   15844:	48 8d 35 32 36 00 00 	lea    0x3632(%rip),%rsi        # 18e7d <g_1058+0x1930>
   1584b:	48 89 c7             	mov    %rax,%rdi
   1584e:	e8 a0 0e ff ff       	callq  66f3 <transparent_crc>
   15853:	48 8b 05 d6 7d 00 00 	mov    0x7dd6(%rip),%rax        # 1d630 <g_1920>
   1585a:	66 25 ff 0f          	and    $0xfff,%ax
   1585e:	0f b7 c0             	movzwl %ax,%eax
   15861:	8b 55 fc             	mov    -0x4(%rbp),%edx
   15864:	48 8d 35 1c 36 00 00 	lea    0x361c(%rip),%rsi        # 18e87 <g_1058+0x193a>
   1586b:	48 89 c7             	mov    %rax,%rdi
   1586e:	e8 80 0e ff ff       	callq  66f3 <transparent_crc>
   15873:	48 8b 05 b6 7d 00 00 	mov    0x7db6(%rip),%rax        # 1d630 <g_1920>
   1587a:	01 c0                	add    %eax,%eax
   1587c:	c1 f8 0d             	sar    $0xd,%eax
   1587f:	48 98                	cltq   
   15881:	8b 55 fc             	mov    -0x4(%rbp),%edx
   15884:	48 8d 35 06 36 00 00 	lea    0x3606(%rip),%rsi        # 18e91 <g_1058+0x1944>
   1588b:	48 89 c7             	mov    %rax,%rdi
   1588e:	e8 60 0e ff ff       	callq  66f3 <transparent_crc>
   15893:	48 8b 05 96 7d 00 00 	mov    0x7d96(%rip),%rax        # 1d630 <g_1920>
   1589a:	48 c1 e0 17          	shl    $0x17,%rax
   1589e:	48 c1 f8 36          	sar    $0x36,%rax
   158a2:	48 0f bf c0          	movswq %ax,%rax
   158a6:	8b 55 fc             	mov    -0x4(%rbp),%edx
   158a9:	48 8d 35 eb 35 00 00 	lea    0x35eb(%rip),%rsi        # 18e9b <g_1058+0x194e>
   158b0:	48 89 c7             	mov    %rax,%rdi
   158b3:	e8 3b 0e ff ff       	callq  66f3 <transparent_crc>
   158b8:	48 8b 05 71 7d 00 00 	mov    0x7d71(%rip),%rax        # 1d630 <g_1920>
   158bf:	48 c1 e0 0a          	shl    $0xa,%rax
   158c3:	48 c1 f8 33          	sar    $0x33,%rax
   158c7:	48 0f bf c0          	movswq %ax,%rax
   158cb:	8b 55 fc             	mov    -0x4(%rbp),%edx
   158ce:	48 8d 35 d0 35 00 00 	lea    0x35d0(%rip),%rsi        # 18ea5 <g_1058+0x1958>
   158d5:	48 89 c7             	mov    %rax,%rdi
   158d8:	e8 16 0e ff ff       	callq  66f3 <transparent_crc>
   158dd:	48 8b 05 4c 7d 00 00 	mov    0x7d4c(%rip),%rax        # 1d630 <g_1920>
   158e4:	48 c1 f8 36          	sar    $0x36,%rax
   158e8:	48 0f bf c0          	movswq %ax,%rax
   158ec:	8b 55 fc             	mov    -0x4(%rbp),%edx
   158ef:	48 8d 35 b9 35 00 00 	lea    0x35b9(%rip),%rsi        # 18eaf <g_1058+0x1962>
   158f6:	48 89 c7             	mov    %rax,%rdi
   158f9:	e8 f5 0d ff ff       	callq  66f3 <transparent_crc>
   158fe:	48 8b 05 33 7d 00 00 	mov    0x7d33(%rip),%rax        # 1d638 <g_1920+0x8>
   15905:	25 ff ff ff 07       	and    $0x7ffffff,%eax
   1590a:	89 c1                	mov    %eax,%ecx
   1590c:	8b 45 fc             	mov    -0x4(%rbp),%eax
   1590f:	89 c2                	mov    %eax,%edx
   15911:	48 8d 35 a1 35 00 00 	lea    0x35a1(%rip),%rsi        # 18eb9 <g_1058+0x196c>
   15918:	48 89 cf             	mov    %rcx,%rdi
   1591b:	e8 d3 0d ff ff       	callq  66f3 <transparent_crc>
   15920:	48 8b 05 11 7d 00 00 	mov    0x7d11(%rip),%rax        # 1d638 <g_1920+0x8>
   15927:	48 c1 e8 1b          	shr    $0x1b,%rax
   1592b:	66 25 ff 3f          	and    $0x3fff,%ax
   1592f:	0f b7 c0             	movzwl %ax,%eax
   15932:	8b 55 fc             	mov    -0x4(%rbp),%edx
   15935:	48 8d 35 87 35 00 00 	lea    0x3587(%rip),%rsi        # 18ec3 <g_1058+0x1976>
   1593c:	48 89 c7             	mov    %rax,%rdi
   1593f:	e8 af 0d ff ff       	callq  66f3 <transparent_crc>
   15944:	0f b7 05 f5 7c 00 00 	movzwl 0x7cf5(%rip),%eax        # 1d640 <g_1963>
   1594b:	66 25 ff 0f          	and    $0xfff,%ax
   1594f:	0f b7 c0             	movzwl %ax,%eax
   15952:	8b 55 fc             	mov    -0x4(%rbp),%edx
   15955:	48 8d 35 71 35 00 00 	lea    0x3571(%rip),%rsi        # 18ecd <g_1058+0x1980>
   1595c:	48 89 c7             	mov    %rax,%rdi
   1595f:	e8 8f 0d ff ff       	callq  66f3 <transparent_crc>
   15964:	8b 05 d6 7c 00 00    	mov    0x7cd6(%rip),%eax        # 1d640 <g_1963>
   1596a:	01 c0                	add    %eax,%eax
   1596c:	c1 f8 0d             	sar    $0xd,%eax
   1596f:	48 98                	cltq   
   15971:	8b 55 fc             	mov    -0x4(%rbp),%edx
   15974:	48 8d 35 5c 35 00 00 	lea    0x355c(%rip),%rsi        # 18ed7 <g_1058+0x198a>
   1597b:	48 89 c7             	mov    %rax,%rdi
   1597e:	e8 70 0d ff ff       	callq  66f3 <transparent_crc>
   15983:	48 8b 05 b6 7c 00 00 	mov    0x7cb6(%rip),%rax        # 1d640 <g_1963>
   1598a:	48 c1 e0 17          	shl    $0x17,%rax
   1598e:	48 c1 f8 36          	sar    $0x36,%rax
   15992:	48 0f bf c0          	movswq %ax,%rax
   15996:	8b 55 fc             	mov    -0x4(%rbp),%edx
   15999:	48 8d 35 41 35 00 00 	lea    0x3541(%rip),%rsi        # 18ee1 <g_1058+0x1994>
   159a0:	48 89 c7             	mov    %rax,%rdi
   159a3:	e8 4b 0d ff ff       	callq  66f3 <transparent_crc>
   159a8:	48 8b 05 91 7c 00 00 	mov    0x7c91(%rip),%rax        # 1d640 <g_1963>
   159af:	48 c1 e0 0a          	shl    $0xa,%rax
   159b3:	48 c1 f8 33          	sar    $0x33,%rax
   159b7:	48 0f bf c0          	movswq %ax,%rax
   159bb:	8b 55 fc             	mov    -0x4(%rbp),%edx
   159be:	48 8d 35 26 35 00 00 	lea    0x3526(%rip),%rsi        # 18eeb <g_1058+0x199e>
   159c5:	48 89 c7             	mov    %rax,%rdi
   159c8:	e8 26 0d ff ff       	callq  66f3 <transparent_crc>
   159cd:	48 8b 05 6c 7c 00 00 	mov    0x7c6c(%rip),%rax        # 1d640 <g_1963>
   159d4:	48 c1 f8 36          	sar    $0x36,%rax
   159d8:	48 0f bf c0          	movswq %ax,%rax
   159dc:	8b 55 fc             	mov    -0x4(%rbp),%edx
   159df:	48 8d 35 0f 35 00 00 	lea    0x350f(%rip),%rsi        # 18ef5 <g_1058+0x19a8>
   159e6:	48 89 c7             	mov    %rax,%rdi
   159e9:	e8 05 0d ff ff       	callq  66f3 <transparent_crc>
   159ee:	48 8b 05 53 7c 00 00 	mov    0x7c53(%rip),%rax        # 1d648 <g_1963+0x8>
   159f5:	25 ff ff ff 07       	and    $0x7ffffff,%eax
   159fa:	89 c1                	mov    %eax,%ecx
   159fc:	8b 45 fc             	mov    -0x4(%rbp),%eax
   159ff:	89 c2                	mov    %eax,%edx
   15a01:	48 8d 35 f7 34 00 00 	lea    0x34f7(%rip),%rsi        # 18eff <g_1058+0x19b2>
   15a08:	48 89 cf             	mov    %rcx,%rdi
   15a0b:	e8 e3 0c ff ff       	callq  66f3 <transparent_crc>
   15a10:	48 8b 05 31 7c 00 00 	mov    0x7c31(%rip),%rax        # 1d648 <g_1963+0x8>
   15a17:	48 c1 e8 1b          	shr    $0x1b,%rax
   15a1b:	66 25 ff 3f          	and    $0x3fff,%ax
   15a1f:	0f b7 c0             	movzwl %ax,%eax
   15a22:	8b 55 fc             	mov    -0x4(%rbp),%edx
   15a25:	48 8d 35 dd 34 00 00 	lea    0x34dd(%rip),%rsi        # 18f09 <g_1058+0x19bc>
   15a2c:	48 89 c7             	mov    %rax,%rdi
   15a2f:	e8 bf 0c ff ff       	callq  66f3 <transparent_crc>
   15a34:	0f b7 05 15 7c 00 00 	movzwl 0x7c15(%rip),%eax        # 1d650 <g_2037>
   15a3b:	66 25 ff 0f          	and    $0xfff,%ax
   15a3f:	0f b7 c0             	movzwl %ax,%eax
   15a42:	8b 55 fc             	mov    -0x4(%rbp),%edx
   15a45:	48 8d 35 c7 34 00 00 	lea    0x34c7(%rip),%rsi        # 18f13 <g_1058+0x19c6>
   15a4c:	48 89 c7             	mov    %rax,%rdi
   15a4f:	e8 9f 0c ff ff       	callq  66f3 <transparent_crc>
   15a54:	8b 05 f6 7b 00 00    	mov    0x7bf6(%rip),%eax        # 1d650 <g_2037>
   15a5a:	01 c0                	add    %eax,%eax
   15a5c:	c1 f8 0d             	sar    $0xd,%eax
   15a5f:	48 98                	cltq   
   15a61:	8b 55 fc             	mov    -0x4(%rbp),%edx
   15a64:	48 8d 35 b2 34 00 00 	lea    0x34b2(%rip),%rsi        # 18f1d <g_1058+0x19d0>
   15a6b:	48 89 c7             	mov    %rax,%rdi
   15a6e:	e8 80 0c ff ff       	callq  66f3 <transparent_crc>
   15a73:	48 8b 05 d6 7b 00 00 	mov    0x7bd6(%rip),%rax        # 1d650 <g_2037>
   15a7a:	48 c1 e0 17          	shl    $0x17,%rax
   15a7e:	48 c1 f8 36          	sar    $0x36,%rax
   15a82:	48 0f bf c0          	movswq %ax,%rax
   15a86:	8b 55 fc             	mov    -0x4(%rbp),%edx
   15a89:	48 8d 35 97 34 00 00 	lea    0x3497(%rip),%rsi        # 18f27 <g_1058+0x19da>
   15a90:	48 89 c7             	mov    %rax,%rdi
   15a93:	e8 5b 0c ff ff       	callq  66f3 <transparent_crc>
   15a98:	48 8b 05 b1 7b 00 00 	mov    0x7bb1(%rip),%rax        # 1d650 <g_2037>
   15a9f:	48 c1 e0 0a          	shl    $0xa,%rax
   15aa3:	48 c1 f8 33          	sar    $0x33,%rax
   15aa7:	48 0f bf c0          	movswq %ax,%rax
   15aab:	8b 55 fc             	mov    -0x4(%rbp),%edx
   15aae:	48 8d 35 7c 34 00 00 	lea    0x347c(%rip),%rsi        # 18f31 <g_1058+0x19e4>
   15ab5:	48 89 c7             	mov    %rax,%rdi
   15ab8:	e8 36 0c ff ff       	callq  66f3 <transparent_crc>
   15abd:	48 8b 05 8c 7b 00 00 	mov    0x7b8c(%rip),%rax        # 1d650 <g_2037>
   15ac4:	48 c1 f8 36          	sar    $0x36,%rax
   15ac8:	48 0f bf c0          	movswq %ax,%rax
   15acc:	8b 55 fc             	mov    -0x4(%rbp),%edx
   15acf:	48 8d 35 65 34 00 00 	lea    0x3465(%rip),%rsi        # 18f3b <g_1058+0x19ee>
   15ad6:	48 89 c7             	mov    %rax,%rdi
   15ad9:	e8 15 0c ff ff       	callq  66f3 <transparent_crc>
   15ade:	48 8b 05 73 7b 00 00 	mov    0x7b73(%rip),%rax        # 1d658 <g_2037+0x8>
   15ae5:	25 ff ff ff 07       	and    $0x7ffffff,%eax
   15aea:	89 c1                	mov    %eax,%ecx
   15aec:	8b 45 fc             	mov    -0x4(%rbp),%eax
   15aef:	89 c2                	mov    %eax,%edx
   15af1:	48 8d 35 4d 34 00 00 	lea    0x344d(%rip),%rsi        # 18f45 <g_1058+0x19f8>
   15af8:	48 89 cf             	mov    %rcx,%rdi
   15afb:	e8 f3 0b ff ff       	callq  66f3 <transparent_crc>
   15b00:	48 8b 05 51 7b 00 00 	mov    0x7b51(%rip),%rax        # 1d658 <g_2037+0x8>
   15b07:	48 c1 e8 1b          	shr    $0x1b,%rax
   15b0b:	66 25 ff 3f          	and    $0x3fff,%ax
   15b0f:	0f b7 c0             	movzwl %ax,%eax
   15b12:	8b 55 fc             	mov    -0x4(%rbp),%edx
   15b15:	48 8d 35 33 34 00 00 	lea    0x3433(%rip),%rsi        # 18f4f <g_1058+0x1a02>
   15b1c:	48 89 c7             	mov    %rax,%rdi
   15b1f:	e8 cf 0b ff ff       	callq  66f3 <transparent_crc>
   15b24:	48 8b 05 35 7b 00 00 	mov    0x7b35(%rip),%rax        # 1d660 <g_2093>
   15b2b:	66 25 ff 0f          	and    $0xfff,%ax
   15b2f:	0f b7 c0             	movzwl %ax,%eax
   15b32:	8b 55 fc             	mov    -0x4(%rbp),%edx
   15b35:	48 8d 35 1d 34 00 00 	lea    0x341d(%rip),%rsi        # 18f59 <g_1058+0x1a0c>
   15b3c:	48 89 c7             	mov    %rax,%rdi
   15b3f:	e8 af 0b ff ff       	callq  66f3 <transparent_crc>
   15b44:	48 8b 05 15 7b 00 00 	mov    0x7b15(%rip),%rax        # 1d660 <g_2093>
   15b4b:	01 c0                	add    %eax,%eax
   15b4d:	c1 f8 0d             	sar    $0xd,%eax
   15b50:	48 98                	cltq   
   15b52:	8b 55 fc             	mov    -0x4(%rbp),%edx
   15b55:	48 8d 35 07 34 00 00 	lea    0x3407(%rip),%rsi        # 18f63 <g_1058+0x1a16>
   15b5c:	48 89 c7             	mov    %rax,%rdi
   15b5f:	e8 8f 0b ff ff       	callq  66f3 <transparent_crc>
   15b64:	48 8b 05 f5 7a 00 00 	mov    0x7af5(%rip),%rax        # 1d660 <g_2093>
   15b6b:	48 c1 e0 17          	shl    $0x17,%rax
   15b6f:	48 c1 f8 36          	sar    $0x36,%rax
   15b73:	48 0f bf c0          	movswq %ax,%rax
   15b77:	8b 55 fc             	mov    -0x4(%rbp),%edx
   15b7a:	48 8d 35 ec 33 00 00 	lea    0x33ec(%rip),%rsi        # 18f6d <g_1058+0x1a20>
   15b81:	48 89 c7             	mov    %rax,%rdi
   15b84:	e8 6a 0b ff ff       	callq  66f3 <transparent_crc>
   15b89:	48 8b 05 d0 7a 00 00 	mov    0x7ad0(%rip),%rax        # 1d660 <g_2093>
   15b90:	48 c1 e0 0a          	shl    $0xa,%rax
   15b94:	48 c1 f8 33          	sar    $0x33,%rax
   15b98:	48 0f bf c0          	movswq %ax,%rax
   15b9c:	8b 55 fc             	mov    -0x4(%rbp),%edx
   15b9f:	48 8d 35 d1 33 00 00 	lea    0x33d1(%rip),%rsi        # 18f77 <g_1058+0x1a2a>
   15ba6:	48 89 c7             	mov    %rax,%rdi
   15ba9:	e8 45 0b ff ff       	callq  66f3 <transparent_crc>
   15bae:	48 8b 05 ab 7a 00 00 	mov    0x7aab(%rip),%rax        # 1d660 <g_2093>
   15bb5:	48 c1 f8 36          	sar    $0x36,%rax
   15bb9:	48 0f bf c0          	movswq %ax,%rax
   15bbd:	8b 55 fc             	mov    -0x4(%rbp),%edx
   15bc0:	48 8d 35 ba 33 00 00 	lea    0x33ba(%rip),%rsi        # 18f81 <g_1058+0x1a34>
   15bc7:	48 89 c7             	mov    %rax,%rdi
   15bca:	e8 24 0b ff ff       	callq  66f3 <transparent_crc>
   15bcf:	48 8b 05 92 7a 00 00 	mov    0x7a92(%rip),%rax        # 1d668 <g_2093+0x8>
   15bd6:	25 ff ff ff 07       	and    $0x7ffffff,%eax
   15bdb:	89 c1                	mov    %eax,%ecx
   15bdd:	8b 45 fc             	mov    -0x4(%rbp),%eax
   15be0:	89 c2                	mov    %eax,%edx
   15be2:	48 8d 35 a2 33 00 00 	lea    0x33a2(%rip),%rsi        # 18f8b <g_1058+0x1a3e>
   15be9:	48 89 cf             	mov    %rcx,%rdi
   15bec:	e8 02 0b ff ff       	callq  66f3 <transparent_crc>
   15bf1:	48 8b 05 70 7a 00 00 	mov    0x7a70(%rip),%rax        # 1d668 <g_2093+0x8>
   15bf8:	48 c1 e8 1b          	shr    $0x1b,%rax
   15bfc:	66 25 ff 3f          	and    $0x3fff,%ax
   15c00:	0f b7 c0             	movzwl %ax,%eax
   15c03:	8b 55 fc             	mov    -0x4(%rbp),%edx
   15c06:	48 8d 35 88 33 00 00 	lea    0x3388(%rip),%rsi        # 18f95 <g_1058+0x1a48>
   15c0d:	48 89 c7             	mov    %rax,%rdi
   15c10:	e8 de 0a ff ff       	callq  66f3 <transparent_crc>
   15c15:	c7 45 f0 00 00 00 00 	movl   $0x0,-0x10(%rbp)
   15c1c:	e9 8b 03 00 00       	jmpq   15fac <main+0x2815>
   15c21:	c7 45 f4 00 00 00 00 	movl   $0x0,-0xc(%rbp)
   15c28:	e9 71 03 00 00       	jmpq   15f9e <main+0x2807>
   15c2d:	c7 45 f8 00 00 00 00 	movl   $0x0,-0x8(%rbp)
   15c34:	e9 57 03 00 00       	jmpq   15f90 <main+0x27f9>
   15c39:	8b 45 f8             	mov    -0x8(%rbp),%eax
   15c3c:	48 98                	cltq   
   15c3e:	8b 55 f4             	mov    -0xc(%rbp),%edx
   15c41:	48 63 ca             	movslq %edx,%rcx
   15c44:	8b 55 f0             	mov    -0x10(%rbp),%edx
   15c47:	48 63 f2             	movslq %edx,%rsi
   15c4a:	48 89 c2             	mov    %rax,%rdx
   15c4d:	48 c1 e2 03          	shl    $0x3,%rdx
   15c51:	48 29 c2             	sub    %rax,%rdx
   15c54:	48 8d 04 12          	lea    (%rdx,%rdx,1),%rax
   15c58:	48 89 c2             	mov    %rax,%rdx
   15c5b:	48 89 c8             	mov    %rcx,%rax
   15c5e:	48 c1 e0 03          	shl    $0x3,%rax
   15c62:	48 29 c8             	sub    %rcx,%rax
   15c65:	48 c1 e0 03          	shl    $0x3,%rax
   15c69:	48 01 c2             	add    %rax,%rdx
   15c6c:	48 69 c6 88 01 00 00 	imul   $0x188,%rsi,%rax
   15c73:	48 01 c2             	add    %rax,%rdx
   15c76:	48 8d 05 03 7a 00 00 	lea    0x7a03(%rip),%rax        # 1d680 <g_2107>
   15c7d:	48 01 d0             	add    %rdx,%rax
   15c80:	0f b7 00             	movzwl (%rax),%eax
   15c83:	66 25 ff 0f          	and    $0xfff,%ax
   15c87:	0f b7 c0             	movzwl %ax,%eax
   15c8a:	8b 55 fc             	mov    -0x4(%rbp),%edx
   15c8d:	48 8d 35 0b 33 00 00 	lea    0x330b(%rip),%rsi        # 18f9f <g_1058+0x1a52>
   15c94:	48 89 c7             	mov    %rax,%rdi
   15c97:	e8 57 0a ff ff       	callq  66f3 <transparent_crc>
   15c9c:	8b 45 f8             	mov    -0x8(%rbp),%eax
   15c9f:	48 98                	cltq   
   15ca1:	8b 55 f4             	mov    -0xc(%rbp),%edx
   15ca4:	48 63 ca             	movslq %edx,%rcx
   15ca7:	8b 55 f0             	mov    -0x10(%rbp),%edx
   15caa:	48 63 f2             	movslq %edx,%rsi
   15cad:	48 89 c2             	mov    %rax,%rdx
   15cb0:	48 c1 e2 03          	shl    $0x3,%rdx
   15cb4:	48 29 c2             	sub    %rax,%rdx
   15cb7:	48 8d 04 12          	lea    (%rdx,%rdx,1),%rax
   15cbb:	48 89 c2             	mov    %rax,%rdx
   15cbe:	48 89 c8             	mov    %rcx,%rax
   15cc1:	48 c1 e0 03          	shl    $0x3,%rax
   15cc5:	48 29 c8             	sub    %rcx,%rax
   15cc8:	48 c1 e0 03          	shl    $0x3,%rax
   15ccc:	48 01 c2             	add    %rax,%rdx
   15ccf:	48 69 c6 88 01 00 00 	imul   $0x188,%rsi,%rax
   15cd6:	48 01 c2             	add    %rax,%rdx
   15cd9:	48 8d 05 a0 79 00 00 	lea    0x79a0(%rip),%rax        # 1d680 <g_2107>
   15ce0:	48 01 d0             	add    %rdx,%rax
   15ce3:	0f b6 50 01          	movzbl 0x1(%rax),%edx
   15ce7:	c0 ea 04             	shr    $0x4,%dl
   15cea:	0f b6 d2             	movzbl %dl,%edx
   15ced:	0f b7 40 02          	movzwl 0x2(%rax),%eax
   15cf1:	25 ff 7f 00 00       	and    $0x7fff,%eax
   15cf6:	48 c1 e0 04          	shl    $0x4,%rax
   15cfa:	48 09 d0             	or     %rdx,%rax
   15cfd:	48 c1 e0 2d          	shl    $0x2d,%rax
   15d01:	48 c1 f8 2d          	sar    $0x2d,%rax
   15d05:	48 98                	cltq   
   15d07:	8b 55 fc             	mov    -0x4(%rbp),%edx
   15d0a:	48 8d 35 a1 32 00 00 	lea    0x32a1(%rip),%rsi        # 18fb2 <g_1058+0x1a65>
   15d11:	48 89 c7             	mov    %rax,%rdi
   15d14:	e8 da 09 ff ff       	callq  66f3 <transparent_crc>
   15d19:	8b 45 f8             	mov    -0x8(%rbp),%eax
   15d1c:	48 98                	cltq   
   15d1e:	8b 55 f4             	mov    -0xc(%rbp),%edx
   15d21:	48 63 ca             	movslq %edx,%rcx
   15d24:	8b 55 f0             	mov    -0x10(%rbp),%edx
   15d27:	48 63 f2             	movslq %edx,%rsi
   15d2a:	48 89 c2             	mov    %rax,%rdx
   15d2d:	48 c1 e2 03          	shl    $0x3,%rdx
   15d31:	48 29 c2             	sub    %rax,%rdx
   15d34:	48 8d 04 12          	lea    (%rdx,%rdx,1),%rax
   15d38:	48 89 c2             	mov    %rax,%rdx
   15d3b:	48 89 c8             	mov    %rcx,%rax
   15d3e:	48 c1 e0 03          	shl    $0x3,%rax
   15d42:	48 29 c8             	sub    %rcx,%rax
   15d45:	48 c1 e0 03          	shl    $0x3,%rax
   15d49:	48 01 c2             	add    %rax,%rdx
   15d4c:	48 69 c6 88 01 00 00 	imul   $0x188,%rsi,%rax
   15d53:	48 01 c2             	add    %rax,%rdx
   15d56:	48 8d 05 23 79 00 00 	lea    0x7923(%rip),%rax        # 1d680 <g_2107>
   15d5d:	48 01 d0             	add    %rdx,%rax
   15d60:	0f b6 50 03          	movzbl 0x3(%rax),%edx
   15d64:	c0 ea 07             	shr    $0x7,%dl
   15d67:	0f b6 d2             	movzbl %dl,%edx
   15d6a:	0f b7 40 04          	movzwl 0x4(%rax),%eax
   15d6e:	25 ff 01 00 00       	and    $0x1ff,%eax
   15d73:	48 01 c0             	add    %rax,%rax
   15d76:	48 09 d0             	or     %rdx,%rax
   15d79:	48 c1 e0 36          	shl    $0x36,%rax
   15d7d:	48 c1 f8 36          	sar    $0x36,%rax
   15d81:	48 0f bf c0          	movswq %ax,%rax
   15d85:	8b 55 fc             	mov    -0x4(%rbp),%edx
   15d88:	48 8d 35 36 32 00 00 	lea    0x3236(%rip),%rsi        # 18fc5 <g_1058+0x1a78>
   15d8f:	48 89 c7             	mov    %rax,%rdi
   15d92:	e8 5c 09 ff ff       	callq  66f3 <transparent_crc>
   15d97:	8b 45 f8             	mov    -0x8(%rbp),%eax
   15d9a:	48 98                	cltq   
   15d9c:	8b 55 f4             	mov    -0xc(%rbp),%edx
   15d9f:	48 63 ca             	movslq %edx,%rcx
   15da2:	8b 55 f0             	mov    -0x10(%rbp),%edx
   15da5:	48 63 f2             	movslq %edx,%rsi
   15da8:	48 89 c2             	mov    %rax,%rdx
   15dab:	48 c1 e2 03          	shl    $0x3,%rdx
   15daf:	48 29 c2             	sub    %rax,%rdx
   15db2:	48 8d 04 12          	lea    (%rdx,%rdx,1),%rax
   15db6:	48 89 c2             	mov    %rax,%rdx
   15db9:	48 89 c8             	mov    %rcx,%rax
   15dbc:	48 c1 e0 03          	shl    $0x3,%rax
   15dc0:	48 29 c8             	sub    %rcx,%rax
   15dc3:	48 c1 e0 03          	shl    $0x3,%rax
   15dc7:	48 01 c2             	add    %rax,%rdx
   15dca:	48 69 c6 88 01 00 00 	imul   $0x188,%rsi,%rax
   15dd1:	48 01 c2             	add    %rax,%rdx
   15dd4:	48 8d 05 a5 78 00 00 	lea    0x78a5(%rip),%rax        # 1d680 <g_2107>
   15ddb:	48 01 d0             	add    %rdx,%rax
   15dde:	0f b7 50 04          	movzwl 0x4(%rax),%edx
   15de2:	66 c1 ea 09          	shr    $0x9,%dx
   15de6:	0f b7 d2             	movzwl %dx,%edx
   15de9:	0f b7 40 06          	movzwl 0x6(%rax),%eax
   15ded:	0f b7 c0             	movzwl %ax,%eax
   15df0:	83 e0 3f             	and    $0x3f,%eax
   15df3:	48 c1 e0 07          	shl    $0x7,%rax
   15df7:	48 09 d0             	or     %rdx,%rax
   15dfa:	48 c1 e0 33          	shl    $0x33,%rax
   15dfe:	48 c1 f8 33          	sar    $0x33,%rax
   15e02:	48 0f bf c0          	movswq %ax,%rax
   15e06:	8b 55 fc             	mov    -0x4(%rbp),%edx
   15e09:	48 8d 35 c8 31 00 00 	lea    0x31c8(%rip),%rsi        # 18fd8 <g_1058+0x1a8b>
   15e10:	48 89 c7             	mov    %rax,%rdi
   15e13:	e8 db 08 ff ff       	callq  66f3 <transparent_crc>
   15e18:	8b 45 f8             	mov    -0x8(%rbp),%eax
   15e1b:	48 98                	cltq   
   15e1d:	8b 55 f4             	mov    -0xc(%rbp),%edx
   15e20:	48 63 ca             	movslq %edx,%rcx
   15e23:	8b 55 f0             	mov    -0x10(%rbp),%edx
   15e26:	48 63 f2             	movslq %edx,%rsi
   15e29:	48 89 c2             	mov    %rax,%rdx
   15e2c:	48 c1 e2 03          	shl    $0x3,%rdx
   15e30:	48 29 c2             	sub    %rax,%rdx
   15e33:	48 8d 04 12          	lea    (%rdx,%rdx,1),%rax
   15e37:	48 89 c2             	mov    %rax,%rdx
   15e3a:	48 89 c8             	mov    %rcx,%rax
   15e3d:	48 c1 e0 03          	shl    $0x3,%rax
   15e41:	48 29 c8             	sub    %rcx,%rax
   15e44:	48 c1 e0 03          	shl    $0x3,%rax
   15e48:	48 01 c2             	add    %rax,%rdx
   15e4b:	48 69 c6 88 01 00 00 	imul   $0x188,%rsi,%rax
   15e52:	48 01 c2             	add    %rax,%rdx
   15e55:	48 8d 05 24 78 00 00 	lea    0x7824(%rip),%rax        # 1d680 <g_2107>
   15e5c:	48 01 d0             	add    %rdx,%rax
   15e5f:	0f b7 40 06          	movzwl 0x6(%rax),%eax
   15e63:	66 c1 f8 06          	sar    $0x6,%ax
   15e67:	48 0f bf c0          	movswq %ax,%rax
   15e6b:	8b 55 fc             	mov    -0x4(%rbp),%edx
   15e6e:	48 8d 35 76 31 00 00 	lea    0x3176(%rip),%rsi        # 18feb <g_1058+0x1a9e>
   15e75:	48 89 c7             	mov    %rax,%rdi
   15e78:	e8 76 08 ff ff       	callq  66f3 <transparent_crc>
   15e7d:	8b 45 f8             	mov    -0x8(%rbp),%eax
   15e80:	48 98                	cltq   
   15e82:	8b 55 f4             	mov    -0xc(%rbp),%edx
   15e85:	48 63 ca             	movslq %edx,%rcx
   15e88:	8b 55 f0             	mov    -0x10(%rbp),%edx
   15e8b:	48 63 f2             	movslq %edx,%rsi
   15e8e:	48 89 c2             	mov    %rax,%rdx
   15e91:	48 c1 e2 03          	shl    $0x3,%rdx
   15e95:	48 29 c2             	sub    %rax,%rdx
   15e98:	48 8d 04 12          	lea    (%rdx,%rdx,1),%rax
   15e9c:	48 89 c2             	mov    %rax,%rdx
   15e9f:	48 89 c8             	mov    %rcx,%rax
   15ea2:	48 c1 e0 03          	shl    $0x3,%rax
   15ea6:	48 29 c8             	sub    %rcx,%rax
   15ea9:	48 c1 e0 03          	shl    $0x3,%rax
   15ead:	48 01 c2             	add    %rax,%rdx
   15eb0:	48 69 c6 88 01 00 00 	imul   $0x188,%rsi,%rax
   15eb7:	48 01 c2             	add    %rax,%rdx
   15eba:	48 8d 05 bf 77 00 00 	lea    0x77bf(%rip),%rax        # 1d680 <g_2107>
   15ec1:	48 01 d0             	add    %rdx,%rax
   15ec4:	0f b7 50 08          	movzwl 0x8(%rax),%edx
   15ec8:	0f b7 d2             	movzwl %dx,%edx
   15ecb:	0f b7 40 0a          	movzwl 0xa(%rax),%eax
   15ecf:	0f b7 c0             	movzwl %ax,%eax
   15ed2:	25 ff 07 00 00       	and    $0x7ff,%eax
   15ed7:	48 c1 e0 10          	shl    $0x10,%rax
   15edb:	48 09 d0             	or     %rdx,%rax
   15ede:	89 c1                	mov    %eax,%ecx
   15ee0:	8b 45 fc             	mov    -0x4(%rbp),%eax
   15ee3:	89 c2                	mov    %eax,%edx
   15ee5:	48 8d 35 12 31 00 00 	lea    0x3112(%rip),%rsi        # 18ffe <g_1058+0x1ab1>
   15eec:	48 89 cf             	mov    %rcx,%rdi
   15eef:	e8 ff 07 ff ff       	callq  66f3 <transparent_crc>
   15ef4:	8b 45 f8             	mov    -0x8(%rbp),%eax
   15ef7:	48 98                	cltq   
   15ef9:	8b 55 f4             	mov    -0xc(%rbp),%edx
   15efc:	48 63 ca             	movslq %edx,%rcx
   15eff:	8b 55 f0             	mov    -0x10(%rbp),%edx
   15f02:	48 63 f2             	movslq %edx,%rsi
   15f05:	48 89 c2             	mov    %rax,%rdx
   15f08:	48 c1 e2 03          	shl    $0x3,%rdx
   15f0c:	48 29 c2             	sub    %rax,%rdx
   15f0f:	48 8d 04 12          	lea    (%rdx,%rdx,1),%rax
   15f13:	48 89 c2             	mov    %rax,%rdx
   15f16:	48 89 c8             	mov    %rcx,%rax
   15f19:	48 c1 e0 03          	shl    $0x3,%rax
   15f1d:	48 29 c8             	sub    %rcx,%rax
   15f20:	48 c1 e0 03          	shl    $0x3,%rax
   15f24:	48 01 c2             	add    %rax,%rdx
   15f27:	48 69 c6 88 01 00 00 	imul   $0x188,%rsi,%rax
   15f2e:	48 01 c2             	add    %rax,%rdx
   15f31:	48 8d 05 48 77 00 00 	lea    0x7748(%rip),%rax        # 1d680 <g_2107>
   15f38:	48 01 d0             	add    %rdx,%rax
   15f3b:	0f b6 50 0b          	movzbl 0xb(%rax),%edx
   15f3f:	c0 ea 03             	shr    $0x3,%dl
   15f42:	0f b6 d2             	movzbl %dl,%edx
   15f45:	0f b7 40 0c          	movzwl 0xc(%rax),%eax
   15f49:	25 ff 01 00 00       	and    $0x1ff,%eax
   15f4e:	48 c1 e0 05          	shl    $0x5,%rax
   15f52:	48 09 d0             	or     %rdx,%rax
   15f55:	0f b7 c0             	movzwl %ax,%eax
   15f58:	8b 55 fc             	mov    -0x4(%rbp),%edx
   15f5b:	48 8d 35 af 30 00 00 	lea    0x30af(%rip),%rsi        # 19011 <g_1058+0x1ac4>
   15f62:	48 89 c7             	mov    %rax,%rdi
   15f65:	e8 89 07 ff ff       	callq  66f3 <transparent_crc>
   15f6a:	83 7d fc 00          	cmpl   $0x0,-0x4(%rbp)
   15f6e:	74 1c                	je     15f8c <main+0x27f5>
   15f70:	8b 4d f8             	mov    -0x8(%rbp),%ecx
   15f73:	8b 55 f4             	mov    -0xc(%rbp),%edx
   15f76:	8b 45 f0             	mov    -0x10(%rbp),%eax
   15f79:	89 c6                	mov    %eax,%esi
   15f7b:	48 8d 3d b1 29 00 00 	lea    0x29b1(%rip),%rdi        # 18933 <g_1058+0x13e6>
   15f82:	b8 00 00 00 00       	mov    $0x0,%eax
   15f87:	e8 f4 f0 fe ff       	callq  5080 <printf@plt>
   15f8c:	83 45 f8 01          	addl   $0x1,-0x8(%rbp)
   15f90:	83 7d f8 03          	cmpl   $0x3,-0x8(%rbp)
   15f94:	0f 8e 9f fc ff ff    	jle    15c39 <main+0x24a2>
   15f9a:	83 45 f4 01          	addl   $0x1,-0xc(%rbp)
   15f9e:	83 7d f4 06          	cmpl   $0x6,-0xc(%rbp)
   15fa2:	0f 8e 85 fc ff ff    	jle    15c2d <main+0x2496>
   15fa8:	83 45 f0 01          	addl   $0x1,-0x10(%rbp)
   15fac:	83 7d f0 08          	cmpl   $0x8,-0x10(%rbp)
   15fb0:	0f 8e 6b fc ff ff    	jle    15c21 <main+0x248a>
   15fb6:	0f b7 05 8b 84 00 00 	movzwl 0x848b(%rip),%eax        # 1e448 <g_2188>
   15fbd:	66 25 ff 0f          	and    $0xfff,%ax
   15fc1:	0f b7 c0             	movzwl %ax,%eax
   15fc4:	8b 55 fc             	mov    -0x4(%rbp),%edx
   15fc7:	48 8d 35 56 30 00 00 	lea    0x3056(%rip),%rsi        # 19024 <g_1058+0x1ad7>
   15fce:	48 89 c7             	mov    %rax,%rdi
   15fd1:	e8 1d 07 ff ff       	callq  66f3 <transparent_crc>
   15fd6:	8b 05 6c 84 00 00    	mov    0x846c(%rip),%eax        # 1e448 <g_2188>
   15fdc:	01 c0                	add    %eax,%eax
   15fde:	c1 f8 0d             	sar    $0xd,%eax
   15fe1:	48 98                	cltq   
   15fe3:	8b 55 fc             	mov    -0x4(%rbp),%edx
   15fe6:	48 8d 35 41 30 00 00 	lea    0x3041(%rip),%rsi        # 1902e <g_1058+0x1ae1>
   15fed:	48 89 c7             	mov    %rax,%rdi
   15ff0:	e8 fe 06 ff ff       	callq  66f3 <transparent_crc>
   15ff5:	48 8b 05 4c 84 00 00 	mov    0x844c(%rip),%rax        # 1e448 <g_2188>
   15ffc:	48 c1 e0 17          	shl    $0x17,%rax
   16000:	48 c1 f8 36          	sar    $0x36,%rax
   16004:	48 0f bf c0          	movswq %ax,%rax
   16008:	8b 55 fc             	mov    -0x4(%rbp),%edx
   1600b:	48 8d 35 26 30 00 00 	lea    0x3026(%rip),%rsi        # 19038 <g_1058+0x1aeb>
   16012:	48 89 c7             	mov    %rax,%rdi
   16015:	e8 d9 06 ff ff       	callq  66f3 <transparent_crc>
   1601a:	48 8b 05 27 84 00 00 	mov    0x8427(%rip),%rax        # 1e448 <g_2188>
   16021:	48 c1 e0 0a          	shl    $0xa,%rax
   16025:	48 c1 f8 33          	sar    $0x33,%rax
   16029:	48 0f bf c0          	movswq %ax,%rax
   1602d:	8b 55 fc             	mov    -0x4(%rbp),%edx
   16030:	48 8d 35 0b 30 00 00 	lea    0x300b(%rip),%rsi        # 19042 <g_1058+0x1af5>
   16037:	48 89 c7             	mov    %rax,%rdi
   1603a:	e8 b4 06 ff ff       	callq  66f3 <transparent_crc>
   1603f:	48 8b 05 02 84 00 00 	mov    0x8402(%rip),%rax        # 1e448 <g_2188>
   16046:	48 c1 f8 36          	sar    $0x36,%rax
   1604a:	48 0f bf c0          	movswq %ax,%rax
   1604e:	8b 55 fc             	mov    -0x4(%rbp),%edx
   16051:	48 8d 35 f4 2f 00 00 	lea    0x2ff4(%rip),%rsi        # 1904c <g_1058+0x1aff>
   16058:	48 89 c7             	mov    %rax,%rdi
   1605b:	e8 93 06 ff ff       	callq  66f3 <transparent_crc>
   16060:	48 8b 05 e9 83 00 00 	mov    0x83e9(%rip),%rax        # 1e450 <g_2188+0x8>
   16067:	25 ff ff ff 07       	and    $0x7ffffff,%eax
   1606c:	89 c1                	mov    %eax,%ecx
   1606e:	8b 45 fc             	mov    -0x4(%rbp),%eax
   16071:	89 c2                	mov    %eax,%edx
   16073:	48 8d 35 dc 2f 00 00 	lea    0x2fdc(%rip),%rsi        # 19056 <g_1058+0x1b09>
   1607a:	48 89 cf             	mov    %rcx,%rdi
   1607d:	e8 71 06 ff ff       	callq  66f3 <transparent_crc>
   16082:	48 8b 05 c7 83 00 00 	mov    0x83c7(%rip),%rax        # 1e450 <g_2188+0x8>
   16089:	48 c1 e8 1b          	shr    $0x1b,%rax
   1608d:	66 25 ff 3f          	and    $0x3fff,%ax
   16091:	0f b7 c0             	movzwl %ax,%eax
   16094:	8b 55 fc             	mov    -0x4(%rbp),%edx
   16097:	48 8d 35 c2 2f 00 00 	lea    0x2fc2(%rip),%rsi        # 19060 <g_1058+0x1b13>
   1609e:	48 89 c7             	mov    %rax,%rdi
   160a1:	e8 4d 06 ff ff       	callq  66f3 <transparent_crc>
   160a6:	48 8b 05 ab 83 00 00 	mov    0x83ab(%rip),%rax        # 1e458 <g_2247>
   160ad:	66 25 ff 0f          	and    $0xfff,%ax
   160b1:	0f b7 c0             	movzwl %ax,%eax
   160b4:	8b 55 fc             	mov    -0x4(%rbp),%edx
   160b7:	48 8d 35 ac 2f 00 00 	lea    0x2fac(%rip),%rsi        # 1906a <g_1058+0x1b1d>
   160be:	48 89 c7             	mov    %rax,%rdi
   160c1:	e8 2d 06 ff ff       	callq  66f3 <transparent_crc>
   160c6:	48 8b 05 8b 83 00 00 	mov    0x838b(%rip),%rax        # 1e458 <g_2247>
   160cd:	01 c0                	add    %eax,%eax
   160cf:	c1 f8 0d             	sar    $0xd,%eax
   160d2:	48 98                	cltq   
   160d4:	8b 55 fc             	mov    -0x4(%rbp),%edx
   160d7:	48 8d 35 96 2f 00 00 	lea    0x2f96(%rip),%rsi        # 19074 <g_1058+0x1b27>
   160de:	48 89 c7             	mov    %rax,%rdi
   160e1:	e8 0d 06 ff ff       	callq  66f3 <transparent_crc>
   160e6:	48 8b 05 6b 83 00 00 	mov    0x836b(%rip),%rax        # 1e458 <g_2247>
   160ed:	48 c1 e0 17          	shl    $0x17,%rax
   160f1:	48 c1 f8 36          	sar    $0x36,%rax
   160f5:	48 0f bf c0          	movswq %ax,%rax
   160f9:	8b 55 fc             	mov    -0x4(%rbp),%edx
   160fc:	48 8d 35 7b 2f 00 00 	lea    0x2f7b(%rip),%rsi        # 1907e <g_1058+0x1b31>
   16103:	48 89 c7             	mov    %rax,%rdi
   16106:	e8 e8 05 ff ff       	callq  66f3 <transparent_crc>
   1610b:	48 8b 05 46 83 00 00 	mov    0x8346(%rip),%rax        # 1e458 <g_2247>
   16112:	48 c1 e0 0a          	shl    $0xa,%rax
   16116:	48 c1 f8 33          	sar    $0x33,%rax
   1611a:	48 0f bf c0          	movswq %ax,%rax
   1611e:	8b 55 fc             	mov    -0x4(%rbp),%edx
   16121:	48 8d 35 60 2f 00 00 	lea    0x2f60(%rip),%rsi        # 19088 <g_1058+0x1b3b>
   16128:	48 89 c7             	mov    %rax,%rdi
   1612b:	e8 c3 05 ff ff       	callq  66f3 <transparent_crc>
   16130:	48 8b 05 21 83 00 00 	mov    0x8321(%rip),%rax        # 1e458 <g_2247>
   16137:	48 c1 f8 36          	sar    $0x36,%rax
   1613b:	48 0f bf c0          	movswq %ax,%rax
   1613f:	8b 55 fc             	mov    -0x4(%rbp),%edx
   16142:	48 8d 35 49 2f 00 00 	lea    0x2f49(%rip),%rsi        # 19092 <g_1058+0x1b45>
   16149:	48 89 c7             	mov    %rax,%rdi
   1614c:	e8 a2 05 ff ff       	callq  66f3 <transparent_crc>
   16151:	48 8b 05 08 83 00 00 	mov    0x8308(%rip),%rax        # 1e460 <g_2247+0x8>
   16158:	25 ff ff ff 07       	and    $0x7ffffff,%eax
   1615d:	89 c1                	mov    %eax,%ecx
   1615f:	8b 45 fc             	mov    -0x4(%rbp),%eax
   16162:	89 c2                	mov    %eax,%edx
   16164:	48 8d 35 31 2f 00 00 	lea    0x2f31(%rip),%rsi        # 1909c <g_1058+0x1b4f>
   1616b:	48 89 cf             	mov    %rcx,%rdi
   1616e:	e8 80 05 ff ff       	callq  66f3 <transparent_crc>
   16173:	48 8b 05 e6 82 00 00 	mov    0x82e6(%rip),%rax        # 1e460 <g_2247+0x8>
   1617a:	48 c1 e8 1b          	shr    $0x1b,%rax
   1617e:	66 25 ff 3f          	and    $0x3fff,%ax
   16182:	0f b7 c0             	movzwl %ax,%eax
   16185:	8b 55 fc             	mov    -0x4(%rbp),%edx
   16188:	48 8d 35 17 2f 00 00 	lea    0x2f17(%rip),%rsi        # 190a6 <g_1058+0x1b59>
   1618f:	48 89 c7             	mov    %rax,%rdi
   16192:	e8 5c 05 ff ff       	callq  66f3 <transparent_crc>
   16197:	48 8b 05 ca 82 00 00 	mov    0x82ca(%rip),%rax        # 1e468 <g_2287>
   1619e:	66 25 ff 0f          	and    $0xfff,%ax
   161a2:	0f b7 c0             	movzwl %ax,%eax
   161a5:	8b 55 fc             	mov    -0x4(%rbp),%edx
   161a8:	48 8d 35 01 2f 00 00 	lea    0x2f01(%rip),%rsi        # 190b0 <g_1058+0x1b63>
   161af:	48 89 c7             	mov    %rax,%rdi
   161b2:	e8 3c 05 ff ff       	callq  66f3 <transparent_crc>
   161b7:	48 8b 05 aa 82 00 00 	mov    0x82aa(%rip),%rax        # 1e468 <g_2287>
   161be:	01 c0                	add    %eax,%eax
   161c0:	c1 f8 0d             	sar    $0xd,%eax
   161c3:	48 98                	cltq   
   161c5:	8b 55 fc             	mov    -0x4(%rbp),%edx
   161c8:	48 8d 35 eb 2e 00 00 	lea    0x2eeb(%rip),%rsi        # 190ba <g_1058+0x1b6d>
   161cf:	48 89 c7             	mov    %rax,%rdi
   161d2:	e8 1c 05 ff ff       	callq  66f3 <transparent_crc>
   161d7:	48 8b 05 8a 82 00 00 	mov    0x828a(%rip),%rax        # 1e468 <g_2287>
   161de:	48 c1 e0 17          	shl    $0x17,%rax
   161e2:	48 c1 f8 36          	sar    $0x36,%rax
   161e6:	48 0f bf c0          	movswq %ax,%rax
   161ea:	8b 55 fc             	mov    -0x4(%rbp),%edx
   161ed:	48 8d 35 d0 2e 00 00 	lea    0x2ed0(%rip),%rsi        # 190c4 <g_1058+0x1b77>
   161f4:	48 89 c7             	mov    %rax,%rdi
   161f7:	e8 f7 04 ff ff       	callq  66f3 <transparent_crc>
   161fc:	48 8b 05 65 82 00 00 	mov    0x8265(%rip),%rax        # 1e468 <g_2287>
   16203:	48 c1 e0 0a          	shl    $0xa,%rax
   16207:	48 c1 f8 33          	sar    $0x33,%rax
   1620b:	48 0f bf c0          	movswq %ax,%rax
   1620f:	8b 55 fc             	mov    -0x4(%rbp),%edx
   16212:	48 8d 35 b5 2e 00 00 	lea    0x2eb5(%rip),%rsi        # 190ce <g_1058+0x1b81>
   16219:	48 89 c7             	mov    %rax,%rdi
   1621c:	e8 d2 04 ff ff       	callq  66f3 <transparent_crc>
   16221:	48 8b 05 40 82 00 00 	mov    0x8240(%rip),%rax        # 1e468 <g_2287>
   16228:	48 c1 f8 36          	sar    $0x36,%rax
   1622c:	48 0f bf c0          	movswq %ax,%rax
   16230:	8b 55 fc             	mov    -0x4(%rbp),%edx
   16233:	48 8d 35 9e 2e 00 00 	lea    0x2e9e(%rip),%rsi        # 190d8 <g_1058+0x1b8b>
   1623a:	48 89 c7             	mov    %rax,%rdi
   1623d:	e8 b1 04 ff ff       	callq  66f3 <transparent_crc>
   16242:	48 8b 05 27 82 00 00 	mov    0x8227(%rip),%rax        # 1e470 <g_2287+0x8>
   16249:	25 ff ff ff 07       	and    $0x7ffffff,%eax
   1624e:	89 c1                	mov    %eax,%ecx
   16250:	8b 45 fc             	mov    -0x4(%rbp),%eax
   16253:	89 c2                	mov    %eax,%edx
   16255:	48 8d 35 86 2e 00 00 	lea    0x2e86(%rip),%rsi        # 190e2 <g_1058+0x1b95>
   1625c:	48 89 cf             	mov    %rcx,%rdi
   1625f:	e8 8f 04 ff ff       	callq  66f3 <transparent_crc>
   16264:	48 8b 05 05 82 00 00 	mov    0x8205(%rip),%rax        # 1e470 <g_2287+0x8>
   1626b:	48 c1 e8 1b          	shr    $0x1b,%rax
   1626f:	66 25 ff 3f          	and    $0x3fff,%ax
   16273:	0f b7 c0             	movzwl %ax,%eax
   16276:	8b 55 fc             	mov    -0x4(%rbp),%edx
   16279:	48 8d 35 6c 2e 00 00 	lea    0x2e6c(%rip),%rsi        # 190ec <g_1058+0x1b9f>
   16280:	48 89 c7             	mov    %rax,%rdi
   16283:	e8 6b 04 ff ff       	callq  66f3 <transparent_crc>
   16288:	48 8b 05 e9 81 00 00 	mov    0x81e9(%rip),%rax        # 1e478 <g_2309>
   1628f:	66 25 ff 0f          	and    $0xfff,%ax
   16293:	0f b7 c0             	movzwl %ax,%eax
   16296:	8b 55 fc             	mov    -0x4(%rbp),%edx
   16299:	48 8d 35 56 2e 00 00 	lea    0x2e56(%rip),%rsi        # 190f6 <g_1058+0x1ba9>
   162a0:	48 89 c7             	mov    %rax,%rdi
   162a3:	e8 4b 04 ff ff       	callq  66f3 <transparent_crc>
   162a8:	48 8b 05 c9 81 00 00 	mov    0x81c9(%rip),%rax        # 1e478 <g_2309>
   162af:	01 c0                	add    %eax,%eax
   162b1:	c1 f8 0d             	sar    $0xd,%eax
   162b4:	48 98                	cltq   
   162b6:	8b 55 fc             	mov    -0x4(%rbp),%edx
   162b9:	48 8d 35 40 2e 00 00 	lea    0x2e40(%rip),%rsi        # 19100 <g_1058+0x1bb3>
   162c0:	48 89 c7             	mov    %rax,%rdi
   162c3:	e8 2b 04 ff ff       	callq  66f3 <transparent_crc>
   162c8:	48 8b 05 a9 81 00 00 	mov    0x81a9(%rip),%rax        # 1e478 <g_2309>
   162cf:	48 c1 e0 17          	shl    $0x17,%rax
   162d3:	48 c1 f8 36          	sar    $0x36,%rax
   162d7:	48 0f bf c0          	movswq %ax,%rax
   162db:	8b 55 fc             	mov    -0x4(%rbp),%edx
   162de:	48 8d 35 25 2e 00 00 	lea    0x2e25(%rip),%rsi        # 1910a <g_1058+0x1bbd>
   162e5:	48 89 c7             	mov    %rax,%rdi
   162e8:	e8 06 04 ff ff       	callq  66f3 <transparent_crc>
   162ed:	48 8b 05 84 81 00 00 	mov    0x8184(%rip),%rax        # 1e478 <g_2309>
   162f4:	48 c1 e0 0a          	shl    $0xa,%rax
   162f8:	48 c1 f8 33          	sar    $0x33,%rax
   162fc:	48 0f bf c0          	movswq %ax,%rax
   16300:	8b 55 fc             	mov    -0x4(%rbp),%edx
   16303:	48 8d 35 0a 2e 00 00 	lea    0x2e0a(%rip),%rsi        # 19114 <g_1058+0x1bc7>
   1630a:	48 89 c7             	mov    %rax,%rdi
   1630d:	e8 e1 03 ff ff       	callq  66f3 <transparent_crc>
   16312:	48 8b 05 5f 81 00 00 	mov    0x815f(%rip),%rax        # 1e478 <g_2309>
   16319:	48 c1 f8 36          	sar    $0x36,%rax
   1631d:	48 0f bf c0          	movswq %ax,%rax
   16321:	8b 55 fc             	mov    -0x4(%rbp),%edx
   16324:	48 8d 35 f3 2d 00 00 	lea    0x2df3(%rip),%rsi        # 1911e <g_1058+0x1bd1>
   1632b:	48 89 c7             	mov    %rax,%rdi
   1632e:	e8 c0 03 ff ff       	callq  66f3 <transparent_crc>
   16333:	48 8b 05 46 81 00 00 	mov    0x8146(%rip),%rax        # 1e480 <g_2309+0x8>
   1633a:	25 ff ff ff 07       	and    $0x7ffffff,%eax
   1633f:	89 c1                	mov    %eax,%ecx
   16341:	8b 45 fc             	mov    -0x4(%rbp),%eax
   16344:	89 c2                	mov    %eax,%edx
   16346:	48 8d 35 db 2d 00 00 	lea    0x2ddb(%rip),%rsi        # 19128 <g_1058+0x1bdb>
   1634d:	48 89 cf             	mov    %rcx,%rdi
   16350:	e8 9e 03 ff ff       	callq  66f3 <transparent_crc>
   16355:	48 8b 05 24 81 00 00 	mov    0x8124(%rip),%rax        # 1e480 <g_2309+0x8>
   1635c:	48 c1 e8 1b          	shr    $0x1b,%rax
   16360:	66 25 ff 3f          	and    $0x3fff,%ax
   16364:	0f b7 c0             	movzwl %ax,%eax
   16367:	8b 55 fc             	mov    -0x4(%rbp),%edx
   1636a:	48 8d 35 c1 2d 00 00 	lea    0x2dc1(%rip),%rsi        # 19132 <g_1058+0x1be5>
   16371:	48 89 c7             	mov    %rax,%rdi
   16374:	e8 7a 03 ff ff       	callq  66f3 <transparent_crc>
   16379:	8b 05 09 81 00 00    	mov    0x8109(%rip),%eax        # 1e488 <g_2418>
   1637f:	89 c1                	mov    %eax,%ecx
   16381:	8b 45 fc             	mov    -0x4(%rbp),%eax
   16384:	89 c2                	mov    %eax,%edx
   16386:	48 8d 35 af 2d 00 00 	lea    0x2daf(%rip),%rsi        # 1913c <g_1058+0x1bef>
   1638d:	48 89 cf             	mov    %rcx,%rdi
   16390:	e8 5e 03 ff ff       	callq  66f3 <transparent_crc>
   16395:	48 8b 05 f4 80 00 00 	mov    0x80f4(%rip),%rax        # 1e490 <g_2428>
   1639c:	66 25 ff 0f          	and    $0xfff,%ax
   163a0:	0f b7 c0             	movzwl %ax,%eax
   163a3:	8b 55 fc             	mov    -0x4(%rbp),%edx
   163a6:	48 8d 35 96 2d 00 00 	lea    0x2d96(%rip),%rsi        # 19143 <g_1058+0x1bf6>
   163ad:	48 89 c7             	mov    %rax,%rdi
   163b0:	e8 3e 03 ff ff       	callq  66f3 <transparent_crc>
   163b5:	48 8b 05 d4 80 00 00 	mov    0x80d4(%rip),%rax        # 1e490 <g_2428>
   163bc:	01 c0                	add    %eax,%eax
   163be:	c1 f8 0d             	sar    $0xd,%eax
   163c1:	48 98                	cltq   
   163c3:	8b 55 fc             	mov    -0x4(%rbp),%edx
   163c6:	48 8d 35 80 2d 00 00 	lea    0x2d80(%rip),%rsi        # 1914d <g_1058+0x1c00>
   163cd:	48 89 c7             	mov    %rax,%rdi
   163d0:	e8 1e 03 ff ff       	callq  66f3 <transparent_crc>
   163d5:	48 8b 05 b4 80 00 00 	mov    0x80b4(%rip),%rax        # 1e490 <g_2428>
   163dc:	48 c1 e0 17          	shl    $0x17,%rax
   163e0:	48 c1 f8 36          	sar    $0x36,%rax
   163e4:	48 0f bf c0          	movswq %ax,%rax
   163e8:	8b 55 fc             	mov    -0x4(%rbp),%edx
   163eb:	48 8d 35 65 2d 00 00 	lea    0x2d65(%rip),%rsi        # 19157 <g_1058+0x1c0a>
   163f2:	48 89 c7             	mov    %rax,%rdi
   163f5:	e8 f9 02 ff ff       	callq  66f3 <transparent_crc>
   163fa:	48 8b 05 8f 80 00 00 	mov    0x808f(%rip),%rax        # 1e490 <g_2428>
   16401:	48 c1 e0 0a          	shl    $0xa,%rax
   16405:	48 c1 f8 33          	sar    $0x33,%rax
   16409:	48 0f bf c0          	movswq %ax,%rax
   1640d:	8b 55 fc             	mov    -0x4(%rbp),%edx
   16410:	48 8d 35 4a 2d 00 00 	lea    0x2d4a(%rip),%rsi        # 19161 <g_1058+0x1c14>
   16417:	48 89 c7             	mov    %rax,%rdi
   1641a:	e8 d4 02 ff ff       	callq  66f3 <transparent_crc>
   1641f:	48 8b 05 6a 80 00 00 	mov    0x806a(%rip),%rax        # 1e490 <g_2428>
   16426:	48 c1 f8 36          	sar    $0x36,%rax
   1642a:	48 0f bf c0          	movswq %ax,%rax
   1642e:	8b 55 fc             	mov    -0x4(%rbp),%edx
   16431:	48 8d 35 33 2d 00 00 	lea    0x2d33(%rip),%rsi        # 1916b <g_1058+0x1c1e>
   16438:	48 89 c7             	mov    %rax,%rdi
   1643b:	e8 b3 02 ff ff       	callq  66f3 <transparent_crc>
   16440:	48 8b 05 51 80 00 00 	mov    0x8051(%rip),%rax        # 1e498 <g_2428+0x8>
   16447:	25 ff ff ff 07       	and    $0x7ffffff,%eax
   1644c:	89 c1                	mov    %eax,%ecx
   1644e:	8b 45 fc             	mov    -0x4(%rbp),%eax
   16451:	89 c2                	mov    %eax,%edx
   16453:	48 8d 35 1b 2d 00 00 	lea    0x2d1b(%rip),%rsi        # 19175 <g_1058+0x1c28>
   1645a:	48 89 cf             	mov    %rcx,%rdi
   1645d:	e8 91 02 ff ff       	callq  66f3 <transparent_crc>
   16462:	48 8b 05 2f 80 00 00 	mov    0x802f(%rip),%rax        # 1e498 <g_2428+0x8>
   16469:	48 c1 e8 1b          	shr    $0x1b,%rax
   1646d:	66 25 ff 3f          	and    $0x3fff,%ax
   16471:	0f b7 c0             	movzwl %ax,%eax
   16474:	8b 55 fc             	mov    -0x4(%rbp),%edx
   16477:	48 8d 35 01 2d 00 00 	lea    0x2d01(%rip),%rsi        # 1917f <g_1058+0x1c32>
   1647e:	48 89 c7             	mov    %rax,%rdi
   16481:	e8 6d 02 ff ff       	callq  66f3 <transparent_crc>
   16486:	8b 05 14 80 00 00    	mov    0x8014(%rip),%eax        # 1e4a0 <g_2462>
   1648c:	89 c1                	mov    %eax,%ecx
   1648e:	8b 45 fc             	mov    -0x4(%rbp),%eax
   16491:	89 c2                	mov    %eax,%edx
   16493:	48 8d 35 ef 2c 00 00 	lea    0x2cef(%rip),%rsi        # 19189 <g_1058+0x1c3c>
   1649a:	48 89 cf             	mov    %rcx,%rdi
   1649d:	e8 51 02 ff ff       	callq  66f3 <transparent_crc>
   164a2:	8b 05 78 5b 00 00    	mov    0x5b78(%rip),%eax        # 1c020 <crc32_context>
   164a8:	f7 d0                	not    %eax
   164aa:	89 c2                	mov    %eax,%edx
   164ac:	8b 45 fc             	mov    -0x4(%rbp),%eax
   164af:	89 c6                	mov    %eax,%esi
   164b1:	89 d7                	mov    %edx,%edi
   164b3:	e8 dc ec fe ff       	callq  5194 <platform_main_end>
   164b8:	b8 00 00 00 00       	mov    $0x0,%eax
   164bd:	c9                   	leaveq 
   164be:	c3                   	retq   
   164bf:	90                   	nop

00000000000164c0 <__libc_csu_init>:
   164c0:	f3 0f 1e fa          	endbr64 
   164c4:	41 57                	push   %r15
   164c6:	4c 8d 3d cb 58 00 00 	lea    0x58cb(%rip),%r15        # 1bd98 <__frame_dummy_init_array_entry>
   164cd:	41 56                	push   %r14
   164cf:	49 89 d6             	mov    %rdx,%r14
   164d2:	41 55                	push   %r13
   164d4:	49 89 f5             	mov    %rsi,%r13
   164d7:	41 54                	push   %r12
   164d9:	41 89 fc             	mov    %edi,%r12d
   164dc:	55                   	push   %rbp
   164dd:	48 8d 2d bc 58 00 00 	lea    0x58bc(%rip),%rbp        # 1bda0 <__do_global_dtors_aux_fini_array_entry>
   164e4:	53                   	push   %rbx
   164e5:	4c 29 fd             	sub    %r15,%rbp
   164e8:	48 83 ec 08          	sub    $0x8,%rsp
   164ec:	e8 0f eb fe ff       	callq  5000 <_init>
   164f1:	48 c1 fd 03          	sar    $0x3,%rbp
   164f5:	74 1f                	je     16516 <__libc_csu_init+0x56>
   164f7:	31 db                	xor    %ebx,%ebx
   164f9:	0f 1f 80 00 00 00 00 	nopl   0x0(%rax)
   16500:	4c 89 f2             	mov    %r14,%rdx
   16503:	4c 89 ee             	mov    %r13,%rsi
   16506:	44 89 e7             	mov    %r12d,%edi
   16509:	41 ff 14 df          	callq  *(%r15,%rbx,8)
   1650d:	48 83 c3 01          	add    $0x1,%rbx
   16511:	48 39 dd             	cmp    %rbx,%rbp
   16514:	75 ea                	jne    16500 <__libc_csu_init+0x40>
   16516:	48 83 c4 08          	add    $0x8,%rsp
   1651a:	5b                   	pop    %rbx
   1651b:	5d                   	pop    %rbp
   1651c:	41 5c                	pop    %r12
   1651e:	41 5d                	pop    %r13
   16520:	41 5e                	pop    %r14
   16522:	41 5f                	pop    %r15
   16524:	c3                   	retq   
   16525:	66 66 2e 0f 1f 84 00 	data16 nopw %cs:0x0(%rax,%rax,1)
   1652c:	00 00 00 00 

0000000000016530 <__libc_csu_fini>:
   16530:	f3 0f 1e fa          	endbr64 
   16534:	c3                   	retq   
