


Disassembly of section .text:

00000000000090a0 <_start>:
    90a0:	f3 0f 1e fa          	endbr64 
    90a4:	31 ed                	xor    %ebp,%ebp
    90a6:	49 89 d1             	mov    %rdx,%r9
    90a9:	5e                   	pop    %rsi
    90aa:	48 89 e2             	mov    %rsp,%rdx
    90ad:	48 83 e4 f0          	and    $0xfffffffffffffff0,%rsp
    90b1:	50                   	push   %rax
    90b2:	54                   	push   %rsp
    90b3:	4c 8d 05 06 45 01 00 	lea    0x14506(%rip),%r8        # 1d5c0 <__libc_csu_fini>
    90ba:	48 8d 0d 8f 44 01 00 	lea    0x1448f(%rip),%rcx        # 1d550 <__libc_csu_init>
    90c1:	48 8d 3d d5 33 01 00 	lea    0x133d5(%rip),%rdi        # 1c49d <main>
    90c8:	ff 15 02 af 01 00    	callq  *0x1af02(%rip)        # 23fd0 <__libc_start_main@GLIBC_2.2.5>
    90ce:	f4                   	hlt    
    90cf:	90                   	nop

00000000000090d0 <deregister_tm_clones>:
    90d0:	48 8d 3d 49 f2 01 00 	lea    0x1f249(%rip),%rdi        # 28320 <__TMC_END__>
    90d7:	48 8d 05 42 f2 01 00 	lea    0x1f242(%rip),%rax        # 28320 <__TMC_END__>
    90de:	48 39 f8             	cmp    %rdi,%rax
    90e1:	74 15                	je     90f8 <deregister_tm_clones+0x28>
    90e3:	48 8b 05 de ae 01 00 	mov    0x1aede(%rip),%rax        # 23fc8 <_ITM_deregisterTMCloneTable>
    90ea:	48 85 c0             	test   %rax,%rax
    90ed:	74 09                	je     90f8 <deregister_tm_clones+0x28>
    90ef:	ff e0                	jmpq   *%rax
    90f1:	0f 1f 80 00 00 00 00 	nopl   0x0(%rax)
    90f8:	c3                   	retq   
    90f9:	0f 1f 80 00 00 00 00 	nopl   0x0(%rax)

0000000000009100 <register_tm_clones>:
    9100:	48 8d 3d 19 f2 01 00 	lea    0x1f219(%rip),%rdi        # 28320 <__TMC_END__>
    9107:	48 8d 35 12 f2 01 00 	lea    0x1f212(%rip),%rsi        # 28320 <__TMC_END__>
    910e:	48 29 fe             	sub    %rdi,%rsi
    9111:	48 89 f0             	mov    %rsi,%rax
    9114:	48 c1 ee 3f          	shr    $0x3f,%rsi
    9118:	48 c1 f8 03          	sar    $0x3,%rax
    911c:	48 01 c6             	add    %rax,%rsi
    911f:	48 d1 fe             	sar    %rsi
    9122:	74 14                	je     9138 <register_tm_clones+0x38>
    9124:	48 8b 05 b5 ae 01 00 	mov    0x1aeb5(%rip),%rax        # 23fe0 <_ITM_registerTMCloneTable>
    912b:	48 85 c0             	test   %rax,%rax
    912e:	74 08                	je     9138 <register_tm_clones+0x38>
    9130:	ff e0                	jmpq   *%rax
    9132:	66 0f 1f 44 00 00    	nopw   0x0(%rax,%rax,1)
    9138:	c3                   	retq   
    9139:	0f 1f 80 00 00 00 00 	nopl   0x0(%rax)

0000000000009140 <__do_global_dtors_aux>:
    9140:	f3 0f 1e fa          	endbr64 
    9144:	80 3d d5 f1 01 00 00 	cmpb   $0x0,0x1f1d5(%rip)        # 28320 <__TMC_END__>
    914b:	75 2b                	jne    9178 <__do_global_dtors_aux+0x38>
    914d:	55                   	push   %rbp
    914e:	48 83 3d 92 ae 01 00 	cmpq   $0x0,0x1ae92(%rip)        # 23fe8 <__cxa_finalize@GLIBC_2.2.5>
    9155:	00 
    9156:	48 89 e5             	mov    %rsp,%rbp
    9159:	74 0c                	je     9167 <__do_global_dtors_aux+0x27>
    915b:	48 8b 3d a6 ae 01 00 	mov    0x1aea6(%rip),%rdi        # 24008 <__dso_handle>
    9162:	e8 f9 fe ff ff       	callq  9060 <__cxa_finalize@plt>
    9167:	e8 64 ff ff ff       	callq  90d0 <deregister_tm_clones>
    916c:	c6 05 ad f1 01 00 01 	movb   $0x1,0x1f1ad(%rip)        # 28320 <__TMC_END__>
    9173:	5d                   	pop    %rbp
    9174:	c3                   	retq   
    9175:	0f 1f 00             	nopl   (%rax)
    9178:	c3                   	retq   
    9179:	0f 1f 80 00 00 00 00 	nopl   0x0(%rax)

0000000000009180 <frame_dummy>:
    9180:	f3 0f 1e fa          	endbr64 
    9184:	e9 77 ff ff ff       	jmpq   9100 <register_tm_clones>

0000000000009189 <platform_main_begin>:
    9189:	f3 0f 1e fa          	endbr64 
    918d:	55                   	push   %rbp
    918e:	48 89 e5             	mov    %rsp,%rbp
    9191:	90                   	nop
    9192:	5d                   	pop    %rbp
    9193:	c3                   	retq   

0000000000009194 <platform_main_end>:
    9194:	f3 0f 1e fa          	endbr64 
    9198:	55                   	push   %rbp
    9199:	48 89 e5             	mov    %rsp,%rbp
    919c:	48 83 ec 10          	sub    $0x10,%rsp
    91a0:	89 7d fc             	mov    %edi,-0x4(%rbp)
    91a3:	89 75 f8             	mov    %esi,-0x8(%rbp)
    91a6:	8b 45 fc             	mov    -0x4(%rbp),%eax
    91a9:	89 c6                	mov    %eax,%esi
    91ab:	48 8d 3d 6e 4e 01 00 	lea    0x14e6e(%rip),%rdi        # 1e020 <_IO_stdin_used+0x20>
    91b2:	b8 00 00 00 00       	mov    $0x0,%eax
    91b7:	e8 c4 fe ff ff       	callq  9080 <printf@plt>
    91bc:	90                   	nop
    91bd:	c9                   	leaveq 
    91be:	c3                   	retq   

00000000000091bf <safe_unary_minus_func_int8_t_s>:
    91bf:	f3 0f 1e fa          	endbr64 
    91c3:	55                   	push   %rbp
    91c4:	48 89 e5             	mov    %rsp,%rbp
    91c7:	89 f8                	mov    %edi,%eax
    91c9:	88 45 fc             	mov    %al,-0x4(%rbp)
    91cc:	0f b6 45 fc          	movzbl -0x4(%rbp),%eax
    91d0:	f7 d8                	neg    %eax
    91d2:	5d                   	pop    %rbp
    91d3:	c3                   	retq   

00000000000091d4 <safe_add_func_int8_t_s_s>:
    91d4:	f3 0f 1e fa          	endbr64 
    91d8:	55                   	push   %rbp
    91d9:	48 89 e5             	mov    %rsp,%rbp
    91dc:	89 fa                	mov    %edi,%edx
    91de:	89 f0                	mov    %esi,%eax
    91e0:	88 55 fc             	mov    %dl,-0x4(%rbp)
    91e3:	88 45 f8             	mov    %al,-0x8(%rbp)
    91e6:	0f b6 55 fc          	movzbl -0x4(%rbp),%edx
    91ea:	0f b6 45 f8          	movzbl -0x8(%rbp),%eax
    91ee:	01 d0                	add    %edx,%eax
    91f0:	5d                   	pop    %rbp
    91f1:	c3                   	retq   

00000000000091f2 <safe_sub_func_int8_t_s_s>:
    91f2:	f3 0f 1e fa          	endbr64 
    91f6:	55                   	push   %rbp
    91f7:	48 89 e5             	mov    %rsp,%rbp
    91fa:	89 fa                	mov    %edi,%edx
    91fc:	89 f0                	mov    %esi,%eax
    91fe:	88 55 fc             	mov    %dl,-0x4(%rbp)
    9201:	88 45 f8             	mov    %al,-0x8(%rbp)
    9204:	0f b6 55 fc          	movzbl -0x4(%rbp),%edx
    9208:	0f b6 45 f8          	movzbl -0x8(%rbp),%eax
    920c:	29 c2                	sub    %eax,%edx
    920e:	89 d0                	mov    %edx,%eax
    9210:	5d                   	pop    %rbp
    9211:	c3                   	retq   

0000000000009212 <safe_mul_func_int8_t_s_s>:
    9212:	f3 0f 1e fa          	endbr64 
    9216:	55                   	push   %rbp
    9217:	48 89 e5             	mov    %rsp,%rbp
    921a:	89 fa                	mov    %edi,%edx
    921c:	89 f0                	mov    %esi,%eax
    921e:	88 55 fc             	mov    %dl,-0x4(%rbp)
    9221:	88 45 f8             	mov    %al,-0x8(%rbp)
    9224:	0f b6 45 fc          	movzbl -0x4(%rbp),%eax
    9228:	0f b6 55 f8          	movzbl -0x8(%rbp),%edx
    922c:	0f af c2             	imul   %edx,%eax
    922f:	5d                   	pop    %rbp
    9230:	c3                   	retq   

0000000000009231 <safe_mod_func_int8_t_s_s>:
    9231:	f3 0f 1e fa          	endbr64 
    9235:	55                   	push   %rbp
    9236:	48 89 e5             	mov    %rsp,%rbp
    9239:	89 fa                	mov    %edi,%edx
    923b:	89 f0                	mov    %esi,%eax
    923d:	88 55 fc             	mov    %dl,-0x4(%rbp)
    9240:	88 45 f8             	mov    %al,-0x8(%rbp)
    9243:	80 7d f8 00          	cmpb   $0x0,-0x8(%rbp)
    9247:	74 1b                	je     9264 <safe_mod_func_int8_t_s_s+0x33>
    9249:	80 7d fc 80          	cmpb   $0x80,-0x4(%rbp)
    924d:	75 06                	jne    9255 <safe_mod_func_int8_t_s_s+0x24>
    924f:	80 7d f8 ff          	cmpb   $0xff,-0x8(%rbp)
    9253:	74 0f                	je     9264 <safe_mod_func_int8_t_s_s+0x33>
    9255:	0f be 45 fc          	movsbl -0x4(%rbp),%eax
    9259:	0f be 4d f8          	movsbl -0x8(%rbp),%ecx
    925d:	99                   	cltd   
    925e:	f7 f9                	idiv   %ecx
    9260:	89 d0                	mov    %edx,%eax
    9262:	eb 04                	jmp    9268 <safe_mod_func_int8_t_s_s+0x37>
    9264:	0f b6 45 fc          	movzbl -0x4(%rbp),%eax
    9268:	5d                   	pop    %rbp
    9269:	c3                   	retq   

000000000000926a <safe_div_func_int8_t_s_s>:
    926a:	f3 0f 1e fa          	endbr64 
    926e:	55                   	push   %rbp
    926f:	48 89 e5             	mov    %rsp,%rbp
    9272:	89 fa                	mov    %edi,%edx
    9274:	89 f0                	mov    %esi,%eax
    9276:	88 55 fc             	mov    %dl,-0x4(%rbp)
    9279:	88 45 f8             	mov    %al,-0x8(%rbp)
    927c:	80 7d f8 00          	cmpb   $0x0,-0x8(%rbp)
    9280:	74 19                	je     929b <safe_div_func_int8_t_s_s+0x31>
    9282:	80 7d fc 80          	cmpb   $0x80,-0x4(%rbp)
    9286:	75 06                	jne    928e <safe_div_func_int8_t_s_s+0x24>
    9288:	80 7d f8 ff          	cmpb   $0xff,-0x8(%rbp)
    928c:	74 0d                	je     929b <safe_div_func_int8_t_s_s+0x31>
    928e:	0f be 45 fc          	movsbl -0x4(%rbp),%eax
    9292:	0f be 4d f8          	movsbl -0x8(%rbp),%ecx
    9296:	99                   	cltd   
    9297:	f7 f9                	idiv   %ecx
    9299:	eb 04                	jmp    929f <safe_div_func_int8_t_s_s+0x35>
    929b:	0f b6 45 fc          	movzbl -0x4(%rbp),%eax
    929f:	5d                   	pop    %rbp
    92a0:	c3                   	retq   

00000000000092a1 <safe_lshift_func_int8_t_s_s>:
    92a1:	f3 0f 1e fa          	endbr64 
    92a5:	55                   	push   %rbp
    92a6:	48 89 e5             	mov    %rsp,%rbp
    92a9:	89 f8                	mov    %edi,%eax
    92ab:	89 75 f8             	mov    %esi,-0x8(%rbp)
    92ae:	88 45 fc             	mov    %al,-0x4(%rbp)
    92b1:	80 7d fc 00          	cmpb   $0x0,-0x4(%rbp)
    92b5:	78 31                	js     92e8 <safe_lshift_func_int8_t_s_s+0x47>
    92b7:	83 7d f8 00          	cmpl   $0x0,-0x8(%rbp)
    92bb:	78 2b                	js     92e8 <safe_lshift_func_int8_t_s_s+0x47>
    92bd:	83 7d f8 1f          	cmpl   $0x1f,-0x8(%rbp)
    92c1:	7f 25                	jg     92e8 <safe_lshift_func_int8_t_s_s+0x47>
    92c3:	0f be 55 fc          	movsbl -0x4(%rbp),%edx
    92c7:	8b 45 f8             	mov    -0x8(%rbp),%eax
    92ca:	be 7f 00 00 00       	mov    $0x7f,%esi
    92cf:	89 c1                	mov    %eax,%ecx
    92d1:	d3 fe                	sar    %cl,%esi
    92d3:	89 f0                	mov    %esi,%eax
    92d5:	39 c2                	cmp    %eax,%edx
    92d7:	7f 0f                	jg     92e8 <safe_lshift_func_int8_t_s_s+0x47>
    92d9:	0f be 55 fc          	movsbl -0x4(%rbp),%edx
    92dd:	8b 45 f8             	mov    -0x8(%rbp),%eax
    92e0:	89 c1                	mov    %eax,%ecx
    92e2:	d3 e2                	shl    %cl,%edx
    92e4:	89 d0                	mov    %edx,%eax
    92e6:	eb 04                	jmp    92ec <safe_lshift_func_int8_t_s_s+0x4b>
    92e8:	0f b6 45 fc          	movzbl -0x4(%rbp),%eax
    92ec:	5d                   	pop    %rbp
    92ed:	c3                   	retq   

00000000000092ee <safe_lshift_func_int8_t_s_u>:
    92ee:	f3 0f 1e fa          	endbr64 
    92f2:	55                   	push   %rbp
    92f3:	48 89 e5             	mov    %rsp,%rbp
    92f6:	89 f8                	mov    %edi,%eax
    92f8:	89 75 f8             	mov    %esi,-0x8(%rbp)
    92fb:	88 45 fc             	mov    %al,-0x4(%rbp)
    92fe:	80 7d fc 00          	cmpb   $0x0,-0x4(%rbp)
    9302:	78 2b                	js     932f <safe_lshift_func_int8_t_s_u+0x41>
    9304:	83 7d f8 1f          	cmpl   $0x1f,-0x8(%rbp)
    9308:	77 25                	ja     932f <safe_lshift_func_int8_t_s_u+0x41>
    930a:	0f be 55 fc          	movsbl -0x4(%rbp),%edx
    930e:	8b 45 f8             	mov    -0x8(%rbp),%eax
    9311:	be 7f 00 00 00       	mov    $0x7f,%esi
    9316:	89 c1                	mov    %eax,%ecx
    9318:	d3 fe                	sar    %cl,%esi
    931a:	89 f0                	mov    %esi,%eax
    931c:	39 c2                	cmp    %eax,%edx
    931e:	7f 0f                	jg     932f <safe_lshift_func_int8_t_s_u+0x41>
    9320:	0f be 55 fc          	movsbl -0x4(%rbp),%edx
    9324:	8b 45 f8             	mov    -0x8(%rbp),%eax
    9327:	89 c1                	mov    %eax,%ecx
    9329:	d3 e2                	shl    %cl,%edx
    932b:	89 d0                	mov    %edx,%eax
    932d:	eb 04                	jmp    9333 <safe_lshift_func_int8_t_s_u+0x45>
    932f:	0f b6 45 fc          	movzbl -0x4(%rbp),%eax
    9333:	5d                   	pop    %rbp
    9334:	c3                   	retq   

0000000000009335 <safe_rshift_func_int8_t_s_s>:
    9335:	f3 0f 1e fa          	endbr64 
    9339:	55                   	push   %rbp
    933a:	48 89 e5             	mov    %rsp,%rbp
    933d:	89 f8                	mov    %edi,%eax
    933f:	89 75 f8             	mov    %esi,-0x8(%rbp)
    9342:	88 45 fc             	mov    %al,-0x4(%rbp)
    9345:	80 7d fc 00          	cmpb   $0x0,-0x4(%rbp)
    9349:	78 1b                	js     9366 <safe_rshift_func_int8_t_s_s+0x31>
    934b:	83 7d f8 00          	cmpl   $0x0,-0x8(%rbp)
    934f:	78 15                	js     9366 <safe_rshift_func_int8_t_s_s+0x31>
    9351:	83 7d f8 1f          	cmpl   $0x1f,-0x8(%rbp)
    9355:	7f 0f                	jg     9366 <safe_rshift_func_int8_t_s_s+0x31>
    9357:	0f be 55 fc          	movsbl -0x4(%rbp),%edx
    935b:	8b 45 f8             	mov    -0x8(%rbp),%eax
    935e:	89 c1                	mov    %eax,%ecx
    9360:	d3 fa                	sar    %cl,%edx
    9362:	89 d0                	mov    %edx,%eax
    9364:	eb 04                	jmp    936a <safe_rshift_func_int8_t_s_s+0x35>
    9366:	0f b6 45 fc          	movzbl -0x4(%rbp),%eax
    936a:	5d                   	pop    %rbp
    936b:	c3                   	retq   

000000000000936c <safe_rshift_func_int8_t_s_u>:
    936c:	f3 0f 1e fa          	endbr64 
    9370:	55                   	push   %rbp
    9371:	48 89 e5             	mov    %rsp,%rbp
    9374:	89 f8                	mov    %edi,%eax
    9376:	89 75 f8             	mov    %esi,-0x8(%rbp)
    9379:	88 45 fc             	mov    %al,-0x4(%rbp)
    937c:	80 7d fc 00          	cmpb   $0x0,-0x4(%rbp)
    9380:	78 15                	js     9397 <safe_rshift_func_int8_t_s_u+0x2b>
    9382:	83 7d f8 1f          	cmpl   $0x1f,-0x8(%rbp)
    9386:	77 0f                	ja     9397 <safe_rshift_func_int8_t_s_u+0x2b>
    9388:	0f be 55 fc          	movsbl -0x4(%rbp),%edx
    938c:	8b 45 f8             	mov    -0x8(%rbp),%eax
    938f:	89 c1                	mov    %eax,%ecx
    9391:	d3 fa                	sar    %cl,%edx
    9393:	89 d0                	mov    %edx,%eax
    9395:	eb 04                	jmp    939b <safe_rshift_func_int8_t_s_u+0x2f>
    9397:	0f b6 45 fc          	movzbl -0x4(%rbp),%eax
    939b:	5d                   	pop    %rbp
    939c:	c3                   	retq   

000000000000939d <safe_unary_minus_func_int16_t_s>:
    939d:	f3 0f 1e fa          	endbr64 
    93a1:	55                   	push   %rbp
    93a2:	48 89 e5             	mov    %rsp,%rbp
    93a5:	89 f8                	mov    %edi,%eax
    93a7:	66 89 45 fc          	mov    %ax,-0x4(%rbp)
    93ab:	0f b7 45 fc          	movzwl -0x4(%rbp),%eax
    93af:	f7 d8                	neg    %eax
    93b1:	5d                   	pop    %rbp
    93b2:	c3                   	retq   

00000000000093b3 <safe_add_func_int16_t_s_s>:
    93b3:	f3 0f 1e fa          	endbr64 
    93b7:	55                   	push   %rbp
    93b8:	48 89 e5             	mov    %rsp,%rbp
    93bb:	89 fa                	mov    %edi,%edx
    93bd:	89 f0                	mov    %esi,%eax
    93bf:	66 89 55 fc          	mov    %dx,-0x4(%rbp)
    93c3:	66 89 45 f8          	mov    %ax,-0x8(%rbp)
    93c7:	0f b7 55 fc          	movzwl -0x4(%rbp),%edx
    93cb:	0f b7 45 f8          	movzwl -0x8(%rbp),%eax
    93cf:	01 d0                	add    %edx,%eax
    93d1:	5d                   	pop    %rbp
    93d2:	c3                   	retq   

00000000000093d3 <safe_sub_func_int16_t_s_s>:
    93d3:	f3 0f 1e fa          	endbr64 
    93d7:	55                   	push   %rbp
    93d8:	48 89 e5             	mov    %rsp,%rbp
    93db:	89 fa                	mov    %edi,%edx
    93dd:	89 f0                	mov    %esi,%eax
    93df:	66 89 55 fc          	mov    %dx,-0x4(%rbp)
    93e3:	66 89 45 f8          	mov    %ax,-0x8(%rbp)
    93e7:	0f b7 55 fc          	movzwl -0x4(%rbp),%edx
    93eb:	0f b7 45 f8          	movzwl -0x8(%rbp),%eax
    93ef:	29 c2                	sub    %eax,%edx
    93f1:	89 d0                	mov    %edx,%eax
    93f3:	5d                   	pop    %rbp
    93f4:	c3                   	retq   

00000000000093f5 <safe_mul_func_int16_t_s_s>:
    93f5:	f3 0f 1e fa          	endbr64 
    93f9:	55                   	push   %rbp
    93fa:	48 89 e5             	mov    %rsp,%rbp
    93fd:	89 fa                	mov    %edi,%edx
    93ff:	89 f0                	mov    %esi,%eax
    9401:	66 89 55 fc          	mov    %dx,-0x4(%rbp)
    9405:	66 89 45 f8          	mov    %ax,-0x8(%rbp)
    9409:	0f b7 55 fc          	movzwl -0x4(%rbp),%edx
    940d:	0f b7 45 f8          	movzwl -0x8(%rbp),%eax
    9411:	0f af c2             	imul   %edx,%eax
    9414:	5d                   	pop    %rbp
    9415:	c3                   	retq   

0000000000009416 <safe_mod_func_int16_t_s_s>:
    9416:	f3 0f 1e fa          	endbr64 
    941a:	55                   	push   %rbp
    941b:	48 89 e5             	mov    %rsp,%rbp
    941e:	89 fa                	mov    %edi,%edx
    9420:	89 f0                	mov    %esi,%eax
    9422:	66 89 55 fc          	mov    %dx,-0x4(%rbp)
    9426:	66 89 45 f8          	mov    %ax,-0x8(%rbp)
    942a:	66 83 7d f8 00       	cmpw   $0x0,-0x8(%rbp)
    942f:	74 1e                	je     944f <safe_mod_func_int16_t_s_s+0x39>
    9431:	66 81 7d fc 00 80    	cmpw   $0x8000,-0x4(%rbp)
    9437:	75 07                	jne    9440 <safe_mod_func_int16_t_s_s+0x2a>
    9439:	66 83 7d f8 ff       	cmpw   $0xffff,-0x8(%rbp)
    943e:	74 0f                	je     944f <safe_mod_func_int16_t_s_s+0x39>
    9440:	0f bf 45 fc          	movswl -0x4(%rbp),%eax
    9444:	0f bf 4d f8          	movswl -0x8(%rbp),%ecx
    9448:	99                   	cltd   
    9449:	f7 f9                	idiv   %ecx
    944b:	89 d0                	mov    %edx,%eax
    944d:	eb 04                	jmp    9453 <safe_mod_func_int16_t_s_s+0x3d>
    944f:	0f b7 45 fc          	movzwl -0x4(%rbp),%eax
    9453:	5d                   	pop    %rbp
    9454:	c3                   	retq   

0000000000009455 <safe_div_func_int16_t_s_s>:
    9455:	f3 0f 1e fa          	endbr64 
    9459:	55                   	push   %rbp
    945a:	48 89 e5             	mov    %rsp,%rbp
    945d:	89 fa                	mov    %edi,%edx
    945f:	89 f0                	mov    %esi,%eax
    9461:	66 89 55 fc          	mov    %dx,-0x4(%rbp)
    9465:	66 89 45 f8          	mov    %ax,-0x8(%rbp)
    9469:	66 83 7d f8 00       	cmpw   $0x0,-0x8(%rbp)
    946e:	74 1c                	je     948c <safe_div_func_int16_t_s_s+0x37>
    9470:	66 81 7d fc 00 80    	cmpw   $0x8000,-0x4(%rbp)
    9476:	75 07                	jne    947f <safe_div_func_int16_t_s_s+0x2a>
    9478:	66 83 7d f8 ff       	cmpw   $0xffff,-0x8(%rbp)
    947d:	74 0d                	je     948c <safe_div_func_int16_t_s_s+0x37>
    947f:	0f bf 45 fc          	movswl -0x4(%rbp),%eax
    9483:	0f bf 4d f8          	movswl -0x8(%rbp),%ecx
    9487:	99                   	cltd   
    9488:	f7 f9                	idiv   %ecx
    948a:	eb 04                	jmp    9490 <safe_div_func_int16_t_s_s+0x3b>
    948c:	0f b7 45 fc          	movzwl -0x4(%rbp),%eax
    9490:	5d                   	pop    %rbp
    9491:	c3                   	retq   

0000000000009492 <safe_lshift_func_int16_t_s_s>:
    9492:	f3 0f 1e fa          	endbr64 
    9496:	55                   	push   %rbp
    9497:	48 89 e5             	mov    %rsp,%rbp
    949a:	89 f8                	mov    %edi,%eax
    949c:	89 75 f8             	mov    %esi,-0x8(%rbp)
    949f:	66 89 45 fc          	mov    %ax,-0x4(%rbp)
    94a3:	66 83 7d fc 00       	cmpw   $0x0,-0x4(%rbp)
    94a8:	78 31                	js     94db <safe_lshift_func_int16_t_s_s+0x49>
    94aa:	83 7d f8 00          	cmpl   $0x0,-0x8(%rbp)
    94ae:	78 2b                	js     94db <safe_lshift_func_int16_t_s_s+0x49>
    94b0:	83 7d f8 1f          	cmpl   $0x1f,-0x8(%rbp)
    94b4:	7f 25                	jg     94db <safe_lshift_func_int16_t_s_s+0x49>
    94b6:	0f bf 55 fc          	movswl -0x4(%rbp),%edx
    94ba:	8b 45 f8             	mov    -0x8(%rbp),%eax
    94bd:	be ff 7f 00 00       	mov    $0x7fff,%esi
    94c2:	89 c1                	mov    %eax,%ecx
    94c4:	d3 fe                	sar    %cl,%esi
    94c6:	89 f0                	mov    %esi,%eax
    94c8:	39 c2                	cmp    %eax,%edx
    94ca:	7f 0f                	jg     94db <safe_lshift_func_int16_t_s_s+0x49>
    94cc:	0f bf 55 fc          	movswl -0x4(%rbp),%edx
    94d0:	8b 45 f8             	mov    -0x8(%rbp),%eax
    94d3:	89 c1                	mov    %eax,%ecx
    94d5:	d3 e2                	shl    %cl,%edx
    94d7:	89 d0                	mov    %edx,%eax
    94d9:	eb 04                	jmp    94df <safe_lshift_func_int16_t_s_s+0x4d>
    94db:	0f b7 45 fc          	movzwl -0x4(%rbp),%eax
    94df:	5d                   	pop    %rbp
    94e0:	c3                   	retq   

00000000000094e1 <safe_lshift_func_int16_t_s_u>:
    94e1:	f3 0f 1e fa          	endbr64 
    94e5:	55                   	push   %rbp
    94e6:	48 89 e5             	mov    %rsp,%rbp
    94e9:	89 f8                	mov    %edi,%eax
    94eb:	89 75 f8             	mov    %esi,-0x8(%rbp)
    94ee:	66 89 45 fc          	mov    %ax,-0x4(%rbp)
    94f2:	66 83 7d fc 00       	cmpw   $0x0,-0x4(%rbp)
    94f7:	78 2b                	js     9524 <safe_lshift_func_int16_t_s_u+0x43>
    94f9:	83 7d f8 1f          	cmpl   $0x1f,-0x8(%rbp)
    94fd:	77 25                	ja     9524 <safe_lshift_func_int16_t_s_u+0x43>
    94ff:	0f bf 55 fc          	movswl -0x4(%rbp),%edx
    9503:	8b 45 f8             	mov    -0x8(%rbp),%eax
    9506:	be ff 7f 00 00       	mov    $0x7fff,%esi
    950b:	89 c1                	mov    %eax,%ecx
    950d:	d3 fe                	sar    %cl,%esi
    950f:	89 f0                	mov    %esi,%eax
    9511:	39 c2                	cmp    %eax,%edx
    9513:	7f 0f                	jg     9524 <safe_lshift_func_int16_t_s_u+0x43>
    9515:	0f bf 55 fc          	movswl -0x4(%rbp),%edx
    9519:	8b 45 f8             	mov    -0x8(%rbp),%eax
    951c:	89 c1                	mov    %eax,%ecx
    951e:	d3 e2                	shl    %cl,%edx
    9520:	89 d0                	mov    %edx,%eax
    9522:	eb 04                	jmp    9528 <safe_lshift_func_int16_t_s_u+0x47>
    9524:	0f b7 45 fc          	movzwl -0x4(%rbp),%eax
    9528:	5d                   	pop    %rbp
    9529:	c3                   	retq   

000000000000952a <safe_rshift_func_int16_t_s_s>:
    952a:	f3 0f 1e fa          	endbr64 
    952e:	55                   	push   %rbp
    952f:	48 89 e5             	mov    %rsp,%rbp
    9532:	89 f8                	mov    %edi,%eax
    9534:	89 75 f8             	mov    %esi,-0x8(%rbp)
    9537:	66 89 45 fc          	mov    %ax,-0x4(%rbp)
    953b:	66 83 7d fc 00       	cmpw   $0x0,-0x4(%rbp)
    9540:	78 1b                	js     955d <safe_rshift_func_int16_t_s_s+0x33>
    9542:	83 7d f8 00          	cmpl   $0x0,-0x8(%rbp)
    9546:	78 15                	js     955d <safe_rshift_func_int16_t_s_s+0x33>
    9548:	83 7d f8 1f          	cmpl   $0x1f,-0x8(%rbp)
    954c:	7f 0f                	jg     955d <safe_rshift_func_int16_t_s_s+0x33>
    954e:	0f bf 55 fc          	movswl -0x4(%rbp),%edx
    9552:	8b 45 f8             	mov    -0x8(%rbp),%eax
    9555:	89 c1                	mov    %eax,%ecx
    9557:	d3 fa                	sar    %cl,%edx
    9559:	89 d0                	mov    %edx,%eax
    955b:	eb 04                	jmp    9561 <safe_rshift_func_int16_t_s_s+0x37>
    955d:	0f b7 45 fc          	movzwl -0x4(%rbp),%eax
    9561:	5d                   	pop    %rbp
    9562:	c3                   	retq   

0000000000009563 <safe_rshift_func_int16_t_s_u>:
    9563:	f3 0f 1e fa          	endbr64 
    9567:	55                   	push   %rbp
    9568:	48 89 e5             	mov    %rsp,%rbp
    956b:	89 f8                	mov    %edi,%eax
    956d:	89 75 f8             	mov    %esi,-0x8(%rbp)
    9570:	66 89 45 fc          	mov    %ax,-0x4(%rbp)
    9574:	66 83 7d fc 00       	cmpw   $0x0,-0x4(%rbp)
    9579:	78 15                	js     9590 <safe_rshift_func_int16_t_s_u+0x2d>
    957b:	83 7d f8 1f          	cmpl   $0x1f,-0x8(%rbp)
    957f:	77 0f                	ja     9590 <safe_rshift_func_int16_t_s_u+0x2d>
    9581:	0f bf 55 fc          	movswl -0x4(%rbp),%edx
    9585:	8b 45 f8             	mov    -0x8(%rbp),%eax
    9588:	89 c1                	mov    %eax,%ecx
    958a:	d3 fa                	sar    %cl,%edx
    958c:	89 d0                	mov    %edx,%eax
    958e:	eb 04                	jmp    9594 <safe_rshift_func_int16_t_s_u+0x31>
    9590:	0f b7 45 fc          	movzwl -0x4(%rbp),%eax
    9594:	5d                   	pop    %rbp
    9595:	c3                   	retq   

0000000000009596 <safe_unary_minus_func_int32_t_s>:
    9596:	f3 0f 1e fa          	endbr64 
    959a:	55                   	push   %rbp
    959b:	48 89 e5             	mov    %rsp,%rbp
    959e:	89 7d fc             	mov    %edi,-0x4(%rbp)
    95a1:	81 7d fc 00 00 00 80 	cmpl   $0x80000000,-0x4(%rbp)
    95a8:	74 07                	je     95b1 <safe_unary_minus_func_int32_t_s+0x1b>
    95aa:	8b 45 fc             	mov    -0x4(%rbp),%eax
    95ad:	f7 d8                	neg    %eax
    95af:	eb 03                	jmp    95b4 <safe_unary_minus_func_int32_t_s+0x1e>
    95b1:	8b 45 fc             	mov    -0x4(%rbp),%eax
    95b4:	5d                   	pop    %rbp
    95b5:	c3                   	retq   

00000000000095b6 <safe_add_func_int32_t_s_s>:
    95b6:	f3 0f 1e fa          	endbr64 
    95ba:	55                   	push   %rbp
    95bb:	48 89 e5             	mov    %rsp,%rbp
    95be:	89 7d fc             	mov    %edi,-0x4(%rbp)
    95c1:	89 75 f8             	mov    %esi,-0x8(%rbp)
    95c4:	83 7d fc 00          	cmpl   $0x0,-0x4(%rbp)
    95c8:	7e 13                	jle    95dd <safe_add_func_int32_t_s_s+0x27>
    95ca:	83 7d f8 00          	cmpl   $0x0,-0x8(%rbp)
    95ce:	7e 0d                	jle    95dd <safe_add_func_int32_t_s_s+0x27>
    95d0:	b8 ff ff ff 7f       	mov    $0x7fffffff,%eax
    95d5:	2b 45 f8             	sub    -0x8(%rbp),%eax
    95d8:	39 45 fc             	cmp    %eax,-0x4(%rbp)
    95db:	7f 23                	jg     9600 <safe_add_func_int32_t_s_s+0x4a>
    95dd:	83 7d fc 00          	cmpl   $0x0,-0x4(%rbp)
    95e1:	79 13                	jns    95f6 <safe_add_func_int32_t_s_s+0x40>
    95e3:	83 7d f8 00          	cmpl   $0x0,-0x8(%rbp)
    95e7:	79 0d                	jns    95f6 <safe_add_func_int32_t_s_s+0x40>
    95e9:	b8 00 00 00 80       	mov    $0x80000000,%eax
    95ee:	2b 45 f8             	sub    -0x8(%rbp),%eax
    95f1:	39 45 fc             	cmp    %eax,-0x4(%rbp)
    95f4:	7c 0a                	jl     9600 <safe_add_func_int32_t_s_s+0x4a>
    95f6:	8b 55 fc             	mov    -0x4(%rbp),%edx
    95f9:	8b 45 f8             	mov    -0x8(%rbp),%eax
    95fc:	01 d0                	add    %edx,%eax
    95fe:	eb 03                	jmp    9603 <safe_add_func_int32_t_s_s+0x4d>
    9600:	8b 45 fc             	mov    -0x4(%rbp),%eax
    9603:	5d                   	pop    %rbp
    9604:	c3                   	retq   

0000000000009605 <safe_sub_func_int32_t_s_s>:
    9605:	f3 0f 1e fa          	endbr64 
    9609:	55                   	push   %rbp
    960a:	48 89 e5             	mov    %rsp,%rbp
    960d:	89 7d fc             	mov    %edi,-0x4(%rbp)
    9610:	89 75 f8             	mov    %esi,-0x8(%rbp)
    9613:	8b 45 fc             	mov    -0x4(%rbp),%eax
    9616:	33 45 f8             	xor    -0x8(%rbp),%eax
    9619:	89 c2                	mov    %eax,%edx
    961b:	8b 45 fc             	mov    -0x4(%rbp),%eax
    961e:	33 45 f8             	xor    -0x8(%rbp),%eax
    9621:	25 00 00 00 80       	and    $0x80000000,%eax
    9626:	33 45 fc             	xor    -0x4(%rbp),%eax
    9629:	2b 45 f8             	sub    -0x8(%rbp),%eax
    962c:	33 45 f8             	xor    -0x8(%rbp),%eax
    962f:	21 d0                	and    %edx,%eax
    9631:	85 c0                	test   %eax,%eax
    9633:	78 08                	js     963d <safe_sub_func_int32_t_s_s+0x38>
    9635:	8b 45 fc             	mov    -0x4(%rbp),%eax
    9638:	2b 45 f8             	sub    -0x8(%rbp),%eax
    963b:	eb 03                	jmp    9640 <safe_sub_func_int32_t_s_s+0x3b>
    963d:	8b 45 fc             	mov    -0x4(%rbp),%eax
    9640:	5d                   	pop    %rbp
    9641:	c3                   	retq   

0000000000009642 <safe_mul_func_int32_t_s_s>:
    9642:	f3 0f 1e fa          	endbr64 
    9646:	55                   	push   %rbp
    9647:	48 89 e5             	mov    %rsp,%rbp
    964a:	89 7d fc             	mov    %edi,-0x4(%rbp)
    964d:	89 75 f8             	mov    %esi,-0x8(%rbp)
    9650:	83 7d fc 00          	cmpl   $0x0,-0x4(%rbp)
    9654:	7e 14                	jle    966a <safe_mul_func_int32_t_s_s+0x28>
    9656:	83 7d f8 00          	cmpl   $0x0,-0x8(%rbp)
    965a:	7e 0e                	jle    966a <safe_mul_func_int32_t_s_s+0x28>
    965c:	b8 ff ff ff 7f       	mov    $0x7fffffff,%eax
    9661:	99                   	cltd   
    9662:	f7 7d f8             	idivl  -0x8(%rbp)
    9665:	39 45 fc             	cmp    %eax,-0x4(%rbp)
    9668:	7f 5d                	jg     96c7 <safe_mul_func_int32_t_s_s+0x85>
    966a:	83 7d fc 00          	cmpl   $0x0,-0x4(%rbp)
    966e:	7e 14                	jle    9684 <safe_mul_func_int32_t_s_s+0x42>
    9670:	83 7d f8 00          	cmpl   $0x0,-0x8(%rbp)
    9674:	7f 0e                	jg     9684 <safe_mul_func_int32_t_s_s+0x42>
    9676:	b8 00 00 00 80       	mov    $0x80000000,%eax
    967b:	99                   	cltd   
    967c:	f7 7d fc             	idivl  -0x4(%rbp)
    967f:	39 45 f8             	cmp    %eax,-0x8(%rbp)
    9682:	7c 43                	jl     96c7 <safe_mul_func_int32_t_s_s+0x85>
    9684:	83 7d fc 00          	cmpl   $0x0,-0x4(%rbp)
    9688:	7f 14                	jg     969e <safe_mul_func_int32_t_s_s+0x5c>
    968a:	83 7d f8 00          	cmpl   $0x0,-0x8(%rbp)
    968e:	7e 0e                	jle    969e <safe_mul_func_int32_t_s_s+0x5c>
    9690:	b8 00 00 00 80       	mov    $0x80000000,%eax
    9695:	99                   	cltd   
    9696:	f7 7d f8             	idivl  -0x8(%rbp)
    9699:	39 45 fc             	cmp    %eax,-0x4(%rbp)
    969c:	7c 29                	jl     96c7 <safe_mul_func_int32_t_s_s+0x85>
    969e:	83 7d fc 00          	cmpl   $0x0,-0x4(%rbp)
    96a2:	7f 1a                	jg     96be <safe_mul_func_int32_t_s_s+0x7c>
    96a4:	83 7d f8 00          	cmpl   $0x0,-0x8(%rbp)
    96a8:	7f 14                	jg     96be <safe_mul_func_int32_t_s_s+0x7c>
    96aa:	83 7d fc 00          	cmpl   $0x0,-0x4(%rbp)
    96ae:	74 0e                	je     96be <safe_mul_func_int32_t_s_s+0x7c>
    96b0:	b8 ff ff ff 7f       	mov    $0x7fffffff,%eax
    96b5:	99                   	cltd   
    96b6:	f7 7d fc             	idivl  -0x4(%rbp)
    96b9:	39 45 f8             	cmp    %eax,-0x8(%rbp)
    96bc:	7c 09                	jl     96c7 <safe_mul_func_int32_t_s_s+0x85>
    96be:	8b 45 fc             	mov    -0x4(%rbp),%eax
    96c1:	0f af 45 f8          	imul   -0x8(%rbp),%eax
    96c5:	eb 03                	jmp    96ca <safe_mul_func_int32_t_s_s+0x88>
    96c7:	8b 45 fc             	mov    -0x4(%rbp),%eax
    96ca:	5d                   	pop    %rbp
    96cb:	c3                   	retq   

00000000000096cc <safe_mod_func_int32_t_s_s>:
    96cc:	f3 0f 1e fa          	endbr64 
    96d0:	55                   	push   %rbp
    96d1:	48 89 e5             	mov    %rsp,%rbp
    96d4:	89 7d fc             	mov    %edi,-0x4(%rbp)
    96d7:	89 75 f8             	mov    %esi,-0x8(%rbp)
    96da:	83 7d f8 00          	cmpl   $0x0,-0x8(%rbp)
    96de:	74 1a                	je     96fa <safe_mod_func_int32_t_s_s+0x2e>
    96e0:	81 7d fc 00 00 00 80 	cmpl   $0x80000000,-0x4(%rbp)
    96e7:	75 06                	jne    96ef <safe_mod_func_int32_t_s_s+0x23>
    96e9:	83 7d f8 ff          	cmpl   $0xffffffff,-0x8(%rbp)
    96ed:	74 0b                	je     96fa <safe_mod_func_int32_t_s_s+0x2e>
    96ef:	8b 45 fc             	mov    -0x4(%rbp),%eax
    96f2:	99                   	cltd   
    96f3:	f7 7d f8             	idivl  -0x8(%rbp)
    96f6:	89 d0                	mov    %edx,%eax
    96f8:	eb 03                	jmp    96fd <safe_mod_func_int32_t_s_s+0x31>
    96fa:	8b 45 fc             	mov    -0x4(%rbp),%eax
    96fd:	5d                   	pop    %rbp
    96fe:	c3                   	retq   

00000000000096ff <safe_div_func_int32_t_s_s>:
    96ff:	f3 0f 1e fa          	endbr64 
    9703:	55                   	push   %rbp
    9704:	48 89 e5             	mov    %rsp,%rbp
    9707:	89 7d fc             	mov    %edi,-0x4(%rbp)
    970a:	89 75 f8             	mov    %esi,-0x8(%rbp)
    970d:	83 7d f8 00          	cmpl   $0x0,-0x8(%rbp)
    9711:	74 18                	je     972b <safe_div_func_int32_t_s_s+0x2c>
    9713:	81 7d fc 00 00 00 80 	cmpl   $0x80000000,-0x4(%rbp)
    971a:	75 06                	jne    9722 <safe_div_func_int32_t_s_s+0x23>
    971c:	83 7d f8 ff          	cmpl   $0xffffffff,-0x8(%rbp)
    9720:	74 09                	je     972b <safe_div_func_int32_t_s_s+0x2c>
    9722:	8b 45 fc             	mov    -0x4(%rbp),%eax
    9725:	99                   	cltd   
    9726:	f7 7d f8             	idivl  -0x8(%rbp)
    9729:	eb 03                	jmp    972e <safe_div_func_int32_t_s_s+0x2f>
    972b:	8b 45 fc             	mov    -0x4(%rbp),%eax
    972e:	5d                   	pop    %rbp
    972f:	c3                   	retq   

0000000000009730 <safe_lshift_func_int32_t_s_s>:
    9730:	f3 0f 1e fa          	endbr64 
    9734:	55                   	push   %rbp
    9735:	48 89 e5             	mov    %rsp,%rbp
    9738:	89 7d fc             	mov    %edi,-0x4(%rbp)
    973b:	89 75 f8             	mov    %esi,-0x8(%rbp)
    973e:	83 7d fc 00          	cmpl   $0x0,-0x4(%rbp)
    9742:	78 2d                	js     9771 <safe_lshift_func_int32_t_s_s+0x41>
    9744:	83 7d f8 00          	cmpl   $0x0,-0x8(%rbp)
    9748:	78 27                	js     9771 <safe_lshift_func_int32_t_s_s+0x41>
    974a:	83 7d f8 1f          	cmpl   $0x1f,-0x8(%rbp)
    974e:	7f 21                	jg     9771 <safe_lshift_func_int32_t_s_s+0x41>
    9750:	8b 45 f8             	mov    -0x8(%rbp),%eax
    9753:	ba ff ff ff 7f       	mov    $0x7fffffff,%edx
    9758:	89 c1                	mov    %eax,%ecx
    975a:	d3 fa                	sar    %cl,%edx
    975c:	89 d0                	mov    %edx,%eax
    975e:	39 45 fc             	cmp    %eax,-0x4(%rbp)
    9761:	7f 0e                	jg     9771 <safe_lshift_func_int32_t_s_s+0x41>
    9763:	8b 45 f8             	mov    -0x8(%rbp),%eax
    9766:	8b 55 fc             	mov    -0x4(%rbp),%edx
    9769:	89 c1                	mov    %eax,%ecx
    976b:	d3 e2                	shl    %cl,%edx
    976d:	89 d0                	mov    %edx,%eax
    976f:	eb 03                	jmp    9774 <safe_lshift_func_int32_t_s_s+0x44>
    9771:	8b 45 fc             	mov    -0x4(%rbp),%eax
    9774:	5d                   	pop    %rbp
    9775:	c3                   	retq   

0000000000009776 <safe_lshift_func_int32_t_s_u>:
    9776:	f3 0f 1e fa          	endbr64 
    977a:	55                   	push   %rbp
    977b:	48 89 e5             	mov    %rsp,%rbp
    977e:	89 7d fc             	mov    %edi,-0x4(%rbp)
    9781:	89 75 f8             	mov    %esi,-0x8(%rbp)
    9784:	83 7d fc 00          	cmpl   $0x0,-0x4(%rbp)
    9788:	78 27                	js     97b1 <safe_lshift_func_int32_t_s_u+0x3b>
    978a:	83 7d f8 1f          	cmpl   $0x1f,-0x8(%rbp)
    978e:	77 21                	ja     97b1 <safe_lshift_func_int32_t_s_u+0x3b>
    9790:	8b 45 f8             	mov    -0x8(%rbp),%eax
    9793:	ba ff ff ff 7f       	mov    $0x7fffffff,%edx
    9798:	89 c1                	mov    %eax,%ecx
    979a:	d3 fa                	sar    %cl,%edx
    979c:	89 d0                	mov    %edx,%eax
    979e:	39 45 fc             	cmp    %eax,-0x4(%rbp)
    97a1:	7f 0e                	jg     97b1 <safe_lshift_func_int32_t_s_u+0x3b>
    97a3:	8b 45 f8             	mov    -0x8(%rbp),%eax
    97a6:	8b 55 fc             	mov    -0x4(%rbp),%edx
    97a9:	89 c1                	mov    %eax,%ecx
    97ab:	d3 e2                	shl    %cl,%edx
    97ad:	89 d0                	mov    %edx,%eax
    97af:	eb 03                	jmp    97b4 <safe_lshift_func_int32_t_s_u+0x3e>
    97b1:	8b 45 fc             	mov    -0x4(%rbp),%eax
    97b4:	5d                   	pop    %rbp
    97b5:	c3                   	retq   

00000000000097b6 <safe_rshift_func_int32_t_s_s>:
    97b6:	f3 0f 1e fa          	endbr64 
    97ba:	55                   	push   %rbp
    97bb:	48 89 e5             	mov    %rsp,%rbp
    97be:	89 7d fc             	mov    %edi,-0x4(%rbp)
    97c1:	89 75 f8             	mov    %esi,-0x8(%rbp)
    97c4:	83 7d fc 00          	cmpl   $0x0,-0x4(%rbp)
    97c8:	78 1a                	js     97e4 <safe_rshift_func_int32_t_s_s+0x2e>
    97ca:	83 7d f8 00          	cmpl   $0x0,-0x8(%rbp)
    97ce:	78 14                	js     97e4 <safe_rshift_func_int32_t_s_s+0x2e>
    97d0:	83 7d f8 1f          	cmpl   $0x1f,-0x8(%rbp)
    97d4:	7f 0e                	jg     97e4 <safe_rshift_func_int32_t_s_s+0x2e>
    97d6:	8b 45 f8             	mov    -0x8(%rbp),%eax
    97d9:	8b 55 fc             	mov    -0x4(%rbp),%edx
    97dc:	89 c1                	mov    %eax,%ecx
    97de:	d3 fa                	sar    %cl,%edx
    97e0:	89 d0                	mov    %edx,%eax
    97e2:	eb 03                	jmp    97e7 <safe_rshift_func_int32_t_s_s+0x31>
    97e4:	8b 45 fc             	mov    -0x4(%rbp),%eax
    97e7:	5d                   	pop    %rbp
    97e8:	c3                   	retq   

00000000000097e9 <safe_rshift_func_int32_t_s_u>:
    97e9:	f3 0f 1e fa          	endbr64 
    97ed:	55                   	push   %rbp
    97ee:	48 89 e5             	mov    %rsp,%rbp
    97f1:	89 7d fc             	mov    %edi,-0x4(%rbp)
    97f4:	89 75 f8             	mov    %esi,-0x8(%rbp)
    97f7:	83 7d fc 00          	cmpl   $0x0,-0x4(%rbp)
    97fb:	78 14                	js     9811 <safe_rshift_func_int32_t_s_u+0x28>
    97fd:	83 7d f8 1f          	cmpl   $0x1f,-0x8(%rbp)
    9801:	77 0e                	ja     9811 <safe_rshift_func_int32_t_s_u+0x28>
    9803:	8b 45 f8             	mov    -0x8(%rbp),%eax
    9806:	8b 55 fc             	mov    -0x4(%rbp),%edx
    9809:	89 c1                	mov    %eax,%ecx
    980b:	d3 fa                	sar    %cl,%edx
    980d:	89 d0                	mov    %edx,%eax
    980f:	eb 03                	jmp    9814 <safe_rshift_func_int32_t_s_u+0x2b>
    9811:	8b 45 fc             	mov    -0x4(%rbp),%eax
    9814:	5d                   	pop    %rbp
    9815:	c3                   	retq   

0000000000009816 <safe_unary_minus_func_int64_t_s>:
    9816:	f3 0f 1e fa          	endbr64 
    981a:	55                   	push   %rbp
    981b:	48 89 e5             	mov    %rsp,%rbp
    981e:	48 89 7d f8          	mov    %rdi,-0x8(%rbp)
    9822:	48 b8 00 00 00 00 00 	movabs $0x8000000000000000,%rax
    9829:	00 00 80 
    982c:	48 39 45 f8          	cmp    %rax,-0x8(%rbp)
    9830:	74 09                	je     983b <safe_unary_minus_func_int64_t_s+0x25>
    9832:	48 8b 45 f8          	mov    -0x8(%rbp),%rax
    9836:	48 f7 d8             	neg    %rax
    9839:	eb 04                	jmp    983f <safe_unary_minus_func_int64_t_s+0x29>
    983b:	48 8b 45 f8          	mov    -0x8(%rbp),%rax
    983f:	5d                   	pop    %rbp
    9840:	c3                   	retq   

0000000000009841 <safe_add_func_int64_t_s_s>:
    9841:	f3 0f 1e fa          	endbr64 
    9845:	55                   	push   %rbp
    9846:	48 89 e5             	mov    %rsp,%rbp
    9849:	48 89 7d f8          	mov    %rdi,-0x8(%rbp)
    984d:	48 89 75 f0          	mov    %rsi,-0x10(%rbp)
    9851:	48 83 7d f8 00       	cmpq   $0x0,-0x8(%rbp)
    9856:	7e 1b                	jle    9873 <safe_add_func_int64_t_s_s+0x32>
    9858:	48 83 7d f0 00       	cmpq   $0x0,-0x10(%rbp)
    985d:	7e 14                	jle    9873 <safe_add_func_int64_t_s_s+0x32>
    985f:	48 b8 ff ff ff ff ff 	movabs $0x7fffffffffffffff,%rax
    9866:	ff ff 7f 
    9869:	48 2b 45 f0          	sub    -0x10(%rbp),%rax
    986d:	48 39 45 f8          	cmp    %rax,-0x8(%rbp)
    9871:	7f 2f                	jg     98a2 <safe_add_func_int64_t_s_s+0x61>
    9873:	48 83 7d f8 00       	cmpq   $0x0,-0x8(%rbp)
    9878:	79 1b                	jns    9895 <safe_add_func_int64_t_s_s+0x54>
    987a:	48 83 7d f0 00       	cmpq   $0x0,-0x10(%rbp)
    987f:	79 14                	jns    9895 <safe_add_func_int64_t_s_s+0x54>
    9881:	48 b8 00 00 00 00 00 	movabs $0x8000000000000000,%rax
    9888:	00 00 80 
    988b:	48 2b 45 f0          	sub    -0x10(%rbp),%rax
    988f:	48 39 45 f8          	cmp    %rax,-0x8(%rbp)
    9893:	7c 0d                	jl     98a2 <safe_add_func_int64_t_s_s+0x61>
    9895:	48 8b 55 f8          	mov    -0x8(%rbp),%rdx
    9899:	48 8b 45 f0          	mov    -0x10(%rbp),%rax
    989d:	48 01 d0             	add    %rdx,%rax
    98a0:	eb 04                	jmp    98a6 <safe_add_func_int64_t_s_s+0x65>
    98a2:	48 8b 45 f8          	mov    -0x8(%rbp),%rax
    98a6:	5d                   	pop    %rbp
    98a7:	c3                   	retq   

00000000000098a8 <safe_sub_func_int64_t_s_s>:
    98a8:	f3 0f 1e fa          	endbr64 
    98ac:	55                   	push   %rbp
    98ad:	48 89 e5             	mov    %rsp,%rbp
    98b0:	48 89 7d f8          	mov    %rdi,-0x8(%rbp)
    98b4:	48 89 75 f0          	mov    %rsi,-0x10(%rbp)
    98b8:	48 8b 45 f8          	mov    -0x8(%rbp),%rax
    98bc:	48 33 45 f0          	xor    -0x10(%rbp),%rax
    98c0:	48 89 c2             	mov    %rax,%rdx
    98c3:	48 8b 45 f8          	mov    -0x8(%rbp),%rax
    98c7:	48 33 45 f0          	xor    -0x10(%rbp),%rax
    98cb:	48 b9 00 00 00 00 00 	movabs $0x8000000000000000,%rcx
    98d2:	00 00 80 
    98d5:	48 21 c8             	and    %rcx,%rax
    98d8:	48 33 45 f8          	xor    -0x8(%rbp),%rax
    98dc:	48 2b 45 f0          	sub    -0x10(%rbp),%rax
    98e0:	48 33 45 f0          	xor    -0x10(%rbp),%rax
    98e4:	48 21 d0             	and    %rdx,%rax
    98e7:	48 85 c0             	test   %rax,%rax
    98ea:	78 0a                	js     98f6 <safe_sub_func_int64_t_s_s+0x4e>
    98ec:	48 8b 45 f8          	mov    -0x8(%rbp),%rax
    98f0:	48 2b 45 f0          	sub    -0x10(%rbp),%rax
    98f4:	eb 04                	jmp    98fa <safe_sub_func_int64_t_s_s+0x52>
    98f6:	48 8b 45 f8          	mov    -0x8(%rbp),%rax
    98fa:	5d                   	pop    %rbp
    98fb:	c3                   	retq   

00000000000098fc <safe_mul_func_int64_t_s_s>:
    98fc:	f3 0f 1e fa          	endbr64 
    9900:	55                   	push   %rbp
    9901:	48 89 e5             	mov    %rsp,%rbp
    9904:	48 89 7d f8          	mov    %rdi,-0x8(%rbp)
    9908:	48 89 75 f0          	mov    %rsi,-0x10(%rbp)
    990c:	48 83 7d f8 00       	cmpq   $0x0,-0x8(%rbp)
    9911:	7e 1d                	jle    9930 <safe_mul_func_int64_t_s_s+0x34>
    9913:	48 83 7d f0 00       	cmpq   $0x0,-0x10(%rbp)
    9918:	7e 16                	jle    9930 <safe_mul_func_int64_t_s_s+0x34>
    991a:	48 b8 ff ff ff ff ff 	movabs $0x7fffffffffffffff,%rax
    9921:	ff ff 7f 
    9924:	48 99                	cqto   
    9926:	48 f7 7d f0          	idivq  -0x10(%rbp)
    992a:	48 39 45 f8          	cmp    %rax,-0x8(%rbp)
    992e:	7f 7e                	jg     99ae <safe_mul_func_int64_t_s_s+0xb2>
    9930:	48 83 7d f8 00       	cmpq   $0x0,-0x8(%rbp)
    9935:	7e 1d                	jle    9954 <safe_mul_func_int64_t_s_s+0x58>
    9937:	48 83 7d f0 00       	cmpq   $0x0,-0x10(%rbp)
    993c:	7f 16                	jg     9954 <safe_mul_func_int64_t_s_s+0x58>
    993e:	48 b8 00 00 00 00 00 	movabs $0x8000000000000000,%rax
    9945:	00 00 80 
    9948:	48 99                	cqto   
    994a:	48 f7 7d f8          	idivq  -0x8(%rbp)
    994e:	48 39 45 f0          	cmp    %rax,-0x10(%rbp)
    9952:	7c 5a                	jl     99ae <safe_mul_func_int64_t_s_s+0xb2>
    9954:	48 83 7d f8 00       	cmpq   $0x0,-0x8(%rbp)
    9959:	7f 1d                	jg     9978 <safe_mul_func_int64_t_s_s+0x7c>
    995b:	48 83 7d f0 00       	cmpq   $0x0,-0x10(%rbp)
    9960:	7e 16                	jle    9978 <safe_mul_func_int64_t_s_s+0x7c>
    9962:	48 b8 00 00 00 00 00 	movabs $0x8000000000000000,%rax
    9969:	00 00 80 
    996c:	48 99                	cqto   
    996e:	48 f7 7d f0          	idivq  -0x10(%rbp)
    9972:	48 39 45 f8          	cmp    %rax,-0x8(%rbp)
    9976:	7c 36                	jl     99ae <safe_mul_func_int64_t_s_s+0xb2>
    9978:	48 83 7d f8 00       	cmpq   $0x0,-0x8(%rbp)
    997d:	7f 24                	jg     99a3 <safe_mul_func_int64_t_s_s+0xa7>
    997f:	48 83 7d f0 00       	cmpq   $0x0,-0x10(%rbp)
    9984:	7f 1d                	jg     99a3 <safe_mul_func_int64_t_s_s+0xa7>
    9986:	48 83 7d f8 00       	cmpq   $0x0,-0x8(%rbp)
    998b:	74 16                	je     99a3 <safe_mul_func_int64_t_s_s+0xa7>
    998d:	48 b8 ff ff ff ff ff 	movabs $0x7fffffffffffffff,%rax
    9994:	ff ff 7f 
    9997:	48 99                	cqto   
    9999:	48 f7 7d f8          	idivq  -0x8(%rbp)
    999d:	48 39 45 f0          	cmp    %rax,-0x10(%rbp)
    99a1:	7c 0b                	jl     99ae <safe_mul_func_int64_t_s_s+0xb2>
    99a3:	48 8b 45 f8          	mov    -0x8(%rbp),%rax
    99a7:	48 0f af 45 f0       	imul   -0x10(%rbp),%rax
    99ac:	eb 04                	jmp    99b2 <safe_mul_func_int64_t_s_s+0xb6>
    99ae:	48 8b 45 f8          	mov    -0x8(%rbp),%rax
    99b2:	5d                   	pop    %rbp
    99b3:	c3                   	retq   

00000000000099b4 <safe_mod_func_int64_t_s_s>:
    99b4:	f3 0f 1e fa          	endbr64 
    99b8:	55                   	push   %rbp
    99b9:	48 89 e5             	mov    %rsp,%rbp
    99bc:	48 89 7d f8          	mov    %rdi,-0x8(%rbp)
    99c0:	48 89 75 f0          	mov    %rsi,-0x10(%rbp)
    99c4:	48 83 7d f0 00       	cmpq   $0x0,-0x10(%rbp)
    99c9:	74 26                	je     99f1 <safe_mod_func_int64_t_s_s+0x3d>
    99cb:	48 b8 00 00 00 00 00 	movabs $0x8000000000000000,%rax
    99d2:	00 00 80 
    99d5:	48 39 45 f8          	cmp    %rax,-0x8(%rbp)
    99d9:	75 07                	jne    99e2 <safe_mod_func_int64_t_s_s+0x2e>
    99db:	48 83 7d f0 ff       	cmpq   $0xffffffffffffffff,-0x10(%rbp)
    99e0:	74 0f                	je     99f1 <safe_mod_func_int64_t_s_s+0x3d>
    99e2:	48 8b 45 f8          	mov    -0x8(%rbp),%rax
    99e6:	48 99                	cqto   
    99e8:	48 f7 7d f0          	idivq  -0x10(%rbp)
    99ec:	48 89 d0             	mov    %rdx,%rax
    99ef:	eb 04                	jmp    99f5 <safe_mod_func_int64_t_s_s+0x41>
    99f1:	48 8b 45 f8          	mov    -0x8(%rbp),%rax
    99f5:	5d                   	pop    %rbp
    99f6:	c3                   	retq   

00000000000099f7 <safe_div_func_int64_t_s_s>:
    99f7:	f3 0f 1e fa          	endbr64 
    99fb:	55                   	push   %rbp
    99fc:	48 89 e5             	mov    %rsp,%rbp
    99ff:	48 89 7d f8          	mov    %rdi,-0x8(%rbp)
    9a03:	48 89 75 f0          	mov    %rsi,-0x10(%rbp)
    9a07:	48 83 7d f0 00       	cmpq   $0x0,-0x10(%rbp)
    9a0c:	74 23                	je     9a31 <safe_div_func_int64_t_s_s+0x3a>
    9a0e:	48 b8 00 00 00 00 00 	movabs $0x8000000000000000,%rax
    9a15:	00 00 80 
    9a18:	48 39 45 f8          	cmp    %rax,-0x8(%rbp)
    9a1c:	75 07                	jne    9a25 <safe_div_func_int64_t_s_s+0x2e>
    9a1e:	48 83 7d f0 ff       	cmpq   $0xffffffffffffffff,-0x10(%rbp)
    9a23:	74 0c                	je     9a31 <safe_div_func_int64_t_s_s+0x3a>
    9a25:	48 8b 45 f8          	mov    -0x8(%rbp),%rax
    9a29:	48 99                	cqto   
    9a2b:	48 f7 7d f0          	idivq  -0x10(%rbp)
    9a2f:	eb 04                	jmp    9a35 <safe_div_func_int64_t_s_s+0x3e>
    9a31:	48 8b 45 f8          	mov    -0x8(%rbp),%rax
    9a35:	5d                   	pop    %rbp
    9a36:	c3                   	retq   

0000000000009a37 <safe_lshift_func_int64_t_s_s>:
    9a37:	f3 0f 1e fa          	endbr64 
    9a3b:	55                   	push   %rbp
    9a3c:	48 89 e5             	mov    %rsp,%rbp
    9a3f:	48 89 7d f8          	mov    %rdi,-0x8(%rbp)
    9a43:	89 75 f4             	mov    %esi,-0xc(%rbp)
    9a46:	48 83 7d f8 00       	cmpq   $0x0,-0x8(%rbp)
    9a4b:	78 38                	js     9a85 <safe_lshift_func_int64_t_s_s+0x4e>
    9a4d:	83 7d f4 00          	cmpl   $0x0,-0xc(%rbp)
    9a51:	78 32                	js     9a85 <safe_lshift_func_int64_t_s_s+0x4e>
    9a53:	83 7d f4 1f          	cmpl   $0x1f,-0xc(%rbp)
    9a57:	7f 2c                	jg     9a85 <safe_lshift_func_int64_t_s_s+0x4e>
    9a59:	8b 45 f4             	mov    -0xc(%rbp),%eax
    9a5c:	48 ba ff ff ff ff ff 	movabs $0x7fffffffffffffff,%rdx
    9a63:	ff ff 7f 
    9a66:	89 c1                	mov    %eax,%ecx
    9a68:	48 d3 fa             	sar    %cl,%rdx
    9a6b:	48 89 d0             	mov    %rdx,%rax
    9a6e:	48 39 45 f8          	cmp    %rax,-0x8(%rbp)
    9a72:	7f 11                	jg     9a85 <safe_lshift_func_int64_t_s_s+0x4e>
    9a74:	8b 45 f4             	mov    -0xc(%rbp),%eax
    9a77:	48 8b 55 f8          	mov    -0x8(%rbp),%rdx
    9a7b:	89 c1                	mov    %eax,%ecx
    9a7d:	48 d3 e2             	shl    %cl,%rdx
    9a80:	48 89 d0             	mov    %rdx,%rax
    9a83:	eb 04                	jmp    9a89 <safe_lshift_func_int64_t_s_s+0x52>
    9a85:	48 8b 45 f8          	mov    -0x8(%rbp),%rax
    9a89:	5d                   	pop    %rbp
    9a8a:	c3                   	retq   

0000000000009a8b <safe_lshift_func_int64_t_s_u>:
    9a8b:	f3 0f 1e fa          	endbr64 
    9a8f:	55                   	push   %rbp
    9a90:	48 89 e5             	mov    %rsp,%rbp
    9a93:	48 89 7d f8          	mov    %rdi,-0x8(%rbp)
    9a97:	89 75 f4             	mov    %esi,-0xc(%rbp)
    9a9a:	48 83 7d f8 00       	cmpq   $0x0,-0x8(%rbp)
    9a9f:	78 32                	js     9ad3 <safe_lshift_func_int64_t_s_u+0x48>
    9aa1:	83 7d f4 1f          	cmpl   $0x1f,-0xc(%rbp)
    9aa5:	77 2c                	ja     9ad3 <safe_lshift_func_int64_t_s_u+0x48>
    9aa7:	8b 45 f4             	mov    -0xc(%rbp),%eax
    9aaa:	48 ba ff ff ff ff ff 	movabs $0x7fffffffffffffff,%rdx
    9ab1:	ff ff 7f 
    9ab4:	89 c1                	mov    %eax,%ecx
    9ab6:	48 d3 fa             	sar    %cl,%rdx
    9ab9:	48 89 d0             	mov    %rdx,%rax
    9abc:	48 39 45 f8          	cmp    %rax,-0x8(%rbp)
    9ac0:	7f 11                	jg     9ad3 <safe_lshift_func_int64_t_s_u+0x48>
    9ac2:	8b 45 f4             	mov    -0xc(%rbp),%eax
    9ac5:	48 8b 55 f8          	mov    -0x8(%rbp),%rdx
    9ac9:	89 c1                	mov    %eax,%ecx
    9acb:	48 d3 e2             	shl    %cl,%rdx
    9ace:	48 89 d0             	mov    %rdx,%rax
    9ad1:	eb 04                	jmp    9ad7 <safe_lshift_func_int64_t_s_u+0x4c>
    9ad3:	48 8b 45 f8          	mov    -0x8(%rbp),%rax
    9ad7:	5d                   	pop    %rbp
    9ad8:	c3                   	retq   

0000000000009ad9 <safe_rshift_func_int64_t_s_s>:
    9ad9:	f3 0f 1e fa          	endbr64 
    9add:	55                   	push   %rbp
    9ade:	48 89 e5             	mov    %rsp,%rbp
    9ae1:	48 89 7d f8          	mov    %rdi,-0x8(%rbp)
    9ae5:	89 75 f4             	mov    %esi,-0xc(%rbp)
    9ae8:	48 83 7d f8 00       	cmpq   $0x0,-0x8(%rbp)
    9aed:	78 1d                	js     9b0c <safe_rshift_func_int64_t_s_s+0x33>
    9aef:	83 7d f4 00          	cmpl   $0x0,-0xc(%rbp)
    9af3:	78 17                	js     9b0c <safe_rshift_func_int64_t_s_s+0x33>
    9af5:	83 7d f4 1f          	cmpl   $0x1f,-0xc(%rbp)
    9af9:	7f 11                	jg     9b0c <safe_rshift_func_int64_t_s_s+0x33>
    9afb:	8b 45 f4             	mov    -0xc(%rbp),%eax
    9afe:	48 8b 55 f8          	mov    -0x8(%rbp),%rdx
    9b02:	89 c1                	mov    %eax,%ecx
    9b04:	48 d3 fa             	sar    %cl,%rdx
    9b07:	48 89 d0             	mov    %rdx,%rax
    9b0a:	eb 04                	jmp    9b10 <safe_rshift_func_int64_t_s_s+0x37>
    9b0c:	48 8b 45 f8          	mov    -0x8(%rbp),%rax
    9b10:	5d                   	pop    %rbp
    9b11:	c3                   	retq   

0000000000009b12 <safe_rshift_func_int64_t_s_u>:
    9b12:	f3 0f 1e fa          	endbr64 
    9b16:	55                   	push   %rbp
    9b17:	48 89 e5             	mov    %rsp,%rbp
    9b1a:	48 89 7d f8          	mov    %rdi,-0x8(%rbp)
    9b1e:	89 75 f4             	mov    %esi,-0xc(%rbp)
    9b21:	48 83 7d f8 00       	cmpq   $0x0,-0x8(%rbp)
    9b26:	78 17                	js     9b3f <safe_rshift_func_int64_t_s_u+0x2d>
    9b28:	83 7d f4 1f          	cmpl   $0x1f,-0xc(%rbp)
    9b2c:	77 11                	ja     9b3f <safe_rshift_func_int64_t_s_u+0x2d>
    9b2e:	8b 45 f4             	mov    -0xc(%rbp),%eax
    9b31:	48 8b 55 f8          	mov    -0x8(%rbp),%rdx
    9b35:	89 c1                	mov    %eax,%ecx
    9b37:	48 d3 fa             	sar    %cl,%rdx
    9b3a:	48 89 d0             	mov    %rdx,%rax
    9b3d:	eb 04                	jmp    9b43 <safe_rshift_func_int64_t_s_u+0x31>
    9b3f:	48 8b 45 f8          	mov    -0x8(%rbp),%rax
    9b43:	5d                   	pop    %rbp
    9b44:	c3                   	retq   

0000000000009b45 <safe_unary_minus_func_uint8_t_u>:
    9b45:	f3 0f 1e fa          	endbr64 
    9b49:	55                   	push   %rbp
    9b4a:	48 89 e5             	mov    %rsp,%rbp
    9b4d:	89 f8                	mov    %edi,%eax
    9b4f:	88 45 fc             	mov    %al,-0x4(%rbp)
    9b52:	0f b6 45 fc          	movzbl -0x4(%rbp),%eax
    9b56:	f7 d8                	neg    %eax
    9b58:	5d                   	pop    %rbp
    9b59:	c3                   	retq   

0000000000009b5a <safe_add_func_uint8_t_u_u>:
    9b5a:	f3 0f 1e fa          	endbr64 
    9b5e:	55                   	push   %rbp
    9b5f:	48 89 e5             	mov    %rsp,%rbp
    9b62:	89 fa                	mov    %edi,%edx
    9b64:	89 f0                	mov    %esi,%eax
    9b66:	88 55 fc             	mov    %dl,-0x4(%rbp)
    9b69:	88 45 f8             	mov    %al,-0x8(%rbp)
    9b6c:	0f b6 55 fc          	movzbl -0x4(%rbp),%edx
    9b70:	0f b6 45 f8          	movzbl -0x8(%rbp),%eax
    9b74:	01 d0                	add    %edx,%eax
    9b76:	5d                   	pop    %rbp
    9b77:	c3                   	retq   

0000000000009b78 <safe_sub_func_uint8_t_u_u>:
    9b78:	f3 0f 1e fa          	endbr64 
    9b7c:	55                   	push   %rbp
    9b7d:	48 89 e5             	mov    %rsp,%rbp
    9b80:	89 fa                	mov    %edi,%edx
    9b82:	89 f0                	mov    %esi,%eax
    9b84:	88 55 fc             	mov    %dl,-0x4(%rbp)
    9b87:	88 45 f8             	mov    %al,-0x8(%rbp)
    9b8a:	0f b6 45 fc          	movzbl -0x4(%rbp),%eax
    9b8e:	2a 45 f8             	sub    -0x8(%rbp),%al
    9b91:	5d                   	pop    %rbp
    9b92:	c3                   	retq   

0000000000009b93 <safe_mul_func_uint8_t_u_u>:
    9b93:	f3 0f 1e fa          	endbr64 
    9b97:	55                   	push   %rbp
    9b98:	48 89 e5             	mov    %rsp,%rbp
    9b9b:	89 fa                	mov    %edi,%edx
    9b9d:	89 f0                	mov    %esi,%eax
    9b9f:	88 55 fc             	mov    %dl,-0x4(%rbp)
    9ba2:	88 45 f8             	mov    %al,-0x8(%rbp)
    9ba5:	0f b6 45 fc          	movzbl -0x4(%rbp),%eax
    9ba9:	f6 65 f8             	mulb   -0x8(%rbp)
    9bac:	5d                   	pop    %rbp
    9bad:	c3                   	retq   

0000000000009bae <safe_mod_func_uint8_t_u_u>:
    9bae:	f3 0f 1e fa          	endbr64 
    9bb2:	55                   	push   %rbp
    9bb3:	48 89 e5             	mov    %rsp,%rbp
    9bb6:	89 fa                	mov    %edi,%edx
    9bb8:	89 f0                	mov    %esi,%eax
    9bba:	88 55 fc             	mov    %dl,-0x4(%rbp)
    9bbd:	88 45 f8             	mov    %al,-0x8(%rbp)
    9bc0:	80 7d f8 00          	cmpb   $0x0,-0x8(%rbp)
    9bc4:	74 0f                	je     9bd5 <safe_mod_func_uint8_t_u_u+0x27>
    9bc6:	0f b6 45 fc          	movzbl -0x4(%rbp),%eax
    9bca:	0f b6 c0             	movzbl %al,%eax
    9bcd:	f6 75 f8             	divb   -0x8(%rbp)
    9bd0:	0f b6 c4             	movzbl %ah,%eax
    9bd3:	eb 04                	jmp    9bd9 <safe_mod_func_uint8_t_u_u+0x2b>
    9bd5:	0f b6 45 fc          	movzbl -0x4(%rbp),%eax
    9bd9:	5d                   	pop    %rbp
    9bda:	c3                   	retq   

0000000000009bdb <safe_div_func_uint8_t_u_u>:
    9bdb:	f3 0f 1e fa          	endbr64 
    9bdf:	55                   	push   %rbp
    9be0:	48 89 e5             	mov    %rsp,%rbp
    9be3:	89 fa                	mov    %edi,%edx
    9be5:	89 f0                	mov    %esi,%eax
    9be7:	88 55 fc             	mov    %dl,-0x4(%rbp)
    9bea:	88 45 f8             	mov    %al,-0x8(%rbp)
    9bed:	80 7d f8 00          	cmpb   $0x0,-0x8(%rbp)
    9bf1:	74 0c                	je     9bff <safe_div_func_uint8_t_u_u+0x24>
    9bf3:	0f b6 45 fc          	movzbl -0x4(%rbp),%eax
    9bf7:	0f b6 c0             	movzbl %al,%eax
    9bfa:	f6 75 f8             	divb   -0x8(%rbp)
    9bfd:	eb 04                	jmp    9c03 <safe_div_func_uint8_t_u_u+0x28>
    9bff:	0f b6 45 fc          	movzbl -0x4(%rbp),%eax
    9c03:	5d                   	pop    %rbp
    9c04:	c3                   	retq   

0000000000009c05 <safe_lshift_func_uint8_t_u_s>:
    9c05:	f3 0f 1e fa          	endbr64 
    9c09:	55                   	push   %rbp
    9c0a:	48 89 e5             	mov    %rsp,%rbp
    9c0d:	89 f8                	mov    %edi,%eax
    9c0f:	89 75 f8             	mov    %esi,-0x8(%rbp)
    9c12:	88 45 fc             	mov    %al,-0x4(%rbp)
    9c15:	83 7d f8 00          	cmpl   $0x0,-0x8(%rbp)
    9c19:	78 2b                	js     9c46 <safe_lshift_func_uint8_t_u_s+0x41>
    9c1b:	83 7d f8 1f          	cmpl   $0x1f,-0x8(%rbp)
    9c1f:	7f 25                	jg     9c46 <safe_lshift_func_uint8_t_u_s+0x41>
    9c21:	0f b6 55 fc          	movzbl -0x4(%rbp),%edx
    9c25:	8b 45 f8             	mov    -0x8(%rbp),%eax
    9c28:	be ff 00 00 00       	mov    $0xff,%esi
    9c2d:	89 c1                	mov    %eax,%ecx
    9c2f:	d3 fe                	sar    %cl,%esi
    9c31:	89 f0                	mov    %esi,%eax
    9c33:	39 c2                	cmp    %eax,%edx
    9c35:	7f 0f                	jg     9c46 <safe_lshift_func_uint8_t_u_s+0x41>
    9c37:	0f b6 55 fc          	movzbl -0x4(%rbp),%edx
    9c3b:	8b 45 f8             	mov    -0x8(%rbp),%eax
    9c3e:	89 c1                	mov    %eax,%ecx
    9c40:	d3 e2                	shl    %cl,%edx
    9c42:	89 d0                	mov    %edx,%eax
    9c44:	eb 04                	jmp    9c4a <safe_lshift_func_uint8_t_u_s+0x45>
    9c46:	0f b6 45 fc          	movzbl -0x4(%rbp),%eax
    9c4a:	5d                   	pop    %rbp
    9c4b:	c3                   	retq   

0000000000009c4c <safe_lshift_func_uint8_t_u_u>:
    9c4c:	f3 0f 1e fa          	endbr64 
    9c50:	55                   	push   %rbp
    9c51:	48 89 e5             	mov    %rsp,%rbp
    9c54:	89 f8                	mov    %edi,%eax
    9c56:	89 75 f8             	mov    %esi,-0x8(%rbp)
    9c59:	88 45 fc             	mov    %al,-0x4(%rbp)
    9c5c:	83 7d f8 1f          	cmpl   $0x1f,-0x8(%rbp)
    9c60:	77 25                	ja     9c87 <safe_lshift_func_uint8_t_u_u+0x3b>
    9c62:	0f b6 55 fc          	movzbl -0x4(%rbp),%edx
    9c66:	8b 45 f8             	mov    -0x8(%rbp),%eax
    9c69:	be ff 00 00 00       	mov    $0xff,%esi
    9c6e:	89 c1                	mov    %eax,%ecx
    9c70:	d3 fe                	sar    %cl,%esi
    9c72:	89 f0                	mov    %esi,%eax
    9c74:	39 c2                	cmp    %eax,%edx
    9c76:	7f 0f                	jg     9c87 <safe_lshift_func_uint8_t_u_u+0x3b>
    9c78:	0f b6 55 fc          	movzbl -0x4(%rbp),%edx
    9c7c:	8b 45 f8             	mov    -0x8(%rbp),%eax
    9c7f:	89 c1                	mov    %eax,%ecx
    9c81:	d3 e2                	shl    %cl,%edx
    9c83:	89 d0                	mov    %edx,%eax
    9c85:	eb 04                	jmp    9c8b <safe_lshift_func_uint8_t_u_u+0x3f>
    9c87:	0f b6 45 fc          	movzbl -0x4(%rbp),%eax
    9c8b:	5d                   	pop    %rbp
    9c8c:	c3                   	retq   

0000000000009c8d <safe_rshift_func_uint8_t_u_s>:
    9c8d:	f3 0f 1e fa          	endbr64 
    9c91:	55                   	push   %rbp
    9c92:	48 89 e5             	mov    %rsp,%rbp
    9c95:	89 f8                	mov    %edi,%eax
    9c97:	89 75 f8             	mov    %esi,-0x8(%rbp)
    9c9a:	88 45 fc             	mov    %al,-0x4(%rbp)
    9c9d:	83 7d f8 00          	cmpl   $0x0,-0x8(%rbp)
    9ca1:	78 15                	js     9cb8 <safe_rshift_func_uint8_t_u_s+0x2b>
    9ca3:	83 7d f8 1f          	cmpl   $0x1f,-0x8(%rbp)
    9ca7:	7f 0f                	jg     9cb8 <safe_rshift_func_uint8_t_u_s+0x2b>
    9ca9:	0f b6 55 fc          	movzbl -0x4(%rbp),%edx
    9cad:	8b 45 f8             	mov    -0x8(%rbp),%eax
    9cb0:	89 c1                	mov    %eax,%ecx
    9cb2:	d3 fa                	sar    %cl,%edx
    9cb4:	89 d0                	mov    %edx,%eax
    9cb6:	eb 04                	jmp    9cbc <safe_rshift_func_uint8_t_u_s+0x2f>
    9cb8:	0f b6 45 fc          	movzbl -0x4(%rbp),%eax
    9cbc:	5d                   	pop    %rbp
    9cbd:	c3                   	retq   

0000000000009cbe <safe_rshift_func_uint8_t_u_u>:
    9cbe:	f3 0f 1e fa          	endbr64 
    9cc2:	55                   	push   %rbp
    9cc3:	48 89 e5             	mov    %rsp,%rbp
    9cc6:	89 f8                	mov    %edi,%eax
    9cc8:	89 75 f8             	mov    %esi,-0x8(%rbp)
    9ccb:	88 45 fc             	mov    %al,-0x4(%rbp)
    9cce:	83 7d f8 1f          	cmpl   $0x1f,-0x8(%rbp)
    9cd2:	77 0f                	ja     9ce3 <safe_rshift_func_uint8_t_u_u+0x25>
    9cd4:	0f b6 55 fc          	movzbl -0x4(%rbp),%edx
    9cd8:	8b 45 f8             	mov    -0x8(%rbp),%eax
    9cdb:	89 c1                	mov    %eax,%ecx
    9cdd:	d3 fa                	sar    %cl,%edx
    9cdf:	89 d0                	mov    %edx,%eax
    9ce1:	eb 04                	jmp    9ce7 <safe_rshift_func_uint8_t_u_u+0x29>
    9ce3:	0f b6 45 fc          	movzbl -0x4(%rbp),%eax
    9ce7:	5d                   	pop    %rbp
    9ce8:	c3                   	retq   

0000000000009ce9 <safe_unary_minus_func_uint16_t_u>:
    9ce9:	f3 0f 1e fa          	endbr64 
    9ced:	55                   	push   %rbp
    9cee:	48 89 e5             	mov    %rsp,%rbp
    9cf1:	89 f8                	mov    %edi,%eax
    9cf3:	66 89 45 fc          	mov    %ax,-0x4(%rbp)
    9cf7:	0f b7 45 fc          	movzwl -0x4(%rbp),%eax
    9cfb:	f7 d8                	neg    %eax
    9cfd:	5d                   	pop    %rbp
    9cfe:	c3                   	retq   

0000000000009cff <safe_add_func_uint16_t_u_u>:
    9cff:	f3 0f 1e fa          	endbr64 
    9d03:	55                   	push   %rbp
    9d04:	48 89 e5             	mov    %rsp,%rbp
    9d07:	89 fa                	mov    %edi,%edx
    9d09:	89 f0                	mov    %esi,%eax
    9d0b:	66 89 55 fc          	mov    %dx,-0x4(%rbp)
    9d0f:	66 89 45 f8          	mov    %ax,-0x8(%rbp)
    9d13:	0f b7 55 fc          	movzwl -0x4(%rbp),%edx
    9d17:	0f b7 45 f8          	movzwl -0x8(%rbp),%eax
    9d1b:	01 d0                	add    %edx,%eax
    9d1d:	5d                   	pop    %rbp
    9d1e:	c3                   	retq   

0000000000009d1f <safe_sub_func_uint16_t_u_u>:
    9d1f:	f3 0f 1e fa          	endbr64 
    9d23:	55                   	push   %rbp
    9d24:	48 89 e5             	mov    %rsp,%rbp
    9d27:	89 fa                	mov    %edi,%edx
    9d29:	89 f0                	mov    %esi,%eax
    9d2b:	66 89 55 fc          	mov    %dx,-0x4(%rbp)
    9d2f:	66 89 45 f8          	mov    %ax,-0x8(%rbp)
    9d33:	0f b7 45 fc          	movzwl -0x4(%rbp),%eax
    9d37:	66 2b 45 f8          	sub    -0x8(%rbp),%ax
    9d3b:	5d                   	pop    %rbp
    9d3c:	c3                   	retq   

0000000000009d3d <safe_mul_func_uint16_t_u_u>:
    9d3d:	f3 0f 1e fa          	endbr64 
    9d41:	55                   	push   %rbp
    9d42:	48 89 e5             	mov    %rsp,%rbp
    9d45:	89 fa                	mov    %edi,%edx
    9d47:	89 f0                	mov    %esi,%eax
    9d49:	66 89 55 fc          	mov    %dx,-0x4(%rbp)
    9d4d:	66 89 45 f8          	mov    %ax,-0x8(%rbp)
    9d51:	0f b7 45 fc          	movzwl -0x4(%rbp),%eax
    9d55:	66 0f af 45 f8       	imul   -0x8(%rbp),%ax
    9d5a:	5d                   	pop    %rbp
    9d5b:	c3                   	retq   

0000000000009d5c <safe_mod_func_uint16_t_u_u>:
    9d5c:	f3 0f 1e fa          	endbr64 
    9d60:	55                   	push   %rbp
    9d61:	48 89 e5             	mov    %rsp,%rbp
    9d64:	89 fa                	mov    %edi,%edx
    9d66:	89 f0                	mov    %esi,%eax
    9d68:	66 89 55 fc          	mov    %dx,-0x4(%rbp)
    9d6c:	66 89 45 f8          	mov    %ax,-0x8(%rbp)
    9d70:	66 83 7d f8 00       	cmpw   $0x0,-0x8(%rbp)
    9d75:	74 11                	je     9d88 <safe_mod_func_uint16_t_u_u+0x2c>
    9d77:	0f b7 45 fc          	movzwl -0x4(%rbp),%eax
    9d7b:	ba 00 00 00 00       	mov    $0x0,%edx
    9d80:	66 f7 75 f8          	divw   -0x8(%rbp)
    9d84:	89 d0                	mov    %edx,%eax
    9d86:	eb 04                	jmp    9d8c <safe_mod_func_uint16_t_u_u+0x30>
    9d88:	0f b7 45 fc          	movzwl -0x4(%rbp),%eax
    9d8c:	5d                   	pop    %rbp
    9d8d:	c3                   	retq   

0000000000009d8e <safe_div_func_uint16_t_u_u>:
    9d8e:	f3 0f 1e fa          	endbr64 
    9d92:	55                   	push   %rbp
    9d93:	48 89 e5             	mov    %rsp,%rbp
    9d96:	89 fa                	mov    %edi,%edx
    9d98:	89 f0                	mov    %esi,%eax
    9d9a:	66 89 55 fc          	mov    %dx,-0x4(%rbp)
    9d9e:	66 89 45 f8          	mov    %ax,-0x8(%rbp)
    9da2:	66 83 7d f8 00       	cmpw   $0x0,-0x8(%rbp)
    9da7:	74 0f                	je     9db8 <safe_div_func_uint16_t_u_u+0x2a>
    9da9:	0f b7 45 fc          	movzwl -0x4(%rbp),%eax
    9dad:	ba 00 00 00 00       	mov    $0x0,%edx
    9db2:	66 f7 75 f8          	divw   -0x8(%rbp)
    9db6:	eb 04                	jmp    9dbc <safe_div_func_uint16_t_u_u+0x2e>
    9db8:	0f b7 45 fc          	movzwl -0x4(%rbp),%eax
    9dbc:	5d                   	pop    %rbp
    9dbd:	c3                   	retq   

0000000000009dbe <safe_lshift_func_uint16_t_u_s>:
    9dbe:	f3 0f 1e fa          	endbr64 
    9dc2:	55                   	push   %rbp
    9dc3:	48 89 e5             	mov    %rsp,%rbp
    9dc6:	89 f8                	mov    %edi,%eax
    9dc8:	89 75 f8             	mov    %esi,-0x8(%rbp)
    9dcb:	66 89 45 fc          	mov    %ax,-0x4(%rbp)
    9dcf:	83 7d f8 00          	cmpl   $0x0,-0x8(%rbp)
    9dd3:	78 2b                	js     9e00 <safe_lshift_func_uint16_t_u_s+0x42>
    9dd5:	83 7d f8 1f          	cmpl   $0x1f,-0x8(%rbp)
    9dd9:	7f 25                	jg     9e00 <safe_lshift_func_uint16_t_u_s+0x42>
    9ddb:	0f b7 55 fc          	movzwl -0x4(%rbp),%edx
    9ddf:	8b 45 f8             	mov    -0x8(%rbp),%eax
    9de2:	be ff ff 00 00       	mov    $0xffff,%esi
    9de7:	89 c1                	mov    %eax,%ecx
    9de9:	d3 fe                	sar    %cl,%esi
    9deb:	89 f0                	mov    %esi,%eax
    9ded:	39 c2                	cmp    %eax,%edx
    9def:	7f 0f                	jg     9e00 <safe_lshift_func_uint16_t_u_s+0x42>
    9df1:	0f b7 55 fc          	movzwl -0x4(%rbp),%edx
    9df5:	8b 45 f8             	mov    -0x8(%rbp),%eax
    9df8:	89 c1                	mov    %eax,%ecx
    9dfa:	d3 e2                	shl    %cl,%edx
    9dfc:	89 d0                	mov    %edx,%eax
    9dfe:	eb 04                	jmp    9e04 <safe_lshift_func_uint16_t_u_s+0x46>
    9e00:	0f b7 45 fc          	movzwl -0x4(%rbp),%eax
    9e04:	5d                   	pop    %rbp
    9e05:	c3                   	retq   

0000000000009e06 <safe_lshift_func_uint16_t_u_u>:
    9e06:	f3 0f 1e fa          	endbr64 
    9e0a:	55                   	push   %rbp
    9e0b:	48 89 e5             	mov    %rsp,%rbp
    9e0e:	89 f8                	mov    %edi,%eax
    9e10:	89 75 f8             	mov    %esi,-0x8(%rbp)
    9e13:	66 89 45 fc          	mov    %ax,-0x4(%rbp)
    9e17:	83 7d f8 1f          	cmpl   $0x1f,-0x8(%rbp)
    9e1b:	77 25                	ja     9e42 <safe_lshift_func_uint16_t_u_u+0x3c>
    9e1d:	0f b7 55 fc          	movzwl -0x4(%rbp),%edx
    9e21:	8b 45 f8             	mov    -0x8(%rbp),%eax
    9e24:	be ff ff 00 00       	mov    $0xffff,%esi
    9e29:	89 c1                	mov    %eax,%ecx
    9e2b:	d3 fe                	sar    %cl,%esi
    9e2d:	89 f0                	mov    %esi,%eax
    9e2f:	39 c2                	cmp    %eax,%edx
    9e31:	7f 0f                	jg     9e42 <safe_lshift_func_uint16_t_u_u+0x3c>
    9e33:	0f b7 55 fc          	movzwl -0x4(%rbp),%edx
    9e37:	8b 45 f8             	mov    -0x8(%rbp),%eax
    9e3a:	89 c1                	mov    %eax,%ecx
    9e3c:	d3 e2                	shl    %cl,%edx
    9e3e:	89 d0                	mov    %edx,%eax
    9e40:	eb 04                	jmp    9e46 <safe_lshift_func_uint16_t_u_u+0x40>
    9e42:	0f b7 45 fc          	movzwl -0x4(%rbp),%eax
    9e46:	5d                   	pop    %rbp
    9e47:	c3                   	retq   

0000000000009e48 <safe_rshift_func_uint16_t_u_s>:
    9e48:	f3 0f 1e fa          	endbr64 
    9e4c:	55                   	push   %rbp
    9e4d:	48 89 e5             	mov    %rsp,%rbp
    9e50:	89 f8                	mov    %edi,%eax
    9e52:	89 75 f8             	mov    %esi,-0x8(%rbp)
    9e55:	66 89 45 fc          	mov    %ax,-0x4(%rbp)
    9e59:	83 7d f8 00          	cmpl   $0x0,-0x8(%rbp)
    9e5d:	78 15                	js     9e74 <safe_rshift_func_uint16_t_u_s+0x2c>
    9e5f:	83 7d f8 1f          	cmpl   $0x1f,-0x8(%rbp)
    9e63:	7f 0f                	jg     9e74 <safe_rshift_func_uint16_t_u_s+0x2c>
    9e65:	0f b7 55 fc          	movzwl -0x4(%rbp),%edx
    9e69:	8b 45 f8             	mov    -0x8(%rbp),%eax
    9e6c:	89 c1                	mov    %eax,%ecx
    9e6e:	d3 fa                	sar    %cl,%edx
    9e70:	89 d0                	mov    %edx,%eax
    9e72:	eb 04                	jmp    9e78 <safe_rshift_func_uint16_t_u_s+0x30>
    9e74:	0f b7 45 fc          	movzwl -0x4(%rbp),%eax
    9e78:	5d                   	pop    %rbp
    9e79:	c3                   	retq   

0000000000009e7a <safe_rshift_func_uint16_t_u_u>:
    9e7a:	f3 0f 1e fa          	endbr64 
    9e7e:	55                   	push   %rbp
    9e7f:	48 89 e5             	mov    %rsp,%rbp
    9e82:	89 f8                	mov    %edi,%eax
    9e84:	89 75 f8             	mov    %esi,-0x8(%rbp)
    9e87:	66 89 45 fc          	mov    %ax,-0x4(%rbp)
    9e8b:	83 7d f8 1f          	cmpl   $0x1f,-0x8(%rbp)
    9e8f:	77 0f                	ja     9ea0 <safe_rshift_func_uint16_t_u_u+0x26>
    9e91:	0f b7 55 fc          	movzwl -0x4(%rbp),%edx
    9e95:	8b 45 f8             	mov    -0x8(%rbp),%eax
    9e98:	89 c1                	mov    %eax,%ecx
    9e9a:	d3 fa                	sar    %cl,%edx
    9e9c:	89 d0                	mov    %edx,%eax
    9e9e:	eb 04                	jmp    9ea4 <safe_rshift_func_uint16_t_u_u+0x2a>
    9ea0:	0f b7 45 fc          	movzwl -0x4(%rbp),%eax
    9ea4:	5d                   	pop    %rbp
    9ea5:	c3                   	retq   

0000000000009ea6 <safe_unary_minus_func_uint32_t_u>:
    9ea6:	f3 0f 1e fa          	endbr64 
    9eaa:	55                   	push   %rbp
    9eab:	48 89 e5             	mov    %rsp,%rbp
    9eae:	89 7d fc             	mov    %edi,-0x4(%rbp)
    9eb1:	8b 45 fc             	mov    -0x4(%rbp),%eax
    9eb4:	f7 d8                	neg    %eax
    9eb6:	5d                   	pop    %rbp
    9eb7:	c3                   	retq   

0000000000009eb8 <safe_add_func_uint32_t_u_u>:
    9eb8:	f3 0f 1e fa          	endbr64 
    9ebc:	55                   	push   %rbp
    9ebd:	48 89 e5             	mov    %rsp,%rbp
    9ec0:	89 7d fc             	mov    %edi,-0x4(%rbp)
    9ec3:	89 75 f8             	mov    %esi,-0x8(%rbp)
    9ec6:	8b 55 fc             	mov    -0x4(%rbp),%edx
    9ec9:	8b 45 f8             	mov    -0x8(%rbp),%eax
    9ecc:	01 d0                	add    %edx,%eax
    9ece:	5d                   	pop    %rbp
    9ecf:	c3                   	retq   

0000000000009ed0 <safe_sub_func_uint32_t_u_u>:
    9ed0:	f3 0f 1e fa          	endbr64 
    9ed4:	55                   	push   %rbp
    9ed5:	48 89 e5             	mov    %rsp,%rbp
    9ed8:	89 7d fc             	mov    %edi,-0x4(%rbp)
    9edb:	89 75 f8             	mov    %esi,-0x8(%rbp)
    9ede:	8b 45 fc             	mov    -0x4(%rbp),%eax
    9ee1:	2b 45 f8             	sub    -0x8(%rbp),%eax
    9ee4:	5d                   	pop    %rbp
    9ee5:	c3                   	retq   

0000000000009ee6 <safe_mul_func_uint32_t_u_u>:
    9ee6:	f3 0f 1e fa          	endbr64 
    9eea:	55                   	push   %rbp
    9eeb:	48 89 e5             	mov    %rsp,%rbp
    9eee:	89 7d fc             	mov    %edi,-0x4(%rbp)
    9ef1:	89 75 f8             	mov    %esi,-0x8(%rbp)
    9ef4:	8b 45 fc             	mov    -0x4(%rbp),%eax
    9ef7:	0f af 45 f8          	imul   -0x8(%rbp),%eax
    9efb:	5d                   	pop    %rbp
    9efc:	c3                   	retq   

0000000000009efd <safe_mod_func_uint32_t_u_u>:
    9efd:	f3 0f 1e fa          	endbr64 
    9f01:	55                   	push   %rbp
    9f02:	48 89 e5             	mov    %rsp,%rbp
    9f05:	89 7d fc             	mov    %edi,-0x4(%rbp)
    9f08:	89 75 f8             	mov    %esi,-0x8(%rbp)
    9f0b:	83 7d f8 00          	cmpl   $0x0,-0x8(%rbp)
    9f0f:	74 0f                	je     9f20 <safe_mod_func_uint32_t_u_u+0x23>
    9f11:	8b 45 fc             	mov    -0x4(%rbp),%eax
    9f14:	ba 00 00 00 00       	mov    $0x0,%edx
    9f19:	f7 75 f8             	divl   -0x8(%rbp)
    9f1c:	89 d0                	mov    %edx,%eax
    9f1e:	eb 03                	jmp    9f23 <safe_mod_func_uint32_t_u_u+0x26>
    9f20:	8b 45 fc             	mov    -0x4(%rbp),%eax
    9f23:	5d                   	pop    %rbp
    9f24:	c3                   	retq   

0000000000009f25 <safe_div_func_uint32_t_u_u>:
    9f25:	f3 0f 1e fa          	endbr64 
    9f29:	55                   	push   %rbp
    9f2a:	48 89 e5             	mov    %rsp,%rbp
    9f2d:	89 7d fc             	mov    %edi,-0x4(%rbp)
    9f30:	89 75 f8             	mov    %esi,-0x8(%rbp)
    9f33:	83 7d f8 00          	cmpl   $0x0,-0x8(%rbp)
    9f37:	74 0d                	je     9f46 <safe_div_func_uint32_t_u_u+0x21>
    9f39:	8b 45 fc             	mov    -0x4(%rbp),%eax
    9f3c:	ba 00 00 00 00       	mov    $0x0,%edx
    9f41:	f7 75 f8             	divl   -0x8(%rbp)
    9f44:	eb 03                	jmp    9f49 <safe_div_func_uint32_t_u_u+0x24>
    9f46:	8b 45 fc             	mov    -0x4(%rbp),%eax
    9f49:	5d                   	pop    %rbp
    9f4a:	c3                   	retq   

0000000000009f4b <safe_lshift_func_uint32_t_u_s>:
    9f4b:	f3 0f 1e fa          	endbr64 
    9f4f:	55                   	push   %rbp
    9f50:	48 89 e5             	mov    %rsp,%rbp
    9f53:	89 7d fc             	mov    %edi,-0x4(%rbp)
    9f56:	89 75 f8             	mov    %esi,-0x8(%rbp)
    9f59:	83 7d f8 00          	cmpl   $0x0,-0x8(%rbp)
    9f5d:	78 27                	js     9f86 <safe_lshift_func_uint32_t_u_s+0x3b>
    9f5f:	83 7d f8 1f          	cmpl   $0x1f,-0x8(%rbp)
    9f63:	7f 21                	jg     9f86 <safe_lshift_func_uint32_t_u_s+0x3b>
    9f65:	8b 45 f8             	mov    -0x8(%rbp),%eax
    9f68:	ba ff ff ff ff       	mov    $0xffffffff,%edx
    9f6d:	89 c1                	mov    %eax,%ecx
    9f6f:	d3 ea                	shr    %cl,%edx
    9f71:	89 d0                	mov    %edx,%eax
    9f73:	39 45 fc             	cmp    %eax,-0x4(%rbp)
    9f76:	77 0e                	ja     9f86 <safe_lshift_func_uint32_t_u_s+0x3b>
    9f78:	8b 45 f8             	mov    -0x8(%rbp),%eax
    9f7b:	8b 55 fc             	mov    -0x4(%rbp),%edx
    9f7e:	89 c1                	mov    %eax,%ecx
    9f80:	d3 e2                	shl    %cl,%edx
    9f82:	89 d0                	mov    %edx,%eax
    9f84:	eb 03                	jmp    9f89 <safe_lshift_func_uint32_t_u_s+0x3e>
    9f86:	8b 45 fc             	mov    -0x4(%rbp),%eax
    9f89:	5d                   	pop    %rbp
    9f8a:	c3                   	retq   

0000000000009f8b <safe_lshift_func_uint32_t_u_u>:
    9f8b:	f3 0f 1e fa          	endbr64 
    9f8f:	55                   	push   %rbp
    9f90:	48 89 e5             	mov    %rsp,%rbp
    9f93:	89 7d fc             	mov    %edi,-0x4(%rbp)
    9f96:	89 75 f8             	mov    %esi,-0x8(%rbp)
    9f99:	83 7d f8 1f          	cmpl   $0x1f,-0x8(%rbp)
    9f9d:	77 21                	ja     9fc0 <safe_lshift_func_uint32_t_u_u+0x35>
    9f9f:	8b 45 f8             	mov    -0x8(%rbp),%eax
    9fa2:	ba ff ff ff ff       	mov    $0xffffffff,%edx
    9fa7:	89 c1                	mov    %eax,%ecx
    9fa9:	d3 ea                	shr    %cl,%edx
    9fab:	89 d0                	mov    %edx,%eax
    9fad:	39 45 fc             	cmp    %eax,-0x4(%rbp)
    9fb0:	77 0e                	ja     9fc0 <safe_lshift_func_uint32_t_u_u+0x35>
    9fb2:	8b 45 f8             	mov    -0x8(%rbp),%eax
    9fb5:	8b 55 fc             	mov    -0x4(%rbp),%edx
    9fb8:	89 c1                	mov    %eax,%ecx
    9fba:	d3 e2                	shl    %cl,%edx
    9fbc:	89 d0                	mov    %edx,%eax
    9fbe:	eb 03                	jmp    9fc3 <safe_lshift_func_uint32_t_u_u+0x38>
    9fc0:	8b 45 fc             	mov    -0x4(%rbp),%eax
    9fc3:	5d                   	pop    %rbp
    9fc4:	c3                   	retq   

0000000000009fc5 <safe_rshift_func_uint32_t_u_s>:
    9fc5:	f3 0f 1e fa          	endbr64 
    9fc9:	55                   	push   %rbp
    9fca:	48 89 e5             	mov    %rsp,%rbp
    9fcd:	89 7d fc             	mov    %edi,-0x4(%rbp)
    9fd0:	89 75 f8             	mov    %esi,-0x8(%rbp)
    9fd3:	83 7d f8 00          	cmpl   $0x0,-0x8(%rbp)
    9fd7:	78 14                	js     9fed <safe_rshift_func_uint32_t_u_s+0x28>
    9fd9:	83 7d f8 1f          	cmpl   $0x1f,-0x8(%rbp)
    9fdd:	7f 0e                	jg     9fed <safe_rshift_func_uint32_t_u_s+0x28>
    9fdf:	8b 45 f8             	mov    -0x8(%rbp),%eax
    9fe2:	8b 55 fc             	mov    -0x4(%rbp),%edx
    9fe5:	89 c1                	mov    %eax,%ecx
    9fe7:	d3 ea                	shr    %cl,%edx
    9fe9:	89 d0                	mov    %edx,%eax
    9feb:	eb 03                	jmp    9ff0 <safe_rshift_func_uint32_t_u_s+0x2b>
    9fed:	8b 45 fc             	mov    -0x4(%rbp),%eax
    9ff0:	5d                   	pop    %rbp
    9ff1:	c3                   	retq   

0000000000009ff2 <safe_rshift_func_uint32_t_u_u>:
    9ff2:	f3 0f 1e fa          	endbr64 
    9ff6:	55                   	push   %rbp
    9ff7:	48 89 e5             	mov    %rsp,%rbp
    9ffa:	89 7d fc             	mov    %edi,-0x4(%rbp)
    9ffd:	89 75 f8             	mov    %esi,-0x8(%rbp)
    a000:	83 7d f8 1f          	cmpl   $0x1f,-0x8(%rbp)
    a004:	77 0e                	ja     a014 <safe_rshift_func_uint32_t_u_u+0x22>
    a006:	8b 45 f8             	mov    -0x8(%rbp),%eax
    a009:	8b 55 fc             	mov    -0x4(%rbp),%edx
    a00c:	89 c1                	mov    %eax,%ecx
    a00e:	d3 ea                	shr    %cl,%edx
    a010:	89 d0                	mov    %edx,%eax
    a012:	eb 03                	jmp    a017 <safe_rshift_func_uint32_t_u_u+0x25>
    a014:	8b 45 fc             	mov    -0x4(%rbp),%eax
    a017:	5d                   	pop    %rbp
    a018:	c3                   	retq   

000000000000a019 <safe_unary_minus_func_uint64_t_u>:
    a019:	f3 0f 1e fa          	endbr64 
    a01d:	55                   	push   %rbp
    a01e:	48 89 e5             	mov    %rsp,%rbp
    a021:	48 89 7d f8          	mov    %rdi,-0x8(%rbp)
    a025:	48 8b 45 f8          	mov    -0x8(%rbp),%rax
    a029:	48 f7 d8             	neg    %rax
    a02c:	5d                   	pop    %rbp
    a02d:	c3                   	retq   

000000000000a02e <safe_add_func_uint64_t_u_u>:
    a02e:	f3 0f 1e fa          	endbr64 
    a032:	55                   	push   %rbp
    a033:	48 89 e5             	mov    %rsp,%rbp
    a036:	48 89 7d f8          	mov    %rdi,-0x8(%rbp)
    a03a:	48 89 75 f0          	mov    %rsi,-0x10(%rbp)
    a03e:	48 8b 55 f8          	mov    -0x8(%rbp),%rdx
    a042:	48 8b 45 f0          	mov    -0x10(%rbp),%rax
    a046:	48 01 d0             	add    %rdx,%rax
    a049:	5d                   	pop    %rbp
    a04a:	c3                   	retq   

000000000000a04b <safe_sub_func_uint64_t_u_u>:
    a04b:	f3 0f 1e fa          	endbr64 
    a04f:	55                   	push   %rbp
    a050:	48 89 e5             	mov    %rsp,%rbp
    a053:	48 89 7d f8          	mov    %rdi,-0x8(%rbp)
    a057:	48 89 75 f0          	mov    %rsi,-0x10(%rbp)
    a05b:	48 8b 45 f8          	mov    -0x8(%rbp),%rax
    a05f:	48 2b 45 f0          	sub    -0x10(%rbp),%rax
    a063:	5d                   	pop    %rbp
    a064:	c3                   	retq   

000000000000a065 <safe_mul_func_uint64_t_u_u>:
    a065:	f3 0f 1e fa          	endbr64 
    a069:	55                   	push   %rbp
    a06a:	48 89 e5             	mov    %rsp,%rbp
    a06d:	48 89 7d f8          	mov    %rdi,-0x8(%rbp)
    a071:	48 89 75 f0          	mov    %rsi,-0x10(%rbp)
    a075:	48 8b 45 f8          	mov    -0x8(%rbp),%rax
    a079:	48 0f af 45 f0       	imul   -0x10(%rbp),%rax
    a07e:	5d                   	pop    %rbp
    a07f:	c3                   	retq   

000000000000a080 <safe_mod_func_uint64_t_u_u>:
    a080:	f3 0f 1e fa          	endbr64 
    a084:	55                   	push   %rbp
    a085:	48 89 e5             	mov    %rsp,%rbp
    a088:	48 89 7d f8          	mov    %rdi,-0x8(%rbp)
    a08c:	48 89 75 f0          	mov    %rsi,-0x10(%rbp)
    a090:	48 83 7d f0 00       	cmpq   $0x0,-0x10(%rbp)
    a095:	74 12                	je     a0a9 <safe_mod_func_uint64_t_u_u+0x29>
    a097:	48 8b 45 f8          	mov    -0x8(%rbp),%rax
    a09b:	ba 00 00 00 00       	mov    $0x0,%edx
    a0a0:	48 f7 75 f0          	divq   -0x10(%rbp)
    a0a4:	48 89 d0             	mov    %rdx,%rax
    a0a7:	eb 04                	jmp    a0ad <safe_mod_func_uint64_t_u_u+0x2d>
    a0a9:	48 8b 45 f8          	mov    -0x8(%rbp),%rax
    a0ad:	5d                   	pop    %rbp
    a0ae:	c3                   	retq   

000000000000a0af <safe_div_func_uint64_t_u_u>:
    a0af:	f3 0f 1e fa          	endbr64 
    a0b3:	55                   	push   %rbp
    a0b4:	48 89 e5             	mov    %rsp,%rbp
    a0b7:	48 89 7d f8          	mov    %rdi,-0x8(%rbp)
    a0bb:	48 89 75 f0          	mov    %rsi,-0x10(%rbp)
    a0bf:	48 83 7d f0 00       	cmpq   $0x0,-0x10(%rbp)
    a0c4:	74 0f                	je     a0d5 <safe_div_func_uint64_t_u_u+0x26>
    a0c6:	48 8b 45 f8          	mov    -0x8(%rbp),%rax
    a0ca:	ba 00 00 00 00       	mov    $0x0,%edx
    a0cf:	48 f7 75 f0          	divq   -0x10(%rbp)
    a0d3:	eb 04                	jmp    a0d9 <safe_div_func_uint64_t_u_u+0x2a>
    a0d5:	48 8b 45 f8          	mov    -0x8(%rbp),%rax
    a0d9:	5d                   	pop    %rbp
    a0da:	c3                   	retq   

000000000000a0db <safe_lshift_func_uint64_t_u_s>:
    a0db:	f3 0f 1e fa          	endbr64 
    a0df:	55                   	push   %rbp
    a0e0:	48 89 e5             	mov    %rsp,%rbp
    a0e3:	48 89 7d f8          	mov    %rdi,-0x8(%rbp)
    a0e7:	89 75 f4             	mov    %esi,-0xc(%rbp)
    a0ea:	83 7d f4 00          	cmpl   $0x0,-0xc(%rbp)
    a0ee:	78 2f                	js     a11f <safe_lshift_func_uint64_t_u_s+0x44>
    a0f0:	83 7d f4 1f          	cmpl   $0x1f,-0xc(%rbp)
    a0f4:	7f 29                	jg     a11f <safe_lshift_func_uint64_t_u_s+0x44>
    a0f6:	8b 45 f4             	mov    -0xc(%rbp),%eax
    a0f9:	48 c7 c2 ff ff ff ff 	mov    $0xffffffffffffffff,%rdx
    a100:	89 c1                	mov    %eax,%ecx
    a102:	48 d3 ea             	shr    %cl,%rdx
    a105:	48 89 d0             	mov    %rdx,%rax
    a108:	48 39 45 f8          	cmp    %rax,-0x8(%rbp)
    a10c:	77 11                	ja     a11f <safe_lshift_func_uint64_t_u_s+0x44>
    a10e:	8b 45 f4             	mov    -0xc(%rbp),%eax
    a111:	48 8b 55 f8          	mov    -0x8(%rbp),%rdx
    a115:	89 c1                	mov    %eax,%ecx
    a117:	48 d3 e2             	shl    %cl,%rdx
    a11a:	48 89 d0             	mov    %rdx,%rax
    a11d:	eb 04                	jmp    a123 <safe_lshift_func_uint64_t_u_s+0x48>
    a11f:	48 8b 45 f8          	mov    -0x8(%rbp),%rax
    a123:	5d                   	pop    %rbp
    a124:	c3                   	retq   

000000000000a125 <safe_lshift_func_uint64_t_u_u>:
    a125:	f3 0f 1e fa          	endbr64 
    a129:	55                   	push   %rbp
    a12a:	48 89 e5             	mov    %rsp,%rbp
    a12d:	48 89 7d f8          	mov    %rdi,-0x8(%rbp)
    a131:	89 75 f4             	mov    %esi,-0xc(%rbp)
    a134:	83 7d f4 1f          	cmpl   $0x1f,-0xc(%rbp)
    a138:	77 29                	ja     a163 <safe_lshift_func_uint64_t_u_u+0x3e>
    a13a:	8b 45 f4             	mov    -0xc(%rbp),%eax
    a13d:	48 c7 c2 ff ff ff ff 	mov    $0xffffffffffffffff,%rdx
    a144:	89 c1                	mov    %eax,%ecx
    a146:	48 d3 ea             	shr    %cl,%rdx
    a149:	48 89 d0             	mov    %rdx,%rax
    a14c:	48 39 45 f8          	cmp    %rax,-0x8(%rbp)
    a150:	77 11                	ja     a163 <safe_lshift_func_uint64_t_u_u+0x3e>
    a152:	8b 45 f4             	mov    -0xc(%rbp),%eax
    a155:	48 8b 55 f8          	mov    -0x8(%rbp),%rdx
    a159:	89 c1                	mov    %eax,%ecx
    a15b:	48 d3 e2             	shl    %cl,%rdx
    a15e:	48 89 d0             	mov    %rdx,%rax
    a161:	eb 04                	jmp    a167 <safe_lshift_func_uint64_t_u_u+0x42>
    a163:	48 8b 45 f8          	mov    -0x8(%rbp),%rax
    a167:	5d                   	pop    %rbp
    a168:	c3                   	retq   

000000000000a169 <safe_rshift_func_uint64_t_u_s>:
    a169:	f3 0f 1e fa          	endbr64 
    a16d:	55                   	push   %rbp
    a16e:	48 89 e5             	mov    %rsp,%rbp
    a171:	48 89 7d f8          	mov    %rdi,-0x8(%rbp)
    a175:	89 75 f4             	mov    %esi,-0xc(%rbp)
    a178:	83 7d f4 00          	cmpl   $0x0,-0xc(%rbp)
    a17c:	78 17                	js     a195 <safe_rshift_func_uint64_t_u_s+0x2c>
    a17e:	83 7d f4 1f          	cmpl   $0x1f,-0xc(%rbp)
    a182:	7f 11                	jg     a195 <safe_rshift_func_uint64_t_u_s+0x2c>
    a184:	8b 45 f4             	mov    -0xc(%rbp),%eax
    a187:	48 8b 55 f8          	mov    -0x8(%rbp),%rdx
    a18b:	89 c1                	mov    %eax,%ecx
    a18d:	48 d3 ea             	shr    %cl,%rdx
    a190:	48 89 d0             	mov    %rdx,%rax
    a193:	eb 04                	jmp    a199 <safe_rshift_func_uint64_t_u_s+0x30>
    a195:	48 8b 45 f8          	mov    -0x8(%rbp),%rax
    a199:	5d                   	pop    %rbp
    a19a:	c3                   	retq   

000000000000a19b <safe_rshift_func_uint64_t_u_u>:
    a19b:	f3 0f 1e fa          	endbr64 
    a19f:	55                   	push   %rbp
    a1a0:	48 89 e5             	mov    %rsp,%rbp
    a1a3:	48 89 7d f8          	mov    %rdi,-0x8(%rbp)
    a1a7:	89 75 f4             	mov    %esi,-0xc(%rbp)
    a1aa:	83 7d f4 1f          	cmpl   $0x1f,-0xc(%rbp)
    a1ae:	77 11                	ja     a1c1 <safe_rshift_func_uint64_t_u_u+0x26>
    a1b0:	8b 45 f4             	mov    -0xc(%rbp),%eax
    a1b3:	48 8b 55 f8          	mov    -0x8(%rbp),%rdx
    a1b7:	89 c1                	mov    %eax,%ecx
    a1b9:	48 d3 ea             	shr    %cl,%rdx
    a1bc:	48 89 d0             	mov    %rdx,%rax
    a1bf:	eb 04                	jmp    a1c5 <safe_rshift_func_uint64_t_u_u+0x2a>
    a1c1:	48 8b 45 f8          	mov    -0x8(%rbp),%rax
    a1c5:	5d                   	pop    %rbp
    a1c6:	c3                   	retq   

000000000000a1c7 <safe_add_func_float_f_f>:
    a1c7:	f3 0f 1e fa          	endbr64 
    a1cb:	55                   	push   %rbp
    a1cc:	48 89 e5             	mov    %rsp,%rbp
    a1cf:	f3 0f 11 45 fc       	movss  %xmm0,-0x4(%rbp)
    a1d4:	f3 0f 11 4d f8       	movss  %xmm1,-0x8(%rbp)
    a1d9:	f3 0f 10 4d fc       	movss  -0x4(%rbp),%xmm1
    a1de:	f3 0f 10 05 ae 6c 01 	movss  0x16cae(%rip),%xmm0        # 20e94 <l_503.5563+0x54>
    a1e5:	00 
    a1e6:	f3 0f 59 c8          	mulss  %xmm0,%xmm1
    a1ea:	f3 0f 10 55 f8       	movss  -0x8(%rbp),%xmm2
    a1ef:	f3 0f 10 05 9d 6c 01 	movss  0x16c9d(%rip),%xmm0        # 20e94 <l_503.5563+0x54>
    a1f6:	00 
    a1f7:	f3 0f 59 c2          	mulss  %xmm2,%xmm0
    a1fb:	f3 0f 58 c1          	addss  %xmm1,%xmm0
    a1ff:	f3 0f 10 0d 99 6c 01 	movss  0x16c99(%rip),%xmm1        # 20ea0 <l_503.5563+0x60>
    a206:	00 
    a207:	0f 54 c1             	andps  %xmm1,%xmm0
    a20a:	0f 2f 05 9f 6c 01 00 	comiss 0x16c9f(%rip),%xmm0        # 20eb0 <l_503.5563+0x70>
    a211:	76 07                	jbe    a21a <safe_add_func_float_f_f+0x53>
    a213:	f3 0f 10 45 fc       	movss  -0x4(%rbp),%xmm0
    a218:	eb 0a                	jmp    a224 <safe_add_func_float_f_f+0x5d>
    a21a:	f3 0f 10 45 fc       	movss  -0x4(%rbp),%xmm0
    a21f:	f3 0f 58 45 f8       	addss  -0x8(%rbp),%xmm0
    a224:	5d                   	pop    %rbp
    a225:	c3                   	retq   

000000000000a226 <safe_sub_func_float_f_f>:
    a226:	f3 0f 1e fa          	endbr64 
    a22a:	55                   	push   %rbp
    a22b:	48 89 e5             	mov    %rsp,%rbp
    a22e:	f3 0f 11 45 fc       	movss  %xmm0,-0x4(%rbp)
    a233:	f3 0f 11 4d f8       	movss  %xmm1,-0x8(%rbp)
    a238:	f3 0f 10 4d fc       	movss  -0x4(%rbp),%xmm1
    a23d:	f3 0f 10 05 4f 6c 01 	movss  0x16c4f(%rip),%xmm0        # 20e94 <l_503.5563+0x54>
    a244:	00 
    a245:	f3 0f 59 c1          	mulss  %xmm1,%xmm0
    a249:	f3 0f 10 55 f8       	movss  -0x8(%rbp),%xmm2
    a24e:	f3 0f 10 0d 3e 6c 01 	movss  0x16c3e(%rip),%xmm1        # 20e94 <l_503.5563+0x54>
    a255:	00 
    a256:	f3 0f 59 ca          	mulss  %xmm2,%xmm1
    a25a:	f3 0f 5c c1          	subss  %xmm1,%xmm0
    a25e:	f3 0f 10 0d 3a 6c 01 	movss  0x16c3a(%rip),%xmm1        # 20ea0 <l_503.5563+0x60>
    a265:	00 
    a266:	0f 54 c1             	andps  %xmm1,%xmm0
    a269:	0f 2f 05 40 6c 01 00 	comiss 0x16c40(%rip),%xmm0        # 20eb0 <l_503.5563+0x70>
    a270:	76 07                	jbe    a279 <safe_sub_func_float_f_f+0x53>
    a272:	f3 0f 10 45 fc       	movss  -0x4(%rbp),%xmm0
    a277:	eb 0a                	jmp    a283 <safe_sub_func_float_f_f+0x5d>
    a279:	f3 0f 10 45 fc       	movss  -0x4(%rbp),%xmm0
    a27e:	f3 0f 5c 45 f8       	subss  -0x8(%rbp),%xmm0
    a283:	5d                   	pop    %rbp
    a284:	c3                   	retq   

000000000000a285 <safe_mul_func_float_f_f>:
    a285:	f3 0f 1e fa          	endbr64 
    a289:	55                   	push   %rbp
    a28a:	48 89 e5             	mov    %rsp,%rbp
    a28d:	f3 0f 11 45 fc       	movss  %xmm0,-0x4(%rbp)
    a292:	f3 0f 11 4d f8       	movss  %xmm1,-0x8(%rbp)
    a297:	f3 0f 10 4d fc       	movss  -0x4(%rbp),%xmm1
    a29c:	f3 0f 10 05 10 6c 01 	movss  0x16c10(%rip),%xmm0        # 20eb4 <l_503.5563+0x74>
    a2a3:	00 
    a2a4:	f3 0f 59 c8          	mulss  %xmm0,%xmm1
    a2a8:	f3 0f 10 55 f8       	movss  -0x8(%rbp),%xmm2
    a2ad:	f3 0f 10 05 03 6c 01 	movss  0x16c03(%rip),%xmm0        # 20eb8 <l_503.5563+0x78>
    a2b4:	00 
    a2b5:	f3 0f 59 c2          	mulss  %xmm2,%xmm0
    a2b9:	f3 0f 59 c1          	mulss  %xmm1,%xmm0
    a2bd:	f3 0f 10 0d db 6b 01 	movss  0x16bdb(%rip),%xmm1        # 20ea0 <l_503.5563+0x60>
    a2c4:	00 
    a2c5:	0f 54 c1             	andps  %xmm1,%xmm0
    a2c8:	0f 2f 05 ed 6b 01 00 	comiss 0x16bed(%rip),%xmm0        # 20ebc <l_503.5563+0x7c>
    a2cf:	76 07                	jbe    a2d8 <safe_mul_func_float_f_f+0x53>
    a2d1:	f3 0f 10 45 fc       	movss  -0x4(%rbp),%xmm0
    a2d6:	eb 0a                	jmp    a2e2 <safe_mul_func_float_f_f+0x5d>
    a2d8:	f3 0f 10 45 fc       	movss  -0x4(%rbp),%xmm0
    a2dd:	f3 0f 59 45 f8       	mulss  -0x8(%rbp),%xmm0
    a2e2:	5d                   	pop    %rbp
    a2e3:	c3                   	retq   

000000000000a2e4 <safe_div_func_float_f_f>:
    a2e4:	f3 0f 1e fa          	endbr64 
    a2e8:	55                   	push   %rbp
    a2e9:	48 89 e5             	mov    %rsp,%rbp
    a2ec:	f3 0f 11 45 fc       	movss  %xmm0,-0x4(%rbp)
    a2f1:	f3 0f 11 4d f8       	movss  %xmm1,-0x8(%rbp)
    a2f6:	f3 0f 10 45 f8       	movss  -0x8(%rbp),%xmm0
    a2fb:	f3 0f 10 0d 9d 6b 01 	movss  0x16b9d(%rip),%xmm1        # 20ea0 <l_503.5563+0x60>
    a302:	00 
    a303:	0f 54 c8             	andps  %xmm0,%xmm1
    a306:	f3 0f 10 05 b2 6b 01 	movss  0x16bb2(%rip),%xmm0        # 20ec0 <l_503.5563+0x80>
    a30d:	00 
    a30e:	0f 2f c1             	comiss %xmm1,%xmm0
    a311:	0f 97 c0             	seta   %al
    a314:	83 f0 01             	xor    $0x1,%eax
    a317:	84 c0                	test   %al,%al
    a319:	75 56                	jne    a371 <safe_div_func_float_f_f+0x8d>
    a31b:	66 0f ef c0          	pxor   %xmm0,%xmm0
    a31f:	0f 2e 45 f8          	ucomiss -0x8(%rbp),%xmm0
    a323:	7a 0a                	jp     a32f <safe_div_func_float_f_f+0x4b>
    a325:	66 0f ef c0          	pxor   %xmm0,%xmm0
    a329:	0f 2e 45 f8          	ucomiss -0x8(%rbp),%xmm0
    a32d:	74 4e                	je     a37d <safe_div_func_float_f_f+0x99>
    a32f:	f3 0f 10 4d fc       	movss  -0x4(%rbp),%xmm1
    a334:	f3 0f 10 05 88 6b 01 	movss  0x16b88(%rip),%xmm0        # 20ec4 <l_503.5563+0x84>
    a33b:	00 
    a33c:	f3 0f 59 c1          	mulss  %xmm1,%xmm0
    a340:	f3 0f 10 55 f8       	movss  -0x8(%rbp),%xmm2
    a345:	f3 0f 10 0d 7b 6b 01 	movss  0x16b7b(%rip),%xmm1        # 20ec8 <l_503.5563+0x88>
    a34c:	00 
    a34d:	f3 0f 59 ca          	mulss  %xmm2,%xmm1
    a351:	f3 0f 5e c1          	divss  %xmm1,%xmm0
    a355:	f3 0f 10 0d 43 6b 01 	movss  0x16b43(%rip),%xmm1        # 20ea0 <l_503.5563+0x60>
    a35c:	00 
    a35d:	0f 54 c1             	andps  %xmm1,%xmm0
    a360:	0f 2f 05 65 6b 01 00 	comiss 0x16b65(%rip),%xmm0        # 20ecc <l_503.5563+0x8c>
    a367:	0f 97 c0             	seta   %al
    a36a:	83 f0 01             	xor    $0x1,%eax
    a36d:	84 c0                	test   %al,%al
    a36f:	74 0c                	je     a37d <safe_div_func_float_f_f+0x99>
    a371:	f3 0f 10 45 fc       	movss  -0x4(%rbp),%xmm0
    a376:	f3 0f 5e 45 f8       	divss  -0x8(%rbp),%xmm0
    a37b:	eb 05                	jmp    a382 <safe_div_func_float_f_f+0x9e>
    a37d:	f3 0f 10 45 fc       	movss  -0x4(%rbp),%xmm0
    a382:	5d                   	pop    %rbp
    a383:	c3                   	retq   

000000000000a384 <safe_add_func_double_f_f>:
    a384:	f3 0f 1e fa          	endbr64 
    a388:	55                   	push   %rbp
    a389:	48 89 e5             	mov    %rsp,%rbp
    a38c:	f2 0f 11 45 f8       	movsd  %xmm0,-0x8(%rbp)
    a391:	f2 0f 11 4d f0       	movsd  %xmm1,-0x10(%rbp)
    a396:	f2 0f 10 4d f8       	movsd  -0x8(%rbp),%xmm1
    a39b:	f2 0f 10 05 2d 6b 01 	movsd  0x16b2d(%rip),%xmm0        # 20ed0 <l_503.5563+0x90>
    a3a2:	00 
    a3a3:	f2 0f 59 c8          	mulsd  %xmm0,%xmm1
    a3a7:	f2 0f 10 55 f0       	movsd  -0x10(%rbp),%xmm2
    a3ac:	f2 0f 10 05 1c 6b 01 	movsd  0x16b1c(%rip),%xmm0        # 20ed0 <l_503.5563+0x90>
    a3b3:	00 
    a3b4:	f2 0f 59 c2          	mulsd  %xmm2,%xmm0
    a3b8:	f2 0f 58 c1          	addsd  %xmm1,%xmm0
    a3bc:	f3 0f 7e 0d 1c 6b 01 	movq   0x16b1c(%rip),%xmm1        # 20ee0 <l_503.5563+0xa0>
    a3c3:	00 
    a3c4:	66 0f 54 c1          	andpd  %xmm1,%xmm0
    a3c8:	66 0f 2f 05 20 6b 01 	comisd 0x16b20(%rip),%xmm0        # 20ef0 <l_503.5563+0xb0>
    a3cf:	00 
    a3d0:	76 07                	jbe    a3d9 <safe_add_func_double_f_f+0x55>
    a3d2:	f2 0f 10 45 f8       	movsd  -0x8(%rbp),%xmm0
    a3d7:	eb 0a                	jmp    a3e3 <safe_add_func_double_f_f+0x5f>
    a3d9:	f2 0f 10 45 f8       	movsd  -0x8(%rbp),%xmm0
    a3de:	f2 0f 58 45 f0       	addsd  -0x10(%rbp),%xmm0
    a3e3:	5d                   	pop    %rbp
    a3e4:	c3                   	retq   

000000000000a3e5 <safe_sub_func_double_f_f>:
    a3e5:	f3 0f 1e fa          	endbr64 
    a3e9:	55                   	push   %rbp
    a3ea:	48 89 e5             	mov    %rsp,%rbp
    a3ed:	f2 0f 11 45 f8       	movsd  %xmm0,-0x8(%rbp)
    a3f2:	f2 0f 11 4d f0       	movsd  %xmm1,-0x10(%rbp)
    a3f7:	f2 0f 10 4d f8       	movsd  -0x8(%rbp),%xmm1
    a3fc:	f2 0f 10 05 cc 6a 01 	movsd  0x16acc(%rip),%xmm0        # 20ed0 <l_503.5563+0x90>
    a403:	00 
    a404:	f2 0f 59 c1          	mulsd  %xmm1,%xmm0
    a408:	f2 0f 10 55 f0       	movsd  -0x10(%rbp),%xmm2
    a40d:	f2 0f 10 0d bb 6a 01 	movsd  0x16abb(%rip),%xmm1        # 20ed0 <l_503.5563+0x90>
    a414:	00 
    a415:	f2 0f 59 ca          	mulsd  %xmm2,%xmm1
    a419:	f2 0f 5c c1          	subsd  %xmm1,%xmm0
    a41d:	f3 0f 7e 0d bb 6a 01 	movq   0x16abb(%rip),%xmm1        # 20ee0 <l_503.5563+0xa0>
    a424:	00 
    a425:	66 0f 54 c1          	andpd  %xmm1,%xmm0
    a429:	66 0f 2f 05 bf 6a 01 	comisd 0x16abf(%rip),%xmm0        # 20ef0 <l_503.5563+0xb0>
    a430:	00 
    a431:	76 07                	jbe    a43a <safe_sub_func_double_f_f+0x55>
    a433:	f2 0f 10 45 f8       	movsd  -0x8(%rbp),%xmm0
    a438:	eb 0a                	jmp    a444 <safe_sub_func_double_f_f+0x5f>
    a43a:	f2 0f 10 45 f8       	movsd  -0x8(%rbp),%xmm0
    a43f:	f2 0f 5c 45 f0       	subsd  -0x10(%rbp),%xmm0
    a444:	5d                   	pop    %rbp
    a445:	c3                   	retq   

000000000000a446 <safe_mul_func_double_f_f>:
    a446:	f3 0f 1e fa          	endbr64 
    a44a:	55                   	push   %rbp
    a44b:	48 89 e5             	mov    %rsp,%rbp
    a44e:	f2 0f 11 45 f8       	movsd  %xmm0,-0x8(%rbp)
    a453:	f2 0f 11 4d f0       	movsd  %xmm1,-0x10(%rbp)
    a458:	f2 0f 10 4d f8       	movsd  -0x8(%rbp),%xmm1
    a45d:	f2 0f 10 05 93 6a 01 	movsd  0x16a93(%rip),%xmm0        # 20ef8 <l_503.5563+0xb8>
    a464:	00 
    a465:	f2 0f 59 c8          	mulsd  %xmm0,%xmm1
    a469:	f2 0f 10 55 f0       	movsd  -0x10(%rbp),%xmm2
    a46e:	f2 0f 10 05 8a 6a 01 	movsd  0x16a8a(%rip),%xmm0        # 20f00 <l_503.5563+0xc0>
    a475:	00 
    a476:	f2 0f 59 c2          	mulsd  %xmm2,%xmm0
    a47a:	f2 0f 59 c1          	mulsd  %xmm1,%xmm0
    a47e:	f3 0f 7e 0d 5a 6a 01 	movq   0x16a5a(%rip),%xmm1        # 20ee0 <l_503.5563+0xa0>
    a485:	00 
    a486:	66 0f 54 c1          	andpd  %xmm1,%xmm0
    a48a:	66 0f 2f 05 76 6a 01 	comisd 0x16a76(%rip),%xmm0        # 20f08 <l_503.5563+0xc8>
    a491:	00 
    a492:	76 07                	jbe    a49b <safe_mul_func_double_f_f+0x55>
    a494:	f2 0f 10 45 f8       	movsd  -0x8(%rbp),%xmm0
    a499:	eb 0a                	jmp    a4a5 <safe_mul_func_double_f_f+0x5f>
    a49b:	f2 0f 10 45 f8       	movsd  -0x8(%rbp),%xmm0
    a4a0:	f2 0f 59 45 f0       	mulsd  -0x10(%rbp),%xmm0
    a4a5:	5d                   	pop    %rbp
    a4a6:	c3                   	retq   

000000000000a4a7 <safe_div_func_double_f_f>:
    a4a7:	f3 0f 1e fa          	endbr64 
    a4ab:	55                   	push   %rbp
    a4ac:	48 89 e5             	mov    %rsp,%rbp
    a4af:	f2 0f 11 45 f8       	movsd  %xmm0,-0x8(%rbp)
    a4b4:	f2 0f 11 4d f0       	movsd  %xmm1,-0x10(%rbp)
    a4b9:	f2 0f 10 45 f0       	movsd  -0x10(%rbp),%xmm0
    a4be:	f3 0f 7e 0d 1a 6a 01 	movq   0x16a1a(%rip),%xmm1        # 20ee0 <l_503.5563+0xa0>
    a4c5:	00 
    a4c6:	66 0f 54 c8          	andpd  %xmm0,%xmm1
    a4ca:	f2 0f 10 05 3e 6a 01 	movsd  0x16a3e(%rip),%xmm0        # 20f10 <l_503.5563+0xd0>
    a4d1:	00 
    a4d2:	66 0f 2f c1          	comisd %xmm1,%xmm0
    a4d6:	0f 97 c0             	seta   %al
    a4d9:	83 f0 01             	xor    $0x1,%eax
    a4dc:	84 c0                	test   %al,%al
    a4de:	75 5a                	jne    a53a <safe_div_func_double_f_f+0x93>
    a4e0:	66 0f ef c0          	pxor   %xmm0,%xmm0
    a4e4:	66 0f 2e 45 f0       	ucomisd -0x10(%rbp),%xmm0
    a4e9:	7a 0b                	jp     a4f6 <safe_div_func_double_f_f+0x4f>
    a4eb:	66 0f ef c0          	pxor   %xmm0,%xmm0
    a4ef:	66 0f 2e 45 f0       	ucomisd -0x10(%rbp),%xmm0
    a4f4:	74 50                	je     a546 <safe_div_func_double_f_f+0x9f>
    a4f6:	f2 0f 10 4d f8       	movsd  -0x8(%rbp),%xmm1
    a4fb:	f2 0f 10 05 15 6a 01 	movsd  0x16a15(%rip),%xmm0        # 20f18 <l_503.5563+0xd8>
    a502:	00 
    a503:	f2 0f 59 c1          	mulsd  %xmm1,%xmm0
    a507:	f2 0f 10 55 f0       	movsd  -0x10(%rbp),%xmm2
    a50c:	f2 0f 10 0d 0c 6a 01 	movsd  0x16a0c(%rip),%xmm1        # 20f20 <l_503.5563+0xe0>
    a513:	00 
    a514:	f2 0f 59 ca          	mulsd  %xmm2,%xmm1
    a518:	f2 0f 5e c1          	divsd  %xmm1,%xmm0
    a51c:	f3 0f 7e 0d bc 69 01 	movq   0x169bc(%rip),%xmm1        # 20ee0 <l_503.5563+0xa0>
    a523:	00 
    a524:	66 0f 54 c1          	andpd  %xmm1,%xmm0
    a528:	66 0f 2f 05 f8 69 01 	comisd 0x169f8(%rip),%xmm0        # 20f28 <l_503.5563+0xe8>
    a52f:	00 
    a530:	0f 97 c0             	seta   %al
    a533:	83 f0 01             	xor    $0x1,%eax
    a536:	84 c0                	test   %al,%al
    a538:	74 0c                	je     a546 <safe_div_func_double_f_f+0x9f>
    a53a:	f2 0f 10 45 f8       	movsd  -0x8(%rbp),%xmm0
    a53f:	f2 0f 5e 45 f0       	divsd  -0x10(%rbp),%xmm0
    a544:	eb 05                	jmp    a54b <safe_div_func_double_f_f+0xa4>
    a546:	f2 0f 10 45 f8       	movsd  -0x8(%rbp),%xmm0
    a54b:	5d                   	pop    %rbp
    a54c:	c3                   	retq   

000000000000a54d <safe_convert_func_float_to_int32_t>:
    a54d:	f3 0f 1e fa          	endbr64 
    a551:	55                   	push   %rbp
    a552:	48 89 e5             	mov    %rsp,%rbp
    a555:	f3 0f 11 45 fc       	movss  %xmm0,-0x4(%rbp)
    a55a:	f3 0f 10 05 ce 69 01 	movss  0x169ce(%rip),%xmm0        # 20f30 <l_503.5563+0xf0>
    a561:	00 
    a562:	0f 2f 45 fc          	comiss -0x4(%rbp),%xmm0
    a566:	0f 93 c0             	setae  %al
    a569:	83 f0 01             	xor    $0x1,%eax
    a56c:	84 c0                	test   %al,%al
    a56e:	74 21                	je     a591 <safe_convert_func_float_to_int32_t+0x44>
    a570:	f3 0f 10 45 fc       	movss  -0x4(%rbp),%xmm0
    a575:	0f 2f 05 b8 69 01 00 	comiss 0x169b8(%rip),%xmm0        # 20f34 <l_503.5563+0xf4>
    a57c:	0f 93 c0             	setae  %al
    a57f:	83 f0 01             	xor    $0x1,%eax
    a582:	84 c0                	test   %al,%al
    a584:	74 0b                	je     a591 <safe_convert_func_float_to_int32_t+0x44>
    a586:	f3 0f 10 45 fc       	movss  -0x4(%rbp),%xmm0
    a58b:	f3 0f 2c c0          	cvttss2si %xmm0,%eax
    a58f:	eb 05                	jmp    a596 <safe_convert_func_float_to_int32_t+0x49>
    a591:	b8 ff ff ff 7f       	mov    $0x7fffffff,%eax
    a596:	5d                   	pop    %rbp
    a597:	c3                   	retq   

000000000000a598 <crc32_gentab>:
    a598:	f3 0f 1e fa          	endbr64 
    a59c:	55                   	push   %rbp
    a59d:	48 89 e5             	mov    %rsp,%rbp
    a5a0:	c7 45 fc 20 83 b8 ed 	movl   $0xedb88320,-0x4(%rbp)
    a5a7:	c7 45 f4 00 00 00 00 	movl   $0x0,-0xc(%rbp)
    a5ae:	eb 51                	jmp    a601 <crc32_gentab+0x69>
    a5b0:	8b 45 f4             	mov    -0xc(%rbp),%eax
    a5b3:	89 45 f0             	mov    %eax,-0x10(%rbp)
    a5b6:	c7 45 f8 08 00 00 00 	movl   $0x8,-0x8(%rbp)
    a5bd:	eb 1e                	jmp    a5dd <crc32_gentab+0x45>
    a5bf:	8b 45 f0             	mov    -0x10(%rbp),%eax
    a5c2:	83 e0 01             	and    $0x1,%eax
    a5c5:	85 c0                	test   %eax,%eax
    a5c7:	74 0d                	je     a5d6 <crc32_gentab+0x3e>
    a5c9:	8b 45 f0             	mov    -0x10(%rbp),%eax
    a5cc:	d1 e8                	shr    %eax
    a5ce:	33 45 fc             	xor    -0x4(%rbp),%eax
    a5d1:	89 45 f0             	mov    %eax,-0x10(%rbp)
    a5d4:	eb 03                	jmp    a5d9 <crc32_gentab+0x41>
    a5d6:	d1 6d f0             	shrl   -0x10(%rbp)
    a5d9:	83 6d f8 01          	subl   $0x1,-0x8(%rbp)
    a5dd:	83 7d f8 00          	cmpl   $0x0,-0x8(%rbp)
    a5e1:	7f dc                	jg     a5bf <crc32_gentab+0x27>
    a5e3:	8b 45 f4             	mov    -0xc(%rbp),%eax
    a5e6:	48 98                	cltq   
    a5e8:	48 8d 0c 85 00 00 00 	lea    0x0(,%rax,4),%rcx
    a5ef:	00 
    a5f0:	48 8d 15 49 dd 01 00 	lea    0x1dd49(%rip),%rdx        # 28340 <crc32_tab>
    a5f7:	8b 45 f0             	mov    -0x10(%rbp),%eax
    a5fa:	89 04 11             	mov    %eax,(%rcx,%rdx,1)
    a5fd:	83 45 f4 01          	addl   $0x1,-0xc(%rbp)
    a601:	81 7d f4 ff 00 00 00 	cmpl   $0xff,-0xc(%rbp)
    a608:	7e a6                	jle    a5b0 <crc32_gentab+0x18>
    a60a:	90                   	nop
    a60b:	90                   	nop
    a60c:	5d                   	pop    %rbp
    a60d:	c3                   	retq   

000000000000a60e <crc32_byte>:
    a60e:	f3 0f 1e fa          	endbr64 
    a612:	55                   	push   %rbp
    a613:	48 89 e5             	mov    %rsp,%rbp
    a616:	89 f8                	mov    %edi,%eax
    a618:	88 45 fc             	mov    %al,-0x4(%rbp)
    a61b:	8b 05 ff 99 01 00    	mov    0x199ff(%rip),%eax        # 24020 <crc32_context>
    a621:	c1 e8 08             	shr    $0x8,%eax
    a624:	89 c1                	mov    %eax,%ecx
    a626:	0f b6 55 fc          	movzbl -0x4(%rbp),%edx
    a62a:	8b 05 f0 99 01 00    	mov    0x199f0(%rip),%eax        # 24020 <crc32_context>
    a630:	31 d0                	xor    %edx,%eax
    a632:	0f b6 c0             	movzbl %al,%eax
    a635:	89 c0                	mov    %eax,%eax
    a637:	48 8d 14 85 00 00 00 	lea    0x0(,%rax,4),%rdx
    a63e:	00 
    a63f:	48 8d 05 fa dc 01 00 	lea    0x1dcfa(%rip),%rax        # 28340 <crc32_tab>
    a646:	8b 04 02             	mov    (%rdx,%rax,1),%eax
    a649:	31 c8                	xor    %ecx,%eax
    a64b:	89 05 cf 99 01 00    	mov    %eax,0x199cf(%rip)        # 24020 <crc32_context>
    a651:	90                   	nop
    a652:	5d                   	pop    %rbp
    a653:	c3                   	retq   

000000000000a654 <crc32_8bytes>:
    a654:	f3 0f 1e fa          	endbr64 
    a658:	55                   	push   %rbp
    a659:	48 89 e5             	mov    %rsp,%rbp
    a65c:	48 83 ec 08          	sub    $0x8,%rsp
    a660:	48 89 7d f8          	mov    %rdi,-0x8(%rbp)
    a664:	48 8b 45 f8          	mov    -0x8(%rbp),%rax
    a668:	0f b6 c0             	movzbl %al,%eax
    a66b:	89 c7                	mov    %eax,%edi
    a66d:	e8 9c ff ff ff       	callq  a60e <crc32_byte>
    a672:	48 8b 45 f8          	mov    -0x8(%rbp),%rax
    a676:	48 c1 e8 08          	shr    $0x8,%rax
    a67a:	0f b6 c0             	movzbl %al,%eax
    a67d:	89 c7                	mov    %eax,%edi
    a67f:	e8 8a ff ff ff       	callq  a60e <crc32_byte>
    a684:	48 8b 45 f8          	mov    -0x8(%rbp),%rax
    a688:	48 c1 e8 10          	shr    $0x10,%rax
    a68c:	0f b6 c0             	movzbl %al,%eax
    a68f:	89 c7                	mov    %eax,%edi
    a691:	e8 78 ff ff ff       	callq  a60e <crc32_byte>
    a696:	48 8b 45 f8          	mov    -0x8(%rbp),%rax
    a69a:	48 c1 e8 18          	shr    $0x18,%rax
    a69e:	0f b6 c0             	movzbl %al,%eax
    a6a1:	89 c7                	mov    %eax,%edi
    a6a3:	e8 66 ff ff ff       	callq  a60e <crc32_byte>
    a6a8:	48 8b 45 f8          	mov    -0x8(%rbp),%rax
    a6ac:	48 c1 e8 20          	shr    $0x20,%rax
    a6b0:	0f b6 c0             	movzbl %al,%eax
    a6b3:	89 c7                	mov    %eax,%edi
    a6b5:	e8 54 ff ff ff       	callq  a60e <crc32_byte>
    a6ba:	48 8b 45 f8          	mov    -0x8(%rbp),%rax
    a6be:	48 c1 e8 28          	shr    $0x28,%rax
    a6c2:	0f b6 c0             	movzbl %al,%eax
    a6c5:	89 c7                	mov    %eax,%edi
    a6c7:	e8 42 ff ff ff       	callq  a60e <crc32_byte>
    a6cc:	48 8b 45 f8          	mov    -0x8(%rbp),%rax
    a6d0:	48 c1 e8 30          	shr    $0x30,%rax
    a6d4:	0f b6 c0             	movzbl %al,%eax
    a6d7:	89 c7                	mov    %eax,%edi
    a6d9:	e8 30 ff ff ff       	callq  a60e <crc32_byte>
    a6de:	48 8b 45 f8          	mov    -0x8(%rbp),%rax
    a6e2:	48 c1 e8 38          	shr    $0x38,%rax
    a6e6:	0f b6 c0             	movzbl %al,%eax
    a6e9:	89 c7                	mov    %eax,%edi
    a6eb:	e8 1e ff ff ff       	callq  a60e <crc32_byte>
    a6f0:	90                   	nop
    a6f1:	c9                   	leaveq 
    a6f2:	c3                   	retq   

000000000000a6f3 <transparent_crc>:
    a6f3:	f3 0f 1e fa          	endbr64 
    a6f7:	55                   	push   %rbp
    a6f8:	48 89 e5             	mov    %rsp,%rbp
    a6fb:	48 83 ec 20          	sub    $0x20,%rsp
    a6ff:	48 89 7d f8          	mov    %rdi,-0x8(%rbp)
    a703:	48 89 75 f0          	mov    %rsi,-0x10(%rbp)
    a707:	89 55 ec             	mov    %edx,-0x14(%rbp)
    a70a:	48 8b 45 f8          	mov    -0x8(%rbp),%rax
    a70e:	48 89 c7             	mov    %rax,%rdi
    a711:	e8 3e ff ff ff       	callq  a654 <crc32_8bytes>
    a716:	83 7d ec 00          	cmpl   $0x0,-0x14(%rbp)
    a71a:	74 22                	je     a73e <transparent_crc+0x4b>
    a71c:	8b 05 fe 98 01 00    	mov    0x198fe(%rip),%eax        # 24020 <crc32_context>
    a722:	f7 d0                	not    %eax
    a724:	89 c2                	mov    %eax,%edx
    a726:	48 8b 45 f0          	mov    -0x10(%rbp),%rax
    a72a:	48 89 c6             	mov    %rax,%rsi
    a72d:	48 8d 3d fc 38 01 00 	lea    0x138fc(%rip),%rdi        # 1e030 <_IO_stdin_used+0x30>
    a734:	b8 00 00 00 00       	mov    $0x0,%eax
    a739:	e8 42 e9 ff ff       	callq  9080 <printf@plt>
    a73e:	90                   	nop
    a73f:	c9                   	leaveq 
    a740:	c3                   	retq   

000000000000a741 <transparent_crc_bytes>:
    a741:	f3 0f 1e fa          	endbr64 
    a745:	55                   	push   %rbp
    a746:	48 89 e5             	mov    %rsp,%rbp
    a749:	48 83 ec 30          	sub    $0x30,%rsp
    a74d:	48 89 7d e8          	mov    %rdi,-0x18(%rbp)
    a751:	89 75 e4             	mov    %esi,-0x1c(%rbp)
    a754:	48 89 55 d8          	mov    %rdx,-0x28(%rbp)
    a758:	89 4d e0             	mov    %ecx,-0x20(%rbp)
    a75b:	c7 45 fc 00 00 00 00 	movl   $0x0,-0x4(%rbp)
    a762:	eb 1e                	jmp    a782 <transparent_crc_bytes+0x41>
    a764:	8b 45 fc             	mov    -0x4(%rbp),%eax
    a767:	48 63 d0             	movslq %eax,%rdx
    a76a:	48 8b 45 e8          	mov    -0x18(%rbp),%rax
    a76e:	48 01 d0             	add    %rdx,%rax
    a771:	0f b6 00             	movzbl (%rax),%eax
    a774:	0f b6 c0             	movzbl %al,%eax
    a777:	89 c7                	mov    %eax,%edi
    a779:	e8 90 fe ff ff       	callq  a60e <crc32_byte>
    a77e:	83 45 fc 01          	addl   $0x1,-0x4(%rbp)
    a782:	8b 45 fc             	mov    -0x4(%rbp),%eax
    a785:	3b 45 e4             	cmp    -0x1c(%rbp),%eax
    a788:	7c da                	jl     a764 <transparent_crc_bytes+0x23>
    a78a:	83 7d e0 00          	cmpl   $0x0,-0x20(%rbp)
    a78e:	74 22                	je     a7b2 <transparent_crc_bytes+0x71>
    a790:	8b 05 8a 98 01 00    	mov    0x1988a(%rip),%eax        # 24020 <crc32_context>
    a796:	f7 d0                	not    %eax
    a798:	89 c2                	mov    %eax,%edx
    a79a:	48 8b 45 d8          	mov    -0x28(%rbp),%rax
    a79e:	48 89 c6             	mov    %rax,%rsi
    a7a1:	48 8d 3d 88 38 01 00 	lea    0x13888(%rip),%rdi        # 1e030 <_IO_stdin_used+0x30>
    a7a8:	b8 00 00 00 00       	mov    $0x0,%eax
    a7ad:	e8 ce e8 ff ff       	callq  9080 <printf@plt>
    a7b2:	90                   	nop
    a7b3:	c9                   	leaveq 
    a7b4:	c3                   	retq   

000000000000a7b5 <func_1>:
    a7b5:	f3 0f 1e fa          	endbr64 
    a7b9:	55                   	push   %rbp
    a7ba:	48 89 e5             	mov    %rsp,%rbp
    a7bd:	41 57                	push   %r15
    a7bf:	41 56                	push   %r14
    a7c1:	41 55                	push   %r13
    a7c3:	41 54                	push   %r12
    a7c5:	53                   	push   %rbx
    a7c6:	48 81 ec 38 0d 00 00 	sub    $0xd38,%rsp
    a7cd:	64 48 8b 04 25 28 00 	mov    %fs:0x28,%rax
    a7d4:	00 00 
    a7d6:	48 89 45 c8          	mov    %rax,-0x38(%rbp)
    a7da:	31 c0                	xor    %eax,%eax
    a7dc:	66 c7 85 ac f2 ff ff 	movw   $0xd41e,-0xd54(%rbp)
    a7e3:	1e d4 
    a7e5:	c7 85 bc f2 ff ff 01 	movl   $0x1,-0xd44(%rbp)
    a7ec:	00 00 00 
    a7ef:	c7 85 90 f3 ff ff ff 	movl   $0xffffffff,-0xc70(%rbp)
    a7f6:	ff ff ff 
    a7f9:	c7 85 94 f3 ff ff ff 	movl   $0xffffffff,-0xc6c(%rbp)
    a800:	ff ff ff 
    a803:	c7 85 98 f3 ff ff ff 	movl   $0xffffffff,-0xc68(%rbp)
    a80a:	ff ff ff 
    a80d:	c7 85 9c f3 ff ff ff 	movl   $0xffffffff,-0xc64(%rbp)
    a814:	ff ff ff 
    a817:	c7 85 a0 f3 ff ff ff 	movl   $0xffffffff,-0xc60(%rbp)
    a81e:	ff ff ff 
    a821:	c7 85 a4 f3 ff ff ff 	movl   $0xffffffff,-0xc5c(%rbp)
    a828:	ff ff ff 
    a82b:	48 c7 85 00 f4 ff ff 	movq   $0x9,-0xc00(%rbp)
    a832:	09 00 00 00 
    a836:	48 c7 85 08 f4 ff ff 	movq   $0x9,-0xbf8(%rbp)
    a83d:	09 00 00 00 
    a841:	48 b8 17 26 f4 97 21 	movabs $0x1bc3742197f42617,%rax
    a848:	74 c3 1b 
    a84b:	48 89 85 10 f4 ff ff 	mov    %rax,-0xbf0(%rbp)
    a852:	48 c7 85 18 f4 ff ff 	movq   $0x9,-0xbe8(%rbp)
    a859:	09 00 00 00 
    a85d:	48 c7 85 20 f4 ff ff 	movq   $0x9,-0xbe0(%rbp)
    a864:	09 00 00 00 
    a868:	48 89 85 28 f4 ff ff 	mov    %rax,-0xbd8(%rbp)
    a86f:	c6 85 a2 f2 ff ff 01 	movb   $0x1,-0xd5e(%rbp)
    a876:	48 8d 05 2b be 01 00 	lea    0x1be2b(%rip),%rax        # 266a8 <g_93>
    a87d:	48 89 85 f0 f2 ff ff 	mov    %rax,-0xd10(%rbp)
    a884:	48 8d 85 f0 f2 ff ff 	lea    -0xd10(%rbp),%rax
    a88b:	48 89 85 00 f3 ff ff 	mov    %rax,-0xd00(%rbp)
    a892:	c6 85 a3 f2 ff ff ff 	movb   $0xff,-0xd5d(%rbp)
    a899:	66 c7 85 ae f2 ff ff 	movw   $0x2,-0xd52(%rbp)
    a8a0:	02 00 
    a8a2:	c7 85 c0 f2 ff ff 0b 	movl   $0x5e5b6b0b,-0xd40(%rbp)
    a8a9:	6b 5b 5e 
    a8ac:	48 8d 05 35 9a 01 00 	lea    0x19a35(%rip),%rax        # 242e8 <g_607>
    a8b3:	48 89 85 08 f3 ff ff 	mov    %rax,-0xcf8(%rbp)
    a8ba:	c7 85 c4 f2 ff ff 02 	movl   $0x2,-0xd3c(%rbp)
    a8c1:	00 00 00 
    a8c4:	c7 85 c8 f2 ff ff 16 	movl   $0x7aae4016,-0xd38(%rbp)
    a8cb:	40 ae 7a 
    a8ce:	c7 85 cc f2 ff ff 00 	movl   $0x0,-0xd34(%rbp)
    a8d5:	00 00 00 
    a8d8:	48 8d 85 70 f4 ff ff 	lea    -0xb90(%rbp),%rax
    a8df:	48 8d 15 ba 37 01 00 	lea    0x137ba(%rip),%rdx        # 1e0a0 <g_2439+0x20>
    a8e6:	b9 36 00 00 00       	mov    $0x36,%ecx
    a8eb:	48 89 c7             	mov    %rax,%rdi
    a8ee:	48 89 d6             	mov    %rdx,%rsi
    a8f1:	f3 48 a5             	rep movsq %ds:(%rsi),%es:(%rdi)
    a8f4:	c6 85 a4 f2 ff ff 7f 	movb   $0x7f,-0xd5c(%rbp)
    a8fb:	66 c7 85 aa f2 ff ff 	movw   $0x2aac,-0xd56(%rbp)
    a902:	ac 2a 
    a904:	c6 85 a5 f2 ff ff ff 	movb   $0xff,-0xd5b(%rbp)
    a90b:	c6 85 a6 f2 ff ff 00 	movb   $0x0,-0xd5a(%rbp)
    a912:	48 8d 05 cf 99 01 00 	lea    0x199cf(%rip),%rax        # 242e8 <g_607>
    a919:	48 89 85 10 f3 ff ff 	mov    %rax,-0xcf0(%rbp)
    a920:	c7 85 d0 f2 ff ff fa 	movl   $0xfffffffa,-0xd30(%rbp)
    a927:	ff ff ff 
    a92a:	c7 85 b4 f2 ff ff 00 	movl   $0x0,-0xd4c(%rbp)
    a931:	00 00 00 
    a934:	eb 1a                	jmp    a950 <func_1+0x19b>
    a936:	8b 85 b4 f2 ff ff    	mov    -0xd4c(%rbp),%eax
    a93c:	48 98                	cltq   
    a93e:	c7 84 85 64 f3 ff ff 	movl   $0xffffffff,-0xc9c(%rbp,%rax,4)
    a945:	ff ff ff ff 
    a949:	83 85 b4 f2 ff ff 01 	addl   $0x1,-0xd4c(%rbp)
    a950:	83 bd b4 f2 ff ff 00 	cmpl   $0x0,-0xd4c(%rbp)
    a957:	7e dd                	jle    a936 <func_1+0x181>
    a959:	c7 85 b4 f2 ff ff 00 	movl   $0x0,-0xd4c(%rbp)
    a960:	00 00 00 
    a963:	eb 1e                	jmp    a983 <func_1+0x1ce>
    a965:	8b 85 b4 f2 ff ff    	mov    -0xd4c(%rbp),%eax
    a96b:	48 98                	cltq   
    a96d:	48 8d 15 6c bd 01 00 	lea    0x1bd6c(%rip),%rdx        # 266e0 <g_455+0x10>
    a974:	48 89 94 c5 68 f3 ff 	mov    %rdx,-0xc98(%rbp,%rax,8)
    a97b:	ff 
    a97c:	83 85 b4 f2 ff ff 01 	addl   $0x1,-0xd4c(%rbp)
    a983:	83 bd b4 f2 ff ff 00 	cmpl   $0x0,-0xd4c(%rbp)
    a98a:	7e d9                	jle    a965 <func_1+0x1b0>
    a98c:	c7 85 b4 f2 ff ff 00 	movl   $0x0,-0xd4c(%rbp)
    a993:	00 00 00 
    a996:	eb 1a                	jmp    a9b2 <func_1+0x1fd>
    a998:	8b 85 b4 f2 ff ff    	mov    -0xd4c(%rbp),%eax
    a99e:	48 98                	cltq   
    a9a0:	c7 84 85 b0 f3 ff ff 	movl   $0xfffffff8,-0xc50(%rbp,%rax,4)
    a9a7:	f8 ff ff ff 
    a9ab:	83 85 b4 f2 ff ff 01 	addl   $0x1,-0xd4c(%rbp)
    a9b2:	83 bd b4 f2 ff ff 05 	cmpl   $0x5,-0xd4c(%rbp)
    a9b9:	7e dd                	jle    a998 <func_1+0x1e3>
    a9bb:	66 83 bd ac f2 ff ff 	cmpw   $0x0,-0xd54(%rbp)
    a9c2:	00 
    a9c3:	0f 84 d8 01 00 00    	je     aba1 <func_1+0x3ec>
    a9c9:	c6 85 a7 f2 ff ff 09 	movb   $0x9,-0xd59(%rbp)
    a9d0:	48 8d 05 21 d0 01 00 	lea    0x1d021(%rip),%rax        # 279f8 <g_3180>
    a9d7:	48 89 85 18 f3 ff ff 	mov    %rax,-0xce8(%rbp)
    a9de:	48 8d 05 23 a3 01 00 	lea    0x1a323(%rip),%rax        # 24d08 <g_3852+0x8>
    a9e5:	48 89 85 30 f4 ff ff 	mov    %rax,-0xbd0(%rbp)
    a9ec:	48 8d 05 15 a3 01 00 	lea    0x1a315(%rip),%rax        # 24d08 <g_3852+0x8>
    a9f3:	48 89 85 38 f4 ff ff 	mov    %rax,-0xbc8(%rbp)
    a9fa:	48 c7 85 40 f4 ff ff 	movq   $0x0,-0xbc0(%rbp)
    aa01:	00 00 00 00 
    aa05:	48 8d 05 fc a2 01 00 	lea    0x1a2fc(%rip),%rax        # 24d08 <g_3852+0x8>
    aa0c:	48 89 85 48 f4 ff ff 	mov    %rax,-0xbb8(%rbp)
    aa13:	48 8d 05 ee a2 01 00 	lea    0x1a2ee(%rip),%rax        # 24d08 <g_3852+0x8>
    aa1a:	48 89 85 50 f4 ff ff 	mov    %rax,-0xbb0(%rbp)
    aa21:	48 c7 85 58 f4 ff ff 	movq   $0x0,-0xba8(%rbp)
    aa28:	00 00 00 00 
    aa2c:	48 8d 05 d5 a2 01 00 	lea    0x1a2d5(%rip),%rax        # 24d08 <g_3852+0x8>
    aa33:	48 89 85 60 f4 ff ff 	mov    %rax,-0xba0(%rbp)
    aa3a:	48 8d 05 c7 a2 01 00 	lea    0x1a2c7(%rip),%rax        # 24d08 <g_3852+0x8>
    aa41:	48 89 85 68 f4 ff ff 	mov    %rax,-0xb98(%rbp)
    aa48:	c7 85 d4 f2 ff ff 6c 	movl   $0x81c1e56c,-0xd2c(%rbp)
    aa4f:	e5 c1 81 
    aa52:	c7 85 d8 f2 ff ff fc 	movl   $0xfffffffc,-0xd28(%rbp)
    aa59:	ff ff ff 
    aa5c:	c6 85 a8 f2 ff ff 00 	movb   $0x0,-0xd58(%rbp)
    aa63:	c7 85 70 f3 ff ff ff 	movl   $0xffffffff,-0xc90(%rbp)
    aa6a:	ff ff ff 
    aa6d:	c7 85 74 f3 ff ff ff 	movl   $0xffffffff,-0xc8c(%rbp)
    aa74:	ff ff ff 
    aa77:	c7 85 78 f3 ff ff ff 	movl   $0xffffffff,-0xc88(%rbp)
    aa7e:	ff ff ff 
    aa81:	c7 85 7c f3 ff ff ff 	movl   $0xffffffff,-0xc84(%rbp)
    aa88:	ff ff ff 
    aa8b:	c7 85 80 f3 ff ff ff 	movl   $0xffffffff,-0xc80(%rbp)
    aa92:	ff ff ff 
    aa95:	66 c7 85 b0 f2 ff ff 	movw   $0xffff,-0xd50(%rbp)
    aa9c:	ff ff 
    aa9e:	66 c7 85 b2 f2 ff ff 	movw   $0xd88a,-0xd4e(%rbp)
    aaa5:	8a d8 
    aaa7:	c7 85 dc f2 ff ff 36 	movl   $0x30253a36,-0xd24(%rbp)
    aaae:	3a 25 30 
    aab1:	66 c7 85 62 f3 ff ff 	movw   $0xfff8,-0xc9e(%rbp)
    aab8:	f8 ff 
    aaba:	c7 85 e0 f2 ff ff 9f 	movl   $0x159e1c9f,-0xd20(%rbp)
    aac1:	1c 9e 15 
    aac4:	c7 85 e4 f2 ff ff c2 	movl   $0xeb4f25c2,-0xd1c(%rbp)
    aacb:	25 4f eb 
    aace:	48 c7 85 20 f3 ff ff 	movq   $0x0,-0xce0(%rbp)
    aad5:	00 00 00 00 
    aad9:	48 8d 85 20 f6 ff ff 	lea    -0x9e0(%rbp),%rax
    aae0:	48 8d 15 b9 a3 01 00 	lea    0x1a3b9(%rip),%rdx        # 24ea0 <g_4540+0x40>
    aae7:	b9 5a 00 00 00       	mov    $0x5a,%ecx
    aaec:	48 89 c7             	mov    %rax,%rdi
    aaef:	48 89 d6             	mov    %rdx,%rsi
    aaf2:	f3 48 a5             	rep movsq %ds:(%rsi),%es:(%rdi)
    aaf5:	48 8d 85 40 fc ff ff 	lea    -0x3c0(%rbp),%rax
    aafc:	48 8d 15 5d 37 01 00 	lea    0x1375d(%rip),%rdx        # 1e260 <g_2439+0x1e0>
    ab03:	b9 70 00 00 00       	mov    $0x70,%ecx
    ab08:	48 89 c7             	mov    %rax,%rdi
    ab0b:	48 89 d6             	mov    %rdx,%rsi
    ab0e:	f3 48 a5             	rep movsq %ds:(%rsi),%es:(%rdi)
    ab11:	48 89 f2             	mov    %rsi,%rdx
    ab14:	48 89 f8             	mov    %rdi,%rax
    ab17:	8b 0a                	mov    (%rdx),%ecx
    ab19:	89 08                	mov    %ecx,(%rax)
    ab1b:	48 8d 40 04          	lea    0x4(%rax),%rax
    ab1f:	48 8d 52 04          	lea    0x4(%rdx),%rdx
    ab23:	48 8d 05 ae bb 01 00 	lea    0x1bbae(%rip),%rax        # 266d8 <g_455+0x8>
    ab2a:	48 89 85 28 f3 ff ff 	mov    %rax,-0xcd8(%rbp)
    ab31:	48 8d 05 d0 d5 01 00 	lea    0x1d5d0(%rip),%rax        # 28108 <g_4240>
    ab38:	48 89 85 30 f3 ff ff 	mov    %rax,-0xcd0(%rbp)
    ab3f:	48 8d 05 d2 d5 01 00 	lea    0x1d5d2(%rip),%rax        # 28118 <g_4375>
    ab46:	48 89 85 38 f3 ff ff 	mov    %rax,-0xcc8(%rbp)
    ab4d:	48 8d 85 f0 f8 ff ff 	lea    -0x710(%rbp),%rax
    ab54:	48 8d 15 a5 3a 01 00 	lea    0x13aa5(%rip),%rdx        # 1e600 <g_2439+0x580>
    ab5b:	b9 69 00 00 00       	mov    $0x69,%ecx
    ab60:	48 89 c7             	mov    %rax,%rdi
    ab63:	48 89 d6             	mov    %rdx,%rsi
    ab66:	f3 48 a5             	rep movsq %ds:(%rsi),%es:(%rdi)
    ab69:	c7 85 b8 f2 ff ff 00 	movl   $0x0,-0xd48(%rbp)
    ab70:	00 00 00 
    ab73:	eb 21                	jmp    ab96 <func_1+0x3e1>
    ab75:	8b 85 b8 f2 ff ff    	mov    -0xd48(%rbp),%eax
    ab7b:	48 98                	cltq   
    ab7d:	48 bb d0 76 b3 e2 0f 	movabs $0x7ab8700fe2b376d0,%rbx
    ab84:	70 b8 7a 
    ab87:	48 89 9c c5 d0 f3 ff 	mov    %rbx,-0xc30(%rbp,%rax,8)
    ab8e:	ff 
    ab8f:	83 85 b8 f2 ff ff 01 	addl   $0x1,-0xd48(%rbp)
    ab96:	83 bd b8 f2 ff ff 04 	cmpl   $0x4,-0xd48(%rbp)
    ab9d:	7e d6                	jle    ab75 <func_1+0x3c0>
    ab9f:	eb 17                	jmp    abb8 <func_1+0x403>
    aba1:	48 8b 85 00 f3 ff ff 	mov    -0xd00(%rbp),%rax
    aba8:	48 8b 00             	mov    (%rax),%rax
    abab:	48 8b 00             	mov    (%rax),%rax
    abae:	48 8b 00             	mov    (%rax),%rax
    abb1:	8b 00                	mov    (%rax),%eax
    abb3:	e9 73 04 00 00       	jmpq   b02b <func_1+0x876>
    abb8:	48 8b 85 f0 f2 ff ff 	mov    -0xd10(%rbp),%rax
    abbf:	48 8b 00             	mov    (%rax),%rax
    abc2:	48 8b 00             	mov    (%rax),%rax
    abc5:	8b 18                	mov    (%rax),%ebx
    abc7:	48 8b 85 00 f3 ff ff 	mov    -0xd00(%rbp),%rax
    abce:	48 8b 00             	mov    (%rax),%rax
    abd1:	48 8b 00             	mov    (%rax),%rax
    abd4:	48 8b 00             	mov    (%rax),%rax
    abd7:	8b 00                	mov    (%rax),%eax
    abd9:	41 89 c4             	mov    %eax,%r12d
    abdc:	48 8b 05 5d bb 01 00 	mov    0x1bb5d(%rip),%rax        # 26740 <g_819>
    abe3:	0f b7 00             	movzwl (%rax),%eax
    abe6:	66 3d 95 a8          	cmp    $0xa895,%ax
    abea:	0f 96 c0             	setbe  %al
    abed:	0f b6 c0             	movzbl %al,%eax
    abf0:	89 c6                	mov    %eax,%esi
    abf2:	bf 00 00 00 00       	mov    $0x0,%edi
    abf7:	e8 5e ef ff ff       	callq  9b5a <safe_add_func_uint8_t_u_u>
    abfc:	84 c0                	test   %al,%al
    abfe:	0f 94 c0             	sete   %al
    ac01:	0f b6 d0             	movzbl %al,%edx
    ac04:	48 8b 05 a5 cd 01 00 	mov    0x1cda5(%rip),%rax        # 279b0 <g_2637>
    ac0b:	0f b6 00             	movzbl (%rax),%eax
    ac0e:	0f be c0             	movsbl %al,%eax
    ac11:	09 c2                	or     %eax,%edx
    ac13:	48 8b 05 2e d5 01 00 	mov    0x1d52e(%rip),%rax        # 28148 <g_4459>
    ac1a:	89 10                	mov    %edx,(%rax)
    ac1c:	48 8b 85 10 f3 ff ff 	mov    -0xcf0(%rbp),%rax
    ac23:	48 b9 6d 52 07 7e 99 	movabs $0xaa7f9f997e07526d,%rcx
    ac2a:	9f 7f aa 
    ac2d:	48 89 08             	mov    %rcx,(%rax)
    ac30:	48 8b 85 00 f3 ff ff 	mov    -0xd00(%rbp),%rax
    ac37:	48 8b 00             	mov    (%rax),%rax
    ac3a:	48 8b 00             	mov    (%rax),%rax
    ac3d:	48 8b 00             	mov    (%rax),%rax
    ac40:	8b 00                	mov    (%rax),%eax
    ac42:	48 63 d0             	movslq %eax,%rdx
    ac45:	48 8b 05 cc d4 01 00 	mov    0x1d4cc(%rip),%rax        # 28118 <g_4375>
    ac4c:	48 8b 00             	mov    (%rax),%rax
    ac4f:	48 89 d6             	mov    %rdx,%rsi
    ac52:	48 89 c7             	mov    %rax,%rdi
    ac55:	e8 f1 f3 ff ff       	callq  a04b <safe_sub_func_uint64_t_u_u>
    ac5a:	98                   	cwtl   
    ac5b:	44 89 e6             	mov    %r12d,%esi
    ac5e:	89 c7                	mov    %eax,%edi
    ac60:	e8 fe e8 ff ff       	callq  9563 <safe_rshift_func_int16_t_s_u>
    ac65:	66 83 f8 01          	cmp    $0x1,%ax
    ac69:	0f 95 c0             	setne  %al
    ac6c:	0f b6 d0             	movzbl %al,%edx
    ac6f:	48 8b 85 00 f3 ff ff 	mov    -0xd00(%rbp),%rax
    ac76:	48 8b 00             	mov    (%rax),%rax
    ac79:	48 8b 00             	mov    (%rax),%rax
    ac7c:	48 8b 00             	mov    (%rax),%rax
    ac7f:	8b 00                	mov    (%rax),%eax
    ac81:	31 d0                	xor    %edx,%eax
    ac83:	39 c3                	cmp    %eax,%ebx
    ac85:	0f 9e c0             	setle  %al
    ac88:	0f b6 c0             	movzbl %al,%eax
    ac8b:	be 03 00 00 00       	mov    $0x3,%esi
    ac90:	89 c7                	mov    %eax,%edi
    ac92:	e8 0a e6 ff ff       	callq  92a1 <safe_lshift_func_int8_t_s_s>
    ac97:	84 c0                	test   %al,%al
    ac99:	0f 95 c0             	setne  %al
    ac9c:	0f b6 c0             	movzbl %al,%eax
    ac9f:	89 c6                	mov    %eax,%esi
    aca1:	bf ff ff ff ff       	mov    $0xffffffff,%edi
    aca6:	e8 52 f2 ff ff       	callq  9efd <safe_mod_func_uint32_t_u_u>
    acab:	89 c2                	mov    %eax,%edx
    acad:	48 8b 85 00 f3 ff ff 	mov    -0xd00(%rbp),%rax
    acb4:	48 8b 00             	mov    (%rax),%rax
    acb7:	48 8b 00             	mov    (%rax),%rax
    acba:	48 8b 00             	mov    (%rax),%rax
    acbd:	8b 00                	mov    (%rax),%eax
    acbf:	89 d6                	mov    %edx,%esi
    acc1:	89 c7                	mov    %eax,%edi
    acc3:	e8 5d f2 ff ff       	callq  9f25 <safe_div_func_uint32_t_u_u>
    acc8:	89 c2                	mov    %eax,%edx
    acca:	48 8b 85 00 f3 ff ff 	mov    -0xd00(%rbp),%rax
    acd1:	48 8b 00             	mov    (%rax),%rax
    acd4:	48 8b 00             	mov    (%rax),%rax
    acd7:	48 8b 00             	mov    (%rax),%rax
    acda:	89 10                	mov    %edx,(%rax)
    acdc:	8b 00                	mov    (%rax),%eax
    acde:	85 c0                	test   %eax,%eax
    ace0:	74 14                	je     acf6 <func_1+0x541>
    ace2:	48 8b 85 f0 f2 ff ff 	mov    -0xd10(%rbp),%rax
    ace9:	48 8b 00             	mov    (%rax),%rax
    acec:	48 8b 00             	mov    (%rax),%rax
    acef:	8b 00                	mov    (%rax),%eax
    acf1:	e9 35 03 00 00       	jmpq   b02b <func_1+0x876>
    acf6:	48 c7 85 40 fc ff ff 	movq   $0x0,-0x3c0(%rbp)
    acfd:	00 00 00 00 
    ad01:	48 c7 85 48 fc ff ff 	movq   $0x0,-0x3b8(%rbp)
    ad08:	00 00 00 00 
    ad0c:	48 c7 85 50 fc ff ff 	movq   $0x0,-0x3b0(%rbp)
    ad13:	00 00 00 00 
    ad17:	48 c7 85 58 fc ff ff 	movq   $0x0,-0x3a8(%rbp)
    ad1e:	00 00 00 00 
    ad22:	48 c7 85 60 fc ff ff 	movq   $0x0,-0x3a0(%rbp)
    ad29:	00 00 00 00 
    ad2d:	48 c7 85 68 fc ff ff 	movq   $0x0,-0x398(%rbp)
    ad34:	00 00 00 00 
    ad38:	48 c7 85 70 fc ff ff 	movq   $0x0,-0x390(%rbp)
    ad3f:	00 00 00 00 
    ad43:	48 8d 05 5e b9 01 00 	lea    0x1b95e(%rip),%rax        # 266a8 <g_93>
    ad4a:	48 89 85 f8 f2 ff ff 	mov    %rax,-0xd08(%rbp)
    ad51:	48 8d 85 f8 f2 ff ff 	lea    -0xd08(%rbp),%rax
    ad58:	48 89 85 40 f3 ff ff 	mov    %rax,-0xcc0(%rbp)
    ad5f:	c7 85 e8 f2 ff ff ff 	movl   $0xffffffff,-0xd18(%rbp)
    ad66:	ff ff ff 
    ad69:	48 8d 05 80 9f 01 00 	lea    0x19f80(%rip),%rax        # 24cf0 <g_3499>
    ad70:	48 89 85 48 f3 ff ff 	mov    %rax,-0xcb8(%rbp)
    ad77:	48 c7 85 50 f3 ff ff 	movq   $0x0,-0xcb0(%rbp)
    ad7e:	00 00 00 00 
    ad82:	48 8d 85 aa f2 ff ff 	lea    -0xd56(%rbp),%rax
    ad89:	48 89 85 58 f3 ff ff 	mov    %rax,-0xca8(%rbp)
    ad90:	c7 85 ec f2 ff ff 00 	movl   $0x0,-0xd14(%rbp)
    ad97:	00 00 00 
    ad9a:	c6 85 a9 f2 ff ff fc 	movb   $0xfc,-0xd57(%rbp)
    ada1:	48 8b 05 10 b9 01 00 	mov    0x1b910(%rip),%rax        # 266b8 <g_191>
    ada8:	48 8b 00             	mov    (%rax),%rax
    adab:	48 8b 00             	mov    (%rax),%rax
    adae:	48 8b 95 60 fc ff ff 	mov    -0x3a0(%rbp),%rdx
    adb5:	48 89 10             	mov    %rdx,(%rax)
    adb8:	48 8b 85 00 f3 ff ff 	mov    -0xd00(%rbp),%rax
    adbf:	48 8b 00             	mov    (%rax),%rax
    adc2:	48 8b 00             	mov    (%rax),%rax
    adc5:	48 8b 95 60 fc ff ff 	mov    -0x3a0(%rbp),%rdx
    adcc:	48 89 10             	mov    %rdx,(%rax)
    adcf:	48 8b 05 4a cc 01 00 	mov    0x1cc4a(%rip),%rax        # 27a20 <g_3269>
    add6:	48 8b 00             	mov    (%rax),%rax
    add9:	48 8b 00             	mov    (%rax),%rax
    addc:	48 8b 00             	mov    (%rax),%rax
    addf:	0f b7 00             	movzwl (%rax),%eax
    ade2:	0f b7 d8             	movzwl %ax,%ebx
    ade5:	8b 05 fd 9e 01 00    	mov    0x19efd(%rip),%eax        # 24ce8 <g_3145>
    adeb:	41 89 c7             	mov    %eax,%r15d
    adee:	8b 85 c0 f2 ff ff    	mov    -0xd40(%rbp),%eax
    adf4:	44 0f b6 e0          	movzbl %al,%r12d
    adf8:	8b 85 ec f2 ff ff    	mov    -0xd14(%rbp),%eax
    adfe:	4c 63 e8             	movslq %eax,%r13
    ae01:	48 8b 05 80 bd 01 00 	mov    0x1bd80(%rip),%rax        # 26b88 <g_2003>
    ae08:	48 8b 08             	mov    (%rax),%rcx
    ae0b:	48 8b 15 ee cb 01 00 	mov    0x1cbee(%rip),%rdx        # 27a00 <g_3179>
    ae12:	48 8b 05 e7 cb 01 00 	mov    0x1cbe7(%rip),%rax        # 27a00 <g_3179>
    ae19:	48 8b 12             	mov    (%rdx),%rdx
    ae1c:	48 89 10             	mov    %rdx,(%rax)
    ae1f:	48 8b 00             	mov    (%rax),%rax
    ae22:	48 39 c1             	cmp    %rax,%rcx
    ae25:	0f 94 c0             	sete   %al
    ae28:	44 0f b6 f0          	movzbl %al,%r14d
    ae2c:	8b 85 e8 f2 ff ff    	mov    -0xd18(%rbp),%eax
    ae32:	89 c2                	mov    %eax,%edx
    ae34:	48 8b 85 48 f3 ff ff 	mov    -0xcb8(%rbp),%rax
    ae3b:	66 89 10             	mov    %dx,(%rax)
    ae3e:	48 8b 85 48 f3 ff ff 	mov    -0xcb8(%rbp),%rax
    ae45:	0f b7 00             	movzwl (%rax),%eax
    ae48:	0f b7 c0             	movzwl %ax,%eax
    ae4b:	be f9 ff 00 00       	mov    $0xfff9,%esi
    ae50:	89 c7                	mov    %eax,%edi
    ae52:	e8 e6 ee ff ff       	callq  9d3d <safe_mul_func_uint16_t_u_u>
    ae57:	0f b7 c0             	movzwl %ax,%eax
    ae5a:	41 39 c6             	cmp    %eax,%r14d
    ae5d:	0f 9c c0             	setl   %al
    ae60:	0f b6 d0             	movzbl %al,%edx
    ae63:	48 8b 85 58 f3 ff ff 	mov    -0xca8(%rbp),%rax
    ae6a:	0f b7 00             	movzwl (%rax),%eax
    ae6d:	89 c1                	mov    %eax,%ecx
    ae6f:	89 d0                	mov    %edx,%eax
    ae71:	31 c8                	xor    %ecx,%eax
    ae73:	89 c2                	mov    %eax,%edx
    ae75:	48 8b 85 58 f3 ff ff 	mov    -0xca8(%rbp),%rax
    ae7c:	66 89 10             	mov    %dx,(%rax)
    ae7f:	48 8b 85 58 f3 ff ff 	mov    -0xca8(%rbp),%rax
    ae86:	0f b7 00             	movzwl (%rax),%eax
    ae89:	0f b7 c8             	movzwl %ax,%ecx
    ae8c:	48 8b 05 0d b9 01 00 	mov    0x1b90d(%rip),%rax        # 267a0 <g_1328>
    ae93:	48 8b 00             	mov    (%rax),%rax
    ae96:	0f b7 10             	movzwl (%rax),%edx
    ae99:	8d 72 01             	lea    0x1(%rdx),%esi
    ae9c:	66 89 30             	mov    %si,(%rax)
    ae9f:	0f b7 c2             	movzwl %dx,%eax
    aea2:	89 ce                	mov    %ecx,%esi
    aea4:	89 c7                	mov    %eax,%edi
    aea6:	e8 e3 ee ff ff       	callq  9d8e <safe_div_func_uint16_t_u_u>
    aeab:	66 85 c0             	test   %ax,%ax
    aeae:	74 07                	je     aeb7 <func_1+0x702>
    aeb0:	80 bd a3 f2 ff ff 00 	cmpb   $0x0,-0xd5d(%rbp)
    aeb7:	48 8b 05 5a d2 01 00 	mov    0x1d25a(%rip),%rax        # 28118 <g_4375>
    aebe:	48 8b 00             	mov    (%rax),%rax
    aec1:	89 c2                	mov    %eax,%edx
    aec3:	0f b6 85 a6 f2 ff ff 	movzbl -0xd5a(%rbp),%eax
    aeca:	21 d0                	and    %edx,%eax
    aecc:	89 85 c8 f2 ff ff    	mov    %eax,-0xd38(%rbp)
    aed2:	8b 95 c8 f2 ff ff    	mov    -0xd38(%rbp),%edx
    aed8:	48 8b 05 69 d2 01 00 	mov    0x1d269(%rip),%rax        # 28148 <g_4459>
    aedf:	c7 00 ff ff ff ff    	movl   $0xffffffff,(%rax)
    aee5:	8b 00                	mov    (%rax),%eax
    aee7:	89 d6                	mov    %edx,%esi
    aee9:	89 c7                	mov    %eax,%edi
    aeeb:	e8 35 f0 ff ff       	callq  9f25 <safe_div_func_uint32_t_u_u>
    aef0:	89 c0                	mov    %eax,%eax
    aef2:	4c 89 ee             	mov    %r13,%rsi
    aef5:	48 89 c7             	mov    %rax,%rdi
    aef8:	e8 4e f1 ff ff       	callq  a04b <safe_sub_func_uint64_t_u_u>
    aefd:	48 8b 05 ec c9 01 00 	mov    0x1c9ec(%rip),%rax        # 278f0 <g_2166>
    af04:	48 8b 00             	mov    (%rax),%rax
    af07:	48 8b 00             	mov    (%rax),%rax
    af0a:	0f b6 00             	movzbl (%rax),%eax
    af0d:	0f b6 c0             	movzbl %al,%eax
    af10:	44 89 e6             	mov    %r12d,%esi
    af13:	89 c7                	mov    %eax,%edi
    af15:	e8 79 ec ff ff       	callq  9b93 <safe_mul_func_uint8_t_u_u>
    af1a:	48 8b 05 57 b8 01 00 	mov    0x1b857(%rip),%rax        # 26778 <g_981>
    af21:	8b 00                	mov    (%rax),%eax
    af23:	89 85 9c f3 ff ff    	mov    %eax,-0xc64(%rbp)
    af29:	8b 85 9c f3 ff ff    	mov    -0xc64(%rbp),%eax
    af2f:	0b 85 d0 f2 ff ff    	or     -0xd30(%rbp),%eax
    af35:	89 c2                	mov    %eax,%edx
    af37:	48 8b 05 da d3 01 00 	mov    0x1d3da(%rip),%rax        # 28318 <g_4518>
    af3e:	48 8b 00             	mov    (%rax),%rax
    af41:	48 8b 00             	mov    (%rax),%rax
    af44:	48 39 c2             	cmp    %rax,%rdx
    af47:	0f 94 c0             	sete   %al
    af4a:	0f b6 c0             	movzbl %al,%eax
    af4d:	44 89 fe             	mov    %r15d,%esi
    af50:	89 c7                	mov    %eax,%edi
    af52:	e8 23 ef ff ff       	callq  9e7a <safe_rshift_func_uint16_t_u_u>
    af57:	98                   	cwtl   
    af58:	be 02 00 00 00       	mov    $0x2,%esi
    af5d:	89 c7                	mov    %eax,%edi
    af5f:	e8 ff e5 ff ff       	callq  9563 <safe_rshift_func_int16_t_s_u>
    af64:	98                   	cwtl   
    af65:	be fe ff ff ff       	mov    $0xfffffffe,%esi
    af6a:	89 c7                	mov    %eax,%edi
    af6c:	e8 e4 e4 ff ff       	callq  9455 <safe_div_func_int16_t_s_s>
    af71:	98                   	cwtl   
    af72:	be fb ff ff ff       	mov    $0xfffffffb,%esi
    af77:	89 c7                	mov    %eax,%edi
    af79:	e8 35 e4 ff ff       	callq  93b3 <safe_add_func_int16_t_s_s>
    af7e:	66 0f be 95 a9 f2 ff 	movsbw -0xd57(%rbp),%dx
    af85:	ff 
    af86:	66 39 d0             	cmp    %dx,%ax
    af89:	7d 11                	jge    af9c <func_1+0x7e7>
    af8b:	48 8b 05 26 ca 01 00 	mov    0x1ca26(%rip),%rax        # 279b8 <g_2794>
    af92:	48 8b 00             	mov    (%rax),%rax
    af95:	0f b6 00             	movzbl (%rax),%eax
    af98:	84 c0                	test   %al,%al
    af9a:	74 07                	je     afa3 <func_1+0x7ee>
    af9c:	b8 01 00 00 00       	mov    $0x1,%eax
    afa1:	eb 05                	jmp    afa8 <func_1+0x7f3>
    afa3:	b8 00 00 00 00       	mov    $0x0,%eax
    afa8:	0f b7 d0             	movzwl %ax,%edx
    afab:	48 8b 85 00 f3 ff ff 	mov    -0xd00(%rbp),%rax
    afb2:	48 8b 08             	mov    (%rax),%rcx
    afb5:	48 8b 85 00 f3 ff ff 	mov    -0xd00(%rbp),%rax
    afbc:	48 89 08             	mov    %rcx,(%rax)
    afbf:	48 8b 85 00 f3 ff ff 	mov    -0xd00(%rbp),%rax
    afc6:	48 8b 08             	mov    (%rax),%rcx
    afc9:	48 8b 85 40 f3 ff ff 	mov    -0xcc0(%rbp),%rax
    afd0:	48 89 08             	mov    %rcx,(%rax)
    afd3:	48 8b 85 40 f3 ff ff 	mov    -0xcc0(%rbp),%rax
    afda:	48 8b 08             	mov    (%rax),%rcx
    afdd:	48 8b 05 d4 b6 01 00 	mov    0x1b6d4(%rip),%rax        # 266b8 <g_191>
    afe4:	48 8b 00             	mov    (%rax),%rax
    afe7:	48 39 c1             	cmp    %rax,%rcx
    afea:	0f 94 c0             	sete   %al
    afed:	0f b6 c8             	movzbl %al,%ecx
    aff0:	8b 85 9c f4 ff ff    	mov    -0xb64(%rbp),%eax
    aff6:	39 c1                	cmp    %eax,%ecx
    aff8:	0f 9d c0             	setge  %al
    affb:	0f b6 c0             	movzbl %al,%eax
    affe:	89 d6                	mov    %edx,%esi
    b000:	89 c7                	mov    %eax,%edi
    b002:	e8 36 ed ff ff       	callq  9d3d <safe_mul_func_uint16_t_u_u>
    b007:	0f b7 c0             	movzwl %ax,%eax
    b00a:	89 de                	mov    %ebx,%esi
    b00c:	89 c7                	mov    %eax,%edi
    b00e:	e8 49 ed ff ff       	callq  9d5c <safe_mod_func_uint16_t_u_u>
    b013:	89 c2                	mov    %eax,%edx
    b015:	48 8b 05 d4 b6 01 00 	mov    0x1b6d4(%rip),%rax        # 266f0 <g_571>
    b01c:	0f b7 d2             	movzwl %dx,%edx
    b01f:	89 10                	mov    %edx,(%rax)
    b021:	48 8b 05 08 ca 01 00 	mov    0x1ca08(%rip),%rax        # 27a30 <g_3488>
    b028:	0f b6 00             	movzbl (%rax),%eax
    b02b:	48 8b 5d c8          	mov    -0x38(%rbp),%rbx
    b02f:	64 48 33 1c 25 28 00 	xor    %fs:0x28,%rbx
    b036:	00 00 
    b038:	74 05                	je     b03f <func_1+0x88a>
    b03a:	e8 31 e0 ff ff       	callq  9070 <__stack_chk_fail@plt>
    b03f:	48 81 c4 38 0d 00 00 	add    $0xd38,%rsp
    b046:	5b                   	pop    %rbx
    b047:	41 5c                	pop    %r12
    b049:	41 5d                	pop    %r13
    b04b:	41 5e                	pop    %r14
    b04d:	41 5f                	pop    %r15
    b04f:	5d                   	pop    %rbp
    b050:	c3                   	retq   

000000000000b051 <func_3>:
    b051:	f3 0f 1e fa          	endbr64 
    b055:	55                   	push   %rbp
    b056:	48 89 e5             	mov    %rsp,%rbp
    b059:	48 83 ec 30          	sub    $0x30,%rsp
    b05d:	48 89 7d d8          	mov    %rdi,-0x28(%rbp)
    b061:	89 f0                	mov    %esi,%eax
    b063:	66 89 45 d4          	mov    %ax,-0x2c(%rbp)
    b067:	89 d0                	mov    %edx,%eax
    b069:	88 45 d0             	mov    %al,-0x30(%rbp)
    b06c:	48 8d 05 71 9c 01 00 	lea    0x19c71(%rip),%rax        # 24ce4 <g_3137>
    b073:	48 89 45 f0          	mov    %rax,-0x10(%rbp)
    b077:	48 8d 05 42 d7 01 00 	lea    0x1d742(%rip),%rax        # 287c0 <g_1123>
    b07e:	48 89 45 f8          	mov    %rax,-0x8(%rbp)
    b082:	c6 45 ef 00          	movb   $0x0,-0x11(%rbp)
    b086:	48 8b 15 63 b6 01 00 	mov    0x1b663(%rip),%rdx        # 266f0 <g_571>
    b08d:	48 8b 05 0c b6 01 00 	mov    0x1b60c(%rip),%rax        # 266a0 <g_94>
    b094:	8b 12                	mov    (%rdx),%edx
    b096:	89 10                	mov    %edx,(%rax)
    b098:	48 8b 05 09 b6 01 00 	mov    0x1b609(%rip),%rax        # 266a8 <g_93>
    b09f:	48 8b 55 f0          	mov    -0x10(%rbp),%rdx
    b0a3:	48 89 10             	mov    %rdx,(%rax)
    b0a6:	48 8b 10             	mov    (%rax),%rdx
    b0a9:	48 8b 45 f8          	mov    -0x8(%rbp),%rax
    b0ad:	48 89 10             	mov    %rdx,(%rax)
    b0b0:	48 8b 45 f8          	mov    -0x8(%rbp),%rax
    b0b4:	48 8b 00             	mov    (%rax),%rax
    b0b7:	48 89 45 f0          	mov    %rax,-0x10(%rbp)
    b0bb:	48 8b 45 f8          	mov    -0x8(%rbp),%rax
    b0bf:	48 8b 10             	mov    (%rax),%rdx
    b0c2:	48 8b 45 f8          	mov    -0x8(%rbp),%rax
    b0c6:	48 89 10             	mov    %rdx,(%rax)
    b0c9:	80 7d ef 00          	cmpb   $0x0,-0x11(%rbp)
    b0cd:	75 22                	jne    b0f1 <func_3+0xa0>
    b0cf:	48 8b 05 72 b6 01 00 	mov    0x1b672(%rip),%rax        # 26748 <g_818>
    b0d6:	48 8b 00             	mov    (%rax),%rax
    b0d9:	0f b7 00             	movzwl (%rax),%eax
    b0dc:	0f b7 c0             	movzwl %ax,%eax
    b0df:	be 08 00 00 00       	mov    $0x8,%esi
    b0e4:	89 c7                	mov    %eax,%edi
    b0e6:	e8 14 ec ff ff       	callq  9cff <safe_add_func_uint16_t_u_u>
    b0eb:	66 83 f8 01          	cmp    $0x1,%ax
    b0ef:	77 07                	ja     b0f8 <func_3+0xa7>
    b0f1:	ba 01 00 00 00       	mov    $0x1,%edx
    b0f6:	eb 05                	jmp    b0fd <func_3+0xac>
    b0f8:	ba 00 00 00 00       	mov    $0x0,%edx
    b0fd:	48 8b 45 f8          	mov    -0x8(%rbp),%rax
    b101:	48 8b 00             	mov    (%rax),%rax
    b104:	89 10                	mov    %edx,(%rax)
    b106:	48 8b 05 9b b5 01 00 	mov    0x1b59b(%rip),%rax        # 266a8 <g_93>
    b10d:	48 8b 00             	mov    (%rax),%rax
    b110:	8b 00                	mov    (%rax),%eax
    b112:	c9                   	leaveq 
    b113:	c3                   	retq   

000000000000b114 <func_9>:
    b114:	f3 0f 1e fa          	endbr64 
    b118:	55                   	push   %rbp
    b119:	48 89 e5             	mov    %rsp,%rbp
    b11c:	41 57                	push   %r15
    b11e:	41 56                	push   %r14
    b120:	41 55                	push   %r13
    b122:	41 54                	push   %r12
    b124:	53                   	push   %rbx
    b125:	48 81 ec a8 04 00 00 	sub    $0x4a8,%rsp
    b12c:	89 fa                	mov    %edi,%edx
    b12e:	89 f0                	mov    %esi,%eax
    b130:	88 95 3c fb ff ff    	mov    %dl,-0x4c4(%rbp)
    b136:	88 85 38 fb ff ff    	mov    %al,-0x4c8(%rbp)
    b13c:	64 48 8b 04 25 28 00 	mov    %fs:0x28,%rax
    b143:	00 00 
    b145:	48 89 45 c8          	mov    %rax,-0x38(%rbp)
    b149:	31 c0                	xor    %eax,%eax
    b14b:	c7 85 00 fc ff ff 00 	movl   $0x0,-0x400(%rbp)
    b152:	00 00 00 
    b155:	c7 85 04 fc ff ff 00 	movl   $0x0,-0x3fc(%rbp)
    b15c:	00 00 00 
    b15f:	c7 85 08 fc ff ff 00 	movl   $0x0,-0x3f8(%rbp)
    b166:	00 00 00 
    b169:	c7 85 0c fc ff ff 00 	movl   $0x0,-0x3f4(%rbp)
    b170:	00 00 00 
    b173:	c7 85 10 fc ff ff 00 	movl   $0x0,-0x3f0(%rbp)
    b17a:	00 00 00 
    b17d:	48 8d 05 c4 d5 01 00 	lea    0x1d5c4(%rip),%rax        # 28748 <g_19>
    b184:	48 89 85 a0 fb ff ff 	mov    %rax,-0x460(%rbp)
    b18b:	c7 85 50 fb ff ff 0c 	movl   $0xf9c4480c,-0x4b0(%rbp)
    b192:	48 c4 f9 
    b195:	48 c7 85 a8 fb ff ff 	movq   $0x0,-0x458(%rbp)
    b19c:	00 00 00 00 
    b1a0:	66 c7 85 46 fb ff ff 	movw   $0xcb7e,-0x4ba(%rbp)
    b1a7:	7e cb 
    b1a9:	c6 85 42 fb ff ff 86 	movb   $0x86,-0x4be(%rbp)
    b1b0:	48 8d 05 e1 b5 01 00 	lea    0x1b5e1(%rip),%rax        # 26798 <g_1329>
    b1b7:	48 89 85 b0 fb ff ff 	mov    %rax,-0x450(%rbp)
    b1be:	c6 85 3c fb ff ff 04 	movb   $0x4,-0x4c4(%rbp)
    b1c5:	e9 b5 07 00 00       	jmpq   b97f <func_9+0x86b>
    b1ca:	48 8d 05 77 d5 01 00 	lea    0x1d577(%rip),%rax        # 28748 <g_19>
    b1d1:	48 89 85 b8 fb ff ff 	mov    %rax,-0x448(%rbp)
    b1d8:	48 8d 85 f0 fc ff ff 	lea    -0x310(%rbp),%rax
    b1df:	48 8d 15 7a 37 01 00 	lea    0x1377a(%rip),%rdx        # 1e960 <g_2439+0x8e0>
    b1e6:	b9 2d 00 00 00       	mov    $0x2d,%ecx
    b1eb:	48 89 c7             	mov    %rax,%rdi
    b1ee:	48 89 d6             	mov    %rdx,%rsi
    b1f1:	f3 48 a5             	rep movsq %ds:(%rsi),%es:(%rdi)
    b1f4:	c6 85 43 fb ff ff 3f 	movb   $0x3f,-0x4bd(%rbp)
    b1fb:	48 8d 05 8e 99 01 00 	lea    0x1998e(%rip),%rax        # 24b90 <g_2086+0x30>
    b202:	48 89 85 60 fc ff ff 	mov    %rax,-0x3a0(%rbp)
    b209:	48 c7 85 68 fc ff ff 	movq   $0x0,-0x398(%rbp)
    b210:	00 00 00 00 
    b214:	48 c7 85 70 fc ff ff 	movq   $0x0,-0x390(%rbp)
    b21b:	00 00 00 00 
    b21f:	48 8d 05 6a 99 01 00 	lea    0x1996a(%rip),%rax        # 24b90 <g_2086+0x30>
    b226:	48 89 85 78 fc ff ff 	mov    %rax,-0x388(%rbp)
    b22d:	48 8d 05 96 99 01 00 	lea    0x19996(%rip),%rax        # 24bca <g_2086+0x6a>
    b234:	48 89 85 80 fc ff ff 	mov    %rax,-0x380(%rbp)
    b23b:	48 c7 85 88 fc ff ff 	movq   $0x0,-0x378(%rbp)
    b242:	00 00 00 00 
    b246:	48 8d 05 7d 99 01 00 	lea    0x1997d(%rip),%rax        # 24bca <g_2086+0x6a>
    b24d:	48 89 85 90 fc ff ff 	mov    %rax,-0x370(%rbp)
    b254:	48 8d 05 35 99 01 00 	lea    0x19935(%rip),%rax        # 24b90 <g_2086+0x30>
    b25b:	48 89 85 98 fc ff ff 	mov    %rax,-0x368(%rbp)
    b262:	48 c7 85 a0 fc ff ff 	movq   $0x0,-0x360(%rbp)
    b269:	00 00 00 00 
    b26d:	48 c7 85 a8 fc ff ff 	movq   $0x0,-0x358(%rbp)
    b274:	00 00 00 00 
    b278:	48 8d 05 11 99 01 00 	lea    0x19911(%rip),%rax        # 24b90 <g_2086+0x30>
    b27f:	48 89 85 b0 fc ff ff 	mov    %rax,-0x350(%rbp)
    b286:	48 8d 05 3d 99 01 00 	lea    0x1993d(%rip),%rax        # 24bca <g_2086+0x6a>
    b28d:	48 89 85 b8 fc ff ff 	mov    %rax,-0x348(%rbp)
    b294:	48 c7 85 c0 fc ff ff 	movq   $0x0,-0x340(%rbp)
    b29b:	00 00 00 00 
    b29f:	48 8d 05 24 99 01 00 	lea    0x19924(%rip),%rax        # 24bca <g_2086+0x6a>
    b2a6:	48 89 85 c8 fc ff ff 	mov    %rax,-0x338(%rbp)
    b2ad:	48 8d 05 dc 98 01 00 	lea    0x198dc(%rip),%rax        # 24b90 <g_2086+0x30>
    b2b4:	48 89 85 d0 fc ff ff 	mov    %rax,-0x330(%rbp)
    b2bb:	48 c7 85 d8 fc ff ff 	movq   $0x0,-0x328(%rbp)
    b2c2:	00 00 00 00 
    b2c6:	48 c7 85 e0 fc ff ff 	movq   $0x0,-0x320(%rbp)
    b2cd:	00 00 00 00 
    b2d1:	48 8d 05 b8 98 01 00 	lea    0x198b8(%rip),%rax        # 24b90 <g_2086+0x30>
    b2d8:	48 89 85 e8 fc ff ff 	mov    %rax,-0x318(%rbp)
    b2df:	c7 85 54 fb ff ff fb 	movl   $0xfffffffb,-0x4ac(%rbp)
    b2e6:	ff ff ff 
    b2e9:	48 8d 05 98 c0 01 00 	lea    0x1c098(%rip),%rax        # 27388 <g_2095>
    b2f0:	48 89 85 60 fb ff ff 	mov    %rax,-0x4a0(%rbp)
    b2f7:	48 8d 85 60 fb ff ff 	lea    -0x4a0(%rbp),%rax
    b2fe:	48 89 85 60 fe ff ff 	mov    %rax,-0x1a0(%rbp)
    b305:	48 8d 85 60 fb ff ff 	lea    -0x4a0(%rbp),%rax
    b30c:	48 89 85 68 fe ff ff 	mov    %rax,-0x198(%rbp)
    b313:	48 8d 85 60 fb ff ff 	lea    -0x4a0(%rbp),%rax
    b31a:	48 89 85 70 fe ff ff 	mov    %rax,-0x190(%rbp)
    b321:	48 8d 85 60 fb ff ff 	lea    -0x4a0(%rbp),%rax
    b328:	48 89 85 78 fe ff ff 	mov    %rax,-0x188(%rbp)
    b32f:	48 8d 85 60 fb ff ff 	lea    -0x4a0(%rbp),%rax
    b336:	48 89 85 80 fe ff ff 	mov    %rax,-0x180(%rbp)
    b33d:	48 8d 85 60 fb ff ff 	lea    -0x4a0(%rbp),%rax
    b344:	48 89 85 88 fe ff ff 	mov    %rax,-0x178(%rbp)
    b34b:	48 8d 85 60 fb ff ff 	lea    -0x4a0(%rbp),%rax
    b352:	48 89 85 90 fe ff ff 	mov    %rax,-0x170(%rbp)
    b359:	48 8d 85 60 fb ff ff 	lea    -0x4a0(%rbp),%rax
    b360:	48 89 85 98 fe ff ff 	mov    %rax,-0x168(%rbp)
    b367:	48 8d 85 60 fb ff ff 	lea    -0x4a0(%rbp),%rax
    b36e:	48 89 85 a0 fe ff ff 	mov    %rax,-0x160(%rbp)
    b375:	48 c7 85 a8 fe ff ff 	movq   $0x0,-0x158(%rbp)
    b37c:	00 00 00 00 
    b380:	48 c7 85 b0 fe ff ff 	movq   $0x0,-0x150(%rbp)
    b387:	00 00 00 00 
    b38b:	48 c7 85 b8 fe ff ff 	movq   $0x0,-0x148(%rbp)
    b392:	00 00 00 00 
    b396:	48 c7 85 c0 fe ff ff 	movq   $0x0,-0x140(%rbp)
    b39d:	00 00 00 00 
    b3a1:	48 c7 85 c8 fe ff ff 	movq   $0x0,-0x138(%rbp)
    b3a8:	00 00 00 00 
    b3ac:	48 c7 85 d0 fe ff ff 	movq   $0x0,-0x130(%rbp)
    b3b3:	00 00 00 00 
    b3b7:	48 c7 85 d8 fe ff ff 	movq   $0x0,-0x128(%rbp)
    b3be:	00 00 00 00 
    b3c2:	48 c7 85 e0 fe ff ff 	movq   $0x0,-0x120(%rbp)
    b3c9:	00 00 00 00 
    b3cd:	48 c7 85 e8 fe ff ff 	movq   $0x0,-0x118(%rbp)
    b3d4:	00 00 00 00 
    b3d8:	48 8d 85 60 fb ff ff 	lea    -0x4a0(%rbp),%rax
    b3df:	48 89 85 f0 fe ff ff 	mov    %rax,-0x110(%rbp)
    b3e6:	48 8d 85 60 fb ff ff 	lea    -0x4a0(%rbp),%rax
    b3ed:	48 89 85 f8 fe ff ff 	mov    %rax,-0x108(%rbp)
    b3f4:	48 8d 85 60 fb ff ff 	lea    -0x4a0(%rbp),%rax
    b3fb:	48 89 85 00 ff ff ff 	mov    %rax,-0x100(%rbp)
    b402:	48 8d 85 60 fb ff ff 	lea    -0x4a0(%rbp),%rax
    b409:	48 89 85 08 ff ff ff 	mov    %rax,-0xf8(%rbp)
    b410:	48 8d 85 60 fb ff ff 	lea    -0x4a0(%rbp),%rax
    b417:	48 89 85 10 ff ff ff 	mov    %rax,-0xf0(%rbp)
    b41e:	48 8d 85 60 fb ff ff 	lea    -0x4a0(%rbp),%rax
    b425:	48 89 85 18 ff ff ff 	mov    %rax,-0xe8(%rbp)
    b42c:	48 8d 85 60 fb ff ff 	lea    -0x4a0(%rbp),%rax
    b433:	48 89 85 20 ff ff ff 	mov    %rax,-0xe0(%rbp)
    b43a:	48 8d 85 60 fb ff ff 	lea    -0x4a0(%rbp),%rax
    b441:	48 89 85 28 ff ff ff 	mov    %rax,-0xd8(%rbp)
    b448:	48 8d 85 60 fb ff ff 	lea    -0x4a0(%rbp),%rax
    b44f:	48 89 85 30 ff ff ff 	mov    %rax,-0xd0(%rbp)
    b456:	48 c7 85 38 ff ff ff 	movq   $0x0,-0xc8(%rbp)
    b45d:	00 00 00 00 
    b461:	48 c7 85 40 ff ff ff 	movq   $0x0,-0xc0(%rbp)
    b468:	00 00 00 00 
    b46c:	48 c7 85 48 ff ff ff 	movq   $0x0,-0xb8(%rbp)
    b473:	00 00 00 00 
    b477:	48 c7 85 50 ff ff ff 	movq   $0x0,-0xb0(%rbp)
    b47e:	00 00 00 00 
    b482:	48 c7 85 58 ff ff ff 	movq   $0x0,-0xa8(%rbp)
    b489:	00 00 00 00 
    b48d:	48 c7 85 60 ff ff ff 	movq   $0x0,-0xa0(%rbp)
    b494:	00 00 00 00 
    b498:	48 c7 85 68 ff ff ff 	movq   $0x0,-0x98(%rbp)
    b49f:	00 00 00 00 
    b4a3:	48 c7 85 70 ff ff ff 	movq   $0x0,-0x90(%rbp)
    b4aa:	00 00 00 00 
    b4ae:	48 c7 85 78 ff ff ff 	movq   $0x0,-0x88(%rbp)
    b4b5:	00 00 00 00 
    b4b9:	48 8d 85 60 fb ff ff 	lea    -0x4a0(%rbp),%rax
    b4c0:	48 89 45 80          	mov    %rax,-0x80(%rbp)
    b4c4:	48 8d 85 60 fb ff ff 	lea    -0x4a0(%rbp),%rax
    b4cb:	48 89 45 88          	mov    %rax,-0x78(%rbp)
    b4cf:	48 8d 85 60 fb ff ff 	lea    -0x4a0(%rbp),%rax
    b4d6:	48 89 45 90          	mov    %rax,-0x70(%rbp)
    b4da:	48 8d 85 60 fb ff ff 	lea    -0x4a0(%rbp),%rax
    b4e1:	48 89 45 98          	mov    %rax,-0x68(%rbp)
    b4e5:	48 8d 85 60 fb ff ff 	lea    -0x4a0(%rbp),%rax
    b4ec:	48 89 45 a0          	mov    %rax,-0x60(%rbp)
    b4f0:	48 8d 85 60 fb ff ff 	lea    -0x4a0(%rbp),%rax
    b4f7:	48 89 45 a8          	mov    %rax,-0x58(%rbp)
    b4fb:	48 8d 85 60 fb ff ff 	lea    -0x4a0(%rbp),%rax
    b502:	48 89 45 b0          	mov    %rax,-0x50(%rbp)
    b506:	48 8d 85 60 fb ff ff 	lea    -0x4a0(%rbp),%rax
    b50d:	48 89 45 b8          	mov    %rax,-0x48(%rbp)
    b511:	48 8d 85 60 fb ff ff 	lea    -0x4a0(%rbp),%rax
    b518:	48 89 45 c0          	mov    %rax,-0x40(%rbp)
    b51c:	48 c7 85 68 fb ff ff 	movq   $0x0,-0x498(%rbp)
    b523:	00 00 00 00 
    b527:	48 8d 85 68 fb ff ff 	lea    -0x498(%rbp),%rax
    b52e:	48 89 85 70 fb ff ff 	mov    %rax,-0x490(%rbp)
    b535:	48 8d 85 70 fb ff ff 	lea    -0x490(%rbp),%rax
    b53c:	48 89 85 78 fb ff ff 	mov    %rax,-0x488(%rbp)
    b543:	48 8d 85 78 fb ff ff 	lea    -0x488(%rbp),%rax
    b54a:	48 89 85 80 fb ff ff 	mov    %rax,-0x480(%rbp)
    b551:	48 8d 85 80 fb ff ff 	lea    -0x480(%rbp),%rax
    b558:	48 89 85 c0 fb ff ff 	mov    %rax,-0x440(%rbp)
    b55f:	48 8d 05 92 b1 01 00 	lea    0x1b192(%rip),%rax        # 266f8 <g_635>
    b566:	48 89 85 88 fb ff ff 	mov    %rax,-0x478(%rbp)
    b56d:	48 8d 85 88 fb ff ff 	lea    -0x478(%rbp),%rax
    b574:	48 89 85 90 fb ff ff 	mov    %rax,-0x470(%rbp)
    b57b:	48 8d 85 90 fb ff ff 	lea    -0x470(%rbp),%rax
    b582:	48 89 85 c8 fb ff ff 	mov    %rax,-0x438(%rbp)
    b589:	48 c7 85 40 fc ff ff 	movq   $0x0,-0x3c0(%rbp)
    b590:	00 00 00 00 
    b594:	48 c7 85 48 fc ff ff 	movq   $0x0,-0x3b8(%rbp)
    b59b:	00 00 00 00 
    b59f:	48 c7 85 50 fc ff ff 	movq   $0x0,-0x3b0(%rbp)
    b5a6:	00 00 00 00 
    b5aa:	48 c7 85 58 fc ff ff 	movq   $0x0,-0x3a8(%rbp)
    b5b1:	00 00 00 00 
    b5b5:	c7 85 58 fb ff ff 9c 	movl   $0x7138bf9c,-0x4a8(%rbp)
    b5bc:	bf 38 71 
    b5bf:	48 8d 05 f2 c3 01 00 	lea    0x1c3f2(%rip),%rax        # 279b8 <g_2794>
    b5c6:	48 89 85 d0 fb ff ff 	mov    %rax,-0x430(%rbp)
    b5cd:	48 8d 05 c4 b1 01 00 	lea    0x1b1c4(%rip),%rax        # 26798 <g_1329>
    b5d4:	48 89 85 d8 fb ff ff 	mov    %rax,-0x428(%rbp)
    b5db:	48 8b 85 b8 fb ff ff 	mov    -0x448(%rbp),%rax
    b5e2:	48 8b 00             	mov    (%rax),%rax
    b5e5:	48 8d 50 ff          	lea    -0x1(%rax),%rdx
    b5e9:	48 8b 85 b8 fb ff ff 	mov    -0x448(%rbp),%rax
    b5f0:	48 89 10             	mov    %rdx,(%rax)
    b5f3:	48 8b 85 18 fe ff ff 	mov    -0x1e8(%rbp),%rax
    b5fa:	0f bf d8             	movswl %ax,%ebx
    b5fd:	8b 85 08 fc ff ff    	mov    -0x3f8(%rbp),%eax
    b603:	44 0f bf e0          	movswl %ax,%r12d
    b607:	0f be 85 3c fb ff ff 	movsbl -0x4c4(%rbp),%eax
    b60e:	48 98                	cltq   
    b610:	8b 84 85 00 fc ff ff 	mov    -0x400(%rbp,%rax,4),%eax
    b617:	41 89 c7             	mov    %eax,%r15d
    b61a:	8b 85 10 fc ff ff    	mov    -0x3f0(%rbp),%eax
    b620:	44 0f b6 e8          	movzbl %al,%r13d
    b624:	66 0f be 85 3c fb ff 	movsbw -0x4c4(%rbp),%ax
    b62b:	ff 
    b62c:	44 0f b7 f0          	movzwl %ax,%r14d
    b630:	8b 85 10 fc ff ff    	mov    -0x3f0(%rbp),%eax
    b636:	89 85 34 fb ff ff    	mov    %eax,-0x4cc(%rbp)
    b63c:	48 8b 05 05 d1 01 00 	mov    0x1d105(%rip),%rax        # 28748 <g_19>
    b643:	89 c1                	mov    %eax,%ecx
    b645:	48 8b 85 b8 fb ff ff 	mov    -0x448(%rbp),%rax
    b64c:	48 8d 15 f5 d0 01 00 	lea    0x1d0f5(%rip),%rdx        # 28748 <g_19>
    b653:	89 ce                	mov    %ecx,%esi
    b655:	48 89 c7             	mov    %rax,%rdi
    b658:	e8 9d 3c 00 00       	callq  f2fa <func_45>
    b65d:	89 c2                	mov    %eax,%edx
    b65f:	0f be 85 3c fb ff ff 	movsbl -0x4c4(%rbp),%eax
    b666:	89 d6                	mov    %edx,%esi
    b668:	89 c7                	mov    %eax,%edi
    b66a:	e8 61 e8 ff ff       	callq  9ed0 <safe_sub_func_uint32_t_u_u>
    b66f:	0f be 95 3c fb ff ff 	movsbl -0x4c4(%rbp),%edx
    b676:	48 63 d2             	movslq %edx,%rdx
    b679:	8b 94 95 00 fc ff ff 	mov    -0x400(%rbp,%rdx,4),%edx
    b680:	21 d0                	and    %edx,%eax
    b682:	89 c0                	mov    %eax,%eax
    b684:	48 89 c7             	mov    %rax,%rdi
    b687:	e8 8a e1 ff ff       	callq  9816 <safe_unary_minus_func_int64_t_s>
    b68c:	48 0f be 95 3c fb ff 	movsbq -0x4c4(%rbp),%rdx
    b693:	ff 
    b694:	48 39 d0             	cmp    %rdx,%rax
    b697:	0f 9c c0             	setl   %al
    b69a:	0f b6 c0             	movzbl %al,%eax
    b69d:	be 04 00 00 00       	mov    $0x4,%esi
    b6a2:	89 c7                	mov    %eax,%edi
    b6a4:	e8 a3 e5 ff ff       	callq  9c4c <safe_lshift_func_uint8_t_u_u>
    b6a9:	0f b6 c0             	movzbl %al,%eax
    b6ac:	8b b5 34 fb ff ff    	mov    -0x4cc(%rbp),%esi
    b6b2:	89 c7                	mov    %eax,%edi
    b6b4:	e8 4c df ff ff       	callq  9605 <safe_sub_func_int32_t_s_s>
    b6b9:	48 8b 05 b0 b0 01 00 	mov    0x1b0b0(%rip),%rax        # 26770 <g_959>
    b6c0:	0f b6 85 38 fb ff ff 	movzbl -0x4c8(%rbp),%eax
    b6c7:	44 89 f6             	mov    %r14d,%esi
    b6ca:	89 c7                	mov    %eax,%edi
    b6cc:	e8 8b e6 ff ff       	callq  9d5c <safe_mod_func_uint16_t_u_u>
    b6d1:	0f b7 c0             	movzwl %ax,%eax
    b6d4:	be 0d 00 00 00       	mov    $0xd,%esi
    b6d9:	89 c7                	mov    %eax,%edi
    b6db:	e8 68 e7 ff ff       	callq  9e48 <safe_rshift_func_uint16_t_u_s>
    b6e0:	0f b7 c0             	movzwl %ax,%eax
    b6e3:	89 85 50 fb ff ff    	mov    %eax,-0x4b0(%rbp)
    b6e9:	8b 85 50 fb ff ff    	mov    -0x4b0(%rbp),%eax
    b6ef:	48 63 d0             	movslq %eax,%rdx
    b6f2:	48 8b 85 68 fd ff ff 	mov    -0x298(%rbp),%rax
    b6f9:	48 39 c2             	cmp    %rax,%rdx
    b6fc:	0f 96 c0             	setbe  %al
    b6ff:	0f b6 d0             	movzbl %al,%edx
    b702:	48 8b 85 68 fd ff ff 	mov    -0x298(%rbp),%rax
    b709:	48 39 c2             	cmp    %rax,%rdx
    b70c:	0f 95 c0             	setne  %al
    b70f:	0f b6 d0             	movzbl %al,%edx
    b712:	8b 85 00 fc ff ff    	mov    -0x400(%rbp),%eax
    b718:	89 c6                	mov    %eax,%esi
    b71a:	48 8b 85 a0 fb ff ff 	mov    -0x460(%rbp),%rax
    b721:	44 89 e9             	mov    %r13d,%ecx
    b724:	48 89 c7             	mov    %rax,%rdi
    b727:	e8 f7 15 00 00       	callq  cd23 <func_28>
    b72c:	0f b6 c0             	movzbl %al,%eax
    b72f:	44 89 fe             	mov    %r15d,%esi
    b732:	89 c7                	mov    %eax,%edi
    b734:	e8 54 e5 ff ff       	callq  9c8d <safe_rshift_func_uint8_t_u_s>
    b739:	84 c0                	test   %al,%al
    b73b:	74 07                	je     b744 <func_9+0x630>
    b73d:	ba 01 00 00 00       	mov    $0x1,%edx
    b742:	eb 05                	jmp    b749 <func_9+0x635>
    b744:	ba 00 00 00 00       	mov    $0x0,%edx
    b749:	0f b6 85 38 fb ff ff 	movzbl -0x4c8(%rbp),%eax
    b750:	39 c2                	cmp    %eax,%edx
    b752:	0f 95 c0             	setne  %al
    b755:	0f b6 d0             	movzbl %al,%edx
    b758:	8b 85 0c fc ff ff    	mov    -0x3f4(%rbp),%eax
    b75e:	39 c2                	cmp    %eax,%edx
    b760:	0f 92 c0             	setb   %al
    b763:	0f b6 c0             	movzbl %al,%eax
    b766:	44 89 e6             	mov    %r12d,%esi
    b769:	89 c7                	mov    %eax,%edi
    b76b:	e8 a6 dc ff ff       	callq  9416 <safe_mod_func_int16_t_s_s>
    b770:	b8 00 00 00 00       	mov    $0x0,%eax
    b775:	21 85 54 fb ff ff    	and    %eax,-0x4ac(%rbp)
    b77b:	8b 85 54 fb ff ff    	mov    -0x4ac(%rbp),%eax
    b781:	98                   	cwtl   
    b782:	89 de                	mov    %ebx,%esi
    b784:	89 c7                	mov    %eax,%edi
    b786:	e8 6a dc ff ff       	callq  93f5 <safe_mul_func_int16_t_s_s>
    b78b:	0f be 85 3c fb ff ff 	movsbl -0x4c4(%rbp),%eax
    b792:	48 98                	cltq   
    b794:	8b 84 85 00 fc ff ff 	mov    -0x400(%rbp,%rax,4),%eax
    b79b:	0f b6 c0             	movzbl %al,%eax
    b79e:	be c9 f1 af 19       	mov    $0x19aff1c9,%esi
    b7a3:	89 c7                	mov    %eax,%edi
    b7a5:	e8 0f 02 00 00       	callq  b9b9 <func_15>
    b7aa:	89 c2                	mov    %eax,%edx
    b7ac:	8b 85 04 fc ff ff    	mov    -0x3fc(%rbp),%eax
    b7b2:	39 c2                	cmp    %eax,%edx
    b7b4:	74 35                	je     b7eb <func_9+0x6d7>
    b7b6:	48 8b 05 fb ae 01 00 	mov    0x1aefb(%rip),%rax        # 266b8 <g_191>
    b7bd:	48 8b 00             	mov    (%rax),%rax
    b7c0:	48 8b 00             	mov    (%rax),%rax
    b7c3:	48 8b 00             	mov    (%rax),%rax
    b7c6:	c7 00 01 00 00 00    	movl   $0x1,(%rax)
    b7cc:	48 8b 15 45 af 01 00 	mov    0x1af45(%rip),%rdx        # 26718 <g_679>
    b7d3:	48 8b 05 de ae 01 00 	mov    0x1aede(%rip),%rax        # 266b8 <g_191>
    b7da:	48 8b 00             	mov    (%rax),%rax
    b7dd:	48 8b 00             	mov    (%rax),%rax
    b7e0:	48 8b 12             	mov    (%rdx),%rdx
    b7e3:	48 89 10             	mov    %rdx,(%rax)
    b7e6:	e9 84 01 00 00       	jmpq   b96f <func_9+0x85b>
    b7eb:	48 c7 85 e0 fb ff ff 	movq   $0x0,-0x420(%rbp)
    b7f2:	00 00 00 00 
    b7f6:	c6 85 44 fb ff ff 5c 	movb   $0x5c,-0x4bc(%rbp)
    b7fd:	48 8d 05 d4 ae 01 00 	lea    0x1aed4(%rip),%rax        # 266d8 <g_455+0x8>
    b804:	48 89 85 e8 fb ff ff 	mov    %rax,-0x418(%rbp)
    b80b:	66 c7 85 48 fb ff ff 	movw   $0xffff,-0x4b8(%rbp)
    b812:	ff ff 
    b814:	c7 05 5a 8a 01 00 03 	movl   $0x3,0x18a5a(%rip)        # 24278 <g_206>
    b81b:	00 00 00 
    b81e:	e9 83 00 00 00       	jmpq   b8a6 <func_9+0x792>
    b823:	48 8d 05 3a 8a 01 00 	lea    0x18a3a(%rip),%rax        # 24264 <g_152+0x14>
    b82a:	48 89 85 98 fb ff ff 	mov    %rax,-0x468(%rbp)
    b831:	48 8d 85 20 fc ff ff 	lea    -0x3e0(%rbp),%rax
    b838:	48 83 c0 08          	add    $0x8,%rax
    b83c:	48 89 85 f0 fb ff ff 	mov    %rax,-0x410(%rbp)
    b843:	66 c7 85 4a fb ff ff 	movw   $0x3265,-0x4b6(%rbp)
    b84a:	65 32 
    b84c:	c7 85 5c fb ff ff f5 	movl   $0xea4da6f5,-0x4a4(%rbp)
    b853:	a6 4d ea 
    b856:	48 8d 05 5b c1 01 00 	lea    0x1c15b(%rip),%rax        # 279b8 <g_2794>
    b85d:	48 89 85 f8 fb ff ff 	mov    %rax,-0x408(%rbp)
    b864:	c7 85 4c fb ff ff 00 	movl   $0x0,-0x4b4(%rbp)
    b86b:	00 00 00 
    b86e:	eb 1e                	jmp    b88e <func_9+0x77a>
    b870:	8b 85 4c fb ff ff    	mov    -0x4b4(%rbp),%eax
    b876:	48 98                	cltq   
    b878:	48 8d 95 98 fb ff ff 	lea    -0x468(%rbp),%rdx
    b87f:	48 89 94 c5 20 fc ff 	mov    %rdx,-0x3e0(%rbp,%rax,8)
    b886:	ff 
    b887:	83 85 4c fb ff ff 01 	addl   $0x1,-0x4b4(%rbp)
    b88e:	83 bd 4c fb ff ff 02 	cmpl   $0x2,-0x4b4(%rbp)
    b895:	7e d9                	jle    b870 <func_9+0x75c>
    b897:	8b 05 db 89 01 00    	mov    0x189db(%rip),%eax        # 24278 <g_206>
    b89d:	83 e8 01             	sub    $0x1,%eax
    b8a0:	89 05 d2 89 01 00    	mov    %eax,0x189d2(%rip)        # 24278 <g_206>
    b8a6:	8b 05 cc 89 01 00    	mov    0x189cc(%rip),%eax        # 24278 <g_206>
    b8ac:	85 c0                	test   %eax,%eax
    b8ae:	0f 89 6f ff ff ff    	jns    b823 <func_9+0x70f>
    b8b4:	c6 85 38 fb ff ff 00 	movb   $0x0,-0x4c8(%rbp)
    b8bb:	eb 2e                	jmp    b8eb <func_9+0x7d7>
    b8bd:	48 8b 05 f4 ad 01 00 	mov    0x1adf4(%rip),%rax        # 266b8 <g_191>
    b8c4:	48 8b 00             	mov    (%rax),%rax
    b8c7:	48 8b 00             	mov    (%rax),%rax
    b8ca:	48 8b 00             	mov    (%rax),%rax
    b8cd:	8b 10                	mov    (%rax),%edx
    b8cf:	48 8b 05 e2 ad 01 00 	mov    0x1ade2(%rip),%rax        # 266b8 <g_191>
    b8d6:	48 8b 00             	mov    (%rax),%rax
    b8d9:	48 8b 00             	mov    (%rax),%rax
    b8dc:	48 8b 00             	mov    (%rax),%rax
    b8df:	83 f2 fd             	xor    $0xfffffffd,%edx
    b8e2:	89 10                	mov    %edx,(%rax)
    b8e4:	80 85 38 fb ff ff 01 	addb   $0x1,-0x4c8(%rbp)
    b8eb:	80 bd 38 fb ff ff 04 	cmpb   $0x4,-0x4c8(%rbp)
    b8f2:	76 c9                	jbe    b8bd <func_9+0x7a9>
    b8f4:	48 8b 05 bd ad 01 00 	mov    0x1adbd(%rip),%rax        # 266b8 <g_191>
    b8fb:	48 8b 00             	mov    (%rax),%rax
    b8fe:	48 8b 10             	mov    (%rax),%rdx
    b901:	48 8b 05 b0 ad 01 00 	mov    0x1adb0(%rip),%rax        # 266b8 <g_191>
    b908:	48 8b 00             	mov    (%rax),%rax
    b90b:	48 8b 00             	mov    (%rax),%rax
    b90e:	48 8b 12             	mov    (%rdx),%rdx
    b911:	48 89 10             	mov    %rdx,(%rax)
    b914:	c7 05 3e 88 01 00 00 	movl   $0x0,0x1883e(%rip)        # 2415c <g_80>
    b91b:	00 00 00 
    b91e:	eb 41                	jmp    b961 <func_9+0x84d>
    b920:	c6 85 45 fb ff ff d5 	movb   $0xd5,-0x4bb(%rbp)
    b927:	0f be 85 3c fb ff ff 	movsbl -0x4c4(%rbp),%eax
    b92e:	48 98                	cltq   
    b930:	8b 94 85 00 fc ff ff 	mov    -0x400(%rbp,%rax,4),%edx
    b937:	48 8b 05 62 ad 01 00 	mov    0x1ad62(%rip),%rax        # 266a0 <g_94>
    b93e:	89 10                	mov    %edx,(%rax)
    b940:	8b 00                	mov    (%rax),%eax
    b942:	20 85 45 fb ff ff    	and    %al,-0x4bb(%rbp)
    b948:	66 83 bd 48 fb ff ff 	cmpw   $0x0,-0x4b8(%rbp)
    b94f:	00 
    b950:	75 1c                	jne    b96e <func_9+0x85a>
    b952:	8b 05 04 88 01 00    	mov    0x18804(%rip),%eax        # 2415c <g_80>
    b958:	83 c0 01             	add    $0x1,%eax
    b95b:	89 05 fb 87 01 00    	mov    %eax,0x187fb(%rip)        # 2415c <g_80>
    b961:	8b 05 f5 87 01 00    	mov    0x187f5(%rip),%eax        # 2415c <g_80>
    b967:	83 f8 04             	cmp    $0x4,%eax
    b96a:	7e b4                	jle    b920 <func_9+0x80c>
    b96c:	eb 01                	jmp    b96f <func_9+0x85b>
    b96e:	90                   	nop
    b96f:	0f b6 85 3c fb ff ff 	movzbl -0x4c4(%rbp),%eax
    b976:	83 e8 01             	sub    $0x1,%eax
    b979:	88 85 3c fb ff ff    	mov    %al,-0x4c4(%rbp)
    b97f:	80 bd 3c fb ff ff 00 	cmpb   $0x0,-0x4c4(%rbp)
    b986:	0f 8f 3e f8 ff ff    	jg     b1ca <func_9+0xb6>
    b98c:	0f b6 85 38 fb ff ff 	movzbl -0x4c8(%rbp),%eax
    b993:	48 8b 5d c8          	mov    -0x38(%rbp),%rbx
    b997:	64 48 33 1c 25 28 00 	xor    %fs:0x28,%rbx
    b99e:	00 00 
    b9a0:	74 05                	je     b9a7 <func_9+0x893>
    b9a2:	e8 c9 d6 ff ff       	callq  9070 <__stack_chk_fail@plt>
    b9a7:	48 81 c4 a8 04 00 00 	add    $0x4a8,%rsp
    b9ae:	5b                   	pop    %rbx
    b9af:	41 5c                	pop    %r12
    b9b1:	41 5d                	pop    %r13
    b9b3:	41 5e                	pop    %r14
    b9b5:	41 5f                	pop    %r15
    b9b7:	5d                   	pop    %rbp
    b9b8:	c3                   	retq   

000000000000b9b9 <func_15>:
    b9b9:	f3 0f 1e fa          	endbr64 
    b9bd:	55                   	push   %rbp
    b9be:	48 89 e5             	mov    %rsp,%rbp
    b9c1:	48 81 ec 80 0a 00 00 	sub    $0xa80,%rsp
    b9c8:	89 f8                	mov    %edi,%eax
    b9ca:	48 89 b5 80 f5 ff ff 	mov    %rsi,-0xa80(%rbp)
    b9d1:	88 85 8c f5 ff ff    	mov    %al,-0xa74(%rbp)
    b9d7:	64 48 8b 04 25 28 00 	mov    %fs:0x28,%rax
    b9de:	00 00 
    b9e0:	48 89 45 f8          	mov    %rax,-0x8(%rbp)
    b9e4:	31 c0                	xor    %eax,%eax
    b9e6:	c7 85 a8 f5 ff ff 10 	movl   $0x5c3b5a10,-0xa58(%rbp)
    b9ed:	5a 3b 5c 
    b9f0:	c7 85 b4 f5 ff ff fe 	movl   $0xfffffffe,-0xa4c(%rbp)
    b9f7:	ff ff ff 
    b9fa:	c7 85 b8 f5 ff ff ff 	movl   $0xffffffff,-0xa48(%rbp)
    ba01:	ff ff ff 
    ba04:	c7 85 bc f5 ff ff 7e 	movl   $0xbeb9687e,-0xa44(%rbp)
    ba0b:	68 b9 be 
    ba0e:	48 8d 85 80 f6 ff ff 	lea    -0x980(%rbp),%rax
    ba15:	48 89 85 00 f6 ff ff 	mov    %rax,-0xa00(%rbp)
    ba1c:	48 8d 05 5d b9 01 00 	lea    0x1b95d(%rip),%rax        # 27380 <g_2051>
    ba23:	48 89 85 08 f6 ff ff 	mov    %rax,-0x9f8(%rbp)
    ba2a:	c7 85 c0 f5 ff ff 08 	movl   $0xaa1bc908,-0xa40(%rbp)
    ba31:	c9 1b aa 
    ba34:	48 8d 85 60 f9 ff ff 	lea    -0x6a0(%rbp),%rax
    ba3b:	48 8d 15 9e 30 01 00 	lea    0x1309e(%rip),%rdx        # 1eae0 <g_2439+0xa60>
    ba42:	b9 30 00 00 00       	mov    $0x30,%ecx
    ba47:	48 89 c7             	mov    %rax,%rdi
    ba4a:	48 89 d6             	mov    %rdx,%rsi
    ba4d:	f3 48 a5             	rep movsq %ds:(%rsi),%es:(%rdi)
    ba50:	c6 85 9a f5 ff ff f0 	movb   $0xf0,-0xa66(%rbp)
    ba57:	c6 85 9b f5 ff ff fa 	movb   $0xfa,-0xa65(%rbp)
    ba5e:	48 c7 85 10 f6 ff ff 	movq   $0x0,-0x9f0(%rbp)
    ba65:	00 00 00 00 
    ba69:	48 c7 85 18 f6 ff ff 	movq   $0xfffffffffffffff8,-0x9e8(%rbp)
    ba70:	f8 ff ff ff 
    ba74:	c6 85 9c f5 ff ff 40 	movb   $0x40,-0xa64(%rbp)
    ba7b:	c7 85 c4 f5 ff ff 04 	movl   $0x4,-0xa3c(%rbp)
    ba82:	00 00 00 
    ba85:	c7 85 ac f5 ff ff 00 	movl   $0x0,-0xa54(%rbp)
    ba8c:	00 00 00 
    ba8f:	eb 1e                	jmp    baaf <func_15+0xf6>
    ba91:	8b 85 ac f5 ff ff    	mov    -0xa54(%rbp),%eax
    ba97:	48 98                	cltq   
    ba99:	48 8d 15 40 ac 01 00 	lea    0x1ac40(%rip),%rdx        # 266e0 <g_455+0x10>
    baa0:	48 89 94 c5 90 f6 ff 	mov    %rdx,-0x970(%rbp,%rax,8)
    baa7:	ff 
    baa8:	83 85 ac f5 ff ff 01 	addl   $0x1,-0xa54(%rbp)
    baaf:	83 bd ac f5 ff ff 03 	cmpl   $0x3,-0xa54(%rbp)
    bab6:	7e d9                	jle    ba91 <func_15+0xd8>
    bab8:	c7 85 ac f5 ff ff 00 	movl   $0x0,-0xa54(%rbp)
    babf:	00 00 00 
    bac2:	eb 46                	jmp    bb0a <func_15+0x151>
    bac4:	c7 85 b0 f5 ff ff 00 	movl   $0x0,-0xa50(%rbp)
    bacb:	00 00 00 
    bace:	eb 2a                	jmp    bafa <func_15+0x141>
    bad0:	8b 85 b0 f5 ff ff    	mov    -0xa50(%rbp),%eax
    bad6:	48 63 d0             	movslq %eax,%rdx
    bad9:	8b 85 ac f5 ff ff    	mov    -0xa54(%rbp),%eax
    badf:	48 98                	cltq   
    bae1:	48 01 d0             	add    %rdx,%rax
    bae4:	48 8d 15 75 25 01 00 	lea    0x12575(%rip),%rdx        # 1e060 <g_602>
    baeb:	48 89 94 c5 80 f6 ff 	mov    %rdx,-0x980(%rbp,%rax,8)
    baf2:	ff 
    baf3:	83 85 b0 f5 ff ff 01 	addl   $0x1,-0xa50(%rbp)
    bafa:	83 bd b0 f5 ff ff 00 	cmpl   $0x0,-0xa50(%rbp)
    bb01:	7e cd                	jle    bad0 <func_15+0x117>
    bb03:	83 85 ac f5 ff ff 01 	addl   $0x1,-0xa54(%rbp)
    bb0a:	83 bd ac f5 ff ff 01 	cmpl   $0x1,-0xa54(%rbp)
    bb11:	7e b1                	jle    bac4 <func_15+0x10b>
    bb13:	83 ad a8 f5 ff ff 01 	subl   $0x1,-0xa58(%rbp)
    bb1a:	48 c7 85 80 f5 ff ff 	movq   $0x11,-0xa80(%rbp)
    bb21:	11 00 00 00 
    bb25:	e9 78 11 00 00       	jmpq   cca2 <func_15+0x12e9>
    bb2a:	c7 85 a4 f5 ff ff 00 	movl   $0x0,-0xa5c(%rbp)
    bb31:	00 00 00 
    bb34:	c7 85 c8 f5 ff ff d5 	movl   $0x53e296d5,-0xa38(%rbp)
    bb3b:	96 e2 53 
    bb3e:	48 8d 05 bb be 01 00 	lea    0x1bebb(%rip),%rax        # 27a00 <g_3179>
    bb45:	48 89 85 20 f6 ff ff 	mov    %rax,-0x9e0(%rbp)
    bb4c:	48 8d 05 a5 ab 01 00 	lea    0x1aba5(%rip),%rax        # 266f8 <g_635>
    bb53:	48 89 85 28 f6 ff ff 	mov    %rax,-0x9d8(%rbp)
    bb5a:	48 c7 85 30 f6 ff ff 	movq   $0xffffffffffffffff,-0x9d0(%rbp)
    bb61:	ff ff ff ff 
    bb65:	c7 85 cc f5 ff ff c8 	movl   $0xe92506c8,-0xa34(%rbp)
    bb6c:	06 25 e9 
    bb6f:	c7 85 d0 f5 ff ff 01 	movl   $0x1,-0xa30(%rbp)
    bb76:	00 00 00 
    bb79:	c7 85 d4 f5 ff ff 61 	movl   $0x8393d361,-0xa2c(%rbp)
    bb80:	d3 93 83 
    bb83:	c7 85 d8 f5 ff ff 02 	movl   $0x2,-0xa28(%rbp)
    bb8a:	00 00 00 
    bb8d:	48 c7 85 38 f6 ff ff 	movq   $0x0,-0x9c8(%rbp)
    bb94:	00 00 00 00 
    bb98:	48 8d 05 09 ab 01 00 	lea    0x1ab09(%rip),%rax        # 266a8 <g_93>
    bb9f:	48 89 85 f0 f5 ff ff 	mov    %rax,-0xa10(%rbp)
    bba6:	48 8d 85 f0 f5 ff ff 	lea    -0xa10(%rbp),%rax
    bbad:	48 89 85 e0 fa ff ff 	mov    %rax,-0x520(%rbp)
    bbb4:	48 8d 85 f0 f5 ff ff 	lea    -0xa10(%rbp),%rax
    bbbb:	48 89 85 e8 fa ff ff 	mov    %rax,-0x518(%rbp)
    bbc2:	48 8d 85 f0 f5 ff ff 	lea    -0xa10(%rbp),%rax
    bbc9:	48 89 85 f0 fa ff ff 	mov    %rax,-0x510(%rbp)
    bbd0:	48 8d 85 f0 f5 ff ff 	lea    -0xa10(%rbp),%rax
    bbd7:	48 89 85 f8 fa ff ff 	mov    %rax,-0x508(%rbp)
    bbde:	48 8d 85 f0 f5 ff ff 	lea    -0xa10(%rbp),%rax
    bbe5:	48 89 85 00 fb ff ff 	mov    %rax,-0x500(%rbp)
    bbec:	48 8d 85 f0 f5 ff ff 	lea    -0xa10(%rbp),%rax
    bbf3:	48 89 85 08 fb ff ff 	mov    %rax,-0x4f8(%rbp)
    bbfa:	48 c7 85 10 fb ff ff 	movq   $0x0,-0x4f0(%rbp)
    bc01:	00 00 00 00 
    bc05:	48 8d 85 f0 f5 ff ff 	lea    -0xa10(%rbp),%rax
    bc0c:	48 89 85 18 fb ff ff 	mov    %rax,-0x4e8(%rbp)
    bc13:	48 8d 85 f0 f5 ff ff 	lea    -0xa10(%rbp),%rax
    bc1a:	48 89 85 20 fb ff ff 	mov    %rax,-0x4e0(%rbp)
    bc21:	48 8d 85 f0 f5 ff ff 	lea    -0xa10(%rbp),%rax
    bc28:	48 89 85 28 fb ff ff 	mov    %rax,-0x4d8(%rbp)
    bc2f:	48 8d 85 f0 f5 ff ff 	lea    -0xa10(%rbp),%rax
    bc36:	48 89 85 30 fb ff ff 	mov    %rax,-0x4d0(%rbp)
    bc3d:	48 8d 85 f0 f5 ff ff 	lea    -0xa10(%rbp),%rax
    bc44:	48 89 85 38 fb ff ff 	mov    %rax,-0x4c8(%rbp)
    bc4b:	48 8d 85 f0 f5 ff ff 	lea    -0xa10(%rbp),%rax
    bc52:	48 89 85 40 fb ff ff 	mov    %rax,-0x4c0(%rbp)
    bc59:	48 8d 85 f0 f5 ff ff 	lea    -0xa10(%rbp),%rax
    bc60:	48 89 85 48 fb ff ff 	mov    %rax,-0x4b8(%rbp)
    bc67:	48 8d 85 f0 f5 ff ff 	lea    -0xa10(%rbp),%rax
    bc6e:	48 89 85 50 fb ff ff 	mov    %rax,-0x4b0(%rbp)
    bc75:	48 c7 85 58 fb ff ff 	movq   $0x0,-0x4a8(%rbp)
    bc7c:	00 00 00 00 
    bc80:	48 8d 85 f0 f5 ff ff 	lea    -0xa10(%rbp),%rax
    bc87:	48 89 85 60 fb ff ff 	mov    %rax,-0x4a0(%rbp)
    bc8e:	48 8d 85 f0 f5 ff ff 	lea    -0xa10(%rbp),%rax
    bc95:	48 89 85 68 fb ff ff 	mov    %rax,-0x498(%rbp)
    bc9c:	48 8d 85 f0 f5 ff ff 	lea    -0xa10(%rbp),%rax
    bca3:	48 89 85 70 fb ff ff 	mov    %rax,-0x490(%rbp)
    bcaa:	48 8d 85 f0 f5 ff ff 	lea    -0xa10(%rbp),%rax
    bcb1:	48 89 85 78 fb ff ff 	mov    %rax,-0x488(%rbp)
    bcb8:	48 8d 85 f0 f5 ff ff 	lea    -0xa10(%rbp),%rax
    bcbf:	48 89 85 80 fb ff ff 	mov    %rax,-0x480(%rbp)
    bcc6:	48 c7 85 88 fb ff ff 	movq   $0x0,-0x478(%rbp)
    bccd:	00 00 00 00 
    bcd1:	48 8d 85 f0 f5 ff ff 	lea    -0xa10(%rbp),%rax
    bcd8:	48 89 85 90 fb ff ff 	mov    %rax,-0x470(%rbp)
    bcdf:	48 8d 85 f0 f5 ff ff 	lea    -0xa10(%rbp),%rax
    bce6:	48 89 85 98 fb ff ff 	mov    %rax,-0x468(%rbp)
    bced:	48 8d 85 f0 f5 ff ff 	lea    -0xa10(%rbp),%rax
    bcf4:	48 89 85 a0 fb ff ff 	mov    %rax,-0x460(%rbp)
    bcfb:	48 8d 85 f0 f5 ff ff 	lea    -0xa10(%rbp),%rax
    bd02:	48 89 85 a8 fb ff ff 	mov    %rax,-0x458(%rbp)
    bd09:	48 8d 85 f0 f5 ff ff 	lea    -0xa10(%rbp),%rax
    bd10:	48 89 85 b0 fb ff ff 	mov    %rax,-0x450(%rbp)
    bd17:	48 8d 85 f0 f5 ff ff 	lea    -0xa10(%rbp),%rax
    bd1e:	48 89 85 b8 fb ff ff 	mov    %rax,-0x448(%rbp)
    bd25:	48 8d 85 f0 f5 ff ff 	lea    -0xa10(%rbp),%rax
    bd2c:	48 89 85 c0 fb ff ff 	mov    %rax,-0x440(%rbp)
    bd33:	48 8d 85 f0 f5 ff ff 	lea    -0xa10(%rbp),%rax
    bd3a:	48 89 85 c8 fb ff ff 	mov    %rax,-0x438(%rbp)
    bd41:	48 c7 85 d0 fb ff ff 	movq   $0x0,-0x430(%rbp)
    bd48:	00 00 00 00 
    bd4c:	48 8d 85 f0 f5 ff ff 	lea    -0xa10(%rbp),%rax
    bd53:	48 89 85 d8 fb ff ff 	mov    %rax,-0x428(%rbp)
    bd5a:	48 8d 85 f0 f5 ff ff 	lea    -0xa10(%rbp),%rax
    bd61:	48 89 85 e0 fb ff ff 	mov    %rax,-0x420(%rbp)
    bd68:	48 8d 85 f0 f5 ff ff 	lea    -0xa10(%rbp),%rax
    bd6f:	48 89 85 e8 fb ff ff 	mov    %rax,-0x418(%rbp)
    bd76:	48 8d 85 f0 f5 ff ff 	lea    -0xa10(%rbp),%rax
    bd7d:	48 89 85 f0 fb ff ff 	mov    %rax,-0x410(%rbp)
    bd84:	48 8d 85 f0 f5 ff ff 	lea    -0xa10(%rbp),%rax
    bd8b:	48 89 85 f8 fb ff ff 	mov    %rax,-0x408(%rbp)
    bd92:	48 8d 85 f0 f5 ff ff 	lea    -0xa10(%rbp),%rax
    bd99:	48 89 85 00 fc ff ff 	mov    %rax,-0x400(%rbp)
    bda0:	48 8d 85 f0 f5 ff ff 	lea    -0xa10(%rbp),%rax
    bda7:	48 89 85 08 fc ff ff 	mov    %rax,-0x3f8(%rbp)
    bdae:	48 8d 85 f0 f5 ff ff 	lea    -0xa10(%rbp),%rax
    bdb5:	48 89 85 10 fc ff ff 	mov    %rax,-0x3f0(%rbp)
    bdbc:	48 8d 85 f0 f5 ff ff 	lea    -0xa10(%rbp),%rax
    bdc3:	48 89 85 18 fc ff ff 	mov    %rax,-0x3e8(%rbp)
    bdca:	48 c7 85 20 fc ff ff 	movq   $0x0,-0x3e0(%rbp)
    bdd1:	00 00 00 00 
    bdd5:	48 8d 85 f0 f5 ff ff 	lea    -0xa10(%rbp),%rax
    bddc:	48 89 85 28 fc ff ff 	mov    %rax,-0x3d8(%rbp)
    bde3:	48 8d 85 f0 f5 ff ff 	lea    -0xa10(%rbp),%rax
    bdea:	48 89 85 30 fc ff ff 	mov    %rax,-0x3d0(%rbp)
    bdf1:	48 8d 85 f0 f5 ff ff 	lea    -0xa10(%rbp),%rax
    bdf8:	48 89 85 38 fc ff ff 	mov    %rax,-0x3c8(%rbp)
    bdff:	48 8d 85 f0 f5 ff ff 	lea    -0xa10(%rbp),%rax
    be06:	48 89 85 40 fc ff ff 	mov    %rax,-0x3c0(%rbp)
    be0d:	48 8d 85 f0 f5 ff ff 	lea    -0xa10(%rbp),%rax
    be14:	48 89 85 48 fc ff ff 	mov    %rax,-0x3b8(%rbp)
    be1b:	48 c7 85 50 fc ff ff 	movq   $0x0,-0x3b0(%rbp)
    be22:	00 00 00 00 
    be26:	48 8d 85 f0 f5 ff ff 	lea    -0xa10(%rbp),%rax
    be2d:	48 89 85 58 fc ff ff 	mov    %rax,-0x3a8(%rbp)
    be34:	48 8d 85 f0 f5 ff ff 	lea    -0xa10(%rbp),%rax
    be3b:	48 89 85 60 fc ff ff 	mov    %rax,-0x3a0(%rbp)
    be42:	48 8d 85 f0 f5 ff ff 	lea    -0xa10(%rbp),%rax
    be49:	48 89 85 68 fc ff ff 	mov    %rax,-0x398(%rbp)
    be50:	48 8d 85 f0 f5 ff ff 	lea    -0xa10(%rbp),%rax
    be57:	48 89 85 70 fc ff ff 	mov    %rax,-0x390(%rbp)
    be5e:	48 8d 85 f0 f5 ff ff 	lea    -0xa10(%rbp),%rax
    be65:	48 89 85 78 fc ff ff 	mov    %rax,-0x388(%rbp)
    be6c:	48 8d 85 f0 f5 ff ff 	lea    -0xa10(%rbp),%rax
    be73:	48 89 85 80 fc ff ff 	mov    %rax,-0x380(%rbp)
    be7a:	48 8d 85 f0 f5 ff ff 	lea    -0xa10(%rbp),%rax
    be81:	48 89 85 88 fc ff ff 	mov    %rax,-0x378(%rbp)
    be88:	48 8d 85 f0 f5 ff ff 	lea    -0xa10(%rbp),%rax
    be8f:	48 89 85 90 fc ff ff 	mov    %rax,-0x370(%rbp)
    be96:	48 8d 85 f0 f5 ff ff 	lea    -0xa10(%rbp),%rax
    be9d:	48 89 85 98 fc ff ff 	mov    %rax,-0x368(%rbp)
    bea4:	48 8d 85 f0 f5 ff ff 	lea    -0xa10(%rbp),%rax
    beab:	48 89 85 a0 fc ff ff 	mov    %rax,-0x360(%rbp)
    beb2:	48 8d 85 f0 f5 ff ff 	lea    -0xa10(%rbp),%rax
    beb9:	48 89 85 a8 fc ff ff 	mov    %rax,-0x358(%rbp)
    bec0:	48 8d 85 f0 f5 ff ff 	lea    -0xa10(%rbp),%rax
    bec7:	48 89 85 b0 fc ff ff 	mov    %rax,-0x350(%rbp)
    bece:	48 8d 85 f0 f5 ff ff 	lea    -0xa10(%rbp),%rax
    bed5:	48 89 85 b8 fc ff ff 	mov    %rax,-0x348(%rbp)
    bedc:	48 8d 85 f0 f5 ff ff 	lea    -0xa10(%rbp),%rax
    bee3:	48 89 85 c0 fc ff ff 	mov    %rax,-0x340(%rbp)
    beea:	48 8d 85 f0 f5 ff ff 	lea    -0xa10(%rbp),%rax
    bef1:	48 89 85 c8 fc ff ff 	mov    %rax,-0x338(%rbp)
    bef8:	48 c7 85 d0 fc ff ff 	movq   $0x0,-0x330(%rbp)
    beff:	00 00 00 00 
    bf03:	48 8d 85 f0 f5 ff ff 	lea    -0xa10(%rbp),%rax
    bf0a:	48 89 85 d8 fc ff ff 	mov    %rax,-0x328(%rbp)
    bf11:	48 8d 85 f0 f5 ff ff 	lea    -0xa10(%rbp),%rax
    bf18:	48 89 85 e0 fc ff ff 	mov    %rax,-0x320(%rbp)
    bf1f:	48 8d 85 f0 f5 ff ff 	lea    -0xa10(%rbp),%rax
    bf26:	48 89 85 e8 fc ff ff 	mov    %rax,-0x318(%rbp)
    bf2d:	48 8d 85 f0 f5 ff ff 	lea    -0xa10(%rbp),%rax
    bf34:	48 89 85 f0 fc ff ff 	mov    %rax,-0x310(%rbp)
    bf3b:	48 8d 85 f0 f5 ff ff 	lea    -0xa10(%rbp),%rax
    bf42:	48 89 85 f8 fc ff ff 	mov    %rax,-0x308(%rbp)
    bf49:	48 8d 85 f0 f5 ff ff 	lea    -0xa10(%rbp),%rax
    bf50:	48 89 85 00 fd ff ff 	mov    %rax,-0x300(%rbp)
    bf57:	48 8d 85 f0 f5 ff ff 	lea    -0xa10(%rbp),%rax
    bf5e:	48 89 85 08 fd ff ff 	mov    %rax,-0x2f8(%rbp)
    bf65:	48 8d 85 f0 f5 ff ff 	lea    -0xa10(%rbp),%rax
    bf6c:	48 89 85 10 fd ff ff 	mov    %rax,-0x2f0(%rbp)
    bf73:	48 8d 85 f0 f5 ff ff 	lea    -0xa10(%rbp),%rax
    bf7a:	48 89 85 18 fd ff ff 	mov    %rax,-0x2e8(%rbp)
    bf81:	48 8d 85 f0 f5 ff ff 	lea    -0xa10(%rbp),%rax
    bf88:	48 89 85 20 fd ff ff 	mov    %rax,-0x2e0(%rbp)
    bf8f:	48 8d 85 f0 f5 ff ff 	lea    -0xa10(%rbp),%rax
    bf96:	48 89 85 28 fd ff ff 	mov    %rax,-0x2d8(%rbp)
    bf9d:	48 c7 85 30 fd ff ff 	movq   $0x0,-0x2d0(%rbp)
    bfa4:	00 00 00 00 
    bfa8:	48 8d 85 f0 f5 ff ff 	lea    -0xa10(%rbp),%rax
    bfaf:	48 89 85 38 fd ff ff 	mov    %rax,-0x2c8(%rbp)
    bfb6:	48 8d 85 f0 f5 ff ff 	lea    -0xa10(%rbp),%rax
    bfbd:	48 89 85 40 fd ff ff 	mov    %rax,-0x2c0(%rbp)
    bfc4:	48 8d 85 f0 f5 ff ff 	lea    -0xa10(%rbp),%rax
    bfcb:	48 89 85 48 fd ff ff 	mov    %rax,-0x2b8(%rbp)
    bfd2:	48 8d 85 f0 f5 ff ff 	lea    -0xa10(%rbp),%rax
    bfd9:	48 89 85 50 fd ff ff 	mov    %rax,-0x2b0(%rbp)
    bfe0:	48 8d 85 f0 f5 ff ff 	lea    -0xa10(%rbp),%rax
    bfe7:	48 89 85 58 fd ff ff 	mov    %rax,-0x2a8(%rbp)
    bfee:	48 8d 85 f0 f5 ff ff 	lea    -0xa10(%rbp),%rax
    bff5:	48 89 85 60 fd ff ff 	mov    %rax,-0x2a0(%rbp)
    bffc:	48 c7 85 68 fd ff ff 	movq   $0x0,-0x298(%rbp)
    c003:	00 00 00 00 
    c007:	48 8d 85 f0 f5 ff ff 	lea    -0xa10(%rbp),%rax
    c00e:	48 89 85 70 fd ff ff 	mov    %rax,-0x290(%rbp)
    c015:	48 8d 85 f0 f5 ff ff 	lea    -0xa10(%rbp),%rax
    c01c:	48 89 85 78 fd ff ff 	mov    %rax,-0x288(%rbp)
    c023:	48 8d 85 f0 f5 ff ff 	lea    -0xa10(%rbp),%rax
    c02a:	48 89 85 80 fd ff ff 	mov    %rax,-0x280(%rbp)
    c031:	48 8d 85 f0 f5 ff ff 	lea    -0xa10(%rbp),%rax
    c038:	48 89 85 88 fd ff ff 	mov    %rax,-0x278(%rbp)
    c03f:	48 8d 85 f0 f5 ff ff 	lea    -0xa10(%rbp),%rax
    c046:	48 89 85 90 fd ff ff 	mov    %rax,-0x270(%rbp)
    c04d:	48 8d 85 f0 f5 ff ff 	lea    -0xa10(%rbp),%rax
    c054:	48 89 85 98 fd ff ff 	mov    %rax,-0x268(%rbp)
    c05b:	48 8d 85 f0 f5 ff ff 	lea    -0xa10(%rbp),%rax
    c062:	48 89 85 a0 fd ff ff 	mov    %rax,-0x260(%rbp)
    c069:	48 8d 85 f0 f5 ff ff 	lea    -0xa10(%rbp),%rax
    c070:	48 89 85 a8 fd ff ff 	mov    %rax,-0x258(%rbp)
    c077:	48 c7 85 b0 fd ff ff 	movq   $0x0,-0x250(%rbp)
    c07e:	00 00 00 00 
    c082:	48 8d 85 f0 f5 ff ff 	lea    -0xa10(%rbp),%rax
    c089:	48 89 85 b8 fd ff ff 	mov    %rax,-0x248(%rbp)
    c090:	48 8d 85 f0 f5 ff ff 	lea    -0xa10(%rbp),%rax
    c097:	48 89 85 c0 fd ff ff 	mov    %rax,-0x240(%rbp)
    c09e:	48 8d 85 f0 f5 ff ff 	lea    -0xa10(%rbp),%rax
    c0a5:	48 89 85 c8 fd ff ff 	mov    %rax,-0x238(%rbp)
    c0ac:	48 8d 85 f0 f5 ff ff 	lea    -0xa10(%rbp),%rax
    c0b3:	48 89 85 d0 fd ff ff 	mov    %rax,-0x230(%rbp)
    c0ba:	48 8d 85 f0 f5 ff ff 	lea    -0xa10(%rbp),%rax
    c0c1:	48 89 85 d8 fd ff ff 	mov    %rax,-0x228(%rbp)
    c0c8:	48 c7 85 e0 fd ff ff 	movq   $0x0,-0x220(%rbp)
    c0cf:	00 00 00 00 
    c0d3:	48 8d 85 f0 f5 ff ff 	lea    -0xa10(%rbp),%rax
    c0da:	48 89 85 e8 fd ff ff 	mov    %rax,-0x218(%rbp)
    c0e1:	48 8d 85 f0 f5 ff ff 	lea    -0xa10(%rbp),%rax
    c0e8:	48 89 85 f0 fd ff ff 	mov    %rax,-0x210(%rbp)
    c0ef:	48 8d 85 f0 f5 ff ff 	lea    -0xa10(%rbp),%rax
    c0f6:	48 89 85 f8 fd ff ff 	mov    %rax,-0x208(%rbp)
    c0fd:	48 8d 85 f0 f5 ff ff 	lea    -0xa10(%rbp),%rax
    c104:	48 89 85 00 fe ff ff 	mov    %rax,-0x200(%rbp)
    c10b:	48 8d 85 f0 f5 ff ff 	lea    -0xa10(%rbp),%rax
    c112:	48 89 85 08 fe ff ff 	mov    %rax,-0x1f8(%rbp)
    c119:	48 8d 85 f0 f5 ff ff 	lea    -0xa10(%rbp),%rax
    c120:	48 89 85 10 fe ff ff 	mov    %rax,-0x1f0(%rbp)
    c127:	48 8d 85 f0 f5 ff ff 	lea    -0xa10(%rbp),%rax
    c12e:	48 89 85 18 fe ff ff 	mov    %rax,-0x1e8(%rbp)
    c135:	48 8d 85 f0 f5 ff ff 	lea    -0xa10(%rbp),%rax
    c13c:	48 89 85 20 fe ff ff 	mov    %rax,-0x1e0(%rbp)
    c143:	48 c7 85 28 fe ff ff 	movq   $0x0,-0x1d8(%rbp)
    c14a:	00 00 00 00 
    c14e:	48 8d 85 f0 f5 ff ff 	lea    -0xa10(%rbp),%rax
    c155:	48 89 85 30 fe ff ff 	mov    %rax,-0x1d0(%rbp)
    c15c:	48 8d 85 f0 f5 ff ff 	lea    -0xa10(%rbp),%rax
    c163:	48 89 85 38 fe ff ff 	mov    %rax,-0x1c8(%rbp)
    c16a:	48 8d 85 f0 f5 ff ff 	lea    -0xa10(%rbp),%rax
    c171:	48 89 85 40 fe ff ff 	mov    %rax,-0x1c0(%rbp)
    c178:	48 8d 85 f0 f5 ff ff 	lea    -0xa10(%rbp),%rax
    c17f:	48 89 85 48 fe ff ff 	mov    %rax,-0x1b8(%rbp)
    c186:	48 8d 85 f0 f5 ff ff 	lea    -0xa10(%rbp),%rax
    c18d:	48 89 85 50 fe ff ff 	mov    %rax,-0x1b0(%rbp)
    c194:	48 8d 85 f0 f5 ff ff 	lea    -0xa10(%rbp),%rax
    c19b:	48 89 85 58 fe ff ff 	mov    %rax,-0x1a8(%rbp)
    c1a2:	48 8d 85 f0 f5 ff ff 	lea    -0xa10(%rbp),%rax
    c1a9:	48 89 85 60 fe ff ff 	mov    %rax,-0x1a0(%rbp)
    c1b0:	48 8d 85 f0 f5 ff ff 	lea    -0xa10(%rbp),%rax
    c1b7:	48 89 85 68 fe ff ff 	mov    %rax,-0x198(%rbp)
    c1be:	48 8d 85 f0 f5 ff ff 	lea    -0xa10(%rbp),%rax
    c1c5:	48 89 85 70 fe ff ff 	mov    %rax,-0x190(%rbp)
    c1cc:	48 c7 85 78 fe ff ff 	movq   $0x0,-0x188(%rbp)
    c1d3:	00 00 00 00 
    c1d7:	48 8d 85 f0 f5 ff ff 	lea    -0xa10(%rbp),%rax
    c1de:	48 89 85 80 fe ff ff 	mov    %rax,-0x180(%rbp)
    c1e5:	48 8d 85 f0 f5 ff ff 	lea    -0xa10(%rbp),%rax
    c1ec:	48 89 85 88 fe ff ff 	mov    %rax,-0x178(%rbp)
    c1f3:	48 8d 85 f0 f5 ff ff 	lea    -0xa10(%rbp),%rax
    c1fa:	48 89 85 90 fe ff ff 	mov    %rax,-0x170(%rbp)
    c201:	48 8d 85 f0 f5 ff ff 	lea    -0xa10(%rbp),%rax
    c208:	48 89 85 98 fe ff ff 	mov    %rax,-0x168(%rbp)
    c20f:	48 8d 85 f0 f5 ff ff 	lea    -0xa10(%rbp),%rax
    c216:	48 89 85 a0 fe ff ff 	mov    %rax,-0x160(%rbp)
    c21d:	48 8d 85 f0 f5 ff ff 	lea    -0xa10(%rbp),%rax
    c224:	48 89 85 a8 fe ff ff 	mov    %rax,-0x158(%rbp)
    c22b:	48 8d 85 f0 f5 ff ff 	lea    -0xa10(%rbp),%rax
    c232:	48 89 85 b0 fe ff ff 	mov    %rax,-0x150(%rbp)
    c239:	48 8d 85 f0 f5 ff ff 	lea    -0xa10(%rbp),%rax
    c240:	48 89 85 b8 fe ff ff 	mov    %rax,-0x148(%rbp)
    c247:	48 8d 85 f0 f5 ff ff 	lea    -0xa10(%rbp),%rax
    c24e:	48 89 85 c0 fe ff ff 	mov    %rax,-0x140(%rbp)
    c255:	48 8d 85 f0 f5 ff ff 	lea    -0xa10(%rbp),%rax
    c25c:	48 89 85 c8 fe ff ff 	mov    %rax,-0x138(%rbp)
    c263:	48 c7 85 d0 fe ff ff 	movq   $0x0,-0x130(%rbp)
    c26a:	00 00 00 00 
    c26e:	48 8d 85 f0 f5 ff ff 	lea    -0xa10(%rbp),%rax
    c275:	48 89 85 d8 fe ff ff 	mov    %rax,-0x128(%rbp)
    c27c:	48 8d 85 f0 f5 ff ff 	lea    -0xa10(%rbp),%rax
    c283:	48 89 85 e0 fe ff ff 	mov    %rax,-0x120(%rbp)
    c28a:	48 8d 85 f0 f5 ff ff 	lea    -0xa10(%rbp),%rax
    c291:	48 89 85 e8 fe ff ff 	mov    %rax,-0x118(%rbp)
    c298:	48 8d 85 f0 f5 ff ff 	lea    -0xa10(%rbp),%rax
    c29f:	48 89 85 f0 fe ff ff 	mov    %rax,-0x110(%rbp)
    c2a6:	48 8d 85 f0 f5 ff ff 	lea    -0xa10(%rbp),%rax
    c2ad:	48 89 85 f8 fe ff ff 	mov    %rax,-0x108(%rbp)
    c2b4:	48 8d 85 f0 f5 ff ff 	lea    -0xa10(%rbp),%rax
    c2bb:	48 89 85 00 ff ff ff 	mov    %rax,-0x100(%rbp)
    c2c2:	48 8d 85 f0 f5 ff ff 	lea    -0xa10(%rbp),%rax
    c2c9:	48 89 85 08 ff ff ff 	mov    %rax,-0xf8(%rbp)
    c2d0:	48 8d 85 f0 f5 ff ff 	lea    -0xa10(%rbp),%rax
    c2d7:	48 89 85 10 ff ff ff 	mov    %rax,-0xf0(%rbp)
    c2de:	48 c7 85 18 ff ff ff 	movq   $0x0,-0xe8(%rbp)
    c2e5:	00 00 00 00 
    c2e9:	48 8d 85 f0 f5 ff ff 	lea    -0xa10(%rbp),%rax
    c2f0:	48 89 85 20 ff ff ff 	mov    %rax,-0xe0(%rbp)
    c2f7:	48 c7 85 28 ff ff ff 	movq   $0x0,-0xd8(%rbp)
    c2fe:	00 00 00 00 
    c302:	48 8d 85 f0 f5 ff ff 	lea    -0xa10(%rbp),%rax
    c309:	48 89 85 30 ff ff ff 	mov    %rax,-0xd0(%rbp)
    c310:	48 8d 85 f0 f5 ff ff 	lea    -0xa10(%rbp),%rax
    c317:	48 89 85 38 ff ff ff 	mov    %rax,-0xc8(%rbp)
    c31e:	48 8d 85 f0 f5 ff ff 	lea    -0xa10(%rbp),%rax
    c325:	48 89 85 40 ff ff ff 	mov    %rax,-0xc0(%rbp)
    c32c:	48 8d 85 f0 f5 ff ff 	lea    -0xa10(%rbp),%rax
    c333:	48 89 85 48 ff ff ff 	mov    %rax,-0xb8(%rbp)
    c33a:	48 8d 85 f0 f5 ff ff 	lea    -0xa10(%rbp),%rax
    c341:	48 89 85 50 ff ff ff 	mov    %rax,-0xb0(%rbp)
    c348:	48 8d 85 f0 f5 ff ff 	lea    -0xa10(%rbp),%rax
    c34f:	48 89 85 58 ff ff ff 	mov    %rax,-0xa8(%rbp)
    c356:	48 8d 85 f0 f5 ff ff 	lea    -0xa10(%rbp),%rax
    c35d:	48 89 85 60 ff ff ff 	mov    %rax,-0xa0(%rbp)
    c364:	48 8d 85 f0 f5 ff ff 	lea    -0xa10(%rbp),%rax
    c36b:	48 89 85 68 ff ff ff 	mov    %rax,-0x98(%rbp)
    c372:	48 8d 85 f0 f5 ff ff 	lea    -0xa10(%rbp),%rax
    c379:	48 89 85 70 ff ff ff 	mov    %rax,-0x90(%rbp)
    c380:	48 8d 85 f0 f5 ff ff 	lea    -0xa10(%rbp),%rax
    c387:	48 89 85 78 ff ff ff 	mov    %rax,-0x88(%rbp)
    c38e:	48 8d 85 f0 f5 ff ff 	lea    -0xa10(%rbp),%rax
    c395:	48 89 45 80          	mov    %rax,-0x80(%rbp)
    c399:	48 c7 45 88 00 00 00 	movq   $0x0,-0x78(%rbp)
    c3a0:	00 
    c3a1:	48 c7 45 90 00 00 00 	movq   $0x0,-0x70(%rbp)
    c3a8:	00 
    c3a9:	48 8d 85 f0 f5 ff ff 	lea    -0xa10(%rbp),%rax
    c3b0:	48 89 45 98          	mov    %rax,-0x68(%rbp)
    c3b4:	48 8d 85 f0 f5 ff ff 	lea    -0xa10(%rbp),%rax
    c3bb:	48 89 45 a0          	mov    %rax,-0x60(%rbp)
    c3bf:	48 8d 85 f0 f5 ff ff 	lea    -0xa10(%rbp),%rax
    c3c6:	48 89 45 a8          	mov    %rax,-0x58(%rbp)
    c3ca:	48 8d 85 f0 f5 ff ff 	lea    -0xa10(%rbp),%rax
    c3d1:	48 89 45 b0          	mov    %rax,-0x50(%rbp)
    c3d5:	48 8d 85 f0 f5 ff ff 	lea    -0xa10(%rbp),%rax
    c3dc:	48 89 45 b8          	mov    %rax,-0x48(%rbp)
    c3e0:	48 8d 85 f0 f5 ff ff 	lea    -0xa10(%rbp),%rax
    c3e7:	48 89 45 c0          	mov    %rax,-0x40(%rbp)
    c3eb:	48 8d 85 f0 f5 ff ff 	lea    -0xa10(%rbp),%rax
    c3f2:	48 89 45 c8          	mov    %rax,-0x38(%rbp)
    c3f6:	48 8d 85 f0 f5 ff ff 	lea    -0xa10(%rbp),%rax
    c3fd:	48 89 45 d0          	mov    %rax,-0x30(%rbp)
    c401:	48 8d 85 f0 f5 ff ff 	lea    -0xa10(%rbp),%rax
    c408:	48 89 45 d8          	mov    %rax,-0x28(%rbp)
    c40c:	48 8d 85 f0 f5 ff ff 	lea    -0xa10(%rbp),%rax
    c413:	48 89 45 e0          	mov    %rax,-0x20(%rbp)
    c417:	48 8d 85 f0 f5 ff ff 	lea    -0xa10(%rbp),%rax
    c41e:	48 89 45 e8          	mov    %rax,-0x18(%rbp)
    c422:	66 c7 85 90 f8 ff ff 	movw   $0x0,-0x770(%rbp)
    c429:	00 00 
    c42b:	66 c7 85 92 f8 ff ff 	movw   $0xffff,-0x76e(%rbp)
    c432:	ff ff 
    c434:	66 c7 85 94 f8 ff ff 	movw   $0xa9c8,-0x76c(%rbp)
    c43b:	c8 a9 
    c43d:	66 c7 85 96 f8 ff ff 	movw   $0x931,-0x76a(%rbp)
    c444:	31 09 
    c446:	66 c7 85 98 f8 ff ff 	movw   $0x1501,-0x768(%rbp)
    c44d:	01 15 
    c44f:	66 c7 85 9a f8 ff ff 	movw   $0x870c,-0x766(%rbp)
    c456:	0c 87 
    c458:	66 c7 85 9c f8 ff ff 	movw   $0x8301,-0x764(%rbp)
    c45f:	01 83 
    c461:	66 c7 85 9e f8 ff ff 	movw   $0x160,-0x762(%rbp)
    c468:	60 01 
    c46a:	66 c7 85 a0 f8 ff ff 	movw   $0xffff,-0x760(%rbp)
    c471:	ff ff 
    c473:	66 c7 85 a2 f8 ff ff 	movw   $0x8187,-0x75e(%rbp)
    c47a:	87 81 
    c47c:	66 c7 85 a4 f8 ff ff 	movw   $0x8131,-0x75c(%rbp)
    c483:	31 81 
    c485:	66 c7 85 a6 f8 ff ff 	movw   $0xff87,-0x75a(%rbp)
    c48c:	87 ff 
    c48e:	66 c7 85 a8 f8 ff ff 	movw   $0x1ff,-0x758(%rbp)
    c495:	ff 01 
    c497:	66 c7 85 aa f8 ff ff 	movw   $0x8360,-0x756(%rbp)
    c49e:	60 83 
    c4a0:	66 c7 85 ac f8 ff ff 	movw   $0x8701,-0x754(%rbp)
    c4a7:	01 87 
    c4a9:	66 c7 85 ae f8 ff ff 	movw   $0x150c,-0x752(%rbp)
    c4b0:	0c 15 
    c4b2:	66 c7 85 b0 f8 ff ff 	movw   $0x901,-0x750(%rbp)
    c4b9:	01 09 
    c4bb:	66 c7 85 b2 f8 ff ff 	movw   $0xa931,-0x74e(%rbp)
    c4c2:	31 a9 
    c4c4:	66 c7 85 b4 f8 ff ff 	movw   $0xffc8,-0x74c(%rbp)
    c4cb:	c8 ff 
    c4cd:	66 c7 85 b6 f8 ff ff 	movw   $0xff,-0x74a(%rbp)
    c4d4:	ff 00 
    c4d6:	66 c7 85 b8 f8 ff ff 	movw   $0x8300,-0x748(%rbp)
    c4dd:	00 83 
    c4df:	66 c7 85 ba f8 ff ff 	movw   $0xc809,-0x746(%rbp)
    c4e6:	09 c8 
    c4e8:	66 c7 85 bc f8 ff ff 	movw   $0x98c,-0x744(%rbp)
    c4ef:	8c 09 
    c4f1:	66 c7 85 be f8 ff ff 	movw   $0x100,-0x742(%rbp)
    c4f8:	00 01 
    c4fa:	66 c7 85 c0 f8 ff ff 	movw   $0x731,-0x740(%rbp)
    c501:	31 07 
    c503:	66 c7 85 c2 f8 ff ff 	movw   $0xcff,-0x73e(%rbp)
    c50a:	ff 0c 
    c50c:	66 c7 85 c4 f8 ff ff 	movw   $0xa815,-0x73c(%rbp)
    c513:	15 a8 
    c515:	66 c7 85 c6 f8 ff ff 	movw   $0x8307,-0x73a(%rbp)
    c51c:	07 83 
    c51e:	66 c7 85 c8 f8 ff ff 	movw   $0xff81,-0x738(%rbp)
    c525:	81 ff 
    c527:	66 c7 85 ca f8 ff ff 	movw   $0x5a5a,-0x736(%rbp)
    c52e:	5a 5a 
    c530:	66 c7 85 cc f8 ff ff 	movw   $0x60a8,-0x734(%rbp)
    c537:	a8 60 
    c539:	66 c7 85 ce f8 ff ff 	movw   $0x31,-0x732(%rbp)
    c540:	31 00 
    c542:	66 c7 85 d0 f8 ff ff 	movw   $0x8cfc,-0x730(%rbp)
    c549:	fc 8c 
    c54b:	66 c7 85 d2 f8 ff ff 	movw   $0xfc09,-0x72e(%rbp)
    c552:	09 fc 
    c554:	66 c7 85 d4 f8 ff ff 	movw   $0x83a9,-0x72c(%rbp)
    c55b:	a9 83 
    c55d:	66 c7 85 d6 f8 ff ff 	movw   $0xfca9,-0x72a(%rbp)
    c564:	a9 fc 
    c566:	66 c7 85 d8 f8 ff ff 	movw   $0x8c09,-0x728(%rbp)
    c56d:	09 8c 
    c56f:	66 c7 85 da f8 ff ff 	movw   $0xfc,-0x726(%rbp)
    c576:	fc 00 
    c578:	66 c7 85 dc f8 ff ff 	movw   $0x6031,-0x724(%rbp)
    c57f:	31 60 
    c581:	66 c7 85 de f8 ff ff 	movw   $0x5aa8,-0x722(%rbp)
    c588:	a8 5a 
    c58a:	66 c7 85 e0 f8 ff ff 	movw   $0xff5a,-0x720(%rbp)
    c591:	5a ff 
    c593:	66 c7 85 e2 f8 ff ff 	movw   $0x8381,-0x71e(%rbp)
    c59a:	81 83 
    c59c:	66 c7 85 e4 f8 ff ff 	movw   $0xa807,-0x71c(%rbp)
    c5a3:	07 a8 
    c5a5:	66 c7 85 e6 f8 ff ff 	movw   $0xc15,-0x71a(%rbp)
    c5ac:	15 0c 
    c5ae:	66 c7 85 e8 f8 ff ff 	movw   $0x7ff,-0x718(%rbp)
    c5b5:	ff 07 
    c5b7:	66 c7 85 ea f8 ff ff 	movw   $0x131,-0x716(%rbp)
    c5be:	31 01 
    c5c0:	66 c7 85 ec f8 ff ff 	movw   $0x900,-0x714(%rbp)
    c5c7:	00 09 
    c5c9:	66 c7 85 ee f8 ff ff 	movw   $0xc88c,-0x712(%rbp)
    c5d0:	8c c8 
    c5d2:	66 c7 85 f0 f8 ff ff 	movw   $0x8309,-0x710(%rbp)
    c5d9:	09 83 
    c5db:	66 c7 85 f2 f8 ff ff 	movw   $0x0,-0x70e(%rbp)
    c5e2:	00 00 
    c5e4:	66 c7 85 f4 f8 ff ff 	movw   $0xffff,-0x70c(%rbp)
    c5eb:	ff ff 
    c5ed:	66 c7 85 f6 f8 ff ff 	movw   $0xa9c8,-0x70a(%rbp)
    c5f4:	c8 a9 
    c5f6:	66 c7 85 f8 f8 ff ff 	movw   $0x931,-0x708(%rbp)
    c5fd:	31 09 
    c5ff:	66 c7 85 fa f8 ff ff 	movw   $0x1501,-0x706(%rbp)
    c606:	01 15 
    c608:	66 c7 85 fc f8 ff ff 	movw   $0x870c,-0x704(%rbp)
    c60f:	0c 87 
    c611:	66 c7 85 fe f8 ff ff 	movw   $0x8301,-0x702(%rbp)
    c618:	01 83 
    c61a:	66 c7 85 00 f9 ff ff 	movw   $0x160,-0x700(%rbp)
    c621:	60 01 
    c623:	66 c7 85 02 f9 ff ff 	movw   $0xffff,-0x6fe(%rbp)
    c62a:	ff ff 
    c62c:	66 c7 85 04 f9 ff ff 	movw   $0x8187,-0x6fc(%rbp)
    c633:	87 81 
    c635:	66 c7 85 06 f9 ff ff 	movw   $0x8131,-0x6fa(%rbp)
    c63c:	31 81 
    c63e:	66 c7 85 08 f9 ff ff 	movw   $0xff87,-0x6f8(%rbp)
    c645:	87 ff 
    c647:	66 c7 85 0a f9 ff ff 	movw   $0x1ff,-0x6f6(%rbp)
    c64e:	ff 01 
    c650:	66 c7 85 0c f9 ff ff 	movw   $0x8360,-0x6f4(%rbp)
    c657:	60 83 
    c659:	66 c7 85 0e f9 ff ff 	movw   $0x8701,-0x6f2(%rbp)
    c660:	01 87 
    c662:	66 c7 85 10 f9 ff ff 	movw   $0x150c,-0x6f0(%rbp)
    c669:	0c 15 
    c66b:	66 c7 85 12 f9 ff ff 	movw   $0x901,-0x6ee(%rbp)
    c672:	01 09 
    c674:	66 c7 85 14 f9 ff ff 	movw   $0xa931,-0x6ec(%rbp)
    c67b:	31 a9 
    c67d:	66 c7 85 16 f9 ff ff 	movw   $0xffc8,-0x6ea(%rbp)
    c684:	c8 ff 
    c686:	66 c7 85 18 f9 ff ff 	movw   $0xff,-0x6e8(%rbp)
    c68d:	ff 00 
    c68f:	66 c7 85 1a f9 ff ff 	movw   $0x8300,-0x6e6(%rbp)
    c696:	00 83 
    c698:	66 c7 85 1c f9 ff ff 	movw   $0xc809,-0x6e4(%rbp)
    c69f:	09 c8 
    c6a1:	66 c7 85 1e f9 ff ff 	movw   $0x98c,-0x6e2(%rbp)
    c6a8:	8c 09 
    c6aa:	66 c7 85 20 f9 ff ff 	movw   $0x100,-0x6e0(%rbp)
    c6b1:	00 01 
    c6b3:	66 c7 85 22 f9 ff ff 	movw   $0x31,-0x6de(%rbp)
    c6ba:	31 00 
    c6bc:	66 c7 85 24 f9 ff ff 	movw   $0x6c18,-0x6dc(%rbp)
    c6c3:	18 6c 
    c6c5:	66 c7 85 26 f9 ff ff 	movw   $0x42de,-0x6da(%rbp)
    c6cc:	de 42 
    c6ce:	66 c7 85 28 f9 ff ff 	movw   $0xdd00,-0x6d8(%rbp)
    c6d5:	00 dd 
    c6d7:	66 c7 85 2a f9 ff ff 	movw   $0x18a8,-0x6d6(%rbp)
    c6de:	a8 18 
    c6e0:	66 c7 85 2c f9 ff ff 	movw   $0xeeee,-0x6d4(%rbp)
    c6e7:	ee ee 
    c6e9:	66 c7 85 2e f9 ff ff 	movw   $0x142,-0x6d2(%rbp)
    c6f0:	42 01 
    c6f2:	66 c7 85 30 f9 ff ff 	movw   $0xffff,-0x6d0(%rbp)
    c6f9:	ff ff 
    c6fb:	66 c7 85 32 f9 ff ff 	movw   $0x8,-0x6ce(%rbp)
    c702:	08 00 
    c704:	66 c7 85 34 f9 ff ff 	movw   $0x800,-0x6cc(%rbp)
    c70b:	00 08 
    c70d:	66 c7 85 36 f9 ff ff 	movw   $0xddc8,-0x6ca(%rbp)
    c714:	c8 dd 
    c716:	66 c7 85 38 f9 ff ff 	movw   $0x8c8,-0x6c8(%rbp)
    c71d:	c8 08 
    c71f:	66 c7 85 3a f9 ff ff 	movw   $0x0,-0x6c6(%rbp)
    c726:	00 00 
    c728:	66 c7 85 3c f9 ff ff 	movw   $0xff08,-0x6c4(%rbp)
    c72f:	08 ff 
    c731:	66 c7 85 3e f9 ff ff 	movw   $0x1ff,-0x6c2(%rbp)
    c738:	ff 01 
    c73a:	66 c7 85 40 f9 ff ff 	movw   $0xee42,-0x6c0(%rbp)
    c741:	42 ee 
    c743:	66 c7 85 42 f9 ff ff 	movw   $0x18ee,-0x6be(%rbp)
    c74a:	ee 18 
    c74c:	66 c7 85 44 f9 ff ff 	movw   $0xdda8,-0x6bc(%rbp)
    c753:	a8 dd 
    c755:	66 c7 85 46 f9 ff ff 	movw   $0x4200,-0x6ba(%rbp)
    c75c:	00 42 
    c75e:	66 c7 85 48 f9 ff ff 	movw   $0x6cde,-0x6b8(%rbp)
    c765:	de 6c 
    c767:	66 c7 85 4a f9 ff ff 	movw   $0x18,-0x6b6(%rbp)
    c76e:	18 00 
    c770:	66 c7 85 4c f9 ff ff 	movw   $0xfcff,-0x6b4(%rbp)
    c777:	ff fc 
    c779:	66 c7 85 4e f9 ff ff 	movw   $0x31,-0x6b2(%rbp)
    c780:	31 00 
    c782:	66 c7 85 50 f9 ff ff 	movw   $0x8300,-0x6b0(%rbp)
    c789:	00 83 
    c78b:	66 c7 85 52 f9 ff ff 	movw   $0xdd87,-0x6ae(%rbp)
    c792:	87 dd 
    c794:	66 c7 85 54 f9 ff ff 	movw   $0x31ff,-0x6ac(%rbp)
    c79b:	ff 31 
    c79d:	66 c7 85 56 f9 ff ff 	movw   $0xdc00,-0x6aa(%rbp)
    c7a4:	00 dc 
    c7a6:	48 c7 85 e0 f6 ff ff 	movq   $0xffffffffffffffff,-0x920(%rbp)
    c7ad:	ff ff ff ff 
    c7b1:	48 c7 85 e8 f6 ff ff 	movq   $0xffffffffffffffff,-0x918(%rbp)
    c7b8:	ff ff ff ff 
    c7bc:	48 c7 85 f0 f6 ff ff 	movq   $0xffffffffffffffff,-0x910(%rbp)
    c7c3:	ff ff ff ff 
    c7c7:	48 c7 85 f8 f6 ff ff 	movq   $0xffffffffffffffff,-0x908(%rbp)
    c7ce:	ff ff ff ff 
    c7d2:	48 c7 85 00 f7 ff ff 	movq   $0xffffffffffffffff,-0x900(%rbp)
    c7d9:	ff ff ff ff 
    c7dd:	48 c7 85 08 f7 ff ff 	movq   $0xffffffffffffffff,-0x8f8(%rbp)
    c7e4:	ff ff ff ff 
    c7e8:	48 c7 85 10 f7 ff ff 	movq   $0xffffffffffffffff,-0x8f0(%rbp)
    c7ef:	ff ff ff ff 
    c7f3:	48 c7 85 18 f7 ff ff 	movq   $0xffffffffffffffff,-0x8e8(%rbp)
    c7fa:	ff ff ff ff 
    c7fe:	48 8d 05 2b c0 01 00 	lea    0x1c02b(%rip),%rax        # 28830 <g_3716>
    c805:	48 89 85 40 f6 ff ff 	mov    %rax,-0x9c0(%rbp)
    c80c:	48 8d 05 d5 7b 01 00 	lea    0x17bd5(%rip),%rax        # 243e8 <g_1959>
    c813:	48 89 85 48 f6 ff ff 	mov    %rax,-0x9b8(%rbp)
    c81a:	c7 85 dc f5 ff ff e0 	movl   $0x673a93e0,-0xa24(%rbp)
    c821:	93 3a 67 
    c824:	48 c7 85 b0 f6 ff ff 	movq   $0x0,-0x950(%rbp)
    c82b:	00 00 00 00 
    c82f:	48 c7 85 b8 f6 ff ff 	movq   $0x0,-0x948(%rbp)
    c836:	00 00 00 00 
    c83a:	48 c7 85 c0 f6 ff ff 	movq   $0x0,-0x940(%rbp)
    c841:	00 00 00 00 
    c845:	48 c7 85 c8 f6 ff ff 	movq   $0x0,-0x938(%rbp)
    c84c:	00 00 00 00 
    c850:	48 c7 85 d0 f6 ff ff 	movq   $0x0,-0x930(%rbp)
    c857:	00 00 00 00 
    c85b:	48 c7 85 20 f7 ff ff 	movq   $0xfffffffffffffffc,-0x8e0(%rbp)
    c862:	fc ff ff ff 
    c866:	48 b8 69 b1 da f5 9a 	movabs $0x47d7f79af5dab169,%rax
    c86d:	f7 d7 47 
    c870:	48 89 85 28 f7 ff ff 	mov    %rax,-0x8d8(%rbp)
    c877:	48 c7 85 30 f7 ff ff 	movq   $0xfffffffffffffffc,-0x8d0(%rbp)
    c87e:	fc ff ff ff 
    c882:	48 89 85 38 f7 ff ff 	mov    %rax,-0x8c8(%rbp)
    c889:	48 c7 85 40 f7 ff ff 	movq   $0xfffffffffffffffc,-0x8c0(%rbp)
    c890:	fc ff ff ff 
    c894:	48 89 85 48 f7 ff ff 	mov    %rax,-0x8b8(%rbp)
    c89b:	48 c7 85 50 f7 ff ff 	movq   $0xfffffffffffffffc,-0x8b0(%rbp)
    c8a2:	fc ff ff ff 
    c8a6:	48 89 85 58 f7 ff ff 	mov    %rax,-0x8a8(%rbp)
    c8ad:	48 c7 85 60 f7 ff ff 	movq   $0xfffffffffffffffc,-0x8a0(%rbp)
    c8b4:	fc ff ff ff 
    c8b8:	c7 85 e0 f5 ff ff 08 	movl   $0x8,-0xa20(%rbp)
    c8bf:	00 00 00 
    c8c2:	48 8d 05 9b 79 01 00 	lea    0x1799b(%rip),%rax        # 24264 <g_152+0x14>
    c8c9:	48 89 85 50 f6 ff ff 	mov    %rax,-0x9b0(%rbp)
    c8d0:	48 8d 05 05 7a 01 00 	lea    0x17a05(%rip),%rax        # 242dc <g_539+0x4>
    c8d7:	48 89 85 58 f6 ff ff 	mov    %rax,-0x9a8(%rbp)
    c8de:	c7 85 a8 f5 ff ff 00 	movl   $0x0,-0xa58(%rbp)
    c8e5:	00 00 00 
    c8e8:	e9 8c 03 00 00       	jmpq   cc79 <func_15+0x12c0>
    c8ed:	66 c7 85 70 f7 ff ff 	movw   $0xfff8,-0x890(%rbp)
    c8f4:	f8 ff 
    c8f6:	66 c7 85 72 f7 ff ff 	movw   $0x5af8,-0x88e(%rbp)
    c8fd:	f8 5a 
    c8ff:	66 c7 85 74 f7 ff ff 	movw   $0x6,-0x88c(%rbp)
    c906:	06 00 
    c908:	66 c7 85 76 f7 ff ff 	movw   $0x0,-0x88a(%rbp)
    c90f:	00 00 
    c911:	66 c7 85 78 f7 ff ff 	movw   $0xa1d8,-0x888(%rbp)
    c918:	d8 a1 
    c91a:	66 c7 85 7a f7 ff ff 	movw   $0x6,-0x886(%rbp)
    c921:	06 00 
    c923:	66 c7 85 7c f7 ff ff 	movw   $0xfff8,-0x884(%rbp)
    c92a:	f8 ff 
    c92c:	66 c7 85 7e f7 ff ff 	movw   $0xfff6,-0x882(%rbp)
    c933:	f6 ff 
    c935:	66 c7 85 80 f7 ff ff 	movw   $0x0,-0x880(%rbp)
    c93c:	00 00 
    c93e:	66 c7 85 82 f7 ff ff 	movw   $0xb106,-0x87e(%rbp)
    c945:	06 b1 
    c947:	66 c7 85 84 f7 ff ff 	movw   $0x382a,-0x87c(%rbp)
    c94e:	2a 38 
    c950:	66 c7 85 86 f7 ff ff 	movw   $0xb106,-0x87a(%rbp)
    c957:	06 b1 
    c959:	66 c7 85 88 f7 ff ff 	movw   $0x4fcb,-0x878(%rbp)
    c960:	cb 4f 
    c962:	66 c7 85 8a f7 ff ff 	movw   $0xfff6,-0x876(%rbp)
    c969:	f6 ff 
    c96b:	66 c7 85 8c f7 ff ff 	movw   $0x4fcb,-0x874(%rbp)
    c972:	cb 4f 
    c974:	66 c7 85 8e f7 ff ff 	movw   $0x6,-0x872(%rbp)
    c97b:	06 00 
    c97d:	66 c7 85 90 f7 ff ff 	movw   $0xa1d8,-0x870(%rbp)
    c984:	d8 a1 
    c986:	66 c7 85 92 f7 ff ff 	movw   $0x0,-0x86e(%rbp)
    c98d:	00 00 
    c98f:	66 c7 85 94 f7 ff ff 	movw   $0x1,-0x86c(%rbp)
    c996:	01 00 
    c998:	66 c7 85 96 f7 ff ff 	movw   $0x5af8,-0x86a(%rbp)
    c99f:	f8 5a 
    c9a1:	66 c7 85 98 f7 ff ff 	movw   $0x4fcb,-0x868(%rbp)
    c9a8:	cb 4f 
    c9aa:	66 c7 85 9a f7 ff ff 	movw   $0x1,-0x866(%rbp)
    c9b1:	01 00 
    c9b3:	66 c7 85 9c f7 ff ff 	movw   $0xfff6,-0x864(%rbp)
    c9ba:	f6 ff 
    c9bc:	66 c7 85 9e f7 ff ff 	movw   $0xb106,-0x862(%rbp)
    c9c3:	06 b1 
    c9c5:	66 c7 85 a0 f7 ff ff 	movw   $0xb106,-0x860(%rbp)
    c9cc:	06 b1 
    c9ce:	66 c7 85 a2 f7 ff ff 	movw   $0x98a8,-0x85e(%rbp)
    c9d5:	a8 98 
    c9d7:	66 c7 85 a4 f7 ff ff 	movw   $0x0,-0x85c(%rbp)
    c9de:	00 00 
    c9e0:	66 c7 85 a6 f7 ff ff 	movw   $0x1,-0x85a(%rbp)
    c9e7:	01 00 
    c9e9:	66 c7 85 a8 f7 ff ff 	movw   $0xdce6,-0x858(%rbp)
    c9f0:	e6 dc 
    c9f2:	66 c7 85 aa f7 ff ff 	movw   $0x6,-0x856(%rbp)
    c9f9:	06 00 
    c9fb:	66 c7 85 ac f7 ff ff 	movw   $0x1,-0x854(%rbp)
    ca02:	01 00 
    ca04:	66 c7 85 ae f7 ff ff 	movw   $0xdce6,-0x852(%rbp)
    ca0b:	e6 dc 
    ca0d:	66 c7 85 b0 f7 ff ff 	movw   $0x6,-0x850(%rbp)
    ca14:	06 00 
    ca16:	66 c7 85 b2 f7 ff ff 	movw   $0x6,-0x84e(%rbp)
    ca1d:	06 00 
    ca1f:	66 c7 85 b4 f7 ff ff 	movw   $0xdce6,-0x84c(%rbp)
    ca26:	e6 dc 
    ca28:	66 c7 85 b6 f7 ff ff 	movw   $0x1,-0x84a(%rbp)
    ca2f:	01 00 
    ca31:	66 c7 85 b8 f7 ff ff 	movw   $0x4fcb,-0x848(%rbp)
    ca38:	cb 4f 
    ca3a:	66 c7 85 ba f7 ff ff 	movw   $0x98a8,-0x846(%rbp)
    ca41:	a8 98 
    ca43:	66 c7 85 bc f7 ff ff 	movw   $0xfff8,-0x844(%rbp)
    ca4a:	f8 ff 
    ca4c:	66 c7 85 be f7 ff ff 	movw   $0xb106,-0x842(%rbp)
    ca53:	06 b1 
    ca55:	66 c7 85 c0 f7 ff ff 	movw   $0xfff6,-0x840(%rbp)
    ca5c:	f6 ff 
    ca5e:	66 c7 85 c2 f7 ff ff 	movw   $0x1,-0x83e(%rbp)
    ca65:	01 00 
    ca67:	66 c7 85 c4 f7 ff ff 	movw   $0xfff8,-0x83c(%rbp)
    ca6e:	f8 ff 
    ca70:	66 c7 85 c6 f7 ff ff 	movw   $0x5af8,-0x83a(%rbp)
    ca77:	f8 5a 
    ca79:	66 c7 85 c8 f7 ff ff 	movw   $0x6,-0x838(%rbp)
    ca80:	06 00 
    ca82:	66 c7 85 ca f7 ff ff 	movw   $0x0,-0x836(%rbp)
    ca89:	00 00 
    ca8b:	66 c7 85 cc f7 ff ff 	movw   $0xa1d8,-0x834(%rbp)
    ca92:	d8 a1 
    ca94:	66 c7 85 ce f7 ff ff 	movw   $0x6,-0x832(%rbp)
    ca9b:	06 00 
    ca9d:	66 c7 85 a0 f5 ff ff 	movw   $0x0,-0xa60(%rbp)
    caa4:	00 00 
    caa6:	c7 85 e4 f5 ff ff ce 	movl   $0x96a313ce,-0xa1c(%rbp)
    caad:	13 a3 96 
    cab0:	c7 85 e8 f5 ff ff ac 	movl   $0x85fdbac,-0xa18(%rbp)
    cab7:	db 5f 08 
    caba:	48 8d 85 a4 f5 ff ff 	lea    -0xa5c(%rbp),%rax
    cac1:	48 89 85 f8 f5 ff ff 	mov    %rax,-0xa08(%rbp)
    cac8:	48 8d 85 f8 f5 ff ff 	lea    -0xa08(%rbp),%rax
    cacf:	48 89 85 60 f6 ff ff 	mov    %rax,-0x9a0(%rbp)
    cad6:	c7 85 ec f5 ff ff 42 	movl   $0xd8e8da42,-0xa14(%rbp)
    cadd:	da e8 d8 
    cae0:	c6 85 9d f5 ff ff 01 	movb   $0x1,-0xa63(%rbp)
    cae7:	48 c7 85 68 f6 ff ff 	movq   $0x0,-0x998(%rbp)
    caee:	00 00 00 00 
    caf2:	66 c7 85 a2 f5 ff ff 	movw   $0x5fa4,-0xa5e(%rbp)
    caf9:	a4 5f 
    cafb:	48 8d 05 9e 9b 01 00 	lea    0x19b9e(%rip),%rax        # 266a0 <g_94>
    cb02:	48 89 85 d0 f7 ff ff 	mov    %rax,-0x830(%rbp)
    cb09:	48 8d 05 90 9b 01 00 	lea    0x19b90(%rip),%rax        # 266a0 <g_94>
    cb10:	48 89 85 d8 f7 ff ff 	mov    %rax,-0x828(%rbp)
    cb17:	48 8d 05 82 9b 01 00 	lea    0x19b82(%rip),%rax        # 266a0 <g_94>
    cb1e:	48 89 85 e0 f7 ff ff 	mov    %rax,-0x820(%rbp)
    cb25:	48 8d 05 74 9b 01 00 	lea    0x19b74(%rip),%rax        # 266a0 <g_94>
    cb2c:	48 89 85 e8 f7 ff ff 	mov    %rax,-0x818(%rbp)
    cb33:	48 8d 05 66 9b 01 00 	lea    0x19b66(%rip),%rax        # 266a0 <g_94>
    cb3a:	48 89 85 f0 f7 ff ff 	mov    %rax,-0x810(%rbp)
    cb41:	48 8d 05 58 9b 01 00 	lea    0x19b58(%rip),%rax        # 266a0 <g_94>
    cb48:	48 89 85 f8 f7 ff ff 	mov    %rax,-0x808(%rbp)
    cb4f:	48 8d 05 4a 9b 01 00 	lea    0x19b4a(%rip),%rax        # 266a0 <g_94>
    cb56:	48 89 85 00 f8 ff ff 	mov    %rax,-0x800(%rbp)
    cb5d:	48 8d 05 3c 9b 01 00 	lea    0x19b3c(%rip),%rax        # 266a0 <g_94>
    cb64:	48 89 85 08 f8 ff ff 	mov    %rax,-0x7f8(%rbp)
    cb6b:	48 8d 05 2e 9b 01 00 	lea    0x19b2e(%rip),%rax        # 266a0 <g_94>
    cb72:	48 89 85 10 f8 ff ff 	mov    %rax,-0x7f0(%rbp)
    cb79:	48 8d 05 20 9b 01 00 	lea    0x19b20(%rip),%rax        # 266a0 <g_94>
    cb80:	48 89 85 18 f8 ff ff 	mov    %rax,-0x7e8(%rbp)
    cb87:	48 8d 05 12 9b 01 00 	lea    0x19b12(%rip),%rax        # 266a0 <g_94>
    cb8e:	48 89 85 20 f8 ff ff 	mov    %rax,-0x7e0(%rbp)
    cb95:	48 8d 05 04 9b 01 00 	lea    0x19b04(%rip),%rax        # 266a0 <g_94>
    cb9c:	48 89 85 28 f8 ff ff 	mov    %rax,-0x7d8(%rbp)
    cba3:	48 8d 05 f6 9a 01 00 	lea    0x19af6(%rip),%rax        # 266a0 <g_94>
    cbaa:	48 89 85 30 f8 ff ff 	mov    %rax,-0x7d0(%rbp)
    cbb1:	48 8d 05 e8 9a 01 00 	lea    0x19ae8(%rip),%rax        # 266a0 <g_94>
    cbb8:	48 89 85 38 f8 ff ff 	mov    %rax,-0x7c8(%rbp)
    cbbf:	48 8d 05 da 9a 01 00 	lea    0x19ada(%rip),%rax        # 266a0 <g_94>
    cbc6:	48 89 85 40 f8 ff ff 	mov    %rax,-0x7c0(%rbp)
    cbcd:	48 8d 05 cc 9a 01 00 	lea    0x19acc(%rip),%rax        # 266a0 <g_94>
    cbd4:	48 89 85 48 f8 ff ff 	mov    %rax,-0x7b8(%rbp)
    cbdb:	48 8d 05 be 9a 01 00 	lea    0x19abe(%rip),%rax        # 266a0 <g_94>
    cbe2:	48 89 85 50 f8 ff ff 	mov    %rax,-0x7b0(%rbp)
    cbe9:	48 8d 05 b0 9a 01 00 	lea    0x19ab0(%rip),%rax        # 266a0 <g_94>
    cbf0:	48 89 85 58 f8 ff ff 	mov    %rax,-0x7a8(%rbp)
    cbf7:	48 8d 05 a2 9a 01 00 	lea    0x19aa2(%rip),%rax        # 266a0 <g_94>
    cbfe:	48 89 85 60 f8 ff ff 	mov    %rax,-0x7a0(%rbp)
    cc05:	48 8d 05 94 9a 01 00 	lea    0x19a94(%rip),%rax        # 266a0 <g_94>
    cc0c:	48 89 85 68 f8 ff ff 	mov    %rax,-0x798(%rbp)
    cc13:	48 8d 05 86 9a 01 00 	lea    0x19a86(%rip),%rax        # 266a0 <g_94>
    cc1a:	48 89 85 70 f8 ff ff 	mov    %rax,-0x790(%rbp)
    cc21:	48 8d 05 78 9a 01 00 	lea    0x19a78(%rip),%rax        # 266a0 <g_94>
    cc28:	48 89 85 78 f8 ff ff 	mov    %rax,-0x788(%rbp)
    cc2f:	48 8d 05 6a 9a 01 00 	lea    0x19a6a(%rip),%rax        # 266a0 <g_94>
    cc36:	48 89 85 80 f8 ff ff 	mov    %rax,-0x780(%rbp)
    cc3d:	48 8d 05 5c 9a 01 00 	lea    0x19a5c(%rip),%rax        # 266a0 <g_94>
    cc44:	48 89 85 88 f8 ff ff 	mov    %rax,-0x778(%rbp)
    cc4b:	48 c7 85 70 f6 ff ff 	movq   $0x1,-0x990(%rbp)
    cc52:	01 00 00 00 
    cc56:	c6 85 9e f5 ff ff da 	movb   $0xda,-0xa62(%rbp)
    cc5d:	c6 85 9f f5 ff ff 77 	movb   $0x77,-0xa61(%rbp)
    cc64:	48 8d 05 b5 ad 01 00 	lea    0x1adb5(%rip),%rax        # 27a20 <g_3269>
    cc6b:	48 89 85 78 f6 ff ff 	mov    %rax,-0x988(%rbp)
    cc72:	83 85 a8 f5 ff ff 01 	addl   $0x1,-0xa58(%rbp)
    cc79:	83 bd a8 f5 ff ff 05 	cmpl   $0x5,-0xa58(%rbp)
    cc80:	0f 86 67 fc ff ff    	jbe    c8ed <func_15+0xf34>
    cc86:	48 8b 85 80 f5 ff ff 	mov    -0xa80(%rbp),%rax
    cc8d:	be 08 00 00 00       	mov    $0x8,%esi
    cc92:	89 c7                	mov    %eax,%edi
    cc94:	e8 6c c9 ff ff       	callq  9605 <safe_sub_func_int32_t_s_s>
    cc99:	48 98                	cltq   
    cc9b:	48 89 85 80 f5 ff ff 	mov    %rax,-0xa80(%rbp)
    cca2:	48 83 bd 80 f5 ff ff 	cmpq   $0xffffffffffffffe7,-0xa80(%rbp)
    cca9:	e7 
    ccaa:	0f 8d 7a ee ff ff    	jge    bb2a <func_15+0x171>
    ccb0:	8b 85 c4 f5 ff ff    	mov    -0xa3c(%rbp),%eax
    ccb6:	98                   	cwtl   
    ccb7:	be 0a 00 00 00       	mov    $0xa,%esi
    ccbc:	89 c7                	mov    %eax,%edi
    ccbe:	e8 cf c7 ff ff       	callq  9492 <safe_lshift_func_int16_t_s_s>
    ccc3:	98                   	cwtl   
    ccc4:	be 0a 00 00 00       	mov    $0xa,%esi
    ccc9:	89 c7                	mov    %eax,%edi
    cccb:	e8 5a c8 ff ff       	callq  952a <safe_rshift_func_int16_t_s_s>
    ccd0:	98                   	cwtl   
    ccd1:	be 0e 00 00 00       	mov    $0xe,%esi
    ccd6:	89 c7                	mov    %eax,%edi
    ccd8:	e8 86 c8 ff ff       	callq  9563 <safe_rshift_func_int16_t_s_u>
    ccdd:	48 8b 15 d4 99 01 00 	mov    0x199d4(%rip),%rdx        # 266b8 <g_191>
    cce4:	48 8b 12             	mov    (%rdx),%rdx
    cce7:	48 8b 12             	mov    (%rdx),%rdx
    ccea:	48 8b 12             	mov    (%rdx),%rdx
    cced:	8b 0a                	mov    (%rdx),%ecx
    ccef:	0f bf d0             	movswl %ax,%edx
    ccf2:	48 8b 05 bf 99 01 00 	mov    0x199bf(%rip),%rax        # 266b8 <g_191>
    ccf9:	48 8b 00             	mov    (%rax),%rax
    ccfc:	48 8b 00             	mov    (%rax),%rax
    ccff:	48 8b 00             	mov    (%rax),%rax
    cd02:	31 ca                	xor    %ecx,%edx
    cd04:	89 10                	mov    %edx,(%rax)
    cd06:	48 8b 85 80 f5 ff ff 	mov    -0xa80(%rbp),%rax
    cd0d:	48 8b 4d f8          	mov    -0x8(%rbp),%rcx
    cd11:	64 48 33 0c 25 28 00 	xor    %fs:0x28,%rcx
    cd18:	00 00 
    cd1a:	74 05                	je     cd21 <func_15+0x1368>
    cd1c:	e8 4f c3 ff ff       	callq  9070 <__stack_chk_fail@plt>
    cd21:	c9                   	leaveq 
    cd22:	c3                   	retq   

000000000000cd23 <func_28>:
    cd23:	f3 0f 1e fa          	endbr64 
    cd27:	55                   	push   %rbp
    cd28:	48 89 e5             	mov    %rsp,%rbp
    cd2b:	41 57                	push   %r15
    cd2d:	41 56                	push   %r14
    cd2f:	41 55                	push   %r13
    cd31:	41 54                	push   %r12
    cd33:	53                   	push   %rbx
    cd34:	48 81 ec 00 10 00 00 	sub    $0x1000,%rsp
    cd3b:	48 83 0c 24 00       	orq    $0x0,(%rsp)
    cd40:	48 81 ec a8 04 00 00 	sub    $0x4a8,%rsp
    cd47:	48 89 bd 48 eb ff ff 	mov    %rdi,-0x14b8(%rbp)
    cd4e:	89 b5 44 eb ff ff    	mov    %esi,-0x14bc(%rbp)
    cd54:	48 89 95 38 eb ff ff 	mov    %rdx,-0x14c8(%rbp)
    cd5b:	89 c8                	mov    %ecx,%eax
    cd5d:	88 85 40 eb ff ff    	mov    %al,-0x14c0(%rbp)
    cd63:	64 48 8b 04 25 28 00 	mov    %fs:0x28,%rax
    cd6a:	00 00 
    cd6c:	48 89 45 c8          	mov    %rax,-0x38(%rbp)
    cd70:	31 c0                	xor    %eax,%eax
    cd72:	48 c7 85 a8 eb ff ff 	movq   $0x0,-0x1458(%rbp)
    cd79:	00 00 00 00 
    cd7d:	48 8d 85 a8 eb ff ff 	lea    -0x1458(%rbp),%rax
    cd84:	48 89 85 b0 eb ff ff 	mov    %rax,-0x1450(%rbp)
    cd8b:	48 8d 85 b0 eb ff ff 	lea    -0x1450(%rbp),%rax
    cd92:	48 89 85 b8 eb ff ff 	mov    %rax,-0x1448(%rbp)
    cd99:	48 8d 85 b8 eb ff ff 	lea    -0x1448(%rbp),%rax
    cda0:	48 89 85 20 ec ff ff 	mov    %rax,-0x13e0(%rbp)
    cda7:	48 8d 85 f8 ec ff ff 	lea    -0x1308(%rbp),%rax
    cdae:	48 89 85 28 ec ff ff 	mov    %rax,-0x13d8(%rbp)
    cdb5:	48 8d 05 b4 72 01 00 	lea    0x172b4(%rip),%rax        # 24070 <g_75+0x30>
    cdbc:	48 89 85 c0 eb ff ff 	mov    %rax,-0x1440(%rbp)
    cdc3:	48 c7 85 30 ec ff ff 	movq   $0x0,-0x13d0(%rbp)
    cdca:	00 00 00 00 
    cdce:	c6 85 58 eb ff ff f6 	movb   $0xf6,-0x14a8(%rbp)
    cdd5:	48 8d 85 20 f3 ff ff 	lea    -0xce0(%rbp),%rax
    cddc:	48 8d 15 9d 83 01 00 	lea    0x1839d(%rip),%rdx        # 25180 <g_4540+0x320>
    cde3:	b9 36 00 00 00       	mov    $0x36,%ecx
    cde8:	48 89 c7             	mov    %rax,%rdi
    cdeb:	48 89 d6             	mov    %rdx,%rsi
    cdee:	f3 48 a5             	rep movsq %ds:(%rsi),%es:(%rdi)
    cdf1:	48 8d 85 70 ed ff ff 	lea    -0x1290(%rbp),%rax
    cdf8:	48 83 c0 18          	add    $0x18,%rax
    cdfc:	48 89 85 90 ed ff ff 	mov    %rax,-0x1270(%rbp)
    ce03:	48 8d 85 70 ed ff ff 	lea    -0x1290(%rbp),%rax
    ce0a:	48 83 c0 18          	add    $0x18,%rax
    ce0e:	48 89 85 98 ed ff ff 	mov    %rax,-0x1268(%rbp)
    ce15:	48 8d 85 70 ed ff ff 	lea    -0x1290(%rbp),%rax
    ce1c:	48 83 c0 18          	add    $0x18,%rax
    ce20:	48 89 85 a0 ed ff ff 	mov    %rax,-0x1260(%rbp)
    ce27:	48 8d 85 70 ed ff ff 	lea    -0x1290(%rbp),%rax
    ce2e:	48 83 c0 18          	add    $0x18,%rax
    ce32:	48 89 85 a8 ed ff ff 	mov    %rax,-0x1258(%rbp)
    ce39:	48 8d 85 70 ed ff ff 	lea    -0x1290(%rbp),%rax
    ce40:	48 83 c0 18          	add    $0x18,%rax
    ce44:	48 89 85 b0 ed ff ff 	mov    %rax,-0x1250(%rbp)
    ce4b:	48 8d 85 c0 eb ff ff 	lea    -0x1440(%rbp),%rax
    ce52:	48 89 85 c8 eb ff ff 	mov    %rax,-0x1438(%rbp)
    ce59:	48 8d 85 00 ed ff ff 	lea    -0x1300(%rbp),%rax
    ce60:	48 89 85 80 ee ff ff 	mov    %rax,-0x1180(%rbp)
    ce67:	48 8d 85 00 ed ff ff 	lea    -0x1300(%rbp),%rax
    ce6e:	48 89 85 88 ee ff ff 	mov    %rax,-0x1178(%rbp)
    ce75:	48 8d 85 00 ed ff ff 	lea    -0x1300(%rbp),%rax
    ce7c:	48 89 85 90 ee ff ff 	mov    %rax,-0x1170(%rbp)
    ce83:	48 8d 85 00 ed ff ff 	lea    -0x1300(%rbp),%rax
    ce8a:	48 89 85 98 ee ff ff 	mov    %rax,-0x1168(%rbp)
    ce91:	48 8d 85 00 ed ff ff 	lea    -0x1300(%rbp),%rax
    ce98:	48 89 85 a0 ee ff ff 	mov    %rax,-0x1160(%rbp)
    ce9f:	48 8d 85 00 ed ff ff 	lea    -0x1300(%rbp),%rax
    cea6:	48 89 85 a8 ee ff ff 	mov    %rax,-0x1158(%rbp)
    cead:	48 8d 85 00 ed ff ff 	lea    -0x1300(%rbp),%rax
    ceb4:	48 89 85 b0 ee ff ff 	mov    %rax,-0x1150(%rbp)
    cebb:	48 8d 85 00 ed ff ff 	lea    -0x1300(%rbp),%rax
    cec2:	48 89 85 b8 ee ff ff 	mov    %rax,-0x1148(%rbp)
    cec9:	48 8d 85 00 ed ff ff 	lea    -0x1300(%rbp),%rax
    ced0:	48 89 85 c0 ee ff ff 	mov    %rax,-0x1140(%rbp)
    ced7:	48 8d 85 00 ed ff ff 	lea    -0x1300(%rbp),%rax
    cede:	48 89 85 c8 ee ff ff 	mov    %rax,-0x1138(%rbp)
    cee5:	c7 85 68 eb ff ff fb 	movl   $0xfffffffb,-0x1498(%rbp)
    ceec:	ff ff ff 
    ceef:	48 8d 05 8a a4 01 00 	lea    0x1a48a(%rip),%rax        # 27380 <g_2051>
    cef6:	48 89 85 d0 eb ff ff 	mov    %rax,-0x1430(%rbp)
    cefd:	48 8d 85 d0 eb ff ff 	lea    -0x1430(%rbp),%rax
    cf04:	48 89 85 38 ec ff ff 	mov    %rax,-0x13c8(%rbp)
    cf0b:	c7 85 5c eb ff ff 00 	movl   $0x0,-0x14a4(%rbp)
    cf12:	00 00 00 
    cf15:	eb 1b                	jmp    cf32 <func_28+0x20f>
    cf17:	8b 85 5c eb ff ff    	mov    -0x14a4(%rbp),%eax
    cf1d:	48 98                	cltq   
    cf1f:	48 c7 84 c5 f8 ec ff 	movq   $0x0,-0x1308(%rbp,%rax,8)
    cf26:	ff 00 00 00 00 
    cf2b:	83 85 5c eb ff ff 01 	addl   $0x1,-0x14a4(%rbp)
    cf32:	83 bd 5c eb ff ff 00 	cmpl   $0x0,-0x14a4(%rbp)
    cf39:	7e dc                	jle    cf17 <func_28+0x1f4>
    cf3b:	c7 85 5c eb ff ff 00 	movl   $0x0,-0x14a4(%rbp)
    cf42:	00 00 00 
    cf45:	eb 22                	jmp    cf69 <func_28+0x246>
    cf47:	8b 85 5c eb ff ff    	mov    -0x14a4(%rbp),%eax
    cf4d:	48 98                	cltq   
    cf4f:	48 8d 95 20 f3 ff ff 	lea    -0xce0(%rbp),%rdx
    cf56:	48 83 c2 10          	add    $0x10,%rdx
    cf5a:	48 89 94 c5 70 ed ff 	mov    %rdx,-0x1290(%rbp,%rax,8)
    cf61:	ff 
    cf62:	83 85 5c eb ff ff 01 	addl   $0x1,-0x14a4(%rbp)
    cf69:	83 bd 5c eb ff ff 03 	cmpl   $0x3,-0x14a4(%rbp)
    cf70:	7e d5                	jle    cf47 <func_28+0x224>
    cf72:	c7 85 5c eb ff ff 00 	movl   $0x0,-0x14a4(%rbp)
    cf79:	00 00 00 
    cf7c:	eb 1e                	jmp    cf9c <func_28+0x279>
    cf7e:	8b 85 5c eb ff ff    	mov    -0x14a4(%rbp),%eax
    cf84:	48 98                	cltq   
    cf86:	48 8d 95 c8 eb ff ff 	lea    -0x1438(%rbp),%rdx
    cf8d:	48 89 94 c5 30 ed ff 	mov    %rdx,-0x12d0(%rbp,%rax,8)
    cf94:	ff 
    cf95:	83 85 5c eb ff ff 01 	addl   $0x1,-0x14a4(%rbp)
    cf9c:	83 bd 5c eb ff ff 02 	cmpl   $0x2,-0x14a4(%rbp)
    cfa3:	7e d9                	jle    cf7e <func_28+0x25b>
    cfa5:	c7 85 5c eb ff ff 00 	movl   $0x0,-0x14a4(%rbp)
    cfac:	00 00 00 
    cfaf:	eb 22                	jmp    cfd3 <func_28+0x2b0>
    cfb1:	8b 85 5c eb ff ff    	mov    -0x14a4(%rbp),%eax
    cfb7:	48 98                	cltq   
    cfb9:	48 8d 95 30 ed ff ff 	lea    -0x12d0(%rbp),%rdx
    cfc0:	48 83 c2 08          	add    $0x8,%rdx
    cfc4:	48 89 94 c5 00 ed ff 	mov    %rdx,-0x1300(%rbp,%rax,8)
    cfcb:	ff 
    cfcc:	83 85 5c eb ff ff 01 	addl   $0x1,-0x14a4(%rbp)
    cfd3:	83 bd 5c eb ff ff 01 	cmpl   $0x1,-0x14a4(%rbp)
    cfda:	7e d5                	jle    cfb1 <func_28+0x28e>
    cfdc:	48 8b 05 bd 96 01 00 	mov    0x196bd(%rip),%rax        # 266a0 <g_94>
    cfe3:	c7 00 00 00 00 00    	movl   $0x0,(%rax)
    cfe9:	48 8b 85 28 ec ff ff 	mov    -0x13d8(%rbp),%rax
    cff0:	48 8b 95 20 ec ff ff 	mov    -0x13e0(%rbp),%rdx
    cff7:	48 89 10             	mov    %rdx,(%rax)
    cffa:	48 c7 05 63 71 01 00 	movq   $0x0,0x17163(%rip)        # 24168 <g_126>
    d001:	00 00 00 00 
    d005:	e9 af 22 00 00       	jmpq   f2b9 <func_28+0x2596>
    d00a:	48 8d 05 8f 97 01 00 	lea    0x1978f(%rip),%rax        # 267a0 <g_1328>
    d011:	48 89 85 d0 ee ff ff 	mov    %rax,-0x1130(%rbp)
    d018:	48 8d 05 81 97 01 00 	lea    0x19781(%rip),%rax        # 267a0 <g_1328>
    d01f:	48 89 85 d8 ee ff ff 	mov    %rax,-0x1128(%rbp)
    d026:	48 8d 05 73 97 01 00 	lea    0x19773(%rip),%rax        # 267a0 <g_1328>
    d02d:	48 89 85 e0 ee ff ff 	mov    %rax,-0x1120(%rbp)
    d034:	48 8d 05 65 97 01 00 	lea    0x19765(%rip),%rax        # 267a0 <g_1328>
    d03b:	48 89 85 e8 ee ff ff 	mov    %rax,-0x1118(%rbp)
    d042:	48 8d 05 57 97 01 00 	lea    0x19757(%rip),%rax        # 267a0 <g_1328>
    d049:	48 89 85 f0 ee ff ff 	mov    %rax,-0x1110(%rbp)
    d050:	48 8d 05 49 97 01 00 	lea    0x19749(%rip),%rax        # 267a0 <g_1328>
    d057:	48 89 85 f8 ee ff ff 	mov    %rax,-0x1108(%rbp)
    d05e:	48 c7 85 00 ef ff ff 	movq   $0x0,-0x1100(%rbp)
    d065:	00 00 00 00 
    d069:	48 8d 05 30 97 01 00 	lea    0x19730(%rip),%rax        # 267a0 <g_1328>
    d070:	48 89 85 08 ef ff ff 	mov    %rax,-0x10f8(%rbp)
    d077:	48 8d 05 22 97 01 00 	lea    0x19722(%rip),%rax        # 267a0 <g_1328>
    d07e:	48 89 85 10 ef ff ff 	mov    %rax,-0x10f0(%rbp)
    d085:	48 8d 05 14 97 01 00 	lea    0x19714(%rip),%rax        # 267a0 <g_1328>
    d08c:	48 89 85 18 ef ff ff 	mov    %rax,-0x10e8(%rbp)
    d093:	48 8d 05 06 97 01 00 	lea    0x19706(%rip),%rax        # 267a0 <g_1328>
    d09a:	48 89 85 20 ef ff ff 	mov    %rax,-0x10e0(%rbp)
    d0a1:	48 8d 05 f8 96 01 00 	lea    0x196f8(%rip),%rax        # 267a0 <g_1328>
    d0a8:	48 89 85 28 ef ff ff 	mov    %rax,-0x10d8(%rbp)
    d0af:	48 8d 05 ea 96 01 00 	lea    0x196ea(%rip),%rax        # 267a0 <g_1328>
    d0b6:	48 89 85 30 ef ff ff 	mov    %rax,-0x10d0(%rbp)
    d0bd:	48 8d 05 dc 96 01 00 	lea    0x196dc(%rip),%rax        # 267a0 <g_1328>
    d0c4:	48 89 85 38 ef ff ff 	mov    %rax,-0x10c8(%rbp)
    d0cb:	48 8d 05 ce 96 01 00 	lea    0x196ce(%rip),%rax        # 267a0 <g_1328>
    d0d2:	48 89 85 40 ef ff ff 	mov    %rax,-0x10c0(%rbp)
    d0d9:	48 8d 05 c0 96 01 00 	lea    0x196c0(%rip),%rax        # 267a0 <g_1328>
    d0e0:	48 89 85 48 ef ff ff 	mov    %rax,-0x10b8(%rbp)
    d0e7:	48 8d 05 b2 96 01 00 	lea    0x196b2(%rip),%rax        # 267a0 <g_1328>
    d0ee:	48 89 85 50 ef ff ff 	mov    %rax,-0x10b0(%rbp)
    d0f5:	48 8d 05 a4 96 01 00 	lea    0x196a4(%rip),%rax        # 267a0 <g_1328>
    d0fc:	48 89 85 58 ef ff ff 	mov    %rax,-0x10a8(%rbp)
    d103:	48 c7 85 60 ef ff ff 	movq   $0x0,-0x10a0(%rbp)
    d10a:	00 00 00 00 
    d10e:	48 8d 05 8b 96 01 00 	lea    0x1968b(%rip),%rax        # 267a0 <g_1328>
    d115:	48 89 85 68 ef ff ff 	mov    %rax,-0x1098(%rbp)
    d11c:	48 8d 05 7d 96 01 00 	lea    0x1967d(%rip),%rax        # 267a0 <g_1328>
    d123:	48 89 85 70 ef ff ff 	mov    %rax,-0x1090(%rbp)
    d12a:	48 8d 05 6f 96 01 00 	lea    0x1966f(%rip),%rax        # 267a0 <g_1328>
    d131:	48 89 85 78 ef ff ff 	mov    %rax,-0x1088(%rbp)
    d138:	48 8d 05 61 96 01 00 	lea    0x19661(%rip),%rax        # 267a0 <g_1328>
    d13f:	48 89 85 80 ef ff ff 	mov    %rax,-0x1080(%rbp)
    d146:	48 8d 05 53 96 01 00 	lea    0x19653(%rip),%rax        # 267a0 <g_1328>
    d14d:	48 89 85 88 ef ff ff 	mov    %rax,-0x1078(%rbp)
    d154:	48 8d 85 d0 ee ff ff 	lea    -0x1130(%rbp),%rax
    d15b:	48 05 88 00 00 00    	add    $0x88,%rax
    d161:	48 89 85 40 ec ff ff 	mov    %rax,-0x13c0(%rbp)
    d168:	c7 85 c0 ed ff ff c4 	movl   $0xbc62b2c4,-0x1240(%rbp)
    d16f:	b2 62 bc 
    d172:	c7 85 c4 ed ff ff c4 	movl   $0xbc62b2c4,-0x123c(%rbp)
    d179:	b2 62 bc 
    d17c:	c7 85 c8 ed ff ff c4 	movl   $0xbc62b2c4,-0x1238(%rbp)
    d183:	b2 62 bc 
    d186:	c7 85 cc ed ff ff c4 	movl   $0xbc62b2c4,-0x1234(%rbp)
    d18d:	b2 62 bc 
    d190:	c7 85 d0 ed ff ff c4 	movl   $0xbc62b2c4,-0x1230(%rbp)
    d197:	b2 62 bc 
    d19a:	c7 85 d4 ed ff ff c4 	movl   $0xbc62b2c4,-0x122c(%rbp)
    d1a1:	b2 62 bc 
    d1a4:	c7 85 d8 ed ff ff c4 	movl   $0xbc62b2c4,-0x1228(%rbp)
    d1ab:	b2 62 bc 
    d1ae:	c7 85 dc ed ff ff c4 	movl   $0xbc62b2c4,-0x1224(%rbp)
    d1b5:	b2 62 bc 
    d1b8:	c7 85 e0 ed ff ff c4 	movl   $0xbc62b2c4,-0x1220(%rbp)
    d1bf:	b2 62 bc 
    d1c2:	c7 85 e4 ed ff ff c4 	movl   $0xbc62b2c4,-0x121c(%rbp)
    d1c9:	b2 62 bc 
    d1cc:	48 8d 05 bd b5 01 00 	lea    0x1b5bd(%rip),%rax        # 28790 <g_399>
    d1d3:	48 89 85 48 ec ff ff 	mov    %rax,-0x13b8(%rbp)
    d1da:	48 8d 85 b0 eb ff ff 	lea    -0x1450(%rbp),%rax
    d1e1:	48 89 85 30 f8 ff ff 	mov    %rax,-0x7d0(%rbp)
    d1e8:	48 8d 85 b0 eb ff ff 	lea    -0x1450(%rbp),%rax
    d1ef:	48 89 85 38 f8 ff ff 	mov    %rax,-0x7c8(%rbp)
    d1f6:	48 8d 85 b0 eb ff ff 	lea    -0x1450(%rbp),%rax
    d1fd:	48 89 85 40 f8 ff ff 	mov    %rax,-0x7c0(%rbp)
    d204:	48 c7 85 48 f8 ff ff 	movq   $0x0,-0x7b8(%rbp)
    d20b:	00 00 00 00 
    d20f:	48 8d 85 b0 eb ff ff 	lea    -0x1450(%rbp),%rax
    d216:	48 89 85 50 f8 ff ff 	mov    %rax,-0x7b0(%rbp)
    d21d:	48 c7 85 58 f8 ff ff 	movq   $0x0,-0x7a8(%rbp)
    d224:	00 00 00 00 
    d228:	48 8d 85 b0 eb ff ff 	lea    -0x1450(%rbp),%rax
    d22f:	48 89 85 60 f8 ff ff 	mov    %rax,-0x7a0(%rbp)
    d236:	48 8d 85 b0 eb ff ff 	lea    -0x1450(%rbp),%rax
    d23d:	48 89 85 68 f8 ff ff 	mov    %rax,-0x798(%rbp)
    d244:	48 8d 85 b0 eb ff ff 	lea    -0x1450(%rbp),%rax
    d24b:	48 89 85 70 f8 ff ff 	mov    %rax,-0x790(%rbp)
    d252:	48 8d 85 b0 eb ff ff 	lea    -0x1450(%rbp),%rax
    d259:	48 89 85 78 f8 ff ff 	mov    %rax,-0x788(%rbp)
    d260:	48 8d 85 b0 eb ff ff 	lea    -0x1450(%rbp),%rax
    d267:	48 89 85 80 f8 ff ff 	mov    %rax,-0x780(%rbp)
    d26e:	48 c7 85 88 f8 ff ff 	movq   $0x0,-0x778(%rbp)
    d275:	00 00 00 00 
    d279:	48 c7 85 90 f8 ff ff 	movq   $0x0,-0x770(%rbp)
    d280:	00 00 00 00 
    d284:	48 8d 85 b0 eb ff ff 	lea    -0x1450(%rbp),%rax
    d28b:	48 89 85 98 f8 ff ff 	mov    %rax,-0x768(%rbp)
    d292:	48 8d 85 b0 eb ff ff 	lea    -0x1450(%rbp),%rax
    d299:	48 89 85 a0 f8 ff ff 	mov    %rax,-0x760(%rbp)
    d2a0:	48 8d 85 b0 eb ff ff 	lea    -0x1450(%rbp),%rax
    d2a7:	48 89 85 a8 f8 ff ff 	mov    %rax,-0x758(%rbp)
    d2ae:	48 8d 85 b0 eb ff ff 	lea    -0x1450(%rbp),%rax
    d2b5:	48 89 85 b0 f8 ff ff 	mov    %rax,-0x750(%rbp)
    d2bc:	48 c7 85 b8 f8 ff ff 	movq   $0x0,-0x748(%rbp)
    d2c3:	00 00 00 00 
    d2c7:	48 8d 85 b0 eb ff ff 	lea    -0x1450(%rbp),%rax
    d2ce:	48 89 85 c0 f8 ff ff 	mov    %rax,-0x740(%rbp)
    d2d5:	48 8d 85 b0 eb ff ff 	lea    -0x1450(%rbp),%rax
    d2dc:	48 89 85 c8 f8 ff ff 	mov    %rax,-0x738(%rbp)
    d2e3:	48 8d 85 b0 eb ff ff 	lea    -0x1450(%rbp),%rax
    d2ea:	48 89 85 d0 f8 ff ff 	mov    %rax,-0x730(%rbp)
    d2f1:	48 8d 85 b0 eb ff ff 	lea    -0x1450(%rbp),%rax
    d2f8:	48 89 85 d8 f8 ff ff 	mov    %rax,-0x728(%rbp)
    d2ff:	48 8d 85 b0 eb ff ff 	lea    -0x1450(%rbp),%rax
    d306:	48 89 85 e0 f8 ff ff 	mov    %rax,-0x720(%rbp)
    d30d:	48 c7 85 e8 f8 ff ff 	movq   $0x0,-0x718(%rbp)
    d314:	00 00 00 00 
    d318:	48 c7 85 f0 f8 ff ff 	movq   $0x0,-0x710(%rbp)
    d31f:	00 00 00 00 
    d323:	48 8d 85 b0 eb ff ff 	lea    -0x1450(%rbp),%rax
    d32a:	48 89 85 f8 f8 ff ff 	mov    %rax,-0x708(%rbp)
    d331:	48 8d 85 b0 eb ff ff 	lea    -0x1450(%rbp),%rax
    d338:	48 89 85 00 f9 ff ff 	mov    %rax,-0x700(%rbp)
    d33f:	48 c7 85 08 f9 ff ff 	movq   $0x0,-0x6f8(%rbp)
    d346:	00 00 00 00 
    d34a:	48 8d 85 b0 eb ff ff 	lea    -0x1450(%rbp),%rax
    d351:	48 89 85 10 f9 ff ff 	mov    %rax,-0x6f0(%rbp)
    d358:	48 8d 85 b0 eb ff ff 	lea    -0x1450(%rbp),%rax
    d35f:	48 89 85 18 f9 ff ff 	mov    %rax,-0x6e8(%rbp)
    d366:	48 8d 85 b0 eb ff ff 	lea    -0x1450(%rbp),%rax
    d36d:	48 89 85 20 f9 ff ff 	mov    %rax,-0x6e0(%rbp)
    d374:	48 c7 85 28 f9 ff ff 	movq   $0x0,-0x6d8(%rbp)
    d37b:	00 00 00 00 
    d37f:	48 8d 85 b0 eb ff ff 	lea    -0x1450(%rbp),%rax
    d386:	48 89 85 30 f9 ff ff 	mov    %rax,-0x6d0(%rbp)
    d38d:	48 8d 85 b0 eb ff ff 	lea    -0x1450(%rbp),%rax
    d394:	48 89 85 38 f9 ff ff 	mov    %rax,-0x6c8(%rbp)
    d39b:	48 c7 85 40 f9 ff ff 	movq   $0x0,-0x6c0(%rbp)
    d3a2:	00 00 00 00 
    d3a6:	48 c7 85 48 f9 ff ff 	movq   $0x0,-0x6b8(%rbp)
    d3ad:	00 00 00 00 
    d3b1:	48 8d 85 b0 eb ff ff 	lea    -0x1450(%rbp),%rax
    d3b8:	48 89 85 50 f9 ff ff 	mov    %rax,-0x6b0(%rbp)
    d3bf:	48 8d 85 b0 eb ff ff 	lea    -0x1450(%rbp),%rax
    d3c6:	48 89 85 58 f9 ff ff 	mov    %rax,-0x6a8(%rbp)
    d3cd:	48 8d 85 b0 eb ff ff 	lea    -0x1450(%rbp),%rax
    d3d4:	48 89 85 60 f9 ff ff 	mov    %rax,-0x6a0(%rbp)
    d3db:	48 8d 85 b0 eb ff ff 	lea    -0x1450(%rbp),%rax
    d3e2:	48 89 85 68 f9 ff ff 	mov    %rax,-0x698(%rbp)
    d3e9:	48 8d 85 b0 eb ff ff 	lea    -0x1450(%rbp),%rax
    d3f0:	48 89 85 70 f9 ff ff 	mov    %rax,-0x690(%rbp)
    d3f7:	48 c7 85 78 f9 ff ff 	movq   $0x0,-0x688(%rbp)
    d3fe:	00 00 00 00 
    d402:	48 8d 85 b0 eb ff ff 	lea    -0x1450(%rbp),%rax
    d409:	48 89 85 80 f9 ff ff 	mov    %rax,-0x680(%rbp)
    d410:	48 8d 85 b0 eb ff ff 	lea    -0x1450(%rbp),%rax
    d417:	48 89 85 88 f9 ff ff 	mov    %rax,-0x678(%rbp)
    d41e:	48 8d 85 b0 eb ff ff 	lea    -0x1450(%rbp),%rax
    d425:	48 89 85 90 f9 ff ff 	mov    %rax,-0x670(%rbp)
    d42c:	48 8d 85 b0 eb ff ff 	lea    -0x1450(%rbp),%rax
    d433:	48 89 85 98 f9 ff ff 	mov    %rax,-0x668(%rbp)
    d43a:	48 8d 85 b0 eb ff ff 	lea    -0x1450(%rbp),%rax
    d441:	48 89 85 a0 f9 ff ff 	mov    %rax,-0x660(%rbp)
    d448:	48 c7 85 a8 f9 ff ff 	movq   $0x0,-0x658(%rbp)
    d44f:	00 00 00 00 
    d453:	48 8d 85 b0 eb ff ff 	lea    -0x1450(%rbp),%rax
    d45a:	48 89 85 b0 f9 ff ff 	mov    %rax,-0x650(%rbp)
    d461:	48 c7 85 b8 f9 ff ff 	movq   $0x0,-0x648(%rbp)
    d468:	00 00 00 00 
    d46c:	48 8d 85 b0 eb ff ff 	lea    -0x1450(%rbp),%rax
    d473:	48 89 85 c0 f9 ff ff 	mov    %rax,-0x640(%rbp)
    d47a:	48 8d 85 b0 eb ff ff 	lea    -0x1450(%rbp),%rax
    d481:	48 89 85 c8 f9 ff ff 	mov    %rax,-0x638(%rbp)
    d488:	48 8d 85 b0 eb ff ff 	lea    -0x1450(%rbp),%rax
    d48f:	48 89 85 d0 f9 ff ff 	mov    %rax,-0x630(%rbp)
    d496:	48 c7 85 d8 f9 ff ff 	movq   $0x0,-0x628(%rbp)
    d49d:	00 00 00 00 
    d4a1:	48 8d 85 b0 eb ff ff 	lea    -0x1450(%rbp),%rax
    d4a8:	48 89 85 e0 f9 ff ff 	mov    %rax,-0x620(%rbp)
    d4af:	48 c7 85 e8 f9 ff ff 	movq   $0x0,-0x618(%rbp)
    d4b6:	00 00 00 00 
    d4ba:	48 8d 85 b0 eb ff ff 	lea    -0x1450(%rbp),%rax
    d4c1:	48 89 85 f0 f9 ff ff 	mov    %rax,-0x610(%rbp)
    d4c8:	48 8d 85 b0 eb ff ff 	lea    -0x1450(%rbp),%rax
    d4cf:	48 89 85 f8 f9 ff ff 	mov    %rax,-0x608(%rbp)
    d4d6:	48 8d 85 b0 eb ff ff 	lea    -0x1450(%rbp),%rax
    d4dd:	48 89 85 00 fa ff ff 	mov    %rax,-0x600(%rbp)
    d4e4:	48 8d 85 b0 eb ff ff 	lea    -0x1450(%rbp),%rax
    d4eb:	48 89 85 08 fa ff ff 	mov    %rax,-0x5f8(%rbp)
    d4f2:	48 c7 85 10 fa ff ff 	movq   $0x0,-0x5f0(%rbp)
    d4f9:	00 00 00 00 
    d4fd:	48 8d 85 b0 eb ff ff 	lea    -0x1450(%rbp),%rax
    d504:	48 89 85 18 fa ff ff 	mov    %rax,-0x5e8(%rbp)
    d50b:	48 8d 85 b0 eb ff ff 	lea    -0x1450(%rbp),%rax
    d512:	48 89 85 20 fa ff ff 	mov    %rax,-0x5e0(%rbp)
    d519:	48 8d 85 b0 eb ff ff 	lea    -0x1450(%rbp),%rax
    d520:	48 89 85 28 fa ff ff 	mov    %rax,-0x5d8(%rbp)
    d527:	48 8d 85 b0 eb ff ff 	lea    -0x1450(%rbp),%rax
    d52e:	48 89 85 30 fa ff ff 	mov    %rax,-0x5d0(%rbp)
    d535:	48 c7 85 38 fa ff ff 	movq   $0x0,-0x5c8(%rbp)
    d53c:	00 00 00 00 
    d540:	48 c7 85 40 fa ff ff 	movq   $0x0,-0x5c0(%rbp)
    d547:	00 00 00 00 
    d54b:	48 c7 85 48 fa ff ff 	movq   $0x0,-0x5b8(%rbp)
    d552:	00 00 00 00 
    d556:	48 8d 85 b0 eb ff ff 	lea    -0x1450(%rbp),%rax
    d55d:	48 89 85 50 fa ff ff 	mov    %rax,-0x5b0(%rbp)
    d564:	48 8d 85 b0 eb ff ff 	lea    -0x1450(%rbp),%rax
    d56b:	48 89 85 58 fa ff ff 	mov    %rax,-0x5a8(%rbp)
    d572:	48 8d 85 b0 eb ff ff 	lea    -0x1450(%rbp),%rax
    d579:	48 89 85 60 fa ff ff 	mov    %rax,-0x5a0(%rbp)
    d580:	48 c7 85 68 fa ff ff 	movq   $0x0,-0x598(%rbp)
    d587:	00 00 00 00 
    d58b:	48 8d 85 b0 eb ff ff 	lea    -0x1450(%rbp),%rax
    d592:	48 89 85 70 fa ff ff 	mov    %rax,-0x590(%rbp)
    d599:	48 c7 85 78 fa ff ff 	movq   $0x0,-0x588(%rbp)
    d5a0:	00 00 00 00 
    d5a4:	48 8d 85 b0 eb ff ff 	lea    -0x1450(%rbp),%rax
    d5ab:	48 89 85 80 fa ff ff 	mov    %rax,-0x580(%rbp)
    d5b2:	48 c7 85 88 fa ff ff 	movq   $0x0,-0x578(%rbp)
    d5b9:	00 00 00 00 
    d5bd:	48 8d 85 b0 eb ff ff 	lea    -0x1450(%rbp),%rax
    d5c4:	48 89 85 90 fa ff ff 	mov    %rax,-0x570(%rbp)
    d5cb:	48 c7 85 98 fa ff ff 	movq   $0x0,-0x568(%rbp)
    d5d2:	00 00 00 00 
    d5d6:	48 c7 85 a0 fa ff ff 	movq   $0x0,-0x560(%rbp)
    d5dd:	00 00 00 00 
    d5e1:	48 8d 85 b0 eb ff ff 	lea    -0x1450(%rbp),%rax
    d5e8:	48 89 85 a8 fa ff ff 	mov    %rax,-0x558(%rbp)
    d5ef:	48 8d 85 b0 eb ff ff 	lea    -0x1450(%rbp),%rax
    d5f6:	48 89 85 b0 fa ff ff 	mov    %rax,-0x550(%rbp)
    d5fd:	48 c7 85 b8 fa ff ff 	movq   $0x0,-0x548(%rbp)
    d604:	00 00 00 00 
    d608:	48 8d 85 b0 eb ff ff 	lea    -0x1450(%rbp),%rax
    d60f:	48 89 85 c0 fa ff ff 	mov    %rax,-0x540(%rbp)
    d616:	48 c7 85 c8 fa ff ff 	movq   $0x0,-0x538(%rbp)
    d61d:	00 00 00 00 
    d621:	48 8d 85 b0 eb ff ff 	lea    -0x1450(%rbp),%rax
    d628:	48 89 85 d0 fa ff ff 	mov    %rax,-0x530(%rbp)
    d62f:	48 8d 85 b0 eb ff ff 	lea    -0x1450(%rbp),%rax
    d636:	48 89 85 d8 fa ff ff 	mov    %rax,-0x528(%rbp)
    d63d:	48 8d 85 b0 eb ff ff 	lea    -0x1450(%rbp),%rax
    d644:	48 89 85 e0 fa ff ff 	mov    %rax,-0x520(%rbp)
    d64b:	48 8d 85 b0 eb ff ff 	lea    -0x1450(%rbp),%rax
    d652:	48 89 85 e8 fa ff ff 	mov    %rax,-0x518(%rbp)
    d659:	48 8d 85 b0 eb ff ff 	lea    -0x1450(%rbp),%rax
    d660:	48 89 85 f0 fa ff ff 	mov    %rax,-0x510(%rbp)
    d667:	48 8d 85 b0 eb ff ff 	lea    -0x1450(%rbp),%rax
    d66e:	48 89 85 f8 fa ff ff 	mov    %rax,-0x508(%rbp)
    d675:	48 8d 85 b0 eb ff ff 	lea    -0x1450(%rbp),%rax
    d67c:	48 89 85 00 fb ff ff 	mov    %rax,-0x500(%rbp)
    d683:	48 8d 85 b0 eb ff ff 	lea    -0x1450(%rbp),%rax
    d68a:	48 89 85 08 fb ff ff 	mov    %rax,-0x4f8(%rbp)
    d691:	48 8d 85 b0 eb ff ff 	lea    -0x1450(%rbp),%rax
    d698:	48 89 85 10 fb ff ff 	mov    %rax,-0x4f0(%rbp)
    d69f:	48 c7 85 18 fb ff ff 	movq   $0x0,-0x4e8(%rbp)
    d6a6:	00 00 00 00 
    d6aa:	48 8d 85 b0 eb ff ff 	lea    -0x1450(%rbp),%rax
    d6b1:	48 89 85 20 fb ff ff 	mov    %rax,-0x4e0(%rbp)
    d6b8:	48 c7 85 28 fb ff ff 	movq   $0x0,-0x4d8(%rbp)
    d6bf:	00 00 00 00 
    d6c3:	48 8d 85 b0 eb ff ff 	lea    -0x1450(%rbp),%rax
    d6ca:	48 89 85 30 fb ff ff 	mov    %rax,-0x4d0(%rbp)
    d6d1:	48 8d 85 b0 eb ff ff 	lea    -0x1450(%rbp),%rax
    d6d8:	48 89 85 38 fb ff ff 	mov    %rax,-0x4c8(%rbp)
    d6df:	48 8d 85 b0 eb ff ff 	lea    -0x1450(%rbp),%rax
    d6e6:	48 89 85 40 fb ff ff 	mov    %rax,-0x4c0(%rbp)
    d6ed:	48 8d 85 b0 eb ff ff 	lea    -0x1450(%rbp),%rax
    d6f4:	48 89 85 48 fb ff ff 	mov    %rax,-0x4b8(%rbp)
    d6fb:	48 8d 85 b0 eb ff ff 	lea    -0x1450(%rbp),%rax
    d702:	48 89 85 50 fb ff ff 	mov    %rax,-0x4b0(%rbp)
    d709:	48 c7 85 58 fb ff ff 	movq   $0x0,-0x4a8(%rbp)
    d710:	00 00 00 00 
    d714:	48 c7 85 60 fb ff ff 	movq   $0x0,-0x4a0(%rbp)
    d71b:	00 00 00 00 
    d71f:	48 8d 85 b0 eb ff ff 	lea    -0x1450(%rbp),%rax
    d726:	48 89 85 68 fb ff ff 	mov    %rax,-0x498(%rbp)
    d72d:	48 8d 85 b0 eb ff ff 	lea    -0x1450(%rbp),%rax
    d734:	48 89 85 70 fb ff ff 	mov    %rax,-0x490(%rbp)
    d73b:	48 8d 85 b0 eb ff ff 	lea    -0x1450(%rbp),%rax
    d742:	48 89 85 78 fb ff ff 	mov    %rax,-0x488(%rbp)
    d749:	48 8d 85 b0 eb ff ff 	lea    -0x1450(%rbp),%rax
    d750:	48 89 85 80 fb ff ff 	mov    %rax,-0x480(%rbp)
    d757:	48 c7 85 88 fb ff ff 	movq   $0x0,-0x478(%rbp)
    d75e:	00 00 00 00 
    d762:	48 8d 85 b0 eb ff ff 	lea    -0x1450(%rbp),%rax
    d769:	48 89 85 90 fb ff ff 	mov    %rax,-0x470(%rbp)
    d770:	48 8d 85 b0 eb ff ff 	lea    -0x1450(%rbp),%rax
    d777:	48 89 85 98 fb ff ff 	mov    %rax,-0x468(%rbp)
    d77e:	48 8d 85 b0 eb ff ff 	lea    -0x1450(%rbp),%rax
    d785:	48 89 85 a0 fb ff ff 	mov    %rax,-0x460(%rbp)
    d78c:	48 8d 85 b0 eb ff ff 	lea    -0x1450(%rbp),%rax
    d793:	48 89 85 a8 fb ff ff 	mov    %rax,-0x458(%rbp)
    d79a:	48 8d 85 b0 eb ff ff 	lea    -0x1450(%rbp),%rax
    d7a1:	48 89 85 b0 fb ff ff 	mov    %rax,-0x450(%rbp)
    d7a8:	48 c7 85 b8 fb ff ff 	movq   $0x0,-0x448(%rbp)
    d7af:	00 00 00 00 
    d7b3:	48 c7 85 c0 fb ff ff 	movq   $0x0,-0x440(%rbp)
    d7ba:	00 00 00 00 
    d7be:	48 8d 85 b0 eb ff ff 	lea    -0x1450(%rbp),%rax
    d7c5:	48 89 85 c8 fb ff ff 	mov    %rax,-0x438(%rbp)
    d7cc:	48 8d 85 b0 eb ff ff 	lea    -0x1450(%rbp),%rax
    d7d3:	48 89 85 d0 fb ff ff 	mov    %rax,-0x430(%rbp)
    d7da:	48 c7 85 d8 fb ff ff 	movq   $0x0,-0x428(%rbp)
    d7e1:	00 00 00 00 
    d7e5:	48 8d 85 b0 eb ff ff 	lea    -0x1450(%rbp),%rax
    d7ec:	48 89 85 e0 fb ff ff 	mov    %rax,-0x420(%rbp)
    d7f3:	48 8d 85 b0 eb ff ff 	lea    -0x1450(%rbp),%rax
    d7fa:	48 89 85 e8 fb ff ff 	mov    %rax,-0x418(%rbp)
    d801:	48 8d 85 b0 eb ff ff 	lea    -0x1450(%rbp),%rax
    d808:	48 89 85 f0 fb ff ff 	mov    %rax,-0x410(%rbp)
    d80f:	48 c7 85 f8 fb ff ff 	movq   $0x0,-0x408(%rbp)
    d816:	00 00 00 00 
    d81a:	48 8d 85 b0 eb ff ff 	lea    -0x1450(%rbp),%rax
    d821:	48 89 85 00 fc ff ff 	mov    %rax,-0x400(%rbp)
    d828:	48 8d 85 b0 eb ff ff 	lea    -0x1450(%rbp),%rax
    d82f:	48 89 85 08 fc ff ff 	mov    %rax,-0x3f8(%rbp)
    d836:	48 c7 85 10 fc ff ff 	movq   $0x0,-0x3f0(%rbp)
    d83d:	00 00 00 00 
    d841:	48 c7 85 18 fc ff ff 	movq   $0x0,-0x3e8(%rbp)
    d848:	00 00 00 00 
    d84c:	48 8d 85 b0 eb ff ff 	lea    -0x1450(%rbp),%rax
    d853:	48 89 85 20 fc ff ff 	mov    %rax,-0x3e0(%rbp)
    d85a:	48 8d 85 b0 eb ff ff 	lea    -0x1450(%rbp),%rax
    d861:	48 89 85 28 fc ff ff 	mov    %rax,-0x3d8(%rbp)
    d868:	48 8d 85 b0 eb ff ff 	lea    -0x1450(%rbp),%rax
    d86f:	48 89 85 30 fc ff ff 	mov    %rax,-0x3d0(%rbp)
    d876:	48 8d 85 b0 eb ff ff 	lea    -0x1450(%rbp),%rax
    d87d:	48 89 85 38 fc ff ff 	mov    %rax,-0x3c8(%rbp)
    d884:	48 8d 85 b0 eb ff ff 	lea    -0x1450(%rbp),%rax
    d88b:	48 89 85 40 fc ff ff 	mov    %rax,-0x3c0(%rbp)
    d892:	48 8d 85 b0 eb ff ff 	lea    -0x1450(%rbp),%rax
    d899:	48 89 85 48 fc ff ff 	mov    %rax,-0x3b8(%rbp)
    d8a0:	48 8d 85 b0 eb ff ff 	lea    -0x1450(%rbp),%rax
    d8a7:	48 89 85 50 fc ff ff 	mov    %rax,-0x3b0(%rbp)
    d8ae:	48 c7 85 58 fc ff ff 	movq   $0x0,-0x3a8(%rbp)
    d8b5:	00 00 00 00 
    d8b9:	48 8d 85 b0 eb ff ff 	lea    -0x1450(%rbp),%rax
    d8c0:	48 89 85 60 fc ff ff 	mov    %rax,-0x3a0(%rbp)
    d8c7:	48 8d 85 b0 eb ff ff 	lea    -0x1450(%rbp),%rax
    d8ce:	48 89 85 68 fc ff ff 	mov    %rax,-0x398(%rbp)
    d8d5:	48 c7 85 70 fc ff ff 	movq   $0x0,-0x390(%rbp)
    d8dc:	00 00 00 00 
    d8e0:	48 8d 85 b0 eb ff ff 	lea    -0x1450(%rbp),%rax
    d8e7:	48 89 85 78 fc ff ff 	mov    %rax,-0x388(%rbp)
    d8ee:	48 8d 85 b0 eb ff ff 	lea    -0x1450(%rbp),%rax
    d8f5:	48 89 85 80 fc ff ff 	mov    %rax,-0x380(%rbp)
    d8fc:	48 8d 85 b0 eb ff ff 	lea    -0x1450(%rbp),%rax
    d903:	48 89 85 88 fc ff ff 	mov    %rax,-0x378(%rbp)
    d90a:	48 8d 85 b0 eb ff ff 	lea    -0x1450(%rbp),%rax
    d911:	48 89 85 90 fc ff ff 	mov    %rax,-0x370(%rbp)
    d918:	48 8d 85 b0 eb ff ff 	lea    -0x1450(%rbp),%rax
    d91f:	48 89 85 98 fc ff ff 	mov    %rax,-0x368(%rbp)
    d926:	48 8d 85 b0 eb ff ff 	lea    -0x1450(%rbp),%rax
    d92d:	48 89 85 a0 fc ff ff 	mov    %rax,-0x360(%rbp)
    d934:	48 c7 85 a8 fc ff ff 	movq   $0x0,-0x358(%rbp)
    d93b:	00 00 00 00 
    d93f:	48 8d 85 b0 eb ff ff 	lea    -0x1450(%rbp),%rax
    d946:	48 89 85 b0 fc ff ff 	mov    %rax,-0x350(%rbp)
    d94d:	48 8d 85 b0 eb ff ff 	lea    -0x1450(%rbp),%rax
    d954:	48 89 85 b8 fc ff ff 	mov    %rax,-0x348(%rbp)
    d95b:	48 c7 85 c0 fc ff ff 	movq   $0x0,-0x340(%rbp)
    d962:	00 00 00 00 
    d966:	48 8d 85 b0 eb ff ff 	lea    -0x1450(%rbp),%rax
    d96d:	48 89 85 c8 fc ff ff 	mov    %rax,-0x338(%rbp)
    d974:	48 8d 85 b0 eb ff ff 	lea    -0x1450(%rbp),%rax
    d97b:	48 89 85 d0 fc ff ff 	mov    %rax,-0x330(%rbp)
    d982:	48 c7 85 d8 fc ff ff 	movq   $0x0,-0x328(%rbp)
    d989:	00 00 00 00 
    d98d:	48 8d 85 b0 eb ff ff 	lea    -0x1450(%rbp),%rax
    d994:	48 89 85 e0 fc ff ff 	mov    %rax,-0x320(%rbp)
    d99b:	48 8d 85 b0 eb ff ff 	lea    -0x1450(%rbp),%rax
    d9a2:	48 89 85 e8 fc ff ff 	mov    %rax,-0x318(%rbp)
    d9a9:	48 c7 85 f0 fc ff ff 	movq   $0x0,-0x310(%rbp)
    d9b0:	00 00 00 00 
    d9b4:	48 8d 85 b0 eb ff ff 	lea    -0x1450(%rbp),%rax
    d9bb:	48 89 85 f8 fc ff ff 	mov    %rax,-0x308(%rbp)
    d9c2:	48 8d 85 b0 eb ff ff 	lea    -0x1450(%rbp),%rax
    d9c9:	48 89 85 00 fd ff ff 	mov    %rax,-0x300(%rbp)
    d9d0:	48 c7 85 08 fd ff ff 	movq   $0x0,-0x2f8(%rbp)
    d9d7:	00 00 00 00 
    d9db:	48 8d 85 b0 eb ff ff 	lea    -0x1450(%rbp),%rax
    d9e2:	48 89 85 10 fd ff ff 	mov    %rax,-0x2f0(%rbp)
    d9e9:	48 8d 85 b0 eb ff ff 	lea    -0x1450(%rbp),%rax
    d9f0:	48 89 85 18 fd ff ff 	mov    %rax,-0x2e8(%rbp)
    d9f7:	48 8d 85 b0 eb ff ff 	lea    -0x1450(%rbp),%rax
    d9fe:	48 89 85 20 fd ff ff 	mov    %rax,-0x2e0(%rbp)
    da05:	48 c7 85 28 fd ff ff 	movq   $0x0,-0x2d8(%rbp)
    da0c:	00 00 00 00 
    da10:	48 8d 85 b0 eb ff ff 	lea    -0x1450(%rbp),%rax
    da17:	48 89 85 30 fd ff ff 	mov    %rax,-0x2d0(%rbp)
    da1e:	48 8d 85 b0 eb ff ff 	lea    -0x1450(%rbp),%rax
    da25:	48 89 85 38 fd ff ff 	mov    %rax,-0x2c8(%rbp)
    da2c:	48 8d 85 b0 eb ff ff 	lea    -0x1450(%rbp),%rax
    da33:	48 89 85 40 fd ff ff 	mov    %rax,-0x2c0(%rbp)
    da3a:	48 8d 85 b0 eb ff ff 	lea    -0x1450(%rbp),%rax
    da41:	48 89 85 48 fd ff ff 	mov    %rax,-0x2b8(%rbp)
    da48:	48 8d 85 b0 eb ff ff 	lea    -0x1450(%rbp),%rax
    da4f:	48 89 85 50 fd ff ff 	mov    %rax,-0x2b0(%rbp)
    da56:	48 8d 85 b0 eb ff ff 	lea    -0x1450(%rbp),%rax
    da5d:	48 89 85 58 fd ff ff 	mov    %rax,-0x2a8(%rbp)
    da64:	48 c7 85 60 fd ff ff 	movq   $0x0,-0x2a0(%rbp)
    da6b:	00 00 00 00 
    da6f:	48 8d 85 b0 eb ff ff 	lea    -0x1450(%rbp),%rax
    da76:	48 89 85 68 fd ff ff 	mov    %rax,-0x298(%rbp)
    da7d:	48 8d 85 b0 eb ff ff 	lea    -0x1450(%rbp),%rax
    da84:	48 89 85 70 fd ff ff 	mov    %rax,-0x290(%rbp)
    da8b:	48 8d 85 b0 eb ff ff 	lea    -0x1450(%rbp),%rax
    da92:	48 89 85 78 fd ff ff 	mov    %rax,-0x288(%rbp)
    da99:	48 8d 85 b0 eb ff ff 	lea    -0x1450(%rbp),%rax
    daa0:	48 89 85 80 fd ff ff 	mov    %rax,-0x280(%rbp)
    daa7:	48 8d 85 b0 eb ff ff 	lea    -0x1450(%rbp),%rax
    daae:	48 89 85 88 fd ff ff 	mov    %rax,-0x278(%rbp)
    dab5:	48 c7 85 90 fd ff ff 	movq   $0x0,-0x270(%rbp)
    dabc:	00 00 00 00 
    dac0:	48 c7 85 98 fd ff ff 	movq   $0x0,-0x268(%rbp)
    dac7:	00 00 00 00 
    dacb:	48 8d 85 b0 eb ff ff 	lea    -0x1450(%rbp),%rax
    dad2:	48 89 85 a0 fd ff ff 	mov    %rax,-0x260(%rbp)
    dad9:	48 c7 85 a8 fd ff ff 	movq   $0x0,-0x258(%rbp)
    dae0:	00 00 00 00 
    dae4:	48 c7 85 b0 fd ff ff 	movq   $0x0,-0x250(%rbp)
    daeb:	00 00 00 00 
    daef:	48 8d 85 b0 eb ff ff 	lea    -0x1450(%rbp),%rax
    daf6:	48 89 85 b8 fd ff ff 	mov    %rax,-0x248(%rbp)
    dafd:	48 8d 85 b0 eb ff ff 	lea    -0x1450(%rbp),%rax
    db04:	48 89 85 c0 fd ff ff 	mov    %rax,-0x240(%rbp)
    db0b:	48 c7 85 c8 fd ff ff 	movq   $0x0,-0x238(%rbp)
    db12:	00 00 00 00 
    db16:	48 8d 85 b0 eb ff ff 	lea    -0x1450(%rbp),%rax
    db1d:	48 89 85 d0 fd ff ff 	mov    %rax,-0x230(%rbp)
    db24:	48 8d 85 b0 eb ff ff 	lea    -0x1450(%rbp),%rax
    db2b:	48 89 85 d8 fd ff ff 	mov    %rax,-0x228(%rbp)
    db32:	48 c7 85 e0 fd ff ff 	movq   $0x0,-0x220(%rbp)
    db39:	00 00 00 00 
    db3d:	48 8d 85 b0 eb ff ff 	lea    -0x1450(%rbp),%rax
    db44:	48 89 85 e8 fd ff ff 	mov    %rax,-0x218(%rbp)
    db4b:	48 8d 85 b0 eb ff ff 	lea    -0x1450(%rbp),%rax
    db52:	48 89 85 f0 fd ff ff 	mov    %rax,-0x210(%rbp)
    db59:	48 c7 85 f8 fd ff ff 	movq   $0x0,-0x208(%rbp)
    db60:	00 00 00 00 
    db64:	48 8d 85 b0 eb ff ff 	lea    -0x1450(%rbp),%rax
    db6b:	48 89 85 00 fe ff ff 	mov    %rax,-0x200(%rbp)
    db72:	48 8d 85 b0 eb ff ff 	lea    -0x1450(%rbp),%rax
    db79:	48 89 85 08 fe ff ff 	mov    %rax,-0x1f8(%rbp)
    db80:	48 8d 85 b0 eb ff ff 	lea    -0x1450(%rbp),%rax
    db87:	48 89 85 10 fe ff ff 	mov    %rax,-0x1f0(%rbp)
    db8e:	48 c7 85 18 fe ff ff 	movq   $0x0,-0x1e8(%rbp)
    db95:	00 00 00 00 
    db99:	48 8d 85 b0 eb ff ff 	lea    -0x1450(%rbp),%rax
    dba0:	48 89 85 20 fe ff ff 	mov    %rax,-0x1e0(%rbp)
    dba7:	48 8d 85 b0 eb ff ff 	lea    -0x1450(%rbp),%rax
    dbae:	48 89 85 28 fe ff ff 	mov    %rax,-0x1d8(%rbp)
    dbb5:	48 8d 85 b0 eb ff ff 	lea    -0x1450(%rbp),%rax
    dbbc:	48 89 85 30 fe ff ff 	mov    %rax,-0x1d0(%rbp)
    dbc3:	48 c7 85 38 fe ff ff 	movq   $0x0,-0x1c8(%rbp)
    dbca:	00 00 00 00 
    dbce:	48 8d 85 b0 eb ff ff 	lea    -0x1450(%rbp),%rax
    dbd5:	48 89 85 40 fe ff ff 	mov    %rax,-0x1c0(%rbp)
    dbdc:	48 8d 85 b0 eb ff ff 	lea    -0x1450(%rbp),%rax
    dbe3:	48 89 85 48 fe ff ff 	mov    %rax,-0x1b8(%rbp)
    dbea:	48 8d 85 b0 eb ff ff 	lea    -0x1450(%rbp),%rax
    dbf1:	48 89 85 50 fe ff ff 	mov    %rax,-0x1b0(%rbp)
    dbf8:	48 8d 85 b0 eb ff ff 	lea    -0x1450(%rbp),%rax
    dbff:	48 89 85 58 fe ff ff 	mov    %rax,-0x1a8(%rbp)
    dc06:	48 8d 85 b0 eb ff ff 	lea    -0x1450(%rbp),%rax
    dc0d:	48 89 85 60 fe ff ff 	mov    %rax,-0x1a0(%rbp)
    dc14:	48 8d 85 b0 eb ff ff 	lea    -0x1450(%rbp),%rax
    dc1b:	48 89 85 68 fe ff ff 	mov    %rax,-0x198(%rbp)
    dc22:	48 8d 85 b0 eb ff ff 	lea    -0x1450(%rbp),%rax
    dc29:	48 89 85 70 fe ff ff 	mov    %rax,-0x190(%rbp)
    dc30:	48 8d 85 b0 eb ff ff 	lea    -0x1450(%rbp),%rax
    dc37:	48 89 85 78 fe ff ff 	mov    %rax,-0x188(%rbp)
    dc3e:	48 c7 85 80 fe ff ff 	movq   $0x0,-0x180(%rbp)
    dc45:	00 00 00 00 
    dc49:	48 c7 85 88 fe ff ff 	movq   $0x0,-0x178(%rbp)
    dc50:	00 00 00 00 
    dc54:	48 8d 85 b0 eb ff ff 	lea    -0x1450(%rbp),%rax
    dc5b:	48 89 85 90 fe ff ff 	mov    %rax,-0x170(%rbp)
    dc62:	48 c7 85 98 fe ff ff 	movq   $0x0,-0x168(%rbp)
    dc69:	00 00 00 00 
    dc6d:	48 c7 85 a0 fe ff ff 	movq   $0x0,-0x160(%rbp)
    dc74:	00 00 00 00 
    dc78:	48 8d 85 b0 eb ff ff 	lea    -0x1450(%rbp),%rax
    dc7f:	48 89 85 a8 fe ff ff 	mov    %rax,-0x158(%rbp)
    dc86:	48 8d 85 b0 eb ff ff 	lea    -0x1450(%rbp),%rax
    dc8d:	48 89 85 b0 fe ff ff 	mov    %rax,-0x150(%rbp)
    dc94:	48 c7 85 b8 fe ff ff 	movq   $0x0,-0x148(%rbp)
    dc9b:	00 00 00 00 
    dc9f:	48 8d 85 b0 eb ff ff 	lea    -0x1450(%rbp),%rax
    dca6:	48 89 85 c0 fe ff ff 	mov    %rax,-0x140(%rbp)
    dcad:	48 8d 85 b0 eb ff ff 	lea    -0x1450(%rbp),%rax
    dcb4:	48 89 85 c8 fe ff ff 	mov    %rax,-0x138(%rbp)
    dcbb:	48 c7 85 d0 fe ff ff 	movq   $0x0,-0x130(%rbp)
    dcc2:	00 00 00 00 
    dcc6:	48 8d 85 b0 eb ff ff 	lea    -0x1450(%rbp),%rax
    dccd:	48 89 85 d8 fe ff ff 	mov    %rax,-0x128(%rbp)
    dcd4:	48 8d 85 b0 eb ff ff 	lea    -0x1450(%rbp),%rax
    dcdb:	48 89 85 e0 fe ff ff 	mov    %rax,-0x120(%rbp)
    dce2:	48 c7 85 e8 fe ff ff 	movq   $0x0,-0x118(%rbp)
    dce9:	00 00 00 00 
    dced:	48 8d 85 b0 eb ff ff 	lea    -0x1450(%rbp),%rax
    dcf4:	48 89 85 f0 fe ff ff 	mov    %rax,-0x110(%rbp)
    dcfb:	48 8d 85 b0 eb ff ff 	lea    -0x1450(%rbp),%rax
    dd02:	48 89 85 f8 fe ff ff 	mov    %rax,-0x108(%rbp)
    dd09:	48 8d 85 b0 eb ff ff 	lea    -0x1450(%rbp),%rax
    dd10:	48 89 85 00 ff ff ff 	mov    %rax,-0x100(%rbp)
    dd17:	48 8d 85 b0 eb ff ff 	lea    -0x1450(%rbp),%rax
    dd1e:	48 89 85 08 ff ff ff 	mov    %rax,-0xf8(%rbp)
    dd25:	48 8d 85 b0 eb ff ff 	lea    -0x1450(%rbp),%rax
    dd2c:	48 89 85 10 ff ff ff 	mov    %rax,-0xf0(%rbp)
    dd33:	48 8d 85 b0 eb ff ff 	lea    -0x1450(%rbp),%rax
    dd3a:	48 89 85 18 ff ff ff 	mov    %rax,-0xe8(%rbp)
    dd41:	48 8d 85 b0 eb ff ff 	lea    -0x1450(%rbp),%rax
    dd48:	48 89 85 20 ff ff ff 	mov    %rax,-0xe0(%rbp)
    dd4f:	48 c7 85 28 ff ff ff 	movq   $0x0,-0xd8(%rbp)
    dd56:	00 00 00 00 
    dd5a:	48 8d 85 b0 eb ff ff 	lea    -0x1450(%rbp),%rax
    dd61:	48 89 85 30 ff ff ff 	mov    %rax,-0xd0(%rbp)
    dd68:	48 8d 85 b0 eb ff ff 	lea    -0x1450(%rbp),%rax
    dd6f:	48 89 85 38 ff ff ff 	mov    %rax,-0xc8(%rbp)
    dd76:	48 c7 85 40 ff ff ff 	movq   $0x0,-0xc0(%rbp)
    dd7d:	00 00 00 00 
    dd81:	48 8d 85 b0 eb ff ff 	lea    -0x1450(%rbp),%rax
    dd88:	48 89 85 48 ff ff ff 	mov    %rax,-0xb8(%rbp)
    dd8f:	48 8d 85 b0 eb ff ff 	lea    -0x1450(%rbp),%rax
    dd96:	48 89 85 50 ff ff ff 	mov    %rax,-0xb0(%rbp)
    dd9d:	48 8d 85 b0 eb ff ff 	lea    -0x1450(%rbp),%rax
    dda4:	48 89 85 58 ff ff ff 	mov    %rax,-0xa8(%rbp)
    ddab:	48 8d 85 b0 eb ff ff 	lea    -0x1450(%rbp),%rax
    ddb2:	48 89 85 60 ff ff ff 	mov    %rax,-0xa0(%rbp)
    ddb9:	48 8d 85 b0 eb ff ff 	lea    -0x1450(%rbp),%rax
    ddc0:	48 89 85 68 ff ff ff 	mov    %rax,-0x98(%rbp)
    ddc7:	48 8d 85 b0 eb ff ff 	lea    -0x1450(%rbp),%rax
    ddce:	48 89 85 70 ff ff ff 	mov    %rax,-0x90(%rbp)
    ddd5:	48 c7 85 78 ff ff ff 	movq   $0x0,-0x88(%rbp)
    dddc:	00 00 00 00 
    dde0:	48 8d 85 b0 eb ff ff 	lea    -0x1450(%rbp),%rax
    dde7:	48 89 45 80          	mov    %rax,-0x80(%rbp)
    ddeb:	48 8d 85 b0 eb ff ff 	lea    -0x1450(%rbp),%rax
    ddf2:	48 89 45 88          	mov    %rax,-0x78(%rbp)
    ddf6:	48 c7 45 90 00 00 00 	movq   $0x0,-0x70(%rbp)
    ddfd:	00 
    ddfe:	48 8d 85 b0 eb ff ff 	lea    -0x1450(%rbp),%rax
    de05:	48 89 45 98          	mov    %rax,-0x68(%rbp)
    de09:	48 8d 85 b0 eb ff ff 	lea    -0x1450(%rbp),%rax
    de10:	48 89 45 a0          	mov    %rax,-0x60(%rbp)
    de14:	48 c7 45 a8 00 00 00 	movq   $0x0,-0x58(%rbp)
    de1b:	00 
    de1c:	48 8d 85 b0 eb ff ff 	lea    -0x1450(%rbp),%rax
    de23:	48 89 45 b0          	mov    %rax,-0x50(%rbp)
    de27:	48 8d 85 b0 eb ff ff 	lea    -0x1450(%rbp),%rax
    de2e:	48 89 45 b8          	mov    %rax,-0x48(%rbp)
    de32:	48 c7 45 c0 00 00 00 	movq   $0x0,-0x40(%rbp)
    de39:	00 
    de3a:	48 8d 85 30 f8 ff ff 	lea    -0x7d0(%rbp),%rax
    de41:	48 05 f0 00 00 00    	add    $0xf0,%rax
    de47:	48 89 85 d8 eb ff ff 	mov    %rax,-0x1428(%rbp)
    de4e:	48 8d 85 d8 eb ff ff 	lea    -0x1428(%rbp),%rax
    de55:	48 89 85 50 ec ff ff 	mov    %rax,-0x13b0(%rbp)
    de5c:	48 c7 85 58 ec ff ff 	movq   $0x0,-0x13a8(%rbp)
    de63:	00 00 00 00 
    de67:	c7 85 6c eb ff ff 9d 	movl   $0xc8dfbc9d,-0x1494(%rbp)
    de6e:	bc df c8 
    de71:	48 c7 85 60 ec ff ff 	movq   $0x0,-0x13a0(%rbp)
    de78:	00 00 00 00 
    de7c:	48 8d 85 c0 ed ff ff 	lea    -0x1240(%rbp),%rax
    de83:	48 83 c0 18          	add    $0x18,%rax
    de87:	48 89 85 68 ec ff ff 	mov    %rax,-0x1398(%rbp)
    de8e:	c7 85 70 eb ff ff 01 	movl   $0x1,-0x1490(%rbp)
    de95:	00 00 00 
    de98:	c7 85 74 eb ff ff ff 	movl   $0xffffffff,-0x148c(%rbp)
    de9f:	ff ff ff 
    dea2:	c7 85 30 ee ff ff ed 	movl   $0x346253ed,-0x11d0(%rbp)
    dea9:	53 62 34 
    deac:	c7 85 34 ee ff ff ed 	movl   $0x346253ed,-0x11cc(%rbp)
    deb3:	53 62 34 
    deb6:	c7 85 38 ee ff ff fb 	movl   $0xfffffffb,-0x11c8(%rbp)
    debd:	ff ff ff 
    dec0:	c7 85 3c ee ff ff ed 	movl   $0x346253ed,-0x11c4(%rbp)
    dec7:	53 62 34 
    deca:	c7 85 40 ee ff ff ed 	movl   $0x346253ed,-0x11c0(%rbp)
    ded1:	53 62 34 
    ded4:	c7 85 44 ee ff ff fb 	movl   $0xfffffffb,-0x11bc(%rbp)
    dedb:	ff ff ff 
    dede:	c7 85 48 ee ff ff ed 	movl   $0x346253ed,-0x11b8(%rbp)
    dee5:	53 62 34 
    dee8:	c7 85 4c ee ff ff ed 	movl   $0x346253ed,-0x11b4(%rbp)
    deef:	53 62 34 
    def2:	c7 85 50 ee ff ff fb 	movl   $0xfffffffb,-0x11b0(%rbp)
    def9:	ff ff ff 
    defc:	c7 85 54 ee ff ff ed 	movl   $0x346253ed,-0x11ac(%rbp)
    df03:	53 62 34 
    df06:	c7 85 58 ee ff ff ed 	movl   $0x346253ed,-0x11a8(%rbp)
    df0d:	53 62 34 
    df10:	c7 85 5c ee ff ff fb 	movl   $0xfffffffb,-0x11a4(%rbp)
    df17:	ff ff ff 
    df1a:	c7 85 60 ee ff ff ed 	movl   $0x346253ed,-0x11a0(%rbp)
    df21:	53 62 34 
    df24:	c7 85 64 ee ff ff ed 	movl   $0x346253ed,-0x119c(%rbp)
    df2b:	53 62 34 
    df2e:	c7 85 68 ee ff ff fb 	movl   $0xfffffffb,-0x1198(%rbp)
    df35:	ff ff ff 
    df38:	c7 85 6c ee ff ff ed 	movl   $0x346253ed,-0x1194(%rbp)
    df3f:	53 62 34 
    df42:	c7 85 70 ee ff ff ed 	movl   $0x346253ed,-0x1190(%rbp)
    df49:	53 62 34 
    df4c:	c7 85 74 ee ff ff fb 	movl   $0xfffffffb,-0x118c(%rbp)
    df53:	ff ff ff 
    df56:	48 8d 05 4b 87 01 00 	lea    0x1874b(%rip),%rax        # 266a8 <g_93>
    df5d:	48 8b 00             	mov    (%rax),%rax
    df60:	48 8b 95 c0 eb ff ff 	mov    -0x1440(%rbp),%rdx
    df67:	48 89 10             	mov    %rdx,(%rax)
    df6a:	66 c7 05 0d 63 01 00 	movw   $0x0,0x1630d(%rip)        # 24280 <g_295>
    df71:	00 00 
    df73:	90                   	nop
    df74:	0f b7 05 05 63 01 00 	movzwl 0x16305(%rip),%eax        # 24280 <g_295>
    df7b:	66 83 f8 2a          	cmp    $0x2a,%ax
    df7f:	0f 86 ef 00 00 00    	jbe    e074 <func_28+0x1351>
    df85:	c7 85 a4 eb ff ff 02 	movl   $0x2,-0x145c(%rbp)
    df8c:	00 00 00 
    df8f:	c7 85 60 eb ff ff 00 	movl   $0x0,-0x14a0(%rbp)
    df96:	00 00 00 
    df99:	eb 1a                	jmp    dfb5 <func_28+0x1292>
    df9b:	8b 85 60 eb ff ff    	mov    -0x14a0(%rbp),%eax
    dfa1:	48 98                	cltq   
    dfa3:	c7 84 85 d0 f4 ff ff 	movl   $0xffffffff,-0xb30(%rbp,%rax,4)
    dfaa:	ff ff ff ff 
    dfae:	83 85 60 eb ff ff 01 	addl   $0x1,-0x14a0(%rbp)
    dfb5:	83 bd 60 eb ff ff 02 	cmpl   $0x2,-0x14a0(%rbp)
    dfbc:	7e dd                	jle    df9b <func_28+0x1278>
    dfbe:	48 8b 05 33 87 01 00 	mov    0x18733(%rip),%rax        # 266f8 <g_635>
    dfc5:	c6 00 00             	movb   $0x0,(%rax)
    dfc8:	48 8b 85 40 ec ff ff 	mov    -0x13c0(%rbp),%rax
    dfcf:	48 89 85 30 ec ff ff 	mov    %rax,-0x13d0(%rbp)
    dfd6:	48 8d 05 73 87 01 00 	lea    0x18773(%rip),%rax        # 26750 <g_817>
    dfdd:	48 39 85 30 ec ff ff 	cmp    %rax,-0x13d0(%rbp)
    dfe4:	8b 85 a4 eb ff ff    	mov    -0x145c(%rbp),%eax
    dfea:	48 8b 15 5f 87 01 00 	mov    0x1875f(%rip),%rdx        # 26750 <g_817>
    dff1:	48 8b 12             	mov    (%rdx),%rdx
    dff4:	48 8b 12             	mov    (%rdx),%rdx
    dff7:	0f b7 12             	movzwl (%rdx),%edx
    dffa:	66 85 d2             	test   %dx,%dx
    dffd:	74 12                	je     e011 <func_28+0x12ee>
    dfff:	48 8b 95 38 eb ff ff 	mov    -0x14c8(%rbp),%rdx
    e006:	48 89 d1             	mov    %rdx,%rcx
    e009:	ba f9 ff ff ff       	mov    $0xfffffff9,%edx
    e00e:	48 39 d1             	cmp    %rdx,%rcx
    e011:	89 c6                	mov    %eax,%esi
    e013:	bf f7 ff ff ff       	mov    $0xfffffff7,%edi
    e018:	e8 d1 b2 ff ff       	callq  92ee <safe_lshift_func_int8_t_s_u>
    e01d:	0f b6 95 58 eb ff ff 	movzbl -0x14a8(%rbp),%edx
    e024:	38 d0                	cmp    %dl,%al
    e026:	75 07                	jne    e02f <func_28+0x130c>
    e028:	b8 57 c0 85 e6       	mov    $0xe685c057,%eax
    e02d:	eb 05                	jmp    e034 <func_28+0x1311>
    e02f:	b8 56 c0 85 e6       	mov    $0xe685c056,%eax
    e034:	89 85 a4 eb ff ff    	mov    %eax,-0x145c(%rbp)
    e03a:	be 01 00 00 00       	mov    $0x1,%esi
    e03f:	bf 01 00 00 00       	mov    $0x1,%edi
    e044:	e8 f8 b7 ff ff       	callq  9841 <safe_add_func_int64_t_s_s>
    e049:	48 8b 05 58 86 01 00 	mov    0x18658(%rip),%rax        # 266a8 <g_93>
    e050:	48 8b 00             	mov    (%rax),%rax
    e053:	c7 00 00 00 00 00    	movl   $0x0,(%rax)
    e059:	8b 10                	mov    (%rax),%edx
    e05b:	8b 85 d0 f4 ff ff    	mov    -0xb30(%rbp),%eax
    e061:	21 d0                	and    %edx,%eax
    e063:	89 85 d0 f4 ff ff    	mov    %eax,-0xb30(%rbp)
    e069:	8b 85 e0 ed ff ff    	mov    -0x1220(%rbp),%eax
    e06f:	e9 60 12 00 00       	jmpq   f2d4 <func_28+0x25b1>
    e074:	48 8b 85 c0 eb ff ff 	mov    -0x1440(%rbp),%rax
    e07b:	8b 00                	mov    (%rax),%eax
    e07d:	85 c0                	test   %eax,%eax
    e07f:	0f 84 10 12 00 00    	je     f295 <func_28+0x2572>
    e085:	48 c7 85 70 ec ff ff 	movq   $0x0,-0x1390(%rbp)
    e08c:	00 00 00 00 
    e090:	48 8d 05 39 62 01 00 	lea    0x16239(%rip),%rax        # 242d0 <g_513>
    e097:	48 89 85 78 ec ff ff 	mov    %rax,-0x1388(%rbp)
    e09e:	c7 85 78 eb ff ff d9 	movl   $0x942553d9,-0x1488(%rbp)
    e0a5:	53 25 94 
    e0a8:	48 8d 85 f8 ec ff ff 	lea    -0x1308(%rbp),%rax
    e0af:	48 89 85 90 ef ff ff 	mov    %rax,-0x1070(%rbp)
    e0b6:	48 8d 85 f8 ec ff ff 	lea    -0x1308(%rbp),%rax
    e0bd:	48 89 85 98 ef ff ff 	mov    %rax,-0x1068(%rbp)
    e0c4:	48 c7 85 a0 ef ff ff 	movq   $0x0,-0x1060(%rbp)
    e0cb:	00 00 00 00 
    e0cf:	48 8d 85 f8 ec ff ff 	lea    -0x1308(%rbp),%rax
    e0d6:	48 89 85 a8 ef ff ff 	mov    %rax,-0x1058(%rbp)
    e0dd:	48 8d 85 f8 ec ff ff 	lea    -0x1308(%rbp),%rax
    e0e4:	48 89 85 b0 ef ff ff 	mov    %rax,-0x1050(%rbp)
    e0eb:	48 c7 85 b8 ef ff ff 	movq   $0x0,-0x1048(%rbp)
    e0f2:	00 00 00 00 
    e0f6:	48 8d 85 f8 ec ff ff 	lea    -0x1308(%rbp),%rax
    e0fd:	48 89 85 c0 ef ff ff 	mov    %rax,-0x1040(%rbp)
    e104:	48 8d 85 f8 ec ff ff 	lea    -0x1308(%rbp),%rax
    e10b:	48 89 85 c8 ef ff ff 	mov    %rax,-0x1038(%rbp)
    e112:	48 c7 85 d0 ef ff ff 	movq   $0x0,-0x1030(%rbp)
    e119:	00 00 00 00 
    e11d:	48 8d 85 f8 ec ff ff 	lea    -0x1308(%rbp),%rax
    e124:	48 89 85 d8 ef ff ff 	mov    %rax,-0x1028(%rbp)
    e12b:	48 8d 85 f8 ec ff ff 	lea    -0x1308(%rbp),%rax
    e132:	48 89 85 e0 ef ff ff 	mov    %rax,-0x1020(%rbp)
    e139:	48 c7 85 e8 ef ff ff 	movq   $0x0,-0x1018(%rbp)
    e140:	00 00 00 00 
    e144:	48 8d 85 f8 ec ff ff 	lea    -0x1308(%rbp),%rax
    e14b:	48 89 85 f0 ef ff ff 	mov    %rax,-0x1010(%rbp)
    e152:	48 8d 85 f8 ec ff ff 	lea    -0x1308(%rbp),%rax
    e159:	48 89 85 f8 ef ff ff 	mov    %rax,-0x1008(%rbp)
    e160:	48 c7 85 00 f0 ff ff 	movq   $0x0,-0x1000(%rbp)
    e167:	00 00 00 00 
    e16b:	48 8d 85 f8 ec ff ff 	lea    -0x1308(%rbp),%rax
    e172:	48 89 85 08 f0 ff ff 	mov    %rax,-0xff8(%rbp)
    e179:	48 8d 85 f8 ec ff ff 	lea    -0x1308(%rbp),%rax
    e180:	48 89 85 10 f0 ff ff 	mov    %rax,-0xff0(%rbp)
    e187:	48 c7 85 18 f0 ff ff 	movq   $0x0,-0xfe8(%rbp)
    e18e:	00 00 00 00 
    e192:	48 8d 85 f8 ec ff ff 	lea    -0x1308(%rbp),%rax
    e199:	48 89 85 20 f0 ff ff 	mov    %rax,-0xfe0(%rbp)
    e1a0:	48 8d 85 f8 ec ff ff 	lea    -0x1308(%rbp),%rax
    e1a7:	48 89 85 28 f0 ff ff 	mov    %rax,-0xfd8(%rbp)
    e1ae:	48 c7 85 30 f0 ff ff 	movq   $0x0,-0xfd0(%rbp)
    e1b5:	00 00 00 00 
    e1b9:	48 8d 85 f8 ec ff ff 	lea    -0x1308(%rbp),%rax
    e1c0:	48 89 85 38 f0 ff ff 	mov    %rax,-0xfc8(%rbp)
    e1c7:	48 8d 85 f8 ec ff ff 	lea    -0x1308(%rbp),%rax
    e1ce:	48 89 85 40 f0 ff ff 	mov    %rax,-0xfc0(%rbp)
    e1d5:	48 c7 85 48 f0 ff ff 	movq   $0x0,-0xfb8(%rbp)
    e1dc:	00 00 00 00 
    e1e0:	48 8d 05 e1 60 01 00 	lea    0x160e1(%rip),%rax        # 242c8 <g_405>
    e1e7:	48 89 85 80 ec ff ff 	mov    %rax,-0x1380(%rbp)
    e1ee:	48 8d 05 8b 60 01 00 	lea    0x1608b(%rip),%rax        # 24280 <g_295>
    e1f5:	48 89 85 e0 eb ff ff 	mov    %rax,-0x1420(%rbp)
    e1fc:	48 8d 85 e0 eb ff ff 	lea    -0x1420(%rbp),%rax
    e203:	48 89 85 e8 eb ff ff 	mov    %rax,-0x1418(%rbp)
    e20a:	c7 85 7c eb ff ff 01 	movl   $0x1,-0x1484(%rbp)
    e211:	00 00 00 
    e214:	48 8d 85 50 f0 ff ff 	lea    -0xfb0(%rbp),%rax
    e21b:	48 8d 15 3e 0a 01 00 	lea    0x10a3e(%rip),%rdx        # 1ec60 <g_2439+0xbe0>
    e222:	b9 28 00 00 00       	mov    $0x28,%ecx
    e227:	48 89 c7             	mov    %rax,%rdi
    e22a:	48 89 d6             	mov    %rdx,%rsi
    e22d:	f3 48 a5             	rep movsq %ds:(%rsi),%es:(%rdi)
    e230:	48 8d 85 90 f1 ff ff 	lea    -0xe70(%rbp),%rax
    e237:	48 8d 15 02 71 01 00 	lea    0x17102(%rip),%rdx        # 25340 <g_4540+0x4e0>
    e23e:	b9 32 00 00 00       	mov    $0x32,%ecx
    e243:	48 89 c7             	mov    %rax,%rdi
    e246:	48 89 d6             	mov    %rdx,%rsi
    e249:	f3 48 a5             	rep movsq %ds:(%rsi),%es:(%rdi)
    e24c:	48 8d 85 90 f1 ff ff 	lea    -0xe70(%rbp),%rax
    e253:	48 05 88 00 00 00    	add    $0x88,%rax
    e259:	48 89 85 f0 eb ff ff 	mov    %rax,-0x1410(%rbp)
    e260:	48 8d 85 f0 eb ff ff 	lea    -0x1410(%rbp),%rax
    e267:	48 89 85 f8 eb ff ff 	mov    %rax,-0x1408(%rbp)
    e26e:	48 8d 85 f8 eb ff ff 	lea    -0x1408(%rbp),%rax
    e275:	48 89 85 00 ec ff ff 	mov    %rax,-0x1400(%rbp)
    e27c:	48 8d 85 00 ec ff ff 	lea    -0x1400(%rbp),%rax
    e283:	48 89 85 88 ec ff ff 	mov    %rax,-0x1378(%rbp)
    e28a:	48 c7 85 90 ec ff ff 	movq   $0x0,-0x1370(%rbp)
    e291:	00 00 00 00 
    e295:	0f b6 95 40 eb ff ff 	movzbl -0x14c0(%rbp),%edx
    e29c:	48 8b 85 78 ec ff ff 	mov    -0x1388(%rbp),%rax
    e2a3:	48 89 10             	mov    %rdx,(%rax)
    e2a6:	48 8b 05 f3 84 01 00 	mov    0x184f3(%rip),%rax        # 267a0 <g_1328>
    e2ad:	48 8b 00             	mov    (%rax),%rax
    e2b0:	0f b7 00             	movzwl (%rax),%eax
    e2b3:	0f b7 d8             	movzwl %ax,%ebx
    e2b6:	8b 85 78 eb ff ff    	mov    -0x1488(%rbp),%eax
    e2bc:	4c 63 e0             	movslq %eax,%r12
    e2bf:	48 8b 85 38 eb ff ff 	mov    -0x14c8(%rbp),%rax
    e2c6:	44 0f bf e8          	movswl %ax,%r13d
    e2ca:	48 8b 85 c8 eb ff ff 	mov    -0x1438(%rbp),%rax
    e2d1:	48 8b 00             	mov    (%rax),%rax
    e2d4:	8b 00                	mov    (%rax),%eax
    e2d6:	4c 63 f0             	movslq %eax,%r14
    e2d9:	48 8b 85 88 ee ff ff 	mov    -0x1178(%rbp),%rax
    e2e0:	48 39 85 48 ec ff ff 	cmp    %rax,-0x13b8(%rbp)
    e2e7:	0f 95 c0             	setne  %al
    e2ea:	44 0f b6 f8          	movzbl %al,%r15d
    e2ee:	48 8b 85 50 ec ff ff 	mov    -0x13b0(%rbp),%rax
    e2f5:	48 89 05 2c 97 01 00 	mov    %rax,0x1972c(%rip)        # 27a28 <g_3268>
    e2fc:	48 8b 15 25 97 01 00 	mov    0x19725(%rip),%rdx        # 27a28 <g_3268>
    e303:	48 8b 85 c8 ef ff ff 	mov    -0x1038(%rbp),%rax
    e30a:	48 39 c2             	cmp    %rax,%rdx
    e30d:	0f 95 c0             	setne  %al
    e310:	0f b6 c0             	movzbl %al,%eax
    e313:	be 05 00 00 00       	mov    $0x5,%esi
    e318:	89 c7                	mov    %eax,%edi
    e31a:	e8 9f ba ff ff       	callq  9dbe <safe_lshift_func_uint16_t_u_s>
    e31f:	0f b7 c0             	movzwl %ax,%eax
    e322:	41 39 c7             	cmp    %eax,%r15d
    e325:	0f 9c c0             	setl   %al
    e328:	0f b6 c0             	movzbl %al,%eax
    e32b:	39 85 78 eb ff ff    	cmp    %eax,-0x1488(%rbp)
    e331:	0f 9c c0             	setl   %al
    e334:	0f b6 c0             	movzbl %al,%eax
    e337:	4c 89 f6             	mov    %r14,%rsi
    e33a:	48 89 c7             	mov    %rax,%rdi
    e33d:	e8 ec bc ff ff       	callq  a02e <safe_add_func_uint64_t_u_u>
    e342:	8b 05 a4 69 01 00    	mov    0x169a4(%rip),%eax        # 24cec <g_3275>
    e348:	98                   	cwtl   
    e349:	44 89 ee             	mov    %r13d,%esi
    e34c:	89 c7                	mov    %eax,%edi
    e34e:	e8 02 b1 ff ff       	callq  9455 <safe_div_func_int16_t_s_s>
    e353:	48 0f bf c0          	movswq %ax,%rax
    e357:	4c 89 e6             	mov    %r12,%rsi
    e35a:	48 89 c7             	mov    %rax,%rdi
    e35d:	e8 52 b6 ff ff       	callq  99b4 <safe_mod_func_int64_t_s_s>
    e362:	0f b7 c0             	movzwl %ax,%eax
    e365:	89 de                	mov    %ebx,%esi
    e367:	89 c7                	mov    %eax,%edi
    e369:	e8 b1 b9 ff ff       	callq  9d1f <safe_sub_func_uint16_t_u_u>
    e36e:	0f b7 d0             	movzwl %ax,%edx
    e371:	48 8b 85 80 ec ff ff 	mov    -0x1380(%rbp),%rax
    e378:	48 89 10             	mov    %rdx,(%rax)
    e37b:	48 8b 85 a8 ed ff ff 	mov    -0x1258(%rbp),%rax
    e382:	48 85 c0             	test   %rax,%rax
    e385:	0f 84 ea 01 00 00    	je     e575 <func_28+0x1852>
    e38b:	48 8d 05 56 60 01 00 	lea    0x16056(%rip),%rax        # 243e8 <g_1959>
    e392:	48 89 85 f0 ec ff ff 	mov    %rax,-0x1310(%rbp)
    e399:	c7 85 9c eb ff ff ad 	movl   $0x9d86c9ad,-0x1464(%rbp)
    e3a0:	c9 86 9d 
    e3a3:	48 c7 85 d0 f4 ff ff 	movq   $0x0,-0xb30(%rbp)
    e3aa:	00 00 00 00 
    e3ae:	48 c7 85 d8 f4 ff ff 	movq   $0x0,-0xb28(%rbp)
    e3b5:	00 00 00 00 
    e3b9:	48 c7 85 e0 f4 ff ff 	movq   $0x0,-0xb20(%rbp)
    e3c0:	00 00 00 00 
    e3c4:	48 c7 85 e8 f4 ff ff 	movq   $0x0,-0xb18(%rbp)
    e3cb:	00 00 00 00 
    e3cf:	48 c7 85 f0 f4 ff ff 	movq   $0x0,-0xb10(%rbp)
    e3d6:	00 00 00 00 
    e3da:	48 c7 85 f8 f4 ff ff 	movq   $0x0,-0xb08(%rbp)
    e3e1:	00 00 00 00 
    e3e5:	48 c7 85 00 f5 ff ff 	movq   $0x0,-0xb00(%rbp)
    e3ec:	00 00 00 00 
    e3f0:	48 c7 85 08 f5 ff ff 	movq   $0x0,-0xaf8(%rbp)
    e3f7:	00 00 00 00 
    e3fb:	48 c7 85 10 f5 ff ff 	movq   $0x0,-0xaf0(%rbp)
    e402:	00 00 00 00 
    e406:	c7 85 a0 eb ff ff dc 	movl   $0xe69e5dc,-0x1460(%rbp)
    e40d:	e5 69 0e 
    e410:	48 8b 05 e9 82 01 00 	mov    0x182e9(%rip),%rax        # 26700 <g_634>
    e417:	48 8b 00             	mov    (%rax),%rax
    e41a:	0f b6 00             	movzbl (%rax),%eax
    e41d:	44 0f b6 f0          	movzbl %al,%r14d
    e421:	48 8b 95 38 eb ff ff 	mov    -0x14c8(%rbp),%rdx
    e428:	48 8d 05 81 95 01 00 	lea    0x19581(%rip),%rax        # 279b0 <g_2637>
    e42f:	48 8b 00             	mov    (%rax),%rax
    e432:	88 10                	mov    %dl,(%rax)
    e434:	0f b6 00             	movzbl (%rax),%eax
    e437:	0f b6 c0             	movzbl %al,%eax
    e43a:	89 c6                	mov    %eax,%esi
    e43c:	bf 03 00 00 00       	mov    $0x3,%edi
    e441:	e8 68 b7 ff ff       	callq  9bae <safe_mod_func_uint8_t_u_u>
    e446:	44 0f b6 f8          	movzbl %al,%r15d
    e44a:	8b 85 9c eb ff ff    	mov    -0x1464(%rbp),%eax
    e450:	48 63 d8             	movslq %eax,%rbx
    e453:	8b 85 44 eb ff ff    	mov    -0x14bc(%rbp),%eax
    e459:	44 0f b6 e0          	movzbl %al,%r12d
    e45d:	8b 85 44 eb ff ff    	mov    -0x14bc(%rbp),%eax
    e463:	44 0f bf e8          	movswl %ax,%r13d
    e467:	48 8b 05 b2 95 01 00 	mov    0x195b2(%rip),%rax        # 27a20 <g_3269>
    e46e:	48 8b 00             	mov    (%rax),%rax
    e471:	48 8b 00             	mov    (%rax),%rax
    e474:	48 8b 00             	mov    (%rax),%rax
    e477:	66 c7 00 01 00       	movw   $0x1,(%rax)
    e47c:	0f b7 00             	movzwl (%rax),%eax
    e47f:	8b 95 d8 ed ff ff    	mov    -0x1228(%rbp),%edx
    e485:	98                   	cwtl   
    e486:	21 d0                	and    %edx,%eax
    e488:	89 85 d8 ed ff ff    	mov    %eax,-0x1228(%rbp)
    e48e:	8b 85 d8 ed ff ff    	mov    -0x1228(%rbp),%eax
    e494:	98                   	cwtl   
    e495:	be 07 00 00 00       	mov    $0x7,%esi
    e49a:	89 c7                	mov    %eax,%edi
    e49c:	e8 f1 af ff ff       	callq  9492 <safe_lshift_func_int16_t_s_s>
    e4a1:	98                   	cwtl   
    e4a2:	89 c6                	mov    %eax,%esi
    e4a4:	bf ff ff ff ff       	mov    $0xffffffff,%edi
    e4a9:	e8 1e b2 ff ff       	callq  96cc <safe_mod_func_int32_t_s_s>
    e4ae:	98                   	cwtl   
    e4af:	44 89 ee             	mov    %r13d,%esi
    e4b2:	89 c7                	mov    %eax,%edi
    e4b4:	e8 fa ae ff ff       	callq  93b3 <safe_add_func_int16_t_s_s>
    e4b9:	0f bf d0             	movswl %ax,%edx
    e4bc:	48 8b 85 c8 eb ff ff 	mov    -0x1438(%rbp),%rax
    e4c3:	48 8b 00             	mov    (%rax),%rax
    e4c6:	8b 00                	mov    (%rax),%eax
    e4c8:	39 c2                	cmp    %eax,%edx
    e4ca:	0f 9e c0             	setle  %al
    e4cd:	0f b6 c0             	movzbl %al,%eax
    e4d0:	44 89 e6             	mov    %r12d,%esi
    e4d3:	89 c7                	mov    %eax,%edi
    e4d5:	e8 80 b6 ff ff       	callq  9b5a <safe_add_func_uint8_t_u_u>
    e4da:	89 c2                	mov    %eax,%edx
    e4dc:	48 8b 85 f0 ec ff ff 	mov    -0x1310(%rbp),%rax
    e4e3:	88 10                	mov    %dl,(%rax)
    e4e5:	48 8b 85 f0 ec ff ff 	mov    -0x1310(%rbp),%rax
    e4ec:	0f b6 00             	movzbl (%rax),%eax
    e4ef:	0f be c0             	movsbl %al,%eax
    e4f2:	39 85 6c eb ff ff    	cmp    %eax,-0x1494(%rbp)
    e4f8:	0f 9e c0             	setle  %al
    e4fb:	0f b6 c0             	movzbl %al,%eax
    e4fe:	48 89 de             	mov    %rbx,%rsi
    e501:	48 89 c7             	mov    %rax,%rdi
    e504:	e8 38 b3 ff ff       	callq  9841 <safe_add_func_int64_t_s_s>
    e509:	89 c2                	mov    %eax,%edx
    e50b:	8b 85 9c eb ff ff    	mov    -0x1464(%rbp),%eax
    e511:	89 c6                	mov    %eax,%esi
    e513:	89 d7                	mov    %edx,%edi
    e515:	e8 eb b0 ff ff       	callq  9605 <safe_sub_func_int32_t_s_s>
    e51a:	89 85 78 eb ff ff    	mov    %eax,-0x1488(%rbp)
    e520:	48 8b 05 79 82 01 00 	mov    0x18279(%rip),%rax        # 267a0 <g_1328>
    e527:	48 8b 00             	mov    (%rax),%rax
    e52a:	66 c7 00 f4 29       	movw   $0x29f4,(%rax)
    e52f:	48 8b 85 38 eb ff ff 	mov    -0x14c8(%rbp),%rax
    e536:	be 9b a8 67 cf       	mov    $0xcf67a89b,%esi
    e53b:	89 c7                	mov    %eax,%edi
    e53d:	e8 8a b1 ff ff       	callq  96cc <safe_mod_func_int32_t_s_s>
    e542:	85 c0                	test   %eax,%eax
    e544:	75 0c                	jne    e552 <func_28+0x182f>
    e546:	48 8b 85 38 eb ff ff 	mov    -0x14c8(%rbp),%rax
    e54d:	48 85 c0             	test   %rax,%rax
    e550:	74 07                	je     e559 <func_28+0x1836>
    e552:	b8 01 00 00 00       	mov    $0x1,%eax
    e557:	eb 05                	jmp    e55e <func_28+0x183b>
    e559:	b8 00 00 00 00       	mov    $0x0,%eax
    e55e:	44 31 f8             	xor    %r15d,%eax
    e561:	33 85 9c eb ff ff    	xor    -0x1464(%rbp),%eax
    e567:	44 31 f0             	xor    %r14d,%eax
    e56a:	09 85 a0 eb ff ff    	or     %eax,-0x1460(%rbp)
    e570:	e9 28 0d 00 00       	jmpq   f29d <func_28+0x257a>
    e575:	48 8d 05 70 66 01 00 	lea    0x16670(%rip),%rax        # 24bec <g_2086+0x8c>
    e57c:	48 89 85 08 ec ff ff 	mov    %rax,-0x13f8(%rbp)
    e583:	48 8d 85 08 ec ff ff 	lea    -0x13f8(%rbp),%rax
    e58a:	48 89 85 10 ec ff ff 	mov    %rax,-0x13f0(%rbp)
    e591:	48 8d 85 10 ec ff ff 	lea    -0x13f0(%rbp),%rax
    e598:	48 89 85 98 ec ff ff 	mov    %rax,-0x1368(%rbp)
    e59f:	48 8d 85 c0 ed ff ff 	lea    -0x1240(%rbp),%rax
    e5a6:	48 83 c0 20          	add    $0x20,%rax
    e5aa:	48 89 85 a0 ec ff ff 	mov    %rax,-0x1360(%rbp)
    e5b1:	48 8d 05 68 94 01 00 	lea    0x19468(%rip),%rax        # 27a20 <g_3269>
    e5b8:	48 89 85 a8 ec ff ff 	mov    %rax,-0x1358(%rbp)
    e5bf:	48 c7 85 f0 ed ff ff 	movq   $0x0,-0x1210(%rbp)
    e5c6:	00 00 00 00 
    e5ca:	48 b8 aa a7 60 0d 69 	movabs $0x86f7e1690d60a7aa,%rax
    e5d1:	e1 f7 86 
    e5d4:	48 89 85 f8 ed ff ff 	mov    %rax,-0x1208(%rbp)
    e5db:	48 89 85 00 ee ff ff 	mov    %rax,-0x1200(%rbp)
    e5e2:	48 c7 85 08 ee ff ff 	movq   $0x0,-0x11f8(%rbp)
    e5e9:	00 00 00 00 
    e5ed:	48 89 85 10 ee ff ff 	mov    %rax,-0x11f0(%rbp)
    e5f4:	48 89 85 18 ee ff ff 	mov    %rax,-0x11e8(%rbp)
    e5fb:	48 c7 85 20 ee ff ff 	movq   $0x0,-0x11e0(%rbp)
    e602:	00 00 00 00 
    e606:	c6 85 59 eb ff ff 7c 	movb   $0x7c,-0x14a7(%rbp)
    e60d:	48 8d 85 58 eb ff ff 	lea    -0x14a8(%rbp),%rax
    e614:	48 89 85 b0 ec ff ff 	mov    %rax,-0x1350(%rbp)
    e61b:	c7 85 10 ed ff ff fc 	movl   $0x3abe58fc,-0x12f0(%rbp)
    e622:	58 be 3a 
    e625:	c7 85 14 ed ff ff fc 	movl   $0x3abe58fc,-0x12ec(%rbp)
    e62c:	58 be 3a 
    e62f:	c7 85 18 ed ff ff fc 	movl   $0x3abe58fc,-0x12e8(%rbp)
    e636:	58 be 3a 
    e639:	c7 85 1c ed ff ff fc 	movl   $0x3abe58fc,-0x12e4(%rbp)
    e640:	58 be 3a 
    e643:	c7 85 20 ed ff ff fc 	movl   $0x3abe58fc,-0x12e0(%rbp)
    e64a:	58 be 3a 
    e64d:	48 8d 85 50 f0 ff ff 	lea    -0xfb0(%rbp),%rax
    e654:	48 05 bc 00 00 00    	add    $0xbc,%rax
    e65a:	48 89 85 b8 ec ff ff 	mov    %rax,-0x1348(%rbp)
    e661:	c7 05 79 66 01 00 00 	movl   $0x0,0x16679(%rip)        # 24ce4 <g_3137>
    e668:	00 00 00 
    e66b:	e9 e7 05 00 00       	jmpq   ec57 <func_28+0x1f34>
    e670:	48 8d 05 81 80 01 00 	lea    0x18081(%rip),%rax        # 266f8 <g_635>
    e677:	48 89 85 d0 ec ff ff 	mov    %rax,-0x1330(%rbp)
    e67e:	48 8d 85 10 ec ff ff 	lea    -0x13f0(%rbp),%rax
    e685:	48 89 85 d8 ec ff ff 	mov    %rax,-0x1328(%rbp)
    e68c:	48 8d 05 0d 81 01 00 	lea    0x1810d(%rip),%rax        # 267a0 <g_1328>
    e693:	48 89 85 18 ec ff ff 	mov    %rax,-0x13e8(%rbp)
    e69a:	c7 85 64 eb ff ff 00 	movl   $0x0,-0x149c(%rbp)
    e6a1:	00 00 00 
    e6a4:	eb 1a                	jmp    e6c0 <func_28+0x199d>
    e6a6:	8b 85 64 eb ff ff    	mov    -0x149c(%rbp),%eax
    e6ac:	48 98                	cltq   
    e6ae:	c7 84 85 50 ed ff ff 	movl   $0x84ce3051,-0x12b0(%rbp,%rax,4)
    e6b5:	51 30 ce 84 
    e6b9:	83 85 64 eb ff ff 01 	addl   $0x1,-0x149c(%rbp)
    e6c0:	83 bd 64 eb ff ff 06 	cmpl   $0x6,-0x149c(%rbp)
    e6c7:	7e dd                	jle    e6a6 <func_28+0x1983>
    e6c9:	48 c7 05 14 5c 01 00 	movq   $0xfffffffffffffffe,0x15c14(%rip)        # 242e8 <g_607>
    e6d0:	fe ff ff ff 
    e6d4:	e9 8c 02 00 00       	jmpq   e965 <func_28+0x1c42>
    e6d9:	66 c7 85 5a eb ff ff 	movw   $0xdc48,-0x14a6(%rbp)
    e6e0:	48 dc 
    e6e2:	48 8d 85 e8 eb ff ff 	lea    -0x1418(%rbp),%rax
    e6e9:	48 89 85 e8 ec ff ff 	mov    %rax,-0x1318(%rbp)
    e6f0:	c7 85 94 eb ff ff a3 	movl   $0x4f923ca3,-0x146c(%rbp)
    e6f7:	3c 92 4f 
    e6fa:	c7 85 98 eb ff ff 23 	movl   $0x57c8d823,-0x1468(%rbp)
    e701:	d8 c8 57 
    e704:	8b 85 44 eb ff ff    	mov    -0x14bc(%rbp),%eax
    e70a:	85 c0                	test   %eax,%eax
    e70c:	0f 94 c2             	sete   %dl
    e70f:	48 8b 85 c8 eb ff ff 	mov    -0x1438(%rbp),%rax
    e716:	48 8b 00             	mov    (%rax),%rax
    e719:	0f b6 d2             	movzbl %dl,%edx
    e71c:	89 10                	mov    %edx,(%rax)
    e71e:	48 8b 05 bb 91 01 00 	mov    0x191bb(%rip),%rax        # 278e0 <g_2168>
    e725:	0f b6 00             	movzbl (%rax),%eax
    e728:	44 0f b6 f0          	movzbl %al,%r14d
    e72c:	48 8d 05 75 7f 01 00 	lea    0x17f75(%rip),%rax        # 266a8 <g_93>
    e733:	48 8b 00             	mov    (%rax),%rax
    e736:	48 8b 00             	mov    (%rax),%rax
    e739:	8b 18                	mov    (%rax),%ebx
    e73b:	48 8b 05 9e 91 01 00 	mov    0x1919e(%rip),%rax        # 278e0 <g_2168>
    e742:	0f b6 00             	movzbl (%rax),%eax
    e745:	44 0f b6 e0          	movzbl %al,%r12d
    e749:	8b 85 58 ed ff ff    	mov    -0x12a8(%rbp),%eax
    e74f:	44 0f b7 e8          	movzwl %ax,%r13d
    e753:	8b 85 94 eb ff ff    	mov    -0x146c(%rbp),%eax
    e759:	48 63 d0             	movslq %eax,%rdx
    e75c:	80 bd 40 eb ff ff 00 	cmpb   $0x0,-0x14c0(%rbp)
    e763:	0f 94 c1             	sete   %cl
    e766:	48 8b 85 98 ec ff ff 	mov    -0x1368(%rbp),%rax
    e76d:	48 3b 85 d8 ec ff ff 	cmp    -0x1328(%rbp),%rax
    e774:	0f 94 c0             	sete   %al
    e777:	09 c1                	or     %eax,%ecx
    e779:	48 8b 05 88 92 01 00 	mov    0x19288(%rip),%rax        # 27a08 <g_3272>
    e780:	0f b6 c9             	movzbl %cl,%ecx
    e783:	66 89 08             	mov    %cx,(%rax)
    e786:	0f b7 00             	movzwl (%rax),%eax
    e789:	66 85 c0             	test   %ax,%ax
    e78c:	75 0a                	jne    e798 <func_28+0x1a75>
    e78e:	8b 85 44 eb ff ff    	mov    -0x14bc(%rbp),%eax
    e794:	85 c0                	test   %eax,%eax
    e796:	74 07                	je     e79f <func_28+0x1a7c>
    e798:	b8 01 00 00 00       	mov    $0x1,%eax
    e79d:	eb 05                	jmp    e7a4 <func_28+0x1a81>
    e79f:	b8 00 00 00 00       	mov    $0x0,%eax
    e7a4:	48 98                	cltq   
    e7a6:	48 89 d6             	mov    %rdx,%rsi
    e7a9:	48 89 c7             	mov    %rax,%rdi
    e7ac:	e8 fe b8 ff ff       	callq  a0af <safe_div_func_uint64_t_u_u>
    e7b1:	0f be d0             	movsbl %al,%edx
    e7b4:	48 83 bd d0 ec ff ff 	cmpq   $0x0,-0x1330(%rbp)
    e7bb:	00 
    e7bc:	0f 94 c0             	sete   %al
    e7bf:	0f b6 c0             	movzbl %al,%eax
    e7c2:	89 d6                	mov    %edx,%esi
    e7c4:	89 c7                	mov    %eax,%edi
    e7c6:	e8 47 aa ff ff       	callq  9212 <safe_mul_func_int8_t_s_s>
    e7cb:	0f be d0             	movsbl %al,%edx
    e7ce:	8b 85 60 ed ff ff    	mov    -0x12a0(%rbp),%eax
    e7d4:	31 d0                	xor    %edx,%eax
    e7d6:	48 98                	cltq   
    e7d8:	be 00 00 00 00       	mov    $0x0,%esi
    e7dd:	48 89 c7             	mov    %rax,%rdi
    e7e0:	e8 5c b0 ff ff       	callq  9841 <safe_add_func_int64_t_s_s>
    e7e5:	8b 85 44 eb ff ff    	mov    -0x14bc(%rbp),%eax
    e7eb:	85 c0                	test   %eax,%eax
    e7ed:	44 89 ee             	mov    %r13d,%esi
    e7f0:	bf 00 00 00 00       	mov    $0x0,%edi
    e7f5:	e8 05 b5 ff ff       	callq  9cff <safe_add_func_uint16_t_u_u>
    e7fa:	8b 85 94 eb ff ff    	mov    -0x146c(%rbp),%eax
    e800:	be f9 ff ff ff       	mov    $0xfffffff9,%esi
    e805:	89 c7                	mov    %eax,%edi
    e807:	e8 c0 ae ff ff       	callq  96cc <safe_mod_func_int32_t_s_s>
    e80c:	48 8b 95 e8 eb ff ff 	mov    -0x1418(%rbp),%rdx
    e813:	48 8b 85 e8 ec ff ff 	mov    -0x1318(%rbp),%rax
    e81a:	48 89 10             	mov    %rdx,(%rax)
    e81d:	48 8b 85 e8 ec ff ff 	mov    -0x1318(%rbp),%rax
    e824:	48 8b 10             	mov    (%rax),%rdx
    e827:	48 8d 85 e0 eb ff ff 	lea    -0x1420(%rbp),%rax
    e82e:	48 39 c2             	cmp    %rax,%rdx
    e831:	0f 94 c0             	sete   %al
    e834:	0f b6 c0             	movzbl %al,%eax
    e837:	44 89 e6             	mov    %r12d,%esi
    e83a:	89 c7                	mov    %eax,%edi
    e83c:	e8 52 b3 ff ff       	callq  9b93 <safe_mul_func_uint8_t_u_u>
    e841:	0f b6 c0             	movzbl %al,%eax
    e844:	89 de                	mov    %ebx,%esi
    e846:	89 c7                	mov    %eax,%edi
    e848:	e8 7f ae ff ff       	callq  96cc <safe_mod_func_int32_t_s_s>
    e84d:	66 c7 85 5a eb ff ff 	movw   $0x9,-0x14a6(%rbp)
    e854:	09 00 
    e856:	89 c6                	mov    %eax,%esi
    e858:	bf 09 00 00 00       	mov    $0x9,%edi
    e85d:	e8 54 ad ff ff       	callq  95b6 <safe_add_func_int32_t_s_s>
    e862:	48 8d 85 50 ed ff ff 	lea    -0x12b0(%rbp),%rax
    e869:	48 83 c0 10          	add    $0x10,%rax
    e86d:	48 39 85 a0 ec ff ff 	cmp    %rax,-0x1360(%rbp)
    e874:	0f 95 c0             	setne  %al
    e877:	0f b6 c0             	movzbl %al,%eax
    e87a:	be a8 14 00 00       	mov    $0x14a8,%esi
    e87f:	89 c7                	mov    %eax,%edi
    e881:	e8 90 ab ff ff       	callq  9416 <safe_mod_func_int16_t_s_s>
    e886:	48 0f bf d0          	movswq %ax,%rdx
    e88a:	48 8b 85 38 eb ff ff 	mov    -0x14c8(%rbp),%rax
    e891:	48 31 d0             	xor    %rdx,%rax
    e894:	49 39 c6             	cmp    %rax,%r14
    e897:	48 8b 05 1a 91 01 00 	mov    0x1911a(%rip),%rax        # 279b8 <g_2794>
    e89e:	48 8b 00             	mov    (%rax),%rax
    e8a1:	0f b6 00             	movzbl (%rax),%eax
    e8a4:	84 c0                	test   %al,%al
    e8a6:	74 07                	je     e8af <func_28+0x1b8c>
    e8a8:	ba 01 00 00 00       	mov    $0x1,%edx
    e8ad:	eb 05                	jmp    e8b4 <func_28+0x1b91>
    e8af:	ba 00 00 00 00       	mov    $0x0,%edx
    e8b4:	48 8b 85 a0 ec ff ff 	mov    -0x1360(%rbp),%rax
    e8bb:	8b 00                	mov    (%rax),%eax
    e8bd:	31 c2                	xor    %eax,%edx
    e8bf:	48 8b 85 a0 ec ff ff 	mov    -0x1360(%rbp),%rax
    e8c6:	89 10                	mov    %edx,(%rax)
    e8c8:	48 8b 85 c8 eb ff ff 	mov    -0x1438(%rbp),%rax
    e8cf:	48 8b 00             	mov    (%rax),%rax
    e8d2:	8b 00                	mov    (%rax),%eax
    e8d4:	0f bf d8             	movswl %ax,%ebx
    e8d7:	48 8b 05 da 90 01 00 	mov    0x190da(%rip),%rax        # 279b8 <g_2794>
    e8de:	48 8b 00             	mov    (%rax),%rax
    e8e1:	0f b6 00             	movzbl (%rax),%eax
    e8e4:	0f b6 d0             	movzbl %al,%edx
    e8e7:	8b 85 60 ed ff ff    	mov    -0x12a0(%rbp),%eax
    e8ed:	85 c0                	test   %eax,%eax
    e8ef:	0f 94 c0             	sete   %al
    e8f2:	0f b6 c0             	movzbl %al,%eax
    e8f5:	48 89 85 38 eb ff ff 	mov    %rax,-0x14c8(%rbp)
    e8fc:	8b 85 60 ed ff ff    	mov    -0x12a0(%rbp),%eax
    e902:	85 c0                	test   %eax,%eax
    e904:	74 07                	je     e90d <func_28+0x1bea>
    e906:	b9 01 00 00 00       	mov    $0x1,%ecx
    e90b:	eb 05                	jmp    e912 <func_28+0x1bef>
    e90d:	b9 00 00 00 00       	mov    $0x0,%ecx
    e912:	48 8b 85 d0 ec ff ff 	mov    -0x1330(%rbp),%rax
    e919:	48 8b 00             	mov    (%rax),%rax
    e91c:	88 08                	mov    %cl,(%rax)
    e91e:	0f b6 00             	movzbl (%rax),%eax
    e921:	0f b6 c0             	movzbl %al,%eax
    e924:	89 d6                	mov    %edx,%esi
    e926:	89 c7                	mov    %eax,%edi
    e928:	e8 4b b2 ff ff       	callq  9b78 <safe_sub_func_uint8_t_u_u>
    e92d:	89 de                	mov    %ebx,%esi
    e92f:	bf dd 92 ff ff       	mov    $0xffff92dd,%edi
    e934:	e8 dd aa ff ff       	callq  9416 <safe_mod_func_int16_t_s_s>
    e939:	98                   	cwtl   
    e93a:	89 85 7c eb ff ff    	mov    %eax,-0x1484(%rbp)
    e940:	8b 85 44 eb ff ff    	mov    -0x14bc(%rbp),%eax
    e946:	89 c7                	mov    %eax,%edi
    e948:	e8 49 ac ff ff       	callq  9596 <safe_unary_minus_func_int32_t_s>
    e94d:	89 85 94 eb ff ff    	mov    %eax,-0x146c(%rbp)
    e953:	48 8b 05 8e 59 01 00 	mov    0x1598e(%rip),%rax        # 242e8 <g_607>
    e95a:	48 83 c0 01          	add    $0x1,%rax
    e95e:	48 89 05 83 59 01 00 	mov    %rax,0x15983(%rip)        # 242e8 <g_607>
    e965:	48 8b 05 7c 59 01 00 	mov    0x1597c(%rip),%rax        # 242e8 <g_607>
    e96c:	48 83 f8 28          	cmp    $0x28,%rax
    e970:	0f 87 63 fd ff ff    	ja     e6d9 <func_28+0x19b6>
    e976:	c6 05 75 59 01 00 00 	movb   $0x0,0x15975(%rip)        # 242f2 <g_777>
    e97d:	e9 8c 02 00 00       	jmpq   ec0e <func_28+0x1eeb>
    e982:	48 8d 85 18 ec ff ff 	lea    -0x13e8(%rbp),%rax
    e989:	48 89 85 e0 ec ff ff 	mov    %rax,-0x1320(%rbp)
    e990:	c7 85 90 eb ff ff 00 	movl   $0x0,-0x1470(%rbp)
    e997:	00 00 00 
    e99a:	48 b8 ee 00 ff 39 00 	movabs $0x8a2d5d0039ff00ee,%rax
    e9a1:	5d 2d 8a 
    e9a4:	48 89 85 d0 f4 ff ff 	mov    %rax,-0xb30(%rbp)
    e9ab:	66 c7 85 d8 f4 ff ff 	movw   $0xc405,-0xb28(%rbp)
    e9b2:	05 c4 
    e9b4:	48 b8 10 c4 06 00 ab 	movabs $0xc40600ab0006c410,%rax
    e9bb:	00 06 c4 
    e9be:	48 89 85 da f4 ff ff 	mov    %rax,-0xb26(%rbp)
    e9c5:	66 c7 85 e2 f4 ff ff 	movw   $0x5d10,-0xb1e(%rbp)
    e9cc:	10 5d 
    e9ce:	48 b8 01 39 2f 2d ff 	movabs $0xffee00ff2d2f3901,%rax
    e9d5:	00 ee ff 
    e9d8:	48 89 85 e4 f4 ff ff 	mov    %rax,-0xb1c(%rbp)
    e9df:	66 c7 85 ec f4 ff ff 	movw   $0x1a1,-0xb14(%rbp)
    e9e6:	a1 01 
    e9e8:	48 b8 ee 5d 00 2d fa 	movabs $0x401fffa2d005dee,%rax
    e9ef:	ff 01 04 
    e9f2:	48 89 85 ee f4 ff ff 	mov    %rax,-0xb12(%rbp)
    e9f9:	66 c7 85 f6 f4 ff ff 	movw   $0x3910,-0xb0a(%rbp)
    ea00:	10 39 
    ea02:	48 b8 06 ff 8a 00 ff 	movabs $0xee1014ff008aff06,%rax
    ea09:	14 10 ee 
    ea0c:	48 89 85 f8 f4 ff ff 	mov    %rax,-0xb08(%rbp)
    ea13:	66 c7 85 00 f5 ff ff 	movw   $0x505,-0xb00(%rbp)
    ea1a:	05 05 
    ea1c:	48 b8 2d ee 02 39 39 	movabs $0x2dee02393902ee2d,%rax
    ea23:	02 ee 2d 
    ea26:	48 89 85 02 f5 ff ff 	mov    %rax,-0xafe(%rbp)
    ea2d:	66 c7 85 0a f5 ff ff 	movw   $0x1ff,-0xaf6(%rbp)
    ea34:	ff 01 
    ea36:	48 b8 ae ff 5d ff 06 	movabs $0xcff1006ff5dffae,%rax
    ea3d:	10 ff 0c 
    ea40:	48 89 85 0c f5 ff ff 	mov    %rax,-0xaf4(%rbp)
    ea47:	66 c7 85 14 f5 ff ff 	movw   $0x395d,-0xaec(%rbp)
    ea4e:	5d 39 
    ea50:	48 b8 00 c4 01 8c 8a 	movabs $0xc55aa8a8c01c400,%rax
    ea57:	aa 55 0c 
    ea5a:	48 89 85 16 f5 ff ff 	mov    %rax,-0xaea(%rbp)
    ea61:	66 c7 85 1e f5 ff ff 	movw   $0xffaa,-0xae2(%rbp)
    ea68:	aa ff 
    ea6a:	48 b8 5d 05 01 5d 10 	movabs $0x6c4105d01055d,%rax
    ea71:	c4 06 00 
    ea74:	48 89 85 20 f5 ff ff 	mov    %rax,-0xae0(%rbp)
    ea7b:	66 c7 85 28 f5 ff ff 	movw   $0xab,-0xad8(%rbp)
    ea82:	ab 00 
    ea84:	48 b8 05 a1 ff 00 ff 	movabs $0xf705a1ff00ffa105,%rax
    ea8b:	a1 05 f7 
    ea8e:	48 89 85 2a f5 ff ff 	mov    %rax,-0xad6(%rbp)
    ea95:	66 c7 85 32 f5 ff ff 	movw   $0xfaff,-0xace(%rbp)
    ea9c:	ff fa 
    ea9e:	48 b8 f7 14 fd 00 05 	movabs $0x1000ee0500fd14f7,%rax
    eaa5:	ee 00 10 
    eaa8:	48 89 85 34 f5 ff ff 	mov    %rax,-0xacc(%rbp)
    eaaf:	66 c7 85 3c f5 ff ff 	movw   $0xf7aa,-0xac4(%rbp)
    eab6:	aa f7 
    eab8:	48 b8 0c 14 ab ff 00 	movabs $0xfa050100ffab140c,%rax
    eabf:	01 05 fa 
    eac2:	48 89 85 3e f5 ff ff 	mov    %rax,-0xac2(%rbp)
    eac9:	66 c7 85 46 f5 ff ff 	movw   $0xffff,-0xaba(%rbp)
    ead0:	ff ff 
    ead2:	8b 85 44 eb ff ff    	mov    -0x14bc(%rbp),%eax
    ead8:	41 89 c5             	mov    %eax,%r13d
    eadb:	8b 95 44 eb ff ff    	mov    -0x14bc(%rbp),%edx
    eae1:	48 8b 8d 18 ec ff ff 	mov    -0x13e8(%rbp),%rcx
    eae8:	48 8b 85 e0 ec ff ff 	mov    -0x1320(%rbp),%rax
    eaef:	48 89 08             	mov    %rcx,(%rax)
    eaf2:	48 8b 85 e0 ec ff ff 	mov    -0x1320(%rbp),%rax
    eaf9:	48 8b 00             	mov    (%rax),%rax
    eafc:	48 85 c0             	test   %rax,%rax
    eaff:	0f 94 c0             	sete   %al
    eb02:	0f b6 c0             	movzbl %al,%eax
    eb05:	89 d6                	mov    %edx,%esi
    eb07:	89 c7                	mov    %eax,%edi
    eb09:	e8 3a b3 ff ff       	callq  9e48 <safe_rshift_func_uint16_t_u_s>
    eb0e:	8b 85 d8 ed ff ff    	mov    -0x1228(%rbp),%eax
    eb14:	85 c0                	test   %eax,%eax
    eb16:	0f 85 b7 00 00 00    	jne    ebd3 <func_28+0x1eb0>
    eb1c:	48 8b 85 a0 ec ff ff 	mov    -0x1360(%rbp),%rax
    eb23:	8b 00                	mov    (%rax),%eax
    eb25:	0f bf d8             	movswl %ax,%ebx
    eb28:	48 8b 85 38 eb ff ff 	mov    -0x14c8(%rbp),%rax
    eb2f:	44 0f b7 e0          	movzwl %ax,%r12d
    eb33:	48 8b 05 76 8e 01 00 	mov    0x18e76(%rip),%rax        # 279b0 <g_2637>
    eb3a:	0f b6 10             	movzbl (%rax),%edx
    eb3d:	48 8b 05 6c 8e 01 00 	mov    0x18e6c(%rip),%rax        # 279b0 <g_2637>
    eb44:	83 e2 f8             	and    $0xfffffff8,%edx
    eb47:	88 10                	mov    %dl,(%rax)
    eb49:	8b 85 90 eb ff ff    	mov    -0x1470(%rbp),%eax
    eb4f:	0f b7 d0             	movzwl %ax,%edx
    eb52:	48 8b 85 a8 ec ff ff 	mov    -0x1358(%rbp),%rax
    eb59:	48 89 05 c8 8e 01 00 	mov    %rax,0x18ec8(%rip)        # 27a28 <g_3268>
    eb60:	48 8b 0d c1 8e 01 00 	mov    0x18ec1(%rip),%rcx        # 27a28 <g_3268>
    eb67:	48 8b 85 c8 ef ff ff 	mov    -0x1038(%rbp),%rax
    eb6e:	48 39 c1             	cmp    %rax,%rcx
    eb71:	0f 95 c1             	setne  %cl
    eb74:	48 8b 85 e0 ec ff ff 	mov    -0x1320(%rbp),%rax
    eb7b:	48 8b 00             	mov    (%rax),%rax
    eb7e:	48 8b 00             	mov    (%rax),%rax
    eb81:	48 8b 00             	mov    (%rax),%rax
    eb84:	0f b6 c9             	movzbl %cl,%ecx
    eb87:	66 89 08             	mov    %cx,(%rax)
    eb8a:	0f b7 00             	movzwl (%rax),%eax
    eb8d:	0f b7 c0             	movzwl %ax,%eax
    eb90:	89 d6                	mov    %edx,%esi
    eb92:	89 c7                	mov    %eax,%edi
    eb94:	e8 66 b1 ff ff       	callq  9cff <safe_add_func_uint16_t_u_u>
    eb99:	0f b7 d0             	movzwl %ax,%edx
    eb9c:	48 8b 05 e5 7b 01 00 	mov    0x17be5(%rip),%rax        # 26788 <g_1146>
    eba3:	0f b7 00             	movzwl (%rax),%eax
    eba6:	98                   	cwtl   
    eba7:	39 c2                	cmp    %eax,%edx
    eba9:	0f 9d c0             	setge  %al
    ebac:	0f b6 d0             	movzbl %al,%edx
    ebaf:	48 8b 85 38 eb ff ff 	mov    -0x14c8(%rbp),%rax
    ebb6:	48 39 c2             	cmp    %rax,%rdx
    ebb9:	0f 94 c0             	sete   %al
    ebbc:	0f b6 c0             	movzbl %al,%eax
    ebbf:	44 89 e6             	mov    %r12d,%esi
    ebc2:	89 c7                	mov    %eax,%edi
    ebc4:	e8 93 b1 ff ff       	callq  9d5c <safe_mod_func_uint16_t_u_u>
    ebc9:	98                   	cwtl   
    ebca:	89 de                	mov    %ebx,%esi
    ebcc:	89 c7                	mov    %eax,%edi
    ebce:	e8 22 a8 ff ff       	callq  93f5 <safe_mul_func_int16_t_s_s>
    ebd3:	44 89 ee             	mov    %r13d,%esi
    ebd6:	bf 00 00 00 00       	mov    $0x0,%edi
    ebdb:	e8 9a b2 ff ff       	callq  9e7a <safe_rshift_func_uint16_t_u_u>
    ebe0:	0f b7 c0             	movzwl %ax,%eax
    ebe3:	be 0f 00 00 00       	mov    $0xf,%esi
    ebe8:	89 c7                	mov    %eax,%edi
    ebea:	e8 cf b1 ff ff       	callq  9dbe <safe_lshift_func_uint16_t_u_s>
    ebef:	0f b6 95 42 f5 ff ff 	movzbl -0xabe(%rbp),%edx
    ebf6:	09 d0                	or     %edx,%eax
    ebf8:	88 85 42 f5 ff ff    	mov    %al,-0xabe(%rbp)
    ebfe:	0f b6 05 ed 56 01 00 	movzbl 0x156ed(%rip),%eax        # 242f2 <g_777>
    ec05:	83 c0 01             	add    $0x1,%eax
    ec08:	88 05 e4 56 01 00    	mov    %al,0x156e4(%rip)        # 242f2 <g_777>
    ec0e:	0f b6 05 dd 56 01 00 	movzbl 0x156dd(%rip),%eax        # 242f2 <g_777>
    ec15:	3c 03                	cmp    $0x3,%al
    ec17:	0f 86 65 fd ff ff    	jbe    e982 <func_28+0x1c5f>
    ec1d:	8b 85 44 eb ff ff    	mov    -0x14bc(%rbp),%eax
    ec23:	48 63 d0             	movslq %eax,%rdx
    ec26:	48 8b 85 38 eb ff ff 	mov    -0x14c8(%rbp),%rax
    ec2d:	48 39 c2             	cmp    %rax,%rdx
    ec30:	0f 95 c2             	setne  %dl
    ec33:	48 8b 05 7e 7a 01 00 	mov    0x17a7e(%rip),%rax        # 266b8 <g_191>
    ec3a:	48 8b 00             	mov    (%rax),%rax
    ec3d:	48 8b 00             	mov    (%rax),%rax
    ec40:	48 8b 00             	mov    (%rax),%rax
    ec43:	0f b6 d2             	movzbl %dl,%edx
    ec46:	89 10                	mov    %edx,(%rax)
    ec48:	8b 05 96 60 01 00    	mov    0x16096(%rip),%eax        # 24ce4 <g_3137>
    ec4e:	83 e8 01             	sub    $0x1,%eax
    ec51:	89 05 8d 60 01 00    	mov    %eax,0x1608d(%rip)        # 24ce4 <g_3137>
    ec57:	8b 05 87 60 01 00    	mov    0x16087(%rip),%eax        # 24ce4 <g_3137>
    ec5d:	83 f8 e5             	cmp    $0xffffffe5,%eax
    ec60:	0f 8d 0a fa ff ff    	jge    e670 <func_28+0x194d>
    ec66:	c7 05 e8 54 01 00 eb 	movl   $0xffffffeb,0x154e8(%rip)        # 24158 <g_78>
    ec6d:	ff ff ff 
    ec70:	e9 0f 06 00 00       	jmpq   f284 <func_28+0x2561>
    ec75:	48 b8 a7 4b 4b 41 52 	movabs $0xfcde3352414b4ba7,%rax
    ec7c:	33 de fc 
    ec7f:	48 89 85 c0 ec ff ff 	mov    %rax,-0x1340(%rbp)
    ec86:	48 8d 05 4c 56 01 00 	lea    0x1564c(%rip),%rax        # 242d9 <g_539+0x1>
    ec8d:	48 89 85 d0 f4 ff ff 	mov    %rax,-0xb30(%rbp)
    ec94:	48 8d 85 58 eb ff ff 	lea    -0x14a8(%rbp),%rax
    ec9b:	48 89 85 d8 f4 ff ff 	mov    %rax,-0xb28(%rbp)
    eca2:	48 8d 85 58 eb ff ff 	lea    -0x14a8(%rbp),%rax
    eca9:	48 89 85 e0 f4 ff ff 	mov    %rax,-0xb20(%rbp)
    ecb0:	48 8d 05 31 57 01 00 	lea    0x15731(%rip),%rax        # 243e8 <g_1959>
    ecb7:	48 89 85 e8 f4 ff ff 	mov    %rax,-0xb18(%rbp)
    ecbe:	48 8d 05 23 57 01 00 	lea    0x15723(%rip),%rax        # 243e8 <g_1959>
    ecc5:	48 89 85 f0 f4 ff ff 	mov    %rax,-0xb10(%rbp)
    eccc:	48 8d 85 58 eb ff ff 	lea    -0x14a8(%rbp),%rax
    ecd3:	48 89 85 f8 f4 ff ff 	mov    %rax,-0xb08(%rbp)
    ecda:	48 8d 05 f8 55 01 00 	lea    0x155f8(%rip),%rax        # 242d9 <g_539+0x1>
    ece1:	48 89 85 00 f5 ff ff 	mov    %rax,-0xb00(%rbp)
    ece8:	48 c7 85 08 f5 ff ff 	movq   $0x0,-0xaf8(%rbp)
    ecef:	00 00 00 00 
    ecf3:	48 8d 05 df 55 01 00 	lea    0x155df(%rip),%rax        # 242d9 <g_539+0x1>
    ecfa:	48 89 85 10 f5 ff ff 	mov    %rax,-0xaf0(%rbp)
    ed01:	48 c7 85 18 f5 ff ff 	movq   $0x0,-0xae8(%rbp)
    ed08:	00 00 00 00 
    ed0c:	48 8d 05 d5 56 01 00 	lea    0x156d5(%rip),%rax        # 243e8 <g_1959>
    ed13:	48 89 85 20 f5 ff ff 	mov    %rax,-0xae0(%rbp)
    ed1a:	48 c7 85 28 f5 ff ff 	movq   $0x0,-0xad8(%rbp)
    ed21:	00 00 00 00 
    ed25:	48 8d 05 b0 55 01 00 	lea    0x155b0(%rip),%rax        # 242dc <g_539+0x4>
    ed2c:	48 89 85 30 f5 ff ff 	mov    %rax,-0xad0(%rbp)
    ed33:	48 8d 85 58 eb ff ff 	lea    -0x14a8(%rbp),%rax
    ed3a:	48 89 85 38 f5 ff ff 	mov    %rax,-0xac8(%rbp)
    ed41:	48 8d 05 a0 56 01 00 	lea    0x156a0(%rip),%rax        # 243e8 <g_1959>
    ed48:	48 89 85 40 f5 ff ff 	mov    %rax,-0xac0(%rbp)
    ed4f:	48 8d 05 83 55 01 00 	lea    0x15583(%rip),%rax        # 242d9 <g_539+0x1>
    ed56:	48 89 85 48 f5 ff ff 	mov    %rax,-0xab8(%rbp)
    ed5d:	48 c7 85 50 f5 ff ff 	movq   $0x0,-0xab0(%rbp)
    ed64:	00 00 00 00 
    ed68:	48 c7 85 58 f5 ff ff 	movq   $0x0,-0xaa8(%rbp)
    ed6f:	00 00 00 00 
    ed73:	48 8d 05 6e 56 01 00 	lea    0x1566e(%rip),%rax        # 243e8 <g_1959>
    ed7a:	48 89 85 60 f5 ff ff 	mov    %rax,-0xaa0(%rbp)
    ed81:	48 8d 05 52 55 01 00 	lea    0x15552(%rip),%rax        # 242da <g_539+0x2>
    ed88:	48 89 85 68 f5 ff ff 	mov    %rax,-0xa98(%rbp)
    ed8f:	48 8d 05 43 55 01 00 	lea    0x15543(%rip),%rax        # 242d9 <g_539+0x1>
    ed96:	48 89 85 70 f5 ff ff 	mov    %rax,-0xa90(%rbp)
    ed9d:	48 c7 85 78 f5 ff ff 	movq   $0x0,-0xa88(%rbp)
    eda4:	00 00 00 00 
    eda8:	48 8d 05 2a 55 01 00 	lea    0x1552a(%rip),%rax        # 242d9 <g_539+0x1>
    edaf:	48 89 85 80 f5 ff ff 	mov    %rax,-0xa80(%rbp)
    edb6:	48 8d 85 58 eb ff ff 	lea    -0x14a8(%rbp),%rax
    edbd:	48 89 85 88 f5 ff ff 	mov    %rax,-0xa78(%rbp)
    edc4:	48 8d 05 1d 56 01 00 	lea    0x1561d(%rip),%rax        # 243e8 <g_1959>
    edcb:	48 89 85 90 f5 ff ff 	mov    %rax,-0xa70(%rbp)
    edd2:	48 8d 05 0f 56 01 00 	lea    0x1560f(%rip),%rax        # 243e8 <g_1959>
    edd9:	48 89 85 98 f5 ff ff 	mov    %rax,-0xa68(%rbp)
    ede0:	48 8d 85 58 eb ff ff 	lea    -0x14a8(%rbp),%rax
    ede7:	48 89 85 a0 f5 ff ff 	mov    %rax,-0xa60(%rbp)
    edee:	48 8d 05 e4 54 01 00 	lea    0x154e4(%rip),%rax        # 242d9 <g_539+0x1>
    edf5:	48 89 85 a8 f5 ff ff 	mov    %rax,-0xa58(%rbp)
    edfc:	48 c7 85 b0 f5 ff ff 	movq   $0x0,-0xa50(%rbp)
    ee03:	00 00 00 00 
    ee07:	48 8d 05 e3 54 01 00 	lea    0x154e3(%rip),%rax        # 242f1 <g_771>
    ee0e:	48 89 85 b8 f5 ff ff 	mov    %rax,-0xa48(%rbp)
    ee15:	48 8d 05 c0 54 01 00 	lea    0x154c0(%rip),%rax        # 242dc <g_539+0x4>
    ee1c:	48 89 85 c0 f5 ff ff 	mov    %rax,-0xa40(%rbp)
    ee23:	48 8d 05 be 55 01 00 	lea    0x155be(%rip),%rax        # 243e8 <g_1959>
    ee2a:	48 89 85 c8 f5 ff ff 	mov    %rax,-0xa38(%rbp)
    ee31:	48 8d 05 a4 54 01 00 	lea    0x154a4(%rip),%rax        # 242dc <g_539+0x4>
    ee38:	48 89 85 d0 f5 ff ff 	mov    %rax,-0xa30(%rbp)
    ee3f:	48 c7 85 d8 f5 ff ff 	movq   $0x0,-0xa28(%rbp)
    ee46:	00 00 00 00 
    ee4a:	48 8d 05 88 54 01 00 	lea    0x15488(%rip),%rax        # 242d9 <g_539+0x1>
    ee51:	48 89 85 e0 f5 ff ff 	mov    %rax,-0xa20(%rbp)
    ee58:	48 8d 05 89 55 01 00 	lea    0x15589(%rip),%rax        # 243e8 <g_1959>
    ee5f:	48 89 85 e8 f5 ff ff 	mov    %rax,-0xa18(%rbp)
    ee66:	48 8d 05 6c 54 01 00 	lea    0x1546c(%rip),%rax        # 242d9 <g_539+0x1>
    ee6d:	48 89 85 f0 f5 ff ff 	mov    %rax,-0xa10(%rbp)
    ee74:	48 8d 05 5f 54 01 00 	lea    0x1545f(%rip),%rax        # 242da <g_539+0x2>
    ee7b:	48 89 85 f8 f5 ff ff 	mov    %rax,-0xa08(%rbp)
    ee82:	48 8d 05 53 54 01 00 	lea    0x15453(%rip),%rax        # 242dc <g_539+0x4>
    ee89:	48 89 85 00 f6 ff ff 	mov    %rax,-0xa00(%rbp)
    ee90:	48 8d 05 51 55 01 00 	lea    0x15551(%rip),%rax        # 243e8 <g_1959>
    ee97:	48 89 85 08 f6 ff ff 	mov    %rax,-0x9f8(%rbp)
    ee9e:	48 c7 85 10 f6 ff ff 	movq   $0x0,-0x9f0(%rbp)
    eea5:	00 00 00 00 
    eea9:	48 8d 05 41 54 01 00 	lea    0x15441(%rip),%rax        # 242f1 <g_771>
    eeb0:	48 89 85 18 f6 ff ff 	mov    %rax,-0x9e8(%rbp)
    eeb7:	48 8d 05 1b 54 01 00 	lea    0x1541b(%rip),%rax        # 242d9 <g_539+0x1>
    eebe:	48 89 85 20 f6 ff ff 	mov    %rax,-0x9e0(%rbp)
    eec5:	48 8d 85 58 eb ff ff 	lea    -0x14a8(%rbp),%rax
    eecc:	48 89 85 28 f6 ff ff 	mov    %rax,-0x9d8(%rbp)
    eed3:	48 8d 85 58 eb ff ff 	lea    -0x14a8(%rbp),%rax
    eeda:	48 89 85 30 f6 ff ff 	mov    %rax,-0x9d0(%rbp)
    eee1:	48 8d 05 00 55 01 00 	lea    0x15500(%rip),%rax        # 243e8 <g_1959>
    eee8:	48 89 85 38 f6 ff ff 	mov    %rax,-0x9c8(%rbp)
    eeef:	48 8d 05 f2 54 01 00 	lea    0x154f2(%rip),%rax        # 243e8 <g_1959>
    eef6:	48 89 85 40 f6 ff ff 	mov    %rax,-0x9c0(%rbp)
    eefd:	48 8d 85 58 eb ff ff 	lea    -0x14a8(%rbp),%rax
    ef04:	48 89 85 48 f6 ff ff 	mov    %rax,-0x9b8(%rbp)
    ef0b:	48 8d 05 c7 53 01 00 	lea    0x153c7(%rip),%rax        # 242d9 <g_539+0x1>
    ef12:	48 89 85 50 f6 ff ff 	mov    %rax,-0x9b0(%rbp)
    ef19:	48 c7 85 58 f6 ff ff 	movq   $0x0,-0x9a8(%rbp)
    ef20:	00 00 00 00 
    ef24:	48 8d 05 ae 53 01 00 	lea    0x153ae(%rip),%rax        # 242d9 <g_539+0x1>
    ef2b:	48 89 85 60 f6 ff ff 	mov    %rax,-0x9a0(%rbp)
    ef32:	48 c7 85 68 f6 ff ff 	movq   $0x0,-0x998(%rbp)
    ef39:	00 00 00 00 
    ef3d:	48 8d 05 a4 54 01 00 	lea    0x154a4(%rip),%rax        # 243e8 <g_1959>
    ef44:	48 89 85 70 f6 ff ff 	mov    %rax,-0x990(%rbp)
    ef4b:	48 c7 85 78 f6 ff ff 	movq   $0x0,-0x988(%rbp)
    ef52:	00 00 00 00 
    ef56:	48 8d 05 7f 53 01 00 	lea    0x1537f(%rip),%rax        # 242dc <g_539+0x4>
    ef5d:	48 89 85 80 f6 ff ff 	mov    %rax,-0x980(%rbp)
    ef64:	48 8d 85 58 eb ff ff 	lea    -0x14a8(%rbp),%rax
    ef6b:	48 89 85 88 f6 ff ff 	mov    %rax,-0x978(%rbp)
    ef72:	48 8d 05 6f 54 01 00 	lea    0x1546f(%rip),%rax        # 243e8 <g_1959>
    ef79:	48 89 85 90 f6 ff ff 	mov    %rax,-0x970(%rbp)
    ef80:	48 8d 05 52 53 01 00 	lea    0x15352(%rip),%rax        # 242d9 <g_539+0x1>
    ef87:	48 89 85 98 f6 ff ff 	mov    %rax,-0x968(%rbp)
    ef8e:	48 c7 85 a0 f6 ff ff 	movq   $0x0,-0x960(%rbp)
    ef95:	00 00 00 00 
    ef99:	48 c7 85 a8 f6 ff ff 	movq   $0x0,-0x958(%rbp)
    efa0:	00 00 00 00 
    efa4:	48 8d 05 3d 54 01 00 	lea    0x1543d(%rip),%rax        # 243e8 <g_1959>
    efab:	48 89 85 b0 f6 ff ff 	mov    %rax,-0x950(%rbp)
    efb2:	48 8d 05 21 53 01 00 	lea    0x15321(%rip),%rax        # 242da <g_539+0x2>
    efb9:	48 89 85 b8 f6 ff ff 	mov    %rax,-0x948(%rbp)
    efc0:	48 8d 05 12 53 01 00 	lea    0x15312(%rip),%rax        # 242d9 <g_539+0x1>
    efc7:	48 89 85 c0 f6 ff ff 	mov    %rax,-0x940(%rbp)
    efce:	48 c7 85 c8 f6 ff ff 	movq   $0x0,-0x938(%rbp)
    efd5:	00 00 00 00 
    efd9:	48 8d 05 f9 52 01 00 	lea    0x152f9(%rip),%rax        # 242d9 <g_539+0x1>
    efe0:	48 89 85 d0 f6 ff ff 	mov    %rax,-0x930(%rbp)
    efe7:	48 8d 85 58 eb ff ff 	lea    -0x14a8(%rbp),%rax
    efee:	48 89 85 d8 f6 ff ff 	mov    %rax,-0x928(%rbp)
    eff5:	48 8d 05 ec 53 01 00 	lea    0x153ec(%rip),%rax        # 243e8 <g_1959>
    effc:	48 89 85 e0 f6 ff ff 	mov    %rax,-0x920(%rbp)
    f003:	48 8d 05 de 53 01 00 	lea    0x153de(%rip),%rax        # 243e8 <g_1959>
    f00a:	48 89 85 e8 f6 ff ff 	mov    %rax,-0x918(%rbp)
    f011:	48 8d 85 58 eb ff ff 	lea    -0x14a8(%rbp),%rax
    f018:	48 89 85 f0 f6 ff ff 	mov    %rax,-0x910(%rbp)
    f01f:	48 8d 05 b3 52 01 00 	lea    0x152b3(%rip),%rax        # 242d9 <g_539+0x1>
    f026:	48 89 85 f8 f6 ff ff 	mov    %rax,-0x908(%rbp)
    f02d:	48 c7 85 00 f7 ff ff 	movq   $0x0,-0x900(%rbp)
    f034:	00 00 00 00 
    f038:	48 8d 05 b2 52 01 00 	lea    0x152b2(%rip),%rax        # 242f1 <g_771>
    f03f:	48 89 85 08 f7 ff ff 	mov    %rax,-0x8f8(%rbp)
    f046:	48 8d 05 8f 52 01 00 	lea    0x1528f(%rip),%rax        # 242dc <g_539+0x4>
    f04d:	48 89 85 10 f7 ff ff 	mov    %rax,-0x8f0(%rbp)
    f054:	48 8d 05 8d 53 01 00 	lea    0x1538d(%rip),%rax        # 243e8 <g_1959>
    f05b:	48 89 85 18 f7 ff ff 	mov    %rax,-0x8e8(%rbp)
    f062:	48 8d 05 73 52 01 00 	lea    0x15273(%rip),%rax        # 242dc <g_539+0x4>
    f069:	48 89 85 20 f7 ff ff 	mov    %rax,-0x8e0(%rbp)
    f070:	48 c7 85 28 f7 ff ff 	movq   $0x0,-0x8d8(%rbp)
    f077:	00 00 00 00 
    f07b:	48 8d 05 57 52 01 00 	lea    0x15257(%rip),%rax        # 242d9 <g_539+0x1>
    f082:	48 89 85 30 f7 ff ff 	mov    %rax,-0x8d0(%rbp)
    f089:	48 8d 05 58 53 01 00 	lea    0x15358(%rip),%rax        # 243e8 <g_1959>
    f090:	48 89 85 38 f7 ff ff 	mov    %rax,-0x8c8(%rbp)
    f097:	48 8d 05 3b 52 01 00 	lea    0x1523b(%rip),%rax        # 242d9 <g_539+0x1>
    f09e:	48 89 85 40 f7 ff ff 	mov    %rax,-0x8c0(%rbp)
    f0a5:	48 8d 05 2e 52 01 00 	lea    0x1522e(%rip),%rax        # 242da <g_539+0x2>
    f0ac:	48 89 85 48 f7 ff ff 	mov    %rax,-0x8b8(%rbp)
    f0b3:	48 8d 05 22 52 01 00 	lea    0x15222(%rip),%rax        # 242dc <g_539+0x4>
    f0ba:	48 89 85 50 f7 ff ff 	mov    %rax,-0x8b0(%rbp)
    f0c1:	48 8d 05 20 53 01 00 	lea    0x15320(%rip),%rax        # 243e8 <g_1959>
    f0c8:	48 89 85 58 f7 ff ff 	mov    %rax,-0x8a8(%rbp)
    f0cf:	48 c7 85 60 f7 ff ff 	movq   $0x0,-0x8a0(%rbp)
    f0d6:	00 00 00 00 
    f0da:	48 8d 05 10 52 01 00 	lea    0x15210(%rip),%rax        # 242f1 <g_771>
    f0e1:	48 89 85 68 f7 ff ff 	mov    %rax,-0x898(%rbp)
    f0e8:	48 8d 05 ea 51 01 00 	lea    0x151ea(%rip),%rax        # 242d9 <g_539+0x1>
    f0ef:	48 89 85 70 f7 ff ff 	mov    %rax,-0x890(%rbp)
    f0f6:	48 8d 85 58 eb ff ff 	lea    -0x14a8(%rbp),%rax
    f0fd:	48 89 85 78 f7 ff ff 	mov    %rax,-0x888(%rbp)
    f104:	48 8d 85 58 eb ff ff 	lea    -0x14a8(%rbp),%rax
    f10b:	48 89 85 80 f7 ff ff 	mov    %rax,-0x880(%rbp)
    f112:	48 8d 05 cf 52 01 00 	lea    0x152cf(%rip),%rax        # 243e8 <g_1959>
    f119:	48 89 85 88 f7 ff ff 	mov    %rax,-0x878(%rbp)
    f120:	48 8d 05 c1 52 01 00 	lea    0x152c1(%rip),%rax        # 243e8 <g_1959>
    f127:	48 89 85 90 f7 ff ff 	mov    %rax,-0x870(%rbp)
    f12e:	48 8d 85 58 eb ff ff 	lea    -0x14a8(%rbp),%rax
    f135:	48 89 85 98 f7 ff ff 	mov    %rax,-0x868(%rbp)
    f13c:	48 8d 05 96 51 01 00 	lea    0x15196(%rip),%rax        # 242d9 <g_539+0x1>
    f143:	48 89 85 a0 f7 ff ff 	mov    %rax,-0x860(%rbp)
    f14a:	48 c7 85 a8 f7 ff ff 	movq   $0x0,-0x858(%rbp)
    f151:	00 00 00 00 
    f155:	48 8d 05 7d 51 01 00 	lea    0x1517d(%rip),%rax        # 242d9 <g_539+0x1>
    f15c:	48 89 85 b0 f7 ff ff 	mov    %rax,-0x850(%rbp)
    f163:	48 c7 85 b8 f7 ff ff 	movq   $0x0,-0x848(%rbp)
    f16a:	00 00 00 00 
    f16e:	48 8d 05 73 52 01 00 	lea    0x15273(%rip),%rax        # 243e8 <g_1959>
    f175:	48 89 85 c0 f7 ff ff 	mov    %rax,-0x840(%rbp)
    f17c:	48 c7 85 c8 f7 ff ff 	movq   $0x0,-0x838(%rbp)
    f183:	00 00 00 00 
    f187:	48 8d 05 4e 51 01 00 	lea    0x1514e(%rip),%rax        # 242dc <g_539+0x4>
    f18e:	48 89 85 d0 f7 ff ff 	mov    %rax,-0x830(%rbp)
    f195:	48 8d 85 58 eb ff ff 	lea    -0x14a8(%rbp),%rax
    f19c:	48 89 85 d8 f7 ff ff 	mov    %rax,-0x828(%rbp)
    f1a3:	48 8d 05 3e 52 01 00 	lea    0x1523e(%rip),%rax        # 243e8 <g_1959>
    f1aa:	48 89 85 e0 f7 ff ff 	mov    %rax,-0x820(%rbp)
    f1b1:	48 8d 05 21 51 01 00 	lea    0x15121(%rip),%rax        # 242d9 <g_539+0x1>
    f1b8:	48 89 85 e8 f7 ff ff 	mov    %rax,-0x818(%rbp)
    f1bf:	48 c7 85 f0 f7 ff ff 	movq   $0x0,-0x810(%rbp)
    f1c6:	00 00 00 00 
    f1ca:	48 c7 85 f8 f7 ff ff 	movq   $0x0,-0x808(%rbp)
    f1d1:	00 00 00 00 
    f1d5:	48 8d 05 0c 52 01 00 	lea    0x1520c(%rip),%rax        # 243e8 <g_1959>
    f1dc:	48 89 85 00 f8 ff ff 	mov    %rax,-0x800(%rbp)
    f1e3:	48 8d 05 f0 50 01 00 	lea    0x150f0(%rip),%rax        # 242da <g_539+0x2>
    f1ea:	48 89 85 08 f8 ff ff 	mov    %rax,-0x7f8(%rbp)
    f1f1:	48 8d 05 e1 50 01 00 	lea    0x150e1(%rip),%rax        # 242d9 <g_539+0x1>
    f1f8:	48 89 85 10 f8 ff ff 	mov    %rax,-0x7f0(%rbp)
    f1ff:	48 c7 85 18 f8 ff ff 	movq   $0x0,-0x7e8(%rbp)
    f206:	00 00 00 00 
    f20a:	48 8d 05 c8 50 01 00 	lea    0x150c8(%rip),%rax        # 242d9 <g_539+0x1>
    f211:	48 89 85 20 f8 ff ff 	mov    %rax,-0x7e0(%rbp)
    f218:	48 8d 85 58 eb ff ff 	lea    -0x14a8(%rbp),%rax
    f21f:	48 89 85 28 f8 ff ff 	mov    %rax,-0x7d8(%rbp)
    f226:	48 8d 05 bb 51 01 00 	lea    0x151bb(%rip),%rax        # 243e8 <g_1959>
    f22d:	48 89 85 18 ec ff ff 	mov    %rax,-0x13e8(%rbp)
    f234:	48 8d 85 18 ec ff ff 	lea    -0x13e8(%rbp),%rax
    f23b:	48 89 85 c8 ec ff ff 	mov    %rax,-0x1338(%rbp)
    f242:	c7 85 80 eb ff ff 01 	movl   $0x1,-0x1480(%rbp)
    f249:	00 00 00 
    f24c:	c7 85 84 eb ff ff 08 	movl   $0x8,-0x147c(%rbp)
    f253:	00 00 00 
    f256:	c7 85 88 eb ff ff 38 	movl   $0x9bd2d138,-0x1478(%rbp)
    f25d:	d1 d2 9b 
    f260:	c7 85 8c eb ff ff 20 	movl   $0x90d35b20,-0x1474(%rbp)
    f267:	5b d3 90 
    f26a:	8b 05 e8 4e 01 00    	mov    0x14ee8(%rip),%eax        # 24158 <g_78>
    f270:	98                   	cwtl   
    f271:	be 03 00 00 00       	mov    $0x3,%esi
    f276:	89 c7                	mov    %eax,%edi
    f278:	e8 36 a1 ff ff       	callq  93b3 <safe_add_func_int16_t_s_s>
    f27d:	98                   	cwtl   
    f27e:	89 05 d4 4e 01 00    	mov    %eax,0x14ed4(%rip)        # 24158 <g_78>
    f284:	8b 05 ce 4e 01 00    	mov    0x14ece(%rip),%eax        # 24158 <g_78>
    f28a:	83 f8 06             	cmp    $0x6,%eax
    f28d:	0f 85 e2 f9 ff ff    	jne    ec75 <func_28+0x1f52>
    f293:	eb 08                	jmp    f29d <func_28+0x257a>
    f295:	8b 85 44 eb ff ff    	mov    -0x14bc(%rbp),%eax
    f29b:	eb 37                	jmp    f2d4 <func_28+0x25b1>
    f29d:	8b 85 58 ee ff ff    	mov    -0x11a8(%rbp),%eax
    f2a3:	85 c0                	test   %eax,%eax
    f2a5:	75 25                	jne    f2cc <func_28+0x25a9>
    f2a7:	48 8b 05 ba 4e 01 00 	mov    0x14eba(%rip),%rax        # 24168 <g_126>
    f2ae:	48 83 c0 01          	add    $0x1,%rax
    f2b2:	48 89 05 af 4e 01 00 	mov    %rax,0x14eaf(%rip)        # 24168 <g_126>
    f2b9:	48 8b 05 a8 4e 01 00 	mov    0x14ea8(%rip),%rax        # 24168 <g_126>
    f2c0:	48 83 f8 26          	cmp    $0x26,%rax
    f2c4:	0f 87 40 dd ff ff    	ja     d00a <func_28+0x2e7>
    f2ca:	eb 01                	jmp    f2cd <func_28+0x25aa>
    f2cc:	90                   	nop
    f2cd:	48 8b 85 38 eb ff ff 	mov    -0x14c8(%rbp),%rax
    f2d4:	48 8b 5d c8          	mov    -0x38(%rbp),%rbx
    f2d8:	64 48 33 1c 25 28 00 	xor    %fs:0x28,%rbx
    f2df:	00 00 
    f2e1:	74 05                	je     f2e8 <func_28+0x25c5>
    f2e3:	e8 88 9d ff ff       	callq  9070 <__stack_chk_fail@plt>
    f2e8:	48 81 c4 a8 14 00 00 	add    $0x14a8,%rsp
    f2ef:	5b                   	pop    %rbx
    f2f0:	41 5c                	pop    %r12
    f2f2:	41 5d                	pop    %r13
    f2f4:	41 5e                	pop    %r14
    f2f6:	41 5f                	pop    %r15
    f2f8:	5d                   	pop    %rbp
    f2f9:	c3                   	retq   

000000000000f2fa <func_45>:
    f2fa:	f3 0f 1e fa          	endbr64 
    f2fe:	55                   	push   %rbp
    f2ff:	48 89 e5             	mov    %rsp,%rbp
    f302:	48 81 ec d0 0b 00 00 	sub    $0xbd0,%rsp
    f309:	48 89 bd 48 f4 ff ff 	mov    %rdi,-0xbb8(%rbp)
    f310:	89 b5 44 f4 ff ff    	mov    %esi,-0xbbc(%rbp)
    f316:	48 89 95 38 f4 ff ff 	mov    %rdx,-0xbc8(%rbp)
    f31d:	64 48 8b 04 25 28 00 	mov    %fs:0x28,%rax
    f324:	00 00 
    f326:	48 89 45 f8          	mov    %rax,-0x8(%rbp)
    f32a:	31 c0                	xor    %eax,%eax
    f32c:	c7 85 60 f4 ff ff 1a 	movl   $0xec151d1a,-0xba0(%rbp)
    f333:	1d 15 ec 
    f336:	48 8d 05 0b 94 01 00 	lea    0x1940b(%rip),%rax        # 28748 <g_19>
    f33d:	48 89 85 88 f4 ff ff 	mov    %rax,-0xb78(%rbp)
    f344:	48 8d 05 9d 4f 01 00 	lea    0x14f9d(%rip),%rax        # 242e8 <g_607>
    f34b:	48 89 85 c8 f4 ff ff 	mov    %rax,-0xb38(%rbp)
    f352:	c7 85 64 f4 ff ff a1 	movl   $0x1b9015a1,-0xb9c(%rbp)
    f359:	15 90 1b 
    f35c:	48 8d 85 88 f4 ff ff 	lea    -0xb78(%rbp),%rax
    f363:	48 89 85 d0 f4 ff ff 	mov    %rax,-0xb30(%rbp)
    f36a:	48 8d 05 87 73 01 00 	lea    0x17387(%rip),%rax        # 266f8 <g_635>
    f371:	48 89 85 90 f4 ff ff 	mov    %rax,-0xb70(%rbp)
    f378:	48 8d 85 90 f4 ff ff 	lea    -0xb70(%rbp),%rax
    f37f:	48 89 85 b0 f7 ff ff 	mov    %rax,-0x850(%rbp)
    f386:	48 8d 85 90 f4 ff ff 	lea    -0xb70(%rbp),%rax
    f38d:	48 89 85 b8 f7 ff ff 	mov    %rax,-0x848(%rbp)
    f394:	48 8d 85 90 f4 ff ff 	lea    -0xb70(%rbp),%rax
    f39b:	48 89 85 c0 f7 ff ff 	mov    %rax,-0x840(%rbp)
    f3a2:	48 8d 85 90 f4 ff ff 	lea    -0xb70(%rbp),%rax
    f3a9:	48 89 85 c8 f7 ff ff 	mov    %rax,-0x838(%rbp)
    f3b0:	48 8d 85 90 f4 ff ff 	lea    -0xb70(%rbp),%rax
    f3b7:	48 89 85 d0 f7 ff ff 	mov    %rax,-0x830(%rbp)
    f3be:	48 8d 85 90 f4 ff ff 	lea    -0xb70(%rbp),%rax
    f3c5:	48 89 85 d8 f7 ff ff 	mov    %rax,-0x828(%rbp)
    f3cc:	48 8d 85 90 f4 ff ff 	lea    -0xb70(%rbp),%rax
    f3d3:	48 89 85 e0 f7 ff ff 	mov    %rax,-0x820(%rbp)
    f3da:	48 8d 85 90 f4 ff ff 	lea    -0xb70(%rbp),%rax
    f3e1:	48 89 85 e8 f7 ff ff 	mov    %rax,-0x818(%rbp)
    f3e8:	48 8d 85 90 f4 ff ff 	lea    -0xb70(%rbp),%rax
    f3ef:	48 89 85 f0 f7 ff ff 	mov    %rax,-0x810(%rbp)
    f3f6:	48 8d 85 90 f4 ff ff 	lea    -0xb70(%rbp),%rax
    f3fd:	48 89 85 f8 f7 ff ff 	mov    %rax,-0x808(%rbp)
    f404:	48 8d 85 90 f4 ff ff 	lea    -0xb70(%rbp),%rax
    f40b:	48 89 85 00 f8 ff ff 	mov    %rax,-0x800(%rbp)
    f412:	48 8d 85 90 f4 ff ff 	lea    -0xb70(%rbp),%rax
    f419:	48 89 85 08 f8 ff ff 	mov    %rax,-0x7f8(%rbp)
    f420:	48 8d 85 90 f4 ff ff 	lea    -0xb70(%rbp),%rax
    f427:	48 89 85 10 f8 ff ff 	mov    %rax,-0x7f0(%rbp)
    f42e:	48 8d 85 90 f4 ff ff 	lea    -0xb70(%rbp),%rax
    f435:	48 89 85 18 f8 ff ff 	mov    %rax,-0x7e8(%rbp)
    f43c:	48 8d 85 90 f4 ff ff 	lea    -0xb70(%rbp),%rax
    f443:	48 89 85 20 f8 ff ff 	mov    %rax,-0x7e0(%rbp)
    f44a:	48 8d 85 90 f4 ff ff 	lea    -0xb70(%rbp),%rax
    f451:	48 89 85 28 f8 ff ff 	mov    %rax,-0x7d8(%rbp)
    f458:	48 8d 85 90 f4 ff ff 	lea    -0xb70(%rbp),%rax
    f45f:	48 89 85 30 f8 ff ff 	mov    %rax,-0x7d0(%rbp)
    f466:	48 8d 85 90 f4 ff ff 	lea    -0xb70(%rbp),%rax
    f46d:	48 89 85 38 f8 ff ff 	mov    %rax,-0x7c8(%rbp)
    f474:	48 8d 85 90 f4 ff ff 	lea    -0xb70(%rbp),%rax
    f47b:	48 89 85 40 f8 ff ff 	mov    %rax,-0x7c0(%rbp)
    f482:	48 8d 85 90 f4 ff ff 	lea    -0xb70(%rbp),%rax
    f489:	48 89 85 48 f8 ff ff 	mov    %rax,-0x7b8(%rbp)
    f490:	48 8d 85 90 f4 ff ff 	lea    -0xb70(%rbp),%rax
    f497:	48 89 85 50 f8 ff ff 	mov    %rax,-0x7b0(%rbp)
    f49e:	48 8d 85 90 f4 ff ff 	lea    -0xb70(%rbp),%rax
    f4a5:	48 89 85 58 f8 ff ff 	mov    %rax,-0x7a8(%rbp)
    f4ac:	48 c7 85 60 f8 ff ff 	movq   $0x0,-0x7a0(%rbp)
    f4b3:	00 00 00 00 
    f4b7:	48 8d 85 90 f4 ff ff 	lea    -0xb70(%rbp),%rax
    f4be:	48 89 85 68 f8 ff ff 	mov    %rax,-0x798(%rbp)
    f4c5:	48 8d 85 90 f4 ff ff 	lea    -0xb70(%rbp),%rax
    f4cc:	48 89 85 70 f8 ff ff 	mov    %rax,-0x790(%rbp)
    f4d3:	48 8d 85 90 f4 ff ff 	lea    -0xb70(%rbp),%rax
    f4da:	48 89 85 78 f8 ff ff 	mov    %rax,-0x788(%rbp)
    f4e1:	48 8d 85 90 f4 ff ff 	lea    -0xb70(%rbp),%rax
    f4e8:	48 89 85 80 f8 ff ff 	mov    %rax,-0x780(%rbp)
    f4ef:	48 8d 85 90 f4 ff ff 	lea    -0xb70(%rbp),%rax
    f4f6:	48 89 85 88 f8 ff ff 	mov    %rax,-0x778(%rbp)
    f4fd:	48 8d 85 90 f4 ff ff 	lea    -0xb70(%rbp),%rax
    f504:	48 89 85 90 f8 ff ff 	mov    %rax,-0x770(%rbp)
    f50b:	48 8d 85 90 f4 ff ff 	lea    -0xb70(%rbp),%rax
    f512:	48 89 85 98 f8 ff ff 	mov    %rax,-0x768(%rbp)
    f519:	48 8d 85 90 f4 ff ff 	lea    -0xb70(%rbp),%rax
    f520:	48 89 85 a0 f8 ff ff 	mov    %rax,-0x760(%rbp)
    f527:	48 8d 85 90 f4 ff ff 	lea    -0xb70(%rbp),%rax
    f52e:	48 89 85 a8 f8 ff ff 	mov    %rax,-0x758(%rbp)
    f535:	48 8d 85 90 f4 ff ff 	lea    -0xb70(%rbp),%rax
    f53c:	48 89 85 b0 f8 ff ff 	mov    %rax,-0x750(%rbp)
    f543:	48 8d 85 90 f4 ff ff 	lea    -0xb70(%rbp),%rax
    f54a:	48 89 85 b8 f8 ff ff 	mov    %rax,-0x748(%rbp)
    f551:	48 8d 85 90 f4 ff ff 	lea    -0xb70(%rbp),%rax
    f558:	48 89 85 c0 f8 ff ff 	mov    %rax,-0x740(%rbp)
    f55f:	48 8d 85 90 f4 ff ff 	lea    -0xb70(%rbp),%rax
    f566:	48 89 85 c8 f8 ff ff 	mov    %rax,-0x738(%rbp)
    f56d:	48 8d 85 90 f4 ff ff 	lea    -0xb70(%rbp),%rax
    f574:	48 89 85 d0 f8 ff ff 	mov    %rax,-0x730(%rbp)
    f57b:	48 8d 85 90 f4 ff ff 	lea    -0xb70(%rbp),%rax
    f582:	48 89 85 d8 f8 ff ff 	mov    %rax,-0x728(%rbp)
    f589:	48 8d 85 90 f4 ff ff 	lea    -0xb70(%rbp),%rax
    f590:	48 89 85 e0 f8 ff ff 	mov    %rax,-0x720(%rbp)
    f597:	48 c7 85 e8 f8 ff ff 	movq   $0x0,-0x718(%rbp)
    f59e:	00 00 00 00 
    f5a2:	48 8d 05 ff 70 01 00 	lea    0x170ff(%rip),%rax        # 266a8 <g_93>
    f5a9:	48 89 85 98 f4 ff ff 	mov    %rax,-0xb68(%rbp)
    f5b0:	48 8d 85 98 f4 ff ff 	lea    -0xb68(%rbp),%rax
    f5b7:	48 89 85 d8 f4 ff ff 	mov    %rax,-0xb28(%rbp)
    f5be:	c6 85 50 f4 ff ff 01 	movb   $0x1,-0xbb0(%rbp)
    f5c5:	48 8d 85 70 f5 ff ff 	lea    -0xa90(%rbp),%rax
    f5cc:	48 83 c0 10          	add    $0x10,%rax
    f5d0:	48 89 85 e0 f4 ff ff 	mov    %rax,-0xb20(%rbp)
    f5d7:	48 b8 d9 8b bb 40 68 	movabs $0x6e5606840bb8bd9,%rax
    f5de:	60 e5 06 
    f5e1:	48 89 85 c0 f5 ff ff 	mov    %rax,-0xa40(%rbp)
    f5e8:	48 89 85 c8 f5 ff ff 	mov    %rax,-0xa38(%rbp)
    f5ef:	48 89 85 d0 f5 ff ff 	mov    %rax,-0xa30(%rbp)
    f5f6:	48 89 85 d8 f5 ff ff 	mov    %rax,-0xa28(%rbp)
    f5fd:	48 89 85 e0 f5 ff ff 	mov    %rax,-0xa20(%rbp)
    f604:	48 89 85 e8 f5 ff ff 	mov    %rax,-0xa18(%rbp)
    f60b:	48 89 85 f0 f5 ff ff 	mov    %rax,-0xa10(%rbp)
    f612:	c6 85 51 f4 ff ff 01 	movb   $0x1,-0xbaf(%rbp)
    f619:	48 c7 85 e8 f4 ff ff 	movq   $0xfffffffffffffff6,-0xb18(%rbp)
    f620:	f6 ff ff ff 
    f624:	c7 85 68 f4 ff ff 00 	movl   $0x0,-0xb98(%rbp)
    f62b:	00 00 00 
    f62e:	48 8d 05 4f 4d 01 00 	lea    0x14d4f(%rip),%rax        # 24384 <g_1340>
    f635:	48 89 85 f0 f4 ff ff 	mov    %rax,-0xb10(%rbp)
    f63c:	48 c7 85 a0 f4 ff ff 	movq   $0x0,-0xb60(%rbp)
    f643:	00 00 00 00 
    f647:	48 8d 85 a0 f4 ff ff 	lea    -0xb60(%rbp),%rax
    f64e:	48 89 85 f8 f4 ff ff 	mov    %rax,-0xb08(%rbp)
    f655:	c7 85 6c f4 ff ff 01 	movl   $0x1,-0xb94(%rbp)
    f65c:	00 00 00 
    f65f:	c7 85 70 f4 ff ff 04 	movl   $0xdae66b04,-0xb90(%rbp)
    f666:	6b e6 da 
    f669:	48 8d 85 f0 f8 ff ff 	lea    -0x710(%rbp),%rax
    f670:	48 8d 15 29 f7 00 00 	lea    0xf729(%rip),%rdx        # 1eda0 <g_2439+0xd20>
    f677:	b9 64 00 00 00       	mov    $0x64,%ecx
    f67c:	48 89 c7             	mov    %rax,%rdi
    f67f:	48 89 d6             	mov    %rdx,%rsi
    f682:	f3 48 a5             	rep movsq %ds:(%rsi),%es:(%rdi)
    f685:	48 c7 85 00 f5 ff ff 	movq   $0x3,-0xb00(%rbp)
    f68c:	03 00 00 00 
    f690:	48 8d 85 90 f5 ff ff 	lea    -0xa70(%rbp),%rax
    f697:	48 83 c0 18          	add    $0x18,%rax
    f69b:	48 89 85 08 f5 ff ff 	mov    %rax,-0xaf8(%rbp)
    f6a2:	48 8d 85 f0 f8 ff ff 	lea    -0x710(%rbp),%rax
    f6a9:	48 05 e8 02 00 00    	add    $0x2e8,%rax
    f6af:	48 89 85 10 f5 ff ff 	mov    %rax,-0xaf0(%rbp)
    f6b6:	48 8d 85 10 fc ff ff 	lea    -0x3f0(%rbp),%rax
    f6bd:	48 8d 15 fc f9 00 00 	lea    0xf9fc(%rip),%rdx        # 1f0c0 <g_2439+0x1040>
    f6c4:	b9 7d 00 00 00       	mov    $0x7d,%ecx
    f6c9:	48 89 c7             	mov    %rax,%rdi
    f6cc:	48 89 d6             	mov    %rdx,%rsi
    f6cf:	f3 48 a5             	rep movsq %ds:(%rsi),%es:(%rdi)
    f6d2:	c7 85 50 f6 ff ff 10 	movl   $0x9a03a310,-0x9b0(%rbp)
    f6d9:	a3 03 9a 
    f6dc:	c7 85 54 f6 ff ff 10 	movl   $0x9a03a310,-0x9ac(%rbp)
    f6e3:	a3 03 9a 
    f6e6:	c7 85 58 f6 ff ff 01 	movl   $0x1,-0x9a8(%rbp)
    f6ed:	00 00 00 
    f6f0:	c7 85 5c f6 ff ff 10 	movl   $0x9a03a310,-0x9a4(%rbp)
    f6f7:	a3 03 9a 
    f6fa:	c7 85 60 f6 ff ff 10 	movl   $0x9a03a310,-0x9a0(%rbp)
    f701:	a3 03 9a 
    f704:	c7 85 64 f6 ff ff 01 	movl   $0x1,-0x99c(%rbp)
    f70b:	00 00 00 
    f70e:	c7 85 68 f6 ff ff 10 	movl   $0x9a03a310,-0x998(%rbp)
    f715:	a3 03 9a 
    f718:	c7 85 6c f6 ff ff 10 	movl   $0x9a03a310,-0x994(%rbp)
    f71f:	a3 03 9a 
    f722:	c7 85 70 f6 ff ff 01 	movl   $0x1,-0x990(%rbp)
    f729:	00 00 00 
    f72c:	c7 85 74 f6 ff ff 10 	movl   $0x9a03a310,-0x98c(%rbp)
    f733:	a3 03 9a 
    f736:	c7 85 78 f6 ff ff 10 	movl   $0x9a03a310,-0x988(%rbp)
    f73d:	a3 03 9a 
    f740:	c7 85 7c f6 ff ff 01 	movl   $0x1,-0x984(%rbp)
    f747:	00 00 00 
    f74a:	c7 85 80 f6 ff ff 10 	movl   $0x9a03a310,-0x980(%rbp)
    f751:	a3 03 9a 
    f754:	c7 85 84 f6 ff ff 10 	movl   $0x9a03a310,-0x97c(%rbp)
    f75b:	a3 03 9a 
    f75e:	c7 85 88 f6 ff ff 01 	movl   $0x1,-0x978(%rbp)
    f765:	00 00 00 
    f768:	c7 85 8c f6 ff ff 10 	movl   $0x9a03a310,-0x974(%rbp)
    f76f:	a3 03 9a 
    f772:	c7 85 90 f6 ff ff 10 	movl   $0x9a03a310,-0x970(%rbp)
    f779:	a3 03 9a 
    f77c:	c7 85 94 f6 ff ff 01 	movl   $0x1,-0x96c(%rbp)
    f783:	00 00 00 
    f786:	c7 85 98 f6 ff ff 10 	movl   $0x9a03a310,-0x968(%rbp)
    f78d:	a3 03 9a 
    f790:	c7 85 9c f6 ff ff 10 	movl   $0x9a03a310,-0x964(%rbp)
    f797:	a3 03 9a 
    f79a:	c7 85 a0 f6 ff ff 01 	movl   $0x1,-0x960(%rbp)
    f7a1:	00 00 00 
    f7a4:	c7 85 a4 f6 ff ff 10 	movl   $0x9a03a310,-0x95c(%rbp)
    f7ab:	a3 03 9a 
    f7ae:	c7 85 a8 f6 ff ff 10 	movl   $0x9a03a310,-0x958(%rbp)
    f7b5:	a3 03 9a 
    f7b8:	c7 85 ac f6 ff ff 01 	movl   $0x1,-0x954(%rbp)
    f7bf:	00 00 00 
    f7c2:	c7 85 74 f4 ff ff 08 	movl   $0x8,-0xb8c(%rbp)
    f7c9:	00 00 00 
    f7cc:	48 c7 85 18 f5 ff ff 	movq   $0x0,-0xae8(%rbp)
    f7d3:	00 00 00 00 
    f7d7:	48 c7 85 20 f5 ff ff 	movq   $0x0,-0xae0(%rbp)
    f7de:	00 00 00 00 
    f7e2:	c7 85 78 f4 ff ff df 	movl   $0x6748aedf,-0xb88(%rbp)
    f7e9:	ae 48 67 
    f7ec:	48 8d 05 ed 6e 01 00 	lea    0x16eed(%rip),%rax        # 266e0 <g_455+0x10>
    f7f3:	48 89 85 a8 f4 ff ff 	mov    %rax,-0xb58(%rbp)
    f7fa:	48 8d 85 a8 f4 ff ff 	lea    -0xb58(%rbp),%rax
    f801:	48 89 85 28 f5 ff ff 	mov    %rax,-0xad8(%rbp)
    f808:	48 8d 05 69 4a 01 00 	lea    0x14a69(%rip),%rax        # 24278 <g_206>
    f80f:	48 89 85 30 f5 ff ff 	mov    %rax,-0xad0(%rbp)
    f816:	c7 85 7c f4 ff ff fb 	movl   $0xfffffffb,-0xb84(%rbp)
    f81d:	ff ff ff 
    f820:	66 c7 85 54 f4 ff ff 	movw   $0xffff,-0xbac(%rbp)
    f827:	ff ff 
    f829:	c7 85 80 f4 ff ff 00 	movl   $0x0,-0xb80(%rbp)
    f830:	00 00 00 
    f833:	48 8d 05 76 81 01 00 	lea    0x18176(%rip),%rax        # 279b0 <g_2637>
    f83a:	48 89 85 38 f5 ff ff 	mov    %rax,-0xac8(%rbp)
    f841:	48 c7 85 b0 f4 ff ff 	movq   $0x0,-0xb50(%rbp)
    f848:	00 00 00 00 
    f84c:	48 8d 85 b0 f4 ff ff 	lea    -0xb50(%rbp),%rax
    f853:	48 89 85 b8 f4 ff ff 	mov    %rax,-0xb48(%rbp)
    f85a:	48 8d 85 60 f5 ff ff 	lea    -0xaa0(%rbp),%rax
    f861:	48 89 85 c0 f4 ff ff 	mov    %rax,-0xb40(%rbp)
    f868:	48 8d 85 c0 f4 ff ff 	lea    -0xb40(%rbp),%rax
    f86f:	48 89 85 40 f5 ff ff 	mov    %rax,-0xac0(%rbp)
    f876:	48 8d 05 1b 48 01 00 	lea    0x1481b(%rip),%rax        # 24098 <g_75+0x58>
    f87d:	48 89 85 48 f5 ff ff 	mov    %rax,-0xab8(%rbp)
    f884:	48 8d 85 f0 f8 ff ff 	lea    -0x710(%rbp),%rax
    f88b:	48 05 f8 02 00 00    	add    $0x2f8,%rax
    f891:	48 89 85 00 f6 ff ff 	mov    %rax,-0xa00(%rbp)
    f898:	48 8d 85 f0 f8 ff ff 	lea    -0x710(%rbp),%rax
    f89f:	48 05 f8 02 00 00    	add    $0x2f8,%rax
    f8a5:	48 89 85 08 f6 ff ff 	mov    %rax,-0x9f8(%rbp)
    f8ac:	48 8d 85 f0 f8 ff ff 	lea    -0x710(%rbp),%rax
    f8b3:	48 05 f8 02 00 00    	add    $0x2f8,%rax
    f8b9:	48 89 85 10 f6 ff ff 	mov    %rax,-0x9f0(%rbp)
    f8c0:	48 8d 85 f0 f8 ff ff 	lea    -0x710(%rbp),%rax
    f8c7:	48 05 f8 02 00 00    	add    $0x2f8,%rax
    f8cd:	48 89 85 18 f6 ff ff 	mov    %rax,-0x9e8(%rbp)
    f8d4:	48 8d 85 f0 f8 ff ff 	lea    -0x710(%rbp),%rax
    f8db:	48 05 f8 02 00 00    	add    $0x2f8,%rax
    f8e1:	48 89 85 20 f6 ff ff 	mov    %rax,-0x9e0(%rbp)
    f8e8:	48 8d 85 f0 f8 ff ff 	lea    -0x710(%rbp),%rax
    f8ef:	48 05 f8 02 00 00    	add    $0x2f8,%rax
    f8f5:	48 89 85 28 f6 ff ff 	mov    %rax,-0x9d8(%rbp)
    f8fc:	48 8d 85 f0 f8 ff ff 	lea    -0x710(%rbp),%rax
    f903:	48 05 f8 02 00 00    	add    $0x2f8,%rax
    f909:	48 89 85 30 f6 ff ff 	mov    %rax,-0x9d0(%rbp)
    f910:	48 8d 85 f0 f8 ff ff 	lea    -0x710(%rbp),%rax
    f917:	48 05 f8 02 00 00    	add    $0x2f8,%rax
    f91d:	48 89 85 38 f6 ff ff 	mov    %rax,-0x9c8(%rbp)
    f924:	48 8d 85 f0 f8 ff ff 	lea    -0x710(%rbp),%rax
    f92b:	48 05 f8 02 00 00    	add    $0x2f8,%rax
    f931:	48 89 85 40 f6 ff ff 	mov    %rax,-0x9c0(%rbp)
    f938:	48 8d 05 61 6e 01 00 	lea    0x16e61(%rip),%rax        # 267a0 <g_1328>
    f93f:	48 89 85 50 f5 ff ff 	mov    %rax,-0xab0(%rbp)
    f946:	c6 85 52 f4 ff ff 01 	movb   $0x1,-0xbae(%rbp)
    f94d:	66 c7 85 56 f4 ff ff 	movw   $0x3d8f,-0xbaa(%rbp)
    f954:	8f 3d 
    f956:	c6 85 53 f4 ff ff 01 	movb   $0x1,-0xbad(%rbp)
    f95d:	c7 85 84 f4 ff ff e5 	movl   $0xde6e99e5,-0xb7c(%rbp)
    f964:	99 6e de 
    f967:	c7 85 10 f7 ff ff 00 	movl   $0x0,-0x8f0(%rbp)
    f96e:	00 00 00 
    f971:	c7 85 14 f7 ff ff fa 	movl   $0xfffffffa,-0x8ec(%rbp)
    f978:	ff ff ff 
    f97b:	c7 85 18 f7 ff ff 08 	movl   $0x8,-0x8e8(%rbp)
    f982:	00 00 00 
    f985:	c7 85 1c f7 ff ff fa 	movl   $0xfffffffa,-0x8e4(%rbp)
    f98c:	ff ff ff 
    f98f:	c7 85 20 f7 ff ff 00 	movl   $0x0,-0x8e0(%rbp)
    f996:	00 00 00 
    f999:	c7 85 24 f7 ff ff 01 	movl   $0x1,-0x8dc(%rbp)
    f9a0:	00 00 00 
    f9a3:	c7 85 28 f7 ff ff 08 	movl   $0x8,-0x8d8(%rbp)
    f9aa:	00 00 00 
    f9ad:	c7 85 2c f7 ff ff 7e 	movl   $0x5acb457e,-0x8d4(%rbp)
    f9b4:	45 cb 5a 
    f9b7:	c7 85 30 f7 ff ff 01 	movl   $0x1,-0x8d0(%rbp)
    f9be:	00 00 00 
    f9c1:	c7 85 34 f7 ff ff 4b 	movl   $0x3545824b,-0x8cc(%rbp)
    f9c8:	82 45 35 
    f9cb:	c7 85 38 f7 ff ff 00 	movl   $0x0,-0x8c8(%rbp)
    f9d2:	00 00 00 
    f9d5:	c7 85 3c f7 ff ff fb 	movl   $0xfffffffb,-0x8c4(%rbp)
    f9dc:	ff ff ff 
    f9df:	c7 85 40 f7 ff ff 6a 	movl   $0xab289f6a,-0x8c0(%rbp)
    f9e6:	9f 28 ab 
    f9e9:	c7 85 44 f7 ff ff 72 	movl   $0x9c253072,-0x8bc(%rbp)
    f9f0:	30 25 9c 
    f9f3:	c7 85 48 f7 ff ff fa 	movl   $0xfffffffa,-0x8b8(%rbp)
    f9fa:	ff ff ff 
    f9fd:	c7 85 4c f7 ff ff fa 	movl   $0xfffffffa,-0x8b4(%rbp)
    fa04:	ff ff ff 
    fa07:	c7 85 50 f7 ff ff ff 	movl   $0xffffffff,-0x8b0(%rbp)
    fa0e:	ff ff ff 
    fa11:	c7 85 54 f7 ff ff 01 	movl   $0x1,-0x8ac(%rbp)
    fa18:	00 00 00 
    fa1b:	c7 85 58 f7 ff ff 00 	movl   $0x0,-0x8a8(%rbp)
    fa22:	00 00 00 
    fa25:	c7 85 5c f7 ff ff 00 	movl   $0x0,-0x8a4(%rbp)
    fa2c:	00 00 00 
    fa2f:	c7 85 60 f7 ff ff 01 	movl   $0x1,-0x8a0(%rbp)
    fa36:	00 00 00 
    fa39:	c7 85 64 f7 ff ff ff 	movl   $0xffffffff,-0x89c(%rbp)
    fa40:	ff ff ff 
    fa43:	c7 85 68 f7 ff ff 08 	movl   $0x8,-0x898(%rbp)
    fa4a:	00 00 00 
    fa4d:	c7 85 6c f7 ff ff 6a 	movl   $0xab289f6a,-0x894(%rbp)
    fa54:	9f 28 ab 
    fa57:	c7 85 70 f7 ff ff 6a 	movl   $0xab289f6a,-0x890(%rbp)
    fa5e:	9f 28 ab 
    fa61:	c7 85 74 f7 ff ff ff 	movl   $0xffffffff,-0x88c(%rbp)
    fa68:	ff ff ff 
    fa6b:	c7 85 78 f7 ff ff 08 	movl   $0x8,-0x888(%rbp)
    fa72:	00 00 00 
    fa75:	c7 85 7c f7 ff ff 7e 	movl   $0x5acb457e,-0x884(%rbp)
    fa7c:	45 cb 5a 
    fa7f:	c7 85 80 f7 ff ff fa 	movl   $0xfffffffa,-0x880(%rbp)
    fa86:	ff ff ff 
    fa89:	c7 85 84 f7 ff ff fb 	movl   $0xfffffffb,-0x87c(%rbp)
    fa90:	ff ff ff 
    fa93:	c7 85 88 f7 ff ff ff 	movl   $0xffffffff,-0x878(%rbp)
    fa9a:	ff ff ff 
    fa9d:	c7 85 8c f7 ff ff 01 	movl   $0x1,-0x874(%rbp)
    faa4:	00 00 00 
    faa7:	c7 85 90 f7 ff ff 08 	movl   $0x8,-0x870(%rbp)
    faae:	00 00 00 
    fab1:	c7 85 94 f7 ff ff 02 	movl   $0x2,-0x86c(%rbp)
    fab8:	00 00 00 
    fabb:	c7 85 98 f7 ff ff 01 	movl   $0x1,-0x868(%rbp)
    fac2:	00 00 00 
    fac5:	c7 85 9c f7 ff ff 7e 	movl   $0x5acb457e,-0x864(%rbp)
    facc:	45 cb 5a 
    facf:	c7 85 a0 f7 ff ff 01 	movl   $0x1,-0x860(%rbp)
    fad6:	00 00 00 
    fad9:	c7 85 a4 f7 ff ff 02 	movl   $0x2,-0x85c(%rbp)
    fae0:	00 00 00 
    fae3:	c7 85 a8 f7 ff ff 08 	movl   $0x8,-0x858(%rbp)
    faea:	00 00 00 
    faed:	c7 85 ac f7 ff ff 6a 	movl   $0xab289f6a,-0x854(%rbp)
    faf4:	9f 28 ab 
    faf7:	48 c7 85 b0 f6 ff ff 	movq   $0x0,-0x950(%rbp)
    fafe:	00 00 00 00 
    fb02:	48 8d 05 df 48 01 00 	lea    0x148df(%rip),%rax        # 243e8 <g_1959>
    fb09:	48 89 85 b8 f6 ff ff 	mov    %rax,-0x948(%rbp)
    fb10:	48 8d 05 d1 48 01 00 	lea    0x148d1(%rip),%rax        # 243e8 <g_1959>
    fb17:	48 89 85 c0 f6 ff ff 	mov    %rax,-0x940(%rbp)
    fb1e:	48 c7 85 c8 f6 ff ff 	movq   $0x0,-0x938(%rbp)
    fb25:	00 00 00 00 
    fb29:	48 8d 05 b8 48 01 00 	lea    0x148b8(%rip),%rax        # 243e8 <g_1959>
    fb30:	48 89 85 d0 f6 ff ff 	mov    %rax,-0x930(%rbp)
    fb37:	48 8d 05 aa 48 01 00 	lea    0x148aa(%rip),%rax        # 243e8 <g_1959>
    fb3e:	48 89 85 d8 f6 ff ff 	mov    %rax,-0x928(%rbp)
    fb45:	48 c7 85 e0 f6 ff ff 	movq   $0x0,-0x920(%rbp)
    fb4c:	00 00 00 00 
    fb50:	48 8d 05 91 48 01 00 	lea    0x14891(%rip),%rax        # 243e8 <g_1959>
    fb57:	48 89 85 e8 f6 ff ff 	mov    %rax,-0x918(%rbp)
    fb5e:	48 8d 05 83 48 01 00 	lea    0x14883(%rip),%rax        # 243e8 <g_1959>
    fb65:	48 89 85 f0 f6 ff ff 	mov    %rax,-0x910(%rbp)
    fb6c:	48 c7 85 f8 f6 ff ff 	movq   $0x0,-0x908(%rbp)
    fb73:	00 00 00 00 
    fb77:	48 8d 05 6a 48 01 00 	lea    0x1486a(%rip),%rax        # 243e8 <g_1959>
    fb7e:	48 89 85 00 f7 ff ff 	mov    %rax,-0x900(%rbp)
    fb85:	48 8d 05 5c 48 01 00 	lea    0x1485c(%rip),%rax        # 243e8 <g_1959>
    fb8c:	48 89 85 08 f7 ff ff 	mov    %rax,-0x8f8(%rbp)
    fb93:	c7 85 58 f4 ff ff 00 	movl   $0x0,-0xba8(%rbp)
    fb9a:	00 00 00 
    fb9d:	eb 42                	jmp    fbe1 <func_45+0x8e7>
    fb9f:	c7 85 5c f4 ff ff 00 	movl   $0x0,-0xba4(%rbp)
    fba6:	00 00 00 
    fba9:	eb 26                	jmp    fbd1 <func_45+0x8d7>
    fbab:	8b 85 5c f4 ff ff    	mov    -0xba4(%rbp),%eax
    fbb1:	48 63 d0             	movslq %eax,%rdx
    fbb4:	8b 85 58 f4 ff ff    	mov    -0xba8(%rbp),%eax
    fbba:	48 98                	cltq   
    fbbc:	48 01 d0             	add    %rdx,%rax
    fbbf:	c7 84 85 5c f5 ff ff 	movl   $0xfee9b7,-0xaa4(%rbp,%rax,4)
    fbc6:	b7 e9 fe 00 
    fbca:	83 85 5c f4 ff ff 01 	addl   $0x1,-0xba4(%rbp)
    fbd1:	83 bd 5c f4 ff ff 00 	cmpl   $0x0,-0xba4(%rbp)
    fbd8:	7e d1                	jle    fbab <func_45+0x8b1>
    fbda:	83 85 58 f4 ff ff 01 	addl   $0x1,-0xba8(%rbp)
    fbe1:	83 bd 58 f4 ff ff 00 	cmpl   $0x0,-0xba8(%rbp)
    fbe8:	7e b5                	jle    fb9f <func_45+0x8a5>
    fbea:	c7 85 58 f4 ff ff 00 	movl   $0x0,-0xba8(%rbp)
    fbf1:	00 00 00 
    fbf4:	eb 1e                	jmp    fc14 <func_45+0x91a>
    fbf6:	8b 85 58 f4 ff ff    	mov    -0xba8(%rbp),%eax
    fbfc:	48 98                	cltq   
    fbfe:	48 8d 15 bf 4f 01 00 	lea    0x14fbf(%rip),%rdx        # 24bc4 <g_2086+0x64>
    fc05:	48 89 94 c5 70 f5 ff 	mov    %rdx,-0xa90(%rbp,%rax,8)
    fc0c:	ff 
    fc0d:	83 85 58 f4 ff ff 01 	addl   $0x1,-0xba8(%rbp)
    fc14:	83 bd 58 f4 ff ff 03 	cmpl   $0x3,-0xba8(%rbp)
    fc1b:	7e d9                	jle    fbf6 <func_45+0x8fc>
    fc1d:	c7 85 58 f4 ff ff 00 	movl   $0x0,-0xba8(%rbp)
    fc24:	00 00 00 
    fc27:	eb 1e                	jmp    fc47 <func_45+0x94d>
    fc29:	8b 85 58 f4 ff ff    	mov    -0xba8(%rbp),%eax
    fc2f:	48 98                	cltq   
    fc31:	48 8d 15 c0 6a 01 00 	lea    0x16ac0(%rip),%rdx        # 266f8 <g_635>
    fc38:	48 89 94 c5 90 f5 ff 	mov    %rdx,-0xa70(%rbp,%rax,8)
    fc3f:	ff 
    fc40:	83 85 58 f4 ff ff 01 	addl   $0x1,-0xba8(%rbp)
    fc47:	83 bd 58 f4 ff ff 04 	cmpl   $0x4,-0xba8(%rbp)
    fc4e:	7e d9                	jle    fc29 <func_45+0x92f>
    fc50:	c7 85 58 f4 ff ff 00 	movl   $0x0,-0xba8(%rbp)
    fc57:	00 00 00 
    fc5a:	eb 1e                	jmp    fc7a <func_45+0x980>
    fc5c:	8b 85 58 f4 ff ff    	mov    -0xba8(%rbp),%eax
    fc62:	48 98                	cltq   
    fc64:	48 8d 95 b8 f4 ff ff 	lea    -0xb48(%rbp),%rdx
    fc6b:	48 89 94 c5 60 f5 ff 	mov    %rdx,-0xaa0(%rbp,%rax,8)
    fc72:	ff 
    fc73:	83 85 58 f4 ff ff 01 	addl   $0x1,-0xba8(%rbp)
    fc7a:	83 bd 58 f4 ff ff 01 	cmpl   $0x1,-0xba8(%rbp)
    fc81:	7e d9                	jle    fc5c <func_45+0x962>
    fc83:	8b 85 44 f4 ff ff    	mov    -0xbbc(%rbp),%eax
    fc89:	48 8b 4d f8          	mov    -0x8(%rbp),%rcx
    fc8d:	64 48 33 0c 25 28 00 	xor    %fs:0x28,%rcx
    fc94:	00 00 
    fc96:	74 05                	je     fc9d <func_45+0x9a3>
    fc98:	e8 d3 93 ff ff       	callq  9070 <__stack_chk_fail@plt>
    fc9d:	c9                   	leaveq 
    fc9e:	c3                   	retq   

000000000000fc9f <func_51>:
    fc9f:	f3 0f 1e fa          	endbr64 
    fca3:	55                   	push   %rbp
    fca4:	48 89 e5             	mov    %rsp,%rbp
    fca7:	41 57                	push   %r15
    fca9:	41 56                	push   %r14
    fcab:	41 55                	push   %r13
    fcad:	41 54                	push   %r12
    fcaf:	53                   	push   %rbx
    fcb0:	48 81 ec 00 10 00 00 	sub    $0x1000,%rsp
    fcb7:	48 83 0c 24 00       	orq    $0x0,(%rsp)
    fcbc:	48 81 ec 68 04 00 00 	sub    $0x468,%rsp
    fcc3:	48 89 b5 80 eb ff ff 	mov    %rsi,-0x1480(%rbp)
    fcca:	48 89 95 78 eb ff ff 	mov    %rdx,-0x1488(%rbp)
    fcd1:	89 c8                	mov    %ecx,%eax
    fcd3:	44 89 c1             	mov    %r8d,%ecx
    fcd6:	89 fa                	mov    %edi,%edx
    fcd8:	88 95 8c eb ff ff    	mov    %dl,-0x1474(%rbp)
    fcde:	88 85 88 eb ff ff    	mov    %al,-0x1478(%rbp)
    fce4:	89 c8                	mov    %ecx,%eax
    fce6:	88 85 74 eb ff ff    	mov    %al,-0x148c(%rbp)
    fcec:	64 48 8b 04 25 28 00 	mov    %fs:0x28,%rax
    fcf3:	00 00 
    fcf5:	48 89 45 c8          	mov    %rax,-0x38(%rbp)
    fcf9:	31 c0                	xor    %eax,%eax
    fcfb:	48 8d 05 96 43 01 00 	lea    0x14396(%rip),%rax        # 24098 <g_75+0x58>
    fd02:	48 89 85 48 ed ff ff 	mov    %rax,-0x12b8(%rbp)
    fd09:	48 8d 05 e8 69 01 00 	lea    0x169e8(%rip),%rax        # 266f8 <g_635>
    fd10:	48 89 85 a8 ec ff ff 	mov    %rax,-0x1358(%rbp)
    fd17:	48 8d 85 f0 ef ff ff 	lea    -0x1010(%rbp),%rax
    fd1e:	48 89 85 b0 ec ff ff 	mov    %rax,-0x1350(%rbp)
    fd25:	48 c7 85 60 f3 ff ff 	movq   $0x0,-0xca0(%rbp)
    fd2c:	00 00 00 00 
    fd30:	48 c7 85 68 f3 ff ff 	movq   $0x0,-0xc98(%rbp)
    fd37:	00 00 00 00 
    fd3b:	48 c7 85 70 f3 ff ff 	movq   $0x0,-0xc90(%rbp)
    fd42:	00 00 00 00 
    fd46:	48 c7 85 78 f3 ff ff 	movq   $0x0,-0xc88(%rbp)
    fd4d:	00 00 00 00 
    fd51:	48 c7 85 80 f3 ff ff 	movq   $0x0,-0xc80(%rbp)
    fd58:	00 00 00 00 
    fd5c:	48 8d 85 b0 ec ff ff 	lea    -0x1350(%rbp),%rax
    fd63:	48 89 85 88 f3 ff ff 	mov    %rax,-0xc78(%rbp)
    fd6a:	48 8d 85 b0 ec ff ff 	lea    -0x1350(%rbp),%rax
    fd71:	48 89 85 90 f3 ff ff 	mov    %rax,-0xc70(%rbp)
    fd78:	48 8d 85 b0 ec ff ff 	lea    -0x1350(%rbp),%rax
    fd7f:	48 89 85 98 f3 ff ff 	mov    %rax,-0xc68(%rbp)
    fd86:	48 8d 85 b0 ec ff ff 	lea    -0x1350(%rbp),%rax
    fd8d:	48 89 85 a0 f3 ff ff 	mov    %rax,-0xc60(%rbp)
    fd94:	48 8d 85 b0 ec ff ff 	lea    -0x1350(%rbp),%rax
    fd9b:	48 89 85 a8 f3 ff ff 	mov    %rax,-0xc58(%rbp)
    fda2:	48 c7 85 b0 f3 ff ff 	movq   $0x0,-0xc50(%rbp)
    fda9:	00 00 00 00 
    fdad:	48 c7 85 b8 f3 ff ff 	movq   $0x0,-0xc48(%rbp)
    fdb4:	00 00 00 00 
    fdb8:	48 c7 85 c0 f3 ff ff 	movq   $0x0,-0xc40(%rbp)
    fdbf:	00 00 00 00 
    fdc3:	48 c7 85 c8 f3 ff ff 	movq   $0x0,-0xc38(%rbp)
    fdca:	00 00 00 00 
    fdce:	48 c7 85 d0 f3 ff ff 	movq   $0x0,-0xc30(%rbp)
    fdd5:	00 00 00 00 
    fdd9:	48 8d 85 b0 ec ff ff 	lea    -0x1350(%rbp),%rax
    fde0:	48 89 85 d8 f3 ff ff 	mov    %rax,-0xc28(%rbp)
    fde7:	48 8d 85 b0 ec ff ff 	lea    -0x1350(%rbp),%rax
    fdee:	48 89 85 e0 f3 ff ff 	mov    %rax,-0xc20(%rbp)
    fdf5:	48 8d 85 b0 ec ff ff 	lea    -0x1350(%rbp),%rax
    fdfc:	48 89 85 e8 f3 ff ff 	mov    %rax,-0xc18(%rbp)
    fe03:	48 8d 85 b0 ec ff ff 	lea    -0x1350(%rbp),%rax
    fe0a:	48 89 85 f0 f3 ff ff 	mov    %rax,-0xc10(%rbp)
    fe11:	48 8d 85 b0 ec ff ff 	lea    -0x1350(%rbp),%rax
    fe18:	48 89 85 f8 f3 ff ff 	mov    %rax,-0xc08(%rbp)
    fe1f:	48 c7 85 00 f4 ff ff 	movq   $0x0,-0xc00(%rbp)
    fe26:	00 00 00 00 
    fe2a:	48 c7 85 08 f4 ff ff 	movq   $0x0,-0xbf8(%rbp)
    fe31:	00 00 00 00 
    fe35:	48 c7 85 10 f4 ff ff 	movq   $0x0,-0xbf0(%rbp)
    fe3c:	00 00 00 00 
    fe40:	48 c7 85 18 f4 ff ff 	movq   $0x0,-0xbe8(%rbp)
    fe47:	00 00 00 00 
    fe4b:	48 c7 85 20 f4 ff ff 	movq   $0x0,-0xbe0(%rbp)
    fe52:	00 00 00 00 
    fe56:	48 8d 85 b0 ec ff ff 	lea    -0x1350(%rbp),%rax
    fe5d:	48 89 85 28 f4 ff ff 	mov    %rax,-0xbd8(%rbp)
    fe64:	48 8d 85 b0 ec ff ff 	lea    -0x1350(%rbp),%rax
    fe6b:	48 89 85 30 f4 ff ff 	mov    %rax,-0xbd0(%rbp)
    fe72:	48 8d 85 b0 ec ff ff 	lea    -0x1350(%rbp),%rax
    fe79:	48 89 85 38 f4 ff ff 	mov    %rax,-0xbc8(%rbp)
    fe80:	48 8d 85 b0 ec ff ff 	lea    -0x1350(%rbp),%rax
    fe87:	48 89 85 40 f4 ff ff 	mov    %rax,-0xbc0(%rbp)
    fe8e:	48 8d 85 b0 ec ff ff 	lea    -0x1350(%rbp),%rax
    fe95:	48 89 85 48 f4 ff ff 	mov    %rax,-0xbb8(%rbp)
    fe9c:	48 c7 85 50 f4 ff ff 	movq   $0x0,-0xbb0(%rbp)
    fea3:	00 00 00 00 
    fea7:	48 c7 85 58 f4 ff ff 	movq   $0x0,-0xba8(%rbp)
    feae:	00 00 00 00 
    feb2:	48 c7 85 60 f4 ff ff 	movq   $0x0,-0xba0(%rbp)
    feb9:	00 00 00 00 
    febd:	48 c7 85 68 f4 ff ff 	movq   $0x0,-0xb98(%rbp)
    fec4:	00 00 00 00 
    fec8:	48 c7 85 70 f4 ff ff 	movq   $0x0,-0xb90(%rbp)
    fecf:	00 00 00 00 
    fed3:	48 8d 85 b0 ec ff ff 	lea    -0x1350(%rbp),%rax
    feda:	48 89 85 78 f4 ff ff 	mov    %rax,-0xb88(%rbp)
    fee1:	48 8d 85 b0 ec ff ff 	lea    -0x1350(%rbp),%rax
    fee8:	48 89 85 80 f4 ff ff 	mov    %rax,-0xb80(%rbp)
    feef:	48 8d 85 b0 ec ff ff 	lea    -0x1350(%rbp),%rax
    fef6:	48 89 85 88 f4 ff ff 	mov    %rax,-0xb78(%rbp)
    fefd:	48 8d 85 b0 ec ff ff 	lea    -0x1350(%rbp),%rax
    ff04:	48 89 85 90 f4 ff ff 	mov    %rax,-0xb70(%rbp)
    ff0b:	48 8d 85 b0 ec ff ff 	lea    -0x1350(%rbp),%rax
    ff12:	48 89 85 98 f4 ff ff 	mov    %rax,-0xb68(%rbp)
    ff19:	48 c7 85 a0 f4 ff ff 	movq   $0x0,-0xb60(%rbp)
    ff20:	00 00 00 00 
    ff24:	48 c7 85 a8 f4 ff ff 	movq   $0x0,-0xb58(%rbp)
    ff2b:	00 00 00 00 
    ff2f:	48 c7 85 b0 f4 ff ff 	movq   $0x0,-0xb50(%rbp)
    ff36:	00 00 00 00 
    ff3a:	48 c7 85 b8 f4 ff ff 	movq   $0x0,-0xb48(%rbp)
    ff41:	00 00 00 00 
    ff45:	48 c7 85 c0 f4 ff ff 	movq   $0x0,-0xb40(%rbp)
    ff4c:	00 00 00 00 
    ff50:	48 c7 85 b8 ec ff ff 	movq   $0x0,-0x1348(%rbp)
    ff57:	00 00 00 00 
    ff5b:	48 8d 85 b8 ec ff ff 	lea    -0x1348(%rbp),%rax
    ff62:	48 89 85 c0 ec ff ff 	mov    %rax,-0x1340(%rbp)
    ff69:	48 8d 85 c0 ec ff ff 	lea    -0x1340(%rbp),%rax
    ff70:	48 89 85 50 ed ff ff 	mov    %rax,-0x12b0(%rbp)
    ff77:	c7 85 b8 eb ff ff fc 	movl   $0xfffffffc,-0x1448(%rbp)
    ff7e:	ff ff ff 
    ff81:	48 8d 05 40 43 01 00 	lea    0x14340(%rip),%rax        # 242c8 <g_405>
    ff88:	48 89 85 58 ed ff ff 	mov    %rax,-0x12a8(%rbp)
    ff8f:	48 c7 85 c8 ec ff ff 	movq   $0x0,-0x1338(%rbp)
    ff96:	00 00 00 00 
    ff9a:	48 8d 85 c8 ec ff ff 	lea    -0x1338(%rbp),%rax
    ffa1:	48 89 85 d0 ec ff ff 	mov    %rax,-0x1330(%rbp)
    ffa8:	48 c7 85 60 ed ff ff 	movq   $0x0,-0x12a0(%rbp)
    ffaf:	00 00 00 00 
    ffb3:	c7 85 bc eb ff ff 01 	movl   $0x1,-0x1444(%rbp)
    ffba:	00 00 00 
    ffbd:	48 c7 85 40 f2 ff ff 	movq   $0x0,-0xdc0(%rbp)
    ffc4:	00 00 00 00 
    ffc8:	48 8d 85 84 ef ff ff 	lea    -0x107c(%rbp),%rax
    ffcf:	48 83 c0 04          	add    $0x4,%rax
    ffd3:	48 89 85 48 f2 ff ff 	mov    %rax,-0xdb8(%rbp)
    ffda:	48 c7 85 50 f2 ff ff 	movq   $0x0,-0xdb0(%rbp)
    ffe1:	00 00 00 00 
    ffe5:	48 8d 85 84 ef ff ff 	lea    -0x107c(%rbp),%rax
    ffec:	48 83 c0 04          	add    $0x4,%rax
    fff0:	48 89 85 58 f2 ff ff 	mov    %rax,-0xda8(%rbp)
    fff7:	48 8d 05 fe 40 01 00 	lea    0x140fe(%rip),%rax        # 240fc <g_75+0xbc>
    fffe:	48 89 85 60 f2 ff ff 	mov    %rax,-0xda0(%rbp)
   10005:	48 8d 05 6c 42 01 00 	lea    0x1426c(%rip),%rax        # 24278 <g_206>
   1000c:	48 89 85 68 f2 ff ff 	mov    %rax,-0xd98(%rbp)
   10013:	48 8d 05 5e 42 01 00 	lea    0x1425e(%rip),%rax        # 24278 <g_206>
   1001a:	48 89 85 70 f2 ff ff 	mov    %rax,-0xd90(%rbp)
   10021:	48 c7 85 78 f2 ff ff 	movq   $0x0,-0xd88(%rbp)
   10028:	00 00 00 00 
   1002c:	48 8d 85 84 ef ff ff 	lea    -0x107c(%rbp),%rax
   10033:	48 83 c0 04          	add    $0x4,%rax
   10037:	48 89 85 80 f2 ff ff 	mov    %rax,-0xd80(%rbp)
   1003e:	48 8d 05 33 42 01 00 	lea    0x14233(%rip),%rax        # 24278 <g_206>
   10045:	48 89 85 88 f2 ff ff 	mov    %rax,-0xd78(%rbp)
   1004c:	48 8d 05 25 42 01 00 	lea    0x14225(%rip),%rax        # 24278 <g_206>
   10053:	48 89 85 90 f2 ff ff 	mov    %rax,-0xd70(%rbp)
   1005a:	48 8d 85 84 ef ff ff 	lea    -0x107c(%rbp),%rax
   10061:	48 83 c0 04          	add    $0x4,%rax
   10065:	48 89 85 98 f2 ff ff 	mov    %rax,-0xd68(%rbp)
   1006c:	48 8d 05 05 42 01 00 	lea    0x14205(%rip),%rax        # 24278 <g_206>
   10073:	48 89 85 a0 f2 ff ff 	mov    %rax,-0xd60(%rbp)
   1007a:	48 8d 85 84 ef ff ff 	lea    -0x107c(%rbp),%rax
   10081:	48 83 c0 04          	add    $0x4,%rax
   10085:	48 89 85 a8 f2 ff ff 	mov    %rax,-0xd58(%rbp)
   1008c:	48 8d 05 69 40 01 00 	lea    0x14069(%rip),%rax        # 240fc <g_75+0xbc>
   10093:	48 89 85 b0 f2 ff ff 	mov    %rax,-0xd50(%rbp)
   1009a:	48 c7 85 b8 f2 ff ff 	movq   $0x0,-0xd48(%rbp)
   100a1:	00 00 00 00 
   100a5:	48 8d 05 cc 41 01 00 	lea    0x141cc(%rip),%rax        # 24278 <g_206>
   100ac:	48 89 85 c0 f2 ff ff 	mov    %rax,-0xd40(%rbp)
   100b3:	48 8d 05 42 40 01 00 	lea    0x14042(%rip),%rax        # 240fc <g_75+0xbc>
   100ba:	48 89 85 c8 f2 ff ff 	mov    %rax,-0xd38(%rbp)
   100c1:	48 8d 05 b0 41 01 00 	lea    0x141b0(%rip),%rax        # 24278 <g_206>
   100c8:	48 89 85 d0 f2 ff ff 	mov    %rax,-0xd30(%rbp)
   100cf:	48 8d 05 a2 41 01 00 	lea    0x141a2(%rip),%rax        # 24278 <g_206>
   100d6:	48 89 85 d8 f2 ff ff 	mov    %rax,-0xd28(%rbp)
   100dd:	48 8d 85 84 ef ff ff 	lea    -0x107c(%rbp),%rax
   100e4:	48 83 c0 04          	add    $0x4,%rax
   100e8:	48 89 85 e0 f2 ff ff 	mov    %rax,-0xd20(%rbp)
   100ef:	48 c7 85 e8 f2 ff ff 	movq   $0x0,-0xd18(%rbp)
   100f6:	00 00 00 00 
   100fa:	48 8d 05 77 41 01 00 	lea    0x14177(%rip),%rax        # 24278 <g_206>
   10101:	48 89 85 f0 f2 ff ff 	mov    %rax,-0xd10(%rbp)
   10108:	48 8d 05 69 41 01 00 	lea    0x14169(%rip),%rax        # 24278 <g_206>
   1010f:	48 89 85 f8 f2 ff ff 	mov    %rax,-0xd08(%rbp)
   10116:	48 8d 05 df 3f 01 00 	lea    0x13fdf(%rip),%rax        # 240fc <g_75+0xbc>
   1011d:	48 89 85 00 f3 ff ff 	mov    %rax,-0xd00(%rbp)
   10124:	48 8d 05 d1 3f 01 00 	lea    0x13fd1(%rip),%rax        # 240fc <g_75+0xbc>
   1012b:	48 89 85 08 f3 ff ff 	mov    %rax,-0xcf8(%rbp)
   10132:	48 c7 85 10 f3 ff ff 	movq   $0x0,-0xcf0(%rbp)
   10139:	00 00 00 00 
   1013d:	48 c7 85 18 f3 ff ff 	movq   $0x0,-0xce8(%rbp)
   10144:	00 00 00 00 
   10148:	48 c7 85 20 f3 ff ff 	movq   $0x0,-0xce0(%rbp)
   1014f:	00 00 00 00 
   10153:	48 8d 85 84 ef ff ff 	lea    -0x107c(%rbp),%rax
   1015a:	48 83 c0 04          	add    $0x4,%rax
   1015e:	48 89 85 28 f3 ff ff 	mov    %rax,-0xcd8(%rbp)
   10165:	48 c7 85 30 f3 ff ff 	movq   $0x0,-0xcd0(%rbp)
   1016c:	00 00 00 00 
   10170:	48 8d 85 84 ef ff ff 	lea    -0x107c(%rbp),%rax
   10177:	48 83 c0 04          	add    $0x4,%rax
   1017b:	48 89 85 38 f3 ff ff 	mov    %rax,-0xcc8(%rbp)
   10182:	48 8d 05 73 3f 01 00 	lea    0x13f73(%rip),%rax        # 240fc <g_75+0xbc>
   10189:	48 89 85 40 f3 ff ff 	mov    %rax,-0xcc0(%rbp)
   10190:	48 8d 05 e1 40 01 00 	lea    0x140e1(%rip),%rax        # 24278 <g_206>
   10197:	48 89 85 48 f3 ff ff 	mov    %rax,-0xcb8(%rbp)
   1019e:	48 8d 05 d3 40 01 00 	lea    0x140d3(%rip),%rax        # 24278 <g_206>
   101a5:	48 89 85 50 f3 ff ff 	mov    %rax,-0xcb0(%rbp)
   101ac:	48 c7 85 58 f3 ff ff 	movq   $0x0,-0xca8(%rbp)
   101b3:	00 00 00 00 
   101b7:	c7 85 0c ec ff ff 64 	movl   $0x55696164,-0x13f4(%rbp)
   101be:	61 69 55 
   101c1:	48 c7 85 d8 ec ff ff 	movq   $0x0,-0x1328(%rbp)
   101c8:	00 00 00 00 
   101cc:	48 8d 85 d8 ec ff ff 	lea    -0x1328(%rbp),%rax
   101d3:	48 89 85 e0 ec ff ff 	mov    %rax,-0x1320(%rbp)
   101da:	48 8d 85 e0 ec ff ff 	lea    -0x1320(%rbp),%rax
   101e1:	48 89 85 68 ed ff ff 	mov    %rax,-0x1298(%rbp)
   101e8:	48 c7 85 e8 ec ff ff 	movq   $0x0,-0x1318(%rbp)
   101ef:	00 00 00 00 
   101f3:	48 8d 85 e8 ec ff ff 	lea    -0x1318(%rbp),%rax
   101fa:	48 89 85 70 ed ff ff 	mov    %rax,-0x1290(%rbp)
   10201:	c7 85 10 ec ff ff 3c 	movl   $0x510aec3c,-0x13f0(%rbp)
   10208:	ec 0a 51 
   1020b:	48 8d 05 70 40 01 00 	lea    0x14070(%rip),%rax        # 24282 <g_335>
   10212:	48 89 85 78 ed ff ff 	mov    %rax,-0x1288(%rbp)
   10219:	48 8d 05 cc 49 01 00 	lea    0x149cc(%rip),%rax        # 24bec <g_2086+0x8c>
   10220:	48 89 85 80 ed ff ff 	mov    %rax,-0x1280(%rbp)
   10227:	48 c7 85 f0 ec ff ff 	movq   $0x0,-0x1310(%rbp)
   1022e:	00 00 00 00 
   10232:	c7 85 c0 eb ff ff 06 	movl   $0x6,-0x1440(%rbp)
   10239:	00 00 00 
   1023c:	48 8d 85 80 f6 ff ff 	lea    -0x980(%rbp),%rax
   10243:	48 8d 15 96 52 01 00 	lea    0x15296(%rip),%rdx        # 254e0 <g_4540+0x680>
   1024a:	b9 38 00 00 00       	mov    $0x38,%ecx
   1024f:	48 89 c7             	mov    %rax,%rdi
   10252:	48 89 d6             	mov    %rdx,%rsi
   10255:	f3 48 a5             	rep movsq %ds:(%rsi),%es:(%rdi)
   10258:	48 c7 85 88 ed ff ff 	movq   $0x0,-0x1278(%rbp)
   1025f:	00 00 00 00 
   10263:	48 8d 05 66 85 01 00 	lea    0x18566(%rip),%rax        # 287d0 <g_1367>
   1026a:	48 89 85 90 ed ff ff 	mov    %rax,-0x1270(%rbp)
   10271:	c7 85 fc eb ff ff 00 	movl   $0x0,-0x1404(%rbp)
   10278:	00 00 00 
   1027b:	eb 1e                	jmp    1029b <func_51+0x5fc>
   1027d:	8b 85 fc eb ff ff    	mov    -0x1404(%rbp),%eax
   10283:	48 98                	cltq   
   10285:	48 8d 95 a8 ec ff ff 	lea    -0x1358(%rbp),%rdx
   1028c:	48 89 94 c5 f0 ef ff 	mov    %rdx,-0x1010(%rbp,%rax,8)
   10293:	ff 
   10294:	83 85 fc eb ff ff 01 	addl   $0x1,-0x1404(%rbp)
   1029b:	83 bd fc eb ff ff 04 	cmpl   $0x4,-0x1404(%rbp)
   102a2:	7e d9                	jle    1027d <func_51+0x5de>
   102a4:	c7 85 fc eb ff ff 00 	movl   $0x0,-0x1404(%rbp)
   102ab:	00 00 00 
   102ae:	eb 1a                	jmp    102ca <func_51+0x62b>
   102b0:	8b 85 fc eb ff ff    	mov    -0x1404(%rbp),%eax
   102b6:	48 98                	cltq   
   102b8:	c7 84 85 84 ef ff ff 	movl   $0x0,-0x107c(%rbp,%rax,4)
   102bf:	00 00 00 00 
   102c3:	83 85 fc eb ff ff 01 	addl   $0x1,-0x1404(%rbp)
   102ca:	83 bd fc eb ff ff 02 	cmpl   $0x2,-0x1404(%rbp)
   102d1:	7e dd                	jle    102b0 <func_51+0x611>
   102d3:	c7 85 fc eb ff ff 00 	movl   $0x0,-0x1404(%rbp)
   102da:	00 00 00 
   102dd:	eb 4c                	jmp    1032b <func_51+0x68c>
   102df:	c7 85 00 ec ff ff 00 	movl   $0x0,-0x1400(%rbp)
   102e6:	00 00 00 
   102e9:	eb 30                	jmp    1031b <func_51+0x67c>
   102eb:	8b 85 00 ec ff ff    	mov    -0x1400(%rbp),%eax
   102f1:	48 63 c8             	movslq %eax,%rcx
   102f4:	8b 85 fc eb ff ff    	mov    -0x1404(%rbp),%eax
   102fa:	48 63 d0             	movslq %eax,%rdx
   102fd:	48 89 d0             	mov    %rdx,%rax
   10300:	48 01 c0             	add    %rax,%rax
   10303:	48 01 d0             	add    %rdx,%rax
   10306:	48 01 c8             	add    %rcx,%rax
   10309:	c7 84 85 c0 ef ff ff 	movl   $0xfffffffe,-0x1040(%rbp,%rax,4)
   10310:	fe ff ff ff 
   10314:	83 85 00 ec ff ff 01 	addl   $0x1,-0x1400(%rbp)
   1031b:	83 bd 00 ec ff ff 02 	cmpl   $0x2,-0x1400(%rbp)
   10322:	7e c7                	jle    102eb <func_51+0x64c>
   10324:	83 85 fc eb ff ff 01 	addl   $0x1,-0x1404(%rbp)
   1032b:	83 bd fc eb ff ff 02 	cmpl   $0x2,-0x1404(%rbp)
   10332:	7e ab                	jle    102df <func_51+0x640>
   10334:	be 06 00 00 00       	mov    $0x6,%esi
   10339:	bf ee ff ff ff       	mov    $0xffffffee,%edi
   1033e:	e8 ab 8f ff ff       	callq  92ee <safe_lshift_func_int8_t_s_u>
   10343:	0f b6 c0             	movzbl %al,%eax
   10346:	be 07 00 00 00       	mov    $0x7,%esi
   1034b:	89 c7                	mov    %eax,%edi
   1034d:	e8 b3 98 ff ff       	callq  9c05 <safe_lshift_func_uint8_t_u_s>
   10352:	0f b6 d0             	movzbl %al,%edx
   10355:	48 8b 85 48 ed ff ff 	mov    -0x12b8(%rbp),%rax
   1035c:	89 10                	mov    %edx,(%rax)
   1035e:	48 8b 85 48 ed ff ff 	mov    -0x12b8(%rbp),%rax
   10365:	8b 10                	mov    (%rax),%edx
   10367:	48 8b 85 90 f3 ff ff 	mov    -0xc70(%rbp),%rax
   1036e:	48 85 c0             	test   %rax,%rax
   10371:	0f 95 c0             	setne  %al
   10374:	0f b6 c0             	movzbl %al,%eax
   10377:	39 c2                	cmp    %eax,%edx
   10379:	0f 9f c0             	setg   %al
   1037c:	0f b6 d0             	movzbl %al,%edx
   1037f:	0f be 85 88 eb ff ff 	movsbl -0x1478(%rbp),%eax
   10386:	39 c2                	cmp    %eax,%edx
   10388:	7f 25                	jg     103af <func_51+0x710>
   1038a:	48 c7 85 68 ef ff ff 	movq   $0x0,-0x1098(%rbp)
   10391:	00 00 00 00 
   10395:	48 8d 05 34 84 01 00 	lea    0x18434(%rip),%rax        # 287d0 <g_1367>
   1039c:	48 89 85 70 ef ff ff 	mov    %rax,-0x1090(%rbp)
   103a3:	48 8b 85 70 ef ff ff 	mov    -0x1090(%rbp),%rax
   103aa:	e9 bb 3e 00 00       	jmpq   1426a <func_51+0x45cb>
   103af:	48 8d 05 a6 3d 01 00 	lea    0x13da6(%rip),%rax        # 2415c <g_80>
   103b6:	48 89 85 98 ed ff ff 	mov    %rax,-0x1268(%rbp)
   103bd:	c7 85 04 ec ff ff fa 	movl   $0xfffffffa,-0x13fc(%rbp)
   103c4:	ff ff ff 
   103c7:	c7 85 14 ec ff ff b6 	movl   $0xf0876ab6,-0x13ec(%rbp)
   103ce:	6a 87 f0 
   103d1:	c7 85 c4 eb ff ff f5 	movl   $0x61d413f5,-0x143c(%rbp)
   103d8:	13 d4 61 
   103db:	48 8d 05 06 3f 01 00 	lea    0x13f06(%rip),%rax        # 242e8 <g_607>
   103e2:	48 89 85 a0 ed ff ff 	mov    %rax,-0x1260(%rbp)
   103e9:	48 8d 85 d0 ec ff ff 	lea    -0x1330(%rbp),%rax
   103f0:	48 89 85 a8 ed ff ff 	mov    %rax,-0x1258(%rbp)
   103f7:	48 c7 85 b0 ed ff ff 	movq   $0x0,-0x1250(%rbp)
   103fe:	00 00 00 00 
   10402:	66 c7 85 a8 eb ff ff 	movw   $0x384c,-0x1458(%rbp)
   10409:	4c 38 
   1040b:	48 c7 85 f8 ec ff ff 	movq   $0x6,-0x1308(%rbp)
   10412:	06 00 00 00 
   10416:	c7 85 c8 eb ff ff f7 	movl   $0x91197df7,-0x1438(%rbp)
   1041d:	7d 19 91 
   10420:	c6 85 9f eb ff ff fb 	movb   $0xfb,-0x1461(%rbp)
   10427:	66 c7 85 aa eb ff ff 	movw   $0x0,-0x1456(%rbp)
   1042e:	00 00 
   10430:	48 c7 85 b8 ed ff ff 	movq   $0xffffffffffffffff,-0x1248(%rbp)
   10437:	ff ff ff ff 
   1043b:	48 b8 7b 0d 4d 36 ac 	movabs $0x9b3b56ac364d0d7b,%rax
   10442:	56 3b 9b 
   10445:	48 89 85 c0 ed ff ff 	mov    %rax,-0x1240(%rbp)
   1044c:	66 c7 85 ac eb ff ff 	movw   $0x82a4,-0x1454(%rbp)
   10453:	a4 82 
   10455:	48 8d 05 9c 62 01 00 	lea    0x1629c(%rip),%rax        # 266f8 <g_635>
   1045c:	48 89 85 c8 ed ff ff 	mov    %rax,-0x1238(%rbp)
   10463:	c7 85 18 ec ff ff cc 	movl   $0xa98728cc,-0x13e8(%rbp)
   1046a:	28 87 a9 
   1046d:	c7 85 1c ec ff ff 40 	movl   $0x93d7b840,-0x13e4(%rbp)
   10474:	b8 d7 93 
   10477:	c7 85 60 f1 ff ff 5e 	movl   $0x10b5ad5e,-0xea0(%rbp)
   1047e:	ad b5 10 
   10481:	c7 85 64 f1 ff ff 83 	movl   $0x7e73b383,-0xe9c(%rbp)
   10488:	b3 73 7e 
   1048b:	c7 85 68 f1 ff ff 5e 	movl   $0x10b5ad5e,-0xe98(%rbp)
   10492:	ad b5 10 
   10495:	c7 85 6c f1 ff ff 71 	movl   $0xb9d96571,-0xe94(%rbp)
   1049c:	65 d9 b9 
   1049f:	c7 85 70 f1 ff ff 71 	movl   $0xb9d96571,-0xe90(%rbp)
   104a6:	65 d9 b9 
   104a9:	c7 85 74 f1 ff ff 5e 	movl   $0x10b5ad5e,-0xe8c(%rbp)
   104b0:	ad b5 10 
   104b3:	c7 85 78 f1 ff ff 83 	movl   $0x7e73b383,-0xe88(%rbp)
   104ba:	b3 73 7e 
   104bd:	c7 85 7c f1 ff ff 5e 	movl   $0x10b5ad5e,-0xe84(%rbp)
   104c4:	ad b5 10 
   104c7:	c7 85 80 f1 ff ff 71 	movl   $0xb9d96571,-0xe80(%rbp)
   104ce:	65 d9 b9 
   104d1:	c7 85 84 f1 ff ff 71 	movl   $0xb9d96571,-0xe7c(%rbp)
   104d8:	65 d9 b9 
   104db:	c7 85 88 f1 ff ff 5e 	movl   $0x10b5ad5e,-0xe78(%rbp)
   104e2:	ad b5 10 
   104e5:	c7 85 8c f1 ff ff 83 	movl   $0x7e73b383,-0xe74(%rbp)
   104ec:	b3 73 7e 
   104ef:	c7 85 90 f1 ff ff 5e 	movl   $0x10b5ad5e,-0xe70(%rbp)
   104f6:	ad b5 10 
   104f9:	c7 85 94 f1 ff ff 71 	movl   $0xb9d96571,-0xe6c(%rbp)
   10500:	65 d9 b9 
   10503:	c7 85 98 f1 ff ff 71 	movl   $0xb9d96571,-0xe68(%rbp)
   1050a:	65 d9 b9 
   1050d:	c7 85 9c f1 ff ff 5e 	movl   $0x10b5ad5e,-0xe64(%rbp)
   10514:	ad b5 10 
   10517:	c7 85 a0 f1 ff ff 83 	movl   $0x7e73b383,-0xe60(%rbp)
   1051e:	b3 73 7e 
   10521:	c7 85 a4 f1 ff ff 5e 	movl   $0x10b5ad5e,-0xe5c(%rbp)
   10528:	ad b5 10 
   1052b:	c7 85 a8 f1 ff ff 71 	movl   $0xb9d96571,-0xe58(%rbp)
   10532:	65 d9 b9 
   10535:	c7 85 ac f1 ff ff 71 	movl   $0xb9d96571,-0xe54(%rbp)
   1053c:	65 d9 b9 
   1053f:	c7 85 b0 f1 ff ff 5e 	movl   $0x10b5ad5e,-0xe50(%rbp)
   10546:	ad b5 10 
   10549:	c7 85 b4 f1 ff ff 83 	movl   $0x7e73b383,-0xe4c(%rbp)
   10550:	b3 73 7e 
   10553:	c7 85 b8 f1 ff ff 5e 	movl   $0x10b5ad5e,-0xe48(%rbp)
   1055a:	ad b5 10 
   1055d:	c7 85 bc f1 ff ff 71 	movl   $0xb9d96571,-0xe44(%rbp)
   10564:	65 d9 b9 
   10567:	c7 85 c0 f1 ff ff 71 	movl   $0xb9d96571,-0xe40(%rbp)
   1056e:	65 d9 b9 
   10571:	c7 85 c4 f1 ff ff 5e 	movl   $0x10b5ad5e,-0xe3c(%rbp)
   10578:	ad b5 10 
   1057b:	c7 85 c8 f1 ff ff 83 	movl   $0x7e73b383,-0xe38(%rbp)
   10582:	b3 73 7e 
   10585:	c6 85 a3 eb ff ff 75 	movb   $0x75,-0x145d(%rbp)
   1058c:	48 c7 05 d1 3b 01 00 	movq   $0x1,0x13bd1(%rip)        # 24168 <g_126>
   10593:	01 00 00 00 
   10597:	e9 7a 08 00 00       	jmpq   10e16 <func_51+0x1177>
   1059c:	48 c7 85 10 ef ff ff 	movq   $0x0,-0x10f0(%rbp)
   105a3:	00 00 00 00 
   105a7:	48 8d 05 aa 3c 01 00 	lea    0x13caa(%rip),%rax        # 24258 <g_152+0x8>
   105ae:	48 89 85 20 ed ff ff 	mov    %rax,-0x12e0(%rbp)
   105b5:	48 8d 85 d0 f4 ff ff 	lea    -0xb30(%rbp),%rax
   105bc:	48 83 c0 30          	add    $0x30,%rax
   105c0:	48 89 85 28 ed ff ff 	mov    %rax,-0x12d8(%rbp)
   105c7:	48 8d 85 28 ed ff ff 	lea    -0x12d8(%rbp),%rax
   105ce:	48 89 85 18 ef ff ff 	mov    %rax,-0x10e8(%rbp)
   105d5:	48 8d 05 ec 3c 01 00 	lea    0x13cec(%rip),%rax        # 242c8 <g_405>
   105dc:	48 89 85 20 ef ff ff 	mov    %rax,-0x10e0(%rbp)
   105e3:	c7 85 10 ed ff ff 05 	movl   $0x5,-0x12f0(%rbp)
   105ea:	00 00 00 
   105ed:	c7 85 08 ec ff ff 00 	movl   $0x0,-0x13f8(%rbp)
   105f4:	00 00 00 
   105f7:	eb 1e                	jmp    10617 <func_51+0x978>
   105f9:	8b 85 08 ec ff ff    	mov    -0x13f8(%rbp),%eax
   105ff:	48 98                	cltq   
   10601:	48 8d 95 20 ed ff ff 	lea    -0x12e0(%rbp),%rdx
   10608:	48 89 94 c5 d0 f4 ff 	mov    %rdx,-0xb30(%rbp,%rax,8)
   1060f:	ff 
   10610:	83 85 08 ec ff ff 01 	addl   $0x1,-0x13f8(%rbp)
   10617:	83 bd 08 ec ff ff 08 	cmpl   $0x8,-0x13f8(%rbp)
   1061e:	7e d9                	jle    105f9 <func_51+0x95a>
   10620:	c6 85 8c eb ff ff 00 	movb   $0x0,-0x1474(%rbp)
   10627:	e9 c2 07 00 00       	jmpq   10dee <func_51+0x114f>
   1062c:	c7 85 90 ec ff ff 52 	movl   $0xc348c952,-0x1370(%rbp)
   10633:	c9 48 c3 
   10636:	c7 85 94 ec ff ff 5d 	movl   $0x30961d5d,-0x136c(%rbp)
   1063d:	1d 96 30 
   10640:	c7 85 98 ec ff ff fd 	movl   $0xfffffffd,-0x1368(%rbp)
   10647:	ff ff ff 
   1064a:	48 8d 85 84 ef ff ff 	lea    -0x107c(%rbp),%rax
   10651:	48 89 85 28 ef ff ff 	mov    %rax,-0x10d8(%rbp)
   10658:	48 8d 05 19 3c 01 00 	lea    0x13c19(%rip),%rax        # 24278 <g_206>
   1065f:	48 89 85 30 ef ff ff 	mov    %rax,-0x10d0(%rbp)
   10666:	0f be 85 8c eb ff ff 	movsbl -0x1474(%rbp),%eax
   1066d:	0f be 95 8c eb ff ff 	movsbl -0x1474(%rbp),%edx
   10674:	83 c2 04             	add    $0x4,%edx
   10677:	48 63 ca             	movslq %edx,%rcx
   1067a:	48 63 d0             	movslq %eax,%rdx
   1067d:	48 89 d0             	mov    %rdx,%rax
   10680:	48 01 c0             	add    %rax,%rax
   10683:	48 01 d0             	add    %rdx,%rax
   10686:	48 01 c0             	add    %rax,%rax
   10689:	48 01 c8             	add    %rcx,%rax
   1068c:	48 8d 14 00          	lea    (%rax,%rax,1),%rdx
   10690:	48 8d 05 89 3c 01 00 	lea    0x13c89(%rip),%rax        # 24320 <g_893>
   10697:	0f b7 04 02          	movzwl (%rdx,%rax,1),%eax
   1069b:	0f be c0             	movsbl %al,%eax
   1069e:	89 c6                	mov    %eax,%esi
   106a0:	bf 00 00 00 00       	mov    $0x0,%edi
   106a5:	e8 c0 8b ff ff       	callq  926a <safe_div_func_int8_t_s_s>
   106aa:	89 c1                	mov    %eax,%ecx
   106ac:	0f be 85 8c eb ff ff 	movsbl -0x1474(%rbp),%eax
   106b3:	0f be 95 8c eb ff ff 	movsbl -0x1474(%rbp),%edx
   106ba:	83 c2 03             	add    $0x3,%edx
   106bd:	48 63 f2             	movslq %edx,%rsi
   106c0:	48 63 d0             	movslq %eax,%rdx
   106c3:	48 89 d0             	mov    %rdx,%rax
   106c6:	48 c1 e0 02          	shl    $0x2,%rax
   106ca:	48 01 d0             	add    %rdx,%rax
   106cd:	48 8d 14 30          	lea    (%rax,%rsi,1),%rdx
   106d1:	48 8d 05 00 3c 01 00 	lea    0x13c00(%rip),%rax        # 242d8 <g_539>
   106d8:	48 01 d0             	add    %rdx,%rax
   106db:	0f b6 00             	movzbl (%rax),%eax
   106de:	38 c1                	cmp    %al,%cl
   106e0:	0f 95 c0             	setne  %al
   106e3:	0f b6 d0             	movzbl %al,%edx
   106e6:	48 8b 85 48 ed ff ff 	mov    -0x12b8(%rbp),%rax
   106ed:	89 10                	mov    %edx,(%rax)
   106ef:	48 8b 85 48 ed ff ff 	mov    -0x12b8(%rbp),%rax
   106f6:	8b 00                	mov    (%rax),%eax
   106f8:	85 c0                	test   %eax,%eax
   106fa:	0f 84 ae 04 00 00    	je     10bae <func_51+0xf0f>
   10700:	48 c7 85 30 ed ff ff 	movq   $0x0,-0x12d0(%rbp)
   10707:	00 00 00 00 
   1070b:	48 8d 85 30 ed ff ff 	lea    -0x12d0(%rbp),%rax
   10712:	48 89 85 38 ed ff ff 	mov    %rax,-0x12c8(%rbp)
   10719:	48 8d 85 38 ed ff ff 	lea    -0x12c8(%rbp),%rax
   10720:	48 89 85 40 ed ff ff 	mov    %rax,-0x12c0(%rbp)
   10727:	48 c7 85 d0 f1 ff ff 	movq   $0x0,-0xe30(%rbp)
   1072e:	00 00 00 00 
   10732:	48 8d 85 40 ed ff ff 	lea    -0x12c0(%rbp),%rax
   10739:	48 89 85 d8 f1 ff ff 	mov    %rax,-0xe28(%rbp)
   10740:	48 c7 85 e0 f1 ff ff 	movq   $0x0,-0xe20(%rbp)
   10747:	00 00 00 00 
   1074b:	48 8d 85 40 ed ff ff 	lea    -0x12c0(%rbp),%rax
   10752:	48 89 85 e8 f1 ff ff 	mov    %rax,-0xe18(%rbp)
   10759:	48 c7 85 f0 f1 ff ff 	movq   $0x0,-0xe10(%rbp)
   10760:	00 00 00 00 
   10764:	48 8d 85 d0 f1 ff ff 	lea    -0xe30(%rbp),%rax
   1076b:	48 83 c0 10          	add    $0x10,%rax
   1076f:	48 89 85 48 ef ff ff 	mov    %rax,-0x10b8(%rbp)
   10776:	48 8d 05 df 39 01 00 	lea    0x139df(%rip),%rax        # 2415c <g_80>
   1077d:	48 89 85 50 ef ff ff 	mov    %rax,-0x10b0(%rbp)
   10784:	c7 85 a0 ec ff ff 23 	movl   $0x6bb61523,-0x1360(%rbp)
   1078b:	15 b6 6b 
   1078e:	c7 85 e8 eb ff ff 00 	movl   $0x0,-0x1418(%rbp)
   10795:	00 00 00 
   10798:	eb 1e                	jmp    107b8 <func_51+0xb19>
   1079a:	8b 85 e8 eb ff ff    	mov    -0x1418(%rbp),%eax
   107a0:	48 98                	cltq   
   107a2:	48 8d 15 bf 39 01 00 	lea    0x139bf(%rip),%rdx        # 24168 <g_126>
   107a9:	48 89 94 c5 10 f1 ff 	mov    %rdx,-0xef0(%rbp,%rax,8)
   107b0:	ff 
   107b1:	83 85 e8 eb ff ff 01 	addl   $0x1,-0x1418(%rbp)
   107b8:	83 bd e8 eb ff ff 02 	cmpl   $0x2,-0x1418(%rbp)
   107bf:	7e d9                	jle    1079a <func_51+0xafb>
   107c1:	c7 85 e8 eb ff ff 00 	movl   $0x0,-0x1418(%rbp)
   107c8:	00 00 00 
   107cb:	eb 1a                	jmp    107e7 <func_51+0xb48>
   107cd:	8b 85 e8 eb ff ff    	mov    -0x1418(%rbp),%eax
   107d3:	48 98                	cltq   
   107d5:	c7 84 85 c0 f0 ff ff 	movl   $0xfffffff9,-0xf40(%rbp,%rax,4)
   107dc:	f9 ff ff ff 
   107e0:	83 85 e8 eb ff ff 01 	addl   $0x1,-0x1418(%rbp)
   107e7:	83 bd e8 eb ff ff 01 	cmpl   $0x1,-0x1418(%rbp)
   107ee:	7e dd                	jle    107cd <func_51+0xb2e>
   107f0:	48 8b 85 98 ed ff ff 	mov    -0x1268(%rbp),%rax
   107f7:	48 89 85 10 ef ff ff 	mov    %rax,-0x10f0(%rbp)
   107fe:	c7 05 74 3a 01 00 05 	movl   $0x5,0x13a74(%rip)        # 2427c <g_274>
   10805:	00 00 00 
   10808:	90                   	nop
   10809:	8b 05 6d 3a 01 00    	mov    0x13a6d(%rip),%eax        # 2427c <g_274>
   1080f:	85 c0                	test   %eax,%eax
   10811:	0f 88 0b 03 00 00    	js     10b22 <func_51+0xe83>
   10817:	48 8d 05 d3 3a 01 00 	lea    0x13ad3(%rip),%rax        # 242f1 <g_771>
   1081e:	48 89 85 58 ef ff ff 	mov    %rax,-0x10a8(%rbp)
   10825:	c7 85 18 ed ff ff c5 	movl   $0x18ff42c5,-0x12e8(%rbp)
   1082c:	42 ff 18 
   1082f:	48 8d 85 40 f8 ff ff 	lea    -0x7c0(%rbp),%rax
   10836:	48 8d 15 63 4e 01 00 	lea    0x14e63(%rip),%rdx        # 256a0 <g_4540+0x840>
   1083d:	b9 3f 00 00 00       	mov    $0x3f,%ecx
   10842:	48 89 c7             	mov    %rax,%rdi
   10845:	48 89 d6             	mov    %rdx,%rsi
   10848:	f3 48 a5             	rep movsq %ds:(%rsi),%es:(%rdi)
   1084b:	48 8d 85 18 ed ff ff 	lea    -0x12e8(%rbp),%rax
   10852:	48 89 85 60 ef ff ff 	mov    %rax,-0x10a0(%rbp)
   10859:	0f be 85 8c eb ff ff 	movsbl -0x1474(%rbp),%eax
   10860:	0f be 95 8c eb ff ff 	movsbl -0x1474(%rbp),%edx
   10867:	83 c2 04             	add    $0x4,%edx
   1086a:	48 63 ca             	movslq %edx,%rcx
   1086d:	48 63 d0             	movslq %eax,%rdx
   10870:	48 89 d0             	mov    %rdx,%rax
   10873:	48 c1 e0 02          	shl    $0x2,%rax
   10877:	48 01 d0             	add    %rdx,%rax
   1087a:	48 8d 14 08          	lea    (%rax,%rcx,1),%rdx
   1087e:	48 8d 05 53 3a 01 00 	lea    0x13a53(%rip),%rax        # 242d8 <g_539>
   10885:	48 01 d0             	add    %rdx,%rax
   10888:	0f b6 00             	movzbl (%rax),%eax
   1088b:	44 0f be e0          	movsbl %al,%r12d
   1088f:	48 8b 05 0a 5f 01 00 	mov    0x15f0a(%rip),%rax        # 267a0 <g_1328>
   10896:	48 8b 00             	mov    (%rax),%rax
   10899:	0f b7 10             	movzwl (%rax),%edx
   1089c:	83 c2 01             	add    $0x1,%edx
   1089f:	66 89 10             	mov    %dx,(%rax)
   108a2:	0f b7 00             	movzwl (%rax),%eax
   108a5:	0f b7 c0             	movzwl %ax,%eax
   108a8:	f7 d0                	not    %eax
   108aa:	41 89 c6             	mov    %eax,%r14d
   108ad:	0f b6 85 74 eb ff ff 	movzbl -0x148c(%rbp),%eax
   108b4:	0f b6 c8             	movzbl %al,%ecx
   108b7:	0f be 85 8c eb ff ff 	movsbl -0x1474(%rbp),%eax
   108be:	0f be 95 8c eb ff ff 	movsbl -0x1474(%rbp),%edx
   108c5:	83 c2 03             	add    $0x3,%edx
   108c8:	48 63 f2             	movslq %edx,%rsi
   108cb:	48 63 d0             	movslq %eax,%rdx
   108ce:	48 89 d0             	mov    %rdx,%rax
   108d1:	48 c1 e0 02          	shl    $0x2,%rax
   108d5:	48 01 d0             	add    %rdx,%rax
   108d8:	48 8d 14 30          	lea    (%rax,%rsi,1),%rdx
   108dc:	48 8d 05 f5 39 01 00 	lea    0x139f5(%rip),%rax        # 242d8 <g_539>
   108e3:	48 01 d0             	add    %rdx,%rax
   108e6:	0f b6 00             	movzbl (%rax),%eax
   108e9:	0f b6 c0             	movzbl %al,%eax
   108ec:	89 ce                	mov    %ecx,%esi
   108ee:	89 c7                	mov    %eax,%edi
   108f0:	e8 9e 92 ff ff       	callq  9b93 <safe_mul_func_uint8_t_u_u>
   108f5:	0f b6 d0             	movzbl %al,%edx
   108f8:	48 8b 85 50 ed ff ff 	mov    -0x12b0(%rbp),%rax
   108ff:	48 89 85 48 ef ff ff 	mov    %rax,-0x10b8(%rbp)
   10906:	48 8d 05 83 7e 01 00 	lea    0x17e83(%rip),%rax        # 28790 <g_399>
   1090d:	48 39 85 48 ef ff ff 	cmp    %rax,-0x10b8(%rbp)
   10914:	0f 95 c0             	setne  %al
   10917:	0f b6 c0             	movzbl %al,%eax
   1091a:	39 c2                	cmp    %eax,%edx
   1091c:	0f 94 c0             	sete   %al
   1091f:	89 c2                	mov    %eax,%edx
   10921:	48 8b 85 58 ef ff ff 	mov    -0x10a8(%rbp),%rax
   10928:	88 10                	mov    %dl,(%rax)
   1092a:	48 8b 85 58 ef ff ff 	mov    -0x10a8(%rbp),%rax
   10931:	0f b6 00             	movzbl (%rax),%eax
   10934:	66 44 0f be e8       	movsbw %al,%r13w
   10939:	48 8b 05 90 7e 01 00 	mov    0x17e90(%rip),%rax        # 287d0 <g_1367>
   10940:	41 89 c7             	mov    %eax,%r15d
   10943:	48 8b 85 80 eb ff ff 	mov    -0x1480(%rbp),%rax
   1094a:	48 85 c0             	test   %rax,%rax
   1094d:	0f 84 8f 00 00 00    	je     109e2 <func_51+0xd43>
   10953:	48 8b 05 ee 5d 01 00 	mov    0x15dee(%rip),%rax        # 26748 <g_818>
   1095a:	48 8b 00             	mov    (%rax),%rax
   1095d:	0f b7 00             	movzwl (%rax),%eax
   10960:	0f b7 d8             	movzwl %ax,%ebx
   10963:	48 8b 85 10 ef ff ff 	mov    -0x10f0(%rbp),%rax
   1096a:	8b 00                	mov    (%rax),%eax
   1096c:	48 63 d0             	movslq %eax,%rdx
   1096f:	48 8b 85 80 eb ff ff 	mov    -0x1480(%rbp),%rax
   10976:	48 39 c2             	cmp    %rax,%rdx
   10979:	0f 94 c0             	sete   %al
   1097c:	0f b6 c0             	movzbl %al,%eax
   1097f:	be 40 00 00 00       	mov    $0x40,%esi
   10984:	89 c7                	mov    %eax,%edi
   10986:	e8 23 92 ff ff       	callq  9bae <safe_mod_func_uint8_t_u_u>
   1098b:	0f b6 d0             	movzbl %al,%edx
   1098e:	0f b6 85 74 eb ff ff 	movzbl -0x148c(%rbp),%eax
   10995:	0f be c0             	movsbl %al,%eax
   10998:	39 c2                	cmp    %eax,%edx
   1099a:	0f 9d c0             	setge  %al
   1099d:	0f b6 c0             	movzbl %al,%eax
   109a0:	f7 d0                	not    %eax
   109a2:	89 c2                	mov    %eax,%edx
   109a4:	0f b6 85 74 eb ff ff 	movzbl -0x148c(%rbp),%eax
   109ab:	66 98                	cbtw   
   109ad:	31 d0                	xor    %edx,%eax
   109af:	98                   	cwtl   
   109b0:	89 de                	mov    %ebx,%esi
   109b2:	89 c7                	mov    %eax,%edi
   109b4:	e8 aa 8b ff ff       	callq  9563 <safe_rshift_func_int16_t_s_u>
   109b9:	0f b7 d8             	movzwl %ax,%ebx
   109bc:	0f be 85 8c eb ff ff 	movsbl -0x1474(%rbp),%eax
   109c3:	89 c7                	mov    %eax,%edi
   109c5:	e8 cc 8b ff ff       	callq  9596 <safe_unary_minus_func_int32_t_s>
   109ca:	0f b7 c0             	movzwl %ax,%eax
   109cd:	89 de                	mov    %ebx,%esi
   109cf:	89 c7                	mov    %eax,%edi
   109d1:	e8 b8 93 ff ff       	callq  9d8e <safe_div_func_uint16_t_u_u>
   109d6:	66 85 c0             	test   %ax,%ax
   109d9:	74 07                	je     109e2 <func_51+0xd43>
   109db:	b8 01 00 00 00       	mov    $0x1,%eax
   109e0:	eb 05                	jmp    109e7 <func_51+0xd48>
   109e2:	b8 00 00 00 00       	mov    $0x0,%eax
   109e7:	3d b1 e8 00 00       	cmp    $0xe8b1,%eax
   109ec:	8b 85 18 ed ff ff    	mov    -0x12e8(%rbp),%eax
   109f2:	3d ff 00 00 00       	cmp    $0xff,%eax
   109f7:	0f 95 c0             	setne  %al
   109fa:	0f b6 c0             	movzbl %al,%eax
   109fd:	89 c6                	mov    %eax,%esi
   109ff:	bf 77 00 00 00       	mov    $0x77,%edi
   10a04:	e8 8a 91 ff ff       	callq  9b93 <safe_mul_func_uint8_t_u_u>
   10a09:	0f b6 d0             	movzbl %al,%edx
   10a0c:	66 0f be 85 88 eb ff 	movsbw -0x1478(%rbp),%ax
   10a13:	ff 
   10a14:	09 d0                	or     %edx,%eax
   10a16:	98                   	cwtl   
   10a17:	44 89 fe             	mov    %r15d,%esi
   10a1a:	89 c7                	mov    %eax,%edi
   10a1c:	e8 09 8b ff ff       	callq  952a <safe_rshift_func_int16_t_s_s>
   10a21:	34 fc                	xor    $0xfc,%al
   10a23:	66 41 39 c5          	cmp    %ax,%r13w
   10a27:	0f 9c c0             	setl   %al
   10a2a:	0f b6 c0             	movzbl %al,%eax
   10a2d:	41 39 c6             	cmp    %eax,%r14d
   10a30:	0f 9e c0             	setle  %al
   10a33:	0f b6 c0             	movzbl %al,%eax
   10a36:	41 39 c4             	cmp    %eax,%r12d
   10a39:	48 8b 85 58 f8 ff ff 	mov    -0x7a8(%rbp),%rax
   10a40:	48 89 85 50 ef ff ff 	mov    %rax,-0x10b0(%rbp)
   10a47:	48 8b 85 10 ef ff ff 	mov    -0x10f0(%rbp),%rax
   10a4e:	8b 00                	mov    (%rax),%eax
   10a50:	85 c0                	test   %eax,%eax
   10a52:	0f 85 a1 00 00 00    	jne    10af9 <func_51+0xe5a>
   10a58:	48 8b 85 60 ef ff ff 	mov    -0x10a0(%rbp),%rax
   10a5f:	8b 00                	mov    (%rax),%eax
   10a61:	8d 50 01             	lea    0x1(%rax),%edx
   10a64:	48 8b 85 60 ef ff ff 	mov    -0x10a0(%rbp),%rax
   10a6b:	89 10                	mov    %edx,(%rax)
   10a6d:	48 8d 05 04 7d 01 00 	lea    0x17d04(%rip),%rax        # 28778 <g_163>
   10a74:	48 39 85 18 ef ff ff 	cmp    %rax,-0x10e8(%rbp)
   10a7b:	0f 95 c0             	setne  %al
   10a7e:	0f b6 c0             	movzbl %al,%eax
   10a81:	89 c6                	mov    %eax,%esi
   10a83:	bf 00 00 00 00       	mov    $0x0,%edi
   10a88:	e8 92 92 ff ff       	callq  9d1f <safe_sub_func_uint16_t_u_u>
   10a8d:	66 85 c0             	test   %ax,%ax
   10a90:	75 67                	jne    10af9 <func_51+0xe5a>
   10a92:	48 8b 05 07 5d 01 00 	mov    0x15d07(%rip),%rax        # 267a0 <g_1328>
   10a99:	48 8b 00             	mov    (%rax),%rax
   10a9c:	0f b7 00             	movzwl (%rax),%eax
   10a9f:	0f bf d8             	movswl %ax,%ebx
   10aa2:	0f b6 85 74 eb ff ff 	movzbl -0x148c(%rbp),%eax
   10aa9:	0f be c0             	movsbl %al,%eax
   10aac:	89 c6                	mov    %eax,%esi
   10aae:	bf 9c f7 02 e9       	mov    $0xe902f79c,%edi
   10ab3:	e8 18 94 ff ff       	callq  9ed0 <safe_sub_func_uint32_t_u_u>
   10ab8:	0f be 85 8c eb ff ff 	movsbl -0x1474(%rbp),%eax
   10abf:	0f be 95 8c eb ff ff 	movsbl -0x1474(%rbp),%edx
   10ac6:	83 c2 03             	add    $0x3,%edx
   10ac9:	48 63 ca             	movslq %edx,%rcx
   10acc:	48 63 d0             	movslq %eax,%rdx
   10acf:	48 89 d0             	mov    %rdx,%rax
   10ad2:	48 c1 e0 02          	shl    $0x2,%rax
   10ad6:	48 01 d0             	add    %rdx,%rax
   10ad9:	48 8d 14 08          	lea    (%rax,%rcx,1),%rdx
   10add:	48 8d 05 f4 37 01 00 	lea    0x137f4(%rip),%rax        # 242d8 <g_539>
   10ae4:	48 01 d0             	add    %rdx,%rax
   10ae7:	0f b6 00             	movzbl (%rax),%eax
   10aea:	0f be c0             	movsbl %al,%eax
   10aed:	89 de                	mov    %ebx,%esi
   10aef:	89 c7                	mov    %eax,%edi
   10af1:	e8 ff 88 ff ff       	callq  93f5 <safe_mul_func_int16_t_s_s>
   10af6:	66 85 c0             	test   %ax,%ax
   10af9:	90                   	nop
   10afa:	0f b6 05 84 38 01 00 	movzbl 0x13884(%rip),%eax        # 24385 <g_1340+0x1>
   10b01:	0f b6 c0             	movzbl %al,%eax
   10b04:	48 8b 95 80 eb ff ff 	mov    -0x1480(%rbp),%rdx
   10b0b:	21 d0                	and    %edx,%eax
   10b0d:	83 e0 01             	and    $0x1,%eax
   10b10:	89 85 90 ec ff ff    	mov    %eax,-0x1370(%rbp)
   10b16:	48 8b 85 18 f1 ff ff 	mov    -0xee8(%rbp),%rax
   10b1d:	e9 48 37 00 00       	jmpq   1426a <func_51+0x45cb>
   10b22:	0f be 85 8c eb ff ff 	movsbl -0x1474(%rbp),%eax
   10b29:	0f be 95 8c eb ff ff 	movsbl -0x1474(%rbp),%edx
   10b30:	83 c2 02             	add    $0x2,%edx
   10b33:	48 63 ca             	movslq %edx,%rcx
   10b36:	48 63 d0             	movslq %eax,%rdx
   10b39:	48 89 d0             	mov    %rdx,%rax
   10b3c:	48 c1 e0 02          	shl    $0x2,%rax
   10b40:	48 01 d0             	add    %rdx,%rax
   10b43:	48 8d 14 08          	lea    (%rax,%rcx,1),%rdx
   10b47:	48 8d 05 8a 37 01 00 	lea    0x1378a(%rip),%rax        # 242d8 <g_539>
   10b4e:	48 01 d0             	add    %rdx,%rax
   10b51:	0f b6 00             	movzbl (%rax),%eax
   10b54:	84 c0                	test   %al,%al
   10b56:	74 4a                	je     10ba2 <func_51+0xf03>
   10b58:	48 8d 85 40 f8 ff ff 	lea    -0x7c0(%rbp),%rax
   10b5f:	48 8d 15 3a 4d 01 00 	lea    0x14d3a(%rip),%rdx        # 258a0 <g_4540+0xa40>
   10b66:	b9 24 00 00 00       	mov    $0x24,%ecx
   10b6b:	48 89 c7             	mov    %rax,%rdi
   10b6e:	48 89 d6             	mov    %rdx,%rsi
   10b71:	f3 48 a5             	rep movsq %ds:(%rsi),%es:(%rdi)
   10b74:	c7 85 a4 ec ff ff ff 	movl   $0xffffffff,-0x135c(%rbp)
   10b7b:	ff ff ff 
   10b7e:	48 8b 05 6b 5b 01 00 	mov    0x15b6b(%rip),%rax        # 266f0 <g_571>
   10b85:	8b 00                	mov    (%rax),%eax
   10b87:	85 c0                	test   %eax,%eax
   10b89:	0f 85 6c 02 00 00    	jne    10dfb <func_51+0x115c>
   10b8f:	83 ad a4 ec ff ff 01 	subl   $0x1,-0x135c(%rbp)
   10b96:	48 8b 85 58 ed ff ff 	mov    -0x12a8(%rbp),%rax
   10b9d:	e9 c8 36 00 00       	jmpq   1426a <func_51+0x45cb>
   10ba2:	48 8b 85 20 ef ff ff 	mov    -0x10e0(%rbp),%rax
   10ba9:	e9 bc 36 00 00       	jmpq   1426a <func_51+0x45cb>
   10bae:	48 c7 85 38 ef ff ff 	movq   $0x0,-0x10c8(%rbp)
   10bb5:	00 00 00 00 
   10bb9:	48 8d 05 c2 36 01 00 	lea    0x136c2(%rip),%rax        # 24282 <g_335>
   10bc0:	48 89 85 40 ef ff ff 	mov    %rax,-0x10c0(%rbp)
   10bc7:	c7 85 9c ec ff ff 01 	movl   $0x1,-0x1364(%rbp)
   10bce:	00 00 00 
   10bd1:	48 8b 05 c0 5b 01 00 	mov    0x15bc0(%rip),%rax        # 26798 <g_1329>
   10bd8:	66 c7 00 92 c6       	movw   $0xc692,(%rax)
   10bdd:	48 8b 05 a4 5b 01 00 	mov    0x15ba4(%rip),%rax        # 26788 <g_1146>
   10be4:	0f b6 85 74 eb ff ff 	movzbl -0x148c(%rbp),%eax
   10beb:	0f be d8             	movsbl %al,%ebx
   10bee:	0f be 85 8c eb ff ff 	movsbl -0x1474(%rbp),%eax
   10bf5:	0f be 95 8c eb ff ff 	movsbl -0x1474(%rbp),%edx
   10bfc:	83 c2 03             	add    $0x3,%edx
   10bff:	48 63 ca             	movslq %edx,%rcx
   10c02:	48 63 d0             	movslq %eax,%rdx
   10c05:	48 89 d0             	mov    %rdx,%rax
   10c08:	48 c1 e0 02          	shl    $0x2,%rax
   10c0c:	48 01 d0             	add    %rdx,%rax
   10c0f:	48 8d 14 08          	lea    (%rax,%rcx,1),%rdx
   10c13:	48 8d 05 be 36 01 00 	lea    0x136be(%rip),%rax        # 242d8 <g_539>
   10c1a:	48 01 d0             	add    %rdx,%rax
   10c1d:	0f b6 00             	movzbl (%rax),%eax
   10c20:	44 0f be e0          	movsbl %al,%r12d
   10c24:	66 0f be 85 88 eb ff 	movsbw -0x1478(%rbp),%ax
   10c2b:	ff 
   10c2c:	0f b7 c0             	movzwl %ax,%eax
   10c2f:	89 c6                	mov    %eax,%esi
   10c31:	bf 01 00 00 00       	mov    $0x1,%edi
   10c36:	e8 c4 90 ff ff       	callq  9cff <safe_add_func_uint16_t_u_u>
   10c3b:	48 8b 85 40 ef ff ff 	mov    -0x10c0(%rbp),%rax
   10c42:	66 c7 00 00 00       	movw   $0x0,(%rax)
   10c47:	48 8b 85 40 ef ff ff 	mov    -0x10c0(%rbp),%rax
   10c4e:	0f b7 10             	movzwl (%rax),%edx
   10c51:	0f b6 85 74 eb ff ff 	movzbl -0x148c(%rbp),%eax
   10c58:	66 98                	cbtw   
   10c5a:	31 d0                	xor    %edx,%eax
   10c5c:	98                   	cwtl   
   10c5d:	44 89 e6             	mov    %r12d,%esi
   10c60:	89 c7                	mov    %eax,%edi
   10c62:	e8 6c 87 ff ff       	callq  93d3 <safe_sub_func_int16_t_s_s>
   10c67:	48 0f bf d0          	movswq %ax,%rdx
   10c6b:	48 8b 85 58 ed ff ff 	mov    -0x12a8(%rbp),%rax
   10c72:	48 c7 00 ff ff ff ff 	movq   $0xffffffffffffffff,(%rax)
   10c79:	48 8b 85 58 ed ff ff 	mov    -0x12a8(%rbp),%rax
   10c80:	48 8b 00             	mov    (%rax),%rax
   10c83:	48 89 d6             	mov    %rdx,%rsi
   10c86:	48 89 c7             	mov    %rax,%rdi
   10c89:	e8 f2 93 ff ff       	callq  a080 <safe_mod_func_uint64_t_u_u>
   10c8e:	0f b7 c0             	movzwl %ax,%eax
   10c91:	be 0f 00 00 00       	mov    $0xf,%esi
   10c96:	89 c7                	mov    %eax,%edi
   10c98:	e8 69 91 ff ff       	callq  9e06 <safe_lshift_func_uint16_t_u_u>
   10c9d:	98                   	cwtl   
   10c9e:	8b 95 9c ec ff ff    	mov    -0x1364(%rbp),%edx
   10ca4:	89 d6                	mov    %edx,%esi
   10ca6:	89 c7                	mov    %eax,%edi
   10ca8:	e8 e5 87 ff ff       	callq  9492 <safe_lshift_func_int16_t_s_s>
   10cad:	66 85 c0             	test   %ax,%ax
   10cb0:	74 07                	je     10cb9 <func_51+0x101a>
   10cb2:	b8 01 00 00 00       	mov    $0x1,%eax
   10cb7:	eb 05                	jmp    10cbe <func_51+0x101f>
   10cb9:	b8 00 00 00 00       	mov    $0x0,%eax
   10cbe:	0f b7 d0             	movzwl %ax,%edx
   10cc1:	48 8b 05 80 7a 01 00 	mov    0x17a80(%rip),%rax        # 28748 <g_19>
   10cc8:	0f b7 c0             	movzwl %ax,%eax
   10ccb:	89 d6                	mov    %edx,%esi
   10ccd:	89 c7                	mov    %eax,%edi
   10ccf:	e8 ba 90 ff ff       	callq  9d8e <safe_div_func_uint16_t_u_u>
   10cd4:	0f b7 c0             	movzwl %ax,%eax
   10cd7:	89 de                	mov    %ebx,%esi
   10cd9:	89 c7                	mov    %eax,%edi
   10cdb:	e8 f0 91 ff ff       	callq  9ed0 <safe_sub_func_uint32_t_u_u>
   10ce0:	80 bd 8c eb ff ff 00 	cmpb   $0x0,-0x1474(%rbp)
   10ce7:	74 07                	je     10cf0 <func_51+0x1051>
   10ce9:	83 bd 98 ec ff ff 00 	cmpl   $0x0,-0x1368(%rbp)
   10cf0:	48 8b 05 01 5a 01 00 	mov    0x15a01(%rip),%rax        # 266f8 <g_635>
   10cf7:	0f b6 00             	movzbl (%rax),%eax
   10cfa:	0f b6 c0             	movzbl %al,%eax
   10cfd:	be 07 00 00 00       	mov    $0x7,%esi
   10d02:	89 c7                	mov    %eax,%edi
   10d04:	e8 84 8f ff ff       	callq  9c8d <safe_rshift_func_uint8_t_u_s>
   10d09:	84 c0                	test   %al,%al
   10d0b:	0f 94 c0             	sete   %al
   10d0e:	0f b6 d0             	movzbl %al,%edx
   10d11:	48 8b 85 38 ef ff ff 	mov    -0x10c8(%rbp),%rax
   10d18:	48 3b 85 98 ed ff ff 	cmp    -0x1268(%rbp),%rax
   10d1f:	0f 94 c0             	sete   %al
   10d22:	0f b6 c0             	movzbl %al,%eax
   10d25:	89 d6                	mov    %edx,%esi
   10d27:	89 c7                	mov    %eax,%edi
   10d29:	e8 a6 84 ff ff       	callq  91d4 <safe_add_func_int8_t_s_s>
   10d2e:	38 85 88 eb ff ff    	cmp    %al,-0x1478(%rbp)
   10d34:	75 08                	jne    10d3e <func_51+0x109f>
   10d36:	8b 85 10 ed ff ff    	mov    -0x12f0(%rbp),%eax
   10d3c:	85 c0                	test   %eax,%eax
   10d3e:	48 8b 05 fb 59 01 00 	mov    0x159fb(%rip),%rax        # 26740 <g_819>
   10d45:	0f b7 00             	movzwl (%rax),%eax
   10d48:	0f b7 c0             	movzwl %ax,%eax
   10d4b:	48 8b 15 f6 79 01 00 	mov    0x179f6(%rip),%rdx        # 28748 <g_19>
   10d52:	21 c2                	and    %eax,%edx
   10d54:	0f be 85 8c eb ff ff 	movsbl -0x1474(%rbp),%eax
   10d5b:	21 d0                	and    %edx,%eax
   10d5d:	89 c2                	mov    %eax,%edx
   10d5f:	48 8b 85 48 ed ff ff 	mov    -0x12b8(%rbp),%rax
   10d66:	89 10                	mov    %edx,(%rax)
   10d68:	48 8b 85 48 ed ff ff 	mov    -0x12b8(%rbp),%rax
   10d6f:	8b 00                	mov    (%rax),%eax
   10d71:	85 c0                	test   %eax,%eax
   10d73:	74 0c                	je     10d81 <func_51+0x10e2>
   10d75:	48 8b 85 20 ef ff ff 	mov    -0x10e0(%rbp),%rax
   10d7c:	e9 e9 34 00 00       	jmpq   1426a <func_51+0x45cb>
   10d81:	48 8d 85 10 ed ff ff 	lea    -0x12f0(%rbp),%rax
   10d88:	48 89 85 28 ef ff ff 	mov    %rax,-0x10d8(%rbp)
   10d8f:	48 8b 85 28 ef ff ff 	mov    -0x10d8(%rbp),%rax
   10d96:	48 89 85 30 ef ff ff 	mov    %rax,-0x10d0(%rbp)
   10d9d:	48 8b 85 28 ef ff ff 	mov    -0x10d8(%rbp),%rax
   10da4:	8b 10                	mov    (%rax),%edx
   10da6:	0f be 85 88 eb ff ff 	movsbl -0x1478(%rbp),%eax
   10dad:	31 c2                	xor    %eax,%edx
   10daf:	48 8b 85 28 ef ff ff 	mov    -0x10d8(%rbp),%rax
   10db6:	89 10                	mov    %edx,(%rax)
   10db8:	48 8b 85 98 ed ff ff 	mov    -0x1268(%rbp),%rax
   10dbf:	8b 00                	mov    (%rax),%eax
   10dc1:	85 c0                	test   %eax,%eax
   10dc3:	74 12                	je     10dd7 <func_51+0x1138>
   10dc5:	0f b6 85 8c eb ff ff 	movzbl -0x1474(%rbp),%eax
   10dcc:	83 c0 01             	add    $0x1,%eax
   10dcf:	88 85 8c eb ff ff    	mov    %al,-0x1474(%rbp)
   10dd5:	eb 17                	jmp    10dee <func_51+0x114f>
   10dd7:	48 c7 85 30 ef ff ff 	movq   $0x0,-0x10d0(%rbp)
   10dde:	00 00 00 00 
   10de2:	48 8b 85 a0 ed ff ff 	mov    -0x1260(%rbp),%rax
   10de9:	e9 7c 34 00 00       	jmpq   1426a <func_51+0x45cb>
   10dee:	80 bd 8c eb ff ff 00 	cmpb   $0x0,-0x1474(%rbp)
   10df5:	0f 8e 31 f8 ff ff    	jle    1062c <func_51+0x98d>
   10dfb:	48 8b 05 66 33 01 00 	mov    0x13366(%rip),%rax        # 24168 <g_126>
   10e02:	be 04 00 00 00       	mov    $0x4,%esi
   10e07:	48 89 c7             	mov    %rax,%rdi
   10e0a:	e8 32 8a ff ff       	callq  9841 <safe_add_func_int64_t_s_s>
   10e0f:	48 89 05 52 33 01 00 	mov    %rax,0x13352(%rip)        # 24168 <g_126>
   10e16:	48 8b 05 4b 33 01 00 	mov    0x1334b(%rip),%rax        # 24168 <g_126>
   10e1d:	48 83 f8 08          	cmp    $0x8,%rax
   10e21:	0f 87 75 f7 ff ff    	ja     1059c <func_51+0x8fd>
   10e27:	90                   	nop
   10e28:	48 0f be 9d 8c eb ff 	movsbq -0x1474(%rbp),%rbx
   10e2f:	ff 
   10e30:	44 0f be a5 88 eb ff 	movsbl -0x1478(%rbp),%r12d
   10e37:	ff 
   10e38:	be 0e 00 00 00       	mov    $0xe,%esi
   10e3d:	bf 01 00 00 00       	mov    $0x1,%edi
   10e42:	e8 33 90 ff ff       	callq  9e7a <safe_rshift_func_uint16_t_u_u>
   10e47:	0f b7 c0             	movzwl %ax,%eax
   10e4a:	44 89 e6             	mov    %r12d,%esi
   10e4d:	89 c7                	mov    %eax,%edi
   10e4f:	e8 26 90 ff ff       	callq  9e7a <safe_rshift_func_uint16_t_u_u>
   10e54:	0f be c0             	movsbl %al,%eax
   10e57:	89 c6                	mov    %eax,%esi
   10e59:	bf c5 ff ff ff       	mov    $0xffffffc5,%edi
   10e5e:	e8 07 84 ff ff       	callq  926a <safe_div_func_int8_t_s_s>
   10e63:	84 c0                	test   %al,%al
   10e65:	75 58                	jne    10ebf <func_51+0x1220>
   10e67:	48 8b 85 48 ed ff ff 	mov    -0x12b8(%rbp),%rax
   10e6e:	44 8b 20             	mov    (%rax),%r12d
   10e71:	48 8b 95 d0 ec ff ff 	mov    -0x1330(%rbp),%rdx
   10e78:	48 8b 85 a8 ed ff ff 	mov    -0x1258(%rbp),%rax
   10e7f:	48 89 10             	mov    %rdx,(%rax)
   10e82:	48 8b 05 07 59 01 00 	mov    0x15907(%rip),%rax        # 26790 <g_1145>
   10e89:	48 8b 00             	mov    (%rax),%rax
   10e8c:	48 8b 05 7d 58 01 00 	mov    0x1587d(%rip),%rax        # 26710 <g_632>
   10e93:	48 8b 00             	mov    (%rax),%rax
   10e96:	48 8b 00             	mov    (%rax),%rax
   10e99:	48 8b 00             	mov    (%rax),%rax
   10e9c:	0f b6 00             	movzbl (%rax),%eax
   10e9f:	0f b6 d0             	movzbl %al,%edx
   10ea2:	48 8b 85 98 ed ff ff 	mov    -0x1268(%rbp),%rax
   10ea9:	8b 00                	mov    (%rax),%eax
   10eab:	0f b6 c0             	movzbl %al,%eax
   10eae:	89 d6                	mov    %edx,%esi
   10eb0:	89 c7                	mov    %eax,%edi
   10eb2:	e8 f7 8c ff ff       	callq  9bae <safe_mod_func_uint8_t_u_u>
   10eb7:	0f b6 c0             	movzbl %al,%eax
   10eba:	41 39 c4             	cmp    %eax,%r12d
   10ebd:	75 07                	jne    10ec6 <func_51+0x1227>
   10ebf:	b8 01 00 00 00       	mov    $0x1,%eax
   10ec4:	eb 05                	jmp    10ecb <func_51+0x122c>
   10ec6:	b8 00 00 00 00       	mov    $0x0,%eax
   10ecb:	f7 d0                	not    %eax
   10ecd:	89 c6                	mov    %eax,%esi
   10ecf:	bf 0a 45 00 00       	mov    $0x450a,%edi
   10ed4:	e8 6f 8f ff ff       	callq  9e48 <safe_rshift_func_uint16_t_u_s>
   10ed9:	48 8b 85 98 ed ff ff 	mov    -0x1268(%rbp),%rax
   10ee0:	8b 00                	mov    (%rax),%eax
   10ee2:	85 c0                	test   %eax,%eax
   10ee4:	7f 10                	jg     10ef6 <func_51+0x1257>
   10ee6:	48 8b 05 a3 58 01 00 	mov    0x158a3(%rip),%rax        # 26790 <g_1145>
   10eed:	48 8b 00             	mov    (%rax),%rax
   10ef0:	0f b7 00             	movzwl (%rax),%eax
   10ef3:	66 85 c0             	test   %ax,%ax
   10ef6:	48 8b 85 98 ed ff ff 	mov    -0x1268(%rbp),%rax
   10efd:	8b 00                	mov    (%rax),%eax
   10eff:	48 63 d0             	movslq %eax,%rdx
   10f02:	48 8b 85 80 eb ff ff 	mov    -0x1480(%rbp),%rax
   10f09:	48 21 c2             	and    %rax,%rdx
   10f0c:	48 b8 9a 8f 2f c5 85 	movabs $0xd7232e85c52f8f9a,%rax
   10f13:	2e 23 d7 
   10f16:	48 39 c2             	cmp    %rax,%rdx
   10f19:	48 8b 85 98 ed ff ff 	mov    -0x1268(%rbp),%rax
   10f20:	8b 00                	mov    (%rax),%eax
   10f22:	48 98                	cltq   
   10f24:	48 89 de             	mov    %rbx,%rsi
   10f27:	48 89 c7             	mov    %rax,%rdi
   10f2a:	e8 51 91 ff ff       	callq  a080 <safe_mod_func_uint64_t_u_u>
   10f2f:	89 c2                	mov    %eax,%edx
   10f31:	48 8b 85 48 ed ff ff 	mov    -0x12b8(%rbp),%rax
   10f38:	89 10                	mov    %edx,(%rax)
   10f3a:	c7 05 14 32 01 00 01 	movl   $0x1,0x13214(%rip)        # 24158 <g_78>
   10f41:	00 00 00 
   10f44:	e9 2a 1f 00 00       	jmpq   12e73 <func_51+0x31d4>
   10f49:	48 8d 05 14 33 01 00 	lea    0x13314(%rip),%rax        # 24264 <g_152+0x14>
   10f50:	48 89 85 70 f0 ff ff 	mov    %rax,-0xf90(%rbp)
   10f57:	48 8d 05 06 32 01 00 	lea    0x13206(%rip),%rax        # 24164 <g_109>
   10f5e:	48 89 85 78 f0 ff ff 	mov    %rax,-0xf88(%rbp)
   10f65:	48 8d 05 f8 32 01 00 	lea    0x132f8(%rip),%rax        # 24264 <g_152+0x14>
   10f6c:	48 89 85 80 f0 ff ff 	mov    %rax,-0xf80(%rbp)
   10f73:	48 8d 05 ea 32 01 00 	lea    0x132ea(%rip),%rax        # 24264 <g_152+0x14>
   10f7a:	48 89 85 88 f0 ff ff 	mov    %rax,-0xf78(%rbp)
   10f81:	48 8d 05 dc 31 01 00 	lea    0x131dc(%rip),%rax        # 24164 <g_109>
   10f88:	48 89 85 90 f0 ff ff 	mov    %rax,-0xf70(%rbp)
   10f8f:	48 8d 05 ce 32 01 00 	lea    0x132ce(%rip),%rax        # 24264 <g_152+0x14>
   10f96:	48 89 85 98 f0 ff ff 	mov    %rax,-0xf68(%rbp)
   10f9d:	48 8d 05 c0 32 01 00 	lea    0x132c0(%rip),%rax        # 24264 <g_152+0x14>
   10fa4:	48 89 85 a0 f0 ff ff 	mov    %rax,-0xf60(%rbp)
   10fab:	48 8d 05 b2 31 01 00 	lea    0x131b2(%rip),%rax        # 24164 <g_109>
   10fb2:	48 89 85 a8 f0 ff ff 	mov    %rax,-0xf58(%rbp)
   10fb9:	48 8d 05 a4 32 01 00 	lea    0x132a4(%rip),%rax        # 24264 <g_152+0x14>
   10fc0:	48 89 85 b0 f0 ff ff 	mov    %rax,-0xf50(%rbp)
   10fc7:	48 8d 05 96 32 01 00 	lea    0x13296(%rip),%rax        # 24264 <g_152+0x14>
   10fce:	48 89 85 b8 f0 ff ff 	mov    %rax,-0xf48(%rbp)
   10fd5:	48 8d 85 70 f0 ff ff 	lea    -0xf90(%rbp),%rax
   10fdc:	48 83 c0 20          	add    $0x20,%rax
   10fe0:	48 89 85 00 ed ff ff 	mov    %rax,-0x1300(%rbp)
   10fe7:	48 8d 85 00 ed ff ff 	lea    -0x1300(%rbp),%rax
   10fee:	48 89 85 08 ed ff ff 	mov    %rax,-0x12f8(%rbp)
   10ff5:	48 8d 05 c4 56 01 00 	lea    0x156c4(%rip),%rax        # 266c0 <g_320>
   10ffc:	48 89 85 10 ed ff ff 	mov    %rax,-0x12f0(%rbp)
   11003:	48 8d 85 10 ed ff ff 	lea    -0x12f0(%rbp),%rax
   1100a:	48 89 85 18 ed ff ff 	mov    %rax,-0x12e8(%rbp)
   11011:	48 8d 85 18 ed ff ff 	lea    -0x12e8(%rbp),%rax
   11018:	48 89 85 d0 ed ff ff 	mov    %rax,-0x1230(%rbp)
   1101f:	c7 85 20 ec ff ff 5c 	movl   $0xe346d35c,-0x13e0(%rbp)
   11026:	d3 46 e3 
   11029:	c7 85 cc eb ff ff 01 	movl   $0x1,-0x1434(%rbp)
   11030:	00 00 00 
   11033:	c7 85 24 ec ff ff 06 	movl   $0x6,-0x13dc(%rbp)
   1103a:	00 00 00 
   1103d:	c7 85 c0 f0 ff ff d5 	movl   $0xa004d1d5,-0xf40(%rbp)
   11044:	d1 04 a0 
   11047:	c7 85 c4 f0 ff ff f7 	movl   $0xfffffff7,-0xf3c(%rbp)
   1104e:	ff ff ff 
   11051:	c7 85 c8 f0 ff ff f7 	movl   $0xfffffff7,-0xf38(%rbp)
   11058:	ff ff ff 
   1105b:	c7 85 cc f0 ff ff d5 	movl   $0xa004d1d5,-0xf34(%rbp)
   11062:	d1 04 a0 
   11065:	c7 85 d0 f0 ff ff d9 	movl   $0x8b861fd9,-0xf30(%rbp)
   1106c:	1f 86 8b 
   1106f:	c7 85 d4 f0 ff ff fa 	movl   $0xfffffffa,-0xf2c(%rbp)
   11076:	ff ff ff 
   11079:	c7 85 d8 f0 ff ff d9 	movl   $0x8b861fd9,-0xf28(%rbp)
   11080:	1f 86 8b 
   11083:	c7 85 dc f0 ff ff d5 	movl   $0xa004d1d5,-0xf24(%rbp)
   1108a:	d1 04 a0 
   1108d:	c7 85 e0 f0 ff ff f7 	movl   $0xfffffff7,-0xf20(%rbp)
   11094:	ff ff ff 
   11097:	c7 85 e4 f0 ff ff f7 	movl   $0xfffffff7,-0xf1c(%rbp)
   1109e:	ff ff ff 
   110a1:	c7 85 e8 f0 ff ff d5 	movl   $0xa004d1d5,-0xf18(%rbp)
   110a8:	d1 04 a0 
   110ab:	c7 85 ec f0 ff ff d9 	movl   $0x8b861fd9,-0xf14(%rbp)
   110b2:	1f 86 8b 
   110b5:	c7 85 f0 f0 ff ff fa 	movl   $0xfffffffa,-0xf10(%rbp)
   110bc:	ff ff ff 
   110bf:	c7 85 f4 f0 ff ff d9 	movl   $0x8b861fd9,-0xf0c(%rbp)
   110c6:	1f 86 8b 
   110c9:	c7 85 f8 f0 ff ff d5 	movl   $0xa004d1d5,-0xf08(%rbp)
   110d0:	d1 04 a0 
   110d3:	c7 85 fc f0 ff ff f7 	movl   $0xfffffff7,-0xf04(%rbp)
   110da:	ff ff ff 
   110dd:	c7 85 00 f1 ff ff f7 	movl   $0xfffffff7,-0xf00(%rbp)
   110e4:	ff ff ff 
   110e7:	c7 85 04 f1 ff ff d5 	movl   $0xa004d1d5,-0xefc(%rbp)
   110ee:	d1 04 a0 
   110f1:	c7 85 08 f1 ff ff d9 	movl   $0x8b861fd9,-0xef8(%rbp)
   110f8:	1f 86 8b 
   110fb:	c7 85 0c f1 ff ff fa 	movl   $0xfffffffa,-0xef4(%rbp)
   11102:	ff ff ff 
   11105:	48 8d 05 9c 55 01 00 	lea    0x1559c(%rip),%rax        # 266a8 <g_93>
   1110c:	48 89 85 20 ed ff ff 	mov    %rax,-0x12e0(%rbp)
   11113:	48 8d 85 20 ed ff ff 	lea    -0x12e0(%rbp),%rax
   1111a:	48 89 85 d8 ed ff ff 	mov    %rax,-0x1228(%rbp)
   11121:	c6 85 a0 eb ff ff ff 	movb   $0xff,-0x1460(%rbp)
   11128:	48 c7 85 28 ed ff ff 	movq   $0xfffffffffffffff6,-0x12d8(%rbp)
   1112f:	f6 ff ff ff 
   11133:	c6 85 a1 eb ff ff 01 	movb   $0x1,-0x145f(%rbp)
   1113a:	48 c7 85 e0 ed ff ff 	movq   $0x0,-0x1220(%rbp)
   11141:	00 00 00 00 
   11145:	48 8d 05 bc 30 01 00 	lea    0x130bc(%rip),%rax        # 24208 <g_142+0x88>
   1114c:	48 89 85 e8 ed ff ff 	mov    %rax,-0x1218(%rbp)
   11153:	48 c7 85 f0 ed ff ff 	movq   $0x0,-0x1210(%rbp)
   1115a:	00 00 00 00 
   1115e:	48 8d 05 74 31 01 00 	lea    0x13174(%rip),%rax        # 242d9 <g_539+0x1>
   11165:	48 89 85 f8 ed ff ff 	mov    %rax,-0x1208(%rbp)
   1116c:	c7 85 d0 f1 ff ff ba 	movl   $0x8dfc76ba,-0xe30(%rbp)
   11173:	76 fc 8d 
   11176:	c7 85 d4 f1 ff ff f9 	movl   $0xfffffff9,-0xe2c(%rbp)
   1117d:	ff ff ff 
   11180:	c7 85 d8 f1 ff ff ff 	movl   $0xffffffff,-0xe28(%rbp)
   11187:	ff ff ff 
   1118a:	c7 85 dc f1 ff ff f2 	movl   $0x7024c0f2,-0xe24(%rbp)
   11191:	c0 24 70 
   11194:	c7 85 e0 f1 ff ff 0e 	movl   $0x5277800e,-0xe20(%rbp)
   1119b:	80 77 52 
   1119e:	c7 85 e4 f1 ff ff ff 	movl   $0xffffffff,-0xe1c(%rbp)
   111a5:	ff ff ff 
   111a8:	c7 85 e8 f1 ff ff ff 	movl   $0xffffffff,-0xe18(%rbp)
   111af:	ff ff ff 
   111b2:	c7 85 ec f1 ff ff 0e 	movl   $0x5277800e,-0xe14(%rbp)
   111b9:	80 77 52 
   111bc:	c7 85 f0 f1 ff ff f2 	movl   $0x7024c0f2,-0xe10(%rbp)
   111c3:	c0 24 70 
   111c6:	c7 85 f4 f1 ff ff ff 	movl   $0xffffffff,-0xe0c(%rbp)
   111cd:	ff ff ff 
   111d0:	c7 85 f8 f1 ff ff f9 	movl   $0xfffffff9,-0xe08(%rbp)
   111d7:	ff ff ff 
   111da:	c7 85 fc f1 ff ff ba 	movl   $0x8dfc76ba,-0xe04(%rbp)
   111e1:	76 fc 8d 
   111e4:	c7 85 00 f2 ff ff f9 	movl   $0xfffffff9,-0xe00(%rbp)
   111eb:	ff ff ff 
   111ee:	c7 85 04 f2 ff ff ff 	movl   $0xffffffff,-0xdfc(%rbp)
   111f5:	ff ff ff 
   111f8:	c7 85 08 f2 ff ff f2 	movl   $0x7024c0f2,-0xdf8(%rbp)
   111ff:	c0 24 70 
   11202:	c7 85 0c f2 ff ff 0e 	movl   $0x5277800e,-0xdf4(%rbp)
   11209:	80 77 52 
   1120c:	c7 85 10 f2 ff ff ff 	movl   $0xffffffff,-0xdf0(%rbp)
   11213:	ff ff ff 
   11216:	c7 85 14 f2 ff ff ff 	movl   $0xffffffff,-0xdec(%rbp)
   1121d:	ff ff ff 
   11220:	c7 85 18 f2 ff ff 0e 	movl   $0x5277800e,-0xde8(%rbp)
   11227:	80 77 52 
   1122a:	c7 85 1c f2 ff ff f2 	movl   $0x7024c0f2,-0xde4(%rbp)
   11231:	c0 24 70 
   11234:	c7 85 20 f2 ff ff ff 	movl   $0xffffffff,-0xde0(%rbp)
   1123b:	ff ff ff 
   1123e:	c7 85 24 f2 ff ff f9 	movl   $0xfffffff9,-0xddc(%rbp)
   11245:	ff ff ff 
   11248:	c7 85 28 f2 ff ff ba 	movl   $0x8dfc76ba,-0xdd8(%rbp)
   1124f:	76 fc 8d 
   11252:	c7 85 2c f2 ff ff f9 	movl   $0xfffffff9,-0xdd4(%rbp)
   11259:	ff ff ff 
   1125c:	c7 85 30 f2 ff ff ff 	movl   $0xffffffff,-0xdd0(%rbp)
   11263:	ff ff ff 
   11266:	c7 85 34 f2 ff ff f2 	movl   $0x7024c0f2,-0xdcc(%rbp)
   1126d:	c0 24 70 
   11270:	c7 85 38 f2 ff ff 0e 	movl   $0x5277800e,-0xdc8(%rbp)
   11277:	80 77 52 
   1127a:	66 c7 85 ae eb ff ff 	movw   $0x2,-0x1452(%rbp)
   11281:	02 00 
   11283:	48 8d 05 be 74 01 00 	lea    0x174be(%rip),%rax        # 28748 <g_19>
   1128a:	48 89 85 00 ee ff ff 	mov    %rax,-0x1200(%rbp)
   11291:	c6 85 a2 eb ff ff e9 	movb   $0xe9,-0x145e(%rbp)
   11298:	48 c7 85 08 ee ff ff 	movq   $0x0,-0x11f8(%rbp)
   1129f:	00 00 00 00 
   112a3:	c7 85 28 ec ff ff ff 	movl   $0xffffffff,-0x13d8(%rbp)
   112aa:	ff ff ff 
   112ad:	c6 85 a4 eb ff ff 00 	movb   $0x0,-0x145c(%rbp)
   112b4:	8b 05 9e 2e 01 00    	mov    0x12e9e(%rip),%eax        # 24158 <g_78>
   112ba:	48 98                	cltq   
   112bc:	48 8d 15 c1 30 01 00 	lea    0x130c1(%rip),%rdx        # 24384 <g_1340>
   112c3:	0f b6 04 10          	movzbl (%rax,%rdx,1),%eax
   112c7:	0f b6 c0             	movzbl %al,%eax
   112ca:	48 be e8 4b 4e 46 64 	movabs $0xb7f52064464e4be8,%rsi
   112d1:	20 f5 b7 
   112d4:	48 89 c7             	mov    %rax,%rdi
   112d7:	e8 d3 8d ff ff       	callq  a0af <safe_div_func_uint64_t_u_u>
   112dc:	f7 d0                	not    %eax
   112de:	0f b7 c0             	movzwl %ax,%eax
   112e1:	be 0a 00 00 00       	mov    $0xa,%esi
   112e6:	89 c7                	mov    %eax,%edi
   112e8:	e8 8d 8b ff ff       	callq  9e7a <safe_rshift_func_uint16_t_u_u>
   112ed:	66 85 c0             	test   %ax,%ax
   112f0:	0f 85 9c 00 00 00    	jne    11392 <func_51+0x16f3>
   112f6:	0f b6 85 74 eb ff ff 	movzbl -0x148c(%rbp),%eax
   112fd:	0f be d8             	movsbl %al,%ebx
   11300:	8b 05 52 2e 01 00    	mov    0x12e52(%rip),%eax        # 24158 <g_78>
   11306:	48 98                	cltq   
   11308:	48 8d 15 75 30 01 00 	lea    0x13075(%rip),%rdx        # 24384 <g_1340>
   1130f:	0f b6 04 10          	movzbl (%rax,%rdx,1),%eax
   11313:	44 0f b6 e0          	movzbl %al,%r12d
   11317:	0f b6 05 67 30 01 00 	movzbl 0x13067(%rip),%eax        # 24385 <g_1340+0x1>
   1131e:	0f b6 d0             	movzbl %al,%edx
   11321:	48 8b 05 90 53 01 00 	mov    0x15390(%rip),%rax        # 266b8 <g_191>
   11328:	48 8b 00             	mov    (%rax),%rax
   1132b:	48 39 85 b0 ed ff ff 	cmp    %rax,-0x1250(%rbp)
   11332:	0f 95 c0             	setne  %al
   11335:	0f b6 c0             	movzbl %al,%eax
   11338:	89 d6                	mov    %edx,%esi
   1133a:	89 c7                	mov    %eax,%edi
   1133c:	e8 60 7f ff ff       	callq  92a1 <safe_lshift_func_int8_t_s_s>
   11341:	0f be c0             	movsbl %al,%eax
   11344:	44 89 e6             	mov    %r12d,%esi
   11347:	89 c7                	mov    %eax,%edi
   11349:	e8 b1 83 ff ff       	callq  96ff <safe_div_func_int32_t_s_s>
   1134e:	3d fd 8a 00 00       	cmp    $0x8afd,%eax
   11353:	0f 9f c0             	setg   %al
   11356:	0f b6 c0             	movzbl %al,%eax
   11359:	89 de                	mov    %ebx,%esi
   1135b:	89 c7                	mov    %eax,%edi
   1135d:	e8 54 82 ff ff       	callq  95b6 <safe_add_func_int32_t_s_s>
   11362:	48 63 d0             	movslq %eax,%rdx
   11365:	48 8b 85 80 eb ff ff 	mov    -0x1480(%rbp),%rax
   1136c:	48 39 c2             	cmp    %rax,%rdx
   1136f:	0f 92 c2             	setb   %dl
   11372:	48 8b 05 27 54 01 00 	mov    0x15427(%rip),%rax        # 267a0 <g_1328>
   11379:	48 8b 00             	mov    (%rax),%rax
   1137c:	0f b6 d2             	movzbl %dl,%edx
   1137f:	66 89 10             	mov    %dx,(%rax)
   11382:	0f b7 00             	movzwl (%rax),%eax
   11385:	0f b7 c0             	movzwl %ax,%eax
   11388:	25 7b 8b 00 00       	and    $0x8b7b,%eax
   1138d:	48 85 c0             	test   %rax,%rax
   11390:	74 07                	je     11399 <func_51+0x16fa>
   11392:	b8 01 00 00 00       	mov    $0x1,%eax
   11397:	eb 05                	jmp    1139e <func_51+0x16ff>
   11399:	b8 00 00 00 00       	mov    $0x0,%eax
   1139e:	0f be c0             	movsbl %al,%eax
   113a1:	89 c6                	mov    %eax,%esi
   113a3:	bf 61 00 00 00       	mov    $0x61,%edi
   113a8:	e8 84 7e ff ff       	callq  9231 <safe_mod_func_int8_t_s_s>
   113ad:	8b 05 a5 2d 01 00    	mov    0x12da5(%rip),%eax        # 24158 <g_78>
   113b3:	48 98                	cltq   
   113b5:	48 8d 15 c8 2f 01 00 	lea    0x12fc8(%rip),%rdx        # 24384 <g_1340>
   113bc:	0f b6 04 10          	movzbl (%rax,%rdx,1),%eax
   113c0:	0f b6 d0             	movzbl %al,%edx
   113c3:	48 8b 85 98 ed ff ff 	mov    -0x1268(%rbp),%rax
   113ca:	8b 08                	mov    (%rax),%ecx
   113cc:	8b 05 86 2d 01 00    	mov    0x12d86(%rip),%eax        # 24158 <g_78>
   113d2:	48 98                	cltq   
   113d4:	48 8d 35 a9 2f 01 00 	lea    0x12fa9(%rip),%rsi        # 24384 <g_1340>
   113db:	0f b6 04 30          	movzbl (%rax,%rsi,1),%eax
   113df:	0f b6 c0             	movzbl %al,%eax
   113e2:	39 c1                	cmp    %eax,%ecx
   113e4:	0f 9c c0             	setl   %al
   113e7:	0f b6 c0             	movzbl %al,%eax
   113ea:	39 c2                	cmp    %eax,%edx
   113ec:	0f 95 c0             	setne  %al
   113ef:	0f b6 c0             	movzbl %al,%eax
   113f2:	be ff 00 00 00       	mov    $0xff,%esi
   113f7:	89 c7                	mov    %eax,%edi
   113f9:	e8 95 87 ff ff       	callq  9b93 <safe_mul_func_uint8_t_u_u>
   113fe:	48 8b 95 18 ed ff ff 	mov    -0x12e8(%rbp),%rdx
   11405:	48 8b 85 d0 ed ff ff 	mov    -0x1230(%rbp),%rax
   1140c:	48 89 10             	mov    %rdx,(%rax)
   1140f:	0f b6 85 74 eb ff ff 	movzbl -0x148c(%rbp),%eax
   11416:	84 c0                	test   %al,%al
   11418:	0f 84 cc 02 00 00    	je     116ea <func_51+0x1a4b>
   1141e:	48 8d 05 53 2e 01 00 	lea    0x12e53(%rip),%rax        # 24278 <g_206>
   11425:	48 89 85 38 ee ff ff 	mov    %rax,-0x11c8(%rbp)
   1142c:	48 8d 05 65 2c 01 00 	lea    0x12c65(%rip),%rax        # 24098 <g_75+0x58>
   11433:	48 89 85 40 ee ff ff 	mov    %rax,-0x11c0(%rbp)
   1143a:	48 c7 85 48 ee ff ff 	movq   $0x0,-0x11b8(%rbp)
   11441:	00 00 00 00 
   11445:	48 8d 85 84 ef ff ff 	lea    -0x107c(%rbp),%rax
   1144c:	48 83 c0 04          	add    $0x4,%rax
   11450:	48 89 85 40 f8 ff ff 	mov    %rax,-0x7c0(%rbp)
   11457:	48 8d 85 84 ef ff ff 	lea    -0x107c(%rbp),%rax
   1145e:	48 83 c0 04          	add    $0x4,%rax
   11462:	48 89 85 48 f8 ff ff 	mov    %rax,-0x7b8(%rbp)
   11469:	48 8d 05 08 2e 01 00 	lea    0x12e08(%rip),%rax        # 24278 <g_206>
   11470:	48 89 85 50 f8 ff ff 	mov    %rax,-0x7b0(%rbp)
   11477:	48 8d 05 fa 2d 01 00 	lea    0x12dfa(%rip),%rax        # 24278 <g_206>
   1147e:	48 89 85 58 f8 ff ff 	mov    %rax,-0x7a8(%rbp)
   11485:	48 8d 05 ec 2d 01 00 	lea    0x12dec(%rip),%rax        # 24278 <g_206>
   1148c:	48 89 85 60 f8 ff ff 	mov    %rax,-0x7a0(%rbp)
   11493:	48 8d 05 be 2c 01 00 	lea    0x12cbe(%rip),%rax        # 24158 <g_78>
   1149a:	48 89 85 68 f8 ff ff 	mov    %rax,-0x798(%rbp)
   114a1:	48 8d 85 c4 eb ff ff 	lea    -0x143c(%rbp),%rax
   114a8:	48 89 85 70 f8 ff ff 	mov    %rax,-0x790(%rbp)
   114af:	48 8d 05 c6 2d 01 00 	lea    0x12dc6(%rip),%rax        # 2427c <g_274>
   114b6:	48 89 85 78 f8 ff ff 	mov    %rax,-0x788(%rbp)
   114bd:	48 8d 85 84 ef ff ff 	lea    -0x107c(%rbp),%rax
   114c4:	48 89 85 80 f8 ff ff 	mov    %rax,-0x780(%rbp)
   114cb:	48 8d 05 a6 2d 01 00 	lea    0x12da6(%rip),%rax        # 24278 <g_206>
   114d2:	48 89 85 88 f8 ff ff 	mov    %rax,-0x778(%rbp)
   114d9:	48 8d 05 9c 2d 01 00 	lea    0x12d9c(%rip),%rax        # 2427c <g_274>
   114e0:	48 89 85 90 f8 ff ff 	mov    %rax,-0x770(%rbp)
   114e7:	48 8d 05 8a 2d 01 00 	lea    0x12d8a(%rip),%rax        # 24278 <g_206>
   114ee:	48 89 85 98 f8 ff ff 	mov    %rax,-0x768(%rbp)
   114f5:	48 8d 85 84 ef ff ff 	lea    -0x107c(%rbp),%rax
   114fc:	48 89 85 a0 f8 ff ff 	mov    %rax,-0x760(%rbp)
   11503:	48 8d 85 c4 eb ff ff 	lea    -0x143c(%rbp),%rax
   1150a:	48 89 85 a8 f8 ff ff 	mov    %rax,-0x758(%rbp)
   11511:	48 8d 85 84 ef ff ff 	lea    -0x107c(%rbp),%rax
   11518:	48 89 85 b0 f8 ff ff 	mov    %rax,-0x750(%rbp)
   1151f:	48 c7 85 b8 f8 ff ff 	movq   $0x0,-0x748(%rbp)
   11526:	00 00 00 00 
   1152a:	48 8d 85 84 ef ff ff 	lea    -0x107c(%rbp),%rax
   11531:	48 83 c0 04          	add    $0x4,%rax
   11535:	48 89 85 c0 f8 ff ff 	mov    %rax,-0x740(%rbp)
   1153c:	48 8d 05 15 2c 01 00 	lea    0x12c15(%rip),%rax        # 24158 <g_78>
   11543:	48 89 85 c8 f8 ff ff 	mov    %rax,-0x738(%rbp)
   1154a:	48 8d 05 0b 2c 01 00 	lea    0x12c0b(%rip),%rax        # 2415c <g_80>
   11551:	48 89 85 d0 f8 ff ff 	mov    %rax,-0x730(%rbp)
   11558:	48 c7 85 d8 f8 ff ff 	movq   $0x0,-0x728(%rbp)
   1155f:	00 00 00 00 
   11563:	48 8d 05 0e 2d 01 00 	lea    0x12d0e(%rip),%rax        # 24278 <g_206>
   1156a:	48 89 85 e0 f8 ff ff 	mov    %rax,-0x720(%rbp)
   11571:	48 8d 85 c4 eb ff ff 	lea    -0x143c(%rbp),%rax
   11578:	48 89 85 e8 f8 ff ff 	mov    %rax,-0x718(%rbp)
   1157f:	48 8d 05 12 2b 01 00 	lea    0x12b12(%rip),%rax        # 24098 <g_75+0x58>
   11586:	48 89 85 f0 f8 ff ff 	mov    %rax,-0x710(%rbp)
   1158d:	48 8d 05 04 2b 01 00 	lea    0x12b04(%rip),%rax        # 24098 <g_75+0x58>
   11594:	48 89 85 f8 f8 ff ff 	mov    %rax,-0x708(%rbp)
   1159b:	48 8d 85 c4 eb ff ff 	lea    -0x143c(%rbp),%rax
   115a2:	48 89 85 00 f9 ff ff 	mov    %rax,-0x700(%rbp)
   115a9:	48 8d 05 e8 2a 01 00 	lea    0x12ae8(%rip),%rax        # 24098 <g_75+0x58>
   115b0:	48 89 85 08 f9 ff ff 	mov    %rax,-0x6f8(%rbp)
   115b7:	48 8d 05 da 2a 01 00 	lea    0x12ada(%rip),%rax        # 24098 <g_75+0x58>
   115be:	48 89 85 10 f9 ff ff 	mov    %rax,-0x6f0(%rbp)
   115c5:	48 8d 85 c4 eb ff ff 	lea    -0x143c(%rbp),%rax
   115cc:	48 89 85 18 f9 ff ff 	mov    %rax,-0x6e8(%rbp)
   115d3:	48 8d 05 9e 2c 01 00 	lea    0x12c9e(%rip),%rax        # 24278 <g_206>
   115da:	48 89 85 20 f9 ff ff 	mov    %rax,-0x6e0(%rbp)
   115e1:	48 c7 85 28 f9 ff ff 	movq   $0x0,-0x6d8(%rbp)
   115e8:	00 00 00 00 
   115ec:	48 8d 05 69 2b 01 00 	lea    0x12b69(%rip),%rax        # 2415c <g_80>
   115f3:	48 89 85 30 f9 ff ff 	mov    %rax,-0x6d0(%rbp)
   115fa:	48 8d 05 57 2b 01 00 	lea    0x12b57(%rip),%rax        # 24158 <g_78>
   11601:	48 89 85 38 f9 ff ff 	mov    %rax,-0x6c8(%rbp)
   11608:	48 8d 85 84 ef ff ff 	lea    -0x107c(%rbp),%rax
   1160f:	48 83 c0 04          	add    $0x4,%rax
   11613:	48 89 85 40 f9 ff ff 	mov    %rax,-0x6c0(%rbp)
   1161a:	48 c7 85 48 f9 ff ff 	movq   $0x0,-0x6b8(%rbp)
   11621:	00 00 00 00 
   11625:	48 8d 85 84 ef ff ff 	lea    -0x107c(%rbp),%rax
   1162c:	48 89 85 50 f9 ff ff 	mov    %rax,-0x6b0(%rbp)
   11633:	48 8d 85 c4 eb ff ff 	lea    -0x143c(%rbp),%rax
   1163a:	48 89 85 58 f9 ff ff 	mov    %rax,-0x6a8(%rbp)
   11641:	c7 85 d0 f4 ff ff fb 	movl   $0xfffffffb,-0xb30(%rbp)
   11648:	ff ff ff 
   1164b:	c7 85 d4 f4 ff ff fb 	movl   $0xfffffffb,-0xb2c(%rbp)
   11652:	ff ff ff 
   11655:	c7 85 d8 f4 ff ff fb 	movl   $0xfffffffb,-0xb28(%rbp)
   1165c:	ff ff ff 
   1165f:	c7 85 dc f4 ff ff fb 	movl   $0xfffffffb,-0xb24(%rbp)
   11666:	ff ff ff 
   11669:	c7 85 e0 f4 ff ff fb 	movl   $0xfffffffb,-0xb20(%rbp)
   11670:	ff ff ff 
   11673:	c7 85 e4 f4 ff ff fb 	movl   $0xfffffffb,-0xb1c(%rbp)
   1167a:	ff ff ff 
   1167d:	c7 85 e8 f4 ff ff fb 	movl   $0xfffffffb,-0xb18(%rbp)
   11684:	ff ff ff 
   11687:	c7 85 ec f4 ff ff fb 	movl   $0xfffffffb,-0xb14(%rbp)
   1168e:	ff ff ff 
   11691:	c7 85 f0 f4 ff ff fb 	movl   $0xfffffffb,-0xb10(%rbp)
   11698:	ff ff ff 
   1169b:	c7 85 f4 f4 ff ff fb 	movl   $0xfffffffb,-0xb0c(%rbp)
   116a2:	ff ff ff 
   116a5:	48 8b 85 98 ed ff ff 	mov    -0x1268(%rbp),%rax
   116ac:	c7 00 00 00 00 00    	movl   $0x0,(%rax)
   116b2:	48 8b 85 98 ed ff ff 	mov    -0x1268(%rbp),%rax
   116b9:	8b 10                	mov    (%rax),%edx
   116bb:	48 8b 85 48 ed ff ff 	mov    -0x12b8(%rbp),%rax
   116c2:	89 10                	mov    %edx,(%rax)
   116c4:	48 8b 05 ad 50 01 00 	mov    0x150ad(%rip),%rax        # 26778 <g_981>
   116cb:	48 8b 95 48 ed ff ff 	mov    -0x12b8(%rbp),%rdx
   116d2:	8b 12                	mov    (%rdx),%edx
   116d4:	89 10                	mov    %edx,(%rax)
   116d6:	8b 85 e8 f4 ff ff    	mov    -0xb18(%rbp),%eax
   116dc:	83 e8 01             	sub    $0x1,%eax
   116df:	89 85 e8 f4 ff ff    	mov    %eax,-0xb18(%rbp)
   116e5:	e9 82 09 00 00       	jmpq   1206c <func_51+0x23cd>
   116ea:	c7 85 30 ed ff ff 00 	movl   $0x0,-0x12d0(%rbp)
   116f1:	00 00 00 
   116f4:	48 8d 85 20 ed ff ff 	lea    -0x12e0(%rbp),%rax
   116fb:	48 89 85 20 f0 ff ff 	mov    %rax,-0xfe0(%rbp)
   11702:	48 8d 85 20 ed ff ff 	lea    -0x12e0(%rbp),%rax
   11709:	48 89 85 28 f0 ff ff 	mov    %rax,-0xfd8(%rbp)
   11710:	48 8d 85 20 ed ff ff 	lea    -0x12e0(%rbp),%rax
   11717:	48 89 85 30 f0 ff ff 	mov    %rax,-0xfd0(%rbp)
   1171e:	48 8d 85 20 ed ff ff 	lea    -0x12e0(%rbp),%rax
   11725:	48 89 85 38 f0 ff ff 	mov    %rax,-0xfc8(%rbp)
   1172c:	48 8d 85 20 ed ff ff 	lea    -0x12e0(%rbp),%rax
   11733:	48 89 85 40 f0 ff ff 	mov    %rax,-0xfc0(%rbp)
   1173a:	48 8d 85 30 ed ff ff 	lea    -0x12d0(%rbp),%rax
   11741:	48 89 85 10 ee ff ff 	mov    %rax,-0x11f0(%rbp)
   11748:	48 c7 85 18 ee ff ff 	movq   $0x1,-0x11e8(%rbp)
   1174f:	01 00 00 00 
   11753:	48 8d 05 7f 2b 01 00 	lea    0x12b7f(%rip),%rax        # 242d9 <g_539+0x1>
   1175a:	48 89 85 20 ee ff ff 	mov    %rax,-0x11e0(%rbp)
   11761:	48 8d 05 58 4f 01 00 	lea    0x14f58(%rip),%rax        # 266c0 <g_320>
   11768:	48 89 85 28 ee ff ff 	mov    %rax,-0x11d8(%rbp)
   1176f:	48 8d 05 fa 6f 01 00 	lea    0x16ffa(%rip),%rax        # 28770 <g_159+0x10>
   11776:	48 89 85 38 ed ff ff 	mov    %rax,-0x12c8(%rbp)
   1177d:	48 8d 85 38 ed ff ff 	lea    -0x12c8(%rbp),%rax
   11784:	48 89 85 40 ed ff ff 	mov    %rax,-0x12c0(%rbp)
   1178b:	48 8d 85 40 ed ff ff 	lea    -0x12c0(%rbp),%rax
   11792:	48 89 85 10 f1 ff ff 	mov    %rax,-0xef0(%rbp)
   11799:	48 8d 85 40 ed ff ff 	lea    -0x12c0(%rbp),%rax
   117a0:	48 89 85 18 f1 ff ff 	mov    %rax,-0xee8(%rbp)
   117a7:	48 8d 85 40 ed ff ff 	lea    -0x12c0(%rbp),%rax
   117ae:	48 89 85 20 f1 ff ff 	mov    %rax,-0xee0(%rbp)
   117b5:	48 8d 85 40 ed ff ff 	lea    -0x12c0(%rbp),%rax
   117bc:	48 89 85 28 f1 ff ff 	mov    %rax,-0xed8(%rbp)
   117c3:	48 8d 85 40 ed ff ff 	lea    -0x12c0(%rbp),%rax
   117ca:	48 89 85 30 f1 ff ff 	mov    %rax,-0xed0(%rbp)
   117d1:	48 8d 85 40 ed ff ff 	lea    -0x12c0(%rbp),%rax
   117d8:	48 89 85 38 f1 ff ff 	mov    %rax,-0xec8(%rbp)
   117df:	48 8d 85 40 ed ff ff 	lea    -0x12c0(%rbp),%rax
   117e6:	48 89 85 40 f1 ff ff 	mov    %rax,-0xec0(%rbp)
   117ed:	48 8d 85 40 ed ff ff 	lea    -0x12c0(%rbp),%rax
   117f4:	48 89 85 48 f1 ff ff 	mov    %rax,-0xeb8(%rbp)
   117fb:	c6 85 a5 eb ff ff 05 	movb   $0x5,-0x145b(%rbp)
   11802:	c7 85 ec eb ff ff 00 	movl   $0x0,-0x1414(%rbp)
   11809:	00 00 00 
   1180c:	eb 14                	jmp    11822 <func_51+0x1b83>
   1180e:	8b 85 ec eb ff ff    	mov    -0x1414(%rbp),%eax
   11814:	48 98                	cltq   
   11816:	c6 44 05 c2 02       	movb   $0x2,-0x3e(%rbp,%rax,1)
   1181b:	83 85 ec eb ff ff 01 	addl   $0x1,-0x1414(%rbp)
   11822:	83 bd ec eb ff ff 01 	cmpl   $0x1,-0x1414(%rbp)
   11829:	7e e3                	jle    1180e <func_51+0x1b6f>
   1182b:	0f b6 85 74 eb ff ff 	movzbl -0x148c(%rbp),%eax
   11832:	66 98                	cbtw   
   11834:	0f b7 d8             	movzwl %ax,%ebx
   11837:	0f b6 85 74 eb ff ff 	movzbl -0x148c(%rbp),%eax
   1183e:	44 0f be e0          	movsbl %al,%r12d
   11842:	44 0f be ad 8c eb ff 	movsbl -0x1474(%rbp),%r13d
   11849:	ff 
   1184a:	44 0f be b5 88 eb ff 	movsbl -0x1478(%rbp),%r14d
   11851:	ff 
   11852:	0f b7 95 a8 eb ff ff 	movzwl -0x1458(%rbp),%edx
   11859:	48 8b 85 30 f0 ff ff 	mov    -0xfd0(%rbp),%rax
   11860:	48 39 85 d8 ed ff ff 	cmp    %rax,-0x1228(%rbp)
   11867:	0f 94 c0             	sete   %al
   1186a:	0f b6 c0             	movzbl %al,%eax
   1186d:	48 89 d6             	mov    %rdx,%rsi
   11870:	48 89 c7             	mov    %rax,%rdi
   11873:	e8 c9 7f ff ff       	callq  9841 <safe_add_func_int64_t_s_s>
   11878:	48 85 c0             	test   %rax,%rax
   1187b:	74 07                	je     11884 <func_51+0x1be5>
   1187d:	b8 01 00 00 00       	mov    $0x1,%eax
   11882:	eb 05                	jmp    11889 <func_51+0x1bea>
   11884:	b8 00 00 00 00       	mov    $0x0,%eax
   11889:	89 c6                	mov    %eax,%esi
   1188b:	bf 00 00 00 00       	mov    $0x0,%edi
   11890:	e8 f8 83 ff ff       	callq  9c8d <safe_rshift_func_uint8_t_u_s>
   11895:	89 c2                	mov    %eax,%edx
   11897:	48 8b 85 00 ed ff ff 	mov    -0x1300(%rbp),%rax
   1189e:	48 8b 00             	mov    (%rax),%rax
   118a1:	0f b6 d2             	movzbl %dl,%edx
   118a4:	89 10                	mov    %edx,(%rax)
   118a6:	8b 00                	mov    (%rax),%eax
   118a8:	89 c2                	mov    %eax,%edx
   118aa:	48 8b 85 80 eb ff ff 	mov    -0x1480(%rbp),%rax
   118b1:	48 39 c2             	cmp    %rax,%rdx
   118b4:	0f 93 c0             	setae  %al
   118b7:	0f b6 c0             	movzbl %al,%eax
   118ba:	41 39 c6             	cmp    %eax,%r14d
   118bd:	0f 95 c0             	setne  %al
   118c0:	0f b6 d0             	movzbl %al,%edx
   118c3:	8b 85 30 ed ff ff    	mov    -0x12d0(%rbp),%eax
   118c9:	39 c2                	cmp    %eax,%edx
   118cb:	0f 95 c0             	setne  %al
   118ce:	0f b6 c0             	movzbl %al,%eax
   118d1:	44 89 ee             	mov    %r13d,%esi
   118d4:	89 c7                	mov    %eax,%edi
   118d6:	e8 88 7c ff ff       	callq  9563 <safe_rshift_func_int16_t_s_u>
   118db:	48 8b 05 ae 4e 01 00 	mov    0x14eae(%rip),%rax        # 26790 <g_1145>
   118e2:	48 8b 00             	mov    (%rax),%rax
   118e5:	0f b7 00             	movzwl (%rax),%eax
   118e8:	0f bf d0             	movswl %ax,%edx
   118eb:	48 8b 05 be 4e 01 00 	mov    0x14ebe(%rip),%rax        # 267b0 <g_1458>
   118f2:	48 8b 00             	mov    (%rax),%rax
   118f5:	48 85 c0             	test   %rax,%rax
   118f8:	0f 95 c0             	setne  %al
   118fb:	0f b6 c0             	movzbl %al,%eax
   118fe:	89 d6                	mov    %edx,%esi
   11900:	89 c7                	mov    %eax,%edi
   11902:	e8 ee 7a ff ff       	callq  93f5 <safe_mul_func_int16_t_s_s>
   11907:	98                   	cwtl   
   11908:	44 89 e6             	mov    %r12d,%esi
   1190b:	89 c7                	mov    %eax,%edi
   1190d:	e8 18 7c ff ff       	callq  952a <safe_rshift_func_int16_t_s_s>
   11912:	0f bf d0             	movswl %ax,%edx
   11915:	48 8b 85 48 ed ff ff 	mov    -0x12b8(%rbp),%rax
   1191c:	89 10                	mov    %edx,(%rax)
   1191e:	89 de                	mov    %ebx,%esi
   11920:	bf 5f 03 00 00       	mov    $0x35f,%edi
   11925:	e8 d5 83 ff ff       	callq  9cff <safe_add_func_uint16_t_u_u>
   1192a:	8b 85 fc f0 ff ff    	mov    -0xf04(%rbp),%eax
   11930:	98                   	cwtl   
   11931:	be 01 00 00 00       	mov    $0x1,%esi
   11936:	89 c7                	mov    %eax,%edi
   11938:	e8 76 7a ff ff       	callq  93b3 <safe_add_func_int16_t_s_s>
   1193d:	ba 00 00 00 00       	mov    $0x0,%edx
   11942:	48 8b 85 98 ed ff ff 	mov    -0x1268(%rbp),%rax
   11949:	8b 00                	mov    (%rax),%eax
   1194b:	09 c2                	or     %eax,%edx
   1194d:	48 8b 85 98 ed ff ff 	mov    -0x1268(%rbp),%rax
   11954:	89 10                	mov    %edx,(%rax)
   11956:	48 8b 85 10 ee ff ff 	mov    -0x11f0(%rbp),%rax
   1195d:	8b 00                	mov    (%rax),%eax
   1195f:	8d 50 01             	lea    0x1(%rax),%edx
   11962:	48 8b 85 10 ee ff ff 	mov    -0x11f0(%rbp),%rax
   11969:	89 10                	mov    %edx,(%rax)
   1196b:	48 8b 05 86 4d 01 00 	mov    0x14d86(%rip),%rax        # 266f8 <g_635>
   11972:	0f b6 00             	movzbl (%rax),%eax
   11975:	0f b6 d8             	movzbl %al,%ebx
   11978:	48 8b 85 80 eb ff ff 	mov    -0x1480(%rbp),%rax
   1197f:	89 c2                	mov    %eax,%edx
   11981:	48 8b 85 98 ed ff ff 	mov    -0x1268(%rbp),%rax
   11988:	89 10                	mov    %edx,(%rax)
   1198a:	0f b6 85 74 eb ff ff 	movzbl -0x148c(%rbp),%eax
   11991:	44 0f be e0          	movsbl %al,%r12d
   11995:	44 8b ad bc eb ff ff 	mov    -0x1444(%rbp),%r13d
   1199c:	4c 0f be b5 8c eb ff 	movsbq -0x1474(%rbp),%r14
   119a3:	ff 
   119a4:	44 0f be bd 88 eb ff 	movsbl -0x1478(%rbp),%r15d
   119ab:	ff 
   119ac:	0f be 85 8c eb ff ff 	movsbl -0x1474(%rbp),%eax
   119b3:	89 85 70 eb ff ff    	mov    %eax,-0x1490(%rbp)
   119b9:	48 be d2 4e 63 33 f1 	movabs $0x6ed2e4f133634ed2,%rsi
   119c0:	e4 d2 6e 
   119c3:	bf 01 00 00 00       	mov    $0x1,%edi
   119c8:	e8 2a 80 ff ff       	callq  99f7 <safe_div_func_int64_t_s_s>
   119cd:	8b 05 91 27 01 00    	mov    0x12791(%rip),%eax        # 24164 <g_109>
   119d3:	89 c2                	mov    %eax,%edx
   119d5:	48 8b 85 80 eb ff ff 	mov    -0x1480(%rbp),%rax
   119dc:	31 d0                	xor    %edx,%eax
   119de:	0f b7 c0             	movzwl %ax,%eax
   119e1:	be ff ff 00 00       	mov    $0xffff,%esi
   119e6:	89 c7                	mov    %eax,%edi
   119e8:	e8 50 83 ff ff       	callq  9d3d <safe_mul_func_uint16_t_u_u>
   119ed:	0f b7 d0             	movzwl %ax,%edx
   119f0:	48 8b 85 80 eb ff ff 	mov    -0x1480(%rbp),%rax
   119f7:	48 39 c2             	cmp    %rax,%rdx
   119fa:	0f 94 c0             	sete   %al
   119fd:	0f b6 d0             	movzbl %al,%edx
   11a00:	0f be 85 88 eb ff ff 	movsbl -0x1478(%rbp),%eax
   11a07:	39 c2                	cmp    %eax,%edx
   11a09:	0f 9c c0             	setl   %al
   11a0c:	0f b6 d0             	movzbl %al,%edx
   11a0f:	0f b6 85 74 eb ff ff 	movzbl -0x148c(%rbp),%eax
   11a16:	0f be c0             	movsbl %al,%eax
   11a19:	39 c2                	cmp    %eax,%edx
   11a1b:	0f 9e c0             	setle  %al
   11a1e:	0f b6 c0             	movzbl %al,%eax
   11a21:	8b b5 70 eb ff ff    	mov    -0x1490(%rbp),%esi
   11a27:	89 c7                	mov    %eax,%edi
   11a29:	e8 d7 7b ff ff       	callq  9605 <safe_sub_func_int32_t_s_s>
   11a2e:	48 8b 15 63 4d 01 00 	mov    0x14d63(%rip),%rdx        # 26798 <g_1329>
   11a35:	0f b7 12             	movzwl (%rdx),%edx
   11a38:	0f b7 d2             	movzwl %dx,%edx
   11a3b:	39 d0                	cmp    %edx,%eax
   11a3d:	0f 9d c0             	setge  %al
   11a40:	0f b6 d0             	movzbl %al,%edx
   11a43:	0f be 85 88 eb ff ff 	movsbl -0x1478(%rbp),%eax
   11a4a:	21 c2                	and    %eax,%edx
   11a4c:	48 8b 85 48 ed ff ff 	mov    -0x12b8(%rbp),%rax
   11a53:	89 10                	mov    %edx,(%rax)
   11a55:	48 8b 85 48 ed ff ff 	mov    -0x12b8(%rbp),%rax
   11a5c:	8b 00                	mov    (%rax),%eax
   11a5e:	44 89 fe             	mov    %r15d,%esi
   11a61:	89 c7                	mov    %eax,%edi
   11a63:	e8 68 84 ff ff       	callq  9ed0 <safe_sub_func_uint32_t_u_u>
   11a68:	0f b6 05 6a 28 01 00 	movzbl 0x1286a(%rip),%eax        # 242d9 <g_539+0x1>
   11a6f:	0f be d0             	movsbl %al,%edx
   11a72:	8b 05 e0 26 01 00    	mov    0x126e0(%rip),%eax        # 24158 <g_78>
   11a78:	39 c2                	cmp    %eax,%edx
   11a7a:	75 12                	jne    11a8e <func_51+0x1def>
   11a7c:	0f b6 85 74 eb ff ff 	movzbl -0x148c(%rbp),%eax
   11a83:	84 c0                	test   %al,%al
   11a85:	74 07                	je     11a8e <func_51+0x1def>
   11a87:	ba 01 00 00 00       	mov    $0x1,%edx
   11a8c:	eb 05                	jmp    11a93 <func_51+0x1df4>
   11a8e:	ba 00 00 00 00       	mov    $0x0,%edx
   11a93:	0f b6 85 74 eb ff ff 	movzbl -0x148c(%rbp),%eax
   11a9a:	0f be c0             	movsbl %al,%eax
   11a9d:	39 c2                	cmp    %eax,%edx
   11a9f:	0f 9e c0             	setle  %al
   11aa2:	0f b6 c0             	movzbl %al,%eax
   11aa5:	4c 89 f6             	mov    %r14,%rsi
   11aa8:	48 89 c7             	mov    %rax,%rdi
   11aab:	e8 47 7f ff ff       	callq  99f7 <safe_div_func_int64_t_s_s>
   11ab0:	0f be 85 88 eb ff ff 	movsbl -0x1478(%rbp),%eax
   11ab7:	44 89 ee             	mov    %r13d,%esi
   11aba:	89 c7                	mov    %eax,%edi
   11abc:	e8 3c 84 ff ff       	callq  9efd <safe_mod_func_uint32_t_u_u>
   11ac1:	44 89 e6             	mov    %r12d,%esi
   11ac4:	89 c7                	mov    %eax,%edi
   11ac6:	e8 01 7c ff ff       	callq  96cc <safe_mod_func_int32_t_s_s>
   11acb:	48 63 d0             	movslq %eax,%rdx
   11ace:	48 8b 85 80 eb ff ff 	mov    -0x1480(%rbp),%rax
   11ad5:	48 39 c2             	cmp    %rax,%rdx
   11ad8:	89 de                	mov    %ebx,%esi
   11ada:	bf 67 00 00 00       	mov    $0x67,%edi
   11adf:	e8 f7 80 ff ff       	callq  9bdb <safe_div_func_uint8_t_u_u>
   11ae4:	48 8b 95 18 ee ff ff 	mov    -0x11e8(%rbp),%rdx
   11aeb:	09 d0                	or     %edx,%eax
   11aed:	89 c2                	mov    %eax,%edx
   11aef:	48 8b 85 20 ee ff ff 	mov    -0x11e0(%rbp),%rax
   11af6:	88 10                	mov    %dl,(%rax)
   11af8:	48 8b 85 20 ee ff ff 	mov    -0x11e0(%rbp),%rax
   11aff:	0f b6 00             	movzbl (%rax),%eax
   11b02:	0f b6 d0             	movzbl %al,%edx
   11b05:	0f b6 85 88 eb ff ff 	movzbl -0x1478(%rbp),%eax
   11b0c:	0f b6 c0             	movzbl %al,%eax
   11b0f:	89 d6                	mov    %edx,%esi
   11b11:	89 c7                	mov    %eax,%edi
   11b13:	e8 7b 80 ff ff       	callq  9b93 <safe_mul_func_uint8_t_u_u>
   11b18:	0f b7 05 d5 27 01 00 	movzwl 0x127d5(%rip),%eax        # 242f4 <g_820>
   11b1f:	0f be c0             	movsbl %al,%eax
   11b22:	be 03 00 00 00       	mov    $0x3,%esi
   11b27:	89 c7                	mov    %eax,%edi
   11b29:	e8 07 78 ff ff       	callq  9335 <safe_rshift_func_int8_t_s_s>
   11b2e:	0f be d0             	movsbl %al,%edx
   11b31:	48 8b 05 00 4c 01 00 	mov    0x14c00(%rip),%rax        # 26738 <g_781>
   11b38:	48 39 85 60 ed ff ff 	cmp    %rax,-0x12a0(%rbp)
   11b3f:	0f 94 c0             	sete   %al
   11b42:	0f b6 c8             	movzbl %al,%ecx
   11b45:	0f b6 85 74 eb ff ff 	movzbl -0x148c(%rbp),%eax
   11b4c:	0f be c0             	movsbl %al,%eax
   11b4f:	39 c1                	cmp    %eax,%ecx
   11b51:	0f 95 c0             	setne  %al
   11b54:	0f b6 c0             	movzbl %al,%eax
   11b57:	39 c2                	cmp    %eax,%edx
   11b59:	0f 85 5d 01 00 00    	jne    11cbc <func_51+0x201d>
   11b5f:	48 0f be 9d 8c eb ff 	movsbq -0x1474(%rbp),%rbx
   11b66:	ff 
   11b67:	48 8b 85 48 ed ff ff 	mov    -0x12b8(%rbp),%rax
   11b6e:	8b 00                	mov    (%rax),%eax
   11b70:	4c 63 e0             	movslq %eax,%r12
   11b73:	66 0f be 85 88 eb ff 	movsbw -0x1478(%rbp),%ax
   11b7a:	ff 
   11b7b:	0f b7 c0             	movzwl %ax,%eax
   11b7e:	be 01 00 00 00       	mov    $0x1,%esi
   11b83:	89 c7                	mov    %eax,%edi
   11b85:	e8 f0 82 ff ff       	callq  9e7a <safe_rshift_func_uint16_t_u_u>
   11b8a:	48 8b 05 a7 4b 01 00 	mov    0x14ba7(%rip),%rax        # 26738 <g_781>
   11b91:	48 8b 00             	mov    (%rax),%rax
   11b94:	48 39 85 28 ee ff ff 	cmp    %rax,-0x11d8(%rbp)
   11b9b:	0f 94 c0             	sete   %al
   11b9e:	0f b6 d0             	movzbl %al,%edx
   11ba1:	48 8b 85 80 eb ff ff 	mov    -0x1480(%rbp),%rax
   11ba8:	48 39 c2             	cmp    %rax,%rdx
   11bab:	44 0f be ad 8c eb ff 	movsbl -0x1474(%rbp),%r13d
   11bb2:	ff 
   11bb3:	48 8b 85 40 f1 ff ff 	mov    -0xec0(%rbp),%rax
   11bba:	48 85 c0             	test   %rax,%rax
   11bbd:	0f 94 c0             	sete   %al
   11bc0:	0f b6 d0             	movzbl %al,%edx
   11bc3:	66 0f be 85 88 eb ff 	movsbw -0x1478(%rbp),%ax
   11bca:	ff 
   11bcb:	0f b7 c0             	movzwl %ax,%eax
   11bce:	89 d6                	mov    %edx,%esi
   11bd0:	89 c7                	mov    %eax,%edi
   11bd2:	e8 71 82 ff ff       	callq  9e48 <safe_rshift_func_uint16_t_u_s>
   11bd7:	89 c2                	mov    %eax,%edx
   11bd9:	48 8b 85 08 ed ff ff 	mov    -0x12f8(%rbp),%rax
   11be0:	48 8b 00             	mov    (%rax),%rax
   11be3:	48 8b 00             	mov    (%rax),%rax
   11be6:	0f b7 d2             	movzwl %dx,%edx
   11be9:	89 10                	mov    %edx,(%rax)
   11beb:	8b 10                	mov    (%rax),%edx
   11bed:	0f b6 85 74 eb ff ff 	movzbl -0x148c(%rbp),%eax
   11bf4:	0f be c0             	movsbl %al,%eax
   11bf7:	39 c2                	cmp    %eax,%edx
   11bf9:	0f 95 c0             	setne  %al
   11bfc:	0f b6 c0             	movzbl %al,%eax
   11bff:	be 04 00 00 00       	mov    $0x4,%esi
   11c04:	89 c7                	mov    %eax,%edi
   11c06:	e8 fa 7f ff ff       	callq  9c05 <safe_lshift_func_uint8_t_u_s>
   11c0b:	0f b6 15 72 27 01 00 	movzbl 0x12772(%rip),%edx        # 24384 <g_1340>
   11c12:	21 d0                	and    %edx,%eax
   11c14:	0f b6 d0             	movzbl %al,%edx
   11c17:	0f b6 85 74 eb ff ff 	movzbl -0x148c(%rbp),%eax
   11c1e:	0f be c0             	movsbl %al,%eax
   11c21:	39 c2                	cmp    %eax,%edx
   11c23:	0f 95 c0             	setne  %al
   11c26:	0f b6 c0             	movzbl %al,%eax
   11c29:	41 39 c5             	cmp    %eax,%r13d
   11c2c:	48 0f be 95 8c eb ff 	movsbq -0x1474(%rbp),%rdx
   11c33:	ff 
   11c34:	48 8b 85 80 eb ff ff 	mov    -0x1480(%rbp),%rax
   11c3b:	48 39 c2             	cmp    %rax,%rdx
   11c3e:	0f 97 c0             	seta   %al
   11c41:	0f b6 c0             	movzbl %al,%eax
   11c44:	4c 89 e6             	mov    %r12,%rsi
   11c47:	48 89 c7             	mov    %rax,%rdi
   11c4a:	e8 fc 83 ff ff       	callq  a04b <safe_sub_func_uint64_t_u_u>
   11c4f:	0f b6 85 74 eb ff ff 	movzbl -0x148c(%rbp),%eax
   11c56:	0f be d0             	movsbl %al,%edx
   11c59:	48 8b 85 48 ed ff ff 	mov    -0x12b8(%rbp),%rax
   11c60:	8b 00                	mov    (%rax),%eax
   11c62:	0f be c0             	movsbl %al,%eax
   11c65:	89 d6                	mov    %edx,%esi
   11c67:	89 c7                	mov    %eax,%edi
   11c69:	e8 84 75 ff ff       	callq  91f2 <safe_sub_func_int8_t_s_s>
   11c6e:	0f be d0             	movsbl %al,%edx
   11c71:	0f be 85 8c eb ff ff 	movsbl -0x1474(%rbp),%eax
   11c78:	89 d6                	mov    %edx,%esi
   11c7a:	89 c7                	mov    %eax,%edi
   11c7c:	e8 4b 7a ff ff       	callq  96cc <safe_mod_func_int32_t_s_s>
   11c81:	0f b7 15 fa 25 01 00 	movzwl 0x125fa(%rip),%edx        # 24282 <g_335>
   11c88:	0f bf d2             	movswl %dx,%edx
   11c8b:	39 d0                	cmp    %edx,%eax
   11c8d:	0f 9e c0             	setle  %al
   11c90:	0f b6 d0             	movzbl %al,%edx
   11c93:	0f b6 85 a0 eb ff ff 	movzbl -0x1460(%rbp),%eax
   11c9a:	0f be c0             	movsbl %al,%eax
   11c9d:	09 d0                	or     %edx,%eax
   11c9f:	48 98                	cltq   
   11ca1:	48 89 de             	mov    %rbx,%rsi
   11ca4:	48 89 c7             	mov    %rax,%rdi
   11ca7:	e8 4b 7d ff ff       	callq  99f7 <safe_div_func_int64_t_s_s>
   11cac:	89 c2                	mov    %eax,%edx
   11cae:	48 8b 85 98 ed ff ff 	mov    -0x1268(%rbp),%rax
   11cb5:	89 10                	mov    %edx,(%rax)
   11cb7:	e9 73 03 00 00       	jmpq   1202f <func_51+0x2390>
   11cbc:	c7 85 2c ec ff ff 9f 	movl   $0xe32a89f,-0x13d4(%rbp)
   11cc3:	a8 32 0e 
   11cc6:	66 c7 85 b0 eb ff ff 	movw   $0x9ab2,-0x1450(%rbp)
   11ccd:	b2 9a 
   11ccf:	c7 85 30 ec ff ff f9 	movl   $0x68c75af9,-0x13d0(%rbp)
   11cd6:	5a c7 68 
   11cd9:	c7 85 34 ec ff ff 09 	movl   $0x2ebbe809,-0x13cc(%rbp)
   11ce0:	e8 bb 2e 
   11ce3:	c7 85 f0 eb ff ff 00 	movl   $0x0,-0x1410(%rbp)
   11cea:	00 00 00 
   11ced:	eb 7e                	jmp    11d6d <func_51+0x20ce>
   11cef:	c7 85 f4 eb ff ff 00 	movl   $0x0,-0x140c(%rbp)
   11cf6:	00 00 00 
   11cf9:	eb 62                	jmp    11d5d <func_51+0x20be>
   11cfb:	c7 85 f8 eb ff ff 00 	movl   $0x0,-0x1408(%rbp)
   11d02:	00 00 00 
   11d05:	eb 46                	jmp    11d4d <func_51+0x20ae>
   11d07:	8b 85 f8 eb ff ff    	mov    -0x1408(%rbp),%eax
   11d0d:	48 63 f0             	movslq %eax,%rsi
   11d10:	8b 85 f0 eb ff ff    	mov    -0x1410(%rbp),%eax
   11d16:	48 98                	cltq   
   11d18:	8b 95 f4 eb ff ff    	mov    -0x140c(%rbp),%edx
   11d1e:	48 63 ca             	movslq %edx,%rcx
   11d21:	48 89 c2             	mov    %rax,%rdx
   11d24:	48 c1 e2 03          	shl    $0x3,%rdx
   11d28:	48 01 c2             	add    %rax,%rdx
   11d2b:	48 89 c8             	mov    %rcx,%rax
   11d2e:	48 01 c0             	add    %rax,%rax
   11d31:	48 01 c8             	add    %rcx,%rax
   11d34:	48 01 d0             	add    %rdx,%rax
   11d37:	48 01 f0             	add    %rsi,%rax
   11d3a:	48 c7 84 c5 d0 f4 ff 	movq   $0x0,-0xb30(%rbp,%rax,8)
   11d41:	ff 00 00 00 00 
   11d46:	83 85 f8 eb ff ff 01 	addl   $0x1,-0x1408(%rbp)
   11d4d:	83 bd f8 eb ff ff 02 	cmpl   $0x2,-0x1408(%rbp)
   11d54:	7e b1                	jle    11d07 <func_51+0x2068>
   11d56:	83 85 f4 eb ff ff 01 	addl   $0x1,-0x140c(%rbp)
   11d5d:	83 bd f4 eb ff ff 02 	cmpl   $0x2,-0x140c(%rbp)
   11d64:	7e 95                	jle    11cfb <func_51+0x205c>
   11d66:	83 85 f0 eb ff ff 01 	addl   $0x1,-0x1410(%rbp)
   11d6d:	83 bd f0 eb ff ff 05 	cmpl   $0x5,-0x1410(%rbp)
   11d74:	0f 8e 75 ff ff ff    	jle    11cef <func_51+0x2050>
   11d7a:	c7 85 f0 eb ff ff 00 	movl   $0x0,-0x1410(%rbp)
   11d81:	00 00 00 
   11d84:	eb 45                	jmp    11dcb <func_51+0x212c>
   11d86:	c7 85 f4 eb ff ff 00 	movl   $0x0,-0x140c(%rbp)
   11d8d:	00 00 00 
   11d90:	eb 29                	jmp    11dbb <func_51+0x211c>
   11d92:	8b 85 f4 eb ff ff    	mov    -0x140c(%rbp),%eax
   11d98:	48 98                	cltq   
   11d9a:	8b 95 f0 eb ff ff    	mov    -0x1410(%rbp),%edx
   11da0:	48 63 d2             	movslq %edx,%rdx
   11da3:	48 01 d2             	add    %rdx,%rdx
   11da6:	48 01 d0             	add    %rdx,%rax
   11da9:	c7 84 85 a0 ef ff ff 	movl   $0x5,-0x1060(%rbp,%rax,4)
   11db0:	05 00 00 00 
   11db4:	83 85 f4 eb ff ff 01 	addl   $0x1,-0x140c(%rbp)
   11dbb:	83 bd f4 eb ff ff 01 	cmpl   $0x1,-0x140c(%rbp)
   11dc2:	7e ce                	jle    11d92 <func_51+0x20f3>
   11dc4:	83 85 f0 eb ff ff 01 	addl   $0x1,-0x1410(%rbp)
   11dcb:	83 bd f0 eb ff ff 00 	cmpl   $0x0,-0x1410(%rbp)
   11dd2:	7e b2                	jle    11d86 <func_51+0x20e7>
   11dd4:	48 8b 05 45 49 01 00 	mov    0x14945(%rip),%rax        # 26720 <g_734>
   11ddb:	8b 00                	mov    (%rax),%eax
   11ddd:	85 c0                	test   %eax,%eax
   11ddf:	74 62                	je     11e43 <func_51+0x21a4>
   11de1:	48 8b 05 80 23 01 00 	mov    0x12380(%rip),%rax        # 24168 <g_126>
   11de8:	48 85 c0             	test   %rax,%rax
   11deb:	74 05                	je     11df2 <func_51+0x2153>
   11ded:	e9 36 f0 ff ff       	jmpq   10e28 <func_51+0x1189>
   11df2:	80 bd a5 eb ff ff 00 	cmpb   $0x0,-0x145b(%rbp)
   11df9:	0f 85 65 10 00 00    	jne    12e64 <func_51+0x31c5>
   11dff:	66 0f be 85 88 eb ff 	movsbw -0x1478(%rbp),%ax
   11e06:	ff 
   11e07:	0f b7 c0             	movzwl %ax,%eax
   11e0a:	be 0c 00 00 00       	mov    $0xc,%esi
   11e0f:	89 c7                	mov    %eax,%edi
   11e11:	e8 32 80 ff ff       	callq  9e48 <safe_rshift_func_uint16_t_u_s>
   11e16:	48 8b 95 98 ed ff ff 	mov    -0x1268(%rbp),%rdx
   11e1d:	8b 12                	mov    (%rdx),%edx
   11e1f:	0f b7 c0             	movzwl %ax,%eax
   11e22:	21 c2                	and    %eax,%edx
   11e24:	48 8b 85 98 ed ff ff 	mov    -0x1268(%rbp),%rax
   11e2b:	89 10                	mov    %edx,(%rax)
   11e2d:	48 8b 05 34 49 01 00 	mov    0x14934(%rip),%rax        # 26768 <g_910>
   11e34:	48 8b 95 40 f3 ff ff 	mov    -0xcc0(%rbp),%rdx
   11e3b:	48 89 10             	mov    %rdx,(%rax)
   11e3e:	e9 ec 01 00 00       	jmpq   1202f <func_51+0x2390>
   11e43:	c6 85 a6 eb ff ff f6 	movb   $0xf6,-0x145a(%rbp)
   11e4a:	c7 85 38 ec ff ff 00 	movl   $0x0,-0x13c8(%rbp)
   11e51:	00 00 00 
   11e54:	c7 85 3c ec ff ff 01 	movl   $0x1,-0x13c4(%rbp)
   11e5b:	00 00 00 
   11e5e:	c7 85 40 ec ff ff fd 	movl   $0xfffffffd,-0x13c0(%rbp)
   11e65:	ff ff ff 
   11e68:	c7 85 44 ec ff ff 93 	movl   $0x6d713093,-0x13bc(%rbp)
   11e6f:	30 71 6d 
   11e72:	48 8d 85 40 f8 ff ff 	lea    -0x7c0(%rbp),%rax
   11e79:	48 8d 15 40 d6 00 00 	lea    0xd640(%rip),%rdx        # 1f4c0 <g_2439+0x1440>
   11e80:	b9 3c 00 00 00       	mov    $0x3c,%ecx
   11e85:	48 89 c7             	mov    %rax,%rdi
   11e88:	48 89 d6             	mov    %rdx,%rsi
   11e8b:	f3 48 a5             	rep movsq %ds:(%rsi),%es:(%rdi)
   11e8e:	c7 85 48 ec ff ff a2 	movl   $0x7e7e02a2,-0x13b8(%rbp)
   11e95:	02 7e 7e 
   11e98:	c7 85 d0 eb ff ff 00 	movl   $0x0,-0x1430(%rbp)
   11e9f:	00 00 00 
   11ea2:	eb 1e                	jmp    11ec2 <func_51+0x2223>
   11ea4:	8b 85 d0 eb ff ff    	mov    -0x1430(%rbp),%eax
   11eaa:	48 98                	cltq   
   11eac:	48 8d 15 cf 23 01 00 	lea    0x123cf(%rip),%rdx        # 24282 <g_335>
   11eb3:	48 89 94 c5 90 ef ff 	mov    %rdx,-0x1070(%rbp,%rax,8)
   11eba:	ff 
   11ebb:	83 85 d0 eb ff ff 01 	addl   $0x1,-0x1430(%rbp)
   11ec2:	83 bd d0 eb ff ff 00 	cmpl   $0x0,-0x1430(%rbp)
   11ec9:	7e d9                	jle    11ea4 <func_51+0x2205>
   11ecb:	8b 85 2c ec ff ff    	mov    -0x13d4(%rbp),%eax
   11ed1:	0f b7 d8             	movzwl %ax,%ebx
   11ed4:	66 44 0f be b5 88 eb 	movsbw -0x1478(%rbp),%r14w
   11edb:	ff ff 
   11edd:	8b 85 2c ec ff ff    	mov    -0x13d4(%rbp),%eax
   11ee3:	44 0f bf e0          	movswl %ax,%r12d
   11ee7:	48 8b 85 a0 ed ff ff 	mov    -0x1260(%rbp),%rax
   11eee:	48 8b 00             	mov    (%rax),%rax
   11ef1:	48 8d 50 01          	lea    0x1(%rax),%rdx
   11ef5:	48 8b 85 a0 ed ff ff 	mov    -0x1260(%rbp),%rax
   11efc:	48 89 10             	mov    %rdx,(%rax)
   11eff:	48 8b 85 a0 ed ff ff 	mov    -0x1260(%rbp),%rax
   11f06:	48 8b 10             	mov    (%rax),%rdx
   11f09:	0f b6 85 74 eb ff ff 	movzbl -0x148c(%rbp),%eax
   11f10:	48 0f be c0          	movsbq %al,%rax
   11f14:	48 39 c2             	cmp    %rax,%rdx
   11f17:	0f 95 c0             	setne  %al
   11f1a:	0f b6 c0             	movzbl %al,%eax
   11f1d:	be bb 20 00 00       	mov    $0x20bb,%esi
   11f22:	89 c7                	mov    %eax,%edi
   11f24:	e8 cc 74 ff ff       	callq  93f5 <safe_mul_func_int16_t_s_s>
   11f29:	44 0f b6 e8          	movzbl %al,%r13d
   11f2d:	48 8b 85 98 ed ff ff 	mov    -0x1268(%rbp),%rax
   11f34:	8b 00                	mov    (%rax),%eax
   11f36:	41 89 c7             	mov    %eax,%r15d
   11f39:	48 8b 05 a0 23 01 00 	mov    0x123a0(%rip),%rax        # 242e0 <g_603>
   11f40:	0f be c0             	movsbl %al,%eax
   11f43:	be ff ff ff ff       	mov    $0xffffffff,%esi
   11f48:	89 c7                	mov    %eax,%edi
   11f4a:	e8 c3 72 ff ff       	callq  9212 <safe_mul_func_int8_t_s_s>
   11f4f:	83 c8 f7             	or     $0xfffffff7,%eax
   11f52:	44 31 f8             	xor    %r15d,%eax
   11f55:	0f b6 c0             	movzbl %al,%eax
   11f58:	44 89 ee             	mov    %r13d,%esi
   11f5b:	89 c7                	mov    %eax,%edi
   11f5d:	e8 31 7c ff ff       	callq  9b93 <safe_mul_func_uint8_t_u_u>
   11f62:	84 c0                	test   %al,%al
   11f64:	0f 94 c0             	sete   %al
   11f67:	0f b6 d0             	movzbl %al,%edx
   11f6a:	48 8b 85 10 ee ff ff 	mov    -0x11f0(%rbp),%rax
   11f71:	8b 00                	mov    (%rax),%eax
   11f73:	31 c2                	xor    %eax,%edx
   11f75:	48 8b 85 10 ee ff ff 	mov    -0x11f0(%rbp),%rax
   11f7c:	89 10                	mov    %edx,(%rax)
   11f7e:	0f b6 95 a6 eb ff ff 	movzbl -0x145a(%rbp),%edx
   11f85:	48 8b 8d d8 f5 ff ff 	mov    -0xa28(%rbp),%rcx
   11f8c:	48 8b 85 20 f6 ff ff 	mov    -0x9e0(%rbp),%rax
   11f93:	48 39 c1             	cmp    %rax,%rcx
   11f96:	0f 95 c0             	setne  %al
   11f99:	0f b6 c0             	movzbl %al,%eax
   11f9c:	39 c2                	cmp    %eax,%edx
   11f9e:	0f 9f c0             	setg   %al
   11fa1:	0f b6 d0             	movzbl %al,%edx
   11fa4:	48 8b 05 f5 47 01 00 	mov    0x147f5(%rip),%rax        # 267a0 <g_1328>
   11fab:	48 8b 00             	mov    (%rax),%rax
   11fae:	0f b7 00             	movzwl (%rax),%eax
   11fb1:	0f b7 c0             	movzwl %ax,%eax
   11fb4:	39 c2                	cmp    %eax,%edx
   11fb6:	0f 94 c0             	sete   %al
   11fb9:	0f b6 c0             	movzbl %al,%eax
   11fbc:	44 89 e6             	mov    %r12d,%esi
   11fbf:	89 c7                	mov    %eax,%edi
   11fc1:	e8 ed 73 ff ff       	callq  93b3 <safe_add_func_int16_t_s_s>
   11fc6:	66 41 39 c6          	cmp    %ax,%r14w
   11fca:	0f 9c c0             	setl   %al
   11fcd:	0f b6 c0             	movzbl %al,%eax
   11fd0:	89 85 38 ec ff ff    	mov    %eax,-0x13c8(%rbp)
   11fd6:	48 8b 05 a3 47 01 00 	mov    0x147a3(%rip),%rax        # 26780 <g_1090>
   11fdd:	48 8b 00             	mov    (%rax),%rax
   11fe0:	48 8b 05 c1 47 01 00 	mov    0x147c1(%rip),%rax        # 267a8 <g_1344>
   11fe7:	89 de                	mov    %ebx,%esi
   11fe9:	bf 01 00 00 00       	mov    $0x1,%edi
   11fee:	e8 2c 7d ff ff       	callq  9d1f <safe_sub_func_uint16_t_u_u>
   11ff3:	0f bf 95 b0 eb ff ff 	movswl -0x1450(%rbp),%edx
   11ffa:	48 8b 85 98 ed ff ff 	mov    -0x1268(%rbp),%rax
   12001:	89 10                	mov    %edx,(%rax)
   12003:	0f b6 85 9f eb ff ff 	movzbl -0x1461(%rbp),%eax
   1200a:	83 c0 01             	add    $0x1,%eax
   1200d:	88 85 9f eb ff ff    	mov    %al,-0x1461(%rbp)
   12013:	48 8b 05 1e 47 01 00 	mov    0x1471e(%rip),%rax        # 26738 <g_781>
   1201a:	48 8b 00             	mov    (%rax),%rax
   1201d:	48 85 c0             	test   %rax,%rax
   12020:	0f 95 c0             	setne  %al
   12023:	0f b6 d0             	movzbl %al,%edx
   12026:	48 8b 85 98 ed ff ff 	mov    -0x1268(%rbp),%rax
   1202d:	89 10                	mov    %edx,(%rax)
   1202f:	48 c7 05 3e 23 01 00 	movq   $0x0,0x1233e(%rip)        # 24378 <g_956>
   12036:	00 00 00 00 
   1203a:	90                   	nop
   1203b:	48 8b 05 36 23 01 00 	mov    0x12336(%rip),%rax        # 24378 <g_956>
   12042:	48 83 f8 01          	cmp    $0x1,%rax
   12046:	77 1a                	ja     12062 <func_51+0x23c3>
   12048:	48 8d 85 f8 ec ff ff 	lea    -0x1308(%rbp),%rax
   1204f:	48 89 85 30 ee ff ff 	mov    %rax,-0x11d0(%rbp)
   12056:	48 8b 85 58 ed ff ff 	mov    -0x12a8(%rbp),%rax
   1205d:	e9 08 22 00 00       	jmpq   1426a <func_51+0x45cb>
   12062:	0f b6 45 c3          	movzbl -0x3d(%rbp),%eax
   12066:	83 e8 01             	sub    $0x1,%eax
   12069:	88 45 c3             	mov    %al,-0x3d(%rbp)
   1206c:	0f b7 85 aa eb ff ff 	movzwl -0x1456(%rbp),%eax
   12073:	0f b6 d8             	movzbl %al,%ebx
   12076:	48 8b 85 98 ed ff ff 	mov    -0x1268(%rbp),%rax
   1207d:	8b 00                	mov    (%rax),%eax
   1207f:	85 c0                	test   %eax,%eax
   12081:	75 23                	jne    120a6 <func_51+0x2407>
   12083:	0f b6 85 74 eb ff ff 	movzbl -0x148c(%rbp),%eax
   1208a:	83 e0 01             	and    $0x1,%eax
   1208d:	89 c2                	mov    %eax,%edx
   1208f:	48 8b 85 f8 ed ff ff 	mov    -0x1208(%rbp),%rax
   12096:	88 10                	mov    %dl,(%rax)
   12098:	48 8b 85 f8 ed ff ff 	mov    -0x1208(%rbp),%rax
   1209f:	0f b6 00             	movzbl (%rax),%eax
   120a2:	84 c0                	test   %al,%al
   120a4:	74 07                	je     120ad <func_51+0x240e>
   120a6:	b8 01 00 00 00       	mov    $0x1,%eax
   120ab:	eb 05                	jmp    120b2 <func_51+0x2413>
   120ad:	b8 00 00 00 00       	mov    $0x0,%eax
   120b2:	89 c2                	mov    %eax,%edx
   120b4:	48 8b 85 48 ed ff ff 	mov    -0x12b8(%rbp),%rax
   120bb:	8b 00                	mov    (%rax),%eax
   120bd:	89 d6                	mov    %edx,%esi
   120bf:	89 c7                	mov    %eax,%edi
   120c1:	e8 0a 7e ff ff       	callq  9ed0 <safe_sub_func_uint32_t_u_u>
   120c6:	48 8b 05 2b 46 01 00 	mov    0x1462b(%rip),%rax        # 266f8 <g_635>
   120cd:	0f b6 00             	movzbl (%rax),%eax
   120d0:	3c 1a                	cmp    $0x1a,%al
   120d2:	0f 96 c0             	setbe  %al
   120d5:	0f b6 c0             	movzbl %al,%eax
   120d8:	89 c6                	mov    %eax,%esi
   120da:	bf ff ff 00 00       	mov    $0xffff,%edi
   120df:	e8 1b 7c ff ff       	callq  9cff <safe_add_func_uint16_t_u_u>
   120e4:	0f b6 c0             	movzbl %al,%eax
   120e7:	89 de                	mov    %ebx,%esi
   120e9:	89 c7                	mov    %eax,%edi
   120eb:	e8 88 7a ff ff       	callq  9b78 <safe_sub_func_uint8_t_u_u>
   120f0:	0f b6 d0             	movzbl %al,%edx
   120f3:	48 8b 85 80 eb ff ff 	mov    -0x1480(%rbp),%rax
   120fa:	48 39 c2             	cmp    %rax,%rdx
   120fd:	0f 92 c0             	setb   %al
   12100:	0f b6 d0             	movzbl %al,%edx
   12103:	48 8b 85 98 ed ff ff 	mov    -0x1268(%rbp),%rax
   1210a:	89 10                	mov    %edx,(%rax)
   1210c:	48 8b 85 98 ed ff ff 	mov    -0x1268(%rbp),%rax
   12113:	8b 00                	mov    (%rax),%eax
   12115:	31 85 24 ec ff ff    	xor    %eax,-0x13dc(%rbp)
   1211b:	48 8b 85 48 ed ff ff 	mov    -0x12b8(%rbp),%rax
   12122:	8b 00                	mov    (%rax),%eax
   12124:	85 c0                	test   %eax,%eax
   12126:	0f 85 57 0d 00 00    	jne    12e83 <func_51+0x31e4>
   1212c:	48 8b 85 98 ed ff ff 	mov    -0x1268(%rbp),%rax
   12133:	8b 10                	mov    (%rax),%edx
   12135:	0f be 85 8c eb ff ff 	movsbl -0x1474(%rbp),%eax
   1213c:	31 c2                	xor    %eax,%edx
   1213e:	48 8b 85 98 ed ff ff 	mov    -0x1268(%rbp),%rax
   12145:	89 10                	mov    %edx,(%rax)
   12147:	c6 85 a1 eb ff ff 09 	movb   $0x9,-0x145f(%rbp)
   1214e:	e9 01 0d 00 00       	jmpq   12e54 <func_51+0x31b5>
   12153:	48 8d 85 c4 eb ff ff 	lea    -0x143c(%rbp),%rax
   1215a:	48 89 85 d0 f4 ff ff 	mov    %rax,-0xb30(%rbp)
   12161:	48 8d 85 c4 eb ff ff 	lea    -0x143c(%rbp),%rax
   12168:	48 89 85 d8 f4 ff ff 	mov    %rax,-0xb28(%rbp)
   1216f:	48 8d 85 84 ef ff ff 	lea    -0x107c(%rbp),%rax
   12176:	48 83 c0 04          	add    $0x4,%rax
   1217a:	48 89 85 e0 f4 ff ff 	mov    %rax,-0xb20(%rbp)
   12181:	48 8d 85 cc eb ff ff 	lea    -0x1434(%rbp),%rax
   12188:	48 89 85 e8 f4 ff ff 	mov    %rax,-0xb18(%rbp)
   1218f:	48 c7 85 f0 f4 ff ff 	movq   $0x0,-0xb10(%rbp)
   12196:	00 00 00 00 
   1219a:	48 8d 85 c8 eb ff ff 	lea    -0x1438(%rbp),%rax
   121a1:	48 89 85 f8 f4 ff ff 	mov    %rax,-0xb08(%rbp)
   121a8:	48 c7 85 00 f5 ff ff 	movq   $0x0,-0xb00(%rbp)
   121af:	00 00 00 00 
   121b3:	48 c7 85 08 f5 ff ff 	movq   $0x0,-0xaf8(%rbp)
   121ba:	00 00 00 00 
   121be:	48 c7 85 10 f5 ff ff 	movq   $0x0,-0xaf0(%rbp)
   121c5:	00 00 00 00 
   121c9:	48 8d 85 c8 eb ff ff 	lea    -0x1438(%rbp),%rax
   121d0:	48 89 85 18 f5 ff ff 	mov    %rax,-0xae8(%rbp)
   121d7:	48 8d 05 7a 1f 01 00 	lea    0x11f7a(%rip),%rax        # 24158 <g_78>
   121de:	48 89 85 20 f5 ff ff 	mov    %rax,-0xae0(%rbp)
   121e5:	48 8d 85 84 ef ff ff 	lea    -0x107c(%rbp),%rax
   121ec:	48 83 c0 04          	add    $0x4,%rax
   121f0:	48 89 85 28 f5 ff ff 	mov    %rax,-0xad8(%rbp)
   121f7:	48 8d 05 5e 1f 01 00 	lea    0x11f5e(%rip),%rax        # 2415c <g_80>
   121fe:	48 89 85 30 f5 ff ff 	mov    %rax,-0xad0(%rbp)
   12205:	48 8d 85 84 ef ff ff 	lea    -0x107c(%rbp),%rax
   1220c:	48 83 c0 04          	add    $0x4,%rax
   12210:	48 89 85 38 f5 ff ff 	mov    %rax,-0xac8(%rbp)
   12217:	48 8d 05 3a 1f 01 00 	lea    0x11f3a(%rip),%rax        # 24158 <g_78>
   1221e:	48 89 85 40 f5 ff ff 	mov    %rax,-0xac0(%rbp)
   12225:	48 8d 85 c0 f0 ff ff 	lea    -0xf40(%rbp),%rax
   1222c:	48 83 c0 2c          	add    $0x2c,%rax
   12230:	48 89 85 48 f5 ff ff 	mov    %rax,-0xab8(%rbp)
   12237:	48 c7 85 50 f5 ff ff 	movq   $0x0,-0xab0(%rbp)
   1223e:	00 00 00 00 
   12242:	48 8d 85 c4 eb ff ff 	lea    -0x143c(%rbp),%rax
   12249:	48 89 85 58 f5 ff ff 	mov    %rax,-0xaa8(%rbp)
   12250:	48 8d 05 25 20 01 00 	lea    0x12025(%rip),%rax        # 2427c <g_274>
   12257:	48 89 85 60 f5 ff ff 	mov    %rax,-0xaa0(%rbp)
   1225e:	48 8d 05 17 20 01 00 	lea    0x12017(%rip),%rax        # 2427c <g_274>
   12265:	48 89 85 68 f5 ff ff 	mov    %rax,-0xa98(%rbp)
   1226c:	48 8d 85 cc eb ff ff 	lea    -0x1434(%rbp),%rax
   12273:	48 89 85 70 f5 ff ff 	mov    %rax,-0xa90(%rbp)
   1227a:	48 8d 85 c4 eb ff ff 	lea    -0x143c(%rbp),%rax
   12281:	48 89 85 78 f5 ff ff 	mov    %rax,-0xa88(%rbp)
   12288:	48 8d 85 b8 eb ff ff 	lea    -0x1448(%rbp),%rax
   1228f:	48 89 85 80 f5 ff ff 	mov    %rax,-0xa80(%rbp)
   12296:	48 8d 85 c8 eb ff ff 	lea    -0x1438(%rbp),%rax
   1229d:	48 89 85 88 f5 ff ff 	mov    %rax,-0xa78(%rbp)
   122a4:	48 8d 85 c8 eb ff ff 	lea    -0x1438(%rbp),%rax
   122ab:	48 89 85 90 f5 ff ff 	mov    %rax,-0xa70(%rbp)
   122b2:	48 8d 85 b8 eb ff ff 	lea    -0x1448(%rbp),%rax
   122b9:	48 89 85 98 f5 ff ff 	mov    %rax,-0xa68(%rbp)
   122c0:	48 8d 85 c4 eb ff ff 	lea    -0x143c(%rbp),%rax
   122c7:	48 89 85 a0 f5 ff ff 	mov    %rax,-0xa60(%rbp)
   122ce:	48 8d 85 cc eb ff ff 	lea    -0x1434(%rbp),%rax
   122d5:	48 89 85 a8 f5 ff ff 	mov    %rax,-0xa58(%rbp)
   122dc:	48 8d 05 79 1e 01 00 	lea    0x11e79(%rip),%rax        # 2415c <g_80>
   122e3:	48 89 85 b0 f5 ff ff 	mov    %rax,-0xa50(%rbp)
   122ea:	48 8d 05 8b 1f 01 00 	lea    0x11f8b(%rip),%rax        # 2427c <g_274>
   122f1:	48 89 85 b8 f5 ff ff 	mov    %rax,-0xa48(%rbp)
   122f8:	48 8d 05 99 1d 01 00 	lea    0x11d99(%rip),%rax        # 24098 <g_75+0x58>
   122ff:	48 89 85 30 ed ff ff 	mov    %rax,-0x12d0(%rbp)
   12306:	48 8d 85 30 ed ff ff 	lea    -0x12d0(%rbp),%rax
   1230d:	48 89 85 50 ee ff ff 	mov    %rax,-0x11b0(%rbp)
   12314:	c7 85 4c ec ff ff 09 	movl   $0x9,-0x13b4(%rbp)
   1231b:	00 00 00 
   1231e:	48 c7 85 58 ee ff ff 	movq   $0x0,-0x11a8(%rbp)
   12325:	00 00 00 00 
   12329:	c7 45 c2 9f 9f 9f 9f 	movl   $0x9f9f9f9f,-0x3e(%rbp)
   12330:	66 c7 45 c6 9f 9f    	movw   $0x9f9f,-0x3a(%rbp)
   12336:	66 c7 85 b2 eb ff ff 	movw   $0x0,-0x144e(%rbp)
   1233d:	00 00 
   1233f:	48 8d 85 a0 eb ff ff 	lea    -0x1460(%rbp),%rax
   12346:	48 89 85 60 ee ff ff 	mov    %rax,-0x11a0(%rbp)
   1234d:	48 8d 85 00 ed ff ff 	lea    -0x1300(%rbp),%rax
   12354:	48 89 85 68 ee ff ff 	mov    %rax,-0x1198(%rbp)
   1235b:	c7 85 50 ec ff ff b1 	movl   $0x5a44c3b1,-0x13b0(%rbp)
   12362:	c3 44 5a 
   12365:	48 b8 f1 dd 2a 28 ee 	movabs $0xa94db0ee282addf1,%rax
   1236c:	b0 4d a9 
   1236f:	48 89 85 20 f0 ff ff 	mov    %rax,-0xfe0(%rbp)
   12376:	48 89 85 28 f0 ff ff 	mov    %rax,-0xfd8(%rbp)
   1237d:	48 89 85 30 f0 ff ff 	mov    %rax,-0xfd0(%rbp)
   12384:	48 89 85 38 f0 ff ff 	mov    %rax,-0xfc8(%rbp)
   1238b:	48 89 85 40 f0 ff ff 	mov    %rax,-0xfc0(%rbp)
   12392:	48 89 85 48 f0 ff ff 	mov    %rax,-0xfb8(%rbp)
   12399:	48 89 85 50 f0 ff ff 	mov    %rax,-0xfb0(%rbp)
   123a0:	48 89 85 58 f0 ff ff 	mov    %rax,-0xfa8(%rbp)
   123a7:	48 89 85 60 f0 ff ff 	mov    %rax,-0xfa0(%rbp)
   123ae:	c7 85 d4 eb ff ff 00 	movl   $0x0,-0x142c(%rbp)
   123b5:	00 00 00 
   123b8:	eb 1e                	jmp    123d8 <func_51+0x2739>
   123ba:	8b 85 d4 eb ff ff    	mov    -0x142c(%rbp),%eax
   123c0:	48 98                	cltq   
   123c2:	48 8d 95 28 ed ff ff 	lea    -0x12d8(%rbp),%rdx
   123c9:	48 89 94 c5 90 ef ff 	mov    %rdx,-0x1070(%rbp,%rax,8)
   123d0:	ff 
   123d1:	83 85 d4 eb ff ff 01 	addl   $0x1,-0x142c(%rbp)
   123d8:	83 bd d4 eb ff ff 01 	cmpl   $0x1,-0x142c(%rbp)
   123df:	7e d9                	jle    123ba <func_51+0x271b>
   123e1:	c7 85 d4 eb ff ff 00 	movl   $0x0,-0x142c(%rbp)
   123e8:	00 00 00 
   123eb:	eb 1b                	jmp    12408 <func_51+0x2769>
   123ed:	8b 85 d4 eb ff ff    	mov    -0x142c(%rbp),%eax
   123f3:	48 98                	cltq   
   123f5:	48 c7 84 c5 78 ef ff 	movq   $0x0,-0x1088(%rbp,%rax,8)
   123fc:	ff 00 00 00 00 
   12401:	83 85 d4 eb ff ff 01 	addl   $0x1,-0x142c(%rbp)
   12408:	83 bd d4 eb ff ff 00 	cmpl   $0x0,-0x142c(%rbp)
   1240f:	7e dc                	jle    123ed <func_51+0x274e>
   12411:	48 8b 05 88 43 01 00 	mov    0x14388(%rip),%rax        # 267a0 <g_1328>
   12418:	48 8b 00             	mov    (%rax),%rax
   1241b:	66 c7 00 ff ff       	movw   $0xffff,(%rax)
   12420:	48 8b 85 80 eb ff ff 	mov    -0x1480(%rbp),%rax
   12427:	44 0f bf e8          	movswl %ax,%r13d
   1242b:	48 8b 85 48 ed ff ff 	mov    -0x12b8(%rbp),%rax
   12432:	8b 00                	mov    (%rax),%eax
   12434:	48 63 d8             	movslq %eax,%rbx
   12437:	0f b7 05 34 1f 01 00 	movzwl 0x11f34(%rip),%eax        # 24372 <g_893+0x52>
   1243e:	41 89 c7             	mov    %eax,%r15d
   12441:	0f b6 85 74 eb ff ff 	movzbl -0x148c(%rbp),%eax
   12448:	44 0f be e0          	movsbl %al,%r12d
   1244c:	48 8d 85 b8 eb ff ff 	lea    -0x1448(%rbp),%rax
   12453:	48 89 85 f0 f4 ff ff 	mov    %rax,-0xb10(%rbp)
   1245a:	48 8b 8d f0 f4 ff ff 	mov    -0xb10(%rbp),%rcx
   12461:	48 8b 95 30 ed ff ff 	mov    -0x12d0(%rbp),%rdx
   12468:	48 8b 85 50 ee ff ff 	mov    -0x11b0(%rbp),%rax
   1246f:	48 89 10             	mov    %rdx,(%rax)
   12472:	48 8b 85 50 ee ff ff 	mov    -0x11b0(%rbp),%rax
   12479:	48 8b 00             	mov    (%rax),%rax
   1247c:	48 39 c1             	cmp    %rax,%rcx
   1247f:	0f 95 c0             	setne  %al
   12482:	44 0f b6 f0          	movzbl %al,%r14d
   12486:	8b 85 4c ec ff ff    	mov    -0x13b4(%rbp),%eax
   1248c:	0a 85 8c eb ff ff    	or     -0x1474(%rbp),%al
   12492:	0f be c0             	movsbl %al,%eax
   12495:	be d6 ff ff ff       	mov    $0xffffffd6,%esi
   1249a:	89 c7                	mov    %eax,%edi
   1249c:	e8 71 6d ff ff       	callq  9212 <safe_mul_func_int8_t_s_s>
   124a1:	84 c0                	test   %al,%al
   124a3:	74 14                	je     124b9 <func_51+0x281a>
   124a5:	48 8b 85 98 ed ff ff 	mov    -0x1268(%rbp),%rax
   124ac:	8b 00                	mov    (%rax),%eax
   124ae:	85 c0                	test   %eax,%eax
   124b0:	74 07                	je     124b9 <func_51+0x281a>
   124b2:	b8 01 00 00 00       	mov    $0x1,%eax
   124b7:	eb 05                	jmp    124be <func_51+0x281f>
   124b9:	b8 00 00 00 00       	mov    $0x0,%eax
   124be:	44 39 f0             	cmp    %r14d,%eax
   124c1:	0f 9c c0             	setl   %al
   124c4:	0f b6 c0             	movzbl %al,%eax
   124c7:	44 89 e6             	mov    %r12d,%esi
   124ca:	89 c7                	mov    %eax,%edi
   124cc:	e8 ed 78 ff ff       	callq  9dbe <safe_lshift_func_uint16_t_u_s>
   124d1:	66 83 f8 02          	cmp    $0x2,%ax
   124d5:	76 07                	jbe    124de <func_51+0x283f>
   124d7:	b8 e3 00 00 00       	mov    $0xe3,%eax
   124dc:	eb 05                	jmp    124e3 <func_51+0x2844>
   124de:	b8 e2 00 00 00       	mov    $0xe2,%eax
   124e3:	48 3b 85 b8 ed ff ff 	cmp    -0x1248(%rbp),%rax
   124ea:	0f 95 c0             	setne  %al
   124ed:	0f b6 d0             	movzbl %al,%edx
   124f0:	8b 05 a2 1b 01 00    	mov    0x11ba2(%rip),%eax        # 24098 <g_75+0x58>
   124f6:	0f be c0             	movsbl %al,%eax
   124f9:	89 d6                	mov    %edx,%esi
   124fb:	89 c7                	mov    %eax,%edi
   124fd:	e8 d2 6c ff ff       	callq  91d4 <safe_add_func_int8_t_s_s>
   12502:	3c f5                	cmp    $0xf5,%al
   12504:	0f 97 c0             	seta   %al
   12507:	44 09 f8             	or     %r15d,%eax
   1250a:	0f b6 c0             	movzbl %al,%eax
   1250d:	be 01 00 00 00       	mov    $0x1,%esi
   12512:	89 c7                	mov    %eax,%edi
   12514:	e8 95 76 ff ff       	callq  9bae <safe_mod_func_uint8_t_u_u>
   12519:	88 45 c5             	mov    %al,-0x3b(%rbp)
   1251c:	0f b6 45 c5          	movzbl -0x3b(%rbp),%eax
   12520:	0f b6 d0             	movzbl %al,%edx
   12523:	48 8b 85 80 eb ff ff 	mov    -0x1480(%rbp),%rax
   1252a:	48 39 c2             	cmp    %rax,%rdx
   1252d:	0f 94 c0             	sete   %al
   12530:	0f b6 c0             	movzbl %al,%eax
   12533:	48 89 de             	mov    %rbx,%rsi
   12536:	48 89 c7             	mov    %rax,%rdi
   12539:	e8 6a 73 ff ff       	callq  98a8 <safe_sub_func_int64_t_s_s>
   1253e:	98                   	cwtl   
   1253f:	0f be 9d a1 eb ff ff 	movsbl -0x145f(%rbp),%ebx
   12546:	44 0f be a5 a1 eb ff 	movsbl -0x145f(%rbp),%r12d
   1254d:	ff 
   1254e:	44 89 ee             	mov    %r13d,%esi
   12551:	89 c7                	mov    %eax,%edi
   12553:	e8 9d 6e ff ff       	callq  93f5 <safe_mul_func_int16_t_s_s>
   12558:	89 c1                	mov    %eax,%ecx
   1255a:	49 63 f4             	movslq %r12d,%rsi
   1255d:	48 63 d3             	movslq %ebx,%rdx
   12560:	48 89 d0             	mov    %rdx,%rax
   12563:	48 c1 e0 02          	shl    $0x2,%rax
   12567:	48 01 d0             	add    %rdx,%rax
   1256a:	48 01 c0             	add    %rax,%rax
   1256d:	48 01 f0             	add    %rsi,%rax
   12570:	48 8d 14 00          	lea    (%rax,%rax,1),%rdx
   12574:	48 8d 05 05 1c 01 00 	lea    0x11c05(%rip),%rax        # 24180 <g_142>
   1257b:	66 89 0c 02          	mov    %cx,(%rdx,%rax,1)
   1257f:	49 63 cc             	movslq %r12d,%rcx
   12582:	48 63 d3             	movslq %ebx,%rdx
   12585:	48 89 d0             	mov    %rdx,%rax
   12588:	48 c1 e0 02          	shl    $0x2,%rax
   1258c:	48 01 d0             	add    %rdx,%rax
   1258f:	48 01 c0             	add    %rax,%rax
   12592:	48 01 c8             	add    %rcx,%rax
   12595:	48 8d 14 00          	lea    (%rax,%rax,1),%rdx
   12599:	48 8d 05 e0 1b 01 00 	lea    0x11be0(%rip),%rax        # 24180 <g_142>
   125a0:	0f b7 04 02          	movzwl (%rdx,%rax,1),%eax
   125a4:	66 89 05 d7 1c 01 00 	mov    %ax,0x11cd7(%rip)        # 24282 <g_335>
   125ab:	0f b7 05 d0 1c 01 00 	movzwl 0x11cd0(%rip),%eax        # 24282 <g_335>
   125b2:	0f bf d0             	movswl %ax,%edx
   125b5:	8b 85 28 f2 ff ff    	mov    -0xdd8(%rbp),%eax
   125bb:	21 d0                	and    %edx,%eax
   125bd:	0f b7 c0             	movzwl %ax,%eax
   125c0:	85 c0                	test   %eax,%eax
   125c2:	0f 84 2d 01 00 00    	je     126f5 <func_51+0x2a56>
   125c8:	48 8d 85 40 f8 ff ff 	lea    -0x7c0(%rbp),%rax
   125cf:	48 8d 15 ea 33 01 00 	lea    0x133ea(%rip),%rdx        # 259c0 <g_4540+0xb60>
   125d6:	b9 5a 00 00 00       	mov    $0x5a,%ecx
   125db:	48 89 c7             	mov    %rax,%rdi
   125de:	48 89 d6             	mov    %rdx,%rsi
   125e1:	f3 48 a5             	rep movsq %ds:(%rsi),%es:(%rdi)
   125e4:	48 8d 85 40 f8 ff ff 	lea    -0x7c0(%rbp),%rax
   125eb:	48 05 90 01 00 00    	add    $0x190,%rax
   125f1:	48 89 85 38 ed ff ff 	mov    %rax,-0x12c8(%rbp)
   125f8:	48 8d 85 38 ed ff ff 	lea    -0x12c8(%rbp),%rax
   125ff:	48 89 85 40 ed ff ff 	mov    %rax,-0x12c0(%rbp)
   12606:	c7 85 d8 eb ff ff 01 	movl   $0x1,-0x1428(%rbp)
   1260d:	00 00 00 
   12610:	c7 85 dc eb ff ff 00 	movl   $0x0,-0x1424(%rbp)
   12617:	00 00 00 
   1261a:	eb 1e                	jmp    1263a <func_51+0x299b>
   1261c:	8b 85 dc eb ff ff    	mov    -0x1424(%rbp),%eax
   12622:	48 98                	cltq   
   12624:	48 8d 95 40 ed ff ff 	lea    -0x12c0(%rbp),%rdx
   1262b:	48 89 94 c5 10 f1 ff 	mov    %rdx,-0xef0(%rbp,%rax,8)
   12632:	ff 
   12633:	83 85 dc eb ff ff 01 	addl   $0x1,-0x1424(%rbp)
   1263a:	83 bd dc eb ff ff 02 	cmpl   $0x2,-0x1424(%rbp)
   12641:	7e d9                	jle    1261c <func_51+0x297d>
   12643:	c7 85 04 ec ff ff 01 	movl   $0x1,-0x13fc(%rbp)
   1264a:	00 00 00 
   1264d:	e9 94 00 00 00       	jmpq   126e6 <func_51+0x2a47>
   12652:	48 c7 85 70 ee ff ff 	movq   $0x9,-0x1190(%rbp)
   12659:	09 00 00 00 
   1265d:	c7 85 54 ec ff ff ff 	movl   $0xffffffff,-0x13ac(%rbp)
   12664:	ff ff ff 
   12667:	48 8b 85 48 ed ff ff 	mov    -0x12b8(%rbp),%rax
   1266e:	8b 00                	mov    (%rax),%eax
   12670:	be 04 00 00 00       	mov    $0x4,%esi
   12675:	89 c7                	mov    %eax,%edi
   12677:	e8 83 70 ff ff       	callq  96ff <safe_div_func_int32_t_s_s>
   1267c:	83 f8 01             	cmp    $0x1,%eax
   1267f:	0f 9f c0             	setg   %al
   12682:	0f b6 d8             	movzbl %al,%ebx
   12685:	48 8b 85 80 eb ff ff 	mov    -0x1480(%rbp),%rax
   1268c:	0f b6 c0             	movzbl %al,%eax
   1268f:	89 c6                	mov    %eax,%esi
   12691:	bf f6 00 00 00       	mov    $0xf6,%edi
   12696:	e8 f8 74 ff ff       	callq  9b93 <safe_mul_func_uint8_t_u_u>
   1269b:	0f b6 c0             	movzbl %al,%eax
   1269e:	89 de                	mov    %ebx,%esi
   126a0:	89 c7                	mov    %eax,%edi
   126a2:	e8 b3 74 ff ff       	callq  9b5a <safe_add_func_uint8_t_u_u>
   126a7:	0f b6 c0             	movzbl %al,%eax
   126aa:	21 85 d8 eb ff ff    	and    %eax,-0x1428(%rbp)
   126b0:	48 8b 85 50 ee ff ff 	mov    -0x11b0(%rbp),%rax
   126b7:	48 8b 10             	mov    (%rax),%rdx
   126ba:	48 8b 85 50 ee ff ff 	mov    -0x11b0(%rbp),%rax
   126c1:	48 89 10             	mov    %rdx,(%rax)
   126c4:	48 8b 85 50 ee ff ff 	mov    -0x11b0(%rbp),%rax
   126cb:	48 c7 00 00 00 00 00 	movq   $0x0,(%rax)
   126d2:	0f bf 85 ac eb ff ff 	movswl -0x1454(%rbp),%eax
   126d9:	89 85 d8 eb ff ff    	mov    %eax,-0x1428(%rbp)
   126df:	83 ad 04 ec ff ff 01 	subl   $0x1,-0x13fc(%rbp)
   126e6:	83 bd 04 ec ff ff 00 	cmpl   $0x0,-0x13fc(%rbp)
   126ed:	0f 89 5f ff ff ff    	jns    12652 <func_51+0x29b3>
   126f3:	eb 11                	jmp    12706 <func_51+0x2a67>
   126f5:	48 8b 85 98 ed ff ff 	mov    -0x1268(%rbp),%rax
   126fc:	8b 00                	mov    (%rax),%eax
   126fe:	85 c0                	test   %eax,%eax
   12700:	0f 85 5d 07 00 00    	jne    12e63 <func_51+0x31c4>
   12706:	0f be 95 88 eb ff ff 	movsbl -0x1478(%rbp),%edx
   1270d:	48 8b 85 98 ed ff ff 	mov    -0x1268(%rbp),%rax
   12714:	89 10                	mov    %edx,(%rax)
   12716:	0f b7 85 ae eb ff ff 	movzwl -0x1452(%rbp),%eax
   1271d:	0f bf d8             	movswl %ax,%ebx
   12720:	48 8b 85 e8 ed ff ff 	mov    -0x1218(%rbp),%rax
   12727:	0f b7 00             	movzwl (%rax),%eax
   1272a:	66 0d 52 03          	or     $0x352,%ax
   1272e:	89 c2                	mov    %eax,%edx
   12730:	48 8b 85 e8 ed ff ff 	mov    -0x1218(%rbp),%rax
   12737:	66 89 10             	mov    %dx,(%rax)
   1273a:	48 8b 85 e8 ed ff ff 	mov    -0x1218(%rbp),%rax
   12741:	0f b7 00             	movzwl (%rax),%eax
   12744:	0f bf d0             	movswl %ax,%edx
   12747:	48 8b 05 f2 3f 01 00 	mov    0x13ff2(%rip),%rax        # 26740 <g_819>
   1274e:	0f b7 00             	movzwl (%rax),%eax
   12751:	0f b7 c0             	movzwl %ax,%eax
   12754:	09 c2                	or     %eax,%edx
   12756:	41 89 d5             	mov    %edx,%r13d
   12759:	48 8b 85 48 ed ff ff 	mov    -0x12b8(%rbp),%rax
   12760:	44 8b 20             	mov    (%rax),%r12d
   12763:	8b 05 3b 1b 01 00    	mov    0x11b3b(%rip),%eax        # 242a4 <g_389+0x4>
   12769:	85 c0                	test   %eax,%eax
   1276b:	0f 94 c0             	sete   %al
   1276e:	0f b6 c0             	movzbl %al,%eax
   12771:	66 89 05 0a 1b 01 00 	mov    %ax,0x11b0a(%rip)        # 24282 <g_335>
   12778:	0f b7 05 03 1b 01 00 	movzwl 0x11b03(%rip),%eax        # 24282 <g_335>
   1277f:	0f bf d0             	movswl %ax,%edx
   12782:	48 8b 85 80 eb ff ff 	mov    -0x1480(%rbp),%rax
   12789:	0f b7 c0             	movzwl %ax,%eax
   1278c:	89 d6                	mov    %edx,%esi
   1278e:	89 c7                	mov    %eax,%edi
   12790:	e8 29 76 ff ff       	callq  9dbe <safe_lshift_func_uint16_t_u_s>
   12795:	41 be 01 00 00 00    	mov    $0x1,%r14d
   1279b:	66 83 bd b2 eb ff ff 	cmpw   $0x0,-0x144e(%rbp)
   127a2:	00 
   127a3:	75 0b                	jne    127b0 <func_51+0x2b11>
   127a5:	0f b6 85 74 eb ff ff 	movzbl -0x148c(%rbp),%eax
   127ac:	84 c0                	test   %al,%al
   127ae:	74 07                	je     127b7 <func_51+0x2b18>
   127b0:	b8 01 00 00 00       	mov    $0x1,%eax
   127b5:	eb 05                	jmp    127bc <func_51+0x2b1d>
   127b7:	b8 00 00 00 00       	mov    $0x0,%eax
   127bc:	0f b6 c0             	movzbl %al,%eax
   127bf:	be f2 00 00 00       	mov    $0xf2,%esi
   127c4:	89 c7                	mov    %eax,%edi
   127c6:	e8 ad 73 ff ff       	callq  9b78 <safe_sub_func_uint8_t_u_u>
   127cb:	0f b6 c0             	movzbl %al,%eax
   127ce:	be c3 cf 1c 22       	mov    $0x221ccfc3,%esi
   127d3:	89 c7                	mov    %eax,%edi
   127d5:	e8 23 77 ff ff       	callq  9efd <safe_mod_func_uint32_t_u_u>
   127da:	48 8b 95 f8 ed ff ff 	mov    -0x1208(%rbp),%rdx
   127e1:	0f b6 12             	movzbl (%rdx),%edx
   127e4:	44 89 f1             	mov    %r14d,%ecx
   127e7:	31 d1                	xor    %edx,%ecx
   127e9:	48 8b 95 f8 ed ff ff 	mov    -0x1208(%rbp),%rdx
   127f0:	88 0a                	mov    %cl,(%rdx)
   127f2:	48 8b 95 f8 ed ff ff 	mov    -0x1208(%rbp),%rdx
   127f9:	0f b6 12             	movzbl (%rdx),%edx
   127fc:	0f be d2             	movsbl %dl,%edx
   127ff:	39 d0                	cmp    %edx,%eax
   12801:	0f 92 c0             	setb   %al
   12804:	0f b6 c0             	movzbl %al,%eax
   12807:	44 89 e6             	mov    %r12d,%esi
   1280a:	89 c7                	mov    %eax,%edi
   1280c:	e8 37 76 ff ff       	callq  9e48 <safe_rshift_func_uint16_t_u_s>
   12811:	0f b7 c0             	movzwl %ax,%eax
   12814:	be 0e 00 00 00       	mov    $0xe,%esi
   12819:	89 c7                	mov    %eax,%edi
   1281b:	e8 28 76 ff ff       	callq  9e48 <safe_rshift_func_uint16_t_u_s>
   12820:	0f b7 c0             	movzwl %ax,%eax
   12823:	41 39 c5             	cmp    %eax,%r13d
   12826:	0f 9c c0             	setl   %al
   12829:	0f b6 c0             	movzbl %al,%eax
   1282c:	89 de                	mov    %ebx,%esi
   1282e:	89 c7                	mov    %eax,%edi
   12830:	e8 e1 6b ff ff       	callq  9416 <safe_mod_func_int16_t_s_s>
   12835:	0f b7 15 b8 1a 01 00 	movzwl 0x11ab8(%rip),%edx        # 242f4 <g_820>
   1283c:	48 8b 85 60 ee ff ff 	mov    -0x11a0(%rbp),%rax
   12843:	0f b6 00             	movzbl (%rax),%eax
   12846:	31 c2                	xor    %eax,%edx
   12848:	48 8b 85 60 ee ff ff 	mov    -0x11a0(%rbp),%rax
   1284f:	88 10                	mov    %dl,(%rax)
   12851:	48 8b 05 30 3f 01 00 	mov    0x13f30(%rip),%rax        # 26788 <g_1146>
   12858:	0f b7 00             	movzwl (%rax),%eax
   1285b:	66 35 ab 60          	xor    $0x60ab,%ax
   1285f:	48 0f bf c0          	movswq %ax,%rax
   12863:	48 be 59 b9 00 d3 5e 	movabs $0x61a2c45ed300b959,%rsi
   1286a:	c4 a2 61 
   1286d:	48 89 c7             	mov    %rax,%rdi
   12870:	e8 b9 77 ff ff       	callq  a02e <safe_add_func_uint64_t_u_u>
   12875:	48 85 c0             	test   %rax,%rax
   12878:	0f 84 38 01 00 00    	je     129b6 <func_51+0x2d17>
   1287e:	48 8d 85 08 ed ff ff 	lea    -0x12f8(%rbp),%rax
   12885:	48 89 85 88 ee ff ff 	mov    %rax,-0x1178(%rbp)
   1288c:	c7 85 e0 eb ff ff 00 	movl   $0x0,-0x1420(%rbp)
   12893:	00 00 00 
   12896:	eb 1a                	jmp    128b2 <func_51+0x2c13>
   12898:	8b 85 e0 eb ff ff    	mov    -0x1420(%rbp),%eax
   1289e:	48 98                	cltq   
   128a0:	c7 84 85 40 f8 ff ff 	movl   $0xa3e585c1,-0x7c0(%rbp,%rax,4)
   128a7:	c1 85 e5 a3 
   128ab:	83 85 e0 eb ff ff 01 	addl   $0x1,-0x1420(%rbp)
   128b2:	83 bd e0 eb ff ff 00 	cmpl   $0x0,-0x1420(%rbp)
   128b9:	7e dd                	jle    12898 <func_51+0x2bf9>
   128bb:	48 8b 85 80 eb ff ff 	mov    -0x1480(%rbp),%rax
   128c2:	89 85 40 f8 ff ff    	mov    %eax,-0x7c0(%rbp)
   128c8:	8b 05 96 18 01 00    	mov    0x11896(%rip),%eax        # 24164 <g_109>
   128ce:	0f bf d8             	movswl %ax,%ebx
   128d1:	48 8b 85 88 ee ff ff 	mov    -0x1178(%rbp),%rax
   128d8:	48 8b 95 68 ed ff ff 	mov    -0x1298(%rbp),%rdx
   128df:	48 89 10             	mov    %rdx,(%rax)
   128e2:	48 8b 85 88 ee ff ff 	mov    -0x1178(%rbp),%rax
   128e9:	48 8b 00             	mov    (%rax),%rax
   128ec:	48 39 85 68 ee ff ff 	cmp    %rax,-0x1198(%rbp)
   128f3:	0f 94 c0             	sete   %al
   128f6:	0f b6 c0             	movzbl %al,%eax
   128f9:	be 04 00 00 00       	mov    $0x4,%esi
   128fe:	89 c7                	mov    %eax,%edi
   12900:	e8 25 6c ff ff       	callq  952a <safe_rshift_func_int16_t_s_s>
   12905:	66 83 f8 06          	cmp    $0x6,%ax
   12909:	48 8b 05 78 3e 01 00 	mov    0x13e78(%rip),%rax        # 26788 <g_1146>
   12910:	0f b7 00             	movzwl (%rax),%eax
   12913:	89 c2                	mov    %eax,%edx
   12915:	48 8b 05 2c 5e 01 00 	mov    0x15e2c(%rip),%rax        # 28748 <g_19>
   1291c:	48 83 f8 04          	cmp    $0x4,%rax
   12920:	0f 94 c0             	sete   %al
   12923:	09 d0                	or     %edx,%eax
   12925:	0f be c0             	movsbl %al,%eax
   12928:	be fe ff ff ff       	mov    $0xfffffffe,%esi
   1292d:	89 c7                	mov    %eax,%edi
   1292f:	e8 de 68 ff ff       	callq  9212 <safe_mul_func_int8_t_s_s>
   12934:	38 85 8c eb ff ff    	cmp    %al,-0x1474(%rbp)
   1293a:	0f 9d c0             	setge  %al
   1293d:	0f b6 c0             	movzbl %al,%eax
   12940:	be 02 00 00 00       	mov    $0x2,%esi
   12945:	89 c7                	mov    %eax,%edi
   12947:	e8 84 75 ff ff       	callq  9ed0 <safe_sub_func_uint32_t_u_u>
   1294c:	0f b6 05 9d 19 01 00 	movzbl 0x1199d(%rip),%eax        # 242f0 <g_636>
   12953:	0f be c0             	movsbl %al,%eax
   12956:	89 c7                	mov    %eax,%edi
   12958:	e8 62 68 ff ff       	callq  91bf <safe_unary_minus_func_int8_t_s>
   1295d:	0f be c0             	movsbl %al,%eax
   12960:	89 de                	mov    %ebx,%esi
   12962:	89 c7                	mov    %eax,%edi
   12964:	e8 ec 6a ff ff       	callq  9455 <safe_div_func_int16_t_s_s>
   12969:	66 85 c0             	test   %ax,%ax
   1296c:	75 0a                	jne    12978 <func_51+0x2cd9>
   1296e:	8b 85 40 f8 ff ff    	mov    -0x7c0(%rbp),%eax
   12974:	85 c0                	test   %eax,%eax
   12976:	74 07                	je     1297f <func_51+0x2ce0>
   12978:	b8 01 00 00 00       	mov    $0x1,%eax
   1297d:	eb 05                	jmp    12984 <func_51+0x2ce5>
   1297f:	b8 00 00 00 00       	mov    $0x0,%eax
   12984:	89 c2                	mov    %eax,%edx
   12986:	8b 85 40 f8 ff ff    	mov    -0x7c0(%rbp),%eax
   1298c:	89 d6                	mov    %edx,%esi
   1298e:	89 c7                	mov    %eax,%edi
   12990:	e8 68 75 ff ff       	callq  9efd <safe_mod_func_uint32_t_u_u>
   12995:	85 c0                	test   %eax,%eax
   12997:	0f 95 c0             	setne  %al
   1299a:	0f b6 d0             	movzbl %al,%edx
   1299d:	48 8b 85 98 ed ff ff 	mov    -0x1268(%rbp),%rax
   129a4:	8b 00                	mov    (%rax),%eax
   129a6:	31 c2                	xor    %eax,%edx
   129a8:	48 8b 85 98 ed ff ff 	mov    -0x1268(%rbp),%rax
   129af:	89 10                	mov    %edx,(%rax)
   129b1:	e9 8e 04 00 00       	jmpq   12e44 <func_51+0x31a5>
   129b6:	48 8d 85 90 ef ff ff 	lea    -0x1070(%rbp),%rax
   129bd:	48 89 85 78 ee ff ff 	mov    %rax,-0x1188(%rbp)
   129c4:	c7 85 a0 ef ff ff ff 	movl   $0xffffffff,-0x1060(%rbp)
   129cb:	ff ff ff 
   129ce:	c7 85 a4 ef ff ff 20 	movl   $0x415a4f20,-0x105c(%rbp)
   129d5:	4f 5a 41 
   129d8:	c7 85 a8 ef ff ff 20 	movl   $0x415a4f20,-0x1058(%rbp)
   129df:	4f 5a 41 
   129e2:	c7 85 ac ef ff ff ff 	movl   $0xffffffff,-0x1054(%rbp)
   129e9:	ff ff ff 
   129ec:	c7 85 b0 ef ff ff 20 	movl   $0x415a4f20,-0x1050(%rbp)
   129f3:	4f 5a 41 
   129f6:	c7 85 b4 ef ff ff 20 	movl   $0x415a4f20,-0x104c(%rbp)
   129fd:	4f 5a 41 
   12a00:	c7 85 58 ec ff ff 00 	movl   $0x0,-0x13a8(%rbp)
   12a07:	00 00 00 
   12a0a:	48 8d 05 af 3c 01 00 	lea    0x13caf(%rip),%rax        # 266c0 <g_320>
   12a11:	48 89 85 80 ee ff ff 	mov    %rax,-0x1180(%rbp)
   12a18:	c7 85 5c ec ff ff 01 	movl   $0x1,-0x13a4(%rbp)
   12a1f:	00 00 00 
   12a22:	0f be 95 8c eb ff ff 	movsbl -0x1474(%rbp),%edx
   12a29:	48 8d 85 80 eb ff ff 	lea    -0x1480(%rbp),%rax
   12a30:	48 39 85 00 ee ff ff 	cmp    %rax,-0x1200(%rbp)
   12a37:	0f 95 c0             	setne  %al
   12a3a:	0f b6 c0             	movzbl %al,%eax
   12a3d:	89 d6                	mov    %edx,%esi
   12a3f:	89 c7                	mov    %eax,%edi
   12a41:	e8 ac 67 ff ff       	callq  91f2 <safe_sub_func_int8_t_s_s>
   12a46:	48 8b 05 43 3d 01 00 	mov    0x13d43(%rip),%rax        # 26790 <g_1145>
   12a4d:	48 8b 00             	mov    (%rax),%rax
   12a50:	0f b6 85 74 eb ff ff 	movzbl -0x148c(%rbp),%eax
   12a57:	0f be c0             	movsbl %al,%eax
   12a5a:	89 c6                	mov    %eax,%esi
   12a5c:	bf 01 00 00 00       	mov    $0x1,%edi
   12a61:	e8 50 6b ff ff       	callq  95b6 <safe_add_func_int32_t_s_s>
   12a66:	48 8b 05 33 47 01 00 	mov    0x14733(%rip),%rax        # 271a0 <g_1977+0x600>
   12a6d:	48 39 85 a8 ed ff ff 	cmp    %rax,-0x1258(%rbp)
   12a74:	8b 85 a0 ef ff ff    	mov    -0x1060(%rbp),%eax
   12a7a:	83 f8 01             	cmp    $0x1,%eax
   12a7d:	0f 84 44 01 00 00    	je     12bc7 <func_51+0x2f28>
   12a83:	48 8d 85 40 f8 ff ff 	lea    -0x7c0(%rbp),%rax
   12a8a:	48 8d 15 0f cc 00 00 	lea    0xcc0f(%rip),%rdx        # 1f6a0 <g_2439+0x1620>
   12a91:	b9 60 00 00 00       	mov    $0x60,%ecx
   12a96:	48 89 c7             	mov    %rax,%rdi
   12a99:	48 89 d6             	mov    %rdx,%rsi
   12a9c:	f3 48 a5             	rep movsq %ds:(%rsi),%es:(%rdi)
   12a9f:	8b 85 74 f8 ff ff    	mov    -0x78c(%rbp),%eax
   12aa5:	0f be d8             	movsbl %al,%ebx
   12aa8:	48 8b 85 00 ed ff ff 	mov    -0x1300(%rbp),%rax
   12aaf:	48 8b 00             	mov    (%rax),%rax
   12ab2:	8b 10                	mov    (%rax),%edx
   12ab4:	83 ea 01             	sub    $0x1,%edx
   12ab7:	89 10                	mov    %edx,(%rax)
   12ab9:	8b 00                	mov    (%rax),%eax
   12abb:	89 85 a0 ef ff ff    	mov    %eax,-0x1060(%rbp)
   12ac1:	66 0f be 85 8c eb ff 	movsbw -0x1474(%rbp),%ax
   12ac8:	ff 
   12ac9:	0f b7 d0             	movzwl %ax,%edx
   12acc:	66 0f be 85 88 eb ff 	movsbw -0x1478(%rbp),%ax
   12ad3:	ff 
   12ad4:	0f b7 c0             	movzwl %ax,%eax
   12ad7:	89 d6                	mov    %edx,%esi
   12ad9:	89 c7                	mov    %eax,%edi
   12adb:	e8 5d 72 ff ff       	callq  9d3d <safe_mul_func_uint16_t_u_u>
   12ae0:	44 0f b7 e8          	movzwl %ax,%r13d
   12ae4:	44 8b a5 a0 ef ff ff 	mov    -0x1060(%rbp),%r12d
   12aeb:	48 8b 85 80 eb ff ff 	mov    -0x1480(%rbp),%rax
   12af2:	be 04 00 00 00       	mov    $0x4,%esi
   12af7:	48 89 c7             	mov    %rax,%rdi
   12afa:	e8 b5 6e ff ff       	callq  99b4 <safe_mod_func_int64_t_s_s>
   12aff:	48 85 c0             	test   %rax,%rax
   12b02:	74 14                	je     12b18 <func_51+0x2e79>
   12b04:	48 8b 85 98 ed ff ff 	mov    -0x1268(%rbp),%rax
   12b0b:	8b 00                	mov    (%rax),%eax
   12b0d:	85 c0                	test   %eax,%eax
   12b0f:	74 07                	je     12b18 <func_51+0x2e79>
   12b11:	b8 01 00 00 00       	mov    $0x1,%eax
   12b16:	eb 05                	jmp    12b1d <func_51+0x2e7e>
   12b18:	b8 00 00 00 00       	mov    $0x0,%eax
   12b1d:	83 f8 01             	cmp    $0x1,%eax
   12b20:	0f 96 c0             	setbe  %al
   12b23:	0f b6 d0             	movzbl %al,%edx
   12b26:	48 8b 85 48 ed ff ff 	mov    -0x12b8(%rbp),%rax
   12b2d:	89 10                	mov    %edx,(%rax)
   12b2f:	48 8b 85 48 ed ff ff 	mov    -0x12b8(%rbp),%rax
   12b36:	8b 00                	mov    (%rax),%eax
   12b38:	89 c2                	mov    %eax,%edx
   12b3a:	8b 85 74 f8 ff ff    	mov    -0x78c(%rbp),%eax
   12b40:	89 d6                	mov    %edx,%esi
   12b42:	89 c7                	mov    %eax,%edi
   12b44:	e8 6f 73 ff ff       	callq  9eb8 <safe_add_func_uint32_t_u_u>
   12b49:	89 c2                	mov    %eax,%edx
   12b4b:	8b 05 07 16 01 00    	mov    0x11607(%rip),%eax        # 24158 <g_78>
   12b51:	44 8d 70 02          	lea    0x2(%rax),%r14d
   12b55:	44 89 e6             	mov    %r12d,%esi
   12b58:	89 d7                	mov    %edx,%edi
   12b5a:	e8 a0 6b ff ff       	callq  96ff <safe_div_func_int32_t_s_s>
   12b5f:	49 63 d6             	movslq %r14d,%rdx
   12b62:	48 8d 0c 95 00 00 00 	lea    0x0(,%rdx,4),%rcx
   12b69:	00 
   12b6a:	48 8d 15 2f 17 01 00 	lea    0x1172f(%rip),%rdx        # 242a0 <g_389>
   12b71:	89 04 11             	mov    %eax,(%rcx,%rdx,1)
   12b74:	0f b6 85 74 eb ff ff 	movzbl -0x148c(%rbp),%eax
   12b7b:	0f be c0             	movsbl %al,%eax
   12b7e:	be d4 f6 fa e4       	mov    $0xe4faf6d4,%esi
   12b83:	89 c7                	mov    %eax,%edi
   12b85:	e8 42 6b ff ff       	callq  96cc <safe_mod_func_int32_t_s_s>
   12b8a:	8b 95 a0 ef ff ff    	mov    -0x1060(%rbp),%edx
   12b90:	39 d0                	cmp    %edx,%eax
   12b92:	0f 95 c0             	setne  %al
   12b95:	0f b6 c0             	movzbl %al,%eax
   12b98:	41 39 c5             	cmp    %eax,%r13d
   12b9b:	0f 9c c0             	setl   %al
   12b9e:	0f b6 c0             	movzbl %al,%eax
   12ba1:	89 de                	mov    %ebx,%esi
   12ba3:	89 c7                	mov    %eax,%edi
   12ba5:	e8 c0 66 ff ff       	callq  926a <safe_div_func_int8_t_s_s>
   12baa:	48 8b 85 80 eb ff ff 	mov    -0x1480(%rbp),%rax
   12bb1:	89 c2                	mov    %eax,%edx
   12bb3:	0f b6 85 a2 eb ff ff 	movzbl -0x145e(%rbp),%eax
   12bba:	09 d0                	or     %edx,%eax
   12bbc:	88 85 a2 eb ff ff    	mov    %al,-0x145e(%rbp)
   12bc2:	e9 7d 02 00 00       	jmpq   12e44 <func_51+0x31a5>
   12bc7:	c6 85 a7 eb ff ff 05 	movb   $0x5,-0x1459(%rbp)
   12bce:	48 c7 85 40 ed ff ff 	movq   $0x0,-0x12c0(%rbp)
   12bd5:	00 00 00 00 
   12bd9:	c7 85 60 ec ff ff fd 	movl   $0xfffffffd,-0x13a0(%rbp)
   12be0:	ff ff ff 
   12be3:	c7 85 64 ec ff ff 00 	movl   $0x0,-0x139c(%rbp)
   12bea:	00 00 00 
   12bed:	c7 85 68 ec ff ff e2 	movl   $0xd2c4b9e2,-0x1398(%rbp)
   12bf4:	b9 c4 d2 
   12bf7:	c7 85 6c ec ff ff 84 	movl   $0xf3de7184,-0x1394(%rbp)
   12bfe:	71 de f3 
   12c01:	c7 85 70 ec ff ff e0 	movl   $0x6433d5e0,-0x1390(%rbp)
   12c08:	d5 33 64 
   12c0b:	c7 85 74 ec ff ff 40 	movl   $0x89bb3140,-0x138c(%rbp)
   12c12:	31 bb 89 
   12c15:	c7 85 78 ec ff ff c4 	movl   $0x210036c4,-0x1388(%rbp)
   12c1c:	36 00 21 
   12c1f:	48 8d 85 40 f8 ff ff 	lea    -0x7c0(%rbp),%rax
   12c26:	48 8d 15 73 cd 00 00 	lea    0xcd73(%rip),%rdx        # 1f9a0 <g_2439+0x1920>
   12c2d:	b9 79 00 00 00       	mov    $0x79,%ecx
   12c32:	48 89 c7             	mov    %rax,%rdi
   12c35:	48 89 d6             	mov    %rdx,%rsi
   12c38:	f3 48 a5             	rep movsq %ds:(%rsi),%es:(%rdi)
   12c3b:	48 89 f2             	mov    %rsi,%rdx
   12c3e:	48 89 f8             	mov    %rdi,%rax
   12c41:	8b 0a                	mov    (%rdx),%ecx
   12c43:	89 08                	mov    %ecx,(%rax)
   12c45:	c7 85 e4 eb ff ff 00 	movl   $0x0,-0x141c(%rbp)
   12c4c:	00 00 00 
   12c4f:	eb 1e                	jmp    12c6f <func_51+0x2fd0>
   12c51:	8b 85 e4 eb ff ff    	mov    -0x141c(%rbp),%eax
   12c57:	48 98                	cltq   
   12c59:	48 8d 95 40 ed ff ff 	lea    -0x12c0(%rbp),%rdx
   12c60:	48 89 94 c5 10 f1 ff 	mov    %rdx,-0xef0(%rbp,%rax,8)
   12c67:	ff 
   12c68:	83 85 e4 eb ff ff 01 	addl   $0x1,-0x141c(%rbp)
   12c6f:	83 bd e4 eb ff ff 09 	cmpl   $0x9,-0x141c(%rbp)
   12c76:	7e d9                	jle    12c51 <func_51+0x2fb2>
   12c78:	8b 85 ac ef ff ff    	mov    -0x1054(%rbp),%eax
   12c7e:	48 63 d8             	movslq %eax,%rbx
   12c81:	48 8b 85 80 eb ff ff 	mov    -0x1480(%rbp),%rax
   12c88:	44 0f bf e0          	movswl %ax,%r12d
   12c8c:	44 0f b6 ad a7 eb ff 	movzbl -0x1459(%rbp),%r13d
   12c93:	ff 
   12c94:	80 bd 88 eb ff ff 00 	cmpb   $0x0,-0x1478(%rbp)
   12c9b:	74 17                	je     12cb4 <func_51+0x3015>
   12c9d:	48 8b 05 e4 3a 01 00 	mov    0x13ae4(%rip),%rax        # 26788 <g_1146>
   12ca4:	0f b7 00             	movzwl (%rax),%eax
   12ca7:	66 85 c0             	test   %ax,%ax
   12caa:	74 08                	je     12cb4 <func_51+0x3015>
   12cac:	41 be 01 00 00 00    	mov    $0x1,%r14d
   12cb2:	eb 06                	jmp    12cba <func_51+0x301b>
   12cb4:	41 be 00 00 00 00    	mov    $0x0,%r14d
   12cba:	48 8b 85 08 ee ff ff 	mov    -0x11f8(%rbp),%rax
   12cc1:	48 3b 85 c8 ed ff ff 	cmp    -0x1238(%rbp),%rax
   12cc8:	0f 94 c0             	sete   %al
   12ccb:	0f b6 d0             	movzbl %al,%edx
   12cce:	8b 05 a8 15 01 00    	mov    0x115a8(%rip),%eax        # 2427c <g_274>
   12cd4:	09 d0                	or     %edx,%eax
   12cd6:	48 98                	cltq   
   12cd8:	48 ba 96 7d 0e 01 6e 	movabs $0xc7a3676e010e7d96,%rdx
   12cdf:	67 a3 c7 
   12ce2:	48 21 c2             	and    %rax,%rdx
   12ce5:	48 8b 85 80 eb ff ff 	mov    -0x1480(%rbp),%rax
   12cec:	48 39 c2             	cmp    %rax,%rdx
   12cef:	0f 97 c2             	seta   %dl
   12cf2:	48 8b 05 a7 3a 01 00 	mov    0x13aa7(%rip),%rax        # 267a0 <g_1328>
   12cf9:	48 8b 00             	mov    (%rax),%rax
   12cfc:	0f b6 d2             	movzbl %dl,%edx
   12cff:	66 89 10             	mov    %dx,(%rax)
   12d02:	0f b7 00             	movzwl (%rax),%eax
   12d05:	0f b7 d0             	movzwl %ax,%edx
   12d08:	8b 05 96 15 01 00    	mov    0x11596(%rip),%eax        # 242a4 <g_389+0x4>
   12d0e:	98                   	cwtl   
   12d0f:	89 d6                	mov    %edx,%esi
   12d11:	89 c7                	mov    %eax,%edi
   12d13:	e8 c9 67 ff ff       	callq  94e1 <safe_lshift_func_int16_t_s_u>
   12d18:	48 0f bf c0          	movswq %ax,%rax
   12d1c:	48 89 c6             	mov    %rax,%rsi
   12d1f:	bf 00 00 00 00       	mov    $0x0,%edi
   12d24:	e8 8b 6c ff ff       	callq  99b4 <safe_mod_func_int64_t_s_s>
   12d29:	48 8b 85 78 ee ff ff 	mov    -0x1188(%rbp),%rax
   12d30:	48 8b 00             	mov    (%rax),%rax
   12d33:	48 8b 08             	mov    (%rax),%rcx
   12d36:	49 63 d6             	movslq %r14d,%rdx
   12d39:	48 8b 85 78 ee ff ff 	mov    -0x1188(%rbp),%rax
   12d40:	48 8b 00             	mov    (%rax),%rax
   12d43:	48 31 ca             	xor    %rcx,%rdx
   12d46:	48 89 10             	mov    %rdx,(%rax)
   12d49:	48 8b 10             	mov    (%rax),%rdx
   12d4c:	8b 85 a4 ef ff ff    	mov    -0x105c(%rbp),%eax
   12d52:	48 98                	cltq   
   12d54:	48 39 c2             	cmp    %rax,%rdx
   12d57:	0f 95 c0             	setne  %al
   12d5a:	0f b6 c0             	movzbl %al,%eax
   12d5d:	89 c6                	mov    %eax,%esi
   12d5f:	bf 66 00 00 00       	mov    $0x66,%edi
   12d64:	e8 a9 64 ff ff       	callq  9212 <safe_mul_func_int8_t_s_s>
   12d69:	48 0f be c0          	movsbq %al,%rax
   12d6d:	48 89 c6             	mov    %rax,%rsi
   12d70:	48 c7 c7 ff ff ff ff 	mov    $0xffffffffffffffff,%rdi
   12d77:	e8 c5 6a ff ff       	callq  9841 <safe_add_func_int64_t_s_s>
   12d7c:	48 8b 85 00 ed ff ff 	mov    -0x1300(%rbp),%rax
   12d83:	48 8b 00             	mov    (%rax),%rax
   12d86:	8b 10                	mov    (%rax),%edx
   12d88:	83 c2 01             	add    $0x1,%edx
   12d8b:	89 10                	mov    %edx,(%rax)
   12d8d:	8b 10                	mov    (%rax),%edx
   12d8f:	0f b6 85 a7 eb ff ff 	movzbl -0x1459(%rbp),%eax
   12d96:	39 c2                	cmp    %eax,%edx
   12d98:	0f 93 c0             	setae  %al
   12d9b:	0f b6 c0             	movzbl %al,%eax
   12d9e:	44 89 ee             	mov    %r13d,%esi
   12da1:	89 c7                	mov    %eax,%edi
   12da3:	e8 0b 66 ff ff       	callq  93b3 <safe_add_func_int16_t_s_s>
   12da8:	98                   	cwtl   
   12da9:	39 85 28 ec ff ff    	cmp    %eax,-0x13d8(%rbp)
   12daf:	0f 95 c0             	setne  %al
   12db2:	0f b6 d0             	movzbl %al,%edx
   12db5:	0f be 85 8c eb ff ff 	movsbl -0x1474(%rbp),%eax
   12dbc:	39 c2                	cmp    %eax,%edx
   12dbe:	0f 95 c0             	setne  %al
   12dc1:	0f b6 c0             	movzbl %al,%eax
   12dc4:	44 89 e6             	mov    %r12d,%esi
   12dc7:	89 c7                	mov    %eax,%edi
   12dc9:	e8 48 66 ff ff       	callq  9416 <safe_mod_func_int16_t_s_s>
   12dce:	48 0f bf c0          	movswq %ax,%rax
   12dd2:	48 89 de             	mov    %rbx,%rsi
   12dd5:	48 89 c7             	mov    %rax,%rdi
   12dd8:	e8 64 6a ff ff       	callq  9841 <safe_add_func_int64_t_s_s>
   12ddd:	be 70 e2 09 1f       	mov    $0x1f09e270,%esi
   12de2:	89 c7                	mov    %eax,%edi
   12de4:	e8 1c 68 ff ff       	callq  9605 <safe_sub_func_int32_t_s_s>
   12de9:	48 8b 95 98 ed ff ff 	mov    -0x1268(%rbp),%rdx
   12df0:	8b 12                	mov    (%rdx),%edx
   12df2:	31 c2                	xor    %eax,%edx
   12df4:	48 8b 85 98 ed ff ff 	mov    -0x1268(%rbp),%rax
   12dfb:	89 10                	mov    %edx,(%rax)
   12dfd:	80 bd 8c eb ff ff 00 	cmpb   $0x0,-0x1474(%rbp)
   12e04:	75 3e                	jne    12e44 <func_51+0x31a5>
   12e06:	48 8b 85 40 ed ff ff 	mov    -0x12c0(%rbp),%rax
   12e0d:	48 89 05 6c 45 01 00 	mov    %rax,0x1456c(%rip)        # 27380 <g_2051>
   12e14:	48 8b 05 65 45 01 00 	mov    0x14565(%rip),%rax        # 27380 <g_2051>
   12e1b:	48 39 85 80 ee ff ff 	cmp    %rax,-0x1180(%rbp)
   12e22:	0f 95 c0             	setne  %al
   12e25:	0f b6 c0             	movzbl %al,%eax
   12e28:	89 85 60 ec ff ff    	mov    %eax,-0x13a0(%rbp)
   12e2e:	48 8b 85 48 ed ff ff 	mov    -0x12b8(%rbp),%rax
   12e35:	8b 95 60 ec ff ff    	mov    -0x13a0(%rbp),%edx
   12e3b:	89 10                	mov    %edx,(%rax)
   12e3d:	80 ad a3 eb ff ff 01 	subb   $0x1,-0x145d(%rbp)
   12e44:	0f b6 85 a1 eb ff ff 	movzbl -0x145f(%rbp),%eax
   12e4b:	83 e8 01             	sub    $0x1,%eax
   12e4e:	88 85 a1 eb ff ff    	mov    %al,-0x145f(%rbp)
   12e54:	80 bd a1 eb ff ff 00 	cmpb   $0x0,-0x145f(%rbp)
   12e5b:	0f 89 f2 f2 ff ff    	jns    12153 <func_51+0x24b4>
   12e61:	eb 01                	jmp    12e64 <func_51+0x31c5>
   12e63:	90                   	nop
   12e64:	8b 05 ee 12 01 00    	mov    0x112ee(%rip),%eax        # 24158 <g_78>
   12e6a:	83 e8 01             	sub    $0x1,%eax
   12e6d:	89 05 e5 12 01 00    	mov    %eax,0x112e5(%rip)        # 24158 <g_78>
   12e73:	8b 05 df 12 01 00    	mov    0x112df(%rip),%eax        # 24158 <g_78>
   12e79:	85 c0                	test   %eax,%eax
   12e7b:	0f 89 c8 e0 ff ff    	jns    10f49 <func_51+0x12aa>
   12e81:	eb 01                	jmp    12e84 <func_51+0x31e5>
   12e83:	90                   	nop
   12e84:	83 85 10 ec ff ff 01 	addl   $0x1,-0x13f0(%rbp)
   12e8b:	0f b6 85 74 eb ff ff 	movzbl -0x148c(%rbp),%eax
   12e92:	0f be d8             	movsbl %al,%ebx
   12e95:	48 8b 05 ec 38 01 00 	mov    0x138ec(%rip),%rax        # 26788 <g_1146>
   12e9c:	0f b7 10             	movzwl (%rax),%edx
   12e9f:	48 8b 85 78 ed ff ff 	mov    -0x1288(%rbp),%rax
   12ea6:	66 89 10             	mov    %dx,(%rax)
   12ea9:	48 8b 85 78 ed ff ff 	mov    -0x1288(%rbp),%rax
   12eb0:	0f b7 00             	movzwl (%rax),%eax
   12eb3:	98                   	cwtl   
   12eb4:	be 01 00 00 00       	mov    $0x1,%esi
   12eb9:	89 c7                	mov    %eax,%edi
   12ebb:	e8 56 65 ff ff       	callq  9416 <safe_mod_func_int16_t_s_s>
   12ec0:	0f b6 c0             	movzbl %al,%eax
   12ec3:	be 07 00 00 00       	mov    $0x7,%esi
   12ec8:	89 c7                	mov    %eax,%edi
   12eca:	e8 36 6d ff ff       	callq  9c05 <safe_lshift_func_uint8_t_u_s>
   12ecf:	0f b6 c0             	movzbl %al,%eax
   12ed2:	39 c3                	cmp    %eax,%ebx
   12ed4:	0f 9d c0             	setge  %al
   12ed7:	0f b6 d0             	movzbl %al,%edx
   12eda:	48 8b 05 bf 38 01 00 	mov    0x138bf(%rip),%rax        # 267a0 <g_1328>
   12ee1:	48 8b 00             	mov    (%rax),%rax
   12ee4:	f7 d2                	not    %edx
   12ee6:	66 89 10             	mov    %dx,(%rax)
   12ee9:	48 8b 85 80 ed ff ff 	mov    -0x1280(%rbp),%rax
   12ef0:	66 c7 00 01 00       	movw   $0x1,(%rax)
   12ef5:	be f8 d8 ff ff       	mov    $0xffffd8f8,%esi
   12efa:	bf 01 00 00 00       	mov    $0x1,%edi
   12eff:	e8 51 65 ff ff       	callq  9455 <safe_div_func_int16_t_s_s>
   12f04:	0f bf d0             	movswl %ax,%edx
   12f07:	48 8b 05 ea 37 01 00 	mov    0x137ea(%rip),%rax        # 266f8 <g_635>
   12f0e:	0f b6 00             	movzbl (%rax),%eax
   12f11:	0f b6 c0             	movzbl %al,%eax
   12f14:	89 d6                	mov    %edx,%esi
   12f16:	89 c7                	mov    %eax,%edi
   12f18:	e8 e8 6c ff ff       	callq  9c05 <safe_lshift_func_uint8_t_u_s>
   12f1d:	0f b6 d0             	movzbl %al,%edx
   12f20:	48 8b 85 80 eb ff ff 	mov    -0x1480(%rbp),%rax
   12f27:	48 39 c2             	cmp    %rax,%rdx
   12f2a:	0f 94 c0             	sete   %al
   12f2d:	0f b6 c0             	movzbl %al,%eax
   12f30:	be 01 00 00 00       	mov    $0x1,%esi
   12f35:	89 c7                	mov    %eax,%edi
   12f37:	e8 65 63 ff ff       	callq  92a1 <safe_lshift_func_int8_t_s_s>
   12f3c:	0f be c0             	movsbl %al,%eax
   12f3f:	48 8b 95 80 eb ff ff 	mov    -0x1480(%rbp),%rdx
   12f46:	31 d0                	xor    %edx,%eax
   12f48:	89 c2                	mov    %eax,%edx
   12f4a:	48 8b 85 48 ed ff ff 	mov    -0x12b8(%rbp),%rax
   12f51:	89 10                	mov    %edx,(%rax)
   12f53:	48 8b 05 1e 38 01 00 	mov    0x1381e(%rip),%rax        # 26778 <g_981>
   12f5a:	48 8b 95 48 ed ff ff 	mov    -0x12b8(%rbp),%rdx
   12f61:	8b 12                	mov    (%rdx),%edx
   12f63:	89 10                	mov    %edx,(%rax)
   12f65:	48 c7 05 f8 11 01 00 	movq   $0xffffffffffffffef,0x111f8(%rip)        # 24168 <g_126>
   12f6c:	ef ff ff ff 
   12f70:	e9 aa 12 00 00       	jmpq   1421f <func_51+0x4580>
   12f75:	48 8d 05 28 11 01 00 	lea    0x11128(%rip),%rax        # 240a4 <g_75+0x64>
   12f7c:	48 89 85 40 ed ff ff 	mov    %rax,-0x12c0(%rbp)
   12f83:	48 c7 85 90 ee ff ff 	movq   $0x0,-0x1170(%rbp)
   12f8a:	00 00 00 00 
   12f8e:	48 8d 85 d8 ec ff ff 	lea    -0x1328(%rbp),%rax
   12f95:	48 89 85 98 ee ff ff 	mov    %rax,-0x1168(%rbp)
   12f9c:	48 c7 85 a0 ee ff ff 	movq   $0x0,-0x1160(%rbp)
   12fa3:	00 00 00 00 
   12fa7:	c7 85 7c ec ff ff ff 	movl   $0xffffffff,-0x1384(%rbp)
   12fae:	ff ff ff 
   12fb1:	48 8b 85 40 ed ff ff 	mov    -0x12c0(%rbp),%rax
   12fb8:	48 89 85 48 ed ff ff 	mov    %rax,-0x12b8(%rbp)
   12fbf:	48 8b 85 40 ed ff ff 	mov    -0x12c0(%rbp),%rax
   12fc6:	8b 00                	mov    (%rax),%eax
   12fc8:	85 c0                	test   %eax,%eax
   12fca:	0f 84 1d 03 00 00    	je     132ed <func_51+0x364e>
   12fd0:	48 8d 05 c1 43 01 00 	lea    0x143c1(%rip),%rax        # 27398 <g_2092>
   12fd7:	48 89 85 d8 ee ff ff 	mov    %rax,-0x1128(%rbp)
   12fde:	c7 85 88 ec ff ff 00 	movl   $0x0,-0x1378(%rbp)
   12fe5:	00 00 00 
   12fe8:	48 8d 05 09 37 01 00 	lea    0x13709(%rip),%rax        # 266f8 <g_635>
   12fef:	48 89 85 e0 ee ff ff 	mov    %rax,-0x1120(%rbp)
   12ff6:	48 8d 85 f0 ec ff ff 	lea    -0x1310(%rbp),%rax
   12ffd:	48 89 85 e8 ee ff ff 	mov    %rax,-0x1118(%rbp)
   13004:	48 c7 85 f0 ee ff ff 	movq   $0x0,-0x1110(%rbp)
   1300b:	00 00 00 00 
   1300f:	66 c7 85 b6 eb ff ff 	movw   $0x1,-0x144a(%rbp)
   13016:	01 00 
   13018:	c7 85 8c ec ff ff 0f 	movl   $0xf6f5f90f,-0x1374(%rbp)
   1301f:	f9 f5 f6 
   13022:	48 0f be 9d 8c eb ff 	movsbq -0x1474(%rbp),%rbx
   13029:	ff 
   1302a:	8b 85 88 ec ff ff    	mov    -0x1378(%rbp),%eax
   13030:	4c 63 e0             	movslq %eax,%r12
   13033:	48 8b 85 50 ed ff ff 	mov    -0x12b0(%rbp),%rax
   1303a:	48 8b 00             	mov    (%rax),%rax
   1303d:	48 85 c0             	test   %rax,%rax
   13040:	0f 94 c0             	sete   %al
   13043:	0f b6 c0             	movzbl %al,%eax
   13046:	be 82 9a 5b 22       	mov    $0x225b9a82,%esi
   1304b:	89 c7                	mov    %eax,%edi
   1304d:	e8 d3 6e ff ff       	callq  9f25 <safe_div_func_uint32_t_u_u>
   13052:	48 8b 05 f7 36 01 00 	mov    0x136f7(%rip),%rax        # 26750 <g_817>
   13059:	48 8b 10             	mov    (%rax),%rdx
   1305c:	48 8b 85 f0 ec ff ff 	mov    -0x1310(%rbp),%rax
   13063:	48 39 c2             	cmp    %rax,%rdx
   13066:	0f 95 c0             	setne  %al
   13069:	0f b6 c0             	movzbl %al,%eax
   1306c:	4c 89 e6             	mov    %r12,%rsi
   1306f:	48 89 c7             	mov    %rax,%rdi
   13072:	e8 38 70 ff ff       	callq  a0af <safe_div_func_uint64_t_u_u>
   13077:	48 89 de             	mov    %rbx,%rsi
   1307a:	48 89 c7             	mov    %rax,%rdi
   1307d:	e8 c9 6f ff ff       	callq  a04b <safe_sub_func_uint64_t_u_u>
   13082:	0f be c0             	movsbl %al,%eax
   13085:	be 00 00 00 00       	mov    $0x0,%esi
   1308a:	89 c7                	mov    %eax,%edi
   1308c:	e8 a4 62 ff ff       	callq  9335 <safe_rshift_func_int8_t_s_s>
   13091:	48 8b 15 00 43 01 00 	mov    0x14300(%rip),%rdx        # 27398 <g_2092>
   13098:	48 8b 85 d8 ee ff ff 	mov    -0x1128(%rbp),%rax
   1309f:	48 89 10             	mov    %rdx,(%rax)
   130a2:	48 8b 85 d8 ee ff ff 	mov    -0x1128(%rbp),%rax
   130a9:	48 8b 00             	mov    (%rax),%rax
   130ac:	48 8d 15 dd 42 01 00 	lea    0x142dd(%rip),%rdx        # 27390 <g_2093>
   130b3:	48 39 d0             	cmp    %rdx,%rax
   130b6:	0f 95 c0             	setne  %al
   130b9:	0f b6 c0             	movzbl %al,%eax
   130bc:	8b 95 88 ec ff ff    	mov    -0x1378(%rbp),%edx
   130c2:	48 63 d2             	movslq %edx,%rdx
   130c5:	81 e2 1e 21 00 00    	and    $0x211e,%edx
   130cb:	48 21 c2             	and    %rax,%rdx
   130ce:	48 8b 85 40 ed ff ff 	mov    -0x12c0(%rbp),%rax
   130d5:	8b 00                	mov    (%rax),%eax
   130d7:	48 98                	cltq   
   130d9:	48 39 c2             	cmp    %rax,%rdx
   130dc:	0f 9f c0             	setg   %al
   130df:	0f b6 d0             	movzbl %al,%edx
   130e2:	0f b6 85 8c eb ff ff 	movzbl -0x1474(%rbp),%eax
   130e9:	0f b6 c0             	movzbl %al,%eax
   130ec:	89 d6                	mov    %edx,%esi
   130ee:	89 c7                	mov    %eax,%edi
   130f0:	e8 9e 6a ff ff       	callq  9b93 <safe_mul_func_uint8_t_u_u>
   130f5:	8b 85 c0 eb ff ff    	mov    -0x1440(%rbp),%eax
   130fb:	83 e0 01             	and    $0x1,%eax
   130fe:	89 c2                	mov    %eax,%edx
   13100:	48 8b 85 48 ed ff ff 	mov    -0x12b8(%rbp),%rax
   13107:	8b 00                	mov    (%rax),%eax
   13109:	39 c2                	cmp    %eax,%edx
   1310b:	0f 84 c5 01 00 00    	je     132d6 <func_51+0x3637>
   13111:	48 8d 05 d9 11 01 00 	lea    0x111d9(%rip),%rax        # 242f1 <g_771>
   13118:	48 89 85 00 ef ff ff 	mov    %rax,-0x1100(%rbp)
   1311f:	48 8d 85 40 f8 ff ff 	lea    -0x7c0(%rbp),%rax
   13126:	48 8d 15 53 cc 00 00 	lea    0xcc53(%rip),%rdx        # 1fd80 <g_2439+0x1d00>
   1312d:	b9 69 00 00 00       	mov    $0x69,%ecx
   13132:	48 89 c7             	mov    %rax,%rdi
   13135:	48 89 d6             	mov    %rdx,%rsi
   13138:	f3 48 a5             	rep movsq %ds:(%rsi),%es:(%rdi)
   1313b:	48 8b 85 40 ed ff ff 	mov    -0x12c0(%rbp),%rax
   13142:	8b 00                	mov    (%rax),%eax
   13144:	85 c0                	test   %eax,%eax
   13146:	0f 85 e6 10 00 00    	jne    14232 <func_51+0x4593>
   1314c:	48 8b 05 45 36 01 00 	mov    0x13645(%rip),%rax        # 26798 <g_1329>
   13153:	0f b7 10             	movzwl (%rax),%edx
   13156:	83 c2 01             	add    $0x1,%edx
   13159:	66 89 10             	mov    %dx,(%rax)
   1315c:	0f b7 00             	movzwl (%rax),%eax
   1315f:	0f b7 d0             	movzwl %ax,%edx
   13162:	48 8b 05 9f 35 01 00 	mov    0x1359f(%rip),%rax        # 26708 <g_633>
   13169:	48 8b 08             	mov    (%rax),%rcx
   1316c:	48 8b 85 e0 ee ff ff 	mov    -0x1120(%rbp),%rax
   13173:	48 89 85 d8 f6 ff ff 	mov    %rax,-0x928(%rbp)
   1317a:	48 8b 85 d8 f6 ff ff 	mov    -0x928(%rbp),%rax
   13181:	48 39 c1             	cmp    %rax,%rcx
   13184:	0f 95 c0             	setne  %al
   13187:	89 c1                	mov    %eax,%ecx
   13189:	48 8b 85 00 ef ff ff 	mov    -0x1100(%rbp),%rax
   13190:	88 08                	mov    %cl,(%rax)
   13192:	48 8b 85 00 ef ff ff 	mov    -0x1100(%rbp),%rax
   13199:	0f b6 00             	movzbl (%rax),%eax
   1319c:	48 0f be c8          	movsbq %al,%rcx
   131a0:	48 8b 85 80 eb ff ff 	mov    -0x1480(%rbp),%rax
   131a7:	48 39 c1             	cmp    %rax,%rcx
   131aa:	0f 96 c0             	setbe  %al
   131ad:	0f b6 c0             	movzbl %al,%eax
   131b0:	89 d6                	mov    %edx,%esi
   131b2:	89 c7                	mov    %eax,%edi
   131b4:	e8 d5 6b ff ff       	callq  9d8e <safe_div_func_uint16_t_u_u>
   131b9:	0f b6 85 74 eb ff ff 	movzbl -0x148c(%rbp),%eax
   131c0:	0f be d8             	movsbl %al,%ebx
   131c3:	48 8b 85 68 ed ff ff 	mov    -0x1298(%rbp),%rax
   131ca:	48 8b 00             	mov    (%rax),%rax
   131cd:	48 8b 00             	mov    (%rax),%rax
   131d0:	48 85 c0             	test   %rax,%rax
   131d3:	0f 95 c2             	setne  %dl
   131d6:	48 8b 05 bb 35 01 00 	mov    0x135bb(%rip),%rax        # 26798 <g_1329>
   131dd:	0f b6 d2             	movzbl %dl,%edx
   131e0:	66 89 10             	mov    %dx,(%rax)
   131e3:	0f b7 00             	movzwl (%rax),%eax
   131e6:	44 0f b7 e0          	movzwl %ax,%r12d
   131ea:	8b 85 b4 f8 ff ff    	mov    -0x74c(%rbp),%eax
   131f0:	0f b6 c0             	movzbl %al,%eax
   131f3:	89 c6                	mov    %eax,%esi
   131f5:	bf 6a 00 00 00       	mov    $0x6a,%edi
   131fa:	e8 79 69 ff ff       	callq  9b78 <safe_sub_func_uint8_t_u_u>
   131ff:	be 02 00 00 00       	mov    $0x2,%esi
   13204:	bf 01 00 00 00       	mov    $0x1,%edi
   13209:	e8 93 60 ff ff       	callq  92a1 <safe_lshift_func_int8_t_s_s>
   1320e:	84 c0                	test   %al,%al
   13210:	75 0d                	jne    1321f <func_51+0x3580>
   13212:	48 8b 05 d7 34 01 00 	mov    0x134d7(%rip),%rax        # 266f0 <g_571>
   13219:	8b 00                	mov    (%rax),%eax
   1321b:	85 c0                	test   %eax,%eax
   1321d:	74 07                	je     13226 <func_51+0x3587>
   1321f:	b8 01 00 00 00       	mov    $0x1,%eax
   13224:	eb 05                	jmp    1322b <func_51+0x358c>
   13226:	b8 00 00 00 00       	mov    $0x0,%eax
   1322b:	0f be c0             	movsbl %al,%eax
   1322e:	be 02 00 00 00       	mov    $0x2,%esi
   13233:	89 c7                	mov    %eax,%edi
   13235:	e8 67 60 ff ff       	callq  92a1 <safe_lshift_func_int8_t_s_s>
   1323a:	0f be c0             	movsbl %al,%eax
   1323d:	41 39 c4             	cmp    %eax,%r12d
   13240:	0f 9c c0             	setl   %al
   13243:	0f b6 d0             	movzbl %al,%edx
   13246:	8b 85 30 f9 ff ff    	mov    -0x6d0(%rbp),%eax
   1324c:	39 c2                	cmp    %eax,%edx
   1324e:	0f 9c c0             	setl   %al
   13251:	0f b6 c0             	movzbl %al,%eax
   13254:	89 de                	mov    %ebx,%esi
   13256:	89 c7                	mov    %eax,%edi
   13258:	e8 84 62 ff ff       	callq  94e1 <safe_lshift_func_int16_t_s_u>
   1325d:	48 8b 85 90 ee ff ff 	mov    -0x1170(%rbp),%rax
   13264:	48 3b 85 e8 ee ff ff 	cmp    -0x1118(%rbp),%rax
   1326b:	0f 94 c0             	sete   %al
   1326e:	0f b6 d0             	movzbl %al,%edx
   13271:	0f b6 85 74 eb ff ff 	movzbl -0x148c(%rbp),%eax
   13278:	0f be c0             	movsbl %al,%eax
   1327b:	39 c2                	cmp    %eax,%edx
   1327d:	0f 9c c2             	setl   %dl
   13280:	48 8b 85 40 ed ff ff 	mov    -0x12c0(%rbp),%rax
   13287:	0f b6 d2             	movzbl %dl,%edx
   1328a:	89 10                	mov    %edx,(%rax)
   1328c:	be b8 e8 ff ff       	mov    $0xffffe8b8,%esi
   13291:	bf 01 00 00 00       	mov    $0x1,%edi
   13296:	e8 7b 61 ff ff       	callq  9416 <safe_mod_func_int16_t_s_s>
   1329b:	0f bf d0             	movswl %ax,%edx
   1329e:	0f b7 05 3f 19 01 00 	movzwl 0x1193f(%rip),%eax        # 24be4 <g_2086+0x84>
   132a5:	98                   	cwtl   
   132a6:	21 c2                	and    %eax,%edx
   132a8:	0f be 85 88 eb ff ff 	movsbl -0x1478(%rbp),%eax
   132af:	39 c2                	cmp    %eax,%edx
   132b1:	0f 9e c0             	setle  %al
   132b4:	0f b6 c0             	movzbl %al,%eax
   132b7:	be 06 00 00 00       	mov    $0x6,%esi
   132bc:	89 c7                	mov    %eax,%edi
   132be:	e8 32 61 ff ff       	callq  93f5 <safe_mul_func_int16_t_s_s>
   132c3:	98                   	cwtl   
   132c4:	09 85 88 ec ff ff    	or     %eax,-0x1378(%rbp)
   132ca:	48 8b 85 f0 ee ff ff 	mov    -0x1110(%rbp),%rax
   132d1:	e9 94 0f 00 00       	jmpq   1426a <func_51+0x45cb>
   132d6:	48 c7 85 f8 ee ff ff 	movq   $0x0,-0x1108(%rbp)
   132dd:	00 00 00 00 
   132e1:	48 8b 85 f8 ee ff ff 	mov    -0x1108(%rbp),%rax
   132e8:	e9 7d 0f 00 00       	jmpq   1426a <func_51+0x45cb>
   132ed:	c7 85 80 ec ff ff e5 	movl   $0xb8c224e5,-0x1380(%rbp)
   132f4:	24 c2 b8 
   132f7:	66 c7 85 b4 eb ff ff 	movw   $0xffff,-0x144c(%rbp)
   132fe:	ff ff 
   13300:	c7 85 d0 f4 ff ff 90 	movl   $0x3c544d90,-0xb30(%rbp)
   13307:	4d 54 3c 
   1330a:	c7 85 d4 f4 ff ff 90 	movl   $0x3c544d90,-0xb2c(%rbp)
   13311:	4d 54 3c 
   13314:	c7 85 d8 f4 ff ff 90 	movl   $0x3c544d90,-0xb28(%rbp)
   1331b:	4d 54 3c 
   1331e:	c7 85 dc f4 ff ff 90 	movl   $0x3c544d90,-0xb24(%rbp)
   13325:	4d 54 3c 
   13328:	c7 85 e0 f4 ff ff 90 	movl   $0x3c544d90,-0xb20(%rbp)
   1332f:	4d 54 3c 
   13332:	c7 85 e4 f4 ff ff 90 	movl   $0x3c544d90,-0xb1c(%rbp)
   13339:	4d 54 3c 
   1333c:	c7 85 e8 f4 ff ff 90 	movl   $0x3c544d90,-0xb18(%rbp)
   13343:	4d 54 3c 
   13346:	c7 85 ec f4 ff ff 90 	movl   $0x3c544d90,-0xb14(%rbp)
   1334d:	4d 54 3c 
   13350:	c7 85 f0 f4 ff ff 90 	movl   $0x3c544d90,-0xb10(%rbp)
   13357:	4d 54 3c 
   1335a:	c7 85 f4 f4 ff ff 90 	movl   $0x3c544d90,-0xb0c(%rbp)
   13361:	4d 54 3c 
   13364:	48 c7 85 a8 ee ff ff 	movq   $0x0,-0x1158(%rbp)
   1336b:	00 00 00 00 
   1336f:	48 8d 05 ee 0d 01 00 	lea    0x10dee(%rip),%rax        # 24164 <g_109>
   13376:	48 89 85 40 f8 ff ff 	mov    %rax,-0x7c0(%rbp)
   1337d:	48 8d 85 c0 eb ff ff 	lea    -0x1440(%rbp),%rax
   13384:	48 89 85 48 f8 ff ff 	mov    %rax,-0x7b8(%rbp)
   1338b:	48 c7 85 50 f8 ff ff 	movq   $0x0,-0x7b0(%rbp)
   13392:	00 00 00 00 
   13396:	48 8d 05 c7 0d 01 00 	lea    0x10dc7(%rip),%rax        # 24164 <g_109>
   1339d:	48 89 85 58 f8 ff ff 	mov    %rax,-0x7a8(%rbp)
   133a4:	48 c7 85 60 f8 ff ff 	movq   $0x0,-0x7a0(%rbp)
   133ab:	00 00 00 00 
   133af:	48 8d 85 bc eb ff ff 	lea    -0x1444(%rbp),%rax
   133b6:	48 89 85 68 f8 ff ff 	mov    %rax,-0x798(%rbp)
   133bd:	48 8d 05 a0 0e 01 00 	lea    0x10ea0(%rip),%rax        # 24264 <g_152+0x14>
   133c4:	48 89 85 70 f8 ff ff 	mov    %rax,-0x790(%rbp)
   133cb:	48 8d 05 8e 0e 01 00 	lea    0x10e8e(%rip),%rax        # 24260 <g_152+0x10>
   133d2:	48 89 85 78 f8 ff ff 	mov    %rax,-0x788(%rbp)
   133d9:	48 8d 05 84 0e 01 00 	lea    0x10e84(%rip),%rax        # 24264 <g_152+0x14>
   133e0:	48 89 85 80 f8 ff ff 	mov    %rax,-0x780(%rbp)
   133e7:	48 8d 05 76 0e 01 00 	lea    0x10e76(%rip),%rax        # 24264 <g_152+0x14>
   133ee:	48 89 85 88 f8 ff ff 	mov    %rax,-0x778(%rbp)
   133f5:	48 8d 05 6c 0e 01 00 	lea    0x10e6c(%rip),%rax        # 24268 <g_152+0x18>
   133fc:	48 89 85 90 f8 ff ff 	mov    %rax,-0x770(%rbp)
   13403:	48 8d 05 46 0e 01 00 	lea    0x10e46(%rip),%rax        # 24250 <g_152>
   1340a:	48 89 85 98 f8 ff ff 	mov    %rax,-0x768(%rbp)
   13411:	48 8d 05 4c 0d 01 00 	lea    0x10d4c(%rip),%rax        # 24164 <g_109>
   13418:	48 89 85 a0 f8 ff ff 	mov    %rax,-0x760(%rbp)
   1341f:	48 8d 05 3e 0d 01 00 	lea    0x10d3e(%rip),%rax        # 24164 <g_109>
   13426:	48 89 85 a8 f8 ff ff 	mov    %rax,-0x758(%rbp)
   1342d:	48 8d 05 30 0e 01 00 	lea    0x10e30(%rip),%rax        # 24264 <g_152+0x14>
   13434:	48 89 85 b0 f8 ff ff 	mov    %rax,-0x750(%rbp)
   1343b:	48 8d 05 26 0e 01 00 	lea    0x10e26(%rip),%rax        # 24268 <g_152+0x18>
   13442:	48 89 85 b8 f8 ff ff 	mov    %rax,-0x748(%rbp)
   13449:	48 8d 85 bc eb ff ff 	lea    -0x1444(%rbp),%rax
   13450:	48 89 85 c0 f8 ff ff 	mov    %rax,-0x740(%rbp)
   13457:	48 8d 85 bc eb ff ff 	lea    -0x1444(%rbp),%rax
   1345e:	48 89 85 c8 f8 ff ff 	mov    %rax,-0x738(%rbp)
   13465:	48 8d 05 f8 0c 01 00 	lea    0x10cf8(%rip),%rax        # 24164 <g_109>
   1346c:	48 89 85 d0 f8 ff ff 	mov    %rax,-0x730(%rbp)
   13473:	48 8d 05 ea 0d 01 00 	lea    0x10dea(%rip),%rax        # 24264 <g_152+0x14>
   1347a:	48 89 85 d8 f8 ff ff 	mov    %rax,-0x728(%rbp)
   13481:	48 8d 05 dc 0d 01 00 	lea    0x10ddc(%rip),%rax        # 24264 <g_152+0x14>
   13488:	48 89 85 e0 f8 ff ff 	mov    %rax,-0x720(%rbp)
   1348f:	48 8d 05 d2 0d 01 00 	lea    0x10dd2(%rip),%rax        # 24268 <g_152+0x18>
   13496:	48 89 85 e8 f8 ff ff 	mov    %rax,-0x718(%rbp)
   1349d:	48 8d 85 bc eb ff ff 	lea    -0x1444(%rbp),%rax
   134a4:	48 89 85 f0 f8 ff ff 	mov    %rax,-0x710(%rbp)
   134ab:	48 8d 85 bc eb ff ff 	lea    -0x1444(%rbp),%rax
   134b2:	48 89 85 f8 f8 ff ff 	mov    %rax,-0x708(%rbp)
   134b9:	48 8d 05 a4 0c 01 00 	lea    0x10ca4(%rip),%rax        # 24164 <g_109>
   134c0:	48 89 85 00 f9 ff ff 	mov    %rax,-0x700(%rbp)
   134c7:	48 8d 85 bc eb ff ff 	lea    -0x1444(%rbp),%rax
   134ce:	48 89 85 08 f9 ff ff 	mov    %rax,-0x6f8(%rbp)
   134d5:	48 8d 85 bc eb ff ff 	lea    -0x1444(%rbp),%rax
   134dc:	48 89 85 10 f9 ff ff 	mov    %rax,-0x6f0(%rbp)
   134e3:	48 8d 05 7a 0d 01 00 	lea    0x10d7a(%rip),%rax        # 24264 <g_152+0x14>
   134ea:	48 89 85 18 f9 ff ff 	mov    %rax,-0x6e8(%rbp)
   134f1:	48 8d 85 bc eb ff ff 	lea    -0x1444(%rbp),%rax
   134f8:	48 89 85 20 f9 ff ff 	mov    %rax,-0x6e0(%rbp)
   134ff:	48 8d 05 5e 0d 01 00 	lea    0x10d5e(%rip),%rax        # 24264 <g_152+0x14>
   13506:	48 89 85 28 f9 ff ff 	mov    %rax,-0x6d8(%rbp)
   1350d:	48 8d 05 50 0d 01 00 	lea    0x10d50(%rip),%rax        # 24264 <g_152+0x14>
   13514:	48 89 85 30 f9 ff ff 	mov    %rax,-0x6d0(%rbp)
   1351b:	48 8d 05 42 0c 01 00 	lea    0x10c42(%rip),%rax        # 24164 <g_109>
   13522:	48 89 85 38 f9 ff ff 	mov    %rax,-0x6c8(%rbp)
   13529:	48 c7 85 40 f9 ff ff 	movq   $0x0,-0x6c0(%rbp)
   13530:	00 00 00 00 
   13534:	48 8d 05 29 0c 01 00 	lea    0x10c29(%rip),%rax        # 24164 <g_109>
   1353b:	48 89 85 48 f9 ff ff 	mov    %rax,-0x6b8(%rbp)
   13542:	48 8d 05 1b 0c 01 00 	lea    0x10c1b(%rip),%rax        # 24164 <g_109>
   13549:	48 89 85 50 f9 ff ff 	mov    %rax,-0x6b0(%rbp)
   13550:	48 8d 85 bc eb ff ff 	lea    -0x1444(%rbp),%rax
   13557:	48 89 85 58 f9 ff ff 	mov    %rax,-0x6a8(%rbp)
   1355e:	48 8d 05 ff 0b 01 00 	lea    0x10bff(%rip),%rax        # 24164 <g_109>
   13565:	48 89 85 60 f9 ff ff 	mov    %rax,-0x6a0(%rbp)
   1356c:	48 8d 85 c0 eb ff ff 	lea    -0x1440(%rbp),%rax
   13573:	48 89 85 68 f9 ff ff 	mov    %rax,-0x698(%rbp)
   1357a:	48 8d 85 c0 eb ff ff 	lea    -0x1440(%rbp),%rax
   13581:	48 89 85 70 f9 ff ff 	mov    %rax,-0x690(%rbp)
   13588:	48 8d 85 bc eb ff ff 	lea    -0x1444(%rbp),%rax
   1358f:	48 89 85 78 f9 ff ff 	mov    %rax,-0x688(%rbp)
   13596:	48 8d 05 c7 0b 01 00 	lea    0x10bc7(%rip),%rax        # 24164 <g_109>
   1359d:	48 89 85 80 f9 ff ff 	mov    %rax,-0x680(%rbp)
   135a4:	48 8d 05 b9 0b 01 00 	lea    0x10bb9(%rip),%rax        # 24164 <g_109>
   135ab:	48 89 85 88 f9 ff ff 	mov    %rax,-0x678(%rbp)
   135b2:	48 8d 05 ab 0b 01 00 	lea    0x10bab(%rip),%rax        # 24164 <g_109>
   135b9:	48 89 85 90 f9 ff ff 	mov    %rax,-0x670(%rbp)
   135c0:	48 8d 85 bc eb ff ff 	lea    -0x1444(%rbp),%rax
   135c7:	48 89 85 98 f9 ff ff 	mov    %rax,-0x668(%rbp)
   135ce:	48 8d 05 8f 0c 01 00 	lea    0x10c8f(%rip),%rax        # 24264 <g_152+0x14>
   135d5:	48 89 85 a0 f9 ff ff 	mov    %rax,-0x660(%rbp)
   135dc:	48 8d 85 bc eb ff ff 	lea    -0x1444(%rbp),%rax
   135e3:	48 89 85 a8 f9 ff ff 	mov    %rax,-0x658(%rbp)
   135ea:	48 8d 85 bc eb ff ff 	lea    -0x1444(%rbp),%rax
   135f1:	48 89 85 b0 f9 ff ff 	mov    %rax,-0x650(%rbp)
   135f8:	48 8d 05 65 0c 01 00 	lea    0x10c65(%rip),%rax        # 24264 <g_152+0x14>
   135ff:	48 89 85 b8 f9 ff ff 	mov    %rax,-0x648(%rbp)
   13606:	48 8d 05 57 0b 01 00 	lea    0x10b57(%rip),%rax        # 24164 <g_109>
   1360d:	48 89 85 c0 f9 ff ff 	mov    %rax,-0x640(%rbp)
   13614:	48 8d 85 c0 eb ff ff 	lea    -0x1440(%rbp),%rax
   1361b:	48 89 85 c8 f9 ff ff 	mov    %rax,-0x638(%rbp)
   13622:	48 8d 05 3b 0b 01 00 	lea    0x10b3b(%rip),%rax        # 24164 <g_109>
   13629:	48 89 85 d0 f9 ff ff 	mov    %rax,-0x630(%rbp)
   13630:	48 8d 85 bc eb ff ff 	lea    -0x1444(%rbp),%rax
   13637:	48 89 85 d8 f9 ff ff 	mov    %rax,-0x628(%rbp)
   1363e:	48 8d 85 bc eb ff ff 	lea    -0x1444(%rbp),%rax
   13645:	48 89 85 e0 f9 ff ff 	mov    %rax,-0x620(%rbp)
   1364c:	48 8d 05 15 0c 01 00 	lea    0x10c15(%rip),%rax        # 24268 <g_152+0x18>
   13653:	48 89 85 e8 f9 ff ff 	mov    %rax,-0x618(%rbp)
   1365a:	48 8d 05 03 0b 01 00 	lea    0x10b03(%rip),%rax        # 24164 <g_109>
   13661:	48 89 85 f0 f9 ff ff 	mov    %rax,-0x610(%rbp)
   13668:	48 c7 85 f8 f9 ff ff 	movq   $0x0,-0x608(%rbp)
   1366f:	00 00 00 00 
   13673:	48 8d 05 ea 0a 01 00 	lea    0x10aea(%rip),%rax        # 24164 <g_109>
   1367a:	48 89 85 00 fa ff ff 	mov    %rax,-0x600(%rbp)
   13681:	48 8d 85 c0 eb ff ff 	lea    -0x1440(%rbp),%rax
   13688:	48 89 85 08 fa ff ff 	mov    %rax,-0x5f8(%rbp)
   1368f:	48 8d 85 bc eb ff ff 	lea    -0x1444(%rbp),%rax
   13696:	48 89 85 10 fa ff ff 	mov    %rax,-0x5f0(%rbp)
   1369d:	48 8d 05 c4 0b 01 00 	lea    0x10bc4(%rip),%rax        # 24268 <g_152+0x18>
   136a4:	48 89 85 18 fa ff ff 	mov    %rax,-0x5e8(%rbp)
   136ab:	48 8d 05 b2 0b 01 00 	lea    0x10bb2(%rip),%rax        # 24264 <g_152+0x14>
   136b2:	48 89 85 20 fa ff ff 	mov    %rax,-0x5e0(%rbp)
   136b9:	48 8d 85 c0 eb ff ff 	lea    -0x1440(%rbp),%rax
   136c0:	48 89 85 28 fa ff ff 	mov    %rax,-0x5d8(%rbp)
   136c7:	48 8d 05 96 0a 01 00 	lea    0x10a96(%rip),%rax        # 24164 <g_109>
   136ce:	48 89 85 30 fa ff ff 	mov    %rax,-0x5d0(%rbp)
   136d5:	48 8d 05 88 0b 01 00 	lea    0x10b88(%rip),%rax        # 24264 <g_152+0x14>
   136dc:	48 89 85 38 fa ff ff 	mov    %rax,-0x5c8(%rbp)
   136e3:	48 c7 85 40 fa ff ff 	movq   $0x0,-0x5c0(%rbp)
   136ea:	00 00 00 00 
   136ee:	48 8d 05 6f 0b 01 00 	lea    0x10b6f(%rip),%rax        # 24264 <g_152+0x14>
   136f5:	48 89 85 48 fa ff ff 	mov    %rax,-0x5b8(%rbp)
   136fc:	48 8d 05 5d 0b 01 00 	lea    0x10b5d(%rip),%rax        # 24260 <g_152+0x10>
   13703:	48 89 85 50 fa ff ff 	mov    %rax,-0x5b0(%rbp)
   1370a:	48 8d 05 53 0b 01 00 	lea    0x10b53(%rip),%rax        # 24264 <g_152+0x14>
   13711:	48 89 85 58 fa ff ff 	mov    %rax,-0x5a8(%rbp)
   13718:	48 8d 05 45 0b 01 00 	lea    0x10b45(%rip),%rax        # 24264 <g_152+0x14>
   1371f:	48 89 85 60 fa ff ff 	mov    %rax,-0x5a0(%rbp)
   13726:	48 8d 05 37 0a 01 00 	lea    0x10a37(%rip),%rax        # 24164 <g_109>
   1372d:	48 89 85 68 fa ff ff 	mov    %rax,-0x598(%rbp)
   13734:	48 8d 05 29 0a 01 00 	lea    0x10a29(%rip),%rax        # 24164 <g_109>
   1373b:	48 89 85 70 fa ff ff 	mov    %rax,-0x590(%rbp)
   13742:	48 8d 05 1b 0a 01 00 	lea    0x10a1b(%rip),%rax        # 24164 <g_109>
   13749:	48 89 85 78 fa ff ff 	mov    %rax,-0x588(%rbp)
   13750:	48 8d 05 0d 0b 01 00 	lea    0x10b0d(%rip),%rax        # 24264 <g_152+0x14>
   13757:	48 89 85 80 fa ff ff 	mov    %rax,-0x580(%rbp)
   1375e:	48 8d 05 ff 09 01 00 	lea    0x109ff(%rip),%rax        # 24164 <g_109>
   13765:	48 89 85 88 fa ff ff 	mov    %rax,-0x578(%rbp)
   1376c:	48 8d 05 f1 09 01 00 	lea    0x109f1(%rip),%rax        # 24164 <g_109>
   13773:	48 89 85 90 fa ff ff 	mov    %rax,-0x570(%rbp)
   1377a:	48 8d 05 e3 0a 01 00 	lea    0x10ae3(%rip),%rax        # 24264 <g_152+0x14>
   13781:	48 89 85 98 fa ff ff 	mov    %rax,-0x568(%rbp)
   13788:	48 8d 05 d5 09 01 00 	lea    0x109d5(%rip),%rax        # 24164 <g_109>
   1378f:	48 89 85 a0 fa ff ff 	mov    %rax,-0x560(%rbp)
   13796:	48 8d 85 bc eb ff ff 	lea    -0x1444(%rbp),%rax
   1379d:	48 89 85 a8 fa ff ff 	mov    %rax,-0x558(%rbp)
   137a4:	48 8d 05 b9 0a 01 00 	lea    0x10ab9(%rip),%rax        # 24264 <g_152+0x14>
   137ab:	48 89 85 b0 fa ff ff 	mov    %rax,-0x550(%rbp)
   137b2:	48 c7 85 b8 fa ff ff 	movq   $0x0,-0x548(%rbp)
   137b9:	00 00 00 00 
   137bd:	48 8d 85 c0 eb ff ff 	lea    -0x1440(%rbp),%rax
   137c4:	48 89 85 c0 fa ff ff 	mov    %rax,-0x540(%rbp)
   137cb:	48 8d 05 92 09 01 00 	lea    0x10992(%rip),%rax        # 24164 <g_109>
   137d2:	48 89 85 c8 fa ff ff 	mov    %rax,-0x538(%rbp)
   137d9:	48 8d 85 bc eb ff ff 	lea    -0x1444(%rbp),%rax
   137e0:	48 89 85 d0 fa ff ff 	mov    %rax,-0x530(%rbp)
   137e7:	48 8d 85 bc eb ff ff 	lea    -0x1444(%rbp),%rax
   137ee:	48 89 85 d8 fa ff ff 	mov    %rax,-0x528(%rbp)
   137f5:	48 8d 05 64 0a 01 00 	lea    0x10a64(%rip),%rax        # 24260 <g_152+0x10>
   137fc:	48 89 85 e0 fa ff ff 	mov    %rax,-0x520(%rbp)
   13803:	48 8d 05 5a 09 01 00 	lea    0x1095a(%rip),%rax        # 24164 <g_109>
   1380a:	48 89 85 e8 fa ff ff 	mov    %rax,-0x518(%rbp)
   13811:	48 8d 85 c0 eb ff ff 	lea    -0x1440(%rbp),%rax
   13818:	48 89 85 f0 fa ff ff 	mov    %rax,-0x510(%rbp)
   1381f:	48 8d 05 3e 0a 01 00 	lea    0x10a3e(%rip),%rax        # 24264 <g_152+0x14>
   13826:	48 89 85 f8 fa ff ff 	mov    %rax,-0x508(%rbp)
   1382d:	48 8d 05 30 0a 01 00 	lea    0x10a30(%rip),%rax        # 24264 <g_152+0x14>
   13834:	48 89 85 00 fb ff ff 	mov    %rax,-0x500(%rbp)
   1383b:	48 8d 85 bc eb ff ff 	lea    -0x1444(%rbp),%rax
   13842:	48 89 85 08 fb ff ff 	mov    %rax,-0x4f8(%rbp)
   13849:	48 8d 05 14 0a 01 00 	lea    0x10a14(%rip),%rax        # 24264 <g_152+0x14>
   13850:	48 89 85 10 fb ff ff 	mov    %rax,-0x4f0(%rbp)
   13857:	48 c7 85 18 fb ff ff 	movq   $0x0,-0x4e8(%rbp)
   1385e:	00 00 00 00 
   13862:	48 8d 05 f7 09 01 00 	lea    0x109f7(%rip),%rax        # 24260 <g_152+0x10>
   13869:	48 89 85 20 fb ff ff 	mov    %rax,-0x4e0(%rbp)
   13870:	48 8d 85 c0 eb ff ff 	lea    -0x1440(%rbp),%rax
   13877:	48 89 85 28 fb ff ff 	mov    %rax,-0x4d8(%rbp)
   1387e:	48 c7 85 30 fb ff ff 	movq   $0x0,-0x4d0(%rbp)
   13885:	00 00 00 00 
   13889:	48 8d 85 bc eb ff ff 	lea    -0x1444(%rbp),%rax
   13890:	48 89 85 38 fb ff ff 	mov    %rax,-0x4c8(%rbp)
   13897:	48 8d 05 c6 08 01 00 	lea    0x108c6(%rip),%rax        # 24164 <g_109>
   1389e:	48 89 85 40 fb ff ff 	mov    %rax,-0x4c0(%rbp)
   138a5:	48 c7 85 48 fb ff ff 	movq   $0x0,-0x4b8(%rbp)
   138ac:	00 00 00 00 
   138b0:	48 c7 85 50 fb ff ff 	movq   $0x0,-0x4b0(%rbp)
   138b7:	00 00 00 00 
   138bb:	48 8d 85 bc eb ff ff 	lea    -0x1444(%rbp),%rax
   138c2:	48 89 85 58 fb ff ff 	mov    %rax,-0x4a8(%rbp)
   138c9:	48 8d 05 94 09 01 00 	lea    0x10994(%rip),%rax        # 24264 <g_152+0x14>
   138d0:	48 89 85 60 fb ff ff 	mov    %rax,-0x4a0(%rbp)
   138d7:	48 8d 05 86 08 01 00 	lea    0x10886(%rip),%rax        # 24164 <g_109>
   138de:	48 89 85 68 fb ff ff 	mov    %rax,-0x498(%rbp)
   138e5:	48 8d 05 78 08 01 00 	lea    0x10878(%rip),%rax        # 24164 <g_109>
   138ec:	48 89 85 70 fb ff ff 	mov    %rax,-0x490(%rbp)
   138f3:	48 8d 05 6a 08 01 00 	lea    0x1086a(%rip),%rax        # 24164 <g_109>
   138fa:	48 89 85 78 fb ff ff 	mov    %rax,-0x488(%rbp)
   13901:	48 c7 85 80 fb ff ff 	movq   $0x0,-0x480(%rbp)
   13908:	00 00 00 00 
   1390c:	48 8d 85 bc eb ff ff 	lea    -0x1444(%rbp),%rax
   13913:	48 89 85 88 fb ff ff 	mov    %rax,-0x478(%rbp)
   1391a:	48 8d 85 bc eb ff ff 	lea    -0x1444(%rbp),%rax
   13921:	48 89 85 90 fb ff ff 	mov    %rax,-0x470(%rbp)
   13928:	48 8d 05 21 09 01 00 	lea    0x10921(%rip),%rax        # 24250 <g_152>
   1392f:	48 89 85 98 fb ff ff 	mov    %rax,-0x468(%rbp)
   13936:	48 8d 05 27 08 01 00 	lea    0x10827(%rip),%rax        # 24164 <g_109>
   1393d:	48 89 85 a0 fb ff ff 	mov    %rax,-0x460(%rbp)
   13944:	48 c7 85 a8 fb ff ff 	movq   $0x0,-0x458(%rbp)
   1394b:	00 00 00 00 
   1394f:	48 8d 05 0a 09 01 00 	lea    0x1090a(%rip),%rax        # 24260 <g_152+0x10>
   13956:	48 89 85 b0 fb ff ff 	mov    %rax,-0x450(%rbp)
   1395d:	48 8d 05 ec 08 01 00 	lea    0x108ec(%rip),%rax        # 24250 <g_152>
   13964:	48 89 85 b8 fb ff ff 	mov    %rax,-0x448(%rbp)
   1396b:	48 8d 05 f2 07 01 00 	lea    0x107f2(%rip),%rax        # 24164 <g_109>
   13972:	48 89 85 c0 fb ff ff 	mov    %rax,-0x440(%rbp)
   13979:	48 8d 85 bc eb ff ff 	lea    -0x1444(%rbp),%rax
   13980:	48 89 85 c8 fb ff ff 	mov    %rax,-0x438(%rbp)
   13987:	48 8d 05 c2 08 01 00 	lea    0x108c2(%rip),%rax        # 24250 <g_152>
   1398e:	48 89 85 d0 fb ff ff 	mov    %rax,-0x430(%rbp)
   13995:	48 8d 05 c8 07 01 00 	lea    0x107c8(%rip),%rax        # 24164 <g_109>
   1399c:	48 89 85 d8 fb ff ff 	mov    %rax,-0x428(%rbp)
   139a3:	48 8d 05 b6 08 01 00 	lea    0x108b6(%rip),%rax        # 24260 <g_152+0x10>
   139aa:	48 89 85 e0 fb ff ff 	mov    %rax,-0x420(%rbp)
   139b1:	48 8d 85 bc eb ff ff 	lea    -0x1444(%rbp),%rax
   139b8:	48 89 85 e8 fb ff ff 	mov    %rax,-0x418(%rbp)
   139bf:	48 8d 05 9e 07 01 00 	lea    0x1079e(%rip),%rax        # 24164 <g_109>
   139c6:	48 89 85 f0 fb ff ff 	mov    %rax,-0x410(%rbp)
   139cd:	48 8d 05 7c 08 01 00 	lea    0x1087c(%rip),%rax        # 24250 <g_152>
   139d4:	48 89 85 f8 fb ff ff 	mov    %rax,-0x408(%rbp)
   139db:	48 c7 85 00 fc ff ff 	movq   $0x0,-0x400(%rbp)
   139e2:	00 00 00 00 
   139e6:	48 8d 05 77 08 01 00 	lea    0x10877(%rip),%rax        # 24264 <g_152+0x14>
   139ed:	48 89 85 08 fc ff ff 	mov    %rax,-0x3f8(%rbp)
   139f4:	48 c7 85 10 fc ff ff 	movq   $0x0,-0x3f0(%rbp)
   139fb:	00 00 00 00 
   139ff:	48 8d 85 bc eb ff ff 	lea    -0x1444(%rbp),%rax
   13a06:	48 89 85 18 fc ff ff 	mov    %rax,-0x3e8(%rbp)
   13a0d:	48 c7 85 20 fc ff ff 	movq   $0x0,-0x3e0(%rbp)
   13a14:	00 00 00 00 
   13a18:	48 8d 05 45 07 01 00 	lea    0x10745(%rip),%rax        # 24164 <g_109>
   13a1f:	48 89 85 28 fc ff ff 	mov    %rax,-0x3d8(%rbp)
   13a26:	48 8d 05 37 08 01 00 	lea    0x10837(%rip),%rax        # 24264 <g_152+0x14>
   13a2d:	48 89 85 30 fc ff ff 	mov    %rax,-0x3d0(%rbp)
   13a34:	48 8d 85 c0 eb ff ff 	lea    -0x1440(%rbp),%rax
   13a3b:	48 89 85 38 fc ff ff 	mov    %rax,-0x3c8(%rbp)
   13a42:	48 c7 85 40 fc ff ff 	movq   $0x0,-0x3c0(%rbp)
   13a49:	00 00 00 00 
   13a4d:	48 c7 85 48 fc ff ff 	movq   $0x0,-0x3b8(%rbp)
   13a54:	00 00 00 00 
   13a58:	48 8d 85 bc eb ff ff 	lea    -0x1444(%rbp),%rax
   13a5f:	48 89 85 50 fc ff ff 	mov    %rax,-0x3b0(%rbp)
   13a66:	48 8d 85 bc eb ff ff 	lea    -0x1444(%rbp),%rax
   13a6d:	48 89 85 58 fc ff ff 	mov    %rax,-0x3a8(%rbp)
   13a74:	48 8d 85 bc eb ff ff 	lea    -0x1444(%rbp),%rax
   13a7b:	48 89 85 60 fc ff ff 	mov    %rax,-0x3a0(%rbp)
   13a82:	48 c7 85 68 fc ff ff 	movq   $0x0,-0x398(%rbp)
   13a89:	00 00 00 00 
   13a8d:	48 8d 05 cc 07 01 00 	lea    0x107cc(%rip),%rax        # 24260 <g_152+0x10>
   13a94:	48 89 85 70 fc ff ff 	mov    %rax,-0x390(%rbp)
   13a9b:	48 c7 85 78 fc ff ff 	movq   $0x0,-0x388(%rbp)
   13aa2:	00 00 00 00 
   13aa6:	48 8d 85 bc eb ff ff 	lea    -0x1444(%rbp),%rax
   13aad:	48 89 85 80 fc ff ff 	mov    %rax,-0x380(%rbp)
   13ab4:	48 8d 85 bc eb ff ff 	lea    -0x1444(%rbp),%rax
   13abb:	48 89 85 88 fc ff ff 	mov    %rax,-0x378(%rbp)
   13ac2:	48 8d 05 9b 07 01 00 	lea    0x1079b(%rip),%rax        # 24264 <g_152+0x14>
   13ac9:	48 89 85 90 fc ff ff 	mov    %rax,-0x370(%rbp)
   13ad0:	48 8d 85 c0 eb ff ff 	lea    -0x1440(%rbp),%rax
   13ad7:	48 89 85 98 fc ff ff 	mov    %rax,-0x368(%rbp)
   13ade:	48 8d 85 c0 eb ff ff 	lea    -0x1440(%rbp),%rax
   13ae5:	48 89 85 a0 fc ff ff 	mov    %rax,-0x360(%rbp)
   13aec:	48 8d 85 bc eb ff ff 	lea    -0x1444(%rbp),%rax
   13af3:	48 89 85 a8 fc ff ff 	mov    %rax,-0x358(%rbp)
   13afa:	48 8d 85 bc eb ff ff 	lea    -0x1444(%rbp),%rax
   13b01:	48 89 85 b0 fc ff ff 	mov    %rax,-0x350(%rbp)
   13b08:	48 8d 85 bc eb ff ff 	lea    -0x1444(%rbp),%rax
   13b0f:	48 89 85 b8 fc ff ff 	mov    %rax,-0x348(%rbp)
   13b16:	48 c7 85 c0 fc ff ff 	movq   $0x0,-0x340(%rbp)
   13b1d:	00 00 00 00 
   13b21:	48 8d 85 bc eb ff ff 	lea    -0x1444(%rbp),%rax
   13b28:	48 89 85 c8 fc ff ff 	mov    %rax,-0x338(%rbp)
   13b2f:	48 8d 85 c0 eb ff ff 	lea    -0x1440(%rbp),%rax
   13b36:	48 89 85 d0 fc ff ff 	mov    %rax,-0x330(%rbp)
   13b3d:	48 8d 85 bc eb ff ff 	lea    -0x1444(%rbp),%rax
   13b44:	48 89 85 d8 fc ff ff 	mov    %rax,-0x328(%rbp)
   13b4b:	48 8d 05 12 07 01 00 	lea    0x10712(%rip),%rax        # 24264 <g_152+0x14>
   13b52:	48 89 85 e0 fc ff ff 	mov    %rax,-0x320(%rbp)
   13b59:	48 8d 85 bc eb ff ff 	lea    -0x1444(%rbp),%rax
   13b60:	48 89 85 e8 fc ff ff 	mov    %rax,-0x318(%rbp)
   13b67:	48 8d 05 e2 06 01 00 	lea    0x106e2(%rip),%rax        # 24250 <g_152>
   13b6e:	48 89 85 f0 fc ff ff 	mov    %rax,-0x310(%rbp)
   13b75:	48 c7 85 f8 fc ff ff 	movq   $0x0,-0x308(%rbp)
   13b7c:	00 00 00 00 
   13b80:	48 8d 05 dd 05 01 00 	lea    0x105dd(%rip),%rax        # 24164 <g_109>
   13b87:	48 89 85 00 fd ff ff 	mov    %rax,-0x300(%rbp)
   13b8e:	48 8d 05 bb 06 01 00 	lea    0x106bb(%rip),%rax        # 24250 <g_152>
   13b95:	48 89 85 08 fd ff ff 	mov    %rax,-0x2f8(%rbp)
   13b9c:	48 8d 05 c1 06 01 00 	lea    0x106c1(%rip),%rax        # 24264 <g_152+0x14>
   13ba3:	48 89 85 10 fd ff ff 	mov    %rax,-0x2f0(%rbp)
   13baa:	48 8d 05 b3 05 01 00 	lea    0x105b3(%rip),%rax        # 24164 <g_109>
   13bb1:	48 89 85 18 fd ff ff 	mov    %rax,-0x2e8(%rbp)
   13bb8:	48 8d 05 a5 05 01 00 	lea    0x105a5(%rip),%rax        # 24164 <g_109>
   13bbf:	48 89 85 20 fd ff ff 	mov    %rax,-0x2e0(%rbp)
   13bc6:	48 8d 85 bc eb ff ff 	lea    -0x1444(%rbp),%rax
   13bcd:	48 89 85 28 fd ff ff 	mov    %rax,-0x2d8(%rbp)
   13bd4:	48 8d 05 89 06 01 00 	lea    0x10689(%rip),%rax        # 24264 <g_152+0x14>
   13bdb:	48 89 85 30 fd ff ff 	mov    %rax,-0x2d0(%rbp)
   13be2:	48 8d 85 bc eb ff ff 	lea    -0x1444(%rbp),%rax
   13be9:	48 89 85 38 fd ff ff 	mov    %rax,-0x2c8(%rbp)
   13bf0:	48 8d 85 bc eb ff ff 	lea    -0x1444(%rbp),%rax
   13bf7:	48 89 85 40 fd ff ff 	mov    %rax,-0x2c0(%rbp)
   13bfe:	48 8d 05 5f 06 01 00 	lea    0x1065f(%rip),%rax        # 24264 <g_152+0x14>
   13c05:	48 89 85 48 fd ff ff 	mov    %rax,-0x2b8(%rbp)
   13c0c:	48 8d 05 51 05 01 00 	lea    0x10551(%rip),%rax        # 24164 <g_109>
   13c13:	48 89 85 50 fd ff ff 	mov    %rax,-0x2b0(%rbp)
   13c1a:	48 8d 85 c0 eb ff ff 	lea    -0x1440(%rbp),%rax
   13c21:	48 89 85 58 fd ff ff 	mov    %rax,-0x2a8(%rbp)
   13c28:	48 8d 05 35 05 01 00 	lea    0x10535(%rip),%rax        # 24164 <g_109>
   13c2f:	48 89 85 60 fd ff ff 	mov    %rax,-0x2a0(%rbp)
   13c36:	48 8d 85 bc eb ff ff 	lea    -0x1444(%rbp),%rax
   13c3d:	48 89 85 68 fd ff ff 	mov    %rax,-0x298(%rbp)
   13c44:	48 8d 85 bc eb ff ff 	lea    -0x1444(%rbp),%rax
   13c4b:	48 89 85 70 fd ff ff 	mov    %rax,-0x290(%rbp)
   13c52:	48 8d 05 0f 06 01 00 	lea    0x1060f(%rip),%rax        # 24268 <g_152+0x18>
   13c59:	48 89 85 78 fd ff ff 	mov    %rax,-0x288(%rbp)
   13c60:	48 8d 05 fd 04 01 00 	lea    0x104fd(%rip),%rax        # 24164 <g_109>
   13c67:	48 89 85 80 fd ff ff 	mov    %rax,-0x280(%rbp)
   13c6e:	48 c7 85 88 fd ff ff 	movq   $0x0,-0x278(%rbp)
   13c75:	00 00 00 00 
   13c79:	48 8d 05 e4 04 01 00 	lea    0x104e4(%rip),%rax        # 24164 <g_109>
   13c80:	48 89 85 90 fd ff ff 	mov    %rax,-0x270(%rbp)
   13c87:	48 8d 85 c0 eb ff ff 	lea    -0x1440(%rbp),%rax
   13c8e:	48 89 85 98 fd ff ff 	mov    %rax,-0x268(%rbp)
   13c95:	48 8d 85 bc eb ff ff 	lea    -0x1444(%rbp),%rax
   13c9c:	48 89 85 a0 fd ff ff 	mov    %rax,-0x260(%rbp)
   13ca3:	48 8d 05 be 05 01 00 	lea    0x105be(%rip),%rax        # 24268 <g_152+0x18>
   13caa:	48 89 85 a8 fd ff ff 	mov    %rax,-0x258(%rbp)
   13cb1:	48 8d 05 ac 05 01 00 	lea    0x105ac(%rip),%rax        # 24264 <g_152+0x14>
   13cb8:	48 89 85 b0 fd ff ff 	mov    %rax,-0x250(%rbp)
   13cbf:	48 8d 85 c0 eb ff ff 	lea    -0x1440(%rbp),%rax
   13cc6:	48 89 85 b8 fd ff ff 	mov    %rax,-0x248(%rbp)
   13ccd:	48 8d 05 90 04 01 00 	lea    0x10490(%rip),%rax        # 24164 <g_109>
   13cd4:	48 89 85 c0 fd ff ff 	mov    %rax,-0x240(%rbp)
   13cdb:	48 8d 05 82 05 01 00 	lea    0x10582(%rip),%rax        # 24264 <g_152+0x14>
   13ce2:	48 89 85 c8 fd ff ff 	mov    %rax,-0x238(%rbp)
   13ce9:	48 c7 85 d0 fd ff ff 	movq   $0x0,-0x230(%rbp)
   13cf0:	00 00 00 00 
   13cf4:	48 8d 05 69 05 01 00 	lea    0x10569(%rip),%rax        # 24264 <g_152+0x14>
   13cfb:	48 89 85 d8 fd ff ff 	mov    %rax,-0x228(%rbp)
   13d02:	48 8d 05 57 05 01 00 	lea    0x10557(%rip),%rax        # 24260 <g_152+0x10>
   13d09:	48 89 85 e0 fd ff ff 	mov    %rax,-0x220(%rbp)
   13d10:	48 8d 05 4d 05 01 00 	lea    0x1054d(%rip),%rax        # 24264 <g_152+0x14>
   13d17:	48 89 85 e8 fd ff ff 	mov    %rax,-0x218(%rbp)
   13d1e:	48 8d 05 3f 05 01 00 	lea    0x1053f(%rip),%rax        # 24264 <g_152+0x14>
   13d25:	48 89 85 f0 fd ff ff 	mov    %rax,-0x210(%rbp)
   13d2c:	48 8d 05 31 04 01 00 	lea    0x10431(%rip),%rax        # 24164 <g_109>
   13d33:	48 89 85 f8 fd ff ff 	mov    %rax,-0x208(%rbp)
   13d3a:	48 8d 05 23 04 01 00 	lea    0x10423(%rip),%rax        # 24164 <g_109>
   13d41:	48 89 85 00 fe ff ff 	mov    %rax,-0x200(%rbp)
   13d48:	48 8d 05 15 04 01 00 	lea    0x10415(%rip),%rax        # 24164 <g_109>
   13d4f:	48 89 85 08 fe ff ff 	mov    %rax,-0x1f8(%rbp)
   13d56:	48 8d 05 07 05 01 00 	lea    0x10507(%rip),%rax        # 24264 <g_152+0x14>
   13d5d:	48 89 85 10 fe ff ff 	mov    %rax,-0x1f0(%rbp)
   13d64:	48 8d 05 f9 03 01 00 	lea    0x103f9(%rip),%rax        # 24164 <g_109>
   13d6b:	48 89 85 18 fe ff ff 	mov    %rax,-0x1e8(%rbp)
   13d72:	48 8d 05 eb 03 01 00 	lea    0x103eb(%rip),%rax        # 24164 <g_109>
   13d79:	48 89 85 20 fe ff ff 	mov    %rax,-0x1e0(%rbp)
   13d80:	48 8d 05 dd 04 01 00 	lea    0x104dd(%rip),%rax        # 24264 <g_152+0x14>
   13d87:	48 89 85 28 fe ff ff 	mov    %rax,-0x1d8(%rbp)
   13d8e:	48 8d 05 cf 03 01 00 	lea    0x103cf(%rip),%rax        # 24164 <g_109>
   13d95:	48 89 85 30 fe ff ff 	mov    %rax,-0x1d0(%rbp)
   13d9c:	48 8d 85 bc eb ff ff 	lea    -0x1444(%rbp),%rax
   13da3:	48 89 85 38 fe ff ff 	mov    %rax,-0x1c8(%rbp)
   13daa:	48 8d 05 b3 04 01 00 	lea    0x104b3(%rip),%rax        # 24264 <g_152+0x14>
   13db1:	48 89 85 40 fe ff ff 	mov    %rax,-0x1c0(%rbp)
   13db8:	48 c7 85 48 fe ff ff 	movq   $0x0,-0x1b8(%rbp)
   13dbf:	00 00 00 00 
   13dc3:	48 8d 85 c0 eb ff ff 	lea    -0x1440(%rbp),%rax
   13dca:	48 89 85 50 fe ff ff 	mov    %rax,-0x1b0(%rbp)
   13dd1:	48 8d 05 8c 03 01 00 	lea    0x1038c(%rip),%rax        # 24164 <g_109>
   13dd8:	48 89 85 58 fe ff ff 	mov    %rax,-0x1a8(%rbp)
   13ddf:	48 8d 85 bc eb ff ff 	lea    -0x1444(%rbp),%rax
   13de6:	48 89 85 60 fe ff ff 	mov    %rax,-0x1a0(%rbp)
   13ded:	48 8d 85 bc eb ff ff 	lea    -0x1444(%rbp),%rax
   13df4:	48 89 85 68 fe ff ff 	mov    %rax,-0x198(%rbp)
   13dfb:	48 8d 05 5e 04 01 00 	lea    0x1045e(%rip),%rax        # 24260 <g_152+0x10>
   13e02:	48 89 85 70 fe ff ff 	mov    %rax,-0x190(%rbp)
   13e09:	48 8d 05 54 03 01 00 	lea    0x10354(%rip),%rax        # 24164 <g_109>
   13e10:	48 89 85 78 fe ff ff 	mov    %rax,-0x188(%rbp)
   13e17:	48 8d 85 c0 eb ff ff 	lea    -0x1440(%rbp),%rax
   13e1e:	48 89 85 80 fe ff ff 	mov    %rax,-0x180(%rbp)
   13e25:	48 8d 05 38 04 01 00 	lea    0x10438(%rip),%rax        # 24264 <g_152+0x14>
   13e2c:	48 89 85 88 fe ff ff 	mov    %rax,-0x178(%rbp)
   13e33:	48 8d 05 2a 04 01 00 	lea    0x1042a(%rip),%rax        # 24264 <g_152+0x14>
   13e3a:	48 89 85 90 fe ff ff 	mov    %rax,-0x170(%rbp)
   13e41:	48 8d 85 bc eb ff ff 	lea    -0x1444(%rbp),%rax
   13e48:	48 89 85 98 fe ff ff 	mov    %rax,-0x168(%rbp)
   13e4f:	48 8d 05 0e 04 01 00 	lea    0x1040e(%rip),%rax        # 24264 <g_152+0x14>
   13e56:	48 89 85 a0 fe ff ff 	mov    %rax,-0x160(%rbp)
   13e5d:	48 c7 85 a8 fe ff ff 	movq   $0x0,-0x158(%rbp)
   13e64:	00 00 00 00 
   13e68:	48 8d 05 f1 03 01 00 	lea    0x103f1(%rip),%rax        # 24260 <g_152+0x10>
   13e6f:	48 89 85 b0 fe ff ff 	mov    %rax,-0x150(%rbp)
   13e76:	48 8d 85 c0 eb ff ff 	lea    -0x1440(%rbp),%rax
   13e7d:	48 89 85 b8 fe ff ff 	mov    %rax,-0x148(%rbp)
   13e84:	48 c7 85 c0 fe ff ff 	movq   $0x0,-0x140(%rbp)
   13e8b:	00 00 00 00 
   13e8f:	48 8d 85 bc eb ff ff 	lea    -0x1444(%rbp),%rax
   13e96:	48 89 85 c8 fe ff ff 	mov    %rax,-0x138(%rbp)
   13e9d:	48 8d 05 c0 02 01 00 	lea    0x102c0(%rip),%rax        # 24164 <g_109>
   13ea4:	48 89 85 d0 fe ff ff 	mov    %rax,-0x130(%rbp)
   13eab:	48 c7 85 d8 fe ff ff 	movq   $0x0,-0x128(%rbp)
   13eb2:	00 00 00 00 
   13eb6:	48 c7 85 e0 fe ff ff 	movq   $0x0,-0x120(%rbp)
   13ebd:	00 00 00 00 
   13ec1:	48 8d 85 bc eb ff ff 	lea    -0x1444(%rbp),%rax
   13ec8:	48 89 85 e8 fe ff ff 	mov    %rax,-0x118(%rbp)
   13ecf:	48 8d 05 8e 03 01 00 	lea    0x1038e(%rip),%rax        # 24264 <g_152+0x14>
   13ed6:	48 89 85 f0 fe ff ff 	mov    %rax,-0x110(%rbp)
   13edd:	48 8d 05 80 02 01 00 	lea    0x10280(%rip),%rax        # 24164 <g_109>
   13ee4:	48 89 85 f8 fe ff ff 	mov    %rax,-0x108(%rbp)
   13eeb:	48 8d 05 72 02 01 00 	lea    0x10272(%rip),%rax        # 24164 <g_109>
   13ef2:	48 89 85 00 ff ff ff 	mov    %rax,-0x100(%rbp)
   13ef9:	48 8d 05 64 02 01 00 	lea    0x10264(%rip),%rax        # 24164 <g_109>
   13f00:	48 89 85 08 ff ff ff 	mov    %rax,-0xf8(%rbp)
   13f07:	48 c7 85 10 ff ff ff 	movq   $0x0,-0xf0(%rbp)
   13f0e:	00 00 00 00 
   13f12:	48 8d 85 bc eb ff ff 	lea    -0x1444(%rbp),%rax
   13f19:	48 89 85 18 ff ff ff 	mov    %rax,-0xe8(%rbp)
   13f20:	48 8d 85 bc eb ff ff 	lea    -0x1444(%rbp),%rax
   13f27:	48 89 85 20 ff ff ff 	mov    %rax,-0xe0(%rbp)
   13f2e:	48 8d 05 1b 03 01 00 	lea    0x1031b(%rip),%rax        # 24250 <g_152>
   13f35:	48 89 85 28 ff ff ff 	mov    %rax,-0xd8(%rbp)
   13f3c:	48 8d 05 21 02 01 00 	lea    0x10221(%rip),%rax        # 24164 <g_109>
   13f43:	48 89 85 30 ff ff ff 	mov    %rax,-0xd0(%rbp)
   13f4a:	48 c7 85 38 ff ff ff 	movq   $0x0,-0xc8(%rbp)
   13f51:	00 00 00 00 
   13f55:	48 8d 05 04 03 01 00 	lea    0x10304(%rip),%rax        # 24260 <g_152+0x10>
   13f5c:	48 89 85 40 ff ff ff 	mov    %rax,-0xc0(%rbp)
   13f63:	48 8d 05 e6 02 01 00 	lea    0x102e6(%rip),%rax        # 24250 <g_152>
   13f6a:	48 89 85 48 ff ff ff 	mov    %rax,-0xb8(%rbp)
   13f71:	48 8d 05 ec 01 01 00 	lea    0x101ec(%rip),%rax        # 24164 <g_109>
   13f78:	48 89 85 50 ff ff ff 	mov    %rax,-0xb0(%rbp)
   13f7f:	48 8d 85 bc eb ff ff 	lea    -0x1444(%rbp),%rax
   13f86:	48 89 85 58 ff ff ff 	mov    %rax,-0xa8(%rbp)
   13f8d:	48 8d 05 bc 02 01 00 	lea    0x102bc(%rip),%rax        # 24250 <g_152>
   13f94:	48 89 85 60 ff ff ff 	mov    %rax,-0xa0(%rbp)
   13f9b:	48 8d 05 c2 01 01 00 	lea    0x101c2(%rip),%rax        # 24164 <g_109>
   13fa2:	48 89 85 68 ff ff ff 	mov    %rax,-0x98(%rbp)
   13fa9:	48 8d 05 b0 02 01 00 	lea    0x102b0(%rip),%rax        # 24260 <g_152+0x10>
   13fb0:	48 89 85 70 ff ff ff 	mov    %rax,-0x90(%rbp)
   13fb7:	48 8d 85 bc eb ff ff 	lea    -0x1444(%rbp),%rax
   13fbe:	48 89 85 78 ff ff ff 	mov    %rax,-0x88(%rbp)
   13fc5:	48 c7 45 80 00 00 00 	movq   $0x0,-0x80(%rbp)
   13fcc:	00 
   13fcd:	48 8d 05 90 01 01 00 	lea    0x10190(%rip),%rax        # 24164 <g_109>
   13fd4:	48 89 45 88          	mov    %rax,-0x78(%rbp)
   13fd8:	48 8d 05 81 02 01 00 	lea    0x10281(%rip),%rax        # 24260 <g_152+0x10>
   13fdf:	48 89 45 90          	mov    %rax,-0x70(%rbp)
   13fe3:	48 c7 45 98 00 00 00 	movq   $0x0,-0x68(%rbp)
   13fea:	00 
   13feb:	48 8d 05 6e 02 01 00 	lea    0x1026e(%rip),%rax        # 24260 <g_152+0x10>
   13ff2:	48 89 45 a0          	mov    %rax,-0x60(%rbp)
   13ff6:	48 8d 85 bc eb ff ff 	lea    -0x1444(%rbp),%rax
   13ffd:	48 89 45 a8          	mov    %rax,-0x58(%rbp)
   14001:	48 8d 05 5c 01 01 00 	lea    0x1015c(%rip),%rax        # 24164 <g_109>
   14008:	48 89 45 b0          	mov    %rax,-0x50(%rbp)
   1400c:	48 8d 05 51 02 01 00 	lea    0x10251(%rip),%rax        # 24264 <g_152+0x14>
   14013:	48 89 45 b8          	mov    %rax,-0x48(%rbp)
   14017:	48 8d 05 ca 03 01 00 	lea    0x103ca(%rip),%rax        # 243e8 <g_1959>
   1401e:	48 89 85 b0 ee ff ff 	mov    %rax,-0x1150(%rbp)
   14025:	48 8d 85 c8 ec ff ff 	lea    -0x1338(%rbp),%rax
   1402c:	48 89 85 b8 ee ff ff 	mov    %rax,-0x1148(%rbp)
   14033:	48 c7 85 c0 ee ff ff 	movq   $0x0,-0x1140(%rbp)
   1403a:	00 00 00 00 
   1403e:	48 8d 05 b3 02 01 00 	lea    0x102b3(%rip),%rax        # 242f8 <g_824>
   14045:	48 89 85 c8 ee ff ff 	mov    %rax,-0x1138(%rbp)
   1404c:	48 8b 85 40 ed ff ff 	mov    -0x12c0(%rbp),%rax
   14053:	8b 00                	mov    (%rax),%eax
   14055:	85 c0                	test   %eax,%eax
   14057:	0f 85 d8 01 00 00    	jne    14235 <func_51+0x4596>
   1405d:	48 c7 85 88 ed ff ff 	movq   $0x0,-0x1278(%rbp)
   14064:	00 00 00 00 
   14068:	8b 85 ec f4 ff ff    	mov    -0xb14(%rbp),%eax
   1406e:	48 63 d8             	movslq %eax,%rbx
   14071:	4c 8b a5 80 eb ff ff 	mov    -0x1480(%rbp),%r12
   14078:	48 8b 05 79 03 01 00 	mov    0x10379(%rip),%rax        # 243f8 <g_1984>
   1407f:	48 8b 05 6a 38 01 00 	mov    0x1386a(%rip),%rax        # 278f0 <g_2166>
   14086:	48 89 85 a0 ee ff ff 	mov    %rax,-0x1160(%rbp)
   1408d:	48 8d 05 54 38 01 00 	lea    0x13854(%rip),%rax        # 278e8 <g_2167>
   14094:	48 39 85 a0 ee ff ff 	cmp    %rax,-0x1160(%rbp)
   1409b:	0f 94 c0             	sete   %al
   1409e:	0f b6 c0             	movzbl %al,%eax
   140a1:	be 0d 00 00 00       	mov    $0xd,%esi
   140a6:	89 c7                	mov    %eax,%edi
   140a8:	e8 b6 54 ff ff       	callq  9563 <safe_rshift_func_int16_t_s_u>
   140ad:	4c 0f bf e8          	movswq %ax,%r13
   140b1:	8b 05 ad 01 01 00    	mov    0x101ad(%rip),%eax        # 24264 <g_152+0x14>
   140b7:	8d 50 ff             	lea    -0x1(%rax),%edx
   140ba:	89 15 a4 01 01 00    	mov    %edx,0x101a4(%rip)        # 24264 <g_152+0x14>
   140c0:	3d 03 2c f9 ab       	cmp    $0xabf92c03,%eax
   140c5:	0f 96 c0             	setbe  %al
   140c8:	0f b6 d0             	movzbl %al,%edx
   140cb:	48 8b 05 f6 01 01 00 	mov    0x101f6(%rip),%rax        # 242c8 <g_405>
   140d2:	48 39 c2             	cmp    %rax,%rdx
   140d5:	0f 93 c0             	setae  %al
   140d8:	44 0f b6 f0          	movzbl %al,%r14d
   140dc:	0f bf 85 b4 eb ff ff 	movswl -0x144c(%rbp),%eax
   140e3:	89 c6                	mov    %eax,%esi
   140e5:	bf 2d f7 ff ff       	mov    $0xfffff72d,%edi
   140ea:	e8 a3 53 ff ff       	callq  9492 <safe_lshift_func_int16_t_s_s>
   140ef:	89 c2                	mov    %eax,%edx
   140f1:	48 8b 85 b0 ee ff ff 	mov    -0x1150(%rbp),%rax
   140f8:	88 10                	mov    %dl,(%rax)
   140fa:	48 8b 85 b0 ee ff ff 	mov    -0x1150(%rbp),%rax
   14101:	0f b6 00             	movzbl (%rax),%eax
   14104:	66 0f be d0          	movsbw %al,%dx
   14108:	0f b7 05 5f 0a 01 00 	movzwl 0x10a5f(%rip),%eax        # 24b6e <g_2086+0xe>
   1410f:	66 39 c2             	cmp    %ax,%dx
   14112:	0f 95 c0             	setne  %al
   14115:	0f b6 c0             	movzbl %al,%eax
   14118:	be 8d 46 00 00       	mov    $0x468d,%esi
   1411d:	89 c7                	mov    %eax,%edi
   1411f:	e8 8f 52 ff ff       	callq  93b3 <safe_add_func_int16_t_s_s>
   14124:	48 83 bd b8 ee ff ff 	cmpq   $0x0,-0x1148(%rbp)
   1412b:	00 
   1412c:	0f 95 c0             	setne  %al
   1412f:	0f b6 d0             	movzbl %al,%edx
   14132:	48 8b 85 c8 ee ff ff 	mov    -0x1138(%rbp),%rax
   14139:	48 89 10             	mov    %rdx,(%rax)
   1413c:	48 8b 85 c8 ee ff ff 	mov    -0x1138(%rbp),%rax
   14143:	48 8b 00             	mov    (%rax),%rax
   14146:	4c 09 f0             	or     %r14,%rax
   14149:	49 39 c5             	cmp    %rax,%r13
   1414c:	0f 95 c0             	setne  %al
   1414f:	0f b6 c0             	movzbl %al,%eax
   14152:	4c 89 e6             	mov    %r12,%rsi
   14155:	48 89 c7             	mov    %rax,%rdi
   14158:	e8 23 5f ff ff       	callq  a080 <safe_mod_func_uint64_t_u_u>
   1415d:	48 3d 89 00 00 00    	cmp    $0x89,%rax
   14163:	0f 94 c0             	sete   %al
   14166:	0f b6 c0             	movzbl %al,%eax
   14169:	48 89 de             	mov    %rbx,%rsi
   1416c:	48 89 c7             	mov    %rax,%rdi
   1416f:	e8 3b 5f ff ff       	callq  a0af <safe_div_func_uint64_t_u_u>
   14174:	48 85 c0             	test   %rax,%rax
   14177:	74 6e                	je     141e7 <func_51+0x4548>
   14179:	c7 85 84 ec ff ff 00 	movl   $0x0,-0x137c(%rbp)
   14180:	00 00 00 
   14183:	83 85 84 ec ff ff 01 	addl   $0x1,-0x137c(%rbp)
   1418a:	c6 85 8c eb ff ff f7 	movb   $0xf7,-0x1474(%rbp)
   14191:	eb 3d                	jmp    141d0 <func_51+0x4531>
   14193:	48 8b 85 48 ed ff ff 	mov    -0x12b8(%rbp),%rax
   1419a:	8b 10                	mov    (%rax),%edx
   1419c:	48 83 bd 78 ed ff ff 	cmpq   $0x0,-0x1288(%rbp)
   141a3:	00 
   141a4:	0f 95 c0             	setne  %al
   141a7:	0f b6 c0             	movzbl %al,%eax
   141aa:	21 c2                	and    %eax,%edx
   141ac:	48 8b 85 48 ed ff ff 	mov    -0x12b8(%rbp),%rax
   141b3:	89 10                	mov    %edx,(%rax)
   141b5:	48 0f be 85 8c eb ff 	movsbq -0x1474(%rbp),%rax
   141bc:	ff 
   141bd:	be 08 00 00 00       	mov    $0x8,%esi
   141c2:	48 89 c7             	mov    %rax,%rdi
   141c5:	e8 de 56 ff ff       	callq  98a8 <safe_sub_func_int64_t_s_s>
   141ca:	88 85 8c eb ff ff    	mov    %al,-0x1474(%rbp)
   141d0:	80 bd 8c eb ff ff f3 	cmpb   $0xf3,-0x1474(%rbp)
   141d7:	7c ba                	jl     14193 <func_51+0x44f4>
   141d9:	83 bd 0c ec ff ff 00 	cmpl   $0x0,-0x13f4(%rbp)
   141e0:	74 1e                	je     14200 <func_51+0x4561>
   141e2:	e9 a4 ec ff ff       	jmpq   12e8b <func_51+0x31ec>
   141e7:	48 c7 85 d0 ee ff ff 	movq   $0x0,-0x1130(%rbp)
   141ee:	00 00 00 00 
   141f2:	48 8b 85 d0 ee ff ff 	mov    -0x1130(%rbp),%rax
   141f9:	48 89 85 40 f3 ff ff 	mov    %rax,-0xcc0(%rbp)
   14200:	48 8b 05 61 ff 00 00 	mov    0xff61(%rip),%rax        # 24168 <g_126>
   14207:	98                   	cwtl   
   14208:	be 09 00 00 00       	mov    $0x9,%esi
   1420d:	89 c7                	mov    %eax,%edi
   1420f:	e8 9f 51 ff ff       	callq  93b3 <safe_add_func_int16_t_s_s>
   14214:	48 0f bf c0          	movswq %ax,%rax
   14218:	48 89 05 49 ff 00 00 	mov    %rax,0xff49(%rip)        # 24168 <g_126>
   1421f:	48 8b 05 42 ff 00 00 	mov    0xff42(%rip),%rax        # 24168 <g_126>
   14226:	48 83 f8 08          	cmp    $0x8,%rax
   1422a:	0f 86 45 ed ff ff    	jbe    12f75 <func_51+0x32d6>
   14230:	eb 04                	jmp    14236 <func_51+0x4597>
   14232:	90                   	nop
   14233:	eb 01                	jmp    14236 <func_51+0x4597>
   14235:	90                   	nop
   14236:	48 c7 05 27 ff 00 00 	movq   $0x0,0xff27(%rip)        # 24168 <g_126>
   1423d:	00 00 00 00 
   14241:	90                   	nop
   14242:	48 8b 05 1f ff 00 00 	mov    0xff1f(%rip),%rax        # 24168 <g_126>
   14249:	48 83 f8 35          	cmp    $0x35,%rax
   1424d:	74 14                	je     14263 <func_51+0x45c4>
   1424f:	48 c7 85 08 ef ff ff 	movq   $0x0,-0x10f8(%rbp)
   14256:	00 00 00 00 
   1425a:	48 8b 85 08 ef ff ff 	mov    -0x10f8(%rbp),%rax
   14261:	eb 07                	jmp    1426a <func_51+0x45cb>
   14263:	48 8b 85 90 ed ff ff 	mov    -0x1270(%rbp),%rax
   1426a:	48 8b 5d c8          	mov    -0x38(%rbp),%rbx
   1426e:	64 48 33 1c 25 28 00 	xor    %fs:0x28,%rbx
   14275:	00 00 
   14277:	74 05                	je     1427e <func_51+0x45df>
   14279:	e8 f2 4d ff ff       	callq  9070 <__stack_chk_fail@plt>
   1427e:	48 81 c4 68 14 00 00 	add    $0x1468,%rsp
   14285:	5b                   	pop    %rbx
   14286:	41 5c                	pop    %r12
   14288:	41 5d                	pop    %r13
   1428a:	41 5e                	pop    %r14
   1428c:	41 5f                	pop    %r15
   1428e:	5d                   	pop    %rbp
   1428f:	c3                   	retq   

0000000000014290 <func_60>:
   14290:	f3 0f 1e fa          	endbr64 
   14294:	55                   	push   %rbp
   14295:	48 89 e5             	mov    %rsp,%rbp
   14298:	41 56                	push   %r14
   1429a:	41 55                	push   %r13
   1429c:	41 54                	push   %r12
   1429e:	53                   	push   %rbx
   1429f:	48 81 ec 00 10 00 00 	sub    $0x1000,%rsp
   142a6:	48 83 0c 24 00       	orq    $0x0,(%rsp)
   142ab:	48 81 ec 60 07 00 00 	sub    $0x760,%rsp
   142b2:	48 89 bd 88 e8 ff ff 	mov    %rdi,-0x1778(%rbp)
   142b9:	64 48 8b 04 25 28 00 	mov    %fs:0x28,%rax
   142c0:	00 00 
   142c2:	48 89 45 d8          	mov    %rax,-0x28(%rbp)
   142c6:	31 c0                	xor    %eax,%eax
   142c8:	48 8d 05 f5 fe 00 00 	lea    0xfef5(%rip),%rax        # 241c4 <g_142+0x44>
   142cf:	48 89 85 68 e9 ff ff 	mov    %rax,-0x1698(%rbp)
   142d6:	c7 85 00 f1 ff ff 00 	movl   $0x0,-0xf00(%rbp)
   142dd:	00 00 00 
   142e0:	c7 85 04 f1 ff ff 05 	movl   $0x5,-0xefc(%rbp)
   142e7:	00 00 00 
   142ea:	c7 85 08 f1 ff ff 05 	movl   $0x5,-0xef8(%rbp)
   142f1:	00 00 00 
   142f4:	c7 85 0c f1 ff ff 00 	movl   $0x0,-0xef4(%rbp)
   142fb:	00 00 00 
   142fe:	c7 85 10 f1 ff ff a5 	movl   $0x445593a5,-0xef0(%rbp)
   14305:	93 55 44 
   14308:	c7 85 14 f1 ff ff 01 	movl   $0x1,-0xeec(%rbp)
   1430f:	00 00 00 
   14312:	c7 85 18 f1 ff ff 01 	movl   $0x1,-0xee8(%rbp)
   14319:	00 00 00 
   1431c:	c7 85 1c f1 ff ff a5 	movl   $0x445593a5,-0xee4(%rbp)
   14323:	93 55 44 
   14326:	c7 85 20 f1 ff ff 00 	movl   $0x0,-0xee0(%rbp)
   1432d:	00 00 00 
   14330:	c7 85 24 f1 ff ff 05 	movl   $0x5,-0xedc(%rbp)
   14337:	00 00 00 
   1433a:	c7 85 28 f1 ff ff 00 	movl   $0x0,-0xed8(%rbp)
   14341:	00 00 00 
   14344:	c7 85 2c f1 ff ff 00 	movl   $0x0,-0xed4(%rbp)
   1434b:	00 00 00 
   1434e:	c7 85 30 f1 ff ff 01 	movl   $0x1,-0xed0(%rbp)
   14355:	00 00 00 
   14358:	c7 85 34 f1 ff ff 05 	movl   $0x5,-0xecc(%rbp)
   1435f:	00 00 00 
   14362:	c7 85 38 f1 ff ff a5 	movl   $0x445593a5,-0xec8(%rbp)
   14369:	93 55 44 
   1436c:	c7 85 3c f1 ff ff a5 	movl   $0x445593a5,-0xec4(%rbp)
   14373:	93 55 44 
   14376:	c7 85 40 f1 ff ff 05 	movl   $0x5,-0xec0(%rbp)
   1437d:	00 00 00 
   14380:	c7 85 44 f1 ff ff 01 	movl   $0x1,-0xebc(%rbp)
   14387:	00 00 00 
   1438a:	c7 85 48 f1 ff ff 00 	movl   $0x0,-0xeb8(%rbp)
   14391:	00 00 00 
   14394:	c7 85 4c f1 ff ff 00 	movl   $0x0,-0xeb4(%rbp)
   1439b:	00 00 00 
   1439e:	c7 85 50 f1 ff ff a5 	movl   $0x445593a5,-0xeb0(%rbp)
   143a5:	93 55 44 
   143a8:	c7 85 54 f1 ff ff 05 	movl   $0x5,-0xeac(%rbp)
   143af:	00 00 00 
   143b2:	c7 85 58 f1 ff ff 01 	movl   $0x1,-0xea8(%rbp)
   143b9:	00 00 00 
   143bc:	c7 85 5c f1 ff ff 00 	movl   $0x0,-0xea4(%rbp)
   143c3:	00 00 00 
   143c6:	c7 85 60 f1 ff ff 00 	movl   $0x0,-0xea0(%rbp)
   143cd:	00 00 00 
   143d0:	c7 85 64 f1 ff ff 01 	movl   $0x1,-0xe9c(%rbp)
   143d7:	00 00 00 
   143da:	c7 85 68 f1 ff ff 05 	movl   $0x5,-0xe98(%rbp)
   143e1:	00 00 00 
   143e4:	c7 85 6c f1 ff ff a5 	movl   $0x445593a5,-0xe94(%rbp)
   143eb:	93 55 44 
   143ee:	c7 85 70 f1 ff ff a5 	movl   $0x445593a5,-0xe90(%rbp)
   143f5:	93 55 44 
   143f8:	c7 85 74 f1 ff ff 05 	movl   $0x5,-0xe8c(%rbp)
   143ff:	00 00 00 
   14402:	c7 85 78 f1 ff ff a5 	movl   $0x445593a5,-0xe88(%rbp)
   14409:	93 55 44 
   1440c:	c7 85 7c f1 ff ff 00 	movl   $0x0,-0xe84(%rbp)
   14413:	00 00 00 
   14416:	c7 85 80 f1 ff ff 05 	movl   $0x5,-0xe80(%rbp)
   1441d:	00 00 00 
   14420:	c7 85 84 f1 ff ff 05 	movl   $0x5,-0xe7c(%rbp)
   14427:	00 00 00 
   1442a:	c7 85 88 f1 ff ff 00 	movl   $0x0,-0xe78(%rbp)
   14431:	00 00 00 
   14434:	c7 85 8c f1 ff ff a5 	movl   $0x445593a5,-0xe74(%rbp)
   1443b:	93 55 44 
   1443e:	c7 85 90 f1 ff ff 01 	movl   $0x1,-0xe70(%rbp)
   14445:	00 00 00 
   14448:	c7 85 94 f1 ff ff 01 	movl   $0x1,-0xe6c(%rbp)
   1444f:	00 00 00 
   14452:	c7 85 98 f1 ff ff a5 	movl   $0x445593a5,-0xe68(%rbp)
   14459:	93 55 44 
   1445c:	c7 85 9c f1 ff ff 00 	movl   $0x0,-0xe64(%rbp)
   14463:	00 00 00 
   14466:	c7 85 a0 f1 ff ff 00 	movl   $0x0,-0xe60(%rbp)
   1446d:	00 00 00 
   14470:	c7 85 a4 f1 ff ff 05 	movl   $0x5,-0xe5c(%rbp)
   14477:	00 00 00 
   1447a:	c7 85 a8 f1 ff ff 05 	movl   $0x5,-0xe58(%rbp)
   14481:	00 00 00 
   14484:	c7 85 ac f1 ff ff 00 	movl   $0x0,-0xe54(%rbp)
   1448b:	00 00 00 
   1448e:	c7 85 b0 f1 ff ff a5 	movl   $0x445593a5,-0xe50(%rbp)
   14495:	93 55 44 
   14498:	c7 85 b4 f1 ff ff 01 	movl   $0x1,-0xe4c(%rbp)
   1449f:	00 00 00 
   144a2:	c7 85 b8 f1 ff ff 01 	movl   $0x1,-0xe48(%rbp)
   144a9:	00 00 00 
   144ac:	c7 85 bc f1 ff ff a5 	movl   $0x445593a5,-0xe44(%rbp)
   144b3:	93 55 44 
   144b6:	c7 85 c0 f1 ff ff 00 	movl   $0x0,-0xe40(%rbp)
   144bd:	00 00 00 
   144c0:	c7 85 c4 f1 ff ff 05 	movl   $0x5,-0xe3c(%rbp)
   144c7:	00 00 00 
   144ca:	c7 85 c8 f1 ff ff 00 	movl   $0x0,-0xe38(%rbp)
   144d1:	00 00 00 
   144d4:	c7 85 cc f1 ff ff 00 	movl   $0x0,-0xe34(%rbp)
   144db:	00 00 00 
   144de:	c7 85 d0 f1 ff ff 01 	movl   $0x1,-0xe30(%rbp)
   144e5:	00 00 00 
   144e8:	c7 85 d4 f1 ff ff 05 	movl   $0x5,-0xe2c(%rbp)
   144ef:	00 00 00 
   144f2:	c7 85 d8 f1 ff ff a5 	movl   $0x445593a5,-0xe28(%rbp)
   144f9:	93 55 44 
   144fc:	c7 85 dc f1 ff ff a5 	movl   $0x445593a5,-0xe24(%rbp)
   14503:	93 55 44 
   14506:	c7 85 e0 f1 ff ff 05 	movl   $0x5,-0xe20(%rbp)
   1450d:	00 00 00 
   14510:	c7 85 e4 f1 ff ff 01 	movl   $0x1,-0xe1c(%rbp)
   14517:	00 00 00 
   1451a:	c7 85 e8 f1 ff ff 00 	movl   $0x0,-0xe18(%rbp)
   14521:	00 00 00 
   14524:	c7 85 ec f1 ff ff 00 	movl   $0x0,-0xe14(%rbp)
   1452b:	00 00 00 
   1452e:	48 c7 85 70 e9 ff ff 	movq   $0x0,-0x1690(%rbp)
   14535:	00 00 00 00 
   14539:	c6 85 99 e8 ff ff 00 	movb   $0x0,-0x1767(%rbp)
   14540:	c7 85 30 ee ff ff 82 	movl   $0x8c590282,-0x11d0(%rbp)
   14547:	02 59 8c 
   1454a:	c7 85 34 ee ff ff 07 	movl   $0x7,-0x11cc(%rbp)
   14551:	00 00 00 
   14554:	c7 85 38 ee ff ff 7a 	movl   $0x2ad5ab7a,-0x11c8(%rbp)
   1455b:	ab d5 2a 
   1455e:	c7 85 3c ee ff ff 7a 	movl   $0x2ad5ab7a,-0x11c4(%rbp)
   14565:	ab d5 2a 
   14568:	c7 85 40 ee ff ff 07 	movl   $0x7,-0x11c0(%rbp)
   1456f:	00 00 00 
   14572:	c7 85 44 ee ff ff 82 	movl   $0x8c590282,-0x11bc(%rbp)
   14579:	02 59 8c 
   1457c:	c7 85 48 ee ff ff 01 	movl   $0x1,-0x11b8(%rbp)
   14583:	00 00 00 
   14586:	c7 85 4c ee ff ff 07 	movl   $0x7,-0x11b4(%rbp)
   1458d:	00 00 00 
   14590:	c7 85 50 ee ff ff f9 	movl   $0xfffffff9,-0x11b0(%rbp)
   14597:	ff ff ff 
   1459a:	c7 85 54 ee ff ff 01 	movl   $0x1,-0x11ac(%rbp)
   145a1:	00 00 00 
   145a4:	c7 85 58 ee ff ff 7a 	movl   $0x2ad5ab7a,-0x11a8(%rbp)
   145ab:	ab d5 2a 
   145ae:	c7 85 5c ee ff ff f9 	movl   $0xfffffff9,-0x11a4(%rbp)
   145b5:	ff ff ff 
   145b8:	c7 85 60 ee ff ff 7a 	movl   $0x2ad5ab7a,-0x11a0(%rbp)
   145bf:	ab d5 2a 
   145c2:	c7 85 64 ee ff ff 01 	movl   $0x1,-0x119c(%rbp)
   145c9:	00 00 00 
   145cc:	c7 85 68 ee ff ff f9 	movl   $0xfffffff9,-0x1198(%rbp)
   145d3:	ff ff ff 
   145d6:	c7 85 6c ee ff ff 82 	movl   $0x8c590282,-0x1194(%rbp)
   145dd:	02 59 8c 
   145e0:	c7 85 70 ee ff ff 07 	movl   $0x7,-0x1190(%rbp)
   145e7:	00 00 00 
   145ea:	c7 85 74 ee ff ff 98 	movl   $0x7afc7f98,-0x118c(%rbp)
   145f1:	7f fc 7a 
   145f4:	c7 85 78 ee ff ff 00 	movl   $0x0,-0x1188(%rbp)
   145fb:	00 00 00 
   145fe:	c7 85 7c ee ff ff f9 	movl   $0xfffffff9,-0x1184(%rbp)
   14605:	ff ff ff 
   14608:	c7 85 80 ee ff ff f9 	movl   $0xfffffff9,-0x1180(%rbp)
   1460f:	ff ff ff 
   14612:	c7 85 84 ee ff ff 00 	movl   $0x0,-0x117c(%rbp)
   14619:	00 00 00 
   1461c:	c7 85 88 ee ff ff 98 	movl   $0x7afc7f98,-0x1178(%rbp)
   14623:	7f fc 7a 
   14626:	c7 85 8c ee ff ff 07 	movl   $0x7,-0x1174(%rbp)
   1462d:	00 00 00 
   14630:	c7 85 90 ee ff ff 82 	movl   $0x8c590282,-0x1170(%rbp)
   14637:	02 59 8c 
   1463a:	c7 85 94 ee ff ff f9 	movl   $0xfffffff9,-0x116c(%rbp)
   14641:	ff ff ff 
   14644:	c7 85 98 ee ff ff 01 	movl   $0x1,-0x1168(%rbp)
   1464b:	00 00 00 
   1464e:	c7 85 9c ee ff ff 7a 	movl   $0x2ad5ab7a,-0x1164(%rbp)
   14655:	ab d5 2a 
   14658:	c7 85 a0 ee ff ff f9 	movl   $0xfffffff9,-0x1160(%rbp)
   1465f:	ff ff ff 
   14662:	c7 85 a4 ee ff ff 7a 	movl   $0x2ad5ab7a,-0x115c(%rbp)
   14669:	ab d5 2a 
   1466c:	c7 85 a8 ee ff ff 01 	movl   $0x1,-0x1158(%rbp)
   14673:	00 00 00 
   14676:	c7 85 ac ee ff ff f9 	movl   $0xfffffff9,-0x1154(%rbp)
   1467d:	ff ff ff 
   14680:	c7 85 b0 ee ff ff 07 	movl   $0x7,-0x1150(%rbp)
   14687:	00 00 00 
   1468a:	c7 85 b4 ee ff ff 01 	movl   $0x1,-0x114c(%rbp)
   14691:	00 00 00 
   14694:	c7 85 b8 ee ff ff 82 	movl   $0x8c590282,-0x1148(%rbp)
   1469b:	02 59 8c 
   1469e:	c7 85 bc ee ff ff 07 	movl   $0x7,-0x1144(%rbp)
   146a5:	00 00 00 
   146a8:	c7 85 c0 ee ff ff 7a 	movl   $0x2ad5ab7a,-0x1140(%rbp)
   146af:	ab d5 2a 
   146b2:	c7 85 c4 ee ff ff 7a 	movl   $0x2ad5ab7a,-0x113c(%rbp)
   146b9:	ab d5 2a 
   146bc:	c7 85 c8 ee ff ff 07 	movl   $0x7,-0x1138(%rbp)
   146c3:	00 00 00 
   146c6:	c7 85 cc ee ff ff 82 	movl   $0x8c590282,-0x1134(%rbp)
   146cd:	02 59 8c 
   146d0:	48 8d 85 20 ec ff ff 	lea    -0x13e0(%rbp),%rax
   146d7:	48 83 c0 08          	add    $0x8,%rax
   146db:	48 89 85 78 e9 ff ff 	mov    %rax,-0x1688(%rbp)
   146e2:	48 8d 05 87 40 01 00 	lea    0x14087(%rip),%rax        # 28770 <g_159+0x10>
   146e9:	48 89 85 18 ea ff ff 	mov    %rax,-0x15e8(%rbp)
   146f0:	48 8d 85 60 ec ff ff 	lea    -0x13a0(%rbp),%rax
   146f7:	48 83 c0 18          	add    $0x18,%rax
   146fb:	48 89 85 a0 ed ff ff 	mov    %rax,-0x1260(%rbp)
   14702:	48 8d 85 60 ec ff ff 	lea    -0x13a0(%rbp),%rax
   14709:	48 83 c0 18          	add    $0x18,%rax
   1470d:	48 89 85 a8 ed ff ff 	mov    %rax,-0x1258(%rbp)
   14714:	48 8d 85 60 ec ff ff 	lea    -0x13a0(%rbp),%rax
   1471b:	48 83 c0 18          	add    $0x18,%rax
   1471f:	48 89 85 b0 ed ff ff 	mov    %rax,-0x1250(%rbp)
   14726:	48 8d 85 60 ec ff ff 	lea    -0x13a0(%rbp),%rax
   1472d:	48 83 c0 18          	add    $0x18,%rax
   14731:	48 89 85 b8 ed ff ff 	mov    %rax,-0x1248(%rbp)
   14738:	48 8d 85 60 ec ff ff 	lea    -0x13a0(%rbp),%rax
   1473f:	48 83 c0 18          	add    $0x18,%rax
   14743:	48 89 85 c0 ed ff ff 	mov    %rax,-0x1240(%rbp)
   1474a:	48 8d 85 60 ec ff ff 	lea    -0x13a0(%rbp),%rax
   14751:	48 83 c0 18          	add    $0x18,%rax
   14755:	48 89 85 c8 ed ff ff 	mov    %rax,-0x1238(%rbp)
   1475c:	48 8d 85 60 ec ff ff 	lea    -0x13a0(%rbp),%rax
   14763:	48 83 c0 18          	add    $0x18,%rax
   14767:	48 89 85 d0 ed ff ff 	mov    %rax,-0x1230(%rbp)
   1476e:	48 8d 85 60 ec ff ff 	lea    -0x13a0(%rbp),%rax
   14775:	48 83 c0 18          	add    $0x18,%rax
   14779:	48 89 85 d8 ed ff ff 	mov    %rax,-0x1228(%rbp)
   14780:	48 8d 85 60 ec ff ff 	lea    -0x13a0(%rbp),%rax
   14787:	48 83 c0 18          	add    $0x18,%rax
   1478b:	48 89 85 e0 ed ff ff 	mov    %rax,-0x1220(%rbp)
   14792:	48 8d 85 60 ec ff ff 	lea    -0x13a0(%rbp),%rax
   14799:	48 83 c0 10          	add    $0x10,%rax
   1479d:	48 89 85 e8 ed ff ff 	mov    %rax,-0x1218(%rbp)
   147a4:	48 8d 85 60 ec ff ff 	lea    -0x13a0(%rbp),%rax
   147ab:	48 83 c0 10          	add    $0x10,%rax
   147af:	48 89 85 f0 ed ff ff 	mov    %rax,-0x1210(%rbp)
   147b6:	48 8d 85 60 ec ff ff 	lea    -0x13a0(%rbp),%rax
   147bd:	48 83 c0 10          	add    $0x10,%rax
   147c1:	48 89 85 f8 ed ff ff 	mov    %rax,-0x1208(%rbp)
   147c8:	48 8d 85 60 ec ff ff 	lea    -0x13a0(%rbp),%rax
   147cf:	48 83 c0 10          	add    $0x10,%rax
   147d3:	48 89 85 00 ee ff ff 	mov    %rax,-0x1200(%rbp)
   147da:	48 8d 85 60 ec ff ff 	lea    -0x13a0(%rbp),%rax
   147e1:	48 83 c0 10          	add    $0x10,%rax
   147e5:	48 89 85 08 ee ff ff 	mov    %rax,-0x11f8(%rbp)
   147ec:	48 8d 85 60 ec ff ff 	lea    -0x13a0(%rbp),%rax
   147f3:	48 83 c0 10          	add    $0x10,%rax
   147f7:	48 89 85 10 ee ff ff 	mov    %rax,-0x11f0(%rbp)
   147fe:	48 8d 85 60 ec ff ff 	lea    -0x13a0(%rbp),%rax
   14805:	48 83 c0 10          	add    $0x10,%rax
   14809:	48 89 85 18 ee ff ff 	mov    %rax,-0x11e8(%rbp)
   14810:	48 8d 85 60 ec ff ff 	lea    -0x13a0(%rbp),%rax
   14817:	48 83 c0 10          	add    $0x10,%rax
   1481b:	48 89 85 20 ee ff ff 	mov    %rax,-0x11e0(%rbp)
   14822:	48 8d 85 60 ec ff ff 	lea    -0x13a0(%rbp),%rax
   14829:	48 83 c0 10          	add    $0x10,%rax
   1482d:	48 89 85 28 ee ff ff 	mov    %rax,-0x11d8(%rbp)
   14834:	48 8d 85 a0 ed ff ff 	lea    -0x1260(%rbp),%rax
   1483b:	48 83 c0 28          	add    $0x28,%rax
   1483f:	48 89 85 80 e9 ff ff 	mov    %rax,-0x1680(%rbp)
   14846:	c6 85 98 e8 ff ff cb 	movb   $0xcb,-0x1768(%rbp)
   1484d:	c6 85 9b e8 ff ff 04 	movb   $0x4,-0x1765(%rbp)
   14854:	48 b8 8d ef 71 e4 61 	movabs $0xa3034461e471ef8d,%rax
   1485b:	44 03 a3 
   1485e:	48 89 85 88 e9 ff ff 	mov    %rax,-0x1678(%rbp)
   14865:	48 8d 05 14 fa 00 00 	lea    0xfa14(%rip),%rax        # 24280 <g_295>
   1486c:	48 89 85 90 e9 ff ff 	mov    %rax,-0x1670(%rbp)
   14873:	48 8d 85 68 e9 ff ff 	lea    -0x1698(%rbp),%rax
   1487a:	48 89 85 20 ea ff ff 	mov    %rax,-0x15e0(%rbp)
   14881:	48 8d 85 78 e9 ff ff 	lea    -0x1688(%rbp),%rax
   14888:	48 89 85 98 e9 ff ff 	mov    %rax,-0x1668(%rbp)
   1488f:	48 8d 85 98 e9 ff ff 	lea    -0x1668(%rbp),%rax
   14896:	48 89 85 90 f4 ff ff 	mov    %rax,-0xb70(%rbp)
   1489d:	48 8d 85 98 e9 ff ff 	lea    -0x1668(%rbp),%rax
   148a4:	48 89 85 98 f4 ff ff 	mov    %rax,-0xb68(%rbp)
   148ab:	48 8d 85 98 e9 ff ff 	lea    -0x1668(%rbp),%rax
   148b2:	48 89 85 a0 f4 ff ff 	mov    %rax,-0xb60(%rbp)
   148b9:	48 8d 85 98 e9 ff ff 	lea    -0x1668(%rbp),%rax
   148c0:	48 89 85 a8 f4 ff ff 	mov    %rax,-0xb58(%rbp)
   148c7:	48 c7 85 b0 f4 ff ff 	movq   $0x0,-0xb50(%rbp)
   148ce:	00 00 00 00 
   148d2:	48 c7 85 b8 f4 ff ff 	movq   $0x0,-0xb48(%rbp)
   148d9:	00 00 00 00 
   148dd:	48 c7 85 c0 f4 ff ff 	movq   $0x0,-0xb40(%rbp)
   148e4:	00 00 00 00 
   148e8:	48 8d 85 98 e9 ff ff 	lea    -0x1668(%rbp),%rax
   148ef:	48 89 85 c8 f4 ff ff 	mov    %rax,-0xb38(%rbp)
   148f6:	48 c7 85 d0 f4 ff ff 	movq   $0x0,-0xb30(%rbp)
   148fd:	00 00 00 00 
   14901:	48 8d 85 98 e9 ff ff 	lea    -0x1668(%rbp),%rax
   14908:	48 89 85 d8 f4 ff ff 	mov    %rax,-0xb28(%rbp)
   1490f:	48 8d 85 98 e9 ff ff 	lea    -0x1668(%rbp),%rax
   14916:	48 89 85 e0 f4 ff ff 	mov    %rax,-0xb20(%rbp)
   1491d:	48 c7 85 e8 f4 ff ff 	movq   $0x0,-0xb18(%rbp)
   14924:	00 00 00 00 
   14928:	48 8d 85 98 e9 ff ff 	lea    -0x1668(%rbp),%rax
   1492f:	48 89 85 f0 f4 ff ff 	mov    %rax,-0xb10(%rbp)
   14936:	48 8d 85 98 e9 ff ff 	lea    -0x1668(%rbp),%rax
   1493d:	48 89 85 f8 f4 ff ff 	mov    %rax,-0xb08(%rbp)
   14944:	48 8d 85 98 e9 ff ff 	lea    -0x1668(%rbp),%rax
   1494b:	48 89 85 00 f5 ff ff 	mov    %rax,-0xb00(%rbp)
   14952:	48 8d 85 98 e9 ff ff 	lea    -0x1668(%rbp),%rax
   14959:	48 89 85 08 f5 ff ff 	mov    %rax,-0xaf8(%rbp)
   14960:	48 8d 85 98 e9 ff ff 	lea    -0x1668(%rbp),%rax
   14967:	48 89 85 10 f5 ff ff 	mov    %rax,-0xaf0(%rbp)
   1496e:	48 c7 85 18 f5 ff ff 	movq   $0x0,-0xae8(%rbp)
   14975:	00 00 00 00 
   14979:	48 8d 85 98 e9 ff ff 	lea    -0x1668(%rbp),%rax
   14980:	48 89 85 20 f5 ff ff 	mov    %rax,-0xae0(%rbp)
   14987:	48 8d 85 98 e9 ff ff 	lea    -0x1668(%rbp),%rax
   1498e:	48 89 85 28 f5 ff ff 	mov    %rax,-0xad8(%rbp)
   14995:	48 8d 85 98 e9 ff ff 	lea    -0x1668(%rbp),%rax
   1499c:	48 89 85 30 f5 ff ff 	mov    %rax,-0xad0(%rbp)
   149a3:	48 8d 85 98 e9 ff ff 	lea    -0x1668(%rbp),%rax
   149aa:	48 89 85 38 f5 ff ff 	mov    %rax,-0xac8(%rbp)
   149b1:	48 8d 85 98 e9 ff ff 	lea    -0x1668(%rbp),%rax
   149b8:	48 89 85 40 f5 ff ff 	mov    %rax,-0xac0(%rbp)
   149bf:	48 8d 85 98 e9 ff ff 	lea    -0x1668(%rbp),%rax
   149c6:	48 89 85 48 f5 ff ff 	mov    %rax,-0xab8(%rbp)
   149cd:	48 c7 85 50 f5 ff ff 	movq   $0x0,-0xab0(%rbp)
   149d4:	00 00 00 00 
   149d8:	48 c7 85 58 f5 ff ff 	movq   $0x0,-0xaa8(%rbp)
   149df:	00 00 00 00 
   149e3:	48 c7 85 60 f5 ff ff 	movq   $0x0,-0xaa0(%rbp)
   149ea:	00 00 00 00 
   149ee:	48 8d 85 98 e9 ff ff 	lea    -0x1668(%rbp),%rax
   149f5:	48 89 85 68 f5 ff ff 	mov    %rax,-0xa98(%rbp)
   149fc:	48 c7 85 70 f5 ff ff 	movq   $0x0,-0xa90(%rbp)
   14a03:	00 00 00 00 
   14a07:	48 8d 85 98 e9 ff ff 	lea    -0x1668(%rbp),%rax
   14a0e:	48 89 85 78 f5 ff ff 	mov    %rax,-0xa88(%rbp)
   14a15:	48 8d 85 98 e9 ff ff 	lea    -0x1668(%rbp),%rax
   14a1c:	48 89 85 80 f5 ff ff 	mov    %rax,-0xa80(%rbp)
   14a23:	48 c7 85 88 f5 ff ff 	movq   $0x0,-0xa78(%rbp)
   14a2a:	00 00 00 00 
   14a2e:	48 8d 85 98 e9 ff ff 	lea    -0x1668(%rbp),%rax
   14a35:	48 89 85 90 f5 ff ff 	mov    %rax,-0xa70(%rbp)
   14a3c:	48 8d 85 98 e9 ff ff 	lea    -0x1668(%rbp),%rax
   14a43:	48 89 85 98 f5 ff ff 	mov    %rax,-0xa68(%rbp)
   14a4a:	48 8d 85 98 e9 ff ff 	lea    -0x1668(%rbp),%rax
   14a51:	48 89 85 a0 f5 ff ff 	mov    %rax,-0xa60(%rbp)
   14a58:	48 8d 85 98 e9 ff ff 	lea    -0x1668(%rbp),%rax
   14a5f:	48 89 85 a8 f5 ff ff 	mov    %rax,-0xa58(%rbp)
   14a66:	48 8d 85 98 e9 ff ff 	lea    -0x1668(%rbp),%rax
   14a6d:	48 89 85 b0 f5 ff ff 	mov    %rax,-0xa50(%rbp)
   14a74:	48 c7 85 b8 f5 ff ff 	movq   $0x0,-0xa48(%rbp)
   14a7b:	00 00 00 00 
   14a7f:	48 8d 85 98 e9 ff ff 	lea    -0x1668(%rbp),%rax
   14a86:	48 89 85 c0 f5 ff ff 	mov    %rax,-0xa40(%rbp)
   14a8d:	48 8d 85 98 e9 ff ff 	lea    -0x1668(%rbp),%rax
   14a94:	48 89 85 c8 f5 ff ff 	mov    %rax,-0xa38(%rbp)
   14a9b:	48 8d 85 98 e9 ff ff 	lea    -0x1668(%rbp),%rax
   14aa2:	48 89 85 d0 f5 ff ff 	mov    %rax,-0xa30(%rbp)
   14aa9:	48 8d 85 98 e9 ff ff 	lea    -0x1668(%rbp),%rax
   14ab0:	48 89 85 d8 f5 ff ff 	mov    %rax,-0xa28(%rbp)
   14ab7:	48 8d 85 98 e9 ff ff 	lea    -0x1668(%rbp),%rax
   14abe:	48 89 85 e0 f5 ff ff 	mov    %rax,-0xa20(%rbp)
   14ac5:	48 8d 85 98 e9 ff ff 	lea    -0x1668(%rbp),%rax
   14acc:	48 89 85 e8 f5 ff ff 	mov    %rax,-0xa18(%rbp)
   14ad3:	48 c7 85 f0 f5 ff ff 	movq   $0x0,-0xa10(%rbp)
   14ada:	00 00 00 00 
   14ade:	48 c7 85 f8 f5 ff ff 	movq   $0x0,-0xa08(%rbp)
   14ae5:	00 00 00 00 
   14ae9:	48 c7 85 00 f6 ff ff 	movq   $0x0,-0xa00(%rbp)
   14af0:	00 00 00 00 
   14af4:	48 8d 85 98 e9 ff ff 	lea    -0x1668(%rbp),%rax
   14afb:	48 89 85 08 f6 ff ff 	mov    %rax,-0x9f8(%rbp)
   14b02:	48 c7 85 10 f6 ff ff 	movq   $0x0,-0x9f0(%rbp)
   14b09:	00 00 00 00 
   14b0d:	48 8d 85 98 e9 ff ff 	lea    -0x1668(%rbp),%rax
   14b14:	48 89 85 18 f6 ff ff 	mov    %rax,-0x9e8(%rbp)
   14b1b:	48 8d 85 98 e9 ff ff 	lea    -0x1668(%rbp),%rax
   14b22:	48 89 85 20 f6 ff ff 	mov    %rax,-0x9e0(%rbp)
   14b29:	48 c7 85 28 f6 ff ff 	movq   $0x0,-0x9d8(%rbp)
   14b30:	00 00 00 00 
   14b34:	48 8d 85 98 e9 ff ff 	lea    -0x1668(%rbp),%rax
   14b3b:	48 89 85 30 f6 ff ff 	mov    %rax,-0x9d0(%rbp)
   14b42:	48 8d 85 98 e9 ff ff 	lea    -0x1668(%rbp),%rax
   14b49:	48 89 85 38 f6 ff ff 	mov    %rax,-0x9c8(%rbp)
   14b50:	48 8d 85 98 e9 ff ff 	lea    -0x1668(%rbp),%rax
   14b57:	48 89 85 40 f6 ff ff 	mov    %rax,-0x9c0(%rbp)
   14b5e:	48 8d 85 98 e9 ff ff 	lea    -0x1668(%rbp),%rax
   14b65:	48 89 85 48 f6 ff ff 	mov    %rax,-0x9b8(%rbp)
   14b6c:	48 8d 85 98 e9 ff ff 	lea    -0x1668(%rbp),%rax
   14b73:	48 89 85 50 f6 ff ff 	mov    %rax,-0x9b0(%rbp)
   14b7a:	48 c7 85 58 f6 ff ff 	movq   $0x0,-0x9a8(%rbp)
   14b81:	00 00 00 00 
   14b85:	48 8d 85 98 e9 ff ff 	lea    -0x1668(%rbp),%rax
   14b8c:	48 89 85 60 f6 ff ff 	mov    %rax,-0x9a0(%rbp)
   14b93:	48 8d 85 98 e9 ff ff 	lea    -0x1668(%rbp),%rax
   14b9a:	48 89 85 68 f6 ff ff 	mov    %rax,-0x998(%rbp)
   14ba1:	48 8d 85 98 e9 ff ff 	lea    -0x1668(%rbp),%rax
   14ba8:	48 89 85 70 f6 ff ff 	mov    %rax,-0x990(%rbp)
   14baf:	48 8d 85 98 e9 ff ff 	lea    -0x1668(%rbp),%rax
   14bb6:	48 89 85 78 f6 ff ff 	mov    %rax,-0x988(%rbp)
   14bbd:	48 8d 85 98 e9 ff ff 	lea    -0x1668(%rbp),%rax
   14bc4:	48 89 85 80 f6 ff ff 	mov    %rax,-0x980(%rbp)
   14bcb:	48 8d 85 98 e9 ff ff 	lea    -0x1668(%rbp),%rax
   14bd2:	48 89 85 88 f6 ff ff 	mov    %rax,-0x978(%rbp)
   14bd9:	48 8d 85 90 f4 ff ff 	lea    -0xb70(%rbp),%rax
   14be0:	48 05 d8 01 00 00    	add    $0x1d8,%rax
   14be6:	48 89 85 a0 e9 ff ff 	mov    %rax,-0x1660(%rbp)
   14bed:	c7 85 e0 e8 ff ff 0f 	movl   $0xaf578d0f,-0x1720(%rbp)
   14bf4:	8d 57 af 
   14bf7:	48 8d 05 aa 1a 01 00 	lea    0x11aaa(%rip),%rax        # 266a8 <g_93>
   14bfe:	48 89 85 f0 e9 ff ff 	mov    %rax,-0x1610(%rbp)
   14c05:	c7 85 40 ec ff ff 61 	movl   $0xf200a161,-0x13c0(%rbp)
   14c0c:	a1 00 f2 
   14c0f:	c7 85 44 ec ff ff 61 	movl   $0xf200a161,-0x13bc(%rbp)
   14c16:	a1 00 f2 
   14c19:	c7 85 48 ec ff ff 61 	movl   $0xf200a161,-0x13b8(%rbp)
   14c20:	a1 00 f2 
   14c23:	c7 85 4c ec ff ff 61 	movl   $0xf200a161,-0x13b4(%rbp)
   14c2a:	a1 00 f2 
   14c2d:	c7 85 50 ec ff ff 61 	movl   $0xf200a161,-0x13b0(%rbp)
   14c34:	a1 00 f2 
   14c37:	c7 85 54 ec ff ff 61 	movl   $0xf200a161,-0x13ac(%rbp)
   14c3e:	a1 00 f2 
   14c41:	c7 85 58 ec ff ff 61 	movl   $0xf200a161,-0x13a8(%rbp)
   14c48:	a1 00 f2 
   14c4b:	c7 85 5c ec ff ff 61 	movl   $0xf200a161,-0x13a4(%rbp)
   14c52:	a1 00 f2 
   14c55:	c6 85 9c e8 ff ff 01 	movb   $0x1,-0x1764(%rbp)
   14c5c:	c7 85 bc e8 ff ff 6c 	movl   $0x3e47bb6c,-0x1744(%rbp)
   14c63:	bb 47 3e 
   14c66:	48 8d 05 2b 3b 01 00 	lea    0x13b2b(%rip),%rax        # 28798 <g_456>
   14c6d:	48 89 85 28 ea ff ff 	mov    %rax,-0x15d8(%rbp)
   14c74:	c7 85 e4 e8 ff ff fb 	movl   $0xfffffffb,-0x171c(%rbp)
   14c7b:	ff ff ff 
   14c7e:	48 8d 05 df f4 00 00 	lea    0xf4df(%rip),%rax        # 24164 <g_109>
   14c85:	48 89 85 30 ea ff ff 	mov    %rax,-0x15d0(%rbp)
   14c8c:	c7 85 00 ec ff ff b9 	movl   $0xf2a319b9,-0x1400(%rbp)
   14c93:	19 a3 f2 
   14c96:	c7 85 04 ec ff ff b9 	movl   $0xf2a319b9,-0x13fc(%rbp)
   14c9d:	19 a3 f2 
   14ca0:	c7 85 08 ec ff ff 6d 	movl   $0x2b2046d,-0x13f8(%rbp)
   14ca7:	04 b2 02 
   14caa:	c7 85 0c ec ff ff b9 	movl   $0xf2a319b9,-0x13f4(%rbp)
   14cb1:	19 a3 f2 
   14cb4:	c7 85 10 ec ff ff b9 	movl   $0xf2a319b9,-0x13f0(%rbp)
   14cbb:	19 a3 f2 
   14cbe:	c7 85 14 ec ff ff 6d 	movl   $0x2b2046d,-0x13ec(%rbp)
   14cc5:	04 b2 02 
   14cc8:	48 8d 85 10 f3 ff ff 	lea    -0xcf0(%rbp),%rax
   14ccf:	48 8d 15 ca 0f 01 00 	lea    0x10fca(%rip),%rdx        # 25ca0 <g_4540+0xe40>
   14cd6:	b9 30 00 00 00       	mov    $0x30,%ecx
   14cdb:	48 89 c7             	mov    %rax,%rdi
   14cde:	48 89 d6             	mov    %rdx,%rsi
   14ce1:	f3 48 a5             	rep movsq %ds:(%rsi),%es:(%rdi)
   14ce4:	48 8d 85 10 f3 ff ff 	lea    -0xcf0(%rbp),%rax
   14ceb:	48 05 e8 00 00 00    	add    $0xe8,%rax
   14cf1:	48 89 85 38 ea ff ff 	mov    %rax,-0x15c8(%rbp)
   14cf8:	c7 85 c0 e8 ff ff 00 	movl   $0x0,-0x1740(%rbp)
   14cff:	00 00 00 
   14d02:	eb 1a                	jmp    14d1e <func_60+0xa8e>
   14d04:	8b 85 c0 e8 ff ff    	mov    -0x1740(%rbp),%eax
   14d0a:	48 98                	cltq   
   14d0c:	c7 84 85 20 ec ff ff 	movl   $0x4d090545,-0x13e0(%rbp,%rax,4)
   14d13:	45 05 09 4d 
   14d17:	83 85 c0 e8 ff ff 01 	addl   $0x1,-0x1740(%rbp)
   14d1e:	83 bd c0 e8 ff ff 06 	cmpl   $0x6,-0x1740(%rbp)
   14d25:	7e dd                	jle    14d04 <func_60+0xa74>
   14d27:	c7 85 c0 e8 ff ff 00 	movl   $0x0,-0x1740(%rbp)
   14d2e:	00 00 00 
   14d31:	eb 1e                	jmp    14d51 <func_60+0xac1>
   14d33:	8b 85 c0 e8 ff ff    	mov    -0x1740(%rbp),%eax
   14d39:	48 98                	cltq   
   14d3b:	48 8d 15 1e f5 00 00 	lea    0xf51e(%rip),%rdx        # 24260 <g_152+0x10>
   14d42:	48 89 94 c5 60 ec ff 	mov    %rdx,-0x13a0(%rbp,%rax,8)
   14d49:	ff 
   14d4a:	83 85 c0 e8 ff ff 01 	addl   $0x1,-0x1740(%rbp)
   14d51:	83 bd c0 e8 ff ff 04 	cmpl   $0x4,-0x1740(%rbp)
   14d58:	7e d9                	jle    14d33 <func_60+0xaa3>
   14d5a:	90                   	nop
   14d5b:	48 c7 05 82 f5 00 00 	movq   $0x0,0xf582(%rip)        # 242e8 <g_607>
   14d62:	00 00 00 00 
   14d66:	e9 cc 09 00 00       	jmpq   15737 <func_60+0x14a7>
   14d6b:	66 c7 85 aa e8 ff ff 	movw   $0x744e,-0x1756(%rbp)
   14d72:	4e 74 
   14d74:	48 8d 05 2f f4 00 00 	lea    0xf42f(%rip),%rax        # 241aa <g_142+0x2a>
   14d7b:	48 89 85 58 eb ff ff 	mov    %rax,-0x14a8(%rbp)
   14d82:	48 c7 85 60 eb ff ff 	movq   $0x0,-0x14a0(%rbp)
   14d89:	00 00 00 00 
   14d8d:	48 8d 05 3c f5 00 00 	lea    0xf53c(%rip),%rax        # 242d0 <g_513>
   14d94:	48 89 85 68 eb ff ff 	mov    %rax,-0x1498(%rbp)
   14d9b:	48 c7 85 70 eb ff ff 	movq   $0x0,-0x1490(%rbp)
   14da2:	00 00 00 00 
   14da6:	c7 85 44 e9 ff ff 93 	movl   $0x18016193,-0x16bc(%rbp)
   14dad:	61 01 18 
   14db0:	48 8d 85 40 fb ff ff 	lea    -0x4c0(%rbp),%rax
   14db7:	48 8d 15 62 10 01 00 	lea    0x11062(%rip),%rdx        # 25e20 <g_4540+0xfc0>
   14dbe:	b9 93 00 00 00       	mov    $0x93,%ecx
   14dc3:	48 89 c7             	mov    %rax,%rdi
   14dc6:	48 89 d6             	mov    %rdx,%rsi
   14dc9:	f3 48 a5             	rep movsq %ds:(%rsi),%es:(%rdi)
   14dcc:	c7 85 48 e9 ff ff 59 	movl   $0x8807ed59,-0x16b8(%rbp)
   14dd3:	ed 07 88 
   14dd6:	c6 85 9e e8 ff ff 6b 	movb   $0x6b,-0x1762(%rbp)
   14ddd:	c7 85 4c e9 ff ff 01 	movl   $0x1,-0x16b4(%rbp)
   14de4:	00 00 00 
   14de7:	c7 85 50 e9 ff ff f8 	movl   $0xfffffff8,-0x16b0(%rbp)
   14dee:	ff ff ff 
   14df1:	c7 85 54 e9 ff ff ac 	movl   $0x240ba4ac,-0x16ac(%rbp)
   14df8:	a4 0b 24 
   14dfb:	c7 85 58 e9 ff ff 01 	movl   $0x1,-0x16a8(%rbp)
   14e02:	00 00 00 
   14e05:	48 8d 05 74 f4 00 00 	lea    0xf474(%rip),%rax        # 24280 <g_295>
   14e0c:	48 89 85 d0 e9 ff ff 	mov    %rax,-0x1630(%rbp)
   14e13:	48 8d 85 d0 e9 ff ff 	lea    -0x1630(%rbp),%rax
   14e1a:	48 89 85 78 eb ff ff 	mov    %rax,-0x1488(%rbp)
   14e21:	c6 85 9f e8 ff ff 6b 	movb   $0x6b,-0x1761(%rbp)
   14e28:	c7 85 c4 e8 ff ff 00 	movl   $0x0,-0x173c(%rbp)
   14e2f:	00 00 00 
   14e32:	eb 1a                	jmp    14e4e <func_60+0xbbe>
   14e34:	8b 85 c4 e8 ff ff    	mov    -0x173c(%rbp),%eax
   14e3a:	48 98                	cltq   
   14e3c:	c7 84 85 f0 f1 ff ff 	movl   $0x2,-0xe10(%rbp,%rax,4)
   14e43:	02 00 00 00 
   14e47:	83 85 c4 e8 ff ff 01 	addl   $0x1,-0x173c(%rbp)
   14e4e:	83 bd c4 e8 ff ff 01 	cmpl   $0x1,-0x173c(%rbp)
   14e55:	7e dd                	jle    14e34 <func_60+0xba4>
   14e57:	0f b7 85 aa e8 ff ff 	movzwl -0x1756(%rbp),%eax
   14e5e:	83 e8 01             	sub    $0x1,%eax
   14e61:	66 89 85 aa e8 ff ff 	mov    %ax,-0x1756(%rbp)
   14e68:	48 8b 85 68 e9 ff ff 	mov    -0x1698(%rbp),%rax
   14e6f:	48 39 85 58 eb ff ff 	cmp    %rax,-0x14a8(%rbp)
   14e76:	0f 94 c0             	sete   %al
   14e79:	0f b6 c0             	movzbl %al,%eax
   14e7c:	89 85 28 ec ff ff    	mov    %eax,-0x13d8(%rbp)
   14e82:	48 c7 05 43 f4 00 00 	movq   $0x2,0xf443(%rip)        # 242d0 <g_513>
   14e89:	02 00 00 00 
   14e8d:	e9 74 08 00 00       	jmpq   15706 <func_60+0x1476>
   14e92:	48 8d 05 cf f2 00 00 	lea    0xf2cf(%rip),%rax        # 24168 <g_126>
   14e99:	48 89 85 80 eb ff ff 	mov    %rax,-0x1480(%rbp)
   14ea0:	48 8d 05 51 18 01 00 	lea    0x11851(%rip),%rax        # 266f8 <g_635>
   14ea7:	48 89 85 d8 e9 ff ff 	mov    %rax,-0x1628(%rbp)
   14eae:	48 8d 85 d8 e9 ff ff 	lea    -0x1628(%rbp),%rax
   14eb5:	48 89 85 c0 f8 ff ff 	mov    %rax,-0x740(%rbp)
   14ebc:	48 8d 85 d8 e9 ff ff 	lea    -0x1628(%rbp),%rax
   14ec3:	48 89 85 c8 f8 ff ff 	mov    %rax,-0x738(%rbp)
   14eca:	48 8d 85 d8 e9 ff ff 	lea    -0x1628(%rbp),%rax
   14ed1:	48 89 85 d0 f8 ff ff 	mov    %rax,-0x730(%rbp)
   14ed8:	48 8d 85 d8 e9 ff ff 	lea    -0x1628(%rbp),%rax
   14edf:	48 89 85 d8 f8 ff ff 	mov    %rax,-0x728(%rbp)
   14ee6:	48 8d 85 d8 e9 ff ff 	lea    -0x1628(%rbp),%rax
   14eed:	48 89 85 e0 f8 ff ff 	mov    %rax,-0x720(%rbp)
   14ef4:	48 8d 85 d8 e9 ff ff 	lea    -0x1628(%rbp),%rax
   14efb:	48 89 85 e8 f8 ff ff 	mov    %rax,-0x718(%rbp)
   14f02:	48 8d 85 d8 e9 ff ff 	lea    -0x1628(%rbp),%rax
   14f09:	48 89 85 f0 f8 ff ff 	mov    %rax,-0x710(%rbp)
   14f10:	48 8d 85 d8 e9 ff ff 	lea    -0x1628(%rbp),%rax
   14f17:	48 89 85 f8 f8 ff ff 	mov    %rax,-0x708(%rbp)
   14f1e:	48 8d 85 d8 e9 ff ff 	lea    -0x1628(%rbp),%rax
   14f25:	48 89 85 00 f9 ff ff 	mov    %rax,-0x700(%rbp)
   14f2c:	48 8d 85 d8 e9 ff ff 	lea    -0x1628(%rbp),%rax
   14f33:	48 89 85 08 f9 ff ff 	mov    %rax,-0x6f8(%rbp)
   14f3a:	48 8d 85 d8 e9 ff ff 	lea    -0x1628(%rbp),%rax
   14f41:	48 89 85 10 f9 ff ff 	mov    %rax,-0x6f0(%rbp)
   14f48:	48 8d 85 d8 e9 ff ff 	lea    -0x1628(%rbp),%rax
   14f4f:	48 89 85 18 f9 ff ff 	mov    %rax,-0x6e8(%rbp)
   14f56:	48 8d 85 d8 e9 ff ff 	lea    -0x1628(%rbp),%rax
   14f5d:	48 89 85 20 f9 ff ff 	mov    %rax,-0x6e0(%rbp)
   14f64:	48 8d 85 d8 e9 ff ff 	lea    -0x1628(%rbp),%rax
   14f6b:	48 89 85 28 f9 ff ff 	mov    %rax,-0x6d8(%rbp)
   14f72:	48 8d 85 d8 e9 ff ff 	lea    -0x1628(%rbp),%rax
   14f79:	48 89 85 30 f9 ff ff 	mov    %rax,-0x6d0(%rbp)
   14f80:	48 8d 85 d8 e9 ff ff 	lea    -0x1628(%rbp),%rax
   14f87:	48 89 85 38 f9 ff ff 	mov    %rax,-0x6c8(%rbp)
   14f8e:	48 8d 85 d8 e9 ff ff 	lea    -0x1628(%rbp),%rax
   14f95:	48 89 85 40 f9 ff ff 	mov    %rax,-0x6c0(%rbp)
   14f9c:	48 8d 85 d8 e9 ff ff 	lea    -0x1628(%rbp),%rax
   14fa3:	48 89 85 48 f9 ff ff 	mov    %rax,-0x6b8(%rbp)
   14faa:	48 8d 85 d8 e9 ff ff 	lea    -0x1628(%rbp),%rax
   14fb1:	48 89 85 50 f9 ff ff 	mov    %rax,-0x6b0(%rbp)
   14fb8:	48 8d 85 d8 e9 ff ff 	lea    -0x1628(%rbp),%rax
   14fbf:	48 89 85 58 f9 ff ff 	mov    %rax,-0x6a8(%rbp)
   14fc6:	48 8d 85 d8 e9 ff ff 	lea    -0x1628(%rbp),%rax
   14fcd:	48 89 85 60 f9 ff ff 	mov    %rax,-0x6a0(%rbp)
   14fd4:	48 8d 85 d8 e9 ff ff 	lea    -0x1628(%rbp),%rax
   14fdb:	48 89 85 68 f9 ff ff 	mov    %rax,-0x698(%rbp)
   14fe2:	48 8d 85 d8 e9 ff ff 	lea    -0x1628(%rbp),%rax
   14fe9:	48 89 85 70 f9 ff ff 	mov    %rax,-0x690(%rbp)
   14ff0:	48 8d 85 d8 e9 ff ff 	lea    -0x1628(%rbp),%rax
   14ff7:	48 89 85 78 f9 ff ff 	mov    %rax,-0x688(%rbp)
   14ffe:	48 8d 85 d8 e9 ff ff 	lea    -0x1628(%rbp),%rax
   15005:	48 89 85 80 f9 ff ff 	mov    %rax,-0x680(%rbp)
   1500c:	48 8d 85 d8 e9 ff ff 	lea    -0x1628(%rbp),%rax
   15013:	48 89 85 88 f9 ff ff 	mov    %rax,-0x678(%rbp)
   1501a:	48 8d 85 d8 e9 ff ff 	lea    -0x1628(%rbp),%rax
   15021:	48 89 85 90 f9 ff ff 	mov    %rax,-0x670(%rbp)
   15028:	48 8d 85 d8 e9 ff ff 	lea    -0x1628(%rbp),%rax
   1502f:	48 89 85 98 f9 ff ff 	mov    %rax,-0x668(%rbp)
   15036:	48 8d 85 d8 e9 ff ff 	lea    -0x1628(%rbp),%rax
   1503d:	48 89 85 a0 f9 ff ff 	mov    %rax,-0x660(%rbp)
   15044:	48 8d 85 d8 e9 ff ff 	lea    -0x1628(%rbp),%rax
   1504b:	48 89 85 a8 f9 ff ff 	mov    %rax,-0x658(%rbp)
   15052:	48 8d 85 d8 e9 ff ff 	lea    -0x1628(%rbp),%rax
   15059:	48 89 85 b0 f9 ff ff 	mov    %rax,-0x650(%rbp)
   15060:	48 8d 85 d8 e9 ff ff 	lea    -0x1628(%rbp),%rax
   15067:	48 89 85 b8 f9 ff ff 	mov    %rax,-0x648(%rbp)
   1506e:	48 8d 85 d8 e9 ff ff 	lea    -0x1628(%rbp),%rax
   15075:	48 89 85 c0 f9 ff ff 	mov    %rax,-0x640(%rbp)
   1507c:	48 8d 85 d8 e9 ff ff 	lea    -0x1628(%rbp),%rax
   15083:	48 89 85 c8 f9 ff ff 	mov    %rax,-0x638(%rbp)
   1508a:	48 8d 85 d8 e9 ff ff 	lea    -0x1628(%rbp),%rax
   15091:	48 89 85 d0 f9 ff ff 	mov    %rax,-0x630(%rbp)
   15098:	48 8d 85 d8 e9 ff ff 	lea    -0x1628(%rbp),%rax
   1509f:	48 89 85 d8 f9 ff ff 	mov    %rax,-0x628(%rbp)
   150a6:	48 8d 85 d8 e9 ff ff 	lea    -0x1628(%rbp),%rax
   150ad:	48 89 85 e0 f9 ff ff 	mov    %rax,-0x620(%rbp)
   150b4:	48 8d 85 d8 e9 ff ff 	lea    -0x1628(%rbp),%rax
   150bb:	48 89 85 e8 f9 ff ff 	mov    %rax,-0x618(%rbp)
   150c2:	48 8d 85 d8 e9 ff ff 	lea    -0x1628(%rbp),%rax
   150c9:	48 89 85 f0 f9 ff ff 	mov    %rax,-0x610(%rbp)
   150d0:	48 8d 85 d8 e9 ff ff 	lea    -0x1628(%rbp),%rax
   150d7:	48 89 85 f8 f9 ff ff 	mov    %rax,-0x608(%rbp)
   150de:	48 8d 85 d8 e9 ff ff 	lea    -0x1628(%rbp),%rax
   150e5:	48 89 85 00 fa ff ff 	mov    %rax,-0x600(%rbp)
   150ec:	48 8d 85 d8 e9 ff ff 	lea    -0x1628(%rbp),%rax
   150f3:	48 89 85 08 fa ff ff 	mov    %rax,-0x5f8(%rbp)
   150fa:	48 8d 85 d8 e9 ff ff 	lea    -0x1628(%rbp),%rax
   15101:	48 89 85 10 fa ff ff 	mov    %rax,-0x5f0(%rbp)
   15108:	48 8d 85 d8 e9 ff ff 	lea    -0x1628(%rbp),%rax
   1510f:	48 89 85 18 fa ff ff 	mov    %rax,-0x5e8(%rbp)
   15116:	48 8d 85 d8 e9 ff ff 	lea    -0x1628(%rbp),%rax
   1511d:	48 89 85 20 fa ff ff 	mov    %rax,-0x5e0(%rbp)
   15124:	48 8d 85 d8 e9 ff ff 	lea    -0x1628(%rbp),%rax
   1512b:	48 89 85 28 fa ff ff 	mov    %rax,-0x5d8(%rbp)
   15132:	48 8d 85 d8 e9 ff ff 	lea    -0x1628(%rbp),%rax
   15139:	48 89 85 30 fa ff ff 	mov    %rax,-0x5d0(%rbp)
   15140:	48 8d 85 d8 e9 ff ff 	lea    -0x1628(%rbp),%rax
   15147:	48 89 85 38 fa ff ff 	mov    %rax,-0x5c8(%rbp)
   1514e:	48 8d 85 d8 e9 ff ff 	lea    -0x1628(%rbp),%rax
   15155:	48 89 85 40 fa ff ff 	mov    %rax,-0x5c0(%rbp)
   1515c:	48 8d 85 d8 e9 ff ff 	lea    -0x1628(%rbp),%rax
   15163:	48 89 85 48 fa ff ff 	mov    %rax,-0x5b8(%rbp)
   1516a:	48 8d 85 d8 e9 ff ff 	lea    -0x1628(%rbp),%rax
   15171:	48 89 85 50 fa ff ff 	mov    %rax,-0x5b0(%rbp)
   15178:	48 8d 85 d8 e9 ff ff 	lea    -0x1628(%rbp),%rax
   1517f:	48 89 85 58 fa ff ff 	mov    %rax,-0x5a8(%rbp)
   15186:	48 8d 85 d8 e9 ff ff 	lea    -0x1628(%rbp),%rax
   1518d:	48 89 85 60 fa ff ff 	mov    %rax,-0x5a0(%rbp)
   15194:	48 8d 85 d8 e9 ff ff 	lea    -0x1628(%rbp),%rax
   1519b:	48 89 85 68 fa ff ff 	mov    %rax,-0x598(%rbp)
   151a2:	48 8d 85 d8 e9 ff ff 	lea    -0x1628(%rbp),%rax
   151a9:	48 89 85 70 fa ff ff 	mov    %rax,-0x590(%rbp)
   151b0:	48 8d 85 d8 e9 ff ff 	lea    -0x1628(%rbp),%rax
   151b7:	48 89 85 78 fa ff ff 	mov    %rax,-0x588(%rbp)
   151be:	48 8d 85 d8 e9 ff ff 	lea    -0x1628(%rbp),%rax
   151c5:	48 89 85 80 fa ff ff 	mov    %rax,-0x580(%rbp)
   151cc:	48 8d 85 d8 e9 ff ff 	lea    -0x1628(%rbp),%rax
   151d3:	48 89 85 88 fa ff ff 	mov    %rax,-0x578(%rbp)
   151da:	48 8d 85 d8 e9 ff ff 	lea    -0x1628(%rbp),%rax
   151e1:	48 89 85 90 fa ff ff 	mov    %rax,-0x570(%rbp)
   151e8:	48 8d 85 d8 e9 ff ff 	lea    -0x1628(%rbp),%rax
   151ef:	48 89 85 98 fa ff ff 	mov    %rax,-0x568(%rbp)
   151f6:	48 8d 85 d8 e9 ff ff 	lea    -0x1628(%rbp),%rax
   151fd:	48 89 85 a0 fa ff ff 	mov    %rax,-0x560(%rbp)
   15204:	48 8d 85 d8 e9 ff ff 	lea    -0x1628(%rbp),%rax
   1520b:	48 89 85 a8 fa ff ff 	mov    %rax,-0x558(%rbp)
   15212:	48 8d 85 d8 e9 ff ff 	lea    -0x1628(%rbp),%rax
   15219:	48 89 85 b0 fa ff ff 	mov    %rax,-0x550(%rbp)
   15220:	48 8d 85 d8 e9 ff ff 	lea    -0x1628(%rbp),%rax
   15227:	48 89 85 b8 fa ff ff 	mov    %rax,-0x548(%rbp)
   1522e:	48 8d 85 d8 e9 ff ff 	lea    -0x1628(%rbp),%rax
   15235:	48 89 85 c0 fa ff ff 	mov    %rax,-0x540(%rbp)
   1523c:	48 8d 85 d8 e9 ff ff 	lea    -0x1628(%rbp),%rax
   15243:	48 89 85 c8 fa ff ff 	mov    %rax,-0x538(%rbp)
   1524a:	48 8d 85 d8 e9 ff ff 	lea    -0x1628(%rbp),%rax
   15251:	48 89 85 d0 fa ff ff 	mov    %rax,-0x530(%rbp)
   15258:	48 8d 85 d8 e9 ff ff 	lea    -0x1628(%rbp),%rax
   1525f:	48 89 85 d8 fa ff ff 	mov    %rax,-0x528(%rbp)
   15266:	48 8d 85 d8 e9 ff ff 	lea    -0x1628(%rbp),%rax
   1526d:	48 89 85 e0 fa ff ff 	mov    %rax,-0x520(%rbp)
   15274:	48 8d 85 d8 e9 ff ff 	lea    -0x1628(%rbp),%rax
   1527b:	48 89 85 e8 fa ff ff 	mov    %rax,-0x518(%rbp)
   15282:	48 8d 85 c0 f8 ff ff 	lea    -0x740(%rbp),%rax
   15289:	48 05 c0 00 00 00    	add    $0xc0,%rax
   1528f:	48 89 85 90 f6 ff ff 	mov    %rax,-0x970(%rbp)
   15296:	48 8d 85 c0 f8 ff ff 	lea    -0x740(%rbp),%rax
   1529d:	48 05 c0 00 00 00    	add    $0xc0,%rax
   152a3:	48 89 85 98 f6 ff ff 	mov    %rax,-0x968(%rbp)
   152aa:	48 8d 85 c0 f8 ff ff 	lea    -0x740(%rbp),%rax
   152b1:	48 05 c0 00 00 00    	add    $0xc0,%rax
   152b7:	48 89 85 a0 f6 ff ff 	mov    %rax,-0x960(%rbp)
   152be:	48 8d 85 c0 f8 ff ff 	lea    -0x740(%rbp),%rax
   152c5:	48 05 c0 00 00 00    	add    $0xc0,%rax
   152cb:	48 89 85 a8 f6 ff ff 	mov    %rax,-0x958(%rbp)
   152d2:	48 8d 85 c0 f8 ff ff 	lea    -0x740(%rbp),%rax
   152d9:	48 05 c0 00 00 00    	add    $0xc0,%rax
   152df:	48 89 85 b0 f6 ff ff 	mov    %rax,-0x950(%rbp)
   152e6:	48 8d 85 c0 f8 ff ff 	lea    -0x740(%rbp),%rax
   152ed:	48 05 c0 00 00 00    	add    $0xc0,%rax
   152f3:	48 89 85 b8 f6 ff ff 	mov    %rax,-0x948(%rbp)
   152fa:	c7 85 5c e9 ff ff a2 	movl   $0x5d8b18a2,-0x16a4(%rbp)
   15301:	18 8b 5d 
   15304:	48 c7 85 e0 e9 ff ff 	movq   $0x0,-0x1620(%rbp)
   1530b:	00 00 00 00 
   1530f:	48 8d 85 e0 e9 ff ff 	lea    -0x1620(%rbp),%rax
   15316:	48 89 85 88 eb ff ff 	mov    %rax,-0x1478(%rbp)
   1531d:	8b 85 50 f1 ff ff    	mov    -0xeb0(%rbp),%eax
   15323:	83 e8 01             	sub    $0x1,%eax
   15326:	89 85 50 f1 ff ff    	mov    %eax,-0xeb0(%rbp)
   1532c:	c6 05 2d ee 00 00 11 	movb   $0x11,0xee2d(%rip)        # 24160 <g_104>
   15333:	e9 a1 03 00 00       	jmpq   156d9 <func_60+0x1449>
   15338:	c6 85 9a e8 ff ff ff 	movb   $0xff,-0x1766(%rbp)
   1533f:	48 8d 05 22 ee 00 00 	lea    0xee22(%rip),%rax        # 24168 <g_126>
   15346:	48 89 85 e8 e9 ff ff 	mov    %rax,-0x1618(%rbp)
   1534d:	48 8d 05 24 ef 00 00 	lea    0xef24(%rip),%rax        # 24278 <g_206>
   15354:	48 89 85 90 eb ff ff 	mov    %rax,-0x1470(%rbp)
   1535b:	0f b6 95 9a e8 ff ff 	movzbl -0x1766(%rbp),%edx
   15362:	0f b7 85 aa e8 ff ff 	movzwl -0x1756(%rbp),%eax
   15369:	48 89 d6             	mov    %rdx,%rsi
   1536c:	48 89 c7             	mov    %rax,%rdi
   1536f:	e8 40 46 ff ff       	callq  99b4 <safe_mod_func_int64_t_s_s>
   15374:	48 85 c0             	test   %rax,%rax
   15377:	0f 84 a1 02 00 00    	je     1561e <func_60+0x138e>
   1537d:	48 8d 05 dc ee 00 00 	lea    0xeedc(%rip),%rax        # 24260 <g_152+0x10>
   15384:	48 89 85 a0 eb ff ff 	mov    %rax,-0x1460(%rbp)
   1538b:	48 8d 85 70 e9 ff ff 	lea    -0x1690(%rbp),%rax
   15392:	48 89 85 a8 eb ff ff 	mov    %rax,-0x1458(%rbp)
   15399:	48 8d 05 e8 33 01 00 	lea    0x133e8(%rip),%rax        # 28788 <g_321>
   153a0:	48 89 85 b0 eb ff ff 	mov    %rax,-0x1450(%rbp)
   153a7:	c7 85 60 e9 ff ff 4e 	movl   $0xef8c594e,-0x16a0(%rbp)
   153ae:	59 8c ef 
   153b1:	48 c7 85 b8 eb ff ff 	movq   $0x0,-0x1448(%rbp)
   153b8:	00 00 00 00 
   153bc:	48 8d 05 16 ef 00 00 	lea    0xef16(%rip),%rax        # 242d9 <g_539+0x1>
   153c3:	48 89 85 c0 eb ff ff 	mov    %rax,-0x1440(%rbp)
   153ca:	48 83 bd a0 eb ff ff 	cmpq   $0x0,-0x1460(%rbp)
   153d1:	00 
   153d2:	75 4b                	jne    1541f <func_60+0x118f>
   153d4:	48 8b 95 70 e9 ff ff 	mov    -0x1690(%rbp),%rdx
   153db:	48 8b 85 a8 eb ff ff 	mov    -0x1458(%rbp),%rax
   153e2:	48 89 10             	mov    %rdx,(%rax)
   153e5:	48 8b 85 a8 eb ff ff 	mov    -0x1458(%rbp),%rax
   153ec:	48 8b 10             	mov    (%rax),%rdx
   153ef:	48 8b 05 1a 13 01 00 	mov    0x1131a(%rip),%rax        # 26710 <g_632>
   153f6:	48 39 c2             	cmp    %rax,%rdx
   153f9:	48 8b 05 00 13 01 00 	mov    0x11300(%rip),%rax        # 26700 <g_634>
   15400:	48 8b 00             	mov    (%rax),%rax
   15403:	0f b6 00             	movzbl (%rax),%eax
   15406:	30 85 99 e8 ff ff    	xor    %al,-0x1767(%rbp)
   1540c:	0f b6 85 99 e8 ff ff 	movzbl -0x1767(%rbp),%eax
   15413:	be 02 00 00 00       	mov    $0x2,%esi
   15418:	89 c7                	mov    %eax,%edi
   1541a:	e8 e6 47 ff ff       	callq  9c05 <safe_lshift_func_uint8_t_u_s>
   1541f:	0f b6 9d 9a e8 ff ff 	movzbl -0x1766(%rbp),%ebx
   15426:	0f b6 85 9a e8 ff ff 	movzbl -0x1766(%rbp),%eax
   1542d:	be 00 00 00 00       	mov    $0x0,%esi
   15432:	89 c7                	mov    %eax,%edi
   15434:	e8 13 48 ff ff       	callq  9c4c <safe_lshift_func_uint8_t_u_u>
   15439:	0f b6 c0             	movzbl %al,%eax
   1543c:	89 de                	mov    %ebx,%esi
   1543e:	89 c7                	mov    %eax,%edi
   15440:	e8 ba 42 ff ff       	callq  96ff <safe_div_func_int32_t_s_s>
   15445:	48 8d 05 3c 33 01 00 	lea    0x1333c(%rip),%rax        # 28788 <g_321>
   1544c:	48 39 85 b0 eb ff ff 	cmp    %rax,-0x1450(%rbp)
   15453:	0f 94 c0             	sete   %al
   15456:	0f b6 c0             	movzbl %al,%eax
   15459:	89 85 60 e9 ff ff    	mov    %eax,-0x16a0(%rbp)
   1545f:	c7 85 5c e9 ff ff 01 	movl   $0x1,-0x16a4(%rbp)
   15466:	00 00 00 
   15469:	48 8b 85 e8 e9 ff ff 	mov    -0x1618(%rbp),%rax
   15470:	48 39 85 80 eb ff ff 	cmp    %rax,-0x1480(%rbp)
   15477:	0f 94 c2             	sete   %dl
   1547a:	48 8b 85 a8 f6 ff ff 	mov    -0x958(%rbp),%rax
   15481:	48 85 c0             	test   %rax,%rax
   15484:	0f 94 c0             	sete   %al
   15487:	21 d0                	and    %edx,%eax
   15489:	89 c2                	mov    %eax,%edx
   1548b:	48 8b 85 c0 eb ff ff 	mov    -0x1440(%rbp),%rax
   15492:	88 10                	mov    %dl,(%rax)
   15494:	48 8b 85 c0 eb ff ff 	mov    -0x1440(%rbp),%rax
   1549b:	0f b6 00             	movzbl (%rax),%eax
   1549e:	0f be c0             	movsbl %al,%eax
   154a1:	be 01 00 00 00       	mov    $0x1,%esi
   154a6:	89 c7                	mov    %eax,%edi
   154a8:	e8 65 3d ff ff       	callq  9212 <safe_mul_func_int8_t_s_s>
   154ad:	44 0f be e0          	movsbl %al,%r12d
   154b1:	48 8b 05 38 12 01 00 	mov    0x11238(%rip),%rax        # 266f0 <g_571>
   154b8:	8b 00                	mov    (%rax),%eax
   154ba:	48 8b 95 88 e8 ff ff 	mov    -0x1778(%rbp),%rdx
   154c1:	89 c6                	mov    %eax,%esi
   154c3:	89 d7                	mov    %edx,%edi
   154c5:	e8 ec 40 ff ff       	callq  95b6 <safe_add_func_int32_t_s_s>
   154ca:	89 c3                	mov    %eax,%ebx
   154cc:	48 8b 85 88 e8 ff ff 	mov    -0x1778(%rbp),%rax
   154d3:	0f be d0             	movsbl %al,%edx
   154d6:	0f b6 85 9a e8 ff ff 	movzbl -0x1766(%rbp),%eax
   154dd:	0f be c0             	movsbl %al,%eax
   154e0:	89 d6                	mov    %edx,%esi
   154e2:	89 c7                	mov    %eax,%edi
   154e4:	e8 48 3d ff ff       	callq  9231 <safe_mod_func_int8_t_s_s>
   154e9:	0f be c0             	movsbl %al,%eax
   154ec:	39 c3                	cmp    %eax,%ebx
   154ee:	0f 9c c0             	setl   %al
   154f1:	0f b6 c0             	movzbl %al,%eax
   154f4:	41 39 c4             	cmp    %eax,%r12d
   154f7:	0f 8e 0e 01 00 00    	jle    1560b <func_60+0x137b>
   154fd:	c7 85 64 e9 ff ff 00 	movl   $0x0,-0x169c(%rbp)
   15504:	00 00 00 
   15507:	48 bf 47 18 b9 52 06 	movabs $0x6142730652b91847,%rdi
   1550e:	73 42 61 
   15511:	e8 03 4b ff ff       	callq  a019 <safe_unary_minus_func_uint64_t_u>
   15516:	48 89 c3             	mov    %rax,%rbx
   15519:	48 8d 85 e8 e9 ff ff 	lea    -0x1618(%rbp),%rax
   15520:	48 39 85 60 eb ff ff 	cmp    %rax,-0x14a0(%rbp)
   15527:	0f 94 c0             	sete   %al
   1552a:	0f b6 c0             	movzbl %al,%eax
   1552d:	0b 85 64 e9 ff ff    	or     -0x169c(%rbp),%eax
   15533:	89 c6                	mov    %eax,%esi
   15535:	bf ff ff ff ff       	mov    $0xffffffff,%edi
   1553a:	e8 53 3f ff ff       	callq  9492 <safe_lshift_func_int16_t_s_s>
   1553f:	48 0f bf d0          	movswq %ax,%rdx
   15543:	48 8b 85 88 e8 ff ff 	mov    -0x1778(%rbp),%rax
   1554a:	48 89 d6             	mov    %rdx,%rsi
   1554d:	48 89 c7             	mov    %rax,%rdi
   15550:	e8 d9 4a ff ff       	callq  a02e <safe_add_func_uint64_t_u_u>
   15555:	48 39 c3             	cmp    %rax,%rbx
   15558:	0f 92 c0             	setb   %al
   1555b:	44 0f b6 e0          	movzbl %al,%r12d
   1555f:	48 8b 9d 88 e8 ff ff 	mov    -0x1778(%rbp),%rbx
   15566:	48 83 bd 68 eb ff ff 	cmpq   $0x0,-0x1498(%rbp)
   1556d:	00 
   1556e:	0f 95 c0             	setne  %al
   15571:	0f b6 c0             	movzbl %al,%eax
   15574:	48 0b 85 88 e8 ff ff 	or     -0x1778(%rbp),%rax
   1557b:	48 85 c0             	test   %rax,%rax
   1557e:	74 1b                	je     1559b <func_60+0x130b>
   15580:	48 8b 05 81 11 01 00 	mov    0x11181(%rip),%rax        # 26708 <g_633>
   15587:	48 8b 00             	mov    (%rax),%rax
   1558a:	48 8b 00             	mov    (%rax),%rax
   1558d:	0f b6 00             	movzbl (%rax),%eax
   15590:	84 c0                	test   %al,%al
   15592:	74 07                	je     1559b <func_60+0x130b>
   15594:	b9 01 00 00 00       	mov    $0x1,%ecx
   15599:	eb 05                	jmp    155a0 <func_60+0x1310>
   1559b:	b9 00 00 00 00       	mov    $0x0,%ecx
   155a0:	48 8b 85 80 eb ff ff 	mov    -0x1480(%rbp),%rax
   155a7:	48 8b 10             	mov    (%rax),%rdx
   155aa:	48 63 c1             	movslq %ecx,%rax
   155ad:	48 21 c2             	and    %rax,%rdx
   155b0:	48 8b 85 80 eb ff ff 	mov    -0x1480(%rbp),%rax
   155b7:	48 89 10             	mov    %rdx,(%rax)
   155ba:	48 8b 85 80 eb ff ff 	mov    -0x1480(%rbp),%rax
   155c1:	48 8b 10             	mov    (%rax),%rdx
   155c4:	48 8b 85 88 e8 ff ff 	mov    -0x1778(%rbp),%rax
   155cb:	48 09 d0             	or     %rdx,%rax
   155ce:	48 89 c7             	mov    %rax,%rdi
   155d1:	e8 43 4a ff ff       	callq  a019 <safe_unary_minus_func_uint64_t_u>
   155d6:	0f b7 c0             	movzwl %ax,%eax
   155d9:	89 c6                	mov    %eax,%esi
   155db:	bf fd ff 00 00       	mov    $0xfffd,%edi
   155e0:	e8 77 47 ff ff       	callq  9d5c <safe_mod_func_uint16_t_u_u>
   155e5:	0f b7 c0             	movzwl %ax,%eax
   155e8:	48 89 de             	mov    %rbx,%rsi
   155eb:	48 89 c7             	mov    %rax,%rdi
   155ee:	e8 bc 4a ff ff       	callq  a0af <safe_div_func_uint64_t_u_u>
   155f3:	4c 09 e0             	or     %r12,%rax
   155f6:	89 c2                	mov    %eax,%edx
   155f8:	8b 85 60 e9 ff ff    	mov    -0x16a0(%rbp),%eax
   155fe:	31 d0                	xor    %edx,%eax
   15600:	89 85 60 e9 ff ff    	mov    %eax,-0x16a0(%rbp)
   15606:	e9 be 00 00 00       	jmpq   156c9 <func_60+0x1439>
   1560b:	48 8b 85 70 eb ff ff 	mov    -0x1490(%rbp),%rax
   15612:	48 89 85 90 eb ff ff 	mov    %rax,-0x1470(%rbp)
   15619:	e9 ab 00 00 00       	jmpq   156c9 <func_60+0x1439>
   1561e:	8b 85 28 ec ff ff    	mov    -0x13d8(%rbp),%eax
   15624:	85 c0                	test   %eax,%eax
   15626:	0f 85 be 00 00 00    	jne    156ea <func_60+0x145a>
   1562c:	c7 05 42 ec 00 00 00 	movl   $0x0,0xec42(%rip)        # 24278 <g_206>
   15633:	00 00 00 
   15636:	90                   	nop
   15637:	8b 05 3b ec 00 00    	mov    0xec3b(%rip),%eax        # 24278 <g_206>
   1563d:	83 f8 05             	cmp    $0x5,%eax
   15640:	7f 52                	jg     15694 <func_60+0x1404>
   15642:	8b 05 30 ec 00 00    	mov    0xec30(%rip),%eax        # 24278 <g_206>
   15648:	8d 48 01             	lea    0x1(%rax),%ecx
   1564b:	48 8b 05 c6 10 01 00 	mov    0x110c6(%rip),%rax        # 26718 <g_679>
   15652:	48 8d 95 20 ec ff ff 	lea    -0x13e0(%rbp),%rdx
   15659:	48 63 c9             	movslq %ecx,%rcx
   1565c:	48 c1 e1 02          	shl    $0x2,%rcx
   15660:	48 01 ca             	add    %rcx,%rdx
   15663:	48 89 10             	mov    %rdx,(%rax)
   15666:	8b 05 0c ec 00 00    	mov    0xec0c(%rip),%eax        # 24278 <g_206>
   1566c:	8b 15 06 ec 00 00    	mov    0xec06(%rip),%edx        # 24278 <g_206>
   15672:	48 63 ca             	movslq %edx,%rcx
   15675:	48 63 d0             	movslq %eax,%rdx
   15678:	48 89 d0             	mov    %rdx,%rax
   1567b:	48 c1 e0 02          	shl    $0x2,%rax
   1567f:	48 01 d0             	add    %rdx,%rax
   15682:	48 01 c0             	add    %rax,%rax
   15685:	48 01 c8             	add    %rcx,%rax
   15688:	8b 84 85 00 f1 ff ff 	mov    -0xf00(%rbp,%rax,4),%eax
   1568f:	e9 96 35 00 00       	jmpq   18c2a <func_60+0x499a>
   15694:	c6 85 9a e8 ff ff 00 	movb   $0x0,-0x1766(%rbp)
   1569b:	eb 23                	jmp    156c0 <func_60+0x1430>
   1569d:	48 8d 05 b8 ea 00 00 	lea    0xeab8(%rip),%rax        # 2415c <g_80>
   156a4:	48 89 85 98 eb ff ff 	mov    %rax,-0x1468(%rbp)
   156ab:	48 8b 85 90 eb ff ff 	mov    -0x1470(%rbp),%rax
   156b2:	48 89 85 98 eb ff ff 	mov    %rax,-0x1468(%rbp)
   156b9:	80 85 9a e8 ff ff 01 	addb   $0x1,-0x1766(%rbp)
   156c0:	80 bd 9a e8 ff ff 32 	cmpb   $0x32,-0x1766(%rbp)
   156c7:	76 d4                	jbe    1569d <func_60+0x140d>
   156c9:	0f b6 05 90 ea 00 00 	movzbl 0xea90(%rip),%eax        # 24160 <g_104>
   156d0:	83 e8 01             	sub    $0x1,%eax
   156d3:	88 05 87 ea 00 00    	mov    %al,0xea87(%rip)        # 24160 <g_104>
   156d9:	0f b6 05 80 ea 00 00 	movzbl 0xea80(%rip),%eax        # 24160 <g_104>
   156e0:	3c 01                	cmp    $0x1,%al
   156e2:	0f 8e 50 fc ff ff    	jle    15338 <func_60+0x10a8>
   156e8:	eb 01                	jmp    156eb <func_60+0x145b>
   156ea:	90                   	nop
   156eb:	48 8b 05 de eb 00 00 	mov    0xebde(%rip),%rax        # 242d0 <g_513>
   156f2:	be 02 00 00 00       	mov    $0x2,%esi
   156f7:	48 89 c7             	mov    %rax,%rdi
   156fa:	e8 2f 49 ff ff       	callq  a02e <safe_add_func_uint64_t_u_u>
   156ff:	48 89 05 ca eb 00 00 	mov    %rax,0xebca(%rip)        # 242d0 <g_513>
   15706:	48 8b 05 c3 eb 00 00 	mov    0xebc3(%rip),%rax        # 242d0 <g_513>
   1570d:	48 83 f8 10          	cmp    $0x10,%rax
   15711:	0f 8f 7b f7 ff ff    	jg     14e92 <func_60+0xc02>
   15717:	48 8b 05 ca eb 00 00 	mov    0xebca(%rip),%rax        # 242e8 <g_607>
   1571e:	0f b6 c0             	movzbl %al,%eax
   15721:	be 09 00 00 00       	mov    $0x9,%esi
   15726:	89 c7                	mov    %eax,%edi
   15728:	e8 2d 44 ff ff       	callq  9b5a <safe_add_func_uint8_t_u_u>
   1572d:	0f b6 c0             	movzbl %al,%eax
   15730:	48 89 05 b1 eb 00 00 	mov    %rax,0xebb1(%rip)        # 242e8 <g_607>
   15737:	48 8b 05 aa eb 00 00 	mov    0xebaa(%rip),%rax        # 242e8 <g_607>
   1573e:	48 83 f8 33          	cmp    $0x33,%rax
   15742:	0f 86 23 f6 ff ff    	jbe    14d6b <func_60+0xadb>
   15748:	90                   	nop
   15749:	48 c7 05 7c eb 00 00 	movq   $0x0,0xeb7c(%rip)        # 242d0 <g_513>
   15750:	00 00 00 00 
   15754:	eb 2b                	jmp    15781 <func_60+0x14f1>
   15756:	48 83 bd 88 e8 ff ff 	cmpq   $0x0,-0x1778(%rbp)
   1575d:	00 
   1575e:	74 05                	je     15765 <func_60+0x14d5>
   15760:	e9 f6 f5 ff ff       	jmpq   14d5b <func_60+0xacb>
   15765:	48 83 bd 88 e8 ff ff 	cmpq   $0x0,-0x1778(%rbp)
   1576c:	00 
   1576d:	75 21                	jne    15790 <func_60+0x1500>
   1576f:	48 8b 05 5a eb 00 00 	mov    0xeb5a(%rip),%rax        # 242d0 <g_513>
   15776:	48 83 e8 01          	sub    $0x1,%rax
   1577a:	48 89 05 4f eb 00 00 	mov    %rax,0xeb4f(%rip)        # 242d0 <g_513>
   15781:	48 8b 05 48 eb 00 00 	mov    0xeb48(%rip),%rax        # 242d0 <g_513>
   15788:	48 83 f8 f3          	cmp    $0xfffffffffffffff3,%rax
   1578c:	7d c8                	jge    15756 <func_60+0x14c6>
   1578e:	eb 01                	jmp    15791 <func_60+0x1501>
   15790:	90                   	nop
   15791:	48 8b 85 90 e9 ff ff 	mov    -0x1670(%rbp),%rax
   15798:	0f b7 10             	movzwl (%rax),%edx
   1579b:	83 c2 01             	add    $0x1,%edx
   1579e:	66 89 10             	mov    %dx,(%rax)
   157a1:	48 8b 9d 88 e8 ff ff 	mov    -0x1778(%rbp),%rbx
   157a8:	48 8b 85 78 e9 ff ff 	mov    -0x1688(%rbp),%rax
   157af:	8b 00                	mov    (%rax),%eax
   157b1:	85 c0                	test   %eax,%eax
   157b3:	0f 84 c0 00 00 00    	je     15879 <func_60+0x15e9>
   157b9:	48 8b 85 88 e8 ff ff 	mov    -0x1778(%rbp),%rax
   157c0:	44 0f b6 e0          	movzbl %al,%r12d
   157c4:	8b 95 e0 e8 ff ff    	mov    -0x1720(%rbp),%edx
   157ca:	48 81 bd 88 e8 ff ff 	cmpq   $0xaaf,-0x1778(%rbp)
   157d1:	af 0a 00 00 
   157d5:	0f 94 c0             	sete   %al
   157d8:	0f b6 c0             	movzbl %al,%eax
   157db:	89 d6                	mov    %edx,%esi
   157dd:	89 c7                	mov    %eax,%edi
   157df:	e8 e8 3e ff ff       	callq  96cc <safe_mod_func_int32_t_s_s>
   157e4:	89 c2                	mov    %eax,%edx
   157e6:	48 8b 85 88 e8 ff ff 	mov    -0x1778(%rbp),%rax
   157ed:	09 d0                	or     %edx,%eax
   157ef:	0f b6 c0             	movzbl %al,%eax
   157f2:	44 89 e6             	mov    %r12d,%esi
   157f5:	89 c7                	mov    %eax,%edi
   157f7:	e8 7c 43 ff ff       	callq  9b78 <safe_sub_func_uint8_t_u_u>
   157fc:	48 8b 85 20 ea ff ff 	mov    -0x15e0(%rbp),%rax
   15803:	48 8d 15 fe e9 00 00 	lea    0xe9fe(%rip),%rdx        # 24208 <g_142+0x88>
   1580a:	48 89 10             	mov    %rdx,(%rax)
   1580d:	48 8b 85 20 ea ff ff 	mov    -0x15e0(%rbp),%rax
   15814:	48 8b 00             	mov    (%rax),%rax
   15817:	48 8d 15 64 ea 00 00 	lea    0xea64(%rip),%rdx        # 24282 <g_335>
   1581e:	48 39 d0             	cmp    %rdx,%rax
   15821:	0f 95 c0             	setne  %al
   15824:	0f b6 c0             	movzbl %al,%eax
   15827:	be 09 00 00 00       	mov    $0x9,%esi
   1582c:	89 c7                	mov    %eax,%edi
   1582e:	e8 5f 3c ff ff       	callq  9492 <safe_lshift_func_int16_t_s_s>
   15833:	0f bf c8             	movswl %ax,%ecx
   15836:	48 8b 85 a0 e9 ff ff 	mov    -0x1660(%rbp),%rax
   1583d:	48 8d 95 90 f4 ff ff 	lea    -0xb70(%rbp),%rdx
   15844:	48 83 c2 38          	add    $0x38,%rdx
   15848:	48 39 d0             	cmp    %rdx,%rax
   1584b:	0f 94 c2             	sete   %dl
   1584e:	48 8b 85 78 e9 ff ff 	mov    -0x1688(%rbp),%rax
   15855:	0f b6 d2             	movzbl %dl,%edx
   15858:	89 10                	mov    %edx,(%rax)
   1585a:	8b 00                	mov    (%rax),%eax
   1585c:	39 c1                	cmp    %eax,%ecx
   1585e:	48 8b 05 9b 0e 01 00 	mov    0x10e9b(%rip),%rax        # 26700 <g_634>
   15865:	48 8b 00             	mov    (%rax),%rax
   15868:	48 8d 15 83 ea 00 00 	lea    0xea83(%rip),%rdx        # 242f2 <g_777>
   1586f:	48 39 d0             	cmp    %rdx,%rax
   15872:	b8 01 00 00 00       	mov    $0x1,%eax
   15877:	eb 05                	jmp    1587e <func_60+0x15ee>
   15879:	b8 00 00 00 00       	mov    $0x0,%eax
   1587e:	48 98                	cltq   
   15880:	48 89 de             	mov    %rbx,%rsi
   15883:	48 89 c7             	mov    %rax,%rdi
   15886:	e8 a3 47 ff ff       	callq  a02e <safe_add_func_uint64_t_u_u>
   1588b:	48 8b 05 76 0e 01 00 	mov    0x10e76(%rip),%rax        # 26708 <g_633>
   15892:	48 8b 00             	mov    (%rax),%rax
   15895:	48 8b 85 78 e9 ff ff 	mov    -0x1688(%rbp),%rax
   1589c:	8b 00                	mov    (%rax),%eax
   1589e:	85 c0                	test   %eax,%eax
   158a0:	48 83 bd 88 e8 ff ff 	cmpq   $0x0,-0x1778(%rbp)
   158a7:	00 
   158a8:	74 08                	je     158b2 <func_60+0x1622>
   158aa:	48 83 bd 88 e8 ff ff 	cmpq   $0x0,-0x1778(%rbp)
   158b1:	00 
   158b2:	48 8b 05 37 0e 01 00 	mov    0x10e37(%rip),%rax        # 266f0 <g_571>
   158b9:	8b 00                	mov    (%rax),%eax
   158bb:	85 c0                	test   %eax,%eax
   158bd:	0f 84 9f 00 00 00    	je     15962 <func_60+0x16d2>
   158c3:	48 8d 05 8e e8 00 00 	lea    0xe88e(%rip),%rax        # 24158 <g_78>
   158ca:	48 89 85 50 eb ff ff 	mov    %rax,-0x14b0(%rbp)
   158d1:	48 8d 85 78 e9 ff ff 	lea    -0x1688(%rbp),%rax
   158d8:	48 89 85 40 fb ff ff 	mov    %rax,-0x4c0(%rbp)
   158df:	48 8d 85 78 e9 ff ff 	lea    -0x1688(%rbp),%rax
   158e6:	48 89 85 48 fb ff ff 	mov    %rax,-0x4b8(%rbp)
   158ed:	48 8d 85 78 e9 ff ff 	lea    -0x1688(%rbp),%rax
   158f4:	48 89 85 50 fb ff ff 	mov    %rax,-0x4b0(%rbp)
   158fb:	48 8d 85 78 e9 ff ff 	lea    -0x1688(%rbp),%rax
   15902:	48 89 85 58 fb ff ff 	mov    %rax,-0x4a8(%rbp)
   15909:	48 8b 85 50 eb ff ff 	mov    -0x14b0(%rbp),%rax
   15910:	48 89 85 78 e9 ff ff 	mov    %rax,-0x1688(%rbp)
   15917:	48 8b 85 88 e8 ff ff 	mov    -0x1778(%rbp),%rax
   1591e:	be 3a 55 e1 14       	mov    $0x14e1553a,%esi
   15923:	89 c7                	mov    %eax,%edi
   15925:	e8 d3 45 ff ff       	callq  9efd <safe_mod_func_uint32_t_u_u>
   1592a:	89 c3                	mov    %eax,%ebx
   1592c:	48 8b 05 95 e9 00 00 	mov    0xe995(%rip),%rax        # 242c8 <g_405>
   15933:	0f b6 d0             	movzbl %al,%edx
   15936:	48 8b 85 88 e8 ff ff 	mov    -0x1778(%rbp),%rax
   1593d:	0f b6 c0             	movzbl %al,%eax
   15940:	89 d6                	mov    %edx,%esi
   15942:	89 c7                	mov    %eax,%edi
   15944:	e8 92 42 ff ff       	callq  9bdb <safe_div_func_uint8_t_u_u>
   15949:	0f b6 c0             	movzbl %al,%eax
   1594c:	39 c3                	cmp    %eax,%ebx
   1594e:	0f 92 c2             	setb   %dl
   15951:	48 8b 85 78 e9 ff ff 	mov    -0x1688(%rbp),%rax
   15958:	0f b6 d2             	movzbl %dl,%edx
   1595b:	89 10                	mov    %edx,(%rax)
   1595d:	e9 bb 32 00 00       	jmpq   18c1d <func_60+0x498d>
   15962:	48 8d 85 20 ec ff ff 	lea    -0x13e0(%rbp),%rax
   15969:	48 83 c0 14          	add    $0x14,%rax
   1596d:	48 89 85 a8 e9 ff ff 	mov    %rax,-0x1658(%rbp)
   15974:	48 c7 85 f0 f1 ff ff 	movq   $0x0,-0xe10(%rbp)
   1597b:	00 00 00 00 
   1597f:	48 8d 05 1a 0d 01 00 	lea    0x10d1a(%rip),%rax        # 266a0 <g_94>
   15986:	48 89 85 f8 f1 ff ff 	mov    %rax,-0xe08(%rbp)
   1598d:	48 8d 85 a8 e9 ff ff 	lea    -0x1658(%rbp),%rax
   15994:	48 89 85 00 f2 ff ff 	mov    %rax,-0xe00(%rbp)
   1599b:	48 8d 05 fe 0c 01 00 	lea    0x10cfe(%rip),%rax        # 266a0 <g_94>
   159a2:	48 89 85 08 f2 ff ff 	mov    %rax,-0xdf8(%rbp)
   159a9:	48 c7 85 10 f2 ff ff 	movq   $0x0,-0xdf0(%rbp)
   159b0:	00 00 00 00 
   159b4:	48 8d 05 e5 0c 01 00 	lea    0x10ce5(%rip),%rax        # 266a0 <g_94>
   159bb:	48 89 85 18 f2 ff ff 	mov    %rax,-0xde8(%rbp)
   159c2:	48 8d 85 a8 e9 ff ff 	lea    -0x1658(%rbp),%rax
   159c9:	48 89 85 20 f2 ff ff 	mov    %rax,-0xde0(%rbp)
   159d0:	48 c7 85 28 f2 ff ff 	movq   $0x0,-0xdd8(%rbp)
   159d7:	00 00 00 00 
   159db:	48 8d 85 a8 e9 ff ff 	lea    -0x1658(%rbp),%rax
   159e2:	48 89 85 30 f2 ff ff 	mov    %rax,-0xdd0(%rbp)
   159e9:	48 8d 05 b0 0c 01 00 	lea    0x10cb0(%rip),%rax        # 266a0 <g_94>
   159f0:	48 89 85 38 f2 ff ff 	mov    %rax,-0xdc8(%rbp)
   159f7:	48 8d 05 a2 0c 01 00 	lea    0x10ca2(%rip),%rax        # 266a0 <g_94>
   159fe:	48 89 85 40 f2 ff ff 	mov    %rax,-0xdc0(%rbp)
   15a05:	48 8d 85 a8 e9 ff ff 	lea    -0x1658(%rbp),%rax
   15a0c:	48 89 85 48 f2 ff ff 	mov    %rax,-0xdb8(%rbp)
   15a13:	48 c7 85 50 f2 ff ff 	movq   $0x0,-0xdb0(%rbp)
   15a1a:	00 00 00 00 
   15a1e:	48 8d 85 78 e9 ff ff 	lea    -0x1688(%rbp),%rax
   15a25:	48 89 85 58 f2 ff ff 	mov    %rax,-0xda8(%rbp)
   15a2c:	48 8d 85 a8 e9 ff ff 	lea    -0x1658(%rbp),%rax
   15a33:	48 89 85 60 f2 ff ff 	mov    %rax,-0xda0(%rbp)
   15a3a:	48 8d 85 78 e9 ff ff 	lea    -0x1688(%rbp),%rax
   15a41:	48 89 85 68 f2 ff ff 	mov    %rax,-0xd98(%rbp)
   15a48:	48 8d 85 a8 e9 ff ff 	lea    -0x1658(%rbp),%rax
   15a4f:	48 89 85 70 f2 ff ff 	mov    %rax,-0xd90(%rbp)
   15a56:	48 8d 05 43 0c 01 00 	lea    0x10c43(%rip),%rax        # 266a0 <g_94>
   15a5d:	48 89 85 78 f2 ff ff 	mov    %rax,-0xd88(%rbp)
   15a64:	48 8d 85 a8 e9 ff ff 	lea    -0x1658(%rbp),%rax
   15a6b:	48 89 85 80 f2 ff ff 	mov    %rax,-0xd80(%rbp)
   15a72:	48 8d 85 78 e9 ff ff 	lea    -0x1688(%rbp),%rax
   15a79:	48 89 85 88 f2 ff ff 	mov    %rax,-0xd78(%rbp)
   15a80:	48 8d 85 a8 e9 ff ff 	lea    -0x1658(%rbp),%rax
   15a87:	48 89 85 90 f2 ff ff 	mov    %rax,-0xd70(%rbp)
   15a8e:	48 c7 85 98 f2 ff ff 	movq   $0x0,-0xd68(%rbp)
   15a95:	00 00 00 00 
   15a99:	48 8d 05 00 0c 01 00 	lea    0x10c00(%rip),%rax        # 266a0 <g_94>
   15aa0:	48 89 85 a0 f2 ff ff 	mov    %rax,-0xd60(%rbp)
   15aa7:	48 8d 85 78 e9 ff ff 	lea    -0x1688(%rbp),%rax
   15aae:	48 89 85 a8 f2 ff ff 	mov    %rax,-0xd58(%rbp)
   15ab5:	48 8d 85 a8 e9 ff ff 	lea    -0x1658(%rbp),%rax
   15abc:	48 89 85 b0 f2 ff ff 	mov    %rax,-0xd50(%rbp)
   15ac3:	48 8d 85 a8 e9 ff ff 	lea    -0x1658(%rbp),%rax
   15aca:	48 89 85 b8 f2 ff ff 	mov    %rax,-0xd48(%rbp)
   15ad1:	48 8d 85 78 e9 ff ff 	lea    -0x1688(%rbp),%rax
   15ad8:	48 89 85 c0 f2 ff ff 	mov    %rax,-0xd40(%rbp)
   15adf:	48 8d 05 ba 0b 01 00 	lea    0x10bba(%rip),%rax        # 266a0 <g_94>
   15ae6:	48 89 85 c8 f2 ff ff 	mov    %rax,-0xd38(%rbp)
   15aed:	48 c7 85 d0 f2 ff ff 	movq   $0x0,-0xd30(%rbp)
   15af4:	00 00 00 00 
   15af8:	48 8d 85 78 e9 ff ff 	lea    -0x1688(%rbp),%rax
   15aff:	48 89 85 d8 f2 ff ff 	mov    %rax,-0xd28(%rbp)
   15b06:	48 8d 85 a8 e9 ff ff 	lea    -0x1658(%rbp),%rax
   15b0d:	48 89 85 e0 f2 ff ff 	mov    %rax,-0xd20(%rbp)
   15b14:	48 8d 85 78 e9 ff ff 	lea    -0x1688(%rbp),%rax
   15b1b:	48 89 85 e8 f2 ff ff 	mov    %rax,-0xd18(%rbp)
   15b22:	48 c7 85 f0 f2 ff ff 	movq   $0x0,-0xd10(%rbp)
   15b29:	00 00 00 00 
   15b2d:	48 8d 85 78 e9 ff ff 	lea    -0x1688(%rbp),%rax
   15b34:	48 89 85 f8 f2 ff ff 	mov    %rax,-0xd08(%rbp)
   15b3b:	48 8d 85 a8 e9 ff ff 	lea    -0x1658(%rbp),%rax
   15b42:	48 89 85 00 f3 ff ff 	mov    %rax,-0xd00(%rbp)
   15b49:	c7 85 e8 e8 ff ff fb 	movl   $0xfffffffb,-0x1718(%rbp)
   15b50:	ff ff ff 
   15b53:	48 8d 85 00 f1 ff ff 	lea    -0xf00(%rbp),%rax
   15b5a:	48 83 c0 3c          	add    $0x3c,%rax
   15b5e:	48 89 85 b0 e9 ff ff 	mov    %rax,-0x1650(%rbp)
   15b65:	48 8d 85 c8 eb ff ff 	lea    -0x1438(%rbp),%rax
   15b6c:	48 89 85 40 ea ff ff 	mov    %rax,-0x15c0(%rbp)
   15b73:	48 c7 85 48 ea ff ff 	movq   $0x8,-0x15b8(%rbp)
   15b7a:	08 00 00 00 
   15b7e:	48 8d 05 0b 2c 01 00 	lea    0x12c0b(%rip),%rax        # 28790 <g_399>
   15b85:	48 89 85 50 ea ff ff 	mov    %rax,-0x15b0(%rbp)
   15b8c:	48 8d 05 65 0b 01 00 	lea    0x10b65(%rip),%rax        # 266f8 <g_635>
   15b93:	48 89 85 b8 e9 ff ff 	mov    %rax,-0x1648(%rbp)
   15b9a:	48 8d 85 b8 e9 ff ff 	lea    -0x1648(%rbp),%rax
   15ba1:	48 89 85 58 ea ff ff 	mov    %rax,-0x15a8(%rbp)
   15ba8:	48 8d 85 98 e8 ff ff 	lea    -0x1768(%rbp),%rax
   15baf:	48 89 85 f8 e9 ff ff 	mov    %rax,-0x1608(%rbp)
   15bb6:	c7 85 ec e8 ff ff 00 	movl   $0x0,-0x1714(%rbp)
   15bbd:	00 00 00 
   15bc0:	c7 85 f0 e8 ff ff 00 	movl   $0x0,-0x1710(%rbp)
   15bc7:	00 00 00 
   15bca:	48 8d 05 ab e6 00 00 	lea    0xe6ab(%rip),%rax        # 2427c <g_274>
   15bd1:	48 89 85 60 ea ff ff 	mov    %rax,-0x15a0(%rbp)
   15bd8:	66 c7 85 a0 e8 ff ff 	movw   $0xfff9,-0x1760(%rbp)
   15bdf:	f9 ff 
   15be1:	c7 85 f4 e8 ff ff 01 	movl   $0x1,-0x170c(%rbp)
   15be8:	00 00 00 
   15beb:	48 c7 85 c0 e9 ff ff 	movq   $0x0,-0x1640(%rbp)
   15bf2:	00 00 00 00 
   15bf6:	48 8d 85 c0 e9 ff ff 	lea    -0x1640(%rbp),%rax
   15bfd:	48 89 85 c8 e9 ff ff 	mov    %rax,-0x1638(%rbp)
   15c04:	48 8d 85 c8 e9 ff ff 	lea    -0x1638(%rbp),%rax
   15c0b:	48 89 85 d0 e9 ff ff 	mov    %rax,-0x1630(%rbp)
   15c12:	48 8d 85 d0 e9 ff ff 	lea    -0x1630(%rbp),%rax
   15c19:	48 89 85 68 ea ff ff 	mov    %rax,-0x1598(%rbp)
   15c20:	c7 85 f8 e8 ff ff ea 	movl   $0x7c4ffea,-0x1708(%rbp)
   15c27:	ff c4 07 
   15c2a:	48 c7 85 d8 e9 ff ff 	movq   $0x0,-0x1628(%rbp)
   15c31:	00 00 00 00 
   15c35:	48 8d 85 d8 e9 ff ff 	lea    -0x1628(%rbp),%rax
   15c3c:	48 89 85 c0 f8 ff ff 	mov    %rax,-0x740(%rbp)
   15c43:	48 8d 85 d8 e9 ff ff 	lea    -0x1628(%rbp),%rax
   15c4a:	48 89 85 c8 f8 ff ff 	mov    %rax,-0x738(%rbp)
   15c51:	48 c7 85 d0 f8 ff ff 	movq   $0x0,-0x730(%rbp)
   15c58:	00 00 00 00 
   15c5c:	48 8d 85 d8 e9 ff ff 	lea    -0x1628(%rbp),%rax
   15c63:	48 89 85 d8 f8 ff ff 	mov    %rax,-0x728(%rbp)
   15c6a:	48 8d 85 d8 e9 ff ff 	lea    -0x1628(%rbp),%rax
   15c71:	48 89 85 e0 f8 ff ff 	mov    %rax,-0x720(%rbp)
   15c78:	48 8d 85 d8 e9 ff ff 	lea    -0x1628(%rbp),%rax
   15c7f:	48 89 85 e8 f8 ff ff 	mov    %rax,-0x718(%rbp)
   15c86:	48 c7 85 f0 f8 ff ff 	movq   $0x0,-0x710(%rbp)
   15c8d:	00 00 00 00 
   15c91:	48 c7 85 f8 f8 ff ff 	movq   $0x0,-0x708(%rbp)
   15c98:	00 00 00 00 
   15c9c:	48 8d 85 d8 e9 ff ff 	lea    -0x1628(%rbp),%rax
   15ca3:	48 89 85 00 f9 ff ff 	mov    %rax,-0x700(%rbp)
   15caa:	48 8d 85 d8 e9 ff ff 	lea    -0x1628(%rbp),%rax
   15cb1:	48 89 85 08 f9 ff ff 	mov    %rax,-0x6f8(%rbp)
   15cb8:	48 8d 85 d8 e9 ff ff 	lea    -0x1628(%rbp),%rax
   15cbf:	48 89 85 10 f9 ff ff 	mov    %rax,-0x6f0(%rbp)
   15cc6:	48 8d 85 d8 e9 ff ff 	lea    -0x1628(%rbp),%rax
   15ccd:	48 89 85 18 f9 ff ff 	mov    %rax,-0x6e8(%rbp)
   15cd4:	48 8d 85 d8 e9 ff ff 	lea    -0x1628(%rbp),%rax
   15cdb:	48 89 85 20 f9 ff ff 	mov    %rax,-0x6e0(%rbp)
   15ce2:	48 8d 85 d8 e9 ff ff 	lea    -0x1628(%rbp),%rax
   15ce9:	48 89 85 28 f9 ff ff 	mov    %rax,-0x6d8(%rbp)
   15cf0:	48 8d 85 d8 e9 ff ff 	lea    -0x1628(%rbp),%rax
   15cf7:	48 89 85 30 f9 ff ff 	mov    %rax,-0x6d0(%rbp)
   15cfe:	48 8d 85 d8 e9 ff ff 	lea    -0x1628(%rbp),%rax
   15d05:	48 89 85 38 f9 ff ff 	mov    %rax,-0x6c8(%rbp)
   15d0c:	48 8d 85 d8 e9 ff ff 	lea    -0x1628(%rbp),%rax
   15d13:	48 89 85 40 f9 ff ff 	mov    %rax,-0x6c0(%rbp)
   15d1a:	48 8d 85 d8 e9 ff ff 	lea    -0x1628(%rbp),%rax
   15d21:	48 89 85 48 f9 ff ff 	mov    %rax,-0x6b8(%rbp)
   15d28:	48 8d 85 d8 e9 ff ff 	lea    -0x1628(%rbp),%rax
   15d2f:	48 89 85 50 f9 ff ff 	mov    %rax,-0x6b0(%rbp)
   15d36:	48 c7 85 58 f9 ff ff 	movq   $0x0,-0x6a8(%rbp)
   15d3d:	00 00 00 00 
   15d41:	48 8d 85 d8 e9 ff ff 	lea    -0x1628(%rbp),%rax
   15d48:	48 89 85 60 f9 ff ff 	mov    %rax,-0x6a0(%rbp)
   15d4f:	48 8d 85 d8 e9 ff ff 	lea    -0x1628(%rbp),%rax
   15d56:	48 89 85 68 f9 ff ff 	mov    %rax,-0x698(%rbp)
   15d5d:	48 8d 85 d8 e9 ff ff 	lea    -0x1628(%rbp),%rax
   15d64:	48 89 85 70 f9 ff ff 	mov    %rax,-0x690(%rbp)
   15d6b:	48 8d 85 d8 e9 ff ff 	lea    -0x1628(%rbp),%rax
   15d72:	48 89 85 78 f9 ff ff 	mov    %rax,-0x688(%rbp)
   15d79:	48 8d 85 d8 e9 ff ff 	lea    -0x1628(%rbp),%rax
   15d80:	48 89 85 80 f9 ff ff 	mov    %rax,-0x680(%rbp)
   15d87:	48 8d 85 d8 e9 ff ff 	lea    -0x1628(%rbp),%rax
   15d8e:	48 89 85 88 f9 ff ff 	mov    %rax,-0x678(%rbp)
   15d95:	48 8d 85 d8 e9 ff ff 	lea    -0x1628(%rbp),%rax
   15d9c:	48 89 85 90 f9 ff ff 	mov    %rax,-0x670(%rbp)
   15da3:	48 c7 85 98 f9 ff ff 	movq   $0x0,-0x668(%rbp)
   15daa:	00 00 00 00 
   15dae:	48 8d 85 d8 e9 ff ff 	lea    -0x1628(%rbp),%rax
   15db5:	48 89 85 a0 f9 ff ff 	mov    %rax,-0x660(%rbp)
   15dbc:	48 8d 85 d8 e9 ff ff 	lea    -0x1628(%rbp),%rax
   15dc3:	48 89 85 a8 f9 ff ff 	mov    %rax,-0x658(%rbp)
   15dca:	48 c7 85 b0 f9 ff ff 	movq   $0x0,-0x650(%rbp)
   15dd1:	00 00 00 00 
   15dd5:	48 8d 85 d8 e9 ff ff 	lea    -0x1628(%rbp),%rax
   15ddc:	48 89 85 b8 f9 ff ff 	mov    %rax,-0x648(%rbp)
   15de3:	48 8d 85 d8 e9 ff ff 	lea    -0x1628(%rbp),%rax
   15dea:	48 89 85 c0 f9 ff ff 	mov    %rax,-0x640(%rbp)
   15df1:	48 8d 85 d8 e9 ff ff 	lea    -0x1628(%rbp),%rax
   15df8:	48 89 85 c8 f9 ff ff 	mov    %rax,-0x638(%rbp)
   15dff:	48 c7 85 d0 f9 ff ff 	movq   $0x0,-0x630(%rbp)
   15e06:	00 00 00 00 
   15e0a:	48 8d 85 d8 e9 ff ff 	lea    -0x1628(%rbp),%rax
   15e11:	48 89 85 d8 f9 ff ff 	mov    %rax,-0x628(%rbp)
   15e18:	48 8d 85 d8 e9 ff ff 	lea    -0x1628(%rbp),%rax
   15e1f:	48 89 85 e0 f9 ff ff 	mov    %rax,-0x620(%rbp)
   15e26:	48 8d 85 d8 e9 ff ff 	lea    -0x1628(%rbp),%rax
   15e2d:	48 89 85 e8 f9 ff ff 	mov    %rax,-0x618(%rbp)
   15e34:	48 8d 85 d8 e9 ff ff 	lea    -0x1628(%rbp),%rax
   15e3b:	48 89 85 f0 f9 ff ff 	mov    %rax,-0x610(%rbp)
   15e42:	48 c7 85 f8 f9 ff ff 	movq   $0x0,-0x608(%rbp)
   15e49:	00 00 00 00 
   15e4d:	48 8d 85 d8 e9 ff ff 	lea    -0x1628(%rbp),%rax
   15e54:	48 89 85 00 fa ff ff 	mov    %rax,-0x600(%rbp)
   15e5b:	48 8d 85 d8 e9 ff ff 	lea    -0x1628(%rbp),%rax
   15e62:	48 89 85 08 fa ff ff 	mov    %rax,-0x5f8(%rbp)
   15e69:	48 c7 85 10 fa ff ff 	movq   $0x0,-0x5f0(%rbp)
   15e70:	00 00 00 00 
   15e74:	48 8d 85 d8 e9 ff ff 	lea    -0x1628(%rbp),%rax
   15e7b:	48 89 85 18 fa ff ff 	mov    %rax,-0x5e8(%rbp)
   15e82:	48 8d 85 d8 e9 ff ff 	lea    -0x1628(%rbp),%rax
   15e89:	48 89 85 20 fa ff ff 	mov    %rax,-0x5e0(%rbp)
   15e90:	48 8d 85 d8 e9 ff ff 	lea    -0x1628(%rbp),%rax
   15e97:	48 89 85 28 fa ff ff 	mov    %rax,-0x5d8(%rbp)
   15e9e:	48 c7 85 30 fa ff ff 	movq   $0x0,-0x5d0(%rbp)
   15ea5:	00 00 00 00 
   15ea9:	48 c7 85 38 fa ff ff 	movq   $0x0,-0x5c8(%rbp)
   15eb0:	00 00 00 00 
   15eb4:	48 8d 85 d8 e9 ff ff 	lea    -0x1628(%rbp),%rax
   15ebb:	48 89 85 40 fa ff ff 	mov    %rax,-0x5c0(%rbp)
   15ec2:	48 8d 85 d8 e9 ff ff 	lea    -0x1628(%rbp),%rax
   15ec9:	48 89 85 48 fa ff ff 	mov    %rax,-0x5b8(%rbp)
   15ed0:	48 8d 85 d8 e9 ff ff 	lea    -0x1628(%rbp),%rax
   15ed7:	48 89 85 50 fa ff ff 	mov    %rax,-0x5b0(%rbp)
   15ede:	48 8d 85 d8 e9 ff ff 	lea    -0x1628(%rbp),%rax
   15ee5:	48 89 85 58 fa ff ff 	mov    %rax,-0x5a8(%rbp)
   15eec:	48 8d 85 d8 e9 ff ff 	lea    -0x1628(%rbp),%rax
   15ef3:	48 89 85 60 fa ff ff 	mov    %rax,-0x5a0(%rbp)
   15efa:	48 8d 85 d8 e9 ff ff 	lea    -0x1628(%rbp),%rax
   15f01:	48 89 85 68 fa ff ff 	mov    %rax,-0x598(%rbp)
   15f08:	48 8d 85 d8 e9 ff ff 	lea    -0x1628(%rbp),%rax
   15f0f:	48 89 85 70 fa ff ff 	mov    %rax,-0x590(%rbp)
   15f16:	48 8d 85 d8 e9 ff ff 	lea    -0x1628(%rbp),%rax
   15f1d:	48 89 85 78 fa ff ff 	mov    %rax,-0x588(%rbp)
   15f24:	48 8d 85 d8 e9 ff ff 	lea    -0x1628(%rbp),%rax
   15f2b:	48 89 85 80 fa ff ff 	mov    %rax,-0x580(%rbp)
   15f32:	48 8d 85 d8 e9 ff ff 	lea    -0x1628(%rbp),%rax
   15f39:	48 89 85 88 fa ff ff 	mov    %rax,-0x578(%rbp)
   15f40:	48 8d 85 d8 e9 ff ff 	lea    -0x1628(%rbp),%rax
   15f47:	48 89 85 90 fa ff ff 	mov    %rax,-0x570(%rbp)
   15f4e:	48 8d 85 d8 e9 ff ff 	lea    -0x1628(%rbp),%rax
   15f55:	48 89 85 98 fa ff ff 	mov    %rax,-0x568(%rbp)
   15f5c:	48 8d 85 d8 e9 ff ff 	lea    -0x1628(%rbp),%rax
   15f63:	48 89 85 a0 fa ff ff 	mov    %rax,-0x560(%rbp)
   15f6a:	48 8d 85 d8 e9 ff ff 	lea    -0x1628(%rbp),%rax
   15f71:	48 89 85 a8 fa ff ff 	mov    %rax,-0x558(%rbp)
   15f78:	48 8d 85 d8 e9 ff ff 	lea    -0x1628(%rbp),%rax
   15f7f:	48 89 85 b0 fa ff ff 	mov    %rax,-0x550(%rbp)
   15f86:	48 8d 85 d8 e9 ff ff 	lea    -0x1628(%rbp),%rax
   15f8d:	48 89 85 b8 fa ff ff 	mov    %rax,-0x548(%rbp)
   15f94:	48 8d 85 d8 e9 ff ff 	lea    -0x1628(%rbp),%rax
   15f9b:	48 89 85 c0 fa ff ff 	mov    %rax,-0x540(%rbp)
   15fa2:	48 8d 85 d8 e9 ff ff 	lea    -0x1628(%rbp),%rax
   15fa9:	48 89 85 c8 fa ff ff 	mov    %rax,-0x538(%rbp)
   15fb0:	48 8d 85 d8 e9 ff ff 	lea    -0x1628(%rbp),%rax
   15fb7:	48 89 85 d0 fa ff ff 	mov    %rax,-0x530(%rbp)
   15fbe:	48 8d 85 d8 e9 ff ff 	lea    -0x1628(%rbp),%rax
   15fc5:	48 89 85 d8 fa ff ff 	mov    %rax,-0x528(%rbp)
   15fcc:	48 8d 85 d8 e9 ff ff 	lea    -0x1628(%rbp),%rax
   15fd3:	48 89 85 e0 fa ff ff 	mov    %rax,-0x520(%rbp)
   15fda:	48 8d 85 d8 e9 ff ff 	lea    -0x1628(%rbp),%rax
   15fe1:	48 89 85 e8 fa ff ff 	mov    %rax,-0x518(%rbp)
   15fe8:	48 8d 85 d8 e9 ff ff 	lea    -0x1628(%rbp),%rax
   15fef:	48 89 85 f0 fa ff ff 	mov    %rax,-0x510(%rbp)
   15ff6:	48 8d 85 d8 e9 ff ff 	lea    -0x1628(%rbp),%rax
   15ffd:	48 89 85 f8 fa ff ff 	mov    %rax,-0x508(%rbp)
   16004:	48 8d 85 d8 e9 ff ff 	lea    -0x1628(%rbp),%rax
   1600b:	48 89 85 00 fb ff ff 	mov    %rax,-0x500(%rbp)
   16012:	48 8d 85 d8 e9 ff ff 	lea    -0x1628(%rbp),%rax
   16019:	48 89 85 08 fb ff ff 	mov    %rax,-0x4f8(%rbp)
   16020:	48 8d 85 d8 e9 ff ff 	lea    -0x1628(%rbp),%rax
   16027:	48 89 85 10 fb ff ff 	mov    %rax,-0x4f0(%rbp)
   1602e:	48 8d 85 d8 e9 ff ff 	lea    -0x1628(%rbp),%rax
   16035:	48 89 85 18 fb ff ff 	mov    %rax,-0x4e8(%rbp)
   1603c:	48 8d 85 d8 e9 ff ff 	lea    -0x1628(%rbp),%rax
   16043:	48 89 85 20 fb ff ff 	mov    %rax,-0x4e0(%rbp)
   1604a:	48 8d 85 d8 e9 ff ff 	lea    -0x1628(%rbp),%rax
   16051:	48 89 85 28 fb ff ff 	mov    %rax,-0x4d8(%rbp)
   16058:	48 c7 85 30 fb ff ff 	movq   $0x0,-0x4d0(%rbp)
   1605f:	00 00 00 00 
   16063:	48 8d 85 d8 e9 ff ff 	lea    -0x1628(%rbp),%rax
   1606a:	48 89 85 38 fb ff ff 	mov    %rax,-0x4c8(%rbp)
   16071:	c7 85 fc e8 ff ff 4a 	movl   $0x75c4134a,-0x1704(%rbp)
   16078:	13 c4 75 
   1607b:	c7 85 30 ed ff ff 35 	movl   $0x30fbde35,-0x12d0(%rbp)
   16082:	de fb 30 
   16085:	c7 85 34 ed ff ff 35 	movl   $0x30fbde35,-0x12cc(%rbp)
   1608c:	de fb 30 
   1608f:	c7 85 38 ed ff ff 35 	movl   $0x30fbde35,-0x12c8(%rbp)
   16096:	de fb 30 
   16099:	c7 85 3c ed ff ff 35 	movl   $0x30fbde35,-0x12c4(%rbp)
   160a0:	de fb 30 
   160a3:	c7 85 40 ed ff ff 35 	movl   $0x30fbde35,-0x12c0(%rbp)
   160aa:	de fb 30 
   160ad:	c7 85 44 ed ff ff 35 	movl   $0x30fbde35,-0x12bc(%rbp)
   160b4:	de fb 30 
   160b7:	c7 85 48 ed ff ff 35 	movl   $0x30fbde35,-0x12b8(%rbp)
   160be:	de fb 30 
   160c1:	c7 85 4c ed ff ff 35 	movl   $0x30fbde35,-0x12b4(%rbp)
   160c8:	de fb 30 
   160cb:	c7 85 50 ed ff ff 35 	movl   $0x30fbde35,-0x12b0(%rbp)
   160d2:	de fb 30 
   160d5:	c7 85 54 ed ff ff 06 	movl   $0x6,-0x12ac(%rbp)
   160dc:	00 00 00 
   160df:	c7 85 58 ed ff ff 06 	movl   $0x6,-0x12a8(%rbp)
   160e6:	00 00 00 
   160e9:	c7 85 5c ed ff ff 06 	movl   $0x6,-0x12a4(%rbp)
   160f0:	00 00 00 
   160f3:	c7 85 60 ed ff ff 06 	movl   $0x6,-0x12a0(%rbp)
   160fa:	00 00 00 
   160fd:	c7 85 64 ed ff ff 06 	movl   $0x6,-0x129c(%rbp)
   16104:	00 00 00 
   16107:	c7 85 68 ed ff ff 06 	movl   $0x6,-0x1298(%rbp)
   1610e:	00 00 00 
   16111:	c7 85 6c ed ff ff 06 	movl   $0x6,-0x1294(%rbp)
   16118:	00 00 00 
   1611b:	c7 85 70 ed ff ff 06 	movl   $0x6,-0x1290(%rbp)
   16122:	00 00 00 
   16125:	c7 85 74 ed ff ff 06 	movl   $0x6,-0x128c(%rbp)
   1612c:	00 00 00 
   1612f:	c7 85 78 ed ff ff 35 	movl   $0x30fbde35,-0x1288(%rbp)
   16136:	de fb 30 
   16139:	c7 85 7c ed ff ff 35 	movl   $0x30fbde35,-0x1284(%rbp)
   16140:	de fb 30 
   16143:	c7 85 80 ed ff ff 35 	movl   $0x30fbde35,-0x1280(%rbp)
   1614a:	de fb 30 
   1614d:	c7 85 84 ed ff ff 35 	movl   $0x30fbde35,-0x127c(%rbp)
   16154:	de fb 30 
   16157:	c7 85 88 ed ff ff 35 	movl   $0x30fbde35,-0x1278(%rbp)
   1615e:	de fb 30 
   16161:	c7 85 8c ed ff ff 35 	movl   $0x30fbde35,-0x1274(%rbp)
   16168:	de fb 30 
   1616b:	c7 85 90 ed ff ff 35 	movl   $0x30fbde35,-0x1270(%rbp)
   16172:	de fb 30 
   16175:	c7 85 94 ed ff ff 35 	movl   $0x30fbde35,-0x126c(%rbp)
   1617c:	de fb 30 
   1617f:	c7 85 98 ed ff ff 35 	movl   $0x30fbde35,-0x1268(%rbp)
   16186:	de fb 30 
   16189:	c7 85 c8 e8 ff ff 00 	movl   $0x0,-0x1738(%rbp)
   16190:	00 00 00 
   16193:	eb 19                	jmp    161ae <func_60+0x1f1e>
   16195:	8b 85 c8 e8 ff ff    	mov    -0x1738(%rbp),%eax
   1619b:	48 98                	cltq   
   1619d:	66 c7 84 45 e0 eb ff 	movw   $0x1857,-0x1420(%rbp,%rax,2)
   161a4:	ff 57 18 
   161a7:	83 85 c8 e8 ff ff 01 	addl   $0x1,-0x1738(%rbp)
   161ae:	83 bd c8 e8 ff ff 09 	cmpl   $0x9,-0x1738(%rbp)
   161b5:	7e de                	jle    16195 <func_60+0x1f05>
   161b7:	c7 85 c8 e8 ff ff 00 	movl   $0x0,-0x1738(%rbp)
   161be:	00 00 00 
   161c1:	eb 1e                	jmp    161e1 <func_60+0x1f51>
   161c3:	8b 85 c8 e8 ff ff    	mov    -0x1738(%rbp),%eax
   161c9:	48 98                	cltq   
   161cb:	48 8d 95 b0 e9 ff ff 	lea    -0x1650(%rbp),%rdx
   161d2:	48 89 94 c5 c8 eb ff 	mov    %rdx,-0x1438(%rbp,%rax,8)
   161d9:	ff 
   161da:	83 85 c8 e8 ff ff 01 	addl   $0x1,-0x1738(%rbp)
   161e1:	83 bd c8 e8 ff ff 00 	cmpl   $0x0,-0x1738(%rbp)
   161e8:	7e d9                	jle    161c3 <func_60+0x1f33>
   161ea:	90                   	nop
   161eb:	48 8b 05 6e 05 01 00 	mov    0x1056e(%rip),%rax        # 26760 <g_881>
   161f2:	48 8b 95 a8 e9 ff ff 	mov    -0x1658(%rbp),%rdx
   161f9:	48 89 10             	mov    %rdx,(%rax)
   161fc:	c6 05 5d df 00 00 00 	movb   $0x0,0xdf5d(%rip)        # 24160 <g_104>
   16203:	e9 52 27 00 00       	jmpq   1895a <func_60+0x46ca>
   16208:	48 c7 85 70 ea ff ff 	movq   $0x0,-0x1590(%rbp)
   1620f:	00 00 00 00 
   16213:	48 8d 05 de 04 01 00 	lea    0x104de(%rip),%rax        # 266f8 <g_635>
   1621a:	48 89 85 e0 e9 ff ff 	mov    %rax,-0x1620(%rbp)
   16221:	48 8d 85 e0 e9 ff ff 	lea    -0x1620(%rbp),%rax
   16228:	48 89 85 e8 e9 ff ff 	mov    %rax,-0x1618(%rbp)
   1622f:	48 8d 85 60 ec ff ff 	lea    -0x13a0(%rbp),%rax
   16236:	48 89 85 78 ea ff ff 	mov    %rax,-0x1588(%rbp)
   1623d:	48 8d 05 ec de 00 00 	lea    0xdeec(%rip),%rax        # 24130 <g_75+0xf0>
   16244:	48 89 85 00 ea ff ff 	mov    %rax,-0x1600(%rbp)
   1624b:	48 c7 85 80 ea ff ff 	movq   $0xfffffffffffffff7,-0x1580(%rbp)
   16252:	f7 ff ff ff 
   16256:	66 c7 85 d2 eb ff ff 	movw   $0x48f,-0x142e(%rbp)
   1625d:	8f 04 
   1625f:	66 c7 85 d4 eb ff ff 	movw   $0x48f,-0x142c(%rbp)
   16266:	8f 04 
   16268:	66 c7 85 d6 eb ff ff 	movw   $0x48f,-0x142a(%rbp)
   1626f:	8f 04 
   16271:	66 c7 85 d8 eb ff ff 	movw   $0x48f,-0x1428(%rbp)
   16278:	8f 04 
   1627a:	66 c7 85 da eb ff ff 	movw   $0x48f,-0x1426(%rbp)
   16281:	8f 04 
   16283:	66 c7 85 dc eb ff ff 	movw   $0x48f,-0x1424(%rbp)
   1628a:	8f 04 
   1628c:	66 c7 85 de eb ff ff 	movw   $0x48f,-0x1422(%rbp)
   16293:	8f 04 
   16295:	c7 85 ac e8 ff ff 01 	movl   $0x1,-0x1754(%rbp)
   1629c:	00 00 00 
   1629f:	c7 85 70 ef ff ff 01 	movl   $0x1,-0x1090(%rbp)
   162a6:	00 00 00 
   162a9:	c7 85 74 ef ff ff 56 	movl   $0xd6cd2e56,-0x108c(%rbp)
   162b0:	2e cd d6 
   162b3:	c7 85 78 ef ff ff 56 	movl   $0xd6cd2e56,-0x1088(%rbp)
   162ba:	2e cd d6 
   162bd:	c7 85 7c ef ff ff 05 	movl   $0x5,-0x1084(%rbp)
   162c4:	00 00 00 
   162c7:	c7 85 80 ef ff ff 5b 	movl   $0x8d871d5b,-0x1080(%rbp)
   162ce:	1d 87 8d 
   162d1:	c7 85 84 ef ff ff fb 	movl   $0xfffffffb,-0x107c(%rbp)
   162d8:	ff ff ff 
   162db:	c7 85 88 ef ff ff 01 	movl   $0x1,-0x1078(%rbp)
   162e2:	00 00 00 
   162e5:	c7 85 8c ef ff ff 56 	movl   $0xd6cd2e56,-0x1074(%rbp)
   162ec:	2e cd d6 
   162ef:	c7 85 90 ef ff ff 56 	movl   $0xd6cd2e56,-0x1070(%rbp)
   162f6:	2e cd d6 
   162f9:	c7 85 94 ef ff ff 05 	movl   $0x5,-0x106c(%rbp)
   16300:	00 00 00 
   16303:	c7 85 98 ef ff ff 5b 	movl   $0x8d871d5b,-0x1068(%rbp)
   1630a:	1d 87 8d 
   1630d:	c7 85 9c ef ff ff fb 	movl   $0xfffffffb,-0x1064(%rbp)
   16314:	ff ff ff 
   16317:	c7 85 a0 ef ff ff 01 	movl   $0x1,-0x1060(%rbp)
   1631e:	00 00 00 
   16321:	c7 85 a4 ef ff ff 56 	movl   $0xd6cd2e56,-0x105c(%rbp)
   16328:	2e cd d6 
   1632b:	c7 85 a8 ef ff ff 56 	movl   $0xd6cd2e56,-0x1058(%rbp)
   16332:	2e cd d6 
   16335:	c7 85 ac ef ff ff 05 	movl   $0x5,-0x1054(%rbp)
   1633c:	00 00 00 
   1633f:	c7 85 b0 ef ff ff 5b 	movl   $0x8d871d5b,-0x1050(%rbp)
   16346:	1d 87 8d 
   16349:	c7 85 b4 ef ff ff fb 	movl   $0xfffffffb,-0x104c(%rbp)
   16350:	ff ff ff 
   16353:	c7 85 b8 ef ff ff 01 	movl   $0x1,-0x1048(%rbp)
   1635a:	00 00 00 
   1635d:	c7 85 bc ef ff ff 56 	movl   $0xd6cd2e56,-0x1044(%rbp)
   16364:	2e cd d6 
   16367:	c7 85 c0 ef ff ff 56 	movl   $0xd6cd2e56,-0x1040(%rbp)
   1636e:	2e cd d6 
   16371:	c7 85 c4 ef ff ff 05 	movl   $0x5,-0x103c(%rbp)
   16378:	00 00 00 
   1637b:	c7 85 c8 ef ff ff 5b 	movl   $0x8d871d5b,-0x1038(%rbp)
   16382:	1d 87 8d 
   16385:	c7 85 cc ef ff ff fb 	movl   $0xfffffffb,-0x1034(%rbp)
   1638c:	ff ff ff 
   1638f:	c7 85 d0 ef ff ff 01 	movl   $0x1,-0x1030(%rbp)
   16396:	00 00 00 
   16399:	c7 85 d4 ef ff ff 56 	movl   $0xd6cd2e56,-0x102c(%rbp)
   163a0:	2e cd d6 
   163a3:	c7 85 d8 ef ff ff 56 	movl   $0xd6cd2e56,-0x1028(%rbp)
   163aa:	2e cd d6 
   163ad:	c7 85 dc ef ff ff 05 	movl   $0x5,-0x1024(%rbp)
   163b4:	00 00 00 
   163b7:	c7 85 e0 ef ff ff 5b 	movl   $0x8d871d5b,-0x1020(%rbp)
   163be:	1d 87 8d 
   163c1:	c7 85 e4 ef ff ff fb 	movl   $0xfffffffb,-0x101c(%rbp)
   163c8:	ff ff ff 
   163cb:	c7 85 e8 ef ff ff 01 	movl   $0x1,-0x1018(%rbp)
   163d2:	00 00 00 
   163d5:	c7 85 ec ef ff ff 56 	movl   $0xd6cd2e56,-0x1014(%rbp)
   163dc:	2e cd d6 
   163df:	c7 85 f0 ef ff ff 56 	movl   $0xd6cd2e56,-0x1010(%rbp)
   163e6:	2e cd d6 
   163e9:	c7 85 f4 ef ff ff 05 	movl   $0x5,-0x100c(%rbp)
   163f0:	00 00 00 
   163f3:	c7 85 f8 ef ff ff 5b 	movl   $0x8d871d5b,-0x1008(%rbp)
   163fa:	1d 87 8d 
   163fd:	c7 85 fc ef ff ff fb 	movl   $0xfffffffb,-0x1004(%rbp)
   16404:	ff ff ff 
   16407:	c7 85 00 f0 ff ff 01 	movl   $0x1,-0x1000(%rbp)
   1640e:	00 00 00 
   16411:	c7 85 04 f0 ff ff 56 	movl   $0xd6cd2e56,-0xffc(%rbp)
   16418:	2e cd d6 
   1641b:	c7 85 08 f0 ff ff 56 	movl   $0xd6cd2e56,-0xff8(%rbp)
   16422:	2e cd d6 
   16425:	c7 85 0c f0 ff ff 05 	movl   $0x5,-0xff4(%rbp)
   1642c:	00 00 00 
   1642f:	c7 85 10 f0 ff ff 5b 	movl   $0x8d871d5b,-0xff0(%rbp)
   16436:	1d 87 8d 
   16439:	c7 85 14 f0 ff ff fb 	movl   $0xfffffffb,-0xfec(%rbp)
   16440:	ff ff ff 
   16443:	c7 85 18 f0 ff ff 01 	movl   $0x1,-0xfe8(%rbp)
   1644a:	00 00 00 
   1644d:	c7 85 1c f0 ff ff 56 	movl   $0xd6cd2e56,-0xfe4(%rbp)
   16454:	2e cd d6 
   16457:	c7 85 20 f0 ff ff 56 	movl   $0xd6cd2e56,-0xfe0(%rbp)
   1645e:	2e cd d6 
   16461:	c7 85 24 f0 ff ff 05 	movl   $0x5,-0xfdc(%rbp)
   16468:	00 00 00 
   1646b:	c7 85 28 f0 ff ff 5b 	movl   $0x8d871d5b,-0xfd8(%rbp)
   16472:	1d 87 8d 
   16475:	c7 85 2c f0 ff ff fb 	movl   $0xfffffffb,-0xfd4(%rbp)
   1647c:	ff ff ff 
   1647f:	c7 85 b0 e8 ff ff ec 	movl   $0xd337bdec,-0x1750(%rbp)
   16486:	bd 37 d3 
   16489:	c7 85 00 e9 ff ff ff 	movl   $0xffffffff,-0x1700(%rbp)
   16490:	ff ff ff 
   16493:	48 83 bd 88 e8 ff ff 	cmpq   $0x0,-0x1778(%rbp)
   1649a:	00 
   1649b:	0f 85 ca 24 00 00    	jne    1896b <func_60+0x46db>
   164a1:	48 8b 85 a0 e9 ff ff 	mov    -0x1660(%rbp),%rax
   164a8:	48 8b 00             	mov    (%rax),%rax
   164ab:	48 39 85 f0 e9 ff ff 	cmp    %rax,-0x1610(%rbp)
   164b2:	0f 94 c0             	sete   %al
   164b5:	0f b6 c0             	movzbl %al,%eax
   164b8:	be 0b 00 00 00       	mov    $0xb,%esi
   164bd:	89 c7                	mov    %eax,%edi
   164bf:	e8 9f 30 ff ff       	callq  9563 <safe_rshift_func_int16_t_s_u>
   164c4:	89 c2                	mov    %eax,%edx
   164c6:	48 8b 05 d3 01 01 00 	mov    0x101d3(%rip),%rax        # 266a0 <g_94>
   164cd:	0f bf d2             	movswl %dx,%edx
   164d0:	89 10                	mov    %edx,(%rax)
   164d2:	48 8b 85 88 e8 ff ff 	mov    -0x1778(%rbp),%rax
   164d9:	41 89 c4             	mov    %eax,%r12d
   164dc:	48 8b 85 88 e8 ff ff 	mov    -0x1778(%rbp),%rax
   164e3:	41 89 c5             	mov    %eax,%r13d
   164e6:	48 8b 85 98 e9 ff ff 	mov    -0x1668(%rbp),%rax
   164ed:	48 8b 00             	mov    (%rax),%rax
   164f0:	8b 00                	mov    (%rax),%eax
   164f2:	48 63 d8             	movslq %eax,%rbx
   164f5:	48 8b 85 88 e8 ff ff 	mov    -0x1778(%rbp),%rax
   164fc:	0f b6 d0             	movzbl %al,%edx
   164ff:	48 8b 85 88 e8 ff ff 	mov    -0x1778(%rbp),%rax
   16506:	0f b6 c0             	movzbl %al,%eax
   16509:	89 d6                	mov    %edx,%esi
   1650b:	89 c7                	mov    %eax,%edi
   1650d:	e8 81 36 ff ff       	callq  9b93 <safe_mul_func_uint8_t_u_u>
   16512:	48 8b 85 88 e8 ff ff 	mov    -0x1778(%rbp),%rax
   16519:	89 c2                	mov    %eax,%edx
   1651b:	48 8b 85 88 e8 ff ff 	mov    -0x1778(%rbp),%rax
   16522:	89 d6                	mov    %edx,%esi
   16524:	89 c7                	mov    %eax,%edi
   16526:	e8 a5 39 ff ff       	callq  9ed0 <safe_sub_func_uint32_t_u_u>
   1652b:	48 8b 85 e8 e9 ff ff 	mov    -0x1618(%rbp),%rax
   16532:	48 c7 00 00 00 00 00 	movq   $0x0,(%rax)
   16539:	be 01 00 00 00       	mov    $0x1,%esi
   1653e:	bf 01 00 00 00       	mov    $0x1,%edi
   16543:	e8 d7 37 ff ff       	callq  9d1f <safe_sub_func_uint16_t_u_u>
   16548:	8b 85 58 ec ff ff    	mov    -0x13a8(%rbp),%eax
   1654e:	85 c0                	test   %eax,%eax
   16550:	0f 94 c0             	sete   %al
   16553:	0f b6 c0             	movzbl %al,%eax
   16556:	48 39 85 88 e8 ff ff 	cmp    %rax,-0x1778(%rbp)
   1655d:	0f 9c c0             	setl   %al
   16560:	0f b6 d0             	movzbl %al,%edx
   16563:	48 8b 05 46 22 01 00 	mov    0x12246(%rip),%rax        # 287b0 <g_1029>
   1656a:	48 8d 0d 4f d6 00 00 	lea    0xd64f(%rip),%rcx        # 23bc0 <g_192>
   16571:	48 39 c8             	cmp    %rcx,%rax
   16574:	0f 94 c0             	sete   %al
   16577:	0f b6 c0             	movzbl %al,%eax
   1657a:	89 d6                	mov    %edx,%esi
   1657c:	89 c7                	mov    %eax,%edi
   1657e:	e8 ba 37 ff ff       	callq  9d3d <safe_mul_func_uint16_t_u_u>
   16583:	0f b7 c0             	movzwl %ax,%eax
   16586:	48 89 de             	mov    %rbx,%rsi
   16589:	48 89 c7             	mov    %rax,%rdi
   1658c:	e8 23 34 ff ff       	callq  99b4 <safe_mod_func_int64_t_s_s>
   16591:	98                   	cwtl   
   16592:	44 89 ee             	mov    %r13d,%esi
   16595:	89 c7                	mov    %eax,%edi
   16597:	e8 45 2f ff ff       	callq  94e1 <safe_lshift_func_int16_t_s_u>
   1659c:	98                   	cwtl   
   1659d:	44 89 e6             	mov    %r12d,%esi
   165a0:	89 c7                	mov    %eax,%edi
   165a2:	e8 eb 2e ff ff       	callq  9492 <safe_lshift_func_int16_t_s_s>
   165a7:	89 c2                	mov    %eax,%edx
   165a9:	48 8b 85 a8 e9 ff ff 	mov    -0x1658(%rbp),%rax
   165b0:	0f bf d2             	movswl %dx,%edx
   165b3:	89 10                	mov    %edx,(%rax)
   165b5:	8b 00                	mov    (%rax),%eax
   165b7:	48 98                	cltq   
   165b9:	48 39 85 88 e8 ff ff 	cmp    %rax,-0x1778(%rbp)
   165c0:	7e 07                	jle    165c9 <func_60+0x2339>
   165c2:	ba fe 00 00 00       	mov    $0xfe,%edx
   165c7:	eb 05                	jmp    165ce <func_60+0x233e>
   165c9:	ba ff 00 00 00       	mov    $0xff,%edx
   165ce:	48 8b 85 88 e8 ff ff 	mov    -0x1778(%rbp),%rax
   165d5:	48 89 c6             	mov    %rax,%rsi
   165d8:	48 89 d7             	mov    %rdx,%rdi
   165db:	e8 c8 32 ff ff       	callq  98a8 <safe_sub_func_int64_t_s_s>
   165e0:	48 85 c0             	test   %rax,%rax
   165e3:	0f 84 cb 22 00 00    	je     188b4 <func_60+0x4624>
   165e9:	48 b8 4e 43 6b 52 ab 	movabs $0xfa406bab526b434e,%rax
   165f0:	6b 40 fa 
   165f3:	48 89 85 88 ea ff ff 	mov    %rax,-0x1578(%rbp)
   165fa:	c7 85 cc e8 ff ff 01 	movl   $0x1,-0x1734(%rbp)
   16601:	00 00 00 
   16604:	48 8d 85 98 e8 ff ff 	lea    -0x1768(%rbp),%rax
   1660b:	48 89 85 90 ea ff ff 	mov    %rax,-0x1570(%rbp)
   16612:	c7 85 04 e9 ff ff 00 	movl   $0x0,-0x16fc(%rbp)
   16619:	00 00 00 
   1661c:	c7 85 d0 ee ff ff 97 	movl   $0x7cd7cb97,-0x1130(%rbp)
   16623:	cb d7 7c 
   16626:	c7 85 d4 ee ff ff ee 	movl   $0x41273dee,-0x112c(%rbp)
   1662d:	3d 27 41 
   16630:	c7 85 d8 ee ff ff ee 	movl   $0x41273dee,-0x1128(%rbp)
   16637:	3d 27 41 
   1663a:	c7 85 dc ee ff ff 97 	movl   $0x7cd7cb97,-0x1124(%rbp)
   16641:	cb d7 7c 
   16644:	c7 85 e0 ee ff ff ee 	movl   $0x41273dee,-0x1120(%rbp)
   1664b:	3d 27 41 
   1664e:	c7 85 e4 ee ff ff 97 	movl   $0x7cd7cb97,-0x111c(%rbp)
   16655:	cb d7 7c 
   16658:	c7 85 e8 ee ff ff ee 	movl   $0x41273dee,-0x1118(%rbp)
   1665f:	3d 27 41 
   16662:	c7 85 ec ee ff ff ee 	movl   $0x41273dee,-0x1114(%rbp)
   16669:	3d 27 41 
   1666c:	c7 85 f0 ee ff ff 97 	movl   $0x7cd7cb97,-0x1110(%rbp)
   16673:	cb d7 7c 
   16676:	c7 85 f4 ee ff ff 97 	movl   $0x7cd7cb97,-0x110c(%rbp)
   1667d:	cb d7 7c 
   16680:	c7 85 f8 ee ff ff 8d 	movl   $0x9409438d,-0x1108(%rbp)
   16687:	43 09 94 
   1668a:	c7 85 fc ee ff ff 97 	movl   $0x7cd7cb97,-0x1104(%rbp)
   16691:	cb d7 7c 
   16694:	c7 85 00 ef ff ff 97 	movl   $0x7cd7cb97,-0x1100(%rbp)
   1669b:	cb d7 7c 
   1669e:	c7 85 04 ef ff ff ee 	movl   $0x41273dee,-0x10fc(%rbp)
   166a5:	3d 27 41 
   166a8:	c7 85 08 ef ff ff ee 	movl   $0x41273dee,-0x10f8(%rbp)
   166af:	3d 27 41 
   166b2:	c7 85 0c ef ff ff 97 	movl   $0x7cd7cb97,-0x10f4(%rbp)
   166b9:	cb d7 7c 
   166bc:	c7 85 10 ef ff ff ee 	movl   $0x41273dee,-0x10f0(%rbp)
   166c3:	3d 27 41 
   166c6:	c7 85 14 ef ff ff 97 	movl   $0x7cd7cb97,-0x10ec(%rbp)
   166cd:	cb d7 7c 
   166d0:	c7 85 18 ef ff ff ee 	movl   $0x41273dee,-0x10e8(%rbp)
   166d7:	3d 27 41 
   166da:	c7 85 1c ef ff ff ee 	movl   $0x41273dee,-0x10e4(%rbp)
   166e1:	3d 27 41 
   166e4:	c7 85 20 ef ff ff 97 	movl   $0x7cd7cb97,-0x10e0(%rbp)
   166eb:	cb d7 7c 
   166ee:	c7 85 24 ef ff ff 97 	movl   $0x7cd7cb97,-0x10dc(%rbp)
   166f5:	cb d7 7c 
   166f8:	c7 85 28 ef ff ff 8d 	movl   $0x9409438d,-0x10d8(%rbp)
   166ff:	43 09 94 
   16702:	c7 85 2c ef ff ff 97 	movl   $0x7cd7cb97,-0x10d4(%rbp)
   16709:	cb d7 7c 
   1670c:	c7 85 30 ef ff ff 97 	movl   $0x7cd7cb97,-0x10d0(%rbp)
   16713:	cb d7 7c 
   16716:	c7 85 34 ef ff ff ee 	movl   $0x41273dee,-0x10cc(%rbp)
   1671d:	3d 27 41 
   16720:	c7 85 38 ef ff ff ee 	movl   $0x41273dee,-0x10c8(%rbp)
   16727:	3d 27 41 
   1672a:	c7 85 3c ef ff ff 97 	movl   $0x7cd7cb97,-0x10c4(%rbp)
   16731:	cb d7 7c 
   16734:	c7 85 40 ef ff ff ee 	movl   $0x41273dee,-0x10c0(%rbp)
   1673b:	3d 27 41 
   1673e:	c7 85 44 ef ff ff 97 	movl   $0x7cd7cb97,-0x10bc(%rbp)
   16745:	cb d7 7c 
   16748:	c7 85 48 ef ff ff ee 	movl   $0x41273dee,-0x10b8(%rbp)
   1674f:	3d 27 41 
   16752:	c7 85 4c ef ff ff ee 	movl   $0x41273dee,-0x10b4(%rbp)
   16759:	3d 27 41 
   1675c:	c7 85 50 ef ff ff 97 	movl   $0x7cd7cb97,-0x10b0(%rbp)
   16763:	cb d7 7c 
   16766:	c7 85 54 ef ff ff 97 	movl   $0x7cd7cb97,-0x10ac(%rbp)
   1676d:	cb d7 7c 
   16770:	c7 85 58 ef ff ff 8d 	movl   $0x9409438d,-0x10a8(%rbp)
   16777:	43 09 94 
   1677a:	c7 85 5c ef ff ff 97 	movl   $0x7cd7cb97,-0x10a4(%rbp)
   16781:	cb d7 7c 
   16784:	c7 85 60 ef ff ff 97 	movl   $0x7cd7cb97,-0x10a0(%rbp)
   1678b:	cb d7 7c 
   1678e:	c7 85 64 ef ff ff ee 	movl   $0x41273dee,-0x109c(%rbp)
   16795:	3d 27 41 
   16798:	c7 85 68 ef ff ff ee 	movl   $0x41273dee,-0x1098(%rbp)
   1679f:	3d 27 41 
   167a2:	c7 85 6c ef ff ff 97 	movl   $0x7cd7cb97,-0x1094(%rbp)
   167a9:	cb d7 7c 
   167ac:	c6 85 9d e8 ff ff 62 	movb   $0x62,-0x1763(%rbp)
   167b3:	48 8d 85 a0 e9 ff ff 	lea    -0x1660(%rbp),%rax
   167ba:	48 89 85 30 f0 ff ff 	mov    %rax,-0xfd0(%rbp)
   167c1:	48 8d 85 a0 e9 ff ff 	lea    -0x1660(%rbp),%rax
   167c8:	48 89 85 38 f0 ff ff 	mov    %rax,-0xfc8(%rbp)
   167cf:	48 8d 85 a0 e9 ff ff 	lea    -0x1660(%rbp),%rax
   167d6:	48 89 85 40 f0 ff ff 	mov    %rax,-0xfc0(%rbp)
   167dd:	48 8d 85 a0 e9 ff ff 	lea    -0x1660(%rbp),%rax
   167e4:	48 89 85 48 f0 ff ff 	mov    %rax,-0xfb8(%rbp)
   167eb:	48 8d 85 a0 e9 ff ff 	lea    -0x1660(%rbp),%rax
   167f2:	48 89 85 50 f0 ff ff 	mov    %rax,-0xfb0(%rbp)
   167f9:	48 c7 85 58 f0 ff ff 	movq   $0x0,-0xfa8(%rbp)
   16800:	00 00 00 00 
   16804:	48 8d 85 a0 e9 ff ff 	lea    -0x1660(%rbp),%rax
   1680b:	48 89 85 60 f0 ff ff 	mov    %rax,-0xfa0(%rbp)
   16812:	48 8d 85 a0 e9 ff ff 	lea    -0x1660(%rbp),%rax
   16819:	48 89 85 68 f0 ff ff 	mov    %rax,-0xf98(%rbp)
   16820:	48 8d 85 a0 e9 ff ff 	lea    -0x1660(%rbp),%rax
   16827:	48 89 85 70 f0 ff ff 	mov    %rax,-0xf90(%rbp)
   1682e:	48 8d 85 a0 e9 ff ff 	lea    -0x1660(%rbp),%rax
   16835:	48 89 85 78 f0 ff ff 	mov    %rax,-0xf88(%rbp)
   1683c:	48 8d 85 a0 e9 ff ff 	lea    -0x1660(%rbp),%rax
   16843:	48 89 85 80 f0 ff ff 	mov    %rax,-0xf80(%rbp)
   1684a:	48 8d 85 a0 e9 ff ff 	lea    -0x1660(%rbp),%rax
   16851:	48 89 85 88 f0 ff ff 	mov    %rax,-0xf78(%rbp)
   16858:	48 c7 85 90 f0 ff ff 	movq   $0x0,-0xf70(%rbp)
   1685f:	00 00 00 00 
   16863:	48 8d 85 a0 e9 ff ff 	lea    -0x1660(%rbp),%rax
   1686a:	48 89 85 98 f0 ff ff 	mov    %rax,-0xf68(%rbp)
   16871:	48 8d 85 a0 e9 ff ff 	lea    -0x1660(%rbp),%rax
   16878:	48 89 85 a0 f0 ff ff 	mov    %rax,-0xf60(%rbp)
   1687f:	48 8d 85 a0 e9 ff ff 	lea    -0x1660(%rbp),%rax
   16886:	48 89 85 a8 f0 ff ff 	mov    %rax,-0xf58(%rbp)
   1688d:	48 8d 85 a0 e9 ff ff 	lea    -0x1660(%rbp),%rax
   16894:	48 89 85 b0 f0 ff ff 	mov    %rax,-0xf50(%rbp)
   1689b:	48 8d 85 a0 e9 ff ff 	lea    -0x1660(%rbp),%rax
   168a2:	48 89 85 b8 f0 ff ff 	mov    %rax,-0xf48(%rbp)
   168a9:	48 8d 85 a0 e9 ff ff 	lea    -0x1660(%rbp),%rax
   168b0:	48 89 85 c0 f0 ff ff 	mov    %rax,-0xf40(%rbp)
   168b7:	48 c7 85 c8 f0 ff ff 	movq   $0x0,-0xf38(%rbp)
   168be:	00 00 00 00 
   168c2:	48 8d 85 a0 e9 ff ff 	lea    -0x1660(%rbp),%rax
   168c9:	48 89 85 d0 f0 ff ff 	mov    %rax,-0xf30(%rbp)
   168d0:	48 8d 85 a0 e9 ff ff 	lea    -0x1660(%rbp),%rax
   168d7:	48 89 85 d8 f0 ff ff 	mov    %rax,-0xf28(%rbp)
   168de:	48 8d 85 a0 e9 ff ff 	lea    -0x1660(%rbp),%rax
   168e5:	48 89 85 e0 f0 ff ff 	mov    %rax,-0xf20(%rbp)
   168ec:	48 8d 85 a0 e9 ff ff 	lea    -0x1660(%rbp),%rax
   168f3:	48 89 85 e8 f0 ff ff 	mov    %rax,-0xf18(%rbp)
   168fa:	48 8d 85 a0 e9 ff ff 	lea    -0x1660(%rbp),%rax
   16901:	48 89 85 f0 f0 ff ff 	mov    %rax,-0xf10(%rbp)
   16908:	48 b8 f2 4d 1d d0 c2 	movabs $0xf247ac2d01d4df2,%rax
   1690f:	7a 24 0f 
   16912:	48 89 85 98 ea ff ff 	mov    %rax,-0x1568(%rbp)
   16919:	66 c7 85 a2 e8 ff ff 	movw   $0xfff7,-0x175e(%rbp)
   16920:	f7 ff 
   16922:	c7 85 b4 e8 ff ff a3 	movl   $0xec3526a3,-0x174c(%rbp)
   16929:	26 35 ec 
   1692c:	48 8d 85 20 ec ff ff 	lea    -0x13e0(%rbp),%rax
   16933:	48 83 c0 14          	add    $0x14,%rax
   16937:	48 89 85 08 ea ff ff 	mov    %rax,-0x15f8(%rbp)
   1693e:	66 c7 85 a4 e8 ff ff 	movw   $0xeb53,-0x175c(%rbp)
   16945:	53 eb 
   16947:	48 8d 05 4a fe 00 00 	lea    0xfe4a(%rip),%rax        # 26798 <g_1329>
   1694e:	48 89 85 a0 ea ff ff 	mov    %rax,-0x1560(%rbp)
   16955:	48 8b 85 88 e8 ff ff 	mov    -0x1778(%rbp),%rax
   1695c:	41 89 c4             	mov    %eax,%r12d
   1695f:	48 8b 85 88 e8 ff ff 	mov    -0x1778(%rbp),%rax
   16966:	48 89 c6             	mov    %rax,%rsi
   16969:	48 bf 9d fd 25 77 d5 	movabs $0xfea1a7d57725fd9d,%rdi
   16970:	a7 a1 fe 
   16973:	e8 b6 36 ff ff       	callq  a02e <safe_add_func_uint64_t_u_u>
   16978:	48 8b 95 88 e8 ff ff 	mov    -0x1778(%rbp),%rdx
   1697f:	48 39 d0             	cmp    %rdx,%rax
   16982:	72 07                	jb     1698b <func_60+0x26fb>
   16984:	bb 82 14 00 00       	mov    $0x1482,%ebx
   16989:	eb 05                	jmp    16990 <func_60+0x2700>
   1698b:	bb 83 14 00 00       	mov    $0x1483,%ebx
   16990:	0f b6 05 5b d9 00 00 	movzbl 0xd95b(%rip),%eax        # 242f2 <g_777>
   16997:	0f b6 c0             	movzbl %al,%eax
   1699a:	89 c6                	mov    %eax,%esi
   1699c:	bf f7 ff 00 00       	mov    $0xfff7,%edi
   169a1:	e8 97 33 ff ff       	callq  9d3d <safe_mul_func_uint16_t_u_u>
   169a6:	0f b7 c0             	movzwl %ax,%eax
   169a9:	f7 d0                	not    %eax
   169ab:	89 c7                	mov    %eax,%edi
   169ad:	e8 f4 34 ff ff       	callq  9ea6 <safe_unary_minus_func_uint32_t_u>
   169b2:	0f be c0             	movsbl %al,%eax
   169b5:	89 c6                	mov    %eax,%esi
   169b7:	bf 39 00 00 00       	mov    $0x39,%edi
   169bc:	e8 51 28 ff ff       	callq  9212 <safe_mul_func_int8_t_s_s>
   169c1:	48 8b 85 80 e9 ff ff 	mov    -0x1680(%rbp),%rax
   169c8:	48 8b 95 78 ea ff ff 	mov    -0x1588(%rbp),%rdx
   169cf:	48 89 10             	mov    %rdx,(%rax)
   169d2:	48 8b 00             	mov    (%rax),%rax
   169d5:	48 85 c0             	test   %rax,%rax
   169d8:	0f 95 c0             	setne  %al
   169db:	0f b6 c0             	movzbl %al,%eax
   169de:	48 39 85 88 e8 ff ff 	cmp    %rax,-0x1778(%rbp)
   169e5:	0f 94 c0             	sete   %al
   169e8:	0f b6 c0             	movzbl %al,%eax
   169eb:	89 de                	mov    %ebx,%esi
   169ed:	89 c7                	mov    %eax,%edi
   169ef:	e8 01 2a ff ff       	callq  93f5 <safe_mul_func_int16_t_s_s>
   169f4:	44 89 e6             	mov    %r12d,%esi
   169f7:	bf 01 00 00 00       	mov    $0x1,%edi
   169fc:	e8 47 34 ff ff       	callq  9e48 <safe_rshift_func_uint16_t_u_s>
   16a01:	48 83 bd 88 e8 ff ff 	cmpq   $0x0,-0x1778(%rbp)
   16a08:	00 
   16a09:	0f 84 ed 04 00 00    	je     16efc <func_60+0x2c6c>
   16a0f:	c7 85 14 e9 ff ff ec 	movl   $0xbfd22fec,-0x16ec(%rbp)
   16a16:	2f d2 bf 
   16a19:	c7 85 d0 e8 ff ff fc 	movl   $0xfffffffc,-0x1730(%rbp)
   16a20:	ff ff ff 
   16a23:	c7 85 b8 e8 ff ff 09 	movl   $0x9,-0x1748(%rbp)
   16a2a:	00 00 00 
   16a2d:	c7 85 18 e9 ff ff 01 	movl   $0x1,-0x16e8(%rbp)
   16a34:	00 00 00 
   16a37:	c7 85 d4 e8 ff ff 00 	movl   $0x0,-0x172c(%rbp)
   16a3e:	00 00 00 
   16a41:	48 8d 85 ac e8 ff ff 	lea    -0x1754(%rbp),%rax
   16a48:	48 89 85 90 f6 ff ff 	mov    %rax,-0x970(%rbp)
   16a4f:	48 8d 85 ac e8 ff ff 	lea    -0x1754(%rbp),%rax
   16a56:	48 89 85 98 f6 ff ff 	mov    %rax,-0x968(%rbp)
   16a5d:	48 8d 85 70 ef ff ff 	lea    -0x1090(%rbp),%rax
   16a64:	48 83 c0 28          	add    $0x28,%rax
   16a68:	48 89 85 a0 f6 ff ff 	mov    %rax,-0x960(%rbp)
   16a6f:	48 8d 85 ac e8 ff ff 	lea    -0x1754(%rbp),%rax
   16a76:	48 89 85 a8 f6 ff ff 	mov    %rax,-0x958(%rbp)
   16a7d:	48 8d 85 ac e8 ff ff 	lea    -0x1754(%rbp),%rax
   16a84:	48 89 85 b0 f6 ff ff 	mov    %rax,-0x950(%rbp)
   16a8b:	48 8d 85 70 ef ff ff 	lea    -0x1090(%rbp),%rax
   16a92:	48 83 c0 28          	add    $0x28,%rax
   16a96:	48 89 85 b8 f6 ff ff 	mov    %rax,-0x948(%rbp)
   16a9d:	48 8d 85 ac e8 ff ff 	lea    -0x1754(%rbp),%rax
   16aa4:	48 89 85 c0 f6 ff ff 	mov    %rax,-0x940(%rbp)
   16aab:	48 8d 85 ac e8 ff ff 	lea    -0x1754(%rbp),%rax
   16ab2:	48 89 85 c8 f6 ff ff 	mov    %rax,-0x938(%rbp)
   16ab9:	48 8d 85 70 ef ff ff 	lea    -0x1090(%rbp),%rax
   16ac0:	48 83 c0 28          	add    $0x28,%rax
   16ac4:	48 89 85 d0 f6 ff ff 	mov    %rax,-0x930(%rbp)
   16acb:	48 c7 05 12 d8 00 00 	movq   $0x3,0xd812(%rip)        # 242e8 <g_607>
   16ad2:	03 00 00 00 
   16ad6:	e9 86 02 00 00       	jmpq   16d61 <func_60+0x2ad1>
   16adb:	48 c7 85 d8 ea ff ff 	movq   $0x0,-0x1528(%rbp)
   16ae2:	00 00 00 00 
   16ae6:	48 8d 85 88 e9 ff ff 	lea    -0x1678(%rbp),%rax
   16aed:	48 89 85 e0 ea ff ff 	mov    %rax,-0x1520(%rbp)
   16af4:	48 8d 85 98 e8 ff ff 	lea    -0x1768(%rbp),%rax
   16afb:	48 89 85 e8 ea ff ff 	mov    %rax,-0x1518(%rbp)
   16b02:	c7 85 24 e9 ff ff 00 	movl   $0x0,-0x16dc(%rbp)
   16b09:	00 00 00 
   16b0c:	48 c7 85 f0 ea ff ff 	movq   $0x0,-0x1510(%rbp)
   16b13:	00 00 00 00 
   16b17:	48 8b 85 88 e8 ff ff 	mov    -0x1778(%rbp),%rax
   16b1e:	89 c2                	mov    %eax,%edx
   16b20:	48 8b 05 41 d6 00 00 	mov    0xd641(%rip),%rax        # 24168 <g_126>
   16b27:	0f be c0             	movsbl %al,%eax
   16b2a:	89 d6                	mov    %edx,%esi
   16b2c:	89 c7                	mov    %eax,%edi
   16b2e:	e8 bb 27 ff ff       	callq  92ee <safe_lshift_func_int8_t_s_u>
   16b33:	48 8b 85 88 e8 ff ff 	mov    -0x1778(%rbp),%rax
   16b3a:	0f b7 d8             	movzwl %ax,%ebx
   16b3d:	48 8b 85 e0 ea ff ff 	mov    -0x1520(%rbp),%rax
   16b44:	48 8b 10             	mov    (%rax),%rdx
   16b47:	8b 85 14 e9 ff ff    	mov    -0x16ec(%rbp),%eax
   16b4d:	48 98                	cltq   
   16b4f:	48 31 c2             	xor    %rax,%rdx
   16b52:	48 8b 85 e0 ea ff ff 	mov    -0x1520(%rbp),%rax
   16b59:	48 89 10             	mov    %rdx,(%rax)
   16b5c:	48 8b 85 e0 ea ff ff 	mov    -0x1520(%rbp),%rax
   16b63:	4c 8b 30             	mov    (%rax),%r14
   16b66:	48 8b 85 88 e8 ff ff 	mov    -0x1778(%rbp),%rax
   16b6d:	44 0f b6 e0          	movzbl %al,%r12d
   16b71:	48 8b 85 78 e9 ff ff 	mov    -0x1688(%rbp),%rax
   16b78:	8b 00                	mov    (%rax),%eax
   16b7a:	44 0f b6 e8          	movzbl %al,%r13d
   16b7e:	8b 85 e8 e8 ff ff    	mov    -0x1718(%rbp),%eax
   16b84:	0f b6 c0             	movzbl %al,%eax
   16b87:	48 8b 95 e8 ea ff ff 	mov    -0x1518(%rbp),%rdx
   16b8e:	0f b6 12             	movzbl (%rdx),%edx
   16b91:	48 8b 8d 88 e8 ff ff 	mov    -0x1778(%rbp),%rcx
   16b98:	09 d1                	or     %edx,%ecx
   16b9a:	48 8b 95 e8 ea ff ff 	mov    -0x1518(%rbp),%rdx
   16ba1:	88 0a                	mov    %cl,(%rdx)
   16ba3:	8b 95 14 e9 ff ff    	mov    -0x16ec(%rbp),%edx
   16ba9:	0f b6 d2             	movzbl %dl,%edx
   16bac:	83 e2 01             	and    $0x1,%edx
   16baf:	89 c6                	mov    %eax,%esi
   16bb1:	89 d7                	mov    %edx,%edi
   16bb3:	e8 f6 2f ff ff       	callq  9bae <safe_mod_func_uint8_t_u_u>
   16bb8:	0f b6 c0             	movzbl %al,%eax
   16bbb:	44 89 ee             	mov    %r13d,%esi
   16bbe:	89 c7                	mov    %eax,%edi
   16bc0:	e8 b3 2f ff ff       	callq  9b78 <safe_sub_func_uint8_t_u_u>
   16bc5:	0f b6 d0             	movzbl %al,%edx
   16bc8:	0f b6 05 22 d7 00 00 	movzbl 0xd722(%rip),%eax        # 242f1 <g_771>
   16bcf:	66 98                	cbtw   
   16bd1:	21 d0                	and    %edx,%eax
   16bd3:	0f b7 c0             	movzwl %ax,%eax
   16bd6:	be 7f bb 00 00       	mov    $0xbb7f,%esi
   16bdb:	89 c7                	mov    %eax,%edi
   16bdd:	e8 3d 31 ff ff       	callq  9d1f <safe_sub_func_uint16_t_u_u>
   16be2:	0f b6 c0             	movzbl %al,%eax
   16be5:	44 89 e6             	mov    %r12d,%esi
   16be8:	89 c7                	mov    %eax,%edi
   16bea:	e8 bf 2f ff ff       	callq  9bae <safe_mod_func_uint8_t_u_u>
   16bef:	0f b6 c0             	movzbl %al,%eax
   16bf2:	48 be c2 65 ae 02 24 	movabs $0xb010022402ae65c2,%rsi
   16bf9:	02 10 b0 
   16bfc:	48 89 c7             	mov    %rax,%rdi
   16bff:	e8 f3 2d ff ff       	callq  99f7 <safe_div_func_int64_t_s_s>
   16c04:	48 83 c8 62          	or     $0x62,%rax
   16c08:	48 89 c2             	mov    %rax,%rdx
   16c0b:	0f b6 85 9c e8 ff ff 	movzbl -0x1764(%rbp),%eax
   16c12:	48 39 c2             	cmp    %rax,%rdx
   16c15:	0f 95 c0             	setne  %al
   16c18:	0f b6 c0             	movzbl %al,%eax
   16c1b:	4c 21 f0             	and    %r14,%rax
   16c1e:	21 85 cc e8 ff ff    	and    %eax,-0x1734(%rbp)
   16c24:	8b 85 cc e8 ff ff    	mov    -0x1734(%rbp),%eax
   16c2a:	48 98                	cltq   
   16c2c:	48 ba d1 51 08 a4 ba 	movabs $0x55ebadbaa40851d1,%rdx
   16c33:	ad eb 55 
   16c36:	48 21 d0             	and    %rdx,%rax
   16c39:	48 85 c0             	test   %rax,%rax
   16c3c:	75 15                	jne    16c53 <func_60+0x29c3>
   16c3e:	48 83 bd 88 e8 ff ff 	cmpq   $0x0,-0x1778(%rbp)
   16c45:	00 
   16c46:	75 0b                	jne    16c53 <func_60+0x29c3>
   16c48:	0f b6 05 a3 d6 00 00 	movzbl 0xd6a3(%rip),%eax        # 242f2 <g_777>
   16c4f:	84 c0                	test   %al,%al
   16c51:	74 07                	je     16c5a <func_60+0x29ca>
   16c53:	b8 01 00 00 00       	mov    $0x1,%eax
   16c58:	eb 05                	jmp    16c5f <func_60+0x29cf>
   16c5a:	b8 00 00 00 00       	mov    $0x0,%eax
   16c5f:	89 c2                	mov    %eax,%edx
   16c61:	48 8b 85 88 e8 ff ff 	mov    -0x1778(%rbp),%rax
   16c68:	31 d0                	xor    %edx,%eax
   16c6a:	44 0f b6 e0          	movzbl %al,%r12d
   16c6e:	0f b7 85 ea eb ff ff 	movzwl -0x1416(%rbp),%eax
   16c75:	4c 0f bf e8          	movswq %ax,%r13
   16c79:	8b 05 41 d6 00 00    	mov    0xd641(%rip),%eax        # 242c0 <g_389+0x20>
   16c7f:	98                   	cwtl   
   16c80:	89 c6                	mov    %eax,%esi
   16c82:	bf ed 85 ff ff       	mov    $0xffff85ed,%edi
   16c87:	e8 69 27 ff ff       	callq  93f5 <safe_mul_func_int16_t_s_s>
   16c8c:	48 0f bf c0          	movswq %ax,%rax
   16c90:	4c 89 ee             	mov    %r13,%rsi
   16c93:	48 89 c7             	mov    %rax,%rdi
   16c96:	e8 93 33 ff ff       	callq  a02e <safe_add_func_uint64_t_u_u>
   16c9b:	48 89 c2             	mov    %rax,%rdx
   16c9e:	48 8b 05 63 fa 00 00 	mov    0xfa63(%rip),%rax        # 26708 <g_633>
   16ca5:	48 8b 00             	mov    (%rax),%rax
   16ca8:	48 8b 00             	mov    (%rax),%rax
   16cab:	0f b6 08             	movzbl (%rax),%ecx
   16cae:	09 ca                	or     %ecx,%edx
   16cb0:	88 10                	mov    %dl,(%rax)
   16cb2:	0f b6 00             	movzbl (%rax),%eax
   16cb5:	0f b6 c0             	movzbl %al,%eax
   16cb8:	44 89 e6             	mov    %r12d,%esi
   16cbb:	89 c7                	mov    %eax,%edi
   16cbd:	e8 d1 2e ff ff       	callq  9b93 <safe_mul_func_uint8_t_u_u>
   16cc2:	8b 85 24 e9 ff ff    	mov    -0x16dc(%rbp),%eax
   16cc8:	0f b7 c0             	movzwl %ax,%eax
   16ccb:	89 de                	mov    %ebx,%esi
   16ccd:	89 c7                	mov    %eax,%edi
   16ccf:	e8 2b 30 ff ff       	callq  9cff <safe_add_func_uint16_t_u_u>
   16cd4:	0f be c0             	movsbl %al,%eax
   16cd7:	be 08 00 00 00       	mov    $0x8,%esi
   16cdc:	89 c7                	mov    %eax,%edi
   16cde:	e8 2f 25 ff ff       	callq  9212 <safe_mul_func_int8_t_s_s>
   16ce3:	84 c0                	test   %al,%al
   16ce5:	74 08                	je     16cef <func_60+0x2a5f>
   16ce7:	48 83 bd 88 e8 ff ff 	cmpq   $0x0,-0x1778(%rbp)
   16cee:	00 
   16cef:	b9 01 00 00 00       	mov    $0x1,%ecx
   16cf4:	48 8b 85 68 e9 ff ff 	mov    -0x1698(%rbp),%rax
   16cfb:	0f b7 10             	movzwl (%rax),%edx
   16cfe:	48 8b 85 68 e9 ff ff 	mov    -0x1698(%rbp),%rax
   16d05:	31 ca                	xor    %ecx,%edx
   16d07:	66 89 10             	mov    %dx,(%rax)
   16d0a:	48 8b 05 6f fa 00 00 	mov    0xfa6f(%rip),%rax        # 26780 <g_1090>
   16d11:	48 39 85 40 ea ff ff 	cmp    %rax,-0x15c0(%rbp)
   16d18:	48 83 bd 90 ea ff ff 	cmpq   $0x0,-0x1570(%rbp)
   16d1f:	00 
   16d20:	0f 94 c0             	sete   %al
   16d23:	0f b6 c0             	movzbl %al,%eax
   16d26:	48 23 85 88 e8 ff ff 	and    -0x1778(%rbp),%rax
   16d2d:	09 85 d0 e8 ff ff    	or     %eax,-0x1730(%rbp)
   16d33:	48 8b 85 f0 ea ff ff 	mov    -0x1510(%rbp),%rax
   16d3a:	48 89 85 00 ea ff ff 	mov    %rax,-0x1600(%rbp)
   16d41:	48 8b 05 a0 d5 00 00 	mov    0xd5a0(%rip),%rax        # 242e8 <g_607>
   16d48:	0f b7 c0             	movzwl %ax,%eax
   16d4b:	be 03 00 00 00       	mov    $0x3,%esi
   16d50:	89 c7                	mov    %eax,%edi
   16d52:	e8 a8 2f ff ff       	callq  9cff <safe_add_func_uint16_t_u_u>
   16d57:	0f b7 c0             	movzwl %ax,%eax
   16d5a:	48 89 05 87 d5 00 00 	mov    %rax,0xd587(%rip)        # 242e8 <g_607>
   16d61:	48 8b 05 80 d5 00 00 	mov    0xd580(%rip),%rax        # 242e8 <g_607>
   16d68:	48 83 f8 1e          	cmp    $0x1e,%rax
   16d6c:	0f 85 69 fd ff ff    	jne    16adb <func_60+0x284b>
   16d72:	c7 05 00 d5 00 00 11 	movl   $0x11,0xd500(%rip)        # 2427c <g_274>
   16d79:	00 00 00 
   16d7c:	e9 4e 01 00 00       	jmpq   16ecf <func_60+0x2c3f>
   16d81:	66 c7 85 a6 e8 ff ff 	movw   $0x8507,-0x175a(%rbp)
   16d88:	07 85 
   16d8a:	c7 85 1c e9 ff ff af 	movl   $0x7cd4caf,-0x16e4(%rbp)
   16d91:	4c cd 07 
   16d94:	48 b8 7e 82 2b ab 79 	movabs $0xacfe2679ab2b827e,%rax
   16d9b:	26 fe ac 
   16d9e:	48 89 85 d0 ea ff ff 	mov    %rax,-0x1530(%rbp)
   16da5:	c7 85 20 e9 ff ff bd 	movl   $0x5ee084bd,-0x16e0(%rbp)
   16dac:	84 e0 5e 
   16daf:	48 8d 85 40 fb ff ff 	lea    -0x4c0(%rbp),%rax
   16db6:	48 8d 15 23 93 00 00 	lea    0x9323(%rip),%rdx        # 200e0 <g_2439+0x2060>
   16dbd:	b9 70 00 00 00       	mov    $0x70,%ecx
   16dc2:	48 89 c7             	mov    %rax,%rdi
   16dc5:	48 89 d6             	mov    %rdx,%rsi
   16dc8:	f3 48 a5             	rep movsq %ds:(%rsi),%es:(%rdi)
   16dcb:	48 89 f2             	mov    %rsi,%rdx
   16dce:	48 89 f8             	mov    %rdi,%rax
   16dd1:	8b 0a                	mov    (%rdx),%ecx
   16dd3:	89 08                	mov    %ecx,(%rax)
   16dd5:	48 8d 40 04          	lea    0x4(%rax),%rax
   16dd9:	48 8d 52 04          	lea    0x4(%rdx),%rdx
   16ddd:	48 83 ad d0 ea ff ff 	subq   $0x1,-0x1530(%rbp)
   16de4:	01 
   16de5:	83 ad d4 e8 ff ff 01 	subl   $0x1,-0x172c(%rbp)
   16dec:	48 83 bd 88 e8 ff ff 	cmpq   $0x0,-0x1778(%rbp)
   16df3:	00 
   16df4:	0f 85 b2 00 00 00    	jne    16eac <func_60+0x2c1c>
   16dfa:	48 8b 85 88 e8 ff ff 	mov    -0x1778(%rbp),%rax
   16e01:	0f b6 d0             	movzbl %al,%edx
   16e04:	48 83 bd 00 ea ff ff 	cmpq   $0x0,-0x1600(%rbp)
   16e0b:	00 
   16e0c:	75 33                	jne    16e41 <func_60+0x2bb1>
   16e0e:	8b 85 b8 e8 ff ff    	mov    -0x1748(%rbp),%eax
   16e14:	83 f8 02             	cmp    $0x2,%eax
   16e17:	0f 9e c0             	setle  %al
   16e1a:	0f b6 f0             	movzbl %al,%esi
   16e1d:	48 8b 85 a8 e9 ff ff 	mov    -0x1658(%rbp),%rax
   16e24:	8b 08                	mov    (%rax),%ecx
   16e26:	48 8b 05 3b f9 00 00 	mov    0xf93b(%rip),%rax        # 26768 <g_910>
   16e2d:	48 8b 00             	mov    (%rax),%rax
   16e30:	21 f1                	and    %esi,%ecx
   16e32:	89 08                	mov    %ecx,(%rax)
   16e34:	8b 00                	mov    (%rax),%eax
   16e36:	85 c0                	test   %eax,%eax
   16e38:	74 07                	je     16e41 <func_60+0x2bb1>
   16e3a:	b8 01 00 00 00       	mov    $0x1,%eax
   16e3f:	eb 05                	jmp    16e46 <func_60+0x2bb6>
   16e41:	b8 00 00 00 00       	mov    $0x0,%eax
   16e46:	48 98                	cltq   
   16e48:	48 0b 85 88 e8 ff ff 	or     -0x1778(%rbp),%rax
   16e4f:	48 39 85 88 e8 ff ff 	cmp    %rax,-0x1778(%rbp)
   16e56:	0f 95 c0             	setne  %al
   16e59:	0f b6 c0             	movzbl %al,%eax
   16e5c:	48 0b 85 88 e8 ff ff 	or     -0x1778(%rbp),%rax
   16e63:	48 39 85 88 e8 ff ff 	cmp    %rax,-0x1778(%rbp)
   16e6a:	0f 95 c0             	setne  %al
   16e6d:	0f b6 c0             	movzbl %al,%eax
   16e70:	48 39 85 88 e8 ff ff 	cmp    %rax,-0x1778(%rbp)
   16e77:	0f 94 c0             	sete   %al
   16e7a:	0f b6 c0             	movzbl %al,%eax
   16e7d:	89 d6                	mov    %edx,%esi
   16e7f:	89 c7                	mov    %eax,%edi
   16e81:	e8 d4 2c ff ff       	callq  9b5a <safe_add_func_uint8_t_u_u>
   16e86:	0f b7 05 a7 d3 00 00 	movzwl 0xd3a7(%rip),%eax        # 24234 <g_142+0xb4>
   16e8d:	66 35 63 b1          	xor    $0xb163,%ax
   16e91:	66 89 05 9c d3 00 00 	mov    %ax,0xd39c(%rip)        # 24234 <g_142+0xb4>
   16e98:	0f b7 05 95 d3 00 00 	movzwl 0xd395(%rip),%eax        # 24234 <g_142+0xb4>
   16e9f:	98                   	cwtl   
   16ea0:	be 01 00 00 00       	mov    $0x1,%esi
   16ea5:	89 c7                	mov    %eax,%edi
   16ea7:	e8 07 25 ff ff       	callq  93b3 <safe_add_func_int16_t_s_s>
   16eac:	83 bd 1c e9 ff ff 00 	cmpl   $0x0,-0x16e4(%rbp)
   16eb3:	48 8b 85 88 e8 ff ff 	mov    -0x1778(%rbp),%rax
   16eba:	89 85 14 e9 ff ff    	mov    %eax,-0x16ec(%rbp)
   16ec0:	8b 05 b6 d3 00 00    	mov    0xd3b6(%rip),%eax        # 2427c <g_274>
   16ec6:	83 e8 01             	sub    $0x1,%eax
   16ec9:	89 05 ad d3 00 00    	mov    %eax,0xd3ad(%rip)        # 2427c <g_274>
   16ecf:	8b 05 a7 d3 00 00    	mov    0xd3a7(%rip),%eax        # 2427c <g_274>
   16ed5:	83 f8 e9             	cmp    $0xffffffe9,%eax
   16ed8:	0f 8d a3 fe ff ff    	jge    16d81 <func_60+0x2af1>
   16ede:	48 c7 85 a8 f6 ff ff 	movq   $0x0,-0x958(%rbp)
   16ee5:	00 00 00 00 
   16ee9:	48 8d 85 b8 e8 ff ff 	lea    -0x1748(%rbp),%rax
   16ef0:	48 89 05 c9 18 01 00 	mov    %rax,0x118c9(%rip)        # 287c0 <g_1123>
   16ef7:	e9 ed 06 00 00       	jmpq   175e9 <func_60+0x3359>
   16efc:	48 8d 85 20 ec ff ff 	lea    -0x13e0(%rbp),%rax
   16f03:	48 83 c0 14          	add    $0x14,%rax
   16f07:	48 89 85 a8 ea ff ff 	mov    %rax,-0x1558(%rbp)
   16f0e:	48 8d 85 a0 e9 ff ff 	lea    -0x1660(%rbp),%rax
   16f15:	48 89 85 b0 ea ff ff 	mov    %rax,-0x1550(%rbp)
   16f1c:	c7 85 08 e9 ff ff 44 	movl   $0x48a30844,-0x16f8(%rbp)
   16f23:	08 a3 48 
   16f26:	48 c7 85 90 f6 ff ff 	movq   $0xfffffffffffffffb,-0x970(%rbp)
   16f2d:	fb ff ff ff 
   16f31:	48 c7 85 98 f6 ff ff 	movq   $0xfffffffffffffffb,-0x968(%rbp)
   16f38:	fb ff ff ff 
   16f3c:	48 c7 85 a0 f6 ff ff 	movq   $0xfffffffffffffffb,-0x960(%rbp)
   16f43:	fb ff ff ff 
   16f47:	48 c7 85 a8 f6 ff ff 	movq   $0xfffffffffffffffb,-0x958(%rbp)
   16f4e:	fb ff ff ff 
   16f52:	48 c7 85 b0 f6 ff ff 	movq   $0xfffffffffffffffb,-0x950(%rbp)
   16f59:	fb ff ff ff 
   16f5d:	48 c7 85 b8 ea ff ff 	movq   $0x0,-0x1548(%rbp)
   16f64:	00 00 00 00 
   16f68:	48 8d 85 90 e9 ff ff 	lea    -0x1670(%rbp),%rax
   16f6f:	48 89 85 c0 ea ff ff 	mov    %rax,-0x1540(%rbp)
   16f76:	48 b8 7b 7d 0a bc 0d 	movabs $0xad55390dbc0a7d7b,%rax
   16f7d:	39 55 ad 
   16f80:	48 89 85 10 ea ff ff 	mov    %rax,-0x15f0(%rbp)
   16f87:	48 83 bd 88 e8 ff ff 	cmpq   $0x0,-0x1778(%rbp)
   16f8e:	00 
   16f8f:	74 05                	je     16f96 <func_60+0x2d06>
   16f91:	e9 b3 e7 ff ff       	jmpq   15749 <func_60+0x14b9>
   16f96:	48 8b 85 00 ea ff ff 	mov    -0x1600(%rbp),%rax
   16f9d:	8b 00                	mov    (%rax),%eax
   16f9f:	85 c0                	test   %eax,%eax
   16fa1:	0f 84 a5 01 00 00    	je     1714c <func_60+0x2ebc>
   16fa7:	48 8d 85 40 fb ff ff 	lea    -0x4c0(%rbp),%rax
   16fae:	48 8d 15 0b f3 00 00 	lea    0xf30b(%rip),%rdx        # 262c0 <g_4540+0x1460>
   16fb5:	b9 3c 00 00 00       	mov    $0x3c,%ecx
   16fba:	48 89 c7             	mov    %rax,%rdi
   16fbd:	48 89 d6             	mov    %rdx,%rsi
   16fc0:	f3 48 a5             	rep movsq %ds:(%rsi),%es:(%rdi)
   16fc3:	c7 85 f0 ec ff ff 05 	movl   $0x7f5eca05,-0x1310(%rbp)
   16fca:	ca 5e 7f 
   16fcd:	c7 85 f4 ec ff ff 05 	movl   $0x7f5eca05,-0x130c(%rbp)
   16fd4:	ca 5e 7f 
   16fd7:	c7 85 f8 ec ff ff 05 	movl   $0x7f5eca05,-0x1308(%rbp)
   16fde:	ca 5e 7f 
   16fe1:	c7 85 fc ec ff ff 05 	movl   $0x7f5eca05,-0x1304(%rbp)
   16fe8:	ca 5e 7f 
   16feb:	48 8b 05 0e f7 00 00 	mov    0xf70e(%rip),%rax        # 26700 <g_634>
   16ff2:	48 8b 10             	mov    (%rax),%rdx
   16ff5:	48 8b 05 14 f7 00 00 	mov    0xf714(%rip),%rax        # 26710 <g_632>
   16ffc:	48 8b 00             	mov    (%rax),%rax
   16fff:	48 8b 00             	mov    (%rax),%rax
   17002:	48 8b 00             	mov    (%rax),%rax
   17005:	0f b6 12             	movzbl (%rdx),%edx
   17008:	88 10                	mov    %dl,(%rax)
   1700a:	0f b6 00             	movzbl (%rax),%eax
   1700d:	0f b6 c0             	movzbl %al,%eax
   17010:	be 05 00 00 00       	mov    $0x5,%esi
   17015:	89 c7                	mov    %eax,%edi
   17017:	e8 a2 2c ff ff       	callq  9cbe <safe_rshift_func_uint8_t_u_u>
   1701c:	48 8b 85 50 fc ff ff 	mov    -0x3b0(%rbp),%rax
   17023:	48 85 c0             	test   %rax,%rax
   17026:	0f 94 c0             	sete   %al
   17029:	44 0f b6 e0          	movzbl %al,%r12d
   1702d:	48 8b 85 b0 ea ff ff 	mov    -0x1550(%rbp),%rax
   17034:	48 89 85 40 f0 ff ff 	mov    %rax,-0xfc0(%rbp)
   1703b:	48 8b 85 40 f0 ff ff 	mov    -0xfc0(%rbp),%rax
   17042:	48 39 85 50 ea ff ff 	cmp    %rax,-0x15b0(%rbp)
   17049:	0f 94 c0             	sete   %al
   1704c:	0f b6 d8             	movzbl %al,%ebx
   1704f:	8b 85 b0 e8 ff ff    	mov    -0x1750(%rbp),%eax
   17055:	0f be c0             	movsbl %al,%eax
   17058:	89 c7                	mov    %eax,%edi
   1705a:	e8 60 21 ff ff       	callq  91bf <safe_unary_minus_func_int8_t_s>
   1705f:	0f b6 c0             	movzbl %al,%eax
   17062:	89 de                	mov    %ebx,%esi
   17064:	89 c7                	mov    %eax,%edi
   17066:	e8 53 2c ff ff       	callq  9cbe <safe_rshift_func_uint8_t_u_u>
   1706b:	89 c2                	mov    %eax,%edx
   1706d:	48 8b 85 90 ea ff ff 	mov    -0x1570(%rbp),%rax
   17074:	88 10                	mov    %dl,(%rax)
   17076:	48 8b 85 90 ea ff ff 	mov    -0x1570(%rbp),%rax
   1707d:	0f b6 00             	movzbl (%rax),%eax
   17080:	0f be c0             	movsbl %al,%eax
   17083:	be 03 00 00 00       	mov    $0x3,%esi
   17088:	89 c7                	mov    %eax,%edi
   1708a:	e8 12 22 ff ff       	callq  92a1 <safe_lshift_func_int8_t_s_s>
   1708f:	0f be c0             	movsbl %al,%eax
   17092:	41 39 c4             	cmp    %eax,%r12d
   17095:	0f 9f c0             	setg   %al
   17098:	0f b6 d8             	movzbl %al,%ebx
   1709b:	48 8b 05 ee f6 00 00 	mov    0xf6ee(%rip),%rax        # 26790 <g_1145>
   170a2:	48 85 c0             	test   %rax,%rax
   170a5:	0f 94 c0             	sete   %al
   170a8:	0f b6 c0             	movzbl %al,%eax
   170ab:	be 00 00 00 00       	mov    $0x0,%esi
   170b0:	48 89 c7             	mov    %rax,%rdi
   170b3:	e8 89 27 ff ff       	callq  9841 <safe_add_func_int64_t_s_s>
   170b8:	48 89 85 88 e8 ff ff 	mov    %rax,-0x1778(%rbp)
   170bf:	48 39 9d 88 e8 ff ff 	cmp    %rbx,-0x1778(%rbp)
   170c6:	0f 9f c0             	setg   %al
   170c9:	0f b6 c0             	movzbl %al,%eax
   170cc:	be 00 00 00 00       	mov    $0x0,%esi
   170d1:	89 c7                	mov    %eax,%edi
   170d3:	e8 70 2d ff ff       	callq  9e48 <safe_rshift_func_uint16_t_u_s>
   170d8:	8b 85 fc ec ff ff    	mov    -0x1304(%rbp),%eax
   170de:	48 98                	cltq   
   170e0:	48 39 85 98 ea ff ff 	cmp    %rax,-0x1568(%rbp)
   170e7:	0f 9c c2             	setl   %dl
   170ea:	48 8b 85 90 e9 ff ff 	mov    -0x1670(%rbp),%rax
   170f1:	0f b6 d2             	movzbl %dl,%edx
   170f4:	66 89 10             	mov    %dx,(%rax)
   170f7:	0f b7 00             	movzwl (%rax),%eax
   170fa:	0f b7 c0             	movzwl %ax,%eax
   170fd:	be 09 00 00 00       	mov    $0x9,%esi
   17102:	89 c7                	mov    %eax,%edi
   17104:	e8 71 2d ff ff       	callq  9e7a <safe_rshift_func_uint16_t_u_u>
   17109:	48 8b 15 90 f5 00 00 	mov    0xf590(%rip),%rdx        # 266a0 <g_94>
   17110:	8b 0a                	mov    (%rdx),%ecx
   17112:	0f b7 d0             	movzwl %ax,%edx
   17115:	48 8b 05 84 f5 00 00 	mov    0xf584(%rip),%rax        # 266a0 <g_94>
   1711c:	31 ca                	xor    %ecx,%edx
   1711e:	89 10                	mov    %edx,(%rax)
   17120:	48 8b 85 00 ea ff ff 	mov    -0x1600(%rbp),%rax
   17127:	c7 00 08 00 00 00    	movl   $0x8,(%rax)
   1712d:	8b 05 95 16 01 00    	mov    0x11695(%rip),%eax        # 287c8 <g_1151>
   17133:	83 e8 01             	sub    $0x1,%eax
   17136:	89 05 8c 16 01 00    	mov    %eax,0x1168c(%rip)        # 287c8 <g_1151>
   1713c:	48 c7 05 89 d1 00 00 	movq   $0x0,0xd189(%rip)        # 242d0 <g_513>
   17143:	00 00 00 00 
   17147:	e9 7b 04 00 00       	jmpq   175c7 <func_60+0x3337>
   1714c:	c7 85 0c e9 ff ff 4a 	movl   $0x8002b44a,-0x16f4(%rbp)
   17153:	b4 02 80 
   17156:	48 8d 85 40 fb ff ff 	lea    -0x4c0(%rbp),%rax
   1715d:	48 8d 15 1c 93 00 00 	lea    0x931c(%rip),%rdx        # 20480 <g_2439+0x2400>
   17164:	b9 1f 00 00 00       	mov    $0x1f,%ecx
   17169:	48 89 c7             	mov    %rax,%rdi
   1716c:	48 89 d6             	mov    %rdx,%rsi
   1716f:	f3 48 a5             	rep movsq %ds:(%rsi),%es:(%rdi)
   17172:	48 89 f2             	mov    %rsi,%rdx
   17175:	48 89 f8             	mov    %rdi,%rax
   17178:	8b 0a                	mov    (%rdx),%ecx
   1717a:	89 08                	mov    %ecx,(%rax)
   1717c:	48 8d 40 04          	lea    0x4(%rax),%rax
   17180:	48 8d 52 04          	lea    0x4(%rdx),%rdx
   17184:	48 8b 05 c5 f5 00 00 	mov    0xf5c5(%rip),%rax        # 26750 <g_817>
   1718b:	48 8b 00             	mov    (%rax),%rax
   1718e:	48 8b 00             	mov    (%rax),%rax
   17191:	0f b7 00             	movzwl (%rax),%eax
   17194:	0f b7 c0             	movzwl %ax,%eax
   17197:	8b 95 0c e9 ff ff    	mov    -0x16f4(%rbp),%edx
   1719d:	89 d6                	mov    %edx,%esi
   1719f:	89 c7                	mov    %eax,%edi
   171a1:	e8 a2 2c ff ff       	callq  9e48 <safe_rshift_func_uint16_t_u_s>
   171a6:	48 8b 85 88 e8 ff ff 	mov    -0x1778(%rbp),%rax
   171ad:	0f b7 d8             	movzwl %ax,%ebx
   171b0:	8b 05 ca 15 01 00    	mov    0x115ca(%rip),%eax        # 28780 <g_277>
   171b6:	44 0f bf e0          	movswl %ax,%r12d
   171ba:	48 8b 05 b7 d1 00 00 	mov    0xd1b7(%rip),%rax        # 24378 <g_956>
   171c1:	41 89 c5             	mov    %eax,%r13d
   171c4:	48 8b 85 88 e8 ff ff 	mov    -0x1778(%rbp),%rax
   171cb:	41 89 c6             	mov    %eax,%r14d
   171ce:	bf 00 00 00 00       	mov    $0x0,%edi
   171d3:	e8 6d 29 ff ff       	callq  9b45 <safe_unary_minus_func_uint8_t_u>
   171d8:	44 89 f6             	mov    %r14d,%esi
   171db:	bf 01 00 00 00       	mov    $0x1,%edi
   171e0:	e8 21 2c ff ff       	callq  9e06 <safe_lshift_func_uint16_t_u_u>
   171e5:	66 85 c0             	test   %ax,%ax
   171e8:	74 18                	je     17202 <func_60+0x2f72>
   171ea:	48 8b 05 0f f5 00 00 	mov    0xf50f(%rip),%rax        # 26700 <g_634>
   171f1:	48 8b 00             	mov    (%rax),%rax
   171f4:	0f b6 00             	movzbl (%rax),%eax
   171f7:	84 c0                	test   %al,%al
   171f9:	74 07                	je     17202 <func_60+0x2f72>
   171fb:	ba 01 00 00 00       	mov    $0x1,%edx
   17200:	eb 05                	jmp    17207 <func_60+0x2f77>
   17202:	ba 00 00 00 00       	mov    $0x0,%edx
   17207:	8b 05 6f d0 00 00    	mov    0xd06f(%rip),%eax        # 2427c <g_274>
   1720d:	39 c2                	cmp    %eax,%edx
   1720f:	0f 95 c0             	setne  %al
   17212:	0f b6 c0             	movzbl %al,%eax
   17215:	48 8b 95 88 e8 ff ff 	mov    -0x1778(%rbp),%rdx
   1721c:	48 89 d6             	mov    %rdx,%rsi
   1721f:	48 89 c7             	mov    %rax,%rdi
   17222:	e8 8d 27 ff ff       	callq  99b4 <safe_mod_func_int64_t_s_s>
   17227:	0f b7 c0             	movzwl %ax,%eax
   1722a:	44 89 ee             	mov    %r13d,%esi
   1722d:	89 c7                	mov    %eax,%edi
   1722f:	e8 46 2c ff ff       	callq  9e7a <safe_rshift_func_uint16_t_u_u>
   17234:	98                   	cwtl   
   17235:	44 89 e6             	mov    %r12d,%esi
   17238:	89 c7                	mov    %eax,%edi
   1723a:	e8 74 21 ff ff       	callq  93b3 <safe_add_func_int16_t_s_s>
   1723f:	48 0f bf c0          	movswq %ax,%rax
   17243:	48 8b 95 88 e8 ff ff 	mov    -0x1778(%rbp),%rdx
   1724a:	48 89 d6             	mov    %rdx,%rsi
   1724d:	48 89 c7             	mov    %rax,%rdi
   17250:	e8 5f 27 ff ff       	callq  99b4 <safe_mod_func_int64_t_s_s>
   17255:	89 de                	mov    %ebx,%esi
   17257:	bf 00 00 00 00       	mov    $0x0,%edi
   1725c:	e8 be 2a ff ff       	callq  9d1f <safe_sub_func_uint16_t_u_u>
   17261:	0f b7 c0             	movzwl %ax,%eax
   17264:	0b 85 0c e9 ff ff    	or     -0x16f4(%rbp),%eax
   1726a:	85 c0                	test   %eax,%eax
   1726c:	75 15                	jne    17283 <func_60+0x2ff3>
   1726e:	48 8b 05 db f4 00 00 	mov    0xf4db(%rip),%rax        # 26750 <g_817>
   17275:	48 8b 00             	mov    (%rax),%rax
   17278:	48 8b 00             	mov    (%rax),%rax
   1727b:	0f b7 00             	movzwl (%rax),%eax
   1727e:	66 85 c0             	test   %ax,%ax
   17281:	74 07                	je     1728a <func_60+0x2ffa>
   17283:	b8 01 00 00 00       	mov    $0x1,%eax
   17288:	eb 05                	jmp    1728f <func_60+0x2fff>
   1728a:	b8 00 00 00 00       	mov    $0x0,%eax
   1728f:	0f be d0             	movsbl %al,%edx
   17292:	48 8b 85 90 ea ff ff 	mov    -0x1570(%rbp),%rax
   17299:	0f b6 00             	movzbl (%rax),%eax
   1729c:	83 e0 01             	and    $0x1,%eax
   1729f:	89 c1                	mov    %eax,%ecx
   172a1:	48 8b 85 90 ea ff ff 	mov    -0x1570(%rbp),%rax
   172a8:	88 08                	mov    %cl,(%rax)
   172aa:	48 8b 85 90 ea ff ff 	mov    -0x1570(%rbp),%rax
   172b1:	0f b6 00             	movzbl (%rax),%eax
   172b4:	0f be c0             	movsbl %al,%eax
   172b7:	89 d6                	mov    %edx,%esi
   172b9:	89 c7                	mov    %eax,%edi
   172bb:	e8 14 1f ff ff       	callq  91d4 <safe_add_func_int8_t_s_s>
   172c0:	0f be d0             	movsbl %al,%edx
   172c3:	8b 85 9c fb ff ff    	mov    -0x464(%rbp),%eax
   172c9:	39 c2                	cmp    %eax,%edx
   172cb:	75 0d                	jne    172da <func_60+0x304a>
   172cd:	48 8b 85 a8 e9 ff ff 	mov    -0x1658(%rbp),%rax
   172d4:	8b 00                	mov    (%rax),%eax
   172d6:	85 c0                	test   %eax,%eax
   172d8:	74 07                	je     172e1 <func_60+0x3051>
   172da:	b8 01 00 00 00       	mov    $0x1,%eax
   172df:	eb 05                	jmp    172e6 <func_60+0x3056>
   172e1:	b8 00 00 00 00       	mov    $0x0,%eax
   172e6:	89 85 0c e9 ff ff    	mov    %eax,-0x16f4(%rbp)
   172ec:	48 8b 85 78 e9 ff ff 	mov    -0x1688(%rbp),%rax
   172f3:	8b 95 0c e9 ff ff    	mov    -0x16f4(%rbp),%edx
   172f9:	89 10                	mov    %edx,(%rax)
   172fb:	48 8b 05 86 f4 00 00 	mov    0xf486(%rip),%rax        # 26788 <g_1146>
   17302:	0f b7 00             	movzwl (%rax),%eax
   17305:	e9 20 19 00 00       	jmpq   18c2a <func_60+0x499a>
   1730a:	48 c7 85 c8 ea ff ff 	movq   $0x0,-0x1538(%rbp)
   17311:	00 00 00 00 
   17315:	c7 85 10 e9 ff ff 86 	movl   $0x2a771586,-0x16f0(%rbp)
   1731c:	15 77 2a 
   1731f:	48 8b 05 aa cf 00 00 	mov    0xcfaa(%rip),%rax        # 242d0 <g_513>
   17326:	48 8d 50 03          	lea    0x3(%rax),%rdx
   1732a:	48 8b 05 9f cf 00 00 	mov    0xcf9f(%rip),%rax        # 242d0 <g_513>
   17331:	48 c1 e2 02          	shl    $0x2,%rdx
   17335:	48 01 d0             	add    %rdx,%rax
   17338:	8b 94 85 d0 ee ff ff 	mov    -0x1130(%rbp,%rax,4),%edx
   1733f:	48 8b 05 8a cf 00 00 	mov    0xcf8a(%rip),%rax        # 242d0 <g_513>
   17346:	48 8d 48 03          	lea    0x3(%rax),%rcx
   1734a:	48 8b 05 7f cf 00 00 	mov    0xcf7f(%rip),%rax        # 242d0 <g_513>
   17351:	83 f2 01             	xor    $0x1,%edx
   17354:	48 c1 e1 02          	shl    $0x2,%rcx
   17358:	48 01 c8             	add    %rcx,%rax
   1735b:	89 94 85 d0 ee ff ff 	mov    %edx,-0x1130(%rbp,%rax,4)
   17362:	48 8b 85 88 e8 ff ff 	mov    -0x1778(%rbp),%rax
   17369:	41 89 c5             	mov    %eax,%r13d
   1736c:	0f b6 05 7e cf 00 00 	movzbl 0xcf7e(%rip),%eax        # 242f1 <g_771>
   17373:	0f be d8             	movsbl %al,%ebx
   17376:	44 8b 25 db cd 00 00 	mov    0xcddb(%rip),%r12d        # 24158 <g_78>
   1737d:	48 8b 05 04 f4 00 00 	mov    0xf404(%rip),%rax        # 26788 <g_1146>
   17384:	0f b7 00             	movzwl (%rax),%eax
   17387:	0f b7 c8             	movzwl %ax,%ecx
   1738a:	48 8b 05 3f cf 00 00 	mov    0xcf3f(%rip),%rax        # 242d0 <g_513>
   17391:	48 8d 50 02          	lea    0x2(%rax),%rdx
   17395:	48 8b 05 34 cf 00 00 	mov    0xcf34(%rip),%rax        # 242d0 <g_513>
   1739c:	48 8d 34 95 00 00 00 	lea    0x0(,%rdx,4),%rsi
   173a3:	00 
   173a4:	48 01 c6             	add    %rax,%rsi
   173a7:	c7 84 b5 d0 ee ff ff 	movl   $0xabe7,-0x1130(%rbp,%rsi,4)
   173ae:	e7 ab 00 00 
   173b2:	48 c1 e2 02          	shl    $0x2,%rdx
   173b6:	48 01 d0             	add    %rdx,%rax
   173b9:	8b 94 85 d0 ee ff ff 	mov    -0x1130(%rbp,%rax,4),%edx
   173c0:	48 8b 85 90 e9 ff ff 	mov    -0x1670(%rbp),%rax
   173c7:	0f b7 00             	movzwl (%rax),%eax
   173ca:	89 c6                	mov    %eax,%esi
   173cc:	89 d0                	mov    %edx,%eax
   173ce:	21 c6                	and    %eax,%esi
   173d0:	89 f2                	mov    %esi,%edx
   173d2:	48 8b 85 90 e9 ff ff 	mov    -0x1670(%rbp),%rax
   173d9:	66 89 10             	mov    %dx,(%rax)
   173dc:	0f b7 00             	movzwl (%rax),%eax
   173df:	0f b7 c0             	movzwl %ax,%eax
   173e2:	89 ce                	mov    %ecx,%esi
   173e4:	89 c7                	mov    %eax,%edi
   173e6:	e8 a3 29 ff ff       	callq  9d8e <safe_div_func_uint16_t_u_u>
   173eb:	48 81 bd 88 e8 ff ff 	cmpq   $0x63e5,-0x1778(%rbp)
   173f2:	e5 63 00 00 
   173f6:	0f 9f c0             	setg   %al
   173f9:	0f b6 c0             	movzbl %al,%eax
   173fc:	48 39 85 88 e8 ff ff 	cmp    %rax,-0x1778(%rbp)
   17403:	0f 9e c0             	setle  %al
   17406:	0f b6 c0             	movzbl %al,%eax
   17409:	44 89 e6             	mov    %r12d,%esi
   1740c:	89 c7                	mov    %eax,%edi
   1740e:	e8 22 1f ff ff       	callq  9335 <safe_rshift_func_int8_t_s_s>
   17413:	89 c2                	mov    %eax,%edx
   17415:	48 8b 85 90 ea ff ff 	mov    -0x1570(%rbp),%rax
   1741c:	0f b6 00             	movzbl (%rax),%eax
   1741f:	31 c2                	xor    %eax,%edx
   17421:	48 8b 85 90 ea ff ff 	mov    -0x1570(%rbp),%rax
   17428:	88 10                	mov    %dl,(%rax)
   1742a:	48 8b 85 90 ea ff ff 	mov    -0x1570(%rbp),%rax
   17431:	0f b6 00             	movzbl (%rax),%eax
   17434:	0f be c0             	movsbl %al,%eax
   17437:	be 05 00 00 00       	mov    $0x5,%esi
   1743c:	89 c7                	mov    %eax,%edi
   1743e:	e8 ab 1e ff ff       	callq  92ee <safe_lshift_func_int8_t_s_u>
   17443:	66 98                	cbtw   
   17445:	0f b7 c0             	movzwl %ax,%eax
   17448:	89 de                	mov    %ebx,%esi
   1744a:	89 c7                	mov    %eax,%edi
   1744c:	e8 29 2a ff ff       	callq  9e7a <safe_rshift_func_uint16_t_u_u>
   17451:	b8 01 00 00 00       	mov    $0x1,%eax
   17456:	83 f0 f8             	xor    $0xfffffff8,%eax
   17459:	0f b6 c0             	movzbl %al,%eax
   1745c:	89 c6                	mov    %eax,%esi
   1745e:	bf 00 00 00 00       	mov    $0x0,%edi
   17463:	e8 46 27 ff ff       	callq  9bae <safe_mod_func_uint8_t_u_u>
   17468:	0f b6 c0             	movzbl %al,%eax
   1746b:	44 89 ee             	mov    %r13d,%esi
   1746e:	89 c7                	mov    %eax,%edi
   17470:	e8 49 28 ff ff       	callq  9cbe <safe_rshift_func_uint8_t_u_u>
   17475:	89 c2                	mov    %eax,%edx
   17477:	48 8b 85 78 e9 ff ff 	mov    -0x1688(%rbp),%rax
   1747e:	8b 00                	mov    (%rax),%eax
   17480:	09 d0                	or     %edx,%eax
   17482:	0f b6 c0             	movzbl %al,%eax
   17485:	48 8b 15 84 f2 00 00 	mov    0xf284(%rip),%rdx        # 26710 <g_632>
   1748c:	48 8b 12             	mov    (%rdx),%rdx
   1748f:	48 8b 12             	mov    (%rdx),%rdx
   17492:	48 8b 1a             	mov    (%rdx),%rbx
   17495:	be 06 00 00 00       	mov    $0x6,%esi
   1749a:	89 c7                	mov    %eax,%edi
   1749c:	e8 1d 28 ff ff       	callq  9cbe <safe_rshift_func_uint8_t_u_u>
   174a1:	88 03                	mov    %al,(%rbx)
   174a3:	0f b6 03             	movzbl (%rbx),%eax
   174a6:	0f b6 c0             	movzbl %al,%eax
   174a9:	48 39 85 88 e8 ff ff 	cmp    %rax,-0x1778(%rbp)
   174b0:	0f 9c c0             	setl   %al
   174b3:	0f b6 c0             	movzbl %al,%eax
   174b6:	8b 95 10 e9 ff ff    	mov    -0x16f0(%rbp),%edx
   174bc:	89 d6                	mov    %edx,%esi
   174be:	89 c7                	mov    %eax,%edi
   174c0:	e8 f1 20 ff ff       	callq  95b6 <safe_add_func_int32_t_s_s>
   174c5:	48 8b 05 84 f2 00 00 	mov    0xf284(%rip),%rax        # 26750 <g_817>
   174cc:	48 8b 00             	mov    (%rax),%rax
   174cf:	48 39 85 c0 ea ff ff 	cmp    %rax,-0x1540(%rbp)
   174d6:	0f 94 c0             	sete   %al
   174d9:	0f b6 c0             	movzbl %al,%eax
   174dc:	be 56 59 b3 f8       	mov    $0xf8b35956,%esi
   174e1:	89 c7                	mov    %eax,%edi
   174e3:	e8 17 22 ff ff       	callq  96ff <safe_div_func_int32_t_s_s>
   174e8:	0f b7 c0             	movzwl %ax,%eax
   174eb:	be 8f 8a 00 00       	mov    $0x8a8f,%esi
   174f0:	89 c7                	mov    %eax,%edi
   174f2:	e8 97 28 ff ff       	callq  9d8e <safe_div_func_uint16_t_u_u>
   174f7:	0f be c0             	movsbl %al,%eax
   174fa:	be 5e 00 00 00       	mov    $0x5e,%esi
   174ff:	89 c7                	mov    %eax,%edi
   17501:	e8 ce 1c ff ff       	callq  91d4 <safe_add_func_int8_t_s_s>
   17506:	48 8b 95 00 ea ff ff 	mov    -0x1600(%rbp),%rdx
   1750d:	8b 12                	mov    (%rdx),%edx
   1750f:	0f be c0             	movsbl %al,%eax
   17512:	09 c2                	or     %eax,%edx
   17514:	48 8b 85 00 ea ff ff 	mov    -0x1600(%rbp),%rax
   1751b:	89 10                	mov    %edx,(%rax)
   1751d:	8b 85 b4 e8 ff ff    	mov    -0x174c(%rbp),%eax
   17523:	89 c0                	mov    %eax,%eax
   17525:	48 09 85 10 ea ff ff 	or     %rax,-0x15f0(%rbp)
   1752c:	48 8b 85 a8 e9 ff ff 	mov    -0x1658(%rbp),%rax
   17533:	8b 00                	mov    (%rax),%eax
   17535:	48 98                	cltq   
   17537:	48 c7 c6 f9 ff ff ff 	mov    $0xfffffffffffffff9,%rsi
   1753e:	48 89 c7             	mov    %rax,%rdi
   17541:	e8 69 2b ff ff       	callq  a0af <safe_div_func_uint64_t_u_u>
   17546:	48 89 c2             	mov    %rax,%rdx
   17549:	48 8b 85 20 ea ff ff 	mov    -0x15e0(%rbp),%rax
   17550:	48 8b 00             	mov    (%rax),%rax
   17553:	66 89 10             	mov    %dx,(%rax)
   17556:	0f b7 00             	movzwl (%rax),%eax
   17559:	98                   	cwtl   
   1755a:	be 01 00 00 00       	mov    $0x1,%esi
   1755f:	89 c7                	mov    %eax,%edi
   17561:	e8 2c 1f ff ff       	callq  9492 <safe_lshift_func_int16_t_s_s>
   17566:	48 8b 95 88 e8 ff ff 	mov    -0x1778(%rbp),%rdx
   1756d:	09 c2                	or     %eax,%edx
   1756f:	48 8b 05 7a f1 00 00 	mov    0xf17a(%rip),%rax        # 266f0 <g_571>
   17576:	8b 00                	mov    (%rax),%eax
   17578:	31 d0                	xor    %edx,%eax
   1757a:	0f b7 c0             	movzwl %ax,%eax
   1757d:	be 08 00 00 00       	mov    $0x8,%esi
   17582:	89 c7                	mov    %eax,%edi
   17584:	e8 76 27 ff ff       	callq  9cff <safe_add_func_uint16_t_u_u>
   17589:	0f b7 c0             	movzwl %ax,%eax
   1758c:	48 c7 c6 ff ff ff ff 	mov    $0xffffffffffffffff,%rsi
   17593:	48 89 c7             	mov    %rax,%rdi
   17596:	e8 5c 24 ff ff       	callq  99f7 <safe_div_func_int64_t_s_s>
   1759b:	48 83 f0 f9          	xor    $0xfffffffffffffff9,%rax
   1759f:	48 39 85 88 e8 ff ff 	cmp    %rax,-0x1778(%rbp)
   175a6:	0f 9d c2             	setge  %dl
   175a9:	48 8b 85 78 e9 ff ff 	mov    -0x1688(%rbp),%rax
   175b0:	0f b6 d2             	movzbl %dl,%edx
   175b3:	89 10                	mov    %edx,(%rax)
   175b5:	48 8b 05 14 cd 00 00 	mov    0xcd14(%rip),%rax        # 242d0 <g_513>
   175bc:	48 83 c0 01          	add    $0x1,%rax
   175c0:	48 89 05 09 cd 00 00 	mov    %rax,0xcd09(%rip)        # 242d0 <g_513>
   175c7:	48 8b 05 02 cd 00 00 	mov    0xcd02(%rip),%rax        # 242d0 <g_513>
   175ce:	48 83 f8 03          	cmp    $0x3,%rax
   175d2:	0f 8e 32 fd ff ff    	jle    1730a <func_60+0x307a>
   175d8:	48 8b 05 81 f1 00 00 	mov    0xf181(%rip),%rax        # 26760 <g_881>
   175df:	48 8b 00             	mov    (%rax),%rax
   175e2:	48 89 85 08 ea ff ff 	mov    %rax,-0x15f8(%rbp)
   175e9:	83 85 bc e8 ff ff 01 	addl   $0x1,-0x1744(%rbp)
   175f0:	c6 05 fb cc 00 00 00 	movb   $0x0,0xccfb(%rip)        # 242f2 <g_777>
   175f7:	e9 a4 12 00 00       	jmpq   188a0 <func_60+0x4610>
   175fc:	48 c7 85 f8 ea ff ff 	movq   $0x0,-0x1508(%rbp)
   17603:	00 00 00 00 
   17607:	48 c7 85 00 eb ff ff 	movq   $0x0,-0x1500(%rbp)
   1760e:	00 00 00 00 
   17612:	48 8d 85 e8 e9 ff ff 	lea    -0x1618(%rbp),%rax
   17619:	48 89 85 08 eb ff ff 	mov    %rax,-0x14f8(%rbp)
   17620:	48 8d 05 7d cc 00 00 	lea    0xcc7d(%rip),%rax        # 242a4 <g_389+0x4>
   17627:	48 89 85 90 f6 ff ff 	mov    %rax,-0x970(%rbp)
   1762e:	48 8d 05 4b 11 01 00 	lea    0x1114b(%rip),%rax        # 28780 <g_277>
   17635:	48 89 85 98 f6 ff ff 	mov    %rax,-0x968(%rbp)
   1763c:	48 8d 05 61 cc 00 00 	lea    0xcc61(%rip),%rax        # 242a4 <g_389+0x4>
   17643:	48 89 85 a0 f6 ff ff 	mov    %rax,-0x960(%rbp)
   1764a:	48 8d 05 2f 11 01 00 	lea    0x1112f(%rip),%rax        # 28780 <g_277>
   17651:	48 89 85 a8 f6 ff ff 	mov    %rax,-0x958(%rbp)
   17658:	48 8d 05 45 cc 00 00 	lea    0xcc45(%rip),%rax        # 242a4 <g_389+0x4>
   1765f:	48 89 85 b0 f6 ff ff 	mov    %rax,-0x950(%rbp)
   17666:	48 8d 05 13 11 01 00 	lea    0x11113(%rip),%rax        # 28780 <g_277>
   1766d:	48 89 85 b8 f6 ff ff 	mov    %rax,-0x948(%rbp)
   17674:	48 8d 05 29 cc 00 00 	lea    0xcc29(%rip),%rax        # 242a4 <g_389+0x4>
   1767b:	48 89 85 c0 f6 ff ff 	mov    %rax,-0x940(%rbp)
   17682:	48 c7 85 c8 f6 ff ff 	movq   $0x0,-0x938(%rbp)
   17689:	00 00 00 00 
   1768d:	48 c7 85 d0 f6 ff ff 	movq   $0x0,-0x930(%rbp)
   17694:	00 00 00 00 
   17698:	48 8d 05 01 cc 00 00 	lea    0xcc01(%rip),%rax        # 242a0 <g_389>
   1769f:	48 89 85 d8 f6 ff ff 	mov    %rax,-0x928(%rbp)
   176a6:	48 8d 05 f7 cb 00 00 	lea    0xcbf7(%rip),%rax        # 242a4 <g_389+0x4>
   176ad:	48 89 85 e0 f6 ff ff 	mov    %rax,-0x920(%rbp)
   176b4:	48 8d 05 ed cb 00 00 	lea    0xcbed(%rip),%rax        # 242a8 <g_389+0x8>
   176bb:	48 89 85 e8 f6 ff ff 	mov    %rax,-0x918(%rbp)
   176c2:	48 8d 05 df cb 00 00 	lea    0xcbdf(%rip),%rax        # 242a8 <g_389+0x8>
   176c9:	48 89 85 f0 f6 ff ff 	mov    %rax,-0x910(%rbp)
   176d0:	48 8d 05 cd cb 00 00 	lea    0xcbcd(%rip),%rax        # 242a4 <g_389+0x4>
   176d7:	48 89 85 f8 f6 ff ff 	mov    %rax,-0x908(%rbp)
   176de:	48 8d 85 b0 e8 ff ff 	lea    -0x1750(%rbp),%rax
   176e5:	48 89 85 00 f7 ff ff 	mov    %rax,-0x900(%rbp)
   176ec:	48 8d 05 b1 cb 00 00 	lea    0xcbb1(%rip),%rax        # 242a4 <g_389+0x4>
   176f3:	48 89 85 08 f7 ff ff 	mov    %rax,-0x8f8(%rbp)
   176fa:	48 8d 85 b0 e8 ff ff 	lea    -0x1750(%rbp),%rax
   17701:	48 89 85 10 f7 ff ff 	mov    %rax,-0x8f0(%rbp)
   17708:	48 8d 05 71 10 01 00 	lea    0x11071(%rip),%rax        # 28780 <g_277>
   1770f:	48 89 85 18 f7 ff ff 	mov    %rax,-0x8e8(%rbp)
   17716:	48 8d 85 b0 e8 ff ff 	lea    -0x1750(%rbp),%rax
   1771d:	48 89 85 20 f7 ff ff 	mov    %rax,-0x8e0(%rbp)
   17724:	48 8d 05 79 cb 00 00 	lea    0xcb79(%rip),%rax        # 242a4 <g_389+0x4>
   1772b:	48 89 85 28 f7 ff ff 	mov    %rax,-0x8d8(%rbp)
   17732:	48 8d 85 b0 e8 ff ff 	lea    -0x1750(%rbp),%rax
   17739:	48 89 85 30 f7 ff ff 	mov    %rax,-0x8d0(%rbp)
   17740:	48 c7 85 38 f7 ff ff 	movq   $0x0,-0x8c8(%rbp)
   17747:	00 00 00 00 
   1774b:	48 8d 05 52 cb 00 00 	lea    0xcb52(%rip),%rax        # 242a4 <g_389+0x4>
   17752:	48 89 85 40 f7 ff ff 	mov    %rax,-0x8c0(%rbp)
   17759:	48 8d 05 44 cb 00 00 	lea    0xcb44(%rip),%rax        # 242a4 <g_389+0x4>
   17760:	48 89 85 48 f7 ff ff 	mov    %rax,-0x8b8(%rbp)
   17767:	48 c7 85 50 f7 ff ff 	movq   $0x0,-0x8b0(%rbp)
   1776e:	00 00 00 00 
   17772:	48 8d 05 2f cb 00 00 	lea    0xcb2f(%rip),%rax        # 242a8 <g_389+0x8>
   17779:	48 89 85 58 f7 ff ff 	mov    %rax,-0x8a8(%rbp)
   17780:	48 8d 05 19 cb 00 00 	lea    0xcb19(%rip),%rax        # 242a0 <g_389>
   17787:	48 89 85 60 f7 ff ff 	mov    %rax,-0x8a0(%rbp)
   1778e:	48 8d 05 0b cb 00 00 	lea    0xcb0b(%rip),%rax        # 242a0 <g_389>
   17795:	48 89 85 68 f7 ff ff 	mov    %rax,-0x898(%rbp)
   1779c:	48 8d 05 01 cb 00 00 	lea    0xcb01(%rip),%rax        # 242a4 <g_389+0x4>
   177a3:	48 89 85 70 f7 ff ff 	mov    %rax,-0x890(%rbp)
   177aa:	48 8d 05 f3 ca 00 00 	lea    0xcaf3(%rip),%rax        # 242a4 <g_389+0x4>
   177b1:	48 89 85 78 f7 ff ff 	mov    %rax,-0x888(%rbp)
   177b8:	48 8d 05 e5 ca 00 00 	lea    0xcae5(%rip),%rax        # 242a4 <g_389+0x4>
   177bf:	48 89 85 80 f7 ff ff 	mov    %rax,-0x880(%rbp)
   177c6:	48 8d 05 d7 ca 00 00 	lea    0xcad7(%rip),%rax        # 242a4 <g_389+0x4>
   177cd:	48 89 85 88 f7 ff ff 	mov    %rax,-0x878(%rbp)
   177d4:	48 8d 05 c9 ca 00 00 	lea    0xcac9(%rip),%rax        # 242a4 <g_389+0x4>
   177db:	48 89 85 90 f7 ff ff 	mov    %rax,-0x870(%rbp)
   177e2:	48 8d 05 bb ca 00 00 	lea    0xcabb(%rip),%rax        # 242a4 <g_389+0x4>
   177e9:	48 89 85 98 f7 ff ff 	mov    %rax,-0x868(%rbp)
   177f0:	48 8d 05 ad ca 00 00 	lea    0xcaad(%rip),%rax        # 242a4 <g_389+0x4>
   177f7:	48 89 85 a0 f7 ff ff 	mov    %rax,-0x860(%rbp)
   177fe:	48 8d 05 a3 ca 00 00 	lea    0xcaa3(%rip),%rax        # 242a8 <g_389+0x8>
   17805:	48 89 85 a8 f7 ff ff 	mov    %rax,-0x858(%rbp)
   1780c:	48 c7 85 b0 f7 ff ff 	movq   $0x0,-0x850(%rbp)
   17813:	00 00 00 00 
   17817:	48 8d 05 86 ca 00 00 	lea    0xca86(%rip),%rax        # 242a4 <g_389+0x4>
   1781e:	48 89 85 b8 f7 ff ff 	mov    %rax,-0x848(%rbp)
   17825:	48 8d 05 78 ca 00 00 	lea    0xca78(%rip),%rax        # 242a4 <g_389+0x4>
   1782c:	48 89 85 c0 f7 ff ff 	mov    %rax,-0x840(%rbp)
   17833:	48 c7 85 c8 f7 ff ff 	movq   $0x0,-0x838(%rbp)
   1783a:	00 00 00 00 
   1783e:	48 8d 05 63 ca 00 00 	lea    0xca63(%rip),%rax        # 242a8 <g_389+0x8>
   17845:	48 89 85 d0 f7 ff ff 	mov    %rax,-0x830(%rbp)
   1784c:	48 8d 05 4d ca 00 00 	lea    0xca4d(%rip),%rax        # 242a0 <g_389>
   17853:	48 89 85 d8 f7 ff ff 	mov    %rax,-0x828(%rbp)
   1785a:	48 8d 85 b0 e8 ff ff 	lea    -0x1750(%rbp),%rax
   17861:	48 89 85 e0 f7 ff ff 	mov    %rax,-0x820(%rbp)
   17868:	48 8d 05 11 0f 01 00 	lea    0x10f11(%rip),%rax        # 28780 <g_277>
   1786f:	48 89 85 e8 f7 ff ff 	mov    %rax,-0x818(%rbp)
   17876:	48 8d 85 b0 e8 ff ff 	lea    -0x1750(%rbp),%rax
   1787d:	48 89 85 f0 f7 ff ff 	mov    %rax,-0x810(%rbp)
   17884:	48 8d 05 19 ca 00 00 	lea    0xca19(%rip),%rax        # 242a4 <g_389+0x4>
   1788b:	48 89 85 f8 f7 ff ff 	mov    %rax,-0x808(%rbp)
   17892:	48 8d 85 b0 e8 ff ff 	lea    -0x1750(%rbp),%rax
   17899:	48 89 85 00 f8 ff ff 	mov    %rax,-0x800(%rbp)
   178a0:	48 8d 05 d9 0e 01 00 	lea    0x10ed9(%rip),%rax        # 28780 <g_277>
   178a7:	48 89 85 08 f8 ff ff 	mov    %rax,-0x7f8(%rbp)
   178ae:	48 8d 85 b0 e8 ff ff 	lea    -0x1750(%rbp),%rax
   178b5:	48 89 85 10 f8 ff ff 	mov    %rax,-0x7f0(%rbp)
   178bc:	48 8d 05 e5 c9 00 00 	lea    0xc9e5(%rip),%rax        # 242a8 <g_389+0x8>
   178c3:	48 89 85 18 f8 ff ff 	mov    %rax,-0x7e8(%rbp)
   178ca:	48 8d 05 d3 c9 00 00 	lea    0xc9d3(%rip),%rax        # 242a4 <g_389+0x4>
   178d1:	48 89 85 20 f8 ff ff 	mov    %rax,-0x7e0(%rbp)
   178d8:	48 8d 05 c1 c9 00 00 	lea    0xc9c1(%rip),%rax        # 242a0 <g_389>
   178df:	48 89 85 28 f8 ff ff 	mov    %rax,-0x7d8(%rbp)
   178e6:	48 c7 85 30 f8 ff ff 	movq   $0x0,-0x7d0(%rbp)
   178ed:	00 00 00 00 
   178f1:	48 c7 85 38 f8 ff ff 	movq   $0x0,-0x7c8(%rbp)
   178f8:	00 00 00 00 
   178fc:	48 8d 05 9d c9 00 00 	lea    0xc99d(%rip),%rax        # 242a0 <g_389>
   17903:	48 89 85 40 f8 ff ff 	mov    %rax,-0x7c0(%rbp)
   1790a:	48 8d 05 93 c9 00 00 	lea    0xc993(%rip),%rax        # 242a4 <g_389+0x4>
   17911:	48 89 85 48 f8 ff ff 	mov    %rax,-0x7b8(%rbp)
   17918:	48 8d 05 85 c9 00 00 	lea    0xc985(%rip),%rax        # 242a4 <g_389+0x4>
   1791f:	48 89 85 50 f8 ff ff 	mov    %rax,-0x7b0(%rbp)
   17926:	48 8d 05 53 0e 01 00 	lea    0x10e53(%rip),%rax        # 28780 <g_277>
   1792d:	48 89 85 58 f8 ff ff 	mov    %rax,-0x7a8(%rbp)
   17934:	48 8d 05 69 c9 00 00 	lea    0xc969(%rip),%rax        # 242a4 <g_389+0x4>
   1793b:	48 89 85 60 f8 ff ff 	mov    %rax,-0x7a0(%rbp)
   17942:	48 8d 05 37 0e 01 00 	lea    0x10e37(%rip),%rax        # 28780 <g_277>
   17949:	48 89 85 68 f8 ff ff 	mov    %rax,-0x798(%rbp)
   17950:	48 8d 05 4d c9 00 00 	lea    0xc94d(%rip),%rax        # 242a4 <g_389+0x4>
   17957:	48 89 85 70 f8 ff ff 	mov    %rax,-0x790(%rbp)
   1795e:	48 8d 05 1b 0e 01 00 	lea    0x10e1b(%rip),%rax        # 28780 <g_277>
   17965:	48 89 85 78 f8 ff ff 	mov    %rax,-0x788(%rbp)
   1796c:	48 8d 05 31 c9 00 00 	lea    0xc931(%rip),%rax        # 242a4 <g_389+0x4>
   17973:	48 89 85 80 f8 ff ff 	mov    %rax,-0x780(%rbp)
   1797a:	48 c7 85 88 f8 ff ff 	movq   $0x0,-0x778(%rbp)
   17981:	00 00 00 00 
   17985:	48 c7 85 90 f8 ff ff 	movq   $0x0,-0x770(%rbp)
   1798c:	00 00 00 00 
   17990:	48 8d 05 09 c9 00 00 	lea    0xc909(%rip),%rax        # 242a0 <g_389>
   17997:	48 89 85 98 f8 ff ff 	mov    %rax,-0x768(%rbp)
   1799e:	48 8d 05 ff c8 00 00 	lea    0xc8ff(%rip),%rax        # 242a4 <g_389+0x4>
   179a5:	48 89 85 a0 f8 ff ff 	mov    %rax,-0x760(%rbp)
   179ac:	48 8d 05 f5 c8 00 00 	lea    0xc8f5(%rip),%rax        # 242a8 <g_389+0x8>
   179b3:	48 89 85 a8 f8 ff ff 	mov    %rax,-0x758(%rbp)
   179ba:	48 8d 05 e7 c8 00 00 	lea    0xc8e7(%rip),%rax        # 242a8 <g_389+0x8>
   179c1:	48 89 85 b0 f8 ff ff 	mov    %rax,-0x750(%rbp)
   179c8:	48 8d 05 d5 c8 00 00 	lea    0xc8d5(%rip),%rax        # 242a4 <g_389+0x4>
   179cf:	48 89 85 b8 f8 ff ff 	mov    %rax,-0x748(%rbp)
   179d6:	c7 85 28 e9 ff ff 01 	movl   $0x1,-0x16d8(%rbp)
   179dd:	00 00 00 
   179e0:	48 8d 85 88 e9 ff ff 	lea    -0x1678(%rbp),%rax
   179e7:	48 89 85 40 fb ff ff 	mov    %rax,-0x4c0(%rbp)
   179ee:	48 8d 85 88 e9 ff ff 	lea    -0x1678(%rbp),%rax
   179f5:	48 89 85 48 fb ff ff 	mov    %rax,-0x4b8(%rbp)
   179fc:	48 8d 85 88 e9 ff ff 	lea    -0x1678(%rbp),%rax
   17a03:	48 89 85 50 fb ff ff 	mov    %rax,-0x4b0(%rbp)
   17a0a:	48 8d 85 88 e9 ff ff 	lea    -0x1678(%rbp),%rax
   17a11:	48 89 85 58 fb ff ff 	mov    %rax,-0x4a8(%rbp)
   17a18:	48 8d 85 88 e9 ff ff 	lea    -0x1678(%rbp),%rax
   17a1f:	48 89 85 60 fb ff ff 	mov    %rax,-0x4a0(%rbp)
   17a26:	48 8d 85 88 e9 ff ff 	lea    -0x1678(%rbp),%rax
   17a2d:	48 89 85 68 fb ff ff 	mov    %rax,-0x498(%rbp)
   17a34:	48 8d 85 88 e9 ff ff 	lea    -0x1678(%rbp),%rax
   17a3b:	48 89 85 70 fb ff ff 	mov    %rax,-0x490(%rbp)
   17a42:	48 8d 85 88 e9 ff ff 	lea    -0x1678(%rbp),%rax
   17a49:	48 89 85 78 fb ff ff 	mov    %rax,-0x488(%rbp)
   17a50:	48 8d 85 88 e9 ff ff 	lea    -0x1678(%rbp),%rax
   17a57:	48 89 85 80 fb ff ff 	mov    %rax,-0x480(%rbp)
   17a5e:	48 8d 85 88 e9 ff ff 	lea    -0x1678(%rbp),%rax
   17a65:	48 89 85 88 fb ff ff 	mov    %rax,-0x478(%rbp)
   17a6c:	48 8d 85 88 e9 ff ff 	lea    -0x1678(%rbp),%rax
   17a73:	48 89 85 90 fb ff ff 	mov    %rax,-0x470(%rbp)
   17a7a:	48 8d 85 88 e9 ff ff 	lea    -0x1678(%rbp),%rax
   17a81:	48 89 85 98 fb ff ff 	mov    %rax,-0x468(%rbp)
   17a88:	48 8d 85 88 e9 ff ff 	lea    -0x1678(%rbp),%rax
   17a8f:	48 89 85 a0 fb ff ff 	mov    %rax,-0x460(%rbp)
   17a96:	48 8d 85 88 e9 ff ff 	lea    -0x1678(%rbp),%rax
   17a9d:	48 89 85 a8 fb ff ff 	mov    %rax,-0x458(%rbp)
   17aa4:	48 8d 85 88 e9 ff ff 	lea    -0x1678(%rbp),%rax
   17aab:	48 89 85 b0 fb ff ff 	mov    %rax,-0x450(%rbp)
   17ab2:	48 8d 85 88 e9 ff ff 	lea    -0x1678(%rbp),%rax
   17ab9:	48 89 85 b8 fb ff ff 	mov    %rax,-0x448(%rbp)
   17ac0:	48 8d 85 88 e9 ff ff 	lea    -0x1678(%rbp),%rax
   17ac7:	48 89 85 c0 fb ff ff 	mov    %rax,-0x440(%rbp)
   17ace:	48 8d 85 88 e9 ff ff 	lea    -0x1678(%rbp),%rax
   17ad5:	48 89 85 c8 fb ff ff 	mov    %rax,-0x438(%rbp)
   17adc:	48 8d 85 88 e9 ff ff 	lea    -0x1678(%rbp),%rax
   17ae3:	48 89 85 d0 fb ff ff 	mov    %rax,-0x430(%rbp)
   17aea:	48 8d 85 88 e9 ff ff 	lea    -0x1678(%rbp),%rax
   17af1:	48 89 85 d8 fb ff ff 	mov    %rax,-0x428(%rbp)
   17af8:	48 8d 85 88 e9 ff ff 	lea    -0x1678(%rbp),%rax
   17aff:	48 89 85 e0 fb ff ff 	mov    %rax,-0x420(%rbp)
   17b06:	48 8d 85 88 e9 ff ff 	lea    -0x1678(%rbp),%rax
   17b0d:	48 89 85 e8 fb ff ff 	mov    %rax,-0x418(%rbp)
   17b14:	48 8d 85 88 e9 ff ff 	lea    -0x1678(%rbp),%rax
   17b1b:	48 89 85 f0 fb ff ff 	mov    %rax,-0x410(%rbp)
   17b22:	48 8d 85 88 e9 ff ff 	lea    -0x1678(%rbp),%rax
   17b29:	48 89 85 f8 fb ff ff 	mov    %rax,-0x408(%rbp)
   17b30:	48 8d 85 88 e9 ff ff 	lea    -0x1678(%rbp),%rax
   17b37:	48 89 85 00 fc ff ff 	mov    %rax,-0x400(%rbp)
   17b3e:	48 8d 85 88 e9 ff ff 	lea    -0x1678(%rbp),%rax
   17b45:	48 89 85 08 fc ff ff 	mov    %rax,-0x3f8(%rbp)
   17b4c:	48 8d 85 88 e9 ff ff 	lea    -0x1678(%rbp),%rax
   17b53:	48 89 85 10 fc ff ff 	mov    %rax,-0x3f0(%rbp)
   17b5a:	48 8d 85 88 e9 ff ff 	lea    -0x1678(%rbp),%rax
   17b61:	48 89 85 18 fc ff ff 	mov    %rax,-0x3e8(%rbp)
   17b68:	48 8d 85 88 e9 ff ff 	lea    -0x1678(%rbp),%rax
   17b6f:	48 89 85 20 fc ff ff 	mov    %rax,-0x3e0(%rbp)
   17b76:	48 8d 85 88 e9 ff ff 	lea    -0x1678(%rbp),%rax
   17b7d:	48 89 85 28 fc ff ff 	mov    %rax,-0x3d8(%rbp)
   17b84:	48 8d 85 88 e9 ff ff 	lea    -0x1678(%rbp),%rax
   17b8b:	48 89 85 30 fc ff ff 	mov    %rax,-0x3d0(%rbp)
   17b92:	48 8d 85 88 e9 ff ff 	lea    -0x1678(%rbp),%rax
   17b99:	48 89 85 38 fc ff ff 	mov    %rax,-0x3c8(%rbp)
   17ba0:	48 8d 85 88 e9 ff ff 	lea    -0x1678(%rbp),%rax
   17ba7:	48 89 85 40 fc ff ff 	mov    %rax,-0x3c0(%rbp)
   17bae:	48 8d 85 88 e9 ff ff 	lea    -0x1678(%rbp),%rax
   17bb5:	48 89 85 48 fc ff ff 	mov    %rax,-0x3b8(%rbp)
   17bbc:	48 8d 85 88 e9 ff ff 	lea    -0x1678(%rbp),%rax
   17bc3:	48 89 85 50 fc ff ff 	mov    %rax,-0x3b0(%rbp)
   17bca:	48 8d 85 88 e9 ff ff 	lea    -0x1678(%rbp),%rax
   17bd1:	48 89 85 58 fc ff ff 	mov    %rax,-0x3a8(%rbp)
   17bd8:	48 8d 85 88 e9 ff ff 	lea    -0x1678(%rbp),%rax
   17bdf:	48 89 85 60 fc ff ff 	mov    %rax,-0x3a0(%rbp)
   17be6:	48 8d 85 88 e9 ff ff 	lea    -0x1678(%rbp),%rax
   17bed:	48 89 85 68 fc ff ff 	mov    %rax,-0x398(%rbp)
   17bf4:	48 8d 85 88 e9 ff ff 	lea    -0x1678(%rbp),%rax
   17bfb:	48 89 85 70 fc ff ff 	mov    %rax,-0x390(%rbp)
   17c02:	48 8d 85 88 e9 ff ff 	lea    -0x1678(%rbp),%rax
   17c09:	48 89 85 78 fc ff ff 	mov    %rax,-0x388(%rbp)
   17c10:	48 8d 85 88 e9 ff ff 	lea    -0x1678(%rbp),%rax
   17c17:	48 89 85 80 fc ff ff 	mov    %rax,-0x380(%rbp)
   17c1e:	48 8d 85 88 e9 ff ff 	lea    -0x1678(%rbp),%rax
   17c25:	48 89 85 88 fc ff ff 	mov    %rax,-0x378(%rbp)
   17c2c:	48 8d 85 88 e9 ff ff 	lea    -0x1678(%rbp),%rax
   17c33:	48 89 85 90 fc ff ff 	mov    %rax,-0x370(%rbp)
   17c3a:	48 8d 85 88 e9 ff ff 	lea    -0x1678(%rbp),%rax
   17c41:	48 89 85 98 fc ff ff 	mov    %rax,-0x368(%rbp)
   17c48:	48 8d 85 88 e9 ff ff 	lea    -0x1678(%rbp),%rax
   17c4f:	48 89 85 a0 fc ff ff 	mov    %rax,-0x360(%rbp)
   17c56:	48 8d 85 88 e9 ff ff 	lea    -0x1678(%rbp),%rax
   17c5d:	48 89 85 a8 fc ff ff 	mov    %rax,-0x358(%rbp)
   17c64:	48 8d 85 88 e9 ff ff 	lea    -0x1678(%rbp),%rax
   17c6b:	48 89 85 b0 fc ff ff 	mov    %rax,-0x350(%rbp)
   17c72:	48 8d 85 88 e9 ff ff 	lea    -0x1678(%rbp),%rax
   17c79:	48 89 85 b8 fc ff ff 	mov    %rax,-0x348(%rbp)
   17c80:	48 8d 85 88 e9 ff ff 	lea    -0x1678(%rbp),%rax
   17c87:	48 89 85 c0 fc ff ff 	mov    %rax,-0x340(%rbp)
   17c8e:	48 8d 85 88 e9 ff ff 	lea    -0x1678(%rbp),%rax
   17c95:	48 89 85 c8 fc ff ff 	mov    %rax,-0x338(%rbp)
   17c9c:	48 8d 85 88 e9 ff ff 	lea    -0x1678(%rbp),%rax
   17ca3:	48 89 85 d0 fc ff ff 	mov    %rax,-0x330(%rbp)
   17caa:	48 8d 85 88 e9 ff ff 	lea    -0x1678(%rbp),%rax
   17cb1:	48 89 85 d8 fc ff ff 	mov    %rax,-0x328(%rbp)
   17cb8:	48 8d 85 88 e9 ff ff 	lea    -0x1678(%rbp),%rax
   17cbf:	48 89 85 e0 fc ff ff 	mov    %rax,-0x320(%rbp)
   17cc6:	48 8d 85 88 e9 ff ff 	lea    -0x1678(%rbp),%rax
   17ccd:	48 89 85 e8 fc ff ff 	mov    %rax,-0x318(%rbp)
   17cd4:	48 8d 85 88 e9 ff ff 	lea    -0x1678(%rbp),%rax
   17cdb:	48 89 85 f0 fc ff ff 	mov    %rax,-0x310(%rbp)
   17ce2:	48 8d 85 88 e9 ff ff 	lea    -0x1678(%rbp),%rax
   17ce9:	48 89 85 f8 fc ff ff 	mov    %rax,-0x308(%rbp)
   17cf0:	48 8d 85 88 e9 ff ff 	lea    -0x1678(%rbp),%rax
   17cf7:	48 89 85 00 fd ff ff 	mov    %rax,-0x300(%rbp)
   17cfe:	48 8d 85 88 e9 ff ff 	lea    -0x1678(%rbp),%rax
   17d05:	48 89 85 08 fd ff ff 	mov    %rax,-0x2f8(%rbp)
   17d0c:	48 8d 85 88 e9 ff ff 	lea    -0x1678(%rbp),%rax
   17d13:	48 89 85 10 fd ff ff 	mov    %rax,-0x2f0(%rbp)
   17d1a:	48 8d 85 88 e9 ff ff 	lea    -0x1678(%rbp),%rax
   17d21:	48 89 85 18 fd ff ff 	mov    %rax,-0x2e8(%rbp)
   17d28:	48 8d 85 88 e9 ff ff 	lea    -0x1678(%rbp),%rax
   17d2f:	48 89 85 20 fd ff ff 	mov    %rax,-0x2e0(%rbp)
   17d36:	48 8d 85 88 e9 ff ff 	lea    -0x1678(%rbp),%rax
   17d3d:	48 89 85 28 fd ff ff 	mov    %rax,-0x2d8(%rbp)
   17d44:	48 8d 85 88 e9 ff ff 	lea    -0x1678(%rbp),%rax
   17d4b:	48 89 85 30 fd ff ff 	mov    %rax,-0x2d0(%rbp)
   17d52:	48 8d 85 88 e9 ff ff 	lea    -0x1678(%rbp),%rax
   17d59:	48 89 85 38 fd ff ff 	mov    %rax,-0x2c8(%rbp)
   17d60:	48 8d 85 88 e9 ff ff 	lea    -0x1678(%rbp),%rax
   17d67:	48 89 85 40 fd ff ff 	mov    %rax,-0x2c0(%rbp)
   17d6e:	48 8d 85 88 e9 ff ff 	lea    -0x1678(%rbp),%rax
   17d75:	48 89 85 48 fd ff ff 	mov    %rax,-0x2b8(%rbp)
   17d7c:	48 8d 85 88 e9 ff ff 	lea    -0x1678(%rbp),%rax
   17d83:	48 89 85 50 fd ff ff 	mov    %rax,-0x2b0(%rbp)
   17d8a:	48 8d 85 88 e9 ff ff 	lea    -0x1678(%rbp),%rax
   17d91:	48 89 85 58 fd ff ff 	mov    %rax,-0x2a8(%rbp)
   17d98:	48 8d 85 88 e9 ff ff 	lea    -0x1678(%rbp),%rax
   17d9f:	48 89 85 60 fd ff ff 	mov    %rax,-0x2a0(%rbp)
   17da6:	48 8d 85 88 e9 ff ff 	lea    -0x1678(%rbp),%rax
   17dad:	48 89 85 68 fd ff ff 	mov    %rax,-0x298(%rbp)
   17db4:	48 8d 85 88 e9 ff ff 	lea    -0x1678(%rbp),%rax
   17dbb:	48 89 85 70 fd ff ff 	mov    %rax,-0x290(%rbp)
   17dc2:	48 8d 85 88 e9 ff ff 	lea    -0x1678(%rbp),%rax
   17dc9:	48 89 85 78 fd ff ff 	mov    %rax,-0x288(%rbp)
   17dd0:	48 8d 85 88 e9 ff ff 	lea    -0x1678(%rbp),%rax
   17dd7:	48 89 85 80 fd ff ff 	mov    %rax,-0x280(%rbp)
   17dde:	48 8d 85 88 e9 ff ff 	lea    -0x1678(%rbp),%rax
   17de5:	48 89 85 88 fd ff ff 	mov    %rax,-0x278(%rbp)
   17dec:	48 8d 85 88 e9 ff ff 	lea    -0x1678(%rbp),%rax
   17df3:	48 89 85 90 fd ff ff 	mov    %rax,-0x270(%rbp)
   17dfa:	48 8d 85 88 e9 ff ff 	lea    -0x1678(%rbp),%rax
   17e01:	48 89 85 98 fd ff ff 	mov    %rax,-0x268(%rbp)
   17e08:	48 8d 85 88 e9 ff ff 	lea    -0x1678(%rbp),%rax
   17e0f:	48 89 85 a0 fd ff ff 	mov    %rax,-0x260(%rbp)
   17e16:	48 8d 85 88 e9 ff ff 	lea    -0x1678(%rbp),%rax
   17e1d:	48 89 85 a8 fd ff ff 	mov    %rax,-0x258(%rbp)
   17e24:	48 8d 85 88 e9 ff ff 	lea    -0x1678(%rbp),%rax
   17e2b:	48 89 85 b0 fd ff ff 	mov    %rax,-0x250(%rbp)
   17e32:	48 8d 85 88 e9 ff ff 	lea    -0x1678(%rbp),%rax
   17e39:	48 89 85 b8 fd ff ff 	mov    %rax,-0x248(%rbp)
   17e40:	48 8d 85 88 e9 ff ff 	lea    -0x1678(%rbp),%rax
   17e47:	48 89 85 c0 fd ff ff 	mov    %rax,-0x240(%rbp)
   17e4e:	48 8d 85 88 e9 ff ff 	lea    -0x1678(%rbp),%rax
   17e55:	48 89 85 c8 fd ff ff 	mov    %rax,-0x238(%rbp)
   17e5c:	48 8d 85 88 e9 ff ff 	lea    -0x1678(%rbp),%rax
   17e63:	48 89 85 d0 fd ff ff 	mov    %rax,-0x230(%rbp)
   17e6a:	48 8d 85 88 e9 ff ff 	lea    -0x1678(%rbp),%rax
   17e71:	48 89 85 d8 fd ff ff 	mov    %rax,-0x228(%rbp)
   17e78:	48 8d 85 88 e9 ff ff 	lea    -0x1678(%rbp),%rax
   17e7f:	48 89 85 e0 fd ff ff 	mov    %rax,-0x220(%rbp)
   17e86:	48 8d 85 88 e9 ff ff 	lea    -0x1678(%rbp),%rax
   17e8d:	48 89 85 e8 fd ff ff 	mov    %rax,-0x218(%rbp)
   17e94:	48 8d 85 88 e9 ff ff 	lea    -0x1678(%rbp),%rax
   17e9b:	48 89 85 f0 fd ff ff 	mov    %rax,-0x210(%rbp)
   17ea2:	48 8d 85 88 e9 ff ff 	lea    -0x1678(%rbp),%rax
   17ea9:	48 89 85 f8 fd ff ff 	mov    %rax,-0x208(%rbp)
   17eb0:	48 8d 85 88 e9 ff ff 	lea    -0x1678(%rbp),%rax
   17eb7:	48 89 85 00 fe ff ff 	mov    %rax,-0x200(%rbp)
   17ebe:	48 8d 85 88 e9 ff ff 	lea    -0x1678(%rbp),%rax
   17ec5:	48 89 85 08 fe ff ff 	mov    %rax,-0x1f8(%rbp)
   17ecc:	48 8d 85 88 e9 ff ff 	lea    -0x1678(%rbp),%rax
   17ed3:	48 89 85 10 fe ff ff 	mov    %rax,-0x1f0(%rbp)
   17eda:	48 8d 85 88 e9 ff ff 	lea    -0x1678(%rbp),%rax
   17ee1:	48 89 85 18 fe ff ff 	mov    %rax,-0x1e8(%rbp)
   17ee8:	48 8d 85 88 e9 ff ff 	lea    -0x1678(%rbp),%rax
   17eef:	48 89 85 20 fe ff ff 	mov    %rax,-0x1e0(%rbp)
   17ef6:	48 8d 85 88 e9 ff ff 	lea    -0x1678(%rbp),%rax
   17efd:	48 89 85 28 fe ff ff 	mov    %rax,-0x1d8(%rbp)
   17f04:	48 8d 85 88 e9 ff ff 	lea    -0x1678(%rbp),%rax
   17f0b:	48 89 85 30 fe ff ff 	mov    %rax,-0x1d0(%rbp)
   17f12:	48 8d 85 88 e9 ff ff 	lea    -0x1678(%rbp),%rax
   17f19:	48 89 85 38 fe ff ff 	mov    %rax,-0x1c8(%rbp)
   17f20:	c7 85 b8 e8 ff ff 23 	movl   $0x2c292923,-0x1748(%rbp)
   17f27:	29 29 2c 
   17f2a:	48 c7 85 c0 ec ff ff 	movq   $0x0,-0x1340(%rbp)
   17f31:	00 00 00 00 
   17f35:	48 8d 85 ac e8 ff ff 	lea    -0x1754(%rbp),%rax
   17f3c:	48 89 85 c8 ec ff ff 	mov    %rax,-0x1338(%rbp)
   17f43:	48 8d 85 ac e8 ff ff 	lea    -0x1754(%rbp),%rax
   17f4a:	48 89 85 d0 ec ff ff 	mov    %rax,-0x1330(%rbp)
   17f51:	48 c7 85 d8 ec ff ff 	movq   $0x0,-0x1328(%rbp)
   17f58:	00 00 00 00 
   17f5c:	48 8d 85 ac e8 ff ff 	lea    -0x1754(%rbp),%rax
   17f63:	48 89 85 e0 ec ff ff 	mov    %rax,-0x1320(%rbp)
   17f6a:	48 8d 85 ac e8 ff ff 	lea    -0x1754(%rbp),%rax
   17f71:	48 89 85 e8 ec ff ff 	mov    %rax,-0x1318(%rbp)
   17f78:	c7 85 2c e9 ff ff 4d 	movl   $0x9161a14d,-0x16d4(%rbp)
   17f7f:	a1 61 91 
   17f82:	48 8d 85 b4 e8 ff ff 	lea    -0x174c(%rbp),%rax
   17f89:	48 89 85 f0 ec ff ff 	mov    %rax,-0x1310(%rbp)
   17f90:	48 8d 85 b4 e8 ff ff 	lea    -0x174c(%rbp),%rax
   17f97:	48 89 85 f8 ec ff ff 	mov    %rax,-0x1308(%rbp)
   17f9e:	48 8d 85 b4 e8 ff ff 	lea    -0x174c(%rbp),%rax
   17fa5:	48 89 85 00 ed ff ff 	mov    %rax,-0x1300(%rbp)
   17fac:	48 8d 85 b4 e8 ff ff 	lea    -0x174c(%rbp),%rax
   17fb3:	48 89 85 08 ed ff ff 	mov    %rax,-0x12f8(%rbp)
   17fba:	48 8d 85 b4 e8 ff ff 	lea    -0x174c(%rbp),%rax
   17fc1:	48 89 85 10 ed ff ff 	mov    %rax,-0x12f0(%rbp)
   17fc8:	48 8d 85 b4 e8 ff ff 	lea    -0x174c(%rbp),%rax
   17fcf:	48 89 85 18 ed ff ff 	mov    %rax,-0x12e8(%rbp)
   17fd6:	48 8d 85 b4 e8 ff ff 	lea    -0x174c(%rbp),%rax
   17fdd:	48 89 85 20 ed ff ff 	mov    %rax,-0x12e0(%rbp)
   17fe4:	48 8d 85 f0 ec ff ff 	lea    -0x1310(%rbp),%rax
   17feb:	48 83 c0 18          	add    $0x18,%rax
   17fef:	48 89 85 10 eb ff ff 	mov    %rax,-0x14f0(%rbp)
   17ff6:	48 8b 05 fb e6 00 00 	mov    0xe6fb(%rip),%rax        # 266f8 <g_635>
   17ffd:	0f b6 00             	movzbl (%rax),%eax
   18000:	0f b6 d8             	movzbl %al,%ebx
   18003:	48 8b 05 06 e7 00 00 	mov    0xe706(%rip),%rax        # 26710 <g_632>
   1800a:	48 8b 00             	mov    (%rax),%rax
   1800d:	48 8b 95 08 eb ff ff 	mov    -0x14f8(%rbp),%rdx
   18014:	48 8b 8d f8 ea ff ff 	mov    -0x1508(%rbp),%rcx
   1801b:	48 89 0a             	mov    %rcx,(%rdx)
   1801e:	48 8b 95 08 eb ff ff 	mov    -0x14f8(%rbp),%rdx
   18025:	48 8b 12             	mov    (%rdx),%rdx
   18028:	48 89 95 58 ea ff ff 	mov    %rdx,-0x15a8(%rbp)
   1802f:	48 39 85 58 ea ff ff 	cmp    %rax,-0x15a8(%rbp)
   18036:	0f 95 c0             	setne  %al
   18039:	41 89 c5             	mov    %eax,%r13d
   1803c:	8b 05 36 c2 00 00    	mov    0xc236(%rip),%eax        # 24278 <g_206>
   18042:	44 0f bf e0          	movswl %ax,%r12d
   18046:	48 8b 85 08 ea ff ff 	mov    -0x15f8(%rbp),%rax
   1804d:	8b 00                	mov    (%rax),%eax
   1804f:	48 63 d0             	movslq %eax,%rdx
   18052:	48 8b 85 a8 e9 ff ff 	mov    -0x1658(%rbp),%rax
   18059:	8b 00                	mov    (%rax),%eax
   1805b:	85 c0                	test   %eax,%eax
   1805d:	0f 94 c0             	sete   %al
   18060:	0f b6 c0             	movzbl %al,%eax
   18063:	48 89 d6             	mov    %rdx,%rsi
   18066:	48 89 c7             	mov    %rax,%rdi
   18069:	e8 dd 1f ff ff       	callq  a04b <safe_sub_func_uint64_t_u_u>
   1806e:	98                   	cwtl   
   1806f:	44 89 e6             	mov    %r12d,%esi
   18072:	89 c7                	mov    %eax,%edi
   18074:	e8 7c 13 ff ff       	callq  93f5 <safe_mul_func_int16_t_s_s>
   18079:	83 c8 af             	or     $0xffffffaf,%eax
   1807c:	44 0f b6 e0          	movzbl %al,%r12d
   18080:	48 8d 85 a0 e9 ff ff 	lea    -0x1660(%rbp),%rax
   18087:	48 39 85 50 ea ff ff 	cmp    %rax,-0x15b0(%rbp)
   1808e:	0f 94 c0             	sete   %al
   18091:	0f b6 c0             	movzbl %al,%eax
   18094:	89 c6                	mov    %eax,%esi
   18096:	bf 01 00 00 00       	mov    $0x1,%edi
   1809b:	e8 7f 1c ff ff       	callq  9d1f <safe_sub_func_uint16_t_u_u>
   180a0:	0f b6 c0             	movzbl %al,%eax
   180a3:	44 89 e6             	mov    %r12d,%esi
   180a6:	89 c7                	mov    %eax,%edi
   180a8:	e8 cb 1a ff ff       	callq  9b78 <safe_sub_func_uint8_t_u_u>
   180ad:	48 8b 85 58 f8 ff ff 	mov    -0x7a8(%rbp),%rax
   180b4:	48 85 c0             	test   %rax,%rax
   180b7:	0f 95 c0             	setne  %al
   180ba:	89 c2                	mov    %eax,%edx
   180bc:	48 8b 85 90 ea ff ff 	mov    -0x1570(%rbp),%rax
   180c3:	88 10                	mov    %dl,(%rax)
   180c5:	48 8b 85 90 ea ff ff 	mov    -0x1570(%rbp),%rax
   180cc:	0f b6 00             	movzbl (%rax),%eax
   180cf:	88 05 04 c2 00 00    	mov    %al,0xc204(%rip)        # 242d9 <g_539+0x1>
   180d5:	0f b6 05 fd c1 00 00 	movzbl 0xc1fd(%rip),%eax        # 242d9 <g_539+0x1>
   180dc:	44 31 e8             	xor    %r13d,%eax
   180df:	0f b6 c0             	movzbl %al,%eax
   180e2:	89 de                	mov    %ebx,%esi
   180e4:	89 c7                	mov    %eax,%edi
   180e6:	e8 d3 1b ff ff       	callq  9cbe <safe_rshift_func_uint8_t_u_u>
   180eb:	bf 01 00 00 00       	mov    $0x1,%edi
   180f0:	e8 ca 10 ff ff       	callq  91bf <safe_unary_minus_func_int8_t_s>
   180f5:	48 8b 85 88 e8 ff ff 	mov    -0x1778(%rbp),%rax
   180fc:	48 f7 d0             	not    %rax
   180ff:	48 c1 e8 3f          	shr    $0x3f,%rax
   18103:	0f b6 c0             	movzbl %al,%eax
   18106:	09 85 28 e9 ff ff    	or     %eax,-0x16d8(%rbp)
   1810c:	83 bd 00 e9 ff ff 00 	cmpl   $0x0,-0x1700(%rbp)
   18113:	0f 85 48 01 00 00    	jne    18261 <func_60+0x3fd1>
   18119:	48 8b 85 88 e8 ff ff 	mov    -0x1778(%rbp),%rax
   18120:	0f bf d8             	movswl %ax,%ebx
   18123:	48 8b 05 16 e6 00 00 	mov    0xe616(%rip),%rax        # 26740 <g_819>
   1812a:	0f b7 00             	movzwl (%rax),%eax
   1812d:	83 bd 28 e9 ff ff 00 	cmpl   $0x0,-0x16d8(%rbp)
   18134:	0f 85 b0 00 00 00    	jne    181ea <func_60+0x3f5a>
   1813a:	48 8b 85 88 e8 ff ff 	mov    -0x1778(%rbp),%rax
   18141:	44 0f bf e0          	movswl %ax,%r12d
   18145:	48 8b 85 78 e9 ff ff 	mov    -0x1688(%rbp),%rax
   1814c:	8b 00                	mov    (%rax),%eax
   1814e:	83 c8 01             	or     $0x1,%eax
   18151:	be ff ff ff ff       	mov    $0xffffffff,%esi
   18156:	89 c7                	mov    %eax,%edi
   18158:	e8 a2 15 ff ff       	callq  96ff <safe_div_func_int32_t_s_s>
   1815d:	25 f5 e1 17 cb       	and    $0xcb17e1f5,%eax
   18162:	89 c6                	mov    %eax,%esi
   18164:	bf 59 7c 00 00       	mov    $0x7c59,%edi
   18169:	e8 50 1c ff ff       	callq  9dbe <safe_lshift_func_uint16_t_u_s>
   1816e:	0f b7 c0             	movzwl %ax,%eax
   18171:	89 85 28 e9 ff ff    	mov    %eax,-0x16d8(%rbp)
   18177:	8b 85 28 e9 ff ff    	mov    -0x16d8(%rbp),%eax
   1817d:	83 c8 01             	or     $0x1,%eax
   18180:	48 98                	cltq   
   18182:	48 33 85 88 e8 ff ff 	xor    -0x1778(%rbp),%rax
   18189:	48 89 c1             	mov    %rax,%rcx
   1818c:	0f b6 05 5f c1 00 00 	movzbl 0xc15f(%rip),%eax        # 242f2 <g_777>
   18193:	0f b6 c0             	movzbl %al,%eax
   18196:	8d 50 03             	lea    0x3(%rax),%edx
   18199:	0f b6 05 52 c1 00 00 	movzbl 0xc152(%rip),%eax        # 242f2 <g_777>
   181a0:	0f b6 c0             	movzbl %al,%eax
   181a3:	83 c0 06             	add    $0x6,%eax
   181a6:	48 63 f0             	movslq %eax,%rsi
   181a9:	48 63 d2             	movslq %edx,%rdx
   181ac:	48 89 d0             	mov    %rdx,%rax
   181af:	48 c1 e0 02          	shl    $0x2,%rax
   181b3:	48 01 d0             	add    %rdx,%rax
   181b6:	48 01 c0             	add    %rax,%rax
   181b9:	48 01 f0             	add    %rsi,%rax
   181bc:	8b 84 85 00 f1 ff ff 	mov    -0xf00(%rbp,%rax,4),%eax
   181c3:	89 c0                	mov    %eax,%eax
   181c5:	48 39 c1             	cmp    %rax,%rcx
   181c8:	0f 9d c0             	setge  %al
   181cb:	0f b6 c0             	movzbl %al,%eax
   181ce:	48 39 85 88 e8 ff ff 	cmp    %rax,-0x1778(%rbp)
   181d5:	0f 9d c0             	setge  %al
   181d8:	0f b6 c0             	movzbl %al,%eax
   181db:	44 89 e6             	mov    %r12d,%esi
   181de:	89 c7                	mov    %eax,%edi
   181e0:	e8 10 12 ff ff       	callq  93f5 <safe_mul_func_int16_t_s_s>
   181e5:	66 85 c0             	test   %ax,%ax
   181e8:	74 07                	je     181f1 <func_60+0x3f61>
   181ea:	b8 01 00 00 00       	mov    $0x1,%eax
   181ef:	eb 05                	jmp    181f6 <func_60+0x3f66>
   181f1:	b8 00 00 00 00       	mov    $0x0,%eax
   181f6:	0f b7 c0             	movzwl %ax,%eax
   181f9:	4c 8b a5 90 e9 ff ff 	mov    -0x1670(%rbp),%r12
   18200:	89 c6                	mov    %eax,%esi
   18202:	bf f6 ff 00 00       	mov    $0xfff6,%edi
   18207:	e8 31 1b ff ff       	callq  9d3d <safe_mul_func_uint16_t_u_u>
   1820c:	66 41 89 04 24       	mov    %ax,(%r12)
   18211:	48 8b 05 f0 e4 00 00 	mov    0xe4f0(%rip),%rax        # 26708 <g_633>
   18218:	48 8b 00             	mov    (%rax),%rax
   1821b:	48 8b 00             	mov    (%rax),%rax
   1821e:	0f b6 00             	movzbl (%rax),%eax
   18221:	0f b6 d0             	movzbl %al,%edx
   18224:	48 8b 85 88 e8 ff ff 	mov    -0x1778(%rbp),%rax
   1822b:	0f b6 c0             	movzbl %al,%eax
   1822e:	89 d6                	mov    %edx,%esi
   18230:	89 c7                	mov    %eax,%edi
   18232:	e8 77 19 ff ff       	callq  9bae <safe_mod_func_uint8_t_u_u>
   18237:	84 c0                	test   %al,%al
   18239:	0f 94 c0             	sete   %al
   1823c:	0f b6 c0             	movzbl %al,%eax
   1823f:	89 de                	mov    %ebx,%esi
   18241:	89 c7                	mov    %eax,%edi
   18243:	e8 ce 11 ff ff       	callq  9416 <safe_mod_func_int16_t_s_s>
   18248:	89 c2                	mov    %eax,%edx
   1824a:	48 8b 85 90 ea ff ff 	mov    -0x1570(%rbp),%rax
   18251:	88 10                	mov    %dl,(%rax)
   18253:	48 8b 85 90 ea ff ff 	mov    -0x1570(%rbp),%rax
   1825a:	0f b6 00             	movzbl (%rax),%eax
   1825d:	3c 08                	cmp    $0x8,%al
   1825f:	76 07                	jbe    18268 <func_60+0x3fd8>
   18261:	ba 01 00 00 00       	mov    $0x1,%edx
   18266:	eb 05                	jmp    1826d <func_60+0x3fdd>
   18268:	ba 00 00 00 00       	mov    $0x0,%edx
   1826d:	48 8b 85 08 ea ff ff 	mov    -0x15f8(%rbp),%rax
   18274:	8b 00                	mov    (%rax),%eax
   18276:	39 c2                	cmp    %eax,%edx
   18278:	0f 9d c0             	setge  %al
   1827b:	0f b6 c0             	movzbl %al,%eax
   1827e:	be 00 00 00 00       	mov    $0x0,%esi
   18283:	48 89 c7             	mov    %rax,%rdi
   18286:	e8 a3 1d ff ff       	callq  a02e <safe_add_func_uint64_t_u_u>
   1828b:	0f b7 c0             	movzwl %ax,%eax
   1828e:	be 06 00 00 00       	mov    $0x6,%esi
   18293:	89 c7                	mov    %eax,%edi
   18295:	e8 ae 1b ff ff       	callq  9e48 <safe_rshift_func_uint16_t_u_s>
   1829a:	66 85 c0             	test   %ax,%ax
   1829d:	0f 84 1a 03 00 00    	je     185bd <func_60+0x432d>
   182a3:	48 8d 05 1e c0 00 00 	lea    0xc01e(%rip),%rax        # 242c8 <g_405>
   182aa:	48 89 85 28 eb ff ff 	mov    %rax,-0x14d8(%rbp)
   182b1:	c7 85 30 e9 ff ff 02 	movl   $0x2,-0x16d0(%rbp)
   182b8:	00 00 00 
   182bb:	48 8d 85 d2 eb ff ff 	lea    -0x142e(%rbp),%rax
   182c2:	48 83 c0 02          	add    $0x2,%rax
   182c6:	48 89 85 30 eb ff ff 	mov    %rax,-0x14d0(%rbp)
   182cd:	48 8d 85 90 e9 ff ff 	lea    -0x1670(%rbp),%rax
   182d4:	48 89 85 38 eb ff ff 	mov    %rax,-0x14c8(%rbp)
   182db:	48 8d 05 82 bf 00 00 	lea    0xbf82(%rip),%rax        # 24264 <g_152+0x14>
   182e2:	48 89 85 40 eb ff ff 	mov    %rax,-0x14c0(%rbp)
   182e9:	66 c7 85 a8 e8 ff ff 	movw   $0x6,-0x1758(%rbp)
   182f0:	06 00 
   182f2:	48 8b 05 97 e4 00 00 	mov    0xe497(%rip),%rax        # 26790 <g_1145>
   182f9:	48 8b 00             	mov    (%rax),%rax
   182fc:	0f b7 00             	movzwl (%rax),%eax
   182ff:	66 89 05 18 bf 00 00 	mov    %ax,0xbf18(%rip)        # 2421e <g_142+0x9e>
   18306:	0f b7 05 11 bf 00 00 	movzwl 0xbf11(%rip),%eax        # 2421e <g_142+0x9e>
   1830d:	0f b7 d0             	movzwl %ax,%edx
   18310:	48 8b 85 88 e8 ff ff 	mov    -0x1778(%rbp),%rax
   18317:	0f b7 c0             	movzwl %ax,%eax
   1831a:	89 d6                	mov    %edx,%esi
   1831c:	89 c7                	mov    %eax,%edi
   1831e:	e8 39 1a ff ff       	callq  9d5c <safe_mod_func_uint16_t_u_u>
   18323:	0f b7 c0             	movzwl %ax,%eax
   18326:	be 00 00 00 00       	mov    $0x0,%esi
   1832b:	89 c7                	mov    %eax,%edi
   1832d:	e8 ed 19 ff ff       	callq  9d1f <safe_sub_func_uint16_t_u_u>
   18332:	0f be c0             	movsbl %al,%eax
   18335:	be c5 ff ff ff       	mov    $0xffffffc5,%esi
   1833a:	89 c7                	mov    %eax,%edi
   1833c:	e8 29 0f ff ff       	callq  926a <safe_div_func_int8_t_s_s>
   18341:	89 c2                	mov    %eax,%edx
   18343:	48 8b 85 90 e9 ff ff 	mov    -0x1670(%rbp),%rax
   1834a:	66 0f be d2          	movsbw %dl,%dx
   1834e:	66 89 10             	mov    %dx,(%rax)
   18351:	48 8b 85 78 e9 ff ff 	mov    -0x1688(%rbp),%rax
   18358:	c7 00 01 00 00 00    	movl   $0x1,(%rax)
   1835e:	48 8b 15 13 e4 00 00 	mov    0xe413(%rip),%rdx        # 26778 <g_981>
   18365:	8b 00                	mov    (%rax),%eax
   18367:	89 02                	mov    %eax,(%rdx)
   18369:	48 83 bd 88 e8 ff ff 	cmpq   $0x0,-0x1778(%rbp)
   18370:	00 
   18371:	74 05                	je     18378 <func_60+0x40e8>
   18373:	e9 73 de ff ff       	jmpq   161eb <func_60+0x1f5b>
   18378:	8b 1d 3e bf 00 00    	mov    0xbf3e(%rip),%ebx        # 242bc <g_389+0x1c>
   1837e:	44 8b a5 b8 e8 ff ff 	mov    -0x1748(%rbp),%r12d
   18385:	48 83 bd 88 e8 ff ff 	cmpq   $0x0,-0x1778(%rbp)
   1838c:	00 
   1838d:	74 15                	je     183a4 <func_60+0x4114>
   1838f:	48 8b 85 a8 e9 ff ff 	mov    -0x1658(%rbp),%rax
   18396:	8b 00                	mov    (%rax),%eax
   18398:	85 c0                	test   %eax,%eax
   1839a:	74 08                	je     183a4 <func_60+0x4114>
   1839c:	41 be 01 00 00 00    	mov    $0x1,%r14d
   183a2:	eb 06                	jmp    183aa <func_60+0x411a>
   183a4:	41 be 00 00 00 00    	mov    $0x0,%r14d
   183aa:	48 8b 85 88 e8 ff ff 	mov    -0x1778(%rbp),%rax
   183b1:	44 0f bf e8          	movswl %ax,%r13d
   183b5:	48 8d 05 20 bf 00 00 	lea    0xbf20(%rip),%rax        # 242dc <g_539+0x4>
   183bc:	48 89 85 f8 e9 ff ff 	mov    %rax,-0x1608(%rbp)
   183c3:	48 8d 05 10 bf 00 00 	lea    0xbf10(%rip),%rax        # 242da <g_539+0x2>
   183ca:	48 39 85 f8 e9 ff ff 	cmp    %rax,-0x1608(%rbp)
   183d1:	0f 94 c0             	sete   %al
   183d4:	0f b6 d0             	movzbl %al,%edx
   183d7:	48 8b 05 b2 e3 00 00 	mov    0xe3b2(%rip),%rax        # 26790 <g_1145>
   183de:	48 8b 00             	mov    (%rax),%rax
   183e1:	0f b7 00             	movzwl (%rax),%eax
   183e4:	98                   	cwtl   
   183e5:	31 d0                	xor    %edx,%eax
   183e7:	83 f0 01             	xor    $0x1,%eax
   183ea:	48 98                	cltq   
   183ec:	48 be 2d 31 b8 6c 03 	movabs $0x77b71c036cb8312d,%rsi
   183f3:	1c b7 77 
   183f6:	48 89 c7             	mov    %rax,%rdi
   183f9:	e8 aa 14 ff ff       	callq  98a8 <safe_sub_func_int64_t_s_s>
   183fe:	48 39 85 88 e8 ff ff 	cmp    %rax,-0x1778(%rbp)
   18405:	0f 9f c0             	setg   %al
   18408:	0f b6 d0             	movzbl %al,%edx
   1840b:	48 8b 85 a8 e9 ff ff 	mov    -0x1658(%rbp),%rax
   18412:	8b 00                	mov    (%rax),%eax
   18414:	39 c2                	cmp    %eax,%edx
   18416:	0f 9c c0             	setl   %al
   18419:	0f b6 d0             	movzbl %al,%edx
   1841c:	8b 05 36 bd 00 00    	mov    0xbd36(%rip),%eax        # 24158 <g_78>
   18422:	39 c2                	cmp    %eax,%edx
   18424:	0f 94 c0             	sete   %al
   18427:	0f b6 d0             	movzbl %al,%edx
   1842a:	48 8b 85 30 eb ff ff 	mov    -0x14d0(%rbp),%rax
   18431:	0f b7 00             	movzwl (%rax),%eax
   18434:	31 c2                	xor    %eax,%edx
   18436:	48 8b 85 30 eb ff ff 	mov    -0x14d0(%rbp),%rax
   1843d:	66 89 10             	mov    %dx,(%rax)
   18440:	48 8b 85 30 eb ff ff 	mov    -0x14d0(%rbp),%rax
   18447:	0f b7 00             	movzwl (%rax),%eax
   1844a:	98                   	cwtl   
   1844b:	44 89 ee             	mov    %r13d,%esi
   1844e:	89 c7                	mov    %eax,%edi
   18450:	e8 00 10 ff ff       	callq  9455 <safe_div_func_int16_t_s_s>
   18455:	98                   	cwtl   
   18456:	44 31 f0             	xor    %r14d,%eax
   18459:	44 89 e6             	mov    %r12d,%esi
   1845c:	89 c7                	mov    %eax,%edi
   1845e:	e8 69 12 ff ff       	callq  96cc <safe_mod_func_int32_t_s_s>
   18463:	89 c2                	mov    %eax,%edx
   18465:	48 8b 85 90 ea ff ff 	mov    -0x1570(%rbp),%rax
   1846c:	88 10                	mov    %dl,(%rax)
   1846e:	48 8b 85 90 ea ff ff 	mov    -0x1570(%rbp),%rax
   18475:	0f b6 00             	movzbl (%rax),%eax
   18478:	0f be d0             	movsbl %al,%edx
   1847b:	8b 05 23 be 00 00    	mov    0xbe23(%rip),%eax        # 242a4 <g_389+0x4>
   18481:	39 c2                	cmp    %eax,%edx
   18483:	0f 9c c0             	setl   %al
   18486:	0f b6 c0             	movzbl %al,%eax
   18489:	89 de                	mov    %ebx,%esi
   1848b:	89 c7                	mov    %eax,%edi
   1848d:	e8 73 17 ff ff       	callq  9c05 <safe_lshift_func_uint8_t_u_s>
   18492:	8b 0d 90 bb 00 00    	mov    0xbb90(%rip),%ecx        # 24028 <g_73>
   18498:	48 8b 95 78 ea ff ff 	mov    -0x1588(%rbp),%rdx
   1849f:	48 8b 12             	mov    (%rdx),%rdx
   184a2:	8b 32                	mov    (%rdx),%esi
   184a4:	0f b6 d0             	movzbl %al,%edx
   184a7:	48 8b 85 78 ea ff ff 	mov    -0x1588(%rbp),%rax
   184ae:	48 8b 00             	mov    (%rax),%rax
   184b1:	21 f2                	and    %esi,%edx
   184b3:	89 10                	mov    %edx,(%rax)
   184b5:	8b 00                	mov    (%rax),%eax
   184b7:	39 c1                	cmp    %eax,%ecx
   184b9:	0f 92 c0             	setb   %al
   184bc:	0f b6 d0             	movzbl %al,%edx
   184bf:	48 83 bd 28 ea ff ff 	cmpq   $0x0,-0x15d8(%rbp)
   184c6:	00 
   184c7:	0f 95 c0             	setne  %al
   184ca:	0f b6 c0             	movzbl %al,%eax
   184cd:	89 d6                	mov    %edx,%esi
   184cf:	89 c7                	mov    %eax,%edi
   184d1:	e8 1c 0d ff ff       	callq  91f2 <safe_sub_func_int8_t_s_s>
   184d6:	89 c2                	mov    %eax,%edx
   184d8:	48 8b 05 c1 e1 00 00 	mov    0xe1c1(%rip),%rax        # 266a0 <g_94>
   184df:	0f be d2             	movsbl %dl,%edx
   184e2:	89 10                	mov    %edx,(%rax)
   184e4:	48 8b 85 88 e8 ff ff 	mov    -0x1778(%rbp),%rax
   184eb:	41 89 c5             	mov    %eax,%r13d
   184ee:	0f bf 9d a8 e8 ff ff 	movswl -0x1758(%rbp),%ebx
   184f5:	8b 85 30 e9 ff ff    	mov    -0x16d0(%rbp),%eax
   184fb:	4c 63 e0             	movslq %eax,%r12
   184fe:	48 8b 85 88 e8 ff ff 	mov    -0x1778(%rbp),%rax
   18505:	0f b6 c0             	movzbl %al,%eax
   18508:	89 c6                	mov    %eax,%esi
   1850a:	bf 01 00 00 00       	mov    $0x1,%edi
   1850f:	e8 9a 16 ff ff       	callq  9bae <safe_mod_func_uint8_t_u_u>
   18514:	48 8b 05 35 e2 00 00 	mov    0xe235(%rip),%rax        # 26750 <g_817>
   1851b:	48 8b 00             	mov    (%rax),%rax
   1851e:	48 85 c0             	test   %rax,%rax
   18521:	0f 95 c0             	setne  %al
   18524:	0f b6 d0             	movzbl %al,%edx
   18527:	48 8b 05 1a e2 00 00 	mov    0xe21a(%rip),%rax        # 26748 <g_818>
   1852e:	48 8b 00             	mov    (%rax),%rax
   18531:	0f b7 00             	movzwl (%rax),%eax
   18534:	0f b7 c0             	movzwl %ax,%eax
   18537:	39 c2                	cmp    %eax,%edx
   18539:	0f 94 c0             	sete   %al
   1853c:	0f b6 c0             	movzbl %al,%eax
   1853f:	4c 89 e6             	mov    %r12,%rsi
   18542:	48 89 c7             	mov    %rax,%rdi
   18545:	e8 ad 14 ff ff       	callq  99f7 <safe_div_func_int64_t_s_s>
   1854a:	48 39 85 88 e8 ff ff 	cmp    %rax,-0x1778(%rbp)
   18551:	0f 9c c0             	setl   %al
   18554:	0f b6 c0             	movzbl %al,%eax
   18557:	be d0 ff ff ff       	mov    $0xffffffd0,%esi
   1855c:	89 c7                	mov    %eax,%edi
   1855e:	e8 af 0c ff ff       	callq  9212 <safe_mul_func_int8_t_s_s>
   18563:	66 98                	cbtw   
   18565:	f7 d0                	not    %eax
   18567:	98                   	cwtl   
   18568:	89 de                	mov    %ebx,%esi
   1856a:	89 c7                	mov    %eax,%edi
   1856c:	e8 f2 0f ff ff       	callq  9563 <safe_rshift_func_int16_t_s_u>
   18571:	48 8b 95 88 e8 ff ff 	mov    -0x1778(%rbp),%rdx
   18578:	31 d0                	xor    %edx,%eax
   1857a:	0f b7 c0             	movzwl %ax,%eax
   1857d:	44 89 ee             	mov    %r13d,%esi
   18580:	89 c7                	mov    %eax,%edi
   18582:	e8 7f 18 ff ff       	callq  9e06 <safe_lshift_func_uint16_t_u_u>
   18587:	48 8b 05 c2 e1 00 00 	mov    0xe1c2(%rip),%rax        # 26750 <g_817>
   1858e:	48 8b 00             	mov    (%rax),%rax
   18591:	48 39 85 38 eb ff ff 	cmp    %rax,-0x14c8(%rbp)
   18598:	48 8b 05 d9 bd 00 00 	mov    0xbdd9(%rip),%rax        # 24378 <g_956>
   1859f:	48 85 c0             	test   %rax,%rax
   185a2:	48 8d 85 b8 e8 ff ff 	lea    -0x1748(%rbp),%rax
   185a9:	48 89 85 e0 ec ff ff 	mov    %rax,-0x1320(%rbp)
   185b0:	48 83 bd 88 e8 ff ff 	cmpq   $0x0,-0x1778(%rbp)
   185b7:	00 
   185b8:	e9 d3 02 00 00       	jmpq   18890 <func_60+0x4600>
   185bd:	48 8d 05 04 bd 00 00 	lea    0xbd04(%rip),%rax        # 242c8 <g_405>
   185c4:	48 89 85 18 eb ff ff 	mov    %rax,-0x14e8(%rbp)
   185cb:	48 8d 05 ce e1 00 00 	lea    0xe1ce(%rip),%rax        # 267a0 <g_1328>
   185d2:	48 89 85 20 eb ff ff 	mov    %rax,-0x14e0(%rbp)
   185d9:	c7 85 d8 e8 ff ff 00 	movl   $0x0,-0x1728(%rbp)
   185e0:	00 00 00 
   185e3:	eb 1a                	jmp    185ff <func_60+0x436f>
   185e5:	8b 85 d8 e8 ff ff    	mov    -0x1728(%rbp),%eax
   185eb:	48 98                	cltq   
   185ed:	c7 84 85 90 ec ff ff 	movl   $0x2371e6b4,-0x1370(%rbp,%rax,4)
   185f4:	b4 e6 71 23 
   185f8:	83 85 d8 e8 ff ff 01 	addl   $0x1,-0x1728(%rbp)
   185ff:	83 bd d8 e8 ff ff 09 	cmpl   $0x9,-0x1728(%rbp)
   18606:	7e dd                	jle    185e5 <func_60+0x4355>
   18608:	8b 85 94 ec ff ff    	mov    -0x136c(%rbp),%eax
   1860e:	89 c2                	mov    %eax,%edx
   18610:	48 8b 85 88 e8 ff ff 	mov    -0x1778(%rbp),%rax
   18617:	89 d6                	mov    %edx,%esi
   18619:	89 c7                	mov    %eax,%edi
   1861b:	e8 b0 18 ff ff       	callq  9ed0 <safe_sub_func_uint32_t_u_u>
   18620:	89 c2                	mov    %eax,%edx
   18622:	8b 8d 98 ec ff ff    	mov    -0x1368(%rbp),%ecx
   18628:	48 8b 85 80 e9 ff ff 	mov    -0x1680(%rbp),%rax
   1862f:	48 8b 00             	mov    (%rax),%rax
   18632:	48 8b 00             	mov    (%rax),%rax
   18635:	89 08                	mov    %ecx,(%rax)
   18637:	8b 00                	mov    (%rax),%eax
   18639:	39 c2                	cmp    %eax,%edx
   1863b:	0f 82 b9 00 00 00    	jb     186fa <func_60+0x446a>
   18641:	0f b7 05 c0 bb 00 00 	movzwl 0xbbc0(%rip),%eax        # 24208 <g_142+0x88>
   18648:	0f b7 d8             	movzwl %ax,%ebx
   1864b:	48 8b 05 36 e1 00 00 	mov    0xe136(%rip),%rax        # 26788 <g_1146>
   18652:	48 8b 05 ff e0 00 00 	mov    0xe0ff(%rip),%rax        # 26758 <g_880>
   18659:	48 8b 00             	mov    (%rax),%rax
   1865c:	8b 00                	mov    (%rax),%eax
   1865e:	f7 d0                	not    %eax
   18660:	89 c2                	mov    %eax,%edx
   18662:	8b 85 b4 ec ff ff    	mov    -0x134c(%rbp),%eax
   18668:	09 d0                	or     %edx,%eax
   1866a:	48 63 d0             	movslq %eax,%rdx
   1866d:	48 8b 85 18 eb ff ff 	mov    -0x14e8(%rbp),%rax
   18674:	48 8b 00             	mov    (%rax),%rax
   18677:	48 8d 70 ff          	lea    -0x1(%rax),%rsi
   1867b:	48 8b 8d 18 eb ff ff 	mov    -0x14e8(%rbp),%rcx
   18682:	48 89 31             	mov    %rsi,(%rcx)
   18685:	48 89 d6             	mov    %rdx,%rsi
   18688:	48 89 c7             	mov    %rax,%rdi
   1868b:	e8 1f 1a ff ff       	callq  a0af <safe_div_func_uint64_t_u_u>
   18690:	48 83 e0 f6          	and    $0xfffffffffffffff6,%rax
   18694:	48 89 c2             	mov    %rax,%rdx
   18697:	8b 85 94 ec ff ff    	mov    -0x136c(%rbp),%eax
   1869d:	0d 59 22 9e 4c       	or     $0x4c9e2259,%eax
   186a2:	48 98                	cltq   
   186a4:	48 39 85 88 e8 ff ff 	cmp    %rax,-0x1778(%rbp)
   186ab:	0f 9c c0             	setl   %al
   186ae:	0f b6 c0             	movzbl %al,%eax
   186b1:	89 85 2c e9 ff ff    	mov    %eax,-0x16d4(%rbp)
   186b7:	48 8b 85 88 e8 ff ff 	mov    -0x1778(%rbp),%rax
   186be:	48 89 d6             	mov    %rdx,%rsi
   186c1:	48 89 c7             	mov    %rax,%rdi
   186c4:	e8 b7 19 ff ff       	callq  a080 <safe_mod_func_uint64_t_u_u>
   186c9:	0f b7 85 a4 e8 ff ff 	movzwl -0x175c(%rbp),%eax
   186d0:	89 de                	mov    %ebx,%esi
   186d2:	89 c7                	mov    %eax,%edi
   186d4:	e8 26 16 ff ff       	callq  9cff <safe_add_func_uint16_t_u_u>
   186d9:	0f b7 c0             	movzwl %ax,%eax
   186dc:	48 be 4f f5 0f d8 e9 	movabs $0xe8b25ae9d80ff54f,%rsi
   186e3:	5a b2 e8 
   186e6:	48 89 c7             	mov    %rax,%rdi
   186e9:	e8 ba 11 ff ff       	callq  98a8 <safe_sub_func_int64_t_s_s>
   186ee:	48 85 c0             	test   %rax,%rax
   186f1:	74 07                	je     186fa <func_60+0x446a>
   186f3:	ba 01 00 00 00       	mov    $0x1,%edx
   186f8:	eb 05                	jmp    186ff <func_60+0x446f>
   186fa:	ba 00 00 00 00       	mov    $0x0,%edx
   186ff:	48 8b 05 9a df 00 00 	mov    0xdf9a(%rip),%rax        # 266a0 <g_94>
   18706:	89 10                	mov    %edx,(%rax)
   18708:	8b 85 e4 e8 ff ff    	mov    -0x171c(%rbp),%eax
   1870e:	48 63 d8             	movslq %eax,%rbx
   18711:	48 8b 85 88 e8 ff ff 	mov    -0x1778(%rbp),%rax
   18718:	44 0f b6 e0          	movzbl %al,%r12d
   1871c:	48 8b 15 7d e0 00 00 	mov    0xe07d(%rip),%rdx        # 267a0 <g_1328>
   18723:	48 8b 85 20 eb ff ff 	mov    -0x14e0(%rbp),%rax
   1872a:	48 89 10             	mov    %rdx,(%rax)
   1872d:	48 8b 85 20 eb ff ff 	mov    -0x14e0(%rbp),%rax
   18734:	48 8b 00             	mov    (%rax),%rax
   18737:	48 39 85 a0 ea ff ff 	cmp    %rax,-0x1560(%rbp)
   1873e:	0f 94 c0             	sete   %al
   18741:	0f b6 c0             	movzbl %al,%eax
   18744:	48 89 c7             	mov    %rax,%rdi
   18747:	e8 ca 10 ff ff       	callq  9816 <safe_unary_minus_func_int64_t_s>
   1874c:	98                   	cwtl   
   1874d:	be 04 00 00 00       	mov    $0x4,%esi
   18752:	89 c7                	mov    %eax,%edi
   18754:	e8 d1 0d ff ff       	callq  952a <safe_rshift_func_int16_t_s_s>
   18759:	0f b6 05 24 bc 00 00 	movzbl 0xbc24(%rip),%eax        # 24384 <g_1340>
   18760:	44 0f be e8          	movsbl %al,%r13d
   18764:	48 8b 85 18 eb ff ff 	mov    -0x14e8(%rbp),%rax
   1876b:	48 8b 00             	mov    (%rax),%rax
   1876e:	48 8d 50 ff          	lea    -0x1(%rax),%rdx
   18772:	48 8b 85 18 eb ff ff 	mov    -0x14e8(%rbp),%rax
   18779:	48 89 10             	mov    %rdx,(%rax)
   1877c:	48 8b 85 18 eb ff ff 	mov    -0x14e8(%rbp),%rax
   18783:	48 8b 00             	mov    (%rax),%rax
   18786:	48 ba 49 26 04 28 2f 	movabs $0x908e922f28042649,%rdx
   1878d:	92 8e 90 
   18790:	48 39 d0             	cmp    %rdx,%rax
   18793:	48 83 bd 10 eb ff ff 	cmpq   $0x0,-0x14f0(%rbp)
   1879a:	00 
   1879b:	48 8b 05 f6 df 00 00 	mov    0xdff6(%rip),%rax        # 26798 <g_1329>
   187a2:	0f b7 00             	movzwl (%rax),%eax
   187a5:	89 c1                	mov    %eax,%ecx
   187a7:	48 83 bd 88 e8 ff ff 	cmpq   $0xfffffffffffffffc,-0x1778(%rbp)
   187ae:	fc 
   187af:	0f 95 c0             	setne  %al
   187b2:	0f b6 d0             	movzbl %al,%edx
   187b5:	48 8b 05 3c df 00 00 	mov    0xdf3c(%rip),%rax        # 266f8 <g_635>
   187bc:	0f b6 00             	movzbl (%rax),%eax
   187bf:	0f b6 c0             	movzbl %al,%eax
   187c2:	31 d0                	xor    %edx,%eax
   187c4:	3d 85 45 00 00       	cmp    $0x4585,%eax
   187c9:	0f 9e c0             	setle  %al
   187cc:	0f b6 c0             	movzbl %al,%eax
   187cf:	09 c1                	or     %eax,%ecx
   187d1:	89 ca                	mov    %ecx,%edx
   187d3:	48 8b 05 be df 00 00 	mov    0xdfbe(%rip),%rax        # 26798 <g_1329>
   187da:	66 89 10             	mov    %dx,(%rax)
   187dd:	0f b7 00             	movzwl (%rax),%eax
   187e0:	0f b7 c0             	movzwl %ax,%eax
   187e3:	be 01 00 00 00       	mov    $0x1,%esi
   187e8:	89 c7                	mov    %eax,%edi
   187ea:	e8 cf 15 ff ff       	callq  9dbe <safe_lshift_func_uint16_t_u_s>
   187ef:	48 83 bd 88 e8 ff ff 	cmpq   $0x0,-0x1778(%rbp)
   187f6:	00 
   187f7:	0f 94 c0             	sete   %al
   187fa:	0f b6 c0             	movzbl %al,%eax
   187fd:	44 89 ee             	mov    %r13d,%esi
   18800:	89 c7                	mov    %eax,%edi
   18802:	e8 eb 09 ff ff       	callq  91f2 <safe_sub_func_int8_t_s_s>
   18807:	84 c0                	test   %al,%al
   18809:	75 12                	jne    1881d <func_60+0x458d>
   1880b:	48 8b 05 f6 de 00 00 	mov    0xdef6(%rip),%rax        # 26708 <g_633>
   18812:	48 8b 00             	mov    (%rax),%rax
   18815:	48 8b 00             	mov    (%rax),%rax
   18818:	0f b6 00             	movzbl (%rax),%eax
   1881b:	84 c0                	test   %al,%al
   1881d:	48 8b 85 88 e8 ff ff 	mov    -0x1778(%rbp),%rax
   18824:	48 83 f0 01          	xor    $0x1,%rax
   18828:	48 39 85 88 e8 ff ff 	cmp    %rax,-0x1778(%rbp)
   1882f:	0f 9f c0             	setg   %al
   18832:	0f b6 c0             	movzbl %al,%eax
   18835:	44 89 e6             	mov    %r12d,%esi
   18838:	89 c7                	mov    %eax,%edi
   1883a:	e8 54 13 ff ff       	callq  9b93 <safe_mul_func_uint8_t_u_u>
   1883f:	0f b6 c0             	movzbl %al,%eax
   18842:	48 89 de             	mov    %rbx,%rsi
   18845:	48 89 c7             	mov    %rax,%rdi
   18848:	e8 33 18 ff ff       	callq  a080 <safe_mod_func_uint64_t_u_u>
   1884d:	8b 15 25 ba 00 00    	mov    0xba25(%rip),%edx        # 24278 <g_206>
   18853:	48 63 d2             	movslq %edx,%rdx
   18856:	48 39 d0             	cmp    %rdx,%rax
   18859:	0f 95 c0             	setne  %al
   1885c:	0f b6 c0             	movzbl %al,%eax
   1885f:	48 8b 95 98 e9 ff ff 	mov    -0x1668(%rbp),%rdx
   18866:	48 8b 12             	mov    (%rdx),%rdx
   18869:	c7 02 c3 00 00 00    	movl   $0xc3,(%rdx)
   1886f:	89 c6                	mov    %eax,%esi
   18871:	bf c3 00 00 00       	mov    $0xc3,%edi
   18876:	e8 fd 12 ff ff       	callq  9b78 <safe_sub_func_uint8_t_u_u>
   1887b:	0f b6 c0             	movzbl %al,%eax
   1887e:	89 85 a4 ef ff ff    	mov    %eax,-0x105c(%rbp)
   18884:	48 8b 85 88 e8 ff ff 	mov    -0x1778(%rbp),%rax
   1888b:	e9 9a 03 00 00       	jmpq   18c2a <func_60+0x499a>
   18890:	0f b6 05 5b ba 00 00 	movzbl 0xba5b(%rip),%eax        # 242f2 <g_777>
   18897:	83 c0 01             	add    $0x1,%eax
   1889a:	88 05 52 ba 00 00    	mov    %al,0xba52(%rip)        # 242f2 <g_777>
   188a0:	0f b6 05 4b ba 00 00 	movzbl 0xba4b(%rip),%eax        # 242f2 <g_777>
   188a7:	84 c0                	test   %al,%al
   188a9:	0f 84 4d ed ff ff    	je     175fc <func_60+0x336c>
   188af:	e9 88 00 00 00       	jmpq   1893c <func_60+0x46ac>
   188b4:	48 8b 05 ed de 00 00 	mov    0xdeed(%rip),%rax        # 267a8 <g_1344>
   188bb:	48 85 c0             	test   %rax,%rax
   188be:	0f 95 c0             	setne  %al
   188c1:	0f b6 c0             	movzbl %al,%eax
   188c4:	89 c6                	mov    %eax,%esi
   188c6:	bf 05 00 00 00       	mov    $0x5,%edi
   188cb:	e8 e8 15 ff ff       	callq  9eb8 <safe_add_func_uint32_t_u_u>
   188d0:	89 c2                	mov    %eax,%edx
   188d2:	48 8b 85 f8 e9 ff ff 	mov    -0x1608(%rbp),%rax
   188d9:	0f b6 00             	movzbl (%rax),%eax
   188dc:	89 c1                	mov    %eax,%ecx
   188de:	89 d0                	mov    %edx,%eax
   188e0:	21 c8                	and    %ecx,%eax
   188e2:	89 c2                	mov    %eax,%edx
   188e4:	48 8b 85 f8 e9 ff ff 	mov    -0x1608(%rbp),%rax
   188eb:	88 10                	mov    %dl,(%rax)
   188ed:	48 8b 85 f8 e9 ff ff 	mov    -0x1608(%rbp),%rax
   188f4:	0f b6 00             	movzbl (%rax),%eax
   188f7:	48 0f be c0          	movsbq %al,%rax
   188fb:	48 39 85 88 e8 ff ff 	cmp    %rax,-0x1778(%rbp)
   18902:	0f 9c c0             	setl   %al
   18905:	0f b6 c8             	movzbl %al,%ecx
   18908:	48 8b 85 98 e9 ff ff 	mov    -0x1668(%rbp),%rax
   1890f:	48 8b 00             	mov    (%rax),%rax
   18912:	8b 10                	mov    (%rax),%edx
   18914:	48 8b 85 98 e9 ff ff 	mov    -0x1668(%rbp),%rax
   1891b:	48 8b 00             	mov    (%rax),%rax
   1891e:	21 ca                	and    %ecx,%edx
   18920:	89 10                	mov    %edx,(%rax)
   18922:	8b 00                	mov    (%rax),%eax
   18924:	48 98                	cltq   
   18926:	48 39 85 88 e8 ff ff 	cmp    %rax,-0x1778(%rbp)
   1892d:	0f 94 c0             	sete   %al
   18930:	0f b6 d0             	movzbl %al,%edx
   18933:	48 8b 85 00 ea ff ff 	mov    -0x1600(%rbp),%rax
   1893a:	89 10                	mov    %edx,(%rax)
   1893c:	0f b6 05 1d b8 00 00 	movzbl 0xb81d(%rip),%eax        # 24160 <g_104>
   18943:	48 0f be c0          	movsbq %al,%rax
   18947:	be 07 00 00 00       	mov    $0x7,%esi
   1894c:	48 89 c7             	mov    %rax,%rdi
   1894f:	e8 54 0f ff ff       	callq  98a8 <safe_sub_func_int64_t_s_s>
   18954:	88 05 06 b8 00 00    	mov    %al,0xb806(%rip)        # 24160 <g_104>
   1895a:	0f b6 05 ff b7 00 00 	movzbl 0xb7ff(%rip),%eax        # 24160 <g_104>
   18961:	3c f6                	cmp    $0xf6,%al
   18963:	0f 8c 9f d8 ff ff    	jl     16208 <func_60+0x1f78>
   18969:	eb 01                	jmp    1896c <func_60+0x46dc>
   1896b:	90                   	nop
   1896c:	c6 05 7d b9 00 00 00 	movb   $0x0,0xb97d(%rip)        # 242f0 <g_636>
   18973:	e9 15 01 00 00       	jmpq   18a8d <func_60+0x47fd>
   18978:	48 8d 85 40 fb ff ff 	lea    -0x4c0(%rbp),%rax
   1897f:	48 8d 15 fa 7b 00 00 	lea    0x7bfa(%rip),%rdx        # 20580 <g_2439+0x2500>
   18986:	b9 2d 00 00 00       	mov    $0x2d,%ecx
   1898b:	48 89 c7             	mov    %rax,%rdi
   1898e:	48 89 d6             	mov    %rdx,%rsi
   18991:	f3 48 a5             	rep movsq %ds:(%rsi),%es:(%rdi)
   18994:	c7 85 34 e9 ff ff 01 	movl   $0x1,-0x16cc(%rbp)
   1899b:	00 00 00 
   1899e:	48 8d 85 20 ec ff ff 	lea    -0x13e0(%rbp),%rax
   189a5:	48 83 c0 14          	add    $0x14,%rax
   189a9:	48 89 85 48 eb ff ff 	mov    %rax,-0x14b8(%rbp)
   189b0:	c7 85 30 f0 ff ff 12 	movl   $0x2850c712,-0xfd0(%rbp)
   189b7:	c7 50 28 
   189ba:	c7 85 34 f0 ff ff 12 	movl   $0x2850c712,-0xfcc(%rbp)
   189c1:	c7 50 28 
   189c4:	c7 85 38 f0 ff ff 12 	movl   $0x2850c712,-0xfc8(%rbp)
   189cb:	c7 50 28 
   189ce:	c7 85 3c f0 ff ff 12 	movl   $0x2850c712,-0xfc4(%rbp)
   189d5:	c7 50 28 
   189d8:	c7 85 40 f0 ff ff 12 	movl   $0x2850c712,-0xfc0(%rbp)
   189df:	c7 50 28 
   189e2:	c7 85 38 e9 ff ff f7 	movl   $0xfffffff7,-0x16c8(%rbp)
   189e9:	ff ff ff 
   189ec:	c7 85 3c e9 ff ff 03 	movl   $0x3,-0x16c4(%rbp)
   189f3:	00 00 00 
   189f6:	c7 85 40 e9 ff ff 3d 	movl   $0x10c5d13d,-0x16c0(%rbp)
   189fd:	d1 c5 10 
   18a00:	48 b8 30 53 59 04 cb 	movabs $0xcf6f5acb04595330,%rax
   18a07:	5a 6f cf 
   18a0a:	48 89 85 90 f6 ff ff 	mov    %rax,-0x970(%rbp)
   18a11:	48 89 85 98 f6 ff ff 	mov    %rax,-0x968(%rbp)
   18a18:	48 89 85 a0 f6 ff ff 	mov    %rax,-0x960(%rbp)
   18a1f:	48 89 85 a8 f6 ff ff 	mov    %rax,-0x958(%rbp)
   18a26:	48 89 85 b0 f6 ff ff 	mov    %rax,-0x950(%rbp)
   18a2d:	48 89 85 b8 f6 ff ff 	mov    %rax,-0x948(%rbp)
   18a34:	48 89 85 c0 f6 ff ff 	mov    %rax,-0x940(%rbp)
   18a3b:	48 89 85 c8 f6 ff ff 	mov    %rax,-0x938(%rbp)
   18a42:	c7 85 dc e8 ff ff 00 	movl   $0x0,-0x1724(%rbp)
   18a49:	00 00 00 
   18a4c:	eb 1a                	jmp    18a68 <func_60+0x47d8>
   18a4e:	8b 85 dc e8 ff ff    	mov    -0x1724(%rbp),%eax
   18a54:	48 98                	cltq   
   18a56:	c7 84 85 70 ef ff ff 	movl   $0xfffffff7,-0x1090(%rbp,%rax,4)
   18a5d:	f7 ff ff ff 
   18a61:	83 85 dc e8 ff ff 01 	addl   $0x1,-0x1724(%rbp)
   18a68:	83 bd dc e8 ff ff 01 	cmpl   $0x1,-0x1724(%rbp)
   18a6f:	7e dd                	jle    18a4e <func_60+0x47be>
   18a71:	0f b6 05 78 b8 00 00 	movzbl 0xb878(%rip),%eax        # 242f0 <g_636>
   18a78:	0f b6 c0             	movzbl %al,%eax
   18a7b:	be 07 00 00 00       	mov    $0x7,%esi
   18a80:	89 c7                	mov    %eax,%edi
   18a82:	e8 2f 0b ff ff       	callq  95b6 <safe_add_func_int32_t_s_s>
   18a87:	88 05 63 b8 00 00    	mov    %al,0xb863(%rip)        # 242f0 <g_636>
   18a8d:	0f b6 05 5c b8 00 00 	movzbl 0xb85c(%rip),%eax        # 242f0 <g_636>
   18a94:	3c 28                	cmp    $0x28,%al
   18a96:	0f 86 dc fe ff ff    	jbe    18978 <func_60+0x46e8>
   18a9c:	48 8b 85 88 e8 ff ff 	mov    -0x1778(%rbp),%rax
   18aa3:	41 89 c4             	mov    %eax,%r12d
   18aa6:	48 8b 05 e3 dc 00 00 	mov    0xdce3(%rip),%rax        # 26790 <g_1145>
   18aad:	48 8b 00             	mov    (%rax),%rax
   18ab0:	0f b7 00             	movzwl (%rax),%eax
   18ab3:	66 85 c0             	test   %ax,%ax
   18ab6:	0f 85 a1 00 00 00    	jne    18b5d <func_60+0x48cd>
   18abc:	48 8b 85 78 e9 ff ff 	mov    -0x1688(%rbp),%rax
   18ac3:	8b 00                	mov    (%rax),%eax
   18ac5:	0f bf d8             	movswl %ax,%ebx
   18ac8:	48 8b 85 88 e8 ff ff 	mov    -0x1778(%rbp),%rax
   18acf:	89 c2                	mov    %eax,%edx
   18ad1:	48 8b 85 60 ea ff ff 	mov    -0x15a0(%rbp),%rax
   18ad8:	89 10                	mov    %edx,(%rax)
   18ada:	be 0b 00 00 00       	mov    $0xb,%esi
   18adf:	bf 01 00 00 00       	mov    $0x1,%edi
   18ae4:	e8 1d 13 ff ff       	callq  9e06 <safe_lshift_func_uint16_t_u_u>
   18ae9:	83 c8 39             	or     $0x39,%eax
   18aec:	0f b7 c0             	movzwl %ax,%eax
   18aef:	48 23 85 88 e8 ff ff 	and    -0x1778(%rbp),%rax
   18af6:	48 89 c1             	mov    %rax,%rcx
   18af9:	48 8b 85 68 e9 ff ff 	mov    -0x1698(%rbp),%rax
   18b00:	0f b7 10             	movzwl (%rax),%edx
   18b03:	48 8b 85 68 e9 ff ff 	mov    -0x1698(%rbp),%rax
   18b0a:	21 ca                	and    %ecx,%edx
   18b0c:	66 89 10             	mov    %dx,(%rax)
   18b0f:	0f b7 00             	movzwl (%rax),%eax
   18b12:	98                   	cwtl   
   18b13:	be 02 00 00 00       	mov    $0x2,%esi
   18b18:	89 c7                	mov    %eax,%edi
   18b1a:	e8 44 0a ff ff       	callq  9563 <safe_rshift_func_int16_t_s_u>
   18b1f:	89 c2                	mov    %eax,%edx
   18b21:	48 8b 85 b8 e9 ff ff 	mov    -0x1648(%rbp),%rax
   18b28:	48 8b 00             	mov    (%rax),%rax
   18b2b:	88 10                	mov    %dl,(%rax)
   18b2d:	0f b6 00             	movzbl (%rax),%eax
   18b30:	0f b6 c0             	movzbl %al,%eax
   18b33:	48 39 85 88 e8 ff ff 	cmp    %rax,-0x1778(%rbp)
   18b3a:	0f 94 c0             	sete   %al
   18b3d:	0f b6 c0             	movzbl %al,%eax
   18b40:	89 de                	mov    %ebx,%esi
   18b42:	89 c7                	mov    %eax,%edi
   18b44:	e8 cd 08 ff ff       	callq  9416 <safe_mod_func_int16_t_s_s>
   18b49:	0f b7 c0             	movzwl %ax,%eax
   18b4c:	89 c6                	mov    %eax,%esi
   18b4e:	bf 01 00 00 00       	mov    $0x1,%edi
   18b53:	e8 e5 11 ff ff       	callq  9d3d <safe_mul_func_uint16_t_u_u>
   18b58:	66 85 c0             	test   %ax,%ax
   18b5b:	74 07                	je     18b64 <func_60+0x48d4>
   18b5d:	b8 01 00 00 00       	mov    $0x1,%eax
   18b62:	eb 05                	jmp    18b69 <func_60+0x48d9>
   18b64:	b8 00 00 00 00       	mov    $0x0,%eax
   18b69:	0f b7 c0             	movzwl %ax,%eax
   18b6c:	be 09 00 00 00       	mov    $0x9,%esi
   18b71:	89 c7                	mov    %eax,%edi
   18b73:	e8 8e 12 ff ff       	callq  9e06 <safe_lshift_func_uint16_t_u_u>
   18b78:	0f b7 d0             	movzwl %ax,%edx
   18b7b:	48 8b 05 1e db 00 00 	mov    0xdb1e(%rip),%rax        # 266a0 <g_94>
   18b82:	8b 00                	mov    (%rax),%eax
   18b84:	21 d0                	and    %edx,%eax
   18b86:	44 89 e6             	mov    %r12d,%esi
   18b89:	89 c7                	mov    %eax,%edi
   18b8b:	e8 40 13 ff ff       	callq  9ed0 <safe_sub_func_uint32_t_u_u>
   18b90:	89 c2                	mov    %eax,%edx
   18b92:	0f b6 05 41 b7 00 00 	movzbl 0xb741(%rip),%eax        # 242da <g_539+0x2>
   18b99:	66 98                	cbtw   
   18b9b:	09 d0                	or     %edx,%eax
   18b9d:	0f b7 d0             	movzwl %ax,%edx
   18ba0:	48 8b 85 e0 f9 ff ff 	mov    -0x620(%rbp),%rax
   18ba7:	48 89 85 e0 f9 ff ff 	mov    %rax,-0x620(%rbp)
   18bae:	48 8b 85 e0 f9 ff ff 	mov    -0x620(%rbp),%rax
   18bb5:	48 39 85 38 ea ff ff 	cmp    %rax,-0x15c8(%rbp)
   18bbc:	0f 94 c0             	sete   %al
   18bbf:	0f b6 c0             	movzbl %al,%eax
   18bc2:	89 d6                	mov    %edx,%esi
   18bc4:	89 c7                	mov    %eax,%edi
   18bc6:	e8 72 11 ff ff       	callq  9d3d <safe_mul_func_uint16_t_u_u>
   18bcb:	48 8b 05 76 fb 00 00 	mov    0xfb76(%rip),%rax        # 28748 <g_19>
   18bd2:	89 c2                	mov    %eax,%edx
   18bd4:	48 8b 85 88 e8 ff ff 	mov    -0x1778(%rbp),%rax
   18bdb:	89 d6                	mov    %edx,%esi
   18bdd:	89 c7                	mov    %eax,%edi
   18bdf:	e8 e8 0a ff ff       	callq  96cc <safe_mod_func_int32_t_s_s>
   18be4:	48 8b 95 98 e9 ff ff 	mov    -0x1668(%rbp),%rdx
   18beb:	48 8b 12             	mov    (%rdx),%rdx
   18bee:	8b 12                	mov    (%rdx),%edx
   18bf0:	39 d0                	cmp    %edx,%eax
   18bf2:	0f 9c c2             	setl   %dl
   18bf5:	48 8b 85 a8 e9 ff ff 	mov    -0x1658(%rbp),%rax
   18bfc:	0f b6 d2             	movzbl %dl,%edx
   18bff:	89 10                	mov    %edx,(%rax)
   18c01:	8b 00                	mov    (%rax),%eax
   18c03:	89 85 fc e8 ff ff    	mov    %eax,-0x1704(%rbp)
   18c09:	8b 95 fc e8 ff ff    	mov    -0x1704(%rbp),%edx
   18c0f:	8b 85 68 ed ff ff    	mov    -0x1298(%rbp),%eax
   18c15:	09 d0                	or     %edx,%eax
   18c17:	89 85 68 ed ff ff    	mov    %eax,-0x1298(%rbp)
   18c1d:	48 8b 05 6c db 00 00 	mov    0xdb6c(%rip),%rax        # 26790 <g_1145>
   18c24:	48 8b 00             	mov    (%rax),%rax
   18c27:	0f b7 00             	movzwl (%rax),%eax
   18c2a:	48 8b 5d d8          	mov    -0x28(%rbp),%rbx
   18c2e:	64 48 33 1c 25 28 00 	xor    %fs:0x28,%rbx
   18c35:	00 00 
   18c37:	74 05                	je     18c3e <func_60+0x49ae>
   18c39:	e8 32 04 ff ff       	callq  9070 <__stack_chk_fail@plt>
   18c3e:	48 81 c4 60 17 00 00 	add    $0x1760,%rsp
   18c45:	5b                   	pop    %rbx
   18c46:	41 5c                	pop    %r12
   18c48:	41 5d                	pop    %r13
   18c4a:	41 5e                	pop    %r14
   18c4c:	5d                   	pop    %rbp
   18c4d:	c3                   	retq   

0000000000018c4e <func_69>:
   18c4e:	f3 0f 1e fa          	endbr64 
   18c52:	55                   	push   %rbp
   18c53:	48 89 e5             	mov    %rsp,%rbp
   18c56:	41 57                	push   %r15
   18c58:	41 56                	push   %r14
   18c5a:	41 55                	push   %r13
   18c5c:	41 54                	push   %r12
   18c5e:	53                   	push   %rbx
   18c5f:	48 81 ec 38 0c 00 00 	sub    $0xc38,%rsp
   18c66:	48 89 bd a8 f3 ff ff 	mov    %rdi,-0xc58(%rbp)
   18c6d:	64 48 8b 04 25 28 00 	mov    %fs:0x28,%rax
   18c74:	00 00 
   18c76:	48 89 45 c8          	mov    %rax,-0x38(%rbp)
   18c7a:	31 c0                	xor    %eax,%eax
   18c7c:	c6 85 b1 f3 ff ff 81 	movb   $0x81,-0xc4f(%rbp)
   18c83:	48 8d 05 da b4 00 00 	lea    0xb4da(%rip),%rax        # 24164 <g_109>
   18c8a:	48 89 85 b8 f4 ff ff 	mov    %rax,-0xb48(%rbp)
   18c91:	48 8d 05 c0 b4 00 00 	lea    0xb4c0(%rip),%rax        # 24158 <g_78>
   18c98:	48 89 85 68 f4 ff ff 	mov    %rax,-0xb98(%rbp)
   18c9f:	48 8d 85 68 f4 ff ff 	lea    -0xb98(%rbp),%rax
   18ca6:	48 89 85 c0 f4 ff ff 	mov    %rax,-0xb40(%rbp)
   18cad:	c7 85 c4 f3 ff ff e2 	movl   $0xffb082e2,-0xc3c(%rbp)
   18cb4:	82 b0 ff 
   18cb7:	c7 85 c8 f3 ff ff 03 	movl   $0x3,-0xc38(%rbp)
   18cbe:	00 00 00 
   18cc1:	c7 85 e4 f3 ff ff e9 	movl   $0x51dbeee9,-0xc1c(%rbp)
   18cc8:	ee db 51 
   18ccb:	c7 85 18 f4 ff ff fb 	movl   $0xcc1a10fb,-0xbe8(%rbp)
   18cd2:	10 1a cc 
   18cd5:	c7 85 dc f3 ff ff 89 	movl   $0x9ebf9289,-0xc24(%rbp)
   18cdc:	92 bf 9e 
   18cdf:	c7 85 cc f3 ff ff 98 	movl   $0x111d5598,-0xc34(%rbp)
   18ce6:	55 1d 11 
   18ce9:	c7 85 d0 f3 ff ff f9 	movl   $0xfffffff9,-0xc30(%rbp)
   18cf0:	ff ff ff 
   18cf3:	48 8d 85 40 fc ff ff 	lea    -0x3c0(%rbp),%rax
   18cfa:	48 8d 15 ff 79 00 00 	lea    0x79ff(%rip),%rdx        # 20700 <g_2439+0x2680>
   18d01:	b9 70 00 00 00       	mov    $0x70,%ecx
   18d06:	48 89 c7             	mov    %rax,%rdi
   18d09:	48 89 d6             	mov    %rdx,%rsi
   18d0c:	f3 48 a5             	rep movsq %ds:(%rsi),%es:(%rdi)
   18d0f:	c7 85 e0 f3 ff ff 5f 	movl   $0xffd8805f,-0xc20(%rbp)
   18d16:	80 d8 ff 
   18d19:	48 b8 6a fb 5d 39 f5 	movabs $0xb56faf5395dfb6a,%rax
   18d20:	fa 56 0b 
   18d23:	48 89 85 c8 f4 ff ff 	mov    %rax,-0xb38(%rbp)
   18d2a:	48 8d 05 2f b4 00 00 	lea    0xb42f(%rip),%rax        # 24160 <g_104>
   18d31:	48 89 85 d0 f4 ff ff 	mov    %rax,-0xb30(%rbp)
   18d38:	48 c7 85 70 f4 ff ff 	movq   $0x0,-0xb90(%rbp)
   18d3f:	00 00 00 00 
   18d43:	48 b8 e8 f3 ef c4 f4 	movabs $0xcb32dcf4c4eff3e8,%rax
   18d4a:	dc 32 cb 
   18d4d:	48 89 85 78 f4 ff ff 	mov    %rax,-0xb88(%rbp)
   18d54:	48 8d 05 15 fa 00 00 	lea    0xfa15(%rip),%rax        # 28770 <g_159+0x10>
   18d5b:	48 89 85 d8 f4 ff ff 	mov    %rax,-0xb28(%rbp)
   18d62:	c6 85 b0 f3 ff ff 00 	movb   $0x0,-0xc50(%rbp)
   18d69:	48 c7 85 80 f4 ff ff 	movq   $0x0,-0xb80(%rbp)
   18d70:	00 00 00 00 
   18d74:	48 8d 85 80 f4 ff ff 	lea    -0xb80(%rbp),%rax
   18d7b:	48 89 85 e0 f4 ff ff 	mov    %rax,-0xb20(%rbp)
   18d82:	48 8d 05 17 d9 00 00 	lea    0xd917(%rip),%rax        # 266a0 <g_94>
   18d89:	48 89 85 e8 f4 ff ff 	mov    %rax,-0xb18(%rbp)
   18d90:	48 c7 85 f0 f4 ff ff 	movq   $0x0,-0xb10(%rbp)
   18d97:	00 00 00 00 
   18d9b:	48 b8 5a 33 a1 f9 da 	movabs $0x2b4df5daf9a1335a,%rax
   18da2:	f5 4d 2b 
   18da5:	48 89 85 f8 f4 ff ff 	mov    %rax,-0xb08(%rbp)
   18dac:	c7 85 1c f4 ff ff 58 	movl   $0x83867358,-0xbe4(%rbp)
   18db3:	73 86 83 
   18db6:	c7 85 e8 f3 ff ff 00 	movl   $0x0,-0xc18(%rbp)
   18dbd:	00 00 00 
   18dc0:	eb 4a                	jmp    18e0c <func_69+0x1be>
   18dc2:	c7 85 ec f3 ff ff 00 	movl   $0x0,-0xc14(%rbp)
   18dc9:	00 00 00 
   18dcc:	eb 2e                	jmp    18dfc <func_69+0x1ae>
   18dce:	8b 85 ec f3 ff ff    	mov    -0xc14(%rbp),%eax
   18dd4:	48 98                	cltq   
   18dd6:	8b 95 e8 f3 ff ff    	mov    -0xc18(%rbp),%edx
   18ddc:	48 63 d2             	movslq %edx,%rdx
   18ddf:	48 c1 e2 03          	shl    $0x3,%rdx
   18de3:	48 01 d0             	add    %rdx,%rax
   18de6:	48 8d 15 7b b3 00 00 	lea    0xb37b(%rip),%rdx        # 24168 <g_126>
   18ded:	48 89 94 c5 c0 f7 ff 	mov    %rdx,-0x840(%rbp,%rax,8)
   18df4:	ff 
   18df5:	83 85 ec f3 ff ff 01 	addl   $0x1,-0xc14(%rbp)
   18dfc:	83 bd ec f3 ff ff 07 	cmpl   $0x7,-0xc14(%rbp)
   18e03:	7e c9                	jle    18dce <func_69+0x180>
   18e05:	83 85 e8 f3 ff ff 01 	addl   $0x1,-0xc18(%rbp)
   18e0c:	83 bd e8 f3 ff ff 00 	cmpl   $0x0,-0xc18(%rbp)
   18e13:	7e ad                	jle    18dc2 <func_69+0x174>
   18e15:	c7 85 e8 f3 ff ff 00 	movl   $0x0,-0xc18(%rbp)
   18e1c:	00 00 00 
   18e1f:	eb 14                	jmp    18e35 <func_69+0x1e7>
   18e21:	8b 85 e8 f3 ff ff    	mov    -0xc18(%rbp),%eax
   18e27:	48 98                	cltq   
   18e29:	c6 44 05 c2 fd       	movb   $0xfd,-0x3e(%rbp,%rax,1)
   18e2e:	83 85 e8 f3 ff ff 01 	addl   $0x1,-0xc18(%rbp)
   18e35:	83 bd e8 f3 ff ff 05 	cmpl   $0x5,-0xc18(%rbp)
   18e3c:	7e e3                	jle    18e21 <func_69+0x1d3>
   18e3e:	48 8b 05 23 b3 00 00 	mov    0xb323(%rip),%rax        # 24168 <g_126>
   18e45:	49 89 c4             	mov    %rax,%r12
   18e48:	48 8b 85 c0 f4 ff ff 	mov    -0xb40(%rbp),%rax
   18e4f:	48 8b 00             	mov    (%rax),%rax
   18e52:	8b 18                	mov    (%rax),%ebx
   18e54:	48 8b 85 68 f4 ff ff 	mov    -0xb98(%rbp),%rax
   18e5b:	8b 00                	mov    (%rax),%eax
   18e5d:	0f be d0             	movsbl %al,%edx
   18e60:	48 8b 85 c0 f4 ff ff 	mov    -0xb40(%rbp),%rax
   18e67:	48 8b 00             	mov    (%rax),%rax
   18e6a:	8b 00                	mov    (%rax),%eax
   18e6c:	0f be c0             	movsbl %al,%eax
   18e6f:	89 d6                	mov    %edx,%esi
   18e71:	89 c7                	mov    %eax,%edi
   18e73:	e8 f2 03 ff ff       	callq  926a <safe_div_func_int8_t_s_s>
   18e78:	0f be c0             	movsbl %al,%eax
   18e7b:	89 85 c4 f3 ff ff    	mov    %eax,-0xc3c(%rbp)
   18e81:	8b 85 c4 f3 ff ff    	mov    -0xc3c(%rbp),%eax
   18e87:	85 c0                	test   %eax,%eax
   18e89:	48 8b 85 b8 f4 ff ff 	mov    -0xb48(%rbp),%rax
   18e90:	8b 10                	mov    (%rax),%edx
   18e92:	48 8d 05 cb b2 00 00 	lea    0xb2cb(%rip),%rax        # 24164 <g_109>
   18e99:	48 39 85 b8 f4 ff ff 	cmp    %rax,-0xb48(%rbp)
   18ea0:	0f 94 c0             	sete   %al
   18ea3:	0f b6 c0             	movzbl %al,%eax
   18ea6:	21 c2                	and    %eax,%edx
   18ea8:	48 8b 85 b8 f4 ff ff 	mov    -0xb48(%rbp),%rax
   18eaf:	89 10                	mov    %edx,(%rax)
   18eb1:	48 8b 85 b8 f4 ff ff 	mov    -0xb48(%rbp),%rax
   18eb8:	8b 00                	mov    (%rax),%eax
   18eba:	85 c0                	test   %eax,%eax
   18ebc:	74 11                	je     18ecf <func_69+0x281>
   18ebe:	8b 05 a0 b2 00 00    	mov    0xb2a0(%rip),%eax        # 24164 <g_109>
   18ec4:	85 c0                	test   %eax,%eax
   18ec6:	74 07                	je     18ecf <func_69+0x281>
   18ec8:	b8 01 00 00 00       	mov    $0x1,%eax
   18ecd:	eb 05                	jmp    18ed4 <func_69+0x286>
   18ecf:	b8 00 00 00 00       	mov    $0x0,%eax
   18ed4:	3d a1 00 00 00       	cmp    $0xa1,%eax
   18ed9:	0f 9e c0             	setle  %al
   18edc:	0f b6 c0             	movzbl %al,%eax
   18edf:	be fc 00 00 00       	mov    $0xfc,%esi
   18ee4:	89 c7                	mov    %eax,%edi
   18ee6:	e8 a8 0c ff ff       	callq  9b93 <safe_mul_func_uint8_t_u_u>
   18eeb:	0f b6 d0             	movzbl %al,%edx
   18eee:	48 8b 85 c0 f4 ff ff 	mov    -0xb40(%rbp),%rax
   18ef5:	48 8b 00             	mov    (%rax),%rax
   18ef8:	8b 00                	mov    (%rax),%eax
   18efa:	21 c2                	and    %eax,%edx
   18efc:	8b 85 c8 f3 ff ff    	mov    -0xc38(%rbp),%eax
   18f02:	21 d0                	and    %edx,%eax
   18f04:	89 85 c8 f3 ff ff    	mov    %eax,-0xc38(%rbp)
   18f0a:	89 de                	mov    %ebx,%esi
   18f0c:	bf 11 18 74 00       	mov    $0x741811,%edi
   18f11:	e8 ef 06 ff ff       	callq  9605 <safe_sub_func_int32_t_s_s>
   18f16:	bf cb 00 00 00       	mov    $0xcb,%edi
   18f1b:	e8 25 0c ff ff       	callq  9b45 <safe_unary_minus_func_uint8_t_u>
   18f20:	0f b6 c0             	movzbl %al,%eax
   18f23:	4c 89 e6             	mov    %r12,%rsi
   18f26:	48 89 c7             	mov    %rax,%rdi
   18f29:	e8 7a 09 ff ff       	callq  98a8 <safe_sub_func_int64_t_s_s>
   18f2e:	8b 05 30 b2 00 00    	mov    0xb230(%rip),%eax        # 24164 <g_109>
   18f34:	83 f8 01             	cmp    $0x1,%eax
   18f37:	0f 84 f0 01 00 00    	je     1912d <func_69+0x4df>
   18f3d:	48 8d 85 c8 f3 ff ff 	lea    -0xc38(%rbp),%rax
   18f44:	48 89 85 a0 f4 ff ff 	mov    %rax,-0xb60(%rbp)
   18f4b:	48 c7 85 c0 f5 ff ff 	movq   $0x0,-0xa40(%rbp)
   18f52:	00 00 00 00 
   18f56:	48 8d 05 ab b1 00 00 	lea    0xb1ab(%rip),%rax        # 24108 <g_75+0xc8>
   18f5d:	48 89 85 40 fa ff ff 	mov    %rax,-0x5c0(%rbp)
   18f64:	48 c7 85 48 fa ff ff 	movq   $0x0,-0x5b8(%rbp)
   18f6b:	00 00 00 00 
   18f6f:	48 8d 05 92 b1 00 00 	lea    0xb192(%rip),%rax        # 24108 <g_75+0xc8>
   18f76:	48 89 85 50 fa ff ff 	mov    %rax,-0x5b0(%rbp)
   18f7d:	48 8d 05 d8 b1 00 00 	lea    0xb1d8(%rip),%rax        # 2415c <g_80>
   18f84:	48 89 85 58 fa ff ff 	mov    %rax,-0x5a8(%rbp)
   18f8b:	48 8d 05 ca b1 00 00 	lea    0xb1ca(%rip),%rax        # 2415c <g_80>
   18f92:	48 89 85 60 fa ff ff 	mov    %rax,-0x5a0(%rbp)
   18f99:	48 8d 05 bc b1 00 00 	lea    0xb1bc(%rip),%rax        # 2415c <g_80>
   18fa0:	48 89 85 68 fa ff ff 	mov    %rax,-0x598(%rbp)
   18fa7:	48 8d 05 5a b1 00 00 	lea    0xb15a(%rip),%rax        # 24108 <g_75+0xc8>
   18fae:	48 89 85 70 fa ff ff 	mov    %rax,-0x590(%rbp)
   18fb5:	48 c7 85 78 fa ff ff 	movq   $0x0,-0x588(%rbp)
   18fbc:	00 00 00 00 
   18fc0:	48 8d 05 41 b1 00 00 	lea    0xb141(%rip),%rax        # 24108 <g_75+0xc8>
   18fc7:	48 89 85 80 fa ff ff 	mov    %rax,-0x580(%rbp)
   18fce:	48 8d 05 87 b1 00 00 	lea    0xb187(%rip),%rax        # 2415c <g_80>
   18fd5:	48 89 85 88 fa ff ff 	mov    %rax,-0x578(%rbp)
   18fdc:	48 8d 05 79 b1 00 00 	lea    0xb179(%rip),%rax        # 2415c <g_80>
   18fe3:	48 89 85 90 fa ff ff 	mov    %rax,-0x570(%rbp)
   18fea:	48 8d 05 6b b1 00 00 	lea    0xb16b(%rip),%rax        # 2415c <g_80>
   18ff1:	48 89 85 98 fa ff ff 	mov    %rax,-0x568(%rbp)
   18ff8:	48 c7 85 c8 f5 ff ff 	movq   $0x1,-0xa38(%rbp)
   18fff:	01 00 00 00 
   19003:	c7 85 44 f4 ff ff 09 	movl   $0x9,-0xbbc(%rbp)
   1900a:	00 00 00 
   1900d:	c6 85 b6 f3 ff ff fe 	movb   $0xfe,-0xc4a(%rbp)
   19014:	66 c7 85 bc f3 ff ff 	movw   $0xfda0,-0xc44(%rbp)
   1901b:	a0 fd 
   1901d:	48 8d 85 a0 f4 ff ff 	lea    -0xb60(%rbp),%rax
   19024:	48 89 85 d0 f5 ff ff 	mov    %rax,-0xa30(%rbp)
   1902b:	48 8d 05 36 b1 00 00 	lea    0xb136(%rip),%rax        # 24168 <g_126>
   19032:	48 89 85 d8 f5 ff ff 	mov    %rax,-0xa28(%rbp)
   19039:	48 8d 05 24 b2 00 00 	lea    0xb224(%rip),%rax        # 24264 <g_152+0x14>
   19040:	48 89 85 a8 f4 ff ff 	mov    %rax,-0xb58(%rbp)
   19047:	48 8d 85 a8 f4 ff ff 	lea    -0xb58(%rbp),%rax
   1904e:	48 89 85 e0 f5 ff ff 	mov    %rax,-0xa20(%rbp)
   19055:	0f b7 85 bc f3 ff ff 	movzwl -0xc44(%rbp),%eax
   1905c:	83 e8 01             	sub    $0x1,%eax
   1905f:	66 89 85 bc f3 ff ff 	mov    %ax,-0xc44(%rbp)
   19066:	48 8b 85 d0 f5 ff ff 	mov    -0xa30(%rbp),%rax
   1906d:	48 8d 15 24 b0 00 00 	lea    0xb024(%rip),%rdx        # 24098 <g_75+0x58>
   19074:	48 89 10             	mov    %rdx,(%rax)
   19077:	48 8b 85 c0 f4 ff ff 	mov    -0xb40(%rbp),%rax
   1907e:	48 8d 15 13 b0 00 00 	lea    0xb013(%rip),%rdx        # 24098 <g_75+0x58>
   19085:	48 89 10             	mov    %rdx,(%rax)
   19088:	48 8b 85 68 f4 ff ff 	mov    -0xb98(%rbp),%rax
   1908f:	8b 00                	mov    (%rax),%eax
   19091:	89 c2                	mov    %eax,%edx
   19093:	48 8b 85 b8 f4 ff ff 	mov    -0xb48(%rbp),%rax
   1909a:	89 10                	mov    %edx,(%rax)
   1909c:	48 8b 85 b8 f4 ff ff 	mov    -0xb48(%rbp),%rax
   190a3:	8b 08                	mov    (%rax),%ecx
   190a5:	48 83 bd c8 f4 ff ff 	cmpq   $0x0,-0xb38(%rbp)
   190ac:	00 
   190ad:	40 0f 94 c6          	sete   %sil
   190b1:	48 8b 95 a8 f4 ff ff 	mov    -0xb58(%rbp),%rdx
   190b8:	48 8b 85 e0 f5 ff ff 	mov    -0xa20(%rbp),%rax
   190bf:	48 89 10             	mov    %rdx,(%rax)
   190c2:	48 8b 85 e0 f5 ff ff 	mov    -0xa20(%rbp),%rax
   190c9:	48 8b 10             	mov    (%rax),%rdx
   190cc:	48 8b 85 68 f4 ff ff 	mov    -0xb98(%rbp),%rax
   190d3:	48 39 c2             	cmp    %rax,%rdx
   190d6:	0f 95 c0             	setne  %al
   190d9:	0f b6 d0             	movzbl %al,%edx
   190dc:	48 8b 85 c0 f4 ff ff 	mov    -0xb40(%rbp),%rax
   190e3:	48 8b 00             	mov    (%rax),%rax
   190e6:	8b 00                	mov    (%rax),%eax
   190e8:	39 c2                	cmp    %eax,%edx
   190ea:	0f 9f c0             	setg   %al
   190ed:	31 f0                	xor    %esi,%eax
   190ef:	0f b6 c0             	movzbl %al,%eax
   190f2:	89 05 60 b0 00 00    	mov    %eax,0xb060(%rip)        # 24158 <g_78>
   190f8:	8b 05 5a b0 00 00    	mov    0xb05a(%rip),%eax        # 24158 <g_78>
   190fe:	39 c1                	cmp    %eax,%ecx
   19100:	0f 94 c0             	sete   %al
   19103:	0f b6 d0             	movzbl %al,%edx
   19106:	8b 05 50 b0 00 00    	mov    0xb050(%rip),%eax        # 2415c <g_80>
   1910c:	09 d0                	or     %edx,%eax
   1910e:	89 05 48 b0 00 00    	mov    %eax,0xb048(%rip)        # 2415c <g_80>
   19114:	8b 15 42 b0 00 00    	mov    0xb042(%rip),%edx        # 2415c <g_80>
   1911a:	8b 05 10 af 00 00    	mov    0xaf10(%rip),%eax        # 24030 <g_74>
   19120:	09 d0                	or     %edx,%eax
   19122:	89 05 08 af 00 00    	mov    %eax,0xaf08(%rip)        # 24030 <g_74>
   19128:	e9 31 1a 00 00       	jmpq   1ab5e <func_69+0x1f10>
   1912d:	48 8d 85 d0 f3 ff ff 	lea    -0xc30(%rbp),%rax
   19134:	48 89 85 88 f4 ff ff 	mov    %rax,-0xb78(%rbp)
   1913b:	48 8d 85 40 f7 ff ff 	lea    -0x8c0(%rbp),%rax
   19142:	48 83 c0 08          	add    $0x8,%rax
   19146:	48 89 85 00 f5 ff ff 	mov    %rax,-0xb00(%rbp)
   1914d:	48 8d 05 54 d5 00 00 	lea    0xd554(%rip),%rax        # 266a8 <g_93>
   19154:	48 89 85 90 f4 ff ff 	mov    %rax,-0xb70(%rbp)
   1915b:	48 8d 85 90 f4 ff ff 	lea    -0xb70(%rbp),%rax
   19162:	48 89 85 08 f5 ff ff 	mov    %rax,-0xaf8(%rbp)
   19169:	48 c7 85 60 f7 ff ff 	movq   $0x0,-0x8a0(%rbp)
   19170:	00 00 00 00 
   19174:	48 c7 85 68 f7 ff ff 	movq   $0x0,-0x898(%rbp)
   1917b:	00 00 00 00 
   1917f:	48 c7 85 70 f7 ff ff 	movq   $0x0,-0x890(%rbp)
   19186:	00 00 00 00 
   1918a:	48 c7 85 78 f7 ff ff 	movq   $0x0,-0x888(%rbp)
   19191:	00 00 00 00 
   19195:	48 8d 05 6c b0 00 00 	lea    0xb06c(%rip),%rax        # 24208 <g_142+0x88>
   1919c:	48 89 85 40 f9 ff ff 	mov    %rax,-0x6c0(%rbp)
   191a3:	48 8d 05 5e b0 00 00 	lea    0xb05e(%rip),%rax        # 24208 <g_142+0x88>
   191aa:	48 89 85 48 f9 ff ff 	mov    %rax,-0x6b8(%rbp)
   191b1:	48 8d 05 fc af 00 00 	lea    0xaffc(%rip),%rax        # 241b4 <g_142+0x34>
   191b8:	48 89 85 50 f9 ff ff 	mov    %rax,-0x6b0(%rbp)
   191bf:	48 8d 05 42 b0 00 00 	lea    0xb042(%rip),%rax        # 24208 <g_142+0x88>
   191c6:	48 89 85 58 f9 ff ff 	mov    %rax,-0x6a8(%rbp)
   191cd:	48 8d 05 34 b0 00 00 	lea    0xb034(%rip),%rax        # 24208 <g_142+0x88>
   191d4:	48 89 85 60 f9 ff ff 	mov    %rax,-0x6a0(%rbp)
   191db:	48 8d 05 26 b0 00 00 	lea    0xb026(%rip),%rax        # 24208 <g_142+0x88>
   191e2:	48 89 85 68 f9 ff ff 	mov    %rax,-0x698(%rbp)
   191e9:	48 8d 05 18 b0 00 00 	lea    0xb018(%rip),%rax        # 24208 <g_142+0x88>
   191f0:	48 89 85 70 f9 ff ff 	mov    %rax,-0x690(%rbp)
   191f7:	48 8d 05 0c b0 00 00 	lea    0xb00c(%rip),%rax        # 2420a <g_142+0x8a>
   191fe:	48 89 85 78 f9 ff ff 	mov    %rax,-0x688(%rbp)
   19205:	48 8d 05 a8 af 00 00 	lea    0xafa8(%rip),%rax        # 241b4 <g_142+0x34>
   1920c:	48 89 85 80 f9 ff ff 	mov    %rax,-0x680(%rbp)
   19213:	48 8d 05 ee af 00 00 	lea    0xafee(%rip),%rax        # 24208 <g_142+0x88>
   1921a:	48 89 85 88 f9 ff ff 	mov    %rax,-0x678(%rbp)
   19221:	48 8d 05 e2 af 00 00 	lea    0xafe2(%rip),%rax        # 2420a <g_142+0x8a>
   19228:	48 89 85 90 f9 ff ff 	mov    %rax,-0x670(%rbp)
   1922f:	48 8d 05 d2 af 00 00 	lea    0xafd2(%rip),%rax        # 24208 <g_142+0x88>
   19236:	48 89 85 98 f9 ff ff 	mov    %rax,-0x668(%rbp)
   1923d:	48 8d 05 c6 af 00 00 	lea    0xafc6(%rip),%rax        # 2420a <g_142+0x8a>
   19244:	48 89 85 a0 f9 ff ff 	mov    %rax,-0x660(%rbp)
   1924b:	48 8d 05 b6 af 00 00 	lea    0xafb6(%rip),%rax        # 24208 <g_142+0x88>
   19252:	48 89 85 a8 f9 ff ff 	mov    %rax,-0x658(%rbp)
   19259:	48 8d 05 54 af 00 00 	lea    0xaf54(%rip),%rax        # 241b4 <g_142+0x34>
   19260:	48 89 85 b0 f9 ff ff 	mov    %rax,-0x650(%rbp)
   19267:	48 8d 05 9c af 00 00 	lea    0xaf9c(%rip),%rax        # 2420a <g_142+0x8a>
   1926e:	48 89 85 b8 f9 ff ff 	mov    %rax,-0x648(%rbp)
   19275:	48 8d 05 8c af 00 00 	lea    0xaf8c(%rip),%rax        # 24208 <g_142+0x88>
   1927c:	48 89 85 c0 f9 ff ff 	mov    %rax,-0x640(%rbp)
   19283:	48 8d 05 7e af 00 00 	lea    0xaf7e(%rip),%rax        # 24208 <g_142+0x88>
   1928a:	48 89 85 c8 f9 ff ff 	mov    %rax,-0x638(%rbp)
   19291:	48 8d 05 70 af 00 00 	lea    0xaf70(%rip),%rax        # 24208 <g_142+0x88>
   19298:	48 89 85 d0 f9 ff ff 	mov    %rax,-0x630(%rbp)
   1929f:	48 8d 05 62 af 00 00 	lea    0xaf62(%rip),%rax        # 24208 <g_142+0x88>
   192a6:	48 89 85 d8 f9 ff ff 	mov    %rax,-0x628(%rbp)
   192ad:	48 8d 05 00 af 00 00 	lea    0xaf00(%rip),%rax        # 241b4 <g_142+0x34>
   192b4:	48 89 85 e0 f9 ff ff 	mov    %rax,-0x620(%rbp)
   192bb:	48 8d 05 46 af 00 00 	lea    0xaf46(%rip),%rax        # 24208 <g_142+0x88>
   192c2:	48 89 85 e8 f9 ff ff 	mov    %rax,-0x618(%rbp)
   192c9:	48 8d 05 38 af 00 00 	lea    0xaf38(%rip),%rax        # 24208 <g_142+0x88>
   192d0:	48 89 85 f0 f9 ff ff 	mov    %rax,-0x610(%rbp)
   192d7:	48 8d 05 2a af 00 00 	lea    0xaf2a(%rip),%rax        # 24208 <g_142+0x88>
   192de:	48 89 85 f8 f9 ff ff 	mov    %rax,-0x608(%rbp)
   192e5:	48 b8 55 2e 96 19 26 	movabs $0xcdfa422619962e55,%rax
   192ec:	42 fa cd 
   192ef:	48 89 85 98 f4 ff ff 	mov    %rax,-0xb68(%rbp)
   192f6:	48 8d 85 98 f4 ff ff 	lea    -0xb68(%rbp),%rax
   192fd:	48 89 85 00 f8 ff ff 	mov    %rax,-0x800(%rbp)
   19304:	48 8d 85 98 f4 ff ff 	lea    -0xb68(%rbp),%rax
   1930b:	48 89 85 08 f8 ff ff 	mov    %rax,-0x7f8(%rbp)
   19312:	48 8d 85 98 f4 ff ff 	lea    -0xb68(%rbp),%rax
   19319:	48 89 85 10 f8 ff ff 	mov    %rax,-0x7f0(%rbp)
   19320:	48 8d 85 98 f4 ff ff 	lea    -0xb68(%rbp),%rax
   19327:	48 89 85 18 f8 ff ff 	mov    %rax,-0x7e8(%rbp)
   1932e:	48 8d 85 98 f4 ff ff 	lea    -0xb68(%rbp),%rax
   19335:	48 89 85 20 f8 ff ff 	mov    %rax,-0x7e0(%rbp)
   1933c:	48 8d 85 98 f4 ff ff 	lea    -0xb68(%rbp),%rax
   19343:	48 89 85 28 f8 ff ff 	mov    %rax,-0x7d8(%rbp)
   1934a:	48 8d 85 98 f4 ff ff 	lea    -0xb68(%rbp),%rax
   19351:	48 89 85 30 f8 ff ff 	mov    %rax,-0x7d0(%rbp)
   19358:	48 8d 85 98 f4 ff ff 	lea    -0xb68(%rbp),%rax
   1935f:	48 89 85 38 f8 ff ff 	mov    %rax,-0x7c8(%rbp)
   19366:	48 8d 05 f7 ae 00 00 	lea    0xaef7(%rip),%rax        # 24264 <g_152+0x14>
   1936d:	48 89 85 10 f5 ff ff 	mov    %rax,-0xaf0(%rbp)
   19374:	c7 85 20 f4 ff ff 01 	movl   $0x1,-0xbe0(%rbp)
   1937b:	00 00 00 
   1937e:	c7 85 f0 f3 ff ff 00 	movl   $0x0,-0xc10(%rbp)
   19385:	00 00 00 
   19388:	eb 1e                	jmp    193a8 <func_69+0x75a>
   1938a:	8b 85 f0 f3 ff ff    	mov    -0xc10(%rbp),%eax
   19390:	48 98                	cltq   
   19392:	48 8d 15 0f d3 00 00 	lea    0xd30f(%rip),%rdx        # 266a8 <g_93>
   19399:	48 89 94 c5 40 f7 ff 	mov    %rdx,-0x8c0(%rbp,%rax,8)
   193a0:	ff 
   193a1:	83 85 f0 f3 ff ff 01 	addl   $0x1,-0xc10(%rbp)
   193a8:	83 bd f0 f3 ff ff 01 	cmpl   $0x1,-0xc10(%rbp)
   193af:	7e d9                	jle    1938a <func_69+0x73c>
   193b1:	90                   	nop
   193b2:	48 8b 05 e7 d2 00 00 	mov    0xd2e7(%rip),%rax        # 266a0 <g_94>
   193b9:	c7 00 0d 85 36 70    	movl   $0x7036850d,(%rax)
   193bf:	48 c7 05 9e ad 00 00 	movq   $0xffffffffffffffe3,0xad9e(%rip)        # 24168 <g_126>
   193c6:	e3 ff ff ff 
   193ca:	e9 e5 01 00 00       	jmpq   195b4 <func_69+0x966>
   193cf:	48 8d 85 c0 f7 ff ff 	lea    -0x840(%rbp),%rax
   193d6:	48 83 c0 20          	add    $0x20,%rax
   193da:	48 89 85 a0 f5 ff ff 	mov    %rax,-0xa60(%rbp)
   193e1:	48 8b 05 c8 d2 00 00 	mov    0xd2c8(%rip),%rax        # 266b0 <g_158>
   193e8:	48 8b 95 a0 f5 ff ff 	mov    -0xa60(%rbp),%rdx
   193ef:	48 89 10             	mov    %rdx,(%rax)
   193f2:	c7 05 68 ad 00 00 15 	movl   $0x15,0xad68(%rip)        # 24164 <g_109>
   193f9:	00 00 00 
   193fc:	e9 7e 01 00 00       	jmpq   1957f <func_69+0x931>
   19401:	48 c7 85 a8 f5 ff ff 	movq   $0x0,-0xa58(%rbp)
   19408:	00 00 00 00 
   1940c:	48 c7 85 b0 f5 ff ff 	movq   $0x0,-0xa50(%rbp)
   19413:	00 00 00 00 
   19417:	c7 85 40 f4 ff ff f8 	movl   $0xfffffff8,-0xbc0(%rbp)
   1941e:	ff ff ff 
   19421:	c7 85 f4 f3 ff ff 00 	movl   $0x0,-0xc0c(%rbp)
   19428:	00 00 00 
   1942b:	eb 1e                	jmp    1944b <func_69+0x7fd>
   1942d:	8b 85 f4 f3 ff ff    	mov    -0xc0c(%rbp),%eax
   19433:	48 98                	cltq   
   19435:	48 8d 15 3c f3 00 00 	lea    0xf33c(%rip),%rdx        # 28778 <g_163>
   1943c:	48 89 94 c5 70 f8 ff 	mov    %rdx,-0x790(%rbp,%rax,8)
   19443:	ff 
   19444:	83 85 f4 f3 ff ff 01 	addl   $0x1,-0xc0c(%rbp)
   1944b:	83 bd f4 f3 ff ff 00 	cmpl   $0x0,-0xc0c(%rbp)
   19452:	7e d9                	jle    1942d <func_69+0x7df>
   19454:	48 8b 85 88 f4 ff ff 	mov    -0xb78(%rbp),%rax
   1945b:	48 89 05 ee f2 00 00 	mov    %rax,0xf2ee(%rip)        # 28750 <g_76>
   19462:	48 8b 05 0f f3 00 00 	mov    0xf30f(%rip),%rax        # 28778 <g_163>
   19469:	48 89 05 08 f3 00 00 	mov    %rax,0xf308(%rip)        # 28778 <g_163>
   19470:	c7 85 c8 f3 ff ff 02 	movl   $0x2,-0xc38(%rbp)
   19477:	00 00 00 
   1947a:	eb 70                	jmp    194ec <func_69+0x89e>
   1947c:	c6 85 b5 f3 ff ff 02 	movb   $0x2,-0xc4b(%rbp)
   19483:	48 8d 85 d0 f3 ff ff 	lea    -0xc30(%rbp),%rax
   1948a:	48 89 85 b8 f5 ff ff 	mov    %rax,-0xa48(%rbp)
   19491:	c6 05 c8 ac 00 00 02 	movb   $0x2,0xacc8(%rip)        # 24160 <g_104>
   19498:	90                   	nop
   19499:	0f b6 05 c0 ac 00 00 	movzbl 0xacc0(%rip),%eax        # 24160 <g_104>
   194a0:	84 c0                	test   %al,%al
   194a2:	78 0c                	js     194b0 <func_69+0x862>
   194a4:	0f b6 85 b5 f3 ff ff 	movzbl -0xc4b(%rbp),%eax
   194ab:	e9 67 2c 00 00       	jmpq   1c117 <func_69+0x34c9>
   194b0:	48 83 bd c8 f4 ff ff 	cmpq   $0x0,-0xb38(%rbp)
   194b7:	00 
   194b8:	74 05                	je     194bf <func_69+0x871>
   194ba:	e9 f3 fe ff ff       	jmpq   193b2 <func_69+0x764>
   194bf:	48 8b 85 c0 f4 ff ff 	mov    -0xb40(%rbp),%rax
   194c6:	48 8b 95 b8 f5 ff ff 	mov    -0xa48(%rbp),%rdx
   194cd:	48 89 10             	mov    %rdx,(%rax)
   194d0:	48 8b 05 c9 d1 00 00 	mov    0xd1c9(%rip),%rax        # 266a0 <g_94>
   194d7:	c7 00 00 00 00 00    	movl   $0x0,(%rax)
   194dd:	8b 85 c8 f3 ff ff    	mov    -0xc38(%rbp),%eax
   194e3:	83 e8 01             	sub    $0x1,%eax
   194e6:	89 85 c8 f3 ff ff    	mov    %eax,-0xc38(%rbp)
   194ec:	8b 85 c8 f3 ff ff    	mov    -0xc38(%rbp),%eax
   194f2:	85 c0                	test   %eax,%eax
   194f4:	79 86                	jns    1947c <func_69+0x82e>
   194f6:	c7 85 c8 f3 ff ff 00 	movl   $0x0,-0xc38(%rbp)
   194fd:	00 00 00 
   19500:	eb 5a                	jmp    1955c <func_69+0x90e>
   19502:	c7 85 f8 f3 ff ff 00 	movl   $0x0,-0xc08(%rbp)
   19509:	00 00 00 
   1950c:	eb 1e                	jmp    1952c <func_69+0x8de>
   1950e:	8b 85 f8 f3 ff ff    	mov    -0xc08(%rbp),%eax
   19514:	48 98                	cltq   
   19516:	48 8d 15 3b ac 00 00 	lea    0xac3b(%rip),%rdx        # 24158 <g_78>
   1951d:	48 89 94 c5 40 fa ff 	mov    %rdx,-0x5c0(%rbp,%rax,8)
   19524:	ff 
   19525:	83 85 f8 f3 ff ff 01 	addl   $0x1,-0xc08(%rbp)
   1952c:	83 bd f8 f3 ff ff 00 	cmpl   $0x0,-0xc08(%rbp)
   19533:	7e d9                	jle    1950e <func_69+0x8c0>
   19535:	48 8b 95 40 fa ff ff 	mov    -0x5c0(%rbp),%rdx
   1953c:	48 8b 85 c0 f4 ff ff 	mov    -0xb40(%rbp),%rax
   19543:	48 89 10             	mov    %rdx,(%rax)
   19546:	83 bd 40 f4 ff ff 00 	cmpl   $0x0,-0xbc0(%rbp)
   1954d:	8b 85 c8 f3 ff ff    	mov    -0xc38(%rbp),%eax
   19553:	83 c0 01             	add    $0x1,%eax
   19556:	89 85 c8 f3 ff ff    	mov    %eax,-0xc38(%rbp)
   1955c:	8b 85 c8 f3 ff ff    	mov    -0xc38(%rbp),%eax
   19562:	83 f8 0e             	cmp    $0xe,%eax
   19565:	7e 9b                	jle    19502 <func_69+0x8b4>
   19567:	8b 05 f7 ab 00 00    	mov    0xabf7(%rip),%eax        # 24164 <g_109>
   1956d:	be 04 00 00 00       	mov    $0x4,%esi
   19572:	89 c7                	mov    %eax,%edi
   19574:	e8 3f 09 ff ff       	callq  9eb8 <safe_add_func_uint32_t_u_u>
   19579:	89 05 e5 ab 00 00    	mov    %eax,0xabe5(%rip)        # 24164 <g_109>
   1957f:	8b 05 df ab 00 00    	mov    0xabdf(%rip),%eax        # 24164 <g_109>
   19585:	83 f8 3c             	cmp    $0x3c,%eax
   19588:	0f 87 73 fe ff ff    	ja     19401 <func_69+0x7b3>
   1958e:	48 8b 85 68 f4 ff ff 	mov    -0xb98(%rbp),%rax
   19595:	8b 00                	mov    (%rax),%eax
   19597:	85 c0                	test   %eax,%eax
   19599:	48 8b 05 c8 ab 00 00 	mov    0xabc8(%rip),%rax        # 24168 <g_126>
   195a0:	be 01 00 00 00       	mov    $0x1,%esi
   195a5:	48 89 c7             	mov    %rax,%rdi
   195a8:	e8 81 0a ff ff       	callq  a02e <safe_add_func_uint64_t_u_u>
   195ad:	48 89 05 b4 ab 00 00 	mov    %rax,0xabb4(%rip)        # 24168 <g_126>
   195b4:	48 8b 05 ad ab 00 00 	mov    0xabad(%rip),%rax        # 24168 <g_126>
   195bb:	48 83 f8 2d          	cmp    $0x2d,%rax
   195bf:	0f 87 0a fe ff ff    	ja     193cf <func_69+0x781>
   195c5:	48 8b 85 c0 f4 ff ff 	mov    -0xb40(%rbp),%rax
   195cc:	48 8b 00             	mov    (%rax),%rax
   195cf:	8b 18                	mov    (%rax),%ebx
   195d1:	48 8b 85 00 f5 ff ff 	mov    -0xb00(%rbp),%rax
   195d8:	48 8d 15 c9 d0 00 00 	lea    0xd0c9(%rip),%rdx        # 266a8 <g_93>
   195df:	48 89 10             	mov    %rdx,(%rax)
   195e2:	48 8b 85 00 f5 ff ff 	mov    -0xb00(%rbp),%rax
   195e9:	48 8b 10             	mov    (%rax),%rdx
   195ec:	48 8b 85 08 f5 ff ff 	mov    -0xaf8(%rbp),%rax
   195f3:	48 c7 00 00 00 00 00 	movq   $0x0,(%rax)
   195fa:	48 8b 85 08 f5 ff ff 	mov    -0xaf8(%rbp),%rax
   19601:	48 8b 00             	mov    (%rax),%rax
   19604:	48 39 c2             	cmp    %rax,%rdx
   19607:	75 17                	jne    19620 <func_69+0x9d2>
   19609:	48 8b 85 c0 f4 ff ff 	mov    -0xb40(%rbp),%rax
   19610:	48 8b 00             	mov    (%rax),%rax
   19613:	8b 00                	mov    (%rax),%eax
   19615:	85 c0                	test   %eax,%eax
   19617:	74 07                	je     19620 <func_69+0x9d2>
   19619:	b8 01 00 00 00       	mov    $0x1,%eax
   1961e:	eb 05                	jmp    19625 <func_69+0x9d7>
   19620:	b8 00 00 00 00       	mov    $0x0,%eax
   19625:	98                   	cwtl   
   19626:	be 04 00 00 00       	mov    $0x4,%esi
   1962b:	89 c7                	mov    %eax,%edi
   1962d:	e8 af fe fe ff       	callq  94e1 <safe_lshift_func_int16_t_s_u>
   19632:	98                   	cwtl   
   19633:	39 c3                	cmp    %eax,%ebx
   19635:	0f 8e 25 01 00 00    	jle    19760 <func_69+0xb12>
   1963b:	0f b6 05 1e ab 00 00 	movzbl 0xab1e(%rip),%eax        # 24160 <g_104>
   19642:	0f be d8             	movsbl %al,%ebx
   19645:	0f b7 05 76 ab 00 00 	movzwl 0xab76(%rip),%eax        # 241c2 <g_142+0x42>
   1964c:	0f b7 d0             	movzwl %ax,%edx
   1964f:	48 8b 85 68 f4 ff ff 	mov    -0xb98(%rbp),%rax
   19656:	8b 00                	mov    (%rax),%eax
   19658:	0f b7 c0             	movzwl %ax,%eax
   1965b:	89 d6                	mov    %edx,%esi
   1965d:	89 c7                	mov    %eax,%edi
   1965f:	e8 9b 06 ff ff       	callq  9cff <safe_add_func_uint16_t_u_u>
   19664:	0f be c0             	movsbl %al,%eax
   19667:	be 60 00 00 00       	mov    $0x60,%esi
   1966c:	89 c7                	mov    %eax,%edi
   1966e:	e8 be fb fe ff       	callq  9231 <safe_mod_func_int8_t_s_s>
   19673:	66 98                	cbtw   
   19675:	66 89 05 8c ab 00 00 	mov    %ax,0xab8c(%rip)        # 24208 <g_142+0x88>
   1967c:	0f b7 05 85 ab 00 00 	movzwl 0xab85(%rip),%eax        # 24208 <g_142+0x88>
   19683:	98                   	cwtl   
   19684:	be 01 00 00 00       	mov    $0x1,%esi
   19689:	89 c7                	mov    %eax,%edi
   1968b:	e8 43 fd fe ff       	callq  93d3 <safe_sub_func_int16_t_s_s>
   19690:	98                   	cwtl   
   19691:	89 de                	mov    %ebx,%esi
   19693:	89 c7                	mov    %eax,%edi
   19695:	e8 19 fd fe ff       	callq  93b3 <safe_add_func_int16_t_s_s>
   1969a:	48 8b 95 98 f4 ff ff 	mov    -0xb68(%rbp),%rdx
   196a1:	09 d0                	or     %edx,%eax
   196a3:	98                   	cwtl   
   196a4:	be 54 ea ff ff       	mov    $0xffffea54,%esi
   196a9:	89 c7                	mov    %eax,%edi
   196ab:	e8 23 fd fe ff       	callq  93d3 <safe_sub_func_int16_t_s_s>
   196b0:	48 8b 05 01 d0 00 00 	mov    0xd001(%rip),%rax        # 266b8 <g_191>
   196b7:	48 89 05 fa cf 00 00 	mov    %rax,0xcffa(%rip)        # 266b8 <g_191>
   196be:	48 8b 05 f3 cf 00 00 	mov    0xcff3(%rip),%rax        # 266b8 <g_191>
   196c5:	48 85 c0             	test   %rax,%rax
   196c8:	0f 95 c0             	setne  %al
   196cb:	0f b6 d0             	movzbl %al,%edx
   196ce:	48 8b 85 b8 f4 ff ff 	mov    -0xb48(%rbp),%rax
   196d5:	8b 00                	mov    (%rax),%eax
   196d7:	8d 48 ff             	lea    -0x1(%rax),%ecx
   196da:	48 8b 85 b8 f4 ff ff 	mov    -0xb48(%rbp),%rax
   196e1:	89 08                	mov    %ecx,(%rax)
   196e3:	48 8b 85 b8 f4 ff ff 	mov    -0xb48(%rbp),%rax
   196ea:	8b 00                	mov    (%rax),%eax
   196ec:	89 d6                	mov    %edx,%esi
   196ee:	89 c7                	mov    %eax,%edi
   196f0:	e8 f1 07 ff ff       	callq  9ee6 <safe_mul_func_uint32_t_u_u>
   196f5:	85 c0                	test   %eax,%eax
   196f7:	74 08                	je     19701 <func_69+0xab3>
   196f9:	8b 05 79 ab 00 00    	mov    0xab79(%rip),%eax        # 24278 <g_206>
   196ff:	85 c0                	test   %eax,%eax
   19701:	be 06 00 00 00       	mov    $0x6,%esi
   19706:	bf 00 00 00 00       	mov    $0x0,%edi
   1970b:	e8 f6 06 ff ff       	callq  9e06 <safe_lshift_func_uint16_t_u_u>
   19710:	0f b7 d0             	movzwl %ax,%edx
   19713:	48 8b 85 c0 f4 ff ff 	mov    -0xb40(%rbp),%rax
   1971a:	48 8b 00             	mov    (%rax),%rax
   1971d:	8b 00                	mov    (%rax),%eax
   1971f:	39 c2                	cmp    %eax,%edx
   19721:	0f 9c c0             	setl   %al
   19724:	0f b6 d0             	movzbl %al,%edx
   19727:	48 8b 85 c0 f4 ff ff 	mov    -0xb40(%rbp),%rax
   1972e:	48 8b 00             	mov    (%rax),%rax
   19731:	8b 00                	mov    (%rax),%eax
   19733:	0f be c0             	movsbl %al,%eax
   19736:	89 d6                	mov    %edx,%esi
   19738:	89 c7                	mov    %eax,%edi
   1973a:	e8 95 fa fe ff       	callq  91d4 <safe_add_func_int8_t_s_s>
   1973f:	48 8d 05 1a aa 00 00 	lea    0xaa1a(%rip),%rax        # 24160 <g_104>
   19746:	48 39 85 d0 f4 ff ff 	cmp    %rax,-0xb30(%rbp)
   1974d:	0f 94 c0             	sete   %al
   19750:	0f b6 c0             	movzbl %al,%eax
   19753:	48 89 c7             	mov    %rax,%rdi
   19756:	e8 bb 00 ff ff       	callq  9816 <safe_unary_minus_func_int64_t_s>
   1975b:	48 85 c0             	test   %rax,%rax
   1975e:	74 07                	je     19767 <func_69+0xb19>
   19760:	b8 01 00 00 00       	mov    $0x1,%eax
   19765:	eb 05                	jmp    1976c <func_69+0xb1e>
   19767:	b8 00 00 00 00       	mov    $0x0,%eax
   1976c:	89 85 74 fc ff ff    	mov    %eax,-0x38c(%rbp)
   19772:	8b 85 74 fc ff ff    	mov    -0x38c(%rbp),%eax
   19778:	48 63 d0             	movslq %eax,%rdx
   1977b:	48 8b 85 70 f4 ff ff 	mov    -0xb90(%rbp),%rax
   19782:	48 09 d0             	or     %rdx,%rax
   19785:	48 85 c0             	test   %rax,%rax
   19788:	0f 84 a6 02 00 00    	je     19a34 <func_69+0xde6>
   1978e:	48 8d 05 e3 aa 00 00 	lea    0xaae3(%rip),%rax        # 24278 <g_206>
   19795:	48 89 85 b0 f4 ff ff 	mov    %rax,-0xb50(%rbp)
   1979c:	c7 85 38 f4 ff ff 04 	movl   $0x4,-0xbc8(%rbp)
   197a3:	00 00 00 
   197a6:	c7 85 3c f4 ff ff ff 	movl   $0xffffffff,-0xbc4(%rbp)
   197ad:	ff ff ff 
   197b0:	c6 85 b3 f3 ff ff 94 	movb   $0x94,-0xc4d(%rbp)
   197b7:	c6 85 b4 f3 ff ff ad 	movb   $0xad,-0xc4c(%rbp)
   197be:	c7 85 70 f8 ff ff 07 	movl   $0x7,-0x790(%rbp)
   197c5:	00 00 00 
   197c8:	c7 85 74 f8 ff ff ff 	movl   $0xffffffff,-0x78c(%rbp)
   197cf:	ff ff ff 
   197d2:	c7 85 78 f8 ff ff 07 	movl   $0x7,-0x788(%rbp)
   197d9:	00 00 00 
   197dc:	c7 85 7c f8 ff ff 01 	movl   $0x1,-0x784(%rbp)
   197e3:	00 00 00 
   197e6:	c7 85 80 f8 ff ff 01 	movl   $0x1,-0x780(%rbp)
   197ed:	00 00 00 
   197f0:	c7 85 84 f8 ff ff 01 	movl   $0x1,-0x77c(%rbp)
   197f7:	00 00 00 
   197fa:	c7 85 88 f8 ff ff 07 	movl   $0x7,-0x778(%rbp)
   19801:	00 00 00 
   19804:	c7 85 8c f8 ff ff ff 	movl   $0xffffffff,-0x774(%rbp)
   1980b:	ff ff ff 
   1980e:	c7 85 90 f8 ff ff 07 	movl   $0x7,-0x770(%rbp)
   19815:	00 00 00 
   19818:	c7 05 56 aa 00 00 01 	movl   $0x1,0xaa56(%rip)        # 24278 <g_206>
   1981f:	00 00 00 
   19822:	90                   	nop
   19823:	8b 05 4f aa 00 00    	mov    0xaa4f(%rip),%eax        # 24278 <g_206>
   19829:	85 c0                	test   %eax,%eax
   1982b:	78 0f                	js     1983c <func_69+0xbee>
   1982d:	48 8b 85 a8 f3 ff ff 	mov    -0xc58(%rbp),%rax
   19834:	48 8b 00             	mov    (%rax),%rax
   19837:	e9 db 28 00 00       	jmpq   1c117 <func_69+0x34c9>
   1983c:	c7 05 1e a9 00 00 00 	movl   $0x0,0xa91e(%rip)        # 24164 <g_109>
   19843:	00 00 00 
   19846:	e9 98 01 00 00       	jmpq   199e3 <func_69+0xd95>
   1984b:	48 8d 05 26 aa 00 00 	lea    0xaa26(%rip),%rax        # 24278 <g_206>
   19852:	48 89 85 40 fa ff ff 	mov    %rax,-0x5c0(%rbp)
   19859:	48 8d 05 18 aa 00 00 	lea    0xaa18(%rip),%rax        # 24278 <g_206>
   19860:	48 89 85 48 fa ff ff 	mov    %rax,-0x5b8(%rbp)
   19867:	48 8d 05 0a aa 00 00 	lea    0xaa0a(%rip),%rax        # 24278 <g_206>
   1986e:	48 89 85 50 fa ff ff 	mov    %rax,-0x5b0(%rbp)
   19875:	48 8d 05 fc a9 00 00 	lea    0xa9fc(%rip),%rax        # 24278 <g_206>
   1987c:	48 89 85 58 fa ff ff 	mov    %rax,-0x5a8(%rbp)
   19883:	48 8d 05 ee a9 00 00 	lea    0xa9ee(%rip),%rax        # 24278 <g_206>
   1988a:	48 89 85 60 fa ff ff 	mov    %rax,-0x5a0(%rbp)
   19891:	48 8d 05 e0 a9 00 00 	lea    0xa9e0(%rip),%rax        # 24278 <g_206>
   19898:	48 89 85 68 fa ff ff 	mov    %rax,-0x598(%rbp)
   1989f:	48 8d 05 d2 a9 00 00 	lea    0xa9d2(%rip),%rax        # 24278 <g_206>
   198a6:	48 89 85 70 fa ff ff 	mov    %rax,-0x590(%rbp)
   198ad:	48 8d 05 c4 a9 00 00 	lea    0xa9c4(%rip),%rax        # 24278 <g_206>
   198b4:	48 89 85 78 fa ff ff 	mov    %rax,-0x588(%rbp)
   198bb:	48 8d 05 b6 a9 00 00 	lea    0xa9b6(%rip),%rax        # 24278 <g_206>
   198c2:	48 89 85 80 fa ff ff 	mov    %rax,-0x580(%rbp)
   198c9:	48 8d 05 a8 a9 00 00 	lea    0xa9a8(%rip),%rax        # 24278 <g_206>
   198d0:	48 89 85 88 fa ff ff 	mov    %rax,-0x578(%rbp)
   198d7:	48 8d 05 4a a7 00 00 	lea    0xa74a(%rip),%rax        # 24028 <g_73>
   198de:	48 89 85 90 f5 ff ff 	mov    %rax,-0xa70(%rbp)
   198e5:	48 8b 85 b0 f4 ff ff 	mov    -0xb50(%rbp),%rax
   198ec:	48 89 85 40 fa ff ff 	mov    %rax,-0x5c0(%rbp)
   198f3:	48 8b 85 40 fa ff ff 	mov    -0x5c0(%rbp),%rax
   198fa:	48 89 85 b0 f4 ff ff 	mov    %rax,-0xb50(%rbp)
   19901:	48 8b 85 c0 f4 ff ff 	mov    -0xb40(%rbp),%rax
   19908:	48 8b 95 b0 f4 ff ff 	mov    -0xb50(%rbp),%rdx
   1990f:	48 89 10             	mov    %rdx,(%rax)
   19912:	c7 85 dc f3 ff ff 15 	movl   $0x15,-0xc24(%rbp)
   19919:	00 00 00 
   1991c:	e9 a6 00 00 00       	jmpq   199c7 <func_69+0xd79>
   19921:	c7 85 cc f3 ff ff 00 	movl   $0x0,-0xc34(%rbp)
   19928:	00 00 00 
   1992b:	eb 75                	jmp    199a2 <func_69+0xd54>
   1992d:	48 8d 05 d4 a8 00 00 	lea    0xa8d4(%rip),%rax        # 24208 <g_142+0x88>
   19934:	48 89 85 98 f5 ff ff 	mov    %rax,-0xa68(%rbp)
   1993b:	be 02 0d 9a 92       	mov    $0x929a0d02,%esi
   19940:	bf 00 00 00 00       	mov    $0x0,%edi
   19945:	e8 86 05 ff ff       	callq  9ed0 <safe_sub_func_uint32_t_u_u>
   1994a:	85 c0                	test   %eax,%eax
   1994c:	75 10                	jne    1995e <func_69+0xd10>
   1994e:	48 8d 05 71 a8 00 00 	lea    0xa871(%rip),%rax        # 241c6 <g_142+0x46>
   19955:	48 39 85 98 f5 ff ff 	cmp    %rax,-0xa68(%rbp)
   1995c:	74 07                	je     19965 <func_69+0xd17>
   1995e:	ba 01 00 00 00       	mov    $0x1,%edx
   19963:	eb 05                	jmp    1996a <func_69+0xd1c>
   19965:	ba 00 00 00 00       	mov    $0x0,%edx
   1996a:	48 8b 85 b0 f4 ff ff 	mov    -0xb50(%rbp),%rax
   19971:	8b 00                	mov    (%rax),%eax
   19973:	31 c2                	xor    %eax,%edx
   19975:	48 8b 85 b0 f4 ff ff 	mov    -0xb50(%rbp),%rax
   1997c:	89 10                	mov    %edx,(%rax)
   1997e:	48 8b 05 1b cd 00 00 	mov    0xcd1b(%rip),%rax        # 266a0 <g_94>
   19985:	8b 10                	mov    (%rax),%edx
   19987:	48 8b 05 12 cd 00 00 	mov    0xcd12(%rip),%rax        # 266a0 <g_94>
   1998e:	83 e2 02             	and    $0x2,%edx
   19991:	89 10                	mov    %edx,(%rax)
   19993:	8b 85 cc f3 ff ff    	mov    -0xc34(%rbp),%eax
   19999:	83 c0 01             	add    $0x1,%eax
   1999c:	89 85 cc f3 ff ff    	mov    %eax,-0xc34(%rbp)
   199a2:	8b 85 cc f3 ff ff    	mov    -0xc34(%rbp),%eax
   199a8:	83 f8 01             	cmp    $0x1,%eax
   199ab:	7e 80                	jle    1992d <func_69+0xcdf>
   199ad:	8b 85 dc f3 ff ff    	mov    -0xc24(%rbp),%eax
   199b3:	98                   	cwtl   
   199b4:	be 08 00 00 00       	mov    $0x8,%esi
   199b9:	89 c7                	mov    %eax,%edi
   199bb:	e8 13 fa fe ff       	callq  93d3 <safe_sub_func_int16_t_s_s>
   199c0:	98                   	cwtl   
   199c1:	89 85 dc f3 ff ff    	mov    %eax,-0xc24(%rbp)
   199c7:	83 bd dc f3 ff ff e3 	cmpl   $0xffffffe3,-0xc24(%rbp)
   199ce:	0f 8c 4d ff ff ff    	jl     19921 <func_69+0xcd3>
   199d4:	8b 05 8a a7 00 00    	mov    0xa78a(%rip),%eax        # 24164 <g_109>
   199da:	83 c0 01             	add    $0x1,%eax
   199dd:	89 05 81 a7 00 00    	mov    %eax,0xa781(%rip)        # 24164 <g_109>
   199e3:	8b 05 7b a7 00 00    	mov    0xa77b(%rip),%eax        # 24164 <g_109>
   199e9:	83 f8 14             	cmp    $0x14,%eax
   199ec:	0f 86 59 fe ff ff    	jbe    1984b <func_69+0xbfd>
   199f2:	48 8b 85 b0 f4 ff ff 	mov    -0xb50(%rbp),%rax
   199f9:	8b 00                	mov    (%rax),%eax
   199fb:	25 78 c7 52 5c       	and    $0x5c52c778,%eax
   19a00:	89 c2                	mov    %eax,%edx
   19a02:	48 8b 85 b0 f4 ff ff 	mov    -0xb50(%rbp),%rax
   19a09:	89 10                	mov    %edx,(%rax)
   19a0b:	48 8b 05 8e cc 00 00 	mov    0xcc8e(%rip),%rax        # 266a0 <g_94>
   19a12:	48 8b 95 b0 f4 ff ff 	mov    -0xb50(%rbp),%rdx
   19a19:	8b 12                	mov    (%rdx),%edx
   19a1b:	89 10                	mov    %edx,(%rax)
   19a1d:	8b 00                	mov    (%rax),%eax
   19a1f:	89 85 dc f3 ff ff    	mov    %eax,-0xc24(%rbp)
   19a25:	0f b6 45 c4          	movzbl -0x3c(%rbp),%eax
   19a29:	83 e8 01             	sub    $0x1,%eax
   19a2c:	88 45 c4             	mov    %al,-0x3c(%rbp)
   19a2f:	e9 2a 11 00 00       	jmpq   1ab5e <func_69+0x1f10>
   19a34:	66 c7 85 d4 f3 ff ff 	movw   $0xfffd,-0xc2c(%rbp)
   19a3b:	fd ff 
   19a3d:	c7 85 d8 f3 ff ff ff 	movl   $0xffffffff,-0xc28(%rbp)
   19a44:	ff ff ff 
   19a47:	48 8d 05 1a a7 00 00 	lea    0xa71a(%rip),%rax        # 24168 <g_126>
   19a4e:	48 89 85 18 f5 ff ff 	mov    %rax,-0xae8(%rbp)
   19a55:	48 c7 85 20 f5 ff ff 	movq   $0x0,-0xae0(%rbp)
   19a5c:	00 00 00 00 
   19a60:	48 c7 85 28 f5 ff ff 	movq   $0x0,-0xad8(%rbp)
   19a67:	00 00 00 00 
   19a6b:	48 8d 05 0e a8 00 00 	lea    0xa80e(%rip),%rax        # 24280 <g_295>
   19a72:	48 89 85 30 f5 ff ff 	mov    %rax,-0xad0(%rbp)
   19a79:	c7 85 24 f4 ff ff cf 	movl   $0x97acbccf,-0xbdc(%rbp)
   19a80:	bc ac 97 
   19a83:	c7 85 d8 f3 ff ff 01 	movl   $0x1,-0xc28(%rbp)
   19a8a:	00 00 00 
   19a8d:	0f b7 85 d4 f3 ff ff 	movzwl -0xc2c(%rbp),%eax
   19a94:	0f b7 d0             	movzwl %ax,%edx
   19a97:	48 8b 05 ca a6 00 00 	mov    0xa6ca(%rip),%rax        # 24168 <g_126>
   19a9e:	48 85 c0             	test   %rax,%rax
   19aa1:	0f 94 c0             	sete   %al
   19aa4:	0f b6 c0             	movzbl %al,%eax
   19aa7:	89 d1                	mov    %edx,%ecx
   19aa9:	31 c1                	xor    %eax,%ecx
   19aab:	48 8b 05 ee cb 00 00 	mov    0xcbee(%rip),%rax        # 266a0 <g_94>
   19ab2:	8b 10                	mov    (%rax),%edx
   19ab4:	48 8b 05 e5 cb 00 00 	mov    0xcbe5(%rip),%rax        # 266a0 <g_94>
   19abb:	21 ca                	and    %ecx,%edx
   19abd:	89 10                	mov    %edx,(%rax)
   19abf:	8b 00                	mov    (%rax),%eax
   19ac1:	85 c0                	test   %eax,%eax
   19ac3:	0f 84 0e 08 00 00    	je     1a2d7 <func_69+0x1689>
   19ac9:	c7 85 30 f4 ff ff 8e 	movl   $0x7889eb8e,-0xbd0(%rbp)
   19ad0:	eb 89 78 
   19ad3:	48 c7 85 50 f5 ff ff 	movq   $0x0,-0xab0(%rbp)
   19ada:	00 00 00 00 
   19ade:	48 8d 85 88 f4 ff ff 	lea    -0xb78(%rbp),%rax
   19ae5:	48 89 85 58 f5 ff ff 	mov    %rax,-0xaa8(%rbp)
   19aec:	48 c7 85 60 f5 ff ff 	movq   $0x0,-0xaa0(%rbp)
   19af3:	00 00 00 00 
   19af7:	48 8d 85 d4 f3 ff ff 	lea    -0xc2c(%rbp),%rax
   19afe:	48 89 85 40 fa ff ff 	mov    %rax,-0x5c0(%rbp)
   19b05:	48 8d 85 d4 f3 ff ff 	lea    -0xc2c(%rbp),%rax
   19b0c:	48 89 85 48 fa ff ff 	mov    %rax,-0x5b8(%rbp)
   19b13:	48 c7 85 50 fa ff ff 	movq   $0x0,-0x5b0(%rbp)
   19b1a:	00 00 00 00 
   19b1e:	48 8d 85 d4 f3 ff ff 	lea    -0xc2c(%rbp),%rax
   19b25:	48 89 85 58 fa ff ff 	mov    %rax,-0x5a8(%rbp)
   19b2c:	48 8d 85 d4 f3 ff ff 	lea    -0xc2c(%rbp),%rax
   19b33:	48 89 85 60 fa ff ff 	mov    %rax,-0x5a0(%rbp)
   19b3a:	48 c7 85 68 fa ff ff 	movq   $0x0,-0x598(%rbp)
   19b41:	00 00 00 00 
   19b45:	48 8d 85 d4 f3 ff ff 	lea    -0xc2c(%rbp),%rax
   19b4c:	48 89 85 70 fa ff ff 	mov    %rax,-0x590(%rbp)
   19b53:	48 8d 85 d4 f3 ff ff 	lea    -0xc2c(%rbp),%rax
   19b5a:	48 89 85 78 fa ff ff 	mov    %rax,-0x588(%rbp)
   19b61:	48 8d 85 d4 f3 ff ff 	lea    -0xc2c(%rbp),%rax
   19b68:	48 89 85 80 fa ff ff 	mov    %rax,-0x580(%rbp)
   19b6f:	48 8d 85 d4 f3 ff ff 	lea    -0xc2c(%rbp),%rax
   19b76:	48 89 85 88 fa ff ff 	mov    %rax,-0x578(%rbp)
   19b7d:	48 8d 85 d4 f3 ff ff 	lea    -0xc2c(%rbp),%rax
   19b84:	48 89 85 90 fa ff ff 	mov    %rax,-0x570(%rbp)
   19b8b:	48 8d 85 d4 f3 ff ff 	lea    -0xc2c(%rbp),%rax
   19b92:	48 89 85 98 fa ff ff 	mov    %rax,-0x568(%rbp)
   19b99:	48 8d 85 d4 f3 ff ff 	lea    -0xc2c(%rbp),%rax
   19ba0:	48 89 85 a0 fa ff ff 	mov    %rax,-0x560(%rbp)
   19ba7:	48 8d 85 d4 f3 ff ff 	lea    -0xc2c(%rbp),%rax
   19bae:	48 89 85 a8 fa ff ff 	mov    %rax,-0x558(%rbp)
   19bb5:	48 8d 85 d4 f3 ff ff 	lea    -0xc2c(%rbp),%rax
   19bbc:	48 89 85 b0 fa ff ff 	mov    %rax,-0x550(%rbp)
   19bc3:	48 8d 85 d4 f3 ff ff 	lea    -0xc2c(%rbp),%rax
   19bca:	48 89 85 b8 fa ff ff 	mov    %rax,-0x548(%rbp)
   19bd1:	48 8d 85 d4 f3 ff ff 	lea    -0xc2c(%rbp),%rax
   19bd8:	48 89 85 c0 fa ff ff 	mov    %rax,-0x540(%rbp)
   19bdf:	48 8d 85 d4 f3 ff ff 	lea    -0xc2c(%rbp),%rax
   19be6:	48 89 85 c8 fa ff ff 	mov    %rax,-0x538(%rbp)
   19bed:	48 8d 85 d4 f3 ff ff 	lea    -0xc2c(%rbp),%rax
   19bf4:	48 89 85 d0 fa ff ff 	mov    %rax,-0x530(%rbp)
   19bfb:	48 8d 85 d4 f3 ff ff 	lea    -0xc2c(%rbp),%rax
   19c02:	48 89 85 d8 fa ff ff 	mov    %rax,-0x528(%rbp)
   19c09:	48 8d 85 d4 f3 ff ff 	lea    -0xc2c(%rbp),%rax
   19c10:	48 89 85 e0 fa ff ff 	mov    %rax,-0x520(%rbp)
   19c17:	48 8d 85 d4 f3 ff ff 	lea    -0xc2c(%rbp),%rax
   19c1e:	48 89 85 e8 fa ff ff 	mov    %rax,-0x518(%rbp)
   19c25:	48 8d 85 d4 f3 ff ff 	lea    -0xc2c(%rbp),%rax
   19c2c:	48 89 85 f0 fa ff ff 	mov    %rax,-0x510(%rbp)
   19c33:	48 8d 85 d4 f3 ff ff 	lea    -0xc2c(%rbp),%rax
   19c3a:	48 89 85 f8 fa ff ff 	mov    %rax,-0x508(%rbp)
   19c41:	48 8d 85 d4 f3 ff ff 	lea    -0xc2c(%rbp),%rax
   19c48:	48 89 85 00 fb ff ff 	mov    %rax,-0x500(%rbp)
   19c4f:	48 8d 85 d4 f3 ff ff 	lea    -0xc2c(%rbp),%rax
   19c56:	48 89 85 08 fb ff ff 	mov    %rax,-0x4f8(%rbp)
   19c5d:	48 c7 85 10 fb ff ff 	movq   $0x0,-0x4f0(%rbp)
   19c64:	00 00 00 00 
   19c68:	48 8d 85 d4 f3 ff ff 	lea    -0xc2c(%rbp),%rax
   19c6f:	48 89 85 18 fb ff ff 	mov    %rax,-0x4e8(%rbp)
   19c76:	48 8d 85 d4 f3 ff ff 	lea    -0xc2c(%rbp),%rax
   19c7d:	48 89 85 20 fb ff ff 	mov    %rax,-0x4e0(%rbp)
   19c84:	48 c7 85 28 fb ff ff 	movq   $0x0,-0x4d8(%rbp)
   19c8b:	00 00 00 00 
   19c8f:	48 8d 85 d4 f3 ff ff 	lea    -0xc2c(%rbp),%rax
   19c96:	48 89 85 30 fb ff ff 	mov    %rax,-0x4d0(%rbp)
   19c9d:	48 8d 85 d4 f3 ff ff 	lea    -0xc2c(%rbp),%rax
   19ca4:	48 89 85 38 fb ff ff 	mov    %rax,-0x4c8(%rbp)
   19cab:	48 8d 85 d4 f3 ff ff 	lea    -0xc2c(%rbp),%rax
   19cb2:	48 89 85 40 fb ff ff 	mov    %rax,-0x4c0(%rbp)
   19cb9:	48 8d 85 d4 f3 ff ff 	lea    -0xc2c(%rbp),%rax
   19cc0:	48 89 85 48 fb ff ff 	mov    %rax,-0x4b8(%rbp)
   19cc7:	48 8d 85 d4 f3 ff ff 	lea    -0xc2c(%rbp),%rax
   19cce:	48 89 85 50 fb ff ff 	mov    %rax,-0x4b0(%rbp)
   19cd5:	48 8d 85 d4 f3 ff ff 	lea    -0xc2c(%rbp),%rax
   19cdc:	48 89 85 58 fb ff ff 	mov    %rax,-0x4a8(%rbp)
   19ce3:	48 8d 85 d4 f3 ff ff 	lea    -0xc2c(%rbp),%rax
   19cea:	48 89 85 60 fb ff ff 	mov    %rax,-0x4a0(%rbp)
   19cf1:	48 8d 85 d4 f3 ff ff 	lea    -0xc2c(%rbp),%rax
   19cf8:	48 89 85 68 fb ff ff 	mov    %rax,-0x498(%rbp)
   19cff:	48 c7 85 70 fb ff ff 	movq   $0x0,-0x490(%rbp)
   19d06:	00 00 00 00 
   19d0a:	48 8d 85 d4 f3 ff ff 	lea    -0xc2c(%rbp),%rax
   19d11:	48 89 85 78 fb ff ff 	mov    %rax,-0x488(%rbp)
   19d18:	48 8d 85 d4 f3 ff ff 	lea    -0xc2c(%rbp),%rax
   19d1f:	48 89 85 80 fb ff ff 	mov    %rax,-0x480(%rbp)
   19d26:	48 c7 85 88 fb ff ff 	movq   $0x0,-0x478(%rbp)
   19d2d:	00 00 00 00 
   19d31:	48 c7 85 90 fb ff ff 	movq   $0x0,-0x470(%rbp)
   19d38:	00 00 00 00 
   19d3c:	48 8d 85 d4 f3 ff ff 	lea    -0xc2c(%rbp),%rax
   19d43:	48 89 85 98 fb ff ff 	mov    %rax,-0x468(%rbp)
   19d4a:	48 8d 85 d4 f3 ff ff 	lea    -0xc2c(%rbp),%rax
   19d51:	48 89 85 a0 fb ff ff 	mov    %rax,-0x460(%rbp)
   19d58:	48 8d 85 d4 f3 ff ff 	lea    -0xc2c(%rbp),%rax
   19d5f:	48 89 85 a8 fb ff ff 	mov    %rax,-0x458(%rbp)
   19d66:	48 8d 85 d4 f3 ff ff 	lea    -0xc2c(%rbp),%rax
   19d6d:	48 89 85 b0 fb ff ff 	mov    %rax,-0x450(%rbp)
   19d74:	48 c7 85 b8 fb ff ff 	movq   $0x0,-0x448(%rbp)
   19d7b:	00 00 00 00 
   19d7f:	c7 85 d8 f3 ff ff fa 	movl   $0xfffffffa,-0xc28(%rbp)
   19d86:	ff ff ff 
   19d89:	e9 c0 04 00 00       	jmpq   1a24e <func_69+0x1600>
   19d8e:	c6 85 b2 f3 ff ff ff 	movb   $0xff,-0xc4e(%rbp)
   19d95:	c7 85 e4 f3 ff ff 00 	movl   $0x0,-0xc1c(%rbp)
   19d9c:	00 00 00 
   19d9f:	e9 8e 04 00 00       	jmpq   1a232 <func_69+0x15e4>
   19da4:	c7 85 34 f4 ff ff 07 	movl   $0xbd7d6807,-0xbcc(%rbp)
   19dab:	68 7d bd 
   19dae:	48 8d 05 af a4 00 00 	lea    0xa4af(%rip),%rax        # 24264 <g_152+0x14>
   19db5:	48 89 85 68 f5 ff ff 	mov    %rax,-0xa98(%rbp)
   19dbc:	48 c7 85 70 f5 ff ff 	movq   $0x0,-0xa90(%rbp)
   19dc3:	00 00 00 00 
   19dc7:	48 8d 05 b2 e9 00 00 	lea    0xe9b2(%rip),%rax        # 28780 <g_277>
   19dce:	48 89 85 78 f5 ff ff 	mov    %rax,-0xa88(%rbp)
   19dd5:	c7 85 70 f8 ff ff f8 	movl   $0xfffffff8,-0x790(%rbp)
   19ddc:	ff ff ff 
   19ddf:	c7 85 74 f8 ff ff f8 	movl   $0xfffffff8,-0x78c(%rbp)
   19de6:	ff ff ff 
   19de9:	c7 85 78 f8 ff ff f8 	movl   $0xfffffff8,-0x788(%rbp)
   19df0:	ff ff ff 
   19df3:	c7 85 7c f8 ff ff f8 	movl   $0xfffffff8,-0x784(%rbp)
   19dfa:	ff ff ff 
   19dfd:	c7 85 80 f8 ff ff f8 	movl   $0xfffffff8,-0x780(%rbp)
   19e04:	ff ff ff 
   19e07:	c7 85 84 f8 ff ff f8 	movl   $0xfffffff8,-0x77c(%rbp)
   19e0e:	ff ff ff 
   19e11:	c7 85 88 f8 ff ff f8 	movl   $0xfffffff8,-0x778(%rbp)
   19e18:	ff ff ff 
   19e1b:	c7 85 8c f8 ff ff f8 	movl   $0xfffffff8,-0x774(%rbp)
   19e22:	ff ff ff 
   19e25:	c7 85 90 f8 ff ff f8 	movl   $0xfffffff8,-0x770(%rbp)
   19e2c:	ff ff ff 
   19e2f:	c7 85 94 f8 ff ff f8 	movl   $0xfffffff8,-0x76c(%rbp)
   19e36:	ff ff ff 
   19e39:	c7 85 98 f8 ff ff f8 	movl   $0xfffffff8,-0x768(%rbp)
   19e40:	ff ff ff 
   19e43:	c7 85 9c f8 ff ff f8 	movl   $0xfffffff8,-0x764(%rbp)
   19e4a:	ff ff ff 
   19e4d:	c7 85 a0 f8 ff ff f8 	movl   $0xfffffff8,-0x760(%rbp)
   19e54:	ff ff ff 
   19e57:	c7 85 a4 f8 ff ff f8 	movl   $0xfffffff8,-0x75c(%rbp)
   19e5e:	ff ff ff 
   19e61:	c7 85 a8 f8 ff ff f8 	movl   $0xfffffff8,-0x758(%rbp)
   19e68:	ff ff ff 
   19e6b:	c7 85 ac f8 ff ff f8 	movl   $0xfffffff8,-0x754(%rbp)
   19e72:	ff ff ff 
   19e75:	c7 85 b0 f8 ff ff f8 	movl   $0xfffffff8,-0x750(%rbp)
   19e7c:	ff ff ff 
   19e7f:	c7 85 b4 f8 ff ff f8 	movl   $0xfffffff8,-0x74c(%rbp)
   19e86:	ff ff ff 
   19e89:	c7 85 b8 f8 ff ff f8 	movl   $0xfffffff8,-0x748(%rbp)
   19e90:	ff ff ff 
   19e93:	c7 85 bc f8 ff ff f8 	movl   $0xfffffff8,-0x744(%rbp)
   19e9a:	ff ff ff 
   19e9d:	c7 85 c0 f8 ff ff f8 	movl   $0xfffffff8,-0x740(%rbp)
   19ea4:	ff ff ff 
   19ea7:	c7 85 c4 f8 ff ff f8 	movl   $0xfffffff8,-0x73c(%rbp)
   19eae:	ff ff ff 
   19eb1:	c7 85 c8 f8 ff ff f8 	movl   $0xfffffff8,-0x738(%rbp)
   19eb8:	ff ff ff 
   19ebb:	c7 85 cc f8 ff ff f8 	movl   $0xfffffff8,-0x734(%rbp)
   19ec2:	ff ff ff 
   19ec5:	c7 85 d0 f8 ff ff f8 	movl   $0xfffffff8,-0x730(%rbp)
   19ecc:	ff ff ff 
   19ecf:	c7 85 d4 f8 ff ff f8 	movl   $0xfffffff8,-0x72c(%rbp)
   19ed6:	ff ff ff 
   19ed9:	c7 85 d8 f8 ff ff f8 	movl   $0xfffffff8,-0x728(%rbp)
   19ee0:	ff ff ff 
   19ee3:	c7 85 dc f8 ff ff f8 	movl   $0xfffffff8,-0x724(%rbp)
   19eea:	ff ff ff 
   19eed:	c7 85 e0 f8 ff ff f8 	movl   $0xfffffff8,-0x720(%rbp)
   19ef4:	ff ff ff 
   19ef7:	c7 85 e4 f8 ff ff f8 	movl   $0xfffffff8,-0x71c(%rbp)
   19efe:	ff ff ff 
   19f01:	c7 85 e8 f8 ff ff f8 	movl   $0xfffffff8,-0x718(%rbp)
   19f08:	ff ff ff 
   19f0b:	c7 85 ec f8 ff ff f8 	movl   $0xfffffff8,-0x714(%rbp)
   19f12:	ff ff ff 
   19f15:	c7 85 f0 f8 ff ff f8 	movl   $0xfffffff8,-0x710(%rbp)
   19f1c:	ff ff ff 
   19f1f:	c7 85 f4 f8 ff ff f8 	movl   $0xfffffff8,-0x70c(%rbp)
   19f26:	ff ff ff 
   19f29:	c7 85 f8 f8 ff ff f8 	movl   $0xfffffff8,-0x708(%rbp)
   19f30:	ff ff ff 
   19f33:	c7 85 fc f8 ff ff f8 	movl   $0xfffffff8,-0x704(%rbp)
   19f3a:	ff ff ff 
   19f3d:	48 8d 05 64 c7 00 00 	lea    0xc764(%rip),%rax        # 266a8 <g_93>
   19f44:	48 89 85 80 f5 ff ff 	mov    %rax,-0xa80(%rbp)
   19f4b:	48 c7 85 a0 f4 ff ff 	movq   $0x0,-0xb60(%rbp)
   19f52:	00 00 00 00 
   19f56:	48 8d 85 a0 f4 ff ff 	lea    -0xb60(%rbp),%rax
   19f5d:	48 89 85 a8 f4 ff ff 	mov    %rax,-0xb58(%rbp)
   19f64:	48 8d 85 a8 f4 ff ff 	lea    -0xb58(%rbp),%rax
   19f6b:	48 89 85 88 f5 ff ff 	mov    %rax,-0xa78(%rbp)
   19f72:	c7 85 fc f3 ff ff 00 	movl   $0x0,-0xc04(%rbp)
   19f79:	00 00 00 
   19f7c:	eb 1b                	jmp    19f99 <func_69+0x134b>
   19f7e:	8b 85 fc f3 ff ff    	mov    -0xc04(%rbp),%eax
   19f84:	48 98                	cltq   
   19f86:	48 c7 84 c5 80 f7 ff 	movq   $0x0,-0x880(%rbp,%rax,8)
   19f8d:	ff 00 00 00 00 
   19f92:	83 85 fc f3 ff ff 01 	addl   $0x1,-0xc04(%rbp)
   19f99:	83 bd fc f3 ff ff 02 	cmpl   $0x2,-0xc04(%rbp)
   19fa0:	7e dc                	jle    19f7e <func_69+0x1330>
   19fa2:	8b 05 bc a1 00 00    	mov    0xa1bc(%rip),%eax        # 24164 <g_109>
   19fa8:	0f be d8             	movsbl %al,%ebx
   19fab:	44 8b 25 7e a0 00 00 	mov    0xa07e(%rip),%r12d        # 24030 <g_74>
   19fb2:	8b 05 ac a2 00 00    	mov    0xa2ac(%rip),%eax        # 24264 <g_152+0x14>
   19fb8:	44 0f be e8          	movsbl %al,%r13d
   19fbc:	8b 85 d8 f3 ff ff    	mov    -0xc28(%rbp),%eax
   19fc2:	44 0f bf f0          	movswl %ax,%r14d
   19fc6:	0f b6 05 93 a1 00 00 	movzbl 0xa193(%rip),%eax        # 24160 <g_104>
   19fcd:	0f b6 d0             	movzbl %al,%edx
   19fd0:	0f b6 85 b2 f3 ff ff 	movzbl -0xc4e(%rbp),%eax
   19fd7:	83 e0 06             	and    $0x6,%eax
   19fda:	48 89 c1             	mov    %rax,%rcx
   19fdd:	b8 34 69 fb c7       	mov    $0xc7fb6934,%eax
   19fe2:	48 39 c1             	cmp    %rax,%rcx
   19fe5:	0f 97 c0             	seta   %al
   19fe8:	0f b6 c0             	movzbl %al,%eax
   19feb:	89 d6                	mov    %edx,%esi
   19fed:	89 c7                	mov    %eax,%edi
   19fef:	e8 9f fb fe ff       	callq  9b93 <safe_mul_func_uint8_t_u_u>
   19ff4:	0f b6 d0             	movzbl %al,%edx
   19ff7:	8b 85 d8 f3 ff ff    	mov    -0xc28(%rbp),%eax
   19ffd:	39 c2                	cmp    %eax,%edx
   19fff:	0f 9e c0             	setle  %al
   1a002:	0f b6 d0             	movzbl %al,%edx
   1a005:	8b 85 b0 fc ff ff    	mov    -0x350(%rbp),%eax
   1a00b:	09 d0                	or     %edx,%eax
   1a00d:	89 85 b0 fc ff ff    	mov    %eax,-0x350(%rbp)
   1a013:	8b 05 4f a2 00 00    	mov    0xa24f(%rip),%eax        # 24268 <g_152+0x18>
   1a019:	0f bf c8             	movswl %ax,%ecx
   1a01c:	0f b7 85 d4 f3 ff ff 	movzwl -0xc2c(%rbp),%eax
   1a023:	0f b7 f0             	movzwl %ax,%esi
   1a026:	48 8b 15 73 c6 00 00 	mov    0xc673(%rip),%rdx        # 266a0 <g_94>
   1a02d:	c7 02 f3 60 77 d2    	movl   $0xd27760f3,(%rdx)
   1a033:	48 8b 85 88 f4 ff ff 	mov    -0xb78(%rbp),%rax
   1a03a:	8b 12                	mov    (%rdx),%edx
   1a03c:	89 10                	mov    %edx,(%rax)
   1a03e:	8b 00                	mov    (%rax),%eax
   1a040:	09 f0                	or     %esi,%eax
   1a042:	3d 6f a3 00 00       	cmp    $0xa36f,%eax
   1a047:	0f 9e c0             	setle  %al
   1a04a:	0f b6 c0             	movzbl %al,%eax
   1a04d:	89 ce                	mov    %ecx,%esi
   1a04f:	89 c7                	mov    %eax,%edi
   1a051:	e8 7d f3 fe ff       	callq  93d3 <safe_sub_func_int16_t_s_s>
   1a056:	66 85 c0             	test   %ax,%ax
   1a059:	0f 95 c0             	setne  %al
   1a05c:	0f b6 c0             	movzbl %al,%eax
   1a05f:	44 89 f6             	mov    %r14d,%esi
   1a062:	89 c7                	mov    %eax,%edi
   1a064:	e8 8c f3 fe ff       	callq  93f5 <safe_mul_func_int16_t_s_s>
   1a069:	0f bf d0             	movswl %ax,%edx
   1a06c:	8b 85 d8 f3 ff ff    	mov    -0xc28(%rbp),%eax
   1a072:	09 d0                	or     %edx,%eax
   1a074:	89 85 34 f4 ff ff    	mov    %eax,-0xbcc(%rbp)
   1a07a:	48 8b 85 68 f5 ff ff 	mov    -0xa98(%rbp),%rax
   1a081:	48 3b 85 b8 f4 ff ff 	cmp    -0xb48(%rbp),%rax
   1a088:	0f 94 c0             	sete   %al
   1a08b:	0f b6 d0             	movzbl %al,%edx
   1a08e:	8b 05 e8 a1 00 00    	mov    0xa1e8(%rip),%eax        # 2427c <g_274>
   1a094:	31 d0                	xor    %edx,%eax
   1a096:	89 05 e0 a1 00 00    	mov    %eax,0xa1e0(%rip)        # 2427c <g_274>
   1a09c:	8b 05 da a1 00 00    	mov    0xa1da(%rip),%eax        # 2427c <g_274>
   1a0a2:	85 c0                	test   %eax,%eax
   1a0a4:	75 0a                	jne    1a0b0 <func_69+0x1462>
   1a0a6:	8b 05 34 a0 00 00    	mov    0xa034(%rip),%eax        # 240e0 <g_75+0xa0>
   1a0ac:	85 c0                	test   %eax,%eax
   1a0ae:	74 07                	je     1a0b7 <func_69+0x1469>
   1a0b0:	b8 01 00 00 00       	mov    $0x1,%eax
   1a0b5:	eb 05                	jmp    1a0bc <func_69+0x146e>
   1a0b7:	b8 00 00 00 00       	mov    $0x0,%eax
   1a0bc:	0f be c0             	movsbl %al,%eax
   1a0bf:	44 89 ee             	mov    %r13d,%esi
   1a0c2:	89 c7                	mov    %eax,%edi
   1a0c4:	e8 a1 f1 fe ff       	callq  926a <safe_div_func_int8_t_s_s>
   1a0c9:	0f b6 c0             	movzbl %al,%eax
   1a0cc:	be 04 00 00 00       	mov    $0x4,%esi
   1a0d1:	89 c7                	mov    %eax,%edi
   1a0d3:	e8 e6 fb fe ff       	callq  9cbe <safe_rshift_func_uint8_t_u_u>
   1a0d8:	38 85 b2 f3 ff ff    	cmp    %al,-0xc4e(%rbp)
   1a0de:	0f 96 c0             	setbe  %al
   1a0e1:	0f b6 d0             	movzbl %al,%edx
   1a0e4:	8b 85 d8 f3 ff ff    	mov    -0xc28(%rbp),%eax
   1a0ea:	39 c2                	cmp    %eax,%edx
   1a0ec:	0f 9d c0             	setge  %al
   1a0ef:	0f b6 c0             	movzbl %al,%eax
   1a0f2:	8b 95 30 f4 ff ff    	mov    -0xbd0(%rbp),%edx
   1a0f8:	89 d6                	mov    %edx,%esi
   1a0fa:	89 c7                	mov    %eax,%edi
   1a0fc:	e8 bd fb fe ff       	callq  9cbe <safe_rshift_func_uint8_t_u_u>
   1a101:	8b 95 30 f4 ff ff    	mov    -0xbd0(%rbp),%edx
   1a107:	48 8b 85 78 f5 ff ff 	mov    -0xa88(%rbp),%rax
   1a10e:	89 10                	mov    %edx,(%rax)
   1a110:	0f b6 85 b2 f3 ff ff 	movzbl -0xc4e(%rbp),%eax
   1a117:	be 04 00 00 00       	mov    $0x4,%esi
   1a11c:	89 c7                	mov    %eax,%edi
   1a11e:	e8 9b fc fe ff       	callq  9dbe <safe_lshift_func_uint16_t_u_s>
   1a123:	83 c8 59             	or     $0x59,%eax
   1a126:	89 c2                	mov    %eax,%edx
   1a128:	0f b7 85 d4 f3 ff ff 	movzwl -0xc2c(%rbp),%eax
   1a12f:	21 d0                	and    %edx,%eax
   1a131:	0f b6 c0             	movzbl %al,%eax
   1a134:	44 89 e6             	mov    %r12d,%esi
   1a137:	89 c7                	mov    %eax,%edi
   1a139:	e8 c7 fa fe ff       	callq  9c05 <safe_lshift_func_uint8_t_u_s>
   1a13e:	0f b6 c0             	movzbl %al,%eax
   1a141:	39 85 30 f4 ff ff    	cmp    %eax,-0xbd0(%rbp)
   1a147:	0f 95 c0             	setne  %al
   1a14a:	0f b6 c0             	movzbl %al,%eax
   1a14d:	be c8 ff ff ff       	mov    $0xffffffc8,%esi
   1a152:	89 c7                	mov    %eax,%edi
   1a154:	e8 b9 f0 fe ff       	callq  9212 <safe_mul_func_int8_t_s_s>
   1a159:	8b 95 c4 f8 ff ff    	mov    -0x73c(%rbp),%edx
   1a15f:	21 d0                	and    %edx,%eax
   1a161:	0f be c0             	movsbl %al,%eax
   1a164:	89 de                	mov    %ebx,%esi
   1a166:	89 c7                	mov    %eax,%edi
   1a168:	e8 a5 f0 fe ff       	callq  9212 <safe_mul_func_int8_t_s_s>
   1a16d:	0f be d0             	movsbl %al,%edx
   1a170:	0f b7 85 d4 f3 ff ff 	movzwl -0xc2c(%rbp),%eax
   1a177:	0f b7 c0             	movzwl %ax,%eax
   1a17a:	39 c2                	cmp    %eax,%edx
   1a17c:	0f 9f c0             	setg   %al
   1a17f:	0f b6 c0             	movzbl %al,%eax
   1a182:	09 85 e0 f3 ff ff    	or     %eax,-0xc20(%rbp)
   1a188:	0f b6 9d b2 f3 ff ff 	movzbl -0xc4e(%rbp),%ebx
   1a18f:	48 8b 85 08 f5 ff ff 	mov    -0xaf8(%rbp),%rax
   1a196:	48 8b 00             	mov    (%rax),%rax
   1a199:	48 89 85 80 f5 ff ff 	mov    %rax,-0xa80(%rbp)
   1a1a0:	48 8b 05 11 c5 00 00 	mov    0xc511(%rip),%rax        # 266b8 <g_191>
   1a1a7:	48 8b 00             	mov    (%rax),%rax
   1a1aa:	48 39 85 80 f5 ff ff 	cmp    %rax,-0xa80(%rbp)
   1a1b1:	75 5b                	jne    1a20e <func_69+0x15c0>
   1a1b3:	0f b7 85 d4 f3 ff ff 	movzwl -0xc2c(%rbp),%eax
   1a1ba:	44 0f be e0          	movsbl %al,%r12d
   1a1be:	be 03 00 00 00       	mov    $0x3,%esi
   1a1c3:	bf 00 00 00 00       	mov    $0x0,%edi
   1a1c8:	e8 c5 f2 fe ff       	callq  9492 <safe_lshift_func_int16_t_s_s>
   1a1cd:	48 83 bd 88 f5 ff ff 	cmpq   $0x0,-0xa78(%rbp)
   1a1d4:	00 
   1a1d5:	0f 95 c0             	setne  %al
   1a1d8:	44 0f b6 e8          	movzbl %al,%r13d
   1a1dc:	48 8b 85 a8 f3 ff ff 	mov    -0xc58(%rbp),%rax
   1a1e3:	48 8b 00             	mov    (%rax),%rax
   1a1e6:	48 89 c2             	mov    %rax,%rdx
   1a1e9:	0f b6 85 b2 f3 ff ff 	movzbl -0xc4e(%rbp),%eax
   1a1f0:	48 89 d6             	mov    %rdx,%rsi
   1a1f3:	48 89 c7             	mov    %rax,%rdi
   1a1f6:	e8 b9 f7 fe ff       	callq  99b4 <safe_mod_func_int64_t_s_s>
   1a1fb:	49 39 c5             	cmp    %rax,%r13
   1a1fe:	0f 9f c0             	setg   %al
   1a201:	0f b6 c0             	movzbl %al,%eax
   1a204:	44 89 e6             	mov    %r12d,%esi
   1a207:	89 c7                	mov    %eax,%edi
   1a209:	e8 23 f0 fe ff       	callq  9231 <safe_mod_func_int8_t_s_s>
   1a20e:	8b 05 14 9e 00 00    	mov    0x9e14(%rip),%eax        # 24028 <g_73>
   1a214:	89 de                	mov    %ebx,%esi
   1a216:	89 c7                	mov    %eax,%edi
   1a218:	e8 9b fc fe ff       	callq  9eb8 <safe_add_func_uint32_t_u_u>
   1a21d:	ba 01 00 00 00       	mov    $0x1,%edx
   1a222:	48 8b 85 88 f4 ff ff 	mov    -0xb78(%rbp),%rax
   1a229:	89 10                	mov    %edx,(%rax)
   1a22b:	83 85 e4 f3 ff ff 01 	addl   $0x1,-0xc1c(%rbp)
   1a232:	83 bd e4 f3 ff ff 15 	cmpl   $0x15,-0xc1c(%rbp)
   1a239:	0f 85 65 fb ff ff    	jne    19da4 <func_69+0x1156>
   1a23f:	8b 85 d8 f3 ff ff    	mov    -0xc28(%rbp),%eax
   1a245:	83 c0 01             	add    $0x1,%eax
   1a248:	89 85 d8 f3 ff ff    	mov    %eax,-0xc28(%rbp)
   1a24e:	8b 85 d8 f3 ff ff    	mov    -0xc28(%rbp),%eax
   1a254:	83 f8 13             	cmp    $0x13,%eax
   1a257:	0f 84 31 fb ff ff    	je     19d8e <func_69+0x1140>
   1a25d:	48 83 bd 58 f5 ff ff 	cmpq   $0x0,-0xaa8(%rbp)
   1a264:	00 
   1a265:	0f 95 c0             	setne  %al
   1a268:	0f b6 c0             	movzbl %al,%eax
   1a26b:	66 89 05 0e a0 00 00 	mov    %ax,0xa00e(%rip)        # 24280 <g_295>
   1a272:	0f b7 05 07 a0 00 00 	movzwl 0xa007(%rip),%eax        # 24280 <g_295>
   1a279:	44 0f b7 e0          	movzwl %ax,%r12d
   1a27d:	8b 05 f5 9f 00 00    	mov    0x9ff5(%rip),%eax        # 24278 <g_206>
   1a283:	3d 9d 15 00 00       	cmp    $0x159d,%eax
   1a288:	0f 9f c0             	setg   %al
   1a28b:	0f b6 d8             	movzbl %al,%ebx
   1a28e:	48 8b 85 68 f4 ff ff 	mov    -0xb98(%rbp),%rax
   1a295:	8b 00                	mov    (%rax),%eax
   1a297:	0f be c0             	movsbl %al,%eax
   1a29a:	89 c6                	mov    %eax,%esi
   1a29c:	bf 74 00 00 00       	mov    $0x74,%edi
   1a2a1:	e8 2e ef fe ff       	callq  91d4 <safe_add_func_int8_t_s_s>
   1a2a6:	0f be c0             	movsbl %al,%eax
   1a2a9:	89 de                	mov    %ebx,%esi
   1a2ab:	89 c7                	mov    %eax,%edi
   1a2ad:	e8 60 ef fe ff       	callq  9212 <safe_mul_func_int8_t_s_s>
   1a2b2:	0f be c0             	movsbl %al,%eax
   1a2b5:	41 39 c4             	cmp    %eax,%r12d
   1a2b8:	0f 95 c0             	setne  %al
   1a2bb:	0f b6 c8             	movzbl %al,%ecx
   1a2be:	48 8b 05 db c3 00 00 	mov    0xc3db(%rip),%rax        # 266a0 <g_94>
   1a2c5:	8b 10                	mov    (%rax),%edx
   1a2c7:	48 8b 05 d2 c3 00 00 	mov    0xc3d2(%rip),%rax        # 266a0 <g_94>
   1a2ce:	09 ca                	or     %ecx,%edx
   1a2d0:	89 10                	mov    %edx,(%rax)
   1a2d2:	e9 c9 06 00 00       	jmpq   1a9a0 <func_69+0x1d52>
   1a2d7:	66 c7 85 b8 f3 ff ff 	movw   $0xffff,-0xc48(%rbp)
   1a2de:	ff ff 
   1a2e0:	c7 85 80 f7 ff ff a5 	movl   $0x56e6cda5,-0x880(%rbp)
   1a2e7:	cd e6 56 
   1a2ea:	c7 85 84 f7 ff ff a5 	movl   $0x56e6cda5,-0x87c(%rbp)
   1a2f1:	cd e6 56 
   1a2f4:	c7 85 88 f7 ff ff a5 	movl   $0x56e6cda5,-0x878(%rbp)
   1a2fb:	cd e6 56 
   1a2fe:	c7 85 8c f7 ff ff a5 	movl   $0x56e6cda5,-0x874(%rbp)
   1a305:	cd e6 56 
   1a308:	c7 85 90 f7 ff ff a5 	movl   $0x56e6cda5,-0x870(%rbp)
   1a30f:	cd e6 56 
   1a312:	c7 85 94 f7 ff ff a5 	movl   $0x56e6cda5,-0x86c(%rbp)
   1a319:	cd e6 56 
   1a31c:	c7 85 98 f7 ff ff a5 	movl   $0x56e6cda5,-0x868(%rbp)
   1a323:	cd e6 56 
   1a326:	c7 85 9c f7 ff ff a5 	movl   $0x56e6cda5,-0x864(%rbp)
   1a32d:	cd e6 56 
   1a330:	c7 85 a0 f7 ff ff a5 	movl   $0x56e6cda5,-0x860(%rbp)
   1a337:	cd e6 56 
   1a33a:	c7 85 a4 f7 ff ff a5 	movl   $0x56e6cda5,-0x85c(%rbp)
   1a341:	cd e6 56 
   1a344:	48 8d 05 dd 9c 00 00 	lea    0x9cdd(%rip),%rax        # 24028 <g_73>
   1a34b:	48 89 85 38 f5 ff ff 	mov    %rax,-0xac8(%rbp)
   1a352:	c7 85 00 f4 ff ff b5 	movl   $0xd7abbbb5,-0xc00(%rbp)
   1a359:	bb ab d7 
   1a35c:	48 8b 85 68 f4 ff ff 	mov    -0xb98(%rbp),%rax
   1a363:	8b 00                	mov    (%rax),%eax
   1a365:	98                   	cwtl   
   1a366:	be 0e 00 00 00       	mov    $0xe,%esi
   1a36b:	89 c7                	mov    %eax,%edi
   1a36d:	e8 f1 f1 fe ff       	callq  9563 <safe_rshift_func_int16_t_s_u>
   1a372:	89 c2                	mov    %eax,%edx
   1a374:	48 8b 85 88 f4 ff ff 	mov    -0xb78(%rbp),%rax
   1a37b:	0f bf d2             	movswl %dx,%edx
   1a37e:	89 10                	mov    %edx,(%rax)
   1a380:	c7 05 ce 9d 00 00 eb 	movl   $0xffffffeb,0x9dce(%rip)        # 24158 <g_78>
   1a387:	ff ff ff 
   1a38a:	e9 17 01 00 00       	jmpq   1a4a6 <func_69+0x1858>
   1a38f:	c7 85 2c f4 ff ff 5e 	movl   $0xb970db5e,-0xbd4(%rbp)
   1a396:	db 70 b9 
   1a399:	c7 85 04 f4 ff ff 00 	movl   $0x0,-0xbfc(%rbp)
   1a3a0:	00 00 00 
   1a3a3:	eb 14                	jmp    1a3b9 <func_69+0x176b>
   1a3a5:	8b 85 04 f4 ff ff    	mov    -0xbfc(%rbp),%eax
   1a3ab:	48 98                	cltq   
   1a3ad:	c6 44 05 c0 1b       	movb   $0x1b,-0x40(%rbp,%rax,1)
   1a3b2:	83 85 04 f4 ff ff 01 	addl   $0x1,-0xbfc(%rbp)
   1a3b9:	83 bd 04 f4 ff ff 01 	cmpl   $0x1,-0xbfc(%rbp)
   1a3c0:	7e e3                	jle    1a3a5 <func_69+0x1757>
   1a3c2:	c7 85 d0 f3 ff ff 00 	movl   $0x0,-0xc30(%rbp)
   1a3c9:	00 00 00 
   1a3cc:	eb 2d                	jmp    1a3fb <func_69+0x17ad>
   1a3ce:	66 83 bd b8 f3 ff ff 	cmpw   $0x0,-0xc48(%rbp)
   1a3d5:	00 
   1a3d6:	75 30                	jne    1a408 <func_69+0x17ba>
   1a3d8:	48 8b 85 c0 f4 ff ff 	mov    -0xb40(%rbp),%rax
   1a3df:	48 8b 10             	mov    (%rax),%rdx
   1a3e2:	48 8b 85 c0 f4 ff ff 	mov    -0xb40(%rbp),%rax
   1a3e9:	48 89 10             	mov    %rdx,(%rax)
   1a3ec:	8b 85 d0 f3 ff ff    	mov    -0xc30(%rbp),%eax
   1a3f2:	83 e8 01             	sub    $0x1,%eax
   1a3f5:	89 85 d0 f3 ff ff    	mov    %eax,-0xc30(%rbp)
   1a3fb:	8b 85 d0 f3 ff ff    	mov    -0xc30(%rbp),%eax
   1a401:	83 f8 ec             	cmp    $0xffffffec,%eax
   1a404:	75 c8                	jne    1a3ce <func_69+0x1780>
   1a406:	eb 01                	jmp    1a409 <func_69+0x17bb>
   1a408:	90                   	nop
   1a409:	0f b6 85 b0 f3 ff ff 	movzbl -0xc50(%rbp),%eax
   1a410:	83 c0 01             	add    $0x1,%eax
   1a413:	88 85 b0 f3 ff ff    	mov    %al,-0xc50(%rbp)
   1a419:	c7 05 59 9e 00 00 17 	movl   $0x17,0x9e59(%rip)        # 2427c <g_274>
   1a420:	00 00 00 
   1a423:	eb 67                	jmp    1a48c <func_69+0x183e>
   1a425:	66 c7 85 ba f3 ff ff 	movw   $0x1,-0xc46(%rbp)
   1a42c:	01 00 
   1a42e:	48 8b 05 6b c2 00 00 	mov    0xc26b(%rip),%rax        # 266a0 <g_94>
   1a435:	8b 08                	mov    (%rax),%ecx
   1a437:	0f b6 45 c0          	movzbl -0x40(%rbp),%eax
   1a43b:	0f be d0             	movsbl %al,%edx
   1a43e:	48 8b 05 5b c2 00 00 	mov    0xc25b(%rip),%rax        # 266a0 <g_94>
   1a445:	31 ca                	xor    %ecx,%edx
   1a447:	89 10                	mov    %edx,(%rax)
   1a449:	0f b7 85 ba f3 ff ff 	movzwl -0xc46(%rbp),%eax
   1a450:	83 c0 01             	add    $0x1,%eax
   1a453:	66 89 85 ba f3 ff ff 	mov    %ax,-0xc46(%rbp)
   1a45a:	48 8b 85 c0 f4 ff ff 	mov    -0xb40(%rbp),%rax
   1a461:	48 8b 10             	mov    (%rax),%rdx
   1a464:	48 8b 85 c0 f4 ff ff 	mov    -0xb40(%rbp),%rax
   1a46b:	48 89 10             	mov    %rdx,(%rax)
   1a46e:	8b 05 08 9e 00 00    	mov    0x9e08(%rip),%eax        # 2427c <g_274>
   1a474:	0f b7 c0             	movzwl %ax,%eax
   1a477:	be 08 00 00 00       	mov    $0x8,%esi
   1a47c:	89 c7                	mov    %eax,%edi
   1a47e:	e8 9c f8 fe ff       	callq  9d1f <safe_sub_func_uint16_t_u_u>
   1a483:	0f b7 c0             	movzwl %ax,%eax
   1a486:	89 05 f0 9d 00 00    	mov    %eax,0x9df0(%rip)        # 2427c <g_274>
   1a48c:	8b 05 ea 9d 00 00    	mov    0x9dea(%rip),%eax        # 2427c <g_274>
   1a492:	83 f8 f0             	cmp    $0xfffffff0,%eax
   1a495:	7d 8e                	jge    1a425 <func_69+0x17d7>
   1a497:	8b 05 bb 9c 00 00    	mov    0x9cbb(%rip),%eax        # 24158 <g_78>
   1a49d:	83 c0 01             	add    $0x1,%eax
   1a4a0:	89 05 b2 9c 00 00    	mov    %eax,0x9cb2(%rip)        # 24158 <g_78>
   1a4a6:	8b 05 ac 9c 00 00    	mov    0x9cac(%rip),%eax        # 24158 <g_78>
   1a4ac:	83 f8 12             	cmp    $0x12,%eax
   1a4af:	0f 8f da fe ff ff    	jg     1a38f <func_69+0x1741>
   1a4b5:	c7 85 dc f3 ff ff 01 	movl   $0x1,-0xc24(%rbp)
   1a4bc:	00 00 00 
   1a4bf:	e9 cf 04 00 00       	jmpq   1a993 <func_69+0x1d45>
   1a4c4:	c7 85 28 f4 ff ff 91 	movl   $0x7968ef91,-0xbd8(%rbp)
   1a4cb:	ef 68 79 
   1a4ce:	48 8d 05 53 9b 00 00 	lea    0x9b53(%rip),%rax        # 24028 <g_73>
   1a4d5:	48 89 85 40 f5 ff ff 	mov    %rax,-0xac0(%rbp)
   1a4dc:	48 8d 05 bd c1 00 00 	lea    0xc1bd(%rip),%rax        # 266a0 <g_94>
   1a4e3:	48 89 85 48 f5 ff ff 	mov    %rax,-0xab8(%rbp)
   1a4ea:	c6 85 b1 f3 ff ff 00 	movb   $0x0,-0xc4f(%rbp)
   1a4f1:	e9 95 02 00 00       	jmpq   1a78b <func_69+0x1b3d>
   1a4f6:	48 c7 85 40 fa ff ff 	movq   $0x0,-0x5c0(%rbp)
   1a4fd:	00 00 00 00 
   1a501:	48 8d 05 78 e2 00 00 	lea    0xe278(%rip),%rax        # 28780 <g_277>
   1a508:	48 89 85 48 fa ff ff 	mov    %rax,-0x5b8(%rbp)
   1a50f:	48 c7 85 50 fa ff ff 	movq   $0x0,-0x5b0(%rbp)
   1a516:	00 00 00 00 
   1a51a:	48 8d 05 5f e2 00 00 	lea    0xe25f(%rip),%rax        # 28780 <g_277>
   1a521:	48 89 85 58 fa ff ff 	mov    %rax,-0x5a8(%rbp)
   1a528:	48 8d 05 51 e2 00 00 	lea    0xe251(%rip),%rax        # 28780 <g_277>
   1a52f:	48 89 85 60 fa ff ff 	mov    %rax,-0x5a0(%rbp)
   1a536:	48 8d 05 43 e2 00 00 	lea    0xe243(%rip),%rax        # 28780 <g_277>
   1a53d:	48 89 85 68 fa ff ff 	mov    %rax,-0x598(%rbp)
   1a544:	48 c7 85 70 fa ff ff 	movq   $0x0,-0x590(%rbp)
   1a54b:	00 00 00 00 
   1a54f:	48 8d 05 2a e2 00 00 	lea    0xe22a(%rip),%rax        # 28780 <g_277>
   1a556:	48 89 85 78 fa ff ff 	mov    %rax,-0x588(%rbp)
   1a55d:	48 c7 85 80 fa ff ff 	movq   $0x0,-0x580(%rbp)
   1a564:	00 00 00 00 
   1a568:	48 8d 05 11 e2 00 00 	lea    0xe211(%rip),%rax        # 28780 <g_277>
   1a56f:	48 89 85 88 fa ff ff 	mov    %rax,-0x578(%rbp)
   1a576:	48 8d 05 03 e2 00 00 	lea    0xe203(%rip),%rax        # 28780 <g_277>
   1a57d:	48 89 85 90 fa ff ff 	mov    %rax,-0x570(%rbp)
   1a584:	48 8d 05 f5 e1 00 00 	lea    0xe1f5(%rip),%rax        # 28780 <g_277>
   1a58b:	48 89 85 98 fa ff ff 	mov    %rax,-0x568(%rbp)
   1a592:	48 c7 85 a0 fa ff ff 	movq   $0x0,-0x560(%rbp)
   1a599:	00 00 00 00 
   1a59d:	48 8d 05 dc e1 00 00 	lea    0xe1dc(%rip),%rax        # 28780 <g_277>
   1a5a4:	48 89 85 a8 fa ff ff 	mov    %rax,-0x558(%rbp)
   1a5ab:	48 c7 85 b0 fa ff ff 	movq   $0x0,-0x550(%rbp)
   1a5b2:	00 00 00 00 
   1a5b6:	48 8d 05 c3 e1 00 00 	lea    0xe1c3(%rip),%rax        # 28780 <g_277>
   1a5bd:	48 89 85 b8 fa ff ff 	mov    %rax,-0x548(%rbp)
   1a5c4:	48 8d 05 b5 e1 00 00 	lea    0xe1b5(%rip),%rax        # 28780 <g_277>
   1a5cb:	48 89 85 c0 fa ff ff 	mov    %rax,-0x540(%rbp)
   1a5d2:	48 8d 05 a7 e1 00 00 	lea    0xe1a7(%rip),%rax        # 28780 <g_277>
   1a5d9:	48 89 85 c8 fa ff ff 	mov    %rax,-0x538(%rbp)
   1a5e0:	48 c7 85 d0 fa ff ff 	movq   $0x0,-0x530(%rbp)
   1a5e7:	00 00 00 00 
   1a5eb:	48 8d 05 8e e1 00 00 	lea    0xe18e(%rip),%rax        # 28780 <g_277>
   1a5f2:	48 89 85 d8 fa ff ff 	mov    %rax,-0x528(%rbp)
   1a5f9:	48 c7 85 e0 fa ff ff 	movq   $0x0,-0x520(%rbp)
   1a600:	00 00 00 00 
   1a604:	48 8d 05 75 e1 00 00 	lea    0xe175(%rip),%rax        # 28780 <g_277>
   1a60b:	48 89 85 e8 fa ff ff 	mov    %rax,-0x518(%rbp)
   1a612:	48 8d 05 67 e1 00 00 	lea    0xe167(%rip),%rax        # 28780 <g_277>
   1a619:	48 89 85 f0 fa ff ff 	mov    %rax,-0x510(%rbp)
   1a620:	48 8d 05 59 e1 00 00 	lea    0xe159(%rip),%rax        # 28780 <g_277>
   1a627:	48 89 85 f8 fa ff ff 	mov    %rax,-0x508(%rbp)
   1a62e:	48 8d 85 40 fa ff ff 	lea    -0x5c0(%rbp),%rax
   1a635:	48 83 c0 50          	add    $0x50,%rax
   1a639:	48 89 85 70 f8 ff ff 	mov    %rax,-0x790(%rbp)
   1a640:	48 8d 85 40 fa ff ff 	lea    -0x5c0(%rbp),%rax
   1a647:	48 83 c0 50          	add    $0x50,%rax
   1a64b:	48 89 85 78 f8 ff ff 	mov    %rax,-0x788(%rbp)
   1a652:	48 8d 85 40 fa ff ff 	lea    -0x5c0(%rbp),%rax
   1a659:	48 83 c0 50          	add    $0x50,%rax
   1a65d:	48 89 85 80 f8 ff ff 	mov    %rax,-0x780(%rbp)
   1a664:	48 8d 85 40 fa ff ff 	lea    -0x5c0(%rbp),%rax
   1a66b:	48 83 c0 50          	add    $0x50,%rax
   1a66f:	48 89 85 88 f8 ff ff 	mov    %rax,-0x778(%rbp)
   1a676:	48 8d 85 40 fa ff ff 	lea    -0x5c0(%rbp),%rax
   1a67d:	48 83 c0 50          	add    $0x50,%rax
   1a681:	48 89 85 90 f8 ff ff 	mov    %rax,-0x770(%rbp)
   1a688:	48 8d 85 40 fa ff ff 	lea    -0x5c0(%rbp),%rax
   1a68f:	48 83 c0 50          	add    $0x50,%rax
   1a693:	48 89 85 98 f8 ff ff 	mov    %rax,-0x768(%rbp)
   1a69a:	48 8d 85 40 fa ff ff 	lea    -0x5c0(%rbp),%rax
   1a6a1:	48 83 c0 50          	add    $0x50,%rax
   1a6a5:	48 89 85 a0 f8 ff ff 	mov    %rax,-0x760(%rbp)
   1a6ac:	48 8d 85 40 fa ff ff 	lea    -0x5c0(%rbp),%rax
   1a6b3:	48 83 c0 50          	add    $0x50,%rax
   1a6b7:	48 89 85 a8 f8 ff ff 	mov    %rax,-0x758(%rbp)
   1a6be:	48 8d 85 40 fa ff ff 	lea    -0x5c0(%rbp),%rax
   1a6c5:	48 83 c0 50          	add    $0x50,%rax
   1a6c9:	48 89 85 b0 f8 ff ff 	mov    %rax,-0x750(%rbp)
   1a6d0:	48 8b 85 88 f8 ff ff 	mov    -0x778(%rbp),%rax
   1a6d7:	48 89 05 e2 bf 00 00 	mov    %rax,0xbfe2(%rip)        # 266c0 <g_320>
   1a6de:	48 8b 05 bb bf 00 00 	mov    0xbfbb(%rip),%rax        # 266a0 <g_94>
   1a6e5:	8b 10                	mov    (%rax),%edx
   1a6e7:	48 8b 05 b2 bf 00 00 	mov    0xbfb2(%rip),%rax        # 266a0 <g_94>
   1a6ee:	83 f2 06             	xor    $0x6,%edx
   1a6f1:	89 10                	mov    %edx,(%rax)
   1a6f3:	0f b7 05 0e 9b 00 00 	movzwl 0x9b0e(%rip),%eax        # 24208 <g_142+0x88>
   1a6fa:	0f be c0             	movsbl %al,%eax
   1a6fd:	be 06 00 00 00       	mov    $0x6,%esi
   1a702:	89 c7                	mov    %eax,%edi
   1a704:	e8 98 eb fe ff       	callq  92a1 <safe_lshift_func_int8_t_s_s>
   1a709:	8b 05 1d 99 00 00    	mov    0x991d(%rip),%eax        # 2402c <g_73+0x4>
   1a70f:	89 c3                	mov    %eax,%ebx
   1a711:	be 01 00 00 00       	mov    $0x1,%esi
   1a716:	bf 01 00 00 00       	mov    $0x1,%edi
   1a71b:	e8 6d f5 fe ff       	callq  9c8d <safe_rshift_func_uint8_t_u_s>
   1a720:	0f b6 c0             	movzbl %al,%eax
   1a723:	66 89 05 58 9b 00 00 	mov    %ax,0x9b58(%rip)        # 24282 <g_335>
   1a72a:	0f b7 05 51 9b 00 00 	movzwl 0x9b51(%rip),%eax        # 24282 <g_335>
   1a731:	48 0f bf c0          	movswq %ax,%rax
   1a735:	48 89 c6             	mov    %rax,%rsi
   1a738:	bf 01 00 00 00       	mov    $0x1,%edi
   1a73d:	e8 66 f1 fe ff       	callq  98a8 <safe_sub_func_int64_t_s_s>
   1a742:	89 de                	mov    %ebx,%esi
   1a744:	bf 01 00 00 00       	mov    $0x1,%edi
   1a749:	e8 70 f6 fe ff       	callq  9dbe <safe_lshift_func_uint16_t_u_s>
   1a74e:	0f be c0             	movsbl %al,%eax
   1a751:	be 05 00 00 00       	mov    $0x5,%esi
   1a756:	89 c7                	mov    %eax,%edi
   1a758:	e8 0f ec fe ff       	callq  936c <safe_rshift_func_int8_t_s_u>
   1a75d:	84 c0                	test   %al,%al
   1a75f:	0f 95 c0             	setne  %al
   1a762:	0f b6 d0             	movzbl %al,%edx
   1a765:	8b 85 9c f7 ff ff    	mov    -0x864(%rbp),%eax
   1a76b:	48 98                	cltq   
   1a76d:	48 89 d6             	mov    %rdx,%rsi
   1a770:	48 89 c7             	mov    %rax,%rdi
   1a773:	e8 c9 f0 fe ff       	callq  9841 <safe_add_func_int64_t_s_s>
   1a778:	8b 85 d8 f3 ff ff    	mov    -0xc28(%rbp),%eax
   1a77e:	89 85 90 f7 ff ff    	mov    %eax,-0x870(%rbp)
   1a784:	80 85 b1 f3 ff ff 01 	addb   $0x1,-0xc4f(%rbp)
   1a78b:	80 bd b1 f3 ff ff 01 	cmpb   $0x1,-0xc4f(%rbp)
   1a792:	0f 86 5e fd ff ff    	jbe    1a4f6 <func_69+0x18a8>
   1a798:	83 bd 28 f4 ff ff 00 	cmpl   $0x0,-0xbd8(%rbp)
   1a79f:	0f 85 e6 01 00 00    	jne    1a98b <func_69+0x1d3d>
   1a7a5:	8b 05 cd 9a 00 00    	mov    0x9acd(%rip),%eax        # 24278 <g_206>
   1a7ab:	0f bf d8             	movswl %ax,%ebx
   1a7ae:	8b 05 78 98 00 00    	mov    0x9878(%rip),%eax        # 2402c <g_73+0x4>
   1a7b4:	41 89 c4             	mov    %eax,%r12d
   1a7b7:	0f b7 85 d4 f3 ff ff 	movzwl -0xc2c(%rbp),%eax
   1a7be:	0f b7 c0             	movzwl %ax,%eax
   1a7c1:	48 be ff 83 e7 b9 25 	movabs $0xfcf9e425b9e783ff,%rsi
   1a7c8:	e4 f9 fc 
   1a7cb:	48 89 c7             	mov    %rax,%rdi
   1a7ce:	e8 e1 f1 fe ff       	callq  99b4 <safe_mod_func_int64_t_s_s>
   1a7d3:	98                   	cwtl   
   1a7d4:	be 0b 00 00 00       	mov    $0xb,%esi
   1a7d9:	89 c7                	mov    %eax,%edi
   1a7db:	e8 b2 ec fe ff       	callq  9492 <safe_lshift_func_int16_t_s_s>
   1a7e0:	8b 05 42 98 00 00    	mov    0x9842(%rip),%eax        # 24028 <g_73>
   1a7e6:	41 89 c5             	mov    %eax,%r13d
   1a7e9:	8b 85 d8 f3 ff ff    	mov    -0xc28(%rbp),%eax
   1a7ef:	41 89 c6             	mov    %eax,%r14d
   1a7f2:	8b 85 d8 f3 ff ff    	mov    -0xc28(%rbp),%eax
   1a7f8:	85 c0                	test   %eax,%eax
   1a7fa:	0f 84 a0 00 00 00    	je     1a8a0 <func_69+0x1c52>
   1a800:	8b 05 92 98 00 00    	mov    0x9892(%rip),%eax        # 24098 <g_75+0x58>
   1a806:	0f b6 d0             	movzbl %al,%edx
   1a809:	48 8b 85 40 f5 ff ff 	mov    -0xac0(%rbp),%rax
   1a810:	48 3b 85 38 f5 ff ff 	cmp    -0xac8(%rbp),%rax
   1a817:	0f 95 c0             	setne  %al
   1a81a:	0f b6 c8             	movzbl %al,%ecx
   1a81d:	0f b7 05 e4 99 00 00 	movzwl 0x99e4(%rip),%eax        # 24208 <g_142+0x88>
   1a824:	98                   	cwtl   
   1a825:	39 c1                	cmp    %eax,%ecx
   1a827:	0f 9e c0             	setle  %al
   1a82a:	0f b6 c0             	movzbl %al,%eax
   1a82d:	89 d6                	mov    %edx,%esi
   1a82f:	89 c7                	mov    %eax,%edi
   1a831:	e8 42 f3 fe ff       	callq  9b78 <safe_sub_func_uint8_t_u_u>
   1a836:	0f b6 c0             	movzbl %al,%eax
   1a839:	be 07 00 00 00       	mov    $0x7,%esi
   1a83e:	89 c7                	mov    %eax,%edi
   1a840:	e8 8e eb fe ff       	callq  93d3 <safe_sub_func_int16_t_s_s>
   1a845:	0f bf d0             	movswl %ax,%edx
   1a848:	0f b7 85 d4 f3 ff ff 	movzwl -0xc2c(%rbp),%eax
   1a84f:	0f b7 c0             	movzwl %ax,%eax
   1a852:	39 c2                	cmp    %eax,%edx
   1a854:	0f 9c c0             	setl   %al
   1a857:	0f b6 c0             	movzbl %al,%eax
   1a85a:	be 03 00 00 00       	mov    $0x3,%esi
   1a85f:	89 c7                	mov    %eax,%edi
   1a861:	e8 06 eb fe ff       	callq  936c <safe_rshift_func_int8_t_s_u>
   1a866:	48 0f be d0          	movsbq %al,%rdx
   1a86a:	48 8b 85 88 f4 ff ff 	mov    -0xb78(%rbp),%rax
   1a871:	8b 00                	mov    (%rax),%eax
   1a873:	89 c1                	mov    %eax,%ecx
   1a875:	48 8b 85 a8 f3 ff ff 	mov    -0xc58(%rbp),%rax
   1a87c:	48 8b 00             	mov    (%rax),%rax
   1a87f:	09 c1                	or     %eax,%ecx
   1a881:	48 8b 85 88 f4 ff ff 	mov    -0xb78(%rbp),%rax
   1a888:	89 08                	mov    %ecx,(%rax)
   1a88a:	8b 00                	mov    (%rax),%eax
   1a88c:	48 98                	cltq   
   1a88e:	48 89 d6             	mov    %rdx,%rsi
   1a891:	48 89 c7             	mov    %rax,%rdi
   1a894:	e8 e7 f7 fe ff       	callq  a080 <safe_mod_func_uint64_t_u_u>
   1a899:	b8 01 00 00 00       	mov    $0x1,%eax
   1a89e:	eb 05                	jmp    1a8a5 <func_69+0x1c57>
   1a8a0:	b8 00 00 00 00       	mov    $0x0,%eax
   1a8a5:	44 89 f6             	mov    %r14d,%esi
   1a8a8:	89 c7                	mov    %eax,%edi
   1a8aa:	e8 76 f6 fe ff       	callq  9f25 <safe_div_func_uint32_t_u_u>
   1a8af:	89 c2                	mov    %eax,%edx
   1a8b1:	0f b7 85 d4 f3 ff ff 	movzwl -0xc2c(%rbp),%eax
   1a8b8:	31 d0                	xor    %edx,%eax
   1a8ba:	0f b6 c0             	movzbl %al,%eax
   1a8bd:	44 89 ee             	mov    %r13d,%esi
   1a8c0:	89 c7                	mov    %eax,%edi
   1a8c2:	e8 c6 f3 fe ff       	callq  9c8d <safe_rshift_func_uint8_t_u_s>
   1a8c7:	0f b6 d0             	movzbl %al,%edx
   1a8ca:	48 c7 85 10 f5 ff ff 	movq   $0x0,-0xaf0(%rbp)
   1a8d1:	00 00 00 00 
   1a8d5:	48 8b 85 88 f4 ff ff 	mov    -0xb78(%rbp),%rax
   1a8dc:	48 85 c0             	test   %rax,%rax
   1a8df:	0f 94 c0             	sete   %al
   1a8e2:	0f b6 c0             	movzbl %al,%eax
   1a8e5:	89 d6                	mov    %edx,%esi
   1a8e7:	89 c7                	mov    %eax,%edi
   1a8e9:	e8 17 f3 fe ff       	callq  9c05 <safe_lshift_func_uint8_t_u_s>
   1a8ee:	3c 06                	cmp    $0x6,%al
   1a8f0:	48 8d 05 b1 bd 00 00 	lea    0xbdb1(%rip),%rax        # 266a8 <g_93>
   1a8f7:	48 8b 00             	mov    (%rax),%rax
   1a8fa:	48 39 85 48 f5 ff ff 	cmp    %rax,-0xab8(%rbp)
   1a901:	0f 94 c0             	sete   %al
   1a904:	0f b6 d0             	movzbl %al,%edx
   1a907:	0f bf 85 b8 f3 ff ff 	movswl -0xc48(%rbp),%eax
   1a90e:	39 c2                	cmp    %eax,%edx
   1a910:	0f 94 c0             	sete   %al
   1a913:	0f b6 c0             	movzbl %al,%eax
   1a916:	be 09 00 00 00       	mov    $0x9,%esi
   1a91b:	89 c7                	mov    %eax,%edi
   1a91d:	e8 d0 e8 fe ff       	callq  91f2 <safe_sub_func_int8_t_s_s>
   1a922:	48 0f be c0          	movsbq %al,%rax
   1a926:	4c 89 e6             	mov    %r12,%rsi
   1a929:	48 89 c7             	mov    %rax,%rdi
   1a92c:	e8 77 ef fe ff       	callq  98a8 <safe_sub_func_int64_t_s_s>
   1a931:	98                   	cwtl   
   1a932:	89 de                	mov    %ebx,%esi
   1a934:	89 c7                	mov    %eax,%edi
   1a936:	e8 78 ea fe ff       	callq  93b3 <safe_add_func_int16_t_s_s>
   1a93b:	0f bf d0             	movswl %ax,%edx
   1a93e:	8b 05 a4 97 00 00    	mov    0x97a4(%rip),%eax        # 240e8 <g_75+0xa8>
   1a944:	39 c2                	cmp    %eax,%edx
   1a946:	0f 95 c0             	setne  %al
   1a949:	0f b6 c0             	movzbl %al,%eax
   1a94c:	31 85 00 f4 ff ff    	xor    %eax,-0xc00(%rbp)
   1a952:	c7 05 fc 97 00 00 00 	movl   $0x0,0x97fc(%rip)        # 24158 <g_78>
   1a959:	00 00 00 
   1a95c:	eb 20                	jmp    1a97e <func_69+0x1d30>
   1a95e:	48 8b 85 48 f5 ff ff 	mov    -0xab8(%rbp),%rax
   1a965:	48 8d 95 d8 f3 ff ff 	lea    -0xc28(%rbp),%rdx
   1a96c:	48 89 10             	mov    %rdx,(%rax)
   1a96f:	8b 05 e3 97 00 00    	mov    0x97e3(%rip),%eax        # 24158 <g_78>
   1a975:	83 c0 01             	add    $0x1,%eax
   1a978:	89 05 da 97 00 00    	mov    %eax,0x97da(%rip)        # 24158 <g_78>
   1a97e:	8b 05 d4 97 00 00    	mov    0x97d4(%rip),%eax        # 24158 <g_78>
   1a984:	83 f8 01             	cmp    $0x1,%eax
   1a987:	7e d5                	jle    1a95e <func_69+0x1d10>
   1a989:	eb 01                	jmp    1a98c <func_69+0x1d3e>
   1a98b:	90                   	nop
   1a98c:	83 ad dc f3 ff ff 01 	subl   $0x1,-0xc24(%rbp)
   1a993:	83 bd dc f3 ff ff 00 	cmpl   $0x0,-0xc24(%rbp)
   1a99a:	0f 89 24 fb ff ff    	jns    1a4c4 <func_69+0x1876>
   1a9a0:	0f b7 85 d4 f3 ff ff 	movzwl -0xc2c(%rbp),%eax
   1a9a7:	0f b7 c0             	movzwl %ax,%eax
   1a9aa:	48 8b 95 c0 f4 ff ff 	mov    -0xb40(%rbp),%rdx
   1a9b1:	48 8b 12             	mov    (%rdx),%rdx
   1a9b4:	8b 12                	mov    (%rdx),%edx
   1a9b6:	89 c6                	mov    %eax,%esi
   1a9b8:	89 d7                	mov    %edx,%edi
   1a9ba:	e8 f9 f4 fe ff       	callq  9eb8 <safe_add_func_uint32_t_u_u>
   1a9bf:	8b 95 d8 f3 ff ff    	mov    -0xc28(%rbp),%edx
   1a9c5:	09 d0                	or     %edx,%eax
   1a9c7:	89 85 d8 f3 ff ff    	mov    %eax,-0xc28(%rbp)
   1a9cd:	0f b7 85 d4 f3 ff ff 	movzwl -0xc2c(%rbp),%eax
   1a9d4:	0f b6 d8             	movzbl %al,%ebx
   1a9d7:	48 8b 85 68 f4 ff ff 	mov    -0xb98(%rbp),%rax
   1a9de:	8b 00                	mov    (%rax),%eax
   1a9e0:	85 c0                	test   %eax,%eax
   1a9e2:	0f 85 27 01 00 00    	jne    1ab0f <func_69+0x1ec1>
   1a9e8:	48 8b 85 c0 f4 ff ff 	mov    -0xb40(%rbp),%rax
   1a9ef:	48 8b 00             	mov    (%rax),%rax
   1a9f2:	8b 00                	mov    (%rax),%eax
   1a9f4:	85 c0                	test   %eax,%eax
   1a9f6:	0f 85 b1 00 00 00    	jne    1aaad <func_69+0x1e5f>
   1a9fc:	48 8b 85 c0 f4 ff ff 	mov    -0xb40(%rbp),%rax
   1aa03:	48 8b 00             	mov    (%rax),%rax
   1aa06:	44 8b 20             	mov    (%rax),%r12d
   1aa09:	8b 85 d8 f3 ff ff    	mov    -0xc28(%rbp),%eax
   1aa0f:	4c 63 e8             	movslq %eax,%r13
   1aa12:	8b 85 d8 f3 ff ff    	mov    -0xc28(%rbp),%eax
   1aa18:	89 c6                	mov    %eax,%esi
   1aa1a:	bf ff ff ff ff       	mov    $0xffffffff,%edi
   1aa1f:	e8 e1 eb fe ff       	callq  9605 <safe_sub_func_int32_t_s_s>
   1aa24:	48 8b 85 30 f5 ff ff 	mov    -0xad0(%rbp),%rax
   1aa2b:	66 c7 00 f3 d3       	movw   $0xd3f3,(%rax)
   1aa30:	48 8b 85 30 f5 ff ff 	mov    -0xad0(%rbp),%rax
   1aa37:	0f b7 00             	movzwl (%rax),%eax
   1aa3a:	0f b7 d0             	movzwl %ax,%edx
   1aa3d:	48 8b 85 c0 f4 ff ff 	mov    -0xb40(%rbp),%rax
   1aa44:	48 8b 00             	mov    (%rax),%rax
   1aa47:	8b 00                	mov    (%rax),%eax
   1aa49:	09 d0                	or     %edx,%eax
   1aa4b:	48 98                	cltq   
   1aa4d:	4c 89 ee             	mov    %r13,%rsi
   1aa50:	48 89 c7             	mov    %rax,%rdi
   1aa53:	e8 f3 f5 fe ff       	callq  a04b <safe_sub_func_uint64_t_u_u>
   1aa58:	0f be c0             	movsbl %al,%eax
   1aa5b:	44 89 e6             	mov    %r12d,%esi
   1aa5e:	89 c7                	mov    %eax,%edi
   1aa60:	e8 d0 e8 fe ff       	callq  9335 <safe_rshift_func_int8_t_s_s>
   1aa65:	8b 85 20 f4 ff ff    	mov    -0xbe0(%rbp),%eax
   1aa6b:	0f b6 c0             	movzbl %al,%eax
   1aa6e:	be 06 00 00 00       	mov    $0x6,%esi
   1aa73:	89 c7                	mov    %eax,%edi
   1aa75:	e8 8b f1 fe ff       	callq  9c05 <safe_lshift_func_uint8_t_u_s>
   1aa7a:	0f be c0             	movsbl %al,%eax
   1aa7d:	be 02 00 00 00       	mov    $0x2,%esi
   1aa82:	89 c7                	mov    %eax,%edi
   1aa84:	e8 a8 e7 fe ff       	callq  9231 <safe_mod_func_int8_t_s_s>
   1aa89:	48 8b 85 c0 f4 ff ff 	mov    -0xb40(%rbp),%rax
   1aa90:	48 8b 00             	mov    (%rax),%rax
   1aa93:	8b 00                	mov    (%rax),%eax
   1aa95:	89 c2                	mov    %eax,%edx
   1aa97:	48 8b 85 b8 f4 ff ff 	mov    -0xb48(%rbp),%rax
   1aa9e:	89 10                	mov    %edx,(%rax)
   1aaa0:	48 8b 85 b8 f4 ff ff 	mov    -0xb48(%rbp),%rax
   1aaa7:	8b 00                	mov    (%rax),%eax
   1aaa9:	85 c0                	test   %eax,%eax
   1aaab:	74 07                	je     1aab4 <func_69+0x1e66>
   1aaad:	b8 01 00 00 00       	mov    $0x1,%eax
   1aab2:	eb 05                	jmp    1aab9 <func_69+0x1e6b>
   1aab4:	b8 00 00 00 00       	mov    $0x0,%eax
   1aab9:	98                   	cwtl   
   1aaba:	be 07 00 00 00       	mov    $0x7,%esi
   1aabf:	89 c7                	mov    %eax,%edi
   1aac1:	e8 50 e9 fe ff       	callq  9416 <safe_mod_func_int16_t_s_s>
   1aac6:	48 83 bd 18 f5 ff ff 	cmpq   $0x0,-0xae8(%rbp)
   1aacd:	00 
   1aace:	74 11                	je     1aae1 <func_69+0x1e93>
   1aad0:	8b 85 d8 f3 ff ff    	mov    -0xc28(%rbp),%eax
   1aad6:	85 c0                	test   %eax,%eax
   1aad8:	74 07                	je     1aae1 <func_69+0x1e93>
   1aada:	b8 01 00 00 00       	mov    $0x1,%eax
   1aadf:	eb 05                	jmp    1aae6 <func_69+0x1e98>
   1aae1:	b8 00 00 00 00       	mov    $0x0,%eax
   1aae6:	83 f8 01             	cmp    $0x1,%eax
   1aae9:	74 14                	je     1aaff <func_69+0x1eb1>
   1aaeb:	48 8b 85 88 f4 ff ff 	mov    -0xb78(%rbp),%rax
   1aaf2:	8b 00                	mov    (%rax),%eax
   1aaf4:	85 c0                	test   %eax,%eax
   1aaf6:	74 07                	je     1aaff <func_69+0x1eb1>
   1aaf8:	ba 01 00 00 00       	mov    $0x1,%edx
   1aafd:	eb 05                	jmp    1ab04 <func_69+0x1eb6>
   1aaff:	ba 00 00 00 00       	mov    $0x0,%edx
   1ab04:	48 8b 85 68 f4 ff ff 	mov    -0xb98(%rbp),%rax
   1ab0b:	8b 00                	mov    (%rax),%eax
   1ab0d:	39 c2                	cmp    %eax,%edx
   1ab0f:	c7 05 8b 97 00 00 bc 	movl   $0xbc,0x978b(%rip)        # 242a4 <g_389+0x4>
   1ab16:	00 00 00 
   1ab19:	8b 05 85 97 00 00    	mov    0x9785(%rip),%eax        # 242a4 <g_389+0x4>
   1ab1f:	0f b6 c0             	movzbl %al,%eax
   1ab22:	89 de                	mov    %ebx,%esi
   1ab24:	89 c7                	mov    %eax,%edi
   1ab26:	e8 b0 f0 fe ff       	callq  9bdb <safe_div_func_uint8_t_u_u>
   1ab2b:	0f b6 c0             	movzbl %al,%eax
   1ab2e:	48 89 c7             	mov    %rax,%rdi
   1ab31:	e8 e3 f4 fe ff       	callq  a019 <safe_unary_minus_func_uint64_t_u>
   1ab36:	48 85 c0             	test   %rax,%rax
   1ab39:	75 0a                	jne    1ab45 <func_69+0x1ef7>
   1ab3b:	0f b7 85 d4 f3 ff ff 	movzwl -0xc2c(%rbp),%eax
   1ab42:	66 85 c0             	test   %ax,%ax
   1ab45:	b8 00 00 00 00       	mov    $0x0,%eax
   1ab4a:	21 85 24 f4 ff ff    	and    %eax,-0xbdc(%rbp)
   1ab50:	48 8b 85 c0 f4 ff ff 	mov    -0xb40(%rbp),%rax
   1ab57:	48 c7 00 00 00 00 00 	movq   $0x0,(%rax)
   1ab5e:	c7 85 e4 f3 ff ff 00 	movl   $0x0,-0xc1c(%rbp)
   1ab65:	00 00 00 
   1ab68:	e9 93 15 00 00       	jmpq   1c100 <func_69+0x34b2>
   1ab6d:	48 c7 85 88 f4 ff ff 	movq   $0x0,-0xb78(%rbp)
   1ab74:	00 00 00 00 
   1ab78:	48 8d 85 88 f4 ff ff 	lea    -0xb78(%rbp),%rax
   1ab7f:	48 89 85 e8 f5 ff ff 	mov    %rax,-0xa18(%rbp)
   1ab86:	c7 85 80 f7 ff ff 07 	movl   $0x7,-0x880(%rbp)
   1ab8d:	00 00 00 
   1ab90:	c7 85 84 f7 ff ff 00 	movl   $0x0,-0x87c(%rbp)
   1ab97:	00 00 00 
   1ab9a:	c7 85 88 f7 ff ff 4f 	movl   $0x442a454f,-0x878(%rbp)
   1aba1:	45 2a 44 
   1aba4:	c7 85 8c f7 ff ff ff 	movl   $0xffffffff,-0x874(%rbp)
   1abab:	ff ff ff 
   1abae:	c7 85 90 f7 ff ff 77 	movl   $0x2285c877,-0x870(%rbp)
   1abb5:	c8 85 22 
   1abb8:	c7 85 94 f7 ff ff ff 	movl   $0xffffffff,-0x86c(%rbp)
   1abbf:	ff ff ff 
   1abc2:	c7 85 98 f7 ff ff 07 	movl   $0x7,-0x868(%rbp)
   1abc9:	00 00 00 
   1abcc:	c7 85 9c f7 ff ff 07 	movl   $0x7,-0x864(%rbp)
   1abd3:	00 00 00 
   1abd6:	c7 85 a0 f7 ff ff ff 	movl   $0xffffffff,-0x860(%rbp)
   1abdd:	ff ff ff 
   1abe0:	c7 85 a4 f7 ff ff 77 	movl   $0x2285c877,-0x85c(%rbp)
   1abe7:	c8 85 22 
   1abea:	c7 85 a8 f7 ff ff ff 	movl   $0xffffffff,-0x858(%rbp)
   1abf1:	ff ff ff 
   1abf4:	c7 85 ac f7 ff ff 4f 	movl   $0x442a454f,-0x854(%rbp)
   1abfb:	45 2a 44 
   1abfe:	c7 85 b0 f7 ff ff 00 	movl   $0x0,-0x850(%rbp)
   1ac05:	00 00 00 
   1ac08:	c7 85 b4 f7 ff ff 07 	movl   $0x7,-0x84c(%rbp)
   1ac0f:	00 00 00 
   1ac12:	c7 85 b8 f7 ff ff 00 	movl   $0x0,-0x848(%rbp)
   1ac19:	00 00 00 
   1ac1c:	48 c7 85 f0 f5 ff ff 	movq   $0x1,-0xa10(%rbp)
   1ac23:	01 00 00 00 
   1ac27:	48 c7 85 90 f4 ff ff 	movq   $0x0,-0xb70(%rbp)
   1ac2e:	00 00 00 00 
   1ac32:	c7 85 48 f4 ff ff 02 	movl   $0x2,-0xbb8(%rbp)
   1ac39:	00 00 00 
   1ac3c:	48 8d 05 1d 95 00 00 	lea    0x951d(%rip),%rax        # 24160 <g_104>
   1ac43:	48 89 85 f8 f5 ff ff 	mov    %rax,-0xa08(%rbp)
   1ac4a:	48 8d 05 37 db 00 00 	lea    0xdb37(%rip),%rax        # 28788 <g_321>
   1ac51:	48 89 85 98 f4 ff ff 	mov    %rax,-0xb68(%rbp)
   1ac58:	48 8d 05 41 db 00 00 	lea    0xdb41(%rip),%rax        # 287a0 <g_490>
   1ac5f:	48 89 85 00 f6 ff ff 	mov    %rax,-0xa00(%rbp)
   1ac66:	48 b8 ac 0b 63 fb ba 	movabs $0x8a0f4ebafb630bac,%rax
   1ac6d:	4e 0f 8a 
   1ac70:	48 89 85 08 f6 ff ff 	mov    %rax,-0x9f8(%rbp)
   1ac77:	48 8b 85 c0 f4 ff ff 	mov    -0xb40(%rbp),%rax
   1ac7e:	48 8b 10             	mov    (%rax),%rdx
   1ac81:	48 8b 85 c0 f4 ff ff 	mov    -0xb40(%rbp),%rax
   1ac88:	48 89 10             	mov    %rdx,(%rax)
   1ac8b:	48 8b 95 88 f4 ff ff 	mov    -0xb78(%rbp),%rdx
   1ac92:	48 8b 85 e8 f5 ff ff 	mov    -0xa18(%rbp),%rax
   1ac99:	48 89 10             	mov    %rdx,(%rax)
   1ac9c:	48 8b 85 e8 f5 ff ff 	mov    -0xa18(%rbp),%rax
   1aca3:	48 8b 10             	mov    (%rax),%rdx
   1aca6:	48 8d 85 70 f4 ff ff 	lea    -0xb90(%rbp),%rax
   1acad:	48 39 c2             	cmp    %rax,%rdx
   1acb0:	0f 85 5c 02 00 00    	jne    1af12 <func_69+0x22c4>
   1acb6:	c7 85 64 f4 ff ff ff 	movl   $0xffffffff,-0xb9c(%rbp)
   1acbd:	ff ff ff 
   1acc0:	48 8d 45 c2          	lea    -0x3e(%rbp),%rax
   1acc4:	48 83 c0 02          	add    $0x2,%rax
   1acc8:	48 89 85 18 f7 ff ff 	mov    %rax,-0x8e8(%rbp)
   1accf:	48 8d 05 82 94 00 00 	lea    0x9482(%rip),%rax        # 24158 <g_78>
   1acd6:	48 89 85 20 f7 ff ff 	mov    %rax,-0x8e0(%rbp)
   1acdd:	c7 05 99 da 00 00 05 	movl   $0x5,0xda99(%rip)        # 28780 <g_277>
   1ace4:	00 00 00 
   1ace7:	eb 2e                	jmp    1ad17 <func_69+0x20c9>
   1ace9:	48 8d 05 f0 93 00 00 	lea    0x93f0(%rip),%rax        # 240e0 <g_75+0xa0>
   1acf0:	48 89 85 28 f7 ff ff 	mov    %rax,-0x8d8(%rbp)
   1acf7:	48 8b 85 c0 f4 ff ff 	mov    -0xb40(%rbp),%rax
   1acfe:	48 8b 95 28 f7 ff ff 	mov    -0x8d8(%rbp),%rdx
   1ad05:	48 89 10             	mov    %rdx,(%rax)
   1ad08:	8b 05 72 da 00 00    	mov    0xda72(%rip),%eax        # 28780 <g_277>
   1ad0e:	83 e8 01             	sub    $0x1,%eax
   1ad11:	89 05 69 da 00 00    	mov    %eax,0xda69(%rip)        # 28780 <g_277>
   1ad17:	8b 05 63 da 00 00    	mov    0xda63(%rip),%eax        # 28780 <g_277>
   1ad1d:	85 c0                	test   %eax,%eax
   1ad1f:	79 c8                	jns    1ace9 <func_69+0x209b>
   1ad21:	48 8b 05 a0 b9 00 00 	mov    0xb9a0(%rip),%rax        # 266c8 <g_398>
   1ad28:	48 8b 95 e0 f4 ff ff 	mov    -0xb20(%rbp),%rdx
   1ad2f:	48 89 10             	mov    %rdx,(%rax)
   1ad32:	8b 9d 90 f7 ff ff    	mov    -0x870(%rbp),%ebx
   1ad38:	4c 8b a5 f0 f5 ff ff 	mov    -0xa10(%rbp),%r12
   1ad3f:	8b 85 a0 f7 ff ff    	mov    -0x860(%rbp),%eax
   1ad45:	41 89 c7             	mov    %eax,%r15d
   1ad48:	8b 85 90 f7 ff ff    	mov    -0x870(%rbp),%eax
   1ad4e:	4c 63 f0             	movslq %eax,%r14
   1ad51:	0f b7 05 2a 95 00 00 	movzwl 0x952a(%rip),%eax        # 24282 <g_335>
   1ad58:	44 0f bf e8          	movswl %ax,%r13d
   1ad5c:	8b 85 9c f7 ff ff    	mov    -0x864(%rbp),%eax
   1ad62:	0f b6 d0             	movzbl %al,%edx
   1ad65:	8b 85 80 f7 ff ff    	mov    -0x880(%rbp),%eax
   1ad6b:	39 85 64 f4 ff ff    	cmp    %eax,-0xb9c(%rbp)
   1ad71:	0f 93 c0             	setae  %al
   1ad74:	0f b6 c0             	movzbl %al,%eax
   1ad77:	39 85 64 f4 ff ff    	cmp    %eax,-0xb9c(%rbp)
   1ad7d:	73 11                	jae    1ad90 <func_69+0x2142>
   1ad7f:	8b 05 a7 92 00 00    	mov    0x92a7(%rip),%eax        # 2402c <g_73+0x4>
   1ad85:	85 c0                	test   %eax,%eax
   1ad87:	74 07                	je     1ad90 <func_69+0x2142>
   1ad89:	b8 01 00 00 00       	mov    $0x1,%eax
   1ad8e:	eb 05                	jmp    1ad95 <func_69+0x2147>
   1ad90:	b8 00 00 00 00       	mov    $0x0,%eax
   1ad95:	0f b6 c0             	movzbl %al,%eax
   1ad98:	89 d6                	mov    %edx,%esi
   1ad9a:	89 c7                	mov    %eax,%edi
   1ad9c:	e8 3a ee fe ff       	callq  9bdb <safe_div_func_uint8_t_u_u>
   1ada1:	0f b6 c0             	movzbl %al,%eax
   1ada4:	44 89 ee             	mov    %r13d,%esi
   1ada7:	89 c7                	mov    %eax,%edi
   1ada9:	e8 47 e6 fe ff       	callq  93f5 <safe_mul_func_int16_t_s_s>
   1adae:	0f bf d0             	movswl %ax,%edx
   1adb1:	8b 85 80 f7 ff ff    	mov    -0x880(%rbp),%eax
   1adb7:	39 c2                	cmp    %eax,%edx
   1adb9:	7c 09                	jl     1adc4 <func_69+0x2176>
   1adbb:	48 c7 c0 f6 ff ff ff 	mov    $0xfffffffffffffff6,%rax
   1adc2:	eb 07                	jmp    1adcb <func_69+0x217d>
   1adc4:	48 c7 c0 f7 ff ff ff 	mov    $0xfffffffffffffff7,%rax
   1adcb:	4c 09 f0             	or     %r14,%rax
   1adce:	48 83 f8 05          	cmp    $0x5,%rax
   1add2:	0f 96 c0             	setbe  %al
   1add5:	0f b6 c0             	movzbl %al,%eax
   1add8:	44 89 fe             	mov    %r15d,%esi
   1addb:	89 c7                	mov    %eax,%edi
   1addd:	e8 dc ee fe ff       	callq  9cbe <safe_rshift_func_uint8_t_u_u>
   1ade2:	84 c0                	test   %al,%al
   1ade4:	74 07                	je     1aded <func_69+0x219f>
   1ade6:	83 bd 64 f4 ff ff 00 	cmpl   $0x0,-0xb9c(%rbp)
   1aded:	81 bd 64 f4 ff ff 40 	cmpl   $0x6cb67e40,-0xb9c(%rbp)
   1adf4:	7e b6 6c 
   1adf7:	74 08                	je     1ae01 <func_69+0x21b3>
   1adf9:	8b 85 90 f7 ff ff    	mov    -0x870(%rbp),%eax
   1adff:	85 c0                	test   %eax,%eax
   1ae01:	8b 85 8c f7 ff ff    	mov    -0x874(%rbp),%eax
   1ae07:	89 c2                	mov    %eax,%edx
   1ae09:	48 8b 85 18 f7 ff ff 	mov    -0x8e8(%rbp),%rax
   1ae10:	88 10                	mov    %dl,(%rax)
   1ae12:	8b 05 40 93 00 00    	mov    0x9340(%rip),%eax        # 24158 <g_78>
   1ae18:	85 c0                	test   %eax,%eax
   1ae1a:	74 07                	je     1ae23 <func_69+0x21d5>
   1ae1c:	b8 01 00 00 00       	mov    $0x1,%eax
   1ae21:	eb 05                	jmp    1ae28 <func_69+0x21da>
   1ae23:	b8 00 00 00 00       	mov    $0x0,%eax
   1ae28:	48 98                	cltq   
   1ae2a:	4c 89 e6             	mov    %r12,%rsi
   1ae2d:	48 89 c7             	mov    %rax,%rdi
   1ae30:	e8 7f eb fe ff       	callq  99b4 <safe_mod_func_int64_t_s_s>
   1ae35:	89 de                	mov    %ebx,%esi
   1ae37:	89 c7                	mov    %eax,%edi
   1ae39:	e8 8e e8 fe ff       	callq  96cc <safe_mod_func_int32_t_s_s>
   1ae3e:	85 c0                	test   %eax,%eax
   1ae40:	0f 9e c0             	setle  %al
   1ae43:	0f b6 d0             	movzbl %al,%edx
   1ae46:	8b 85 90 f7 ff ff    	mov    -0x870(%rbp),%eax
   1ae4c:	3d 09 dc 5b 0b       	cmp    $0xb5bdc09,%eax
   1ae51:	7f 09                	jg     1ae5c <func_69+0x220e>
   1ae53:	83 bd 64 f4 ff ff 00 	cmpl   $0x0,-0xb9c(%rbp)
   1ae5a:	74 07                	je     1ae63 <func_69+0x2215>
   1ae5c:	b8 01 00 00 00       	mov    $0x1,%eax
   1ae61:	eb 05                	jmp    1ae68 <func_69+0x221a>
   1ae63:	b8 00 00 00 00       	mov    $0x0,%eax
   1ae68:	0f be c0             	movsbl %al,%eax
   1ae6b:	89 d6                	mov    %edx,%esi
   1ae6d:	89 c7                	mov    %eax,%edi
   1ae6f:	e8 60 e3 fe ff       	callq  91d4 <safe_add_func_int8_t_s_s>
   1ae74:	0f be c0             	movsbl %al,%eax
   1ae77:	39 85 64 f4 ff ff    	cmp    %eax,-0xb9c(%rbp)
   1ae7d:	0f 96 c0             	setbe  %al
   1ae80:	0f b6 c0             	movzbl %al,%eax
   1ae83:	8b 95 64 f4 ff ff    	mov    -0xb9c(%rbp),%edx
   1ae89:	89 d6                	mov    %edx,%esi
   1ae8b:	89 c7                	mov    %eax,%edi
   1ae8d:	e8 3e f0 fe ff       	callq  9ed0 <safe_sub_func_uint32_t_u_u>
   1ae92:	0f b6 c0             	movzbl %al,%eax
   1ae95:	be 4a 00 00 00       	mov    $0x4a,%esi
   1ae9a:	89 c7                	mov    %eax,%edi
   1ae9c:	e8 f2 ec fe ff       	callq  9b93 <safe_mul_func_uint8_t_u_u>
   1aea1:	0f b6 d8             	movzbl %al,%ebx
   1aea4:	8b 85 ac f7 ff ff    	mov    -0x854(%rbp),%eax
   1aeaa:	0f b7 c0             	movzwl %ax,%eax
   1aead:	be 07 00 00 00       	mov    $0x7,%esi
   1aeb2:	89 c7                	mov    %eax,%edi
   1aeb4:	e8 8f ef fe ff       	callq  9e48 <safe_rshift_func_uint16_t_u_s>
   1aeb9:	0f b7 c0             	movzwl %ax,%eax
   1aebc:	8b 95 90 f7 ff ff    	mov    -0x870(%rbp),%edx
   1aec2:	48 63 ca             	movslq %edx,%rcx
   1aec5:	48 8b 15 fc 93 00 00 	mov    0x93fc(%rip),%rdx        # 242c8 <g_405>
   1aecc:	48 21 ca             	and    %rcx,%rdx
   1aecf:	48 89 15 f2 93 00 00 	mov    %rdx,0x93f2(%rip)        # 242c8 <g_405>
   1aed6:	48 8b 15 eb 93 00 00 	mov    0x93eb(%rip),%rdx        # 242c8 <g_405>
   1aedd:	48 89 c6             	mov    %rax,%rsi
   1aee0:	48 89 d7             	mov    %rdx,%rdi
   1aee3:	e8 c0 e9 fe ff       	callq  98a8 <safe_sub_func_int64_t_s_s>
   1aee8:	0f b7 c0             	movzwl %ax,%eax
   1aeeb:	89 de                	mov    %ebx,%esi
   1aeed:	89 c7                	mov    %eax,%edi
   1aeef:	e8 49 ee fe ff       	callq  9d3d <safe_mul_func_uint16_t_u_u>
   1aef4:	48 c7 85 20 f7 ff ff 	movq   $0x0,-0x8e0(%rbp)
   1aefb:	00 00 00 00 
   1aeff:	48 8b 85 20 f7 ff ff 	mov    -0x8e0(%rbp),%rax
   1af06:	48 89 85 90 f4 ff ff 	mov    %rax,-0xb70(%rbp)
   1af0d:	e9 d0 11 00 00       	jmpq   1c0e2 <func_69+0x3494>
   1af12:	48 8d 85 90 f4 ff ff 	lea    -0xb70(%rbp),%rax
   1af19:	48 89 85 10 f6 ff ff 	mov    %rax,-0x9f0(%rbp)
   1af20:	48 8d 85 78 f4 ff ff 	lea    -0xb88(%rbp),%rax
   1af27:	48 89 85 18 f6 ff ff 	mov    %rax,-0x9e8(%rbp)
   1af2e:	c7 85 d4 f3 ff ff fe 	movl   $0xfffffffe,-0xc2c(%rbp)
   1af35:	ff ff ff 
   1af38:	c7 85 4c f4 ff ff 05 	movl   $0x5,-0xbb4(%rbp)
   1af3f:	00 00 00 
   1af42:	48 8d 85 40 fa ff ff 	lea    -0x5c0(%rbp),%rax
   1af49:	48 8d 15 50 b5 00 00 	lea    0xb550(%rip),%rdx        # 264a0 <g_4540+0x1640>
   1af50:	b9 3f 00 00 00       	mov    $0x3f,%ecx
   1af55:	48 89 c7             	mov    %rax,%rdi
   1af58:	48 89 d6             	mov    %rdx,%rsi
   1af5b:	f3 48 a5             	rep movsq %ds:(%rsi),%es:(%rdi)
   1af5e:	48 8d 85 88 f4 ff ff 	lea    -0xb78(%rbp),%rax
   1af65:	48 89 85 20 f6 ff ff 	mov    %rax,-0x9e0(%rbp)
   1af6c:	48 8d 05 31 93 00 00 	lea    0x9331(%rip),%rax        # 242a4 <g_389+0x4>
   1af73:	48 89 85 28 f6 ff ff 	mov    %rax,-0x9d8(%rbp)
   1af7a:	c7 85 d8 f3 ff ff 77 	movl   $0xc97f7b77,-0xc28(%rbp)
   1af81:	7b 7f c9 
   1af84:	c7 85 50 f4 ff ff 44 	movl   $0xa99fff44,-0xbb0(%rbp)
   1af8b:	ff 9f a9 
   1af8e:	48 8b 85 c0 f4 ff ff 	mov    -0xb40(%rbp),%rax
   1af95:	48 8d 95 80 f7 ff ff 	lea    -0x880(%rbp),%rdx
   1af9c:	48 83 c2 30          	add    $0x30,%rdx
   1afa0:	48 89 10             	mov    %rdx,(%rax)
   1afa3:	8b 05 b3 91 00 00    	mov    0x91b3(%rip),%eax        # 2415c <g_80>
   1afa9:	0f bf d8             	movswl %ax,%ebx
   1afac:	44 8b a5 4c f4 ff ff 	mov    -0xbb4(%rbp),%r12d
   1afb3:	8b 05 ab 91 00 00    	mov    0x91ab(%rip),%eax        # 24164 <g_109>
   1afb9:	44 0f b6 e8          	movzbl %al,%r13d
   1afbd:	8b 05 65 90 00 00    	mov    0x9065(%rip),%eax        # 24028 <g_73>
   1afc3:	0f bf d0             	movswl %ax,%edx
   1afc6:	48 8b 05 eb b6 00 00 	mov    0xb6eb(%rip),%rax        # 266b8 <g_191>
   1afcd:	48 8b 00             	mov    (%rax),%rax
   1afd0:	48 85 c0             	test   %rax,%rax
   1afd3:	0f 95 c0             	setne  %al
   1afd6:	0f b6 c8             	movzbl %al,%ecx
   1afd9:	48 8b 85 a8 f3 ff ff 	mov    -0xc58(%rbp),%rax
   1afe0:	48 8b 00             	mov    (%rax),%rax
   1afe3:	48 39 c1             	cmp    %rax,%rcx
   1afe6:	0f 95 c0             	setne  %al
   1afe9:	0f b6 c0             	movzbl %al,%eax
   1afec:	89 d6                	mov    %edx,%esi
   1afee:	89 c7                	mov    %eax,%edi
   1aff0:	e8 21 e4 fe ff       	callq  9416 <safe_mod_func_int16_t_s_s>
   1aff5:	44 0f bf f0          	movswl %ax,%r14d
   1aff9:	8b 05 65 91 00 00    	mov    0x9165(%rip),%eax        # 24164 <g_109>
   1afff:	0f b6 c0             	movzbl %al,%eax
   1b002:	89 c6                	mov    %eax,%esi
   1b004:	bf a1 00 00 00       	mov    $0xa1,%edi
   1b009:	e8 6a eb fe ff       	callq  9b78 <safe_sub_func_uint8_t_u_u>
   1b00e:	0f b6 d0             	movzbl %al,%edx
   1b011:	8b 05 65 92 00 00    	mov    0x9265(%rip),%eax        # 2427c <g_274>
   1b017:	39 c2                	cmp    %eax,%edx
   1b019:	0f 9e c0             	setle  %al
   1b01c:	0f b6 d0             	movzbl %al,%edx
   1b01f:	48 8b 85 18 f6 ff ff 	mov    -0x9e8(%rbp),%rax
   1b026:	48 89 10             	mov    %rdx,(%rax)
   1b029:	be 04 00 00 00       	mov    $0x4,%esi
   1b02e:	bf 03 00 00 00       	mov    $0x3,%edi
   1b033:	e8 86 ec fe ff       	callq  9cbe <safe_rshift_func_uint8_t_u_u>
   1b038:	0f b6 c0             	movzbl %al,%eax
   1b03b:	44 09 f0             	or     %r14d,%eax
   1b03e:	be 1f 51 1e 3c       	mov    $0x3c1e511f,%esi
   1b043:	89 c7                	mov    %eax,%edi
   1b045:	e8 6e ee fe ff       	callq  9eb8 <safe_add_func_uint32_t_u_u>
   1b04a:	48 8d 15 57 b6 00 00 	lea    0xb657(%rip),%rdx        # 266a8 <g_93>
   1b051:	48 8b 12             	mov    (%rdx),%rdx
   1b054:	48 39 95 10 f6 ff ff 	cmp    %rdx,-0x9f0(%rbp)
   1b05b:	74 25                	je     1b082 <func_69+0x2434>
   1b05d:	8b 95 90 f7 ff ff    	mov    -0x870(%rbp),%edx
   1b063:	81 e2 b6 93 9e 35    	and    $0x359e93b6,%edx
   1b069:	89 95 90 f7 ff ff    	mov    %edx,-0x870(%rbp)
   1b06f:	8b 95 90 f7 ff ff    	mov    -0x870(%rbp),%edx
   1b075:	89 95 48 f4 ff ff    	mov    %edx,-0xbb8(%rbp)
   1b07b:	83 bd 48 f4 ff ff 00 	cmpl   $0x0,-0xbb8(%rbp)
   1b082:	8b 95 d4 f3 ff ff    	mov    -0xc2c(%rbp),%edx
   1b088:	31 d0                	xor    %edx,%eax
   1b08a:	89 85 d4 f3 ff ff    	mov    %eax,-0xc2c(%rbp)
   1b090:	8b 85 9c f7 ff ff    	mov    -0x864(%rbp),%eax
   1b096:	98                   	cwtl   
   1b097:	be bc a5 ff ff       	mov    $0xffffa5bc,%esi
   1b09c:	89 c7                	mov    %eax,%edi
   1b09e:	e8 73 e3 fe ff       	callq  9416 <safe_mod_func_int16_t_s_s>
   1b0a3:	66 85 c0             	test   %ax,%ax
   1b0a6:	74 11                	je     1b0b9 <func_69+0x246b>
   1b0a8:	8b 05 ea 8f 00 00    	mov    0x8fea(%rip),%eax        # 24098 <g_75+0x58>
   1b0ae:	85 c0                	test   %eax,%eax
   1b0b0:	74 07                	je     1b0b9 <func_69+0x246b>
   1b0b2:	b8 01 00 00 00       	mov    $0x1,%eax
   1b0b7:	eb 05                	jmp    1b0be <func_69+0x2470>
   1b0b9:	b8 00 00 00 00       	mov    $0x0,%eax
   1b0be:	89 c2                	mov    %eax,%edx
   1b0c0:	8b 05 b2 91 00 00    	mov    0x91b2(%rip),%eax        # 24278 <g_206>
   1b0c6:	31 d0                	xor    %edx,%eax
   1b0c8:	0f b6 c0             	movzbl %al,%eax
   1b0cb:	44 89 ee             	mov    %r13d,%esi
   1b0ce:	89 c7                	mov    %eax,%edi
   1b0d0:	e8 d9 ea fe ff       	callq  9bae <safe_mod_func_uint8_t_u_u>
   1b0d5:	0f b6 c0             	movzbl %al,%eax
   1b0d8:	44 89 e6             	mov    %r12d,%esi
   1b0db:	89 c7                	mov    %eax,%edi
   1b0dd:	e8 d6 ed fe ff       	callq  9eb8 <safe_add_func_uint32_t_u_u>
   1b0e2:	98                   	cwtl   
   1b0e3:	89 de                	mov    %ebx,%esi
   1b0e5:	89 c7                	mov    %eax,%edi
   1b0e7:	e8 c7 e2 fe ff       	callq  93b3 <safe_add_func_int16_t_s_s>
   1b0ec:	0f b7 05 b7 90 00 00 	movzwl 0x90b7(%rip),%eax        # 241aa <g_142+0x2a>
   1b0f3:	66 89 05 48 91 00 00 	mov    %ax,0x9148(%rip)        # 24242 <g_142+0xc2>
   1b0fa:	0f b7 05 41 91 00 00 	movzwl 0x9141(%rip),%eax        # 24242 <g_142+0xc2>
   1b101:	66 89 05 7a 91 00 00 	mov    %ax,0x917a(%rip)        # 24282 <g_335>
   1b108:	0f b7 05 73 91 00 00 	movzwl 0x9173(%rip),%eax        # 24282 <g_335>
   1b10f:	0f bf d0             	movswl %ax,%edx
   1b112:	8b 05 4c 90 00 00    	mov    0x904c(%rip),%eax        # 24164 <g_109>
   1b118:	39 c2                	cmp    %eax,%edx
   1b11a:	0f 82 2f 07 00 00    	jb     1b84f <func_69+0x2c01>
   1b120:	48 c7 85 e0 f6 ff ff 	movq   $0x0,-0x920(%rbp)
   1b127:	00 00 00 00 
   1b12b:	48 c7 85 70 f8 ff ff 	movq   $0x0,-0x790(%rbp)
   1b132:	00 00 00 00 
   1b136:	48 8d 05 63 b5 00 00 	lea    0xb563(%rip),%rax        # 266a0 <g_94>
   1b13d:	48 89 85 78 f8 ff ff 	mov    %rax,-0x788(%rbp)
   1b144:	48 c7 85 80 f8 ff ff 	movq   $0x0,-0x780(%rbp)
   1b14b:	00 00 00 00 
   1b14f:	48 8d 05 4a b5 00 00 	lea    0xb54a(%rip),%rax        # 266a0 <g_94>
   1b156:	48 89 85 88 f8 ff ff 	mov    %rax,-0x778(%rbp)
   1b15d:	48 c7 85 90 f8 ff ff 	movq   $0x0,-0x770(%rbp)
   1b164:	00 00 00 00 
   1b168:	48 8d 05 31 b5 00 00 	lea    0xb531(%rip),%rax        # 266a0 <g_94>
   1b16f:	48 89 85 98 f8 ff ff 	mov    %rax,-0x768(%rbp)
   1b176:	48 c7 85 a0 f8 ff ff 	movq   $0x0,-0x760(%rbp)
   1b17d:	00 00 00 00 
   1b181:	48 8d 05 18 b5 00 00 	lea    0xb518(%rip),%rax        # 266a0 <g_94>
   1b188:	48 89 85 a8 f8 ff ff 	mov    %rax,-0x758(%rbp)
   1b18f:	48 c7 85 b0 f8 ff ff 	movq   $0x0,-0x750(%rbp)
   1b196:	00 00 00 00 
   1b19a:	48 8d 05 ff b4 00 00 	lea    0xb4ff(%rip),%rax        # 266a0 <g_94>
   1b1a1:	48 89 85 b8 f8 ff ff 	mov    %rax,-0x748(%rbp)
   1b1a8:	c7 85 08 f4 ff ff fd 	movl   $0xfffffffd,-0xbf8(%rbp)
   1b1af:	ff ff ff 
   1b1b2:	c6 85 b7 f3 ff ff 76 	movb   $0x76,-0xc49(%rbp)
   1b1b9:	48 8d 05 d8 d5 00 00 	lea    0xd5d8(%rip),%rax        # 28798 <g_456>
   1b1c0:	48 89 85 20 f6 ff ff 	mov    %rax,-0x9e0(%rbp)
   1b1c7:	48 8b 85 10 f6 ff ff 	mov    -0x9f0(%rbp),%rax
   1b1ce:	48 89 85 e8 f4 ff ff 	mov    %rax,-0xb18(%rbp)
   1b1d5:	48 8b 85 b8 f8 ff ff 	mov    -0x748(%rbp),%rax
   1b1dc:	48 39 85 e8 f4 ff ff 	cmp    %rax,-0xb18(%rbp)
   1b1e3:	0f 95 c0             	setne  %al
   1b1e6:	0f b6 d0             	movzbl %al,%edx
   1b1e9:	48 8b 85 b8 f4 ff ff 	mov    -0xb48(%rbp),%rax
   1b1f0:	89 10                	mov    %edx,(%rax)
   1b1f2:	48 8b 85 b8 f4 ff ff 	mov    -0xb48(%rbp),%rax
   1b1f9:	8b 00                	mov    (%rax),%eax
   1b1fb:	35 1e cb 00 e2       	xor    $0xe200cb1e,%eax
   1b200:	89 c2                	mov    %eax,%edx
   1b202:	8b 05 50 8f 00 00    	mov    0x8f50(%rip),%eax        # 24158 <g_78>
   1b208:	48 98                	cltq   
   1b20a:	48 39 c2             	cmp    %rax,%rdx
   1b20d:	0f 8e 64 02 00 00    	jle    1b477 <func_69+0x2829>
   1b213:	66 c7 85 40 f9 ff ff 	movw   $0x7,-0x6c0(%rbp)
   1b21a:	07 00 
   1b21c:	66 c7 85 42 f9 ff ff 	movw   $0x1,-0x6be(%rbp)
   1b223:	01 00 
   1b225:	66 c7 85 44 f9 ff ff 	movw   $0x7,-0x6bc(%rbp)
   1b22c:	07 00 
   1b22e:	66 c7 85 46 f9 ff ff 	movw   $0xc60f,-0x6ba(%rbp)
   1b235:	0f c6 
   1b237:	66 c7 85 48 f9 ff ff 	movw   $0xc60f,-0x6b8(%rbp)
   1b23e:	0f c6 
   1b240:	66 c7 85 4a f9 ff ff 	movw   $0x7,-0x6b6(%rbp)
   1b247:	07 00 
   1b249:	66 c7 85 4c f9 ff ff 	movw   $0x1,-0x6b4(%rbp)
   1b250:	01 00 
   1b252:	66 c7 85 4e f9 ff ff 	movw   $0x7,-0x6b2(%rbp)
   1b259:	07 00 
   1b25b:	66 c7 85 50 f9 ff ff 	movw   $0xc60f,-0x6b0(%rbp)
   1b262:	0f c6 
   1b264:	66 c7 85 52 f9 ff ff 	movw   $0xc60f,-0x6ae(%rbp)
   1b26b:	0f c6 
   1b26d:	66 c7 85 54 f9 ff ff 	movw   $0x7,-0x6ac(%rbp)
   1b274:	07 00 
   1b276:	66 c7 85 56 f9 ff ff 	movw   $0xa43e,-0x6aa(%rbp)
   1b27d:	3e a4 
   1b27f:	66 c7 85 58 f9 ff ff 	movw   $0x25b8,-0x6a8(%rbp)
   1b286:	b8 25 
   1b288:	66 c7 85 5a f9 ff ff 	movw   $0x7,-0x6a6(%rbp)
   1b28f:	07 00 
   1b291:	66 c7 85 5c f9 ff ff 	movw   $0x7,-0x6a4(%rbp)
   1b298:	07 00 
   1b29a:	66 c7 85 5e f9 ff ff 	movw   $0x25b8,-0x6a2(%rbp)
   1b2a1:	b8 25 
   1b2a3:	66 c7 85 60 f9 ff ff 	movw   $0xa43e,-0x6a0(%rbp)
   1b2aa:	3e a4 
   1b2ac:	66 c7 85 62 f9 ff ff 	movw   $0x25b8,-0x69e(%rbp)
   1b2b3:	b8 25 
   1b2b5:	66 c7 85 64 f9 ff ff 	movw   $0x7,-0x69c(%rbp)
   1b2bc:	07 00 
   1b2be:	66 c7 85 66 f9 ff ff 	movw   $0x7,-0x69a(%rbp)
   1b2c5:	07 00 
   1b2c7:	66 c7 85 68 f9 ff ff 	movw   $0x25b8,-0x698(%rbp)
   1b2ce:	b8 25 
   1b2d0:	66 c7 85 6a f9 ff ff 	movw   $0xa43e,-0x696(%rbp)
   1b2d7:	3e a4 
   1b2d9:	66 c7 85 6c f9 ff ff 	movw   $0x25b8,-0x694(%rbp)
   1b2e0:	b8 25 
   1b2e2:	66 c7 85 6e f9 ff ff 	movw   $0x7,-0x692(%rbp)
   1b2e9:	07 00 
   1b2eb:	66 c7 85 70 f9 ff ff 	movw   $0x7,-0x690(%rbp)
   1b2f2:	07 00 
   1b2f4:	66 c7 85 72 f9 ff ff 	movw   $0x25b8,-0x68e(%rbp)
   1b2fb:	b8 25 
   1b2fd:	66 c7 85 74 f9 ff ff 	movw   $0xa43e,-0x68c(%rbp)
   1b304:	3e a4 
   1b306:	66 c7 85 76 f9 ff ff 	movw   $0x25b8,-0x68a(%rbp)
   1b30d:	b8 25 
   1b30f:	66 c7 85 78 f9 ff ff 	movw   $0x7,-0x688(%rbp)
   1b316:	07 00 
   1b318:	66 c7 85 7a f9 ff ff 	movw   $0x7,-0x686(%rbp)
   1b31f:	07 00 
   1b321:	66 c7 85 7c f9 ff ff 	movw   $0x25b8,-0x684(%rbp)
   1b328:	b8 25 
   1b32a:	66 c7 85 7e f9 ff ff 	movw   $0xa43e,-0x682(%rbp)
   1b331:	3e a4 
   1b333:	66 c7 85 80 f9 ff ff 	movw   $0x25b8,-0x680(%rbp)
   1b33a:	b8 25 
   1b33c:	66 c7 85 82 f9 ff ff 	movw   $0x7,-0x67e(%rbp)
   1b343:	07 00 
   1b345:	66 c7 85 84 f9 ff ff 	movw   $0x7,-0x67c(%rbp)
   1b34c:	07 00 
   1b34e:	66 c7 85 86 f9 ff ff 	movw   $0x25b8,-0x67a(%rbp)
   1b355:	b8 25 
   1b357:	66 c7 85 88 f9 ff ff 	movw   $0xa43e,-0x678(%rbp)
   1b35e:	3e a4 
   1b360:	66 c7 85 8a f9 ff ff 	movw   $0x25b8,-0x676(%rbp)
   1b367:	b8 25 
   1b369:	66 c7 85 8c f9 ff ff 	movw   $0x7,-0x674(%rbp)
   1b370:	07 00 
   1b372:	66 c7 85 8e f9 ff ff 	movw   $0x7,-0x672(%rbp)
   1b379:	07 00 
   1b37b:	48 8d 05 1e b3 00 00 	lea    0xb31e(%rip),%rax        # 266a0 <g_94>
   1b382:	48 89 85 08 f7 ff ff 	mov    %rax,-0x8f8(%rbp)
   1b389:	c7 05 e9 8e 00 00 00 	movl   $0x0,0x8ee9(%rip)        # 2427c <g_274>
   1b390:	00 00 00 
   1b393:	e9 b7 00 00 00       	jmpq   1b44f <func_69+0x2801>
   1b398:	66 c7 85 c0 f3 ff ff 	movw   $0x1,-0xc40(%rbp)
   1b39f:	01 00 
   1b3a1:	48 8d 05 18 b3 00 00 	lea    0xb318(%rip),%rax        # 266c0 <g_320>
   1b3a8:	48 89 85 10 f7 ff ff 	mov    %rax,-0x8f0(%rbp)
   1b3af:	66 c7 85 c2 f3 ff ff 	movw   $0xfffe,-0xc3e(%rbp)
   1b3b6:	fe ff 
   1b3b8:	83 85 08 f4 ff ff 01 	addl   $0x1,-0xbf8(%rbp)
   1b3bf:	48 8b 85 a8 f3 ff ff 	mov    -0xc58(%rbp),%rax
   1b3c6:	4c 8b 20             	mov    (%rax),%r12
   1b3c9:	66 83 bd c2 f3 ff ff 	cmpw   $0x0,-0xc3e(%rbp)
   1b3d0:	00 
   1b3d1:	0f 95 c0             	setne  %al
   1b3d4:	0f b6 d8             	movzbl %al,%ebx
   1b3d7:	48 8d 05 aa d3 00 00 	lea    0xd3aa(%rip),%rax        # 28788 <g_321>
   1b3de:	48 89 85 98 f4 ff ff 	mov    %rax,-0xb68(%rbp)
   1b3e5:	bf 01 00 00 00       	mov    $0x1,%edi
   1b3ea:	e8 b7 ea fe ff       	callq  9ea6 <safe_unary_minus_func_uint32_t_u>
   1b3ef:	0f b6 c0             	movzbl %al,%eax
   1b3f2:	89 de                	mov    %ebx,%esi
   1b3f4:	89 c7                	mov    %eax,%edi
   1b3f6:	e8 98 e7 fe ff       	callq  9b93 <safe_mul_func_uint8_t_u_u>
   1b3fb:	8b 05 2f 8c 00 00    	mov    0x8c2f(%rip),%eax        # 24030 <g_74>
   1b401:	bf ff ff ff ff       	mov    $0xffffffff,%edi
   1b406:	e8 8b e1 fe ff       	callq  9596 <safe_unary_minus_func_int32_t_s>
   1b40b:	89 c2                	mov    %eax,%edx
   1b40d:	8b 05 51 8e 00 00    	mov    0x8e51(%rip),%eax        # 24264 <g_152+0x14>
   1b413:	39 c2                	cmp    %eax,%edx
   1b415:	0f 93 c0             	setae  %al
   1b418:	0f b6 c0             	movzbl %al,%eax
   1b41b:	49 39 c4             	cmp    %rax,%r12
   1b41e:	0f 96 c0             	setbe  %al
   1b421:	0f b6 d0             	movzbl %al,%edx
   1b424:	0f b7 85 46 f9 ff ff 	movzwl -0x6ba(%rbp),%eax
   1b42b:	31 d0                	xor    %edx,%eax
   1b42d:	66 89 85 46 f9 ff ff 	mov    %ax,-0x6ba(%rbp)
   1b434:	0f b7 85 46 f9 ff ff 	movzwl -0x6ba(%rbp),%eax
   1b43b:	66 85 c0             	test   %ax,%ax
   1b43e:	75 20                	jne    1b460 <func_69+0x2812>
   1b440:	8b 05 36 8e 00 00    	mov    0x8e36(%rip),%eax        # 2427c <g_274>
   1b446:	83 c0 01             	add    $0x1,%eax
   1b449:	89 05 2d 8e 00 00    	mov    %eax,0x8e2d(%rip)        # 2427c <g_274>
   1b44f:	8b 05 27 8e 00 00    	mov    0x8e27(%rip),%eax        # 2427c <g_274>
   1b455:	83 f8 0e             	cmp    $0xe,%eax
   1b458:	0f 85 3a ff ff ff    	jne    1b398 <func_69+0x274a>
   1b45e:	eb 01                	jmp    1b461 <func_69+0x2813>
   1b460:	90                   	nop
   1b461:	48 8b 85 08 f7 ff ff 	mov    -0x8f8(%rbp),%rax
   1b468:	48 8b 95 f0 f4 ff ff 	mov    -0xb10(%rbp),%rdx
   1b46f:	48 89 10             	mov    %rdx,(%rax)
   1b472:	e9 bf 03 00 00       	jmpq   1b836 <func_69+0x2be8>
   1b477:	48 8d 05 e2 d2 00 00 	lea    0xd2e2(%rip),%rax        # 28760 <g_159>
   1b47e:	48 89 85 a0 f4 ff ff 	mov    %rax,-0xb60(%rbp)
   1b485:	48 8d 85 a0 f4 ff ff 	lea    -0xb60(%rbp),%rax
   1b48c:	48 89 85 e8 f6 ff ff 	mov    %rax,-0x918(%rbp)
   1b493:	c7 85 54 f4 ff ff 16 	movl   $0x94295316,-0xbac(%rbp)
   1b49a:	53 29 94 
   1b49d:	48 c7 85 f0 f6 ff ff 	movq   $0x7,-0x910(%rbp)
   1b4a4:	07 00 00 00 
   1b4a8:	66 c7 85 be f3 ff ff 	movw   $0x5182,-0xc42(%rbp)
   1b4af:	82 51 
   1b4b1:	48 8d 45 c2          	lea    -0x3e(%rbp),%rax
   1b4b5:	48 83 c0 02          	add    $0x2,%rax
   1b4b9:	48 89 85 40 f9 ff ff 	mov    %rax,-0x6c0(%rbp)
   1b4c0:	48 8d 45 c2          	lea    -0x3e(%rbp),%rax
   1b4c4:	48 83 c0 02          	add    $0x2,%rax
   1b4c8:	48 89 85 48 f9 ff ff 	mov    %rax,-0x6b8(%rbp)
   1b4cf:	48 8d 85 b0 f3 ff ff 	lea    -0xc50(%rbp),%rax
   1b4d6:	48 89 85 50 f9 ff ff 	mov    %rax,-0x6b0(%rbp)
   1b4dd:	48 8d 45 c2          	lea    -0x3e(%rbp),%rax
   1b4e1:	48 83 c0 02          	add    $0x2,%rax
   1b4e5:	48 89 85 58 f9 ff ff 	mov    %rax,-0x6a8(%rbp)
   1b4ec:	48 8d 45 c2          	lea    -0x3e(%rbp),%rax
   1b4f0:	48 83 c0 02          	add    $0x2,%rax
   1b4f4:	48 89 85 60 f9 ff ff 	mov    %rax,-0x6a0(%rbp)
   1b4fb:	48 8d 85 b0 f3 ff ff 	lea    -0xc50(%rbp),%rax
   1b502:	48 89 85 68 f9 ff ff 	mov    %rax,-0x698(%rbp)
   1b509:	48 8d 45 c2          	lea    -0x3e(%rbp),%rax
   1b50d:	48 83 c0 02          	add    $0x2,%rax
   1b511:	48 89 85 70 f9 ff ff 	mov    %rax,-0x690(%rbp)
   1b518:	48 8d 45 c2          	lea    -0x3e(%rbp),%rax
   1b51c:	48 83 c0 02          	add    $0x2,%rax
   1b520:	48 89 85 78 f9 ff ff 	mov    %rax,-0x688(%rbp)
   1b527:	48 8d 85 b0 f3 ff ff 	lea    -0xc50(%rbp),%rax
   1b52e:	48 89 85 80 f9 ff ff 	mov    %rax,-0x680(%rbp)
   1b535:	48 8d 45 c2          	lea    -0x3e(%rbp),%rax
   1b539:	48 83 c0 02          	add    $0x2,%rax
   1b53d:	48 89 85 88 f9 ff ff 	mov    %rax,-0x678(%rbp)
   1b544:	48 8d 85 40 f9 ff ff 	lea    -0x6c0(%rbp),%rax
   1b54b:	48 83 c0 38          	add    $0x38,%rax
   1b54f:	48 89 85 a8 f4 ff ff 	mov    %rax,-0xb58(%rbp)
   1b556:	c7 85 58 f4 ff ff b8 	movl   $0x3da0f1b8,-0xba8(%rbp)
   1b55d:	f1 a0 3d 
   1b560:	c7 85 0c f4 ff ff 00 	movl   $0x0,-0xbf4(%rbp)
   1b567:	00 00 00 
   1b56a:	eb 1a                	jmp    1b586 <func_69+0x2938>
   1b56c:	8b 85 0c f4 ff ff    	mov    -0xbf4(%rbp),%eax
   1b572:	48 98                	cltq   
   1b574:	c7 84 85 60 f7 ff ff 	movl   $0xfffffffd,-0x8a0(%rbp,%rax,4)
   1b57b:	fd ff ff ff 
   1b57f:	83 85 0c f4 ff ff 01 	addl   $0x1,-0xbf4(%rbp)
   1b586:	83 bd 0c f4 ff ff 02 	cmpl   $0x2,-0xbf4(%rbp)
   1b58d:	7e dd                	jle    1b56c <func_69+0x291e>
   1b58f:	8b 05 03 8b 00 00    	mov    0x8b03(%rip),%eax        # 24098 <g_75+0x58>
   1b595:	0f b6 d8             	movzbl %al,%ebx
   1b598:	48 83 bd 28 f6 ff ff 	cmpq   $0x0,-0x9d8(%rbp)
   1b59f:	00 
   1b5a0:	0f 94 c0             	sete   %al
   1b5a3:	0f b6 c0             	movzbl %al,%eax
   1b5a6:	be 29 09 00 00       	mov    $0x929,%esi
   1b5ab:	89 c7                	mov    %eax,%edi
   1b5ad:	e8 dc e7 fe ff       	callq  9d8e <safe_div_func_uint16_t_u_u>
   1b5b2:	48 8b 85 e8 f6 ff ff 	mov    -0x918(%rbp),%rax
   1b5b9:	48 8d 15 b0 d1 00 00 	lea    0xd1b0(%rip),%rdx        # 28770 <g_159+0x10>
   1b5c0:	48 89 10             	mov    %rdx,(%rax)
   1b5c3:	48 8b 85 e8 f6 ff ff 	mov    -0x918(%rbp),%rax
   1b5ca:	48 8b 00             	mov    (%rax),%rax
   1b5cd:	48 8d 15 8c d1 00 00 	lea    0xd18c(%rip),%rdx        # 28760 <g_159>
   1b5d4:	48 39 d0             	cmp    %rdx,%rax
   1b5d7:	44 8b 25 a6 58 00 00 	mov    0x58a6(%rip),%r12d        # 20e84 <l_503.5563+0x44>
   1b5de:	8b 85 d4 f3 ff ff    	mov    -0xc2c(%rbp),%eax
   1b5e4:	4c 63 e8             	movslq %eax,%r13
   1b5e7:	48 8b 85 68 f4 ff ff 	mov    -0xb98(%rbp),%rax
   1b5ee:	8b 10                	mov    (%rax),%edx
   1b5f0:	48 8b 05 f1 b0 00 00 	mov    0xb0f1(%rip),%rax        # 266e8 <g_489>
   1b5f7:	48 89 85 00 f6 ff ff 	mov    %rax,-0xa00(%rbp)
   1b5fe:	48 83 bd 00 f6 ff ff 	cmpq   $0x0,-0xa00(%rbp)
   1b605:	00 
   1b606:	0f 94 c0             	sete   %al
   1b609:	0f b6 c0             	movzbl %al,%eax
   1b60c:	21 c2                	and    %eax,%edx
   1b60e:	41 89 d7             	mov    %edx,%r15d
   1b611:	48 8b 05 50 8b 00 00 	mov    0x8b50(%rip),%rax        # 24168 <g_126>
   1b618:	89 85 a4 f3 ff ff    	mov    %eax,-0xc5c(%rbp)
   1b61e:	48 8b 85 f0 f5 ff ff 	mov    -0xa10(%rbp),%rax
   1b625:	89 85 a0 f3 ff ff    	mov    %eax,-0xc60(%rbp)
   1b62b:	44 8b 35 4a 8c 00 00 	mov    0x8c4a(%rip),%r14d        # 2427c <g_274>
   1b632:	48 8b 05 8f 8c 00 00 	mov    0x8c8f(%rip),%rax        # 242c8 <g_405>
   1b639:	98                   	cwtl   
   1b63a:	be f7 ff ff ff       	mov    $0xfffffff7,%esi
   1b63f:	89 c7                	mov    %eax,%edi
   1b641:	e8 af dd fe ff       	callq  93f5 <safe_mul_func_int16_t_s_s>
   1b646:	66 83 f8 07          	cmp    $0x7,%ax
   1b64a:	0f 96 c0             	setbe  %al
   1b64d:	0f b6 d0             	movzbl %al,%edx
   1b650:	8b 05 16 58 00 00    	mov    0x5816(%rip),%eax        # 20e6c <l_503.5563+0x2c>
   1b656:	39 c2                	cmp    %eax,%edx
   1b658:	0f 9c c0             	setl   %al
   1b65b:	0f b6 c0             	movzbl %al,%eax
   1b65e:	44 89 f6             	mov    %r14d,%esi
   1b661:	89 c7                	mov    %eax,%edi
   1b663:	e8 e0 e7 fe ff       	callq  9e48 <safe_rshift_func_uint16_t_u_s>
   1b668:	0f b7 c0             	movzwl %ax,%eax
   1b66b:	8b b5 a0 f3 ff ff    	mov    -0xc60(%rbp),%esi
   1b671:	89 c7                	mov    %eax,%edi
   1b673:	e8 58 e8 fe ff       	callq  9ed0 <safe_sub_func_uint32_t_u_u>
   1b678:	98                   	cwtl   
   1b679:	be 00 00 00 00       	mov    $0x0,%esi
   1b67e:	89 c7                	mov    %eax,%edi
   1b680:	e8 4e dd fe ff       	callq  93d3 <safe_sub_func_int16_t_s_s>
   1b685:	66 3d fe 00          	cmp    $0xfe,%ax
   1b689:	0f 96 c0             	setbe  %al
   1b68c:	0f b6 c0             	movzbl %al,%eax
   1b68f:	8b b5 a4 f3 ff ff    	mov    -0xc5c(%rbp),%esi
   1b695:	89 c7                	mov    %eax,%edi
   1b697:	e8 f1 e5 fe ff       	callq  9c8d <safe_rshift_func_uint8_t_u_s>
   1b69c:	0f b6 c0             	movzbl %al,%eax
   1b69f:	48 39 85 f0 f6 ff ff 	cmp    %rax,-0x910(%rbp)
   1b6a6:	0f 94 c0             	sete   %al
   1b6a9:	0f b6 d0             	movzbl %al,%edx
   1b6ac:	0f b7 85 be f3 ff ff 	movzwl -0xc42(%rbp),%eax
   1b6b3:	39 c2                	cmp    %eax,%edx
   1b6b5:	74 16                	je     1b6cd <func_69+0x2a7f>
   1b6b7:	48 8b 85 a8 f3 ff ff 	mov    -0xc58(%rbp),%rax
   1b6be:	48 8b 00             	mov    (%rax),%rax
   1b6c1:	48 85 c0             	test   %rax,%rax
   1b6c4:	74 07                	je     1b6cd <func_69+0x2a7f>
   1b6c6:	b8 01 00 00 00       	mov    $0x1,%eax
   1b6cb:	eb 05                	jmp    1b6d2 <func_69+0x2a84>
   1b6cd:	b8 00 00 00 00       	mov    $0x0,%eax
   1b6d2:	44 39 f8             	cmp    %r15d,%eax
   1b6d5:	7c 0a                	jl     1b6e1 <func_69+0x2a93>
   1b6d7:	8b 05 8f 57 00 00    	mov    0x578f(%rip),%eax        # 20e6c <l_503.5563+0x2c>
   1b6dd:	85 c0                	test   %eax,%eax
   1b6df:	74 07                	je     1b6e8 <func_69+0x2a9a>
   1b6e1:	b8 01 00 00 00       	mov    $0x1,%eax
   1b6e6:	eb 05                	jmp    1b6ed <func_69+0x2a9f>
   1b6e8:	b8 00 00 00 00       	mov    $0x0,%eax
   1b6ed:	48 98                	cltq   
   1b6ef:	4c 89 ee             	mov    %r13,%rsi
   1b6f2:	48 89 c7             	mov    %rax,%rdi
   1b6f5:	e8 fd e2 fe ff       	callq  99f7 <safe_div_func_int64_t_s_s>
   1b6fa:	89 85 54 f4 ff ff    	mov    %eax,-0xbac(%rbp)
   1b700:	8b 85 54 f4 ff ff    	mov    -0xbac(%rbp),%eax
   1b706:	44 89 e6             	mov    %r12d,%esi
   1b709:	89 c7                	mov    %eax,%edi
   1b70b:	e8 f5 de fe ff       	callq  9605 <safe_sub_func_int32_t_s_s>
   1b710:	48 63 d0             	movslq %eax,%rdx
   1b713:	48 8b 85 a8 f3 ff ff 	mov    -0xc58(%rbp),%rax
   1b71a:	48 8b 00             	mov    (%rax),%rax
   1b71d:	48 39 c2             	cmp    %rax,%rdx
   1b720:	89 de                	mov    %ebx,%esi
   1b722:	bf 01 00 00 00       	mov    $0x1,%edi
   1b727:	e8 af e4 fe ff       	callq  9bdb <safe_div_func_uint8_t_u_u>
   1b72c:	0f b6 c0             	movzbl %al,%eax
   1b72f:	83 e0 fd             	and    $0xfffffffd,%eax
   1b732:	48 85 c0             	test   %rax,%rax
   1b735:	74 45                	je     1b77c <func_69+0x2b2e>
   1b737:	48 c7 85 f8 f6 ff ff 	movq   $0x0,-0x908(%rbp)
   1b73e:	00 00 00 00 
   1b742:	48 8d 85 a8 f4 ff ff 	lea    -0xb58(%rbp),%rax
   1b749:	48 89 85 00 f7 ff ff 	mov    %rax,-0x900(%rbp)
   1b750:	c7 85 60 f4 ff ff 4f 	movl   $0x46b5924f,-0xba0(%rbp)
   1b757:	92 b5 46 
   1b75a:	48 8b 95 a8 f4 ff ff 	mov    -0xb58(%rbp),%rdx
   1b761:	48 8b 85 00 f7 ff ff 	mov    -0x900(%rbp),%rax
   1b768:	48 89 10             	mov    %rdx,(%rax)
   1b76b:	8b 85 60 f4 ff ff    	mov    -0xba0(%rbp),%eax
   1b771:	89 85 54 f4 ff ff    	mov    %eax,-0xbac(%rbp)
   1b777:	e9 ba 00 00 00       	jmpq   1b836 <func_69+0x2be8>
   1b77c:	c7 85 00 f8 ff ff 01 	movl   $0x1,-0x800(%rbp)
   1b783:	00 00 00 
   1b786:	c7 85 04 f8 ff ff 01 	movl   $0x1,-0x7fc(%rbp)
   1b78d:	00 00 00 
   1b790:	c7 85 08 f8 ff ff d5 	movl   $0x48cc1ed5,-0x7f8(%rbp)
   1b797:	1e cc 48 
   1b79a:	c7 85 0c f8 ff ff 03 	movl   $0xf31a1003,-0x7f4(%rbp)
   1b7a1:	10 1a f3 
   1b7a4:	c7 85 10 f8 ff ff d5 	movl   $0x48cc1ed5,-0x7f0(%rbp)
   1b7ab:	1e cc 48 
   1b7ae:	c7 85 14 f8 ff ff d5 	movl   $0x48cc1ed5,-0x7ec(%rbp)
   1b7b5:	1e cc 48 
   1b7b8:	c7 85 18 f8 ff ff d5 	movl   $0x48cc1ed5,-0x7e8(%rbp)
   1b7bf:	1e cc 48 
   1b7c2:	c7 85 1c f8 ff ff 00 	movl   $0x0,-0x7e4(%rbp)
   1b7c9:	00 00 00 
   1b7cc:	c7 85 20 f8 ff ff ff 	movl   $0xffffffff,-0x7e0(%rbp)
   1b7d3:	ff ff ff 
   1b7d6:	c7 85 24 f8 ff ff 03 	movl   $0xf31a1003,-0x7dc(%rbp)
   1b7dd:	10 1a f3 
   1b7e0:	c7 85 28 f8 ff ff 00 	movl   $0x0,-0x7d8(%rbp)
   1b7e7:	00 00 00 
   1b7ea:	c7 85 2c f8 ff ff 03 	movl   $0xf31a1003,-0x7d4(%rbp)
   1b7f1:	10 1a f3 
   1b7f4:	c7 85 5c f4 ff ff 56 	movl   $0x347cb556,-0xba4(%rbp)
   1b7fb:	b5 7c 34 
   1b7fe:	48 8b 85 e8 f4 ff ff 	mov    -0xb18(%rbp),%rax
   1b805:	48 8d 95 80 f7 ff ff 	lea    -0x880(%rbp),%rdx
   1b80c:	48 83 c2 24          	add    $0x24,%rdx
   1b810:	48 89 10             	mov    %rdx,(%rax)
   1b813:	83 85 5c f4 ff ff 01 	addl   $0x1,-0xba4(%rbp)
   1b81a:	48 8b 85 10 f6 ff ff 	mov    -0x9f0(%rbp),%rax
   1b821:	48 c7 00 00 00 00 00 	movq   $0x0,(%rax)
   1b828:	8b 85 04 f8 ff ff    	mov    -0x7fc(%rbp),%eax
   1b82e:	85 c0                	test   %eax,%eax
   1b830:	0f 85 d7 08 00 00    	jne    1c10d <func_69+0x34bf>
   1b836:	48 8b 85 10 f6 ff ff 	mov    -0x9f0(%rbp),%rax
   1b83d:	48 8b 10             	mov    (%rax),%rdx
   1b840:	48 8b 85 c0 f4 ff ff 	mov    -0xb40(%rbp),%rax
   1b847:	48 89 10             	mov    %rdx,(%rax)
   1b84a:	e9 93 08 00 00       	jmpq   1c0e2 <func_69+0x3494>
   1b84f:	c7 85 40 f7 ff ff fc 	movl   $0x10199fc,-0x8c0(%rbp)
   1b856:	99 01 01 
   1b859:	c7 85 44 f7 ff ff 2f 	movl   $0x99992c2f,-0x8bc(%rbp)
   1b860:	2c 99 99 
   1b863:	c7 85 48 f7 ff ff c4 	movl   $0xf799c4c4,-0x8b8(%rbp)
   1b86a:	c4 99 f7 
   1b86d:	c7 85 4c f7 ff ff 2f 	movl   $0x2c019e2f,-0x8b4(%rbp)
   1b874:	9e 01 2c 
   1b877:	c7 85 50 f7 ff ff fc 	movl   $0x1f701fc,-0x8b0(%rbp)
   1b87e:	01 f7 01 
   1b881:	c7 85 54 f7 ff ff f7 	movl   $0x2cfc01f7,-0x8ac(%rbp)
   1b888:	01 fc 2c 
   1b88b:	48 8d 05 2e ae 00 00 	lea    0xae2e(%rip),%rax        # 266c0 <g_320>
   1b892:	48 89 85 30 f6 ff ff 	mov    %rax,-0x9d0(%rbp)
   1b899:	48 8d 85 c4 f3 ff ff 	lea    -0xc3c(%rbp),%rax
   1b8a0:	48 89 85 38 f6 ff ff 	mov    %rax,-0x9c8(%rbp)
   1b8a7:	48 c7 85 40 f6 ff ff 	movq   $0x0,-0x9c0(%rbp)
   1b8ae:	00 00 00 00 
   1b8b2:	48 c7 85 48 f6 ff ff 	movq   $0x0,-0x9b8(%rbp)
   1b8b9:	00 00 00 00 
   1b8bd:	c7 85 70 f8 ff ff 00 	movl   $0x0,-0x790(%rbp)
   1b8c4:	00 00 00 
   1b8c7:	c7 85 74 f8 ff ff ff 	movl   $0xffffffff,-0x78c(%rbp)
   1b8ce:	ff ff ff 
   1b8d1:	c7 85 78 f8 ff ff f6 	movl   $0x4b82f9f6,-0x788(%rbp)
   1b8d8:	f9 82 4b 
   1b8db:	c7 85 7c f8 ff ff 30 	movl   $0x41987930,-0x784(%rbp)
   1b8e2:	79 98 41 
   1b8e5:	c7 85 80 f8 ff ff 01 	movl   $0x1,-0x780(%rbp)
   1b8ec:	00 00 00 
   1b8ef:	c7 85 84 f8 ff ff 01 	movl   $0x1,-0x77c(%rbp)
   1b8f6:	00 00 00 
   1b8f9:	c7 85 88 f8 ff ff 03 	movl   $0x3,-0x778(%rbp)
   1b900:	00 00 00 
   1b903:	c7 85 8c f8 ff ff ff 	movl   $0xffffffff,-0x774(%rbp)
   1b90a:	ff ff ff 
   1b90d:	c7 85 90 f8 ff ff ff 	movl   $0xffffffff,-0x770(%rbp)
   1b914:	ff ff ff 
   1b917:	c7 85 94 f8 ff ff 03 	movl   $0x3,-0x76c(%rbp)
   1b91e:	00 00 00 
   1b921:	c7 85 98 f8 ff ff 9d 	movl   $0xb70b809d,-0x768(%rbp)
   1b928:	80 0b b7 
   1b92b:	c7 85 9c f8 ff ff 30 	movl   $0x41987930,-0x764(%rbp)
   1b932:	79 98 41 
   1b935:	c7 85 a0 f8 ff ff 48 	movl   $0x485e7848,-0x760(%rbp)
   1b93c:	78 5e 48 
   1b93f:	c7 85 a4 f8 ff ff 48 	movl   $0x485e7848,-0x75c(%rbp)
   1b946:	78 5e 48 
   1b949:	c7 85 a8 f8 ff ff 30 	movl   $0x41987930,-0x758(%rbp)
   1b950:	79 98 41 
   1b953:	c7 85 ac f8 ff ff 9d 	movl   $0xb70b809d,-0x754(%rbp)
   1b95a:	80 0b b7 
   1b95d:	c7 85 b0 f8 ff ff f6 	movl   $0x4b82f9f6,-0x750(%rbp)
   1b964:	f9 82 4b 
   1b967:	c7 85 b4 f8 ff ff a4 	movl   $0x61f26fa4,-0x74c(%rbp)
   1b96e:	6f f2 61 
   1b971:	c7 85 b8 f8 ff ff 01 	movl   $0x1,-0x748(%rbp)
   1b978:	00 00 00 
   1b97b:	c7 85 bc f8 ff ff 48 	movl   $0x485e7848,-0x744(%rbp)
   1b982:	78 5e 48 
   1b985:	c7 85 c0 f8 ff ff fa 	movl   $0xfffffffa,-0x740(%rbp)
   1b98c:	ff ff ff 
   1b98f:	c7 85 c4 f8 ff ff 00 	movl   $0x0,-0x73c(%rbp)
   1b996:	00 00 00 
   1b999:	c7 85 c8 f8 ff ff 01 	movl   $0xdee12901,-0x738(%rbp)
   1b9a0:	29 e1 de 
   1b9a3:	c7 85 cc f8 ff ff ff 	movl   $0xffffffff,-0x734(%rbp)
   1b9aa:	ff ff ff 
   1b9ad:	c7 85 d0 f8 ff ff 03 	movl   $0x3,-0x730(%rbp)
   1b9b4:	00 00 00 
   1b9b7:	c7 85 d4 f8 ff ff 02 	movl   $0x2,-0x72c(%rbp)
   1b9be:	00 00 00 
   1b9c1:	c7 85 d8 f8 ff ff ff 	movl   $0xffffffff,-0x728(%rbp)
   1b9c8:	ff ff ff 
   1b9cb:	c7 85 dc f8 ff ff fa 	movl   $0xfffffffa,-0x724(%rbp)
   1b9d2:	ff ff ff 
   1b9d5:	c7 85 e0 f8 ff ff 07 	movl   $0x7,-0x720(%rbp)
   1b9dc:	00 00 00 
   1b9df:	c7 85 e4 f8 ff ff fa 	movl   $0xfffffffa,-0x71c(%rbp)
   1b9e6:	ff ff ff 
   1b9e9:	c7 85 e8 f8 ff ff fa 	movl   $0xfffffffa,-0x718(%rbp)
   1b9f0:	ff ff ff 
   1b9f3:	c7 85 ec f8 ff ff 9d 	movl   $0xb70b809d,-0x714(%rbp)
   1b9fa:	80 0b b7 
   1b9fd:	c7 85 f0 f8 ff ff ff 	movl   $0xffffffff,-0x710(%rbp)
   1ba04:	ff ff ff 
   1ba07:	c7 85 f4 f8 ff ff 30 	movl   $0x41987930,-0x70c(%rbp)
   1ba0e:	79 98 41 
   1ba11:	c7 85 f8 f8 ff ff ff 	movl   $0xffffffff,-0x708(%rbp)
   1ba18:	ff ff ff 
   1ba1b:	c7 85 fc f8 ff ff 9d 	movl   $0xb70b809d,-0x704(%rbp)
   1ba22:	80 0b b7 
   1ba25:	c7 85 00 f9 ff ff fa 	movl   $0xfffffffa,-0x700(%rbp)
   1ba2c:	ff ff ff 
   1ba2f:	c7 85 04 f9 ff ff 52 	movl   $0x2445d952,-0x6fc(%rbp)
   1ba36:	d9 45 24 
   1ba39:	c7 85 08 f9 ff ff 9d 	movl   $0xb70b809d,-0x6f8(%rbp)
   1ba40:	80 0b b7 
   1ba43:	c7 85 0c f9 ff ff 00 	movl   $0x0,-0x6f4(%rbp)
   1ba4a:	00 00 00 
   1ba4d:	c7 85 10 f9 ff ff 9d 	movl   $0xb70b809d,-0x6f0(%rbp)
   1ba54:	80 0b b7 
   1ba57:	c7 85 14 f9 ff ff fa 	movl   $0xfffffffa,-0x6ec(%rbp)
   1ba5e:	ff ff ff 
   1ba61:	c7 85 18 f9 ff ff 52 	movl   $0x2445d952,-0x6e8(%rbp)
   1ba68:	d9 45 24 
   1ba6b:	c7 85 1c f9 ff ff 9d 	movl   $0xb70b809d,-0x6e4(%rbp)
   1ba72:	80 0b b7 
   1ba75:	c7 85 20 f9 ff ff 00 	movl   $0x0,-0x6e0(%rbp)
   1ba7c:	00 00 00 
   1ba7f:	c7 85 24 f9 ff ff 01 	movl   $0x1,-0x6dc(%rbp)
   1ba86:	00 00 00 
   1ba89:	c7 85 28 f9 ff ff ff 	movl   $0xffffffff,-0x6d8(%rbp)
   1ba90:	ff ff ff 
   1ba93:	c7 85 2c f9 ff ff a4 	movl   $0x61f26fa4,-0x6d4(%rbp)
   1ba9a:	6f f2 61 
   1ba9d:	c7 85 30 f9 ff ff 52 	movl   $0x2445d952,-0x6d0(%rbp)
   1baa4:	d9 45 24 
   1baa7:	c7 85 34 f9 ff ff 52 	movl   $0x2445d952,-0x6cc(%rbp)
   1baae:	d9 45 24 
   1bab1:	c7 05 a1 86 00 00 00 	movl   $0x0,0x86a1(%rip)        # 2415c <g_80>
   1bab8:	00 00 00 
   1babb:	e9 07 06 00 00       	jmpq   1c0c7 <func_69+0x3479>
   1bac0:	48 8d 85 40 f9 ff ff 	lea    -0x6c0(%rbp),%rax
   1bac7:	48 8d 15 b2 4f 00 00 	lea    0x4fb2(%rip),%rdx        # 20a80 <g_2439+0x2a00>
   1bace:	b9 1f 00 00 00       	mov    $0x1f,%ecx
   1bad3:	48 89 c7             	mov    %rax,%rdi
   1bad6:	48 89 d6             	mov    %rdx,%rsi
   1bad9:	f3 48 a5             	rep movsq %ds:(%rsi),%es:(%rdi)
   1badc:	48 89 f2             	mov    %rsi,%rdx
   1badf:	48 89 f8             	mov    %rdi,%rax
   1bae2:	8b 0a                	mov    (%rdx),%ecx
   1bae4:	89 08                	mov    %ecx,(%rax)
   1bae6:	c7 85 00 f8 ff ff f2 	movl   $0xee91eaf2,-0x800(%rbp)
   1baed:	ea 91 ee 
   1baf0:	c7 85 04 f8 ff ff 00 	movl   $0x0,-0x7fc(%rbp)
   1baf7:	00 00 00 
   1bafa:	c7 85 08 f8 ff ff 08 	movl   $0x8,-0x7f8(%rbp)
   1bb01:	00 00 00 
   1bb04:	c7 85 0c f8 ff ff a0 	movl   $0xe4caeaa0,-0x7f4(%rbp)
   1bb0b:	ea ca e4 
   1bb0e:	c7 85 10 f8 ff ff 08 	movl   $0x8,-0x7f0(%rbp)
   1bb15:	00 00 00 
   1bb18:	c7 85 14 f8 ff ff 00 	movl   $0x0,-0x7ec(%rbp)
   1bb1f:	00 00 00 
   1bb22:	c7 85 18 f8 ff ff f2 	movl   $0xee91eaf2,-0x7e8(%rbp)
   1bb29:	ea 91 ee 
   1bb2c:	c7 85 1c f8 ff ff df 	movl   $0x259331df,-0x7e4(%rbp)
   1bb33:	31 93 25 
   1bb36:	c7 85 20 f8 ff ff b2 	movl   $0xe7cf4b2,-0x7e0(%rbp)
   1bb3d:	f4 7c 0e 
   1bb40:	c7 85 24 f8 ff ff b2 	movl   $0xe7cf4b2,-0x7dc(%rbp)
   1bb47:	f4 7c 0e 
   1bb4a:	c7 85 28 f8 ff ff df 	movl   $0x259331df,-0x7d8(%rbp)
   1bb51:	31 93 25 
   1bb54:	c7 85 2c f8 ff ff f2 	movl   $0xee91eaf2,-0x7d4(%rbp)
   1bb5b:	ea 91 ee 
   1bb5e:	c7 85 30 f8 ff ff 00 	movl   $0x0,-0x7d0(%rbp)
   1bb65:	00 00 00 
   1bb68:	c7 85 34 f8 ff ff 08 	movl   $0x8,-0x7cc(%rbp)
   1bb6f:	00 00 00 
   1bb72:	c7 85 38 f8 ff ff a0 	movl   $0xe4caeaa0,-0x7c8(%rbp)
   1bb79:	ea ca e4 
   1bb7c:	c7 85 3c f8 ff ff 08 	movl   $0x8,-0x7c4(%rbp)
   1bb83:	00 00 00 
   1bb86:	c7 85 40 f8 ff ff 00 	movl   $0x0,-0x7c0(%rbp)
   1bb8d:	00 00 00 
   1bb90:	c7 85 44 f8 ff ff f2 	movl   $0xee91eaf2,-0x7bc(%rbp)
   1bb97:	ea 91 ee 
   1bb9a:	c7 85 48 f8 ff ff df 	movl   $0x259331df,-0x7b8(%rbp)
   1bba1:	31 93 25 
   1bba4:	c7 85 4c f8 ff ff b2 	movl   $0xe7cf4b2,-0x7b4(%rbp)
   1bbab:	f4 7c 0e 
   1bbae:	c7 85 50 f8 ff ff b2 	movl   $0xe7cf4b2,-0x7b0(%rbp)
   1bbb5:	f4 7c 0e 
   1bbb8:	c7 85 54 f8 ff ff df 	movl   $0x259331df,-0x7ac(%rbp)
   1bbbf:	31 93 25 
   1bbc2:	c7 85 58 f8 ff ff f2 	movl   $0xee91eaf2,-0x7a8(%rbp)
   1bbc9:	ea 91 ee 
   1bbcc:	c7 85 5c f8 ff ff 00 	movl   $0x0,-0x7a4(%rbp)
   1bbd3:	00 00 00 
   1bbd6:	c7 85 60 f8 ff ff 08 	movl   $0x8,-0x7a0(%rbp)
   1bbdd:	00 00 00 
   1bbe0:	c7 85 64 f8 ff ff a0 	movl   $0xe4caeaa0,-0x79c(%rbp)
   1bbe7:	ea ca e4 
   1bbea:	c7 85 68 f8 ff ff 08 	movl   $0x8,-0x798(%rbp)
   1bbf1:	00 00 00 
   1bbf4:	48 c7 85 a8 f4 ff ff 	movq   $0x0,-0xb58(%rbp)
   1bbfb:	00 00 00 00 
   1bbff:	48 c7 85 50 f6 ff ff 	movq   $0x0,-0x9b0(%rbp)
   1bc06:	00 00 00 00 
   1bc0a:	c7 85 10 f4 ff ff 00 	movl   $0x0,-0xbf0(%rbp)
   1bc11:	00 00 00 
   1bc14:	eb 1a                	jmp    1bc30 <func_69+0x2fe2>
   1bc16:	8b 85 10 f4 ff ff    	mov    -0xbf0(%rbp),%eax
   1bc1c:	48 98                	cltq   
   1bc1e:	c7 84 85 34 f7 ff ff 	movl   $0x6,-0x8cc(%rbp,%rax,4)
   1bc25:	06 00 00 00 
   1bc29:	83 85 10 f4 ff ff 01 	addl   $0x1,-0xbf0(%rbp)
   1bc30:	83 bd 10 f4 ff ff 02 	cmpl   $0x2,-0xbf0(%rbp)
   1bc37:	7e dd                	jle    1bc16 <func_69+0x2fc8>
   1bc39:	48 c7 05 8c 86 00 00 	movq   $0x0,0x868c(%rip)        # 242d0 <g_513>
   1bc40:	00 00 00 00 
   1bc44:	eb 20                	jmp    1bc66 <func_69+0x3018>
   1bc46:	48 8b 85 c0 f4 ff ff 	mov    -0xb40(%rbp),%rax
   1bc4d:	48 c7 00 00 00 00 00 	movq   $0x0,(%rax)
   1bc54:	48 8b 05 75 86 00 00 	mov    0x8675(%rip),%rax        # 242d0 <g_513>
   1bc5b:	48 83 e8 01          	sub    $0x1,%rax
   1bc5f:	48 89 05 6a 86 00 00 	mov    %rax,0x866a(%rip)        # 242d0 <g_513>
   1bc66:	48 8b 05 63 86 00 00 	mov    0x8663(%rip),%rax        # 242d0 <g_513>
   1bc6d:	48 83 f8 fb          	cmp    $0xfffffffffffffffb,%rax
   1bc71:	74 d3                	je     1bc46 <func_69+0x2ff8>
   1bc73:	48 83 bd f8 f4 ff ff 	cmpq   $0x0,-0xb08(%rbp)
   1bc7a:	00 
   1bc7b:	0f 84 0c 02 00 00    	je     1be8d <func_69+0x323f>
   1bc81:	48 8d 85 d8 f3 ff ff 	lea    -0xc28(%rbp),%rax
   1bc88:	48 89 85 78 f6 ff ff 	mov    %rax,-0x988(%rbp)
   1bc8f:	48 8d 05 e2 85 00 00 	lea    0x85e2(%rip),%rax        # 24278 <g_206>
   1bc96:	48 89 85 80 f6 ff ff 	mov    %rax,-0x980(%rbp)
   1bc9d:	48 c7 85 88 f6 ff ff 	movq   $0x0,-0x978(%rbp)
   1bca4:	00 00 00 00 
   1bca8:	48 c7 85 90 f6 ff ff 	movq   $0x0,-0x970(%rbp)
   1bcaf:	00 00 00 00 
   1bcb3:	48 8d 85 cc f3 ff ff 	lea    -0xc34(%rbp),%rax
   1bcba:	48 89 85 98 f6 ff ff 	mov    %rax,-0x968(%rbp)
   1bcc1:	48 8d 05 d0 83 00 00 	lea    0x83d0(%rip),%rax        # 24098 <g_75+0x58>
   1bcc8:	48 89 85 a0 f6 ff ff 	mov    %rax,-0x960(%rbp)
   1bccf:	48 8d 05 a2 85 00 00 	lea    0x85a2(%rip),%rax        # 24278 <g_206>
   1bcd6:	48 89 85 a8 f6 ff ff 	mov    %rax,-0x958(%rbp)
   1bcdd:	48 8d 85 40 fc ff ff 	lea    -0x3c0(%rbp),%rax
   1bce4:	48 83 c0 34          	add    $0x34,%rax
   1bce8:	48 89 85 b0 f6 ff ff 	mov    %rax,-0x950(%rbp)
   1bcef:	48 c7 85 b8 f6 ff ff 	movq   $0x0,-0x948(%rbp)
   1bcf6:	00 00 00 00 
   1bcfa:	48 8d 85 d0 f3 ff ff 	lea    -0xc30(%rbp),%rax
   1bd01:	48 89 85 c0 f6 ff ff 	mov    %rax,-0x940(%rbp)
   1bd08:	48 8d 85 d8 f3 ff ff 	lea    -0xc28(%rbp),%rax
   1bd0f:	48 89 85 c8 f6 ff ff 	mov    %rax,-0x938(%rbp)
   1bd16:	48 c7 85 d0 f6 ff ff 	movq   $0x0,-0x930(%rbp)
   1bd1d:	00 00 00 00 
   1bd21:	48 8d 85 98 f4 ff ff 	lea    -0xb68(%rbp),%rax
   1bd28:	48 89 85 d8 f6 ff ff 	mov    %rax,-0x928(%rbp)
   1bd2f:	c7 85 14 f4 ff ff 00 	movl   $0x0,-0xbec(%rbp)
   1bd36:	00 00 00 
   1bd39:	eb 22                	jmp    1bd5d <func_69+0x310f>
   1bd3b:	8b 85 14 f4 ff ff    	mov    -0xbec(%rbp),%eax
   1bd41:	48 98                	cltq   
   1bd43:	48 8d 95 40 fc ff ff 	lea    -0x3c0(%rbp),%rdx
   1bd4a:	48 83 c2 34          	add    $0x34,%rdx
   1bd4e:	48 89 94 c5 60 f7 ff 	mov    %rdx,-0x8a0(%rbp,%rax,8)
   1bd55:	ff 
   1bd56:	83 85 14 f4 ff ff 01 	addl   $0x1,-0xbec(%rbp)
   1bd5d:	83 bd 14 f4 ff ff 02 	cmpl   $0x2,-0xbec(%rbp)
   1bd64:	7e d5                	jle    1bd3b <func_69+0x30ed>
   1bd66:	0f b6 85 4d f7 ff ff 	movzbl -0x8b3(%rbp),%eax
   1bd6d:	83 e8 01             	sub    $0x1,%eax
   1bd70:	88 85 4d f7 ff ff    	mov    %al,-0x8b3(%rbp)
   1bd76:	48 8b 85 a8 f3 ff ff 	mov    -0xc58(%rbp),%rax
   1bd7d:	48 8b 00             	mov    (%rax),%rax
   1bd80:	8b 95 0c fa ff ff    	mov    -0x5f4(%rbp),%edx
   1bd86:	89 d2                	mov    %edx,%edx
   1bd88:	48 89 c6             	mov    %rax,%rsi
   1bd8b:	48 89 d7             	mov    %rdx,%rdi
   1bd8e:	e8 b8 e2 fe ff       	callq  a04b <safe_sub_func_uint64_t_u_u>
   1bd93:	0f b7 05 6e 84 00 00 	movzwl 0x846e(%rip),%eax        # 24208 <g_142+0x88>
   1bd9a:	0f be c0             	movsbl %al,%eax
   1bd9d:	be 38 00 00 00       	mov    $0x38,%esi
   1bda2:	89 c7                	mov    %eax,%edi
   1bda4:	e8 69 d4 fe ff       	callq  9212 <safe_mul_func_int8_t_s_s>
   1bda9:	83 c8 01             	or     $0x1,%eax
   1bdac:	0f be c0             	movsbl %al,%eax
   1bdaf:	89 c6                	mov    %eax,%esi
   1bdb1:	bf 44 64 00 00       	mov    $0x6444,%edi
   1bdb6:	e8 26 d7 fe ff       	callq  94e1 <safe_lshift_func_int16_t_s_u>
   1bdbb:	98                   	cwtl   
   1bdbc:	89 85 3c f7 ff ff    	mov    %eax,-0x8c4(%rbp)
   1bdc2:	8b 05 f4 84 00 00    	mov    0x84f4(%rip),%eax        # 242bc <g_389+0x1c>
   1bdc8:	0f be d0             	movsbl %al,%edx
   1bdcb:	48 8b 05 f6 a8 00 00 	mov    0xa8f6(%rip),%rax        # 266c8 <g_398>
   1bdd2:	48 8b 00             	mov    (%rax),%rax
   1bdd5:	48 85 c0             	test   %rax,%rax
   1bdd8:	0f 94 c0             	sete   %al
   1bddb:	0f b6 c0             	movzbl %al,%eax
   1bdde:	89 d6                	mov    %edx,%esi
   1bde0:	89 c7                	mov    %eax,%edi
   1bde2:	e8 0b d4 fe ff       	callq  91f2 <safe_sub_func_int8_t_s_s>
   1bde7:	be 08 77 b6 bf       	mov    $0xbfb67708,%esi
   1bdec:	bf 00 00 00 00       	mov    $0x0,%edi
   1bdf1:	e8 2f e1 fe ff       	callq  9f25 <safe_div_func_uint32_t_u_u>
   1bdf6:	48 8b 85 d8 f6 ff ff 	mov    -0x928(%rbp),%rax
   1bdfd:	48 3b 85 30 f6 ff ff 	cmp    -0x9d0(%rbp),%rax
   1be04:	0f 95 c0             	setne  %al
   1be07:	0f b6 d0             	movzbl %al,%edx
   1be0a:	48 8b 85 78 f6 ff ff 	mov    -0x988(%rbp),%rax
   1be11:	8b 00                	mov    (%rax),%eax
   1be13:	39 c2                	cmp    %eax,%edx
   1be15:	0f 94 c0             	sete   %al
   1be18:	0f b6 d0             	movzbl %al,%edx
   1be1b:	48 8b 85 80 f6 ff ff 	mov    -0x980(%rbp),%rax
   1be22:	8b 00                	mov    (%rax),%eax
   1be24:	21 d0                	and    %edx,%eax
   1be26:	0d 4e df 00 00       	or     $0xdf4e,%eax
   1be2b:	be 02 00 00 00       	mov    $0x2,%esi
   1be30:	89 c7                	mov    %eax,%edi
   1be32:	e8 81 e0 fe ff       	callq  9eb8 <safe_add_func_uint32_t_u_u>
   1be37:	8b 05 7b 84 00 00    	mov    0x847b(%rip),%eax        # 242b8 <g_389+0x18>
   1be3d:	0f b6 d0             	movzbl %al,%edx
   1be40:	8b 85 9c f9 ff ff    	mov    -0x664(%rbp),%eax
   1be46:	0f b6 c0             	movzbl %al,%eax
   1be49:	89 d6                	mov    %edx,%esi
   1be4b:	89 c7                	mov    %eax,%edi
   1be4d:	e8 5c dd fe ff       	callq  9bae <safe_mod_func_uint8_t_u_u>
   1be52:	0f be c0             	movsbl %al,%eax
   1be55:	be 75 00 00 00       	mov    $0x75,%esi
   1be5a:	89 c7                	mov    %eax,%edi
   1be5c:	e8 91 d3 fe ff       	callq  91f2 <safe_sub_func_int8_t_s_s>
   1be61:	48 8b 85 a8 f3 ff ff 	mov    -0xc58(%rbp),%rax
   1be68:	48 8b 00             	mov    (%rax),%rax
   1be6b:	48 83 f8 01          	cmp    $0x1,%rax
   1be6f:	0f 95 c0             	setne  %al
   1be72:	0f b6 c0             	movzbl %al,%eax
   1be75:	be 01 00 00 00       	mov    $0x1,%esi
   1be7a:	48 89 c7             	mov    %rax,%rdi
   1be7d:	e8 bf d9 fe ff       	callq  9841 <safe_add_func_int64_t_s_s>
   1be82:	89 85 60 f8 ff ff    	mov    %eax,-0x7a0(%rbp)
   1be88:	e9 d4 01 00 00       	jmpq   1c061 <func_69+0x3413>
   1be8d:	48 8d 85 d4 f3 ff ff 	lea    -0xc2c(%rbp),%rax
   1be94:	48 89 85 58 f6 ff ff 	mov    %rax,-0x9a8(%rbp)
   1be9b:	48 8d 05 de 83 00 00 	lea    0x83de(%rip),%rax        # 24280 <g_295>
   1bea2:	48 89 85 60 f6 ff ff 	mov    %rax,-0x9a0(%rbp)
   1bea9:	48 c7 85 68 f6 ff ff 	movq   $0x0,-0x998(%rbp)
   1beb0:	00 00 00 00 
   1beb4:	48 8d 85 a8 f4 ff ff 	lea    -0xb58(%rbp),%rax
   1bebb:	48 89 85 70 f6 ff ff 	mov    %rax,-0x990(%rbp)
   1bec2:	48 8b 85 08 f6 ff ff 	mov    -0x9f8(%rbp),%rax
   1bec9:	89 c2                	mov    %eax,%edx
   1becb:	48 8b 85 58 f6 ff ff 	mov    -0x9a8(%rbp),%rax
   1bed2:	89 10                	mov    %edx,(%rax)
   1bed4:	48 8b 05 15 a8 00 00 	mov    0xa815(%rip),%rax        # 266f0 <g_571>
   1bedb:	8b 08                	mov    (%rax),%ecx
   1bedd:	0f b6 95 4d f7 ff ff 	movzbl -0x8b3(%rbp),%edx
   1bee4:	0f b6 f2             	movzbl %dl,%esi
   1bee7:	48 8b 95 58 f6 ff ff 	mov    -0x9a8(%rbp),%rdx
   1beee:	8b 12                	mov    (%rdx),%edx
   1bef0:	31 f2                	xor    %esi,%edx
   1bef2:	21 ca                	and    %ecx,%edx
   1bef4:	89 10                	mov    %edx,(%rax)
   1bef6:	48 8b 85 c0 f4 ff ff 	mov    -0xb40(%rbp),%rax
   1befd:	48 8b 95 38 f6 ff ff 	mov    -0x9c8(%rbp),%rdx
   1bf04:	48 89 10             	mov    %rdx,(%rax)
   1bf07:	48 8b 85 60 f6 ff ff 	mov    -0x9a0(%rbp),%rax
   1bf0e:	0f b7 00             	movzwl (%rax),%eax
   1bf11:	8d 50 ff             	lea    -0x1(%rax),%edx
   1bf14:	48 8b 85 60 f6 ff ff 	mov    -0x9a0(%rbp),%rax
   1bf1b:	66 89 10             	mov    %dx,(%rax)
   1bf1e:	48 8b 95 a8 f4 ff ff 	mov    -0xb58(%rbp),%rdx
   1bf25:	48 8b 85 70 f6 ff ff 	mov    -0x990(%rbp),%rax
   1bf2c:	48 89 10             	mov    %rdx,(%rax)
   1bf2f:	48 8b 85 70 f6 ff ff 	mov    -0x990(%rbp),%rax
   1bf36:	48 8b 00             	mov    (%rax),%rax
   1bf39:	48 39 85 40 f6 ff ff 	cmp    %rax,-0x9c0(%rbp)
   1bf40:	8b 85 4c f9 ff ff    	mov    -0x6b4(%rbp),%eax
   1bf46:	41 89 c5             	mov    %eax,%r13d
   1bf49:	8b 05 15 82 00 00    	mov    0x8215(%rip),%eax        # 24164 <g_109>
   1bf4f:	0f b6 d8             	movzbl %al,%ebx
   1bf52:	48 8b 85 50 f6 ff ff 	mov    -0x9b0(%rbp),%rax
   1bf59:	48 3b 85 48 f6 ff ff 	cmp    -0x9b8(%rbp),%rax
   1bf60:	0f 94 c0             	sete   %al
   1bf63:	0f b6 d0             	movzbl %al,%edx
   1bf66:	8b 85 1c f4 ff ff    	mov    -0xbe4(%rbp),%eax
   1bf6c:	98                   	cwtl   
   1bf6d:	89 d6                	mov    %edx,%esi
   1bf6f:	89 c7                	mov    %eax,%edi
   1bf71:	e8 3d d4 fe ff       	callq  93b3 <safe_add_func_int16_t_s_s>
   1bf76:	66 85 c0             	test   %ax,%ax
   1bf79:	75 0a                	jne    1bf85 <func_69+0x3337>
   1bf7b:	8b 85 f0 f8 ff ff    	mov    -0x710(%rbp),%eax
   1bf81:	85 c0                	test   %eax,%eax
   1bf83:	74 07                	je     1bf8c <func_69+0x333e>
   1bf85:	b8 01 00 00 00       	mov    $0x1,%eax
   1bf8a:	eb 05                	jmp    1bf91 <func_69+0x3343>
   1bf8c:	b8 00 00 00 00       	mov    $0x0,%eax
   1bf91:	41 89 c6             	mov    %eax,%r14d
   1bf94:	8b 85 60 f8 ff ff    	mov    -0x7a0(%rbp),%eax
   1bf9a:	4c 63 e0             	movslq %eax,%r12
   1bf9d:	48 8b 85 58 f6 ff ff 	mov    -0x9a8(%rbp),%rax
   1bfa4:	8b 00                	mov    (%rax),%eax
   1bfa6:	98                   	cwtl   
   1bfa7:	be 0a 00 00 00       	mov    $0xa,%esi
   1bfac:	89 c7                	mov    %eax,%edi
   1bfae:	e8 df d4 fe ff       	callq  9492 <safe_lshift_func_int16_t_s_s>
   1bfb3:	66 85 c0             	test   %ax,%ax
   1bfb6:	75 0b                	jne    1bfc3 <func_69+0x3375>
   1bfb8:	48 8b 85 38 f6 ff ff 	mov    -0x9c8(%rbp),%rax
   1bfbf:	8b 00                	mov    (%rax),%eax
   1bfc1:	85 c0                	test   %eax,%eax
   1bfc3:	90                   	nop
   1bfc4:	48 8b 85 a8 f3 ff ff 	mov    -0xc58(%rbp),%rax
   1bfcb:	48 8b 00             	mov    (%rax),%rax
   1bfce:	4c 89 e6             	mov    %r12,%rsi
   1bfd1:	48 89 c7             	mov    %rax,%rdi
   1bfd4:	e8 72 e0 fe ff       	callq  a04b <safe_sub_func_uint64_t_u_u>
   1bfd9:	44 09 f0             	or     %r14d,%eax
   1bfdc:	98                   	cwtl   
   1bfdd:	be 00 00 00 00       	mov    $0x0,%esi
   1bfe2:	89 c7                	mov    %eax,%edi
   1bfe4:	e8 7a d5 fe ff       	callq  9563 <safe_rshift_func_int16_t_s_u>
   1bfe9:	0f b6 c0             	movzbl %al,%eax
   1bfec:	89 de                	mov    %ebx,%esi
   1bfee:	89 c7                	mov    %eax,%edi
   1bff0:	e8 e6 db fe ff       	callq  9bdb <safe_div_func_uint8_t_u_u>
   1bff5:	0f b6 c0             	movzbl %al,%eax
   1bff8:	be 00 00 00 00       	mov    $0x0,%esi
   1bffd:	89 c7                	mov    %eax,%edi
   1bfff:	e8 cc de fe ff       	callq  9ed0 <safe_sub_func_uint32_t_u_u>
   1c004:	0f be c0             	movsbl %al,%eax
   1c007:	be b6 ff ff ff       	mov    $0xffffffb6,%esi
   1c00c:	89 c7                	mov    %eax,%edi
   1c00e:	e8 ff d1 fe ff       	callq  9212 <safe_mul_func_int8_t_s_s>
   1c013:	0f be c0             	movsbl %al,%eax
   1c016:	ba 78 dc 85 47       	mov    $0x4785dc78,%edx
   1c01b:	21 d0                	and    %edx,%eax
   1c01d:	89 c2                	mov    %eax,%edx
   1c01f:	48 8b 05 ba 82 00 00 	mov    0x82ba(%rip),%rax        # 242e0 <g_603>
   1c026:	48 39 c2             	cmp    %rax,%rdx
   1c029:	0f 9c c0             	setl   %al
   1c02c:	0f b6 c0             	movzbl %al,%eax
   1c02f:	44 89 ee             	mov    %r13d,%esi
   1c032:	89 c7                	mov    %eax,%edi
   1c034:	e8 cc d5 fe ff       	callq  9605 <safe_sub_func_int32_t_s_s>
   1c039:	89 c2                	mov    %eax,%edx
   1c03b:	8b 85 9c f9 ff ff    	mov    -0x664(%rbp),%eax
   1c041:	39 c2                	cmp    %eax,%edx
   1c043:	0f 93 c0             	setae  %al
   1c046:	0f b6 c0             	movzbl %al,%eax
   1c049:	be 01 00 00 00       	mov    $0x1,%esi
   1c04e:	89 c7                	mov    %eax,%edi
   1c050:	e8 9d d1 fe ff       	callq  91f2 <safe_sub_func_int8_t_s_s>
   1c055:	0f be d0             	movsbl %al,%edx
   1c058:	48 8b 85 38 f6 ff ff 	mov    -0x9c8(%rbp),%rax
   1c05f:	89 10                	mov    %edx,(%rax)
   1c061:	8b 05 f1 80 00 00    	mov    0x80f1(%rip),%eax        # 24158 <g_78>
   1c067:	85 c0                	test   %eax,%eax
   1c069:	74 16                	je     1c081 <func_69+0x3433>
   1c06b:	8b 05 33 82 00 00    	mov    0x8233(%rip),%eax        # 242a4 <g_389+0x4>
   1c071:	0d fd ff 00 00       	or     $0xfffd,%eax
   1c076:	85 c0                	test   %eax,%eax
   1c078:	78 07                	js     1c081 <func_69+0x3433>
   1c07a:	b8 01 00 00 00       	mov    $0x1,%eax
   1c07f:	eb 05                	jmp    1c086 <func_69+0x3438>
   1c081:	b8 00 00 00 00       	mov    $0x0,%eax
   1c086:	0f be d0             	movsbl %al,%edx
   1c089:	0f b6 05 49 82 00 00 	movzbl 0x8249(%rip),%eax        # 242d9 <g_539+0x1>
   1c090:	0f be c0             	movsbl %al,%eax
   1c093:	89 d6                	mov    %edx,%esi
   1c095:	89 c7                	mov    %eax,%edi
   1c097:	e8 76 d1 fe ff       	callq  9212 <safe_mul_func_int8_t_s_s>
   1c09c:	0f be d0             	movsbl %al,%edx
   1c09f:	8b 85 34 f7 ff ff    	mov    -0x8cc(%rbp),%eax
   1c0a5:	31 d0                	xor    %edx,%eax
   1c0a7:	89 85 90 f7 ff ff    	mov    %eax,-0x870(%rbp)
   1c0ad:	48 8b 05 3c a6 00 00 	mov    0xa63c(%rip),%rax        # 266f0 <g_571>
   1c0b4:	8b 00                	mov    (%rax),%eax
   1c0b6:	85 c0                	test   %eax,%eax
   1c0b8:	8b 05 9e 80 00 00    	mov    0x809e(%rip),%eax        # 2415c <g_80>
   1c0be:	83 e8 01             	sub    $0x1,%eax
   1c0c1:	89 05 95 80 00 00    	mov    %eax,0x8095(%rip)        # 2415c <g_80>
   1c0c7:	8b 05 8f 80 00 00    	mov    0x808f(%rip),%eax        # 2415c <g_80>
   1c0cd:	83 f8 e8             	cmp    $0xffffffe8,%eax
   1c0d0:	0f 8c ea f9 ff ff    	jl     1bac0 <func_69+0x2e72>
   1c0d6:	48 8b 85 a8 f3 ff ff 	mov    -0xc58(%rbp),%rax
   1c0dd:	48 8b 00             	mov    (%rax),%rax
   1c0e0:	eb 35                	jmp    1c117 <func_69+0x34c9>
   1c0e2:	8b 85 e4 f3 ff ff    	mov    -0xc1c(%rbp),%eax
   1c0e8:	0f be c0             	movsbl %al,%eax
   1c0eb:	be 04 00 00 00       	mov    $0x4,%esi
   1c0f0:	89 c7                	mov    %eax,%edi
   1c0f2:	e8 dd d0 fe ff       	callq  91d4 <safe_add_func_int8_t_s_s>
   1c0f7:	0f be c0             	movsbl %al,%eax
   1c0fa:	89 85 e4 f3 ff ff    	mov    %eax,-0xc1c(%rbp)
   1c100:	83 bd e4 f3 ff ff 16 	cmpl   $0x16,-0xc1c(%rbp)
   1c107:	0f 8e 60 ea ff ff    	jle    1ab6d <func_69+0x1f1f>
   1c10d:	48 8b 85 a8 f3 ff ff 	mov    -0xc58(%rbp),%rax
   1c114:	48 8b 00             	mov    (%rax),%rax
   1c117:	48 8b 5d c8          	mov    -0x38(%rbp),%rbx
   1c11b:	64 48 33 1c 25 28 00 	xor    %fs:0x28,%rbx
   1c122:	00 00 
   1c124:	74 05                	je     1c12b <func_69+0x34dd>
   1c126:	e8 45 cf fe ff       	callq  9070 <__stack_chk_fail@plt>
   1c12b:	48 81 c4 38 0c 00 00 	add    $0xc38,%rsp
   1c132:	5b                   	pop    %rbx
   1c133:	41 5c                	pop    %r12
   1c135:	41 5d                	pop    %r13
   1c137:	41 5e                	pop    %r14
   1c139:	41 5f                	pop    %r15
   1c13b:	5d                   	pop    %rbp
   1c13c:	c3                   	retq   

000000000001c13d <func_71>:
   1c13d:	f3 0f 1e fa          	endbr64 
   1c141:	55                   	push   %rbp
   1c142:	48 89 e5             	mov    %rsp,%rbp
   1c145:	53                   	push   %rbx
   1c146:	48 81 ec f8 00 00 00 	sub    $0xf8,%rsp
   1c14d:	48 89 bd 08 ff ff ff 	mov    %rdi,-0xf8(%rbp)
   1c154:	64 48 8b 04 25 28 00 	mov    %fs:0x28,%rax
   1c15b:	00 00 
   1c15d:	48 89 45 e8          	mov    %rax,-0x18(%rbp)
   1c161:	31 c0                	xor    %eax,%eax
   1c163:	c7 85 20 ff ff ff 01 	movl   $0x1,-0xe0(%rbp)
   1c16a:	00 00 00 
   1c16d:	c7 45 a0 b2 12 7a 69 	movl   $0x697a12b2,-0x60(%rbp)
   1c174:	c7 45 a4 34 b9 c7 84 	movl   $0x84c7b934,-0x5c(%rbp)
   1c17b:	c7 45 a8 b2 12 7a 69 	movl   $0x697a12b2,-0x58(%rbp)
   1c182:	c7 45 ac 34 b9 c7 84 	movl   $0x84c7b934,-0x54(%rbp)
   1c189:	c7 45 b0 b2 12 7a 69 	movl   $0x697a12b2,-0x50(%rbp)
   1c190:	c7 85 2c ff ff ff 00 	movl   $0x880abb00,-0xd4(%rbp)
   1c197:	bb 0a 88 
   1c19a:	48 8d 05 bf 7f 00 00 	lea    0x7fbf(%rip),%rax        # 24160 <g_104>
   1c1a1:	48 89 85 40 ff ff ff 	mov    %rax,-0xc0(%rbp)
   1c1a8:	c7 85 18 ff ff ff bd 	movl   $0xd4e0d3bd,-0xe8(%rbp)
   1c1af:	d3 e0 d4 
   1c1b2:	48 8d 05 ab 7f 00 00 	lea    0x7fab(%rip),%rax        # 24164 <g_109>
   1c1b9:	48 89 85 48 ff ff ff 	mov    %rax,-0xb8(%rbp)
   1c1c0:	48 8d 05 81 c5 00 00 	lea    0xc581(%rip),%rax        # 28748 <g_19>
   1c1c7:	48 89 85 50 ff ff ff 	mov    %rax,-0xb0(%rbp)
   1c1ce:	c7 85 24 ff ff ff 00 	movl   $0x0,-0xdc(%rbp)
   1c1d5:	00 00 00 
   1c1d8:	eb 17                	jmp    1c1f1 <func_71+0xb4>
   1c1da:	8b 85 24 ff ff ff    	mov    -0xdc(%rbp),%eax
   1c1e0:	48 98                	cltq   
   1c1e2:	c7 44 85 c0 01 00 00 	movl   $0x1,-0x40(%rbp,%rax,4)
   1c1e9:	00 
   1c1ea:	83 85 24 ff ff ff 01 	addl   $0x1,-0xdc(%rbp)
   1c1f1:	83 bd 24 ff ff ff 06 	cmpl   $0x6,-0xdc(%rbp)
   1c1f8:	7e e0                	jle    1c1da <func_71+0x9d>
   1c1fa:	c7 05 94 7e 00 00 01 	movl   $0x1,0x7e94(%rip)        # 24098 <g_75+0x58>
   1c201:	00 00 00 
   1c204:	e9 83 01 00 00       	jmpq   1c38c <func_71+0x24f>
   1c209:	48 8d 05 48 7f 00 00 	lea    0x7f48(%rip),%rax        # 24158 <g_78>
   1c210:	48 89 85 30 ff ff ff 	mov    %rax,-0xd0(%rbp)
   1c217:	48 83 bd 08 ff ff ff 	cmpq   $0x0,-0xf8(%rbp)
   1c21e:	00 
   1c21f:	0f 95 c2             	setne  %dl
   1c222:	48 8b 85 30 ff ff ff 	mov    -0xd0(%rbp),%rax
   1c229:	0f b6 d2             	movzbl %dl,%edx
   1c22c:	89 10                	mov    %edx,(%rax)
   1c22e:	c7 05 20 7f 00 00 01 	movl   $0x1,0x7f20(%rip)        # 24158 <g_78>
   1c235:	00 00 00 
   1c238:	e9 ac 00 00 00       	jmpq   1c2e9 <func_71+0x1ac>
   1c23d:	48 8d 05 18 7f 00 00 	lea    0x7f18(%rip),%rax        # 2415c <g_80>
   1c244:	48 89 85 60 ff ff ff 	mov    %rax,-0xa0(%rbp)
   1c24b:	48 c7 85 68 ff ff ff 	movq   $0x0,-0x98(%rbp)
   1c252:	00 00 00 00 
   1c256:	c7 85 1c ff ff ff 48 	movl   $0xa1ab7048,-0xe4(%rbp)
   1c25d:	70 ab a1 
   1c260:	48 8d 85 1c ff ff ff 	lea    -0xe4(%rbp),%rax
   1c267:	48 89 85 70 ff ff ff 	mov    %rax,-0x90(%rbp)
   1c26e:	48 8d 05 e7 7e 00 00 	lea    0x7ee7(%rip),%rax        # 2415c <g_80>
   1c275:	48 89 85 78 ff ff ff 	mov    %rax,-0x88(%rbp)
   1c27c:	48 8d 05 d9 7e 00 00 	lea    0x7ed9(%rip),%rax        # 2415c <g_80>
   1c283:	48 89 45 80          	mov    %rax,-0x80(%rbp)
   1c287:	48 8d 85 1c ff ff ff 	lea    -0xe4(%rbp),%rax
   1c28e:	48 89 85 38 ff ff ff 	mov    %rax,-0xc8(%rbp)
   1c295:	48 8d 85 38 ff ff ff 	lea    -0xc8(%rbp),%rax
   1c29c:	48 89 45 88          	mov    %rax,-0x78(%rbp)
   1c2a0:	83 ad 20 ff ff ff 01 	subl   $0x1,-0xe0(%rbp)
   1c2a7:	8b 05 ab 7e 00 00    	mov    0x7eab(%rip),%eax        # 24158 <g_78>
   1c2ad:	48 98                	cltq   
   1c2af:	48 8d 14 85 00 00 00 	lea    0x0(,%rax,4),%rdx
   1c2b6:	00 
   1c2b7:	48 8d 05 6a 7d 00 00 	lea    0x7d6a(%rip),%rax        # 24028 <g_73>
   1c2be:	8b 04 02             	mov    (%rdx,%rax,1),%eax
   1c2c1:	89 c2                	mov    %eax,%edx
   1c2c3:	48 8b 85 70 ff ff ff 	mov    -0x90(%rbp),%rax
   1c2ca:	89 10                	mov    %edx,(%rax)
   1c2cc:	48 8b 45 88          	mov    -0x78(%rbp),%rax
   1c2d0:	48 8d 15 c1 7d 00 00 	lea    0x7dc1(%rip),%rdx        # 24098 <g_75+0x58>
   1c2d7:	48 89 10             	mov    %rdx,(%rax)
   1c2da:	8b 05 78 7e 00 00    	mov    0x7e78(%rip),%eax        # 24158 <g_78>
   1c2e0:	83 e8 01             	sub    $0x1,%eax
   1c2e3:	89 05 6f 7e 00 00    	mov    %eax,0x7e6f(%rip)        # 24158 <g_78>
   1c2e9:	8b 05 69 7e 00 00    	mov    0x7e69(%rip),%eax        # 24158 <g_78>
   1c2ef:	85 c0                	test   %eax,%eax
   1c2f1:	0f 89 46 ff ff ff    	jns    1c23d <func_71+0x100>
   1c2f7:	c7 05 57 7e 00 00 00 	movl   $0x0,0x7e57(%rip)        # 24158 <g_78>
   1c2fe:	00 00 00 
   1c301:	eb 6f                	jmp    1c372 <func_71+0x235>
   1c303:	48 c7 85 58 ff ff ff 	movq   $0x0,-0xa8(%rbp)
   1c30a:	00 00 00 00 
   1c30e:	c7 85 28 ff ff ff 00 	movl   $0x0,-0xd8(%rbp)
   1c315:	00 00 00 
   1c318:	eb 18                	jmp    1c332 <func_71+0x1f5>
   1c31a:	8b 85 28 ff ff ff    	mov    -0xd8(%rbp),%eax
   1c320:	48 98                	cltq   
   1c322:	48 c7 44 c5 90 00 00 	movq   $0x0,-0x70(%rbp,%rax,8)
   1c329:	00 00 
   1c32b:	83 85 28 ff ff ff 01 	addl   $0x1,-0xd8(%rbp)
   1c332:	83 bd 28 ff ff ff 01 	cmpl   $0x1,-0xd8(%rbp)
   1c339:	7e df                	jle    1c31a <func_71+0x1dd>
   1c33b:	48 8b 85 58 ff ff ff 	mov    -0xa8(%rbp),%rax
   1c342:	48 89 05 5f a3 00 00 	mov    %rax,0xa35f(%rip)        # 266a8 <g_93>
   1c349:	48 8b 15 58 a3 00 00 	mov    0xa358(%rip),%rdx        # 266a8 <g_93>
   1c350:	48 8d 85 30 ff ff ff 	lea    -0xd0(%rbp),%rax
   1c357:	48 39 c2             	cmp    %rax,%rdx
   1c35a:	0f 94 c0             	sete   %al
   1c35d:	0f b6 c0             	movzbl %al,%eax
   1c360:	89 45 a8             	mov    %eax,-0x58(%rbp)
   1c363:	8b 05 ef 7d 00 00    	mov    0x7def(%rip),%eax        # 24158 <g_78>
   1c369:	83 c0 01             	add    $0x1,%eax
   1c36c:	89 05 e6 7d 00 00    	mov    %eax,0x7de6(%rip)        # 24158 <g_78>
   1c372:	8b 05 e0 7d 00 00    	mov    0x7de0(%rip),%eax        # 24158 <g_78>
   1c378:	83 f8 01             	cmp    $0x1,%eax
   1c37b:	7e 86                	jle    1c303 <func_71+0x1c6>
   1c37d:	8b 05 15 7d 00 00    	mov    0x7d15(%rip),%eax        # 24098 <g_75+0x58>
   1c383:	83 e8 01             	sub    $0x1,%eax
   1c386:	89 05 0c 7d 00 00    	mov    %eax,0x7d0c(%rip)        # 24098 <g_75+0x58>
   1c38c:	8b 05 06 7d 00 00    	mov    0x7d06(%rip),%eax        # 24098 <g_75+0x58>
   1c392:	85 c0                	test   %eax,%eax
   1c394:	0f 89 6f fe ff ff    	jns    1c209 <func_71+0xcc>
   1c39a:	8b 45 a8             	mov    -0x58(%rbp),%eax
   1c39d:	0f b6 c0             	movzbl %al,%eax
   1c3a0:	89 c6                	mov    %eax,%esi
   1c3a2:	bf b8 00 00 00       	mov    $0xb8,%edi
   1c3a7:	e8 2f d8 fe ff       	callq  9bdb <safe_div_func_uint8_t_u_u>
   1c3ac:	3c 01                	cmp    $0x1,%al
   1c3ae:	0f 97 c0             	seta   %al
   1c3b1:	0f b6 d0             	movzbl %al,%edx
   1c3b4:	8b 85 18 ff ff ff    	mov    -0xe8(%rbp),%eax
   1c3ba:	31 d0                	xor    %edx,%eax
   1c3bc:	89 85 18 ff ff ff    	mov    %eax,-0xe8(%rbp)
   1c3c2:	8b 45 a8             	mov    -0x58(%rbp),%eax
   1c3c5:	c1 e8 1f             	shr    $0x1f,%eax
   1c3c8:	0f b6 d0             	movzbl %al,%edx
   1c3cb:	48 8b 85 48 ff ff ff 	mov    -0xb8(%rbp),%rax
   1c3d2:	89 10                	mov    %edx,(%rax)
   1c3d4:	48 8b 85 48 ff ff ff 	mov    -0xb8(%rbp),%rax
   1c3db:	8b 00                	mov    (%rax),%eax
   1c3dd:	89 45 d8             	mov    %eax,-0x28(%rbp)
   1c3e0:	8b 55 d8             	mov    -0x28(%rbp),%edx
   1c3e3:	8b 45 a0             	mov    -0x60(%rbp),%eax
   1c3e6:	39 c2                	cmp    %eax,%edx
   1c3e8:	0f 9c c0             	setl   %al
   1c3eb:	0f b6 d0             	movzbl %al,%edx
   1c3ee:	8b 45 a8             	mov    -0x58(%rbp),%eax
   1c3f1:	39 c2                	cmp    %eax,%edx
   1c3f3:	7e 09                	jle    1c3fe <func_71+0x2c1>
   1c3f5:	83 bd 20 ff ff ff 00 	cmpl   $0x0,-0xe0(%rbp)
   1c3fc:	74 07                	je     1c405 <func_71+0x2c8>
   1c3fe:	b8 01 00 00 00       	mov    $0x1,%eax
   1c403:	eb 05                	jmp    1c40a <func_71+0x2cd>
   1c405:	b8 00 00 00 00       	mov    $0x0,%eax
   1c40a:	0f bf d8             	movswl %ax,%ebx
   1c40d:	8b 45 a4             	mov    -0x5c(%rbp),%eax
   1c410:	89 c2                	mov    %eax,%edx
   1c412:	48 8b 85 40 ff ff ff 	mov    -0xc0(%rbp),%rax
   1c419:	88 10                	mov    %dl,(%rax)
   1c41b:	48 8b 85 40 ff ff ff 	mov    -0xc0(%rbp),%rax
   1c422:	0f b6 00             	movzbl (%rax),%eax
   1c425:	0f be d0             	movsbl %al,%edx
   1c428:	8b 85 2c ff ff ff    	mov    -0xd4(%rbp),%eax
   1c42e:	0f b6 c0             	movzbl %al,%eax
   1c431:	89 d6                	mov    %edx,%esi
   1c433:	89 c7                	mov    %eax,%edi
   1c435:	e8 cb d7 fe ff       	callq  9c05 <safe_lshift_func_uint8_t_u_s>
   1c43a:	0f b6 d0             	movzbl %al,%edx
   1c43d:	8b 85 20 ff ff ff    	mov    -0xe0(%rbp),%eax
   1c443:	89 d6                	mov    %edx,%esi
   1c445:	89 c7                	mov    %eax,%edi
   1c447:	e8 84 da fe ff       	callq  9ed0 <safe_sub_func_uint32_t_u_u>
   1c44c:	98                   	cwtl   
   1c44d:	89 de                	mov    %ebx,%esi
   1c44f:	89 c7                	mov    %eax,%edi
   1c451:	e8 9f cf fe ff       	callq  93f5 <safe_mul_func_int16_t_s_s>
   1c456:	0f bf d0             	movswl %ax,%edx
   1c459:	8b 45 ac             	mov    -0x54(%rbp),%eax
   1c45c:	39 c2                	cmp    %eax,%edx
   1c45e:	0f 9e c0             	setle  %al
   1c461:	0f b6 c8             	movzbl %al,%ecx
   1c464:	48 8b 05 35 a2 00 00 	mov    0xa235(%rip),%rax        # 266a0 <g_94>
   1c46b:	8b 10                	mov    (%rax),%edx
   1c46d:	48 8b 05 2c a2 00 00 	mov    0xa22c(%rip),%rax        # 266a0 <g_94>
   1c474:	21 ca                	and    %ecx,%edx
   1c476:	89 10                	mov    %edx,(%rax)
   1c478:	48 8b 85 50 ff ff ff 	mov    -0xb0(%rbp),%rax
   1c47f:	48 8b 4d e8          	mov    -0x18(%rbp),%rcx
   1c483:	64 48 33 0c 25 28 00 	xor    %fs:0x28,%rcx
   1c48a:	00 00 
   1c48c:	74 05                	je     1c493 <func_71+0x356>
   1c48e:	e8 dd cb fe ff       	callq  9070 <__stack_chk_fail@plt>
   1c493:	48 81 c4 f8 00 00 00 	add    $0xf8,%rsp
   1c49a:	5b                   	pop    %rbx
   1c49b:	5d                   	pop    %rbp
   1c49c:	c3                   	retq   

000000000001c49d <main>:
   1c49d:	f3 0f 1e fa          	endbr64 
   1c4a1:	55                   	push   %rbp
   1c4a2:	48 89 e5             	mov    %rsp,%rbp
   1c4a5:	48 83 ec 20          	sub    $0x20,%rsp
   1c4a9:	89 7d ec             	mov    %edi,-0x14(%rbp)
   1c4ac:	48 89 75 e0          	mov    %rsi,-0x20(%rbp)
   1c4b0:	c7 45 fc 00 00 00 00 	movl   $0x0,-0x4(%rbp)
   1c4b7:	83 7d ec 02          	cmpl   $0x2,-0x14(%rbp)
   1c4bb:	75 25                	jne    1c4e2 <main+0x45>
   1c4bd:	48 8b 45 e0          	mov    -0x20(%rbp),%rax
   1c4c1:	48 83 c0 08          	add    $0x8,%rax
   1c4c5:	48 8b 00             	mov    (%rax),%rax
   1c4c8:	48 8d 35 ad 46 00 00 	lea    0x46ad(%rip),%rsi        # 20b7c <g_2439+0x2afc>
   1c4cf:	48 89 c7             	mov    %rax,%rdi
   1c4d2:	e8 b9 cb fe ff       	callq  9090 <strcmp@plt>
   1c4d7:	85 c0                	test   %eax,%eax
   1c4d9:	75 07                	jne    1c4e2 <main+0x45>
   1c4db:	c7 45 fc 01 00 00 00 	movl   $0x1,-0x4(%rbp)
   1c4e2:	e8 a2 cc fe ff       	callq  9189 <platform_main_begin>
   1c4e7:	e8 ac e0 fe ff       	callq  a598 <crc32_gentab>
   1c4ec:	e8 c4 e2 fe ff       	callq  a7b5 <func_1>
   1c4f1:	48 8b 05 50 c2 00 00 	mov    0xc250(%rip),%rax        # 28748 <g_19>
   1c4f8:	8b 55 fc             	mov    -0x4(%rbp),%edx
   1c4fb:	48 8d 35 7c 46 00 00 	lea    0x467c(%rip),%rsi        # 20b7e <g_2439+0x2afe>
   1c502:	48 89 c7             	mov    %rax,%rdi
   1c505:	e8 e9 e1 fe ff       	callq  a6f3 <transparent_crc>
   1c50a:	c7 45 f0 00 00 00 00 	movl   $0x0,-0x10(%rbp)
   1c511:	eb 4d                	jmp    1c560 <main+0xc3>
   1c513:	8b 45 f0             	mov    -0x10(%rbp),%eax
   1c516:	48 98                	cltq   
   1c518:	48 8d 14 85 00 00 00 	lea    0x0(,%rax,4),%rdx
   1c51f:	00 
   1c520:	48 8d 05 01 7b 00 00 	lea    0x7b01(%rip),%rax        # 24028 <g_73>
   1c527:	8b 04 02             	mov    (%rdx,%rax,1),%eax
   1c52a:	89 c1                	mov    %eax,%ecx
   1c52c:	8b 45 fc             	mov    -0x4(%rbp),%eax
   1c52f:	89 c2                	mov    %eax,%edx
   1c531:	48 8d 35 4b 46 00 00 	lea    0x464b(%rip),%rsi        # 20b83 <g_2439+0x2b03>
   1c538:	48 89 cf             	mov    %rcx,%rdi
   1c53b:	e8 b3 e1 fe ff       	callq  a6f3 <transparent_crc>
   1c540:	83 7d fc 00          	cmpl   $0x0,-0x4(%rbp)
   1c544:	74 16                	je     1c55c <main+0xbf>
   1c546:	8b 45 f0             	mov    -0x10(%rbp),%eax
   1c549:	89 c6                	mov    %eax,%esi
   1c54b:	48 8d 3d 39 46 00 00 	lea    0x4639(%rip),%rdi        # 20b8b <g_2439+0x2b0b>
   1c552:	b8 00 00 00 00       	mov    $0x0,%eax
   1c557:	e8 24 cb fe ff       	callq  9080 <printf@plt>
   1c55c:	83 45 f0 01          	addl   $0x1,-0x10(%rbp)
   1c560:	83 7d f0 01          	cmpl   $0x1,-0x10(%rbp)
   1c564:	7e ad                	jle    1c513 <main+0x76>
   1c566:	8b 05 c4 7a 00 00    	mov    0x7ac4(%rip),%eax        # 24030 <g_74>
   1c56c:	48 98                	cltq   
   1c56e:	8b 55 fc             	mov    -0x4(%rbp),%edx
   1c571:	48 8d 35 21 46 00 00 	lea    0x4621(%rip),%rsi        # 20b99 <g_2439+0x2b19>
   1c578:	48 89 c7             	mov    %rax,%rdi
   1c57b:	e8 73 e1 fe ff       	callq  a6f3 <transparent_crc>
   1c580:	c7 45 f0 00 00 00 00 	movl   $0x0,-0x10(%rbp)
   1c587:	e9 9e 00 00 00       	jmpq   1c62a <main+0x18d>
   1c58c:	c7 45 f4 00 00 00 00 	movl   $0x0,-0xc(%rbp)
   1c593:	e9 84 00 00 00       	jmpq   1c61c <main+0x17f>
   1c598:	c7 45 f8 00 00 00 00 	movl   $0x0,-0x8(%rbp)
   1c59f:	eb 71                	jmp    1c612 <main+0x175>
   1c5a1:	8b 45 f8             	mov    -0x8(%rbp),%eax
   1c5a4:	48 63 f0             	movslq %eax,%rsi
   1c5a7:	8b 45 f4             	mov    -0xc(%rbp),%eax
   1c5aa:	48 63 c8             	movslq %eax,%rcx
   1c5ad:	8b 45 f0             	mov    -0x10(%rbp),%eax
   1c5b0:	48 63 d0             	movslq %eax,%rdx
   1c5b3:	48 89 d0             	mov    %rdx,%rax
   1c5b6:	48 c1 e0 02          	shl    $0x2,%rax
   1c5ba:	48 01 d0             	add    %rdx,%rax
   1c5bd:	48 01 c0             	add    %rax,%rax
   1c5c0:	48 01 f0             	add    %rsi,%rax
   1c5c3:	48 01 c8             	add    %rcx,%rax
   1c5c6:	48 8d 14 85 00 00 00 	lea    0x0(,%rax,4),%rdx
   1c5cd:	00 
   1c5ce:	48 8d 05 6b 7a 00 00 	lea    0x7a6b(%rip),%rax        # 24040 <g_75>
   1c5d5:	8b 04 02             	mov    (%rdx,%rax,1),%eax
   1c5d8:	48 98                	cltq   
   1c5da:	8b 55 fc             	mov    -0x4(%rbp),%edx
   1c5dd:	48 8d 35 ba 45 00 00 	lea    0x45ba(%rip),%rsi        # 20b9e <g_2439+0x2b1e>
   1c5e4:	48 89 c7             	mov    %rax,%rdi
   1c5e7:	e8 07 e1 fe ff       	callq  a6f3 <transparent_crc>
   1c5ec:	83 7d fc 00          	cmpl   $0x0,-0x4(%rbp)
   1c5f0:	74 1c                	je     1c60e <main+0x171>
   1c5f2:	8b 4d f8             	mov    -0x8(%rbp),%ecx
   1c5f5:	8b 55 f4             	mov    -0xc(%rbp),%edx
   1c5f8:	8b 45 f0             	mov    -0x10(%rbp),%eax
   1c5fb:	89 c6                	mov    %eax,%esi
   1c5fd:	48 8d 3d a8 45 00 00 	lea    0x45a8(%rip),%rdi        # 20bac <g_2439+0x2b2c>
   1c604:	b8 00 00 00 00       	mov    $0x0,%eax
   1c609:	e8 72 ca fe ff       	callq  9080 <printf@plt>
   1c60e:	83 45 f8 01          	addl   $0x1,-0x8(%rbp)
   1c612:	83 7d f8 00          	cmpl   $0x0,-0x8(%rbp)
   1c616:	7e 89                	jle    1c5a1 <main+0x104>
   1c618:	83 45 f4 01          	addl   $0x1,-0xc(%rbp)
   1c61c:	83 7d f4 09          	cmpl   $0x9,-0xc(%rbp)
   1c620:	0f 8e 72 ff ff ff    	jle    1c598 <main+0xfb>
   1c626:	83 45 f0 01          	addl   $0x1,-0x10(%rbp)
   1c62a:	83 7d f0 06          	cmpl   $0x6,-0x10(%rbp)
   1c62e:	0f 8e 58 ff ff ff    	jle    1c58c <main+0xef>
   1c634:	8b 05 1e 7b 00 00    	mov    0x7b1e(%rip),%eax        # 24158 <g_78>
   1c63a:	48 98                	cltq   
   1c63c:	8b 55 fc             	mov    -0x4(%rbp),%edx
   1c63f:	48 8d 35 7c 45 00 00 	lea    0x457c(%rip),%rsi        # 20bc2 <g_2439+0x2b42>
   1c646:	48 89 c7             	mov    %rax,%rdi
   1c649:	e8 a5 e0 fe ff       	callq  a6f3 <transparent_crc>
   1c64e:	8b 05 08 7b 00 00    	mov    0x7b08(%rip),%eax        # 2415c <g_80>
   1c654:	48 98                	cltq   
   1c656:	8b 55 fc             	mov    -0x4(%rbp),%edx
   1c659:	48 8d 35 67 45 00 00 	lea    0x4567(%rip),%rsi        # 20bc7 <g_2439+0x2b47>
   1c660:	48 89 c7             	mov    %rax,%rdi
   1c663:	e8 8b e0 fe ff       	callq  a6f3 <transparent_crc>
   1c668:	0f b6 05 f1 7a 00 00 	movzbl 0x7af1(%rip),%eax        # 24160 <g_104>
   1c66f:	48 0f be c0          	movsbq %al,%rax
   1c673:	8b 55 fc             	mov    -0x4(%rbp),%edx
   1c676:	48 8d 35 4f 45 00 00 	lea    0x454f(%rip),%rsi        # 20bcc <g_2439+0x2b4c>
   1c67d:	48 89 c7             	mov    %rax,%rdi
   1c680:	e8 6e e0 fe ff       	callq  a6f3 <transparent_crc>
   1c685:	8b 05 d9 7a 00 00    	mov    0x7ad9(%rip),%eax        # 24164 <g_109>
   1c68b:	89 c1                	mov    %eax,%ecx
   1c68d:	8b 45 fc             	mov    -0x4(%rbp),%eax
   1c690:	89 c2                	mov    %eax,%edx
   1c692:	48 8d 35 39 45 00 00 	lea    0x4539(%rip),%rsi        # 20bd2 <g_2439+0x2b52>
   1c699:	48 89 cf             	mov    %rcx,%rdi
   1c69c:	e8 52 e0 fe ff       	callq  a6f3 <transparent_crc>
   1c6a1:	48 8b 05 c0 7a 00 00 	mov    0x7ac0(%rip),%rax        # 24168 <g_126>
   1c6a8:	8b 55 fc             	mov    -0x4(%rbp),%edx
   1c6ab:	48 8d 35 26 45 00 00 	lea    0x4526(%rip),%rsi        # 20bd8 <g_2439+0x2b58>
   1c6b2:	48 89 c7             	mov    %rax,%rdi
   1c6b5:	e8 39 e0 fe ff       	callq  a6f3 <transparent_crc>
   1c6ba:	c7 45 f0 00 00 00 00 	movl   $0x0,-0x10(%rbp)
   1c6c1:	eb 77                	jmp    1c73a <main+0x29d>
   1c6c3:	c7 45 f4 00 00 00 00 	movl   $0x0,-0xc(%rbp)
   1c6ca:	eb 64                	jmp    1c730 <main+0x293>
   1c6cc:	8b 45 f4             	mov    -0xc(%rbp),%eax
   1c6cf:	48 63 c8             	movslq %eax,%rcx
   1c6d2:	8b 45 f0             	mov    -0x10(%rbp),%eax
   1c6d5:	48 63 d0             	movslq %eax,%rdx
   1c6d8:	48 89 d0             	mov    %rdx,%rax
   1c6db:	48 c1 e0 02          	shl    $0x2,%rax
   1c6df:	48 01 d0             	add    %rdx,%rax
   1c6e2:	48 01 c0             	add    %rax,%rax
   1c6e5:	48 01 c8             	add    %rcx,%rax
   1c6e8:	48 8d 14 00          	lea    (%rax,%rax,1),%rdx
   1c6ec:	48 8d 05 8d 7a 00 00 	lea    0x7a8d(%rip),%rax        # 24180 <g_142>
   1c6f3:	0f b7 04 02          	movzwl (%rdx,%rax,1),%eax
   1c6f7:	48 0f bf c0          	movswq %ax,%rax
   1c6fb:	8b 55 fc             	mov    -0x4(%rbp),%edx
   1c6fe:	48 8d 35 d9 44 00 00 	lea    0x44d9(%rip),%rsi        # 20bde <g_2439+0x2b5e>
   1c705:	48 89 c7             	mov    %rax,%rdi
   1c708:	e8 e6 df fe ff       	callq  a6f3 <transparent_crc>
   1c70d:	83 7d fc 00          	cmpl   $0x0,-0x4(%rbp)
   1c711:	74 19                	je     1c72c <main+0x28f>
   1c713:	8b 55 f4             	mov    -0xc(%rbp),%edx
   1c716:	8b 45 f0             	mov    -0x10(%rbp),%eax
   1c719:	89 c6                	mov    %eax,%esi
   1c71b:	48 8d 3d c8 44 00 00 	lea    0x44c8(%rip),%rdi        # 20bea <g_2439+0x2b6a>
   1c722:	b8 00 00 00 00       	mov    $0x0,%eax
   1c727:	e8 54 c9 fe ff       	callq  9080 <printf@plt>
   1c72c:	83 45 f4 01          	addl   $0x1,-0xc(%rbp)
   1c730:	83 7d f4 09          	cmpl   $0x9,-0xc(%rbp)
   1c734:	7e 96                	jle    1c6cc <main+0x22f>
   1c736:	83 45 f0 01          	addl   $0x1,-0x10(%rbp)
   1c73a:	83 7d f0 09          	cmpl   $0x9,-0x10(%rbp)
   1c73e:	7e 83                	jle    1c6c3 <main+0x226>
   1c740:	c7 45 f0 00 00 00 00 	movl   $0x0,-0x10(%rbp)
   1c747:	eb 4d                	jmp    1c796 <main+0x2f9>
   1c749:	8b 45 f0             	mov    -0x10(%rbp),%eax
   1c74c:	48 98                	cltq   
   1c74e:	48 8d 14 85 00 00 00 	lea    0x0(,%rax,4),%rdx
   1c755:	00 
   1c756:	48 8d 05 f3 7a 00 00 	lea    0x7af3(%rip),%rax        # 24250 <g_152>
   1c75d:	8b 04 02             	mov    (%rdx,%rax,1),%eax
   1c760:	89 c1                	mov    %eax,%ecx
   1c762:	8b 45 fc             	mov    -0x4(%rbp),%eax
   1c765:	89 c2                	mov    %eax,%edx
   1c767:	48 8d 35 8e 44 00 00 	lea    0x448e(%rip),%rsi        # 20bfc <g_2439+0x2b7c>
   1c76e:	48 89 cf             	mov    %rcx,%rdi
   1c771:	e8 7d df fe ff       	callq  a6f3 <transparent_crc>
   1c776:	83 7d fc 00          	cmpl   $0x0,-0x4(%rbp)
   1c77a:	74 16                	je     1c792 <main+0x2f5>
   1c77c:	8b 45 f0             	mov    -0x10(%rbp),%eax
   1c77f:	89 c6                	mov    %eax,%esi
   1c781:	48 8d 3d 03 44 00 00 	lea    0x4403(%rip),%rdi        # 20b8b <g_2439+0x2b0b>
   1c788:	b8 00 00 00 00       	mov    $0x0,%eax
   1c78d:	e8 ee c8 fe ff       	callq  9080 <printf@plt>
   1c792:	83 45 f0 01          	addl   $0x1,-0x10(%rbp)
   1c796:	83 7d f0 06          	cmpl   $0x6,-0x10(%rbp)
   1c79a:	7e ad                	jle    1c749 <main+0x2ac>
   1c79c:	8b 05 d6 7a 00 00    	mov    0x7ad6(%rip),%eax        # 24278 <g_206>
   1c7a2:	48 98                	cltq   
   1c7a4:	8b 55 fc             	mov    -0x4(%rbp),%edx
   1c7a7:	48 8d 35 57 44 00 00 	lea    0x4457(%rip),%rsi        # 20c05 <g_2439+0x2b85>
   1c7ae:	48 89 c7             	mov    %rax,%rdi
   1c7b1:	e8 3d df fe ff       	callq  a6f3 <transparent_crc>
   1c7b6:	8b 05 c0 7a 00 00    	mov    0x7ac0(%rip),%eax        # 2427c <g_274>
   1c7bc:	48 98                	cltq   
   1c7be:	8b 55 fc             	mov    -0x4(%rbp),%edx
   1c7c1:	48 8d 35 43 44 00 00 	lea    0x4443(%rip),%rsi        # 20c0b <g_2439+0x2b8b>
   1c7c8:	48 89 c7             	mov    %rax,%rdi
   1c7cb:	e8 23 df fe ff       	callq  a6f3 <transparent_crc>
   1c7d0:	8b 05 aa bf 00 00    	mov    0xbfaa(%rip),%eax        # 28780 <g_277>
   1c7d6:	48 98                	cltq   
   1c7d8:	8b 55 fc             	mov    -0x4(%rbp),%edx
   1c7db:	48 8d 35 2f 44 00 00 	lea    0x442f(%rip),%rsi        # 20c11 <g_2439+0x2b91>
   1c7e2:	48 89 c7             	mov    %rax,%rdi
   1c7e5:	e8 09 df fe ff       	callq  a6f3 <transparent_crc>
   1c7ea:	0f b7 05 8f 7a 00 00 	movzwl 0x7a8f(%rip),%eax        # 24280 <g_295>
   1c7f1:	0f b7 c0             	movzwl %ax,%eax
   1c7f4:	8b 55 fc             	mov    -0x4(%rbp),%edx
   1c7f7:	48 8d 35 19 44 00 00 	lea    0x4419(%rip),%rsi        # 20c17 <g_2439+0x2b97>
   1c7fe:	48 89 c7             	mov    %rax,%rdi
   1c801:	e8 ed de fe ff       	callq  a6f3 <transparent_crc>
   1c806:	0f b7 05 75 7a 00 00 	movzwl 0x7a75(%rip),%eax        # 24282 <g_335>
   1c80d:	48 0f bf c0          	movswq %ax,%rax
   1c811:	8b 55 fc             	mov    -0x4(%rbp),%edx
   1c814:	48 8d 35 02 44 00 00 	lea    0x4402(%rip),%rsi        # 20c1d <g_2439+0x2b9d>
   1c81b:	48 89 c7             	mov    %rax,%rdi
   1c81e:	e8 d0 de fe ff       	callq  a6f3 <transparent_crc>
   1c823:	c7 45 f0 00 00 00 00 	movl   $0x0,-0x10(%rbp)
   1c82a:	eb 4b                	jmp    1c877 <main+0x3da>
   1c82c:	8b 45 f0             	mov    -0x10(%rbp),%eax
   1c82f:	48 98                	cltq   
   1c831:	48 8d 14 85 00 00 00 	lea    0x0(,%rax,4),%rdx
   1c838:	00 
   1c839:	48 8d 05 60 7a 00 00 	lea    0x7a60(%rip),%rax        # 242a0 <g_389>
   1c840:	8b 04 02             	mov    (%rdx,%rax,1),%eax
   1c843:	48 98                	cltq   
   1c845:	8b 55 fc             	mov    -0x4(%rbp),%edx
   1c848:	48 8d 35 d4 43 00 00 	lea    0x43d4(%rip),%rsi        # 20c23 <g_2439+0x2ba3>
   1c84f:	48 89 c7             	mov    %rax,%rdi
   1c852:	e8 9c de fe ff       	callq  a6f3 <transparent_crc>
   1c857:	83 7d fc 00          	cmpl   $0x0,-0x4(%rbp)
   1c85b:	74 16                	je     1c873 <main+0x3d6>
   1c85d:	8b 45 f0             	mov    -0x10(%rbp),%eax
   1c860:	89 c6                	mov    %eax,%esi
   1c862:	48 8d 3d 22 43 00 00 	lea    0x4322(%rip),%rdi        # 20b8b <g_2439+0x2b0b>
   1c869:	b8 00 00 00 00       	mov    $0x0,%eax
   1c86e:	e8 0d c8 fe ff       	callq  9080 <printf@plt>
   1c873:	83 45 f0 01          	addl   $0x1,-0x10(%rbp)
   1c877:	83 7d f0 08          	cmpl   $0x8,-0x10(%rbp)
   1c87b:	7e af                	jle    1c82c <main+0x38f>
   1c87d:	48 8b 05 44 7a 00 00 	mov    0x7a44(%rip),%rax        # 242c8 <g_405>
   1c884:	8b 55 fc             	mov    -0x4(%rbp),%edx
   1c887:	48 8d 35 9e 43 00 00 	lea    0x439e(%rip),%rsi        # 20c2c <g_2439+0x2bac>
   1c88e:	48 89 c7             	mov    %rax,%rdi
   1c891:	e8 5d de fe ff       	callq  a6f3 <transparent_crc>
   1c896:	48 8b 05 33 7a 00 00 	mov    0x7a33(%rip),%rax        # 242d0 <g_513>
   1c89d:	48 89 c1             	mov    %rax,%rcx
   1c8a0:	8b 45 fc             	mov    -0x4(%rbp),%eax
   1c8a3:	89 c2                	mov    %eax,%edx
   1c8a5:	48 8d 35 86 43 00 00 	lea    0x4386(%rip),%rsi        # 20c32 <g_2439+0x2bb2>
   1c8ac:	48 89 cf             	mov    %rcx,%rdi
   1c8af:	e8 3f de fe ff       	callq  a6f3 <transparent_crc>
   1c8b4:	c7 45 f0 00 00 00 00 	movl   $0x0,-0x10(%rbp)
   1c8bb:	eb 73                	jmp    1c930 <main+0x493>
   1c8bd:	c7 45 f4 00 00 00 00 	movl   $0x0,-0xc(%rbp)
   1c8c4:	eb 60                	jmp    1c926 <main+0x489>
   1c8c6:	8b 45 f4             	mov    -0xc(%rbp),%eax
   1c8c9:	48 63 c8             	movslq %eax,%rcx
   1c8cc:	8b 45 f0             	mov    -0x10(%rbp),%eax
   1c8cf:	48 63 d0             	movslq %eax,%rdx
   1c8d2:	48 89 d0             	mov    %rdx,%rax
   1c8d5:	48 c1 e0 02          	shl    $0x2,%rax
   1c8d9:	48 01 d0             	add    %rdx,%rax
   1c8dc:	48 8d 14 08          	lea    (%rax,%rcx,1),%rdx
   1c8e0:	48 8d 05 f1 79 00 00 	lea    0x79f1(%rip),%rax        # 242d8 <g_539>
   1c8e7:	48 01 d0             	add    %rdx,%rax
   1c8ea:	0f b6 00             	movzbl (%rax),%eax
   1c8ed:	48 0f be c0          	movsbq %al,%rax
   1c8f1:	8b 55 fc             	mov    -0x4(%rbp),%edx
   1c8f4:	48 8d 35 3d 43 00 00 	lea    0x433d(%rip),%rsi        # 20c38 <g_2439+0x2bb8>
   1c8fb:	48 89 c7             	mov    %rax,%rdi
   1c8fe:	e8 f0 dd fe ff       	callq  a6f3 <transparent_crc>
   1c903:	83 7d fc 00          	cmpl   $0x0,-0x4(%rbp)
   1c907:	74 19                	je     1c922 <main+0x485>
   1c909:	8b 55 f4             	mov    -0xc(%rbp),%edx
   1c90c:	8b 45 f0             	mov    -0x10(%rbp),%eax
   1c90f:	89 c6                	mov    %eax,%esi
   1c911:	48 8d 3d d2 42 00 00 	lea    0x42d2(%rip),%rdi        # 20bea <g_2439+0x2b6a>
   1c918:	b8 00 00 00 00       	mov    $0x0,%eax
   1c91d:	e8 5e c7 fe ff       	callq  9080 <printf@plt>
   1c922:	83 45 f4 01          	addl   $0x1,-0xc(%rbp)
   1c926:	83 7d f4 04          	cmpl   $0x4,-0xc(%rbp)
   1c92a:	7e 9a                	jle    1c8c6 <main+0x429>
   1c92c:	83 45 f0 01          	addl   $0x1,-0x10(%rbp)
   1c930:	83 7d f0 00          	cmpl   $0x0,-0x10(%rbp)
   1c934:	7e 87                	jle    1c8bd <main+0x420>
   1c936:	c7 45 f0 00 00 00 00 	movl   $0x0,-0x10(%rbp)
   1c93d:	eb 4d                	jmp    1c98c <main+0x4ef>
   1c93f:	8b 45 f0             	mov    -0x10(%rbp),%eax
   1c942:	48 98                	cltq   
   1c944:	48 8d 14 85 00 00 00 	lea    0x0(,%rax,4),%rdx
   1c94b:	00 
   1c94c:	48 8d 05 0d 17 00 00 	lea    0x170d(%rip),%rax        # 1e060 <g_602>
   1c953:	8b 04 02             	mov    (%rdx,%rax,1),%eax
   1c956:	89 c1                	mov    %eax,%ecx
   1c958:	8b 45 fc             	mov    -0x4(%rbp),%eax
   1c95b:	89 c2                	mov    %eax,%edx
   1c95d:	48 8d 35 e0 42 00 00 	lea    0x42e0(%rip),%rsi        # 20c44 <g_2439+0x2bc4>
   1c964:	48 89 cf             	mov    %rcx,%rdi
   1c967:	e8 87 dd fe ff       	callq  a6f3 <transparent_crc>
   1c96c:	83 7d fc 00          	cmpl   $0x0,-0x4(%rbp)
   1c970:	74 16                	je     1c988 <main+0x4eb>
   1c972:	8b 45 f0             	mov    -0x10(%rbp),%eax
   1c975:	89 c6                	mov    %eax,%esi
   1c977:	48 8d 3d 0d 42 00 00 	lea    0x420d(%rip),%rdi        # 20b8b <g_2439+0x2b0b>
   1c97e:	b8 00 00 00 00       	mov    $0x0,%eax
   1c983:	e8 f8 c6 fe ff       	callq  9080 <printf@plt>
   1c988:	83 45 f0 01          	addl   $0x1,-0x10(%rbp)
   1c98c:	83 7d f0 04          	cmpl   $0x4,-0x10(%rbp)
   1c990:	7e ad                	jle    1c93f <main+0x4a2>
   1c992:	48 8b 05 47 79 00 00 	mov    0x7947(%rip),%rax        # 242e0 <g_603>
   1c999:	48 89 c1             	mov    %rax,%rcx
   1c99c:	8b 45 fc             	mov    -0x4(%rbp),%eax
   1c99f:	89 c2                	mov    %eax,%edx
   1c9a1:	48 8d 35 a5 42 00 00 	lea    0x42a5(%rip),%rsi        # 20c4d <g_2439+0x2bcd>
   1c9a8:	48 89 cf             	mov    %rcx,%rdi
   1c9ab:	e8 43 dd fe ff       	callq  a6f3 <transparent_crc>
   1c9b0:	48 8b 05 31 79 00 00 	mov    0x7931(%rip),%rax        # 242e8 <g_607>
   1c9b7:	8b 55 fc             	mov    -0x4(%rbp),%edx
   1c9ba:	48 8d 35 92 42 00 00 	lea    0x4292(%rip),%rsi        # 20c53 <g_2439+0x2bd3>
   1c9c1:	48 89 c7             	mov    %rax,%rdi
   1c9c4:	e8 2a dd fe ff       	callq  a6f3 <transparent_crc>
   1c9c9:	0f b6 05 20 79 00 00 	movzbl 0x7920(%rip),%eax        # 242f0 <g_636>
   1c9d0:	0f b6 c0             	movzbl %al,%eax
   1c9d3:	8b 55 fc             	mov    -0x4(%rbp),%edx
   1c9d6:	48 8d 35 7c 42 00 00 	lea    0x427c(%rip),%rsi        # 20c59 <g_2439+0x2bd9>
   1c9dd:	48 89 c7             	mov    %rax,%rdi
   1c9e0:	e8 0e dd fe ff       	callq  a6f3 <transparent_crc>
   1c9e5:	0f b6 05 05 79 00 00 	movzbl 0x7905(%rip),%eax        # 242f1 <g_771>
   1c9ec:	48 0f be c0          	movsbq %al,%rax
   1c9f0:	8b 55 fc             	mov    -0x4(%rbp),%edx
   1c9f3:	48 8d 35 65 42 00 00 	lea    0x4265(%rip),%rsi        # 20c5f <g_2439+0x2bdf>
   1c9fa:	48 89 c7             	mov    %rax,%rdi
   1c9fd:	e8 f1 dc fe ff       	callq  a6f3 <transparent_crc>
   1ca02:	0f b6 05 e9 78 00 00 	movzbl 0x78e9(%rip),%eax        # 242f2 <g_777>
   1ca09:	0f b6 c0             	movzbl %al,%eax
   1ca0c:	8b 55 fc             	mov    -0x4(%rbp),%edx
   1ca0f:	48 8d 35 4f 42 00 00 	lea    0x424f(%rip),%rsi        # 20c65 <g_2439+0x2be5>
   1ca16:	48 89 c7             	mov    %rax,%rdi
   1ca19:	e8 d5 dc fe ff       	callq  a6f3 <transparent_crc>
   1ca1e:	0f b7 05 cf 78 00 00 	movzwl 0x78cf(%rip),%eax        # 242f4 <g_820>
   1ca25:	0f b7 c0             	movzwl %ax,%eax
   1ca28:	8b 55 fc             	mov    -0x4(%rbp),%edx
   1ca2b:	48 8d 35 39 42 00 00 	lea    0x4239(%rip),%rsi        # 20c6b <g_2439+0x2beb>
   1ca32:	48 89 c7             	mov    %rax,%rdi
   1ca35:	e8 b9 dc fe ff       	callq  a6f3 <transparent_crc>
   1ca3a:	48 8b 05 b7 78 00 00 	mov    0x78b7(%rip),%rax        # 242f8 <g_824>
   1ca41:	48 89 c1             	mov    %rax,%rcx
   1ca44:	8b 45 fc             	mov    -0x4(%rbp),%eax
   1ca47:	89 c2                	mov    %eax,%edx
   1ca49:	48 8d 35 21 42 00 00 	lea    0x4221(%rip),%rsi        # 20c71 <g_2439+0x2bf1>
   1ca50:	48 89 cf             	mov    %rcx,%rdi
   1ca53:	e8 9b dc fe ff       	callq  a6f3 <transparent_crc>
   1ca58:	8b 05 a2 78 00 00    	mov    0x78a2(%rip),%eax        # 24300 <g_826>
   1ca5e:	89 c1                	mov    %eax,%ecx
   1ca60:	8b 45 fc             	mov    -0x4(%rbp),%eax
   1ca63:	89 c2                	mov    %eax,%edx
   1ca65:	48 8d 35 0b 42 00 00 	lea    0x420b(%rip),%rsi        # 20c77 <g_2439+0x2bf7>
   1ca6c:	48 89 cf             	mov    %rcx,%rdi
   1ca6f:	e8 7f dc fe ff       	callq  a6f3 <transparent_crc>
   1ca74:	c7 45 f0 00 00 00 00 	movl   $0x0,-0x10(%rbp)
   1ca7b:	eb 75                	jmp    1caf2 <main+0x655>
   1ca7d:	c7 45 f4 00 00 00 00 	movl   $0x0,-0xc(%rbp)
   1ca84:	eb 62                	jmp    1cae8 <main+0x64b>
   1ca86:	8b 45 f4             	mov    -0xc(%rbp),%eax
   1ca89:	48 63 c8             	movslq %eax,%rcx
   1ca8c:	8b 45 f0             	mov    -0x10(%rbp),%eax
   1ca8f:	48 63 d0             	movslq %eax,%rdx
   1ca92:	48 89 d0             	mov    %rdx,%rax
   1ca95:	48 01 c0             	add    %rax,%rax
   1ca98:	48 01 d0             	add    %rdx,%rax
   1ca9b:	48 01 c0             	add    %rax,%rax
   1ca9e:	48 01 c8             	add    %rcx,%rax
   1caa1:	48 8d 14 00          	lea    (%rax,%rax,1),%rdx
   1caa5:	48 8d 05 74 78 00 00 	lea    0x7874(%rip),%rax        # 24320 <g_893>
   1caac:	0f b7 04 02          	movzwl (%rdx,%rax,1),%eax
   1cab0:	0f b7 c0             	movzwl %ax,%eax
   1cab3:	8b 55 fc             	mov    -0x4(%rbp),%edx
   1cab6:	48 8d 35 c0 41 00 00 	lea    0x41c0(%rip),%rsi        # 20c7d <g_2439+0x2bfd>
   1cabd:	48 89 c7             	mov    %rax,%rdi
   1cac0:	e8 2e dc fe ff       	callq  a6f3 <transparent_crc>
   1cac5:	83 7d fc 00          	cmpl   $0x0,-0x4(%rbp)
   1cac9:	74 19                	je     1cae4 <main+0x647>
   1cacb:	8b 55 f4             	mov    -0xc(%rbp),%edx
   1cace:	8b 45 f0             	mov    -0x10(%rbp),%eax
   1cad1:	89 c6                	mov    %eax,%esi
   1cad3:	48 8d 3d 10 41 00 00 	lea    0x4110(%rip),%rdi        # 20bea <g_2439+0x2b6a>
   1cada:	b8 00 00 00 00       	mov    $0x0,%eax
   1cadf:	e8 9c c5 fe ff       	callq  9080 <printf@plt>
   1cae4:	83 45 f4 01          	addl   $0x1,-0xc(%rbp)
   1cae8:	83 7d f4 05          	cmpl   $0x5,-0xc(%rbp)
   1caec:	7e 98                	jle    1ca86 <main+0x5e9>
   1caee:	83 45 f0 01          	addl   $0x1,-0x10(%rbp)
   1caf2:	83 7d f0 06          	cmpl   $0x6,-0x10(%rbp)
   1caf6:	7e 85                	jle    1ca7d <main+0x5e0>
   1caf8:	48 8b 05 79 78 00 00 	mov    0x7879(%rip),%rax        # 24378 <g_956>
   1caff:	8b 55 fc             	mov    -0x4(%rbp),%edx
   1cb02:	48 8d 35 80 41 00 00 	lea    0x4180(%rip),%rsi        # 20c89 <g_2439+0x2c09>
   1cb09:	48 89 c7             	mov    %rax,%rdi
   1cb0c:	e8 e2 db fe ff       	callq  a6f3 <transparent_crc>
   1cb11:	8b 05 69 78 00 00    	mov    0x7869(%rip),%eax        # 24380 <g_1101>
   1cb17:	48 98                	cltq   
   1cb19:	8b 55 fc             	mov    -0x4(%rbp),%edx
   1cb1c:	48 8d 35 6c 41 00 00 	lea    0x416c(%rip),%rsi        # 20c8f <g_2439+0x2c0f>
   1cb23:	48 89 c7             	mov    %rax,%rdi
   1cb26:	e8 c8 db fe ff       	callq  a6f3 <transparent_crc>
   1cb2b:	8b 05 97 bc 00 00    	mov    0xbc97(%rip),%eax        # 287c8 <g_1151>
   1cb31:	89 c1                	mov    %eax,%ecx
   1cb33:	8b 45 fc             	mov    -0x4(%rbp),%eax
   1cb36:	89 c2                	mov    %eax,%edx
   1cb38:	48 8d 35 57 41 00 00 	lea    0x4157(%rip),%rsi        # 20c96 <g_2439+0x2c16>
   1cb3f:	48 89 cf             	mov    %rcx,%rdi
   1cb42:	e8 ac db fe ff       	callq  a6f3 <transparent_crc>
   1cb47:	c7 45 f0 00 00 00 00 	movl   $0x0,-0x10(%rbp)
   1cb4e:	eb 45                	jmp    1cb95 <main+0x6f8>
   1cb50:	8b 45 f0             	mov    -0x10(%rbp),%eax
   1cb53:	48 98                	cltq   
   1cb55:	48 8d 15 28 78 00 00 	lea    0x7828(%rip),%rdx        # 24384 <g_1340>
   1cb5c:	0f b6 04 10          	movzbl (%rax,%rdx,1),%eax
   1cb60:	0f b6 c0             	movzbl %al,%eax
   1cb63:	8b 55 fc             	mov    -0x4(%rbp),%edx
   1cb66:	48 8d 35 30 41 00 00 	lea    0x4130(%rip),%rsi        # 20c9d <g_2439+0x2c1d>
   1cb6d:	48 89 c7             	mov    %rax,%rdi
   1cb70:	e8 7e db fe ff       	callq  a6f3 <transparent_crc>
   1cb75:	83 7d fc 00          	cmpl   $0x0,-0x4(%rbp)
   1cb79:	74 16                	je     1cb91 <main+0x6f4>
   1cb7b:	8b 45 f0             	mov    -0x10(%rbp),%eax
   1cb7e:	89 c6                	mov    %eax,%esi
   1cb80:	48 8d 3d 04 40 00 00 	lea    0x4004(%rip),%rdi        # 20b8b <g_2439+0x2b0b>
   1cb87:	b8 00 00 00 00       	mov    $0x0,%eax
   1cb8c:	e8 ef c4 fe ff       	callq  9080 <printf@plt>
   1cb91:	83 45 f0 01          	addl   $0x1,-0x10(%rbp)
   1cb95:	83 7d f0 01          	cmpl   $0x1,-0x10(%rbp)
   1cb99:	7e b5                	jle    1cb50 <main+0x6b3>
   1cb9b:	48 8b 05 2e bc 00 00 	mov    0xbc2e(%rip),%rax        # 287d0 <g_1367>
   1cba2:	8b 55 fc             	mov    -0x4(%rbp),%edx
   1cba5:	48 8d 35 fb 40 00 00 	lea    0x40fb(%rip),%rsi        # 20ca7 <g_2439+0x2c27>
   1cbac:	48 89 c7             	mov    %rax,%rdi
   1cbaf:	e8 3f db fe ff       	callq  a6f3 <transparent_crc>
   1cbb4:	c7 45 f0 00 00 00 00 	movl   $0x0,-0x10(%rbp)
   1cbbb:	eb 4f                	jmp    1cc0c <main+0x76f>
   1cbbd:	8b 45 f0             	mov    -0x10(%rbp),%eax
   1cbc0:	48 98                	cltq   
   1cbc2:	48 8d 14 c5 00 00 00 	lea    0x0(,%rax,8),%rdx
   1cbc9:	00 
   1cbca:	48 8d 05 cf 77 00 00 	lea    0x77cf(%rip),%rax        # 243a0 <g_1477>
   1cbd1:	48 8b 04 02          	mov    (%rdx,%rax,1),%rax
   1cbd5:	48 89 c1             	mov    %rax,%rcx
   1cbd8:	8b 45 fc             	mov    -0x4(%rbp),%eax
   1cbdb:	89 c2                	mov    %eax,%edx
   1cbdd:	48 8d 35 ca 40 00 00 	lea    0x40ca(%rip),%rsi        # 20cae <g_2439+0x2c2e>
   1cbe4:	48 89 cf             	mov    %rcx,%rdi
   1cbe7:	e8 07 db fe ff       	callq  a6f3 <transparent_crc>
   1cbec:	83 7d fc 00          	cmpl   $0x0,-0x4(%rbp)
   1cbf0:	74 16                	je     1cc08 <main+0x76b>
   1cbf2:	8b 45 f0             	mov    -0x10(%rbp),%eax
   1cbf5:	89 c6                	mov    %eax,%esi
   1cbf7:	48 8d 3d 8d 3f 00 00 	lea    0x3f8d(%rip),%rdi        # 20b8b <g_2439+0x2b0b>
   1cbfe:	b8 00 00 00 00       	mov    $0x0,%eax
   1cc03:	e8 78 c4 fe ff       	callq  9080 <printf@plt>
   1cc08:	83 45 f0 01          	addl   $0x1,-0x10(%rbp)
   1cc0c:	83 7d f0 08          	cmpl   $0x8,-0x10(%rbp)
   1cc10:	7e ab                	jle    1cbbd <main+0x720>
   1cc12:	c7 45 f0 00 00 00 00 	movl   $0x0,-0x10(%rbp)
   1cc19:	eb 46                	jmp    1cc61 <main+0x7c4>
   1cc1b:	8b 45 f0             	mov    -0x10(%rbp),%eax
   1cc1e:	48 98                	cltq   
   1cc20:	48 8d 15 c1 77 00 00 	lea    0x77c1(%rip),%rdx        # 243e8 <g_1959>
   1cc27:	0f b6 04 10          	movzbl (%rax,%rdx,1),%eax
   1cc2b:	48 0f be c0          	movsbq %al,%rax
   1cc2f:	8b 55 fc             	mov    -0x4(%rbp),%edx
   1cc32:	48 8d 35 7f 40 00 00 	lea    0x407f(%rip),%rsi        # 20cb8 <g_2439+0x2c38>
   1cc39:	48 89 c7             	mov    %rax,%rdi
   1cc3c:	e8 b2 da fe ff       	callq  a6f3 <transparent_crc>
   1cc41:	83 7d fc 00          	cmpl   $0x0,-0x4(%rbp)
   1cc45:	74 16                	je     1cc5d <main+0x7c0>
   1cc47:	8b 45 f0             	mov    -0x10(%rbp),%eax
   1cc4a:	89 c6                	mov    %eax,%esi
   1cc4c:	48 8d 3d 38 3f 00 00 	lea    0x3f38(%rip),%rdi        # 20b8b <g_2439+0x2b0b>
   1cc53:	b8 00 00 00 00       	mov    $0x0,%eax
   1cc58:	e8 23 c4 fe ff       	callq  9080 <printf@plt>
   1cc5d:	83 45 f0 01          	addl   $0x1,-0x10(%rbp)
   1cc61:	83 7d f0 00          	cmpl   $0x0,-0x10(%rbp)
   1cc65:	7e b4                	jle    1cc1b <main+0x77e>
   1cc67:	48 8b 05 82 77 00 00 	mov    0x7782(%rip),%rax        # 243f0 <g_1982>
   1cc6e:	8b 55 fc             	mov    -0x4(%rbp),%edx
   1cc71:	48 8d 35 4a 40 00 00 	lea    0x404a(%rip),%rsi        # 20cc2 <g_2439+0x2c42>
   1cc78:	48 89 c7             	mov    %rax,%rdi
   1cc7b:	e8 73 da fe ff       	callq  a6f3 <transparent_crc>
   1cc80:	48 8b 05 69 bb 00 00 	mov    0xbb69(%rip),%rax        # 287f0 <g_1983>
   1cc87:	8b 55 fc             	mov    -0x4(%rbp),%edx
   1cc8a:	48 8d 35 38 40 00 00 	lea    0x4038(%rip),%rsi        # 20cc9 <g_2439+0x2c49>
   1cc91:	48 89 c7             	mov    %rax,%rdi
   1cc94:	e8 5a da fe ff       	callq  a6f3 <transparent_crc>
   1cc99:	48 8b 05 58 77 00 00 	mov    0x7758(%rip),%rax        # 243f8 <g_1984>
   1cca0:	8b 55 fc             	mov    -0x4(%rbp),%edx
   1cca3:	48 8d 35 26 40 00 00 	lea    0x4026(%rip),%rsi        # 20cd0 <g_2439+0x2c50>
   1ccaa:	48 89 c7             	mov    %rax,%rdi
   1ccad:	e8 41 da fe ff       	callq  a6f3 <transparent_crc>
   1ccb2:	48 8b 05 47 77 00 00 	mov    0x7747(%rip),%rax        # 24400 <g_1985>
   1ccb9:	8b 55 fc             	mov    -0x4(%rbp),%edx
   1ccbc:	48 8d 35 14 40 00 00 	lea    0x4014(%rip),%rsi        # 20cd7 <g_2439+0x2c57>
   1ccc3:	48 89 c7             	mov    %rax,%rdi
   1ccc6:	e8 28 da fe ff       	callq  a6f3 <transparent_crc>
   1cccb:	48 8b 05 36 77 00 00 	mov    0x7736(%rip),%rax        # 24408 <g_1986>
   1ccd2:	8b 55 fc             	mov    -0x4(%rbp),%edx
   1ccd5:	48 8d 35 02 40 00 00 	lea    0x4002(%rip),%rsi        # 20cde <g_2439+0x2c5e>
   1ccdc:	48 89 c7             	mov    %rax,%rdi
   1ccdf:	e8 0f da fe ff       	callq  a6f3 <transparent_crc>
   1cce4:	48 8b 05 25 77 00 00 	mov    0x7725(%rip),%rax        # 24410 <g_1987>
   1cceb:	8b 55 fc             	mov    -0x4(%rbp),%edx
   1ccee:	48 8d 35 f0 3f 00 00 	lea    0x3ff0(%rip),%rsi        # 20ce5 <g_2439+0x2c65>
   1ccf5:	48 89 c7             	mov    %rax,%rdi
   1ccf8:	e8 f6 d9 fe ff       	callq  a6f3 <transparent_crc>
   1ccfd:	48 8b 05 14 77 00 00 	mov    0x7714(%rip),%rax        # 24418 <g_1988>
   1cd04:	8b 55 fc             	mov    -0x4(%rbp),%edx
   1cd07:	48 8d 35 de 3f 00 00 	lea    0x3fde(%rip),%rsi        # 20cec <g_2439+0x2c6c>
   1cd0e:	48 89 c7             	mov    %rax,%rdi
   1cd11:	e8 dd d9 fe ff       	callq  a6f3 <transparent_crc>
   1cd16:	48 8b 05 03 77 00 00 	mov    0x7703(%rip),%rax        # 24420 <g_1989>
   1cd1d:	8b 55 fc             	mov    -0x4(%rbp),%edx
   1cd20:	48 8d 35 cc 3f 00 00 	lea    0x3fcc(%rip),%rsi        # 20cf3 <g_2439+0x2c73>
   1cd27:	48 89 c7             	mov    %rax,%rdi
   1cd2a:	e8 c4 d9 fe ff       	callq  a6f3 <transparent_crc>
   1cd2f:	48 8b 05 f2 76 00 00 	mov    0x76f2(%rip),%rax        # 24428 <g_1990>
   1cd36:	8b 55 fc             	mov    -0x4(%rbp),%edx
   1cd39:	48 8d 35 ba 3f 00 00 	lea    0x3fba(%rip),%rsi        # 20cfa <g_2439+0x2c7a>
   1cd40:	48 89 c7             	mov    %rax,%rdi
   1cd43:	e8 ab d9 fe ff       	callq  a6f3 <transparent_crc>
   1cd48:	48 8b 05 e1 76 00 00 	mov    0x76e1(%rip),%rax        # 24430 <g_1991>
   1cd4f:	8b 55 fc             	mov    -0x4(%rbp),%edx
   1cd52:	48 8d 35 a8 3f 00 00 	lea    0x3fa8(%rip),%rsi        # 20d01 <g_2439+0x2c81>
   1cd59:	48 89 c7             	mov    %rax,%rdi
   1cd5c:	e8 92 d9 fe ff       	callq  a6f3 <transparent_crc>
   1cd61:	48 8b 05 d0 76 00 00 	mov    0x76d0(%rip),%rax        # 24438 <g_1992>
   1cd68:	8b 55 fc             	mov    -0x4(%rbp),%edx
   1cd6b:	48 8d 35 96 3f 00 00 	lea    0x3f96(%rip),%rsi        # 20d08 <g_2439+0x2c88>
   1cd72:	48 89 c7             	mov    %rax,%rdi
   1cd75:	e8 79 d9 fe ff       	callq  a6f3 <transparent_crc>
   1cd7a:	c7 45 f0 00 00 00 00 	movl   $0x0,-0x10(%rbp)
   1cd81:	eb 4a                	jmp    1cdcd <main+0x930>
   1cd83:	8b 45 f0             	mov    -0x10(%rbp),%eax
   1cd86:	48 98                	cltq   
   1cd88:	48 8d 14 c5 00 00 00 	lea    0x0(,%rax,8),%rdx
   1cd8f:	00 
   1cd90:	48 8d 05 a9 76 00 00 	lea    0x76a9(%rip),%rax        # 24440 <g_1993>
   1cd97:	48 8b 04 02          	mov    (%rdx,%rax,1),%rax
   1cd9b:	8b 55 fc             	mov    -0x4(%rbp),%edx
   1cd9e:	48 8d 35 6a 3f 00 00 	lea    0x3f6a(%rip),%rsi        # 20d0f <g_2439+0x2c8f>
   1cda5:	48 89 c7             	mov    %rax,%rdi
   1cda8:	e8 46 d9 fe ff       	callq  a6f3 <transparent_crc>
   1cdad:	83 7d fc 00          	cmpl   $0x0,-0x4(%rbp)
   1cdb1:	74 16                	je     1cdc9 <main+0x92c>
   1cdb3:	8b 45 f0             	mov    -0x10(%rbp),%eax
   1cdb6:	89 c6                	mov    %eax,%esi
   1cdb8:	48 8d 3d cc 3d 00 00 	lea    0x3dcc(%rip),%rdi        # 20b8b <g_2439+0x2b0b>
   1cdbf:	b8 00 00 00 00       	mov    $0x0,%eax
   1cdc4:	e8 b7 c2 fe ff       	callq  9080 <printf@plt>
   1cdc9:	83 45 f0 01          	addl   $0x1,-0x10(%rbp)
   1cdcd:	83 7d f0 01          	cmpl   $0x1,-0x10(%rbp)
   1cdd1:	7e b0                	jle    1cd83 <main+0x8e6>
   1cdd3:	48 8b 05 76 76 00 00 	mov    0x7676(%rip),%rax        # 24450 <g_1994>
   1cdda:	8b 55 fc             	mov    -0x4(%rbp),%edx
   1cddd:	48 8d 35 35 3f 00 00 	lea    0x3f35(%rip),%rsi        # 20d19 <g_2439+0x2c99>
   1cde4:	48 89 c7             	mov    %rax,%rdi
   1cde7:	e8 07 d9 fe ff       	callq  a6f3 <transparent_crc>
   1cdec:	c7 45 f0 00 00 00 00 	movl   $0x0,-0x10(%rbp)
   1cdf3:	e9 a6 00 00 00       	jmpq   1ce9e <main+0xa01>
   1cdf8:	c7 45 f4 00 00 00 00 	movl   $0x0,-0xc(%rbp)
   1cdff:	e9 8c 00 00 00       	jmpq   1ce90 <main+0x9f3>
   1ce04:	c7 45 f8 00 00 00 00 	movl   $0x0,-0x8(%rbp)
   1ce0b:	eb 79                	jmp    1ce86 <main+0x9e9>
   1ce0d:	8b 45 f8             	mov    -0x8(%rbp),%eax
   1ce10:	48 63 f0             	movslq %eax,%rsi
   1ce13:	8b 45 f0             	mov    -0x10(%rbp),%eax
   1ce16:	48 63 d0             	movslq %eax,%rdx
   1ce19:	8b 45 f4             	mov    -0xc(%rbp),%eax
   1ce1c:	48 63 c8             	movslq %eax,%rcx
   1ce1f:	48 89 d0             	mov    %rdx,%rax
   1ce22:	48 c1 e0 04          	shl    $0x4,%rax
   1ce26:	48 29 d0             	sub    %rdx,%rax
   1ce29:	48 01 c0             	add    %rax,%rax
   1ce2c:	48 89 ca             	mov    %rcx,%rdx
   1ce2f:	48 01 d2             	add    %rdx,%rdx
   1ce32:	48 01 ca             	add    %rcx,%rdx
   1ce35:	48 01 d0             	add    %rdx,%rax
   1ce38:	48 01 f0             	add    %rsi,%rax
   1ce3b:	48 8d 14 c5 00 00 00 	lea    0x0(,%rax,8),%rdx
   1ce42:	00 
   1ce43:	48 8d 05 16 76 00 00 	lea    0x7616(%rip),%rax        # 24460 <g_1995>
   1ce4a:	48 8b 04 02          	mov    (%rdx,%rax,1),%rax
   1ce4e:	8b 55 fc             	mov    -0x4(%rbp),%edx
   1ce51:	48 8d 35 c8 3e 00 00 	lea    0x3ec8(%rip),%rsi        # 20d20 <g_2439+0x2ca0>
   1ce58:	48 89 c7             	mov    %rax,%rdi
   1ce5b:	e8 93 d8 fe ff       	callq  a6f3 <transparent_crc>
   1ce60:	83 7d fc 00          	cmpl   $0x0,-0x4(%rbp)
   1ce64:	74 1c                	je     1ce82 <main+0x9e5>
   1ce66:	8b 4d f8             	mov    -0x8(%rbp),%ecx
   1ce69:	8b 55 f4             	mov    -0xc(%rbp),%edx
   1ce6c:	8b 45 f0             	mov    -0x10(%rbp),%eax
   1ce6f:	89 c6                	mov    %eax,%esi
   1ce71:	48 8d 3d 34 3d 00 00 	lea    0x3d34(%rip),%rdi        # 20bac <g_2439+0x2b2c>
   1ce78:	b8 00 00 00 00       	mov    $0x0,%eax
   1ce7d:	e8 fe c1 fe ff       	callq  9080 <printf@plt>
   1ce82:	83 45 f8 01          	addl   $0x1,-0x8(%rbp)
   1ce86:	83 7d f8 02          	cmpl   $0x2,-0x8(%rbp)
   1ce8a:	7e 81                	jle    1ce0d <main+0x970>
   1ce8c:	83 45 f4 01          	addl   $0x1,-0xc(%rbp)
   1ce90:	83 7d f4 09          	cmpl   $0x9,-0xc(%rbp)
   1ce94:	0f 8e 6a ff ff ff    	jle    1ce04 <main+0x967>
   1ce9a:	83 45 f0 01          	addl   $0x1,-0x10(%rbp)
   1ce9e:	83 7d f0 05          	cmpl   $0x5,-0x10(%rbp)
   1cea2:	0f 8e 50 ff ff ff    	jle    1cdf8 <main+0x95b>
   1cea8:	48 8b 05 51 7b 00 00 	mov    0x7b51(%rip),%rax        # 24a00 <g_1996>
   1ceaf:	8b 55 fc             	mov    -0x4(%rbp),%edx
   1ceb2:	48 8d 35 77 3e 00 00 	lea    0x3e77(%rip),%rsi        # 20d30 <g_2439+0x2cb0>
   1ceb9:	48 89 c7             	mov    %rax,%rdi
   1cebc:	e8 32 d8 fe ff       	callq  a6f3 <transparent_crc>
   1cec1:	48 8b 05 40 7b 00 00 	mov    0x7b40(%rip),%rax        # 24a08 <g_1997>
   1cec8:	8b 55 fc             	mov    -0x4(%rbp),%edx
   1cecb:	48 8d 35 65 3e 00 00 	lea    0x3e65(%rip),%rsi        # 20d37 <g_2439+0x2cb7>
   1ced2:	48 89 c7             	mov    %rax,%rdi
   1ced5:	e8 19 d8 fe ff       	callq  a6f3 <transparent_crc>
   1ceda:	c7 45 f0 00 00 00 00 	movl   $0x0,-0x10(%rbp)
   1cee1:	eb 76                	jmp    1cf59 <main+0xabc>
   1cee3:	c7 45 f4 00 00 00 00 	movl   $0x0,-0xc(%rbp)
   1ceea:	eb 63                	jmp    1cf4f <main+0xab2>
   1ceec:	8b 45 f4             	mov    -0xc(%rbp),%eax
   1ceef:	48 63 c8             	movslq %eax,%rcx
   1cef2:	8b 45 f0             	mov    -0x10(%rbp),%eax
   1cef5:	48 63 d0             	movslq %eax,%rdx
   1cef8:	48 89 d0             	mov    %rdx,%rax
   1cefb:	48 01 c0             	add    %rax,%rax
   1cefe:	48 01 d0             	add    %rdx,%rax
   1cf01:	48 01 c0             	add    %rax,%rax
   1cf04:	48 01 c8             	add    %rcx,%rax
   1cf07:	48 8d 14 c5 00 00 00 	lea    0x0(,%rax,8),%rdx
   1cf0e:	00 
   1cf0f:	48 8d 05 0a 7b 00 00 	lea    0x7b0a(%rip),%rax        # 24a20 <g_1998>
   1cf16:	48 8b 04 02          	mov    (%rdx,%rax,1),%rax
   1cf1a:	8b 55 fc             	mov    -0x4(%rbp),%edx
   1cf1d:	48 8d 35 1a 3e 00 00 	lea    0x3e1a(%rip),%rsi        # 20d3e <g_2439+0x2cbe>
   1cf24:	48 89 c7             	mov    %rax,%rdi
   1cf27:	e8 c7 d7 fe ff       	callq  a6f3 <transparent_crc>
   1cf2c:	83 7d fc 00          	cmpl   $0x0,-0x4(%rbp)
   1cf30:	74 19                	je     1cf4b <main+0xaae>
   1cf32:	8b 55 f4             	mov    -0xc(%rbp),%edx
   1cf35:	8b 45 f0             	mov    -0x10(%rbp),%eax
   1cf38:	89 c6                	mov    %eax,%esi
   1cf3a:	48 8d 3d a9 3c 00 00 	lea    0x3ca9(%rip),%rdi        # 20bea <g_2439+0x2b6a>
   1cf41:	b8 00 00 00 00       	mov    $0x0,%eax
   1cf46:	e8 35 c1 fe ff       	callq  9080 <printf@plt>
   1cf4b:	83 45 f4 01          	addl   $0x1,-0xc(%rbp)
   1cf4f:	83 7d f4 05          	cmpl   $0x5,-0xc(%rbp)
   1cf53:	7e 97                	jle    1ceec <main+0xa4f>
   1cf55:	83 45 f0 01          	addl   $0x1,-0x10(%rbp)
   1cf59:	83 7d f0 05          	cmpl   $0x5,-0x10(%rbp)
   1cf5d:	7e 84                	jle    1cee3 <main+0xa46>
   1cf5f:	48 8b 05 da 7b 00 00 	mov    0x7bda(%rip),%rax        # 24b40 <g_1999>
   1cf66:	8b 55 fc             	mov    -0x4(%rbp),%edx
   1cf69:	48 8d 35 db 3d 00 00 	lea    0x3ddb(%rip),%rsi        # 20d4b <g_2439+0x2ccb>
   1cf70:	48 89 c7             	mov    %rax,%rdi
   1cf73:	e8 7b d7 fe ff       	callq  a6f3 <transparent_crc>
   1cf78:	c7 45 f0 00 00 00 00 	movl   $0x0,-0x10(%rbp)
   1cf7f:	eb 74                	jmp    1cff5 <main+0xb58>
   1cf81:	c7 45 f4 00 00 00 00 	movl   $0x0,-0xc(%rbp)
   1cf88:	eb 61                	jmp    1cfeb <main+0xb4e>
   1cf8a:	8b 45 f4             	mov    -0xc(%rbp),%eax
   1cf8d:	48 63 c8             	movslq %eax,%rcx
   1cf90:	8b 45 f0             	mov    -0x10(%rbp),%eax
   1cf93:	48 63 d0             	movslq %eax,%rdx
   1cf96:	48 89 d0             	mov    %rdx,%rax
   1cf99:	48 c1 e0 03          	shl    $0x3,%rax
   1cf9d:	48 01 d0             	add    %rdx,%rax
   1cfa0:	48 01 c8             	add    %rcx,%rax
   1cfa3:	48 8d 14 00          	lea    (%rax,%rax,1),%rdx
   1cfa7:	48 8d 05 b2 7b 00 00 	lea    0x7bb2(%rip),%rax        # 24b60 <g_2086>
   1cfae:	0f b7 04 02          	movzwl (%rdx,%rax,1),%eax
   1cfb2:	48 0f bf c0          	movswq %ax,%rax
   1cfb6:	8b 55 fc             	mov    -0x4(%rbp),%edx
   1cfb9:	48 8d 35 92 3d 00 00 	lea    0x3d92(%rip),%rsi        # 20d52 <g_2439+0x2cd2>
   1cfc0:	48 89 c7             	mov    %rax,%rdi
   1cfc3:	e8 2b d7 fe ff       	callq  a6f3 <transparent_crc>
   1cfc8:	83 7d fc 00          	cmpl   $0x0,-0x4(%rbp)
   1cfcc:	74 19                	je     1cfe7 <main+0xb4a>
   1cfce:	8b 55 f4             	mov    -0xc(%rbp),%edx
   1cfd1:	8b 45 f0             	mov    -0x10(%rbp),%eax
   1cfd4:	89 c6                	mov    %eax,%esi
   1cfd6:	48 8d 3d 0d 3c 00 00 	lea    0x3c0d(%rip),%rdi        # 20bea <g_2439+0x2b6a>
   1cfdd:	b8 00 00 00 00       	mov    $0x0,%eax
   1cfe2:	e8 99 c0 fe ff       	callq  9080 <printf@plt>
   1cfe7:	83 45 f4 01          	addl   $0x1,-0xc(%rbp)
   1cfeb:	83 7d f4 08          	cmpl   $0x8,-0xc(%rbp)
   1cfef:	7e 99                	jle    1cf8a <main+0xaed>
   1cff1:	83 45 f0 01          	addl   $0x1,-0x10(%rbp)
   1cff5:	83 7d f0 08          	cmpl   $0x8,-0x10(%rbp)
   1cff9:	7e 86                	jle    1cf81 <main+0xae4>
   1cffb:	8b 05 03 7c 00 00    	mov    0x7c03(%rip),%eax        # 24c04 <g_2238>
   1d001:	89 c1                	mov    %eax,%ecx
   1d003:	8b 45 fc             	mov    -0x4(%rbp),%eax
   1d006:	89 c2                	mov    %eax,%edx
   1d008:	48 8d 35 50 3d 00 00 	lea    0x3d50(%rip),%rsi        # 20d5f <g_2439+0x2cdf>
   1d00f:	48 89 cf             	mov    %rcx,%rdi
   1d012:	e8 dc d6 fe ff       	callq  a6f3 <transparent_crc>
   1d017:	c7 45 f0 00 00 00 00 	movl   $0x0,-0x10(%rbp)
   1d01e:	eb 74                	jmp    1d094 <main+0xbf7>
   1d020:	c7 45 f4 00 00 00 00 	movl   $0x0,-0xc(%rbp)
   1d027:	eb 61                	jmp    1d08a <main+0xbed>
   1d029:	8b 45 f4             	mov    -0xc(%rbp),%eax
   1d02c:	48 63 c8             	movslq %eax,%rcx
   1d02f:	8b 45 f0             	mov    -0x10(%rbp),%eax
   1d032:	48 63 d0             	movslq %eax,%rdx
   1d035:	48 89 d0             	mov    %rdx,%rax
   1d038:	48 c1 e0 03          	shl    $0x3,%rax
   1d03c:	48 29 d0             	sub    %rdx,%rax
   1d03f:	48 01 c8             	add    %rcx,%rax
   1d042:	48 8d 14 c5 00 00 00 	lea    0x0(,%rax,8),%rdx
   1d049:	00 
   1d04a:	48 8d 05 cf 7b 00 00 	lea    0x7bcf(%rip),%rax        # 24c20 <g_2291>
   1d051:	48 8b 04 02          	mov    (%rdx,%rax,1),%rax
   1d055:	8b 55 fc             	mov    -0x4(%rbp),%edx
   1d058:	48 8d 35 07 3d 00 00 	lea    0x3d07(%rip),%rsi        # 20d66 <g_2439+0x2ce6>
   1d05f:	48 89 c7             	mov    %rax,%rdi
   1d062:	e8 8c d6 fe ff       	callq  a6f3 <transparent_crc>
   1d067:	83 7d fc 00          	cmpl   $0x0,-0x4(%rbp)
   1d06b:	74 19                	je     1d086 <main+0xbe9>
   1d06d:	8b 55 f4             	mov    -0xc(%rbp),%edx
   1d070:	8b 45 f0             	mov    -0x10(%rbp),%eax
   1d073:	89 c6                	mov    %eax,%esi
   1d075:	48 8d 3d 6e 3b 00 00 	lea    0x3b6e(%rip),%rdi        # 20bea <g_2439+0x2b6a>
   1d07c:	b8 00 00 00 00       	mov    $0x0,%eax
   1d081:	e8 fa bf fe ff       	callq  9080 <printf@plt>
   1d086:	83 45 f4 01          	addl   $0x1,-0xc(%rbp)
   1d08a:	83 7d f4 06          	cmpl   $0x6,-0xc(%rbp)
   1d08e:	7e 99                	jle    1d029 <main+0xb8c>
   1d090:	83 45 f0 01          	addl   $0x1,-0x10(%rbp)
   1d094:	83 7d f0 02          	cmpl   $0x2,-0x10(%rbp)
   1d098:	7e 86                	jle    1d020 <main+0xb83>
   1d09a:	b8 ff ff ff ff       	mov    $0xffffffff,%eax
   1d09f:	48 98                	cltq   
   1d0a1:	8b 55 fc             	mov    -0x4(%rbp),%edx
   1d0a4:	48 8d 35 c8 3c 00 00 	lea    0x3cc8(%rip),%rsi        # 20d73 <g_2439+0x2cf3>
   1d0ab:	48 89 c7             	mov    %rax,%rdi
   1d0ae:	e8 40 d6 fe ff       	callq  a6f3 <transparent_crc>
   1d0b3:	48 8b 05 0e 7c 00 00 	mov    0x7c0e(%rip),%rax        # 24cc8 <g_2557>
   1d0ba:	8b 55 fc             	mov    -0x4(%rbp),%edx
   1d0bd:	48 8d 35 b6 3c 00 00 	lea    0x3cb6(%rip),%rsi        # 20d7a <g_2439+0x2cfa>
   1d0c4:	48 89 c7             	mov    %rax,%rdi
   1d0c7:	e8 27 d6 fe ff       	callq  a6f3 <transparent_crc>
   1d0cc:	8b 05 fe 7b 00 00    	mov    0x7bfe(%rip),%eax        # 24cd0 <g_2664>
   1d0d2:	48 98                	cltq   
   1d0d4:	8b 55 fc             	mov    -0x4(%rbp),%edx
   1d0d7:	48 8d 35 a3 3c 00 00 	lea    0x3ca3(%rip),%rsi        # 20d81 <g_2439+0x2d01>
   1d0de:	48 89 c7             	mov    %rax,%rdi
   1d0e1:	e8 0d d6 fe ff       	callq  a6f3 <transparent_crc>
   1d0e6:	8b 05 e8 7b 00 00    	mov    0x7be8(%rip),%eax        # 24cd4 <g_2726>
   1d0ec:	89 c1                	mov    %eax,%ecx
   1d0ee:	8b 45 fc             	mov    -0x4(%rbp),%eax
   1d0f1:	89 c2                	mov    %eax,%edx
   1d0f3:	48 8d 35 8e 3c 00 00 	lea    0x3c8e(%rip),%rsi        # 20d88 <g_2439+0x2d08>
   1d0fa:	48 89 cf             	mov    %rcx,%rdi
   1d0fd:	e8 f1 d5 fe ff       	callq  a6f3 <transparent_crc>
   1d102:	8b 05 d0 7b 00 00    	mov    0x7bd0(%rip),%eax        # 24cd8 <g_2879>
   1d108:	48 98                	cltq   
   1d10a:	8b 55 fc             	mov    -0x4(%rbp),%edx
   1d10d:	48 8d 35 7b 3c 00 00 	lea    0x3c7b(%rip),%rsi        # 20d8f <g_2439+0x2d0f>
   1d114:	48 89 c7             	mov    %rax,%rdi
   1d117:	e8 d7 d5 fe ff       	callq  a6f3 <transparent_crc>
   1d11c:	8b 05 ba 7b 00 00    	mov    0x7bba(%rip),%eax        # 24cdc <g_2895>
   1d122:	48 98                	cltq   
   1d124:	8b 55 fc             	mov    -0x4(%rbp),%edx
   1d127:	48 8d 35 68 3c 00 00 	lea    0x3c68(%rip),%rsi        # 20d96 <g_2439+0x2d16>
   1d12e:	48 89 c7             	mov    %rax,%rdi
   1d131:	e8 bd d5 fe ff       	callq  a6f3 <transparent_crc>
   1d136:	0f b6 05 d3 b6 00 00 	movzbl 0xb6d3(%rip),%eax        # 28810 <g_2934>
   1d13d:	48 0f be c0          	movsbq %al,%rax
   1d141:	8b 55 fc             	mov    -0x4(%rbp),%edx
   1d144:	48 8d 35 52 3c 00 00 	lea    0x3c52(%rip),%rsi        # 20d9d <g_2439+0x2d1d>
   1d14b:	48 89 c7             	mov    %rax,%rdi
   1d14e:	e8 a0 d5 fe ff       	callq  a6f3 <transparent_crc>
   1d153:	8b 05 87 7b 00 00    	mov    0x7b87(%rip),%eax        # 24ce0 <g_2959>
   1d159:	89 c1                	mov    %eax,%ecx
   1d15b:	8b 45 fc             	mov    -0x4(%rbp),%eax
   1d15e:	89 c2                	mov    %eax,%edx
   1d160:	48 8d 35 3d 3c 00 00 	lea    0x3c3d(%rip),%rsi        # 20da4 <g_2439+0x2d24>
   1d167:	48 89 cf             	mov    %rcx,%rdi
   1d16a:	e8 84 d5 fe ff       	callq  a6f3 <transparent_crc>
   1d16f:	8b 05 6f 7b 00 00    	mov    0x7b6f(%rip),%eax        # 24ce4 <g_3137>
   1d175:	48 98                	cltq   
   1d177:	8b 55 fc             	mov    -0x4(%rbp),%edx
   1d17a:	48 8d 35 2a 3c 00 00 	lea    0x3c2a(%rip),%rsi        # 20dab <g_2439+0x2d2b>
   1d181:	48 89 c7             	mov    %rax,%rdi
   1d184:	e8 6a d5 fe ff       	callq  a6f3 <transparent_crc>
   1d189:	8b 05 59 7b 00 00    	mov    0x7b59(%rip),%eax        # 24ce8 <g_3145>
   1d18f:	48 98                	cltq   
   1d191:	8b 55 fc             	mov    -0x4(%rbp),%edx
   1d194:	48 8d 35 17 3c 00 00 	lea    0x3c17(%rip),%rsi        # 20db2 <g_2439+0x2d32>
   1d19b:	48 89 c7             	mov    %rax,%rdi
   1d19e:	e8 50 d5 fe ff       	callq  a6f3 <transparent_crc>
   1d1a3:	8b 05 43 7b 00 00    	mov    0x7b43(%rip),%eax        # 24cec <g_3275>
   1d1a9:	89 c1                	mov    %eax,%ecx
   1d1ab:	8b 45 fc             	mov    -0x4(%rbp),%eax
   1d1ae:	89 c2                	mov    %eax,%edx
   1d1b0:	48 8d 35 02 3c 00 00 	lea    0x3c02(%rip),%rsi        # 20db9 <g_2439+0x2d39>
   1d1b7:	48 89 cf             	mov    %rcx,%rdi
   1d1ba:	e8 34 d5 fe ff       	callq  a6f3 <transparent_crc>
   1d1bf:	0f b7 05 2a 7b 00 00 	movzwl 0x7b2a(%rip),%eax        # 24cf0 <g_3499>
   1d1c6:	0f b7 c0             	movzwl %ax,%eax
   1d1c9:	8b 55 fc             	mov    -0x4(%rbp),%edx
   1d1cc:	48 8d 35 ed 3b 00 00 	lea    0x3bed(%rip),%rsi        # 20dc0 <g_2439+0x2d40>
   1d1d3:	48 89 c7             	mov    %rax,%rdi
   1d1d6:	e8 18 d5 fe ff       	callq  a6f3 <transparent_crc>
   1d1db:	8b 05 47 b6 00 00    	mov    0xb647(%rip),%eax        # 28828 <g_3597>
   1d1e1:	89 c1                	mov    %eax,%ecx
   1d1e3:	8b 45 fc             	mov    -0x4(%rbp),%eax
   1d1e6:	89 c2                	mov    %eax,%edx
   1d1e8:	48 8d 35 d8 3b 00 00 	lea    0x3bd8(%rip),%rsi        # 20dc7 <g_2439+0x2d47>
   1d1ef:	48 89 cf             	mov    %rcx,%rdi
   1d1f2:	e8 fc d4 fe ff       	callq  a6f3 <transparent_crc>
   1d1f7:	c7 45 f0 00 00 00 00 	movl   $0x0,-0x10(%rbp)
   1d1fe:	eb 77                	jmp    1d277 <main+0xdda>
   1d200:	c7 45 f4 00 00 00 00 	movl   $0x0,-0xc(%rbp)
   1d207:	eb 64                	jmp    1d26d <main+0xdd0>
   1d209:	8b 45 f4             	mov    -0xc(%rbp),%eax
   1d20c:	48 63 c8             	movslq %eax,%rcx
   1d20f:	8b 45 f0             	mov    -0x10(%rbp),%eax
   1d212:	48 63 d0             	movslq %eax,%rdx
   1d215:	48 89 d0             	mov    %rdx,%rax
   1d218:	48 c1 e0 02          	shl    $0x2,%rax
   1d21c:	48 01 d0             	add    %rdx,%rax
   1d21f:	48 01 c8             	add    %rcx,%rax
   1d222:	48 8d 14 85 00 00 00 	lea    0x0(,%rax,4),%rdx
   1d229:	00 
   1d22a:	48 8d 05 cf 7a 00 00 	lea    0x7acf(%rip),%rax        # 24d00 <g_3852>
   1d231:	8b 04 02             	mov    (%rdx,%rax,1),%eax
   1d234:	89 c1                	mov    %eax,%ecx
   1d236:	8b 45 fc             	mov    -0x4(%rbp),%eax
   1d239:	89 c2                	mov    %eax,%edx
   1d23b:	48 8d 35 8c 3b 00 00 	lea    0x3b8c(%rip),%rsi        # 20dce <g_2439+0x2d4e>
   1d242:	48 89 cf             	mov    %rcx,%rdi
   1d245:	e8 a9 d4 fe ff       	callq  a6f3 <transparent_crc>
   1d24a:	83 7d fc 00          	cmpl   $0x0,-0x4(%rbp)
   1d24e:	74 19                	je     1d269 <main+0xdcc>
   1d250:	8b 55 f4             	mov    -0xc(%rbp),%edx
   1d253:	8b 45 f0             	mov    -0x10(%rbp),%eax
   1d256:	89 c6                	mov    %eax,%esi
   1d258:	48 8d 3d 8b 39 00 00 	lea    0x398b(%rip),%rdi        # 20bea <g_2439+0x2b6a>
   1d25f:	b8 00 00 00 00       	mov    $0x0,%eax
   1d264:	e8 17 be fe ff       	callq  9080 <printf@plt>
   1d269:	83 45 f4 01          	addl   $0x1,-0xc(%rbp)
   1d26d:	83 7d f4 04          	cmpl   $0x4,-0xc(%rbp)
   1d271:	7e 96                	jle    1d209 <main+0xd6c>
   1d273:	83 45 f0 01          	addl   $0x1,-0x10(%rbp)
   1d277:	83 7d f0 00          	cmpl   $0x0,-0x10(%rbp)
   1d27b:	7e 83                	jle    1d200 <main+0xd63>
   1d27d:	0f b7 05 90 7a 00 00 	movzwl 0x7a90(%rip),%eax        # 24d14 <g_3904>
   1d284:	0f b7 c0             	movzwl %ax,%eax
   1d287:	8b 55 fc             	mov    -0x4(%rbp),%edx
   1d28a:	48 8d 35 4a 3b 00 00 	lea    0x3b4a(%rip),%rsi        # 20ddb <g_2439+0x2d5b>
   1d291:	48 89 c7             	mov    %rax,%rdi
   1d294:	e8 5a d4 fe ff       	callq  a6f3 <transparent_crc>
   1d299:	0f b7 05 76 7a 00 00 	movzwl 0x7a76(%rip),%eax        # 24d16 <g_3961>
   1d2a0:	0f b7 c0             	movzwl %ax,%eax
   1d2a3:	8b 55 fc             	mov    -0x4(%rbp),%edx
   1d2a6:	48 8d 35 35 3b 00 00 	lea    0x3b35(%rip),%rsi        # 20de2 <g_2439+0x2d62>
   1d2ad:	48 89 c7             	mov    %rax,%rdi
   1d2b0:	e8 3e d4 fe ff       	callq  a6f3 <transparent_crc>
   1d2b5:	c7 45 f0 00 00 00 00 	movl   $0x0,-0x10(%rbp)
   1d2bc:	e9 95 00 00 00       	jmpq   1d356 <main+0xeb9>
   1d2c1:	c7 45 f4 00 00 00 00 	movl   $0x0,-0xc(%rbp)
   1d2c8:	eb 7e                	jmp    1d348 <main+0xeab>
   1d2ca:	c7 45 f8 00 00 00 00 	movl   $0x0,-0x8(%rbp)
   1d2d1:	eb 6b                	jmp    1d33e <main+0xea1>
   1d2d3:	8b 45 f8             	mov    -0x8(%rbp),%eax
   1d2d6:	48 63 c8             	movslq %eax,%rcx
   1d2d9:	8b 45 f0             	mov    -0x10(%rbp),%eax
   1d2dc:	48 63 d0             	movslq %eax,%rdx
   1d2df:	8b 45 f4             	mov    -0xc(%rbp),%eax
   1d2e2:	48 98                	cltq   
   1d2e4:	48 01 c2             	add    %rax,%rdx
   1d2e7:	48 89 d0             	mov    %rdx,%rax
   1d2ea:	48 c1 e0 03          	shl    $0x3,%rax
   1d2ee:	48 01 d0             	add    %rdx,%rax
   1d2f1:	48 8d 14 08          	lea    (%rax,%rcx,1),%rdx
   1d2f5:	48 8d 05 24 7a 00 00 	lea    0x7a24(%rip),%rax        # 24d20 <g_4022>
   1d2fc:	48 01 d0             	add    %rdx,%rax
   1d2ff:	0f b6 00             	movzbl (%rax),%eax
   1d302:	48 0f be c0          	movsbq %al,%rax
   1d306:	8b 55 fc             	mov    -0x4(%rbp),%edx
   1d309:	48 8d 35 d9 3a 00 00 	lea    0x3ad9(%rip),%rsi        # 20de9 <g_2439+0x2d69>
   1d310:	48 89 c7             	mov    %rax,%rdi
   1d313:	e8 db d3 fe ff       	callq  a6f3 <transparent_crc>
   1d318:	83 7d fc 00          	cmpl   $0x0,-0x4(%rbp)
   1d31c:	74 1c                	je     1d33a <main+0xe9d>
   1d31e:	8b 4d f8             	mov    -0x8(%rbp),%ecx
   1d321:	8b 55 f4             	mov    -0xc(%rbp),%edx
   1d324:	8b 45 f0             	mov    -0x10(%rbp),%eax
   1d327:	89 c6                	mov    %eax,%esi
   1d329:	48 8d 3d 7c 38 00 00 	lea    0x387c(%rip),%rdi        # 20bac <g_2439+0x2b2c>
   1d330:	b8 00 00 00 00       	mov    $0x0,%eax
   1d335:	e8 46 bd fe ff       	callq  9080 <printf@plt>
   1d33a:	83 45 f8 01          	addl   $0x1,-0x8(%rbp)
   1d33e:	83 7d f8 08          	cmpl   $0x8,-0x8(%rbp)
   1d342:	7e 8f                	jle    1d2d3 <main+0xe36>
   1d344:	83 45 f4 01          	addl   $0x1,-0xc(%rbp)
   1d348:	83 7d f4 00          	cmpl   $0x0,-0xc(%rbp)
   1d34c:	0f 8e 78 ff ff ff    	jle    1d2ca <main+0xe2d>
   1d352:	83 45 f0 01          	addl   $0x1,-0x10(%rbp)
   1d356:	83 7d f0 02          	cmpl   $0x2,-0x10(%rbp)
   1d35a:	0f 8e 61 ff ff ff    	jle    1d2c1 <main+0xe24>
   1d360:	0f b7 05 d5 79 00 00 	movzwl 0x79d5(%rip),%eax        # 24d3c <g_4148>
   1d367:	48 0f bf c0          	movswq %ax,%rax
   1d36b:	8b 55 fc             	mov    -0x4(%rbp),%edx
   1d36e:	48 8d 35 84 3a 00 00 	lea    0x3a84(%rip),%rsi        # 20df9 <g_2439+0x2d79>
   1d375:	48 89 c7             	mov    %rax,%rdi
   1d378:	e8 76 d3 fe ff       	callq  a6f3 <transparent_crc>
   1d37d:	0f b6 05 ba 79 00 00 	movzbl 0x79ba(%rip),%eax        # 24d3e <g_4200>
   1d384:	0f b6 c0             	movzbl %al,%eax
   1d387:	8b 55 fc             	mov    -0x4(%rbp),%edx
   1d38a:	48 8d 35 6f 3a 00 00 	lea    0x3a6f(%rip),%rsi        # 20e00 <g_2439+0x2d80>
   1d391:	48 89 c7             	mov    %rax,%rdi
   1d394:	e8 5a d3 fe ff       	callq  a6f3 <transparent_crc>
   1d399:	48 8b 05 a0 79 00 00 	mov    0x79a0(%rip),%rax        # 24d40 <g_4206>
   1d3a0:	8b 55 fc             	mov    -0x4(%rbp),%edx
   1d3a3:	48 8d 35 5d 3a 00 00 	lea    0x3a5d(%rip),%rsi        # 20e07 <g_2439+0x2d87>
   1d3aa:	48 89 c7             	mov    %rax,%rdi
   1d3ad:	e8 41 d3 fe ff       	callq  a6f3 <transparent_crc>
   1d3b2:	c7 45 f0 00 00 00 00 	movl   $0x0,-0x10(%rbp)
   1d3b9:	e9 b9 00 00 00       	jmpq   1d477 <main+0xfda>
   1d3be:	c7 45 f4 00 00 00 00 	movl   $0x0,-0xc(%rbp)
   1d3c5:	e9 9f 00 00 00       	jmpq   1d469 <main+0xfcc>
   1d3ca:	c7 45 f8 00 00 00 00 	movl   $0x0,-0x8(%rbp)
   1d3d1:	e9 85 00 00 00       	jmpq   1d45b <main+0xfbe>
   1d3d6:	8b 45 f8             	mov    -0x8(%rbp),%eax
   1d3d9:	48 63 f0             	movslq %eax,%rsi
   1d3dc:	8b 45 f0             	mov    -0x10(%rbp),%eax
   1d3df:	48 98                	cltq   
   1d3e1:	8b 55 f4             	mov    -0xc(%rbp),%edx
   1d3e4:	48 63 ca             	movslq %edx,%rcx
   1d3e7:	48 89 c2             	mov    %rax,%rdx
   1d3ea:	48 c1 e2 04          	shl    $0x4,%rdx
   1d3ee:	48 29 c2             	sub    %rax,%rdx
   1d3f1:	48 8d 04 12          	lea    (%rdx,%rdx,1),%rax
   1d3f5:	48 89 c2             	mov    %rax,%rdx
   1d3f8:	48 89 c8             	mov    %rcx,%rax
   1d3fb:	48 c1 e0 02          	shl    $0x2,%rax
   1d3ff:	48 01 c8             	add    %rcx,%rax
   1d402:	48 01 c0             	add    %rax,%rax
   1d405:	48 01 d0             	add    %rdx,%rax
   1d408:	48 01 f0             	add    %rsi,%rax
   1d40b:	48 8d 14 c5 00 00 00 	lea    0x0(,%rax,8),%rdx
   1d412:	00 
   1d413:	48 8d 05 46 79 00 00 	lea    0x7946(%rip),%rax        # 24d60 <g_4307>
   1d41a:	48 8b 04 02          	mov    (%rdx,%rax,1),%rax
   1d41e:	48 89 c1             	mov    %rax,%rcx
   1d421:	8b 45 fc             	mov    -0x4(%rbp),%eax
   1d424:	89 c2                	mov    %eax,%edx
   1d426:	48 8d 35 e1 39 00 00 	lea    0x39e1(%rip),%rsi        # 20e0e <g_2439+0x2d8e>
   1d42d:	48 89 cf             	mov    %rcx,%rdi
   1d430:	e8 be d2 fe ff       	callq  a6f3 <transparent_crc>
   1d435:	83 7d fc 00          	cmpl   $0x0,-0x4(%rbp)
   1d439:	74 1c                	je     1d457 <main+0xfba>
   1d43b:	8b 4d f8             	mov    -0x8(%rbp),%ecx
   1d43e:	8b 55 f4             	mov    -0xc(%rbp),%edx
   1d441:	8b 45 f0             	mov    -0x10(%rbp),%eax
   1d444:	89 c6                	mov    %eax,%esi
   1d446:	48 8d 3d 5f 37 00 00 	lea    0x375f(%rip),%rdi        # 20bac <g_2439+0x2b2c>
   1d44d:	b8 00 00 00 00       	mov    $0x0,%eax
   1d452:	e8 29 bc fe ff       	callq  9080 <printf@plt>
   1d457:	83 45 f8 01          	addl   $0x1,-0x8(%rbp)
   1d45b:	83 7d f8 09          	cmpl   $0x9,-0x8(%rbp)
   1d45f:	0f 8e 71 ff ff ff    	jle    1d3d6 <main+0xf39>
   1d465:	83 45 f4 01          	addl   $0x1,-0xc(%rbp)
   1d469:	83 7d f4 02          	cmpl   $0x2,-0xc(%rbp)
   1d46d:	0f 8e 57 ff ff ff    	jle    1d3ca <main+0xf2d>
   1d473:	83 45 f0 01          	addl   $0x1,-0x10(%rbp)
   1d477:	83 7d f0 00          	cmpl   $0x0,-0x10(%rbp)
   1d47b:	0f 8e 3d ff ff ff    	jle    1d3be <main+0xf21>
   1d481:	48 8b 05 c8 79 00 00 	mov    0x79c8(%rip),%rax        # 24e50 <g_4323>
   1d488:	48 89 c1             	mov    %rax,%rcx
   1d48b:	8b 45 fc             	mov    -0x4(%rbp),%eax
   1d48e:	89 c2                	mov    %eax,%edx
   1d490:	48 8d 35 87 39 00 00 	lea    0x3987(%rip),%rsi        # 20e1e <g_2439+0x2d9e>
   1d497:	48 89 cf             	mov    %rcx,%rdi
   1d49a:	e8 54 d2 fe ff       	callq  a6f3 <transparent_crc>
   1d49f:	c7 45 f0 00 00 00 00 	movl   $0x0,-0x10(%rbp)
   1d4a6:	eb 76                	jmp    1d51e <main+0x1081>
   1d4a8:	c7 45 f4 00 00 00 00 	movl   $0x0,-0xc(%rbp)
   1d4af:	eb 63                	jmp    1d514 <main+0x1077>
   1d4b1:	8b 45 f4             	mov    -0xc(%rbp),%eax
   1d4b4:	48 63 c8             	movslq %eax,%rcx
   1d4b7:	8b 45 f0             	mov    -0x10(%rbp),%eax
   1d4ba:	48 63 d0             	movslq %eax,%rdx
   1d4bd:	48 89 d0             	mov    %rdx,%rax
   1d4c0:	48 01 c0             	add    %rax,%rax
   1d4c3:	48 01 d0             	add    %rdx,%rax
   1d4c6:	48 01 c0             	add    %rax,%rax
   1d4c9:	48 01 c8             	add    %rcx,%rax
   1d4cc:	48 8d 14 c5 00 00 00 	lea    0x0(,%rax,8),%rdx
   1d4d3:	00 
   1d4d4:	48 8d 05 85 79 00 00 	lea    0x7985(%rip),%rax        # 24e60 <g_4540>
   1d4db:	48 8b 04 02          	mov    (%rdx,%rax,1),%rax
   1d4df:	8b 55 fc             	mov    -0x4(%rbp),%edx
   1d4e2:	48 8d 35 3c 39 00 00 	lea    0x393c(%rip),%rsi        # 20e25 <g_2439+0x2da5>
   1d4e9:	48 89 c7             	mov    %rax,%rdi
   1d4ec:	e8 02 d2 fe ff       	callq  a6f3 <transparent_crc>
   1d4f1:	83 7d fc 00          	cmpl   $0x0,-0x4(%rbp)
   1d4f5:	74 19                	je     1d510 <main+0x1073>
   1d4f7:	8b 55 f4             	mov    -0xc(%rbp),%edx
   1d4fa:	8b 45 f0             	mov    -0x10(%rbp),%eax
   1d4fd:	89 c6                	mov    %eax,%esi
   1d4ff:	48 8d 3d e4 36 00 00 	lea    0x36e4(%rip),%rdi        # 20bea <g_2439+0x2b6a>
   1d506:	b8 00 00 00 00       	mov    $0x0,%eax
   1d50b:	e8 70 bb fe ff       	callq  9080 <printf@plt>
   1d510:	83 45 f4 01          	addl   $0x1,-0xc(%rbp)
   1d514:	83 7d f4 05          	cmpl   $0x5,-0xc(%rbp)
   1d518:	7e 97                	jle    1d4b1 <main+0x1014>
   1d51a:	83 45 f0 01          	addl   $0x1,-0x10(%rbp)
   1d51e:	83 7d f0 00          	cmpl   $0x0,-0x10(%rbp)
   1d522:	7e 84                	jle    1d4a8 <main+0x100b>
   1d524:	8b 05 f6 6a 00 00    	mov    0x6af6(%rip),%eax        # 24020 <crc32_context>
   1d52a:	f7 d0                	not    %eax
   1d52c:	89 c2                	mov    %eax,%edx
   1d52e:	8b 45 fc             	mov    -0x4(%rbp),%eax
   1d531:	89 c6                	mov    %eax,%esi
   1d533:	89 d7                	mov    %edx,%edi
   1d535:	e8 5a bc fe ff       	callq  9194 <platform_main_end>
   1d53a:	b8 00 00 00 00       	mov    $0x0,%eax
   1d53f:	c9                   	leaveq 
   1d540:	c3                   	retq   
   1d541:	66 2e 0f 1f 84 00 00 	nopw   %cs:0x0(%rax,%rax,1)
   1d548:	00 00 00 
   1d54b:	0f 1f 44 00 00       	nopl   0x0(%rax,%rax,1)

000000000001d550 <__libc_csu_init>:
   1d550:	f3 0f 1e fa          	endbr64 
   1d554:	41 57                	push   %r15
   1d556:	4c 8d 3d 53 66 00 00 	lea    0x6653(%rip),%r15        # 23bb0 <__frame_dummy_init_array_entry>
   1d55d:	41 56                	push   %r14
   1d55f:	49 89 d6             	mov    %rdx,%r14
   1d562:	41 55                	push   %r13
   1d564:	49 89 f5             	mov    %rsi,%r13
   1d567:	41 54                	push   %r12
   1d569:	41 89 fc             	mov    %edi,%r12d
   1d56c:	55                   	push   %rbp
   1d56d:	48 8d 2d 44 66 00 00 	lea    0x6644(%rip),%rbp        # 23bb8 <__do_global_dtors_aux_fini_array_entry>
   1d574:	53                   	push   %rbx
   1d575:	4c 29 fd             	sub    %r15,%rbp
   1d578:	48 83 ec 08          	sub    $0x8,%rsp
   1d57c:	e8 7f ba fe ff       	callq  9000 <_init>
   1d581:	48 c1 fd 03          	sar    $0x3,%rbp
   1d585:	74 1f                	je     1d5a6 <__libc_csu_init+0x56>
   1d587:	31 db                	xor    %ebx,%ebx
   1d589:	0f 1f 80 00 00 00 00 	nopl   0x0(%rax)
   1d590:	4c 89 f2             	mov    %r14,%rdx
   1d593:	4c 89 ee             	mov    %r13,%rsi
   1d596:	44 89 e7             	mov    %r12d,%edi
   1d599:	41 ff 14 df          	callq  *(%r15,%rbx,8)
   1d59d:	48 83 c3 01          	add    $0x1,%rbx
   1d5a1:	48 39 dd             	cmp    %rbx,%rbp
   1d5a4:	75 ea                	jne    1d590 <__libc_csu_init+0x40>
   1d5a6:	48 83 c4 08          	add    $0x8,%rsp
   1d5aa:	5b                   	pop    %rbx
   1d5ab:	5d                   	pop    %rbp
   1d5ac:	41 5c                	pop    %r12
   1d5ae:	41 5d                	pop    %r13
   1d5b0:	41 5e                	pop    %r14
   1d5b2:	41 5f                	pop    %r15
   1d5b4:	c3                   	retq   
   1d5b5:	66 66 2e 0f 1f 84 00 	data16 nopw %cs:0x0(%rax,%rax,1)
   1d5bc:	00 00 00 00 

000000000001d5c0 <__libc_csu_fini>:
   1d5c0:	f3 0f 1e fa          	endbr64 
   1d5c4:	c3                   	retq   
