


Disassembly of section .text:

00000000000080a0 <_start>:
    80a0:	f3 0f 1e fa          	endbr64 
    80a4:	31 ed                	xor    %ebp,%ebp
    80a6:	49 89 d1             	mov    %rdx,%r9
    80a9:	5e                   	pop    %rsi
    80aa:	48 89 e2             	mov    %rsp,%rdx
    80ad:	48 83 e4 f0          	and    $0xfffffffffffffff0,%rsp
    80b1:	50                   	push   %rax
    80b2:	54                   	push   %rsp
    80b3:	4c 8d 05 16 7f 00 00 	lea    0x7f16(%rip),%r8        # ffd0 <__libc_csu_fini>
    80ba:	48 8d 0d 9f 7e 00 00 	lea    0x7e9f(%rip),%rcx        # ff60 <__libc_csu_init>
    80c1:	48 8d 3d f7 6f 00 00 	lea    0x6ff7(%rip),%rdi        # f0bf <main>
    80c8:	ff 15 02 bf 00 00    	callq  *0xbf02(%rip)        # 13fd0 <__libc_start_main@GLIBC_2.2.5>
    80ce:	f4                   	hlt    
    80cf:	90                   	nop

00000000000080d0 <deregister_tm_clones>:
    80d0:	48 8d 3d 41 f9 00 00 	lea    0xf941(%rip),%rdi        # 17a18 <__TMC_END__>
    80d7:	48 8d 05 3a f9 00 00 	lea    0xf93a(%rip),%rax        # 17a18 <__TMC_END__>
    80de:	48 39 f8             	cmp    %rdi,%rax
    80e1:	74 15                	je     80f8 <deregister_tm_clones+0x28>
    80e3:	48 8b 05 de be 00 00 	mov    0xbede(%rip),%rax        # 13fc8 <_ITM_deregisterTMCloneTable>
    80ea:	48 85 c0             	test   %rax,%rax
    80ed:	74 09                	je     80f8 <deregister_tm_clones+0x28>
    80ef:	ff e0                	jmpq   *%rax
    80f1:	0f 1f 80 00 00 00 00 	nopl   0x0(%rax)
    80f8:	c3                   	retq   
    80f9:	0f 1f 80 00 00 00 00 	nopl   0x0(%rax)

0000000000008100 <register_tm_clones>:
    8100:	48 8d 3d 11 f9 00 00 	lea    0xf911(%rip),%rdi        # 17a18 <__TMC_END__>
    8107:	48 8d 35 0a f9 00 00 	lea    0xf90a(%rip),%rsi        # 17a18 <__TMC_END__>
    810e:	48 29 fe             	sub    %rdi,%rsi
    8111:	48 89 f0             	mov    %rsi,%rax
    8114:	48 c1 ee 3f          	shr    $0x3f,%rsi
    8118:	48 c1 f8 03          	sar    $0x3,%rax
    811c:	48 01 c6             	add    %rax,%rsi
    811f:	48 d1 fe             	sar    %rsi
    8122:	74 14                	je     8138 <register_tm_clones+0x38>
    8124:	48 8b 05 b5 be 00 00 	mov    0xbeb5(%rip),%rax        # 13fe0 <_ITM_registerTMCloneTable>
    812b:	48 85 c0             	test   %rax,%rax
    812e:	74 08                	je     8138 <register_tm_clones+0x38>
    8130:	ff e0                	jmpq   *%rax
    8132:	66 0f 1f 44 00 00    	nopw   0x0(%rax,%rax,1)
    8138:	c3                   	retq   
    8139:	0f 1f 80 00 00 00 00 	nopl   0x0(%rax)

0000000000008140 <__do_global_dtors_aux>:
    8140:	f3 0f 1e fa          	endbr64 
    8144:	80 3d d5 f8 00 00 00 	cmpb   $0x0,0xf8d5(%rip)        # 17a20 <completed.8061>
    814b:	75 2b                	jne    8178 <__do_global_dtors_aux+0x38>
    814d:	55                   	push   %rbp
    814e:	48 83 3d 92 be 00 00 	cmpq   $0x0,0xbe92(%rip)        # 13fe8 <__cxa_finalize@GLIBC_2.2.5>
    8155:	00 
    8156:	48 89 e5             	mov    %rsp,%rbp
    8159:	74 0c                	je     8167 <__do_global_dtors_aux+0x27>
    815b:	48 8b 3d a6 be 00 00 	mov    0xbea6(%rip),%rdi        # 14008 <__dso_handle>
    8162:	e8 f9 fe ff ff       	callq  8060 <__cxa_finalize@plt>
    8167:	e8 64 ff ff ff       	callq  80d0 <deregister_tm_clones>
    816c:	c6 05 ad f8 00 00 01 	movb   $0x1,0xf8ad(%rip)        # 17a20 <completed.8061>
    8173:	5d                   	pop    %rbp
    8174:	c3                   	retq   
    8175:	0f 1f 00             	nopl   (%rax)
    8178:	c3                   	retq   
    8179:	0f 1f 80 00 00 00 00 	nopl   0x0(%rax)

0000000000008180 <frame_dummy>:
    8180:	f3 0f 1e fa          	endbr64 
    8184:	e9 77 ff ff ff       	jmpq   8100 <register_tm_clones>

0000000000008189 <platform_main_begin>:
    8189:	f3 0f 1e fa          	endbr64 
    818d:	55                   	push   %rbp
    818e:	48 89 e5             	mov    %rsp,%rbp
    8191:	90                   	nop
    8192:	5d                   	pop    %rbp
    8193:	c3                   	retq   

0000000000008194 <platform_main_end>:
    8194:	f3 0f 1e fa          	endbr64 
    8198:	55                   	push   %rbp
    8199:	48 89 e5             	mov    %rsp,%rbp
    819c:	48 83 ec 10          	sub    $0x10,%rsp
    81a0:	89 7d fc             	mov    %edi,-0x4(%rbp)
    81a3:	89 75 f8             	mov    %esi,-0x8(%rbp)
    81a6:	8b 45 fc             	mov    -0x4(%rbp),%eax
    81a9:	89 c6                	mov    %eax,%esi
    81ab:	48 8d 3d 6e 7e 00 00 	lea    0x7e6e(%rip),%rdi        # 10020 <_IO_stdin_used+0x20>
    81b2:	b8 00 00 00 00       	mov    $0x0,%eax
    81b7:	e8 c4 fe ff ff       	callq  8080 <printf@plt>
    81bc:	90                   	nop
    81bd:	c9                   	leaveq 
    81be:	c3                   	retq   

00000000000081bf <safe_unary_minus_func_int8_t_s>:
    81bf:	f3 0f 1e fa          	endbr64 
    81c3:	55                   	push   %rbp
    81c4:	48 89 e5             	mov    %rsp,%rbp
    81c7:	89 f8                	mov    %edi,%eax
    81c9:	88 45 fc             	mov    %al,-0x4(%rbp)
    81cc:	0f b6 45 fc          	movzbl -0x4(%rbp),%eax
    81d0:	f7 d8                	neg    %eax
    81d2:	5d                   	pop    %rbp
    81d3:	c3                   	retq   

00000000000081d4 <safe_add_func_int8_t_s_s>:
    81d4:	f3 0f 1e fa          	endbr64 
    81d8:	55                   	push   %rbp
    81d9:	48 89 e5             	mov    %rsp,%rbp
    81dc:	89 fa                	mov    %edi,%edx
    81de:	89 f0                	mov    %esi,%eax
    81e0:	88 55 fc             	mov    %dl,-0x4(%rbp)
    81e3:	88 45 f8             	mov    %al,-0x8(%rbp)
    81e6:	0f b6 55 fc          	movzbl -0x4(%rbp),%edx
    81ea:	0f b6 45 f8          	movzbl -0x8(%rbp),%eax
    81ee:	01 d0                	add    %edx,%eax
    81f0:	5d                   	pop    %rbp
    81f1:	c3                   	retq   

00000000000081f2 <safe_sub_func_int8_t_s_s>:
    81f2:	f3 0f 1e fa          	endbr64 
    81f6:	55                   	push   %rbp
    81f7:	48 89 e5             	mov    %rsp,%rbp
    81fa:	89 fa                	mov    %edi,%edx
    81fc:	89 f0                	mov    %esi,%eax
    81fe:	88 55 fc             	mov    %dl,-0x4(%rbp)
    8201:	88 45 f8             	mov    %al,-0x8(%rbp)
    8204:	0f b6 55 fc          	movzbl -0x4(%rbp),%edx
    8208:	0f b6 45 f8          	movzbl -0x8(%rbp),%eax
    820c:	29 c2                	sub    %eax,%edx
    820e:	89 d0                	mov    %edx,%eax
    8210:	5d                   	pop    %rbp
    8211:	c3                   	retq   

0000000000008212 <safe_mul_func_int8_t_s_s>:
    8212:	f3 0f 1e fa          	endbr64 
    8216:	55                   	push   %rbp
    8217:	48 89 e5             	mov    %rsp,%rbp
    821a:	89 fa                	mov    %edi,%edx
    821c:	89 f0                	mov    %esi,%eax
    821e:	88 55 fc             	mov    %dl,-0x4(%rbp)
    8221:	88 45 f8             	mov    %al,-0x8(%rbp)
    8224:	0f b6 45 fc          	movzbl -0x4(%rbp),%eax
    8228:	0f b6 55 f8          	movzbl -0x8(%rbp),%edx
    822c:	0f af c2             	imul   %edx,%eax
    822f:	5d                   	pop    %rbp
    8230:	c3                   	retq   

0000000000008231 <safe_mod_func_int8_t_s_s>:
    8231:	f3 0f 1e fa          	endbr64 
    8235:	55                   	push   %rbp
    8236:	48 89 e5             	mov    %rsp,%rbp
    8239:	89 fa                	mov    %edi,%edx
    823b:	89 f0                	mov    %esi,%eax
    823d:	88 55 fc             	mov    %dl,-0x4(%rbp)
    8240:	88 45 f8             	mov    %al,-0x8(%rbp)
    8243:	80 7d f8 00          	cmpb   $0x0,-0x8(%rbp)
    8247:	74 1b                	je     8264 <safe_mod_func_int8_t_s_s+0x33>
    8249:	80 7d fc 80          	cmpb   $0x80,-0x4(%rbp)
    824d:	75 06                	jne    8255 <safe_mod_func_int8_t_s_s+0x24>
    824f:	80 7d f8 ff          	cmpb   $0xff,-0x8(%rbp)
    8253:	74 0f                	je     8264 <safe_mod_func_int8_t_s_s+0x33>
    8255:	0f be 45 fc          	movsbl -0x4(%rbp),%eax
    8259:	0f be 4d f8          	movsbl -0x8(%rbp),%ecx
    825d:	99                   	cltd   
    825e:	f7 f9                	idiv   %ecx
    8260:	89 d0                	mov    %edx,%eax
    8262:	eb 04                	jmp    8268 <safe_mod_func_int8_t_s_s+0x37>
    8264:	0f b6 45 fc          	movzbl -0x4(%rbp),%eax
    8268:	5d                   	pop    %rbp
    8269:	c3                   	retq   

000000000000826a <safe_div_func_int8_t_s_s>:
    826a:	f3 0f 1e fa          	endbr64 
    826e:	55                   	push   %rbp
    826f:	48 89 e5             	mov    %rsp,%rbp
    8272:	89 fa                	mov    %edi,%edx
    8274:	89 f0                	mov    %esi,%eax
    8276:	88 55 fc             	mov    %dl,-0x4(%rbp)
    8279:	88 45 f8             	mov    %al,-0x8(%rbp)
    827c:	80 7d f8 00          	cmpb   $0x0,-0x8(%rbp)
    8280:	74 19                	je     829b <safe_div_func_int8_t_s_s+0x31>
    8282:	80 7d fc 80          	cmpb   $0x80,-0x4(%rbp)
    8286:	75 06                	jne    828e <safe_div_func_int8_t_s_s+0x24>
    8288:	80 7d f8 ff          	cmpb   $0xff,-0x8(%rbp)
    828c:	74 0d                	je     829b <safe_div_func_int8_t_s_s+0x31>
    828e:	0f be 45 fc          	movsbl -0x4(%rbp),%eax
    8292:	0f be 4d f8          	movsbl -0x8(%rbp),%ecx
    8296:	99                   	cltd   
    8297:	f7 f9                	idiv   %ecx
    8299:	eb 04                	jmp    829f <safe_div_func_int8_t_s_s+0x35>
    829b:	0f b6 45 fc          	movzbl -0x4(%rbp),%eax
    829f:	5d                   	pop    %rbp
    82a0:	c3                   	retq   

00000000000082a1 <safe_lshift_func_int8_t_s_s>:
    82a1:	f3 0f 1e fa          	endbr64 
    82a5:	55                   	push   %rbp
    82a6:	48 89 e5             	mov    %rsp,%rbp
    82a9:	89 f8                	mov    %edi,%eax
    82ab:	89 75 f8             	mov    %esi,-0x8(%rbp)
    82ae:	88 45 fc             	mov    %al,-0x4(%rbp)
    82b1:	80 7d fc 00          	cmpb   $0x0,-0x4(%rbp)
    82b5:	78 31                	js     82e8 <safe_lshift_func_int8_t_s_s+0x47>
    82b7:	83 7d f8 00          	cmpl   $0x0,-0x8(%rbp)
    82bb:	78 2b                	js     82e8 <safe_lshift_func_int8_t_s_s+0x47>
    82bd:	83 7d f8 1f          	cmpl   $0x1f,-0x8(%rbp)
    82c1:	7f 25                	jg     82e8 <safe_lshift_func_int8_t_s_s+0x47>
    82c3:	0f be 55 fc          	movsbl -0x4(%rbp),%edx
    82c7:	8b 45 f8             	mov    -0x8(%rbp),%eax
    82ca:	be 7f 00 00 00       	mov    $0x7f,%esi
    82cf:	89 c1                	mov    %eax,%ecx
    82d1:	d3 fe                	sar    %cl,%esi
    82d3:	89 f0                	mov    %esi,%eax
    82d5:	39 c2                	cmp    %eax,%edx
    82d7:	7f 0f                	jg     82e8 <safe_lshift_func_int8_t_s_s+0x47>
    82d9:	0f be 55 fc          	movsbl -0x4(%rbp),%edx
    82dd:	8b 45 f8             	mov    -0x8(%rbp),%eax
    82e0:	89 c1                	mov    %eax,%ecx
    82e2:	d3 e2                	shl    %cl,%edx
    82e4:	89 d0                	mov    %edx,%eax
    82e6:	eb 04                	jmp    82ec <safe_lshift_func_int8_t_s_s+0x4b>
    82e8:	0f b6 45 fc          	movzbl -0x4(%rbp),%eax
    82ec:	5d                   	pop    %rbp
    82ed:	c3                   	retq   

00000000000082ee <safe_lshift_func_int8_t_s_u>:
    82ee:	f3 0f 1e fa          	endbr64 
    82f2:	55                   	push   %rbp
    82f3:	48 89 e5             	mov    %rsp,%rbp
    82f6:	89 f8                	mov    %edi,%eax
    82f8:	89 75 f8             	mov    %esi,-0x8(%rbp)
    82fb:	88 45 fc             	mov    %al,-0x4(%rbp)
    82fe:	80 7d fc 00          	cmpb   $0x0,-0x4(%rbp)
    8302:	78 2b                	js     832f <safe_lshift_func_int8_t_s_u+0x41>
    8304:	83 7d f8 1f          	cmpl   $0x1f,-0x8(%rbp)
    8308:	77 25                	ja     832f <safe_lshift_func_int8_t_s_u+0x41>
    830a:	0f be 55 fc          	movsbl -0x4(%rbp),%edx
    830e:	8b 45 f8             	mov    -0x8(%rbp),%eax
    8311:	be 7f 00 00 00       	mov    $0x7f,%esi
    8316:	89 c1                	mov    %eax,%ecx
    8318:	d3 fe                	sar    %cl,%esi
    831a:	89 f0                	mov    %esi,%eax
    831c:	39 c2                	cmp    %eax,%edx
    831e:	7f 0f                	jg     832f <safe_lshift_func_int8_t_s_u+0x41>
    8320:	0f be 55 fc          	movsbl -0x4(%rbp),%edx
    8324:	8b 45 f8             	mov    -0x8(%rbp),%eax
    8327:	89 c1                	mov    %eax,%ecx
    8329:	d3 e2                	shl    %cl,%edx
    832b:	89 d0                	mov    %edx,%eax
    832d:	eb 04                	jmp    8333 <safe_lshift_func_int8_t_s_u+0x45>
    832f:	0f b6 45 fc          	movzbl -0x4(%rbp),%eax
    8333:	5d                   	pop    %rbp
    8334:	c3                   	retq   

0000000000008335 <safe_rshift_func_int8_t_s_s>:
    8335:	f3 0f 1e fa          	endbr64 
    8339:	55                   	push   %rbp
    833a:	48 89 e5             	mov    %rsp,%rbp
    833d:	89 f8                	mov    %edi,%eax
    833f:	89 75 f8             	mov    %esi,-0x8(%rbp)
    8342:	88 45 fc             	mov    %al,-0x4(%rbp)
    8345:	80 7d fc 00          	cmpb   $0x0,-0x4(%rbp)
    8349:	78 1b                	js     8366 <safe_rshift_func_int8_t_s_s+0x31>
    834b:	83 7d f8 00          	cmpl   $0x0,-0x8(%rbp)
    834f:	78 15                	js     8366 <safe_rshift_func_int8_t_s_s+0x31>
    8351:	83 7d f8 1f          	cmpl   $0x1f,-0x8(%rbp)
    8355:	7f 0f                	jg     8366 <safe_rshift_func_int8_t_s_s+0x31>
    8357:	0f be 55 fc          	movsbl -0x4(%rbp),%edx
    835b:	8b 45 f8             	mov    -0x8(%rbp),%eax
    835e:	89 c1                	mov    %eax,%ecx
    8360:	d3 fa                	sar    %cl,%edx
    8362:	89 d0                	mov    %edx,%eax
    8364:	eb 04                	jmp    836a <safe_rshift_func_int8_t_s_s+0x35>
    8366:	0f b6 45 fc          	movzbl -0x4(%rbp),%eax
    836a:	5d                   	pop    %rbp
    836b:	c3                   	retq   

000000000000836c <safe_rshift_func_int8_t_s_u>:
    836c:	f3 0f 1e fa          	endbr64 
    8370:	55                   	push   %rbp
    8371:	48 89 e5             	mov    %rsp,%rbp
    8374:	89 f8                	mov    %edi,%eax
    8376:	89 75 f8             	mov    %esi,-0x8(%rbp)
    8379:	88 45 fc             	mov    %al,-0x4(%rbp)
    837c:	80 7d fc 00          	cmpb   $0x0,-0x4(%rbp)
    8380:	78 15                	js     8397 <safe_rshift_func_int8_t_s_u+0x2b>
    8382:	83 7d f8 1f          	cmpl   $0x1f,-0x8(%rbp)
    8386:	77 0f                	ja     8397 <safe_rshift_func_int8_t_s_u+0x2b>
    8388:	0f be 55 fc          	movsbl -0x4(%rbp),%edx
    838c:	8b 45 f8             	mov    -0x8(%rbp),%eax
    838f:	89 c1                	mov    %eax,%ecx
    8391:	d3 fa                	sar    %cl,%edx
    8393:	89 d0                	mov    %edx,%eax
    8395:	eb 04                	jmp    839b <safe_rshift_func_int8_t_s_u+0x2f>
    8397:	0f b6 45 fc          	movzbl -0x4(%rbp),%eax
    839b:	5d                   	pop    %rbp
    839c:	c3                   	retq   

000000000000839d <safe_unary_minus_func_int16_t_s>:
    839d:	f3 0f 1e fa          	endbr64 
    83a1:	55                   	push   %rbp
    83a2:	48 89 e5             	mov    %rsp,%rbp
    83a5:	89 f8                	mov    %edi,%eax
    83a7:	66 89 45 fc          	mov    %ax,-0x4(%rbp)
    83ab:	0f b7 45 fc          	movzwl -0x4(%rbp),%eax
    83af:	f7 d8                	neg    %eax
    83b1:	5d                   	pop    %rbp
    83b2:	c3                   	retq   

00000000000083b3 <safe_add_func_int16_t_s_s>:
    83b3:	f3 0f 1e fa          	endbr64 
    83b7:	55                   	push   %rbp
    83b8:	48 89 e5             	mov    %rsp,%rbp
    83bb:	89 fa                	mov    %edi,%edx
    83bd:	89 f0                	mov    %esi,%eax
    83bf:	66 89 55 fc          	mov    %dx,-0x4(%rbp)
    83c3:	66 89 45 f8          	mov    %ax,-0x8(%rbp)
    83c7:	0f b7 55 fc          	movzwl -0x4(%rbp),%edx
    83cb:	0f b7 45 f8          	movzwl -0x8(%rbp),%eax
    83cf:	01 d0                	add    %edx,%eax
    83d1:	5d                   	pop    %rbp
    83d2:	c3                   	retq   

00000000000083d3 <safe_sub_func_int16_t_s_s>:
    83d3:	f3 0f 1e fa          	endbr64 
    83d7:	55                   	push   %rbp
    83d8:	48 89 e5             	mov    %rsp,%rbp
    83db:	89 fa                	mov    %edi,%edx
    83dd:	89 f0                	mov    %esi,%eax
    83df:	66 89 55 fc          	mov    %dx,-0x4(%rbp)
    83e3:	66 89 45 f8          	mov    %ax,-0x8(%rbp)
    83e7:	0f b7 55 fc          	movzwl -0x4(%rbp),%edx
    83eb:	0f b7 45 f8          	movzwl -0x8(%rbp),%eax
    83ef:	29 c2                	sub    %eax,%edx
    83f1:	89 d0                	mov    %edx,%eax
    83f3:	5d                   	pop    %rbp
    83f4:	c3                   	retq   

00000000000083f5 <safe_mul_func_int16_t_s_s>:
    83f5:	f3 0f 1e fa          	endbr64 
    83f9:	55                   	push   %rbp
    83fa:	48 89 e5             	mov    %rsp,%rbp
    83fd:	89 fa                	mov    %edi,%edx
    83ff:	89 f0                	mov    %esi,%eax
    8401:	66 89 55 fc          	mov    %dx,-0x4(%rbp)
    8405:	66 89 45 f8          	mov    %ax,-0x8(%rbp)
    8409:	0f b7 55 fc          	movzwl -0x4(%rbp),%edx
    840d:	0f b7 45 f8          	movzwl -0x8(%rbp),%eax
    8411:	0f af c2             	imul   %edx,%eax
    8414:	5d                   	pop    %rbp
    8415:	c3                   	retq   

0000000000008416 <safe_mod_func_int16_t_s_s>:
    8416:	f3 0f 1e fa          	endbr64 
    841a:	55                   	push   %rbp
    841b:	48 89 e5             	mov    %rsp,%rbp
    841e:	89 fa                	mov    %edi,%edx
    8420:	89 f0                	mov    %esi,%eax
    8422:	66 89 55 fc          	mov    %dx,-0x4(%rbp)
    8426:	66 89 45 f8          	mov    %ax,-0x8(%rbp)
    842a:	66 83 7d f8 00       	cmpw   $0x0,-0x8(%rbp)
    842f:	74 1e                	je     844f <safe_mod_func_int16_t_s_s+0x39>
    8431:	66 81 7d fc 00 80    	cmpw   $0x8000,-0x4(%rbp)
    8437:	75 07                	jne    8440 <safe_mod_func_int16_t_s_s+0x2a>
    8439:	66 83 7d f8 ff       	cmpw   $0xffff,-0x8(%rbp)
    843e:	74 0f                	je     844f <safe_mod_func_int16_t_s_s+0x39>
    8440:	0f bf 45 fc          	movswl -0x4(%rbp),%eax
    8444:	0f bf 4d f8          	movswl -0x8(%rbp),%ecx
    8448:	99                   	cltd   
    8449:	f7 f9                	idiv   %ecx
    844b:	89 d0                	mov    %edx,%eax
    844d:	eb 04                	jmp    8453 <safe_mod_func_int16_t_s_s+0x3d>
    844f:	0f b7 45 fc          	movzwl -0x4(%rbp),%eax
    8453:	5d                   	pop    %rbp
    8454:	c3                   	retq   

0000000000008455 <safe_div_func_int16_t_s_s>:
    8455:	f3 0f 1e fa          	endbr64 
    8459:	55                   	push   %rbp
    845a:	48 89 e5             	mov    %rsp,%rbp
    845d:	89 fa                	mov    %edi,%edx
    845f:	89 f0                	mov    %esi,%eax
    8461:	66 89 55 fc          	mov    %dx,-0x4(%rbp)
    8465:	66 89 45 f8          	mov    %ax,-0x8(%rbp)
    8469:	66 83 7d f8 00       	cmpw   $0x0,-0x8(%rbp)
    846e:	74 1c                	je     848c <safe_div_func_int16_t_s_s+0x37>
    8470:	66 81 7d fc 00 80    	cmpw   $0x8000,-0x4(%rbp)
    8476:	75 07                	jne    847f <safe_div_func_int16_t_s_s+0x2a>
    8478:	66 83 7d f8 ff       	cmpw   $0xffff,-0x8(%rbp)
    847d:	74 0d                	je     848c <safe_div_func_int16_t_s_s+0x37>
    847f:	0f bf 45 fc          	movswl -0x4(%rbp),%eax
    8483:	0f bf 4d f8          	movswl -0x8(%rbp),%ecx
    8487:	99                   	cltd   
    8488:	f7 f9                	idiv   %ecx
    848a:	eb 04                	jmp    8490 <safe_div_func_int16_t_s_s+0x3b>
    848c:	0f b7 45 fc          	movzwl -0x4(%rbp),%eax
    8490:	5d                   	pop    %rbp
    8491:	c3                   	retq   

0000000000008492 <safe_lshift_func_int16_t_s_s>:
    8492:	f3 0f 1e fa          	endbr64 
    8496:	55                   	push   %rbp
    8497:	48 89 e5             	mov    %rsp,%rbp
    849a:	89 f8                	mov    %edi,%eax
    849c:	89 75 f8             	mov    %esi,-0x8(%rbp)
    849f:	66 89 45 fc          	mov    %ax,-0x4(%rbp)
    84a3:	66 83 7d fc 00       	cmpw   $0x0,-0x4(%rbp)
    84a8:	78 31                	js     84db <safe_lshift_func_int16_t_s_s+0x49>
    84aa:	83 7d f8 00          	cmpl   $0x0,-0x8(%rbp)
    84ae:	78 2b                	js     84db <safe_lshift_func_int16_t_s_s+0x49>
    84b0:	83 7d f8 1f          	cmpl   $0x1f,-0x8(%rbp)
    84b4:	7f 25                	jg     84db <safe_lshift_func_int16_t_s_s+0x49>
    84b6:	0f bf 55 fc          	movswl -0x4(%rbp),%edx
    84ba:	8b 45 f8             	mov    -0x8(%rbp),%eax
    84bd:	be ff 7f 00 00       	mov    $0x7fff,%esi
    84c2:	89 c1                	mov    %eax,%ecx
    84c4:	d3 fe                	sar    %cl,%esi
    84c6:	89 f0                	mov    %esi,%eax
    84c8:	39 c2                	cmp    %eax,%edx
    84ca:	7f 0f                	jg     84db <safe_lshift_func_int16_t_s_s+0x49>
    84cc:	0f bf 55 fc          	movswl -0x4(%rbp),%edx
    84d0:	8b 45 f8             	mov    -0x8(%rbp),%eax
    84d3:	89 c1                	mov    %eax,%ecx
    84d5:	d3 e2                	shl    %cl,%edx
    84d7:	89 d0                	mov    %edx,%eax
    84d9:	eb 04                	jmp    84df <safe_lshift_func_int16_t_s_s+0x4d>
    84db:	0f b7 45 fc          	movzwl -0x4(%rbp),%eax
    84df:	5d                   	pop    %rbp
    84e0:	c3                   	retq   

00000000000084e1 <safe_lshift_func_int16_t_s_u>:
    84e1:	f3 0f 1e fa          	endbr64 
    84e5:	55                   	push   %rbp
    84e6:	48 89 e5             	mov    %rsp,%rbp
    84e9:	89 f8                	mov    %edi,%eax
    84eb:	89 75 f8             	mov    %esi,-0x8(%rbp)
    84ee:	66 89 45 fc          	mov    %ax,-0x4(%rbp)
    84f2:	66 83 7d fc 00       	cmpw   $0x0,-0x4(%rbp)
    84f7:	78 2b                	js     8524 <safe_lshift_func_int16_t_s_u+0x43>
    84f9:	83 7d f8 1f          	cmpl   $0x1f,-0x8(%rbp)
    84fd:	77 25                	ja     8524 <safe_lshift_func_int16_t_s_u+0x43>
    84ff:	0f bf 55 fc          	movswl -0x4(%rbp),%edx
    8503:	8b 45 f8             	mov    -0x8(%rbp),%eax
    8506:	be ff 7f 00 00       	mov    $0x7fff,%esi
    850b:	89 c1                	mov    %eax,%ecx
    850d:	d3 fe                	sar    %cl,%esi
    850f:	89 f0                	mov    %esi,%eax
    8511:	39 c2                	cmp    %eax,%edx
    8513:	7f 0f                	jg     8524 <safe_lshift_func_int16_t_s_u+0x43>
    8515:	0f bf 55 fc          	movswl -0x4(%rbp),%edx
    8519:	8b 45 f8             	mov    -0x8(%rbp),%eax
    851c:	89 c1                	mov    %eax,%ecx
    851e:	d3 e2                	shl    %cl,%edx
    8520:	89 d0                	mov    %edx,%eax
    8522:	eb 04                	jmp    8528 <safe_lshift_func_int16_t_s_u+0x47>
    8524:	0f b7 45 fc          	movzwl -0x4(%rbp),%eax
    8528:	5d                   	pop    %rbp
    8529:	c3                   	retq   

000000000000852a <safe_rshift_func_int16_t_s_s>:
    852a:	f3 0f 1e fa          	endbr64 
    852e:	55                   	push   %rbp
    852f:	48 89 e5             	mov    %rsp,%rbp
    8532:	89 f8                	mov    %edi,%eax
    8534:	89 75 f8             	mov    %esi,-0x8(%rbp)
    8537:	66 89 45 fc          	mov    %ax,-0x4(%rbp)
    853b:	66 83 7d fc 00       	cmpw   $0x0,-0x4(%rbp)
    8540:	78 1b                	js     855d <safe_rshift_func_int16_t_s_s+0x33>
    8542:	83 7d f8 00          	cmpl   $0x0,-0x8(%rbp)
    8546:	78 15                	js     855d <safe_rshift_func_int16_t_s_s+0x33>
    8548:	83 7d f8 1f          	cmpl   $0x1f,-0x8(%rbp)
    854c:	7f 0f                	jg     855d <safe_rshift_func_int16_t_s_s+0x33>
    854e:	0f bf 55 fc          	movswl -0x4(%rbp),%edx
    8552:	8b 45 f8             	mov    -0x8(%rbp),%eax
    8555:	89 c1                	mov    %eax,%ecx
    8557:	d3 fa                	sar    %cl,%edx
    8559:	89 d0                	mov    %edx,%eax
    855b:	eb 04                	jmp    8561 <safe_rshift_func_int16_t_s_s+0x37>
    855d:	0f b7 45 fc          	movzwl -0x4(%rbp),%eax
    8561:	5d                   	pop    %rbp
    8562:	c3                   	retq   

0000000000008563 <safe_rshift_func_int16_t_s_u>:
    8563:	f3 0f 1e fa          	endbr64 
    8567:	55                   	push   %rbp
    8568:	48 89 e5             	mov    %rsp,%rbp
    856b:	89 f8                	mov    %edi,%eax
    856d:	89 75 f8             	mov    %esi,-0x8(%rbp)
    8570:	66 89 45 fc          	mov    %ax,-0x4(%rbp)
    8574:	66 83 7d fc 00       	cmpw   $0x0,-0x4(%rbp)
    8579:	78 15                	js     8590 <safe_rshift_func_int16_t_s_u+0x2d>
    857b:	83 7d f8 1f          	cmpl   $0x1f,-0x8(%rbp)
    857f:	77 0f                	ja     8590 <safe_rshift_func_int16_t_s_u+0x2d>
    8581:	0f bf 55 fc          	movswl -0x4(%rbp),%edx
    8585:	8b 45 f8             	mov    -0x8(%rbp),%eax
    8588:	89 c1                	mov    %eax,%ecx
    858a:	d3 fa                	sar    %cl,%edx
    858c:	89 d0                	mov    %edx,%eax
    858e:	eb 04                	jmp    8594 <safe_rshift_func_int16_t_s_u+0x31>
    8590:	0f b7 45 fc          	movzwl -0x4(%rbp),%eax
    8594:	5d                   	pop    %rbp
    8595:	c3                   	retq   

0000000000008596 <safe_unary_minus_func_int32_t_s>:
    8596:	f3 0f 1e fa          	endbr64 
    859a:	55                   	push   %rbp
    859b:	48 89 e5             	mov    %rsp,%rbp
    859e:	89 7d fc             	mov    %edi,-0x4(%rbp)
    85a1:	81 7d fc 00 00 00 80 	cmpl   $0x80000000,-0x4(%rbp)
    85a8:	74 07                	je     85b1 <safe_unary_minus_func_int32_t_s+0x1b>
    85aa:	8b 45 fc             	mov    -0x4(%rbp),%eax
    85ad:	f7 d8                	neg    %eax
    85af:	eb 03                	jmp    85b4 <safe_unary_minus_func_int32_t_s+0x1e>
    85b1:	8b 45 fc             	mov    -0x4(%rbp),%eax
    85b4:	5d                   	pop    %rbp
    85b5:	c3                   	retq   

00000000000085b6 <safe_add_func_int32_t_s_s>:
    85b6:	f3 0f 1e fa          	endbr64 
    85ba:	55                   	push   %rbp
    85bb:	48 89 e5             	mov    %rsp,%rbp
    85be:	89 7d fc             	mov    %edi,-0x4(%rbp)
    85c1:	89 75 f8             	mov    %esi,-0x8(%rbp)
    85c4:	83 7d fc 00          	cmpl   $0x0,-0x4(%rbp)
    85c8:	7e 13                	jle    85dd <safe_add_func_int32_t_s_s+0x27>
    85ca:	83 7d f8 00          	cmpl   $0x0,-0x8(%rbp)
    85ce:	7e 0d                	jle    85dd <safe_add_func_int32_t_s_s+0x27>
    85d0:	b8 ff ff ff 7f       	mov    $0x7fffffff,%eax
    85d5:	2b 45 f8             	sub    -0x8(%rbp),%eax
    85d8:	39 45 fc             	cmp    %eax,-0x4(%rbp)
    85db:	7f 23                	jg     8600 <safe_add_func_int32_t_s_s+0x4a>
    85dd:	83 7d fc 00          	cmpl   $0x0,-0x4(%rbp)
    85e1:	79 13                	jns    85f6 <safe_add_func_int32_t_s_s+0x40>
    85e3:	83 7d f8 00          	cmpl   $0x0,-0x8(%rbp)
    85e7:	79 0d                	jns    85f6 <safe_add_func_int32_t_s_s+0x40>
    85e9:	b8 00 00 00 80       	mov    $0x80000000,%eax
    85ee:	2b 45 f8             	sub    -0x8(%rbp),%eax
    85f1:	39 45 fc             	cmp    %eax,-0x4(%rbp)
    85f4:	7c 0a                	jl     8600 <safe_add_func_int32_t_s_s+0x4a>
    85f6:	8b 55 fc             	mov    -0x4(%rbp),%edx
    85f9:	8b 45 f8             	mov    -0x8(%rbp),%eax
    85fc:	01 d0                	add    %edx,%eax
    85fe:	eb 03                	jmp    8603 <safe_add_func_int32_t_s_s+0x4d>
    8600:	8b 45 fc             	mov    -0x4(%rbp),%eax
    8603:	5d                   	pop    %rbp
    8604:	c3                   	retq   

0000000000008605 <safe_sub_func_int32_t_s_s>:
    8605:	f3 0f 1e fa          	endbr64 
    8609:	55                   	push   %rbp
    860a:	48 89 e5             	mov    %rsp,%rbp
    860d:	89 7d fc             	mov    %edi,-0x4(%rbp)
    8610:	89 75 f8             	mov    %esi,-0x8(%rbp)
    8613:	8b 45 fc             	mov    -0x4(%rbp),%eax
    8616:	33 45 f8             	xor    -0x8(%rbp),%eax
    8619:	89 c2                	mov    %eax,%edx
    861b:	8b 45 fc             	mov    -0x4(%rbp),%eax
    861e:	33 45 f8             	xor    -0x8(%rbp),%eax
    8621:	25 00 00 00 80       	and    $0x80000000,%eax
    8626:	33 45 fc             	xor    -0x4(%rbp),%eax
    8629:	2b 45 f8             	sub    -0x8(%rbp),%eax
    862c:	33 45 f8             	xor    -0x8(%rbp),%eax
    862f:	21 d0                	and    %edx,%eax
    8631:	85 c0                	test   %eax,%eax
    8633:	78 08                	js     863d <safe_sub_func_int32_t_s_s+0x38>
    8635:	8b 45 fc             	mov    -0x4(%rbp),%eax
    8638:	2b 45 f8             	sub    -0x8(%rbp),%eax
    863b:	eb 03                	jmp    8640 <safe_sub_func_int32_t_s_s+0x3b>
    863d:	8b 45 fc             	mov    -0x4(%rbp),%eax
    8640:	5d                   	pop    %rbp
    8641:	c3                   	retq   

0000000000008642 <safe_mul_func_int32_t_s_s>:
    8642:	f3 0f 1e fa          	endbr64 
    8646:	55                   	push   %rbp
    8647:	48 89 e5             	mov    %rsp,%rbp
    864a:	89 7d fc             	mov    %edi,-0x4(%rbp)
    864d:	89 75 f8             	mov    %esi,-0x8(%rbp)
    8650:	83 7d fc 00          	cmpl   $0x0,-0x4(%rbp)
    8654:	7e 14                	jle    866a <safe_mul_func_int32_t_s_s+0x28>
    8656:	83 7d f8 00          	cmpl   $0x0,-0x8(%rbp)
    865a:	7e 0e                	jle    866a <safe_mul_func_int32_t_s_s+0x28>
    865c:	b8 ff ff ff 7f       	mov    $0x7fffffff,%eax
    8661:	99                   	cltd   
    8662:	f7 7d f8             	idivl  -0x8(%rbp)
    8665:	39 45 fc             	cmp    %eax,-0x4(%rbp)
    8668:	7f 5d                	jg     86c7 <safe_mul_func_int32_t_s_s+0x85>
    866a:	83 7d fc 00          	cmpl   $0x0,-0x4(%rbp)
    866e:	7e 14                	jle    8684 <safe_mul_func_int32_t_s_s+0x42>
    8670:	83 7d f8 00          	cmpl   $0x0,-0x8(%rbp)
    8674:	7f 0e                	jg     8684 <safe_mul_func_int32_t_s_s+0x42>
    8676:	b8 00 00 00 80       	mov    $0x80000000,%eax
    867b:	99                   	cltd   
    867c:	f7 7d fc             	idivl  -0x4(%rbp)
    867f:	39 45 f8             	cmp    %eax,-0x8(%rbp)
    8682:	7c 43                	jl     86c7 <safe_mul_func_int32_t_s_s+0x85>
    8684:	83 7d fc 00          	cmpl   $0x0,-0x4(%rbp)
    8688:	7f 14                	jg     869e <safe_mul_func_int32_t_s_s+0x5c>
    868a:	83 7d f8 00          	cmpl   $0x0,-0x8(%rbp)
    868e:	7e 0e                	jle    869e <safe_mul_func_int32_t_s_s+0x5c>
    8690:	b8 00 00 00 80       	mov    $0x80000000,%eax
    8695:	99                   	cltd   
    8696:	f7 7d f8             	idivl  -0x8(%rbp)
    8699:	39 45 fc             	cmp    %eax,-0x4(%rbp)
    869c:	7c 29                	jl     86c7 <safe_mul_func_int32_t_s_s+0x85>
    869e:	83 7d fc 00          	cmpl   $0x0,-0x4(%rbp)
    86a2:	7f 1a                	jg     86be <safe_mul_func_int32_t_s_s+0x7c>
    86a4:	83 7d f8 00          	cmpl   $0x0,-0x8(%rbp)
    86a8:	7f 14                	jg     86be <safe_mul_func_int32_t_s_s+0x7c>
    86aa:	83 7d fc 00          	cmpl   $0x0,-0x4(%rbp)
    86ae:	74 0e                	je     86be <safe_mul_func_int32_t_s_s+0x7c>
    86b0:	b8 ff ff ff 7f       	mov    $0x7fffffff,%eax
    86b5:	99                   	cltd   
    86b6:	f7 7d fc             	idivl  -0x4(%rbp)
    86b9:	39 45 f8             	cmp    %eax,-0x8(%rbp)
    86bc:	7c 09                	jl     86c7 <safe_mul_func_int32_t_s_s+0x85>
    86be:	8b 45 fc             	mov    -0x4(%rbp),%eax
    86c1:	0f af 45 f8          	imul   -0x8(%rbp),%eax
    86c5:	eb 03                	jmp    86ca <safe_mul_func_int32_t_s_s+0x88>
    86c7:	8b 45 fc             	mov    -0x4(%rbp),%eax
    86ca:	5d                   	pop    %rbp
    86cb:	c3                   	retq   

00000000000086cc <safe_mod_func_int32_t_s_s>:
    86cc:	f3 0f 1e fa          	endbr64 
    86d0:	55                   	push   %rbp
    86d1:	48 89 e5             	mov    %rsp,%rbp
    86d4:	89 7d fc             	mov    %edi,-0x4(%rbp)
    86d7:	89 75 f8             	mov    %esi,-0x8(%rbp)
    86da:	83 7d f8 00          	cmpl   $0x0,-0x8(%rbp)
    86de:	74 1a                	je     86fa <safe_mod_func_int32_t_s_s+0x2e>
    86e0:	81 7d fc 00 00 00 80 	cmpl   $0x80000000,-0x4(%rbp)
    86e7:	75 06                	jne    86ef <safe_mod_func_int32_t_s_s+0x23>
    86e9:	83 7d f8 ff          	cmpl   $0xffffffff,-0x8(%rbp)
    86ed:	74 0b                	je     86fa <safe_mod_func_int32_t_s_s+0x2e>
    86ef:	8b 45 fc             	mov    -0x4(%rbp),%eax
    86f2:	99                   	cltd   
    86f3:	f7 7d f8             	idivl  -0x8(%rbp)
    86f6:	89 d0                	mov    %edx,%eax
    86f8:	eb 03                	jmp    86fd <safe_mod_func_int32_t_s_s+0x31>
    86fa:	8b 45 fc             	mov    -0x4(%rbp),%eax
    86fd:	5d                   	pop    %rbp
    86fe:	c3                   	retq   

00000000000086ff <safe_div_func_int32_t_s_s>:
    86ff:	f3 0f 1e fa          	endbr64 
    8703:	55                   	push   %rbp
    8704:	48 89 e5             	mov    %rsp,%rbp
    8707:	89 7d fc             	mov    %edi,-0x4(%rbp)
    870a:	89 75 f8             	mov    %esi,-0x8(%rbp)
    870d:	83 7d f8 00          	cmpl   $0x0,-0x8(%rbp)
    8711:	74 18                	je     872b <safe_div_func_int32_t_s_s+0x2c>
    8713:	81 7d fc 00 00 00 80 	cmpl   $0x80000000,-0x4(%rbp)
    871a:	75 06                	jne    8722 <safe_div_func_int32_t_s_s+0x23>
    871c:	83 7d f8 ff          	cmpl   $0xffffffff,-0x8(%rbp)
    8720:	74 09                	je     872b <safe_div_func_int32_t_s_s+0x2c>
    8722:	8b 45 fc             	mov    -0x4(%rbp),%eax
    8725:	99                   	cltd   
    8726:	f7 7d f8             	idivl  -0x8(%rbp)
    8729:	eb 03                	jmp    872e <safe_div_func_int32_t_s_s+0x2f>
    872b:	8b 45 fc             	mov    -0x4(%rbp),%eax
    872e:	5d                   	pop    %rbp
    872f:	c3                   	retq   

0000000000008730 <safe_lshift_func_int32_t_s_s>:
    8730:	f3 0f 1e fa          	endbr64 
    8734:	55                   	push   %rbp
    8735:	48 89 e5             	mov    %rsp,%rbp
    8738:	89 7d fc             	mov    %edi,-0x4(%rbp)
    873b:	89 75 f8             	mov    %esi,-0x8(%rbp)
    873e:	83 7d fc 00          	cmpl   $0x0,-0x4(%rbp)
    8742:	78 2d                	js     8771 <safe_lshift_func_int32_t_s_s+0x41>
    8744:	83 7d f8 00          	cmpl   $0x0,-0x8(%rbp)
    8748:	78 27                	js     8771 <safe_lshift_func_int32_t_s_s+0x41>
    874a:	83 7d f8 1f          	cmpl   $0x1f,-0x8(%rbp)
    874e:	7f 21                	jg     8771 <safe_lshift_func_int32_t_s_s+0x41>
    8750:	8b 45 f8             	mov    -0x8(%rbp),%eax
    8753:	ba ff ff ff 7f       	mov    $0x7fffffff,%edx
    8758:	89 c1                	mov    %eax,%ecx
    875a:	d3 fa                	sar    %cl,%edx
    875c:	89 d0                	mov    %edx,%eax
    875e:	39 45 fc             	cmp    %eax,-0x4(%rbp)
    8761:	7f 0e                	jg     8771 <safe_lshift_func_int32_t_s_s+0x41>
    8763:	8b 45 f8             	mov    -0x8(%rbp),%eax
    8766:	8b 55 fc             	mov    -0x4(%rbp),%edx
    8769:	89 c1                	mov    %eax,%ecx
    876b:	d3 e2                	shl    %cl,%edx
    876d:	89 d0                	mov    %edx,%eax
    876f:	eb 03                	jmp    8774 <safe_lshift_func_int32_t_s_s+0x44>
    8771:	8b 45 fc             	mov    -0x4(%rbp),%eax
    8774:	5d                   	pop    %rbp
    8775:	c3                   	retq   

0000000000008776 <safe_lshift_func_int32_t_s_u>:
    8776:	f3 0f 1e fa          	endbr64 
    877a:	55                   	push   %rbp
    877b:	48 89 e5             	mov    %rsp,%rbp
    877e:	89 7d fc             	mov    %edi,-0x4(%rbp)
    8781:	89 75 f8             	mov    %esi,-0x8(%rbp)
    8784:	83 7d fc 00          	cmpl   $0x0,-0x4(%rbp)
    8788:	78 27                	js     87b1 <safe_lshift_func_int32_t_s_u+0x3b>
    878a:	83 7d f8 1f          	cmpl   $0x1f,-0x8(%rbp)
    878e:	77 21                	ja     87b1 <safe_lshift_func_int32_t_s_u+0x3b>
    8790:	8b 45 f8             	mov    -0x8(%rbp),%eax
    8793:	ba ff ff ff 7f       	mov    $0x7fffffff,%edx
    8798:	89 c1                	mov    %eax,%ecx
    879a:	d3 fa                	sar    %cl,%edx
    879c:	89 d0                	mov    %edx,%eax
    879e:	39 45 fc             	cmp    %eax,-0x4(%rbp)
    87a1:	7f 0e                	jg     87b1 <safe_lshift_func_int32_t_s_u+0x3b>
    87a3:	8b 45 f8             	mov    -0x8(%rbp),%eax
    87a6:	8b 55 fc             	mov    -0x4(%rbp),%edx
    87a9:	89 c1                	mov    %eax,%ecx
    87ab:	d3 e2                	shl    %cl,%edx
    87ad:	89 d0                	mov    %edx,%eax
    87af:	eb 03                	jmp    87b4 <safe_lshift_func_int32_t_s_u+0x3e>
    87b1:	8b 45 fc             	mov    -0x4(%rbp),%eax
    87b4:	5d                   	pop    %rbp
    87b5:	c3                   	retq   

00000000000087b6 <safe_rshift_func_int32_t_s_s>:
    87b6:	f3 0f 1e fa          	endbr64 
    87ba:	55                   	push   %rbp
    87bb:	48 89 e5             	mov    %rsp,%rbp
    87be:	89 7d fc             	mov    %edi,-0x4(%rbp)
    87c1:	89 75 f8             	mov    %esi,-0x8(%rbp)
    87c4:	83 7d fc 00          	cmpl   $0x0,-0x4(%rbp)
    87c8:	78 1a                	js     87e4 <safe_rshift_func_int32_t_s_s+0x2e>
    87ca:	83 7d f8 00          	cmpl   $0x0,-0x8(%rbp)
    87ce:	78 14                	js     87e4 <safe_rshift_func_int32_t_s_s+0x2e>
    87d0:	83 7d f8 1f          	cmpl   $0x1f,-0x8(%rbp)
    87d4:	7f 0e                	jg     87e4 <safe_rshift_func_int32_t_s_s+0x2e>
    87d6:	8b 45 f8             	mov    -0x8(%rbp),%eax
    87d9:	8b 55 fc             	mov    -0x4(%rbp),%edx
    87dc:	89 c1                	mov    %eax,%ecx
    87de:	d3 fa                	sar    %cl,%edx
    87e0:	89 d0                	mov    %edx,%eax
    87e2:	eb 03                	jmp    87e7 <safe_rshift_func_int32_t_s_s+0x31>
    87e4:	8b 45 fc             	mov    -0x4(%rbp),%eax
    87e7:	5d                   	pop    %rbp
    87e8:	c3                   	retq   

00000000000087e9 <safe_rshift_func_int32_t_s_u>:
    87e9:	f3 0f 1e fa          	endbr64 
    87ed:	55                   	push   %rbp
    87ee:	48 89 e5             	mov    %rsp,%rbp
    87f1:	89 7d fc             	mov    %edi,-0x4(%rbp)
    87f4:	89 75 f8             	mov    %esi,-0x8(%rbp)
    87f7:	83 7d fc 00          	cmpl   $0x0,-0x4(%rbp)
    87fb:	78 14                	js     8811 <safe_rshift_func_int32_t_s_u+0x28>
    87fd:	83 7d f8 1f          	cmpl   $0x1f,-0x8(%rbp)
    8801:	77 0e                	ja     8811 <safe_rshift_func_int32_t_s_u+0x28>
    8803:	8b 45 f8             	mov    -0x8(%rbp),%eax
    8806:	8b 55 fc             	mov    -0x4(%rbp),%edx
    8809:	89 c1                	mov    %eax,%ecx
    880b:	d3 fa                	sar    %cl,%edx
    880d:	89 d0                	mov    %edx,%eax
    880f:	eb 03                	jmp    8814 <safe_rshift_func_int32_t_s_u+0x2b>
    8811:	8b 45 fc             	mov    -0x4(%rbp),%eax
    8814:	5d                   	pop    %rbp
    8815:	c3                   	retq   

0000000000008816 <safe_unary_minus_func_int64_t_s>:
    8816:	f3 0f 1e fa          	endbr64 
    881a:	55                   	push   %rbp
    881b:	48 89 e5             	mov    %rsp,%rbp
    881e:	48 89 7d f8          	mov    %rdi,-0x8(%rbp)
    8822:	48 b8 00 00 00 00 00 	movabs $0x8000000000000000,%rax
    8829:	00 00 80 
    882c:	48 39 45 f8          	cmp    %rax,-0x8(%rbp)
    8830:	74 09                	je     883b <safe_unary_minus_func_int64_t_s+0x25>
    8832:	48 8b 45 f8          	mov    -0x8(%rbp),%rax
    8836:	48 f7 d8             	neg    %rax
    8839:	eb 04                	jmp    883f <safe_unary_minus_func_int64_t_s+0x29>
    883b:	48 8b 45 f8          	mov    -0x8(%rbp),%rax
    883f:	5d                   	pop    %rbp
    8840:	c3                   	retq   

0000000000008841 <safe_add_func_int64_t_s_s>:
    8841:	f3 0f 1e fa          	endbr64 
    8845:	55                   	push   %rbp
    8846:	48 89 e5             	mov    %rsp,%rbp
    8849:	48 89 7d f8          	mov    %rdi,-0x8(%rbp)
    884d:	48 89 75 f0          	mov    %rsi,-0x10(%rbp)
    8851:	48 83 7d f8 00       	cmpq   $0x0,-0x8(%rbp)
    8856:	7e 1b                	jle    8873 <safe_add_func_int64_t_s_s+0x32>
    8858:	48 83 7d f0 00       	cmpq   $0x0,-0x10(%rbp)
    885d:	7e 14                	jle    8873 <safe_add_func_int64_t_s_s+0x32>
    885f:	48 b8 ff ff ff ff ff 	movabs $0x7fffffffffffffff,%rax
    8866:	ff ff 7f 
    8869:	48 2b 45 f0          	sub    -0x10(%rbp),%rax
    886d:	48 39 45 f8          	cmp    %rax,-0x8(%rbp)
    8871:	7f 2f                	jg     88a2 <safe_add_func_int64_t_s_s+0x61>
    8873:	48 83 7d f8 00       	cmpq   $0x0,-0x8(%rbp)
    8878:	79 1b                	jns    8895 <safe_add_func_int64_t_s_s+0x54>
    887a:	48 83 7d f0 00       	cmpq   $0x0,-0x10(%rbp)
    887f:	79 14                	jns    8895 <safe_add_func_int64_t_s_s+0x54>
    8881:	48 b8 00 00 00 00 00 	movabs $0x8000000000000000,%rax
    8888:	00 00 80 
    888b:	48 2b 45 f0          	sub    -0x10(%rbp),%rax
    888f:	48 39 45 f8          	cmp    %rax,-0x8(%rbp)
    8893:	7c 0d                	jl     88a2 <safe_add_func_int64_t_s_s+0x61>
    8895:	48 8b 55 f8          	mov    -0x8(%rbp),%rdx
    8899:	48 8b 45 f0          	mov    -0x10(%rbp),%rax
    889d:	48 01 d0             	add    %rdx,%rax
    88a0:	eb 04                	jmp    88a6 <safe_add_func_int64_t_s_s+0x65>
    88a2:	48 8b 45 f8          	mov    -0x8(%rbp),%rax
    88a6:	5d                   	pop    %rbp
    88a7:	c3                   	retq   

00000000000088a8 <safe_sub_func_int64_t_s_s>:
    88a8:	f3 0f 1e fa          	endbr64 
    88ac:	55                   	push   %rbp
    88ad:	48 89 e5             	mov    %rsp,%rbp
    88b0:	48 89 7d f8          	mov    %rdi,-0x8(%rbp)
    88b4:	48 89 75 f0          	mov    %rsi,-0x10(%rbp)
    88b8:	48 8b 45 f8          	mov    -0x8(%rbp),%rax
    88bc:	48 33 45 f0          	xor    -0x10(%rbp),%rax
    88c0:	48 89 c2             	mov    %rax,%rdx
    88c3:	48 8b 45 f8          	mov    -0x8(%rbp),%rax
    88c7:	48 33 45 f0          	xor    -0x10(%rbp),%rax
    88cb:	48 b9 00 00 00 00 00 	movabs $0x8000000000000000,%rcx
    88d2:	00 00 80 
    88d5:	48 21 c8             	and    %rcx,%rax
    88d8:	48 33 45 f8          	xor    -0x8(%rbp),%rax
    88dc:	48 2b 45 f0          	sub    -0x10(%rbp),%rax
    88e0:	48 33 45 f0          	xor    -0x10(%rbp),%rax
    88e4:	48 21 d0             	and    %rdx,%rax
    88e7:	48 85 c0             	test   %rax,%rax
    88ea:	78 0a                	js     88f6 <safe_sub_func_int64_t_s_s+0x4e>
    88ec:	48 8b 45 f8          	mov    -0x8(%rbp),%rax
    88f0:	48 2b 45 f0          	sub    -0x10(%rbp),%rax
    88f4:	eb 04                	jmp    88fa <safe_sub_func_int64_t_s_s+0x52>
    88f6:	48 8b 45 f8          	mov    -0x8(%rbp),%rax
    88fa:	5d                   	pop    %rbp
    88fb:	c3                   	retq   

00000000000088fc <safe_mul_func_int64_t_s_s>:
    88fc:	f3 0f 1e fa          	endbr64 
    8900:	55                   	push   %rbp
    8901:	48 89 e5             	mov    %rsp,%rbp
    8904:	48 89 7d f8          	mov    %rdi,-0x8(%rbp)
    8908:	48 89 75 f0          	mov    %rsi,-0x10(%rbp)
    890c:	48 83 7d f8 00       	cmpq   $0x0,-0x8(%rbp)
    8911:	7e 1d                	jle    8930 <safe_mul_func_int64_t_s_s+0x34>
    8913:	48 83 7d f0 00       	cmpq   $0x0,-0x10(%rbp)
    8918:	7e 16                	jle    8930 <safe_mul_func_int64_t_s_s+0x34>
    891a:	48 b8 ff ff ff ff ff 	movabs $0x7fffffffffffffff,%rax
    8921:	ff ff 7f 
    8924:	48 99                	cqto   
    8926:	48 f7 7d f0          	idivq  -0x10(%rbp)
    892a:	48 39 45 f8          	cmp    %rax,-0x8(%rbp)
    892e:	7f 7e                	jg     89ae <safe_mul_func_int64_t_s_s+0xb2>
    8930:	48 83 7d f8 00       	cmpq   $0x0,-0x8(%rbp)
    8935:	7e 1d                	jle    8954 <safe_mul_func_int64_t_s_s+0x58>
    8937:	48 83 7d f0 00       	cmpq   $0x0,-0x10(%rbp)
    893c:	7f 16                	jg     8954 <safe_mul_func_int64_t_s_s+0x58>
    893e:	48 b8 00 00 00 00 00 	movabs $0x8000000000000000,%rax
    8945:	00 00 80 
    8948:	48 99                	cqto   
    894a:	48 f7 7d f8          	idivq  -0x8(%rbp)
    894e:	48 39 45 f0          	cmp    %rax,-0x10(%rbp)
    8952:	7c 5a                	jl     89ae <safe_mul_func_int64_t_s_s+0xb2>
    8954:	48 83 7d f8 00       	cmpq   $0x0,-0x8(%rbp)
    8959:	7f 1d                	jg     8978 <safe_mul_func_int64_t_s_s+0x7c>
    895b:	48 83 7d f0 00       	cmpq   $0x0,-0x10(%rbp)
    8960:	7e 16                	jle    8978 <safe_mul_func_int64_t_s_s+0x7c>
    8962:	48 b8 00 00 00 00 00 	movabs $0x8000000000000000,%rax
    8969:	00 00 80 
    896c:	48 99                	cqto   
    896e:	48 f7 7d f0          	idivq  -0x10(%rbp)
    8972:	48 39 45 f8          	cmp    %rax,-0x8(%rbp)
    8976:	7c 36                	jl     89ae <safe_mul_func_int64_t_s_s+0xb2>
    8978:	48 83 7d f8 00       	cmpq   $0x0,-0x8(%rbp)
    897d:	7f 24                	jg     89a3 <safe_mul_func_int64_t_s_s+0xa7>
    897f:	48 83 7d f0 00       	cmpq   $0x0,-0x10(%rbp)
    8984:	7f 1d                	jg     89a3 <safe_mul_func_int64_t_s_s+0xa7>
    8986:	48 83 7d f8 00       	cmpq   $0x0,-0x8(%rbp)
    898b:	74 16                	je     89a3 <safe_mul_func_int64_t_s_s+0xa7>
    898d:	48 b8 ff ff ff ff ff 	movabs $0x7fffffffffffffff,%rax
    8994:	ff ff 7f 
    8997:	48 99                	cqto   
    8999:	48 f7 7d f8          	idivq  -0x8(%rbp)
    899d:	48 39 45 f0          	cmp    %rax,-0x10(%rbp)
    89a1:	7c 0b                	jl     89ae <safe_mul_func_int64_t_s_s+0xb2>
    89a3:	48 8b 45 f8          	mov    -0x8(%rbp),%rax
    89a7:	48 0f af 45 f0       	imul   -0x10(%rbp),%rax
    89ac:	eb 04                	jmp    89b2 <safe_mul_func_int64_t_s_s+0xb6>
    89ae:	48 8b 45 f8          	mov    -0x8(%rbp),%rax
    89b2:	5d                   	pop    %rbp
    89b3:	c3                   	retq   

00000000000089b4 <safe_mod_func_int64_t_s_s>:
    89b4:	f3 0f 1e fa          	endbr64 
    89b8:	55                   	push   %rbp
    89b9:	48 89 e5             	mov    %rsp,%rbp
    89bc:	48 89 7d f8          	mov    %rdi,-0x8(%rbp)
    89c0:	48 89 75 f0          	mov    %rsi,-0x10(%rbp)
    89c4:	48 83 7d f0 00       	cmpq   $0x0,-0x10(%rbp)
    89c9:	74 26                	je     89f1 <safe_mod_func_int64_t_s_s+0x3d>
    89cb:	48 b8 00 00 00 00 00 	movabs $0x8000000000000000,%rax
    89d2:	00 00 80 
    89d5:	48 39 45 f8          	cmp    %rax,-0x8(%rbp)
    89d9:	75 07                	jne    89e2 <safe_mod_func_int64_t_s_s+0x2e>
    89db:	48 83 7d f0 ff       	cmpq   $0xffffffffffffffff,-0x10(%rbp)
    89e0:	74 0f                	je     89f1 <safe_mod_func_int64_t_s_s+0x3d>
    89e2:	48 8b 45 f8          	mov    -0x8(%rbp),%rax
    89e6:	48 99                	cqto   
    89e8:	48 f7 7d f0          	idivq  -0x10(%rbp)
    89ec:	48 89 d0             	mov    %rdx,%rax
    89ef:	eb 04                	jmp    89f5 <safe_mod_func_int64_t_s_s+0x41>
    89f1:	48 8b 45 f8          	mov    -0x8(%rbp),%rax
    89f5:	5d                   	pop    %rbp
    89f6:	c3                   	retq   

00000000000089f7 <safe_div_func_int64_t_s_s>:
    89f7:	f3 0f 1e fa          	endbr64 
    89fb:	55                   	push   %rbp
    89fc:	48 89 e5             	mov    %rsp,%rbp
    89ff:	48 89 7d f8          	mov    %rdi,-0x8(%rbp)
    8a03:	48 89 75 f0          	mov    %rsi,-0x10(%rbp)
    8a07:	48 83 7d f0 00       	cmpq   $0x0,-0x10(%rbp)
    8a0c:	74 23                	je     8a31 <safe_div_func_int64_t_s_s+0x3a>
    8a0e:	48 b8 00 00 00 00 00 	movabs $0x8000000000000000,%rax
    8a15:	00 00 80 
    8a18:	48 39 45 f8          	cmp    %rax,-0x8(%rbp)
    8a1c:	75 07                	jne    8a25 <safe_div_func_int64_t_s_s+0x2e>
    8a1e:	48 83 7d f0 ff       	cmpq   $0xffffffffffffffff,-0x10(%rbp)
    8a23:	74 0c                	je     8a31 <safe_div_func_int64_t_s_s+0x3a>
    8a25:	48 8b 45 f8          	mov    -0x8(%rbp),%rax
    8a29:	48 99                	cqto   
    8a2b:	48 f7 7d f0          	idivq  -0x10(%rbp)
    8a2f:	eb 04                	jmp    8a35 <safe_div_func_int64_t_s_s+0x3e>
    8a31:	48 8b 45 f8          	mov    -0x8(%rbp),%rax
    8a35:	5d                   	pop    %rbp
    8a36:	c3                   	retq   

0000000000008a37 <safe_lshift_func_int64_t_s_s>:
    8a37:	f3 0f 1e fa          	endbr64 
    8a3b:	55                   	push   %rbp
    8a3c:	48 89 e5             	mov    %rsp,%rbp
    8a3f:	48 89 7d f8          	mov    %rdi,-0x8(%rbp)
    8a43:	89 75 f4             	mov    %esi,-0xc(%rbp)
    8a46:	48 83 7d f8 00       	cmpq   $0x0,-0x8(%rbp)
    8a4b:	78 38                	js     8a85 <safe_lshift_func_int64_t_s_s+0x4e>
    8a4d:	83 7d f4 00          	cmpl   $0x0,-0xc(%rbp)
    8a51:	78 32                	js     8a85 <safe_lshift_func_int64_t_s_s+0x4e>
    8a53:	83 7d f4 1f          	cmpl   $0x1f,-0xc(%rbp)
    8a57:	7f 2c                	jg     8a85 <safe_lshift_func_int64_t_s_s+0x4e>
    8a59:	8b 45 f4             	mov    -0xc(%rbp),%eax
    8a5c:	48 ba ff ff ff ff ff 	movabs $0x7fffffffffffffff,%rdx
    8a63:	ff ff 7f 
    8a66:	89 c1                	mov    %eax,%ecx
    8a68:	48 d3 fa             	sar    %cl,%rdx
    8a6b:	48 89 d0             	mov    %rdx,%rax
    8a6e:	48 39 45 f8          	cmp    %rax,-0x8(%rbp)
    8a72:	7f 11                	jg     8a85 <safe_lshift_func_int64_t_s_s+0x4e>
    8a74:	8b 45 f4             	mov    -0xc(%rbp),%eax
    8a77:	48 8b 55 f8          	mov    -0x8(%rbp),%rdx
    8a7b:	89 c1                	mov    %eax,%ecx
    8a7d:	48 d3 e2             	shl    %cl,%rdx
    8a80:	48 89 d0             	mov    %rdx,%rax
    8a83:	eb 04                	jmp    8a89 <safe_lshift_func_int64_t_s_s+0x52>
    8a85:	48 8b 45 f8          	mov    -0x8(%rbp),%rax
    8a89:	5d                   	pop    %rbp
    8a8a:	c3                   	retq   

0000000000008a8b <safe_lshift_func_int64_t_s_u>:
    8a8b:	f3 0f 1e fa          	endbr64 
    8a8f:	55                   	push   %rbp
    8a90:	48 89 e5             	mov    %rsp,%rbp
    8a93:	48 89 7d f8          	mov    %rdi,-0x8(%rbp)
    8a97:	89 75 f4             	mov    %esi,-0xc(%rbp)
    8a9a:	48 83 7d f8 00       	cmpq   $0x0,-0x8(%rbp)
    8a9f:	78 32                	js     8ad3 <safe_lshift_func_int64_t_s_u+0x48>
    8aa1:	83 7d f4 1f          	cmpl   $0x1f,-0xc(%rbp)
    8aa5:	77 2c                	ja     8ad3 <safe_lshift_func_int64_t_s_u+0x48>
    8aa7:	8b 45 f4             	mov    -0xc(%rbp),%eax
    8aaa:	48 ba ff ff ff ff ff 	movabs $0x7fffffffffffffff,%rdx
    8ab1:	ff ff 7f 
    8ab4:	89 c1                	mov    %eax,%ecx
    8ab6:	48 d3 fa             	sar    %cl,%rdx
    8ab9:	48 89 d0             	mov    %rdx,%rax
    8abc:	48 39 45 f8          	cmp    %rax,-0x8(%rbp)
    8ac0:	7f 11                	jg     8ad3 <safe_lshift_func_int64_t_s_u+0x48>
    8ac2:	8b 45 f4             	mov    -0xc(%rbp),%eax
    8ac5:	48 8b 55 f8          	mov    -0x8(%rbp),%rdx
    8ac9:	89 c1                	mov    %eax,%ecx
    8acb:	48 d3 e2             	shl    %cl,%rdx
    8ace:	48 89 d0             	mov    %rdx,%rax
    8ad1:	eb 04                	jmp    8ad7 <safe_lshift_func_int64_t_s_u+0x4c>
    8ad3:	48 8b 45 f8          	mov    -0x8(%rbp),%rax
    8ad7:	5d                   	pop    %rbp
    8ad8:	c3                   	retq   

0000000000008ad9 <safe_rshift_func_int64_t_s_s>:
    8ad9:	f3 0f 1e fa          	endbr64 
    8add:	55                   	push   %rbp
    8ade:	48 89 e5             	mov    %rsp,%rbp
    8ae1:	48 89 7d f8          	mov    %rdi,-0x8(%rbp)
    8ae5:	89 75 f4             	mov    %esi,-0xc(%rbp)
    8ae8:	48 83 7d f8 00       	cmpq   $0x0,-0x8(%rbp)
    8aed:	78 1d                	js     8b0c <safe_rshift_func_int64_t_s_s+0x33>
    8aef:	83 7d f4 00          	cmpl   $0x0,-0xc(%rbp)
    8af3:	78 17                	js     8b0c <safe_rshift_func_int64_t_s_s+0x33>
    8af5:	83 7d f4 1f          	cmpl   $0x1f,-0xc(%rbp)
    8af9:	7f 11                	jg     8b0c <safe_rshift_func_int64_t_s_s+0x33>
    8afb:	8b 45 f4             	mov    -0xc(%rbp),%eax
    8afe:	48 8b 55 f8          	mov    -0x8(%rbp),%rdx
    8b02:	89 c1                	mov    %eax,%ecx
    8b04:	48 d3 fa             	sar    %cl,%rdx
    8b07:	48 89 d0             	mov    %rdx,%rax
    8b0a:	eb 04                	jmp    8b10 <safe_rshift_func_int64_t_s_s+0x37>
    8b0c:	48 8b 45 f8          	mov    -0x8(%rbp),%rax
    8b10:	5d                   	pop    %rbp
    8b11:	c3                   	retq   

0000000000008b12 <safe_rshift_func_int64_t_s_u>:
    8b12:	f3 0f 1e fa          	endbr64 
    8b16:	55                   	push   %rbp
    8b17:	48 89 e5             	mov    %rsp,%rbp
    8b1a:	48 89 7d f8          	mov    %rdi,-0x8(%rbp)
    8b1e:	89 75 f4             	mov    %esi,-0xc(%rbp)
    8b21:	48 83 7d f8 00       	cmpq   $0x0,-0x8(%rbp)
    8b26:	78 17                	js     8b3f <safe_rshift_func_int64_t_s_u+0x2d>
    8b28:	83 7d f4 1f          	cmpl   $0x1f,-0xc(%rbp)
    8b2c:	77 11                	ja     8b3f <safe_rshift_func_int64_t_s_u+0x2d>
    8b2e:	8b 45 f4             	mov    -0xc(%rbp),%eax
    8b31:	48 8b 55 f8          	mov    -0x8(%rbp),%rdx
    8b35:	89 c1                	mov    %eax,%ecx
    8b37:	48 d3 fa             	sar    %cl,%rdx
    8b3a:	48 89 d0             	mov    %rdx,%rax
    8b3d:	eb 04                	jmp    8b43 <safe_rshift_func_int64_t_s_u+0x31>
    8b3f:	48 8b 45 f8          	mov    -0x8(%rbp),%rax
    8b43:	5d                   	pop    %rbp
    8b44:	c3                   	retq   

0000000000008b45 <safe_unary_minus_func_uint8_t_u>:
    8b45:	f3 0f 1e fa          	endbr64 
    8b49:	55                   	push   %rbp
    8b4a:	48 89 e5             	mov    %rsp,%rbp
    8b4d:	89 f8                	mov    %edi,%eax
    8b4f:	88 45 fc             	mov    %al,-0x4(%rbp)
    8b52:	0f b6 45 fc          	movzbl -0x4(%rbp),%eax
    8b56:	f7 d8                	neg    %eax
    8b58:	5d                   	pop    %rbp
    8b59:	c3                   	retq   

0000000000008b5a <safe_add_func_uint8_t_u_u>:
    8b5a:	f3 0f 1e fa          	endbr64 
    8b5e:	55                   	push   %rbp
    8b5f:	48 89 e5             	mov    %rsp,%rbp
    8b62:	89 fa                	mov    %edi,%edx
    8b64:	89 f0                	mov    %esi,%eax
    8b66:	88 55 fc             	mov    %dl,-0x4(%rbp)
    8b69:	88 45 f8             	mov    %al,-0x8(%rbp)
    8b6c:	0f b6 55 fc          	movzbl -0x4(%rbp),%edx
    8b70:	0f b6 45 f8          	movzbl -0x8(%rbp),%eax
    8b74:	01 d0                	add    %edx,%eax
    8b76:	5d                   	pop    %rbp
    8b77:	c3                   	retq   

0000000000008b78 <safe_sub_func_uint8_t_u_u>:
    8b78:	f3 0f 1e fa          	endbr64 
    8b7c:	55                   	push   %rbp
    8b7d:	48 89 e5             	mov    %rsp,%rbp
    8b80:	89 fa                	mov    %edi,%edx
    8b82:	89 f0                	mov    %esi,%eax
    8b84:	88 55 fc             	mov    %dl,-0x4(%rbp)
    8b87:	88 45 f8             	mov    %al,-0x8(%rbp)
    8b8a:	0f b6 45 fc          	movzbl -0x4(%rbp),%eax
    8b8e:	2a 45 f8             	sub    -0x8(%rbp),%al
    8b91:	5d                   	pop    %rbp
    8b92:	c3                   	retq   

0000000000008b93 <safe_mul_func_uint8_t_u_u>:
    8b93:	f3 0f 1e fa          	endbr64 
    8b97:	55                   	push   %rbp
    8b98:	48 89 e5             	mov    %rsp,%rbp
    8b9b:	89 fa                	mov    %edi,%edx
    8b9d:	89 f0                	mov    %esi,%eax
    8b9f:	88 55 fc             	mov    %dl,-0x4(%rbp)
    8ba2:	88 45 f8             	mov    %al,-0x8(%rbp)
    8ba5:	0f b6 45 fc          	movzbl -0x4(%rbp),%eax
    8ba9:	f6 65 f8             	mulb   -0x8(%rbp)
    8bac:	5d                   	pop    %rbp
    8bad:	c3                   	retq   

0000000000008bae <safe_mod_func_uint8_t_u_u>:
    8bae:	f3 0f 1e fa          	endbr64 
    8bb2:	55                   	push   %rbp
    8bb3:	48 89 e5             	mov    %rsp,%rbp
    8bb6:	89 fa                	mov    %edi,%edx
    8bb8:	89 f0                	mov    %esi,%eax
    8bba:	88 55 fc             	mov    %dl,-0x4(%rbp)
    8bbd:	88 45 f8             	mov    %al,-0x8(%rbp)
    8bc0:	80 7d f8 00          	cmpb   $0x0,-0x8(%rbp)
    8bc4:	74 0f                	je     8bd5 <safe_mod_func_uint8_t_u_u+0x27>
    8bc6:	0f b6 45 fc          	movzbl -0x4(%rbp),%eax
    8bca:	0f b6 c0             	movzbl %al,%eax
    8bcd:	f6 75 f8             	divb   -0x8(%rbp)
    8bd0:	0f b6 c4             	movzbl %ah,%eax
    8bd3:	eb 04                	jmp    8bd9 <safe_mod_func_uint8_t_u_u+0x2b>
    8bd5:	0f b6 45 fc          	movzbl -0x4(%rbp),%eax
    8bd9:	5d                   	pop    %rbp
    8bda:	c3                   	retq   

0000000000008bdb <safe_div_func_uint8_t_u_u>:
    8bdb:	f3 0f 1e fa          	endbr64 
    8bdf:	55                   	push   %rbp
    8be0:	48 89 e5             	mov    %rsp,%rbp
    8be3:	89 fa                	mov    %edi,%edx
    8be5:	89 f0                	mov    %esi,%eax
    8be7:	88 55 fc             	mov    %dl,-0x4(%rbp)
    8bea:	88 45 f8             	mov    %al,-0x8(%rbp)
    8bed:	80 7d f8 00          	cmpb   $0x0,-0x8(%rbp)
    8bf1:	74 0c                	je     8bff <safe_div_func_uint8_t_u_u+0x24>
    8bf3:	0f b6 45 fc          	movzbl -0x4(%rbp),%eax
    8bf7:	0f b6 c0             	movzbl %al,%eax
    8bfa:	f6 75 f8             	divb   -0x8(%rbp)
    8bfd:	eb 04                	jmp    8c03 <safe_div_func_uint8_t_u_u+0x28>
    8bff:	0f b6 45 fc          	movzbl -0x4(%rbp),%eax
    8c03:	5d                   	pop    %rbp
    8c04:	c3                   	retq   

0000000000008c05 <safe_lshift_func_uint8_t_u_s>:
    8c05:	f3 0f 1e fa          	endbr64 
    8c09:	55                   	push   %rbp
    8c0a:	48 89 e5             	mov    %rsp,%rbp
    8c0d:	89 f8                	mov    %edi,%eax
    8c0f:	89 75 f8             	mov    %esi,-0x8(%rbp)
    8c12:	88 45 fc             	mov    %al,-0x4(%rbp)
    8c15:	83 7d f8 00          	cmpl   $0x0,-0x8(%rbp)
    8c19:	78 2b                	js     8c46 <safe_lshift_func_uint8_t_u_s+0x41>
    8c1b:	83 7d f8 1f          	cmpl   $0x1f,-0x8(%rbp)
    8c1f:	7f 25                	jg     8c46 <safe_lshift_func_uint8_t_u_s+0x41>
    8c21:	0f b6 55 fc          	movzbl -0x4(%rbp),%edx
    8c25:	8b 45 f8             	mov    -0x8(%rbp),%eax
    8c28:	be ff 00 00 00       	mov    $0xff,%esi
    8c2d:	89 c1                	mov    %eax,%ecx
    8c2f:	d3 fe                	sar    %cl,%esi
    8c31:	89 f0                	mov    %esi,%eax
    8c33:	39 c2                	cmp    %eax,%edx
    8c35:	7f 0f                	jg     8c46 <safe_lshift_func_uint8_t_u_s+0x41>
    8c37:	0f b6 55 fc          	movzbl -0x4(%rbp),%edx
    8c3b:	8b 45 f8             	mov    -0x8(%rbp),%eax
    8c3e:	89 c1                	mov    %eax,%ecx
    8c40:	d3 e2                	shl    %cl,%edx
    8c42:	89 d0                	mov    %edx,%eax
    8c44:	eb 04                	jmp    8c4a <safe_lshift_func_uint8_t_u_s+0x45>
    8c46:	0f b6 45 fc          	movzbl -0x4(%rbp),%eax
    8c4a:	5d                   	pop    %rbp
    8c4b:	c3                   	retq   

0000000000008c4c <safe_lshift_func_uint8_t_u_u>:
    8c4c:	f3 0f 1e fa          	endbr64 
    8c50:	55                   	push   %rbp
    8c51:	48 89 e5             	mov    %rsp,%rbp
    8c54:	89 f8                	mov    %edi,%eax
    8c56:	89 75 f8             	mov    %esi,-0x8(%rbp)
    8c59:	88 45 fc             	mov    %al,-0x4(%rbp)
    8c5c:	83 7d f8 1f          	cmpl   $0x1f,-0x8(%rbp)
    8c60:	77 25                	ja     8c87 <safe_lshift_func_uint8_t_u_u+0x3b>
    8c62:	0f b6 55 fc          	movzbl -0x4(%rbp),%edx
    8c66:	8b 45 f8             	mov    -0x8(%rbp),%eax
    8c69:	be ff 00 00 00       	mov    $0xff,%esi
    8c6e:	89 c1                	mov    %eax,%ecx
    8c70:	d3 fe                	sar    %cl,%esi
    8c72:	89 f0                	mov    %esi,%eax
    8c74:	39 c2                	cmp    %eax,%edx
    8c76:	7f 0f                	jg     8c87 <safe_lshift_func_uint8_t_u_u+0x3b>
    8c78:	0f b6 55 fc          	movzbl -0x4(%rbp),%edx
    8c7c:	8b 45 f8             	mov    -0x8(%rbp),%eax
    8c7f:	89 c1                	mov    %eax,%ecx
    8c81:	d3 e2                	shl    %cl,%edx
    8c83:	89 d0                	mov    %edx,%eax
    8c85:	eb 04                	jmp    8c8b <safe_lshift_func_uint8_t_u_u+0x3f>
    8c87:	0f b6 45 fc          	movzbl -0x4(%rbp),%eax
    8c8b:	5d                   	pop    %rbp
    8c8c:	c3                   	retq   

0000000000008c8d <safe_rshift_func_uint8_t_u_s>:
    8c8d:	f3 0f 1e fa          	endbr64 
    8c91:	55                   	push   %rbp
    8c92:	48 89 e5             	mov    %rsp,%rbp
    8c95:	89 f8                	mov    %edi,%eax
    8c97:	89 75 f8             	mov    %esi,-0x8(%rbp)
    8c9a:	88 45 fc             	mov    %al,-0x4(%rbp)
    8c9d:	83 7d f8 00          	cmpl   $0x0,-0x8(%rbp)
    8ca1:	78 15                	js     8cb8 <safe_rshift_func_uint8_t_u_s+0x2b>
    8ca3:	83 7d f8 1f          	cmpl   $0x1f,-0x8(%rbp)
    8ca7:	7f 0f                	jg     8cb8 <safe_rshift_func_uint8_t_u_s+0x2b>
    8ca9:	0f b6 55 fc          	movzbl -0x4(%rbp),%edx
    8cad:	8b 45 f8             	mov    -0x8(%rbp),%eax
    8cb0:	89 c1                	mov    %eax,%ecx
    8cb2:	d3 fa                	sar    %cl,%edx
    8cb4:	89 d0                	mov    %edx,%eax
    8cb6:	eb 04                	jmp    8cbc <safe_rshift_func_uint8_t_u_s+0x2f>
    8cb8:	0f b6 45 fc          	movzbl -0x4(%rbp),%eax
    8cbc:	5d                   	pop    %rbp
    8cbd:	c3                   	retq   

0000000000008cbe <safe_rshift_func_uint8_t_u_u>:
    8cbe:	f3 0f 1e fa          	endbr64 
    8cc2:	55                   	push   %rbp
    8cc3:	48 89 e5             	mov    %rsp,%rbp
    8cc6:	89 f8                	mov    %edi,%eax
    8cc8:	89 75 f8             	mov    %esi,-0x8(%rbp)
    8ccb:	88 45 fc             	mov    %al,-0x4(%rbp)
    8cce:	83 7d f8 1f          	cmpl   $0x1f,-0x8(%rbp)
    8cd2:	77 0f                	ja     8ce3 <safe_rshift_func_uint8_t_u_u+0x25>
    8cd4:	0f b6 55 fc          	movzbl -0x4(%rbp),%edx
    8cd8:	8b 45 f8             	mov    -0x8(%rbp),%eax
    8cdb:	89 c1                	mov    %eax,%ecx
    8cdd:	d3 fa                	sar    %cl,%edx
    8cdf:	89 d0                	mov    %edx,%eax
    8ce1:	eb 04                	jmp    8ce7 <safe_rshift_func_uint8_t_u_u+0x29>
    8ce3:	0f b6 45 fc          	movzbl -0x4(%rbp),%eax
    8ce7:	5d                   	pop    %rbp
    8ce8:	c3                   	retq   

0000000000008ce9 <safe_unary_minus_func_uint16_t_u>:
    8ce9:	f3 0f 1e fa          	endbr64 
    8ced:	55                   	push   %rbp
    8cee:	48 89 e5             	mov    %rsp,%rbp
    8cf1:	89 f8                	mov    %edi,%eax
    8cf3:	66 89 45 fc          	mov    %ax,-0x4(%rbp)
    8cf7:	0f b7 45 fc          	movzwl -0x4(%rbp),%eax
    8cfb:	f7 d8                	neg    %eax
    8cfd:	5d                   	pop    %rbp
    8cfe:	c3                   	retq   

0000000000008cff <safe_add_func_uint16_t_u_u>:
    8cff:	f3 0f 1e fa          	endbr64 
    8d03:	55                   	push   %rbp
    8d04:	48 89 e5             	mov    %rsp,%rbp
    8d07:	89 fa                	mov    %edi,%edx
    8d09:	89 f0                	mov    %esi,%eax
    8d0b:	66 89 55 fc          	mov    %dx,-0x4(%rbp)
    8d0f:	66 89 45 f8          	mov    %ax,-0x8(%rbp)
    8d13:	0f b7 55 fc          	movzwl -0x4(%rbp),%edx
    8d17:	0f b7 45 f8          	movzwl -0x8(%rbp),%eax
    8d1b:	01 d0                	add    %edx,%eax
    8d1d:	5d                   	pop    %rbp
    8d1e:	c3                   	retq   

0000000000008d1f <safe_sub_func_uint16_t_u_u>:
    8d1f:	f3 0f 1e fa          	endbr64 
    8d23:	55                   	push   %rbp
    8d24:	48 89 e5             	mov    %rsp,%rbp
    8d27:	89 fa                	mov    %edi,%edx
    8d29:	89 f0                	mov    %esi,%eax
    8d2b:	66 89 55 fc          	mov    %dx,-0x4(%rbp)
    8d2f:	66 89 45 f8          	mov    %ax,-0x8(%rbp)
    8d33:	0f b7 45 fc          	movzwl -0x4(%rbp),%eax
    8d37:	66 2b 45 f8          	sub    -0x8(%rbp),%ax
    8d3b:	5d                   	pop    %rbp
    8d3c:	c3                   	retq   

0000000000008d3d <safe_mul_func_uint16_t_u_u>:
    8d3d:	f3 0f 1e fa          	endbr64 
    8d41:	55                   	push   %rbp
    8d42:	48 89 e5             	mov    %rsp,%rbp
    8d45:	89 fa                	mov    %edi,%edx
    8d47:	89 f0                	mov    %esi,%eax
    8d49:	66 89 55 fc          	mov    %dx,-0x4(%rbp)
    8d4d:	66 89 45 f8          	mov    %ax,-0x8(%rbp)
    8d51:	0f b7 45 fc          	movzwl -0x4(%rbp),%eax
    8d55:	66 0f af 45 f8       	imul   -0x8(%rbp),%ax
    8d5a:	5d                   	pop    %rbp
    8d5b:	c3                   	retq   

0000000000008d5c <safe_mod_func_uint16_t_u_u>:
    8d5c:	f3 0f 1e fa          	endbr64 
    8d60:	55                   	push   %rbp
    8d61:	48 89 e5             	mov    %rsp,%rbp
    8d64:	89 fa                	mov    %edi,%edx
    8d66:	89 f0                	mov    %esi,%eax
    8d68:	66 89 55 fc          	mov    %dx,-0x4(%rbp)
    8d6c:	66 89 45 f8          	mov    %ax,-0x8(%rbp)
    8d70:	66 83 7d f8 00       	cmpw   $0x0,-0x8(%rbp)
    8d75:	74 11                	je     8d88 <safe_mod_func_uint16_t_u_u+0x2c>
    8d77:	0f b7 45 fc          	movzwl -0x4(%rbp),%eax
    8d7b:	ba 00 00 00 00       	mov    $0x0,%edx
    8d80:	66 f7 75 f8          	divw   -0x8(%rbp)
    8d84:	89 d0                	mov    %edx,%eax
    8d86:	eb 04                	jmp    8d8c <safe_mod_func_uint16_t_u_u+0x30>
    8d88:	0f b7 45 fc          	movzwl -0x4(%rbp),%eax
    8d8c:	5d                   	pop    %rbp
    8d8d:	c3                   	retq   

0000000000008d8e <safe_div_func_uint16_t_u_u>:
    8d8e:	f3 0f 1e fa          	endbr64 
    8d92:	55                   	push   %rbp
    8d93:	48 89 e5             	mov    %rsp,%rbp
    8d96:	89 fa                	mov    %edi,%edx
    8d98:	89 f0                	mov    %esi,%eax
    8d9a:	66 89 55 fc          	mov    %dx,-0x4(%rbp)
    8d9e:	66 89 45 f8          	mov    %ax,-0x8(%rbp)
    8da2:	66 83 7d f8 00       	cmpw   $0x0,-0x8(%rbp)
    8da7:	74 0f                	je     8db8 <safe_div_func_uint16_t_u_u+0x2a>
    8da9:	0f b7 45 fc          	movzwl -0x4(%rbp),%eax
    8dad:	ba 00 00 00 00       	mov    $0x0,%edx
    8db2:	66 f7 75 f8          	divw   -0x8(%rbp)
    8db6:	eb 04                	jmp    8dbc <safe_div_func_uint16_t_u_u+0x2e>
    8db8:	0f b7 45 fc          	movzwl -0x4(%rbp),%eax
    8dbc:	5d                   	pop    %rbp
    8dbd:	c3                   	retq   

0000000000008dbe <safe_lshift_func_uint16_t_u_s>:
    8dbe:	f3 0f 1e fa          	endbr64 
    8dc2:	55                   	push   %rbp
    8dc3:	48 89 e5             	mov    %rsp,%rbp
    8dc6:	89 f8                	mov    %edi,%eax
    8dc8:	89 75 f8             	mov    %esi,-0x8(%rbp)
    8dcb:	66 89 45 fc          	mov    %ax,-0x4(%rbp)
    8dcf:	83 7d f8 00          	cmpl   $0x0,-0x8(%rbp)
    8dd3:	78 2b                	js     8e00 <safe_lshift_func_uint16_t_u_s+0x42>
    8dd5:	83 7d f8 1f          	cmpl   $0x1f,-0x8(%rbp)
    8dd9:	7f 25                	jg     8e00 <safe_lshift_func_uint16_t_u_s+0x42>
    8ddb:	0f b7 55 fc          	movzwl -0x4(%rbp),%edx
    8ddf:	8b 45 f8             	mov    -0x8(%rbp),%eax
    8de2:	be ff ff 00 00       	mov    $0xffff,%esi
    8de7:	89 c1                	mov    %eax,%ecx
    8de9:	d3 fe                	sar    %cl,%esi
    8deb:	89 f0                	mov    %esi,%eax
    8ded:	39 c2                	cmp    %eax,%edx
    8def:	7f 0f                	jg     8e00 <safe_lshift_func_uint16_t_u_s+0x42>
    8df1:	0f b7 55 fc          	movzwl -0x4(%rbp),%edx
    8df5:	8b 45 f8             	mov    -0x8(%rbp),%eax
    8df8:	89 c1                	mov    %eax,%ecx
    8dfa:	d3 e2                	shl    %cl,%edx
    8dfc:	89 d0                	mov    %edx,%eax
    8dfe:	eb 04                	jmp    8e04 <safe_lshift_func_uint16_t_u_s+0x46>
    8e00:	0f b7 45 fc          	movzwl -0x4(%rbp),%eax
    8e04:	5d                   	pop    %rbp
    8e05:	c3                   	retq   

0000000000008e06 <safe_lshift_func_uint16_t_u_u>:
    8e06:	f3 0f 1e fa          	endbr64 
    8e0a:	55                   	push   %rbp
    8e0b:	48 89 e5             	mov    %rsp,%rbp
    8e0e:	89 f8                	mov    %edi,%eax
    8e10:	89 75 f8             	mov    %esi,-0x8(%rbp)
    8e13:	66 89 45 fc          	mov    %ax,-0x4(%rbp)
    8e17:	83 7d f8 1f          	cmpl   $0x1f,-0x8(%rbp)
    8e1b:	77 25                	ja     8e42 <safe_lshift_func_uint16_t_u_u+0x3c>
    8e1d:	0f b7 55 fc          	movzwl -0x4(%rbp),%edx
    8e21:	8b 45 f8             	mov    -0x8(%rbp),%eax
    8e24:	be ff ff 00 00       	mov    $0xffff,%esi
    8e29:	89 c1                	mov    %eax,%ecx
    8e2b:	d3 fe                	sar    %cl,%esi
    8e2d:	89 f0                	mov    %esi,%eax
    8e2f:	39 c2                	cmp    %eax,%edx
    8e31:	7f 0f                	jg     8e42 <safe_lshift_func_uint16_t_u_u+0x3c>
    8e33:	0f b7 55 fc          	movzwl -0x4(%rbp),%edx
    8e37:	8b 45 f8             	mov    -0x8(%rbp),%eax
    8e3a:	89 c1                	mov    %eax,%ecx
    8e3c:	d3 e2                	shl    %cl,%edx
    8e3e:	89 d0                	mov    %edx,%eax
    8e40:	eb 04                	jmp    8e46 <safe_lshift_func_uint16_t_u_u+0x40>
    8e42:	0f b7 45 fc          	movzwl -0x4(%rbp),%eax
    8e46:	5d                   	pop    %rbp
    8e47:	c3                   	retq   

0000000000008e48 <safe_rshift_func_uint16_t_u_s>:
    8e48:	f3 0f 1e fa          	endbr64 
    8e4c:	55                   	push   %rbp
    8e4d:	48 89 e5             	mov    %rsp,%rbp
    8e50:	89 f8                	mov    %edi,%eax
    8e52:	89 75 f8             	mov    %esi,-0x8(%rbp)
    8e55:	66 89 45 fc          	mov    %ax,-0x4(%rbp)
    8e59:	83 7d f8 00          	cmpl   $0x0,-0x8(%rbp)
    8e5d:	78 15                	js     8e74 <safe_rshift_func_uint16_t_u_s+0x2c>
    8e5f:	83 7d f8 1f          	cmpl   $0x1f,-0x8(%rbp)
    8e63:	7f 0f                	jg     8e74 <safe_rshift_func_uint16_t_u_s+0x2c>
    8e65:	0f b7 55 fc          	movzwl -0x4(%rbp),%edx
    8e69:	8b 45 f8             	mov    -0x8(%rbp),%eax
    8e6c:	89 c1                	mov    %eax,%ecx
    8e6e:	d3 fa                	sar    %cl,%edx
    8e70:	89 d0                	mov    %edx,%eax
    8e72:	eb 04                	jmp    8e78 <safe_rshift_func_uint16_t_u_s+0x30>
    8e74:	0f b7 45 fc          	movzwl -0x4(%rbp),%eax
    8e78:	5d                   	pop    %rbp
    8e79:	c3                   	retq   

0000000000008e7a <safe_rshift_func_uint16_t_u_u>:
    8e7a:	f3 0f 1e fa          	endbr64 
    8e7e:	55                   	push   %rbp
    8e7f:	48 89 e5             	mov    %rsp,%rbp
    8e82:	89 f8                	mov    %edi,%eax
    8e84:	89 75 f8             	mov    %esi,-0x8(%rbp)
    8e87:	66 89 45 fc          	mov    %ax,-0x4(%rbp)
    8e8b:	83 7d f8 1f          	cmpl   $0x1f,-0x8(%rbp)
    8e8f:	77 0f                	ja     8ea0 <safe_rshift_func_uint16_t_u_u+0x26>
    8e91:	0f b7 55 fc          	movzwl -0x4(%rbp),%edx
    8e95:	8b 45 f8             	mov    -0x8(%rbp),%eax
    8e98:	89 c1                	mov    %eax,%ecx
    8e9a:	d3 fa                	sar    %cl,%edx
    8e9c:	89 d0                	mov    %edx,%eax
    8e9e:	eb 04                	jmp    8ea4 <safe_rshift_func_uint16_t_u_u+0x2a>
    8ea0:	0f b7 45 fc          	movzwl -0x4(%rbp),%eax
    8ea4:	5d                   	pop    %rbp
    8ea5:	c3                   	retq   

0000000000008ea6 <safe_unary_minus_func_uint32_t_u>:
    8ea6:	f3 0f 1e fa          	endbr64 
    8eaa:	55                   	push   %rbp
    8eab:	48 89 e5             	mov    %rsp,%rbp
    8eae:	89 7d fc             	mov    %edi,-0x4(%rbp)
    8eb1:	8b 45 fc             	mov    -0x4(%rbp),%eax
    8eb4:	f7 d8                	neg    %eax
    8eb6:	5d                   	pop    %rbp
    8eb7:	c3                   	retq   

0000000000008eb8 <safe_add_func_uint32_t_u_u>:
    8eb8:	f3 0f 1e fa          	endbr64 
    8ebc:	55                   	push   %rbp
    8ebd:	48 89 e5             	mov    %rsp,%rbp
    8ec0:	89 7d fc             	mov    %edi,-0x4(%rbp)
    8ec3:	89 75 f8             	mov    %esi,-0x8(%rbp)
    8ec6:	8b 55 fc             	mov    -0x4(%rbp),%edx
    8ec9:	8b 45 f8             	mov    -0x8(%rbp),%eax
    8ecc:	01 d0                	add    %edx,%eax
    8ece:	5d                   	pop    %rbp
    8ecf:	c3                   	retq   

0000000000008ed0 <safe_sub_func_uint32_t_u_u>:
    8ed0:	f3 0f 1e fa          	endbr64 
    8ed4:	55                   	push   %rbp
    8ed5:	48 89 e5             	mov    %rsp,%rbp
    8ed8:	89 7d fc             	mov    %edi,-0x4(%rbp)
    8edb:	89 75 f8             	mov    %esi,-0x8(%rbp)
    8ede:	8b 45 fc             	mov    -0x4(%rbp),%eax
    8ee1:	2b 45 f8             	sub    -0x8(%rbp),%eax
    8ee4:	5d                   	pop    %rbp
    8ee5:	c3                   	retq   

0000000000008ee6 <safe_mul_func_uint32_t_u_u>:
    8ee6:	f3 0f 1e fa          	endbr64 
    8eea:	55                   	push   %rbp
    8eeb:	48 89 e5             	mov    %rsp,%rbp
    8eee:	89 7d fc             	mov    %edi,-0x4(%rbp)
    8ef1:	89 75 f8             	mov    %esi,-0x8(%rbp)
    8ef4:	8b 45 fc             	mov    -0x4(%rbp),%eax
    8ef7:	0f af 45 f8          	imul   -0x8(%rbp),%eax
    8efb:	5d                   	pop    %rbp
    8efc:	c3                   	retq   

0000000000008efd <safe_mod_func_uint32_t_u_u>:
    8efd:	f3 0f 1e fa          	endbr64 
    8f01:	55                   	push   %rbp
    8f02:	48 89 e5             	mov    %rsp,%rbp
    8f05:	89 7d fc             	mov    %edi,-0x4(%rbp)
    8f08:	89 75 f8             	mov    %esi,-0x8(%rbp)
    8f0b:	83 7d f8 00          	cmpl   $0x0,-0x8(%rbp)
    8f0f:	74 0f                	je     8f20 <safe_mod_func_uint32_t_u_u+0x23>
    8f11:	8b 45 fc             	mov    -0x4(%rbp),%eax
    8f14:	ba 00 00 00 00       	mov    $0x0,%edx
    8f19:	f7 75 f8             	divl   -0x8(%rbp)
    8f1c:	89 d0                	mov    %edx,%eax
    8f1e:	eb 03                	jmp    8f23 <safe_mod_func_uint32_t_u_u+0x26>
    8f20:	8b 45 fc             	mov    -0x4(%rbp),%eax
    8f23:	5d                   	pop    %rbp
    8f24:	c3                   	retq   

0000000000008f25 <safe_div_func_uint32_t_u_u>:
    8f25:	f3 0f 1e fa          	endbr64 
    8f29:	55                   	push   %rbp
    8f2a:	48 89 e5             	mov    %rsp,%rbp
    8f2d:	89 7d fc             	mov    %edi,-0x4(%rbp)
    8f30:	89 75 f8             	mov    %esi,-0x8(%rbp)
    8f33:	83 7d f8 00          	cmpl   $0x0,-0x8(%rbp)
    8f37:	74 0d                	je     8f46 <safe_div_func_uint32_t_u_u+0x21>
    8f39:	8b 45 fc             	mov    -0x4(%rbp),%eax
    8f3c:	ba 00 00 00 00       	mov    $0x0,%edx
    8f41:	f7 75 f8             	divl   -0x8(%rbp)
    8f44:	eb 03                	jmp    8f49 <safe_div_func_uint32_t_u_u+0x24>
    8f46:	8b 45 fc             	mov    -0x4(%rbp),%eax
    8f49:	5d                   	pop    %rbp
    8f4a:	c3                   	retq   

0000000000008f4b <safe_lshift_func_uint32_t_u_s>:
    8f4b:	f3 0f 1e fa          	endbr64 
    8f4f:	55                   	push   %rbp
    8f50:	48 89 e5             	mov    %rsp,%rbp
    8f53:	89 7d fc             	mov    %edi,-0x4(%rbp)
    8f56:	89 75 f8             	mov    %esi,-0x8(%rbp)
    8f59:	83 7d f8 00          	cmpl   $0x0,-0x8(%rbp)
    8f5d:	78 27                	js     8f86 <safe_lshift_func_uint32_t_u_s+0x3b>
    8f5f:	83 7d f8 1f          	cmpl   $0x1f,-0x8(%rbp)
    8f63:	7f 21                	jg     8f86 <safe_lshift_func_uint32_t_u_s+0x3b>
    8f65:	8b 45 f8             	mov    -0x8(%rbp),%eax
    8f68:	ba ff ff ff ff       	mov    $0xffffffff,%edx
    8f6d:	89 c1                	mov    %eax,%ecx
    8f6f:	d3 ea                	shr    %cl,%edx
    8f71:	89 d0                	mov    %edx,%eax
    8f73:	39 45 fc             	cmp    %eax,-0x4(%rbp)
    8f76:	77 0e                	ja     8f86 <safe_lshift_func_uint32_t_u_s+0x3b>
    8f78:	8b 45 f8             	mov    -0x8(%rbp),%eax
    8f7b:	8b 55 fc             	mov    -0x4(%rbp),%edx
    8f7e:	89 c1                	mov    %eax,%ecx
    8f80:	d3 e2                	shl    %cl,%edx
    8f82:	89 d0                	mov    %edx,%eax
    8f84:	eb 03                	jmp    8f89 <safe_lshift_func_uint32_t_u_s+0x3e>
    8f86:	8b 45 fc             	mov    -0x4(%rbp),%eax
    8f89:	5d                   	pop    %rbp
    8f8a:	c3                   	retq   

0000000000008f8b <safe_lshift_func_uint32_t_u_u>:
    8f8b:	f3 0f 1e fa          	endbr64 
    8f8f:	55                   	push   %rbp
    8f90:	48 89 e5             	mov    %rsp,%rbp
    8f93:	89 7d fc             	mov    %edi,-0x4(%rbp)
    8f96:	89 75 f8             	mov    %esi,-0x8(%rbp)
    8f99:	83 7d f8 1f          	cmpl   $0x1f,-0x8(%rbp)
    8f9d:	77 21                	ja     8fc0 <safe_lshift_func_uint32_t_u_u+0x35>
    8f9f:	8b 45 f8             	mov    -0x8(%rbp),%eax
    8fa2:	ba ff ff ff ff       	mov    $0xffffffff,%edx
    8fa7:	89 c1                	mov    %eax,%ecx
    8fa9:	d3 ea                	shr    %cl,%edx
    8fab:	89 d0                	mov    %edx,%eax
    8fad:	39 45 fc             	cmp    %eax,-0x4(%rbp)
    8fb0:	77 0e                	ja     8fc0 <safe_lshift_func_uint32_t_u_u+0x35>
    8fb2:	8b 45 f8             	mov    -0x8(%rbp),%eax
    8fb5:	8b 55 fc             	mov    -0x4(%rbp),%edx
    8fb8:	89 c1                	mov    %eax,%ecx
    8fba:	d3 e2                	shl    %cl,%edx
    8fbc:	89 d0                	mov    %edx,%eax
    8fbe:	eb 03                	jmp    8fc3 <safe_lshift_func_uint32_t_u_u+0x38>
    8fc0:	8b 45 fc             	mov    -0x4(%rbp),%eax
    8fc3:	5d                   	pop    %rbp
    8fc4:	c3                   	retq   

0000000000008fc5 <safe_rshift_func_uint32_t_u_s>:
    8fc5:	f3 0f 1e fa          	endbr64 
    8fc9:	55                   	push   %rbp
    8fca:	48 89 e5             	mov    %rsp,%rbp
    8fcd:	89 7d fc             	mov    %edi,-0x4(%rbp)
    8fd0:	89 75 f8             	mov    %esi,-0x8(%rbp)
    8fd3:	83 7d f8 00          	cmpl   $0x0,-0x8(%rbp)
    8fd7:	78 14                	js     8fed <safe_rshift_func_uint32_t_u_s+0x28>
    8fd9:	83 7d f8 1f          	cmpl   $0x1f,-0x8(%rbp)
    8fdd:	7f 0e                	jg     8fed <safe_rshift_func_uint32_t_u_s+0x28>
    8fdf:	8b 45 f8             	mov    -0x8(%rbp),%eax
    8fe2:	8b 55 fc             	mov    -0x4(%rbp),%edx
    8fe5:	89 c1                	mov    %eax,%ecx
    8fe7:	d3 ea                	shr    %cl,%edx
    8fe9:	89 d0                	mov    %edx,%eax
    8feb:	eb 03                	jmp    8ff0 <safe_rshift_func_uint32_t_u_s+0x2b>
    8fed:	8b 45 fc             	mov    -0x4(%rbp),%eax
    8ff0:	5d                   	pop    %rbp
    8ff1:	c3                   	retq   

0000000000008ff2 <safe_rshift_func_uint32_t_u_u>:
    8ff2:	f3 0f 1e fa          	endbr64 
    8ff6:	55                   	push   %rbp
    8ff7:	48 89 e5             	mov    %rsp,%rbp
    8ffa:	89 7d fc             	mov    %edi,-0x4(%rbp)
    8ffd:	89 75 f8             	mov    %esi,-0x8(%rbp)
    9000:	83 7d f8 1f          	cmpl   $0x1f,-0x8(%rbp)
    9004:	77 0e                	ja     9014 <safe_rshift_func_uint32_t_u_u+0x22>
    9006:	8b 45 f8             	mov    -0x8(%rbp),%eax
    9009:	8b 55 fc             	mov    -0x4(%rbp),%edx
    900c:	89 c1                	mov    %eax,%ecx
    900e:	d3 ea                	shr    %cl,%edx
    9010:	89 d0                	mov    %edx,%eax
    9012:	eb 03                	jmp    9017 <safe_rshift_func_uint32_t_u_u+0x25>
    9014:	8b 45 fc             	mov    -0x4(%rbp),%eax
    9017:	5d                   	pop    %rbp
    9018:	c3                   	retq   

0000000000009019 <safe_unary_minus_func_uint64_t_u>:
    9019:	f3 0f 1e fa          	endbr64 
    901d:	55                   	push   %rbp
    901e:	48 89 e5             	mov    %rsp,%rbp
    9021:	48 89 7d f8          	mov    %rdi,-0x8(%rbp)
    9025:	48 8b 45 f8          	mov    -0x8(%rbp),%rax
    9029:	48 f7 d8             	neg    %rax
    902c:	5d                   	pop    %rbp
    902d:	c3                   	retq   

000000000000902e <safe_add_func_uint64_t_u_u>:
    902e:	f3 0f 1e fa          	endbr64 
    9032:	55                   	push   %rbp
    9033:	48 89 e5             	mov    %rsp,%rbp
    9036:	48 89 7d f8          	mov    %rdi,-0x8(%rbp)
    903a:	48 89 75 f0          	mov    %rsi,-0x10(%rbp)
    903e:	48 8b 55 f8          	mov    -0x8(%rbp),%rdx
    9042:	48 8b 45 f0          	mov    -0x10(%rbp),%rax
    9046:	48 01 d0             	add    %rdx,%rax
    9049:	5d                   	pop    %rbp
    904a:	c3                   	retq   

000000000000904b <safe_sub_func_uint64_t_u_u>:
    904b:	f3 0f 1e fa          	endbr64 
    904f:	55                   	push   %rbp
    9050:	48 89 e5             	mov    %rsp,%rbp
    9053:	48 89 7d f8          	mov    %rdi,-0x8(%rbp)
    9057:	48 89 75 f0          	mov    %rsi,-0x10(%rbp)
    905b:	48 8b 45 f8          	mov    -0x8(%rbp),%rax
    905f:	48 2b 45 f0          	sub    -0x10(%rbp),%rax
    9063:	5d                   	pop    %rbp
    9064:	c3                   	retq   

0000000000009065 <safe_mul_func_uint64_t_u_u>:
    9065:	f3 0f 1e fa          	endbr64 
    9069:	55                   	push   %rbp
    906a:	48 89 e5             	mov    %rsp,%rbp
    906d:	48 89 7d f8          	mov    %rdi,-0x8(%rbp)
    9071:	48 89 75 f0          	mov    %rsi,-0x10(%rbp)
    9075:	48 8b 45 f8          	mov    -0x8(%rbp),%rax
    9079:	48 0f af 45 f0       	imul   -0x10(%rbp),%rax
    907e:	5d                   	pop    %rbp
    907f:	c3                   	retq   

0000000000009080 <safe_mod_func_uint64_t_u_u>:
    9080:	f3 0f 1e fa          	endbr64 
    9084:	55                   	push   %rbp
    9085:	48 89 e5             	mov    %rsp,%rbp
    9088:	48 89 7d f8          	mov    %rdi,-0x8(%rbp)
    908c:	48 89 75 f0          	mov    %rsi,-0x10(%rbp)
    9090:	48 83 7d f0 00       	cmpq   $0x0,-0x10(%rbp)
    9095:	74 12                	je     90a9 <safe_mod_func_uint64_t_u_u+0x29>
    9097:	48 8b 45 f8          	mov    -0x8(%rbp),%rax
    909b:	ba 00 00 00 00       	mov    $0x0,%edx
    90a0:	48 f7 75 f0          	divq   -0x10(%rbp)
    90a4:	48 89 d0             	mov    %rdx,%rax
    90a7:	eb 04                	jmp    90ad <safe_mod_func_uint64_t_u_u+0x2d>
    90a9:	48 8b 45 f8          	mov    -0x8(%rbp),%rax
    90ad:	5d                   	pop    %rbp
    90ae:	c3                   	retq   

00000000000090af <safe_div_func_uint64_t_u_u>:
    90af:	f3 0f 1e fa          	endbr64 
    90b3:	55                   	push   %rbp
    90b4:	48 89 e5             	mov    %rsp,%rbp
    90b7:	48 89 7d f8          	mov    %rdi,-0x8(%rbp)
    90bb:	48 89 75 f0          	mov    %rsi,-0x10(%rbp)
    90bf:	48 83 7d f0 00       	cmpq   $0x0,-0x10(%rbp)
    90c4:	74 0f                	je     90d5 <safe_div_func_uint64_t_u_u+0x26>
    90c6:	48 8b 45 f8          	mov    -0x8(%rbp),%rax
    90ca:	ba 00 00 00 00       	mov    $0x0,%edx
    90cf:	48 f7 75 f0          	divq   -0x10(%rbp)
    90d3:	eb 04                	jmp    90d9 <safe_div_func_uint64_t_u_u+0x2a>
    90d5:	48 8b 45 f8          	mov    -0x8(%rbp),%rax
    90d9:	5d                   	pop    %rbp
    90da:	c3                   	retq   

00000000000090db <safe_lshift_func_uint64_t_u_s>:
    90db:	f3 0f 1e fa          	endbr64 
    90df:	55                   	push   %rbp
    90e0:	48 89 e5             	mov    %rsp,%rbp
    90e3:	48 89 7d f8          	mov    %rdi,-0x8(%rbp)
    90e7:	89 75 f4             	mov    %esi,-0xc(%rbp)
    90ea:	83 7d f4 00          	cmpl   $0x0,-0xc(%rbp)
    90ee:	78 2f                	js     911f <safe_lshift_func_uint64_t_u_s+0x44>
    90f0:	83 7d f4 1f          	cmpl   $0x1f,-0xc(%rbp)
    90f4:	7f 29                	jg     911f <safe_lshift_func_uint64_t_u_s+0x44>
    90f6:	8b 45 f4             	mov    -0xc(%rbp),%eax
    90f9:	48 c7 c2 ff ff ff ff 	mov    $0xffffffffffffffff,%rdx
    9100:	89 c1                	mov    %eax,%ecx
    9102:	48 d3 ea             	shr    %cl,%rdx
    9105:	48 89 d0             	mov    %rdx,%rax
    9108:	48 39 45 f8          	cmp    %rax,-0x8(%rbp)
    910c:	77 11                	ja     911f <safe_lshift_func_uint64_t_u_s+0x44>
    910e:	8b 45 f4             	mov    -0xc(%rbp),%eax
    9111:	48 8b 55 f8          	mov    -0x8(%rbp),%rdx
    9115:	89 c1                	mov    %eax,%ecx
    9117:	48 d3 e2             	shl    %cl,%rdx
    911a:	48 89 d0             	mov    %rdx,%rax
    911d:	eb 04                	jmp    9123 <safe_lshift_func_uint64_t_u_s+0x48>
    911f:	48 8b 45 f8          	mov    -0x8(%rbp),%rax
    9123:	5d                   	pop    %rbp
    9124:	c3                   	retq   

0000000000009125 <safe_lshift_func_uint64_t_u_u>:
    9125:	f3 0f 1e fa          	endbr64 
    9129:	55                   	push   %rbp
    912a:	48 89 e5             	mov    %rsp,%rbp
    912d:	48 89 7d f8          	mov    %rdi,-0x8(%rbp)
    9131:	89 75 f4             	mov    %esi,-0xc(%rbp)
    9134:	83 7d f4 1f          	cmpl   $0x1f,-0xc(%rbp)
    9138:	77 29                	ja     9163 <safe_lshift_func_uint64_t_u_u+0x3e>
    913a:	8b 45 f4             	mov    -0xc(%rbp),%eax
    913d:	48 c7 c2 ff ff ff ff 	mov    $0xffffffffffffffff,%rdx
    9144:	89 c1                	mov    %eax,%ecx
    9146:	48 d3 ea             	shr    %cl,%rdx
    9149:	48 89 d0             	mov    %rdx,%rax
    914c:	48 39 45 f8          	cmp    %rax,-0x8(%rbp)
    9150:	77 11                	ja     9163 <safe_lshift_func_uint64_t_u_u+0x3e>
    9152:	8b 45 f4             	mov    -0xc(%rbp),%eax
    9155:	48 8b 55 f8          	mov    -0x8(%rbp),%rdx
    9159:	89 c1                	mov    %eax,%ecx
    915b:	48 d3 e2             	shl    %cl,%rdx
    915e:	48 89 d0             	mov    %rdx,%rax
    9161:	eb 04                	jmp    9167 <safe_lshift_func_uint64_t_u_u+0x42>
    9163:	48 8b 45 f8          	mov    -0x8(%rbp),%rax
    9167:	5d                   	pop    %rbp
    9168:	c3                   	retq   

0000000000009169 <safe_rshift_func_uint64_t_u_s>:
    9169:	f3 0f 1e fa          	endbr64 
    916d:	55                   	push   %rbp
    916e:	48 89 e5             	mov    %rsp,%rbp
    9171:	48 89 7d f8          	mov    %rdi,-0x8(%rbp)
    9175:	89 75 f4             	mov    %esi,-0xc(%rbp)
    9178:	83 7d f4 00          	cmpl   $0x0,-0xc(%rbp)
    917c:	78 17                	js     9195 <safe_rshift_func_uint64_t_u_s+0x2c>
    917e:	83 7d f4 1f          	cmpl   $0x1f,-0xc(%rbp)
    9182:	7f 11                	jg     9195 <safe_rshift_func_uint64_t_u_s+0x2c>
    9184:	8b 45 f4             	mov    -0xc(%rbp),%eax
    9187:	48 8b 55 f8          	mov    -0x8(%rbp),%rdx
    918b:	89 c1                	mov    %eax,%ecx
    918d:	48 d3 ea             	shr    %cl,%rdx
    9190:	48 89 d0             	mov    %rdx,%rax
    9193:	eb 04                	jmp    9199 <safe_rshift_func_uint64_t_u_s+0x30>
    9195:	48 8b 45 f8          	mov    -0x8(%rbp),%rax
    9199:	5d                   	pop    %rbp
    919a:	c3                   	retq   

000000000000919b <safe_rshift_func_uint64_t_u_u>:
    919b:	f3 0f 1e fa          	endbr64 
    919f:	55                   	push   %rbp
    91a0:	48 89 e5             	mov    %rsp,%rbp
    91a3:	48 89 7d f8          	mov    %rdi,-0x8(%rbp)
    91a7:	89 75 f4             	mov    %esi,-0xc(%rbp)
    91aa:	83 7d f4 1f          	cmpl   $0x1f,-0xc(%rbp)
    91ae:	77 11                	ja     91c1 <safe_rshift_func_uint64_t_u_u+0x26>
    91b0:	8b 45 f4             	mov    -0xc(%rbp),%eax
    91b3:	48 8b 55 f8          	mov    -0x8(%rbp),%rdx
    91b7:	89 c1                	mov    %eax,%ecx
    91b9:	48 d3 ea             	shr    %cl,%rdx
    91bc:	48 89 d0             	mov    %rdx,%rax
    91bf:	eb 04                	jmp    91c5 <safe_rshift_func_uint64_t_u_u+0x2a>
    91c1:	48 8b 45 f8          	mov    -0x8(%rbp),%rax
    91c5:	5d                   	pop    %rbp
    91c6:	c3                   	retq   

00000000000091c7 <safe_add_func_float_f_f>:
    91c7:	f3 0f 1e fa          	endbr64 
    91cb:	55                   	push   %rbp
    91cc:	48 89 e5             	mov    %rsp,%rbp
    91cf:	f3 0f 11 45 fc       	movss  %xmm0,-0x4(%rbp)
    91d4:	f3 0f 11 4d f8       	movss  %xmm1,-0x8(%rbp)
    91d9:	f3 0f 10 4d fc       	movss  -0x4(%rbp),%xmm1
    91de:	f3 0f 10 05 12 85 00 	movss  0x8512(%rip),%xmm0        # 116f8 <l_1336.4612+0xd8>
    91e5:	00 
    91e6:	f3 0f 59 c8          	mulss  %xmm0,%xmm1
    91ea:	f3 0f 10 55 f8       	movss  -0x8(%rbp),%xmm2
    91ef:	f3 0f 10 05 01 85 00 	movss  0x8501(%rip),%xmm0        # 116f8 <l_1336.4612+0xd8>
    91f6:	00 
    91f7:	f3 0f 59 c2          	mulss  %xmm2,%xmm0
    91fb:	f3 0f 58 c1          	addss  %xmm1,%xmm0
    91ff:	f3 0f 10 0d f9 84 00 	movss  0x84f9(%rip),%xmm1        # 11700 <l_1336.4612+0xe0>
    9206:	00 
    9207:	0f 54 c1             	andps  %xmm1,%xmm0
    920a:	0f 2f 05 ff 84 00 00 	comiss 0x84ff(%rip),%xmm0        # 11710 <l_1336.4612+0xf0>
    9211:	76 07                	jbe    921a <safe_add_func_float_f_f+0x53>
    9213:	f3 0f 10 45 fc       	movss  -0x4(%rbp),%xmm0
    9218:	eb 0a                	jmp    9224 <safe_add_func_float_f_f+0x5d>
    921a:	f3 0f 10 45 fc       	movss  -0x4(%rbp),%xmm0
    921f:	f3 0f 58 45 f8       	addss  -0x8(%rbp),%xmm0
    9224:	5d                   	pop    %rbp
    9225:	c3                   	retq   

0000000000009226 <safe_sub_func_float_f_f>:
    9226:	f3 0f 1e fa          	endbr64 
    922a:	55                   	push   %rbp
    922b:	48 89 e5             	mov    %rsp,%rbp
    922e:	f3 0f 11 45 fc       	movss  %xmm0,-0x4(%rbp)
    9233:	f3 0f 11 4d f8       	movss  %xmm1,-0x8(%rbp)
    9238:	f3 0f 10 4d fc       	movss  -0x4(%rbp),%xmm1
    923d:	f3 0f 10 05 b3 84 00 	movss  0x84b3(%rip),%xmm0        # 116f8 <l_1336.4612+0xd8>
    9244:	00 
    9245:	f3 0f 59 c1          	mulss  %xmm1,%xmm0
    9249:	f3 0f 10 55 f8       	movss  -0x8(%rbp),%xmm2
    924e:	f3 0f 10 0d a2 84 00 	movss  0x84a2(%rip),%xmm1        # 116f8 <l_1336.4612+0xd8>
    9255:	00 
    9256:	f3 0f 59 ca          	mulss  %xmm2,%xmm1
    925a:	f3 0f 5c c1          	subss  %xmm1,%xmm0
    925e:	f3 0f 10 0d 9a 84 00 	movss  0x849a(%rip),%xmm1        # 11700 <l_1336.4612+0xe0>
    9265:	00 
    9266:	0f 54 c1             	andps  %xmm1,%xmm0
    9269:	0f 2f 05 a0 84 00 00 	comiss 0x84a0(%rip),%xmm0        # 11710 <l_1336.4612+0xf0>
    9270:	76 07                	jbe    9279 <safe_sub_func_float_f_f+0x53>
    9272:	f3 0f 10 45 fc       	movss  -0x4(%rbp),%xmm0
    9277:	eb 0a                	jmp    9283 <safe_sub_func_float_f_f+0x5d>
    9279:	f3 0f 10 45 fc       	movss  -0x4(%rbp),%xmm0
    927e:	f3 0f 5c 45 f8       	subss  -0x8(%rbp),%xmm0
    9283:	5d                   	pop    %rbp
    9284:	c3                   	retq   

0000000000009285 <safe_mul_func_float_f_f>:
    9285:	f3 0f 1e fa          	endbr64 
    9289:	55                   	push   %rbp
    928a:	48 89 e5             	mov    %rsp,%rbp
    928d:	f3 0f 11 45 fc       	movss  %xmm0,-0x4(%rbp)
    9292:	f3 0f 11 4d f8       	movss  %xmm1,-0x8(%rbp)
    9297:	f3 0f 10 4d fc       	movss  -0x4(%rbp),%xmm1
    929c:	f3 0f 10 05 70 84 00 	movss  0x8470(%rip),%xmm0        # 11714 <l_1336.4612+0xf4>
    92a3:	00 
    92a4:	f3 0f 59 c8          	mulss  %xmm0,%xmm1
    92a8:	f3 0f 10 55 f8       	movss  -0x8(%rbp),%xmm2
    92ad:	f3 0f 10 05 63 84 00 	movss  0x8463(%rip),%xmm0        # 11718 <l_1336.4612+0xf8>
    92b4:	00 
    92b5:	f3 0f 59 c2          	mulss  %xmm2,%xmm0
    92b9:	f3 0f 59 c1          	mulss  %xmm1,%xmm0
    92bd:	f3 0f 10 0d 3b 84 00 	movss  0x843b(%rip),%xmm1        # 11700 <l_1336.4612+0xe0>
    92c4:	00 
    92c5:	0f 54 c1             	andps  %xmm1,%xmm0
    92c8:	0f 2f 05 4d 84 00 00 	comiss 0x844d(%rip),%xmm0        # 1171c <l_1336.4612+0xfc>
    92cf:	76 07                	jbe    92d8 <safe_mul_func_float_f_f+0x53>
    92d1:	f3 0f 10 45 fc       	movss  -0x4(%rbp),%xmm0
    92d6:	eb 0a                	jmp    92e2 <safe_mul_func_float_f_f+0x5d>
    92d8:	f3 0f 10 45 fc       	movss  -0x4(%rbp),%xmm0
    92dd:	f3 0f 59 45 f8       	mulss  -0x8(%rbp),%xmm0
    92e2:	5d                   	pop    %rbp
    92e3:	c3                   	retq   

00000000000092e4 <safe_div_func_float_f_f>:
    92e4:	f3 0f 1e fa          	endbr64 
    92e8:	55                   	push   %rbp
    92e9:	48 89 e5             	mov    %rsp,%rbp
    92ec:	f3 0f 11 45 fc       	movss  %xmm0,-0x4(%rbp)
    92f1:	f3 0f 11 4d f8       	movss  %xmm1,-0x8(%rbp)
    92f6:	f3 0f 10 45 f8       	movss  -0x8(%rbp),%xmm0
    92fb:	f3 0f 10 0d fd 83 00 	movss  0x83fd(%rip),%xmm1        # 11700 <l_1336.4612+0xe0>
    9302:	00 
    9303:	0f 54 c8             	andps  %xmm0,%xmm1
    9306:	f3 0f 10 05 12 84 00 	movss  0x8412(%rip),%xmm0        # 11720 <l_1336.4612+0x100>
    930d:	00 
    930e:	0f 2f c1             	comiss %xmm1,%xmm0
    9311:	0f 97 c0             	seta   %al
    9314:	83 f0 01             	xor    $0x1,%eax
    9317:	84 c0                	test   %al,%al
    9319:	75 56                	jne    9371 <safe_div_func_float_f_f+0x8d>
    931b:	66 0f ef c0          	pxor   %xmm0,%xmm0
    931f:	0f 2e 45 f8          	ucomiss -0x8(%rbp),%xmm0
    9323:	7a 0a                	jp     932f <safe_div_func_float_f_f+0x4b>
    9325:	66 0f ef c0          	pxor   %xmm0,%xmm0
    9329:	0f 2e 45 f8          	ucomiss -0x8(%rbp),%xmm0
    932d:	74 4e                	je     937d <safe_div_func_float_f_f+0x99>
    932f:	f3 0f 10 4d fc       	movss  -0x4(%rbp),%xmm1
    9334:	f3 0f 10 05 e8 83 00 	movss  0x83e8(%rip),%xmm0        # 11724 <l_1336.4612+0x104>
    933b:	00 
    933c:	f3 0f 59 c1          	mulss  %xmm1,%xmm0
    9340:	f3 0f 10 55 f8       	movss  -0x8(%rbp),%xmm2
    9345:	f3 0f 10 0d db 83 00 	movss  0x83db(%rip),%xmm1        # 11728 <l_1336.4612+0x108>
    934c:	00 
    934d:	f3 0f 59 ca          	mulss  %xmm2,%xmm1
    9351:	f3 0f 5e c1          	divss  %xmm1,%xmm0
    9355:	f3 0f 10 0d a3 83 00 	movss  0x83a3(%rip),%xmm1        # 11700 <l_1336.4612+0xe0>
    935c:	00 
    935d:	0f 54 c1             	andps  %xmm1,%xmm0
    9360:	0f 2f 05 c5 83 00 00 	comiss 0x83c5(%rip),%xmm0        # 1172c <l_1336.4612+0x10c>
    9367:	0f 97 c0             	seta   %al
    936a:	83 f0 01             	xor    $0x1,%eax
    936d:	84 c0                	test   %al,%al
    936f:	74 0c                	je     937d <safe_div_func_float_f_f+0x99>
    9371:	f3 0f 10 45 fc       	movss  -0x4(%rbp),%xmm0
    9376:	f3 0f 5e 45 f8       	divss  -0x8(%rbp),%xmm0
    937b:	eb 05                	jmp    9382 <safe_div_func_float_f_f+0x9e>
    937d:	f3 0f 10 45 fc       	movss  -0x4(%rbp),%xmm0
    9382:	5d                   	pop    %rbp
    9383:	c3                   	retq   

0000000000009384 <safe_add_func_double_f_f>:
    9384:	f3 0f 1e fa          	endbr64 
    9388:	55                   	push   %rbp
    9389:	48 89 e5             	mov    %rsp,%rbp
    938c:	f2 0f 11 45 f8       	movsd  %xmm0,-0x8(%rbp)
    9391:	f2 0f 11 4d f0       	movsd  %xmm1,-0x10(%rbp)
    9396:	f2 0f 10 4d f8       	movsd  -0x8(%rbp),%xmm1
    939b:	f2 0f 10 05 8d 83 00 	movsd  0x838d(%rip),%xmm0        # 11730 <l_1336.4612+0x110>
    93a2:	00 
    93a3:	f2 0f 59 c8          	mulsd  %xmm0,%xmm1
    93a7:	f2 0f 10 55 f0       	movsd  -0x10(%rbp),%xmm2
    93ac:	f2 0f 10 05 7c 83 00 	movsd  0x837c(%rip),%xmm0        # 11730 <l_1336.4612+0x110>
    93b3:	00 
    93b4:	f2 0f 59 c2          	mulsd  %xmm2,%xmm0
    93b8:	f2 0f 58 c1          	addsd  %xmm1,%xmm0
    93bc:	f3 0f 7e 0d 7c 83 00 	movq   0x837c(%rip),%xmm1        # 11740 <l_1336.4612+0x120>
    93c3:	00 
    93c4:	66 0f 54 c1          	andpd  %xmm1,%xmm0
    93c8:	66 0f 2f 05 80 83 00 	comisd 0x8380(%rip),%xmm0        # 11750 <l_1336.4612+0x130>
    93cf:	00 
    93d0:	76 07                	jbe    93d9 <safe_add_func_double_f_f+0x55>
    93d2:	f2 0f 10 45 f8       	movsd  -0x8(%rbp),%xmm0
    93d7:	eb 0a                	jmp    93e3 <safe_add_func_double_f_f+0x5f>
    93d9:	f2 0f 10 45 f8       	movsd  -0x8(%rbp),%xmm0
    93de:	f2 0f 58 45 f0       	addsd  -0x10(%rbp),%xmm0
    93e3:	5d                   	pop    %rbp
    93e4:	c3                   	retq   

00000000000093e5 <safe_sub_func_double_f_f>:
    93e5:	f3 0f 1e fa          	endbr64 
    93e9:	55                   	push   %rbp
    93ea:	48 89 e5             	mov    %rsp,%rbp
    93ed:	f2 0f 11 45 f8       	movsd  %xmm0,-0x8(%rbp)
    93f2:	f2 0f 11 4d f0       	movsd  %xmm1,-0x10(%rbp)
    93f7:	f2 0f 10 4d f8       	movsd  -0x8(%rbp),%xmm1
    93fc:	f2 0f 10 05 2c 83 00 	movsd  0x832c(%rip),%xmm0        # 11730 <l_1336.4612+0x110>
    9403:	00 
    9404:	f2 0f 59 c1          	mulsd  %xmm1,%xmm0
    9408:	f2 0f 10 55 f0       	movsd  -0x10(%rbp),%xmm2
    940d:	f2 0f 10 0d 1b 83 00 	movsd  0x831b(%rip),%xmm1        # 11730 <l_1336.4612+0x110>
    9414:	00 
    9415:	f2 0f 59 ca          	mulsd  %xmm2,%xmm1
    9419:	f2 0f 5c c1          	subsd  %xmm1,%xmm0
    941d:	f3 0f 7e 0d 1b 83 00 	movq   0x831b(%rip),%xmm1        # 11740 <l_1336.4612+0x120>
    9424:	00 
    9425:	66 0f 54 c1          	andpd  %xmm1,%xmm0
    9429:	66 0f 2f 05 1f 83 00 	comisd 0x831f(%rip),%xmm0        # 11750 <l_1336.4612+0x130>
    9430:	00 
    9431:	76 07                	jbe    943a <safe_sub_func_double_f_f+0x55>
    9433:	f2 0f 10 45 f8       	movsd  -0x8(%rbp),%xmm0
    9438:	eb 0a                	jmp    9444 <safe_sub_func_double_f_f+0x5f>
    943a:	f2 0f 10 45 f8       	movsd  -0x8(%rbp),%xmm0
    943f:	f2 0f 5c 45 f0       	subsd  -0x10(%rbp),%xmm0
    9444:	5d                   	pop    %rbp
    9445:	c3                   	retq   

0000000000009446 <safe_mul_func_double_f_f>:
    9446:	f3 0f 1e fa          	endbr64 
    944a:	55                   	push   %rbp
    944b:	48 89 e5             	mov    %rsp,%rbp
    944e:	f2 0f 11 45 f8       	movsd  %xmm0,-0x8(%rbp)
    9453:	f2 0f 11 4d f0       	movsd  %xmm1,-0x10(%rbp)
    9458:	f2 0f 10 4d f8       	movsd  -0x8(%rbp),%xmm1
    945d:	f2 0f 10 05 f3 82 00 	movsd  0x82f3(%rip),%xmm0        # 11758 <l_1336.4612+0x138>
    9464:	00 
    9465:	f2 0f 59 c8          	mulsd  %xmm0,%xmm1
    9469:	f2 0f 10 55 f0       	movsd  -0x10(%rbp),%xmm2
    946e:	f2 0f 10 05 ea 82 00 	movsd  0x82ea(%rip),%xmm0        # 11760 <l_1336.4612+0x140>
    9475:	00 
    9476:	f2 0f 59 c2          	mulsd  %xmm2,%xmm0
    947a:	f2 0f 59 c1          	mulsd  %xmm1,%xmm0
    947e:	f3 0f 7e 0d ba 82 00 	movq   0x82ba(%rip),%xmm1        # 11740 <l_1336.4612+0x120>
    9485:	00 
    9486:	66 0f 54 c1          	andpd  %xmm1,%xmm0
    948a:	66 0f 2f 05 d6 82 00 	comisd 0x82d6(%rip),%xmm0        # 11768 <l_1336.4612+0x148>
    9491:	00 
    9492:	76 07                	jbe    949b <safe_mul_func_double_f_f+0x55>
    9494:	f2 0f 10 45 f8       	movsd  -0x8(%rbp),%xmm0
    9499:	eb 0a                	jmp    94a5 <safe_mul_func_double_f_f+0x5f>
    949b:	f2 0f 10 45 f8       	movsd  -0x8(%rbp),%xmm0
    94a0:	f2 0f 59 45 f0       	mulsd  -0x10(%rbp),%xmm0
    94a5:	5d                   	pop    %rbp
    94a6:	c3                   	retq   

00000000000094a7 <safe_div_func_double_f_f>:
    94a7:	f3 0f 1e fa          	endbr64 
    94ab:	55                   	push   %rbp
    94ac:	48 89 e5             	mov    %rsp,%rbp
    94af:	f2 0f 11 45 f8       	movsd  %xmm0,-0x8(%rbp)
    94b4:	f2 0f 11 4d f0       	movsd  %xmm1,-0x10(%rbp)
    94b9:	f2 0f 10 45 f0       	movsd  -0x10(%rbp),%xmm0
    94be:	f3 0f 7e 0d 7a 82 00 	movq   0x827a(%rip),%xmm1        # 11740 <l_1336.4612+0x120>
    94c5:	00 
    94c6:	66 0f 54 c8          	andpd  %xmm0,%xmm1
    94ca:	f2 0f 10 05 9e 82 00 	movsd  0x829e(%rip),%xmm0        # 11770 <l_1336.4612+0x150>
    94d1:	00 
    94d2:	66 0f 2f c1          	comisd %xmm1,%xmm0
    94d6:	0f 97 c0             	seta   %al
    94d9:	83 f0 01             	xor    $0x1,%eax
    94dc:	84 c0                	test   %al,%al
    94de:	75 5a                	jne    953a <safe_div_func_double_f_f+0x93>
    94e0:	66 0f ef c0          	pxor   %xmm0,%xmm0
    94e4:	66 0f 2e 45 f0       	ucomisd -0x10(%rbp),%xmm0
    94e9:	7a 0b                	jp     94f6 <safe_div_func_double_f_f+0x4f>
    94eb:	66 0f ef c0          	pxor   %xmm0,%xmm0
    94ef:	66 0f 2e 45 f0       	ucomisd -0x10(%rbp),%xmm0
    94f4:	74 50                	je     9546 <safe_div_func_double_f_f+0x9f>
    94f6:	f2 0f 10 4d f8       	movsd  -0x8(%rbp),%xmm1
    94fb:	f2 0f 10 05 75 82 00 	movsd  0x8275(%rip),%xmm0        # 11778 <l_1336.4612+0x158>
    9502:	00 
    9503:	f2 0f 59 c1          	mulsd  %xmm1,%xmm0
    9507:	f2 0f 10 55 f0       	movsd  -0x10(%rbp),%xmm2
    950c:	f2 0f 10 0d 6c 82 00 	movsd  0x826c(%rip),%xmm1        # 11780 <l_1336.4612+0x160>
    9513:	00 
    9514:	f2 0f 59 ca          	mulsd  %xmm2,%xmm1
    9518:	f2 0f 5e c1          	divsd  %xmm1,%xmm0
    951c:	f3 0f 7e 0d 1c 82 00 	movq   0x821c(%rip),%xmm1        # 11740 <l_1336.4612+0x120>
    9523:	00 
    9524:	66 0f 54 c1          	andpd  %xmm1,%xmm0
    9528:	66 0f 2f 05 58 82 00 	comisd 0x8258(%rip),%xmm0        # 11788 <l_1336.4612+0x168>
    952f:	00 
    9530:	0f 97 c0             	seta   %al
    9533:	83 f0 01             	xor    $0x1,%eax
    9536:	84 c0                	test   %al,%al
    9538:	74 0c                	je     9546 <safe_div_func_double_f_f+0x9f>
    953a:	f2 0f 10 45 f8       	movsd  -0x8(%rbp),%xmm0
    953f:	f2 0f 5e 45 f0       	divsd  -0x10(%rbp),%xmm0
    9544:	eb 05                	jmp    954b <safe_div_func_double_f_f+0xa4>
    9546:	f2 0f 10 45 f8       	movsd  -0x8(%rbp),%xmm0
    954b:	5d                   	pop    %rbp
    954c:	c3                   	retq   

000000000000954d <safe_convert_func_float_to_int32_t>:
    954d:	f3 0f 1e fa          	endbr64 
    9551:	55                   	push   %rbp
    9552:	48 89 e5             	mov    %rsp,%rbp
    9555:	f3 0f 11 45 fc       	movss  %xmm0,-0x4(%rbp)
    955a:	f3 0f 10 05 2e 82 00 	movss  0x822e(%rip),%xmm0        # 11790 <l_1336.4612+0x170>
    9561:	00 
    9562:	0f 2f 45 fc          	comiss -0x4(%rbp),%xmm0
    9566:	0f 93 c0             	setae  %al
    9569:	83 f0 01             	xor    $0x1,%eax
    956c:	84 c0                	test   %al,%al
    956e:	74 21                	je     9591 <safe_convert_func_float_to_int32_t+0x44>
    9570:	f3 0f 10 45 fc       	movss  -0x4(%rbp),%xmm0
    9575:	0f 2f 05 18 82 00 00 	comiss 0x8218(%rip),%xmm0        # 11794 <l_1336.4612+0x174>
    957c:	0f 93 c0             	setae  %al
    957f:	83 f0 01             	xor    $0x1,%eax
    9582:	84 c0                	test   %al,%al
    9584:	74 0b                	je     9591 <safe_convert_func_float_to_int32_t+0x44>
    9586:	f3 0f 10 45 fc       	movss  -0x4(%rbp),%xmm0
    958b:	f3 0f 2c c0          	cvttss2si %xmm0,%eax
    958f:	eb 05                	jmp    9596 <safe_convert_func_float_to_int32_t+0x49>
    9591:	b8 ff ff ff 7f       	mov    $0x7fffffff,%eax
    9596:	5d                   	pop    %rbp
    9597:	c3                   	retq   

0000000000009598 <crc32_gentab>:
    9598:	f3 0f 1e fa          	endbr64 
    959c:	55                   	push   %rbp
    959d:	48 89 e5             	mov    %rsp,%rbp
    95a0:	c7 45 fc 20 83 b8 ed 	movl   $0xedb88320,-0x4(%rbp)
    95a7:	c7 45 f4 00 00 00 00 	movl   $0x0,-0xc(%rbp)
    95ae:	eb 51                	jmp    9601 <crc32_gentab+0x69>
    95b0:	8b 45 f4             	mov    -0xc(%rbp),%eax
    95b3:	89 45 f0             	mov    %eax,-0x10(%rbp)
    95b6:	c7 45 f8 08 00 00 00 	movl   $0x8,-0x8(%rbp)
    95bd:	eb 1e                	jmp    95dd <crc32_gentab+0x45>
    95bf:	8b 45 f0             	mov    -0x10(%rbp),%eax
    95c2:	83 e0 01             	and    $0x1,%eax
    95c5:	85 c0                	test   %eax,%eax
    95c7:	74 0d                	je     95d6 <crc32_gentab+0x3e>
    95c9:	8b 45 f0             	mov    -0x10(%rbp),%eax
    95cc:	d1 e8                	shr    %eax
    95ce:	33 45 fc             	xor    -0x4(%rbp),%eax
    95d1:	89 45 f0             	mov    %eax,-0x10(%rbp)
    95d4:	eb 03                	jmp    95d9 <crc32_gentab+0x41>
    95d6:	d1 6d f0             	shrl   -0x10(%rbp)
    95d9:	83 6d f8 01          	subl   $0x1,-0x8(%rbp)
    95dd:	83 7d f8 00          	cmpl   $0x0,-0x8(%rbp)
    95e1:	7f dc                	jg     95bf <crc32_gentab+0x27>
    95e3:	8b 45 f4             	mov    -0xc(%rbp),%eax
    95e6:	48 98                	cltq   
    95e8:	48 8d 0c 85 00 00 00 	lea    0x0(,%rax,4),%rcx
    95ef:	00 
    95f0:	48 8d 15 49 e4 00 00 	lea    0xe449(%rip),%rdx        # 17a40 <crc32_tab>
    95f7:	8b 45 f0             	mov    -0x10(%rbp),%eax
    95fa:	89 04 11             	mov    %eax,(%rcx,%rdx,1)
    95fd:	83 45 f4 01          	addl   $0x1,-0xc(%rbp)
    9601:	81 7d f4 ff 00 00 00 	cmpl   $0xff,-0xc(%rbp)
    9608:	7e a6                	jle    95b0 <crc32_gentab+0x18>
    960a:	90                   	nop
    960b:	90                   	nop
    960c:	5d                   	pop    %rbp
    960d:	c3                   	retq   

000000000000960e <crc32_byte>:
    960e:	f3 0f 1e fa          	endbr64 
    9612:	55                   	push   %rbp
    9613:	48 89 e5             	mov    %rsp,%rbp
    9616:	89 f8                	mov    %edi,%eax
    9618:	88 45 fc             	mov    %al,-0x4(%rbp)
    961b:	8b 05 ff a9 00 00    	mov    0xa9ff(%rip),%eax        # 14020 <crc32_context>
    9621:	c1 e8 08             	shr    $0x8,%eax
    9624:	89 c1                	mov    %eax,%ecx
    9626:	0f b6 55 fc          	movzbl -0x4(%rbp),%edx
    962a:	8b 05 f0 a9 00 00    	mov    0xa9f0(%rip),%eax        # 14020 <crc32_context>
    9630:	31 d0                	xor    %edx,%eax
    9632:	0f b6 c0             	movzbl %al,%eax
    9635:	89 c0                	mov    %eax,%eax
    9637:	48 8d 14 85 00 00 00 	lea    0x0(,%rax,4),%rdx
    963e:	00 
    963f:	48 8d 05 fa e3 00 00 	lea    0xe3fa(%rip),%rax        # 17a40 <crc32_tab>
    9646:	8b 04 02             	mov    (%rdx,%rax,1),%eax
    9649:	31 c8                	xor    %ecx,%eax
    964b:	89 05 cf a9 00 00    	mov    %eax,0xa9cf(%rip)        # 14020 <crc32_context>
    9651:	90                   	nop
    9652:	5d                   	pop    %rbp
    9653:	c3                   	retq   

0000000000009654 <crc32_8bytes>:
    9654:	f3 0f 1e fa          	endbr64 
    9658:	55                   	push   %rbp
    9659:	48 89 e5             	mov    %rsp,%rbp
    965c:	48 83 ec 08          	sub    $0x8,%rsp
    9660:	48 89 7d f8          	mov    %rdi,-0x8(%rbp)
    9664:	48 8b 45 f8          	mov    -0x8(%rbp),%rax
    9668:	0f b6 c0             	movzbl %al,%eax
    966b:	89 c7                	mov    %eax,%edi
    966d:	e8 9c ff ff ff       	callq  960e <crc32_byte>
    9672:	48 8b 45 f8          	mov    -0x8(%rbp),%rax
    9676:	48 c1 e8 08          	shr    $0x8,%rax
    967a:	0f b6 c0             	movzbl %al,%eax
    967d:	89 c7                	mov    %eax,%edi
    967f:	e8 8a ff ff ff       	callq  960e <crc32_byte>
    9684:	48 8b 45 f8          	mov    -0x8(%rbp),%rax
    9688:	48 c1 e8 10          	shr    $0x10,%rax
    968c:	0f b6 c0             	movzbl %al,%eax
    968f:	89 c7                	mov    %eax,%edi
    9691:	e8 78 ff ff ff       	callq  960e <crc32_byte>
    9696:	48 8b 45 f8          	mov    -0x8(%rbp),%rax
    969a:	48 c1 e8 18          	shr    $0x18,%rax
    969e:	0f b6 c0             	movzbl %al,%eax
    96a1:	89 c7                	mov    %eax,%edi
    96a3:	e8 66 ff ff ff       	callq  960e <crc32_byte>
    96a8:	48 8b 45 f8          	mov    -0x8(%rbp),%rax
    96ac:	48 c1 e8 20          	shr    $0x20,%rax
    96b0:	0f b6 c0             	movzbl %al,%eax
    96b3:	89 c7                	mov    %eax,%edi
    96b5:	e8 54 ff ff ff       	callq  960e <crc32_byte>
    96ba:	48 8b 45 f8          	mov    -0x8(%rbp),%rax
    96be:	48 c1 e8 28          	shr    $0x28,%rax
    96c2:	0f b6 c0             	movzbl %al,%eax
    96c5:	89 c7                	mov    %eax,%edi
    96c7:	e8 42 ff ff ff       	callq  960e <crc32_byte>
    96cc:	48 8b 45 f8          	mov    -0x8(%rbp),%rax
    96d0:	48 c1 e8 30          	shr    $0x30,%rax
    96d4:	0f b6 c0             	movzbl %al,%eax
    96d7:	89 c7                	mov    %eax,%edi
    96d9:	e8 30 ff ff ff       	callq  960e <crc32_byte>
    96de:	48 8b 45 f8          	mov    -0x8(%rbp),%rax
    96e2:	48 c1 e8 38          	shr    $0x38,%rax
    96e6:	0f b6 c0             	movzbl %al,%eax
    96e9:	89 c7                	mov    %eax,%edi
    96eb:	e8 1e ff ff ff       	callq  960e <crc32_byte>
    96f0:	90                   	nop
    96f1:	c9                   	leaveq 
    96f2:	c3                   	retq   

00000000000096f3 <transparent_crc>:
    96f3:	f3 0f 1e fa          	endbr64 
    96f7:	55                   	push   %rbp
    96f8:	48 89 e5             	mov    %rsp,%rbp
    96fb:	48 83 ec 20          	sub    $0x20,%rsp
    96ff:	48 89 7d f8          	mov    %rdi,-0x8(%rbp)
    9703:	48 89 75 f0          	mov    %rsi,-0x10(%rbp)
    9707:	89 55 ec             	mov    %edx,-0x14(%rbp)
    970a:	48 8b 45 f8          	mov    -0x8(%rbp),%rax
    970e:	48 89 c7             	mov    %rax,%rdi
    9711:	e8 3e ff ff ff       	callq  9654 <crc32_8bytes>
    9716:	83 7d ec 00          	cmpl   $0x0,-0x14(%rbp)
    971a:	74 22                	je     973e <transparent_crc+0x4b>
    971c:	8b 05 fe a8 00 00    	mov    0xa8fe(%rip),%eax        # 14020 <crc32_context>
    9722:	f7 d0                	not    %eax
    9724:	89 c2                	mov    %eax,%edx
    9726:	48 8b 45 f0          	mov    -0x10(%rbp),%rax
    972a:	48 89 c6             	mov    %rax,%rsi
    972d:	48 8d 3d fc 68 00 00 	lea    0x68fc(%rip),%rdi        # 10030 <_IO_stdin_used+0x30>
    9734:	b8 00 00 00 00       	mov    $0x0,%eax
    9739:	e8 42 e9 ff ff       	callq  8080 <printf@plt>
    973e:	90                   	nop
    973f:	c9                   	leaveq 
    9740:	c3                   	retq   

0000000000009741 <transparent_crc_bytes>:
    9741:	f3 0f 1e fa          	endbr64 
    9745:	55                   	push   %rbp
    9746:	48 89 e5             	mov    %rsp,%rbp
    9749:	48 83 ec 30          	sub    $0x30,%rsp
    974d:	48 89 7d e8          	mov    %rdi,-0x18(%rbp)
    9751:	89 75 e4             	mov    %esi,-0x1c(%rbp)
    9754:	48 89 55 d8          	mov    %rdx,-0x28(%rbp)
    9758:	89 4d e0             	mov    %ecx,-0x20(%rbp)
    975b:	c7 45 fc 00 00 00 00 	movl   $0x0,-0x4(%rbp)
    9762:	eb 1e                	jmp    9782 <transparent_crc_bytes+0x41>
    9764:	8b 45 fc             	mov    -0x4(%rbp),%eax
    9767:	48 63 d0             	movslq %eax,%rdx
    976a:	48 8b 45 e8          	mov    -0x18(%rbp),%rax
    976e:	48 01 d0             	add    %rdx,%rax
    9771:	0f b6 00             	movzbl (%rax),%eax
    9774:	0f b6 c0             	movzbl %al,%eax
    9777:	89 c7                	mov    %eax,%edi
    9779:	e8 90 fe ff ff       	callq  960e <crc32_byte>
    977e:	83 45 fc 01          	addl   $0x1,-0x4(%rbp)
    9782:	8b 45 fc             	mov    -0x4(%rbp),%eax
    9785:	3b 45 e4             	cmp    -0x1c(%rbp),%eax
    9788:	7c da                	jl     9764 <transparent_crc_bytes+0x23>
    978a:	83 7d e0 00          	cmpl   $0x0,-0x20(%rbp)
    978e:	74 22                	je     97b2 <transparent_crc_bytes+0x71>
    9790:	8b 05 8a a8 00 00    	mov    0xa88a(%rip),%eax        # 14020 <crc32_context>
    9796:	f7 d0                	not    %eax
    9798:	89 c2                	mov    %eax,%edx
    979a:	48 8b 45 d8          	mov    -0x28(%rbp),%rax
    979e:	48 89 c6             	mov    %rax,%rsi
    97a1:	48 8d 3d 88 68 00 00 	lea    0x6888(%rip),%rdi        # 10030 <_IO_stdin_used+0x30>
    97a8:	b8 00 00 00 00       	mov    $0x0,%eax
    97ad:	e8 ce e8 ff ff       	callq  8080 <printf@plt>
    97b2:	90                   	nop
    97b3:	c9                   	leaveq 
    97b4:	c3                   	retq   

00000000000097b5 <func_1>:
    97b5:	f3 0f 1e fa          	endbr64 
    97b9:	55                   	push   %rbp
    97ba:	48 89 e5             	mov    %rsp,%rbp
    97bd:	48 83 c4 80          	add    $0xffffffffffffff80,%rsp
    97c1:	64 48 8b 04 25 28 00 	mov    %fs:0x28,%rax
    97c8:	00 00 
    97ca:	48 89 45 f8          	mov    %rax,-0x8(%rbp)
    97ce:	31 c0                	xor    %eax,%eax
    97d0:	48 b8 38 44 be 90 a2 	movabs $0x197f0a290be4438,%rax
    97d7:	f0 97 01 
    97da:	48 89 45 c8          	mov    %rax,-0x38(%rbp)
    97de:	48 8d 05 7b cc 00 00 	lea    0xcc7b(%rip),%rax        # 16460 <g_1172>
    97e5:	48 89 45 d0          	mov    %rax,-0x30(%rbp)
    97e9:	c7 45 90 07 db f3 50 	movl   $0x50f3db07,-0x70(%rbp)
    97f0:	c7 45 94 c0 4f f8 a6 	movl   $0xa6f84fc0,-0x6c(%rbp)
    97f7:	c7 45 98 08 00 00 00 	movl   $0x8,-0x68(%rbp)
    97fe:	c7 45 9c 05 eb 69 ab 	movl   $0xab69eb05,-0x64(%rbp)
    9805:	c7 45 a0 f6 ff ff ff 	movl   $0xfffffff6,-0x60(%rbp)
    980c:	c7 45 a4 ff ff ff ff 	movl   $0xffffffff,-0x5c(%rbp)
    9813:	c7 45 a8 ff ff ff ff 	movl   $0xffffffff,-0x58(%rbp)
    981a:	c7 45 ac ff ff ff ff 	movl   $0xffffffff,-0x54(%rbp)
    9821:	c7 45 b0 e5 38 eb 0d 	movl   $0xdeb38e5,-0x50(%rbp)
    9828:	c7 45 b4 00 00 00 00 	movl   $0x0,-0x4c(%rbp)
    982f:	c7 45 f1 fc fc 00 fc 	movl   $0xfc00fcfc,-0xf(%rbp)
    9836:	66 c7 45 f5 fc 00    	movw   $0xfc,-0xb(%rbp)
    983c:	c6 45 f7 fc          	movb   $0xfc,-0x9(%rbp)
    9840:	66 c7 45 e8 f9 ff    	movw   $0xfff9,-0x18(%rbp)
    9846:	66 c7 45 ea f9 ff    	movw   $0xfff9,-0x16(%rbp)
    984c:	66 c7 45 ec f9 ff    	movw   $0xfff9,-0x14(%rbp)
    9852:	66 c7 45 ee f9 ff    	movw   $0xfff9,-0x12(%rbp)
    9858:	48 8d 05 c1 cf 00 00 	lea    0xcfc1(%rip),%rax        # 16820 <g_1217>
    985f:	48 89 45 d8          	mov    %rax,-0x28(%rbp)
    9863:	c7 45 b8 f7 ff ff ff 	movl   $0xfffffff7,-0x48(%rbp)
    986a:	66 c7 45 8e 56 d3    	movw   $0xd356,-0x72(%rbp)
    9870:	c7 45 bc f6 02 ed 32 	movl   $0x32ed02f6,-0x44(%rbp)
    9877:	48 8d 05 c2 cb 00 00 	lea    0xcbc2(%rip),%rax        # 16440 <g_1100+0x20>
    987e:	48 89 45 c0          	mov    %rax,-0x40(%rbp)
    9882:	48 8d 45 c0          	lea    -0x40(%rbp),%rax
    9886:	48 89 45 e0          	mov    %rax,-0x20(%rbp)
    988a:	8b 45 98             	mov    -0x68(%rbp),%eax
    988d:	48 8b 55 f8          	mov    -0x8(%rbp),%rdx
    9891:	64 48 33 14 25 28 00 	xor    %fs:0x28,%rdx
    9898:	00 00 
    989a:	74 05                	je     98a1 <func_1+0xec>
    989c:	e8 cf e7 ff ff       	callq  8070 <__stack_chk_fail@plt>
    98a1:	c9                   	leaveq 
    98a2:	c3                   	retq   

00000000000098a3 <func_2>:
    98a3:	f3 0f 1e fa          	endbr64 
    98a7:	55                   	push   %rbp
    98a8:	48 89 e5             	mov    %rsp,%rbp
    98ab:	41 57                	push   %r15
    98ad:	41 56                	push   %r14
    98af:	41 55                	push   %r13
    98b1:	41 54                	push   %r12
    98b3:	53                   	push   %rbx
    98b4:	48 81 ec 18 0b 00 00 	sub    $0xb18,%rsp
    98bb:	48 89 bd d8 f4 ff ff 	mov    %rdi,-0xb28(%rbp)
    98c2:	48 89 b5 d0 f4 ff ff 	mov    %rsi,-0xb30(%rbp)
    98c9:	64 48 8b 04 25 28 00 	mov    %fs:0x28,%rax
    98d0:	00 00 
    98d2:	48 89 45 c8          	mov    %rax,-0x38(%rbp)
    98d6:	31 c0                	xor    %eax,%eax
    98d8:	c6 85 e4 f4 ff ff 07 	movb   $0x7,-0xb1c(%rbp)
    98df:	c7 85 30 f7 ff ff b2 	movl   $0x4457c1b2,-0x8d0(%rbp)
    98e6:	c1 57 44 
    98e9:	c7 85 34 f7 ff ff 00 	movl   $0x0,-0x8cc(%rbp)
    98f0:	00 00 00 
    98f3:	c7 85 38 f7 ff ff 00 	movl   $0x0,-0x8c8(%rbp)
    98fa:	00 00 00 
    98fd:	c7 85 3c f7 ff ff b2 	movl   $0x4457c1b2,-0x8c4(%rbp)
    9904:	c1 57 44 
    9907:	c7 85 40 f7 ff ff 00 	movl   $0x0,-0x8c0(%rbp)
    990e:	00 00 00 
    9911:	c7 85 44 f7 ff ff 00 	movl   $0x0,-0x8bc(%rbp)
    9918:	00 00 00 
    991b:	c7 85 48 f7 ff ff b2 	movl   $0x4457c1b2,-0x8b8(%rbp)
    9922:	c1 57 44 
    9925:	c7 85 4c f7 ff ff 00 	movl   $0x0,-0x8b4(%rbp)
    992c:	00 00 00 
    992f:	c7 85 50 f7 ff ff 00 	movl   $0x0,-0x8b0(%rbp)
    9936:	00 00 00 
    9939:	c7 85 54 f7 ff ff b2 	movl   $0x4457c1b2,-0x8ac(%rbp)
    9940:	c1 57 44 
    9943:	c7 85 58 f7 ff ff 00 	movl   $0x0,-0x8a8(%rbp)
    994a:	00 00 00 
    994d:	c7 85 5c f7 ff ff 00 	movl   $0x0,-0x8a4(%rbp)
    9954:	00 00 00 
    9957:	c7 85 60 f7 ff ff b2 	movl   $0x4457c1b2,-0x8a0(%rbp)
    995e:	c1 57 44 
    9961:	c7 85 64 f7 ff ff 00 	movl   $0x0,-0x89c(%rbp)
    9968:	00 00 00 
    996b:	c7 85 68 f7 ff ff 00 	movl   $0x0,-0x898(%rbp)
    9972:	00 00 00 
    9975:	c7 85 6c f7 ff ff b2 	movl   $0x4457c1b2,-0x894(%rbp)
    997c:	c1 57 44 
    997f:	c7 85 70 f7 ff ff 00 	movl   $0x0,-0x890(%rbp)
    9986:	00 00 00 
    9989:	c7 85 74 f7 ff ff 00 	movl   $0x0,-0x88c(%rbp)
    9990:	00 00 00 
    9993:	c7 85 f0 f4 ff ff 01 	movl   $0x1,-0xb10(%rbp)
    999a:	00 00 00 
    999d:	48 8d 05 3c aa 00 00 	lea    0xaa3c(%rip),%rax        # 143e0 <g_252>
    99a4:	48 89 85 48 f5 ff ff 	mov    %rax,-0xab8(%rbp)
    99ab:	48 8d 85 48 f5 ff ff 	lea    -0xab8(%rbp),%rax
    99b2:	48 89 85 a0 f5 ff ff 	mov    %rax,-0xa60(%rbp)
    99b9:	48 8d 05 a0 ad 00 00 	lea    0xada0(%rip),%rax        # 14760 <g_1120>
    99c0:	48 89 85 50 f5 ff ff 	mov    %rax,-0xab0(%rbp)
    99c7:	c7 85 24 f5 ff ff 10 	movl   $0x8d89fd10,-0xadc(%rbp)
    99ce:	fd 89 8d 
    99d1:	66 c7 85 e6 f4 ff ff 	movw   $0x3,-0xb1a(%rbp)
    99d8:	03 00 
    99da:	c7 85 28 f5 ff ff 01 	movl   $0x1,-0xad8(%rbp)
    99e1:	00 00 00 
    99e4:	48 c7 85 80 f7 ff ff 	movq   $0x0,-0x880(%rbp)
    99eb:	00 00 00 00 
    99ef:	48 8d 05 aa cd 00 00 	lea    0xcdaa(%rip),%rax        # 167a0 <g_1196+0x300>
    99f6:	48 89 85 88 f7 ff ff 	mov    %rax,-0x878(%rbp)
    99fd:	48 c7 85 90 f7 ff ff 	movq   $0x0,-0x870(%rbp)
    9a04:	00 00 00 00 
    9a08:	48 8d 05 91 cd 00 00 	lea    0xcd91(%rip),%rax        # 167a0 <g_1196+0x300>
    9a0f:	48 89 85 98 f7 ff ff 	mov    %rax,-0x868(%rbp)
    9a16:	48 c7 85 a0 f7 ff ff 	movq   $0x0,-0x860(%rbp)
    9a1d:	00 00 00 00 
    9a21:	48 8d 05 78 cd 00 00 	lea    0xcd78(%rip),%rax        # 167a0 <g_1196+0x300>
    9a28:	48 89 85 a8 f7 ff ff 	mov    %rax,-0x858(%rbp)
    9a2f:	48 c7 85 b0 f7 ff ff 	movq   $0x0,-0x850(%rbp)
    9a36:	00 00 00 00 
    9a3a:	48 8d 05 5f cd 00 00 	lea    0xcd5f(%rip),%rax        # 167a0 <g_1196+0x300>
    9a41:	48 89 85 b8 f7 ff ff 	mov    %rax,-0x848(%rbp)
    9a48:	48 c7 85 c0 f7 ff ff 	movq   $0x0,-0x840(%rbp)
    9a4f:	00 00 00 00 
    9a53:	48 c7 85 78 f5 ff ff 	movq   $0x0,-0xa88(%rbp)
    9a5a:	00 00 00 00 
    9a5e:	48 8d 05 db c9 00 00 	lea    0xc9db(%rip),%rax        # 16440 <g_1100+0x20>
    9a65:	48 89 85 a8 f5 ff ff 	mov    %rax,-0xa58(%rbp)
    9a6c:	48 8d 05 05 ce 00 00 	lea    0xce05(%rip),%rax        # 16878 <g_1393>
    9a73:	48 89 85 b0 f5 ff ff 	mov    %rax,-0xa50(%rbp)
    9a7a:	48 c7 85 b8 f5 ff ff 	movq   $0x0,-0xa48(%rbp)
    9a81:	00 00 00 00 
    9a85:	c7 05 d5 a5 00 00 00 	movl   $0x0,0xa5d5(%rip)        # 14064 <g_42>
    9a8c:	00 00 00 
    9a8f:	e9 01 01 00 00       	jmpq   9b95 <func_2+0x2f2>
    9a94:	48 8d 05 cd a5 00 00 	lea    0xa5cd(%rip),%rax        # 14068 <g_47>
    9a9b:	48 89 85 60 f6 ff ff 	mov    %rax,-0x9a0(%rbp)
    9aa2:	48 8d 05 bf a5 00 00 	lea    0xa5bf(%rip),%rax        # 14068 <g_47>
    9aa9:	48 89 85 68 f6 ff ff 	mov    %rax,-0x998(%rbp)
    9ab0:	48 8d 05 b1 a5 00 00 	lea    0xa5b1(%rip),%rax        # 14068 <g_47>
    9ab7:	48 89 85 70 f6 ff ff 	mov    %rax,-0x990(%rbp)
    9abe:	48 8d 05 a3 a5 00 00 	lea    0xa5a3(%rip),%rax        # 14068 <g_47>
    9ac5:	48 89 85 78 f6 ff ff 	mov    %rax,-0x988(%rbp)
    9acc:	48 8d 85 30 f7 ff ff 	lea    -0x8d0(%rbp),%rax
    9ad3:	48 83 c0 04          	add    $0x4,%rax
    9ad7:	48 89 85 80 f6 ff ff 	mov    %rax,-0x980(%rbp)
    9ade:	c7 85 58 f5 ff ff 4b 	movl   $0x51ef224b,-0xaa8(%rbp)
    9ae5:	22 ef 51 
    9ae8:	48 c7 85 88 f6 ff ff 	movq   $0x0,-0x978(%rbp)
    9aef:	00 00 00 00 
    9af3:	48 8d 85 30 f7 ff ff 	lea    -0x8d0(%rbp),%rax
    9afa:	48 83 c0 38          	add    $0x38,%rax
    9afe:	48 89 85 90 f6 ff ff 	mov    %rax,-0x970(%rbp)
    9b05:	48 8d 85 58 f5 ff ff 	lea    -0xaa8(%rbp),%rax
    9b0c:	48 89 85 98 f6 ff ff 	mov    %rax,-0x968(%rbp)
    9b13:	48 8d 05 4e a5 00 00 	lea    0xa54e(%rip),%rax        # 14068 <g_47>
    9b1a:	48 89 85 a0 f6 ff ff 	mov    %rax,-0x960(%rbp)
    9b21:	48 c7 85 a8 f6 ff ff 	movq   $0x0,-0x958(%rbp)
    9b28:	00 00 00 00 
    9b2c:	c7 85 44 f5 ff ff a9 	movl   $0xf1497ea9,-0xabc(%rbp)
    9b33:	7e 49 f1 
    9b36:	c7 85 34 f5 ff ff 00 	movl   $0x0,-0xacc(%rbp)
    9b3d:	00 00 00 
    9b40:	eb 1e                	jmp    9b60 <func_2+0x2bd>
    9b42:	8b 85 34 f5 ff ff    	mov    -0xacc(%rbp),%eax
    9b48:	48 98                	cltq   
    9b4a:	48 8d 95 58 f5 ff ff 	lea    -0xaa8(%rbp),%rdx
    9b51:	48 89 94 c5 80 fc ff 	mov    %rdx,-0x380(%rbp,%rax,8)
    9b58:	ff 
    9b59:	83 85 34 f5 ff ff 01 	addl   $0x1,-0xacc(%rbp)
    9b60:	83 bd 34 f5 ff ff 03 	cmpl   $0x3,-0xacc(%rbp)
    9b67:	7e d9                	jle    9b42 <func_2+0x29f>
    9b69:	0f b7 05 fc a4 00 00 	movzwl 0xa4fc(%rip),%eax        # 1406c <g_61>
    9b70:	83 c0 01             	add    $0x1,%eax
    9b73:	66 89 05 f2 a4 00 00 	mov    %ax,0xa4f2(%rip)        # 1406c <g_61>
    9b7a:	8b 05 e4 a4 00 00    	mov    0xa4e4(%rip),%eax        # 14064 <g_42>
    9b80:	48 98                	cltq   
    9b82:	be 07 00 00 00       	mov    $0x7,%esi
    9b87:	48 89 c7             	mov    %rax,%rdi
    9b8a:	e8 19 ed ff ff       	callq  88a8 <safe_sub_func_int64_t_s_s>
    9b8f:	89 05 cf a4 00 00    	mov    %eax,0xa4cf(%rip)        # 14064 <g_42>
    9b95:	8b 05 c9 a4 00 00    	mov    0xa4c9(%rip),%eax        # 14064 <g_42>
    9b9b:	83 f8 f0             	cmp    $0xfffffff0,%eax
    9b9e:	0f 8c f0 fe ff ff    	jl     9a94 <func_2+0x1f1>
    9ba4:	0f be 9d e4 f4 ff ff 	movsbl -0xb1c(%rbp),%ebx
    9bab:	8b 05 b7 a4 00 00    	mov    0xa4b7(%rip),%eax        # 14068 <g_47>
    9bb1:	85 c0                	test   %eax,%eax
    9bb3:	0f 84 94 00 00 00    	je     9c4d <func_2+0x3aa>
    9bb9:	44 8b a5 34 f7 ff ff 	mov    -0x8cc(%rbp),%r12d
    9bc0:	48 8b 05 99 c8 00 00 	mov    0xc899(%rip),%rax        # 16460 <g_1172>
    9bc7:	48 8b 00             	mov    (%rax),%rax
    9bca:	0f b6 00             	movzbl (%rax),%eax
    9bcd:	0f b6 d0             	movzbl %al,%edx
    9bd0:	8b 85 f0 f4 ff ff    	mov    -0xb10(%rbp),%eax
    9bd6:	0d a8 17 77 d8       	or     $0xd87717a8,%eax
    9bdb:	89 85 f0 f4 ff ff    	mov    %eax,-0xb10(%rbp)
    9be1:	48 8b 85 d8 f4 ff ff 	mov    -0xb28(%rbp),%rax
    9be8:	0f b6 c0             	movzbl %al,%eax
    9beb:	89 d6                	mov    %edx,%esi
    9bed:	89 c7                	mov    %eax,%edi
    9bef:	e8 ba ef ff ff       	callq  8bae <safe_mod_func_uint8_t_u_u>
    9bf4:	48 83 bd a0 f5 ff ff 	cmpq   $0x0,-0xa60(%rbp)
    9bfb:	00 
    9bfc:	0f 95 c0             	setne  %al
    9bff:	44 0f b6 e8          	movzbl %al,%r13d
    9c03:	48 8b 85 d8 f4 ff ff 	mov    -0xb28(%rbp),%rax
    9c0a:	98                   	cwtl   
    9c0b:	89 c7                	mov    %eax,%edi
    9c0d:	e8 04 27 00 00       	callq  c316 <func_69>
    9c12:	48 8b 85 50 f5 ff ff 	mov    -0xab0(%rbp),%rax
    9c19:	8b 10                	mov    (%rax),%edx
    9c1b:	48 8b 85 50 f5 ff ff 	mov    -0xab0(%rbp),%rax
    9c22:	44 31 ea             	xor    %r13d,%edx
    9c25:	89 10                	mov    %edx,(%rax)
    9c27:	83 bd 24 f5 ff ff 00 	cmpl   $0x0,-0xadc(%rbp)
    9c2e:	74 07                	je     9c37 <func_2+0x394>
    9c30:	b8 01 00 00 00       	mov    $0x1,%eax
    9c35:	eb 05                	jmp    9c3c <func_2+0x399>
    9c37:	b8 00 00 00 00       	mov    $0x0,%eax
    9c3c:	83 f0 01             	xor    $0x1,%eax
    9c3f:	44 09 e0             	or     %r12d,%eax
    9c42:	85 c0                	test   %eax,%eax
    9c44:	74 07                	je     9c4d <func_2+0x3aa>
    9c46:	ba 01 00 00 00       	mov    $0x1,%edx
    9c4b:	eb 05                	jmp    9c52 <func_2+0x3af>
    9c4d:	ba 00 00 00 00       	mov    $0x0,%edx
    9c52:	8b 05 cc a3 00 00    	mov    0xa3cc(%rip),%eax        # 14024 <g_13>
    9c58:	39 c2                	cmp    %eax,%edx
    9c5a:	0f 9c c0             	setl   %al
    9c5d:	0f b6 c0             	movzbl %al,%eax
    9c60:	48 39 85 d8 f4 ff ff 	cmp    %rax,-0xb28(%rbp)
    9c67:	0f 95 c0             	setne  %al
    9c6a:	0f b6 c0             	movzbl %al,%eax
    9c6d:	48 8b 95 d8 f4 ff ff 	mov    -0xb28(%rbp),%rdx
    9c74:	31 c2                	xor    %eax,%edx
    9c76:	48 8b 05 ab cb 00 00 	mov    0xcbab(%rip),%rax        # 16828 <g_1216>
    9c7d:	48 8b 00             	mov    (%rax),%rax
    9c80:	89 10                	mov    %edx,(%rax)
    9c82:	8b 00                	mov    (%rax),%eax
    9c84:	be fa ff ff ff       	mov    $0xfffffffa,%esi
    9c89:	89 c7                	mov    %eax,%edi
    9c8b:	e8 40 f2 ff ff       	callq  8ed0 <safe_sub_func_uint32_t_u_u>
    9c90:	89 c2                	mov    %eax,%edx
    9c92:	48 8b 85 d8 f4 ff ff 	mov    -0xb28(%rbp),%rax
    9c99:	09 d0                	or     %edx,%eax
    9c9b:	0f be c0             	movsbl %al,%eax
    9c9e:	89 de                	mov    %ebx,%esi
    9ca0:	89 c7                	mov    %eax,%edi
    9ca2:	e8 ad 18 00 00       	callq  b554 <func_64>
    9ca7:	0f b7 85 e6 f4 ff ff 	movzwl -0xb1a(%rbp),%eax
    9cae:	66 85 c0             	test   %ax,%ax
    9cb1:	0f 84 28 02 00 00    	je     9edf <func_2+0x63c>
    9cb7:	c6 85 e5 f4 ff ff 4b 	movb   $0x4b,-0xb1b(%rbp)
    9cbe:	48 8d 05 3b c9 00 00 	lea    0xc93b(%rip),%rax        # 16600 <g_1196+0x160>
    9cc5:	48 89 85 58 f5 ff ff 	mov    %rax,-0xaa8(%rbp)
    9ccc:	48 8d 85 58 f5 ff ff 	lea    -0xaa8(%rbp),%rax
    9cd3:	48 89 85 48 f6 ff ff 	mov    %rax,-0x9b8(%rbp)
    9cda:	48 b8 85 84 49 d5 ff 	movabs $0xc3ca2affd5498485,%rax
    9ce1:	2a ca c3 
    9ce4:	48 89 85 50 f6 ff ff 	mov    %rax,-0x9b0(%rbp)
    9ceb:	48 8d 05 66 c7 00 00 	lea    0xc766(%rip),%rax        # 16458 <g_1173>
    9cf2:	48 89 85 58 f6 ff ff 	mov    %rax,-0x9a8(%rbp)
    9cf9:	c7 85 38 f5 ff ff 00 	movl   $0x0,-0xac8(%rbp)
    9d00:	00 00 00 
    9d03:	eb 1a                	jmp    9d1f <func_2+0x47c>
    9d05:	8b 85 38 f5 ff ff    	mov    -0xac8(%rbp),%eax
    9d0b:	48 98                	cltq   
    9d0d:	c7 84 85 80 fc ff ff 	movl   $0xffffffff,-0x380(%rbp,%rax,4)
    9d14:	ff ff ff ff 
    9d18:	83 85 38 f5 ff ff 01 	addl   $0x1,-0xac8(%rbp)
    9d1f:	83 bd 38 f5 ff ff 01 	cmpl   $0x1,-0xac8(%rbp)
    9d26:	7e dd                	jle    9d05 <func_2+0x462>
    9d28:	48 8b 85 d0 f4 ff ff 	mov    -0xb30(%rbp),%rax
    9d2f:	c7 00 72 e6 b0 a9    	movl   $0xa9b0e672,(%rax)
    9d35:	44 0f be ad e5 f4 ff 	movsbl -0xb1b(%rbp),%r13d
    9d3c:	ff 
    9d3d:	48 8b 85 d8 f4 ff ff 	mov    -0xb28(%rbp),%rax
    9d44:	0f be d8             	movsbl %al,%ebx
    9d47:	80 bd e5 f4 ff ff 00 	cmpb   $0x0,-0xb1b(%rbp)
    9d4e:	0f 84 e8 00 00 00    	je     9e3c <func_2+0x599>
    9d54:	44 0f be a5 e5 f4 ff 	movsbl -0xb1b(%rbp),%r12d
    9d5b:	ff 
    9d5c:	48 8b 05 e5 d1 00 00 	mov    0xd1e5(%rip),%rax        # 16f48 <g_1713>
    9d63:	0f b7 00             	movzwl (%rax),%eax
    9d66:	44 0f bf f0          	movswl %ax,%r14d
    9d6a:	48 8b 8d c0 f7 ff ff 	mov    -0x840(%rbp),%rcx
    9d71:	48 8b 95 c0 f7 ff ff 	mov    -0x840(%rbp),%rdx
    9d78:	48 8b 85 48 f6 ff ff 	mov    -0x9b8(%rbp),%rax
    9d7f:	48 89 10             	mov    %rdx,(%rax)
    9d82:	48 8b 85 48 f6 ff ff 	mov    -0x9b8(%rbp),%rax
    9d89:	48 8b 00             	mov    (%rax),%rax
    9d8c:	48 39 c1             	cmp    %rax,%rcx
    9d8f:	0f 94 c0             	sete   %al
    9d92:	0f b6 d0             	movzbl %al,%edx
    9d95:	48 8b 05 bc ca 00 00 	mov    0xcabc(%rip),%rax        # 16858 <g_1226>
    9d9c:	8b 8d 28 f5 ff ff    	mov    -0xad8(%rbp),%ecx
    9da2:	88 08                	mov    %cl,(%rax)
    9da4:	0f b6 00             	movzbl (%rax),%eax
    9da7:	0f be c0             	movsbl %al,%eax
    9daa:	89 d6                	mov    %edx,%esi
    9dac:	89 c7                	mov    %eax,%edi
    9dae:	e8 5f e4 ff ff       	callq  8212 <safe_mul_func_int8_t_s_s>
    9db3:	0f be d0             	movsbl %al,%edx
    9db6:	48 8b 05 9b c6 00 00 	mov    0xc69b(%rip),%rax        # 16458 <g_1173>
    9dbd:	0f b6 08             	movzbl (%rax),%ecx
    9dc0:	83 e9 01             	sub    $0x1,%ecx
    9dc3:	88 08                	mov    %cl,(%rax)
    9dc5:	48 8b 05 ac ca 00 00 	mov    0xcaac(%rip),%rax        # 16878 <g_1393>
    9dcc:	48 c7 00 00 00 00 00 	movq   $0x0,(%rax)
    9dd3:	48 8b 05 2e c6 00 00 	mov    0xc62e(%rip),%rax        # 16408 <g_1047>
    9dda:	48 8b 00             	mov    (%rax),%rax
    9ddd:	48 85 c0             	test   %rax,%rax
    9de0:	0f 94 c0             	sete   %al
    9de3:	0f b6 c0             	movzbl %al,%eax
    9de6:	89 d6                	mov    %edx,%esi
    9de8:	89 c7                	mov    %eax,%edi
    9dea:	e8 10 e9 ff ff       	callq  86ff <safe_div_func_int32_t_s_s>
    9def:	48 98                	cltq   
    9df1:	48 c7 c6 fc ff ff ff 	mov    $0xfffffffffffffffc,%rsi
    9df8:	48 89 c7             	mov    %rax,%rdi
    9dfb:	e8 2e f2 ff ff       	callq  902e <safe_add_func_uint64_t_u_u>
    9e00:	48 89 c2             	mov    %rax,%rdx
    9e03:	48 8b 05 46 ca 00 00 	mov    0xca46(%rip),%rax        # 16850 <g_1221>
    9e0a:	48 8b 00             	mov    (%rax),%rax
    9e0d:	48 8b 00             	mov    (%rax),%rax
    9e10:	48 8b 00             	mov    (%rax),%rax
    9e13:	48 8b 00             	mov    (%rax),%rax
    9e16:	89 10                	mov    %edx,(%rax)
    9e18:	8b 00                	mov    (%rax),%eax
    9e1a:	85 c0                	test   %eax,%eax
    9e1c:	0f 94 c0             	sete   %al
    9e1f:	0f b6 c0             	movzbl %al,%eax
    9e22:	41 39 c6             	cmp    %eax,%r14d
    9e25:	0f 95 c0             	setne  %al
    9e28:	0f b6 c0             	movzbl %al,%eax
    9e2b:	44 89 e6             	mov    %r12d,%esi
    9e2e:	89 c7                	mov    %eax,%edi
    9e30:	e8 58 ee ff ff       	callq  8c8d <safe_rshift_func_uint8_t_u_s>
    9e35:	b8 01 00 00 00       	mov    $0x1,%eax
    9e3a:	eb 05                	jmp    9e41 <func_2+0x59e>
    9e3c:	b8 00 00 00 00       	mov    $0x0,%eax
    9e41:	48 98                	cltq   
    9e43:	48 39 85 50 f6 ff ff 	cmp    %rax,-0x9b0(%rbp)
    9e4a:	0f 94 c0             	sete   %al
    9e4d:	0f b6 c0             	movzbl %al,%eax
    9e50:	be ab ff ff ff       	mov    $0xffffffab,%esi
    9e55:	89 c7                	mov    %eax,%edi
    9e57:	e8 96 e3 ff ff       	callq  81f2 <safe_sub_func_int8_t_s_s>
    9e5c:	38 85 e5 f4 ff ff    	cmp    %al,-0xb1b(%rbp)
    9e62:	48 83 bd 58 f6 ff ff 	cmpq   $0x0,-0x9a8(%rbp)
    9e69:	00 
    9e6a:	0f 95 c2             	setne  %dl
    9e6d:	48 8b 05 d4 d0 00 00 	mov    0xd0d4(%rip),%rax        # 16f48 <g_1713>
    9e74:	0f b6 d2             	movzbl %dl,%edx
    9e77:	66 89 10             	mov    %dx,(%rax)
    9e7a:	0f b7 00             	movzwl (%rax),%eax
    9e7d:	98                   	cwtl   
    9e7e:	be aa a3 ff ff       	mov    $0xffffa3aa,%esi
    9e83:	89 c7                	mov    %eax,%edi
    9e85:	e8 29 e5 ff ff       	callq  83b3 <safe_add_func_int16_t_s_s>
    9e8a:	89 de                	mov    %ebx,%esi
    9e8c:	bf 01 00 00 00       	mov    $0x1,%edi
    9e91:	e8 5c e3 ff ff       	callq  81f2 <safe_sub_func_int8_t_s_s>
    9e96:	3c f8                	cmp    $0xf8,%al
    9e98:	0f 96 c0             	setbe  %al
    9e9b:	0f b6 c0             	movzbl %al,%eax
    9e9e:	41 39 c5             	cmp    %eax,%r13d
    9ea1:	0f 9f c0             	setg   %al
    9ea4:	0f b6 c0             	movzbl %al,%eax
    9ea7:	89 85 80 fc ff ff    	mov    %eax,-0x380(%rbp)
    9ead:	48 8b 85 50 f5 ff ff 	mov    -0xab0(%rbp),%rax
    9eb4:	8b 95 80 fc ff ff    	mov    -0x380(%rbp),%edx
    9eba:	89 10                	mov    %edx,(%rax)
    9ebc:	48 8b 15 05 d1 00 00 	mov    0xd105(%rip),%rdx        # 16fc8 <g_2026>
    9ec3:	48 8b 05 6e c9 00 00 	mov    0xc96e(%rip),%rax        # 16838 <g_1223>
    9eca:	48 8b 00             	mov    (%rax),%rax
    9ecd:	48 8b 12             	mov    (%rdx),%rdx
    9ed0:	48 89 10             	mov    %rdx,(%rax)
    9ed3:	48 8b 85 d0 f4 ff ff 	mov    -0xb30(%rbp),%rax
    9eda:	e9 fc 13 00 00       	jmpq   b2db <func_2+0x1a38>
    9edf:	48 b8 e3 da de 85 49 	movabs $0xf0a5b24985dedae3,%rax
    9ee6:	b2 a5 f0 
    9ee9:	48 89 85 80 f5 ff ff 	mov    %rax,-0xa80(%rbp)
    9ef0:	48 8d 05 49 c5 00 00 	lea    0xc549(%rip),%rax        # 16440 <g_1100+0x20>
    9ef7:	48 89 85 88 f5 ff ff 	mov    %rax,-0xa78(%rbp)
    9efe:	48 8d 85 e6 f4 ff ff 	lea    -0xb1a(%rbp),%rax
    9f05:	48 89 85 90 f5 ff ff 	mov    %rax,-0xa70(%rbp)
    9f0c:	48 8d 05 8d c8 00 00 	lea    0xc88d(%rip),%rax        # 167a0 <g_1196+0x300>
    9f13:	48 89 85 98 f5 ff ff 	mov    %rax,-0xa68(%rbp)
    9f1a:	c6 85 e3 f4 ff ff 4f 	movb   $0x4f,-0xb1d(%rbp)
    9f21:	c7 85 00 f5 ff ff 35 	movl   $0x24b1735,-0xb00(%rbp)
    9f28:	17 4b 02 
    9f2b:	c7 85 04 f5 ff ff 09 	movl   $0x9,-0xafc(%rbp)
    9f32:	00 00 00 
    9f35:	c7 85 08 f5 ff ff 4a 	movl   $0xe796224a,-0xaf8(%rbp)
    9f3c:	22 96 e7 
    9f3f:	c7 85 0c f5 ff ff 00 	movl   $0x0,-0xaf4(%rbp)
    9f46:	00 00 00 
    9f49:	c7 85 10 f5 ff ff f6 	movl   $0xfffffff6,-0xaf0(%rbp)
    9f50:	ff ff ff 
    9f53:	c7 85 14 f5 ff ff 07 	movl   $0xd6bccd07,-0xaec(%rbp)
    9f5a:	cd bc d6 
    9f5d:	48 8d 05 e4 c8 00 00 	lea    0xc8e4(%rip),%rax        # 16848 <g_1222+0x8>
    9f64:	48 89 85 68 f5 ff ff 	mov    %rax,-0xa98(%rbp)
    9f6b:	c7 85 18 f5 ff ff 80 	movl   $0x17659b80,-0xae8(%rbp)
    9f72:	9b 65 17 
    9f75:	c7 85 1c f5 ff ff 1f 	movl   $0x67e8731f,-0xae4(%rbp)
    9f7c:	73 e8 67 
    9f7f:	c7 85 20 f5 ff ff 7a 	movl   $0xa190077a,-0xae0(%rbp)
    9f86:	07 90 a1 
    9f89:	48 8d 85 80 fc ff ff 	lea    -0x380(%rbp),%rax
    9f90:	48 8d 15 e9 60 00 00 	lea    0x60e9(%rip),%rdx        # 10080 <g_2180+0x14>
    9f97:	b9 69 00 00 00       	mov    $0x69,%ecx
    9f9c:	48 89 c7             	mov    %rax,%rdi
    9f9f:	48 89 d6             	mov    %rdx,%rsi
    9fa2:	f3 48 a5             	rep movsq %ds:(%rsi),%es:(%rdi)
    9fa5:	66 c7 85 ea f4 ff ff 	movw   $0xc652,-0xb16(%rbp)
    9fac:	52 c6 
    9fae:	48 c7 85 70 f5 ff ff 	movq   $0x1,-0xa90(%rbp)
    9fb5:	01 00 00 00 
    9fb9:	48 8b 85 d8 f4 ff ff 	mov    -0xb28(%rbp),%rax
    9fc0:	41 89 c6             	mov    %eax,%r14d
    9fc3:	48 8b 85 80 f5 ff ff 	mov    -0xa80(%rbp),%rax
    9fca:	41 89 c7             	mov    %eax,%r15d
    9fcd:	48 8b 9d d8 f4 ff ff 	mov    -0xb28(%rbp),%rbx
    9fd4:	48 8b 85 d8 f4 ff ff 	mov    -0xb28(%rbp),%rax
    9fdb:	44 0f b7 e0          	movzwl %ax,%r12d
    9fdf:	48 8b 85 50 f5 ff ff 	mov    -0xab0(%rbp),%rax
    9fe6:	8b 00                	mov    (%rax),%eax
    9fe8:	85 c0                	test   %eax,%eax
    9fea:	0f 85 e4 00 00 00    	jne    a0d4 <func_2+0x831>
    9ff0:	48 8b 85 80 f5 ff ff 	mov    -0xa80(%rbp),%rax
    9ff7:	89 85 cc f4 ff ff    	mov    %eax,-0xb34(%rbp)
    9ffd:	48 8b 85 50 f5 ff ff 	mov    -0xab0(%rbp),%rax
    a004:	8b 10                	mov    (%rax),%edx
    a006:	48 8b 05 73 c4 00 00 	mov    0xc473(%rip),%rax        # 16480 <g_1197>
    a00d:	0f b6 08             	movzbl (%rax),%ecx
    a010:	48 8b 05 69 c4 00 00 	mov    0xc469(%rip),%rax        # 16480 <g_1197>
    a017:	83 f1 01             	xor    $0x1,%ecx
    a01a:	88 08                	mov    %cl,(%rax)
    a01c:	0f b6 00             	movzbl (%rax),%eax
    a01f:	0f be c0             	movsbl %al,%eax
    a022:	89 d6                	mov    %edx,%esi
    a024:	89 c7                	mov    %eax,%edi
    a026:	e8 0a e3 ff ff       	callq  8335 <safe_rshift_func_int8_t_s_s>
    a02b:	44 0f be e8          	movsbl %al,%r13d
    a02f:	48 8b 15 f2 c2 00 00 	mov    0xc2f2(%rip),%rdx        # 16328 <g_448>
    a036:	48 8b 05 23 c4 00 00 	mov    0xc423(%rip),%rax        # 16460 <g_1172>
    a03d:	48 8b 00             	mov    (%rax),%rax
    a040:	0f b6 12             	movzbl (%rdx),%edx
    a043:	88 10                	mov    %dl,(%rax)
    a045:	0f b6 00             	movzbl (%rax),%eax
    a048:	0f b6 c0             	movzbl %al,%eax
    a04b:	89 c6                	mov    %eax,%esi
    a04d:	bf 00 00 00 00       	mov    $0x0,%edi
    a052:	e8 97 e2 ff ff       	callq  82ee <safe_lshift_func_int8_t_s_u>
    a057:	0f be c0             	movsbl %al,%eax
    a05a:	44 89 ee             	mov    %r13d,%esi
    a05d:	89 c7                	mov    %eax,%edi
    a05f:	e8 06 e2 ff ff       	callq  826a <safe_div_func_int8_t_s_s>
    a064:	66 98                	cbtw   
    a066:	0f b7 c0             	movzwl %ax,%eax
    a069:	be ff ff 00 00       	mov    $0xffff,%esi
    a06e:	89 c7                	mov    %eax,%edi
    a070:	e8 19 ed ff ff       	callq  8d8e <safe_div_func_uint16_t_u_u>
    a075:	0f b7 c0             	movzwl %ax,%eax
    a078:	89 85 f0 f4 ff ff    	mov    %eax,-0xb10(%rbp)
    a07e:	8b 85 f0 f4 ff ff    	mov    -0xb10(%rbp),%eax
    a084:	85 c0                	test   %eax,%eax
    a086:	0f 9e c0             	setle  %al
    a089:	0f b6 c0             	movzbl %al,%eax
    a08c:	8b b5 cc f4 ff ff    	mov    -0xb34(%rbp),%esi
    a092:	89 c7                	mov    %eax,%edi
    a094:	e8 f4 eb ff ff       	callq  8c8d <safe_rshift_func_uint8_t_u_s>
    a099:	0f b6 c0             	movzbl %al,%eax
    a09c:	be 0d 00 00 00       	mov    $0xd,%esi
    a0a1:	89 c7                	mov    %eax,%edi
    a0a3:	e8 16 ed ff ff       	callq  8dbe <safe_lshift_func_uint16_t_u_s>
    a0a8:	0f b7 d0             	movzwl %ax,%edx
    a0ab:	48 8b 85 50 f5 ff ff 	mov    -0xab0(%rbp),%rax
    a0b2:	8b 00                	mov    (%rax),%eax
    a0b4:	39 c2                	cmp    %eax,%edx
    a0b6:	0f 9c c2             	setl   %dl
    a0b9:	48 8b 85 48 f5 ff ff 	mov    -0xab8(%rbp),%rax
    a0c0:	0f b6 d2             	movzbl %dl,%edx
    a0c3:	48 89 10             	mov    %rdx,(%rax)
    a0c6:	48 8b 00             	mov    (%rax),%rax
    a0c9:	48 83 c8 f7          	or     $0xfffffffffffffff7,%rax
    a0cd:	48 39 85 d8 f4 ff ff 	cmp    %rax,-0xb28(%rbp)
    a0d4:	48 8b 85 88 f5 ff ff 	mov    -0xa78(%rbp),%rax
    a0db:	48 89 85 78 f5 ff ff 	mov    %rax,-0xa88(%rbp)
    a0e2:	48 8b 85 90 f5 ff ff 	mov    -0xa70(%rbp),%rax
    a0e9:	66 c7 00 07 00       	movw   $0x7,(%rax)
    a0ee:	48 8b 85 90 f5 ff ff 	mov    -0xa70(%rbp),%rax
    a0f5:	0f b7 00             	movzwl (%rax),%eax
    a0f8:	0f b7 c0             	movzwl %ax,%eax
    a0fb:	44 89 e6             	mov    %r12d,%esi
    a0fe:	89 c7                	mov    %eax,%edi
    a100:	e8 1a ec ff ff       	callq  8d1f <safe_sub_func_uint16_t_u_u>
    a105:	48 89 de             	mov    %rbx,%rsi
    a108:	48 bf cf b8 de df 96 	movabs $0xd9f06096dfdeb8cf,%rdi
    a10f:	60 f0 d9 
    a112:	e8 69 ef ff ff       	callq  9080 <safe_mod_func_uint64_t_u_u>
    a117:	8b 05 cb a6 00 00    	mov    0xa6cb(%rip),%eax        # 147e8 <g_2248>
    a11d:	85 c0                	test   %eax,%eax
    a11f:	75 07                	jne    a128 <func_2+0x885>
    a121:	b8 01 00 00 00       	mov    $0x1,%eax
    a126:	eb 05                	jmp    a12d <func_2+0x88a>
    a128:	b8 00 00 00 00       	mov    $0x0,%eax
    a12d:	0f b7 c0             	movzwl %ax,%eax
    a130:	44 89 fe             	mov    %r15d,%esi
    a133:	89 c7                	mov    %eax,%edi
    a135:	e8 cc ec ff ff       	callq  8e06 <safe_lshift_func_uint16_t_u_u>
    a13a:	0f b6 c0             	movzbl %al,%eax
    a13d:	be 01 00 00 00       	mov    $0x1,%esi
    a142:	89 c7                	mov    %eax,%edi
    a144:	e8 4a ea ff ff       	callq  8b93 <safe_mul_func_uint8_t_u_u>
    a149:	0f b6 d0             	movzbl %al,%edx
    a14c:	48 8b 05 65 c2 00 00 	mov    0xc265(%rip),%rax        # 163b8 <g_1042>
    a153:	48 8b 00             	mov    (%rax),%rax
    a156:	48 39 c2             	cmp    %rax,%rdx
    a159:	0f 97 c0             	seta   %al
    a15c:	0f b6 c0             	movzbl %al,%eax
    a15f:	48 39 85 80 f5 ff ff 	cmp    %rax,-0xa80(%rbp)
    a166:	0f 94 c0             	sete   %al
    a169:	0f b6 c0             	movzbl %al,%eax
    a16c:	48 8b 1d bd c6 00 00 	mov    0xc6bd(%rip),%rbx        # 16830 <g_1224>
    a173:	44 89 f6             	mov    %r14d,%esi
    a176:	89 c7                	mov    %eax,%edi
    a178:	e8 bb 13 00 00       	callq  b538 <func_8>
    a17d:	48 89 03             	mov    %rax,(%rbx)
    a180:	48 8d 05 09 c4 00 00 	lea    0xc409(%rip),%rax        # 16590 <g_1196+0xf0>
    a187:	48 39 85 98 f5 ff ff 	cmp    %rax,-0xa68(%rbp)
    a18e:	0f 95 c0             	setne  %al
    a191:	0f b6 c0             	movzbl %al,%eax
    a194:	be 02 00 00 00       	mov    $0x2,%esi
    a199:	89 c7                	mov    %eax,%edi
    a19b:	e8 da ec ff ff       	callq  8e7a <safe_rshift_func_uint16_t_u_u>
    a1a0:	48 8b 85 d8 f4 ff ff 	mov    -0xb28(%rbp),%rax
    a1a7:	89 c3                	mov    %eax,%ebx
    a1a9:	48 8b 85 d8 f4 ff ff 	mov    -0xb28(%rbp),%rax
    a1b0:	0f b7 c0             	movzwl %ax,%eax
    a1b3:	be ff ff 00 00       	mov    $0xffff,%esi
    a1b8:	89 c7                	mov    %eax,%edi
    a1ba:	e8 47 ec ff ff       	callq  8e06 <safe_lshift_func_uint16_t_u_u>
    a1bf:	b9 01 00 00 00       	mov    $0x1,%ecx
    a1c4:	48 8b 05 95 c2 00 00 	mov    0xc295(%rip),%rax        # 16460 <g_1172>
    a1cb:	48 8b 00             	mov    (%rax),%rax
    a1ce:	0f b6 00             	movzbl (%rax),%eax
    a1d1:	89 c2                	mov    %eax,%edx
    a1d3:	89 c8                	mov    %ecx,%eax
    a1d5:	21 c2                	and    %eax,%edx
    a1d7:	48 8b 05 82 c2 00 00 	mov    0xc282(%rip),%rax        # 16460 <g_1172>
    a1de:	48 8b 00             	mov    (%rax),%rax
    a1e1:	88 10                	mov    %dl,(%rax)
    a1e3:	48 8b 85 80 f5 ff ff 	mov    -0xa80(%rbp),%rax
    a1ea:	83 f0 01             	xor    $0x1,%eax
    a1ed:	89 c2                	mov    %eax,%edx
    a1ef:	48 8b 85 d0 f4 ff ff 	mov    -0xb30(%rbp),%rax
    a1f6:	89 10                	mov    %edx,(%rax)
    a1f8:	b8 01 00 00 00       	mov    $0x1,%eax
    a1fd:	89 de                	mov    %ebx,%esi
    a1ff:	89 c7                	mov    %eax,%edi
    a201:	e8 c6 e4 ff ff       	callq  86cc <safe_mod_func_int32_t_s_s>
    a206:	48 98                	cltq   
    a208:	48 39 85 80 f5 ff ff 	cmp    %rax,-0xa80(%rbp)
    a20f:	0f 9e c0             	setle  %al
    a212:	0f b6 d0             	movzbl %al,%edx
    a215:	48 8b 85 50 f5 ff ff 	mov    -0xab0(%rbp),%rax
    a21c:	8b 00                	mov    (%rax),%eax
    a21e:	39 c2                	cmp    %eax,%edx
    a220:	0f 9d c0             	setge  %al
    a223:	0f b6 c0             	movzbl %al,%eax
    a226:	48 39 85 d8 f4 ff ff 	cmp    %rax,-0xb28(%rbp)
    a22d:	48 8b 05 7c cd 00 00 	mov    0xcd7c(%rip),%rax        # 16fb0 <g_1743>
    a234:	48 8b 00             	mov    (%rax),%rax
    a237:	0f b7 00             	movzwl (%rax),%eax
    a23a:	0f b7 c0             	movzwl %ax,%eax
    a23d:	be 03 00 00 00       	mov    $0x3,%esi
    a242:	89 c7                	mov    %eax,%edi
    a244:	e8 13 eb ff ff       	callq  8d5c <safe_mod_func_uint16_t_u_u>
    a249:	66 c7 85 e8 f4 ff ff 	movw   $0xffff,-0xb18(%rbp)
    a250:	ff ff 
    a252:	48 c7 85 60 f5 ff ff 	movq   $0x0,-0xaa0(%rbp)
    a259:	00 00 00 00 
    a25d:	48 c7 85 58 f5 ff ff 	movq   $0x0,-0xaa8(%rbp)
    a264:	00 00 00 00 
    a268:	48 8d 85 58 f5 ff ff 	lea    -0xaa8(%rbp),%rax
    a26f:	48 89 85 00 f7 ff ff 	mov    %rax,-0x900(%rbp)
    a276:	48 8d 85 58 f5 ff ff 	lea    -0xaa8(%rbp),%rax
    a27d:	48 89 85 08 f7 ff ff 	mov    %rax,-0x8f8(%rbp)
    a284:	48 8d 85 58 f5 ff ff 	lea    -0xaa8(%rbp),%rax
    a28b:	48 89 85 10 f7 ff ff 	mov    %rax,-0x8f0(%rbp)
    a292:	48 8d 85 58 f5 ff ff 	lea    -0xaa8(%rbp),%rax
    a299:	48 89 85 18 f7 ff ff 	mov    %rax,-0x8e8(%rbp)
    a2a0:	48 8d 85 58 f5 ff ff 	lea    -0xaa8(%rbp),%rax
    a2a7:	48 89 85 20 f7 ff ff 	mov    %rax,-0x8e0(%rbp)
    a2ae:	48 8d 85 58 f5 ff ff 	lea    -0xaa8(%rbp),%rax
    a2b5:	48 89 85 28 f7 ff ff 	mov    %rax,-0x8d8(%rbp)
    a2bc:	c7 85 fc f4 ff ff 03 	movl   $0x512ed403,-0xb04(%rbp)
    a2c3:	d4 2e 51 
    a2c6:	c7 85 20 f8 ff ff ef 	movl   $0x64ec4fef,-0x7e0(%rbp)
    a2cd:	4f ec 64 
    a2d0:	c7 85 24 f8 ff ff ef 	movl   $0x64ec4fef,-0x7dc(%rbp)
    a2d7:	4f ec 64 
    a2da:	c7 85 28 f8 ff ff ef 	movl   $0x64ec4fef,-0x7d8(%rbp)
    a2e1:	4f ec 64 
    a2e4:	c7 85 2c f8 ff ff ef 	movl   $0x64ec4fef,-0x7d4(%rbp)
    a2eb:	4f ec 64 
    a2ee:	c7 85 30 f8 ff ff ef 	movl   $0x64ec4fef,-0x7d0(%rbp)
    a2f5:	4f ec 64 
    a2f8:	c7 85 34 f8 ff ff c0 	movl   $0x290833c0,-0x7cc(%rbp)
    a2ff:	33 08 29 
    a302:	c7 85 38 f8 ff ff fd 	movl   $0xfffffffd,-0x7c8(%rbp)
    a309:	ff ff ff 
    a30c:	c7 85 3c f8 ff ff c0 	movl   $0x290833c0,-0x7c4(%rbp)
    a313:	33 08 29 
    a316:	c7 85 40 f8 ff ff fd 	movl   $0xfffffffd,-0x7c0(%rbp)
    a31d:	ff ff ff 
    a320:	c7 85 44 f8 ff ff c0 	movl   $0x290833c0,-0x7bc(%rbp)
    a327:	33 08 29 
    a32a:	c7 85 48 f8 ff ff ef 	movl   $0x64ec4fef,-0x7b8(%rbp)
    a331:	4f ec 64 
    a334:	c7 85 4c f8 ff ff ef 	movl   $0x64ec4fef,-0x7b4(%rbp)
    a33b:	4f ec 64 
    a33e:	c7 85 50 f8 ff ff ef 	movl   $0x64ec4fef,-0x7b0(%rbp)
    a345:	4f ec 64 
    a348:	c7 85 54 f8 ff ff ef 	movl   $0x64ec4fef,-0x7ac(%rbp)
    a34f:	4f ec 64 
    a352:	c7 85 58 f8 ff ff ef 	movl   $0x64ec4fef,-0x7a8(%rbp)
    a359:	4f ec 64 
    a35c:	c7 85 5c f8 ff ff c0 	movl   $0x290833c0,-0x7a4(%rbp)
    a363:	33 08 29 
    a366:	c7 85 60 f8 ff ff fd 	movl   $0xfffffffd,-0x7a0(%rbp)
    a36d:	ff ff ff 
    a370:	c7 85 64 f8 ff ff c0 	movl   $0x290833c0,-0x79c(%rbp)
    a377:	33 08 29 
    a37a:	c7 85 68 f8 ff ff fd 	movl   $0xfffffffd,-0x798(%rbp)
    a381:	ff ff ff 
    a384:	c7 85 6c f8 ff ff c0 	movl   $0x290833c0,-0x794(%rbp)
    a38b:	33 08 29 
    a38e:	c7 85 70 f8 ff ff ef 	movl   $0x64ec4fef,-0x790(%rbp)
    a395:	4f ec 64 
    a398:	c7 85 74 f8 ff ff ef 	movl   $0x64ec4fef,-0x78c(%rbp)
    a39f:	4f ec 64 
    a3a2:	c7 85 78 f8 ff ff ef 	movl   $0x64ec4fef,-0x788(%rbp)
    a3a9:	4f ec 64 
    a3ac:	c7 85 7c f8 ff ff ef 	movl   $0x64ec4fef,-0x784(%rbp)
    a3b3:	4f ec 64 
    a3b6:	c7 85 80 f8 ff ff ef 	movl   $0x64ec4fef,-0x780(%rbp)
    a3bd:	4f ec 64 
    a3c0:	c7 85 84 f8 ff ff c0 	movl   $0x290833c0,-0x77c(%rbp)
    a3c7:	33 08 29 
    a3ca:	c7 85 88 f8 ff ff fd 	movl   $0xfffffffd,-0x778(%rbp)
    a3d1:	ff ff ff 
    a3d4:	c7 85 8c f8 ff ff c0 	movl   $0x290833c0,-0x774(%rbp)
    a3db:	33 08 29 
    a3de:	c7 85 90 f8 ff ff fd 	movl   $0xfffffffd,-0x770(%rbp)
    a3e5:	ff ff ff 
    a3e8:	c7 85 94 f8 ff ff c0 	movl   $0x290833c0,-0x76c(%rbp)
    a3ef:	33 08 29 
    a3f2:	c7 85 98 f8 ff ff ef 	movl   $0x64ec4fef,-0x768(%rbp)
    a3f9:	4f ec 64 
    a3fc:	c7 85 9c f8 ff ff ef 	movl   $0x64ec4fef,-0x764(%rbp)
    a403:	4f ec 64 
    a406:	c7 85 a0 f8 ff ff ef 	movl   $0x64ec4fef,-0x760(%rbp)
    a40d:	4f ec 64 
    a410:	c7 85 a4 f8 ff ff ef 	movl   $0x64ec4fef,-0x75c(%rbp)
    a417:	4f ec 64 
    a41a:	c7 85 a8 f8 ff ff ef 	movl   $0x64ec4fef,-0x758(%rbp)
    a421:	4f ec 64 
    a424:	c7 85 ac f8 ff ff c0 	movl   $0x290833c0,-0x754(%rbp)
    a42b:	33 08 29 
    a42e:	c7 85 b0 f8 ff ff fd 	movl   $0xfffffffd,-0x750(%rbp)
    a435:	ff ff ff 
    a438:	c7 85 b4 f8 ff ff c0 	movl   $0x290833c0,-0x74c(%rbp)
    a43f:	33 08 29 
    a442:	c7 85 b8 f8 ff ff fd 	movl   $0xfffffffd,-0x748(%rbp)
    a449:	ff ff ff 
    a44c:	c7 85 bc f8 ff ff c0 	movl   $0x290833c0,-0x744(%rbp)
    a453:	33 08 29 
    a456:	48 8d 05 d7 a2 00 00 	lea    0xa2d7(%rip),%rax        # 14734 <g_558+0x14>
    a45d:	48 89 85 c0 f5 ff ff 	mov    %rax,-0xa40(%rbp)
    a464:	48 c7 85 c8 f5 ff ff 	movq   $0x0,-0xa38(%rbp)
    a46b:	00 00 00 00 
    a46f:	c7 85 2c f5 ff ff 00 	movl   $0x0,-0xad4(%rbp)
    a476:	00 00 00 
    a479:	eb 22                	jmp    a49d <func_2+0xbfa>
    a47b:	8b 85 2c f5 ff ff    	mov    -0xad4(%rbp),%eax
    a481:	48 98                	cltq   
    a483:	48 8d 95 00 f7 ff ff 	lea    -0x900(%rbp),%rdx
    a48a:	48 83 c2 18          	add    $0x18,%rdx
    a48e:	48 89 94 c5 c0 f6 ff 	mov    %rdx,-0x940(%rbp,%rax,8)
    a495:	ff 
    a496:	83 85 2c f5 ff ff 01 	addl   $0x1,-0xad4(%rbp)
    a49d:	83 bd 2c f5 ff ff 02 	cmpl   $0x2,-0xad4(%rbp)
    a4a4:	7e d5                	jle    a47b <func_2+0xbd8>
    a4a6:	c7 85 2c f5 ff ff 00 	movl   $0x0,-0xad4(%rbp)
    a4ad:	00 00 00 
    a4b0:	eb 1a                	jmp    a4cc <func_2+0xc29>
    a4b2:	8b 85 2c f5 ff ff    	mov    -0xad4(%rbp),%eax
    a4b8:	48 98                	cltq   
    a4ba:	c7 84 85 b4 f6 ff ff 	movl   $0xec160668,-0x94c(%rbp,%rax,4)
    a4c1:	68 06 16 ec 
    a4c5:	83 85 2c f5 ff ff 01 	addl   $0x1,-0xad4(%rbp)
    a4cc:	83 bd 2c f5 ff ff 02 	cmpl   $0x2,-0xad4(%rbp)
    a4d3:	7e dd                	jle    a4b2 <func_2+0xc0f>
    a4d5:	c7 85 2c f5 ff ff 00 	movl   $0x0,-0xad4(%rbp)
    a4dc:	00 00 00 
    a4df:	eb 1a                	jmp    a4fb <func_2+0xc58>
    a4e1:	8b 85 2c f5 ff ff    	mov    -0xad4(%rbp),%eax
    a4e7:	48 98                	cltq   
    a4e9:	c7 84 85 b0 f6 ff ff 	movl   $0xe84173bb,-0x950(%rbp,%rax,4)
    a4f0:	bb 73 41 e8 
    a4f4:	83 85 2c f5 ff ff 01 	addl   $0x1,-0xad4(%rbp)
    a4fb:	83 bd 2c f5 ff ff 00 	cmpl   $0x0,-0xad4(%rbp)
    a502:	7e dd                	jle    a4e1 <func_2+0xc3e>
    a504:	c7 85 28 f5 ff ff 00 	movl   $0x0,-0xad8(%rbp)
    a50b:	00 00 00 
    a50e:	e9 21 0c 00 00       	jmpq   b134 <func_2+0x1891>
    a513:	48 8d 85 e3 f4 ff ff 	lea    -0xb1d(%rbp),%rax
    a51a:	48 89 85 c0 f8 ff ff 	mov    %rax,-0x740(%rbp)
    a521:	48 8d 85 e3 f4 ff ff 	lea    -0xb1d(%rbp),%rax
    a528:	48 89 85 c8 f8 ff ff 	mov    %rax,-0x738(%rbp)
    a52f:	48 8d 85 e3 f4 ff ff 	lea    -0xb1d(%rbp),%rax
    a536:	48 89 85 d0 f8 ff ff 	mov    %rax,-0x730(%rbp)
    a53d:	48 c7 85 d8 f8 ff ff 	movq   $0x0,-0x728(%rbp)
    a544:	00 00 00 00 
    a548:	48 c7 85 e0 f8 ff ff 	movq   $0x0,-0x720(%rbp)
    a54f:	00 00 00 00 
    a553:	48 c7 85 e8 f8 ff ff 	movq   $0x0,-0x718(%rbp)
    a55a:	00 00 00 00 
    a55e:	48 8d 85 e3 f4 ff ff 	lea    -0xb1d(%rbp),%rax
    a565:	48 89 85 f0 f8 ff ff 	mov    %rax,-0x710(%rbp)
    a56c:	48 8d 85 e3 f4 ff ff 	lea    -0xb1d(%rbp),%rax
    a573:	48 89 85 f8 f8 ff ff 	mov    %rax,-0x708(%rbp)
    a57a:	48 8d 85 e3 f4 ff ff 	lea    -0xb1d(%rbp),%rax
    a581:	48 89 85 00 f9 ff ff 	mov    %rax,-0x700(%rbp)
    a588:	48 c7 85 08 f9 ff ff 	movq   $0x0,-0x6f8(%rbp)
    a58f:	00 00 00 00 
    a593:	48 c7 85 10 f9 ff ff 	movq   $0x0,-0x6f0(%rbp)
    a59a:	00 00 00 00 
    a59e:	48 c7 85 18 f9 ff ff 	movq   $0x0,-0x6e8(%rbp)
    a5a5:	00 00 00 00 
    a5a9:	48 8d 85 e3 f4 ff ff 	lea    -0xb1d(%rbp),%rax
    a5b0:	48 89 85 20 f9 ff ff 	mov    %rax,-0x6e0(%rbp)
    a5b7:	48 8d 85 e3 f4 ff ff 	lea    -0xb1d(%rbp),%rax
    a5be:	48 89 85 28 f9 ff ff 	mov    %rax,-0x6d8(%rbp)
    a5c5:	48 8d 85 e3 f4 ff ff 	lea    -0xb1d(%rbp),%rax
    a5cc:	48 89 85 30 f9 ff ff 	mov    %rax,-0x6d0(%rbp)
    a5d3:	48 c7 85 38 f9 ff ff 	movq   $0x0,-0x6c8(%rbp)
    a5da:	00 00 00 00 
    a5de:	48 c7 85 40 f9 ff ff 	movq   $0x0,-0x6c0(%rbp)
    a5e5:	00 00 00 00 
    a5e9:	48 c7 85 48 f9 ff ff 	movq   $0x0,-0x6b8(%rbp)
    a5f0:	00 00 00 00 
    a5f4:	48 8d 85 e3 f4 ff ff 	lea    -0xb1d(%rbp),%rax
    a5fb:	48 89 85 50 f9 ff ff 	mov    %rax,-0x6b0(%rbp)
    a602:	48 8d 85 e3 f4 ff ff 	lea    -0xb1d(%rbp),%rax
    a609:	48 89 85 58 f9 ff ff 	mov    %rax,-0x6a8(%rbp)
    a610:	48 8d 85 e3 f4 ff ff 	lea    -0xb1d(%rbp),%rax
    a617:	48 89 85 60 f9 ff ff 	mov    %rax,-0x6a0(%rbp)
    a61e:	c7 85 f4 f4 ff ff ff 	movl   $0xffffffff,-0xb0c(%rbp)
    a625:	ff ff ff 
    a628:	48 c7 85 d0 f5 ff ff 	movq   $0x0,-0xa30(%rbp)
    a62f:	00 00 00 00 
    a633:	66 c7 85 ec f4 ff ff 	movw   $0xfffc,-0xb14(%rbp)
    a63a:	fc ff 
    a63c:	66 c7 85 ee f4 ff ff 	movw   $0x8,-0xb12(%rbp)
    a643:	08 00 
    a645:	48 8d 05 34 bd 00 00 	lea    0xbd34(%rip),%rax        # 16380 <g_606>
    a64c:	48 89 85 d8 f5 ff ff 	mov    %rax,-0xa28(%rbp)
    a653:	c7 85 30 f5 ff ff 00 	movl   $0x0,-0xad0(%rbp)
    a65a:	00 00 00 
    a65d:	eb 1e                	jmp    a67d <func_2+0xdda>
    a65f:	8b 85 30 f5 ff ff    	mov    -0xad0(%rbp),%eax
    a665:	48 98                	cltq   
    a667:	48 8d 95 f4 f4 ff ff 	lea    -0xb0c(%rbp),%rdx
    a66e:	48 89 94 c5 e0 f6 ff 	mov    %rdx,-0x920(%rbp,%rax,8)
    a675:	ff 
    a676:	83 85 30 f5 ff ff 01 	addl   $0x1,-0xad0(%rbp)
    a67d:	83 bd 30 f5 ff ff 02 	cmpl   $0x2,-0xad0(%rbp)
    a684:	7e d9                	jle    a65f <func_2+0xdbc>
    a686:	c6 05 f3 d7 00 00 00 	movb   $0x0,0xd7f3(%rip)        # 17e80 <g_978>
    a68d:	e9 28 05 00 00       	jmpq   abba <func_2+0x1317>
    a692:	48 8d 05 87 c1 00 00 	lea    0xc187(%rip),%rax        # 16820 <g_1217>
    a699:	48 89 85 e0 f5 ff ff 	mov    %rax,-0xa20(%rbp)
    a6a0:	48 b8 4d 36 d6 87 87 	movabs $0x9a20b28787d6364d,%rax
    a6a7:	b2 20 9a 
    a6aa:	48 89 85 d0 f7 ff ff 	mov    %rax,-0x830(%rbp)
    a6b1:	48 89 85 d8 f7 ff ff 	mov    %rax,-0x828(%rbp)
    a6b8:	48 bb 96 a7 11 0e b4 	movabs $0x33a4d1b40e11a796,%rbx
    a6bf:	d1 a4 33 
    a6c2:	48 89 9d e0 f7 ff ff 	mov    %rbx,-0x820(%rbp)
    a6c9:	48 89 85 e8 f7 ff ff 	mov    %rax,-0x818(%rbp)
    a6d0:	48 89 85 f0 f7 ff ff 	mov    %rax,-0x810(%rbp)
    a6d7:	48 89 9d f8 f7 ff ff 	mov    %rbx,-0x808(%rbp)
    a6de:	48 89 85 00 f8 ff ff 	mov    %rax,-0x800(%rbp)
    a6e5:	48 89 85 08 f8 ff ff 	mov    %rax,-0x7f8(%rbp)
    a6ec:	48 89 9d 10 f8 ff ff 	mov    %rbx,-0x7f0(%rbp)
    a6f3:	c7 85 3c f5 ff ff 0c 	movl   $0x2d056b0c,-0xac4(%rbp)
    a6fa:	6b 05 2d 
    a6fd:	4c 0f bf a5 e8 f4 ff 	movswq -0xb18(%rbp),%r12
    a704:	ff 
    a705:	0f b6 85 e3 f4 ff ff 	movzbl -0xb1d(%rbp),%eax
    a70c:	44 0f b6 f0          	movzbl %al,%r14d
    a710:	48 8b 85 d8 f4 ff ff 	mov    -0xb28(%rbp),%rax
    a717:	44 0f bf e8          	movswl %ax,%r13d
    a71b:	48 83 bd d8 f4 ff ff 	cmpq   $0x1,-0xb28(%rbp)
    a722:	01 
    a723:	0f 9e c0             	setle  %al
    a726:	0f b6 d0             	movzbl %al,%edx
    a729:	0f bf 85 e8 f4 ff ff 	movswl -0xb18(%rbp),%eax
    a730:	48 8b 1d 11 c8 00 00 	mov    0xc811(%rip),%rbx        # 16f48 <g_1713>
    a737:	89 d6                	mov    %edx,%esi
    a739:	89 c7                	mov    %eax,%edi
    a73b:	e8 93 dc ff ff       	callq  83d3 <safe_sub_func_int16_t_s_s>
    a740:	66 89 03             	mov    %ax,(%rbx)
    a743:	0f b7 03             	movzwl (%rbx),%eax
    a746:	98                   	cwtl   
    a747:	44 89 ee             	mov    %r13d,%esi
    a74a:	89 c7                	mov    %eax,%edi
    a74c:	e8 82 dc ff ff       	callq  83d3 <safe_sub_func_int16_t_s_s>
    a751:	98                   	cwtl   
    a752:	44 21 f0             	and    %r14d,%eax
    a755:	48 98                	cltq   
    a757:	4c 89 e6             	mov    %r12,%rsi
    a75a:	48 89 c7             	mov    %rax,%rdi
    a75d:	e8 52 e2 ff ff       	callq  89b4 <safe_mod_func_int64_t_s_s>
    a762:	0f be c0             	movsbl %al,%eax
    a765:	be 06 00 00 00       	mov    $0x6,%esi
    a76a:	89 c7                	mov    %eax,%edi
    a76c:	e8 30 db ff ff       	callq  82a1 <safe_lshift_func_int8_t_s_s>
    a771:	48 8b 85 30 f9 ff ff 	mov    -0x6d0(%rbp),%rax
    a778:	48 39 85 60 f5 ff ff 	cmp    %rax,-0xaa0(%rbp)
    a77f:	48 8b 85 d8 f4 ff ff 	mov    -0xb28(%rbp),%rax
    a786:	0f be c0             	movsbl %al,%eax
    a789:	be 99 ff ff ff       	mov    $0xffffff99,%esi
    a78e:	89 c7                	mov    %eax,%edi
    a790:	e8 3f da ff ff       	callq  81d4 <safe_add_func_int8_t_s_s>
    a795:	0f be d0             	movsbl %al,%edx
    a798:	48 83 bd e0 f5 ff ff 	cmpq   $0x0,-0xa20(%rbp)
    a79f:	00 
    a7a0:	0f 95 c0             	setne  %al
    a7a3:	0f b6 c0             	movzbl %al,%eax
    a7a6:	89 d6                	mov    %edx,%esi
    a7a8:	89 c7                	mov    %eax,%edi
    a7aa:	e8 56 e4 ff ff       	callq  8c05 <safe_lshift_func_uint8_t_u_s>
    a7af:	84 c0                	test   %al,%al
    a7b1:	74 16                	je     a7c9 <func_2+0xf26>
    a7b3:	48 8b 85 d0 f4 ff ff 	mov    -0xb30(%rbp),%rax
    a7ba:	8b 00                	mov    (%rax),%eax
    a7bc:	85 c0                	test   %eax,%eax
    a7be:	0f 84 cf 01 00 00    	je     a993 <func_2+0x10f0>
    a7c4:	e9 00 04 00 00       	jmpq   abc9 <func_2+0x1326>
    a7c9:	48 8b 05 b0 bc 00 00 	mov    0xbcb0(%rip),%rax        # 16480 <g_1197>
    a7d0:	0f b6 00             	movzbl (%rax),%eax
    a7d3:	0f b6 d8             	movzbl %al,%ebx
    a7d6:	48 0f bf 85 e8 f4 ff 	movswq -0xb18(%rbp),%rax
    a7dd:	ff 
    a7de:	48 0b 85 d8 f4 ff ff 	or     -0xb28(%rbp),%rax
    a7e5:	48 85 c0             	test   %rax,%rax
    a7e8:	0f 85 51 01 00 00    	jne    a93f <func_2+0x109c>
    a7ee:	48 8b 05 63 c0 00 00 	mov    0xc063(%rip),%rax        # 16858 <g_1226>
    a7f5:	0f b6 00             	movzbl (%rax),%eax
    a7f8:	84 c0                	test   %al,%al
    a7fa:	0f 84 33 01 00 00    	je     a933 <func_2+0x1090>
    a800:	48 8b 05 51 c0 00 00 	mov    0xc051(%rip),%rax        # 16858 <g_1226>
    a807:	0f b6 00             	movzbl (%rax),%eax
    a80a:	44 0f b6 e0          	movzbl %al,%r12d
    a80e:	48 8b 85 50 f5 ff ff 	mov    -0xab0(%rbp),%rax
    a815:	8b 00                	mov    (%rax),%eax
    a817:	41 89 c6             	mov    %eax,%r14d
    a81a:	48 8b 05 07 c0 00 00 	mov    0xc007(%rip),%rax        # 16828 <g_1216>
    a821:	48 8b 00             	mov    (%rax),%rax
    a824:	44 8b 28             	mov    (%rax),%r13d
    a827:	48 8b 85 d0 f6 ff ff 	mov    -0x930(%rbp),%rax
    a82e:	48 85 c0             	test   %rax,%rax
    a831:	0f 95 c0             	setne  %al
    a834:	0f b6 c0             	movzbl %al,%eax
    a837:	89 c6                	mov    %eax,%esi
    a839:	bf fe ff ff ff       	mov    $0xfffffffe,%edi
    a83e:	e8 cf d9 ff ff       	callq  8212 <safe_mul_func_int8_t_s_s>
    a843:	0f be c0             	movsbl %al,%eax
    a846:	41 39 c5             	cmp    %eax,%r13d
    a849:	0f 94 c0             	sete   %al
    a84c:	0f b6 d0             	movzbl %al,%edx
    a84f:	48 8b 85 90 f5 ff ff 	mov    -0xa70(%rbp),%rax
    a856:	66 89 10             	mov    %dx,(%rax)
    a859:	48 8b 85 90 f5 ff ff 	mov    -0xa70(%rbp),%rax
    a860:	0f b7 00             	movzwl (%rax),%eax
    a863:	0f b7 c0             	movzwl %ax,%eax
    a866:	48 33 85 d8 f4 ff ff 	xor    -0xb28(%rbp),%rax
    a86d:	48 89 c2             	mov    %rax,%rdx
    a870:	b8 ff ff ff ff       	mov    $0xffffffff,%eax
    a875:	48 39 c2             	cmp    %rax,%rdx
    a878:	0f 97 c0             	seta   %al
    a87b:	0f b6 d0             	movzbl %al,%edx
    a87e:	0f b6 85 e3 f4 ff ff 	movzbl -0xb1d(%rbp),%eax
    a885:	0f b6 c0             	movzbl %al,%eax
    a888:	39 c2                	cmp    %eax,%edx
    a88a:	0f 95 c0             	setne  %al
    a88d:	0f b6 d0             	movzbl %al,%edx
    a890:	0f bf 85 e8 f4 ff ff 	movswl -0xb18(%rbp),%eax
    a897:	39 c2                	cmp    %eax,%edx
    a899:	0f 95 c2             	setne  %dl
    a89c:	48 8b 05 ad bb 00 00 	mov    0xbbad(%rip),%rax        # 16450 <g_1121>
    a8a3:	48 8b 00             	mov    (%rax),%rax
    a8a6:	0f b6 d2             	movzbl %dl,%edx
    a8a9:	89 10                	mov    %edx,(%rax)
    a8ab:	48 8b 85 e0 f5 ff ff 	mov    -0xa20(%rbp),%rax
    a8b2:	48 8b 00             	mov    (%rax),%rax
    a8b5:	c7 00 00 00 00 00    	movl   $0x0,(%rax)
    a8bb:	8b 10                	mov    (%rax),%edx
    a8bd:	8b 85 fc f4 ff ff    	mov    -0xb04(%rbp),%eax
    a8c3:	09 d0                	or     %edx,%eax
    a8c5:	89 85 fc f4 ff ff    	mov    %eax,-0xb04(%rbp)
    a8cb:	8b 85 fc f4 ff ff    	mov    -0xb04(%rbp),%eax
    a8d1:	83 f0 ed             	xor    $0xffffffed,%eax
    a8d4:	0f be c0             	movsbl %al,%eax
    a8d7:	44 89 f6             	mov    %r14d,%esi
    a8da:	89 c7                	mov    %eax,%edi
    a8dc:	e8 8b da ff ff       	callq  836c <safe_rshift_func_int8_t_s_u>
    a8e1:	0f b6 c0             	movzbl %al,%eax
    a8e4:	44 89 e6             	mov    %r12d,%esi
    a8e7:	89 c7                	mov    %eax,%edi
    a8e9:	e8 c0 e2 ff ff       	callq  8bae <safe_mod_func_uint8_t_u_u>
    a8ee:	0f b6 c0             	movzbl %al,%eax
    a8f1:	48 be f8 e5 47 de b2 	movabs $0x73b020b2de47e5f8,%rsi
    a8f8:	20 b0 73 
    a8fb:	48 89 c7             	mov    %rax,%rdi
    a8fe:	e8 f4 e0 ff ff       	callq  89f7 <safe_div_func_int64_t_s_s>
    a903:	98                   	cwtl   
    a904:	be ce 54 00 00       	mov    $0x54ce,%esi
    a909:	89 c7                	mov    %eax,%edi
    a90b:	e8 e5 da ff ff       	callq  83f5 <safe_mul_func_int16_t_s_s>
    a910:	0f be c0             	movsbl %al,%eax
    a913:	be 08 00 00 00       	mov    $0x8,%esi
    a918:	89 c7                	mov    %eax,%edi
    a91a:	e8 d3 d8 ff ff       	callq  81f2 <safe_sub_func_int8_t_s_s>
    a91f:	48 0f be c0          	movsbq %al,%rax
    a923:	48 39 85 d8 f4 ff ff 	cmp    %rax,-0xb28(%rbp)
    a92a:	7d 07                	jge    a933 <func_2+0x1090>
    a92c:	b8 01 00 00 00       	mov    $0x1,%eax
    a931:	eb 05                	jmp    a938 <func_2+0x1095>
    a933:	b8 00 00 00 00       	mov    $0x0,%eax
    a938:	3d 96 8e 00 00       	cmp    $0x8e96,%eax
    a93d:	7f 07                	jg     a946 <func_2+0x10a3>
    a93f:	ba 01 00 00 00       	mov    $0x1,%edx
    a944:	eb 05                	jmp    a94b <func_2+0x10a8>
    a946:	ba 00 00 00 00       	mov    $0x0,%edx
    a94b:	48 8b 05 06 bb 00 00 	mov    0xbb06(%rip),%rax        # 16458 <g_1173>
    a952:	88 10                	mov    %dl,(%rax)
    a954:	0f b6 00             	movzbl (%rax),%eax
    a957:	0f b6 c0             	movzbl %al,%eax
    a95a:	89 de                	mov    %ebx,%esi
    a95c:	89 c7                	mov    %eax,%edi
    a95e:	e8 15 e2 ff ff       	callq  8b78 <safe_sub_func_uint8_t_u_u>
    a963:	84 c0                	test   %al,%al
    a965:	74 07                	je     a96e <func_2+0x10cb>
    a967:	b9 01 00 00 00       	mov    $0x1,%ecx
    a96c:	eb 05                	jmp    a973 <func_2+0x10d0>
    a96e:	b9 00 00 00 00       	mov    $0x0,%ecx
    a973:	48 8b 05 a6 b7 00 00 	mov    0xb7a6(%rip),%rax        # 16120 <g_12>
    a97a:	8b 10                	mov    (%rax),%edx
    a97c:	48 8b 05 9d b7 00 00 	mov    0xb79d(%rip),%rax        # 16120 <g_12>
    a983:	09 ca                	or     %ecx,%edx
    a985:	89 10                	mov    %edx,(%rax)
    a987:	48 8b 85 d0 f4 ff ff 	mov    -0xb30(%rbp),%rax
    a98e:	e9 48 09 00 00       	jmpq   b2db <func_2+0x1a38>
    a993:	48 83 bd 80 f5 ff ff 	cmpq   $0x0,-0xa80(%rbp)
    a99a:	00 
    a99b:	0f 84 8e 01 00 00    	je     ab2f <func_2+0x128c>
    a9a1:	48 8d 85 f4 f4 ff ff 	lea    -0xb0c(%rbp),%rax
    a9a8:	48 89 85 e8 f5 ff ff 	mov    %rax,-0xa18(%rbp)
    a9af:	48 8d 05 ae 9d 00 00 	lea    0x9dae(%rip),%rax        # 14764 <g_1123>
    a9b6:	48 89 85 f0 f5 ff ff 	mov    %rax,-0xa10(%rbp)
    a9bd:	48 8d 05 a0 9d 00 00 	lea    0x9da0(%rip),%rax        # 14764 <g_1123>
    a9c4:	48 89 85 f8 f5 ff ff 	mov    %rax,-0xa08(%rbp)
    a9cb:	48 8d 05 92 9d 00 00 	lea    0x9d92(%rip),%rax        # 14764 <g_1123>
    a9d2:	48 89 85 00 f6 ff ff 	mov    %rax,-0xa00(%rbp)
    a9d9:	48 8d 85 f4 f4 ff ff 	lea    -0xb0c(%rbp),%rax
    a9e0:	48 89 85 08 f6 ff ff 	mov    %rax,-0x9f8(%rbp)
    a9e7:	48 c7 85 10 f6 ff ff 	movq   $0x0,-0x9f0(%rbp)
    a9ee:	00 00 00 00 
    a9f2:	48 8d 85 f4 f4 ff ff 	lea    -0xb0c(%rbp),%rax
    a9f9:	48 89 85 18 f6 ff ff 	mov    %rax,-0x9e8(%rbp)
    aa00:	48 8d 05 5d 96 00 00 	lea    0x965d(%rip),%rax        # 14064 <g_42>
    aa07:	48 89 85 20 f6 ff ff 	mov    %rax,-0x9e0(%rbp)
    aa0e:	48 8d 85 f0 f4 ff ff 	lea    -0xb10(%rbp),%rax
    aa15:	48 89 85 28 f6 ff ff 	mov    %rax,-0x9d8(%rbp)
    aa1c:	48 c7 85 30 f6 ff ff 	movq   $0x0,-0x9d0(%rbp)
    aa23:	00 00 00 00 
    aa27:	48 8d 05 36 9d 00 00 	lea    0x9d36(%rip),%rax        # 14764 <g_1123>
    aa2e:	48 89 85 70 f9 ff ff 	mov    %rax,-0x690(%rbp)
    aa35:	48 8d 05 28 9d 00 00 	lea    0x9d28(%rip),%rax        # 14764 <g_1123>
    aa3c:	48 89 85 78 f9 ff ff 	mov    %rax,-0x688(%rbp)
    aa43:	48 c7 85 80 f9 ff ff 	movq   $0x0,-0x680(%rbp)
    aa4a:	00 00 00 00 
    aa4e:	48 8d 05 0f 9d 00 00 	lea    0x9d0f(%rip),%rax        # 14764 <g_1123>
    aa55:	48 89 85 88 f9 ff ff 	mov    %rax,-0x678(%rbp)
    aa5c:	48 8d 05 01 9d 00 00 	lea    0x9d01(%rip),%rax        # 14764 <g_1123>
    aa63:	48 89 85 90 f9 ff ff 	mov    %rax,-0x670(%rbp)
    aa6a:	48 c7 85 98 f9 ff ff 	movq   $0x0,-0x668(%rbp)
    aa71:	00 00 00 00 
    aa75:	48 8d 05 e8 9c 00 00 	lea    0x9ce8(%rip),%rax        # 14764 <g_1123>
    aa7c:	48 89 85 a0 f9 ff ff 	mov    %rax,-0x660(%rbp)
    aa83:	48 8d 05 da 9c 00 00 	lea    0x9cda(%rip),%rax        # 14764 <g_1123>
    aa8a:	48 89 85 a8 f9 ff ff 	mov    %rax,-0x658(%rbp)
    aa91:	48 c7 85 b0 f9 ff ff 	movq   $0x0,-0x650(%rbp)
    aa98:	00 00 00 00 
    aa9c:	48 8d 05 c1 9c 00 00 	lea    0x9cc1(%rip),%rax        # 14764 <g_1123>
    aaa3:	48 89 85 b8 f9 ff ff 	mov    %rax,-0x648(%rbp)
    aaaa:	48 8d 05 b3 9c 00 00 	lea    0x9cb3(%rip),%rax        # 14764 <g_1123>
    aab1:	48 89 85 c0 f9 ff ff 	mov    %rax,-0x640(%rbp)
    aab8:	48 c7 85 c8 f9 ff ff 	movq   $0x0,-0x638(%rbp)
    aabf:	00 00 00 00 
    aac3:	48 8d 05 9a 9c 00 00 	lea    0x9c9a(%rip),%rax        # 14764 <g_1123>
    aaca:	48 89 85 d0 f9 ff ff 	mov    %rax,-0x630(%rbp)
    aad1:	48 8d 05 8c 9c 00 00 	lea    0x9c8c(%rip),%rax        # 14764 <g_1123>
    aad8:	48 89 85 d8 f9 ff ff 	mov    %rax,-0x628(%rbp)
    aadf:	48 c7 85 e0 f9 ff ff 	movq   $0x0,-0x620(%rbp)
    aae6:	00 00 00 00 
    aaea:	48 8d 05 73 9c 00 00 	lea    0x9c73(%rip),%rax        # 14764 <g_1123>
    aaf1:	48 89 85 e8 f9 ff ff 	mov    %rax,-0x618(%rbp)
    aaf8:	48 8d 05 65 9c 00 00 	lea    0x9c65(%rip),%rax        # 14764 <g_1123>
    aaff:	48 89 85 f0 f9 ff ff 	mov    %rax,-0x610(%rbp)
    ab06:	48 c7 85 f8 f9 ff ff 	movq   $0x0,-0x608(%rbp)
    ab0d:	00 00 00 00 
    ab11:	83 85 3c f5 ff ff 01 	addl   $0x1,-0xac4(%rbp)
    ab18:	48 8b 85 b0 f5 ff ff 	mov    -0xa50(%rbp),%rax
    ab1f:	48 89 85 d0 f5 ff ff 	mov    %rax,-0xa30(%rbp)
    ab26:	c6 05 24 d3 00 00 16 	movb   $0x16,0xd324(%rip)        # 17e51 <g_181>
    ab2d:	eb 62                	jmp    ab91 <func_2+0x12ee>
    ab2f:	48 8b 05 e2 bc 00 00 	mov    0xbce2(%rip),%rax        # 16818 <g_1202>
    ab36:	48 8b 00             	mov    (%rax),%rax
    ab39:	48 8b 00             	mov    (%rax),%rax
    ab3c:	48 8b 00             	mov    (%rax),%rax
    ab3f:	48 8b 00             	mov    (%rax),%rax
    ab42:	8b 95 b8 f6 ff ff    	mov    -0x948(%rbp),%edx
    ab48:	89 10                	mov    %edx,(%rax)
    ab4a:	48 8b 05 ff bc 00 00 	mov    0xbcff(%rip),%rax        # 16850 <g_1221>
    ab51:	48 8b 00             	mov    (%rax),%rax
    ab54:	48 8b 00             	mov    (%rax),%rax
    ab57:	48 8b 00             	mov    (%rax),%rax
    ab5a:	48 8b 00             	mov    (%rax),%rax
    ab5d:	e9 79 07 00 00       	jmpq   b2db <func_2+0x1a38>
    ab62:	48 8b 05 97 bc 00 00 	mov    0xbc97(%rip),%rax        # 16800 <g_1205>
    ab69:	48 8b 00             	mov    (%rax),%rax
    ab6c:	0f bf 95 e8 f4 ff ff 	movswl -0xb18(%rbp),%edx
    ab73:	89 10                	mov    %edx,(%rax)
    ab75:	0f b6 05 d5 d2 00 00 	movzbl 0xd2d5(%rip),%eax        # 17e51 <g_181>
    ab7c:	0f b6 c0             	movzbl %al,%eax
    ab7f:	be 09 00 00 00       	mov    $0x9,%esi
    ab84:	89 c7                	mov    %eax,%edi
    ab86:	e8 2d e3 ff ff       	callq  8eb8 <safe_add_func_uint32_t_u_u>
    ab8b:	88 05 c0 d2 00 00    	mov    %al,0xd2c0(%rip)        # 17e51 <g_181>
    ab91:	0f b6 05 b9 d2 00 00 	movzbl 0xd2b9(%rip),%eax        # 17e51 <g_181>
    ab98:	3c 29                	cmp    $0x29,%al
    ab9a:	77 c6                	ja     ab62 <func_2+0x12bf>
    ab9c:	0f b6 05 dd d2 00 00 	movzbl 0xd2dd(%rip),%eax        # 17e80 <g_978>
    aba3:	48 0f be c0          	movsbq %al,%rax
    aba7:	be 09 00 00 00       	mov    $0x9,%esi
    abac:	48 89 c7             	mov    %rax,%rdi
    abaf:	e8 8d dc ff ff       	callq  8841 <safe_add_func_int64_t_s_s>
    abb4:	88 05 c6 d2 00 00    	mov    %al,0xd2c6(%rip)        # 17e80 <g_978>
    abba:	0f b6 05 bf d2 00 00 	movzbl 0xd2bf(%rip),%eax        # 17e80 <g_978>
    abc1:	3c 1b                	cmp    $0x1b,%al
    abc3:	0f 8e c9 fa ff ff    	jle    a692 <func_2+0xdef>
    abc9:	0f b7 85 ee f4 ff ff 	movzwl -0xb12(%rbp),%eax
    abd0:	83 e8 01             	sub    $0x1,%eax
    abd3:	66 89 85 ee f4 ff ff 	mov    %ax,-0xb12(%rbp)
    abda:	bf ff ff ff ff       	mov    $0xffffffff,%edi
    abdf:	e8 c2 e2 ff ff       	callq  8ea6 <safe_unary_minus_func_uint32_t_u>
    abe4:	48 8b 95 50 f5 ff ff 	mov    -0xab0(%rbp),%rdx
    abeb:	8b 12                	mov    (%rdx),%edx
    abed:	21 d0                	and    %edx,%eax
    abef:	48 8b 95 50 f5 ff ff 	mov    -0xab0(%rbp),%rdx
    abf6:	89 02                	mov    %eax,(%rdx)
    abf8:	48 8b 05 51 b8 00 00 	mov    0xb851(%rip),%rax        # 16450 <g_1121>
    abff:	48 8b 00             	mov    (%rax),%rax
    ac02:	8b 12                	mov    (%rdx),%edx
    ac04:	89 10                	mov    %edx,(%rax)
    ac06:	8b 10                	mov    (%rax),%edx
    ac08:	48 8b 85 d0 f4 ff ff 	mov    -0xb30(%rbp),%rax
    ac0f:	8b 00                	mov    (%rax),%eax
    ac11:	21 c2                	and    %eax,%edx
    ac13:	48 8b 85 d0 f4 ff ff 	mov    -0xb30(%rbp),%rax
    ac1a:	89 10                	mov    %edx,(%rax)
    ac1c:	48 8b 85 88 f5 ff ff 	mov    -0xa78(%rbp),%rax
    ac23:	48 8b 00             	mov    (%rax),%rax
    ac26:	48 8b 10             	mov    (%rax),%rdx
    ac29:	8b 02                	mov    (%rdx),%eax
    ac2b:	8d 48 ff             	lea    -0x1(%rax),%ecx
    ac2e:	89 0a                	mov    %ecx,(%rdx)
    ac30:	89 85 fc f4 ff ff    	mov    %eax,-0xb04(%rbp)
    ac36:	48 8b 85 50 f5 ff ff 	mov    -0xab0(%rbp),%rax
    ac3d:	8b 00                	mov    (%rax),%eax
    ac3f:	48 63 d8             	movslq %eax,%rbx
    ac42:	48 8b 05 ff c2 00 00 	mov    0xc2ff(%rip),%rax        # 16f48 <g_1713>
    ac49:	0f b7 00             	movzwl (%rax),%eax
    ac4c:	44 0f bf e0          	movswl %ax,%r12d
    ac50:	48 8b 05 01 bc 00 00 	mov    0xbc01(%rip),%rax        # 16858 <g_1226>
    ac57:	0f b6 10             	movzbl (%rax),%edx
    ac5a:	8b 85 bc f8 ff ff    	mov    -0x744(%rbp),%eax
    ac60:	89 c1                	mov    %eax,%ecx
    ac62:	48 8b 05 ef bb 00 00 	mov    0xbbef(%rip),%rax        # 16858 <g_1226>
    ac69:	31 ca                	xor    %ecx,%edx
    ac6b:	88 10                	mov    %dl,(%rax)
    ac6d:	0f b6 00             	movzbl (%rax),%eax
    ac70:	0f be c0             	movsbl %al,%eax
    ac73:	be f6 ff ff ff       	mov    $0xfffffff6,%esi
    ac78:	89 c7                	mov    %eax,%edi
    ac7a:	e8 93 d5 ff ff       	callq  8212 <safe_mul_func_int8_t_s_s>
    ac7f:	84 c0                	test   %al,%al
    ac81:	74 11                	je     ac94 <func_2+0x13f1>
    ac83:	48 83 bd d8 f4 ff ff 	cmpq   $0x0,-0xb28(%rbp)
    ac8a:	00 
    ac8b:	74 07                	je     ac94 <func_2+0x13f1>
    ac8d:	b8 01 00 00 00       	mov    $0x1,%eax
    ac92:	eb 05                	jmp    ac99 <func_2+0x13f6>
    ac94:	b8 00 00 00 00       	mov    $0x0,%eax
    ac99:	98                   	cwtl   
    ac9a:	44 89 e6             	mov    %r12d,%esi
    ac9d:	89 c7                	mov    %eax,%edi
    ac9f:	e8 0f d7 ff ff       	callq  83b3 <safe_add_func_int16_t_s_s>
    aca4:	98                   	cwtl   
    aca5:	89 85 b4 f6 ff ff    	mov    %eax,-0x94c(%rbp)
    acab:	48 8b 85 90 f5 ff ff 	mov    -0xa70(%rbp),%rax
    acb2:	0f b7 00             	movzwl (%rax),%eax
    acb5:	83 c8 01             	or     $0x1,%eax
    acb8:	89 c2                	mov    %eax,%edx
    acba:	48 8b 85 90 f5 ff ff 	mov    -0xa70(%rbp),%rax
    acc1:	66 89 10             	mov    %dx,(%rax)
    acc4:	48 8b 85 90 f5 ff ff 	mov    -0xa70(%rbp),%rax
    accb:	0f b7 00             	movzwl (%rax),%eax
    acce:	0f bf d0             	movswl %ax,%edx
    acd1:	48 8b 85 50 f5 ff ff 	mov    -0xab0(%rbp),%rax
    acd8:	8b 00                	mov    (%rax),%eax
    acda:	98                   	cwtl   
    acdb:	89 d6                	mov    %edx,%esi
    acdd:	89 c7                	mov    %eax,%edi
    acdf:	e8 32 d7 ff ff       	callq  8416 <safe_mod_func_int16_t_s_s>
    ace4:	83 c8 01             	or     $0x1,%eax
    ace7:	48 0f bf c0          	movswq %ax,%rax
    aceb:	48 89 de             	mov    %rbx,%rsi
    acee:	48 89 c7             	mov    %rax,%rdi
    acf1:	e8 01 dd ff ff       	callq  89f7 <safe_div_func_int64_t_s_s>
    acf6:	48 83 bd d8 f5 ff ff 	cmpq   $0x0,-0xa28(%rbp)
    acfd:	00 
    acfe:	0f 95 c0             	setne  %al
    ad01:	0f b6 c0             	movzbl %al,%eax
    ad04:	be 01 00 00 00       	mov    $0x1,%esi
    ad09:	89 c7                	mov    %eax,%edi
    ad0b:	e8 f5 de ff ff       	callq  8c05 <safe_lshift_func_uint8_t_u_s>
    ad10:	89 c2                	mov    %eax,%edx
    ad12:	48 8b 05 3f b7 00 00 	mov    0xb73f(%rip),%rax        # 16458 <g_1173>
    ad19:	0f b6 08             	movzbl (%rax),%ecx
    ad1c:	48 8b 05 35 b7 00 00 	mov    0xb735(%rip),%rax        # 16458 <g_1173>
    ad23:	21 ca                	and    %ecx,%edx
    ad25:	88 10                	mov    %dl,(%rax)
    ad27:	0f b6 00             	movzbl (%rax),%eax
    ad2a:	3c 46                	cmp    $0x46,%al
    ad2c:	0f 97 c0             	seta   %al
    ad2f:	0f b6 d0             	movzbl %al,%edx
    ad32:	48 8b 85 d0 f4 ff ff 	mov    -0xb30(%rbp),%rax
    ad39:	8b 00                	mov    (%rax),%eax
    ad3b:	39 c2                	cmp    %eax,%edx
    ad3d:	0f 9c c0             	setl   %al
    ad40:	0f b6 d0             	movzbl %al,%edx
    ad43:	8b 85 b0 f6 ff ff    	mov    -0x950(%rbp),%eax
    ad49:	09 d0                	or     %edx,%eax
    ad4b:	89 85 b0 f6 ff ff    	mov    %eax,-0x950(%rbp)
    ad51:	8b 85 2c f8 ff ff    	mov    -0x7d4(%rbp),%eax
    ad57:	85 c0                	test   %eax,%eax
    ad59:	74 07                	je     ad62 <func_2+0x14bf>
    ad5b:	b8 01 00 00 00       	mov    $0x1,%eax
    ad60:	eb 05                	jmp    ad67 <func_2+0x14c4>
    ad62:	b8 00 00 00 00       	mov    $0x0,%eax
    ad67:	0f bf d0             	movswl %ax,%edx
    ad6a:	48 8b 85 d8 f4 ff ff 	mov    -0xb28(%rbp),%rax
    ad71:	98                   	cwtl   
    ad72:	89 d6                	mov    %edx,%esi
    ad74:	89 c7                	mov    %eax,%edi
    ad76:	e8 7a d6 ff ff       	callq  83f5 <safe_mul_func_int16_t_s_s>
    ad7b:	48 8b 85 d0 f4 ff ff 	mov    -0xb30(%rbp),%rax
    ad82:	8b 00                	mov    (%rax),%eax
    ad84:	83 f0 01             	xor    $0x1,%eax
    ad87:	48 98                	cltq   
    ad89:	48 ba 97 83 b7 ac 18 	movabs $0xd5174218acb78397,%rdx
    ad90:	42 17 d5 
    ad93:	48 39 d0             	cmp    %rdx,%rax
    ad96:	74 0c                	je     ada4 <func_2+0x1501>
    ad98:	48 8b 85 d0 f4 ff ff 	mov    -0xb30(%rbp),%rax
    ad9f:	e9 37 05 00 00       	jmpq   b2db <func_2+0x1a38>
    ada4:	48 8d 85 70 f9 ff ff 	lea    -0x690(%rbp),%rax
    adab:	48 8d 15 2e 56 00 00 	lea    0x562e(%rip),%rdx        # 103e0 <g_2180+0x374>
    adb2:	b9 62 00 00 00       	mov    $0x62,%ecx
    adb7:	48 89 c7             	mov    %rax,%rdi
    adba:	48 89 d6             	mov    %rdx,%rsi
    adbd:	f3 48 a5             	rep movsq %ds:(%rsi),%es:(%rdi)
    adc0:	c7 85 f8 f4 ff ff 00 	movl   $0x0,-0xb08(%rbp)
    adc7:	00 00 00 
    adca:	48 c7 85 38 f6 ff ff 	movq   $0x0,-0x9c8(%rbp)
    add1:	00 00 00 00 
    add5:	48 8b 05 7c ba 00 00 	mov    0xba7c(%rip),%rax        # 16858 <g_1226>
    addc:	44 0f b6 28          	movzbl (%rax),%r13d
    ade0:	48 8b 85 d8 f4 ff ff 	mov    -0xb28(%rbp),%rax
    ade7:	89 85 cc f4 ff ff    	mov    %eax,-0xb34(%rbp)
    aded:	48 8b 05 54 c1 00 00 	mov    0xc154(%rip),%rax        # 16f48 <g_1713>
    adf4:	8b 95 10 f5 ff ff    	mov    -0xaf0(%rbp),%edx
    adfa:	66 89 10             	mov    %dx,(%rax)
    adfd:	0f b7 00             	movzwl (%rax),%eax
    ae00:	98                   	cwtl   
    ae01:	89 c6                	mov    %eax,%esi
    ae03:	bf 04 00 00 00       	mov    $0x4,%edi
    ae08:	e8 a6 d5 ff ff       	callq  83b3 <safe_add_func_int16_t_s_s>
    ae0d:	66 85 c0             	test   %ax,%ax
    ae10:	74 11                	je     ae23 <func_2+0x1580>
    ae12:	48 83 bd d8 f4 ff ff 	cmpq   $0x0,-0xb28(%rbp)
    ae19:	00 
    ae1a:	74 07                	je     ae23 <func_2+0x1580>
    ae1c:	b8 01 00 00 00       	mov    $0x1,%eax
    ae21:	eb 05                	jmp    ae28 <func_2+0x1585>
    ae23:	b8 00 00 00 00       	mov    $0x0,%eax
    ae28:	48 63 d0             	movslq %eax,%rdx
    ae2b:	48 8b 85 40 fb ff ff 	mov    -0x4c0(%rbp),%rax
    ae32:	48 39 c2             	cmp    %rax,%rdx
    ae35:	0f 97 c0             	seta   %al
    ae38:	44 0f b6 f0          	movzbl %al,%r14d
    ae3c:	48 8b 85 70 fb ff ff 	mov    -0x490(%rbp),%rax
    ae43:	0f b6 d8             	movzbl %al,%ebx
    ae46:	48 8b 85 d8 f4 ff ff 	mov    -0xb28(%rbp),%rax
    ae4d:	25 81 80 00 00       	and    $0x8081,%eax
    ae52:	48 f7 d0             	not    %rax
    ae55:	49 89 c7             	mov    %rax,%r15
    ae58:	48 8b 05 b9 b9 00 00 	mov    0xb9b9(%rip),%rax        # 16818 <g_1202>
    ae5f:	48 8b 00             	mov    (%rax),%rax
    ae62:	48 8b 00             	mov    (%rax),%rax
    ae65:	48 8b 00             	mov    (%rax),%rax
    ae68:	48 8b 00             	mov    (%rax),%rax
    ae6b:	44 8b 20             	mov    (%rax),%r12d
    ae6e:	48 8b 85 50 f5 ff ff 	mov    -0xab0(%rbp),%rax
    ae75:	8b 00                	mov    (%rax),%eax
    ae77:	89 c6                	mov    %eax,%esi
    ae79:	48 8b 05 38 b5 00 00 	mov    0xb538(%rip),%rax        # 163b8 <g_1042>
    ae80:	48 8b 08             	mov    (%rax),%rcx
    ae83:	8b 85 b0 f6 ff ff    	mov    -0x950(%rbp),%eax
    ae89:	48 63 d0             	movslq %eax,%rdx
    ae8c:	48 8b 05 25 b5 00 00 	mov    0xb525(%rip),%rax        # 163b8 <g_1042>
    ae93:	48 21 ca             	and    %rcx,%rdx
    ae96:	48 89 10             	mov    %rdx,(%rax)
    ae99:	48 8b 00             	mov    (%rax),%rax
    ae9c:	66 0d ef 61          	or     $0x61ef,%ax
    aea0:	0f b7 c0             	movzwl %ax,%eax
    aea3:	89 c7                	mov    %eax,%edi
    aea5:	e8 5c df ff ff       	callq  8e06 <safe_lshift_func_uint16_t_u_u>
    aeaa:	66 35 9a 7e          	xor    $0x7e9a,%ax
    aeae:	0f b7 c0             	movzwl %ax,%eax
    aeb1:	44 89 e6             	mov    %r12d,%esi
    aeb4:	89 c7                	mov    %eax,%edi
    aeb6:	e8 44 d8 ff ff       	callq  86ff <safe_div_func_int32_t_s_s>
    aebb:	48 98                	cltq   
    aebd:	49 39 c7             	cmp    %rax,%r15
    aec0:	0f 95 c0             	setne  %al
    aec3:	0f b6 c0             	movzbl %al,%eax
    aec6:	89 de                	mov    %ebx,%esi
    aec8:	89 c7                	mov    %eax,%edi
    aeca:	e8 df dc ff ff       	callq  8bae <safe_mod_func_uint8_t_u_u>
    aecf:	0f b6 c0             	movzbl %al,%eax
    aed2:	48 39 85 d8 f4 ff ff 	cmp    %rax,-0xb28(%rbp)
    aed9:	0f 95 c0             	setne  %al
    aedc:	0f b6 d0             	movzbl %al,%edx
    aedf:	48 8b 85 50 f5 ff ff 	mov    -0xab0(%rbp),%rax
    aee6:	8b 00                	mov    (%rax),%eax
    aee8:	39 c2                	cmp    %eax,%edx
    aeea:	0f 95 c0             	setne  %al
    aeed:	0f b6 d0             	movzbl %al,%edx
    aef0:	48 8b 85 d0 f4 ff ff 	mov    -0xb30(%rbp),%rax
    aef7:	8b 00                	mov    (%rax),%eax
    aef9:	39 c2                	cmp    %eax,%edx
    aefb:	0f 9e c0             	setle  %al
    aefe:	0f b6 c0             	movzbl %al,%eax
    af01:	41 39 c6             	cmp    %eax,%r14d
    af04:	0f 9f c0             	setg   %al
    af07:	0f b6 c0             	movzbl %al,%eax
    af0a:	39 85 08 f5 ff ff    	cmp    %eax,-0xaf8(%rbp)
    af10:	0f 95 c0             	setne  %al
    af13:	89 c2                	mov    %eax,%edx
    af15:	48 8b 85 d8 f4 ff ff 	mov    -0xb28(%rbp),%rax
    af1c:	21 d0                	and    %edx,%eax
    af1e:	0f be c0             	movsbl %al,%eax
    af21:	8b b5 cc f4 ff ff    	mov    -0xb34(%rbp),%esi
    af27:	89 c7                	mov    %eax,%edi
    af29:	e8 3e d4 ff ff       	callq  836c <safe_rshift_func_int8_t_s_u>
    af2e:	0f b6 c0             	movzbl %al,%eax
    af31:	be 7e 00 00 00       	mov    $0x7e,%esi
    af36:	89 c7                	mov    %eax,%edi
    af38:	e8 3b dc ff ff       	callq  8b78 <safe_sub_func_uint8_t_u_u>
    af3d:	89 c2                	mov    %eax,%edx
    af3f:	48 8b 05 3a b5 00 00 	mov    0xb53a(%rip),%rax        # 16480 <g_1197>
    af46:	88 10                	mov    %dl,(%rax)
    af48:	0f b6 00             	movzbl (%rax),%eax
    af4b:	41 38 c5             	cmp    %al,%r13b
    af4e:	0f 95 c0             	setne  %al
    af51:	0f b6 d0             	movzbl %al,%edx
    af54:	48 8b 85 d0 f4 ff ff 	mov    -0xb30(%rbp),%rax
    af5b:	89 10                	mov    %edx,(%rax)
    af5d:	48 8b 85 d0 f4 ff ff 	mov    -0xb30(%rbp),%rax
    af64:	8b 10                	mov    (%rax),%edx
    af66:	8b 85 f8 f4 ff ff    	mov    -0xb08(%rbp),%eax
    af6c:	09 d0                	or     %edx,%eax
    af6e:	89 85 f8 f4 ff ff    	mov    %eax,-0xb08(%rbp)
    af74:	48 83 bd 38 f6 ff ff 	cmpq   $0x0,-0x9c8(%rbp)
    af7b:	00 
    af7c:	74 16                	je     af94 <func_2+0x16f1>
    af7e:	48 8b 05 c3 bf 00 00 	mov    0xbfc3(%rip),%rax        # 16f48 <g_1713>
    af85:	0f b7 00             	movzwl (%rax),%eax
    af88:	66 85 c0             	test   %ax,%ax
    af8b:	74 07                	je     af94 <func_2+0x16f1>
    af8d:	b8 01 00 00 00       	mov    $0x1,%eax
    af92:	eb 05                	jmp    af99 <func_2+0x16f6>
    af94:	b8 00 00 00 00       	mov    $0x0,%eax
    af99:	85 c0                	test   %eax,%eax
    af9b:	0f 85 62 01 00 00    	jne    b103 <func_2+0x1860>
    afa1:	48 8d 05 b8 b4 00 00 	lea    0xb4b8(%rip),%rax        # 16460 <g_1172>
    afa8:	48 89 85 40 f6 ff ff 	mov    %rax,-0x9c0(%rbp)
    afaf:	c7 85 40 f5 ff ff 7d 	movl   $0x7e5f227d,-0xac0(%rbp)
    afb6:	22 5f 7e 
    afb9:	48 8b 85 b0 f5 ff ff 	mov    -0xa50(%rbp),%rax
    afc0:	48 8b 00             	mov    (%rax),%rax
    afc3:	48 8b 95 40 f6 ff ff 	mov    -0x9c0(%rbp),%rdx
    afca:	48 89 10             	mov    %rdx,(%rax)
    afcd:	48 8b 05 24 c1 00 00 	mov    0xc124(%rip),%rax        # 170f8 <g_2179>
    afd4:	8b 18                	mov    (%rax),%ebx
    afd6:	44 0f bf a5 e8 f4 ff 	movswl -0xb18(%rbp),%r12d
    afdd:	ff 
    afde:	48 8b 05 cb bf 00 00 	mov    0xbfcb(%rip),%rax        # 16fb0 <g_1743>
    afe5:	48 8b 00             	mov    (%rax),%rax
    afe8:	0f b7 00             	movzwl (%rax),%eax
    afeb:	0f b7 c0             	movzwl %ax,%eax
    afee:	be 00 00 00 00       	mov    $0x0,%esi
    aff3:	89 c7                	mov    %eax,%edi
    aff5:	e8 05 dd ff ff       	callq  8cff <safe_add_func_uint16_t_u_u>
    affa:	48 8b 05 47 c9 00 00 	mov    0xc947(%rip),%rax        # 17948 <g_2384+0xa8>
    b001:	8b 85 40 f5 ff ff    	mov    -0xac0(%rbp),%eax
    b007:	48 63 d0             	movslq %eax,%rdx
    b00a:	8b 85 b8 f6 ff ff    	mov    -0x948(%rbp),%eax
    b010:	48 98                	cltq   
    b012:	48 89 d6             	mov    %rdx,%rsi
    b015:	48 89 c7             	mov    %rax,%rdi
    b018:	e8 63 e0 ff ff       	callq  9080 <safe_mod_func_uint64_t_u_u>
    b01d:	0f be c0             	movsbl %al,%eax
    b020:	89 c6                	mov    %eax,%esi
    b022:	bf ea ff ff ff       	mov    $0xffffffea,%edi
    b027:	e8 05 d2 ff ff       	callq  8231 <safe_mod_func_int8_t_s_s>
    b02c:	84 c0                	test   %al,%al
    b02e:	75 0e                	jne    b03e <func_2+0x179b>
    b030:	48 8b 05 21 b8 00 00 	mov    0xb821(%rip),%rax        # 16858 <g_1226>
    b037:	0f b6 00             	movzbl (%rax),%eax
    b03a:	84 c0                	test   %al,%al
    b03c:	74 07                	je     b045 <func_2+0x17a2>
    b03e:	ba 01 00 00 00       	mov    $0x1,%edx
    b043:	eb 05                	jmp    b04a <func_2+0x17a7>
    b045:	ba 00 00 00 00       	mov    $0x0,%edx
    b04a:	48 8b 85 d0 f4 ff ff 	mov    -0xb30(%rbp),%rax
    b051:	8b 00                	mov    (%rax),%eax
    b053:	39 c2                	cmp    %eax,%edx
    b055:	0f 9e c0             	setle  %al
    b058:	0f b6 c8             	movzbl %al,%ecx
    b05b:	48 8b 05 e6 be 00 00 	mov    0xbee6(%rip),%rax        # 16f48 <g_1713>
    b062:	0f b7 10             	movzwl (%rax),%edx
    b065:	48 8b 05 dc be 00 00 	mov    0xbedc(%rip),%rax        # 16f48 <g_1713>
    b06c:	21 ca                	and    %ecx,%edx
    b06e:	66 89 10             	mov    %dx,(%rax)
    b071:	0f b7 00             	movzwl (%rax),%eax
    b074:	66 85 c0             	test   %ax,%ax
    b077:	75 07                	jne    b080 <func_2+0x17dd>
    b079:	ba 01 00 00 00       	mov    $0x1,%edx
    b07e:	eb 05                	jmp    b085 <func_2+0x17e2>
    b080:	ba 00 00 00 00       	mov    $0x0,%edx
    b085:	48 8b 05 cc b7 00 00 	mov    0xb7cc(%rip),%rax        # 16858 <g_1226>
    b08c:	0f b6 00             	movzbl (%rax),%eax
    b08f:	0f be c0             	movsbl %al,%eax
    b092:	39 c2                	cmp    %eax,%edx
    b094:	0f 95 c0             	setne  %al
    b097:	0f b6 c0             	movzbl %al,%eax
    b09a:	44 89 e6             	mov    %r12d,%esi
    b09d:	89 c7                	mov    %eax,%edi
    b09f:	e8 d6 dd ff ff       	callq  8e7a <safe_rshift_func_uint16_t_u_u>
    b0a4:	98                   	cwtl   
    b0a5:	be 0e 00 00 00       	mov    $0xe,%esi
    b0aa:	89 c7                	mov    %eax,%edi
    b0ac:	e8 e1 d3 ff ff       	callq  8492 <safe_lshift_func_int16_t_s_s>
    b0b1:	98                   	cwtl   
    b0b2:	39 85 08 f5 ff ff    	cmp    %eax,-0xaf8(%rbp)
    b0b8:	0f 9c c0             	setl   %al
    b0bb:	0f b6 c0             	movzbl %al,%eax
    b0be:	89 de                	mov    %ebx,%esi
    b0c0:	89 c7                	mov    %eax,%edi
    b0c2:	e8 f1 dd ff ff       	callq  8eb8 <safe_add_func_uint32_t_u_u>
    b0c7:	0f be c0             	movsbl %al,%eax
    b0ca:	be 04 00 00 00       	mov    $0x4,%esi
    b0cf:	89 c7                	mov    %eax,%edi
    b0d1:	e8 5f d2 ff ff       	callq  8335 <safe_rshift_func_int8_t_s_s>
    b0d6:	48 8b 95 50 f5 ff ff 	mov    -0xab0(%rbp),%rdx
    b0dd:	8b 0a                	mov    (%rdx),%ecx
    b0df:	0f be d0             	movsbl %al,%edx
    b0e2:	48 8b 85 50 f5 ff ff 	mov    -0xab0(%rbp),%rax
    b0e9:	31 ca                	xor    %ecx,%edx
    b0eb:	89 10                	mov    %edx,(%rax)
    b0ed:	48 8b 05 1c b7 00 00 	mov    0xb71c(%rip),%rax        # 16810 <g_1203>
    b0f4:	48 8b 00             	mov    (%rax),%rax
    b0f7:	48 8b 00             	mov    (%rax),%rax
    b0fa:	48 8b 00             	mov    (%rax),%rax
    b0fd:	8b 00                	mov    (%rax),%eax
    b0ff:	85 c0                	test   %eax,%eax
    b101:	eb 2a                	jmp    b12d <func_2+0x188a>
    b103:	8b 05 e3 96 00 00    	mov    0x96e3(%rip),%eax        # 147ec <g_2392>
    b109:	83 c0 01             	add    $0x1,%eax
    b10c:	89 05 da 96 00 00    	mov    %eax,0x96da(%rip)        # 147ec <g_2392>
    b112:	48 8b 85 d0 f4 ff ff 	mov    -0xb30(%rbp),%rax
    b119:	8b 00                	mov    (%rax),%eax
    b11b:	85 c0                	test   %eax,%eax
    b11d:	75 0d                	jne    b12c <func_2+0x1889>
    b11f:	48 8b 85 d0 f4 ff ff 	mov    -0xb30(%rbp),%rax
    b126:	8b 00                	mov    (%rax),%eax
    b128:	85 c0                	test   %eax,%eax
    b12a:	eb 01                	jmp    b12d <func_2+0x188a>
    b12c:	90                   	nop
    b12d:	83 85 28 f5 ff ff 01 	addl   $0x1,-0xad8(%rbp)
    b134:	83 bd 28 f5 ff ff 1d 	cmpl   $0x1d,-0xad8(%rbp)
    b13b:	0f 86 d2 f3 ff ff    	jbe    a513 <func_2+0xc70>
    b141:	48 8b 85 50 f5 ff ff 	mov    -0xab0(%rbp),%rax
    b148:	c7 00 00 00 00 00    	movl   $0x0,(%rax)
    b14e:	48 8b 05 73 b2 00 00 	mov    0xb273(%rip),%rax        # 163c8 <g_1050>
    b155:	0f b6 00             	movzbl (%rax),%eax
    b158:	0f b6 d8             	movzbl %al,%ebx
    b15b:	48 8b 05 5e b2 00 00 	mov    0xb25e(%rip),%rax        # 163c0 <g_1041>
    b162:	48 8b 00             	mov    (%rax),%rax
    b165:	4c 8b 30             	mov    (%rax),%r14
    b168:	48 8b 85 50 f5 ff ff 	mov    -0xab0(%rbp),%rax
    b16f:	8b 00                	mov    (%rax),%eax
    b171:	44 0f b7 e0          	movzwl %ax,%r12d
    b175:	48 8b 85 50 f5 ff ff 	mov    -0xab0(%rbp),%rax
    b17c:	8b 00                	mov    (%rax),%eax
    b17e:	41 89 c7             	mov    %eax,%r15d
    b181:	48 8b 05 20 be 00 00 	mov    0xbe20(%rip),%rax        # 16fa8 <g_1744>
    b188:	0f b7 00             	movzwl (%rax),%eax
    b18b:	44 0f b7 e8          	movzwl %ax,%r13d
    b18f:	48 8b 85 50 f5 ff ff 	mov    -0xab0(%rbp),%rax
    b196:	8b 00                	mov    (%rax),%eax
    b198:	89 85 cc f4 ff ff    	mov    %eax,-0xb34(%rbp)
    b19e:	48 8b 85 d8 f4 ff ff 	mov    -0xb28(%rbp),%rax
    b1a5:	89 c2                	mov    %eax,%edx
    b1a7:	80 ca e7             	or     $0xe7,%dl
    b1aa:	8b 85 14 f5 ff ff    	mov    -0xaec(%rbp),%eax
    b1b0:	21 d0                	and    %edx,%eax
    b1b2:	0f b7 c0             	movzwl %ax,%eax
    b1b5:	be 06 00 00 00       	mov    $0x6,%esi
    b1ba:	89 c7                	mov    %eax,%edi
    b1bc:	e8 87 dc ff ff       	callq  8e48 <safe_rshift_func_uint16_t_u_s>
    b1c1:	0f b7 c0             	movzwl %ax,%eax
    b1c4:	8b b5 cc f4 ff ff    	mov    -0xb34(%rbp),%esi
    b1ca:	89 c7                	mov    %eax,%edi
    b1cc:	e8 ff dc ff ff       	callq  8ed0 <safe_sub_func_uint32_t_u_u>
    b1d1:	48 8b 85 50 f5 ff ff 	mov    -0xab0(%rbp),%rax
    b1d8:	8b 00                	mov    (%rax),%eax
    b1da:	0f b7 c0             	movzwl %ax,%eax
    b1dd:	44 89 ee             	mov    %r13d,%esi
    b1e0:	89 c7                	mov    %eax,%edi
    b1e2:	e8 93 dc ff ff       	callq  8e7a <safe_rshift_func_uint16_t_u_u>
    b1e7:	0f b7 c0             	movzwl %ax,%eax
    b1ea:	89 c6                	mov    %eax,%esi
    b1ec:	bf 07 00 00 00       	mov    $0x7,%edi
    b1f1:	e8 09 db ff ff       	callq  8cff <safe_add_func_uint16_t_u_u>
    b1f6:	98                   	cwtl   
    b1f7:	44 89 fe             	mov    %r15d,%esi
    b1fa:	89 c7                	mov    %eax,%edi
    b1fc:	e8 e0 d2 ff ff       	callq  84e1 <safe_lshift_func_int16_t_s_u>
    b201:	0f b7 c0             	movzwl %ax,%eax
    b204:	44 89 e6             	mov    %r12d,%esi
    b207:	89 c7                	mov    %eax,%edi
    b209:	e8 2f db ff ff       	callq  8d3d <safe_mul_func_uint16_t_u_u>
    b20e:	48 8b 05 13 b6 00 00 	mov    0xb613(%rip),%rax        # 16828 <g_1216>
    b215:	48 8b 00             	mov    (%rax),%rax
    b218:	8b 00                	mov    (%rax),%eax
    b21a:	89 c0                	mov    %eax,%eax
    b21c:	48 23 85 d8 f4 ff ff 	and    -0xb28(%rbp),%rax
    b223:	48 89 c2             	mov    %rax,%rdx
    b226:	0f b6 85 e3 f4 ff ff 	movzbl -0xb1d(%rbp),%eax
    b22d:	0f b6 c0             	movzbl %al,%eax
    b230:	48 39 c2             	cmp    %rax,%rdx
    b233:	7e 0a                	jle    b23f <func_2+0x199c>
    b235:	48 83 bd d8 f4 ff ff 	cmpq   $0x0,-0xb28(%rbp)
    b23c:	00 
    b23d:	74 07                	je     b246 <func_2+0x19a3>
    b23f:	b8 01 00 00 00       	mov    $0x1,%eax
    b244:	eb 05                	jmp    b24b <func_2+0x19a8>
    b246:	b8 00 00 00 00       	mov    $0x0,%eax
    b24b:	89 c2                	mov    %eax,%edx
    b24d:	48 8b 85 d8 f4 ff ff 	mov    -0xb28(%rbp),%rax
    b254:	0f b6 c0             	movzbl %al,%eax
    b257:	89 d6                	mov    %edx,%esi
    b259:	89 c7                	mov    %eax,%edi
    b25b:	e8 5e da ff ff       	callq  8cbe <safe_rshift_func_uint8_t_u_u>
    b260:	0f b6 c0             	movzbl %al,%eax
    b263:	83 e0 01             	and    $0x1,%eax
    b266:	49 39 c6             	cmp    %rax,%r14
    b269:	0f 97 c0             	seta   %al
    b26c:	0f b6 c0             	movzbl %al,%eax
    b26f:	be ff ff ff ff       	mov    $0xffffffff,%esi
    b274:	89 c7                	mov    %eax,%edi
    b276:	e8 82 dc ff ff       	callq  8efd <safe_mod_func_uint32_t_u_u>
    b27b:	0f be c0             	movsbl %al,%eax
    b27e:	89 de                	mov    %ebx,%esi
    b280:	89 c7                	mov    %eax,%edi
    b282:	e8 e5 d0 ff ff       	callq  836c <safe_rshift_func_int8_t_s_u>
    b287:	89 c2                	mov    %eax,%edx
    b289:	48 8b 05 98 b5 00 00 	mov    0xb598(%rip),%rax        # 16828 <g_1216>
    b290:	48 8b 00             	mov    (%rax),%rax
    b293:	0f be d2             	movsbl %dl,%edx
    b296:	89 10                	mov    %edx,(%rax)
    b298:	48 8d 05 a1 b5 00 00 	lea    0xb5a1(%rip),%rax        # 16840 <g_1222>
    b29f:	48 89 85 68 f5 ff ff 	mov    %rax,-0xa98(%rbp)
    b2a6:	48 8d 05 9b b5 00 00 	lea    0xb59b(%rip),%rax        # 16848 <g_1222+0x8>
    b2ad:	48 39 85 68 f5 ff ff 	cmp    %rax,-0xa98(%rbp)
    b2b4:	0f 94 c0             	sete   %al
    b2b7:	0f b6 c8             	movzbl %al,%ecx
    b2ba:	48 8b 05 8f b1 00 00 	mov    0xb18f(%rip),%rax        # 16450 <g_1121>
    b2c1:	48 8b 00             	mov    (%rax),%rax
    b2c4:	8b 10                	mov    (%rax),%edx
    b2c6:	48 8b 05 83 b1 00 00 	mov    0xb183(%rip),%rax        # 16450 <g_1121>
    b2cd:	48 8b 00             	mov    (%rax),%rax
    b2d0:	31 ca                	xor    %ecx,%edx
    b2d2:	89 10                	mov    %edx,(%rax)
    b2d4:	48 8b 85 d0 f4 ff ff 	mov    -0xb30(%rbp),%rax
    b2db:	48 8b 5d c8          	mov    -0x38(%rbp),%rbx
    b2df:	64 48 33 1c 25 28 00 	xor    %fs:0x28,%rbx
    b2e6:	00 00 
    b2e8:	74 05                	je     b2ef <func_2+0x1a4c>
    b2ea:	e8 81 cd ff ff       	callq  8070 <__stack_chk_fail@plt>
    b2ef:	48 81 c4 18 0b 00 00 	add    $0xb18,%rsp
    b2f6:	5b                   	pop    %rbx
    b2f7:	41 5c                	pop    %r12
    b2f9:	41 5d                	pop    %r13
    b2fb:	41 5e                	pop    %r14
    b2fd:	41 5f                	pop    %r15
    b2ff:	5d                   	pop    %rbp
    b300:	c3                   	retq   

000000000000b301 <func_6>:
    b301:	f3 0f 1e fa          	endbr64 
    b305:	55                   	push   %rbp
    b306:	48 89 e5             	mov    %rsp,%rbp
    b309:	41 54                	push   %r12
    b30b:	53                   	push   %rbx
    b30c:	48 81 ec f0 00 00 00 	sub    $0xf0,%rsp
    b313:	48 89 bd 08 ff ff ff 	mov    %rdi,-0xf8(%rbp)
    b31a:	64 48 8b 04 25 28 00 	mov    %fs:0x28,%rax
    b321:	00 00 
    b323:	48 89 45 e8          	mov    %rax,-0x18(%rbp)
    b327:	31 c0                	xor    %eax,%eax
    b329:	48 c7 85 20 ff ff ff 	movq   $0x0,-0xe0(%rbp)
    b330:	00 00 00 00 
    b334:	c7 85 30 ff ff ff 94 	movl   $0x9fa18394,-0xd0(%rbp)
    b33b:	83 a1 9f 
    b33e:	c7 85 34 ff ff ff 94 	movl   $0x9fa18394,-0xcc(%rbp)
    b345:	83 a1 9f 
    b348:	c7 85 38 ff ff ff 94 	movl   $0x9fa18394,-0xc8(%rbp)
    b34f:	83 a1 9f 
    b352:	c7 85 3c ff ff ff 94 	movl   $0x9fa18394,-0xc4(%rbp)
    b359:	83 a1 9f 
    b35c:	48 8d 05 ff 8c 00 00 	lea    0x8cff(%rip),%rax        # 14062 <g_38>
    b363:	48 89 85 28 ff ff ff 	mov    %rax,-0xd8(%rbp)
    b36a:	c7 85 1c ff ff ff 00 	movl   $0x0,-0xe4(%rbp)
    b371:	00 00 00 
    b374:	eb 18                	jmp    b38e <func_6+0x8d>
    b376:	8b 85 1c ff ff ff    	mov    -0xe4(%rbp),%eax
    b37c:	48 98                	cltq   
    b37e:	48 c7 44 c5 90 fc ff 	movq   $0xfffffffffffffffc,-0x70(%rbp,%rax,8)
    b385:	ff ff 
    b387:	83 85 1c ff ff ff 01 	addl   $0x1,-0xe4(%rbp)
    b38e:	83 bd 1c ff ff ff 09 	cmpl   $0x9,-0xe4(%rbp)
    b395:	7e df                	jle    b376 <func_6+0x75>
    b397:	c7 85 1c ff ff ff 00 	movl   $0x0,-0xe4(%rbp)
    b39e:	00 00 00 
    b3a1:	eb 1e                	jmp    b3c1 <func_6+0xc0>
    b3a3:	8b 85 1c ff ff ff    	mov    -0xe4(%rbp),%eax
    b3a9:	48 98                	cltq   
    b3ab:	48 8d 15 a6 8c 00 00 	lea    0x8ca6(%rip),%rdx        # 14058 <g_29+0x18>
    b3b2:	48 89 94 c5 40 ff ff 	mov    %rdx,-0xc0(%rbp,%rax,8)
    b3b9:	ff 
    b3ba:	83 85 1c ff ff ff 01 	addl   $0x1,-0xe4(%rbp)
    b3c1:	83 bd 1c ff ff ff 03 	cmpl   $0x3,-0xe4(%rbp)
    b3c8:	7e d9                	jle    b3a3 <func_6+0xa2>
    b3ca:	c7 85 1c ff ff ff 00 	movl   $0x0,-0xe4(%rbp)
    b3d1:	00 00 00 
    b3d4:	eb 1e                	jmp    b3f4 <func_6+0xf3>
    b3d6:	8b 85 1c ff ff ff    	mov    -0xe4(%rbp),%eax
    b3dc:	48 98                	cltq   
    b3de:	48 8d 15 7b 8c 00 00 	lea    0x8c7b(%rip),%rdx        # 14060 <g_35>
    b3e5:	48 89 94 c5 60 ff ff 	mov    %rdx,-0xa0(%rbp,%rax,8)
    b3ec:	ff 
    b3ed:	83 85 1c ff ff ff 01 	addl   $0x1,-0xe4(%rbp)
    b3f4:	83 bd 1c ff ff ff 04 	cmpl   $0x4,-0xe4(%rbp)
    b3fb:	7e d9                	jle    b3d6 <func_6+0xd5>
    b3fd:	48 8b 45 90          	mov    -0x70(%rbp),%rax
    b401:	0f be d8             	movsbl %al,%ebx
    b404:	4c 8b 25 1d 8c 00 00 	mov    0x8c1d(%rip),%r12        # 14028 <g_14>
    b40b:	48 8b 45 a0          	mov    -0x60(%rbp),%rax
    b40f:	0f bf d0             	movswl %ax,%edx
    b412:	48 8b 45 a0          	mov    -0x60(%rbp),%rax
    b416:	98                   	cwtl   
    b417:	89 d6                	mov    %edx,%esi
    b419:	89 c7                	mov    %eax,%edi
    b41b:	e8 b3 cf ff ff       	callq  83d3 <safe_sub_func_int16_t_s_s>
    b420:	8b 05 fe 8b 00 00    	mov    0x8bfe(%rip),%eax        # 14024 <g_13>
    b426:	48 8b 05 fb 8b 00 00 	mov    0x8bfb(%rip),%rax        # 14028 <g_14>
    b42d:	89 c6                	mov    %eax,%esi
    b42f:	bf fe ff 00 00       	mov    $0xfffe,%edi
    b434:	e8 85 d9 ff ff       	callq  8dbe <safe_lshift_func_uint16_t_u_s>
    b439:	48 be 15 72 ab 3b c3 	movabs $0xca0becc33bab7215,%rsi
    b440:	ec 0b ca 
    b443:	bf 00 00 00 00       	mov    $0x0,%edi
    b448:	e8 5b d4 ff ff       	callq  88a8 <safe_sub_func_int64_t_s_s>
    b44d:	8b 15 f1 8b 00 00    	mov    0x8bf1(%rip),%edx        # 14044 <g_29+0x4>
    b453:	48 83 bd 20 ff ff ff 	cmpq   $0x0,-0xe0(%rbp)
    b45a:	00 
    b45b:	0f 94 c0             	sete   %al
    b45e:	0f b6 c0             	movzbl %al,%eax
    b461:	21 d0                	and    %edx,%eax
    b463:	89 05 db 8b 00 00    	mov    %eax,0x8bdb(%rip)        # 14044 <g_29+0x4>
    b469:	8b 05 d5 8b 00 00    	mov    0x8bd5(%rip),%eax        # 14044 <g_29+0x4>
    b46f:	89 c2                	mov    %eax,%edx
    b471:	48 8b 05 b0 8b 00 00 	mov    0x8bb0(%rip),%rax        # 14028 <g_14>
    b478:	48 39 c2             	cmp    %rax,%rdx
    b47b:	0f 9e c0             	setle  %al
    b47e:	0f b6 c0             	movzbl %al,%eax
    b481:	89 85 30 ff ff ff    	mov    %eax,-0xd0(%rbp)
    b487:	8b 85 30 ff ff ff    	mov    -0xd0(%rbp),%eax
    b48d:	0f b7 d0             	movzwl %ax,%edx
    b490:	48 8b 45 a0          	mov    -0x60(%rbp),%rax
    b494:	0f b7 c0             	movzwl %ax,%eax
    b497:	89 d6                	mov    %edx,%esi
    b499:	89 c7                	mov    %eax,%edi
    b49b:	e8 9d d8 ff ff       	callq  8d3d <safe_mul_func_uint16_t_u_u>
    b4a0:	48 8b 45 c0          	mov    -0x40(%rbp),%rax
    b4a4:	4c 89 e6             	mov    %r12,%rsi
    b4a7:	48 89 c7             	mov    %rax,%rdi
    b4aa:	e8 48 d5 ff ff       	callq  89f7 <safe_div_func_int64_t_s_s>
    b4af:	48 3d 3e 6e 00 00    	cmp    $0x6e3e,%rax
    b4b5:	0f 9e c0             	setle  %al
    b4b8:	0f b6 d0             	movzbl %al,%edx
    b4bb:	0f b7 05 9e 8b 00 00 	movzwl 0x8b9e(%rip),%eax        # 14060 <g_35>
    b4c2:	98                   	cwtl   
    b4c3:	09 c2                	or     %eax,%edx
    b4c5:	48 8b 85 28 ff ff ff 	mov    -0xd8(%rbp),%rax
    b4cc:	0f b6 00             	movzbl (%rax),%eax
    b4cf:	09 c2                	or     %eax,%edx
    b4d1:	48 8b 85 28 ff ff ff 	mov    -0xd8(%rbp),%rax
    b4d8:	88 10                	mov    %dl,(%rax)
    b4da:	48 8b 85 28 ff ff ff 	mov    -0xd8(%rbp),%rax
    b4e1:	0f b6 00             	movzbl (%rax),%eax
    b4e4:	0f be c0             	movsbl %al,%eax
    b4e7:	89 de                	mov    %ebx,%esi
    b4e9:	89 c7                	mov    %eax,%edi
    b4eb:	e8 7a cd ff ff       	callq  826a <safe_div_func_int8_t_s_s>
    b4f0:	48 8b 45 a0          	mov    -0x60(%rbp),%rax
    b4f4:	0f b7 c0             	movzwl %ax,%eax
    b4f7:	be 01 00 00 00       	mov    $0x1,%esi
    b4fc:	89 c7                	mov    %eax,%edi
    b4fe:	e8 bb d8 ff ff       	callq  8dbe <safe_lshift_func_uint16_t_u_s>
    b503:	89 c2                	mov    %eax,%edx
    b505:	48 8b 05 14 ac 00 00 	mov    0xac14(%rip),%rax        # 16120 <g_12>
    b50c:	0f b7 d2             	movzwl %dx,%edx
    b50f:	89 10                	mov    %edx,(%rax)
    b511:	0f b7 05 48 8b 00 00 	movzwl 0x8b48(%rip),%eax        # 14060 <g_35>
    b518:	48 8b 4d e8          	mov    -0x18(%rbp),%rcx
    b51c:	64 48 33 0c 25 28 00 	xor    %fs:0x28,%rcx
    b523:	00 00 
    b525:	74 05                	je     b52c <func_6+0x22b>
    b527:	e8 44 cb ff ff       	callq  8070 <__stack_chk_fail@plt>
    b52c:	48 81 c4 f0 00 00 00 	add    $0xf0,%rsp
    b533:	5b                   	pop    %rbx
    b534:	41 5c                	pop    %r12
    b536:	5d                   	pop    %rbp
    b537:	c3                   	retq   

000000000000b538 <func_8>:
    b538:	f3 0f 1e fa          	endbr64 
    b53c:	55                   	push   %rbp
    b53d:	48 89 e5             	mov    %rsp,%rbp
    b540:	89 7d ec             	mov    %edi,-0x14(%rbp)
    b543:	89 75 e8             	mov    %esi,-0x18(%rbp)
    b546:	48 c7 45 f8 00 00 00 	movq   $0x0,-0x8(%rbp)
    b54d:	00 
    b54e:	48 8b 45 f8          	mov    -0x8(%rbp),%rax
    b552:	5d                   	pop    %rbp
    b553:	c3                   	retq   

000000000000b554 <func_64>:
    b554:	f3 0f 1e fa          	endbr64 
    b558:	55                   	push   %rbp
    b559:	48 89 e5             	mov    %rsp,%rbp
    b55c:	41 56                	push   %r14
    b55e:	41 55                	push   %r13
    b560:	41 54                	push   %r12
    b562:	53                   	push   %rbx
    b563:	48 81 ec 70 0b 00 00 	sub    $0xb70,%rsp
    b56a:	89 f8                	mov    %edi,%eax
    b56c:	89 b5 78 f4 ff ff    	mov    %esi,-0xb88(%rbp)
    b572:	88 85 7c f4 ff ff    	mov    %al,-0xb84(%rbp)
    b578:	64 48 8b 04 25 28 00 	mov    %fs:0x28,%rax
    b57f:	00 00 
    b581:	48 89 45 d8          	mov    %rax,-0x28(%rbp)
    b585:	31 c0                	xor    %eax,%eax
    b587:	c7 85 9c f4 ff ff ff 	movl   $0xffffffff,-0xb64(%rbp)
    b58e:	ff ff ff 
    b591:	c7 85 88 f4 ff ff 01 	movl   $0x1,-0xb78(%rbp)
    b598:	00 00 00 
    b59b:	c7 85 a0 f4 ff ff f9 	movl   $0xfffffff9,-0xb60(%rbp)
    b5a2:	ff ff ff 
    b5a5:	c7 85 a4 f4 ff ff 81 	movl   $0x883d2a81,-0xb5c(%rbp)
    b5ac:	2a 3d 88 
    b5af:	c7 85 a8 f4 ff ff 28 	movl   $0xc333b728,-0xb58(%rbp)
    b5b6:	b7 33 c3 
    b5b9:	c7 85 ac f4 ff ff a3 	movl   $0x204169a3,-0xb54(%rbp)
    b5c0:	69 41 20 
    b5c3:	c7 85 b0 f4 ff ff ff 	movl   $0xffffffff,-0xb50(%rbp)
    b5ca:	ff ff ff 
    b5cd:	c7 85 b4 f4 ff ff 03 	movl   $0x3,-0xb4c(%rbp)
    b5d4:	00 00 00 
    b5d7:	c7 85 b8 f4 ff ff 05 	movl   $0xfc3ae205,-0xb48(%rbp)
    b5de:	e2 3a fc 
    b5e1:	c7 85 bc f4 ff ff 07 	movl   $0x7,-0xb44(%rbp)
    b5e8:	00 00 00 
    b5eb:	c7 85 c0 f4 ff ff 00 	movl   $0x0,-0xb40(%rbp)
    b5f2:	00 00 00 
    b5f5:	c7 85 c4 f4 ff ff f7 	movl   $0xfffffff7,-0xb3c(%rbp)
    b5fc:	ff ff ff 
    b5ff:	48 8d 05 22 ab 00 00 	lea    0xab22(%rip),%rax        # 16128 <g_41>
    b606:	48 89 85 f0 f4 ff ff 	mov    %rax,-0xb10(%rbp)
    b60d:	c7 85 c8 f4 ff ff fd 	movl   $0xfffffffd,-0xb38(%rbp)
    b614:	ff ff ff 
    b617:	66 c7 85 84 f4 ff ff 	movw   $0x7638,-0xb7c(%rbp)
    b61e:	38 76 
    b620:	c6 85 82 f4 ff ff 4b 	movb   $0x4b,-0xb7e(%rbp)
    b627:	48 8d 05 48 8e 00 00 	lea    0x8e48(%rip),%rax        # 14476 <g_295+0x6>
    b62e:	48 89 85 f8 f4 ff ff 	mov    %rax,-0xb08(%rbp)
    b635:	48 8d 05 1c ae 00 00 	lea    0xae1c(%rip),%rax        # 16458 <g_1173>
    b63c:	48 89 85 00 f5 ff ff 	mov    %rax,-0xb00(%rbp)
    b643:	48 bb ed 6c 43 ac ab 	movabs $0x6ddfb9abac436ced,%rbx
    b64a:	b9 df 6d 
    b64d:	48 89 9d f0 f5 ff ff 	mov    %rbx,-0xa10(%rbp)
    b654:	48 b8 8a 79 86 aa 12 	movabs $0xcff68b12aa86798a,%rax
    b65b:	8b f6 cf 
    b65e:	48 89 85 f8 f5 ff ff 	mov    %rax,-0xa08(%rbp)
    b665:	48 89 85 00 f6 ff ff 	mov    %rax,-0xa00(%rbp)
    b66c:	48 89 9d 08 f6 ff ff 	mov    %rbx,-0x9f8(%rbp)
    b673:	48 89 85 10 f6 ff ff 	mov    %rax,-0x9f0(%rbp)
    b67a:	48 89 85 18 f6 ff ff 	mov    %rax,-0x9e8(%rbp)
    b681:	c7 85 cc f4 ff ff 44 	movl   $0xcbf44344,-0xb34(%rbp)
    b688:	43 f4 cb 
    b68b:	48 8d 85 70 fc ff ff 	lea    -0x390(%rbp),%rax
    b692:	48 8d 15 67 50 00 00 	lea    0x5067(%rip),%rdx        # 10700 <g_2180+0x694>
    b699:	b9 6c 00 00 00       	mov    $0x6c,%ecx
    b69e:	48 89 c7             	mov    %rax,%rdi
    b6a1:	48 89 d6             	mov    %rdx,%rsi
    b6a4:	f3 48 a5             	rep movsq %ds:(%rsi),%es:(%rdi)
    b6a7:	48 8d 05 f6 8f 00 00 	lea    0x8ff6(%rip),%rax        # 146a4 <g_405>
    b6ae:	48 89 85 e8 f4 ff ff 	mov    %rax,-0xb18(%rbp)
    b6b5:	48 c7 85 08 f5 ff ff 	movq   $0x0,-0xaf8(%rbp)
    b6bc:	00 00 00 00 
    b6c0:	66 c7 85 86 f4 ff ff 	movw   $0xfffc,-0xb7a(%rbp)
    b6c7:	fc ff 
    b6c9:	c7 85 d0 f4 ff ff 0b 	movl   $0xda97de0b,-0xb30(%rbp)
    b6d0:	de 97 da 
    b6d3:	c7 85 d4 f4 ff ff 4c 	movl   $0xf79a5d4c,-0xb2c(%rbp)
    b6da:	5d 9a f7 
    b6dd:	c7 85 8c f4 ff ff 00 	movl   $0x0,-0xb74(%rbp)
    b6e4:	00 00 00 
    b6e7:	eb 1a                	jmp    b703 <func_64+0x1af>
    b6e9:	8b 85 8c f4 ff ff    	mov    -0xb74(%rbp),%eax
    b6ef:	48 98                	cltq   
    b6f1:	c7 84 85 74 f5 ff ff 	movl   $0x1,-0xa8c(%rbp,%rax,4)
    b6f8:	01 00 00 00 
    b6fc:	83 85 8c f4 ff ff 01 	addl   $0x1,-0xb74(%rbp)
    b703:	83 bd 8c f4 ff ff 02 	cmpl   $0x2,-0xb74(%rbp)
    b70a:	7e dd                	jle    b6e9 <func_64+0x195>
    b70c:	c7 85 8c f4 ff ff 00 	movl   $0x0,-0xb74(%rbp)
    b713:	00 00 00 
    b716:	eb 1e                	jmp    b736 <func_64+0x1e2>
    b718:	8b 85 8c f4 ff ff    	mov    -0xb74(%rbp),%eax
    b71e:	48 98                	cltq   
    b720:	48 8d 95 e8 f4 ff ff 	lea    -0xb18(%rbp),%rdx
    b727:	48 89 94 c5 60 f5 ff 	mov    %rdx,-0xaa0(%rbp,%rax,8)
    b72e:	ff 
    b72f:	83 85 8c f4 ff ff 01 	addl   $0x1,-0xb74(%rbp)
    b736:	83 bd 8c f4 ff ff 00 	cmpl   $0x0,-0xb74(%rbp)
    b73d:	7e d9                	jle    b718 <func_64+0x1c4>
    b73f:	c7 85 8c f4 ff ff 00 	movl   $0x0,-0xb74(%rbp)
    b746:	00 00 00 
    b749:	eb 1e                	jmp    b769 <func_64+0x215>
    b74b:	8b 85 8c f4 ff ff    	mov    -0xb74(%rbp),%eax
    b751:	48 98                	cltq   
    b753:	48 8d 95 74 f5 ff ff 	lea    -0xa8c(%rbp),%rdx
    b75a:	48 89 94 c5 80 f5 ff 	mov    %rdx,-0xa80(%rbp,%rax,8)
    b761:	ff 
    b762:	83 85 8c f4 ff ff 01 	addl   $0x1,-0xb74(%rbp)
    b769:	83 bd 8c f4 ff ff 02 	cmpl   $0x2,-0xb74(%rbp)
    b770:	7e d9                	jle    b74b <func_64+0x1f7>
    b772:	c7 05 e8 88 00 00 00 	movl   $0x0,0x88e8(%rip)        # 14064 <g_42>
    b779:	00 00 00 
    b77c:	e9 11 06 00 00       	jmpq   bd92 <func_64+0x83e>
    b781:	48 8d 85 60 f6 ff ff 	lea    -0x9a0(%rbp),%rax
    b788:	48 8d 15 d1 52 00 00 	lea    0x52d1(%rip),%rdx        # 10a60 <g_2180+0x9f4>
    b78f:	b9 1f 00 00 00       	mov    $0x1f,%ecx
    b794:	48 89 c7             	mov    %rax,%rdi
    b797:	48 89 d6             	mov    %rdx,%rsi
    b79a:	f3 48 a5             	rep movsq %ds:(%rsi),%es:(%rdi)
    b79d:	48 89 f2             	mov    %rsi,%rdx
    b7a0:	48 89 f8             	mov    %rdi,%rax
    b7a3:	8b 0a                	mov    (%rdx),%ecx
    b7a5:	89 08                	mov    %ecx,(%rax)
    b7a7:	48 8d 40 04          	lea    0x4(%rax),%rax
    b7ab:	48 8d 52 04          	lea    0x4(%rdx),%rdx
    b7af:	48 c7 85 38 f5 ff ff 	movq   $0x0,-0xac8(%rbp)
    b7b6:	00 00 00 00 
    b7ba:	48 8d 05 83 8b 00 00 	lea    0x8b83(%rip),%rax        # 14344 <g_112+0x244>
    b7c1:	48 89 85 40 f5 ff ff 	mov    %rax,-0xac0(%rbp)
    b7c8:	48 8d 05 99 88 00 00 	lea    0x8899(%rip),%rax        # 14068 <g_47>
    b7cf:	48 89 85 48 f5 ff ff 	mov    %rax,-0xab8(%rbp)
    b7d6:	48 c7 85 50 f5 ff ff 	movq   $0x0,-0xab0(%rbp)
    b7dd:	00 00 00 00 
    b7e1:	48 8d 05 5c 8b 00 00 	lea    0x8b5c(%rip),%rax        # 14344 <g_112+0x244>
    b7e8:	48 89 85 60 f7 ff ff 	mov    %rax,-0x8a0(%rbp)
    b7ef:	48 8d 85 88 f4 ff ff 	lea    -0xb78(%rbp),%rax
    b7f6:	48 89 85 68 f7 ff ff 	mov    %rax,-0x898(%rbp)
    b7fd:	48 c7 85 70 f7 ff ff 	movq   $0x0,-0x890(%rbp)
    b804:	00 00 00 00 
    b808:	48 c7 85 78 f7 ff ff 	movq   $0x0,-0x888(%rbp)
    b80f:	00 00 00 00 
    b813:	48 8d 05 56 88 00 00 	lea    0x8856(%rip),%rax        # 14070 <g_105>
    b81a:	48 89 85 80 f7 ff ff 	mov    %rax,-0x880(%rbp)
    b821:	48 8d 05 48 88 00 00 	lea    0x8848(%rip),%rax        # 14070 <g_105>
    b828:	48 89 85 88 f7 ff ff 	mov    %rax,-0x878(%rbp)
    b82f:	48 8d 05 3a 88 00 00 	lea    0x883a(%rip),%rax        # 14070 <g_105>
    b836:	48 89 85 90 f7 ff ff 	mov    %rax,-0x870(%rbp)
    b83d:	48 8d 05 20 88 00 00 	lea    0x8820(%rip),%rax        # 14064 <g_42>
    b844:	48 89 85 98 f7 ff ff 	mov    %rax,-0x868(%rbp)
    b84b:	48 8d 85 88 f4 ff ff 	lea    -0xb78(%rbp),%rax
    b852:	48 89 85 a0 f7 ff ff 	mov    %rax,-0x860(%rbp)
    b859:	48 8d 85 88 f4 ff ff 	lea    -0xb78(%rbp),%rax
    b860:	48 89 85 a8 f7 ff ff 	mov    %rax,-0x858(%rbp)
    b867:	48 8d 05 f6 87 00 00 	lea    0x87f6(%rip),%rax        # 14064 <g_42>
    b86e:	48 89 85 b0 f7 ff ff 	mov    %rax,-0x850(%rbp)
    b875:	48 8d 05 f4 87 00 00 	lea    0x87f4(%rip),%rax        # 14070 <g_105>
    b87c:	48 89 85 b8 f7 ff ff 	mov    %rax,-0x848(%rbp)
    b883:	48 c7 85 c0 f7 ff ff 	movq   $0x0,-0x840(%rbp)
    b88a:	00 00 00 00 
    b88e:	48 8d 05 af 8a 00 00 	lea    0x8aaf(%rip),%rax        # 14344 <g_112+0x244>
    b895:	48 89 85 c8 f7 ff ff 	mov    %rax,-0x838(%rbp)
    b89c:	48 c7 85 d0 f7 ff ff 	movq   $0x0,-0x830(%rbp)
    b8a3:	00 00 00 00 
    b8a7:	48 8d 05 b6 87 00 00 	lea    0x87b6(%rip),%rax        # 14064 <g_42>
    b8ae:	48 89 85 d8 f7 ff ff 	mov    %rax,-0x828(%rbp)
    b8b5:	48 8d 05 b4 87 00 00 	lea    0x87b4(%rip),%rax        # 14070 <g_105>
    b8bc:	48 89 85 e0 f7 ff ff 	mov    %rax,-0x820(%rbp)
    b8c3:	48 8d 05 9e 8e 00 00 	lea    0x8e9e(%rip),%rax        # 14768 <g_1124>
    b8ca:	48 89 85 e8 f7 ff ff 	mov    %rax,-0x818(%rbp)
    b8d1:	48 8d 05 8c 87 00 00 	lea    0x878c(%rip),%rax        # 14064 <g_42>
    b8d8:	48 89 85 f0 f7 ff ff 	mov    %rax,-0x810(%rbp)
    b8df:	48 8d 05 5e 8a 00 00 	lea    0x8a5e(%rip),%rax        # 14344 <g_112+0x244>
    b8e6:	48 89 85 f8 f7 ff ff 	mov    %rax,-0x808(%rbp)
    b8ed:	48 8d 05 74 87 00 00 	lea    0x8774(%rip),%rax        # 14068 <g_47>
    b8f4:	48 89 85 00 f8 ff ff 	mov    %rax,-0x800(%rbp)
    b8fb:	48 8d 05 6e 87 00 00 	lea    0x876e(%rip),%rax        # 14070 <g_105>
    b902:	48 89 85 08 f8 ff ff 	mov    %rax,-0x7f8(%rbp)
    b909:	48 8d 05 58 87 00 00 	lea    0x8758(%rip),%rax        # 14068 <g_47>
    b910:	48 89 85 10 f8 ff ff 	mov    %rax,-0x7f0(%rbp)
    b917:	48 8d 05 26 8a 00 00 	lea    0x8a26(%rip),%rax        # 14344 <g_112+0x244>
    b91e:	48 89 85 18 f8 ff ff 	mov    %rax,-0x7e8(%rbp)
    b925:	48 8d 05 38 87 00 00 	lea    0x8738(%rip),%rax        # 14064 <g_42>
    b92c:	48 89 85 20 f8 ff ff 	mov    %rax,-0x7e0(%rbp)
    b933:	48 8d 05 2e 8e 00 00 	lea    0x8e2e(%rip),%rax        # 14768 <g_1124>
    b93a:	48 89 85 28 f8 ff ff 	mov    %rax,-0x7d8(%rbp)
    b941:	48 8d 05 28 87 00 00 	lea    0x8728(%rip),%rax        # 14070 <g_105>
    b948:	48 89 85 30 f8 ff ff 	mov    %rax,-0x7d0(%rbp)
    b94f:	48 8d 05 0e 87 00 00 	lea    0x870e(%rip),%rax        # 14064 <g_42>
    b956:	48 89 85 38 f8 ff ff 	mov    %rax,-0x7c8(%rbp)
    b95d:	48 c7 85 40 f8 ff ff 	movq   $0x0,-0x7c0(%rbp)
    b964:	00 00 00 00 
    b968:	48 8d 05 d5 89 00 00 	lea    0x89d5(%rip),%rax        # 14344 <g_112+0x244>
    b96f:	48 89 85 48 f8 ff ff 	mov    %rax,-0x7b8(%rbp)
    b976:	48 c7 85 50 f8 ff ff 	movq   $0x0,-0x7b0(%rbp)
    b97d:	00 00 00 00 
    b981:	48 8d 05 e8 86 00 00 	lea    0x86e8(%rip),%rax        # 14070 <g_105>
    b988:	48 89 85 58 f8 ff ff 	mov    %rax,-0x7a8(%rbp)
    b98f:	48 8d 05 ce 86 00 00 	lea    0x86ce(%rip),%rax        # 14064 <g_42>
    b996:	48 89 85 60 f8 ff ff 	mov    %rax,-0x7a0(%rbp)
    b99d:	48 8d 85 88 f4 ff ff 	lea    -0xb78(%rbp),%rax
    b9a4:	48 89 85 68 f8 ff ff 	mov    %rax,-0x798(%rbp)
    b9ab:	48 8d 85 88 f4 ff ff 	lea    -0xb78(%rbp),%rax
    b9b2:	48 89 85 70 f8 ff ff 	mov    %rax,-0x790(%rbp)
    b9b9:	48 8d 05 a4 86 00 00 	lea    0x86a4(%rip),%rax        # 14064 <g_42>
    b9c0:	48 89 85 78 f8 ff ff 	mov    %rax,-0x788(%rbp)
    b9c7:	48 8d 05 a2 86 00 00 	lea    0x86a2(%rip),%rax        # 14070 <g_105>
    b9ce:	48 89 85 80 f8 ff ff 	mov    %rax,-0x780(%rbp)
    b9d5:	48 8d 05 94 86 00 00 	lea    0x8694(%rip),%rax        # 14070 <g_105>
    b9dc:	48 89 85 88 f8 ff ff 	mov    %rax,-0x778(%rbp)
    b9e3:	48 8d 05 86 86 00 00 	lea    0x8686(%rip),%rax        # 14070 <g_105>
    b9ea:	48 89 85 90 f8 ff ff 	mov    %rax,-0x770(%rbp)
    b9f1:	48 c7 85 98 f8 ff ff 	movq   $0x0,-0x768(%rbp)
    b9f8:	00 00 00 00 
    b9fc:	48 c7 85 a0 f8 ff ff 	movq   $0x0,-0x760(%rbp)
    ba03:	00 00 00 00 
    ba07:	48 8d 85 88 f4 ff ff 	lea    -0xb78(%rbp),%rax
    ba0e:	48 89 85 a8 f8 ff ff 	mov    %rax,-0x758(%rbp)
    ba15:	48 8d 05 28 89 00 00 	lea    0x8928(%rip),%rax        # 14344 <g_112+0x244>
    ba1c:	48 89 85 b0 f8 ff ff 	mov    %rax,-0x750(%rbp)
    ba23:	48 8d 05 3e 8d 00 00 	lea    0x8d3e(%rip),%rax        # 14768 <g_1124>
    ba2a:	48 89 85 b8 f8 ff ff 	mov    %rax,-0x748(%rbp)
    ba31:	48 8d 05 2c 86 00 00 	lea    0x862c(%rip),%rax        # 14064 <g_42>
    ba38:	48 89 85 c0 f8 ff ff 	mov    %rax,-0x740(%rbp)
    ba3f:	48 8d 05 2a 86 00 00 	lea    0x862a(%rip),%rax        # 14070 <g_105>
    ba46:	48 89 85 c8 f8 ff ff 	mov    %rax,-0x738(%rbp)
    ba4d:	48 8d 05 14 86 00 00 	lea    0x8614(%rip),%rax        # 14068 <g_47>
    ba54:	48 89 85 d0 f8 ff ff 	mov    %rax,-0x730(%rbp)
    ba5b:	48 8d 05 0e 86 00 00 	lea    0x860e(%rip),%rax        # 14070 <g_105>
    ba62:	48 89 85 d8 f8 ff ff 	mov    %rax,-0x728(%rbp)
    ba69:	48 8d 05 f4 85 00 00 	lea    0x85f4(%rip),%rax        # 14064 <g_42>
    ba70:	48 89 85 e0 f8 ff ff 	mov    %rax,-0x720(%rbp)
    ba77:	48 8d 05 c6 88 00 00 	lea    0x88c6(%rip),%rax        # 14344 <g_112+0x244>
    ba7e:	48 89 85 e8 f8 ff ff 	mov    %rax,-0x718(%rbp)
    ba85:	48 8d 05 d8 85 00 00 	lea    0x85d8(%rip),%rax        # 14064 <g_42>
    ba8c:	48 89 85 f0 f8 ff ff 	mov    %rax,-0x710(%rbp)
    ba93:	48 8d 05 aa 88 00 00 	lea    0x88aa(%rip),%rax        # 14344 <g_112+0x244>
    ba9a:	48 89 85 f8 f8 ff ff 	mov    %rax,-0x708(%rbp)
    baa1:	48 8d 05 c8 85 00 00 	lea    0x85c8(%rip),%rax        # 14070 <g_105>
    baa8:	48 89 85 00 f9 ff ff 	mov    %rax,-0x700(%rbp)
    baaf:	48 8d 85 88 f4 ff ff 	lea    -0xb78(%rbp),%rax
    bab6:	48 89 85 08 f9 ff ff 	mov    %rax,-0x6f8(%rbp)
    babd:	48 8d 05 a0 8c 00 00 	lea    0x8ca0(%rip),%rax        # 14764 <g_1123>
    bac4:	48 89 85 10 f9 ff ff 	mov    %rax,-0x6f0(%rbp)
    bacb:	48 8d 05 72 88 00 00 	lea    0x8872(%rip),%rax        # 14344 <g_112+0x244>
    bad2:	48 89 85 18 f9 ff ff 	mov    %rax,-0x6e8(%rbp)
    bad9:	48 8d 05 90 85 00 00 	lea    0x8590(%rip),%rax        # 14070 <g_105>
    bae0:	48 89 85 20 f9 ff ff 	mov    %rax,-0x6e0(%rbp)
    bae7:	48 8d 05 56 88 00 00 	lea    0x8856(%rip),%rax        # 14344 <g_112+0x244>
    baee:	48 89 85 28 f9 ff ff 	mov    %rax,-0x6d8(%rbp)
    baf5:	48 8d 05 68 85 00 00 	lea    0x8568(%rip),%rax        # 14064 <g_42>
    bafc:	48 89 85 30 f9 ff ff 	mov    %rax,-0x6d0(%rbp)
    bb03:	48 8d 05 5a 85 00 00 	lea    0x855a(%rip),%rax        # 14064 <g_42>
    bb0a:	48 89 85 38 f9 ff ff 	mov    %rax,-0x6c8(%rbp)
    bb11:	48 8d 05 2c 88 00 00 	lea    0x882c(%rip),%rax        # 14344 <g_112+0x244>
    bb18:	48 89 85 40 f9 ff ff 	mov    %rax,-0x6c0(%rbp)
    bb1f:	48 8d 05 3e 85 00 00 	lea    0x853e(%rip),%rax        # 14064 <g_42>
    bb26:	48 89 85 48 f9 ff ff 	mov    %rax,-0x6b8(%rbp)
    bb2d:	48 8d 05 30 85 00 00 	lea    0x8530(%rip),%rax        # 14064 <g_42>
    bb34:	48 89 85 50 f9 ff ff 	mov    %rax,-0x6b0(%rbp)
    bb3b:	48 8d 05 02 88 00 00 	lea    0x8802(%rip),%rax        # 14344 <g_112+0x244>
    bb42:	48 89 85 58 f9 ff ff 	mov    %rax,-0x6a8(%rbp)
    bb49:	48 8d 05 f4 87 00 00 	lea    0x87f4(%rip),%rax        # 14344 <g_112+0x244>
    bb50:	48 89 85 60 f9 ff ff 	mov    %rax,-0x6a0(%rbp)
    bb57:	48 8d 05 0a 8c 00 00 	lea    0x8c0a(%rip),%rax        # 14768 <g_1124>
    bb5e:	48 89 85 68 f9 ff ff 	mov    %rax,-0x698(%rbp)
    bb65:	48 8d 05 f8 84 00 00 	lea    0x84f8(%rip),%rax        # 14064 <g_42>
    bb6c:	48 89 85 70 f9 ff ff 	mov    %rax,-0x690(%rbp)
    bb73:	48 8d 05 ea 84 00 00 	lea    0x84ea(%rip),%rax        # 14064 <g_42>
    bb7a:	48 89 85 78 f9 ff ff 	mov    %rax,-0x688(%rbp)
    bb81:	48 8d 05 e8 84 00 00 	lea    0x84e8(%rip),%rax        # 14070 <g_105>
    bb88:	48 89 85 80 f9 ff ff 	mov    %rax,-0x680(%rbp)
    bb8f:	48 8d 05 d2 8b 00 00 	lea    0x8bd2(%rip),%rax        # 14768 <g_1124>
    bb96:	48 89 85 88 f9 ff ff 	mov    %rax,-0x678(%rbp)
    bb9d:	48 8d 85 88 f4 ff ff 	lea    -0xb78(%rbp),%rax
    bba4:	48 89 85 90 f9 ff ff 	mov    %rax,-0x670(%rbp)
    bbab:	48 c7 85 98 f9 ff ff 	movq   $0x0,-0x668(%rbp)
    bbb2:	00 00 00 00 
    bbb6:	48 8d 85 a0 f9 ff ff 	lea    -0x660(%rbp),%rax
    bbbd:	48 8d 15 9c 4f 00 00 	lea    0x4f9c(%rip),%rdx        # 10b60 <g_2180+0xaf4>
    bbc4:	b9 5a 00 00 00       	mov    $0x5a,%ecx
    bbc9:	48 89 c7             	mov    %rax,%rdi
    bbcc:	48 89 d6             	mov    %rdx,%rsi
    bbcf:	f3 48 a5             	rep movsq %ds:(%rsi),%es:(%rdi)
    bbd2:	48 c7 85 58 f5 ff ff 	movq   $0x1,-0xaa8(%rbp)
    bbd9:	01 00 00 00 
    bbdd:	c7 85 e0 f4 ff ff 07 	movl   $0x2f2ae907,-0xb20(%rbp)
    bbe4:	e9 2a 2f 
    bbe7:	c7 85 e4 f4 ff ff 08 	movl   $0x8,-0xb1c(%rbp)
    bbee:	00 00 00 
    bbf1:	c7 85 90 f4 ff ff 00 	movl   $0x0,-0xb70(%rbp)
    bbf8:	00 00 00 
    bbfb:	eb 1a                	jmp    bc17 <func_64+0x6c3>
    bbfd:	8b 85 90 f4 ff ff    	mov    -0xb70(%rbp),%eax
    bc03:	48 98                	cltq   
    bc05:	c7 84 85 20 f6 ff ff 	movl   $0xffffffff,-0x9e0(%rbp,%rax,4)
    bc0c:	ff ff ff ff 
    bc10:	83 85 90 f4 ff ff 01 	addl   $0x1,-0xb70(%rbp)
    bc17:	83 bd 90 f4 ff ff 06 	cmpl   $0x6,-0xb70(%rbp)
    bc1e:	7e dd                	jle    bbfd <func_64+0x6a9>
    bc20:	0f b6 85 10 f7 ff ff 	movzbl -0x8f0(%rbp),%eax
    bc27:	83 e8 01             	sub    $0x1,%eax
    bc2a:	88 85 10 f7 ff ff    	mov    %al,-0x8f0(%rbp)
    bc30:	48 8b 15 c9 ab 00 00 	mov    0xabc9(%rip),%rdx        # 16800 <g_1205>
    bc37:	48 8b 05 d2 ab 00 00 	mov    0xabd2(%rip),%rax        # 16810 <g_1203>
    bc3e:	48 8b 00             	mov    (%rax),%rax
    bc41:	48 8b 00             	mov    (%rax),%rax
    bc44:	48 8b 12             	mov    (%rdx),%rdx
    bc47:	48 89 10             	mov    %rdx,(%rax)
    bc4a:	8b 85 20 f6 ff ff    	mov    -0x9e0(%rbp),%eax
    bc50:	83 c0 01             	add    $0x1,%eax
    bc53:	89 85 20 f6 ff ff    	mov    %eax,-0x9e0(%rbp)
    bc59:	8b 9d e4 f4 ff ff    	mov    -0xb1c(%rbp),%ebx
    bc5f:	8b 85 e0 f4 ff ff    	mov    -0xb20(%rbp),%eax
    bc65:	44 0f b6 e0          	movzbl %al,%r12d
    bc69:	8b 05 f5 83 00 00    	mov    0x83f5(%rip),%eax        # 14064 <g_42>
    bc6f:	83 c0 03             	add    $0x3,%eax
    bc72:	48 98                	cltq   
    bc74:	48 8d 14 00          	lea    (%rax,%rax,1),%rdx
    bc78:	48 8d 05 e1 c1 00 00 	lea    0xc1e1(%rip),%rax        # 17e60 <g_334>
    bc7f:	0f b7 04 02          	movzwl (%rdx,%rax,1),%eax
    bc83:	48 8b 05 96 ab 00 00 	mov    0xab96(%rip),%rax        # 16820 <g_1217>
    bc8a:	8b 00                	mov    (%rax),%eax
    bc8c:	41 89 c6             	mov    %eax,%r14d
    bc8f:	8b 85 b0 f4 ff ff    	mov    -0xb50(%rbp),%eax
    bc95:	44 0f bf e8          	movswl %ax,%r13d
    bc99:	8b 85 78 f4 ff ff    	mov    -0xb88(%rbp),%eax
    bc9f:	89 c6                	mov    %eax,%esi
    bca1:	bf 01 00 00 00       	mov    $0x1,%edi
    bca6:	e8 36 c8 ff ff       	callq  84e1 <safe_lshift_func_int16_t_s_u>
    bcab:	0f bf d0             	movswl %ax,%edx
    bcae:	8b 85 b0 f4 ff ff    	mov    -0xb50(%rbp),%eax
    bcb4:	0f b7 c0             	movzwl %ax,%eax
    bcb7:	89 d6                	mov    %edx,%esi
    bcb9:	89 c7                	mov    %eax,%edi
    bcbb:	e8 88 d1 ff ff       	callq  8e48 <safe_rshift_func_uint16_t_u_s>
    bcc0:	0f b6 05 8a c1 00 00 	movzbl 0xc18a(%rip),%eax        # 17e51 <g_181>
    bcc7:	0f b6 c0             	movzbl %al,%eax
    bcca:	44 89 ee             	mov    %r13d,%esi
    bccd:	89 c7                	mov    %eax,%edi
    bccf:	e8 81 c7 ff ff       	callq  8455 <safe_div_func_int16_t_s_s>
    bcd4:	98                   	cwtl   
    bcd5:	39 85 78 f4 ff ff    	cmp    %eax,-0xb88(%rbp)
    bcdb:	0f 97 c0             	seta   %al
    bcde:	0f b6 c0             	movzbl %al,%eax
    bce1:	44 89 f6             	mov    %r14d,%esi
    bce4:	89 c7                	mov    %eax,%edi
    bce6:	e8 1a c9 ff ff       	callq  8605 <safe_sub_func_int32_t_s_s>
    bceb:	48 8b 05 86 ab 00 00 	mov    0xab86(%rip),%rax        # 16878 <g_1393>
    bcf2:	48 8b 00             	mov    (%rax),%rax
    bcf5:	48 8b 00             	mov    (%rax),%rax
    bcf8:	48 8b 00             	mov    (%rax),%rax
    bcfb:	0f b6 00             	movzbl (%rax),%eax
    bcfe:	84 c0                	test   %al,%al
    bd00:	0f 94 c0             	sete   %al
    bd03:	0f b6 c0             	movzbl %al,%eax
    bd06:	be 08 00 00 00       	mov    $0x8,%esi
    bd0b:	89 c7                	mov    %eax,%edi
    bd0d:	e8 f4 d0 ff ff       	callq  8e06 <safe_lshift_func_uint16_t_u_u>
    bd12:	44 89 e6             	mov    %r12d,%esi
    bd15:	bf 00 00 00 00       	mov    $0x0,%edi
    bd1a:	e8 3b ce ff ff       	callq  8b5a <safe_add_func_uint8_t_u_u>
    bd1f:	89 c2                	mov    %eax,%edx
    bd21:	48 8b 05 00 ab 00 00 	mov    0xab00(%rip),%rax        # 16828 <g_1216>
    bd28:	48 8b 00             	mov    (%rax),%rax
    bd2b:	0f b6 d2             	movzbl %dl,%edx
    bd2e:	89 10                	mov    %edx,(%rax)
    bd30:	8b 00                	mov    (%rax),%eax
    bd32:	89 de                	mov    %ebx,%esi
    bd34:	89 c7                	mov    %eax,%edi
    bd36:	e8 ea d1 ff ff       	callq  8f25 <safe_div_func_uint32_t_u_u>
    bd3b:	0f be c0             	movsbl %al,%eax
    bd3e:	be 42 00 00 00       	mov    $0x42,%esi
    bd43:	89 c7                	mov    %eax,%edi
    bd45:	e8 c8 c4 ff ff       	callq  8212 <safe_mul_func_int8_t_s_s>
    bd4a:	0f be d0             	movsbl %al,%edx
    bd4d:	48 8b 05 ac aa 00 00 	mov    0xaaac(%rip),%rax        # 16800 <g_1205>
    bd54:	48 8b 00             	mov    (%rax),%rax
    bd57:	81 ca 46 a7 00 00    	or     $0xa746,%edx
    bd5d:	89 10                	mov    %edx,(%rax)
    bd5f:	48 c7 05 6e 86 00 00 	movq   $0x0,0x866e(%rip)        # 143d8 <g_250>
    bd66:	00 00 00 00 
    bd6a:	90                   	nop
    bd6b:	48 8b 05 66 86 00 00 	mov    0x8666(%rip),%rax        # 143d8 <g_250>
    bd72:	48 85 c0             	test   %rax,%rax
    bd75:	7f 0c                	jg     bd83 <func_64+0x82f>
    bd77:	0f be 85 7c f4 ff ff 	movsbl -0xb84(%rbp),%eax
    bd7e:	e9 6f 05 00 00       	jmpq   c2f2 <func_64+0xd9e>
    bd83:	8b 05 db 82 00 00    	mov    0x82db(%rip),%eax        # 14064 <g_42>
    bd89:	83 c0 01             	add    $0x1,%eax
    bd8c:	89 05 d2 82 00 00    	mov    %eax,0x82d2(%rip)        # 14064 <g_42>
    bd92:	8b 05 cc 82 00 00    	mov    0x82cc(%rip),%eax        # 14064 <g_42>
    bd98:	85 c0                	test   %eax,%eax
    bd9a:	0f 8e e1 f9 ff ff    	jle    b781 <func_64+0x22d>
    bda0:	48 8b 05 a9 aa 00 00 	mov    0xaaa9(%rip),%rax        # 16850 <g_1221>
    bda7:	48 8b 00             	mov    (%rax),%rax
    bdaa:	48 8b 00             	mov    (%rax),%rax
    bdad:	48 8b 00             	mov    (%rax),%rax
    bdb0:	48 8b 00             	mov    (%rax),%rax
    bdb3:	8b 10                	mov    (%rax),%edx
    bdb5:	48 8b 05 94 aa 00 00 	mov    0xaa94(%rip),%rax        # 16850 <g_1221>
    bdbc:	48 8b 00             	mov    (%rax),%rax
    bdbf:	48 8b 00             	mov    (%rax),%rax
    bdc2:	48 8b 00             	mov    (%rax),%rax
    bdc5:	48 8b 00             	mov    (%rax),%rax
    bdc8:	33 95 b4 f4 ff ff    	xor    -0xb4c(%rbp),%edx
    bdce:	89 10                	mov    %edx,(%rax)
    bdd0:	48 c7 05 a5 86 00 00 	movq   $0x0,0x86a5(%rip)        # 14480 <g_302>
    bdd7:	00 00 00 00 
    bddb:	e9 f4 04 00 00       	jmpq   c2d4 <func_64+0xd80>
    bde0:	48 b8 64 31 05 ee 4e 	movabs $0xd76e1e4eee053164,%rax
    bde7:	1e 6e d7 
    bdea:	48 89 85 10 f5 ff ff 	mov    %rax,-0xaf0(%rbp)
    bdf1:	c7 85 a0 f9 ff ff 09 	movl   $0x9,-0x660(%rbp)
    bdf8:	00 00 00 
    bdfb:	c7 85 a4 f9 ff ff 09 	movl   $0x9,-0x65c(%rbp)
    be02:	00 00 00 
    be05:	c7 85 a8 f9 ff ff fd 	movl   $0x317256fd,-0x658(%rbp)
    be0c:	56 72 31 
    be0f:	c7 85 ac f9 ff ff 08 	movl   $0x8,-0x654(%rbp)
    be16:	00 00 00 
    be19:	c7 85 b0 f9 ff ff 0e 	movl   $0x6ea5360e,-0x650(%rbp)
    be20:	36 a5 6e 
    be23:	c7 85 b4 f9 ff ff 08 	movl   $0x8,-0x64c(%rbp)
    be2a:	00 00 00 
    be2d:	c7 85 b8 f9 ff ff 09 	movl   $0x9,-0x648(%rbp)
    be34:	00 00 00 
    be37:	c7 85 bc f9 ff ff fe 	movl   $0xfffffffe,-0x644(%rbp)
    be3e:	ff ff ff 
    be41:	c7 85 c0 f9 ff ff fe 	movl   $0xfffffffe,-0x640(%rbp)
    be48:	ff ff ff 
    be4b:	c7 85 c4 f9 ff ff ac 	movl   $0xf89f2cac,-0x63c(%rbp)
    be52:	2c 9f f8 
    be55:	c7 85 c8 f9 ff ff fd 	movl   $0x317256fd,-0x638(%rbp)
    be5c:	56 72 31 
    be5f:	c7 85 cc f9 ff ff 09 	movl   $0x9,-0x634(%rbp)
    be66:	00 00 00 
    be69:	c7 85 d0 f9 ff ff 09 	movl   $0x9,-0x630(%rbp)
    be70:	00 00 00 
    be73:	c7 85 d4 f9 ff ff fd 	movl   $0x317256fd,-0x62c(%rbp)
    be7a:	56 72 31 
    be7d:	c7 85 d8 f9 ff ff ac 	movl   $0xf89f2cac,-0x628(%rbp)
    be84:	2c 9f f8 
    be87:	c7 85 dc f9 ff ff fe 	movl   $0xfffffffe,-0x624(%rbp)
    be8e:	ff ff ff 
    be91:	c7 85 e0 f9 ff ff ac 	movl   $0xf89f2cac,-0x620(%rbp)
    be98:	2c 9f f8 
    be9b:	c7 85 e4 f9 ff ff 97 	movl   $0x6645ed97,-0x61c(%rbp)
    bea2:	ed 45 66 
    bea5:	c7 85 e8 f9 ff ff fe 	movl   $0xfffffffe,-0x618(%rbp)
    beac:	ff ff ff 
    beaf:	c7 85 ec f9 ff ff 08 	movl   $0x8,-0x614(%rbp)
    beb6:	00 00 00 
    beb9:	c7 85 f0 f9 ff ff fe 	movl   $0xfffffffe,-0x610(%rbp)
    bec0:	ff ff ff 
    bec3:	c7 85 f4 f9 ff ff 97 	movl   $0x6645ed97,-0x60c(%rbp)
    beca:	ed 45 66 
    becd:	c7 85 f8 f9 ff ff ac 	movl   $0xf89f2cac,-0x608(%rbp)
    bed4:	2c 9f f8 
    bed7:	c7 85 fc f9 ff ff ac 	movl   $0xf89f2cac,-0x604(%rbp)
    bede:	2c 9f f8 
    bee1:	c7 85 00 fa ff ff 97 	movl   $0x6645ed97,-0x600(%rbp)
    bee8:	ed 45 66 
    beeb:	c7 85 04 fa ff ff 08 	movl   $0x8,-0x5fc(%rbp)
    bef2:	00 00 00 
    bef5:	c7 85 08 fa ff ff fd 	movl   $0x317256fd,-0x5f8(%rbp)
    befc:	56 72 31 
    beff:	c7 85 0c fa ff ff fd 	movl   $0x317256fd,-0x5f4(%rbp)
    bf06:	56 72 31 
    bf09:	c7 85 10 fa ff ff 08 	movl   $0x8,-0x5f0(%rbp)
    bf10:	00 00 00 
    bf13:	c7 85 14 fa ff ff 97 	movl   $0x6645ed97,-0x5ec(%rbp)
    bf1a:	ed 45 66 
    bf1d:	c7 85 18 fa ff ff 09 	movl   $0x9,-0x5e8(%rbp)
    bf24:	00 00 00 
    bf27:	c7 85 1c fa ff ff 97 	movl   $0x6645ed97,-0x5e4(%rbp)
    bf2e:	ed 45 66 
    bf31:	c7 85 20 fa ff ff 08 	movl   $0x8,-0x5e0(%rbp)
    bf38:	00 00 00 
    bf3b:	c7 85 24 fa ff ff 97 	movl   $0x6645ed97,-0x5dc(%rbp)
    bf42:	ed 45 66 
    bf45:	c7 85 28 fa ff ff 09 	movl   $0x9,-0x5d8(%rbp)
    bf4c:	00 00 00 
    bf4f:	c7 85 2c fa ff ff 97 	movl   $0x6645ed97,-0x5d4(%rbp)
    bf56:	ed 45 66 
    bf59:	c7 85 30 fa ff ff 08 	movl   $0x8,-0x5d0(%rbp)
    bf60:	00 00 00 
    bf63:	c7 85 34 fa ff ff fd 	movl   $0x317256fd,-0x5cc(%rbp)
    bf6a:	56 72 31 
    bf6d:	c7 85 38 fa ff ff fd 	movl   $0x317256fd,-0x5c8(%rbp)
    bf74:	56 72 31 
    bf77:	c7 85 3c fa ff ff 08 	movl   $0x8,-0x5c4(%rbp)
    bf7e:	00 00 00 
    bf81:	c7 85 40 fa ff ff 97 	movl   $0x6645ed97,-0x5c0(%rbp)
    bf88:	ed 45 66 
    bf8b:	c7 85 44 fa ff ff ac 	movl   $0xf89f2cac,-0x5bc(%rbp)
    bf92:	2c 9f f8 
    bf95:	c7 85 48 fa ff ff ac 	movl   $0xf89f2cac,-0x5b8(%rbp)
    bf9c:	2c 9f f8 
    bf9f:	c7 85 4c fa ff ff 97 	movl   $0x6645ed97,-0x5b4(%rbp)
    bfa6:	ed 45 66 
    bfa9:	c7 85 50 fa ff ff fe 	movl   $0xfffffffe,-0x5b0(%rbp)
    bfb0:	ff ff ff 
    bfb3:	c7 85 54 fa ff ff 08 	movl   $0x8,-0x5ac(%rbp)
    bfba:	00 00 00 
    bfbd:	c7 85 58 fa ff ff fe 	movl   $0xfffffffe,-0x5a8(%rbp)
    bfc4:	ff ff ff 
    bfc7:	c7 85 5c fa ff ff 97 	movl   $0x6645ed97,-0x5a4(%rbp)
    bfce:	ed 45 66 
    bfd1:	c7 85 60 fa ff ff ac 	movl   $0xf89f2cac,-0x5a0(%rbp)
    bfd8:	2c 9f f8 
    bfdb:	c7 85 64 fa ff ff fe 	movl   $0xfffffffe,-0x59c(%rbp)
    bfe2:	ff ff ff 
    bfe5:	c7 85 68 fa ff ff ac 	movl   $0xf89f2cac,-0x598(%rbp)
    bfec:	2c 9f f8 
    bfef:	c7 85 6c fa ff ff fd 	movl   $0x317256fd,-0x594(%rbp)
    bff6:	56 72 31 
    bff9:	c7 85 70 fa ff ff 09 	movl   $0x9,-0x590(%rbp)
    c000:	00 00 00 
    c003:	c7 85 74 fa ff ff 09 	movl   $0x9,-0x58c(%rbp)
    c00a:	00 00 00 
    c00d:	c7 85 78 fa ff ff fd 	movl   $0x317256fd,-0x588(%rbp)
    c014:	56 72 31 
    c017:	c7 85 7c fa ff ff ac 	movl   $0xf89f2cac,-0x584(%rbp)
    c01e:	2c 9f f8 
    c021:	48 8d 05 28 87 00 00 	lea    0x8728(%rip),%rax        # 14750 <g_646>
    c028:	48 89 85 60 f6 ff ff 	mov    %rax,-0x9a0(%rbp)
    c02f:	48 8d 05 1a 87 00 00 	lea    0x871a(%rip),%rax        # 14750 <g_646>
    c036:	48 89 85 68 f6 ff ff 	mov    %rax,-0x998(%rbp)
    c03d:	48 8d 05 0c 87 00 00 	lea    0x870c(%rip),%rax        # 14750 <g_646>
    c044:	48 89 85 70 f6 ff ff 	mov    %rax,-0x990(%rbp)
    c04b:	48 8d 05 fe 86 00 00 	lea    0x86fe(%rip),%rax        # 14750 <g_646>
    c052:	48 89 85 78 f6 ff ff 	mov    %rax,-0x988(%rbp)
    c059:	48 8d 05 f0 86 00 00 	lea    0x86f0(%rip),%rax        # 14750 <g_646>
    c060:	48 89 85 80 f6 ff ff 	mov    %rax,-0x980(%rbp)
    c067:	48 8d 05 e2 86 00 00 	lea    0x86e2(%rip),%rax        # 14750 <g_646>
    c06e:	48 89 85 88 f6 ff ff 	mov    %rax,-0x978(%rbp)
    c075:	48 8d 05 d4 86 00 00 	lea    0x86d4(%rip),%rax        # 14750 <g_646>
    c07c:	48 89 85 90 f6 ff ff 	mov    %rax,-0x970(%rbp)
    c083:	48 8d 05 c6 86 00 00 	lea    0x86c6(%rip),%rax        # 14750 <g_646>
    c08a:	48 89 85 98 f6 ff ff 	mov    %rax,-0x968(%rbp)
    c091:	48 b8 fe a5 02 81 40 	movabs $0xa8e8d0408102a5fe,%rax
    c098:	d0 e8 a8 
    c09b:	48 89 85 c0 f5 ff ff 	mov    %rax,-0xa40(%rbp)
    c0a2:	48 89 85 c8 f5 ff ff 	mov    %rax,-0xa38(%rbp)
    c0a9:	48 89 85 d0 f5 ff ff 	mov    %rax,-0xa30(%rbp)
    c0b0:	48 89 85 d8 f5 ff ff 	mov    %rax,-0xa28(%rbp)
    c0b7:	48 89 85 e0 f5 ff ff 	mov    %rax,-0xa20(%rbp)
    c0be:	c6 85 83 f4 ff ff a3 	movb   $0xa3,-0xb7d(%rbp)
    c0c5:	48 8d 05 98 3f 00 00 	lea    0x3f98(%rip),%rax        # 10064 <g_1651>
    c0cc:	48 89 85 20 f6 ff ff 	mov    %rax,-0x9e0(%rbp)
    c0d3:	48 8d 05 8a 3f 00 00 	lea    0x3f8a(%rip),%rax        # 10064 <g_1651>
    c0da:	48 89 85 28 f6 ff ff 	mov    %rax,-0x9d8(%rbp)
    c0e1:	48 8d 05 7c 3f 00 00 	lea    0x3f7c(%rip),%rax        # 10064 <g_1651>
    c0e8:	48 89 85 30 f6 ff ff 	mov    %rax,-0x9d0(%rbp)
    c0ef:	48 8d 05 6e 3f 00 00 	lea    0x3f6e(%rip),%rax        # 10064 <g_1651>
    c0f6:	48 89 85 38 f6 ff ff 	mov    %rax,-0x9c8(%rbp)
    c0fd:	48 8d 05 60 3f 00 00 	lea    0x3f60(%rip),%rax        # 10064 <g_1651>
    c104:	48 89 85 40 f6 ff ff 	mov    %rax,-0x9c0(%rbp)
    c10b:	48 8d 05 52 3f 00 00 	lea    0x3f52(%rip),%rax        # 10064 <g_1651>
    c112:	48 89 85 48 f6 ff ff 	mov    %rax,-0x9b8(%rbp)
    c119:	48 8d 05 44 3f 00 00 	lea    0x3f44(%rip),%rax        # 10064 <g_1651>
    c120:	48 89 85 50 f6 ff ff 	mov    %rax,-0x9b0(%rbp)
    c127:	c7 85 d8 f4 ff ff 95 	movl   $0xaf83c395,-0xb28(%rbp)
    c12e:	c3 83 af 
    c131:	c7 85 dc f4 ff ff 33 	movl   $0xea63433,-0xb24(%rbp)
    c138:	34 a6 0e 
    c13b:	48 8d 05 56 ae 00 00 	lea    0xae56(%rip),%rax        # 16f98 <g_1729>
    c142:	48 89 85 60 f7 ff ff 	mov    %rax,-0x8a0(%rbp)
    c149:	48 8d 05 48 ae 00 00 	lea    0xae48(%rip),%rax        # 16f98 <g_1729>
    c150:	48 89 85 68 f7 ff ff 	mov    %rax,-0x898(%rbp)
    c157:	48 8d 05 3a ae 00 00 	lea    0xae3a(%rip),%rax        # 16f98 <g_1729>
    c15e:	48 89 85 70 f7 ff ff 	mov    %rax,-0x890(%rbp)
    c165:	48 8d 05 2c ae 00 00 	lea    0xae2c(%rip),%rax        # 16f98 <g_1729>
    c16c:	48 89 85 78 f7 ff ff 	mov    %rax,-0x888(%rbp)
    c173:	48 8d 05 1e ae 00 00 	lea    0xae1e(%rip),%rax        # 16f98 <g_1729>
    c17a:	48 89 85 80 f7 ff ff 	mov    %rax,-0x880(%rbp)
    c181:	48 8d 05 10 ae 00 00 	lea    0xae10(%rip),%rax        # 16f98 <g_1729>
    c188:	48 89 85 88 f7 ff ff 	mov    %rax,-0x878(%rbp)
    c18f:	48 8d 05 02 ae 00 00 	lea    0xae02(%rip),%rax        # 16f98 <g_1729>
    c196:	48 89 85 90 f7 ff ff 	mov    %rax,-0x870(%rbp)
    c19d:	48 8d 05 f4 ad 00 00 	lea    0xadf4(%rip),%rax        # 16f98 <g_1729>
    c1a4:	48 89 85 98 f7 ff ff 	mov    %rax,-0x868(%rbp)
    c1ab:	48 8d 05 e6 ad 00 00 	lea    0xade6(%rip),%rax        # 16f98 <g_1729>
    c1b2:	48 89 85 a0 f7 ff ff 	mov    %rax,-0x860(%rbp)
    c1b9:	48 8d 05 d8 ad 00 00 	lea    0xadd8(%rip),%rax        # 16f98 <g_1729>
    c1c0:	48 89 85 a8 f7 ff ff 	mov    %rax,-0x858(%rbp)
    c1c7:	48 8d 05 ca ad 00 00 	lea    0xadca(%rip),%rax        # 16f98 <g_1729>
    c1ce:	48 89 85 b0 f7 ff ff 	mov    %rax,-0x850(%rbp)
    c1d5:	48 8d 05 bc ad 00 00 	lea    0xadbc(%rip),%rax        # 16f98 <g_1729>
    c1dc:	48 89 85 b8 f7 ff ff 	mov    %rax,-0x848(%rbp)
    c1e3:	48 8d 05 ae ad 00 00 	lea    0xadae(%rip),%rax        # 16f98 <g_1729>
    c1ea:	48 89 85 c0 f7 ff ff 	mov    %rax,-0x840(%rbp)
    c1f1:	48 8d 05 a0 ad 00 00 	lea    0xada0(%rip),%rax        # 16f98 <g_1729>
    c1f8:	48 89 85 c8 f7 ff ff 	mov    %rax,-0x838(%rbp)
    c1ff:	48 c7 85 18 f5 ff ff 	movq   $0x0,-0xae8(%rbp)
    c206:	00 00 00 00 
    c20a:	48 8d 05 4f ad 00 00 	lea    0xad4f(%rip),%rax        # 16f60 <g_1712>
    c211:	48 89 85 20 f5 ff ff 	mov    %rax,-0xae0(%rbp)
    c218:	48 8d 05 41 ad 00 00 	lea    0xad41(%rip),%rax        # 16f60 <g_1712>
    c21f:	48 89 85 28 f5 ff ff 	mov    %rax,-0xad8(%rbp)
    c226:	48 b8 97 50 ec 59 35 	movabs $0x6dca983559ec5097,%rax
    c22d:	98 ca 6d 
    c230:	48 89 85 30 f5 ff ff 	mov    %rax,-0xad0(%rbp)
    c237:	c7 85 94 f4 ff ff 00 	movl   $0x0,-0xb6c(%rbp)
    c23e:	00 00 00 
    c241:	eb 1b                	jmp    c25e <func_64+0xd0a>
    c243:	8b 85 94 f4 ff ff    	mov    -0xb6c(%rbp),%eax
    c249:	48 98                	cltq   
    c24b:	48 c7 84 c5 68 f5 ff 	movq   $0x0,-0xa98(%rbp,%rax,8)
    c252:	ff 00 00 00 00 
    c257:	83 85 94 f4 ff ff 01 	addl   $0x1,-0xb6c(%rbp)
    c25e:	83 bd 94 f4 ff ff 00 	cmpl   $0x0,-0xb6c(%rbp)
    c265:	7e dc                	jle    c243 <func_64+0xcef>
    c267:	c7 85 94 f4 ff ff 00 	movl   $0x0,-0xb6c(%rbp)
    c26e:	00 00 00 
    c271:	eb 46                	jmp    c2b9 <func_64+0xd65>
    c273:	c7 85 98 f4 ff ff 00 	movl   $0x0,-0xb68(%rbp)
    c27a:	00 00 00 
    c27d:	eb 2a                	jmp    c2a9 <func_64+0xd55>
    c27f:	8b 85 98 f4 ff ff    	mov    -0xb68(%rbp),%eax
    c285:	48 63 d0             	movslq %eax,%rdx
    c288:	8b 85 94 f4 ff ff    	mov    -0xb6c(%rbp),%eax
    c28e:	48 98                	cltq   
    c290:	48 01 d0             	add    %rdx,%rax
    c293:	48 8d 15 ce a1 00 00 	lea    0xa1ce(%rip),%rdx        # 16468 <g_1171>
    c29a:	48 89 94 c5 a0 f5 ff 	mov    %rdx,-0xa60(%rbp,%rax,8)
    c2a1:	ff 
    c2a2:	83 85 98 f4 ff ff 01 	addl   $0x1,-0xb68(%rbp)
    c2a9:	83 bd 98 f4 ff ff 00 	cmpl   $0x0,-0xb68(%rbp)
    c2b0:	7e cd                	jle    c27f <func_64+0xd2b>
    c2b2:	83 85 94 f4 ff ff 01 	addl   $0x1,-0xb6c(%rbp)
    c2b9:	83 bd 94 f4 ff ff 03 	cmpl   $0x3,-0xb6c(%rbp)
    c2c0:	7e b1                	jle    c273 <func_64+0xd1f>
    c2c2:	48 8b 05 b7 81 00 00 	mov    0x81b7(%rip),%rax        # 14480 <g_302>
    c2c9:	48 83 c0 01          	add    $0x1,%rax
    c2cd:	48 89 05 ac 81 00 00 	mov    %rax,0x81ac(%rip)        # 14480 <g_302>
    c2d4:	48 8b 05 a5 81 00 00 	mov    0x81a5(%rip),%rax        # 14480 <g_302>
    c2db:	48 83 f8 1c          	cmp    $0x1c,%rax
    c2df:	0f 85 fb fa ff ff    	jne    bde0 <func_64+0x88c>
    c2e5:	83 85 d4 f4 ff ff 01 	addl   $0x1,-0xb2c(%rbp)
    c2ec:	8b 85 78 f4 ff ff    	mov    -0xb88(%rbp),%eax
    c2f2:	48 8b 4d d8          	mov    -0x28(%rbp),%rcx
    c2f6:	64 48 33 0c 25 28 00 	xor    %fs:0x28,%rcx
    c2fd:	00 00 
    c2ff:	74 05                	je     c306 <func_64+0xdb2>
    c301:	e8 6a bd ff ff       	callq  8070 <__stack_chk_fail@plt>
    c306:	48 81 c4 70 0b 00 00 	add    $0xb70,%rsp
    c30d:	5b                   	pop    %rbx
    c30e:	41 5c                	pop    %r12
    c310:	41 5d                	pop    %r13
    c312:	41 5e                	pop    %r14
    c314:	5d                   	pop    %rbp
    c315:	c3                   	retq   

000000000000c316 <func_69>:
    c316:	f3 0f 1e fa          	endbr64 
    c31a:	55                   	push   %rbp
    c31b:	48 89 e5             	mov    %rsp,%rbp
    c31e:	41 57                	push   %r15
    c320:	41 56                	push   %r14
    c322:	41 55                	push   %r13
    c324:	41 54                	push   %r12
    c326:	53                   	push   %rbx
    c327:	48 81 ec 98 06 00 00 	sub    $0x698,%rsp
    c32e:	89 f8                	mov    %edi,%eax
    c330:	66 89 85 4c f9 ff ff 	mov    %ax,-0x6b4(%rbp)
    c337:	64 48 8b 04 25 28 00 	mov    %fs:0x28,%rax
    c33e:	00 00 
    c340:	48 89 45 c8          	mov    %rax,-0x38(%rbp)
    c344:	31 c0                	xor    %eax,%eax
    c346:	48 c7 85 00 fa ff ff 	movq   $0x0,-0x600(%rbp)
    c34d:	00 00 00 00 
    c351:	48 8d 05 f8 7c 00 00 	lea    0x7cf8(%rip),%rax        # 14050 <g_29+0x10>
    c358:	48 89 85 08 fa ff ff 	mov    %rax,-0x5f8(%rbp)
    c35f:	c7 85 64 f9 ff ff 5c 	movl   $0x26c2bf5c,-0x69c(%rbp)
    c366:	bf c2 26 
    c369:	c7 85 88 f9 ff ff 28 	movl   $0x4608a628,-0x678(%rbp)
    c370:	a6 08 46 
    c373:	c7 85 8c f9 ff ff fd 	movl   $0xfffffffd,-0x674(%rbp)
    c37a:	ff ff ff 
    c37d:	c7 85 90 f9 ff ff 13 	movl   $0x7fd34c13,-0x670(%rbp)
    c384:	4c d3 7f 
    c387:	c7 85 94 f9 ff ff 4f 	movl   $0xc51ca54f,-0x66c(%rbp)
    c38e:	a5 1c c5 
    c391:	c7 85 80 f9 ff ff 0b 	movl   $0xe2f8be0b,-0x680(%rbp)
    c398:	be f8 e2 
    c39b:	66 c7 85 5c f9 ff ff 	movw   $0xd906,-0x6a4(%rbp)
    c3a2:	06 d9 
    c3a4:	66 c7 85 5e f9 ff ff 	movw   $0x570a,-0x6a2(%rbp)
    c3ab:	0a 57 
    c3ad:	48 8d 05 e4 a2 00 00 	lea    0xa2e4(%rip),%rax        # 16698 <g_1196+0x1f8>
    c3b4:	48 89 85 10 fa ff ff 	mov    %rax,-0x5f0(%rbp)
    c3bb:	66 c7 85 40 fb ff ff 	movw   $0xff41,-0x4c0(%rbp)
    c3c2:	41 ff 
    c3c4:	c6 85 42 fb ff ff ff 	movb   $0xff,-0x4be(%rbp)
    c3cb:	66 c7 85 43 fb ff ff 	movw   $0xff,-0x4bd(%rbp)
    c3d2:	ff 00 
    c3d4:	c6 85 45 fb ff ff 04 	movb   $0x4,-0x4bb(%rbp)
    c3db:	66 c7 85 46 fb ff ff 	movw   $0xff41,-0x4ba(%rbp)
    c3e2:	41 ff 
    c3e4:	c6 85 48 fb ff ff ff 	movb   $0xff,-0x4b8(%rbp)
    c3eb:	66 c7 85 49 fb ff ff 	movw   $0xff,-0x4b7(%rbp)
    c3f2:	ff 00 
    c3f4:	c6 85 4b fb ff ff 04 	movb   $0x4,-0x4b5(%rbp)
    c3fb:	66 c7 85 4c fb ff ff 	movw   $0xff41,-0x4b4(%rbp)
    c402:	41 ff 
    c404:	c6 85 4e fb ff ff ff 	movb   $0xff,-0x4b2(%rbp)
    c40b:	66 c7 85 4f fb ff ff 	movw   $0xff,-0x4b1(%rbp)
    c412:	ff 00 
    c414:	c6 85 51 fb ff ff 04 	movb   $0x4,-0x4af(%rbp)
    c41b:	66 c7 85 52 fb ff ff 	movw   $0xff41,-0x4ae(%rbp)
    c422:	41 ff 
    c424:	c6 85 54 fb ff ff ff 	movb   $0xff,-0x4ac(%rbp)
    c42b:	66 c7 85 55 fb ff ff 	movw   $0xff,-0x4ab(%rbp)
    c432:	ff 00 
    c434:	c6 85 57 fb ff ff 04 	movb   $0x4,-0x4a9(%rbp)
    c43b:	c7 85 98 f9 ff ff 7d 	movl   $0xfc97bb7d,-0x668(%rbp)
    c442:	bb 97 fc 
    c445:	48 8d 05 04 a0 00 00 	lea    0xa004(%rip),%rax        # 16450 <g_1121>
    c44c:	48 89 85 d0 f9 ff ff 	mov    %rax,-0x630(%rbp)
    c453:	48 8d 85 d0 f9 ff ff 	lea    -0x630(%rbp),%rax
    c45a:	48 89 85 d8 f9 ff ff 	mov    %rax,-0x628(%rbp)
    c461:	48 8d 85 d8 f9 ff ff 	lea    -0x628(%rbp),%rax
    c468:	48 89 85 18 fa ff ff 	mov    %rax,-0x5e8(%rbp)
    c46f:	48 8d 85 20 fb ff ff 	lea    -0x4e0(%rbp),%rax
    c476:	48 83 c0 04          	add    $0x4,%rax
    c47a:	48 89 85 20 fa ff ff 	mov    %rax,-0x5e0(%rbp)
    c481:	c7 85 84 f9 ff ff 00 	movl   $0x0,-0x67c(%rbp)
    c488:	00 00 00 
    c48b:	eb 1a                	jmp    c4a7 <func_69+0x191>
    c48d:	8b 85 84 f9 ff ff    	mov    -0x67c(%rbp),%eax
    c493:	48 98                	cltq   
    c495:	c7 84 85 18 fb ff ff 	movl   $0x5,-0x4e8(%rbp,%rax,4)
    c49c:	05 00 00 00 
    c4a0:	83 85 84 f9 ff ff 01 	addl   $0x1,-0x67c(%rbp)
    c4a7:	83 bd 84 f9 ff ff 01 	cmpl   $0x1,-0x67c(%rbp)
    c4ae:	7e dd                	jle    c48d <func_69+0x177>
    c4b0:	c7 85 84 f9 ff ff 00 	movl   $0x0,-0x67c(%rbp)
    c4b7:	00 00 00 
    c4ba:	eb 1a                	jmp    c4d6 <func_69+0x1c0>
    c4bc:	8b 85 84 f9 ff ff    	mov    -0x67c(%rbp),%eax
    c4c2:	48 98                	cltq   
    c4c4:	c7 84 85 20 fb ff ff 	movl   $0x75410587,-0x4e0(%rbp,%rax,4)
    c4cb:	87 05 41 75 
    c4cf:	83 85 84 f9 ff ff 01 	addl   $0x1,-0x67c(%rbp)
    c4d6:	83 bd 84 f9 ff ff 01 	cmpl   $0x1,-0x67c(%rbp)
    c4dd:	7e dd                	jle    c4bc <func_69+0x1a6>
    c4df:	c7 85 84 f9 ff ff 00 	movl   $0x0,-0x67c(%rbp)
    c4e6:	00 00 00 
    c4e9:	eb 1a                	jmp    c505 <func_69+0x1ef>
    c4eb:	8b 85 84 f9 ff ff    	mov    -0x67c(%rbp),%eax
    c4f1:	48 98                	cltq   
    c4f3:	c7 84 85 14 fb ff ff 	movl   $0xb8f39464,-0x4ec(%rbp,%rax,4)
    c4fa:	64 94 f3 b8 
    c4fe:	83 85 84 f9 ff ff 01 	addl   $0x1,-0x67c(%rbp)
    c505:	83 bd 84 f9 ff ff 00 	cmpl   $0x0,-0x67c(%rbp)
    c50c:	7e dd                	jle    c4eb <func_69+0x1d5>
    c50e:	90                   	nop
    c50f:	48 8b 85 00 fa ff ff 	mov    -0x600(%rbp),%rax
    c516:	48 3b 85 08 fa ff ff 	cmp    -0x5f8(%rbp),%rax
    c51d:	0f 85 e3 01 00 00    	jne    c706 <func_69+0x3f0>
    c523:	48 8d 85 64 f9 ff ff 	lea    -0x69c(%rbp),%rax
    c52a:	48 89 85 f8 f9 ff ff 	mov    %rax,-0x608(%rbp)
    c531:	48 8d 85 64 f9 ff ff 	lea    -0x69c(%rbp),%rax
    c538:	48 89 85 b0 fb ff ff 	mov    %rax,-0x450(%rbp)
    c53f:	48 8d 85 64 f9 ff ff 	lea    -0x69c(%rbp),%rax
    c546:	48 89 85 b8 fb ff ff 	mov    %rax,-0x448(%rbp)
    c54d:	48 8d 85 64 f9 ff ff 	lea    -0x69c(%rbp),%rax
    c554:	48 89 85 c0 fb ff ff 	mov    %rax,-0x440(%rbp)
    c55b:	48 8d 85 64 f9 ff ff 	lea    -0x69c(%rbp),%rax
    c562:	48 89 85 c8 fb ff ff 	mov    %rax,-0x438(%rbp)
    c569:	48 8d 85 64 f9 ff ff 	lea    -0x69c(%rbp),%rax
    c570:	48 89 85 d0 fb ff ff 	mov    %rax,-0x430(%rbp)
    c577:	48 8d 85 64 f9 ff ff 	lea    -0x69c(%rbp),%rax
    c57e:	48 89 85 d8 fb ff ff 	mov    %rax,-0x428(%rbp)
    c585:	c7 85 a0 f9 ff ff 00 	movl   $0x0,-0x660(%rbp)
    c58c:	00 00 00 
    c58f:	48 c7 05 8e 7a 00 00 	movq   $0xffffffffffffffe5,0x7a8e(%rip)        # 14028 <g_14>
    c596:	e5 ff ff ff 
    c59a:	e9 42 01 00 00       	jmpq   c6e1 <func_69+0x3cb>
    c59f:	48 8d 05 b2 7a 00 00 	lea    0x7ab2(%rip),%rax        # 14058 <g_29+0x18>
    c5a6:	48 89 85 00 fc ff ff 	mov    %rax,-0x400(%rbp)
    c5ad:	48 c7 85 08 fc ff ff 	movq   $0x0,-0x3f8(%rbp)
    c5b4:	00 00 00 00 
    c5b8:	48 c7 85 10 fc ff ff 	movq   $0x0,-0x3f0(%rbp)
    c5bf:	00 00 00 00 
    c5c3:	48 8d 05 8e 7a 00 00 	lea    0x7a8e(%rip),%rax        # 14058 <g_29+0x18>
    c5ca:	48 89 85 18 fc ff ff 	mov    %rax,-0x3e8(%rbp)
    c5d1:	48 c7 85 20 fc ff ff 	movq   $0x0,-0x3e0(%rbp)
    c5d8:	00 00 00 00 
    c5dc:	48 c7 85 28 fc ff ff 	movq   $0x0,-0x3d8(%rbp)
    c5e3:	00 00 00 00 
    c5e7:	48 8d 05 6a 7a 00 00 	lea    0x7a6a(%rip),%rax        # 14058 <g_29+0x18>
    c5ee:	48 89 85 30 fc ff ff 	mov    %rax,-0x3d0(%rbp)
    c5f5:	48 c7 85 38 fc ff ff 	movq   $0x0,-0x3c8(%rbp)
    c5fc:	00 00 00 00 
    c600:	48 c7 85 40 fc ff ff 	movq   $0x0,-0x3c0(%rbp)
    c607:	00 00 00 00 
    c60b:	48 8d 05 46 7a 00 00 	lea    0x7a46(%rip),%rax        # 14058 <g_29+0x18>
    c612:	48 89 85 48 fc ff ff 	mov    %rax,-0x3b8(%rbp)
    c619:	48 8d 05 40 7a 00 00 	lea    0x7a40(%rip),%rax        # 14060 <g_35>
    c620:	48 89 85 28 fa ff ff 	mov    %rax,-0x5d8(%rbp)
    c627:	c7 85 a4 f9 ff ff f2 	movl   $0x69502af2,-0x65c(%rbp)
    c62e:	2a 50 69 
    c631:	48 8d 05 38 a2 00 00 	lea    0xa238(%rip),%rax        # 16870 <g_1233>
    c638:	48 89 85 30 fa ff ff 	mov    %rax,-0x5d0(%rbp)
    c63f:	66 c7 05 18 7a 00 00 	movw   $0x0,0x7a18(%rip)        # 14060 <g_35>
    c646:	00 00 
    c648:	eb 5a                	jmp    c6a4 <func_69+0x38e>
    c64a:	48 8d 05 17 7a 00 00 	lea    0x7a17(%rip),%rax        # 14068 <g_47>
    c651:	48 89 85 38 fa ff ff 	mov    %rax,-0x5c8(%rbp)
    c658:	48 8d 05 41 80 00 00 	lea    0x8041(%rip),%rax        # 146a0 <g_341>
    c65f:	48 89 85 40 fa ff ff 	mov    %rax,-0x5c0(%rbp)
    c666:	c7 85 a8 f9 ff ff 01 	movl   $0x1,-0x658(%rbp)
    c66d:	00 00 00 
    c670:	48 c7 85 48 fa ff ff 	movq   $0x0,-0x5b8(%rbp)
    c677:	00 00 00 00 
    c67b:	48 8d 85 f8 f9 ff ff 	lea    -0x608(%rbp),%rax
    c682:	48 89 85 50 fa ff ff 	mov    %rax,-0x5b0(%rbp)
    c689:	0f b7 05 d0 79 00 00 	movzwl 0x79d0(%rip),%eax        # 14060 <g_35>
    c690:	98                   	cwtl   
    c691:	be 06 00 00 00       	mov    $0x6,%esi
    c696:	89 c7                	mov    %eax,%edi
    c698:	e8 33 c8 ff ff       	callq  8ed0 <safe_sub_func_uint32_t_u_u>
    c69d:	66 89 05 bc 79 00 00 	mov    %ax,0x79bc(%rip)        # 14060 <g_35>
    c6a4:	0f b7 05 b5 79 00 00 	movzwl 0x79b5(%rip),%eax        # 14060 <g_35>
    c6ab:	66 83 f8 e2          	cmp    $0xffe2,%ax
    c6af:	75 99                	jne    c64a <func_69+0x334>
    c6b1:	48 8b 15 b8 a1 00 00 	mov    0xa1b8(%rip),%rdx        # 16870 <g_1233>
    c6b8:	48 8b 85 30 fa ff ff 	mov    -0x5d0(%rbp),%rax
    c6bf:	48 89 10             	mov    %rdx,(%rax)
    c6c2:	48 8b 05 5f 79 00 00 	mov    0x795f(%rip),%rax        # 14028 <g_14>
    c6c9:	98                   	cwtl   
    c6ca:	be 02 00 00 00       	mov    $0x2,%esi
    c6cf:	89 c7                	mov    %eax,%edi
    c6d1:	e8 dd bc ff ff       	callq  83b3 <safe_add_func_int16_t_s_s>
    c6d6:	48 0f bf c0          	movswq %ax,%rax
    c6da:	48 89 05 47 79 00 00 	mov    %rax,0x7947(%rip)        # 14028 <g_14>
    c6e1:	48 8b 05 40 79 00 00 	mov    0x7940(%rip),%rax        # 14028 <g_14>
    c6e8:	48 83 f8 e6          	cmp    $0xffffffffffffffe6,%rax
    c6ec:	0f 8d ad fe ff ff    	jge    c59f <func_69+0x289>
    c6f2:	8b 85 24 fb ff ff    	mov    -0x4dc(%rbp),%eax
    c6f8:	83 c0 01             	add    $0x1,%eax
    c6fb:	89 85 24 fb ff ff    	mov    %eax,-0x4dc(%rbp)
    c701:	e9 90 01 00 00       	jmpq   c896 <func_69+0x580>
    c706:	c6 85 5a f9 ff ff 01 	movb   $0x1,-0x6a6(%rbp)
    c70d:	48 c7 05 c0 7c 00 00 	movq   $0xfffffffffffffff8,0x7cc0(%rip)        # 143d8 <g_250>
    c714:	f8 ff ff ff 
    c718:	e9 b4 00 00 00       	jmpq   c7d1 <func_69+0x4bb>
    c71d:	c7 85 9c f9 ff ff 01 	movl   $0x1,-0x664(%rbp)
    c724:	00 00 00 
    c727:	66 83 bd 4c f9 ff ff 	cmpw   $0x0,-0x6b4(%rbp)
    c72e:	00 
    c72f:	0f 85 af 00 00 00    	jne    c7e4 <func_69+0x4ce>
    c735:	83 ad 9c f9 ff ff 01 	subl   $0x1,-0x664(%rbp)
    c73c:	48 8b 05 f5 a0 00 00 	mov    0xa0f5(%rip),%rax        # 16838 <g_1223>
    c743:	48 8b 00             	mov    (%rax),%rax
    c746:	48 8b 00             	mov    (%rax),%rax
    c749:	0f b7 95 5e f9 ff ff 	movzwl -0x6a2(%rbp),%edx
    c750:	89 10                	mov    %edx,(%rax)
    c752:	8b 00                	mov    (%rax),%eax
    c754:	89 c3                	mov    %eax,%ebx
    c756:	48 8d 05 1b 9d 00 00 	lea    0x9d1b(%rip),%rax        # 16478 <g_1193>
    c75d:	48 39 85 10 fa ff ff 	cmp    %rax,-0x5f0(%rbp)
    c764:	0f 94 c0             	sete   %al
    c767:	0f b6 c0             	movzbl %al,%eax
    c76a:	be 05 00 00 00       	mov    $0x5,%esi
    c76f:	89 c7                	mov    %eax,%edi
    c771:	e8 17 c5 ff ff       	callq  8c8d <safe_rshift_func_uint8_t_u_s>
    c776:	89 c2                	mov    %eax,%edx
    c778:	48 8b 05 d9 a0 00 00 	mov    0xa0d9(%rip),%rax        # 16858 <g_1226>
    c77f:	09 da                	or     %ebx,%edx
    c781:	88 10                	mov    %dl,(%rax)
    c783:	0f b6 00             	movzbl (%rax),%eax
    c786:	0f be c0             	movsbl %al,%eax
    c789:	be 07 00 00 00       	mov    $0x7,%esi
    c78e:	89 c7                	mov    %eax,%edi
    c790:	e8 0c bb ff ff       	callq  82a1 <safe_lshift_func_int8_t_s_s>
    c795:	48 8b 15 b4 9c 00 00 	mov    0x9cb4(%rip),%rdx        # 16450 <g_1121>
    c79c:	48 8b 12             	mov    (%rdx),%rdx
    c79f:	8b 0a                	mov    (%rdx),%ecx
    c7a1:	0f be d0             	movsbl %al,%edx
    c7a4:	48 8b 05 a5 9c 00 00 	mov    0x9ca5(%rip),%rax        # 16450 <g_1121>
    c7ab:	48 8b 00             	mov    (%rax),%rax
    c7ae:	31 ca                	xor    %ecx,%edx
    c7b0:	89 10                	mov    %edx,(%rax)
    c7b2:	48 8b 05 1f 7c 00 00 	mov    0x7c1f(%rip),%rax        # 143d8 <g_250>
    c7b9:	98                   	cwtl   
    c7ba:	be 07 00 00 00       	mov    $0x7,%esi
    c7bf:	89 c7                	mov    %eax,%edi
    c7c1:	e8 0d bc ff ff       	callq  83d3 <safe_sub_func_int16_t_s_s>
    c7c6:	48 0f bf c0          	movswq %ax,%rax
    c7ca:	48 89 05 07 7c 00 00 	mov    %rax,0x7c07(%rip)        # 143d8 <g_250>
    c7d1:	48 8b 05 00 7c 00 00 	mov    0x7c00(%rip),%rax        # 143d8 <g_250>
    c7d8:	48 83 f8 e4          	cmp    $0xffffffffffffffe4,%rax
    c7dc:	0f 84 3b ff ff ff    	je     c71d <func_69+0x407>
    c7e2:	eb 01                	jmp    c7e5 <func_69+0x4cf>
    c7e4:	90                   	nop
    c7e5:	c6 05 6c 7f 00 00 00 	movb   $0x0,0x7f6c(%rip)        # 14758 <g_745>
    c7ec:	90                   	nop
    c7ed:	0f b6 05 64 7f 00 00 	movzbl 0x7f64(%rip),%eax        # 14758 <g_745>
    c7f4:	3c 15                	cmp    $0x15,%al
    c7f6:	7e 44                	jle    c83c <func_69+0x526>
    c7f8:	0f b7 95 5e f9 ff ff 	movzwl -0x6a2(%rbp),%edx
    c7ff:	48 8b 05 b2 9b 00 00 	mov    0x9bb2(%rip),%rax        # 163b8 <g_1042>
    c806:	48 8b 08             	mov    (%rax),%rcx
    c809:	48 83 c1 01          	add    $0x1,%rcx
    c80d:	48 89 08             	mov    %rcx,(%rax)
    c810:	48 8b 00             	mov    (%rax),%rax
    c813:	48 89 d6             	mov    %rdx,%rsi
    c816:	48 89 c7             	mov    %rax,%rdi
    c819:	e8 2d c8 ff ff       	callq  904b <safe_sub_func_uint64_t_u_u>
    c81e:	48 89 c2             	mov    %rax,%rdx
    c821:	48 8b 05 10 a0 00 00 	mov    0xa010(%rip),%rax        # 16838 <g_1223>
    c828:	48 8b 00             	mov    (%rax),%rax
    c82b:	48 8b 00             	mov    (%rax),%rax
    c82e:	89 10                	mov    %edx,(%rax)
    c830:	48 8b 05 f1 77 00 00 	mov    0x77f1(%rip),%rax        # 14028 <g_14>
    c837:	e9 09 11 00 00       	jmpq   d945 <func_69+0x162f>
    c83c:	48 8b 05 0d 9c 00 00 	mov    0x9c0d(%rip),%rax        # 16450 <g_1121>
    c843:	48 8b 00             	mov    (%rax),%rax
    c846:	8b 08                	mov    (%rax),%ecx
    c848:	0f b6 95 5a f9 ff ff 	movzbl -0x6a6(%rbp),%edx
    c84f:	48 8b 05 fa 9b 00 00 	mov    0x9bfa(%rip),%rax        # 16450 <g_1121>
    c856:	48 8b 00             	mov    (%rax),%rax
    c859:	21 ca                	and    %ecx,%edx
    c85b:	89 10                	mov    %edx,(%rax)
    c85d:	0f b7 85 4c f9 ff ff 	movzwl -0x6b4(%rbp),%eax
    c864:	0f be c0             	movsbl %al,%eax
    c867:	be 03 00 00 00       	mov    $0x3,%esi
    c86c:	89 c7                	mov    %eax,%edi
    c86e:	e8 2e ba ff ff       	callq  82a1 <safe_lshift_func_int8_t_s_s>
    c873:	48 8b 15 be 9f 00 00 	mov    0x9fbe(%rip),%rdx        # 16838 <g_1223>
    c87a:	48 8b 12             	mov    (%rdx),%rdx
    c87d:	48 8b 12             	mov    (%rdx),%rdx
    c880:	8b 0a                	mov    (%rdx),%ecx
    c882:	0f be d0             	movsbl %al,%edx
    c885:	48 8b 05 ac 9f 00 00 	mov    0x9fac(%rip),%rax        # 16838 <g_1223>
    c88c:	48 8b 00             	mov    (%rax),%rax
    c88f:	48 8b 00             	mov    (%rax),%rax
    c892:	31 ca                	xor    %ecx,%edx
    c894:	89 10                	mov    %edx,(%rax)
    c896:	8b 05 d0 7e 00 00    	mov    0x7ed0(%rip),%eax        # 1476c <g_1266>
    c89c:	85 c0                	test   %eax,%eax
    c89e:	0f 84 81 10 00 00    	je     d925 <func_69+0x160f>
    c8a4:	c7 85 ac f9 ff ff 1d 	movl   $0x5732241d,-0x654(%rbp)
    c8ab:	24 32 57 
    c8ae:	66 c7 85 60 f9 ff ff 	movw   $0xc13c,-0x6a0(%rbp)
    c8b5:	3c c1 
    c8b7:	48 8d 05 8c 7b 00 00 	lea    0x7b8c(%rip),%rax        # 1444a <g_253+0x4a>
    c8be:	48 89 85 58 fa ff ff 	mov    %rax,-0x5a8(%rbp)
    c8c5:	48 8d 05 74 9b 00 00 	lea    0x9b74(%rip),%rax        # 16440 <g_1100+0x20>
    c8cc:	48 89 85 e0 f9 ff ff 	mov    %rax,-0x620(%rbp)
    c8d3:	48 8d 85 e0 f9 ff ff 	lea    -0x620(%rbp),%rax
    c8da:	48 89 85 60 fa ff ff 	mov    %rax,-0x5a0(%rbp)
    c8e1:	48 c7 85 68 fa ff ff 	movq   $0x0,-0x598(%rbp)
    c8e8:	00 00 00 00 
    c8ec:	c7 85 68 f9 ff ff 00 	movl   $0x0,-0x698(%rbp)
    c8f3:	00 00 00 
    c8f6:	c7 85 b0 f9 ff ff 5d 	movl   $0xe358a5d,-0x650(%rbp)
    c8fd:	8a 35 0e 
    c900:	c7 85 6c f9 ff ff c6 	movl   $0x907989c6,-0x694(%rbp)
    c907:	89 79 90 
    c90a:	c7 85 70 f9 ff ff b2 	movl   $0xb2b5f1b2,-0x690(%rbp)
    c911:	f1 b5 b2 
    c914:	48 c7 85 70 fa ff ff 	movq   $0x0,-0x590(%rbp)
    c91b:	00 00 00 00 
    c91f:	66 c7 85 62 f9 ff ff 	movw   $0x45b8,-0x69e(%rbp)
    c926:	b8 45 
    c928:	48 8d 05 f9 76 00 00 	lea    0x76f9(%rip),%rax        # 14028 <g_14>
    c92f:	48 89 85 e8 f9 ff ff 	mov    %rax,-0x618(%rbp)
    c936:	48 8d 85 e8 f9 ff ff 	lea    -0x618(%rbp),%rax
    c93d:	48 89 85 60 fb ff ff 	mov    %rax,-0x4a0(%rbp)
    c944:	48 8d 85 e8 f9 ff ff 	lea    -0x618(%rbp),%rax
    c94b:	48 89 85 68 fb ff ff 	mov    %rax,-0x498(%rbp)
    c952:	48 8d 85 e8 f9 ff ff 	lea    -0x618(%rbp),%rax
    c959:	48 89 85 70 fb ff ff 	mov    %rax,-0x490(%rbp)
    c960:	48 8d 85 e8 f9 ff ff 	lea    -0x618(%rbp),%rax
    c967:	48 89 85 78 fb ff ff 	mov    %rax,-0x488(%rbp)
    c96e:	48 8d 85 e8 f9 ff ff 	lea    -0x618(%rbp),%rax
    c975:	48 89 85 80 fb ff ff 	mov    %rax,-0x480(%rbp)
    c97c:	48 8d 85 e8 f9 ff ff 	lea    -0x618(%rbp),%rax
    c983:	48 89 85 88 fb ff ff 	mov    %rax,-0x478(%rbp)
    c98a:	48 8d 85 e8 f9 ff ff 	lea    -0x618(%rbp),%rax
    c991:	48 89 85 90 fb ff ff 	mov    %rax,-0x470(%rbp)
    c998:	48 8d 85 e8 f9 ff ff 	lea    -0x618(%rbp),%rax
    c99f:	48 89 85 98 fb ff ff 	mov    %rax,-0x468(%rbp)
    c9a6:	48 8d 85 e8 f9 ff ff 	lea    -0x618(%rbp),%rax
    c9ad:	48 89 85 a0 fb ff ff 	mov    %rax,-0x460(%rbp)
    c9b4:	48 8d 05 85 a5 00 00 	lea    0xa585(%rip),%rax        # 16f40 <g_1514>
    c9bb:	48 89 85 78 fa ff ff 	mov    %rax,-0x588(%rbp)
    c9c2:	48 0f bf 9d 4c f9 ff 	movswq -0x6b4(%rbp),%rbx
    c9c9:	ff 
    c9ca:	be 03 00 00 00       	mov    $0x3,%esi
    c9cf:	bf 01 00 00 00       	mov    $0x1,%edi
    c9d4:	e8 2c c2 ff ff       	callq  8c05 <safe_lshift_func_uint8_t_u_s>
    c9d9:	0f b6 95 4a fb ff ff 	movzbl -0x4b6(%rbp),%edx
    c9e0:	38 d0                	cmp    %dl,%al
    c9e2:	0f 93 c0             	setae  %al
    c9e5:	0f b6 c0             	movzbl %al,%eax
    c9e8:	48 89 de             	mov    %rbx,%rsi
    c9eb:	48 89 c7             	mov    %rax,%rdi
    c9ee:	e8 3b c6 ff ff       	callq  902e <safe_add_func_uint64_t_u_u>
    c9f3:	89 c2                	mov    %eax,%edx
    c9f5:	0f b7 85 4c f9 ff ff 	movzwl -0x6b4(%rbp),%eax
    c9fc:	21 c2                	and    %eax,%edx
    c9fe:	48 8b 85 58 fa ff ff 	mov    -0x5a8(%rbp),%rax
    ca05:	66 89 10             	mov    %dx,(%rax)
    ca08:	48 8b 85 58 fa ff ff 	mov    -0x5a8(%rbp),%rax
    ca0f:	0f b7 00             	movzwl (%rax),%eax
    ca12:	0f b7 d0             	movzwl %ax,%edx
    ca15:	8b 05 75 76 00 00    	mov    0x7675(%rip),%eax        # 14090 <g_109+0x10>
    ca1b:	21 d0                	and    %edx,%eax
    ca1d:	85 c0                	test   %eax,%eax
    ca1f:	74 08                	je     ca29 <func_69+0x713>
    ca21:	66 83 bd 4c f9 ff ff 	cmpw   $0x0,-0x6b4(%rbp)
    ca28:	00 
    ca29:	48 8b 05 90 99 00 00 	mov    0x9990(%rip),%rax        # 163c0 <g_1041>
    ca30:	48 8b 00             	mov    (%rax),%rax
    ca33:	8b 95 ac f9 ff ff    	mov    -0x654(%rbp),%edx
    ca39:	48 89 10             	mov    %rdx,(%rax)
    ca3c:	48 8b 10             	mov    (%rax),%rdx
    ca3f:	0f b7 85 60 f9 ff ff 	movzwl -0x6a0(%rbp),%eax
    ca46:	48 39 c2             	cmp    %rax,%rdx
    ca49:	0f 92 c0             	setb   %al
    ca4c:	0f b6 c8             	movzbl %al,%ecx
    ca4f:	48 8b 05 e2 9d 00 00 	mov    0x9de2(%rip),%rax        # 16838 <g_1223>
    ca56:	48 8b 00             	mov    (%rax),%rax
    ca59:	48 8b 00             	mov    (%rax),%rax
    ca5c:	8b 10                	mov    (%rax),%edx
    ca5e:	48 8b 05 d3 9d 00 00 	mov    0x9dd3(%rip),%rax        # 16838 <g_1223>
    ca65:	48 8b 00             	mov    (%rax),%rax
    ca68:	48 8b 00             	mov    (%rax),%rax
    ca6b:	21 ca                	and    %ecx,%edx
    ca6d:	89 10                	mov    %edx,(%rax)
    ca6f:	48 83 bd 60 fa ff ff 	cmpq   $0x0,-0x5a0(%rbp)
    ca76:	00 
    ca77:	0f 84 50 07 00 00    	je     d1cd <func_69+0xeb7>
    ca7d:	c6 85 5b f9 ff ff 01 	movb   $0x1,-0x6a5(%rbp)
    ca84:	48 8d 05 a5 9d 00 00 	lea    0x9da5(%rip),%rax        # 16830 <g_1224>
    ca8b:	48 89 85 d0 fa ff ff 	mov    %rax,-0x530(%rbp)
    ca92:	48 c7 85 d8 fa ff ff 	movq   $0x0,-0x528(%rbp)
    ca99:	00 00 00 00 
    ca9d:	48 8d 05 a0 78 00 00 	lea    0x78a0(%rip),%rax        # 14344 <g_112+0x244>
    caa4:	48 89 85 e0 fa ff ff 	mov    %rax,-0x520(%rbp)
    caab:	48 c7 85 e8 fa ff ff 	movq   $0x0,-0x518(%rbp)
    cab2:	00 00 00 00 
    cab6:	48 8d 85 64 f9 ff ff 	lea    -0x69c(%rbp),%rax
    cabd:	48 89 85 f0 fa ff ff 	mov    %rax,-0x510(%rbp)
    cac4:	c7 85 74 f9 ff ff 00 	movl   $0x0,-0x68c(%rbp)
    cacb:	00 00 00 
    cace:	eb 1e                	jmp    caee <func_69+0x7d8>
    cad0:	8b 85 74 f9 ff ff    	mov    -0x68c(%rbp),%eax
    cad6:	48 98                	cltq   
    cad8:	48 8d 15 65 78 00 00 	lea    0x7865(%rip),%rdx        # 14344 <g_112+0x244>
    cadf:	48 89 94 c5 b0 fb ff 	mov    %rdx,-0x450(%rbp,%rax,8)
    cae6:	ff 
    cae7:	83 85 74 f9 ff ff 01 	addl   $0x1,-0x68c(%rbp)
    caee:	83 bd 74 f9 ff ff 08 	cmpl   $0x8,-0x68c(%rbp)
    caf5:	7e d9                	jle    cad0 <func_69+0x7ba>
    caf7:	c7 85 80 f9 ff ff 00 	movl   $0x0,-0x680(%rbp)
    cafe:	00 00 00 
    cb01:	e9 ae 06 00 00       	jmpq   d1b4 <func_69+0xe9e>
    cb06:	c7 85 c4 f9 ff ff b3 	movl   $0xbbb171b3,-0x63c(%rbp)
    cb0d:	71 b1 bb 
    cb10:	c7 85 c8 f9 ff ff fb 	movl   $0xfffffffb,-0x638(%rbp)
    cb17:	ff ff ff 
    cb1a:	c7 85 78 f9 ff ff 00 	movl   $0x0,-0x688(%rbp)
    cb21:	00 00 00 
    cb24:	eb 1a                	jmp    cb40 <func_69+0x82a>
    cb26:	8b 85 78 f9 ff ff    	mov    -0x688(%rbp),%eax
    cb2c:	48 98                	cltq   
    cb2e:	c7 84 85 28 fb ff ff 	movl   $0x4,-0x4d8(%rbp,%rax,4)
    cb35:	04 00 00 00 
    cb39:	83 85 78 f9 ff ff 01 	addl   $0x1,-0x688(%rbp)
    cb40:	83 bd 78 f9 ff ff 01 	cmpl   $0x1,-0x688(%rbp)
    cb47:	7e dd                	jle    cb26 <func_69+0x810>
    cb49:	80 bd 5b f9 ff ff 00 	cmpb   $0x0,-0x6a5(%rbp)
    cb50:	74 1a                	je     cb6c <func_69+0x856>
    cb52:	be 00 00 00 00       	mov    $0x0,%esi
    cb57:	bf 01 00 00 00       	mov    $0x1,%edi
    cb5c:	e8 32 c0 ff ff       	callq  8b93 <safe_mul_func_uint8_t_u_u>
    cb61:	84 c0                	test   %al,%al
    cb63:	74 07                	je     cb6c <func_69+0x856>
    cb65:	b9 01 00 00 00       	mov    $0x1,%ecx
    cb6a:	eb 05                	jmp    cb71 <func_69+0x85b>
    cb6c:	b9 00 00 00 00       	mov    $0x0,%ecx
    cb71:	48 8b 05 b8 9c 00 00 	mov    0x9cb8(%rip),%rax        # 16830 <g_1224>
    cb78:	48 8b 00             	mov    (%rax),%rax
    cb7b:	8b 10                	mov    (%rax),%edx
    cb7d:	48 8b 05 ac 9c 00 00 	mov    0x9cac(%rip),%rax        # 16830 <g_1224>
    cb84:	48 8b 00             	mov    (%rax),%rax
    cb87:	31 ca                	xor    %ecx,%edx
    cb89:	89 10                	mov    %edx,(%rax)
    cb8b:	48 8b 15 9e 9c 00 00 	mov    0x9c9e(%rip),%rdx        # 16830 <g_1224>
    cb92:	48 8b 05 9f 9c 00 00 	mov    0x9c9f(%rip),%rax        # 16838 <g_1223>
    cb99:	48 8b 00             	mov    (%rax),%rax
    cb9c:	48 8b 12             	mov    (%rdx),%rdx
    cb9f:	48 89 10             	mov    %rdx,(%rax)
    cba2:	44 0f bf ad 4c f9 ff 	movswl -0x6b4(%rbp),%r13d
    cba9:	ff 
    cbaa:	83 bd ac f9 ff ff 00 	cmpl   $0x0,-0x654(%rbp)
    cbb1:	0f 85 f7 00 00 00    	jne    ccae <func_69+0x998>
    cbb7:	8b 85 ac f9 ff ff    	mov    -0x654(%rbp),%eax
    cbbd:	0f be c0             	movsbl %al,%eax
    cbc0:	89 c6                	mov    %eax,%esi
    cbc2:	bf 01 00 00 00       	mov    $0x1,%edi
    cbc7:	e8 9e b6 ff ff       	callq  826a <safe_div_func_int8_t_s_s>
    cbcc:	0f be d0             	movsbl %al,%edx
    cbcf:	0f bf 85 4c f9 ff ff 	movswl -0x6b4(%rbp),%eax
    cbd6:	21 d0                	and    %edx,%eax
    cbd8:	85 c0                	test   %eax,%eax
    cbda:	0f 94 c0             	sete   %al
    cbdd:	44 0f b6 f0          	movzbl %al,%r14d
    cbe1:	0f b7 9d 60 f9 ff ff 	movzwl -0x6a0(%rbp),%ebx
    cbe8:	48 8b 05 c9 97 00 00 	mov    0x97c9(%rip),%rax        # 163b8 <g_1042>
    cbef:	48 8b 00             	mov    (%rax),%rax
    cbf2:	49 89 c7             	mov    %rax,%r15
    cbf5:	0f b7 85 4c f9 ff ff 	movzwl -0x6b4(%rbp),%eax
    cbfc:	44 0f b7 e0          	movzwl %ax,%r12d
    cc00:	83 bd c4 f9 ff ff 01 	cmpl   $0x1,-0x63c(%rbp)
    cc07:	0f 94 c0             	sete   %al
    cc0a:	0f b6 d0             	movzbl %al,%edx
    cc0d:	48 8b 05 6c 98 00 00 	mov    0x986c(%rip),%rax        # 16480 <g_1197>
    cc14:	0f b6 00             	movzbl (%rax),%eax
    cc17:	0f be c0             	movsbl %al,%eax
    cc1a:	31 c2                	xor    %eax,%edx
    cc1c:	0f bf 85 4c f9 ff ff 	movswl -0x6b4(%rbp),%eax
    cc23:	39 c2                	cmp    %eax,%edx
    cc25:	0f 95 c0             	setne  %al
    cc28:	0f b6 c0             	movzbl %al,%eax
    cc2b:	be cc 80 ff ff       	mov    $0xffff80cc,%esi
    cc30:	89 c7                	mov    %eax,%edi
    cc32:	e8 1e b8 ff ff       	callq  8455 <safe_div_func_int16_t_s_s>
    cc37:	89 c2                	mov    %eax,%edx
    cc39:	48 8b 05 e8 9b 00 00 	mov    0x9be8(%rip),%rax        # 16828 <g_1216>
    cc40:	48 8b 00             	mov    (%rax),%rax
    cc43:	0f bf d2             	movswl %dx,%edx
    cc46:	89 10                	mov    %edx,(%rax)
    cc48:	44 89 e6             	mov    %r12d,%esi
    cc4b:	bf f8 ff 00 00       	mov    $0xfff8,%edi
    cc50:	e8 07 c1 ff ff       	callq  8d5c <safe_mod_func_uint16_t_u_u>
    cc55:	0f b7 c0             	movzwl %ax,%eax
    cc58:	39 85 c4 f9 ff ff    	cmp    %eax,-0x63c(%rbp)
    cc5e:	0f 95 c0             	setne  %al
    cc61:	0f b6 c0             	movzbl %al,%eax
    cc64:	be 0c 00 00 00       	mov    $0xc,%esi
    cc69:	89 c7                	mov    %eax,%edi
    cc6b:	e8 0a c2 ff ff       	callq  8e7a <safe_rshift_func_uint16_t_u_u>
    cc70:	4c 89 fe             	mov    %r15,%rsi
    cc73:	48 bf c6 8d b2 3a c6 	movabs $0x7c4472c63ab28dc6,%rdi
    cc7a:	72 44 7c 
    cc7d:	e8 26 bc ff ff       	callq  88a8 <safe_sub_func_int64_t_s_s>
    cc82:	48 89 de             	mov    %rbx,%rsi
    cc85:	48 89 c7             	mov    %rax,%rdi
    cc88:	e8 1b bc ff ff       	callq  88a8 <safe_sub_func_int64_t_s_s>
    cc8d:	49 39 c6             	cmp    %rax,%r14
    cc90:	0f 9e c0             	setle  %al
    cc93:	0f b6 c0             	movzbl %al,%eax
    cc96:	be 0a 00 00 00       	mov    $0xa,%esi
    cc9b:	89 c7                	mov    %eax,%edi
    cc9d:	e8 1c c1 ff ff       	callq  8dbe <safe_lshift_func_uint16_t_u_s>
    cca2:	66 85 c0             	test   %ax,%ax
    cca5:	74 07                	je     ccae <func_69+0x998>
    cca7:	b8 01 00 00 00       	mov    $0x1,%eax
    ccac:	eb 05                	jmp    ccb3 <func_69+0x99d>
    ccae:	b8 00 00 00 00       	mov    $0x0,%eax
    ccb3:	83 f8 f9             	cmp    $0xfffffff9,%eax
    ccb6:	74 10                	je     ccc8 <func_69+0x9b2>
    ccb8:	83 bd c4 f9 ff ff 00 	cmpl   $0x0,-0x63c(%rbp)
    ccbf:	75 07                	jne    ccc8 <func_69+0x9b2>
    ccc1:	b8 01 00 00 00       	mov    $0x1,%eax
    ccc6:	eb 05                	jmp    cccd <func_69+0x9b7>
    ccc8:	b8 00 00 00 00       	mov    $0x0,%eax
    cccd:	44 39 e8             	cmp    %r13d,%eax
    ccd0:	0f 8f 38 03 00 00    	jg     d00e <func_69+0xcf8>
    ccd6:	c7 85 cc f9 ff ff 03 	movl   $0x3,-0x634(%rbp)
    ccdd:	00 00 00 
    cce0:	48 8d 85 00 fc ff ff 	lea    -0x400(%rbp),%rax
    cce7:	48 8d 15 12 7b 00 00 	lea    0x7b12(%rip),%rdx        # 14800 <g_2688+0xe>
    ccee:	b9 78 00 00 00       	mov    $0x78,%ecx
    ccf3:	48 89 c7             	mov    %rax,%rdi
    ccf6:	48 89 d6             	mov    %rdx,%rsi
    ccf9:	f3 48 a5             	rep movsq %ds:(%rsi),%es:(%rdi)
    ccfc:	48 c7 05 21 73 00 00 	movq   $0x0,0x7321(%rip)        # 14028 <g_14>
    cd03:	00 00 00 00 
    cd07:	90                   	nop
    cd08:	48 8b 05 19 73 00 00 	mov    0x7319(%rip),%rax        # 14028 <g_14>
    cd0f:	48 83 f8 09          	cmp    $0x9,%rax
    cd13:	75 0d                	jne    cd22 <func_69+0xa0c>
    cd15:	48 0f bf 85 4c f9 ff 	movswq -0x6b4(%rbp),%rax
    cd1c:	ff 
    cd1d:	e9 23 0c 00 00       	jmpq   d945 <func_69+0x162f>
    cd22:	66 83 bd 4c f9 ff ff 	cmpw   $0x0,-0x6b4(%rbp)
    cd29:	00 
    cd2a:	0f 85 66 04 00 00    	jne    d196 <func_69+0xe80>
    cd30:	48 c7 05 0d 7a 00 00 	movq   $0x0,0x7a0d(%rip)        # 14748 <g_575>
    cd37:	00 00 00 00 
    cd3b:	e9 bb 02 00 00       	jmpq   cffb <func_69+0xce5>
    cd40:	c7 85 7c f9 ff ff 00 	movl   $0x0,-0x684(%rbp)
    cd47:	00 00 00 
    cd4a:	eb 1a                	jmp    cd66 <func_69+0xa50>
    cd4c:	8b 85 7c f9 ff ff    	mov    -0x684(%rbp),%eax
    cd52:	48 98                	cltq   
    cd54:	c7 84 85 30 fb ff ff 	movl   $0x2625e423,-0x4d0(%rbp,%rax,4)
    cd5b:	23 e4 25 26 
    cd5f:	83 85 7c f9 ff ff 01 	addl   $0x1,-0x684(%rbp)
    cd66:	83 bd 7c f9 ff ff 03 	cmpl   $0x3,-0x684(%rbp)
    cd6d:	7e dd                	jle    cd4c <func_69+0xa36>
    cd6f:	0f bf 9d 4c f9 ff ff 	movswl -0x6b4(%rbp),%ebx
    cd76:	0f b6 05 d8 48 00 00 	movzbl 0x48d8(%rip),%eax        # 11655 <l_1336.4612+0x35>
    cd7d:	44 0f b6 e0          	movzbl %al,%r12d
    cd81:	48 8b 05 c8 96 00 00 	mov    0x96c8(%rip),%rax        # 16450 <g_1121>
    cd88:	48 8b 00             	mov    (%rax),%rax
    cd8b:	8b 00                	mov    (%rax),%eax
    cd8d:	89 c6                	mov    %eax,%esi
    cd8f:	48 8b 85 08 fa ff ff 	mov    -0x5f8(%rbp),%rax
    cd96:	8b 00                	mov    (%rax),%eax
    cd98:	8d 48 01             	lea    0x1(%rax),%ecx
    cd9b:	48 8b 95 08 fa ff ff 	mov    -0x5f8(%rbp),%rdx
    cda2:	89 0a                	mov    %ecx,(%rdx)
    cda4:	39 c6                	cmp    %eax,%esi
    cda6:	0f 92 c0             	setb   %al
    cda9:	44 0f b6 f0          	movzbl %al,%r14d
    cdad:	0f b6 85 4a fb ff ff 	movzbl -0x4b6(%rbp),%eax
    cdb4:	0f b6 c0             	movzbl %al,%eax
    cdb7:	be 0b 00 00 00       	mov    $0xb,%esi
    cdbc:	89 c7                	mov    %eax,%edi
    cdbe:	e8 b7 c0 ff ff       	callq  8e7a <safe_rshift_func_uint16_t_u_u>
    cdc3:	0f be c0             	movsbl %al,%eax
    cdc6:	be 06 00 00 00       	mov    $0x6,%esi
    cdcb:	89 c7                	mov    %eax,%edi
    cdcd:	e8 63 b5 ff ff       	callq  8335 <safe_rshift_func_int8_t_s_s>
    cdd2:	44 0f be f8          	movsbl %al,%r15d
    cdd6:	48 8b 05 6b 79 00 00 	mov    0x796b(%rip),%rax        # 14748 <g_575>
    cddd:	8b 84 85 20 fb ff ff 	mov    -0x4e0(%rbp,%rax,4),%eax
    cde4:	89 85 48 f9 ff ff    	mov    %eax,-0x6b8(%rbp)
    cdea:	44 0f bf ad 4c f9 ff 	movswl -0x6b4(%rbp),%r13d
    cdf1:	ff 
    cdf2:	0f b7 95 60 f9 ff ff 	movzwl -0x6a0(%rbp),%edx
    cdf9:	48 8d 05 b8 95 00 00 	lea    0x95b8(%rip),%rax        # 163b8 <g_1042>
    ce00:	48 39 85 68 fa ff ff 	cmp    %rax,-0x598(%rbp)
    ce07:	0f 94 c0             	sete   %al
    ce0a:	0f b6 c0             	movzbl %al,%eax
    ce0d:	39 85 cc f9 ff ff    	cmp    %eax,-0x634(%rbp)
    ce13:	0f 9e c0             	setle  %al
    ce16:	0f b6 c0             	movzbl %al,%eax
    ce19:	89 d6                	mov    %edx,%esi
    ce1b:	89 c7                	mov    %eax,%edi
    ce1d:	e8 dd b8 ff ff       	callq  86ff <safe_div_func_int32_t_s_s>
    ce22:	89 c2                	mov    %eax,%edx
    ce24:	8b 85 ac f9 ff ff    	mov    -0x654(%rbp),%eax
    ce2a:	31 d0                	xor    %edx,%eax
    ce2c:	98                   	cwtl   
    ce2d:	44 89 ee             	mov    %r13d,%esi
    ce30:	89 c7                	mov    %eax,%edi
    ce32:	e8 be b5 ff ff       	callq  83f5 <safe_mul_func_int16_t_s_s>
    ce37:	98                   	cwtl   
    ce38:	8b b5 48 f9 ff ff    	mov    -0x6b8(%rbp),%esi
    ce3e:	89 c7                	mov    %eax,%edi
    ce40:	e8 4d b6 ff ff       	callq  8492 <safe_lshift_func_int16_t_s_s>
    ce45:	0f b6 c0             	movzbl %al,%eax
    ce48:	be ff 00 00 00       	mov    $0xff,%esi
    ce4d:	89 c7                	mov    %eax,%edi
    ce4f:	e8 5a bd ff ff       	callq  8bae <safe_mod_func_uint8_t_u_u>
    ce54:	0f b6 c0             	movzbl %al,%eax
    ce57:	41 39 c7             	cmp    %eax,%r15d
    ce5a:	0f 9e c0             	setle  %al
    ce5d:	0f b6 c0             	movzbl %al,%eax
    ce60:	be 00 00 00 00       	mov    $0x0,%esi
    ce65:	89 c7                	mov    %eax,%edi
    ce67:	e8 52 bf ff ff       	callq  8dbe <safe_lshift_func_uint16_t_u_s>
    ce6c:	0f b7 c0             	movzwl %ax,%eax
    ce6f:	44 89 f2             	mov    %r14d,%edx
    ce72:	09 c2                	or     %eax,%edx
    ce74:	48 8b 85 d0 fa ff ff 	mov    -0x530(%rbp),%rax
    ce7b:	48 8b 00             	mov    (%rax),%rax
    ce7e:	48 8b 00             	mov    (%rax),%rax
    ce81:	8b 00                	mov    (%rax),%eax
    ce83:	39 c2                	cmp    %eax,%edx
    ce85:	0f 95 c0             	setne  %al
    ce88:	0f b6 d0             	movzbl %al,%edx
    ce8b:	48 8b 85 d0 fa ff ff 	mov    -0x530(%rbp),%rax
    ce92:	48 8b 00             	mov    (%rax),%rax
    ce95:	48 8b 00             	mov    (%rax),%rax
    ce98:	8b 00                	mov    (%rax),%eax
    ce9a:	39 c2                	cmp    %eax,%edx
    ce9c:	0f 9e c0             	setle  %al
    ce9f:	0f b6 c0             	movzbl %al,%eax
    cea2:	44 89 e6             	mov    %r12d,%esi
    cea5:	89 c7                	mov    %eax,%edi
    cea7:	e8 89 b4 ff ff       	callq  8335 <safe_rshift_func_int8_t_s_s>
    ceac:	48 8b 05 95 78 00 00 	mov    0x7895(%rip),%rax        # 14748 <g_575>
    ceb3:	8b 84 85 20 fb ff ff 	mov    -0x4e0(%rbp,%rax,4),%eax
    ceba:	83 f8 2b             	cmp    $0x2b,%eax
    cebd:	0f 95 c0             	setne  %al
    cec0:	0f b6 d0             	movzbl %al,%edx
    cec3:	0f b6 05 87 af 00 00 	movzbl 0xaf87(%rip),%eax        # 17e51 <g_181>
    ceca:	0f b6 c0             	movzbl %al,%eax
    cecd:	39 c2                	cmp    %eax,%edx
    cecf:	0f 94 c0             	sete   %al
    ced2:	0f b6 c0             	movzbl %al,%eax
    ced5:	89 de                	mov    %ebx,%esi
    ced7:	89 c7                	mov    %eax,%edi
    ced9:	e8 4c b6 ff ff       	callq  852a <safe_rshift_func_int16_t_s_s>
    cede:	0f b7 d8             	movzwl %ax,%ebx
    cee1:	48 83 bd d0 fa ff ff 	cmpq   $0x0,-0x530(%rbp)
    cee8:	00 
    cee9:	0f 94 c0             	sete   %al
    ceec:	44 0f b6 e0          	movzbl %al,%r12d
    cef0:	be 00 00 00 00       	mov    $0x0,%esi
    cef5:	bf a3 b1 00 00       	mov    $0xb1a3,%edi
    cefa:	e8 bf be ff ff       	callq  8dbe <safe_lshift_func_uint16_t_u_s>
    ceff:	44 31 e0             	xor    %r12d,%eax
    cf02:	0f b7 c0             	movzwl %ax,%eax
    cf05:	89 de                	mov    %ebx,%esi
    cf07:	89 c7                	mov    %eax,%edi
    cf09:	e8 4e be ff ff       	callq  8d5c <safe_mod_func_uint16_t_u_u>
    cf0e:	66 85 c0             	test   %ax,%ax
    cf11:	74 13                	je     cf26 <func_69+0xc10>
    cf13:	0f b7 05 f8 74 00 00 	movzwl 0x74f8(%rip),%eax        # 14412 <g_253+0x12>
    cf1a:	66 85 c0             	test   %ax,%ax
    cf1d:	74 07                	je     cf26 <func_69+0xc10>
    cf1f:	b8 01 00 00 00       	mov    $0x1,%eax
    cf24:	eb 05                	jmp    cf2b <func_69+0xc15>
    cf26:	b8 00 00 00 00       	mov    $0x0,%eax
    cf2b:	0f be c0             	movsbl %al,%eax
    cf2e:	be 27 00 00 00       	mov    $0x27,%esi
    cf33:	89 c7                	mov    %eax,%edi
    cf35:	e8 d8 b2 ff ff       	callq  8212 <safe_mul_func_int8_t_s_s>
    cf3a:	8b 95 34 fb ff ff    	mov    -0x4cc(%rbp),%edx
    cf40:	0f be c0             	movsbl %al,%eax
    cf43:	31 d0                	xor    %edx,%eax
    cf45:	89 85 34 fb ff ff    	mov    %eax,-0x4cc(%rbp)
    cf4b:	8b 05 17 78 00 00    	mov    0x7817(%rip),%eax        # 14768 <g_1124>
    cf51:	0f b6 c0             	movzbl %al,%eax
    cf54:	89 c6                	mov    %eax,%esi
    cf56:	bf f9 00 00 00       	mov    $0xf9,%edi
    cf5b:	e8 fa bb ff ff       	callq  8b5a <safe_add_func_uint8_t_u_u>
    cf60:	0f b6 d8             	movzbl %al,%ebx
    cf63:	48 8b 05 fe 94 00 00 	mov    0x94fe(%rip),%rax        # 16468 <g_1171>
    cf6a:	48 8b 00             	mov    (%rax),%rax
    cf6d:	48 8b 00             	mov    (%rax),%rax
    cf70:	0f b6 00             	movzbl (%rax),%eax
    cf73:	44 0f b6 e0          	movzbl %al,%r12d
    cf77:	8b 85 c4 f9 ff ff    	mov    -0x63c(%rbp),%eax
    cf7d:	4c 63 e8             	movslq %eax,%r13
    cf80:	48 8b 85 e0 fd ff ff 	mov    -0x220(%rbp),%rax
    cf87:	48 85 c0             	test   %rax,%rax
    cf8a:	0f 95 c0             	setne  %al
    cf8d:	0f b6 c0             	movzbl %al,%eax
    cf90:	8b 95 2c fb ff ff    	mov    -0x4d4(%rbp),%edx
    cf96:	89 d2                	mov    %edx,%edx
    cf98:	48 89 c6             	mov    %rax,%rsi
    cf9b:	48 89 d7             	mov    %rdx,%rdi
    cf9e:	e8 a8 c0 ff ff       	callq  904b <safe_sub_func_uint64_t_u_u>
    cfa3:	49 39 c5             	cmp    %rax,%r13
    cfa6:	0f 92 c2             	setb   %dl
    cfa9:	48 8b 05 a8 98 00 00 	mov    0x98a8(%rip),%rax        # 16858 <g_1226>
    cfb0:	88 10                	mov    %dl,(%rax)
    cfb2:	0f b6 00             	movzbl (%rax),%eax
    cfb5:	0f be c0             	movsbl %al,%eax
    cfb8:	41 39 c4             	cmp    %eax,%r12d
    cfbb:	0f 9c c0             	setl   %al
    cfbe:	0f b6 c0             	movzbl %al,%eax
    cfc1:	39 c3                	cmp    %eax,%ebx
    cfc3:	0f 95 c0             	setne  %al
    cfc6:	0f b6 c8             	movzbl %al,%ecx
    cfc9:	48 8b 85 d0 fa ff ff 	mov    -0x530(%rbp),%rax
    cfd0:	48 8b 00             	mov    (%rax),%rax
    cfd3:	48 8b 00             	mov    (%rax),%rax
    cfd6:	8b 10                	mov    (%rax),%edx
    cfd8:	48 8b 85 d0 fa ff ff 	mov    -0x530(%rbp),%rax
    cfdf:	48 8b 00             	mov    (%rax),%rax
    cfe2:	48 8b 00             	mov    (%rax),%rax
    cfe5:	31 ca                	xor    %ecx,%edx
    cfe7:	89 10                	mov    %edx,(%rax)
    cfe9:	48 8b 05 58 77 00 00 	mov    0x7758(%rip),%rax        # 14748 <g_575>
    cff0:	48 83 c0 01          	add    $0x1,%rax
    cff4:	48 89 05 4d 77 00 00 	mov    %rax,0x774d(%rip)        # 14748 <g_575>
    cffb:	48 8b 05 46 77 00 00 	mov    0x7746(%rip),%rax        # 14748 <g_575>
    d002:	48 83 f8 01          	cmp    $0x1,%rax
    d006:	0f 86 34 fd ff ff    	jbe    cd40 <func_69+0xa2a>
    d00c:	eb 0d                	jmp    d01b <func_69+0xd05>
    d00e:	48 0f bf 85 4c f9 ff 	movswq -0x6b4(%rbp),%rax
    d015:	ff 
    d016:	e9 2a 09 00 00       	jmpq   d945 <func_69+0x162f>
    d01b:	48 c7 05 da 76 00 00 	movq   $0x0,0x76da(%rip)        # 14700 <g_552>
    d022:	00 00 00 00 
    d026:	e9 5a 01 00 00       	jmpq   d185 <func_69+0xe6f>
    d02b:	48 8d 05 48 74 00 00 	lea    0x7448(%rip),%rax        # 1447a <g_295+0xa>
    d032:	48 89 85 f8 fa ff ff 	mov    %rax,-0x508(%rbp)
    d039:	48 8d 05 10 77 00 00 	lea    0x7710(%rip),%rax        # 14750 <g_646>
    d040:	48 89 85 00 fb ff ff 	mov    %rax,-0x500(%rbp)
    d047:	c6 05 32 ae 00 00 e7 	movb   $0xe7,0xae32(%rip)        # 17e80 <g_978>
    d04e:	eb 37                	jmp    d087 <func_69+0xd71>
    d050:	48 b8 39 eb 0b c1 3a 	movabs $0x751e563ac10beb39,%rax
    d057:	56 1e 75 
    d05a:	48 89 85 08 fb ff ff 	mov    %rax,-0x4f8(%rbp)
    d061:	48 83 85 08 fb ff ff 	addq   $0x1,-0x4f8(%rbp)
    d068:	01 
    d069:	0f b6 05 10 ae 00 00 	movzbl 0xae10(%rip),%eax        # 17e80 <g_978>
    d070:	48 0f be c0          	movsbq %al,%rax
    d074:	be 07 00 00 00       	mov    $0x7,%esi
    d079:	48 89 c7             	mov    %rax,%rdi
    d07c:	e8 c0 b7 ff ff       	callq  8841 <safe_add_func_int64_t_s_s>
    d081:	88 05 f9 ad 00 00    	mov    %al,0xadf9(%rip)        # 17e80 <g_978>
    d087:	0f b6 05 f2 ad 00 00 	movzbl 0xadf2(%rip),%eax        # 17e80 <g_978>
    d08e:	3c fd                	cmp    $0xfd,%al
    d090:	7c be                	jl     d050 <func_69+0xd3a>
    d092:	48 83 bd d8 fa ff ff 	cmpq   $0x0,-0x528(%rbp)
    d099:	00 
    d09a:	0f 85 a2 00 00 00    	jne    d142 <func_69+0xe2c>
    d0a0:	8b 85 c8 f9 ff ff    	mov    -0x638(%rbp),%eax
    d0a6:	89 c2                	mov    %eax,%edx
    d0a8:	48 8b 85 f8 fa ff ff 	mov    -0x508(%rbp),%rax
    d0af:	66 89 10             	mov    %dx,(%rax)
    d0b2:	48 8b 85 f8 fa ff ff 	mov    -0x508(%rbp),%rax
    d0b9:	0f b7 10             	movzwl (%rax),%edx
    d0bc:	48 8b 85 00 fb ff ff 	mov    -0x500(%rbp),%rax
    d0c3:	0f b7 00             	movzwl (%rax),%eax
    d0c6:	09 c2                	or     %eax,%edx
    d0c8:	48 8b 85 00 fb ff ff 	mov    -0x500(%rbp),%rax
    d0cf:	66 89 10             	mov    %dx,(%rax)
    d0d2:	48 8b 85 00 fb ff ff 	mov    -0x500(%rbp),%rax
    d0d9:	0f b7 00             	movzwl (%rax),%eax
    d0dc:	0f bf d8             	movswl %ax,%ebx
    d0df:	0f b7 85 4c f9 ff ff 	movzwl -0x6b4(%rbp),%eax
    d0e6:	0f b7 d0             	movzwl %ax,%edx
    d0e9:	0f b7 85 4c f9 ff ff 	movzwl -0x6b4(%rbp),%eax
    d0f0:	0f b7 c0             	movzwl %ax,%eax
    d0f3:	89 d6                	mov    %edx,%esi
    d0f5:	89 c7                	mov    %eax,%edi
    d0f7:	e8 92 bc ff ff       	callq  8d8e <safe_div_func_uint16_t_u_u>
    d0fc:	0f b6 c0             	movzbl %al,%eax
    d0ff:	be 02 00 00 00       	mov    $0x2,%esi
    d104:	89 c7                	mov    %eax,%edi
    d106:	e8 88 ba ff ff       	callq  8b93 <safe_mul_func_uint8_t_u_u>
    d10b:	0f b6 c0             	movzbl %al,%eax
    d10e:	89 de                	mov    %ebx,%esi
    d110:	89 c7                	mov    %eax,%edi
    d112:	e8 a7 bc ff ff       	callq  8dbe <safe_lshift_func_uint16_t_u_s>
    d117:	0f b7 c0             	movzwl %ax,%eax
    d11a:	f7 d0                	not    %eax
    d11c:	89 c3                	mov    %eax,%ebx
    d11e:	be 05 00 00 00       	mov    $0x5,%esi
    d123:	bf 2b c7 00 00       	mov    $0xc72b,%edi
    d128:	e8 1b bd ff ff       	callq  8e48 <safe_rshift_func_uint16_t_u_s>
    d12d:	0f b7 c0             	movzwl %ax,%eax
    d130:	89 c7                	mov    %eax,%edi
    d132:	e8 6f bd ff ff       	callq  8ea6 <safe_unary_minus_func_uint32_t_u>
    d137:	0f bf 95 4c f9 ff ff 	movswl -0x6b4(%rbp),%edx
    d13e:	21 d0                	and    %edx,%eax
    d140:	39 c3                	cmp    %eax,%ebx
    d142:	66 83 bd 4c f9 ff ff 	cmpw   $0x1,-0x6b4(%rbp)
    d149:	01 
    d14a:	0f 94 c2             	sete   %dl
    d14d:	48 8b 05 fc 96 00 00 	mov    0x96fc(%rip),%rax        # 16850 <g_1221>
    d154:	48 8b 00             	mov    (%rax),%rax
    d157:	48 8b 00             	mov    (%rax),%rax
    d15a:	48 8b 00             	mov    (%rax),%rax
    d15d:	48 8b 00             	mov    (%rax),%rax
    d160:	0f b6 d2             	movzbl %dl,%edx
    d163:	89 10                	mov    %edx,(%rax)
    d165:	48 8b 05 94 75 00 00 	mov    0x7594(%rip),%rax        # 14700 <g_552>
    d16c:	0f b7 c0             	movzwl %ax,%eax
    d16f:	be 09 00 00 00       	mov    $0x9,%esi
    d174:	89 c7                	mov    %eax,%edi
    d176:	e8 84 bb ff ff       	callq  8cff <safe_add_func_uint16_t_u_u>
    d17b:	0f b7 c0             	movzwl %ax,%eax
    d17e:	48 89 05 7b 75 00 00 	mov    %rax,0x757b(%rip)        # 14700 <g_552>
    d185:	48 8b 05 74 75 00 00 	mov    0x7574(%rip),%rax        # 14700 <g_552>
    d18c:	48 83 f8 10          	cmp    $0x10,%rax
    d190:	0f 8f 95 fe ff ff    	jg     d02b <func_69+0xd15>
    d196:	8b 85 80 f9 ff ff    	mov    -0x680(%rbp),%eax
    d19c:	0f b7 c0             	movzwl %ax,%eax
    d19f:	be 07 00 00 00       	mov    $0x7,%esi
    d1a4:	89 c7                	mov    %eax,%edi
    d1a6:	e8 74 bb ff ff       	callq  8d1f <safe_sub_func_uint16_t_u_u>
    d1ab:	0f b7 c0             	movzwl %ax,%eax
    d1ae:	89 85 80 f9 ff ff    	mov    %eax,-0x680(%rbp)
    d1b4:	83 bd 80 f9 ff ff e7 	cmpl   $0xffffffe7,-0x680(%rbp)
    d1bb:	0f 8c 45 f9 ff ff    	jl     cb06 <func_69+0x7f0>
    d1c1:	83 85 70 f9 ff ff 01 	addl   $0x1,-0x690(%rbp)
    d1c8:	e9 c4 05 00 00       	jmpq   d791 <func_69+0x147b>
    d1cd:	c7 85 b4 f9 ff ff 3a 	movl   $0x4a4e3b3a,-0x64c(%rbp)
    d1d4:	3b 4e 4a 
    d1d7:	c7 85 b0 fb ff ff 06 	movl   $0xca6ed906,-0x450(%rbp)
    d1de:	d9 6e ca 
    d1e1:	c7 85 b4 fb ff ff ff 	movl   $0xffffffff,-0x44c(%rbp)
    d1e8:	ff ff ff 
    d1eb:	c7 85 b8 fb ff ff ff 	movl   $0xffffffff,-0x448(%rbp)
    d1f2:	ff ff ff 
    d1f5:	c7 85 bc fb ff ff 06 	movl   $0xca6ed906,-0x444(%rbp)
    d1fc:	d9 6e ca 
    d1ff:	c7 85 c0 fb ff ff ff 	movl   $0xffffffff,-0x440(%rbp)
    d206:	ff ff ff 
    d209:	c7 85 c4 fb ff ff ff 	movl   $0xffffffff,-0x43c(%rbp)
    d210:	ff ff ff 
    d213:	48 8d 05 0e 8f 00 00 	lea    0x8f0e(%rip),%rax        # 16128 <g_41>
    d21a:	48 89 85 80 fa ff ff 	mov    %rax,-0x580(%rbp)
    d221:	48 8d 05 52 72 00 00 	lea    0x7252(%rip),%rax        # 1447a <g_295+0xa>
    d228:	48 89 85 00 fc ff ff 	mov    %rax,-0x400(%rbp)
    d22f:	48 8d 05 2a 6e 00 00 	lea    0x6e2a(%rip),%rax        # 14060 <g_35>
    d236:	48 89 85 08 fc ff ff 	mov    %rax,-0x3f8(%rbp)
    d23d:	48 8d 05 36 72 00 00 	lea    0x7236(%rip),%rax        # 1447a <g_295+0xa>
    d244:	48 89 85 10 fc ff ff 	mov    %rax,-0x3f0(%rbp)
    d24b:	48 8d 05 28 72 00 00 	lea    0x7228(%rip),%rax        # 1447a <g_295+0xa>
    d252:	48 89 85 18 fc ff ff 	mov    %rax,-0x3e8(%rbp)
    d259:	48 8d 05 00 6e 00 00 	lea    0x6e00(%rip),%rax        # 14060 <g_35>
    d260:	48 89 85 20 fc ff ff 	mov    %rax,-0x3e0(%rbp)
    d267:	48 8d 05 0c 72 00 00 	lea    0x720c(%rip),%rax        # 1447a <g_295+0xa>
    d26e:	48 89 85 28 fc ff ff 	mov    %rax,-0x3d8(%rbp)
    d275:	48 8d 05 fe 71 00 00 	lea    0x71fe(%rip),%rax        # 1447a <g_295+0xa>
    d27c:	48 89 85 30 fc ff ff 	mov    %rax,-0x3d0(%rbp)
    d283:	48 8d 05 d6 6d 00 00 	lea    0x6dd6(%rip),%rax        # 14060 <g_35>
    d28a:	48 89 85 38 fc ff ff 	mov    %rax,-0x3c8(%rbp)
    d291:	48 8d 05 e2 71 00 00 	lea    0x71e2(%rip),%rax        # 1447a <g_295+0xa>
    d298:	48 89 85 40 fc ff ff 	mov    %rax,-0x3c0(%rbp)
    d29f:	48 c7 85 88 fa ff ff 	movq   $0x0,-0x578(%rbp)
    d2a6:	00 00 00 00 
    d2aa:	c7 85 b8 f9 ff ff c2 	movl   $0x8a26f7c2,-0x648(%rbp)
    d2b1:	f7 26 8a 
    d2b4:	c7 85 bc f9 ff ff 53 	movl   $0x7fbe6953,-0x644(%rbp)
    d2bb:	69 be 7f 
    d2be:	48 8d 05 93 2d 00 00 	lea    0x2d93(%rip),%rax        # 10058 <g_458>
    d2c5:	48 89 85 f0 f9 ff ff 	mov    %rax,-0x610(%rbp)
    d2cc:	48 8d 85 f0 f9 ff ff 	lea    -0x610(%rbp),%rax
    d2d3:	48 89 85 90 fa ff ff 	mov    %rax,-0x570(%rbp)
    d2da:	48 8d 05 87 91 00 00 	lea    0x9187(%rip),%rax        # 16468 <g_1171>
    d2e1:	48 89 85 98 fa ff ff 	mov    %rax,-0x568(%rbp)
    d2e8:	48 c7 85 f8 f9 ff ff 	movq   $0x0,-0x608(%rbp)
    d2ef:	00 00 00 00 
    d2f3:	48 8d 85 f8 f9 ff ff 	lea    -0x608(%rbp),%rax
    d2fa:	48 89 85 a0 fa ff ff 	mov    %rax,-0x560(%rbp)
    d301:	48 8d 05 40 74 00 00 	lea    0x7440(%rip),%rax        # 14748 <g_575>
    d308:	48 89 85 a8 fa ff ff 	mov    %rax,-0x558(%rbp)
    d30f:	48 c7 85 b0 fa ff ff 	movq   $0x0,-0x550(%rbp)
    d316:	00 00 00 00 
    d31a:	8b 85 b4 f9 ff ff    	mov    -0x64c(%rbp),%eax
    d320:	0f be d8             	movsbl %al,%ebx
    d323:	48 8b 05 36 91 00 00 	mov    0x9136(%rip),%rax        # 16460 <g_1172>
    d32a:	48 8b 00             	mov    (%rax),%rax
    d32d:	0f b6 00             	movzbl (%rax),%eax
    d330:	44 0f b6 e0          	movzbl %al,%r12d
    d334:	c7 85 68 f9 ff ff db 	movl   $0x332c5bdb,-0x698(%rbp)
    d33b:	5b 2c 33 
    d33e:	41 bd 01 00 00 00    	mov    $0x1,%r13d
    d344:	be 05 00 00 00       	mov    $0x5,%esi
    d349:	bf fd 98 ff ff       	mov    $0xffff98fd,%edi
    d34e:	e8 3f b1 ff ff       	callq  8492 <safe_lshift_func_int16_t_s_s>
    d353:	0f bf d0             	movswl %ax,%edx
    d356:	8b 85 18 fb ff ff    	mov    -0x4e8(%rbp),%eax
    d35c:	44 21 e8             	and    %r13d,%eax
    d35f:	89 85 18 fb ff ff    	mov    %eax,-0x4e8(%rbp)
    d365:	8b 85 18 fb ff ff    	mov    -0x4e8(%rbp),%eax
    d36b:	09 d0                	or     %edx,%eax
    d36d:	83 f8 01             	cmp    $0x1,%eax
    d370:	0f 94 c0             	sete   %al
    d373:	0f b6 c0             	movzbl %al,%eax
    d376:	8b 95 98 f9 ff ff    	mov    -0x668(%rbp),%edx
    d37c:	89 d6                	mov    %edx,%esi
    d37e:	89 c7                	mov    %eax,%edi
    d380:	e8 08 b9 ff ff       	callq  8c8d <safe_rshift_func_uint8_t_u_s>
    d385:	48 0f bf 8d 4c f9 ff 	movswq -0x6b4(%rbp),%rcx
    d38c:	ff 
    d38d:	48 8b 15 24 90 00 00 	mov    0x9024(%rip),%rdx        # 163b8 <g_1042>
    d394:	48 8b 32             	mov    (%rdx),%rsi
    d397:	0f b6 d0             	movzbl %al,%edx
    d39a:	48 8b 05 17 90 00 00 	mov    0x9017(%rip),%rax        # 163b8 <g_1042>
    d3a1:	48 09 f2             	or     %rsi,%rdx
    d3a4:	48 89 10             	mov    %rdx,(%rax)
    d3a7:	48 8b 00             	mov    (%rax),%rax
    d3aa:	48 39 c1             	cmp    %rax,%rcx
    d3ad:	0f 96 c0             	setbe  %al
    d3b0:	0f b6 c0             	movzbl %al,%eax
    d3b3:	be d4 ff ff ff       	mov    $0xffffffd4,%esi
    d3b8:	89 c7                	mov    %eax,%edi
    d3ba:	e8 15 ae ff ff       	callq  81d4 <safe_add_func_int8_t_s_s>
    d3bf:	0f b6 c0             	movzbl %al,%eax
    d3c2:	44 89 e6             	mov    %r12d,%esi
    d3c5:	89 c7                	mov    %eax,%edi
    d3c7:	e8 80 b8 ff ff       	callq  8c4c <safe_lshift_func_uint8_t_u_u>
    d3cc:	bf bc a5 c1 56       	mov    $0x56c1a5bc,%edi
    d3d1:	e8 c0 b1 ff ff       	callq  8596 <safe_unary_minus_func_int32_t_s>
    d3d6:	0f be c0             	movsbl %al,%eax
    d3d9:	89 de                	mov    %ebx,%esi
    d3db:	89 c7                	mov    %eax,%edi
    d3dd:	e8 30 ae ff ff       	callq  8212 <safe_mul_func_int8_t_s_s>
    d3e2:	48 8d 05 7f 90 00 00 	lea    0x907f(%rip),%rax        # 16468 <g_1171>
    d3e9:	48 89 85 b8 fa ff ff 	mov    %rax,-0x548(%rbp)
    d3f0:	c7 85 c0 f9 ff ff 01 	movl   $0x1,-0x640(%rbp)
    d3f7:	00 00 00 
    d3fa:	48 8d 05 11 70 00 00 	lea    0x7011(%rip),%rax        # 14412 <g_253+0x12>
    d401:	48 89 85 c0 fa ff ff 	mov    %rax,-0x540(%rbp)
    d408:	48 8d 05 71 90 00 00 	lea    0x9071(%rip),%rax        # 16480 <g_1197>
    d40f:	48 89 85 c8 fa ff ff 	mov    %rax,-0x538(%rbp)
    d416:	48 8b 05 33 90 00 00 	mov    0x9033(%rip),%rax        # 16450 <g_1121>
    d41d:	48 8b 00             	mov    (%rax),%rax
    d420:	8b 08                	mov    (%rax),%ecx
    d422:	0f bf 95 4c f9 ff ff 	movswl -0x6b4(%rbp),%edx
    d429:	48 8b 05 20 90 00 00 	mov    0x9020(%rip),%rax        # 16450 <g_1121>
    d430:	48 8b 00             	mov    (%rax),%rax
    d433:	31 ca                	xor    %ecx,%edx
    d435:	89 10                	mov    %edx,(%rax)
    d437:	c7 05 2b 73 00 00 fb 	movl   $0xfffffffb,0x732b(%rip)        # 1476c <g_1266>
    d43e:	ff ff ff 
    d441:	e9 94 00 00 00       	jmpq   d4da <func_69+0x11c4>
    d446:	83 bd bc f9 ff ff 00 	cmpl   $0x0,-0x644(%rbp)
    d44d:	0f 85 98 00 00 00    	jne    d4eb <func_69+0x11d5>
    d453:	66 83 bd 4c f9 ff ff 	cmpw   $0x0,-0x6b4(%rbp)
    d45a:	00 
    d45b:	75 5e                	jne    d4bb <func_69+0x11a5>
    d45d:	c7 05 ed 72 00 00 07 	movl   $0x7,0x72ed(%rip)        # 14754 <g_735>
    d464:	00 00 00 
    d467:	90                   	nop
    d468:	8b 05 e6 72 00 00    	mov    0x72e6(%rip),%eax        # 14754 <g_735>
    d46e:	83 f8 1f             	cmp    $0x1f,%eax
    d471:	74 49                	je     d4bc <func_69+0x11a6>
    d473:	48 8b 85 d8 f9 ff ff 	mov    -0x628(%rbp),%rax
    d47a:	48 8b 00             	mov    (%rax),%rax
    d47d:	48 8b 00             	mov    (%rax),%rax
    d480:	48 8b 00             	mov    (%rax),%rax
    d483:	8b 08                	mov    (%rax),%ecx
    d485:	48 8b 05 9c 8c 00 00 	mov    0x8c9c(%rip),%rax        # 16128 <g_41>
    d48c:	8b 10                	mov    (%rax),%edx
    d48e:	48 8b 85 d8 f9 ff ff 	mov    -0x628(%rbp),%rax
    d495:	48 8b 00             	mov    (%rax),%rax
    d498:	48 8b 00             	mov    (%rax),%rax
    d49b:	48 8b 00             	mov    (%rax),%rax
    d49e:	31 ca                	xor    %ecx,%edx
    d4a0:	89 10                	mov    %edx,(%rax)
    d4a2:	48 8b 85 d8 f9 ff ff 	mov    -0x628(%rbp),%rax
    d4a9:	48 8b 00             	mov    (%rax),%rax
    d4ac:	48 8b 00             	mov    (%rax),%rax
    d4af:	48 8b 00             	mov    (%rax),%rax
    d4b2:	8b 00                	mov    (%rax),%eax
    d4b4:	48 98                	cltq   
    d4b6:	e9 8a 04 00 00       	jmpq   d945 <func_69+0x162f>
    d4bb:	90                   	nop
    d4bc:	8b 05 aa 72 00 00    	mov    0x72aa(%rip),%eax        # 1476c <g_1266>
    d4c2:	0f b6 c0             	movzbl %al,%eax
    d4c5:	be 01 00 00 00       	mov    $0x1,%esi
    d4ca:	89 c7                	mov    %eax,%edi
    d4cc:	e8 89 b6 ff ff       	callq  8b5a <safe_add_func_uint8_t_u_u>
    d4d1:	0f b6 c0             	movzbl %al,%eax
    d4d4:	89 05 92 72 00 00    	mov    %eax,0x7292(%rip)        # 1476c <g_1266>
    d4da:	8b 05 8c 72 00 00    	mov    0x728c(%rip),%eax        # 1476c <g_1266>
    d4e0:	83 f8 0d             	cmp    $0xd,%eax
    d4e3:	0f 87 5d ff ff ff    	ja     d446 <func_69+0x1130>
    d4e9:	eb 01                	jmp    d4ec <func_69+0x11d6>
    d4eb:	90                   	nop
    d4ec:	8b 05 ae 6b 00 00    	mov    0x6bae(%rip),%eax        # 140a0 <g_109+0x20>
    d4f2:	48 63 d8             	movslq %eax,%rbx
    d4f5:	48 8b 05 c4 8e 00 00 	mov    0x8ec4(%rip),%rax        # 163c0 <g_1041>
    d4fc:	48 8b 00             	mov    (%rax),%rax
    d4ff:	48 8b 00             	mov    (%rax),%rax
    d502:	48 89 c1             	mov    %rax,%rcx
    d505:	48 8b 85 90 fa ff ff 	mov    -0x570(%rbp),%rax
    d50c:	48 8d 15 15 6b 00 00 	lea    0x6b15(%rip),%rdx        # 14028 <g_14>
    d513:	48 89 10             	mov    %rdx,(%rax)
    d516:	48 83 bd 70 fa ff ff 	cmpq   $0x0,-0x590(%rbp)
    d51d:	00 
    d51e:	0f 95 c0             	setne  %al
    d521:	0f b6 c0             	movzbl %al,%eax
    d524:	48 89 ce             	mov    %rcx,%rsi
    d527:	48 89 c7             	mov    %rax,%rdi
    d52a:	e8 85 b4 ff ff       	callq  89b4 <safe_mod_func_int64_t_s_s>
    d52f:	0f be c0             	movsbl %al,%eax
    d532:	89 c6                	mov    %eax,%esi
    d534:	bf 02 00 00 00       	mov    $0x2,%edi
    d539:	e8 f3 ac ff ff       	callq  8231 <safe_mod_func_int8_t_s_s>
    d53e:	3c 08                	cmp    $0x8,%al
    d540:	0f 96 c0             	setbe  %al
    d543:	0f b6 d0             	movzbl %al,%edx
    d546:	48 8b 05 33 6f 00 00 	mov    0x6f33(%rip),%rax        # 14480 <g_302>
    d54d:	48 21 c2             	and    %rax,%rdx
    d550:	48 8b 05 29 8f 00 00 	mov    0x8f29(%rip),%rax        # 16480 <g_1197>
    d557:	0f b6 00             	movzbl (%rax),%eax
    d55a:	48 0f be c0          	movsbq %al,%rax
    d55e:	48 39 c2             	cmp    %rax,%rdx
    d561:	0f 97 c0             	seta   %al
    d564:	0f b6 c0             	movzbl %al,%eax
    d567:	48 89 de             	mov    %rbx,%rsi
    d56a:	48 89 c7             	mov    %rax,%rdi
    d56d:	e8 42 b4 ff ff       	callq  89b4 <safe_mod_func_int64_t_s_s>
    d572:	48 8b 85 80 fa ff ff 	mov    -0x580(%rbp),%rax
    d579:	48 8b 00             	mov    (%rax),%rax
    d57c:	8b 00                	mov    (%rax),%eax
    d57e:	66 33 85 4c f9 ff ff 	xor    -0x6b4(%rbp),%ax
    d585:	0f b7 c0             	movzwl %ax,%eax
    d588:	be 27 68 00 00       	mov    $0x6827,%esi
    d58d:	89 c7                	mov    %eax,%edi
    d58f:	e8 fa b7 ff ff       	callq  8d8e <safe_div_func_uint16_t_u_u>
    d594:	0f b7 d0             	movzwl %ax,%edx
    d597:	48 8b 85 80 fa ff ff 	mov    -0x580(%rbp),%rax
    d59e:	48 8b 00             	mov    (%rax),%rax
    d5a1:	8b 00                	mov    (%rax),%eax
    d5a3:	39 c2                	cmp    %eax,%edx
    d5a5:	0f 9f c0             	setg   %al
    d5a8:	0f b6 d0             	movzbl %al,%edx
    d5ab:	48 8b 85 80 fa ff ff 	mov    -0x580(%rbp),%rax
    d5b2:	48 8b 00             	mov    (%rax),%rax
    d5b5:	8b 00                	mov    (%rax),%eax
    d5b7:	21 c2                	and    %eax,%edx
    d5b9:	48 8b 85 d8 f9 ff ff 	mov    -0x628(%rbp),%rax
    d5c0:	48 8b 00             	mov    (%rax),%rax
    d5c3:	48 8b 00             	mov    (%rax),%rax
    d5c6:	48 8b 00             	mov    (%rax),%rax
    d5c9:	8b 00                	mov    (%rax),%eax
    d5cb:	39 c2                	cmp    %eax,%edx
    d5cd:	0f 9f c0             	setg   %al
    d5d0:	0f b6 c0             	movzbl %al,%eax
    d5d3:	31 85 68 f9 ff ff    	xor    %eax,-0x698(%rbp)
    d5d9:	83 bd ac f9 ff ff 00 	cmpl   $0x0,-0x654(%rbp)
    d5e0:	74 05                	je     d5e7 <func_69+0x12d1>
    d5e2:	e9 88 f4 ff ff       	jmpq   ca6f <func_69+0x759>
    d5e7:	0f b7 85 4c f9 ff ff 	movzwl -0x6b4(%rbp),%eax
    d5ee:	0f b7 d8             	movzwl %ax,%ebx
    d5f1:	0f bf 85 4c f9 ff ff 	movswl -0x6b4(%rbp),%eax
    d5f8:	89 85 6c f9 ff ff    	mov    %eax,-0x694(%rbp)
    d5fe:	48 8b 05 b3 8d 00 00 	mov    0x8db3(%rip),%rax        # 163b8 <g_1042>
    d605:	8b 95 6c f9 ff ff    	mov    -0x694(%rbp),%edx
    d60b:	48 63 d2             	movslq %edx,%rdx
    d60e:	48 89 10             	mov    %rdx,(%rax)
    d611:	4c 8b 20             	mov    (%rax),%r12
    d614:	48 8b 05 4d 8e 00 00 	mov    0x8e4d(%rip),%rax        # 16468 <g_1171>
    d61b:	48 8b 00             	mov    (%rax),%rax
    d61e:	48 8b 00             	mov    (%rax),%rax
    d621:	0f b6 00             	movzbl (%rax),%eax
    d624:	0f b6 d0             	movzbl %al,%edx
    d627:	0f bf 85 4c f9 ff ff 	movswl -0x6b4(%rbp),%eax
    d62e:	89 85 68 f9 ff ff    	mov    %eax,-0x698(%rbp)
    d634:	8b 85 68 f9 ff ff    	mov    -0x698(%rbp),%eax
    d63a:	0f be c0             	movsbl %al,%eax
    d63d:	89 d6                	mov    %edx,%esi
    d63f:	89 c7                	mov    %eax,%edi
    d641:	e8 a8 ac ff ff       	callq  82ee <safe_lshift_func_int8_t_s_u>
    d646:	48 8b 85 18 fa ff ff 	mov    -0x5e8(%rbp),%rax
    d64d:	48 8b 00             	mov    (%rax),%rax
    d650:	48 8b 00             	mov    (%rax),%rax
    d653:	48 8b 00             	mov    (%rax),%rax
    d656:	48 8b 00             	mov    (%rax),%rax
    d659:	8b 00                	mov    (%rax),%eax
    d65b:	0f b7 c0             	movzwl %ax,%eax
    d65e:	be 36 63 00 00       	mov    $0x6336,%esi
    d663:	89 c7                	mov    %eax,%edi
    d665:	e8 d3 b6 ff ff       	callq  8d3d <safe_mul_func_uint16_t_u_u>
    d66a:	44 0f b7 e8          	movzwl %ax,%r13d
    d66e:	0f b7 85 4c f9 ff ff 	movzwl -0x6b4(%rbp),%eax
    d675:	0f b7 c0             	movzwl %ax,%eax
    d678:	be fe 41 00 00       	mov    $0x41fe,%esi
    d67d:	89 c7                	mov    %eax,%edi
    d67f:	e8 b9 b6 ff ff       	callq  8d3d <safe_mul_func_uint16_t_u_u>
    d684:	66 39 85 62 f9 ff ff 	cmp    %ax,-0x69e(%rbp)
    d68b:	0f 92 c0             	setb   %al
    d68e:	0f b6 c0             	movzbl %al,%eax
    d691:	41 39 c5             	cmp    %eax,%r13d
    d694:	0f 9d c0             	setge  %al
    d697:	0f b6 c0             	movzbl %al,%eax
    d69a:	f7 d0                	not    %eax
    d69c:	89 c2                	mov    %eax,%edx
    d69e:	0f bf 85 4c f9 ff ff 	movswl -0x6b4(%rbp),%eax
    d6a5:	31 c2                	xor    %eax,%edx
    d6a7:	48 8b 85 80 fa ff ff 	mov    -0x580(%rbp),%rax
    d6ae:	48 8b 00             	mov    (%rax),%rax
    d6b1:	8b 00                	mov    (%rax),%eax
    d6b3:	39 c2                	cmp    %eax,%edx
    d6b5:	0f 95 c0             	setne  %al
    d6b8:	0f b6 d0             	movzbl %al,%edx
    d6bb:	48 8b 85 80 fa ff ff 	mov    -0x580(%rbp),%rax
    d6c2:	48 8b 00             	mov    (%rax),%rax
    d6c5:	8b 00                	mov    (%rax),%eax
    d6c7:	39 c2                	cmp    %eax,%edx
    d6c9:	0f 94 c0             	sete   %al
    d6cc:	0f b6 c0             	movzbl %al,%eax
    d6cf:	8b 95 ac f9 ff ff    	mov    -0x654(%rbp),%edx
    d6d5:	89 d6                	mov    %edx,%esi
    d6d7:	89 c7                	mov    %eax,%edi
    d6d9:	e8 8e ac ff ff       	callq  836c <safe_rshift_func_int8_t_s_u>
    d6de:	48 8b 85 a0 fa ff ff 	mov    -0x560(%rbp),%rax
    d6e5:	48 c7 00 00 00 00 00 	movq   $0x0,(%rax)
    d6ec:	48 83 bd 98 fa ff ff 	cmpq   $0x0,-0x568(%rbp)
    d6f3:	00 
    d6f4:	0f 95 c0             	setne  %al
    d6f7:	0f b6 c0             	movzbl %al,%eax
    d6fa:	be 02 00 00 00       	mov    $0x2,%esi
    d6ff:	89 c7                	mov    %eax,%edi
    d701:	e8 66 ac ff ff       	callq  836c <safe_rshift_func_int8_t_s_u>
    d706:	48 0f be d0          	movsbq %al,%rdx
    d70a:	48 8b 85 a8 fa ff ff 	mov    -0x558(%rbp),%rax
    d711:	48 8b 00             	mov    (%rax),%rax
    d714:	4c 89 e1             	mov    %r12,%rcx
    d717:	48 09 c1             	or     %rax,%rcx
    d71a:	48 8b 85 a8 fa ff ff 	mov    -0x558(%rbp),%rax
    d721:	48 89 08             	mov    %rcx,(%rax)
    d724:	48 8b 85 a8 fa ff ff 	mov    -0x558(%rbp),%rax
    d72b:	48 8b 00             	mov    (%rax),%rax
    d72e:	48 31 c2             	xor    %rax,%rdx
    d731:	48 8b 05 f0 90 00 00 	mov    0x90f0(%rip),%rax        # 16828 <g_1216>
    d738:	48 8b 00             	mov    (%rax),%rax
    d73b:	8b 00                	mov    (%rax),%eax
    d73d:	89 c0                	mov    %eax,%eax
    d73f:	48 21 d0             	and    %rdx,%rax
    d742:	48 89 05 8f 6c 00 00 	mov    %rax,0x6c8f(%rip)        # 143d8 <g_250>
    d749:	48 8b 05 88 6c 00 00 	mov    0x6c88(%rip),%rax        # 143d8 <g_250>
    d750:	48 85 c0             	test   %rax,%rax
    d753:	74 13                	je     d768 <func_69+0x1452>
    d755:	48 8b 05 dc 90 00 00 	mov    0x90dc(%rip),%rax        # 16838 <g_1223>
    d75c:	48 8b 00             	mov    (%rax),%rax
    d75f:	48 8b 00             	mov    (%rax),%rax
    d762:	8b 00                	mov    (%rax),%eax
    d764:	85 c0                	test   %eax,%eax
    d766:	74 07                	je     d76f <func_69+0x1459>
    d768:	b8 01 00 00 00       	mov    $0x1,%eax
    d76d:	eb 05                	jmp    d774 <func_69+0x145e>
    d76f:	b8 00 00 00 00       	mov    $0x0,%eax
    d774:	0f b7 c0             	movzwl %ax,%eax
    d777:	89 de                	mov    %ebx,%esi
    d779:	89 c7                	mov    %eax,%edi
    d77b:	e8 0e b6 ff ff       	callq  8d8e <safe_div_func_uint16_t_u_u>
    d780:	89 c2                	mov    %eax,%edx
    d782:	48 8b 85 80 fa ff ff 	mov    -0x580(%rbp),%rax
    d789:	48 8b 00             	mov    (%rax),%rax
    d78c:	0f b7 d2             	movzwl %dx,%edx
    d78f:	89 10                	mov    %edx,(%rax)
    d791:	48 8b 85 d8 f9 ff ff 	mov    -0x628(%rbp),%rax
    d798:	48 8b 00             	mov    (%rax),%rax
    d79b:	48 8b 00             	mov    (%rax),%rax
    d79e:	48 8b 00             	mov    (%rax),%rax
    d7a1:	8b 18                	mov    (%rax),%ebx
    d7a3:	44 0f bf a5 4c f9 ff 	movswl -0x6b4(%rbp),%r12d
    d7aa:	ff 
    d7ab:	44 0f bf ad 4c f9 ff 	movswl -0x6b4(%rbp),%r13d
    d7b2:	ff 
    d7b3:	48 8b 85 d8 f9 ff ff 	mov    -0x628(%rbp),%rax
    d7ba:	48 8b 00             	mov    (%rax),%rax
    d7bd:	48 8b 00             	mov    (%rax),%rax
    d7c0:	48 8b 00             	mov    (%rax),%rax
    d7c3:	8b 00                	mov    (%rax),%eax
    d7c5:	44 0f b7 f0          	movzwl %ax,%r14d
    d7c9:	0f b7 85 4c f9 ff ff 	movzwl -0x6b4(%rbp),%eax
    d7d0:	44 0f b6 f8          	movzbl %al,%r15d
    d7d4:	48 8b 85 70 fb ff ff 	mov    -0x490(%rbp),%rax
    d7db:	48 85 c0             	test   %rax,%rax
    d7de:	0f 95 c0             	setne  %al
    d7e1:	0f b6 c0             	movzbl %al,%eax
    d7e4:	be f8 00 00 00       	mov    $0xf8,%esi
    d7e9:	89 c7                	mov    %eax,%edi
    d7eb:	e8 be b3 ff ff       	callq  8bae <safe_mod_func_uint8_t_u_u>
    d7f0:	8b 05 4a 68 00 00    	mov    0x684a(%rip),%eax        # 14040 <g_29>
    d7f6:	98                   	cwtl   
    d7f7:	89 85 48 f9 ff ff    	mov    %eax,-0x6b8(%rbp)
    d7fd:	be ff ff ff ff       	mov    $0xffffffff,%esi
    d802:	bf a2 ff ff ff       	mov    $0xffffffa2,%edi
    d807:	e8 25 aa ff ff       	callq  8231 <safe_mod_func_int8_t_s_s>
    d80c:	66 98                	cbtw   
    d80e:	66 89 05 4b 68 00 00 	mov    %ax,0x684b(%rip)        # 14060 <g_35>
    d815:	0f b7 05 44 68 00 00 	movzwl 0x6844(%rip),%eax        # 14060 <g_35>
    d81c:	98                   	cwtl   
    d81d:	8b b5 48 f9 ff ff    	mov    -0x6b8(%rbp),%esi
    d823:	89 c7                	mov    %eax,%edi
    d825:	e8 89 ab ff ff       	callq  83b3 <safe_add_func_int16_t_s_s>
    d82a:	66 83 f8 01          	cmp    $0x1,%ax
    d82e:	0f 9e c0             	setle  %al
    d831:	0f b6 c0             	movzbl %al,%eax
    d834:	44 89 fe             	mov    %r15d,%esi
    d837:	89 c7                	mov    %eax,%edi
    d839:	e8 55 b3 ff ff       	callq  8b93 <safe_mul_func_uint8_t_u_u>
    d83e:	0f b6 d0             	movzbl %al,%edx
    d841:	8b 05 0d 6f 00 00    	mov    0x6f0d(%rip),%eax        # 14754 <g_735>
    d847:	39 c2                	cmp    %eax,%edx
    d849:	0f 96 c0             	setbe  %al
    d84c:	0f b6 c0             	movzbl %al,%eax
    d84f:	44 89 f6             	mov    %r14d,%esi
    d852:	89 c7                	mov    %eax,%edi
    d854:	e8 e4 b4 ff ff       	callq  8d3d <safe_mul_func_uint16_t_u_u>
    d859:	66 85 c0             	test   %ax,%ax
    d85c:	0f 95 c0             	setne  %al
    d85f:	0f b6 c0             	movzbl %al,%eax
    d862:	44 89 ee             	mov    %r13d,%esi
    d865:	89 c7                	mov    %eax,%edi
    d867:	e8 26 ac ff ff       	callq  8492 <safe_lshift_func_int16_t_s_s>
    d86c:	0f b6 c0             	movzbl %al,%eax
    d86f:	8b 95 70 f9 ff ff    	mov    -0x690(%rbp),%edx
    d875:	89 d6                	mov    %edx,%esi
    d877:	89 c7                	mov    %eax,%edi
    d879:	e8 ce b3 ff ff       	callq  8c4c <safe_lshift_func_uint8_t_u_u>
    d87e:	0f bf 85 4c f9 ff ff 	movswl -0x6b4(%rbp),%eax
    d885:	39 85 68 f9 ff ff    	cmp    %eax,-0x698(%rbp)
    d88b:	0f 9f c0             	setg   %al
    d88e:	0f b6 c0             	movzbl %al,%eax
    d891:	44 89 e6             	mov    %r12d,%esi
    d894:	89 c7                	mov    %eax,%edi
    d896:	e8 c8 ac ff ff       	callq  8563 <safe_rshift_func_int16_t_s_u>
    d89b:	66 83 bd 4c f9 ff ff 	cmpw   $0x0,-0x6b4(%rbp)
    d8a2:	00 
    d8a3:	0f 9f c0             	setg   %al
    d8a6:	0f b6 d0             	movzbl %al,%edx
    d8a9:	48 8b 05 78 88 00 00 	mov    0x8878(%rip),%rax        # 16128 <g_41>
    d8b0:	8b 00                	mov    (%rax),%eax
    d8b2:	21 95 6c f9 ff ff    	and    %edx,-0x694(%rbp)
    d8b8:	39 85 6c f9 ff ff    	cmp    %eax,-0x694(%rbp)
    d8be:	0f 9d c0             	setge  %al
    d8c1:	89 c2                	mov    %eax,%edx
    d8c3:	48 8b 85 d8 f9 ff ff 	mov    -0x628(%rbp),%rax
    d8ca:	48 8b 00             	mov    (%rax),%rax
    d8cd:	48 8b 00             	mov    (%rax),%rax
    d8d0:	48 8b 00             	mov    (%rax),%rax
    d8d3:	8b 00                	mov    (%rax),%eax
    d8d5:	09 d0                	or     %edx,%eax
    d8d7:	0f be c0             	movsbl %al,%eax
    d8da:	be 01 00 00 00       	mov    $0x1,%esi
    d8df:	89 c7                	mov    %eax,%edi
    d8e1:	e8 86 aa ff ff       	callq  836c <safe_rshift_func_int8_t_s_u>
    d8e6:	b8 01 00 00 00       	mov    $0x1,%eax
    d8eb:	0f be c0             	movsbl %al,%eax
    d8ee:	89 de                	mov    %ebx,%esi
    d8f0:	89 c7                	mov    %eax,%edi
    d8f2:	e8 3e aa ff ff       	callq  8335 <safe_rshift_func_int8_t_s_s>
    d8f7:	48 8b 85 d0 f9 ff ff 	mov    -0x630(%rbp),%rax
    d8fe:	48 8b 00             	mov    (%rax),%rax
    d901:	48 8b 10             	mov    (%rax),%rdx
    d904:	48 8b 05 45 8b 00 00 	mov    0x8b45(%rip),%rax        # 16450 <g_1121>
    d90b:	48 8b 00             	mov    (%rax),%rax
    d90e:	8b 12                	mov    (%rdx),%edx
    d910:	89 10                	mov    %edx,(%rax)
    d912:	48 8b 15 27 96 00 00 	mov    0x9627(%rip),%rdx        # 16f40 <g_1514>
    d919:	48 8b 85 78 fa ff ff 	mov    -0x588(%rbp),%rax
    d920:	48 89 10             	mov    %rdx,(%rax)
    d923:	eb 0f                	jmp    d934 <func_69+0x161e>
    d925:	8b 05 39 6e 00 00    	mov    0x6e39(%rip),%eax        # 14764 <g_1123>
    d92b:	85 c0                	test   %eax,%eax
    d92d:	74 05                	je     d934 <func_69+0x161e>
    d92f:	e9 db eb ff ff       	jmpq   c50f <func_69+0x1f9>
    d934:	48 8b 85 d0 f9 ff ff 	mov    -0x630(%rbp),%rax
    d93b:	48 8b 00             	mov    (%rax),%rax
    d93e:	48 8b 00             	mov    (%rax),%rax
    d941:	8b 00                	mov    (%rax),%eax
    d943:	48 98                	cltq   
    d945:	48 8b 5d c8          	mov    -0x38(%rbp),%rbx
    d949:	64 48 33 1c 25 28 00 	xor    %fs:0x28,%rbx
    d950:	00 00 
    d952:	74 05                	je     d959 <func_69+0x1643>
    d954:	e8 17 a7 ff ff       	callq  8070 <__stack_chk_fail@plt>
    d959:	48 81 c4 98 06 00 00 	add    $0x698,%rsp
    d960:	5b                   	pop    %rbx
    d961:	41 5c                	pop    %r12
    d963:	41 5d                	pop    %r13
    d965:	41 5e                	pop    %r14
    d967:	41 5f                	pop    %r15
    d969:	5d                   	pop    %rbp
    d96a:	c3                   	retq   

000000000000d96b <func_81>:
    d96b:	f3 0f 1e fa          	endbr64 
    d96f:	55                   	push   %rbp
    d970:	48 89 e5             	mov    %rsp,%rbp
    d973:	53                   	push   %rbx
    d974:	48 83 ec 10          	sub    $0x10,%rsp
    d978:	48 89 7d f0          	mov    %rdi,-0x10(%rbp)
    d97c:	89 f0                	mov    %esi,%eax
    d97e:	66 89 45 ec          	mov    %ax,-0x14(%rbp)
    d982:	48 8b 05 97 8e 00 00 	mov    0x8e97(%rip),%rax        # 16820 <g_1217>
    d989:	8b 00                	mov    (%rax),%eax
    d98b:	3d 2b ef 79 80       	cmp    $0x8079ef2b,%eax
    d990:	0f 94 c0             	sete   %al
    d993:	0f b6 d8             	movzbl %al,%ebx
    d996:	be 03 00 00 00       	mov    $0x3,%esi
    d99b:	bf ef 00 00 00       	mov    $0xef,%edi
    d9a0:	e8 a7 b2 ff ff       	callq  8c4c <safe_lshift_func_uint8_t_u_u>
    d9a5:	0f b6 c0             	movzbl %al,%eax
    d9a8:	89 de                	mov    %ebx,%esi
    d9aa:	89 c7                	mov    %eax,%edi
    d9ac:	e8 4e b3 ff ff       	callq  8cff <safe_add_func_uint16_t_u_u>
    d9b1:	48 8b 15 98 8a 00 00 	mov    0x8a98(%rip),%rdx        # 16450 <g_1121>
    d9b8:	48 8b 12             	mov    (%rdx),%rdx
    d9bb:	8b 0a                	mov    (%rdx),%ecx
    d9bd:	0f b7 d0             	movzwl %ax,%edx
    d9c0:	48 8b 05 89 8a 00 00 	mov    0x8a89(%rip),%rax        # 16450 <g_1121>
    d9c7:	48 8b 00             	mov    (%rax),%rax
    d9ca:	21 ca                	and    %ecx,%edx
    d9cc:	89 10                	mov    %edx,(%rax)
    d9ce:	48 0f bf 45 ec       	movswq -0x14(%rbp),%rax
    d9d3:	48 83 c4 10          	add    $0x10,%rsp
    d9d7:	5b                   	pop    %rbx
    d9d8:	5d                   	pop    %rbp
    d9d9:	c3                   	retq   

000000000000d9da <func_84>:
    d9da:	f3 0f 1e fa          	endbr64 
    d9de:	55                   	push   %rbp
    d9df:	48 89 e5             	mov    %rsp,%rbp
    d9e2:	48 81 ec b0 03 00 00 	sub    $0x3b0,%rsp
    d9e9:	48 89 bd 68 fc ff ff 	mov    %rdi,-0x398(%rbp)
    d9f0:	48 89 b5 60 fc ff ff 	mov    %rsi,-0x3a0(%rbp)
    d9f7:	89 d0                	mov    %edx,%eax
    d9f9:	48 89 8d 50 fc ff ff 	mov    %rcx,-0x3b0(%rbp)
    da00:	66 89 85 5c fc ff ff 	mov    %ax,-0x3a4(%rbp)
    da07:	64 48 8b 04 25 28 00 	mov    %fs:0x28,%rax
    da0e:	00 00 
    da10:	48 89 45 f8          	mov    %rax,-0x8(%rbp)
    da14:	31 c0                	xor    %eax,%eax
    da16:	48 b8 35 0f 6a 9a ae 	movabs $0x7c40b2ae9a6a0f35,%rax
    da1d:	b2 40 7c 
    da20:	48 89 85 e0 fc ff ff 	mov    %rax,-0x320(%rbp)
    da27:	48 8d 05 16 69 00 00 	lea    0x6916(%rip),%rax        # 14344 <g_112+0x244>
    da2e:	48 89 85 b0 fc ff ff 	mov    %rax,-0x350(%rbp)
    da35:	48 8d 05 64 66 00 00 	lea    0x6664(%rip),%rax        # 140a0 <g_109+0x20>
    da3c:	48 89 85 b8 fc ff ff 	mov    %rax,-0x348(%rbp)
    da43:	c7 85 8c fc ff ff fb 	movl   $0xfffffffb,-0x374(%rbp)
    da4a:	ff ff ff 
    da4d:	48 c7 85 e8 fc ff ff 	movq   $0x0,-0x318(%rbp)
    da54:	00 00 00 00 
    da58:	48 8d 05 e5 68 00 00 	lea    0x68e5(%rip),%rax        # 14344 <g_112+0x244>
    da5f:	48 89 85 f0 fc ff ff 	mov    %rax,-0x310(%rbp)
    da66:	c7 85 90 fc ff ff 01 	movl   $0x1,-0x370(%rbp)
    da6d:	00 00 00 
    da70:	c6 85 7d fc ff ff c5 	movb   $0xc5,-0x383(%rbp)
    da77:	c7 85 94 fc ff ff 05 	movl   $0x5,-0x36c(%rbp)
    da7e:	00 00 00 
    da81:	c7 85 98 fc ff ff c7 	movl   $0x370819c7,-0x368(%rbp)
    da88:	19 08 37 
    da8b:	c7 85 9c fc ff ff dc 	movl   $0x112c0fdc,-0x364(%rbp)
    da92:	0f 2c 11 
    da95:	48 8d 05 38 69 00 00 	lea    0x6938(%rip),%rax        # 143d4 <g_201>
    da9c:	48 89 85 f8 fc ff ff 	mov    %rax,-0x308(%rbp)
    daa3:	48 8d 05 68 69 00 00 	lea    0x6968(%rip),%rax        # 14412 <g_253+0x12>
    daaa:	48 89 85 50 fd ff ff 	mov    %rax,-0x2b0(%rbp)
    dab1:	48 8d 05 5a 69 00 00 	lea    0x695a(%rip),%rax        # 14412 <g_253+0x12>
    dab8:	48 89 85 58 fd ff ff 	mov    %rax,-0x2a8(%rbp)
    dabf:	48 8d 05 4c 69 00 00 	lea    0x694c(%rip),%rax        # 14412 <g_253+0x12>
    dac6:	48 89 85 60 fd ff ff 	mov    %rax,-0x2a0(%rbp)
    dacd:	48 8d 05 3e 69 00 00 	lea    0x693e(%rip),%rax        # 14412 <g_253+0x12>
    dad4:	48 89 85 68 fd ff ff 	mov    %rax,-0x298(%rbp)
    dadb:	48 8d 05 30 69 00 00 	lea    0x6930(%rip),%rax        # 14412 <g_253+0x12>
    dae2:	48 89 85 70 fd ff ff 	mov    %rax,-0x290(%rbp)
    dae9:	48 8d 05 22 69 00 00 	lea    0x6922(%rip),%rax        # 14412 <g_253+0x12>
    daf0:	48 89 85 78 fd ff ff 	mov    %rax,-0x288(%rbp)
    daf7:	48 8d 05 14 69 00 00 	lea    0x6914(%rip),%rax        # 14412 <g_253+0x12>
    dafe:	48 89 85 80 fd ff ff 	mov    %rax,-0x280(%rbp)
    db05:	48 8d 05 06 69 00 00 	lea    0x6906(%rip),%rax        # 14412 <g_253+0x12>
    db0c:	48 89 85 88 fd ff ff 	mov    %rax,-0x278(%rbp)
    db13:	c7 85 a0 fc ff ff d9 	movl   $0xfe6760d9,-0x360(%rbp)
    db1a:	60 67 fe 
    db1d:	48 c7 85 00 fd ff ff 	movq   $0xffffffffffffffff,-0x300(%rbp)
    db24:	ff ff ff ff 
    db28:	c7 85 a4 fc ff ff 03 	movl   $0x3,-0x35c(%rbp)
    db2f:	00 00 00 
    db32:	48 8d 85 b0 fc ff ff 	lea    -0x350(%rbp),%rax
    db39:	48 89 85 90 fd ff ff 	mov    %rax,-0x270(%rbp)
    db40:	48 8d 85 b8 fc ff ff 	lea    -0x348(%rbp),%rax
    db47:	48 89 85 98 fd ff ff 	mov    %rax,-0x268(%rbp)
    db4e:	48 8d 85 b8 fc ff ff 	lea    -0x348(%rbp),%rax
    db55:	48 89 85 a0 fd ff ff 	mov    %rax,-0x260(%rbp)
    db5c:	48 8d 85 b8 fc ff ff 	lea    -0x348(%rbp),%rax
    db63:	48 89 85 a8 fd ff ff 	mov    %rax,-0x258(%rbp)
    db6a:	48 8d 85 b8 fc ff ff 	lea    -0x348(%rbp),%rax
    db71:	48 89 85 b0 fd ff ff 	mov    %rax,-0x250(%rbp)
    db78:	48 8d 85 b8 fc ff ff 	lea    -0x348(%rbp),%rax
    db7f:	48 89 85 b8 fd ff ff 	mov    %rax,-0x248(%rbp)
    db86:	48 8d 85 b0 fc ff ff 	lea    -0x350(%rbp),%rax
    db8d:	48 89 85 c0 fd ff ff 	mov    %rax,-0x240(%rbp)
    db94:	48 8d 85 b8 fc ff ff 	lea    -0x348(%rbp),%rax
    db9b:	48 89 85 c8 fd ff ff 	mov    %rax,-0x238(%rbp)
    dba2:	48 8d 85 b8 fc ff ff 	lea    -0x348(%rbp),%rax
    dba9:	48 89 85 d0 fd ff ff 	mov    %rax,-0x230(%rbp)
    dbb0:	48 8d 85 b8 fc ff ff 	lea    -0x348(%rbp),%rax
    dbb7:	48 89 85 d8 fd ff ff 	mov    %rax,-0x228(%rbp)
    dbbe:	48 8d 85 b8 fc ff ff 	lea    -0x348(%rbp),%rax
    dbc5:	48 89 85 e0 fd ff ff 	mov    %rax,-0x220(%rbp)
    dbcc:	48 8d 85 b8 fc ff ff 	lea    -0x348(%rbp),%rax
    dbd3:	48 89 85 e8 fd ff ff 	mov    %rax,-0x218(%rbp)
    dbda:	48 8d 85 b8 fc ff ff 	lea    -0x348(%rbp),%rax
    dbe1:	48 89 85 f0 fd ff ff 	mov    %rax,-0x210(%rbp)
    dbe8:	48 8d 85 b8 fc ff ff 	lea    -0x348(%rbp),%rax
    dbef:	48 89 85 f8 fd ff ff 	mov    %rax,-0x208(%rbp)
    dbf6:	48 8d 85 b8 fc ff ff 	lea    -0x348(%rbp),%rax
    dbfd:	48 89 85 00 fe ff ff 	mov    %rax,-0x200(%rbp)
    dc04:	48 8d 85 90 fd ff ff 	lea    -0x270(%rbp),%rax
    dc0b:	48 89 85 c0 fc ff ff 	mov    %rax,-0x340(%rbp)
    dc12:	48 8d 05 a7 6a 00 00 	lea    0x6aa7(%rip),%rax        # 146c0 <g_414>
    dc19:	48 89 85 c8 fc ff ff 	mov    %rax,-0x338(%rbp)
    dc20:	48 8d 85 c8 fc ff ff 	lea    -0x338(%rbp),%rax
    dc27:	48 89 85 10 fe ff ff 	mov    %rax,-0x1f0(%rbp)
    dc2e:	48 8d 85 c8 fc ff ff 	lea    -0x338(%rbp),%rax
    dc35:	48 89 85 18 fe ff ff 	mov    %rax,-0x1e8(%rbp)
    dc3c:	48 8d 85 c8 fc ff ff 	lea    -0x338(%rbp),%rax
    dc43:	48 89 85 20 fe ff ff 	mov    %rax,-0x1e0(%rbp)
    dc4a:	48 8d 85 c8 fc ff ff 	lea    -0x338(%rbp),%rax
    dc51:	48 89 85 28 fe ff ff 	mov    %rax,-0x1d8(%rbp)
    dc58:	48 8d 85 c8 fc ff ff 	lea    -0x338(%rbp),%rax
    dc5f:	48 89 85 30 fe ff ff 	mov    %rax,-0x1d0(%rbp)
    dc66:	48 8d 85 c8 fc ff ff 	lea    -0x338(%rbp),%rax
    dc6d:	48 89 85 38 fe ff ff 	mov    %rax,-0x1c8(%rbp)
    dc74:	48 8d 85 c8 fc ff ff 	lea    -0x338(%rbp),%rax
    dc7b:	48 89 85 40 fe ff ff 	mov    %rax,-0x1c0(%rbp)
    dc82:	48 8d 85 c8 fc ff ff 	lea    -0x338(%rbp),%rax
    dc89:	48 89 85 48 fe ff ff 	mov    %rax,-0x1b8(%rbp)
    dc90:	48 8d 85 c8 fc ff ff 	lea    -0x338(%rbp),%rax
    dc97:	48 89 85 50 fe ff ff 	mov    %rax,-0x1b0(%rbp)
    dc9e:	48 8d 85 c8 fc ff ff 	lea    -0x338(%rbp),%rax
    dca5:	48 89 85 58 fe ff ff 	mov    %rax,-0x1a8(%rbp)
    dcac:	48 8d 85 c8 fc ff ff 	lea    -0x338(%rbp),%rax
    dcb3:	48 89 85 60 fe ff ff 	mov    %rax,-0x1a0(%rbp)
    dcba:	48 8d 85 c8 fc ff ff 	lea    -0x338(%rbp),%rax
    dcc1:	48 89 85 68 fe ff ff 	mov    %rax,-0x198(%rbp)
    dcc8:	48 8d 85 c8 fc ff ff 	lea    -0x338(%rbp),%rax
    dccf:	48 89 85 70 fe ff ff 	mov    %rax,-0x190(%rbp)
    dcd6:	48 8d 85 c8 fc ff ff 	lea    -0x338(%rbp),%rax
    dcdd:	48 89 85 78 fe ff ff 	mov    %rax,-0x188(%rbp)
    dce4:	48 8d 85 c8 fc ff ff 	lea    -0x338(%rbp),%rax
    dceb:	48 89 85 80 fe ff ff 	mov    %rax,-0x180(%rbp)
    dcf2:	48 8d 85 c8 fc ff ff 	lea    -0x338(%rbp),%rax
    dcf9:	48 89 85 88 fe ff ff 	mov    %rax,-0x178(%rbp)
    dd00:	48 8d 85 c8 fc ff ff 	lea    -0x338(%rbp),%rax
    dd07:	48 89 85 90 fe ff ff 	mov    %rax,-0x170(%rbp)
    dd0e:	48 8d 85 c8 fc ff ff 	lea    -0x338(%rbp),%rax
    dd15:	48 89 85 98 fe ff ff 	mov    %rax,-0x168(%rbp)
    dd1c:	48 8d 85 c8 fc ff ff 	lea    -0x338(%rbp),%rax
    dd23:	48 89 85 a0 fe ff ff 	mov    %rax,-0x160(%rbp)
    dd2a:	48 8d 85 c8 fc ff ff 	lea    -0x338(%rbp),%rax
    dd31:	48 89 85 a8 fe ff ff 	mov    %rax,-0x158(%rbp)
    dd38:	48 8d 85 c8 fc ff ff 	lea    -0x338(%rbp),%rax
    dd3f:	48 89 85 b0 fe ff ff 	mov    %rax,-0x150(%rbp)
    dd46:	48 8d 85 c8 fc ff ff 	lea    -0x338(%rbp),%rax
    dd4d:	48 89 85 b8 fe ff ff 	mov    %rax,-0x148(%rbp)
    dd54:	48 8d 85 c8 fc ff ff 	lea    -0x338(%rbp),%rax
    dd5b:	48 89 85 c0 fe ff ff 	mov    %rax,-0x140(%rbp)
    dd62:	48 8d 85 c8 fc ff ff 	lea    -0x338(%rbp),%rax
    dd69:	48 89 85 c8 fe ff ff 	mov    %rax,-0x138(%rbp)
    dd70:	48 8d 85 c8 fc ff ff 	lea    -0x338(%rbp),%rax
    dd77:	48 89 85 d0 fe ff ff 	mov    %rax,-0x130(%rbp)
    dd7e:	48 8d 85 c8 fc ff ff 	lea    -0x338(%rbp),%rax
    dd85:	48 89 85 d8 fe ff ff 	mov    %rax,-0x128(%rbp)
    dd8c:	48 8d 85 c8 fc ff ff 	lea    -0x338(%rbp),%rax
    dd93:	48 89 85 e0 fe ff ff 	mov    %rax,-0x120(%rbp)
    dd9a:	48 8d 85 c8 fc ff ff 	lea    -0x338(%rbp),%rax
    dda1:	48 89 85 e8 fe ff ff 	mov    %rax,-0x118(%rbp)
    dda8:	48 8d 85 c8 fc ff ff 	lea    -0x338(%rbp),%rax
    ddaf:	48 89 85 f0 fe ff ff 	mov    %rax,-0x110(%rbp)
    ddb6:	48 8d 85 c8 fc ff ff 	lea    -0x338(%rbp),%rax
    ddbd:	48 89 85 f8 fe ff ff 	mov    %rax,-0x108(%rbp)
    ddc4:	48 8d 85 c8 fc ff ff 	lea    -0x338(%rbp),%rax
    ddcb:	48 89 85 00 ff ff ff 	mov    %rax,-0x100(%rbp)
    ddd2:	48 8d 85 c8 fc ff ff 	lea    -0x338(%rbp),%rax
    ddd9:	48 89 85 08 ff ff ff 	mov    %rax,-0xf8(%rbp)
    dde0:	48 8d 85 c8 fc ff ff 	lea    -0x338(%rbp),%rax
    dde7:	48 89 85 10 ff ff ff 	mov    %rax,-0xf0(%rbp)
    ddee:	48 8d 85 c8 fc ff ff 	lea    -0x338(%rbp),%rax
    ddf5:	48 89 85 18 ff ff ff 	mov    %rax,-0xe8(%rbp)
    ddfc:	48 8d 85 c8 fc ff ff 	lea    -0x338(%rbp),%rax
    de03:	48 89 85 20 ff ff ff 	mov    %rax,-0xe0(%rbp)
    de0a:	48 8d 85 c8 fc ff ff 	lea    -0x338(%rbp),%rax
    de11:	48 89 85 28 ff ff ff 	mov    %rax,-0xd8(%rbp)
    de18:	48 8d 85 c8 fc ff ff 	lea    -0x338(%rbp),%rax
    de1f:	48 89 85 30 ff ff ff 	mov    %rax,-0xd0(%rbp)
    de26:	48 8d 85 c8 fc ff ff 	lea    -0x338(%rbp),%rax
    de2d:	48 89 85 38 ff ff ff 	mov    %rax,-0xc8(%rbp)
    de34:	48 8d 85 c8 fc ff ff 	lea    -0x338(%rbp),%rax
    de3b:	48 89 85 40 ff ff ff 	mov    %rax,-0xc0(%rbp)
    de42:	48 8d 85 c8 fc ff ff 	lea    -0x338(%rbp),%rax
    de49:	48 89 85 48 ff ff ff 	mov    %rax,-0xb8(%rbp)
    de50:	48 8d 85 c8 fc ff ff 	lea    -0x338(%rbp),%rax
    de57:	48 89 85 50 ff ff ff 	mov    %rax,-0xb0(%rbp)
    de5e:	48 8d 85 c8 fc ff ff 	lea    -0x338(%rbp),%rax
    de65:	48 89 85 58 ff ff ff 	mov    %rax,-0xa8(%rbp)
    de6c:	48 8d 85 c8 fc ff ff 	lea    -0x338(%rbp),%rax
    de73:	48 89 85 60 ff ff ff 	mov    %rax,-0xa0(%rbp)
    de7a:	48 8d 85 c8 fc ff ff 	lea    -0x338(%rbp),%rax
    de81:	48 89 85 68 ff ff ff 	mov    %rax,-0x98(%rbp)
    de88:	48 8d 85 c8 fc ff ff 	lea    -0x338(%rbp),%rax
    de8f:	48 89 85 70 ff ff ff 	mov    %rax,-0x90(%rbp)
    de96:	48 8d 85 c8 fc ff ff 	lea    -0x338(%rbp),%rax
    de9d:	48 89 85 78 ff ff ff 	mov    %rax,-0x88(%rbp)
    dea4:	48 8d 85 c8 fc ff ff 	lea    -0x338(%rbp),%rax
    deab:	48 89 45 80          	mov    %rax,-0x80(%rbp)
    deaf:	48 8d 85 c8 fc ff ff 	lea    -0x338(%rbp),%rax
    deb6:	48 89 45 88          	mov    %rax,-0x78(%rbp)
    deba:	48 8d 85 c8 fc ff ff 	lea    -0x338(%rbp),%rax
    dec1:	48 89 45 90          	mov    %rax,-0x70(%rbp)
    dec5:	48 8d 85 c8 fc ff ff 	lea    -0x338(%rbp),%rax
    decc:	48 89 45 98          	mov    %rax,-0x68(%rbp)
    ded0:	48 8d 85 c8 fc ff ff 	lea    -0x338(%rbp),%rax
    ded7:	48 89 45 a0          	mov    %rax,-0x60(%rbp)
    dedb:	48 8d 85 c8 fc ff ff 	lea    -0x338(%rbp),%rax
    dee2:	48 89 45 a8          	mov    %rax,-0x58(%rbp)
    dee6:	48 8d 85 c8 fc ff ff 	lea    -0x338(%rbp),%rax
    deed:	48 89 45 b0          	mov    %rax,-0x50(%rbp)
    def1:	48 8d 85 c8 fc ff ff 	lea    -0x338(%rbp),%rax
    def8:	48 89 45 b8          	mov    %rax,-0x48(%rbp)
    defc:	48 8d 85 c8 fc ff ff 	lea    -0x338(%rbp),%rax
    df03:	48 89 45 c0          	mov    %rax,-0x40(%rbp)
    df07:	48 8d 85 c8 fc ff ff 	lea    -0x338(%rbp),%rax
    df0e:	48 89 45 c8          	mov    %rax,-0x38(%rbp)
    df12:	48 8d 85 c8 fc ff ff 	lea    -0x338(%rbp),%rax
    df19:	48 89 45 d0          	mov    %rax,-0x30(%rbp)
    df1d:	48 8d 85 c8 fc ff ff 	lea    -0x338(%rbp),%rax
    df24:	48 89 45 d8          	mov    %rax,-0x28(%rbp)
    df28:	48 8d 85 c8 fc ff ff 	lea    -0x338(%rbp),%rax
    df2f:	48 89 45 e0          	mov    %rax,-0x20(%rbp)
    df33:	48 8d 85 c8 fc ff ff 	lea    -0x338(%rbp),%rax
    df3a:	48 89 45 e8          	mov    %rax,-0x18(%rbp)
    df3e:	66 c7 85 82 fc ff ff 	movw   $0xd6ef,-0x37e(%rbp)
    df45:	ef d6 
    df47:	c6 85 7e fc ff ff f2 	movb   $0xf2,-0x382(%rbp)
    df4e:	c7 85 a8 fc ff ff fa 	movl   $0xfffffffa,-0x358(%rbp)
    df55:	ff ff ff 
    df58:	48 c7 85 d0 fc ff ff 	movq   $0x0,-0x330(%rbp)
    df5f:	00 00 00 00 
    df63:	48 8d 85 d0 fc ff ff 	lea    -0x330(%rbp),%rax
    df6a:	48 89 85 08 fd ff ff 	mov    %rax,-0x2f8(%rbp)
    df71:	48 c7 85 10 fd ff ff 	movq   $0x0,-0x2f0(%rbp)
    df78:	00 00 00 00 
    df7c:	66 c7 85 84 fc ff ff 	movw   $0x78b7,-0x37c(%rbp)
    df83:	b7 78 
    df85:	48 b8 4d 74 3b 57 ce 	movabs $0x59c72bce573b744d,%rax
    df8c:	2b c7 59 
    df8f:	48 89 85 18 fd ff ff 	mov    %rax,-0x2e8(%rbp)
    df96:	48 c7 85 20 fd ff ff 	movq   $0x1,-0x2e0(%rbp)
    df9d:	01 00 00 00 
    dfa1:	48 8d 85 c0 fc ff ff 	lea    -0x340(%rbp),%rax
    dfa8:	48 89 85 d8 fc ff ff 	mov    %rax,-0x328(%rbp)
    dfaf:	48 8d 85 d8 fc ff ff 	lea    -0x328(%rbp),%rax
    dfb6:	48 89 85 28 fd ff ff 	mov    %rax,-0x2d8(%rbp)
    dfbd:	c6 85 7f fc ff ff 99 	movb   $0x99,-0x381(%rbp)
    dfc4:	c7 85 ac fc ff ff f5 	movl   $0x7d0532f5,-0x354(%rbp)
    dfcb:	32 05 7d 
    dfce:	66 c7 85 86 fc ff ff 	movw   $0xffff,-0x37a(%rbp)
    dfd5:	ff ff 
    dfd7:	c6 85 80 fc ff ff 09 	movb   $0x9,-0x380(%rbp)
    dfde:	c6 85 81 fc ff ff 7c 	movb   $0x7c,-0x37f(%rbp)
    dfe5:	c7 85 88 fc ff ff 00 	movl   $0x0,-0x378(%rbp)
    dfec:	00 00 00 
    dfef:	eb 21                	jmp    e012 <func_84+0x638>
    dff1:	8b 85 88 fc ff ff    	mov    -0x378(%rbp),%eax
    dff7:	48 98                	cltq   
    dff9:	48 ba 5a 85 50 fc 38 	movabs $0x8774e538fc50855a,%rdx
    e000:	e5 74 87 
    e003:	48 89 94 c5 30 fd ff 	mov    %rdx,-0x2d0(%rbp,%rax,8)
    e00a:	ff 
    e00b:	83 85 88 fc ff ff 01 	addl   $0x1,-0x378(%rbp)
    e012:	83 bd 88 fc ff ff 03 	cmpl   $0x3,-0x378(%rbp)
    e019:	7e d6                	jle    dff1 <func_84+0x617>
    e01b:	83 85 90 fc ff ff 01 	addl   $0x1,-0x370(%rbp)
    e022:	48 8b 05 2f 88 00 00 	mov    0x882f(%rip),%rax        # 16858 <g_1226>
    e029:	48 8b 4d f8          	mov    -0x8(%rbp),%rcx
    e02d:	64 48 33 0c 25 28 00 	xor    %fs:0x28,%rcx
    e034:	00 00 
    e036:	74 05                	je     e03d <func_84+0x663>
    e038:	e8 33 a0 ff ff       	callq  8070 <__stack_chk_fail@plt>
    e03d:	c9                   	leaveq 
    e03e:	c3                   	retq   

000000000000e03f <func_90>:
    e03f:	f3 0f 1e fa          	endbr64 
    e043:	55                   	push   %rbp
    e044:	48 89 e5             	mov    %rsp,%rbp
    e047:	48 81 ec 90 01 00 00 	sub    $0x190,%rsp
    e04e:	48 89 bd 88 fe ff ff 	mov    %rdi,-0x178(%rbp)
    e055:	89 f0                	mov    %esi,%eax
    e057:	48 89 95 78 fe ff ff 	mov    %rdx,-0x188(%rbp)
    e05e:	89 8d 80 fe ff ff    	mov    %ecx,-0x180(%rbp)
    e064:	4c 89 85 70 fe ff ff 	mov    %r8,-0x190(%rbp)
    e06b:	66 89 85 84 fe ff ff 	mov    %ax,-0x17c(%rbp)
    e072:	64 48 8b 04 25 28 00 	mov    %fs:0x28,%rax
    e079:	00 00 
    e07b:	48 89 45 f8          	mov    %rax,-0x8(%rbp)
    e07f:	31 c0                	xor    %eax,%eax
    e081:	48 8d 05 e8 5f 00 00 	lea    0x5fe8(%rip),%rax        # 14070 <g_105>
    e088:	48 89 85 a8 fe ff ff 	mov    %rax,-0x158(%rbp)
    e08f:	48 8d 05 3a 60 00 00 	lea    0x603a(%rip),%rax        # 140d0 <g_109+0x50>
    e096:	48 89 85 b0 fe ff ff 	mov    %rax,-0x150(%rbp)
    e09d:	48 c7 85 b8 fe ff ff 	movq   $0x0,-0x148(%rbp)
    e0a4:	00 00 00 00 
    e0a8:	c7 85 a0 fe ff ff d8 	movl   $0xa44879d8,-0x160(%rbp)
    e0af:	79 48 a4 
    e0b2:	48 c7 85 c0 fe ff ff 	movq   $0x0,-0x140(%rbp)
    e0b9:	00 00 00 00 
    e0bd:	48 8d 85 d0 fe ff ff 	lea    -0x130(%rbp),%rax
    e0c4:	48 8d 15 f5 6a 00 00 	lea    0x6af5(%rip),%rdx        # 14bc0 <g_2688+0x3ce>
    e0cb:	b9 24 00 00 00       	mov    $0x24,%ecx
    e0d0:	48 89 c7             	mov    %rax,%rdi
    e0d3:	48 89 d6             	mov    %rdx,%rsi
    e0d6:	f3 48 a5             	rep movsq %ds:(%rsi),%es:(%rdi)
    e0d9:	c7 85 a4 fe ff ff fe 	movl   $0xfffffffe,-0x15c(%rbp)
    e0e0:	ff ff ff 
    e0e3:	48 c7 85 c8 fe ff ff 	movq   $0x0,-0x138(%rbp)
    e0ea:	00 00 00 00 
    e0ee:	83 85 a4 fe ff ff 01 	addl   $0x1,-0x15c(%rbp)
    e0f5:	c7 05 d1 62 00 00 01 	movl   $0x1,0x62d1(%rip)        # 143d0 <g_148>
    e0fc:	00 00 00 
    e0ff:	eb 59                	jmp    e15a <func_90+0x11b>
    e101:	c6 85 9f fe ff ff a0 	movb   $0xa0,-0x161(%rbp)
    e108:	48 8b 85 70 fe ff ff 	mov    -0x190(%rbp),%rax
    e10f:	8b 10                	mov    (%rax),%edx
    e111:	80 bd 9f fe ff ff 00 	cmpb   $0x0,-0x161(%rbp)
    e118:	75 0c                	jne    e126 <func_90+0xe7>
    e11a:	0f b7 05 55 63 00 00 	movzwl 0x6355(%rip),%eax        # 14476 <g_295+0x6>
    e121:	66 85 c0             	test   %ax,%ax
    e124:	74 07                	je     e12d <func_90+0xee>
    e126:	b8 01 00 00 00       	mov    $0x1,%eax
    e12b:	eb 05                	jmp    e132 <func_90+0xf3>
    e12d:	b8 00 00 00 00       	mov    $0x0,%eax
    e132:	83 f0 f7             	xor    $0xfffffff7,%eax
    e135:	09 c2                	or     %eax,%edx
    e137:	48 8b 85 70 fe ff ff 	mov    -0x190(%rbp),%rax
    e13e:	89 10                	mov    %edx,(%rax)
    e140:	8b 05 8a 62 00 00    	mov    0x628a(%rip),%eax        # 143d0 <g_148>
    e146:	98                   	cwtl   
    e147:	be 07 00 00 00       	mov    $0x7,%esi
    e14c:	89 c7                	mov    %eax,%edi
    e14e:	e8 60 a2 ff ff       	callq  83b3 <safe_add_func_int16_t_s_s>
    e153:	98                   	cwtl   
    e154:	89 05 76 62 00 00    	mov    %eax,0x6276(%rip)        # 143d0 <g_148>
    e15a:	8b 05 70 62 00 00    	mov    0x6270(%rip),%eax        # 143d0 <g_148>
    e160:	83 f8 0f             	cmp    $0xf,%eax
    e163:	75 9c                	jne    e101 <func_90+0xc2>
    e165:	48 8b 85 c8 fe ff ff 	mov    -0x138(%rbp),%rax
    e16c:	48 8b 4d f8          	mov    -0x8(%rbp),%rcx
    e170:	64 48 33 0c 25 28 00 	xor    %fs:0x28,%rcx
    e177:	00 00 
    e179:	74 05                	je     e180 <func_90+0x141>
    e17b:	e8 f0 9e ff ff       	callq  8070 <__stack_chk_fail@plt>
    e180:	c9                   	leaveq 
    e181:	c3                   	retq   

000000000000e182 <func_97>:
    e182:	f3 0f 1e fa          	endbr64 
    e186:	55                   	push   %rbp
    e187:	48 89 e5             	mov    %rsp,%rbp
    e18a:	41 57                	push   %r15
    e18c:	41 56                	push   %r14
    e18e:	41 55                	push   %r13
    e190:	41 54                	push   %r12
    e192:	53                   	push   %rbx
    e193:	48 81 ec 00 10 00 00 	sub    $0x1000,%rsp
    e19a:	48 83 0c 24 00       	orq    $0x0,(%rsp)
    e19f:	48 81 ec d8 0d 00 00 	sub    $0xdd8,%rsp
    e1a6:	48 89 bd 08 e2 ff ff 	mov    %rdi,-0x1df8(%rbp)
    e1ad:	64 48 8b 04 25 28 00 	mov    %fs:0x28,%rax
    e1b4:	00 00 
    e1b6:	48 89 45 c8          	mov    %rax,-0x38(%rbp)
    e1ba:	31 c0                	xor    %eax,%eax
    e1bc:	48 c7 85 50 e2 ff ff 	movq   $0x8,-0x1db0(%rbp)
    e1c3:	08 00 00 00 
    e1c7:	c7 85 2c e2 ff ff 01 	movl   $0x1,-0x1dd4(%rbp)
    e1ce:	00 00 00 
    e1d1:	c7 85 80 e3 ff ff 00 	movl   $0x0,-0x1c80(%rbp)
    e1d8:	00 00 00 
    e1db:	c7 85 84 e3 ff ff 93 	movl   $0xb521c193,-0x1c7c(%rbp)
    e1e2:	c1 21 b5 
    e1e5:	c7 85 88 e3 ff ff 93 	movl   $0xb521c193,-0x1c78(%rbp)
    e1ec:	c1 21 b5 
    e1ef:	c7 85 8c e3 ff ff c9 	movl   $0x17d067c9,-0x1c74(%rbp)
    e1f6:	67 d0 17 
    e1f9:	c7 85 90 e3 ff ff f6 	movl   $0xfffffff6,-0x1c70(%rbp)
    e200:	ff ff ff 
    e203:	c7 85 94 e3 ff ff f6 	movl   $0xfffffff6,-0x1c6c(%rbp)
    e20a:	ff ff ff 
    e20d:	c7 85 98 e3 ff ff 00 	movl   $0x0,-0x1c68(%rbp)
    e214:	00 00 00 
    e217:	c7 85 9c e3 ff ff 93 	movl   $0xb521c193,-0x1c64(%rbp)
    e21e:	c1 21 b5 
    e221:	c7 85 a0 e3 ff ff 93 	movl   $0xb521c193,-0x1c60(%rbp)
    e228:	c1 21 b5 
    e22b:	c7 85 a4 e3 ff ff c9 	movl   $0x17d067c9,-0x1c5c(%rbp)
    e232:	67 d0 17 
    e235:	c7 85 a8 e3 ff ff f6 	movl   $0xfffffff6,-0x1c58(%rbp)
    e23c:	ff ff ff 
    e23f:	c7 85 ac e3 ff ff f6 	movl   $0xfffffff6,-0x1c54(%rbp)
    e246:	ff ff ff 
    e249:	c7 85 b0 e3 ff ff 00 	movl   $0x0,-0x1c50(%rbp)
    e250:	00 00 00 
    e253:	c7 85 b4 e3 ff ff 93 	movl   $0xb521c193,-0x1c4c(%rbp)
    e25a:	c1 21 b5 
    e25d:	c7 85 b8 e3 ff ff 93 	movl   $0xb521c193,-0x1c48(%rbp)
    e264:	c1 21 b5 
    e267:	48 8d 85 a0 e9 ff ff 	lea    -0x1660(%rbp),%rax
    e26e:	48 8d 15 cb 2b 00 00 	lea    0x2bcb(%rip),%rdx        # 10e40 <g_2180+0xdd4>
    e275:	b9 6c 00 00 00       	mov    $0x6c,%ecx
    e27a:	48 89 c7             	mov    %rax,%rdi
    e27d:	48 89 d6             	mov    %rdx,%rsi
    e280:	f3 48 a5             	rep movsq %ds:(%rsi),%es:(%rdi)
    e283:	c6 85 17 e2 ff ff 4e 	movb   $0x4e,-0x1de9(%rbp)
    e28a:	48 8d 05 97 7e 00 00 	lea    0x7e97(%rip),%rax        # 16128 <g_41>
    e291:	48 89 85 58 e2 ff ff 	mov    %rax,-0x1da8(%rbp)
    e298:	48 8d 05 db 61 00 00 	lea    0x61db(%rip),%rax        # 1447a <g_295+0xa>
    e29f:	48 89 85 88 e2 ff ff 	mov    %rax,-0x1d78(%rbp)
    e2a6:	48 8d 05 33 61 00 00 	lea    0x6133(%rip),%rax        # 143e0 <g_252>
    e2ad:	48 89 85 c0 e3 ff ff 	mov    %rax,-0x1c40(%rbp)
    e2b4:	48 8d 05 25 61 00 00 	lea    0x6125(%rip),%rax        # 143e0 <g_252>
    e2bb:	48 89 85 c8 e3 ff ff 	mov    %rax,-0x1c38(%rbp)
    e2c2:	48 8d 05 17 61 00 00 	lea    0x6117(%rip),%rax        # 143e0 <g_252>
    e2c9:	48 89 85 d0 e3 ff ff 	mov    %rax,-0x1c30(%rbp)
    e2d0:	48 8d 05 09 61 00 00 	lea    0x6109(%rip),%rax        # 143e0 <g_252>
    e2d7:	48 89 85 d8 e3 ff ff 	mov    %rax,-0x1c28(%rbp)
    e2de:	48 8d 05 fb 60 00 00 	lea    0x60fb(%rip),%rax        # 143e0 <g_252>
    e2e5:	48 89 85 e0 e3 ff ff 	mov    %rax,-0x1c20(%rbp)
    e2ec:	48 8d 05 ed 60 00 00 	lea    0x60ed(%rip),%rax        # 143e0 <g_252>
    e2f3:	48 89 85 e8 e3 ff ff 	mov    %rax,-0x1c18(%rbp)
    e2fa:	48 8d 05 df 60 00 00 	lea    0x60df(%rip),%rax        # 143e0 <g_252>
    e301:	48 89 85 f0 e3 ff ff 	mov    %rax,-0x1c10(%rbp)
    e308:	48 8d 05 d1 60 00 00 	lea    0x60d1(%rip),%rax        # 143e0 <g_252>
    e30f:	48 89 85 f8 e3 ff ff 	mov    %rax,-0x1c08(%rbp)
    e316:	48 8d 05 c3 60 00 00 	lea    0x60c3(%rip),%rax        # 143e0 <g_252>
    e31d:	48 89 85 00 e4 ff ff 	mov    %rax,-0x1c00(%rbp)
    e324:	48 8d 05 b5 60 00 00 	lea    0x60b5(%rip),%rax        # 143e0 <g_252>
    e32b:	48 89 85 08 e4 ff ff 	mov    %rax,-0x1bf8(%rbp)
    e332:	48 8d 05 a7 60 00 00 	lea    0x60a7(%rip),%rax        # 143e0 <g_252>
    e339:	48 89 85 10 e4 ff ff 	mov    %rax,-0x1bf0(%rbp)
    e340:	48 8d 05 99 60 00 00 	lea    0x6099(%rip),%rax        # 143e0 <g_252>
    e347:	48 89 85 18 e4 ff ff 	mov    %rax,-0x1be8(%rbp)
    e34e:	66 c7 85 1a e2 ff ff 	movw   $0xb6cf,-0x1de6(%rbp)
    e355:	cf b6 
    e357:	48 8d 85 50 e2 ff ff 	lea    -0x1db0(%rbp),%rax
    e35e:	48 89 85 50 e3 ff ff 	mov    %rax,-0x1cb0(%rbp)
    e365:	48 8d 85 50 e2 ff ff 	lea    -0x1db0(%rbp),%rax
    e36c:	48 89 85 58 e3 ff ff 	mov    %rax,-0x1ca8(%rbp)
    e373:	48 8d 85 50 e2 ff ff 	lea    -0x1db0(%rbp),%rax
    e37a:	48 89 85 60 e3 ff ff 	mov    %rax,-0x1ca0(%rbp)
    e381:	48 8d 85 50 e2 ff ff 	lea    -0x1db0(%rbp),%rax
    e388:	48 89 85 68 e3 ff ff 	mov    %rax,-0x1c98(%rbp)
    e38f:	48 8d 85 50 e2 ff ff 	lea    -0x1db0(%rbp),%rax
    e396:	48 89 85 70 e3 ff ff 	mov    %rax,-0x1c90(%rbp)
    e39d:	48 8d 85 50 e2 ff ff 	lea    -0x1db0(%rbp),%rax
    e3a4:	48 89 85 78 e3 ff ff 	mov    %rax,-0x1c88(%rbp)
    e3ab:	c6 05 b0 5c 00 00 00 	movb   $0x0,0x5cb0(%rip)        # 14062 <g_38>
    e3b2:	e9 6f 0b 00 00       	jmpq   ef26 <func_97+0xda4>
    e3b7:	48 8d 05 aa 5c 00 00 	lea    0x5caa(%rip),%rax        # 14068 <g_47>
    e3be:	48 89 85 80 e2 ff ff 	mov    %rax,-0x1d80(%rbp)
    e3c5:	48 8d 05 a4 5c 00 00 	lea    0x5ca4(%rip),%rax        # 14070 <g_105>
    e3cc:	48 89 85 60 e2 ff ff 	mov    %rax,-0x1da0(%rbp)
    e3d3:	c7 85 20 e4 ff ff 01 	movl   $0x1,-0x1be0(%rbp)
    e3da:	00 00 00 
    e3dd:	c7 85 24 e4 ff ff ff 	movl   $0xffffffff,-0x1bdc(%rbp)
    e3e4:	ff ff ff 
    e3e7:	c7 85 28 e4 ff ff 6b 	movl   $0x757f9c6b,-0x1bd8(%rbp)
    e3ee:	9c 7f 75 
    e3f1:	c7 85 2c e4 ff ff 01 	movl   $0x1,-0x1bd4(%rbp)
    e3f8:	00 00 00 
    e3fb:	c7 85 30 e4 ff ff 00 	movl   $0x0,-0x1bd0(%rbp)
    e402:	00 00 00 
    e405:	c7 85 34 e4 ff ff 6b 	movl   $0x757f9c6b,-0x1bcc(%rbp)
    e40c:	9c 7f 75 
    e40f:	c7 85 38 e4 ff ff 9c 	movl   $0xb48f969c,-0x1bc8(%rbp)
    e416:	96 8f b4 
    e419:	c7 85 3c e4 ff ff b2 	movl   $0x557c78b2,-0x1bc4(%rbp)
    e420:	78 7c 55 
    e423:	c7 85 40 e4 ff ff 03 	movl   $0x3,-0x1bc0(%rbp)
    e42a:	00 00 00 
    e42d:	c7 85 44 e4 ff ff 8d 	movl   $0x2bf5c28d,-0x1bbc(%rbp)
    e434:	c2 f5 2b 
    e437:	c7 85 48 e4 ff ff 01 	movl   $0x1,-0x1bb8(%rbp)
    e43e:	00 00 00 
    e441:	c7 85 4c e4 ff ff 02 	movl   $0xd1f3bd02,-0x1bb4(%rbp)
    e448:	bd f3 d1 
    e44b:	c7 85 50 e4 ff ff 02 	movl   $0xd1f3bd02,-0x1bb0(%rbp)
    e452:	bd f3 d1 
    e455:	c7 85 54 e4 ff ff 01 	movl   $0x1,-0x1bac(%rbp)
    e45c:	00 00 00 
    e45f:	c7 85 58 e4 ff ff 8d 	movl   $0x2bf5c28d,-0x1ba8(%rbp)
    e466:	c2 f5 2b 
    e469:	c7 85 5c e4 ff ff 03 	movl   $0x3,-0x1ba4(%rbp)
    e470:	00 00 00 
    e473:	c7 85 60 e4 ff ff b2 	movl   $0x557c78b2,-0x1ba0(%rbp)
    e47a:	78 7c 55 
    e47d:	c7 85 64 e4 ff ff 9c 	movl   $0xb48f969c,-0x1b9c(%rbp)
    e484:	96 8f b4 
    e487:	c7 85 68 e4 ff ff 6b 	movl   $0x757f9c6b,-0x1b98(%rbp)
    e48e:	9c 7f 75 
    e491:	c7 85 6c e4 ff ff 00 	movl   $0x0,-0x1b94(%rbp)
    e498:	00 00 00 
    e49b:	c7 85 70 e4 ff ff 01 	movl   $0x1,-0x1b90(%rbp)
    e4a2:	00 00 00 
    e4a5:	c7 85 74 e4 ff ff 6b 	movl   $0x757f9c6b,-0x1b8c(%rbp)
    e4ac:	9c 7f 75 
    e4af:	c7 85 78 e4 ff ff ff 	movl   $0xffffffff,-0x1b88(%rbp)
    e4b6:	ff ff ff 
    e4b9:	c7 85 7c e4 ff ff 01 	movl   $0x1,-0x1b84(%rbp)
    e4c0:	00 00 00 
    e4c3:	c7 85 80 e4 ff ff fc 	movl   $0xfffffffc,-0x1b80(%rbp)
    e4ca:	ff ff ff 
    e4cd:	c7 85 84 e4 ff ff 02 	movl   $0xd1f3bd02,-0x1b7c(%rbp)
    e4d4:	bd f3 d1 
    e4d7:	c7 85 88 e4 ff ff ff 	movl   $0xffffffff,-0x1b78(%rbp)
    e4de:	ff ff ff 
    e4e1:	c7 85 8c e4 ff ff 09 	movl   $0x9,-0x1b74(%rbp)
    e4e8:	00 00 00 
    e4eb:	c7 85 90 e4 ff ff 6b 	movl   $0x757f9c6b,-0x1b70(%rbp)
    e4f2:	9c 7f 75 
    e4f5:	c7 85 94 e4 ff ff d5 	movl   $0xa0370fd5,-0x1b6c(%rbp)
    e4fc:	0f 37 a0 
    e4ff:	c7 85 98 e4 ff ff 00 	movl   $0x0,-0x1b68(%rbp)
    e506:	00 00 00 
    e509:	c7 85 9c e4 ff ff 8d 	movl   $0x2bf5c28d,-0x1b64(%rbp)
    e510:	c2 f5 2b 
    e513:	c7 85 a0 e4 ff ff 96 	movl   $0xd2a6e196,-0x1b60(%rbp)
    e51a:	e1 a6 d2 
    e51d:	c7 85 a4 e4 ff ff 01 	movl   $0x1,-0x1b5c(%rbp)
    e524:	00 00 00 
    e527:	c7 85 a8 e4 ff ff 96 	movl   $0xd2a6e196,-0x1b58(%rbp)
    e52e:	e1 a6 d2 
    e531:	c7 85 ac e4 ff ff ff 	movl   $0xffffffff,-0x1b54(%rbp)
    e538:	ff ff ff 
    e53b:	c7 85 b0 e4 ff ff ff 	movl   $0xffffffff,-0x1b50(%rbp)
    e542:	ff ff ff 
    e545:	c7 85 b4 e4 ff ff 96 	movl   $0xd2a6e196,-0x1b4c(%rbp)
    e54c:	e1 a6 d2 
    e54f:	c7 85 b8 e4 ff ff 03 	movl   $0x3,-0x1b48(%rbp)
    e556:	00 00 00 
    e559:	c7 85 bc e4 ff ff ff 	movl   $0xffffffff,-0x1b44(%rbp)
    e560:	ff ff ff 
    e563:	c7 85 c0 e4 ff ff 01 	movl   $0x1,-0x1b40(%rbp)
    e56a:	00 00 00 
    e56d:	c7 85 c4 e4 ff ff 01 	movl   $0x1,-0x1b3c(%rbp)
    e574:	00 00 00 
    e577:	c7 85 c8 e4 ff ff 09 	movl   $0x9,-0x1b38(%rbp)
    e57e:	00 00 00 
    e581:	c7 85 cc e4 ff ff 01 	movl   $0x1,-0x1b34(%rbp)
    e588:	00 00 00 
    e58b:	c7 85 d0 e4 ff ff 01 	movl   $0x1,-0x1b30(%rbp)
    e592:	00 00 00 
    e595:	c7 85 d4 e4 ff ff b2 	movl   $0x557c78b2,-0x1b2c(%rbp)
    e59c:	78 7c 55 
    e59f:	c7 85 d8 e4 ff ff 01 	movl   $0x1,-0x1b28(%rbp)
    e5a6:	00 00 00 
    e5a9:	c7 85 dc e4 ff ff ff 	movl   $0xffffffff,-0x1b24(%rbp)
    e5b0:	ff ff ff 
    e5b3:	c7 85 e0 e4 ff ff 02 	movl   $0xd1f3bd02,-0x1b20(%rbp)
    e5ba:	bd f3 d1 
    e5bd:	c7 85 e4 e4 ff ff 01 	movl   $0x1,-0x1b1c(%rbp)
    e5c4:	00 00 00 
    e5c7:	48 c7 85 70 e2 ff ff 	movq   $0x0,-0x1d90(%rbp)
    e5ce:	00 00 00 00 
    e5d2:	48 c7 85 78 e2 ff ff 	movq   $0xfffffffffffffffe,-0x1d88(%rbp)
    e5d9:	fe ff ff ff 
    e5dd:	48 8b 85 50 e2 ff ff 	mov    -0x1db0(%rbp),%rax
    e5e4:	48 ba d3 62 38 a4 5c 	movabs $0xf817ea5ca43862d3,%rdx
    e5eb:	ea 17 f8 
    e5ee:	48 39 d0             	cmp    %rdx,%rax
    e5f1:	0f 96 c0             	setbe  %al
    e5f4:	0f b6 d0             	movzbl %al,%edx
    e5f7:	48 8b 85 80 e2 ff ff 	mov    -0x1d80(%rbp),%rax
    e5fe:	89 10                	mov    %edx,(%rax)
    e600:	48 8b 85 80 e2 ff ff 	mov    -0x1d80(%rbp),%rax
    e607:	8b 08                	mov    (%rax),%ecx
    e609:	48 8b 85 60 e2 ff ff 	mov    -0x1da0(%rbp),%rax
    e610:	8b 10                	mov    (%rax),%edx
    e612:	48 8b 85 60 e2 ff ff 	mov    -0x1da0(%rbp),%rax
    e619:	31 ca                	xor    %ecx,%edx
    e61b:	89 10                	mov    %edx,(%rax)
    e61d:	c7 05 41 5a 00 00 00 	movl   $0x0,0x5a41(%rip)        # 14068 <g_47>
    e624:	00 00 00 
    e627:	e9 cf 08 00 00       	jmpq   eefb <func_97+0xd79>
    e62c:	c7 85 1c e2 ff ff 01 	movl   $0x1,-0x1de4(%rbp)
    e633:	00 00 00 
    e636:	c7 85 20 e2 ff ff 98 	movl   $0xe95b6698,-0x1de0(%rbp)
    e63d:	66 5b e9 
    e640:	c7 85 38 e2 ff ff 55 	movl   $0x9647ed55,-0x1dc8(%rbp)
    e647:	ed 47 96 
    e64a:	c7 85 24 e2 ff ff 4e 	movl   $0x13701f4e,-0x1ddc(%rbp)
    e651:	1f 70 13 
    e654:	c7 85 00 e3 ff ff 79 	movl   $0xc57d8a79,-0x1d00(%rbp)
    e65b:	8a 7d c5 
    e65e:	c7 85 04 e3 ff ff 79 	movl   $0xc57d8a79,-0x1cfc(%rbp)
    e665:	8a 7d c5 
    e668:	c7 85 08 e3 ff ff 79 	movl   $0xc57d8a79,-0x1cf8(%rbp)
    e66f:	8a 7d c5 
    e672:	c7 85 0c e3 ff ff 79 	movl   $0xc57d8a79,-0x1cf4(%rbp)
    e679:	8a 7d c5 
    e67c:	c7 05 ea 59 00 00 00 	movl   $0x0,0x59ea(%rip)        # 14070 <g_105>
    e683:	00 00 00 
    e686:	e9 f5 00 00 00       	jmpq   e780 <func_97+0x5fe>
    e68b:	48 8d 85 60 e2 ff ff 	lea    -0x1da0(%rbp),%rax
    e692:	48 89 85 e0 e2 ff ff 	mov    %rax,-0x1d20(%rbp)
    e699:	48 8b 85 e0 e2 ff ff 	mov    -0x1d20(%rbp),%rax
    e6a0:	48 8b 95 08 e2 ff ff 	mov    -0x1df8(%rbp),%rdx
    e6a7:	48 89 10             	mov    %rdx,(%rax)
    e6aa:	48 c7 85 50 e2 ff ff 	movq   $0x0,-0x1db0(%rbp)
    e6b1:	00 00 00 00 
    e6b5:	e9 a6 00 00 00       	jmpq   e760 <func_97+0x5de>
    e6ba:	48 8d 05 a3 59 00 00 	lea    0x59a3(%rip),%rax        # 14064 <g_42>
    e6c1:	48 89 85 e8 e2 ff ff 	mov    %rax,-0x1d18(%rbp)
    e6c8:	c7 05 ce 59 00 00 07 	movl   $0x7,0x59ce(%rip)        # 140a0 <g_109+0x20>
    e6cf:	00 00 00 
    e6d2:	eb 6d                	jmp    e741 <func_97+0x5bf>
    e6d4:	48 8d 05 69 5c 00 00 	lea    0x5c69(%rip),%rax        # 14344 <g_112+0x244>
    e6db:	48 89 85 f0 e2 ff ff 	mov    %rax,-0x1d10(%rbp)
    e6e2:	48 8b 85 e0 e2 ff ff 	mov    -0x1d20(%rbp),%rax
    e6e9:	48 8b 95 e8 e2 ff ff 	mov    -0x1d18(%rbp),%rdx
    e6f0:	48 89 10             	mov    %rdx,(%rax)
    e6f3:	48 8b 85 e0 e2 ff ff 	mov    -0x1d20(%rbp),%rax
    e6fa:	48 8b 10             	mov    (%rax),%rdx
    e6fd:	48 8b 85 e0 e2 ff ff 	mov    -0x1d20(%rbp),%rax
    e704:	48 89 10             	mov    %rdx,(%rax)
    e707:	48 8b 85 f0 e2 ff ff 	mov    -0x1d10(%rbp),%rax
    e70e:	c7 00 01 00 00 00    	movl   $0x1,(%rax)
    e714:	8b 05 56 59 00 00    	mov    0x5956(%rip),%eax        # 14070 <g_105>
    e71a:	48 98                	cltq   
    e71c:	48 8d 14 85 00 00 00 	lea    0x0(,%rax,4),%rdx
    e723:	00 
    e724:	48 8d 05 15 59 00 00 	lea    0x5915(%rip),%rax        # 14040 <g_29>
    e72b:	8b 04 02             	mov    (%rdx,%rax,1),%eax
    e72e:	85 c0                	test   %eax,%eax
    e730:	75 1b                	jne    e74d <func_97+0x5cb>
    e732:	8b 05 68 59 00 00    	mov    0x5968(%rip),%eax        # 140a0 <g_109+0x20>
    e738:	83 e8 01             	sub    $0x1,%eax
    e73b:	89 05 5f 59 00 00    	mov    %eax,0x595f(%rip)        # 140a0 <g_109+0x20>
    e741:	8b 05 59 59 00 00    	mov    0x5959(%rip),%eax        # 140a0 <g_109+0x20>
    e747:	85 c0                	test   %eax,%eax
    e749:	79 89                	jns    e6d4 <func_97+0x552>
    e74b:	eb 01                	jmp    e74e <func_97+0x5cc>
    e74d:	90                   	nop
    e74e:	48 8b 85 50 e2 ff ff 	mov    -0x1db0(%rbp),%rax
    e755:	48 83 c0 01          	add    $0x1,%rax
    e759:	48 89 85 50 e2 ff ff 	mov    %rax,-0x1db0(%rbp)
    e760:	48 8b 85 50 e2 ff ff 	mov    -0x1db0(%rbp),%rax
    e767:	48 83 f8 07          	cmp    $0x7,%rax
    e76b:	0f 86 49 ff ff ff    	jbe    e6ba <func_97+0x538>
    e771:	8b 05 f9 58 00 00    	mov    0x58f9(%rip),%eax        # 14070 <g_105>
    e777:	83 c0 01             	add    $0x1,%eax
    e77a:	89 05 f0 58 00 00    	mov    %eax,0x58f0(%rip)        # 14070 <g_105>
    e780:	8b 05 ea 58 00 00    	mov    0x58ea(%rip),%eax        # 14070 <g_105>
    e786:	83 f8 07             	cmp    $0x7,%eax
    e789:	0f 8e fc fe ff ff    	jle    e68b <func_97+0x509>
    e78f:	c7 05 d7 58 00 00 f1 	movl   $0xfffffff1,0x58d7(%rip)        # 14070 <g_105>
    e796:	ff ff ff 
    e799:	e9 3f 07 00 00       	jmpq   eedd <func_97+0xd5b>
    e79e:	c7 85 3c e2 ff ff ff 	movl   $0xffffffff,-0x1dc4(%rbp)
    e7a5:	ff ff ff 
    e7a8:	c7 85 28 e2 ff ff 02 	movl   $0x2,-0x1dd8(%rbp)
    e7af:	00 00 00 
    e7b2:	48 8d 05 a9 58 00 00 	lea    0x58a9(%rip),%rax        # 14062 <g_38>
    e7b9:	48 89 85 90 e2 ff ff 	mov    %rax,-0x1d70(%rbp)
    e7c0:	48 c7 85 98 e2 ff ff 	movq   $0x1,-0x1d68(%rbp)
    e7c7:	01 00 00 00 
    e7cb:	c7 85 40 e2 ff ff fb 	movl   $0xfffffffb,-0x1dc0(%rbp)
    e7d2:	ff ff ff 
    e7d5:	48 c7 85 a0 e2 ff ff 	movq   $0x0,-0x1d60(%rbp)
    e7dc:	00 00 00 00 
    e7e0:	48 8d 85 b0 f1 ff ff 	lea    -0xe50(%rbp),%rax
    e7e7:	48 8d 15 f2 64 00 00 	lea    0x64f2(%rip),%rdx        # 14ce0 <g_2688+0x4ee>
    e7ee:	b9 d2 00 00 00       	mov    $0xd2,%ecx
    e7f3:	48 89 c7             	mov    %rax,%rdi
    e7f6:	48 89 d6             	mov    %rdx,%rsi
    e7f9:	f3 48 a5             	rep movsq %ds:(%rsi),%es:(%rdi)
    e7fc:	48 c7 85 a8 e2 ff ff 	movq   $0xfffffffffffffffc,-0x1d58(%rbp)
    e803:	fc ff ff ff 
    e807:	48 8d 85 f0 e4 ff ff 	lea    -0x1b10(%rbp),%rax
    e80e:	48 8d 15 6b 6b 00 00 	lea    0x6b6b(%rip),%rdx        # 15380 <g_2688+0xb8e>
    e815:	b9 2a 00 00 00       	mov    $0x2a,%ecx
    e81a:	48 89 c7             	mov    %rax,%rdi
    e81d:	48 89 d6             	mov    %rdx,%rsi
    e820:	f3 48 a5             	rep movsq %ds:(%rsi),%es:(%rdi)
    e823:	48 8d 85 50 e2 ff ff 	lea    -0x1db0(%rbp),%rax
    e82a:	48 89 85 b0 e2 ff ff 	mov    %rax,-0x1d50(%rbp)
    e831:	48 c7 85 40 e6 ff ff 	movq   $0x0,-0x19c0(%rbp)
    e838:	00 00 00 00 
    e83c:	48 8d 85 24 e2 ff ff 	lea    -0x1ddc(%rbp),%rax
    e843:	48 89 85 48 e6 ff ff 	mov    %rax,-0x19b8(%rbp)
    e84a:	48 8d 85 20 e4 ff ff 	lea    -0x1be0(%rbp),%rax
    e851:	48 05 98 00 00 00    	add    $0x98,%rax
    e857:	48 89 85 50 e6 ff ff 	mov    %rax,-0x19b0(%rbp)
    e85e:	48 8d 85 24 e2 ff ff 	lea    -0x1ddc(%rbp),%rax
    e865:	48 89 85 58 e6 ff ff 	mov    %rax,-0x19a8(%rbp)
    e86c:	48 c7 85 60 e6 ff ff 	movq   $0x0,-0x19a0(%rbp)
    e873:	00 00 00 00 
    e877:	48 c7 85 68 e6 ff ff 	movq   $0x0,-0x1998(%rbp)
    e87e:	00 00 00 00 
    e882:	48 8d 85 00 e3 ff ff 	lea    -0x1d00(%rbp),%rax
    e889:	48 83 c0 0c          	add    $0xc,%rax
    e88d:	48 89 85 70 e6 ff ff 	mov    %rax,-0x1990(%rbp)
    e894:	48 8d 85 24 e2 ff ff 	lea    -0x1ddc(%rbp),%rax
    e89b:	48 89 85 78 e6 ff ff 	mov    %rax,-0x1988(%rbp)
    e8a2:	48 8d 85 24 e2 ff ff 	lea    -0x1ddc(%rbp),%rax
    e8a9:	48 89 85 80 e6 ff ff 	mov    %rax,-0x1980(%rbp)
    e8b0:	48 8d 85 00 e3 ff ff 	lea    -0x1d00(%rbp),%rax
    e8b7:	48 83 c0 0c          	add    $0xc,%rax
    e8bb:	48 89 85 88 e6 ff ff 	mov    %rax,-0x1978(%rbp)
    e8c2:	48 8d 85 28 e2 ff ff 	lea    -0x1dd8(%rbp),%rax
    e8c9:	48 89 85 90 e6 ff ff 	mov    %rax,-0x1970(%rbp)
    e8d0:	48 8d 85 00 e3 ff ff 	lea    -0x1d00(%rbp),%rax
    e8d7:	48 83 c0 0c          	add    $0xc,%rax
    e8db:	48 89 85 98 e6 ff ff 	mov    %rax,-0x1968(%rbp)
    e8e2:	48 8d 85 00 e3 ff ff 	lea    -0x1d00(%rbp),%rax
    e8e9:	48 83 c0 0c          	add    $0xc,%rax
    e8ed:	48 89 85 a0 e6 ff ff 	mov    %rax,-0x1960(%rbp)
    e8f4:	48 8d 85 28 e2 ff ff 	lea    -0x1dd8(%rbp),%rax
    e8fb:	48 89 85 a8 e6 ff ff 	mov    %rax,-0x1958(%rbp)
    e902:	48 8d 85 00 e3 ff ff 	lea    -0x1d00(%rbp),%rax
    e909:	48 83 c0 0c          	add    $0xc,%rax
    e90d:	48 89 85 b0 e6 ff ff 	mov    %rax,-0x1950(%rbp)
    e914:	48 8d 85 24 e2 ff ff 	lea    -0x1ddc(%rbp),%rax
    e91b:	48 89 85 b8 e6 ff ff 	mov    %rax,-0x1948(%rbp)
    e922:	48 8d 85 24 e2 ff ff 	lea    -0x1ddc(%rbp),%rax
    e929:	48 89 85 c0 e6 ff ff 	mov    %rax,-0x1940(%rbp)
    e930:	48 8d 85 00 e3 ff ff 	lea    -0x1d00(%rbp),%rax
    e937:	48 83 c0 0c          	add    $0xc,%rax
    e93b:	48 89 85 c8 e6 ff ff 	mov    %rax,-0x1938(%rbp)
    e942:	48 c7 85 d0 e6 ff ff 	movq   $0x0,-0x1930(%rbp)
    e949:	00 00 00 00 
    e94d:	48 c7 85 d8 e6 ff ff 	movq   $0x0,-0x1928(%rbp)
    e954:	00 00 00 00 
    e958:	48 8d 85 24 e2 ff ff 	lea    -0x1ddc(%rbp),%rax
    e95f:	48 89 85 e0 e6 ff ff 	mov    %rax,-0x1920(%rbp)
    e966:	48 8d 85 20 e4 ff ff 	lea    -0x1be0(%rbp),%rax
    e96d:	48 05 98 00 00 00    	add    $0x98,%rax
    e973:	48 89 85 e8 e6 ff ff 	mov    %rax,-0x1918(%rbp)
    e97a:	48 8d 85 24 e2 ff ff 	lea    -0x1ddc(%rbp),%rax
    e981:	48 89 85 f0 e6 ff ff 	mov    %rax,-0x1910(%rbp)
    e988:	48 c7 85 f8 e6 ff ff 	movq   $0x0,-0x1908(%rbp)
    e98f:	00 00 00 00 
    e993:	48 8d 85 24 e2 ff ff 	lea    -0x1ddc(%rbp),%rax
    e99a:	48 89 85 00 e7 ff ff 	mov    %rax,-0x1900(%rbp)
    e9a1:	48 8d 85 28 e2 ff ff 	lea    -0x1dd8(%rbp),%rax
    e9a8:	48 89 85 08 e7 ff ff 	mov    %rax,-0x18f8(%rbp)
    e9af:	48 8d 85 20 e4 ff ff 	lea    -0x1be0(%rbp),%rax
    e9b6:	48 05 98 00 00 00    	add    $0x98,%rax
    e9bc:	48 89 85 10 e7 ff ff 	mov    %rax,-0x18f0(%rbp)
    e9c3:	48 8d 85 20 e4 ff ff 	lea    -0x1be0(%rbp),%rax
    e9ca:	48 05 98 00 00 00    	add    $0x98,%rax
    e9d0:	48 89 85 18 e7 ff ff 	mov    %rax,-0x18e8(%rbp)
    e9d7:	48 8d 85 28 e2 ff ff 	lea    -0x1dd8(%rbp),%rax
    e9de:	48 89 85 20 e7 ff ff 	mov    %rax,-0x18e0(%rbp)
    e9e5:	48 8d 85 24 e2 ff ff 	lea    -0x1ddc(%rbp),%rax
    e9ec:	48 89 85 28 e7 ff ff 	mov    %rax,-0x18d8(%rbp)
    e9f3:	48 c7 85 30 e7 ff ff 	movq   $0x0,-0x18d0(%rbp)
    e9fa:	00 00 00 00 
    e9fe:	48 8d 85 24 e2 ff ff 	lea    -0x1ddc(%rbp),%rax
    ea05:	48 89 85 38 e7 ff ff 	mov    %rax,-0x18c8(%rbp)
    ea0c:	48 8d 85 20 e4 ff ff 	lea    -0x1be0(%rbp),%rax
    ea13:	48 05 98 00 00 00    	add    $0x98,%rax
    ea19:	48 89 85 40 e7 ff ff 	mov    %rax,-0x18c0(%rbp)
    ea20:	48 8d 85 24 e2 ff ff 	lea    -0x1ddc(%rbp),%rax
    ea27:	48 89 85 48 e7 ff ff 	mov    %rax,-0x18b8(%rbp)
    ea2e:	48 c7 85 50 e7 ff ff 	movq   $0x0,-0x18b0(%rbp)
    ea35:	00 00 00 00 
    ea39:	48 c7 85 58 e7 ff ff 	movq   $0x0,-0x18a8(%rbp)
    ea40:	00 00 00 00 
    ea44:	48 8d 85 00 e3 ff ff 	lea    -0x1d00(%rbp),%rax
    ea4b:	48 83 c0 0c          	add    $0xc,%rax
    ea4f:	48 89 85 60 e7 ff ff 	mov    %rax,-0x18a0(%rbp)
    ea56:	48 8d 85 24 e2 ff ff 	lea    -0x1ddc(%rbp),%rax
    ea5d:	48 89 85 68 e7 ff ff 	mov    %rax,-0x1898(%rbp)
    ea64:	48 8d 85 24 e2 ff ff 	lea    -0x1ddc(%rbp),%rax
    ea6b:	48 89 85 70 e7 ff ff 	mov    %rax,-0x1890(%rbp)
    ea72:	48 8d 85 00 e3 ff ff 	lea    -0x1d00(%rbp),%rax
    ea79:	48 83 c0 0c          	add    $0xc,%rax
    ea7d:	48 89 85 78 e7 ff ff 	mov    %rax,-0x1888(%rbp)
    ea84:	48 8d 85 28 e2 ff ff 	lea    -0x1dd8(%rbp),%rax
    ea8b:	48 89 85 80 e7 ff ff 	mov    %rax,-0x1880(%rbp)
    ea92:	48 8d 85 00 e3 ff ff 	lea    -0x1d00(%rbp),%rax
    ea99:	48 83 c0 0c          	add    $0xc,%rax
    ea9d:	48 89 85 88 e7 ff ff 	mov    %rax,-0x1878(%rbp)
    eaa4:	48 8d 85 00 e3 ff ff 	lea    -0x1d00(%rbp),%rax
    eaab:	48 83 c0 0c          	add    $0xc,%rax
    eaaf:	48 89 85 90 e7 ff ff 	mov    %rax,-0x1870(%rbp)
    eab6:	48 8d 85 28 e2 ff ff 	lea    -0x1dd8(%rbp),%rax
    eabd:	48 89 85 98 e7 ff ff 	mov    %rax,-0x1868(%rbp)
    eac4:	48 8d 85 00 e3 ff ff 	lea    -0x1d00(%rbp),%rax
    eacb:	48 83 c0 0c          	add    $0xc,%rax
    eacf:	48 89 85 a0 e7 ff ff 	mov    %rax,-0x1860(%rbp)
    ead6:	48 8d 85 24 e2 ff ff 	lea    -0x1ddc(%rbp),%rax
    eadd:	48 89 85 a8 e7 ff ff 	mov    %rax,-0x1858(%rbp)
    eae4:	48 8d 85 24 e2 ff ff 	lea    -0x1ddc(%rbp),%rax
    eaeb:	48 89 85 b0 e7 ff ff 	mov    %rax,-0x1850(%rbp)
    eaf2:	48 8d 85 00 e3 ff ff 	lea    -0x1d00(%rbp),%rax
    eaf9:	48 83 c0 0c          	add    $0xc,%rax
    eafd:	48 89 85 b8 e7 ff ff 	mov    %rax,-0x1848(%rbp)
    eb04:	c7 85 30 e2 ff ff 00 	movl   $0x0,-0x1dd0(%rbp)
    eb0b:	00 00 00 
    eb0e:	eb 1a                	jmp    eb2a <func_97+0x9a8>
    eb10:	8b 85 30 e2 ff ff    	mov    -0x1dd0(%rbp),%eax
    eb16:	48 98                	cltq   
    eb18:	c7 84 85 10 e3 ff ff 	movl   $0xffffffff,-0x1cf0(%rbp,%rax,4)
    eb1f:	ff ff ff ff 
    eb23:	83 85 30 e2 ff ff 01 	addl   $0x1,-0x1dd0(%rbp)
    eb2a:	83 bd 30 e2 ff ff 04 	cmpl   $0x4,-0x1dd0(%rbp)
    eb31:	7e dd                	jle    eb10 <func_97+0x98e>
    eb33:	c7 85 30 e2 ff ff 00 	movl   $0x0,-0x1dd0(%rbp)
    eb3a:	00 00 00 
    eb3d:	eb 19                	jmp    eb58 <func_97+0x9d6>
    eb3f:	8b 85 30 e2 ff ff    	mov    -0x1dd0(%rbp),%eax
    eb45:	48 98                	cltq   
    eb47:	66 c7 84 45 fe e2 ff 	movw   $0x7,-0x1d02(%rbp,%rax,2)
    eb4e:	ff 07 00 
    eb51:	83 85 30 e2 ff ff 01 	addl   $0x1,-0x1dd0(%rbp)
    eb58:	83 bd 30 e2 ff ff 00 	cmpl   $0x0,-0x1dd0(%rbp)
    eb5f:	7e de                	jle    eb3f <func_97+0x9bd>
    eb61:	8b 85 3c e2 ff ff    	mov    -0x1dc4(%rbp),%eax
    eb67:	0f be c0             	movsbl %al,%eax
    eb6a:	89 c7                	mov    %eax,%edi
    eb6c:	e8 4e 96 ff ff       	callq  81bf <safe_unary_minus_func_int8_t_s>
    eb71:	c6 85 18 e2 ff ff 72 	movb   $0x72,-0x1de8(%rbp)
    eb78:	c7 85 44 e2 ff ff 02 	movl   $0x7aeb4d02,-0x1dbc(%rbp)
    eb7f:	4d eb 7a 
    eb82:	c7 85 48 e2 ff ff e2 	movl   $0xb0f068e2,-0x1db8(%rbp)
    eb89:	68 f0 b0 
    eb8c:	c7 85 4c e2 ff ff 41 	movl   $0xc48b7b41,-0x1db4(%rbp)
    eb93:	7b 8b c4 
    eb96:	48 c7 85 50 e2 ff ff 	movq   $0x0,-0x1db0(%rbp)
    eb9d:	00 00 00 00 
    eba1:	e9 f6 01 00 00       	jmpq   ed9c <func_97+0xc1a>
    eba6:	c6 85 19 e2 ff ff 00 	movb   $0x0,-0x1de7(%rbp)
    ebad:	48 8d 85 40 f8 ff ff 	lea    -0x7c0(%rbp),%rax
    ebb4:	48 8d 15 25 69 00 00 	lea    0x6925(%rip),%rdx        # 154e0 <g_2688+0xcee>
    ebbb:	b9 f0 00 00 00       	mov    $0xf0,%ecx
    ebc0:	48 89 c7             	mov    %rax,%rdi
    ebc3:	48 89 d6             	mov    %rdx,%rsi
    ebc6:	f3 48 a5             	rep movsq %ds:(%rsi),%es:(%rdi)
    ebc9:	48 8d 85 c0 e7 ff ff 	lea    -0x1840(%rbp),%rax
    ebd0:	48 8d 15 c9 25 00 00 	lea    0x25c9(%rip),%rdx        # 111a0 <g_2180+0x1134>
    ebd7:	b9 3c 00 00 00       	mov    $0x3c,%ecx
    ebdc:	48 89 c7             	mov    %rax,%rdi
    ebdf:	48 89 d6             	mov    %rdx,%rsi
    ebe2:	f3 48 a5             	rep movsq %ds:(%rsi),%es:(%rdi)
    ebe5:	48 8d 85 c0 e7 ff ff 	lea    -0x1840(%rbp),%rax
    ebec:	48 05 c0 01 00 00    	add    $0x1c0,%rax
    ebf2:	48 89 85 b8 e2 ff ff 	mov    %rax,-0x1d48(%rbp)
    ebf9:	48 8d 85 fe e2 ff ff 	lea    -0x1d02(%rbp),%rax
    ec00:	48 89 85 c0 e2 ff ff 	mov    %rax,-0x1d40(%rbp)
    ec07:	48 8d 85 00 ed ff ff 	lea    -0x1300(%rbp),%rax
    ec0e:	48 8d 15 4b 70 00 00 	lea    0x704b(%rip),%rdx        # 15c60 <g_2688+0x146e>
    ec15:	b9 96 00 00 00       	mov    $0x96,%ecx
    ec1a:	48 89 c7             	mov    %rax,%rdi
    ec1d:	48 89 d6             	mov    %rdx,%rsi
    ec20:	f3 48 a5             	rep movsq %ds:(%rsi),%es:(%rdi)
    ec23:	48 8d 85 30 e3 ff ff 	lea    -0x1cd0(%rbp),%rax
    ec2a:	48 89 85 c8 e2 ff ff 	mov    %rax,-0x1d38(%rbp)
    ec31:	48 8d 05 1c 14 00 00 	lea    0x141c(%rip),%rax        # 10054 <g_153>
    ec38:	48 89 85 68 e2 ff ff 	mov    %rax,-0x1d98(%rbp)
    ec3f:	48 8d 85 68 e2 ff ff 	lea    -0x1d98(%rbp),%rax
    ec46:	48 89 85 d0 e2 ff ff 	mov    %rax,-0x1d30(%rbp)
    ec4d:	48 8d 85 19 e2 ff ff 	lea    -0x1de7(%rbp),%rax
    ec54:	48 89 85 d8 e2 ff ff 	mov    %rax,-0x1d28(%rbp)
    ec5b:	c7 85 34 e2 ff ff 00 	movl   $0x0,-0x1dcc(%rbp)
    ec62:	00 00 00 
    ec65:	eb 1e                	jmp    ec85 <func_97+0xb03>
    ec67:	8b 85 34 e2 ff ff    	mov    -0x1dcc(%rbp),%eax
    ec6d:	48 98                	cltq   
    ec6f:	48 8d 15 ca 53 00 00 	lea    0x53ca(%rip),%rdx        # 14040 <g_29>
    ec76:	48 89 94 c5 30 e3 ff 	mov    %rdx,-0x1cd0(%rbp,%rax,8)
    ec7d:	ff 
    ec7e:	83 85 34 e2 ff ff 01 	addl   $0x1,-0x1dcc(%rbp)
    ec85:	83 bd 34 e2 ff ff 02 	cmpl   $0x2,-0x1dcc(%rbp)
    ec8c:	7e d9                	jle    ec67 <func_97+0xae5>
    ec8e:	0f b7 85 fe e2 ff ff 	movzwl -0x1d02(%rbp),%eax
    ec95:	83 c0 01             	add    $0x1,%eax
    ec98:	66 89 85 fe e2 ff ff 	mov    %ax,-0x1d02(%rbp)
    ec9f:	8b 85 a8 e3 ff ff    	mov    -0x1c58(%rbp),%eax
    eca5:	89 05 fd 53 00 00    	mov    %eax,0x53fd(%rip)        # 140a8 <g_109+0x28>
    ecab:	8b 85 20 e2 ff ff    	mov    -0x1de0(%rbp),%eax
    ecb1:	0f b6 d8             	movzbl %al,%ebx
    ecb4:	8b 85 4c e2 ff ff    	mov    -0x1db4(%rbp),%eax
    ecba:	ba 63 bb 96 c7       	mov    $0xc796bb63,%edx
    ecbf:	09 d0                	or     %edx,%eax
    ecc1:	8b 95 10 e3 ff ff    	mov    -0x1cf0(%rbp),%edx
    ecc7:	89 c6                	mov    %eax,%esi
    ecc9:	89 d7                	mov    %edx,%edi
    eccb:	e8 2d a2 ff ff       	callq  8efd <safe_mod_func_uint32_t_u_u>
    ecd0:	0f be c0             	movsbl %al,%eax
    ecd3:	be c4 ff ff ff       	mov    $0xffffffc4,%esi
    ecd8:	89 c7                	mov    %eax,%edi
    ecda:	e8 52 95 ff ff       	callq  8231 <safe_mod_func_int8_t_s_s>
    ecdf:	44 0f be e0          	movsbl %al,%r12d
    ece3:	48 8b 85 d0 e2 ff ff 	mov    -0x1d30(%rbp),%rax
    ecea:	48 c7 00 00 00 00 00 	movq   $0x0,(%rax)
    ecf1:	48 8b 85 b8 e2 ff ff 	mov    -0x1d48(%rbp),%rax
    ecf8:	66 c7 00 04 68       	movw   $0x6804,(%rax)
    ecfd:	48 8b 85 c0 e2 ff ff 	mov    -0x1d40(%rbp),%rax
    ed04:	66 c7 00 ff ff       	movw   $0xffff,(%rax)
    ed09:	c7 85 28 e2 ff ff 00 	movl   $0x0,-0x1dd8(%rbp)
    ed10:	00 00 00 
    ed13:	8b 85 28 e2 ff ff    	mov    -0x1dd8(%rbp),%eax
    ed19:	89 c2                	mov    %eax,%edx
    ed1b:	8b 85 24 e2 ff ff    	mov    -0x1ddc(%rbp),%eax
    ed21:	89 d6                	mov    %edx,%esi
    ed23:	89 c7                	mov    %eax,%edi
    ed25:	e8 0e c8 ff ff       	callq  b538 <func_8>
    ed2a:	48 8b 95 c8 e2 ff ff 	mov    -0x1d38(%rbp),%rdx
    ed31:	48 89 02             	mov    %rax,(%rdx)
    ed34:	44 89 e6             	mov    %r12d,%esi
    ed37:	bf 01 00 00 00       	mov    $0x1,%edi
    ed3c:	e8 8b 99 ff ff       	callq  86cc <safe_mod_func_int32_t_s_s>
    ed41:	48 8d 85 18 e2 ff ff 	lea    -0x1de8(%rbp),%rax
    ed48:	48 39 85 90 e2 ff ff 	cmp    %rax,-0x1d70(%rbp)
    ed4f:	0f 94 c0             	sete   %al
    ed52:	f7 d0                	not    %eax
    ed54:	89 c2                	mov    %eax,%edx
    ed56:	48 8b 85 d8 e2 ff ff 	mov    -0x1d28(%rbp),%rax
    ed5d:	88 10                	mov    %dl,(%rax)
    ed5f:	48 8b 85 80 e2 ff ff 	mov    -0x1d80(%rbp),%rax
    ed66:	8b 00                	mov    (%rax),%eax
    ed68:	0f b6 c0             	movzbl %al,%eax
    ed6b:	89 de                	mov    %ebx,%esi
    ed6d:	89 c7                	mov    %eax,%edi
    ed6f:	e8 04 9e ff ff       	callq  8b78 <safe_sub_func_uint8_t_u_u>
    ed74:	3c 01                	cmp    $0x1,%al
    ed76:	0f 95 c0             	setne  %al
    ed79:	0f b6 d0             	movzbl %al,%edx
    ed7c:	8b 85 b4 e3 ff ff    	mov    -0x1c4c(%rbp),%eax
    ed82:	21 d0                	and    %edx,%eax
    ed84:	89 85 b4 e3 ff ff    	mov    %eax,-0x1c4c(%rbp)
    ed8a:	48 8b 85 50 e2 ff ff 	mov    -0x1db0(%rbp),%rax
    ed91:	48 83 c0 01          	add    $0x1,%rax
    ed95:	48 89 85 50 e2 ff ff 	mov    %rax,-0x1db0(%rbp)
    ed9c:	48 8b 85 50 e2 ff ff 	mov    -0x1db0(%rbp),%rax
    eda3:	48 83 f8 15          	cmp    $0x15,%rax
    eda7:	0f 86 f9 fd ff ff    	jbe    eba6 <func_97+0xa24>
    edad:	c6 05 9c 90 00 00 20 	movb   $0x20,0x909c(%rip)        # 17e50 <g_163>
    edb4:	0f b7 85 fe e2 ff ff 	movzwl -0x1d02(%rbp),%eax
    edbb:	0f b7 d8             	movzwl %ax,%ebx
    edbe:	48 8b 85 78 e2 ff ff 	mov    -0x1d88(%rbp),%rax
    edc5:	89 c2                	mov    %eax,%edx
    edc7:	48 8b 85 80 e2 ff ff 	mov    -0x1d80(%rbp),%rax
    edce:	8b 00                	mov    (%rax),%eax
    edd0:	85 c0                	test   %eax,%eax
    edd2:	0f 94 c0             	sete   %al
    edd5:	0f b6 c0             	movzbl %al,%eax
    edd8:	89 d6                	mov    %edx,%esi
    edda:	89 c7                	mov    %eax,%edi
    eddc:	e8 25 a0 ff ff       	callq  8e06 <safe_lshift_func_uint16_t_u_u>
    ede1:	0f b7 d0             	movzwl %ax,%edx
    ede4:	8b 85 3c e2 ff ff    	mov    -0x1dc4(%rbp),%eax
    edea:	0f be c0             	movsbl %al,%eax
    eded:	89 d6                	mov    %edx,%esi
    edef:	89 c7                	mov    %eax,%edi
    edf1:	e8 ab 94 ff ff       	callq  82a1 <safe_lshift_func_int8_t_s_s>
    edf6:	66 98                	cbtw   
    edf8:	48 8b 95 a8 e2 ff ff 	mov    -0x1d58(%rbp),%rdx
    edff:	21 d0                	and    %edx,%eax
    ee01:	0f b7 c0             	movzwl %ax,%eax
    ee04:	be 1e e8 00 00       	mov    $0xe81e,%esi
    ee09:	89 c7                	mov    %eax,%edi
    ee0b:	e8 ef 9e ff ff       	callq  8cff <safe_add_func_uint16_t_u_u>
    ee10:	0f b7 d0             	movzwl %ax,%edx
    ee13:	48 8b 85 58 e2 ff ff 	mov    -0x1da8(%rbp),%rax
    ee1a:	48 8b 00             	mov    (%rax),%rax
    ee1d:	8b 00                	mov    (%rax),%eax
    ee1f:	39 c2                	cmp    %eax,%edx
    ee21:	0f 9d c0             	setge  %al
    ee24:	0f b6 c0             	movzbl %al,%eax
    ee27:	39 c3                	cmp    %eax,%ebx
    ee29:	0f 9f c0             	setg   %al
    ee2c:	0f b6 c0             	movzbl %al,%eax
    ee2f:	89 c6                	mov    %eax,%esi
    ee31:	bf ce c7 ff ff       	mov    $0xffffc7ce,%edi
    ee36:	e8 78 95 ff ff       	callq  83b3 <safe_add_func_int16_t_s_s>
    ee3b:	48 8b 85 58 e2 ff ff 	mov    -0x1da8(%rbp),%rax
    ee42:	48 8b 00             	mov    (%rax),%rax
    ee45:	8b 18                	mov    (%rax),%ebx
    ee47:	0f b6 05 03 90 00 00 	movzbl 0x9003(%rip),%eax        # 17e51 <g_181>
    ee4e:	8d 50 ff             	lea    -0x1(%rax),%edx
    ee51:	88 15 fa 8f 00 00    	mov    %dl,0x8ffa(%rip)        # 17e51 <g_181>
    ee57:	0f b6 c0             	movzbl %al,%eax
    ee5a:	be 03 00 00 00       	mov    $0x3,%esi
    ee5f:	89 c7                	mov    %eax,%edi
    ee61:	e8 27 9e ff ff       	callq  8c8d <safe_rshift_func_uint8_t_u_s>
    ee66:	0f b6 d0             	movzbl %al,%edx
    ee69:	8b 85 20 e2 ff ff    	mov    -0x1de0(%rbp),%eax
    ee6f:	21 d8                	and    %ebx,%eax
    ee71:	89 85 20 e2 ff ff    	mov    %eax,-0x1de0(%rbp)
    ee77:	8b 85 20 e2 ff ff    	mov    -0x1de0(%rbp),%eax
    ee7d:	09 c2                	or     %eax,%edx
    ee7f:	48 8b 85 58 e2 ff ff 	mov    -0x1da8(%rbp),%rax
    ee86:	48 8b 00             	mov    (%rax),%rax
    ee89:	8b 00                	mov    (%rax),%eax
    ee8b:	39 c2                	cmp    %eax,%edx
    ee8d:	0f 9e c0             	setle  %al
    ee90:	0f b6 c0             	movzbl %al,%eax
    ee93:	be 05 00 00 00       	mov    $0x5,%esi
    ee98:	89 c7                	mov    %eax,%edi
    ee9a:	e8 1f 9e ff ff       	callq  8cbe <safe_rshift_func_uint8_t_u_u>
    ee9f:	b8 01 00 00 00       	mov    $0x1,%eax
    eea4:	48 63 d0             	movslq %eax,%rdx
    eea7:	48 8b 85 b0 e2 ff ff 	mov    -0x1d50(%rbp),%rax
    eeae:	48 89 10             	mov    %rdx,(%rax)
    eeb1:	be fb ff ff ff       	mov    $0xfffffffb,%esi
    eeb6:	bf 01 00 00 00       	mov    $0x1,%edi
    eebb:	e8 45 97 ff ff       	callq  8605 <safe_sub_func_int32_t_s_s>
    eec0:	8b 15 da 51 00 00    	mov    0x51da(%rip),%edx        # 140a0 <g_109+0x20>
    eec6:	09 d0                	or     %edx,%eax
    eec8:	89 05 d2 51 00 00    	mov    %eax,0x51d2(%rip)        # 140a0 <g_109+0x20>
    eece:	8b 05 9c 51 00 00    	mov    0x519c(%rip),%eax        # 14070 <g_105>
    eed4:	83 c0 01             	add    $0x1,%eax
    eed7:	89 05 93 51 00 00    	mov    %eax,0x5193(%rip)        # 14070 <g_105>
    eedd:	8b 05 8d 51 00 00    	mov    0x518d(%rip),%eax        # 14070 <g_105>
    eee3:	83 f8 19             	cmp    $0x19,%eax
    eee6:	0f 8f b2 f8 ff ff    	jg     e79e <func_97+0x61c>
    eeec:	8b 05 76 51 00 00    	mov    0x5176(%rip),%eax        # 14068 <g_47>
    eef2:	83 c0 01             	add    $0x1,%eax
    eef5:	89 05 6d 51 00 00    	mov    %eax,0x516d(%rip)        # 14068 <g_47>
    eefb:	8b 05 67 51 00 00    	mov    0x5167(%rip),%eax        # 14068 <g_47>
    ef01:	83 f8 0f             	cmp    $0xf,%eax
    ef04:	0f 8f 22 f7 ff ff    	jg     e62c <func_97+0x4aa>
    ef0a:	0f b6 05 51 51 00 00 	movzbl 0x5151(%rip),%eax        # 14062 <g_38>
    ef11:	0f be c0             	movsbl %al,%eax
    ef14:	be 06 00 00 00       	mov    $0x6,%esi
    ef19:	89 c7                	mov    %eax,%edi
    ef1b:	e8 d2 92 ff ff       	callq  81f2 <safe_sub_func_int8_t_s_s>
    ef20:	88 05 3c 51 00 00    	mov    %al,0x513c(%rip)        # 14062 <g_38>
    ef26:	0f b6 05 35 51 00 00 	movzbl 0x5135(%rip),%eax        # 14062 <g_38>
    ef2d:	3c ea                	cmp    $0xea,%al
    ef2f:	0f 84 82 f4 ff ff    	je     e3b7 <func_97+0x235>
    ef35:	48 8b 85 58 e2 ff ff 	mov    -0x1da8(%rbp),%rax
    ef3c:	48 8b 00             	mov    (%rax),%rax
    ef3f:	8b 00                	mov    (%rax),%eax
    ef41:	85 c0                	test   %eax,%eax
    ef43:	75 10                	jne    ef55 <func_97+0xdd3>
    ef45:	48 8b 85 58 e2 ff ff 	mov    -0x1da8(%rbp),%rax
    ef4c:	48 8b 00             	mov    (%rax),%rax
    ef4f:	8b 00                	mov    (%rax),%eax
    ef51:	85 c0                	test   %eax,%eax
    ef53:	74 08                	je     ef5d <func_97+0xddb>
    ef55:	41 bf 01 00 00 00    	mov    $0x1,%r15d
    ef5b:	eb 06                	jmp    ef63 <func_97+0xde1>
    ef5d:	41 bf 00 00 00 00    	mov    $0x0,%r15d
    ef63:	0f b7 05 a8 54 00 00 	movzwl 0x54a8(%rip),%eax        # 14412 <g_253+0x12>
    ef6a:	0f b6 d8             	movzbl %al,%ebx
    ef6d:	48 8b 85 58 e2 ff ff 	mov    -0x1da8(%rbp),%rax
    ef74:	48 8b 00             	mov    (%rax),%rax
    ef77:	8b 00                	mov    (%rax),%eax
    ef79:	44 0f b7 e0          	movzwl %ax,%r12d
    ef7d:	0f b6 05 50 54 00 00 	movzbl 0x5450(%rip),%eax        # 143d4 <g_201>
    ef84:	4c 0f be e8          	movsbq %al,%r13
    ef88:	8b 05 ca 50 00 00    	mov    0x50ca(%rip),%eax        # 14058 <g_29+0x18>
    ef8e:	41 89 c6             	mov    %eax,%r14d
    ef91:	8b 05 d9 50 00 00    	mov    0x50d9(%rip),%eax        # 14070 <g_105>
    ef97:	89 c2                	mov    %eax,%edx
    ef99:	48 8b 85 88 e2 ff ff 	mov    -0x1d78(%rbp),%rax
    efa0:	66 89 10             	mov    %dx,(%rax)
    efa3:	48 8b 85 88 e2 ff ff 	mov    -0x1d78(%rbp),%rax
    efaa:	0f b7 00             	movzwl (%rax),%eax
    efad:	66 85 c0             	test   %ax,%ax
    efb0:	74 3c                	je     efee <func_97+0xe6c>
    efb2:	0f b7 05 7d 54 00 00 	movzwl 0x547d(%rip),%eax        # 14436 <g_253+0x36>
    efb9:	66 85 c0             	test   %ax,%ax
    efbc:	0f 95 c0             	setne  %al
    efbf:	0f b6 d0             	movzbl %al,%edx
    efc2:	48 8b 85 58 e2 ff ff 	mov    -0x1da8(%rbp),%rax
    efc9:	48 8b 00             	mov    (%rax),%rax
    efcc:	8b 00                	mov    (%rax),%eax
    efce:	39 c2                	cmp    %eax,%edx
    efd0:	0f 9d c0             	setge  %al
    efd3:	0f b6 c0             	movzbl %al,%eax
    efd6:	be ca 74 00 00       	mov    $0x74ca,%esi
    efdb:	89 c7                	mov    %eax,%edi
    efdd:	e8 13 94 ff ff       	callq  83f5 <safe_mul_func_int16_t_s_s>
    efe2:	66 85 c0             	test   %ax,%ax
    efe5:	74 07                	je     efee <func_97+0xe6c>
    efe7:	b8 01 00 00 00       	mov    $0x1,%eax
    efec:	eb 05                	jmp    eff3 <func_97+0xe71>
    efee:	b8 00 00 00 00       	mov    $0x0,%eax
    eff3:	48 98                	cltq   
    eff5:	48 89 05 e4 53 00 00 	mov    %rax,0x53e4(%rip)        # 143e0 <g_252>
    effc:	0f b7 85 1a e2 ff ff 	movzwl -0x1de6(%rbp),%eax
    f003:	0f be c0             	movsbl %al,%eax
    f006:	be 1d 00 00 00       	mov    $0x1d,%esi
    f00b:	89 c7                	mov    %eax,%edi
    f00d:	e8 00 92 ff ff       	callq  8212 <safe_mul_func_int8_t_s_s>
    f012:	48 0f be c0          	movsbq %al,%rax
    f016:	4c 89 f6             	mov    %r14,%rsi
    f019:	48 89 c7             	mov    %rax,%rdi
    f01c:	e8 20 98 ff ff       	callq  8841 <safe_add_func_int64_t_s_s>
    f021:	48 89 05 58 54 00 00 	mov    %rax,0x5458(%rip)        # 14480 <g_302>
    f028:	48 8b 05 51 54 00 00 	mov    0x5451(%rip),%rax        # 14480 <g_302>
    f02f:	49 39 c5             	cmp    %rax,%r13
    f032:	0f 93 c0             	setae  %al
    f035:	0f b6 d0             	movzbl %al,%edx
    f038:	8b 05 1a 50 00 00    	mov    0x501a(%rip),%eax        # 14058 <g_29+0x18>
    f03e:	39 c2                	cmp    %eax,%edx
    f040:	0f 92 c0             	setb   %al
    f043:	0f b6 c0             	movzbl %al,%eax
    f046:	44 89 e6             	mov    %r12d,%esi
    f049:	89 c7                	mov    %eax,%edi
    f04b:	e8 0c 9d ff ff       	callq  8d5c <safe_mod_func_uint16_t_u_u>
    f050:	0f b6 c0             	movzbl %al,%eax
    f053:	89 de                	mov    %ebx,%esi
    f055:	89 c7                	mov    %eax,%edi
    f057:	e8 7f 9b ff ff       	callq  8bdb <safe_div_func_uint8_t_u_u>
    f05c:	0f b6 c0             	movzbl %al,%eax
    f05f:	41 39 c7             	cmp    %eax,%r15d
    f062:	0f 9c c0             	setl   %al
    f065:	0f b6 c0             	movzbl %al,%eax
    f068:	be 02 00 00 00       	mov    $0x2,%esi
    f06d:	89 c7                	mov    %eax,%edi
    f06f:	e8 4a 9c ff ff       	callq  8cbe <safe_rshift_func_uint8_t_u_u>
    f074:	0f b6 c0             	movzbl %al,%eax
    f077:	be ce ac 65 cb       	mov    $0xcb65acce,%esi
    f07c:	89 c7                	mov    %eax,%edi
    f07e:	e8 4d 9e ff ff       	callq  8ed0 <safe_sub_func_uint32_t_u_u>
    f083:	48 8b 85 58 e2 ff ff 	mov    -0x1da8(%rbp),%rax
    f08a:	48 c7 00 00 00 00 00 	movq   $0x0,(%rax)
    f091:	48 0f bf 85 1a e2 ff 	movswq -0x1de6(%rbp),%rax
    f098:	ff 
    f099:	48 8b 5d c8          	mov    -0x38(%rbp),%rbx
    f09d:	64 48 33 1c 25 28 00 	xor    %fs:0x28,%rbx
    f0a4:	00 00 
    f0a6:	74 05                	je     f0ad <func_97+0xf2b>
    f0a8:	e8 c3 8f ff ff       	callq  8070 <__stack_chk_fail@plt>
    f0ad:	48 81 c4 d8 1d 00 00 	add    $0x1dd8,%rsp
    f0b4:	5b                   	pop    %rbx
    f0b5:	41 5c                	pop    %r12
    f0b7:	41 5d                	pop    %r13
    f0b9:	41 5e                	pop    %r14
    f0bb:	41 5f                	pop    %r15
    f0bd:	5d                   	pop    %rbp
    f0be:	c3                   	retq   

000000000000f0bf <main>:
    f0bf:	f3 0f 1e fa          	endbr64 
    f0c3:	55                   	push   %rbp
    f0c4:	48 89 e5             	mov    %rsp,%rbp
    f0c7:	48 83 ec 20          	sub    $0x20,%rsp
    f0cb:	89 7d ec             	mov    %edi,-0x14(%rbp)
    f0ce:	48 89 75 e0          	mov    %rsi,-0x20(%rbp)
    f0d2:	c7 45 fc 00 00 00 00 	movl   $0x0,-0x4(%rbp)
    f0d9:	83 7d ec 02          	cmpl   $0x2,-0x14(%rbp)
    f0dd:	75 25                	jne    f104 <main+0x45>
    f0df:	48 8b 45 e0          	mov    -0x20(%rbp),%rax
    f0e3:	48 83 c0 08          	add    $0x8,%rax
    f0e7:	48 8b 00             	mov    (%rax),%rax
    f0ea:	48 8d 35 8f 22 00 00 	lea    0x228f(%rip),%rsi        # 11380 <g_2180+0x1314>
    f0f1:	48 89 c7             	mov    %rax,%rdi
    f0f4:	e8 97 8f ff ff       	callq  8090 <strcmp@plt>
    f0f9:	85 c0                	test   %eax,%eax
    f0fb:	75 07                	jne    f104 <main+0x45>
    f0fd:	c7 45 fc 01 00 00 00 	movl   $0x1,-0x4(%rbp)
    f104:	e8 80 90 ff ff       	callq  8189 <platform_main_begin>
    f109:	e8 8a a4 ff ff       	callq  9598 <crc32_gentab>
    f10e:	e8 a2 a6 ff ff       	callq  97b5 <func_1>
    f113:	8b 05 0b 4f 00 00    	mov    0x4f0b(%rip),%eax        # 14024 <g_13>
    f119:	48 98                	cltq   
    f11b:	8b 55 fc             	mov    -0x4(%rbp),%edx
    f11e:	48 8d 35 5d 22 00 00 	lea    0x225d(%rip),%rsi        # 11382 <g_2180+0x1316>
    f125:	48 89 c7             	mov    %rax,%rdi
    f128:	e8 c6 a5 ff ff       	callq  96f3 <transparent_crc>
    f12d:	48 8b 05 f4 4e 00 00 	mov    0x4ef4(%rip),%rax        # 14028 <g_14>
    f134:	48 89 c1             	mov    %rax,%rcx
    f137:	8b 45 fc             	mov    -0x4(%rbp),%eax
    f13a:	89 c2                	mov    %eax,%edx
    f13c:	48 8d 35 44 22 00 00 	lea    0x2244(%rip),%rsi        # 11387 <g_2180+0x131b>
    f143:	48 89 cf             	mov    %rcx,%rdi
    f146:	e8 a8 a5 ff ff       	callq  96f3 <transparent_crc>
    f14b:	c7 45 f0 00 00 00 00 	movl   $0x0,-0x10(%rbp)
    f152:	eb 4d                	jmp    f1a1 <main+0xe2>
    f154:	8b 45 f0             	mov    -0x10(%rbp),%eax
    f157:	48 98                	cltq   
    f159:	48 8d 14 85 00 00 00 	lea    0x0(,%rax,4),%rdx
    f160:	00 
    f161:	48 8d 05 d8 4e 00 00 	lea    0x4ed8(%rip),%rax        # 14040 <g_29>
    f168:	8b 04 02             	mov    (%rdx,%rax,1),%eax
    f16b:	89 c1                	mov    %eax,%ecx
    f16d:	8b 45 fc             	mov    -0x4(%rbp),%eax
    f170:	89 c2                	mov    %eax,%edx
    f172:	48 8d 35 13 22 00 00 	lea    0x2213(%rip),%rsi        # 1138c <g_2180+0x1320>
    f179:	48 89 cf             	mov    %rcx,%rdi
    f17c:	e8 72 a5 ff ff       	callq  96f3 <transparent_crc>
    f181:	83 7d fc 00          	cmpl   $0x0,-0x4(%rbp)
    f185:	74 16                	je     f19d <main+0xde>
    f187:	8b 45 f0             	mov    -0x10(%rbp),%eax
    f18a:	89 c6                	mov    %eax,%esi
    f18c:	48 8d 3d 01 22 00 00 	lea    0x2201(%rip),%rdi        # 11394 <g_2180+0x1328>
    f193:	b8 00 00 00 00       	mov    $0x0,%eax
    f198:	e8 e3 8e ff ff       	callq  8080 <printf@plt>
    f19d:	83 45 f0 01          	addl   $0x1,-0x10(%rbp)
    f1a1:	83 7d f0 07          	cmpl   $0x7,-0x10(%rbp)
    f1a5:	7e ad                	jle    f154 <main+0x95>
    f1a7:	0f b7 05 b2 4e 00 00 	movzwl 0x4eb2(%rip),%eax        # 14060 <g_35>
    f1ae:	48 0f bf c0          	movswq %ax,%rax
    f1b2:	8b 55 fc             	mov    -0x4(%rbp),%edx
    f1b5:	48 8d 35 e6 21 00 00 	lea    0x21e6(%rip),%rsi        # 113a2 <g_2180+0x1336>
    f1bc:	48 89 c7             	mov    %rax,%rdi
    f1bf:	e8 2f a5 ff ff       	callq  96f3 <transparent_crc>
    f1c4:	0f b6 05 97 4e 00 00 	movzbl 0x4e97(%rip),%eax        # 14062 <g_38>
    f1cb:	48 0f be c0          	movsbq %al,%rax
    f1cf:	8b 55 fc             	mov    -0x4(%rbp),%edx
    f1d2:	48 8d 35 ce 21 00 00 	lea    0x21ce(%rip),%rsi        # 113a7 <g_2180+0x133b>
    f1d9:	48 89 c7             	mov    %rax,%rdi
    f1dc:	e8 12 a5 ff ff       	callq  96f3 <transparent_crc>
    f1e1:	8b 05 7d 4e 00 00    	mov    0x4e7d(%rip),%eax        # 14064 <g_42>
    f1e7:	48 98                	cltq   
    f1e9:	8b 55 fc             	mov    -0x4(%rbp),%edx
    f1ec:	48 8d 35 b9 21 00 00 	lea    0x21b9(%rip),%rsi        # 113ac <g_2180+0x1340>
    f1f3:	48 89 c7             	mov    %rax,%rdi
    f1f6:	e8 f8 a4 ff ff       	callq  96f3 <transparent_crc>
    f1fb:	8b 05 67 4e 00 00    	mov    0x4e67(%rip),%eax        # 14068 <g_47>
    f201:	48 98                	cltq   
    f203:	8b 55 fc             	mov    -0x4(%rbp),%edx
    f206:	48 8d 35 a4 21 00 00 	lea    0x21a4(%rip),%rsi        # 113b1 <g_2180+0x1345>
    f20d:	48 89 c7             	mov    %rax,%rdi
    f210:	e8 de a4 ff ff       	callq  96f3 <transparent_crc>
    f215:	0f b7 05 50 4e 00 00 	movzwl 0x4e50(%rip),%eax        # 1406c <g_61>
    f21c:	0f b7 c0             	movzwl %ax,%eax
    f21f:	8b 55 fc             	mov    -0x4(%rbp),%edx
    f222:	48 8d 35 8d 21 00 00 	lea    0x218d(%rip),%rsi        # 113b6 <g_2180+0x134a>
    f229:	48 89 c7             	mov    %rax,%rdi
    f22c:	e8 c2 a4 ff ff       	callq  96f3 <transparent_crc>
    f231:	8b 05 39 4e 00 00    	mov    0x4e39(%rip),%eax        # 14070 <g_105>
    f237:	48 98                	cltq   
    f239:	8b 55 fc             	mov    -0x4(%rbp),%edx
    f23c:	48 8d 35 78 21 00 00 	lea    0x2178(%rip),%rsi        # 113bb <g_2180+0x134f>
    f243:	48 89 c7             	mov    %rax,%rdi
    f246:	e8 a8 a4 ff ff       	callq  96f3 <transparent_crc>
    f24b:	c7 45 f0 00 00 00 00 	movl   $0x0,-0x10(%rbp)
    f252:	eb 74                	jmp    f2c8 <main+0x209>
    f254:	c7 45 f4 00 00 00 00 	movl   $0x0,-0xc(%rbp)
    f25b:	eb 61                	jmp    f2be <main+0x1ff>
    f25d:	8b 45 f4             	mov    -0xc(%rbp),%eax
    f260:	48 63 c8             	movslq %eax,%rcx
    f263:	8b 45 f0             	mov    -0x10(%rbp),%eax
    f266:	48 63 d0             	movslq %eax,%rdx
    f269:	48 89 d0             	mov    %rdx,%rax
    f26c:	48 01 c0             	add    %rax,%rax
    f26f:	48 01 d0             	add    %rdx,%rax
    f272:	48 01 c8             	add    %rcx,%rax
    f275:	48 8d 14 85 00 00 00 	lea    0x0(,%rax,4),%rdx
    f27c:	00 
    f27d:	48 8d 05 fc 4d 00 00 	lea    0x4dfc(%rip),%rax        # 14080 <g_109>
    f284:	8b 04 02             	mov    (%rdx,%rax,1),%eax
    f287:	48 98                	cltq   
    f289:	8b 55 fc             	mov    -0x4(%rbp),%edx
    f28c:	48 8d 35 2e 21 00 00 	lea    0x212e(%rip),%rsi        # 113c1 <g_2180+0x1355>
    f293:	48 89 c7             	mov    %rax,%rdi
    f296:	e8 58 a4 ff ff       	callq  96f3 <transparent_crc>
    f29b:	83 7d fc 00          	cmpl   $0x0,-0x4(%rbp)
    f29f:	74 19                	je     f2ba <main+0x1fb>
    f2a1:	8b 55 f4             	mov    -0xc(%rbp),%edx
    f2a4:	8b 45 f0             	mov    -0x10(%rbp),%eax
    f2a7:	89 c6                	mov    %eax,%esi
    f2a9:	48 8d 3d 1d 21 00 00 	lea    0x211d(%rip),%rdi        # 113cd <g_2180+0x1361>
    f2b0:	b8 00 00 00 00       	mov    $0x0,%eax
    f2b5:	e8 c6 8d ff ff       	callq  8080 <printf@plt>
    f2ba:	83 45 f4 01          	addl   $0x1,-0xc(%rbp)
    f2be:	83 7d f4 02          	cmpl   $0x2,-0xc(%rbp)
    f2c2:	7e 99                	jle    f25d <main+0x19e>
    f2c4:	83 45 f0 01          	addl   $0x1,-0x10(%rbp)
    f2c8:	83 7d f0 09          	cmpl   $0x9,-0x10(%rbp)
    f2cc:	7e 86                	jle    f254 <main+0x195>
    f2ce:	c7 45 f0 00 00 00 00 	movl   $0x0,-0x10(%rbp)
    f2d5:	e9 b5 00 00 00       	jmpq   f38f <main+0x2d0>
    f2da:	c7 45 f4 00 00 00 00 	movl   $0x0,-0xc(%rbp)
    f2e1:	e9 9b 00 00 00       	jmpq   f381 <main+0x2c2>
    f2e6:	c7 45 f8 00 00 00 00 	movl   $0x0,-0x8(%rbp)
    f2ed:	e9 81 00 00 00       	jmpq   f373 <main+0x2b4>
    f2f2:	8b 45 f8             	mov    -0x8(%rbp),%eax
    f2f5:	48 63 f0             	movslq %eax,%rsi
    f2f8:	8b 45 f0             	mov    -0x10(%rbp),%eax
    f2fb:	48 63 d0             	movslq %eax,%rdx
    f2fe:	8b 45 f4             	mov    -0xc(%rbp),%eax
    f301:	48 63 c8             	movslq %eax,%rcx
    f304:	48 89 d0             	mov    %rdx,%rax
    f307:	48 01 c0             	add    %rax,%rax
    f30a:	48 01 d0             	add    %rdx,%rax
    f30d:	48 89 c2             	mov    %rax,%rdx
    f310:	48 c1 e2 04          	shl    $0x4,%rdx
    f314:	48 29 c2             	sub    %rax,%rdx
    f317:	48 89 c8             	mov    %rcx,%rax
    f31a:	48 c1 e0 02          	shl    $0x2,%rax
    f31e:	48 01 c8             	add    %rcx,%rax
    f321:	48 01 d0             	add    %rdx,%rax
    f324:	48 01 f0             	add    %rsi,%rax
    f327:	48 8d 14 85 00 00 00 	lea    0x0(,%rax,4),%rdx
    f32e:	00 
    f32f:	48 8d 05 ca 4d 00 00 	lea    0x4dca(%rip),%rax        # 14100 <g_112>
    f336:	8b 04 02             	mov    (%rdx,%rax,1),%eax
    f339:	48 98                	cltq   
    f33b:	8b 55 fc             	mov    -0x4(%rbp),%edx
    f33e:	48 8d 35 9a 20 00 00 	lea    0x209a(%rip),%rsi        # 113df <g_2180+0x1373>
    f345:	48 89 c7             	mov    %rax,%rdi
    f348:	e8 a6 a3 ff ff       	callq  96f3 <transparent_crc>
    f34d:	83 7d fc 00          	cmpl   $0x0,-0x4(%rbp)
    f351:	74 1c                	je     f36f <main+0x2b0>
    f353:	8b 4d f8             	mov    -0x8(%rbp),%ecx
    f356:	8b 55 f4             	mov    -0xc(%rbp),%edx
    f359:	8b 45 f0             	mov    -0x10(%rbp),%eax
    f35c:	89 c6                	mov    %eax,%esi
    f35e:	48 8d 3d 89 20 00 00 	lea    0x2089(%rip),%rdi        # 113ee <g_2180+0x1382>
    f365:	b8 00 00 00 00       	mov    $0x0,%eax
    f36a:	e8 11 8d ff ff       	callq  8080 <printf@plt>
    f36f:	83 45 f8 01          	addl   $0x1,-0x8(%rbp)
    f373:	83 7d f8 04          	cmpl   $0x4,-0x8(%rbp)
    f377:	0f 8e 75 ff ff ff    	jle    f2f2 <main+0x233>
    f37d:	83 45 f4 01          	addl   $0x1,-0xc(%rbp)
    f381:	83 7d f4 08          	cmpl   $0x8,-0xc(%rbp)
    f385:	0f 8e 5b ff ff ff    	jle    f2e6 <main+0x227>
    f38b:	83 45 f0 01          	addl   $0x1,-0x10(%rbp)
    f38f:	83 7d f0 03          	cmpl   $0x3,-0x10(%rbp)
    f393:	0f 8e 41 ff ff ff    	jle    f2da <main+0x21b>
    f399:	8b 05 31 50 00 00    	mov    0x5031(%rip),%eax        # 143d0 <g_148>
    f39f:	89 c1                	mov    %eax,%ecx
    f3a1:	8b 45 fc             	mov    -0x4(%rbp),%eax
    f3a4:	89 c2                	mov    %eax,%edx
    f3a6:	48 8d 35 57 20 00 00 	lea    0x2057(%rip),%rsi        # 11404 <g_2180+0x1398>
    f3ad:	48 89 cf             	mov    %rcx,%rdi
    f3b0:	e8 3e a3 ff ff       	callq  96f3 <transparent_crc>
    f3b5:	b8 63 bb 96 c7       	mov    $0xc796bb63,%eax
    f3ba:	89 c1                	mov    %eax,%ecx
    f3bc:	8b 45 fc             	mov    -0x4(%rbp),%eax
    f3bf:	89 c2                	mov    %eax,%edx
    f3c1:	48 8d 35 42 20 00 00 	lea    0x2042(%rip),%rsi        # 1140a <g_2180+0x139e>
    f3c8:	48 89 cf             	mov    %rcx,%rdi
    f3cb:	e8 23 a3 ff ff       	callq  96f3 <transparent_crc>
    f3d0:	0f b6 05 79 8a 00 00 	movzbl 0x8a79(%rip),%eax        # 17e50 <g_163>
    f3d7:	0f b6 c0             	movzbl %al,%eax
    f3da:	8b 55 fc             	mov    -0x4(%rbp),%edx
    f3dd:	48 8d 35 2c 20 00 00 	lea    0x202c(%rip),%rsi        # 11410 <g_2180+0x13a4>
    f3e4:	48 89 c7             	mov    %rax,%rdi
    f3e7:	e8 07 a3 ff ff       	callq  96f3 <transparent_crc>
    f3ec:	0f b6 05 5e 8a 00 00 	movzbl 0x8a5e(%rip),%eax        # 17e51 <g_181>
    f3f3:	0f b6 c0             	movzbl %al,%eax
    f3f6:	8b 55 fc             	mov    -0x4(%rbp),%edx
    f3f9:	48 8d 35 16 20 00 00 	lea    0x2016(%rip),%rsi        # 11416 <g_2180+0x13aa>
    f400:	48 89 c7             	mov    %rax,%rdi
    f403:	e8 eb a2 ff ff       	callq  96f3 <transparent_crc>
    f408:	0f b6 05 c5 4f 00 00 	movzbl 0x4fc5(%rip),%eax        # 143d4 <g_201>
    f40f:	48 0f be c0          	movsbq %al,%rax
    f413:	8b 55 fc             	mov    -0x4(%rbp),%edx
    f416:	48 8d 35 ff 1f 00 00 	lea    0x1fff(%rip),%rsi        # 1141c <g_2180+0x13b0>
    f41d:	48 89 c7             	mov    %rax,%rdi
    f420:	e8 ce a2 ff ff       	callq  96f3 <transparent_crc>
    f425:	48 8b 05 ac 4f 00 00 	mov    0x4fac(%rip),%rax        # 143d8 <g_250>
    f42c:	48 89 c1             	mov    %rax,%rcx
    f42f:	8b 45 fc             	mov    -0x4(%rbp),%eax
    f432:	89 c2                	mov    %eax,%edx
    f434:	48 8d 35 e7 1f 00 00 	lea    0x1fe7(%rip),%rsi        # 11422 <g_2180+0x13b6>
    f43b:	48 89 cf             	mov    %rcx,%rdi
    f43e:	e8 b0 a2 ff ff       	callq  96f3 <transparent_crc>
    f443:	48 8b 05 96 4f 00 00 	mov    0x4f96(%rip),%rax        # 143e0 <g_252>
    f44a:	48 89 c1             	mov    %rax,%rcx
    f44d:	8b 45 fc             	mov    -0x4(%rbp),%eax
    f450:	89 c2                	mov    %eax,%edx
    f452:	48 8d 35 cf 1f 00 00 	lea    0x1fcf(%rip),%rsi        # 11428 <g_2180+0x13bc>
    f459:	48 89 cf             	mov    %rcx,%rdi
    f45c:	e8 92 a2 ff ff       	callq  96f3 <transparent_crc>
    f461:	c7 45 f0 00 00 00 00 	movl   $0x0,-0x10(%rbp)
    f468:	e9 92 00 00 00       	jmpq   f4ff <main+0x440>
    f46d:	c7 45 f4 00 00 00 00 	movl   $0x0,-0xc(%rbp)
    f474:	eb 7b                	jmp    f4f1 <main+0x432>
    f476:	c7 45 f8 00 00 00 00 	movl   $0x0,-0x8(%rbp)
    f47d:	eb 68                	jmp    f4e7 <main+0x428>
    f47f:	8b 45 f8             	mov    -0x8(%rbp),%eax
    f482:	48 98                	cltq   
    f484:	8b 55 f0             	mov    -0x10(%rbp),%edx
    f487:	48 63 ca             	movslq %edx,%rcx
    f48a:	8b 55 f4             	mov    -0xc(%rbp),%edx
    f48d:	48 63 d2             	movslq %edx,%rdx
    f490:	48 01 c9             	add    %rcx,%rcx
    f493:	48 01 ca             	add    %rcx,%rdx
    f496:	48 c1 e2 02          	shl    $0x2,%rdx
    f49a:	48 01 d0             	add    %rdx,%rax
    f49d:	48 8d 14 00          	lea    (%rax,%rax,1),%rdx
    f4a1:	48 8d 05 58 4f 00 00 	lea    0x4f58(%rip),%rax        # 14400 <g_253>
    f4a8:	0f b7 04 02          	movzwl (%rdx,%rax,1),%eax
    f4ac:	0f b7 c0             	movzwl %ax,%eax
    f4af:	8b 55 fc             	mov    -0x4(%rbp),%edx
    f4b2:	48 8d 35 75 1f 00 00 	lea    0x1f75(%rip),%rsi        # 1142e <g_2180+0x13c2>
    f4b9:	48 89 c7             	mov    %rax,%rdi
    f4bc:	e8 32 a2 ff ff       	callq  96f3 <transparent_crc>
    f4c1:	83 7d fc 00          	cmpl   $0x0,-0x4(%rbp)
    f4c5:	74 1c                	je     f4e3 <main+0x424>
    f4c7:	8b 4d f8             	mov    -0x8(%rbp),%ecx
    f4ca:	8b 55 f4             	mov    -0xc(%rbp),%edx
    f4cd:	8b 45 f0             	mov    -0x10(%rbp),%eax
    f4d0:	89 c6                	mov    %eax,%esi
    f4d2:	48 8d 3d 15 1f 00 00 	lea    0x1f15(%rip),%rdi        # 113ee <g_2180+0x1382>
    f4d9:	b8 00 00 00 00       	mov    $0x0,%eax
    f4de:	e8 9d 8b ff ff       	callq  8080 <printf@plt>
    f4e3:	83 45 f8 01          	addl   $0x1,-0x8(%rbp)
    f4e7:	83 7d f8 03          	cmpl   $0x3,-0x8(%rbp)
    f4eb:	7e 92                	jle    f47f <main+0x3c0>
    f4ed:	83 45 f4 01          	addl   $0x1,-0xc(%rbp)
    f4f1:	83 7d f4 01          	cmpl   $0x1,-0xc(%rbp)
    f4f5:	0f 8e 7b ff ff ff    	jle    f476 <main+0x3b7>
    f4fb:	83 45 f0 01          	addl   $0x1,-0x10(%rbp)
    f4ff:	83 7d f0 06          	cmpl   $0x6,-0x10(%rbp)
    f503:	0f 8e 64 ff ff ff    	jle    f46d <main+0x3ae>
    f509:	c7 45 f0 00 00 00 00 	movl   $0x0,-0x10(%rbp)
    f510:	eb 4a                	jmp    f55c <main+0x49d>
    f512:	8b 45 f0             	mov    -0x10(%rbp),%eax
    f515:	48 98                	cltq   
    f517:	48 8d 14 00          	lea    (%rax,%rax,1),%rdx
    f51b:	48 8d 05 4e 4f 00 00 	lea    0x4f4e(%rip),%rax        # 14470 <g_295>
    f522:	0f b7 04 02          	movzwl (%rdx,%rax,1),%eax
    f526:	48 0f bf c0          	movswq %ax,%rax
    f52a:	8b 55 fc             	mov    -0x4(%rbp),%edx
    f52d:	48 8d 35 09 1f 00 00 	lea    0x1f09(%rip),%rsi        # 1143d <g_2180+0x13d1>
    f534:	48 89 c7             	mov    %rax,%rdi
    f537:	e8 b7 a1 ff ff       	callq  96f3 <transparent_crc>
    f53c:	83 7d fc 00          	cmpl   $0x0,-0x4(%rbp)
    f540:	74 16                	je     f558 <main+0x499>
    f542:	8b 45 f0             	mov    -0x10(%rbp),%eax
    f545:	89 c6                	mov    %eax,%esi
    f547:	48 8d 3d 46 1e 00 00 	lea    0x1e46(%rip),%rdi        # 11394 <g_2180+0x1328>
    f54e:	b8 00 00 00 00       	mov    $0x0,%eax
    f553:	e8 28 8b ff ff       	callq  8080 <printf@plt>
    f558:	83 45 f0 01          	addl   $0x1,-0x10(%rbp)
    f55c:	83 7d f0 06          	cmpl   $0x6,-0x10(%rbp)
    f560:	7e b0                	jle    f512 <main+0x453>
    f562:	48 8b 05 17 4f 00 00 	mov    0x4f17(%rip),%rax        # 14480 <g_302>
    f569:	8b 55 fc             	mov    -0x4(%rbp),%edx
    f56c:	48 8d 35 d3 1e 00 00 	lea    0x1ed3(%rip),%rsi        # 11446 <g_2180+0x13da>
    f573:	48 89 c7             	mov    %rax,%rdi
    f576:	e8 78 a1 ff ff       	callq  96f3 <transparent_crc>
    f57b:	0f b7 05 06 4f 00 00 	movzwl 0x4f06(%rip),%eax        # 14488 <g_319>
    f582:	0f b7 c0             	movzwl %ax,%eax
    f585:	8b 55 fc             	mov    -0x4(%rbp),%edx
    f588:	48 8d 35 bd 1e 00 00 	lea    0x1ebd(%rip),%rsi        # 1144c <g_2180+0x13e0>
    f58f:	48 89 c7             	mov    %rax,%rdi
    f592:	e8 5c a1 ff ff       	callq  96f3 <transparent_crc>
    f597:	0f b7 05 ec 4e 00 00 	movzwl 0x4eec(%rip),%eax        # 1448a <g_320>
    f59e:	0f b7 c0             	movzwl %ax,%eax
    f5a1:	8b 55 fc             	mov    -0x4(%rbp),%edx
    f5a4:	48 8d 35 a7 1e 00 00 	lea    0x1ea7(%rip),%rsi        # 11452 <g_2180+0x13e6>
    f5ab:	48 89 c7             	mov    %rax,%rdi
    f5ae:	e8 40 a1 ff ff       	callq  96f3 <transparent_crc>
    f5b3:	0f b7 05 d2 4e 00 00 	movzwl 0x4ed2(%rip),%eax        # 1448c <g_321>
    f5ba:	0f b7 c0             	movzwl %ax,%eax
    f5bd:	8b 55 fc             	mov    -0x4(%rbp),%edx
    f5c0:	48 8d 35 91 1e 00 00 	lea    0x1e91(%rip),%rsi        # 11458 <g_2180+0x13ec>
    f5c7:	48 89 c7             	mov    %rax,%rdi
    f5ca:	e8 24 a1 ff ff       	callq  96f3 <transparent_crc>
    f5cf:	c7 45 f0 00 00 00 00 	movl   $0x0,-0x10(%rbp)
    f5d6:	eb 49                	jmp    f621 <main+0x562>
    f5d8:	8b 45 f0             	mov    -0x10(%rbp),%eax
    f5db:	48 98                	cltq   
    f5dd:	48 8d 14 00          	lea    (%rax,%rax,1),%rdx
    f5e1:	48 8d 05 a8 4e 00 00 	lea    0x4ea8(%rip),%rax        # 14490 <g_322>
    f5e8:	0f b7 04 02          	movzwl (%rdx,%rax,1),%eax
    f5ec:	0f b7 c0             	movzwl %ax,%eax
    f5ef:	8b 55 fc             	mov    -0x4(%rbp),%edx
    f5f2:	48 8d 35 65 1e 00 00 	lea    0x1e65(%rip),%rsi        # 1145e <g_2180+0x13f2>
    f5f9:	48 89 c7             	mov    %rax,%rdi
    f5fc:	e8 f2 a0 ff ff       	callq  96f3 <transparent_crc>
    f601:	83 7d fc 00          	cmpl   $0x0,-0x4(%rbp)
    f605:	74 16                	je     f61d <main+0x55e>
    f607:	8b 45 f0             	mov    -0x10(%rbp),%eax
    f60a:	89 c6                	mov    %eax,%esi
    f60c:	48 8d 3d 81 1d 00 00 	lea    0x1d81(%rip),%rdi        # 11394 <g_2180+0x1328>
    f613:	b8 00 00 00 00       	mov    $0x0,%eax
    f618:	e8 63 8a ff ff       	callq  8080 <printf@plt>
    f61d:	83 45 f0 01          	addl   $0x1,-0x10(%rbp)
    f621:	83 7d f0 05          	cmpl   $0x5,-0x10(%rbp)
    f625:	7e b1                	jle    f5d8 <main+0x519>
    f627:	0f b7 05 6e 4e 00 00 	movzwl 0x4e6e(%rip),%eax        # 1449c <g_323>
    f62e:	0f b7 c0             	movzwl %ax,%eax
    f631:	8b 55 fc             	mov    -0x4(%rbp),%edx
    f634:	48 8d 35 2c 1e 00 00 	lea    0x1e2c(%rip),%rsi        # 11467 <g_2180+0x13fb>
    f63b:	48 89 c7             	mov    %rax,%rdi
    f63e:	e8 b0 a0 ff ff       	callq  96f3 <transparent_crc>
    f643:	0f b7 05 54 4e 00 00 	movzwl 0x4e54(%rip),%eax        # 1449e <g_324>
    f64a:	0f b7 c0             	movzwl %ax,%eax
    f64d:	8b 55 fc             	mov    -0x4(%rbp),%edx
    f650:	48 8d 35 16 1e 00 00 	lea    0x1e16(%rip),%rsi        # 1146d <g_2180+0x1401>
    f657:	48 89 c7             	mov    %rax,%rdi
    f65a:	e8 94 a0 ff ff       	callq  96f3 <transparent_crc>
    f65f:	c7 45 f0 00 00 00 00 	movl   $0x0,-0x10(%rbp)
    f666:	e9 af 00 00 00       	jmpq   f71a <main+0x65b>
    f66b:	c7 45 f4 00 00 00 00 	movl   $0x0,-0xc(%rbp)
    f672:	e9 95 00 00 00       	jmpq   f70c <main+0x64d>
    f677:	c7 45 f8 00 00 00 00 	movl   $0x0,-0x8(%rbp)
    f67e:	eb 7e                	jmp    f6fe <main+0x63f>
    f680:	8b 45 f8             	mov    -0x8(%rbp),%eax
    f683:	48 63 f0             	movslq %eax,%rsi
    f686:	8b 45 f0             	mov    -0x10(%rbp),%eax
    f689:	48 98                	cltq   
    f68b:	8b 55 f4             	mov    -0xc(%rbp),%edx
    f68e:	48 63 ca             	movslq %edx,%rcx
    f691:	48 89 c2             	mov    %rax,%rdx
    f694:	48 c1 e2 04          	shl    $0x4,%rdx
    f698:	48 29 c2             	sub    %rax,%rdx
    f69b:	48 8d 04 12          	lea    (%rdx,%rdx,1),%rax
    f69f:	48 89 c2             	mov    %rax,%rdx
    f6a2:	48 89 c8             	mov    %rcx,%rax
    f6a5:	48 01 c0             	add    %rax,%rax
    f6a8:	48 01 c8             	add    %rcx,%rax
    f6ab:	48 01 c0             	add    %rax,%rax
    f6ae:	48 01 d0             	add    %rdx,%rax
    f6b1:	48 01 f0             	add    %rsi,%rax
    f6b4:	48 8d 14 00          	lea    (%rax,%rax,1),%rdx
    f6b8:	48 8d 05 e1 4d 00 00 	lea    0x4de1(%rip),%rax        # 144a0 <g_325>
    f6bf:	0f b7 04 02          	movzwl (%rdx,%rax,1),%eax
    f6c3:	0f b7 c0             	movzwl %ax,%eax
    f6c6:	8b 55 fc             	mov    -0x4(%rbp),%edx
    f6c9:	48 8d 35 a3 1d 00 00 	lea    0x1da3(%rip),%rsi        # 11473 <g_2180+0x1407>
    f6d0:	48 89 c7             	mov    %rax,%rdi
    f6d3:	e8 1b a0 ff ff       	callq  96f3 <transparent_crc>
    f6d8:	83 7d fc 00          	cmpl   $0x0,-0x4(%rbp)
    f6dc:	74 1c                	je     f6fa <main+0x63b>
    f6de:	8b 4d f8             	mov    -0x8(%rbp),%ecx
    f6e1:	8b 55 f4             	mov    -0xc(%rbp),%edx
    f6e4:	8b 45 f0             	mov    -0x10(%rbp),%eax
    f6e7:	89 c6                	mov    %eax,%esi
    f6e9:	48 8d 3d fe 1c 00 00 	lea    0x1cfe(%rip),%rdi        # 113ee <g_2180+0x1382>
    f6f0:	b8 00 00 00 00       	mov    $0x0,%eax
    f6f5:	e8 86 89 ff ff       	callq  8080 <printf@plt>
    f6fa:	83 45 f8 01          	addl   $0x1,-0x8(%rbp)
    f6fe:	83 7d f8 05          	cmpl   $0x5,-0x8(%rbp)
    f702:	0f 8e 78 ff ff ff    	jle    f680 <main+0x5c1>
    f708:	83 45 f4 01          	addl   $0x1,-0xc(%rbp)
    f70c:	83 7d f4 04          	cmpl   $0x4,-0xc(%rbp)
    f710:	0f 8e 61 ff ff ff    	jle    f677 <main+0x5b8>
    f716:	83 45 f0 01          	addl   $0x1,-0x10(%rbp)
    f71a:	83 7d f0 07          	cmpl   $0x7,-0x10(%rbp)
    f71e:	0f 8e 47 ff ff ff    	jle    f66b <main+0x5ac>
    f724:	0f b7 05 55 4f 00 00 	movzwl 0x4f55(%rip),%eax        # 14680 <g_326>
    f72b:	0f b7 c0             	movzwl %ax,%eax
    f72e:	8b 55 fc             	mov    -0x4(%rbp),%edx
    f731:	48 8d 35 4a 1d 00 00 	lea    0x1d4a(%rip),%rsi        # 11482 <g_2180+0x1416>
    f738:	48 89 c7             	mov    %rax,%rdi
    f73b:	e8 b3 9f ff ff       	callq  96f3 <transparent_crc>
    f740:	0f b7 05 3b 4f 00 00 	movzwl 0x4f3b(%rip),%eax        # 14682 <g_327>
    f747:	0f b7 c0             	movzwl %ax,%eax
    f74a:	8b 55 fc             	mov    -0x4(%rbp),%edx
    f74d:	48 8d 35 34 1d 00 00 	lea    0x1d34(%rip),%rsi        # 11488 <g_2180+0x141c>
    f754:	48 89 c7             	mov    %rax,%rdi
    f757:	e8 97 9f ff ff       	callq  96f3 <transparent_crc>
    f75c:	0f b7 05 21 4f 00 00 	movzwl 0x4f21(%rip),%eax        # 14684 <g_328>
    f763:	0f b7 c0             	movzwl %ax,%eax
    f766:	8b 55 fc             	mov    -0x4(%rbp),%edx
    f769:	48 8d 35 1e 1d 00 00 	lea    0x1d1e(%rip),%rsi        # 1148e <g_2180+0x1422>
    f770:	48 89 c7             	mov    %rax,%rdi
    f773:	e8 7b 9f ff ff       	callq  96f3 <transparent_crc>
    f778:	0f b7 05 07 4f 00 00 	movzwl 0x4f07(%rip),%eax        # 14686 <g_329>
    f77f:	0f b7 c0             	movzwl %ax,%eax
    f782:	8b 55 fc             	mov    -0x4(%rbp),%edx
    f785:	48 8d 35 08 1d 00 00 	lea    0x1d08(%rip),%rsi        # 11494 <g_2180+0x1428>
    f78c:	48 89 c7             	mov    %rax,%rdi
    f78f:	e8 5f 9f ff ff       	callq  96f3 <transparent_crc>
    f794:	c7 45 f0 00 00 00 00 	movl   $0x0,-0x10(%rbp)
    f79b:	eb 68                	jmp    f805 <main+0x746>
    f79d:	c7 45 f4 00 00 00 00 	movl   $0x0,-0xc(%rbp)
    f7a4:	eb 55                	jmp    f7fb <main+0x73c>
    f7a6:	8b 45 f4             	mov    -0xc(%rbp),%eax
    f7a9:	48 63 d0             	movslq %eax,%rdx
    f7ac:	8b 45 f0             	mov    -0x10(%rbp),%eax
    f7af:	48 98                	cltq   
    f7b1:	48 01 d0             	add    %rdx,%rax
    f7b4:	48 8d 14 00          	lea    (%rax,%rax,1),%rdx
    f7b8:	48 8d 05 c9 4e 00 00 	lea    0x4ec9(%rip),%rax        # 14688 <g_330>
    f7bf:	0f b7 04 02          	movzwl (%rdx,%rax,1),%eax
    f7c3:	0f b7 c0             	movzwl %ax,%eax
    f7c6:	8b 55 fc             	mov    -0x4(%rbp),%edx
    f7c9:	48 8d 35 ca 1c 00 00 	lea    0x1cca(%rip),%rsi        # 1149a <g_2180+0x142e>
    f7d0:	48 89 c7             	mov    %rax,%rdi
    f7d3:	e8 1b 9f ff ff       	callq  96f3 <transparent_crc>
    f7d8:	83 7d fc 00          	cmpl   $0x0,-0x4(%rbp)
    f7dc:	74 19                	je     f7f7 <main+0x738>
    f7de:	8b 55 f4             	mov    -0xc(%rbp),%edx
    f7e1:	8b 45 f0             	mov    -0x10(%rbp),%eax
    f7e4:	89 c6                	mov    %eax,%esi
    f7e6:	48 8d 3d e0 1b 00 00 	lea    0x1be0(%rip),%rdi        # 113cd <g_2180+0x1361>
    f7ed:	b8 00 00 00 00       	mov    $0x0,%eax
    f7f2:	e8 89 88 ff ff       	callq  8080 <printf@plt>
    f7f7:	83 45 f4 01          	addl   $0x1,-0xc(%rbp)
    f7fb:	83 7d f4 00          	cmpl   $0x0,-0xc(%rbp)
    f7ff:	7e a5                	jle    f7a6 <main+0x6e7>
    f801:	83 45 f0 01          	addl   $0x1,-0x10(%rbp)
    f805:	83 7d f0 05          	cmpl   $0x5,-0x10(%rbp)
    f809:	7e 92                	jle    f79d <main+0x6de>
    f80b:	0f b7 05 82 4e 00 00 	movzwl 0x4e82(%rip),%eax        # 14694 <g_331>
    f812:	0f b7 c0             	movzwl %ax,%eax
    f815:	8b 55 fc             	mov    -0x4(%rbp),%edx
    f818:	48 8d 35 87 1c 00 00 	lea    0x1c87(%rip),%rsi        # 114a6 <g_2180+0x143a>
    f81f:	48 89 c7             	mov    %rax,%rdi
    f822:	e8 cc 9e ff ff       	callq  96f3 <transparent_crc>
    f827:	0f b7 05 68 4e 00 00 	movzwl 0x4e68(%rip),%eax        # 14696 <g_332>
    f82e:	0f b7 c0             	movzwl %ax,%eax
    f831:	8b 55 fc             	mov    -0x4(%rbp),%edx
    f834:	48 8d 35 71 1c 00 00 	lea    0x1c71(%rip),%rsi        # 114ac <g_2180+0x1440>
    f83b:	48 89 c7             	mov    %rax,%rdi
    f83e:	e8 b0 9e ff ff       	callq  96f3 <transparent_crc>
    f843:	0f b7 05 4e 4e 00 00 	movzwl 0x4e4e(%rip),%eax        # 14698 <g_333>
    f84a:	0f b7 c0             	movzwl %ax,%eax
    f84d:	8b 55 fc             	mov    -0x4(%rbp),%edx
    f850:	48 8d 35 5b 1c 00 00 	lea    0x1c5b(%rip),%rsi        # 114b2 <g_2180+0x1446>
    f857:	48 89 c7             	mov    %rax,%rdi
    f85a:	e8 94 9e ff ff       	callq  96f3 <transparent_crc>
    f85f:	c7 45 f0 00 00 00 00 	movl   $0x0,-0x10(%rbp)
    f866:	eb 49                	jmp    f8b1 <main+0x7f2>
    f868:	8b 45 f0             	mov    -0x10(%rbp),%eax
    f86b:	48 98                	cltq   
    f86d:	48 8d 14 00          	lea    (%rax,%rax,1),%rdx
    f871:	48 8d 05 e8 85 00 00 	lea    0x85e8(%rip),%rax        # 17e60 <g_334>
    f878:	0f b7 04 02          	movzwl (%rdx,%rax,1),%eax
    f87c:	0f b7 c0             	movzwl %ax,%eax
    f87f:	8b 55 fc             	mov    -0x4(%rbp),%edx
    f882:	48 8d 35 2f 1c 00 00 	lea    0x1c2f(%rip),%rsi        # 114b8 <g_2180+0x144c>
    f889:	48 89 c7             	mov    %rax,%rdi
    f88c:	e8 62 9e ff ff       	callq  96f3 <transparent_crc>
    f891:	83 7d fc 00          	cmpl   $0x0,-0x4(%rbp)
    f895:	74 16                	je     f8ad <main+0x7ee>
    f897:	8b 45 f0             	mov    -0x10(%rbp),%eax
    f89a:	89 c6                	mov    %eax,%esi
    f89c:	48 8d 3d f1 1a 00 00 	lea    0x1af1(%rip),%rdi        # 11394 <g_2180+0x1328>
    f8a3:	b8 00 00 00 00       	mov    $0x0,%eax
    f8a8:	e8 d3 87 ff ff       	callq  8080 <printf@plt>
    f8ad:	83 45 f0 01          	addl   $0x1,-0x10(%rbp)
    f8b1:	83 7d f0 08          	cmpl   $0x8,-0x10(%rbp)
    f8b5:	7e b1                	jle    f868 <main+0x7a9>
    f8b7:	0f b7 05 dc 4d 00 00 	movzwl 0x4ddc(%rip),%eax        # 1469a <g_335>
    f8be:	0f b7 c0             	movzwl %ax,%eax
    f8c1:	8b 55 fc             	mov    -0x4(%rbp),%edx
    f8c4:	48 8d 35 f6 1b 00 00 	lea    0x1bf6(%rip),%rsi        # 114c1 <g_2180+0x1455>
    f8cb:	48 89 c7             	mov    %rax,%rdi
    f8ce:	e8 20 9e ff ff       	callq  96f3 <transparent_crc>
    f8d3:	0f b7 05 c2 4d 00 00 	movzwl 0x4dc2(%rip),%eax        # 1469c <g_336>
    f8da:	0f b7 c0             	movzwl %ax,%eax
    f8dd:	8b 55 fc             	mov    -0x4(%rbp),%edx
    f8e0:	48 8d 35 e0 1b 00 00 	lea    0x1be0(%rip),%rsi        # 114c7 <g_2180+0x145b>
    f8e7:	48 89 c7             	mov    %rax,%rdi
    f8ea:	e8 04 9e ff ff       	callq  96f3 <transparent_crc>
    f8ef:	0f b7 05 7c 85 00 00 	movzwl 0x857c(%rip),%eax        # 17e72 <g_337>
    f8f6:	0f b7 c0             	movzwl %ax,%eax
    f8f9:	8b 55 fc             	mov    -0x4(%rbp),%edx
    f8fc:	48 8d 35 ca 1b 00 00 	lea    0x1bca(%rip),%rsi        # 114cd <g_2180+0x1461>
    f903:	48 89 c7             	mov    %rax,%rdi
    f906:	e8 e8 9d ff ff       	callq  96f3 <transparent_crc>
    f90b:	0f b7 05 8c 4d 00 00 	movzwl 0x4d8c(%rip),%eax        # 1469e <g_338>
    f912:	0f b7 c0             	movzwl %ax,%eax
    f915:	8b 55 fc             	mov    -0x4(%rbp),%edx
    f918:	48 8d 35 b4 1b 00 00 	lea    0x1bb4(%rip),%rsi        # 114d3 <g_2180+0x1467>
    f91f:	48 89 c7             	mov    %rax,%rdi
    f922:	e8 cc 9d ff ff       	callq  96f3 <transparent_crc>
    f927:	0f b7 05 72 4d 00 00 	movzwl 0x4d72(%rip),%eax        # 146a0 <g_341>
    f92e:	0f b7 c0             	movzwl %ax,%eax
    f931:	8b 55 fc             	mov    -0x4(%rbp),%edx
    f934:	48 8d 35 9e 1b 00 00 	lea    0x1b9e(%rip),%rsi        # 114d9 <g_2180+0x146d>
    f93b:	48 89 c7             	mov    %rax,%rdi
    f93e:	e8 b0 9d ff ff       	callq  96f3 <transparent_crc>
    f943:	8b 05 5b 4d 00 00    	mov    0x4d5b(%rip),%eax        # 146a4 <g_405>
    f949:	48 98                	cltq   
    f94b:	8b 55 fc             	mov    -0x4(%rbp),%edx
    f94e:	48 8d 35 8a 1b 00 00 	lea    0x1b8a(%rip),%rsi        # 114df <g_2180+0x1473>
    f955:	48 89 c7             	mov    %rax,%rdi
    f958:	e8 96 9d ff ff       	callq  96f3 <transparent_crc>
    f95d:	c7 45 f0 00 00 00 00 	movl   $0x0,-0x10(%rbp)
    f964:	eb 4a                	jmp    f9b0 <main+0x8f1>
    f966:	8b 45 f0             	mov    -0x10(%rbp),%eax
    f969:	48 98                	cltq   
    f96b:	48 8d 14 c5 00 00 00 	lea    0x0(,%rax,8),%rdx
    f972:	00 
    f973:	48 8d 05 46 4d 00 00 	lea    0x4d46(%rip),%rax        # 146c0 <g_414>
    f97a:	48 8b 04 02          	mov    (%rdx,%rax,1),%rax
    f97e:	8b 55 fc             	mov    -0x4(%rbp),%edx
    f981:	48 8d 35 5d 1b 00 00 	lea    0x1b5d(%rip),%rsi        # 114e5 <g_2180+0x1479>
    f988:	48 89 c7             	mov    %rax,%rdi
    f98b:	e8 63 9d ff ff       	callq  96f3 <transparent_crc>
    f990:	83 7d fc 00          	cmpl   $0x0,-0x4(%rbp)
    f994:	74 16                	je     f9ac <main+0x8ed>
    f996:	8b 45 f0             	mov    -0x10(%rbp),%eax
    f999:	89 c6                	mov    %eax,%esi
    f99b:	48 8d 3d f2 19 00 00 	lea    0x19f2(%rip),%rdi        # 11394 <g_2180+0x1328>
    f9a2:	b8 00 00 00 00       	mov    $0x0,%eax
    f9a7:	e8 d4 86 ff ff       	callq  8080 <printf@plt>
    f9ac:	83 45 f0 01          	addl   $0x1,-0x10(%rbp)
    f9b0:	83 7d f0 06          	cmpl   $0x6,-0x10(%rbp)
    f9b4:	7e b0                	jle    f966 <main+0x8a7>
    f9b6:	0f b6 05 3b 4d 00 00 	movzbl 0x4d3b(%rip),%eax        # 146f8 <g_447>
    f9bd:	0f b6 c0             	movzbl %al,%eax
    f9c0:	8b 55 fc             	mov    -0x4(%rbp),%edx
    f9c3:	48 8d 35 24 1b 00 00 	lea    0x1b24(%rip),%rsi        # 114ee <g_2180+0x1482>
    f9ca:	48 89 c7             	mov    %rax,%rdi
    f9cd:	e8 21 9d ff ff       	callq  96f3 <transparent_crc>
    f9d2:	0f b6 05 20 4d 00 00 	movzbl 0x4d20(%rip),%eax        # 146f9 <g_449>
    f9d9:	0f b6 c0             	movzbl %al,%eax
    f9dc:	8b 55 fc             	mov    -0x4(%rbp),%edx
    f9df:	48 8d 35 0e 1b 00 00 	lea    0x1b0e(%rip),%rsi        # 114f4 <g_2180+0x1488>
    f9e6:	48 89 c7             	mov    %rax,%rdi
    f9e9:	e8 05 9d ff ff       	callq  96f3 <transparent_crc>
    f9ee:	0f b6 05 7f 84 00 00 	movzbl 0x847f(%rip),%eax        # 17e74 <g_453>
    f9f5:	0f b6 c0             	movzbl %al,%eax
    f9f8:	8b 55 fc             	mov    -0x4(%rbp),%edx
    f9fb:	48 8d 35 f8 1a 00 00 	lea    0x1af8(%rip),%rsi        # 114fa <g_2180+0x148e>
    fa02:	48 89 c7             	mov    %rax,%rdi
    fa05:	e8 e9 9c ff ff       	callq  96f3 <transparent_crc>
    fa0a:	48 b8 61 12 4b 9c 50 	movabs $0xc23fe4509c4b1261,%rax
    fa11:	e4 3f c2 
    fa14:	48 89 c1             	mov    %rax,%rcx
    fa17:	8b 45 fc             	mov    -0x4(%rbp),%eax
    fa1a:	89 c2                	mov    %eax,%edx
    fa1c:	48 8d 35 dd 1a 00 00 	lea    0x1add(%rip),%rsi        # 11500 <g_2180+0x1494>
    fa23:	48 89 cf             	mov    %rcx,%rdi
    fa26:	e8 c8 9c ff ff       	callq  96f3 <transparent_crc>
    fa2b:	b8 f9 ff ff ff       	mov    $0xfffffff9,%eax
    fa30:	0f b7 c0             	movzwl %ax,%eax
    fa33:	8b 55 fc             	mov    -0x4(%rbp),%edx
    fa36:	48 8d 35 c9 1a 00 00 	lea    0x1ac9(%rip),%rsi        # 11506 <g_2180+0x149a>
    fa3d:	48 89 c7             	mov    %rax,%rdi
    fa40:	e8 ae 9c ff ff       	callq  96f3 <transparent_crc>
    fa45:	48 8b 05 b4 4c 00 00 	mov    0x4cb4(%rip),%rax        # 14700 <g_552>
    fa4c:	48 89 c1             	mov    %rax,%rcx
    fa4f:	8b 45 fc             	mov    -0x4(%rbp),%eax
    fa52:	89 c2                	mov    %eax,%edx
    fa54:	48 8d 35 b1 1a 00 00 	lea    0x1ab1(%rip),%rsi        # 1150c <g_2180+0x14a0>
    fa5b:	48 89 cf             	mov    %rcx,%rdi
    fa5e:	e8 90 9c ff ff       	callq  96f3 <transparent_crc>
    fa63:	c7 45 f0 00 00 00 00 	movl   $0x0,-0x10(%rbp)
    fa6a:	eb 4d                	jmp    fab9 <main+0x9fa>
    fa6c:	8b 45 f0             	mov    -0x10(%rbp),%eax
    fa6f:	48 98                	cltq   
    fa71:	48 8d 14 85 00 00 00 	lea    0x0(,%rax,4),%rdx
    fa78:	00 
    fa79:	48 8d 05 a0 4c 00 00 	lea    0x4ca0(%rip),%rax        # 14720 <g_558>
    fa80:	8b 04 02             	mov    (%rdx,%rax,1),%eax
    fa83:	89 c1                	mov    %eax,%ecx
    fa85:	8b 45 fc             	mov    -0x4(%rbp),%eax
    fa88:	89 c2                	mov    %eax,%edx
    fa8a:	48 8d 35 81 1a 00 00 	lea    0x1a81(%rip),%rsi        # 11512 <g_2180+0x14a6>
    fa91:	48 89 cf             	mov    %rcx,%rdi
    fa94:	e8 5a 9c ff ff       	callq  96f3 <transparent_crc>
    fa99:	83 7d fc 00          	cmpl   $0x0,-0x4(%rbp)
    fa9d:	74 16                	je     fab5 <main+0x9f6>
    fa9f:	8b 45 f0             	mov    -0x10(%rbp),%eax
    faa2:	89 c6                	mov    %eax,%esi
    faa4:	48 8d 3d e9 18 00 00 	lea    0x18e9(%rip),%rdi        # 11394 <g_2180+0x1328>
    faab:	b8 00 00 00 00       	mov    $0x0,%eax
    fab0:	e8 cb 85 ff ff       	callq  8080 <printf@plt>
    fab5:	83 45 f0 01          	addl   $0x1,-0x10(%rbp)
    fab9:	83 7d f0 09          	cmpl   $0x9,-0x10(%rbp)
    fabd:	7e ad                	jle    fa6c <main+0x9ad>
    fabf:	48 8b 05 82 4c 00 00 	mov    0x4c82(%rip),%rax        # 14748 <g_575>
    fac6:	8b 55 fc             	mov    -0x4(%rbp),%edx
    fac9:	48 8d 35 4b 1a 00 00 	lea    0x1a4b(%rip),%rsi        # 1151b <g_2180+0x14af>
    fad0:	48 89 c7             	mov    %rax,%rdi
    fad3:	e8 1b 9c ff ff       	callq  96f3 <transparent_crc>
    fad8:	0f b7 05 71 4c 00 00 	movzwl 0x4c71(%rip),%eax        # 14750 <g_646>
    fadf:	48 0f bf c0          	movswq %ax,%rax
    fae3:	8b 55 fc             	mov    -0x4(%rbp),%edx
    fae6:	48 8d 35 34 1a 00 00 	lea    0x1a34(%rip),%rsi        # 11521 <g_2180+0x14b5>
    faed:	48 89 c7             	mov    %rax,%rdi
    faf0:	e8 fe 9b ff ff       	callq  96f3 <transparent_crc>
    faf5:	8b 05 59 4c 00 00    	mov    0x4c59(%rip),%eax        # 14754 <g_735>
    fafb:	89 c1                	mov    %eax,%ecx
    fafd:	8b 45 fc             	mov    -0x4(%rbp),%eax
    fb00:	89 c2                	mov    %eax,%edx
    fb02:	48 8d 35 1e 1a 00 00 	lea    0x1a1e(%rip),%rsi        # 11527 <g_2180+0x14bb>
    fb09:	48 89 cf             	mov    %rcx,%rdi
    fb0c:	e8 e2 9b ff ff       	callq  96f3 <transparent_crc>
    fb11:	0f b6 05 40 4c 00 00 	movzbl 0x4c40(%rip),%eax        # 14758 <g_745>
    fb18:	48 0f be c0          	movsbq %al,%rax
    fb1c:	8b 55 fc             	mov    -0x4(%rbp),%edx
    fb1f:	48 8d 35 07 1a 00 00 	lea    0x1a07(%rip),%rsi        # 1152d <g_2180+0x14c1>
    fb26:	48 89 c7             	mov    %rax,%rdi
    fb29:	e8 c5 9b ff ff       	callq  96f3 <transparent_crc>
    fb2e:	0f b6 05 24 4c 00 00 	movzbl 0x4c24(%rip),%eax        # 14759 <g_765>
    fb35:	48 0f be c0          	movsbq %al,%rax
    fb39:	8b 55 fc             	mov    -0x4(%rbp),%edx
    fb3c:	48 8d 35 f0 19 00 00 	lea    0x19f0(%rip),%rsi        # 11533 <g_2180+0x14c7>
    fb43:	48 89 c7             	mov    %rax,%rdi
    fb46:	e8 a8 9b ff ff       	callq  96f3 <transparent_crc>
    fb4b:	8b 05 0b 4c 00 00    	mov    0x4c0b(%rip),%eax        # 1475c <g_830>
    fb51:	89 c1                	mov    %eax,%ecx
    fb53:	8b 45 fc             	mov    -0x4(%rbp),%eax
    fb56:	89 c2                	mov    %eax,%edx
    fb58:	48 8d 35 da 19 00 00 	lea    0x19da(%rip),%rsi        # 11539 <g_2180+0x14cd>
    fb5f:	48 89 cf             	mov    %rcx,%rdi
    fb62:	e8 8c 9b ff ff       	callq  96f3 <transparent_crc>
    fb67:	0f b6 05 12 83 00 00 	movzbl 0x8312(%rip),%eax        # 17e80 <g_978>
    fb6e:	48 0f be c0          	movsbq %al,%rax
    fb72:	8b 55 fc             	mov    -0x4(%rbp),%edx
    fb75:	48 8d 35 c3 19 00 00 	lea    0x19c3(%rip),%rsi        # 1153f <g_2180+0x14d3>
    fb7c:	48 89 c7             	mov    %rax,%rdi
    fb7f:	e8 6f 9b ff ff       	callq  96f3 <transparent_crc>
    fb84:	8b 05 d6 4b 00 00    	mov    0x4bd6(%rip),%eax        # 14760 <g_1120>
    fb8a:	48 98                	cltq   
    fb8c:	8b 55 fc             	mov    -0x4(%rbp),%edx
    fb8f:	48 8d 35 af 19 00 00 	lea    0x19af(%rip),%rsi        # 11545 <g_2180+0x14d9>
    fb96:	48 89 c7             	mov    %rax,%rdi
    fb99:	e8 55 9b ff ff       	callq  96f3 <transparent_crc>
    fb9e:	8b 05 c0 4b 00 00    	mov    0x4bc0(%rip),%eax        # 14764 <g_1123>
    fba4:	48 98                	cltq   
    fba6:	8b 55 fc             	mov    -0x4(%rbp),%edx
    fba9:	48 8d 35 9c 19 00 00 	lea    0x199c(%rip),%rsi        # 1154c <g_2180+0x14e0>
    fbb0:	48 89 c7             	mov    %rax,%rdi
    fbb3:	e8 3b 9b ff ff       	callq  96f3 <transparent_crc>
    fbb8:	8b 05 aa 4b 00 00    	mov    0x4baa(%rip),%eax        # 14768 <g_1124>
    fbbe:	48 98                	cltq   
    fbc0:	8b 55 fc             	mov    -0x4(%rbp),%edx
    fbc3:	48 8d 35 89 19 00 00 	lea    0x1989(%rip),%rsi        # 11553 <g_2180+0x14e7>
    fbca:	48 89 c7             	mov    %rax,%rdi
    fbcd:	e8 21 9b ff ff       	callq  96f3 <transparent_crc>
    fbd2:	0f b6 05 a8 82 00 00 	movzbl 0x82a8(%rip),%eax        # 17e81 <g_1195>
    fbd9:	48 0f be c0          	movsbq %al,%rax
    fbdd:	8b 55 fc             	mov    -0x4(%rbp),%edx
    fbe0:	48 8d 35 73 19 00 00 	lea    0x1973(%rip),%rsi        # 1155a <g_2180+0x14ee>
    fbe7:	48 89 c7             	mov    %rax,%rdi
    fbea:	e8 04 9b ff ff       	callq  96f3 <transparent_crc>
    fbef:	8b 05 77 4b 00 00    	mov    0x4b77(%rip),%eax        # 1476c <g_1266>
    fbf5:	89 c1                	mov    %eax,%ecx
    fbf7:	8b 45 fc             	mov    -0x4(%rbp),%eax
    fbfa:	89 c2                	mov    %eax,%edx
    fbfc:	48 8d 35 5e 19 00 00 	lea    0x195e(%rip),%rsi        # 11561 <g_2180+0x14f5>
    fc03:	48 89 cf             	mov    %rcx,%rdi
    fc06:	e8 e8 9a ff ff       	callq  96f3 <transparent_crc>
    fc0b:	48 8b 05 5e 4b 00 00 	mov    0x4b5e(%rip),%rax        # 14770 <g_1516>
    fc12:	48 89 c1             	mov    %rax,%rcx
    fc15:	8b 45 fc             	mov    -0x4(%rbp),%eax
    fc18:	89 c2                	mov    %eax,%edx
    fc1a:	48 8d 35 47 19 00 00 	lea    0x1947(%rip),%rsi        # 11568 <g_2180+0x14fc>
    fc21:	48 89 cf             	mov    %rcx,%rdi
    fc24:	e8 ca 9a ff ff       	callq  96f3 <transparent_crc>
    fc29:	48 8b 05 48 4b 00 00 	mov    0x4b48(%rip),%rax        # 14778 <g_1517>
    fc30:	48 89 c1             	mov    %rax,%rcx
    fc33:	8b 45 fc             	mov    -0x4(%rbp),%eax
    fc36:	89 c2                	mov    %eax,%edx
    fc38:	48 8d 35 30 19 00 00 	lea    0x1930(%rip),%rsi        # 1156f <g_2180+0x1503>
    fc3f:	48 89 cf             	mov    %rcx,%rdi
    fc42:	e8 ac 9a ff ff       	callq  96f3 <transparent_crc>
    fc47:	48 8b 05 32 4b 00 00 	mov    0x4b32(%rip),%rax        # 14780 <g_1518>
    fc4e:	48 89 c1             	mov    %rax,%rcx
    fc51:	8b 45 fc             	mov    -0x4(%rbp),%eax
    fc54:	89 c2                	mov    %eax,%edx
    fc56:	48 8d 35 19 19 00 00 	lea    0x1919(%rip),%rsi        # 11576 <g_2180+0x150a>
    fc5d:	48 89 cf             	mov    %rcx,%rdi
    fc60:	e8 8e 9a ff ff       	callq  96f3 <transparent_crc>
    fc65:	48 8b 05 24 82 00 00 	mov    0x8224(%rip),%rax        # 17e90 <g_1519>
    fc6c:	48 89 c1             	mov    %rax,%rcx
    fc6f:	8b 45 fc             	mov    -0x4(%rbp),%eax
    fc72:	89 c2                	mov    %eax,%edx
    fc74:	48 8d 35 02 19 00 00 	lea    0x1902(%rip),%rsi        # 1157d <g_2180+0x1511>
    fc7b:	48 89 cf             	mov    %rcx,%rdi
    fc7e:	e8 70 9a ff ff       	callq  96f3 <transparent_crc>
    fc83:	48 8b 05 fe 4a 00 00 	mov    0x4afe(%rip),%rax        # 14788 <g_1520>
    fc8a:	48 89 c1             	mov    %rax,%rcx
    fc8d:	8b 45 fc             	mov    -0x4(%rbp),%eax
    fc90:	89 c2                	mov    %eax,%edx
    fc92:	48 8d 35 eb 18 00 00 	lea    0x18eb(%rip),%rsi        # 11584 <g_2180+0x1518>
    fc99:	48 89 cf             	mov    %rcx,%rdi
    fc9c:	e8 52 9a ff ff       	callq  96f3 <transparent_crc>
    fca1:	48 8b 05 e8 4a 00 00 	mov    0x4ae8(%rip),%rax        # 14790 <g_1521>
    fca8:	48 89 c1             	mov    %rax,%rcx
    fcab:	8b 45 fc             	mov    -0x4(%rbp),%eax
    fcae:	89 c2                	mov    %eax,%edx
    fcb0:	48 8d 35 d4 18 00 00 	lea    0x18d4(%rip),%rsi        # 1158b <g_2180+0x151f>
    fcb7:	48 89 cf             	mov    %rcx,%rdi
    fcba:	e8 34 9a ff ff       	callq  96f3 <transparent_crc>
    fcbf:	48 8b 05 d2 4a 00 00 	mov    0x4ad2(%rip),%rax        # 14798 <g_1522>
    fcc6:	48 89 c1             	mov    %rax,%rcx
    fcc9:	8b 45 fc             	mov    -0x4(%rbp),%eax
    fccc:	89 c2                	mov    %eax,%edx
    fcce:	48 8d 35 bd 18 00 00 	lea    0x18bd(%rip),%rsi        # 11592 <g_2180+0x1526>
    fcd5:	48 89 cf             	mov    %rcx,%rdi
    fcd8:	e8 16 9a ff ff       	callq  96f3 <transparent_crc>
    fcdd:	48 8b 05 bc 4a 00 00 	mov    0x4abc(%rip),%rax        # 147a0 <g_1523>
    fce4:	48 89 c1             	mov    %rax,%rcx
    fce7:	8b 45 fc             	mov    -0x4(%rbp),%eax
    fcea:	89 c2                	mov    %eax,%edx
    fcec:	48 8d 35 a6 18 00 00 	lea    0x18a6(%rip),%rsi        # 11599 <g_2180+0x152d>
    fcf3:	48 89 cf             	mov    %rcx,%rdi
    fcf6:	e8 f8 99 ff ff       	callq  96f3 <transparent_crc>
    fcfb:	48 8b 05 a6 4a 00 00 	mov    0x4aa6(%rip),%rax        # 147a8 <g_1524>
    fd02:	48 89 c1             	mov    %rax,%rcx
    fd05:	8b 45 fc             	mov    -0x4(%rbp),%eax
    fd08:	89 c2                	mov    %eax,%edx
    fd0a:	48 8d 35 8f 18 00 00 	lea    0x188f(%rip),%rsi        # 115a0 <g_2180+0x1534>
    fd11:	48 89 cf             	mov    %rcx,%rdi
    fd14:	e8 da 99 ff ff       	callq  96f3 <transparent_crc>
    fd19:	48 8b 05 90 4a 00 00 	mov    0x4a90(%rip),%rax        # 147b0 <g_1525>
    fd20:	48 89 c1             	mov    %rax,%rcx
    fd23:	8b 45 fc             	mov    -0x4(%rbp),%eax
    fd26:	89 c2                	mov    %eax,%edx
    fd28:	48 8d 35 78 18 00 00 	lea    0x1878(%rip),%rsi        # 115a7 <g_2180+0x153b>
    fd2f:	48 89 cf             	mov    %rcx,%rdi
    fd32:	e8 bc 99 ff ff       	callq  96f3 <transparent_crc>
    fd37:	48 8b 05 7a 4a 00 00 	mov    0x4a7a(%rip),%rax        # 147b8 <g_1526>
    fd3e:	48 89 c1             	mov    %rax,%rcx
    fd41:	8b 45 fc             	mov    -0x4(%rbp),%eax
    fd44:	89 c2                	mov    %eax,%edx
    fd46:	48 8d 35 61 18 00 00 	lea    0x1861(%rip),%rsi        # 115ae <g_2180+0x1542>
    fd4d:	48 89 cf             	mov    %rcx,%rdi
    fd50:	e8 9e 99 ff ff       	callq  96f3 <transparent_crc>
    fd55:	48 8b 05 64 4a 00 00 	mov    0x4a64(%rip),%rax        # 147c0 <g_1527>
    fd5c:	48 89 c1             	mov    %rax,%rcx
    fd5f:	8b 45 fc             	mov    -0x4(%rbp),%eax
    fd62:	89 c2                	mov    %eax,%edx
    fd64:	48 8d 35 4a 18 00 00 	lea    0x184a(%rip),%rsi        # 115b5 <g_2180+0x1549>
    fd6b:	48 89 cf             	mov    %rcx,%rdi
    fd6e:	e8 80 99 ff ff       	callq  96f3 <transparent_crc>
    fd73:	48 8b 05 4e 4a 00 00 	mov    0x4a4e(%rip),%rax        # 147c8 <g_1528>
    fd7a:	48 89 c1             	mov    %rax,%rcx
    fd7d:	8b 45 fc             	mov    -0x4(%rbp),%eax
    fd80:	89 c2                	mov    %eax,%edx
    fd82:	48 8d 35 33 18 00 00 	lea    0x1833(%rip),%rsi        # 115bc <g_2180+0x1550>
    fd89:	48 89 cf             	mov    %rcx,%rdi
    fd8c:	e8 62 99 ff ff       	callq  96f3 <transparent_crc>
    fd91:	48 8b 05 38 4a 00 00 	mov    0x4a38(%rip),%rax        # 147d0 <g_1529>
    fd98:	48 89 c1             	mov    %rax,%rcx
    fd9b:	8b 45 fc             	mov    -0x4(%rbp),%eax
    fd9e:	89 c2                	mov    %eax,%edx
    fda0:	48 8d 35 1c 18 00 00 	lea    0x181c(%rip),%rsi        # 115c3 <g_2180+0x1557>
    fda7:	48 89 cf             	mov    %rcx,%rdi
    fdaa:	e8 44 99 ff ff       	callq  96f3 <transparent_crc>
    fdaf:	0f b6 05 22 4a 00 00 	movzbl 0x4a22(%rip),%eax        # 147d8 <g_1560>
    fdb6:	48 0f be c0          	movsbq %al,%rax
    fdba:	8b 55 fc             	mov    -0x4(%rbp),%edx
    fdbd:	48 8d 35 06 18 00 00 	lea    0x1806(%rip),%rsi        # 115ca <g_2180+0x155e>
    fdc4:	48 89 c7             	mov    %rax,%rdi
    fdc7:	e8 27 99 ff ff       	callq  96f3 <transparent_crc>
    fdcc:	b8 09 00 00 00       	mov    $0x9,%eax
    fdd1:	48 98                	cltq   
    fdd3:	8b 55 fc             	mov    -0x4(%rbp),%edx
    fdd6:	48 8d 35 f4 17 00 00 	lea    0x17f4(%rip),%rsi        # 115d1 <g_2180+0x1565>
    fddd:	48 89 c7             	mov    %rax,%rdi
    fde0:	e8 0e 99 ff ff       	callq  96f3 <transparent_crc>
    fde5:	8b 05 f1 49 00 00    	mov    0x49f1(%rip),%eax        # 147dc <g_1911>
    fdeb:	48 98                	cltq   
    fded:	8b 55 fc             	mov    -0x4(%rbp),%edx
    fdf0:	48 8d 35 e1 17 00 00 	lea    0x17e1(%rip),%rsi        # 115d8 <g_2180+0x156c>
    fdf7:	48 89 c7             	mov    %rax,%rdi
    fdfa:	e8 f4 98 ff ff       	callq  96f3 <transparent_crc>
    fdff:	b8 fc ff ff ff       	mov    $0xfffffffc,%eax
    fe04:	48 0f be c0          	movsbq %al,%rax
    fe08:	8b 55 fc             	mov    -0x4(%rbp),%edx
    fe0b:	48 8d 35 cd 17 00 00 	lea    0x17cd(%rip),%rsi        # 115df <g_2180+0x1573>
    fe12:	48 89 c7             	mov    %rax,%rdi
    fe15:	e8 d9 98 ff ff       	callq  96f3 <transparent_crc>
    fe1a:	c7 45 f0 00 00 00 00 	movl   $0x0,-0x10(%rbp)
    fe21:	eb 46                	jmp    fe69 <main+0xdaa>
    fe23:	8b 45 f0             	mov    -0x10(%rbp),%eax
    fe26:	48 98                	cltq   
    fe28:	48 8d 15 b1 49 00 00 	lea    0x49b1(%rip),%rdx        # 147e0 <g_2088>
    fe2f:	0f b6 04 10          	movzbl (%rax,%rdx,1),%eax
    fe33:	48 0f be c0          	movsbq %al,%rax
    fe37:	8b 55 fc             	mov    -0x4(%rbp),%edx
    fe3a:	48 8d 35 a5 17 00 00 	lea    0x17a5(%rip),%rsi        # 115e6 <g_2180+0x157a>
    fe41:	48 89 c7             	mov    %rax,%rdi
    fe44:	e8 aa 98 ff ff       	callq  96f3 <transparent_crc>
    fe49:	83 7d fc 00          	cmpl   $0x0,-0x4(%rbp)
    fe4d:	74 16                	je     fe65 <main+0xda6>
    fe4f:	8b 45 f0             	mov    -0x10(%rbp),%eax
    fe52:	89 c6                	mov    %eax,%esi
    fe54:	48 8d 3d 39 15 00 00 	lea    0x1539(%rip),%rdi        # 11394 <g_2180+0x1328>
    fe5b:	b8 00 00 00 00       	mov    $0x0,%eax
    fe60:	e8 1b 82 ff ff       	callq  8080 <printf@plt>
    fe65:	83 45 f0 01          	addl   $0x1,-0x10(%rbp)
    fe69:	83 7d f0 05          	cmpl   $0x5,-0x10(%rbp)
    fe6d:	7e b4                	jle    fe23 <main+0xd64>
    fe6f:	b8 5d bd 24 6c       	mov    $0x6c24bd5d,%eax
    fe74:	89 c1                	mov    %eax,%ecx
    fe76:	8b 45 fc             	mov    -0x4(%rbp),%eax
    fe79:	89 c2                	mov    %eax,%edx
    fe7b:	48 8d 35 6e 17 00 00 	lea    0x176e(%rip),%rsi        # 115f0 <g_2180+0x1584>
    fe82:	48 89 cf             	mov    %rcx,%rdi
    fe85:	e8 69 98 ff ff       	callq  96f3 <transparent_crc>
    fe8a:	8b 05 58 49 00 00    	mov    0x4958(%rip),%eax        # 147e8 <g_2248>
    fe90:	89 c1                	mov    %eax,%ecx
    fe92:	8b 45 fc             	mov    -0x4(%rbp),%eax
    fe95:	89 c2                	mov    %eax,%edx
    fe97:	48 8d 35 59 17 00 00 	lea    0x1759(%rip),%rsi        # 115f7 <g_2180+0x158b>
    fe9e:	48 89 cf             	mov    %rcx,%rdi
    fea1:	e8 4d 98 ff ff       	callq  96f3 <transparent_crc>
    fea6:	c7 45 f0 00 00 00 00 	movl   $0x0,-0x10(%rbp)
    fead:	eb 4d                	jmp    fefc <main+0xe3d>
    feaf:	8b 45 f0             	mov    -0x10(%rbp),%eax
    feb2:	48 98                	cltq   
    feb4:	48 8d 14 85 00 00 00 	lea    0x0(,%rax,4),%rdx
    febb:	00 
    febc:	48 8d 05 29 49 00 00 	lea    0x4929(%rip),%rax        # 147ec <g_2392>
    fec3:	8b 04 02             	mov    (%rdx,%rax,1),%eax
    fec6:	89 c1                	mov    %eax,%ecx
    fec8:	8b 45 fc             	mov    -0x4(%rbp),%eax
    fecb:	89 c2                	mov    %eax,%edx
    fecd:	48 8d 35 2a 17 00 00 	lea    0x172a(%rip),%rsi        # 115fe <g_2180+0x1592>
    fed4:	48 89 cf             	mov    %rcx,%rdi
    fed7:	e8 17 98 ff ff       	callq  96f3 <transparent_crc>
    fedc:	83 7d fc 00          	cmpl   $0x0,-0x4(%rbp)
    fee0:	74 16                	je     fef8 <main+0xe39>
    fee2:	8b 45 f0             	mov    -0x10(%rbp),%eax
    fee5:	89 c6                	mov    %eax,%esi
    fee7:	48 8d 3d a6 14 00 00 	lea    0x14a6(%rip),%rdi        # 11394 <g_2180+0x1328>
    feee:	b8 00 00 00 00       	mov    $0x0,%eax
    fef3:	e8 88 81 ff ff       	callq  8080 <printf@plt>
    fef8:	83 45 f0 01          	addl   $0x1,-0x10(%rbp)
    fefc:	83 7d f0 00          	cmpl   $0x0,-0x10(%rbp)
    ff00:	7e ad                	jle    feaf <main+0xdf0>
    ff02:	0f b7 05 e7 48 00 00 	movzwl 0x48e7(%rip),%eax        # 147f0 <g_2644>
    ff09:	0f b7 c0             	movzwl %ax,%eax
    ff0c:	8b 55 fc             	mov    -0x4(%rbp),%edx
    ff0f:	48 8d 35 f2 16 00 00 	lea    0x16f2(%rip),%rsi        # 11608 <g_2180+0x159c>
    ff16:	48 89 c7             	mov    %rax,%rdi
    ff19:	e8 d5 97 ff ff       	callq  96f3 <transparent_crc>
    ff1e:	0f b6 05 cd 48 00 00 	movzbl 0x48cd(%rip),%eax        # 147f2 <g_2688>
    ff25:	48 0f be c0          	movsbq %al,%rax
    ff29:	8b 55 fc             	mov    -0x4(%rbp),%edx
    ff2c:	48 8d 35 dc 16 00 00 	lea    0x16dc(%rip),%rsi        # 1160f <g_2180+0x15a3>
    ff33:	48 89 c7             	mov    %rax,%rdi
    ff36:	e8 b8 97 ff ff       	callq  96f3 <transparent_crc>
    ff3b:	8b 05 df 40 00 00    	mov    0x40df(%rip),%eax        # 14020 <crc32_context>
    ff41:	f7 d0                	not    %eax
    ff43:	89 c2                	mov    %eax,%edx
    ff45:	8b 45 fc             	mov    -0x4(%rbp),%eax
    ff48:	89 c6                	mov    %eax,%esi
    ff4a:	89 d7                	mov    %edx,%edi
    ff4c:	e8 43 82 ff ff       	callq  8194 <platform_main_end>
    ff51:	b8 00 00 00 00       	mov    $0x0,%eax
    ff56:	c9                   	leaveq 
    ff57:	c3                   	retq   
    ff58:	0f 1f 84 00 00 00 00 	nopl   0x0(%rax,%rax,1)
    ff5f:	00 

000000000000ff60 <__libc_csu_init>:
    ff60:	f3 0f 1e fa          	endbr64 
    ff64:	41 57                	push   %r15
    ff66:	4c 8d 3d c3 3d 00 00 	lea    0x3dc3(%rip),%r15        # 13d30 <__frame_dummy_init_array_entry>
    ff6d:	41 56                	push   %r14
    ff6f:	49 89 d6             	mov    %rdx,%r14
    ff72:	41 55                	push   %r13
    ff74:	49 89 f5             	mov    %rsi,%r13
    ff77:	41 54                	push   %r12
    ff79:	41 89 fc             	mov    %edi,%r12d
    ff7c:	55                   	push   %rbp
    ff7d:	48 8d 2d b4 3d 00 00 	lea    0x3db4(%rip),%rbp        # 13d38 <__do_global_dtors_aux_fini_array_entry>
    ff84:	53                   	push   %rbx
    ff85:	4c 29 fd             	sub    %r15,%rbp
    ff88:	48 83 ec 08          	sub    $0x8,%rsp
    ff8c:	e8 6f 80 ff ff       	callq  8000 <_init>
    ff91:	48 c1 fd 03          	sar    $0x3,%rbp
    ff95:	74 1f                	je     ffb6 <__libc_csu_init+0x56>
    ff97:	31 db                	xor    %ebx,%ebx
    ff99:	0f 1f 80 00 00 00 00 	nopl   0x0(%rax)
    ffa0:	4c 89 f2             	mov    %r14,%rdx
    ffa3:	4c 89 ee             	mov    %r13,%rsi
    ffa6:	44 89 e7             	mov    %r12d,%edi
    ffa9:	41 ff 14 df          	callq  *(%r15,%rbx,8)
    ffad:	48 83 c3 01          	add    $0x1,%rbx
    ffb1:	48 39 dd             	cmp    %rbx,%rbp
    ffb4:	75 ea                	jne    ffa0 <__libc_csu_init+0x40>
    ffb6:	48 83 c4 08          	add    $0x8,%rsp
    ffba:	5b                   	pop    %rbx
    ffbb:	5d                   	pop    %rbp
    ffbc:	41 5c                	pop    %r12
    ffbe:	41 5d                	pop    %r13
    ffc0:	41 5e                	pop    %r14
    ffc2:	41 5f                	pop    %r15
    ffc4:	c3                   	retq   
    ffc5:	66 66 2e 0f 1f 84 00 	data16 nopw %cs:0x0(%rax,%rax,1)
    ffcc:	00 00 00 00 

000000000000ffd0 <__libc_csu_fini>:
    ffd0:	f3 0f 1e fa          	endbr64 
    ffd4:	c3                   	retq   
