


Disassembly of section .text:

00000000000040a0 <_start>:
    40a0:	f3 0f 1e fa          	endbr64 
    40a4:	31 ed                	xor    %ebp,%ebp
    40a6:	49 89 d1             	mov    %rdx,%r9
    40a9:	5e                   	pop    %rsi
    40aa:	48 89 e2             	mov    %rsp,%rdx
    40ad:	48 83 e4 f0          	and    $0xfffffffffffffff0,%rsp
    40b1:	50                   	push   %rax
    40b2:	54                   	push   %rsp
    40b3:	4c 8d 05 d6 6f 00 00 	lea    0x6fd6(%rip),%r8        # b090 <__libc_csu_fini>
    40ba:	48 8d 0d 5f 6f 00 00 	lea    0x6f5f(%rip),%rcx        # b020 <__libc_csu_init>
    40c1:	48 8d 3d 3b 68 00 00 	lea    0x683b(%rip),%rdi        # a903 <main>
    40c8:	ff 15 fa be 00 00    	callq  *0xbefa(%rip)        # ffc8 <__libc_start_main@GLIBC_2.2.5>
    40ce:	f4                   	hlt    
    40cf:	90                   	nop

00000000000040d0 <deregister_tm_clones>:
    40d0:	48 8d 3d c9 d5 00 00 	lea    0xd5c9(%rip),%rdi        # 116a0 <__TMC_END__>
    40d7:	48 8d 05 c2 d5 00 00 	lea    0xd5c2(%rip),%rax        # 116a0 <__TMC_END__>
    40de:	48 39 f8             	cmp    %rdi,%rax
    40e1:	74 15                	je     40f8 <deregister_tm_clones+0x28>
    40e3:	48 8b 05 d6 be 00 00 	mov    0xbed6(%rip),%rax        # ffc0 <_ITM_deregisterTMCloneTable>
    40ea:	48 85 c0             	test   %rax,%rax
    40ed:	74 09                	je     40f8 <deregister_tm_clones+0x28>
    40ef:	ff e0                	jmpq   *%rax
    40f1:	0f 1f 80 00 00 00 00 	nopl   0x0(%rax)
    40f8:	c3                   	retq   
    40f9:	0f 1f 80 00 00 00 00 	nopl   0x0(%rax)

0000000000004100 <register_tm_clones>:
    4100:	48 8d 3d 99 d5 00 00 	lea    0xd599(%rip),%rdi        # 116a0 <__TMC_END__>
    4107:	48 8d 35 92 d5 00 00 	lea    0xd592(%rip),%rsi        # 116a0 <__TMC_END__>
    410e:	48 29 fe             	sub    %rdi,%rsi
    4111:	48 89 f0             	mov    %rsi,%rax
    4114:	48 c1 ee 3f          	shr    $0x3f,%rsi
    4118:	48 c1 f8 03          	sar    $0x3,%rax
    411c:	48 01 c6             	add    %rax,%rsi
    411f:	48 d1 fe             	sar    %rsi
    4122:	74 14                	je     4138 <register_tm_clones+0x38>
    4124:	48 8b 05 ad be 00 00 	mov    0xbead(%rip),%rax        # ffd8 <_ITM_registerTMCloneTable>
    412b:	48 85 c0             	test   %rax,%rax
    412e:	74 08                	je     4138 <register_tm_clones+0x38>
    4130:	ff e0                	jmpq   *%rax
    4132:	66 0f 1f 44 00 00    	nopw   0x0(%rax,%rax,1)
    4138:	c3                   	retq   
    4139:	0f 1f 80 00 00 00 00 	nopl   0x0(%rax)

0000000000004140 <__do_global_dtors_aux>:
    4140:	f3 0f 1e fa          	endbr64 
    4144:	80 3d 55 d5 00 00 00 	cmpb   $0x0,0xd555(%rip)        # 116a0 <__TMC_END__>
    414b:	75 2b                	jne    4178 <__do_global_dtors_aux+0x38>
    414d:	55                   	push   %rbp
    414e:	48 83 3d 8a be 00 00 	cmpq   $0x0,0xbe8a(%rip)        # ffe0 <__cxa_finalize@GLIBC_2.2.5>
    4155:	00 
    4156:	48 89 e5             	mov    %rsp,%rbp
    4159:	74 0c                	je     4167 <__do_global_dtors_aux+0x27>
    415b:	48 8b 3d a6 be 00 00 	mov    0xbea6(%rip),%rdi        # 10008 <__dso_handle>
    4162:	e8 f9 fe ff ff       	callq  4060 <__cxa_finalize@plt>
    4167:	e8 64 ff ff ff       	callq  40d0 <deregister_tm_clones>
    416c:	c6 05 2d d5 00 00 01 	movb   $0x1,0xd52d(%rip)        # 116a0 <__TMC_END__>
    4173:	5d                   	pop    %rbp
    4174:	c3                   	retq   
    4175:	0f 1f 00             	nopl   (%rax)
    4178:	c3                   	retq   
    4179:	0f 1f 80 00 00 00 00 	nopl   0x0(%rax)

0000000000004180 <frame_dummy>:
    4180:	f3 0f 1e fa          	endbr64 
    4184:	e9 77 ff ff ff       	jmpq   4100 <register_tm_clones>

0000000000004189 <platform_main_begin>:
    4189:	f3 0f 1e fa          	endbr64 
    418d:	55                   	push   %rbp
    418e:	48 89 e5             	mov    %rsp,%rbp
    4191:	90                   	nop
    4192:	5d                   	pop    %rbp
    4193:	c3                   	retq   

0000000000004194 <platform_main_end>:
    4194:	f3 0f 1e fa          	endbr64 
    4198:	55                   	push   %rbp
    4199:	48 89 e5             	mov    %rsp,%rbp
    419c:	48 83 ec 10          	sub    $0x10,%rsp
    41a0:	89 7d fc             	mov    %edi,-0x4(%rbp)
    41a3:	89 75 f8             	mov    %esi,-0x8(%rbp)
    41a6:	8b 45 fc             	mov    -0x4(%rbp),%eax
    41a9:	89 c6                	mov    %eax,%esi
    41ab:	48 8d 3d 6e 7e 00 00 	lea    0x7e6e(%rip),%rdi        # c020 <_IO_stdin_used+0x20>
    41b2:	b8 00 00 00 00       	mov    $0x0,%eax
    41b7:	e8 c4 fe ff ff       	callq  4080 <printf@plt>
    41bc:	90                   	nop
    41bd:	c9                   	leaveq 
    41be:	c3                   	retq   

00000000000041bf <safe_unary_minus_func_int8_t_s>:
    41bf:	f3 0f 1e fa          	endbr64 
    41c3:	55                   	push   %rbp
    41c4:	48 89 e5             	mov    %rsp,%rbp
    41c7:	89 f8                	mov    %edi,%eax
    41c9:	88 45 fc             	mov    %al,-0x4(%rbp)
    41cc:	0f b6 45 fc          	movzbl -0x4(%rbp),%eax
    41d0:	f7 d8                	neg    %eax
    41d2:	5d                   	pop    %rbp
    41d3:	c3                   	retq   

00000000000041d4 <safe_add_func_int8_t_s_s>:
    41d4:	f3 0f 1e fa          	endbr64 
    41d8:	55                   	push   %rbp
    41d9:	48 89 e5             	mov    %rsp,%rbp
    41dc:	89 fa                	mov    %edi,%edx
    41de:	89 f0                	mov    %esi,%eax
    41e0:	88 55 fc             	mov    %dl,-0x4(%rbp)
    41e3:	88 45 f8             	mov    %al,-0x8(%rbp)
    41e6:	0f b6 55 fc          	movzbl -0x4(%rbp),%edx
    41ea:	0f b6 45 f8          	movzbl -0x8(%rbp),%eax
    41ee:	01 d0                	add    %edx,%eax
    41f0:	5d                   	pop    %rbp
    41f1:	c3                   	retq   

00000000000041f2 <safe_sub_func_int8_t_s_s>:
    41f2:	f3 0f 1e fa          	endbr64 
    41f6:	55                   	push   %rbp
    41f7:	48 89 e5             	mov    %rsp,%rbp
    41fa:	89 fa                	mov    %edi,%edx
    41fc:	89 f0                	mov    %esi,%eax
    41fe:	88 55 fc             	mov    %dl,-0x4(%rbp)
    4201:	88 45 f8             	mov    %al,-0x8(%rbp)
    4204:	0f b6 55 fc          	movzbl -0x4(%rbp),%edx
    4208:	0f b6 45 f8          	movzbl -0x8(%rbp),%eax
    420c:	29 c2                	sub    %eax,%edx
    420e:	89 d0                	mov    %edx,%eax
    4210:	5d                   	pop    %rbp
    4211:	c3                   	retq   

0000000000004212 <safe_mul_func_int8_t_s_s>:
    4212:	f3 0f 1e fa          	endbr64 
    4216:	55                   	push   %rbp
    4217:	48 89 e5             	mov    %rsp,%rbp
    421a:	89 fa                	mov    %edi,%edx
    421c:	89 f0                	mov    %esi,%eax
    421e:	88 55 fc             	mov    %dl,-0x4(%rbp)
    4221:	88 45 f8             	mov    %al,-0x8(%rbp)
    4224:	0f b6 45 fc          	movzbl -0x4(%rbp),%eax
    4228:	0f b6 55 f8          	movzbl -0x8(%rbp),%edx
    422c:	0f af c2             	imul   %edx,%eax
    422f:	5d                   	pop    %rbp
    4230:	c3                   	retq   

0000000000004231 <safe_mod_func_int8_t_s_s>:
    4231:	f3 0f 1e fa          	endbr64 
    4235:	55                   	push   %rbp
    4236:	48 89 e5             	mov    %rsp,%rbp
    4239:	89 fa                	mov    %edi,%edx
    423b:	89 f0                	mov    %esi,%eax
    423d:	88 55 fc             	mov    %dl,-0x4(%rbp)
    4240:	88 45 f8             	mov    %al,-0x8(%rbp)
    4243:	80 7d f8 00          	cmpb   $0x0,-0x8(%rbp)
    4247:	74 1b                	je     4264 <safe_mod_func_int8_t_s_s+0x33>
    4249:	80 7d fc 80          	cmpb   $0x80,-0x4(%rbp)
    424d:	75 06                	jne    4255 <safe_mod_func_int8_t_s_s+0x24>
    424f:	80 7d f8 ff          	cmpb   $0xff,-0x8(%rbp)
    4253:	74 0f                	je     4264 <safe_mod_func_int8_t_s_s+0x33>
    4255:	0f be 45 fc          	movsbl -0x4(%rbp),%eax
    4259:	0f be 4d f8          	movsbl -0x8(%rbp),%ecx
    425d:	99                   	cltd   
    425e:	f7 f9                	idiv   %ecx
    4260:	89 d0                	mov    %edx,%eax
    4262:	eb 04                	jmp    4268 <safe_mod_func_int8_t_s_s+0x37>
    4264:	0f b6 45 fc          	movzbl -0x4(%rbp),%eax
    4268:	5d                   	pop    %rbp
    4269:	c3                   	retq   

000000000000426a <safe_div_func_int8_t_s_s>:
    426a:	f3 0f 1e fa          	endbr64 
    426e:	55                   	push   %rbp
    426f:	48 89 e5             	mov    %rsp,%rbp
    4272:	89 fa                	mov    %edi,%edx
    4274:	89 f0                	mov    %esi,%eax
    4276:	88 55 fc             	mov    %dl,-0x4(%rbp)
    4279:	88 45 f8             	mov    %al,-0x8(%rbp)
    427c:	80 7d f8 00          	cmpb   $0x0,-0x8(%rbp)
    4280:	74 19                	je     429b <safe_div_func_int8_t_s_s+0x31>
    4282:	80 7d fc 80          	cmpb   $0x80,-0x4(%rbp)
    4286:	75 06                	jne    428e <safe_div_func_int8_t_s_s+0x24>
    4288:	80 7d f8 ff          	cmpb   $0xff,-0x8(%rbp)
    428c:	74 0d                	je     429b <safe_div_func_int8_t_s_s+0x31>
    428e:	0f be 45 fc          	movsbl -0x4(%rbp),%eax
    4292:	0f be 4d f8          	movsbl -0x8(%rbp),%ecx
    4296:	99                   	cltd   
    4297:	f7 f9                	idiv   %ecx
    4299:	eb 04                	jmp    429f <safe_div_func_int8_t_s_s+0x35>
    429b:	0f b6 45 fc          	movzbl -0x4(%rbp),%eax
    429f:	5d                   	pop    %rbp
    42a0:	c3                   	retq   

00000000000042a1 <safe_lshift_func_int8_t_s_s>:
    42a1:	f3 0f 1e fa          	endbr64 
    42a5:	55                   	push   %rbp
    42a6:	48 89 e5             	mov    %rsp,%rbp
    42a9:	89 f8                	mov    %edi,%eax
    42ab:	89 75 f8             	mov    %esi,-0x8(%rbp)
    42ae:	88 45 fc             	mov    %al,-0x4(%rbp)
    42b1:	80 7d fc 00          	cmpb   $0x0,-0x4(%rbp)
    42b5:	78 31                	js     42e8 <safe_lshift_func_int8_t_s_s+0x47>
    42b7:	83 7d f8 00          	cmpl   $0x0,-0x8(%rbp)
    42bb:	78 2b                	js     42e8 <safe_lshift_func_int8_t_s_s+0x47>
    42bd:	83 7d f8 1f          	cmpl   $0x1f,-0x8(%rbp)
    42c1:	7f 25                	jg     42e8 <safe_lshift_func_int8_t_s_s+0x47>
    42c3:	0f be 55 fc          	movsbl -0x4(%rbp),%edx
    42c7:	8b 45 f8             	mov    -0x8(%rbp),%eax
    42ca:	be 7f 00 00 00       	mov    $0x7f,%esi
    42cf:	89 c1                	mov    %eax,%ecx
    42d1:	d3 fe                	sar    %cl,%esi
    42d3:	89 f0                	mov    %esi,%eax
    42d5:	39 c2                	cmp    %eax,%edx
    42d7:	7f 0f                	jg     42e8 <safe_lshift_func_int8_t_s_s+0x47>
    42d9:	0f be 55 fc          	movsbl -0x4(%rbp),%edx
    42dd:	8b 45 f8             	mov    -0x8(%rbp),%eax
    42e0:	89 c1                	mov    %eax,%ecx
    42e2:	d3 e2                	shl    %cl,%edx
    42e4:	89 d0                	mov    %edx,%eax
    42e6:	eb 04                	jmp    42ec <safe_lshift_func_int8_t_s_s+0x4b>
    42e8:	0f b6 45 fc          	movzbl -0x4(%rbp),%eax
    42ec:	5d                   	pop    %rbp
    42ed:	c3                   	retq   

00000000000042ee <safe_lshift_func_int8_t_s_u>:
    42ee:	f3 0f 1e fa          	endbr64 
    42f2:	55                   	push   %rbp
    42f3:	48 89 e5             	mov    %rsp,%rbp
    42f6:	89 f8                	mov    %edi,%eax
    42f8:	89 75 f8             	mov    %esi,-0x8(%rbp)
    42fb:	88 45 fc             	mov    %al,-0x4(%rbp)
    42fe:	80 7d fc 00          	cmpb   $0x0,-0x4(%rbp)
    4302:	78 2b                	js     432f <safe_lshift_func_int8_t_s_u+0x41>
    4304:	83 7d f8 1f          	cmpl   $0x1f,-0x8(%rbp)
    4308:	77 25                	ja     432f <safe_lshift_func_int8_t_s_u+0x41>
    430a:	0f be 55 fc          	movsbl -0x4(%rbp),%edx
    430e:	8b 45 f8             	mov    -0x8(%rbp),%eax
    4311:	be 7f 00 00 00       	mov    $0x7f,%esi
    4316:	89 c1                	mov    %eax,%ecx
    4318:	d3 fe                	sar    %cl,%esi
    431a:	89 f0                	mov    %esi,%eax
    431c:	39 c2                	cmp    %eax,%edx
    431e:	7f 0f                	jg     432f <safe_lshift_func_int8_t_s_u+0x41>
    4320:	0f be 55 fc          	movsbl -0x4(%rbp),%edx
    4324:	8b 45 f8             	mov    -0x8(%rbp),%eax
    4327:	89 c1                	mov    %eax,%ecx
    4329:	d3 e2                	shl    %cl,%edx
    432b:	89 d0                	mov    %edx,%eax
    432d:	eb 04                	jmp    4333 <safe_lshift_func_int8_t_s_u+0x45>
    432f:	0f b6 45 fc          	movzbl -0x4(%rbp),%eax
    4333:	5d                   	pop    %rbp
    4334:	c3                   	retq   

0000000000004335 <safe_rshift_func_int8_t_s_s>:
    4335:	f3 0f 1e fa          	endbr64 
    4339:	55                   	push   %rbp
    433a:	48 89 e5             	mov    %rsp,%rbp
    433d:	89 f8                	mov    %edi,%eax
    433f:	89 75 f8             	mov    %esi,-0x8(%rbp)
    4342:	88 45 fc             	mov    %al,-0x4(%rbp)
    4345:	80 7d fc 00          	cmpb   $0x0,-0x4(%rbp)
    4349:	78 1b                	js     4366 <safe_rshift_func_int8_t_s_s+0x31>
    434b:	83 7d f8 00          	cmpl   $0x0,-0x8(%rbp)
    434f:	78 15                	js     4366 <safe_rshift_func_int8_t_s_s+0x31>
    4351:	83 7d f8 1f          	cmpl   $0x1f,-0x8(%rbp)
    4355:	7f 0f                	jg     4366 <safe_rshift_func_int8_t_s_s+0x31>
    4357:	0f be 55 fc          	movsbl -0x4(%rbp),%edx
    435b:	8b 45 f8             	mov    -0x8(%rbp),%eax
    435e:	89 c1                	mov    %eax,%ecx
    4360:	d3 fa                	sar    %cl,%edx
    4362:	89 d0                	mov    %edx,%eax
    4364:	eb 04                	jmp    436a <safe_rshift_func_int8_t_s_s+0x35>
    4366:	0f b6 45 fc          	movzbl -0x4(%rbp),%eax
    436a:	5d                   	pop    %rbp
    436b:	c3                   	retq   

000000000000436c <safe_rshift_func_int8_t_s_u>:
    436c:	f3 0f 1e fa          	endbr64 
    4370:	55                   	push   %rbp
    4371:	48 89 e5             	mov    %rsp,%rbp
    4374:	89 f8                	mov    %edi,%eax
    4376:	89 75 f8             	mov    %esi,-0x8(%rbp)
    4379:	88 45 fc             	mov    %al,-0x4(%rbp)
    437c:	80 7d fc 00          	cmpb   $0x0,-0x4(%rbp)
    4380:	78 15                	js     4397 <safe_rshift_func_int8_t_s_u+0x2b>
    4382:	83 7d f8 1f          	cmpl   $0x1f,-0x8(%rbp)
    4386:	77 0f                	ja     4397 <safe_rshift_func_int8_t_s_u+0x2b>
    4388:	0f be 55 fc          	movsbl -0x4(%rbp),%edx
    438c:	8b 45 f8             	mov    -0x8(%rbp),%eax
    438f:	89 c1                	mov    %eax,%ecx
    4391:	d3 fa                	sar    %cl,%edx
    4393:	89 d0                	mov    %edx,%eax
    4395:	eb 04                	jmp    439b <safe_rshift_func_int8_t_s_u+0x2f>
    4397:	0f b6 45 fc          	movzbl -0x4(%rbp),%eax
    439b:	5d                   	pop    %rbp
    439c:	c3                   	retq   

000000000000439d <safe_unary_minus_func_int16_t_s>:
    439d:	f3 0f 1e fa          	endbr64 
    43a1:	55                   	push   %rbp
    43a2:	48 89 e5             	mov    %rsp,%rbp
    43a5:	89 f8                	mov    %edi,%eax
    43a7:	66 89 45 fc          	mov    %ax,-0x4(%rbp)
    43ab:	0f b7 45 fc          	movzwl -0x4(%rbp),%eax
    43af:	f7 d8                	neg    %eax
    43b1:	5d                   	pop    %rbp
    43b2:	c3                   	retq   

00000000000043b3 <safe_add_func_int16_t_s_s>:
    43b3:	f3 0f 1e fa          	endbr64 
    43b7:	55                   	push   %rbp
    43b8:	48 89 e5             	mov    %rsp,%rbp
    43bb:	89 fa                	mov    %edi,%edx
    43bd:	89 f0                	mov    %esi,%eax
    43bf:	66 89 55 fc          	mov    %dx,-0x4(%rbp)
    43c3:	66 89 45 f8          	mov    %ax,-0x8(%rbp)
    43c7:	0f b7 55 fc          	movzwl -0x4(%rbp),%edx
    43cb:	0f b7 45 f8          	movzwl -0x8(%rbp),%eax
    43cf:	01 d0                	add    %edx,%eax
    43d1:	5d                   	pop    %rbp
    43d2:	c3                   	retq   

00000000000043d3 <safe_sub_func_int16_t_s_s>:
    43d3:	f3 0f 1e fa          	endbr64 
    43d7:	55                   	push   %rbp
    43d8:	48 89 e5             	mov    %rsp,%rbp
    43db:	89 fa                	mov    %edi,%edx
    43dd:	89 f0                	mov    %esi,%eax
    43df:	66 89 55 fc          	mov    %dx,-0x4(%rbp)
    43e3:	66 89 45 f8          	mov    %ax,-0x8(%rbp)
    43e7:	0f b7 55 fc          	movzwl -0x4(%rbp),%edx
    43eb:	0f b7 45 f8          	movzwl -0x8(%rbp),%eax
    43ef:	29 c2                	sub    %eax,%edx
    43f1:	89 d0                	mov    %edx,%eax
    43f3:	5d                   	pop    %rbp
    43f4:	c3                   	retq   

00000000000043f5 <safe_mul_func_int16_t_s_s>:
    43f5:	f3 0f 1e fa          	endbr64 
    43f9:	55                   	push   %rbp
    43fa:	48 89 e5             	mov    %rsp,%rbp
    43fd:	89 fa                	mov    %edi,%edx
    43ff:	89 f0                	mov    %esi,%eax
    4401:	66 89 55 fc          	mov    %dx,-0x4(%rbp)
    4405:	66 89 45 f8          	mov    %ax,-0x8(%rbp)
    4409:	0f b7 55 fc          	movzwl -0x4(%rbp),%edx
    440d:	0f b7 45 f8          	movzwl -0x8(%rbp),%eax
    4411:	0f af c2             	imul   %edx,%eax
    4414:	5d                   	pop    %rbp
    4415:	c3                   	retq   

0000000000004416 <safe_mod_func_int16_t_s_s>:
    4416:	f3 0f 1e fa          	endbr64 
    441a:	55                   	push   %rbp
    441b:	48 89 e5             	mov    %rsp,%rbp
    441e:	89 fa                	mov    %edi,%edx
    4420:	89 f0                	mov    %esi,%eax
    4422:	66 89 55 fc          	mov    %dx,-0x4(%rbp)
    4426:	66 89 45 f8          	mov    %ax,-0x8(%rbp)
    442a:	66 83 7d f8 00       	cmpw   $0x0,-0x8(%rbp)
    442f:	74 1e                	je     444f <safe_mod_func_int16_t_s_s+0x39>
    4431:	66 81 7d fc 00 80    	cmpw   $0x8000,-0x4(%rbp)
    4437:	75 07                	jne    4440 <safe_mod_func_int16_t_s_s+0x2a>
    4439:	66 83 7d f8 ff       	cmpw   $0xffff,-0x8(%rbp)
    443e:	74 0f                	je     444f <safe_mod_func_int16_t_s_s+0x39>
    4440:	0f bf 45 fc          	movswl -0x4(%rbp),%eax
    4444:	0f bf 4d f8          	movswl -0x8(%rbp),%ecx
    4448:	99                   	cltd   
    4449:	f7 f9                	idiv   %ecx
    444b:	89 d0                	mov    %edx,%eax
    444d:	eb 04                	jmp    4453 <safe_mod_func_int16_t_s_s+0x3d>
    444f:	0f b7 45 fc          	movzwl -0x4(%rbp),%eax
    4453:	5d                   	pop    %rbp
    4454:	c3                   	retq   

0000000000004455 <safe_div_func_int16_t_s_s>:
    4455:	f3 0f 1e fa          	endbr64 
    4459:	55                   	push   %rbp
    445a:	48 89 e5             	mov    %rsp,%rbp
    445d:	89 fa                	mov    %edi,%edx
    445f:	89 f0                	mov    %esi,%eax
    4461:	66 89 55 fc          	mov    %dx,-0x4(%rbp)
    4465:	66 89 45 f8          	mov    %ax,-0x8(%rbp)
    4469:	66 83 7d f8 00       	cmpw   $0x0,-0x8(%rbp)
    446e:	74 1c                	je     448c <safe_div_func_int16_t_s_s+0x37>
    4470:	66 81 7d fc 00 80    	cmpw   $0x8000,-0x4(%rbp)
    4476:	75 07                	jne    447f <safe_div_func_int16_t_s_s+0x2a>
    4478:	66 83 7d f8 ff       	cmpw   $0xffff,-0x8(%rbp)
    447d:	74 0d                	je     448c <safe_div_func_int16_t_s_s+0x37>
    447f:	0f bf 45 fc          	movswl -0x4(%rbp),%eax
    4483:	0f bf 4d f8          	movswl -0x8(%rbp),%ecx
    4487:	99                   	cltd   
    4488:	f7 f9                	idiv   %ecx
    448a:	eb 04                	jmp    4490 <safe_div_func_int16_t_s_s+0x3b>
    448c:	0f b7 45 fc          	movzwl -0x4(%rbp),%eax
    4490:	5d                   	pop    %rbp
    4491:	c3                   	retq   

0000000000004492 <safe_lshift_func_int16_t_s_s>:
    4492:	f3 0f 1e fa          	endbr64 
    4496:	55                   	push   %rbp
    4497:	48 89 e5             	mov    %rsp,%rbp
    449a:	89 f8                	mov    %edi,%eax
    449c:	89 75 f8             	mov    %esi,-0x8(%rbp)
    449f:	66 89 45 fc          	mov    %ax,-0x4(%rbp)
    44a3:	66 83 7d fc 00       	cmpw   $0x0,-0x4(%rbp)
    44a8:	78 31                	js     44db <safe_lshift_func_int16_t_s_s+0x49>
    44aa:	83 7d f8 00          	cmpl   $0x0,-0x8(%rbp)
    44ae:	78 2b                	js     44db <safe_lshift_func_int16_t_s_s+0x49>
    44b0:	83 7d f8 1f          	cmpl   $0x1f,-0x8(%rbp)
    44b4:	7f 25                	jg     44db <safe_lshift_func_int16_t_s_s+0x49>
    44b6:	0f bf 55 fc          	movswl -0x4(%rbp),%edx
    44ba:	8b 45 f8             	mov    -0x8(%rbp),%eax
    44bd:	be ff 7f 00 00       	mov    $0x7fff,%esi
    44c2:	89 c1                	mov    %eax,%ecx
    44c4:	d3 fe                	sar    %cl,%esi
    44c6:	89 f0                	mov    %esi,%eax
    44c8:	39 c2                	cmp    %eax,%edx
    44ca:	7f 0f                	jg     44db <safe_lshift_func_int16_t_s_s+0x49>
    44cc:	0f bf 55 fc          	movswl -0x4(%rbp),%edx
    44d0:	8b 45 f8             	mov    -0x8(%rbp),%eax
    44d3:	89 c1                	mov    %eax,%ecx
    44d5:	d3 e2                	shl    %cl,%edx
    44d7:	89 d0                	mov    %edx,%eax
    44d9:	eb 04                	jmp    44df <safe_lshift_func_int16_t_s_s+0x4d>
    44db:	0f b7 45 fc          	movzwl -0x4(%rbp),%eax
    44df:	5d                   	pop    %rbp
    44e0:	c3                   	retq   

00000000000044e1 <safe_lshift_func_int16_t_s_u>:
    44e1:	f3 0f 1e fa          	endbr64 
    44e5:	55                   	push   %rbp
    44e6:	48 89 e5             	mov    %rsp,%rbp
    44e9:	89 f8                	mov    %edi,%eax
    44eb:	89 75 f8             	mov    %esi,-0x8(%rbp)
    44ee:	66 89 45 fc          	mov    %ax,-0x4(%rbp)
    44f2:	66 83 7d fc 00       	cmpw   $0x0,-0x4(%rbp)
    44f7:	78 2b                	js     4524 <safe_lshift_func_int16_t_s_u+0x43>
    44f9:	83 7d f8 1f          	cmpl   $0x1f,-0x8(%rbp)
    44fd:	77 25                	ja     4524 <safe_lshift_func_int16_t_s_u+0x43>
    44ff:	0f bf 55 fc          	movswl -0x4(%rbp),%edx
    4503:	8b 45 f8             	mov    -0x8(%rbp),%eax
    4506:	be ff 7f 00 00       	mov    $0x7fff,%esi
    450b:	89 c1                	mov    %eax,%ecx
    450d:	d3 fe                	sar    %cl,%esi
    450f:	89 f0                	mov    %esi,%eax
    4511:	39 c2                	cmp    %eax,%edx
    4513:	7f 0f                	jg     4524 <safe_lshift_func_int16_t_s_u+0x43>
    4515:	0f bf 55 fc          	movswl -0x4(%rbp),%edx
    4519:	8b 45 f8             	mov    -0x8(%rbp),%eax
    451c:	89 c1                	mov    %eax,%ecx
    451e:	d3 e2                	shl    %cl,%edx
    4520:	89 d0                	mov    %edx,%eax
    4522:	eb 04                	jmp    4528 <safe_lshift_func_int16_t_s_u+0x47>
    4524:	0f b7 45 fc          	movzwl -0x4(%rbp),%eax
    4528:	5d                   	pop    %rbp
    4529:	c3                   	retq   

000000000000452a <safe_rshift_func_int16_t_s_s>:
    452a:	f3 0f 1e fa          	endbr64 
    452e:	55                   	push   %rbp
    452f:	48 89 e5             	mov    %rsp,%rbp
    4532:	89 f8                	mov    %edi,%eax
    4534:	89 75 f8             	mov    %esi,-0x8(%rbp)
    4537:	66 89 45 fc          	mov    %ax,-0x4(%rbp)
    453b:	66 83 7d fc 00       	cmpw   $0x0,-0x4(%rbp)
    4540:	78 1b                	js     455d <safe_rshift_func_int16_t_s_s+0x33>
    4542:	83 7d f8 00          	cmpl   $0x0,-0x8(%rbp)
    4546:	78 15                	js     455d <safe_rshift_func_int16_t_s_s+0x33>
    4548:	83 7d f8 1f          	cmpl   $0x1f,-0x8(%rbp)
    454c:	7f 0f                	jg     455d <safe_rshift_func_int16_t_s_s+0x33>
    454e:	0f bf 55 fc          	movswl -0x4(%rbp),%edx
    4552:	8b 45 f8             	mov    -0x8(%rbp),%eax
    4555:	89 c1                	mov    %eax,%ecx
    4557:	d3 fa                	sar    %cl,%edx
    4559:	89 d0                	mov    %edx,%eax
    455b:	eb 04                	jmp    4561 <safe_rshift_func_int16_t_s_s+0x37>
    455d:	0f b7 45 fc          	movzwl -0x4(%rbp),%eax
    4561:	5d                   	pop    %rbp
    4562:	c3                   	retq   

0000000000004563 <safe_rshift_func_int16_t_s_u>:
    4563:	f3 0f 1e fa          	endbr64 
    4567:	55                   	push   %rbp
    4568:	48 89 e5             	mov    %rsp,%rbp
    456b:	89 f8                	mov    %edi,%eax
    456d:	89 75 f8             	mov    %esi,-0x8(%rbp)
    4570:	66 89 45 fc          	mov    %ax,-0x4(%rbp)
    4574:	66 83 7d fc 00       	cmpw   $0x0,-0x4(%rbp)
    4579:	78 15                	js     4590 <safe_rshift_func_int16_t_s_u+0x2d>
    457b:	83 7d f8 1f          	cmpl   $0x1f,-0x8(%rbp)
    457f:	77 0f                	ja     4590 <safe_rshift_func_int16_t_s_u+0x2d>
    4581:	0f bf 55 fc          	movswl -0x4(%rbp),%edx
    4585:	8b 45 f8             	mov    -0x8(%rbp),%eax
    4588:	89 c1                	mov    %eax,%ecx
    458a:	d3 fa                	sar    %cl,%edx
    458c:	89 d0                	mov    %edx,%eax
    458e:	eb 04                	jmp    4594 <safe_rshift_func_int16_t_s_u+0x31>
    4590:	0f b7 45 fc          	movzwl -0x4(%rbp),%eax
    4594:	5d                   	pop    %rbp
    4595:	c3                   	retq   

0000000000004596 <safe_unary_minus_func_int32_t_s>:
    4596:	f3 0f 1e fa          	endbr64 
    459a:	55                   	push   %rbp
    459b:	48 89 e5             	mov    %rsp,%rbp
    459e:	89 7d fc             	mov    %edi,-0x4(%rbp)
    45a1:	81 7d fc 00 00 00 80 	cmpl   $0x80000000,-0x4(%rbp)
    45a8:	74 07                	je     45b1 <safe_unary_minus_func_int32_t_s+0x1b>
    45aa:	8b 45 fc             	mov    -0x4(%rbp),%eax
    45ad:	f7 d8                	neg    %eax
    45af:	eb 03                	jmp    45b4 <safe_unary_minus_func_int32_t_s+0x1e>
    45b1:	8b 45 fc             	mov    -0x4(%rbp),%eax
    45b4:	5d                   	pop    %rbp
    45b5:	c3                   	retq   

00000000000045b6 <safe_add_func_int32_t_s_s>:
    45b6:	f3 0f 1e fa          	endbr64 
    45ba:	55                   	push   %rbp
    45bb:	48 89 e5             	mov    %rsp,%rbp
    45be:	89 7d fc             	mov    %edi,-0x4(%rbp)
    45c1:	89 75 f8             	mov    %esi,-0x8(%rbp)
    45c4:	83 7d fc 00          	cmpl   $0x0,-0x4(%rbp)
    45c8:	7e 13                	jle    45dd <safe_add_func_int32_t_s_s+0x27>
    45ca:	83 7d f8 00          	cmpl   $0x0,-0x8(%rbp)
    45ce:	7e 0d                	jle    45dd <safe_add_func_int32_t_s_s+0x27>
    45d0:	b8 ff ff ff 7f       	mov    $0x7fffffff,%eax
    45d5:	2b 45 f8             	sub    -0x8(%rbp),%eax
    45d8:	39 45 fc             	cmp    %eax,-0x4(%rbp)
    45db:	7f 23                	jg     4600 <safe_add_func_int32_t_s_s+0x4a>
    45dd:	83 7d fc 00          	cmpl   $0x0,-0x4(%rbp)
    45e1:	79 13                	jns    45f6 <safe_add_func_int32_t_s_s+0x40>
    45e3:	83 7d f8 00          	cmpl   $0x0,-0x8(%rbp)
    45e7:	79 0d                	jns    45f6 <safe_add_func_int32_t_s_s+0x40>
    45e9:	b8 00 00 00 80       	mov    $0x80000000,%eax
    45ee:	2b 45 f8             	sub    -0x8(%rbp),%eax
    45f1:	39 45 fc             	cmp    %eax,-0x4(%rbp)
    45f4:	7c 0a                	jl     4600 <safe_add_func_int32_t_s_s+0x4a>
    45f6:	8b 55 fc             	mov    -0x4(%rbp),%edx
    45f9:	8b 45 f8             	mov    -0x8(%rbp),%eax
    45fc:	01 d0                	add    %edx,%eax
    45fe:	eb 03                	jmp    4603 <safe_add_func_int32_t_s_s+0x4d>
    4600:	8b 45 fc             	mov    -0x4(%rbp),%eax
    4603:	5d                   	pop    %rbp
    4604:	c3                   	retq   

0000000000004605 <safe_sub_func_int32_t_s_s>:
    4605:	f3 0f 1e fa          	endbr64 
    4609:	55                   	push   %rbp
    460a:	48 89 e5             	mov    %rsp,%rbp
    460d:	89 7d fc             	mov    %edi,-0x4(%rbp)
    4610:	89 75 f8             	mov    %esi,-0x8(%rbp)
    4613:	8b 45 fc             	mov    -0x4(%rbp),%eax
    4616:	33 45 f8             	xor    -0x8(%rbp),%eax
    4619:	89 c2                	mov    %eax,%edx
    461b:	8b 45 fc             	mov    -0x4(%rbp),%eax
    461e:	33 45 f8             	xor    -0x8(%rbp),%eax
    4621:	25 00 00 00 80       	and    $0x80000000,%eax
    4626:	33 45 fc             	xor    -0x4(%rbp),%eax
    4629:	2b 45 f8             	sub    -0x8(%rbp),%eax
    462c:	33 45 f8             	xor    -0x8(%rbp),%eax
    462f:	21 d0                	and    %edx,%eax
    4631:	85 c0                	test   %eax,%eax
    4633:	78 08                	js     463d <safe_sub_func_int32_t_s_s+0x38>
    4635:	8b 45 fc             	mov    -0x4(%rbp),%eax
    4638:	2b 45 f8             	sub    -0x8(%rbp),%eax
    463b:	eb 03                	jmp    4640 <safe_sub_func_int32_t_s_s+0x3b>
    463d:	8b 45 fc             	mov    -0x4(%rbp),%eax
    4640:	5d                   	pop    %rbp
    4641:	c3                   	retq   

0000000000004642 <safe_mul_func_int32_t_s_s>:
    4642:	f3 0f 1e fa          	endbr64 
    4646:	55                   	push   %rbp
    4647:	48 89 e5             	mov    %rsp,%rbp
    464a:	89 7d fc             	mov    %edi,-0x4(%rbp)
    464d:	89 75 f8             	mov    %esi,-0x8(%rbp)
    4650:	83 7d fc 00          	cmpl   $0x0,-0x4(%rbp)
    4654:	7e 14                	jle    466a <safe_mul_func_int32_t_s_s+0x28>
    4656:	83 7d f8 00          	cmpl   $0x0,-0x8(%rbp)
    465a:	7e 0e                	jle    466a <safe_mul_func_int32_t_s_s+0x28>
    465c:	b8 ff ff ff 7f       	mov    $0x7fffffff,%eax
    4661:	99                   	cltd   
    4662:	f7 7d f8             	idivl  -0x8(%rbp)
    4665:	39 45 fc             	cmp    %eax,-0x4(%rbp)
    4668:	7f 5d                	jg     46c7 <safe_mul_func_int32_t_s_s+0x85>
    466a:	83 7d fc 00          	cmpl   $0x0,-0x4(%rbp)
    466e:	7e 14                	jle    4684 <safe_mul_func_int32_t_s_s+0x42>
    4670:	83 7d f8 00          	cmpl   $0x0,-0x8(%rbp)
    4674:	7f 0e                	jg     4684 <safe_mul_func_int32_t_s_s+0x42>
    4676:	b8 00 00 00 80       	mov    $0x80000000,%eax
    467b:	99                   	cltd   
    467c:	f7 7d fc             	idivl  -0x4(%rbp)
    467f:	39 45 f8             	cmp    %eax,-0x8(%rbp)
    4682:	7c 43                	jl     46c7 <safe_mul_func_int32_t_s_s+0x85>
    4684:	83 7d fc 00          	cmpl   $0x0,-0x4(%rbp)
    4688:	7f 14                	jg     469e <safe_mul_func_int32_t_s_s+0x5c>
    468a:	83 7d f8 00          	cmpl   $0x0,-0x8(%rbp)
    468e:	7e 0e                	jle    469e <safe_mul_func_int32_t_s_s+0x5c>
    4690:	b8 00 00 00 80       	mov    $0x80000000,%eax
    4695:	99                   	cltd   
    4696:	f7 7d f8             	idivl  -0x8(%rbp)
    4699:	39 45 fc             	cmp    %eax,-0x4(%rbp)
    469c:	7c 29                	jl     46c7 <safe_mul_func_int32_t_s_s+0x85>
    469e:	83 7d fc 00          	cmpl   $0x0,-0x4(%rbp)
    46a2:	7f 1a                	jg     46be <safe_mul_func_int32_t_s_s+0x7c>
    46a4:	83 7d f8 00          	cmpl   $0x0,-0x8(%rbp)
    46a8:	7f 14                	jg     46be <safe_mul_func_int32_t_s_s+0x7c>
    46aa:	83 7d fc 00          	cmpl   $0x0,-0x4(%rbp)
    46ae:	74 0e                	je     46be <safe_mul_func_int32_t_s_s+0x7c>
    46b0:	b8 ff ff ff 7f       	mov    $0x7fffffff,%eax
    46b5:	99                   	cltd   
    46b6:	f7 7d fc             	idivl  -0x4(%rbp)
    46b9:	39 45 f8             	cmp    %eax,-0x8(%rbp)
    46bc:	7c 09                	jl     46c7 <safe_mul_func_int32_t_s_s+0x85>
    46be:	8b 45 fc             	mov    -0x4(%rbp),%eax
    46c1:	0f af 45 f8          	imul   -0x8(%rbp),%eax
    46c5:	eb 03                	jmp    46ca <safe_mul_func_int32_t_s_s+0x88>
    46c7:	8b 45 fc             	mov    -0x4(%rbp),%eax
    46ca:	5d                   	pop    %rbp
    46cb:	c3                   	retq   

00000000000046cc <safe_mod_func_int32_t_s_s>:
    46cc:	f3 0f 1e fa          	endbr64 
    46d0:	55                   	push   %rbp
    46d1:	48 89 e5             	mov    %rsp,%rbp
    46d4:	89 7d fc             	mov    %edi,-0x4(%rbp)
    46d7:	89 75 f8             	mov    %esi,-0x8(%rbp)
    46da:	83 7d f8 00          	cmpl   $0x0,-0x8(%rbp)
    46de:	74 1a                	je     46fa <safe_mod_func_int32_t_s_s+0x2e>
    46e0:	81 7d fc 00 00 00 80 	cmpl   $0x80000000,-0x4(%rbp)
    46e7:	75 06                	jne    46ef <safe_mod_func_int32_t_s_s+0x23>
    46e9:	83 7d f8 ff          	cmpl   $0xffffffff,-0x8(%rbp)
    46ed:	74 0b                	je     46fa <safe_mod_func_int32_t_s_s+0x2e>
    46ef:	8b 45 fc             	mov    -0x4(%rbp),%eax
    46f2:	99                   	cltd   
    46f3:	f7 7d f8             	idivl  -0x8(%rbp)
    46f6:	89 d0                	mov    %edx,%eax
    46f8:	eb 03                	jmp    46fd <safe_mod_func_int32_t_s_s+0x31>
    46fa:	8b 45 fc             	mov    -0x4(%rbp),%eax
    46fd:	5d                   	pop    %rbp
    46fe:	c3                   	retq   

00000000000046ff <safe_div_func_int32_t_s_s>:
    46ff:	f3 0f 1e fa          	endbr64 
    4703:	55                   	push   %rbp
    4704:	48 89 e5             	mov    %rsp,%rbp
    4707:	89 7d fc             	mov    %edi,-0x4(%rbp)
    470a:	89 75 f8             	mov    %esi,-0x8(%rbp)
    470d:	83 7d f8 00          	cmpl   $0x0,-0x8(%rbp)
    4711:	74 18                	je     472b <safe_div_func_int32_t_s_s+0x2c>
    4713:	81 7d fc 00 00 00 80 	cmpl   $0x80000000,-0x4(%rbp)
    471a:	75 06                	jne    4722 <safe_div_func_int32_t_s_s+0x23>
    471c:	83 7d f8 ff          	cmpl   $0xffffffff,-0x8(%rbp)
    4720:	74 09                	je     472b <safe_div_func_int32_t_s_s+0x2c>
    4722:	8b 45 fc             	mov    -0x4(%rbp),%eax
    4725:	99                   	cltd   
    4726:	f7 7d f8             	idivl  -0x8(%rbp)
    4729:	eb 03                	jmp    472e <safe_div_func_int32_t_s_s+0x2f>
    472b:	8b 45 fc             	mov    -0x4(%rbp),%eax
    472e:	5d                   	pop    %rbp
    472f:	c3                   	retq   

0000000000004730 <safe_lshift_func_int32_t_s_s>:
    4730:	f3 0f 1e fa          	endbr64 
    4734:	55                   	push   %rbp
    4735:	48 89 e5             	mov    %rsp,%rbp
    4738:	89 7d fc             	mov    %edi,-0x4(%rbp)
    473b:	89 75 f8             	mov    %esi,-0x8(%rbp)
    473e:	83 7d fc 00          	cmpl   $0x0,-0x4(%rbp)
    4742:	78 2d                	js     4771 <safe_lshift_func_int32_t_s_s+0x41>
    4744:	83 7d f8 00          	cmpl   $0x0,-0x8(%rbp)
    4748:	78 27                	js     4771 <safe_lshift_func_int32_t_s_s+0x41>
    474a:	83 7d f8 1f          	cmpl   $0x1f,-0x8(%rbp)
    474e:	7f 21                	jg     4771 <safe_lshift_func_int32_t_s_s+0x41>
    4750:	8b 45 f8             	mov    -0x8(%rbp),%eax
    4753:	ba ff ff ff 7f       	mov    $0x7fffffff,%edx
    4758:	89 c1                	mov    %eax,%ecx
    475a:	d3 fa                	sar    %cl,%edx
    475c:	89 d0                	mov    %edx,%eax
    475e:	39 45 fc             	cmp    %eax,-0x4(%rbp)
    4761:	7f 0e                	jg     4771 <safe_lshift_func_int32_t_s_s+0x41>
    4763:	8b 45 f8             	mov    -0x8(%rbp),%eax
    4766:	8b 55 fc             	mov    -0x4(%rbp),%edx
    4769:	89 c1                	mov    %eax,%ecx
    476b:	d3 e2                	shl    %cl,%edx
    476d:	89 d0                	mov    %edx,%eax
    476f:	eb 03                	jmp    4774 <safe_lshift_func_int32_t_s_s+0x44>
    4771:	8b 45 fc             	mov    -0x4(%rbp),%eax
    4774:	5d                   	pop    %rbp
    4775:	c3                   	retq   

0000000000004776 <safe_lshift_func_int32_t_s_u>:
    4776:	f3 0f 1e fa          	endbr64 
    477a:	55                   	push   %rbp
    477b:	48 89 e5             	mov    %rsp,%rbp
    477e:	89 7d fc             	mov    %edi,-0x4(%rbp)
    4781:	89 75 f8             	mov    %esi,-0x8(%rbp)
    4784:	83 7d fc 00          	cmpl   $0x0,-0x4(%rbp)
    4788:	78 27                	js     47b1 <safe_lshift_func_int32_t_s_u+0x3b>
    478a:	83 7d f8 1f          	cmpl   $0x1f,-0x8(%rbp)
    478e:	77 21                	ja     47b1 <safe_lshift_func_int32_t_s_u+0x3b>
    4790:	8b 45 f8             	mov    -0x8(%rbp),%eax
    4793:	ba ff ff ff 7f       	mov    $0x7fffffff,%edx
    4798:	89 c1                	mov    %eax,%ecx
    479a:	d3 fa                	sar    %cl,%edx
    479c:	89 d0                	mov    %edx,%eax
    479e:	39 45 fc             	cmp    %eax,-0x4(%rbp)
    47a1:	7f 0e                	jg     47b1 <safe_lshift_func_int32_t_s_u+0x3b>
    47a3:	8b 45 f8             	mov    -0x8(%rbp),%eax
    47a6:	8b 55 fc             	mov    -0x4(%rbp),%edx
    47a9:	89 c1                	mov    %eax,%ecx
    47ab:	d3 e2                	shl    %cl,%edx
    47ad:	89 d0                	mov    %edx,%eax
    47af:	eb 03                	jmp    47b4 <safe_lshift_func_int32_t_s_u+0x3e>
    47b1:	8b 45 fc             	mov    -0x4(%rbp),%eax
    47b4:	5d                   	pop    %rbp
    47b5:	c3                   	retq   

00000000000047b6 <safe_rshift_func_int32_t_s_s>:
    47b6:	f3 0f 1e fa          	endbr64 
    47ba:	55                   	push   %rbp
    47bb:	48 89 e5             	mov    %rsp,%rbp
    47be:	89 7d fc             	mov    %edi,-0x4(%rbp)
    47c1:	89 75 f8             	mov    %esi,-0x8(%rbp)
    47c4:	83 7d fc 00          	cmpl   $0x0,-0x4(%rbp)
    47c8:	78 1a                	js     47e4 <safe_rshift_func_int32_t_s_s+0x2e>
    47ca:	83 7d f8 00          	cmpl   $0x0,-0x8(%rbp)
    47ce:	78 14                	js     47e4 <safe_rshift_func_int32_t_s_s+0x2e>
    47d0:	83 7d f8 1f          	cmpl   $0x1f,-0x8(%rbp)
    47d4:	7f 0e                	jg     47e4 <safe_rshift_func_int32_t_s_s+0x2e>
    47d6:	8b 45 f8             	mov    -0x8(%rbp),%eax
    47d9:	8b 55 fc             	mov    -0x4(%rbp),%edx
    47dc:	89 c1                	mov    %eax,%ecx
    47de:	d3 fa                	sar    %cl,%edx
    47e0:	89 d0                	mov    %edx,%eax
    47e2:	eb 03                	jmp    47e7 <safe_rshift_func_int32_t_s_s+0x31>
    47e4:	8b 45 fc             	mov    -0x4(%rbp),%eax
    47e7:	5d                   	pop    %rbp
    47e8:	c3                   	retq   

00000000000047e9 <safe_rshift_func_int32_t_s_u>:
    47e9:	f3 0f 1e fa          	endbr64 
    47ed:	55                   	push   %rbp
    47ee:	48 89 e5             	mov    %rsp,%rbp
    47f1:	89 7d fc             	mov    %edi,-0x4(%rbp)
    47f4:	89 75 f8             	mov    %esi,-0x8(%rbp)
    47f7:	83 7d fc 00          	cmpl   $0x0,-0x4(%rbp)
    47fb:	78 14                	js     4811 <safe_rshift_func_int32_t_s_u+0x28>
    47fd:	83 7d f8 1f          	cmpl   $0x1f,-0x8(%rbp)
    4801:	77 0e                	ja     4811 <safe_rshift_func_int32_t_s_u+0x28>
    4803:	8b 45 f8             	mov    -0x8(%rbp),%eax
    4806:	8b 55 fc             	mov    -0x4(%rbp),%edx
    4809:	89 c1                	mov    %eax,%ecx
    480b:	d3 fa                	sar    %cl,%edx
    480d:	89 d0                	mov    %edx,%eax
    480f:	eb 03                	jmp    4814 <safe_rshift_func_int32_t_s_u+0x2b>
    4811:	8b 45 fc             	mov    -0x4(%rbp),%eax
    4814:	5d                   	pop    %rbp
    4815:	c3                   	retq   

0000000000004816 <safe_unary_minus_func_int64_t_s>:
    4816:	f3 0f 1e fa          	endbr64 
    481a:	55                   	push   %rbp
    481b:	48 89 e5             	mov    %rsp,%rbp
    481e:	48 89 7d f8          	mov    %rdi,-0x8(%rbp)
    4822:	48 b8 00 00 00 00 00 	movabs $0x8000000000000000,%rax
    4829:	00 00 80 
    482c:	48 39 45 f8          	cmp    %rax,-0x8(%rbp)
    4830:	74 09                	je     483b <safe_unary_minus_func_int64_t_s+0x25>
    4832:	48 8b 45 f8          	mov    -0x8(%rbp),%rax
    4836:	48 f7 d8             	neg    %rax
    4839:	eb 04                	jmp    483f <safe_unary_minus_func_int64_t_s+0x29>
    483b:	48 8b 45 f8          	mov    -0x8(%rbp),%rax
    483f:	5d                   	pop    %rbp
    4840:	c3                   	retq   

0000000000004841 <safe_add_func_int64_t_s_s>:
    4841:	f3 0f 1e fa          	endbr64 
    4845:	55                   	push   %rbp
    4846:	48 89 e5             	mov    %rsp,%rbp
    4849:	48 89 7d f8          	mov    %rdi,-0x8(%rbp)
    484d:	48 89 75 f0          	mov    %rsi,-0x10(%rbp)
    4851:	48 83 7d f8 00       	cmpq   $0x0,-0x8(%rbp)
    4856:	7e 1b                	jle    4873 <safe_add_func_int64_t_s_s+0x32>
    4858:	48 83 7d f0 00       	cmpq   $0x0,-0x10(%rbp)
    485d:	7e 14                	jle    4873 <safe_add_func_int64_t_s_s+0x32>
    485f:	48 b8 ff ff ff ff ff 	movabs $0x7fffffffffffffff,%rax
    4866:	ff ff 7f 
    4869:	48 2b 45 f0          	sub    -0x10(%rbp),%rax
    486d:	48 39 45 f8          	cmp    %rax,-0x8(%rbp)
    4871:	7f 2f                	jg     48a2 <safe_add_func_int64_t_s_s+0x61>
    4873:	48 83 7d f8 00       	cmpq   $0x0,-0x8(%rbp)
    4878:	79 1b                	jns    4895 <safe_add_func_int64_t_s_s+0x54>
    487a:	48 83 7d f0 00       	cmpq   $0x0,-0x10(%rbp)
    487f:	79 14                	jns    4895 <safe_add_func_int64_t_s_s+0x54>
    4881:	48 b8 00 00 00 00 00 	movabs $0x8000000000000000,%rax
    4888:	00 00 80 
    488b:	48 2b 45 f0          	sub    -0x10(%rbp),%rax
    488f:	48 39 45 f8          	cmp    %rax,-0x8(%rbp)
    4893:	7c 0d                	jl     48a2 <safe_add_func_int64_t_s_s+0x61>
    4895:	48 8b 55 f8          	mov    -0x8(%rbp),%rdx
    4899:	48 8b 45 f0          	mov    -0x10(%rbp),%rax
    489d:	48 01 d0             	add    %rdx,%rax
    48a0:	eb 04                	jmp    48a6 <safe_add_func_int64_t_s_s+0x65>
    48a2:	48 8b 45 f8          	mov    -0x8(%rbp),%rax
    48a6:	5d                   	pop    %rbp
    48a7:	c3                   	retq   

00000000000048a8 <safe_sub_func_int64_t_s_s>:
    48a8:	f3 0f 1e fa          	endbr64 
    48ac:	55                   	push   %rbp
    48ad:	48 89 e5             	mov    %rsp,%rbp
    48b0:	48 89 7d f8          	mov    %rdi,-0x8(%rbp)
    48b4:	48 89 75 f0          	mov    %rsi,-0x10(%rbp)
    48b8:	48 8b 45 f8          	mov    -0x8(%rbp),%rax
    48bc:	48 33 45 f0          	xor    -0x10(%rbp),%rax
    48c0:	48 89 c2             	mov    %rax,%rdx
    48c3:	48 8b 45 f8          	mov    -0x8(%rbp),%rax
    48c7:	48 33 45 f0          	xor    -0x10(%rbp),%rax
    48cb:	48 b9 00 00 00 00 00 	movabs $0x8000000000000000,%rcx
    48d2:	00 00 80 
    48d5:	48 21 c8             	and    %rcx,%rax
    48d8:	48 33 45 f8          	xor    -0x8(%rbp),%rax
    48dc:	48 2b 45 f0          	sub    -0x10(%rbp),%rax
    48e0:	48 33 45 f0          	xor    -0x10(%rbp),%rax
    48e4:	48 21 d0             	and    %rdx,%rax
    48e7:	48 85 c0             	test   %rax,%rax
    48ea:	78 0a                	js     48f6 <safe_sub_func_int64_t_s_s+0x4e>
    48ec:	48 8b 45 f8          	mov    -0x8(%rbp),%rax
    48f0:	48 2b 45 f0          	sub    -0x10(%rbp),%rax
    48f4:	eb 04                	jmp    48fa <safe_sub_func_int64_t_s_s+0x52>
    48f6:	48 8b 45 f8          	mov    -0x8(%rbp),%rax
    48fa:	5d                   	pop    %rbp
    48fb:	c3                   	retq   

00000000000048fc <safe_mul_func_int64_t_s_s>:
    48fc:	f3 0f 1e fa          	endbr64 
    4900:	55                   	push   %rbp
    4901:	48 89 e5             	mov    %rsp,%rbp
    4904:	48 89 7d f8          	mov    %rdi,-0x8(%rbp)
    4908:	48 89 75 f0          	mov    %rsi,-0x10(%rbp)
    490c:	48 83 7d f8 00       	cmpq   $0x0,-0x8(%rbp)
    4911:	7e 1d                	jle    4930 <safe_mul_func_int64_t_s_s+0x34>
    4913:	48 83 7d f0 00       	cmpq   $0x0,-0x10(%rbp)
    4918:	7e 16                	jle    4930 <safe_mul_func_int64_t_s_s+0x34>
    491a:	48 b8 ff ff ff ff ff 	movabs $0x7fffffffffffffff,%rax
    4921:	ff ff 7f 
    4924:	48 99                	cqto   
    4926:	48 f7 7d f0          	idivq  -0x10(%rbp)
    492a:	48 39 45 f8          	cmp    %rax,-0x8(%rbp)
    492e:	7f 7e                	jg     49ae <safe_mul_func_int64_t_s_s+0xb2>
    4930:	48 83 7d f8 00       	cmpq   $0x0,-0x8(%rbp)
    4935:	7e 1d                	jle    4954 <safe_mul_func_int64_t_s_s+0x58>
    4937:	48 83 7d f0 00       	cmpq   $0x0,-0x10(%rbp)
    493c:	7f 16                	jg     4954 <safe_mul_func_int64_t_s_s+0x58>
    493e:	48 b8 00 00 00 00 00 	movabs $0x8000000000000000,%rax
    4945:	00 00 80 
    4948:	48 99                	cqto   
    494a:	48 f7 7d f8          	idivq  -0x8(%rbp)
    494e:	48 39 45 f0          	cmp    %rax,-0x10(%rbp)
    4952:	7c 5a                	jl     49ae <safe_mul_func_int64_t_s_s+0xb2>
    4954:	48 83 7d f8 00       	cmpq   $0x0,-0x8(%rbp)
    4959:	7f 1d                	jg     4978 <safe_mul_func_int64_t_s_s+0x7c>
    495b:	48 83 7d f0 00       	cmpq   $0x0,-0x10(%rbp)
    4960:	7e 16                	jle    4978 <safe_mul_func_int64_t_s_s+0x7c>
    4962:	48 b8 00 00 00 00 00 	movabs $0x8000000000000000,%rax
    4969:	00 00 80 
    496c:	48 99                	cqto   
    496e:	48 f7 7d f0          	idivq  -0x10(%rbp)
    4972:	48 39 45 f8          	cmp    %rax,-0x8(%rbp)
    4976:	7c 36                	jl     49ae <safe_mul_func_int64_t_s_s+0xb2>
    4978:	48 83 7d f8 00       	cmpq   $0x0,-0x8(%rbp)
    497d:	7f 24                	jg     49a3 <safe_mul_func_int64_t_s_s+0xa7>
    497f:	48 83 7d f0 00       	cmpq   $0x0,-0x10(%rbp)
    4984:	7f 1d                	jg     49a3 <safe_mul_func_int64_t_s_s+0xa7>
    4986:	48 83 7d f8 00       	cmpq   $0x0,-0x8(%rbp)
    498b:	74 16                	je     49a3 <safe_mul_func_int64_t_s_s+0xa7>
    498d:	48 b8 ff ff ff ff ff 	movabs $0x7fffffffffffffff,%rax
    4994:	ff ff 7f 
    4997:	48 99                	cqto   
    4999:	48 f7 7d f8          	idivq  -0x8(%rbp)
    499d:	48 39 45 f0          	cmp    %rax,-0x10(%rbp)
    49a1:	7c 0b                	jl     49ae <safe_mul_func_int64_t_s_s+0xb2>
    49a3:	48 8b 45 f8          	mov    -0x8(%rbp),%rax
    49a7:	48 0f af 45 f0       	imul   -0x10(%rbp),%rax
    49ac:	eb 04                	jmp    49b2 <safe_mul_func_int64_t_s_s+0xb6>
    49ae:	48 8b 45 f8          	mov    -0x8(%rbp),%rax
    49b2:	5d                   	pop    %rbp
    49b3:	c3                   	retq   

00000000000049b4 <safe_mod_func_int64_t_s_s>:
    49b4:	f3 0f 1e fa          	endbr64 
    49b8:	55                   	push   %rbp
    49b9:	48 89 e5             	mov    %rsp,%rbp
    49bc:	48 89 7d f8          	mov    %rdi,-0x8(%rbp)
    49c0:	48 89 75 f0          	mov    %rsi,-0x10(%rbp)
    49c4:	48 83 7d f0 00       	cmpq   $0x0,-0x10(%rbp)
    49c9:	74 26                	je     49f1 <safe_mod_func_int64_t_s_s+0x3d>
    49cb:	48 b8 00 00 00 00 00 	movabs $0x8000000000000000,%rax
    49d2:	00 00 80 
    49d5:	48 39 45 f8          	cmp    %rax,-0x8(%rbp)
    49d9:	75 07                	jne    49e2 <safe_mod_func_int64_t_s_s+0x2e>
    49db:	48 83 7d f0 ff       	cmpq   $0xffffffffffffffff,-0x10(%rbp)
    49e0:	74 0f                	je     49f1 <safe_mod_func_int64_t_s_s+0x3d>
    49e2:	48 8b 45 f8          	mov    -0x8(%rbp),%rax
    49e6:	48 99                	cqto   
    49e8:	48 f7 7d f0          	idivq  -0x10(%rbp)
    49ec:	48 89 d0             	mov    %rdx,%rax
    49ef:	eb 04                	jmp    49f5 <safe_mod_func_int64_t_s_s+0x41>
    49f1:	48 8b 45 f8          	mov    -0x8(%rbp),%rax
    49f5:	5d                   	pop    %rbp
    49f6:	c3                   	retq   

00000000000049f7 <safe_div_func_int64_t_s_s>:
    49f7:	f3 0f 1e fa          	endbr64 
    49fb:	55                   	push   %rbp
    49fc:	48 89 e5             	mov    %rsp,%rbp
    49ff:	48 89 7d f8          	mov    %rdi,-0x8(%rbp)
    4a03:	48 89 75 f0          	mov    %rsi,-0x10(%rbp)
    4a07:	48 83 7d f0 00       	cmpq   $0x0,-0x10(%rbp)
    4a0c:	74 23                	je     4a31 <safe_div_func_int64_t_s_s+0x3a>
    4a0e:	48 b8 00 00 00 00 00 	movabs $0x8000000000000000,%rax
    4a15:	00 00 80 
    4a18:	48 39 45 f8          	cmp    %rax,-0x8(%rbp)
    4a1c:	75 07                	jne    4a25 <safe_div_func_int64_t_s_s+0x2e>
    4a1e:	48 83 7d f0 ff       	cmpq   $0xffffffffffffffff,-0x10(%rbp)
    4a23:	74 0c                	je     4a31 <safe_div_func_int64_t_s_s+0x3a>
    4a25:	48 8b 45 f8          	mov    -0x8(%rbp),%rax
    4a29:	48 99                	cqto   
    4a2b:	48 f7 7d f0          	idivq  -0x10(%rbp)
    4a2f:	eb 04                	jmp    4a35 <safe_div_func_int64_t_s_s+0x3e>
    4a31:	48 8b 45 f8          	mov    -0x8(%rbp),%rax
    4a35:	5d                   	pop    %rbp
    4a36:	c3                   	retq   

0000000000004a37 <safe_lshift_func_int64_t_s_s>:
    4a37:	f3 0f 1e fa          	endbr64 
    4a3b:	55                   	push   %rbp
    4a3c:	48 89 e5             	mov    %rsp,%rbp
    4a3f:	48 89 7d f8          	mov    %rdi,-0x8(%rbp)
    4a43:	89 75 f4             	mov    %esi,-0xc(%rbp)
    4a46:	48 83 7d f8 00       	cmpq   $0x0,-0x8(%rbp)
    4a4b:	78 38                	js     4a85 <safe_lshift_func_int64_t_s_s+0x4e>
    4a4d:	83 7d f4 00          	cmpl   $0x0,-0xc(%rbp)
    4a51:	78 32                	js     4a85 <safe_lshift_func_int64_t_s_s+0x4e>
    4a53:	83 7d f4 1f          	cmpl   $0x1f,-0xc(%rbp)
    4a57:	7f 2c                	jg     4a85 <safe_lshift_func_int64_t_s_s+0x4e>
    4a59:	8b 45 f4             	mov    -0xc(%rbp),%eax
    4a5c:	48 ba ff ff ff ff ff 	movabs $0x7fffffffffffffff,%rdx
    4a63:	ff ff 7f 
    4a66:	89 c1                	mov    %eax,%ecx
    4a68:	48 d3 fa             	sar    %cl,%rdx
    4a6b:	48 89 d0             	mov    %rdx,%rax
    4a6e:	48 39 45 f8          	cmp    %rax,-0x8(%rbp)
    4a72:	7f 11                	jg     4a85 <safe_lshift_func_int64_t_s_s+0x4e>
    4a74:	8b 45 f4             	mov    -0xc(%rbp),%eax
    4a77:	48 8b 55 f8          	mov    -0x8(%rbp),%rdx
    4a7b:	89 c1                	mov    %eax,%ecx
    4a7d:	48 d3 e2             	shl    %cl,%rdx
    4a80:	48 89 d0             	mov    %rdx,%rax
    4a83:	eb 04                	jmp    4a89 <safe_lshift_func_int64_t_s_s+0x52>
    4a85:	48 8b 45 f8          	mov    -0x8(%rbp),%rax
    4a89:	5d                   	pop    %rbp
    4a8a:	c3                   	retq   

0000000000004a8b <safe_lshift_func_int64_t_s_u>:
    4a8b:	f3 0f 1e fa          	endbr64 
    4a8f:	55                   	push   %rbp
    4a90:	48 89 e5             	mov    %rsp,%rbp
    4a93:	48 89 7d f8          	mov    %rdi,-0x8(%rbp)
    4a97:	89 75 f4             	mov    %esi,-0xc(%rbp)
    4a9a:	48 83 7d f8 00       	cmpq   $0x0,-0x8(%rbp)
    4a9f:	78 32                	js     4ad3 <safe_lshift_func_int64_t_s_u+0x48>
    4aa1:	83 7d f4 1f          	cmpl   $0x1f,-0xc(%rbp)
    4aa5:	77 2c                	ja     4ad3 <safe_lshift_func_int64_t_s_u+0x48>
    4aa7:	8b 45 f4             	mov    -0xc(%rbp),%eax
    4aaa:	48 ba ff ff ff ff ff 	movabs $0x7fffffffffffffff,%rdx
    4ab1:	ff ff 7f 
    4ab4:	89 c1                	mov    %eax,%ecx
    4ab6:	48 d3 fa             	sar    %cl,%rdx
    4ab9:	48 89 d0             	mov    %rdx,%rax
    4abc:	48 39 45 f8          	cmp    %rax,-0x8(%rbp)
    4ac0:	7f 11                	jg     4ad3 <safe_lshift_func_int64_t_s_u+0x48>
    4ac2:	8b 45 f4             	mov    -0xc(%rbp),%eax
    4ac5:	48 8b 55 f8          	mov    -0x8(%rbp),%rdx
    4ac9:	89 c1                	mov    %eax,%ecx
    4acb:	48 d3 e2             	shl    %cl,%rdx
    4ace:	48 89 d0             	mov    %rdx,%rax
    4ad1:	eb 04                	jmp    4ad7 <safe_lshift_func_int64_t_s_u+0x4c>
    4ad3:	48 8b 45 f8          	mov    -0x8(%rbp),%rax
    4ad7:	5d                   	pop    %rbp
    4ad8:	c3                   	retq   

0000000000004ad9 <safe_rshift_func_int64_t_s_s>:
    4ad9:	f3 0f 1e fa          	endbr64 
    4add:	55                   	push   %rbp
    4ade:	48 89 e5             	mov    %rsp,%rbp
    4ae1:	48 89 7d f8          	mov    %rdi,-0x8(%rbp)
    4ae5:	89 75 f4             	mov    %esi,-0xc(%rbp)
    4ae8:	48 83 7d f8 00       	cmpq   $0x0,-0x8(%rbp)
    4aed:	78 1d                	js     4b0c <safe_rshift_func_int64_t_s_s+0x33>
    4aef:	83 7d f4 00          	cmpl   $0x0,-0xc(%rbp)
    4af3:	78 17                	js     4b0c <safe_rshift_func_int64_t_s_s+0x33>
    4af5:	83 7d f4 1f          	cmpl   $0x1f,-0xc(%rbp)
    4af9:	7f 11                	jg     4b0c <safe_rshift_func_int64_t_s_s+0x33>
    4afb:	8b 45 f4             	mov    -0xc(%rbp),%eax
    4afe:	48 8b 55 f8          	mov    -0x8(%rbp),%rdx
    4b02:	89 c1                	mov    %eax,%ecx
    4b04:	48 d3 fa             	sar    %cl,%rdx
    4b07:	48 89 d0             	mov    %rdx,%rax
    4b0a:	eb 04                	jmp    4b10 <safe_rshift_func_int64_t_s_s+0x37>
    4b0c:	48 8b 45 f8          	mov    -0x8(%rbp),%rax
    4b10:	5d                   	pop    %rbp
    4b11:	c3                   	retq   

0000000000004b12 <safe_rshift_func_int64_t_s_u>:
    4b12:	f3 0f 1e fa          	endbr64 
    4b16:	55                   	push   %rbp
    4b17:	48 89 e5             	mov    %rsp,%rbp
    4b1a:	48 89 7d f8          	mov    %rdi,-0x8(%rbp)
    4b1e:	89 75 f4             	mov    %esi,-0xc(%rbp)
    4b21:	48 83 7d f8 00       	cmpq   $0x0,-0x8(%rbp)
    4b26:	78 17                	js     4b3f <safe_rshift_func_int64_t_s_u+0x2d>
    4b28:	83 7d f4 1f          	cmpl   $0x1f,-0xc(%rbp)
    4b2c:	77 11                	ja     4b3f <safe_rshift_func_int64_t_s_u+0x2d>
    4b2e:	8b 45 f4             	mov    -0xc(%rbp),%eax
    4b31:	48 8b 55 f8          	mov    -0x8(%rbp),%rdx
    4b35:	89 c1                	mov    %eax,%ecx
    4b37:	48 d3 fa             	sar    %cl,%rdx
    4b3a:	48 89 d0             	mov    %rdx,%rax
    4b3d:	eb 04                	jmp    4b43 <safe_rshift_func_int64_t_s_u+0x31>
    4b3f:	48 8b 45 f8          	mov    -0x8(%rbp),%rax
    4b43:	5d                   	pop    %rbp
    4b44:	c3                   	retq   

0000000000004b45 <safe_unary_minus_func_uint8_t_u>:
    4b45:	f3 0f 1e fa          	endbr64 
    4b49:	55                   	push   %rbp
    4b4a:	48 89 e5             	mov    %rsp,%rbp
    4b4d:	89 f8                	mov    %edi,%eax
    4b4f:	88 45 fc             	mov    %al,-0x4(%rbp)
    4b52:	0f b6 45 fc          	movzbl -0x4(%rbp),%eax
    4b56:	f7 d8                	neg    %eax
    4b58:	5d                   	pop    %rbp
    4b59:	c3                   	retq   

0000000000004b5a <safe_add_func_uint8_t_u_u>:
    4b5a:	f3 0f 1e fa          	endbr64 
    4b5e:	55                   	push   %rbp
    4b5f:	48 89 e5             	mov    %rsp,%rbp
    4b62:	89 fa                	mov    %edi,%edx
    4b64:	89 f0                	mov    %esi,%eax
    4b66:	88 55 fc             	mov    %dl,-0x4(%rbp)
    4b69:	88 45 f8             	mov    %al,-0x8(%rbp)
    4b6c:	0f b6 55 fc          	movzbl -0x4(%rbp),%edx
    4b70:	0f b6 45 f8          	movzbl -0x8(%rbp),%eax
    4b74:	01 d0                	add    %edx,%eax
    4b76:	5d                   	pop    %rbp
    4b77:	c3                   	retq   

0000000000004b78 <safe_sub_func_uint8_t_u_u>:
    4b78:	f3 0f 1e fa          	endbr64 
    4b7c:	55                   	push   %rbp
    4b7d:	48 89 e5             	mov    %rsp,%rbp
    4b80:	89 fa                	mov    %edi,%edx
    4b82:	89 f0                	mov    %esi,%eax
    4b84:	88 55 fc             	mov    %dl,-0x4(%rbp)
    4b87:	88 45 f8             	mov    %al,-0x8(%rbp)
    4b8a:	0f b6 45 fc          	movzbl -0x4(%rbp),%eax
    4b8e:	2a 45 f8             	sub    -0x8(%rbp),%al
    4b91:	5d                   	pop    %rbp
    4b92:	c3                   	retq   

0000000000004b93 <safe_mul_func_uint8_t_u_u>:
    4b93:	f3 0f 1e fa          	endbr64 
    4b97:	55                   	push   %rbp
    4b98:	48 89 e5             	mov    %rsp,%rbp
    4b9b:	89 fa                	mov    %edi,%edx
    4b9d:	89 f0                	mov    %esi,%eax
    4b9f:	88 55 fc             	mov    %dl,-0x4(%rbp)
    4ba2:	88 45 f8             	mov    %al,-0x8(%rbp)
    4ba5:	0f b6 45 fc          	movzbl -0x4(%rbp),%eax
    4ba9:	f6 65 f8             	mulb   -0x8(%rbp)
    4bac:	5d                   	pop    %rbp
    4bad:	c3                   	retq   

0000000000004bae <safe_mod_func_uint8_t_u_u>:
    4bae:	f3 0f 1e fa          	endbr64 
    4bb2:	55                   	push   %rbp
    4bb3:	48 89 e5             	mov    %rsp,%rbp
    4bb6:	89 fa                	mov    %edi,%edx
    4bb8:	89 f0                	mov    %esi,%eax
    4bba:	88 55 fc             	mov    %dl,-0x4(%rbp)
    4bbd:	88 45 f8             	mov    %al,-0x8(%rbp)
    4bc0:	80 7d f8 00          	cmpb   $0x0,-0x8(%rbp)
    4bc4:	74 0f                	je     4bd5 <safe_mod_func_uint8_t_u_u+0x27>
    4bc6:	0f b6 45 fc          	movzbl -0x4(%rbp),%eax
    4bca:	0f b6 c0             	movzbl %al,%eax
    4bcd:	f6 75 f8             	divb   -0x8(%rbp)
    4bd0:	0f b6 c4             	movzbl %ah,%eax
    4bd3:	eb 04                	jmp    4bd9 <safe_mod_func_uint8_t_u_u+0x2b>
    4bd5:	0f b6 45 fc          	movzbl -0x4(%rbp),%eax
    4bd9:	5d                   	pop    %rbp
    4bda:	c3                   	retq   

0000000000004bdb <safe_div_func_uint8_t_u_u>:
    4bdb:	f3 0f 1e fa          	endbr64 
    4bdf:	55                   	push   %rbp
    4be0:	48 89 e5             	mov    %rsp,%rbp
    4be3:	89 fa                	mov    %edi,%edx
    4be5:	89 f0                	mov    %esi,%eax
    4be7:	88 55 fc             	mov    %dl,-0x4(%rbp)
    4bea:	88 45 f8             	mov    %al,-0x8(%rbp)
    4bed:	80 7d f8 00          	cmpb   $0x0,-0x8(%rbp)
    4bf1:	74 0c                	je     4bff <safe_div_func_uint8_t_u_u+0x24>
    4bf3:	0f b6 45 fc          	movzbl -0x4(%rbp),%eax
    4bf7:	0f b6 c0             	movzbl %al,%eax
    4bfa:	f6 75 f8             	divb   -0x8(%rbp)
    4bfd:	eb 04                	jmp    4c03 <safe_div_func_uint8_t_u_u+0x28>
    4bff:	0f b6 45 fc          	movzbl -0x4(%rbp),%eax
    4c03:	5d                   	pop    %rbp
    4c04:	c3                   	retq   

0000000000004c05 <safe_lshift_func_uint8_t_u_s>:
    4c05:	f3 0f 1e fa          	endbr64 
    4c09:	55                   	push   %rbp
    4c0a:	48 89 e5             	mov    %rsp,%rbp
    4c0d:	89 f8                	mov    %edi,%eax
    4c0f:	89 75 f8             	mov    %esi,-0x8(%rbp)
    4c12:	88 45 fc             	mov    %al,-0x4(%rbp)
    4c15:	83 7d f8 00          	cmpl   $0x0,-0x8(%rbp)
    4c19:	78 2b                	js     4c46 <safe_lshift_func_uint8_t_u_s+0x41>
    4c1b:	83 7d f8 1f          	cmpl   $0x1f,-0x8(%rbp)
    4c1f:	7f 25                	jg     4c46 <safe_lshift_func_uint8_t_u_s+0x41>
    4c21:	0f b6 55 fc          	movzbl -0x4(%rbp),%edx
    4c25:	8b 45 f8             	mov    -0x8(%rbp),%eax
    4c28:	be ff 00 00 00       	mov    $0xff,%esi
    4c2d:	89 c1                	mov    %eax,%ecx
    4c2f:	d3 fe                	sar    %cl,%esi
    4c31:	89 f0                	mov    %esi,%eax
    4c33:	39 c2                	cmp    %eax,%edx
    4c35:	7f 0f                	jg     4c46 <safe_lshift_func_uint8_t_u_s+0x41>
    4c37:	0f b6 55 fc          	movzbl -0x4(%rbp),%edx
    4c3b:	8b 45 f8             	mov    -0x8(%rbp),%eax
    4c3e:	89 c1                	mov    %eax,%ecx
    4c40:	d3 e2                	shl    %cl,%edx
    4c42:	89 d0                	mov    %edx,%eax
    4c44:	eb 04                	jmp    4c4a <safe_lshift_func_uint8_t_u_s+0x45>
    4c46:	0f b6 45 fc          	movzbl -0x4(%rbp),%eax
    4c4a:	5d                   	pop    %rbp
    4c4b:	c3                   	retq   

0000000000004c4c <safe_lshift_func_uint8_t_u_u>:
    4c4c:	f3 0f 1e fa          	endbr64 
    4c50:	55                   	push   %rbp
    4c51:	48 89 e5             	mov    %rsp,%rbp
    4c54:	89 f8                	mov    %edi,%eax
    4c56:	89 75 f8             	mov    %esi,-0x8(%rbp)
    4c59:	88 45 fc             	mov    %al,-0x4(%rbp)
    4c5c:	83 7d f8 1f          	cmpl   $0x1f,-0x8(%rbp)
    4c60:	77 25                	ja     4c87 <safe_lshift_func_uint8_t_u_u+0x3b>
    4c62:	0f b6 55 fc          	movzbl -0x4(%rbp),%edx
    4c66:	8b 45 f8             	mov    -0x8(%rbp),%eax
    4c69:	be ff 00 00 00       	mov    $0xff,%esi
    4c6e:	89 c1                	mov    %eax,%ecx
    4c70:	d3 fe                	sar    %cl,%esi
    4c72:	89 f0                	mov    %esi,%eax
    4c74:	39 c2                	cmp    %eax,%edx
    4c76:	7f 0f                	jg     4c87 <safe_lshift_func_uint8_t_u_u+0x3b>
    4c78:	0f b6 55 fc          	movzbl -0x4(%rbp),%edx
    4c7c:	8b 45 f8             	mov    -0x8(%rbp),%eax
    4c7f:	89 c1                	mov    %eax,%ecx
    4c81:	d3 e2                	shl    %cl,%edx
    4c83:	89 d0                	mov    %edx,%eax
    4c85:	eb 04                	jmp    4c8b <safe_lshift_func_uint8_t_u_u+0x3f>
    4c87:	0f b6 45 fc          	movzbl -0x4(%rbp),%eax
    4c8b:	5d                   	pop    %rbp
    4c8c:	c3                   	retq   

0000000000004c8d <safe_rshift_func_uint8_t_u_s>:
    4c8d:	f3 0f 1e fa          	endbr64 
    4c91:	55                   	push   %rbp
    4c92:	48 89 e5             	mov    %rsp,%rbp
    4c95:	89 f8                	mov    %edi,%eax
    4c97:	89 75 f8             	mov    %esi,-0x8(%rbp)
    4c9a:	88 45 fc             	mov    %al,-0x4(%rbp)
    4c9d:	83 7d f8 00          	cmpl   $0x0,-0x8(%rbp)
    4ca1:	78 15                	js     4cb8 <safe_rshift_func_uint8_t_u_s+0x2b>
    4ca3:	83 7d f8 1f          	cmpl   $0x1f,-0x8(%rbp)
    4ca7:	7f 0f                	jg     4cb8 <safe_rshift_func_uint8_t_u_s+0x2b>
    4ca9:	0f b6 55 fc          	movzbl -0x4(%rbp),%edx
    4cad:	8b 45 f8             	mov    -0x8(%rbp),%eax
    4cb0:	89 c1                	mov    %eax,%ecx
    4cb2:	d3 fa                	sar    %cl,%edx
    4cb4:	89 d0                	mov    %edx,%eax
    4cb6:	eb 04                	jmp    4cbc <safe_rshift_func_uint8_t_u_s+0x2f>
    4cb8:	0f b6 45 fc          	movzbl -0x4(%rbp),%eax
    4cbc:	5d                   	pop    %rbp
    4cbd:	c3                   	retq   

0000000000004cbe <safe_rshift_func_uint8_t_u_u>:
    4cbe:	f3 0f 1e fa          	endbr64 
    4cc2:	55                   	push   %rbp
    4cc3:	48 89 e5             	mov    %rsp,%rbp
    4cc6:	89 f8                	mov    %edi,%eax
    4cc8:	89 75 f8             	mov    %esi,-0x8(%rbp)
    4ccb:	88 45 fc             	mov    %al,-0x4(%rbp)
    4cce:	83 7d f8 1f          	cmpl   $0x1f,-0x8(%rbp)
    4cd2:	77 0f                	ja     4ce3 <safe_rshift_func_uint8_t_u_u+0x25>
    4cd4:	0f b6 55 fc          	movzbl -0x4(%rbp),%edx
    4cd8:	8b 45 f8             	mov    -0x8(%rbp),%eax
    4cdb:	89 c1                	mov    %eax,%ecx
    4cdd:	d3 fa                	sar    %cl,%edx
    4cdf:	89 d0                	mov    %edx,%eax
    4ce1:	eb 04                	jmp    4ce7 <safe_rshift_func_uint8_t_u_u+0x29>
    4ce3:	0f b6 45 fc          	movzbl -0x4(%rbp),%eax
    4ce7:	5d                   	pop    %rbp
    4ce8:	c3                   	retq   

0000000000004ce9 <safe_unary_minus_func_uint16_t_u>:
    4ce9:	f3 0f 1e fa          	endbr64 
    4ced:	55                   	push   %rbp
    4cee:	48 89 e5             	mov    %rsp,%rbp
    4cf1:	89 f8                	mov    %edi,%eax
    4cf3:	66 89 45 fc          	mov    %ax,-0x4(%rbp)
    4cf7:	0f b7 45 fc          	movzwl -0x4(%rbp),%eax
    4cfb:	f7 d8                	neg    %eax
    4cfd:	5d                   	pop    %rbp
    4cfe:	c3                   	retq   

0000000000004cff <safe_add_func_uint16_t_u_u>:
    4cff:	f3 0f 1e fa          	endbr64 
    4d03:	55                   	push   %rbp
    4d04:	48 89 e5             	mov    %rsp,%rbp
    4d07:	89 fa                	mov    %edi,%edx
    4d09:	89 f0                	mov    %esi,%eax
    4d0b:	66 89 55 fc          	mov    %dx,-0x4(%rbp)
    4d0f:	66 89 45 f8          	mov    %ax,-0x8(%rbp)
    4d13:	0f b7 55 fc          	movzwl -0x4(%rbp),%edx
    4d17:	0f b7 45 f8          	movzwl -0x8(%rbp),%eax
    4d1b:	01 d0                	add    %edx,%eax
    4d1d:	5d                   	pop    %rbp
    4d1e:	c3                   	retq   

0000000000004d1f <safe_sub_func_uint16_t_u_u>:
    4d1f:	f3 0f 1e fa          	endbr64 
    4d23:	55                   	push   %rbp
    4d24:	48 89 e5             	mov    %rsp,%rbp
    4d27:	89 fa                	mov    %edi,%edx
    4d29:	89 f0                	mov    %esi,%eax
    4d2b:	66 89 55 fc          	mov    %dx,-0x4(%rbp)
    4d2f:	66 89 45 f8          	mov    %ax,-0x8(%rbp)
    4d33:	0f b7 45 fc          	movzwl -0x4(%rbp),%eax
    4d37:	66 2b 45 f8          	sub    -0x8(%rbp),%ax
    4d3b:	5d                   	pop    %rbp
    4d3c:	c3                   	retq   

0000000000004d3d <safe_mul_func_uint16_t_u_u>:
    4d3d:	f3 0f 1e fa          	endbr64 
    4d41:	55                   	push   %rbp
    4d42:	48 89 e5             	mov    %rsp,%rbp
    4d45:	89 fa                	mov    %edi,%edx
    4d47:	89 f0                	mov    %esi,%eax
    4d49:	66 89 55 fc          	mov    %dx,-0x4(%rbp)
    4d4d:	66 89 45 f8          	mov    %ax,-0x8(%rbp)
    4d51:	0f b7 45 fc          	movzwl -0x4(%rbp),%eax
    4d55:	66 0f af 45 f8       	imul   -0x8(%rbp),%ax
    4d5a:	5d                   	pop    %rbp
    4d5b:	c3                   	retq   

0000000000004d5c <safe_mod_func_uint16_t_u_u>:
    4d5c:	f3 0f 1e fa          	endbr64 
    4d60:	55                   	push   %rbp
    4d61:	48 89 e5             	mov    %rsp,%rbp
    4d64:	89 fa                	mov    %edi,%edx
    4d66:	89 f0                	mov    %esi,%eax
    4d68:	66 89 55 fc          	mov    %dx,-0x4(%rbp)
    4d6c:	66 89 45 f8          	mov    %ax,-0x8(%rbp)
    4d70:	66 83 7d f8 00       	cmpw   $0x0,-0x8(%rbp)
    4d75:	74 11                	je     4d88 <safe_mod_func_uint16_t_u_u+0x2c>
    4d77:	0f b7 45 fc          	movzwl -0x4(%rbp),%eax
    4d7b:	ba 00 00 00 00       	mov    $0x0,%edx
    4d80:	66 f7 75 f8          	divw   -0x8(%rbp)
    4d84:	89 d0                	mov    %edx,%eax
    4d86:	eb 04                	jmp    4d8c <safe_mod_func_uint16_t_u_u+0x30>
    4d88:	0f b7 45 fc          	movzwl -0x4(%rbp),%eax
    4d8c:	5d                   	pop    %rbp
    4d8d:	c3                   	retq   

0000000000004d8e <safe_div_func_uint16_t_u_u>:
    4d8e:	f3 0f 1e fa          	endbr64 
    4d92:	55                   	push   %rbp
    4d93:	48 89 e5             	mov    %rsp,%rbp
    4d96:	89 fa                	mov    %edi,%edx
    4d98:	89 f0                	mov    %esi,%eax
    4d9a:	66 89 55 fc          	mov    %dx,-0x4(%rbp)
    4d9e:	66 89 45 f8          	mov    %ax,-0x8(%rbp)
    4da2:	66 83 7d f8 00       	cmpw   $0x0,-0x8(%rbp)
    4da7:	74 0f                	je     4db8 <safe_div_func_uint16_t_u_u+0x2a>
    4da9:	0f b7 45 fc          	movzwl -0x4(%rbp),%eax
    4dad:	ba 00 00 00 00       	mov    $0x0,%edx
    4db2:	66 f7 75 f8          	divw   -0x8(%rbp)
    4db6:	eb 04                	jmp    4dbc <safe_div_func_uint16_t_u_u+0x2e>
    4db8:	0f b7 45 fc          	movzwl -0x4(%rbp),%eax
    4dbc:	5d                   	pop    %rbp
    4dbd:	c3                   	retq   

0000000000004dbe <safe_lshift_func_uint16_t_u_s>:
    4dbe:	f3 0f 1e fa          	endbr64 
    4dc2:	55                   	push   %rbp
    4dc3:	48 89 e5             	mov    %rsp,%rbp
    4dc6:	89 f8                	mov    %edi,%eax
    4dc8:	89 75 f8             	mov    %esi,-0x8(%rbp)
    4dcb:	66 89 45 fc          	mov    %ax,-0x4(%rbp)
    4dcf:	83 7d f8 00          	cmpl   $0x0,-0x8(%rbp)
    4dd3:	78 2b                	js     4e00 <safe_lshift_func_uint16_t_u_s+0x42>
    4dd5:	83 7d f8 1f          	cmpl   $0x1f,-0x8(%rbp)
    4dd9:	7f 25                	jg     4e00 <safe_lshift_func_uint16_t_u_s+0x42>
    4ddb:	0f b7 55 fc          	movzwl -0x4(%rbp),%edx
    4ddf:	8b 45 f8             	mov    -0x8(%rbp),%eax
    4de2:	be ff ff 00 00       	mov    $0xffff,%esi
    4de7:	89 c1                	mov    %eax,%ecx
    4de9:	d3 fe                	sar    %cl,%esi
    4deb:	89 f0                	mov    %esi,%eax
    4ded:	39 c2                	cmp    %eax,%edx
    4def:	7f 0f                	jg     4e00 <safe_lshift_func_uint16_t_u_s+0x42>
    4df1:	0f b7 55 fc          	movzwl -0x4(%rbp),%edx
    4df5:	8b 45 f8             	mov    -0x8(%rbp),%eax
    4df8:	89 c1                	mov    %eax,%ecx
    4dfa:	d3 e2                	shl    %cl,%edx
    4dfc:	89 d0                	mov    %edx,%eax
    4dfe:	eb 04                	jmp    4e04 <safe_lshift_func_uint16_t_u_s+0x46>
    4e00:	0f b7 45 fc          	movzwl -0x4(%rbp),%eax
    4e04:	5d                   	pop    %rbp
    4e05:	c3                   	retq   

0000000000004e06 <safe_lshift_func_uint16_t_u_u>:
    4e06:	f3 0f 1e fa          	endbr64 
    4e0a:	55                   	push   %rbp
    4e0b:	48 89 e5             	mov    %rsp,%rbp
    4e0e:	89 f8                	mov    %edi,%eax
    4e10:	89 75 f8             	mov    %esi,-0x8(%rbp)
    4e13:	66 89 45 fc          	mov    %ax,-0x4(%rbp)
    4e17:	83 7d f8 1f          	cmpl   $0x1f,-0x8(%rbp)
    4e1b:	77 25                	ja     4e42 <safe_lshift_func_uint16_t_u_u+0x3c>
    4e1d:	0f b7 55 fc          	movzwl -0x4(%rbp),%edx
    4e21:	8b 45 f8             	mov    -0x8(%rbp),%eax
    4e24:	be ff ff 00 00       	mov    $0xffff,%esi
    4e29:	89 c1                	mov    %eax,%ecx
    4e2b:	d3 fe                	sar    %cl,%esi
    4e2d:	89 f0                	mov    %esi,%eax
    4e2f:	39 c2                	cmp    %eax,%edx
    4e31:	7f 0f                	jg     4e42 <safe_lshift_func_uint16_t_u_u+0x3c>
    4e33:	0f b7 55 fc          	movzwl -0x4(%rbp),%edx
    4e37:	8b 45 f8             	mov    -0x8(%rbp),%eax
    4e3a:	89 c1                	mov    %eax,%ecx
    4e3c:	d3 e2                	shl    %cl,%edx
    4e3e:	89 d0                	mov    %edx,%eax
    4e40:	eb 04                	jmp    4e46 <safe_lshift_func_uint16_t_u_u+0x40>
    4e42:	0f b7 45 fc          	movzwl -0x4(%rbp),%eax
    4e46:	5d                   	pop    %rbp
    4e47:	c3                   	retq   

0000000000004e48 <safe_rshift_func_uint16_t_u_s>:
    4e48:	f3 0f 1e fa          	endbr64 
    4e4c:	55                   	push   %rbp
    4e4d:	48 89 e5             	mov    %rsp,%rbp
    4e50:	89 f8                	mov    %edi,%eax
    4e52:	89 75 f8             	mov    %esi,-0x8(%rbp)
    4e55:	66 89 45 fc          	mov    %ax,-0x4(%rbp)
    4e59:	83 7d f8 00          	cmpl   $0x0,-0x8(%rbp)
    4e5d:	78 15                	js     4e74 <safe_rshift_func_uint16_t_u_s+0x2c>
    4e5f:	83 7d f8 1f          	cmpl   $0x1f,-0x8(%rbp)
    4e63:	7f 0f                	jg     4e74 <safe_rshift_func_uint16_t_u_s+0x2c>
    4e65:	0f b7 55 fc          	movzwl -0x4(%rbp),%edx
    4e69:	8b 45 f8             	mov    -0x8(%rbp),%eax
    4e6c:	89 c1                	mov    %eax,%ecx
    4e6e:	d3 fa                	sar    %cl,%edx
    4e70:	89 d0                	mov    %edx,%eax
    4e72:	eb 04                	jmp    4e78 <safe_rshift_func_uint16_t_u_s+0x30>
    4e74:	0f b7 45 fc          	movzwl -0x4(%rbp),%eax
    4e78:	5d                   	pop    %rbp
    4e79:	c3                   	retq   

0000000000004e7a <safe_rshift_func_uint16_t_u_u>:
    4e7a:	f3 0f 1e fa          	endbr64 
    4e7e:	55                   	push   %rbp
    4e7f:	48 89 e5             	mov    %rsp,%rbp
    4e82:	89 f8                	mov    %edi,%eax
    4e84:	89 75 f8             	mov    %esi,-0x8(%rbp)
    4e87:	66 89 45 fc          	mov    %ax,-0x4(%rbp)
    4e8b:	83 7d f8 1f          	cmpl   $0x1f,-0x8(%rbp)
    4e8f:	77 0f                	ja     4ea0 <safe_rshift_func_uint16_t_u_u+0x26>
    4e91:	0f b7 55 fc          	movzwl -0x4(%rbp),%edx
    4e95:	8b 45 f8             	mov    -0x8(%rbp),%eax
    4e98:	89 c1                	mov    %eax,%ecx
    4e9a:	d3 fa                	sar    %cl,%edx
    4e9c:	89 d0                	mov    %edx,%eax
    4e9e:	eb 04                	jmp    4ea4 <safe_rshift_func_uint16_t_u_u+0x2a>
    4ea0:	0f b7 45 fc          	movzwl -0x4(%rbp),%eax
    4ea4:	5d                   	pop    %rbp
    4ea5:	c3                   	retq   

0000000000004ea6 <safe_unary_minus_func_uint32_t_u>:
    4ea6:	f3 0f 1e fa          	endbr64 
    4eaa:	55                   	push   %rbp
    4eab:	48 89 e5             	mov    %rsp,%rbp
    4eae:	89 7d fc             	mov    %edi,-0x4(%rbp)
    4eb1:	8b 45 fc             	mov    -0x4(%rbp),%eax
    4eb4:	f7 d8                	neg    %eax
    4eb6:	5d                   	pop    %rbp
    4eb7:	c3                   	retq   

0000000000004eb8 <safe_add_func_uint32_t_u_u>:
    4eb8:	f3 0f 1e fa          	endbr64 
    4ebc:	55                   	push   %rbp
    4ebd:	48 89 e5             	mov    %rsp,%rbp
    4ec0:	89 7d fc             	mov    %edi,-0x4(%rbp)
    4ec3:	89 75 f8             	mov    %esi,-0x8(%rbp)
    4ec6:	8b 55 fc             	mov    -0x4(%rbp),%edx
    4ec9:	8b 45 f8             	mov    -0x8(%rbp),%eax
    4ecc:	01 d0                	add    %edx,%eax
    4ece:	5d                   	pop    %rbp
    4ecf:	c3                   	retq   

0000000000004ed0 <safe_sub_func_uint32_t_u_u>:
    4ed0:	f3 0f 1e fa          	endbr64 
    4ed4:	55                   	push   %rbp
    4ed5:	48 89 e5             	mov    %rsp,%rbp
    4ed8:	89 7d fc             	mov    %edi,-0x4(%rbp)
    4edb:	89 75 f8             	mov    %esi,-0x8(%rbp)
    4ede:	8b 45 fc             	mov    -0x4(%rbp),%eax
    4ee1:	2b 45 f8             	sub    -0x8(%rbp),%eax
    4ee4:	5d                   	pop    %rbp
    4ee5:	c3                   	retq   

0000000000004ee6 <safe_mul_func_uint32_t_u_u>:
    4ee6:	f3 0f 1e fa          	endbr64 
    4eea:	55                   	push   %rbp
    4eeb:	48 89 e5             	mov    %rsp,%rbp
    4eee:	89 7d fc             	mov    %edi,-0x4(%rbp)
    4ef1:	89 75 f8             	mov    %esi,-0x8(%rbp)
    4ef4:	8b 45 fc             	mov    -0x4(%rbp),%eax
    4ef7:	0f af 45 f8          	imul   -0x8(%rbp),%eax
    4efb:	5d                   	pop    %rbp
    4efc:	c3                   	retq   

0000000000004efd <safe_mod_func_uint32_t_u_u>:
    4efd:	f3 0f 1e fa          	endbr64 
    4f01:	55                   	push   %rbp
    4f02:	48 89 e5             	mov    %rsp,%rbp
    4f05:	89 7d fc             	mov    %edi,-0x4(%rbp)
    4f08:	89 75 f8             	mov    %esi,-0x8(%rbp)
    4f0b:	83 7d f8 00          	cmpl   $0x0,-0x8(%rbp)
    4f0f:	74 0f                	je     4f20 <safe_mod_func_uint32_t_u_u+0x23>
    4f11:	8b 45 fc             	mov    -0x4(%rbp),%eax
    4f14:	ba 00 00 00 00       	mov    $0x0,%edx
    4f19:	f7 75 f8             	divl   -0x8(%rbp)
    4f1c:	89 d0                	mov    %edx,%eax
    4f1e:	eb 03                	jmp    4f23 <safe_mod_func_uint32_t_u_u+0x26>
    4f20:	8b 45 fc             	mov    -0x4(%rbp),%eax
    4f23:	5d                   	pop    %rbp
    4f24:	c3                   	retq   

0000000000004f25 <safe_div_func_uint32_t_u_u>:
    4f25:	f3 0f 1e fa          	endbr64 
    4f29:	55                   	push   %rbp
    4f2a:	48 89 e5             	mov    %rsp,%rbp
    4f2d:	89 7d fc             	mov    %edi,-0x4(%rbp)
    4f30:	89 75 f8             	mov    %esi,-0x8(%rbp)
    4f33:	83 7d f8 00          	cmpl   $0x0,-0x8(%rbp)
    4f37:	74 0d                	je     4f46 <safe_div_func_uint32_t_u_u+0x21>
    4f39:	8b 45 fc             	mov    -0x4(%rbp),%eax
    4f3c:	ba 00 00 00 00       	mov    $0x0,%edx
    4f41:	f7 75 f8             	divl   -0x8(%rbp)
    4f44:	eb 03                	jmp    4f49 <safe_div_func_uint32_t_u_u+0x24>
    4f46:	8b 45 fc             	mov    -0x4(%rbp),%eax
    4f49:	5d                   	pop    %rbp
    4f4a:	c3                   	retq   

0000000000004f4b <safe_lshift_func_uint32_t_u_s>:
    4f4b:	f3 0f 1e fa          	endbr64 
    4f4f:	55                   	push   %rbp
    4f50:	48 89 e5             	mov    %rsp,%rbp
    4f53:	89 7d fc             	mov    %edi,-0x4(%rbp)
    4f56:	89 75 f8             	mov    %esi,-0x8(%rbp)
    4f59:	83 7d f8 00          	cmpl   $0x0,-0x8(%rbp)
    4f5d:	78 27                	js     4f86 <safe_lshift_func_uint32_t_u_s+0x3b>
    4f5f:	83 7d f8 1f          	cmpl   $0x1f,-0x8(%rbp)
    4f63:	7f 21                	jg     4f86 <safe_lshift_func_uint32_t_u_s+0x3b>
    4f65:	8b 45 f8             	mov    -0x8(%rbp),%eax
    4f68:	ba ff ff ff ff       	mov    $0xffffffff,%edx
    4f6d:	89 c1                	mov    %eax,%ecx
    4f6f:	d3 ea                	shr    %cl,%edx
    4f71:	89 d0                	mov    %edx,%eax
    4f73:	39 45 fc             	cmp    %eax,-0x4(%rbp)
    4f76:	77 0e                	ja     4f86 <safe_lshift_func_uint32_t_u_s+0x3b>
    4f78:	8b 45 f8             	mov    -0x8(%rbp),%eax
    4f7b:	8b 55 fc             	mov    -0x4(%rbp),%edx
    4f7e:	89 c1                	mov    %eax,%ecx
    4f80:	d3 e2                	shl    %cl,%edx
    4f82:	89 d0                	mov    %edx,%eax
    4f84:	eb 03                	jmp    4f89 <safe_lshift_func_uint32_t_u_s+0x3e>
    4f86:	8b 45 fc             	mov    -0x4(%rbp),%eax
    4f89:	5d                   	pop    %rbp
    4f8a:	c3                   	retq   

0000000000004f8b <safe_lshift_func_uint32_t_u_u>:
    4f8b:	f3 0f 1e fa          	endbr64 
    4f8f:	55                   	push   %rbp
    4f90:	48 89 e5             	mov    %rsp,%rbp
    4f93:	89 7d fc             	mov    %edi,-0x4(%rbp)
    4f96:	89 75 f8             	mov    %esi,-0x8(%rbp)
    4f99:	83 7d f8 1f          	cmpl   $0x1f,-0x8(%rbp)
    4f9d:	77 21                	ja     4fc0 <safe_lshift_func_uint32_t_u_u+0x35>
    4f9f:	8b 45 f8             	mov    -0x8(%rbp),%eax
    4fa2:	ba ff ff ff ff       	mov    $0xffffffff,%edx
    4fa7:	89 c1                	mov    %eax,%ecx
    4fa9:	d3 ea                	shr    %cl,%edx
    4fab:	89 d0                	mov    %edx,%eax
    4fad:	39 45 fc             	cmp    %eax,-0x4(%rbp)
    4fb0:	77 0e                	ja     4fc0 <safe_lshift_func_uint32_t_u_u+0x35>
    4fb2:	8b 45 f8             	mov    -0x8(%rbp),%eax
    4fb5:	8b 55 fc             	mov    -0x4(%rbp),%edx
    4fb8:	89 c1                	mov    %eax,%ecx
    4fba:	d3 e2                	shl    %cl,%edx
    4fbc:	89 d0                	mov    %edx,%eax
    4fbe:	eb 03                	jmp    4fc3 <safe_lshift_func_uint32_t_u_u+0x38>
    4fc0:	8b 45 fc             	mov    -0x4(%rbp),%eax
    4fc3:	5d                   	pop    %rbp
    4fc4:	c3                   	retq   

0000000000004fc5 <safe_rshift_func_uint32_t_u_s>:
    4fc5:	f3 0f 1e fa          	endbr64 
    4fc9:	55                   	push   %rbp
    4fca:	48 89 e5             	mov    %rsp,%rbp
    4fcd:	89 7d fc             	mov    %edi,-0x4(%rbp)
    4fd0:	89 75 f8             	mov    %esi,-0x8(%rbp)
    4fd3:	83 7d f8 00          	cmpl   $0x0,-0x8(%rbp)
    4fd7:	78 14                	js     4fed <safe_rshift_func_uint32_t_u_s+0x28>
    4fd9:	83 7d f8 1f          	cmpl   $0x1f,-0x8(%rbp)
    4fdd:	7f 0e                	jg     4fed <safe_rshift_func_uint32_t_u_s+0x28>
    4fdf:	8b 45 f8             	mov    -0x8(%rbp),%eax
    4fe2:	8b 55 fc             	mov    -0x4(%rbp),%edx
    4fe5:	89 c1                	mov    %eax,%ecx
    4fe7:	d3 ea                	shr    %cl,%edx
    4fe9:	89 d0                	mov    %edx,%eax
    4feb:	eb 03                	jmp    4ff0 <safe_rshift_func_uint32_t_u_s+0x2b>
    4fed:	8b 45 fc             	mov    -0x4(%rbp),%eax
    4ff0:	5d                   	pop    %rbp
    4ff1:	c3                   	retq   

0000000000004ff2 <safe_rshift_func_uint32_t_u_u>:
    4ff2:	f3 0f 1e fa          	endbr64 
    4ff6:	55                   	push   %rbp
    4ff7:	48 89 e5             	mov    %rsp,%rbp
    4ffa:	89 7d fc             	mov    %edi,-0x4(%rbp)
    4ffd:	89 75 f8             	mov    %esi,-0x8(%rbp)
    5000:	83 7d f8 1f          	cmpl   $0x1f,-0x8(%rbp)
    5004:	77 0e                	ja     5014 <safe_rshift_func_uint32_t_u_u+0x22>
    5006:	8b 45 f8             	mov    -0x8(%rbp),%eax
    5009:	8b 55 fc             	mov    -0x4(%rbp),%edx
    500c:	89 c1                	mov    %eax,%ecx
    500e:	d3 ea                	shr    %cl,%edx
    5010:	89 d0                	mov    %edx,%eax
    5012:	eb 03                	jmp    5017 <safe_rshift_func_uint32_t_u_u+0x25>
    5014:	8b 45 fc             	mov    -0x4(%rbp),%eax
    5017:	5d                   	pop    %rbp
    5018:	c3                   	retq   

0000000000005019 <safe_unary_minus_func_uint64_t_u>:
    5019:	f3 0f 1e fa          	endbr64 
    501d:	55                   	push   %rbp
    501e:	48 89 e5             	mov    %rsp,%rbp
    5021:	48 89 7d f8          	mov    %rdi,-0x8(%rbp)
    5025:	48 8b 45 f8          	mov    -0x8(%rbp),%rax
    5029:	48 f7 d8             	neg    %rax
    502c:	5d                   	pop    %rbp
    502d:	c3                   	retq   

000000000000502e <safe_add_func_uint64_t_u_u>:
    502e:	f3 0f 1e fa          	endbr64 
    5032:	55                   	push   %rbp
    5033:	48 89 e5             	mov    %rsp,%rbp
    5036:	48 89 7d f8          	mov    %rdi,-0x8(%rbp)
    503a:	48 89 75 f0          	mov    %rsi,-0x10(%rbp)
    503e:	48 8b 55 f8          	mov    -0x8(%rbp),%rdx
    5042:	48 8b 45 f0          	mov    -0x10(%rbp),%rax
    5046:	48 01 d0             	add    %rdx,%rax
    5049:	5d                   	pop    %rbp
    504a:	c3                   	retq   

000000000000504b <safe_sub_func_uint64_t_u_u>:
    504b:	f3 0f 1e fa          	endbr64 
    504f:	55                   	push   %rbp
    5050:	48 89 e5             	mov    %rsp,%rbp
    5053:	48 89 7d f8          	mov    %rdi,-0x8(%rbp)
    5057:	48 89 75 f0          	mov    %rsi,-0x10(%rbp)
    505b:	48 8b 45 f8          	mov    -0x8(%rbp),%rax
    505f:	48 2b 45 f0          	sub    -0x10(%rbp),%rax
    5063:	5d                   	pop    %rbp
    5064:	c3                   	retq   

0000000000005065 <safe_mul_func_uint64_t_u_u>:
    5065:	f3 0f 1e fa          	endbr64 
    5069:	55                   	push   %rbp
    506a:	48 89 e5             	mov    %rsp,%rbp
    506d:	48 89 7d f8          	mov    %rdi,-0x8(%rbp)
    5071:	48 89 75 f0          	mov    %rsi,-0x10(%rbp)
    5075:	48 8b 45 f8          	mov    -0x8(%rbp),%rax
    5079:	48 0f af 45 f0       	imul   -0x10(%rbp),%rax
    507e:	5d                   	pop    %rbp
    507f:	c3                   	retq   

0000000000005080 <safe_mod_func_uint64_t_u_u>:
    5080:	f3 0f 1e fa          	endbr64 
    5084:	55                   	push   %rbp
    5085:	48 89 e5             	mov    %rsp,%rbp
    5088:	48 89 7d f8          	mov    %rdi,-0x8(%rbp)
    508c:	48 89 75 f0          	mov    %rsi,-0x10(%rbp)
    5090:	48 83 7d f0 00       	cmpq   $0x0,-0x10(%rbp)
    5095:	74 12                	je     50a9 <safe_mod_func_uint64_t_u_u+0x29>
    5097:	48 8b 45 f8          	mov    -0x8(%rbp),%rax
    509b:	ba 00 00 00 00       	mov    $0x0,%edx
    50a0:	48 f7 75 f0          	divq   -0x10(%rbp)
    50a4:	48 89 d0             	mov    %rdx,%rax
    50a7:	eb 04                	jmp    50ad <safe_mod_func_uint64_t_u_u+0x2d>
    50a9:	48 8b 45 f8          	mov    -0x8(%rbp),%rax
    50ad:	5d                   	pop    %rbp
    50ae:	c3                   	retq   

00000000000050af <safe_div_func_uint64_t_u_u>:
    50af:	f3 0f 1e fa          	endbr64 
    50b3:	55                   	push   %rbp
    50b4:	48 89 e5             	mov    %rsp,%rbp
    50b7:	48 89 7d f8          	mov    %rdi,-0x8(%rbp)
    50bb:	48 89 75 f0          	mov    %rsi,-0x10(%rbp)
    50bf:	48 83 7d f0 00       	cmpq   $0x0,-0x10(%rbp)
    50c4:	74 0f                	je     50d5 <safe_div_func_uint64_t_u_u+0x26>
    50c6:	48 8b 45 f8          	mov    -0x8(%rbp),%rax
    50ca:	ba 00 00 00 00       	mov    $0x0,%edx
    50cf:	48 f7 75 f0          	divq   -0x10(%rbp)
    50d3:	eb 04                	jmp    50d9 <safe_div_func_uint64_t_u_u+0x2a>
    50d5:	48 8b 45 f8          	mov    -0x8(%rbp),%rax
    50d9:	5d                   	pop    %rbp
    50da:	c3                   	retq   

00000000000050db <safe_lshift_func_uint64_t_u_s>:
    50db:	f3 0f 1e fa          	endbr64 
    50df:	55                   	push   %rbp
    50e0:	48 89 e5             	mov    %rsp,%rbp
    50e3:	48 89 7d f8          	mov    %rdi,-0x8(%rbp)
    50e7:	89 75 f4             	mov    %esi,-0xc(%rbp)
    50ea:	83 7d f4 00          	cmpl   $0x0,-0xc(%rbp)
    50ee:	78 2f                	js     511f <safe_lshift_func_uint64_t_u_s+0x44>
    50f0:	83 7d f4 1f          	cmpl   $0x1f,-0xc(%rbp)
    50f4:	7f 29                	jg     511f <safe_lshift_func_uint64_t_u_s+0x44>
    50f6:	8b 45 f4             	mov    -0xc(%rbp),%eax
    50f9:	48 c7 c2 ff ff ff ff 	mov    $0xffffffffffffffff,%rdx
    5100:	89 c1                	mov    %eax,%ecx
    5102:	48 d3 ea             	shr    %cl,%rdx
    5105:	48 89 d0             	mov    %rdx,%rax
    5108:	48 39 45 f8          	cmp    %rax,-0x8(%rbp)
    510c:	77 11                	ja     511f <safe_lshift_func_uint64_t_u_s+0x44>
    510e:	8b 45 f4             	mov    -0xc(%rbp),%eax
    5111:	48 8b 55 f8          	mov    -0x8(%rbp),%rdx
    5115:	89 c1                	mov    %eax,%ecx
    5117:	48 d3 e2             	shl    %cl,%rdx
    511a:	48 89 d0             	mov    %rdx,%rax
    511d:	eb 04                	jmp    5123 <safe_lshift_func_uint64_t_u_s+0x48>
    511f:	48 8b 45 f8          	mov    -0x8(%rbp),%rax
    5123:	5d                   	pop    %rbp
    5124:	c3                   	retq   

0000000000005125 <safe_lshift_func_uint64_t_u_u>:
    5125:	f3 0f 1e fa          	endbr64 
    5129:	55                   	push   %rbp
    512a:	48 89 e5             	mov    %rsp,%rbp
    512d:	48 89 7d f8          	mov    %rdi,-0x8(%rbp)
    5131:	89 75 f4             	mov    %esi,-0xc(%rbp)
    5134:	83 7d f4 1f          	cmpl   $0x1f,-0xc(%rbp)
    5138:	77 29                	ja     5163 <safe_lshift_func_uint64_t_u_u+0x3e>
    513a:	8b 45 f4             	mov    -0xc(%rbp),%eax
    513d:	48 c7 c2 ff ff ff ff 	mov    $0xffffffffffffffff,%rdx
    5144:	89 c1                	mov    %eax,%ecx
    5146:	48 d3 ea             	shr    %cl,%rdx
    5149:	48 89 d0             	mov    %rdx,%rax
    514c:	48 39 45 f8          	cmp    %rax,-0x8(%rbp)
    5150:	77 11                	ja     5163 <safe_lshift_func_uint64_t_u_u+0x3e>
    5152:	8b 45 f4             	mov    -0xc(%rbp),%eax
    5155:	48 8b 55 f8          	mov    -0x8(%rbp),%rdx
    5159:	89 c1                	mov    %eax,%ecx
    515b:	48 d3 e2             	shl    %cl,%rdx
    515e:	48 89 d0             	mov    %rdx,%rax
    5161:	eb 04                	jmp    5167 <safe_lshift_func_uint64_t_u_u+0x42>
    5163:	48 8b 45 f8          	mov    -0x8(%rbp),%rax
    5167:	5d                   	pop    %rbp
    5168:	c3                   	retq   

0000000000005169 <safe_rshift_func_uint64_t_u_s>:
    5169:	f3 0f 1e fa          	endbr64 
    516d:	55                   	push   %rbp
    516e:	48 89 e5             	mov    %rsp,%rbp
    5171:	48 89 7d f8          	mov    %rdi,-0x8(%rbp)
    5175:	89 75 f4             	mov    %esi,-0xc(%rbp)
    5178:	83 7d f4 00          	cmpl   $0x0,-0xc(%rbp)
    517c:	78 17                	js     5195 <safe_rshift_func_uint64_t_u_s+0x2c>
    517e:	83 7d f4 1f          	cmpl   $0x1f,-0xc(%rbp)
    5182:	7f 11                	jg     5195 <safe_rshift_func_uint64_t_u_s+0x2c>
    5184:	8b 45 f4             	mov    -0xc(%rbp),%eax
    5187:	48 8b 55 f8          	mov    -0x8(%rbp),%rdx
    518b:	89 c1                	mov    %eax,%ecx
    518d:	48 d3 ea             	shr    %cl,%rdx
    5190:	48 89 d0             	mov    %rdx,%rax
    5193:	eb 04                	jmp    5199 <safe_rshift_func_uint64_t_u_s+0x30>
    5195:	48 8b 45 f8          	mov    -0x8(%rbp),%rax
    5199:	5d                   	pop    %rbp
    519a:	c3                   	retq   

000000000000519b <safe_rshift_func_uint64_t_u_u>:
    519b:	f3 0f 1e fa          	endbr64 
    519f:	55                   	push   %rbp
    51a0:	48 89 e5             	mov    %rsp,%rbp
    51a3:	48 89 7d f8          	mov    %rdi,-0x8(%rbp)
    51a7:	89 75 f4             	mov    %esi,-0xc(%rbp)
    51aa:	83 7d f4 1f          	cmpl   $0x1f,-0xc(%rbp)
    51ae:	77 11                	ja     51c1 <safe_rshift_func_uint64_t_u_u+0x26>
    51b0:	8b 45 f4             	mov    -0xc(%rbp),%eax
    51b3:	48 8b 55 f8          	mov    -0x8(%rbp),%rdx
    51b7:	89 c1                	mov    %eax,%ecx
    51b9:	48 d3 ea             	shr    %cl,%rdx
    51bc:	48 89 d0             	mov    %rdx,%rax
    51bf:	eb 04                	jmp    51c5 <safe_rshift_func_uint64_t_u_u+0x2a>
    51c1:	48 8b 45 f8          	mov    -0x8(%rbp),%rax
    51c5:	5d                   	pop    %rbp
    51c6:	c3                   	retq   

00000000000051c7 <safe_add_func_float_f_f>:
    51c7:	f3 0f 1e fa          	endbr64 
    51cb:	55                   	push   %rbp
    51cc:	48 89 e5             	mov    %rsp,%rbp
    51cf:	f3 0f 11 45 fc       	movss  %xmm0,-0x4(%rbp)
    51d4:	f3 0f 11 4d f8       	movss  %xmm1,-0x8(%rbp)
    51d9:	f3 0f 10 4d fc       	movss  -0x4(%rbp),%xmm1
    51de:	f3 0f 10 05 4a 80 00 	movss  0x804a(%rip),%xmm0        # d230 <l_163.4617+0x50>
    51e5:	00 
    51e6:	f3 0f 59 c8          	mulss  %xmm0,%xmm1
    51ea:	f3 0f 10 55 f8       	movss  -0x8(%rbp),%xmm2
    51ef:	f3 0f 10 05 39 80 00 	movss  0x8039(%rip),%xmm0        # d230 <l_163.4617+0x50>
    51f6:	00 
    51f7:	f3 0f 59 c2          	mulss  %xmm2,%xmm0
    51fb:	f3 0f 58 c1          	addss  %xmm1,%xmm0
    51ff:	f3 0f 10 0d 39 80 00 	movss  0x8039(%rip),%xmm1        # d240 <l_163.4617+0x60>
    5206:	00 
    5207:	0f 54 c1             	andps  %xmm1,%xmm0
    520a:	0f 2f 05 3f 80 00 00 	comiss 0x803f(%rip),%xmm0        # d250 <l_163.4617+0x70>
    5211:	76 07                	jbe    521a <safe_add_func_float_f_f+0x53>
    5213:	f3 0f 10 45 fc       	movss  -0x4(%rbp),%xmm0
    5218:	eb 0a                	jmp    5224 <safe_add_func_float_f_f+0x5d>
    521a:	f3 0f 10 45 fc       	movss  -0x4(%rbp),%xmm0
    521f:	f3 0f 58 45 f8       	addss  -0x8(%rbp),%xmm0
    5224:	5d                   	pop    %rbp
    5225:	c3                   	retq   

0000000000005226 <safe_sub_func_float_f_f>:
    5226:	f3 0f 1e fa          	endbr64 
    522a:	55                   	push   %rbp
    522b:	48 89 e5             	mov    %rsp,%rbp
    522e:	f3 0f 11 45 fc       	movss  %xmm0,-0x4(%rbp)
    5233:	f3 0f 11 4d f8       	movss  %xmm1,-0x8(%rbp)
    5238:	f3 0f 10 4d fc       	movss  -0x4(%rbp),%xmm1
    523d:	f3 0f 10 05 eb 7f 00 	movss  0x7feb(%rip),%xmm0        # d230 <l_163.4617+0x50>
    5244:	00 
    5245:	f3 0f 59 c1          	mulss  %xmm1,%xmm0
    5249:	f3 0f 10 55 f8       	movss  -0x8(%rbp),%xmm2
    524e:	f3 0f 10 0d da 7f 00 	movss  0x7fda(%rip),%xmm1        # d230 <l_163.4617+0x50>
    5255:	00 
    5256:	f3 0f 59 ca          	mulss  %xmm2,%xmm1
    525a:	f3 0f 5c c1          	subss  %xmm1,%xmm0
    525e:	f3 0f 10 0d da 7f 00 	movss  0x7fda(%rip),%xmm1        # d240 <l_163.4617+0x60>
    5265:	00 
    5266:	0f 54 c1             	andps  %xmm1,%xmm0
    5269:	0f 2f 05 e0 7f 00 00 	comiss 0x7fe0(%rip),%xmm0        # d250 <l_163.4617+0x70>
    5270:	76 07                	jbe    5279 <safe_sub_func_float_f_f+0x53>
    5272:	f3 0f 10 45 fc       	movss  -0x4(%rbp),%xmm0
    5277:	eb 0a                	jmp    5283 <safe_sub_func_float_f_f+0x5d>
    5279:	f3 0f 10 45 fc       	movss  -0x4(%rbp),%xmm0
    527e:	f3 0f 5c 45 f8       	subss  -0x8(%rbp),%xmm0
    5283:	5d                   	pop    %rbp
    5284:	c3                   	retq   

0000000000005285 <safe_mul_func_float_f_f>:
    5285:	f3 0f 1e fa          	endbr64 
    5289:	55                   	push   %rbp
    528a:	48 89 e5             	mov    %rsp,%rbp
    528d:	f3 0f 11 45 fc       	movss  %xmm0,-0x4(%rbp)
    5292:	f3 0f 11 4d f8       	movss  %xmm1,-0x8(%rbp)
    5297:	f3 0f 10 4d fc       	movss  -0x4(%rbp),%xmm1
    529c:	f3 0f 10 05 b0 7f 00 	movss  0x7fb0(%rip),%xmm0        # d254 <l_163.4617+0x74>
    52a3:	00 
    52a4:	f3 0f 59 c8          	mulss  %xmm0,%xmm1
    52a8:	f3 0f 10 55 f8       	movss  -0x8(%rbp),%xmm2
    52ad:	f3 0f 10 05 a3 7f 00 	movss  0x7fa3(%rip),%xmm0        # d258 <l_163.4617+0x78>
    52b4:	00 
    52b5:	f3 0f 59 c2          	mulss  %xmm2,%xmm0
    52b9:	f3 0f 59 c1          	mulss  %xmm1,%xmm0
    52bd:	f3 0f 10 0d 7b 7f 00 	movss  0x7f7b(%rip),%xmm1        # d240 <l_163.4617+0x60>
    52c4:	00 
    52c5:	0f 54 c1             	andps  %xmm1,%xmm0
    52c8:	0f 2f 05 8d 7f 00 00 	comiss 0x7f8d(%rip),%xmm0        # d25c <l_163.4617+0x7c>
    52cf:	76 07                	jbe    52d8 <safe_mul_func_float_f_f+0x53>
    52d1:	f3 0f 10 45 fc       	movss  -0x4(%rbp),%xmm0
    52d6:	eb 0a                	jmp    52e2 <safe_mul_func_float_f_f+0x5d>
    52d8:	f3 0f 10 45 fc       	movss  -0x4(%rbp),%xmm0
    52dd:	f3 0f 59 45 f8       	mulss  -0x8(%rbp),%xmm0
    52e2:	5d                   	pop    %rbp
    52e3:	c3                   	retq   

00000000000052e4 <safe_div_func_float_f_f>:
    52e4:	f3 0f 1e fa          	endbr64 
    52e8:	55                   	push   %rbp
    52e9:	48 89 e5             	mov    %rsp,%rbp
    52ec:	f3 0f 11 45 fc       	movss  %xmm0,-0x4(%rbp)
    52f1:	f3 0f 11 4d f8       	movss  %xmm1,-0x8(%rbp)
    52f6:	f3 0f 10 45 f8       	movss  -0x8(%rbp),%xmm0
    52fb:	f3 0f 10 0d 3d 7f 00 	movss  0x7f3d(%rip),%xmm1        # d240 <l_163.4617+0x60>
    5302:	00 
    5303:	0f 54 c8             	andps  %xmm0,%xmm1
    5306:	f3 0f 10 05 52 7f 00 	movss  0x7f52(%rip),%xmm0        # d260 <l_163.4617+0x80>
    530d:	00 
    530e:	0f 2f c1             	comiss %xmm1,%xmm0
    5311:	0f 97 c0             	seta   %al
    5314:	83 f0 01             	xor    $0x1,%eax
    5317:	84 c0                	test   %al,%al
    5319:	75 56                	jne    5371 <safe_div_func_float_f_f+0x8d>
    531b:	66 0f ef c0          	pxor   %xmm0,%xmm0
    531f:	0f 2e 45 f8          	ucomiss -0x8(%rbp),%xmm0
    5323:	7a 0a                	jp     532f <safe_div_func_float_f_f+0x4b>
    5325:	66 0f ef c0          	pxor   %xmm0,%xmm0
    5329:	0f 2e 45 f8          	ucomiss -0x8(%rbp),%xmm0
    532d:	74 4e                	je     537d <safe_div_func_float_f_f+0x99>
    532f:	f3 0f 10 4d fc       	movss  -0x4(%rbp),%xmm1
    5334:	f3 0f 10 05 28 7f 00 	movss  0x7f28(%rip),%xmm0        # d264 <l_163.4617+0x84>
    533b:	00 
    533c:	f3 0f 59 c1          	mulss  %xmm1,%xmm0
    5340:	f3 0f 10 55 f8       	movss  -0x8(%rbp),%xmm2
    5345:	f3 0f 10 0d 1b 7f 00 	movss  0x7f1b(%rip),%xmm1        # d268 <l_163.4617+0x88>
    534c:	00 
    534d:	f3 0f 59 ca          	mulss  %xmm2,%xmm1
    5351:	f3 0f 5e c1          	divss  %xmm1,%xmm0
    5355:	f3 0f 10 0d e3 7e 00 	movss  0x7ee3(%rip),%xmm1        # d240 <l_163.4617+0x60>
    535c:	00 
    535d:	0f 54 c1             	andps  %xmm1,%xmm0
    5360:	0f 2f 05 05 7f 00 00 	comiss 0x7f05(%rip),%xmm0        # d26c <l_163.4617+0x8c>
    5367:	0f 97 c0             	seta   %al
    536a:	83 f0 01             	xor    $0x1,%eax
    536d:	84 c0                	test   %al,%al
    536f:	74 0c                	je     537d <safe_div_func_float_f_f+0x99>
    5371:	f3 0f 10 45 fc       	movss  -0x4(%rbp),%xmm0
    5376:	f3 0f 5e 45 f8       	divss  -0x8(%rbp),%xmm0
    537b:	eb 05                	jmp    5382 <safe_div_func_float_f_f+0x9e>
    537d:	f3 0f 10 45 fc       	movss  -0x4(%rbp),%xmm0
    5382:	5d                   	pop    %rbp
    5383:	c3                   	retq   

0000000000005384 <safe_add_func_double_f_f>:
    5384:	f3 0f 1e fa          	endbr64 
    5388:	55                   	push   %rbp
    5389:	48 89 e5             	mov    %rsp,%rbp
    538c:	f2 0f 11 45 f8       	movsd  %xmm0,-0x8(%rbp)
    5391:	f2 0f 11 4d f0       	movsd  %xmm1,-0x10(%rbp)
    5396:	f2 0f 10 4d f8       	movsd  -0x8(%rbp),%xmm1
    539b:	f2 0f 10 05 cd 7e 00 	movsd  0x7ecd(%rip),%xmm0        # d270 <l_163.4617+0x90>
    53a2:	00 
    53a3:	f2 0f 59 c8          	mulsd  %xmm0,%xmm1
    53a7:	f2 0f 10 55 f0       	movsd  -0x10(%rbp),%xmm2
    53ac:	f2 0f 10 05 bc 7e 00 	movsd  0x7ebc(%rip),%xmm0        # d270 <l_163.4617+0x90>
    53b3:	00 
    53b4:	f2 0f 59 c2          	mulsd  %xmm2,%xmm0
    53b8:	f2 0f 58 c1          	addsd  %xmm1,%xmm0
    53bc:	f3 0f 7e 0d bc 7e 00 	movq   0x7ebc(%rip),%xmm1        # d280 <l_163.4617+0xa0>
    53c3:	00 
    53c4:	66 0f 54 c1          	andpd  %xmm1,%xmm0
    53c8:	66 0f 2f 05 c0 7e 00 	comisd 0x7ec0(%rip),%xmm0        # d290 <l_163.4617+0xb0>
    53cf:	00 
    53d0:	76 07                	jbe    53d9 <safe_add_func_double_f_f+0x55>
    53d2:	f2 0f 10 45 f8       	movsd  -0x8(%rbp),%xmm0
    53d7:	eb 0a                	jmp    53e3 <safe_add_func_double_f_f+0x5f>
    53d9:	f2 0f 10 45 f8       	movsd  -0x8(%rbp),%xmm0
    53de:	f2 0f 58 45 f0       	addsd  -0x10(%rbp),%xmm0
    53e3:	5d                   	pop    %rbp
    53e4:	c3                   	retq   

00000000000053e5 <safe_sub_func_double_f_f>:
    53e5:	f3 0f 1e fa          	endbr64 
    53e9:	55                   	push   %rbp
    53ea:	48 89 e5             	mov    %rsp,%rbp
    53ed:	f2 0f 11 45 f8       	movsd  %xmm0,-0x8(%rbp)
    53f2:	f2 0f 11 4d f0       	movsd  %xmm1,-0x10(%rbp)
    53f7:	f2 0f 10 4d f8       	movsd  -0x8(%rbp),%xmm1
    53fc:	f2 0f 10 05 6c 7e 00 	movsd  0x7e6c(%rip),%xmm0        # d270 <l_163.4617+0x90>
    5403:	00 
    5404:	f2 0f 59 c1          	mulsd  %xmm1,%xmm0
    5408:	f2 0f 10 55 f0       	movsd  -0x10(%rbp),%xmm2
    540d:	f2 0f 10 0d 5b 7e 00 	movsd  0x7e5b(%rip),%xmm1        # d270 <l_163.4617+0x90>
    5414:	00 
    5415:	f2 0f 59 ca          	mulsd  %xmm2,%xmm1
    5419:	f2 0f 5c c1          	subsd  %xmm1,%xmm0
    541d:	f3 0f 7e 0d 5b 7e 00 	movq   0x7e5b(%rip),%xmm1        # d280 <l_163.4617+0xa0>
    5424:	00 
    5425:	66 0f 54 c1          	andpd  %xmm1,%xmm0
    5429:	66 0f 2f 05 5f 7e 00 	comisd 0x7e5f(%rip),%xmm0        # d290 <l_163.4617+0xb0>
    5430:	00 
    5431:	76 07                	jbe    543a <safe_sub_func_double_f_f+0x55>
    5433:	f2 0f 10 45 f8       	movsd  -0x8(%rbp),%xmm0
    5438:	eb 0a                	jmp    5444 <safe_sub_func_double_f_f+0x5f>
    543a:	f2 0f 10 45 f8       	movsd  -0x8(%rbp),%xmm0
    543f:	f2 0f 5c 45 f0       	subsd  -0x10(%rbp),%xmm0
    5444:	5d                   	pop    %rbp
    5445:	c3                   	retq   

0000000000005446 <safe_mul_func_double_f_f>:
    5446:	f3 0f 1e fa          	endbr64 
    544a:	55                   	push   %rbp
    544b:	48 89 e5             	mov    %rsp,%rbp
    544e:	f2 0f 11 45 f8       	movsd  %xmm0,-0x8(%rbp)
    5453:	f2 0f 11 4d f0       	movsd  %xmm1,-0x10(%rbp)
    5458:	f2 0f 10 4d f8       	movsd  -0x8(%rbp),%xmm1
    545d:	f2 0f 10 05 33 7e 00 	movsd  0x7e33(%rip),%xmm0        # d298 <l_163.4617+0xb8>
    5464:	00 
    5465:	f2 0f 59 c8          	mulsd  %xmm0,%xmm1
    5469:	f2 0f 10 55 f0       	movsd  -0x10(%rbp),%xmm2
    546e:	f2 0f 10 05 2a 7e 00 	movsd  0x7e2a(%rip),%xmm0        # d2a0 <l_163.4617+0xc0>
    5475:	00 
    5476:	f2 0f 59 c2          	mulsd  %xmm2,%xmm0
    547a:	f2 0f 59 c1          	mulsd  %xmm1,%xmm0
    547e:	f3 0f 7e 0d fa 7d 00 	movq   0x7dfa(%rip),%xmm1        # d280 <l_163.4617+0xa0>
    5485:	00 
    5486:	66 0f 54 c1          	andpd  %xmm1,%xmm0
    548a:	66 0f 2f 05 16 7e 00 	comisd 0x7e16(%rip),%xmm0        # d2a8 <l_163.4617+0xc8>
    5491:	00 
    5492:	76 07                	jbe    549b <safe_mul_func_double_f_f+0x55>
    5494:	f2 0f 10 45 f8       	movsd  -0x8(%rbp),%xmm0
    5499:	eb 0a                	jmp    54a5 <safe_mul_func_double_f_f+0x5f>
    549b:	f2 0f 10 45 f8       	movsd  -0x8(%rbp),%xmm0
    54a0:	f2 0f 59 45 f0       	mulsd  -0x10(%rbp),%xmm0
    54a5:	5d                   	pop    %rbp
    54a6:	c3                   	retq   

00000000000054a7 <safe_div_func_double_f_f>:
    54a7:	f3 0f 1e fa          	endbr64 
    54ab:	55                   	push   %rbp
    54ac:	48 89 e5             	mov    %rsp,%rbp
    54af:	f2 0f 11 45 f8       	movsd  %xmm0,-0x8(%rbp)
    54b4:	f2 0f 11 4d f0       	movsd  %xmm1,-0x10(%rbp)
    54b9:	f2 0f 10 45 f0       	movsd  -0x10(%rbp),%xmm0
    54be:	f3 0f 7e 0d ba 7d 00 	movq   0x7dba(%rip),%xmm1        # d280 <l_163.4617+0xa0>
    54c5:	00 
    54c6:	66 0f 54 c8          	andpd  %xmm0,%xmm1
    54ca:	f2 0f 10 05 de 7d 00 	movsd  0x7dde(%rip),%xmm0        # d2b0 <l_163.4617+0xd0>
    54d1:	00 
    54d2:	66 0f 2f c1          	comisd %xmm1,%xmm0
    54d6:	0f 97 c0             	seta   %al
    54d9:	83 f0 01             	xor    $0x1,%eax
    54dc:	84 c0                	test   %al,%al
    54de:	75 5a                	jne    553a <safe_div_func_double_f_f+0x93>
    54e0:	66 0f ef c0          	pxor   %xmm0,%xmm0
    54e4:	66 0f 2e 45 f0       	ucomisd -0x10(%rbp),%xmm0
    54e9:	7a 0b                	jp     54f6 <safe_div_func_double_f_f+0x4f>
    54eb:	66 0f ef c0          	pxor   %xmm0,%xmm0
    54ef:	66 0f 2e 45 f0       	ucomisd -0x10(%rbp),%xmm0
    54f4:	74 50                	je     5546 <safe_div_func_double_f_f+0x9f>
    54f6:	f2 0f 10 4d f8       	movsd  -0x8(%rbp),%xmm1
    54fb:	f2 0f 10 05 b5 7d 00 	movsd  0x7db5(%rip),%xmm0        # d2b8 <l_163.4617+0xd8>
    5502:	00 
    5503:	f2 0f 59 c1          	mulsd  %xmm1,%xmm0
    5507:	f2 0f 10 55 f0       	movsd  -0x10(%rbp),%xmm2
    550c:	f2 0f 10 0d ac 7d 00 	movsd  0x7dac(%rip),%xmm1        # d2c0 <l_163.4617+0xe0>
    5513:	00 
    5514:	f2 0f 59 ca          	mulsd  %xmm2,%xmm1
    5518:	f2 0f 5e c1          	divsd  %xmm1,%xmm0
    551c:	f3 0f 7e 0d 5c 7d 00 	movq   0x7d5c(%rip),%xmm1        # d280 <l_163.4617+0xa0>
    5523:	00 
    5524:	66 0f 54 c1          	andpd  %xmm1,%xmm0
    5528:	66 0f 2f 05 98 7d 00 	comisd 0x7d98(%rip),%xmm0        # d2c8 <l_163.4617+0xe8>
    552f:	00 
    5530:	0f 97 c0             	seta   %al
    5533:	83 f0 01             	xor    $0x1,%eax
    5536:	84 c0                	test   %al,%al
    5538:	74 0c                	je     5546 <safe_div_func_double_f_f+0x9f>
    553a:	f2 0f 10 45 f8       	movsd  -0x8(%rbp),%xmm0
    553f:	f2 0f 5e 45 f0       	divsd  -0x10(%rbp),%xmm0
    5544:	eb 05                	jmp    554b <safe_div_func_double_f_f+0xa4>
    5546:	f2 0f 10 45 f8       	movsd  -0x8(%rbp),%xmm0
    554b:	5d                   	pop    %rbp
    554c:	c3                   	retq   

000000000000554d <safe_convert_func_float_to_int32_t>:
    554d:	f3 0f 1e fa          	endbr64 
    5551:	55                   	push   %rbp
    5552:	48 89 e5             	mov    %rsp,%rbp
    5555:	f3 0f 11 45 fc       	movss  %xmm0,-0x4(%rbp)
    555a:	f3 0f 10 05 6e 7d 00 	movss  0x7d6e(%rip),%xmm0        # d2d0 <l_163.4617+0xf0>
    5561:	00 
    5562:	0f 2f 45 fc          	comiss -0x4(%rbp),%xmm0
    5566:	0f 93 c0             	setae  %al
    5569:	83 f0 01             	xor    $0x1,%eax
    556c:	84 c0                	test   %al,%al
    556e:	74 21                	je     5591 <safe_convert_func_float_to_int32_t+0x44>
    5570:	f3 0f 10 45 fc       	movss  -0x4(%rbp),%xmm0
    5575:	0f 2f 05 58 7d 00 00 	comiss 0x7d58(%rip),%xmm0        # d2d4 <l_163.4617+0xf4>
    557c:	0f 93 c0             	setae  %al
    557f:	83 f0 01             	xor    $0x1,%eax
    5582:	84 c0                	test   %al,%al
    5584:	74 0b                	je     5591 <safe_convert_func_float_to_int32_t+0x44>
    5586:	f3 0f 10 45 fc       	movss  -0x4(%rbp),%xmm0
    558b:	f3 0f 2c c0          	cvttss2si %xmm0,%eax
    558f:	eb 05                	jmp    5596 <safe_convert_func_float_to_int32_t+0x49>
    5591:	b8 ff ff ff 7f       	mov    $0x7fffffff,%eax
    5596:	5d                   	pop    %rbp
    5597:	c3                   	retq   

0000000000005598 <crc32_gentab>:
    5598:	f3 0f 1e fa          	endbr64 
    559c:	55                   	push   %rbp
    559d:	48 89 e5             	mov    %rsp,%rbp
    55a0:	c7 45 fc 20 83 b8 ed 	movl   $0xedb88320,-0x4(%rbp)
    55a7:	c7 45 f4 00 00 00 00 	movl   $0x0,-0xc(%rbp)
    55ae:	eb 51                	jmp    5601 <crc32_gentab+0x69>
    55b0:	8b 45 f4             	mov    -0xc(%rbp),%eax
    55b3:	89 45 f0             	mov    %eax,-0x10(%rbp)
    55b6:	c7 45 f8 08 00 00 00 	movl   $0x8,-0x8(%rbp)
    55bd:	eb 1e                	jmp    55dd <crc32_gentab+0x45>
    55bf:	8b 45 f0             	mov    -0x10(%rbp),%eax
    55c2:	83 e0 01             	and    $0x1,%eax
    55c5:	85 c0                	test   %eax,%eax
    55c7:	74 0d                	je     55d6 <crc32_gentab+0x3e>
    55c9:	8b 45 f0             	mov    -0x10(%rbp),%eax
    55cc:	d1 e8                	shr    %eax
    55ce:	33 45 fc             	xor    -0x4(%rbp),%eax
    55d1:	89 45 f0             	mov    %eax,-0x10(%rbp)
    55d4:	eb 03                	jmp    55d9 <crc32_gentab+0x41>
    55d6:	d1 6d f0             	shrl   -0x10(%rbp)
    55d9:	83 6d f8 01          	subl   $0x1,-0x8(%rbp)
    55dd:	83 7d f8 00          	cmpl   $0x0,-0x8(%rbp)
    55e1:	7f dc                	jg     55bf <crc32_gentab+0x27>
    55e3:	8b 45 f4             	mov    -0xc(%rbp),%eax
    55e6:	48 98                	cltq   
    55e8:	48 8d 0c 85 00 00 00 	lea    0x0(,%rax,4),%rcx
    55ef:	00 
    55f0:	48 8d 15 c9 c0 00 00 	lea    0xc0c9(%rip),%rdx        # 116c0 <crc32_tab>
    55f7:	8b 45 f0             	mov    -0x10(%rbp),%eax
    55fa:	89 04 11             	mov    %eax,(%rcx,%rdx,1)
    55fd:	83 45 f4 01          	addl   $0x1,-0xc(%rbp)
    5601:	81 7d f4 ff 00 00 00 	cmpl   $0xff,-0xc(%rbp)
    5608:	7e a6                	jle    55b0 <crc32_gentab+0x18>
    560a:	90                   	nop
    560b:	90                   	nop
    560c:	5d                   	pop    %rbp
    560d:	c3                   	retq   

000000000000560e <crc32_byte>:
    560e:	f3 0f 1e fa          	endbr64 
    5612:	55                   	push   %rbp
    5613:	48 89 e5             	mov    %rsp,%rbp
    5616:	89 f8                	mov    %edi,%eax
    5618:	88 45 fc             	mov    %al,-0x4(%rbp)
    561b:	8b 05 ff a9 00 00    	mov    0xa9ff(%rip),%eax        # 10020 <crc32_context>
    5621:	c1 e8 08             	shr    $0x8,%eax
    5624:	89 c1                	mov    %eax,%ecx
    5626:	0f b6 55 fc          	movzbl -0x4(%rbp),%edx
    562a:	8b 05 f0 a9 00 00    	mov    0xa9f0(%rip),%eax        # 10020 <crc32_context>
    5630:	31 d0                	xor    %edx,%eax
    5632:	0f b6 c0             	movzbl %al,%eax
    5635:	89 c0                	mov    %eax,%eax
    5637:	48 8d 14 85 00 00 00 	lea    0x0(,%rax,4),%rdx
    563e:	00 
    563f:	48 8d 05 7a c0 00 00 	lea    0xc07a(%rip),%rax        # 116c0 <crc32_tab>
    5646:	8b 04 02             	mov    (%rdx,%rax,1),%eax
    5649:	31 c8                	xor    %ecx,%eax
    564b:	89 05 cf a9 00 00    	mov    %eax,0xa9cf(%rip)        # 10020 <crc32_context>
    5651:	90                   	nop
    5652:	5d                   	pop    %rbp
    5653:	c3                   	retq   

0000000000005654 <crc32_8bytes>:
    5654:	f3 0f 1e fa          	endbr64 
    5658:	55                   	push   %rbp
    5659:	48 89 e5             	mov    %rsp,%rbp
    565c:	48 83 ec 08          	sub    $0x8,%rsp
    5660:	48 89 7d f8          	mov    %rdi,-0x8(%rbp)
    5664:	48 8b 45 f8          	mov    -0x8(%rbp),%rax
    5668:	0f b6 c0             	movzbl %al,%eax
    566b:	89 c7                	mov    %eax,%edi
    566d:	e8 9c ff ff ff       	callq  560e <crc32_byte>
    5672:	48 8b 45 f8          	mov    -0x8(%rbp),%rax
    5676:	48 c1 e8 08          	shr    $0x8,%rax
    567a:	0f b6 c0             	movzbl %al,%eax
    567d:	89 c7                	mov    %eax,%edi
    567f:	e8 8a ff ff ff       	callq  560e <crc32_byte>
    5684:	48 8b 45 f8          	mov    -0x8(%rbp),%rax
    5688:	48 c1 e8 10          	shr    $0x10,%rax
    568c:	0f b6 c0             	movzbl %al,%eax
    568f:	89 c7                	mov    %eax,%edi
    5691:	e8 78 ff ff ff       	callq  560e <crc32_byte>
    5696:	48 8b 45 f8          	mov    -0x8(%rbp),%rax
    569a:	48 c1 e8 18          	shr    $0x18,%rax
    569e:	0f b6 c0             	movzbl %al,%eax
    56a1:	89 c7                	mov    %eax,%edi
    56a3:	e8 66 ff ff ff       	callq  560e <crc32_byte>
    56a8:	48 8b 45 f8          	mov    -0x8(%rbp),%rax
    56ac:	48 c1 e8 20          	shr    $0x20,%rax
    56b0:	0f b6 c0             	movzbl %al,%eax
    56b3:	89 c7                	mov    %eax,%edi
    56b5:	e8 54 ff ff ff       	callq  560e <crc32_byte>
    56ba:	48 8b 45 f8          	mov    -0x8(%rbp),%rax
    56be:	48 c1 e8 28          	shr    $0x28,%rax
    56c2:	0f b6 c0             	movzbl %al,%eax
    56c5:	89 c7                	mov    %eax,%edi
    56c7:	e8 42 ff ff ff       	callq  560e <crc32_byte>
    56cc:	48 8b 45 f8          	mov    -0x8(%rbp),%rax
    56d0:	48 c1 e8 30          	shr    $0x30,%rax
    56d4:	0f b6 c0             	movzbl %al,%eax
    56d7:	89 c7                	mov    %eax,%edi
    56d9:	e8 30 ff ff ff       	callq  560e <crc32_byte>
    56de:	48 8b 45 f8          	mov    -0x8(%rbp),%rax
    56e2:	48 c1 e8 38          	shr    $0x38,%rax
    56e6:	0f b6 c0             	movzbl %al,%eax
    56e9:	89 c7                	mov    %eax,%edi
    56eb:	e8 1e ff ff ff       	callq  560e <crc32_byte>
    56f0:	90                   	nop
    56f1:	c9                   	leaveq 
    56f2:	c3                   	retq   

00000000000056f3 <transparent_crc>:
    56f3:	f3 0f 1e fa          	endbr64 
    56f7:	55                   	push   %rbp
    56f8:	48 89 e5             	mov    %rsp,%rbp
    56fb:	48 83 ec 20          	sub    $0x20,%rsp
    56ff:	48 89 7d f8          	mov    %rdi,-0x8(%rbp)
    5703:	48 89 75 f0          	mov    %rsi,-0x10(%rbp)
    5707:	89 55 ec             	mov    %edx,-0x14(%rbp)
    570a:	48 8b 45 f8          	mov    -0x8(%rbp),%rax
    570e:	48 89 c7             	mov    %rax,%rdi
    5711:	e8 3e ff ff ff       	callq  5654 <crc32_8bytes>
    5716:	83 7d ec 00          	cmpl   $0x0,-0x14(%rbp)
    571a:	74 22                	je     573e <transparent_crc+0x4b>
    571c:	8b 05 fe a8 00 00    	mov    0xa8fe(%rip),%eax        # 10020 <crc32_context>
    5722:	f7 d0                	not    %eax
    5724:	89 c2                	mov    %eax,%edx
    5726:	48 8b 45 f0          	mov    -0x10(%rbp),%rax
    572a:	48 89 c6             	mov    %rax,%rsi
    572d:	48 8d 3d fc 68 00 00 	lea    0x68fc(%rip),%rdi        # c030 <_IO_stdin_used+0x30>
    5734:	b8 00 00 00 00       	mov    $0x0,%eax
    5739:	e8 42 e9 ff ff       	callq  4080 <printf@plt>
    573e:	90                   	nop
    573f:	c9                   	leaveq 
    5740:	c3                   	retq   

0000000000005741 <transparent_crc_bytes>:
    5741:	f3 0f 1e fa          	endbr64 
    5745:	55                   	push   %rbp
    5746:	48 89 e5             	mov    %rsp,%rbp
    5749:	48 83 ec 30          	sub    $0x30,%rsp
    574d:	48 89 7d e8          	mov    %rdi,-0x18(%rbp)
    5751:	89 75 e4             	mov    %esi,-0x1c(%rbp)
    5754:	48 89 55 d8          	mov    %rdx,-0x28(%rbp)
    5758:	89 4d e0             	mov    %ecx,-0x20(%rbp)
    575b:	c7 45 fc 00 00 00 00 	movl   $0x0,-0x4(%rbp)
    5762:	eb 1e                	jmp    5782 <transparent_crc_bytes+0x41>
    5764:	8b 45 fc             	mov    -0x4(%rbp),%eax
    5767:	48 63 d0             	movslq %eax,%rdx
    576a:	48 8b 45 e8          	mov    -0x18(%rbp),%rax
    576e:	48 01 d0             	add    %rdx,%rax
    5771:	0f b6 00             	movzbl (%rax),%eax
    5774:	0f b6 c0             	movzbl %al,%eax
    5777:	89 c7                	mov    %eax,%edi
    5779:	e8 90 fe ff ff       	callq  560e <crc32_byte>
    577e:	83 45 fc 01          	addl   $0x1,-0x4(%rbp)
    5782:	8b 45 fc             	mov    -0x4(%rbp),%eax
    5785:	3b 45 e4             	cmp    -0x1c(%rbp),%eax
    5788:	7c da                	jl     5764 <transparent_crc_bytes+0x23>
    578a:	83 7d e0 00          	cmpl   $0x0,-0x20(%rbp)
    578e:	74 22                	je     57b2 <transparent_crc_bytes+0x71>
    5790:	8b 05 8a a8 00 00    	mov    0xa88a(%rip),%eax        # 10020 <crc32_context>
    5796:	f7 d0                	not    %eax
    5798:	89 c2                	mov    %eax,%edx
    579a:	48 8b 45 d8          	mov    -0x28(%rbp),%rax
    579e:	48 89 c6             	mov    %rax,%rsi
    57a1:	48 8d 3d 88 68 00 00 	lea    0x6888(%rip),%rdi        # c030 <_IO_stdin_used+0x30>
    57a8:	b8 00 00 00 00       	mov    $0x0,%eax
    57ad:	e8 ce e8 ff ff       	callq  4080 <printf@plt>
    57b2:	90                   	nop
    57b3:	c9                   	leaveq 
    57b4:	c3                   	retq   

00000000000057b5 <func_1>:
    57b5:	f3 0f 1e fa          	endbr64 
    57b9:	55                   	push   %rbp
    57ba:	48 89 e5             	mov    %rsp,%rbp
    57bd:	41 57                	push   %r15
    57bf:	41 56                	push   %r14
    57c1:	41 55                	push   %r13
    57c3:	41 54                	push   %r12
    57c5:	53                   	push   %rbx
    57c6:	48 83 ec 68          	sub    $0x68,%rsp
    57ca:	64 48 8b 04 25 28 00 	mov    %fs:0x28,%rax
    57d1:	00 00 
    57d3:	48 89 45 c8          	mov    %rax,-0x38(%rbp)
    57d7:	31 c0                	xor    %eax,%eax
    57d9:	48 8d 05 44 a8 00 00 	lea    0xa844(%rip),%rax        # 10024 <g_9>
    57e0:	48 89 45 a0          	mov    %rax,-0x60(%rbp)
    57e4:	0f b7 45 b6          	movzwl -0x4a(%rbp),%eax
    57e8:	83 e0 00             	and    $0x0,%eax
    57eb:	66 0d 3e 46          	or     $0x463e,%ax
    57ef:	66 89 45 b6          	mov    %ax,-0x4a(%rbp)
    57f3:	0f b7 45 b8          	movzwl -0x48(%rbp),%eax
    57f7:	66 25 00 80          	and    $0x8000,%ax
    57fb:	66 89 45 b8          	mov    %ax,-0x48(%rbp)
    57ff:	48 b8 a7 11 0e b4 d1 	movabs $0xea33a4d1b40e11a7,%rax
    5806:	a4 33 ea 
    5809:	48 89 45 ba          	mov    %rax,-0x46(%rbp)
    580d:	48 8d 05 10 a8 00 00 	lea    0xa810(%rip),%rax        # 10024 <g_9>
    5814:	48 89 45 90          	mov    %rax,-0x70(%rbp)
    5818:	48 8d 45 90          	lea    -0x70(%rbp),%rax
    581c:	48 89 45 a8          	mov    %rax,-0x58(%rbp)
    5820:	48 c7 45 98 00 00 00 	movq   $0x0,-0x68(%rbp)
    5827:	00 
    5828:	c7 45 8c 00 00 00 00 	movl   $0x0,-0x74(%rbp)
    582f:	eb 10                	jmp    5841 <func_1+0x8c>
    5831:	8b 45 8c             	mov    -0x74(%rbp),%eax
    5834:	48 98                	cltq   
    5836:	66 c7 44 45 c2 01 00 	movw   $0x1,-0x3e(%rbp,%rax,2)
    583d:	83 45 8c 01          	addl   $0x1,-0x74(%rbp)
    5841:	83 7d 8c 02          	cmpl   $0x2,-0x74(%rbp)
    5845:	7e ea                	jle    5831 <func_1+0x7c>
    5847:	48 8b 1d d2 b1 00 00 	mov    0xb1d2(%rip),%rbx        # 10a20 <g_8>
    584e:	0f b7 45 c2          	movzwl -0x3e(%rbp),%eax
    5852:	44 0f b7 e0          	movzwl %ax,%r12d
    5856:	48 8b 45 ba          	mov    -0x46(%rbp),%rax
    585a:	44 0f b7 e8          	movzwl %ax,%r13d
    585e:	0f b7 45 b6          	movzwl -0x4a(%rbp),%eax
    5862:	0f b7 55 b8          	movzwl -0x48(%rbp),%edx
    5866:	81 e2 ff 7f 00 00    	and    $0x7fff,%edx
    586c:	48 c1 e2 10          	shl    $0x10,%rdx
    5870:	48 09 d0             	or     %rdx,%rax
    5873:	0f b7 c0             	movzwl %ax,%eax
    5876:	89 85 7c ff ff ff    	mov    %eax,-0x84(%rbp)
    587c:	4c 8b 3d 9d b1 00 00 	mov    0xb19d(%rip),%r15        # 10a20 <g_8>
    5883:	4c 8b 35 96 b1 00 00 	mov    0xb196(%rip),%r14        # 10a20 <g_8>
    588a:	0f b7 45 c2          	movzwl -0x3e(%rbp),%eax
    588e:	0f b7 f8             	movzwl %ax,%edi
    5891:	89 bd 78 ff ff ff    	mov    %edi,-0x88(%rbp)
    5897:	48 8b 55 a0          	mov    -0x60(%rbp),%rdx
    589b:	48 83 ec 10          	sub    $0x10,%rsp
    589f:	48 89 e0             	mov    %rsp,%rax
    58a2:	48 8b 4d b6          	mov    -0x4a(%rbp),%rcx
    58a6:	48 89 08             	mov    %rcx,(%rax)
    58a9:	8b 4d be             	mov    -0x42(%rbp),%ecx
    58ac:	89 48 08             	mov    %ecx,0x8(%rax)
    58af:	48 89 d7             	mov    %rdx,%rdi
    58b2:	e8 55 1b 00 00       	callq  740c <func_34>
    58b7:	48 83 c4 10          	add    $0x10,%rsp
    58bb:	48 8b 55 a8          	mov    -0x58(%rbp),%rdx
    58bf:	48 89 02             	mov    %rax,(%rdx)
    58c2:	48 8b 45 a8          	mov    -0x58(%rbp),%rax
    58c6:	48 8b 00             	mov    (%rax),%rax
    58c9:	48 8d 15 84 67 00 00 	lea    0x6784(%rip),%rdx        # c054 <g_958>
    58d0:	48 39 d0             	cmp    %rdx,%rax
    58d3:	0f 95 c0             	setne  %al
    58d6:	0f b6 c0             	movzbl %al,%eax
    58d9:	8b b5 78 ff ff ff    	mov    -0x88(%rbp),%esi
    58df:	89 c7                	mov    %eax,%edi
    58e1:	e8 3f f6 ff ff       	callq  4f25 <safe_div_func_uint32_t_u_u>
    58e6:	0f be c0             	movsbl %al,%eax
    58e9:	be 56 00 00 00       	mov    $0x56,%esi
    58ee:	89 c7                	mov    %eax,%edi
    58f0:	e8 df e8 ff ff       	callq  41d4 <safe_add_func_int8_t_s_s>
    58f5:	0f b7 45 c6          	movzwl -0x3a(%rbp),%eax
    58f9:	0f be c0             	movsbl %al,%eax
    58fc:	be 01 00 00 00       	mov    $0x1,%esi
    5901:	89 c7                	mov    %eax,%edi
    5903:	e8 0a e9 ff ff       	callq  4212 <safe_mul_func_int8_t_s_s>
    5908:	0f be c0             	movsbl %al,%eax
    590b:	8b 8d 7c ff ff ff    	mov    -0x84(%rbp),%ecx
    5911:	4c 89 fa             	mov    %r15,%rdx
    5914:	4c 89 f6             	mov    %r14,%rsi
    5917:	89 c7                	mov    %eax,%edi
    5919:	e8 f2 0e 00 00       	callq  6810 <func_23>
    591e:	0f b7 c0             	movzwl %ax,%eax
    5921:	be 0b 00 00 00       	mov    $0xb,%esi
    5926:	89 c7                	mov    %eax,%edi
    5928:	e8 1b f5 ff ff       	callq  4e48 <safe_rshift_func_uint16_t_u_s>
    592d:	0f b6 d0             	movzbl %al,%edx
    5930:	0f b7 45 c2          	movzwl -0x3e(%rbp),%eax
    5934:	0f b7 c0             	movzwl %ax,%eax
    5937:	48 8b 75 a0          	mov    -0x60(%rbp),%rsi
    593b:	44 89 e9             	mov    %r13d,%ecx
    593e:	89 c7                	mov    %eax,%edi
    5940:	e8 62 01 00 00       	callq  5aa7 <func_15>
    5945:	48 89 c7             	mov    %rax,%rdi
    5948:	48 8b 55 98          	mov    -0x68(%rbp),%rdx
    594c:	48 8b 45 a0          	mov    -0x60(%rbp),%rax
    5950:	44 89 e1             	mov    %r12d,%ecx
    5953:	48 89 c6             	mov    %rax,%rsi
    5956:	e8 1f 01 00 00       	callq  5a7a <func_10>
    595b:	89 c2                	mov    %eax,%edx
    595d:	48 8b 35 bc b0 00 00 	mov    0xb0bc(%rip),%rsi        # 10a20 <g_8>
    5964:	0f b7 45 c2          	movzwl -0x3e(%rbp),%eax
    5968:	0f b7 c0             	movzwl %ax,%eax
    596b:	4c 8b 25 26 bd 00 00 	mov    0xbd26(%rip),%r12        # 11698 <g_1410>
    5972:	48 89 d9             	mov    %rbx,%rcx
    5975:	89 c7                	mov    %eax,%edi
    5977:	e8 36 00 00 00       	callq  59b2 <func_2>
    597c:	41 89 04 24          	mov    %eax,(%r12)
    5980:	48 8b 05 b9 bc 00 00 	mov    0xbcb9(%rip),%rax        # 11640 <g_1093>
    5987:	48 8b 00             	mov    (%rax),%rax
    598a:	48 8b 00             	mov    (%rax),%rax
    598d:	8b 00                	mov    (%rax),%eax
    598f:	48 8b 5d c8          	mov    -0x38(%rbp),%rbx
    5993:	64 48 33 1c 25 28 00 	xor    %fs:0x28,%rbx
    599a:	00 00 
    599c:	74 05                	je     59a3 <func_1+0x1ee>
    599e:	e8 cd e6 ff ff       	callq  4070 <__stack_chk_fail@plt>
    59a3:	48 8d 65 d8          	lea    -0x28(%rbp),%rsp
    59a7:	5b                   	pop    %rbx
    59a8:	41 5c                	pop    %r12
    59aa:	41 5d                	pop    %r13
    59ac:	41 5e                	pop    %r14
    59ae:	41 5f                	pop    %r15
    59b0:	5d                   	pop    %rbp
    59b1:	c3                   	retq   

00000000000059b2 <func_2>:
    59b2:	f3 0f 1e fa          	endbr64 
    59b6:	55                   	push   %rbp
    59b7:	48 89 e5             	mov    %rsp,%rbp
    59ba:	48 83 ec 48          	sub    $0x48,%rsp
    59be:	89 7d cc             	mov    %edi,-0x34(%rbp)
    59c1:	48 89 75 c0          	mov    %rsi,-0x40(%rbp)
    59c5:	89 55 c8             	mov    %edx,-0x38(%rbp)
    59c8:	48 89 4d b8          	mov    %rcx,-0x48(%rbp)
    59cc:	48 c7 45 e0 00 00 00 	movq   $0x0,-0x20(%rbp)
    59d3:	00 
    59d4:	48 8d 05 7d bc 00 00 	lea    0xbc7d(%rip),%rax        # 11658 <g_1103>
    59db:	48 89 45 e8          	mov    %rax,-0x18(%rbp)
    59df:	c7 45 d8 fe ff ff ff 	movl   $0xfffffffe,-0x28(%rbp)
    59e6:	48 8d 05 e3 a6 00 00 	lea    0xa6e3(%rip),%rax        # 100d0 <g_132>
    59ed:	48 89 45 f0          	mov    %rax,-0x10(%rbp)
    59f1:	48 8d 05 d0 a7 00 00 	lea    0xa7d0(%rip),%rax        # 101c8 <g_1134+0x28>
    59f8:	48 89 45 f8          	mov    %rax,-0x8(%rbp)
    59fc:	c7 45 dc 01 00 00 00 	movl   $0x1,-0x24(%rbp)
    5a03:	48 8b 45 e0          	mov    -0x20(%rbp),%rax
    5a07:	48 89 05 82 bc 00 00 	mov    %rax,0xbc82(%rip)        # 11690 <g_1399>
    5a0e:	8b 45 d8             	mov    -0x28(%rbp),%eax
    5a11:	0f b6 d0             	movzbl %al,%edx
    5a14:	48 8d 05 9d b2 00 00 	lea    0xb29d(%rip),%rax        # 10cb8 <g_454>
    5a1b:	48 8b 00             	mov    (%rax),%rax
    5a1e:	0f b7 08             	movzwl (%rax),%ecx
    5a21:	48 8b 45 f0          	mov    -0x10(%rbp),%rax
    5a25:	0f b7 00             	movzwl (%rax),%eax
    5a28:	8b 75 d8             	mov    -0x28(%rbp),%esi
    5a2b:	89 f7                	mov    %esi,%edi
    5a2d:	8b 75 c8             	mov    -0x38(%rbp),%esi
    5a30:	31 fe                	xor    %edi,%esi
    5a32:	31 c6                	xor    %eax,%esi
    5a34:	48 8b 45 f0          	mov    -0x10(%rbp),%rax
    5a38:	66 89 30             	mov    %si,(%rax)
    5a3b:	48 8b 45 f0          	mov    -0x10(%rbp),%rax
    5a3f:	0f b7 00             	movzwl (%rax),%eax
    5a42:	66 39 c1             	cmp    %ax,%cx
    5a45:	0f 92 c0             	setb   %al
    5a48:	0f b6 c0             	movzbl %al,%eax
    5a4b:	89 d6                	mov    %edx,%esi
    5a4d:	89 c7                	mov    %eax,%edi
    5a4f:	e8 5a f1 ff ff       	callq  4bae <safe_mod_func_uint8_t_u_u>
    5a54:	0f b6 c0             	movzbl %al,%eax
    5a57:	89 c6                	mov    %eax,%esi
    5a59:	bf 00 00 00 00       	mov    $0x0,%edi
    5a5e:	e8 50 e9 ff ff       	callq  43b3 <safe_add_func_int16_t_s_s>
    5a63:	0f bf d0             	movswl %ax,%edx
    5a66:	48 8b 45 f8          	mov    -0x8(%rbp),%rax
    5a6a:	89 10                	mov    %edx,(%rax)
    5a6c:	48 8b 45 f8          	mov    -0x8(%rbp),%rax
    5a70:	8b 00                	mov    (%rax),%eax
    5a72:	31 45 dc             	xor    %eax,-0x24(%rbp)
    5a75:	8b 45 cc             	mov    -0x34(%rbp),%eax
    5a78:	c9                   	leaveq 
    5a79:	c3                   	retq   

0000000000005a7a <func_10>:
    5a7a:	f3 0f 1e fa          	endbr64 
    5a7e:	55                   	push   %rbp
    5a7f:	48 89 e5             	mov    %rsp,%rbp
    5a82:	48 89 7d f8          	mov    %rdi,-0x8(%rbp)
    5a86:	48 89 75 f0          	mov    %rsi,-0x10(%rbp)
    5a8a:	48 89 55 e8          	mov    %rdx,-0x18(%rbp)
    5a8e:	89 4d e4             	mov    %ecx,-0x1c(%rbp)
    5a91:	48 8b 05 60 b2 00 00 	mov    0xb260(%rip),%rax        # 10cf8 <g_886>
    5a98:	48 8b 15 59 a1 00 00 	mov    0xa159(%rip),%rdx        # fbf8 <l_1396.4156+0x18>
    5a9f:	48 89 10             	mov    %rdx,(%rax)
    5aa2:	8b 45 e4             	mov    -0x1c(%rbp),%eax
    5aa5:	5d                   	pop    %rbp
    5aa6:	c3                   	retq   

0000000000005aa7 <func_15>:
    5aa7:	f3 0f 1e fa          	endbr64 
    5aab:	55                   	push   %rbp
    5aac:	48 89 e5             	mov    %rsp,%rbp
    5aaf:	41 57                	push   %r15
    5ab1:	41 56                	push   %r14
    5ab3:	41 55                	push   %r13
    5ab5:	41 54                	push   %r12
    5ab7:	53                   	push   %rbx
    5ab8:	48 81 ec 18 03 00 00 	sub    $0x318,%rsp
    5abf:	89 bd dc fc ff ff    	mov    %edi,-0x324(%rbp)
    5ac5:	48 89 b5 d0 fc ff ff 	mov    %rsi,-0x330(%rbp)
    5acc:	89 c8                	mov    %ecx,%eax
    5ace:	88 95 d8 fc ff ff    	mov    %dl,-0x328(%rbp)
    5ad4:	66 89 85 cc fc ff ff 	mov    %ax,-0x334(%rbp)
    5adb:	64 48 8b 04 25 28 00 	mov    %fs:0x28,%rax
    5ae2:	00 00 
    5ae4:	48 89 45 c8          	mov    %rax,-0x38(%rbp)
    5ae8:	31 c0                	xor    %eax,%eax
    5aea:	48 8d 05 67 a5 00 00 	lea    0xa567(%rip),%rax        # 10058 <g_70+0x18>
    5af1:	48 89 85 38 fd ff ff 	mov    %rax,-0x2c8(%rbp)
    5af8:	48 8d 05 35 a5 00 00 	lea    0xa535(%rip),%rax        # 10034 <g_62+0x4>
    5aff:	48 89 85 40 fd ff ff 	mov    %rax,-0x2c0(%rbp)
    5b06:	48 8d 05 c3 a5 00 00 	lea    0xa5c3(%rip),%rax        # 100d0 <g_132>
    5b0d:	48 89 85 48 fd ff ff 	mov    %rax,-0x2b8(%rbp)
    5b14:	48 8d 05 ed bf 00 00 	lea    0xbfed(%rip),%rax        # 11b08 <g_486>
    5b1b:	48 89 85 50 fd ff ff 	mov    %rax,-0x2b0(%rbp)
    5b22:	c7 85 f0 fc ff ff ff 	movl   $0xffffffff,-0x310(%rbp)
    5b29:	ff ff ff 
    5b2c:	c7 85 f4 fc ff ff 26 	movl   $0x17ef6c26,-0x30c(%rbp)
    5b33:	6c ef 17 
    5b36:	c7 85 0c fd ff ff 41 	movl   $0x97f22d41,-0x2f4(%rbp)
    5b3d:	2d f2 97 
    5b40:	c7 85 f8 fc ff ff 01 	movl   $0x1,-0x308(%rbp)
    5b47:	00 00 00 
    5b4a:	48 8d 85 d0 fd ff ff 	lea    -0x230(%rbp),%rax
    5b51:	48 83 c0 10          	add    $0x10,%rax
    5b55:	48 89 85 20 fd ff ff 	mov    %rax,-0x2e0(%rbp)
    5b5c:	48 8d 85 20 fd ff ff 	lea    -0x2e0(%rbp),%rax
    5b63:	48 89 85 58 fd ff ff 	mov    %rax,-0x2a8(%rbp)
    5b6a:	8b 85 b4 fd ff ff    	mov    -0x24c(%rbp),%eax
    5b70:	25 00 00 00 80       	and    $0x80000000,%eax
    5b75:	0d 01 2e 00 00       	or     $0x2e01,%eax
    5b7a:	89 85 b4 fd ff ff    	mov    %eax,-0x24c(%rbp)
    5b80:	48 b8 7b e4 2d a7 f4 	movabs $0xb586fff4a72de47b,%rax
    5b87:	ff 86 b5 
    5b8a:	48 89 85 b8 fd ff ff 	mov    %rax,-0x248(%rbp)
    5b91:	48 c7 85 60 fd ff ff 	movq   $0x0,-0x2a0(%rbp)
    5b98:	00 00 00 00 
    5b9c:	c7 85 10 fd ff ff 00 	movl   $0x0,-0x2f0(%rbp)
    5ba3:	00 00 00 
    5ba6:	c7 85 fc fc ff ff 00 	movl   $0x0,-0x304(%rbp)
    5bad:	00 00 00 
    5bb0:	eb 1e                	jmp    5bd0 <func_15+0x129>
    5bb2:	8b 85 fc fc ff ff    	mov    -0x304(%rbp),%eax
    5bb8:	48 98                	cltq   
    5bba:	48 8d 15 37 bf 00 00 	lea    0xbf37(%rip),%rdx        # 11af8 <g_302>
    5bc1:	48 89 94 c5 d0 fd ff 	mov    %rdx,-0x230(%rbp,%rax,8)
    5bc8:	ff 
    5bc9:	83 85 fc fc ff ff 01 	addl   $0x1,-0x304(%rbp)
    5bd0:	83 bd fc fc ff ff 02 	cmpl   $0x2,-0x304(%rbp)
    5bd7:	7e d9                	jle    5bb2 <func_15+0x10b>
    5bd9:	90                   	nop
    5bda:	48 8b 05 87 ba 00 00 	mov    0xba87(%rip),%rax        # 11668 <g_1267>
    5be1:	48 8b 95 38 fd ff ff 	mov    -0x2c8(%rbp),%rdx
    5be8:	48 89 10             	mov    %rdx,(%rax)
    5beb:	48 8b 85 40 fd ff ff 	mov    -0x2c0(%rbp),%rax
    5bf2:	48 8b 00             	mov    (%rax),%rax
    5bf5:	48 8d 50 ff          	lea    -0x1(%rax),%rdx
    5bf9:	48 8b 85 40 fd ff ff 	mov    -0x2c0(%rbp),%rax
    5c00:	48 89 10             	mov    %rdx,(%rax)
    5c03:	48 8b 85 40 fd ff ff 	mov    -0x2c0(%rbp),%rax
    5c0a:	4c 8b 28             	mov    (%rax),%r13
    5c0d:	48 8b 85 48 fd ff ff 	mov    -0x2b8(%rbp),%rax
    5c14:	0f b7 00             	movzwl (%rax),%eax
    5c17:	8d 48 ff             	lea    -0x1(%rax),%ecx
    5c1a:	48 8b 95 48 fd ff ff 	mov    -0x2b8(%rbp),%rdx
    5c21:	66 89 0a             	mov    %cx,(%rdx)
    5c24:	44 0f b7 f0          	movzwl %ax,%r14d
    5c28:	48 8b 1d 35 a4 00 00 	mov    0xa435(%rip),%rbx        # 10064 <g_82+0x4>
    5c2f:	bf 00 00 00 00       	mov    $0x0,%edi
    5c34:	e8 6d f2 ff ff       	callq  4ea6 <safe_unary_minus_func_uint32_t_u>
    5c39:	48 8b 85 d0 fc ff ff 	mov    -0x330(%rbp),%rax
    5c40:	c6 00 00             	movb   $0x0,(%rax)
    5c43:	48 8b 85 d0 fc ff ff 	mov    -0x330(%rbp),%rax
    5c4a:	0f b6 00             	movzbl (%rax),%eax
    5c4d:	0f be c0             	movsbl %al,%eax
    5c50:	39 85 dc fc ff ff    	cmp    %eax,-0x324(%rbp)
    5c56:	0f 95 85 c8 fc ff ff 	setne  -0x338(%rbp)
    5c5d:	48 8b 85 38 fd ff ff 	mov    -0x2c8(%rbp),%rax
    5c64:	44 8b 20             	mov    (%rax),%r12d
    5c67:	44 0f b6 bd d8 fc ff 	movzbl -0x328(%rbp),%r15d
    5c6e:	ff 
    5c6f:	48 8b 85 38 fd ff ff 	mov    -0x2c8(%rbp),%rax
    5c76:	8b 00                	mov    (%rax),%eax
    5c78:	48 98                	cltq   
    5c7a:	48 89 c6             	mov    %rax,%rsi
    5c7d:	48 bf 69 51 ab 42 5f 	movabs $0xb47ad15f42ab5169,%rdi
    5c84:	d1 7a b4 
    5c87:	e8 28 ed ff ff       	callq  49b4 <safe_mod_func_int64_t_s_s>
    5c8c:	48 85 c0             	test   %rax,%rax
    5c8f:	74 10                	je     5ca1 <func_15+0x1fa>
    5c91:	80 bd d8 fc ff ff 00 	cmpb   $0x0,-0x328(%rbp)
    5c98:	74 07                	je     5ca1 <func_15+0x1fa>
    5c9a:	b8 01 00 00 00       	mov    $0x1,%eax
    5c9f:	eb 05                	jmp    5ca6 <func_15+0x1ff>
    5ca1:	b8 00 00 00 00       	mov    $0x0,%eax
    5ca6:	44 39 f8             	cmp    %r15d,%eax
    5ca9:	0f 94 c0             	sete   %al
    5cac:	0f b6 c0             	movzbl %al,%eax
    5caf:	89 c7                	mov    %eax,%edi
    5cb1:	e8 8f ee ff ff       	callq  4b45 <safe_unary_minus_func_uint8_t_u>
    5cb6:	0f b6 c0             	movzbl %al,%eax
    5cb9:	44 89 e6             	mov    %r12d,%esi
    5cbc:	89 c7                	mov    %eax,%edi
    5cbe:	e8 09 ea ff ff       	callq  46cc <safe_mod_func_int32_t_s_s>
    5cc3:	3d b7 00 00 00       	cmp    $0xb7,%eax
    5cc8:	0f 9f c0             	setg   %al
    5ccb:	32 85 c8 fc ff ff    	xor    -0x338(%rbp),%al
    5cd1:	0f b6 c0             	movzbl %al,%eax
    5cd4:	48 89 de             	mov    %rbx,%rsi
    5cd7:	48 89 c7             	mov    %rax,%rdi
    5cda:	e8 6c f3 ff ff       	callq  504b <safe_sub_func_uint64_t_u_u>
    5cdf:	0f be c0             	movsbl %al,%eax
    5ce2:	be 02 00 00 00       	mov    $0x2,%esi
    5ce7:	89 c7                	mov    %eax,%edi
    5ce9:	e8 7e e6 ff ff       	callq  436c <safe_rshift_func_int8_t_s_u>
    5cee:	0f be c0             	movsbl %al,%eax
    5cf1:	41 39 c6             	cmp    %eax,%r14d
    5cf4:	0f 9f c0             	setg   %al
    5cf7:	0f b6 c0             	movzbl %al,%eax
    5cfa:	31 85 dc fc ff ff    	xor    %eax,-0x324(%rbp)
    5d00:	8b 85 dc fc ff ff    	mov    -0x324(%rbp),%eax
    5d06:	49 39 c5             	cmp    %rax,%r13
    5d09:	0f 93 c2             	setae  %dl
    5d0c:	48 8b 05 15 ad 00 00 	mov    0xad15(%rip),%rax        # 10a28 <g_96>
    5d13:	0f b6 d2             	movzbl %dl,%edx
    5d16:	89 10                	mov    %edx,(%rax)
    5d18:	83 bd dc fc ff ff 00 	cmpl   $0x0,-0x324(%rbp)
    5d1f:	74 05                	je     5d26 <func_15+0x27f>
    5d21:	e9 b4 fe ff ff       	jmpq   5bda <func_15+0x133>
    5d26:	c7 05 c8 a3 00 00 00 	movl   $0x0,0xa3c8(%rip)        # 100f8 <g_295>
    5d2d:	00 00 00 
    5d30:	e9 9f 0a 00 00       	jmpq   67d4 <func_15+0xd2d>
    5d35:	c6 85 ea fc ff ff 3f 	movb   $0x3f,-0x316(%rbp)
    5d3c:	48 8d 05 2d b9 00 00 	lea    0xb92d(%rip),%rax        # 11670 <g_1308>
    5d43:	48 89 85 f0 fd ff ff 	mov    %rax,-0x210(%rbp)
    5d4a:	48 8d 05 1f b9 00 00 	lea    0xb91f(%rip),%rax        # 11670 <g_1308>
    5d51:	48 89 85 f8 fd ff ff 	mov    %rax,-0x208(%rbp)
    5d58:	48 8d 05 11 b9 00 00 	lea    0xb911(%rip),%rax        # 11670 <g_1308>
    5d5f:	48 89 85 00 fe ff ff 	mov    %rax,-0x200(%rbp)
    5d66:	48 8d 05 03 b9 00 00 	lea    0xb903(%rip),%rax        # 11670 <g_1308>
    5d6d:	48 89 85 08 fe ff ff 	mov    %rax,-0x1f8(%rbp)
    5d74:	48 8d 05 f5 b8 00 00 	lea    0xb8f5(%rip),%rax        # 11670 <g_1308>
    5d7b:	48 89 85 10 fe ff ff 	mov    %rax,-0x1f0(%rbp)
    5d82:	48 8d 05 e7 b8 00 00 	lea    0xb8e7(%rip),%rax        # 11670 <g_1308>
    5d89:	48 89 85 18 fe ff ff 	mov    %rax,-0x1e8(%rbp)
    5d90:	48 8d 05 d9 b8 00 00 	lea    0xb8d9(%rip),%rax        # 11670 <g_1308>
    5d97:	48 89 85 20 fe ff ff 	mov    %rax,-0x1e0(%rbp)
    5d9e:	48 8d 05 cb b8 00 00 	lea    0xb8cb(%rip),%rax        # 11670 <g_1308>
    5da5:	48 89 85 28 fe ff ff 	mov    %rax,-0x1d8(%rbp)
    5dac:	48 8d 05 bd b8 00 00 	lea    0xb8bd(%rip),%rax        # 11670 <g_1308>
    5db3:	48 89 85 30 fe ff ff 	mov    %rax,-0x1d0(%rbp)
    5dba:	66 c7 85 ec fc ff ff 	movw   $0x1,-0x314(%rbp)
    5dc1:	01 00 
    5dc3:	c7 85 14 fd ff ff 52 	movl   $0x4a269c52,-0x2ec(%rbp)
    5dca:	9c 26 4a 
    5dcd:	c6 85 eb fc ff ff 01 	movb   $0x1,-0x315(%rbp)
    5dd4:	c7 85 18 fd ff ff e0 	movl   $0x78eb03e0,-0x2e8(%rbp)
    5ddb:	03 eb 78 
    5dde:	48 8d 85 ea fc ff ff 	lea    -0x316(%rbp),%rax
    5de5:	48 89 85 68 fd ff ff 	mov    %rax,-0x298(%rbp)
    5dec:	48 8d 05 8d b8 00 00 	lea    0xb88d(%rip),%rax        # 11680 <g_1352>
    5df3:	48 89 85 40 fe ff ff 	mov    %rax,-0x1c0(%rbp)
    5dfa:	48 8d 05 7f b8 00 00 	lea    0xb87f(%rip),%rax        # 11680 <g_1352>
    5e01:	48 89 85 48 fe ff ff 	mov    %rax,-0x1b8(%rbp)
    5e08:	48 8d 05 71 b8 00 00 	lea    0xb871(%rip),%rax        # 11680 <g_1352>
    5e0f:	48 89 85 50 fe ff ff 	mov    %rax,-0x1b0(%rbp)
    5e16:	48 8d 05 63 b8 00 00 	lea    0xb863(%rip),%rax        # 11680 <g_1352>
    5e1d:	48 89 85 58 fe ff ff 	mov    %rax,-0x1a8(%rbp)
    5e24:	48 8d 05 55 b8 00 00 	lea    0xb855(%rip),%rax        # 11680 <g_1352>
    5e2b:	48 89 85 60 fe ff ff 	mov    %rax,-0x1a0(%rbp)
    5e32:	48 8d 05 47 b8 00 00 	lea    0xb847(%rip),%rax        # 11680 <g_1352>
    5e39:	48 89 85 68 fe ff ff 	mov    %rax,-0x198(%rbp)
    5e40:	48 8d 05 39 b8 00 00 	lea    0xb839(%rip),%rax        # 11680 <g_1352>
    5e47:	48 89 85 70 fe ff ff 	mov    %rax,-0x190(%rbp)
    5e4e:	48 8d 05 2b b8 00 00 	lea    0xb82b(%rip),%rax        # 11680 <g_1352>
    5e55:	48 89 85 78 fe ff ff 	mov    %rax,-0x188(%rbp)
    5e5c:	48 8d 05 1d b8 00 00 	lea    0xb81d(%rip),%rax        # 11680 <g_1352>
    5e63:	48 89 85 80 fe ff ff 	mov    %rax,-0x180(%rbp)
    5e6a:	48 8d 05 65 a2 00 00 	lea    0xa265(%rip),%rax        # 100d6 <g_211>
    5e71:	48 89 85 70 fd ff ff 	mov    %rax,-0x290(%rbp)
    5e78:	48 c7 85 28 fd ff ff 	movq   $0x0,-0x2d8(%rbp)
    5e7f:	00 00 00 00 
    5e83:	48 c7 85 78 fd ff ff 	movq   $0x0,-0x288(%rbp)
    5e8a:	00 00 00 00 
    5e8e:	48 8d 05 0b a2 00 00 	lea    0xa20b(%rip),%rax        # 100a0 <g_118>
    5e95:	48 89 85 80 fd ff ff 	mov    %rax,-0x280(%rbp)
    5e9c:	c6 05 81 a1 00 00 00 	movb   $0x0,0xa181(%rip)        # 10024 <g_9>
    5ea3:	e9 a3 02 00 00       	jmpq   614b <func_15+0x6a4>
    5ea8:	48 c7 85 30 fd ff ff 	movq   $0x0,-0x2d0(%rbp)
    5eaf:	00 00 00 00 
    5eb3:	48 8d 85 30 fd ff ff 	lea    -0x2d0(%rbp),%rax
    5eba:	48 89 85 90 fd ff ff 	mov    %rax,-0x270(%rbp)
    5ec1:	48 8d 05 ac a1 00 00 	lea    0xa1ac(%rip),%rax        # 10074 <g_109+0x4>
    5ec8:	48 89 85 98 fd ff ff 	mov    %rax,-0x268(%rbp)
    5ecf:	48 c7 85 a0 fd ff ff 	movq   $0x0,-0x260(%rbp)
    5ed6:	00 00 00 00 
    5eda:	48 8d 05 2b a2 00 00 	lea    0xa22b(%rip),%rax        # 1010c <g_450>
    5ee1:	48 89 85 a8 fd ff ff 	mov    %rax,-0x258(%rbp)
    5ee8:	c7 85 00 fd ff ff 00 	movl   $0x0,-0x300(%rbp)
    5eef:	00 00 00 
    5ef2:	eb 1e                	jmp    5f12 <func_15+0x46b>
    5ef4:	8b 85 00 fd ff ff    	mov    -0x300(%rbp),%eax
    5efa:	48 98                	cltq   
    5efc:	48 8d 15 75 b7 00 00 	lea    0xb775(%rip),%rdx        # 11678 <g_1307>
    5f03:	48 89 94 c5 90 fe ff 	mov    %rdx,-0x170(%rbp,%rax,8)
    5f0a:	ff 
    5f0b:	83 85 00 fd ff ff 01 	addl   $0x1,-0x300(%rbp)
    5f12:	83 bd 00 fd ff ff 03 	cmpl   $0x3,-0x300(%rbp)
    5f19:	7e d9                	jle    5ef4 <func_15+0x44d>
    5f1b:	0f b7 85 cc fc ff ff 	movzwl -0x334(%rbp),%eax
    5f22:	0f b6 c0             	movzbl %al,%eax
    5f25:	be 03 00 00 00       	mov    $0x3,%esi
    5f2a:	89 c7                	mov    %eax,%edi
    5f2c:	e8 1b ed ff ff       	callq  4c4c <safe_lshift_func_uint8_t_u_u>
    5f31:	84 c0                	test   %al,%al
    5f33:	0f 85 da 00 00 00    	jne    6013 <func_15+0x56c>
    5f39:	48 8d 05 b0 bb 00 00 	lea    0xbbb0(%rip),%rax        # 11af0 <g_219>
    5f40:	48 39 85 90 fd ff ff 	cmp    %rax,-0x270(%rbp)
    5f47:	0f 95 c0             	setne  %al
    5f4a:	44 0f b6 e0          	movzbl %al,%r12d
    5f4e:	8b 85 dc fc ff ff    	mov    -0x324(%rbp),%eax
    5f54:	8d 50 01             	lea    0x1(%rax),%edx
    5f57:	89 95 dc fc ff ff    	mov    %edx,-0x324(%rbp)
    5f5d:	48 8b 95 98 fd ff ff 	mov    -0x268(%rbp),%rdx
    5f64:	8b 12                	mov    (%rdx),%edx
    5f66:	8d 4a ff             	lea    -0x1(%rdx),%ecx
    5f69:	48 8b 95 98 fd ff ff 	mov    -0x268(%rbp),%rdx
    5f70:	89 0a                	mov    %ecx,(%rdx)
    5f72:	48 8b 95 98 fd ff ff 	mov    -0x268(%rbp),%rdx
    5f79:	8b 12                	mov    (%rdx),%edx
    5f7b:	39 d0                	cmp    %edx,%eax
    5f7d:	0f 94 c0             	sete   %al
    5f80:	0f b6 d8             	movzbl %al,%ebx
    5f83:	48 8b 85 d0 fc ff ff 	mov    -0x330(%rbp),%rax
    5f8a:	0f b6 00             	movzbl (%rax),%eax
    5f8d:	0f be c0             	movsbl %al,%eax
    5f90:	be 00 00 00 00       	mov    $0x0,%esi
    5f95:	89 c7                	mov    %eax,%edi
    5f97:	e8 05 e3 ff ff       	callq  42a1 <safe_lshift_func_int8_t_s_s>
    5f9c:	0f be c0             	movsbl %al,%eax
    5f9f:	89 de                	mov    %ebx,%esi
    5fa1:	89 c7                	mov    %eax,%edi
    5fa3:	e8 4d e4 ff ff       	callq  43f5 <safe_mul_func_int16_t_s_s>
    5fa8:	0f bf d8             	movswl %ax,%ebx
    5fab:	0f b6 85 d8 fc ff ff 	movzbl -0x328(%rbp),%eax
    5fb2:	89 c7                	mov    %eax,%edi
    5fb4:	e8 e4 e3 ff ff       	callq  439d <safe_unary_minus_func_int16_t_s>
    5fb9:	98                   	cwtl   
    5fba:	89 c7                	mov    %eax,%edi
    5fbc:	e8 d5 e5 ff ff       	callq  4596 <safe_unary_minus_func_int32_t_s>
    5fc1:	48 8b 05 b0 b6 00 00 	mov    0xb6b0(%rip),%rax        # 11678 <g_1307>
    5fc8:	48 89 85 f8 fd ff ff 	mov    %rax,-0x208(%rbp)
    5fcf:	48 8b 85 f8 fd ff ff 	mov    -0x208(%rbp),%rax
    5fd6:	48 8d 15 93 b6 00 00 	lea    0xb693(%rip),%rdx        # 11670 <g_1308>
    5fdd:	48 39 d0             	cmp    %rdx,%rax
    5fe0:	0f 94 c0             	sete   %al
    5fe3:	0f b6 d0             	movzbl %al,%edx
    5fe6:	48 8b 85 a8 fd ff ff 	mov    -0x258(%rbp),%rax
    5fed:	89 10                	mov    %edx,(%rax)
    5fef:	48 8b 85 a8 fd ff ff 	mov    -0x258(%rbp),%rax
    5ff6:	8b 10                	mov    (%rax),%edx
    5ff8:	0f b6 85 ea fc ff ff 	movzbl -0x316(%rbp),%eax
    5fff:	0f be c0             	movsbl %al,%eax
    6002:	39 c2                	cmp    %eax,%edx
    6004:	0f 93 c0             	setae  %al
    6007:	0f b6 c0             	movzbl %al,%eax
    600a:	21 d8                	and    %ebx,%eax
    600c:	44 21 e0             	and    %r12d,%eax
    600f:	85 c0                	test   %eax,%eax
    6011:	74 07                	je     601a <func_15+0x573>
    6013:	ba 01 00 00 00       	mov    $0x1,%edx
    6018:	eb 05                	jmp    601f <func_15+0x578>
    601a:	ba 00 00 00 00       	mov    $0x0,%edx
    601f:	48 8b 05 42 b6 00 00 	mov    0xb642(%rip),%rax        # 11668 <g_1267>
    6026:	48 8b 00             	mov    (%rax),%rax
    6029:	89 10                	mov    %edx,(%rax)
    602b:	66 c7 05 9e a0 00 00 	movw   $0xfffd,0xa09e(%rip)        # 100d2 <g_165>
    6032:	fd ff 
    6034:	e9 d5 00 00 00       	jmpq   610e <func_15+0x667>
    6039:	8b 85 20 ff ff ff    	mov    -0xe0(%rbp),%eax
    603f:	25 00 00 00 80       	and    $0x80000000,%eax
    6044:	0d ff 90 00 00       	or     $0x90ff,%eax
    6049:	89 85 20 ff ff ff    	mov    %eax,-0xe0(%rbp)
    604f:	48 b9 f1 0a 8d 18 c4 	movabs $0xc32c5bc4188d0af1,%rcx
    6056:	5b 2c c3 
    6059:	48 89 8d 24 ff ff ff 	mov    %rcx,-0xdc(%rbp)
    6060:	8b 85 2c ff ff ff    	mov    -0xd4(%rbp),%eax
    6066:	25 00 00 00 80       	and    $0x80000000,%eax
    606b:	0d ff 90 00 00       	or     $0x90ff,%eax
    6070:	89 85 2c ff ff ff    	mov    %eax,-0xd4(%rbp)
    6076:	48 89 8d 30 ff ff ff 	mov    %rcx,-0xd0(%rbp)
    607d:	8b 85 38 ff ff ff    	mov    -0xc8(%rbp),%eax
    6083:	25 00 00 00 80       	and    $0x80000000,%eax
    6088:	0d ff 90 00 00       	or     $0x90ff,%eax
    608d:	89 85 38 ff ff ff    	mov    %eax,-0xc8(%rbp)
    6093:	48 89 8d 3c ff ff ff 	mov    %rcx,-0xc4(%rbp)
    609a:	c7 85 1c fd ff ff f0 	movl   $0xf29a1f0,-0x2e4(%rbp)
    60a1:	a1 29 0f 
    60a4:	66 c7 85 ee fc ff ff 	movw   $0xc3be,-0x312(%rbp)
    60ab:	be c3 
    60ad:	c7 85 04 fd ff ff 00 	movl   $0x0,-0x2fc(%rbp)
    60b4:	00 00 00 
    60b7:	eb 1a                	jmp    60d3 <func_15+0x62c>
    60b9:	8b 85 04 fd ff ff    	mov    -0x2fc(%rbp),%eax
    60bf:	48 98                	cltq   
    60c1:	c7 84 85 c0 fd ff ff 	movl   $0x5,-0x240(%rbp,%rax,4)
    60c8:	05 00 00 00 
    60cc:	83 85 04 fd ff ff 01 	addl   $0x1,-0x2fc(%rbp)
    60d3:	83 bd 04 fd ff ff 03 	cmpl   $0x3,-0x2fc(%rbp)
    60da:	7e dd                	jle    60b9 <func_15+0x612>
    60dc:	48 8b 05 65 ad 00 00 	mov    0xad65(%rip),%rax        # 10e48 <g_1018>
    60e3:	48 8b 95 20 ff ff ff 	mov    -0xe0(%rbp),%rdx
    60ea:	48 89 10             	mov    %rdx,(%rax)
    60ed:	8b 95 28 ff ff ff    	mov    -0xd8(%rbp),%edx
    60f3:	89 50 08             	mov    %edx,0x8(%rax)
    60f6:	83 ad f8 fc ff ff 01 	subl   $0x1,-0x308(%rbp)
    60fd:	0f b7 05 ce 9f 00 00 	movzwl 0x9fce(%rip),%eax        # 100d2 <g_165>
    6104:	83 e8 01             	sub    $0x1,%eax
    6107:	66 89 05 c4 9f 00 00 	mov    %ax,0x9fc4(%rip)        # 100d2 <g_165>
    610e:	0f b7 05 bd 9f 00 00 	movzwl 0x9fbd(%rip),%eax        # 100d2 <g_165>
    6115:	66 83 f8 fb          	cmp    $0xfffb,%ax
    6119:	0f 85 1a ff ff ff    	jne    6039 <func_15+0x592>
    611f:	0f b6 85 eb fc ff ff 	movzbl -0x315(%rbp),%eax
    6126:	83 e8 01             	sub    $0x1,%eax
    6129:	88 85 eb fc ff ff    	mov    %al,-0x315(%rbp)
    612f:	0f b6 05 ee 9e 00 00 	movzbl 0x9eee(%rip),%eax        # 10024 <g_9>
    6136:	0f be c0             	movsbl %al,%eax
    6139:	be 03 00 00 00       	mov    $0x3,%esi
    613e:	89 c7                	mov    %eax,%edi
    6140:	e8 73 ed ff ff       	callq  4eb8 <safe_add_func_uint32_t_u_u>
    6145:	88 05 d9 9e 00 00    	mov    %al,0x9ed9(%rip)        # 10024 <g_9>
    614b:	0f b6 05 d2 9e 00 00 	movzbl 0x9ed2(%rip),%eax        # 10024 <g_9>
    6152:	3c 1a                	cmp    $0x1a,%al
    6154:	0f 8f 4e fd ff ff    	jg     5ea8 <func_15+0x401>
    615a:	48 8b 85 d0 fc ff ff 	mov    -0x330(%rbp),%rax
    6161:	0f b6 00             	movzbl (%rax),%eax
    6164:	0f be d8             	movsbl %al,%ebx
    6167:	48 8b 85 38 fd ff ff 	mov    -0x2c8(%rbp),%rax
    616e:	8b 00                	mov    (%rax),%eax
    6170:	89 85 c8 fc ff ff    	mov    %eax,-0x338(%rbp)
    6176:	48 8b 85 d0 fc ff ff 	mov    -0x330(%rbp),%rax
    617d:	0f b6 00             	movzbl (%rax),%eax
    6180:	44 0f be e0          	movsbl %al,%r12d
    6184:	48 8b 85 d0 fc ff ff 	mov    -0x330(%rbp),%rax
    618b:	0f b6 00             	movzbl (%rax),%eax
    618e:	84 c0                	test   %al,%al
    6190:	0f 84 53 01 00 00    	je     62e9 <func_15+0x842>
    6196:	8b 85 dc fc ff ff    	mov    -0x324(%rbp),%eax
    619c:	8d 50 ff             	lea    -0x1(%rax),%edx
    619f:	89 95 dc fc ff ff    	mov    %edx,-0x324(%rbp)
    61a5:	48 8b 95 38 fd ff ff 	mov    -0x2c8(%rbp),%rdx
    61ac:	8b 12                	mov    (%rdx),%edx
    61ae:	31 d0                	xor    %edx,%eax
    61b0:	41 89 c7             	mov    %eax,%r15d
    61b3:	8b 05 ef b9 00 00    	mov    0xb9ef(%rip),%eax        # 11ba8 <g_1346>
    61b9:	89 c2                	mov    %eax,%edx
    61bb:	48 8b 85 68 fd ff ff 	mov    -0x298(%rbp),%rax
    61c2:	88 10                	mov    %dl,(%rax)
    61c4:	48 8b 85 68 fd ff ff 	mov    -0x298(%rbp),%rax
    61cb:	0f b6 00             	movzbl (%rax),%eax
    61ce:	0f be d0             	movsbl %al,%edx
    61d1:	8b 05 25 9f 00 00    	mov    0x9f25(%rip),%eax        # 100fc <g_381>
    61d7:	39 c2                	cmp    %eax,%edx
    61d9:	0f 93 c0             	setae  %al
    61dc:	44 0f b6 f0          	movzbl %al,%r14d
    61e0:	48 8b 85 38 fd ff ff 	mov    -0x2c8(%rbp),%rax
    61e7:	8b 00                	mov    (%rax),%eax
    61e9:	44 0f b6 e8          	movzbl %al,%r13d
    61ed:	8b 05 4d 9e 00 00    	mov    0x9e4d(%rip),%eax        # 10040 <g_70>
    61f3:	89 85 c4 fc ff ff    	mov    %eax,-0x33c(%rbp)
    61f9:	48 8b 85 38 fd ff ff 	mov    -0x2c8(%rbp),%rax
    6200:	8b 00                	mov    (%rax),%eax
    6202:	89 c2                	mov    %eax,%edx
    6204:	8b 05 da 9e 00 00    	mov    0x9eda(%rip),%eax        # 100e4 <g_261+0x4>
    620a:	89 c1                	mov    %eax,%ecx
    620c:	48 8b 85 70 fd ff ff 	mov    -0x290(%rbp),%rax
    6213:	88 08                	mov    %cl,(%rax)
    6215:	48 8b 85 70 fd ff ff 	mov    -0x290(%rbp),%rax
    621c:	0f b6 00             	movzbl (%rax),%eax
    621f:	0f b6 c0             	movzbl %al,%eax
    6222:	89 d6                	mov    %edx,%esi
    6224:	89 c7                	mov    %eax,%edi
    6226:	e8 93 ea ff ff       	callq  4cbe <safe_rshift_func_uint8_t_u_u>
    622b:	0f b6 d0             	movzbl %al,%edx
    622e:	48 8b 85 38 fd ff ff 	mov    -0x2c8(%rbp),%rax
    6235:	8b 00                	mov    (%rax),%eax
    6237:	31 d0                	xor    %edx,%eax
    6239:	8b b5 c4 fc ff ff    	mov    -0x33c(%rbp),%esi
    623f:	89 c7                	mov    %eax,%edi
    6241:	e8 df ec ff ff       	callq  4f25 <safe_div_func_uint32_t_u_u>
    6246:	48 8b 85 38 fd ff ff 	mov    -0x2c8(%rbp),%rax
    624d:	8b 10                	mov    (%rax),%edx
    624f:	48 8b 85 38 fd ff ff 	mov    -0x2c8(%rbp),%rax
    6256:	8b 08                	mov    (%rax),%ecx
    6258:	0f b7 05 b5 9e 00 00 	movzwl 0x9eb5(%rip),%eax        # 10114 <g_455+0x4>
    625f:	0f b7 c0             	movzwl %ax,%eax
    6262:	39 c1                	cmp    %eax,%ecx
    6264:	0f 9d c0             	setge  %al
    6267:	0f b6 c0             	movzbl %al,%eax
    626a:	39 c2                	cmp    %eax,%edx
    626c:	48 8b 05 0d b4 00 00 	mov    0xb40d(%rip),%rax        # 11680 <g_1352>
    6273:	48 89 85 58 fd ff ff 	mov    %rax,-0x2a8(%rbp)
    627a:	48 83 bd 58 fd ff ff 	cmpq   $0x0,-0x2a8(%rbp)
    6281:	00 
    6282:	0f 95 c0             	setne  %al
    6285:	0f b6 c0             	movzbl %al,%eax
    6288:	44 89 ee             	mov    %r13d,%esi
    628b:	89 c7                	mov    %eax,%edi
    628d:	e8 01 e9 ff ff       	callq  4b93 <safe_mul_func_uint8_t_u_u>
    6292:	0f b6 d0             	movzbl %al,%edx
    6295:	48 8b 85 80 fd ff ff 	mov    -0x280(%rbp),%rax
    629c:	48 89 10             	mov    %rdx,(%rax)
    629f:	48 8b 85 80 fd ff ff 	mov    -0x280(%rbp),%rax
    62a6:	48 8b 00             	mov    (%rax),%rax
    62a9:	48 83 f8 01          	cmp    $0x1,%rax
    62ad:	0f 9f c0             	setg   %al
    62b0:	0f b6 c0             	movzbl %al,%eax
    62b3:	89 c6                	mov    %eax,%esi
    62b5:	bf 75 36 00 00       	mov    $0x3675,%edi
    62ba:	e8 36 e1 ff ff       	callq  43f5 <safe_mul_func_int16_t_s_s>
    62bf:	98                   	cwtl   
    62c0:	44 89 f2             	mov    %r14d,%edx
    62c3:	09 c2                	or     %eax,%edx
    62c5:	48 8b 05 84 b3 00 00 	mov    0xb384(%rip),%rax        # 11650 <g_1104>
    62cc:	48 8b 00             	mov    (%rax),%rax
    62cf:	0f b7 00             	movzwl (%rax),%eax
    62d2:	0f b7 c0             	movzwl %ax,%eax
    62d5:	39 c2                	cmp    %eax,%edx
    62d7:	0f 95 c0             	setne  %al
    62da:	0f b6 c0             	movzbl %al,%eax
    62dd:	41 39 c7             	cmp    %eax,%r15d
    62e0:	75 07                	jne    62e9 <func_15+0x842>
    62e2:	b8 01 00 00 00       	mov    $0x1,%eax
    62e7:	eb 05                	jmp    62ee <func_15+0x847>
    62e9:	b8 00 00 00 00       	mov    $0x0,%eax
    62ee:	0f b6 c0             	movzbl %al,%eax
    62f1:	be f8 00 00 00       	mov    $0xf8,%esi
    62f6:	89 c7                	mov    %eax,%edi
    62f8:	e8 5d e8 ff ff       	callq  4b5a <safe_add_func_uint8_t_u_u>
    62fd:	0f b6 c0             	movzbl %al,%eax
    6300:	44 89 e6             	mov    %r12d,%esi
    6303:	89 c7                	mov    %eax,%edi
    6305:	e8 fb e8 ff ff       	callq  4c05 <safe_lshift_func_uint8_t_u_s>
    630a:	83 f0 fa             	xor    $0xfffffffa,%eax
    630d:	0f be d0             	movsbl %al,%edx
    6310:	8b 85 18 fd ff ff    	mov    -0x2e8(%rbp),%eax
    6316:	0f be c0             	movsbl %al,%eax
    6319:	89 d6                	mov    %edx,%esi
    631b:	89 c7                	mov    %eax,%edi
    631d:	e8 f0 de ff ff       	callq  4212 <safe_mul_func_int8_t_s_s>
    6322:	8b b5 c8 fc ff ff    	mov    -0x338(%rbp),%esi
    6328:	bf fa ff ff ff       	mov    $0xfffffffa,%edi
    632d:	e8 86 eb ff ff       	callq  4eb8 <safe_add_func_uint32_t_u_u>
    6332:	3d d5 de 00 00       	cmp    $0xded5,%eax
    6337:	0f 95 c0             	setne  %al
    633a:	0f b6 c0             	movzbl %al,%eax
    633d:	89 de                	mov    %ebx,%esi
    633f:	89 c7                	mov    %eax,%edi
    6341:	e8 5b df ff ff       	callq  42a1 <safe_lshift_func_int8_t_s_s>
    6346:	84 c0                	test   %al,%al
    6348:	0f 84 28 01 00 00    	je     6476 <func_15+0x9cf>
    634e:	48 8d 85 28 fd ff ff 	lea    -0x2d8(%rbp),%rax
    6355:	48 89 85 88 fd ff ff 	mov    %rax,-0x278(%rbp)
    635c:	c7 85 08 fd ff ff 00 	movl   $0x0,-0x2f8(%rbp)
    6363:	00 00 00 
    6366:	eb 1b                	jmp    6383 <func_15+0x8dc>
    6368:	8b 85 08 fd ff ff    	mov    -0x2f8(%rbp),%eax
    636e:	48 98                	cltq   
    6370:	48 c7 84 c5 20 ff ff 	movq   $0x0,-0xe0(%rbp,%rax,8)
    6377:	ff 00 00 00 00 
    637c:	83 85 08 fd ff ff 01 	addl   $0x1,-0x2f8(%rbp)
    6383:	83 bd 08 fd ff ff 04 	cmpl   $0x4,-0x2f8(%rbp)
    638a:	7e dc                	jle    6368 <func_15+0x8c1>
    638c:	48 8b 85 38 fd ff ff 	mov    -0x2c8(%rbp),%rax
    6393:	8b 00                	mov    (%rax),%eax
    6395:	83 e0 fe             	and    $0xfffffffe,%eax
    6398:	89 c2                	mov    %eax,%edx
    639a:	48 8b 85 38 fd ff ff 	mov    -0x2c8(%rbp),%rax
    63a1:	89 10                	mov    %edx,(%rax)
    63a3:	48 8b 85 38 fd ff ff 	mov    -0x2c8(%rbp),%rax
    63aa:	8b 00                	mov    (%rax),%eax
    63ac:	09 85 f4 fc ff ff    	or     %eax,-0x30c(%rbp)
    63b2:	48 8b 05 bf b2 00 00 	mov    0xb2bf(%rip),%rax        # 11678 <g_1307>
    63b9:	48 8b 00             	mov    (%rax),%rax
    63bc:	48 8b 00             	mov    (%rax),%rax
    63bf:	8b 00                	mov    (%rax),%eax
    63c1:	31 85 f0 fc ff ff    	xor    %eax,-0x310(%rbp)
    63c7:	8b 85 f0 fc ff ff    	mov    -0x310(%rbp),%eax
    63cd:	31 85 f4 fc ff ff    	xor    %eax,-0x30c(%rbp)
    63d3:	48 8d 05 16 b7 00 00 	lea    0xb716(%rip),%rax        # 11af0 <g_219>
    63da:	48 39 85 88 fd ff ff 	cmp    %rax,-0x278(%rbp)
    63e1:	0f 95 c0             	setne  %al
    63e4:	0f b6 d0             	movzbl %al,%edx
    63e7:	0f b6 85 d8 fc ff ff 	movzbl -0x328(%rbp),%eax
    63ee:	48 09 d0             	or     %rdx,%rax
    63f1:	48 85 c0             	test   %rax,%rax
    63f4:	75 09                	jne    63ff <func_15+0x958>
    63f6:	83 bd dc fc ff ff 00 	cmpl   $0x0,-0x324(%rbp)
    63fd:	74 07                	je     6406 <func_15+0x95f>
    63ff:	b8 01 00 00 00       	mov    $0x1,%eax
    6404:	eb 05                	jmp    640b <func_15+0x964>
    6406:	b8 00 00 00 00       	mov    $0x0,%eax
    640b:	0f be c0             	movsbl %al,%eax
    640e:	be a9 ff ff ff       	mov    $0xffffffa9,%esi
    6413:	89 c7                	mov    %eax,%edi
    6415:	e8 d8 dd ff ff       	callq  41f2 <safe_sub_func_int8_t_s_s>
    641a:	0f be c0             	movsbl %al,%eax
    641d:	be 02 00 00 00       	mov    $0x2,%esi
    6422:	89 c7                	mov    %eax,%edi
    6424:	e8 43 df ff ff       	callq  436c <safe_rshift_func_int8_t_s_u>
    6429:	48 0f be c0          	movsbq %al,%rax
    642d:	48 c7 c6 fd ff ff ff 	mov    $0xfffffffffffffffd,%rsi
    6434:	48 89 c7             	mov    %rax,%rdi
    6437:	e8 0f ec ff ff       	callq  504b <safe_sub_func_uint64_t_u_u>
    643c:	48 89 c2             	mov    %rax,%rdx
    643f:	48 8b 05 fa a9 00 00 	mov    0xa9fa(%rip),%rax        # 10e40 <g_1007>
    6446:	48 8b 00             	mov    (%rax),%rax
    6449:	48 39 85 48 fd ff ff 	cmp    %rax,-0x2b8(%rbp)
    6450:	0f 94 c0             	sete   %al
    6453:	0f b6 c0             	movzbl %al,%eax
    6456:	48 89 d6             	mov    %rdx,%rsi
    6459:	48 89 c7             	mov    %rax,%rdi
    645c:	e8 ea eb ff ff       	callq  504b <safe_sub_func_uint64_t_u_u>
    6461:	35 12 dc d8 20       	xor    $0x20d8dc12,%eax
    6466:	89 c2                	mov    %eax,%edx
    6468:	48 8b 85 38 fd ff ff 	mov    -0x2c8(%rbp),%rax
    646f:	89 10                	mov    %edx,(%rax)
    6471:	e9 29 03 00 00       	jmpq   679f <func_15+0xcf8>
    6476:	c7 85 90 fe ff ff 88 	movl   $0x78377588,-0x170(%rbp)
    647d:	75 37 78 
    6480:	c7 85 94 fe ff ff 3d 	movl   $0xb3d60e3d,-0x16c(%rbp)
    6487:	0e d6 b3 
    648a:	c7 85 98 fe ff ff fb 	movl   $0xfffffffb,-0x168(%rbp)
    6491:	ff ff ff 
    6494:	c7 85 9c fe ff ff 04 	movl   $0x4,-0x164(%rbp)
    649b:	00 00 00 
    649e:	c7 85 a0 fe ff ff 04 	movl   $0x4,-0x160(%rbp)
    64a5:	00 00 00 
    64a8:	c7 85 a4 fe ff ff fb 	movl   $0xfffffffb,-0x15c(%rbp)
    64af:	ff ff ff 
    64b2:	c7 85 a8 fe ff ff 3d 	movl   $0xb3d60e3d,-0x158(%rbp)
    64b9:	0e d6 b3 
    64bc:	c7 85 ac fe ff ff 88 	movl   $0x78377588,-0x154(%rbp)
    64c3:	75 37 78 
    64c6:	c7 85 b0 fe ff ff 00 	movl   $0x0,-0x150(%rbp)
    64cd:	00 00 00 
    64d0:	c7 85 b4 fe ff ff 16 	movl   $0x9ae74416,-0x14c(%rbp)
    64d7:	44 e7 9a 
    64da:	c7 85 b8 fe ff ff 1a 	movl   $0xc86e8b1a,-0x148(%rbp)
    64e1:	8b 6e c8 
    64e4:	c7 85 bc fe ff ff 88 	movl   $0x78377588,-0x144(%rbp)
    64eb:	75 37 78 
    64ee:	c7 85 c0 fe ff ff f7 	movl   $0xfffffff7,-0x140(%rbp)
    64f5:	ff ff ff 
    64f8:	c7 85 c4 fe ff ff 3d 	movl   $0xb3d60e3d,-0x13c(%rbp)
    64ff:	0e d6 b3 
    6502:	c7 85 c8 fe ff ff 3d 	movl   $0xb3d60e3d,-0x138(%rbp)
    6509:	0e d6 b3 
    650c:	c7 85 cc fe ff ff f7 	movl   $0xfffffff7,-0x134(%rbp)
    6513:	ff ff ff 
    6516:	c7 85 d0 fe ff ff 88 	movl   $0x78377588,-0x130(%rbp)
    651d:	75 37 78 
    6520:	c7 85 d4 fe ff ff 1a 	movl   $0xc86e8b1a,-0x12c(%rbp)
    6527:	8b 6e c8 
    652a:	c7 85 d8 fe ff ff 04 	movl   $0x4,-0x128(%rbp)
    6531:	00 00 00 
    6534:	c7 85 dc fe ff ff 88 	movl   $0x78377588,-0x124(%rbp)
    653b:	75 37 78 
    653e:	c7 85 e0 fe ff ff 16 	movl   $0x9ae74416,-0x120(%rbp)
    6545:	44 e7 9a 
    6548:	c7 85 e4 fe ff ff 00 	movl   $0x0,-0x11c(%rbp)
    654f:	00 00 00 
    6552:	c7 85 e8 fe ff ff ea 	movl   $0x1ab57aea,-0x118(%rbp)
    6559:	7a b5 1a 
    655c:	c7 85 ec fe ff ff 60 	movl   $0xc3cdd360,-0x114(%rbp)
    6563:	d3 cd c3 
    6566:	c7 85 f0 fe ff ff 60 	movl   $0xc3cdd360,-0x110(%rbp)
    656d:	d3 cd c3 
    6570:	c7 85 f4 fe ff ff 60 	movl   $0xc3cdd360,-0x10c(%rbp)
    6577:	d3 cd c3 
    657a:	c7 85 f8 fe ff ff 1a 	movl   $0xc86e8b1a,-0x108(%rbp)
    6581:	8b 6e c8 
    6584:	c7 85 fc fe ff ff 00 	movl   $0x0,-0x104(%rbp)
    658b:	00 00 00 
    658e:	c7 85 00 ff ff ff f7 	movl   $0xfffffff7,-0x100(%rbp)
    6595:	ff ff ff 
    6598:	c7 85 04 ff ff ff 00 	movl   $0x0,-0xfc(%rbp)
    659f:	00 00 00 
    65a2:	c7 85 08 ff ff ff 88 	movl   $0x78377588,-0xf8(%rbp)
    65a9:	75 37 78 
    65ac:	c7 85 0c ff ff ff 3d 	movl   $0xb3d60e3d,-0xf4(%rbp)
    65b3:	0e d6 b3 
    65b6:	c7 85 10 ff ff ff fb 	movl   $0xfffffffb,-0xf0(%rbp)
    65bd:	ff ff ff 
    65c0:	c7 85 14 ff ff ff 04 	movl   $0x4,-0xec(%rbp)
    65c7:	00 00 00 
    65ca:	c7 85 18 ff ff ff 04 	movl   $0x4,-0xe8(%rbp)
    65d1:	00 00 00 
    65d4:	c7 85 1c ff ff ff fb 	movl   $0xfffffffb,-0xe4(%rbp)
    65db:	ff ff ff 
    65de:	48 c7 85 20 ff ff ff 	movq   $0x0,-0xe0(%rbp)
    65e5:	00 00 00 00 
    65e9:	48 8d 85 b4 fd ff ff 	lea    -0x24c(%rbp),%rax
    65f0:	48 89 85 28 ff ff ff 	mov    %rax,-0xd8(%rbp)
    65f7:	48 8d 85 b4 fd ff ff 	lea    -0x24c(%rbp),%rax
    65fe:	48 89 85 30 ff ff ff 	mov    %rax,-0xd0(%rbp)
    6605:	48 c7 85 38 ff ff ff 	movq   $0x0,-0xc8(%rbp)
    660c:	00 00 00 00 
    6610:	48 8d 85 b4 fd ff ff 	lea    -0x24c(%rbp),%rax
    6617:	48 89 85 40 ff ff ff 	mov    %rax,-0xc0(%rbp)
    661e:	48 8d 85 b4 fd ff ff 	lea    -0x24c(%rbp),%rax
    6625:	48 89 85 48 ff ff ff 	mov    %rax,-0xb8(%rbp)
    662c:	48 c7 85 50 ff ff ff 	movq   $0x0,-0xb0(%rbp)
    6633:	00 00 00 00 
    6637:	48 8d 85 b4 fd ff ff 	lea    -0x24c(%rbp),%rax
    663e:	48 89 85 58 ff ff ff 	mov    %rax,-0xa8(%rbp)
    6645:	48 8d 85 b4 fd ff ff 	lea    -0x24c(%rbp),%rax
    664c:	48 89 85 60 ff ff ff 	mov    %rax,-0xa0(%rbp)
    6653:	48 c7 85 68 ff ff ff 	movq   $0x0,-0x98(%rbp)
    665a:	00 00 00 00 
    665e:	48 8d 85 b4 fd ff ff 	lea    -0x24c(%rbp),%rax
    6665:	48 89 85 70 ff ff ff 	mov    %rax,-0x90(%rbp)
    666c:	48 c7 85 78 ff ff ff 	movq   $0x0,-0x88(%rbp)
    6673:	00 00 00 00 
    6677:	48 8d 85 b4 fd ff ff 	lea    -0x24c(%rbp),%rax
    667e:	48 89 45 80          	mov    %rax,-0x80(%rbp)
    6682:	48 8d 85 b4 fd ff ff 	lea    -0x24c(%rbp),%rax
    6689:	48 89 45 88          	mov    %rax,-0x78(%rbp)
    668d:	48 c7 45 90 00 00 00 	movq   $0x0,-0x70(%rbp)
    6694:	00 
    6695:	48 8d 85 b4 fd ff ff 	lea    -0x24c(%rbp),%rax
    669c:	48 89 45 98          	mov    %rax,-0x68(%rbp)
    66a0:	48 8d 85 b4 fd ff ff 	lea    -0x24c(%rbp),%rax
    66a7:	48 89 45 a0          	mov    %rax,-0x60(%rbp)
    66ab:	48 c7 45 a8 00 00 00 	movq   $0x0,-0x58(%rbp)
    66b2:	00 
    66b3:	48 8d 85 b4 fd ff ff 	lea    -0x24c(%rbp),%rax
    66ba:	48 89 45 b0          	mov    %rax,-0x50(%rbp)
    66be:	48 8d 85 b4 fd ff ff 	lea    -0x24c(%rbp),%rax
    66c5:	48 89 45 b8          	mov    %rax,-0x48(%rbp)
    66c9:	8b 85 d4 fe ff ff    	mov    -0x12c(%rbp),%eax
    66cf:	83 e8 01             	sub    $0x1,%eax
    66d2:	89 85 d4 fe ff ff    	mov    %eax,-0x12c(%rbp)
    66d8:	8b 85 d4 fe ff ff    	mov    -0x12c(%rbp),%eax
    66de:	0f b6 d8             	movzbl %al,%ebx
    66e1:	44 0f b7 a5 cc fc ff 	movzwl -0x334(%rbp),%r12d
    66e8:	ff 
    66e9:	0f b6 85 d8 fc ff ff 	movzbl -0x328(%rbp),%eax
    66f0:	48 89 c6             	mov    %rax,%rsi
    66f3:	bf 01 00 00 00       	mov    $0x1,%edi
    66f8:	e8 31 e9 ff ff       	callq  502e <safe_add_func_uint64_t_u_u>
    66fd:	48 85 c0             	test   %rax,%rax
    6700:	74 10                	je     6712 <func_15+0xc6b>
    6702:	80 bd d8 fc ff ff 00 	cmpb   $0x0,-0x328(%rbp)
    6709:	74 07                	je     6712 <func_15+0xc6b>
    670b:	b8 01 00 00 00       	mov    $0x1,%eax
    6710:	eb 05                	jmp    6717 <func_15+0xc70>
    6712:	b8 00 00 00 00       	mov    $0x0,%eax
    6717:	48 98                	cltq   
    6719:	4c 89 e6             	mov    %r12,%rsi
    671c:	48 89 c7             	mov    %rax,%rdi
    671f:	e8 1d e1 ff ff       	callq  4841 <safe_add_func_int64_t_s_s>
    6724:	89 de                	mov    %ebx,%esi
    6726:	bf 3c 00 00 00       	mov    $0x3c,%edi
    672b:	e8 2a e4 ff ff       	callq  4b5a <safe_add_func_uint8_t_u_u>
    6730:	48 8b 85 38 fd ff ff 	mov    -0x2c8(%rbp),%rax
    6737:	8b 00                	mov    (%rax),%eax
    6739:	83 f8 01             	cmp    $0x1,%eax
    673c:	0f 9f c0             	setg   %al
    673f:	0f b6 c0             	movzbl %al,%eax
    6742:	89 c6                	mov    %eax,%esi
    6744:	bf ff ff 00 00       	mov    $0xffff,%edi
    6749:	e8 2c e7 ff ff       	callq  4e7a <safe_rshift_func_uint16_t_u_u>
    674e:	48 83 bd 60 fd ff ff 	cmpq   $0x0,-0x2a0(%rbp)
    6755:	00 
    6756:	48 8b 05 5b a5 00 00 	mov    0xa55b(%rip),%rax        # 10cb8 <g_454>
    675d:	0f b7 00             	movzwl (%rax),%eax
    6760:	0f b7 c0             	movzwl %ax,%eax
    6763:	be 0c 00 00 00       	mov    $0xc,%esi
    6768:	89 c7                	mov    %eax,%edi
    676a:	e8 97 e6 ff ff       	callq  4e06 <safe_lshift_func_uint16_t_u_u>
    676f:	83 c8 05             	or     $0x5,%eax
    6772:	89 c2                	mov    %eax,%edx
    6774:	48 8b 85 38 fd ff ff 	mov    -0x2c8(%rbp),%rax
    677b:	8b 00                	mov    (%rax),%eax
    677d:	21 d0                	and    %edx,%eax
    677f:	98                   	cwtl   
    6780:	89 c6                	mov    %eax,%esi
    6782:	bf 3a 18 00 00       	mov    $0x183a,%edi
    6787:	e8 c9 dc ff ff       	callq  4455 <safe_div_func_int16_t_s_s>
    678c:	8b 85 d4 fe ff ff    	mov    -0x12c(%rbp),%eax
    6792:	89 c0                	mov    %eax,%eax
    6794:	25 6c c0 67 30       	and    $0x3067c06c,%eax
    6799:	21 85 f0 fc ff ff    	and    %eax,-0x310(%rbp)
    679f:	48 8b 15 c2 a2 00 00 	mov    0xa2c2(%rip),%rdx        # 10a68 <g_392>
    67a6:	48 8b 05 c3 ae 00 00 	mov    0xaec3(%rip),%rax        # 11670 <g_1308>
    67ad:	48 8b 12             	mov    (%rdx),%rdx
    67b0:	48 89 10             	mov    %rdx,(%rax)
    67b3:	48 8b 05 6e a2 00 00 	mov    0xa26e(%rip),%rax        # 10a28 <g_96>
    67ba:	48 8b 95 38 fd ff ff 	mov    -0x2c8(%rbp),%rdx
    67c1:	8b 12                	mov    (%rdx),%edx
    67c3:	89 10                	mov    %edx,(%rax)
    67c5:	8b 05 2d 99 00 00    	mov    0x992d(%rip),%eax        # 100f8 <g_295>
    67cb:	83 e8 01             	sub    $0x1,%eax
    67ce:	89 05 24 99 00 00    	mov    %eax,0x9924(%rip)        # 100f8 <g_295>
    67d4:	8b 05 1e 99 00 00    	mov    0x991e(%rip),%eax        # 100f8 <g_295>
    67da:	83 f8 f2             	cmp    $0xfffffff2,%eax
    67dd:	0f 85 52 f5 ff ff    	jne    5d35 <func_15+0x28e>
    67e3:	48 8d 05 9a 98 00 00 	lea    0x989a(%rip),%rax        # 10084 <g_115>
    67ea:	48 8b 5d c8          	mov    -0x38(%rbp),%rbx
    67ee:	64 48 33 1c 25 28 00 	xor    %fs:0x28,%rbx
    67f5:	00 00 
    67f7:	74 05                	je     67fe <func_15+0xd57>
    67f9:	e8 72 d8 ff ff       	callq  4070 <__stack_chk_fail@plt>
    67fe:	48 81 c4 18 03 00 00 	add    $0x318,%rsp
    6805:	5b                   	pop    %rbx
    6806:	41 5c                	pop    %r12
    6808:	41 5d                	pop    %r13
    680a:	41 5e                	pop    %r14
    680c:	41 5f                	pop    %r15
    680e:	5d                   	pop    %rbp
    680f:	c3                   	retq   

0000000000006810 <func_23>:
    6810:	f3 0f 1e fa          	endbr64 
    6814:	55                   	push   %rbp
    6815:	48 89 e5             	mov    %rsp,%rbp
    6818:	41 56                	push   %r14
    681a:	41 55                	push   %r13
    681c:	41 54                	push   %r12
    681e:	53                   	push   %rbx
    681f:	48 81 ec f0 06 00 00 	sub    $0x6f0,%rsp
    6826:	48 89 b5 00 f9 ff ff 	mov    %rsi,-0x700(%rbp)
    682d:	48 89 95 f8 f8 ff ff 	mov    %rdx,-0x708(%rbp)
    6834:	89 c8                	mov    %ecx,%eax
    6836:	89 fa                	mov    %edi,%edx
    6838:	66 89 95 0c f9 ff ff 	mov    %dx,-0x6f4(%rbp)
    683f:	66 89 85 08 f9 ff ff 	mov    %ax,-0x6f8(%rbp)
    6846:	64 48 8b 04 25 28 00 	mov    %fs:0x28,%rax
    684d:	00 00 
    684f:	48 89 45 d8          	mov    %rax,-0x28(%rbp)
    6853:	31 c0                	xor    %eax,%eax
    6855:	c6 85 16 f9 ff ff ff 	movb   $0xff,-0x6ea(%rbp)
    685c:	48 8d 05 bd a1 00 00 	lea    0xa1bd(%rip),%rax        # 10a20 <g_8>
    6863:	48 89 85 78 f9 ff ff 	mov    %rax,-0x688(%rbp)
    686a:	48 8d 85 78 f9 ff ff 	lea    -0x688(%rbp),%rax
    6871:	48 89 85 90 f9 ff ff 	mov    %rax,-0x670(%rbp)
    6878:	48 8d 05 b1 97 00 00 	lea    0x97b1(%rip),%rax        # 10030 <g_62>
    687f:	48 89 85 98 f9 ff ff 	mov    %rax,-0x668(%rbp)
    6886:	c6 85 17 f9 ff ff 05 	movb   $0x5,-0x6e9(%rbp)
    688d:	c7 85 30 f9 ff ff 37 	movl   $0xefc56437,-0x6d0(%rbp)
    6894:	64 c5 ef 
    6897:	c7 85 34 f9 ff ff fc 	movl   $0xfffffffc,-0x6cc(%rbp)
    689e:	ff ff ff 
    68a1:	c7 85 38 f9 ff ff 29 	movl   $0x1fe89529,-0x6c8(%rbp)
    68a8:	95 e8 1f 
    68ab:	c7 85 3c f9 ff ff 3f 	movl   $0x4fe9273f,-0x6c4(%rbp)
    68b2:	27 e9 4f 
    68b5:	48 8d 85 70 fc ff ff 	lea    -0x390(%rbp),%rax
    68bc:	48 8d 15 9d 57 00 00 	lea    0x579d(%rip),%rdx        # c060 <g_1259+0x8>
    68c3:	b9 6c 00 00 00       	mov    $0x6c,%ecx
    68c8:	48 89 c7             	mov    %rax,%rdi
    68cb:	48 89 d6             	mov    %rdx,%rsi
    68ce:	f3 48 a5             	rep movsq %ds:(%rsi),%es:(%rdi)
    68d1:	48 8d 85 20 fb ff ff 	lea    -0x4e0(%rbp),%rax
    68d8:	48 8d 15 e1 5a 00 00 	lea    0x5ae1(%rip),%rdx        # c3c0 <g_1259+0x368>
    68df:	b9 2a 00 00 00       	mov    $0x2a,%ecx
    68e4:	48 89 c7             	mov    %rax,%rdi
    68e7:	48 89 d6             	mov    %rdx,%rsi
    68ea:	f3 48 a5             	rep movsq %ds:(%rsi),%es:(%rdi)
    68ed:	66 c7 85 0c f9 ff ff 	movw   $0x0,-0x6f4(%rbp)
    68f4:	00 00 
    68f6:	e9 d9 0a 00 00       	jmpq   73d4 <func_23+0xbc4>
    68fb:	c7 85 1c f9 ff ff 0a 	movl   $0x84fdf60a,-0x6e4(%rbp)
    6902:	f6 fd 84 
    6905:	48 c7 85 a0 f9 ff ff 	movq   $0x0,-0x660(%rbp)
    690c:	00 00 00 00 
    6910:	c7 85 20 f9 ff ff 00 	movl   $0x0,-0x6e0(%rbp)
    6917:	00 00 00 
    691a:	eb 1e                	jmp    693a <func_23+0x12a>
    691c:	8b 85 20 f9 ff ff    	mov    -0x6e0(%rbp),%eax
    6922:	48 98                	cltq   
    6924:	48 8d 15 2d 97 00 00 	lea    0x972d(%rip),%rdx        # 10058 <g_70+0x18>
    692b:	48 89 94 c5 80 fa ff 	mov    %rdx,-0x580(%rbp,%rax,8)
    6932:	ff 
    6933:	83 85 20 f9 ff ff 01 	addl   $0x1,-0x6e0(%rbp)
    693a:	83 bd 20 f9 ff ff 08 	cmpl   $0x8,-0x6e0(%rbp)
    6941:	7e d9                	jle    691c <func_23+0x10c>
    6943:	80 b5 16 f9 ff ff 01 	xorb   $0x1,-0x6ea(%rbp)
    694a:	c7 05 2c 98 00 00 00 	movl   $0x0,0x982c(%rip)        # 10180 <g_631>
    6951:	00 00 00 
    6954:	90                   	nop
    6955:	8b 05 25 98 00 00    	mov    0x9825(%rip),%eax        # 10180 <g_631>
    695b:	83 f8 f2             	cmp    $0xfffffff2,%eax
    695e:	0f 8c 4e 0a 00 00    	jl     73b2 <func_23+0xba2>
    6964:	48 8d 05 65 97 00 00 	lea    0x9765(%rip),%rax        # 100d0 <g_132>
    696b:	48 89 85 a8 f9 ff ff 	mov    %rax,-0x658(%rbp)
    6972:	48 8d 05 b7 96 00 00 	lea    0x96b7(%rip),%rax        # 10030 <g_62>
    6979:	48 89 85 b0 f9 ff ff 	mov    %rax,-0x650(%rbp)
    6980:	c7 85 40 f9 ff ff ff 	movl   $0xffffffff,-0x6c0(%rbp)
    6987:	ff ff ff 
    698a:	c7 85 40 fa ff ff ff 	movl   $0xffffffff,-0x5c0(%rbp)
    6991:	ff ff ff 
    6994:	c7 85 44 fa ff ff f6 	movl   $0xfffffff6,-0x5bc(%rbp)
    699b:	ff ff ff 
    699e:	c7 85 48 fa ff ff ff 	movl   $0xffffffff,-0x5b8(%rbp)
    69a5:	ff ff ff 
    69a8:	c7 85 4c fa ff ff ba 	movl   $0xc5014eba,-0x5b4(%rbp)
    69af:	4e 01 c5 
    69b2:	c7 85 50 fa ff ff ba 	movl   $0xc5014eba,-0x5b0(%rbp)
    69b9:	4e 01 c5 
    69bc:	c7 85 54 fa ff ff ba 	movl   $0xc5014eba,-0x5ac(%rbp)
    69c3:	4e 01 c5 
    69c6:	c7 85 58 fa ff ff ff 	movl   $0xffffffff,-0x5a8(%rbp)
    69cd:	ff ff ff 
    69d0:	c7 85 5c fa ff ff f6 	movl   $0xfffffff6,-0x5a4(%rbp)
    69d7:	ff ff ff 
    69da:	c7 85 60 fa ff ff ff 	movl   $0xffffffff,-0x5a0(%rbp)
    69e1:	ff ff ff 
    69e4:	c7 85 64 fa ff ff ba 	movl   $0xc5014eba,-0x59c(%rbp)
    69eb:	4e 01 c5 
    69ee:	c7 85 68 fa ff ff ba 	movl   $0xc5014eba,-0x598(%rbp)
    69f5:	4e 01 c5 
    69f8:	c7 85 6c fa ff ff ba 	movl   $0xc5014eba,-0x594(%rbp)
    69ff:	4e 01 c5 
    6a02:	c7 85 70 fa ff ff ff 	movl   $0xffffffff,-0x590(%rbp)
    6a09:	ff ff ff 
    6a0c:	c7 85 74 fa ff ff f6 	movl   $0xfffffff6,-0x58c(%rbp)
    6a13:	ff ff ff 
    6a16:	c7 85 78 fa ff ff ff 	movl   $0xffffffff,-0x588(%rbp)
    6a1d:	ff ff ff 
    6a20:	48 c7 85 b8 f9 ff ff 	movq   $0x0,-0x648(%rbp)
    6a27:	00 00 00 00 
    6a2b:	48 8d 05 52 97 00 00 	lea    0x9752(%rip),%rax        # 10184 <g_686>
    6a32:	48 89 85 c0 f9 ff ff 	mov    %rax,-0x640(%rbp)
    6a39:	80 bd 16 f9 ff ff 00 	cmpb   $0x0,-0x6ea(%rbp)
    6a40:	0f 85 6b 09 00 00    	jne    73b1 <func_23+0xba1>
    6a46:	66 c7 85 08 f9 ff ff 	movw   $0x0,-0x6f8(%rbp)
    6a4d:	00 00 
    6a4f:	66 83 bd 08 f9 ff ff 	cmpw   $0x3,-0x6f8(%rbp)
    6a56:	03 
    6a57:	0f 87 70 05 00 00    	ja     6fcd <func_23+0x7bd>
    6a5d:	48 c7 85 80 f9 ff ff 	movq   $0x0,-0x680(%rbp)
    6a64:	00 00 00 00 
    6a68:	48 8d 85 80 f9 ff ff 	lea    -0x680(%rbp),%rax
    6a6f:	48 89 85 f0 f9 ff ff 	mov    %rax,-0x610(%rbp)
    6a76:	48 c7 85 28 fa ff ff 	movq   $0x0,-0x5d8(%rbp)
    6a7d:	00 00 00 00 
    6a81:	c7 85 5c f9 ff ff ff 	movl   $0xffffffff,-0x6a4(%rbp)
    6a88:	ff ff ff 
    6a8b:	48 8d 05 f2 96 00 00 	lea    0x96f2(%rip),%rax        # 10184 <g_686>
    6a92:	48 89 85 f8 f9 ff ff 	mov    %rax,-0x608(%rbp)
    6a99:	48 8d 05 48 96 00 00 	lea    0x9648(%rip),%rax        # 100e8 <g_261+0x8>
    6aa0:	48 89 85 00 fa ff ff 	mov    %rax,-0x600(%rbp)
    6aa7:	c7 85 18 f9 ff ff ff 	movl   $0xffffffff,-0x6e8(%rbp)
    6aae:	ff ff ff 
    6ab1:	c7 85 60 f9 ff ff af 	movl   $0xb698deaf,-0x6a0(%rbp)
    6ab8:	de 98 b6 
    6abb:	48 b8 a9 50 2a cc d1 	movabs $0x8821ddd1cc2a50a9,%rax
    6ac2:	dd 21 88 
    6ac5:	48 89 85 08 fa ff ff 	mov    %rax,-0x5f8(%rbp)
    6acc:	c7 85 64 f9 ff ff 00 	movl   $0x0,-0x69c(%rbp)
    6ad3:	00 00 00 
    6ad6:	c7 85 68 f9 ff ff 30 	movl   $0xe15f0c30,-0x698(%rbp)
    6add:	0c 5f e1 
    6ae0:	48 c7 85 88 f9 ff ff 	movq   $0x1,-0x678(%rbp)
    6ae7:	01 00 00 00 
    6aeb:	0f be 9d 17 f9 ff ff 	movsbl -0x6e9(%rbp),%ebx
    6af2:	48 8b 95 80 f9 ff ff 	mov    -0x680(%rbp),%rdx
    6af9:	48 8b 85 f0 f9 ff ff 	mov    -0x610(%rbp),%rax
    6b00:	48 89 10             	mov    %rdx,(%rax)
    6b03:	48 8b 85 f0 f9 ff ff 	mov    -0x610(%rbp),%rax
    6b0a:	48 8b 00             	mov    (%rax),%rax
    6b0d:	48 39 85 90 f9 ff ff 	cmp    %rax,-0x670(%rbp)
    6b14:	0f 95 c0             	setne  %al
    6b17:	41 89 c6             	mov    %eax,%r14d
    6b1a:	0f b7 05 b3 95 00 00 	movzwl 0x95b3(%rip),%eax        # 100d4 <g_181>
    6b21:	44 0f be e0          	movsbl %al,%r12d
    6b25:	8b 05 8d 96 00 00    	mov    0x968d(%rip),%eax        # 101b8 <g_1134+0x18>
    6b2b:	89 c2                	mov    %eax,%edx
    6b2d:	48 8b 85 f8 f9 ff ff 	mov    -0x608(%rbp),%rax
    6b34:	88 10                	mov    %dl,(%rax)
    6b36:	48 8b 85 f8 f9 ff ff 	mov    -0x608(%rbp),%rax
    6b3d:	0f b6 00             	movzbl (%rax),%eax
    6b40:	44 0f b6 e8          	movzbl %al,%r13d
    6b44:	8b 85 5c f9 ff ff    	mov    -0x6a4(%rbp),%eax
    6b4a:	0f b6 c0             	movzbl %al,%eax
    6b4d:	89 c6                	mov    %eax,%esi
    6b4f:	bf fc 00 00 00       	mov    $0xfc,%edi
    6b54:	e8 01 e0 ff ff       	callq  4b5a <safe_add_func_uint8_t_u_u>
    6b59:	0f b6 c0             	movzbl %al,%eax
    6b5c:	66 39 85 08 f9 ff ff 	cmp    %ax,-0x6f8(%rbp)
    6b63:	74 07                	je     6b6c <func_23+0x35c>
    6b65:	b8 07 00 00 00       	mov    $0x7,%eax
    6b6a:	eb 05                	jmp    6b71 <func_23+0x361>
    6b6c:	b8 06 00 00 00       	mov    $0x6,%eax
    6b71:	be 05 00 00 00       	mov    $0x5,%esi
    6b76:	89 c7                	mov    %eax,%edi
    6b78:	e8 64 d9 ff ff       	callq  44e1 <safe_lshift_func_int16_t_s_u>
    6b7d:	0f b6 c0             	movzbl %al,%eax
    6b80:	44 89 ee             	mov    %r13d,%esi
    6b83:	89 c7                	mov    %eax,%edi
    6b85:	e8 c2 e0 ff ff       	callq  4c4c <safe_lshift_func_uint8_t_u_u>
    6b8a:	0f b6 c0             	movzbl %al,%eax
    6b8d:	66 39 85 08 f9 ff ff 	cmp    %ax,-0x6f8(%rbp)
    6b94:	0f 93 c0             	setae  %al
    6b97:	0f b6 c0             	movzbl %al,%eax
    6b9a:	44 89 e6             	mov    %r12d,%esi
    6b9d:	89 c7                	mov    %eax,%edi
    6b9f:	e8 8d d6 ff ff       	callq  4231 <safe_mod_func_int8_t_s_s>
    6ba4:	48 8b 95 00 fa ff ff 	mov    -0x600(%rbp),%rdx
    6bab:	8b 12                	mov    (%rdx),%edx
    6bad:	0f be c0             	movsbl %al,%eax
    6bb0:	21 c2                	and    %eax,%edx
    6bb2:	48 8b 85 00 fa ff ff 	mov    -0x600(%rbp),%rax
    6bb9:	89 10                	mov    %edx,(%rax)
    6bbb:	0f bf 85 0c f9 ff ff 	movswl -0x6f4(%rbp),%eax
    6bc2:	be 07 6c 60 c1       	mov    $0xc1606c07,%esi
    6bc7:	89 c7                	mov    %eax,%edi
    6bc9:	e8 57 e3 ff ff       	callq  4f25 <safe_div_func_uint32_t_u_u>
    6bce:	0f b6 d0             	movzbl %al,%edx
    6bd1:	48 8b 85 28 fa ff ff 	mov    -0x5d8(%rbp),%rax
    6bd8:	48 39 85 98 f9 ff ff 	cmp    %rax,-0x668(%rbp)
    6bdf:	0f 94 c0             	sete   %al
    6be2:	0f b6 c0             	movzbl %al,%eax
    6be5:	89 d6                	mov    %edx,%esi
    6be7:	89 c7                	mov    %eax,%edi
    6be9:	e8 a5 df ff ff       	callq  4b93 <safe_mul_func_uint8_t_u_u>
    6bee:	84 c0                	test   %al,%al
    6bf0:	75 0f                	jne    6c01 <func_23+0x3f1>
    6bf2:	48 8b 05 bf a0 00 00 	mov    0xa0bf(%rip),%rax        # 10cb8 <g_454>
    6bf9:	0f b7 00             	movzwl (%rax),%eax
    6bfc:	66 85 c0             	test   %ax,%ax
    6bff:	74 07                	je     6c08 <func_23+0x3f8>
    6c01:	b8 01 00 00 00       	mov    $0x1,%eax
    6c06:	eb 05                	jmp    6c0d <func_23+0x3fd>
    6c08:	b8 00 00 00 00       	mov    $0x0,%eax
    6c0d:	44 31 f0             	xor    %r14d,%eax
    6c10:	0f be c0             	movsbl %al,%eax
    6c13:	89 de                	mov    %ebx,%esi
    6c15:	89 c7                	mov    %eax,%edi
    6c17:	e8 4e d6 ff ff       	callq  426a <safe_div_func_int8_t_s_s>
    6c1c:	32 85 17 f9 ff ff    	xor    -0x6e9(%rbp),%al
    6c22:	0f be c0             	movsbl %al,%eax
    6c25:	89 85 5c f9 ff ff    	mov    %eax,-0x6a4(%rbp)
    6c2b:	66 c7 05 9c 94 00 00 	movw   $0x17,0x949c(%rip)        # 100d0 <g_132>
    6c32:	17 00 
    6c34:	e9 64 03 00 00       	jmpq   6f9d <func_23+0x78d>
    6c39:	48 8d 05 4c 95 00 00 	lea    0x954c(%rip),%rax        # 1018c <g_804+0x4>
    6c40:	48 89 85 10 fa ff ff 	mov    %rax,-0x5f0(%rbp)
    6c47:	48 8d 85 28 fa ff ff 	lea    -0x5d8(%rbp),%rax
    6c4e:	48 89 85 18 fa ff ff 	mov    %rax,-0x5e8(%rbp)
    6c55:	c7 85 6c f9 ff ff 01 	movl   $0x1,-0x694(%rbp)
    6c5c:	00 00 00 
    6c5f:	48 8d 05 c2 93 00 00 	lea    0x93c2(%rip),%rax        # 10028 <g_53>
    6c66:	48 89 85 20 fa ff ff 	mov    %rax,-0x5e0(%rbp)
    6c6d:	c7 85 24 f9 ff ff 00 	movl   $0x0,-0x6dc(%rbp)
    6c74:	00 00 00 
    6c77:	eb 1a                	jmp    6c93 <func_23+0x483>
    6c79:	8b 85 24 f9 ff ff    	mov    -0x6dc(%rbp),%eax
    6c7f:	48 98                	cltq   
    6c81:	c7 84 85 34 fa ff ff 	movl   $0x64e5410,-0x5cc(%rbp,%rax,4)
    6c88:	10 54 4e 06 
    6c8c:	83 85 24 f9 ff ff 01 	addl   $0x1,-0x6dc(%rbp)
    6c93:	83 bd 24 f9 ff ff 02 	cmpl   $0x2,-0x6dc(%rbp)
    6c9a:	7e dd                	jle    6c79 <func_23+0x469>
    6c9c:	8b 85 6c f9 ff ff    	mov    -0x694(%rbp),%eax
    6ca2:	4c 63 e0             	movslq %eax,%r12
    6ca5:	8b 05 5d 96 00 00    	mov    0x965d(%rip),%eax        # 10308 <g_1209>
    6cab:	44 0f bf e8          	movswl %ax,%r13d
    6caf:	48 8b 85 10 fa ff ff 	mov    -0x5f0(%rbp),%rax
    6cb6:	48 8b 18             	mov    (%rax),%rbx
    6cb9:	48 8d 53 01          	lea    0x1(%rbx),%rdx
    6cbd:	48 8b 85 10 fa ff ff 	mov    -0x5f0(%rbp),%rax
    6cc4:	48 89 10             	mov    %rdx,(%rax)
    6cc7:	48 8b 85 18 fa ff ff 	mov    -0x5e8(%rbp),%rax
    6cce:	48 8b 95 b0 f9 ff ff 	mov    -0x650(%rbp),%rdx
    6cd5:	48 89 10             	mov    %rdx,(%rax)
    6cd8:	48 8b 85 18 fa ff ff 	mov    -0x5e8(%rbp),%rax
    6cdf:	48 8b 00             	mov    (%rax),%rax
    6ce2:	48 89 05 5f a1 00 00 	mov    %rax,0xa15f(%rip)        # 10e48 <g_1018>
    6ce9:	48 8b 05 58 a1 00 00 	mov    0xa158(%rip),%rax        # 10e48 <g_1018>
    6cf0:	48 8d 15 69 93 00 00 	lea    0x9369(%rip),%rdx        # 10060 <g_82>
    6cf7:	48 39 d0             	cmp    %rdx,%rax
    6cfa:	0f 95 c0             	setne  %al
    6cfd:	0f b6 c0             	movzbl %al,%eax
    6d00:	89 c7                	mov    %eax,%edi
    6d02:	e8 96 d6 ff ff       	callq  439d <safe_unary_minus_func_int16_t_s>
    6d07:	48 0f bf c0          	movswq %ax,%rax
    6d0b:	48 21 c3             	and    %rax,%rbx
    6d0e:	0f b7 95 08 f9 ff ff 	movzwl -0x6f8(%rbp),%edx
    6d15:	0f b7 85 08 f9 ff ff 	movzwl -0x6f8(%rbp),%eax
    6d1c:	98                   	cwtl   
    6d1d:	89 d6                	mov    %edx,%esi
    6d1f:	89 c7                	mov    %eax,%edi
    6d21:	e8 04 d8 ff ff       	callq  452a <safe_rshift_func_int16_t_s_s>
    6d26:	80 bd 16 f9 ff ff 00 	cmpb   $0x0,-0x6ea(%rbp)
    6d2d:	74 08                	je     6d37 <func_23+0x527>
    6d2f:	66 83 bd 08 f9 ff ff 	cmpw   $0x0,-0x6f8(%rbp)
    6d36:	00 
    6d37:	0f bf 85 0c f9 ff ff 	movswl -0x6f4(%rbp),%eax
    6d3e:	be 03 00 00 00       	mov    $0x3,%esi
    6d43:	89 c7                	mov    %eax,%edi
    6d45:	e8 82 d9 ff ff       	callq  46cc <safe_mod_func_int32_t_s_s>
    6d4a:	89 c2                	mov    %eax,%edx
    6d4c:	48 8b 85 00 fa ff ff 	mov    -0x600(%rbp),%rax
    6d53:	89 10                	mov    %edx,(%rax)
    6d55:	48 8b 85 00 fa ff ff 	mov    -0x600(%rbp),%rax
    6d5c:	8b 00                	mov    (%rax),%eax
    6d5e:	3d 0e 58 18 8c       	cmp    $0x8c18580e,%eax
    6d63:	0f 96 c0             	setbe  %al
    6d66:	0f b6 d0             	movzbl %al,%edx
    6d69:	48 8b 05 70 9f 00 00 	mov    0x9f70(%rip),%rax        # 10ce0 <g_621>
    6d70:	48 8b 00             	mov    (%rax),%rax
    6d73:	8b 00                	mov    (%rax),%eax
    6d75:	39 c2                	cmp    %eax,%edx
    6d77:	0f 9f c0             	setg   %al
    6d7a:	0f b6 c0             	movzbl %al,%eax
    6d7d:	be 02 00 00 00       	mov    $0x2,%esi
    6d82:	89 c7                	mov    %eax,%edi
    6d84:	e8 04 df ff ff       	callq  4c8d <safe_rshift_func_uint8_t_u_s>
    6d89:	0f b6 d0             	movzbl %al,%edx
    6d8c:	48 8b 85 20 fa ff ff 	mov    -0x5e0(%rbp),%rax
    6d93:	48 89 10             	mov    %rdx,(%rax)
    6d96:	48 8b 85 20 fa ff ff 	mov    -0x5e0(%rbp),%rax
    6d9d:	48 8b 00             	mov    (%rax),%rax
    6da0:	48 85 c0             	test   %rax,%rax
    6da3:	74 08                	je     6dad <func_23+0x59d>
    6da5:	66 83 bd 0c f9 ff ff 	cmpw   $0x0,-0x6f4(%rbp)
    6dac:	00 
    6dad:	8b 85 6c f9 ff ff    	mov    -0x694(%rbp),%eax
    6db3:	0f bf d0             	movswl %ax,%edx
    6db6:	48 8b 05 83 a0 00 00 	mov    0xa083(%rip),%rax        # 10e40 <g_1007>
    6dbd:	48 8b 00             	mov    (%rax),%rax
    6dc0:	8b 8d 18 f9 ff ff    	mov    -0x6e8(%rbp),%ecx
    6dc6:	66 89 08             	mov    %cx,(%rax)
    6dc9:	0f b7 00             	movzwl (%rax),%eax
    6dcc:	98                   	cwtl   
    6dcd:	89 d6                	mov    %edx,%esi
    6dcf:	89 c7                	mov    %eax,%edi
    6dd1:	e8 fd d5 ff ff       	callq  43d3 <safe_sub_func_int16_t_s_s>
    6dd6:	66 83 bd 08 f9 ff ff 	cmpw   $0x0,-0x6f8(%rbp)
    6ddd:	00 
    6dde:	75 0a                	jne    6dea <func_23+0x5da>
    6de0:	66 83 bd 08 f9 ff ff 	cmpw   $0x0,-0x6f8(%rbp)
    6de7:	00 
    6de8:	74 07                	je     6df1 <func_23+0x5e1>
    6dea:	b8 01 00 00 00       	mov    $0x1,%eax
    6def:	eb 05                	jmp    6df6 <func_23+0x5e6>
    6df1:	b8 00 00 00 00       	mov    $0x0,%eax
    6df6:	48 98                	cltq   
    6df8:	48 39 c3             	cmp    %rax,%rbx
    6dfb:	75 08                	jne    6e05 <func_23+0x5f5>
    6dfd:	66 83 bd 0c f9 ff ff 	cmpw   $0x0,-0x6f4(%rbp)
    6e04:	00 
    6e05:	0f bf 95 0c f9 ff ff 	movswl -0x6f4(%rbp),%edx
    6e0c:	8b 05 0e 93 00 00    	mov    0x930e(%rip),%eax        # 10120 <g_527>
    6e12:	39 c2                	cmp    %eax,%edx
    6e14:	0f 95 c0             	setne  %al
    6e17:	0f b6 c0             	movzbl %al,%eax
    6e1a:	44 89 ee             	mov    %r13d,%esi
    6e1d:	89 c7                	mov    %eax,%edi
    6e1f:	e8 31 d6 ff ff       	callq  4455 <safe_div_func_int16_t_s_s>
    6e24:	48 8b 85 f8 f9 ff ff 	mov    -0x608(%rbp),%rax
    6e2b:	c6 00 01             	movb   $0x1,(%rax)
    6e2e:	4c 89 e6             	mov    %r12,%rsi
    6e31:	bf 00 00 00 00       	mov    $0x0,%edi
    6e36:	e8 06 da ff ff       	callq  4841 <safe_add_func_int64_t_s_s>
    6e3b:	48 0f bf 95 0c f9 ff 	movswq -0x6f4(%rbp),%rdx
    6e42:	ff 
    6e43:	48 09 d0             	or     %rdx,%rax
    6e46:	48 85 c0             	test   %rax,%rax
    6e49:	74 3e                	je     6e89 <func_23+0x679>
    6e4b:	0f be 95 16 f9 ff ff 	movsbl -0x6ea(%rbp),%edx
    6e52:	0f b7 85 08 f9 ff ff 	movzwl -0x6f8(%rbp),%eax
    6e59:	0f b6 c0             	movzbl %al,%eax
    6e5c:	89 d6                	mov    %edx,%esi
    6e5e:	89 c7                	mov    %eax,%edi
    6e60:	e8 a0 dd ff ff       	callq  4c05 <safe_lshift_func_uint8_t_u_s>
    6e65:	0f b6 c0             	movzbl %al,%eax
    6e68:	89 85 18 f9 ff ff    	mov    %eax,-0x6e8(%rbp)
    6e6e:	8b 85 18 f9 ff ff    	mov    -0x6e8(%rbp),%eax
    6e74:	09 85 6c f9 ff ff    	or     %eax,-0x694(%rbp)
    6e7a:	c7 85 40 f9 ff ff 00 	movl   $0x0,-0x6c0(%rbp)
    6e81:	00 00 00 
    6e84:	e9 f5 00 00 00       	jmpq   6f7e <func_23+0x76e>
    6e89:	c7 85 70 f9 ff ff 08 	movl   $0x8,-0x690(%rbp)
    6e90:	00 00 00 
    6e93:	c7 85 74 f9 ff ff 93 	movl   $0xbad05f93,-0x68c(%rbp)
    6e9a:	5f d0 ba 
    6e9d:	c7 85 d0 fa ff ff 06 	movl   $0x6,-0x530(%rbp)
    6ea4:	00 00 00 
    6ea7:	c7 85 d4 fa ff ff fe 	movl   $0xbedb50fe,-0x52c(%rbp)
    6eae:	50 db be 
    6eb1:	c7 85 d8 fa ff ff fe 	movl   $0xbedb50fe,-0x528(%rbp)
    6eb8:	50 db be 
    6ebb:	c7 85 dc fa ff ff 06 	movl   $0x6,-0x524(%rbp)
    6ec2:	00 00 00 
    6ec5:	c7 85 e0 fa ff ff 06 	movl   $0x6,-0x520(%rbp)
    6ecc:	00 00 00 
    6ecf:	c7 85 e4 fa ff ff fe 	movl   $0xbedb50fe,-0x51c(%rbp)
    6ed6:	50 db be 
    6ed9:	c7 85 e8 fa ff ff fe 	movl   $0xbedb50fe,-0x518(%rbp)
    6ee0:	50 db be 
    6ee3:	c7 85 ec fa ff ff 06 	movl   $0x6,-0x514(%rbp)
    6eea:	00 00 00 
    6eed:	c7 85 f0 fa ff ff 06 	movl   $0x6,-0x510(%rbp)
    6ef4:	00 00 00 
    6ef7:	c7 85 f4 fa ff ff fe 	movl   $0xbedb50fe,-0x50c(%rbp)
    6efe:	50 db be 
    6f01:	c7 85 f8 fa ff ff fe 	movl   $0xbedb50fe,-0x508(%rbp)
    6f08:	50 db be 
    6f0b:	c7 85 fc fa ff ff 06 	movl   $0x6,-0x504(%rbp)
    6f12:	00 00 00 
    6f15:	c7 85 00 fb ff ff 06 	movl   $0x6,-0x500(%rbp)
    6f1c:	00 00 00 
    6f1f:	c7 85 04 fb ff ff fe 	movl   $0xbedb50fe,-0x4fc(%rbp)
    6f26:	50 db be 
    6f29:	c7 85 08 fb ff ff fe 	movl   $0xbedb50fe,-0x4f8(%rbp)
    6f30:	50 db be 
    6f33:	c7 85 0c fb ff ff 06 	movl   $0x6,-0x4f4(%rbp)
    6f3a:	00 00 00 
    6f3d:	c7 85 10 fb ff ff 06 	movl   $0x6,-0x4f0(%rbp)
    6f44:	00 00 00 
    6f47:	c7 85 14 fb ff ff fe 	movl   $0xbedb50fe,-0x4ec(%rbp)
    6f4e:	50 db be 
    6f51:	c7 85 18 fb ff ff fe 	movl   $0xbedb50fe,-0x4e8(%rbp)
    6f58:	50 db be 
    6f5b:	c7 85 1c fb ff ff 06 	movl   $0x6,-0x4e4(%rbp)
    6f62:	00 00 00 
    6f65:	83 85 1c f9 ff ff 01 	addl   $0x1,-0x6e4(%rbp)
    6f6c:	66 83 bd 0c f9 ff ff 	cmpw   $0x0,-0x6f4(%rbp)
    6f73:	00 
    6f74:	75 08                	jne    6f7e <func_23+0x76e>
    6f76:	48 83 85 88 f9 ff ff 	addq   $0x1,-0x678(%rbp)
    6f7d:	01 
    6f7e:	0f b7 05 4b 91 00 00 	movzwl 0x914b(%rip),%eax        # 100d0 <g_132>
    6f85:	0f be c0             	movsbl %al,%eax
    6f88:	be 03 00 00 00       	mov    $0x3,%esi
    6f8d:	89 c7                	mov    %eax,%edi
    6f8f:	e8 40 d2 ff ff       	callq  41d4 <safe_add_func_int8_t_s_s>
    6f94:	66 98                	cbtw   
    6f96:	66 89 05 33 91 00 00 	mov    %ax,0x9133(%rip)        # 100d0 <g_132>
    6f9d:	0f b7 05 2c 91 00 00 	movzwl 0x912c(%rip),%eax        # 100d0 <g_132>
    6fa4:	66 83 f8 1c          	cmp    $0x1c,%ax
    6fa8:	0f 86 8b fc ff ff    	jbe    6c39 <func_23+0x429>
    6fae:	0f bf 85 0c f9 ff ff 	movswl -0x6f4(%rbp),%eax
    6fb5:	89 85 40 f9 ff ff    	mov    %eax,-0x6c0(%rbp)
    6fbb:	48 8d 05 f6 9c 00 00 	lea    0x9cf6(%rip),%rax        # 10cb8 <g_454>
    6fc2:	48 8b 00             	mov    (%rax),%rax
    6fc5:	0f b7 00             	movzwl (%rax),%eax
    6fc8:	e9 1b 04 00 00       	jmpq   73e8 <func_23+0xbd8>
    6fcd:	48 8b 85 c0 f9 ff ff 	mov    -0x640(%rbp),%rax
    6fd4:	0f b6 00             	movzbl (%rax),%eax
    6fd7:	8d 50 ff             	lea    -0x1(%rax),%edx
    6fda:	48 8b 85 c0 f9 ff ff 	mov    -0x640(%rbp),%rax
    6fe1:	88 10                	mov    %dl,(%rax)
    6fe3:	48 8b 85 c0 f9 ff ff 	mov    -0x640(%rbp),%rax
    6fea:	0f b6 00             	movzbl (%rax),%eax
    6fed:	84 c0                	test   %al,%al
    6fef:	c7 85 3c f9 ff ff f9 	movl   $0x676541f9,-0x6c4(%rbp)
    6ff6:	41 65 67 
    6ff9:	48 83 bd a0 f9 ff ff 	cmpq   $0x0,-0x660(%rbp)
    7000:	00 
    7001:	0f 94 c0             	sete   %al
    7004:	0f b6 d0             	movzbl %al,%edx
    7007:	0f bf 85 0c f9 ff ff 	movswl -0x6f4(%rbp),%eax
    700e:	39 c2                	cmp    %eax,%edx
    7010:	0f 9d c0             	setge  %al
    7013:	0f b6 c0             	movzbl %al,%eax
    7016:	89 85 44 fc ff ff    	mov    %eax,-0x3bc(%rbp)
    701c:	8b 85 44 fc ff ff    	mov    -0x3bc(%rbp),%eax
    7022:	3d f9 41 65 67       	cmp    $0x676541f9,%eax
    7027:	0f 95 c2             	setne  %dl
    702a:	66 83 bd 08 f9 ff ff 	cmpw   $0x0,-0x6f8(%rbp)
    7031:	00 
    7032:	75 0a                	jne    703e <func_23+0x82e>
    7034:	8b 85 50 fa ff ff    	mov    -0x5b0(%rbp),%eax
    703a:	85 c0                	test   %eax,%eax
    703c:	74 07                	je     7045 <func_23+0x835>
    703e:	b8 01 00 00 00       	mov    $0x1,%eax
    7043:	eb 05                	jmp    704a <func_23+0x83a>
    7045:	b8 00 00 00 00       	mov    $0x0,%eax
    704a:	83 e0 01             	and    $0x1,%eax
    704d:	09 d0                	or     %edx,%eax
    704f:	0f b6 c0             	movzbl %al,%eax
    7052:	be 00 00 00 00       	mov    $0x0,%esi
    7057:	89 c7                	mov    %eax,%edi
    7059:	e8 34 d4 ff ff       	callq  4492 <safe_lshift_func_int16_t_s_s>
    705e:	48 8b 05 db 9d 00 00 	mov    0x9ddb(%rip),%rax        # 10e40 <g_1007>
    7065:	48 8b 00             	mov    (%rax),%rax
    7068:	8b 95 34 f9 ff ff    	mov    -0x6cc(%rbp),%edx
    706e:	66 89 10             	mov    %dx,(%rax)
    7071:	0f b7 00             	movzwl (%rax),%eax
    7074:	0f bf d0             	movswl %ax,%edx
    7077:	0f b7 85 0c f9 ff ff 	movzwl -0x6f4(%rbp),%eax
    707e:	66 c1 e8 0f          	shr    $0xf,%ax
    7082:	0f b6 c8             	movzbl %al,%ecx
    7085:	0f bf 85 0c f9 ff ff 	movswl -0x6f4(%rbp),%eax
    708c:	39 c1                	cmp    %eax,%ecx
    708e:	0f 9f c0             	setg   %al
    7091:	0f b6 c0             	movzbl %al,%eax
    7094:	39 c2                	cmp    %eax,%edx
    7096:	0f 9f c0             	setg   %al
    7099:	0f b6 d0             	movzbl %al,%edx
    709c:	8b 85 50 fa ff ff    	mov    -0x5b0(%rbp),%eax
    70a2:	09 c2                	or     %eax,%edx
    70a4:	48 8b 85 f8 f8 ff ff 	mov    -0x708(%rbp),%rax
    70ab:	0f b6 00             	movzbl (%rax),%eax
    70ae:	0f be c0             	movsbl %al,%eax
    70b1:	39 c2                	cmp    %eax,%edx
    70b3:	0f 8d fd 00 00 00    	jge    71b6 <func_23+0x9a6>
    70b9:	48 c7 85 e8 f9 ff ff 	movq   $0xfffffffffffffffd,-0x618(%rbp)
    70c0:	fd ff ff ff 
    70c4:	c7 85 44 f9 ff ff c7 	movl   $0x35f466c7,-0x6bc(%rbp)
    70cb:	66 f4 35 
    70ce:	c7 85 48 f9 ff ff 00 	movl   $0xd429da00,-0x6b8(%rbp)
    70d5:	da 29 d4 
    70d8:	c7 85 4c f9 ff ff 4c 	movl   $0x96fbd84c,-0x6b4(%rbp)
    70df:	d8 fb 96 
    70e2:	66 c7 05 ed 8f 00 00 	movw   $0x0,0x8fed(%rip)        # 100d8 <g_213>
    70e9:	00 00 
    70eb:	e9 a9 00 00 00       	jmpq   7199 <func_23+0x989>
    70f0:	c7 85 28 f9 ff ff 30 	movl   $0x744fca30,-0x6d8(%rbp)
    70f7:	ca 4f 74 
    70fa:	c6 05 83 8f 00 00 00 	movb   $0x0,0x8f83(%rip)        # 10084 <g_115>
    7101:	eb 76                	jmp    7179 <func_23+0x969>
    7103:	c7 85 50 f9 ff ff 91 	movl   $0x36557f91,-0x6b0(%rbp)
    710a:	7f 55 36 
    710d:	c7 85 54 f9 ff ff fb 	movl   $0xfffffffb,-0x6ac(%rbp)
    7114:	ff ff ff 
    7117:	c7 85 58 f9 ff ff 80 	movl   $0xa827dc80,-0x6a8(%rbp)
    711e:	dc 27 a8 
    7121:	8b 85 28 fa ff ff    	mov    -0x5d8(%rbp),%eax
    7127:	25 00 00 00 80       	and    $0x80000000,%eax
    712c:	0d dd 3c 00 00       	or     $0x3cdd,%eax
    7131:	89 85 28 fa ff ff    	mov    %eax,-0x5d8(%rbp)
    7137:	48 b8 33 3f d4 5c 82 	movabs $0x3a5f3e825cd43f33,%rax
    713e:	3e 5f 3a 
    7141:	48 89 85 2c fa ff ff 	mov    %rax,-0x5d4(%rbp)
    7148:	83 85 28 f9 ff ff 01 	addl   $0x1,-0x6d8(%rbp)
    714f:	48 8b 85 b0 f9 ff ff 	mov    -0x650(%rbp),%rax
    7156:	48 8b 10             	mov    (%rax),%rdx
    7159:	48 89 95 28 fa ff ff 	mov    %rdx,-0x5d8(%rbp)
    7160:	8b 40 08             	mov    0x8(%rax),%eax
    7163:	89 85 30 fa ff ff    	mov    %eax,-0x5d0(%rbp)
    7169:	0f b6 05 14 8f 00 00 	movzbl 0x8f14(%rip),%eax        # 10084 <g_115>
    7170:	83 c0 01             	add    $0x1,%eax
    7173:	88 05 0b 8f 00 00    	mov    %al,0x8f0b(%rip)        # 10084 <g_115>
    7179:	0f b6 05 04 8f 00 00 	movzbl 0x8f04(%rip),%eax        # 10084 <g_115>
    7180:	3c 04                	cmp    $0x4,%al
    7182:	0f 8e 7b ff ff ff    	jle    7103 <func_23+0x8f3>
    7188:	0f b7 05 49 8f 00 00 	movzwl 0x8f49(%rip),%eax        # 100d8 <g_213>
    718f:	83 c0 01             	add    $0x1,%eax
    7192:	66 89 05 3f 8f 00 00 	mov    %ax,0x8f3f(%rip)        # 100d8 <g_213>
    7199:	0f b7 05 38 8f 00 00 	movzwl 0x8f38(%rip),%eax        # 100d8 <g_213>
    71a0:	66 83 f8 03          	cmp    $0x3,%ax
    71a4:	0f 8e 46 ff ff ff    	jle    70f0 <func_23+0x8e0>
    71aa:	0f b7 85 08 f9 ff ff 	movzwl -0x6f8(%rbp),%eax
    71b1:	e9 32 02 00 00       	jmpq   73e8 <func_23+0xbd8>
    71b6:	48 c7 85 c8 f9 ff ff 	movq   $0x0,-0x638(%rbp)
    71bd:	00 00 00 00 
    71c1:	48 8d 05 90 4e 00 00 	lea    0x4e90(%rip),%rax        # c058 <g_1259>
    71c8:	48 89 85 28 fa ff ff 	mov    %rax,-0x5d8(%rbp)
    71cf:	48 8d 85 28 fa ff ff 	lea    -0x5d8(%rbp),%rax
    71d6:	48 89 85 d0 f9 ff ff 	mov    %rax,-0x630(%rbp)
    71dd:	c7 85 2c f9 ff ff 00 	movl   $0x0,-0x6d4(%rbp)
    71e4:	00 00 00 
    71e7:	eb 1a                	jmp    7203 <func_23+0x9f3>
    71e9:	8b 85 2c f9 ff ff    	mov    -0x6d4(%rbp),%eax
    71ef:	48 98                	cltq   
    71f1:	c7 84 85 d0 fa ff ff 	movl   $0xfffffff9,-0x530(%rbp,%rax,4)
    71f8:	f9 ff ff ff 
    71fc:	83 85 2c f9 ff ff 01 	addl   $0x1,-0x6d4(%rbp)
    7203:	83 bd 2c f9 ff ff 07 	cmpl   $0x7,-0x6d4(%rbp)
    720a:	7e dd                	jle    71e9 <func_23+0x9d9>
    720c:	48 8b 85 d0 f9 ff ff 	mov    -0x630(%rbp),%rax
    7213:	48 8d 15 5a 8f 00 00 	lea    0x8f5a(%rip),%rdx        # 10174 <g_610+0x34>
    721a:	48 89 10             	mov    %rdx,(%rax)
    721d:	8b 85 e8 fa ff ff    	mov    -0x518(%rbp),%eax
    7223:	83 f8 01             	cmp    $0x1,%eax
    7226:	0f 9e c0             	setle  %al
    7229:	0f b6 c0             	movzbl %al,%eax
    722c:	39 85 40 f9 ff ff    	cmp    %eax,-0x6c0(%rbp)
    7232:	74 1a                	je     724e <func_23+0xa3e>
    7234:	8b 95 74 fa ff ff    	mov    -0x58c(%rbp),%edx
    723a:	0f bf 85 0c f9 ff ff 	movswl -0x6f4(%rbp),%eax
    7241:	09 d0                	or     %edx,%eax
    7243:	89 85 74 fa ff ff    	mov    %eax,-0x58c(%rbp)
    7249:	e9 0e 01 00 00       	jmpq   735c <func_23+0xb4c>
    724e:	66 c7 05 2f 8f 00 00 	movw   $0x3,0x8f2f(%rip)        # 10186 <g_785>
    7255:	03 00 
    7257:	90                   	nop
    7258:	0f b7 05 27 8f 00 00 	movzwl 0x8f27(%rip),%eax        # 10186 <g_785>
    725f:	66 85 c0             	test   %ax,%ax
    7262:	0f 88 f4 00 00 00    	js     735c <func_23+0xb4c>
    7268:	48 8d 85 80 fa ff ff 	lea    -0x580(%rbp),%rax
    726f:	48 83 c0 08          	add    $0x8,%rax
    7273:	48 89 85 d8 f9 ff ff 	mov    %rax,-0x628(%rbp)
    727a:	0f b7 05 05 8f 00 00 	movzwl 0x8f05(%rip),%eax        # 10186 <g_785>
    7281:	98                   	cwtl   
    7282:	0f b7 15 fd 8e 00 00 	movzwl 0x8efd(%rip),%edx        # 10186 <g_785>
    7289:	0f bf d2             	movswl %dx,%edx
    728c:	8d 7a 05             	lea    0x5(%rdx),%edi
    728f:	0f b7 15 f0 8e 00 00 	movzwl 0x8ef0(%rip),%edx        # 10186 <g_785>
    7296:	0f bf d2             	movswl %dx,%edx
    7299:	48 8d 8d 70 fc ff ff 	lea    -0x390(%rbp),%rcx
    72a0:	48 63 f2             	movslq %edx,%rsi
    72a3:	48 63 d0             	movslq %eax,%rdx
    72a6:	48 89 d0             	mov    %rdx,%rax
    72a9:	48 c1 e0 03          	shl    $0x3,%rax
    72ad:	48 01 d0             	add    %rdx,%rax
    72b0:	48 63 d7             	movslq %edi,%rdx
    72b3:	48 01 d0             	add    %rdx,%rax
    72b6:	48 c1 e0 02          	shl    $0x2,%rax
    72ba:	48 01 f0             	add    %rsi,%rax
    72bd:	48 c1 e0 02          	shl    $0x2,%rax
    72c1:	48 8d 14 01          	lea    (%rcx,%rax,1),%rdx
    72c5:	48 8b 85 d8 f9 ff ff 	mov    -0x628(%rbp),%rax
    72cc:	48 89 10             	mov    %rdx,(%rax)
    72cf:	0f b7 05 b0 8e 00 00 	movzwl 0x8eb0(%rip),%eax        # 10186 <g_785>
    72d6:	98                   	cwtl   
    72d7:	8d 50 02             	lea    0x2(%rax),%edx
    72da:	0f b7 05 a5 8e 00 00 	movzwl 0x8ea5(%rip),%eax        # 10186 <g_785>
    72e1:	98                   	cwtl   
    72e2:	8d 70 01             	lea    0x1(%rax),%esi
    72e5:	0f b7 05 9a 8e 00 00 	movzwl 0x8e9a(%rip),%eax        # 10186 <g_785>
    72ec:	98                   	cwtl   
    72ed:	48 63 c8             	movslq %eax,%rcx
    72f0:	48 63 d2             	movslq %edx,%rdx
    72f3:	48 63 f6             	movslq %esi,%rsi
    72f6:	48 89 d0             	mov    %rdx,%rax
    72f9:	48 c1 e0 03          	shl    $0x3,%rax
    72fd:	48 01 d0             	add    %rdx,%rax
    7300:	48 01 f0             	add    %rsi,%rax
    7303:	48 c1 e0 02          	shl    $0x2,%rax
    7307:	48 01 c8             	add    %rcx,%rax
    730a:	c7 84 85 70 fc ff ff 	movl   $0x0,-0x390(%rbp,%rax,4)
    7311:	00 00 00 00 
    7315:	0f b7 05 6a 8e 00 00 	movzwl 0x8e6a(%rip),%eax        # 10186 <g_785>
    731c:	98                   	cwtl   
    731d:	8d 50 01             	lea    0x1(%rax),%edx
    7320:	0f b7 05 5f 8e 00 00 	movzwl 0x8e5f(%rip),%eax        # 10186 <g_785>
    7327:	98                   	cwtl   
    7328:	8d 70 05             	lea    0x5(%rax),%esi
    732b:	0f b7 05 54 8e 00 00 	movzwl 0x8e54(%rip),%eax        # 10186 <g_785>
    7332:	98                   	cwtl   
    7333:	48 63 c8             	movslq %eax,%rcx
    7336:	48 63 d2             	movslq %edx,%rdx
    7339:	48 63 f6             	movslq %esi,%rsi
    733c:	48 89 d0             	mov    %rdx,%rax
    733f:	48 c1 e0 03          	shl    $0x3,%rax
    7343:	48 01 d0             	add    %rdx,%rax
    7346:	48 01 f0             	add    %rsi,%rax
    7349:	48 c1 e0 02          	shl    $0x2,%rax
    734d:	48 01 c8             	add    %rcx,%rax
    7350:	8b 84 85 70 fc ff ff 	mov    -0x390(%rbp,%rax,4),%eax
    7357:	e9 8c 00 00 00       	jmpq   73e8 <func_23+0xbd8>
    735c:	66 83 bd 08 f9 ff ff 	cmpw   $0x0,-0x6f8(%rbp)
    7363:	00 
    7364:	74 1d                	je     7383 <func_23+0xb73>
    7366:	8b 85 50 fa ff ff    	mov    -0x5b0(%rbp),%eax
    736c:	48 98                	cltq   
    736e:	48 89 c7             	mov    %rax,%rdi
    7371:	e8 a3 dc ff ff       	callq  5019 <safe_unary_minus_func_uint64_t_u>
    7376:	48 85 c0             	test   %rax,%rax
    7379:	74 08                	je     7383 <func_23+0xb73>
    737b:	8b 85 50 fa ff ff    	mov    -0x5b0(%rbp),%eax
    7381:	eb 65                	jmp    73e8 <func_23+0xbd8>
    7383:	48 8d 05 c6 97 00 00 	lea    0x97c6(%rip),%rax        # 10b50 <g_415+0xd0>
    738a:	48 89 85 e0 f9 ff ff 	mov    %rax,-0x620(%rbp)
    7391:	48 8b 05 18 99 00 00 	mov    0x9918(%rip),%rax        # 10cb0 <g_414>
    7398:	48 8b 10             	mov    (%rax),%rdx
    739b:	48 8b 85 e0 f9 ff ff 	mov    -0x620(%rbp),%rax
    73a2:	48 89 10             	mov    %rdx,(%rax)
    73a5:	48 8b 05 9c a2 00 00 	mov    0xa29c(%rip),%rax        # 11648 <g_1105>
    73ac:	0f b7 00             	movzwl (%rax),%eax
    73af:	eb 37                	jmp    73e8 <func_23+0xbd8>
    73b1:	90                   	nop
    73b2:	48 8b 05 a7 a2 00 00 	mov    0xa2a7(%rip),%rax        # 11660 <g_1265>
    73b9:	48 8d 15 c8 8d 00 00 	lea    0x8dc8(%rip),%rdx        # 10188 <g_804>
    73c0:	48 89 10             	mov    %rdx,(%rax)
    73c3:	0f b7 85 0c f9 ff ff 	movzwl -0x6f4(%rbp),%eax
    73ca:	83 c0 01             	add    $0x1,%eax
    73cd:	66 89 85 0c f9 ff ff 	mov    %ax,-0x6f4(%rbp)
    73d4:	66 83 bd 0c f9 ff ff 	cmpw   $0x6,-0x6f4(%rbp)
    73db:	06 
    73dc:	0f 8e 19 f5 ff ff    	jle    68fb <func_23+0xeb>
    73e2:	8b 85 94 fb ff ff    	mov    -0x46c(%rbp),%eax
    73e8:	48 8b 5d d8          	mov    -0x28(%rbp),%rbx
    73ec:	64 48 33 1c 25 28 00 	xor    %fs:0x28,%rbx
    73f3:	00 00 
    73f5:	74 05                	je     73fc <func_23+0xbec>
    73f7:	e8 74 cc ff ff       	callq  4070 <__stack_chk_fail@plt>
    73fc:	48 81 c4 f0 06 00 00 	add    $0x6f0,%rsp
    7403:	5b                   	pop    %rbx
    7404:	41 5c                	pop    %r12
    7406:	41 5d                	pop    %r13
    7408:	41 5e                	pop    %r14
    740a:	5d                   	pop    %rbp
    740b:	c3                   	retq   

000000000000740c <func_34>:
    740c:	f3 0f 1e fa          	endbr64 
    7410:	55                   	push   %rbp
    7411:	48 89 e5             	mov    %rsp,%rbp
    7414:	41 55                	push   %r13
    7416:	41 54                	push   %r12
    7418:	53                   	push   %rbx
    7419:	48 81 ec 48 01 00 00 	sub    $0x148,%rsp
    7420:	48 89 bd a8 fe ff ff 	mov    %rdi,-0x158(%rbp)
    7427:	64 48 8b 04 25 28 00 	mov    %fs:0x28,%rax
    742e:	00 00 
    7430:	48 89 45 d8          	mov    %rax,-0x28(%rbp)
    7434:	31 c0                	xor    %eax,%eax
    7436:	48 8d 05 eb 8b 00 00 	lea    0x8beb(%rip),%rax        # 10028 <g_53>
    743d:	48 89 85 d8 fe ff ff 	mov    %rax,-0x128(%rbp)
    7444:	c7 85 cc fe ff ff 01 	movl   $0x1,-0x134(%rbp)
    744b:	00 00 00 
    744e:	48 8d 05 cf 8b 00 00 	lea    0x8bcf(%rip),%rax        # 10024 <g_9>
    7455:	48 89 85 e0 fe ff ff 	mov    %rax,-0x120(%rbp)
    745c:	c7 85 d0 fe ff ff 2f 	movl   $0x60b09c2f,-0x130(%rbp)
    7463:	9c b0 60 
    7466:	48 c7 85 e8 fe ff ff 	movq   $0x0,-0x118(%rbp)
    746d:	00 00 00 00 
    7471:	48 8d 05 50 8d 00 00 	lea    0x8d50(%rip),%rax        # 101c8 <g_1134+0x28>
    7478:	48 89 85 f0 fe ff ff 	mov    %rax,-0x110(%rbp)
    747f:	c7 85 c0 fe ff ff 2b 	movl   $0x4a73912b,-0x140(%rbp)
    7486:	91 73 4a 
    7489:	48 8d 05 c8 8b 00 00 	lea    0x8bc8(%rip),%rax        # 10058 <g_70+0x18>
    7490:	48 89 85 f8 fe ff ff 	mov    %rax,-0x108(%rbp)
    7497:	48 8d 85 c0 fe ff ff 	lea    -0x140(%rbp),%rax
    749e:	48 89 85 00 ff ff ff 	mov    %rax,-0x100(%rbp)
    74a5:	48 8d 85 c0 fe ff ff 	lea    -0x140(%rbp),%rax
    74ac:	48 89 85 08 ff ff ff 	mov    %rax,-0xf8(%rbp)
    74b3:	48 8d 05 0e 8d 00 00 	lea    0x8d0e(%rip),%rax        # 101c8 <g_1134+0x28>
    74ba:	48 89 85 10 ff ff ff 	mov    %rax,-0xf0(%rbp)
    74c1:	c7 85 d4 fe ff ff 08 	movl   $0x8,-0x12c(%rbp)
    74c8:	00 00 00 
    74cb:	48 c7 85 18 ff ff ff 	movq   $0x0,-0xe8(%rbp)
    74d2:	00 00 00 00 
    74d6:	48 8d 05 eb 8c 00 00 	lea    0x8ceb(%rip),%rax        # 101c8 <g_1134+0x28>
    74dd:	48 89 85 20 ff ff ff 	mov    %rax,-0xe0(%rbp)
    74e4:	48 8d 05 6d 8b 00 00 	lea    0x8b6d(%rip),%rax        # 10058 <g_70+0x18>
    74eb:	48 89 85 28 ff ff ff 	mov    %rax,-0xd8(%rbp)
    74f2:	48 8d 05 8f 8d 00 00 	lea    0x8d8f(%rip),%rax        # 10288 <g_1134+0xe8>
    74f9:	48 89 85 30 ff ff ff 	mov    %rax,-0xd0(%rbp)
    7500:	48 c7 85 38 ff ff ff 	movq   $0x0,-0xc8(%rbp)
    7507:	00 00 00 00 
    750b:	48 8d 05 e6 8b 00 00 	lea    0x8be6(%rip),%rax        # 100f8 <g_295>
    7512:	48 89 45 80          	mov    %rax,-0x80(%rbp)
    7516:	48 8d 05 db 8b 00 00 	lea    0x8bdb(%rip),%rax        # 100f8 <g_295>
    751d:	48 89 45 88          	mov    %rax,-0x78(%rbp)
    7521:	48 8d 05 d0 8b 00 00 	lea    0x8bd0(%rip),%rax        # 100f8 <g_295>
    7528:	48 89 45 90          	mov    %rax,-0x70(%rbp)
    752c:	48 8d 05 c5 8b 00 00 	lea    0x8bc5(%rip),%rax        # 100f8 <g_295>
    7533:	48 89 45 98          	mov    %rax,-0x68(%rbp)
    7537:	48 8d 05 ba 8b 00 00 	lea    0x8bba(%rip),%rax        # 100f8 <g_295>
    753e:	48 89 45 a0          	mov    %rax,-0x60(%rbp)
    7542:	48 8d 05 af 8b 00 00 	lea    0x8baf(%rip),%rax        # 100f8 <g_295>
    7549:	48 89 45 a8          	mov    %rax,-0x58(%rbp)
    754d:	48 8d 05 a4 8b 00 00 	lea    0x8ba4(%rip),%rax        # 100f8 <g_295>
    7554:	48 89 45 b0          	mov    %rax,-0x50(%rbp)
    7558:	48 8d 05 99 8b 00 00 	lea    0x8b99(%rip),%rax        # 100f8 <g_295>
    755f:	48 89 45 b8          	mov    %rax,-0x48(%rbp)
    7563:	48 8d 05 8e 8b 00 00 	lea    0x8b8e(%rip),%rax        # 100f8 <g_295>
    756a:	48 89 45 c0          	mov    %rax,-0x40(%rbp)
    756e:	48 8d 05 83 8b 00 00 	lea    0x8b83(%rip),%rax        # 100f8 <g_295>
    7575:	48 89 45 c8          	mov    %rax,-0x38(%rbp)
    7579:	c6 85 bf fe ff ff af 	movb   $0xaf,-0x141(%rbp)
    7580:	c7 85 c4 fe ff ff 00 	movl   $0x0,-0x13c(%rbp)
    7587:	00 00 00 
    758a:	eb 49                	jmp    75d5 <func_34+0x1c9>
    758c:	c7 85 c8 fe ff ff 00 	movl   $0x0,-0x138(%rbp)
    7593:	00 00 00 
    7596:	eb 2d                	jmp    75c5 <func_34+0x1b9>
    7598:	8b 85 c8 fe ff ff    	mov    -0x138(%rbp),%eax
    759e:	48 98                	cltq   
    75a0:	8b 95 c4 fe ff ff    	mov    -0x13c(%rbp),%edx
    75a6:	48 63 d2             	movslq %edx,%rdx
    75a9:	48 01 d2             	add    %rdx,%rdx
    75ac:	48 01 d0             	add    %rdx,%rax
    75af:	48 8d 15 7a 8a 00 00 	lea    0x8a7a(%rip),%rdx        # 10030 <g_62>
    75b6:	48 89 94 c5 40 ff ff 	mov    %rdx,-0xc0(%rbp,%rax,8)
    75bd:	ff 
    75be:	83 85 c8 fe ff ff 01 	addl   $0x1,-0x138(%rbp)
    75c5:	83 bd c8 fe ff ff 01 	cmpl   $0x1,-0x138(%rbp)
    75cc:	7e ca                	jle    7598 <func_34+0x18c>
    75ce:	83 85 c4 fe ff ff 01 	addl   $0x1,-0x13c(%rbp)
    75d5:	83 bd c4 fe ff ff 03 	cmpl   $0x3,-0x13c(%rbp)
    75dc:	7e ae                	jle    758c <func_34+0x180>
    75de:	8b 85 d0 fe ff ff    	mov    -0x130(%rbp),%eax
    75e4:	44 0f b7 e0          	movzwl %ax,%r12d
    75e8:	8b 85 d0 fe ff ff    	mov    -0x130(%rbp),%eax
    75ee:	0f bf d8             	movswl %ax,%ebx
    75f1:	4c 8b 6d 14          	mov    0x14(%rbp),%r13
    75f5:	0f b6 05 28 8a 00 00 	movzbl 0x8a28(%rip),%eax        # 10024 <g_9>
    75fc:	0f be d0             	movsbl %al,%edx
    75ff:	48 8b 05 1a 94 00 00 	mov    0x941a(%rip),%rax        # 10a20 <g_8>
    7606:	0f b6 00             	movzbl (%rax),%eax
    7609:	0f be c0             	movsbl %al,%eax
    760c:	89 d6                	mov    %edx,%esi
    760e:	89 c7                	mov    %eax,%edi
    7610:	e8 fd cb ff ff       	callq  4212 <safe_mul_func_int8_t_s_s>
    7615:	83 bd cc fe ff ff 00 	cmpl   $0x0,-0x134(%rbp)
    761c:	74 07                	je     7625 <func_34+0x219>
    761e:	b8 01 00 00 00       	mov    $0x1,%eax
    7623:	eb 05                	jmp    762a <func_34+0x21e>
    7625:	b8 00 00 00 00       	mov    $0x0,%eax
    762a:	48 98                	cltq   
    762c:	49 39 c5             	cmp    %rax,%r13
    762f:	0f 96 c0             	setbe  %al
    7632:	0f b6 c0             	movzbl %al,%eax
    7635:	89 05 1d 8a 00 00    	mov    %eax,0x8a1d(%rip)        # 10058 <g_70+0x18>
    763b:	8b 05 17 8a 00 00    	mov    0x8a17(%rip),%eax        # 10058 <g_70+0x18>
    7641:	0f bf d0             	movswl %ax,%edx
    7644:	0f b6 05 d9 89 00 00 	movzbl 0x89d9(%rip),%eax        # 10024 <g_9>
    764b:	0f be c0             	movsbl %al,%eax
    764e:	89 d6                	mov    %edx,%esi
    7650:	89 c7                	mov    %eax,%edi
    7652:	e8 9e cd ff ff       	callq  43f5 <safe_mul_func_int16_t_s_s>
    7657:	8b 45 10             	mov    0x10(%rbp),%eax
    765a:	25 ff ff ff 7f       	and    $0x7fffffff,%eax
    765f:	0f bf d0             	movswl %ax,%edx
    7662:	0f b6 05 bb 89 00 00 	movzbl 0x89bb(%rip),%eax        # 10024 <g_9>
    7669:	0f be c0             	movsbl %al,%eax
    766c:	89 d6                	mov    %edx,%esi
    766e:	89 c7                	mov    %eax,%edi
    7670:	e8 a1 cd ff ff       	callq  4416 <safe_mod_func_int16_t_s_s>
    7675:	0f bf d0             	movswl %ax,%edx
    7678:	48 8d 05 a5 89 00 00 	lea    0x89a5(%rip),%rax        # 10024 <g_9>
    767f:	48 39 85 e0 fe ff ff 	cmp    %rax,-0x120(%rbp)
    7686:	0f 94 c0             	sete   %al
    7689:	0f b6 c0             	movzbl %al,%eax
    768c:	39 c2                	cmp    %eax,%edx
    768e:	7e 07                	jle    7697 <func_34+0x28b>
    7690:	b9 ce 00 00 00       	mov    $0xce,%ecx
    7695:	eb 05                	jmp    769c <func_34+0x290>
    7697:	b9 cf 00 00 00       	mov    $0xcf,%ecx
    769c:	48 8b 45 10          	mov    0x10(%rbp),%rax
    76a0:	48 89 05 89 89 00 00 	mov    %rax,0x8989(%rip)        # 10030 <g_62>
    76a7:	8b 45 18             	mov    0x18(%rbp),%eax
    76aa:	89 05 88 89 00 00    	mov    %eax,0x8988(%rip)        # 10038 <g_62+0x8>
    76b0:	48 83 ec 10          	sub    $0x10,%rsp
    76b4:	48 89 e0             	mov    %rsp,%rax
    76b7:	48 8b 15 72 89 00 00 	mov    0x8972(%rip),%rdx        # 10030 <g_62>
    76be:	48 89 10             	mov    %rdx,(%rax)
    76c1:	8b 15 71 89 00 00    	mov    0x8971(%rip),%edx        # 10038 <g_62+0x8>
    76c7:	89 50 08             	mov    %edx,0x8(%rax)
    76ca:	89 cf                	mov    %ecx,%edi
    76cc:	e8 16 30 00 00       	callq  a6e7 <func_59>
    76d1:	48 83 c4 10          	add    $0x10,%rsp
    76d5:	48 89 c6             	mov    %rax,%rsi
    76d8:	48 8b 8d d8 fe ff ff 	mov    -0x128(%rbp),%rcx
    76df:	48 8b 15 f2 a3 00 00 	mov    0xa3f2(%rip),%rdx        # 11ad8 <g_98>
    76e6:	48 8b 85 e0 fe ff ff 	mov    -0x120(%rbp),%rax
    76ed:	49 89 c8             	mov    %rcx,%r8
    76f0:	48 89 d1             	mov    %rdx,%rcx
    76f3:	48 89 c2             	mov    %rax,%rdx
    76f6:	48 8d 7d 10          	lea    0x10(%rbp),%rdi
    76fa:	e8 a7 15 00 00       	callq  8ca6 <func_54>
    76ff:	8b 45 10             	mov    0x10(%rbp),%eax
    7702:	25 ff ff ff 7f       	and    $0x7fffffff,%eax
    7707:	89 c1                	mov    %eax,%ecx
    7709:	0f b6 05 14 89 00 00 	movzbl 0x8914(%rip),%eax        # 10024 <g_9>
    7710:	48 0f be d0          	movsbq %al,%rdx
    7714:	48 8b 85 d8 fe ff ff 	mov    -0x128(%rbp),%rax
    771b:	48 89 10             	mov    %rdx,(%rax)
    771e:	48 8b 85 d8 fe ff ff 	mov    -0x128(%rbp),%rax
    7725:	48 8b 00             	mov    (%rax),%rax
    7728:	48 8d 15 f5 88 00 00 	lea    0x88f5(%rip),%rdx        # 10024 <g_9>
    772f:	89 ce                	mov    %ecx,%esi
    7731:	48 89 c7             	mov    %rax,%rdi
    7734:	e8 0b 0e 00 00       	callq  8544 <func_48>
    7739:	48 89 c7             	mov    %rax,%rdi
    773c:	48 8b 95 e0 fe ff ff 	mov    -0x120(%rbp),%rdx
    7743:	48 83 ec 10          	sub    $0x10,%rsp
    7747:	48 89 e0             	mov    %rsp,%rax
    774a:	48 8b 0d 37 8a 00 00 	mov    0x8a37(%rip),%rcx        # 10188 <g_804>
    7751:	48 89 08             	mov    %rcx,(%rax)
    7754:	8b 0d 36 8a 00 00    	mov    0x8a36(%rip),%ecx        # 10190 <g_804+0x8>
    775a:	89 48 08             	mov    %ecx,0x8(%rax)
    775d:	44 89 e1             	mov    %r12d,%ecx
    7760:	89 de                	mov    %ebx,%esi
    7762:	e8 66 00 00 00       	callq  77cd <func_42>
    7767:	48 83 c4 10          	add    $0x10,%rsp
    776b:	be 00 00 00 00       	mov    $0x0,%esi
    7770:	89 c7                	mov    %eax,%edi
    7772:	e8 3f ce ff ff       	callq  45b6 <safe_add_func_int32_t_s_s>
    7777:	be ff ff ff ff       	mov    $0xffffffff,%esi
    777c:	89 c7                	mov    %eax,%edi
    777e:	e8 82 ce ff ff       	callq  4605 <safe_sub_func_int32_t_s_s>
    7783:	48 8b 95 f0 fe ff ff 	mov    -0x110(%rbp),%rdx
    778a:	8b 12                	mov    (%rdx),%edx
    778c:	09 c2                	or     %eax,%edx
    778e:	48 8b 85 f0 fe ff ff 	mov    -0x110(%rbp),%rax
    7795:	89 10                	mov    %edx,(%rax)
    7797:	0f b6 85 bf fe ff ff 	movzbl -0x141(%rbp),%eax
    779e:	83 e8 01             	sub    $0x1,%eax
    77a1:	88 85 bf fe ff ff    	mov    %al,-0x141(%rbp)
    77a7:	48 8b 85 e0 fe ff ff 	mov    -0x120(%rbp),%rax
    77ae:	48 8b 5d d8          	mov    -0x28(%rbp),%rbx
    77b2:	64 48 33 1c 25 28 00 	xor    %fs:0x28,%rbx
    77b9:	00 00 
    77bb:	74 05                	je     77c2 <func_34+0x3b6>
    77bd:	e8 ae c8 ff ff       	callq  4070 <__stack_chk_fail@plt>
    77c2:	48 8d 65 e8          	lea    -0x18(%rbp),%rsp
    77c6:	5b                   	pop    %rbx
    77c7:	41 5c                	pop    %r12
    77c9:	41 5d                	pop    %r13
    77cb:	5d                   	pop    %rbp
    77cc:	c3                   	retq   

00000000000077cd <func_42>:
    77cd:	f3 0f 1e fa          	endbr64 
    77d1:	55                   	push   %rbp
    77d2:	48 89 e5             	mov    %rsp,%rbp
    77d5:	41 56                	push   %r14
    77d7:	41 55                	push   %r13
    77d9:	41 54                	push   %r12
    77db:	53                   	push   %rbx
    77dc:	48 81 ec 70 05 00 00 	sub    $0x570,%rsp
    77e3:	48 89 bd 88 fa ff ff 	mov    %rdi,-0x578(%rbp)
    77ea:	48 89 95 78 fa ff ff 	mov    %rdx,-0x588(%rbp)
    77f1:	89 c8                	mov    %ecx,%eax
    77f3:	89 f2                	mov    %esi,%edx
    77f5:	66 89 95 84 fa ff ff 	mov    %dx,-0x57c(%rbp)
    77fc:	66 89 85 80 fa ff ff 	mov    %ax,-0x580(%rbp)
    7803:	64 48 8b 04 25 28 00 	mov    %fs:0x28,%rax
    780a:	00 00 
    780c:	48 89 45 d8          	mov    %rax,-0x28(%rbp)
    7810:	31 c0                	xor    %eax,%eax
    7812:	48 8d 05 df 88 00 00 	lea    0x88df(%rip),%rax        # 100f8 <g_295>
    7819:	48 89 85 08 fb ff ff 	mov    %rax,-0x4f8(%rbp)
    7820:	48 8d 05 31 88 00 00 	lea    0x8831(%rip),%rax        # 10058 <g_70+0x18>
    7827:	48 89 85 10 fb ff ff 	mov    %rax,-0x4f0(%rbp)
    782e:	48 8d 05 1f 88 00 00 	lea    0x881f(%rip),%rax        # 10054 <g_70+0x14>
    7835:	48 89 85 18 fb ff ff 	mov    %rax,-0x4e8(%rbp)
    783c:	48 8d 05 15 88 00 00 	lea    0x8815(%rip),%rax        # 10058 <g_70+0x18>
    7843:	48 89 85 20 fb ff ff 	mov    %rax,-0x4e0(%rbp)
    784a:	48 c7 85 28 fb ff ff 	movq   $0x0,-0x4d8(%rbp)
    7851:	00 00 00 00 
    7855:	c7 85 94 fa ff ff 00 	movl   $0x0,-0x56c(%rbp)
    785c:	00 00 00 
    785f:	48 8d 85 94 fa ff ff 	lea    -0x56c(%rbp),%rax
    7866:	48 89 85 30 fb ff ff 	mov    %rax,-0x4d0(%rbp)
    786d:	48 8d 05 d4 87 00 00 	lea    0x87d4(%rip),%rax        # 10048 <g_70+0x8>
    7874:	48 89 85 38 fb ff ff 	mov    %rax,-0x4c8(%rbp)
    787b:	48 c7 85 40 fb ff ff 	movq   $0x0,-0x4c0(%rbp)
    7882:	00 00 00 00 
    7886:	48 8d 05 cb 87 00 00 	lea    0x87cb(%rip),%rax        # 10058 <g_70+0x18>
    788d:	48 89 85 48 fb ff ff 	mov    %rax,-0x4b8(%rbp)
    7894:	c7 85 98 fa ff ff 10 	movl   $0x457aef10,-0x568(%rbp)
    789b:	ef 7a 45 
    789e:	48 c7 85 50 fb ff ff 	movq   $0x0,-0x4b0(%rbp)
    78a5:	00 00 00 00 
    78a9:	48 8d 85 98 fa ff ff 	lea    -0x568(%rbp),%rax
    78b0:	48 89 85 58 fb ff ff 	mov    %rax,-0x4a8(%rbp)
    78b7:	48 8d 05 92 87 00 00 	lea    0x8792(%rip),%rax        # 10050 <g_70+0x10>
    78be:	48 89 85 c0 fc ff ff 	mov    %rax,-0x340(%rbp)
    78c5:	48 8d 05 84 87 00 00 	lea    0x8784(%rip),%rax        # 10050 <g_70+0x10>
    78cc:	48 89 85 c8 fc ff ff 	mov    %rax,-0x338(%rbp)
    78d3:	48 8d 05 76 87 00 00 	lea    0x8776(%rip),%rax        # 10050 <g_70+0x10>
    78da:	48 89 85 d0 fc ff ff 	mov    %rax,-0x330(%rbp)
    78e1:	48 8d 05 68 87 00 00 	lea    0x8768(%rip),%rax        # 10050 <g_70+0x10>
    78e8:	48 89 85 d8 fc ff ff 	mov    %rax,-0x328(%rbp)
    78ef:	48 8d 05 5a 87 00 00 	lea    0x875a(%rip),%rax        # 10050 <g_70+0x10>
    78f6:	48 89 85 e0 fc ff ff 	mov    %rax,-0x320(%rbp)
    78fd:	48 8d 05 4c 87 00 00 	lea    0x874c(%rip),%rax        # 10050 <g_70+0x10>
    7904:	48 89 85 e8 fc ff ff 	mov    %rax,-0x318(%rbp)
    790b:	48 c7 85 60 fb ff ff 	movq   $0x1,-0x4a0(%rbp)
    7912:	01 00 00 00 
    7916:	48 c7 85 68 fb ff ff 	movq   $0x0,-0x498(%rbp)
    791d:	00 00 00 00 
    7921:	48 b8 17 8e d1 dc 0a 	movabs $0x3997170adcd18e17,%rax
    7928:	17 97 39 
    792b:	48 89 85 70 fb ff ff 	mov    %rax,-0x490(%rbp)
    7932:	8b 85 18 fc ff ff    	mov    -0x3e8(%rbp),%eax
    7938:	25 00 00 00 80       	and    $0x80000000,%eax
    793d:	0d c6 85 00 00       	or     $0x85c6,%eax
    7942:	89 85 18 fc ff ff    	mov    %eax,-0x3e8(%rbp)
    7948:	48 c7 85 1c fc ff ff 	movq   $0xffffffffffffffff,-0x3e4(%rbp)
    794f:	ff ff ff ff 
    7953:	48 8d 05 fe 86 00 00 	lea    0x86fe(%rip),%rax        # 10058 <g_70+0x18>
    795a:	48 89 85 f8 fa ff ff 	mov    %rax,-0x508(%rbp)
    7961:	48 c7 85 78 fb ff ff 	movq   $0x0,-0x488(%rbp)
    7968:	00 00 00 00 
    796c:	48 c7 85 80 fb ff ff 	movq   $0x0,-0x480(%rbp)
    7973:	00 00 00 00 
    7977:	48 83 85 60 fb ff ff 	addq   $0x1,-0x4a0(%rbp)
    797e:	01 
    797f:	66 c7 05 4c 87 00 00 	movw   $0x0,0x874c(%rip)        # 100d4 <g_181>
    7986:	00 00 
    7988:	e9 fb 0a 00 00       	jmpq   8488 <func_42+0xcbb>
    798d:	48 c7 85 90 fb ff ff 	movq   $0x0,-0x470(%rbp)
    7994:	00 00 00 00 
    7998:	48 c7 85 f0 fc ff ff 	movq   $0x0,-0x310(%rbp)
    799f:	00 00 00 00 
    79a3:	48 c7 85 f8 fc ff ff 	movq   $0x0,-0x308(%rbp)
    79aa:	00 00 00 00 
    79ae:	48 c7 85 00 fd ff ff 	movq   $0x0,-0x300(%rbp)
    79b5:	00 00 00 00 
    79b9:	48 c7 85 08 fd ff ff 	movq   $0x0,-0x2f8(%rbp)
    79c0:	00 00 00 00 
    79c4:	48 c7 85 10 fd ff ff 	movq   $0x0,-0x2f0(%rbp)
    79cb:	00 00 00 00 
    79cf:	48 c7 85 18 fd ff ff 	movq   $0x0,-0x2e8(%rbp)
    79d6:	00 00 00 00 
    79da:	48 c7 85 20 fd ff ff 	movq   $0x0,-0x2e0(%rbp)
    79e1:	00 00 00 00 
    79e5:	48 c7 85 28 fd ff ff 	movq   $0x0,-0x2d8(%rbp)
    79ec:	00 00 00 00 
    79f0:	48 8d 05 d9 86 00 00 	lea    0x86d9(%rip),%rax        # 100d0 <g_132>
    79f7:	48 89 85 98 fb ff ff 	mov    %rax,-0x468(%rbp)
    79fe:	c7 85 9c fa ff ff 01 	movl   $0x1,-0x564(%rbp)
    7a05:	00 00 00 
    7a08:	48 c7 85 a0 fb ff ff 	movq   $0x0,-0x460(%rbp)
    7a0f:	00 00 00 00 
    7a13:	48 8d 05 bc 86 00 00 	lea    0x86bc(%rip),%rax        # 100d6 <g_211>
    7a1a:	48 89 85 a8 fb ff ff 	mov    %rax,-0x458(%rbp)
    7a21:	c7 85 a8 fa ff ff 01 	movl   $0x1,-0x558(%rbp)
    7a28:	00 00 00 
    7a2b:	48 8d 05 52 87 00 00 	lea    0x8752(%rip),%rax        # 10184 <g_686>
    7a32:	48 89 85 b0 fb ff ff 	mov    %rax,-0x450(%rbp)
    7a39:	c7 85 ac fa ff ff a4 	movl   $0x70fedca4,-0x554(%rbp)
    7a40:	dc fe 70 
    7a43:	48 8d 05 8e 86 00 00 	lea    0x868e(%rip),%rax        # 100d8 <g_213>
    7a4a:	48 89 85 b8 fb ff ff 	mov    %rax,-0x448(%rbp)
    7a51:	8b 85 24 fc ff ff    	mov    -0x3dc(%rbp),%eax
    7a57:	25 00 00 00 80       	and    $0x80000000,%eax
    7a5c:	0d 40 06 00 00       	or     $0x640,%eax
    7a61:	89 85 24 fc ff ff    	mov    %eax,-0x3dc(%rbp)
    7a67:	48 c7 85 28 fc ff ff 	movq   $0x4,-0x3d8(%rbp)
    7a6e:	04 00 00 00 
    7a72:	c7 85 b0 fa ff ff 00 	movl   $0x0,-0x550(%rbp)
    7a79:	00 00 00 
    7a7c:	c7 85 b4 fa ff ff 03 	movl   $0x3,-0x54c(%rbp)
    7a83:	00 00 00 
    7a86:	c7 85 b8 fa ff ff 01 	movl   $0x1,-0x548(%rbp)
    7a8d:	00 00 00 
    7a90:	48 8d 05 bd 45 00 00 	lea    0x45bd(%rip),%rax        # c054 <g_958>
    7a97:	48 89 85 c0 fb ff ff 	mov    %rax,-0x440(%rbp)
    7a9e:	48 8d 85 70 fd ff ff 	lea    -0x290(%rbp),%rax
    7aa5:	48 8d 15 74 4a 00 00 	lea    0x4a74(%rip),%rdx        # c520 <g_1259+0x4c8>
    7aac:	b9 4b 00 00 00       	mov    $0x4b,%ecx
    7ab1:	48 89 c7             	mov    %rax,%rdi
    7ab4:	48 89 d6             	mov    %rdx,%rsi
    7ab7:	f3 48 a5             	rep movsq %ds:(%rsi),%es:(%rdi)
    7aba:	c7 85 bc fa ff ff ff 	movl   $0xffffffff,-0x544(%rbp)
    7ac1:	ff ff ff 
    7ac4:	c7 85 c0 fa ff ff e7 	movl   $0x357a89e7,-0x540(%rbp)
    7acb:	89 7a 35 
    7ace:	48 8d 85 c0 fc ff ff 	lea    -0x340(%rbp),%rax
    7ad5:	48 83 c0 08          	add    $0x8,%rax
    7ad9:	48 89 85 00 fb ff ff 	mov    %rax,-0x500(%rbp)
    7ae0:	66 c7 85 60 fc ff ff 	movw   $0x2,-0x3a0(%rbp)
    7ae7:	02 00 
    7ae9:	66 c7 85 62 fc ff ff 	movw   $0xc6ea,-0x39e(%rbp)
    7af0:	ea c6 
    7af2:	66 c7 85 64 fc ff ff 	movw   $0xc6ea,-0x39c(%rbp)
    7af9:	ea c6 
    7afb:	66 c7 85 66 fc ff ff 	movw   $0x2,-0x39a(%rbp)
    7b02:	02 00 
    7b04:	66 c7 85 68 fc ff ff 	movw   $0xc6ea,-0x398(%rbp)
    7b0b:	ea c6 
    7b0d:	66 c7 85 6a fc ff ff 	movw   $0xc6ea,-0x396(%rbp)
    7b14:	ea c6 
    7b16:	66 c7 85 6c fc ff ff 	movw   $0x2,-0x394(%rbp)
    7b1d:	02 00 
    7b1f:	66 c7 85 6e fc ff ff 	movw   $0xc6ea,-0x392(%rbp)
    7b26:	ea c6 
    7b28:	66 c7 85 70 fc ff ff 	movw   $0xc6ea,-0x390(%rbp)
    7b2f:	ea c6 
    7b31:	66 c7 85 72 fc ff ff 	movw   $0x2,-0x38e(%rbp)
    7b38:	02 00 
    7b3a:	66 c7 85 74 fc ff ff 	movw   $0xc6ea,-0x38c(%rbp)
    7b41:	ea c6 
    7b43:	66 c7 85 76 fc ff ff 	movw   $0xc6ea,-0x38a(%rbp)
    7b4a:	ea c6 
    7b4c:	66 c7 85 78 fc ff ff 	movw   $0x2,-0x388(%rbp)
    7b53:	02 00 
    7b55:	66 c7 85 7a fc ff ff 	movw   $0xc6ea,-0x386(%rbp)
    7b5c:	ea c6 
    7b5e:	66 c7 85 7c fc ff ff 	movw   $0xc6ea,-0x384(%rbp)
    7b65:	ea c6 
    7b67:	66 c7 85 7e fc ff ff 	movw   $0x2,-0x382(%rbp)
    7b6e:	02 00 
    7b70:	66 c7 85 80 fc ff ff 	movw   $0xc6ea,-0x380(%rbp)
    7b77:	ea c6 
    7b79:	66 c7 85 82 fc ff ff 	movw   $0xc6ea,-0x37e(%rbp)
    7b80:	ea c6 
    7b82:	c7 85 a0 fa ff ff 00 	movl   $0x0,-0x560(%rbp)
    7b89:	00 00 00 
    7b8c:	eb 1a                	jmp    7ba8 <func_42+0x3db>
    7b8e:	8b 85 a0 fa ff ff    	mov    -0x560(%rbp),%eax
    7b94:	48 98                	cltq   
    7b96:	c7 84 85 30 fc ff ff 	movl   $0xfffffff9,-0x3d0(%rbp,%rax,4)
    7b9d:	f9 ff ff ff 
    7ba1:	83 85 a0 fa ff ff 01 	addl   $0x1,-0x560(%rbp)
    7ba8:	83 bd a0 fa ff ff 08 	cmpl   $0x8,-0x560(%rbp)
    7baf:	7e dd                	jle    7b8e <func_42+0x3c1>
    7bb1:	c7 85 a0 fa ff ff 00 	movl   $0x0,-0x560(%rbp)
    7bb8:	00 00 00 
    7bbb:	eb 1e                	jmp    7bdb <func_42+0x40e>
    7bbd:	8b 85 a0 fa ff ff    	mov    -0x560(%rbp),%eax
    7bc3:	48 98                	cltq   
    7bc5:	48 8d 95 00 fb ff ff 	lea    -0x500(%rbp),%rdx
    7bcc:	48 89 94 c5 30 fd ff 	mov    %rdx,-0x2d0(%rbp,%rax,8)
    7bd3:	ff 
    7bd4:	83 85 a0 fa ff ff 01 	addl   $0x1,-0x560(%rbp)
    7bdb:	83 bd a0 fa ff ff 07 	cmpl   $0x7,-0x560(%rbp)
    7be2:	7e d9                	jle    7bbd <func_42+0x3f0>
    7be4:	0f bf 85 84 fa ff ff 	movswl -0x57c(%rbp),%eax
    7beb:	25 ff ff ff 7f       	and    $0x7fffffff,%eax
    7bf0:	25 ff ff ff 7f       	and    $0x7fffffff,%eax
    7bf5:	89 c2                	mov    %eax,%edx
    7bf7:	8b 45 10             	mov    0x10(%rbp),%eax
    7bfa:	25 00 00 00 80       	and    $0x80000000,%eax
    7bff:	09 d0                	or     %edx,%eax
    7c01:	89 45 10             	mov    %eax,0x10(%rbp)
    7c04:	48 83 bd 98 fb ff ff 	cmpq   $0x0,-0x468(%rbp)
    7c0b:	00 
    7c0c:	48 8b 85 10 fb ff ff 	mov    -0x4f0(%rbp),%rax
    7c13:	8b 00                	mov    (%rax),%eax
    7c15:	41 89 c5             	mov    %eax,%r13d
    7c18:	48 0f bf 9d 84 fa ff 	movswq -0x57c(%rbp),%rbx
    7c1f:	ff 
    7c20:	48 8b 85 18 fb ff ff 	mov    -0x4e8(%rbp),%rax
    7c27:	8b 00                	mov    (%rax),%eax
    7c29:	41 89 c6             	mov    %eax,%r14d
    7c2c:	4c 8b a5 70 fb ff ff 	mov    -0x490(%rbp),%r12
    7c33:	bf 01 00 00 00       	mov    $0x1,%edi
    7c38:	e8 82 c5 ff ff       	callq  41bf <safe_unary_minus_func_int8_t_s>
    7c3d:	48 0f be c0          	movsbq %al,%rax
    7c41:	4c 89 e6             	mov    %r12,%rsi
    7c44:	48 89 c7             	mov    %rax,%rdi
    7c47:	e8 ab cd ff ff       	callq  49f7 <safe_div_func_int64_t_s_s>
    7c4c:	0f b6 c0             	movzbl %al,%eax
    7c4f:	44 89 f6             	mov    %r14d,%esi
    7c52:	89 c7                	mov    %eax,%edi
    7c54:	e8 65 d0 ff ff       	callq  4cbe <safe_rshift_func_uint8_t_u_u>
    7c59:	48 89 de             	mov    %rbx,%rsi
    7c5c:	48 bf 02 97 bd af 3d 	movabs $0xae2a13dafbd9702,%rdi
    7c63:	a1 e2 0a 
    7c66:	e8 e0 d3 ff ff       	callq  504b <safe_sub_func_uint64_t_u_u>
    7c6b:	44 89 ee             	mov    %r13d,%esi
    7c6e:	89 c7                	mov    %eax,%edi
    7c70:	e8 43 d2 ff ff       	callq  4eb8 <safe_add_func_uint32_t_u_u>
    7c75:	48 8b 95 08 fb ff ff 	mov    -0x4f8(%rbp),%rdx
    7c7c:	8b 12                	mov    (%rdx),%edx
    7c7e:	31 d0                	xor    %edx,%eax
    7c80:	89 c2                	mov    %eax,%edx
    7c82:	48 8b 85 08 fb ff ff 	mov    -0x4f8(%rbp),%rax
    7c89:	89 10                	mov    %edx,(%rax)
    7c8b:	8b 45 10             	mov    0x10(%rbp),%eax
    7c8e:	25 ff ff ff 7f       	and    $0x7fffffff,%eax
    7c93:	89 c2                	mov    %eax,%edx
    7c95:	8b 85 9c fa ff ff    	mov    -0x564(%rbp),%eax
    7c9b:	09 d0                	or     %edx,%eax
    7c9d:	89 85 9c fa ff ff    	mov    %eax,-0x564(%rbp)
    7ca3:	8b 85 9c fa ff ff    	mov    -0x564(%rbp),%eax
    7ca9:	25 ff ff ff 7f       	and    $0x7fffffff,%eax
    7cae:	25 ff ff ff 7f       	and    $0x7fffffff,%eax
    7cb3:	89 c2                	mov    %eax,%edx
    7cb5:	8b 45 10             	mov    0x10(%rbp),%eax
    7cb8:	25 00 00 00 80       	and    $0x80000000,%eax
    7cbd:	09 d0                	or     %edx,%eax
    7cbf:	89 45 10             	mov    %eax,0x10(%rbp)
    7cc2:	0f b7 9d 80 fa ff ff 	movzwl -0x580(%rbp),%ebx
    7cc9:	48 8b 45 14          	mov    0x14(%rbp),%rax
    7ccd:	41 89 c5             	mov    %eax,%r13d
    7cd0:	66 83 bd 84 fa ff ff 	cmpw   $0x0,-0x57c(%rbp)
    7cd7:	00 
    7cd8:	0f 84 9e 00 00 00    	je     7d7c <func_42+0x5af>
    7cde:	0f bf 85 84 fa ff ff 	movswl -0x57c(%rbp),%eax
    7ce5:	31 85 a8 fa ff ff    	xor    %eax,-0x558(%rbp)
    7ceb:	48 8d 05 c6 8f 00 00 	lea    0x8fc6(%rip),%rax        # 10cb8 <g_454>
    7cf2:	48 8b 00             	mov    (%rax),%rax
    7cf5:	0f b7 00             	movzwl (%rax),%eax
    7cf8:	44 0f b7 e0          	movzwl %ax,%r12d
    7cfc:	be 01 00 00 00       	mov    $0x1,%esi
    7d01:	bf 00 00 00 00       	mov    $0x0,%edi
    7d06:	e8 3d d1 ff ff       	callq  4e48 <safe_rshift_func_uint16_t_u_s>
    7d0b:	89 c1                	mov    %eax,%ecx
    7d0d:	48 8b 85 30 fb ff ff 	mov    -0x4d0(%rbp),%rax
    7d14:	8b 10                	mov    (%rax),%edx
    7d16:	48 8b 85 b0 fb ff ff 	mov    -0x450(%rbp),%rax
    7d1d:	0f b6 00             	movzbl (%rax),%eax
    7d20:	21 c1                	and    %eax,%ecx
    7d22:	48 8b 85 b0 fb ff ff 	mov    -0x450(%rbp),%rax
    7d29:	88 08                	mov    %cl,(%rax)
    7d2b:	48 8b 85 b0 fb ff ff 	mov    -0x450(%rbp),%rax
    7d32:	0f b6 00             	movzbl (%rax),%eax
    7d35:	3c 23                	cmp    $0x23,%al
    7d37:	0f 96 c0             	setbe  %al
    7d3a:	0f b6 c0             	movzbl %al,%eax
    7d3d:	39 85 ac fa ff ff    	cmp    %eax,-0x554(%rbp)
    7d43:	0f 9d c0             	setge  %al
    7d46:	0f b6 c8             	movzbl %al,%ecx
    7d49:	48 8b 05 d0 8c 00 00 	mov    0x8cd0(%rip),%rax        # 10a20 <g_8>
    7d50:	0f b6 00             	movzbl (%rax),%eax
    7d53:	0f be c0             	movsbl %al,%eax
    7d56:	31 c8                	xor    %ecx,%eax
    7d58:	39 c2                	cmp    %eax,%edx
    7d5a:	0f 94 c0             	sete   %al
    7d5d:	0f b6 c0             	movzbl %al,%eax
    7d60:	44 89 e6             	mov    %r12d,%esi
    7d63:	89 c7                	mov    %eax,%edi
    7d65:	e8 24 d0 ff ff       	callq  4d8e <safe_div_func_uint16_t_u_u>
    7d6a:	0f b7 c0             	movzwl %ax,%eax
    7d6d:	39 85 a8 fa ff ff    	cmp    %eax,-0x558(%rbp)
    7d73:	7e 07                	jle    7d7c <func_42+0x5af>
    7d75:	ba 01 00 00 00       	mov    $0x1,%edx
    7d7a:	eb 05                	jmp    7d81 <func_42+0x5b4>
    7d7c:	ba 00 00 00 00       	mov    $0x0,%edx
    7d81:	48 8b 85 08 fb ff ff 	mov    -0x4f8(%rbp),%rax
    7d88:	8b 00                	mov    (%rax),%eax
    7d8a:	09 c2                	or     %eax,%edx
    7d8c:	48 8b 85 08 fb ff ff 	mov    -0x4f8(%rbp),%rax
    7d93:	89 10                	mov    %edx,(%rax)
    7d95:	48 8b 85 08 fb ff ff 	mov    -0x4f8(%rbp),%rax
    7d9c:	8b 10                	mov    (%rax),%edx
    7d9e:	0f b7 85 80 fa ff ff 	movzwl -0x580(%rbp),%eax
    7da5:	39 c2                	cmp    %eax,%edx
    7da7:	0f 9f c0             	setg   %al
    7daa:	0f b6 c0             	movzbl %al,%eax
    7dad:	39 85 ac fa ff ff    	cmp    %eax,-0x554(%rbp)
    7db3:	0f 9f c0             	setg   %al
    7db6:	0f b6 c0             	movzbl %al,%eax
    7db9:	be 03 00 00 00       	mov    $0x3,%esi
    7dbe:	89 c7                	mov    %eax,%edi
    7dc0:	e8 70 c5 ff ff       	callq  4335 <safe_rshift_func_int8_t_s_s>
    7dc5:	66 0f be d0          	movsbw %al,%dx
    7dc9:	48 8b 85 b8 fb ff ff 	mov    -0x448(%rbp),%rax
    7dd0:	66 89 10             	mov    %dx,(%rax)
    7dd3:	48 8b 85 b8 fb ff ff 	mov    -0x448(%rbp),%rax
    7dda:	0f b7 00             	movzwl (%rax),%eax
    7ddd:	98                   	cwtl   
    7dde:	8b 15 4c 82 00 00    	mov    0x824c(%rip),%edx        # 10030 <g_62>
    7de4:	81 e2 ff ff ff 7f    	and    $0x7fffffff,%edx
    7dea:	39 d0                	cmp    %edx,%eax
    7dec:	be 03 00 00 00       	mov    $0x3,%esi
    7df1:	bf 02 00 00 00       	mov    $0x2,%edi
    7df6:	e8 a6 c4 ff ff       	callq  42a1 <safe_lshift_func_int8_t_s_s>
    7dfb:	89 c2                	mov    %eax,%edx
    7dfd:	48 8b 85 a8 fb ff ff 	mov    -0x458(%rbp),%rax
    7e04:	88 10                	mov    %dl,(%rax)
    7e06:	48 8b 85 a8 fb ff ff 	mov    -0x458(%rbp),%rax
    7e0d:	0f b6 00             	movzbl (%rax),%eax
    7e10:	0f b6 c0             	movzbl %al,%eax
    7e13:	be 03 00 00 00       	mov    $0x3,%esi
    7e18:	89 c7                	mov    %eax,%edi
    7e1a:	e8 9f ce ff ff       	callq  4cbe <safe_rshift_func_uint8_t_u_u>
    7e1f:	0f b7 95 80 fa ff ff 	movzwl -0x580(%rbp),%edx
    7e26:	09 d0                	or     %edx,%eax
    7e28:	0f b6 c0             	movzbl %al,%eax
    7e2b:	44 89 ee             	mov    %r13d,%esi
    7e2e:	89 c7                	mov    %eax,%edi
    7e30:	e8 89 ce ff ff       	callq  4cbe <safe_rshift_func_uint8_t_u_u>
    7e35:	84 c0                	test   %al,%al
    7e37:	74 07                	je     7e40 <func_42+0x673>
    7e39:	b8 01 00 00 00       	mov    $0x1,%eax
    7e3e:	eb 05                	jmp    7e45 <func_42+0x678>
    7e40:	b8 00 00 00 00       	mov    $0x0,%eax
    7e45:	89 de                	mov    %ebx,%esi
    7e47:	89 c7                	mov    %eax,%edi
    7e49:	e8 af d0 ff ff       	callq  4efd <safe_mod_func_uint32_t_u_u>
    7e4e:	be 08 00 00 00       	mov    $0x8,%esi
    7e53:	bf 00 00 00 00       	mov    $0x0,%edi
    7e58:	e8 1d d0 ff ff       	callq  4e7a <safe_rshift_func_uint16_t_u_u>
    7e5d:	48 8b 85 10 fb ff ff 	mov    -0x4f0(%rbp),%rax
    7e64:	8b 10                	mov    (%rax),%edx
    7e66:	48 8b 85 58 fb ff ff 	mov    -0x4a8(%rbp),%rax
    7e6d:	89 10                	mov    %edx,(%rax)
    7e6f:	c6 05 60 82 00 00 00 	movb   $0x0,0x8260(%rip)        # 100d6 <g_211>
    7e76:	e9 ed 05 00 00       	jmpq   8468 <func_42+0xc9b>
    7e7b:	48 c7 85 c8 fb ff ff 	movq   $0x0,-0x438(%rbp)
    7e82:	00 00 00 00 
    7e86:	48 8d 05 a3 81 00 00 	lea    0x81a3(%rip),%rax        # 10030 <g_62>
    7e8d:	48 89 85 d0 fb ff ff 	mov    %rax,-0x430(%rbp)
    7e94:	48 c7 85 d8 fb ff ff 	movq   $0x0,-0x428(%rbp)
    7e9b:	00 00 00 00 
    7e9f:	48 8d 05 d2 82 00 00 	lea    0x82d2(%rip),%rax        # 10178 <g_610+0x38>
    7ea6:	48 89 85 e0 fb ff ff 	mov    %rax,-0x420(%rbp)
    7ead:	48 8d 05 fc 81 00 00 	lea    0x81fc(%rip),%rax        # 100b0 <g_118+0x10>
    7eb4:	48 89 85 e8 fb ff ff 	mov    %rax,-0x418(%rbp)
    7ebb:	c7 85 c4 fa ff ff fb 	movl   $0xfffffffb,-0x53c(%rbp)
    7ec2:	ff ff ff 
    7ec5:	c7 85 c8 fa ff ff 46 	movl   $0x62ccc746,-0x538(%rbp)
    7ecc:	c7 cc 62 
    7ecf:	c7 85 cc fa ff ff 49 	movl   $0xf332dc49,-0x534(%rbp)
    7ed6:	dc 32 f3 
    7ed9:	c7 85 d0 fa ff ff a6 	movl   $0xfc9926a6,-0x530(%rbp)
    7ee0:	26 99 fc 
    7ee3:	c7 85 d4 fa ff ff ff 	movl   $0xffffffff,-0x52c(%rbp)
    7eea:	ff ff ff 
    7eed:	c7 85 d8 fa ff ff 6b 	movl   $0x42cdb76b,-0x528(%rbp)
    7ef4:	b7 cd 42 
    7ef7:	c7 85 dc fa ff ff 1a 	movl   $0xfc590c1a,-0x524(%rbp)
    7efe:	0c 59 fc 
    7f01:	c7 85 e0 fa ff ff 09 	movl   $0x9,-0x520(%rbp)
    7f08:	00 00 00 
    7f0b:	c7 85 e4 fa ff ff 08 	movl   $0x8,-0x51c(%rbp)
    7f12:	00 00 00 
    7f15:	66 c7 85 92 fa ff ff 	movw   $0x79b2,-0x56e(%rbp)
    7f1c:	b2 79 
    7f1e:	c7 85 a4 fa ff ff 00 	movl   $0x0,-0x55c(%rbp)
    7f25:	00 00 00 
    7f28:	eb 14                	jmp    7f3e <func_42+0x771>
    7f2a:	8b 85 a4 fa ff ff    	mov    -0x55c(%rbp),%eax
    7f30:	48 98                	cltq   
    7f32:	c6 44 05 d2 63       	movb   $0x63,-0x2e(%rbp,%rax,1)
    7f37:	83 85 a4 fa ff ff 01 	addl   $0x1,-0x55c(%rbp)
    7f3e:	83 bd a4 fa ff ff 05 	cmpl   $0x5,-0x55c(%rbp)
    7f45:	7e e3                	jle    7f2a <func_42+0x75d>
    7f47:	48 8b 85 d0 fb ff ff 	mov    -0x430(%rbp),%rax
    7f4e:	48 8b 95 18 fc ff ff 	mov    -0x3e8(%rbp),%rdx
    7f55:	48 89 10             	mov    %rdx,(%rax)
    7f58:	8b 95 20 fc ff ff    	mov    -0x3e0(%rbp),%edx
    7f5e:	89 50 08             	mov    %edx,0x8(%rax)
    7f61:	c7 05 91 81 00 00 fa 	movl   $0xfffffffa,0x8191(%rip)        # 100fc <g_381>
    7f68:	ff ff ff 
    7f6b:	e9 e4 01 00 00       	jmpq   8154 <func_42+0x987>
    7f70:	48 8d 85 94 fa ff ff 	lea    -0x56c(%rbp),%rax
    7f77:	48 89 85 f8 fb ff ff 	mov    %rax,-0x408(%rbp)
    7f7e:	66 c7 05 51 81 00 00 	movw   $0x11,0x8151(%rip)        # 100d8 <g_213>
    7f85:	11 00 
    7f87:	e9 ce 00 00 00       	jmpq   805a <func_42+0x88d>
    7f8c:	48 c7 85 90 fc ff ff 	movq   $0x0,-0x370(%rbp)
    7f93:	00 00 00 00 
    7f97:	48 c7 85 98 fc ff ff 	movq   $0x0,-0x368(%rbp)
    7f9e:	00 00 00 00 
    7fa2:	48 c7 85 a0 fc ff ff 	movq   $0x0,-0x360(%rbp)
    7fa9:	00 00 00 00 
    7fad:	48 c7 85 a8 fc ff ff 	movq   $0x0,-0x358(%rbp)
    7fb4:	00 00 00 00 
    7fb8:	48 c7 85 b0 fc ff ff 	movq   $0x0,-0x350(%rbp)
    7fbf:	00 00 00 00 
    7fc3:	48 c7 85 10 fc ff ff 	movq   $0x0,-0x3f0(%rbp)
    7fca:	00 00 00 00 
    7fce:	48 8b 15 db 8c 00 00 	mov    0x8cdb(%rip),%rdx        # 10cb0 <g_414>
    7fd5:	48 8b 05 d4 8c 00 00 	mov    0x8cd4(%rip),%rax        # 10cb0 <g_414>
    7fdc:	48 8b 12             	mov    (%rdx),%rdx
    7fdf:	48 89 10             	mov    %rdx,(%rax)
    7fe2:	66 c7 05 9b 81 00 00 	movw   $0xfffd,0x819b(%rip)        # 10186 <g_785>
    7fe9:	fd ff 
    7feb:	90                   	nop
    7fec:	0f b7 05 93 81 00 00 	movzwl 0x8193(%rip),%eax        # 10186 <g_785>
    7ff3:	66 83 f8 e9          	cmp    $0xffe9,%ax
    7ff7:	74 09                	je     8002 <func_42+0x835>
    7ff9:	48 8b 45 14          	mov    0x14(%rbp),%rax
    7ffd:	e9 1e 05 00 00       	jmpq   8520 <func_42+0xd53>
    8002:	c6 05 1b 80 00 00 00 	movb   $0x0,0x801b(%rip)        # 10024 <g_9>
    8009:	90                   	nop
    800a:	0f b6 05 13 80 00 00 	movzbl 0x8013(%rip),%eax        # 10024 <g_9>
    8011:	3c 07                	cmp    $0x7,%al
    8013:	7f 19                	jg     802e <func_42+0x861>
    8015:	0f b6 45 d3          	movzbl -0x2d(%rbp),%eax
    8019:	0f be d0             	movsbl %al,%edx
    801c:	48 8b 85 48 fb ff ff 	mov    -0x4b8(%rbp),%rax
    8023:	89 10                	mov    %edx,(%rax)
    8025:	48 8b 45 14          	mov    0x14(%rbp),%rax
    8029:	e9 f2 04 00 00       	jmpq   8520 <func_42+0xd53>
    802e:	48 8b 05 c3 8c 00 00 	mov    0x8cc3(%rip),%rax        # 10cf8 <g_886>
    8035:	48 8b 95 f8 fa ff ff 	mov    -0x508(%rbp),%rdx
    803c:	48 89 10             	mov    %rdx,(%rax)
    803f:	0f b7 05 92 80 00 00 	movzwl 0x8092(%rip),%eax        # 100d8 <g_213>
    8046:	98                   	cwtl   
    8047:	be 01 00 00 00       	mov    $0x1,%esi
    804c:	89 c7                	mov    %eax,%edi
    804e:	e8 60 c3 ff ff       	callq  43b3 <safe_add_func_int16_t_s_s>
    8053:	66 89 05 7e 80 00 00 	mov    %ax,0x807e(%rip)        # 100d8 <g_213>
    805a:	0f b7 05 77 80 00 00 	movzwl 0x8077(%rip),%eax        # 100d8 <g_213>
    8061:	66 83 f8 1a          	cmp    $0x1a,%ax
    8065:	0f 8e 21 ff ff ff    	jle    7f8c <func_42+0x7bf>
    806b:	c7 05 97 80 00 00 ed 	movl   $0xffffffed,0x8097(%rip)        # 1010c <g_450>
    8072:	ff ff ff 
    8075:	90                   	nop
    8076:	8b 05 90 80 00 00    	mov    0x8090(%rip),%eax        # 1010c <g_450>
    807c:	83 f8 0f             	cmp    $0xf,%eax
    807f:	76 4d                	jbe    80ce <func_42+0x901>
    8081:	48 8d 85 f8 fa ff ff 	lea    -0x508(%rbp),%rax
    8088:	48 89 85 00 fc ff ff 	mov    %rax,-0x400(%rbp)
    808f:	8b 45 10             	mov    0x10(%rbp),%eax
    8092:	25 ff ff ff 7f       	and    $0x7fffffff,%eax
    8097:	85 c0                	test   %eax,%eax
    8099:	75 32                	jne    80cd <func_42+0x900>
    809b:	48 8b 85 00 fc ff ff 	mov    -0x400(%rbp),%rax
    80a2:	48 8d 95 9c fa ff ff 	lea    -0x564(%rbp),%rdx
    80a9:	48 89 10             	mov    %rdx,(%rax)
    80ac:	48 8b 05 4d 8c 00 00 	mov    0x8c4d(%rip),%rax        # 10d00 <g_890>
    80b3:	48 8b 95 00 fc ff ff 	mov    -0x400(%rbp),%rdx
    80ba:	48 8b 12             	mov    (%rdx),%rdx
    80bd:	48 89 10             	mov    %rdx,(%rax)
    80c0:	8b 45 10             	mov    0x10(%rbp),%eax
    80c3:	25 ff ff ff 7f       	and    $0x7fffffff,%eax
    80c8:	e9 53 04 00 00       	jmpq   8520 <func_42+0xd53>
    80cd:	90                   	nop
    80ce:	48 8b 85 d0 fb ff ff 	mov    -0x430(%rbp),%rax
    80d5:	48 8b 55 10          	mov    0x10(%rbp),%rdx
    80d9:	48 89 10             	mov    %rdx,(%rax)
    80dc:	8b 55 18             	mov    0x18(%rbp),%edx
    80df:	89 50 08             	mov    %edx,0x8(%rax)
    80e2:	66 c7 85 84 fa ff ff 	movw   $0x0,-0x57c(%rbp)
    80e9:	00 00 
    80eb:	66 83 bd 84 fa ff ff 	cmpw   $0x12,-0x57c(%rbp)
    80f2:	12 
    80f3:	75 50                	jne    8145 <func_42+0x978>
    80f5:	48 8d 05 5c 7f 00 00 	lea    0x7f5c(%rip),%rax        # 10058 <g_70+0x18>
    80fc:	48 89 85 08 fc ff ff 	mov    %rax,-0x3f8(%rbp)
    8103:	48 8b 05 ee 8b 00 00 	mov    0x8bee(%rip),%rax        # 10cf8 <g_886>
    810a:	48 8b 95 08 fc ff ff 	mov    -0x3f8(%rbp),%rdx
    8111:	48 89 10             	mov    %rdx,(%rax)
    8114:	48 8b 00             	mov    (%rax),%rax
    8117:	48 89 85 f8 fb ff ff 	mov    %rax,-0x408(%rbp)
    811e:	48 8b 85 08 fc ff ff 	mov    -0x3f8(%rbp),%rax
    8125:	8b 10                	mov    (%rax),%edx
    8127:	0f b7 85 80 fa ff ff 	movzwl -0x580(%rbp),%eax
    812e:	31 c2                	xor    %eax,%edx
    8130:	48 8b 85 08 fc ff ff 	mov    -0x3f8(%rbp),%rax
    8137:	89 10                	mov    %edx,(%rax)
    8139:	0f b7 85 80 fa ff ff 	movzwl -0x580(%rbp),%eax
    8140:	e9 db 03 00 00       	jmpq   8520 <func_42+0xd53>
    8145:	8b 05 b1 7f 00 00    	mov    0x7fb1(%rip),%eax        # 100fc <g_381>
    814b:	83 c0 01             	add    $0x1,%eax
    814e:	89 05 a8 7f 00 00    	mov    %eax,0x7fa8(%rip)        # 100fc <g_381>
    8154:	8b 05 a2 7f 00 00    	mov    0x7fa2(%rip),%eax        # 100fc <g_381>
    815a:	83 f8 07             	cmp    $0x7,%eax
    815d:	0f 84 0d fe ff ff    	je     7f70 <func_42+0x7a3>
    8163:	0f b7 05 6e 7f 00 00 	movzwl 0x7f6e(%rip),%eax        # 100d8 <g_213>
    816a:	66 85 c0             	test   %ax,%ax
    816d:	0f 84 e5 00 00 00    	je     8258 <func_42+0xa8b>
    8173:	8b 05 a7 7f 00 00    	mov    0x7fa7(%rip),%eax        # 10120 <g_527>
    8179:	0f be d8             	movsbl %al,%ebx
    817c:	0f b7 95 80 fa ff ff 	movzwl -0x580(%rbp),%edx
    8183:	48 8b 85 58 fb ff ff 	mov    -0x4a8(%rbp),%rax
    818a:	8b 00                	mov    (%rax),%eax
    818c:	0f b7 c0             	movzwl %ax,%eax
    818f:	89 d6                	mov    %edx,%esi
    8191:	89 c7                	mov    %eax,%edi
    8193:	e8 b0 cc ff ff       	callq  4e48 <safe_rshift_func_uint16_t_u_s>
    8198:	66 85 c0             	test   %ax,%ax
    819b:	75 07                	jne    81a4 <func_42+0x9d7>
    819d:	48 8b 45 14          	mov    0x14(%rbp),%rax
    81a1:	48 85 c0             	test   %rax,%rax
    81a4:	8b 45 10             	mov    0x10(%rbp),%eax
    81a7:	25 ff ff ff 7f       	and    $0x7fffffff,%eax
    81ac:	85 c0                	test   %eax,%eax
    81ae:	75 0d                	jne    81bd <func_42+0x9f0>
    81b0:	48 8b 85 20 fb ff ff 	mov    -0x4e0(%rbp),%rax
    81b7:	8b 00                	mov    (%rax),%eax
    81b9:	85 c0                	test   %eax,%eax
    81bb:	74 07                	je     81c4 <func_42+0x9f7>
    81bd:	b8 01 00 00 00       	mov    $0x1,%eax
    81c2:	eb 05                	jmp    81c9 <func_42+0x9fc>
    81c4:	b8 00 00 00 00       	mov    $0x0,%eax
    81c9:	89 c6                	mov    %eax,%esi
    81cb:	bf 26 00 00 00       	mov    $0x26,%edi
    81d0:	e8 77 ca ff ff       	callq  4c4c <safe_lshift_func_uint8_t_u_u>
    81d5:	8b 05 a5 7f 00 00    	mov    0x7fa5(%rip),%eax        # 10180 <g_631>
    81db:	85 c0                	test   %eax,%eax
    81dd:	75 0a                	jne    81e9 <func_42+0xa1c>
    81df:	8b 05 67 7e 00 00    	mov    0x7e67(%rip),%eax        # 1004c <g_70+0xc>
    81e5:	85 c0                	test   %eax,%eax
    81e7:	74 07                	je     81f0 <func_42+0xa23>
    81e9:	ba 01 00 00 00       	mov    $0x1,%edx
    81ee:	eb 05                	jmp    81f5 <func_42+0xa28>
    81f0:	ba 00 00 00 00       	mov    $0x0,%edx
    81f5:	0f b6 45 d2          	movzbl -0x2e(%rbp),%eax
    81f9:	0f be c0             	movsbl %al,%eax
    81fc:	39 c2                	cmp    %eax,%edx
    81fe:	0f 9c c0             	setl   %al
    8201:	0f b6 c0             	movzbl %al,%eax
    8204:	66 89 05 7b 7f 00 00 	mov    %ax,0x7f7b(%rip)        # 10186 <g_785>
    820b:	0f b7 05 74 7f 00 00 	movzwl 0x7f74(%rip),%eax        # 10186 <g_785>
    8212:	0f bf d0             	movswl %ax,%edx
    8215:	48 8b 85 58 fb ff ff 	mov    -0x4a8(%rbp),%rax
    821c:	8b 08                	mov    (%rax),%ecx
    821e:	0f bf 85 84 fa ff ff 	movswl -0x57c(%rbp),%eax
    8225:	39 c1                	cmp    %eax,%ecx
    8227:	0f 9f c0             	setg   %al
    822a:	0f b6 c8             	movzbl %al,%ecx
    822d:	0f b6 45 d6          	movzbl -0x2a(%rbp),%eax
    8231:	0f be c0             	movsbl %al,%eax
    8234:	39 c1                	cmp    %eax,%ecx
    8236:	0f 95 c0             	setne  %al
    8239:	0f b6 c0             	movzbl %al,%eax
    823c:	39 c2                	cmp    %eax,%edx
    823e:	0f 9c c0             	setl   %al
    8241:	0f b6 c0             	movzbl %al,%eax
    8244:	89 de                	mov    %ebx,%esi
    8246:	89 c7                	mov    %eax,%edi
    8248:	e8 87 bf ff ff       	callq  41d4 <safe_add_func_int8_t_s_s>
    824d:	84 c0                	test   %al,%al
    824f:	75 07                	jne    8258 <func_42+0xa8b>
    8251:	b8 01 00 00 00       	mov    $0x1,%eax
    8256:	eb 05                	jmp    825d <func_42+0xa90>
    8258:	b8 00 00 00 00       	mov    $0x0,%eax
    825d:	3b 85 ac fa ff ff    	cmp    -0x554(%rbp),%eax
    8263:	0f 94 c0             	sete   %al
    8266:	0f b6 d0             	movzbl %al,%edx
    8269:	48 8b 85 e0 fb ff ff 	mov    -0x420(%rbp),%rax
    8270:	8b 00                	mov    (%rax),%eax
    8272:	31 c2                	xor    %eax,%edx
    8274:	48 8b 85 e0 fb ff ff 	mov    -0x420(%rbp),%rax
    827b:	89 10                	mov    %edx,(%rax)
    827d:	48 8d 05 34 8a 00 00 	lea    0x8a34(%rip),%rax        # 10cb8 <g_454>
    8284:	48 8b 00             	mov    (%rax),%rax
    8287:	0f b7 00             	movzwl (%rax),%eax
    828a:	98                   	cwtl   
    828b:	89 c6                	mov    %eax,%esi
    828d:	bf ff ff ff ff       	mov    $0xffffffff,%edi
    8292:	e8 3c c1 ff ff       	callq  43d3 <safe_sub_func_int16_t_s_s>
    8297:	48 8b 95 e8 fb ff ff 	mov    -0x418(%rbp),%rdx
    829e:	48 8b 12             	mov    (%rdx),%rdx
    82a1:	48 0f bf c0          	movswq %ax,%rax
    82a5:	48 21 c2             	and    %rax,%rdx
    82a8:	48 8b 85 e8 fb ff ff 	mov    -0x418(%rbp),%rax
    82af:	48 89 10             	mov    %rdx,(%rax)
    82b2:	8b 45 10             	mov    0x10(%rbp),%eax
    82b5:	25 ff ff ff 7f       	and    $0x7fffffff,%eax
    82ba:	89 c2                	mov    %eax,%edx
    82bc:	8b 05 be 7e 00 00    	mov    0x7ebe(%rip),%eax        # 10180 <g_631>
    82c2:	31 d0                	xor    %edx,%eax
    82c4:	3d cb e8 ce 37       	cmp    $0x37cee8cb,%eax
    82c9:	0f 8e 7e 01 00 00    	jle    844d <func_42+0xc80>
    82cf:	48 8d 05 5e 7d 00 00 	lea    0x7d5e(%rip),%rax        # 10034 <g_62+0x4>
    82d6:	48 89 85 f0 fb ff ff 	mov    %rax,-0x410(%rbp)
    82dd:	c7 85 e8 fa ff ff 5a 	movl   $0x6018a05a,-0x518(%rbp)
    82e4:	a0 18 60 
    82e7:	c7 85 ec fa ff ff 1b 	movl   $0x19a4f71b,-0x514(%rbp)
    82ee:	f7 a4 19 
    82f1:	c7 85 f0 fa ff ff 96 	movl   $0x419c8396,-0x510(%rbp)
    82f8:	83 9c 41 
    82fb:	c7 85 f4 fa ff ff 00 	movl   $0x0,-0x50c(%rbp)
    8302:	00 00 00 
    8305:	c7 85 90 fc ff ff c6 	movl   $0x49bc33c6,-0x370(%rbp)
    830c:	33 bc 49 
    830f:	c7 85 94 fc ff ff c6 	movl   $0x49bc33c6,-0x36c(%rbp)
    8316:	33 bc 49 
    8319:	c7 85 98 fc ff ff c6 	movl   $0x49bc33c6,-0x368(%rbp)
    8320:	33 bc 49 
    8323:	c7 85 9c fc ff ff c6 	movl   $0x49bc33c6,-0x364(%rbp)
    832a:	33 bc 49 
    832d:	48 8d 05 84 89 00 00 	lea    0x8984(%rip),%rax        # 10cb8 <g_454>
    8334:	48 8b 00             	mov    (%rax),%rax
    8337:	0f b7 00             	movzwl (%rax),%eax
    833a:	0f b7 d8             	movzwl %ax,%ebx
    833d:	48 8b 85 78 fa ff ff 	mov    -0x588(%rbp),%rax
    8344:	0f b6 00             	movzbl (%rax),%eax
    8347:	84 c0                	test   %al,%al
    8349:	0f 84 87 00 00 00    	je     83d6 <func_42+0xc09>
    834f:	44 0f bf a5 84 fa ff 	movswl -0x57c(%rbp),%r12d
    8356:	ff 
    8357:	48 8b 85 78 fa ff ff 	mov    -0x588(%rbp),%rax
    835e:	0f b6 00             	movzbl (%rax),%eax
    8361:	44 0f be e8          	movsbl %al,%r13d
    8365:	8b 45 10             	mov    0x10(%rbp),%eax
    8368:	25 ff ff ff 7f       	and    $0x7fffffff,%eax
    836d:	89 c1                	mov    %eax,%ecx
    836f:	48 8b 85 e8 fb ff ff 	mov    -0x418(%rbp),%rax
    8376:	48 8b 10             	mov    (%rax),%rdx
    8379:	0f b6 45 d3          	movzbl -0x2d(%rbp),%eax
    837d:	48 0f be c0          	movsbq %al,%rax
    8381:	48 21 c2             	and    %rax,%rdx
    8384:	48 8b 85 e8 fb ff ff 	mov    -0x418(%rbp),%rax
    838b:	48 89 10             	mov    %rdx,(%rax)
    838e:	48 8b 85 e8 fb ff ff 	mov    -0x418(%rbp),%rax
    8395:	48 8b 00             	mov    (%rax),%rax
    8398:	48 89 ce             	mov    %rcx,%rsi
    839b:	48 89 c7             	mov    %rax,%rdi
    839e:	e8 05 c5 ff ff       	callq  48a8 <safe_sub_func_int64_t_s_s>
    83a3:	be f4 ab 33 fd       	mov    $0xfd33abf4,%esi
    83a8:	89 c7                	mov    %eax,%edi
    83aa:	e8 21 cb ff ff       	callq  4ed0 <safe_sub_func_uint32_t_u_u>
    83af:	44 09 e8             	or     %r13d,%eax
    83b2:	41 39 c4             	cmp    %eax,%r12d
    83b5:	0f 92 c0             	setb   %al
    83b8:	0f b6 d0             	movzbl %al,%edx
    83bb:	0f b6 45 d5          	movzbl -0x2b(%rbp),%eax
    83bf:	0f be c0             	movsbl %al,%eax
    83c2:	39 c2                	cmp    %eax,%edx
    83c4:	0f 9d c0             	setge  %al
    83c7:	88 05 b7 7d 00 00    	mov    %al,0x7db7(%rip)        # 10184 <g_686>
    83cd:	0f b6 05 b0 7d 00 00 	movzbl 0x7db0(%rip),%eax        # 10184 <g_686>
    83d4:	84 c0                	test   %al,%al
    83d6:	66 83 bd 84 fa ff ff 	cmpw   $0x0,-0x57c(%rbp)
    83dd:	00 
    83de:	0f 9f c0             	setg   %al
    83e1:	0f b6 c8             	movzbl %al,%ecx
    83e4:	48 8b 85 f0 fb ff ff 	mov    -0x410(%rbp),%rax
    83eb:	48 8b 10             	mov    (%rax),%rdx
    83ee:	48 63 c1             	movslq %ecx,%rax
    83f1:	48 21 c2             	and    %rax,%rdx
    83f4:	48 8b 85 f0 fb ff ff 	mov    -0x410(%rbp),%rax
    83fb:	48 89 10             	mov    %rdx,(%rax)
    83fe:	48 8b 85 f0 fb ff ff 	mov    -0x410(%rbp),%rax
    8405:	48 8b 00             	mov    (%rax),%rax
    8408:	48 89 c6             	mov    %rax,%rsi
    840b:	bf 01 00 00 00       	mov    $0x1,%edi
    8410:	e8 93 c4 ff ff       	callq  48a8 <safe_sub_func_int64_t_s_s>
    8415:	8b 85 e8 fa ff ff    	mov    -0x518(%rbp),%eax
    841b:	0f b7 c0             	movzwl %ax,%eax
    841e:	89 de                	mov    %ebx,%esi
    8420:	89 c7                	mov    %eax,%edi
    8422:	e8 67 c9 ff ff       	callq  4d8e <safe_div_func_uint16_t_u_u>
    8427:	8b 45 10             	mov    0x10(%rbp),%eax
    842a:	25 ff ff ff 7f       	and    $0x7fffffff,%eax
    842f:	89 c2                	mov    %eax,%edx
    8431:	48 8b 85 48 fb ff ff 	mov    -0x4b8(%rbp),%rax
    8438:	89 10                	mov    %edx,(%rax)
    843a:	66 83 85 92 fa ff ff 	addw   $0x1,-0x56e(%rbp)
    8441:	01 
    8442:	83 bd c4 fa ff ff 00 	cmpl   $0x0,-0x53c(%rbp)
    8449:	74 0d                	je     8458 <func_42+0xc8b>
    844b:	eb 2a                	jmp    8477 <func_42+0xcaa>
    844d:	8b 85 ac fa ff ff    	mov    -0x554(%rbp),%eax
    8453:	e9 c8 00 00 00       	jmpq   8520 <func_42+0xd53>
    8458:	0f b6 05 77 7c 00 00 	movzbl 0x7c77(%rip),%eax        # 100d6 <g_211>
    845f:	83 c0 01             	add    $0x1,%eax
    8462:	88 05 6e 7c 00 00    	mov    %al,0x7c6e(%rip)        # 100d6 <g_211>
    8468:	0f b6 05 67 7c 00 00 	movzbl 0x7c67(%rip),%eax        # 100d6 <g_211>
    846f:	3c 09                	cmp    $0x9,%al
    8471:	0f 86 04 fa ff ff    	jbe    7e7b <func_42+0x6ae>
    8477:	0f b7 05 56 7c 00 00 	movzwl 0x7c56(%rip),%eax        # 100d4 <g_181>
    847e:	83 e8 01             	sub    $0x1,%eax
    8481:	66 89 05 4c 7c 00 00 	mov    %ax,0x7c4c(%rip)        # 100d4 <g_181>
    8488:	0f b7 05 45 7c 00 00 	movzwl 0x7c45(%rip),%eax        # 100d4 <g_181>
    848f:	66 83 f8 f8          	cmp    $0xfff8,%ax
    8493:	0f 8c f4 f4 ff ff    	jl     798d <func_42+0x1c0>
    8499:	c6 05 84 7b 00 00 00 	movb   $0x0,0x7b84(%rip)        # 10024 <g_9>
    84a0:	eb 32                	jmp    84d4 <func_42+0xd07>
    84a2:	0f b6 05 7b 7b 00 00 	movzbl 0x7b7b(%rip),%eax        # 10024 <g_9>
    84a9:	0f be c0             	movsbl %al,%eax
    84ac:	48 98                	cltq   
    84ae:	48 8d 14 85 00 00 00 	lea    0x0(,%rax,4),%rdx
    84b5:	00 
    84b6:	48 8d 05 63 7c 00 00 	lea    0x7c63(%rip),%rax        # 10120 <g_527>
    84bd:	c7 04 02 01 00 00 00 	movl   $0x1,(%rdx,%rax,1)
    84c4:	0f b6 05 59 7b 00 00 	movzbl 0x7b59(%rip),%eax        # 10024 <g_9>
    84cb:	83 c0 01             	add    $0x1,%eax
    84ce:	88 05 50 7b 00 00    	mov    %al,0x7b50(%rip)        # 10024 <g_9>
    84d4:	0f b6 05 49 7b 00 00 	movzbl 0x7b49(%rip),%eax        # 10024 <g_9>
    84db:	3c 04                	cmp    $0x4,%al
    84dd:	7e c3                	jle    84a2 <func_42+0xcd5>
    84df:	48 c7 45 14 f0 ff ff 	movq   $0xfffffffffffffff0,0x14(%rbp)
    84e6:	ff 
    84e7:	eb 29                	jmp    8512 <func_42+0xd45>
    84e9:	48 c7 85 88 fb ff ff 	movq   $0xffffffffffffffff,-0x478(%rbp)
    84f0:	ff ff ff ff 
    84f4:	48 8b 85 88 fb ff ff 	mov    -0x478(%rbp),%rax
    84fb:	89 c2                	mov    %eax,%edx
    84fd:	48 8b 85 38 fb ff ff 	mov    -0x4c8(%rbp),%rax
    8504:	89 10                	mov    %edx,(%rax)
    8506:	48 8b 45 14          	mov    0x14(%rbp),%rax
    850a:	48 83 c0 01          	add    $0x1,%rax
    850e:	48 89 45 14          	mov    %rax,0x14(%rbp)
    8512:	48 8b 45 14          	mov    0x14(%rbp),%rax
    8516:	48 83 f8 04          	cmp    $0x4,%rax
    851a:	77 cd                	ja     84e9 <func_42+0xd1c>
    851c:	48 8b 45 14          	mov    0x14(%rbp),%rax
    8520:	48 8b 5d d8          	mov    -0x28(%rbp),%rbx
    8524:	64 48 33 1c 25 28 00 	xor    %fs:0x28,%rbx
    852b:	00 00 
    852d:	74 05                	je     8534 <func_42+0xd67>
    852f:	e8 3c bb ff ff       	callq  4070 <__stack_chk_fail@plt>
    8534:	48 81 c4 70 05 00 00 	add    $0x570,%rsp
    853b:	5b                   	pop    %rbx
    853c:	41 5c                	pop    %r12
    853e:	41 5d                	pop    %r13
    8540:	41 5e                	pop    %r14
    8542:	5d                   	pop    %rbp
    8543:	c3                   	retq   

0000000000008544 <func_48>:
    8544:	f3 0f 1e fa          	endbr64 
    8548:	55                   	push   %rbp
    8549:	48 89 e5             	mov    %rsp,%rbp
    854c:	53                   	push   %rbx
    854d:	48 81 ec 18 08 00 00 	sub    $0x818,%rsp
    8554:	48 89 bd 08 f8 ff ff 	mov    %rdi,-0x7f8(%rbp)
    855b:	89 b5 04 f8 ff ff    	mov    %esi,-0x7fc(%rbp)
    8561:	48 89 95 f8 f7 ff ff 	mov    %rdx,-0x808(%rbp)
    8568:	64 48 8b 04 25 28 00 	mov    %fs:0x28,%rax
    856f:	00 00 
    8571:	48 89 45 e8          	mov    %rax,-0x18(%rbp)
    8575:	31 c0                	xor    %eax,%eax
    8577:	8b 85 10 f9 ff ff    	mov    -0x6f0(%rbp),%eax
    857d:	25 00 00 00 80       	and    $0x80000000,%eax
    8582:	0d b3 8c 00 00       	or     $0x8cb3,%eax
    8587:	89 85 10 f9 ff ff    	mov    %eax,-0x6f0(%rbp)
    858d:	48 c7 85 14 f9 ff ff 	movq   $0xfffffffffffffff6,-0x6ec(%rbp)
    8594:	f6 ff ff ff 
    8598:	8b 85 1c f9 ff ff    	mov    -0x6e4(%rbp),%eax
    859e:	25 00 00 00 80       	and    $0x80000000,%eax
    85a3:	0d b3 8c 00 00       	or     $0x8cb3,%eax
    85a8:	89 85 1c f9 ff ff    	mov    %eax,-0x6e4(%rbp)
    85ae:	48 c7 85 20 f9 ff ff 	movq   $0xfffffffffffffff6,-0x6e0(%rbp)
    85b5:	f6 ff ff ff 
    85b9:	48 8d 05 38 7b 00 00 	lea    0x7b38(%rip),%rax        # 100f8 <g_295>
    85c0:	48 89 85 60 f8 ff ff 	mov    %rax,-0x7a0(%rbp)
    85c7:	c7 85 24 f8 ff ff 79 	movl   $0xeef6c079,-0x7dc(%rbp)
    85ce:	c0 f6 ee 
    85d1:	c7 85 28 f8 ff ff ff 	movl   $0xffffffff,-0x7d8(%rbp)
    85d8:	ff ff ff 
    85db:	c7 85 20 f8 ff ff a0 	movl   $0x56170aa0,-0x7e0(%rbp)
    85e2:	0a 17 56 
    85e5:	c7 85 50 f9 ff ff c9 	movl   $0x77ca87c9,-0x6b0(%rbp)
    85ec:	87 ca 77 
    85ef:	c7 85 54 f9 ff ff b1 	movl   $0x958c3fb1,-0x6ac(%rbp)
    85f6:	3f 8c 95 
    85f9:	c7 85 58 f9 ff ff c9 	movl   $0x77ca87c9,-0x6a8(%rbp)
    8600:	87 ca 77 
    8603:	c7 85 5c f9 ff ff b1 	movl   $0x958c3fb1,-0x6a4(%rbp)
    860a:	3f 8c 95 
    860d:	c7 85 60 f9 ff ff c9 	movl   $0x77ca87c9,-0x6a0(%rbp)
    8614:	87 ca 77 
    8617:	c7 85 64 f9 ff ff b1 	movl   $0x958c3fb1,-0x69c(%rbp)
    861e:	3f 8c 95 
    8621:	c7 85 68 f9 ff ff c9 	movl   $0x77ca87c9,-0x698(%rbp)
    8628:	87 ca 77 
    862b:	c7 85 6c f9 ff ff b1 	movl   $0x958c3fb1,-0x694(%rbp)
    8632:	3f 8c 95 
    8635:	48 8d 05 bc 94 00 00 	lea    0x94bc(%rip),%rax        # 11af8 <g_302>
    863c:	48 89 85 48 f8 ff ff 	mov    %rax,-0x7b8(%rbp)
    8643:	48 c7 85 68 f8 ff ff 	movq   $0x0,-0x798(%rbp)
    864a:	00 00 00 00 
    864e:	48 8d 85 20 f8 ff ff 	lea    -0x7e0(%rbp),%rax
    8655:	48 89 85 50 fa ff ff 	mov    %rax,-0x5b0(%rbp)
    865c:	48 8d 05 95 7a 00 00 	lea    0x7a95(%rip),%rax        # 100f8 <g_295>
    8663:	48 89 85 58 fa ff ff 	mov    %rax,-0x5a8(%rbp)
    866a:	48 8d 85 20 f8 ff ff 	lea    -0x7e0(%rbp),%rax
    8671:	48 89 85 60 fa ff ff 	mov    %rax,-0x5a0(%rbp)
    8678:	48 8d 05 79 7a 00 00 	lea    0x7a79(%rip),%rax        # 100f8 <g_295>
    867f:	48 89 85 68 fa ff ff 	mov    %rax,-0x598(%rbp)
    8686:	48 8d 85 20 f8 ff ff 	lea    -0x7e0(%rbp),%rax
    868d:	48 89 85 70 fa ff ff 	mov    %rax,-0x590(%rbp)
    8694:	48 8d 05 5d 7a 00 00 	lea    0x7a5d(%rip),%rax        # 100f8 <g_295>
    869b:	48 89 85 78 fa ff ff 	mov    %rax,-0x588(%rbp)
    86a2:	48 8d 85 20 f8 ff ff 	lea    -0x7e0(%rbp),%rax
    86a9:	48 89 85 80 fa ff ff 	mov    %rax,-0x580(%rbp)
    86b0:	48 8d 05 41 7a 00 00 	lea    0x7a41(%rip),%rax        # 100f8 <g_295>
    86b7:	48 89 85 88 fa ff ff 	mov    %rax,-0x578(%rbp)
    86be:	48 8d 85 20 f8 ff ff 	lea    -0x7e0(%rbp),%rax
    86c5:	48 89 85 90 fa ff ff 	mov    %rax,-0x570(%rbp)
    86cc:	48 8d 05 25 7a 00 00 	lea    0x7a25(%rip),%rax        # 100f8 <g_295>
    86d3:	48 89 85 98 fa ff ff 	mov    %rax,-0x568(%rbp)
    86da:	48 8d 05 f1 79 00 00 	lea    0x79f1(%rip),%rax        # 100d2 <g_165>
    86e1:	48 89 85 70 f8 ff ff 	mov    %rax,-0x790(%rbp)
    86e8:	c7 85 2c f8 ff ff 01 	movl   $0x1,-0x7d4(%rbp)
    86ef:	00 00 00 
    86f2:	48 c7 85 78 f8 ff ff 	movq   $0xffffffffffffffff,-0x788(%rbp)
    86f9:	ff ff ff ff 
    86fd:	48 8d 85 10 f9 ff ff 	lea    -0x6f0(%rbp),%rax
    8704:	48 83 c0 10          	add    $0x10,%rax
    8708:	48 89 85 80 f8 ff ff 	mov    %rax,-0x780(%rbp)
    870f:	66 c7 05 b8 79 00 00 	movw   $0x0,0x79b8(%rip)        # 100d0 <g_132>
    8716:	00 00 
    8718:	eb 79                	jmp    8793 <func_48+0x24f>
    871a:	c7 05 d4 79 00 00 00 	movl   $0x0,0x79d4(%rip)        # 100f8 <g_295>
    8721:	00 00 00 
    8724:	eb 51                	jmp    8777 <func_48+0x233>
    8726:	0f b7 05 a3 79 00 00 	movzwl 0x79a3(%rip),%eax        # 100d0 <g_132>
    872d:	0f b7 c0             	movzwl %ax,%eax
    8730:	8b 15 c2 79 00 00    	mov    0x79c2(%rip),%edx        # 100f8 <g_295>
    8736:	48 63 ca             	movslq %edx,%rcx
    8739:	48 63 d0             	movslq %eax,%rdx
    873c:	48 89 d0             	mov    %rdx,%rax
    873f:	48 01 c0             	add    %rax,%rax
    8742:	48 01 d0             	add    %rdx,%rax
    8745:	48 01 c0             	add    %rax,%rax
    8748:	48 01 c8             	add    %rcx,%rax
    874b:	48 8d 14 c5 00 00 00 	lea    0x0(,%rax,8),%rdx
    8752:	00 
    8753:	48 8d 05 46 79 00 00 	lea    0x7946(%rip),%rax        # 100a0 <g_118>
    875a:	48 bb a0 bd c8 56 b1 	movabs $0x461e19b156c8bda0,%rbx
    8761:	19 1e 46 
    8764:	48 89 1c 02          	mov    %rbx,(%rdx,%rax,1)
    8768:	8b 05 8a 79 00 00    	mov    0x798a(%rip),%eax        # 100f8 <g_295>
    876e:	83 c0 01             	add    $0x1,%eax
    8771:	89 05 81 79 00 00    	mov    %eax,0x7981(%rip)        # 100f8 <g_295>
    8777:	8b 05 7b 79 00 00    	mov    0x797b(%rip),%eax        # 100f8 <g_295>
    877d:	83 f8 05             	cmp    $0x5,%eax
    8780:	7e a4                	jle    8726 <func_48+0x1e2>
    8782:	0f b7 05 47 79 00 00 	movzwl 0x7947(%rip),%eax        # 100d0 <g_132>
    8789:	83 c0 01             	add    $0x1,%eax
    878c:	66 89 05 3d 79 00 00 	mov    %ax,0x793d(%rip)        # 100d0 <g_132>
    8793:	0f b7 05 36 79 00 00 	movzwl 0x7936(%rip),%eax        # 100d0 <g_132>
    879a:	66 85 c0             	test   %ax,%ax
    879d:	0f 84 77 ff ff ff    	je     871a <func_48+0x1d6>
    87a3:	48 c7 05 42 79 00 00 	movq   $0x12,0x7942(%rip)        # 100f0 <g_263>
    87aa:	12 00 00 00 
    87ae:	e9 bd 03 00 00       	jmpq   8b70 <func_48+0x62c>
    87b3:	48 c7 85 50 f8 ff ff 	movq   $0x0,-0x7b0(%rbp)
    87ba:	00 00 00 00 
    87be:	8b 85 f8 f8 ff ff    	mov    -0x708(%rbp),%eax
    87c4:	25 00 00 00 80       	and    $0x80000000,%eax
    87c9:	0d ac a7 00 00       	or     $0xa7ac,%eax
    87ce:	89 85 f8 f8 ff ff    	mov    %eax,-0x708(%rbp)
    87d4:	48 c7 85 fc f8 ff ff 	movq   $0x6,-0x704(%rbp)
    87db:	06 00 00 00 
    87df:	c7 85 30 f8 ff ff db 	movl   $0xb5a750db,-0x7d0(%rbp)
    87e6:	50 a7 b5 
    87e9:	c7 85 34 f8 ff ff 79 	movl   $0xee8e5379,-0x7cc(%rbp)
    87f0:	53 8e ee 
    87f3:	c7 85 38 f8 ff ff 02 	movl   $0x2,-0x7c8(%rbp)
    87fa:	00 00 00 
    87fd:	48 8d 05 f8 78 00 00 	lea    0x78f8(%rip),%rax        # 100fc <g_381>
    8804:	48 89 85 58 f8 ff ff 	mov    %rax,-0x7a8(%rbp)
    880b:	48 8d 85 58 f8 ff ff 	lea    -0x7a8(%rbp),%rax
    8812:	48 89 85 88 f8 ff ff 	mov    %rax,-0x778(%rbp)
    8819:	c7 85 3c f8 ff ff f6 	movl   $0xe7600f6,-0x7c4(%rbp)
    8820:	00 76 0e 
    8823:	c7 85 40 f8 ff ff fe 	movl   $0xfffffffe,-0x7c0(%rbp)
    882a:	ff ff ff 
    882d:	48 b8 a0 19 4f bd 92 	movabs $0xf7ecc692bd4f19a0,%rax
    8834:	c6 ec f7 
    8837:	48 89 85 90 f8 ff ff 	mov    %rax,-0x770(%rbp)
    883e:	c6 85 1d f8 ff ff 06 	movb   $0x6,-0x7e3(%rbp)
    8845:	c6 85 1e f8 ff ff db 	movb   $0xdb,-0x7e2(%rbp)
    884c:	48 8d 05 0d 83 00 00 	lea    0x830d(%rip),%rax        # 10b60 <g_415+0xe0>
    8853:	48 89 85 98 f8 ff ff 	mov    %rax,-0x768(%rbp)
    885a:	c7 85 44 f8 ff ff e3 	movl   $0x9d1613e3,-0x7bc(%rbp)
    8861:	13 16 9d 
    8864:	48 c7 85 10 fa ff ff 	movq   $0x1,-0x5f0(%rbp)
    886b:	01 00 00 00 
    886f:	48 c7 85 18 fa ff ff 	movq   $0x1,-0x5e8(%rbp)
    8876:	01 00 00 00 
    887a:	48 c7 85 20 fa ff ff 	movq   $0x1,-0x5e0(%rbp)
    8881:	01 00 00 00 
    8885:	48 c7 85 28 fa ff ff 	movq   $0x1,-0x5d8(%rbp)
    888c:	01 00 00 00 
    8890:	48 c7 85 30 fa ff ff 	movq   $0x1,-0x5d0(%rbp)
    8897:	01 00 00 00 
    889b:	48 c7 85 38 fa ff ff 	movq   $0x1,-0x5c8(%rbp)
    88a2:	01 00 00 00 
    88a6:	48 c7 85 40 fa ff ff 	movq   $0x1,-0x5c0(%rbp)
    88ad:	01 00 00 00 
    88b1:	48 c7 85 48 fa ff ff 	movq   $0x1,-0x5b8(%rbp)
    88b8:	01 00 00 00 
    88bc:	c6 85 1f f8 ff ff 17 	movb   $0x17,-0x7e1(%rbp)
    88c3:	48 c7 85 a0 f8 ff ff 	movq   $0x0,-0x760(%rbp)
    88ca:	00 00 00 00 
    88ce:	66 c7 85 04 f9 ff ff 	movw   $0x977c,-0x6fc(%rbp)
    88d5:	7c 97 
    88d7:	c6 85 06 f9 ff ff 7c 	movb   $0x7c,-0x6fa(%rbp)
    88de:	66 c7 85 07 f9 ff ff 	movw   $0xfafa,-0x6f9(%rbp)
    88e5:	fa fa 
    88e7:	c6 85 09 f9 ff ff fa 	movb   $0xfa,-0x6f7(%rbp)
    88ee:	66 c7 85 0a f9 ff ff 	movw   $0x977c,-0x6f6(%rbp)
    88f5:	7c 97 
    88f7:	c6 85 0c f9 ff ff 7c 	movb   $0x7c,-0x6f4(%rbp)
    88fe:	66 c7 85 0d f9 ff ff 	movw   $0xfafa,-0x6f3(%rbp)
    8905:	fa fa 
    8907:	c6 85 0f f9 ff ff fa 	movb   $0xfa,-0x6f1(%rbp)
    890e:	66 c7 05 c1 77 00 00 	movw   $0x4,0x77c1(%rip)        # 100d8 <g_213>
    8915:	04 00 
    8917:	eb 4a                	jmp    8963 <func_48+0x41f>
    8919:	48 8d 85 50 f8 ff ff 	lea    -0x7b0(%rbp),%rax
    8920:	48 89 85 f0 f8 ff ff 	mov    %rax,-0x710(%rbp)
    8927:	48 8b 95 50 f8 ff ff 	mov    -0x7b0(%rbp),%rdx
    892e:	48 8b 85 f0 f8 ff ff 	mov    -0x710(%rbp),%rax
    8935:	48 89 10             	mov    %rdx,(%rax)
    8938:	48 8b 85 f8 f8 ff ff 	mov    -0x708(%rbp),%rax
    893f:	48 89 85 1c f9 ff ff 	mov    %rax,-0x6e4(%rbp)
    8946:	8b 85 00 f9 ff ff    	mov    -0x700(%rbp),%eax
    894c:	89 85 24 f9 ff ff    	mov    %eax,-0x6dc(%rbp)
    8952:	0f b7 05 7f 77 00 00 	movzwl 0x777f(%rip),%eax        # 100d8 <g_213>
    8959:	83 e8 01             	sub    $0x1,%eax
    895c:	66 89 05 75 77 00 00 	mov    %ax,0x7775(%rip)        # 100d8 <g_213>
    8963:	0f b7 05 6e 77 00 00 	movzwl 0x776e(%rip),%eax        # 100d8 <g_213>
    896a:	66 85 c0             	test   %ax,%ax
    896d:	79 aa                	jns    8919 <func_48+0x3d5>
    896f:	48 8b 05 f2 80 00 00 	mov    0x80f2(%rip),%rax        # 10a68 <g_392>
    8976:	48 8b 95 60 f8 ff ff 	mov    -0x7a0(%rbp),%rdx
    897d:	48 89 10             	mov    %rdx,(%rax)
    8980:	66 c7 05 4b 77 00 00 	movw   $0x0,0x774b(%rip)        # 100d4 <g_181>
    8987:	00 00 
    8989:	e9 bf 01 00 00       	jmpq   8b4d <func_48+0x609>
    898e:	48 8d 05 5b 77 00 00 	lea    0x775b(%rip),%rax        # 100f0 <g_263>
    8995:	48 89 85 a8 f8 ff ff 	mov    %rax,-0x758(%rbp)
    899c:	48 c7 85 b0 f8 ff ff 	movq   $0x0,-0x750(%rbp)
    89a3:	00 00 00 00 
    89a7:	48 8d 05 aa 76 00 00 	lea    0x76aa(%rip),%rax        # 10058 <g_70+0x18>
    89ae:	48 89 85 b8 f8 ff ff 	mov    %rax,-0x748(%rbp)
    89b5:	48 c7 85 30 f9 ff ff 	movq   $0x0,-0x6d0(%rbp)
    89bc:	00 00 00 00 
    89c0:	48 c7 85 38 f9 ff ff 	movq   $0x0,-0x6c8(%rbp)
    89c7:	00 00 00 00 
    89cb:	48 c7 85 40 f9 ff ff 	movq   $0x0,-0x6c0(%rbp)
    89d2:	00 00 00 00 
    89d6:	c7 85 48 f9 ff ff 00 	movl   $0x0,-0x6b8(%rbp)
    89dd:	00 00 00 
    89e0:	48 8d 85 f8 f8 ff ff 	lea    -0x708(%rbp),%rax
    89e7:	48 83 c0 04          	add    $0x4,%rax
    89eb:	48 89 85 c0 f8 ff ff 	mov    %rax,-0x740(%rbp)
    89f2:	48 c7 85 c8 f8 ff ff 	movq   $0x0,-0x738(%rbp)
    89f9:	00 00 00 00 
    89fd:	48 c7 85 d0 f8 ff ff 	movq   $0x1,-0x730(%rbp)
    8a04:	01 00 00 00 
    8a08:	48 8d 05 61 80 00 00 	lea    0x8061(%rip),%rax        # 10a70 <g_412>
    8a0f:	48 89 85 d8 f8 ff ff 	mov    %rax,-0x728(%rbp)
    8a16:	48 8d 05 b5 76 00 00 	lea    0x76b5(%rip),%rax        # 100d2 <g_165>
    8a1d:	48 89 85 a0 f9 ff ff 	mov    %rax,-0x660(%rbp)
    8a24:	48 8d 05 a7 76 00 00 	lea    0x76a7(%rip),%rax        # 100d2 <g_165>
    8a2b:	48 89 85 a8 f9 ff ff 	mov    %rax,-0x658(%rbp)
    8a32:	48 8d 05 99 76 00 00 	lea    0x7699(%rip),%rax        # 100d2 <g_165>
    8a39:	48 89 85 b0 f9 ff ff 	mov    %rax,-0x650(%rbp)
    8a40:	48 8d 05 8b 76 00 00 	lea    0x768b(%rip),%rax        # 100d2 <g_165>
    8a47:	48 89 85 b8 f9 ff ff 	mov    %rax,-0x648(%rbp)
    8a4e:	48 8d 05 7d 76 00 00 	lea    0x767d(%rip),%rax        # 100d2 <g_165>
    8a55:	48 89 85 c0 f9 ff ff 	mov    %rax,-0x640(%rbp)
    8a5c:	48 8d 05 6f 76 00 00 	lea    0x766f(%rip),%rax        # 100d2 <g_165>
    8a63:	48 89 85 c8 f9 ff ff 	mov    %rax,-0x638(%rbp)
    8a6a:	48 8d 05 5f 76 00 00 	lea    0x765f(%rip),%rax        # 100d0 <g_132>
    8a71:	48 89 85 d0 f9 ff ff 	mov    %rax,-0x630(%rbp)
    8a78:	48 8d 05 51 76 00 00 	lea    0x7651(%rip),%rax        # 100d0 <g_132>
    8a7f:	48 89 85 d8 f9 ff ff 	mov    %rax,-0x628(%rbp)
    8a86:	48 8d 05 43 76 00 00 	lea    0x7643(%rip),%rax        # 100d0 <g_132>
    8a8d:	48 89 85 e0 f9 ff ff 	mov    %rax,-0x620(%rbp)
    8a94:	48 8d 05 35 76 00 00 	lea    0x7635(%rip),%rax        # 100d0 <g_132>
    8a9b:	48 89 85 e8 f9 ff ff 	mov    %rax,-0x618(%rbp)
    8aa2:	48 8d 05 27 76 00 00 	lea    0x7627(%rip),%rax        # 100d0 <g_132>
    8aa9:	48 89 85 f0 f9 ff ff 	mov    %rax,-0x610(%rbp)
    8ab0:	48 8d 05 19 76 00 00 	lea    0x7619(%rip),%rax        # 100d0 <g_132>
    8ab7:	48 89 85 f8 f9 ff ff 	mov    %rax,-0x608(%rbp)
    8abe:	48 8d 05 0b 76 00 00 	lea    0x760b(%rip),%rax        # 100d0 <g_132>
    8ac5:	48 89 85 00 fa ff ff 	mov    %rax,-0x600(%rbp)
    8acc:	48 b8 83 9a 3d d3 1d 	movabs $0xd878331dd33d9a83,%rax
    8ad3:	33 78 d8 
    8ad6:	48 89 85 70 f9 ff ff 	mov    %rax,-0x690(%rbp)
    8add:	48 89 85 78 f9 ff ff 	mov    %rax,-0x688(%rbp)
    8ae4:	48 89 85 80 f9 ff ff 	mov    %rax,-0x680(%rbp)
    8aeb:	48 89 85 88 f9 ff ff 	mov    %rax,-0x678(%rbp)
    8af2:	48 89 85 90 f9 ff ff 	mov    %rax,-0x670(%rbp)
    8af9:	48 8d 85 48 f8 ff ff 	lea    -0x7b8(%rbp),%rax
    8b00:	48 89 85 e0 f8 ff ff 	mov    %rax,-0x720(%rbp)
    8b07:	48 c7 85 e8 f8 ff ff 	movq   $0xffffffffffffffff,-0x718(%rbp)
    8b0e:	ff ff ff ff 
    8b12:	48 8d 85 a0 fa ff ff 	lea    -0x560(%rbp),%rax
    8b19:	48 8d 15 60 3c 00 00 	lea    0x3c60(%rip),%rdx        # c780 <g_1259+0x728>
    8b20:	b9 a8 00 00 00       	mov    $0xa8,%ecx
    8b25:	48 89 c7             	mov    %rax,%rdi
    8b28:	48 89 d6             	mov    %rdx,%rsi
    8b2b:	f3 48 a5             	rep movsq %ds:(%rsi),%es:(%rdi)
    8b2e:	0f b7 05 9f 75 00 00 	movzwl 0x759f(%rip),%eax        # 100d4 <g_181>
    8b35:	0f be c0             	movsbl %al,%eax
    8b38:	be 09 00 00 00       	mov    $0x9,%esi
    8b3d:	89 c7                	mov    %eax,%edi
    8b3f:	e8 90 b6 ff ff       	callq  41d4 <safe_add_func_int8_t_s_s>
    8b44:	66 98                	cbtw   
    8b46:	66 89 05 87 75 00 00 	mov    %ax,0x7587(%rip)        # 100d4 <g_181>
    8b4d:	0f b7 05 80 75 00 00 	movzwl 0x7580(%rip),%eax        # 100d4 <g_181>
    8b54:	66 83 f8 04          	cmp    $0x4,%ax
    8b58:	0f 8f 30 fe ff ff    	jg     898e <func_48+0x44a>
    8b5e:	48 8b 05 8b 75 00 00 	mov    0x758b(%rip),%rax        # 100f0 <g_263>
    8b65:	48 83 e8 01          	sub    $0x1,%rax
    8b69:	48 89 05 80 75 00 00 	mov    %rax,0x7580(%rip)        # 100f0 <g_263>
    8b70:	48 8b 05 79 75 00 00 	mov    0x7579(%rip),%rax        # 100f0 <g_263>
    8b77:	48 83 f8 ff          	cmp    $0xffffffffffffffff,%rax
    8b7b:	0f 85 32 fc ff ff    	jne    87b3 <func_48+0x26f>
    8b81:	48 8b 9d 48 f8 ff ff 	mov    -0x7b8(%rbp),%rbx
    8b88:	48 8b 05 91 7e 00 00 	mov    0x7e91(%rip),%rax        # 10a20 <g_8>
    8b8f:	0f b6 00             	movzbl (%rax),%eax
    8b92:	0f be c0             	movsbl %al,%eax
    8b95:	be 01 00 00 00       	mov    $0x1,%esi
    8b9a:	89 c7                	mov    %eax,%edi
    8b9c:	e8 cb b7 ff ff       	callq  436c <safe_rshift_func_int8_t_s_u>
    8ba1:	0f be d0             	movsbl %al,%edx
    8ba4:	48 8b 85 60 f8 ff ff 	mov    -0x7a0(%rbp),%rax
    8bab:	8b 00                	mov    (%rax),%eax
    8bad:	0f be c0             	movsbl %al,%eax
    8bb0:	89 d6                	mov    %edx,%esi
    8bb2:	89 c7                	mov    %eax,%edi
    8bb4:	e8 59 b6 ff ff       	callq  4212 <safe_mul_func_int8_t_s_s>
    8bb9:	0f be d0             	movsbl %al,%edx
    8bbc:	48 8b 85 60 f8 ff ff 	mov    -0x7a0(%rbp),%rax
    8bc3:	8b 00                	mov    (%rax),%eax
    8bc5:	39 c2                	cmp    %eax,%edx
    8bc7:	0f 9d c0             	setge  %al
    8bca:	0f b6 c0             	movzbl %al,%eax
    8bcd:	48 39 85 78 f8 ff ff 	cmp    %rax,-0x788(%rbp)
    8bd4:	0f 97 c0             	seta   %al
    8bd7:	0f b6 c0             	movzbl %al,%eax
    8bda:	89 c6                	mov    %eax,%esi
    8bdc:	bf 03 00 00 00       	mov    $0x3,%edi
    8be1:	e8 ee b5 ff ff       	callq  41d4 <safe_add_func_int8_t_s_s>
    8be6:	0f be d0             	movsbl %al,%edx
    8be9:	48 8b 05 d8 74 00 00 	mov    0x74d8(%rip),%rax        # 100c8 <g_118+0x28>
    8bf0:	48 85 c0             	test   %rax,%rax
    8bf3:	74 13                	je     8c08 <func_48+0x6c4>
    8bf5:	81 bd 04 f8 ff ff fd 	cmpl   $0x4b4485fd,-0x7fc(%rbp)
    8bfc:	85 44 4b 
    8bff:	77 07                	ja     8c08 <func_48+0x6c4>
    8c01:	b9 01 00 00 00       	mov    $0x1,%ecx
    8c06:	eb 05                	jmp    8c0d <func_48+0x6c9>
    8c08:	b9 00 00 00 00       	mov    $0x0,%ecx
    8c0d:	48 8b 85 f8 f7 ff ff 	mov    -0x808(%rbp),%rax
    8c14:	0f b6 00             	movzbl (%rax),%eax
    8c17:	0f be c0             	movsbl %al,%eax
    8c1a:	31 c8                	xor    %ecx,%eax
    8c1c:	09 d0                	or     %edx,%eax
    8c1e:	89 c1                	mov    %eax,%ecx
    8c20:	48 83 ec 10          	sub    $0x10,%rsp
    8c24:	48 89 e0             	mov    %rsp,%rax
    8c27:	48 8b 95 1c f9 ff ff 	mov    -0x6e4(%rbp),%rdx
    8c2e:	48 89 10             	mov    %rdx,(%rax)
    8c31:	8b 95 24 f9 ff ff    	mov    -0x6dc(%rbp),%edx
    8c37:	89 50 08             	mov    %edx,0x8(%rax)
    8c3a:	89 cf                	mov    %ecx,%edi
    8c3c:	e8 a6 1a 00 00       	callq  a6e7 <func_59>
    8c41:	48 83 c4 10          	add    $0x10,%rsp
    8c45:	48 89 c6             	mov    %rax,%rsi
    8c48:	48 8d 85 e0 f7 ff ff 	lea    -0x820(%rbp),%rax
    8c4f:	48 8b 8d 80 f8 ff ff 	mov    -0x780(%rbp),%rcx
    8c56:	48 8b 95 f8 f7 ff ff 	mov    -0x808(%rbp),%rdx
    8c5d:	49 89 c8             	mov    %rcx,%r8
    8c60:	48 8b 0b             	mov    (%rbx),%rcx
    8c63:	48 89 c7             	mov    %rax,%rdi
    8c66:	e8 3b 00 00 00       	callq  8ca6 <func_54>
    8c6b:	48 8b 85 e0 f7 ff ff 	mov    -0x820(%rbp),%rax
    8c72:	48 89 85 1c f9 ff ff 	mov    %rax,-0x6e4(%rbp)
    8c79:	8b 85 e8 f7 ff ff    	mov    -0x818(%rbp),%eax
    8c7f:	89 85 24 f9 ff ff    	mov    %eax,-0x6dc(%rbp)
    8c85:	48 8b 85 68 f8 ff ff 	mov    -0x798(%rbp),%rax
    8c8c:	48 8b 5d e8          	mov    -0x18(%rbp),%rbx
    8c90:	64 48 33 1c 25 28 00 	xor    %fs:0x28,%rbx
    8c97:	00 00 
    8c99:	74 05                	je     8ca0 <func_48+0x75c>
    8c9b:	e8 d0 b3 ff ff       	callq  4070 <__stack_chk_fail@plt>
    8ca0:	48 8b 5d f8          	mov    -0x8(%rbp),%rbx
    8ca4:	c9                   	leaveq 
    8ca5:	c3                   	retq   

0000000000008ca6 <func_54>:
    8ca6:	f3 0f 1e fa          	endbr64 
    8caa:	55                   	push   %rbp
    8cab:	48 89 e5             	mov    %rsp,%rbp
    8cae:	41 55                	push   %r13
    8cb0:	41 54                	push   %r12
    8cb2:	53                   	push   %rbx
    8cb3:	48 81 ec 00 10 00 00 	sub    $0x1000,%rsp
    8cba:	48 83 0c 24 00       	orq    $0x0,(%rsp)
    8cbf:	48 81 ec 48 08 00 00 	sub    $0x848,%rsp
    8cc6:	48 89 bd c8 e7 ff ff 	mov    %rdi,-0x1838(%rbp)
    8ccd:	48 89 b5 c0 e7 ff ff 	mov    %rsi,-0x1840(%rbp)
    8cd4:	48 89 95 b8 e7 ff ff 	mov    %rdx,-0x1848(%rbp)
    8cdb:	48 89 8d b0 e7 ff ff 	mov    %rcx,-0x1850(%rbp)
    8ce2:	4c 89 85 a8 e7 ff ff 	mov    %r8,-0x1858(%rbp)
    8ce9:	64 48 8b 04 25 28 00 	mov    %fs:0x28,%rax
    8cf0:	00 00 
    8cf2:	48 89 45 d8          	mov    %rax,-0x28(%rbp)
    8cf6:	31 c0                	xor    %eax,%eax
    8cf8:	48 c7 85 38 e8 ff ff 	movq   $0xffffffffffffffff,-0x17c8(%rbp)
    8cff:	ff ff ff ff 
    8d03:	48 8d 05 72 73 00 00 	lea    0x7372(%rip),%rax        # 1007c <g_109+0xc>
    8d0a:	48 89 85 30 e8 ff ff 	mov    %rax,-0x17d0(%rbp)
    8d11:	48 8d 05 08 7d 00 00 	lea    0x7d08(%rip),%rax        # 10a20 <g_8>
    8d18:	48 89 85 40 e8 ff ff 	mov    %rax,-0x17c0(%rbp)
    8d1f:	48 b8 27 49 e3 d0 ae 	movabs $0x3cf365aed0e34927,%rax
    8d26:	65 f3 3c 
    8d29:	48 89 85 48 e8 ff ff 	mov    %rax,-0x17b8(%rbp)
    8d30:	c7 85 ec e7 ff ff 03 	movl   $0x3,-0x1814(%rbp)
    8d37:	00 00 00 
    8d3a:	48 8d 05 17 73 00 00 	lea    0x7317(%rip),%rax        # 10058 <g_70+0x18>
    8d41:	48 89 85 d0 f8 ff ff 	mov    %rax,-0x730(%rbp)
    8d48:	48 c7 85 d8 f8 ff ff 	movq   $0x0,-0x728(%rbp)
    8d4f:	00 00 00 00 
    8d53:	48 8d 85 ec e7 ff ff 	lea    -0x1814(%rbp),%rax
    8d5a:	48 89 85 e0 f8 ff ff 	mov    %rax,-0x720(%rbp)
    8d61:	48 8d 05 f0 72 00 00 	lea    0x72f0(%rip),%rax        # 10058 <g_70+0x18>
    8d68:	48 89 85 e8 f8 ff ff 	mov    %rax,-0x718(%rbp)
    8d6f:	48 8d 05 e2 72 00 00 	lea    0x72e2(%rip),%rax        # 10058 <g_70+0x18>
    8d76:	48 89 85 f0 f8 ff ff 	mov    %rax,-0x710(%rbp)
    8d7d:	48 8d 05 d4 72 00 00 	lea    0x72d4(%rip),%rax        # 10058 <g_70+0x18>
    8d84:	48 89 85 f8 f8 ff ff 	mov    %rax,-0x708(%rbp)
    8d8b:	48 8d 05 c2 72 00 00 	lea    0x72c2(%rip),%rax        # 10054 <g_70+0x14>
    8d92:	48 89 85 00 f9 ff ff 	mov    %rax,-0x700(%rbp)
    8d99:	48 8d 05 b8 72 00 00 	lea    0x72b8(%rip),%rax        # 10058 <g_70+0x18>
    8da0:	48 89 85 08 f9 ff ff 	mov    %rax,-0x6f8(%rbp)
    8da7:	48 8d 05 92 72 00 00 	lea    0x7292(%rip),%rax        # 10040 <g_70>
    8dae:	48 89 85 10 f9 ff ff 	mov    %rax,-0x6f0(%rbp)
    8db5:	48 8d 05 88 72 00 00 	lea    0x7288(%rip),%rax        # 10044 <g_70+0x4>
    8dbc:	48 89 85 18 f9 ff ff 	mov    %rax,-0x6e8(%rbp)
    8dc3:	48 8d 05 8e 72 00 00 	lea    0x728e(%rip),%rax        # 10058 <g_70+0x18>
    8dca:	48 89 85 20 f9 ff ff 	mov    %rax,-0x6e0(%rbp)
    8dd1:	48 8d 85 ec e7 ff ff 	lea    -0x1814(%rbp),%rax
    8dd8:	48 89 85 28 f9 ff ff 	mov    %rax,-0x6d8(%rbp)
    8ddf:	48 8d 85 ec e7 ff ff 	lea    -0x1814(%rbp),%rax
    8de6:	48 89 85 30 f9 ff ff 	mov    %rax,-0x6d0(%rbp)
    8ded:	48 c7 85 38 f9 ff ff 	movq   $0x0,-0x6c8(%rbp)
    8df4:	00 00 00 00 
    8df8:	48 8d 85 ec e7 ff ff 	lea    -0x1814(%rbp),%rax
    8dff:	48 89 85 40 f9 ff ff 	mov    %rax,-0x6c0(%rbp)
    8e06:	48 8d 05 33 72 00 00 	lea    0x7233(%rip),%rax        # 10040 <g_70>
    8e0d:	48 89 85 48 f9 ff ff 	mov    %rax,-0x6b8(%rbp)
    8e14:	48 8d 85 ec e7 ff ff 	lea    -0x1814(%rbp),%rax
    8e1b:	48 89 85 50 f9 ff ff 	mov    %rax,-0x6b0(%rbp)
    8e22:	48 8d 05 2f 72 00 00 	lea    0x722f(%rip),%rax        # 10058 <g_70+0x18>
    8e29:	48 89 85 58 f9 ff ff 	mov    %rax,-0x6a8(%rbp)
    8e30:	48 c7 85 60 f9 ff ff 	movq   $0x0,-0x6a0(%rbp)
    8e37:	00 00 00 00 
    8e3b:	48 8d 05 16 72 00 00 	lea    0x7216(%rip),%rax        # 10058 <g_70+0x18>
    8e42:	48 89 85 68 f9 ff ff 	mov    %rax,-0x698(%rbp)
    8e49:	48 8d 05 04 72 00 00 	lea    0x7204(%rip),%rax        # 10054 <g_70+0x14>
    8e50:	48 89 85 70 f9 ff ff 	mov    %rax,-0x690(%rbp)
    8e57:	48 8d 05 fa 71 00 00 	lea    0x71fa(%rip),%rax        # 10058 <g_70+0x18>
    8e5e:	48 89 85 78 f9 ff ff 	mov    %rax,-0x688(%rbp)
    8e65:	48 8d 05 ec 71 00 00 	lea    0x71ec(%rip),%rax        # 10058 <g_70+0x18>
    8e6c:	48 89 85 80 f9 ff ff 	mov    %rax,-0x680(%rbp)
    8e73:	48 8d 85 ec e7 ff ff 	lea    -0x1814(%rbp),%rax
    8e7a:	48 89 85 88 f9 ff ff 	mov    %rax,-0x678(%rbp)
    8e81:	48 8d 05 d0 71 00 00 	lea    0x71d0(%rip),%rax        # 10058 <g_70+0x18>
    8e88:	48 89 85 90 f9 ff ff 	mov    %rax,-0x670(%rbp)
    8e8f:	48 c7 85 98 f9 ff ff 	movq   $0x0,-0x668(%rbp)
    8e96:	00 00 00 00 
    8e9a:	48 8d 05 b7 71 00 00 	lea    0x71b7(%rip),%rax        # 10058 <g_70+0x18>
    8ea1:	48 89 85 a0 f9 ff ff 	mov    %rax,-0x660(%rbp)
    8ea8:	48 8d 85 ec e7 ff ff 	lea    -0x1814(%rbp),%rax
    8eaf:	48 89 85 a8 f9 ff ff 	mov    %rax,-0x658(%rbp)
    8eb6:	48 c7 85 b0 f9 ff ff 	movq   $0x0,-0x650(%rbp)
    8ebd:	00 00 00 00 
    8ec1:	48 c7 85 b8 f9 ff ff 	movq   $0x0,-0x648(%rbp)
    8ec8:	00 00 00 00 
    8ecc:	48 c7 85 c0 f9 ff ff 	movq   $0x0,-0x640(%rbp)
    8ed3:	00 00 00 00 
    8ed7:	48 8d 85 ec e7 ff ff 	lea    -0x1814(%rbp),%rax
    8ede:	48 89 85 c8 f9 ff ff 	mov    %rax,-0x638(%rbp)
    8ee5:	48 8d 05 6c 71 00 00 	lea    0x716c(%rip),%rax        # 10058 <g_70+0x18>
    8eec:	48 89 85 d0 f9 ff ff 	mov    %rax,-0x630(%rbp)
    8ef3:	48 8d 05 52 71 00 00 	lea    0x7152(%rip),%rax        # 1004c <g_70+0xc>
    8efa:	48 89 85 d8 f9 ff ff 	mov    %rax,-0x628(%rbp)
    8f01:	48 8d 05 4c 71 00 00 	lea    0x714c(%rip),%rax        # 10054 <g_70+0x14>
    8f08:	48 89 85 e0 f9 ff ff 	mov    %rax,-0x620(%rbp)
    8f0f:	48 8d 05 36 71 00 00 	lea    0x7136(%rip),%rax        # 1004c <g_70+0xc>
    8f16:	48 89 85 e8 f9 ff ff 	mov    %rax,-0x618(%rbp)
    8f1d:	48 8d 05 34 71 00 00 	lea    0x7134(%rip),%rax        # 10058 <g_70+0x18>
    8f24:	48 89 85 f0 f9 ff ff 	mov    %rax,-0x610(%rbp)
    8f2b:	48 8d 05 26 71 00 00 	lea    0x7126(%rip),%rax        # 10058 <g_70+0x18>
    8f32:	48 89 85 f8 f9 ff ff 	mov    %rax,-0x608(%rbp)
    8f39:	48 c7 85 00 fa ff ff 	movq   $0x0,-0x600(%rbp)
    8f40:	00 00 00 00 
    8f44:	48 8d 05 0d 71 00 00 	lea    0x710d(%rip),%rax        # 10058 <g_70+0x18>
    8f4b:	48 89 85 08 fa ff ff 	mov    %rax,-0x5f8(%rbp)
    8f52:	48 8d 05 ff 70 00 00 	lea    0x70ff(%rip),%rax        # 10058 <g_70+0x18>
    8f59:	48 89 85 10 fa ff ff 	mov    %rax,-0x5f0(%rbp)
    8f60:	48 8d 05 f1 70 00 00 	lea    0x70f1(%rip),%rax        # 10058 <g_70+0x18>
    8f67:	48 89 85 18 fa ff ff 	mov    %rax,-0x5e8(%rbp)
    8f6e:	48 8d 85 ec e7 ff ff 	lea    -0x1814(%rbp),%rax
    8f75:	48 89 85 20 fa ff ff 	mov    %rax,-0x5e0(%rbp)
    8f7c:	48 c7 85 28 fa ff ff 	movq   $0x0,-0x5d8(%rbp)
    8f83:	00 00 00 00 
    8f87:	48 8d 05 b6 70 00 00 	lea    0x70b6(%rip),%rax        # 10044 <g_70+0x4>
    8f8e:	48 89 85 30 fa ff ff 	mov    %rax,-0x5d0(%rbp)
    8f95:	48 8d 05 a4 70 00 00 	lea    0x70a4(%rip),%rax        # 10040 <g_70>
    8f9c:	48 89 85 38 fa ff ff 	mov    %rax,-0x5c8(%rbp)
    8fa3:	48 8d 85 ec e7 ff ff 	lea    -0x1814(%rbp),%rax
    8faa:	48 89 85 40 fa ff ff 	mov    %rax,-0x5c0(%rbp)
    8fb1:	48 8d 05 88 70 00 00 	lea    0x7088(%rip),%rax        # 10040 <g_70>
    8fb8:	48 89 85 48 fa ff ff 	mov    %rax,-0x5b8(%rbp)
    8fbf:	48 8d 05 86 70 00 00 	lea    0x7086(%rip),%rax        # 1004c <g_70+0xc>
    8fc6:	48 89 85 50 fa ff ff 	mov    %rax,-0x5b0(%rbp)
    8fcd:	48 8d 05 74 70 00 00 	lea    0x7074(%rip),%rax        # 10048 <g_70+0x8>
    8fd4:	48 89 85 58 fa ff ff 	mov    %rax,-0x5a8(%rbp)
    8fdb:	48 8d 85 ec e7 ff ff 	lea    -0x1814(%rbp),%rax
    8fe2:	48 89 85 60 fa ff ff 	mov    %rax,-0x5a0(%rbp)
    8fe9:	48 8d 85 ec e7 ff ff 	lea    -0x1814(%rbp),%rax
    8ff0:	48 89 85 68 fa ff ff 	mov    %rax,-0x598(%rbp)
    8ff7:	48 8d 05 5a 70 00 00 	lea    0x705a(%rip),%rax        # 10058 <g_70+0x18>
    8ffe:	48 89 85 70 fa ff ff 	mov    %rax,-0x590(%rbp)
    9005:	48 c7 85 78 fa ff ff 	movq   $0x0,-0x588(%rbp)
    900c:	00 00 00 00 
    9010:	48 c7 85 80 fa ff ff 	movq   $0x0,-0x580(%rbp)
    9017:	00 00 00 00 
    901b:	48 8d 05 1e 70 00 00 	lea    0x701e(%rip),%rax        # 10040 <g_70>
    9022:	48 89 85 88 fa ff ff 	mov    %rax,-0x578(%rbp)
    9029:	48 c7 85 90 fa ff ff 	movq   $0x0,-0x570(%rbp)
    9030:	00 00 00 00 
    9034:	48 8d 05 1d 70 00 00 	lea    0x701d(%rip),%rax        # 10058 <g_70+0x18>
    903b:	48 89 85 98 fa ff ff 	mov    %rax,-0x568(%rbp)
    9042:	48 8d 85 ec e7 ff ff 	lea    -0x1814(%rbp),%rax
    9049:	48 89 85 a0 fa ff ff 	mov    %rax,-0x560(%rbp)
    9050:	48 8d 05 fd 6f 00 00 	lea    0x6ffd(%rip),%rax        # 10054 <g_70+0x14>
    9057:	48 89 85 a8 fa ff ff 	mov    %rax,-0x558(%rbp)
    905e:	48 8d 05 f3 6f 00 00 	lea    0x6ff3(%rip),%rax        # 10058 <g_70+0x18>
    9065:	48 89 85 b0 fa ff ff 	mov    %rax,-0x550(%rbp)
    906c:	48 c7 85 b8 fa ff ff 	movq   $0x0,-0x548(%rbp)
    9073:	00 00 00 00 
    9077:	48 8d 05 da 6f 00 00 	lea    0x6fda(%rip),%rax        # 10058 <g_70+0x18>
    907e:	48 89 85 c0 fa ff ff 	mov    %rax,-0x540(%rbp)
    9085:	48 8d 85 ec e7 ff ff 	lea    -0x1814(%rbp),%rax
    908c:	48 89 85 c8 fa ff ff 	mov    %rax,-0x538(%rbp)
    9093:	48 8d 05 ba 6f 00 00 	lea    0x6fba(%rip),%rax        # 10054 <g_70+0x14>
    909a:	48 89 85 d0 fa ff ff 	mov    %rax,-0x530(%rbp)
    90a1:	48 8d 05 a4 6f 00 00 	lea    0x6fa4(%rip),%rax        # 1004c <g_70+0xc>
    90a8:	48 89 85 d8 fa ff ff 	mov    %rax,-0x528(%rbp)
    90af:	48 8d 05 a2 6f 00 00 	lea    0x6fa2(%rip),%rax        # 10058 <g_70+0x18>
    90b6:	48 89 85 e0 fa ff ff 	mov    %rax,-0x520(%rbp)
    90bd:	48 8d 05 94 6f 00 00 	lea    0x6f94(%rip),%rax        # 10058 <g_70+0x18>
    90c4:	48 89 85 e8 fa ff ff 	mov    %rax,-0x518(%rbp)
    90cb:	48 8d 05 86 6f 00 00 	lea    0x6f86(%rip),%rax        # 10058 <g_70+0x18>
    90d2:	48 89 85 f0 fa ff ff 	mov    %rax,-0x510(%rbp)
    90d9:	48 8d 85 ec e7 ff ff 	lea    -0x1814(%rbp),%rax
    90e0:	48 89 85 f8 fa ff ff 	mov    %rax,-0x508(%rbp)
    90e7:	48 c7 85 00 fb ff ff 	movq   $0x0,-0x500(%rbp)
    90ee:	00 00 00 00 
    90f2:	48 8d 05 5f 6f 00 00 	lea    0x6f5f(%rip),%rax        # 10058 <g_70+0x18>
    90f9:	48 89 85 08 fb ff ff 	mov    %rax,-0x4f8(%rbp)
    9100:	48 8d 05 39 6f 00 00 	lea    0x6f39(%rip),%rax        # 10040 <g_70>
    9107:	48 89 85 10 fb ff ff 	mov    %rax,-0x4f0(%rbp)
    910e:	48 8d 05 43 6f 00 00 	lea    0x6f43(%rip),%rax        # 10058 <g_70+0x18>
    9115:	48 89 85 18 fb ff ff 	mov    %rax,-0x4e8(%rbp)
    911c:	48 8d 05 31 6f 00 00 	lea    0x6f31(%rip),%rax        # 10054 <g_70+0x14>
    9123:	48 89 85 20 fb ff ff 	mov    %rax,-0x4e0(%rbp)
    912a:	48 c7 85 28 fb ff ff 	movq   $0x0,-0x4d8(%rbp)
    9131:	00 00 00 00 
    9135:	48 8d 85 ec e7 ff ff 	lea    -0x1814(%rbp),%rax
    913c:	48 89 85 30 fb ff ff 	mov    %rax,-0x4d0(%rbp)
    9143:	48 8d 85 ec e7 ff ff 	lea    -0x1814(%rbp),%rax
    914a:	48 89 85 38 fb ff ff 	mov    %rax,-0x4c8(%rbp)
    9151:	48 c7 85 40 fb ff ff 	movq   $0x0,-0x4c0(%rbp)
    9158:	00 00 00 00 
    915c:	48 8d 05 f1 6e 00 00 	lea    0x6ef1(%rip),%rax        # 10054 <g_70+0x14>
    9163:	48 89 85 48 fb ff ff 	mov    %rax,-0x4b8(%rbp)
    916a:	48 8d 05 e3 6e 00 00 	lea    0x6ee3(%rip),%rax        # 10054 <g_70+0x14>
    9171:	48 89 85 50 fb ff ff 	mov    %rax,-0x4b0(%rbp)
    9178:	48 8d 85 ec e7 ff ff 	lea    -0x1814(%rbp),%rax
    917f:	48 89 85 58 fb ff ff 	mov    %rax,-0x4a8(%rbp)
    9186:	48 8d 05 cb 6e 00 00 	lea    0x6ecb(%rip),%rax        # 10058 <g_70+0x18>
    918d:	48 89 85 60 fb ff ff 	mov    %rax,-0x4a0(%rbp)
    9194:	48 8d 05 b5 6e 00 00 	lea    0x6eb5(%rip),%rax        # 10050 <g_70+0x10>
    919b:	48 89 85 68 fb ff ff 	mov    %rax,-0x498(%rbp)
    91a2:	48 c7 85 70 fb ff ff 	movq   $0x0,-0x490(%rbp)
    91a9:	00 00 00 00 
    91ad:	48 8d 05 a4 6e 00 00 	lea    0x6ea4(%rip),%rax        # 10058 <g_70+0x18>
    91b4:	48 89 85 78 fb ff ff 	mov    %rax,-0x488(%rbp)
    91bb:	48 8d 05 96 6e 00 00 	lea    0x6e96(%rip),%rax        # 10058 <g_70+0x18>
    91c2:	48 89 85 80 fb ff ff 	mov    %rax,-0x480(%rbp)
    91c9:	48 8d 05 88 6e 00 00 	lea    0x6e88(%rip),%rax        # 10058 <g_70+0x18>
    91d0:	48 89 85 88 fb ff ff 	mov    %rax,-0x478(%rbp)
    91d7:	48 8d 05 7a 6e 00 00 	lea    0x6e7a(%rip),%rax        # 10058 <g_70+0x18>
    91de:	48 89 85 90 fb ff ff 	mov    %rax,-0x470(%rbp)
    91e5:	48 8d 05 5c 6e 00 00 	lea    0x6e5c(%rip),%rax        # 10048 <g_70+0x8>
    91ec:	48 89 85 98 fb ff ff 	mov    %rax,-0x468(%rbp)
    91f3:	48 c7 85 a0 fb ff ff 	movq   $0x0,-0x460(%rbp)
    91fa:	00 00 00 00 
    91fe:	48 8d 05 53 6e 00 00 	lea    0x6e53(%rip),%rax        # 10058 <g_70+0x18>
    9205:	48 89 85 a8 fb ff ff 	mov    %rax,-0x458(%rbp)
    920c:	48 8d 85 ec e7 ff ff 	lea    -0x1814(%rbp),%rax
    9213:	48 89 85 b0 fb ff ff 	mov    %rax,-0x450(%rbp)
    921a:	48 8d 05 2f 6e 00 00 	lea    0x6e2f(%rip),%rax        # 10050 <g_70+0x10>
    9221:	48 89 85 b8 fb ff ff 	mov    %rax,-0x448(%rbp)
    9228:	48 8d 05 15 6e 00 00 	lea    0x6e15(%rip),%rax        # 10044 <g_70+0x4>
    922f:	48 89 85 c0 fb ff ff 	mov    %rax,-0x440(%rbp)
    9236:	48 8d 05 0b 6e 00 00 	lea    0x6e0b(%rip),%rax        # 10048 <g_70+0x8>
    923d:	48 89 85 c8 fb ff ff 	mov    %rax,-0x438(%rbp)
    9244:	48 c7 85 d0 fb ff ff 	movq   $0x0,-0x430(%rbp)
    924b:	00 00 00 00 
    924f:	48 8d 05 02 6e 00 00 	lea    0x6e02(%rip),%rax        # 10058 <g_70+0x18>
    9256:	48 89 85 d8 fb ff ff 	mov    %rax,-0x428(%rbp)
    925d:	48 c7 85 e0 fb ff ff 	movq   $0x0,-0x420(%rbp)
    9264:	00 00 00 00 
    9268:	48 8d 05 e9 6d 00 00 	lea    0x6de9(%rip),%rax        # 10058 <g_70+0x18>
    926f:	48 89 85 e8 fb ff ff 	mov    %rax,-0x418(%rbp)
    9276:	48 8d 05 cb 6d 00 00 	lea    0x6dcb(%rip),%rax        # 10048 <g_70+0x8>
    927d:	48 89 85 f0 fb ff ff 	mov    %rax,-0x410(%rbp)
    9284:	48 c7 85 f8 fb ff ff 	movq   $0x0,-0x408(%rbp)
    928b:	00 00 00 00 
    928f:	48 8d 05 c2 6d 00 00 	lea    0x6dc2(%rip),%rax        # 10058 <g_70+0x18>
    9296:	48 89 85 00 fc ff ff 	mov    %rax,-0x400(%rbp)
    929d:	48 8d 05 b4 6d 00 00 	lea    0x6db4(%rip),%rax        # 10058 <g_70+0x18>
    92a4:	48 89 85 08 fc ff ff 	mov    %rax,-0x3f8(%rbp)
    92ab:	48 8d 05 a2 6d 00 00 	lea    0x6da2(%rip),%rax        # 10054 <g_70+0x14>
    92b2:	48 89 85 10 fc ff ff 	mov    %rax,-0x3f0(%rbp)
    92b9:	48 c7 85 18 fc ff ff 	movq   $0x0,-0x3e8(%rbp)
    92c0:	00 00 00 00 
    92c4:	48 8d 85 ec e7 ff ff 	lea    -0x1814(%rbp),%rax
    92cb:	48 89 85 20 fc ff ff 	mov    %rax,-0x3e0(%rbp)
    92d2:	48 8d 05 7f 6d 00 00 	lea    0x6d7f(%rip),%rax        # 10058 <g_70+0x18>
    92d9:	48 89 85 28 fc ff ff 	mov    %rax,-0x3d8(%rbp)
    92e0:	48 8d 05 71 6d 00 00 	lea    0x6d71(%rip),%rax        # 10058 <g_70+0x18>
    92e7:	48 89 85 30 fc ff ff 	mov    %rax,-0x3d0(%rbp)
    92ee:	48 c7 85 38 fc ff ff 	movq   $0x0,-0x3c8(%rbp)
    92f5:	00 00 00 00 
    92f9:	48 8d 05 58 6d 00 00 	lea    0x6d58(%rip),%rax        # 10058 <g_70+0x18>
    9300:	48 89 85 40 fc ff ff 	mov    %rax,-0x3c0(%rbp)
    9307:	48 8d 85 ec e7 ff ff 	lea    -0x1814(%rbp),%rax
    930e:	48 89 85 48 fc ff ff 	mov    %rax,-0x3b8(%rbp)
    9315:	48 8d 05 3c 6d 00 00 	lea    0x6d3c(%rip),%rax        # 10058 <g_70+0x18>
    931c:	48 89 85 50 fc ff ff 	mov    %rax,-0x3b0(%rbp)
    9323:	48 8d 85 ec e7 ff ff 	lea    -0x1814(%rbp),%rax
    932a:	48 89 85 58 fc ff ff 	mov    %rax,-0x3a8(%rbp)
    9331:	48 8d 05 20 6d 00 00 	lea    0x6d20(%rip),%rax        # 10058 <g_70+0x18>
    9338:	48 89 85 60 fc ff ff 	mov    %rax,-0x3a0(%rbp)
    933f:	48 8d 05 0e 6d 00 00 	lea    0x6d0e(%rip),%rax        # 10054 <g_70+0x14>
    9346:	48 89 85 68 fc ff ff 	mov    %rax,-0x398(%rbp)
    934d:	48 8d 05 04 6d 00 00 	lea    0x6d04(%rip),%rax        # 10058 <g_70+0x18>
    9354:	48 89 85 70 fc ff ff 	mov    %rax,-0x390(%rbp)
    935b:	48 8d 05 f6 6c 00 00 	lea    0x6cf6(%rip),%rax        # 10058 <g_70+0x18>
    9362:	48 89 85 78 fc ff ff 	mov    %rax,-0x388(%rbp)
    9369:	48 8d 85 ec e7 ff ff 	lea    -0x1814(%rbp),%rax
    9370:	48 89 85 80 fc ff ff 	mov    %rax,-0x380(%rbp)
    9377:	48 8d 05 da 6c 00 00 	lea    0x6cda(%rip),%rax        # 10058 <g_70+0x18>
    937e:	48 89 85 88 fc ff ff 	mov    %rax,-0x378(%rbp)
    9385:	48 c7 85 90 fc ff ff 	movq   $0x0,-0x370(%rbp)
    938c:	00 00 00 00 
    9390:	48 8d 05 c1 6c 00 00 	lea    0x6cc1(%rip),%rax        # 10058 <g_70+0x18>
    9397:	48 89 85 98 fc ff ff 	mov    %rax,-0x368(%rbp)
    939e:	48 8d 85 ec e7 ff ff 	lea    -0x1814(%rbp),%rax
    93a5:	48 89 85 a0 fc ff ff 	mov    %rax,-0x360(%rbp)
    93ac:	48 c7 85 a8 fc ff ff 	movq   $0x0,-0x358(%rbp)
    93b3:	00 00 00 00 
    93b7:	48 c7 85 b0 fc ff ff 	movq   $0x0,-0x350(%rbp)
    93be:	00 00 00 00 
    93c2:	48 c7 85 b8 fc ff ff 	movq   $0x0,-0x348(%rbp)
    93c9:	00 00 00 00 
    93cd:	48 8d 85 ec e7 ff ff 	lea    -0x1814(%rbp),%rax
    93d4:	48 89 85 c0 fc ff ff 	mov    %rax,-0x340(%rbp)
    93db:	48 8d 05 76 6c 00 00 	lea    0x6c76(%rip),%rax        # 10058 <g_70+0x18>
    93e2:	48 89 85 c8 fc ff ff 	mov    %rax,-0x338(%rbp)
    93e9:	48 8d 05 5c 6c 00 00 	lea    0x6c5c(%rip),%rax        # 1004c <g_70+0xc>
    93f0:	48 89 85 d0 fc ff ff 	mov    %rax,-0x330(%rbp)
    93f7:	48 8d 05 56 6c 00 00 	lea    0x6c56(%rip),%rax        # 10054 <g_70+0x14>
    93fe:	48 89 85 d8 fc ff ff 	mov    %rax,-0x328(%rbp)
    9405:	48 8d 05 40 6c 00 00 	lea    0x6c40(%rip),%rax        # 1004c <g_70+0xc>
    940c:	48 89 85 e0 fc ff ff 	mov    %rax,-0x320(%rbp)
    9413:	48 8d 05 3e 6c 00 00 	lea    0x6c3e(%rip),%rax        # 10058 <g_70+0x18>
    941a:	48 89 85 e8 fc ff ff 	mov    %rax,-0x318(%rbp)
    9421:	48 8d 05 30 6c 00 00 	lea    0x6c30(%rip),%rax        # 10058 <g_70+0x18>
    9428:	48 89 85 f0 fc ff ff 	mov    %rax,-0x310(%rbp)
    942f:	48 c7 85 f8 fc ff ff 	movq   $0x0,-0x308(%rbp)
    9436:	00 00 00 00 
    943a:	48 8d 05 17 6c 00 00 	lea    0x6c17(%rip),%rax        # 10058 <g_70+0x18>
    9441:	48 89 85 00 fd ff ff 	mov    %rax,-0x300(%rbp)
    9448:	48 8d 05 09 6c 00 00 	lea    0x6c09(%rip),%rax        # 10058 <g_70+0x18>
    944f:	48 89 85 08 fd ff ff 	mov    %rax,-0x2f8(%rbp)
    9456:	48 8d 05 fb 6b 00 00 	lea    0x6bfb(%rip),%rax        # 10058 <g_70+0x18>
    945d:	48 89 85 10 fd ff ff 	mov    %rax,-0x2f0(%rbp)
    9464:	48 8d 85 ec e7 ff ff 	lea    -0x1814(%rbp),%rax
    946b:	48 89 85 18 fd ff ff 	mov    %rax,-0x2e8(%rbp)
    9472:	48 c7 85 20 fd ff ff 	movq   $0x0,-0x2e0(%rbp)
    9479:	00 00 00 00 
    947d:	48 8d 05 c0 6b 00 00 	lea    0x6bc0(%rip),%rax        # 10044 <g_70+0x4>
    9484:	48 89 85 28 fd ff ff 	mov    %rax,-0x2d8(%rbp)
    948b:	48 8d 05 ae 6b 00 00 	lea    0x6bae(%rip),%rax        # 10040 <g_70>
    9492:	48 89 85 30 fd ff ff 	mov    %rax,-0x2d0(%rbp)
    9499:	48 8d 85 ec e7 ff ff 	lea    -0x1814(%rbp),%rax
    94a0:	48 89 85 38 fd ff ff 	mov    %rax,-0x2c8(%rbp)
    94a7:	48 8d 05 92 6b 00 00 	lea    0x6b92(%rip),%rax        # 10040 <g_70>
    94ae:	48 89 85 40 fd ff ff 	mov    %rax,-0x2c0(%rbp)
    94b5:	48 8d 05 90 6b 00 00 	lea    0x6b90(%rip),%rax        # 1004c <g_70+0xc>
    94bc:	48 89 85 48 fd ff ff 	mov    %rax,-0x2b8(%rbp)
    94c3:	48 8d 05 7e 6b 00 00 	lea    0x6b7e(%rip),%rax        # 10048 <g_70+0x8>
    94ca:	48 89 85 50 fd ff ff 	mov    %rax,-0x2b0(%rbp)
    94d1:	48 8d 85 ec e7 ff ff 	lea    -0x1814(%rbp),%rax
    94d8:	48 89 85 58 fd ff ff 	mov    %rax,-0x2a8(%rbp)
    94df:	48 8d 85 ec e7 ff ff 	lea    -0x1814(%rbp),%rax
    94e6:	48 89 85 60 fd ff ff 	mov    %rax,-0x2a0(%rbp)
    94ed:	48 8d 05 64 6b 00 00 	lea    0x6b64(%rip),%rax        # 10058 <g_70+0x18>
    94f4:	48 89 85 68 fd ff ff 	mov    %rax,-0x298(%rbp)
    94fb:	48 c7 85 70 fd ff ff 	movq   $0x0,-0x290(%rbp)
    9502:	00 00 00 00 
    9506:	48 c7 85 78 fd ff ff 	movq   $0x0,-0x288(%rbp)
    950d:	00 00 00 00 
    9511:	48 8d 05 28 6b 00 00 	lea    0x6b28(%rip),%rax        # 10040 <g_70>
    9518:	48 89 85 80 fd ff ff 	mov    %rax,-0x280(%rbp)
    951f:	48 c7 85 88 fd ff ff 	movq   $0x0,-0x278(%rbp)
    9526:	00 00 00 00 
    952a:	48 8d 05 27 6b 00 00 	lea    0x6b27(%rip),%rax        # 10058 <g_70+0x18>
    9531:	48 89 85 90 fd ff ff 	mov    %rax,-0x270(%rbp)
    9538:	48 8d 85 ec e7 ff ff 	lea    -0x1814(%rbp),%rax
    953f:	48 89 85 98 fd ff ff 	mov    %rax,-0x268(%rbp)
    9546:	48 8d 05 07 6b 00 00 	lea    0x6b07(%rip),%rax        # 10054 <g_70+0x14>
    954d:	48 89 85 a0 fd ff ff 	mov    %rax,-0x260(%rbp)
    9554:	48 8d 05 fd 6a 00 00 	lea    0x6afd(%rip),%rax        # 10058 <g_70+0x18>
    955b:	48 89 85 a8 fd ff ff 	mov    %rax,-0x258(%rbp)
    9562:	48 c7 85 b0 fd ff ff 	movq   $0x0,-0x250(%rbp)
    9569:	00 00 00 00 
    956d:	48 8d 05 e4 6a 00 00 	lea    0x6ae4(%rip),%rax        # 10058 <g_70+0x18>
    9574:	48 89 85 b8 fd ff ff 	mov    %rax,-0x248(%rbp)
    957b:	48 8d 85 ec e7 ff ff 	lea    -0x1814(%rbp),%rax
    9582:	48 89 85 c0 fd ff ff 	mov    %rax,-0x240(%rbp)
    9589:	48 8d 05 c4 6a 00 00 	lea    0x6ac4(%rip),%rax        # 10054 <g_70+0x14>
    9590:	48 89 85 c8 fd ff ff 	mov    %rax,-0x238(%rbp)
    9597:	48 8d 05 ae 6a 00 00 	lea    0x6aae(%rip),%rax        # 1004c <g_70+0xc>
    959e:	48 89 85 d0 fd ff ff 	mov    %rax,-0x230(%rbp)
    95a5:	48 8d 05 ac 6a 00 00 	lea    0x6aac(%rip),%rax        # 10058 <g_70+0x18>
    95ac:	48 89 85 d8 fd ff ff 	mov    %rax,-0x228(%rbp)
    95b3:	48 8d 05 9e 6a 00 00 	lea    0x6a9e(%rip),%rax        # 10058 <g_70+0x18>
    95ba:	48 89 85 e0 fd ff ff 	mov    %rax,-0x220(%rbp)
    95c1:	48 8d 05 90 6a 00 00 	lea    0x6a90(%rip),%rax        # 10058 <g_70+0x18>
    95c8:	48 89 85 e8 fd ff ff 	mov    %rax,-0x218(%rbp)
    95cf:	48 8d 85 ec e7 ff ff 	lea    -0x1814(%rbp),%rax
    95d6:	48 89 85 f0 fd ff ff 	mov    %rax,-0x210(%rbp)
    95dd:	48 c7 85 f8 fd ff ff 	movq   $0x0,-0x208(%rbp)
    95e4:	00 00 00 00 
    95e8:	48 8d 05 69 6a 00 00 	lea    0x6a69(%rip),%rax        # 10058 <g_70+0x18>
    95ef:	48 89 85 00 fe ff ff 	mov    %rax,-0x200(%rbp)
    95f6:	48 8d 05 43 6a 00 00 	lea    0x6a43(%rip),%rax        # 10040 <g_70>
    95fd:	48 89 85 08 fe ff ff 	mov    %rax,-0x1f8(%rbp)
    9604:	48 8d 05 4d 6a 00 00 	lea    0x6a4d(%rip),%rax        # 10058 <g_70+0x18>
    960b:	48 89 85 10 fe ff ff 	mov    %rax,-0x1f0(%rbp)
    9612:	48 8d 05 3b 6a 00 00 	lea    0x6a3b(%rip),%rax        # 10054 <g_70+0x14>
    9619:	48 89 85 18 fe ff ff 	mov    %rax,-0x1e8(%rbp)
    9620:	48 c7 85 20 fe ff ff 	movq   $0x0,-0x1e0(%rbp)
    9627:	00 00 00 00 
    962b:	48 8d 85 ec e7 ff ff 	lea    -0x1814(%rbp),%rax
    9632:	48 89 85 28 fe ff ff 	mov    %rax,-0x1d8(%rbp)
    9639:	48 8d 85 ec e7 ff ff 	lea    -0x1814(%rbp),%rax
    9640:	48 89 85 30 fe ff ff 	mov    %rax,-0x1d0(%rbp)
    9647:	48 c7 85 38 fe ff ff 	movq   $0x0,-0x1c8(%rbp)
    964e:	00 00 00 00 
    9652:	48 8d 05 fb 69 00 00 	lea    0x69fb(%rip),%rax        # 10054 <g_70+0x14>
    9659:	48 89 85 40 fe ff ff 	mov    %rax,-0x1c0(%rbp)
    9660:	48 8d 05 ed 69 00 00 	lea    0x69ed(%rip),%rax        # 10054 <g_70+0x14>
    9667:	48 89 85 48 fe ff ff 	mov    %rax,-0x1b8(%rbp)
    966e:	48 8d 85 ec e7 ff ff 	lea    -0x1814(%rbp),%rax
    9675:	48 89 85 50 fe ff ff 	mov    %rax,-0x1b0(%rbp)
    967c:	48 8d 05 d5 69 00 00 	lea    0x69d5(%rip),%rax        # 10058 <g_70+0x18>
    9683:	48 89 85 58 fe ff ff 	mov    %rax,-0x1a8(%rbp)
    968a:	48 8d 05 bf 69 00 00 	lea    0x69bf(%rip),%rax        # 10050 <g_70+0x10>
    9691:	48 89 85 60 fe ff ff 	mov    %rax,-0x1a0(%rbp)
    9698:	48 c7 85 68 fe ff ff 	movq   $0x0,-0x198(%rbp)
    969f:	00 00 00 00 
    96a3:	48 8d 05 ae 69 00 00 	lea    0x69ae(%rip),%rax        # 10058 <g_70+0x18>
    96aa:	48 89 85 70 fe ff ff 	mov    %rax,-0x190(%rbp)
    96b1:	48 8d 05 a0 69 00 00 	lea    0x69a0(%rip),%rax        # 10058 <g_70+0x18>
    96b8:	48 89 85 78 fe ff ff 	mov    %rax,-0x188(%rbp)
    96bf:	48 8d 05 92 69 00 00 	lea    0x6992(%rip),%rax        # 10058 <g_70+0x18>
    96c6:	48 89 85 80 fe ff ff 	mov    %rax,-0x180(%rbp)
    96cd:	48 8d 05 84 69 00 00 	lea    0x6984(%rip),%rax        # 10058 <g_70+0x18>
    96d4:	48 89 85 88 fe ff ff 	mov    %rax,-0x178(%rbp)
    96db:	48 8d 05 66 69 00 00 	lea    0x6966(%rip),%rax        # 10048 <g_70+0x8>
    96e2:	48 89 85 90 fe ff ff 	mov    %rax,-0x170(%rbp)
    96e9:	48 c7 85 98 fe ff ff 	movq   $0x0,-0x168(%rbp)
    96f0:	00 00 00 00 
    96f4:	48 8d 05 5d 69 00 00 	lea    0x695d(%rip),%rax        # 10058 <g_70+0x18>
    96fb:	48 89 85 a0 fe ff ff 	mov    %rax,-0x160(%rbp)
    9702:	48 8d 85 ec e7 ff ff 	lea    -0x1814(%rbp),%rax
    9709:	48 89 85 a8 fe ff ff 	mov    %rax,-0x158(%rbp)
    9710:	48 8d 05 39 69 00 00 	lea    0x6939(%rip),%rax        # 10050 <g_70+0x10>
    9717:	48 89 85 b0 fe ff ff 	mov    %rax,-0x150(%rbp)
    971e:	48 8d 05 1f 69 00 00 	lea    0x691f(%rip),%rax        # 10044 <g_70+0x4>
    9725:	48 89 85 b8 fe ff ff 	mov    %rax,-0x148(%rbp)
    972c:	48 8d 05 15 69 00 00 	lea    0x6915(%rip),%rax        # 10048 <g_70+0x8>
    9733:	48 89 85 c0 fe ff ff 	mov    %rax,-0x140(%rbp)
    973a:	48 c7 85 c8 fe ff ff 	movq   $0x0,-0x138(%rbp)
    9741:	00 00 00 00 
    9745:	48 8d 05 0c 69 00 00 	lea    0x690c(%rip),%rax        # 10058 <g_70+0x18>
    974c:	48 89 85 d0 fe ff ff 	mov    %rax,-0x130(%rbp)
    9753:	48 c7 85 d8 fe ff ff 	movq   $0x0,-0x128(%rbp)
    975a:	00 00 00 00 
    975e:	48 8d 05 f3 68 00 00 	lea    0x68f3(%rip),%rax        # 10058 <g_70+0x18>
    9765:	48 89 85 e0 fe ff ff 	mov    %rax,-0x120(%rbp)
    976c:	48 8d 05 d5 68 00 00 	lea    0x68d5(%rip),%rax        # 10048 <g_70+0x8>
    9773:	48 89 85 e8 fe ff ff 	mov    %rax,-0x118(%rbp)
    977a:	48 c7 85 f0 fe ff ff 	movq   $0x0,-0x110(%rbp)
    9781:	00 00 00 00 
    9785:	48 8d 05 cc 68 00 00 	lea    0x68cc(%rip),%rax        # 10058 <g_70+0x18>
    978c:	48 89 85 f8 fe ff ff 	mov    %rax,-0x108(%rbp)
    9793:	48 8d 05 be 68 00 00 	lea    0x68be(%rip),%rax        # 10058 <g_70+0x18>
    979a:	48 89 85 00 ff ff ff 	mov    %rax,-0x100(%rbp)
    97a1:	48 8d 05 ac 68 00 00 	lea    0x68ac(%rip),%rax        # 10054 <g_70+0x14>
    97a8:	48 89 85 08 ff ff ff 	mov    %rax,-0xf8(%rbp)
    97af:	48 c7 85 10 ff ff ff 	movq   $0x0,-0xf0(%rbp)
    97b6:	00 00 00 00 
    97ba:	48 8d 85 ec e7 ff ff 	lea    -0x1814(%rbp),%rax
    97c1:	48 89 85 18 ff ff ff 	mov    %rax,-0xe8(%rbp)
    97c8:	48 8d 05 89 68 00 00 	lea    0x6889(%rip),%rax        # 10058 <g_70+0x18>
    97cf:	48 89 85 20 ff ff ff 	mov    %rax,-0xe0(%rbp)
    97d6:	48 8d 05 7b 68 00 00 	lea    0x687b(%rip),%rax        # 10058 <g_70+0x18>
    97dd:	48 89 85 28 ff ff ff 	mov    %rax,-0xd8(%rbp)
    97e4:	48 c7 85 30 ff ff ff 	movq   $0x0,-0xd0(%rbp)
    97eb:	00 00 00 00 
    97ef:	48 8d 05 62 68 00 00 	lea    0x6862(%rip),%rax        # 10058 <g_70+0x18>
    97f6:	48 89 85 38 ff ff ff 	mov    %rax,-0xc8(%rbp)
    97fd:	48 8d 85 ec e7 ff ff 	lea    -0x1814(%rbp),%rax
    9804:	48 89 85 40 ff ff ff 	mov    %rax,-0xc0(%rbp)
    980b:	48 8d 05 46 68 00 00 	lea    0x6846(%rip),%rax        # 10058 <g_70+0x18>
    9812:	48 89 85 48 ff ff ff 	mov    %rax,-0xb8(%rbp)
    9819:	48 8d 85 ec e7 ff ff 	lea    -0x1814(%rbp),%rax
    9820:	48 89 85 50 ff ff ff 	mov    %rax,-0xb0(%rbp)
    9827:	48 8d 05 2a 68 00 00 	lea    0x682a(%rip),%rax        # 10058 <g_70+0x18>
    982e:	48 89 85 58 ff ff ff 	mov    %rax,-0xa8(%rbp)
    9835:	48 8d 85 ec e7 ff ff 	lea    -0x1814(%rbp),%rax
    983c:	48 89 85 60 ff ff ff 	mov    %rax,-0xa0(%rbp)
    9843:	48 c7 85 68 ff ff ff 	movq   $0x0,-0x98(%rbp)
    984a:	00 00 00 00 
    984e:	48 8d 05 03 68 00 00 	lea    0x6803(%rip),%rax        # 10058 <g_70+0x18>
    9855:	48 89 85 70 ff ff ff 	mov    %rax,-0x90(%rbp)
    985c:	48 8d 05 f5 67 00 00 	lea    0x67f5(%rip),%rax        # 10058 <g_70+0x18>
    9863:	48 89 85 78 ff ff ff 	mov    %rax,-0x88(%rbp)
    986a:	48 8d 05 e3 67 00 00 	lea    0x67e3(%rip),%rax        # 10054 <g_70+0x14>
    9871:	48 89 45 80          	mov    %rax,-0x80(%rbp)
    9875:	48 8d 85 ec e7 ff ff 	lea    -0x1814(%rbp),%rax
    987c:	48 89 45 88          	mov    %rax,-0x78(%rbp)
    9880:	48 c7 45 90 00 00 00 	movq   $0x0,-0x70(%rbp)
    9887:	00 
    9888:	48 8d 05 bd 67 00 00 	lea    0x67bd(%rip),%rax        # 1004c <g_70+0xc>
    988f:	48 89 45 98          	mov    %rax,-0x68(%rbp)
    9893:	48 8d 05 be 67 00 00 	lea    0x67be(%rip),%rax        # 10058 <g_70+0x18>
    989a:	48 89 45 a0          	mov    %rax,-0x60(%rbp)
    989e:	48 8d 05 b3 67 00 00 	lea    0x67b3(%rip),%rax        # 10058 <g_70+0x18>
    98a5:	48 89 45 a8          	mov    %rax,-0x58(%rbp)
    98a9:	48 8d 05 a8 67 00 00 	lea    0x67a8(%rip),%rax        # 10058 <g_70+0x18>
    98b0:	48 89 45 b0          	mov    %rax,-0x50(%rbp)
    98b4:	48 8d 05 9d 67 00 00 	lea    0x679d(%rip),%rax        # 10058 <g_70+0x18>
    98bb:	48 89 45 b8          	mov    %rax,-0x48(%rbp)
    98bf:	48 c7 45 c0 00 00 00 	movq   $0x0,-0x40(%rbp)
    98c6:	00 
    98c7:	48 8d 05 82 67 00 00 	lea    0x6782(%rip),%rax        # 10050 <g_70+0x10>
    98ce:	48 89 45 c8          	mov    %rax,-0x38(%rbp)
    98d2:	48 8d 85 ec e7 ff ff 	lea    -0x1814(%rbp),%rax
    98d9:	48 89 45 d0          	mov    %rax,-0x30(%rbp)
    98dd:	48 8d 05 6c 67 00 00 	lea    0x676c(%rip),%rax        # 10050 <g_70+0x10>
    98e4:	48 89 85 50 e8 ff ff 	mov    %rax,-0x17b0(%rbp)
    98eb:	66 c7 85 e0 e7 ff ff 	movw   $0x1,-0x1820(%rbp)
    98f2:	01 00 
    98f4:	c7 85 0c e8 ff ff da 	movl   $0x10c2f2da,-0x17f4(%rbp)
    98fb:	f2 c2 10 
    98fe:	66 c7 85 e2 e7 ff ff 	movw   $0xf3cc,-0x181e(%rbp)
    9905:	cc f3 
    9907:	8b 85 a8 e8 ff ff    	mov    -0x1758(%rbp),%eax
    990d:	25 00 00 00 80       	and    $0x80000000,%eax
    9912:	0d 71 93 00 00       	or     $0x9371,%eax
    9917:	89 85 a8 e8 ff ff    	mov    %eax,-0x1758(%rbp)
    991d:	48 b8 95 5a 5f 79 6a 	movabs $0xb963346a795f5a95,%rax
    9924:	34 63 b9 
    9927:	48 89 85 ac e8 ff ff 	mov    %rax,-0x1754(%rbp)
    992e:	66 c7 85 e4 e7 ff ff 	movw   $0xfff7,-0x181c(%rbp)
    9935:	f7 ff 
    9937:	48 8d 05 9a 81 00 00 	lea    0x819a(%rip),%rax        # 11ad8 <g_98>
    993e:	48 89 85 58 e8 ff ff 	mov    %rax,-0x17a8(%rbp)
    9945:	48 8d 85 d0 f1 ff ff 	lea    -0xe30(%rbp),%rax
    994c:	48 8d 15 cd 69 00 00 	lea    0x69cd(%rip),%rdx        # 10320 <g_1322+0x8>
    9953:	b9 e0 00 00 00       	mov    $0xe0,%ecx
    9958:	48 89 c7             	mov    %rax,%rdi
    995b:	48 89 d6             	mov    %rdx,%rsi
    995e:	f3 48 a5             	rep movsq %ds:(%rsi),%es:(%rdi)
    9961:	c7 85 10 e8 ff ff ff 	movl   $0xffffffff,-0x17f0(%rbp)
    9968:	ff ff ff 
    996b:	66 c7 85 de e7 ff ff 	movw   $0xd2a7,-0x1822(%rbp)
    9972:	a7 d2 
    9974:	48 8d 05 65 67 00 00 	lea    0x6765(%rip),%rax        # 100e0 <g_261>
    997b:	48 89 85 60 e8 ff ff 	mov    %rax,-0x17a0(%rbp)
    9982:	c7 85 14 e8 ff ff 4d 	movl   $0x8e7be64d,-0x17ec(%rbp)
    9989:	e6 7b 8e 
    998c:	48 8d 85 a0 eb ff ff 	lea    -0x1460(%rbp),%rax
    9993:	48 8d 15 26 33 00 00 	lea    0x3326(%rip),%rdx        # ccc0 <g_1259+0xc68>
    999a:	b9 3d 00 00 00       	mov    $0x3d,%ecx
    999f:	48 89 c7             	mov    %rax,%rdi
    99a2:	48 89 d6             	mov    %rdx,%rsi
    99a5:	f3 48 a5             	rep movsq %ds:(%rsi),%es:(%rdi)
    99a8:	48 89 f2             	mov    %rsi,%rdx
    99ab:	48 89 f8             	mov    %rdi,%rax
    99ae:	0f b7 0a             	movzwl (%rdx),%ecx
    99b1:	66 89 08             	mov    %cx,(%rax)
    99b4:	48 8d 40 02          	lea    0x2(%rax),%rax
    99b8:	48 8d 52 02          	lea    0x2(%rdx),%rdx
    99bc:	48 8d 85 de e7 ff ff 	lea    -0x1822(%rbp),%rax
    99c3:	48 89 85 68 e8 ff ff 	mov    %rax,-0x1798(%rbp)
    99ca:	c7 85 18 e8 ff ff 00 	movl   $0x0,-0x17e8(%rbp)
    99d1:	00 00 00 
    99d4:	48 8d 05 21 67 00 00 	lea    0x6721(%rip),%rax        # 100fc <g_381>
    99db:	48 89 85 70 e8 ff ff 	mov    %rax,-0x1790(%rbp)
    99e2:	66 c7 85 e6 e7 ff ff 	movw   $0xffff,-0x181a(%rbp)
    99e9:	ff ff 
    99eb:	c7 85 f0 e7 ff ff 00 	movl   $0x0,-0x1810(%rbp)
    99f2:	00 00 00 
    99f5:	eb 1e                	jmp    9a15 <func_54+0xd6f>
    99f7:	8b 85 f0 e7 ff ff    	mov    -0x1810(%rbp),%eax
    99fd:	48 98                	cltq   
    99ff:	48 8d 15 7e 66 00 00 	lea    0x667e(%rip),%rdx        # 10084 <g_115>
    9a06:	48 89 94 c5 30 e9 ff 	mov    %rdx,-0x16d0(%rbp,%rax,8)
    9a0d:	ff 
    9a0e:	83 85 f0 e7 ff ff 01 	addl   $0x1,-0x1810(%rbp)
    9a15:	83 bd f0 e7 ff ff 06 	cmpl   $0x6,-0x1810(%rbp)
    9a1c:	7e d9                	jle    99f7 <func_54+0xd51>
    9a1e:	c7 85 f0 e7 ff ff 00 	movl   $0x0,-0x1810(%rbp)
    9a25:	00 00 00 
    9a28:	eb 1e                	jmp    9a48 <func_54+0xda2>
    9a2a:	8b 85 f0 e7 ff ff    	mov    -0x1810(%rbp),%eax
    9a30:	48 98                	cltq   
    9a32:	48 8d 15 8f 66 00 00 	lea    0x668f(%rip),%rdx        # 100c8 <g_118+0x28>
    9a39:	48 89 94 c5 c0 e8 ff 	mov    %rdx,-0x1740(%rbp,%rax,8)
    9a40:	ff 
    9a41:	83 85 f0 e7 ff ff 01 	addl   $0x1,-0x1810(%rbp)
    9a48:	83 bd f0 e7 ff ff 02 	cmpl   $0x2,-0x1810(%rbp)
    9a4f:	7e d9                	jle    9a2a <func_54+0xd84>
    9a51:	c7 85 f0 e7 ff ff 00 	movl   $0x0,-0x1810(%rbp)
    9a58:	00 00 00 
    9a5b:	eb 1e                	jmp    9a7b <func_54+0xdd5>
    9a5d:	8b 85 f0 e7 ff ff    	mov    -0x1810(%rbp),%eax
    9a63:	48 98                	cltq   
    9a65:	48 8d 15 e4 65 00 00 	lea    0x65e4(%rip),%rdx        # 10050 <g_70+0x10>
    9a6c:	48 89 94 c5 00 e9 ff 	mov    %rdx,-0x1700(%rbp,%rax,8)
    9a73:	ff 
    9a74:	83 85 f0 e7 ff ff 01 	addl   $0x1,-0x1810(%rbp)
    9a7b:	83 bd f0 e7 ff ff 04 	cmpl   $0x4,-0x1810(%rbp)
    9a82:	7e d9                	jle    9a5d <func_54+0xdb7>
    9a84:	48 8b 85 48 e8 ff ff 	mov    -0x17b8(%rbp),%rax
    9a8b:	0f b7 d8             	movzwl %ax,%ebx
    9a8e:	48 8b 85 38 e8 ff ff 	mov    -0x17c8(%rbp),%rax
    9a95:	44 0f b6 e0          	movzbl %al,%r12d
    9a99:	48 8b 85 30 e8 ff ff 	mov    -0x17d0(%rbp),%rax
    9aa0:	c7 00 00 00 00 00    	movl   $0x0,(%rax)
    9aa6:	48 8b 05 83 6f 00 00 	mov    0x6f83(%rip),%rax        # 10a30 <g_106>
    9aad:	48 39 85 40 e8 ff ff 	cmp    %rax,-0x17c0(%rbp)
    9ab4:	48 8b 85 38 e8 ff ff 	mov    -0x17c8(%rbp),%rax
    9abb:	0f be d0             	movsbl %al,%edx
    9abe:	48 8b 85 48 e8 ff ff 	mov    -0x17b8(%rbp),%rax
    9ac5:	89 85 ec e7 ff ff    	mov    %eax,-0x1814(%rbp)
    9acb:	8b 85 ec e7 ff ff    	mov    -0x1814(%rbp),%eax
    9ad1:	0f be c0             	movsbl %al,%eax
    9ad4:	89 d6                	mov    %edx,%esi
    9ad6:	89 c7                	mov    %eax,%edi
    9ad8:	e8 8d a7 ff ff       	callq  426a <safe_div_func_int8_t_s_s>
    9add:	b8 00 00 00 00       	mov    $0x0,%eax
    9ae2:	48 8b 15 cf 65 00 00 	mov    0x65cf(%rip),%rdx        # 100b8 <g_118+0x18>
    9ae9:	48 98                	cltq   
    9aeb:	48 09 d0             	or     %rdx,%rax
    9aee:	48 89 05 c3 65 00 00 	mov    %rax,0x65c3(%rip)        # 100b8 <g_118+0x18>
    9af5:	48 8b 05 bc 65 00 00 	mov    0x65bc(%rip),%rax        # 100b8 <g_118+0x18>
    9afc:	48 83 f8 ff          	cmp    $0xffffffffffffffff,%rax
    9b00:	0f 95 c0             	setne  %al
    9b03:	0f b6 c0             	movzbl %al,%eax
    9b06:	44 89 e6             	mov    %r12d,%esi
    9b09:	89 c7                	mov    %eax,%edi
    9b0b:	e8 cb b0 ff ff       	callq  4bdb <safe_div_func_uint8_t_u_u>
    9b10:	0f b6 c0             	movzbl %al,%eax
    9b13:	48 8b 95 38 e8 ff ff 	mov    -0x17c8(%rbp),%rdx
    9b1a:	21 d0                	and    %edx,%eax
    9b1c:	0f b7 c0             	movzwl %ax,%eax
    9b1f:	89 de                	mov    %ebx,%esi
    9b21:	89 c7                	mov    %eax,%edi
    9b23:	e8 66 b2 ff ff       	callq  4d8e <safe_div_func_uint16_t_u_u>
    9b28:	66 85 c0             	test   %ax,%ax
    9b2b:	0f 84 34 05 00 00    	je     a065 <func_54+0x13bf>
    9b31:	48 c7 85 90 ed ff ff 	movq   $0x0,-0x1270(%rbp)
    9b38:	00 00 00 00 
    9b3c:	48 8d 05 e5 6e 00 00 	lea    0x6ee5(%rip),%rax        # 10a28 <g_96>
    9b43:	48 89 85 98 ed ff ff 	mov    %rax,-0x1268(%rbp)
    9b4a:	48 c7 85 a0 ed ff ff 	movq   $0x0,-0x1260(%rbp)
    9b51:	00 00 00 00 
    9b55:	48 c7 85 a8 ed ff ff 	movq   $0x0,-0x1258(%rbp)
    9b5c:	00 00 00 00 
    9b60:	48 8d 85 d0 f8 ff ff 	lea    -0x730(%rbp),%rax
    9b67:	48 05 68 05 00 00    	add    $0x568,%rax
    9b6d:	48 89 85 b0 ed ff ff 	mov    %rax,-0x1250(%rbp)
    9b74:	48 8d 05 ad 6e 00 00 	lea    0x6ead(%rip),%rax        # 10a28 <g_96>
    9b7b:	48 89 85 b8 ed ff ff 	mov    %rax,-0x1248(%rbp)
    9b82:	48 8d 85 d0 f8 ff ff 	lea    -0x730(%rbp),%rax
    9b89:	48 05 70 05 00 00    	add    $0x570,%rax
    9b8f:	48 89 85 c0 ed ff ff 	mov    %rax,-0x1240(%rbp)
    9b96:	48 8d 05 8b 6e 00 00 	lea    0x6e8b(%rip),%rax        # 10a28 <g_96>
    9b9d:	48 89 85 c8 ed ff ff 	mov    %rax,-0x1238(%rbp)
    9ba4:	48 8d 05 7d 6e 00 00 	lea    0x6e7d(%rip),%rax        # 10a28 <g_96>
    9bab:	48 89 85 d0 ed ff ff 	mov    %rax,-0x1230(%rbp)
    9bb2:	48 8d 85 d0 f8 ff ff 	lea    -0x730(%rbp),%rax
    9bb9:	48 05 70 05 00 00    	add    $0x570,%rax
    9bbf:	48 89 85 d8 ed ff ff 	mov    %rax,-0x1228(%rbp)
    9bc6:	48 c7 85 e0 ed ff ff 	movq   $0x0,-0x1220(%rbp)
    9bcd:	00 00 00 00 
    9bd1:	48 8d 05 50 6e 00 00 	lea    0x6e50(%rip),%rax        # 10a28 <g_96>
    9bd8:	48 89 85 e8 ed ff ff 	mov    %rax,-0x1218(%rbp)
    9bdf:	48 8d 85 d0 f8 ff ff 	lea    -0x730(%rbp),%rax
    9be6:	48 05 70 05 00 00    	add    $0x570,%rax
    9bec:	48 89 85 f0 ed ff ff 	mov    %rax,-0x1210(%rbp)
    9bf3:	48 c7 85 f8 ed ff ff 	movq   $0x0,-0x1208(%rbp)
    9bfa:	00 00 00 00 
    9bfe:	48 c7 85 00 ee ff ff 	movq   $0x0,-0x1200(%rbp)
    9c05:	00 00 00 00 
    9c09:	48 c7 85 08 ee ff ff 	movq   $0x0,-0x11f8(%rbp)
    9c10:	00 00 00 00 
    9c14:	48 8d 85 d0 f8 ff ff 	lea    -0x730(%rbp),%rax
    9c1b:	48 05 70 05 00 00    	add    $0x570,%rax
    9c21:	48 89 85 10 ee ff ff 	mov    %rax,-0x11f0(%rbp)
    9c28:	48 8d 05 f9 6d 00 00 	lea    0x6df9(%rip),%rax        # 10a28 <g_96>
    9c2f:	48 89 85 18 ee ff ff 	mov    %rax,-0x11e8(%rbp)
    9c36:	48 c7 85 20 ee ff ff 	movq   $0x0,-0x11e0(%rbp)
    9c3d:	00 00 00 00 
    9c41:	48 8d 85 d0 f8 ff ff 	lea    -0x730(%rbp),%rax
    9c48:	48 05 70 05 00 00    	add    $0x570,%rax
    9c4e:	48 89 85 28 ee ff ff 	mov    %rax,-0x11d8(%rbp)
    9c55:	48 8d 05 cc 6d 00 00 	lea    0x6dcc(%rip),%rax        # 10a28 <g_96>
    9c5c:	48 89 85 30 ee ff ff 	mov    %rax,-0x11d0(%rbp)
    9c63:	48 8d 05 be 6d 00 00 	lea    0x6dbe(%rip),%rax        # 10a28 <g_96>
    9c6a:	48 89 85 38 ee ff ff 	mov    %rax,-0x11c8(%rbp)
    9c71:	48 8d 85 d0 f8 ff ff 	lea    -0x730(%rbp),%rax
    9c78:	48 05 70 05 00 00    	add    $0x570,%rax
    9c7e:	48 89 85 40 ee ff ff 	mov    %rax,-0x11c0(%rbp)
    9c85:	48 8d 05 9c 6d 00 00 	lea    0x6d9c(%rip),%rax        # 10a28 <g_96>
    9c8c:	48 89 85 48 ee ff ff 	mov    %rax,-0x11b8(%rbp)
    9c93:	48 8d 85 d0 f8 ff ff 	lea    -0x730(%rbp),%rax
    9c9a:	48 05 68 05 00 00    	add    $0x568,%rax
    9ca0:	48 89 85 50 ee ff ff 	mov    %rax,-0x11b0(%rbp)
    9ca7:	48 c7 85 58 ee ff ff 	movq   $0x0,-0x11a8(%rbp)
    9cae:	00 00 00 00 
    9cb2:	48 c7 85 60 ee ff ff 	movq   $0x0,-0x11a0(%rbp)
    9cb9:	00 00 00 00 
    9cbd:	48 8d 05 64 6d 00 00 	lea    0x6d64(%rip),%rax        # 10a28 <g_96>
    9cc4:	48 89 85 68 ee ff ff 	mov    %rax,-0x1198(%rbp)
    9ccb:	48 c7 85 70 ee ff ff 	movq   $0x0,-0x1190(%rbp)
    9cd2:	00 00 00 00 
    9cd6:	48 c7 85 78 ee ff ff 	movq   $0x0,-0x1188(%rbp)
    9cdd:	00 00 00 00 
    9ce1:	48 c7 85 80 ee ff ff 	movq   $0x0,-0x1180(%rbp)
    9ce8:	00 00 00 00 
    9cec:	48 8d 05 35 6d 00 00 	lea    0x6d35(%rip),%rax        # 10a28 <g_96>
    9cf3:	48 89 85 88 ee ff ff 	mov    %rax,-0x1178(%rbp)
    9cfa:	48 c7 85 90 ee ff ff 	movq   $0x0,-0x1170(%rbp)
    9d01:	00 00 00 00 
    9d05:	48 c7 85 98 ee ff ff 	movq   $0x0,-0x1168(%rbp)
    9d0c:	00 00 00 00 
    9d10:	48 8d 85 d0 f8 ff ff 	lea    -0x730(%rbp),%rax
    9d17:	48 05 68 05 00 00    	add    $0x568,%rax
    9d1d:	48 89 85 a0 ee ff ff 	mov    %rax,-0x1160(%rbp)
    9d24:	48 8d 05 fd 6c 00 00 	lea    0x6cfd(%rip),%rax        # 10a28 <g_96>
    9d2b:	48 89 85 a8 ee ff ff 	mov    %rax,-0x1158(%rbp)
    9d32:	48 8d 85 d0 f8 ff ff 	lea    -0x730(%rbp),%rax
    9d39:	48 05 70 05 00 00    	add    $0x570,%rax
    9d3f:	48 89 85 b0 ee ff ff 	mov    %rax,-0x1150(%rbp)
    9d46:	48 8d 05 db 6c 00 00 	lea    0x6cdb(%rip),%rax        # 10a28 <g_96>
    9d4d:	48 89 85 b8 ee ff ff 	mov    %rax,-0x1148(%rbp)
    9d54:	48 8d 05 cd 6c 00 00 	lea    0x6ccd(%rip),%rax        # 10a28 <g_96>
    9d5b:	48 89 85 c0 ee ff ff 	mov    %rax,-0x1140(%rbp)
    9d62:	48 8d 85 d0 f8 ff ff 	lea    -0x730(%rbp),%rax
    9d69:	48 05 70 05 00 00    	add    $0x570,%rax
    9d6f:	48 89 85 c8 ee ff ff 	mov    %rax,-0x1138(%rbp)
    9d76:	48 c7 85 d0 ee ff ff 	movq   $0x0,-0x1130(%rbp)
    9d7d:	00 00 00 00 
    9d81:	48 8d 05 a0 6c 00 00 	lea    0x6ca0(%rip),%rax        # 10a28 <g_96>
    9d88:	48 89 85 d8 ee ff ff 	mov    %rax,-0x1128(%rbp)
    9d8f:	48 8d 85 d0 f8 ff ff 	lea    -0x730(%rbp),%rax
    9d96:	48 05 70 05 00 00    	add    $0x570,%rax
    9d9c:	48 89 85 e0 ee ff ff 	mov    %rax,-0x1120(%rbp)
    9da3:	48 c7 85 e8 ee ff ff 	movq   $0x0,-0x1118(%rbp)
    9daa:	00 00 00 00 
    9dae:	48 c7 85 f0 ee ff ff 	movq   $0x0,-0x1110(%rbp)
    9db5:	00 00 00 00 
    9db9:	48 c7 85 f8 ee ff ff 	movq   $0x0,-0x1108(%rbp)
    9dc0:	00 00 00 00 
    9dc4:	48 8d 85 d0 f8 ff ff 	lea    -0x730(%rbp),%rax
    9dcb:	48 05 70 05 00 00    	add    $0x570,%rax
    9dd1:	48 89 85 00 ef ff ff 	mov    %rax,-0x1100(%rbp)
    9dd8:	48 8d 05 49 6c 00 00 	lea    0x6c49(%rip),%rax        # 10a28 <g_96>
    9ddf:	48 89 85 08 ef ff ff 	mov    %rax,-0x10f8(%rbp)
    9de6:	48 c7 85 10 ef ff ff 	movq   $0x0,-0x10f0(%rbp)
    9ded:	00 00 00 00 
    9df1:	48 8d 85 d0 f8 ff ff 	lea    -0x730(%rbp),%rax
    9df8:	48 05 70 05 00 00    	add    $0x570,%rax
    9dfe:	48 89 85 18 ef ff ff 	mov    %rax,-0x10e8(%rbp)
    9e05:	48 8d 05 1c 6c 00 00 	lea    0x6c1c(%rip),%rax        # 10a28 <g_96>
    9e0c:	48 89 85 20 ef ff ff 	mov    %rax,-0x10e0(%rbp)
    9e13:	48 8d 05 0e 6c 00 00 	lea    0x6c0e(%rip),%rax        # 10a28 <g_96>
    9e1a:	48 89 85 28 ef ff ff 	mov    %rax,-0x10d8(%rbp)
    9e21:	48 8d 85 d0 f8 ff ff 	lea    -0x730(%rbp),%rax
    9e28:	48 05 70 05 00 00    	add    $0x570,%rax
    9e2e:	48 89 85 30 ef ff ff 	mov    %rax,-0x10d0(%rbp)
    9e35:	48 8d 05 ec 6b 00 00 	lea    0x6bec(%rip),%rax        # 10a28 <g_96>
    9e3c:	48 89 85 38 ef ff ff 	mov    %rax,-0x10c8(%rbp)
    9e43:	48 8d 85 d0 f8 ff ff 	lea    -0x730(%rbp),%rax
    9e4a:	48 05 68 05 00 00    	add    $0x568,%rax
    9e50:	48 89 85 40 ef ff ff 	mov    %rax,-0x10c0(%rbp)
    9e57:	48 c7 85 48 ef ff ff 	movq   $0x0,-0x10b8(%rbp)
    9e5e:	00 00 00 00 
    9e62:	48 c7 85 50 ef ff ff 	movq   $0x0,-0x10b0(%rbp)
    9e69:	00 00 00 00 
    9e6d:	48 8d 05 b4 6b 00 00 	lea    0x6bb4(%rip),%rax        # 10a28 <g_96>
    9e74:	48 89 85 58 ef ff ff 	mov    %rax,-0x10a8(%rbp)
    9e7b:	48 c7 85 60 ef ff ff 	movq   $0x0,-0x10a0(%rbp)
    9e82:	00 00 00 00 
    9e86:	48 c7 85 68 ef ff ff 	movq   $0x0,-0x1098(%rbp)
    9e8d:	00 00 00 00 
    9e91:	48 c7 85 70 ef ff ff 	movq   $0x0,-0x1090(%rbp)
    9e98:	00 00 00 00 
    9e9c:	48 8d 05 85 6b 00 00 	lea    0x6b85(%rip),%rax        # 10a28 <g_96>
    9ea3:	48 89 85 78 ef ff ff 	mov    %rax,-0x1088(%rbp)
    9eaa:	48 c7 85 80 ef ff ff 	movq   $0x0,-0x1080(%rbp)
    9eb1:	00 00 00 00 
    9eb5:	c7 85 24 e8 ff ff c0 	movl   $0x67e8bec0,-0x17dc(%rbp)
    9ebc:	be e8 67 
    9ebf:	c7 85 f4 e7 ff ff 00 	movl   $0x0,-0x180c(%rbp)
    9ec6:	00 00 00 
    9ec9:	eb 72                	jmp    9f3d <func_54+0x1297>
    9ecb:	c7 85 f8 e7 ff ff 00 	movl   $0x0,-0x1808(%rbp)
    9ed2:	00 00 00 
    9ed5:	eb 56                	jmp    9f2d <func_54+0x1287>
    9ed7:	c7 85 fc e7 ff ff 00 	movl   $0x0,-0x1804(%rbp)
    9ede:	00 00 00 
    9ee1:	eb 3a                	jmp    9f1d <func_54+0x1277>
    9ee3:	8b 85 fc e7 ff ff    	mov    -0x1804(%rbp),%eax
    9ee9:	48 98                	cltq   
    9eeb:	8b 95 f4 e7 ff ff    	mov    -0x180c(%rbp),%edx
    9ef1:	48 63 ca             	movslq %edx,%rcx
    9ef4:	8b 95 f8 e7 ff ff    	mov    -0x1808(%rbp),%edx
    9efa:	48 63 d2             	movslq %edx,%rdx
    9efd:	48 01 c9             	add    %rcx,%rcx
    9f00:	48 01 ca             	add    %rcx,%rdx
    9f03:	48 c1 e2 02          	shl    $0x2,%rdx
    9f07:	48 01 d0             	add    %rdx,%rax
    9f0a:	48 c7 84 c5 90 ef ff 	movq   $0x7,-0x1070(%rbp,%rax,8)
    9f11:	ff 07 00 00 00 
    9f16:	83 85 fc e7 ff ff 01 	addl   $0x1,-0x1804(%rbp)
    9f1d:	83 bd fc e7 ff ff 03 	cmpl   $0x3,-0x1804(%rbp)
    9f24:	7e bd                	jle    9ee3 <func_54+0x123d>
    9f26:	83 85 f8 e7 ff ff 01 	addl   $0x1,-0x1808(%rbp)
    9f2d:	83 bd f8 e7 ff ff 01 	cmpl   $0x1,-0x1808(%rbp)
    9f34:	7e a1                	jle    9ed7 <func_54+0x1231>
    9f36:	83 85 f4 e7 ff ff 01 	addl   $0x1,-0x180c(%rbp)
    9f3d:	83 bd f4 e7 ff ff 08 	cmpl   $0x8,-0x180c(%rbp)
    9f44:	7e 85                	jle    9ecb <func_54+0x1225>
    9f46:	48 8b 85 40 fe ff ff 	mov    -0x1c0(%rbp),%rax
    9f4d:	48 89 05 d4 6a 00 00 	mov    %rax,0x6ad4(%rip)        # 10a28 <g_96>
    9f54:	c6 05 29 61 00 00 00 	movb   $0x0,0x6129(%rip)        # 10084 <g_115>
    9f5b:	e9 f1 00 00 00       	jmpq   a051 <func_54+0x13ab>
    9f60:	66 c7 85 e8 e7 ff ff 	movw   $0xffff,-0x1818(%rbp)
    9f67:	ff ff 
    9f69:	c7 85 28 e8 ff ff 01 	movl   $0x1,-0x17d8(%rbp)
    9f70:	00 00 00 
    9f73:	c7 85 2c e8 ff ff 03 	movl   $0x3,-0x17d4(%rbp)
    9f7a:	00 00 00 
    9f7d:	66 c7 85 ea e7 ff ff 	movw   $0xd6bd,-0x1816(%rbp)
    9f84:	bd d6 
    9f86:	48 8d 85 30 e9 ff ff 	lea    -0x16d0(%rbp),%rax
    9f8d:	48 83 c0 20          	add    $0x20,%rax
    9f91:	48 89 85 98 e8 ff ff 	mov    %rax,-0x1768(%rbp)
    9f98:	8b 85 b4 e8 ff ff    	mov    -0x174c(%rbp),%eax
    9f9e:	25 00 00 00 80       	and    $0x80000000,%eax
    9fa3:	0d 07 99 00 00       	or     $0x9907,%eax
    9fa8:	89 85 b4 e8 ff ff    	mov    %eax,-0x174c(%rbp)
    9fae:	48 c7 85 b8 e8 ff ff 	movq   $0xffffffffffffffff,-0x1748(%rbp)
    9fb5:	ff ff ff ff 
    9fb9:	48 8d 85 c0 e9 ff ff 	lea    -0x1640(%rbp),%rax
    9fc0:	48 8d 15 f9 2e 00 00 	lea    0x2ef9(%rip),%rdx        # cec0 <g_1259+0xe68>
    9fc7:	b9 3c 00 00 00       	mov    $0x3c,%ecx
    9fcc:	48 89 c7             	mov    %rax,%rdi
    9fcf:	48 89 d6             	mov    %rdx,%rsi
    9fd2:	f3 48 a5             	rep movsq %ds:(%rsi),%es:(%rdi)
    9fd5:	48 8d 85 ec e7 ff ff 	lea    -0x1814(%rbp),%rax
    9fdc:	48 89 85 a0 e8 ff ff 	mov    %rax,-0x1760(%rbp)
    9fe3:	48 b8 af be fa 57 80 	movabs $0x7d51ea8057fabeaf,%rax
    9fea:	ea 51 7d 
    9fed:	48 89 85 e0 e8 ff ff 	mov    %rax,-0x1720(%rbp)
    9ff4:	48 c7 85 e8 e8 ff ff 	movq   $0xfffffffffffffffe,-0x1718(%rbp)
    9ffb:	fe ff ff ff 
    9fff:	48 89 85 f0 e8 ff ff 	mov    %rax,-0x1710(%rbp)
    a006:	48 c7 85 f8 e8 ff ff 	movq   $0xfffffffffffffffe,-0x1708(%rbp)
    a00d:	fe ff ff ff 
    a011:	c7 85 00 e8 ff ff 00 	movl   $0x0,-0x1800(%rbp)
    a018:	00 00 00 
    a01b:	eb 1b                	jmp    a038 <func_54+0x1392>
    a01d:	8b 85 00 e8 ff ff    	mov    -0x1800(%rbp),%eax
    a023:	48 98                	cltq   
    a025:	48 c7 84 c5 70 e9 ff 	movq   $0x0,-0x1690(%rbp,%rax,8)
    a02c:	ff 00 00 00 00 
    a031:	83 85 00 e8 ff ff 01 	addl   $0x1,-0x1800(%rbp)
    a038:	83 bd 00 e8 ff ff 09 	cmpl   $0x9,-0x1800(%rbp)
    a03f:	7e dc                	jle    a01d <func_54+0x1377>
    a041:	0f b6 05 3c 60 00 00 	movzbl 0x603c(%rip),%eax        # 10084 <g_115>
    a048:	83 e8 01             	sub    $0x1,%eax
    a04b:	88 05 33 60 00 00    	mov    %al,0x6033(%rip)        # 10084 <g_115>
    a051:	0f b6 05 2c 60 00 00 	movzbl 0x602c(%rip),%eax        # 10084 <g_115>
    a058:	3c fd                	cmp    $0xfd,%al
    a05a:	0f 85 00 ff ff ff    	jne    9f60 <func_54+0x12ba>
    a060:	e9 36 05 00 00       	jmpq   a59b <func_54+0x18f5>
    a065:	48 8d 05 6a 60 00 00 	lea    0x606a(%rip),%rax        # 100d6 <g_211>
    a06c:	48 89 85 78 e8 ff ff 	mov    %rax,-0x1788(%rbp)
    a073:	c7 85 90 ef ff ff 07 	movl   $0x7,-0x1070(%rbp)
    a07a:	00 00 00 
    a07d:	c7 85 94 ef ff ff f9 	movl   $0xfffffff9,-0x106c(%rbp)
    a084:	ff ff ff 
    a087:	c7 85 98 ef ff ff d2 	movl   $0xb89e95d2,-0x1068(%rbp)
    a08e:	95 9e b8 
    a091:	c7 85 9c ef ff ff f9 	movl   $0xfffffff9,-0x1064(%rbp)
    a098:	ff ff ff 
    a09b:	c7 85 a0 ef ff ff 07 	movl   $0x7,-0x1060(%rbp)
    a0a2:	00 00 00 
    a0a5:	c7 85 a4 ef ff ff b2 	movl   $0xf54a64b2,-0x105c(%rbp)
    a0ac:	64 4a f5 
    a0af:	c7 85 a8 ef ff ff 8c 	movl   $0x9457048c,-0x1058(%rbp)
    a0b6:	04 57 94 
    a0b9:	c7 85 ac ef ff ff 83 	movl   $0xb6f0bd83,-0x1054(%rbp)
    a0c0:	bd f0 b6 
    a0c3:	c7 85 b0 ef ff ff 03 	movl   $0x3,-0x1050(%rbp)
    a0ca:	00 00 00 
    a0cd:	c7 85 b4 ef ff ff 83 	movl   $0xb6f0bd83,-0x104c(%rbp)
    a0d4:	bd f0 b6 
    a0d7:	c7 85 b8 ef ff ff 00 	movl   $0x0,-0x1048(%rbp)
    a0de:	00 00 00 
    a0e1:	c7 85 bc ef ff ff 39 	movl   $0x43f16f39,-0x1044(%rbp)
    a0e8:	6f f1 43 
    a0eb:	c7 85 c0 ef ff ff d2 	movl   $0xb89e95d2,-0x1040(%rbp)
    a0f2:	95 9e b8 
    a0f5:	c7 85 c4 ef ff ff 01 	movl   $0x1,-0x103c(%rbp)
    a0fc:	00 00 00 
    a0ff:	c7 85 c8 ef ff ff ff 	movl   $0xffffffff,-0x1038(%rbp)
    a106:	ff ff ff 
    a109:	c7 85 cc ef ff ff 8c 	movl   $0x9457048c,-0x1034(%rbp)
    a110:	04 57 94 
    a113:	c7 85 d0 ef ff ff b2 	movl   $0xf54a64b2,-0x1030(%rbp)
    a11a:	64 4a f5 
    a11d:	c7 85 d4 ef ff ff b2 	movl   $0xf54a64b2,-0x102c(%rbp)
    a124:	64 4a f5 
    a127:	c7 85 d8 ef ff ff 8c 	movl   $0x9457048c,-0x1028(%rbp)
    a12e:	04 57 94 
    a131:	c7 85 dc ef ff ff 83 	movl   $0xb6f0bd83,-0x1024(%rbp)
    a138:	bd f0 b6 
    a13b:	c7 85 e0 ef ff ff d3 	movl   $0x7cbe34d3,-0x1020(%rbp)
    a142:	34 be 7c 
    a145:	c7 85 e4 ef ff ff 01 	movl   $0x1,-0x101c(%rbp)
    a14c:	00 00 00 
    a14f:	c7 85 e8 ef ff ff 01 	movl   $0x1,-0x1018(%rbp)
    a156:	00 00 00 
    a159:	c7 85 ec ef ff ff fc 	movl   $0xfffffffc,-0x1014(%rbp)
    a160:	ff ff ff 
    a163:	c7 85 f0 ef ff ff 07 	movl   $0x7,-0x1010(%rbp)
    a16a:	00 00 00 
    a16d:	c7 85 f4 ef ff ff 83 	movl   $0xb6f0bd83,-0x100c(%rbp)
    a174:	bd f0 b6 
    a177:	c7 85 f8 ef ff ff b2 	movl   $0xf54a64b2,-0x1008(%rbp)
    a17e:	64 4a f5 
    a181:	c7 85 fc ef ff ff 04 	movl   $0x4,-0x1004(%rbp)
    a188:	00 00 00 
    a18b:	c7 85 00 f0 ff ff 09 	movl   $0x9,-0x1000(%rbp)
    a192:	00 00 00 
    a195:	c7 85 04 f0 ff ff 09 	movl   $0x9,-0xffc(%rbp)
    a19c:	00 00 00 
    a19f:	c7 85 08 f0 ff ff 04 	movl   $0x4,-0xff8(%rbp)
    a1a6:	00 00 00 
    a1a9:	c7 85 0c f0 ff ff 39 	movl   $0x43f16f39,-0xff4(%rbp)
    a1b0:	6f f1 43 
    a1b3:	c7 85 10 f0 ff ff 04 	movl   $0x4,-0xff0(%rbp)
    a1ba:	00 00 00 
    a1bd:	c7 85 14 f0 ff ff fc 	movl   $0xfffffffc,-0xfec(%rbp)
    a1c4:	ff ff ff 
    a1c7:	c7 85 18 f0 ff ff d2 	movl   $0xb89e95d2,-0xfe8(%rbp)
    a1ce:	95 9e b8 
    a1d1:	c7 85 1c f0 ff ff 03 	movl   $0x3,-0xfe4(%rbp)
    a1d8:	00 00 00 
    a1db:	c7 85 20 f0 ff ff 8c 	movl   $0x9457048c,-0xfe0(%rbp)
    a1e2:	04 57 94 
    a1e5:	c7 85 24 f0 ff ff 09 	movl   $0x9,-0xfdc(%rbp)
    a1ec:	00 00 00 
    a1ef:	c7 85 28 f0 ff ff 8c 	movl   $0x9457048c,-0xfd8(%rbp)
    a1f6:	04 57 94 
    a1f9:	c7 85 2c f0 ff ff 03 	movl   $0x3,-0xfd4(%rbp)
    a200:	00 00 00 
    a203:	c7 85 30 f0 ff ff 04 	movl   $0x4,-0xfd0(%rbp)
    a20a:	00 00 00 
    a20d:	c7 85 34 f0 ff ff f9 	movl   $0xfffffff9,-0xfcc(%rbp)
    a214:	ff ff ff 
    a217:	c7 85 38 f0 ff ff 00 	movl   $0x0,-0xfc8(%rbp)
    a21e:	00 00 00 
    a221:	c7 85 3c f0 ff ff 01 	movl   $0x1,-0xfc4(%rbp)
    a228:	00 00 00 
    a22b:	c7 85 40 f0 ff ff 00 	movl   $0x0,-0xfc0(%rbp)
    a232:	00 00 00 
    a235:	c7 85 44 f0 ff ff 83 	movl   $0xb6f0bd83,-0xfbc(%rbp)
    a23c:	bd f0 b6 
    a23f:	c7 85 48 f0 ff ff 83 	movl   $0xb6f0bd83,-0xfb8(%rbp)
    a246:	bd f0 b6 
    a249:	c7 85 4c f0 ff ff 09 	movl   $0x9,-0xfb4(%rbp)
    a250:	00 00 00 
    a253:	c7 85 50 f0 ff ff 03 	movl   $0x3,-0xfb0(%rbp)
    a25a:	00 00 00 
    a25d:	c7 85 54 f0 ff ff f9 	movl   $0xfffffff9,-0xfac(%rbp)
    a264:	ff ff ff 
    a267:	c7 85 58 f0 ff ff d3 	movl   $0x7cbe34d3,-0xfa8(%rbp)
    a26e:	34 be 7c 
    a271:	c7 85 5c f0 ff ff 05 	movl   $0x5,-0xfa4(%rbp)
    a278:	00 00 00 
    a27b:	c7 85 60 f0 ff ff 04 	movl   $0x4,-0xfa0(%rbp)
    a282:	00 00 00 
    a285:	c7 85 64 f0 ff ff f9 	movl   $0xfffffff9,-0xf9c(%rbp)
    a28c:	ff ff ff 
    a28f:	c7 85 68 f0 ff ff 00 	movl   $0x0,-0xf98(%rbp)
    a296:	00 00 00 
    a299:	c7 85 6c f0 ff ff 8c 	movl   $0x9457048c,-0xf94(%rbp)
    a2a0:	04 57 94 
    a2a3:	c7 85 70 f0 ff ff 03 	movl   $0x3,-0xf90(%rbp)
    a2aa:	00 00 00 
    a2ad:	c7 85 74 f0 ff ff 04 	movl   $0x4,-0xf8c(%rbp)
    a2b4:	00 00 00 
    a2b7:	c7 85 78 f0 ff ff 04 	movl   $0x4,-0xf88(%rbp)
    a2be:	00 00 00 
    a2c1:	c7 85 7c f0 ff ff 03 	movl   $0x3,-0xf84(%rbp)
    a2c8:	00 00 00 
    a2cb:	c7 85 04 e8 ff ff 00 	movl   $0x0,-0x17fc(%rbp)
    a2d2:	00 00 00 
    a2d5:	eb 1a                	jmp    a2f1 <func_54+0x164b>
    a2d7:	8b 85 04 e8 ff ff    	mov    -0x17fc(%rbp),%eax
    a2dd:	48 98                	cltq   
    a2df:	c7 84 85 90 ed ff ff 	movl   $0xffffffff,-0x1270(%rbp,%rax,4)
    a2e6:	ff ff ff ff 
    a2ea:	83 85 04 e8 ff ff 01 	addl   $0x1,-0x17fc(%rbp)
    a2f1:	83 bd 04 e8 ff ff 04 	cmpl   $0x4,-0x17fc(%rbp)
    a2f8:	7e dd                	jle    a2d7 <func_54+0x1631>
    a2fa:	48 8b 85 b8 e7 ff ff 	mov    -0x1848(%rbp),%rax
    a301:	0f b6 00             	movzbl (%rax),%eax
    a304:	0f be d0             	movsbl %al,%edx
    a307:	0f b7 05 ca 5d 00 00 	movzwl 0x5dca(%rip),%eax        # 100d8 <g_213>
    a30e:	89 c1                	mov    %eax,%ecx
    a310:	48 8b 85 78 e8 ff ff 	mov    -0x1788(%rbp),%rax
    a317:	88 08                	mov    %cl,(%rax)
    a319:	48 8b 85 78 e8 ff ff 	mov    -0x1788(%rbp),%rax
    a320:	0f b6 00             	movzbl (%rax),%eax
    a323:	0f b6 c0             	movzbl %al,%eax
    a326:	21 d0                	and    %edx,%eax
    a328:	83 f8 06             	cmp    $0x6,%eax
    a32b:	0f 84 13 02 00 00    	je     a544 <func_54+0x189e>
    a331:	c7 85 1c e8 ff ff fb 	movl   $0xfffffffb,-0x17e4(%rbp)
    a338:	ff ff ff 
    a33b:	c7 85 20 e8 ff ff fe 	movl   $0xfffffffe,-0x17e0(%rbp)
    a342:	ff ff ff 
    a345:	48 8d 85 30 e8 ff ff 	lea    -0x17d0(%rbp),%rax
    a34c:	48 89 85 88 e8 ff ff 	mov    %rax,-0x1778(%rbp)
    a353:	48 8d 05 78 5d 00 00 	lea    0x5d78(%rip),%rax        # 100d2 <g_165>
    a35a:	48 89 85 90 e8 ff ff 	mov    %rax,-0x1770(%rbp)
    a361:	c7 85 08 e8 ff ff 00 	movl   $0x0,-0x17f8(%rbp)
    a368:	00 00 00 
    a36b:	eb 1a                	jmp    a387 <func_54+0x16e1>
    a36d:	8b 85 08 e8 ff ff    	mov    -0x17f8(%rbp),%eax
    a373:	48 98                	cltq   
    a375:	c7 84 85 c0 e9 ff ff 	movl   $0x659d250d,-0x1640(%rbp,%rax,4)
    a37c:	0d 25 9d 65 
    a380:	83 85 08 e8 ff ff 01 	addl   $0x1,-0x17f8(%rbp)
    a387:	83 bd 08 e8 ff ff 02 	cmpl   $0x2,-0x17f8(%rbp)
    a38e:	7e dd                	jle    a36d <func_54+0x16c7>
    a390:	48 c7 85 38 e8 ff ff 	movq   $0x0,-0x17c8(%rbp)
    a397:	00 00 00 00 
    a39b:	48 83 bd 38 e8 ff ff 	cmpq   $0x38,-0x17c8(%rbp)
    a3a2:	38 
    a3a3:	75 1f                	jne    a3c4 <func_54+0x171e>
    a3a5:	48 8b 85 c8 e7 ff ff 	mov    -0x1838(%rbp),%rax
    a3ac:	48 8b 95 a8 e8 ff ff 	mov    -0x1758(%rbp),%rdx
    a3b3:	48 89 10             	mov    %rdx,(%rax)
    a3b6:	8b 95 b0 e8 ff ff    	mov    -0x1750(%rbp),%edx
    a3bc:	89 50 08             	mov    %edx,0x8(%rax)
    a3bf:	e9 fa 02 00 00       	jmpq   a6be <func_54+0x1a18>
    a3c4:	0f b7 85 7e ed ff ff 	movzwl -0x1282(%rbp),%eax
    a3cb:	0f b7 d8             	movzwl %ax,%ebx
    a3ce:	48 8b 05 8b 66 00 00 	mov    0x668b(%rip),%rax        # 10a60 <g_272>
    a3d5:	8b 85 58 f0 ff ff    	mov    -0xfa8(%rbp),%eax
    a3db:	44 0f bf e0          	movswl %ax,%r12d
    a3df:	8b 05 4b 5c 00 00    	mov    0x5c4b(%rip),%eax        # 10030 <g_62>
    a3e5:	25 ff ff ff 7f       	and    $0x7fffffff,%eax
    a3ea:	44 0f b7 e8          	movzwl %ax,%r13d
    a3ee:	48 8b 85 c0 e7 ff ff 	mov    -0x1840(%rbp),%rax
    a3f5:	48 3b 85 a8 e7 ff ff 	cmp    -0x1858(%rbp),%rax
    a3fc:	0f 95 c0             	setne  %al
    a3ff:	0f b6 c0             	movzbl %al,%eax
    a402:	be 02 00 00 00       	mov    $0x2,%esi
    a407:	89 c7                	mov    %eax,%edi
    a409:	e8 b0 a8 ff ff       	callq  4cbe <safe_rshift_func_uint8_t_u_u>
    a40e:	48 8b 85 b8 e7 ff ff 	mov    -0x1848(%rbp),%rax
    a415:	0f b6 00             	movzbl (%rax),%eax
    a418:	0f be c0             	movsbl %al,%eax
    a41b:	39 85 14 e8 ff ff    	cmp    %eax,-0x17ec(%rbp)
    a421:	0f 95 c0             	setne  %al
    a424:	0f b6 c0             	movzbl %al,%eax
    a427:	44 89 ee             	mov    %r13d,%esi
    a42a:	89 c7                	mov    %eax,%edi
    a42c:	e8 2b a9 ff ff       	callq  4d5c <safe_mod_func_uint16_t_u_u>
    a431:	98                   	cwtl   
    a432:	44 89 e6             	mov    %r12d,%esi
    a435:	89 c7                	mov    %eax,%edi
    a437:	e8 97 9f ff ff       	callq  43d3 <safe_sub_func_int16_t_s_s>
    a43c:	f7 d0                	not    %eax
    a43e:	0f b7 d0             	movzwl %ax,%edx
    a441:	8b 85 d4 ef ff ff    	mov    -0x102c(%rbp),%eax
    a447:	0f b7 c0             	movzwl %ax,%eax
    a44a:	89 d6                	mov    %edx,%esi
    a44c:	89 c7                	mov    %eax,%edi
    a44e:	e8 ea a8 ff ff       	callq  4d3d <safe_mul_func_uint16_t_u_u>
    a453:	44 0f b7 e0          	movzwl %ax,%r12d
    a457:	48 8b 85 50 e8 ff ff 	mov    -0x17b0(%rbp),%rax
    a45e:	c7 00 89 c7 e6 e0    	movl   $0xe0e6c789,(%rax)
    a464:	48 8b 85 88 e8 ff ff 	mov    -0x1778(%rbp),%rax
    a46b:	48 8d 15 0a 5c 00 00 	lea    0x5c0a(%rip),%rdx        # 1007c <g_109+0xc>
    a472:	48 89 10             	mov    %rdx,(%rax)
    a475:	48 8b 85 88 e8 ff ff 	mov    -0x1778(%rbp),%rax
    a47c:	48 8b 00             	mov    (%rax),%rax
    a47f:	48 39 85 60 e8 ff ff 	cmp    %rax,-0x17a0(%rbp)
    a486:	74 07                	je     a48f <func_54+0x17e9>
    a488:	b8 01 00 00 00       	mov    $0x1,%eax
    a48d:	eb 05                	jmp    a494 <func_54+0x17ee>
    a48f:	b8 00 00 00 00       	mov    $0x0,%eax
    a494:	66 89 05 3d 5c 00 00 	mov    %ax,0x5c3d(%rip)        # 100d8 <g_213>
    a49b:	0f b7 15 36 5c 00 00 	movzwl 0x5c36(%rip),%edx        # 100d8 <g_213>
    a4a2:	48 8b 85 90 e8 ff ff 	mov    -0x1770(%rbp),%rax
    a4a9:	0f b7 00             	movzwl (%rax),%eax
    a4ac:	09 c2                	or     %eax,%edx
    a4ae:	48 8b 85 90 e8 ff ff 	mov    -0x1770(%rbp),%rax
    a4b5:	66 89 10             	mov    %dx,(%rax)
    a4b8:	48 8b 85 90 e8 ff ff 	mov    -0x1770(%rbp),%rax
    a4bf:	0f b7 00             	movzwl (%rax),%eax
    a4c2:	98                   	cwtl   
    a4c3:	89 c6                	mov    %eax,%esi
    a4c5:	bf 42 26 00 00       	mov    $0x2642,%edi
    a4ca:	e8 79 a9 ff ff       	callq  4e48 <safe_rshift_func_uint16_t_u_s>
    a4cf:	0f b7 c0             	movzwl %ax,%eax
    a4d2:	4c 89 e6             	mov    %r12,%rsi
    a4d5:	48 89 c7             	mov    %rax,%rdi
    a4d8:	e8 51 ab ff ff       	callq  502e <safe_add_func_uint64_t_u_u>
    a4dd:	48 83 f8 fb          	cmp    $0xfffffffffffffffb,%rax
    a4e1:	0f 96 c0             	setbe  %al
    a4e4:	44 0f b6 e0          	movzbl %al,%r12d
    a4e8:	8b 95 20 e8 ff ff    	mov    -0x17e0(%rbp),%edx
    a4ee:	8b 85 1c e8 ff ff    	mov    -0x17e4(%rbp),%eax
    a4f4:	89 85 98 ed ff ff    	mov    %eax,-0x1268(%rbp)
    a4fa:	8b 85 98 ed ff ff    	mov    -0x1268(%rbp),%eax
    a500:	48 98                	cltq   
    a502:	48 89 d6             	mov    %rdx,%rsi
    a505:	48 89 c7             	mov    %rax,%rdi
    a508:	e8 34 a3 ff ff       	callq  4841 <safe_add_func_int64_t_s_s>
    a50d:	0f b7 c0             	movzwl %ax,%eax
    a510:	44 89 e6             	mov    %r12d,%esi
    a513:	89 c7                	mov    %eax,%edi
    a515:	e8 23 a8 ff ff       	callq  4d3d <safe_mul_func_uint16_t_u_u>
    a51a:	66 83 f8 39          	cmp    $0x39,%ax
    a51e:	0f 97 c0             	seta   %al
    a521:	89 c2                	mov    %eax,%edx
    a523:	0f b7 05 aa 5b 00 00 	movzwl 0x5baa(%rip),%eax        # 100d4 <g_181>
    a52a:	31 d0                	xor    %edx,%eax
    a52c:	0f be c0             	movsbl %al,%eax
    a52f:	89 de                	mov    %ebx,%esi
    a531:	89 c7                	mov    %eax,%edi
    a533:	e8 fd 9d ff ff       	callq  4335 <safe_rshift_func_int8_t_s_s>
    a538:	c7 85 c4 e9 ff ff 00 	movl   $0x0,-0x163c(%rbp)
    a53f:	00 00 00 
    a542:	eb 57                	jmp    a59b <func_54+0x18f5>
    a544:	48 8d 05 0d 5b 00 00 	lea    0x5b0d(%rip),%rax        # 10058 <g_70+0x18>
    a54b:	48 89 85 80 e8 ff ff 	mov    %rax,-0x1780(%rbp)
    a552:	48 8d 85 ec e7 ff ff 	lea    -0x1814(%rbp),%rax
    a559:	48 39 85 80 e8 ff ff 	cmp    %rax,-0x1780(%rbp)
    a560:	be 0b 00 00 00       	mov    $0xb,%esi
    a565:	bf 72 c2 00 00       	mov    $0xc272,%edi
    a56a:	e8 4f a8 ff ff       	callq  4dbe <safe_lshift_func_uint16_t_u_s>
    a56f:	0f b7 d0             	movzwl %ax,%edx
    a572:	48 83 bd a8 e7 ff ff 	cmpq   $0x0,-0x1858(%rbp)
    a579:	00 
    a57a:	0f 94 c0             	sete   %al
    a57d:	0f b6 c0             	movzbl %al,%eax
    a580:	39 c2                	cmp    %eax,%edx
    a582:	ba 00 00 00 00       	mov    $0x0,%edx
    a587:	48 8b 85 80 e8 ff ff 	mov    -0x1780(%rbp),%rax
    a58e:	8b 00                	mov    (%rax),%eax
    a590:	09 c2                	or     %eax,%edx
    a592:	48 8b 85 80 e8 ff ff 	mov    -0x1780(%rbp),%rax
    a599:	89 10                	mov    %edx,(%rax)
    a59b:	0f b6 05 e2 5a 00 00 	movzbl 0x5ae2(%rip),%eax        # 10084 <g_115>
    a5a2:	0f be d8             	movsbl %al,%ebx
    a5a5:	48 8b 05 88 5a 00 00 	mov    0x5a88(%rip),%rax        # 10034 <g_62+0x4>
    a5ac:	48 85 c0             	test   %rax,%rax
    a5af:	74 20                	je     a5d1 <func_54+0x192b>
    a5b1:	48 8b 85 60 e8 ff ff 	mov    -0x17a0(%rbp),%rax
    a5b8:	8b 00                	mov    (%rax),%eax
    a5ba:	8d 48 ff             	lea    -0x1(%rax),%ecx
    a5bd:	48 8b 95 60 e8 ff ff 	mov    -0x17a0(%rbp),%rdx
    a5c4:	89 0a                	mov    %ecx,(%rdx)
    a5c6:	85 c0                	test   %eax,%eax
    a5c8:	74 07                	je     a5d1 <func_54+0x192b>
    a5ca:	ba 01 00 00 00       	mov    $0x1,%edx
    a5cf:	eb 05                	jmp    a5d6 <func_54+0x1930>
    a5d1:	ba 00 00 00 00       	mov    $0x0,%edx
    a5d6:	0f b7 05 f7 5a 00 00 	movzwl 0x5af7(%rip),%eax        # 100d4 <g_181>
    a5dd:	98                   	cwtl   
    a5de:	21 d0                	and    %edx,%eax
    a5e0:	48 63 d0             	movslq %eax,%rdx
    a5e3:	8b 85 18 e8 ff ff    	mov    -0x17e8(%rbp),%eax
    a5e9:	48 89 d6             	mov    %rdx,%rsi
    a5ec:	48 89 c7             	mov    %rax,%rdi
    a5ef:	e8 b4 a2 ff ff       	callq  48a8 <safe_sub_func_int64_t_s_s>
    a5f4:	48 8b 95 50 e8 ff ff 	mov    -0x17b0(%rbp),%rdx
    a5fb:	8b 12                	mov    (%rdx),%edx
    a5fd:	48 63 d2             	movslq %edx,%rdx
    a600:	48 39 d0             	cmp    %rdx,%rax
    a603:	0f 94 c0             	sete   %al
    a606:	0f b6 d0             	movzbl %al,%edx
    a609:	48 8b 85 70 e8 ff ff 	mov    -0x1790(%rbp),%rax
    a610:	89 10                	mov    %edx,(%rax)
    a612:	8b 05 38 5a 00 00    	mov    0x5a38(%rip),%eax        # 10050 <g_70+0x10>
    a618:	48 63 d0             	movslq %eax,%rdx
    a61b:	48 8b 05 12 5a 00 00 	mov    0x5a12(%rip),%rax        # 10034 <g_62+0x4>
    a622:	48 39 c2             	cmp    %rax,%rdx
    a625:	0f 92 c0             	setb   %al
    a628:	44 0f b6 e0          	movzbl %al,%r12d
    a62c:	8b 05 4a 5a 00 00    	mov    0x5a4a(%rip),%eax        # 1007c <g_109+0xc>
    a632:	85 c0                	test   %eax,%eax
    a634:	0f 94 c0             	sete   %al
    a637:	0f b6 c0             	movzbl %al,%eax
    a63a:	48 89 c6             	mov    %rax,%rsi
    a63d:	bf 01 00 00 00       	mov    $0x1,%edi
    a642:	e8 1e aa ff ff       	callq  5065 <safe_mul_func_uint64_t_u_u>
    a647:	48 8b 95 68 e8 ff ff 	mov    -0x1798(%rbp),%rdx
    a64e:	0f b7 12             	movzwl (%rdx),%edx
    a651:	21 c2                	and    %eax,%edx
    a653:	48 8b 85 68 e8 ff ff 	mov    -0x1798(%rbp),%rax
    a65a:	66 89 10             	mov    %dx,(%rax)
    a65d:	48 8b 85 68 e8 ff ff 	mov    -0x1798(%rbp),%rax
    a664:	0f b7 00             	movzwl (%rax),%eax
    a667:	0f b7 c0             	movzwl %ax,%eax
    a66a:	44 89 e6             	mov    %r12d,%esi
    a66d:	89 c7                	mov    %eax,%edi
    a66f:	e8 c9 a6 ff ff       	callq  4d3d <safe_mul_func_uint16_t_u_u>
    a674:	48 8b 05 e5 59 00 00 	mov    0x59e5(%rip),%rax        # 10060 <g_82>
    a67b:	25 ff ff ff 7f       	and    $0x7fffffff,%eax
    a680:	89 de                	mov    %ebx,%esi
    a682:	89 c7                	mov    %eax,%edi
    a684:	e8 2f a8 ff ff       	callq  4eb8 <safe_add_func_uint32_t_u_u>
    a689:	89 c2                	mov    %eax,%edx
    a68b:	48 8b 85 50 e8 ff ff 	mov    -0x17b0(%rbp),%rax
    a692:	89 10                	mov    %edx,(%rax)
    a694:	48 8b 85 50 e8 ff ff 	mov    -0x17b0(%rbp),%rax
    a69b:	8b 00                	mov    (%rax),%eax
    a69d:	66 89 85 e6 e7 ff ff 	mov    %ax,-0x181a(%rbp)
    a6a4:	48 8b 15 b5 63 00 00 	mov    0x63b5(%rip),%rdx        # 10a60 <g_272>
    a6ab:	48 8b 85 c8 e7 ff ff 	mov    -0x1838(%rbp),%rax
    a6b2:	48 8b 0a             	mov    (%rdx),%rcx
    a6b5:	48 89 08             	mov    %rcx,(%rax)
    a6b8:	8b 52 08             	mov    0x8(%rdx),%edx
    a6bb:	89 50 08             	mov    %edx,0x8(%rax)
    a6be:	48 8b 45 d8          	mov    -0x28(%rbp),%rax
    a6c2:	64 48 33 04 25 28 00 	xor    %fs:0x28,%rax
    a6c9:	00 00 
    a6cb:	74 05                	je     a6d2 <func_54+0x1a2c>
    a6cd:	e8 9e 99 ff ff       	callq  4070 <__stack_chk_fail@plt>
    a6d2:	48 8b 85 c8 e7 ff ff 	mov    -0x1838(%rbp),%rax
    a6d9:	48 81 c4 48 18 00 00 	add    $0x1848,%rsp
    a6e0:	5b                   	pop    %rbx
    a6e1:	41 5c                	pop    %r12
    a6e3:	41 5d                	pop    %r13
    a6e5:	5d                   	pop    %rbp
    a6e6:	c3                   	retq   

000000000000a6e7 <func_59>:
    a6e7:	f3 0f 1e fa          	endbr64 
    a6eb:	55                   	push   %rbp
    a6ec:	48 89 e5             	mov    %rsp,%rbp
    a6ef:	48 83 ec 70          	sub    $0x70,%rsp
    a6f3:	89 7d 9c             	mov    %edi,-0x64(%rbp)
    a6f6:	64 48 8b 04 25 28 00 	mov    %fs:0x28,%rax
    a6fd:	00 00 
    a6ff:	48 89 45 f8          	mov    %rax,-0x8(%rbp)
    a703:	31 c0                	xor    %eax,%eax
    a705:	66 c7 45 a2 00 00    	movw   $0x0,-0x5e(%rbp)
    a70b:	c7 45 a4 cb 32 36 14 	movl   $0x143632cb,-0x5c(%rbp)
    a712:	c7 45 9c 02 00 00 00 	movl   $0x2,-0x64(%rbp)
    a719:	83 7d 9c 06          	cmpl   $0x6,-0x64(%rbp)
    a71d:	0f 87 c3 01 00 00    	ja     a8e6 <func_59+0x1ff>
    a723:	48 c7 45 b0 00 00 00 	movq   $0x0,-0x50(%rbp)
    a72a:	00 
    a72b:	48 c7 45 f0 00 00 00 	movq   $0x0,-0x10(%rbp)
    a732:	00 
    a733:	8b 45 e4             	mov    -0x1c(%rbp),%eax
    a736:	25 00 00 00 80       	and    $0x80000000,%eax
    a73b:	0d 81 a2 00 00       	or     $0xa281,%eax
    a740:	89 45 e4             	mov    %eax,-0x1c(%rbp)
    a743:	48 b8 b0 ed 2e 19 b7 	movabs $0xdd081fb7192eedb0,%rax
    a74a:	1f 08 dd 
    a74d:	48 89 45 e8          	mov    %rax,-0x18(%rbp)
    a751:	48 8b 45 e4          	mov    -0x1c(%rbp),%rax
    a755:	48 89 45 d8          	mov    %rax,-0x28(%rbp)
    a759:	8b 45 ec             	mov    -0x14(%rbp),%eax
    a75c:	89 45 e0             	mov    %eax,-0x20(%rbp)
    a75f:	48 c7 45 b8 00 00 00 	movq   $0x0,-0x48(%rbp)
    a766:	00 
    a767:	48 8b 45 14          	mov    0x14(%rbp),%rax
    a76b:	48 83 f8 01          	cmp    $0x1,%rax
    a76f:	75 0d                	jne    a77e <func_59+0x97>
    a771:	83 7d 9c 00          	cmpl   $0x0,-0x64(%rbp)
    a775:	74 07                	je     a77e <func_59+0x97>
    a777:	ba 01 00 00 00       	mov    $0x1,%edx
    a77c:	eb 05                	jmp    a783 <func_59+0x9c>
    a77e:	ba 00 00 00 00       	mov    $0x0,%edx
    a783:	8b 45 10             	mov    0x10(%rbp),%eax
    a786:	25 ff ff ff 7f       	and    $0x7fffffff,%eax
    a78b:	39 c2                	cmp    %eax,%edx
    a78d:	0f 9c c0             	setl   %al
    a790:	0f b6 c0             	movzbl %al,%eax
    a793:	be f3 1b 00 00       	mov    $0x1bf3,%esi
    a798:	89 c7                	mov    %eax,%edi
    a79a:	e8 80 a5 ff ff       	callq  4d1f <safe_sub_func_uint16_t_u_u>
    a79f:	0f b7 c0             	movzwl %ax,%eax
    a7a2:	48 c7 c6 ff ff ff ff 	mov    $0xffffffffffffffff,%rsi
    a7a9:	48 89 c7             	mov    %rax,%rdi
    a7ac:	e8 f7 a0 ff ff       	callq  48a8 <safe_sub_func_int64_t_s_s>
    a7b1:	0f b7 d0             	movzwl %ax,%edx
    a7b4:	0f b6 05 69 58 00 00 	movzbl 0x5869(%rip),%eax        # 10024 <g_9>
    a7bb:	66 98                	cbtw   
    a7bd:	0f b7 c0             	movzwl %ax,%eax
    a7c0:	89 d6                	mov    %edx,%esi
    a7c2:	89 c7                	mov    %eax,%edi
    a7c4:	e8 74 a5 ff ff       	callq  4d3d <safe_mul_func_uint16_t_u_u>
    a7c9:	c7 45 a4 f7 ff ff ff 	movl   $0xfffffff7,-0x5c(%rbp)
    a7d0:	48 8b 05 89 58 00 00 	mov    0x5889(%rip),%rax        # 10060 <g_82>
    a7d7:	48 89 45 d8          	mov    %rax,-0x28(%rbp)
    a7db:	8b 05 87 58 00 00    	mov    0x5887(%rip),%eax        # 10068 <g_82+0x8>
    a7e1:	89 45 e0             	mov    %eax,-0x20(%rbp)
    a7e4:	48 c7 05 45 58 00 00 	movq   $0x0,0x5845(%rip)        # 10034 <g_62+0x4>
    a7eb:	00 00 00 00 
    a7ef:	e9 d5 00 00 00       	jmpq   a8c9 <func_59+0x1e2>
    a7f4:	8b 45 10             	mov    0x10(%rbp),%eax
    a7f7:	25 ff ff ff 7f       	and    $0x7fffffff,%eax
    a7fc:	85 c0                	test   %eax,%eax
    a7fe:	0f 85 d8 00 00 00    	jne    a8dc <func_59+0x1f5>
    a804:	66 c7 45 a2 00 00    	movw   $0x0,-0x5e(%rbp)
    a80a:	e9 94 00 00 00       	jmpq   a8a3 <func_59+0x1bc>
    a80f:	48 8d 05 0a 62 00 00 	lea    0x620a(%rip),%rax        # 10a20 <g_8>
    a816:	48 89 45 c0          	mov    %rax,-0x40(%rbp)
    a81a:	48 c7 45 c8 00 00 00 	movq   $0x0,-0x38(%rbp)
    a821:	00 
    a822:	48 8b 45 c0          	mov    -0x40(%rbp),%rax
    a826:	48 89 45 b8          	mov    %rax,-0x48(%rbp)
    a82a:	c7 45 a4 00 00 00 00 	movl   $0x0,-0x5c(%rbp)
    a831:	eb 63                	jmp    a896 <func_59+0x1af>
    a833:	8b 45 9c             	mov    -0x64(%rbp),%eax
    a836:	48 8d 14 85 00 00 00 	lea    0x0(,%rax,4),%rdx
    a83d:	00 
    a83e:	48 8d 05 fb 57 00 00 	lea    0x57fb(%rip),%rax        # 10040 <g_70>
    a845:	48 01 d0             	add    %rdx,%rax
    a848:	48 89 45 a8          	mov    %rax,-0x58(%rbp)
    a84c:	48 8d 45 a8          	lea    -0x58(%rbp),%rax
    a850:	48 89 45 d0          	mov    %rax,-0x30(%rbp)
    a854:	48 8b 45 d0          	mov    -0x30(%rbp),%rax
    a858:	48 8d 15 f9 57 00 00 	lea    0x57f9(%rip),%rdx        # 10058 <g_70+0x18>
    a85f:	48 89 10             	mov    %rdx,(%rax)
    a862:	83 7d 9c 00          	cmpl   $0x0,-0x64(%rbp)
    a866:	75 1b                	jne    a883 <func_59+0x19c>
    a868:	48 8b 45 d0          	mov    -0x30(%rbp),%rax
    a86c:	48 8d 55 a4          	lea    -0x5c(%rbp),%rdx
    a870:	48 89 10             	mov    %rdx,(%rax)
    a873:	48 8d 05 ce 57 00 00 	lea    0x57ce(%rip),%rax        # 10048 <g_70+0x8>
    a87a:	48 89 05 a7 61 00 00 	mov    %rax,0x61a7(%rip)        # 10a28 <g_96>
    a881:	eb 01                	jmp    a884 <func_59+0x19d>
    a883:	90                   	nop
    a884:	8b 45 a4             	mov    -0x5c(%rbp),%eax
    a887:	be 01 00 00 00       	mov    $0x1,%esi
    a88c:	89 c7                	mov    %eax,%edi
    a88e:	e8 23 9d ff ff       	callq  45b6 <safe_add_func_int32_t_s_s>
    a893:	89 45 a4             	mov    %eax,-0x5c(%rbp)
    a896:	8b 45 a4             	mov    -0x5c(%rbp),%eax
    a899:	83 f8 10             	cmp    $0x10,%eax
    a89c:	7f 95                	jg     a833 <func_59+0x14c>
    a89e:	66 83 45 a2 01       	addw   $0x1,-0x5e(%rbp)
    a8a3:	66 83 7d a2 3b       	cmpw   $0x3b,-0x5e(%rbp)
    a8a8:	0f 84 61 ff ff ff    	je     a80f <func_59+0x128>
    a8ae:	48 8b 05 7f 57 00 00 	mov    0x577f(%rip),%rax        # 10034 <g_62+0x4>
    a8b5:	be 04 00 00 00       	mov    $0x4,%esi
    a8ba:	48 89 c7             	mov    %rax,%rdi
    a8bd:	e8 7f 9f ff ff       	callq  4841 <safe_add_func_int64_t_s_s>
    a8c2:	48 89 05 6b 57 00 00 	mov    %rax,0x576b(%rip)        # 10034 <g_62+0x4>
    a8c9:	48 8b 05 64 57 00 00 	mov    0x5764(%rip),%rax        # 10034 <g_62+0x4>
    a8d0:	48 83 f8 21          	cmp    $0x21,%rax
    a8d4:	0f 84 1a ff ff ff    	je     a7f4 <func_59+0x10d>
    a8da:	eb 01                	jmp    a8dd <func_59+0x1f6>
    a8dc:	90                   	nop
    a8dd:	48 8b 05 ec 71 00 00 	mov    0x71ec(%rip),%rax        # 11ad0 <g_97>
    a8e4:	eb 07                	jmp    a8ed <func_59+0x206>
    a8e6:	48 8b 05 e3 71 00 00 	mov    0x71e3(%rip),%rax        # 11ad0 <g_97>
    a8ed:	48 8b 4d f8          	mov    -0x8(%rbp),%rcx
    a8f1:	64 48 33 0c 25 28 00 	xor    %fs:0x28,%rcx
    a8f8:	00 00 
    a8fa:	74 05                	je     a901 <func_59+0x21a>
    a8fc:	e8 6f 97 ff ff       	callq  4070 <__stack_chk_fail@plt>
    a901:	c9                   	leaveq 
    a902:	c3                   	retq   

000000000000a903 <main>:
    a903:	f3 0f 1e fa          	endbr64 
    a907:	55                   	push   %rbp
    a908:	48 89 e5             	mov    %rsp,%rbp
    a90b:	48 83 ec 20          	sub    $0x20,%rsp
    a90f:	89 7d ec             	mov    %edi,-0x14(%rbp)
    a912:	48 89 75 e0          	mov    %rsi,-0x20(%rbp)
    a916:	c7 45 fc 00 00 00 00 	movl   $0x0,-0x4(%rbp)
    a91d:	83 7d ec 02          	cmpl   $0x2,-0x14(%rbp)
    a921:	75 25                	jne    a948 <main+0x45>
    a923:	48 8b 45 e0          	mov    -0x20(%rbp),%rax
    a927:	48 83 c0 08          	add    $0x8,%rax
    a92b:	48 8b 00             	mov    (%rax),%rax
    a92e:	48 8d 35 6b 27 00 00 	lea    0x276b(%rip),%rsi        # d0a0 <g_1259+0x1048>
    a935:	48 89 c7             	mov    %rax,%rdi
    a938:	e8 53 97 ff ff       	callq  4090 <strcmp@plt>
    a93d:	85 c0                	test   %eax,%eax
    a93f:	75 07                	jne    a948 <main+0x45>
    a941:	c7 45 fc 01 00 00 00 	movl   $0x1,-0x4(%rbp)
    a948:	e8 3c 98 ff ff       	callq  4189 <platform_main_begin>
    a94d:	e8 46 ac ff ff       	callq  5598 <crc32_gentab>
    a952:	e8 5e ae ff ff       	callq  57b5 <func_1>
    a957:	0f b6 05 c6 56 00 00 	movzbl 0x56c6(%rip),%eax        # 10024 <g_9>
    a95e:	48 0f be c0          	movsbq %al,%rax
    a962:	8b 55 fc             	mov    -0x4(%rbp),%edx
    a965:	48 8d 35 36 27 00 00 	lea    0x2736(%rip),%rsi        # d0a2 <g_1259+0x104a>
    a96c:	48 89 c7             	mov    %rax,%rdi
    a96f:	e8 7f ad ff ff       	callq  56f3 <transparent_crc>
    a974:	48 8b 05 ad 56 00 00 	mov    0x56ad(%rip),%rax        # 10028 <g_53>
    a97b:	8b 55 fc             	mov    -0x4(%rbp),%edx
    a97e:	48 8d 35 21 27 00 00 	lea    0x2721(%rip),%rsi        # d0a6 <g_1259+0x104e>
    a985:	48 89 c7             	mov    %rax,%rdi
    a988:	e8 66 ad ff ff       	callq  56f3 <transparent_crc>
    a98d:	8b 05 9d 56 00 00    	mov    0x569d(%rip),%eax        # 10030 <g_62>
    a993:	25 ff ff ff 7f       	and    $0x7fffffff,%eax
    a998:	89 c1                	mov    %eax,%ecx
    a99a:	8b 45 fc             	mov    -0x4(%rbp),%eax
    a99d:	89 c2                	mov    %eax,%edx
    a99f:	48 8d 35 05 27 00 00 	lea    0x2705(%rip),%rsi        # d0ab <g_1259+0x1053>
    a9a6:	48 89 cf             	mov    %rcx,%rdi
    a9a9:	e8 45 ad ff ff       	callq  56f3 <transparent_crc>
    a9ae:	48 8b 05 7f 56 00 00 	mov    0x567f(%rip),%rax        # 10034 <g_62+0x4>
    a9b5:	8b 55 fc             	mov    -0x4(%rbp),%edx
    a9b8:	48 8d 35 f4 26 00 00 	lea    0x26f4(%rip),%rsi        # d0b3 <g_1259+0x105b>
    a9bf:	48 89 c7             	mov    %rax,%rdi
    a9c2:	e8 2c ad ff ff       	callq  56f3 <transparent_crc>
    a9c7:	c7 45 f4 00 00 00 00 	movl   $0x0,-0xc(%rbp)
    a9ce:	eb 4b                	jmp    aa1b <main+0x118>
    a9d0:	8b 45 f4             	mov    -0xc(%rbp),%eax
    a9d3:	48 98                	cltq   
    a9d5:	48 8d 14 85 00 00 00 	lea    0x0(,%rax,4),%rdx
    a9dc:	00 
    a9dd:	48 8d 05 5c 56 00 00 	lea    0x565c(%rip),%rax        # 10040 <g_70>
    a9e4:	8b 04 02             	mov    (%rdx,%rax,1),%eax
    a9e7:	48 98                	cltq   
    a9e9:	8b 55 fc             	mov    -0x4(%rbp),%edx
    a9ec:	48 8d 35 c8 26 00 00 	lea    0x26c8(%rip),%rsi        # d0bb <g_1259+0x1063>
    a9f3:	48 89 c7             	mov    %rax,%rdi
    a9f6:	e8 f8 ac ff ff       	callq  56f3 <transparent_crc>
    a9fb:	83 7d fc 00          	cmpl   $0x0,-0x4(%rbp)
    a9ff:	74 16                	je     aa17 <main+0x114>
    aa01:	8b 45 f4             	mov    -0xc(%rbp),%eax
    aa04:	89 c6                	mov    %eax,%esi
    aa06:	48 8d 3d b6 26 00 00 	lea    0x26b6(%rip),%rdi        # d0c3 <g_1259+0x106b>
    aa0d:	b8 00 00 00 00       	mov    $0x0,%eax
    aa12:	e8 69 96 ff ff       	callq  4080 <printf@plt>
    aa17:	83 45 f4 01          	addl   $0x1,-0xc(%rbp)
    aa1b:	83 7d f4 06          	cmpl   $0x6,-0xc(%rbp)
    aa1f:	7e af                	jle    a9d0 <main+0xcd>
    aa21:	48 8b 05 38 56 00 00 	mov    0x5638(%rip),%rax        # 10060 <g_82>
    aa28:	25 ff ff ff 7f       	and    $0x7fffffff,%eax
    aa2d:	89 c1                	mov    %eax,%ecx
    aa2f:	8b 45 fc             	mov    -0x4(%rbp),%eax
    aa32:	89 c2                	mov    %eax,%edx
    aa34:	48 8d 35 96 26 00 00 	lea    0x2696(%rip),%rsi        # d0d1 <g_1259+0x1079>
    aa3b:	48 89 cf             	mov    %rcx,%rdi
    aa3e:	e8 b0 ac ff ff       	callq  56f3 <transparent_crc>
    aa43:	48 8b 05 1a 56 00 00 	mov    0x561a(%rip),%rax        # 10064 <g_82+0x4>
    aa4a:	8b 55 fc             	mov    -0x4(%rbp),%edx
    aa4d:	48 8d 35 85 26 00 00 	lea    0x2685(%rip),%rsi        # d0d9 <g_1259+0x1081>
    aa54:	48 89 c7             	mov    %rax,%rdi
    aa57:	e8 97 ac ff ff       	callq  56f3 <transparent_crc>
    aa5c:	c7 45 f4 00 00 00 00 	movl   $0x0,-0xc(%rbp)
    aa63:	eb 4d                	jmp    aab2 <main+0x1af>
    aa65:	8b 45 f4             	mov    -0xc(%rbp),%eax
    aa68:	48 98                	cltq   
    aa6a:	48 8d 14 85 00 00 00 	lea    0x0(,%rax,4),%rdx
    aa71:	00 
    aa72:	48 8d 05 f7 55 00 00 	lea    0x55f7(%rip),%rax        # 10070 <g_109>
    aa79:	8b 04 02             	mov    (%rdx,%rax,1),%eax
    aa7c:	89 c1                	mov    %eax,%ecx
    aa7e:	8b 45 fc             	mov    -0x4(%rbp),%eax
    aa81:	89 c2                	mov    %eax,%edx
    aa83:	48 8d 35 57 26 00 00 	lea    0x2657(%rip),%rsi        # d0e1 <g_1259+0x1089>
    aa8a:	48 89 cf             	mov    %rcx,%rdi
    aa8d:	e8 61 ac ff ff       	callq  56f3 <transparent_crc>
    aa92:	83 7d fc 00          	cmpl   $0x0,-0x4(%rbp)
    aa96:	74 16                	je     aaae <main+0x1ab>
    aa98:	8b 45 f4             	mov    -0xc(%rbp),%eax
    aa9b:	89 c6                	mov    %eax,%esi
    aa9d:	48 8d 3d 1f 26 00 00 	lea    0x261f(%rip),%rdi        # d0c3 <g_1259+0x106b>
    aaa4:	b8 00 00 00 00       	mov    $0x0,%eax
    aaa9:	e8 d2 95 ff ff       	callq  4080 <printf@plt>
    aaae:	83 45 f4 01          	addl   $0x1,-0xc(%rbp)
    aab2:	83 7d f4 04          	cmpl   $0x4,-0xc(%rbp)
    aab6:	7e ad                	jle    aa65 <main+0x162>
    aab8:	0f b6 05 c5 55 00 00 	movzbl 0x55c5(%rip),%eax        # 10084 <g_115>
    aabf:	48 0f be c0          	movsbq %al,%rax
    aac3:	8b 55 fc             	mov    -0x4(%rbp),%edx
    aac6:	48 8d 35 1d 26 00 00 	lea    0x261d(%rip),%rsi        # d0ea <g_1259+0x1092>
    aacd:	48 89 c7             	mov    %rax,%rdi
    aad0:	e8 1e ac ff ff       	callq  56f3 <transparent_crc>
    aad5:	c7 45 f4 00 00 00 00 	movl   $0x0,-0xc(%rbp)
    aadc:	eb 7b                	jmp    ab59 <main+0x256>
    aade:	c7 45 f8 00 00 00 00 	movl   $0x0,-0x8(%rbp)
    aae5:	eb 68                	jmp    ab4f <main+0x24c>
    aae7:	8b 45 f8             	mov    -0x8(%rbp),%eax
    aaea:	48 63 c8             	movslq %eax,%rcx
    aaed:	8b 45 f4             	mov    -0xc(%rbp),%eax
    aaf0:	48 63 d0             	movslq %eax,%rdx
    aaf3:	48 89 d0             	mov    %rdx,%rax
    aaf6:	48 01 c0             	add    %rax,%rax
    aaf9:	48 01 d0             	add    %rdx,%rax
    aafc:	48 01 c0             	add    %rax,%rax
    aaff:	48 01 c8             	add    %rcx,%rax
    ab02:	48 8d 14 c5 00 00 00 	lea    0x0(,%rax,8),%rdx
    ab09:	00 
    ab0a:	48 8d 05 8f 55 00 00 	lea    0x558f(%rip),%rax        # 100a0 <g_118>
    ab11:	48 8b 04 02          	mov    (%rdx,%rax,1),%rax
    ab15:	48 89 c1             	mov    %rax,%rcx
    ab18:	8b 45 fc             	mov    -0x4(%rbp),%eax
    ab1b:	89 c2                	mov    %eax,%edx
    ab1d:	48 8d 35 cc 25 00 00 	lea    0x25cc(%rip),%rsi        # d0f0 <g_1259+0x1098>
    ab24:	48 89 cf             	mov    %rcx,%rdi
    ab27:	e8 c7 ab ff ff       	callq  56f3 <transparent_crc>
    ab2c:	83 7d fc 00          	cmpl   $0x0,-0x4(%rbp)
    ab30:	74 19                	je     ab4b <main+0x248>
    ab32:	8b 55 f8             	mov    -0x8(%rbp),%edx
    ab35:	8b 45 f4             	mov    -0xc(%rbp),%eax
    ab38:	89 c6                	mov    %eax,%esi
    ab3a:	48 8d 3d bb 25 00 00 	lea    0x25bb(%rip),%rdi        # d0fc <g_1259+0x10a4>
    ab41:	b8 00 00 00 00       	mov    $0x0,%eax
    ab46:	e8 35 95 ff ff       	callq  4080 <printf@plt>
    ab4b:	83 45 f8 01          	addl   $0x1,-0x8(%rbp)
    ab4f:	83 7d f8 05          	cmpl   $0x5,-0x8(%rbp)
    ab53:	7e 92                	jle    aae7 <main+0x1e4>
    ab55:	83 45 f4 01          	addl   $0x1,-0xc(%rbp)
    ab59:	83 7d f4 00          	cmpl   $0x0,-0xc(%rbp)
    ab5d:	0f 8e 7b ff ff ff    	jle    aade <main+0x1db>
    ab63:	0f b7 05 66 55 00 00 	movzwl 0x5566(%rip),%eax        # 100d0 <g_132>
    ab6a:	0f b7 c0             	movzwl %ax,%eax
    ab6d:	8b 55 fc             	mov    -0x4(%rbp),%edx
    ab70:	48 8d 35 97 25 00 00 	lea    0x2597(%rip),%rsi        # d10e <g_1259+0x10b6>
    ab77:	48 89 c7             	mov    %rax,%rdi
    ab7a:	e8 74 ab ff ff       	callq  56f3 <transparent_crc>
    ab7f:	0f b7 05 4c 55 00 00 	movzwl 0x554c(%rip),%eax        # 100d2 <g_165>
    ab86:	48 0f bf c0          	movswq %ax,%rax
    ab8a:	8b 55 fc             	mov    -0x4(%rbp),%edx
    ab8d:	48 8d 35 80 25 00 00 	lea    0x2580(%rip),%rsi        # d114 <g_1259+0x10bc>
    ab94:	48 89 c7             	mov    %rax,%rdi
    ab97:	e8 57 ab ff ff       	callq  56f3 <transparent_crc>
    ab9c:	0f b7 05 31 55 00 00 	movzwl 0x5531(%rip),%eax        # 100d4 <g_181>
    aba3:	48 0f bf c0          	movswq %ax,%rax
    aba7:	8b 55 fc             	mov    -0x4(%rbp),%edx
    abaa:	48 8d 35 69 25 00 00 	lea    0x2569(%rip),%rsi        # d11a <g_1259+0x10c2>
    abb1:	48 89 c7             	mov    %rax,%rdi
    abb4:	e8 3a ab ff ff       	callq  56f3 <transparent_crc>
    abb9:	0f b6 05 16 55 00 00 	movzbl 0x5516(%rip),%eax        # 100d6 <g_211>
    abc0:	0f b6 c0             	movzbl %al,%eax
    abc3:	8b 55 fc             	mov    -0x4(%rbp),%edx
    abc6:	48 8d 35 53 25 00 00 	lea    0x2553(%rip),%rsi        # d120 <g_1259+0x10c8>
    abcd:	48 89 c7             	mov    %rax,%rdi
    abd0:	e8 1e ab ff ff       	callq  56f3 <transparent_crc>
    abd5:	0f b7 05 fc 54 00 00 	movzwl 0x54fc(%rip),%eax        # 100d8 <g_213>
    abdc:	48 0f bf c0          	movswq %ax,%rax
    abe0:	8b 55 fc             	mov    -0x4(%rbp),%edx
    abe3:	48 8d 35 3c 25 00 00 	lea    0x253c(%rip),%rsi        # d126 <g_1259+0x10ce>
    abea:	48 89 c7             	mov    %rax,%rdi
    abed:	e8 01 ab ff ff       	callq  56f3 <transparent_crc>
    abf2:	c7 45 f4 00 00 00 00 	movl   $0x0,-0xc(%rbp)
    abf9:	eb 4d                	jmp    ac48 <main+0x345>
    abfb:	8b 45 f4             	mov    -0xc(%rbp),%eax
    abfe:	48 98                	cltq   
    ac00:	48 8d 14 85 00 00 00 	lea    0x0(,%rax,4),%rdx
    ac07:	00 
    ac08:	48 8d 05 d1 54 00 00 	lea    0x54d1(%rip),%rax        # 100e0 <g_261>
    ac0f:	8b 04 02             	mov    (%rdx,%rax,1),%eax
    ac12:	89 c1                	mov    %eax,%ecx
    ac14:	8b 45 fc             	mov    -0x4(%rbp),%eax
    ac17:	89 c2                	mov    %eax,%edx
    ac19:	48 8d 35 0c 25 00 00 	lea    0x250c(%rip),%rsi        # d12c <g_1259+0x10d4>
    ac20:	48 89 cf             	mov    %rcx,%rdi
    ac23:	e8 cb aa ff ff       	callq  56f3 <transparent_crc>
    ac28:	83 7d fc 00          	cmpl   $0x0,-0x4(%rbp)
    ac2c:	74 16                	je     ac44 <main+0x341>
    ac2e:	8b 45 f4             	mov    -0xc(%rbp),%eax
    ac31:	89 c6                	mov    %eax,%esi
    ac33:	48 8d 3d 89 24 00 00 	lea    0x2489(%rip),%rdi        # d0c3 <g_1259+0x106b>
    ac3a:	b8 00 00 00 00       	mov    $0x0,%eax
    ac3f:	e8 3c 94 ff ff       	callq  4080 <printf@plt>
    ac44:	83 45 f4 01          	addl   $0x1,-0xc(%rbp)
    ac48:	83 7d f4 02          	cmpl   $0x2,-0xc(%rbp)
    ac4c:	7e ad                	jle    abfb <main+0x2f8>
    ac4e:	48 8b 05 9b 54 00 00 	mov    0x549b(%rip),%rax        # 100f0 <g_263>
    ac55:	48 89 c1             	mov    %rax,%rcx
    ac58:	8b 45 fc             	mov    -0x4(%rbp),%eax
    ac5b:	89 c2                	mov    %eax,%edx
    ac5d:	48 8d 35 d1 24 00 00 	lea    0x24d1(%rip),%rsi        # d135 <g_1259+0x10dd>
    ac64:	48 89 cf             	mov    %rcx,%rdi
    ac67:	e8 87 aa ff ff       	callq  56f3 <transparent_crc>
    ac6c:	8b 05 86 54 00 00    	mov    0x5486(%rip),%eax        # 100f8 <g_295>
    ac72:	48 98                	cltq   
    ac74:	8b 55 fc             	mov    -0x4(%rbp),%edx
    ac77:	48 8d 35 bd 24 00 00 	lea    0x24bd(%rip),%rsi        # d13b <g_1259+0x10e3>
    ac7e:	48 89 c7             	mov    %rax,%rdi
    ac81:	e8 6d aa ff ff       	callq  56f3 <transparent_crc>
    ac86:	8b 05 70 54 00 00    	mov    0x5470(%rip),%eax        # 100fc <g_381>
    ac8c:	89 c1                	mov    %eax,%ecx
    ac8e:	8b 45 fc             	mov    -0x4(%rbp),%eax
    ac91:	89 c2                	mov    %eax,%edx
    ac93:	48 8d 35 a7 24 00 00 	lea    0x24a7(%rip),%rsi        # d141 <g_1259+0x10e9>
    ac9a:	48 89 cf             	mov    %rcx,%rdi
    ac9d:	e8 51 aa ff ff       	callq  56f3 <transparent_crc>
    aca2:	8b 05 60 54 00 00    	mov    0x5460(%rip),%eax        # 10108 <g_423>
    aca8:	89 c1                	mov    %eax,%ecx
    acaa:	8b 45 fc             	mov    -0x4(%rbp),%eax
    acad:	89 c2                	mov    %eax,%edx
    acaf:	48 8d 35 91 24 00 00 	lea    0x2491(%rip),%rsi        # d147 <g_1259+0x10ef>
    acb6:	48 89 cf             	mov    %rcx,%rdi
    acb9:	e8 35 aa ff ff       	callq  56f3 <transparent_crc>
    acbe:	8b 05 48 54 00 00    	mov    0x5448(%rip),%eax        # 1010c <g_450>
    acc4:	89 c1                	mov    %eax,%ecx
    acc6:	8b 45 fc             	mov    -0x4(%rbp),%eax
    acc9:	89 c2                	mov    %eax,%edx
    accb:	48 8d 35 7b 24 00 00 	lea    0x247b(%rip),%rsi        # d14d <g_1259+0x10f5>
    acd2:	48 89 cf             	mov    %rcx,%rdi
    acd5:	e8 19 aa ff ff       	callq  56f3 <transparent_crc>
    acda:	c7 45 f4 00 00 00 00 	movl   $0x0,-0xc(%rbp)
    ace1:	eb 68                	jmp    ad4b <main+0x448>
    ace3:	c7 45 f8 00 00 00 00 	movl   $0x0,-0x8(%rbp)
    acea:	eb 55                	jmp    ad41 <main+0x43e>
    acec:	8b 45 f8             	mov    -0x8(%rbp),%eax
    acef:	48 63 d0             	movslq %eax,%rdx
    acf2:	8b 45 f4             	mov    -0xc(%rbp),%eax
    acf5:	48 98                	cltq   
    acf7:	48 01 d0             	add    %rdx,%rax
    acfa:	48 8d 14 00          	lea    (%rax,%rax,1),%rdx
    acfe:	48 8d 05 0b 54 00 00 	lea    0x540b(%rip),%rax        # 10110 <g_455>
    ad05:	0f b7 04 02          	movzwl (%rdx,%rax,1),%eax
    ad09:	0f b7 c0             	movzwl %ax,%eax
    ad0c:	8b 55 fc             	mov    -0x4(%rbp),%edx
    ad0f:	48 8d 35 3d 24 00 00 	lea    0x243d(%rip),%rsi        # d153 <g_1259+0x10fb>
    ad16:	48 89 c7             	mov    %rax,%rdi
    ad19:	e8 d5 a9 ff ff       	callq  56f3 <transparent_crc>
    ad1e:	83 7d fc 00          	cmpl   $0x0,-0x4(%rbp)
    ad22:	74 19                	je     ad3d <main+0x43a>
    ad24:	8b 55 f8             	mov    -0x8(%rbp),%edx
    ad27:	8b 45 f4             	mov    -0xc(%rbp),%eax
    ad2a:	89 c6                	mov    %eax,%esi
    ad2c:	48 8d 3d c9 23 00 00 	lea    0x23c9(%rip),%rdi        # d0fc <g_1259+0x10a4>
    ad33:	b8 00 00 00 00       	mov    $0x0,%eax
    ad38:	e8 43 93 ff ff       	callq  4080 <printf@plt>
    ad3d:	83 45 f8 01          	addl   $0x1,-0x8(%rbp)
    ad41:	83 7d f8 00          	cmpl   $0x0,-0x8(%rbp)
    ad45:	7e a5                	jle    acec <main+0x3e9>
    ad47:	83 45 f4 01          	addl   $0x1,-0xc(%rbp)
    ad4b:	83 7d f4 03          	cmpl   $0x3,-0xc(%rbp)
    ad4f:	7e 92                	jle    ace3 <main+0x3e0>
    ad51:	48 8b 05 c0 53 00 00 	mov    0x53c0(%rip),%rax        # 10118 <g_479>
    ad58:	48 89 c1             	mov    %rax,%rcx
    ad5b:	8b 45 fc             	mov    -0x4(%rbp),%eax
    ad5e:	89 c2                	mov    %eax,%edx
    ad60:	48 8d 35 f8 23 00 00 	lea    0x23f8(%rip),%rsi        # d15f <g_1259+0x1107>
    ad67:	48 89 cf             	mov    %rcx,%rdi
    ad6a:	e8 84 a9 ff ff       	callq  56f3 <transparent_crc>
    ad6f:	c7 45 f4 00 00 00 00 	movl   $0x0,-0xc(%rbp)
    ad76:	eb 4d                	jmp    adc5 <main+0x4c2>
    ad78:	8b 45 f4             	mov    -0xc(%rbp),%eax
    ad7b:	48 98                	cltq   
    ad7d:	48 8d 14 85 00 00 00 	lea    0x0(,%rax,4),%rdx
    ad84:	00 
    ad85:	48 8d 05 94 53 00 00 	lea    0x5394(%rip),%rax        # 10120 <g_527>
    ad8c:	8b 04 02             	mov    (%rdx,%rax,1),%eax
    ad8f:	89 c1                	mov    %eax,%ecx
    ad91:	8b 45 fc             	mov    -0x4(%rbp),%eax
    ad94:	89 c2                	mov    %eax,%edx
    ad96:	48 8d 35 c8 23 00 00 	lea    0x23c8(%rip),%rsi        # d165 <g_1259+0x110d>
    ad9d:	48 89 cf             	mov    %rcx,%rdi
    ada0:	e8 4e a9 ff ff       	callq  56f3 <transparent_crc>
    ada5:	83 7d fc 00          	cmpl   $0x0,-0x4(%rbp)
    ada9:	74 16                	je     adc1 <main+0x4be>
    adab:	8b 45 f4             	mov    -0xc(%rbp),%eax
    adae:	89 c6                	mov    %eax,%esi
    adb0:	48 8d 3d 0c 23 00 00 	lea    0x230c(%rip),%rdi        # d0c3 <g_1259+0x106b>
    adb7:	b8 00 00 00 00       	mov    $0x0,%eax
    adbc:	e8 bf 92 ff ff       	callq  4080 <printf@plt>
    adc1:	83 45 f4 01          	addl   $0x1,-0xc(%rbp)
    adc5:	83 7d f4 04          	cmpl   $0x4,-0xc(%rbp)
    adc9:	7e ad                	jle    ad78 <main+0x475>
    adcb:	0f b7 05 62 53 00 00 	movzwl 0x5362(%rip),%eax        # 10134 <g_553>
    add2:	48 0f bf c0          	movswq %ax,%rax
    add6:	8b 55 fc             	mov    -0x4(%rbp),%edx
    add9:	48 8d 35 8e 23 00 00 	lea    0x238e(%rip),%rsi        # d16e <g_1259+0x1116>
    ade0:	48 89 c7             	mov    %rax,%rdi
    ade3:	e8 0b a9 ff ff       	callq  56f3 <transparent_crc>
    ade8:	c7 45 f4 00 00 00 00 	movl   $0x0,-0xc(%rbp)
    adef:	eb 6e                	jmp    ae5f <main+0x55c>
    adf1:	c7 45 f8 00 00 00 00 	movl   $0x0,-0x8(%rbp)
    adf8:	eb 5b                	jmp    ae55 <main+0x552>
    adfa:	8b 45 f8             	mov    -0x8(%rbp),%eax
    adfd:	48 98                	cltq   
    adff:	8b 55 f4             	mov    -0xc(%rbp),%edx
    ae02:	48 63 d2             	movslq %edx,%rdx
    ae05:	48 c1 e2 02          	shl    $0x2,%rdx
    ae09:	48 01 d0             	add    %rdx,%rax
    ae0c:	48 8d 14 85 00 00 00 	lea    0x0(,%rax,4),%rdx
    ae13:	00 
    ae14:	48 8d 05 25 53 00 00 	lea    0x5325(%rip),%rax        # 10140 <g_610>
    ae1b:	8b 04 02             	mov    (%rdx,%rax,1),%eax
    ae1e:	48 98                	cltq   
    ae20:	8b 55 fc             	mov    -0x4(%rbp),%edx
    ae23:	48 8d 35 4a 23 00 00 	lea    0x234a(%rip),%rsi        # d174 <g_1259+0x111c>
    ae2a:	48 89 c7             	mov    %rax,%rdi
    ae2d:	e8 c1 a8 ff ff       	callq  56f3 <transparent_crc>
    ae32:	83 7d fc 00          	cmpl   $0x0,-0x4(%rbp)
    ae36:	74 19                	je     ae51 <main+0x54e>
    ae38:	8b 55 f8             	mov    -0x8(%rbp),%edx
    ae3b:	8b 45 f4             	mov    -0xc(%rbp),%eax
    ae3e:	89 c6                	mov    %eax,%esi
    ae40:	48 8d 3d b5 22 00 00 	lea    0x22b5(%rip),%rdi        # d0fc <g_1259+0x10a4>
    ae47:	b8 00 00 00 00       	mov    $0x0,%eax
    ae4c:	e8 2f 92 ff ff       	callq  4080 <printf@plt>
    ae51:	83 45 f8 01          	addl   $0x1,-0x8(%rbp)
    ae55:	83 7d f8 03          	cmpl   $0x3,-0x8(%rbp)
    ae59:	7e 9f                	jle    adfa <main+0x4f7>
    ae5b:	83 45 f4 01          	addl   $0x1,-0xc(%rbp)
    ae5f:	83 7d f4 03          	cmpl   $0x3,-0xc(%rbp)
    ae63:	7e 8c                	jle    adf1 <main+0x4ee>
    ae65:	8b 05 15 53 00 00    	mov    0x5315(%rip),%eax        # 10180 <g_631>
    ae6b:	48 98                	cltq   
    ae6d:	8b 55 fc             	mov    -0x4(%rbp),%edx
    ae70:	48 8d 35 09 23 00 00 	lea    0x2309(%rip),%rsi        # d180 <g_1259+0x1128>
    ae77:	48 89 c7             	mov    %rax,%rdi
    ae7a:	e8 74 a8 ff ff       	callq  56f3 <transparent_crc>
    ae7f:	0f b6 05 fe 52 00 00 	movzbl 0x52fe(%rip),%eax        # 10184 <g_686>
    ae86:	0f b6 c0             	movzbl %al,%eax
    ae89:	8b 55 fc             	mov    -0x4(%rbp),%edx
    ae8c:	48 8d 35 f3 22 00 00 	lea    0x22f3(%rip),%rsi        # d186 <g_1259+0x112e>
    ae93:	48 89 c7             	mov    %rax,%rdi
    ae96:	e8 58 a8 ff ff       	callq  56f3 <transparent_crc>
    ae9b:	0f b7 05 e4 52 00 00 	movzwl 0x52e4(%rip),%eax        # 10186 <g_785>
    aea2:	48 0f bf c0          	movswq %ax,%rax
    aea6:	8b 55 fc             	mov    -0x4(%rbp),%edx
    aea9:	48 8d 35 dc 22 00 00 	lea    0x22dc(%rip),%rsi        # d18c <g_1259+0x1134>
    aeb0:	48 89 c7             	mov    %rax,%rdi
    aeb3:	e8 3b a8 ff ff       	callq  56f3 <transparent_crc>
    aeb8:	8b 05 ca 52 00 00    	mov    0x52ca(%rip),%eax        # 10188 <g_804>
    aebe:	25 ff ff ff 7f       	and    $0x7fffffff,%eax
    aec3:	89 c1                	mov    %eax,%ecx
    aec5:	8b 45 fc             	mov    -0x4(%rbp),%eax
    aec8:	89 c2                	mov    %eax,%edx
    aeca:	48 8d 35 c1 22 00 00 	lea    0x22c1(%rip),%rsi        # d192 <g_1259+0x113a>
    aed1:	48 89 cf             	mov    %rcx,%rdi
    aed4:	e8 1a a8 ff ff       	callq  56f3 <transparent_crc>
    aed9:	48 8b 05 ac 52 00 00 	mov    0x52ac(%rip),%rax        # 1018c <g_804+0x4>
    aee0:	8b 55 fc             	mov    -0x4(%rbp),%edx
    aee3:	48 8d 35 b1 22 00 00 	lea    0x22b1(%rip),%rsi        # d19b <g_1259+0x1143>
    aeea:	48 89 c7             	mov    %rax,%rdi
    aeed:	e8 01 a8 ff ff       	callq  56f3 <transparent_crc>
    aef2:	b8 01 00 00 00       	mov    $0x1,%eax
    aef7:	48 0f be c0          	movsbq %al,%rax
    aefb:	8b 55 fc             	mov    -0x4(%rbp),%edx
    aefe:	48 8d 35 9f 22 00 00 	lea    0x229f(%rip),%rsi        # d1a4 <g_1259+0x114c>
    af05:	48 89 c7             	mov    %rax,%rdi
    af08:	e8 e6 a7 ff ff       	callq  56f3 <transparent_crc>
    af0d:	c7 45 f4 00 00 00 00 	movl   $0x0,-0xc(%rbp)
    af14:	eb 75                	jmp    af8b <main+0x688>
    af16:	c7 45 f8 00 00 00 00 	movl   $0x0,-0x8(%rbp)
    af1d:	eb 62                	jmp    af81 <main+0x67e>
    af1f:	8b 45 f8             	mov    -0x8(%rbp),%eax
    af22:	48 63 c8             	movslq %eax,%rcx
    af25:	8b 45 f4             	mov    -0xc(%rbp),%eax
    af28:	48 63 d0             	movslq %eax,%rdx
    af2b:	48 89 d0             	mov    %rdx,%rax
    af2e:	48 c1 e0 03          	shl    $0x3,%rax
    af32:	48 01 d0             	add    %rdx,%rax
    af35:	48 01 c8             	add    %rcx,%rax
    af38:	48 8d 14 85 00 00 00 	lea    0x0(,%rax,4),%rdx
    af3f:	00 
    af40:	48 8d 05 59 52 00 00 	lea    0x5259(%rip),%rax        # 101a0 <g_1134>
    af47:	8b 04 02             	mov    (%rdx,%rax,1),%eax
    af4a:	48 98                	cltq   
    af4c:	8b 55 fc             	mov    -0x4(%rbp),%edx
    af4f:	48 8d 35 54 22 00 00 	lea    0x2254(%rip),%rsi        # d1aa <g_1259+0x1152>
    af56:	48 89 c7             	mov    %rax,%rdi
    af59:	e8 95 a7 ff ff       	callq  56f3 <transparent_crc>
    af5e:	83 7d fc 00          	cmpl   $0x0,-0x4(%rbp)
    af62:	74 19                	je     af7d <main+0x67a>
    af64:	8b 55 f8             	mov    -0x8(%rbp),%edx
    af67:	8b 45 f4             	mov    -0xc(%rbp),%eax
    af6a:	89 c6                	mov    %eax,%esi
    af6c:	48 8d 3d 89 21 00 00 	lea    0x2189(%rip),%rdi        # d0fc <g_1259+0x10a4>
    af73:	b8 00 00 00 00       	mov    $0x0,%eax
    af78:	e8 03 91 ff ff       	callq  4080 <printf@plt>
    af7d:	83 45 f8 01          	addl   $0x1,-0x8(%rbp)
    af81:	83 7d f8 08          	cmpl   $0x8,-0x8(%rbp)
    af85:	7e 98                	jle    af1f <main+0x61c>
    af87:	83 45 f4 01          	addl   $0x1,-0xc(%rbp)
    af8b:	83 7d f4 09          	cmpl   $0x9,-0xc(%rbp)
    af8f:	7e 85                	jle    af16 <main+0x613>
    af91:	8b 05 71 53 00 00    	mov    0x5371(%rip),%eax        # 10308 <g_1209>
    af97:	89 c1                	mov    %eax,%ecx
    af99:	8b 45 fc             	mov    -0x4(%rbp),%eax
    af9c:	89 c2                	mov    %eax,%edx
    af9e:	48 8d 35 12 22 00 00 	lea    0x2212(%rip),%rsi        # d1b7 <g_1259+0x115f>
    afa5:	48 89 cf             	mov    %rcx,%rdi
    afa8:	e8 46 a7 ff ff       	callq  56f3 <transparent_crc>
    afad:	b8 36 ea 26 29       	mov    $0x2926ea36,%eax
    afb2:	48 98                	cltq   
    afb4:	8b 55 fc             	mov    -0x4(%rbp),%edx
    afb7:	48 8d 35 00 22 00 00 	lea    0x2200(%rip),%rsi        # d1be <g_1259+0x1166>
    afbe:	48 89 c7             	mov    %rax,%rdi
    afc1:	e8 2d a7 ff ff       	callq  56f3 <transparent_crc>
    afc6:	8b 05 4c 53 00 00    	mov    0x534c(%rip),%eax        # 10318 <g_1322>
    afcc:	48 98                	cltq   
    afce:	8b 55 fc             	mov    -0x4(%rbp),%edx
    afd1:	48 8d 35 ed 21 00 00 	lea    0x21ed(%rip),%rsi        # d1c5 <g_1259+0x116d>
    afd8:	48 89 c7             	mov    %rax,%rdi
    afdb:	e8 13 a7 ff ff       	callq  56f3 <transparent_crc>
    afe0:	8b 05 c2 6b 00 00    	mov    0x6bc2(%rip),%eax        # 11ba8 <g_1346>
    afe6:	48 98                	cltq   
    afe8:	8b 55 fc             	mov    -0x4(%rbp),%edx
    afeb:	48 8d 35 da 21 00 00 	lea    0x21da(%rip),%rsi        # d1cc <g_1259+0x1174>
    aff2:	48 89 c7             	mov    %rax,%rdi
    aff5:	e8 f9 a6 ff ff       	callq  56f3 <transparent_crc>
    affa:	8b 05 20 50 00 00    	mov    0x5020(%rip),%eax        # 10020 <crc32_context>
    b000:	f7 d0                	not    %eax
    b002:	89 c2                	mov    %eax,%edx
    b004:	8b 45 fc             	mov    -0x4(%rbp),%eax
    b007:	89 c6                	mov    %eax,%esi
    b009:	89 d7                	mov    %edx,%edi
    b00b:	e8 84 91 ff ff       	callq  4194 <platform_main_end>
    b010:	b8 00 00 00 00       	mov    $0x0,%eax
    b015:	c9                   	leaveq 
    b016:	c3                   	retq   
    b017:	66 0f 1f 84 00 00 00 	nopw   0x0(%rax,%rax,1)
    b01e:	00 00 

000000000000b020 <__libc_csu_init>:
    b020:	f3 0f 1e fa          	endbr64 
    b024:	41 57                	push   %r15
    b026:	4c 8d 3d 83 4b 00 00 	lea    0x4b83(%rip),%r15        # fbb0 <__frame_dummy_init_array_entry>
    b02d:	41 56                	push   %r14
    b02f:	49 89 d6             	mov    %rdx,%r14
    b032:	41 55                	push   %r13
    b034:	49 89 f5             	mov    %rsi,%r13
    b037:	41 54                	push   %r12
    b039:	41 89 fc             	mov    %edi,%r12d
    b03c:	55                   	push   %rbp
    b03d:	48 8d 2d 74 4b 00 00 	lea    0x4b74(%rip),%rbp        # fbb8 <__do_global_dtors_aux_fini_array_entry>
    b044:	53                   	push   %rbx
    b045:	4c 29 fd             	sub    %r15,%rbp
    b048:	48 83 ec 08          	sub    $0x8,%rsp
    b04c:	e8 af 8f ff ff       	callq  4000 <_init>
    b051:	48 c1 fd 03          	sar    $0x3,%rbp
    b055:	74 1f                	je     b076 <__libc_csu_init+0x56>
    b057:	31 db                	xor    %ebx,%ebx
    b059:	0f 1f 80 00 00 00 00 	nopl   0x0(%rax)
    b060:	4c 89 f2             	mov    %r14,%rdx
    b063:	4c 89 ee             	mov    %r13,%rsi
    b066:	44 89 e7             	mov    %r12d,%edi
    b069:	41 ff 14 df          	callq  *(%r15,%rbx,8)
    b06d:	48 83 c3 01          	add    $0x1,%rbx
    b071:	48 39 dd             	cmp    %rbx,%rbp
    b074:	75 ea                	jne    b060 <__libc_csu_init+0x40>
    b076:	48 83 c4 08          	add    $0x8,%rsp
    b07a:	5b                   	pop    %rbx
    b07b:	5d                   	pop    %rbp
    b07c:	41 5c                	pop    %r12
    b07e:	41 5d                	pop    %r13
    b080:	41 5e                	pop    %r14
    b082:	41 5f                	pop    %r15
    b084:	c3                   	retq   
    b085:	66 66 2e 0f 1f 84 00 	data16 nopw %cs:0x0(%rax,%rax,1)
    b08c:	00 00 00 00 

000000000000b090 <__libc_csu_fini>:
    b090:	f3 0f 1e fa          	endbr64 
    b094:	c3                   	retq   
