


Disassembly of section .text:

00000000000070a0 <_start>:
    70a0:	f3 0f 1e fa          	endbr64 
    70a4:	31 ed                	xor    %ebp,%ebp
    70a6:	49 89 d1             	mov    %rdx,%r9
    70a9:	5e                   	pop    %rsi
    70aa:	48 89 e2             	mov    %rsp,%rdx
    70ad:	48 83 e4 f0          	and    $0xfffffffffffffff0,%rsp
    70b1:	50                   	push   %rax
    70b2:	54                   	push   %rsp
    70b3:	4c 8d 05 e6 92 00 00 	lea    0x92e6(%rip),%r8        # 103a0 <__libc_csu_fini>
    70ba:	48 8d 0d 6f 92 00 00 	lea    0x926f(%rip),%rcx        # 10330 <__libc_csu_init>
    70c1:	48 8d 3d 68 65 00 00 	lea    0x6568(%rip),%rdi        # d630 <main>
    70c8:	ff 15 0a df 00 00    	callq  *0xdf0a(%rip)        # 14fd8 <__libc_start_main@GLIBC_2.2.5>
    70ce:	f4                   	hlt    
    70cf:	90                   	nop

00000000000070d0 <deregister_tm_clones>:
    70d0:	48 8d 3d 39 23 01 00 	lea    0x12339(%rip),%rdi        # 19410 <__TMC_END__>
    70d7:	48 8d 05 32 23 01 00 	lea    0x12332(%rip),%rax        # 19410 <__TMC_END__>
    70de:	48 39 f8             	cmp    %rdi,%rax
    70e1:	74 15                	je     70f8 <deregister_tm_clones+0x28>
    70e3:	48 8b 05 e6 de 00 00 	mov    0xdee6(%rip),%rax        # 14fd0 <_ITM_deregisterTMCloneTable>
    70ea:	48 85 c0             	test   %rax,%rax
    70ed:	74 09                	je     70f8 <deregister_tm_clones+0x28>
    70ef:	ff e0                	jmpq   *%rax
    70f1:	0f 1f 80 00 00 00 00 	nopl   0x0(%rax)
    70f8:	c3                   	retq   
    70f9:	0f 1f 80 00 00 00 00 	nopl   0x0(%rax)

0000000000007100 <register_tm_clones>:
    7100:	48 8d 3d 09 23 01 00 	lea    0x12309(%rip),%rdi        # 19410 <__TMC_END__>
    7107:	48 8d 35 02 23 01 00 	lea    0x12302(%rip),%rsi        # 19410 <__TMC_END__>
    710e:	48 29 fe             	sub    %rdi,%rsi
    7111:	48 89 f0             	mov    %rsi,%rax
    7114:	48 c1 ee 3f          	shr    $0x3f,%rsi
    7118:	48 c1 f8 03          	sar    $0x3,%rax
    711c:	48 01 c6             	add    %rax,%rsi
    711f:	48 d1 fe             	sar    %rsi
    7122:	74 14                	je     7138 <register_tm_clones+0x38>
    7124:	48 8b 05 bd de 00 00 	mov    0xdebd(%rip),%rax        # 14fe8 <_ITM_registerTMCloneTable>
    712b:	48 85 c0             	test   %rax,%rax
    712e:	74 08                	je     7138 <register_tm_clones+0x38>
    7130:	ff e0                	jmpq   *%rax
    7132:	66 0f 1f 44 00 00    	nopw   0x0(%rax,%rax,1)
    7138:	c3                   	retq   
    7139:	0f 1f 80 00 00 00 00 	nopl   0x0(%rax)

0000000000007140 <__do_global_dtors_aux>:
    7140:	f3 0f 1e fa          	endbr64 
    7144:	80 3d d5 22 01 00 00 	cmpb   $0x0,0x122d5(%rip)        # 19420 <completed.8061>
    714b:	75 2b                	jne    7178 <__do_global_dtors_aux+0x38>
    714d:	55                   	push   %rbp
    714e:	48 83 3d 9a de 00 00 	cmpq   $0x0,0xde9a(%rip)        # 14ff0 <__cxa_finalize@GLIBC_2.2.5>
    7155:	00 
    7156:	48 89 e5             	mov    %rsp,%rbp
    7159:	74 0c                	je     7167 <__do_global_dtors_aux+0x27>
    715b:	48 8b 3d a6 de 00 00 	mov    0xdea6(%rip),%rdi        # 15008 <__dso_handle>
    7162:	e8 f9 fe ff ff       	callq  7060 <__cxa_finalize@plt>
    7167:	e8 64 ff ff ff       	callq  70d0 <deregister_tm_clones>
    716c:	c6 05 ad 22 01 00 01 	movb   $0x1,0x122ad(%rip)        # 19420 <completed.8061>
    7173:	5d                   	pop    %rbp
    7174:	c3                   	retq   
    7175:	0f 1f 00             	nopl   (%rax)
    7178:	c3                   	retq   
    7179:	0f 1f 80 00 00 00 00 	nopl   0x0(%rax)

0000000000007180 <frame_dummy>:
    7180:	f3 0f 1e fa          	endbr64 
    7184:	e9 77 ff ff ff       	jmpq   7100 <register_tm_clones>

0000000000007189 <platform_main_begin>:
    7189:	f3 0f 1e fa          	endbr64 
    718d:	55                   	push   %rbp
    718e:	48 89 e5             	mov    %rsp,%rbp
    7191:	90                   	nop
    7192:	5d                   	pop    %rbp
    7193:	c3                   	retq   

0000000000007194 <platform_main_end>:
    7194:	f3 0f 1e fa          	endbr64 
    7198:	55                   	push   %rbp
    7199:	48 89 e5             	mov    %rsp,%rbp
    719c:	48 83 ec 10          	sub    $0x10,%rsp
    71a0:	89 7d fc             	mov    %edi,-0x4(%rbp)
    71a3:	89 75 f8             	mov    %esi,-0x8(%rbp)
    71a6:	8b 45 fc             	mov    -0x4(%rbp),%eax
    71a9:	89 c6                	mov    %eax,%esi
    71ab:	48 8d 3d 6e 9e 00 00 	lea    0x9e6e(%rip),%rdi        # 11020 <_IO_stdin_used+0x20>
    71b2:	b8 00 00 00 00       	mov    $0x0,%eax
    71b7:	e8 c4 fe ff ff       	callq  7080 <printf@plt>
    71bc:	90                   	nop
    71bd:	c9                   	leaveq 
    71be:	c3                   	retq   

00000000000071bf <safe_unary_minus_func_int8_t_s>:
    71bf:	f3 0f 1e fa          	endbr64 
    71c3:	55                   	push   %rbp
    71c4:	48 89 e5             	mov    %rsp,%rbp
    71c7:	89 f8                	mov    %edi,%eax
    71c9:	88 45 fc             	mov    %al,-0x4(%rbp)
    71cc:	0f b6 45 fc          	movzbl -0x4(%rbp),%eax
    71d0:	f7 d8                	neg    %eax
    71d2:	5d                   	pop    %rbp
    71d3:	c3                   	retq   

00000000000071d4 <safe_add_func_int8_t_s_s>:
    71d4:	f3 0f 1e fa          	endbr64 
    71d8:	55                   	push   %rbp
    71d9:	48 89 e5             	mov    %rsp,%rbp
    71dc:	89 fa                	mov    %edi,%edx
    71de:	89 f0                	mov    %esi,%eax
    71e0:	88 55 fc             	mov    %dl,-0x4(%rbp)
    71e3:	88 45 f8             	mov    %al,-0x8(%rbp)
    71e6:	0f b6 55 fc          	movzbl -0x4(%rbp),%edx
    71ea:	0f b6 45 f8          	movzbl -0x8(%rbp),%eax
    71ee:	01 d0                	add    %edx,%eax
    71f0:	5d                   	pop    %rbp
    71f1:	c3                   	retq   

00000000000071f2 <safe_sub_func_int8_t_s_s>:
    71f2:	f3 0f 1e fa          	endbr64 
    71f6:	55                   	push   %rbp
    71f7:	48 89 e5             	mov    %rsp,%rbp
    71fa:	89 fa                	mov    %edi,%edx
    71fc:	89 f0                	mov    %esi,%eax
    71fe:	88 55 fc             	mov    %dl,-0x4(%rbp)
    7201:	88 45 f8             	mov    %al,-0x8(%rbp)
    7204:	0f b6 55 fc          	movzbl -0x4(%rbp),%edx
    7208:	0f b6 45 f8          	movzbl -0x8(%rbp),%eax
    720c:	29 c2                	sub    %eax,%edx
    720e:	89 d0                	mov    %edx,%eax
    7210:	5d                   	pop    %rbp
    7211:	c3                   	retq   

0000000000007212 <safe_mul_func_int8_t_s_s>:
    7212:	f3 0f 1e fa          	endbr64 
    7216:	55                   	push   %rbp
    7217:	48 89 e5             	mov    %rsp,%rbp
    721a:	89 fa                	mov    %edi,%edx
    721c:	89 f0                	mov    %esi,%eax
    721e:	88 55 fc             	mov    %dl,-0x4(%rbp)
    7221:	88 45 f8             	mov    %al,-0x8(%rbp)
    7224:	0f b6 45 fc          	movzbl -0x4(%rbp),%eax
    7228:	0f b6 55 f8          	movzbl -0x8(%rbp),%edx
    722c:	0f af c2             	imul   %edx,%eax
    722f:	5d                   	pop    %rbp
    7230:	c3                   	retq   

0000000000007231 <safe_mod_func_int8_t_s_s>:
    7231:	f3 0f 1e fa          	endbr64 
    7235:	55                   	push   %rbp
    7236:	48 89 e5             	mov    %rsp,%rbp
    7239:	89 fa                	mov    %edi,%edx
    723b:	89 f0                	mov    %esi,%eax
    723d:	88 55 fc             	mov    %dl,-0x4(%rbp)
    7240:	88 45 f8             	mov    %al,-0x8(%rbp)
    7243:	80 7d f8 00          	cmpb   $0x0,-0x8(%rbp)
    7247:	74 1b                	je     7264 <safe_mod_func_int8_t_s_s+0x33>
    7249:	80 7d fc 80          	cmpb   $0x80,-0x4(%rbp)
    724d:	75 06                	jne    7255 <safe_mod_func_int8_t_s_s+0x24>
    724f:	80 7d f8 ff          	cmpb   $0xff,-0x8(%rbp)
    7253:	74 0f                	je     7264 <safe_mod_func_int8_t_s_s+0x33>
    7255:	0f be 45 fc          	movsbl -0x4(%rbp),%eax
    7259:	0f be 4d f8          	movsbl -0x8(%rbp),%ecx
    725d:	99                   	cltd   
    725e:	f7 f9                	idiv   %ecx
    7260:	89 d0                	mov    %edx,%eax
    7262:	eb 04                	jmp    7268 <safe_mod_func_int8_t_s_s+0x37>
    7264:	0f b6 45 fc          	movzbl -0x4(%rbp),%eax
    7268:	5d                   	pop    %rbp
    7269:	c3                   	retq   

000000000000726a <safe_div_func_int8_t_s_s>:
    726a:	f3 0f 1e fa          	endbr64 
    726e:	55                   	push   %rbp
    726f:	48 89 e5             	mov    %rsp,%rbp
    7272:	89 fa                	mov    %edi,%edx
    7274:	89 f0                	mov    %esi,%eax
    7276:	88 55 fc             	mov    %dl,-0x4(%rbp)
    7279:	88 45 f8             	mov    %al,-0x8(%rbp)
    727c:	80 7d f8 00          	cmpb   $0x0,-0x8(%rbp)
    7280:	74 19                	je     729b <safe_div_func_int8_t_s_s+0x31>
    7282:	80 7d fc 80          	cmpb   $0x80,-0x4(%rbp)
    7286:	75 06                	jne    728e <safe_div_func_int8_t_s_s+0x24>
    7288:	80 7d f8 ff          	cmpb   $0xff,-0x8(%rbp)
    728c:	74 0d                	je     729b <safe_div_func_int8_t_s_s+0x31>
    728e:	0f be 45 fc          	movsbl -0x4(%rbp),%eax
    7292:	0f be 4d f8          	movsbl -0x8(%rbp),%ecx
    7296:	99                   	cltd   
    7297:	f7 f9                	idiv   %ecx
    7299:	eb 04                	jmp    729f <safe_div_func_int8_t_s_s+0x35>
    729b:	0f b6 45 fc          	movzbl -0x4(%rbp),%eax
    729f:	5d                   	pop    %rbp
    72a0:	c3                   	retq   

00000000000072a1 <safe_lshift_func_int8_t_s_s>:
    72a1:	f3 0f 1e fa          	endbr64 
    72a5:	55                   	push   %rbp
    72a6:	48 89 e5             	mov    %rsp,%rbp
    72a9:	89 f8                	mov    %edi,%eax
    72ab:	89 75 f8             	mov    %esi,-0x8(%rbp)
    72ae:	88 45 fc             	mov    %al,-0x4(%rbp)
    72b1:	80 7d fc 00          	cmpb   $0x0,-0x4(%rbp)
    72b5:	78 31                	js     72e8 <safe_lshift_func_int8_t_s_s+0x47>
    72b7:	83 7d f8 00          	cmpl   $0x0,-0x8(%rbp)
    72bb:	78 2b                	js     72e8 <safe_lshift_func_int8_t_s_s+0x47>
    72bd:	83 7d f8 1f          	cmpl   $0x1f,-0x8(%rbp)
    72c1:	7f 25                	jg     72e8 <safe_lshift_func_int8_t_s_s+0x47>
    72c3:	0f be 55 fc          	movsbl -0x4(%rbp),%edx
    72c7:	8b 45 f8             	mov    -0x8(%rbp),%eax
    72ca:	be 7f 00 00 00       	mov    $0x7f,%esi
    72cf:	89 c1                	mov    %eax,%ecx
    72d1:	d3 fe                	sar    %cl,%esi
    72d3:	89 f0                	mov    %esi,%eax
    72d5:	39 c2                	cmp    %eax,%edx
    72d7:	7f 0f                	jg     72e8 <safe_lshift_func_int8_t_s_s+0x47>
    72d9:	0f be 55 fc          	movsbl -0x4(%rbp),%edx
    72dd:	8b 45 f8             	mov    -0x8(%rbp),%eax
    72e0:	89 c1                	mov    %eax,%ecx
    72e2:	d3 e2                	shl    %cl,%edx
    72e4:	89 d0                	mov    %edx,%eax
    72e6:	eb 04                	jmp    72ec <safe_lshift_func_int8_t_s_s+0x4b>
    72e8:	0f b6 45 fc          	movzbl -0x4(%rbp),%eax
    72ec:	5d                   	pop    %rbp
    72ed:	c3                   	retq   

00000000000072ee <safe_lshift_func_int8_t_s_u>:
    72ee:	f3 0f 1e fa          	endbr64 
    72f2:	55                   	push   %rbp
    72f3:	48 89 e5             	mov    %rsp,%rbp
    72f6:	89 f8                	mov    %edi,%eax
    72f8:	89 75 f8             	mov    %esi,-0x8(%rbp)
    72fb:	88 45 fc             	mov    %al,-0x4(%rbp)
    72fe:	80 7d fc 00          	cmpb   $0x0,-0x4(%rbp)
    7302:	78 2b                	js     732f <safe_lshift_func_int8_t_s_u+0x41>
    7304:	83 7d f8 1f          	cmpl   $0x1f,-0x8(%rbp)
    7308:	77 25                	ja     732f <safe_lshift_func_int8_t_s_u+0x41>
    730a:	0f be 55 fc          	movsbl -0x4(%rbp),%edx
    730e:	8b 45 f8             	mov    -0x8(%rbp),%eax
    7311:	be 7f 00 00 00       	mov    $0x7f,%esi
    7316:	89 c1                	mov    %eax,%ecx
    7318:	d3 fe                	sar    %cl,%esi
    731a:	89 f0                	mov    %esi,%eax
    731c:	39 c2                	cmp    %eax,%edx
    731e:	7f 0f                	jg     732f <safe_lshift_func_int8_t_s_u+0x41>
    7320:	0f be 55 fc          	movsbl -0x4(%rbp),%edx
    7324:	8b 45 f8             	mov    -0x8(%rbp),%eax
    7327:	89 c1                	mov    %eax,%ecx
    7329:	d3 e2                	shl    %cl,%edx
    732b:	89 d0                	mov    %edx,%eax
    732d:	eb 04                	jmp    7333 <safe_lshift_func_int8_t_s_u+0x45>
    732f:	0f b6 45 fc          	movzbl -0x4(%rbp),%eax
    7333:	5d                   	pop    %rbp
    7334:	c3                   	retq   

0000000000007335 <safe_rshift_func_int8_t_s_s>:
    7335:	f3 0f 1e fa          	endbr64 
    7339:	55                   	push   %rbp
    733a:	48 89 e5             	mov    %rsp,%rbp
    733d:	89 f8                	mov    %edi,%eax
    733f:	89 75 f8             	mov    %esi,-0x8(%rbp)
    7342:	88 45 fc             	mov    %al,-0x4(%rbp)
    7345:	80 7d fc 00          	cmpb   $0x0,-0x4(%rbp)
    7349:	78 1b                	js     7366 <safe_rshift_func_int8_t_s_s+0x31>
    734b:	83 7d f8 00          	cmpl   $0x0,-0x8(%rbp)
    734f:	78 15                	js     7366 <safe_rshift_func_int8_t_s_s+0x31>
    7351:	83 7d f8 1f          	cmpl   $0x1f,-0x8(%rbp)
    7355:	7f 0f                	jg     7366 <safe_rshift_func_int8_t_s_s+0x31>
    7357:	0f be 55 fc          	movsbl -0x4(%rbp),%edx
    735b:	8b 45 f8             	mov    -0x8(%rbp),%eax
    735e:	89 c1                	mov    %eax,%ecx
    7360:	d3 fa                	sar    %cl,%edx
    7362:	89 d0                	mov    %edx,%eax
    7364:	eb 04                	jmp    736a <safe_rshift_func_int8_t_s_s+0x35>
    7366:	0f b6 45 fc          	movzbl -0x4(%rbp),%eax
    736a:	5d                   	pop    %rbp
    736b:	c3                   	retq   

000000000000736c <safe_rshift_func_int8_t_s_u>:
    736c:	f3 0f 1e fa          	endbr64 
    7370:	55                   	push   %rbp
    7371:	48 89 e5             	mov    %rsp,%rbp
    7374:	89 f8                	mov    %edi,%eax
    7376:	89 75 f8             	mov    %esi,-0x8(%rbp)
    7379:	88 45 fc             	mov    %al,-0x4(%rbp)
    737c:	80 7d fc 00          	cmpb   $0x0,-0x4(%rbp)
    7380:	78 15                	js     7397 <safe_rshift_func_int8_t_s_u+0x2b>
    7382:	83 7d f8 1f          	cmpl   $0x1f,-0x8(%rbp)
    7386:	77 0f                	ja     7397 <safe_rshift_func_int8_t_s_u+0x2b>
    7388:	0f be 55 fc          	movsbl -0x4(%rbp),%edx
    738c:	8b 45 f8             	mov    -0x8(%rbp),%eax
    738f:	89 c1                	mov    %eax,%ecx
    7391:	d3 fa                	sar    %cl,%edx
    7393:	89 d0                	mov    %edx,%eax
    7395:	eb 04                	jmp    739b <safe_rshift_func_int8_t_s_u+0x2f>
    7397:	0f b6 45 fc          	movzbl -0x4(%rbp),%eax
    739b:	5d                   	pop    %rbp
    739c:	c3                   	retq   

000000000000739d <safe_unary_minus_func_int16_t_s>:
    739d:	f3 0f 1e fa          	endbr64 
    73a1:	55                   	push   %rbp
    73a2:	48 89 e5             	mov    %rsp,%rbp
    73a5:	89 f8                	mov    %edi,%eax
    73a7:	66 89 45 fc          	mov    %ax,-0x4(%rbp)
    73ab:	0f b7 45 fc          	movzwl -0x4(%rbp),%eax
    73af:	f7 d8                	neg    %eax
    73b1:	5d                   	pop    %rbp
    73b2:	c3                   	retq   

00000000000073b3 <safe_add_func_int16_t_s_s>:
    73b3:	f3 0f 1e fa          	endbr64 
    73b7:	55                   	push   %rbp
    73b8:	48 89 e5             	mov    %rsp,%rbp
    73bb:	89 fa                	mov    %edi,%edx
    73bd:	89 f0                	mov    %esi,%eax
    73bf:	66 89 55 fc          	mov    %dx,-0x4(%rbp)
    73c3:	66 89 45 f8          	mov    %ax,-0x8(%rbp)
    73c7:	0f b7 55 fc          	movzwl -0x4(%rbp),%edx
    73cb:	0f b7 45 f8          	movzwl -0x8(%rbp),%eax
    73cf:	01 d0                	add    %edx,%eax
    73d1:	5d                   	pop    %rbp
    73d2:	c3                   	retq   

00000000000073d3 <safe_sub_func_int16_t_s_s>:
    73d3:	f3 0f 1e fa          	endbr64 
    73d7:	55                   	push   %rbp
    73d8:	48 89 e5             	mov    %rsp,%rbp
    73db:	89 fa                	mov    %edi,%edx
    73dd:	89 f0                	mov    %esi,%eax
    73df:	66 89 55 fc          	mov    %dx,-0x4(%rbp)
    73e3:	66 89 45 f8          	mov    %ax,-0x8(%rbp)
    73e7:	0f b7 55 fc          	movzwl -0x4(%rbp),%edx
    73eb:	0f b7 45 f8          	movzwl -0x8(%rbp),%eax
    73ef:	29 c2                	sub    %eax,%edx
    73f1:	89 d0                	mov    %edx,%eax
    73f3:	5d                   	pop    %rbp
    73f4:	c3                   	retq   

00000000000073f5 <safe_mul_func_int16_t_s_s>:
    73f5:	f3 0f 1e fa          	endbr64 
    73f9:	55                   	push   %rbp
    73fa:	48 89 e5             	mov    %rsp,%rbp
    73fd:	89 fa                	mov    %edi,%edx
    73ff:	89 f0                	mov    %esi,%eax
    7401:	66 89 55 fc          	mov    %dx,-0x4(%rbp)
    7405:	66 89 45 f8          	mov    %ax,-0x8(%rbp)
    7409:	0f b7 55 fc          	movzwl -0x4(%rbp),%edx
    740d:	0f b7 45 f8          	movzwl -0x8(%rbp),%eax
    7411:	0f af c2             	imul   %edx,%eax
    7414:	5d                   	pop    %rbp
    7415:	c3                   	retq   

0000000000007416 <safe_mod_func_int16_t_s_s>:
    7416:	f3 0f 1e fa          	endbr64 
    741a:	55                   	push   %rbp
    741b:	48 89 e5             	mov    %rsp,%rbp
    741e:	89 fa                	mov    %edi,%edx
    7420:	89 f0                	mov    %esi,%eax
    7422:	66 89 55 fc          	mov    %dx,-0x4(%rbp)
    7426:	66 89 45 f8          	mov    %ax,-0x8(%rbp)
    742a:	66 83 7d f8 00       	cmpw   $0x0,-0x8(%rbp)
    742f:	74 1e                	je     744f <safe_mod_func_int16_t_s_s+0x39>
    7431:	66 81 7d fc 00 80    	cmpw   $0x8000,-0x4(%rbp)
    7437:	75 07                	jne    7440 <safe_mod_func_int16_t_s_s+0x2a>
    7439:	66 83 7d f8 ff       	cmpw   $0xffff,-0x8(%rbp)
    743e:	74 0f                	je     744f <safe_mod_func_int16_t_s_s+0x39>
    7440:	0f bf 45 fc          	movswl -0x4(%rbp),%eax
    7444:	0f bf 4d f8          	movswl -0x8(%rbp),%ecx
    7448:	99                   	cltd   
    7449:	f7 f9                	idiv   %ecx
    744b:	89 d0                	mov    %edx,%eax
    744d:	eb 04                	jmp    7453 <safe_mod_func_int16_t_s_s+0x3d>
    744f:	0f b7 45 fc          	movzwl -0x4(%rbp),%eax
    7453:	5d                   	pop    %rbp
    7454:	c3                   	retq   

0000000000007455 <safe_div_func_int16_t_s_s>:
    7455:	f3 0f 1e fa          	endbr64 
    7459:	55                   	push   %rbp
    745a:	48 89 e5             	mov    %rsp,%rbp
    745d:	89 fa                	mov    %edi,%edx
    745f:	89 f0                	mov    %esi,%eax
    7461:	66 89 55 fc          	mov    %dx,-0x4(%rbp)
    7465:	66 89 45 f8          	mov    %ax,-0x8(%rbp)
    7469:	66 83 7d f8 00       	cmpw   $0x0,-0x8(%rbp)
    746e:	74 1c                	je     748c <safe_div_func_int16_t_s_s+0x37>
    7470:	66 81 7d fc 00 80    	cmpw   $0x8000,-0x4(%rbp)
    7476:	75 07                	jne    747f <safe_div_func_int16_t_s_s+0x2a>
    7478:	66 83 7d f8 ff       	cmpw   $0xffff,-0x8(%rbp)
    747d:	74 0d                	je     748c <safe_div_func_int16_t_s_s+0x37>
    747f:	0f bf 45 fc          	movswl -0x4(%rbp),%eax
    7483:	0f bf 4d f8          	movswl -0x8(%rbp),%ecx
    7487:	99                   	cltd   
    7488:	f7 f9                	idiv   %ecx
    748a:	eb 04                	jmp    7490 <safe_div_func_int16_t_s_s+0x3b>
    748c:	0f b7 45 fc          	movzwl -0x4(%rbp),%eax
    7490:	5d                   	pop    %rbp
    7491:	c3                   	retq   

0000000000007492 <safe_lshift_func_int16_t_s_s>:
    7492:	f3 0f 1e fa          	endbr64 
    7496:	55                   	push   %rbp
    7497:	48 89 e5             	mov    %rsp,%rbp
    749a:	89 f8                	mov    %edi,%eax
    749c:	89 75 f8             	mov    %esi,-0x8(%rbp)
    749f:	66 89 45 fc          	mov    %ax,-0x4(%rbp)
    74a3:	66 83 7d fc 00       	cmpw   $0x0,-0x4(%rbp)
    74a8:	78 31                	js     74db <safe_lshift_func_int16_t_s_s+0x49>
    74aa:	83 7d f8 00          	cmpl   $0x0,-0x8(%rbp)
    74ae:	78 2b                	js     74db <safe_lshift_func_int16_t_s_s+0x49>
    74b0:	83 7d f8 1f          	cmpl   $0x1f,-0x8(%rbp)
    74b4:	7f 25                	jg     74db <safe_lshift_func_int16_t_s_s+0x49>
    74b6:	0f bf 55 fc          	movswl -0x4(%rbp),%edx
    74ba:	8b 45 f8             	mov    -0x8(%rbp),%eax
    74bd:	be ff 7f 00 00       	mov    $0x7fff,%esi
    74c2:	89 c1                	mov    %eax,%ecx
    74c4:	d3 fe                	sar    %cl,%esi
    74c6:	89 f0                	mov    %esi,%eax
    74c8:	39 c2                	cmp    %eax,%edx
    74ca:	7f 0f                	jg     74db <safe_lshift_func_int16_t_s_s+0x49>
    74cc:	0f bf 55 fc          	movswl -0x4(%rbp),%edx
    74d0:	8b 45 f8             	mov    -0x8(%rbp),%eax
    74d3:	89 c1                	mov    %eax,%ecx
    74d5:	d3 e2                	shl    %cl,%edx
    74d7:	89 d0                	mov    %edx,%eax
    74d9:	eb 04                	jmp    74df <safe_lshift_func_int16_t_s_s+0x4d>
    74db:	0f b7 45 fc          	movzwl -0x4(%rbp),%eax
    74df:	5d                   	pop    %rbp
    74e0:	c3                   	retq   

00000000000074e1 <safe_lshift_func_int16_t_s_u>:
    74e1:	f3 0f 1e fa          	endbr64 
    74e5:	55                   	push   %rbp
    74e6:	48 89 e5             	mov    %rsp,%rbp
    74e9:	89 f8                	mov    %edi,%eax
    74eb:	89 75 f8             	mov    %esi,-0x8(%rbp)
    74ee:	66 89 45 fc          	mov    %ax,-0x4(%rbp)
    74f2:	66 83 7d fc 00       	cmpw   $0x0,-0x4(%rbp)
    74f7:	78 2b                	js     7524 <safe_lshift_func_int16_t_s_u+0x43>
    74f9:	83 7d f8 1f          	cmpl   $0x1f,-0x8(%rbp)
    74fd:	77 25                	ja     7524 <safe_lshift_func_int16_t_s_u+0x43>
    74ff:	0f bf 55 fc          	movswl -0x4(%rbp),%edx
    7503:	8b 45 f8             	mov    -0x8(%rbp),%eax
    7506:	be ff 7f 00 00       	mov    $0x7fff,%esi
    750b:	89 c1                	mov    %eax,%ecx
    750d:	d3 fe                	sar    %cl,%esi
    750f:	89 f0                	mov    %esi,%eax
    7511:	39 c2                	cmp    %eax,%edx
    7513:	7f 0f                	jg     7524 <safe_lshift_func_int16_t_s_u+0x43>
    7515:	0f bf 55 fc          	movswl -0x4(%rbp),%edx
    7519:	8b 45 f8             	mov    -0x8(%rbp),%eax
    751c:	89 c1                	mov    %eax,%ecx
    751e:	d3 e2                	shl    %cl,%edx
    7520:	89 d0                	mov    %edx,%eax
    7522:	eb 04                	jmp    7528 <safe_lshift_func_int16_t_s_u+0x47>
    7524:	0f b7 45 fc          	movzwl -0x4(%rbp),%eax
    7528:	5d                   	pop    %rbp
    7529:	c3                   	retq   

000000000000752a <safe_rshift_func_int16_t_s_s>:
    752a:	f3 0f 1e fa          	endbr64 
    752e:	55                   	push   %rbp
    752f:	48 89 e5             	mov    %rsp,%rbp
    7532:	89 f8                	mov    %edi,%eax
    7534:	89 75 f8             	mov    %esi,-0x8(%rbp)
    7537:	66 89 45 fc          	mov    %ax,-0x4(%rbp)
    753b:	66 83 7d fc 00       	cmpw   $0x0,-0x4(%rbp)
    7540:	78 1b                	js     755d <safe_rshift_func_int16_t_s_s+0x33>
    7542:	83 7d f8 00          	cmpl   $0x0,-0x8(%rbp)
    7546:	78 15                	js     755d <safe_rshift_func_int16_t_s_s+0x33>
    7548:	83 7d f8 1f          	cmpl   $0x1f,-0x8(%rbp)
    754c:	7f 0f                	jg     755d <safe_rshift_func_int16_t_s_s+0x33>
    754e:	0f bf 55 fc          	movswl -0x4(%rbp),%edx
    7552:	8b 45 f8             	mov    -0x8(%rbp),%eax
    7555:	89 c1                	mov    %eax,%ecx
    7557:	d3 fa                	sar    %cl,%edx
    7559:	89 d0                	mov    %edx,%eax
    755b:	eb 04                	jmp    7561 <safe_rshift_func_int16_t_s_s+0x37>
    755d:	0f b7 45 fc          	movzwl -0x4(%rbp),%eax
    7561:	5d                   	pop    %rbp
    7562:	c3                   	retq   

0000000000007563 <safe_rshift_func_int16_t_s_u>:
    7563:	f3 0f 1e fa          	endbr64 
    7567:	55                   	push   %rbp
    7568:	48 89 e5             	mov    %rsp,%rbp
    756b:	89 f8                	mov    %edi,%eax
    756d:	89 75 f8             	mov    %esi,-0x8(%rbp)
    7570:	66 89 45 fc          	mov    %ax,-0x4(%rbp)
    7574:	66 83 7d fc 00       	cmpw   $0x0,-0x4(%rbp)
    7579:	78 15                	js     7590 <safe_rshift_func_int16_t_s_u+0x2d>
    757b:	83 7d f8 1f          	cmpl   $0x1f,-0x8(%rbp)
    757f:	77 0f                	ja     7590 <safe_rshift_func_int16_t_s_u+0x2d>
    7581:	0f bf 55 fc          	movswl -0x4(%rbp),%edx
    7585:	8b 45 f8             	mov    -0x8(%rbp),%eax
    7588:	89 c1                	mov    %eax,%ecx
    758a:	d3 fa                	sar    %cl,%edx
    758c:	89 d0                	mov    %edx,%eax
    758e:	eb 04                	jmp    7594 <safe_rshift_func_int16_t_s_u+0x31>
    7590:	0f b7 45 fc          	movzwl -0x4(%rbp),%eax
    7594:	5d                   	pop    %rbp
    7595:	c3                   	retq   

0000000000007596 <safe_unary_minus_func_int32_t_s>:
    7596:	f3 0f 1e fa          	endbr64 
    759a:	55                   	push   %rbp
    759b:	48 89 e5             	mov    %rsp,%rbp
    759e:	89 7d fc             	mov    %edi,-0x4(%rbp)
    75a1:	81 7d fc 00 00 00 80 	cmpl   $0x80000000,-0x4(%rbp)
    75a8:	74 07                	je     75b1 <safe_unary_minus_func_int32_t_s+0x1b>
    75aa:	8b 45 fc             	mov    -0x4(%rbp),%eax
    75ad:	f7 d8                	neg    %eax
    75af:	eb 03                	jmp    75b4 <safe_unary_minus_func_int32_t_s+0x1e>
    75b1:	8b 45 fc             	mov    -0x4(%rbp),%eax
    75b4:	5d                   	pop    %rbp
    75b5:	c3                   	retq   

00000000000075b6 <safe_add_func_int32_t_s_s>:
    75b6:	f3 0f 1e fa          	endbr64 
    75ba:	55                   	push   %rbp
    75bb:	48 89 e5             	mov    %rsp,%rbp
    75be:	89 7d fc             	mov    %edi,-0x4(%rbp)
    75c1:	89 75 f8             	mov    %esi,-0x8(%rbp)
    75c4:	83 7d fc 00          	cmpl   $0x0,-0x4(%rbp)
    75c8:	7e 13                	jle    75dd <safe_add_func_int32_t_s_s+0x27>
    75ca:	83 7d f8 00          	cmpl   $0x0,-0x8(%rbp)
    75ce:	7e 0d                	jle    75dd <safe_add_func_int32_t_s_s+0x27>
    75d0:	b8 ff ff ff 7f       	mov    $0x7fffffff,%eax
    75d5:	2b 45 f8             	sub    -0x8(%rbp),%eax
    75d8:	39 45 fc             	cmp    %eax,-0x4(%rbp)
    75db:	7f 23                	jg     7600 <safe_add_func_int32_t_s_s+0x4a>
    75dd:	83 7d fc 00          	cmpl   $0x0,-0x4(%rbp)
    75e1:	79 13                	jns    75f6 <safe_add_func_int32_t_s_s+0x40>
    75e3:	83 7d f8 00          	cmpl   $0x0,-0x8(%rbp)
    75e7:	79 0d                	jns    75f6 <safe_add_func_int32_t_s_s+0x40>
    75e9:	b8 00 00 00 80       	mov    $0x80000000,%eax
    75ee:	2b 45 f8             	sub    -0x8(%rbp),%eax
    75f1:	39 45 fc             	cmp    %eax,-0x4(%rbp)
    75f4:	7c 0a                	jl     7600 <safe_add_func_int32_t_s_s+0x4a>
    75f6:	8b 55 fc             	mov    -0x4(%rbp),%edx
    75f9:	8b 45 f8             	mov    -0x8(%rbp),%eax
    75fc:	01 d0                	add    %edx,%eax
    75fe:	eb 03                	jmp    7603 <safe_add_func_int32_t_s_s+0x4d>
    7600:	8b 45 fc             	mov    -0x4(%rbp),%eax
    7603:	5d                   	pop    %rbp
    7604:	c3                   	retq   

0000000000007605 <safe_sub_func_int32_t_s_s>:
    7605:	f3 0f 1e fa          	endbr64 
    7609:	55                   	push   %rbp
    760a:	48 89 e5             	mov    %rsp,%rbp
    760d:	89 7d fc             	mov    %edi,-0x4(%rbp)
    7610:	89 75 f8             	mov    %esi,-0x8(%rbp)
    7613:	8b 45 fc             	mov    -0x4(%rbp),%eax
    7616:	33 45 f8             	xor    -0x8(%rbp),%eax
    7619:	89 c2                	mov    %eax,%edx
    761b:	8b 45 fc             	mov    -0x4(%rbp),%eax
    761e:	33 45 f8             	xor    -0x8(%rbp),%eax
    7621:	25 00 00 00 80       	and    $0x80000000,%eax
    7626:	33 45 fc             	xor    -0x4(%rbp),%eax
    7629:	2b 45 f8             	sub    -0x8(%rbp),%eax
    762c:	33 45 f8             	xor    -0x8(%rbp),%eax
    762f:	21 d0                	and    %edx,%eax
    7631:	85 c0                	test   %eax,%eax
    7633:	78 08                	js     763d <safe_sub_func_int32_t_s_s+0x38>
    7635:	8b 45 fc             	mov    -0x4(%rbp),%eax
    7638:	2b 45 f8             	sub    -0x8(%rbp),%eax
    763b:	eb 03                	jmp    7640 <safe_sub_func_int32_t_s_s+0x3b>
    763d:	8b 45 fc             	mov    -0x4(%rbp),%eax
    7640:	5d                   	pop    %rbp
    7641:	c3                   	retq   

0000000000007642 <safe_mul_func_int32_t_s_s>:
    7642:	f3 0f 1e fa          	endbr64 
    7646:	55                   	push   %rbp
    7647:	48 89 e5             	mov    %rsp,%rbp
    764a:	89 7d fc             	mov    %edi,-0x4(%rbp)
    764d:	89 75 f8             	mov    %esi,-0x8(%rbp)
    7650:	83 7d fc 00          	cmpl   $0x0,-0x4(%rbp)
    7654:	7e 14                	jle    766a <safe_mul_func_int32_t_s_s+0x28>
    7656:	83 7d f8 00          	cmpl   $0x0,-0x8(%rbp)
    765a:	7e 0e                	jle    766a <safe_mul_func_int32_t_s_s+0x28>
    765c:	b8 ff ff ff 7f       	mov    $0x7fffffff,%eax
    7661:	99                   	cltd   
    7662:	f7 7d f8             	idivl  -0x8(%rbp)
    7665:	39 45 fc             	cmp    %eax,-0x4(%rbp)
    7668:	7f 5d                	jg     76c7 <safe_mul_func_int32_t_s_s+0x85>
    766a:	83 7d fc 00          	cmpl   $0x0,-0x4(%rbp)
    766e:	7e 14                	jle    7684 <safe_mul_func_int32_t_s_s+0x42>
    7670:	83 7d f8 00          	cmpl   $0x0,-0x8(%rbp)
    7674:	7f 0e                	jg     7684 <safe_mul_func_int32_t_s_s+0x42>
    7676:	b8 00 00 00 80       	mov    $0x80000000,%eax
    767b:	99                   	cltd   
    767c:	f7 7d fc             	idivl  -0x4(%rbp)
    767f:	39 45 f8             	cmp    %eax,-0x8(%rbp)
    7682:	7c 43                	jl     76c7 <safe_mul_func_int32_t_s_s+0x85>
    7684:	83 7d fc 00          	cmpl   $0x0,-0x4(%rbp)
    7688:	7f 14                	jg     769e <safe_mul_func_int32_t_s_s+0x5c>
    768a:	83 7d f8 00          	cmpl   $0x0,-0x8(%rbp)
    768e:	7e 0e                	jle    769e <safe_mul_func_int32_t_s_s+0x5c>
    7690:	b8 00 00 00 80       	mov    $0x80000000,%eax
    7695:	99                   	cltd   
    7696:	f7 7d f8             	idivl  -0x8(%rbp)
    7699:	39 45 fc             	cmp    %eax,-0x4(%rbp)
    769c:	7c 29                	jl     76c7 <safe_mul_func_int32_t_s_s+0x85>
    769e:	83 7d fc 00          	cmpl   $0x0,-0x4(%rbp)
    76a2:	7f 1a                	jg     76be <safe_mul_func_int32_t_s_s+0x7c>
    76a4:	83 7d f8 00          	cmpl   $0x0,-0x8(%rbp)
    76a8:	7f 14                	jg     76be <safe_mul_func_int32_t_s_s+0x7c>
    76aa:	83 7d fc 00          	cmpl   $0x0,-0x4(%rbp)
    76ae:	74 0e                	je     76be <safe_mul_func_int32_t_s_s+0x7c>
    76b0:	b8 ff ff ff 7f       	mov    $0x7fffffff,%eax
    76b5:	99                   	cltd   
    76b6:	f7 7d fc             	idivl  -0x4(%rbp)
    76b9:	39 45 f8             	cmp    %eax,-0x8(%rbp)
    76bc:	7c 09                	jl     76c7 <safe_mul_func_int32_t_s_s+0x85>
    76be:	8b 45 fc             	mov    -0x4(%rbp),%eax
    76c1:	0f af 45 f8          	imul   -0x8(%rbp),%eax
    76c5:	eb 03                	jmp    76ca <safe_mul_func_int32_t_s_s+0x88>
    76c7:	8b 45 fc             	mov    -0x4(%rbp),%eax
    76ca:	5d                   	pop    %rbp
    76cb:	c3                   	retq   

00000000000076cc <safe_mod_func_int32_t_s_s>:
    76cc:	f3 0f 1e fa          	endbr64 
    76d0:	55                   	push   %rbp
    76d1:	48 89 e5             	mov    %rsp,%rbp
    76d4:	89 7d fc             	mov    %edi,-0x4(%rbp)
    76d7:	89 75 f8             	mov    %esi,-0x8(%rbp)
    76da:	83 7d f8 00          	cmpl   $0x0,-0x8(%rbp)
    76de:	74 1a                	je     76fa <safe_mod_func_int32_t_s_s+0x2e>
    76e0:	81 7d fc 00 00 00 80 	cmpl   $0x80000000,-0x4(%rbp)
    76e7:	75 06                	jne    76ef <safe_mod_func_int32_t_s_s+0x23>
    76e9:	83 7d f8 ff          	cmpl   $0xffffffff,-0x8(%rbp)
    76ed:	74 0b                	je     76fa <safe_mod_func_int32_t_s_s+0x2e>
    76ef:	8b 45 fc             	mov    -0x4(%rbp),%eax
    76f2:	99                   	cltd   
    76f3:	f7 7d f8             	idivl  -0x8(%rbp)
    76f6:	89 d0                	mov    %edx,%eax
    76f8:	eb 03                	jmp    76fd <safe_mod_func_int32_t_s_s+0x31>
    76fa:	8b 45 fc             	mov    -0x4(%rbp),%eax
    76fd:	5d                   	pop    %rbp
    76fe:	c3                   	retq   

00000000000076ff <safe_div_func_int32_t_s_s>:
    76ff:	f3 0f 1e fa          	endbr64 
    7703:	55                   	push   %rbp
    7704:	48 89 e5             	mov    %rsp,%rbp
    7707:	89 7d fc             	mov    %edi,-0x4(%rbp)
    770a:	89 75 f8             	mov    %esi,-0x8(%rbp)
    770d:	83 7d f8 00          	cmpl   $0x0,-0x8(%rbp)
    7711:	74 18                	je     772b <safe_div_func_int32_t_s_s+0x2c>
    7713:	81 7d fc 00 00 00 80 	cmpl   $0x80000000,-0x4(%rbp)
    771a:	75 06                	jne    7722 <safe_div_func_int32_t_s_s+0x23>
    771c:	83 7d f8 ff          	cmpl   $0xffffffff,-0x8(%rbp)
    7720:	74 09                	je     772b <safe_div_func_int32_t_s_s+0x2c>
    7722:	8b 45 fc             	mov    -0x4(%rbp),%eax
    7725:	99                   	cltd   
    7726:	f7 7d f8             	idivl  -0x8(%rbp)
    7729:	eb 03                	jmp    772e <safe_div_func_int32_t_s_s+0x2f>
    772b:	8b 45 fc             	mov    -0x4(%rbp),%eax
    772e:	5d                   	pop    %rbp
    772f:	c3                   	retq   

0000000000007730 <safe_lshift_func_int32_t_s_s>:
    7730:	f3 0f 1e fa          	endbr64 
    7734:	55                   	push   %rbp
    7735:	48 89 e5             	mov    %rsp,%rbp
    7738:	89 7d fc             	mov    %edi,-0x4(%rbp)
    773b:	89 75 f8             	mov    %esi,-0x8(%rbp)
    773e:	83 7d fc 00          	cmpl   $0x0,-0x4(%rbp)
    7742:	78 2d                	js     7771 <safe_lshift_func_int32_t_s_s+0x41>
    7744:	83 7d f8 00          	cmpl   $0x0,-0x8(%rbp)
    7748:	78 27                	js     7771 <safe_lshift_func_int32_t_s_s+0x41>
    774a:	83 7d f8 1f          	cmpl   $0x1f,-0x8(%rbp)
    774e:	7f 21                	jg     7771 <safe_lshift_func_int32_t_s_s+0x41>
    7750:	8b 45 f8             	mov    -0x8(%rbp),%eax
    7753:	ba ff ff ff 7f       	mov    $0x7fffffff,%edx
    7758:	89 c1                	mov    %eax,%ecx
    775a:	d3 fa                	sar    %cl,%edx
    775c:	89 d0                	mov    %edx,%eax
    775e:	39 45 fc             	cmp    %eax,-0x4(%rbp)
    7761:	7f 0e                	jg     7771 <safe_lshift_func_int32_t_s_s+0x41>
    7763:	8b 45 f8             	mov    -0x8(%rbp),%eax
    7766:	8b 55 fc             	mov    -0x4(%rbp),%edx
    7769:	89 c1                	mov    %eax,%ecx
    776b:	d3 e2                	shl    %cl,%edx
    776d:	89 d0                	mov    %edx,%eax
    776f:	eb 03                	jmp    7774 <safe_lshift_func_int32_t_s_s+0x44>
    7771:	8b 45 fc             	mov    -0x4(%rbp),%eax
    7774:	5d                   	pop    %rbp
    7775:	c3                   	retq   

0000000000007776 <safe_lshift_func_int32_t_s_u>:
    7776:	f3 0f 1e fa          	endbr64 
    777a:	55                   	push   %rbp
    777b:	48 89 e5             	mov    %rsp,%rbp
    777e:	89 7d fc             	mov    %edi,-0x4(%rbp)
    7781:	89 75 f8             	mov    %esi,-0x8(%rbp)
    7784:	83 7d fc 00          	cmpl   $0x0,-0x4(%rbp)
    7788:	78 27                	js     77b1 <safe_lshift_func_int32_t_s_u+0x3b>
    778a:	83 7d f8 1f          	cmpl   $0x1f,-0x8(%rbp)
    778e:	77 21                	ja     77b1 <safe_lshift_func_int32_t_s_u+0x3b>
    7790:	8b 45 f8             	mov    -0x8(%rbp),%eax
    7793:	ba ff ff ff 7f       	mov    $0x7fffffff,%edx
    7798:	89 c1                	mov    %eax,%ecx
    779a:	d3 fa                	sar    %cl,%edx
    779c:	89 d0                	mov    %edx,%eax
    779e:	39 45 fc             	cmp    %eax,-0x4(%rbp)
    77a1:	7f 0e                	jg     77b1 <safe_lshift_func_int32_t_s_u+0x3b>
    77a3:	8b 45 f8             	mov    -0x8(%rbp),%eax
    77a6:	8b 55 fc             	mov    -0x4(%rbp),%edx
    77a9:	89 c1                	mov    %eax,%ecx
    77ab:	d3 e2                	shl    %cl,%edx
    77ad:	89 d0                	mov    %edx,%eax
    77af:	eb 03                	jmp    77b4 <safe_lshift_func_int32_t_s_u+0x3e>
    77b1:	8b 45 fc             	mov    -0x4(%rbp),%eax
    77b4:	5d                   	pop    %rbp
    77b5:	c3                   	retq   

00000000000077b6 <safe_rshift_func_int32_t_s_s>:
    77b6:	f3 0f 1e fa          	endbr64 
    77ba:	55                   	push   %rbp
    77bb:	48 89 e5             	mov    %rsp,%rbp
    77be:	89 7d fc             	mov    %edi,-0x4(%rbp)
    77c1:	89 75 f8             	mov    %esi,-0x8(%rbp)
    77c4:	83 7d fc 00          	cmpl   $0x0,-0x4(%rbp)
    77c8:	78 1a                	js     77e4 <safe_rshift_func_int32_t_s_s+0x2e>
    77ca:	83 7d f8 00          	cmpl   $0x0,-0x8(%rbp)
    77ce:	78 14                	js     77e4 <safe_rshift_func_int32_t_s_s+0x2e>
    77d0:	83 7d f8 1f          	cmpl   $0x1f,-0x8(%rbp)
    77d4:	7f 0e                	jg     77e4 <safe_rshift_func_int32_t_s_s+0x2e>
    77d6:	8b 45 f8             	mov    -0x8(%rbp),%eax
    77d9:	8b 55 fc             	mov    -0x4(%rbp),%edx
    77dc:	89 c1                	mov    %eax,%ecx
    77de:	d3 fa                	sar    %cl,%edx
    77e0:	89 d0                	mov    %edx,%eax
    77e2:	eb 03                	jmp    77e7 <safe_rshift_func_int32_t_s_s+0x31>
    77e4:	8b 45 fc             	mov    -0x4(%rbp),%eax
    77e7:	5d                   	pop    %rbp
    77e8:	c3                   	retq   

00000000000077e9 <safe_rshift_func_int32_t_s_u>:
    77e9:	f3 0f 1e fa          	endbr64 
    77ed:	55                   	push   %rbp
    77ee:	48 89 e5             	mov    %rsp,%rbp
    77f1:	89 7d fc             	mov    %edi,-0x4(%rbp)
    77f4:	89 75 f8             	mov    %esi,-0x8(%rbp)
    77f7:	83 7d fc 00          	cmpl   $0x0,-0x4(%rbp)
    77fb:	78 14                	js     7811 <safe_rshift_func_int32_t_s_u+0x28>
    77fd:	83 7d f8 1f          	cmpl   $0x1f,-0x8(%rbp)
    7801:	77 0e                	ja     7811 <safe_rshift_func_int32_t_s_u+0x28>
    7803:	8b 45 f8             	mov    -0x8(%rbp),%eax
    7806:	8b 55 fc             	mov    -0x4(%rbp),%edx
    7809:	89 c1                	mov    %eax,%ecx
    780b:	d3 fa                	sar    %cl,%edx
    780d:	89 d0                	mov    %edx,%eax
    780f:	eb 03                	jmp    7814 <safe_rshift_func_int32_t_s_u+0x2b>
    7811:	8b 45 fc             	mov    -0x4(%rbp),%eax
    7814:	5d                   	pop    %rbp
    7815:	c3                   	retq   

0000000000007816 <safe_unary_minus_func_int64_t_s>:
    7816:	f3 0f 1e fa          	endbr64 
    781a:	55                   	push   %rbp
    781b:	48 89 e5             	mov    %rsp,%rbp
    781e:	48 89 7d f8          	mov    %rdi,-0x8(%rbp)
    7822:	48 b8 00 00 00 00 00 	movabs $0x8000000000000000,%rax
    7829:	00 00 80 
    782c:	48 39 45 f8          	cmp    %rax,-0x8(%rbp)
    7830:	74 09                	je     783b <safe_unary_minus_func_int64_t_s+0x25>
    7832:	48 8b 45 f8          	mov    -0x8(%rbp),%rax
    7836:	48 f7 d8             	neg    %rax
    7839:	eb 04                	jmp    783f <safe_unary_minus_func_int64_t_s+0x29>
    783b:	48 8b 45 f8          	mov    -0x8(%rbp),%rax
    783f:	5d                   	pop    %rbp
    7840:	c3                   	retq   

0000000000007841 <safe_add_func_int64_t_s_s>:
    7841:	f3 0f 1e fa          	endbr64 
    7845:	55                   	push   %rbp
    7846:	48 89 e5             	mov    %rsp,%rbp
    7849:	48 89 7d f8          	mov    %rdi,-0x8(%rbp)
    784d:	48 89 75 f0          	mov    %rsi,-0x10(%rbp)
    7851:	48 83 7d f8 00       	cmpq   $0x0,-0x8(%rbp)
    7856:	7e 1b                	jle    7873 <safe_add_func_int64_t_s_s+0x32>
    7858:	48 83 7d f0 00       	cmpq   $0x0,-0x10(%rbp)
    785d:	7e 14                	jle    7873 <safe_add_func_int64_t_s_s+0x32>
    785f:	48 b8 ff ff ff ff ff 	movabs $0x7fffffffffffffff,%rax
    7866:	ff ff 7f 
    7869:	48 2b 45 f0          	sub    -0x10(%rbp),%rax
    786d:	48 39 45 f8          	cmp    %rax,-0x8(%rbp)
    7871:	7f 2f                	jg     78a2 <safe_add_func_int64_t_s_s+0x61>
    7873:	48 83 7d f8 00       	cmpq   $0x0,-0x8(%rbp)
    7878:	79 1b                	jns    7895 <safe_add_func_int64_t_s_s+0x54>
    787a:	48 83 7d f0 00       	cmpq   $0x0,-0x10(%rbp)
    787f:	79 14                	jns    7895 <safe_add_func_int64_t_s_s+0x54>
    7881:	48 b8 00 00 00 00 00 	movabs $0x8000000000000000,%rax
    7888:	00 00 80 
    788b:	48 2b 45 f0          	sub    -0x10(%rbp),%rax
    788f:	48 39 45 f8          	cmp    %rax,-0x8(%rbp)
    7893:	7c 0d                	jl     78a2 <safe_add_func_int64_t_s_s+0x61>
    7895:	48 8b 55 f8          	mov    -0x8(%rbp),%rdx
    7899:	48 8b 45 f0          	mov    -0x10(%rbp),%rax
    789d:	48 01 d0             	add    %rdx,%rax
    78a0:	eb 04                	jmp    78a6 <safe_add_func_int64_t_s_s+0x65>
    78a2:	48 8b 45 f8          	mov    -0x8(%rbp),%rax
    78a6:	5d                   	pop    %rbp
    78a7:	c3                   	retq   

00000000000078a8 <safe_sub_func_int64_t_s_s>:
    78a8:	f3 0f 1e fa          	endbr64 
    78ac:	55                   	push   %rbp
    78ad:	48 89 e5             	mov    %rsp,%rbp
    78b0:	48 89 7d f8          	mov    %rdi,-0x8(%rbp)
    78b4:	48 89 75 f0          	mov    %rsi,-0x10(%rbp)
    78b8:	48 8b 45 f8          	mov    -0x8(%rbp),%rax
    78bc:	48 33 45 f0          	xor    -0x10(%rbp),%rax
    78c0:	48 89 c2             	mov    %rax,%rdx
    78c3:	48 8b 45 f8          	mov    -0x8(%rbp),%rax
    78c7:	48 33 45 f0          	xor    -0x10(%rbp),%rax
    78cb:	48 b9 00 00 00 00 00 	movabs $0x8000000000000000,%rcx
    78d2:	00 00 80 
    78d5:	48 21 c8             	and    %rcx,%rax
    78d8:	48 33 45 f8          	xor    -0x8(%rbp),%rax
    78dc:	48 2b 45 f0          	sub    -0x10(%rbp),%rax
    78e0:	48 33 45 f0          	xor    -0x10(%rbp),%rax
    78e4:	48 21 d0             	and    %rdx,%rax
    78e7:	48 85 c0             	test   %rax,%rax
    78ea:	78 0a                	js     78f6 <safe_sub_func_int64_t_s_s+0x4e>
    78ec:	48 8b 45 f8          	mov    -0x8(%rbp),%rax
    78f0:	48 2b 45 f0          	sub    -0x10(%rbp),%rax
    78f4:	eb 04                	jmp    78fa <safe_sub_func_int64_t_s_s+0x52>
    78f6:	48 8b 45 f8          	mov    -0x8(%rbp),%rax
    78fa:	5d                   	pop    %rbp
    78fb:	c3                   	retq   

00000000000078fc <safe_mul_func_int64_t_s_s>:
    78fc:	f3 0f 1e fa          	endbr64 
    7900:	55                   	push   %rbp
    7901:	48 89 e5             	mov    %rsp,%rbp
    7904:	48 89 7d f8          	mov    %rdi,-0x8(%rbp)
    7908:	48 89 75 f0          	mov    %rsi,-0x10(%rbp)
    790c:	48 83 7d f8 00       	cmpq   $0x0,-0x8(%rbp)
    7911:	7e 1d                	jle    7930 <safe_mul_func_int64_t_s_s+0x34>
    7913:	48 83 7d f0 00       	cmpq   $0x0,-0x10(%rbp)
    7918:	7e 16                	jle    7930 <safe_mul_func_int64_t_s_s+0x34>
    791a:	48 b8 ff ff ff ff ff 	movabs $0x7fffffffffffffff,%rax
    7921:	ff ff 7f 
    7924:	48 99                	cqto   
    7926:	48 f7 7d f0          	idivq  -0x10(%rbp)
    792a:	48 39 45 f8          	cmp    %rax,-0x8(%rbp)
    792e:	7f 7e                	jg     79ae <safe_mul_func_int64_t_s_s+0xb2>
    7930:	48 83 7d f8 00       	cmpq   $0x0,-0x8(%rbp)
    7935:	7e 1d                	jle    7954 <safe_mul_func_int64_t_s_s+0x58>
    7937:	48 83 7d f0 00       	cmpq   $0x0,-0x10(%rbp)
    793c:	7f 16                	jg     7954 <safe_mul_func_int64_t_s_s+0x58>
    793e:	48 b8 00 00 00 00 00 	movabs $0x8000000000000000,%rax
    7945:	00 00 80 
    7948:	48 99                	cqto   
    794a:	48 f7 7d f8          	idivq  -0x8(%rbp)
    794e:	48 39 45 f0          	cmp    %rax,-0x10(%rbp)
    7952:	7c 5a                	jl     79ae <safe_mul_func_int64_t_s_s+0xb2>
    7954:	48 83 7d f8 00       	cmpq   $0x0,-0x8(%rbp)
    7959:	7f 1d                	jg     7978 <safe_mul_func_int64_t_s_s+0x7c>
    795b:	48 83 7d f0 00       	cmpq   $0x0,-0x10(%rbp)
    7960:	7e 16                	jle    7978 <safe_mul_func_int64_t_s_s+0x7c>
    7962:	48 b8 00 00 00 00 00 	movabs $0x8000000000000000,%rax
    7969:	00 00 80 
    796c:	48 99                	cqto   
    796e:	48 f7 7d f0          	idivq  -0x10(%rbp)
    7972:	48 39 45 f8          	cmp    %rax,-0x8(%rbp)
    7976:	7c 36                	jl     79ae <safe_mul_func_int64_t_s_s+0xb2>
    7978:	48 83 7d f8 00       	cmpq   $0x0,-0x8(%rbp)
    797d:	7f 24                	jg     79a3 <safe_mul_func_int64_t_s_s+0xa7>
    797f:	48 83 7d f0 00       	cmpq   $0x0,-0x10(%rbp)
    7984:	7f 1d                	jg     79a3 <safe_mul_func_int64_t_s_s+0xa7>
    7986:	48 83 7d f8 00       	cmpq   $0x0,-0x8(%rbp)
    798b:	74 16                	je     79a3 <safe_mul_func_int64_t_s_s+0xa7>
    798d:	48 b8 ff ff ff ff ff 	movabs $0x7fffffffffffffff,%rax
    7994:	ff ff 7f 
    7997:	48 99                	cqto   
    7999:	48 f7 7d f8          	idivq  -0x8(%rbp)
    799d:	48 39 45 f0          	cmp    %rax,-0x10(%rbp)
    79a1:	7c 0b                	jl     79ae <safe_mul_func_int64_t_s_s+0xb2>
    79a3:	48 8b 45 f8          	mov    -0x8(%rbp),%rax
    79a7:	48 0f af 45 f0       	imul   -0x10(%rbp),%rax
    79ac:	eb 04                	jmp    79b2 <safe_mul_func_int64_t_s_s+0xb6>
    79ae:	48 8b 45 f8          	mov    -0x8(%rbp),%rax
    79b2:	5d                   	pop    %rbp
    79b3:	c3                   	retq   

00000000000079b4 <safe_mod_func_int64_t_s_s>:
    79b4:	f3 0f 1e fa          	endbr64 
    79b8:	55                   	push   %rbp
    79b9:	48 89 e5             	mov    %rsp,%rbp
    79bc:	48 89 7d f8          	mov    %rdi,-0x8(%rbp)
    79c0:	48 89 75 f0          	mov    %rsi,-0x10(%rbp)
    79c4:	48 83 7d f0 00       	cmpq   $0x0,-0x10(%rbp)
    79c9:	74 26                	je     79f1 <safe_mod_func_int64_t_s_s+0x3d>
    79cb:	48 b8 00 00 00 00 00 	movabs $0x8000000000000000,%rax
    79d2:	00 00 80 
    79d5:	48 39 45 f8          	cmp    %rax,-0x8(%rbp)
    79d9:	75 07                	jne    79e2 <safe_mod_func_int64_t_s_s+0x2e>
    79db:	48 83 7d f0 ff       	cmpq   $0xffffffffffffffff,-0x10(%rbp)
    79e0:	74 0f                	je     79f1 <safe_mod_func_int64_t_s_s+0x3d>
    79e2:	48 8b 45 f8          	mov    -0x8(%rbp),%rax
    79e6:	48 99                	cqto   
    79e8:	48 f7 7d f0          	idivq  -0x10(%rbp)
    79ec:	48 89 d0             	mov    %rdx,%rax
    79ef:	eb 04                	jmp    79f5 <safe_mod_func_int64_t_s_s+0x41>
    79f1:	48 8b 45 f8          	mov    -0x8(%rbp),%rax
    79f5:	5d                   	pop    %rbp
    79f6:	c3                   	retq   

00000000000079f7 <safe_div_func_int64_t_s_s>:
    79f7:	f3 0f 1e fa          	endbr64 
    79fb:	55                   	push   %rbp
    79fc:	48 89 e5             	mov    %rsp,%rbp
    79ff:	48 89 7d f8          	mov    %rdi,-0x8(%rbp)
    7a03:	48 89 75 f0          	mov    %rsi,-0x10(%rbp)
    7a07:	48 83 7d f0 00       	cmpq   $0x0,-0x10(%rbp)
    7a0c:	74 23                	je     7a31 <safe_div_func_int64_t_s_s+0x3a>
    7a0e:	48 b8 00 00 00 00 00 	movabs $0x8000000000000000,%rax
    7a15:	00 00 80 
    7a18:	48 39 45 f8          	cmp    %rax,-0x8(%rbp)
    7a1c:	75 07                	jne    7a25 <safe_div_func_int64_t_s_s+0x2e>
    7a1e:	48 83 7d f0 ff       	cmpq   $0xffffffffffffffff,-0x10(%rbp)
    7a23:	74 0c                	je     7a31 <safe_div_func_int64_t_s_s+0x3a>
    7a25:	48 8b 45 f8          	mov    -0x8(%rbp),%rax
    7a29:	48 99                	cqto   
    7a2b:	48 f7 7d f0          	idivq  -0x10(%rbp)
    7a2f:	eb 04                	jmp    7a35 <safe_div_func_int64_t_s_s+0x3e>
    7a31:	48 8b 45 f8          	mov    -0x8(%rbp),%rax
    7a35:	5d                   	pop    %rbp
    7a36:	c3                   	retq   

0000000000007a37 <safe_lshift_func_int64_t_s_s>:
    7a37:	f3 0f 1e fa          	endbr64 
    7a3b:	55                   	push   %rbp
    7a3c:	48 89 e5             	mov    %rsp,%rbp
    7a3f:	48 89 7d f8          	mov    %rdi,-0x8(%rbp)
    7a43:	89 75 f4             	mov    %esi,-0xc(%rbp)
    7a46:	48 83 7d f8 00       	cmpq   $0x0,-0x8(%rbp)
    7a4b:	78 38                	js     7a85 <safe_lshift_func_int64_t_s_s+0x4e>
    7a4d:	83 7d f4 00          	cmpl   $0x0,-0xc(%rbp)
    7a51:	78 32                	js     7a85 <safe_lshift_func_int64_t_s_s+0x4e>
    7a53:	83 7d f4 1f          	cmpl   $0x1f,-0xc(%rbp)
    7a57:	7f 2c                	jg     7a85 <safe_lshift_func_int64_t_s_s+0x4e>
    7a59:	8b 45 f4             	mov    -0xc(%rbp),%eax
    7a5c:	48 ba ff ff ff ff ff 	movabs $0x7fffffffffffffff,%rdx
    7a63:	ff ff 7f 
    7a66:	89 c1                	mov    %eax,%ecx
    7a68:	48 d3 fa             	sar    %cl,%rdx
    7a6b:	48 89 d0             	mov    %rdx,%rax
    7a6e:	48 39 45 f8          	cmp    %rax,-0x8(%rbp)
    7a72:	7f 11                	jg     7a85 <safe_lshift_func_int64_t_s_s+0x4e>
    7a74:	8b 45 f4             	mov    -0xc(%rbp),%eax
    7a77:	48 8b 55 f8          	mov    -0x8(%rbp),%rdx
    7a7b:	89 c1                	mov    %eax,%ecx
    7a7d:	48 d3 e2             	shl    %cl,%rdx
    7a80:	48 89 d0             	mov    %rdx,%rax
    7a83:	eb 04                	jmp    7a89 <safe_lshift_func_int64_t_s_s+0x52>
    7a85:	48 8b 45 f8          	mov    -0x8(%rbp),%rax
    7a89:	5d                   	pop    %rbp
    7a8a:	c3                   	retq   

0000000000007a8b <safe_lshift_func_int64_t_s_u>:
    7a8b:	f3 0f 1e fa          	endbr64 
    7a8f:	55                   	push   %rbp
    7a90:	48 89 e5             	mov    %rsp,%rbp
    7a93:	48 89 7d f8          	mov    %rdi,-0x8(%rbp)
    7a97:	89 75 f4             	mov    %esi,-0xc(%rbp)
    7a9a:	48 83 7d f8 00       	cmpq   $0x0,-0x8(%rbp)
    7a9f:	78 32                	js     7ad3 <safe_lshift_func_int64_t_s_u+0x48>
    7aa1:	83 7d f4 1f          	cmpl   $0x1f,-0xc(%rbp)
    7aa5:	77 2c                	ja     7ad3 <safe_lshift_func_int64_t_s_u+0x48>
    7aa7:	8b 45 f4             	mov    -0xc(%rbp),%eax
    7aaa:	48 ba ff ff ff ff ff 	movabs $0x7fffffffffffffff,%rdx
    7ab1:	ff ff 7f 
    7ab4:	89 c1                	mov    %eax,%ecx
    7ab6:	48 d3 fa             	sar    %cl,%rdx
    7ab9:	48 89 d0             	mov    %rdx,%rax
    7abc:	48 39 45 f8          	cmp    %rax,-0x8(%rbp)
    7ac0:	7f 11                	jg     7ad3 <safe_lshift_func_int64_t_s_u+0x48>
    7ac2:	8b 45 f4             	mov    -0xc(%rbp),%eax
    7ac5:	48 8b 55 f8          	mov    -0x8(%rbp),%rdx
    7ac9:	89 c1                	mov    %eax,%ecx
    7acb:	48 d3 e2             	shl    %cl,%rdx
    7ace:	48 89 d0             	mov    %rdx,%rax
    7ad1:	eb 04                	jmp    7ad7 <safe_lshift_func_int64_t_s_u+0x4c>
    7ad3:	48 8b 45 f8          	mov    -0x8(%rbp),%rax
    7ad7:	5d                   	pop    %rbp
    7ad8:	c3                   	retq   

0000000000007ad9 <safe_rshift_func_int64_t_s_s>:
    7ad9:	f3 0f 1e fa          	endbr64 
    7add:	55                   	push   %rbp
    7ade:	48 89 e5             	mov    %rsp,%rbp
    7ae1:	48 89 7d f8          	mov    %rdi,-0x8(%rbp)
    7ae5:	89 75 f4             	mov    %esi,-0xc(%rbp)
    7ae8:	48 83 7d f8 00       	cmpq   $0x0,-0x8(%rbp)
    7aed:	78 1d                	js     7b0c <safe_rshift_func_int64_t_s_s+0x33>
    7aef:	83 7d f4 00          	cmpl   $0x0,-0xc(%rbp)
    7af3:	78 17                	js     7b0c <safe_rshift_func_int64_t_s_s+0x33>
    7af5:	83 7d f4 1f          	cmpl   $0x1f,-0xc(%rbp)
    7af9:	7f 11                	jg     7b0c <safe_rshift_func_int64_t_s_s+0x33>
    7afb:	8b 45 f4             	mov    -0xc(%rbp),%eax
    7afe:	48 8b 55 f8          	mov    -0x8(%rbp),%rdx
    7b02:	89 c1                	mov    %eax,%ecx
    7b04:	48 d3 fa             	sar    %cl,%rdx
    7b07:	48 89 d0             	mov    %rdx,%rax
    7b0a:	eb 04                	jmp    7b10 <safe_rshift_func_int64_t_s_s+0x37>
    7b0c:	48 8b 45 f8          	mov    -0x8(%rbp),%rax
    7b10:	5d                   	pop    %rbp
    7b11:	c3                   	retq   

0000000000007b12 <safe_rshift_func_int64_t_s_u>:
    7b12:	f3 0f 1e fa          	endbr64 
    7b16:	55                   	push   %rbp
    7b17:	48 89 e5             	mov    %rsp,%rbp
    7b1a:	48 89 7d f8          	mov    %rdi,-0x8(%rbp)
    7b1e:	89 75 f4             	mov    %esi,-0xc(%rbp)
    7b21:	48 83 7d f8 00       	cmpq   $0x0,-0x8(%rbp)
    7b26:	78 17                	js     7b3f <safe_rshift_func_int64_t_s_u+0x2d>
    7b28:	83 7d f4 1f          	cmpl   $0x1f,-0xc(%rbp)
    7b2c:	77 11                	ja     7b3f <safe_rshift_func_int64_t_s_u+0x2d>
    7b2e:	8b 45 f4             	mov    -0xc(%rbp),%eax
    7b31:	48 8b 55 f8          	mov    -0x8(%rbp),%rdx
    7b35:	89 c1                	mov    %eax,%ecx
    7b37:	48 d3 fa             	sar    %cl,%rdx
    7b3a:	48 89 d0             	mov    %rdx,%rax
    7b3d:	eb 04                	jmp    7b43 <safe_rshift_func_int64_t_s_u+0x31>
    7b3f:	48 8b 45 f8          	mov    -0x8(%rbp),%rax
    7b43:	5d                   	pop    %rbp
    7b44:	c3                   	retq   

0000000000007b45 <safe_unary_minus_func_uint8_t_u>:
    7b45:	f3 0f 1e fa          	endbr64 
    7b49:	55                   	push   %rbp
    7b4a:	48 89 e5             	mov    %rsp,%rbp
    7b4d:	89 f8                	mov    %edi,%eax
    7b4f:	88 45 fc             	mov    %al,-0x4(%rbp)
    7b52:	0f b6 45 fc          	movzbl -0x4(%rbp),%eax
    7b56:	f7 d8                	neg    %eax
    7b58:	5d                   	pop    %rbp
    7b59:	c3                   	retq   

0000000000007b5a <safe_add_func_uint8_t_u_u>:
    7b5a:	f3 0f 1e fa          	endbr64 
    7b5e:	55                   	push   %rbp
    7b5f:	48 89 e5             	mov    %rsp,%rbp
    7b62:	89 fa                	mov    %edi,%edx
    7b64:	89 f0                	mov    %esi,%eax
    7b66:	88 55 fc             	mov    %dl,-0x4(%rbp)
    7b69:	88 45 f8             	mov    %al,-0x8(%rbp)
    7b6c:	0f b6 55 fc          	movzbl -0x4(%rbp),%edx
    7b70:	0f b6 45 f8          	movzbl -0x8(%rbp),%eax
    7b74:	01 d0                	add    %edx,%eax
    7b76:	5d                   	pop    %rbp
    7b77:	c3                   	retq   

0000000000007b78 <safe_sub_func_uint8_t_u_u>:
    7b78:	f3 0f 1e fa          	endbr64 
    7b7c:	55                   	push   %rbp
    7b7d:	48 89 e5             	mov    %rsp,%rbp
    7b80:	89 fa                	mov    %edi,%edx
    7b82:	89 f0                	mov    %esi,%eax
    7b84:	88 55 fc             	mov    %dl,-0x4(%rbp)
    7b87:	88 45 f8             	mov    %al,-0x8(%rbp)
    7b8a:	0f b6 45 fc          	movzbl -0x4(%rbp),%eax
    7b8e:	2a 45 f8             	sub    -0x8(%rbp),%al
    7b91:	5d                   	pop    %rbp
    7b92:	c3                   	retq   

0000000000007b93 <safe_mul_func_uint8_t_u_u>:
    7b93:	f3 0f 1e fa          	endbr64 
    7b97:	55                   	push   %rbp
    7b98:	48 89 e5             	mov    %rsp,%rbp
    7b9b:	89 fa                	mov    %edi,%edx
    7b9d:	89 f0                	mov    %esi,%eax
    7b9f:	88 55 fc             	mov    %dl,-0x4(%rbp)
    7ba2:	88 45 f8             	mov    %al,-0x8(%rbp)
    7ba5:	0f b6 45 fc          	movzbl -0x4(%rbp),%eax
    7ba9:	f6 65 f8             	mulb   -0x8(%rbp)
    7bac:	5d                   	pop    %rbp
    7bad:	c3                   	retq   

0000000000007bae <safe_mod_func_uint8_t_u_u>:
    7bae:	f3 0f 1e fa          	endbr64 
    7bb2:	55                   	push   %rbp
    7bb3:	48 89 e5             	mov    %rsp,%rbp
    7bb6:	89 fa                	mov    %edi,%edx
    7bb8:	89 f0                	mov    %esi,%eax
    7bba:	88 55 fc             	mov    %dl,-0x4(%rbp)
    7bbd:	88 45 f8             	mov    %al,-0x8(%rbp)
    7bc0:	80 7d f8 00          	cmpb   $0x0,-0x8(%rbp)
    7bc4:	74 0f                	je     7bd5 <safe_mod_func_uint8_t_u_u+0x27>
    7bc6:	0f b6 45 fc          	movzbl -0x4(%rbp),%eax
    7bca:	0f b6 c0             	movzbl %al,%eax
    7bcd:	f6 75 f8             	divb   -0x8(%rbp)
    7bd0:	0f b6 c4             	movzbl %ah,%eax
    7bd3:	eb 04                	jmp    7bd9 <safe_mod_func_uint8_t_u_u+0x2b>
    7bd5:	0f b6 45 fc          	movzbl -0x4(%rbp),%eax
    7bd9:	5d                   	pop    %rbp
    7bda:	c3                   	retq   

0000000000007bdb <safe_div_func_uint8_t_u_u>:
    7bdb:	f3 0f 1e fa          	endbr64 
    7bdf:	55                   	push   %rbp
    7be0:	48 89 e5             	mov    %rsp,%rbp
    7be3:	89 fa                	mov    %edi,%edx
    7be5:	89 f0                	mov    %esi,%eax
    7be7:	88 55 fc             	mov    %dl,-0x4(%rbp)
    7bea:	88 45 f8             	mov    %al,-0x8(%rbp)
    7bed:	80 7d f8 00          	cmpb   $0x0,-0x8(%rbp)
    7bf1:	74 0c                	je     7bff <safe_div_func_uint8_t_u_u+0x24>
    7bf3:	0f b6 45 fc          	movzbl -0x4(%rbp),%eax
    7bf7:	0f b6 c0             	movzbl %al,%eax
    7bfa:	f6 75 f8             	divb   -0x8(%rbp)
    7bfd:	eb 04                	jmp    7c03 <safe_div_func_uint8_t_u_u+0x28>
    7bff:	0f b6 45 fc          	movzbl -0x4(%rbp),%eax
    7c03:	5d                   	pop    %rbp
    7c04:	c3                   	retq   

0000000000007c05 <safe_lshift_func_uint8_t_u_s>:
    7c05:	f3 0f 1e fa          	endbr64 
    7c09:	55                   	push   %rbp
    7c0a:	48 89 e5             	mov    %rsp,%rbp
    7c0d:	89 f8                	mov    %edi,%eax
    7c0f:	89 75 f8             	mov    %esi,-0x8(%rbp)
    7c12:	88 45 fc             	mov    %al,-0x4(%rbp)
    7c15:	83 7d f8 00          	cmpl   $0x0,-0x8(%rbp)
    7c19:	78 2b                	js     7c46 <safe_lshift_func_uint8_t_u_s+0x41>
    7c1b:	83 7d f8 1f          	cmpl   $0x1f,-0x8(%rbp)
    7c1f:	7f 25                	jg     7c46 <safe_lshift_func_uint8_t_u_s+0x41>
    7c21:	0f b6 55 fc          	movzbl -0x4(%rbp),%edx
    7c25:	8b 45 f8             	mov    -0x8(%rbp),%eax
    7c28:	be ff 00 00 00       	mov    $0xff,%esi
    7c2d:	89 c1                	mov    %eax,%ecx
    7c2f:	d3 fe                	sar    %cl,%esi
    7c31:	89 f0                	mov    %esi,%eax
    7c33:	39 c2                	cmp    %eax,%edx
    7c35:	7f 0f                	jg     7c46 <safe_lshift_func_uint8_t_u_s+0x41>
    7c37:	0f b6 55 fc          	movzbl -0x4(%rbp),%edx
    7c3b:	8b 45 f8             	mov    -0x8(%rbp),%eax
    7c3e:	89 c1                	mov    %eax,%ecx
    7c40:	d3 e2                	shl    %cl,%edx
    7c42:	89 d0                	mov    %edx,%eax
    7c44:	eb 04                	jmp    7c4a <safe_lshift_func_uint8_t_u_s+0x45>
    7c46:	0f b6 45 fc          	movzbl -0x4(%rbp),%eax
    7c4a:	5d                   	pop    %rbp
    7c4b:	c3                   	retq   

0000000000007c4c <safe_lshift_func_uint8_t_u_u>:
    7c4c:	f3 0f 1e fa          	endbr64 
    7c50:	55                   	push   %rbp
    7c51:	48 89 e5             	mov    %rsp,%rbp
    7c54:	89 f8                	mov    %edi,%eax
    7c56:	89 75 f8             	mov    %esi,-0x8(%rbp)
    7c59:	88 45 fc             	mov    %al,-0x4(%rbp)
    7c5c:	83 7d f8 1f          	cmpl   $0x1f,-0x8(%rbp)
    7c60:	77 25                	ja     7c87 <safe_lshift_func_uint8_t_u_u+0x3b>
    7c62:	0f b6 55 fc          	movzbl -0x4(%rbp),%edx
    7c66:	8b 45 f8             	mov    -0x8(%rbp),%eax
    7c69:	be ff 00 00 00       	mov    $0xff,%esi
    7c6e:	89 c1                	mov    %eax,%ecx
    7c70:	d3 fe                	sar    %cl,%esi
    7c72:	89 f0                	mov    %esi,%eax
    7c74:	39 c2                	cmp    %eax,%edx
    7c76:	7f 0f                	jg     7c87 <safe_lshift_func_uint8_t_u_u+0x3b>
    7c78:	0f b6 55 fc          	movzbl -0x4(%rbp),%edx
    7c7c:	8b 45 f8             	mov    -0x8(%rbp),%eax
    7c7f:	89 c1                	mov    %eax,%ecx
    7c81:	d3 e2                	shl    %cl,%edx
    7c83:	89 d0                	mov    %edx,%eax
    7c85:	eb 04                	jmp    7c8b <safe_lshift_func_uint8_t_u_u+0x3f>
    7c87:	0f b6 45 fc          	movzbl -0x4(%rbp),%eax
    7c8b:	5d                   	pop    %rbp
    7c8c:	c3                   	retq   

0000000000007c8d <safe_rshift_func_uint8_t_u_s>:
    7c8d:	f3 0f 1e fa          	endbr64 
    7c91:	55                   	push   %rbp
    7c92:	48 89 e5             	mov    %rsp,%rbp
    7c95:	89 f8                	mov    %edi,%eax
    7c97:	89 75 f8             	mov    %esi,-0x8(%rbp)
    7c9a:	88 45 fc             	mov    %al,-0x4(%rbp)
    7c9d:	83 7d f8 00          	cmpl   $0x0,-0x8(%rbp)
    7ca1:	78 15                	js     7cb8 <safe_rshift_func_uint8_t_u_s+0x2b>
    7ca3:	83 7d f8 1f          	cmpl   $0x1f,-0x8(%rbp)
    7ca7:	7f 0f                	jg     7cb8 <safe_rshift_func_uint8_t_u_s+0x2b>
    7ca9:	0f b6 55 fc          	movzbl -0x4(%rbp),%edx
    7cad:	8b 45 f8             	mov    -0x8(%rbp),%eax
    7cb0:	89 c1                	mov    %eax,%ecx
    7cb2:	d3 fa                	sar    %cl,%edx
    7cb4:	89 d0                	mov    %edx,%eax
    7cb6:	eb 04                	jmp    7cbc <safe_rshift_func_uint8_t_u_s+0x2f>
    7cb8:	0f b6 45 fc          	movzbl -0x4(%rbp),%eax
    7cbc:	5d                   	pop    %rbp
    7cbd:	c3                   	retq   

0000000000007cbe <safe_rshift_func_uint8_t_u_u>:
    7cbe:	f3 0f 1e fa          	endbr64 
    7cc2:	55                   	push   %rbp
    7cc3:	48 89 e5             	mov    %rsp,%rbp
    7cc6:	89 f8                	mov    %edi,%eax
    7cc8:	89 75 f8             	mov    %esi,-0x8(%rbp)
    7ccb:	88 45 fc             	mov    %al,-0x4(%rbp)
    7cce:	83 7d f8 1f          	cmpl   $0x1f,-0x8(%rbp)
    7cd2:	77 0f                	ja     7ce3 <safe_rshift_func_uint8_t_u_u+0x25>
    7cd4:	0f b6 55 fc          	movzbl -0x4(%rbp),%edx
    7cd8:	8b 45 f8             	mov    -0x8(%rbp),%eax
    7cdb:	89 c1                	mov    %eax,%ecx
    7cdd:	d3 fa                	sar    %cl,%edx
    7cdf:	89 d0                	mov    %edx,%eax
    7ce1:	eb 04                	jmp    7ce7 <safe_rshift_func_uint8_t_u_u+0x29>
    7ce3:	0f b6 45 fc          	movzbl -0x4(%rbp),%eax
    7ce7:	5d                   	pop    %rbp
    7ce8:	c3                   	retq   

0000000000007ce9 <safe_unary_minus_func_uint16_t_u>:
    7ce9:	f3 0f 1e fa          	endbr64 
    7ced:	55                   	push   %rbp
    7cee:	48 89 e5             	mov    %rsp,%rbp
    7cf1:	89 f8                	mov    %edi,%eax
    7cf3:	66 89 45 fc          	mov    %ax,-0x4(%rbp)
    7cf7:	0f b7 45 fc          	movzwl -0x4(%rbp),%eax
    7cfb:	f7 d8                	neg    %eax
    7cfd:	5d                   	pop    %rbp
    7cfe:	c3                   	retq   

0000000000007cff <safe_add_func_uint16_t_u_u>:
    7cff:	f3 0f 1e fa          	endbr64 
    7d03:	55                   	push   %rbp
    7d04:	48 89 e5             	mov    %rsp,%rbp
    7d07:	89 fa                	mov    %edi,%edx
    7d09:	89 f0                	mov    %esi,%eax
    7d0b:	66 89 55 fc          	mov    %dx,-0x4(%rbp)
    7d0f:	66 89 45 f8          	mov    %ax,-0x8(%rbp)
    7d13:	0f b7 55 fc          	movzwl -0x4(%rbp),%edx
    7d17:	0f b7 45 f8          	movzwl -0x8(%rbp),%eax
    7d1b:	01 d0                	add    %edx,%eax
    7d1d:	5d                   	pop    %rbp
    7d1e:	c3                   	retq   

0000000000007d1f <safe_sub_func_uint16_t_u_u>:
    7d1f:	f3 0f 1e fa          	endbr64 
    7d23:	55                   	push   %rbp
    7d24:	48 89 e5             	mov    %rsp,%rbp
    7d27:	89 fa                	mov    %edi,%edx
    7d29:	89 f0                	mov    %esi,%eax
    7d2b:	66 89 55 fc          	mov    %dx,-0x4(%rbp)
    7d2f:	66 89 45 f8          	mov    %ax,-0x8(%rbp)
    7d33:	0f b7 45 fc          	movzwl -0x4(%rbp),%eax
    7d37:	66 2b 45 f8          	sub    -0x8(%rbp),%ax
    7d3b:	5d                   	pop    %rbp
    7d3c:	c3                   	retq   

0000000000007d3d <safe_mul_func_uint16_t_u_u>:
    7d3d:	f3 0f 1e fa          	endbr64 
    7d41:	55                   	push   %rbp
    7d42:	48 89 e5             	mov    %rsp,%rbp
    7d45:	89 fa                	mov    %edi,%edx
    7d47:	89 f0                	mov    %esi,%eax
    7d49:	66 89 55 fc          	mov    %dx,-0x4(%rbp)
    7d4d:	66 89 45 f8          	mov    %ax,-0x8(%rbp)
    7d51:	0f b7 45 fc          	movzwl -0x4(%rbp),%eax
    7d55:	66 0f af 45 f8       	imul   -0x8(%rbp),%ax
    7d5a:	5d                   	pop    %rbp
    7d5b:	c3                   	retq   

0000000000007d5c <safe_mod_func_uint16_t_u_u>:
    7d5c:	f3 0f 1e fa          	endbr64 
    7d60:	55                   	push   %rbp
    7d61:	48 89 e5             	mov    %rsp,%rbp
    7d64:	89 fa                	mov    %edi,%edx
    7d66:	89 f0                	mov    %esi,%eax
    7d68:	66 89 55 fc          	mov    %dx,-0x4(%rbp)
    7d6c:	66 89 45 f8          	mov    %ax,-0x8(%rbp)
    7d70:	66 83 7d f8 00       	cmpw   $0x0,-0x8(%rbp)
    7d75:	74 11                	je     7d88 <safe_mod_func_uint16_t_u_u+0x2c>
    7d77:	0f b7 45 fc          	movzwl -0x4(%rbp),%eax
    7d7b:	ba 00 00 00 00       	mov    $0x0,%edx
    7d80:	66 f7 75 f8          	divw   -0x8(%rbp)
    7d84:	89 d0                	mov    %edx,%eax
    7d86:	eb 04                	jmp    7d8c <safe_mod_func_uint16_t_u_u+0x30>
    7d88:	0f b7 45 fc          	movzwl -0x4(%rbp),%eax
    7d8c:	5d                   	pop    %rbp
    7d8d:	c3                   	retq   

0000000000007d8e <safe_div_func_uint16_t_u_u>:
    7d8e:	f3 0f 1e fa          	endbr64 
    7d92:	55                   	push   %rbp
    7d93:	48 89 e5             	mov    %rsp,%rbp
    7d96:	89 fa                	mov    %edi,%edx
    7d98:	89 f0                	mov    %esi,%eax
    7d9a:	66 89 55 fc          	mov    %dx,-0x4(%rbp)
    7d9e:	66 89 45 f8          	mov    %ax,-0x8(%rbp)
    7da2:	66 83 7d f8 00       	cmpw   $0x0,-0x8(%rbp)
    7da7:	74 0f                	je     7db8 <safe_div_func_uint16_t_u_u+0x2a>
    7da9:	0f b7 45 fc          	movzwl -0x4(%rbp),%eax
    7dad:	ba 00 00 00 00       	mov    $0x0,%edx
    7db2:	66 f7 75 f8          	divw   -0x8(%rbp)
    7db6:	eb 04                	jmp    7dbc <safe_div_func_uint16_t_u_u+0x2e>
    7db8:	0f b7 45 fc          	movzwl -0x4(%rbp),%eax
    7dbc:	5d                   	pop    %rbp
    7dbd:	c3                   	retq   

0000000000007dbe <safe_lshift_func_uint16_t_u_s>:
    7dbe:	f3 0f 1e fa          	endbr64 
    7dc2:	55                   	push   %rbp
    7dc3:	48 89 e5             	mov    %rsp,%rbp
    7dc6:	89 f8                	mov    %edi,%eax
    7dc8:	89 75 f8             	mov    %esi,-0x8(%rbp)
    7dcb:	66 89 45 fc          	mov    %ax,-0x4(%rbp)
    7dcf:	83 7d f8 00          	cmpl   $0x0,-0x8(%rbp)
    7dd3:	78 2b                	js     7e00 <safe_lshift_func_uint16_t_u_s+0x42>
    7dd5:	83 7d f8 1f          	cmpl   $0x1f,-0x8(%rbp)
    7dd9:	7f 25                	jg     7e00 <safe_lshift_func_uint16_t_u_s+0x42>
    7ddb:	0f b7 55 fc          	movzwl -0x4(%rbp),%edx
    7ddf:	8b 45 f8             	mov    -0x8(%rbp),%eax
    7de2:	be ff ff 00 00       	mov    $0xffff,%esi
    7de7:	89 c1                	mov    %eax,%ecx
    7de9:	d3 fe                	sar    %cl,%esi
    7deb:	89 f0                	mov    %esi,%eax
    7ded:	39 c2                	cmp    %eax,%edx
    7def:	7f 0f                	jg     7e00 <safe_lshift_func_uint16_t_u_s+0x42>
    7df1:	0f b7 55 fc          	movzwl -0x4(%rbp),%edx
    7df5:	8b 45 f8             	mov    -0x8(%rbp),%eax
    7df8:	89 c1                	mov    %eax,%ecx
    7dfa:	d3 e2                	shl    %cl,%edx
    7dfc:	89 d0                	mov    %edx,%eax
    7dfe:	eb 04                	jmp    7e04 <safe_lshift_func_uint16_t_u_s+0x46>
    7e00:	0f b7 45 fc          	movzwl -0x4(%rbp),%eax
    7e04:	5d                   	pop    %rbp
    7e05:	c3                   	retq   

0000000000007e06 <safe_lshift_func_uint16_t_u_u>:
    7e06:	f3 0f 1e fa          	endbr64 
    7e0a:	55                   	push   %rbp
    7e0b:	48 89 e5             	mov    %rsp,%rbp
    7e0e:	89 f8                	mov    %edi,%eax
    7e10:	89 75 f8             	mov    %esi,-0x8(%rbp)
    7e13:	66 89 45 fc          	mov    %ax,-0x4(%rbp)
    7e17:	83 7d f8 1f          	cmpl   $0x1f,-0x8(%rbp)
    7e1b:	77 25                	ja     7e42 <safe_lshift_func_uint16_t_u_u+0x3c>
    7e1d:	0f b7 55 fc          	movzwl -0x4(%rbp),%edx
    7e21:	8b 45 f8             	mov    -0x8(%rbp),%eax
    7e24:	be ff ff 00 00       	mov    $0xffff,%esi
    7e29:	89 c1                	mov    %eax,%ecx
    7e2b:	d3 fe                	sar    %cl,%esi
    7e2d:	89 f0                	mov    %esi,%eax
    7e2f:	39 c2                	cmp    %eax,%edx
    7e31:	7f 0f                	jg     7e42 <safe_lshift_func_uint16_t_u_u+0x3c>
    7e33:	0f b7 55 fc          	movzwl -0x4(%rbp),%edx
    7e37:	8b 45 f8             	mov    -0x8(%rbp),%eax
    7e3a:	89 c1                	mov    %eax,%ecx
    7e3c:	d3 e2                	shl    %cl,%edx
    7e3e:	89 d0                	mov    %edx,%eax
    7e40:	eb 04                	jmp    7e46 <safe_lshift_func_uint16_t_u_u+0x40>
    7e42:	0f b7 45 fc          	movzwl -0x4(%rbp),%eax
    7e46:	5d                   	pop    %rbp
    7e47:	c3                   	retq   

0000000000007e48 <safe_rshift_func_uint16_t_u_s>:
    7e48:	f3 0f 1e fa          	endbr64 
    7e4c:	55                   	push   %rbp
    7e4d:	48 89 e5             	mov    %rsp,%rbp
    7e50:	89 f8                	mov    %edi,%eax
    7e52:	89 75 f8             	mov    %esi,-0x8(%rbp)
    7e55:	66 89 45 fc          	mov    %ax,-0x4(%rbp)
    7e59:	83 7d f8 00          	cmpl   $0x0,-0x8(%rbp)
    7e5d:	78 15                	js     7e74 <safe_rshift_func_uint16_t_u_s+0x2c>
    7e5f:	83 7d f8 1f          	cmpl   $0x1f,-0x8(%rbp)
    7e63:	7f 0f                	jg     7e74 <safe_rshift_func_uint16_t_u_s+0x2c>
    7e65:	0f b7 55 fc          	movzwl -0x4(%rbp),%edx
    7e69:	8b 45 f8             	mov    -0x8(%rbp),%eax
    7e6c:	89 c1                	mov    %eax,%ecx
    7e6e:	d3 fa                	sar    %cl,%edx
    7e70:	89 d0                	mov    %edx,%eax
    7e72:	eb 04                	jmp    7e78 <safe_rshift_func_uint16_t_u_s+0x30>
    7e74:	0f b7 45 fc          	movzwl -0x4(%rbp),%eax
    7e78:	5d                   	pop    %rbp
    7e79:	c3                   	retq   

0000000000007e7a <safe_rshift_func_uint16_t_u_u>:
    7e7a:	f3 0f 1e fa          	endbr64 
    7e7e:	55                   	push   %rbp
    7e7f:	48 89 e5             	mov    %rsp,%rbp
    7e82:	89 f8                	mov    %edi,%eax
    7e84:	89 75 f8             	mov    %esi,-0x8(%rbp)
    7e87:	66 89 45 fc          	mov    %ax,-0x4(%rbp)
    7e8b:	83 7d f8 1f          	cmpl   $0x1f,-0x8(%rbp)
    7e8f:	77 0f                	ja     7ea0 <safe_rshift_func_uint16_t_u_u+0x26>
    7e91:	0f b7 55 fc          	movzwl -0x4(%rbp),%edx
    7e95:	8b 45 f8             	mov    -0x8(%rbp),%eax
    7e98:	89 c1                	mov    %eax,%ecx
    7e9a:	d3 fa                	sar    %cl,%edx
    7e9c:	89 d0                	mov    %edx,%eax
    7e9e:	eb 04                	jmp    7ea4 <safe_rshift_func_uint16_t_u_u+0x2a>
    7ea0:	0f b7 45 fc          	movzwl -0x4(%rbp),%eax
    7ea4:	5d                   	pop    %rbp
    7ea5:	c3                   	retq   

0000000000007ea6 <safe_unary_minus_func_uint32_t_u>:
    7ea6:	f3 0f 1e fa          	endbr64 
    7eaa:	55                   	push   %rbp
    7eab:	48 89 e5             	mov    %rsp,%rbp
    7eae:	89 7d fc             	mov    %edi,-0x4(%rbp)
    7eb1:	8b 45 fc             	mov    -0x4(%rbp),%eax
    7eb4:	f7 d8                	neg    %eax
    7eb6:	5d                   	pop    %rbp
    7eb7:	c3                   	retq   

0000000000007eb8 <safe_add_func_uint32_t_u_u>:
    7eb8:	f3 0f 1e fa          	endbr64 
    7ebc:	55                   	push   %rbp
    7ebd:	48 89 e5             	mov    %rsp,%rbp
    7ec0:	89 7d fc             	mov    %edi,-0x4(%rbp)
    7ec3:	89 75 f8             	mov    %esi,-0x8(%rbp)
    7ec6:	8b 55 fc             	mov    -0x4(%rbp),%edx
    7ec9:	8b 45 f8             	mov    -0x8(%rbp),%eax
    7ecc:	01 d0                	add    %edx,%eax
    7ece:	5d                   	pop    %rbp
    7ecf:	c3                   	retq   

0000000000007ed0 <safe_sub_func_uint32_t_u_u>:
    7ed0:	f3 0f 1e fa          	endbr64 
    7ed4:	55                   	push   %rbp
    7ed5:	48 89 e5             	mov    %rsp,%rbp
    7ed8:	89 7d fc             	mov    %edi,-0x4(%rbp)
    7edb:	89 75 f8             	mov    %esi,-0x8(%rbp)
    7ede:	8b 45 fc             	mov    -0x4(%rbp),%eax
    7ee1:	2b 45 f8             	sub    -0x8(%rbp),%eax
    7ee4:	5d                   	pop    %rbp
    7ee5:	c3                   	retq   

0000000000007ee6 <safe_mul_func_uint32_t_u_u>:
    7ee6:	f3 0f 1e fa          	endbr64 
    7eea:	55                   	push   %rbp
    7eeb:	48 89 e5             	mov    %rsp,%rbp
    7eee:	89 7d fc             	mov    %edi,-0x4(%rbp)
    7ef1:	89 75 f8             	mov    %esi,-0x8(%rbp)
    7ef4:	8b 45 fc             	mov    -0x4(%rbp),%eax
    7ef7:	0f af 45 f8          	imul   -0x8(%rbp),%eax
    7efb:	5d                   	pop    %rbp
    7efc:	c3                   	retq   

0000000000007efd <safe_mod_func_uint32_t_u_u>:
    7efd:	f3 0f 1e fa          	endbr64 
    7f01:	55                   	push   %rbp
    7f02:	48 89 e5             	mov    %rsp,%rbp
    7f05:	89 7d fc             	mov    %edi,-0x4(%rbp)
    7f08:	89 75 f8             	mov    %esi,-0x8(%rbp)
    7f0b:	83 7d f8 00          	cmpl   $0x0,-0x8(%rbp)
    7f0f:	74 0f                	je     7f20 <safe_mod_func_uint32_t_u_u+0x23>
    7f11:	8b 45 fc             	mov    -0x4(%rbp),%eax
    7f14:	ba 00 00 00 00       	mov    $0x0,%edx
    7f19:	f7 75 f8             	divl   -0x8(%rbp)
    7f1c:	89 d0                	mov    %edx,%eax
    7f1e:	eb 03                	jmp    7f23 <safe_mod_func_uint32_t_u_u+0x26>
    7f20:	8b 45 fc             	mov    -0x4(%rbp),%eax
    7f23:	5d                   	pop    %rbp
    7f24:	c3                   	retq   

0000000000007f25 <safe_div_func_uint32_t_u_u>:
    7f25:	f3 0f 1e fa          	endbr64 
    7f29:	55                   	push   %rbp
    7f2a:	48 89 e5             	mov    %rsp,%rbp
    7f2d:	89 7d fc             	mov    %edi,-0x4(%rbp)
    7f30:	89 75 f8             	mov    %esi,-0x8(%rbp)
    7f33:	83 7d f8 00          	cmpl   $0x0,-0x8(%rbp)
    7f37:	74 0d                	je     7f46 <safe_div_func_uint32_t_u_u+0x21>
    7f39:	8b 45 fc             	mov    -0x4(%rbp),%eax
    7f3c:	ba 00 00 00 00       	mov    $0x0,%edx
    7f41:	f7 75 f8             	divl   -0x8(%rbp)
    7f44:	eb 03                	jmp    7f49 <safe_div_func_uint32_t_u_u+0x24>
    7f46:	8b 45 fc             	mov    -0x4(%rbp),%eax
    7f49:	5d                   	pop    %rbp
    7f4a:	c3                   	retq   

0000000000007f4b <safe_lshift_func_uint32_t_u_s>:
    7f4b:	f3 0f 1e fa          	endbr64 
    7f4f:	55                   	push   %rbp
    7f50:	48 89 e5             	mov    %rsp,%rbp
    7f53:	89 7d fc             	mov    %edi,-0x4(%rbp)
    7f56:	89 75 f8             	mov    %esi,-0x8(%rbp)
    7f59:	83 7d f8 00          	cmpl   $0x0,-0x8(%rbp)
    7f5d:	78 27                	js     7f86 <safe_lshift_func_uint32_t_u_s+0x3b>
    7f5f:	83 7d f8 1f          	cmpl   $0x1f,-0x8(%rbp)
    7f63:	7f 21                	jg     7f86 <safe_lshift_func_uint32_t_u_s+0x3b>
    7f65:	8b 45 f8             	mov    -0x8(%rbp),%eax
    7f68:	ba ff ff ff ff       	mov    $0xffffffff,%edx
    7f6d:	89 c1                	mov    %eax,%ecx
    7f6f:	d3 ea                	shr    %cl,%edx
    7f71:	89 d0                	mov    %edx,%eax
    7f73:	39 45 fc             	cmp    %eax,-0x4(%rbp)
    7f76:	77 0e                	ja     7f86 <safe_lshift_func_uint32_t_u_s+0x3b>
    7f78:	8b 45 f8             	mov    -0x8(%rbp),%eax
    7f7b:	8b 55 fc             	mov    -0x4(%rbp),%edx
    7f7e:	89 c1                	mov    %eax,%ecx
    7f80:	d3 e2                	shl    %cl,%edx
    7f82:	89 d0                	mov    %edx,%eax
    7f84:	eb 03                	jmp    7f89 <safe_lshift_func_uint32_t_u_s+0x3e>
    7f86:	8b 45 fc             	mov    -0x4(%rbp),%eax
    7f89:	5d                   	pop    %rbp
    7f8a:	c3                   	retq   

0000000000007f8b <safe_lshift_func_uint32_t_u_u>:
    7f8b:	f3 0f 1e fa          	endbr64 
    7f8f:	55                   	push   %rbp
    7f90:	48 89 e5             	mov    %rsp,%rbp
    7f93:	89 7d fc             	mov    %edi,-0x4(%rbp)
    7f96:	89 75 f8             	mov    %esi,-0x8(%rbp)
    7f99:	83 7d f8 1f          	cmpl   $0x1f,-0x8(%rbp)
    7f9d:	77 21                	ja     7fc0 <safe_lshift_func_uint32_t_u_u+0x35>
    7f9f:	8b 45 f8             	mov    -0x8(%rbp),%eax
    7fa2:	ba ff ff ff ff       	mov    $0xffffffff,%edx
    7fa7:	89 c1                	mov    %eax,%ecx
    7fa9:	d3 ea                	shr    %cl,%edx
    7fab:	89 d0                	mov    %edx,%eax
    7fad:	39 45 fc             	cmp    %eax,-0x4(%rbp)
    7fb0:	77 0e                	ja     7fc0 <safe_lshift_func_uint32_t_u_u+0x35>
    7fb2:	8b 45 f8             	mov    -0x8(%rbp),%eax
    7fb5:	8b 55 fc             	mov    -0x4(%rbp),%edx
    7fb8:	89 c1                	mov    %eax,%ecx
    7fba:	d3 e2                	shl    %cl,%edx
    7fbc:	89 d0                	mov    %edx,%eax
    7fbe:	eb 03                	jmp    7fc3 <safe_lshift_func_uint32_t_u_u+0x38>
    7fc0:	8b 45 fc             	mov    -0x4(%rbp),%eax
    7fc3:	5d                   	pop    %rbp
    7fc4:	c3                   	retq   

0000000000007fc5 <safe_rshift_func_uint32_t_u_s>:
    7fc5:	f3 0f 1e fa          	endbr64 
    7fc9:	55                   	push   %rbp
    7fca:	48 89 e5             	mov    %rsp,%rbp
    7fcd:	89 7d fc             	mov    %edi,-0x4(%rbp)
    7fd0:	89 75 f8             	mov    %esi,-0x8(%rbp)
    7fd3:	83 7d f8 00          	cmpl   $0x0,-0x8(%rbp)
    7fd7:	78 14                	js     7fed <safe_rshift_func_uint32_t_u_s+0x28>
    7fd9:	83 7d f8 1f          	cmpl   $0x1f,-0x8(%rbp)
    7fdd:	7f 0e                	jg     7fed <safe_rshift_func_uint32_t_u_s+0x28>
    7fdf:	8b 45 f8             	mov    -0x8(%rbp),%eax
    7fe2:	8b 55 fc             	mov    -0x4(%rbp),%edx
    7fe5:	89 c1                	mov    %eax,%ecx
    7fe7:	d3 ea                	shr    %cl,%edx
    7fe9:	89 d0                	mov    %edx,%eax
    7feb:	eb 03                	jmp    7ff0 <safe_rshift_func_uint32_t_u_s+0x2b>
    7fed:	8b 45 fc             	mov    -0x4(%rbp),%eax
    7ff0:	5d                   	pop    %rbp
    7ff1:	c3                   	retq   

0000000000007ff2 <safe_rshift_func_uint32_t_u_u>:
    7ff2:	f3 0f 1e fa          	endbr64 
    7ff6:	55                   	push   %rbp
    7ff7:	48 89 e5             	mov    %rsp,%rbp
    7ffa:	89 7d fc             	mov    %edi,-0x4(%rbp)
    7ffd:	89 75 f8             	mov    %esi,-0x8(%rbp)
    8000:	83 7d f8 1f          	cmpl   $0x1f,-0x8(%rbp)
    8004:	77 0e                	ja     8014 <safe_rshift_func_uint32_t_u_u+0x22>
    8006:	8b 45 f8             	mov    -0x8(%rbp),%eax
    8009:	8b 55 fc             	mov    -0x4(%rbp),%edx
    800c:	89 c1                	mov    %eax,%ecx
    800e:	d3 ea                	shr    %cl,%edx
    8010:	89 d0                	mov    %edx,%eax
    8012:	eb 03                	jmp    8017 <safe_rshift_func_uint32_t_u_u+0x25>
    8014:	8b 45 fc             	mov    -0x4(%rbp),%eax
    8017:	5d                   	pop    %rbp
    8018:	c3                   	retq   

0000000000008019 <safe_unary_minus_func_uint64_t_u>:
    8019:	f3 0f 1e fa          	endbr64 
    801d:	55                   	push   %rbp
    801e:	48 89 e5             	mov    %rsp,%rbp
    8021:	48 89 7d f8          	mov    %rdi,-0x8(%rbp)
    8025:	48 8b 45 f8          	mov    -0x8(%rbp),%rax
    8029:	48 f7 d8             	neg    %rax
    802c:	5d                   	pop    %rbp
    802d:	c3                   	retq   

000000000000802e <safe_add_func_uint64_t_u_u>:
    802e:	f3 0f 1e fa          	endbr64 
    8032:	55                   	push   %rbp
    8033:	48 89 e5             	mov    %rsp,%rbp
    8036:	48 89 7d f8          	mov    %rdi,-0x8(%rbp)
    803a:	48 89 75 f0          	mov    %rsi,-0x10(%rbp)
    803e:	48 8b 55 f8          	mov    -0x8(%rbp),%rdx
    8042:	48 8b 45 f0          	mov    -0x10(%rbp),%rax
    8046:	48 01 d0             	add    %rdx,%rax
    8049:	5d                   	pop    %rbp
    804a:	c3                   	retq   

000000000000804b <safe_sub_func_uint64_t_u_u>:
    804b:	f3 0f 1e fa          	endbr64 
    804f:	55                   	push   %rbp
    8050:	48 89 e5             	mov    %rsp,%rbp
    8053:	48 89 7d f8          	mov    %rdi,-0x8(%rbp)
    8057:	48 89 75 f0          	mov    %rsi,-0x10(%rbp)
    805b:	48 8b 45 f8          	mov    -0x8(%rbp),%rax
    805f:	48 2b 45 f0          	sub    -0x10(%rbp),%rax
    8063:	5d                   	pop    %rbp
    8064:	c3                   	retq   

0000000000008065 <safe_mul_func_uint64_t_u_u>:
    8065:	f3 0f 1e fa          	endbr64 
    8069:	55                   	push   %rbp
    806a:	48 89 e5             	mov    %rsp,%rbp
    806d:	48 89 7d f8          	mov    %rdi,-0x8(%rbp)
    8071:	48 89 75 f0          	mov    %rsi,-0x10(%rbp)
    8075:	48 8b 45 f8          	mov    -0x8(%rbp),%rax
    8079:	48 0f af 45 f0       	imul   -0x10(%rbp),%rax
    807e:	5d                   	pop    %rbp
    807f:	c3                   	retq   

0000000000008080 <safe_mod_func_uint64_t_u_u>:
    8080:	f3 0f 1e fa          	endbr64 
    8084:	55                   	push   %rbp
    8085:	48 89 e5             	mov    %rsp,%rbp
    8088:	48 89 7d f8          	mov    %rdi,-0x8(%rbp)
    808c:	48 89 75 f0          	mov    %rsi,-0x10(%rbp)
    8090:	48 83 7d f0 00       	cmpq   $0x0,-0x10(%rbp)
    8095:	74 12                	je     80a9 <safe_mod_func_uint64_t_u_u+0x29>
    8097:	48 8b 45 f8          	mov    -0x8(%rbp),%rax
    809b:	ba 00 00 00 00       	mov    $0x0,%edx
    80a0:	48 f7 75 f0          	divq   -0x10(%rbp)
    80a4:	48 89 d0             	mov    %rdx,%rax
    80a7:	eb 04                	jmp    80ad <safe_mod_func_uint64_t_u_u+0x2d>
    80a9:	48 8b 45 f8          	mov    -0x8(%rbp),%rax
    80ad:	5d                   	pop    %rbp
    80ae:	c3                   	retq   

00000000000080af <safe_div_func_uint64_t_u_u>:
    80af:	f3 0f 1e fa          	endbr64 
    80b3:	55                   	push   %rbp
    80b4:	48 89 e5             	mov    %rsp,%rbp
    80b7:	48 89 7d f8          	mov    %rdi,-0x8(%rbp)
    80bb:	48 89 75 f0          	mov    %rsi,-0x10(%rbp)
    80bf:	48 83 7d f0 00       	cmpq   $0x0,-0x10(%rbp)
    80c4:	74 0f                	je     80d5 <safe_div_func_uint64_t_u_u+0x26>
    80c6:	48 8b 45 f8          	mov    -0x8(%rbp),%rax
    80ca:	ba 00 00 00 00       	mov    $0x0,%edx
    80cf:	48 f7 75 f0          	divq   -0x10(%rbp)
    80d3:	eb 04                	jmp    80d9 <safe_div_func_uint64_t_u_u+0x2a>
    80d5:	48 8b 45 f8          	mov    -0x8(%rbp),%rax
    80d9:	5d                   	pop    %rbp
    80da:	c3                   	retq   

00000000000080db <safe_lshift_func_uint64_t_u_s>:
    80db:	f3 0f 1e fa          	endbr64 
    80df:	55                   	push   %rbp
    80e0:	48 89 e5             	mov    %rsp,%rbp
    80e3:	48 89 7d f8          	mov    %rdi,-0x8(%rbp)
    80e7:	89 75 f4             	mov    %esi,-0xc(%rbp)
    80ea:	83 7d f4 00          	cmpl   $0x0,-0xc(%rbp)
    80ee:	78 2f                	js     811f <safe_lshift_func_uint64_t_u_s+0x44>
    80f0:	83 7d f4 1f          	cmpl   $0x1f,-0xc(%rbp)
    80f4:	7f 29                	jg     811f <safe_lshift_func_uint64_t_u_s+0x44>
    80f6:	8b 45 f4             	mov    -0xc(%rbp),%eax
    80f9:	48 c7 c2 ff ff ff ff 	mov    $0xffffffffffffffff,%rdx
    8100:	89 c1                	mov    %eax,%ecx
    8102:	48 d3 ea             	shr    %cl,%rdx
    8105:	48 89 d0             	mov    %rdx,%rax
    8108:	48 39 45 f8          	cmp    %rax,-0x8(%rbp)
    810c:	77 11                	ja     811f <safe_lshift_func_uint64_t_u_s+0x44>
    810e:	8b 45 f4             	mov    -0xc(%rbp),%eax
    8111:	48 8b 55 f8          	mov    -0x8(%rbp),%rdx
    8115:	89 c1                	mov    %eax,%ecx
    8117:	48 d3 e2             	shl    %cl,%rdx
    811a:	48 89 d0             	mov    %rdx,%rax
    811d:	eb 04                	jmp    8123 <safe_lshift_func_uint64_t_u_s+0x48>
    811f:	48 8b 45 f8          	mov    -0x8(%rbp),%rax
    8123:	5d                   	pop    %rbp
    8124:	c3                   	retq   

0000000000008125 <safe_lshift_func_uint64_t_u_u>:
    8125:	f3 0f 1e fa          	endbr64 
    8129:	55                   	push   %rbp
    812a:	48 89 e5             	mov    %rsp,%rbp
    812d:	48 89 7d f8          	mov    %rdi,-0x8(%rbp)
    8131:	89 75 f4             	mov    %esi,-0xc(%rbp)
    8134:	83 7d f4 1f          	cmpl   $0x1f,-0xc(%rbp)
    8138:	77 29                	ja     8163 <safe_lshift_func_uint64_t_u_u+0x3e>
    813a:	8b 45 f4             	mov    -0xc(%rbp),%eax
    813d:	48 c7 c2 ff ff ff ff 	mov    $0xffffffffffffffff,%rdx
    8144:	89 c1                	mov    %eax,%ecx
    8146:	48 d3 ea             	shr    %cl,%rdx
    8149:	48 89 d0             	mov    %rdx,%rax
    814c:	48 39 45 f8          	cmp    %rax,-0x8(%rbp)
    8150:	77 11                	ja     8163 <safe_lshift_func_uint64_t_u_u+0x3e>
    8152:	8b 45 f4             	mov    -0xc(%rbp),%eax
    8155:	48 8b 55 f8          	mov    -0x8(%rbp),%rdx
    8159:	89 c1                	mov    %eax,%ecx
    815b:	48 d3 e2             	shl    %cl,%rdx
    815e:	48 89 d0             	mov    %rdx,%rax
    8161:	eb 04                	jmp    8167 <safe_lshift_func_uint64_t_u_u+0x42>
    8163:	48 8b 45 f8          	mov    -0x8(%rbp),%rax
    8167:	5d                   	pop    %rbp
    8168:	c3                   	retq   

0000000000008169 <safe_rshift_func_uint64_t_u_s>:
    8169:	f3 0f 1e fa          	endbr64 
    816d:	55                   	push   %rbp
    816e:	48 89 e5             	mov    %rsp,%rbp
    8171:	48 89 7d f8          	mov    %rdi,-0x8(%rbp)
    8175:	89 75 f4             	mov    %esi,-0xc(%rbp)
    8178:	83 7d f4 00          	cmpl   $0x0,-0xc(%rbp)
    817c:	78 17                	js     8195 <safe_rshift_func_uint64_t_u_s+0x2c>
    817e:	83 7d f4 1f          	cmpl   $0x1f,-0xc(%rbp)
    8182:	7f 11                	jg     8195 <safe_rshift_func_uint64_t_u_s+0x2c>
    8184:	8b 45 f4             	mov    -0xc(%rbp),%eax
    8187:	48 8b 55 f8          	mov    -0x8(%rbp),%rdx
    818b:	89 c1                	mov    %eax,%ecx
    818d:	48 d3 ea             	shr    %cl,%rdx
    8190:	48 89 d0             	mov    %rdx,%rax
    8193:	eb 04                	jmp    8199 <safe_rshift_func_uint64_t_u_s+0x30>
    8195:	48 8b 45 f8          	mov    -0x8(%rbp),%rax
    8199:	5d                   	pop    %rbp
    819a:	c3                   	retq   

000000000000819b <safe_rshift_func_uint64_t_u_u>:
    819b:	f3 0f 1e fa          	endbr64 
    819f:	55                   	push   %rbp
    81a0:	48 89 e5             	mov    %rsp,%rbp
    81a3:	48 89 7d f8          	mov    %rdi,-0x8(%rbp)
    81a7:	89 75 f4             	mov    %esi,-0xc(%rbp)
    81aa:	83 7d f4 1f          	cmpl   $0x1f,-0xc(%rbp)
    81ae:	77 11                	ja     81c1 <safe_rshift_func_uint64_t_u_u+0x26>
    81b0:	8b 45 f4             	mov    -0xc(%rbp),%eax
    81b3:	48 8b 55 f8          	mov    -0x8(%rbp),%rdx
    81b7:	89 c1                	mov    %eax,%ecx
    81b9:	48 d3 ea             	shr    %cl,%rdx
    81bc:	48 89 d0             	mov    %rdx,%rax
    81bf:	eb 04                	jmp    81c5 <safe_rshift_func_uint64_t_u_u+0x2a>
    81c1:	48 8b 45 f8          	mov    -0x8(%rbp),%rax
    81c5:	5d                   	pop    %rbp
    81c6:	c3                   	retq   

00000000000081c7 <safe_add_func_float_f_f>:
    81c7:	f3 0f 1e fa          	endbr64 
    81cb:	55                   	push   %rbp
    81cc:	48 89 e5             	mov    %rsp,%rbp
    81cf:	f3 0f 11 45 fc       	movss  %xmm0,-0x4(%rbp)
    81d4:	f3 0f 11 4d f8       	movss  %xmm1,-0x8(%rbp)
    81d9:	f3 0f 10 4d fc       	movss  -0x4(%rbp),%xmm1
    81de:	f3 0f 10 05 3e a7 00 	movss  0xa73e(%rip),%xmm0        # 12924 <g_2793+0x1884>
    81e5:	00 
    81e6:	f3 0f 59 c8          	mulss  %xmm0,%xmm1
    81ea:	f3 0f 10 55 f8       	movss  -0x8(%rbp),%xmm2
    81ef:	f3 0f 10 05 2d a7 00 	movss  0xa72d(%rip),%xmm0        # 12924 <g_2793+0x1884>
    81f6:	00 
    81f7:	f3 0f 59 c2          	mulss  %xmm2,%xmm0
    81fb:	f3 0f 58 c1          	addss  %xmm1,%xmm0
    81ff:	f3 0f 10 0d 29 a7 00 	movss  0xa729(%rip),%xmm1        # 12930 <g_2793+0x1890>
    8206:	00 
    8207:	0f 54 c1             	andps  %xmm1,%xmm0
    820a:	0f 2f 05 2f a7 00 00 	comiss 0xa72f(%rip),%xmm0        # 12940 <g_2793+0x18a0>
    8211:	76 07                	jbe    821a <safe_add_func_float_f_f+0x53>
    8213:	f3 0f 10 45 fc       	movss  -0x4(%rbp),%xmm0
    8218:	eb 0a                	jmp    8224 <safe_add_func_float_f_f+0x5d>
    821a:	f3 0f 10 45 fc       	movss  -0x4(%rbp),%xmm0
    821f:	f3 0f 58 45 f8       	addss  -0x8(%rbp),%xmm0
    8224:	5d                   	pop    %rbp
    8225:	c3                   	retq   

0000000000008226 <safe_sub_func_float_f_f>:
    8226:	f3 0f 1e fa          	endbr64 
    822a:	55                   	push   %rbp
    822b:	48 89 e5             	mov    %rsp,%rbp
    822e:	f3 0f 11 45 fc       	movss  %xmm0,-0x4(%rbp)
    8233:	f3 0f 11 4d f8       	movss  %xmm1,-0x8(%rbp)
    8238:	f3 0f 10 4d fc       	movss  -0x4(%rbp),%xmm1
    823d:	f3 0f 10 05 df a6 00 	movss  0xa6df(%rip),%xmm0        # 12924 <g_2793+0x1884>
    8244:	00 
    8245:	f3 0f 59 c1          	mulss  %xmm1,%xmm0
    8249:	f3 0f 10 55 f8       	movss  -0x8(%rbp),%xmm2
    824e:	f3 0f 10 0d ce a6 00 	movss  0xa6ce(%rip),%xmm1        # 12924 <g_2793+0x1884>
    8255:	00 
    8256:	f3 0f 59 ca          	mulss  %xmm2,%xmm1
    825a:	f3 0f 5c c1          	subss  %xmm1,%xmm0
    825e:	f3 0f 10 0d ca a6 00 	movss  0xa6ca(%rip),%xmm1        # 12930 <g_2793+0x1890>
    8265:	00 
    8266:	0f 54 c1             	andps  %xmm1,%xmm0
    8269:	0f 2f 05 d0 a6 00 00 	comiss 0xa6d0(%rip),%xmm0        # 12940 <g_2793+0x18a0>
    8270:	76 07                	jbe    8279 <safe_sub_func_float_f_f+0x53>
    8272:	f3 0f 10 45 fc       	movss  -0x4(%rbp),%xmm0
    8277:	eb 0a                	jmp    8283 <safe_sub_func_float_f_f+0x5d>
    8279:	f3 0f 10 45 fc       	movss  -0x4(%rbp),%xmm0
    827e:	f3 0f 5c 45 f8       	subss  -0x8(%rbp),%xmm0
    8283:	5d                   	pop    %rbp
    8284:	c3                   	retq   

0000000000008285 <safe_mul_func_float_f_f>:
    8285:	f3 0f 1e fa          	endbr64 
    8289:	55                   	push   %rbp
    828a:	48 89 e5             	mov    %rsp,%rbp
    828d:	f3 0f 11 45 fc       	movss  %xmm0,-0x4(%rbp)
    8292:	f3 0f 11 4d f8       	movss  %xmm1,-0x8(%rbp)
    8297:	f3 0f 10 4d fc       	movss  -0x4(%rbp),%xmm1
    829c:	f3 0f 10 05 a0 a6 00 	movss  0xa6a0(%rip),%xmm0        # 12944 <g_2793+0x18a4>
    82a3:	00 
    82a4:	f3 0f 59 c8          	mulss  %xmm0,%xmm1
    82a8:	f3 0f 10 55 f8       	movss  -0x8(%rbp),%xmm2
    82ad:	f3 0f 10 05 93 a6 00 	movss  0xa693(%rip),%xmm0        # 12948 <g_2793+0x18a8>
    82b4:	00 
    82b5:	f3 0f 59 c2          	mulss  %xmm2,%xmm0
    82b9:	f3 0f 59 c1          	mulss  %xmm1,%xmm0
    82bd:	f3 0f 10 0d 6b a6 00 	movss  0xa66b(%rip),%xmm1        # 12930 <g_2793+0x1890>
    82c4:	00 
    82c5:	0f 54 c1             	andps  %xmm1,%xmm0
    82c8:	0f 2f 05 7d a6 00 00 	comiss 0xa67d(%rip),%xmm0        # 1294c <g_2793+0x18ac>
    82cf:	76 07                	jbe    82d8 <safe_mul_func_float_f_f+0x53>
    82d1:	f3 0f 10 45 fc       	movss  -0x4(%rbp),%xmm0
    82d6:	eb 0a                	jmp    82e2 <safe_mul_func_float_f_f+0x5d>
    82d8:	f3 0f 10 45 fc       	movss  -0x4(%rbp),%xmm0
    82dd:	f3 0f 59 45 f8       	mulss  -0x8(%rbp),%xmm0
    82e2:	5d                   	pop    %rbp
    82e3:	c3                   	retq   

00000000000082e4 <safe_div_func_float_f_f>:
    82e4:	f3 0f 1e fa          	endbr64 
    82e8:	55                   	push   %rbp
    82e9:	48 89 e5             	mov    %rsp,%rbp
    82ec:	f3 0f 11 45 fc       	movss  %xmm0,-0x4(%rbp)
    82f1:	f3 0f 11 4d f8       	movss  %xmm1,-0x8(%rbp)
    82f6:	f3 0f 10 45 f8       	movss  -0x8(%rbp),%xmm0
    82fb:	f3 0f 10 0d 2d a6 00 	movss  0xa62d(%rip),%xmm1        # 12930 <g_2793+0x1890>
    8302:	00 
    8303:	0f 54 c8             	andps  %xmm0,%xmm1
    8306:	f3 0f 10 05 42 a6 00 	movss  0xa642(%rip),%xmm0        # 12950 <g_2793+0x18b0>
    830d:	00 
    830e:	0f 2f c1             	comiss %xmm1,%xmm0
    8311:	0f 97 c0             	seta   %al
    8314:	83 f0 01             	xor    $0x1,%eax
    8317:	84 c0                	test   %al,%al
    8319:	75 56                	jne    8371 <safe_div_func_float_f_f+0x8d>
    831b:	66 0f ef c0          	pxor   %xmm0,%xmm0
    831f:	0f 2e 45 f8          	ucomiss -0x8(%rbp),%xmm0
    8323:	7a 0a                	jp     832f <safe_div_func_float_f_f+0x4b>
    8325:	66 0f ef c0          	pxor   %xmm0,%xmm0
    8329:	0f 2e 45 f8          	ucomiss -0x8(%rbp),%xmm0
    832d:	74 4e                	je     837d <safe_div_func_float_f_f+0x99>
    832f:	f3 0f 10 4d fc       	movss  -0x4(%rbp),%xmm1
    8334:	f3 0f 10 05 18 a6 00 	movss  0xa618(%rip),%xmm0        # 12954 <g_2793+0x18b4>
    833b:	00 
    833c:	f3 0f 59 c1          	mulss  %xmm1,%xmm0
    8340:	f3 0f 10 55 f8       	movss  -0x8(%rbp),%xmm2
    8345:	f3 0f 10 0d 0b a6 00 	movss  0xa60b(%rip),%xmm1        # 12958 <g_2793+0x18b8>
    834c:	00 
    834d:	f3 0f 59 ca          	mulss  %xmm2,%xmm1
    8351:	f3 0f 5e c1          	divss  %xmm1,%xmm0
    8355:	f3 0f 10 0d d3 a5 00 	movss  0xa5d3(%rip),%xmm1        # 12930 <g_2793+0x1890>
    835c:	00 
    835d:	0f 54 c1             	andps  %xmm1,%xmm0
    8360:	0f 2f 05 f5 a5 00 00 	comiss 0xa5f5(%rip),%xmm0        # 1295c <g_2793+0x18bc>
    8367:	0f 97 c0             	seta   %al
    836a:	83 f0 01             	xor    $0x1,%eax
    836d:	84 c0                	test   %al,%al
    836f:	74 0c                	je     837d <safe_div_func_float_f_f+0x99>
    8371:	f3 0f 10 45 fc       	movss  -0x4(%rbp),%xmm0
    8376:	f3 0f 5e 45 f8       	divss  -0x8(%rbp),%xmm0
    837b:	eb 05                	jmp    8382 <safe_div_func_float_f_f+0x9e>
    837d:	f3 0f 10 45 fc       	movss  -0x4(%rbp),%xmm0
    8382:	5d                   	pop    %rbp
    8383:	c3                   	retq   

0000000000008384 <safe_add_func_double_f_f>:
    8384:	f3 0f 1e fa          	endbr64 
    8388:	55                   	push   %rbp
    8389:	48 89 e5             	mov    %rsp,%rbp
    838c:	f2 0f 11 45 f8       	movsd  %xmm0,-0x8(%rbp)
    8391:	f2 0f 11 4d f0       	movsd  %xmm1,-0x10(%rbp)
    8396:	f2 0f 10 4d f8       	movsd  -0x8(%rbp),%xmm1
    839b:	f2 0f 10 05 bd a5 00 	movsd  0xa5bd(%rip),%xmm0        # 12960 <g_2793+0x18c0>
    83a2:	00 
    83a3:	f2 0f 59 c8          	mulsd  %xmm0,%xmm1
    83a7:	f2 0f 10 55 f0       	movsd  -0x10(%rbp),%xmm2
    83ac:	f2 0f 10 05 ac a5 00 	movsd  0xa5ac(%rip),%xmm0        # 12960 <g_2793+0x18c0>
    83b3:	00 
    83b4:	f2 0f 59 c2          	mulsd  %xmm2,%xmm0
    83b8:	f2 0f 58 c1          	addsd  %xmm1,%xmm0
    83bc:	f3 0f 7e 0d ac a5 00 	movq   0xa5ac(%rip),%xmm1        # 12970 <g_2793+0x18d0>
    83c3:	00 
    83c4:	66 0f 54 c1          	andpd  %xmm1,%xmm0
    83c8:	66 0f 2f 05 b0 a5 00 	comisd 0xa5b0(%rip),%xmm0        # 12980 <g_2793+0x18e0>
    83cf:	00 
    83d0:	76 07                	jbe    83d9 <safe_add_func_double_f_f+0x55>
    83d2:	f2 0f 10 45 f8       	movsd  -0x8(%rbp),%xmm0
    83d7:	eb 0a                	jmp    83e3 <safe_add_func_double_f_f+0x5f>
    83d9:	f2 0f 10 45 f8       	movsd  -0x8(%rbp),%xmm0
    83de:	f2 0f 58 45 f0       	addsd  -0x10(%rbp),%xmm0
    83e3:	5d                   	pop    %rbp
    83e4:	c3                   	retq   

00000000000083e5 <safe_sub_func_double_f_f>:
    83e5:	f3 0f 1e fa          	endbr64 
    83e9:	55                   	push   %rbp
    83ea:	48 89 e5             	mov    %rsp,%rbp
    83ed:	f2 0f 11 45 f8       	movsd  %xmm0,-0x8(%rbp)
    83f2:	f2 0f 11 4d f0       	movsd  %xmm1,-0x10(%rbp)
    83f7:	f2 0f 10 4d f8       	movsd  -0x8(%rbp),%xmm1
    83fc:	f2 0f 10 05 5c a5 00 	movsd  0xa55c(%rip),%xmm0        # 12960 <g_2793+0x18c0>
    8403:	00 
    8404:	f2 0f 59 c1          	mulsd  %xmm1,%xmm0
    8408:	f2 0f 10 55 f0       	movsd  -0x10(%rbp),%xmm2
    840d:	f2 0f 10 0d 4b a5 00 	movsd  0xa54b(%rip),%xmm1        # 12960 <g_2793+0x18c0>
    8414:	00 
    8415:	f2 0f 59 ca          	mulsd  %xmm2,%xmm1
    8419:	f2 0f 5c c1          	subsd  %xmm1,%xmm0
    841d:	f3 0f 7e 0d 4b a5 00 	movq   0xa54b(%rip),%xmm1        # 12970 <g_2793+0x18d0>
    8424:	00 
    8425:	66 0f 54 c1          	andpd  %xmm1,%xmm0
    8429:	66 0f 2f 05 4f a5 00 	comisd 0xa54f(%rip),%xmm0        # 12980 <g_2793+0x18e0>
    8430:	00 
    8431:	76 07                	jbe    843a <safe_sub_func_double_f_f+0x55>
    8433:	f2 0f 10 45 f8       	movsd  -0x8(%rbp),%xmm0
    8438:	eb 0a                	jmp    8444 <safe_sub_func_double_f_f+0x5f>
    843a:	f2 0f 10 45 f8       	movsd  -0x8(%rbp),%xmm0
    843f:	f2 0f 5c 45 f0       	subsd  -0x10(%rbp),%xmm0
    8444:	5d                   	pop    %rbp
    8445:	c3                   	retq   

0000000000008446 <safe_mul_func_double_f_f>:
    8446:	f3 0f 1e fa          	endbr64 
    844a:	55                   	push   %rbp
    844b:	48 89 e5             	mov    %rsp,%rbp
    844e:	f2 0f 11 45 f8       	movsd  %xmm0,-0x8(%rbp)
    8453:	f2 0f 11 4d f0       	movsd  %xmm1,-0x10(%rbp)
    8458:	f2 0f 10 4d f8       	movsd  -0x8(%rbp),%xmm1
    845d:	f2 0f 10 05 23 a5 00 	movsd  0xa523(%rip),%xmm0        # 12988 <g_2793+0x18e8>
    8464:	00 
    8465:	f2 0f 59 c8          	mulsd  %xmm0,%xmm1
    8469:	f2 0f 10 55 f0       	movsd  -0x10(%rbp),%xmm2
    846e:	f2 0f 10 05 1a a5 00 	movsd  0xa51a(%rip),%xmm0        # 12990 <g_2793+0x18f0>
    8475:	00 
    8476:	f2 0f 59 c2          	mulsd  %xmm2,%xmm0
    847a:	f2 0f 59 c1          	mulsd  %xmm1,%xmm0
    847e:	f3 0f 7e 0d ea a4 00 	movq   0xa4ea(%rip),%xmm1        # 12970 <g_2793+0x18d0>
    8485:	00 
    8486:	66 0f 54 c1          	andpd  %xmm1,%xmm0
    848a:	66 0f 2f 05 06 a5 00 	comisd 0xa506(%rip),%xmm0        # 12998 <g_2793+0x18f8>
    8491:	00 
    8492:	76 07                	jbe    849b <safe_mul_func_double_f_f+0x55>
    8494:	f2 0f 10 45 f8       	movsd  -0x8(%rbp),%xmm0
    8499:	eb 0a                	jmp    84a5 <safe_mul_func_double_f_f+0x5f>
    849b:	f2 0f 10 45 f8       	movsd  -0x8(%rbp),%xmm0
    84a0:	f2 0f 59 45 f0       	mulsd  -0x10(%rbp),%xmm0
    84a5:	5d                   	pop    %rbp
    84a6:	c3                   	retq   

00000000000084a7 <safe_div_func_double_f_f>:
    84a7:	f3 0f 1e fa          	endbr64 
    84ab:	55                   	push   %rbp
    84ac:	48 89 e5             	mov    %rsp,%rbp
    84af:	f2 0f 11 45 f8       	movsd  %xmm0,-0x8(%rbp)
    84b4:	f2 0f 11 4d f0       	movsd  %xmm1,-0x10(%rbp)
    84b9:	f2 0f 10 45 f0       	movsd  -0x10(%rbp),%xmm0
    84be:	f3 0f 7e 0d aa a4 00 	movq   0xa4aa(%rip),%xmm1        # 12970 <g_2793+0x18d0>
    84c5:	00 
    84c6:	66 0f 54 c8          	andpd  %xmm0,%xmm1
    84ca:	f2 0f 10 05 ce a4 00 	movsd  0xa4ce(%rip),%xmm0        # 129a0 <g_2793+0x1900>
    84d1:	00 
    84d2:	66 0f 2f c1          	comisd %xmm1,%xmm0
    84d6:	0f 97 c0             	seta   %al
    84d9:	83 f0 01             	xor    $0x1,%eax
    84dc:	84 c0                	test   %al,%al
    84de:	75 5a                	jne    853a <safe_div_func_double_f_f+0x93>
    84e0:	66 0f ef c0          	pxor   %xmm0,%xmm0
    84e4:	66 0f 2e 45 f0       	ucomisd -0x10(%rbp),%xmm0
    84e9:	7a 0b                	jp     84f6 <safe_div_func_double_f_f+0x4f>
    84eb:	66 0f ef c0          	pxor   %xmm0,%xmm0
    84ef:	66 0f 2e 45 f0       	ucomisd -0x10(%rbp),%xmm0
    84f4:	74 50                	je     8546 <safe_div_func_double_f_f+0x9f>
    84f6:	f2 0f 10 4d f8       	movsd  -0x8(%rbp),%xmm1
    84fb:	f2 0f 10 05 a5 a4 00 	movsd  0xa4a5(%rip),%xmm0        # 129a8 <g_2793+0x1908>
    8502:	00 
    8503:	f2 0f 59 c1          	mulsd  %xmm1,%xmm0
    8507:	f2 0f 10 55 f0       	movsd  -0x10(%rbp),%xmm2
    850c:	f2 0f 10 0d 9c a4 00 	movsd  0xa49c(%rip),%xmm1        # 129b0 <g_2793+0x1910>
    8513:	00 
    8514:	f2 0f 59 ca          	mulsd  %xmm2,%xmm1
    8518:	f2 0f 5e c1          	divsd  %xmm1,%xmm0
    851c:	f3 0f 7e 0d 4c a4 00 	movq   0xa44c(%rip),%xmm1        # 12970 <g_2793+0x18d0>
    8523:	00 
    8524:	66 0f 54 c1          	andpd  %xmm1,%xmm0
    8528:	66 0f 2f 05 88 a4 00 	comisd 0xa488(%rip),%xmm0        # 129b8 <g_2793+0x1918>
    852f:	00 
    8530:	0f 97 c0             	seta   %al
    8533:	83 f0 01             	xor    $0x1,%eax
    8536:	84 c0                	test   %al,%al
    8538:	74 0c                	je     8546 <safe_div_func_double_f_f+0x9f>
    853a:	f2 0f 10 45 f8       	movsd  -0x8(%rbp),%xmm0
    853f:	f2 0f 5e 45 f0       	divsd  -0x10(%rbp),%xmm0
    8544:	eb 05                	jmp    854b <safe_div_func_double_f_f+0xa4>
    8546:	f2 0f 10 45 f8       	movsd  -0x8(%rbp),%xmm0
    854b:	5d                   	pop    %rbp
    854c:	c3                   	retq   

000000000000854d <safe_convert_func_float_to_int32_t>:
    854d:	f3 0f 1e fa          	endbr64 
    8551:	55                   	push   %rbp
    8552:	48 89 e5             	mov    %rsp,%rbp
    8555:	f3 0f 11 45 fc       	movss  %xmm0,-0x4(%rbp)
    855a:	f3 0f 10 05 5e a4 00 	movss  0xa45e(%rip),%xmm0        # 129c0 <g_2793+0x1920>
    8561:	00 
    8562:	0f 2f 45 fc          	comiss -0x4(%rbp),%xmm0
    8566:	0f 93 c0             	setae  %al
    8569:	83 f0 01             	xor    $0x1,%eax
    856c:	84 c0                	test   %al,%al
    856e:	74 21                	je     8591 <safe_convert_func_float_to_int32_t+0x44>
    8570:	f3 0f 10 45 fc       	movss  -0x4(%rbp),%xmm0
    8575:	0f 2f 05 48 a4 00 00 	comiss 0xa448(%rip),%xmm0        # 129c4 <g_2793+0x1924>
    857c:	0f 93 c0             	setae  %al
    857f:	83 f0 01             	xor    $0x1,%eax
    8582:	84 c0                	test   %al,%al
    8584:	74 0b                	je     8591 <safe_convert_func_float_to_int32_t+0x44>
    8586:	f3 0f 10 45 fc       	movss  -0x4(%rbp),%xmm0
    858b:	f3 0f 2c c0          	cvttss2si %xmm0,%eax
    858f:	eb 05                	jmp    8596 <safe_convert_func_float_to_int32_t+0x49>
    8591:	b8 ff ff ff 7f       	mov    $0x7fffffff,%eax
    8596:	5d                   	pop    %rbp
    8597:	c3                   	retq   

0000000000008598 <crc32_gentab>:
    8598:	f3 0f 1e fa          	endbr64 
    859c:	55                   	push   %rbp
    859d:	48 89 e5             	mov    %rsp,%rbp
    85a0:	c7 45 fc 20 83 b8 ed 	movl   $0xedb88320,-0x4(%rbp)
    85a7:	c7 45 f4 00 00 00 00 	movl   $0x0,-0xc(%rbp)
    85ae:	eb 51                	jmp    8601 <crc32_gentab+0x69>
    85b0:	8b 45 f4             	mov    -0xc(%rbp),%eax
    85b3:	89 45 f0             	mov    %eax,-0x10(%rbp)
    85b6:	c7 45 f8 08 00 00 00 	movl   $0x8,-0x8(%rbp)
    85bd:	eb 1e                	jmp    85dd <crc32_gentab+0x45>
    85bf:	8b 45 f0             	mov    -0x10(%rbp),%eax
    85c2:	83 e0 01             	and    $0x1,%eax
    85c5:	85 c0                	test   %eax,%eax
    85c7:	74 0d                	je     85d6 <crc32_gentab+0x3e>
    85c9:	8b 45 f0             	mov    -0x10(%rbp),%eax
    85cc:	d1 e8                	shr    %eax
    85ce:	33 45 fc             	xor    -0x4(%rbp),%eax
    85d1:	89 45 f0             	mov    %eax,-0x10(%rbp)
    85d4:	eb 03                	jmp    85d9 <crc32_gentab+0x41>
    85d6:	d1 6d f0             	shrl   -0x10(%rbp)
    85d9:	83 6d f8 01          	subl   $0x1,-0x8(%rbp)
    85dd:	83 7d f8 00          	cmpl   $0x0,-0x8(%rbp)
    85e1:	7f dc                	jg     85bf <crc32_gentab+0x27>
    85e3:	8b 45 f4             	mov    -0xc(%rbp),%eax
    85e6:	48 98                	cltq   
    85e8:	48 8d 0c 85 00 00 00 	lea    0x0(,%rax,4),%rcx
    85ef:	00 
    85f0:	48 8d 15 49 0e 01 00 	lea    0x10e49(%rip),%rdx        # 19440 <crc32_tab>
    85f7:	8b 45 f0             	mov    -0x10(%rbp),%eax
    85fa:	89 04 11             	mov    %eax,(%rcx,%rdx,1)
    85fd:	83 45 f4 01          	addl   $0x1,-0xc(%rbp)
    8601:	81 7d f4 ff 00 00 00 	cmpl   $0xff,-0xc(%rbp)
    8608:	7e a6                	jle    85b0 <crc32_gentab+0x18>
    860a:	90                   	nop
    860b:	90                   	nop
    860c:	5d                   	pop    %rbp
    860d:	c3                   	retq   

000000000000860e <crc32_byte>:
    860e:	f3 0f 1e fa          	endbr64 
    8612:	55                   	push   %rbp
    8613:	48 89 e5             	mov    %rsp,%rbp
    8616:	89 f8                	mov    %edi,%eax
    8618:	88 45 fc             	mov    %al,-0x4(%rbp)
    861b:	8b 05 ff c9 00 00    	mov    0xc9ff(%rip),%eax        # 15020 <crc32_context>
    8621:	c1 e8 08             	shr    $0x8,%eax
    8624:	89 c1                	mov    %eax,%ecx
    8626:	0f b6 55 fc          	movzbl -0x4(%rbp),%edx
    862a:	8b 05 f0 c9 00 00    	mov    0xc9f0(%rip),%eax        # 15020 <crc32_context>
    8630:	31 d0                	xor    %edx,%eax
    8632:	0f b6 c0             	movzbl %al,%eax
    8635:	89 c0                	mov    %eax,%eax
    8637:	48 8d 14 85 00 00 00 	lea    0x0(,%rax,4),%rdx
    863e:	00 
    863f:	48 8d 05 fa 0d 01 00 	lea    0x10dfa(%rip),%rax        # 19440 <crc32_tab>
    8646:	8b 04 02             	mov    (%rdx,%rax,1),%eax
    8649:	31 c8                	xor    %ecx,%eax
    864b:	89 05 cf c9 00 00    	mov    %eax,0xc9cf(%rip)        # 15020 <crc32_context>
    8651:	90                   	nop
    8652:	5d                   	pop    %rbp
    8653:	c3                   	retq   

0000000000008654 <crc32_8bytes>:
    8654:	f3 0f 1e fa          	endbr64 
    8658:	55                   	push   %rbp
    8659:	48 89 e5             	mov    %rsp,%rbp
    865c:	48 83 ec 08          	sub    $0x8,%rsp
    8660:	48 89 7d f8          	mov    %rdi,-0x8(%rbp)
    8664:	48 8b 45 f8          	mov    -0x8(%rbp),%rax
    8668:	0f b6 c0             	movzbl %al,%eax
    866b:	89 c7                	mov    %eax,%edi
    866d:	e8 9c ff ff ff       	callq  860e <crc32_byte>
    8672:	48 8b 45 f8          	mov    -0x8(%rbp),%rax
    8676:	48 c1 e8 08          	shr    $0x8,%rax
    867a:	0f b6 c0             	movzbl %al,%eax
    867d:	89 c7                	mov    %eax,%edi
    867f:	e8 8a ff ff ff       	callq  860e <crc32_byte>
    8684:	48 8b 45 f8          	mov    -0x8(%rbp),%rax
    8688:	48 c1 e8 10          	shr    $0x10,%rax
    868c:	0f b6 c0             	movzbl %al,%eax
    868f:	89 c7                	mov    %eax,%edi
    8691:	e8 78 ff ff ff       	callq  860e <crc32_byte>
    8696:	48 8b 45 f8          	mov    -0x8(%rbp),%rax
    869a:	48 c1 e8 18          	shr    $0x18,%rax
    869e:	0f b6 c0             	movzbl %al,%eax
    86a1:	89 c7                	mov    %eax,%edi
    86a3:	e8 66 ff ff ff       	callq  860e <crc32_byte>
    86a8:	48 8b 45 f8          	mov    -0x8(%rbp),%rax
    86ac:	48 c1 e8 20          	shr    $0x20,%rax
    86b0:	0f b6 c0             	movzbl %al,%eax
    86b3:	89 c7                	mov    %eax,%edi
    86b5:	e8 54 ff ff ff       	callq  860e <crc32_byte>
    86ba:	48 8b 45 f8          	mov    -0x8(%rbp),%rax
    86be:	48 c1 e8 28          	shr    $0x28,%rax
    86c2:	0f b6 c0             	movzbl %al,%eax
    86c5:	89 c7                	mov    %eax,%edi
    86c7:	e8 42 ff ff ff       	callq  860e <crc32_byte>
    86cc:	48 8b 45 f8          	mov    -0x8(%rbp),%rax
    86d0:	48 c1 e8 30          	shr    $0x30,%rax
    86d4:	0f b6 c0             	movzbl %al,%eax
    86d7:	89 c7                	mov    %eax,%edi
    86d9:	e8 30 ff ff ff       	callq  860e <crc32_byte>
    86de:	48 8b 45 f8          	mov    -0x8(%rbp),%rax
    86e2:	48 c1 e8 38          	shr    $0x38,%rax
    86e6:	0f b6 c0             	movzbl %al,%eax
    86e9:	89 c7                	mov    %eax,%edi
    86eb:	e8 1e ff ff ff       	callq  860e <crc32_byte>
    86f0:	90                   	nop
    86f1:	c9                   	leaveq 
    86f2:	c3                   	retq   

00000000000086f3 <transparent_crc>:
    86f3:	f3 0f 1e fa          	endbr64 
    86f7:	55                   	push   %rbp
    86f8:	48 89 e5             	mov    %rsp,%rbp
    86fb:	48 83 ec 20          	sub    $0x20,%rsp
    86ff:	48 89 7d f8          	mov    %rdi,-0x8(%rbp)
    8703:	48 89 75 f0          	mov    %rsi,-0x10(%rbp)
    8707:	89 55 ec             	mov    %edx,-0x14(%rbp)
    870a:	48 8b 45 f8          	mov    -0x8(%rbp),%rax
    870e:	48 89 c7             	mov    %rax,%rdi
    8711:	e8 3e ff ff ff       	callq  8654 <crc32_8bytes>
    8716:	83 7d ec 00          	cmpl   $0x0,-0x14(%rbp)
    871a:	74 22                	je     873e <transparent_crc+0x4b>
    871c:	8b 05 fe c8 00 00    	mov    0xc8fe(%rip),%eax        # 15020 <crc32_context>
    8722:	f7 d0                	not    %eax
    8724:	89 c2                	mov    %eax,%edx
    8726:	48 8b 45 f0          	mov    -0x10(%rbp),%rax
    872a:	48 89 c6             	mov    %rax,%rsi
    872d:	48 8d 3d fc 88 00 00 	lea    0x88fc(%rip),%rdi        # 11030 <_IO_stdin_used+0x30>
    8734:	b8 00 00 00 00       	mov    $0x0,%eax
    8739:	e8 42 e9 ff ff       	callq  7080 <printf@plt>
    873e:	90                   	nop
    873f:	c9                   	leaveq 
    8740:	c3                   	retq   

0000000000008741 <transparent_crc_bytes>:
    8741:	f3 0f 1e fa          	endbr64 
    8745:	55                   	push   %rbp
    8746:	48 89 e5             	mov    %rsp,%rbp
    8749:	48 83 ec 30          	sub    $0x30,%rsp
    874d:	48 89 7d e8          	mov    %rdi,-0x18(%rbp)
    8751:	89 75 e4             	mov    %esi,-0x1c(%rbp)
    8754:	48 89 55 d8          	mov    %rdx,-0x28(%rbp)
    8758:	89 4d e0             	mov    %ecx,-0x20(%rbp)
    875b:	c7 45 fc 00 00 00 00 	movl   $0x0,-0x4(%rbp)
    8762:	eb 1e                	jmp    8782 <transparent_crc_bytes+0x41>
    8764:	8b 45 fc             	mov    -0x4(%rbp),%eax
    8767:	48 63 d0             	movslq %eax,%rdx
    876a:	48 8b 45 e8          	mov    -0x18(%rbp),%rax
    876e:	48 01 d0             	add    %rdx,%rax
    8771:	0f b6 00             	movzbl (%rax),%eax
    8774:	0f b6 c0             	movzbl %al,%eax
    8777:	89 c7                	mov    %eax,%edi
    8779:	e8 90 fe ff ff       	callq  860e <crc32_byte>
    877e:	83 45 fc 01          	addl   $0x1,-0x4(%rbp)
    8782:	8b 45 fc             	mov    -0x4(%rbp),%eax
    8785:	3b 45 e4             	cmp    -0x1c(%rbp),%eax
    8788:	7c da                	jl     8764 <transparent_crc_bytes+0x23>
    878a:	83 7d e0 00          	cmpl   $0x0,-0x20(%rbp)
    878e:	74 22                	je     87b2 <transparent_crc_bytes+0x71>
    8790:	8b 05 8a c8 00 00    	mov    0xc88a(%rip),%eax        # 15020 <crc32_context>
    8796:	f7 d0                	not    %eax
    8798:	89 c2                	mov    %eax,%edx
    879a:	48 8b 45 d8          	mov    -0x28(%rbp),%rax
    879e:	48 89 c6             	mov    %rax,%rsi
    87a1:	48 8d 3d 88 88 00 00 	lea    0x8888(%rip),%rdi        # 11030 <_IO_stdin_used+0x30>
    87a8:	b8 00 00 00 00       	mov    $0x0,%eax
    87ad:	e8 ce e8 ff ff       	callq  7080 <printf@plt>
    87b2:	90                   	nop
    87b3:	c9                   	leaveq 
    87b4:	c3                   	retq   

00000000000087b5 <func_1>:
    87b5:	f3 0f 1e fa          	endbr64 
    87b9:	55                   	push   %rbp
    87ba:	48 89 e5             	mov    %rsp,%rbp
    87bd:	53                   	push   %rbx
    87be:	48 83 ec 28          	sub    $0x28,%rsp
    87c2:	64 48 8b 04 25 28 00 	mov    %fs:0x28,%rax
    87c9:	00 00 
    87cb:	48 89 45 e8          	mov    %rax,-0x18(%rbp)
    87cf:	31 c0                	xor    %eax,%eax
    87d1:	c7 45 dc 00 00 00 00 	movl   $0x0,-0x24(%rbp)
    87d8:	eb 11                	jmp    87eb <func_1+0x36>
    87da:	8b 45 dc             	mov    -0x24(%rbp),%eax
    87dd:	48 98                	cltq   
    87df:	c7 44 85 e0 00 00 00 	movl   $0x0,-0x20(%rbp,%rax,4)
    87e6:	00 
    87e7:	83 45 dc 01          	addl   $0x1,-0x24(%rbp)
    87eb:	83 7d dc 01          	cmpl   $0x1,-0x24(%rbp)
    87ef:	7e e9                	jle    87da <func_1+0x25>
    87f1:	48 8b 05 30 c8 00 00 	mov    0xc830(%rip),%rax        # 15028 <g_8>
    87f8:	0f b6 d0             	movzbl %al,%edx
    87fb:	48 8b 05 26 c8 00 00 	mov    0xc826(%rip),%rax        # 15028 <g_8>
    8802:	89 c7                	mov    %eax,%edi
    8804:	48 8b 05 1d c8 00 00 	mov    0xc81d(%rip),%rax        # 15028 <g_8>
    880b:	89 c6                	mov    %eax,%esi
    880d:	8b 45 e4             	mov    -0x1c(%rbp),%eax
    8810:	98                   	cwtl   
    8811:	48 8b 1d f0 0b 01 00 	mov    0x10bf0(%rip),%rbx        # 19408 <g_2803>
    8818:	89 d1                	mov    %edx,%ecx
    881a:	89 fa                	mov    %edi,%edx
    881c:	89 c7                	mov    %eax,%edi
    881e:	e8 21 00 00 00       	callq  8844 <func_2>
    8823:	48 89 03             	mov    %rax,(%rbx)
    8826:	8b 45 e4             	mov    -0x1c(%rbp),%eax
    8829:	48 8b 4d e8          	mov    -0x18(%rbp),%rcx
    882d:	64 48 33 0c 25 28 00 	xor    %fs:0x28,%rcx
    8834:	00 00 
    8836:	74 05                	je     883d <func_1+0x88>
    8838:	e8 33 e8 ff ff       	callq  7070 <__stack_chk_fail@plt>
    883d:	48 83 c4 28          	add    $0x28,%rsp
    8841:	5b                   	pop    %rbx
    8842:	5d                   	pop    %rbp
    8843:	c3                   	retq   

0000000000008844 <func_2>:
    8844:	f3 0f 1e fa          	endbr64 
    8848:	55                   	push   %rbp
    8849:	48 89 e5             	mov    %rsp,%rbp
    884c:	53                   	push   %rbx
    884d:	48 81 ec d8 01 00 00 	sub    $0x1d8,%rsp
    8854:	89 f8                	mov    %edi,%eax
    8856:	89 b5 28 fe ff ff    	mov    %esi,-0x1d8(%rbp)
    885c:	89 95 24 fe ff ff    	mov    %edx,-0x1dc(%rbp)
    8862:	89 ca                	mov    %ecx,%edx
    8864:	66 89 85 2c fe ff ff 	mov    %ax,-0x1d4(%rbp)
    886b:	89 d0                	mov    %edx,%eax
    886d:	88 85 20 fe ff ff    	mov    %al,-0x1e0(%rbp)
    8873:	64 48 8b 04 25 28 00 	mov    %fs:0x28,%rax
    887a:	00 00 
    887c:	48 89 45 e8          	mov    %rax,-0x18(%rbp)
    8880:	31 c0                	xor    %eax,%eax
    8882:	48 8d 05 c7 c7 00 00 	lea    0xc7c7(%rip),%rax        # 15050 <g_10+0x10>
    8889:	48 89 85 48 fe ff ff 	mov    %rax,-0x1b8(%rbp)
    8890:	48 8d 05 b9 c7 00 00 	lea    0xc7b9(%rip),%rax        # 15050 <g_10+0x10>
    8897:	48 89 85 50 fe ff ff 	mov    %rax,-0x1b0(%rbp)
    889e:	48 8d 05 ab c7 00 00 	lea    0xc7ab(%rip),%rax        # 15050 <g_10+0x10>
    88a5:	48 89 85 58 fe ff ff 	mov    %rax,-0x1a8(%rbp)
    88ac:	48 8d 85 a0 fe ff ff 	lea    -0x160(%rbp),%rax
    88b3:	48 8d 15 86 df 00 00 	lea    0xdf86(%rip),%rdx        # 16840 <g_2787+0x30>
    88ba:	b9 28 00 00 00       	mov    $0x28,%ecx
    88bf:	48 89 c7             	mov    %rax,%rdi
    88c2:	48 89 d6             	mov    %rdx,%rsi
    88c5:	f3 48 a5             	rep movsq %ds:(%rsi),%es:(%rdi)
    88c8:	48 b8 fc d4 43 00 4d 	movabs $0x79191d4d0043d4fc,%rax
    88cf:	1d 19 79 
    88d2:	48 89 85 60 fe ff ff 	mov    %rax,-0x1a0(%rbp)
    88d9:	c7 85 3c fe ff ff ed 	movl   $0x3e97a0ed,-0x1c4(%rbp)
    88e0:	a0 97 3e 
    88e3:	c6 85 31 fe ff ff 82 	movb   $0x82,-0x1cf(%rbp)
    88ea:	c6 85 32 fe ff ff 96 	movb   $0x96,-0x1ce(%rbp)
    88f1:	c7 85 34 fe ff ff 00 	movl   $0x0,-0x1cc(%rbp)
    88f8:	00 00 00 
    88fb:	eb 21                	jmp    891e <func_2+0xda>
    88fd:	8b 85 34 fe ff ff    	mov    -0x1cc(%rbp),%eax
    8903:	48 98                	cltq   
    8905:	48 bb d5 6c 44 ff 59 	movabs $0x59ea4d59ff446cd5,%rbx
    890c:	4d ea 59 
    890f:	48 89 9c c5 70 fe ff 	mov    %rbx,-0x190(%rbp,%rax,8)
    8916:	ff 
    8917:	83 85 34 fe ff ff 01 	addl   $0x1,-0x1cc(%rbp)
    891e:	83 bd 34 fe ff ff 00 	cmpl   $0x0,-0x1cc(%rbp)
    8925:	7e d6                	jle    88fd <func_2+0xb9>
    8927:	c7 85 34 fe ff ff 00 	movl   $0x0,-0x1cc(%rbp)
    892e:	00 00 00 
    8931:	eb 19                	jmp    894c <func_2+0x108>
    8933:	8b 85 34 fe ff ff    	mov    -0x1cc(%rbp),%eax
    8939:	48 98                	cltq   
    893b:	66 c7 84 45 92 fe ff 	movw   $0xbacb,-0x16e(%rbp,%rax,2)
    8942:	ff cb ba 
    8945:	83 85 34 fe ff ff 01 	addl   $0x1,-0x1cc(%rbp)
    894c:	83 bd 34 fe ff ff 06 	cmpl   $0x6,-0x1cc(%rbp)
    8953:	7e de                	jle    8933 <func_2+0xef>
    8955:	c7 85 34 fe ff ff 00 	movl   $0x0,-0x1cc(%rbp)
    895c:	00 00 00 
    895f:	eb 1e                	jmp    897f <func_2+0x13b>
    8961:	8b 85 34 fe ff ff    	mov    -0x1cc(%rbp),%eax
    8967:	48 98                	cltq   
    8969:	48 8d 15 b9 ca 00 00 	lea    0xcab9(%rip),%rdx        # 15429 <g_29+0x69>
    8970:	48 89 94 c5 78 fe ff 	mov    %rdx,-0x188(%rbp,%rax,8)
    8977:	ff 
    8978:	83 85 34 fe ff ff 01 	addl   $0x1,-0x1cc(%rbp)
    897f:	83 bd 34 fe ff ff 00 	cmpl   $0x0,-0x1cc(%rbp)
    8986:	7e d9                	jle    8961 <func_2+0x11d>
    8988:	0f b7 85 94 fe ff ff 	movzwl -0x16c(%rbp),%eax
    898f:	83 c0 01             	add    $0x1,%eax
    8992:	66 89 85 94 fe ff ff 	mov    %ax,-0x16c(%rbp)
    8999:	48 8b 85 58 fe ff ff 	mov    -0x1a8(%rbp),%rax
    89a0:	8b 10                	mov    (%rax),%edx
    89a2:	0f b7 85 2c fe ff ff 	movzwl -0x1d4(%rbp),%eax
    89a9:	98                   	cwtl   
    89aa:	39 c2                	cmp    %eax,%edx
    89ac:	0f 94 c0             	sete   %al
    89af:	0f b6 d0             	movzbl %al,%edx
    89b2:	8b 05 e8 c9 00 00    	mov    0xc9e8(%rip),%eax        # 153a0 <g_21>
    89b8:	21 d0                	and    %edx,%eax
    89ba:	89 05 e0 c9 00 00    	mov    %eax,0xc9e0(%rip)        # 153a0 <g_21>
    89c0:	48 c7 05 5d c6 00 00 	movq   $0x0,0xc65d(%rip)        # 15028 <g_8>
    89c7:	00 00 00 00 
    89cb:	90                   	nop
    89cc:	48 8b 05 55 c6 00 00 	mov    0xc655(%rip),%rax        # 15028 <g_8>
    89d3:	48 83 f8 e4          	cmp    $0xffffffffffffffe4,%rax
    89d7:	7d 0c                	jge    89e5 <func_2+0x1a1>
    89d9:	48 8d 05 70 c6 00 00 	lea    0xc670(%rip),%rax        # 15050 <g_10+0x10>
    89e0:	e9 1e 01 00 00       	jmpq   8b03 <func_2+0x2bf>
    89e5:	0f b6 95 20 fe ff ff 	movzbl -0x1e0(%rbp),%edx
    89ec:	c7 85 24 fe ff ff 00 	movl   $0x0,-0x1dc(%rbp)
    89f3:	00 00 00 
    89f6:	83 bd 28 fe ff ff 00 	cmpl   $0x0,-0x1d8(%rbp)
    89fd:	0f 95 c0             	setne  %al
    8a00:	0f b6 f0             	movzbl %al,%esi
    8a03:	48 8b 85 48 fe ff ff 	mov    -0x1b8(%rbp),%rax
    8a0a:	8b 38                	mov    (%rax),%edi
    8a0c:	48 83 ec 08          	sub    $0x8,%rsp
    8a10:	48 83 ec 18          	sub    $0x18,%rsp
    8a14:	48 89 e0             	mov    %rsp,%rax
    8a17:	48 8b 0d 0b ca 00 00 	mov    0xca0b(%rip),%rcx        # 15429 <g_29+0x69>
    8a1e:	48 8b 1d 0c ca 00 00 	mov    0xca0c(%rip),%rbx        # 15431 <g_29+0x71>
    8a25:	48 89 08             	mov    %rcx,(%rax)
    8a28:	48 89 58 08          	mov    %rbx,0x8(%rax)
    8a2c:	8b 0d 07 ca 00 00    	mov    0xca07(%rip),%ecx        # 15439 <g_29+0x79>
    8a32:	89 48 10             	mov    %ecx,0x10(%rax)
    8a35:	0f b6 0d 01 ca 00 00 	movzbl 0xca01(%rip),%ecx        # 1543d <g_29+0x7d>
    8a3c:	88 48 14             	mov    %cl,0x14(%rax)
    8a3f:	e8 d9 00 00 00       	callq  8b1d <func_24>
    8a44:	48 83 c4 20          	add    $0x20,%rsp
    8a48:	85 c0                	test   %eax,%eax
    8a4a:	74 48                	je     8a94 <func_2+0x250>
    8a4c:	c6 85 33 fe ff ff e4 	movb   $0xe4,-0x1cd(%rbp)
    8a53:	c7 85 40 fe ff ff f8 	movl   $0xfffffff8,-0x1c0(%rbp)
    8a5a:	ff ff ff 
    8a5d:	c7 85 44 fe ff ff 63 	movl   $0xf7e7fd63,-0x1bc(%rbp)
    8a64:	fd e7 f7 
    8a67:	48 8b 05 02 f7 00 00 	mov    0xf702(%rip),%rax        # 18170 <g_1014>
    8a6e:	8b 08                	mov    (%rax),%ecx
    8a70:	0f be 95 33 fe ff ff 	movsbl -0x1cd(%rbp),%edx
    8a77:	48 8b 05 f2 f6 00 00 	mov    0xf6f2(%rip),%rax        # 18170 <g_1014>
    8a7e:	21 ca                	and    %ecx,%edx
    8a80:	89 10                	mov    %edx,(%rax)
    8a82:	0f b6 85 32 fe ff ff 	movzbl -0x1ce(%rbp),%eax
    8a89:	83 c0 01             	add    $0x1,%eax
    8a8c:	88 85 32 fe ff ff    	mov    %al,-0x1ce(%rbp)
    8a92:	eb 65                	jmp    8af9 <func_2+0x2b5>
    8a94:	48 8d 05 4d dd 00 00 	lea    0xdd4d(%rip),%rax        # 167e8 <g_2749+0x8>
    8a9b:	48 89 85 68 fe ff ff 	mov    %rax,-0x198(%rbp)
    8aa2:	c7 85 38 fe ff ff 00 	movl   $0x0,-0x1c8(%rbp)
    8aa9:	00 00 00 
    8aac:	eb 1a                	jmp    8ac8 <func_2+0x284>
    8aae:	8b 85 38 fe ff ff    	mov    -0x1c8(%rbp),%eax
    8ab4:	48 98                	cltq   
    8ab6:	c7 84 85 84 fe ff ff 	movl   $0x0,-0x17c(%rbp,%rax,4)
    8abd:	00 00 00 00 
    8ac1:	83 85 38 fe ff ff 01 	addl   $0x1,-0x1c8(%rbp)
    8ac8:	83 bd 38 fe ff ff 02 	cmpl   $0x2,-0x1c8(%rbp)
    8acf:	7e dd                	jle    8aae <func_2+0x26a>
    8ad1:	8b 85 84 fe ff ff    	mov    -0x17c(%rbp),%eax
    8ad7:	89 85 84 fe ff ff    	mov    %eax,-0x17c(%rbp)
    8add:	48 8b 05 ac f6 00 00 	mov    0xf6ac(%rip),%rax        # 18190 <g_1129>
    8ae4:	48 8b 95 78 fe ff ff 	mov    -0x188(%rbp),%rdx
    8aeb:	48 89 10             	mov    %rdx,(%rax)
    8aee:	48 c7 85 68 fe ff ff 	movq   $0x0,-0x198(%rbp)
    8af5:	00 00 00 00 
    8af9:	48 8b 05 00 09 01 00 	mov    0x10900(%rip),%rax        # 19400 <g_2758>
    8b00:	48 8b 00             	mov    (%rax),%rax
    8b03:	48 8b 5d e8          	mov    -0x18(%rbp),%rbx
    8b07:	64 48 33 1c 25 28 00 	xor    %fs:0x28,%rbx
    8b0e:	00 00 
    8b10:	74 05                	je     8b17 <func_2+0x2d3>
    8b12:	e8 59 e5 ff ff       	callq  7070 <__stack_chk_fail@plt>
    8b17:	48 8b 5d f8          	mov    -0x8(%rbp),%rbx
    8b1b:	c9                   	leaveq 
    8b1c:	c3                   	retq   

0000000000008b1d <func_24>:
    8b1d:	f3 0f 1e fa          	endbr64 
    8b21:	55                   	push   %rbp
    8b22:	48 89 e5             	mov    %rsp,%rbp
    8b25:	48 83 ec 70          	sub    $0x70,%rsp
    8b29:	89 7d 9c             	mov    %edi,-0x64(%rbp)
    8b2c:	48 89 75 90          	mov    %rsi,-0x70(%rbp)
    8b30:	89 d0                	mov    %edx,%eax
    8b32:	88 45 98             	mov    %al,-0x68(%rbp)
    8b35:	64 48 8b 04 25 28 00 	mov    %fs:0x28,%rax
    8b3c:	00 00 
    8b3e:	48 89 45 f8          	mov    %rax,-0x8(%rbp)
    8b42:	31 c0                	xor    %eax,%eax
    8b44:	48 8d 45 d0          	lea    -0x30(%rbp),%rax
    8b48:	48 83 c0 18          	add    $0x18,%rax
    8b4c:	48 89 45 a8          	mov    %rax,-0x58(%rbp)
    8b50:	c7 45 a4 00 00 00 00 	movl   $0x0,-0x5c(%rbp)
    8b57:	eb 11                	jmp    8b6a <func_24+0x4d>
    8b59:	8b 45 a4             	mov    -0x5c(%rbp),%eax
    8b5c:	48 98                	cltq   
    8b5e:	c7 44 85 b0 fb ff ff 	movl   $0xfffffffb,-0x50(%rbp,%rax,4)
    8b65:	ff 
    8b66:	83 45 a4 01          	addl   $0x1,-0x5c(%rbp)
    8b6a:	83 7d a4 07          	cmpl   $0x7,-0x5c(%rbp)
    8b6e:	7e e9                	jle    8b59 <func_24+0x3c>
    8b70:	c7 45 a4 00 00 00 00 	movl   $0x0,-0x5c(%rbp)
    8b77:	eb 15                	jmp    8b8e <func_24+0x71>
    8b79:	8b 45 a4             	mov    -0x5c(%rbp),%eax
    8b7c:	48 98                	cltq   
    8b7e:	48 8d 15 1b 85 00 00 	lea    0x851b(%rip),%rdx        # 110a0 <g_2793>
    8b85:	48 89 54 c5 d0       	mov    %rdx,-0x30(%rbp,%rax,8)
    8b8a:	83 45 a4 01          	addl   $0x1,-0x5c(%rbp)
    8b8e:	83 7d a4 03          	cmpl   $0x3,-0x5c(%rbp)
    8b92:	7e e5                	jle    8b79 <func_24+0x5c>
    8b94:	48 c7 05 89 c4 00 00 	movq   $0x0,0xc489(%rip)        # 15028 <g_8>
    8b9b:	00 00 00 00 
    8b9f:	eb 1c                	jmp    8bbd <func_24+0xa0>
    8ba1:	48 8b 05 80 c4 00 00 	mov    0xc480(%rip),%rax        # 15028 <g_8>
    8ba8:	be 09 00 00 00       	mov    $0x9,%esi
    8bad:	89 c7                	mov    %eax,%edi
    8baf:	e8 04 f3 ff ff       	callq  7eb8 <safe_add_func_uint32_t_u_u>
    8bb4:	89 c0                	mov    %eax,%eax
    8bb6:	48 89 05 6b c4 00 00 	mov    %rax,0xc46b(%rip)        # 15028 <g_8>
    8bbd:	48 8b 05 64 c4 00 00 	mov    0xc464(%rip),%rax        # 15028 <g_8>
    8bc4:	48 85 c0             	test   %rax,%rax
    8bc7:	75 d8                	jne    8ba1 <func_24+0x84>
    8bc9:	48 83 7d a8 00       	cmpq   $0x0,-0x58(%rbp)
    8bce:	0f 94 c0             	sete   %al
    8bd1:	0f b6 d0             	movzbl %al,%edx
    8bd4:	48 8b 05 4d ef 00 00 	mov    0xef4d(%rip),%rax        # 17b28 <g_229>
    8bdb:	48 8b 00             	mov    (%rax),%rax
    8bde:	48 8b 00             	mov    (%rax),%rax
    8be1:	89 c1                	mov    %eax,%ecx
    8be3:	8b 05 7f cf 00 00    	mov    0xcf7f(%rip),%eax        # 15b68 <g_972>
    8be9:	21 c8                	and    %ecx,%eax
    8beb:	0f b6 c0             	movzbl %al,%eax
    8bee:	89 d6                	mov    %edx,%esi
    8bf0:	89 c7                	mov    %eax,%edi
    8bf2:	e8 9c ef ff ff       	callq  7b93 <safe_mul_func_uint8_t_u_u>
    8bf7:	89 c2                	mov    %eax,%edx
    8bf9:	48 8b 05 a0 ed 00 00 	mov    0xeda0(%rip),%rax        # 179a0 <g_152>
    8c00:	48 8b 00             	mov    (%rax),%rax
    8c03:	48 8b 00             	mov    (%rax),%rax
    8c06:	0f b6 d2             	movzbl %dl,%edx
    8c09:	89 10                	mov    %edx,(%rax)
    8c0b:	48 8b 45 90          	mov    -0x70(%rbp),%rax
    8c0f:	48 8b 4d f8          	mov    -0x8(%rbp),%rcx
    8c13:	64 48 33 0c 25 28 00 	xor    %fs:0x28,%rcx
    8c1a:	00 00 
    8c1c:	74 05                	je     8c23 <func_24+0x106>
    8c1e:	e8 4d e4 ff ff       	callq  7070 <__stack_chk_fail@plt>
    8c23:	c9                   	leaveq 
    8c24:	c3                   	retq   

0000000000008c25 <func_32>:
    8c25:	f3 0f 1e fa          	endbr64 
    8c29:	55                   	push   %rbp
    8c2a:	48 89 e5             	mov    %rsp,%rbp
    8c2d:	48 81 ec 90 08 00 00 	sub    $0x890,%rsp
    8c34:	48 89 bd 78 f7 ff ff 	mov    %rdi,-0x888(%rbp)
    8c3b:	89 b5 74 f7 ff ff    	mov    %esi,-0x88c(%rbp)
    8c41:	64 48 8b 04 25 28 00 	mov    %fs:0x28,%rax
    8c48:	00 00 
    8c4a:	48 89 45 f8          	mov    %rax,-0x8(%rbp)
    8c4e:	31 c0                	xor    %eax,%eax
    8c50:	c7 85 94 f7 ff ff 05 	movl   $0x7283bd05,-0x86c(%rbp)
    8c57:	bd 83 72 
    8c5a:	48 8d 05 33 ce 00 00 	lea    0xce33(%rip),%rax        # 15a94 <g_424+0x4>
    8c61:	48 89 85 b8 f7 ff ff 	mov    %rax,-0x848(%rbp)
    8c68:	c6 85 82 f7 ff ff 00 	movb   $0x0,-0x87e(%rbp)
    8c6f:	48 8d 05 2e c8 00 00 	lea    0xc82e(%rip),%rax        # 154a4 <g_165>
    8c76:	48 89 85 c0 f7 ff ff 	mov    %rax,-0x840(%rbp)
    8c7d:	48 8d 05 14 c8 00 00 	lea    0xc814(%rip),%rax        # 15498 <g_132>
    8c84:	48 89 85 c8 f7 ff ff 	mov    %rax,-0x838(%rbp)
    8c8b:	c7 85 98 f7 ff ff 03 	movl   $0x7bf50803,-0x868(%rbp)
    8c92:	08 f5 7b 
    8c95:	c6 85 83 f7 ff ff a4 	movb   $0xa4,-0x87d(%rbp)
    8c9c:	c7 85 9c f7 ff ff c1 	movl   $0xf05ff3c1,-0x864(%rbp)
    8ca3:	f3 5f f0 
    8ca6:	c7 85 a0 f7 ff ff 70 	movl   $0x7879b070,-0x860(%rbp)
    8cad:	b0 79 78 
    8cb0:	c7 85 a4 f7 ff ff 05 	movl   $0x5,-0x85c(%rbp)
    8cb7:	00 00 00 
    8cba:	c6 85 84 f7 ff ff 57 	movb   $0x57,-0x87c(%rbp)
    8cc1:	48 c7 85 d0 f7 ff ff 	movq   $0x0,-0x830(%rbp)
    8cc8:	00 00 00 00 
    8ccc:	c7 85 00 f8 ff ff 03 	movl   $0x3,-0x800(%rbp)
    8cd3:	00 00 00 
    8cd6:	c7 85 04 f8 ff ff 06 	movl   $0x6,-0x7fc(%rbp)
    8cdd:	00 00 00 
    8ce0:	c6 85 08 f8 ff ff 01 	movb   $0x1,-0x7f8(%rbp)
    8ce7:	66 c7 85 09 f8 ff ff 	movw   $0x150,-0x7f7(%rbp)
    8cee:	50 01 
    8cf0:	66 c7 85 0b f8 ff ff 	movw   $0xffff,-0x7f5(%rbp)
    8cf7:	ff ff 
    8cf9:	48 c7 85 0d f8 ff ff 	movq   $0xffffffffffffffff,-0x7f3(%rbp)
    8d00:	ff ff ff ff 
    8d04:	c6 85 85 f7 ff ff fb 	movb   $0xfb,-0x87b(%rbp)
    8d0b:	48 c7 85 d8 f7 ff ff 	movq   $0x0,-0x828(%rbp)
    8d12:	00 00 00 00 
    8d16:	c7 85 a8 f7 ff ff 00 	movl   $0x0,-0x858(%rbp)
    8d1d:	00 00 00 
    8d20:	66 c7 85 86 f7 ff ff 	movw   $0x4c1f,-0x87a(%rbp)
    8d27:	1f 4c 
    8d29:	48 c7 85 e0 f7 ff ff 	movq   $0x8,-0x820(%rbp)
    8d30:	08 00 00 00 
    8d34:	66 c7 85 88 f7 ff ff 	movw   $0xfff8,-0x878(%rbp)
    8d3b:	f8 ff 
    8d3d:	c7 85 ac f7 ff ff ff 	movl   $0xffffffff,-0x854(%rbp)
    8d44:	ff ff ff 
    8d47:	48 8d 05 da c7 00 00 	lea    0xc7da(%rip),%rax        # 15528 <g_204>
    8d4e:	48 89 85 e8 f7 ff ff 	mov    %rax,-0x818(%rbp)
    8d55:	66 c7 85 8a f7 ff ff 	movw   $0x1,-0x876(%rbp)
    8d5c:	01 00 
    8d5e:	48 8d 05 9b 00 01 00 	lea    0x1009b(%rip),%rax        # 18e00 <g_2149>
    8d65:	48 89 85 f0 f7 ff ff 	mov    %rax,-0x810(%rbp)
    8d6c:	48 8d 85 40 f8 ff ff 	lea    -0x7c0(%rbp),%rax
    8d73:	48 83 c0 08          	add    $0x8,%rax
    8d77:	48 89 85 f8 f7 ff ff 	mov    %rax,-0x808(%rbp)
    8d7e:	c7 85 b0 f7 ff ff 0e 	movl   $0xc6ae3a0e,-0x850(%rbp)
    8d85:	3a ae c6 
    8d88:	48 8d 85 70 f8 ff ff 	lea    -0x790(%rbp),%rax
    8d8f:	48 8d 15 2a 83 00 00 	lea    0x832a(%rip),%rdx        # 110c0 <g_2793+0x20>
    8d96:	b9 f0 00 00 00       	mov    $0xf0,%ecx
    8d9b:	48 89 c7             	mov    %rax,%rdi
    8d9e:	48 89 d6             	mov    %rdx,%rsi
    8da1:	f3 48 a5             	rep movsq %ds:(%rsi),%es:(%rdi)
    8da4:	66 c7 85 24 f8 ff ff 	movw   $0xfff9,-0x7dc(%rbp)
    8dab:	f9 ff 
    8dad:	66 c7 85 26 f8 ff ff 	movw   $0xffff,-0x7da(%rbp)
    8db4:	ff ff 
    8db6:	66 c7 85 28 f8 ff ff 	movw   $0xfff9,-0x7d8(%rbp)
    8dbd:	f9 ff 
    8dbf:	66 c7 85 2a f8 ff ff 	movw   $0xfff9,-0x7d6(%rbp)
    8dc6:	f9 ff 
    8dc8:	66 c7 85 2c f8 ff ff 	movw   $0xffff,-0x7d4(%rbp)
    8dcf:	ff ff 
    8dd1:	66 c7 85 2e f8 ff ff 	movw   $0xfff9,-0x7d2(%rbp)
    8dd8:	f9 ff 
    8dda:	c7 85 b4 f7 ff ff ff 	movl   $0xffffffff,-0x84c(%rbp)
    8de1:	ff ff ff 
    8de4:	c7 85 8c f7 ff ff 00 	movl   $0x0,-0x874(%rbp)
    8deb:	00 00 00 
    8dee:	eb 1e                	jmp    8e0e <func_32+0x1e9>
    8df0:	8b 85 8c f7 ff ff    	mov    -0x874(%rbp),%eax
    8df6:	48 98                	cltq   
    8df8:	48 8d 15 3a cb 00 00 	lea    0xcb3a(%rip),%rdx        # 15939 <g_237+0x3f9>
    8dff:	48 89 94 c5 30 f8 ff 	mov    %rdx,-0x7d0(%rbp,%rax,8)
    8e06:	ff 
    8e07:	83 85 8c f7 ff ff 01 	addl   $0x1,-0x874(%rbp)
    8e0e:	83 bd 8c f7 ff ff 01 	cmpl   $0x1,-0x874(%rbp)
    8e15:	7e d9                	jle    8df0 <func_32+0x1cb>
    8e17:	c7 85 8c f7 ff ff 00 	movl   $0x0,-0x874(%rbp)
    8e1e:	00 00 00 
    8e21:	eb 4c                	jmp    8e6f <func_32+0x24a>
    8e23:	c7 85 90 f7 ff ff 00 	movl   $0x0,-0x870(%rbp)
    8e2a:	00 00 00 
    8e2d:	eb 30                	jmp    8e5f <func_32+0x23a>
    8e2f:	8b 85 90 f7 ff ff    	mov    -0x870(%rbp),%eax
    8e35:	48 63 c8             	movslq %eax,%rcx
    8e38:	8b 85 8c f7 ff ff    	mov    -0x874(%rbp),%eax
    8e3e:	48 63 d0             	movslq %eax,%rdx
    8e41:	48 89 d0             	mov    %rdx,%rax
    8e44:	48 01 c0             	add    %rax,%rax
    8e47:	48 01 d0             	add    %rdx,%rax
    8e4a:	48 01 c8             	add    %rcx,%rax
    8e4d:	c7 84 85 50 f8 ff ff 	movl   $0xffffffff,-0x7b0(%rbp,%rax,4)
    8e54:	ff ff ff ff 
    8e58:	83 85 90 f7 ff ff 01 	addl   $0x1,-0x870(%rbp)
    8e5f:	83 bd 90 f7 ff ff 02 	cmpl   $0x2,-0x870(%rbp)
    8e66:	7e c7                	jle    8e2f <func_32+0x20a>
    8e68:	83 85 8c f7 ff ff 01 	addl   $0x1,-0x874(%rbp)
    8e6f:	83 bd 8c f7 ff ff 01 	cmpl   $0x1,-0x874(%rbp)
    8e76:	7e ab                	jle    8e23 <func_32+0x1fe>
    8e78:	c7 85 8c f7 ff ff 00 	movl   $0x0,-0x874(%rbp)
    8e7f:	00 00 00 
    8e82:	eb 1b                	jmp    8e9f <func_32+0x27a>
    8e84:	8b 85 8c f7 ff ff    	mov    -0x874(%rbp),%eax
    8e8a:	48 98                	cltq   
    8e8c:	48 c7 84 c5 40 f8 ff 	movq   $0x0,-0x7c0(%rbp,%rax,8)
    8e93:	ff 00 00 00 00 
    8e98:	83 85 8c f7 ff ff 01 	addl   $0x1,-0x874(%rbp)
    8e9f:	83 bd 8c f7 ff ff 01 	cmpl   $0x1,-0x874(%rbp)
    8ea6:	7e dc                	jle    8e84 <func_32+0x25f>
    8ea8:	48 8b 05 d9 f2 00 00 	mov    0xf2d9(%rip),%rax        # 18188 <g_1086>
    8eaf:	0f b7 00             	movzwl (%rax),%eax
    8eb2:	48 8b 75 f8          	mov    -0x8(%rbp),%rsi
    8eb6:	64 48 33 34 25 28 00 	xor    %fs:0x28,%rsi
    8ebd:	00 00 
    8ebf:	74 05                	je     8ec6 <func_32+0x2a1>
    8ec1:	e8 aa e1 ff ff       	callq  7070 <__stack_chk_fail@plt>
    8ec6:	c9                   	leaveq 
    8ec7:	c3                   	retq   

0000000000008ec8 <func_35>:
    8ec8:	f3 0f 1e fa          	endbr64 
    8ecc:	55                   	push   %rbp
    8ecd:	48 89 e5             	mov    %rsp,%rbp
    8ed0:	48 81 ec 60 0b 00 00 	sub    $0xb60,%rsp
    8ed7:	48 89 bd a8 f4 ff ff 	mov    %rdi,-0xb58(%rbp)
    8ede:	64 48 8b 04 25 28 00 	mov    %fs:0x28,%rax
    8ee5:	00 00 
    8ee7:	48 89 45 f8          	mov    %rax,-0x8(%rbp)
    8eeb:	31 c0                	xor    %eax,%eax
    8eed:	c7 85 c8 f4 ff ff ee 	movl   $0x813302ee,-0xb38(%rbp)
    8ef4:	02 33 81 
    8ef7:	c7 85 90 f6 ff ff 8c 	movl   $0xe26d368c,-0x970(%rbp)
    8efe:	36 6d e2 
    8f01:	c7 85 94 f6 ff ff c5 	movl   $0x4799e0c5,-0x96c(%rbp)
    8f08:	e0 99 47 
    8f0b:	c7 85 98 f6 ff ff 8c 	movl   $0xe26d368c,-0x968(%rbp)
    8f12:	36 6d e2 
    8f15:	c7 85 9c f6 ff ff c5 	movl   $0x4799e0c5,-0x964(%rbp)
    8f1c:	e0 99 47 
    8f1f:	c7 85 a0 f6 ff ff 8c 	movl   $0xe26d368c,-0x960(%rbp)
    8f26:	36 6d e2 
    8f29:	c7 85 a4 f6 ff ff b1 	movl   $0x6adedb1,-0x95c(%rbp)
    8f30:	ed ad 06 
    8f33:	c7 85 a8 f6 ff ff b1 	movl   $0x6adedb1,-0x958(%rbp)
    8f3a:	ed ad 06 
    8f3d:	c7 85 ac f6 ff ff 99 	movl   $0x1d8d1599,-0x954(%rbp)
    8f44:	15 8d 1d 
    8f47:	c7 85 b0 f6 ff ff 99 	movl   $0x1d8d1599,-0x950(%rbp)
    8f4e:	15 8d 1d 
    8f51:	c7 85 b4 f6 ff ff b1 	movl   $0x6adedb1,-0x94c(%rbp)
    8f58:	ed ad 06 
    8f5b:	c7 85 b8 f6 ff ff 00 	movl   $0x0,-0x948(%rbp)
    8f62:	00 00 00 
    8f65:	c7 85 bc f6 ff ff c5 	movl   $0x4799e0c5,-0x944(%rbp)
    8f6c:	e0 99 47 
    8f6f:	c7 85 c0 f6 ff ff 00 	movl   $0x0,-0x940(%rbp)
    8f76:	00 00 00 
    8f79:	c7 85 c4 f6 ff ff c5 	movl   $0x4799e0c5,-0x93c(%rbp)
    8f80:	e0 99 47 
    8f83:	c7 85 c8 f6 ff ff 00 	movl   $0x0,-0x938(%rbp)
    8f8a:	00 00 00 
    8f8d:	c7 85 cc f6 ff ff b1 	movl   $0x6adedb1,-0x934(%rbp)
    8f94:	ed ad 06 
    8f97:	c7 85 d0 f6 ff ff 99 	movl   $0x1d8d1599,-0x930(%rbp)
    8f9e:	15 8d 1d 
    8fa1:	c7 85 d4 f6 ff ff 99 	movl   $0x1d8d1599,-0x92c(%rbp)
    8fa8:	15 8d 1d 
    8fab:	c7 85 d8 f6 ff ff b1 	movl   $0x6adedb1,-0x928(%rbp)
    8fb2:	ed ad 06 
    8fb5:	c7 85 dc f6 ff ff b1 	movl   $0x6adedb1,-0x924(%rbp)
    8fbc:	ed ad 06 
    8fbf:	c7 85 e0 f6 ff ff 8c 	movl   $0xe26d368c,-0x920(%rbp)
    8fc6:	36 6d e2 
    8fc9:	c7 85 e4 f6 ff ff c5 	movl   $0x4799e0c5,-0x91c(%rbp)
    8fd0:	e0 99 47 
    8fd3:	c7 85 e8 f6 ff ff 8c 	movl   $0xe26d368c,-0x918(%rbp)
    8fda:	36 6d e2 
    8fdd:	c7 85 ec f6 ff ff c5 	movl   $0x4799e0c5,-0x914(%rbp)
    8fe4:	e0 99 47 
    8fe7:	c7 85 f0 f6 ff ff 8c 	movl   $0xe26d368c,-0x910(%rbp)
    8fee:	36 6d e2 
    8ff1:	c7 85 cc f4 ff ff 60 	movl   $0x16a59260,-0xb34(%rbp)
    8ff8:	92 a5 16 
    8ffb:	48 8d 85 60 f9 ff ff 	lea    -0x6a0(%rbp),%rax
    9002:	48 8d 15 37 88 00 00 	lea    0x8837(%rip),%rdx        # 11840 <g_2793+0x7a0>
    9009:	b9 32 00 00 00       	mov    $0x32,%ecx
    900e:	48 89 c7             	mov    %rax,%rdi
    9011:	48 89 d6             	mov    %rdx,%rsi
    9014:	f3 48 a5             	rep movsq %ds:(%rsi),%es:(%rdi)
    9017:	48 b8 62 63 51 4c 80 	movabs $0x7c97a804c516362,%rax
    901e:	7a c9 07 
    9021:	48 89 85 28 f5 ff ff 	mov    %rax,-0xad8(%rbp)
    9028:	c7 85 d0 f4 ff ff 17 	movl   $0xc2516217,-0xb30(%rbp)
    902f:	62 51 c2 
    9032:	c7 85 d4 f4 ff ff f6 	movl   $0xfffffff6,-0xb2c(%rbp)
    9039:	ff ff ff 
    903c:	c6 85 b0 f4 ff ff ff 	movb   $0xff,-0xb50(%rbp)
    9043:	c6 85 b1 f4 ff ff 92 	movb   $0x92,-0xb4f(%rbp)
    904a:	48 c7 85 30 f5 ff ff 	movq   $0x0,-0xad0(%rbp)
    9051:	00 00 00 00 
    9055:	48 8d 05 cc c4 00 00 	lea    0xc4cc(%rip),%rax        # 15528 <g_204>
    905c:	48 89 85 38 f5 ff ff 	mov    %rax,-0xac8(%rbp)
    9063:	c7 85 d8 f4 ff ff f2 	movl   $0x8d6e87f2,-0xb28(%rbp)
    906a:	87 6e 8d 
    906d:	c6 85 b2 f4 ff ff f6 	movb   $0xf6,-0xb4e(%rbp)
    9074:	c7 85 bc f4 ff ff ff 	movl   $0xffffffff,-0xb44(%rbp)
    907b:	ff ff ff 
    907e:	48 8d 05 e7 d0 00 00 	lea    0xd0e7(%rip),%rax        # 1616c <g_1308+0x4ec>
    9085:	48 89 85 40 f5 ff ff 	mov    %rax,-0xac0(%rbp)
    908c:	48 8d 85 d0 f5 ff ff 	lea    -0xa30(%rbp),%rax
    9093:	48 83 c0 10          	add    $0x10,%rax
    9097:	48 89 85 f0 f4 ff ff 	mov    %rax,-0xb10(%rbp)
    909e:	48 8d 85 f0 f4 ff ff 	lea    -0xb10(%rbp),%rax
    90a5:	48 89 85 f8 f4 ff ff 	mov    %rax,-0xb08(%rbp)
    90ac:	c7 85 dc f4 ff ff 4e 	movl   $0x8d9dcf4e,-0xb24(%rbp)
    90b3:	cf 9d 8d 
    90b6:	48 c7 85 48 f5 ff ff 	movq   $0xfffffffffffffff6,-0xab8(%rbp)
    90bd:	f6 ff ff ff 
    90c1:	48 8d 05 20 c4 00 00 	lea    0xc420(%rip),%rax        # 154e8 <g_190+0x28>
    90c8:	48 89 85 50 f5 ff ff 	mov    %rax,-0xab0(%rbp)
    90cf:	48 8d 05 ec c3 00 00 	lea    0xc3ec(%rip),%rax        # 154c2 <g_190+0x2>
    90d6:	48 89 85 58 f5 ff ff 	mov    %rax,-0xaa8(%rbp)
    90dd:	48 b8 6f b4 90 51 3f 	movabs $0x6550463f5190b46f,%rax
    90e4:	46 50 65 
    90e7:	48 89 85 60 f5 ff ff 	mov    %rax,-0xaa0(%rbp)
    90ee:	c7 85 e0 f4 ff ff 29 	movl   $0x6f37cc29,-0xb20(%rbp)
    90f5:	cc 37 6f 
    90f8:	c7 85 c0 f4 ff ff 01 	movl   $0x1,-0xb40(%rbp)
    90ff:	00 00 00 
    9102:	c6 85 b3 f4 ff ff fd 	movb   $0xfd,-0xb4d(%rbp)
    9109:	66 c7 85 b8 f4 ff ff 	movw   $0x1,-0xb48(%rbp)
    9110:	01 00 
    9112:	48 8d 05 2f f0 00 00 	lea    0xf02f(%rip),%rax        # 18148 <g_856>
    9119:	48 89 85 68 f5 ff ff 	mov    %rax,-0xa98(%rbp)
    9120:	48 8d 05 15 ca 00 00 	lea    0xca15(%rip),%rax        # 15b3c <g_739>
    9127:	48 89 85 00 f5 ff ff 	mov    %rax,-0xb00(%rbp)
    912e:	48 8d 85 00 f5 ff ff 	lea    -0xb00(%rbp),%rax
    9135:	48 89 85 50 f6 ff ff 	mov    %rax,-0x9b0(%rbp)
    913c:	48 8d 85 00 f5 ff ff 	lea    -0xb00(%rbp),%rax
    9143:	48 89 85 58 f6 ff ff 	mov    %rax,-0x9a8(%rbp)
    914a:	48 8d 85 00 f5 ff ff 	lea    -0xb00(%rbp),%rax
    9151:	48 89 85 60 f6 ff ff 	mov    %rax,-0x9a0(%rbp)
    9158:	48 8d 85 00 f5 ff ff 	lea    -0xb00(%rbp),%rax
    915f:	48 89 85 68 f6 ff ff 	mov    %rax,-0x998(%rbp)
    9166:	48 8d 85 00 f5 ff ff 	lea    -0xb00(%rbp),%rax
    916d:	48 89 85 70 f6 ff ff 	mov    %rax,-0x990(%rbp)
    9174:	48 8d 85 00 f5 ff ff 	lea    -0xb00(%rbp),%rax
    917b:	48 89 85 78 f6 ff ff 	mov    %rax,-0x988(%rbp)
    9182:	48 8d 85 00 f5 ff ff 	lea    -0xb00(%rbp),%rax
    9189:	48 89 85 80 f6 ff ff 	mov    %rax,-0x980(%rbp)
    9190:	48 8d 85 00 f5 ff ff 	lea    -0xb00(%rbp),%rax
    9197:	48 89 85 88 f6 ff ff 	mov    %rax,-0x978(%rbp)
    919e:	48 8d 85 f0 fa ff ff 	lea    -0x510(%rbp),%rax
    91a5:	48 8d 15 d4 d7 00 00 	lea    0xd7d4(%rip),%rdx        # 16980 <g_2787+0x170>
    91ac:	b9 3f 00 00 00       	mov    $0x3f,%ecx
    91b1:	48 89 c7             	mov    %rax,%rdi
    91b4:	48 89 d6             	mov    %rdx,%rsi
    91b7:	f3 48 a5             	rep movsq %ds:(%rsi),%es:(%rdi)
    91ba:	48 8d 85 f0 fa ff ff 	lea    -0x510(%rbp),%rax
    91c1:	48 05 10 01 00 00    	add    $0x110,%rax
    91c7:	48 89 85 70 f5 ff ff 	mov    %rax,-0xa90(%rbp)
    91ce:	c6 85 b4 f4 ff ff b4 	movb   $0xb4,-0xb4c(%rbp)
    91d5:	66 c7 85 ba f4 ff ff 	movw   $0xffff,-0xb46(%rbp)
    91dc:	ff ff 
    91de:	c7 85 e4 f4 ff ff ff 	movl   $0xffffffff,-0xb1c(%rbp)
    91e5:	ff ff ff 
    91e8:	c7 85 e8 f4 ff ff 61 	movl   $0xa16fb261,-0xb18(%rbp)
    91ef:	b2 6f a1 
    91f2:	48 8d 85 bc f4 ff ff 	lea    -0xb44(%rbp),%rax
    91f9:	48 89 85 78 f5 ff ff 	mov    %rax,-0xa88(%rbp)
    9200:	48 8d 05 6d cf 00 00 	lea    0xcf6d(%rip),%rax        # 16174 <g_1308+0x4f4>
    9207:	48 89 85 80 f5 ff ff 	mov    %rax,-0xa80(%rbp)
    920e:	48 8d 05 67 c8 00 00 	lea    0xc867(%rip),%rax        # 15a7c <g_415+0xc>
    9215:	48 89 85 88 f5 ff ff 	mov    %rax,-0xa78(%rbp)
    921c:	48 8d 85 90 f6 ff ff 	lea    -0x970(%rbp),%rax
    9223:	48 83 c0 28          	add    $0x28,%rax
    9227:	48 89 85 90 f5 ff ff 	mov    %rax,-0xa70(%rbp)
    922e:	48 8d 85 c0 f4 ff ff 	lea    -0xb40(%rbp),%rax
    9235:	48 89 85 08 f5 ff ff 	mov    %rax,-0xaf8(%rbp)
    923c:	48 8d 85 e0 f7 ff ff 	lea    -0x820(%rbp),%rax
    9243:	48 8d 15 36 d9 00 00 	lea    0xd936(%rip),%rdx        # 16b80 <g_2787+0x370>
    924a:	b9 30 00 00 00       	mov    $0x30,%ecx
    924f:	48 89 c7             	mov    %rax,%rdi
    9252:	48 89 d6             	mov    %rdx,%rsi
    9255:	f3 48 a5             	rep movsq %ds:(%rsi),%es:(%rdi)
    9258:	48 8d 05 a9 cf 00 00 	lea    0xcfa9(%rip),%rax        # 16208 <g_1310+0x8>
    925f:	48 89 85 10 f5 ff ff 	mov    %rax,-0xaf0(%rbp)
    9266:	48 8d 05 0b c2 00 00 	lea    0xc20b(%rip),%rax        # 15478 <g_57+0x8>
    926d:	48 89 85 98 f5 ff ff 	mov    %rax,-0xa68(%rbp)
    9274:	48 8d 85 90 f6 ff ff 	lea    -0x970(%rbp),%rax
    927b:	48 83 c0 28          	add    $0x28,%rax
    927f:	48 89 85 a0 f5 ff ff 	mov    %rax,-0xa60(%rbp)
    9286:	48 8d 05 eb c1 00 00 	lea    0xc1eb(%rip),%rax        # 15478 <g_57+0x8>
    928d:	48 89 85 f0 fc ff ff 	mov    %rax,-0x310(%rbp)
    9294:	48 8d 05 91 c8 00 00 	lea    0xc891(%rip),%rax        # 15b2c <g_697+0xc>
    929b:	48 89 85 f8 fc ff ff 	mov    %rax,-0x308(%rbp)
    92a2:	48 8d 05 d3 c1 00 00 	lea    0xc1d3(%rip),%rax        # 1547c <g_57+0xc>
    92a9:	48 89 85 00 fd ff ff 	mov    %rax,-0x300(%rbp)
    92b0:	48 8d 05 c1 c1 00 00 	lea    0xc1c1(%rip),%rax        # 15478 <g_57+0x8>
    92b7:	48 89 85 08 fd ff ff 	mov    %rax,-0x2f8(%rbp)
    92be:	48 8d 05 b7 c1 00 00 	lea    0xc1b7(%rip),%rax        # 1547c <g_57+0xc>
    92c5:	48 89 85 10 fd ff ff 	mov    %rax,-0x2f0(%rbp)
    92cc:	48 8d 05 59 c8 00 00 	lea    0xc859(%rip),%rax        # 15b2c <g_697+0xc>
    92d3:	48 89 85 18 fd ff ff 	mov    %rax,-0x2e8(%rbp)
    92da:	48 8d 05 97 c1 00 00 	lea    0xc197(%rip),%rax        # 15478 <g_57+0x8>
    92e1:	48 89 85 20 fd ff ff 	mov    %rax,-0x2e0(%rbp)
    92e8:	48 8d 05 89 c1 00 00 	lea    0xc189(%rip),%rax        # 15478 <g_57+0x8>
    92ef:	48 89 85 28 fd ff ff 	mov    %rax,-0x2d8(%rbp)
    92f6:	48 8d 05 2f c8 00 00 	lea    0xc82f(%rip),%rax        # 15b2c <g_697+0xc>
    92fd:	48 89 85 30 fd ff ff 	mov    %rax,-0x2d0(%rbp)
    9304:	48 8d 05 6d c1 00 00 	lea    0xc16d(%rip),%rax        # 15478 <g_57+0x8>
    930b:	48 89 85 38 fd ff ff 	mov    %rax,-0x2c8(%rbp)
    9312:	48 8d 85 c0 f4 ff ff 	lea    -0xb40(%rbp),%rax
    9319:	48 89 85 40 fd ff ff 	mov    %rax,-0x2c0(%rbp)
    9320:	48 8d 85 c0 f4 ff ff 	lea    -0xb40(%rbp),%rax
    9327:	48 89 85 48 fd ff ff 	mov    %rax,-0x2b8(%rbp)
    932e:	48 8d 05 43 c1 00 00 	lea    0xc143(%rip),%rax        # 15478 <g_57+0x8>
    9335:	48 89 85 50 fd ff ff 	mov    %rax,-0x2b0(%rbp)
    933c:	48 8d 05 e9 c7 00 00 	lea    0xc7e9(%rip),%rax        # 15b2c <g_697+0xc>
    9343:	48 89 85 58 fd ff ff 	mov    %rax,-0x2a8(%rbp)
    934a:	48 c7 85 60 fd ff ff 	movq   $0x0,-0x2a0(%rbp)
    9351:	00 00 00 00 
    9355:	48 8d 05 d0 c7 00 00 	lea    0xc7d0(%rip),%rax        # 15b2c <g_697+0xc>
    935c:	48 89 85 68 fd ff ff 	mov    %rax,-0x298(%rbp)
    9363:	48 8d 05 0e c1 00 00 	lea    0xc10e(%rip),%rax        # 15478 <g_57+0x8>
    936a:	48 89 85 70 fd ff ff 	mov    %rax,-0x290(%rbp)
    9371:	48 8d 05 b4 c7 00 00 	lea    0xc7b4(%rip),%rax        # 15b2c <g_697+0xc>
    9378:	48 89 85 78 fd ff ff 	mov    %rax,-0x288(%rbp)
    937f:	48 c7 85 80 fd ff ff 	movq   $0x0,-0x280(%rbp)
    9386:	00 00 00 00 
    938a:	48 8d 05 e7 c0 00 00 	lea    0xc0e7(%rip),%rax        # 15478 <g_57+0x8>
    9391:	48 89 85 88 fd ff ff 	mov    %rax,-0x278(%rbp)
    9398:	48 8d 85 c0 f4 ff ff 	lea    -0xb40(%rbp),%rax
    939f:	48 89 85 90 fd ff ff 	mov    %rax,-0x270(%rbp)
    93a6:	48 c7 85 98 fd ff ff 	movq   $0x0,-0x268(%rbp)
    93ad:	00 00 00 00 
    93b1:	48 c7 85 a0 fd ff ff 	movq   $0x0,-0x260(%rbp)
    93b8:	00 00 00 00 
    93bc:	48 8d 85 c0 f4 ff ff 	lea    -0xb40(%rbp),%rax
    93c3:	48 89 85 a8 fd ff ff 	mov    %rax,-0x258(%rbp)
    93ca:	48 8d 05 a7 c0 00 00 	lea    0xc0a7(%rip),%rax        # 15478 <g_57+0x8>
    93d1:	48 89 85 b0 fd ff ff 	mov    %rax,-0x250(%rbp)
    93d8:	48 8d 05 99 c0 00 00 	lea    0xc099(%rip),%rax        # 15478 <g_57+0x8>
    93df:	48 89 85 b8 fd ff ff 	mov    %rax,-0x248(%rbp)
    93e6:	48 8d 05 8b c0 00 00 	lea    0xc08b(%rip),%rax        # 15478 <g_57+0x8>
    93ed:	48 89 85 c0 fd ff ff 	mov    %rax,-0x240(%rbp)
    93f4:	48 8d 05 7d c0 00 00 	lea    0xc07d(%rip),%rax        # 15478 <g_57+0x8>
    93fb:	48 89 85 c8 fd ff ff 	mov    %rax,-0x238(%rbp)
    9402:	48 8d 85 c0 f4 ff ff 	lea    -0xb40(%rbp),%rax
    9409:	48 89 85 d0 fd ff ff 	mov    %rax,-0x230(%rbp)
    9410:	48 8d 85 c0 f4 ff ff 	lea    -0xb40(%rbp),%rax
    9417:	48 89 85 d8 fd ff ff 	mov    %rax,-0x228(%rbp)
    941e:	48 8d 85 c0 f4 ff ff 	lea    -0xb40(%rbp),%rax
    9425:	48 89 85 e0 fd ff ff 	mov    %rax,-0x220(%rbp)
    942c:	48 8d 05 45 c0 00 00 	lea    0xc045(%rip),%rax        # 15478 <g_57+0x8>
    9433:	48 89 85 e8 fd ff ff 	mov    %rax,-0x218(%rbp)
    943a:	48 8d 05 37 c0 00 00 	lea    0xc037(%rip),%rax        # 15478 <g_57+0x8>
    9441:	48 89 85 f0 fd ff ff 	mov    %rax,-0x210(%rbp)
    9448:	48 8d 85 c0 f4 ff ff 	lea    -0xb40(%rbp),%rax
    944f:	48 89 85 f8 fd ff ff 	mov    %rax,-0x208(%rbp)
    9456:	48 8d 05 1b c0 00 00 	lea    0xc01b(%rip),%rax        # 15478 <g_57+0x8>
    945d:	48 89 85 00 fe ff ff 	mov    %rax,-0x200(%rbp)
    9464:	48 c7 85 08 fe ff ff 	movq   $0x0,-0x1f8(%rbp)
    946b:	00 00 00 00 
    946f:	48 8d 05 06 c0 00 00 	lea    0xc006(%rip),%rax        # 1547c <g_57+0xc>
    9476:	48 89 85 10 fe ff ff 	mov    %rax,-0x1f0(%rbp)
    947d:	48 8d 05 f8 bf 00 00 	lea    0xbff8(%rip),%rax        # 1547c <g_57+0xc>
    9484:	48 89 85 18 fe ff ff 	mov    %rax,-0x1e8(%rbp)
    948b:	48 c7 85 20 fe ff ff 	movq   $0x0,-0x1e0(%rbp)
    9492:	00 00 00 00 
    9496:	48 8d 05 db bf 00 00 	lea    0xbfdb(%rip),%rax        # 15478 <g_57+0x8>
    949d:	48 89 85 28 fe ff ff 	mov    %rax,-0x1d8(%rbp)
    94a4:	48 8d 85 c0 f4 ff ff 	lea    -0xb40(%rbp),%rax
    94ab:	48 89 85 30 fe ff ff 	mov    %rax,-0x1d0(%rbp)
    94b2:	48 8d 85 c0 f4 ff ff 	lea    -0xb40(%rbp),%rax
    94b9:	48 89 85 38 fe ff ff 	mov    %rax,-0x1c8(%rbp)
    94c0:	48 8d 05 b5 bf 00 00 	lea    0xbfb5(%rip),%rax        # 1547c <g_57+0xc>
    94c7:	48 89 85 40 fe ff ff 	mov    %rax,-0x1c0(%rbp)
    94ce:	48 8d 85 c0 f4 ff ff 	lea    -0xb40(%rbp),%rax
    94d5:	48 89 85 48 fe ff ff 	mov    %rax,-0x1b8(%rbp)
    94dc:	48 8d 05 49 c6 00 00 	lea    0xc649(%rip),%rax        # 15b2c <g_697+0xc>
    94e3:	48 89 85 50 fe ff ff 	mov    %rax,-0x1b0(%rbp)
    94ea:	48 8d 85 c0 f4 ff ff 	lea    -0xb40(%rbp),%rax
    94f1:	48 89 85 58 fe ff ff 	mov    %rax,-0x1a8(%rbp)
    94f8:	48 8d 05 7d bf 00 00 	lea    0xbf7d(%rip),%rax        # 1547c <g_57+0xc>
    94ff:	48 89 85 60 fe ff ff 	mov    %rax,-0x1a0(%rbp)
    9506:	48 8d 85 c0 f4 ff ff 	lea    -0xb40(%rbp),%rax
    950d:	48 89 85 68 fe ff ff 	mov    %rax,-0x198(%rbp)
    9514:	48 8d 85 c0 f4 ff ff 	lea    -0xb40(%rbp),%rax
    951b:	48 89 85 70 fe ff ff 	mov    %rax,-0x190(%rbp)
    9522:	48 8d 05 4f bf 00 00 	lea    0xbf4f(%rip),%rax        # 15478 <g_57+0x8>
    9529:	48 89 85 78 fe ff ff 	mov    %rax,-0x188(%rbp)
    9530:	48 c7 85 80 fe ff ff 	movq   $0x0,-0x180(%rbp)
    9537:	00 00 00 00 
    953b:	48 8d 05 3a bf 00 00 	lea    0xbf3a(%rip),%rax        # 1547c <g_57+0xc>
    9542:	48 89 85 88 fe ff ff 	mov    %rax,-0x178(%rbp)
    9549:	48 8d 05 2c bf 00 00 	lea    0xbf2c(%rip),%rax        # 1547c <g_57+0xc>
    9550:	48 89 85 90 fe ff ff 	mov    %rax,-0x170(%rbp)
    9557:	48 c7 85 98 fe ff ff 	movq   $0x0,-0x168(%rbp)
    955e:	00 00 00 00 
    9562:	48 8d 05 0f bf 00 00 	lea    0xbf0f(%rip),%rax        # 15478 <g_57+0x8>
    9569:	48 89 85 a0 fe ff ff 	mov    %rax,-0x160(%rbp)
    9570:	48 8d 85 c0 f4 ff ff 	lea    -0xb40(%rbp),%rax
    9577:	48 89 85 a8 fe ff ff 	mov    %rax,-0x158(%rbp)
    957e:	48 8d 05 f3 be 00 00 	lea    0xbef3(%rip),%rax        # 15478 <g_57+0x8>
    9585:	48 89 85 b0 fe ff ff 	mov    %rax,-0x150(%rbp)
    958c:	48 8d 05 e5 be 00 00 	lea    0xbee5(%rip),%rax        # 15478 <g_57+0x8>
    9593:	48 89 85 b8 fe ff ff 	mov    %rax,-0x148(%rbp)
    959a:	48 8d 85 c0 f4 ff ff 	lea    -0xb40(%rbp),%rax
    95a1:	48 89 85 c0 fe ff ff 	mov    %rax,-0x140(%rbp)
    95a8:	48 8d 85 c0 f4 ff ff 	lea    -0xb40(%rbp),%rax
    95af:	48 89 85 c8 fe ff ff 	mov    %rax,-0x138(%rbp)
    95b6:	48 8d 85 c0 f4 ff ff 	lea    -0xb40(%rbp),%rax
    95bd:	48 89 85 d0 fe ff ff 	mov    %rax,-0x130(%rbp)
    95c4:	48 8d 05 ad be 00 00 	lea    0xbead(%rip),%rax        # 15478 <g_57+0x8>
    95cb:	48 89 85 d8 fe ff ff 	mov    %rax,-0x128(%rbp)
    95d2:	48 8d 05 9f be 00 00 	lea    0xbe9f(%rip),%rax        # 15478 <g_57+0x8>
    95d9:	48 89 85 e0 fe ff ff 	mov    %rax,-0x120(%rbp)
    95e0:	48 8d 05 91 be 00 00 	lea    0xbe91(%rip),%rax        # 15478 <g_57+0x8>
    95e7:	48 89 85 e8 fe ff ff 	mov    %rax,-0x118(%rbp)
    95ee:	48 8d 05 83 be 00 00 	lea    0xbe83(%rip),%rax        # 15478 <g_57+0x8>
    95f5:	48 89 85 f0 fe ff ff 	mov    %rax,-0x110(%rbp)
    95fc:	48 8d 85 c0 f4 ff ff 	lea    -0xb40(%rbp),%rax
    9603:	48 89 85 f8 fe ff ff 	mov    %rax,-0x108(%rbp)
    960a:	48 c7 85 00 ff ff ff 	movq   $0x0,-0x100(%rbp)
    9611:	00 00 00 00 
    9615:	48 c7 85 08 ff ff ff 	movq   $0x0,-0xf8(%rbp)
    961c:	00 00 00 00 
    9620:	48 8d 85 c0 f4 ff ff 	lea    -0xb40(%rbp),%rax
    9627:	48 89 85 10 ff ff ff 	mov    %rax,-0xf0(%rbp)
    962e:	48 8d 05 43 be 00 00 	lea    0xbe43(%rip),%rax        # 15478 <g_57+0x8>
    9635:	48 89 85 18 ff ff ff 	mov    %rax,-0xe8(%rbp)
    963c:	48 8d 05 39 be 00 00 	lea    0xbe39(%rip),%rax        # 1547c <g_57+0xc>
    9643:	48 89 85 20 ff ff ff 	mov    %rax,-0xe0(%rbp)
    964a:	48 8d 05 27 be 00 00 	lea    0xbe27(%rip),%rax        # 15478 <g_57+0x8>
    9651:	48 89 85 28 ff ff ff 	mov    %rax,-0xd8(%rbp)
    9658:	48 8d 85 c0 f4 ff ff 	lea    -0xb40(%rbp),%rax
    965f:	48 89 85 30 ff ff ff 	mov    %rax,-0xd0(%rbp)
    9666:	48 8d 05 0b be 00 00 	lea    0xbe0b(%rip),%rax        # 15478 <g_57+0x8>
    966d:	48 89 85 38 ff ff ff 	mov    %rax,-0xc8(%rbp)
    9674:	48 8d 05 01 be 00 00 	lea    0xbe01(%rip),%rax        # 1547c <g_57+0xc>
    967b:	48 89 85 40 ff ff ff 	mov    %rax,-0xc0(%rbp)
    9682:	48 8d 05 ef bd 00 00 	lea    0xbdef(%rip),%rax        # 15478 <g_57+0x8>
    9689:	48 89 85 48 ff ff ff 	mov    %rax,-0xb8(%rbp)
    9690:	48 8d 85 c0 f4 ff ff 	lea    -0xb40(%rbp),%rax
    9697:	48 89 85 50 ff ff ff 	mov    %rax,-0xb0(%rbp)
    969e:	48 c7 85 58 ff ff ff 	movq   $0x0,-0xa8(%rbp)
    96a5:	00 00 00 00 
    96a9:	48 c7 85 60 ff ff ff 	movq   $0x0,-0xa0(%rbp)
    96b0:	00 00 00 00 
    96b4:	48 8d 85 c0 f4 ff ff 	lea    -0xb40(%rbp),%rax
    96bb:	48 89 85 68 ff ff ff 	mov    %rax,-0x98(%rbp)
    96c2:	48 8d 05 af bd 00 00 	lea    0xbdaf(%rip),%rax        # 15478 <g_57+0x8>
    96c9:	48 89 85 70 ff ff ff 	mov    %rax,-0x90(%rbp)
    96d0:	48 8d 05 a1 bd 00 00 	lea    0xbda1(%rip),%rax        # 15478 <g_57+0x8>
    96d7:	48 89 85 78 ff ff ff 	mov    %rax,-0x88(%rbp)
    96de:	48 8d 05 93 bd 00 00 	lea    0xbd93(%rip),%rax        # 15478 <g_57+0x8>
    96e5:	48 89 45 80          	mov    %rax,-0x80(%rbp)
    96e9:	48 8d 05 88 bd 00 00 	lea    0xbd88(%rip),%rax        # 15478 <g_57+0x8>
    96f0:	48 89 45 88          	mov    %rax,-0x78(%rbp)
    96f4:	48 8d 85 c0 f4 ff ff 	lea    -0xb40(%rbp),%rax
    96fb:	48 89 45 90          	mov    %rax,-0x70(%rbp)
    96ff:	48 8d 85 c0 f4 ff ff 	lea    -0xb40(%rbp),%rax
    9706:	48 89 45 98          	mov    %rax,-0x68(%rbp)
    970a:	48 8d 85 c0 f4 ff ff 	lea    -0xb40(%rbp),%rax
    9711:	48 89 45 a0          	mov    %rax,-0x60(%rbp)
    9715:	48 8d 05 5c bd 00 00 	lea    0xbd5c(%rip),%rax        # 15478 <g_57+0x8>
    971c:	48 89 45 a8          	mov    %rax,-0x58(%rbp)
    9720:	48 8d 05 51 bd 00 00 	lea    0xbd51(%rip),%rax        # 15478 <g_57+0x8>
    9727:	48 89 45 b0          	mov    %rax,-0x50(%rbp)
    972b:	48 8d 85 c0 f4 ff ff 	lea    -0xb40(%rbp),%rax
    9732:	48 89 45 b8          	mov    %rax,-0x48(%rbp)
    9736:	48 8d 05 3b bd 00 00 	lea    0xbd3b(%rip),%rax        # 15478 <g_57+0x8>
    973d:	48 89 45 c0          	mov    %rax,-0x40(%rbp)
    9741:	48 c7 45 c8 00 00 00 	movq   $0x0,-0x38(%rbp)
    9748:	00 
    9749:	48 8d 05 2c bd 00 00 	lea    0xbd2c(%rip),%rax        # 1547c <g_57+0xc>
    9750:	48 89 45 d0          	mov    %rax,-0x30(%rbp)
    9754:	48 8d 05 21 bd 00 00 	lea    0xbd21(%rip),%rax        # 1547c <g_57+0xc>
    975b:	48 89 45 d8          	mov    %rax,-0x28(%rbp)
    975f:	48 c7 45 e0 00 00 00 	movq   $0x0,-0x20(%rbp)
    9766:	00 
    9767:	48 8d 05 0a bd 00 00 	lea    0xbd0a(%rip),%rax        # 15478 <g_57+0x8>
    976e:	48 89 45 e8          	mov    %rax,-0x18(%rbp)
    9772:	48 c7 85 00 f7 ff ff 	movq   $0x0,-0x900(%rbp)
    9779:	00 00 00 00 
    977d:	48 c7 85 08 f7 ff ff 	movq   $0x0,-0x8f8(%rbp)
    9784:	00 00 00 00 
    9788:	48 8d 85 10 f5 ff ff 	lea    -0xaf0(%rbp),%rax
    978f:	48 89 85 10 f7 ff ff 	mov    %rax,-0x8f0(%rbp)
    9796:	48 c7 85 18 f7 ff ff 	movq   $0x0,-0x8e8(%rbp)
    979d:	00 00 00 00 
    97a1:	48 c7 85 20 f7 ff ff 	movq   $0x0,-0x8e0(%rbp)
    97a8:	00 00 00 00 
    97ac:	48 8d 85 08 f5 ff ff 	lea    -0xaf8(%rbp),%rax
    97b3:	48 89 85 28 f7 ff ff 	mov    %rax,-0x8d8(%rbp)
    97ba:	48 8d 85 f0 fc ff ff 	lea    -0x310(%rbp),%rax
    97c1:	48 83 c0 08          	add    $0x8,%rax
    97c5:	48 89 85 30 f7 ff ff 	mov    %rax,-0x8d0(%rbp)
    97cc:	48 c7 85 38 f7 ff ff 	movq   $0x0,-0x8c8(%rbp)
    97d3:	00 00 00 00 
    97d7:	48 8d 85 f0 fc ff ff 	lea    -0x310(%rbp),%rax
    97de:	48 83 c0 08          	add    $0x8,%rax
    97e2:	48 89 85 40 f7 ff ff 	mov    %rax,-0x8c0(%rbp)
    97e9:	48 c7 85 48 f7 ff ff 	movq   $0x0,-0x8b8(%rbp)
    97f0:	00 00 00 00 
    97f4:	48 8d 85 f0 fc ff ff 	lea    -0x310(%rbp),%rax
    97fb:	48 83 c0 08          	add    $0x8,%rax
    97ff:	48 89 85 50 f7 ff ff 	mov    %rax,-0x8b0(%rbp)
    9806:	48 8d 85 08 f5 ff ff 	lea    -0xaf8(%rbp),%rax
    980d:	48 89 85 58 f7 ff ff 	mov    %rax,-0x8a8(%rbp)
    9814:	48 c7 85 60 f7 ff ff 	movq   $0x0,-0x8a0(%rbp)
    981b:	00 00 00 00 
    981f:	48 c7 85 68 f7 ff ff 	movq   $0x0,-0x898(%rbp)
    9826:	00 00 00 00 
    982a:	48 8d 85 10 f5 ff ff 	lea    -0xaf0(%rbp),%rax
    9831:	48 89 85 70 f7 ff ff 	mov    %rax,-0x890(%rbp)
    9838:	48 c7 85 78 f7 ff ff 	movq   $0x0,-0x888(%rbp)
    983f:	00 00 00 00 
    9843:	48 c7 85 80 f7 ff ff 	movq   $0x0,-0x880(%rbp)
    984a:	00 00 00 00 
    984e:	48 8d 85 08 f5 ff ff 	lea    -0xaf8(%rbp),%rax
    9855:	48 89 85 88 f7 ff ff 	mov    %rax,-0x878(%rbp)
    985c:	48 8d 85 f0 fc ff ff 	lea    -0x310(%rbp),%rax
    9863:	48 83 c0 08          	add    $0x8,%rax
    9867:	48 89 85 90 f7 ff ff 	mov    %rax,-0x870(%rbp)
    986e:	48 c7 85 98 f7 ff ff 	movq   $0x0,-0x868(%rbp)
    9875:	00 00 00 00 
    9879:	48 8d 85 f0 fc ff ff 	lea    -0x310(%rbp),%rax
    9880:	48 83 c0 08          	add    $0x8,%rax
    9884:	48 89 85 a0 f7 ff ff 	mov    %rax,-0x860(%rbp)
    988b:	48 c7 85 a8 f7 ff ff 	movq   $0x0,-0x858(%rbp)
    9892:	00 00 00 00 
    9896:	48 8d 85 f0 fc ff ff 	lea    -0x310(%rbp),%rax
    989d:	48 83 c0 08          	add    $0x8,%rax
    98a1:	48 89 85 b0 f7 ff ff 	mov    %rax,-0x850(%rbp)
    98a8:	48 8d 85 08 f5 ff ff 	lea    -0xaf8(%rbp),%rax
    98af:	48 89 85 b8 f7 ff ff 	mov    %rax,-0x848(%rbp)
    98b6:	48 c7 85 c0 f7 ff ff 	movq   $0x0,-0x840(%rbp)
    98bd:	00 00 00 00 
    98c1:	48 c7 85 c8 f7 ff ff 	movq   $0x0,-0x838(%rbp)
    98c8:	00 00 00 00 
    98cc:	48 8d 85 10 f5 ff ff 	lea    -0xaf0(%rbp),%rax
    98d3:	48 89 85 d0 f7 ff ff 	mov    %rax,-0x830(%rbp)
    98da:	48 c7 85 d8 f7 ff ff 	movq   $0x0,-0x828(%rbp)
    98e1:	00 00 00 00 
    98e5:	48 8d 85 00 f7 ff ff 	lea    -0x900(%rbp),%rax
    98ec:	48 05 88 00 00 00    	add    $0x88,%rax
    98f2:	48 89 85 18 f5 ff ff 	mov    %rax,-0xae8(%rbp)
    98f9:	48 8d 85 18 f5 ff ff 	lea    -0xae8(%rbp),%rax
    9900:	48 89 85 20 f5 ff ff 	mov    %rax,-0xae0(%rbp)
    9907:	48 8d 85 20 f5 ff ff 	lea    -0xae0(%rbp),%rax
    990e:	48 89 85 a8 f5 ff ff 	mov    %rax,-0xa58(%rbp)
    9915:	48 c7 85 b0 f5 ff ff 	movq   $0x0,-0xa50(%rbp)
    991c:	00 00 00 00 
    9920:	c6 85 b5 f4 ff ff 02 	movb   $0x2,-0xb4b(%rbp)
    9927:	c6 85 b6 f4 ff ff dd 	movb   $0xdd,-0xb4a(%rbp)
    992e:	c7 85 ec f4 ff ff 03 	movl   $0x3,-0xb14(%rbp)
    9935:	00 00 00 
    9938:	c6 85 b7 f4 ff ff d3 	movb   $0xd3,-0xb49(%rbp)
    993f:	48 8d 85 60 f9 ff ff 	lea    -0x6a0(%rbp),%rax
    9946:	48 05 f4 00 00 00    	add    $0xf4,%rax
    994c:	48 89 85 10 f6 ff ff 	mov    %rax,-0x9f0(%rbp)
    9953:	48 8d 05 c6 b9 00 00 	lea    0xb9c6(%rip),%rax        # 15320 <g_10+0x2e0>
    995a:	48 89 85 18 f6 ff ff 	mov    %rax,-0x9e8(%rbp)
    9961:	48 8d 05 b8 b9 00 00 	lea    0xb9b8(%rip),%rax        # 15320 <g_10+0x2e0>
    9968:	48 89 85 20 f6 ff ff 	mov    %rax,-0x9e0(%rbp)
    996f:	48 8d 85 60 f9 ff ff 	lea    -0x6a0(%rbp),%rax
    9976:	48 05 f4 00 00 00    	add    $0xf4,%rax
    997c:	48 89 85 28 f6 ff ff 	mov    %rax,-0x9d8(%rbp)
    9983:	48 8d 05 96 b9 00 00 	lea    0xb996(%rip),%rax        # 15320 <g_10+0x2e0>
    998a:	48 89 85 30 f6 ff ff 	mov    %rax,-0x9d0(%rbp)
    9991:	48 8d 05 88 b9 00 00 	lea    0xb988(%rip),%rax        # 15320 <g_10+0x2e0>
    9998:	48 89 85 38 f6 ff ff 	mov    %rax,-0x9c8(%rbp)
    999f:	48 8d 85 60 f9 ff ff 	lea    -0x6a0(%rbp),%rax
    99a6:	48 05 f4 00 00 00    	add    $0xf4,%rax
    99ac:	48 89 85 40 f6 ff ff 	mov    %rax,-0x9c0(%rbp)
    99b3:	48 8d 05 8e b7 00 00 	lea    0xb78e(%rip),%rax        # 15148 <g_10+0x108>
    99ba:	48 89 85 b8 f5 ff ff 	mov    %rax,-0xa48(%rbp)
    99c1:	c7 85 c4 f4 ff ff 00 	movl   $0x0,-0xb3c(%rbp)
    99c8:	00 00 00 
    99cb:	eb 1b                	jmp    99e8 <func_35+0xb20>
    99cd:	8b 85 c4 f4 ff ff    	mov    -0xb3c(%rbp),%eax
    99d3:	48 98                	cltq   
    99d5:	48 c7 84 c5 c0 f5 ff 	movq   $0x0,-0xa40(%rbp,%rax,8)
    99dc:	ff 00 00 00 00 
    99e1:	83 85 c4 f4 ff ff 01 	addl   $0x1,-0xb3c(%rbp)
    99e8:	83 bd c4 f4 ff ff 01 	cmpl   $0x1,-0xb3c(%rbp)
    99ef:	7e dc                	jle    99cd <func_35+0xb05>
    99f1:	c7 85 c4 f4 ff ff 00 	movl   $0x0,-0xb3c(%rbp)
    99f8:	00 00 00 
    99fb:	eb 1e                	jmp    9a1b <func_35+0xb53>
    99fd:	8b 85 c4 f4 ff ff    	mov    -0xb3c(%rbp),%eax
    9a03:	48 98                	cltq   
    9a05:	48 8d 15 f4 e0 00 00 	lea    0xe0f4(%rip),%rdx        # 17b00 <g_172>
    9a0c:	48 89 94 c5 d0 f5 ff 	mov    %rdx,-0xa30(%rbp,%rax,8)
    9a13:	ff 
    9a14:	83 85 c4 f4 ff ff 01 	addl   $0x1,-0xb3c(%rbp)
    9a1b:	83 bd c4 f4 ff ff 02 	cmpl   $0x2,-0xb3c(%rbp)
    9a22:	7e d9                	jle    99fd <func_35+0xb35>
    9a24:	c7 85 c4 f4 ff ff 00 	movl   $0x0,-0xb3c(%rbp)
    9a2b:	00 00 00 
    9a2e:	eb 1a                	jmp    9a4a <func_35+0xb82>
    9a30:	8b 85 c4 f4 ff ff    	mov    -0xb3c(%rbp),%eax
    9a36:	48 98                	cltq   
    9a38:	c7 84 85 f0 f5 ff ff 	movl   $0xf7ec7558,-0xa10(%rbp,%rax,4)
    9a3f:	58 75 ec f7 
    9a43:	83 85 c4 f4 ff ff 01 	addl   $0x1,-0xb3c(%rbp)
    9a4a:	83 bd c4 f4 ff ff 06 	cmpl   $0x6,-0xb3c(%rbp)
    9a51:	7e dd                	jle    9a30 <func_35+0xb68>
    9a53:	48 8b 85 a8 f4 ff ff 	mov    -0xb58(%rbp),%rax
    9a5a:	48 8b 4d f8          	mov    -0x8(%rbp),%rcx
    9a5e:	64 48 33 0c 25 28 00 	xor    %fs:0x28,%rcx
    9a65:	00 00 
    9a67:	74 05                	je     9a6e <func_35+0xba6>
    9a69:	e8 02 d6 ff ff       	callq  7070 <__stack_chk_fail@plt>
    9a6e:	c9                   	leaveq 
    9a6f:	c3                   	retq   

0000000000009a70 <func_38>:
    9a70:	f3 0f 1e fa          	endbr64 
    9a74:	55                   	push   %rbp
    9a75:	48 89 e5             	mov    %rsp,%rbp
    9a78:	53                   	push   %rbx
    9a79:	48 83 ec 38          	sub    $0x38,%rsp
    9a7d:	48 89 7d c8          	mov    %rdi,-0x38(%rbp)
    9a81:	64 48 8b 04 25 28 00 	mov    %fs:0x28,%rax
    9a88:	00 00 
    9a8a:	48 89 45 e8          	mov    %rax,-0x18(%rbp)
    9a8e:	31 c0                	xor    %eax,%eax
    9a90:	c7 45 d0 00 00 00 00 	movl   $0x0,-0x30(%rbp)
    9a97:	c7 45 d4 01 00 00 00 	movl   $0x1,-0x2c(%rbp)
    9a9e:	48 8d 05 6b e0 00 00 	lea    0xe06b(%rip),%rax        # 17b10 <g_174>
    9aa5:	48 89 45 d8          	mov    %rax,-0x28(%rbp)
    9aa9:	48 8d 45 d8          	lea    -0x28(%rbp),%rax
    9aad:	48 89 45 e0          	mov    %rax,-0x20(%rbp)
    9ab1:	8b 45 d0             	mov    -0x30(%rbp),%eax
    9ab4:	0f be d8             	movsbl %al,%ebx
    9ab7:	8b 45 d0             	mov    -0x30(%rbp),%eax
    9aba:	48 98                	cltq   
    9abc:	0f b7 15 6f b9 00 00 	movzwl 0xb96f(%rip),%edx        # 15432 <g_29+0x72>
    9ac3:	0f bf ca             	movswl %dx,%ecx
    9ac6:	48 8d 15 83 b5 00 00 	lea    0xb583(%rip),%rdx        # 15050 <g_10+0x10>
    9acd:	48 39 55 c8          	cmp    %rdx,-0x38(%rbp)
    9ad1:	0f 95 c2             	setne  %dl
    9ad4:	0f b6 d2             	movzbl %dl,%edx
    9ad7:	09 ca                	or     %ecx,%edx
    9ad9:	89 d1                	mov    %edx,%ecx
    9adb:	48 8d 55 d0          	lea    -0x30(%rbp),%rdx
    9adf:	48 89 c6             	mov    %rax,%rsi
    9ae2:	89 cf                	mov    %ecx,%edi
    9ae4:	e8 4d 02 00 00       	callq  9d36 <func_53>
    9ae9:	8b 55 d0             	mov    -0x30(%rbp),%edx
    9aec:	89 d6                	mov    %edx,%esi
    9aee:	8b 55 d0             	mov    -0x30(%rbp),%edx
    9af1:	89 d7                	mov    %edx,%edi
    9af3:	48 8b 55 c8          	mov    -0x38(%rbp),%rdx
    9af7:	49 89 d0             	mov    %rdx,%r8
    9afa:	89 d9                	mov    %ebx,%ecx
    9afc:	89 c2                	mov    %eax,%edx
    9afe:	e8 03 02 00 00       	callq  9d06 <func_47>
    9b03:	48 89 c7             	mov    %rax,%rdi
    9b06:	e8 cc 01 00 00       	callq  9cd7 <func_45>
    9b0b:	48 89 c2             	mov    %rax,%rdx
    9b0e:	48 8d 35 3b b5 00 00 	lea    0xb53b(%rip),%rsi        # 15050 <g_10+0x10>
    9b15:	bf 01 00 00 00       	mov    $0x1,%edi
    9b1a:	e8 33 00 00 00       	callq  9b52 <func_40>
    9b1f:	66 85 c0             	test   %ax,%ax
    9b22:	74 07                	je     9b2b <func_38+0xbb>
    9b24:	b8 01 00 00 00       	mov    $0x1,%eax
    9b29:	eb 05                	jmp    9b30 <func_38+0xc0>
    9b2b:	b8 00 00 00 00       	mov    $0x0,%eax
    9b30:	31 45 d4             	xor    %eax,-0x2c(%rbp)
    9b33:	48 8b 45 c8          	mov    -0x38(%rbp),%rax
    9b37:	48 8b 5d e8          	mov    -0x18(%rbp),%rbx
    9b3b:	64 48 33 1c 25 28 00 	xor    %fs:0x28,%rbx
    9b42:	00 00 
    9b44:	74 05                	je     9b4b <func_38+0xdb>
    9b46:	e8 25 d5 ff ff       	callq  7070 <__stack_chk_fail@plt>
    9b4b:	48 83 c4 38          	add    $0x38,%rsp
    9b4f:	5b                   	pop    %rbx
    9b50:	5d                   	pop    %rbp
    9b51:	c3                   	retq   

0000000000009b52 <func_40>:
    9b52:	f3 0f 1e fa          	endbr64 
    9b56:	55                   	push   %rbp
    9b57:	48 89 e5             	mov    %rsp,%rbp
    9b5a:	53                   	push   %rbx
    9b5b:	48 81 ec a8 00 00 00 	sub    $0xa8,%rsp
    9b62:	89 bd 6c ff ff ff    	mov    %edi,-0x94(%rbp)
    9b68:	48 89 b5 60 ff ff ff 	mov    %rsi,-0xa0(%rbp)
    9b6f:	48 89 95 58 ff ff ff 	mov    %rdx,-0xa8(%rbp)
    9b76:	64 48 8b 04 25 28 00 	mov    %fs:0x28,%rax
    9b7d:	00 00 
    9b7f:	48 89 45 e8          	mov    %rax,-0x18(%rbp)
    9b83:	31 c0                	xor    %eax,%eax
    9b85:	48 8d 05 9c b9 00 00 	lea    0xb99c(%rip),%rax        # 15528 <g_204>
    9b8c:	48 89 45 80          	mov    %rax,-0x80(%rbp)
    9b90:	48 8d 45 80          	lea    -0x80(%rbp),%rax
    9b94:	48 89 45 a0          	mov    %rax,-0x60(%rbp)
    9b98:	48 8d 45 80          	lea    -0x80(%rbp),%rax
    9b9c:	48 89 45 a8          	mov    %rax,-0x58(%rbp)
    9ba0:	48 8d 45 80          	lea    -0x80(%rbp),%rax
    9ba4:	48 89 45 b0          	mov    %rax,-0x50(%rbp)
    9ba8:	48 8d 45 80          	lea    -0x80(%rbp),%rax
    9bac:	48 89 45 b8          	mov    %rax,-0x48(%rbp)
    9bb0:	48 8d 45 80          	lea    -0x80(%rbp),%rax
    9bb4:	48 89 45 c0          	mov    %rax,-0x40(%rbp)
    9bb8:	48 8d 45 80          	lea    -0x80(%rbp),%rax
    9bbc:	48 89 45 c8          	mov    %rax,-0x38(%rbp)
    9bc0:	48 8d 45 80          	lea    -0x80(%rbp),%rax
    9bc4:	48 89 45 d0          	mov    %rax,-0x30(%rbp)
    9bc8:	48 8d 45 80          	lea    -0x80(%rbp),%rax
    9bcc:	48 89 45 d8          	mov    %rax,-0x28(%rbp)
    9bd0:	48 8d 45 80          	lea    -0x80(%rbp),%rax
    9bd4:	48 89 45 e0          	mov    %rax,-0x20(%rbp)
    9bd8:	48 8d 45 a0          	lea    -0x60(%rbp),%rax
    9bdc:	48 83 c0 10          	add    $0x10,%rax
    9be0:	48 89 45 88          	mov    %rax,-0x78(%rbp)
    9be4:	48 8d 05 01 bf 00 00 	lea    0xbf01(%rip),%rax        # 15aec <g_646+0xc>
    9beb:	48 89 45 90          	mov    %rax,-0x70(%rbp)
    9bef:	c7 85 7c ff ff ff ff 	movl   $0xffffffff,-0x84(%rbp)
    9bf6:	ff ff ff 
    9bf9:	48 8d 05 50 fc 00 00 	lea    0xfc50(%rip),%rax        # 19850 <g_304>
    9c00:	48 89 45 98          	mov    %rax,-0x68(%rbp)
    9c04:	8b 85 7c ff ff ff    	mov    -0x84(%rbp),%eax
    9c0a:	83 bd 6c ff ff ff 00 	cmpl   $0x0,-0x94(%rbp)
    9c11:	75 09                	jne    9c1c <func_40+0xca>
    9c13:	83 bd 6c ff ff ff 00 	cmpl   $0x0,-0x94(%rbp)
    9c1a:	74 07                	je     9c23 <func_40+0xd1>
    9c1c:	ba 01 00 00 00       	mov    $0x1,%edx
    9c21:	eb 05                	jmp    9c28 <func_40+0xd6>
    9c23:	ba 00 00 00 00       	mov    $0x0,%edx
    9c28:	89 c6                	mov    %eax,%esi
    9c2a:	89 d7                	mov    %edx,%edi
    9c2c:	e8 9f e2 ff ff       	callq  7ed0 <safe_sub_func_uint32_t_u_u>
    9c31:	89 c2                	mov    %eax,%edx
    9c33:	48 8b 45 80          	mov    -0x80(%rbp),%rax
    9c37:	89 d2                	mov    %edx,%edx
    9c39:	48 89 10             	mov    %rdx,(%rax)
    9c3c:	48 8b 55 b0          	mov    -0x50(%rbp),%rdx
    9c40:	48 8b 45 88          	mov    -0x78(%rbp),%rax
    9c44:	48 89 10             	mov    %rdx,(%rax)
    9c47:	48 8b 05 52 e4 00 00 	mov    0xe452(%rip),%rax        # 180a0 <g_724>
    9c4e:	48 8b 05 ab de 00 00 	mov    0xdeab(%rip),%rax        # 17b00 <g_172>
    9c55:	0f b6 10             	movzbl (%rax),%edx
    9c58:	48 8b 45 90          	mov    -0x70(%rbp),%rax
    9c5c:	88 10                	mov    %dl,(%rax)
    9c5e:	48 8b 45 90          	mov    -0x70(%rbp),%rax
    9c62:	0f b6 00             	movzbl (%rax),%eax
    9c65:	0f b6 d8             	movzbl %al,%ebx
    9c68:	8b 85 7c ff ff ff    	mov    -0x84(%rbp),%eax
    9c6e:	0f b6 d0             	movzbl %al,%edx
    9c71:	8b 85 6c ff ff ff    	mov    -0x94(%rbp),%eax
    9c77:	0f b6 c0             	movzbl %al,%eax
    9c7a:	89 d6                	mov    %edx,%esi
    9c7c:	89 c7                	mov    %eax,%edi
    9c7e:	e8 10 df ff ff       	callq  7b93 <safe_mul_func_uint8_t_u_u>
    9c83:	3c f6                	cmp    $0xf6,%al
    9c85:	74 07                	je     9c8e <func_40+0x13c>
    9c87:	b8 bc 00 00 00       	mov    $0xbc,%eax
    9c8c:	eb 05                	jmp    9c93 <func_40+0x141>
    9c8e:	b8 bd 00 00 00       	mov    $0xbd,%eax
    9c93:	48 39 d8             	cmp    %rbx,%rax
    9c96:	0f 9e c0             	setle  %al
    9c99:	89 c2                	mov    %eax,%edx
    9c9b:	48 8b 45 98          	mov    -0x68(%rbp),%rax
    9c9f:	88 10                	mov    %dl,(%rax)
    9ca1:	48 8b 05 a8 e4 00 00 	mov    0xe4a8(%rip),%rax        # 18150 <g_855>
    9ca8:	48 8d 55 a0          	lea    -0x60(%rbp),%rdx
    9cac:	48 83 c2 10          	add    $0x10,%rdx
    9cb0:	48 89 10             	mov    %rdx,(%rax)
    9cb3:	8b 05 bf 73 00 00    	mov    0x73bf(%rip),%eax        # 11078 <g_560+0x18>
    9cb9:	48 8b 4d e8          	mov    -0x18(%rbp),%rcx
    9cbd:	64 48 33 0c 25 28 00 	xor    %fs:0x28,%rcx
    9cc4:	00 00 
    9cc6:	74 05                	je     9ccd <func_40+0x17b>
    9cc8:	e8 a3 d3 ff ff       	callq  7070 <__stack_chk_fail@plt>
    9ccd:	48 81 c4 a8 00 00 00 	add    $0xa8,%rsp
    9cd4:	5b                   	pop    %rbx
    9cd5:	5d                   	pop    %rbp
    9cd6:	c3                   	retq   

0000000000009cd7 <func_45>:
    9cd7:	f3 0f 1e fa          	endbr64 
    9cdb:	55                   	push   %rbp
    9cdc:	48 89 e5             	mov    %rsp,%rbp
    9cdf:	48 89 7d e8          	mov    %rdi,-0x18(%rbp)
    9ce3:	c6 45 f3 ff          	movb   $0xff,-0xd(%rbp)
    9ce7:	48 8d 05 3a b8 00 00 	lea    0xb83a(%rip),%rax        # 15528 <g_204>
    9cee:	48 89 45 f8          	mov    %rax,-0x8(%rbp)
    9cf2:	c7 45 f4 58 23 cd 68 	movl   $0x68cd2358,-0xc(%rbp)
    9cf9:	c7 45 f4 01 00 00 00 	movl   $0x1,-0xc(%rbp)
    9d00:	48 8b 45 e8          	mov    -0x18(%rbp),%rax
    9d04:	5d                   	pop    %rbp
    9d05:	c3                   	retq   

0000000000009d06 <func_47>:
    9d06:	f3 0f 1e fa          	endbr64 
    9d0a:	55                   	push   %rbp
    9d0b:	48 89 e5             	mov    %rsp,%rbp
    9d0e:	89 7d ec             	mov    %edi,-0x14(%rbp)
    9d11:	89 75 e8             	mov    %esi,-0x18(%rbp)
    9d14:	89 55 e4             	mov    %edx,-0x1c(%rbp)
    9d17:	89 c8                	mov    %ecx,%eax
    9d19:	4c 89 45 d8          	mov    %r8,-0x28(%rbp)
    9d1d:	88 45 e0             	mov    %al,-0x20(%rbp)
    9d20:	c6 45 f7 63          	movb   $0x63,-0x9(%rbp)
    9d24:	48 c7 45 f8 00 00 00 	movq   $0x0,-0x8(%rbp)
    9d2b:	00 
    9d2c:	80 6d f7 01          	subb   $0x1,-0x9(%rbp)
    9d30:	48 8b 45 f8          	mov    -0x8(%rbp),%rax
    9d34:	5d                   	pop    %rbp
    9d35:	c3                   	retq   

0000000000009d36 <func_53>:
    9d36:	f3 0f 1e fa          	endbr64 
    9d3a:	55                   	push   %rbp
    9d3b:	48 89 e5             	mov    %rsp,%rbp
    9d3e:	41 57                	push   %r15
    9d40:	41 56                	push   %r14
    9d42:	41 55                	push   %r13
    9d44:	41 54                	push   %r12
    9d46:	53                   	push   %rbx
    9d47:	48 81 ec 00 10 00 00 	sub    $0x1000,%rsp
    9d4e:	48 83 0c 24 00       	orq    $0x0,(%rsp)
    9d53:	48 81 ec b8 07 00 00 	sub    $0x7b8,%rsp
    9d5a:	89 bd 3c e8 ff ff    	mov    %edi,-0x17c4(%rbp)
    9d60:	48 89 b5 30 e8 ff ff 	mov    %rsi,-0x17d0(%rbp)
    9d67:	48 89 95 28 e8 ff ff 	mov    %rdx,-0x17d8(%rbp)
    9d6e:	64 48 8b 04 25 28 00 	mov    %fs:0x28,%rax
    9d75:	00 00 
    9d77:	48 89 45 c8          	mov    %rax,-0x38(%rbp)
    9d7b:	31 c0                	xor    %eax,%eax
    9d7d:	48 c7 85 00 e9 ff ff 	movq   $0x0,-0x1700(%rbp)
    9d84:	00 00 00 00 
    9d88:	48 8d 05 e9 b6 00 00 	lea    0xb6e9(%rip),%rax        # 15478 <g_57+0x8>
    9d8f:	48 89 85 b0 e9 ff ff 	mov    %rax,-0x1650(%rbp)
    9d96:	48 8d 05 f3 b6 00 00 	lea    0xb6f3(%rip),%rax        # 15490 <g_71>
    9d9d:	48 89 85 08 e9 ff ff 	mov    %rax,-0x16f8(%rbp)
    9da4:	c7 85 a4 e8 ff ff 01 	movl   $0x1,-0x175c(%rbp)
    9dab:	00 00 00 
    9dae:	c7 85 64 e8 ff ff 01 	movl   $0x1,-0x179c(%rbp)
    9db5:	00 00 00 
    9db8:	48 8d 05 73 b6 00 00 	lea    0xb673(%rip),%rax        # 15432 <g_29+0x72>
    9dbf:	48 89 85 10 e9 ff ff 	mov    %rax,-0x16f0(%rbp)
    9dc6:	66 c7 85 52 e8 ff ff 	movw   $0x1c,-0x17ae(%rbp)
    9dcd:	1c 00 
    9dcf:	48 c7 85 b8 e9 ff ff 	movq   $0x0,-0x1648(%rbp)
    9dd6:	00 00 00 00 
    9dda:	48 8d 05 af b6 00 00 	lea    0xb6af(%rip),%rax        # 15490 <g_71>
    9de1:	48 89 85 c0 e9 ff ff 	mov    %rax,-0x1640(%rbp)
    9de8:	48 8d 05 d1 b5 00 00 	lea    0xb5d1(%rip),%rax        # 153c0 <g_29>
    9def:	48 89 85 18 e9 ff ff 	mov    %rax,-0x16e8(%rbp)
    9df6:	c6 85 4c e8 ff ff 06 	movb   $0x6,-0x17b4(%rbp)
    9dfd:	48 8d 05 cc bc 00 00 	lea    0xbccc(%rip),%rax        # 15ad0 <g_498>
    9e04:	48 89 85 20 e9 ff ff 	mov    %rax,-0x16e0(%rbp)
    9e0b:	48 8d 85 20 e9 ff ff 	lea    -0x16e0(%rbp),%rax
    9e12:	48 89 85 c8 e9 ff ff 	mov    %rax,-0x1638(%rbp)
    9e19:	48 8d 85 4c e8 ff ff 	lea    -0x17b4(%rbp),%rax
    9e20:	48 89 85 d0 e9 ff ff 	mov    %rax,-0x1630(%rbp)
    9e27:	48 8d 05 22 fa 00 00 	lea    0xfa22(%rip),%rax        # 19850 <g_304>
    9e2e:	48 89 85 d8 e9 ff ff 	mov    %rax,-0x1628(%rbp)
    9e35:	48 c7 85 28 e9 ff ff 	movq   $0x0,-0x16d8(%rbp)
    9e3c:	00 00 00 00 
    9e40:	48 c7 85 e0 e9 ff ff 	movq   $0x0,-0x1620(%rbp)
    9e47:	00 00 00 00 
    9e4b:	c7 85 a8 e8 ff ff 00 	movl   $0x0,-0x1758(%rbp)
    9e52:	00 00 00 
    9e55:	eb 1a                	jmp    9e71 <func_53+0x13b>
    9e57:	8b 85 a8 e8 ff ff    	mov    -0x1758(%rbp),%eax
    9e5d:	48 98                	cltq   
    9e5f:	c7 84 85 a0 eb ff ff 	movl   $0xffffffff,-0x1460(%rbp,%rax,4)
    9e66:	ff ff ff ff 
    9e6a:	83 85 a8 e8 ff ff 01 	addl   $0x1,-0x1758(%rbp)
    9e71:	83 bd a8 e8 ff ff 05 	cmpl   $0x5,-0x1758(%rbp)
    9e78:	7e dd                	jle    9e57 <func_53+0x121>
    9e7a:	c7 85 a8 e8 ff ff 00 	movl   $0x0,-0x1758(%rbp)
    9e81:	00 00 00 
    9e84:	eb 1a                	jmp    9ea0 <func_53+0x16a>
    9e86:	8b 85 a8 e8 ff ff    	mov    -0x1758(%rbp),%eax
    9e8c:	48 98                	cltq   
    9e8e:	c7 84 85 c0 eb ff ff 	movl   $0xffffffff,-0x1440(%rbp,%rax,4)
    9e95:	ff ff ff ff 
    9e99:	83 85 a8 e8 ff ff 01 	addl   $0x1,-0x1758(%rbp)
    9ea0:	83 bd a8 e8 ff ff 05 	cmpl   $0x5,-0x1758(%rbp)
    9ea7:	7e dd                	jle    9e86 <func_53+0x150>
    9ea9:	c7 85 a8 e8 ff ff 00 	movl   $0x0,-0x1758(%rbp)
    9eb0:	00 00 00 
    9eb3:	eb 49                	jmp    9efe <func_53+0x1c8>
    9eb5:	c7 85 bc e8 ff ff 00 	movl   $0x0,-0x1744(%rbp)
    9ebc:	00 00 00 
    9ebf:	eb 2d                	jmp    9eee <func_53+0x1b8>
    9ec1:	8b 85 bc e8 ff ff    	mov    -0x1744(%rbp),%eax
    9ec7:	48 98                	cltq   
    9ec9:	8b 95 a8 e8 ff ff    	mov    -0x1758(%rbp),%edx
    9ecf:	48 63 d2             	movslq %edx,%rdx
    9ed2:	48 01 d2             	add    %rdx,%rdx
    9ed5:	48 01 d0             	add    %rdx,%rax
    9ed8:	48 8d 15 59 e2 00 00 	lea    0xe259(%rip),%rdx        # 18138 <g_826>
    9edf:	48 89 94 c5 70 ec ff 	mov    %rdx,-0x1390(%rbp,%rax,8)
    9ee6:	ff 
    9ee7:	83 85 bc e8 ff ff 01 	addl   $0x1,-0x1744(%rbp)
    9eee:	83 bd bc e8 ff ff 01 	cmpl   $0x1,-0x1744(%rbp)
    9ef5:	7e ca                	jle    9ec1 <func_53+0x18b>
    9ef7:	83 85 a8 e8 ff ff 01 	addl   $0x1,-0x1758(%rbp)
    9efe:	83 bd a8 e8 ff ff 04 	cmpl   $0x4,-0x1758(%rbp)
    9f05:	7e ae                	jle    9eb5 <func_53+0x17f>
    9f07:	8b 9d a4 e8 ff ff    	mov    -0x175c(%rbp),%ebx
    9f0d:	be 00 00 00 00       	mov    $0x0,%esi
    9f12:	bf 01 00 00 00       	mov    $0x1,%edi
    9f17:	e8 77 dc ff ff       	callq  7b93 <safe_mul_func_uint8_t_u_u>
    9f1c:	0f b6 d0             	movzbl %al,%edx
    9f1f:	8b 05 4f b5 00 00    	mov    0xb54f(%rip),%eax        # 15474 <g_57+0x4>
    9f25:	39 c2                	cmp    %eax,%edx
    9f27:	0f 95 c0             	setne  %al
    9f2a:	0f b6 c0             	movzbl %al,%eax
    9f2d:	89 de                	mov    %ebx,%esi
    9f2f:	89 c7                	mov    %eax,%edi
    9f31:	e8 d0 de ff ff       	callq  7e06 <safe_lshift_func_uint16_t_u_u>
    9f36:	66 85 c0             	test   %ax,%ax
    9f39:	0f 84 1f 04 00 00    	je     a35e <func_53+0x628>
    9f3f:	48 c7 85 60 e9 ff ff 	movq   $0x0,-0x16a0(%rbp)
    9f46:	00 00 00 00 
    9f4a:	48 8d 85 60 e9 ff ff 	lea    -0x16a0(%rbp),%rax
    9f51:	48 89 85 40 ea ff ff 	mov    %rax,-0x15c0(%rbp)
    9f58:	48 c7 85 48 ea ff ff 	movq   $0x0,-0x15b8(%rbp)
    9f5f:	00 00 00 00 
    9f63:	48 c7 85 50 ea ff ff 	movq   $0x0,-0x15b0(%rbp)
    9f6a:	00 00 00 00 
    9f6e:	48 8d 05 db b1 00 00 	lea    0xb1db(%rip),%rax        # 15150 <g_10+0x110>
    9f75:	48 89 85 70 eb ff ff 	mov    %rax,-0x1490(%rbp)
    9f7c:	48 c7 85 30 f8 ff ff 	movq   $0x0,-0x7d0(%rbp)
    9f83:	00 00 00 00 
    9f87:	48 8d 85 70 eb ff ff 	lea    -0x1490(%rbp),%rax
    9f8e:	48 89 85 38 f8 ff ff 	mov    %rax,-0x7c8(%rbp)
    9f95:	48 c7 85 40 f8 ff ff 	movq   $0x0,-0x7c0(%rbp)
    9f9c:	00 00 00 00 
    9fa0:	48 c7 85 48 f8 ff ff 	movq   $0x0,-0x7b8(%rbp)
    9fa7:	00 00 00 00 
    9fab:	48 8d 85 70 eb ff ff 	lea    -0x1490(%rbp),%rax
    9fb2:	48 89 85 50 f8 ff ff 	mov    %rax,-0x7b0(%rbp)
    9fb9:	48 8d 85 70 eb ff ff 	lea    -0x1490(%rbp),%rax
    9fc0:	48 89 85 58 f8 ff ff 	mov    %rax,-0x7a8(%rbp)
    9fc7:	48 8d 85 70 eb ff ff 	lea    -0x1490(%rbp),%rax
    9fce:	48 89 85 60 f8 ff ff 	mov    %rax,-0x7a0(%rbp)
    9fd5:	48 8d 85 70 eb ff ff 	lea    -0x1490(%rbp),%rax
    9fdc:	48 89 85 68 f8 ff ff 	mov    %rax,-0x798(%rbp)
    9fe3:	48 8d 85 70 eb ff ff 	lea    -0x1490(%rbp),%rax
    9fea:	48 89 85 70 f8 ff ff 	mov    %rax,-0x790(%rbp)
    9ff1:	48 c7 85 78 f8 ff ff 	movq   $0x0,-0x788(%rbp)
    9ff8:	00 00 00 00 
    9ffc:	48 c7 85 80 f8 ff ff 	movq   $0x0,-0x780(%rbp)
    a003:	00 00 00 00 
    a007:	48 8d 85 70 eb ff ff 	lea    -0x1490(%rbp),%rax
    a00e:	48 89 85 88 f8 ff ff 	mov    %rax,-0x778(%rbp)
    a015:	48 c7 85 90 f8 ff ff 	movq   $0x0,-0x770(%rbp)
    a01c:	00 00 00 00 
    a020:	48 8d 85 70 eb ff ff 	lea    -0x1490(%rbp),%rax
    a027:	48 89 85 98 f8 ff ff 	mov    %rax,-0x768(%rbp)
    a02e:	48 c7 85 a0 f8 ff ff 	movq   $0x0,-0x760(%rbp)
    a035:	00 00 00 00 
    a039:	48 c7 85 a8 f8 ff ff 	movq   $0x0,-0x758(%rbp)
    a040:	00 00 00 00 
    a044:	48 8d 85 70 eb ff ff 	lea    -0x1490(%rbp),%rax
    a04b:	48 89 85 b0 f8 ff ff 	mov    %rax,-0x750(%rbp)
    a052:	48 8d 85 70 eb ff ff 	lea    -0x1490(%rbp),%rax
    a059:	48 89 85 b8 f8 ff ff 	mov    %rax,-0x748(%rbp)
    a060:	48 8d 85 70 eb ff ff 	lea    -0x1490(%rbp),%rax
    a067:	48 89 85 c0 f8 ff ff 	mov    %rax,-0x740(%rbp)
    a06e:	48 8d 85 70 eb ff ff 	lea    -0x1490(%rbp),%rax
    a075:	48 89 85 c8 f8 ff ff 	mov    %rax,-0x738(%rbp)
    a07c:	48 8d 85 70 eb ff ff 	lea    -0x1490(%rbp),%rax
    a083:	48 89 85 d0 f8 ff ff 	mov    %rax,-0x730(%rbp)
    a08a:	48 c7 85 d8 f8 ff ff 	movq   $0x0,-0x728(%rbp)
    a091:	00 00 00 00 
    a095:	48 c7 85 e0 f8 ff ff 	movq   $0x0,-0x720(%rbp)
    a09c:	00 00 00 00 
    a0a0:	48 8d 85 70 eb ff ff 	lea    -0x1490(%rbp),%rax
    a0a7:	48 89 85 e8 f8 ff ff 	mov    %rax,-0x718(%rbp)
    a0ae:	48 c7 85 f0 f8 ff ff 	movq   $0x0,-0x710(%rbp)
    a0b5:	00 00 00 00 
    a0b9:	48 8d 85 70 eb ff ff 	lea    -0x1490(%rbp),%rax
    a0c0:	48 89 85 f8 f8 ff ff 	mov    %rax,-0x708(%rbp)
    a0c7:	48 c7 85 00 f9 ff ff 	movq   $0x0,-0x700(%rbp)
    a0ce:	00 00 00 00 
    a0d2:	48 c7 85 08 f9 ff ff 	movq   $0x0,-0x6f8(%rbp)
    a0d9:	00 00 00 00 
    a0dd:	48 8d 85 70 eb ff ff 	lea    -0x1490(%rbp),%rax
    a0e4:	48 89 85 10 f9 ff ff 	mov    %rax,-0x6f0(%rbp)
    a0eb:	48 8d 85 70 eb ff ff 	lea    -0x1490(%rbp),%rax
    a0f2:	48 89 85 18 f9 ff ff 	mov    %rax,-0x6e8(%rbp)
    a0f9:	48 8d 85 70 eb ff ff 	lea    -0x1490(%rbp),%rax
    a100:	48 89 85 20 f9 ff ff 	mov    %rax,-0x6e0(%rbp)
    a107:	48 8d 85 70 eb ff ff 	lea    -0x1490(%rbp),%rax
    a10e:	48 89 85 28 f9 ff ff 	mov    %rax,-0x6d8(%rbp)
    a115:	48 8d 85 70 eb ff ff 	lea    -0x1490(%rbp),%rax
    a11c:	48 89 85 30 f9 ff ff 	mov    %rax,-0x6d0(%rbp)
    a123:	48 c7 85 38 f9 ff ff 	movq   $0x0,-0x6c8(%rbp)
    a12a:	00 00 00 00 
    a12e:	48 c7 85 40 f9 ff ff 	movq   $0x0,-0x6c0(%rbp)
    a135:	00 00 00 00 
    a139:	48 8d 85 70 eb ff ff 	lea    -0x1490(%rbp),%rax
    a140:	48 89 85 48 f9 ff ff 	mov    %rax,-0x6b8(%rbp)
    a147:	48 c7 85 50 f9 ff ff 	movq   $0x0,-0x6b0(%rbp)
    a14e:	00 00 00 00 
    a152:	48 8d 85 70 eb ff ff 	lea    -0x1490(%rbp),%rax
    a159:	48 89 85 58 f9 ff ff 	mov    %rax,-0x6a8(%rbp)
    a160:	48 c7 85 60 f9 ff ff 	movq   $0x0,-0x6a0(%rbp)
    a167:	00 00 00 00 
    a16b:	48 c7 85 68 f9 ff ff 	movq   $0x0,-0x698(%rbp)
    a172:	00 00 00 00 
    a176:	48 8d 85 70 eb ff ff 	lea    -0x1490(%rbp),%rax
    a17d:	48 89 85 70 f9 ff ff 	mov    %rax,-0x690(%rbp)
    a184:	48 8d 85 70 eb ff ff 	lea    -0x1490(%rbp),%rax
    a18b:	48 89 85 78 f9 ff ff 	mov    %rax,-0x688(%rbp)
    a192:	48 8d 85 70 eb ff ff 	lea    -0x1490(%rbp),%rax
    a199:	48 89 85 80 f9 ff ff 	mov    %rax,-0x680(%rbp)
    a1a0:	48 8d 85 70 eb ff ff 	lea    -0x1490(%rbp),%rax
    a1a7:	48 89 85 88 f9 ff ff 	mov    %rax,-0x678(%rbp)
    a1ae:	48 8d 85 70 eb ff ff 	lea    -0x1490(%rbp),%rax
    a1b5:	48 89 85 90 f9 ff ff 	mov    %rax,-0x670(%rbp)
    a1bc:	48 c7 85 98 f9 ff ff 	movq   $0x0,-0x668(%rbp)
    a1c3:	00 00 00 00 
    a1c7:	48 c7 85 a0 f9 ff ff 	movq   $0x0,-0x660(%rbp)
    a1ce:	00 00 00 00 
    a1d2:	48 8d 85 70 eb ff ff 	lea    -0x1490(%rbp),%rax
    a1d9:	48 89 85 a8 f9 ff ff 	mov    %rax,-0x658(%rbp)
    a1e0:	48 c7 85 b0 f9 ff ff 	movq   $0x0,-0x650(%rbp)
    a1e7:	00 00 00 00 
    a1eb:	48 8d 85 70 eb ff ff 	lea    -0x1490(%rbp),%rax
    a1f2:	48 89 85 b8 f9 ff ff 	mov    %rax,-0x648(%rbp)
    a1f9:	48 c7 85 c0 f9 ff ff 	movq   $0x0,-0x640(%rbp)
    a200:	00 00 00 00 
    a204:	48 c7 85 c8 f9 ff ff 	movq   $0x0,-0x638(%rbp)
    a20b:	00 00 00 00 
    a20f:	48 8d 85 70 eb ff ff 	lea    -0x1490(%rbp),%rax
    a216:	48 89 85 d0 f9 ff ff 	mov    %rax,-0x630(%rbp)
    a21d:	48 8d 85 70 eb ff ff 	lea    -0x1490(%rbp),%rax
    a224:	48 89 85 d8 f9 ff ff 	mov    %rax,-0x628(%rbp)
    a22b:	48 8d 85 70 eb ff ff 	lea    -0x1490(%rbp),%rax
    a232:	48 89 85 e0 f9 ff ff 	mov    %rax,-0x620(%rbp)
    a239:	48 8d 85 70 eb ff ff 	lea    -0x1490(%rbp),%rax
    a240:	48 89 85 e8 f9 ff ff 	mov    %rax,-0x618(%rbp)
    a247:	48 8d 85 70 eb ff ff 	lea    -0x1490(%rbp),%rax
    a24e:	48 89 85 f0 f9 ff ff 	mov    %rax,-0x610(%rbp)
    a255:	48 c7 85 f8 f9 ff ff 	movq   $0x0,-0x608(%rbp)
    a25c:	00 00 00 00 
    a260:	48 c7 85 00 fa ff ff 	movq   $0x0,-0x600(%rbp)
    a267:	00 00 00 00 
    a26b:	48 8d 85 70 eb ff ff 	lea    -0x1490(%rbp),%rax
    a272:	48 89 85 08 fa ff ff 	mov    %rax,-0x5f8(%rbp)
    a279:	48 c7 85 10 fa ff ff 	movq   $0x0,-0x5f0(%rbp)
    a280:	00 00 00 00 
    a284:	48 8d 85 70 eb ff ff 	lea    -0x1490(%rbp),%rax
    a28b:	48 89 85 18 fa ff ff 	mov    %rax,-0x5e8(%rbp)
    a292:	48 c7 85 20 fa ff ff 	movq   $0x0,-0x5e0(%rbp)
    a299:	00 00 00 00 
    a29d:	48 c7 85 28 fa ff ff 	movq   $0x0,-0x5d8(%rbp)
    a2a4:	00 00 00 00 
    a2a8:	48 8d 85 70 eb ff ff 	lea    -0x1490(%rbp),%rax
    a2af:	48 89 85 30 fa ff ff 	mov    %rax,-0x5d0(%rbp)
    a2b6:	48 8d 85 70 eb ff ff 	lea    -0x1490(%rbp),%rax
    a2bd:	48 89 85 38 fa ff ff 	mov    %rax,-0x5c8(%rbp)
    a2c4:	48 8d 85 70 eb ff ff 	lea    -0x1490(%rbp),%rax
    a2cb:	48 89 85 40 fa ff ff 	mov    %rax,-0x5c0(%rbp)
    a2d2:	48 8d 85 70 eb ff ff 	lea    -0x1490(%rbp),%rax
    a2d9:	48 89 85 48 fa ff ff 	mov    %rax,-0x5b8(%rbp)
    a2e0:	48 8d 85 70 eb ff ff 	lea    -0x1490(%rbp),%rax
    a2e7:	48 89 85 50 fa ff ff 	mov    %rax,-0x5b0(%rbp)
    a2ee:	48 8d 85 70 eb ff ff 	lea    -0x1490(%rbp),%rax
    a2f5:	48 89 85 58 fa ff ff 	mov    %rax,-0x5a8(%rbp)
    a2fc:	48 c7 85 60 fa ff ff 	movq   $0x0,-0x5a0(%rbp)
    a303:	00 00 00 00 
    a307:	48 8d 85 70 eb ff ff 	lea    -0x1490(%rbp),%rax
    a30e:	48 89 85 68 fa ff ff 	mov    %rax,-0x598(%rbp)
    a315:	48 8d 05 60 ad 00 00 	lea    0xad60(%rip),%rax        # 1507c <g_10+0x3c>
    a31c:	48 89 85 28 e8 ff ff 	mov    %rax,-0x17d8(%rbp)
    a323:	48 8b 95 60 e9 ff ff 	mov    -0x16a0(%rbp),%rdx
    a32a:	48 8b 85 40 ea ff ff 	mov    -0x15c0(%rbp),%rax
    a331:	48 89 10             	mov    %rdx,(%rax)
    a334:	48 8b 85 40 ea ff ff 	mov    -0x15c0(%rbp),%rax
    a33b:	48 8b 00             	mov    (%rax),%rax
    a33e:	48 8d 15 37 ad 00 00 	lea    0xad37(%rip),%rdx        # 1507c <g_10+0x3c>
    a345:	48 39 d0             	cmp    %rdx,%rax
    a348:	0f 94 c0             	sete   %al
    a34b:	0f b6 d0             	movzbl %al,%edx
    a34e:	48 8b 85 70 eb ff ff 	mov    -0x1490(%rbp),%rax
    a355:	f7 d2                	not    %edx
    a357:	89 10                	mov    %edx,(%rax)
    a359:	e9 fc 19 00 00       	jmpq   bd5a <func_53+0x2024>
    a35e:	66 c7 85 e0 eb ff ff 	movw   $0x9199,-0x1420(%rbp)
    a365:	99 91 
    a367:	66 c7 85 e2 eb ff ff 	movw   $0xffff,-0x141e(%rbp)
    a36e:	ff ff 
    a370:	66 c7 85 e4 eb ff ff 	movw   $0x9199,-0x141c(%rbp)
    a377:	99 91 
    a379:	66 c7 85 e6 eb ff ff 	movw   $0xfffc,-0x141a(%rbp)
    a380:	fc ff 
    a382:	66 c7 85 e8 eb ff ff 	movw   $0x76e8,-0x1418(%rbp)
    a389:	e8 76 
    a38b:	66 c7 85 ea eb ff ff 	movw   $0xfffc,-0x1416(%rbp)
    a392:	fc ff 
    a394:	66 c7 85 ec eb ff ff 	movw   $0x9199,-0x1414(%rbp)
    a39b:	99 91 
    a39d:	66 c7 85 ee eb ff ff 	movw   $0xffff,-0x1412(%rbp)
    a3a4:	ff ff 
    a3a6:	66 c7 85 f0 eb ff ff 	movw   $0x9199,-0x1410(%rbp)
    a3ad:	99 91 
    a3af:	66 c7 85 f2 eb ff ff 	movw   $0xfffc,-0x140e(%rbp)
    a3b6:	fc ff 
    a3b8:	66 c7 85 f4 eb ff ff 	movw   $0x76e8,-0x140c(%rbp)
    a3bf:	e8 76 
    a3c1:	66 c7 85 f6 eb ff ff 	movw   $0xfffc,-0x140a(%rbp)
    a3c8:	fc ff 
    a3ca:	c7 85 00 ec ff ff 0a 	movl   $0x3133dc0a,-0x1400(%rbp)
    a3d1:	dc 33 31 
    a3d4:	c7 85 04 ec ff ff 0a 	movl   $0x3133dc0a,-0x13fc(%rbp)
    a3db:	dc 33 31 
    a3de:	c7 85 08 ec ff ff 0a 	movl   $0x3133dc0a,-0x13f8(%rbp)
    a3e5:	dc 33 31 
    a3e8:	c7 85 0c ec ff ff 0a 	movl   $0x3133dc0a,-0x13f4(%rbp)
    a3ef:	dc 33 31 
    a3f2:	c7 85 10 ec ff ff 0a 	movl   $0x3133dc0a,-0x13f0(%rbp)
    a3f9:	dc 33 31 
    a3fc:	c7 85 14 ec ff ff 0a 	movl   $0x3133dc0a,-0x13ec(%rbp)
    a403:	dc 33 31 
    a406:	c6 85 58 e9 ff ff 8c 	movb   $0x8c,-0x16a8(%rbp)
    a40d:	48 8d 05 f4 d6 00 00 	lea    0xd6f4(%rip),%rax        # 17b08 <g_175>
    a414:	48 89 85 88 e9 ff ff 	mov    %rax,-0x1678(%rbp)
    a41b:	48 8d 05 6e b0 00 00 	lea    0xb06e(%rip),%rax        # 15490 <g_71>
    a422:	48 89 85 60 e9 ff ff 	mov    %rax,-0x16a0(%rbp)
    a429:	48 b8 3d 81 42 eb db 	movabs $0xf314bedbeb42813d,%rax
    a430:	be 14 f3 
    a433:	48 89 85 90 e9 ff ff 	mov    %rax,-0x1670(%rbp)
    a43a:	48 8d 85 c0 ec ff ff 	lea    -0x1340(%rbp),%rax
    a441:	48 8d 15 b8 c8 00 00 	lea    0xc8b8(%rip),%rdx        # 16d00 <g_2787+0x4f0>
    a448:	b9 28 00 00 00       	mov    $0x28,%ecx
    a44d:	48 89 c7             	mov    %rax,%rdi
    a450:	48 89 d6             	mov    %rdx,%rsi
    a453:	f3 48 a5             	rep movsq %ds:(%rsi),%es:(%rdi)
    a456:	8b 05 14 b0 00 00    	mov    0xb014(%rip),%eax        # 15470 <g_57>
    a45c:	25 ff ff ff 0f       	and    $0xfffffff,%eax
    a461:	85 c0                	test   %eax,%eax
    a463:	0f 84 ae 14 00 00    	je     b917 <func_53+0x1be1>
    a469:	48 c7 85 68 e9 ff ff 	movq   $0x0,-0x1698(%rbp)
    a470:	00 00 00 00 
    a474:	c7 85 98 e8 ff ff 11 	movl   $0xb5fd3911,-0x1768(%rbp)
    a47b:	39 fd b5 
    a47e:	48 c7 85 70 eb ff ff 	movq   $0x0,-0x1490(%rbp)
    a485:	00 00 00 00 
    a489:	48 8d 85 70 eb ff ff 	lea    -0x1490(%rbp),%rax
    a490:	48 89 85 20 ec ff ff 	mov    %rax,-0x13e0(%rbp)
    a497:	48 c7 85 28 ec ff ff 	movq   $0x0,-0x13d8(%rbp)
    a49e:	00 00 00 00 
    a4a2:	48 8d 85 70 eb ff ff 	lea    -0x1490(%rbp),%rax
    a4a9:	48 89 85 30 ec ff ff 	mov    %rax,-0x13d0(%rbp)
    a4b0:	48 c7 85 38 ec ff ff 	movq   $0x0,-0x13c8(%rbp)
    a4b7:	00 00 00 00 
    a4bb:	48 8d 85 70 eb ff ff 	lea    -0x1490(%rbp),%rax
    a4c2:	48 89 85 40 ec ff ff 	mov    %rax,-0x13c0(%rbp)
    a4c9:	48 c7 85 48 ec ff ff 	movq   $0x0,-0x13b8(%rbp)
    a4d0:	00 00 00 00 
    a4d4:	48 8d 85 70 eb ff ff 	lea    -0x1490(%rbp),%rax
    a4db:	48 89 85 50 ec ff ff 	mov    %rax,-0x13b0(%rbp)
    a4e2:	48 c7 85 58 ec ff ff 	movq   $0x0,-0x13a8(%rbp)
    a4e9:	00 00 00 00 
    a4ed:	48 8d 85 70 eb ff ff 	lea    -0x1490(%rbp),%rax
    a4f4:	48 89 85 60 ec ff ff 	mov    %rax,-0x13a0(%rbp)
    a4fb:	48 8d 05 0e d6 00 00 	lea    0xd60e(%rip),%rax        # 17b10 <g_174>
    a502:	48 89 85 f0 e9 ff ff 	mov    %rax,-0x1610(%rbp)
    a509:	48 8d 85 00 ee ff ff 	lea    -0x1200(%rbp),%rax
    a510:	48 83 c0 08          	add    $0x8,%rax
    a514:	48 89 85 f8 e9 ff ff 	mov    %rax,-0x1608(%rbp)
    a51b:	c7 85 ac e8 ff ff 00 	movl   $0x0,-0x1754(%rbp)
    a522:	00 00 00 
    a525:	eb 54                	jmp    a57b <func_53+0x845>
    a527:	c7 85 b0 e8 ff ff 00 	movl   $0x0,-0x1750(%rbp)
    a52e:	00 00 00 
    a531:	eb 38                	jmp    a56b <func_53+0x835>
    a533:	8b 85 b0 e8 ff ff    	mov    -0x1750(%rbp),%eax
    a539:	48 63 c8             	movslq %eax,%rcx
    a53c:	8b 85 ac e8 ff ff    	mov    -0x1754(%rbp),%eax
    a542:	48 63 d0             	movslq %eax,%rdx
    a545:	48 89 d0             	mov    %rdx,%rax
    a548:	48 c1 e0 02          	shl    $0x2,%rax
    a54c:	48 01 d0             	add    %rdx,%rax
    a54f:	48 01 c0             	add    %rax,%rax
    a552:	48 01 c8             	add    %rcx,%rax
    a555:	48 8d 15 ec f2 00 00 	lea    0xf2ec(%rip),%rdx        # 19848 <g_82>
    a55c:	48 89 94 c5 00 ee ff 	mov    %rdx,-0x1200(%rbp,%rax,8)
    a563:	ff 
    a564:	83 85 b0 e8 ff ff 01 	addl   $0x1,-0x1750(%rbp)
    a56b:	83 bd b0 e8 ff ff 09 	cmpl   $0x9,-0x1750(%rbp)
    a572:	7e bf                	jle    a533 <func_53+0x7fd>
    a574:	83 85 ac e8 ff ff 01 	addl   $0x1,-0x1754(%rbp)
    a57b:	83 bd ac e8 ff ff 03 	cmpl   $0x3,-0x1754(%rbp)
    a582:	7e a3                	jle    a527 <func_53+0x7f1>
    a584:	48 8b 05 75 d3 00 00 	mov    0xd375(%rip),%rax        # 17900 <g_81>
    a58b:	48 8d 15 be aa 00 00 	lea    0xaabe(%rip),%rdx        # 15050 <g_10+0x10>
    a592:	48 89 10             	mov    %rdx,(%rax)
    a595:	c7 05 01 ae 00 00 00 	movl   $0x0,0xae01(%rip)        # 153a0 <g_21>
    a59c:	00 00 00 
    a59f:	90                   	nop
    a5a0:	8b 05 fa ad 00 00    	mov    0xadfa(%rip),%eax        # 153a0 <g_21>
    a5a6:	83 f8 0e             	cmp    $0xe,%eax
    a5a9:	0f 87 b3 12 00 00    	ja     b862 <func_53+0x1b2c>
    a5af:	48 8d 85 40 ef ff ff 	lea    -0x10c0(%rbp),%rax
    a5b6:	48 8d 15 83 c8 00 00 	lea    0xc883(%rip),%rdx        # 16e40 <g_2787+0x630>
    a5bd:	b9 3c 00 00 00       	mov    $0x3c,%ecx
    a5c2:	48 89 c7             	mov    %rax,%rdi
    a5c5:	48 89 d6             	mov    %rdx,%rsi
    a5c8:	f3 48 a5             	rep movsq %ds:(%rsi),%es:(%rdi)
    a5cb:	48 8d 85 e0 eb ff ff 	lea    -0x1420(%rbp),%rax
    a5d2:	48 83 c0 04          	add    $0x4,%rax
    a5d6:	48 89 85 30 f8 ff ff 	mov    %rax,-0x7d0(%rbp)
    a5dd:	48 c7 85 38 f8 ff ff 	movq   $0x0,-0x7c8(%rbp)
    a5e4:	00 00 00 00 
    a5e8:	48 8d 85 e0 eb ff ff 	lea    -0x1420(%rbp),%rax
    a5ef:	48 83 c0 08          	add    $0x8,%rax
    a5f3:	48 89 85 40 f8 ff ff 	mov    %rax,-0x7c0(%rbp)
    a5fa:	48 8d 85 e0 eb ff ff 	lea    -0x1420(%rbp),%rax
    a601:	48 83 c0 0a          	add    $0xa,%rax
    a605:	48 89 85 48 f8 ff ff 	mov    %rax,-0x7b8(%rbp)
    a60c:	48 8d 85 e0 eb ff ff 	lea    -0x1420(%rbp),%rax
    a613:	48 83 c0 08          	add    $0x8,%rax
    a617:	48 89 85 50 f8 ff ff 	mov    %rax,-0x7b0(%rbp)
    a61e:	48 c7 85 58 f8 ff ff 	movq   $0x0,-0x7a8(%rbp)
    a625:	00 00 00 00 
    a629:	48 8d 85 e0 eb ff ff 	lea    -0x1420(%rbp),%rax
    a630:	48 83 c0 12          	add    $0x12,%rax
    a634:	48 89 85 60 f8 ff ff 	mov    %rax,-0x7a0(%rbp)
    a63b:	48 c7 85 68 f8 ff ff 	movq   $0x0,-0x798(%rbp)
    a642:	00 00 00 00 
    a646:	48 c7 85 70 f8 ff ff 	movq   $0x0,-0x790(%rbp)
    a64d:	00 00 00 00 
    a651:	48 8d 85 e0 eb ff ff 	lea    -0x1420(%rbp),%rax
    a658:	48 83 c0 0a          	add    $0xa,%rax
    a65c:	48 89 85 78 f8 ff ff 	mov    %rax,-0x788(%rbp)
    a663:	48 c7 85 80 f8 ff ff 	movq   $0x0,-0x780(%rbp)
    a66a:	00 00 00 00 
    a66e:	48 8d 85 e0 eb ff ff 	lea    -0x1420(%rbp),%rax
    a675:	48 83 c0 08          	add    $0x8,%rax
    a679:	48 89 85 88 f8 ff ff 	mov    %rax,-0x778(%rbp)
    a680:	48 8d 85 e0 eb ff ff 	lea    -0x1420(%rbp),%rax
    a687:	48 83 c0 04          	add    $0x4,%rax
    a68b:	48 89 85 90 f8 ff ff 	mov    %rax,-0x770(%rbp)
    a692:	48 8d 85 e0 eb ff ff 	lea    -0x1420(%rbp),%rax
    a699:	48 83 c0 08          	add    $0x8,%rax
    a69d:	48 89 85 98 f8 ff ff 	mov    %rax,-0x768(%rbp)
    a6a4:	48 c7 85 a0 f8 ff ff 	movq   $0x0,-0x760(%rbp)
    a6ab:	00 00 00 00 
    a6af:	48 8d 85 e0 eb ff ff 	lea    -0x1420(%rbp),%rax
    a6b6:	48 83 c0 12          	add    $0x12,%rax
    a6ba:	48 89 85 a8 f8 ff ff 	mov    %rax,-0x758(%rbp)
    a6c1:	48 c7 85 b0 f8 ff ff 	movq   $0x0,-0x750(%rbp)
    a6c8:	00 00 00 00 
    a6cc:	48 c7 85 b8 f8 ff ff 	movq   $0x0,-0x748(%rbp)
    a6d3:	00 00 00 00 
    a6d7:	48 8d 85 e0 eb ff ff 	lea    -0x1420(%rbp),%rax
    a6de:	48 83 c0 14          	add    $0x14,%rax
    a6e2:	48 89 85 c0 f8 ff ff 	mov    %rax,-0x740(%rbp)
    a6e9:	48 8d 85 e0 eb ff ff 	lea    -0x1420(%rbp),%rax
    a6f0:	48 83 c0 08          	add    $0x8,%rax
    a6f4:	48 89 85 c8 f8 ff ff 	mov    %rax,-0x738(%rbp)
    a6fb:	48 8d 85 e0 eb ff ff 	lea    -0x1420(%rbp),%rax
    a702:	48 83 c0 08          	add    $0x8,%rax
    a706:	48 89 85 d0 f8 ff ff 	mov    %rax,-0x730(%rbp)
    a70d:	48 8d 85 e0 eb ff ff 	lea    -0x1420(%rbp),%rax
    a714:	48 83 c0 14          	add    $0x14,%rax
    a718:	48 89 85 d8 f8 ff ff 	mov    %rax,-0x728(%rbp)
    a71f:	48 c7 85 e0 f8 ff ff 	movq   $0x0,-0x720(%rbp)
    a726:	00 00 00 00 
    a72a:	48 8d 85 e0 eb ff ff 	lea    -0x1420(%rbp),%rax
    a731:	48 83 c0 14          	add    $0x14,%rax
    a735:	48 89 85 e8 f8 ff ff 	mov    %rax,-0x718(%rbp)
    a73c:	48 8d 85 e0 eb ff ff 	lea    -0x1420(%rbp),%rax
    a743:	48 83 c0 14          	add    $0x14,%rax
    a747:	48 89 85 f0 f8 ff ff 	mov    %rax,-0x710(%rbp)
    a74e:	48 c7 85 f8 f8 ff ff 	movq   $0x0,-0x708(%rbp)
    a755:	00 00 00 00 
    a759:	48 8d 85 e0 eb ff ff 	lea    -0x1420(%rbp),%rax
    a760:	48 83 c0 14          	add    $0x14,%rax
    a764:	48 89 85 00 f9 ff ff 	mov    %rax,-0x700(%rbp)
    a76b:	48 8d 85 e0 eb ff ff 	lea    -0x1420(%rbp),%rax
    a772:	48 83 c0 12          	add    $0x12,%rax
    a776:	48 89 85 08 f9 ff ff 	mov    %rax,-0x6f8(%rbp)
    a77d:	48 8d 85 e0 eb ff ff 	lea    -0x1420(%rbp),%rax
    a784:	48 83 c0 08          	add    $0x8,%rax
    a788:	48 89 85 10 f9 ff ff 	mov    %rax,-0x6f0(%rbp)
    a78f:	48 8d 85 e0 eb ff ff 	lea    -0x1420(%rbp),%rax
    a796:	48 83 c0 14          	add    $0x14,%rax
    a79a:	48 89 85 18 f9 ff ff 	mov    %rax,-0x6e8(%rbp)
    a7a1:	48 8d 85 e0 eb ff ff 	lea    -0x1420(%rbp),%rax
    a7a8:	48 83 c0 04          	add    $0x4,%rax
    a7ac:	48 89 85 20 f9 ff ff 	mov    %rax,-0x6e0(%rbp)
    a7b3:	48 c7 85 28 f9 ff ff 	movq   $0x0,-0x6d8(%rbp)
    a7ba:	00 00 00 00 
    a7be:	48 8d 85 e0 eb ff ff 	lea    -0x1420(%rbp),%rax
    a7c5:	48 83 c0 08          	add    $0x8,%rax
    a7c9:	48 89 85 30 f9 ff ff 	mov    %rax,-0x6d0(%rbp)
    a7d0:	48 8d 85 e0 eb ff ff 	lea    -0x1420(%rbp),%rax
    a7d7:	48 83 c0 0a          	add    $0xa,%rax
    a7db:	48 89 85 38 f9 ff ff 	mov    %rax,-0x6c8(%rbp)
    a7e2:	48 8d 85 e0 eb ff ff 	lea    -0x1420(%rbp),%rax
    a7e9:	48 83 c0 08          	add    $0x8,%rax
    a7ed:	48 89 85 40 f9 ff ff 	mov    %rax,-0x6c0(%rbp)
    a7f4:	48 c7 85 48 f9 ff ff 	movq   $0x0,-0x6b8(%rbp)
    a7fb:	00 00 00 00 
    a7ff:	48 8d 85 e0 eb ff ff 	lea    -0x1420(%rbp),%rax
    a806:	48 83 c0 12          	add    $0x12,%rax
    a80a:	48 89 85 50 f9 ff ff 	mov    %rax,-0x6b0(%rbp)
    a811:	48 c7 85 58 f9 ff ff 	movq   $0x0,-0x6a8(%rbp)
    a818:	00 00 00 00 
    a81c:	48 c7 85 60 f9 ff ff 	movq   $0x0,-0x6a0(%rbp)
    a823:	00 00 00 00 
    a827:	48 8d 85 e0 eb ff ff 	lea    -0x1420(%rbp),%rax
    a82e:	48 83 c0 0a          	add    $0xa,%rax
    a832:	48 89 85 68 f9 ff ff 	mov    %rax,-0x698(%rbp)
    a839:	48 c7 85 70 f9 ff ff 	movq   $0x0,-0x690(%rbp)
    a840:	00 00 00 00 
    a844:	48 8d 85 e0 eb ff ff 	lea    -0x1420(%rbp),%rax
    a84b:	48 83 c0 08          	add    $0x8,%rax
    a84f:	48 89 85 78 f9 ff ff 	mov    %rax,-0x688(%rbp)
    a856:	48 8d 85 e0 eb ff ff 	lea    -0x1420(%rbp),%rax
    a85d:	48 83 c0 04          	add    $0x4,%rax
    a861:	48 89 85 80 f9 ff ff 	mov    %rax,-0x680(%rbp)
    a868:	48 8d 85 e0 eb ff ff 	lea    -0x1420(%rbp),%rax
    a86f:	48 83 c0 08          	add    $0x8,%rax
    a873:	48 89 85 88 f9 ff ff 	mov    %rax,-0x678(%rbp)
    a87a:	48 c7 85 90 f9 ff ff 	movq   $0x0,-0x670(%rbp)
    a881:	00 00 00 00 
    a885:	48 8d 85 e0 eb ff ff 	lea    -0x1420(%rbp),%rax
    a88c:	48 83 c0 12          	add    $0x12,%rax
    a890:	48 89 85 98 f9 ff ff 	mov    %rax,-0x668(%rbp)
    a897:	48 c7 85 a0 f9 ff ff 	movq   $0x0,-0x660(%rbp)
    a89e:	00 00 00 00 
    a8a2:	48 c7 85 a8 f9 ff ff 	movq   $0x0,-0x658(%rbp)
    a8a9:	00 00 00 00 
    a8ad:	48 8d 85 e0 eb ff ff 	lea    -0x1420(%rbp),%rax
    a8b4:	48 83 c0 14          	add    $0x14,%rax
    a8b8:	48 89 85 b0 f9 ff ff 	mov    %rax,-0x650(%rbp)
    a8bf:	48 8d 85 e0 eb ff ff 	lea    -0x1420(%rbp),%rax
    a8c6:	48 83 c0 08          	add    $0x8,%rax
    a8ca:	48 89 85 b8 f9 ff ff 	mov    %rax,-0x648(%rbp)
    a8d1:	48 8d 85 e0 eb ff ff 	lea    -0x1420(%rbp),%rax
    a8d8:	48 83 c0 08          	add    $0x8,%rax
    a8dc:	48 89 85 c0 f9 ff ff 	mov    %rax,-0x640(%rbp)
    a8e3:	48 c7 85 c8 f9 ff ff 	movq   $0x0,-0x638(%rbp)
    a8ea:	00 00 00 00 
    a8ee:	48 8d 05 3d ab 00 00 	lea    0xab3d(%rip),%rax        # 15432 <g_29+0x72>
    a8f5:	48 89 85 d0 f9 ff ff 	mov    %rax,-0x630(%rbp)
    a8fc:	48 8d 05 2f ab 00 00 	lea    0xab2f(%rip),%rax        # 15432 <g_29+0x72>
    a903:	48 89 85 d8 f9 ff ff 	mov    %rax,-0x628(%rbp)
    a90a:	48 c7 85 e0 f9 ff ff 	movq   $0x0,-0x620(%rbp)
    a911:	00 00 00 00 
    a915:	48 8d 05 16 ab 00 00 	lea    0xab16(%rip),%rax        # 15432 <g_29+0x72>
    a91c:	48 89 85 e8 f9 ff ff 	mov    %rax,-0x618(%rbp)
    a923:	48 8d 05 08 ab 00 00 	lea    0xab08(%rip),%rax        # 15432 <g_29+0x72>
    a92a:	48 89 85 f0 f9 ff ff 	mov    %rax,-0x610(%rbp)
    a931:	48 8d 85 e0 eb ff ff 	lea    -0x1420(%rbp),%rax
    a938:	48 83 c0 14          	add    $0x14,%rax
    a93c:	48 89 85 f8 f9 ff ff 	mov    %rax,-0x608(%rbp)
    a943:	48 8d 85 e0 eb ff ff 	lea    -0x1420(%rbp),%rax
    a94a:	48 83 c0 04          	add    $0x4,%rax
    a94e:	48 89 85 00 fa ff ff 	mov    %rax,-0x600(%rbp)
    a955:	48 8d 05 d6 aa 00 00 	lea    0xaad6(%rip),%rax        # 15432 <g_29+0x72>
    a95c:	48 89 85 08 fa ff ff 	mov    %rax,-0x5f8(%rbp)
    a963:	48 8d 85 e0 eb ff ff 	lea    -0x1420(%rbp),%rax
    a96a:	48 83 c0 08          	add    $0x8,%rax
    a96e:	48 89 85 10 fa ff ff 	mov    %rax,-0x5f0(%rbp)
    a975:	48 8d 85 e0 eb ff ff 	lea    -0x1420(%rbp),%rax
    a97c:	48 83 c0 08          	add    $0x8,%rax
    a980:	48 89 85 18 fa ff ff 	mov    %rax,-0x5e8(%rbp)
    a987:	48 8d 85 e0 eb ff ff 	lea    -0x1420(%rbp),%rax
    a98e:	48 83 c0 04          	add    $0x4,%rax
    a992:	48 89 85 20 fa ff ff 	mov    %rax,-0x5e0(%rbp)
    a999:	48 c7 85 28 fa ff ff 	movq   $0x0,-0x5d8(%rbp)
    a9a0:	00 00 00 00 
    a9a4:	48 8d 85 e0 eb ff ff 	lea    -0x1420(%rbp),%rax
    a9ab:	48 83 c0 04          	add    $0x4,%rax
    a9af:	48 89 85 30 fa ff ff 	mov    %rax,-0x5d0(%rbp)
    a9b6:	48 8d 85 e0 eb ff ff 	lea    -0x1420(%rbp),%rax
    a9bd:	48 83 c0 08          	add    $0x8,%rax
    a9c1:	48 89 85 38 fa ff ff 	mov    %rax,-0x5c8(%rbp)
    a9c8:	48 8d 85 e0 eb ff ff 	lea    -0x1420(%rbp),%rax
    a9cf:	48 83 c0 14          	add    $0x14,%rax
    a9d3:	48 89 85 40 fa ff ff 	mov    %rax,-0x5c0(%rbp)
    a9da:	48 8d 05 51 aa 00 00 	lea    0xaa51(%rip),%rax        # 15432 <g_29+0x72>
    a9e1:	48 89 85 48 fa ff ff 	mov    %rax,-0x5b8(%rbp)
    a9e8:	48 8d 85 e0 eb ff ff 	lea    -0x1420(%rbp),%rax
    a9ef:	48 83 c0 14          	add    $0x14,%rax
    a9f3:	48 89 85 50 fa ff ff 	mov    %rax,-0x5b0(%rbp)
    a9fa:	48 c7 85 58 fa ff ff 	movq   $0x0,-0x5a8(%rbp)
    aa01:	00 00 00 00 
    aa05:	48 8d 05 26 aa 00 00 	lea    0xaa26(%rip),%rax        # 15432 <g_29+0x72>
    aa0c:	48 89 85 60 fa ff ff 	mov    %rax,-0x5a0(%rbp)
    aa13:	48 8d 85 e0 eb ff ff 	lea    -0x1420(%rbp),%rax
    aa1a:	48 83 c0 04          	add    $0x4,%rax
    aa1e:	48 89 85 68 fa ff ff 	mov    %rax,-0x598(%rbp)
    aa25:	48 8d 85 e0 eb ff ff 	lea    -0x1420(%rbp),%rax
    aa2c:	48 83 c0 08          	add    $0x8,%rax
    aa30:	48 89 85 70 fa ff ff 	mov    %rax,-0x590(%rbp)
    aa37:	48 8d 85 e0 eb ff ff 	lea    -0x1420(%rbp),%rax
    aa3e:	48 83 c0 04          	add    $0x4,%rax
    aa42:	48 89 85 78 fa ff ff 	mov    %rax,-0x588(%rbp)
    aa49:	48 8d 85 e0 eb ff ff 	lea    -0x1420(%rbp),%rax
    aa50:	48 83 c0 14          	add    $0x14,%rax
    aa54:	48 89 85 80 fa ff ff 	mov    %rax,-0x580(%rbp)
    aa5b:	48 8d 85 e0 eb ff ff 	lea    -0x1420(%rbp),%rax
    aa62:	48 83 c0 14          	add    $0x14,%rax
    aa66:	48 89 85 88 fa ff ff 	mov    %rax,-0x578(%rbp)
    aa6d:	48 8d 85 e0 eb ff ff 	lea    -0x1420(%rbp),%rax
    aa74:	48 83 c0 08          	add    $0x8,%rax
    aa78:	48 89 85 90 fa ff ff 	mov    %rax,-0x570(%rbp)
    aa7f:	48 8d 85 e0 eb ff ff 	lea    -0x1420(%rbp),%rax
    aa86:	48 83 c0 08          	add    $0x8,%rax
    aa8a:	48 89 85 98 fa ff ff 	mov    %rax,-0x568(%rbp)
    aa91:	48 c7 85 a0 fa ff ff 	movq   $0x0,-0x560(%rbp)
    aa98:	00 00 00 00 
    aa9c:	48 8d 85 e0 eb ff ff 	lea    -0x1420(%rbp),%rax
    aaa3:	48 83 c0 04          	add    $0x4,%rax
    aaa7:	48 89 85 a8 fa ff ff 	mov    %rax,-0x558(%rbp)
    aaae:	48 8d 85 e0 eb ff ff 	lea    -0x1420(%rbp),%rax
    aab5:	48 83 c0 04          	add    $0x4,%rax
    aab9:	48 89 85 b0 fa ff ff 	mov    %rax,-0x550(%rbp)
    aac0:	48 c7 85 b8 fa ff ff 	movq   $0x0,-0x548(%rbp)
    aac7:	00 00 00 00 
    aacb:	48 8d 05 60 a9 00 00 	lea    0xa960(%rip),%rax        # 15432 <g_29+0x72>
    aad2:	48 89 85 c0 fa ff ff 	mov    %rax,-0x540(%rbp)
    aad9:	48 8d 05 52 a9 00 00 	lea    0xa952(%rip),%rax        # 15432 <g_29+0x72>
    aae0:	48 89 85 c8 fa ff ff 	mov    %rax,-0x538(%rbp)
    aae7:	48 c7 85 d0 fa ff ff 	movq   $0x0,-0x530(%rbp)
    aaee:	00 00 00 00 
    aaf2:	48 8d 05 39 a9 00 00 	lea    0xa939(%rip),%rax        # 15432 <g_29+0x72>
    aaf9:	48 89 85 d8 fa ff ff 	mov    %rax,-0x528(%rbp)
    ab00:	48 8d 05 2b a9 00 00 	lea    0xa92b(%rip),%rax        # 15432 <g_29+0x72>
    ab07:	48 89 85 e0 fa ff ff 	mov    %rax,-0x520(%rbp)
    ab0e:	48 8d 85 e0 eb ff ff 	lea    -0x1420(%rbp),%rax
    ab15:	48 83 c0 14          	add    $0x14,%rax
    ab19:	48 89 85 e8 fa ff ff 	mov    %rax,-0x518(%rbp)
    ab20:	48 8d 85 e0 eb ff ff 	lea    -0x1420(%rbp),%rax
    ab27:	48 83 c0 04          	add    $0x4,%rax
    ab2b:	48 89 85 f0 fa ff ff 	mov    %rax,-0x510(%rbp)
    ab32:	48 8d 05 f9 a8 00 00 	lea    0xa8f9(%rip),%rax        # 15432 <g_29+0x72>
    ab39:	48 89 85 f8 fa ff ff 	mov    %rax,-0x508(%rbp)
    ab40:	48 8d 85 e0 eb ff ff 	lea    -0x1420(%rbp),%rax
    ab47:	48 83 c0 08          	add    $0x8,%rax
    ab4b:	48 89 85 00 fb ff ff 	mov    %rax,-0x500(%rbp)
    ab52:	48 8d 85 e0 eb ff ff 	lea    -0x1420(%rbp),%rax
    ab59:	48 83 c0 08          	add    $0x8,%rax
    ab5d:	48 89 85 08 fb ff ff 	mov    %rax,-0x4f8(%rbp)
    ab64:	48 8d 85 e0 eb ff ff 	lea    -0x1420(%rbp),%rax
    ab6b:	48 83 c0 04          	add    $0x4,%rax
    ab6f:	48 89 85 10 fb ff ff 	mov    %rax,-0x4f0(%rbp)
    ab76:	48 c7 85 18 fb ff ff 	movq   $0x0,-0x4e8(%rbp)
    ab7d:	00 00 00 00 
    ab81:	48 8d 85 e0 eb ff ff 	lea    -0x1420(%rbp),%rax
    ab88:	48 83 c0 04          	add    $0x4,%rax
    ab8c:	48 89 85 20 fb ff ff 	mov    %rax,-0x4e0(%rbp)
    ab93:	48 8d 85 e0 eb ff ff 	lea    -0x1420(%rbp),%rax
    ab9a:	48 83 c0 08          	add    $0x8,%rax
    ab9e:	48 89 85 28 fb ff ff 	mov    %rax,-0x4d8(%rbp)
    aba5:	48 8d 85 e0 eb ff ff 	lea    -0x1420(%rbp),%rax
    abac:	48 83 c0 14          	add    $0x14,%rax
    abb0:	48 89 85 30 fb ff ff 	mov    %rax,-0x4d0(%rbp)
    abb7:	48 8d 05 74 a8 00 00 	lea    0xa874(%rip),%rax        # 15432 <g_29+0x72>
    abbe:	48 89 85 38 fb ff ff 	mov    %rax,-0x4c8(%rbp)
    abc5:	48 8d 85 e0 eb ff ff 	lea    -0x1420(%rbp),%rax
    abcc:	48 83 c0 14          	add    $0x14,%rax
    abd0:	48 89 85 40 fb ff ff 	mov    %rax,-0x4c0(%rbp)
    abd7:	48 c7 85 48 fb ff ff 	movq   $0x0,-0x4b8(%rbp)
    abde:	00 00 00 00 
    abe2:	48 8d 05 49 a8 00 00 	lea    0xa849(%rip),%rax        # 15432 <g_29+0x72>
    abe9:	48 89 85 50 fb ff ff 	mov    %rax,-0x4b0(%rbp)
    abf0:	48 8d 85 e0 eb ff ff 	lea    -0x1420(%rbp),%rax
    abf7:	48 83 c0 04          	add    $0x4,%rax
    abfb:	48 89 85 58 fb ff ff 	mov    %rax,-0x4a8(%rbp)
    ac02:	48 8d 85 e0 eb ff ff 	lea    -0x1420(%rbp),%rax
    ac09:	48 83 c0 08          	add    $0x8,%rax
    ac0d:	48 89 85 60 fb ff ff 	mov    %rax,-0x4a0(%rbp)
    ac14:	48 8d 85 e0 eb ff ff 	lea    -0x1420(%rbp),%rax
    ac1b:	48 83 c0 04          	add    $0x4,%rax
    ac1f:	48 89 85 68 fb ff ff 	mov    %rax,-0x498(%rbp)
    ac26:	48 8d 85 e0 eb ff ff 	lea    -0x1420(%rbp),%rax
    ac2d:	48 83 c0 14          	add    $0x14,%rax
    ac31:	48 89 85 70 fb ff ff 	mov    %rax,-0x490(%rbp)
    ac38:	48 8d 85 e0 eb ff ff 	lea    -0x1420(%rbp),%rax
    ac3f:	48 83 c0 14          	add    $0x14,%rax
    ac43:	48 89 85 78 fb ff ff 	mov    %rax,-0x488(%rbp)
    ac4a:	48 8d 85 e0 eb ff ff 	lea    -0x1420(%rbp),%rax
    ac51:	48 83 c0 08          	add    $0x8,%rax
    ac55:	48 89 85 80 fb ff ff 	mov    %rax,-0x480(%rbp)
    ac5c:	48 8d 85 e0 eb ff ff 	lea    -0x1420(%rbp),%rax
    ac63:	48 83 c0 08          	add    $0x8,%rax
    ac67:	48 89 85 88 fb ff ff 	mov    %rax,-0x478(%rbp)
    ac6e:	48 c7 85 90 fb ff ff 	movq   $0x0,-0x470(%rbp)
    ac75:	00 00 00 00 
    ac79:	48 8d 85 e0 eb ff ff 	lea    -0x1420(%rbp),%rax
    ac80:	48 83 c0 04          	add    $0x4,%rax
    ac84:	48 89 85 98 fb ff ff 	mov    %rax,-0x468(%rbp)
    ac8b:	48 8d 85 e0 eb ff ff 	lea    -0x1420(%rbp),%rax
    ac92:	48 83 c0 04          	add    $0x4,%rax
    ac96:	48 89 85 a0 fb ff ff 	mov    %rax,-0x460(%rbp)
    ac9d:	48 c7 85 a8 fb ff ff 	movq   $0x0,-0x458(%rbp)
    aca4:	00 00 00 00 
    aca8:	48 8d 05 83 a7 00 00 	lea    0xa783(%rip),%rax        # 15432 <g_29+0x72>
    acaf:	48 89 85 b0 fb ff ff 	mov    %rax,-0x450(%rbp)
    acb6:	48 8d 05 75 a7 00 00 	lea    0xa775(%rip),%rax        # 15432 <g_29+0x72>
    acbd:	48 89 85 b8 fb ff ff 	mov    %rax,-0x448(%rbp)
    acc4:	48 c7 85 c0 fb ff ff 	movq   $0x0,-0x440(%rbp)
    accb:	00 00 00 00 
    accf:	48 8d 05 5c a7 00 00 	lea    0xa75c(%rip),%rax        # 15432 <g_29+0x72>
    acd6:	48 89 85 c8 fb ff ff 	mov    %rax,-0x438(%rbp)
    acdd:	48 8d 05 4e a7 00 00 	lea    0xa74e(%rip),%rax        # 15432 <g_29+0x72>
    ace4:	48 89 85 d0 fb ff ff 	mov    %rax,-0x430(%rbp)
    aceb:	48 8d 85 e0 eb ff ff 	lea    -0x1420(%rbp),%rax
    acf2:	48 83 c0 14          	add    $0x14,%rax
    acf6:	48 89 85 d8 fb ff ff 	mov    %rax,-0x428(%rbp)
    acfd:	48 8d 85 e0 eb ff ff 	lea    -0x1420(%rbp),%rax
    ad04:	48 83 c0 04          	add    $0x4,%rax
    ad08:	48 89 85 e0 fb ff ff 	mov    %rax,-0x420(%rbp)
    ad0f:	48 8d 05 1c a7 00 00 	lea    0xa71c(%rip),%rax        # 15432 <g_29+0x72>
    ad16:	48 89 85 e8 fb ff ff 	mov    %rax,-0x418(%rbp)
    ad1d:	48 8d 85 e0 eb ff ff 	lea    -0x1420(%rbp),%rax
    ad24:	48 83 c0 08          	add    $0x8,%rax
    ad28:	48 89 85 f0 fb ff ff 	mov    %rax,-0x410(%rbp)
    ad2f:	48 8d 85 e0 eb ff ff 	lea    -0x1420(%rbp),%rax
    ad36:	48 83 c0 08          	add    $0x8,%rax
    ad3a:	48 89 85 f8 fb ff ff 	mov    %rax,-0x408(%rbp)
    ad41:	48 8d 85 e0 eb ff ff 	lea    -0x1420(%rbp),%rax
    ad48:	48 83 c0 04          	add    $0x4,%rax
    ad4c:	48 89 85 00 fc ff ff 	mov    %rax,-0x400(%rbp)
    ad53:	48 c7 85 08 fc ff ff 	movq   $0x0,-0x3f8(%rbp)
    ad5a:	00 00 00 00 
    ad5e:	48 8d 85 e0 eb ff ff 	lea    -0x1420(%rbp),%rax
    ad65:	48 83 c0 04          	add    $0x4,%rax
    ad69:	48 89 85 10 fc ff ff 	mov    %rax,-0x3f0(%rbp)
    ad70:	48 8d 85 e0 eb ff ff 	lea    -0x1420(%rbp),%rax
    ad77:	48 83 c0 08          	add    $0x8,%rax
    ad7b:	48 89 85 18 fc ff ff 	mov    %rax,-0x3e8(%rbp)
    ad82:	48 8d 85 e0 eb ff ff 	lea    -0x1420(%rbp),%rax
    ad89:	48 83 c0 14          	add    $0x14,%rax
    ad8d:	48 89 85 20 fc ff ff 	mov    %rax,-0x3e0(%rbp)
    ad94:	48 8d 05 97 a6 00 00 	lea    0xa697(%rip),%rax        # 15432 <g_29+0x72>
    ad9b:	48 89 85 28 fc ff ff 	mov    %rax,-0x3d8(%rbp)
    ada2:	48 8d 85 e0 eb ff ff 	lea    -0x1420(%rbp),%rax
    ada9:	48 83 c0 14          	add    $0x14,%rax
    adad:	48 89 85 30 fc ff ff 	mov    %rax,-0x3d0(%rbp)
    adb4:	48 c7 85 38 fc ff ff 	movq   $0x0,-0x3c8(%rbp)
    adbb:	00 00 00 00 
    adbf:	48 8d 05 6c a6 00 00 	lea    0xa66c(%rip),%rax        # 15432 <g_29+0x72>
    adc6:	48 89 85 40 fc ff ff 	mov    %rax,-0x3c0(%rbp)
    adcd:	48 8d 85 e0 eb ff ff 	lea    -0x1420(%rbp),%rax
    add4:	48 83 c0 04          	add    $0x4,%rax
    add8:	48 89 85 48 fc ff ff 	mov    %rax,-0x3b8(%rbp)
    addf:	48 8d 85 e0 eb ff ff 	lea    -0x1420(%rbp),%rax
    ade6:	48 83 c0 08          	add    $0x8,%rax
    adea:	48 89 85 50 fc ff ff 	mov    %rax,-0x3b0(%rbp)
    adf1:	48 8d 85 e0 eb ff ff 	lea    -0x1420(%rbp),%rax
    adf8:	48 83 c0 04          	add    $0x4,%rax
    adfc:	48 89 85 58 fc ff ff 	mov    %rax,-0x3a8(%rbp)
    ae03:	48 8d 85 e0 eb ff ff 	lea    -0x1420(%rbp),%rax
    ae0a:	48 83 c0 14          	add    $0x14,%rax
    ae0e:	48 89 85 60 fc ff ff 	mov    %rax,-0x3a0(%rbp)
    ae15:	48 8d 85 e0 eb ff ff 	lea    -0x1420(%rbp),%rax
    ae1c:	48 83 c0 14          	add    $0x14,%rax
    ae20:	48 89 85 68 fc ff ff 	mov    %rax,-0x398(%rbp)
    ae27:	48 8d 85 e0 eb ff ff 	lea    -0x1420(%rbp),%rax
    ae2e:	48 83 c0 08          	add    $0x8,%rax
    ae32:	48 89 85 70 fc ff ff 	mov    %rax,-0x390(%rbp)
    ae39:	48 8d 85 e0 eb ff ff 	lea    -0x1420(%rbp),%rax
    ae40:	48 83 c0 08          	add    $0x8,%rax
    ae44:	48 89 85 78 fc ff ff 	mov    %rax,-0x388(%rbp)
    ae4b:	48 c7 85 80 fc ff ff 	movq   $0x0,-0x380(%rbp)
    ae52:	00 00 00 00 
    ae56:	48 8d 85 e0 eb ff ff 	lea    -0x1420(%rbp),%rax
    ae5d:	48 83 c0 04          	add    $0x4,%rax
    ae61:	48 89 85 88 fc ff ff 	mov    %rax,-0x378(%rbp)
    ae68:	48 8d 85 e0 eb ff ff 	lea    -0x1420(%rbp),%rax
    ae6f:	48 83 c0 04          	add    $0x4,%rax
    ae73:	48 89 85 90 fc ff ff 	mov    %rax,-0x370(%rbp)
    ae7a:	48 c7 85 98 fc ff ff 	movq   $0x0,-0x368(%rbp)
    ae81:	00 00 00 00 
    ae85:	48 8d 05 a6 a5 00 00 	lea    0xa5a6(%rip),%rax        # 15432 <g_29+0x72>
    ae8c:	48 89 85 a0 fc ff ff 	mov    %rax,-0x360(%rbp)
    ae93:	48 8d 05 98 a5 00 00 	lea    0xa598(%rip),%rax        # 15432 <g_29+0x72>
    ae9a:	48 89 85 a8 fc ff ff 	mov    %rax,-0x358(%rbp)
    aea1:	48 c7 85 b0 fc ff ff 	movq   $0x0,-0x350(%rbp)
    aea8:	00 00 00 00 
    aeac:	48 8d 05 7f a5 00 00 	lea    0xa57f(%rip),%rax        # 15432 <g_29+0x72>
    aeb3:	48 89 85 b8 fc ff ff 	mov    %rax,-0x348(%rbp)
    aeba:	48 8d 05 71 a5 00 00 	lea    0xa571(%rip),%rax        # 15432 <g_29+0x72>
    aec1:	48 89 85 c0 fc ff ff 	mov    %rax,-0x340(%rbp)
    aec8:	48 8d 85 e0 eb ff ff 	lea    -0x1420(%rbp),%rax
    aecf:	48 83 c0 14          	add    $0x14,%rax
    aed3:	48 89 85 c8 fc ff ff 	mov    %rax,-0x338(%rbp)
    aeda:	48 8d 85 e0 eb ff ff 	lea    -0x1420(%rbp),%rax
    aee1:	48 83 c0 04          	add    $0x4,%rax
    aee5:	48 89 85 d0 fc ff ff 	mov    %rax,-0x330(%rbp)
    aeec:	48 8d 05 3f a5 00 00 	lea    0xa53f(%rip),%rax        # 15432 <g_29+0x72>
    aef3:	48 89 85 d8 fc ff ff 	mov    %rax,-0x328(%rbp)
    aefa:	48 8d 85 e0 eb ff ff 	lea    -0x1420(%rbp),%rax
    af01:	48 83 c0 08          	add    $0x8,%rax
    af05:	48 89 85 e0 fc ff ff 	mov    %rax,-0x320(%rbp)
    af0c:	48 8d 85 e0 eb ff ff 	lea    -0x1420(%rbp),%rax
    af13:	48 83 c0 08          	add    $0x8,%rax
    af17:	48 89 85 e8 fc ff ff 	mov    %rax,-0x318(%rbp)
    af1e:	48 8d 85 e0 eb ff ff 	lea    -0x1420(%rbp),%rax
    af25:	48 83 c0 04          	add    $0x4,%rax
    af29:	48 89 85 f0 fc ff ff 	mov    %rax,-0x310(%rbp)
    af30:	48 c7 85 f8 fc ff ff 	movq   $0x0,-0x308(%rbp)
    af37:	00 00 00 00 
    af3b:	48 8d 85 e0 eb ff ff 	lea    -0x1420(%rbp),%rax
    af42:	48 83 c0 04          	add    $0x4,%rax
    af46:	48 89 85 00 fd ff ff 	mov    %rax,-0x300(%rbp)
    af4d:	48 8d 85 e0 eb ff ff 	lea    -0x1420(%rbp),%rax
    af54:	48 83 c0 08          	add    $0x8,%rax
    af58:	48 89 85 08 fd ff ff 	mov    %rax,-0x2f8(%rbp)
    af5f:	48 8d 85 e0 eb ff ff 	lea    -0x1420(%rbp),%rax
    af66:	48 83 c0 14          	add    $0x14,%rax
    af6a:	48 89 85 10 fd ff ff 	mov    %rax,-0x2f0(%rbp)
    af71:	48 8d 05 ba a4 00 00 	lea    0xa4ba(%rip),%rax        # 15432 <g_29+0x72>
    af78:	48 89 85 18 fd ff ff 	mov    %rax,-0x2e8(%rbp)
    af7f:	48 8d 85 e0 eb ff ff 	lea    -0x1420(%rbp),%rax
    af86:	48 83 c0 14          	add    $0x14,%rax
    af8a:	48 89 85 20 fd ff ff 	mov    %rax,-0x2e0(%rbp)
    af91:	48 c7 85 28 fd ff ff 	movq   $0x0,-0x2d8(%rbp)
    af98:	00 00 00 00 
    af9c:	48 8d 05 8f a4 00 00 	lea    0xa48f(%rip),%rax        # 15432 <g_29+0x72>
    afa3:	48 89 85 30 fd ff ff 	mov    %rax,-0x2d0(%rbp)
    afaa:	48 8d 85 e0 eb ff ff 	lea    -0x1420(%rbp),%rax
    afb1:	48 83 c0 04          	add    $0x4,%rax
    afb5:	48 89 85 38 fd ff ff 	mov    %rax,-0x2c8(%rbp)
    afbc:	48 8d 85 e0 eb ff ff 	lea    -0x1420(%rbp),%rax
    afc3:	48 83 c0 08          	add    $0x8,%rax
    afc7:	48 89 85 40 fd ff ff 	mov    %rax,-0x2c0(%rbp)
    afce:	48 8d 85 e0 eb ff ff 	lea    -0x1420(%rbp),%rax
    afd5:	48 83 c0 04          	add    $0x4,%rax
    afd9:	48 89 85 48 fd ff ff 	mov    %rax,-0x2b8(%rbp)
    afe0:	48 8d 85 e0 eb ff ff 	lea    -0x1420(%rbp),%rax
    afe7:	48 83 c0 14          	add    $0x14,%rax
    afeb:	48 89 85 50 fd ff ff 	mov    %rax,-0x2b0(%rbp)
    aff2:	48 8d 85 e0 eb ff ff 	lea    -0x1420(%rbp),%rax
    aff9:	48 83 c0 14          	add    $0x14,%rax
    affd:	48 89 85 58 fd ff ff 	mov    %rax,-0x2a8(%rbp)
    b004:	48 8d 85 e0 eb ff ff 	lea    -0x1420(%rbp),%rax
    b00b:	48 83 c0 08          	add    $0x8,%rax
    b00f:	48 89 85 60 fd ff ff 	mov    %rax,-0x2a0(%rbp)
    b016:	48 8d 85 e0 eb ff ff 	lea    -0x1420(%rbp),%rax
    b01d:	48 83 c0 08          	add    $0x8,%rax
    b021:	48 89 85 68 fd ff ff 	mov    %rax,-0x298(%rbp)
    b028:	48 c7 85 70 fd ff ff 	movq   $0x0,-0x290(%rbp)
    b02f:	00 00 00 00 
    b033:	48 8d 85 e0 eb ff ff 	lea    -0x1420(%rbp),%rax
    b03a:	48 83 c0 04          	add    $0x4,%rax
    b03e:	48 89 85 78 fd ff ff 	mov    %rax,-0x288(%rbp)
    b045:	48 8d 85 e0 eb ff ff 	lea    -0x1420(%rbp),%rax
    b04c:	48 83 c0 04          	add    $0x4,%rax
    b050:	48 89 85 80 fd ff ff 	mov    %rax,-0x280(%rbp)
    b057:	48 c7 85 88 fd ff ff 	movq   $0x0,-0x278(%rbp)
    b05e:	00 00 00 00 
    b062:	48 8d 05 c9 a3 00 00 	lea    0xa3c9(%rip),%rax        # 15432 <g_29+0x72>
    b069:	48 89 85 90 fd ff ff 	mov    %rax,-0x270(%rbp)
    b070:	48 8d 05 bb a3 00 00 	lea    0xa3bb(%rip),%rax        # 15432 <g_29+0x72>
    b077:	48 89 85 98 fd ff ff 	mov    %rax,-0x268(%rbp)
    b07e:	48 c7 85 a0 fd ff ff 	movq   $0x0,-0x260(%rbp)
    b085:	00 00 00 00 
    b089:	48 8d 05 a2 a3 00 00 	lea    0xa3a2(%rip),%rax        # 15432 <g_29+0x72>
    b090:	48 89 85 a8 fd ff ff 	mov    %rax,-0x258(%rbp)
    b097:	48 8d 05 94 a3 00 00 	lea    0xa394(%rip),%rax        # 15432 <g_29+0x72>
    b09e:	48 89 85 b0 fd ff ff 	mov    %rax,-0x250(%rbp)
    b0a5:	48 8d 85 e0 eb ff ff 	lea    -0x1420(%rbp),%rax
    b0ac:	48 83 c0 14          	add    $0x14,%rax
    b0b0:	48 89 85 b8 fd ff ff 	mov    %rax,-0x248(%rbp)
    b0b7:	48 8d 85 e0 eb ff ff 	lea    -0x1420(%rbp),%rax
    b0be:	48 83 c0 04          	add    $0x4,%rax
    b0c2:	48 89 85 c0 fd ff ff 	mov    %rax,-0x240(%rbp)
    b0c9:	48 8d 05 62 a3 00 00 	lea    0xa362(%rip),%rax        # 15432 <g_29+0x72>
    b0d0:	48 89 85 c8 fd ff ff 	mov    %rax,-0x238(%rbp)
    b0d7:	48 8d 85 e0 eb ff ff 	lea    -0x1420(%rbp),%rax
    b0de:	48 83 c0 08          	add    $0x8,%rax
    b0e2:	48 89 85 d0 fd ff ff 	mov    %rax,-0x230(%rbp)
    b0e9:	48 8d 85 e0 eb ff ff 	lea    -0x1420(%rbp),%rax
    b0f0:	48 83 c0 08          	add    $0x8,%rax
    b0f4:	48 89 85 d8 fd ff ff 	mov    %rax,-0x228(%rbp)
    b0fb:	48 8d 85 e0 eb ff ff 	lea    -0x1420(%rbp),%rax
    b102:	48 83 c0 04          	add    $0x4,%rax
    b106:	48 89 85 e0 fd ff ff 	mov    %rax,-0x220(%rbp)
    b10d:	48 c7 85 e8 fd ff ff 	movq   $0x0,-0x218(%rbp)
    b114:	00 00 00 00 
    b118:	48 8d 85 e0 eb ff ff 	lea    -0x1420(%rbp),%rax
    b11f:	48 83 c0 04          	add    $0x4,%rax
    b123:	48 89 85 f0 fd ff ff 	mov    %rax,-0x210(%rbp)
    b12a:	48 8d 85 e0 eb ff ff 	lea    -0x1420(%rbp),%rax
    b131:	48 83 c0 08          	add    $0x8,%rax
    b135:	48 89 85 f8 fd ff ff 	mov    %rax,-0x208(%rbp)
    b13c:	48 8d 85 e0 eb ff ff 	lea    -0x1420(%rbp),%rax
    b143:	48 83 c0 14          	add    $0x14,%rax
    b147:	48 89 85 00 fe ff ff 	mov    %rax,-0x200(%rbp)
    b14e:	48 8d 05 dd a2 00 00 	lea    0xa2dd(%rip),%rax        # 15432 <g_29+0x72>
    b155:	48 89 85 08 fe ff ff 	mov    %rax,-0x1f8(%rbp)
    b15c:	48 8d 85 e0 eb ff ff 	lea    -0x1420(%rbp),%rax
    b163:	48 83 c0 14          	add    $0x14,%rax
    b167:	48 89 85 10 fe ff ff 	mov    %rax,-0x1f0(%rbp)
    b16e:	48 c7 85 18 fe ff ff 	movq   $0x0,-0x1e8(%rbp)
    b175:	00 00 00 00 
    b179:	48 8d 05 b2 a2 00 00 	lea    0xa2b2(%rip),%rax        # 15432 <g_29+0x72>
    b180:	48 89 85 20 fe ff ff 	mov    %rax,-0x1e0(%rbp)
    b187:	48 8d 85 e0 eb ff ff 	lea    -0x1420(%rbp),%rax
    b18e:	48 83 c0 04          	add    $0x4,%rax
    b192:	48 89 85 28 fe ff ff 	mov    %rax,-0x1d8(%rbp)
    b199:	48 8d 85 e0 eb ff ff 	lea    -0x1420(%rbp),%rax
    b1a0:	48 83 c0 08          	add    $0x8,%rax
    b1a4:	48 89 85 30 fe ff ff 	mov    %rax,-0x1d0(%rbp)
    b1ab:	48 8d 85 e0 eb ff ff 	lea    -0x1420(%rbp),%rax
    b1b2:	48 83 c0 04          	add    $0x4,%rax
    b1b6:	48 89 85 38 fe ff ff 	mov    %rax,-0x1c8(%rbp)
    b1bd:	48 8d 85 e0 eb ff ff 	lea    -0x1420(%rbp),%rax
    b1c4:	48 83 c0 14          	add    $0x14,%rax
    b1c8:	48 89 85 40 fe ff ff 	mov    %rax,-0x1c0(%rbp)
    b1cf:	48 8d 85 e0 eb ff ff 	lea    -0x1420(%rbp),%rax
    b1d6:	48 83 c0 14          	add    $0x14,%rax
    b1da:	48 89 85 48 fe ff ff 	mov    %rax,-0x1b8(%rbp)
    b1e1:	48 8d 85 e0 eb ff ff 	lea    -0x1420(%rbp),%rax
    b1e8:	48 83 c0 08          	add    $0x8,%rax
    b1ec:	48 89 85 50 fe ff ff 	mov    %rax,-0x1b0(%rbp)
    b1f3:	48 8d 85 e0 eb ff ff 	lea    -0x1420(%rbp),%rax
    b1fa:	48 83 c0 08          	add    $0x8,%rax
    b1fe:	48 89 85 58 fe ff ff 	mov    %rax,-0x1a8(%rbp)
    b205:	48 c7 85 60 fe ff ff 	movq   $0x0,-0x1a0(%rbp)
    b20c:	00 00 00 00 
    b210:	48 8d 85 e0 eb ff ff 	lea    -0x1420(%rbp),%rax
    b217:	48 83 c0 04          	add    $0x4,%rax
    b21b:	48 89 85 68 fe ff ff 	mov    %rax,-0x198(%rbp)
    b222:	48 8d 85 e0 eb ff ff 	lea    -0x1420(%rbp),%rax
    b229:	48 83 c0 04          	add    $0x4,%rax
    b22d:	48 89 85 70 fe ff ff 	mov    %rax,-0x190(%rbp)
    b234:	48 c7 85 78 fe ff ff 	movq   $0x0,-0x188(%rbp)
    b23b:	00 00 00 00 
    b23f:	48 8d 05 ec a1 00 00 	lea    0xa1ec(%rip),%rax        # 15432 <g_29+0x72>
    b246:	48 89 85 80 fe ff ff 	mov    %rax,-0x180(%rbp)
    b24d:	48 8d 05 de a1 00 00 	lea    0xa1de(%rip),%rax        # 15432 <g_29+0x72>
    b254:	48 89 85 88 fe ff ff 	mov    %rax,-0x178(%rbp)
    b25b:	48 c7 85 90 fe ff ff 	movq   $0x0,-0x170(%rbp)
    b262:	00 00 00 00 
    b266:	48 8d 05 c5 a1 00 00 	lea    0xa1c5(%rip),%rax        # 15432 <g_29+0x72>
    b26d:	48 89 85 98 fe ff ff 	mov    %rax,-0x168(%rbp)
    b274:	48 8d 05 b7 a1 00 00 	lea    0xa1b7(%rip),%rax        # 15432 <g_29+0x72>
    b27b:	48 89 85 a0 fe ff ff 	mov    %rax,-0x160(%rbp)
    b282:	48 8d 85 e0 eb ff ff 	lea    -0x1420(%rbp),%rax
    b289:	48 83 c0 14          	add    $0x14,%rax
    b28d:	48 89 85 a8 fe ff ff 	mov    %rax,-0x158(%rbp)
    b294:	48 8d 85 e0 eb ff ff 	lea    -0x1420(%rbp),%rax
    b29b:	48 83 c0 04          	add    $0x4,%rax
    b29f:	48 89 85 b0 fe ff ff 	mov    %rax,-0x150(%rbp)
    b2a6:	48 8d 05 85 a1 00 00 	lea    0xa185(%rip),%rax        # 15432 <g_29+0x72>
    b2ad:	48 89 85 b8 fe ff ff 	mov    %rax,-0x148(%rbp)
    b2b4:	48 8d 85 e0 eb ff ff 	lea    -0x1420(%rbp),%rax
    b2bb:	48 83 c0 08          	add    $0x8,%rax
    b2bf:	48 89 85 c0 fe ff ff 	mov    %rax,-0x140(%rbp)
    b2c6:	48 8d 85 e0 eb ff ff 	lea    -0x1420(%rbp),%rax
    b2cd:	48 83 c0 08          	add    $0x8,%rax
    b2d1:	48 89 85 c8 fe ff ff 	mov    %rax,-0x138(%rbp)
    b2d8:	48 8d 85 e0 eb ff ff 	lea    -0x1420(%rbp),%rax
    b2df:	48 83 c0 04          	add    $0x4,%rax
    b2e3:	48 89 85 d0 fe ff ff 	mov    %rax,-0x130(%rbp)
    b2ea:	48 c7 85 d8 fe ff ff 	movq   $0x0,-0x128(%rbp)
    b2f1:	00 00 00 00 
    b2f5:	48 8d 85 e0 eb ff ff 	lea    -0x1420(%rbp),%rax
    b2fc:	48 83 c0 04          	add    $0x4,%rax
    b300:	48 89 85 e0 fe ff ff 	mov    %rax,-0x120(%rbp)
    b307:	48 8d 85 e0 eb ff ff 	lea    -0x1420(%rbp),%rax
    b30e:	48 83 c0 08          	add    $0x8,%rax
    b312:	48 89 85 e8 fe ff ff 	mov    %rax,-0x118(%rbp)
    b319:	48 8d 85 e0 eb ff ff 	lea    -0x1420(%rbp),%rax
    b320:	48 83 c0 14          	add    $0x14,%rax
    b324:	48 89 85 f0 fe ff ff 	mov    %rax,-0x110(%rbp)
    b32b:	48 8d 05 00 a1 00 00 	lea    0xa100(%rip),%rax        # 15432 <g_29+0x72>
    b332:	48 89 85 f8 fe ff ff 	mov    %rax,-0x108(%rbp)
    b339:	48 8d 85 e0 eb ff ff 	lea    -0x1420(%rbp),%rax
    b340:	48 83 c0 14          	add    $0x14,%rax
    b344:	48 89 85 00 ff ff ff 	mov    %rax,-0x100(%rbp)
    b34b:	48 c7 85 08 ff ff ff 	movq   $0x0,-0xf8(%rbp)
    b352:	00 00 00 00 
    b356:	48 8d 05 d5 a0 00 00 	lea    0xa0d5(%rip),%rax        # 15432 <g_29+0x72>
    b35d:	48 89 85 10 ff ff ff 	mov    %rax,-0xf0(%rbp)
    b364:	48 8d 85 e0 eb ff ff 	lea    -0x1420(%rbp),%rax
    b36b:	48 83 c0 04          	add    $0x4,%rax
    b36f:	48 89 85 18 ff ff ff 	mov    %rax,-0xe8(%rbp)
    b376:	48 8d 85 e0 eb ff ff 	lea    -0x1420(%rbp),%rax
    b37d:	48 83 c0 08          	add    $0x8,%rax
    b381:	48 89 85 20 ff ff ff 	mov    %rax,-0xe0(%rbp)
    b388:	48 8d 85 e0 eb ff ff 	lea    -0x1420(%rbp),%rax
    b38f:	48 83 c0 04          	add    $0x4,%rax
    b393:	48 89 85 28 ff ff ff 	mov    %rax,-0xd8(%rbp)
    b39a:	48 8d 85 e0 eb ff ff 	lea    -0x1420(%rbp),%rax
    b3a1:	48 83 c0 14          	add    $0x14,%rax
    b3a5:	48 89 85 30 ff ff ff 	mov    %rax,-0xd0(%rbp)
    b3ac:	48 8d 85 e0 eb ff ff 	lea    -0x1420(%rbp),%rax
    b3b3:	48 83 c0 14          	add    $0x14,%rax
    b3b7:	48 89 85 38 ff ff ff 	mov    %rax,-0xc8(%rbp)
    b3be:	48 8d 85 e0 eb ff ff 	lea    -0x1420(%rbp),%rax
    b3c5:	48 83 c0 08          	add    $0x8,%rax
    b3c9:	48 89 85 40 ff ff ff 	mov    %rax,-0xc0(%rbp)
    b3d0:	48 8d 85 e0 eb ff ff 	lea    -0x1420(%rbp),%rax
    b3d7:	48 83 c0 08          	add    $0x8,%rax
    b3db:	48 89 85 48 ff ff ff 	mov    %rax,-0xb8(%rbp)
    b3e2:	48 c7 85 50 ff ff ff 	movq   $0x0,-0xb0(%rbp)
    b3e9:	00 00 00 00 
    b3ed:	48 8d 85 e0 eb ff ff 	lea    -0x1420(%rbp),%rax
    b3f4:	48 83 c0 04          	add    $0x4,%rax
    b3f8:	48 89 85 58 ff ff ff 	mov    %rax,-0xa8(%rbp)
    b3ff:	48 8d 85 e0 eb ff ff 	lea    -0x1420(%rbp),%rax
    b406:	48 83 c0 04          	add    $0x4,%rax
    b40a:	48 89 85 60 ff ff ff 	mov    %rax,-0xa0(%rbp)
    b411:	48 c7 85 68 ff ff ff 	movq   $0x0,-0x98(%rbp)
    b418:	00 00 00 00 
    b41c:	48 8d 05 0f a0 00 00 	lea    0xa00f(%rip),%rax        # 15432 <g_29+0x72>
    b423:	48 89 85 70 ff ff ff 	mov    %rax,-0x90(%rbp)
    b42a:	48 8d 05 01 a0 00 00 	lea    0xa001(%rip),%rax        # 15432 <g_29+0x72>
    b431:	48 89 85 78 ff ff ff 	mov    %rax,-0x88(%rbp)
    b438:	48 c7 45 80 00 00 00 	movq   $0x0,-0x80(%rbp)
    b43f:	00 
    b440:	48 8d 05 eb 9f 00 00 	lea    0x9feb(%rip),%rax        # 15432 <g_29+0x72>
    b447:	48 89 45 88          	mov    %rax,-0x78(%rbp)
    b44b:	48 8d 05 e0 9f 00 00 	lea    0x9fe0(%rip),%rax        # 15432 <g_29+0x72>
    b452:	48 89 45 90          	mov    %rax,-0x70(%rbp)
    b456:	48 8d 85 e0 eb ff ff 	lea    -0x1420(%rbp),%rax
    b45d:	48 83 c0 14          	add    $0x14,%rax
    b461:	48 89 45 98          	mov    %rax,-0x68(%rbp)
    b465:	48 8d 85 e0 eb ff ff 	lea    -0x1420(%rbp),%rax
    b46c:	48 83 c0 04          	add    $0x4,%rax
    b470:	48 89 45 a0          	mov    %rax,-0x60(%rbp)
    b474:	48 8d 05 b7 9f 00 00 	lea    0x9fb7(%rip),%rax        # 15432 <g_29+0x72>
    b47b:	48 89 45 a8          	mov    %rax,-0x58(%rbp)
    b47f:	48 8b 05 22 99 00 00 	mov    0x9922(%rip),%rax        # 14da8 <l_85.4486+0x48>
    b486:	48 89 85 68 e9 ff ff 	mov    %rax,-0x1698(%rbp)
    b48d:	8b 95 98 e8 ff ff    	mov    -0x1768(%rbp),%edx
    b493:	8b 85 3c e8 ff ff    	mov    -0x17c4(%rbp),%eax
    b499:	0f be c0             	movsbl %al,%eax
    b49c:	89 d6                	mov    %edx,%esi
    b49e:	89 c7                	mov    %eax,%edi
    b4a0:	e8 90 be ff ff       	callq  7335 <safe_rshift_func_int8_t_s_s>
    b4a5:	0f b6 d8             	movzbl %al,%ebx
    b4a8:	48 8b 85 30 e8 ff ff 	mov    -0x17d0(%rbp),%rax
    b4af:	66 89 05 7c 9f 00 00 	mov    %ax,0x9f7c(%rip)        # 15432 <g_29+0x72>
    b4b6:	0f b7 05 75 9f 00 00 	movzwl 0x9f75(%rip),%eax        # 15432 <g_29+0x72>
    b4bd:	66 83 f8 ff          	cmp    $0xffff,%ax
    b4c1:	0f 94 c0             	sete   %al
    b4c4:	88 05 67 9f 00 00    	mov    %al,0x9f67(%rip)        # 15431 <g_29+0x71>
    b4ca:	0f b6 05 60 9f 00 00 	movzbl 0x9f60(%rip),%eax        # 15431 <g_29+0x71>
    b4d1:	66 98                	cbtw   
    b4d3:	48 8b 15 b6 9f 00 00 	mov    0x9fb6(%rip),%rdx        # 15490 <g_71>
    b4da:	09 d0                	or     %edx,%eax
    b4dc:	0f b7 d0             	movzwl %ax,%edx
    b4df:	0f b7 85 f4 eb ff ff 	movzwl -0x140c(%rbp),%eax
    b4e6:	0f b7 c0             	movzwl %ax,%eax
    b4e9:	89 d6                	mov    %edx,%esi
    b4eb:	89 c7                	mov    %eax,%edi
    b4ed:	e8 4b c8 ff ff       	callq  7d3d <safe_mul_func_uint16_t_u_u>
    b4f2:	0f b6 c0             	movzbl %al,%eax
    b4f5:	89 de                	mov    %ebx,%esi
    b4f7:	89 c7                	mov    %eax,%edi
    b4f9:	e8 95 c6 ff ff       	callq  7b93 <safe_mul_func_uint8_t_u_u>
    b4fe:	0f b7 95 f4 eb ff ff 	movzwl -0x140c(%rbp),%edx
    b505:	0f b7 85 ee eb ff ff 	movzwl -0x1412(%rbp),%eax
    b50c:	66 39 c2             	cmp    %ax,%dx
    b50f:	0f 9d c0             	setge  %al
    b512:	0f b6 c0             	movzbl %al,%eax
    b515:	48 89 c7             	mov    %rax,%rdi
    b518:	e8 fc ca ff ff       	callq  8019 <safe_unary_minus_func_uint64_t_u>
    b51d:	66 c7 85 56 e8 ff ff 	movw   $0x16da,-0x17aa(%rbp)
    b524:	da 16 
    b526:	48 8d 85 00 e9 ff ff 	lea    -0x1700(%rbp),%rax
    b52d:	48 89 85 00 ea ff ff 	mov    %rax,-0x1600(%rbp)
    b534:	48 c7 85 08 ea ff ff 	movq   $0x0,-0x15f8(%rbp)
    b53b:	00 00 00 00 
    b53f:	48 c7 85 10 ea ff ff 	movq   $0x0,-0x15f0(%rbp)
    b546:	00 00 00 00 
    b54a:	48 8d 85 58 e9 ff ff 	lea    -0x16a8(%rbp),%rax
    b551:	48 89 85 18 ea ff ff 	mov    %rax,-0x15e8(%rbp)
    b558:	48 8d 85 20 f1 ff ff 	lea    -0xee0(%rbp),%rax
    b55f:	48 8d 15 ba ba 00 00 	lea    0xbaba(%rip),%rdx        # 17020 <g_2787+0x810>
    b566:	b9 e1 00 00 00       	mov    $0xe1,%ecx
    b56b:	48 89 c7             	mov    %rax,%rdi
    b56e:	48 89 d6             	mov    %rdx,%rsi
    b571:	f3 48 a5             	rep movsq %ds:(%rsi),%es:(%rdi)
    b574:	c6 85 4f e8 ff ff 3e 	movb   $0x3e,-0x17b1(%rbp)
    b57b:	48 8d 05 a7 9e 00 00 	lea    0x9ea7(%rip),%rax        # 15429 <g_29+0x69>
    b582:	48 89 85 20 ea ff ff 	mov    %rax,-0x15e0(%rbp)
    b589:	8b 05 c1 9a 00 00    	mov    0x9ac1(%rip),%eax        # 15050 <g_10+0x10>
    b58f:	48 98                	cltq   
    b591:	48 39 85 30 e8 ff ff 	cmp    %rax,-0x17d0(%rbp)
    b598:	0f 96 c2             	setbe  %dl
    b59b:	48 8b 05 a6 e2 00 00 	mov    0xe2a6(%rip),%rax        # 19848 <g_82>
    b5a2:	0f b6 d2             	movzbl %dl,%edx
    b5a5:	89 10                	mov    %edx,(%rax)
    b5a7:	8b 00                	mov    (%rax),%eax
    b5a9:	66 31 85 56 e8 ff ff 	xor    %ax,-0x17aa(%rbp)
    b5b0:	0f b6 9d 4f e8 ff ff 	movzbl -0x17b1(%rbp),%ebx
    b5b7:	be 02 00 00 00       	mov    $0x2,%esi
    b5bc:	bf 33 00 00 00       	mov    $0x33,%edi
    b5c1:	e8 f8 c6 ff ff       	callq  7cbe <safe_rshift_func_uint8_t_u_u>
    b5c6:	44 0f b6 e0          	movzbl %al,%r12d
    b5ca:	48 8b 95 28 e8 ff ff 	mov    -0x17d8(%rbp),%rdx
    b5d1:	48 8b 85 00 ea ff ff 	mov    -0x1600(%rbp),%rax
    b5d8:	48 89 10             	mov    %rdx,(%rax)
    b5db:	48 8b 85 00 ea ff ff 	mov    -0x1600(%rbp),%rax
    b5e2:	48 8b 10             	mov    (%rax),%rdx
    b5e5:	48 8b 85 28 e8 ff ff 	mov    -0x17d8(%rbp),%rax
    b5ec:	48 39 c2             	cmp    %rax,%rdx
    b5ef:	0f 94 c0             	sete   %al
    b5f2:	89 c2                	mov    %eax,%edx
    b5f4:	48 8b 85 18 ea ff ff 	mov    -0x15e8(%rbp),%rax
    b5fb:	88 10                	mov    %dl,(%rax)
    b5fd:	48 8b 85 18 ea ff ff 	mov    -0x15e8(%rbp),%rax
    b604:	0f b6 00             	movzbl (%rax),%eax
    b607:	0f b6 c0             	movzbl %al,%eax
    b60a:	be 03 00 00 00       	mov    $0x3,%esi
    b60f:	89 c7                	mov    %eax,%edi
    b611:	e8 36 c6 ff ff       	callq  7c4c <safe_lshift_func_uint8_t_u_u>
    b616:	0f b6 c0             	movzbl %al,%eax
    b619:	44 89 e6             	mov    %r12d,%esi
    b61c:	89 c7                	mov    %eax,%edi
    b61e:	e8 8b c5 ff ff       	callq  7bae <safe_mod_func_uint8_t_u_u>
    b623:	41 89 c5             	mov    %eax,%r13d
    b626:	8b 85 a4 e8 ff ff    	mov    -0x175c(%rbp),%eax
    b62c:	4c 63 e0             	movslq %eax,%r12
    b62f:	8b 85 3c e8 ff ff    	mov    -0x17c4(%rbp),%eax
    b635:	0f b6 c0             	movzbl %al,%eax
    b638:	be 04 00 00 00       	mov    $0x4,%esi
    b63d:	89 c7                	mov    %eax,%edi
    b63f:	e8 c1 c5 ff ff       	callq  7c05 <safe_lshift_func_uint8_t_u_s>
    b644:	0f b6 d0             	movzbl %al,%edx
    b647:	8b 05 23 9e 00 00    	mov    0x9e23(%rip),%eax        # 15470 <g_57>
    b64d:	c1 e0 04             	shl    $0x4,%eax
    b650:	c1 f8 04             	sar    $0x4,%eax
    b653:	39 c2                	cmp    %eax,%edx
    b655:	0f 9d c0             	setge  %al
    b658:	0f b6 c0             	movzbl %al,%eax
    b65b:	4c 89 e6             	mov    %r12,%rsi
    b65e:	48 89 c7             	mov    %rax,%rdi
    b661:	e8 e5 c9 ff ff       	callq  804b <safe_sub_func_uint64_t_u_u>
    b666:	be ba 00 00 00       	mov    $0xba,%esi
    b66b:	bf 00 00 00 00       	mov    $0x0,%edi
    b670:	e8 1e c5 ff ff       	callq  7b93 <safe_mul_func_uint8_t_u_u>
    b675:	48 8b 85 10 e9 ff ff 	mov    -0x16f0(%rbp),%rax
    b67c:	48 85 c0             	test   %rax,%rax
    b67f:	0f 94 c0             	sete   %al
    b682:	0f b6 d0             	movzbl %al,%edx
    b685:	8b 85 08 ec ff ff    	mov    -0x13f8(%rbp),%eax
    b68b:	31 d0                	xor    %edx,%eax
    b68d:	89 85 08 ec ff ff    	mov    %eax,-0x13f8(%rbp)
    b693:	8b 85 08 ec ff ff    	mov    -0x13f8(%rbp),%eax
    b699:	48 63 d0             	movslq %eax,%rdx
    b69c:	48 8b 05 ed 9d 00 00 	mov    0x9ded(%rip),%rax        # 15490 <g_71>
    b6a3:	48 39 c2             	cmp    %rax,%rdx
    b6a6:	0f 9f c0             	setg   %al
    b6a9:	0f b6 c0             	movzbl %al,%eax
    b6ac:	48 be fd 8b 58 d7 46 	movabs $0x7c0a1d46d7588bfd,%rsi
    b6b3:	1d 0a 7c 
    b6b6:	48 89 c7             	mov    %rax,%rdi
    b6b9:	e8 83 c1 ff ff       	callq  7841 <safe_add_func_int64_t_s_s>
    b6be:	89 c2                	mov    %eax,%edx
    b6c0:	0f b7 85 56 e8 ff ff 	movzwl -0x17aa(%rbp),%eax
    b6c7:	0f b6 c0             	movzbl %al,%eax
    b6ca:	89 d6                	mov    %edx,%esi
    b6cc:	89 c7                	mov    %eax,%edi
    b6ce:	e8 ba c5 ff ff       	callq  7c8d <safe_rshift_func_uint8_t_u_s>
    b6d3:	44 21 e8             	and    %r13d,%eax
    b6d6:	0f b6 c0             	movzbl %al,%eax
    b6d9:	8b 15 c1 9c 00 00    	mov    0x9cc1(%rip),%edx        # 153a0 <g_21>
    b6df:	21 d0                	and    %edx,%eax
    b6e1:	0f b7 c0             	movzwl %ax,%eax
    b6e4:	89 de                	mov    %ebx,%esi
    b6e6:	89 c7                	mov    %eax,%edi
    b6e8:	e8 12 c6 ff ff       	callq  7cff <safe_add_func_uint16_t_u_u>
    b6ed:	89 c2                	mov    %eax,%edx
    b6ef:	48 8b 05 52 e1 00 00 	mov    0xe152(%rip),%rax        # 19848 <g_82>
    b6f6:	0f b7 d2             	movzwl %dx,%edx
    b6f9:	89 10                	mov    %edx,(%rax)
    b6fb:	8b 00                	mov    (%rax),%eax
    b6fd:	85 c0                	test   %eax,%eax
    b6ff:	74 24                	je     b725 <func_53+0x19ef>
    b701:	48 8d 85 20 ec ff ff 	lea    -0x13e0(%rbp),%rax
    b708:	48 89 85 38 ea ff ff 	mov    %rax,-0x15c8(%rbp)
    b70f:	48 8b 95 20 ec ff ff 	mov    -0x13e0(%rbp),%rdx
    b716:	48 8b 85 38 ea ff ff 	mov    -0x15c8(%rbp),%rax
    b71d:	48 89 10             	mov    %rdx,(%rax)
    b720:	e9 32 01 00 00       	jmpq   b857 <func_53+0x1b21>
    b725:	48 8d 05 05 9d 00 00 	lea    0x9d05(%rip),%rax        # 15431 <g_29+0x71>
    b72c:	48 89 85 28 ea ff ff 	mov    %rax,-0x15d8(%rbp)
    b733:	c7 85 c0 e8 ff ff 01 	movl   $0x1,-0x1740(%rbp)
    b73a:	00 00 00 
    b73d:	48 8d 05 60 9d 00 00 	lea    0x9d60(%rip),%rax        # 154a4 <g_165>
    b744:	48 89 85 30 ea ff ff 	mov    %rax,-0x15d0(%rbp)
    b74b:	48 8b 05 ae c1 00 00 	mov    0xc1ae(%rip),%rax        # 17900 <g_81>
    b752:	48 8b 00             	mov    (%rax),%rax
    b755:	48 89 85 20 ea ff ff 	mov    %rax,-0x15e0(%rbp)
    b75c:	8b 85 3c e8 ff ff    	mov    -0x17c4(%rbp),%eax
    b762:	48 89 c7             	mov    %rax,%rdi
    b765:	e8 ac c0 ff ff       	callq  7816 <safe_unary_minus_func_int64_t_s>
    b76a:	89 c6                	mov    %eax,%esi
    b76c:	bf 06 00 00 00       	mov    $0x6,%edi
    b771:	e8 40 be ff ff       	callq  75b6 <safe_add_func_int32_t_s_s>
    b776:	41 89 c4             	mov    %eax,%r12d
    b779:	8b 9d 3c e8 ff ff    	mov    -0x17c4(%rbp),%ebx
    b77f:	48 8b 85 28 ea ff ff 	mov    -0x15d8(%rbp),%rax
    b786:	c6 00 f3             	movb   $0xf3,(%rax)
    b789:	b8 00 00 00 00       	mov    $0x0,%eax
    b78e:	48 98                	cltq   
    b790:	48 39 85 30 e8 ff ff 	cmp    %rax,-0x17d0(%rbp)
    b797:	0f 93 c0             	setae  %al
    b79a:	0f b6 d0             	movzbl %al,%edx
    b79d:	0f b7 05 8e 9c 00 00 	movzwl 0x9c8e(%rip),%eax        # 15432 <g_29+0x72>
    b7a4:	31 d0                	xor    %edx,%eax
    b7a6:	0f b7 d0             	movzwl %ax,%edx
    b7a9:	48 8b 05 86 9c 00 00 	mov    0x9c86(%rip),%rax        # 15436 <g_29+0x76>
    b7b0:	0f b7 c0             	movzwl %ax,%eax
    b7b3:	89 d6                	mov    %edx,%esi
    b7b5:	89 c7                	mov    %eax,%edi
    b7b7:	e8 d2 c5 ff ff       	callq  7d8e <safe_div_func_uint16_t_u_u>
    b7bc:	0f b7 d0             	movzwl %ax,%edx
    b7bf:	48 8b 05 12 c3 00 00 	mov    0xc312(%rip),%rax        # 17ad8 <g_151+0x118>
    b7c6:	48 85 c0             	test   %rax,%rax
    b7c9:	0f 95 c0             	setne  %al
    b7cc:	0f b6 c0             	movzbl %al,%eax
    b7cf:	48 89 d6             	mov    %rdx,%rsi
    b7d2:	48 89 c7             	mov    %rax,%rdi
    b7d5:	e8 54 c8 ff ff       	callq  802e <safe_add_func_uint64_t_u_u>
    b7da:	48 3d ec 00 00 00    	cmp    $0xec,%rax
    b7e0:	0f 94 c0             	sete   %al
    b7e3:	0f b6 c0             	movzbl %al,%eax
    b7e6:	89 de                	mov    %ebx,%esi
    b7e8:	89 c7                	mov    %eax,%edi
    b7ea:	e8 9e c4 ff ff       	callq  7c8d <safe_rshift_func_uint8_t_u_s>
    b7ef:	0f b6 d0             	movzbl %al,%edx
    b7f2:	0f bf 85 52 e8 ff ff 	movswl -0x17ae(%rbp),%eax
    b7f9:	39 c2                	cmp    %eax,%edx
    b7fb:	0f 9d c0             	setge  %al
    b7fe:	89 c2                	mov    %eax,%edx
    b800:	48 8b 85 30 ea ff ff 	mov    -0x15d0(%rbp),%rax
    b807:	88 10                	mov    %dl,(%rax)
    b809:	48 8b 85 30 ea ff ff 	mov    -0x15d0(%rbp),%rax
    b810:	0f b6 00             	movzbl (%rax),%eax
    b813:	0f be c0             	movsbl %al,%eax
    b816:	be 01 00 00 00       	mov    $0x1,%esi
    b81b:	89 c7                	mov    %eax,%edi
    b81d:	e8 4a bb ff ff       	callq  736c <safe_rshift_func_int8_t_s_u>
    b822:	0f be c0             	movsbl %al,%eax
    b825:	be 01 00 00 00       	mov    $0x1,%esi
    b82a:	89 c7                	mov    %eax,%edi
    b82c:	e8 24 bc ff ff       	callq  7455 <safe_div_func_int16_t_s_s>
    b831:	f7 d0                	not    %eax
    b833:	66 c1 e8 0f          	shr    $0xf,%ax
    b837:	0f b6 c0             	movzbl %al,%eax
    b83a:	41 39 c4             	cmp    %eax,%r12d
    b83d:	0f 9f c0             	setg   %al
    b840:	0f b6 d0             	movzbl %al,%edx
    b843:	48 8b 85 20 ea ff ff 	mov    -0x15e0(%rbp),%rax
    b84a:	8b 00                	mov    (%rax),%eax
    b84c:	31 c2                	xor    %eax,%edx
    b84e:	48 8b 85 20 ea ff ff 	mov    -0x15e0(%rbp),%rax
    b855:	89 10                	mov    %edx,(%rax)
    b857:	8b 05 cc 9b 00 00    	mov    0x9bcc(%rip),%eax        # 15429 <g_29+0x69>
    b85d:	e9 a8 1d 00 00       	jmpq   d60a <func_53+0x38d4>
    b862:	48 8b 05 df df 00 00 	mov    0xdfdf(%rip),%rax        # 19848 <g_82>
    b869:	8b 10                	mov    (%rax),%edx
    b86b:	48 8b 05 d6 df 00 00 	mov    0xdfd6(%rip),%rax        # 19848 <g_82>
    b872:	83 e2 01             	and    $0x1,%edx
    b875:	89 10                	mov    %edx,(%rax)
    b877:	8b 85 64 e8 ff ff    	mov    -0x179c(%rbp),%eax
    b87d:	25 64 b4 00 00       	and    $0xb464,%eax
    b882:	89 85 64 e8 ff ff    	mov    %eax,-0x179c(%rbp)
    b888:	48 8b 15 81 c2 00 00 	mov    0xc281(%rip),%rdx        # 17b10 <g_174>
    b88f:	48 8b 85 f0 e9 ff ff 	mov    -0x1610(%rbp),%rax
    b896:	48 89 10             	mov    %rdx,(%rax)
    b899:	48 8b 85 f8 e9 ff ff 	mov    -0x1608(%rbp),%rax
    b8a0:	48 c7 00 00 00 00 00 	movq   $0x0,(%rax)
    b8a7:	48 8b 05 52 c2 00 00 	mov    0xc252(%rip),%rax        # 17b00 <g_172>
    b8ae:	83 bd 3c e8 ff ff 04 	cmpl   $0x4,-0x17c4(%rbp)
    b8b5:	0f 96 c0             	setbe  %al
    b8b8:	0f b6 c0             	movzbl %al,%eax
    b8bb:	89 85 00 ec ff ff    	mov    %eax,-0x1400(%rbp)
    b8c1:	8b 85 00 ec ff ff    	mov    -0x1400(%rbp),%eax
    b8c7:	0f b6 c0             	movzbl %al,%eax
    b8ca:	be 40 00 00 00       	mov    $0x40,%esi
    b8cf:	89 c7                	mov    %eax,%edi
    b8d1:	e8 05 c3 ff ff       	callq  7bdb <safe_div_func_uint8_t_u_u>
    b8d6:	0f b6 c0             	movzbl %al,%eax
    b8d9:	48 be 41 ed 8d 23 6d 	movabs $0x3ff2206d238ded41,%rsi
    b8e0:	20 f2 3f 
    b8e3:	48 89 c7             	mov    %rax,%rdi
    b8e6:	e8 43 c7 ff ff       	callq  802e <safe_add_func_uint64_t_u_u>
    b8eb:	89 c6                	mov    %eax,%esi
    b8ed:	bf 1e 00 00 00       	mov    $0x1e,%edi
    b8f2:	e8 51 c5 ff ff       	callq  7e48 <safe_rshift_func_uint16_t_u_s>
    b8f7:	48 c7 c1 ff ff ff ff 	mov    $0xffffffffffffffff,%rcx
    b8fe:	48 8b 05 43 df 00 00 	mov    0xdf43(%rip),%rax        # 19848 <g_82>
    b905:	8b 10                	mov    (%rax),%edx
    b907:	48 8b 05 3a df 00 00 	mov    0xdf3a(%rip),%rax        # 19848 <g_82>
    b90e:	31 ca                	xor    %ecx,%edx
    b910:	89 10                	mov    %edx,(%rax)
    b912:	e9 35 04 00 00       	jmpq   bd4c <func_53+0x2016>
    b917:	48 8d 85 30 f8 ff ff 	lea    -0x7d0(%rbp),%rax
    b91e:	48 8d 15 1b be 00 00 	lea    0xbe1b(%rip),%rdx        # 17740 <g_2787+0xf30>
    b925:	b9 38 00 00 00       	mov    $0x38,%ecx
    b92a:	48 89 c7             	mov    %rax,%rdi
    b92d:	48 89 d6             	mov    %rdx,%rsi
    b930:	f3 48 a5             	rep movsq %ds:(%rsi),%es:(%rdi)
    b933:	c7 85 9c e8 ff ff 01 	movl   $0x1,-0x1764(%rbp)
    b93a:	00 00 00 
    b93d:	48 8d 05 e4 9b 00 00 	lea    0x9be4(%rip),%rax        # 15528 <g_204>
    b944:	48 89 85 98 e9 ff ff 	mov    %rax,-0x1668(%rbp)
    b94b:	48 8d 05 22 9b 00 00 	lea    0x9b22(%rip),%rax        # 15474 <g_57+0x4>
    b952:	48 89 85 a0 e9 ff ff 	mov    %rax,-0x1660(%rbp)
    b959:	48 8d 05 b0 c1 00 00 	lea    0xc1b0(%rip),%rax        # 17b10 <g_174>
    b960:	48 89 85 a8 e9 ff ff 	mov    %rax,-0x1658(%rbp)
    b967:	48 8d 05 bb 9a 00 00 	lea    0x9abb(%rip),%rax        # 15429 <g_29+0x69>
    b96e:	48 89 85 70 e9 ff ff 	mov    %rax,-0x1690(%rbp)
    b975:	c7 85 90 e8 ff ff 00 	movl   $0x0,-0x1770(%rbp)
    b97c:	00 00 00 
    b97f:	eb 71                	jmp    b9f2 <func_53+0x1cbc>
    b981:	c7 85 8c e8 ff ff 00 	movl   $0x0,-0x1774(%rbp)
    b988:	00 00 00 
    b98b:	eb 55                	jmp    b9e2 <func_53+0x1cac>
    b98d:	c7 85 94 e8 ff ff 00 	movl   $0x0,-0x176c(%rbp)
    b994:	00 00 00 
    b997:	eb 39                	jmp    b9d2 <func_53+0x1c9c>
    b999:	8b 85 94 e8 ff ff    	mov    -0x176c(%rbp),%eax
    b99f:	48 98                	cltq   
    b9a1:	8b 95 90 e8 ff ff    	mov    -0x1770(%rbp),%edx
    b9a7:	48 63 ca             	movslq %edx,%rcx
    b9aa:	8b 95 8c e8 ff ff    	mov    -0x1774(%rbp),%edx
    b9b0:	48 63 d2             	movslq %edx,%rdx
    b9b3:	48 01 ca             	add    %rcx,%rdx
    b9b6:	48 01 d2             	add    %rdx,%rdx
    b9b9:	48 01 c2             	add    %rax,%rdx
    b9bc:	48 8d 85 08 e9 ff ff 	lea    -0x16f8(%rbp),%rax
    b9c3:	48 89 84 d5 20 f1 ff 	mov    %rax,-0xee0(%rbp,%rdx,8)
    b9ca:	ff 
    b9cb:	83 85 94 e8 ff ff 01 	addl   $0x1,-0x176c(%rbp)
    b9d2:	83 bd 94 e8 ff ff 01 	cmpl   $0x1,-0x176c(%rbp)
    b9d9:	7e be                	jle    b999 <func_53+0x1c63>
    b9db:	83 85 8c e8 ff ff 01 	addl   $0x1,-0x1774(%rbp)
    b9e2:	83 bd 8c e8 ff ff 00 	cmpl   $0x0,-0x1774(%rbp)
    b9e9:	7e a2                	jle    b98d <func_53+0x1c57>
    b9eb:	83 85 90 e8 ff ff 01 	addl   $0x1,-0x1770(%rbp)
    b9f2:	83 bd 90 e8 ff ff 01 	cmpl   $0x1,-0x1770(%rbp)
    b9f9:	7e 86                	jle    b981 <func_53+0x1c4b>
    b9fb:	c7 85 90 e8 ff ff 00 	movl   $0x0,-0x1770(%rbp)
    ba02:	00 00 00 
    ba05:	eb 1e                	jmp    ba25 <func_53+0x1cef>
    ba07:	8b 85 90 e8 ff ff    	mov    -0x1770(%rbp),%eax
    ba0d:	48 98                	cltq   
    ba0f:	48 8d 95 18 e9 ff ff 	lea    -0x16e8(%rbp),%rdx
    ba16:	48 89 94 c5 40 ef ff 	mov    %rdx,-0x10c0(%rbp,%rax,8)
    ba1d:	ff 
    ba1e:	83 85 90 e8 ff ff 01 	addl   $0x1,-0x1770(%rbp)
    ba25:	83 bd 90 e8 ff ff 00 	cmpl   $0x0,-0x1770(%rbp)
    ba2c:	7e d9                	jle    ba07 <func_53+0x1cd1>
    ba2e:	0f b7 05 8f 9a 00 00 	movzwl 0x9a8f(%rip),%eax        # 154c4 <g_190+0x4>
    ba35:	0f b6 d8             	movzbl %al,%ebx
    ba38:	0f b6 05 68 9a 00 00 	movzbl 0x9a68(%rip),%eax        # 154a7 <g_173+0x2>
    ba3f:	84 c0                	test   %al,%al
    ba41:	74 39                	je     ba7c <func_53+0x1d46>
    ba43:	44 8b a5 3c e8 ff ff 	mov    -0x17c4(%rbp),%r12d
    ba4a:	0f b6 85 58 e9 ff ff 	movzbl -0x16a8(%rbp),%eax
    ba51:	0f b6 c0             	movzbl %al,%eax
    ba54:	89 c6                	mov    %eax,%esi
    ba56:	bf 01 00 00 00       	mov    $0x1,%edi
    ba5b:	e8 a6 c3 ff ff       	callq  7e06 <safe_lshift_func_uint16_t_u_u>
    ba60:	0f b7 c0             	movzwl %ax,%eax
    ba63:	48 0b 85 30 e8 ff ff 	or     -0x17d0(%rbp),%rax
    ba6a:	49 39 c4             	cmp    %rax,%r12
    ba6d:	0f 94 c0             	sete   %al
    ba70:	0f b6 d0             	movzbl %al,%edx
    ba73:	48 8b 85 a0 e9 ff ff 	mov    -0x1660(%rbp),%rax
    ba7a:	89 10                	mov    %edx,(%rax)
    ba7c:	b8 00 00 00 00       	mov    $0x0,%eax
    ba81:	c7 85 9c e8 ff ff 00 	movl   $0x0,-0x1764(%rbp)
    ba88:	00 00 00 
    ba8b:	89 c6                	mov    %eax,%esi
    ba8d:	bf 00 00 00 00       	mov    $0x0,%edi
    ba92:	e8 e3 c3 ff ff       	callq  7e7a <safe_rshift_func_uint16_t_u_u>
    ba97:	0f b7 c0             	movzwl %ax,%eax
    ba9a:	be fb ff ff ff       	mov    $0xfffffffb,%esi
    ba9f:	89 c7                	mov    %eax,%edi
    baa1:	e8 7f c4 ff ff       	callq  7f25 <safe_div_func_uint32_t_u_u>
    baa6:	48 83 bd a8 e9 ff ff 	cmpq   $0x0,-0x1658(%rbp)
    baad:	00 
    baae:	0f 94 c0             	sete   %al
    bab1:	0f b6 c0             	movzbl %al,%eax
    bab4:	be ff ff ff ff       	mov    $0xffffffff,%esi
    bab9:	89 c7                	mov    %eax,%edi
    babb:	e8 52 b7 ff ff       	callq  7212 <safe_mul_func_int8_t_s_s>
    bac0:	0f b6 c0             	movzbl %al,%eax
    bac3:	89 de                	mov    %ebx,%esi
    bac5:	89 c7                	mov    %eax,%edi
    bac7:	e8 ac c0 ff ff       	callq  7b78 <safe_sub_func_uint8_t_u_u>
    bacc:	48 c7 c2 ff ff ff ff 	mov    $0xffffffffffffffff,%rdx
    bad3:	48 8b 85 70 e9 ff ff 	mov    -0x1690(%rbp),%rax
    bada:	8b 00                	mov    (%rax),%eax
    badc:	31 c2                	xor    %eax,%edx
    bade:	48 8b 85 70 e9 ff ff 	mov    -0x1690(%rbp),%rax
    bae5:	89 10                	mov    %edx,(%rax)
    bae7:	c6 85 58 e9 ff ff 00 	movb   $0x0,-0x16a8(%rbp)
    baee:	e9 2e 02 00 00       	jmpq   bd21 <func_53+0x1feb>
    baf3:	48 8d 05 6e bf 00 00 	lea    0xbf6e(%rip),%rax        # 17a68 <g_151+0xa8>
    bafa:	48 89 05 17 c0 00 00 	mov    %rax,0xc017(%rip)        # 17b18 <g_208>
    bb01:	c7 05 71 99 00 00 03 	movl   $0x3,0x9971(%rip)        # 1547c <g_57+0xc>
    bb08:	00 00 00 
    bb0b:	e9 f3 01 00 00       	jmpq   bd03 <func_53+0x1fcd>
    bb10:	c7 85 a0 e8 ff ff ff 	movl   $0xffffffff,-0x1760(%rbp)
    bb17:	ff ff ff 
    bb1a:	48 8d 85 60 e9 ff ff 	lea    -0x16a0(%rbp),%rax
    bb21:	48 89 85 78 e9 ff ff 	mov    %rax,-0x1688(%rbp)
    bb28:	c6 05 ed 99 00 00 00 	movb   $0x0,0x99ed(%rip)        # 1551c <g_202+0xc>
    bb2f:	e9 b1 01 00 00       	jmpq   bce5 <func_53+0x1faf>
    bb34:	48 c7 85 80 e9 ff ff 	movq   $0x7,-0x1680(%rbp)
    bb3b:	07 00 00 00 
    bb3f:	8b 05 37 99 00 00    	mov    0x9937(%rip),%eax        # 1547c <g_57+0xc>
    bb45:	48 63 d8             	movslq %eax,%rbx
    bb48:	48 83 bd 90 e9 ff ff 	cmpq   $0x0,-0x1670(%rbp)
    bb4f:	00 
    bb50:	0f 85 c7 00 00 00    	jne    bc1d <func_53+0x1ee7>
    bb56:	48 8b 85 28 e8 ff ff 	mov    -0x17d8(%rbp),%rax
    bb5d:	44 8b 20             	mov    (%rax),%r12d
    bb60:	8b 05 16 99 00 00    	mov    0x9916(%rip),%eax        # 1547c <g_57+0xc>
    bb66:	41 89 c6             	mov    %eax,%r14d
    bb69:	48 8b 85 80 e9 ff ff 	mov    -0x1680(%rbp),%rax
    bb70:	44 0f b6 e8          	movzbl %al,%r13d
    bb74:	48 8b 05 ad bf 00 00 	mov    0xbfad(%rip),%rax        # 17b28 <g_229>
    bb7b:	48 39 85 78 e9 ff ff 	cmp    %rax,-0x1688(%rbp)
    bb82:	0f 94 c0             	sete   %al
    bb85:	0f b6 c0             	movzbl %al,%eax
    bb88:	39 85 3c e8 ff ff    	cmp    %eax,-0x17c4(%rbp)
    bb8e:	0f 97 c0             	seta   %al
    bb91:	0f b6 d0             	movzbl %al,%edx
    bb94:	8b 85 3c e8 ff ff    	mov    -0x17c4(%rbp),%eax
    bb9a:	98                   	cwtl   
    bb9b:	89 d6                	mov    %edx,%esi
    bb9d:	89 c7                	mov    %eax,%edi
    bb9f:	e8 51 b8 ff ff       	callq  73f5 <safe_mul_func_int16_t_s_s>
    bba4:	0f b6 c0             	movzbl %al,%eax
    bba7:	44 89 ee             	mov    %r13d,%esi
    bbaa:	89 c7                	mov    %eax,%edi
    bbac:	e8 fd bf ff ff       	callq  7bae <safe_mod_func_uint8_t_u_u>
    bbb1:	89 c2                	mov    %eax,%edx
    bbb3:	48 8b 85 10 e9 ff ff 	mov    -0x16f0(%rbp),%rax
    bbba:	0f b6 d2             	movzbl %dl,%edx
    bbbd:	66 89 10             	mov    %dx,(%rax)
    bbc0:	0f b7 00             	movzwl (%rax),%eax
    bbc3:	44 09 f0             	or     %r14d,%eax
    bbc6:	0f b7 c0             	movzwl %ax,%eax
    bbc9:	be 0f 00 00 00       	mov    $0xf,%esi
    bbce:	89 c7                	mov    %eax,%edi
    bbd0:	e8 31 c2 ff ff       	callq  7e06 <safe_lshift_func_uint16_t_u_u>
    bbd5:	48 8b 85 70 e9 ff ff 	mov    -0x1690(%rbp),%rax
    bbdc:	8b 00                	mov    (%rax),%eax
    bbde:	39 85 3c e8 ff ff    	cmp    %eax,-0x17c4(%rbp)
    bbe4:	0f 93 c0             	setae  %al
    bbe7:	0f b6 c0             	movzbl %al,%eax
    bbea:	89 c6                	mov    %eax,%esi
    bbec:	bf 12 dd ff ff       	mov    $0xffffdd12,%edi
    bbf1:	e8 6d b9 ff ff       	callq  7563 <safe_rshift_func_int16_t_s_u>
    bbf6:	98                   	cwtl   
    bbf7:	44 89 e6             	mov    %r12d,%esi
    bbfa:	89 c7                	mov    %eax,%edi
    bbfc:	e8 fe ba ff ff       	callq  76ff <safe_div_func_int32_t_s_s>
    bc01:	8b 85 a0 e8 ff ff    	mov    -0x1760(%rbp),%eax
    bc07:	c1 e8 1f             	shr    $0x1f,%eax
    bc0a:	0f b6 c0             	movzbl %al,%eax
    bc0d:	be 00 00 00 00       	mov    $0x0,%esi
    bc12:	89 c7                	mov    %eax,%edi
    bc14:	e8 41 bf ff ff       	callq  7b5a <safe_add_func_uint8_t_u_u>
    bc19:	84 c0                	test   %al,%al
    bc1b:	74 07                	je     bc24 <func_53+0x1eee>
    bc1d:	b8 01 00 00 00       	mov    $0x1,%eax
    bc22:	eb 05                	jmp    bc29 <func_53+0x1ef3>
    bc24:	b8 00 00 00 00       	mov    $0x0,%eax
    bc29:	0f b6 d0             	movzbl %al,%edx
    bc2c:	0f b6 85 58 e9 ff ff 	movzbl -0x16a8(%rbp),%eax
    bc33:	0f b6 c0             	movzbl %al,%eax
    bc36:	48 98                	cltq   
    bc38:	48 8d 0d 66 98 00 00 	lea    0x9866(%rip),%rcx        # 154a5 <g_173>
    bc3f:	0f b6 04 08          	movzbl (%rax,%rcx,1),%eax
    bc43:	0f b6 c0             	movzbl %al,%eax
    bc46:	89 d6                	mov    %edx,%esi
    bc48:	89 c7                	mov    %eax,%edi
    bc4a:	e8 8c bf ff ff       	callq  7bdb <safe_div_func_uint8_t_u_u>
    bc4f:	48 89 de             	mov    %rbx,%rsi
    bc52:	bf 00 00 00 00       	mov    $0x0,%edi
    bc57:	e8 ef c3 ff ff       	callq  804b <safe_sub_func_uint64_t_u_u>
    bc5c:	0f b6 95 58 e9 ff ff 	movzbl -0x16a8(%rbp),%edx
    bc63:	0f b6 d2             	movzbl %dl,%edx
    bc66:	8b 0d 10 98 00 00    	mov    0x9810(%rip),%ecx        # 1547c <g_57+0xc>
    bc6c:	8d 79 03             	lea    0x3(%rcx),%edi
    bc6f:	0f b6 0d a6 98 00 00 	movzbl 0x98a6(%rip),%ecx        # 1551c <g_202+0xc>
    bc76:	0f b6 c9             	movzbl %cl,%ecx
    bc79:	41 89 c0             	mov    %eax,%r8d
    bc7c:	48 63 f1             	movslq %ecx,%rsi
    bc7f:	48 63 d2             	movslq %edx,%rdx
    bc82:	48 63 cf             	movslq %edi,%rcx
    bc85:	48 89 d0             	mov    %rdx,%rax
    bc88:	48 01 c0             	add    %rax,%rax
    bc8b:	48 01 d0             	add    %rdx,%rax
    bc8e:	48 8d 14 c5 00 00 00 	lea    0x0(,%rax,8),%rdx
    bc95:	00 
    bc96:	48 01 d0             	add    %rdx,%rax
    bc99:	48 01 c0             	add    %rax,%rax
    bc9c:	48 89 ca             	mov    %rcx,%rdx
    bc9f:	48 01 d2             	add    %rdx,%rdx
    bca2:	48 01 ca             	add    %rcx,%rdx
    bca5:	48 01 d2             	add    %rdx,%rdx
    bca8:	48 01 d0             	add    %rdx,%rax
    bcab:	48 01 f0             	add    %rsi,%rax
    bcae:	48 8d 14 85 00 00 00 	lea    0x0(,%rax,4),%rdx
    bcb5:	00 
    bcb6:	48 8d 05 83 93 00 00 	lea    0x9383(%rip),%rax        # 15040 <g_10>
    bcbd:	44 89 04 02          	mov    %r8d,(%rdx,%rax,1)
    bcc1:	48 8b 15 38 bc 00 00 	mov    0xbc38(%rip),%rdx        # 17900 <g_81>
    bcc8:	48 8b 05 31 bc 00 00 	mov    0xbc31(%rip),%rax        # 17900 <g_81>
    bccf:	48 8b 12             	mov    (%rdx),%rdx
    bcd2:	48 89 10             	mov    %rdx,(%rax)
    bcd5:	0f b6 05 40 98 00 00 	movzbl 0x9840(%rip),%eax        # 1551c <g_202+0xc>
    bcdc:	83 c0 01             	add    $0x1,%eax
    bcdf:	88 05 37 98 00 00    	mov    %al,0x9837(%rip)        # 1551c <g_202+0xc>
    bce5:	0f b6 05 30 98 00 00 	movzbl 0x9830(%rip),%eax        # 1551c <g_202+0xc>
    bcec:	3c 05                	cmp    $0x5,%al
    bcee:	0f 86 40 fe ff ff    	jbe    bb34 <func_53+0x1dfe>
    bcf4:	8b 05 82 97 00 00    	mov    0x9782(%rip),%eax        # 1547c <g_57+0xc>
    bcfa:	83 e8 01             	sub    $0x1,%eax
    bcfd:	89 05 79 97 00 00    	mov    %eax,0x9779(%rip)        # 1547c <g_57+0xc>
    bd03:	8b 05 73 97 00 00    	mov    0x9773(%rip),%eax        # 1547c <g_57+0xc>
    bd09:	85 c0                	test   %eax,%eax
    bd0b:	0f 89 ff fd ff ff    	jns    bb10 <func_53+0x1dda>
    bd11:	0f b6 85 58 e9 ff ff 	movzbl -0x16a8(%rbp),%eax
    bd18:	83 c0 01             	add    $0x1,%eax
    bd1b:	88 85 58 e9 ff ff    	mov    %al,-0x16a8(%rbp)
    bd21:	0f b6 85 58 e9 ff ff 	movzbl -0x16a8(%rbp),%eax
    bd28:	3c 03                	cmp    $0x3,%al
    bd2a:	0f 86 c3 fd ff ff    	jbe    baf3 <func_53+0x1dbd>
    bd30:	48 8b 85 18 e9 ff ff 	mov    -0x16e8(%rbp),%rax
    bd37:	48 89 85 18 e9 ff ff 	mov    %rax,-0x16e8(%rbp)
    bd3e:	48 8b 85 18 e9 ff ff 	mov    -0x16e8(%rbp),%rax
    bd45:	48 89 05 ac c0 00 00 	mov    %rax,0xc0ac(%rip)        # 17df8 <g_236+0x2b8>
    bd4c:	48 8b 85 28 e8 ff ff 	mov    -0x17d8(%rbp),%rax
    bd53:	48 89 85 e0 ed ff ff 	mov    %rax,-0x1220(%rbp)
    bd5a:	66 c7 85 52 e8 ff ff 	movw   $0x0,-0x17ae(%rbp)
    bd61:	00 00 
    bd63:	e9 3e 17 00 00       	jmpq   d4a6 <func_53+0x3770>
    bd68:	c7 85 00 ec ff ff d4 	movl   $0xa14511d4,-0x1400(%rbp)
    bd6f:	11 45 a1 
    bd72:	c7 85 04 ec ff ff d4 	movl   $0xa14511d4,-0x13fc(%rbp)
    bd79:	11 45 a1 
    bd7c:	c7 85 08 ec ff ff d4 	movl   $0xa14511d4,-0x13f8(%rbp)
    bd83:	11 45 a1 
    bd86:	c7 85 0c ec ff ff d4 	movl   $0xa14511d4,-0x13f4(%rbp)
    bd8d:	11 45 a1 
    bd90:	c7 85 10 ec ff ff d4 	movl   $0xa14511d4,-0x13f0(%rbp)
    bd97:	11 45 a1 
    bd9a:	c7 85 68 e8 ff ff c9 	movl   $0x245780c9,-0x1798(%rbp)
    bda1:	80 57 24 
    bda4:	c7 85 c4 e8 ff ff ff 	movl   $0xffffffff,-0x173c(%rbp)
    bdab:	ff ff ff 
    bdae:	c7 85 6c e8 ff ff ab 	movl   $0xcd7aabab,-0x1794(%rbp)
    bdb5:	ab 7a cd 
    bdb8:	c7 85 c8 e8 ff ff 77 	movl   $0x1d787a77,-0x1738(%rbp)
    bdbf:	7a 78 1d 
    bdc2:	c7 85 cc e8 ff ff 00 	movl   $0x0,-0x1734(%rbp)
    bdc9:	00 00 00 
    bdcc:	c7 85 d0 e8 ff ff c7 	movl   $0x27f254c7,-0x1730(%rbp)
    bdd3:	54 f2 27 
    bdd6:	c7 85 d4 e8 ff ff fb 	movl   $0xfffffffb,-0x172c(%rbp)
    bddd:	ff ff ff 
    bde0:	c7 85 40 ef ff ff 01 	movl   $0x1,-0x10c0(%rbp)
    bde7:	00 00 00 
    bdea:	c7 85 44 ef ff ff f8 	movl   $0xfffffff8,-0x10bc(%rbp)
    bdf1:	ff ff ff 
    bdf4:	c7 85 48 ef ff ff f8 	movl   $0xfffffff8,-0x10b8(%rbp)
    bdfb:	ff ff ff 
    bdfe:	c7 85 4c ef ff ff 01 	movl   $0x1,-0x10b4(%rbp)
    be05:	00 00 00 
    be08:	c7 85 50 ef ff ff 01 	movl   $0x1,-0x10b0(%rbp)
    be0f:	00 00 00 
    be12:	c7 85 54 ef ff ff f8 	movl   $0xfffffff8,-0x10ac(%rbp)
    be19:	ff ff ff 
    be1c:	c7 85 58 ef ff ff f8 	movl   $0xfffffff8,-0x10a8(%rbp)
    be23:	ff ff ff 
    be26:	c7 85 5c ef ff ff 01 	movl   $0x1,-0x10a4(%rbp)
    be2d:	00 00 00 
    be30:	c7 85 60 ef ff ff 01 	movl   $0x1,-0x10a0(%rbp)
    be37:	00 00 00 
    be3a:	c7 85 64 ef ff ff 0e 	movl   $0xa601570e,-0x109c(%rbp)
    be41:	57 01 a6 
    be44:	c7 85 68 ef ff ff ff 	movl   $0xffffffff,-0x1098(%rbp)
    be4b:	ff ff ff 
    be4e:	c7 85 6c ef ff ff 0e 	movl   $0xa601570e,-0x1094(%rbp)
    be55:	57 01 a6 
    be58:	c7 85 70 ef ff ff ff 	movl   $0xffffffff,-0x1090(%rbp)
    be5f:	ff ff ff 
    be62:	c7 85 74 ef ff ff 0e 	movl   $0xa601570e,-0x108c(%rbp)
    be69:	57 01 a6 
    be6c:	c7 85 78 ef ff ff ff 	movl   $0xffffffff,-0x1088(%rbp)
    be73:	ff ff ff 
    be76:	c7 85 7c ef ff ff 0e 	movl   $0xa601570e,-0x1084(%rbp)
    be7d:	57 01 a6 
    be80:	c7 85 80 ef ff ff ff 	movl   $0xffffffff,-0x1080(%rbp)
    be87:	ff ff ff 
    be8a:	c7 85 84 ef ff ff 0e 	movl   $0xa601570e,-0x107c(%rbp)
    be91:	57 01 a6 
    be94:	c7 85 88 ef ff ff 01 	movl   $0x1,-0x1078(%rbp)
    be9b:	00 00 00 
    be9e:	c7 85 8c ef ff ff 01 	movl   $0x1,-0x1074(%rbp)
    bea5:	00 00 00 
    bea8:	c7 85 90 ef ff ff f8 	movl   $0xfffffff8,-0x1070(%rbp)
    beaf:	ff ff ff 
    beb2:	c7 85 94 ef ff ff f8 	movl   $0xfffffff8,-0x106c(%rbp)
    beb9:	ff ff ff 
    bebc:	c7 85 98 ef ff ff 01 	movl   $0x1,-0x1068(%rbp)
    bec3:	00 00 00 
    bec6:	c7 85 9c ef ff ff 01 	movl   $0x1,-0x1064(%rbp)
    becd:	00 00 00 
    bed0:	c7 85 a0 ef ff ff f8 	movl   $0xfffffff8,-0x1060(%rbp)
    bed7:	ff ff ff 
    beda:	c7 85 a4 ef ff ff f8 	movl   $0xfffffff8,-0x105c(%rbp)
    bee1:	ff ff ff 
    bee4:	c7 85 a8 ef ff ff 01 	movl   $0x1,-0x1058(%rbp)
    beeb:	00 00 00 
    beee:	c7 85 ac ef ff ff 37 	movl   $0xf3de1e37,-0x1054(%rbp)
    bef5:	1e de f3 
    bef8:	c7 85 b0 ef ff ff ff 	movl   $0xffffffff,-0x1050(%rbp)
    beff:	ff ff ff 
    bf02:	c7 85 b4 ef ff ff 37 	movl   $0xf3de1e37,-0x104c(%rbp)
    bf09:	1e de f3 
    bf0c:	c7 85 b8 ef ff ff ff 	movl   $0xffffffff,-0x1048(%rbp)
    bf13:	ff ff ff 
    bf16:	c7 85 bc ef ff ff 37 	movl   $0xf3de1e37,-0x1044(%rbp)
    bf1d:	1e de f3 
    bf20:	c7 85 c0 ef ff ff ff 	movl   $0xffffffff,-0x1040(%rbp)
    bf27:	ff ff ff 
    bf2a:	c7 85 c4 ef ff ff 37 	movl   $0xf3de1e37,-0x103c(%rbp)
    bf31:	1e de f3 
    bf34:	c7 85 c8 ef ff ff ff 	movl   $0xffffffff,-0x1038(%rbp)
    bf3b:	ff ff ff 
    bf3e:	c7 85 cc ef ff ff 37 	movl   $0xf3de1e37,-0x1034(%rbp)
    bf45:	1e de f3 
    bf48:	c7 85 d0 ef ff ff 01 	movl   $0x1,-0x1030(%rbp)
    bf4f:	00 00 00 
    bf52:	c7 85 d4 ef ff ff f8 	movl   $0xfffffff8,-0x102c(%rbp)
    bf59:	ff ff ff 
    bf5c:	c7 85 d8 ef ff ff f8 	movl   $0xfffffff8,-0x1028(%rbp)
    bf63:	ff ff ff 
    bf66:	c7 85 dc ef ff ff 01 	movl   $0x1,-0x1024(%rbp)
    bf6d:	00 00 00 
    bf70:	c7 85 e0 ef ff ff 01 	movl   $0x1,-0x1020(%rbp)
    bf77:	00 00 00 
    bf7a:	c7 85 e4 ef ff ff f8 	movl   $0xfffffff8,-0x101c(%rbp)
    bf81:	ff ff ff 
    bf84:	c7 85 e8 ef ff ff f8 	movl   $0xfffffff8,-0x1018(%rbp)
    bf8b:	ff ff ff 
    bf8e:	c7 85 ec ef ff ff 01 	movl   $0x1,-0x1014(%rbp)
    bf95:	00 00 00 
    bf98:	c7 85 f0 ef ff ff 01 	movl   $0x1,-0x1010(%rbp)
    bf9f:	00 00 00 
    bfa2:	66 c7 85 58 e8 ff ff 	movw   $0x1,-0x17a8(%rbp)
    bfa9:	01 00 
    bfab:	48 b8 da 00 0c d5 d0 	movabs $0xdb88c4d0d50c00da,%rax
    bfb2:	c4 88 db 
    bfb5:	48 89 85 30 e9 ff ff 	mov    %rax,-0x16d0(%rbp)
    bfbc:	c6 85 50 e8 ff ff ed 	movb   $0xed,-0x17b0(%rbp)
    bfc3:	48 c7 85 30 e8 ff ff 	movq   $0xffffffffffffffee,-0x17d0(%rbp)
    bfca:	ee ff ff ff 
    bfce:	48 83 bd 30 e8 ff ff 	cmpq   $0x1a,-0x17d0(%rbp)
    bfd5:	1a 
    bfd6:	0f 86 85 14 00 00    	jbe    d461 <func_53+0x372b>
    bfdc:	48 8d 05 45 95 00 00 	lea    0x9545(%rip),%rax        # 15528 <g_204>
    bfe3:	48 89 85 78 ea ff ff 	mov    %rax,-0x1588(%rbp)
    bfea:	c7 85 d8 e8 ff ff 00 	movl   $0x0,-0x1728(%rbp)
    bff1:	00 00 00 
    bff4:	48 8d 05 e5 bf 00 00 	lea    0xbfe5(%rip),%rax        # 17fe0 <g_236+0x4a0>
    bffb:	48 89 85 80 ea ff ff 	mov    %rax,-0x1580(%rbp)
    c002:	c7 85 70 e8 ff ff 39 	movl   $0x4318b939,-0x1790(%rbp)
    c009:	b9 18 43 
    c00c:	c7 85 dc e8 ff ff a8 	movl   $0xac8fd1a8,-0x1724(%rbp)
    c013:	d1 8f ac 
    c016:	c7 85 74 e8 ff ff 15 	movl   $0xd73bd415,-0x178c(%rbp)
    c01d:	d4 3b d7 
    c020:	c7 85 e0 e8 ff ff 2b 	movl   $0xf344222b,-0x1720(%rbp)
    c027:	22 44 f3 
    c02a:	c7 85 e4 e8 ff ff 5e 	movl   $0x83d8c45e,-0x171c(%rbp)
    c031:	c4 d8 83 
    c034:	c7 85 78 e8 ff ff fc 	movl   $0xfffffffc,-0x1788(%rbp)
    c03b:	ff ff ff 
    c03e:	48 c7 85 88 ea ff ff 	movq   $0xfffffffffffffffd,-0x1578(%rbp)
    c045:	fd ff ff ff 
    c049:	c7 85 e8 e8 ff ff ff 	movl   $0xffffffff,-0x1718(%rbp)
    c050:	ff ff ff 
    c053:	c7 85 20 ec ff ff 07 	movl   $0x7,-0x13e0(%rbp)
    c05a:	00 00 00 
    c05d:	c7 85 24 ec ff ff ff 	movl   $0xffffffff,-0x13dc(%rbp)
    c064:	ff ff ff 
    c067:	c7 85 28 ec ff ff 07 	movl   $0x7,-0x13d8(%rbp)
    c06e:	00 00 00 
    c071:	c7 85 2c ec ff ff 07 	movl   $0x7,-0x13d4(%rbp)
    c078:	00 00 00 
    c07b:	c7 85 30 ec ff ff ff 	movl   $0xffffffff,-0x13d0(%rbp)
    c082:	ff ff ff 
    c085:	c7 85 34 ec ff ff 07 	movl   $0x7,-0x13cc(%rbp)
    c08c:	00 00 00 
    c08f:	c7 85 38 ec ff ff 07 	movl   $0x7,-0x13c8(%rbp)
    c096:	00 00 00 
    c099:	c7 85 3c ec ff ff ff 	movl   $0xffffffff,-0x13c4(%rbp)
    c0a0:	ff ff ff 
    c0a3:	c7 85 40 ec ff ff 07 	movl   $0x7,-0x13c0(%rbp)
    c0aa:	00 00 00 
    c0ad:	66 c7 85 5a e8 ff ff 	movw   $0x4,-0x17a6(%rbp)
    c0b4:	04 00 
    c0b6:	66 c7 85 54 e8 ff ff 	movw   $0x4,-0x17ac(%rbp)
    c0bd:	04 00 
    c0bf:	c6 85 4e e8 ff ff fe 	movb   $0xfe,-0x17b2(%rbp)
    c0c6:	48 8d 85 6c e8 ff ff 	lea    -0x1794(%rbp),%rax
    c0cd:	48 89 85 90 ea ff ff 	mov    %rax,-0x1570(%rbp)
    c0d4:	48 8d 05 0d 99 00 00 	lea    0x990d(%rip),%rax        # 159e8 <g_248+0x8>
    c0db:	48 89 85 c0 ec ff ff 	mov    %rax,-0x1340(%rbp)
    c0e2:	48 8d 05 ff 98 00 00 	lea    0x98ff(%rip),%rax        # 159e8 <g_248+0x8>
    c0e9:	48 89 85 c8 ec ff ff 	mov    %rax,-0x1338(%rbp)
    c0f0:	48 8d 05 f1 98 00 00 	lea    0x98f1(%rip),%rax        # 159e8 <g_248+0x8>
    c0f7:	48 89 85 d0 ec ff ff 	mov    %rax,-0x1330(%rbp)
    c0fe:	48 8d 05 e3 98 00 00 	lea    0x98e3(%rip),%rax        # 159e8 <g_248+0x8>
    c105:	48 89 85 d8 ec ff ff 	mov    %rax,-0x1328(%rbp)
    c10c:	48 8d 05 d5 98 00 00 	lea    0x98d5(%rip),%rax        # 159e8 <g_248+0x8>
    c113:	48 89 85 e0 ec ff ff 	mov    %rax,-0x1320(%rbp)
    c11a:	48 8d 85 c0 ec ff ff 	lea    -0x1340(%rbp),%rax
    c121:	48 83 c0 10          	add    $0x10,%rax
    c125:	48 89 85 38 e9 ff ff 	mov    %rax,-0x16c8(%rbp)
    c12c:	48 8d 85 38 e9 ff ff 	lea    -0x16c8(%rbp),%rax
    c133:	48 89 85 98 ea ff ff 	mov    %rax,-0x1568(%rbp)
    c13a:	48 8d 05 fc 97 00 00 	lea    0x97fc(%rip),%rax        # 1593d <g_237+0x3fd>
    c141:	48 89 85 40 e9 ff ff 	mov    %rax,-0x16c0(%rbp)
    c148:	48 8d 85 40 e9 ff ff 	lea    -0x16c0(%rbp),%rax
    c14f:	48 89 85 a0 ea ff ff 	mov    %rax,-0x1560(%rbp)
    c156:	c6 05 bf 93 00 00 f6 	movb   $0xf6,0x93bf(%rip)        # 1551c <g_202+0xc>
    c15d:	e9 04 12 00 00       	jmpq   d366 <func_53+0x3630>
    c162:	48 8d 05 df d6 00 00 	lea    0xd6df(%rip),%rax        # 19848 <g_82>
    c169:	48 89 85 48 e9 ff ff 	mov    %rax,-0x16b8(%rbp)
    c170:	48 8d 85 18 e9 ff ff 	lea    -0x16e8(%rbp),%rax
    c177:	48 89 85 a8 ea ff ff 	mov    %rax,-0x1558(%rbp)
    c17e:	c7 85 7c e8 ff ff f7 	movl   $0xfffffff7,-0x1784(%rbp)
    c185:	ff ff ff 
    c188:	c7 85 ec e8 ff ff eb 	movl   $0x674188eb,-0x1714(%rbp)
    c18f:	88 41 67 
    c192:	c7 85 80 e8 ff ff ac 	movl   $0x7cfbfaac,-0x1780(%rbp)
    c199:	fa fb 7c 
    c19c:	c7 85 f0 e8 ff ff 56 	movl   $0x1cdcff56,-0x1710(%rbp)
    c1a3:	ff dc 1c 
    c1a6:	c7 85 f4 e8 ff ff 01 	movl   $0x1,-0x170c(%rbp)
    c1ad:	00 00 00 
    c1b0:	c7 85 84 e8 ff ff 9d 	movl   $0x620f809d,-0x177c(%rbp)
    c1b7:	80 0f 62 
    c1ba:	c6 85 51 e8 ff ff da 	movb   $0xda,-0x17af(%rbp)
    c1c1:	c7 85 f8 e8 ff ff 06 	movl   $0x6,-0x1708(%rbp)
    c1c8:	00 00 00 
    c1cb:	c7 85 fc e8 ff ff 74 	movl   $0x3286da74,-0x1704(%rbp)
    c1d2:	da 86 32 
    c1d5:	c7 85 88 e8 ff ff 95 	movl   $0x35204195,-0x1778(%rbp)
    c1dc:	41 20 35 
    c1df:	48 8d 85 78 e8 ff ff 	lea    -0x1788(%rbp),%rax
    c1e6:	48 89 85 20 f1 ff ff 	mov    %rax,-0xee0(%rbp)
    c1ed:	48 8d 85 a0 eb ff ff 	lea    -0x1460(%rbp),%rax
    c1f4:	48 89 85 28 f1 ff ff 	mov    %rax,-0xed8(%rbp)
    c1fb:	48 8d 85 a0 eb ff ff 	lea    -0x1460(%rbp),%rax
    c202:	48 89 85 30 f1 ff ff 	mov    %rax,-0xed0(%rbp)
    c209:	48 8d 85 78 e8 ff ff 	lea    -0x1788(%rbp),%rax
    c210:	48 89 85 38 f1 ff ff 	mov    %rax,-0xec8(%rbp)
    c217:	48 c7 85 40 f1 ff ff 	movq   $0x0,-0xec0(%rbp)
    c21e:	00 00 00 00 
    c222:	48 8d 85 74 e8 ff ff 	lea    -0x178c(%rbp),%rax
    c229:	48 89 85 48 f1 ff ff 	mov    %rax,-0xeb8(%rbp)
    c230:	48 8d 85 a0 eb ff ff 	lea    -0x1460(%rbp),%rax
    c237:	48 89 85 50 f1 ff ff 	mov    %rax,-0xeb0(%rbp)
    c23e:	48 8d 05 0b 8e 00 00 	lea    0x8e0b(%rip),%rax        # 15050 <g_10+0x10>
    c245:	48 89 85 58 f1 ff ff 	mov    %rax,-0xea8(%rbp)
    c24c:	48 8d 85 78 e8 ff ff 	lea    -0x1788(%rbp),%rax
    c253:	48 89 85 60 f1 ff ff 	mov    %rax,-0xea0(%rbp)
    c25a:	48 8d 85 70 e8 ff ff 	lea    -0x1790(%rbp),%rax
    c261:	48 89 85 68 f1 ff ff 	mov    %rax,-0xe98(%rbp)
    c268:	48 8d 85 64 e8 ff ff 	lea    -0x179c(%rbp),%rax
    c26f:	48 89 85 70 f1 ff ff 	mov    %rax,-0xe90(%rbp)
    c276:	48 8d 85 70 e8 ff ff 	lea    -0x1790(%rbp),%rax
    c27d:	48 89 85 78 f1 ff ff 	mov    %rax,-0xe88(%rbp)
    c284:	48 8d 85 70 e8 ff ff 	lea    -0x1790(%rbp),%rax
    c28b:	48 89 85 80 f1 ff ff 	mov    %rax,-0xe80(%rbp)
    c292:	48 8d 85 a0 eb ff ff 	lea    -0x1460(%rbp),%rax
    c299:	48 89 85 88 f1 ff ff 	mov    %rax,-0xe78(%rbp)
    c2a0:	48 c7 85 90 f1 ff ff 	movq   $0x0,-0xe70(%rbp)
    c2a7:	00 00 00 00 
    c2ab:	48 8d 85 70 e8 ff ff 	lea    -0x1790(%rbp),%rax
    c2b2:	48 89 85 98 f1 ff ff 	mov    %rax,-0xe68(%rbp)
    c2b9:	48 c7 85 a0 f1 ff ff 	movq   $0x0,-0xe60(%rbp)
    c2c0:	00 00 00 00 
    c2c4:	48 8d 85 70 e8 ff ff 	lea    -0x1790(%rbp),%rax
    c2cb:	48 89 85 a8 f1 ff ff 	mov    %rax,-0xe58(%rbp)
    c2d2:	48 8d 05 77 8d 00 00 	lea    0x8d77(%rip),%rax        # 15050 <g_10+0x10>
    c2d9:	48 89 85 b0 f1 ff ff 	mov    %rax,-0xe50(%rbp)
    c2e0:	48 8d 05 69 8d 00 00 	lea    0x8d69(%rip),%rax        # 15050 <g_10+0x10>
    c2e7:	48 89 85 b8 f1 ff ff 	mov    %rax,-0xe48(%rbp)
    c2ee:	48 8d 85 74 e8 ff ff 	lea    -0x178c(%rbp),%rax
    c2f5:	48 89 85 c0 f1 ff ff 	mov    %rax,-0xe40(%rbp)
    c2fc:	48 8d 85 74 e8 ff ff 	lea    -0x178c(%rbp),%rax
    c303:	48 89 85 c8 f1 ff ff 	mov    %rax,-0xe38(%rbp)
    c30a:	48 8d 85 64 e8 ff ff 	lea    -0x179c(%rbp),%rax
    c311:	48 89 85 d0 f1 ff ff 	mov    %rax,-0xe30(%rbp)
    c318:	48 8d 85 78 e8 ff ff 	lea    -0x1788(%rbp),%rax
    c31f:	48 89 85 d8 f1 ff ff 	mov    %rax,-0xe28(%rbp)
    c326:	48 8d 85 74 e8 ff ff 	lea    -0x178c(%rbp),%rax
    c32d:	48 89 85 e0 f1 ff ff 	mov    %rax,-0xe20(%rbp)
    c334:	48 8d 85 a0 eb ff ff 	lea    -0x1460(%rbp),%rax
    c33b:	48 89 85 e8 f1 ff ff 	mov    %rax,-0xe18(%rbp)
    c342:	48 8d 05 07 8d 00 00 	lea    0x8d07(%rip),%rax        # 15050 <g_10+0x10>
    c349:	48 89 85 f0 f1 ff ff 	mov    %rax,-0xe10(%rbp)
    c350:	48 8d 85 74 e8 ff ff 	lea    -0x178c(%rbp),%rax
    c357:	48 89 85 f8 f1 ff ff 	mov    %rax,-0xe08(%rbp)
    c35e:	48 c7 85 00 f2 ff ff 	movq   $0x0,-0xe00(%rbp)
    c365:	00 00 00 00 
    c369:	48 8d 85 78 e8 ff ff 	lea    -0x1788(%rbp),%rax
    c370:	48 89 85 08 f2 ff ff 	mov    %rax,-0xdf8(%rbp)
    c377:	48 c7 85 10 f2 ff ff 	movq   $0x0,-0xdf0(%rbp)
    c37e:	00 00 00 00 
    c382:	48 8d 05 c7 8c 00 00 	lea    0x8cc7(%rip),%rax        # 15050 <g_10+0x10>
    c389:	48 89 85 18 f2 ff ff 	mov    %rax,-0xde8(%rbp)
    c390:	48 8d 85 70 e8 ff ff 	lea    -0x1790(%rbp),%rax
    c397:	48 89 85 20 f2 ff ff 	mov    %rax,-0xde0(%rbp)
    c39e:	48 8d 85 78 e8 ff ff 	lea    -0x1788(%rbp),%rax
    c3a5:	48 89 85 28 f2 ff ff 	mov    %rax,-0xdd8(%rbp)
    c3ac:	48 8d 85 64 e8 ff ff 	lea    -0x179c(%rbp),%rax
    c3b3:	48 89 85 30 f2 ff ff 	mov    %rax,-0xdd0(%rbp)
    c3ba:	48 8d 85 74 e8 ff ff 	lea    -0x178c(%rbp),%rax
    c3c1:	48 89 85 38 f2 ff ff 	mov    %rax,-0xdc8(%rbp)
    c3c8:	48 8d 85 78 e8 ff ff 	lea    -0x1788(%rbp),%rax
    c3cf:	48 89 85 40 f2 ff ff 	mov    %rax,-0xdc0(%rbp)
    c3d6:	48 8d 85 a0 eb ff ff 	lea    -0x1460(%rbp),%rax
    c3dd:	48 89 85 48 f2 ff ff 	mov    %rax,-0xdb8(%rbp)
    c3e4:	48 8d 85 64 e8 ff ff 	lea    -0x179c(%rbp),%rax
    c3eb:	48 89 85 50 f2 ff ff 	mov    %rax,-0xdb0(%rbp)
    c3f2:	48 8d 85 a0 eb ff ff 	lea    -0x1460(%rbp),%rax
    c3f9:	48 89 85 58 f2 ff ff 	mov    %rax,-0xda8(%rbp)
    c400:	48 c7 85 60 f2 ff ff 	movq   $0x0,-0xda0(%rbp)
    c407:	00 00 00 00 
    c40b:	48 c7 85 68 f2 ff ff 	movq   $0x0,-0xd98(%rbp)
    c412:	00 00 00 00 
    c416:	48 8d 85 64 e8 ff ff 	lea    -0x179c(%rbp),%rax
    c41d:	48 89 85 70 f2 ff ff 	mov    %rax,-0xd90(%rbp)
    c424:	48 8d 85 20 ec ff ff 	lea    -0x13e0(%rbp),%rax
    c42b:	48 89 85 78 f2 ff ff 	mov    %rax,-0xd88(%rbp)
    c432:	48 8d 85 a0 eb ff ff 	lea    -0x1460(%rbp),%rax
    c439:	48 89 85 80 f2 ff ff 	mov    %rax,-0xd80(%rbp)
    c440:	48 8d 05 09 8c 00 00 	lea    0x8c09(%rip),%rax        # 15050 <g_10+0x10>
    c447:	48 89 85 88 f2 ff ff 	mov    %rax,-0xd78(%rbp)
    c44e:	48 8d 85 74 e8 ff ff 	lea    -0x178c(%rbp),%rax
    c455:	48 89 85 90 f2 ff ff 	mov    %rax,-0xd70(%rbp)
    c45c:	48 8d 05 ed 8b 00 00 	lea    0x8bed(%rip),%rax        # 15050 <g_10+0x10>
    c463:	48 89 85 98 f2 ff ff 	mov    %rax,-0xd68(%rbp)
    c46a:	48 8d 05 df 8b 00 00 	lea    0x8bdf(%rip),%rax        # 15050 <g_10+0x10>
    c471:	48 89 85 a0 f2 ff ff 	mov    %rax,-0xd60(%rbp)
    c478:	48 8d 85 64 e8 ff ff 	lea    -0x179c(%rbp),%rax
    c47f:	48 89 85 a8 f2 ff ff 	mov    %rax,-0xd58(%rbp)
    c486:	48 c7 85 b0 f2 ff ff 	movq   $0x0,-0xd50(%rbp)
    c48d:	00 00 00 00 
    c491:	48 8d 05 b8 8b 00 00 	lea    0x8bb8(%rip),%rax        # 15050 <g_10+0x10>
    c498:	48 89 85 b8 f2 ff ff 	mov    %rax,-0xd48(%rbp)
    c49f:	48 c7 85 c0 f2 ff ff 	movq   $0x0,-0xd40(%rbp)
    c4a6:	00 00 00 00 
    c4aa:	48 8d 05 9f 8b 00 00 	lea    0x8b9f(%rip),%rax        # 15050 <g_10+0x10>
    c4b1:	48 89 85 c8 f2 ff ff 	mov    %rax,-0xd38(%rbp)
    c4b8:	48 8d 85 20 ec ff ff 	lea    -0x13e0(%rbp),%rax
    c4bf:	48 89 85 d0 f2 ff ff 	mov    %rax,-0xd30(%rbp)
    c4c6:	48 8d 85 20 ec ff ff 	lea    -0x13e0(%rbp),%rax
    c4cd:	48 89 85 d8 f2 ff ff 	mov    %rax,-0xd28(%rbp)
    c4d4:	48 c7 85 e0 f2 ff ff 	movq   $0x0,-0xd20(%rbp)
    c4db:	00 00 00 00 
    c4df:	48 c7 85 e8 f2 ff ff 	movq   $0x0,-0xd18(%rbp)
    c4e6:	00 00 00 00 
    c4ea:	48 8d 85 74 e8 ff ff 	lea    -0x178c(%rbp),%rax
    c4f1:	48 89 85 f0 f2 ff ff 	mov    %rax,-0xd10(%rbp)
    c4f8:	48 8d 85 a0 eb ff ff 	lea    -0x1460(%rbp),%rax
    c4ff:	48 89 85 f8 f2 ff ff 	mov    %rax,-0xd08(%rbp)
    c506:	48 8d 85 20 f1 ff ff 	lea    -0xee0(%rbp),%rax
    c50d:	48 83 c0 30          	add    $0x30,%rax
    c511:	48 89 85 50 e9 ff ff 	mov    %rax,-0x16b0(%rbp)
    c518:	48 8d 85 50 e9 ff ff 	lea    -0x16b0(%rbp),%rax
    c51f:	48 89 85 58 e9 ff ff 	mov    %rax,-0x16a8(%rbp)
    c526:	48 8d 85 58 e9 ff ff 	lea    -0x16a8(%rbp),%rax
    c52d:	48 89 85 b0 ea ff ff 	mov    %rax,-0x1550(%rbp)
    c534:	c7 85 b4 e8 ff ff 00 	movl   $0x0,-0x174c(%rbp)
    c53b:	00 00 00 
    c53e:	eb 1a                	jmp    c55a <func_53+0x2824>
    c540:	8b 85 b4 e8 ff ff    	mov    -0x174c(%rbp),%eax
    c546:	48 98                	cltq   
    c548:	c7 84 85 94 eb ff ff 	movl   $0x1,-0x146c(%rbp,%rax,4)
    c54f:	01 00 00 00 
    c553:	83 85 b4 e8 ff ff 01 	addl   $0x1,-0x174c(%rbp)
    c55a:	83 bd b4 e8 ff ff 02 	cmpl   $0x2,-0x174c(%rbp)
    c561:	7e dd                	jle    c540 <func_53+0x280a>
    c563:	c7 85 b4 e8 ff ff 00 	movl   $0x0,-0x174c(%rbp)
    c56a:	00 00 00 
    c56d:	eb 1b                	jmp    c58a <func_53+0x2854>
    c56f:	8b 85 b4 e8 ff ff    	mov    -0x174c(%rbp),%eax
    c575:	48 98                	cltq   
    c577:	48 c7 84 c5 e0 eb ff 	movq   $0x0,-0x1420(%rbp,%rax,8)
    c57e:	ff 00 00 00 00 
    c583:	83 85 b4 e8 ff ff 01 	addl   $0x1,-0x174c(%rbp)
    c58a:	83 bd b4 e8 ff ff 01 	cmpl   $0x1,-0x174c(%rbp)
    c591:	7e dc                	jle    c56f <func_53+0x2839>
    c593:	8b 05 3f 94 00 00    	mov    0x943f(%rip),%eax        # 159d8 <g_246>
    c599:	8b 95 04 ec ff ff    	mov    -0x13fc(%rbp),%edx
    c59f:	48 8d 05 82 8f 00 00 	lea    0x8f82(%rip),%rax        # 15528 <g_204>
    c5a6:	48 39 85 78 ea ff ff 	cmp    %rax,-0x1588(%rbp)
    c5ad:	0f 95 c0             	setne  %al
    c5b0:	0f b6 c0             	movzbl %al,%eax
    c5b3:	09 d0                	or     %edx,%eax
    c5b5:	85 c0                	test   %eax,%eax
    c5b7:	0f 84 87 0b 00 00    	je     d144 <func_53+0x340e>
    c5bd:	48 c7 85 b8 ea ff ff 	movq   $0x0,-0x1548(%rbp)
    c5c4:	00 00 00 00 
    c5c8:	48 8d 85 30 f8 ff ff 	lea    -0x7d0(%rbp),%rax
    c5cf:	48 8d 15 0a 54 00 00 	lea    0x540a(%rip),%rdx        # 119e0 <g_2793+0x940>
    c5d6:	b9 7e 00 00 00       	mov    $0x7e,%ecx
    c5db:	48 89 c7             	mov    %rax,%rdi
    c5de:	48 89 d6             	mov    %rdx,%rsi
    c5e1:	f3 48 a5             	rep movsq %ds:(%rsi),%es:(%rdi)
    c5e4:	48 c7 85 e8 e9 ff ff 	movq   $0x0,-0x1618(%rbp)
    c5eb:	00 00 00 00 
    c5ef:	66 c7 85 5c e8 ff ff 	movw   $0x4656,-0x17a4(%rbp)
    c5f6:	56 46 
    c5f8:	66 c7 85 5e e8 ff ff 	movw   $0xa395,-0x17a2(%rbp)
    c5ff:	95 a3 
    c601:	48 b8 f6 3e f6 3e f6 	movabs $0x3ef63ef63ef63ef6,%rax
    c608:	3e f6 3e 
    c60b:	48 89 45 be          	mov    %rax,-0x42(%rbp)
    c60f:	66 c7 45 c6 f6 3e    	movw   $0x3ef6,-0x3a(%rbp)
    c615:	48 8d 05 a8 8e 00 00 	lea    0x8ea8(%rip),%rax        # 154c4 <g_190+0x4>
    c61c:	48 89 85 c0 ea ff ff 	mov    %rax,-0x1540(%rbp)
    c623:	48 8d 05 26 d2 00 00 	lea    0xd226(%rip),%rax        # 19850 <g_304>
    c62a:	48 89 85 c8 ea ff ff 	mov    %rax,-0x1538(%rbp)
    c631:	48 8d 85 84 e8 ff ff 	lea    -0x177c(%rbp),%rax
    c638:	48 89 85 d0 ea ff ff 	mov    %rax,-0x1530(%rbp)
    c63f:	48 8d 05 e2 8e 00 00 	lea    0x8ee2(%rip),%rax        # 15528 <g_204>
    c646:	48 89 85 d8 ea ff ff 	mov    %rax,-0x1528(%rbp)
    c64d:	c7 85 70 eb ff ff ff 	movl   $0xffffffff,-0x1490(%rbp)
    c654:	ff ff ff 
    c657:	c7 85 74 eb ff ff 3a 	movl   $0xfc4dfd3a,-0x148c(%rbp)
    c65e:	fd 4d fc 
    c661:	c6 85 78 eb ff ff ff 	movb   $0xff,-0x1488(%rbp)
    c668:	66 c7 85 79 eb ff ff 	movw   $0xffff,-0x1487(%rbp)
    c66f:	ff ff 
    c671:	66 c7 85 7b eb ff ff 	movw   $0x2618,-0x1485(%rbp)
    c678:	18 26 
    c67a:	48 b8 88 08 80 65 f2 	movabs $0x659b93f265800888,%rax
    c681:	93 9b 65 
    c684:	48 89 85 7d eb ff ff 	mov    %rax,-0x1483(%rbp)
    c68b:	48 8d 05 a6 92 00 00 	lea    0x92a6(%rip),%rax        # 15938 <g_237+0x3f8>
    c692:	48 89 85 e0 ea ff ff 	mov    %rax,-0x1520(%rbp)
    c699:	48 8d 85 68 e8 ff ff 	lea    -0x1798(%rbp),%rax
    c6a0:	48 89 85 e8 ea ff ff 	mov    %rax,-0x1518(%rbp)
    c6a7:	48 c7 05 de 8d 00 00 	movq   $0x0,0x8dde(%rip)        # 15490 <g_71>
    c6ae:	00 00 00 00 
    c6b2:	e9 0a 05 00 00       	jmpq   cbc1 <func_53+0x2e8b>
    c6b7:	66 c7 85 62 e8 ff ff 	movw   $0xda88,-0x179e(%rbp)
    c6be:	88 da 
    c6c0:	48 8d 05 31 8e 00 00 	lea    0x8e31(%rip),%rax        # 154f8 <g_190+0x38>
    c6c7:	48 89 85 08 eb ff ff 	mov    %rax,-0x14f8(%rbp)
    c6ce:	48 8d 05 63 92 00 00 	lea    0x9263(%rip),%rax        # 15938 <g_237+0x3f8>
    c6d5:	48 89 85 10 eb ff ff 	mov    %rax,-0x14f0(%rbp)
    c6dc:	48 8d 05 4e 8d 00 00 	lea    0x8d4e(%rip),%rax        # 15431 <g_29+0x71>
    c6e3:	48 89 85 18 eb ff ff 	mov    %rax,-0x14e8(%rbp)
    c6ea:	48 c7 85 20 eb ff ff 	movq   $0x0,-0x14e0(%rbp)
    c6f1:	00 00 00 00 
    c6f5:	48 8d 85 48 e9 ff ff 	lea    -0x16b8(%rbp),%rax
    c6fc:	48 89 85 28 eb ff ff 	mov    %rax,-0x14d8(%rbp)
    c703:	48 8d 05 1e 8e 00 00 	lea    0x8e1e(%rip),%rax        # 15528 <g_204>
    c70a:	48 89 85 30 eb ff ff 	mov    %rax,-0x14d0(%rbp)
    c711:	48 c7 85 38 eb ff ff 	movq   $0x0,-0x14c8(%rbp)
    c718:	00 00 00 00 
    c71c:	48 8d 05 d5 b6 00 00 	lea    0xb6d5(%rip),%rax        # 17df8 <g_236+0x2b8>
    c723:	48 89 85 60 e9 ff ff 	mov    %rax,-0x16a0(%rbp)
    c72a:	48 8d 85 60 e9 ff ff 	lea    -0x16a0(%rbp),%rax
    c731:	48 89 85 40 eb ff ff 	mov    %rax,-0x14c0(%rbp)
    c738:	48 8d 05 11 d1 00 00 	lea    0xd111(%rip),%rax        # 19850 <g_304>
    c73f:	48 89 85 48 eb ff ff 	mov    %rax,-0x14b8(%rbp)
    c746:	48 8d 05 e3 91 00 00 	lea    0x91e3(%rip),%rax        # 15930 <g_237+0x3f0>
    c74d:	48 89 85 50 eb ff ff 	mov    %rax,-0x14b0(%rbp)
    c754:	48 c7 85 58 eb ff ff 	movq   $0x0,-0x14a8(%rbp)
    c75b:	00 00 00 00 
    c75f:	48 8d 85 30 f8 ff ff 	lea    -0x7d0(%rbp),%rax
    c766:	48 05 dc 01 00 00    	add    $0x1dc,%rax
    c76c:	48 89 85 60 eb ff ff 	mov    %rax,-0x14a0(%rbp)
    c773:	48 c7 85 68 eb ff ff 	movq   $0x0,-0x1498(%rbp)
    c77a:	00 00 00 00 
    c77e:	48 8d 85 7c e8 ff ff 	lea    -0x1784(%rbp),%rax
    c785:	48 89 85 00 ee ff ff 	mov    %rax,-0x1200(%rbp)
    c78c:	48 c7 85 08 ee ff ff 	movq   $0x0,-0x11f8(%rbp)
    c793:	00 00 00 00 
    c797:	48 8d 85 7c e8 ff ff 	lea    -0x1784(%rbp),%rax
    c79e:	48 89 85 10 ee ff ff 	mov    %rax,-0x11f0(%rbp)
    c7a5:	48 c7 85 18 ee ff ff 	movq   $0x0,-0x11e8(%rbp)
    c7ac:	00 00 00 00 
    c7b0:	48 8d 85 7c e8 ff ff 	lea    -0x1784(%rbp),%rax
    c7b7:	48 89 85 20 ee ff ff 	mov    %rax,-0x11e0(%rbp)
    c7be:	48 c7 85 28 ee ff ff 	movq   $0x0,-0x11d8(%rbp)
    c7c5:	00 00 00 00 
    c7c9:	48 8d 85 7c e8 ff ff 	lea    -0x1784(%rbp),%rax
    c7d0:	48 89 85 30 ee ff ff 	mov    %rax,-0x11d0(%rbp)
    c7d7:	48 c7 85 38 ee ff ff 	movq   $0x0,-0x11c8(%rbp)
    c7de:	00 00 00 00 
    c7e2:	48 8d 85 7c e8 ff ff 	lea    -0x1784(%rbp),%rax
    c7e9:	48 89 85 40 ee ff ff 	mov    %rax,-0x11c0(%rbp)
    c7f0:	48 c7 85 48 ee ff ff 	movq   $0x0,-0x11b8(%rbp)
    c7f7:	00 00 00 00 
    c7fb:	48 8d 85 7c e8 ff ff 	lea    -0x1784(%rbp),%rax
    c802:	48 89 85 50 ee ff ff 	mov    %rax,-0x11b0(%rbp)
    c809:	48 c7 85 58 ee ff ff 	movq   $0x0,-0x11a8(%rbp)
    c810:	00 00 00 00 
    c814:	48 8d 85 7c e8 ff ff 	lea    -0x1784(%rbp),%rax
    c81b:	48 89 85 60 ee ff ff 	mov    %rax,-0x11a0(%rbp)
    c822:	48 c7 85 68 ee ff ff 	movq   $0x0,-0x1198(%rbp)
    c829:	00 00 00 00 
    c82d:	48 8b 05 5c 8c 00 00 	mov    0x8c5c(%rip),%rax        # 15490 <g_71>
    c834:	48 8d 15 6a 8c 00 00 	lea    0x8c6a(%rip),%rdx        # 154a5 <g_173>
    c83b:	0f b6 04 10          	movzbl (%rax,%rdx,1),%eax
    c83f:	84 c0                	test   %al,%al
    c841:	0f 85 cb 01 00 00    	jne    ca12 <func_53+0x2cdc>
    c847:	8b 05 23 8c 00 00    	mov    0x8c23(%rip),%eax        # 15470 <g_57>
    c84d:	c1 e0 04             	shl    $0x4,%eax
    c850:	c1 f8 04             	sar    $0x4,%eax
    c853:	41 89 c5             	mov    %eax,%r13d
    c856:	8b 85 0c fa ff ff    	mov    -0x5f4(%rbp),%eax
    c85c:	48 63 d8             	movslq %eax,%rbx
    c85f:	8b 05 8f 91 00 00    	mov    0x918f(%rip),%eax        # 159f4 <g_248+0x14>
    c865:	4c 63 e0             	movslq %eax,%r12
    c868:	8b 05 c6 90 00 00    	mov    0x90c6(%rip),%eax        # 15934 <g_237+0x3f4>
    c86e:	0f b6 d0             	movzbl %al,%edx
    c871:	48 8b 8d 48 e9 ff ff 	mov    -0x16b8(%rbp),%rcx
    c878:	48 8b 85 28 eb ff ff 	mov    -0x14d8(%rbp),%rax
    c87f:	48 89 08             	mov    %rcx,(%rax)
    c882:	48 8b 85 28 eb ff ff 	mov    -0x14d8(%rbp),%rax
    c889:	48 8b 00             	mov    (%rax),%rax
    c88c:	48 85 c0             	test   %rax,%rax
    c88f:	0f 94 c0             	sete   %al
    c892:	0f b6 c0             	movzbl %al,%eax
    c895:	89 d6                	mov    %edx,%esi
    c897:	89 c7                	mov    %eax,%edi
    c899:	e8 f5 b2 ff ff       	callq  7b93 <safe_mul_func_uint8_t_u_u>
    c89e:	0f b6 c0             	movzbl %al,%eax
    c8a1:	4c 89 e6             	mov    %r12,%rsi
    c8a4:	48 89 c7             	mov    %rax,%rdi
    c8a7:	e8 03 b8 ff ff       	callq  80af <safe_div_func_uint64_t_u_u>
    c8ac:	48 89 c2             	mov    %rax,%rdx
    c8af:	48 8b 85 10 e9 ff ff 	mov    -0x16f0(%rbp),%rax
    c8b6:	66 89 10             	mov    %dx,(%rax)
    c8b9:	0f b7 00             	movzwl (%rax),%eax
    c8bc:	f7 d0                	not    %eax
    c8be:	88 05 e0 8b 00 00    	mov    %al,0x8be0(%rip)        # 154a4 <g_165>
    c8c4:	0f b6 05 d9 8b 00 00 	movzbl 0x8bd9(%rip),%eax        # 154a4 <g_165>
    c8cb:	48 0f be c0          	movsbq %al,%rax
    c8cf:	48 89 85 b8 ea ff ff 	mov    %rax,-0x1548(%rbp)
    c8d6:	8b 05 a8 8b 00 00    	mov    0x8ba8(%rip),%eax        # 15484 <g_57+0x14>
    c8dc:	48 98                	cltq   
    c8de:	48 89 de             	mov    %rbx,%rsi
    c8e1:	48 89 c7             	mov    %rax,%rdi
    c8e4:	e8 97 b7 ff ff       	callq  8080 <safe_mod_func_uint64_t_u_u>
    c8e9:	48 85 c0             	test   %rax,%rax
    c8ec:	75 09                	jne    c8f7 <func_53+0x2bc1>
    c8ee:	83 bd 3c e8 ff ff 00 	cmpl   $0x0,-0x17c4(%rbp)
    c8f5:	74 07                	je     c8fe <func_53+0x2bc8>
    c8f7:	b8 01 00 00 00       	mov    $0x1,%eax
    c8fc:	eb 05                	jmp    c903 <func_53+0x2bcd>
    c8fe:	b8 00 00 00 00       	mov    $0x0,%eax
    c903:	0f b6 c0             	movzbl %al,%eax
    c906:	44 89 ee             	mov    %r13d,%esi
    c909:	89 c7                	mov    %eax,%edi
    c90b:	e8 f5 b2 ff ff       	callq  7c05 <safe_lshift_func_uint8_t_u_s>
    c910:	bb 01 00 00 00       	mov    $0x1,%ebx
    c915:	8b 85 00 ec ff ff    	mov    -0x1400(%rbp),%eax
    c91b:	0f be c0             	movsbl %al,%eax
    c91e:	89 c6                	mov    %eax,%esi
    c920:	bf 5f 00 00 00       	mov    $0x5f,%edi
    c925:	e8 07 a9 ff ff       	callq  7231 <safe_mod_func_int8_t_s_s>
    c92a:	89 c2                	mov    %eax,%edx
    c92c:	48 8b 85 10 eb ff ff 	mov    -0x14f0(%rbp),%rax
    c933:	0f b6 00             	movzbl (%rax),%eax
    c936:	09 c2                	or     %eax,%edx
    c938:	48 8b 85 10 eb ff ff 	mov    -0x14f0(%rbp),%rax
    c93f:	88 10                	mov    %dl,(%rax)
    c941:	48 8b 85 10 eb ff ff 	mov    -0x14f0(%rbp),%rax
    c948:	0f b6 10             	movzbl (%rax),%edx
    c94b:	48 8b 85 18 eb ff ff 	mov    -0x14e8(%rbp),%rax
    c952:	88 10                	mov    %dl,(%rax)
    c954:	48 8b 85 18 eb ff ff 	mov    -0x14e8(%rbp),%rax
    c95b:	0f b6 00             	movzbl (%rax),%eax
    c95e:	0f be c0             	movsbl %al,%eax
    c961:	be 11 00 00 00       	mov    $0x11,%esi
    c966:	89 c7                	mov    %eax,%edi
    c968:	e8 c4 a8 ff ff       	callq  7231 <safe_mod_func_int8_t_s_s>
    c96d:	0f be c0             	movsbl %al,%eax
    c970:	89 de                	mov    %ebx,%esi
    c972:	89 c7                	mov    %eax,%edi
    c974:	e8 8c ac ff ff       	callq  7605 <safe_sub_func_int32_t_s_s>
    c979:	39 85 d8 e8 ff ff    	cmp    %eax,-0x1728(%rbp)
    c97f:	0f 95 c0             	setne  %al
    c982:	0f b6 d0             	movzbl %al,%edx
    c985:	48 8b 85 08 eb ff ff 	mov    -0x14f8(%rbp),%rax
    c98c:	0f b7 00             	movzwl (%rax),%eax
    c98f:	66 0b 85 62 e8 ff ff 	or     -0x179e(%rbp),%ax
    c996:	89 c1                	mov    %eax,%ecx
    c998:	48 8b 85 08 eb ff ff 	mov    -0x14f8(%rbp),%rax
    c99f:	66 89 08             	mov    %cx,(%rax)
    c9a2:	48 8b 85 08 eb ff ff 	mov    -0x14f8(%rbp),%rax
    c9a9:	0f b7 00             	movzwl (%rax),%eax
    c9ac:	0f b7 c0             	movzwl %ax,%eax
    c9af:	89 d6                	mov    %edx,%esi
    c9b1:	89 c7                	mov    %eax,%edi
    c9b3:	e8 85 b3 ff ff       	callq  7d3d <safe_mul_func_uint16_t_u_u>
    c9b8:	48 8b 05 69 86 00 00 	mov    0x8669(%rip),%rax        # 15028 <g_8>
    c9bf:	48 0b 85 b8 ea ff ff 	or     -0x1548(%rbp),%rax
    c9c6:	48 3d 48 4f 00 00    	cmp    $0x4f48,%rax
    c9cc:	0f 96 c0             	setbe  %al
    c9cf:	0f b6 c0             	movzbl %al,%eax
    c9d2:	be 01 00 00 00       	mov    $0x1,%esi
    c9d7:	89 c7                	mov    %eax,%edi
    c9d9:	e8 8e a9 ff ff       	callq  736c <safe_rshift_func_int8_t_s_u>
    c9de:	84 c0                	test   %al,%al
    c9e0:	0f 95 c0             	setne  %al
    c9e3:	0f b6 c8             	movzbl %al,%ecx
    c9e6:	48 8b 85 30 eb ff ff 	mov    -0x14d0(%rbp),%rax
    c9ed:	48 8b 10             	mov    (%rax),%rdx
    c9f0:	48 63 c1             	movslq %ecx,%rax
    c9f3:	48 31 c2             	xor    %rax,%rdx
    c9f6:	48 8b 85 30 eb ff ff 	mov    -0x14d0(%rbp),%rax
    c9fd:	48 89 10             	mov    %rdx,(%rax)
    ca00:	be 00 00 00 00       	mov    $0x0,%esi
    ca05:	bf 00 00 00 00       	mov    $0x0,%edi
    ca0a:	e8 f0 b2 ff ff       	callq  7cff <safe_add_func_uint16_t_u_u>
    ca0f:	66 85 c0             	test   %ax,%ax
    ca12:	8b 95 3c e8 ff ff    	mov    -0x17c4(%rbp),%edx
    ca18:	48 8b 05 81 af 00 00 	mov    0xaf81(%rip),%rax        # 179a0 <g_152>
    ca1f:	48 8b 00             	mov    (%rax),%rax
    ca22:	48 8b 00             	mov    (%rax),%rax
    ca25:	81 e2 6a c5 00 00    	and    $0xc56a,%edx
    ca2b:	89 10                	mov    %edx,(%rax)
    ca2d:	8b 9d 08 ec ff ff    	mov    -0x13f8(%rbp),%ebx
    ca33:	8b 85 68 e8 ff ff    	mov    -0x1798(%rbp),%eax
    ca39:	41 89 c5             	mov    %eax,%r13d
    ca3c:	48 8b 85 28 e8 ff ff 	mov    -0x17d8(%rbp),%rax
    ca43:	44 8b 20             	mov    (%rax),%r12d
    ca46:	48 be 75 66 42 4b cd 	movabs $0x67b030cd4b426675,%rsi
    ca4d:	30 b0 67 
    ca50:	bf 01 00 00 00       	mov    $0x1,%edi
    ca55:	e8 26 b6 ff ff       	callq  8080 <safe_mod_func_uint64_t_u_u>
    ca5a:	48 85 c0             	test   %rax,%rax
    ca5d:	74 09                	je     ca68 <func_53+0x2d32>
    ca5f:	0f b6 05 d2 8e 00 00 	movzbl 0x8ed2(%rip),%eax        # 15938 <g_237+0x3f8>
    ca66:	84 c0                	test   %al,%al
    ca68:	8b 85 b8 fa ff ff    	mov    -0x548(%rbp),%eax
    ca6e:	89 c7                	mov    %eax,%edi
    ca70:	e8 31 b4 ff ff       	callq  7ea6 <safe_unary_minus_func_uint32_t_u>
    ca75:	41 89 c6             	mov    %eax,%r14d
    ca78:	0f b6 05 9d 8a 00 00 	movzbl 0x8a9d(%rip),%eax        # 1551c <g_202+0xc>
    ca7f:	0f b6 c0             	movzbl %al,%eax
    ca82:	be 0d 00 00 00       	mov    $0xd,%esi
    ca87:	89 c7                	mov    %eax,%edi
    ca89:	e8 ba b3 ff ff       	callq  7e48 <safe_rshift_func_uint16_t_u_s>
    ca8e:	0f b7 c0             	movzwl %ax,%eax
    ca91:	44 89 f6             	mov    %r14d,%esi
    ca94:	89 c7                	mov    %eax,%edi
    ca96:	e8 23 b3 ff ff       	callq  7dbe <safe_lshift_func_uint16_t_u_s>
    ca9b:	0f b6 d0             	movzbl %al,%edx
    ca9e:	48 8b 85 40 eb ff ff 	mov    -0x14c0(%rbp),%rax
    caa5:	48 c7 00 00 00 00 00 	movq   $0x0,(%rax)
    caac:	48 8b 85 40 eb ff ff 	mov    -0x14c0(%rbp),%rax
    cab3:	48 8b 00             	mov    (%rax),%rax
    cab6:	48 39 85 e8 e9 ff ff 	cmp    %rax,-0x1618(%rbp)
    cabd:	0f 95 c0             	setne  %al
    cac0:	0f b6 f0             	movzbl %al,%esi
    cac3:	8b 8d 00 ec ff ff    	mov    -0x1400(%rbp),%ecx
    cac9:	48 8b 85 48 eb ff ff 	mov    -0x14b8(%rbp),%rax
    cad0:	0f b6 00             	movzbl (%rax),%eax
    cad3:	89 c7                	mov    %eax,%edi
    cad5:	89 f0                	mov    %esi,%eax
    cad7:	09 f8                	or     %edi,%eax
    cad9:	89 c6                	mov    %eax,%esi
    cadb:	48 8b 85 48 eb ff ff 	mov    -0x14b8(%rbp),%rax
    cae2:	40 88 30             	mov    %sil,(%rax)
    cae5:	48 8b 85 48 eb ff ff 	mov    -0x14b8(%rbp),%rax
    caec:	0f b6 00             	movzbl (%rax),%eax
    caef:	0f b6 c0             	movzbl %al,%eax
    caf2:	39 c1                	cmp    %eax,%ecx
    caf4:	0f 94 c0             	sete   %al
    caf7:	0f b6 c0             	movzbl %al,%eax
    cafa:	89 d6                	mov    %edx,%esi
    cafc:	89 c7                	mov    %eax,%edi
    cafe:	e8 57 b0 ff ff       	callq  7b5a <safe_add_func_uint8_t_u_u>
    cb03:	0f b6 c0             	movzbl %al,%eax
    cb06:	44 09 e0             	or     %r12d,%eax
    cb09:	48 98                	cltq   
    cb0b:	4c 89 ee             	mov    %r13,%rsi
    cb0e:	48 89 c7             	mov    %rax,%rdi
    cb11:	e8 99 b5 ff ff       	callq  80af <safe_div_func_uint64_t_u_u>
    cb16:	0f bf d0             	movswl %ax,%edx
    cb19:	48 8b 85 30 e8 ff ff 	mov    -0x17d0(%rbp),%rax
    cb20:	98                   	cwtl   
    cb21:	89 d6                	mov    %edx,%esi
    cb23:	89 c7                	mov    %eax,%edi
    cb25:	e8 89 a8 ff ff       	callq  73b3 <safe_add_func_int16_t_s_s>
    cb2a:	66 85 c0             	test   %ax,%ax
    cb2d:	0f 95 c0             	setne  %al
    cb30:	44 0f b6 e0          	movzbl %al,%r12d
    cb34:	48 8b 85 a8 ea ff ff 	mov    -0x1558(%rbp),%rax
    cb3b:	48 3b 85 80 ea ff ff 	cmp    -0x1580(%rbp),%rax
    cb42:	0f 94 c0             	sete   %al
    cb45:	0f b6 c0             	movzbl %al,%eax
    cb48:	be 01 00 00 00       	mov    $0x1,%esi
    cb4d:	89 c7                	mov    %eax,%edi
    cb4f:	e8 6a b2 ff ff       	callq  7dbe <safe_lshift_func_uint16_t_u_s>
    cb54:	0f b7 c0             	movzwl %ax,%eax
    cb57:	44 89 e6             	mov    %r12d,%esi
    cb5a:	89 c7                	mov    %eax,%edi
    cb5c:	e8 be b1 ff ff       	callq  7d1f <safe_sub_func_uint16_t_u_u>
    cb61:	89 c2                	mov    %eax,%edx
    cb63:	48 8b 05 b6 af 00 00 	mov    0xafb6(%rip),%rax        # 17b20 <g_230>
    cb6a:	48 8b 00             	mov    (%rax),%rax
    cb6d:	09 d0                	or     %edx,%eax
    cb6f:	98                   	cwtl   
    cb70:	89 de                	mov    %ebx,%esi
    cb72:	89 c7                	mov    %eax,%edi
    cb74:	e8 68 a9 ff ff       	callq  74e1 <safe_lshift_func_int16_t_s_u>
    cb79:	66 89 85 5c e8 ff ff 	mov    %ax,-0x17a4(%rbp)
    cb80:	0f b7 8d 5c e8 ff ff 	movzwl -0x17a4(%rbp),%ecx
    cb87:	48 8b 85 50 eb ff ff 	mov    -0x14b0(%rbp),%rax
    cb8e:	8b 10                	mov    (%rax),%edx
    cb90:	0f b7 c1             	movzwl %cx,%eax
    cb93:	31 c2                	xor    %eax,%edx
    cb95:	48 8b 85 50 eb ff ff 	mov    -0x14b0(%rbp),%rax
    cb9c:	89 10                	mov    %edx,(%rax)
    cb9e:	0f b7 85 54 e8 ff ff 	movzwl -0x17ac(%rbp),%eax
    cba5:	83 c0 01             	add    $0x1,%eax
    cba8:	66 89 85 54 e8 ff ff 	mov    %ax,-0x17ac(%rbp)
    cbaf:	48 8b 05 da 88 00 00 	mov    0x88da(%rip),%rax        # 15490 <g_71>
    cbb6:	48 83 c0 01          	add    $0x1,%rax
    cbba:	48 89 05 cf 88 00 00 	mov    %rax,0x88cf(%rip)        # 15490 <g_71>
    cbc1:	48 8b 05 c8 88 00 00 	mov    0x88c8(%rip),%rax        # 15490 <g_71>
    cbc8:	48 83 f8 04          	cmp    $0x4,%rax
    cbcc:	0f 8e e5 fa ff ff    	jle    c6b7 <func_53+0x2981>
    cbd2:	48 8b 85 28 e8 ff ff 	mov    -0x17d8(%rbp),%rax
    cbd9:	8b 18                	mov    (%rax),%ebx
    cbdb:	0f bf 85 58 e8 ff ff 	movswl -0x17a8(%rbp),%eax
    cbe2:	be 0f 00 00 00       	mov    $0xf,%esi
    cbe7:	89 c7                	mov    %eax,%edi
    cbe9:	e8 f3 a8 ff ff       	callq  74e1 <safe_lshift_func_int16_t_s_u>
    cbee:	41 89 c5             	mov    %eax,%r13d
    cbf1:	8b 85 3c e8 ff ff    	mov    -0x17c4(%rbp),%eax
    cbf7:	44 0f bf e0          	movswl %ax,%r12d
    cbfb:	8b 85 3c e8 ff ff    	mov    -0x17c4(%rbp),%eax
    cc01:	0f b6 d0             	movzbl %al,%edx
    cc04:	83 bd 3c e8 ff ff 00 	cmpl   $0x0,-0x17c4(%rbp)
    cc0b:	0f 94 c0             	sete   %al
    cc0e:	0f b6 c0             	movzbl %al,%eax
    cc11:	89 d6                	mov    %edx,%esi
    cc13:	89 c7                	mov    %eax,%edi
    cc15:	e8 c1 af ff ff       	callq  7bdb <safe_div_func_uint8_t_u_u>
    cc1a:	0f b6 c0             	movzbl %al,%eax
    cc1d:	be 02 00 00 00       	mov    $0x2,%esi
    cc22:	48 89 c7             	mov    %rax,%rdi
    cc25:	e8 7e ac ff ff       	callq  78a8 <safe_sub_func_int64_t_s_s>
    cc2a:	89 c2                	mov    %eax,%edx
    cc2c:	48 8b 85 c0 ea ff ff 	mov    -0x1540(%rbp),%rax
    cc33:	66 89 10             	mov    %dx,(%rax)
    cc36:	48 8b 85 c0 ea ff ff 	mov    -0x1540(%rbp),%rax
    cc3d:	0f b7 00             	movzwl (%rax),%eax
    cc40:	66 85 c0             	test   %ax,%ax
    cc43:	74 08                	je     cc4d <func_53+0x2f17>
    cc45:	48 83 bd 30 e8 ff ff 	cmpq   $0x0,-0x17d0(%rbp)
    cc4c:	00 
    cc4d:	48 8b 85 c8 ea ff ff 	mov    -0x1538(%rbp),%rax
    cc54:	c6 00 07             	movb   $0x7,(%rax)
    cc57:	48 8b 85 c8 ea ff ff 	mov    -0x1538(%rbp),%rax
    cc5e:	0f b6 00             	movzbl (%rax),%eax
    cc61:	0f b6 d0             	movzbl %al,%edx
    cc64:	0f b7 85 5e e8 ff ff 	movzwl -0x17a2(%rbp),%eax
    cc6b:	0f b6 c0             	movzbl %al,%eax
    cc6e:	89 d6                	mov    %edx,%esi
    cc70:	89 c7                	mov    %eax,%edi
    cc72:	e8 37 af ff ff       	callq  7bae <safe_mod_func_uint8_t_u_u>
    cc77:	48 8b 85 28 e8 ff ff 	mov    -0x17d8(%rbp),%rax
    cc7e:	8b 00                	mov    (%rax),%eax
    cc80:	85 c0                	test   %eax,%eax
    cc82:	0f b6 05 1b 88 00 00 	movzbl 0x881b(%rip),%eax        # 154a4 <g_165>
    cc89:	84 c0                	test   %al,%al
    cc8b:	74 08                	je     cc95 <func_53+0x2f5f>
    cc8d:	8b 05 9d 8c 00 00    	mov    0x8c9d(%rip),%eax        # 15930 <g_237+0x3f0>
    cc93:	85 c0                	test   %eax,%eax
    cc95:	83 bd e4 e8 ff ff 01 	cmpl   $0x1,-0x171c(%rbp)
    cc9c:	0f 94 c0             	sete   %al
    cc9f:	0f b6 c0             	movzbl %al,%eax
    cca2:	44 89 e6             	mov    %r12d,%esi
    cca5:	89 c7                	mov    %eax,%edi
    cca7:	e8 27 a7 ff ff       	callq  73d3 <safe_sub_func_int16_t_s_s>
    ccac:	66 41 39 c5          	cmp    %ax,%r13w
    ccb0:	7f 10                	jg     ccc2 <func_53+0x2f8c>
    ccb2:	83 bd 3c e8 ff ff 00 	cmpl   $0x0,-0x17c4(%rbp)
    ccb9:	74 07                	je     ccc2 <func_53+0x2f8c>
    ccbb:	b8 01 00 00 00       	mov    $0x1,%eax
    ccc0:	eb 05                	jmp    ccc7 <func_53+0x2f91>
    ccc2:	b8 00 00 00 00       	mov    $0x0,%eax
    ccc7:	0f b6 c0             	movzbl %al,%eax
    ccca:	be 02 00 00 00       	mov    $0x2,%esi
    cccf:	89 c7                	mov    %eax,%edi
    ccd1:	e8 e8 af ff ff       	callq  7cbe <safe_rshift_func_uint8_t_u_u>
    ccd6:	0f b6 d0             	movzbl %al,%edx
    ccd9:	0f b7 05 5b 8c 00 00 	movzwl 0x8c5b(%rip),%eax        # 1593b <g_237+0x3fb>
    cce0:	0f b7 c0             	movzwl %ax,%eax
    cce3:	21 d0                	and    %edx,%eax
    cce5:	48 63 d0             	movslq %eax,%rdx
    cce8:	8b 05 3f 87 00 00    	mov    0x873f(%rip),%eax        # 1542d <g_29+0x6d>
    ccee:	48 98                	cltq   
    ccf0:	48 89 d6             	mov    %rdx,%rsi
    ccf3:	48 89 c7             	mov    %rax,%rdi
    ccf6:	e8 b9 ac ff ff       	callq  79b4 <safe_mod_func_int64_t_s_s>
    ccfb:	0f b7 c0             	movzwl %ax,%eax
    ccfe:	89 c6                	mov    %eax,%esi
    cd00:	bf 3d 9e 00 00       	mov    $0x9e3d,%edi
    cd05:	e8 84 b0 ff ff       	callq  7d8e <safe_div_func_uint16_t_u_u>
    cd0a:	89 de                	mov    %ebx,%esi
    cd0c:	bf 00 00 00 00       	mov    $0x0,%edi
    cd11:	e8 ef a8 ff ff       	callq  7605 <safe_sub_func_int32_t_s_s>
    cd16:	48 8b 95 d0 ea ff ff 	mov    -0x1530(%rbp),%rdx
    cd1d:	8b 12                	mov    (%rdx),%edx
    cd1f:	21 c2                	and    %eax,%edx
    cd21:	48 8b 85 d0 ea ff ff 	mov    -0x1530(%rbp),%rax
    cd28:	89 10                	mov    %edx,(%rax)
    cd2a:	48 8b 85 28 e8 ff ff 	mov    -0x17d8(%rbp),%rax
    cd31:	8b 00                	mov    (%rax),%eax
    cd33:	41 89 c6             	mov    %eax,%r14d
    cd36:	8b 85 74 e8 ff ff    	mov    -0x178c(%rbp),%eax
    cd3c:	0f b7 d8             	movzwl %ax,%ebx
    cd3f:	48 8b 85 d8 ea ff ff 	mov    -0x1528(%rbp),%rax
    cd46:	48 8b 00             	mov    (%rax),%rax
    cd49:	48 8d 50 ff          	lea    -0x1(%rax),%rdx
    cd4d:	48 8b 85 d8 ea ff ff 	mov    -0x1528(%rbp),%rax
    cd54:	48 89 10             	mov    %rdx,(%rax)
    cd57:	48 8b 85 d8 ea ff ff 	mov    -0x1528(%rbp),%rax
    cd5e:	48 8b 00             	mov    (%rax),%rax
    cd61:	41 89 c7             	mov    %eax,%r15d
    cd64:	4c 8b 25 2d 87 00 00 	mov    0x872d(%rip),%r12        # 15498 <g_132>
    cd6b:	44 8b ad 3c e8 ff ff 	mov    -0x17c4(%rbp),%r13d
    cd72:	48 8b 85 e8 eb ff ff 	mov    -0x1418(%rbp),%rax
    cd79:	48 85 c0             	test   %rax,%rax
    cd7c:	0f 94 c0             	sete   %al
    cd7f:	0f b6 c0             	movzbl %al,%eax
    cd82:	be ca 53 5c 41       	mov    $0x415c53ca,%esi
    cd87:	89 c7                	mov    %eax,%edi
    cd89:	e8 71 a9 ff ff       	callq  76ff <safe_div_func_int32_t_s_s>
    cd8e:	8b 85 3c e8 ff ff    	mov    -0x17c4(%rbp),%eax
    cd94:	89 c2                	mov    %eax,%edx
    cd96:	48 8b 85 c0 ea ff ff 	mov    -0x1540(%rbp),%rax
    cd9d:	66 89 10             	mov    %dx,(%rax)
    cda0:	48 8b 85 c0 ea ff ff 	mov    -0x1540(%rbp),%rax
    cda7:	0f b7 00             	movzwl (%rax),%eax
    cdaa:	0f b7 c0             	movzwl %ax,%eax
    cdad:	be 03 00 00 00       	mov    $0x3,%esi
    cdb2:	89 c7                	mov    %eax,%edi
    cdb4:	e8 8f b0 ff ff       	callq  7e48 <safe_rshift_func_uint16_t_u_s>
    cdb9:	48 8b 85 48 e9 ff ff 	mov    -0x16b8(%rbp),%rax
    cdc0:	48 8d 95 6c e8 ff ff 	lea    -0x1794(%rbp),%rdx
    cdc7:	48 89 10             	mov    %rdx,(%rax)
    cdca:	48 83 bd 30 e8 ff ff 	cmpq   $0x1,-0x17d0(%rbp)
    cdd1:	01 
    cdd2:	0f 97 c0             	seta   %al
    cdd5:	0f b6 c0             	movzbl %al,%eax
    cdd8:	89 c2                	mov    %eax,%edx
    cdda:	0f b6 05 6f ca 00 00 	movzbl 0xca6f(%rip),%eax        # 19850 <g_304>
    cde1:	31 d0                	xor    %edx,%eax
    cde3:	88 05 67 ca 00 00    	mov    %al,0xca67(%rip)        # 19850 <g_304>
    cde9:	0f b6 05 60 ca 00 00 	movzbl 0xca60(%rip),%eax        # 19850 <g_304>
    cdf0:	0f b6 c0             	movzbl %al,%eax
    cdf3:	44 89 ee             	mov    %r13d,%esi
    cdf6:	89 c7                	mov    %eax,%edi
    cdf8:	e8 08 ae ff ff       	callq  7c05 <safe_lshift_func_uint8_t_u_s>
    cdfd:	84 c0                	test   %al,%al
    cdff:	74 0d                	je     ce0e <func_53+0x30d8>
    ce01:	48 8b 05 18 ad 00 00 	mov    0xad18(%rip),%rax        # 17b20 <g_230>
    ce08:	48 8b 00             	mov    (%rax),%rax
    ce0b:	48 85 c0             	test   %rax,%rax
    ce0e:	48 8b 85 e0 ea ff ff 	mov    -0x1520(%rbp),%rax
    ce15:	c6 00 00             	movb   $0x0,(%rax)
    ce18:	48 8b 85 e0 ea ff ff 	mov    -0x1520(%rbp),%rax
    ce1f:	0f b6 00             	movzbl (%rax),%eax
    ce22:	0f be c0             	movsbl %al,%eax
    ce25:	23 85 c4 e8 ff ff    	and    -0x173c(%rbp),%eax
    ce2b:	48 98                	cltq   
    ce2d:	4c 89 e6             	mov    %r12,%rsi
    ce30:	48 89 c7             	mov    %rax,%rdi
    ce33:	e8 70 aa ff ff       	callq  78a8 <safe_sub_func_int64_t_s_s>
    ce38:	44 21 f8             	and    %r15d,%eax
    ce3b:	0f b7 c0             	movzwl %ax,%eax
    ce3e:	89 de                	mov    %ebx,%esi
    ce40:	89 c7                	mov    %eax,%edi
    ce42:	e8 f6 ae ff ff       	callq  7d3d <safe_mul_func_uint16_t_u_u>
    ce47:	0f b6 c0             	movzbl %al,%eax
    ce4a:	89 c7                	mov    %eax,%edi
    ce4c:	e8 f4 ac ff ff       	callq  7b45 <safe_unary_minus_func_uint8_t_u>
    ce51:	0f b6 d0             	movzbl %al,%edx
    ce54:	48 8b 85 e8 ea ff ff 	mov    -0x1518(%rbp),%rax
    ce5b:	89 10                	mov    %edx,(%rax)
    ce5d:	48 8b 85 e8 ea ff ff 	mov    -0x1518(%rbp),%rax
    ce64:	8b 00                	mov    (%rax),%eax
    ce66:	44 89 f6             	mov    %r14d,%esi
    ce69:	89 c7                	mov    %eax,%edi
    ce6b:	e8 60 b0 ff ff       	callq  7ed0 <safe_sub_func_uint32_t_u_u>
    ce70:	3d a0 00 00 00       	cmp    $0xa0,%eax
    ce75:	0f 96 c0             	setbe  %al
    ce78:	0f b6 d0             	movzbl %al,%edx
    ce7b:	48 8b 85 d0 ea ff ff 	mov    -0x1530(%rbp),%rax
    ce82:	89 10                	mov    %edx,(%rax)
    ce84:	48 8b 85 d0 ea ff ff 	mov    -0x1530(%rbp),%rax
    ce8b:	8b 00                	mov    (%rax),%eax
    ce8d:	85 c0                	test   %eax,%eax
    ce8f:	0f 84 e9 00 00 00    	je     cf7e <func_53+0x3248>
    ce95:	48 c7 85 f8 ea ff ff 	movq   $0x0,-0x1508(%rbp)
    ce9c:	00 00 00 00 
    cea0:	48 8d 85 88 e8 ff ff 	lea    -0x1778(%rbp),%rax
    cea7:	48 89 85 00 eb ff ff 	mov    %rax,-0x1500(%rbp)
    ceae:	c7 85 b8 e8 ff ff 00 	movl   $0x0,-0x1748(%rbp)
    ceb5:	00 00 00 
    ceb8:	eb 1e                	jmp    ced8 <func_53+0x31a2>
    ceba:	8b 85 b8 e8 ff ff    	mov    -0x1748(%rbp),%eax
    cec0:	48 98                	cltq   
    cec2:	48 8d 95 80 e8 ff ff 	lea    -0x1780(%rbp),%rdx
    cec9:	48 89 94 c5 00 ee ff 	mov    %rdx,-0x1200(%rbp,%rax,8)
    ced0:	ff 
    ced1:	83 85 b8 e8 ff ff 01 	addl   $0x1,-0x1748(%rbp)
    ced8:	83 bd b8 e8 ff ff 04 	cmpl   $0x4,-0x1748(%rbp)
    cedf:	7e d9                	jle    ceba <func_53+0x3184>
    cee1:	48 8b 85 30 e9 ff ff 	mov    -0x16d0(%rbp),%rax
    cee8:	48 83 c0 01          	add    $0x1,%rax
    ceec:	48 89 85 30 e9 ff ff 	mov    %rax,-0x16d0(%rbp)
    cef3:	48 8b 85 28 e8 ff ff 	mov    -0x17d8(%rbp),%rax
    cefa:	8b 10                	mov    (%rax),%edx
    cefc:	48 8b 85 d0 ea ff ff 	mov    -0x1530(%rbp),%rax
    cf03:	89 10                	mov    %edx,(%rax)
    cf05:	48 8b 85 00 eb ff ff 	mov    -0x1500(%rbp),%rax
    cf0c:	8b 00                	mov    (%rax),%eax
    cf0e:	48 8b 95 30 e8 ff ff 	mov    -0x17d0(%rbp),%rdx
    cf15:	21 c2                	and    %eax,%edx
    cf17:	48 8b 85 00 eb ff ff 	mov    -0x1500(%rbp),%rax
    cf1e:	89 10                	mov    %edx,(%rax)
    cf20:	0f b7 05 05 8b 00 00 	movzwl 0x8b05(%rip),%eax        # 15a2c <g_410+0x2c>
    cf27:	83 c0 01             	add    $0x1,%eax
    cf2a:	66 89 05 fb 8a 00 00 	mov    %ax,0x8afb(%rip)        # 15a2c <g_410+0x2c>
    cf31:	0f b7 05 f4 8a 00 00 	movzwl 0x8af4(%rip),%eax        # 15a2c <g_410+0x2c>
    cf38:	0f b7 d0             	movzwl %ax,%edx
    cf3b:	48 8b 85 c0 ea ff ff 	mov    -0x1540(%rbp),%rax
    cf42:	0f b7 00             	movzwl (%rax),%eax
    cf45:	8d 48 01             	lea    0x1(%rax),%ecx
    cf48:	48 8b 85 c0 ea ff ff 	mov    -0x1540(%rbp),%rax
    cf4f:	66 89 08             	mov    %cx,(%rax)
    cf52:	48 8b 85 c0 ea ff ff 	mov    -0x1540(%rbp),%rax
    cf59:	0f b7 00             	movzwl (%rax),%eax
    cf5c:	0f b7 c0             	movzwl %ax,%eax
    cf5f:	89 d6                	mov    %edx,%esi
    cf61:	89 c7                	mov    %eax,%edi
    cf63:	e8 9e ae ff ff       	callq  7e06 <safe_lshift_func_uint16_t_u_u>
    cf68:	89 c2                	mov    %eax,%edx
    cf6a:	48 8b 85 48 e9 ff ff 	mov    -0x16b8(%rbp),%rax
    cf71:	48 8b 00             	mov    (%rax),%rax
    cf74:	0f b7 d2             	movzwl %dx,%edx
    cf77:	89 10                	mov    %edx,(%rax)
    cf79:	e9 91 01 00 00       	jmpq   d10f <func_53+0x33d9>
    cf7e:	c6 85 60 e9 ff ff fd 	movb   $0xfd,-0x16a0(%rbp)
    cf85:	48 8d 85 60 e9 ff ff 	lea    -0x16a0(%rbp),%rax
    cf8c:	48 89 85 f0 ea ff ff 	mov    %rax,-0x1510(%rbp)
    cf93:	66 c7 85 60 e8 ff ff 	movw   $0xffff,-0x17a0(%rbp)
    cf9a:	ff ff 
    cf9c:	0f b6 9d 4e e8 ff ff 	movzbl -0x17b2(%rbp),%ebx
    cfa3:	48 8b 05 9e c8 00 00 	mov    0xc89e(%rip),%rax        # 19848 <g_82>
    cfaa:	8b 00                	mov    (%rax),%eax
    cfac:	41 89 c7             	mov    %eax,%r15d
    cfaf:	48 8b 85 d0 ea ff ff 	mov    -0x1530(%rbp),%rax
    cfb6:	44 8b 28             	mov    (%rax),%r13d
    cfb9:	48 8b 85 e0 ea ff ff 	mov    -0x1520(%rbp),%rax
    cfc0:	0f b6 00             	movzbl (%rax),%eax
    cfc3:	0f b6 95 60 e9 ff ff 	movzbl -0x16a0(%rbp),%edx
    cfca:	31 c2                	xor    %eax,%edx
    cfcc:	48 8b 85 e0 ea ff ff 	mov    -0x1520(%rbp),%rax
    cfd3:	88 10                	mov    %dl,(%rax)
    cfd5:	48 8b 85 e0 ea ff ff 	mov    -0x1520(%rbp),%rax
    cfdc:	0f b6 00             	movzbl (%rax),%eax
    cfdf:	44 0f be f0          	movsbl %al,%r14d
    cfe3:	48 8b 85 c8 ea ff ff 	mov    -0x1538(%rbp),%rax
    cfea:	0f b6 00             	movzbl (%rax),%eax
    cfed:	8d 48 01             	lea    0x1(%rax),%ecx
    cff0:	48 8b 95 c8 ea ff ff 	mov    -0x1538(%rbp),%rdx
    cff7:	88 0a                	mov    %cl,(%rdx)
    cff9:	44 0f b6 e0          	movzbl %al,%r12d
    cffd:	be 04 00 00 00       	mov    $0x4,%esi
    d002:	bf 08 00 00 00       	mov    $0x8,%edi
    d007:	e8 60 a3 ff ff       	callq  736c <safe_rshift_func_int8_t_s_u>
    d00c:	0f b6 c0             	movzbl %al,%eax
    d00f:	44 89 e6             	mov    %r12d,%esi
    d012:	89 c7                	mov    %eax,%edi
    d014:	e8 7a ab ff ff       	callq  7b93 <safe_mul_func_uint8_t_u_u>
    d019:	0f b6 c0             	movzbl %al,%eax
    d01c:	44 89 f2             	mov    %r14d,%edx
    d01f:	31 c2                	xor    %eax,%edx
    d021:	48 8b 05 f0 aa 00 00 	mov    0xaaf0(%rip),%rax        # 17b18 <g_208>
    d028:	48 8b 00             	mov    (%rax),%rax
    d02b:	48 85 c0             	test   %rax,%rax
    d02e:	0f 95 c0             	setne  %al
    d031:	0f b6 c0             	movzbl %al,%eax
    d034:	39 c2                	cmp    %eax,%edx
    d036:	0f 94 c0             	sete   %al
    d039:	0f b6 d0             	movzbl %al,%edx
    d03c:	48 8b 05 fa 88 00 00 	mov    0x88fa(%rip),%rax        # 1593d <g_237+0x3fd>
    d043:	48 39 c2             	cmp    %rax,%rdx
    d046:	0f 9c c0             	setl   %al
    d049:	0f b6 c0             	movzbl %al,%eax
    d04c:	33 85 d4 e8 ff ff    	xor    -0x172c(%rbp),%eax
    d052:	89 c2                	mov    %eax,%edx
    d054:	0f b6 05 d6 83 00 00 	movzbl 0x83d6(%rip),%eax        # 15431 <g_29+0x71>
    d05b:	0f be c0             	movsbl %al,%eax
    d05e:	39 c2                	cmp    %eax,%edx
    d060:	0f 9e c0             	setle  %al
    d063:	0f b6 d0             	movzbl %al,%edx
    d066:	48 8b 85 48 e9 ff ff 	mov    -0x16b8(%rbp),%rax
    d06d:	48 8b 00             	mov    (%rax),%rax
    d070:	8b 00                	mov    (%rax),%eax
    d072:	39 c2                	cmp    %eax,%edx
    d074:	0f 94 c0             	sete   %al
    d077:	89 c2                	mov    %eax,%edx
    d079:	48 8b 85 f0 ea ff ff 	mov    -0x1510(%rbp),%rax
    d080:	88 10                	mov    %dl,(%rax)
    d082:	b8 00 00 00 00       	mov    $0x0,%eax
    d087:	0f b6 c0             	movzbl %al,%eax
    d08a:	8b 95 e8 e8 ff ff    	mov    -0x1718(%rbp),%edx
    d090:	89 d6                	mov    %edx,%esi
    d092:	89 c7                	mov    %eax,%edi
    d094:	e8 6c ab ff ff       	callq  7c05 <safe_lshift_func_uint8_t_u_s>
    d099:	84 c0                	test   %al,%al
    d09b:	74 10                	je     d0ad <func_53+0x3377>
    d09d:	83 bd 3c e8 ff ff 00 	cmpl   $0x0,-0x17c4(%rbp)
    d0a4:	74 07                	je     d0ad <func_53+0x3377>
    d0a6:	b8 01 00 00 00       	mov    $0x1,%eax
    d0ab:	eb 05                	jmp    d0b2 <func_53+0x337c>
    d0ad:	b8 00 00 00 00       	mov    $0x0,%eax
    d0b2:	0f be c0             	movsbl %al,%eax
    d0b5:	be c0 ff ff ff       	mov    $0xffffffc0,%esi
    d0ba:	89 c7                	mov    %eax,%edi
    d0bc:	e8 51 a1 ff ff       	callq  7212 <safe_mul_func_int8_t_s_s>
    d0c1:	0f be c0             	movsbl %al,%eax
    d0c4:	44 21 e8             	and    %r13d,%eax
    d0c7:	44 89 fe             	mov    %r15d,%esi
    d0ca:	89 c7                	mov    %eax,%edi
    d0cc:	e8 2c ae ff ff       	callq  7efd <safe_mod_func_uint32_t_u_u>
    d0d1:	0f b7 c0             	movzwl %ax,%eax
    d0d4:	89 de                	mov    %ebx,%esi
    d0d6:	89 c7                	mov    %eax,%edi
    d0d8:	e8 9d ad ff ff       	callq  7e7a <safe_rshift_func_uint16_t_u_u>
    d0dd:	0f b7 05 57 88 00 00 	movzwl 0x8857(%rip),%eax        # 1593b <g_237+0x3fb>
    d0e4:	0f b7 c0             	movzwl %ax,%eax
    d0e7:	48 39 85 30 e8 ff ff 	cmp    %rax,-0x17d0(%rbp)
    d0ee:	48 8b 85 30 e8 ff ff 	mov    -0x17d0(%rbp),%rax
    d0f5:	be f9 ff ff ff       	mov    $0xfffffff9,%esi
    d0fa:	89 c7                	mov    %eax,%edi
    d0fc:	e8 24 ae ff ff       	callq  7f25 <safe_div_func_uint32_t_u_u>
    d101:	8b 95 7c f8 ff ff    	mov    -0x784(%rbp),%edx
    d107:	09 d0                	or     %edx,%eax
    d109:	89 85 7c f8 ff ff    	mov    %eax,-0x784(%rbp)
    d10f:	48 8b 05 32 c7 00 00 	mov    0xc732(%rip),%rax        # 19848 <g_82>
    d116:	8b 08                	mov    (%rax),%ecx
    d118:	48 83 bd b0 ea ff ff 	cmpq   $0x0,-0x1550(%rbp)
    d11f:	00 
    d120:	0f 95 c0             	setne  %al
    d123:	0f b6 d0             	movzbl %al,%edx
    d126:	8b 85 08 ec ff ff    	mov    -0x13f8(%rbp),%eax
    d12c:	39 c2                	cmp    %eax,%edx
    d12e:	0f 94 c0             	sete   %al
    d131:	0f b6 d0             	movzbl %al,%edx
    d134:	48 8b 05 0d c7 00 00 	mov    0xc70d(%rip),%rax        # 19848 <g_82>
    d13b:	09 ca                	or     %ecx,%edx
    d13d:	89 10                	mov    %edx,(%rax)
    d13f:	e9 12 02 00 00       	jmpq   d356 <func_53+0x3620>
    d144:	c6 85 4d e8 ff ff f3 	movb   $0xf3,-0x17b3(%rbp)
    d14b:	c6 85 4e e8 ff ff 00 	movb   $0x0,-0x17b2(%rbp)
    d152:	e9 c3 00 00 00       	jmpq   d21a <func_53+0x34e4>
    d157:	48 c7 85 30 f8 ff ff 	movq   $0x0,-0x7d0(%rbp)
    d15e:	00 00 00 00 
    d162:	48 8d 85 48 e9 ff ff 	lea    -0x16b8(%rbp),%rax
    d169:	48 89 85 38 f8 ff ff 	mov    %rax,-0x7c8(%rbp)
    d170:	48 8d 85 48 e9 ff ff 	lea    -0x16b8(%rbp),%rax
    d177:	48 89 85 40 f8 ff ff 	mov    %rax,-0x7c0(%rbp)
    d17e:	48 c7 85 48 f8 ff ff 	movq   $0x0,-0x7b8(%rbp)
    d185:	00 00 00 00 
    d189:	48 8d 85 48 e9 ff ff 	lea    -0x16b8(%rbp),%rax
    d190:	48 89 85 50 f8 ff ff 	mov    %rax,-0x7b0(%rbp)
    d197:	48 8d 85 48 e9 ff ff 	lea    -0x16b8(%rbp),%rax
    d19e:	48 89 85 58 f8 ff ff 	mov    %rax,-0x7a8(%rbp)
    d1a5:	48 c7 85 60 f8 ff ff 	movq   $0x0,-0x7a0(%rbp)
    d1ac:	00 00 00 00 
    d1b0:	48 8b 85 30 e8 ff ff 	mov    -0x17d0(%rbp),%rax
    d1b7:	0f be d0             	movsbl %al,%edx
    d1ba:	c7 85 c8 e8 ff ff 1c 	movl   $0x5e57a31c,-0x1738(%rbp)
    d1c1:	a3 57 5e 
    d1c4:	b8 01 00 00 00       	mov    $0x1,%eax
    d1c9:	0f be c0             	movsbl %al,%eax
    d1cc:	89 d6                	mov    %edx,%esi
    d1ce:	89 c7                	mov    %eax,%edi
    d1d0:	e8 3d a0 ff ff       	callq  7212 <safe_mul_func_int8_t_s_s>
    d1d5:	0f be c8             	movsbl %al,%ecx
    d1d8:	8b 15 0a 88 00 00    	mov    0x880a(%rip),%edx        # 159e8 <g_248+0x8>
    d1de:	48 8b 05 bb a7 00 00 	mov    0xa7bb(%rip),%rax        # 179a0 <g_152>
    d1e5:	48 8b 00             	mov    (%rax),%rax
    d1e8:	48 8b 00             	mov    (%rax),%rax
    d1eb:	31 ca                	xor    %ecx,%edx
    d1ed:	89 10                	mov    %edx,(%rax)
    d1ef:	48 8b 05 12 a7 00 00 	mov    0xa712(%rip),%rax        # 17908 <g_154>
    d1f6:	8b 00                	mov    (%rax),%eax
    d1f8:	88 85 4d e8 ff ff    	mov    %al,-0x17b3(%rbp)
    d1fe:	0f b6 85 4e e8 ff ff 	movzbl -0x17b2(%rbp),%eax
    d205:	0f be c0             	movsbl %al,%eax
    d208:	be 02 00 00 00       	mov    $0x2,%esi
    d20d:	89 c7                	mov    %eax,%edi
    d20f:	e8 c0 9f ff ff       	callq  71d4 <safe_add_func_int8_t_s_s>
    d214:	88 85 4e e8 ff ff    	mov    %al,-0x17b2(%rbp)
    d21a:	80 bd 4e e8 ff ff 0e 	cmpb   $0xe,-0x17b2(%rbp)
    d221:	0f 87 30 ff ff ff    	ja     d157 <func_53+0x3421>
    d227:	44 8b 3d 4a 88 00 00 	mov    0x884a(%rip),%r15d        # 15a78 <g_415+0x8>
    d22e:	0f b6 85 4c e8 ff ff 	movzbl -0x17b4(%rbp),%eax
    d235:	0f be d8             	movsbl %al,%ebx
    d238:	48 8b 85 30 e8 ff ff 	mov    -0x17d0(%rbp),%rax
    d23f:	44 0f be e0          	movsbl %al,%r12d
    d243:	48 8b 85 30 e8 ff ff 	mov    -0x17d0(%rbp),%rax
    d24a:	44 0f be e8          	movsbl %al,%r13d
    d24e:	8b 05 3c 88 00 00    	mov    0x883c(%rip),%eax        # 15a90 <g_424>
    d254:	c1 e0 04             	shl    $0x4,%eax
    d257:	c1 f8 04             	sar    $0x4,%eax
    d25a:	44 0f b6 f0          	movzbl %al,%r14d
    d25e:	8b 05 34 88 00 00    	mov    0x8834(%rip),%eax        # 15a98 <g_424+0x8>
    d264:	85 c0                	test   %eax,%eax
    d266:	74 5a                	je     d2c2 <func_53+0x358c>
    d268:	0f b7 05 af 87 00 00 	movzwl 0x87af(%rip),%eax        # 15a1e <g_410+0x1e>
    d26f:	89 c2                	mov    %eax,%edx
    d271:	8b 05 29 88 00 00    	mov    0x8829(%rip),%eax        # 15aa0 <g_424+0x10>
    d277:	85 c0                	test   %eax,%eax
    d279:	0f 95 c0             	setne  %al
    d27c:	0f b6 c0             	movzbl %al,%eax
    d27f:	31 d0                	xor    %edx,%eax
    d281:	66 89 05 96 87 00 00 	mov    %ax,0x8796(%rip)        # 15a1e <g_410+0x1e>
    d288:	0f b7 05 a3 81 00 00 	movzwl 0x81a3(%rip),%eax        # 15432 <g_29+0x72>
    d28f:	0f b7 c0             	movzwl %ax,%eax
    d292:	be 02 00 00 00       	mov    $0x2,%esi
    d297:	89 c7                	mov    %eax,%edi
    d299:	e8 aa ab ff ff       	callq  7e48 <safe_rshift_func_uint16_t_u_s>
    d29e:	0f b7 d0             	movzwl %ax,%edx
    d2a1:	48 8b 05 e8 81 00 00 	mov    0x81e8(%rip),%rax        # 15490 <g_71>
    d2a8:	48 09 c2             	or     %rax,%rdx
    d2ab:	48 8b 85 28 e8 ff ff 	mov    -0x17d8(%rbp),%rax
    d2b2:	8b 00                	mov    (%rax),%eax
    d2b4:	48 98                	cltq   
    d2b6:	48 39 c2             	cmp    %rax,%rdx
    d2b9:	7f 07                	jg     d2c2 <func_53+0x358c>
    d2bb:	b8 01 00 00 00       	mov    $0x1,%eax
    d2c0:	eb 05                	jmp    d2c7 <func_53+0x3591>
    d2c2:	b8 00 00 00 00       	mov    $0x0,%eax
    d2c7:	0f b6 c0             	movzbl %al,%eax
    d2ca:	44 89 f6             	mov    %r14d,%esi
    d2cd:	89 c7                	mov    %eax,%edi
    d2cf:	e8 da a8 ff ff       	callq  7bae <safe_mod_func_uint8_t_u_u>
    d2d4:	89 c2                	mov    %eax,%edx
    d2d6:	8b 05 94 87 00 00    	mov    0x8794(%rip),%eax        # 15a70 <g_415>
    d2dc:	c1 e0 04             	shl    $0x4,%eax
    d2df:	c1 f8 04             	sar    $0x4,%eax
    d2e2:	21 d0                	and    %edx,%eax
    d2e4:	0f be c0             	movsbl %al,%eax
    d2e7:	44 89 ee             	mov    %r13d,%esi
    d2ea:	89 c7                	mov    %eax,%edi
    d2ec:	e8 e3 9e ff ff       	callq  71d4 <safe_add_func_int8_t_s_s>
    d2f1:	0f be c0             	movsbl %al,%eax
    d2f4:	89 c6                	mov    %eax,%esi
    d2f6:	bf fe e3 34 bb       	mov    $0xbb34e3fe,%edi
    d2fb:	e8 d0 ab ff ff       	callq  7ed0 <safe_sub_func_uint32_t_u_u>
    d300:	89 c0                	mov    %eax,%eax
    d302:	48 89 c6             	mov    %rax,%rsi
    d305:	48 bf 39 29 ef 20 4c 	movabs $0x868fa74c20ef2939,%rdi
    d30c:	a7 8f 86 
    d30f:	e8 a0 a6 ff ff       	callq  79b4 <safe_mod_func_int64_t_s_s>
    d314:	89 c2                	mov    %eax,%edx
    d316:	48 8b 05 eb a5 00 00 	mov    0xa5eb(%rip),%rax        # 17908 <g_154>
    d31d:	8b 00                	mov    (%rax),%eax
    d31f:	89 d6                	mov    %edx,%esi
    d321:	89 c7                	mov    %eax,%edi
    d323:	e8 d7 a3 ff ff       	callq  76ff <safe_div_func_int32_t_s_s>
    d328:	0f be c0             	movsbl %al,%eax
    d32b:	44 89 e6             	mov    %r12d,%esi
    d32e:	89 c7                	mov    %eax,%edi
    d330:	e8 dd 9e ff ff       	callq  7212 <safe_mul_func_int8_t_s_s>
    d335:	0f be c0             	movsbl %al,%eax
    d338:	89 de                	mov    %ebx,%esi
    d33a:	89 c7                	mov    %eax,%edi
    d33c:	e8 b1 9e ff ff       	callq  71f2 <safe_sub_func_int8_t_s_s>
    d341:	0f be c0             	movsbl %al,%eax
    d344:	41 39 c7             	cmp    %eax,%r15d
    d347:	0f 9f c2             	setg   %dl
    d34a:	48 8b 05 b7 a5 00 00 	mov    0xa5b7(%rip),%rax        # 17908 <g_154>
    d351:	0f b6 d2             	movzbl %dl,%edx
    d354:	89 10                	mov    %edx,(%rax)
    d356:	0f b6 05 bf 81 00 00 	movzbl 0x81bf(%rip),%eax        # 1551c <g_202+0xc>
    d35d:	83 c0 01             	add    $0x1,%eax
    d360:	88 05 b6 81 00 00    	mov    %al,0x81b6(%rip)        # 1551c <g_202+0xc>
    d366:	0f b6 05 af 81 00 00 	movzbl 0x81af(%rip),%eax        # 1551c <g_202+0xc>
    d36d:	3c 2c                	cmp    $0x2c,%al
    d36f:	0f 86 ed ed ff ff    	jbe    c162 <func_53+0x242c>
    d375:	8b 9d 3c e8 ff ff    	mov    -0x17c4(%rbp),%ebx
    d37b:	be 00 00 00 00       	mov    $0x0,%esi
    d380:	bf 27 00 00 00       	mov    $0x27,%edi
    d385:	e8 ab 9f ff ff       	callq  7335 <safe_rshift_func_int8_t_s_s>
    d38a:	89 c2                	mov    %eax,%edx
    d38c:	48 8b 85 10 e9 ff ff 	mov    -0x16f0(%rbp),%rax
    d393:	66 0f be d2          	movsbw %dl,%dx
    d397:	66 89 10             	mov    %dx,(%rax)
    d39a:	0f b7 00             	movzwl (%rax),%eax
    d39d:	66 3d 47 44          	cmp    $0x4447,%ax
    d3a1:	0f 9e c0             	setle  %al
    d3a4:	0f b6 d0             	movzbl %al,%edx
    d3a7:	48 8b 05 52 a7 00 00 	mov    0xa752(%rip),%rax        # 17b00 <g_172>
    d3ae:	0f b6 00             	movzbl (%rax),%eax
    d3b1:	0f b6 c0             	movzbl %al,%eax
    d3b4:	89 d6                	mov    %edx,%esi
    d3b6:	89 c7                	mov    %eax,%edi
    d3b8:	e8 9d a7 ff ff       	callq  7b5a <safe_add_func_uint8_t_u_u>
    d3bd:	84 c0                	test   %al,%al
    d3bf:	74 29                	je     d3ea <func_53+0x36b4>
    d3c1:	0f b7 85 54 e8 ff ff 	movzwl -0x17ac(%rbp),%eax
    d3c8:	48 8b 15 41 81 00 00 	mov    0x8141(%rip),%rdx        # 15510 <g_202>
    d3cf:	89 c6                	mov    %eax,%esi
    d3d1:	bf 01 00 00 00       	mov    $0x1,%edi
    d3d6:	e8 dd aa ff ff       	callq  7eb8 <safe_add_func_uint32_t_u_u>
    d3db:	39 85 3c e8 ff ff    	cmp    %eax,-0x17c4(%rbp)
    d3e1:	73 07                	jae    d3ea <func_53+0x36b4>
    d3e3:	b8 01 00 00 00       	mov    $0x1,%eax
    d3e8:	eb 05                	jmp    d3ef <func_53+0x36b9>
    d3ea:	b8 00 00 00 00       	mov    $0x0,%eax
    d3ef:	0f b6 d0             	movzbl %al,%edx
    d3f2:	8b 85 3c e8 ff ff    	mov    -0x17c4(%rbp),%eax
    d3f8:	0f b6 c0             	movzbl %al,%eax
    d3fb:	89 d6                	mov    %edx,%esi
    d3fd:	89 c7                	mov    %eax,%edi
    d3ff:	e8 d7 a7 ff ff       	callq  7bdb <safe_div_func_uint8_t_u_u>
    d404:	0f b6 d0             	movzbl %al,%edx
    d407:	8b 85 3c e8 ff ff    	mov    -0x17c4(%rbp),%eax
    d40d:	0f b7 c0             	movzwl %ax,%eax
    d410:	89 d6                	mov    %edx,%esi
    d412:	89 c7                	mov    %eax,%edi
    d414:	e8 24 a9 ff ff       	callq  7d3d <safe_mul_func_uint16_t_u_u>
    d419:	89 de                	mov    %ebx,%esi
    d41b:	bf 00 00 00 00       	mov    $0x0,%edi
    d420:	e8 23 aa ff ff       	callq  7e48 <safe_rshift_func_uint16_t_u_s>
    d425:	be 00 00 00 00       	mov    $0x0,%esi
    d42a:	bf 01 00 00 00       	mov    $0x1,%edi
    d42f:	e8 be 9d ff ff       	callq  71f2 <safe_sub_func_int8_t_s_s>
    d434:	48 0f be c0          	movsbq %al,%rax
    d438:	48 39 85 30 e8 ff ff 	cmp    %rax,-0x17d0(%rbp)
    d43f:	76 07                	jbe    d448 <func_53+0x3712>
    d441:	ba 03 00 00 00       	mov    $0x3,%edx
    d446:	eb 05                	jmp    d44d <func_53+0x3717>
    d448:	ba 02 00 00 00       	mov    $0x2,%edx
    d44d:	48 8b 85 90 ea ff ff 	mov    -0x1570(%rbp),%rax
    d454:	89 10                	mov    %edx,(%rax)
    d456:	8b 85 3c e8 ff ff    	mov    -0x17c4(%rbp),%eax
    d45c:	e9 a9 01 00 00       	jmpq   d60a <func_53+0x38d4>
    d461:	48 8b 95 28 e8 ff ff 	mov    -0x17d8(%rbp),%rdx
    d468:	48 8b 05 31 a5 00 00 	mov    0xa531(%rip),%rax        # 179a0 <g_152>
    d46f:	48 8b 00             	mov    (%rax),%rax
    d472:	48 8b 00             	mov    (%rax),%rax
    d475:	8b 12                	mov    (%rdx),%edx
    d477:	89 10                	mov    %edx,(%rax)
    d479:	48 8b 05 88 a4 00 00 	mov    0xa488(%rip),%rax        # 17908 <g_154>
    d480:	c7 00 f7 ff ff ff    	movl   $0xfffffff7,(%rax)
    d486:	48 8b 85 28 e8 ff ff 	mov    -0x17d8(%rbp),%rax
    d48d:	8b 00                	mov    (%rax),%eax
    d48f:	89 85 c4 e8 ff ff    	mov    %eax,-0x173c(%rbp)
    d495:	0f b7 85 52 e8 ff ff 	movzwl -0x17ae(%rbp),%eax
    d49c:	83 c0 01             	add    $0x1,%eax
    d49f:	66 89 85 52 e8 ff ff 	mov    %ax,-0x17ae(%rbp)
    d4a6:	66 83 bd 52 e8 ff ff 	cmpw   $0xf,-0x17ae(%rbp)
    d4ad:	0f 
    d4ae:	0f 8f b4 e8 ff ff    	jg     bd68 <func_53+0x2032>
    d4b4:	48 c7 05 d9 7f 00 00 	movq   $0x5,0x7fd9(%rip)        # 15498 <g_132>
    d4bb:	05 00 00 00 
    d4bf:	e9 99 00 00 00       	jmpq   d55d <func_53+0x3827>
    d4c4:	48 c7 85 30 f8 ff ff 	movq   $0x0,-0x7d0(%rbp)
    d4cb:	00 00 00 00 
    d4cf:	48 c7 85 38 f8 ff ff 	movq   $0x0,-0x7c8(%rbp)
    d4d6:	00 00 00 00 
    d4da:	48 c7 85 40 f8 ff ff 	movq   $0x0,-0x7c0(%rbp)
    d4e1:	00 00 00 00 
    d4e5:	48 c7 85 48 f8 ff ff 	movq   $0x0,-0x7b8(%rbp)
    d4ec:	00 00 00 00 
    d4f0:	c7 85 50 f8 ff ff 00 	movl   $0x0,-0x7b0(%rbp)
    d4f7:	00 00 00 
    d4fa:	48 8d 05 0f a6 00 00 	lea    0xa60f(%rip),%rax        # 17b10 <g_174>
    d501:	48 89 85 58 ea ff ff 	mov    %rax,-0x15a8(%rbp)
    d508:	48 c7 85 60 ea ff ff 	movq   $0x0,-0x15a0(%rbp)
    d50f:	00 00 00 00 
    d513:	48 8d 05 1e 84 00 00 	lea    0x841e(%rip),%rax        # 15938 <g_237+0x3f8>
    d51a:	48 89 85 68 ea ff ff 	mov    %rax,-0x1598(%rbp)
    d521:	48 8d 05 20 c3 00 00 	lea    0xc320(%rip),%rax        # 19848 <g_82>
    d528:	48 89 85 60 e9 ff ff 	mov    %rax,-0x16a0(%rbp)
    d52f:	48 8d 85 60 e9 ff ff 	lea    -0x16a0(%rbp),%rax
    d536:	48 89 85 70 eb ff ff 	mov    %rax,-0x1490(%rbp)
    d53d:	48 8d 85 70 eb ff ff 	lea    -0x1490(%rbp),%rax
    d544:	48 89 85 70 ea ff ff 	mov    %rax,-0x1590(%rbp)
    d54b:	48 8b 05 46 7f 00 00 	mov    0x7f46(%rip),%rax        # 15498 <g_132>
    d552:	48 83 e8 01          	sub    $0x1,%rax
    d556:	48 89 05 3b 7f 00 00 	mov    %rax,0x7f3b(%rip)        # 15498 <g_132>
    d55d:	48 8b 05 34 7f 00 00 	mov    0x7f34(%rip),%rax        # 15498 <g_132>
    d564:	48 85 c0             	test   %rax,%rax
    d567:	0f 89 57 ff ff ff    	jns    d4c4 <func_53+0x378e>
    d56d:	8b 05 31 85 00 00    	mov    0x8531(%rip),%eax        # 15aa4 <g_424+0x14>
    d573:	85 c0                	test   %eax,%eax
    d575:	74 0b                	je     d582 <func_53+0x384c>
    d577:	48 8b 85 28 e8 ff ff 	mov    -0x17d8(%rbp),%rax
    d57e:	8b 00                	mov    (%rax),%eax
    d580:	85 c0                	test   %eax,%eax
    d582:	8b 05 5c 84 00 00    	mov    0x845c(%rip),%eax        # 159e4 <g_248+0x4>
    d588:	0f b7 c0             	movzwl %ax,%eax
    d58b:	be 01 00 00 00       	mov    $0x1,%esi
    d590:	89 c7                	mov    %eax,%edi
    d592:	e8 88 a7 ff ff       	callq  7d1f <safe_sub_func_uint16_t_u_u>
    d597:	48 8b 05 a2 ab 00 00 	mov    0xaba2(%rip),%rax        # 18140 <g_825>
    d59e:	48 89 85 b0 ec ff ff 	mov    %rax,-0x1350(%rbp)
    d5a5:	48 8b 95 b0 ec ff ff 	mov    -0x1350(%rbp),%rdx
    d5ac:	48 8d 85 28 e9 ff ff 	lea    -0x16d8(%rbp),%rax
    d5b3:	48 39 c2             	cmp    %rax,%rdx
    d5b6:	0f 95 c0             	setne  %al
    d5b9:	0f b6 c0             	movzbl %al,%eax
    d5bc:	48 8b 95 30 e8 ff ff 	mov    -0x17d0(%rbp),%rdx
    d5c3:	21 c2                	and    %eax,%edx
    d5c5:	48 8b 05 34 a5 00 00 	mov    0xa534(%rip),%rax        # 17b00 <g_172>
    d5cc:	0f b6 00             	movzbl (%rax),%eax
    d5cf:	0f b6 c0             	movzbl %al,%eax
    d5d2:	39 85 3c e8 ff ff    	cmp    %eax,-0x17c4(%rbp)
    d5d8:	0f 97 c0             	seta   %al
    d5db:	0f b6 c0             	movzbl %al,%eax
    d5de:	89 d6                	mov    %edx,%esi
    d5e0:	89 c7                	mov    %eax,%edi
    d5e2:	e8 07 9d ff ff       	callq  72ee <safe_lshift_func_int8_t_s_u>
    d5e7:	48 0f be c0          	movsbq %al,%rax
    d5eb:	48 39 85 30 e8 ff ff 	cmp    %rax,-0x17d0(%rbp)
    d5f2:	0f 95 c2             	setne  %dl
    d5f5:	48 8b 05 0c a3 00 00 	mov    0xa30c(%rip),%rax        # 17908 <g_154>
    d5fc:	0f b6 d2             	movzbl %dl,%edx
    d5ff:	89 10                	mov    %edx,(%rax)
    d601:	48 8b 05 a0 aa 00 00 	mov    0xaaa0(%rip),%rax        # 180a8 <g_738>
    d608:	8b 00                	mov    (%rax),%eax
    d60a:	48 8b 5d c8          	mov    -0x38(%rbp),%rbx
    d60e:	64 48 33 1c 25 28 00 	xor    %fs:0x28,%rbx
    d615:	00 00 
    d617:	74 05                	je     d61e <func_53+0x38e8>
    d619:	e8 52 9a ff ff       	callq  7070 <__stack_chk_fail@plt>
    d61e:	48 81 c4 b8 17 00 00 	add    $0x17b8,%rsp
    d625:	5b                   	pop    %rbx
    d626:	41 5c                	pop    %r12
    d628:	41 5d                	pop    %r13
    d62a:	41 5e                	pop    %r14
    d62c:	41 5f                	pop    %r15
    d62e:	5d                   	pop    %rbp
    d62f:	c3                   	retq   

000000000000d630 <main>:
    d630:	f3 0f 1e fa          	endbr64 
    d634:	55                   	push   %rbp
    d635:	48 89 e5             	mov    %rsp,%rbp
    d638:	48 83 ec 20          	sub    $0x20,%rsp
    d63c:	89 7d ec             	mov    %edi,-0x14(%rbp)
    d63f:	48 89 75 e0          	mov    %rsi,-0x20(%rbp)
    d643:	c7 45 fc 00 00 00 00 	movl   $0x0,-0x4(%rbp)
    d64a:	83 7d ec 02          	cmpl   $0x2,-0x14(%rbp)
    d64e:	75 25                	jne    d675 <main+0x45>
    d650:	48 8b 45 e0          	mov    -0x20(%rbp),%rax
    d654:	48 83 c0 08          	add    $0x8,%rax
    d658:	48 8b 00             	mov    (%rax),%rax
    d65b:	48 8d 35 6e 47 00 00 	lea    0x476e(%rip),%rsi        # 11dd0 <g_2793+0xd30>
    d662:	48 89 c7             	mov    %rax,%rdi
    d665:	e8 26 9a ff ff       	callq  7090 <strcmp@plt>
    d66a:	85 c0                	test   %eax,%eax
    d66c:	75 07                	jne    d675 <main+0x45>
    d66e:	c7 45 fc 01 00 00 00 	movl   $0x1,-0x4(%rbp)
    d675:	e8 0f 9b ff ff       	callq  7189 <platform_main_begin>
    d67a:	e8 19 af ff ff       	callq  8598 <crc32_gentab>
    d67f:	e8 31 b1 ff ff       	callq  87b5 <func_1>
    d684:	48 8b 05 9d 79 00 00 	mov    0x799d(%rip),%rax        # 15028 <g_8>
    d68b:	48 89 c1             	mov    %rax,%rcx
    d68e:	8b 45 fc             	mov    -0x4(%rbp),%eax
    d691:	89 c2                	mov    %eax,%edx
    d693:	48 8d 35 38 47 00 00 	lea    0x4738(%rip),%rsi        # 11dd2 <g_2793+0xd32>
    d69a:	48 89 cf             	mov    %rcx,%rdi
    d69d:	e8 51 b0 ff ff       	callq  86f3 <transparent_crc>
    d6a2:	c7 45 f0 00 00 00 00 	movl   $0x0,-0x10(%rbp)
    d6a9:	e9 bb 00 00 00       	jmpq   d769 <main+0x139>
    d6ae:	c7 45 f4 00 00 00 00 	movl   $0x0,-0xc(%rbp)
    d6b5:	e9 a1 00 00 00       	jmpq   d75b <main+0x12b>
    d6ba:	c7 45 f8 00 00 00 00 	movl   $0x0,-0x8(%rbp)
    d6c1:	e9 87 00 00 00       	jmpq   d74d <main+0x11d>
    d6c6:	8b 45 f8             	mov    -0x8(%rbp),%eax
    d6c9:	48 63 f0             	movslq %eax,%rsi
    d6cc:	8b 45 f0             	mov    -0x10(%rbp),%eax
    d6cf:	48 63 d0             	movslq %eax,%rdx
    d6d2:	8b 45 f4             	mov    -0xc(%rbp),%eax
    d6d5:	48 63 c8             	movslq %eax,%rcx
    d6d8:	48 89 d0             	mov    %rdx,%rax
    d6db:	48 01 c0             	add    %rax,%rax
    d6de:	48 01 d0             	add    %rdx,%rax
    d6e1:	48 8d 14 c5 00 00 00 	lea    0x0(,%rax,8),%rdx
    d6e8:	00 
    d6e9:	48 01 d0             	add    %rdx,%rax
    d6ec:	48 01 c0             	add    %rax,%rax
    d6ef:	48 89 ca             	mov    %rcx,%rdx
    d6f2:	48 01 d2             	add    %rdx,%rdx
    d6f5:	48 01 ca             	add    %rcx,%rdx
    d6f8:	48 01 d2             	add    %rdx,%rdx
    d6fb:	48 01 d0             	add    %rdx,%rax
    d6fe:	48 01 f0             	add    %rsi,%rax
    d701:	48 8d 14 85 00 00 00 	lea    0x0(,%rax,4),%rdx
    d708:	00 
    d709:	48 8d 05 30 79 00 00 	lea    0x7930(%rip),%rax        # 15040 <g_10>
    d710:	8b 04 02             	mov    (%rdx,%rax,1),%eax
    d713:	48 98                	cltq   
    d715:	8b 55 fc             	mov    -0x4(%rbp),%edx
    d718:	48 8d 35 b7 46 00 00 	lea    0x46b7(%rip),%rsi        # 11dd6 <g_2793+0xd36>
    d71f:	48 89 c7             	mov    %rax,%rdi
    d722:	e8 cc af ff ff       	callq  86f3 <transparent_crc>
    d727:	83 7d fc 00          	cmpl   $0x0,-0x4(%rbp)
    d72b:	74 1c                	je     d749 <main+0x119>
    d72d:	8b 4d f8             	mov    -0x8(%rbp),%ecx
    d730:	8b 55 f4             	mov    -0xc(%rbp),%edx
    d733:	8b 45 f0             	mov    -0x10(%rbp),%eax
    d736:	89 c6                	mov    %eax,%esi
    d738:	48 8d 3d a5 46 00 00 	lea    0x46a5(%rip),%rdi        # 11de4 <g_2793+0xd44>
    d73f:	b8 00 00 00 00       	mov    $0x0,%eax
    d744:	e8 37 99 ff ff       	callq  7080 <printf@plt>
    d749:	83 45 f8 01          	addl   $0x1,-0x8(%rbp)
    d74d:	83 7d f8 05          	cmpl   $0x5,-0x8(%rbp)
    d751:	0f 8e 6f ff ff ff    	jle    d6c6 <main+0x96>
    d757:	83 45 f4 01          	addl   $0x1,-0xc(%rbp)
    d75b:	83 7d f4 08          	cmpl   $0x8,-0xc(%rbp)
    d75f:	0f 8e 55 ff ff ff    	jle    d6ba <main+0x8a>
    d765:	83 45 f0 01          	addl   $0x1,-0x10(%rbp)
    d769:	83 7d f0 03          	cmpl   $0x3,-0x10(%rbp)
    d76d:	0f 8e 3b ff ff ff    	jle    d6ae <main+0x7e>
    d773:	8b 05 27 7c 00 00    	mov    0x7c27(%rip),%eax        # 153a0 <g_21>
    d779:	89 c1                	mov    %eax,%ecx
    d77b:	8b 45 fc             	mov    -0x4(%rbp),%eax
    d77e:	89 c2                	mov    %eax,%edx
    d780:	48 8d 35 73 46 00 00 	lea    0x4673(%rip),%rsi        # 11dfa <g_2793+0xd5a>
    d787:	48 89 cf             	mov    %rcx,%rdi
    d78a:	e8 64 af ff ff       	callq  86f3 <transparent_crc>
    d78f:	c7 45 f0 00 00 00 00 	movl   $0x0,-0x10(%rbp)
    d796:	e9 6d 01 00 00       	jmpq   d908 <main+0x2d8>
    d79b:	8b 45 f0             	mov    -0x10(%rbp),%eax
    d79e:	48 63 d0             	movslq %eax,%rdx
    d7a1:	48 89 d0             	mov    %rdx,%rax
    d7a4:	48 c1 e0 02          	shl    $0x2,%rax
    d7a8:	48 01 d0             	add    %rdx,%rax
    d7ab:	48 c1 e0 02          	shl    $0x2,%rax
    d7af:	48 01 c2             	add    %rax,%rdx
    d7b2:	48 8d 05 07 7c 00 00 	lea    0x7c07(%rip),%rax        # 153c0 <g_29>
    d7b9:	8b 04 02             	mov    (%rdx,%rax,1),%eax
    d7bc:	48 98                	cltq   
    d7be:	8b 55 fc             	mov    -0x4(%rbp),%edx
    d7c1:	48 8d 35 37 46 00 00 	lea    0x4637(%rip),%rsi        # 11dff <g_2793+0xd5f>
    d7c8:	48 89 c7             	mov    %rax,%rdi
    d7cb:	e8 23 af ff ff       	callq  86f3 <transparent_crc>
    d7d0:	8b 45 f0             	mov    -0x10(%rbp),%eax
    d7d3:	48 63 d0             	movslq %eax,%rdx
    d7d6:	48 89 d0             	mov    %rdx,%rax
    d7d9:	48 c1 e0 02          	shl    $0x2,%rax
    d7dd:	48 01 d0             	add    %rdx,%rax
    d7e0:	48 c1 e0 02          	shl    $0x2,%rax
    d7e4:	48 01 c2             	add    %rax,%rdx
    d7e7:	48 8d 05 d6 7b 00 00 	lea    0x7bd6(%rip),%rax        # 153c4 <g_29+0x4>
    d7ee:	8b 04 02             	mov    (%rdx,%rax,1),%eax
    d7f1:	48 98                	cltq   
    d7f3:	8b 55 fc             	mov    -0x4(%rbp),%edx
    d7f6:	48 8d 35 0d 46 00 00 	lea    0x460d(%rip),%rsi        # 11e0a <g_2793+0xd6a>
    d7fd:	48 89 c7             	mov    %rax,%rdi
    d800:	e8 ee ae ff ff       	callq  86f3 <transparent_crc>
    d805:	8b 45 f0             	mov    -0x10(%rbp),%eax
    d808:	48 63 d0             	movslq %eax,%rdx
    d80b:	48 89 d0             	mov    %rdx,%rax
    d80e:	48 c1 e0 02          	shl    $0x2,%rax
    d812:	48 01 d0             	add    %rdx,%rax
    d815:	48 c1 e0 02          	shl    $0x2,%rax
    d819:	48 01 c2             	add    %rax,%rdx
    d81c:	48 8d 05 a5 7b 00 00 	lea    0x7ba5(%rip),%rax        # 153c8 <g_29+0x8>
    d823:	0f b6 04 02          	movzbl (%rdx,%rax,1),%eax
    d827:	48 0f be c0          	movsbq %al,%rax
    d82b:	8b 55 fc             	mov    -0x4(%rbp),%edx
    d82e:	48 8d 35 e0 45 00 00 	lea    0x45e0(%rip),%rsi        # 11e15 <g_2793+0xd75>
    d835:	48 89 c7             	mov    %rax,%rdi
    d838:	e8 b6 ae ff ff       	callq  86f3 <transparent_crc>
    d83d:	8b 45 f0             	mov    -0x10(%rbp),%eax
    d840:	48 63 d0             	movslq %eax,%rdx
    d843:	48 89 d0             	mov    %rdx,%rax
    d846:	48 c1 e0 02          	shl    $0x2,%rax
    d84a:	48 01 d0             	add    %rdx,%rax
    d84d:	48 c1 e0 02          	shl    $0x2,%rax
    d851:	48 01 c2             	add    %rax,%rdx
    d854:	48 8d 05 65 7b 00 00 	lea    0x7b65(%rip),%rax        # 153c0 <g_29>
    d85b:	0f b7 44 02 09       	movzwl 0x9(%rdx,%rax,1),%eax
    d860:	48 0f bf c0          	movswq %ax,%rax
    d864:	8b 55 fc             	mov    -0x4(%rbp),%edx
    d867:	48 8d 35 b2 45 00 00 	lea    0x45b2(%rip),%rsi        # 11e20 <g_2793+0xd80>
    d86e:	48 89 c7             	mov    %rax,%rdi
    d871:	e8 7d ae ff ff       	callq  86f3 <transparent_crc>
    d876:	8b 45 f0             	mov    -0x10(%rbp),%eax
    d879:	48 63 d0             	movslq %eax,%rdx
    d87c:	48 89 d0             	mov    %rdx,%rax
    d87f:	48 c1 e0 02          	shl    $0x2,%rax
    d883:	48 01 d0             	add    %rdx,%rax
    d886:	48 c1 e0 02          	shl    $0x2,%rax
    d88a:	48 01 c2             	add    %rax,%rdx
    d88d:	48 8d 05 2c 7b 00 00 	lea    0x7b2c(%rip),%rax        # 153c0 <g_29>
    d894:	0f b7 44 02 0b       	movzwl 0xb(%rdx,%rax,1),%eax
    d899:	0f b7 c0             	movzwl %ax,%eax
    d89c:	8b 55 fc             	mov    -0x4(%rbp),%edx
    d89f:	48 8d 35 85 45 00 00 	lea    0x4585(%rip),%rsi        # 11e2b <g_2793+0xd8b>
    d8a6:	48 89 c7             	mov    %rax,%rdi
    d8a9:	e8 45 ae ff ff       	callq  86f3 <transparent_crc>
    d8ae:	8b 45 f0             	mov    -0x10(%rbp),%eax
    d8b1:	48 63 d0             	movslq %eax,%rdx
    d8b4:	48 89 d0             	mov    %rdx,%rax
    d8b7:	48 c1 e0 02          	shl    $0x2,%rax
    d8bb:	48 01 d0             	add    %rdx,%rax
    d8be:	48 c1 e0 02          	shl    $0x2,%rax
    d8c2:	48 01 c2             	add    %rax,%rdx
    d8c5:	48 8d 05 f4 7a 00 00 	lea    0x7af4(%rip),%rax        # 153c0 <g_29>
    d8cc:	48 8b 44 02 0d       	mov    0xd(%rdx,%rax,1),%rax
    d8d1:	48 89 c1             	mov    %rax,%rcx
    d8d4:	8b 45 fc             	mov    -0x4(%rbp),%eax
    d8d7:	89 c2                	mov    %eax,%edx
    d8d9:	48 8d 35 56 45 00 00 	lea    0x4556(%rip),%rsi        # 11e36 <g_2793+0xd96>
    d8e0:	48 89 cf             	mov    %rcx,%rdi
    d8e3:	e8 0b ae ff ff       	callq  86f3 <transparent_crc>
    d8e8:	83 7d fc 00          	cmpl   $0x0,-0x4(%rbp)
    d8ec:	74 16                	je     d904 <main+0x2d4>
    d8ee:	8b 45 f0             	mov    -0x10(%rbp),%eax
    d8f1:	89 c6                	mov    %eax,%esi
    d8f3:	48 8d 3d 47 45 00 00 	lea    0x4547(%rip),%rdi        # 11e41 <g_2793+0xda1>
    d8fa:	b8 00 00 00 00       	mov    $0x0,%eax
    d8ff:	e8 7c 97 ff ff       	callq  7080 <printf@plt>
    d904:	83 45 f0 01          	addl   $0x1,-0x10(%rbp)
    d908:	83 7d f0 07          	cmpl   $0x7,-0x10(%rbp)
    d90c:	0f 8e 89 fe ff ff    	jle    d79b <main+0x16b>
    d912:	8b 05 58 7b 00 00    	mov    0x7b58(%rip),%eax        # 15470 <g_57>
    d918:	c1 e0 04             	shl    $0x4,%eax
    d91b:	c1 f8 04             	sar    $0x4,%eax
    d91e:	48 98                	cltq   
    d920:	8b 55 fc             	mov    -0x4(%rbp),%edx
    d923:	48 8d 35 25 45 00 00 	lea    0x4525(%rip),%rsi        # 11e4f <g_2793+0xdaf>
    d92a:	48 89 c7             	mov    %rax,%rdi
    d92d:	e8 c1 ad ff ff       	callq  86f3 <transparent_crc>
    d932:	8b 05 3c 7b 00 00    	mov    0x7b3c(%rip),%eax        # 15474 <g_57+0x4>
    d938:	89 c1                	mov    %eax,%ecx
    d93a:	8b 45 fc             	mov    -0x4(%rbp),%eax
    d93d:	89 c2                	mov    %eax,%edx
    d93f:	48 8d 35 11 45 00 00 	lea    0x4511(%rip),%rsi        # 11e57 <g_2793+0xdb7>
    d946:	48 89 cf             	mov    %rcx,%rdi
    d949:	e8 a5 ad ff ff       	callq  86f3 <transparent_crc>
    d94e:	8b 05 24 7b 00 00    	mov    0x7b24(%rip),%eax        # 15478 <g_57+0x8>
    d954:	48 98                	cltq   
    d956:	8b 55 fc             	mov    -0x4(%rbp),%edx
    d959:	48 8d 35 ff 44 00 00 	lea    0x44ff(%rip),%rsi        # 11e5f <g_2793+0xdbf>
    d960:	48 89 c7             	mov    %rax,%rdi
    d963:	e8 8b ad ff ff       	callq  86f3 <transparent_crc>
    d968:	8b 05 0e 7b 00 00    	mov    0x7b0e(%rip),%eax        # 1547c <g_57+0xc>
    d96e:	48 98                	cltq   
    d970:	8b 55 fc             	mov    -0x4(%rbp),%edx
    d973:	48 8d 35 ed 44 00 00 	lea    0x44ed(%rip),%rsi        # 11e67 <g_2793+0xdc7>
    d97a:	48 89 c7             	mov    %rax,%rdi
    d97d:	e8 71 ad ff ff       	callq  86f3 <transparent_crc>
    d982:	8b 05 f8 7a 00 00    	mov    0x7af8(%rip),%eax        # 15480 <g_57+0x10>
    d988:	48 98                	cltq   
    d98a:	8b 55 fc             	mov    -0x4(%rbp),%edx
    d98d:	48 8d 35 db 44 00 00 	lea    0x44db(%rip),%rsi        # 11e6f <g_2793+0xdcf>
    d994:	48 89 c7             	mov    %rax,%rdi
    d997:	e8 57 ad ff ff       	callq  86f3 <transparent_crc>
    d99c:	8b 05 e2 7a 00 00    	mov    0x7ae2(%rip),%eax        # 15484 <g_57+0x14>
    d9a2:	48 98                	cltq   
    d9a4:	8b 55 fc             	mov    -0x4(%rbp),%edx
    d9a7:	48 8d 35 c9 44 00 00 	lea    0x44c9(%rip),%rsi        # 11e77 <g_2793+0xdd7>
    d9ae:	48 89 c7             	mov    %rax,%rdi
    d9b1:	e8 3d ad ff ff       	callq  86f3 <transparent_crc>
    d9b6:	8b 05 cc 7a 00 00    	mov    0x7acc(%rip),%eax        # 15488 <g_57+0x18>
    d9bc:	89 c1                	mov    %eax,%ecx
    d9be:	8b 45 fc             	mov    -0x4(%rbp),%eax
    d9c1:	89 c2                	mov    %eax,%edx
    d9c3:	48 8d 35 b5 44 00 00 	lea    0x44b5(%rip),%rsi        # 11e7f <g_2793+0xddf>
    d9ca:	48 89 cf             	mov    %rcx,%rdi
    d9cd:	e8 21 ad ff ff       	callq  86f3 <transparent_crc>
    d9d2:	48 8b 05 b7 7a 00 00 	mov    0x7ab7(%rip),%rax        # 15490 <g_71>
    d9d9:	48 89 c1             	mov    %rax,%rcx
    d9dc:	8b 45 fc             	mov    -0x4(%rbp),%eax
    d9df:	89 c2                	mov    %eax,%edx
    d9e1:	48 8d 35 9f 44 00 00 	lea    0x449f(%rip),%rsi        # 11e87 <g_2793+0xde7>
    d9e8:	48 89 cf             	mov    %rcx,%rdi
    d9eb:	e8 03 ad ff ff       	callq  86f3 <transparent_crc>
    d9f0:	48 8b 05 a1 7a 00 00 	mov    0x7aa1(%rip),%rax        # 15498 <g_132>
    d9f7:	48 89 c1             	mov    %rax,%rcx
    d9fa:	8b 45 fc             	mov    -0x4(%rbp),%eax
    d9fd:	89 c2                	mov    %eax,%edx
    d9ff:	48 8d 35 86 44 00 00 	lea    0x4486(%rip),%rsi        # 11e8c <g_2793+0xdec>
    da06:	48 89 cf             	mov    %rcx,%rdi
    da09:	e8 e5 ac ff ff       	callq  86f3 <transparent_crc>
    da0e:	8b 05 8c 7a 00 00    	mov    0x7a8c(%rip),%eax        # 154a0 <g_155>
    da14:	48 98                	cltq   
    da16:	8b 55 fc             	mov    -0x4(%rbp),%edx
    da19:	48 8d 35 72 44 00 00 	lea    0x4472(%rip),%rsi        # 11e92 <g_2793+0xdf2>
    da20:	48 89 c7             	mov    %rax,%rdi
    da23:	e8 cb ac ff ff       	callq  86f3 <transparent_crc>
    da28:	0f b6 05 75 7a 00 00 	movzbl 0x7a75(%rip),%eax        # 154a4 <g_165>
    da2f:	48 0f be c0          	movsbq %al,%rax
    da33:	8b 55 fc             	mov    -0x4(%rbp),%edx
    da36:	48 8d 35 5b 44 00 00 	lea    0x445b(%rip),%rsi        # 11e98 <g_2793+0xdf8>
    da3d:	48 89 c7             	mov    %rax,%rdi
    da40:	e8 ae ac ff ff       	callq  86f3 <transparent_crc>
    da45:	c7 45 f0 00 00 00 00 	movl   $0x0,-0x10(%rbp)
    da4c:	eb 45                	jmp    da93 <main+0x463>
    da4e:	8b 45 f0             	mov    -0x10(%rbp),%eax
    da51:	48 98                	cltq   
    da53:	48 8d 15 4b 7a 00 00 	lea    0x7a4b(%rip),%rdx        # 154a5 <g_173>
    da5a:	0f b6 04 10          	movzbl (%rax,%rdx,1),%eax
    da5e:	0f b6 c0             	movzbl %al,%eax
    da61:	8b 55 fc             	mov    -0x4(%rbp),%edx
    da64:	48 8d 35 33 44 00 00 	lea    0x4433(%rip),%rsi        # 11e9e <g_2793+0xdfe>
    da6b:	48 89 c7             	mov    %rax,%rdi
    da6e:	e8 80 ac ff ff       	callq  86f3 <transparent_crc>
    da73:	83 7d fc 00          	cmpl   $0x0,-0x4(%rbp)
    da77:	74 16                	je     da8f <main+0x45f>
    da79:	8b 45 f0             	mov    -0x10(%rbp),%eax
    da7c:	89 c6                	mov    %eax,%esi
    da7e:	48 8d 3d bc 43 00 00 	lea    0x43bc(%rip),%rdi        # 11e41 <g_2793+0xda1>
    da85:	b8 00 00 00 00       	mov    $0x0,%eax
    da8a:	e8 f1 95 ff ff       	callq  7080 <printf@plt>
    da8f:	83 45 f0 01          	addl   $0x1,-0x10(%rbp)
    da93:	83 7d f0 04          	cmpl   $0x4,-0x10(%rbp)
    da97:	7e b5                	jle    da4e <main+0x41e>
    da99:	c7 45 f0 00 00 00 00 	movl   $0x0,-0x10(%rbp)
    daa0:	eb 75                	jmp    db17 <main+0x4e7>
    daa2:	c7 45 f4 00 00 00 00 	movl   $0x0,-0xc(%rbp)
    daa9:	eb 62                	jmp    db0d <main+0x4dd>
    daab:	8b 45 f4             	mov    -0xc(%rbp),%eax
    daae:	48 63 c8             	movslq %eax,%rcx
    dab1:	8b 45 f0             	mov    -0x10(%rbp),%eax
    dab4:	48 63 d0             	movslq %eax,%rdx
    dab7:	48 89 d0             	mov    %rdx,%rax
    daba:	48 01 c0             	add    %rax,%rax
    dabd:	48 01 d0             	add    %rdx,%rax
    dac0:	48 01 c0             	add    %rax,%rax
    dac3:	48 01 c8             	add    %rcx,%rax
    dac6:	48 8d 14 00          	lea    (%rax,%rax,1),%rdx
    daca:	48 8d 05 ef 79 00 00 	lea    0x79ef(%rip),%rax        # 154c0 <g_190>
    dad1:	0f b7 04 02          	movzwl (%rdx,%rax,1),%eax
    dad5:	0f b7 c0             	movzwl %ax,%eax
    dad8:	8b 55 fc             	mov    -0x4(%rbp),%edx
    dadb:	48 8d 35 c5 43 00 00 	lea    0x43c5(%rip),%rsi        # 11ea7 <g_2793+0xe07>
    dae2:	48 89 c7             	mov    %rax,%rdi
    dae5:	e8 09 ac ff ff       	callq  86f3 <transparent_crc>
    daea:	83 7d fc 00          	cmpl   $0x0,-0x4(%rbp)
    daee:	74 19                	je     db09 <main+0x4d9>
    daf0:	8b 55 f4             	mov    -0xc(%rbp),%edx
    daf3:	8b 45 f0             	mov    -0x10(%rbp),%eax
    daf6:	89 c6                	mov    %eax,%esi
    daf8:	48 8d 3d b4 43 00 00 	lea    0x43b4(%rip),%rdi        # 11eb3 <g_2793+0xe13>
    daff:	b8 00 00 00 00       	mov    $0x0,%eax
    db04:	e8 77 95 ff ff       	callq  7080 <printf@plt>
    db09:	83 45 f4 01          	addl   $0x1,-0xc(%rbp)
    db0d:	83 7d f4 05          	cmpl   $0x5,-0xc(%rbp)
    db11:	7e 98                	jle    daab <main+0x47b>
    db13:	83 45 f0 01          	addl   $0x1,-0x10(%rbp)
    db17:	83 7d f0 05          	cmpl   $0x5,-0x10(%rbp)
    db1b:	7e 85                	jle    daa2 <main+0x472>
    db1d:	48 8b 05 ec 79 00 00 	mov    0x79ec(%rip),%rax        # 15510 <g_202>
    db24:	25 ff ff ff 07       	and    $0x7ffffff,%eax
    db29:	89 c1                	mov    %eax,%ecx
    db2b:	8b 45 fc             	mov    -0x4(%rbp),%eax
    db2e:	89 c2                	mov    %eax,%edx
    db30:	48 8d 35 8e 43 00 00 	lea    0x438e(%rip),%rsi        # 11ec5 <g_2793+0xe25>
    db37:	48 89 cf             	mov    %rcx,%rdi
    db3a:	e8 b4 ab ff ff       	callq  86f3 <transparent_crc>
    db3f:	48 8b 05 ca 79 00 00 	mov    0x79ca(%rip),%rax        # 15510 <g_202>
    db46:	48 c1 e8 20          	shr    $0x20,%rax
    db4a:	25 ff ff ff 7f       	and    $0x7fffffff,%eax
    db4f:	89 c1                	mov    %eax,%ecx
    db51:	8b 45 fc             	mov    -0x4(%rbp),%eax
    db54:	89 c2                	mov    %eax,%edx
    db56:	48 8d 35 71 43 00 00 	lea    0x4371(%rip),%rsi        # 11ece <g_2793+0xe2e>
    db5d:	48 89 cf             	mov    %rcx,%rdi
    db60:	e8 8e ab ff ff       	callq  86f3 <transparent_crc>
    db65:	8b 05 ad 79 00 00    	mov    0x79ad(%rip),%eax        # 15518 <g_202+0x8>
    db6b:	48 98                	cltq   
    db6d:	8b 55 fc             	mov    -0x4(%rbp),%edx
    db70:	48 8d 35 60 43 00 00 	lea    0x4360(%rip),%rsi        # 11ed7 <g_2793+0xe37>
    db77:	48 89 c7             	mov    %rax,%rdi
    db7a:	e8 74 ab ff ff       	callq  86f3 <transparent_crc>
    db7f:	0f b6 05 96 79 00 00 	movzbl 0x7996(%rip),%eax        # 1551c <g_202+0xc>
    db86:	0f b6 c0             	movzbl %al,%eax
    db89:	8b 55 fc             	mov    -0x4(%rbp),%edx
    db8c:	48 8d 35 4d 43 00 00 	lea    0x434d(%rip),%rsi        # 11ee0 <g_2793+0xe40>
    db93:	48 89 c7             	mov    %rax,%rdi
    db96:	e8 58 ab ff ff       	callq  86f3 <transparent_crc>
    db9b:	48 8b 05 76 79 00 00 	mov    0x7976(%rip),%rax        # 15518 <g_202+0x8>
    dba2:	48 c1 e8 28          	shr    $0x28,%rax
    dba6:	83 e0 1f             	and    $0x1f,%eax
    dba9:	0f b6 c0             	movzbl %al,%eax
    dbac:	8b 55 fc             	mov    -0x4(%rbp),%edx
    dbaf:	48 8d 35 33 43 00 00 	lea    0x4333(%rip),%rsi        # 11ee9 <g_2793+0xe49>
    dbb6:	48 89 c7             	mov    %rax,%rdi
    dbb9:	e8 35 ab ff ff       	callq  86f3 <transparent_crc>
    dbbe:	8b 05 5c 79 00 00    	mov    0x795c(%rip),%eax        # 15520 <g_202+0x10>
    dbc4:	25 ff ff ff 00       	and    $0xffffff,%eax
    dbc9:	89 c1                	mov    %eax,%ecx
    dbcb:	8b 45 fc             	mov    -0x4(%rbp),%eax
    dbce:	89 c2                	mov    %eax,%edx
    dbd0:	48 8d 35 1b 43 00 00 	lea    0x431b(%rip),%rsi        # 11ef2 <g_2793+0xe52>
    dbd7:	48 89 cf             	mov    %rcx,%rdi
    dbda:	e8 14 ab ff ff       	callq  86f3 <transparent_crc>
    dbdf:	48 8b 05 42 79 00 00 	mov    0x7942(%rip),%rax        # 15528 <g_204>
    dbe6:	8b 55 fc             	mov    -0x4(%rbp),%edx
    dbe9:	48 8d 35 0b 43 00 00 	lea    0x430b(%rip),%rsi        # 11efb <g_2793+0xe5b>
    dbf0:	48 89 c7             	mov    %rax,%rdi
    dbf3:	e8 fb aa ff ff       	callq  86f3 <transparent_crc>
    dbf8:	48 8b 05 31 79 00 00 	mov    0x7931(%rip),%rax        # 15530 <g_231>
    dbff:	48 89 c1             	mov    %rax,%rcx
    dc02:	8b 45 fc             	mov    -0x4(%rbp),%eax
    dc05:	89 c2                	mov    %eax,%edx
    dc07:	48 8d 35 f3 42 00 00 	lea    0x42f3(%rip),%rsi        # 11f01 <g_2793+0xe61>
    dc0e:	48 89 cf             	mov    %rcx,%rdi
    dc11:	e8 dd aa ff ff       	callq  86f3 <transparent_crc>
    dc16:	c7 45 f0 00 00 00 00 	movl   $0x0,-0x10(%rbp)
    dc1d:	e9 2d 03 00 00       	jmpq   df4f <main+0x91f>
    dc22:	c7 45 f4 00 00 00 00 	movl   $0x0,-0xc(%rbp)
    dc29:	e9 13 03 00 00       	jmpq   df41 <main+0x911>
    dc2e:	c7 45 f8 00 00 00 00 	movl   $0x0,-0x8(%rbp)
    dc35:	e9 f9 02 00 00       	jmpq   df33 <main+0x903>
    dc3a:	8b 45 f8             	mov    -0x8(%rbp),%eax
    dc3d:	48 98                	cltq   
    dc3f:	8b 55 f4             	mov    -0xc(%rbp),%edx
    dc42:	48 63 f2             	movslq %edx,%rsi
    dc45:	8b 55 f0             	mov    -0x10(%rbp),%edx
    dc48:	48 63 ca             	movslq %edx,%rcx
    dc4b:	48 89 c2             	mov    %rax,%rdx
    dc4e:	48 c1 e2 02          	shl    $0x2,%rdx
    dc52:	48 01 c2             	add    %rax,%rdx
    dc55:	48 c1 e2 02          	shl    $0x2,%rdx
    dc59:	48 01 c2             	add    %rax,%rdx
    dc5c:	48 89 f0             	mov    %rsi,%rax
    dc5f:	48 c1 e0 03          	shl    $0x3,%rax
    dc63:	48 01 f0             	add    %rsi,%rax
    dc66:	48 c1 e0 03          	shl    $0x3,%rax
    dc6a:	48 01 f0             	add    %rsi,%rax
    dc6d:	48 01 c0             	add    %rax,%rax
    dc70:	48 01 f0             	add    %rsi,%rax
    dc73:	48 01 c2             	add    %rax,%rdx
    dc76:	48 89 c8             	mov    %rcx,%rax
    dc79:	48 c1 e0 03          	shl    $0x3,%rax
    dc7d:	48 01 c8             	add    %rcx,%rax
    dc80:	48 c1 e0 03          	shl    $0x3,%rax
    dc84:	48 01 c8             	add    %rcx,%rax
    dc87:	48 01 c0             	add    %rax,%rax
    dc8a:	48 01 c8             	add    %rcx,%rax
    dc8d:	48 01 c2             	add    %rax,%rdx
    dc90:	48 8d 05 a9 78 00 00 	lea    0x78a9(%rip),%rax        # 15540 <g_237>
    dc97:	48 01 d0             	add    %rdx,%rax
    dc9a:	8b 00                	mov    (%rax),%eax
    dc9c:	48 98                	cltq   
    dc9e:	8b 55 fc             	mov    -0x4(%rbp),%edx
    dca1:	48 8d 35 5f 42 00 00 	lea    0x425f(%rip),%rsi        # 11f07 <g_2793+0xe67>
    dca8:	48 89 c7             	mov    %rax,%rdi
    dcab:	e8 43 aa ff ff       	callq  86f3 <transparent_crc>
    dcb0:	8b 45 f8             	mov    -0x8(%rbp),%eax
    dcb3:	48 98                	cltq   
    dcb5:	8b 55 f4             	mov    -0xc(%rbp),%edx
    dcb8:	48 63 f2             	movslq %edx,%rsi
    dcbb:	8b 55 f0             	mov    -0x10(%rbp),%edx
    dcbe:	48 63 ca             	movslq %edx,%rcx
    dcc1:	48 89 c2             	mov    %rax,%rdx
    dcc4:	48 c1 e2 02          	shl    $0x2,%rdx
    dcc8:	48 01 c2             	add    %rax,%rdx
    dccb:	48 c1 e2 02          	shl    $0x2,%rdx
    dccf:	48 01 c2             	add    %rax,%rdx
    dcd2:	48 89 f0             	mov    %rsi,%rax
    dcd5:	48 c1 e0 03          	shl    $0x3,%rax
    dcd9:	48 01 f0             	add    %rsi,%rax
    dcdc:	48 c1 e0 03          	shl    $0x3,%rax
    dce0:	48 01 f0             	add    %rsi,%rax
    dce3:	48 01 c0             	add    %rax,%rax
    dce6:	48 01 f0             	add    %rsi,%rax
    dce9:	48 01 c2             	add    %rax,%rdx
    dcec:	48 89 c8             	mov    %rcx,%rax
    dcef:	48 c1 e0 03          	shl    $0x3,%rax
    dcf3:	48 01 c8             	add    %rcx,%rax
    dcf6:	48 c1 e0 03          	shl    $0x3,%rax
    dcfa:	48 01 c8             	add    %rcx,%rax
    dcfd:	48 01 c0             	add    %rax,%rax
    dd00:	48 01 c8             	add    %rcx,%rax
    dd03:	48 01 c2             	add    %rax,%rdx
    dd06:	48 8d 05 37 78 00 00 	lea    0x7837(%rip),%rax        # 15544 <g_237+0x4>
    dd0d:	48 01 d0             	add    %rdx,%rax
    dd10:	8b 00                	mov    (%rax),%eax
    dd12:	48 98                	cltq   
    dd14:	8b 55 fc             	mov    -0x4(%rbp),%edx
    dd17:	48 8d 35 fb 41 00 00 	lea    0x41fb(%rip),%rsi        # 11f19 <g_2793+0xe79>
    dd1e:	48 89 c7             	mov    %rax,%rdi
    dd21:	e8 cd a9 ff ff       	callq  86f3 <transparent_crc>
    dd26:	8b 45 f8             	mov    -0x8(%rbp),%eax
    dd29:	48 98                	cltq   
    dd2b:	8b 55 f4             	mov    -0xc(%rbp),%edx
    dd2e:	48 63 f2             	movslq %edx,%rsi
    dd31:	8b 55 f0             	mov    -0x10(%rbp),%edx
    dd34:	48 63 ca             	movslq %edx,%rcx
    dd37:	48 89 c2             	mov    %rax,%rdx
    dd3a:	48 c1 e2 02          	shl    $0x2,%rdx
    dd3e:	48 01 c2             	add    %rax,%rdx
    dd41:	48 c1 e2 02          	shl    $0x2,%rdx
    dd45:	48 01 c2             	add    %rax,%rdx
    dd48:	48 89 f0             	mov    %rsi,%rax
    dd4b:	48 c1 e0 03          	shl    $0x3,%rax
    dd4f:	48 01 f0             	add    %rsi,%rax
    dd52:	48 c1 e0 03          	shl    $0x3,%rax
    dd56:	48 01 f0             	add    %rsi,%rax
    dd59:	48 01 c0             	add    %rax,%rax
    dd5c:	48 01 f0             	add    %rsi,%rax
    dd5f:	48 01 c2             	add    %rax,%rdx
    dd62:	48 89 c8             	mov    %rcx,%rax
    dd65:	48 c1 e0 03          	shl    $0x3,%rax
    dd69:	48 01 c8             	add    %rcx,%rax
    dd6c:	48 c1 e0 03          	shl    $0x3,%rax
    dd70:	48 01 c8             	add    %rcx,%rax
    dd73:	48 01 c0             	add    %rax,%rax
    dd76:	48 01 c8             	add    %rcx,%rax
    dd79:	48 01 c2             	add    %rax,%rdx
    dd7c:	48 8d 05 c5 77 00 00 	lea    0x77c5(%rip),%rax        # 15548 <g_237+0x8>
    dd83:	48 01 d0             	add    %rdx,%rax
    dd86:	0f b6 00             	movzbl (%rax),%eax
    dd89:	48 0f be c0          	movsbq %al,%rax
    dd8d:	8b 55 fc             	mov    -0x4(%rbp),%edx
    dd90:	48 8d 35 94 41 00 00 	lea    0x4194(%rip),%rsi        # 11f2b <g_2793+0xe8b>
    dd97:	48 89 c7             	mov    %rax,%rdi
    dd9a:	e8 54 a9 ff ff       	callq  86f3 <transparent_crc>
    dd9f:	8b 45 f8             	mov    -0x8(%rbp),%eax
    dda2:	48 98                	cltq   
    dda4:	8b 55 f4             	mov    -0xc(%rbp),%edx
    dda7:	48 63 f2             	movslq %edx,%rsi
    ddaa:	8b 55 f0             	mov    -0x10(%rbp),%edx
    ddad:	48 63 ca             	movslq %edx,%rcx
    ddb0:	48 89 c2             	mov    %rax,%rdx
    ddb3:	48 c1 e2 02          	shl    $0x2,%rdx
    ddb7:	48 01 c2             	add    %rax,%rdx
    ddba:	48 c1 e2 02          	shl    $0x2,%rdx
    ddbe:	48 01 c2             	add    %rax,%rdx
    ddc1:	48 89 f0             	mov    %rsi,%rax
    ddc4:	48 c1 e0 03          	shl    $0x3,%rax
    ddc8:	48 01 f0             	add    %rsi,%rax
    ddcb:	48 c1 e0 03          	shl    $0x3,%rax
    ddcf:	48 01 f0             	add    %rsi,%rax
    ddd2:	48 01 c0             	add    %rax,%rax
    ddd5:	48 01 f0             	add    %rsi,%rax
    ddd8:	48 01 c2             	add    %rax,%rdx
    dddb:	48 89 c8             	mov    %rcx,%rax
    ddde:	48 c1 e0 03          	shl    $0x3,%rax
    dde2:	48 01 c8             	add    %rcx,%rax
    dde5:	48 c1 e0 03          	shl    $0x3,%rax
    dde9:	48 01 c8             	add    %rcx,%rax
    ddec:	48 01 c0             	add    %rax,%rax
    ddef:	48 01 c8             	add    %rcx,%rax
    ddf2:	48 01 c2             	add    %rax,%rdx
    ddf5:	48 8d 05 44 77 00 00 	lea    0x7744(%rip),%rax        # 15540 <g_237>
    ddfc:	48 01 d0             	add    %rdx,%rax
    ddff:	0f b7 40 09          	movzwl 0x9(%rax),%eax
    de03:	48 0f bf c0          	movswq %ax,%rax
    de07:	8b 55 fc             	mov    -0x4(%rbp),%edx
    de0a:	48 8d 35 2c 41 00 00 	lea    0x412c(%rip),%rsi        # 11f3d <g_2793+0xe9d>
    de11:	48 89 c7             	mov    %rax,%rdi
    de14:	e8 da a8 ff ff       	callq  86f3 <transparent_crc>
    de19:	8b 45 f8             	mov    -0x8(%rbp),%eax
    de1c:	48 98                	cltq   
    de1e:	8b 55 f4             	mov    -0xc(%rbp),%edx
    de21:	48 63 f2             	movslq %edx,%rsi
    de24:	8b 55 f0             	mov    -0x10(%rbp),%edx
    de27:	48 63 ca             	movslq %edx,%rcx
    de2a:	48 89 c2             	mov    %rax,%rdx
    de2d:	48 c1 e2 02          	shl    $0x2,%rdx
    de31:	48 01 c2             	add    %rax,%rdx
    de34:	48 c1 e2 02          	shl    $0x2,%rdx
    de38:	48 01 c2             	add    %rax,%rdx
    de3b:	48 89 f0             	mov    %rsi,%rax
    de3e:	48 c1 e0 03          	shl    $0x3,%rax
    de42:	48 01 f0             	add    %rsi,%rax
    de45:	48 c1 e0 03          	shl    $0x3,%rax
    de49:	48 01 f0             	add    %rsi,%rax
    de4c:	48 01 c0             	add    %rax,%rax
    de4f:	48 01 f0             	add    %rsi,%rax
    de52:	48 01 c2             	add    %rax,%rdx
    de55:	48 89 c8             	mov    %rcx,%rax
    de58:	48 c1 e0 03          	shl    $0x3,%rax
    de5c:	48 01 c8             	add    %rcx,%rax
    de5f:	48 c1 e0 03          	shl    $0x3,%rax
    de63:	48 01 c8             	add    %rcx,%rax
    de66:	48 01 c0             	add    %rax,%rax
    de69:	48 01 c8             	add    %rcx,%rax
    de6c:	48 01 c2             	add    %rax,%rdx
    de6f:	48 8d 05 ca 76 00 00 	lea    0x76ca(%rip),%rax        # 15540 <g_237>
    de76:	48 01 d0             	add    %rdx,%rax
    de79:	0f b7 40 0b          	movzwl 0xb(%rax),%eax
    de7d:	0f b7 c0             	movzwl %ax,%eax
    de80:	8b 55 fc             	mov    -0x4(%rbp),%edx
    de83:	48 8d 35 c5 40 00 00 	lea    0x40c5(%rip),%rsi        # 11f4f <g_2793+0xeaf>
    de8a:	48 89 c7             	mov    %rax,%rdi
    de8d:	e8 61 a8 ff ff       	callq  86f3 <transparent_crc>
    de92:	8b 45 f8             	mov    -0x8(%rbp),%eax
    de95:	48 98                	cltq   
    de97:	8b 55 f4             	mov    -0xc(%rbp),%edx
    de9a:	48 63 f2             	movslq %edx,%rsi
    de9d:	8b 55 f0             	mov    -0x10(%rbp),%edx
    dea0:	48 63 ca             	movslq %edx,%rcx
    dea3:	48 89 c2             	mov    %rax,%rdx
    dea6:	48 c1 e2 02          	shl    $0x2,%rdx
    deaa:	48 01 c2             	add    %rax,%rdx
    dead:	48 c1 e2 02          	shl    $0x2,%rdx
    deb1:	48 01 c2             	add    %rax,%rdx
    deb4:	48 89 f0             	mov    %rsi,%rax
    deb7:	48 c1 e0 03          	shl    $0x3,%rax
    debb:	48 01 f0             	add    %rsi,%rax
    debe:	48 c1 e0 03          	shl    $0x3,%rax
    dec2:	48 01 f0             	add    %rsi,%rax
    dec5:	48 01 c0             	add    %rax,%rax
    dec8:	48 01 f0             	add    %rsi,%rax
    decb:	48 01 c2             	add    %rax,%rdx
    dece:	48 89 c8             	mov    %rcx,%rax
    ded1:	48 c1 e0 03          	shl    $0x3,%rax
    ded5:	48 01 c8             	add    %rcx,%rax
    ded8:	48 c1 e0 03          	shl    $0x3,%rax
    dedc:	48 01 c8             	add    %rcx,%rax
    dedf:	48 01 c0             	add    %rax,%rax
    dee2:	48 01 c8             	add    %rcx,%rax
    dee5:	48 01 c2             	add    %rax,%rdx
    dee8:	48 8d 05 51 76 00 00 	lea    0x7651(%rip),%rax        # 15540 <g_237>
    deef:	48 01 d0             	add    %rdx,%rax
    def2:	48 8b 40 0d          	mov    0xd(%rax),%rax
    def6:	48 89 c1             	mov    %rax,%rcx
    def9:	8b 45 fc             	mov    -0x4(%rbp),%eax
    defc:	89 c2                	mov    %eax,%edx
    defe:	48 8d 35 5c 40 00 00 	lea    0x405c(%rip),%rsi        # 11f61 <g_2793+0xec1>
    df05:	48 89 cf             	mov    %rcx,%rdi
    df08:	e8 e6 a7 ff ff       	callq  86f3 <transparent_crc>
    df0d:	83 7d fc 00          	cmpl   $0x0,-0x4(%rbp)
    df11:	74 1c                	je     df2f <main+0x8ff>
    df13:	8b 4d f8             	mov    -0x8(%rbp),%ecx
    df16:	8b 55 f4             	mov    -0xc(%rbp),%edx
    df19:	8b 45 f0             	mov    -0x10(%rbp),%eax
    df1c:	89 c6                	mov    %eax,%esi
    df1e:	48 8d 3d bf 3e 00 00 	lea    0x3ebf(%rip),%rdi        # 11de4 <g_2793+0xd44>
    df25:	b8 00 00 00 00       	mov    $0x0,%eax
    df2a:	e8 51 91 ff ff       	callq  7080 <printf@plt>
    df2f:	83 45 f8 01          	addl   $0x1,-0x8(%rbp)
    df33:	83 7d f8 06          	cmpl   $0x6,-0x8(%rbp)
    df37:	0f 8e fd fc ff ff    	jle    dc3a <main+0x60a>
    df3d:	83 45 f4 01          	addl   $0x1,-0xc(%rbp)
    df41:	83 7d f4 00          	cmpl   $0x0,-0xc(%rbp)
    df45:	0f 8e e3 fc ff ff    	jle    dc2e <main+0x5fe>
    df4b:	83 45 f0 01          	addl   $0x1,-0x10(%rbp)
    df4f:	83 7d f0 07          	cmpl   $0x7,-0x10(%rbp)
    df53:	0f 8e c9 fc ff ff    	jle    dc22 <main+0x5f2>
    df59:	8b 05 79 7a 00 00    	mov    0x7a79(%rip),%eax        # 159d8 <g_246>
    df5f:	89 c1                	mov    %eax,%ecx
    df61:	8b 45 fc             	mov    -0x4(%rbp),%eax
    df64:	89 c2                	mov    %eax,%edx
    df66:	48 8d 35 06 40 00 00 	lea    0x4006(%rip),%rsi        # 11f73 <g_2793+0xed3>
    df6d:	48 89 cf             	mov    %rcx,%rdi
    df70:	e8 7e a7 ff ff       	callq  86f3 <transparent_crc>
    df75:	8b 05 65 7a 00 00    	mov    0x7a65(%rip),%eax        # 159e0 <g_248>
    df7b:	c1 e0 04             	shl    $0x4,%eax
    df7e:	c1 f8 04             	sar    $0x4,%eax
    df81:	48 98                	cltq   
    df83:	8b 55 fc             	mov    -0x4(%rbp),%edx
    df86:	48 8d 35 ec 3f 00 00 	lea    0x3fec(%rip),%rsi        # 11f79 <g_2793+0xed9>
    df8d:	48 89 c7             	mov    %rax,%rdi
    df90:	e8 5e a7 ff ff       	callq  86f3 <transparent_crc>
    df95:	8b 05 49 7a 00 00    	mov    0x7a49(%rip),%eax        # 159e4 <g_248+0x4>
    df9b:	89 c1                	mov    %eax,%ecx
    df9d:	8b 45 fc             	mov    -0x4(%rbp),%eax
    dfa0:	89 c2                	mov    %eax,%edx
    dfa2:	48 8d 35 d9 3f 00 00 	lea    0x3fd9(%rip),%rsi        # 11f82 <g_2793+0xee2>
    dfa9:	48 89 cf             	mov    %rcx,%rdi
    dfac:	e8 42 a7 ff ff       	callq  86f3 <transparent_crc>
    dfb1:	8b 05 31 7a 00 00    	mov    0x7a31(%rip),%eax        # 159e8 <g_248+0x8>
    dfb7:	48 98                	cltq   
    dfb9:	8b 55 fc             	mov    -0x4(%rbp),%edx
    dfbc:	48 8d 35 c8 3f 00 00 	lea    0x3fc8(%rip),%rsi        # 11f8b <g_2793+0xeeb>
    dfc3:	48 89 c7             	mov    %rax,%rdi
    dfc6:	e8 28 a7 ff ff       	callq  86f3 <transparent_crc>
    dfcb:	8b 05 1b 7a 00 00    	mov    0x7a1b(%rip),%eax        # 159ec <g_248+0xc>
    dfd1:	48 98                	cltq   
    dfd3:	8b 55 fc             	mov    -0x4(%rbp),%edx
    dfd6:	48 8d 35 b7 3f 00 00 	lea    0x3fb7(%rip),%rsi        # 11f94 <g_2793+0xef4>
    dfdd:	48 89 c7             	mov    %rax,%rdi
    dfe0:	e8 0e a7 ff ff       	callq  86f3 <transparent_crc>
    dfe5:	8b 05 05 7a 00 00    	mov    0x7a05(%rip),%eax        # 159f0 <g_248+0x10>
    dfeb:	48 98                	cltq   
    dfed:	8b 55 fc             	mov    -0x4(%rbp),%edx
    dff0:	48 8d 35 a6 3f 00 00 	lea    0x3fa6(%rip),%rsi        # 11f9d <g_2793+0xefd>
    dff7:	48 89 c7             	mov    %rax,%rdi
    dffa:	e8 f4 a6 ff ff       	callq  86f3 <transparent_crc>
    dfff:	8b 05 ef 79 00 00    	mov    0x79ef(%rip),%eax        # 159f4 <g_248+0x14>
    e005:	48 98                	cltq   
    e007:	8b 55 fc             	mov    -0x4(%rbp),%edx
    e00a:	48 8d 35 95 3f 00 00 	lea    0x3f95(%rip),%rsi        # 11fa6 <g_2793+0xf06>
    e011:	48 89 c7             	mov    %rax,%rdi
    e014:	e8 da a6 ff ff       	callq  86f3 <transparent_crc>
    e019:	8b 05 d9 79 00 00    	mov    0x79d9(%rip),%eax        # 159f8 <g_248+0x18>
    e01f:	89 c1                	mov    %eax,%ecx
    e021:	8b 45 fc             	mov    -0x4(%rbp),%eax
    e024:	89 c2                	mov    %eax,%edx
    e026:	48 8d 35 82 3f 00 00 	lea    0x3f82(%rip),%rsi        # 11faf <g_2793+0xf0f>
    e02d:	48 89 cf             	mov    %rcx,%rdi
    e030:	e8 be a6 ff ff       	callq  86f3 <transparent_crc>
    e035:	0f b6 05 14 b8 00 00 	movzbl 0xb814(%rip),%eax        # 19850 <g_304>
    e03c:	0f b6 c0             	movzbl %al,%eax
    e03f:	8b 55 fc             	mov    -0x4(%rbp),%edx
    e042:	48 8d 35 6f 3f 00 00 	lea    0x3f6f(%rip),%rsi        # 11fb8 <g_2793+0xf18>
    e049:	48 89 c7             	mov    %rax,%rdi
    e04c:	e8 a2 a6 ff ff       	callq  86f3 <transparent_crc>
    e051:	0f b7 05 a4 79 00 00 	movzwl 0x79a4(%rip),%eax        # 159fc <g_348>
    e058:	48 0f bf c0          	movswq %ax,%rax
    e05c:	8b 55 fc             	mov    -0x4(%rbp),%edx
    e05f:	48 8d 35 58 3f 00 00 	lea    0x3f58(%rip),%rsi        # 11fbe <g_2793+0xf1e>
    e066:	48 89 c7             	mov    %rax,%rdi
    e069:	e8 85 a6 ff ff       	callq  86f3 <transparent_crc>
    e06e:	c7 45 f0 00 00 00 00 	movl   $0x0,-0x10(%rbp)
    e075:	eb 73                	jmp    e0ea <main+0xaba>
    e077:	c7 45 f4 00 00 00 00 	movl   $0x0,-0xc(%rbp)
    e07e:	eb 60                	jmp    e0e0 <main+0xab0>
    e080:	8b 45 f4             	mov    -0xc(%rbp),%eax
    e083:	48 63 c8             	movslq %eax,%rcx
    e086:	8b 45 f0             	mov    -0x10(%rbp),%eax
    e089:	48 63 d0             	movslq %eax,%rdx
    e08c:	48 89 d0             	mov    %rdx,%rax
    e08f:	48 c1 e0 02          	shl    $0x2,%rax
    e093:	48 01 d0             	add    %rdx,%rax
    e096:	48 01 c8             	add    %rcx,%rax
    e099:	48 8d 14 00          	lea    (%rax,%rax,1),%rdx
    e09d:	48 8d 05 5c 79 00 00 	lea    0x795c(%rip),%rax        # 15a00 <g_410>
    e0a4:	0f b7 04 02          	movzwl (%rdx,%rax,1),%eax
    e0a8:	0f b7 c0             	movzwl %ax,%eax
    e0ab:	8b 55 fc             	mov    -0x4(%rbp),%edx
    e0ae:	48 8d 35 0f 3f 00 00 	lea    0x3f0f(%rip),%rsi        # 11fc4 <g_2793+0xf24>
    e0b5:	48 89 c7             	mov    %rax,%rdi
    e0b8:	e8 36 a6 ff ff       	callq  86f3 <transparent_crc>
    e0bd:	83 7d fc 00          	cmpl   $0x0,-0x4(%rbp)
    e0c1:	74 19                	je     e0dc <main+0xaac>
    e0c3:	8b 55 f4             	mov    -0xc(%rbp),%edx
    e0c6:	8b 45 f0             	mov    -0x10(%rbp),%eax
    e0c9:	89 c6                	mov    %eax,%esi
    e0cb:	48 8d 3d e1 3d 00 00 	lea    0x3de1(%rip),%rdi        # 11eb3 <g_2793+0xe13>
    e0d2:	b8 00 00 00 00       	mov    $0x0,%eax
    e0d7:	e8 a4 8f ff ff       	callq  7080 <printf@plt>
    e0dc:	83 45 f4 01          	addl   $0x1,-0xc(%rbp)
    e0e0:	83 7d f4 04          	cmpl   $0x4,-0xc(%rbp)
    e0e4:	7e 9a                	jle    e080 <main+0xa50>
    e0e6:	83 45 f0 01          	addl   $0x1,-0x10(%rbp)
    e0ea:	83 7d f0 09          	cmpl   $0x9,-0x10(%rbp)
    e0ee:	7e 87                	jle    e077 <main+0xa47>
    e0f0:	8b 05 7a 79 00 00    	mov    0x797a(%rip),%eax        # 15a70 <g_415>
    e0f6:	c1 e0 04             	shl    $0x4,%eax
    e0f9:	c1 f8 04             	sar    $0x4,%eax
    e0fc:	48 98                	cltq   
    e0fe:	8b 55 fc             	mov    -0x4(%rbp),%edx
    e101:	48 8d 35 c8 3e 00 00 	lea    0x3ec8(%rip),%rsi        # 11fd0 <g_2793+0xf30>
    e108:	48 89 c7             	mov    %rax,%rdi
    e10b:	e8 e3 a5 ff ff       	callq  86f3 <transparent_crc>
    e110:	8b 05 5e 79 00 00    	mov    0x795e(%rip),%eax        # 15a74 <g_415+0x4>
    e116:	89 c1                	mov    %eax,%ecx
    e118:	8b 45 fc             	mov    -0x4(%rbp),%eax
    e11b:	89 c2                	mov    %eax,%edx
    e11d:	48 8d 35 b5 3e 00 00 	lea    0x3eb5(%rip),%rsi        # 11fd9 <g_2793+0xf39>
    e124:	48 89 cf             	mov    %rcx,%rdi
    e127:	e8 c7 a5 ff ff       	callq  86f3 <transparent_crc>
    e12c:	8b 05 46 79 00 00    	mov    0x7946(%rip),%eax        # 15a78 <g_415+0x8>
    e132:	48 98                	cltq   
    e134:	8b 55 fc             	mov    -0x4(%rbp),%edx
    e137:	48 8d 35 a4 3e 00 00 	lea    0x3ea4(%rip),%rsi        # 11fe2 <g_2793+0xf42>
    e13e:	48 89 c7             	mov    %rax,%rdi
    e141:	e8 ad a5 ff ff       	callq  86f3 <transparent_crc>
    e146:	8b 05 30 79 00 00    	mov    0x7930(%rip),%eax        # 15a7c <g_415+0xc>
    e14c:	48 98                	cltq   
    e14e:	8b 55 fc             	mov    -0x4(%rbp),%edx
    e151:	48 8d 35 93 3e 00 00 	lea    0x3e93(%rip),%rsi        # 11feb <g_2793+0xf4b>
    e158:	48 89 c7             	mov    %rax,%rdi
    e15b:	e8 93 a5 ff ff       	callq  86f3 <transparent_crc>
    e160:	8b 05 1a 79 00 00    	mov    0x791a(%rip),%eax        # 15a80 <g_415+0x10>
    e166:	48 98                	cltq   
    e168:	8b 55 fc             	mov    -0x4(%rbp),%edx
    e16b:	48 8d 35 82 3e 00 00 	lea    0x3e82(%rip),%rsi        # 11ff4 <g_2793+0xf54>
    e172:	48 89 c7             	mov    %rax,%rdi
    e175:	e8 79 a5 ff ff       	callq  86f3 <transparent_crc>
    e17a:	8b 05 04 79 00 00    	mov    0x7904(%rip),%eax        # 15a84 <g_415+0x14>
    e180:	48 98                	cltq   
    e182:	8b 55 fc             	mov    -0x4(%rbp),%edx
    e185:	48 8d 35 71 3e 00 00 	lea    0x3e71(%rip),%rsi        # 11ffd <g_2793+0xf5d>
    e18c:	48 89 c7             	mov    %rax,%rdi
    e18f:	e8 5f a5 ff ff       	callq  86f3 <transparent_crc>
    e194:	8b 05 ee 78 00 00    	mov    0x78ee(%rip),%eax        # 15a88 <g_415+0x18>
    e19a:	89 c1                	mov    %eax,%ecx
    e19c:	8b 45 fc             	mov    -0x4(%rbp),%eax
    e19f:	89 c2                	mov    %eax,%edx
    e1a1:	48 8d 35 5e 3e 00 00 	lea    0x3e5e(%rip),%rsi        # 12006 <g_2793+0xf66>
    e1a8:	48 89 cf             	mov    %rcx,%rdi
    e1ab:	e8 43 a5 ff ff       	callq  86f3 <transparent_crc>
    e1b0:	8b 05 da 78 00 00    	mov    0x78da(%rip),%eax        # 15a90 <g_424>
    e1b6:	c1 e0 04             	shl    $0x4,%eax
    e1b9:	c1 f8 04             	sar    $0x4,%eax
    e1bc:	48 98                	cltq   
    e1be:	8b 55 fc             	mov    -0x4(%rbp),%edx
    e1c1:	48 8d 35 47 3e 00 00 	lea    0x3e47(%rip),%rsi        # 1200f <g_2793+0xf6f>
    e1c8:	48 89 c7             	mov    %rax,%rdi
    e1cb:	e8 23 a5 ff ff       	callq  86f3 <transparent_crc>
    e1d0:	8b 05 be 78 00 00    	mov    0x78be(%rip),%eax        # 15a94 <g_424+0x4>
    e1d6:	89 c1                	mov    %eax,%ecx
    e1d8:	8b 45 fc             	mov    -0x4(%rbp),%eax
    e1db:	89 c2                	mov    %eax,%edx
    e1dd:	48 8d 35 34 3e 00 00 	lea    0x3e34(%rip),%rsi        # 12018 <g_2793+0xf78>
    e1e4:	48 89 cf             	mov    %rcx,%rdi
    e1e7:	e8 07 a5 ff ff       	callq  86f3 <transparent_crc>
    e1ec:	8b 05 a6 78 00 00    	mov    0x78a6(%rip),%eax        # 15a98 <g_424+0x8>
    e1f2:	48 98                	cltq   
    e1f4:	8b 55 fc             	mov    -0x4(%rbp),%edx
    e1f7:	48 8d 35 23 3e 00 00 	lea    0x3e23(%rip),%rsi        # 12021 <g_2793+0xf81>
    e1fe:	48 89 c7             	mov    %rax,%rdi
    e201:	e8 ed a4 ff ff       	callq  86f3 <transparent_crc>
    e206:	8b 05 90 78 00 00    	mov    0x7890(%rip),%eax        # 15a9c <g_424+0xc>
    e20c:	48 98                	cltq   
    e20e:	8b 55 fc             	mov    -0x4(%rbp),%edx
    e211:	48 8d 35 12 3e 00 00 	lea    0x3e12(%rip),%rsi        # 1202a <g_2793+0xf8a>
    e218:	48 89 c7             	mov    %rax,%rdi
    e21b:	e8 d3 a4 ff ff       	callq  86f3 <transparent_crc>
    e220:	8b 05 7a 78 00 00    	mov    0x787a(%rip),%eax        # 15aa0 <g_424+0x10>
    e226:	48 98                	cltq   
    e228:	8b 55 fc             	mov    -0x4(%rbp),%edx
    e22b:	48 8d 35 01 3e 00 00 	lea    0x3e01(%rip),%rsi        # 12033 <g_2793+0xf93>
    e232:	48 89 c7             	mov    %rax,%rdi
    e235:	e8 b9 a4 ff ff       	callq  86f3 <transparent_crc>
    e23a:	8b 05 64 78 00 00    	mov    0x7864(%rip),%eax        # 15aa4 <g_424+0x14>
    e240:	48 98                	cltq   
    e242:	8b 55 fc             	mov    -0x4(%rbp),%edx
    e245:	48 8d 35 f0 3d 00 00 	lea    0x3df0(%rip),%rsi        # 1203c <g_2793+0xf9c>
    e24c:	48 89 c7             	mov    %rax,%rdi
    e24f:	e8 9f a4 ff ff       	callq  86f3 <transparent_crc>
    e254:	8b 05 4e 78 00 00    	mov    0x784e(%rip),%eax        # 15aa8 <g_424+0x18>
    e25a:	89 c1                	mov    %eax,%ecx
    e25c:	8b 45 fc             	mov    -0x4(%rbp),%eax
    e25f:	89 c2                	mov    %eax,%edx
    e261:	48 8d 35 dd 3d 00 00 	lea    0x3ddd(%rip),%rsi        # 12045 <g_2793+0xfa5>
    e268:	48 89 cf             	mov    %rcx,%rdi
    e26b:	e8 83 a4 ff ff       	callq  86f3 <transparent_crc>
    e270:	48 8b 05 39 78 00 00 	mov    0x7839(%rip),%rax        # 15ab0 <g_432>
    e277:	c1 e0 04             	shl    $0x4,%eax
    e27a:	c1 f8 04             	sar    $0x4,%eax
    e27d:	48 98                	cltq   
    e27f:	8b 55 fc             	mov    -0x4(%rbp),%edx
    e282:	48 8d 35 c5 3d 00 00 	lea    0x3dc5(%rip),%rsi        # 1204e <g_2793+0xfae>
    e289:	48 89 c7             	mov    %rax,%rdi
    e28c:	e8 62 a4 ff ff       	callq  86f3 <transparent_crc>
    e291:	8b 05 1d 78 00 00    	mov    0x781d(%rip),%eax        # 15ab4 <g_432+0x4>
    e297:	89 c1                	mov    %eax,%ecx
    e299:	8b 45 fc             	mov    -0x4(%rbp),%eax
    e29c:	89 c2                	mov    %eax,%edx
    e29e:	48 8d 35 b2 3d 00 00 	lea    0x3db2(%rip),%rsi        # 12057 <g_2793+0xfb7>
    e2a5:	48 89 cf             	mov    %rcx,%rdi
    e2a8:	e8 46 a4 ff ff       	callq  86f3 <transparent_crc>
    e2ad:	8b 05 05 78 00 00    	mov    0x7805(%rip),%eax        # 15ab8 <g_432+0x8>
    e2b3:	48 98                	cltq   
    e2b5:	8b 55 fc             	mov    -0x4(%rbp),%edx
    e2b8:	48 8d 35 a1 3d 00 00 	lea    0x3da1(%rip),%rsi        # 12060 <g_2793+0xfc0>
    e2bf:	48 89 c7             	mov    %rax,%rdi
    e2c2:	e8 2c a4 ff ff       	callq  86f3 <transparent_crc>
    e2c7:	8b 05 ef 77 00 00    	mov    0x77ef(%rip),%eax        # 15abc <g_432+0xc>
    e2cd:	48 98                	cltq   
    e2cf:	8b 55 fc             	mov    -0x4(%rbp),%edx
    e2d2:	48 8d 35 90 3d 00 00 	lea    0x3d90(%rip),%rsi        # 12069 <g_2793+0xfc9>
    e2d9:	48 89 c7             	mov    %rax,%rdi
    e2dc:	e8 12 a4 ff ff       	callq  86f3 <transparent_crc>
    e2e1:	8b 05 d9 77 00 00    	mov    0x77d9(%rip),%eax        # 15ac0 <g_432+0x10>
    e2e7:	48 98                	cltq   
    e2e9:	8b 55 fc             	mov    -0x4(%rbp),%edx
    e2ec:	48 8d 35 7f 3d 00 00 	lea    0x3d7f(%rip),%rsi        # 12072 <g_2793+0xfd2>
    e2f3:	48 89 c7             	mov    %rax,%rdi
    e2f6:	e8 f8 a3 ff ff       	callq  86f3 <transparent_crc>
    e2fb:	8b 05 c3 77 00 00    	mov    0x77c3(%rip),%eax        # 15ac4 <g_432+0x14>
    e301:	48 98                	cltq   
    e303:	8b 55 fc             	mov    -0x4(%rbp),%edx
    e306:	48 8d 35 6e 3d 00 00 	lea    0x3d6e(%rip),%rsi        # 1207b <g_2793+0xfdb>
    e30d:	48 89 c7             	mov    %rax,%rdi
    e310:	e8 de a3 ff ff       	callq  86f3 <transparent_crc>
    e315:	8b 05 ad 77 00 00    	mov    0x77ad(%rip),%eax        # 15ac8 <g_432+0x18>
    e31b:	89 c1                	mov    %eax,%ecx
    e31d:	8b 45 fc             	mov    -0x4(%rbp),%eax
    e320:	89 c2                	mov    %eax,%edx
    e322:	48 8d 35 5b 3d 00 00 	lea    0x3d5b(%rip),%rsi        # 12084 <g_2793+0xfe4>
    e329:	48 89 cf             	mov    %rcx,%rdi
    e32c:	e8 c2 a3 ff ff       	callq  86f3 <transparent_crc>
    e331:	48 8b 05 98 77 00 00 	mov    0x7798(%rip),%rax        # 15ad0 <g_498>
    e338:	8b 55 fc             	mov    -0x4(%rbp),%edx
    e33b:	48 8d 35 4b 3d 00 00 	lea    0x3d4b(%rip),%rsi        # 1208d <g_2793+0xfed>
    e342:	48 89 c7             	mov    %rax,%rdi
    e345:	e8 a9 a3 ff ff       	callq  86f3 <transparent_crc>
    e34a:	b8 4f c0 ff ff       	mov    $0xffffc04f,%eax
    e34f:	48 98                	cltq   
    e351:	8b 55 fc             	mov    -0x4(%rbp),%edx
    e354:	48 8d 35 38 3d 00 00 	lea    0x3d38(%rip),%rsi        # 12093 <g_2793+0xff3>
    e35b:	48 89 c7             	mov    %rax,%rdi
    e35e:	e8 90 a3 ff ff       	callq  86f3 <transparent_crc>
    e363:	b8 ff ff ff ff       	mov    $0xffffffff,%eax
    e368:	89 c1                	mov    %eax,%ecx
    e36a:	8b 45 fc             	mov    -0x4(%rbp),%eax
    e36d:	89 c2                	mov    %eax,%edx
    e36f:	48 8d 35 26 3d 00 00 	lea    0x3d26(%rip),%rsi        # 1209c <g_2793+0xffc>
    e376:	48 89 cf             	mov    %rcx,%rdi
    e379:	e8 75 a3 ff ff       	callq  86f3 <transparent_crc>
    e37e:	b8 fa ff ff ff       	mov    $0xfffffffa,%eax
    e383:	48 98                	cltq   
    e385:	8b 55 fc             	mov    -0x4(%rbp),%edx
    e388:	48 8d 35 16 3d 00 00 	lea    0x3d16(%rip),%rsi        # 120a5 <g_2793+0x1005>
    e38f:	48 89 c7             	mov    %rax,%rdi
    e392:	e8 5c a3 ff ff       	callq  86f3 <transparent_crc>
    e397:	b8 17 30 27 e8       	mov    $0xe8273017,%eax
    e39c:	48 98                	cltq   
    e39e:	8b 55 fc             	mov    -0x4(%rbp),%edx
    e3a1:	48 8d 35 06 3d 00 00 	lea    0x3d06(%rip),%rsi        # 120ae <g_2793+0x100e>
    e3a8:	48 89 c7             	mov    %rax,%rdi
    e3ab:	e8 43 a3 ff ff       	callq  86f3 <transparent_crc>
    e3b0:	b8 00 00 00 00       	mov    $0x0,%eax
    e3b5:	48 98                	cltq   
    e3b7:	8b 55 fc             	mov    -0x4(%rbp),%edx
    e3ba:	48 8d 35 f6 3c 00 00 	lea    0x3cf6(%rip),%rsi        # 120b7 <g_2793+0x1017>
    e3c1:	48 89 c7             	mov    %rax,%rdi
    e3c4:	e8 2a a3 ff ff       	callq  86f3 <transparent_crc>
    e3c9:	8b 05 a5 2c 00 00    	mov    0x2ca5(%rip),%eax        # 11074 <g_560+0x14>
    e3cf:	48 98                	cltq   
    e3d1:	8b 55 fc             	mov    -0x4(%rbp),%edx
    e3d4:	48 8d 35 e5 3c 00 00 	lea    0x3ce5(%rip),%rsi        # 120c0 <g_2793+0x1020>
    e3db:	48 89 c7             	mov    %rax,%rdi
    e3de:	e8 10 a3 ff ff       	callq  86f3 <transparent_crc>
    e3e3:	8b 05 8f 2c 00 00    	mov    0x2c8f(%rip),%eax        # 11078 <g_560+0x18>
    e3e9:	89 c1                	mov    %eax,%ecx
    e3eb:	8b 45 fc             	mov    -0x4(%rbp),%eax
    e3ee:	89 c2                	mov    %eax,%edx
    e3f0:	48 8d 35 d2 3c 00 00 	lea    0x3cd2(%rip),%rsi        # 120c9 <g_2793+0x1029>
    e3f7:	48 89 cf             	mov    %rcx,%rdi
    e3fa:	e8 f4 a2 ff ff       	callq  86f3 <transparent_crc>
    e3ff:	48 8b 05 da 76 00 00 	mov    0x76da(%rip),%rax        # 15ae0 <g_646>
    e406:	25 ff ff ff 07       	and    $0x7ffffff,%eax
    e40b:	89 c1                	mov    %eax,%ecx
    e40d:	8b 45 fc             	mov    -0x4(%rbp),%eax
    e410:	89 c2                	mov    %eax,%edx
    e412:	48 8d 35 b9 3c 00 00 	lea    0x3cb9(%rip),%rsi        # 120d2 <g_2793+0x1032>
    e419:	48 89 cf             	mov    %rcx,%rdi
    e41c:	e8 d2 a2 ff ff       	callq  86f3 <transparent_crc>
    e421:	48 8b 05 b8 76 00 00 	mov    0x76b8(%rip),%rax        # 15ae0 <g_646>
    e428:	48 c1 e8 20          	shr    $0x20,%rax
    e42c:	25 ff ff ff 7f       	and    $0x7fffffff,%eax
    e431:	89 c1                	mov    %eax,%ecx
    e433:	8b 45 fc             	mov    -0x4(%rbp),%eax
    e436:	89 c2                	mov    %eax,%edx
    e438:	48 8d 35 9c 3c 00 00 	lea    0x3c9c(%rip),%rsi        # 120db <g_2793+0x103b>
    e43f:	48 89 cf             	mov    %rcx,%rdi
    e442:	e8 ac a2 ff ff       	callq  86f3 <transparent_crc>
    e447:	8b 05 9b 76 00 00    	mov    0x769b(%rip),%eax        # 15ae8 <g_646+0x8>
    e44d:	48 98                	cltq   
    e44f:	8b 55 fc             	mov    -0x4(%rbp),%edx
    e452:	48 8d 35 8b 3c 00 00 	lea    0x3c8b(%rip),%rsi        # 120e4 <g_2793+0x1044>
    e459:	48 89 c7             	mov    %rax,%rdi
    e45c:	e8 92 a2 ff ff       	callq  86f3 <transparent_crc>
    e461:	0f b6 05 84 76 00 00 	movzbl 0x7684(%rip),%eax        # 15aec <g_646+0xc>
    e468:	0f b6 c0             	movzbl %al,%eax
    e46b:	8b 55 fc             	mov    -0x4(%rbp),%edx
    e46e:	48 8d 35 78 3c 00 00 	lea    0x3c78(%rip),%rsi        # 120ed <g_2793+0x104d>
    e475:	48 89 c7             	mov    %rax,%rdi
    e478:	e8 76 a2 ff ff       	callq  86f3 <transparent_crc>
    e47d:	48 8b 05 64 76 00 00 	mov    0x7664(%rip),%rax        # 15ae8 <g_646+0x8>
    e484:	48 c1 e8 28          	shr    $0x28,%rax
    e488:	83 e0 1f             	and    $0x1f,%eax
    e48b:	0f b6 c0             	movzbl %al,%eax
    e48e:	8b 55 fc             	mov    -0x4(%rbp),%edx
    e491:	48 8d 35 5e 3c 00 00 	lea    0x3c5e(%rip),%rsi        # 120f6 <g_2793+0x1056>
    e498:	48 89 c7             	mov    %rax,%rdi
    e49b:	e8 53 a2 ff ff       	callq  86f3 <transparent_crc>
    e4a0:	8b 05 4a 76 00 00    	mov    0x764a(%rip),%eax        # 15af0 <g_646+0x10>
    e4a6:	25 ff ff ff 00       	and    $0xffffff,%eax
    e4ab:	89 c1                	mov    %eax,%ecx
    e4ad:	8b 45 fc             	mov    -0x4(%rbp),%eax
    e4b0:	89 c2                	mov    %eax,%edx
    e4b2:	48 8d 35 46 3c 00 00 	lea    0x3c46(%rip),%rsi        # 120ff <g_2793+0x105f>
    e4b9:	48 89 cf             	mov    %rcx,%rdi
    e4bc:	e8 32 a2 ff ff       	callq  86f3 <transparent_crc>
    e4c1:	48 8b 05 38 76 00 00 	mov    0x7638(%rip),%rax        # 15b00 <g_647>
    e4c8:	c1 e0 04             	shl    $0x4,%eax
    e4cb:	c1 f8 04             	sar    $0x4,%eax
    e4ce:	48 98                	cltq   
    e4d0:	8b 55 fc             	mov    -0x4(%rbp),%edx
    e4d3:	48 8d 35 2e 3c 00 00 	lea    0x3c2e(%rip),%rsi        # 12108 <g_2793+0x1068>
    e4da:	48 89 c7             	mov    %rax,%rdi
    e4dd:	e8 11 a2 ff ff       	callq  86f3 <transparent_crc>
    e4e2:	8b 05 1c 76 00 00    	mov    0x761c(%rip),%eax        # 15b04 <g_647+0x4>
    e4e8:	89 c1                	mov    %eax,%ecx
    e4ea:	8b 45 fc             	mov    -0x4(%rbp),%eax
    e4ed:	89 c2                	mov    %eax,%edx
    e4ef:	48 8d 35 1b 3c 00 00 	lea    0x3c1b(%rip),%rsi        # 12111 <g_2793+0x1071>
    e4f6:	48 89 cf             	mov    %rcx,%rdi
    e4f9:	e8 f5 a1 ff ff       	callq  86f3 <transparent_crc>
    e4fe:	8b 05 04 76 00 00    	mov    0x7604(%rip),%eax        # 15b08 <g_647+0x8>
    e504:	48 98                	cltq   
    e506:	8b 55 fc             	mov    -0x4(%rbp),%edx
    e509:	48 8d 35 0a 3c 00 00 	lea    0x3c0a(%rip),%rsi        # 1211a <g_2793+0x107a>
    e510:	48 89 c7             	mov    %rax,%rdi
    e513:	e8 db a1 ff ff       	callq  86f3 <transparent_crc>
    e518:	8b 05 ee 75 00 00    	mov    0x75ee(%rip),%eax        # 15b0c <g_647+0xc>
    e51e:	48 98                	cltq   
    e520:	8b 55 fc             	mov    -0x4(%rbp),%edx
    e523:	48 8d 35 f9 3b 00 00 	lea    0x3bf9(%rip),%rsi        # 12123 <g_2793+0x1083>
    e52a:	48 89 c7             	mov    %rax,%rdi
    e52d:	e8 c1 a1 ff ff       	callq  86f3 <transparent_crc>
    e532:	8b 05 d8 75 00 00    	mov    0x75d8(%rip),%eax        # 15b10 <g_647+0x10>
    e538:	48 98                	cltq   
    e53a:	8b 55 fc             	mov    -0x4(%rbp),%edx
    e53d:	48 8d 35 e8 3b 00 00 	lea    0x3be8(%rip),%rsi        # 1212c <g_2793+0x108c>
    e544:	48 89 c7             	mov    %rax,%rdi
    e547:	e8 a7 a1 ff ff       	callq  86f3 <transparent_crc>
    e54c:	8b 05 c2 75 00 00    	mov    0x75c2(%rip),%eax        # 15b14 <g_647+0x14>
    e552:	48 98                	cltq   
    e554:	8b 55 fc             	mov    -0x4(%rbp),%edx
    e557:	48 8d 35 d7 3b 00 00 	lea    0x3bd7(%rip),%rsi        # 12135 <g_2793+0x1095>
    e55e:	48 89 c7             	mov    %rax,%rdi
    e561:	e8 8d a1 ff ff       	callq  86f3 <transparent_crc>
    e566:	8b 05 ac 75 00 00    	mov    0x75ac(%rip),%eax        # 15b18 <g_647+0x18>
    e56c:	89 c1                	mov    %eax,%ecx
    e56e:	8b 45 fc             	mov    -0x4(%rbp),%eax
    e571:	89 c2                	mov    %eax,%edx
    e573:	48 8d 35 c4 3b 00 00 	lea    0x3bc4(%rip),%rsi        # 1213e <g_2793+0x109e>
    e57a:	48 89 cf             	mov    %rcx,%rdi
    e57d:	e8 71 a1 ff ff       	callq  86f3 <transparent_crc>
    e582:	8b 05 98 75 00 00    	mov    0x7598(%rip),%eax        # 15b20 <g_697>
    e588:	c1 e0 04             	shl    $0x4,%eax
    e58b:	c1 f8 04             	sar    $0x4,%eax
    e58e:	48 98                	cltq   
    e590:	8b 55 fc             	mov    -0x4(%rbp),%edx
    e593:	48 8d 35 ad 3b 00 00 	lea    0x3bad(%rip),%rsi        # 12147 <g_2793+0x10a7>
    e59a:	48 89 c7             	mov    %rax,%rdi
    e59d:	e8 51 a1 ff ff       	callq  86f3 <transparent_crc>
    e5a2:	8b 05 7c 75 00 00    	mov    0x757c(%rip),%eax        # 15b24 <g_697+0x4>
    e5a8:	89 c1                	mov    %eax,%ecx
    e5aa:	8b 45 fc             	mov    -0x4(%rbp),%eax
    e5ad:	89 c2                	mov    %eax,%edx
    e5af:	48 8d 35 9a 3b 00 00 	lea    0x3b9a(%rip),%rsi        # 12150 <g_2793+0x10b0>
    e5b6:	48 89 cf             	mov    %rcx,%rdi
    e5b9:	e8 35 a1 ff ff       	callq  86f3 <transparent_crc>
    e5be:	8b 05 64 75 00 00    	mov    0x7564(%rip),%eax        # 15b28 <g_697+0x8>
    e5c4:	48 98                	cltq   
    e5c6:	8b 55 fc             	mov    -0x4(%rbp),%edx
    e5c9:	48 8d 35 89 3b 00 00 	lea    0x3b89(%rip),%rsi        # 12159 <g_2793+0x10b9>
    e5d0:	48 89 c7             	mov    %rax,%rdi
    e5d3:	e8 1b a1 ff ff       	callq  86f3 <transparent_crc>
    e5d8:	8b 05 4e 75 00 00    	mov    0x754e(%rip),%eax        # 15b2c <g_697+0xc>
    e5de:	48 98                	cltq   
    e5e0:	8b 55 fc             	mov    -0x4(%rbp),%edx
    e5e3:	48 8d 35 78 3b 00 00 	lea    0x3b78(%rip),%rsi        # 12162 <g_2793+0x10c2>
    e5ea:	48 89 c7             	mov    %rax,%rdi
    e5ed:	e8 01 a1 ff ff       	callq  86f3 <transparent_crc>
    e5f2:	8b 05 38 75 00 00    	mov    0x7538(%rip),%eax        # 15b30 <g_697+0x10>
    e5f8:	48 98                	cltq   
    e5fa:	8b 55 fc             	mov    -0x4(%rbp),%edx
    e5fd:	48 8d 35 67 3b 00 00 	lea    0x3b67(%rip),%rsi        # 1216b <g_2793+0x10cb>
    e604:	48 89 c7             	mov    %rax,%rdi
    e607:	e8 e7 a0 ff ff       	callq  86f3 <transparent_crc>
    e60c:	8b 05 22 75 00 00    	mov    0x7522(%rip),%eax        # 15b34 <g_697+0x14>
    e612:	48 98                	cltq   
    e614:	8b 55 fc             	mov    -0x4(%rbp),%edx
    e617:	48 8d 35 56 3b 00 00 	lea    0x3b56(%rip),%rsi        # 12174 <g_2793+0x10d4>
    e61e:	48 89 c7             	mov    %rax,%rdi
    e621:	e8 cd a0 ff ff       	callq  86f3 <transparent_crc>
    e626:	8b 05 0c 75 00 00    	mov    0x750c(%rip),%eax        # 15b38 <g_697+0x18>
    e62c:	89 c1                	mov    %eax,%ecx
    e62e:	8b 45 fc             	mov    -0x4(%rbp),%eax
    e631:	89 c2                	mov    %eax,%edx
    e633:	48 8d 35 43 3b 00 00 	lea    0x3b43(%rip),%rsi        # 1217d <g_2793+0x10dd>
    e63a:	48 89 cf             	mov    %rcx,%rdi
    e63d:	e8 b1 a0 ff ff       	callq  86f3 <transparent_crc>
    e642:	8b 05 f4 74 00 00    	mov    0x74f4(%rip),%eax        # 15b3c <g_739>
    e648:	89 c1                	mov    %eax,%ecx
    e64a:	8b 45 fc             	mov    -0x4(%rbp),%eax
    e64d:	89 c2                	mov    %eax,%edx
    e64f:	48 8d 35 30 3b 00 00 	lea    0x3b30(%rip),%rsi        # 12186 <g_2793+0x10e6>
    e656:	48 89 cf             	mov    %rcx,%rdi
    e659:	e8 95 a0 ff ff       	callq  86f3 <transparent_crc>
    e65e:	8b 05 dc 74 00 00    	mov    0x74dc(%rip),%eax        # 15b40 <g_747>
    e664:	48 98                	cltq   
    e666:	8b 55 fc             	mov    -0x4(%rbp),%edx
    e669:	48 8d 35 1c 3b 00 00 	lea    0x3b1c(%rip),%rsi        # 1218c <g_2793+0x10ec>
    e670:	48 89 c7             	mov    %rax,%rdi
    e673:	e8 7b a0 ff ff       	callq  86f3 <transparent_crc>
    e678:	8b 05 d2 74 00 00    	mov    0x74d2(%rip),%eax        # 15b50 <g_900>
    e67e:	48 98                	cltq   
    e680:	8b 55 fc             	mov    -0x4(%rbp),%edx
    e683:	48 8d 35 08 3b 00 00 	lea    0x3b08(%rip),%rsi        # 12192 <g_2793+0x10f2>
    e68a:	48 89 c7             	mov    %rax,%rdi
    e68d:	e8 61 a0 ff ff       	callq  86f3 <transparent_crc>
    e692:	8b 05 bc 74 00 00    	mov    0x74bc(%rip),%eax        # 15b54 <g_900+0x4>
    e698:	48 98                	cltq   
    e69a:	8b 55 fc             	mov    -0x4(%rbp),%edx
    e69d:	48 8d 35 f7 3a 00 00 	lea    0x3af7(%rip),%rsi        # 1219b <g_2793+0x10fb>
    e6a4:	48 89 c7             	mov    %rax,%rdi
    e6a7:	e8 47 a0 ff ff       	callq  86f3 <transparent_crc>
    e6ac:	0f b6 05 a5 74 00 00 	movzbl 0x74a5(%rip),%eax        # 15b58 <g_900+0x8>
    e6b3:	48 0f be c0          	movsbq %al,%rax
    e6b7:	8b 55 fc             	mov    -0x4(%rbp),%edx
    e6ba:	48 8d 35 e3 3a 00 00 	lea    0x3ae3(%rip),%rsi        # 121a4 <g_2793+0x1104>
    e6c1:	48 89 c7             	mov    %rax,%rdi
    e6c4:	e8 2a a0 ff ff       	callq  86f3 <transparent_crc>
    e6c9:	0f b7 05 89 74 00 00 	movzwl 0x7489(%rip),%eax        # 15b59 <g_900+0x9>
    e6d0:	48 0f bf c0          	movswq %ax,%rax
    e6d4:	8b 55 fc             	mov    -0x4(%rbp),%edx
    e6d7:	48 8d 35 cf 3a 00 00 	lea    0x3acf(%rip),%rsi        # 121ad <g_2793+0x110d>
    e6de:	48 89 c7             	mov    %rax,%rdi
    e6e1:	e8 0d a0 ff ff       	callq  86f3 <transparent_crc>
    e6e6:	0f b7 05 6e 74 00 00 	movzwl 0x746e(%rip),%eax        # 15b5b <g_900+0xb>
    e6ed:	0f b7 c0             	movzwl %ax,%eax
    e6f0:	8b 55 fc             	mov    -0x4(%rbp),%edx
    e6f3:	48 8d 35 bc 3a 00 00 	lea    0x3abc(%rip),%rsi        # 121b6 <g_2793+0x1116>
    e6fa:	48 89 c7             	mov    %rax,%rdi
    e6fd:	e8 f1 9f ff ff       	callq  86f3 <transparent_crc>
    e702:	48 8b 05 54 74 00 00 	mov    0x7454(%rip),%rax        # 15b5d <g_900+0xd>
    e709:	48 89 c1             	mov    %rax,%rcx
    e70c:	8b 45 fc             	mov    -0x4(%rbp),%eax
    e70f:	89 c2                	mov    %eax,%edx
    e711:	48 8d 35 a7 3a 00 00 	lea    0x3aa7(%rip),%rsi        # 121bf <g_2793+0x111f>
    e718:	48 89 cf             	mov    %rcx,%rdi
    e71b:	e8 d3 9f ff ff       	callq  86f3 <transparent_crc>
    e720:	8b 05 42 74 00 00    	mov    0x7442(%rip),%eax        # 15b68 <g_972>
    e726:	48 98                	cltq   
    e728:	8b 55 fc             	mov    -0x4(%rbp),%edx
    e72b:	48 8d 35 96 3a 00 00 	lea    0x3a96(%rip),%rsi        # 121c8 <g_2793+0x1128>
    e732:	48 89 c7             	mov    %rax,%rdi
    e735:	e8 b9 9f ff ff       	callq  86f3 <transparent_crc>
    e73a:	48 8b 05 3f 29 00 00 	mov    0x293f(%rip),%rax        # 11080 <g_1058>
    e741:	25 ff ff ff 07       	and    $0x7ffffff,%eax
    e746:	89 c1                	mov    %eax,%ecx
    e748:	8b 45 fc             	mov    -0x4(%rbp),%eax
    e74b:	89 c2                	mov    %eax,%edx
    e74d:	48 8d 35 7a 3a 00 00 	lea    0x3a7a(%rip),%rsi        # 121ce <g_2793+0x112e>
    e754:	48 89 cf             	mov    %rcx,%rdi
    e757:	e8 97 9f ff ff       	callq  86f3 <transparent_crc>
    e75c:	48 8b 05 1d 29 00 00 	mov    0x291d(%rip),%rax        # 11080 <g_1058>
    e763:	48 c1 e8 20          	shr    $0x20,%rax
    e767:	25 ff ff ff 7f       	and    $0x7fffffff,%eax
    e76c:	89 c1                	mov    %eax,%ecx
    e76e:	8b 45 fc             	mov    -0x4(%rbp),%eax
    e771:	89 c2                	mov    %eax,%edx
    e773:	48 8d 35 5e 3a 00 00 	lea    0x3a5e(%rip),%rsi        # 121d8 <g_2793+0x1138>
    e77a:	48 89 cf             	mov    %rcx,%rdi
    e77d:	e8 71 9f ff ff       	callq  86f3 <transparent_crc>
    e782:	b8 00 00 00 00       	mov    $0x0,%eax
    e787:	48 98                	cltq   
    e789:	8b 55 fc             	mov    -0x4(%rbp),%edx
    e78c:	48 8d 35 4f 3a 00 00 	lea    0x3a4f(%rip),%rsi        # 121e2 <g_2793+0x1142>
    e793:	48 89 c7             	mov    %rax,%rdi
    e796:	e8 58 9f ff ff       	callq  86f3 <transparent_crc>
    e79b:	b8 fa ff ff ff       	mov    $0xfffffffa,%eax
    e7a0:	0f b6 c0             	movzbl %al,%eax
    e7a3:	8b 55 fc             	mov    -0x4(%rbp),%edx
    e7a6:	48 8d 35 3f 3a 00 00 	lea    0x3a3f(%rip),%rsi        # 121ec <g_2793+0x114c>
    e7ad:	48 89 c7             	mov    %rax,%rdi
    e7b0:	e8 3e 9f ff ff       	callq  86f3 <transparent_crc>
    e7b5:	48 8b 05 cc 28 00 00 	mov    0x28cc(%rip),%rax        # 11088 <g_1058+0x8>
    e7bc:	48 c1 e8 28          	shr    $0x28,%rax
    e7c0:	83 e0 1f             	and    $0x1f,%eax
    e7c3:	0f b6 c0             	movzbl %al,%eax
    e7c6:	8b 55 fc             	mov    -0x4(%rbp),%edx
    e7c9:	48 8d 35 26 3a 00 00 	lea    0x3a26(%rip),%rsi        # 121f6 <g_2793+0x1156>
    e7d0:	48 89 c7             	mov    %rax,%rdi
    e7d3:	e8 1b 9f ff ff       	callq  86f3 <transparent_crc>
    e7d8:	b8 40 0f 00 00       	mov    $0xf40,%eax
    e7dd:	89 c1                	mov    %eax,%ecx
    e7df:	8b 45 fc             	mov    -0x4(%rbp),%eax
    e7e2:	89 c2                	mov    %eax,%edx
    e7e4:	48 8d 35 15 3a 00 00 	lea    0x3a15(%rip),%rsi        # 12200 <g_2793+0x1160>
    e7eb:	48 89 cf             	mov    %rcx,%rdi
    e7ee:	e8 00 9f ff ff       	callq  86f3 <transparent_crc>
    e7f3:	48 8b 05 76 73 00 00 	mov    0x7376(%rip),%rax        # 15b70 <g_1069>
    e7fa:	25 ff ff ff 07       	and    $0x7ffffff,%eax
    e7ff:	89 c1                	mov    %eax,%ecx
    e801:	8b 45 fc             	mov    -0x4(%rbp),%eax
    e804:	89 c2                	mov    %eax,%edx
    e806:	48 8d 35 fd 39 00 00 	lea    0x39fd(%rip),%rsi        # 1220a <g_2793+0x116a>
    e80d:	48 89 cf             	mov    %rcx,%rdi
    e810:	e8 de 9e ff ff       	callq  86f3 <transparent_crc>
    e815:	48 8b 05 54 73 00 00 	mov    0x7354(%rip),%rax        # 15b70 <g_1069>
    e81c:	48 c1 e8 20          	shr    $0x20,%rax
    e820:	25 ff ff ff 7f       	and    $0x7fffffff,%eax
    e825:	89 c1                	mov    %eax,%ecx
    e827:	8b 45 fc             	mov    -0x4(%rbp),%eax
    e82a:	89 c2                	mov    %eax,%edx
    e82c:	48 8d 35 e1 39 00 00 	lea    0x39e1(%rip),%rsi        # 12214 <g_2793+0x1174>
    e833:	48 89 cf             	mov    %rcx,%rdi
    e836:	e8 b8 9e ff ff       	callq  86f3 <transparent_crc>
    e83b:	8b 05 37 73 00 00    	mov    0x7337(%rip),%eax        # 15b78 <g_1069+0x8>
    e841:	48 98                	cltq   
    e843:	8b 55 fc             	mov    -0x4(%rbp),%edx
    e846:	48 8d 35 d1 39 00 00 	lea    0x39d1(%rip),%rsi        # 1221e <g_2793+0x117e>
    e84d:	48 89 c7             	mov    %rax,%rdi
    e850:	e8 9e 9e ff ff       	callq  86f3 <transparent_crc>
    e855:	0f b6 05 20 73 00 00 	movzbl 0x7320(%rip),%eax        # 15b7c <g_1069+0xc>
    e85c:	0f b6 c0             	movzbl %al,%eax
    e85f:	8b 55 fc             	mov    -0x4(%rbp),%edx
    e862:	48 8d 35 bf 39 00 00 	lea    0x39bf(%rip),%rsi        # 12228 <g_2793+0x1188>
    e869:	48 89 c7             	mov    %rax,%rdi
    e86c:	e8 82 9e ff ff       	callq  86f3 <transparent_crc>
    e871:	48 8b 05 00 73 00 00 	mov    0x7300(%rip),%rax        # 15b78 <g_1069+0x8>
    e878:	48 c1 e8 28          	shr    $0x28,%rax
    e87c:	83 e0 1f             	and    $0x1f,%eax
    e87f:	0f b6 c0             	movzbl %al,%eax
    e882:	8b 55 fc             	mov    -0x4(%rbp),%edx
    e885:	48 8d 35 a6 39 00 00 	lea    0x39a6(%rip),%rsi        # 12232 <g_2793+0x1192>
    e88c:	48 89 c7             	mov    %rax,%rdi
    e88f:	e8 5f 9e ff ff       	callq  86f3 <transparent_crc>
    e894:	8b 05 e6 72 00 00    	mov    0x72e6(%rip),%eax        # 15b80 <g_1069+0x10>
    e89a:	25 ff ff ff 00       	and    $0xffffff,%eax
    e89f:	89 c1                	mov    %eax,%ecx
    e8a1:	8b 45 fc             	mov    -0x4(%rbp),%eax
    e8a4:	89 c2                	mov    %eax,%edx
    e8a6:	48 8d 35 8f 39 00 00 	lea    0x398f(%rip),%rsi        # 1223c <g_2793+0x119c>
    e8ad:	48 89 cf             	mov    %rcx,%rdi
    e8b0:	e8 3e 9e ff ff       	callq  86f3 <transparent_crc>
    e8b5:	48 8b 05 d4 72 00 00 	mov    0x72d4(%rip),%rax        # 15b90 <g_1074>
    e8bc:	c1 e0 04             	shl    $0x4,%eax
    e8bf:	c1 f8 04             	sar    $0x4,%eax
    e8c2:	48 98                	cltq   
    e8c4:	8b 55 fc             	mov    -0x4(%rbp),%edx
    e8c7:	48 8d 35 78 39 00 00 	lea    0x3978(%rip),%rsi        # 12246 <g_2793+0x11a6>
    e8ce:	48 89 c7             	mov    %rax,%rdi
    e8d1:	e8 1d 9e ff ff       	callq  86f3 <transparent_crc>
    e8d6:	8b 05 b8 72 00 00    	mov    0x72b8(%rip),%eax        # 15b94 <g_1074+0x4>
    e8dc:	89 c1                	mov    %eax,%ecx
    e8de:	8b 45 fc             	mov    -0x4(%rbp),%eax
    e8e1:	89 c2                	mov    %eax,%edx
    e8e3:	48 8d 35 66 39 00 00 	lea    0x3966(%rip),%rsi        # 12250 <g_2793+0x11b0>
    e8ea:	48 89 cf             	mov    %rcx,%rdi
    e8ed:	e8 01 9e ff ff       	callq  86f3 <transparent_crc>
    e8f2:	8b 05 a0 72 00 00    	mov    0x72a0(%rip),%eax        # 15b98 <g_1074+0x8>
    e8f8:	48 98                	cltq   
    e8fa:	8b 55 fc             	mov    -0x4(%rbp),%edx
    e8fd:	48 8d 35 56 39 00 00 	lea    0x3956(%rip),%rsi        # 1225a <g_2793+0x11ba>
    e904:	48 89 c7             	mov    %rax,%rdi
    e907:	e8 e7 9d ff ff       	callq  86f3 <transparent_crc>
    e90c:	8b 05 8a 72 00 00    	mov    0x728a(%rip),%eax        # 15b9c <g_1074+0xc>
    e912:	48 98                	cltq   
    e914:	8b 55 fc             	mov    -0x4(%rbp),%edx
    e917:	48 8d 35 46 39 00 00 	lea    0x3946(%rip),%rsi        # 12264 <g_2793+0x11c4>
    e91e:	48 89 c7             	mov    %rax,%rdi
    e921:	e8 cd 9d ff ff       	callq  86f3 <transparent_crc>
    e926:	8b 05 74 72 00 00    	mov    0x7274(%rip),%eax        # 15ba0 <g_1074+0x10>
    e92c:	48 98                	cltq   
    e92e:	8b 55 fc             	mov    -0x4(%rbp),%edx
    e931:	48 8d 35 36 39 00 00 	lea    0x3936(%rip),%rsi        # 1226e <g_2793+0x11ce>
    e938:	48 89 c7             	mov    %rax,%rdi
    e93b:	e8 b3 9d ff ff       	callq  86f3 <transparent_crc>
    e940:	8b 05 5e 72 00 00    	mov    0x725e(%rip),%eax        # 15ba4 <g_1074+0x14>
    e946:	48 98                	cltq   
    e948:	8b 55 fc             	mov    -0x4(%rbp),%edx
    e94b:	48 8d 35 26 39 00 00 	lea    0x3926(%rip),%rsi        # 12278 <g_2793+0x11d8>
    e952:	48 89 c7             	mov    %rax,%rdi
    e955:	e8 99 9d ff ff       	callq  86f3 <transparent_crc>
    e95a:	8b 05 48 72 00 00    	mov    0x7248(%rip),%eax        # 15ba8 <g_1074+0x18>
    e960:	89 c1                	mov    %eax,%ecx
    e962:	8b 45 fc             	mov    -0x4(%rbp),%eax
    e965:	89 c2                	mov    %eax,%edx
    e967:	48 8d 35 14 39 00 00 	lea    0x3914(%rip),%rsi        # 12282 <g_2793+0x11e2>
    e96e:	48 89 cf             	mov    %rcx,%rdi
    e971:	e8 7d 9d ff ff       	callq  86f3 <transparent_crc>
    e976:	c7 45 f0 00 00 00 00 	movl   $0x0,-0x10(%rbp)
    e97d:	e9 9d 01 00 00       	jmpq   eb1f <main+0x14ef>
    e982:	8b 45 f0             	mov    -0x10(%rbp),%eax
    e985:	48 63 d0             	movslq %eax,%rdx
    e988:	48 89 d0             	mov    %rdx,%rax
    e98b:	48 c1 e0 03          	shl    $0x3,%rax
    e98f:	48 29 d0             	sub    %rdx,%rax
    e992:	48 c1 e0 02          	shl    $0x2,%rax
    e996:	48 89 c2             	mov    %rax,%rdx
    e999:	48 8d 05 20 72 00 00 	lea    0x7220(%rip),%rax        # 15bc0 <g_1094>
    e9a0:	8b 04 02             	mov    (%rdx,%rax,1),%eax
    e9a3:	c1 e0 04             	shl    $0x4,%eax
    e9a6:	c1 f8 04             	sar    $0x4,%eax
    e9a9:	48 98                	cltq   
    e9ab:	8b 55 fc             	mov    -0x4(%rbp),%edx
    e9ae:	48 8d 35 d7 38 00 00 	lea    0x38d7(%rip),%rsi        # 1228c <g_2793+0x11ec>
    e9b5:	48 89 c7             	mov    %rax,%rdi
    e9b8:	e8 36 9d ff ff       	callq  86f3 <transparent_crc>
    e9bd:	8b 45 f0             	mov    -0x10(%rbp),%eax
    e9c0:	48 63 d0             	movslq %eax,%rdx
    e9c3:	48 89 d0             	mov    %rdx,%rax
    e9c6:	48 c1 e0 03          	shl    $0x3,%rax
    e9ca:	48 29 d0             	sub    %rdx,%rax
    e9cd:	48 c1 e0 02          	shl    $0x2,%rax
    e9d1:	48 89 c2             	mov    %rax,%rdx
    e9d4:	48 8d 05 e9 71 00 00 	lea    0x71e9(%rip),%rax        # 15bc4 <g_1094+0x4>
    e9db:	8b 04 02             	mov    (%rdx,%rax,1),%eax
    e9de:	89 c1                	mov    %eax,%ecx
    e9e0:	8b 45 fc             	mov    -0x4(%rbp),%eax
    e9e3:	89 c2                	mov    %eax,%edx
    e9e5:	48 8d 35 ad 38 00 00 	lea    0x38ad(%rip),%rsi        # 12299 <g_2793+0x11f9>
    e9ec:	48 89 cf             	mov    %rcx,%rdi
    e9ef:	e8 ff 9c ff ff       	callq  86f3 <transparent_crc>
    e9f4:	8b 45 f0             	mov    -0x10(%rbp),%eax
    e9f7:	48 63 d0             	movslq %eax,%rdx
    e9fa:	48 89 d0             	mov    %rdx,%rax
    e9fd:	48 c1 e0 03          	shl    $0x3,%rax
    ea01:	48 29 d0             	sub    %rdx,%rax
    ea04:	48 c1 e0 02          	shl    $0x2,%rax
    ea08:	48 89 c2             	mov    %rax,%rdx
    ea0b:	48 8d 05 b6 71 00 00 	lea    0x71b6(%rip),%rax        # 15bc8 <g_1094+0x8>
    ea12:	8b 04 02             	mov    (%rdx,%rax,1),%eax
    ea15:	48 98                	cltq   
    ea17:	8b 55 fc             	mov    -0x4(%rbp),%edx
    ea1a:	48 8d 35 85 38 00 00 	lea    0x3885(%rip),%rsi        # 122a6 <g_2793+0x1206>
    ea21:	48 89 c7             	mov    %rax,%rdi
    ea24:	e8 ca 9c ff ff       	callq  86f3 <transparent_crc>
    ea29:	8b 45 f0             	mov    -0x10(%rbp),%eax
    ea2c:	48 63 d0             	movslq %eax,%rdx
    ea2f:	48 89 d0             	mov    %rdx,%rax
    ea32:	48 c1 e0 03          	shl    $0x3,%rax
    ea36:	48 29 d0             	sub    %rdx,%rax
    ea39:	48 c1 e0 02          	shl    $0x2,%rax
    ea3d:	48 89 c2             	mov    %rax,%rdx
    ea40:	48 8d 05 85 71 00 00 	lea    0x7185(%rip),%rax        # 15bcc <g_1094+0xc>
    ea47:	8b 04 02             	mov    (%rdx,%rax,1),%eax
    ea4a:	48 98                	cltq   
    ea4c:	8b 55 fc             	mov    -0x4(%rbp),%edx
    ea4f:	48 8d 35 5d 38 00 00 	lea    0x385d(%rip),%rsi        # 122b3 <g_2793+0x1213>
    ea56:	48 89 c7             	mov    %rax,%rdi
    ea59:	e8 95 9c ff ff       	callq  86f3 <transparent_crc>
    ea5e:	8b 45 f0             	mov    -0x10(%rbp),%eax
    ea61:	48 63 d0             	movslq %eax,%rdx
    ea64:	48 89 d0             	mov    %rdx,%rax
    ea67:	48 c1 e0 03          	shl    $0x3,%rax
    ea6b:	48 29 d0             	sub    %rdx,%rax
    ea6e:	48 c1 e0 02          	shl    $0x2,%rax
    ea72:	48 89 c2             	mov    %rax,%rdx
    ea75:	48 8d 05 54 71 00 00 	lea    0x7154(%rip),%rax        # 15bd0 <g_1094+0x10>
    ea7c:	8b 04 02             	mov    (%rdx,%rax,1),%eax
    ea7f:	48 98                	cltq   
    ea81:	8b 55 fc             	mov    -0x4(%rbp),%edx
    ea84:	48 8d 35 35 38 00 00 	lea    0x3835(%rip),%rsi        # 122c0 <g_2793+0x1220>
    ea8b:	48 89 c7             	mov    %rax,%rdi
    ea8e:	e8 60 9c ff ff       	callq  86f3 <transparent_crc>
    ea93:	8b 45 f0             	mov    -0x10(%rbp),%eax
    ea96:	48 63 d0             	movslq %eax,%rdx
    ea99:	48 89 d0             	mov    %rdx,%rax
    ea9c:	48 c1 e0 03          	shl    $0x3,%rax
    eaa0:	48 29 d0             	sub    %rdx,%rax
    eaa3:	48 c1 e0 02          	shl    $0x2,%rax
    eaa7:	48 89 c2             	mov    %rax,%rdx
    eaaa:	48 8d 05 23 71 00 00 	lea    0x7123(%rip),%rax        # 15bd4 <g_1094+0x14>
    eab1:	8b 04 02             	mov    (%rdx,%rax,1),%eax
    eab4:	48 98                	cltq   
    eab6:	8b 55 fc             	mov    -0x4(%rbp),%edx
    eab9:	48 8d 35 0d 38 00 00 	lea    0x380d(%rip),%rsi        # 122cd <g_2793+0x122d>
    eac0:	48 89 c7             	mov    %rax,%rdi
    eac3:	e8 2b 9c ff ff       	callq  86f3 <transparent_crc>
    eac8:	8b 45 f0             	mov    -0x10(%rbp),%eax
    eacb:	48 63 d0             	movslq %eax,%rdx
    eace:	48 89 d0             	mov    %rdx,%rax
    ead1:	48 c1 e0 03          	shl    $0x3,%rax
    ead5:	48 29 d0             	sub    %rdx,%rax
    ead8:	48 c1 e0 02          	shl    $0x2,%rax
    eadc:	48 89 c2             	mov    %rax,%rdx
    eadf:	48 8d 05 f2 70 00 00 	lea    0x70f2(%rip),%rax        # 15bd8 <g_1094+0x18>
    eae6:	8b 04 02             	mov    (%rdx,%rax,1),%eax
    eae9:	89 c1                	mov    %eax,%ecx
    eaeb:	8b 45 fc             	mov    -0x4(%rbp),%eax
    eaee:	89 c2                	mov    %eax,%edx
    eaf0:	48 8d 35 e3 37 00 00 	lea    0x37e3(%rip),%rsi        # 122da <g_2793+0x123a>
    eaf7:	48 89 cf             	mov    %rcx,%rdi
    eafa:	e8 f4 9b ff ff       	callq  86f3 <transparent_crc>
    eaff:	83 7d fc 00          	cmpl   $0x0,-0x4(%rbp)
    eb03:	74 16                	je     eb1b <main+0x14eb>
    eb05:	8b 45 f0             	mov    -0x10(%rbp),%eax
    eb08:	89 c6                	mov    %eax,%esi
    eb0a:	48 8d 3d 30 33 00 00 	lea    0x3330(%rip),%rdi        # 11e41 <g_2793+0xda1>
    eb11:	b8 00 00 00 00       	mov    $0x0,%eax
    eb16:	e8 65 85 ff ff       	callq  7080 <printf@plt>
    eb1b:	83 45 f0 01          	addl   $0x1,-0x10(%rbp)
    eb1f:	83 7d f0 03          	cmpl   $0x3,-0x10(%rbp)
    eb23:	0f 8e 59 fe ff ff    	jle    e982 <main+0x1352>
    eb29:	48 8b 05 00 71 00 00 	mov    0x7100(%rip),%rax        # 15c30 <g_1113>
    eb30:	48 89 c1             	mov    %rax,%rcx
    eb33:	8b 45 fc             	mov    -0x4(%rbp),%eax
    eb36:	89 c2                	mov    %eax,%edx
    eb38:	48 8d 35 a8 37 00 00 	lea    0x37a8(%rip),%rsi        # 122e7 <g_2793+0x1247>
    eb3f:	48 89 cf             	mov    %rcx,%rdi
    eb42:	e8 ac 9b ff ff       	callq  86f3 <transparent_crc>
    eb47:	c7 45 f0 00 00 00 00 	movl   $0x0,-0x10(%rbp)
    eb4e:	eb 49                	jmp    eb99 <main+0x1569>
    eb50:	8b 45 f0             	mov    -0x10(%rbp),%eax
    eb53:	48 98                	cltq   
    eb55:	48 8d 14 00          	lea    (%rax,%rax,1),%rdx
    eb59:	48 8d 05 30 ad 00 00 	lea    0xad30(%rip),%rax        # 19890 <g_1123>
    eb60:	0f b7 04 02          	movzwl (%rdx,%rax,1),%eax
    eb64:	0f b7 c0             	movzwl %ax,%eax
    eb67:	8b 55 fc             	mov    -0x4(%rbp),%edx
    eb6a:	48 8d 35 7d 37 00 00 	lea    0x377d(%rip),%rsi        # 122ee <g_2793+0x124e>
    eb71:	48 89 c7             	mov    %rax,%rdi
    eb74:	e8 7a 9b ff ff       	callq  86f3 <transparent_crc>
    eb79:	83 7d fc 00          	cmpl   $0x0,-0x4(%rbp)
    eb7d:	74 16                	je     eb95 <main+0x1565>
    eb7f:	8b 45 f0             	mov    -0x10(%rbp),%eax
    eb82:	89 c6                	mov    %eax,%esi
    eb84:	48 8d 3d b6 32 00 00 	lea    0x32b6(%rip),%rdi        # 11e41 <g_2793+0xda1>
    eb8b:	b8 00 00 00 00       	mov    $0x0,%eax
    eb90:	e8 eb 84 ff ff       	callq  7080 <printf@plt>
    eb95:	83 45 f0 01          	addl   $0x1,-0x10(%rbp)
    eb99:	83 7d f0 07          	cmpl   $0x7,-0x10(%rbp)
    eb9d:	7e b1                	jle    eb50 <main+0x1520>
    eb9f:	48 8b 05 9a 70 00 00 	mov    0x709a(%rip),%rax        # 15c40 <g_1262>
    eba6:	25 ff ff ff 07       	and    $0x7ffffff,%eax
    ebab:	89 c1                	mov    %eax,%ecx
    ebad:	8b 45 fc             	mov    -0x4(%rbp),%eax
    ebb0:	89 c2                	mov    %eax,%edx
    ebb2:	48 8d 35 3f 37 00 00 	lea    0x373f(%rip),%rsi        # 122f8 <g_2793+0x1258>
    ebb9:	48 89 cf             	mov    %rcx,%rdi
    ebbc:	e8 32 9b ff ff       	callq  86f3 <transparent_crc>
    ebc1:	48 8b 05 78 70 00 00 	mov    0x7078(%rip),%rax        # 15c40 <g_1262>
    ebc8:	48 c1 e8 20          	shr    $0x20,%rax
    ebcc:	25 ff ff ff 7f       	and    $0x7fffffff,%eax
    ebd1:	89 c1                	mov    %eax,%ecx
    ebd3:	8b 45 fc             	mov    -0x4(%rbp),%eax
    ebd6:	89 c2                	mov    %eax,%edx
    ebd8:	48 8d 35 23 37 00 00 	lea    0x3723(%rip),%rsi        # 12302 <g_2793+0x1262>
    ebdf:	48 89 cf             	mov    %rcx,%rdi
    ebe2:	e8 0c 9b ff ff       	callq  86f3 <transparent_crc>
    ebe7:	8b 05 5b 70 00 00    	mov    0x705b(%rip),%eax        # 15c48 <g_1262+0x8>
    ebed:	48 98                	cltq   
    ebef:	8b 55 fc             	mov    -0x4(%rbp),%edx
    ebf2:	48 8d 35 13 37 00 00 	lea    0x3713(%rip),%rsi        # 1230c <g_2793+0x126c>
    ebf9:	48 89 c7             	mov    %rax,%rdi
    ebfc:	e8 f2 9a ff ff       	callq  86f3 <transparent_crc>
    ec01:	0f b6 05 44 70 00 00 	movzbl 0x7044(%rip),%eax        # 15c4c <g_1262+0xc>
    ec08:	0f b6 c0             	movzbl %al,%eax
    ec0b:	8b 55 fc             	mov    -0x4(%rbp),%edx
    ec0e:	48 8d 35 01 37 00 00 	lea    0x3701(%rip),%rsi        # 12316 <g_2793+0x1276>
    ec15:	48 89 c7             	mov    %rax,%rdi
    ec18:	e8 d6 9a ff ff       	callq  86f3 <transparent_crc>
    ec1d:	48 8b 05 24 70 00 00 	mov    0x7024(%rip),%rax        # 15c48 <g_1262+0x8>
    ec24:	48 c1 e8 28          	shr    $0x28,%rax
    ec28:	83 e0 1f             	and    $0x1f,%eax
    ec2b:	0f b6 c0             	movzbl %al,%eax
    ec2e:	8b 55 fc             	mov    -0x4(%rbp),%edx
    ec31:	48 8d 35 e8 36 00 00 	lea    0x36e8(%rip),%rsi        # 12320 <g_2793+0x1280>
    ec38:	48 89 c7             	mov    %rax,%rdi
    ec3b:	e8 b3 9a ff ff       	callq  86f3 <transparent_crc>
    ec40:	8b 05 0a 70 00 00    	mov    0x700a(%rip),%eax        # 15c50 <g_1262+0x10>
    ec46:	25 ff ff ff 00       	and    $0xffffff,%eax
    ec4b:	89 c1                	mov    %eax,%ecx
    ec4d:	8b 45 fc             	mov    -0x4(%rbp),%eax
    ec50:	89 c2                	mov    %eax,%edx
    ec52:	48 8d 35 d1 36 00 00 	lea    0x36d1(%rip),%rsi        # 1232a <g_2793+0x128a>
    ec59:	48 89 cf             	mov    %rcx,%rdi
    ec5c:	e8 92 9a ff ff       	callq  86f3 <transparent_crc>
    ec61:	8b 05 f9 6f 00 00    	mov    0x6ff9(%rip),%eax        # 15c60 <g_1303>
    ec67:	c1 e0 04             	shl    $0x4,%eax
    ec6a:	c1 f8 04             	sar    $0x4,%eax
    ec6d:	48 98                	cltq   
    ec6f:	8b 55 fc             	mov    -0x4(%rbp),%edx
    ec72:	48 8d 35 bb 36 00 00 	lea    0x36bb(%rip),%rsi        # 12334 <g_2793+0x1294>
    ec79:	48 89 c7             	mov    %rax,%rdi
    ec7c:	e8 72 9a ff ff       	callq  86f3 <transparent_crc>
    ec81:	8b 05 dd 6f 00 00    	mov    0x6fdd(%rip),%eax        # 15c64 <g_1303+0x4>
    ec87:	89 c1                	mov    %eax,%ecx
    ec89:	8b 45 fc             	mov    -0x4(%rbp),%eax
    ec8c:	89 c2                	mov    %eax,%edx
    ec8e:	48 8d 35 a9 36 00 00 	lea    0x36a9(%rip),%rsi        # 1233e <g_2793+0x129e>
    ec95:	48 89 cf             	mov    %rcx,%rdi
    ec98:	e8 56 9a ff ff       	callq  86f3 <transparent_crc>
    ec9d:	8b 05 c5 6f 00 00    	mov    0x6fc5(%rip),%eax        # 15c68 <g_1303+0x8>
    eca3:	48 98                	cltq   
    eca5:	8b 55 fc             	mov    -0x4(%rbp),%edx
    eca8:	48 8d 35 99 36 00 00 	lea    0x3699(%rip),%rsi        # 12348 <g_2793+0x12a8>
    ecaf:	48 89 c7             	mov    %rax,%rdi
    ecb2:	e8 3c 9a ff ff       	callq  86f3 <transparent_crc>
    ecb7:	8b 05 af 6f 00 00    	mov    0x6faf(%rip),%eax        # 15c6c <g_1303+0xc>
    ecbd:	48 98                	cltq   
    ecbf:	8b 55 fc             	mov    -0x4(%rbp),%edx
    ecc2:	48 8d 35 89 36 00 00 	lea    0x3689(%rip),%rsi        # 12352 <g_2793+0x12b2>
    ecc9:	48 89 c7             	mov    %rax,%rdi
    eccc:	e8 22 9a ff ff       	callq  86f3 <transparent_crc>
    ecd1:	8b 05 99 6f 00 00    	mov    0x6f99(%rip),%eax        # 15c70 <g_1303+0x10>
    ecd7:	48 98                	cltq   
    ecd9:	8b 55 fc             	mov    -0x4(%rbp),%edx
    ecdc:	48 8d 35 79 36 00 00 	lea    0x3679(%rip),%rsi        # 1235c <g_2793+0x12bc>
    ece3:	48 89 c7             	mov    %rax,%rdi
    ece6:	e8 08 9a ff ff       	callq  86f3 <transparent_crc>
    eceb:	8b 05 83 6f 00 00    	mov    0x6f83(%rip),%eax        # 15c74 <g_1303+0x14>
    ecf1:	48 98                	cltq   
    ecf3:	8b 55 fc             	mov    -0x4(%rbp),%edx
    ecf6:	48 8d 35 69 36 00 00 	lea    0x3669(%rip),%rsi        # 12366 <g_2793+0x12c6>
    ecfd:	48 89 c7             	mov    %rax,%rdi
    ed00:	e8 ee 99 ff ff       	callq  86f3 <transparent_crc>
    ed05:	8b 05 6d 6f 00 00    	mov    0x6f6d(%rip),%eax        # 15c78 <g_1303+0x18>
    ed0b:	89 c1                	mov    %eax,%ecx
    ed0d:	8b 45 fc             	mov    -0x4(%rbp),%eax
    ed10:	89 c2                	mov    %eax,%edx
    ed12:	48 8d 35 57 36 00 00 	lea    0x3657(%rip),%rsi        # 12370 <g_2793+0x12d0>
    ed19:	48 89 cf             	mov    %rcx,%rdi
    ed1c:	e8 d2 99 ff ff       	callq  86f3 <transparent_crc>
    ed21:	c7 45 f0 00 00 00 00 	movl   $0x0,-0x10(%rbp)
    ed28:	e9 23 02 00 00       	jmpq   ef50 <main+0x1920>
    ed2d:	c7 45 f4 00 00 00 00 	movl   $0x0,-0xc(%rbp)
    ed34:	e9 09 02 00 00       	jmpq   ef42 <main+0x1912>
    ed39:	8b 45 f4             	mov    -0xc(%rbp),%eax
    ed3c:	48 63 d0             	movslq %eax,%rdx
    ed3f:	8b 45 f0             	mov    -0x10(%rbp),%eax
    ed42:	48 63 c8             	movslq %eax,%rcx
    ed45:	48 89 d0             	mov    %rdx,%rax
    ed48:	48 c1 e0 03          	shl    $0x3,%rax
    ed4c:	48 29 d0             	sub    %rdx,%rax
    ed4f:	48 c1 e0 02          	shl    $0x2,%rax
    ed53:	48 69 d1 18 01 00 00 	imul   $0x118,%rcx,%rdx
    ed5a:	48 01 c2             	add    %rax,%rdx
    ed5d:	48 8d 05 1c 6f 00 00 	lea    0x6f1c(%rip),%rax        # 15c80 <g_1308>
    ed64:	48 01 d0             	add    %rdx,%rax
    ed67:	8b 00                	mov    (%rax),%eax
    ed69:	c1 e0 04             	shl    $0x4,%eax
    ed6c:	c1 f8 04             	sar    $0x4,%eax
    ed6f:	48 98                	cltq   
    ed71:	8b 55 fc             	mov    -0x4(%rbp),%edx
    ed74:	48 8d 35 ff 35 00 00 	lea    0x35ff(%rip),%rsi        # 1237a <g_2793+0x12da>
    ed7b:	48 89 c7             	mov    %rax,%rdi
    ed7e:	e8 70 99 ff ff       	callq  86f3 <transparent_crc>
    ed83:	8b 45 f4             	mov    -0xc(%rbp),%eax
    ed86:	48 63 d0             	movslq %eax,%rdx
    ed89:	8b 45 f0             	mov    -0x10(%rbp),%eax
    ed8c:	48 63 c8             	movslq %eax,%rcx
    ed8f:	48 89 d0             	mov    %rdx,%rax
    ed92:	48 c1 e0 03          	shl    $0x3,%rax
    ed96:	48 29 d0             	sub    %rdx,%rax
    ed99:	48 c1 e0 02          	shl    $0x2,%rax
    ed9d:	48 69 d1 18 01 00 00 	imul   $0x118,%rcx,%rdx
    eda4:	48 01 c2             	add    %rax,%rdx
    eda7:	48 8d 05 d6 6e 00 00 	lea    0x6ed6(%rip),%rax        # 15c84 <g_1308+0x4>
    edae:	48 01 d0             	add    %rdx,%rax
    edb1:	8b 00                	mov    (%rax),%eax
    edb3:	89 c1                	mov    %eax,%ecx
    edb5:	8b 45 fc             	mov    -0x4(%rbp),%eax
    edb8:	89 c2                	mov    %eax,%edx
    edba:	48 8d 35 c9 35 00 00 	lea    0x35c9(%rip),%rsi        # 1238a <g_2793+0x12ea>
    edc1:	48 89 cf             	mov    %rcx,%rdi
    edc4:	e8 2a 99 ff ff       	callq  86f3 <transparent_crc>
    edc9:	8b 45 f4             	mov    -0xc(%rbp),%eax
    edcc:	48 63 d0             	movslq %eax,%rdx
    edcf:	8b 45 f0             	mov    -0x10(%rbp),%eax
    edd2:	48 63 c8             	movslq %eax,%rcx
    edd5:	48 89 d0             	mov    %rdx,%rax
    edd8:	48 c1 e0 03          	shl    $0x3,%rax
    eddc:	48 29 d0             	sub    %rdx,%rax
    eddf:	48 c1 e0 02          	shl    $0x2,%rax
    ede3:	48 69 d1 18 01 00 00 	imul   $0x118,%rcx,%rdx
    edea:	48 01 c2             	add    %rax,%rdx
    eded:	48 8d 05 94 6e 00 00 	lea    0x6e94(%rip),%rax        # 15c88 <g_1308+0x8>
    edf4:	48 01 d0             	add    %rdx,%rax
    edf7:	8b 00                	mov    (%rax),%eax
    edf9:	48 98                	cltq   
    edfb:	8b 55 fc             	mov    -0x4(%rbp),%edx
    edfe:	48 8d 35 95 35 00 00 	lea    0x3595(%rip),%rsi        # 1239a <g_2793+0x12fa>
    ee05:	48 89 c7             	mov    %rax,%rdi
    ee08:	e8 e6 98 ff ff       	callq  86f3 <transparent_crc>
    ee0d:	8b 45 f4             	mov    -0xc(%rbp),%eax
    ee10:	48 63 d0             	movslq %eax,%rdx
    ee13:	8b 45 f0             	mov    -0x10(%rbp),%eax
    ee16:	48 63 c8             	movslq %eax,%rcx
    ee19:	48 89 d0             	mov    %rdx,%rax
    ee1c:	48 c1 e0 03          	shl    $0x3,%rax
    ee20:	48 29 d0             	sub    %rdx,%rax
    ee23:	48 c1 e0 02          	shl    $0x2,%rax
    ee27:	48 69 d1 18 01 00 00 	imul   $0x118,%rcx,%rdx
    ee2e:	48 01 c2             	add    %rax,%rdx
    ee31:	48 8d 05 54 6e 00 00 	lea    0x6e54(%rip),%rax        # 15c8c <g_1308+0xc>
    ee38:	48 01 d0             	add    %rdx,%rax
    ee3b:	8b 00                	mov    (%rax),%eax
    ee3d:	48 98                	cltq   
    ee3f:	8b 55 fc             	mov    -0x4(%rbp),%edx
    ee42:	48 8d 35 61 35 00 00 	lea    0x3561(%rip),%rsi        # 123aa <g_2793+0x130a>
    ee49:	48 89 c7             	mov    %rax,%rdi
    ee4c:	e8 a2 98 ff ff       	callq  86f3 <transparent_crc>
    ee51:	8b 45 f4             	mov    -0xc(%rbp),%eax
    ee54:	48 63 d0             	movslq %eax,%rdx
    ee57:	8b 45 f0             	mov    -0x10(%rbp),%eax
    ee5a:	48 63 c8             	movslq %eax,%rcx
    ee5d:	48 89 d0             	mov    %rdx,%rax
    ee60:	48 c1 e0 03          	shl    $0x3,%rax
    ee64:	48 29 d0             	sub    %rdx,%rax
    ee67:	48 c1 e0 02          	shl    $0x2,%rax
    ee6b:	48 69 d1 18 01 00 00 	imul   $0x118,%rcx,%rdx
    ee72:	48 01 c2             	add    %rax,%rdx
    ee75:	48 8d 05 14 6e 00 00 	lea    0x6e14(%rip),%rax        # 15c90 <g_1308+0x10>
    ee7c:	48 01 d0             	add    %rdx,%rax
    ee7f:	8b 00                	mov    (%rax),%eax
    ee81:	48 98                	cltq   
    ee83:	8b 55 fc             	mov    -0x4(%rbp),%edx
    ee86:	48 8d 35 2d 35 00 00 	lea    0x352d(%rip),%rsi        # 123ba <g_2793+0x131a>
    ee8d:	48 89 c7             	mov    %rax,%rdi
    ee90:	e8 5e 98 ff ff       	callq  86f3 <transparent_crc>
    ee95:	8b 45 f4             	mov    -0xc(%rbp),%eax
    ee98:	48 63 d0             	movslq %eax,%rdx
    ee9b:	8b 45 f0             	mov    -0x10(%rbp),%eax
    ee9e:	48 63 c8             	movslq %eax,%rcx
    eea1:	48 89 d0             	mov    %rdx,%rax
    eea4:	48 c1 e0 03          	shl    $0x3,%rax
    eea8:	48 29 d0             	sub    %rdx,%rax
    eeab:	48 c1 e0 02          	shl    $0x2,%rax
    eeaf:	48 69 d1 18 01 00 00 	imul   $0x118,%rcx,%rdx
    eeb6:	48 01 c2             	add    %rax,%rdx
    eeb9:	48 8d 05 d4 6d 00 00 	lea    0x6dd4(%rip),%rax        # 15c94 <g_1308+0x14>
    eec0:	48 01 d0             	add    %rdx,%rax
    eec3:	8b 00                	mov    (%rax),%eax
    eec5:	48 98                	cltq   
    eec7:	8b 55 fc             	mov    -0x4(%rbp),%edx
    eeca:	48 8d 35 f9 34 00 00 	lea    0x34f9(%rip),%rsi        # 123ca <g_2793+0x132a>
    eed1:	48 89 c7             	mov    %rax,%rdi
    eed4:	e8 1a 98 ff ff       	callq  86f3 <transparent_crc>
    eed9:	8b 45 f4             	mov    -0xc(%rbp),%eax
    eedc:	48 63 d0             	movslq %eax,%rdx
    eedf:	8b 45 f0             	mov    -0x10(%rbp),%eax
    eee2:	48 63 c8             	movslq %eax,%rcx
    eee5:	48 89 d0             	mov    %rdx,%rax
    eee8:	48 c1 e0 03          	shl    $0x3,%rax
    eeec:	48 29 d0             	sub    %rdx,%rax
    eeef:	48 c1 e0 02          	shl    $0x2,%rax
    eef3:	48 69 d1 18 01 00 00 	imul   $0x118,%rcx,%rdx
    eefa:	48 01 c2             	add    %rax,%rdx
    eefd:	48 8d 05 94 6d 00 00 	lea    0x6d94(%rip),%rax        # 15c98 <g_1308+0x18>
    ef04:	48 01 d0             	add    %rdx,%rax
    ef07:	8b 00                	mov    (%rax),%eax
    ef09:	89 c1                	mov    %eax,%ecx
    ef0b:	8b 45 fc             	mov    -0x4(%rbp),%eax
    ef0e:	89 c2                	mov    %eax,%edx
    ef10:	48 8d 35 c3 34 00 00 	lea    0x34c3(%rip),%rsi        # 123da <g_2793+0x133a>
    ef17:	48 89 cf             	mov    %rcx,%rdi
    ef1a:	e8 d4 97 ff ff       	callq  86f3 <transparent_crc>
    ef1f:	83 7d fc 00          	cmpl   $0x0,-0x4(%rbp)
    ef23:	74 19                	je     ef3e <main+0x190e>
    ef25:	8b 55 f4             	mov    -0xc(%rbp),%edx
    ef28:	8b 45 f0             	mov    -0x10(%rbp),%eax
    ef2b:	89 c6                	mov    %eax,%esi
    ef2d:	48 8d 3d 7f 2f 00 00 	lea    0x2f7f(%rip),%rdi        # 11eb3 <g_2793+0xe13>
    ef34:	b8 00 00 00 00       	mov    $0x0,%eax
    ef39:	e8 42 81 ff ff       	callq  7080 <printf@plt>
    ef3e:	83 45 f4 01          	addl   $0x1,-0xc(%rbp)
    ef42:	83 7d f4 09          	cmpl   $0x9,-0xc(%rbp)
    ef46:	0f 8e ed fd ff ff    	jle    ed39 <main+0x1709>
    ef4c:	83 45 f0 01          	addl   $0x1,-0x10(%rbp)
    ef50:	83 7d f0 04          	cmpl   $0x4,-0x10(%rbp)
    ef54:	0f 8e d3 fd ff ff    	jle    ed2d <main+0x16fd>
    ef5a:	8b 05 a0 72 00 00    	mov    0x72a0(%rip),%eax        # 16200 <g_1310>
    ef60:	c1 e0 04             	shl    $0x4,%eax
    ef63:	c1 f8 04             	sar    $0x4,%eax
    ef66:	48 98                	cltq   
    ef68:	8b 55 fc             	mov    -0x4(%rbp),%edx
    ef6b:	48 8d 35 78 34 00 00 	lea    0x3478(%rip),%rsi        # 123ea <g_2793+0x134a>
    ef72:	48 89 c7             	mov    %rax,%rdi
    ef75:	e8 79 97 ff ff       	callq  86f3 <transparent_crc>
    ef7a:	8b 05 84 72 00 00    	mov    0x7284(%rip),%eax        # 16204 <g_1310+0x4>
    ef80:	89 c1                	mov    %eax,%ecx
    ef82:	8b 45 fc             	mov    -0x4(%rbp),%eax
    ef85:	89 c2                	mov    %eax,%edx
    ef87:	48 8d 35 66 34 00 00 	lea    0x3466(%rip),%rsi        # 123f4 <g_2793+0x1354>
    ef8e:	48 89 cf             	mov    %rcx,%rdi
    ef91:	e8 5d 97 ff ff       	callq  86f3 <transparent_crc>
    ef96:	8b 05 6c 72 00 00    	mov    0x726c(%rip),%eax        # 16208 <g_1310+0x8>
    ef9c:	48 98                	cltq   
    ef9e:	8b 55 fc             	mov    -0x4(%rbp),%edx
    efa1:	48 8d 35 56 34 00 00 	lea    0x3456(%rip),%rsi        # 123fe <g_2793+0x135e>
    efa8:	48 89 c7             	mov    %rax,%rdi
    efab:	e8 43 97 ff ff       	callq  86f3 <transparent_crc>
    efb0:	8b 05 56 72 00 00    	mov    0x7256(%rip),%eax        # 1620c <g_1310+0xc>
    efb6:	48 98                	cltq   
    efb8:	8b 55 fc             	mov    -0x4(%rbp),%edx
    efbb:	48 8d 35 46 34 00 00 	lea    0x3446(%rip),%rsi        # 12408 <g_2793+0x1368>
    efc2:	48 89 c7             	mov    %rax,%rdi
    efc5:	e8 29 97 ff ff       	callq  86f3 <transparent_crc>
    efca:	8b 05 40 72 00 00    	mov    0x7240(%rip),%eax        # 16210 <g_1310+0x10>
    efd0:	48 98                	cltq   
    efd2:	8b 55 fc             	mov    -0x4(%rbp),%edx
    efd5:	48 8d 35 36 34 00 00 	lea    0x3436(%rip),%rsi        # 12412 <g_2793+0x1372>
    efdc:	48 89 c7             	mov    %rax,%rdi
    efdf:	e8 0f 97 ff ff       	callq  86f3 <transparent_crc>
    efe4:	8b 05 2a 72 00 00    	mov    0x722a(%rip),%eax        # 16214 <g_1310+0x14>
    efea:	48 98                	cltq   
    efec:	8b 55 fc             	mov    -0x4(%rbp),%edx
    efef:	48 8d 35 26 34 00 00 	lea    0x3426(%rip),%rsi        # 1241c <g_2793+0x137c>
    eff6:	48 89 c7             	mov    %rax,%rdi
    eff9:	e8 f5 96 ff ff       	callq  86f3 <transparent_crc>
    effe:	8b 05 14 72 00 00    	mov    0x7214(%rip),%eax        # 16218 <g_1310+0x18>
    f004:	89 c1                	mov    %eax,%ecx
    f006:	8b 45 fc             	mov    -0x4(%rbp),%eax
    f009:	89 c2                	mov    %eax,%edx
    f00b:	48 8d 35 14 34 00 00 	lea    0x3414(%rip),%rsi        # 12426 <g_2793+0x1386>
    f012:	48 89 cf             	mov    %rcx,%rdi
    f015:	e8 d9 96 ff ff       	callq  86f3 <transparent_crc>
    f01a:	48 8b 05 ff 71 00 00 	mov    0x71ff(%rip),%rax        # 16220 <g_1387>
    f021:	8b 55 fc             	mov    -0x4(%rbp),%edx
    f024:	48 8d 35 05 34 00 00 	lea    0x3405(%rip),%rsi        # 12430 <g_2793+0x1390>
    f02b:	48 89 c7             	mov    %rax,%rdi
    f02e:	e8 c0 96 ff ff       	callq  86f3 <transparent_crc>
    f033:	0f b6 05 ee 71 00 00 	movzbl 0x71ee(%rip),%eax        # 16228 <g_1444>
    f03a:	48 0f be c0          	movsbq %al,%rax
    f03e:	8b 55 fc             	mov    -0x4(%rbp),%edx
    f041:	48 8d 35 ef 33 00 00 	lea    0x33ef(%rip),%rsi        # 12437 <g_2793+0x1397>
    f048:	48 89 c7             	mov    %rax,%rdi
    f04b:	e8 a3 96 ff ff       	callq  86f3 <transparent_crc>
    f050:	0f b6 05 d2 71 00 00 	movzbl 0x71d2(%rip),%eax        # 16229 <g_1534>
    f057:	0f b6 c0             	movzbl %al,%eax
    f05a:	8b 55 fc             	mov    -0x4(%rbp),%edx
    f05d:	48 8d 35 da 33 00 00 	lea    0x33da(%rip),%rsi        # 1243e <g_2793+0x139e>
    f064:	48 89 c7             	mov    %rax,%rdi
    f067:	e8 87 96 ff ff       	callq  86f3 <transparent_crc>
    f06c:	c7 45 f0 00 00 00 00 	movl   $0x0,-0x10(%rbp)
    f073:	e9 8d 00 00 00       	jmpq   f105 <main+0x1ad5>
    f078:	c7 45 f4 00 00 00 00 	movl   $0x0,-0xc(%rbp)
    f07f:	eb 7a                	jmp    f0fb <main+0x1acb>
    f081:	c7 45 f8 00 00 00 00 	movl   $0x0,-0x8(%rbp)
    f088:	eb 67                	jmp    f0f1 <main+0x1ac1>
    f08a:	8b 45 f8             	mov    -0x8(%rbp),%eax
    f08d:	48 98                	cltq   
    f08f:	8b 55 f0             	mov    -0x10(%rbp),%edx
    f092:	48 63 ca             	movslq %edx,%rcx
    f095:	8b 55 f4             	mov    -0xc(%rbp),%edx
    f098:	48 63 d2             	movslq %edx,%rdx
    f09b:	48 c1 e1 02          	shl    $0x2,%rcx
    f09f:	48 01 ca             	add    %rcx,%rdx
    f0a2:	48 c1 e2 03          	shl    $0x3,%rdx
    f0a6:	48 01 c2             	add    %rax,%rdx
    f0a9:	48 8d 05 90 71 00 00 	lea    0x7190(%rip),%rax        # 16240 <g_1537>
    f0b0:	48 01 d0             	add    %rdx,%rax
    f0b3:	0f b6 00             	movzbl (%rax),%eax
    f0b6:	0f b6 c0             	movzbl %al,%eax
    f0b9:	8b 55 fc             	mov    -0x4(%rbp),%edx
    f0bc:	48 8d 35 82 33 00 00 	lea    0x3382(%rip),%rsi        # 12445 <g_2793+0x13a5>
    f0c3:	48 89 c7             	mov    %rax,%rdi
    f0c6:	e8 28 96 ff ff       	callq  86f3 <transparent_crc>
    f0cb:	83 7d fc 00          	cmpl   $0x0,-0x4(%rbp)
    f0cf:	74 1c                	je     f0ed <main+0x1abd>
    f0d1:	8b 4d f8             	mov    -0x8(%rbp),%ecx
    f0d4:	8b 55 f4             	mov    -0xc(%rbp),%edx
    f0d7:	8b 45 f0             	mov    -0x10(%rbp),%eax
    f0da:	89 c6                	mov    %eax,%esi
    f0dc:	48 8d 3d 01 2d 00 00 	lea    0x2d01(%rip),%rdi        # 11de4 <g_2793+0xd44>
    f0e3:	b8 00 00 00 00       	mov    $0x0,%eax
    f0e8:	e8 93 7f ff ff       	callq  7080 <printf@plt>
    f0ed:	83 45 f8 01          	addl   $0x1,-0x8(%rbp)
    f0f1:	83 7d f8 07          	cmpl   $0x7,-0x8(%rbp)
    f0f5:	7e 93                	jle    f08a <main+0x1a5a>
    f0f7:	83 45 f4 01          	addl   $0x1,-0xc(%rbp)
    f0fb:	83 7d f4 03          	cmpl   $0x3,-0xc(%rbp)
    f0ff:	7e 80                	jle    f081 <main+0x1a51>
    f101:	83 45 f0 01          	addl   $0x1,-0x10(%rbp)
    f105:	83 7d f0 07          	cmpl   $0x7,-0x10(%rbp)
    f109:	0f 8e 69 ff ff ff    	jle    f078 <main+0x1a48>
    f10f:	8b 05 2b 72 00 00    	mov    0x722b(%rip),%eax        # 16340 <g_1578>
    f115:	c1 e0 04             	shl    $0x4,%eax
    f118:	c1 f8 04             	sar    $0x4,%eax
    f11b:	48 98                	cltq   
    f11d:	8b 55 fc             	mov    -0x4(%rbp),%edx
    f120:	48 8d 35 2e 33 00 00 	lea    0x332e(%rip),%rsi        # 12455 <g_2793+0x13b5>
    f127:	48 89 c7             	mov    %rax,%rdi
    f12a:	e8 c4 95 ff ff       	callq  86f3 <transparent_crc>
    f12f:	8b 05 0f 72 00 00    	mov    0x720f(%rip),%eax        # 16344 <g_1578+0x4>
    f135:	89 c1                	mov    %eax,%ecx
    f137:	8b 45 fc             	mov    -0x4(%rbp),%eax
    f13a:	89 c2                	mov    %eax,%edx
    f13c:	48 8d 35 1c 33 00 00 	lea    0x331c(%rip),%rsi        # 1245f <g_2793+0x13bf>
    f143:	48 89 cf             	mov    %rcx,%rdi
    f146:	e8 a8 95 ff ff       	callq  86f3 <transparent_crc>
    f14b:	8b 05 f7 71 00 00    	mov    0x71f7(%rip),%eax        # 16348 <g_1578+0x8>
    f151:	48 98                	cltq   
    f153:	8b 55 fc             	mov    -0x4(%rbp),%edx
    f156:	48 8d 35 0c 33 00 00 	lea    0x330c(%rip),%rsi        # 12469 <g_2793+0x13c9>
    f15d:	48 89 c7             	mov    %rax,%rdi
    f160:	e8 8e 95 ff ff       	callq  86f3 <transparent_crc>
    f165:	8b 05 e1 71 00 00    	mov    0x71e1(%rip),%eax        # 1634c <g_1578+0xc>
    f16b:	48 98                	cltq   
    f16d:	8b 55 fc             	mov    -0x4(%rbp),%edx
    f170:	48 8d 35 fc 32 00 00 	lea    0x32fc(%rip),%rsi        # 12473 <g_2793+0x13d3>
    f177:	48 89 c7             	mov    %rax,%rdi
    f17a:	e8 74 95 ff ff       	callq  86f3 <transparent_crc>
    f17f:	8b 05 cb 71 00 00    	mov    0x71cb(%rip),%eax        # 16350 <g_1578+0x10>
    f185:	48 98                	cltq   
    f187:	8b 55 fc             	mov    -0x4(%rbp),%edx
    f18a:	48 8d 35 ec 32 00 00 	lea    0x32ec(%rip),%rsi        # 1247d <g_2793+0x13dd>
    f191:	48 89 c7             	mov    %rax,%rdi
    f194:	e8 5a 95 ff ff       	callq  86f3 <transparent_crc>
    f199:	8b 05 b5 71 00 00    	mov    0x71b5(%rip),%eax        # 16354 <g_1578+0x14>
    f19f:	48 98                	cltq   
    f1a1:	8b 55 fc             	mov    -0x4(%rbp),%edx
    f1a4:	48 8d 35 dc 32 00 00 	lea    0x32dc(%rip),%rsi        # 12487 <g_2793+0x13e7>
    f1ab:	48 89 c7             	mov    %rax,%rdi
    f1ae:	e8 40 95 ff ff       	callq  86f3 <transparent_crc>
    f1b3:	8b 05 9f 71 00 00    	mov    0x719f(%rip),%eax        # 16358 <g_1578+0x18>
    f1b9:	89 c1                	mov    %eax,%ecx
    f1bb:	8b 45 fc             	mov    -0x4(%rbp),%eax
    f1be:	89 c2                	mov    %eax,%edx
    f1c0:	48 8d 35 ca 32 00 00 	lea    0x32ca(%rip),%rsi        # 12491 <g_2793+0x13f1>
    f1c7:	48 89 cf             	mov    %rcx,%rdi
    f1ca:	e8 24 95 ff ff       	callq  86f3 <transparent_crc>
    f1cf:	48 8b 05 8a 71 00 00 	mov    0x718a(%rip),%rax        # 16360 <g_1596>
    f1d6:	25 ff ff ff 07       	and    $0x7ffffff,%eax
    f1db:	89 c1                	mov    %eax,%ecx
    f1dd:	8b 45 fc             	mov    -0x4(%rbp),%eax
    f1e0:	89 c2                	mov    %eax,%edx
    f1e2:	48 8d 35 b2 32 00 00 	lea    0x32b2(%rip),%rsi        # 1249b <g_2793+0x13fb>
    f1e9:	48 89 cf             	mov    %rcx,%rdi
    f1ec:	e8 02 95 ff ff       	callq  86f3 <transparent_crc>
    f1f1:	48 8b 05 68 71 00 00 	mov    0x7168(%rip),%rax        # 16360 <g_1596>
    f1f8:	48 c1 e8 20          	shr    $0x20,%rax
    f1fc:	25 ff ff ff 7f       	and    $0x7fffffff,%eax
    f201:	89 c1                	mov    %eax,%ecx
    f203:	8b 45 fc             	mov    -0x4(%rbp),%eax
    f206:	89 c2                	mov    %eax,%edx
    f208:	48 8d 35 96 32 00 00 	lea    0x3296(%rip),%rsi        # 124a5 <g_2793+0x1405>
    f20f:	48 89 cf             	mov    %rcx,%rdi
    f212:	e8 dc 94 ff ff       	callq  86f3 <transparent_crc>
    f217:	8b 05 4b 71 00 00    	mov    0x714b(%rip),%eax        # 16368 <g_1596+0x8>
    f21d:	48 98                	cltq   
    f21f:	8b 55 fc             	mov    -0x4(%rbp),%edx
    f222:	48 8d 35 86 32 00 00 	lea    0x3286(%rip),%rsi        # 124af <g_2793+0x140f>
    f229:	48 89 c7             	mov    %rax,%rdi
    f22c:	e8 c2 94 ff ff       	callq  86f3 <transparent_crc>
    f231:	0f b6 05 34 71 00 00 	movzbl 0x7134(%rip),%eax        # 1636c <g_1596+0xc>
    f238:	0f b6 c0             	movzbl %al,%eax
    f23b:	8b 55 fc             	mov    -0x4(%rbp),%edx
    f23e:	48 8d 35 74 32 00 00 	lea    0x3274(%rip),%rsi        # 124b9 <g_2793+0x1419>
    f245:	48 89 c7             	mov    %rax,%rdi
    f248:	e8 a6 94 ff ff       	callq  86f3 <transparent_crc>
    f24d:	48 8b 05 14 71 00 00 	mov    0x7114(%rip),%rax        # 16368 <g_1596+0x8>
    f254:	48 c1 e8 28          	shr    $0x28,%rax
    f258:	83 e0 1f             	and    $0x1f,%eax
    f25b:	0f b6 c0             	movzbl %al,%eax
    f25e:	8b 55 fc             	mov    -0x4(%rbp),%edx
    f261:	48 8d 35 5b 32 00 00 	lea    0x325b(%rip),%rsi        # 124c3 <g_2793+0x1423>
    f268:	48 89 c7             	mov    %rax,%rdi
    f26b:	e8 83 94 ff ff       	callq  86f3 <transparent_crc>
    f270:	48 8b 05 f9 70 00 00 	mov    0x70f9(%rip),%rax        # 16370 <g_1596+0x10>
    f277:	25 ff ff ff 00       	and    $0xffffff,%eax
    f27c:	89 c1                	mov    %eax,%ecx
    f27e:	8b 45 fc             	mov    -0x4(%rbp),%eax
    f281:	89 c2                	mov    %eax,%edx
    f283:	48 8d 35 43 32 00 00 	lea    0x3243(%rip),%rsi        # 124cd <g_2793+0x142d>
    f28a:	48 89 cf             	mov    %rcx,%rdi
    f28d:	e8 61 94 ff ff       	callq  86f3 <transparent_crc>
    f292:	48 8b 05 e7 70 00 00 	mov    0x70e7(%rip),%rax        # 16380 <g_1625>
    f299:	c1 e0 04             	shl    $0x4,%eax
    f29c:	c1 f8 04             	sar    $0x4,%eax
    f29f:	48 98                	cltq   
    f2a1:	8b 55 fc             	mov    -0x4(%rbp),%edx
    f2a4:	48 8d 35 2c 32 00 00 	lea    0x322c(%rip),%rsi        # 124d7 <g_2793+0x1437>
    f2ab:	48 89 c7             	mov    %rax,%rdi
    f2ae:	e8 40 94 ff ff       	callq  86f3 <transparent_crc>
    f2b3:	8b 05 cb 70 00 00    	mov    0x70cb(%rip),%eax        # 16384 <g_1625+0x4>
    f2b9:	89 c1                	mov    %eax,%ecx
    f2bb:	8b 45 fc             	mov    -0x4(%rbp),%eax
    f2be:	89 c2                	mov    %eax,%edx
    f2c0:	48 8d 35 1a 32 00 00 	lea    0x321a(%rip),%rsi        # 124e1 <g_2793+0x1441>
    f2c7:	48 89 cf             	mov    %rcx,%rdi
    f2ca:	e8 24 94 ff ff       	callq  86f3 <transparent_crc>
    f2cf:	8b 05 b3 70 00 00    	mov    0x70b3(%rip),%eax        # 16388 <g_1625+0x8>
    f2d5:	48 98                	cltq   
    f2d7:	8b 55 fc             	mov    -0x4(%rbp),%edx
    f2da:	48 8d 35 0a 32 00 00 	lea    0x320a(%rip),%rsi        # 124eb <g_2793+0x144b>
    f2e1:	48 89 c7             	mov    %rax,%rdi
    f2e4:	e8 0a 94 ff ff       	callq  86f3 <transparent_crc>
    f2e9:	8b 05 9d 70 00 00    	mov    0x709d(%rip),%eax        # 1638c <g_1625+0xc>
    f2ef:	48 98                	cltq   
    f2f1:	8b 55 fc             	mov    -0x4(%rbp),%edx
    f2f4:	48 8d 35 fa 31 00 00 	lea    0x31fa(%rip),%rsi        # 124f5 <g_2793+0x1455>
    f2fb:	48 89 c7             	mov    %rax,%rdi
    f2fe:	e8 f0 93 ff ff       	callq  86f3 <transparent_crc>
    f303:	8b 05 87 70 00 00    	mov    0x7087(%rip),%eax        # 16390 <g_1625+0x10>
    f309:	48 98                	cltq   
    f30b:	8b 55 fc             	mov    -0x4(%rbp),%edx
    f30e:	48 8d 35 ea 31 00 00 	lea    0x31ea(%rip),%rsi        # 124ff <g_2793+0x145f>
    f315:	48 89 c7             	mov    %rax,%rdi
    f318:	e8 d6 93 ff ff       	callq  86f3 <transparent_crc>
    f31d:	8b 05 71 70 00 00    	mov    0x7071(%rip),%eax        # 16394 <g_1625+0x14>
    f323:	48 98                	cltq   
    f325:	8b 55 fc             	mov    -0x4(%rbp),%edx
    f328:	48 8d 35 da 31 00 00 	lea    0x31da(%rip),%rsi        # 12509 <g_2793+0x1469>
    f32f:	48 89 c7             	mov    %rax,%rdi
    f332:	e8 bc 93 ff ff       	callq  86f3 <transparent_crc>
    f337:	8b 05 5b 70 00 00    	mov    0x705b(%rip),%eax        # 16398 <g_1625+0x18>
    f33d:	89 c1                	mov    %eax,%ecx
    f33f:	8b 45 fc             	mov    -0x4(%rbp),%eax
    f342:	89 c2                	mov    %eax,%edx
    f344:	48 8d 35 c8 31 00 00 	lea    0x31c8(%rip),%rsi        # 12513 <g_2793+0x1473>
    f34b:	48 89 cf             	mov    %rcx,%rdi
    f34e:	e8 a0 93 ff ff       	callq  86f3 <transparent_crc>
    f353:	48 8b 05 46 70 00 00 	mov    0x7046(%rip),%rax        # 163a0 <g_1630>
    f35a:	25 ff ff ff 07       	and    $0x7ffffff,%eax
    f35f:	89 c1                	mov    %eax,%ecx
    f361:	8b 45 fc             	mov    -0x4(%rbp),%eax
    f364:	89 c2                	mov    %eax,%edx
    f366:	48 8d 35 b0 31 00 00 	lea    0x31b0(%rip),%rsi        # 1251d <g_2793+0x147d>
    f36d:	48 89 cf             	mov    %rcx,%rdi
    f370:	e8 7e 93 ff ff       	callq  86f3 <transparent_crc>
    f375:	48 8b 05 24 70 00 00 	mov    0x7024(%rip),%rax        # 163a0 <g_1630>
    f37c:	48 c1 e8 20          	shr    $0x20,%rax
    f380:	25 ff ff ff 7f       	and    $0x7fffffff,%eax
    f385:	89 c1                	mov    %eax,%ecx
    f387:	8b 45 fc             	mov    -0x4(%rbp),%eax
    f38a:	89 c2                	mov    %eax,%edx
    f38c:	48 8d 35 94 31 00 00 	lea    0x3194(%rip),%rsi        # 12527 <g_2793+0x1487>
    f393:	48 89 cf             	mov    %rcx,%rdi
    f396:	e8 58 93 ff ff       	callq  86f3 <transparent_crc>
    f39b:	8b 05 07 70 00 00    	mov    0x7007(%rip),%eax        # 163a8 <g_1630+0x8>
    f3a1:	48 98                	cltq   
    f3a3:	8b 55 fc             	mov    -0x4(%rbp),%edx
    f3a6:	48 8d 35 84 31 00 00 	lea    0x3184(%rip),%rsi        # 12531 <g_2793+0x1491>
    f3ad:	48 89 c7             	mov    %rax,%rdi
    f3b0:	e8 3e 93 ff ff       	callq  86f3 <transparent_crc>
    f3b5:	0f b6 05 f0 6f 00 00 	movzbl 0x6ff0(%rip),%eax        # 163ac <g_1630+0xc>
    f3bc:	0f b6 c0             	movzbl %al,%eax
    f3bf:	8b 55 fc             	mov    -0x4(%rbp),%edx
    f3c2:	48 8d 35 72 31 00 00 	lea    0x3172(%rip),%rsi        # 1253b <g_2793+0x149b>
    f3c9:	48 89 c7             	mov    %rax,%rdi
    f3cc:	e8 22 93 ff ff       	callq  86f3 <transparent_crc>
    f3d1:	48 8b 05 d0 6f 00 00 	mov    0x6fd0(%rip),%rax        # 163a8 <g_1630+0x8>
    f3d8:	48 c1 e8 28          	shr    $0x28,%rax
    f3dc:	83 e0 1f             	and    $0x1f,%eax
    f3df:	0f b6 c0             	movzbl %al,%eax
    f3e2:	8b 55 fc             	mov    -0x4(%rbp),%edx
    f3e5:	48 8d 35 59 31 00 00 	lea    0x3159(%rip),%rsi        # 12545 <g_2793+0x14a5>
    f3ec:	48 89 c7             	mov    %rax,%rdi
    f3ef:	e8 ff 92 ff ff       	callq  86f3 <transparent_crc>
    f3f4:	48 8b 05 b5 6f 00 00 	mov    0x6fb5(%rip),%rax        # 163b0 <g_1630+0x10>
    f3fb:	25 ff ff ff 00       	and    $0xffffff,%eax
    f400:	89 c1                	mov    %eax,%ecx
    f402:	8b 45 fc             	mov    -0x4(%rbp),%eax
    f405:	89 c2                	mov    %eax,%edx
    f407:	48 8d 35 41 31 00 00 	lea    0x3141(%rip),%rsi        # 1254f <g_2793+0x14af>
    f40e:	48 89 cf             	mov    %rcx,%rdi
    f411:	e8 dd 92 ff ff       	callq  86f3 <transparent_crc>
    f416:	48 8b 05 9b 6f 00 00 	mov    0x6f9b(%rip),%rax        # 163b8 <g_1676>
    f41d:	48 89 c1             	mov    %rax,%rcx
    f420:	8b 45 fc             	mov    -0x4(%rbp),%eax
    f423:	89 c2                	mov    %eax,%edx
    f425:	48 8d 35 2d 31 00 00 	lea    0x312d(%rip),%rsi        # 12559 <g_2793+0x14b9>
    f42c:	48 89 cf             	mov    %rcx,%rdi
    f42f:	e8 bf 92 ff ff       	callq  86f3 <transparent_crc>
    f434:	0f b6 05 85 6f 00 00 	movzbl 0x6f85(%rip),%eax        # 163c0 <g_1677>
    f43b:	0f b6 c0             	movzbl %al,%eax
    f43e:	8b 55 fc             	mov    -0x4(%rbp),%edx
    f441:	48 8d 35 18 31 00 00 	lea    0x3118(%rip),%rsi        # 12560 <g_2793+0x14c0>
    f448:	48 89 c7             	mov    %rax,%rdi
    f44b:	e8 a3 92 ff ff       	callq  86f3 <transparent_crc>
    f450:	c7 45 f0 00 00 00 00 	movl   $0x0,-0x10(%rbp)
    f457:	e9 9d 01 00 00       	jmpq   f5f9 <main+0x1fc9>
    f45c:	8b 45 f0             	mov    -0x10(%rbp),%eax
    f45f:	48 63 d0             	movslq %eax,%rdx
    f462:	48 89 d0             	mov    %rdx,%rax
    f465:	48 c1 e0 03          	shl    $0x3,%rax
    f469:	48 29 d0             	sub    %rdx,%rax
    f46c:	48 c1 e0 02          	shl    $0x2,%rax
    f470:	48 89 c2             	mov    %rax,%rdx
    f473:	48 8d 05 66 6f 00 00 	lea    0x6f66(%rip),%rax        # 163e0 <g_1753>
    f47a:	8b 04 02             	mov    (%rdx,%rax,1),%eax
    f47d:	c1 e0 04             	shl    $0x4,%eax
    f480:	c1 f8 04             	sar    $0x4,%eax
    f483:	48 98                	cltq   
    f485:	8b 55 fc             	mov    -0x4(%rbp),%edx
    f488:	48 8d 35 d8 30 00 00 	lea    0x30d8(%rip),%rsi        # 12567 <g_2793+0x14c7>
    f48f:	48 89 c7             	mov    %rax,%rdi
    f492:	e8 5c 92 ff ff       	callq  86f3 <transparent_crc>
    f497:	8b 45 f0             	mov    -0x10(%rbp),%eax
    f49a:	48 63 d0             	movslq %eax,%rdx
    f49d:	48 89 d0             	mov    %rdx,%rax
    f4a0:	48 c1 e0 03          	shl    $0x3,%rax
    f4a4:	48 29 d0             	sub    %rdx,%rax
    f4a7:	48 c1 e0 02          	shl    $0x2,%rax
    f4ab:	48 89 c2             	mov    %rax,%rdx
    f4ae:	48 8d 05 2f 6f 00 00 	lea    0x6f2f(%rip),%rax        # 163e4 <g_1753+0x4>
    f4b5:	8b 04 02             	mov    (%rdx,%rax,1),%eax
    f4b8:	89 c1                	mov    %eax,%ecx
    f4ba:	8b 45 fc             	mov    -0x4(%rbp),%eax
    f4bd:	89 c2                	mov    %eax,%edx
    f4bf:	48 8d 35 ae 30 00 00 	lea    0x30ae(%rip),%rsi        # 12574 <g_2793+0x14d4>
    f4c6:	48 89 cf             	mov    %rcx,%rdi
    f4c9:	e8 25 92 ff ff       	callq  86f3 <transparent_crc>
    f4ce:	8b 45 f0             	mov    -0x10(%rbp),%eax
    f4d1:	48 63 d0             	movslq %eax,%rdx
    f4d4:	48 89 d0             	mov    %rdx,%rax
    f4d7:	48 c1 e0 03          	shl    $0x3,%rax
    f4db:	48 29 d0             	sub    %rdx,%rax
    f4de:	48 c1 e0 02          	shl    $0x2,%rax
    f4e2:	48 89 c2             	mov    %rax,%rdx
    f4e5:	48 8d 05 fc 6e 00 00 	lea    0x6efc(%rip),%rax        # 163e8 <g_1753+0x8>
    f4ec:	8b 04 02             	mov    (%rdx,%rax,1),%eax
    f4ef:	48 98                	cltq   
    f4f1:	8b 55 fc             	mov    -0x4(%rbp),%edx
    f4f4:	48 8d 35 86 30 00 00 	lea    0x3086(%rip),%rsi        # 12581 <g_2793+0x14e1>
    f4fb:	48 89 c7             	mov    %rax,%rdi
    f4fe:	e8 f0 91 ff ff       	callq  86f3 <transparent_crc>
    f503:	8b 45 f0             	mov    -0x10(%rbp),%eax
    f506:	48 63 d0             	movslq %eax,%rdx
    f509:	48 89 d0             	mov    %rdx,%rax
    f50c:	48 c1 e0 03          	shl    $0x3,%rax
    f510:	48 29 d0             	sub    %rdx,%rax
    f513:	48 c1 e0 02          	shl    $0x2,%rax
    f517:	48 89 c2             	mov    %rax,%rdx
    f51a:	48 8d 05 cb 6e 00 00 	lea    0x6ecb(%rip),%rax        # 163ec <g_1753+0xc>
    f521:	8b 04 02             	mov    (%rdx,%rax,1),%eax
    f524:	48 98                	cltq   
    f526:	8b 55 fc             	mov    -0x4(%rbp),%edx
    f529:	48 8d 35 5e 30 00 00 	lea    0x305e(%rip),%rsi        # 1258e <g_2793+0x14ee>
    f530:	48 89 c7             	mov    %rax,%rdi
    f533:	e8 bb 91 ff ff       	callq  86f3 <transparent_crc>
    f538:	8b 45 f0             	mov    -0x10(%rbp),%eax
    f53b:	48 63 d0             	movslq %eax,%rdx
    f53e:	48 89 d0             	mov    %rdx,%rax
    f541:	48 c1 e0 03          	shl    $0x3,%rax
    f545:	48 29 d0             	sub    %rdx,%rax
    f548:	48 c1 e0 02          	shl    $0x2,%rax
    f54c:	48 89 c2             	mov    %rax,%rdx
    f54f:	48 8d 05 9a 6e 00 00 	lea    0x6e9a(%rip),%rax        # 163f0 <g_1753+0x10>
    f556:	8b 04 02             	mov    (%rdx,%rax,1),%eax
    f559:	48 98                	cltq   
    f55b:	8b 55 fc             	mov    -0x4(%rbp),%edx
    f55e:	48 8d 35 36 30 00 00 	lea    0x3036(%rip),%rsi        # 1259b <g_2793+0x14fb>
    f565:	48 89 c7             	mov    %rax,%rdi
    f568:	e8 86 91 ff ff       	callq  86f3 <transparent_crc>
    f56d:	8b 45 f0             	mov    -0x10(%rbp),%eax
    f570:	48 63 d0             	movslq %eax,%rdx
    f573:	48 89 d0             	mov    %rdx,%rax
    f576:	48 c1 e0 03          	shl    $0x3,%rax
    f57a:	48 29 d0             	sub    %rdx,%rax
    f57d:	48 c1 e0 02          	shl    $0x2,%rax
    f581:	48 89 c2             	mov    %rax,%rdx
    f584:	48 8d 05 69 6e 00 00 	lea    0x6e69(%rip),%rax        # 163f4 <g_1753+0x14>
    f58b:	8b 04 02             	mov    (%rdx,%rax,1),%eax
    f58e:	48 98                	cltq   
    f590:	8b 55 fc             	mov    -0x4(%rbp),%edx
    f593:	48 8d 35 0e 30 00 00 	lea    0x300e(%rip),%rsi        # 125a8 <g_2793+0x1508>
    f59a:	48 89 c7             	mov    %rax,%rdi
    f59d:	e8 51 91 ff ff       	callq  86f3 <transparent_crc>
    f5a2:	8b 45 f0             	mov    -0x10(%rbp),%eax
    f5a5:	48 63 d0             	movslq %eax,%rdx
    f5a8:	48 89 d0             	mov    %rdx,%rax
    f5ab:	48 c1 e0 03          	shl    $0x3,%rax
    f5af:	48 29 d0             	sub    %rdx,%rax
    f5b2:	48 c1 e0 02          	shl    $0x2,%rax
    f5b6:	48 89 c2             	mov    %rax,%rdx
    f5b9:	48 8d 05 38 6e 00 00 	lea    0x6e38(%rip),%rax        # 163f8 <g_1753+0x18>
    f5c0:	8b 04 02             	mov    (%rdx,%rax,1),%eax
    f5c3:	89 c1                	mov    %eax,%ecx
    f5c5:	8b 45 fc             	mov    -0x4(%rbp),%eax
    f5c8:	89 c2                	mov    %eax,%edx
    f5ca:	48 8d 35 e4 2f 00 00 	lea    0x2fe4(%rip),%rsi        # 125b5 <g_2793+0x1515>
    f5d1:	48 89 cf             	mov    %rcx,%rdi
    f5d4:	e8 1a 91 ff ff       	callq  86f3 <transparent_crc>
    f5d9:	83 7d fc 00          	cmpl   $0x0,-0x4(%rbp)
    f5dd:	74 16                	je     f5f5 <main+0x1fc5>
    f5df:	8b 45 f0             	mov    -0x10(%rbp),%eax
    f5e2:	89 c6                	mov    %eax,%esi
    f5e4:	48 8d 3d 56 28 00 00 	lea    0x2856(%rip),%rdi        # 11e41 <g_2793+0xda1>
    f5eb:	b8 00 00 00 00       	mov    $0x0,%eax
    f5f0:	e8 8b 7a ff ff       	callq  7080 <printf@plt>
    f5f5:	83 45 f0 01          	addl   $0x1,-0x10(%rbp)
    f5f9:	83 7d f0 02          	cmpl   $0x2,-0x10(%rbp)
    f5fd:	0f 8e 59 fe ff ff    	jle    f45c <main+0x1e2c>
    f603:	c7 45 f0 00 00 00 00 	movl   $0x0,-0x10(%rbp)
    f60a:	e9 7e 01 00 00       	jmpq   f78d <main+0x215d>
    f60f:	8b 45 f0             	mov    -0x10(%rbp),%eax
    f612:	48 63 d0             	movslq %eax,%rdx
    f615:	48 89 d0             	mov    %rdx,%rax
    f618:	48 c1 e0 02          	shl    $0x2,%rax
    f61c:	48 01 d0             	add    %rdx,%rax
    f61f:	48 c1 e0 02          	shl    $0x2,%rax
    f623:	48 89 c2             	mov    %rax,%rdx
    f626:	48 8d 05 13 6e 00 00 	lea    0x6e13(%rip),%rax        # 16440 <g_1931>
    f62d:	8b 04 02             	mov    (%rdx,%rax,1),%eax
    f630:	25 ff ff ff 07       	and    $0x7ffffff,%eax
    f635:	89 c1                	mov    %eax,%ecx
    f637:	8b 45 fc             	mov    -0x4(%rbp),%eax
    f63a:	89 c2                	mov    %eax,%edx
    f63c:	48 8d 35 7f 2f 00 00 	lea    0x2f7f(%rip),%rsi        # 125c2 <g_2793+0x1522>
    f643:	48 89 cf             	mov    %rcx,%rdi
    f646:	e8 a8 90 ff ff       	callq  86f3 <transparent_crc>
    f64b:	8b 45 f0             	mov    -0x10(%rbp),%eax
    f64e:	48 63 d0             	movslq %eax,%rdx
    f651:	48 89 d0             	mov    %rdx,%rax
    f654:	48 c1 e0 02          	shl    $0x2,%rax
    f658:	48 01 d0             	add    %rdx,%rax
    f65b:	48 c1 e0 02          	shl    $0x2,%rax
    f65f:	48 89 c2             	mov    %rax,%rdx
    f662:	48 8d 05 d7 6d 00 00 	lea    0x6dd7(%rip),%rax        # 16440 <g_1931>
    f669:	8b 44 02 04          	mov    0x4(%rdx,%rax,1),%eax
    f66d:	25 ff ff ff 7f       	and    $0x7fffffff,%eax
    f672:	89 c1                	mov    %eax,%ecx
    f674:	8b 45 fc             	mov    -0x4(%rbp),%eax
    f677:	89 c2                	mov    %eax,%edx
    f679:	48 8d 35 4f 2f 00 00 	lea    0x2f4f(%rip),%rsi        # 125cf <g_2793+0x152f>
    f680:	48 89 cf             	mov    %rcx,%rdi
    f683:	e8 6b 90 ff ff       	callq  86f3 <transparent_crc>
    f688:	8b 45 f0             	mov    -0x10(%rbp),%eax
    f68b:	48 63 d0             	movslq %eax,%rdx
    f68e:	48 89 d0             	mov    %rdx,%rax
    f691:	48 c1 e0 02          	shl    $0x2,%rax
    f695:	48 01 d0             	add    %rdx,%rax
    f698:	48 c1 e0 02          	shl    $0x2,%rax
    f69c:	48 89 c2             	mov    %rax,%rdx
    f69f:	48 8d 05 a2 6d 00 00 	lea    0x6da2(%rip),%rax        # 16448 <g_1931+0x8>
    f6a6:	8b 04 02             	mov    (%rdx,%rax,1),%eax
    f6a9:	48 98                	cltq   
    f6ab:	8b 55 fc             	mov    -0x4(%rbp),%edx
    f6ae:	48 8d 35 27 2f 00 00 	lea    0x2f27(%rip),%rsi        # 125dc <g_2793+0x153c>
    f6b5:	48 89 c7             	mov    %rax,%rdi
    f6b8:	e8 36 90 ff ff       	callq  86f3 <transparent_crc>
    f6bd:	8b 45 f0             	mov    -0x10(%rbp),%eax
    f6c0:	48 63 d0             	movslq %eax,%rdx
    f6c3:	48 89 d0             	mov    %rdx,%rax
    f6c6:	48 c1 e0 02          	shl    $0x2,%rax
    f6ca:	48 01 d0             	add    %rdx,%rax
    f6cd:	48 c1 e0 02          	shl    $0x2,%rax
    f6d1:	48 89 c2             	mov    %rax,%rdx
    f6d4:	48 8d 05 71 6d 00 00 	lea    0x6d71(%rip),%rax        # 1644c <g_1931+0xc>
    f6db:	0f b6 04 02          	movzbl (%rdx,%rax,1),%eax
    f6df:	0f b6 c0             	movzbl %al,%eax
    f6e2:	8b 55 fc             	mov    -0x4(%rbp),%edx
    f6e5:	48 8d 35 fd 2e 00 00 	lea    0x2efd(%rip),%rsi        # 125e9 <g_2793+0x1549>
    f6ec:	48 89 c7             	mov    %rax,%rdi
    f6ef:	e8 ff 8f ff ff       	callq  86f3 <transparent_crc>
    f6f4:	8b 45 f0             	mov    -0x10(%rbp),%eax
    f6f7:	48 63 d0             	movslq %eax,%rdx
    f6fa:	48 89 d0             	mov    %rdx,%rax
    f6fd:	48 c1 e0 02          	shl    $0x2,%rax
    f701:	48 01 d0             	add    %rdx,%rax
    f704:	48 c1 e0 02          	shl    $0x2,%rax
    f708:	48 89 c2             	mov    %rax,%rdx
    f70b:	48 8d 05 2e 6d 00 00 	lea    0x6d2e(%rip),%rax        # 16440 <g_1931>
    f712:	8b 44 02 0c          	mov    0xc(%rdx,%rax,1),%eax
    f716:	c1 e8 08             	shr    $0x8,%eax
    f719:	83 e0 1f             	and    $0x1f,%eax
    f71c:	0f b6 c0             	movzbl %al,%eax
    f71f:	8b 55 fc             	mov    -0x4(%rbp),%edx
    f722:	48 8d 35 cd 2e 00 00 	lea    0x2ecd(%rip),%rsi        # 125f6 <g_2793+0x1556>
    f729:	48 89 c7             	mov    %rax,%rdi
    f72c:	e8 c2 8f ff ff       	callq  86f3 <transparent_crc>
    f731:	8b 45 f0             	mov    -0x10(%rbp),%eax
    f734:	48 63 d0             	movslq %eax,%rdx
    f737:	48 89 d0             	mov    %rdx,%rax
    f73a:	48 c1 e0 02          	shl    $0x2,%rax
    f73e:	48 01 d0             	add    %rdx,%rax
    f741:	48 c1 e0 02          	shl    $0x2,%rax
    f745:	48 89 c2             	mov    %rax,%rdx
    f748:	48 8d 05 01 6d 00 00 	lea    0x6d01(%rip),%rax        # 16450 <g_1931+0x10>
    f74f:	8b 04 02             	mov    (%rdx,%rax,1),%eax
    f752:	25 ff ff ff 00       	and    $0xffffff,%eax
    f757:	89 c1                	mov    %eax,%ecx
    f759:	8b 45 fc             	mov    -0x4(%rbp),%eax
    f75c:	89 c2                	mov    %eax,%edx
    f75e:	48 8d 35 9e 2e 00 00 	lea    0x2e9e(%rip),%rsi        # 12603 <g_2793+0x1563>
    f765:	48 89 cf             	mov    %rcx,%rdi
    f768:	e8 86 8f ff ff       	callq  86f3 <transparent_crc>
    f76d:	83 7d fc 00          	cmpl   $0x0,-0x4(%rbp)
    f771:	74 16                	je     f789 <main+0x2159>
    f773:	8b 45 f0             	mov    -0x10(%rbp),%eax
    f776:	89 c6                	mov    %eax,%esi
    f778:	48 8d 3d c2 26 00 00 	lea    0x26c2(%rip),%rdi        # 11e41 <g_2793+0xda1>
    f77f:	b8 00 00 00 00       	mov    $0x0,%eax
    f784:	e8 f7 78 ff ff       	callq  7080 <printf@plt>
    f789:	83 45 f0 01          	addl   $0x1,-0x10(%rbp)
    f78d:	83 7d f0 09          	cmpl   $0x9,-0x10(%rbp)
    f791:	0f 8e 78 fe ff ff    	jle    f60f <main+0x1fdf>
    f797:	48 8b 05 72 6d 00 00 	mov    0x6d72(%rip),%rax        # 16510 <g_1946>
    f79e:	25 ff ff ff 07       	and    $0x7ffffff,%eax
    f7a3:	89 c1                	mov    %eax,%ecx
    f7a5:	8b 45 fc             	mov    -0x4(%rbp),%eax
    f7a8:	89 c2                	mov    %eax,%edx
    f7aa:	48 8d 35 5f 2e 00 00 	lea    0x2e5f(%rip),%rsi        # 12610 <g_2793+0x1570>
    f7b1:	48 89 cf             	mov    %rcx,%rdi
    f7b4:	e8 3a 8f ff ff       	callq  86f3 <transparent_crc>
    f7b9:	48 8b 05 50 6d 00 00 	mov    0x6d50(%rip),%rax        # 16510 <g_1946>
    f7c0:	48 c1 e8 20          	shr    $0x20,%rax
    f7c4:	25 ff ff ff 7f       	and    $0x7fffffff,%eax
    f7c9:	89 c1                	mov    %eax,%ecx
    f7cb:	8b 45 fc             	mov    -0x4(%rbp),%eax
    f7ce:	89 c2                	mov    %eax,%edx
    f7d0:	48 8d 35 43 2e 00 00 	lea    0x2e43(%rip),%rsi        # 1261a <g_2793+0x157a>
    f7d7:	48 89 cf             	mov    %rcx,%rdi
    f7da:	e8 14 8f ff ff       	callq  86f3 <transparent_crc>
    f7df:	8b 05 33 6d 00 00    	mov    0x6d33(%rip),%eax        # 16518 <g_1946+0x8>
    f7e5:	48 98                	cltq   
    f7e7:	8b 55 fc             	mov    -0x4(%rbp),%edx
    f7ea:	48 8d 35 33 2e 00 00 	lea    0x2e33(%rip),%rsi        # 12624 <g_2793+0x1584>
    f7f1:	48 89 c7             	mov    %rax,%rdi
    f7f4:	e8 fa 8e ff ff       	callq  86f3 <transparent_crc>
    f7f9:	0f b6 05 1c 6d 00 00 	movzbl 0x6d1c(%rip),%eax        # 1651c <g_1946+0xc>
    f800:	0f b6 c0             	movzbl %al,%eax
    f803:	8b 55 fc             	mov    -0x4(%rbp),%edx
    f806:	48 8d 35 21 2e 00 00 	lea    0x2e21(%rip),%rsi        # 1262e <g_2793+0x158e>
    f80d:	48 89 c7             	mov    %rax,%rdi
    f810:	e8 de 8e ff ff       	callq  86f3 <transparent_crc>
    f815:	48 8b 05 fc 6c 00 00 	mov    0x6cfc(%rip),%rax        # 16518 <g_1946+0x8>
    f81c:	48 c1 e8 28          	shr    $0x28,%rax
    f820:	83 e0 1f             	and    $0x1f,%eax
    f823:	0f b6 c0             	movzbl %al,%eax
    f826:	8b 55 fc             	mov    -0x4(%rbp),%edx
    f829:	48 8d 35 08 2e 00 00 	lea    0x2e08(%rip),%rsi        # 12638 <g_2793+0x1598>
    f830:	48 89 c7             	mov    %rax,%rdi
    f833:	e8 bb 8e ff ff       	callq  86f3 <transparent_crc>
    f838:	8b 05 e2 6c 00 00    	mov    0x6ce2(%rip),%eax        # 16520 <g_1946+0x10>
    f83e:	25 ff ff ff 00       	and    $0xffffff,%eax
    f843:	89 c1                	mov    %eax,%ecx
    f845:	8b 45 fc             	mov    -0x4(%rbp),%eax
    f848:	89 c2                	mov    %eax,%edx
    f84a:	48 8d 35 f1 2d 00 00 	lea    0x2df1(%rip),%rsi        # 12642 <g_2793+0x15a2>
    f851:	48 89 cf             	mov    %rcx,%rdi
    f854:	e8 9a 8e ff ff       	callq  86f3 <transparent_crc>
    f859:	8b 05 c5 6c 00 00    	mov    0x6cc5(%rip),%eax        # 16524 <g_2128>
    f85f:	48 98                	cltq   
    f861:	8b 55 fc             	mov    -0x4(%rbp),%edx
    f864:	48 8d 35 e1 2d 00 00 	lea    0x2de1(%rip),%rsi        # 1264c <g_2793+0x15ac>
    f86b:	48 89 c7             	mov    %rax,%rdi
    f86e:	e8 80 8e ff ff       	callq  86f3 <transparent_crc>
    f873:	0f b6 05 ae 6c 00 00 	movzbl 0x6cae(%rip),%eax        # 16528 <g_2285>
    f87a:	48 0f be c0          	movsbq %al,%rax
    f87e:	8b 55 fc             	mov    -0x4(%rbp),%edx
    f881:	48 8d 35 cb 2d 00 00 	lea    0x2dcb(%rip),%rsi        # 12653 <g_2793+0x15b3>
    f888:	48 89 c7             	mov    %rax,%rdi
    f88b:	e8 63 8e ff ff       	callq  86f3 <transparent_crc>
    f890:	48 8b 05 99 6c 00 00 	mov    0x6c99(%rip),%rax        # 16530 <g_2309>
    f897:	c1 e0 04             	shl    $0x4,%eax
    f89a:	c1 f8 04             	sar    $0x4,%eax
    f89d:	48 98                	cltq   
    f89f:	8b 55 fc             	mov    -0x4(%rbp),%edx
    f8a2:	48 8d 35 b1 2d 00 00 	lea    0x2db1(%rip),%rsi        # 1265a <g_2793+0x15ba>
    f8a9:	48 89 c7             	mov    %rax,%rdi
    f8ac:	e8 42 8e ff ff       	callq  86f3 <transparent_crc>
    f8b1:	8b 05 7d 6c 00 00    	mov    0x6c7d(%rip),%eax        # 16534 <g_2309+0x4>
    f8b7:	89 c1                	mov    %eax,%ecx
    f8b9:	8b 45 fc             	mov    -0x4(%rbp),%eax
    f8bc:	89 c2                	mov    %eax,%edx
    f8be:	48 8d 35 9f 2d 00 00 	lea    0x2d9f(%rip),%rsi        # 12664 <g_2793+0x15c4>
    f8c5:	48 89 cf             	mov    %rcx,%rdi
    f8c8:	e8 26 8e ff ff       	callq  86f3 <transparent_crc>
    f8cd:	8b 05 65 6c 00 00    	mov    0x6c65(%rip),%eax        # 16538 <g_2309+0x8>
    f8d3:	48 98                	cltq   
    f8d5:	8b 55 fc             	mov    -0x4(%rbp),%edx
    f8d8:	48 8d 35 8f 2d 00 00 	lea    0x2d8f(%rip),%rsi        # 1266e <g_2793+0x15ce>
    f8df:	48 89 c7             	mov    %rax,%rdi
    f8e2:	e8 0c 8e ff ff       	callq  86f3 <transparent_crc>
    f8e7:	8b 05 4f 6c 00 00    	mov    0x6c4f(%rip),%eax        # 1653c <g_2309+0xc>
    f8ed:	48 98                	cltq   
    f8ef:	8b 55 fc             	mov    -0x4(%rbp),%edx
    f8f2:	48 8d 35 7f 2d 00 00 	lea    0x2d7f(%rip),%rsi        # 12678 <g_2793+0x15d8>
    f8f9:	48 89 c7             	mov    %rax,%rdi
    f8fc:	e8 f2 8d ff ff       	callq  86f3 <transparent_crc>
    f901:	8b 05 39 6c 00 00    	mov    0x6c39(%rip),%eax        # 16540 <g_2309+0x10>
    f907:	48 98                	cltq   
    f909:	8b 55 fc             	mov    -0x4(%rbp),%edx
    f90c:	48 8d 35 6f 2d 00 00 	lea    0x2d6f(%rip),%rsi        # 12682 <g_2793+0x15e2>
    f913:	48 89 c7             	mov    %rax,%rdi
    f916:	e8 d8 8d ff ff       	callq  86f3 <transparent_crc>
    f91b:	8b 05 23 6c 00 00    	mov    0x6c23(%rip),%eax        # 16544 <g_2309+0x14>
    f921:	48 98                	cltq   
    f923:	8b 55 fc             	mov    -0x4(%rbp),%edx
    f926:	48 8d 35 5f 2d 00 00 	lea    0x2d5f(%rip),%rsi        # 1268c <g_2793+0x15ec>
    f92d:	48 89 c7             	mov    %rax,%rdi
    f930:	e8 be 8d ff ff       	callq  86f3 <transparent_crc>
    f935:	8b 05 0d 6c 00 00    	mov    0x6c0d(%rip),%eax        # 16548 <g_2309+0x18>
    f93b:	89 c1                	mov    %eax,%ecx
    f93d:	8b 45 fc             	mov    -0x4(%rbp),%eax
    f940:	89 c2                	mov    %eax,%edx
    f942:	48 8d 35 4d 2d 00 00 	lea    0x2d4d(%rip),%rsi        # 12696 <g_2793+0x15f6>
    f949:	48 89 cf             	mov    %rcx,%rdi
    f94c:	e8 a2 8d ff ff       	callq  86f3 <transparent_crc>
    f951:	c7 45 f0 00 00 00 00 	movl   $0x0,-0x10(%rbp)
    f958:	e9 9d 01 00 00       	jmpq   fafa <main+0x24ca>
    f95d:	8b 45 f0             	mov    -0x10(%rbp),%eax
    f960:	48 63 d0             	movslq %eax,%rdx
    f963:	48 89 d0             	mov    %rdx,%rax
    f966:	48 c1 e0 03          	shl    $0x3,%rax
    f96a:	48 29 d0             	sub    %rdx,%rax
    f96d:	48 c1 e0 02          	shl    $0x2,%rax
    f971:	48 89 c2             	mov    %rax,%rdx
    f974:	48 8d 05 e5 6b 00 00 	lea    0x6be5(%rip),%rax        # 16560 <g_2329>
    f97b:	8b 04 02             	mov    (%rdx,%rax,1),%eax
    f97e:	c1 e0 04             	shl    $0x4,%eax
    f981:	c1 f8 04             	sar    $0x4,%eax
    f984:	48 98                	cltq   
    f986:	8b 55 fc             	mov    -0x4(%rbp),%edx
    f989:	48 8d 35 10 2d 00 00 	lea    0x2d10(%rip),%rsi        # 126a0 <g_2793+0x1600>
    f990:	48 89 c7             	mov    %rax,%rdi
    f993:	e8 5b 8d ff ff       	callq  86f3 <transparent_crc>
    f998:	8b 45 f0             	mov    -0x10(%rbp),%eax
    f99b:	48 63 d0             	movslq %eax,%rdx
    f99e:	48 89 d0             	mov    %rdx,%rax
    f9a1:	48 c1 e0 03          	shl    $0x3,%rax
    f9a5:	48 29 d0             	sub    %rdx,%rax
    f9a8:	48 c1 e0 02          	shl    $0x2,%rax
    f9ac:	48 89 c2             	mov    %rax,%rdx
    f9af:	48 8d 05 ae 6b 00 00 	lea    0x6bae(%rip),%rax        # 16564 <g_2329+0x4>
    f9b6:	8b 04 02             	mov    (%rdx,%rax,1),%eax
    f9b9:	89 c1                	mov    %eax,%ecx
    f9bb:	8b 45 fc             	mov    -0x4(%rbp),%eax
    f9be:	89 c2                	mov    %eax,%edx
    f9c0:	48 8d 35 e6 2c 00 00 	lea    0x2ce6(%rip),%rsi        # 126ad <g_2793+0x160d>
    f9c7:	48 89 cf             	mov    %rcx,%rdi
    f9ca:	e8 24 8d ff ff       	callq  86f3 <transparent_crc>
    f9cf:	8b 45 f0             	mov    -0x10(%rbp),%eax
    f9d2:	48 63 d0             	movslq %eax,%rdx
    f9d5:	48 89 d0             	mov    %rdx,%rax
    f9d8:	48 c1 e0 03          	shl    $0x3,%rax
    f9dc:	48 29 d0             	sub    %rdx,%rax
    f9df:	48 c1 e0 02          	shl    $0x2,%rax
    f9e3:	48 89 c2             	mov    %rax,%rdx
    f9e6:	48 8d 05 7b 6b 00 00 	lea    0x6b7b(%rip),%rax        # 16568 <g_2329+0x8>
    f9ed:	8b 04 02             	mov    (%rdx,%rax,1),%eax
    f9f0:	48 98                	cltq   
    f9f2:	8b 55 fc             	mov    -0x4(%rbp),%edx
    f9f5:	48 8d 35 be 2c 00 00 	lea    0x2cbe(%rip),%rsi        # 126ba <g_2793+0x161a>
    f9fc:	48 89 c7             	mov    %rax,%rdi
    f9ff:	e8 ef 8c ff ff       	callq  86f3 <transparent_crc>
    fa04:	8b 45 f0             	mov    -0x10(%rbp),%eax
    fa07:	48 63 d0             	movslq %eax,%rdx
    fa0a:	48 89 d0             	mov    %rdx,%rax
    fa0d:	48 c1 e0 03          	shl    $0x3,%rax
    fa11:	48 29 d0             	sub    %rdx,%rax
    fa14:	48 c1 e0 02          	shl    $0x2,%rax
    fa18:	48 89 c2             	mov    %rax,%rdx
    fa1b:	48 8d 05 4a 6b 00 00 	lea    0x6b4a(%rip),%rax        # 1656c <g_2329+0xc>
    fa22:	8b 04 02             	mov    (%rdx,%rax,1),%eax
    fa25:	48 98                	cltq   
    fa27:	8b 55 fc             	mov    -0x4(%rbp),%edx
    fa2a:	48 8d 35 96 2c 00 00 	lea    0x2c96(%rip),%rsi        # 126c7 <g_2793+0x1627>
    fa31:	48 89 c7             	mov    %rax,%rdi
    fa34:	e8 ba 8c ff ff       	callq  86f3 <transparent_crc>
    fa39:	8b 45 f0             	mov    -0x10(%rbp),%eax
    fa3c:	48 63 d0             	movslq %eax,%rdx
    fa3f:	48 89 d0             	mov    %rdx,%rax
    fa42:	48 c1 e0 03          	shl    $0x3,%rax
    fa46:	48 29 d0             	sub    %rdx,%rax
    fa49:	48 c1 e0 02          	shl    $0x2,%rax
    fa4d:	48 89 c2             	mov    %rax,%rdx
    fa50:	48 8d 05 19 6b 00 00 	lea    0x6b19(%rip),%rax        # 16570 <g_2329+0x10>
    fa57:	8b 04 02             	mov    (%rdx,%rax,1),%eax
    fa5a:	48 98                	cltq   
    fa5c:	8b 55 fc             	mov    -0x4(%rbp),%edx
    fa5f:	48 8d 35 6e 2c 00 00 	lea    0x2c6e(%rip),%rsi        # 126d4 <g_2793+0x1634>
    fa66:	48 89 c7             	mov    %rax,%rdi
    fa69:	e8 85 8c ff ff       	callq  86f3 <transparent_crc>
    fa6e:	8b 45 f0             	mov    -0x10(%rbp),%eax
    fa71:	48 63 d0             	movslq %eax,%rdx
    fa74:	48 89 d0             	mov    %rdx,%rax
    fa77:	48 c1 e0 03          	shl    $0x3,%rax
    fa7b:	48 29 d0             	sub    %rdx,%rax
    fa7e:	48 c1 e0 02          	shl    $0x2,%rax
    fa82:	48 89 c2             	mov    %rax,%rdx
    fa85:	48 8d 05 e8 6a 00 00 	lea    0x6ae8(%rip),%rax        # 16574 <g_2329+0x14>
    fa8c:	8b 04 02             	mov    (%rdx,%rax,1),%eax
    fa8f:	48 98                	cltq   
    fa91:	8b 55 fc             	mov    -0x4(%rbp),%edx
    fa94:	48 8d 35 46 2c 00 00 	lea    0x2c46(%rip),%rsi        # 126e1 <g_2793+0x1641>
    fa9b:	48 89 c7             	mov    %rax,%rdi
    fa9e:	e8 50 8c ff ff       	callq  86f3 <transparent_crc>
    faa3:	8b 45 f0             	mov    -0x10(%rbp),%eax
    faa6:	48 63 d0             	movslq %eax,%rdx
    faa9:	48 89 d0             	mov    %rdx,%rax
    faac:	48 c1 e0 03          	shl    $0x3,%rax
    fab0:	48 29 d0             	sub    %rdx,%rax
    fab3:	48 c1 e0 02          	shl    $0x2,%rax
    fab7:	48 89 c2             	mov    %rax,%rdx
    faba:	48 8d 05 b7 6a 00 00 	lea    0x6ab7(%rip),%rax        # 16578 <g_2329+0x18>
    fac1:	8b 04 02             	mov    (%rdx,%rax,1),%eax
    fac4:	89 c1                	mov    %eax,%ecx
    fac6:	8b 45 fc             	mov    -0x4(%rbp),%eax
    fac9:	89 c2                	mov    %eax,%edx
    facb:	48 8d 35 1c 2c 00 00 	lea    0x2c1c(%rip),%rsi        # 126ee <g_2793+0x164e>
    fad2:	48 89 cf             	mov    %rcx,%rdi
    fad5:	e8 19 8c ff ff       	callq  86f3 <transparent_crc>
    fada:	83 7d fc 00          	cmpl   $0x0,-0x4(%rbp)
    fade:	74 16                	je     faf6 <main+0x24c6>
    fae0:	8b 45 f0             	mov    -0x10(%rbp),%eax
    fae3:	89 c6                	mov    %eax,%esi
    fae5:	48 8d 3d 55 23 00 00 	lea    0x2355(%rip),%rdi        # 11e41 <g_2793+0xda1>
    faec:	b8 00 00 00 00       	mov    $0x0,%eax
    faf1:	e8 8a 75 ff ff       	callq  7080 <printf@plt>
    faf6:	83 45 f0 01          	addl   $0x1,-0x10(%rbp)
    fafa:	83 7d f0 06          	cmpl   $0x6,-0x10(%rbp)
    fafe:	0f 8e 59 fe ff ff    	jle    f95d <main+0x232d>
    fb04:	c7 45 f0 00 00 00 00 	movl   $0x0,-0x10(%rbp)
    fb0b:	e9 7e 01 00 00       	jmpq   fc8e <main+0x265e>
    fb10:	8b 45 f0             	mov    -0x10(%rbp),%eax
    fb13:	48 63 d0             	movslq %eax,%rdx
    fb16:	48 89 d0             	mov    %rdx,%rax
    fb19:	48 c1 e0 02          	shl    $0x2,%rax
    fb1d:	48 01 d0             	add    %rdx,%rax
    fb20:	48 c1 e0 02          	shl    $0x2,%rax
    fb24:	48 89 c2             	mov    %rax,%rdx
    fb27:	48 8d 05 12 6b 00 00 	lea    0x6b12(%rip),%rax        # 16640 <g_2336>
    fb2e:	8b 04 02             	mov    (%rdx,%rax,1),%eax
    fb31:	25 ff ff ff 07       	and    $0x7ffffff,%eax
    fb36:	89 c1                	mov    %eax,%ecx
    fb38:	8b 45 fc             	mov    -0x4(%rbp),%eax
    fb3b:	89 c2                	mov    %eax,%edx
    fb3d:	48 8d 35 b7 2b 00 00 	lea    0x2bb7(%rip),%rsi        # 126fb <g_2793+0x165b>
    fb44:	48 89 cf             	mov    %rcx,%rdi
    fb47:	e8 a7 8b ff ff       	callq  86f3 <transparent_crc>
    fb4c:	8b 45 f0             	mov    -0x10(%rbp),%eax
    fb4f:	48 63 d0             	movslq %eax,%rdx
    fb52:	48 89 d0             	mov    %rdx,%rax
    fb55:	48 c1 e0 02          	shl    $0x2,%rax
    fb59:	48 01 d0             	add    %rdx,%rax
    fb5c:	48 c1 e0 02          	shl    $0x2,%rax
    fb60:	48 89 c2             	mov    %rax,%rdx
    fb63:	48 8d 05 d6 6a 00 00 	lea    0x6ad6(%rip),%rax        # 16640 <g_2336>
    fb6a:	8b 44 02 04          	mov    0x4(%rdx,%rax,1),%eax
    fb6e:	25 ff ff ff 7f       	and    $0x7fffffff,%eax
    fb73:	89 c1                	mov    %eax,%ecx
    fb75:	8b 45 fc             	mov    -0x4(%rbp),%eax
    fb78:	89 c2                	mov    %eax,%edx
    fb7a:	48 8d 35 87 2b 00 00 	lea    0x2b87(%rip),%rsi        # 12708 <g_2793+0x1668>
    fb81:	48 89 cf             	mov    %rcx,%rdi
    fb84:	e8 6a 8b ff ff       	callq  86f3 <transparent_crc>
    fb89:	8b 45 f0             	mov    -0x10(%rbp),%eax
    fb8c:	48 63 d0             	movslq %eax,%rdx
    fb8f:	48 89 d0             	mov    %rdx,%rax
    fb92:	48 c1 e0 02          	shl    $0x2,%rax
    fb96:	48 01 d0             	add    %rdx,%rax
    fb99:	48 c1 e0 02          	shl    $0x2,%rax
    fb9d:	48 89 c2             	mov    %rax,%rdx
    fba0:	48 8d 05 a1 6a 00 00 	lea    0x6aa1(%rip),%rax        # 16648 <g_2336+0x8>
    fba7:	8b 04 02             	mov    (%rdx,%rax,1),%eax
    fbaa:	48 98                	cltq   
    fbac:	8b 55 fc             	mov    -0x4(%rbp),%edx
    fbaf:	48 8d 35 5f 2b 00 00 	lea    0x2b5f(%rip),%rsi        # 12715 <g_2793+0x1675>
    fbb6:	48 89 c7             	mov    %rax,%rdi
    fbb9:	e8 35 8b ff ff       	callq  86f3 <transparent_crc>
    fbbe:	8b 45 f0             	mov    -0x10(%rbp),%eax
    fbc1:	48 63 d0             	movslq %eax,%rdx
    fbc4:	48 89 d0             	mov    %rdx,%rax
    fbc7:	48 c1 e0 02          	shl    $0x2,%rax
    fbcb:	48 01 d0             	add    %rdx,%rax
    fbce:	48 c1 e0 02          	shl    $0x2,%rax
    fbd2:	48 89 c2             	mov    %rax,%rdx
    fbd5:	48 8d 05 70 6a 00 00 	lea    0x6a70(%rip),%rax        # 1664c <g_2336+0xc>
    fbdc:	0f b6 04 02          	movzbl (%rdx,%rax,1),%eax
    fbe0:	0f b6 c0             	movzbl %al,%eax
    fbe3:	8b 55 fc             	mov    -0x4(%rbp),%edx
    fbe6:	48 8d 35 35 2b 00 00 	lea    0x2b35(%rip),%rsi        # 12722 <g_2793+0x1682>
    fbed:	48 89 c7             	mov    %rax,%rdi
    fbf0:	e8 fe 8a ff ff       	callq  86f3 <transparent_crc>
    fbf5:	8b 45 f0             	mov    -0x10(%rbp),%eax
    fbf8:	48 63 d0             	movslq %eax,%rdx
    fbfb:	48 89 d0             	mov    %rdx,%rax
    fbfe:	48 c1 e0 02          	shl    $0x2,%rax
    fc02:	48 01 d0             	add    %rdx,%rax
    fc05:	48 c1 e0 02          	shl    $0x2,%rax
    fc09:	48 89 c2             	mov    %rax,%rdx
    fc0c:	48 8d 05 2d 6a 00 00 	lea    0x6a2d(%rip),%rax        # 16640 <g_2336>
    fc13:	8b 44 02 0c          	mov    0xc(%rdx,%rax,1),%eax
    fc17:	c1 e8 08             	shr    $0x8,%eax
    fc1a:	83 e0 1f             	and    $0x1f,%eax
    fc1d:	0f b6 c0             	movzbl %al,%eax
    fc20:	8b 55 fc             	mov    -0x4(%rbp),%edx
    fc23:	48 8d 35 05 2b 00 00 	lea    0x2b05(%rip),%rsi        # 1272f <g_2793+0x168f>
    fc2a:	48 89 c7             	mov    %rax,%rdi
    fc2d:	e8 c1 8a ff ff       	callq  86f3 <transparent_crc>
    fc32:	8b 45 f0             	mov    -0x10(%rbp),%eax
    fc35:	48 63 d0             	movslq %eax,%rdx
    fc38:	48 89 d0             	mov    %rdx,%rax
    fc3b:	48 c1 e0 02          	shl    $0x2,%rax
    fc3f:	48 01 d0             	add    %rdx,%rax
    fc42:	48 c1 e0 02          	shl    $0x2,%rax
    fc46:	48 89 c2             	mov    %rax,%rdx
    fc49:	48 8d 05 00 6a 00 00 	lea    0x6a00(%rip),%rax        # 16650 <g_2336+0x10>
    fc50:	8b 04 02             	mov    (%rdx,%rax,1),%eax
    fc53:	25 ff ff ff 00       	and    $0xffffff,%eax
    fc58:	89 c1                	mov    %eax,%ecx
    fc5a:	8b 45 fc             	mov    -0x4(%rbp),%eax
    fc5d:	89 c2                	mov    %eax,%edx
    fc5f:	48 8d 35 d6 2a 00 00 	lea    0x2ad6(%rip),%rsi        # 1273c <g_2793+0x169c>
    fc66:	48 89 cf             	mov    %rcx,%rdi
    fc69:	e8 85 8a ff ff       	callq  86f3 <transparent_crc>
    fc6e:	83 7d fc 00          	cmpl   $0x0,-0x4(%rbp)
    fc72:	74 16                	je     fc8a <main+0x265a>
    fc74:	8b 45 f0             	mov    -0x10(%rbp),%eax
    fc77:	89 c6                	mov    %eax,%esi
    fc79:	48 8d 3d c1 21 00 00 	lea    0x21c1(%rip),%rdi        # 11e41 <g_2793+0xda1>
    fc80:	b8 00 00 00 00       	mov    $0x0,%eax
    fc85:	e8 f6 73 ff ff       	callq  7080 <printf@plt>
    fc8a:	83 45 f0 01          	addl   $0x1,-0x10(%rbp)
    fc8e:	83 7d f0 05          	cmpl   $0x5,-0x10(%rbp)
    fc92:	0f 8e 78 fe ff ff    	jle    fb10 <main+0x24e0>
    fc98:	8b 05 1a 6a 00 00    	mov    0x6a1a(%rip),%eax        # 166b8 <g_2378>
    fc9e:	89 c1                	mov    %eax,%ecx
    fca0:	8b 45 fc             	mov    -0x4(%rbp),%eax
    fca3:	89 c2                	mov    %eax,%edx
    fca5:	48 8d 35 9d 2a 00 00 	lea    0x2a9d(%rip),%rsi        # 12749 <g_2793+0x16a9>
    fcac:	48 89 cf             	mov    %rcx,%rdi
    fcaf:	e8 3f 8a ff ff       	callq  86f3 <transparent_crc>
    fcb4:	48 8b 05 05 6a 00 00 	mov    0x6a05(%rip),%rax        # 166c0 <g_2484>
    fcbb:	25 ff ff ff 07       	and    $0x7ffffff,%eax
    fcc0:	89 c1                	mov    %eax,%ecx
    fcc2:	8b 45 fc             	mov    -0x4(%rbp),%eax
    fcc5:	89 c2                	mov    %eax,%edx
    fcc7:	48 8d 35 82 2a 00 00 	lea    0x2a82(%rip),%rsi        # 12750 <g_2793+0x16b0>
    fcce:	48 89 cf             	mov    %rcx,%rdi
    fcd1:	e8 1d 8a ff ff       	callq  86f3 <transparent_crc>
    fcd6:	48 8b 05 e3 69 00 00 	mov    0x69e3(%rip),%rax        # 166c0 <g_2484>
    fcdd:	48 c1 e8 20          	shr    $0x20,%rax
    fce1:	25 ff ff ff 7f       	and    $0x7fffffff,%eax
    fce6:	89 c1                	mov    %eax,%ecx
    fce8:	8b 45 fc             	mov    -0x4(%rbp),%eax
    fceb:	89 c2                	mov    %eax,%edx
    fced:	48 8d 35 66 2a 00 00 	lea    0x2a66(%rip),%rsi        # 1275a <g_2793+0x16ba>
    fcf4:	48 89 cf             	mov    %rcx,%rdi
    fcf7:	e8 f7 89 ff ff       	callq  86f3 <transparent_crc>
    fcfc:	8b 05 c6 69 00 00    	mov    0x69c6(%rip),%eax        # 166c8 <g_2484+0x8>
    fd02:	48 98                	cltq   
    fd04:	8b 55 fc             	mov    -0x4(%rbp),%edx
    fd07:	48 8d 35 56 2a 00 00 	lea    0x2a56(%rip),%rsi        # 12764 <g_2793+0x16c4>
    fd0e:	48 89 c7             	mov    %rax,%rdi
    fd11:	e8 dd 89 ff ff       	callq  86f3 <transparent_crc>
    fd16:	0f b6 05 af 69 00 00 	movzbl 0x69af(%rip),%eax        # 166cc <g_2484+0xc>
    fd1d:	0f b6 c0             	movzbl %al,%eax
    fd20:	8b 55 fc             	mov    -0x4(%rbp),%edx
    fd23:	48 8d 35 44 2a 00 00 	lea    0x2a44(%rip),%rsi        # 1276e <g_2793+0x16ce>
    fd2a:	48 89 c7             	mov    %rax,%rdi
    fd2d:	e8 c1 89 ff ff       	callq  86f3 <transparent_crc>
    fd32:	48 8b 05 8f 69 00 00 	mov    0x698f(%rip),%rax        # 166c8 <g_2484+0x8>
    fd39:	48 c1 e8 28          	shr    $0x28,%rax
    fd3d:	83 e0 1f             	and    $0x1f,%eax
    fd40:	0f b6 c0             	movzbl %al,%eax
    fd43:	8b 55 fc             	mov    -0x4(%rbp),%edx
    fd46:	48 8d 35 2b 2a 00 00 	lea    0x2a2b(%rip),%rsi        # 12778 <g_2793+0x16d8>
    fd4d:	48 89 c7             	mov    %rax,%rdi
    fd50:	e8 9e 89 ff ff       	callq  86f3 <transparent_crc>
    fd55:	48 8b 05 74 69 00 00 	mov    0x6974(%rip),%rax        # 166d0 <g_2484+0x10>
    fd5c:	25 ff ff ff 00       	and    $0xffffff,%eax
    fd61:	89 c1                	mov    %eax,%ecx
    fd63:	8b 45 fc             	mov    -0x4(%rbp),%eax
    fd66:	89 c2                	mov    %eax,%edx
    fd68:	48 8d 35 13 2a 00 00 	lea    0x2a13(%rip),%rsi        # 12782 <g_2793+0x16e2>
    fd6f:	48 89 cf             	mov    %rcx,%rdi
    fd72:	e8 7c 89 ff ff       	callq  86f3 <transparent_crc>
    fd77:	48 8b 05 62 69 00 00 	mov    0x6962(%rip),%rax        # 166e0 <g_2578>
    fd7e:	25 ff ff ff 07       	and    $0x7ffffff,%eax
    fd83:	89 c1                	mov    %eax,%ecx
    fd85:	8b 45 fc             	mov    -0x4(%rbp),%eax
    fd88:	89 c2                	mov    %eax,%edx
    fd8a:	48 8d 35 fb 29 00 00 	lea    0x29fb(%rip),%rsi        # 1278c <g_2793+0x16ec>
    fd91:	48 89 cf             	mov    %rcx,%rdi
    fd94:	e8 5a 89 ff ff       	callq  86f3 <transparent_crc>
    fd99:	48 8b 05 40 69 00 00 	mov    0x6940(%rip),%rax        # 166e0 <g_2578>
    fda0:	48 c1 e8 20          	shr    $0x20,%rax
    fda4:	25 ff ff ff 7f       	and    $0x7fffffff,%eax
    fda9:	89 c1                	mov    %eax,%ecx
    fdab:	8b 45 fc             	mov    -0x4(%rbp),%eax
    fdae:	89 c2                	mov    %eax,%edx
    fdb0:	48 8d 35 df 29 00 00 	lea    0x29df(%rip),%rsi        # 12796 <g_2793+0x16f6>
    fdb7:	48 89 cf             	mov    %rcx,%rdi
    fdba:	e8 34 89 ff ff       	callq  86f3 <transparent_crc>
    fdbf:	8b 05 23 69 00 00    	mov    0x6923(%rip),%eax        # 166e8 <g_2578+0x8>
    fdc5:	48 98                	cltq   
    fdc7:	8b 55 fc             	mov    -0x4(%rbp),%edx
    fdca:	48 8d 35 cf 29 00 00 	lea    0x29cf(%rip),%rsi        # 127a0 <g_2793+0x1700>
    fdd1:	48 89 c7             	mov    %rax,%rdi
    fdd4:	e8 1a 89 ff ff       	callq  86f3 <transparent_crc>
    fdd9:	0f b6 05 0c 69 00 00 	movzbl 0x690c(%rip),%eax        # 166ec <g_2578+0xc>
    fde0:	0f b6 c0             	movzbl %al,%eax
    fde3:	8b 55 fc             	mov    -0x4(%rbp),%edx
    fde6:	48 8d 35 bd 29 00 00 	lea    0x29bd(%rip),%rsi        # 127aa <g_2793+0x170a>
    fded:	48 89 c7             	mov    %rax,%rdi
    fdf0:	e8 fe 88 ff ff       	callq  86f3 <transparent_crc>
    fdf5:	48 8b 05 ec 68 00 00 	mov    0x68ec(%rip),%rax        # 166e8 <g_2578+0x8>
    fdfc:	48 c1 e8 28          	shr    $0x28,%rax
    fe00:	83 e0 1f             	and    $0x1f,%eax
    fe03:	0f b6 c0             	movzbl %al,%eax
    fe06:	8b 55 fc             	mov    -0x4(%rbp),%edx
    fe09:	48 8d 35 a4 29 00 00 	lea    0x29a4(%rip),%rsi        # 127b4 <g_2793+0x1714>
    fe10:	48 89 c7             	mov    %rax,%rdi
    fe13:	e8 db 88 ff ff       	callq  86f3 <transparent_crc>
    fe18:	8b 05 d2 68 00 00    	mov    0x68d2(%rip),%eax        # 166f0 <g_2578+0x10>
    fe1e:	25 ff ff ff 00       	and    $0xffffff,%eax
    fe23:	89 c1                	mov    %eax,%ecx
    fe25:	8b 45 fc             	mov    -0x4(%rbp),%eax
    fe28:	89 c2                	mov    %eax,%edx
    fe2a:	48 8d 35 8d 29 00 00 	lea    0x298d(%rip),%rsi        # 127be <g_2793+0x171e>
    fe31:	48 89 cf             	mov    %rcx,%rdi
    fe34:	e8 ba 88 ff ff       	callq  86f3 <transparent_crc>
    fe39:	0f b6 05 b4 68 00 00 	movzbl 0x68b4(%rip),%eax        # 166f4 <g_2579>
    fe40:	0f b6 c0             	movzbl %al,%eax
    fe43:	8b 55 fc             	mov    -0x4(%rbp),%edx
    fe46:	48 8d 35 7b 29 00 00 	lea    0x297b(%rip),%rsi        # 127c8 <g_2793+0x1728>
    fe4d:	48 89 c7             	mov    %rax,%rdi
    fe50:	e8 9e 88 ff ff       	callq  86f3 <transparent_crc>
    fe55:	0f b7 05 9a 68 00 00 	movzwl 0x689a(%rip),%eax        # 166f6 <g_2622>
    fe5c:	0f b7 c0             	movzwl %ax,%eax
    fe5f:	8b 55 fc             	mov    -0x4(%rbp),%edx
    fe62:	48 8d 35 66 29 00 00 	lea    0x2966(%rip),%rsi        # 127cf <g_2793+0x172f>
    fe69:	48 89 c7             	mov    %rax,%rdi
    fe6c:	e8 82 88 ff ff       	callq  86f3 <transparent_crc>
    fe71:	8b 05 89 68 00 00    	mov    0x6889(%rip),%eax        # 16700 <g_2666>
    fe77:	c1 e0 04             	shl    $0x4,%eax
    fe7a:	c1 f8 04             	sar    $0x4,%eax
    fe7d:	48 98                	cltq   
    fe7f:	8b 55 fc             	mov    -0x4(%rbp),%edx
    fe82:	48 8d 35 4d 29 00 00 	lea    0x294d(%rip),%rsi        # 127d6 <g_2793+0x1736>
    fe89:	48 89 c7             	mov    %rax,%rdi
    fe8c:	e8 62 88 ff ff       	callq  86f3 <transparent_crc>
    fe91:	8b 05 6d 68 00 00    	mov    0x686d(%rip),%eax        # 16704 <g_2666+0x4>
    fe97:	89 c1                	mov    %eax,%ecx
    fe99:	8b 45 fc             	mov    -0x4(%rbp),%eax
    fe9c:	89 c2                	mov    %eax,%edx
    fe9e:	48 8d 35 3b 29 00 00 	lea    0x293b(%rip),%rsi        # 127e0 <g_2793+0x1740>
    fea5:	48 89 cf             	mov    %rcx,%rdi
    fea8:	e8 46 88 ff ff       	callq  86f3 <transparent_crc>
    fead:	8b 05 55 68 00 00    	mov    0x6855(%rip),%eax        # 16708 <g_2666+0x8>
    feb3:	48 98                	cltq   
    feb5:	8b 55 fc             	mov    -0x4(%rbp),%edx
    feb8:	48 8d 35 2b 29 00 00 	lea    0x292b(%rip),%rsi        # 127ea <g_2793+0x174a>
    febf:	48 89 c7             	mov    %rax,%rdi
    fec2:	e8 2c 88 ff ff       	callq  86f3 <transparent_crc>
    fec7:	8b 05 3f 68 00 00    	mov    0x683f(%rip),%eax        # 1670c <g_2666+0xc>
    fecd:	48 98                	cltq   
    fecf:	8b 55 fc             	mov    -0x4(%rbp),%edx
    fed2:	48 8d 35 1b 29 00 00 	lea    0x291b(%rip),%rsi        # 127f4 <g_2793+0x1754>
    fed9:	48 89 c7             	mov    %rax,%rdi
    fedc:	e8 12 88 ff ff       	callq  86f3 <transparent_crc>
    fee1:	8b 05 29 68 00 00    	mov    0x6829(%rip),%eax        # 16710 <g_2666+0x10>
    fee7:	48 98                	cltq   
    fee9:	8b 55 fc             	mov    -0x4(%rbp),%edx
    feec:	48 8d 35 0b 29 00 00 	lea    0x290b(%rip),%rsi        # 127fe <g_2793+0x175e>
    fef3:	48 89 c7             	mov    %rax,%rdi
    fef6:	e8 f8 87 ff ff       	callq  86f3 <transparent_crc>
    fefb:	8b 05 13 68 00 00    	mov    0x6813(%rip),%eax        # 16714 <g_2666+0x14>
    ff01:	48 98                	cltq   
    ff03:	8b 55 fc             	mov    -0x4(%rbp),%edx
    ff06:	48 8d 35 fb 28 00 00 	lea    0x28fb(%rip),%rsi        # 12808 <g_2793+0x1768>
    ff0d:	48 89 c7             	mov    %rax,%rdi
    ff10:	e8 de 87 ff ff       	callq  86f3 <transparent_crc>
    ff15:	8b 05 fd 67 00 00    	mov    0x67fd(%rip),%eax        # 16718 <g_2666+0x18>
    ff1b:	89 c1                	mov    %eax,%ecx
    ff1d:	8b 45 fc             	mov    -0x4(%rbp),%eax
    ff20:	89 c2                	mov    %eax,%edx
    ff22:	48 8d 35 e9 28 00 00 	lea    0x28e9(%rip),%rsi        # 12812 <g_2793+0x1772>
    ff29:	48 89 cf             	mov    %rcx,%rdi
    ff2c:	e8 c2 87 ff ff       	callq  86f3 <transparent_crc>
    ff31:	48 8b 05 e8 67 00 00 	mov    0x67e8(%rip),%rax        # 16720 <g_2684>
    ff38:	25 ff ff ff 07       	and    $0x7ffffff,%eax
    ff3d:	89 c1                	mov    %eax,%ecx
    ff3f:	8b 45 fc             	mov    -0x4(%rbp),%eax
    ff42:	89 c2                	mov    %eax,%edx
    ff44:	48 8d 35 d1 28 00 00 	lea    0x28d1(%rip),%rsi        # 1281c <g_2793+0x177c>
    ff4b:	48 89 cf             	mov    %rcx,%rdi
    ff4e:	e8 a0 87 ff ff       	callq  86f3 <transparent_crc>
    ff53:	48 8b 05 c6 67 00 00 	mov    0x67c6(%rip),%rax        # 16720 <g_2684>
    ff5a:	48 c1 e8 20          	shr    $0x20,%rax
    ff5e:	25 ff ff ff 7f       	and    $0x7fffffff,%eax
    ff63:	89 c1                	mov    %eax,%ecx
    ff65:	8b 45 fc             	mov    -0x4(%rbp),%eax
    ff68:	89 c2                	mov    %eax,%edx
    ff6a:	48 8d 35 b5 28 00 00 	lea    0x28b5(%rip),%rsi        # 12826 <g_2793+0x1786>
    ff71:	48 89 cf             	mov    %rcx,%rdi
    ff74:	e8 7a 87 ff ff       	callq  86f3 <transparent_crc>
    ff79:	8b 05 a9 67 00 00    	mov    0x67a9(%rip),%eax        # 16728 <g_2684+0x8>
    ff7f:	48 98                	cltq   
    ff81:	8b 55 fc             	mov    -0x4(%rbp),%edx
    ff84:	48 8d 35 a5 28 00 00 	lea    0x28a5(%rip),%rsi        # 12830 <g_2793+0x1790>
    ff8b:	48 89 c7             	mov    %rax,%rdi
    ff8e:	e8 60 87 ff ff       	callq  86f3 <transparent_crc>
    ff93:	0f b6 05 92 67 00 00 	movzbl 0x6792(%rip),%eax        # 1672c <g_2684+0xc>
    ff9a:	0f b6 c0             	movzbl %al,%eax
    ff9d:	8b 55 fc             	mov    -0x4(%rbp),%edx
    ffa0:	48 8d 35 93 28 00 00 	lea    0x2893(%rip),%rsi        # 1283a <g_2793+0x179a>
    ffa7:	48 89 c7             	mov    %rax,%rdi
    ffaa:	e8 44 87 ff ff       	callq  86f3 <transparent_crc>
    ffaf:	48 8b 05 72 67 00 00 	mov    0x6772(%rip),%rax        # 16728 <g_2684+0x8>
    ffb6:	48 c1 e8 28          	shr    $0x28,%rax
    ffba:	83 e0 1f             	and    $0x1f,%eax
    ffbd:	0f b6 c0             	movzbl %al,%eax
    ffc0:	8b 55 fc             	mov    -0x4(%rbp),%edx
    ffc3:	48 8d 35 7a 28 00 00 	lea    0x287a(%rip),%rsi        # 12844 <g_2793+0x17a4>
    ffca:	48 89 c7             	mov    %rax,%rdi
    ffcd:	e8 21 87 ff ff       	callq  86f3 <transparent_crc>
    ffd2:	48 8b 05 57 67 00 00 	mov    0x6757(%rip),%rax        # 16730 <g_2684+0x10>
    ffd9:	25 ff ff ff 00       	and    $0xffffff,%eax
    ffde:	89 c1                	mov    %eax,%ecx
    ffe0:	8b 45 fc             	mov    -0x4(%rbp),%eax
    ffe3:	89 c2                	mov    %eax,%edx
    ffe5:	48 8d 35 62 28 00 00 	lea    0x2862(%rip),%rsi        # 1284e <g_2793+0x17ae>
    ffec:	48 89 cf             	mov    %rcx,%rdi
    ffef:	e8 ff 86 ff ff       	callq  86f3 <transparent_crc>
    fff4:	c7 45 f0 00 00 00 00 	movl   $0x0,-0x10(%rbp)
    fffb:	eb 77                	jmp    10074 <main+0x2a44>
    fffd:	c7 45 f4 00 00 00 00 	movl   $0x0,-0xc(%rbp)
   10004:	eb 64                	jmp    1006a <main+0x2a3a>
   10006:	8b 45 f4             	mov    -0xc(%rbp),%eax
   10009:	48 63 c8             	movslq %eax,%rcx
   1000c:	8b 45 f0             	mov    -0x10(%rbp),%eax
   1000f:	48 63 d0             	movslq %eax,%rdx
   10012:	48 89 d0             	mov    %rdx,%rax
   10015:	48 c1 e0 02          	shl    $0x2,%rax
   10019:	48 01 d0             	add    %rdx,%rax
   1001c:	48 01 c0             	add    %rax,%rax
   1001f:	48 01 c8             	add    %rcx,%rax
   10022:	48 8d 14 00          	lea    (%rax,%rax,1),%rdx
   10026:	48 8d 05 13 67 00 00 	lea    0x6713(%rip),%rax        # 16740 <g_2740>
   1002d:	0f b7 04 02          	movzwl (%rdx,%rax,1),%eax
   10031:	48 0f bf c0          	movswq %ax,%rax
   10035:	8b 55 fc             	mov    -0x4(%rbp),%edx
   10038:	48 8d 35 19 28 00 00 	lea    0x2819(%rip),%rsi        # 12858 <g_2793+0x17b8>
   1003f:	48 89 c7             	mov    %rax,%rdi
   10042:	e8 ac 86 ff ff       	callq  86f3 <transparent_crc>
   10047:	83 7d fc 00          	cmpl   $0x0,-0x4(%rbp)
   1004b:	74 19                	je     10066 <main+0x2a36>
   1004d:	8b 55 f4             	mov    -0xc(%rbp),%edx
   10050:	8b 45 f0             	mov    -0x10(%rbp),%eax
   10053:	89 c6                	mov    %eax,%esi
   10055:	48 8d 3d 57 1e 00 00 	lea    0x1e57(%rip),%rdi        # 11eb3 <g_2793+0xe13>
   1005c:	b8 00 00 00 00       	mov    $0x0,%eax
   10061:	e8 1a 70 ff ff       	callq  7080 <printf@plt>
   10066:	83 45 f4 01          	addl   $0x1,-0xc(%rbp)
   1006a:	83 7d f4 09          	cmpl   $0x9,-0xc(%rbp)
   1006e:	7e 96                	jle    10006 <main+0x29d6>
   10070:	83 45 f0 01          	addl   $0x1,-0x10(%rbp)
   10074:	83 7d f0 07          	cmpl   $0x7,-0x10(%rbp)
   10078:	7e 83                	jle    fffd <main+0x29cd>
   1007a:	48 8b 05 5f 67 00 00 	mov    0x675f(%rip),%rax        # 167e0 <g_2749>
   10081:	25 ff ff ff 07       	and    $0x7ffffff,%eax
   10086:	89 c1                	mov    %eax,%ecx
   10088:	8b 45 fc             	mov    -0x4(%rbp),%eax
   1008b:	89 c2                	mov    %eax,%edx
   1008d:	48 8d 35 d1 27 00 00 	lea    0x27d1(%rip),%rsi        # 12865 <g_2793+0x17c5>
   10094:	48 89 cf             	mov    %rcx,%rdi
   10097:	e8 57 86 ff ff       	callq  86f3 <transparent_crc>
   1009c:	48 8b 05 3d 67 00 00 	mov    0x673d(%rip),%rax        # 167e0 <g_2749>
   100a3:	48 c1 e8 20          	shr    $0x20,%rax
   100a7:	25 ff ff ff 7f       	and    $0x7fffffff,%eax
   100ac:	89 c1                	mov    %eax,%ecx
   100ae:	8b 45 fc             	mov    -0x4(%rbp),%eax
   100b1:	89 c2                	mov    %eax,%edx
   100b3:	48 8d 35 b5 27 00 00 	lea    0x27b5(%rip),%rsi        # 1286f <g_2793+0x17cf>
   100ba:	48 89 cf             	mov    %rcx,%rdi
   100bd:	e8 31 86 ff ff       	callq  86f3 <transparent_crc>
   100c2:	8b 05 20 67 00 00    	mov    0x6720(%rip),%eax        # 167e8 <g_2749+0x8>
   100c8:	48 98                	cltq   
   100ca:	8b 55 fc             	mov    -0x4(%rbp),%edx
   100cd:	48 8d 35 a5 27 00 00 	lea    0x27a5(%rip),%rsi        # 12879 <g_2793+0x17d9>
   100d4:	48 89 c7             	mov    %rax,%rdi
   100d7:	e8 17 86 ff ff       	callq  86f3 <transparent_crc>
   100dc:	0f b6 05 09 67 00 00 	movzbl 0x6709(%rip),%eax        # 167ec <g_2749+0xc>
   100e3:	0f b6 c0             	movzbl %al,%eax
   100e6:	8b 55 fc             	mov    -0x4(%rbp),%edx
   100e9:	48 8d 35 93 27 00 00 	lea    0x2793(%rip),%rsi        # 12883 <g_2793+0x17e3>
   100f0:	48 89 c7             	mov    %rax,%rdi
   100f3:	e8 fb 85 ff ff       	callq  86f3 <transparent_crc>
   100f8:	48 8b 05 e9 66 00 00 	mov    0x66e9(%rip),%rax        # 167e8 <g_2749+0x8>
   100ff:	48 c1 e8 28          	shr    $0x28,%rax
   10103:	83 e0 1f             	and    $0x1f,%eax
   10106:	0f b6 c0             	movzbl %al,%eax
   10109:	8b 55 fc             	mov    -0x4(%rbp),%edx
   1010c:	48 8d 35 7a 27 00 00 	lea    0x277a(%rip),%rsi        # 1288d <g_2793+0x17ed>
   10113:	48 89 c7             	mov    %rax,%rdi
   10116:	e8 d8 85 ff ff       	callq  86f3 <transparent_crc>
   1011b:	8b 05 cf 66 00 00    	mov    0x66cf(%rip),%eax        # 167f0 <g_2749+0x10>
   10121:	25 ff ff ff 00       	and    $0xffffff,%eax
   10126:	89 c1                	mov    %eax,%ecx
   10128:	8b 45 fc             	mov    -0x4(%rbp),%eax
   1012b:	89 c2                	mov    %eax,%edx
   1012d:	48 8d 35 63 27 00 00 	lea    0x2763(%rip),%rsi        # 12897 <g_2793+0x17f7>
   10134:	48 89 cf             	mov    %rcx,%rdi
   10137:	e8 b7 85 ff ff       	callq  86f3 <transparent_crc>
   1013c:	c7 45 f0 00 00 00 00 	movl   $0x0,-0x10(%rbp)
   10143:	eb 4b                	jmp    10190 <main+0x2b60>
   10145:	8b 45 f0             	mov    -0x10(%rbp),%eax
   10148:	48 98                	cltq   
   1014a:	48 8d 14 85 00 00 00 	lea    0x0(,%rax,4),%rdx
   10151:	00 
   10152:	48 8d 05 a7 66 00 00 	lea    0x66a7(%rip),%rax        # 16800 <g_2754>
   10159:	8b 04 02             	mov    (%rdx,%rax,1),%eax
   1015c:	48 98                	cltq   
   1015e:	8b 55 fc             	mov    -0x4(%rbp),%edx
   10161:	48 8d 35 39 27 00 00 	lea    0x2739(%rip),%rsi        # 128a1 <g_2793+0x1801>
   10168:	48 89 c7             	mov    %rax,%rdi
   1016b:	e8 83 85 ff ff       	callq  86f3 <transparent_crc>
   10170:	83 7d fc 00          	cmpl   $0x0,-0x4(%rbp)
   10174:	74 16                	je     1018c <main+0x2b5c>
   10176:	8b 45 f0             	mov    -0x10(%rbp),%eax
   10179:	89 c6                	mov    %eax,%esi
   1017b:	48 8d 3d bf 1c 00 00 	lea    0x1cbf(%rip),%rdi        # 11e41 <g_2793+0xda1>
   10182:	b8 00 00 00 00       	mov    $0x0,%eax
   10187:	e8 f4 6e ff ff       	callq  7080 <printf@plt>
   1018c:	83 45 f0 01          	addl   $0x1,-0x10(%rbp)
   10190:	83 7d f0 03          	cmpl   $0x3,-0x10(%rbp)
   10194:	7e af                	jle    10145 <main+0x2b15>
   10196:	48 8b 05 73 66 00 00 	mov    0x6673(%rip),%rax        # 16810 <g_2787>
   1019d:	25 ff ff ff 07       	and    $0x7ffffff,%eax
   101a2:	89 c1                	mov    %eax,%ecx
   101a4:	8b 45 fc             	mov    -0x4(%rbp),%eax
   101a7:	89 c2                	mov    %eax,%edx
   101a9:	48 8d 35 fb 26 00 00 	lea    0x26fb(%rip),%rsi        # 128ab <g_2793+0x180b>
   101b0:	48 89 cf             	mov    %rcx,%rdi
   101b3:	e8 3b 85 ff ff       	callq  86f3 <transparent_crc>
   101b8:	48 8b 05 51 66 00 00 	mov    0x6651(%rip),%rax        # 16810 <g_2787>
   101bf:	48 c1 e8 20          	shr    $0x20,%rax
   101c3:	25 ff ff ff 7f       	and    $0x7fffffff,%eax
   101c8:	89 c1                	mov    %eax,%ecx
   101ca:	8b 45 fc             	mov    -0x4(%rbp),%eax
   101cd:	89 c2                	mov    %eax,%edx
   101cf:	48 8d 35 df 26 00 00 	lea    0x26df(%rip),%rsi        # 128b5 <g_2793+0x1815>
   101d6:	48 89 cf             	mov    %rcx,%rdi
   101d9:	e8 15 85 ff ff       	callq  86f3 <transparent_crc>
   101de:	8b 05 34 66 00 00    	mov    0x6634(%rip),%eax        # 16818 <g_2787+0x8>
   101e4:	48 98                	cltq   
   101e6:	8b 55 fc             	mov    -0x4(%rbp),%edx
   101e9:	48 8d 35 cf 26 00 00 	lea    0x26cf(%rip),%rsi        # 128bf <g_2793+0x181f>
   101f0:	48 89 c7             	mov    %rax,%rdi
   101f3:	e8 fb 84 ff ff       	callq  86f3 <transparent_crc>
   101f8:	0f b6 05 1d 66 00 00 	movzbl 0x661d(%rip),%eax        # 1681c <g_2787+0xc>
   101ff:	0f b6 c0             	movzbl %al,%eax
   10202:	8b 55 fc             	mov    -0x4(%rbp),%edx
   10205:	48 8d 35 bd 26 00 00 	lea    0x26bd(%rip),%rsi        # 128c9 <g_2793+0x1829>
   1020c:	48 89 c7             	mov    %rax,%rdi
   1020f:	e8 df 84 ff ff       	callq  86f3 <transparent_crc>
   10214:	48 8b 05 fd 65 00 00 	mov    0x65fd(%rip),%rax        # 16818 <g_2787+0x8>
   1021b:	48 c1 e8 28          	shr    $0x28,%rax
   1021f:	83 e0 1f             	and    $0x1f,%eax
   10222:	0f b6 c0             	movzbl %al,%eax
   10225:	8b 55 fc             	mov    -0x4(%rbp),%edx
   10228:	48 8d 35 a4 26 00 00 	lea    0x26a4(%rip),%rsi        # 128d3 <g_2793+0x1833>
   1022f:	48 89 c7             	mov    %rax,%rdi
   10232:	e8 bc 84 ff ff       	callq  86f3 <transparent_crc>
   10237:	8b 05 e3 65 00 00    	mov    0x65e3(%rip),%eax        # 16820 <g_2787+0x10>
   1023d:	25 ff ff ff 00       	and    $0xffffff,%eax
   10242:	89 c1                	mov    %eax,%ecx
   10244:	8b 45 fc             	mov    -0x4(%rbp),%eax
   10247:	89 c2                	mov    %eax,%edx
   10249:	48 8d 35 8d 26 00 00 	lea    0x268d(%rip),%rsi        # 128dd <g_2793+0x183d>
   10250:	48 89 cf             	mov    %rcx,%rdi
   10253:	e8 9b 84 ff ff       	callq  86f3 <transparent_crc>
   10258:	48 8b 05 41 0e 00 00 	mov    0xe41(%rip),%rax        # 110a0 <g_2793>
   1025f:	25 ff ff ff 07       	and    $0x7ffffff,%eax
   10264:	89 c1                	mov    %eax,%ecx
   10266:	8b 45 fc             	mov    -0x4(%rbp),%eax
   10269:	89 c2                	mov    %eax,%edx
   1026b:	48 8d 35 75 26 00 00 	lea    0x2675(%rip),%rsi        # 128e7 <g_2793+0x1847>
   10272:	48 89 cf             	mov    %rcx,%rdi
   10275:	e8 79 84 ff ff       	callq  86f3 <transparent_crc>
   1027a:	48 8b 05 1f 0e 00 00 	mov    0xe1f(%rip),%rax        # 110a0 <g_2793>
   10281:	48 c1 e8 20          	shr    $0x20,%rax
   10285:	25 ff ff ff 7f       	and    $0x7fffffff,%eax
   1028a:	89 c1                	mov    %eax,%ecx
   1028c:	8b 45 fc             	mov    -0x4(%rbp),%eax
   1028f:	89 c2                	mov    %eax,%edx
   10291:	48 8d 35 59 26 00 00 	lea    0x2659(%rip),%rsi        # 128f1 <g_2793+0x1851>
   10298:	48 89 cf             	mov    %rcx,%rdi
   1029b:	e8 53 84 ff ff       	callq  86f3 <transparent_crc>
   102a0:	b8 c0 11 53 59       	mov    $0x595311c0,%eax
   102a5:	48 98                	cltq   
   102a7:	8b 55 fc             	mov    -0x4(%rbp),%edx
   102aa:	48 8d 35 4a 26 00 00 	lea    0x264a(%rip),%rsi        # 128fb <g_2793+0x185b>
   102b1:	48 89 c7             	mov    %rax,%rdi
   102b4:	e8 3a 84 ff ff       	callq  86f3 <transparent_crc>
   102b9:	b8 24 00 00 00       	mov    $0x24,%eax
   102be:	0f b6 c0             	movzbl %al,%eax
   102c1:	8b 55 fc             	mov    -0x4(%rbp),%edx
   102c4:	48 8d 35 3a 26 00 00 	lea    0x263a(%rip),%rsi        # 12905 <g_2793+0x1865>
   102cb:	48 89 c7             	mov    %rax,%rdi
   102ce:	e8 20 84 ff ff       	callq  86f3 <transparent_crc>
   102d3:	48 8b 05 ce 0d 00 00 	mov    0xdce(%rip),%rax        # 110a8 <g_2793+0x8>
   102da:	48 c1 e8 28          	shr    $0x28,%rax
   102de:	83 e0 1f             	and    $0x1f,%eax
   102e1:	0f b6 c0             	movzbl %al,%eax
   102e4:	8b 55 fc             	mov    -0x4(%rbp),%edx
   102e7:	48 8d 35 21 26 00 00 	lea    0x2621(%rip),%rsi        # 1290f <g_2793+0x186f>
   102ee:	48 89 c7             	mov    %rax,%rdi
   102f1:	e8 fd 83 ff ff       	callq  86f3 <transparent_crc>
   102f6:	b8 78 06 00 00       	mov    $0x678,%eax
   102fb:	89 c1                	mov    %eax,%ecx
   102fd:	8b 45 fc             	mov    -0x4(%rbp),%eax
   10300:	89 c2                	mov    %eax,%edx
   10302:	48 8d 35 10 26 00 00 	lea    0x2610(%rip),%rsi        # 12919 <g_2793+0x1879>
   10309:	48 89 cf             	mov    %rcx,%rdi
   1030c:	e8 e2 83 ff ff       	callq  86f3 <transparent_crc>
   10311:	8b 05 09 4d 00 00    	mov    0x4d09(%rip),%eax        # 15020 <crc32_context>
   10317:	f7 d0                	not    %eax
   10319:	89 c2                	mov    %eax,%edx
   1031b:	8b 45 fc             	mov    -0x4(%rbp),%eax
   1031e:	89 c6                	mov    %eax,%esi
   10320:	89 d7                	mov    %edx,%edi
   10322:	e8 6d 6e ff ff       	callq  7194 <platform_main_end>
   10327:	b8 00 00 00 00       	mov    $0x0,%eax
   1032c:	c9                   	leaveq 
   1032d:	c3                   	retq   
   1032e:	66 90                	xchg   %ax,%ax

0000000000010330 <__libc_csu_init>:
   10330:	f3 0f 1e fa          	endbr64 
   10334:	41 57                	push   %r15
   10336:	4c 8d 3d f3 49 00 00 	lea    0x49f3(%rip),%r15        # 14d30 <__frame_dummy_init_array_entry>
   1033d:	41 56                	push   %r14
   1033f:	49 89 d6             	mov    %rdx,%r14
   10342:	41 55                	push   %r13
   10344:	49 89 f5             	mov    %rsi,%r13
   10347:	41 54                	push   %r12
   10349:	41 89 fc             	mov    %edi,%r12d
   1034c:	55                   	push   %rbp
   1034d:	48 8d 2d e4 49 00 00 	lea    0x49e4(%rip),%rbp        # 14d38 <__do_global_dtors_aux_fini_array_entry>
   10354:	53                   	push   %rbx
   10355:	4c 29 fd             	sub    %r15,%rbp
   10358:	48 83 ec 08          	sub    $0x8,%rsp
   1035c:	e8 9f 6c ff ff       	callq  7000 <_init>
   10361:	48 c1 fd 03          	sar    $0x3,%rbp
   10365:	74 1f                	je     10386 <__libc_csu_init+0x56>
   10367:	31 db                	xor    %ebx,%ebx
   10369:	0f 1f 80 00 00 00 00 	nopl   0x0(%rax)
   10370:	4c 89 f2             	mov    %r14,%rdx
   10373:	4c 89 ee             	mov    %r13,%rsi
   10376:	44 89 e7             	mov    %r12d,%edi
   10379:	41 ff 14 df          	callq  *(%r15,%rbx,8)
   1037d:	48 83 c3 01          	add    $0x1,%rbx
   10381:	48 39 dd             	cmp    %rbx,%rbp
   10384:	75 ea                	jne    10370 <__libc_csu_init+0x40>
   10386:	48 83 c4 08          	add    $0x8,%rsp
   1038a:	5b                   	pop    %rbx
   1038b:	5d                   	pop    %rbp
   1038c:	41 5c                	pop    %r12
   1038e:	41 5d                	pop    %r13
   10390:	41 5e                	pop    %r14
   10392:	41 5f                	pop    %r15
   10394:	c3                   	retq   
   10395:	66 66 2e 0f 1f 84 00 	data16 nopw %cs:0x0(%rax,%rax,1)
   1039c:	00 00 00 00 

00000000000103a0 <__libc_csu_fini>:
   103a0:	f3 0f 1e fa          	endbr64 
   103a4:	c3                   	retq   
