


Disassembly of section .text:

000000000000a0a0 <_start>:
    a0a0:	f3 0f 1e fa          	endbr64 
    a0a4:	31 ed                	xor    %ebp,%ebp
    a0a6:	49 89 d1             	mov    %rdx,%r9
    a0a9:	5e                   	pop    %rsi
    a0aa:	48 89 e2             	mov    %rsp,%rdx
    a0ad:	48 83 e4 f0          	and    $0xfffffffffffffff0,%rsp
    a0b1:	50                   	push   %rax
    a0b2:	54                   	push   %rsp
    a0b3:	4c 8d 05 f6 ca 00 00 	lea    0xcaf6(%rip),%r8        # 16bb0 <__libc_csu_fini>
    a0ba:	48 8d 0d 7f ca 00 00 	lea    0xca7f(%rip),%rcx        # 16b40 <__libc_csu_init>
    a0c1:	48 8d 3d a7 ac 00 00 	lea    0xaca7(%rip),%rdi        # 14d6f <main>
    a0c8:	ff 15 fa 1e 01 00    	callq  *0x11efa(%rip)        # 1bfc8 <__libc_start_main@GLIBC_2.2.5>
    a0ce:	f4                   	hlt    
    a0cf:	90                   	nop

000000000000a0d0 <deregister_tm_clones>:
    a0d0:	48 8d 3d d9 67 01 00 	lea    0x167d9(%rip),%rdi        # 208b0 <__TMC_END__>
    a0d7:	48 8d 05 d2 67 01 00 	lea    0x167d2(%rip),%rax        # 208b0 <__TMC_END__>
    a0de:	48 39 f8             	cmp    %rdi,%rax
    a0e1:	74 15                	je     a0f8 <deregister_tm_clones+0x28>
    a0e3:	48 8b 05 d6 1e 01 00 	mov    0x11ed6(%rip),%rax        # 1bfc0 <_ITM_deregisterTMCloneTable>
    a0ea:	48 85 c0             	test   %rax,%rax
    a0ed:	74 09                	je     a0f8 <deregister_tm_clones+0x28>
    a0ef:	ff e0                	jmpq   *%rax
    a0f1:	0f 1f 80 00 00 00 00 	nopl   0x0(%rax)
    a0f8:	c3                   	retq   
    a0f9:	0f 1f 80 00 00 00 00 	nopl   0x0(%rax)

000000000000a100 <register_tm_clones>:
    a100:	48 8d 3d a9 67 01 00 	lea    0x167a9(%rip),%rdi        # 208b0 <__TMC_END__>
    a107:	48 8d 35 a2 67 01 00 	lea    0x167a2(%rip),%rsi        # 208b0 <__TMC_END__>
    a10e:	48 29 fe             	sub    %rdi,%rsi
    a111:	48 89 f0             	mov    %rsi,%rax
    a114:	48 c1 ee 3f          	shr    $0x3f,%rsi
    a118:	48 c1 f8 03          	sar    $0x3,%rax
    a11c:	48 01 c6             	add    %rax,%rsi
    a11f:	48 d1 fe             	sar    %rsi
    a122:	74 14                	je     a138 <register_tm_clones+0x38>
    a124:	48 8b 05 ad 1e 01 00 	mov    0x11ead(%rip),%rax        # 1bfd8 <_ITM_registerTMCloneTable>
    a12b:	48 85 c0             	test   %rax,%rax
    a12e:	74 08                	je     a138 <register_tm_clones+0x38>
    a130:	ff e0                	jmpq   *%rax
    a132:	66 0f 1f 44 00 00    	nopw   0x0(%rax,%rax,1)
    a138:	c3                   	retq   
    a139:	0f 1f 80 00 00 00 00 	nopl   0x0(%rax)

000000000000a140 <__do_global_dtors_aux>:
    a140:	f3 0f 1e fa          	endbr64 
    a144:	80 3d 75 67 01 00 00 	cmpb   $0x0,0x16775(%rip)        # 208c0 <completed.8061>
    a14b:	75 2b                	jne    a178 <__do_global_dtors_aux+0x38>
    a14d:	55                   	push   %rbp
    a14e:	48 83 3d 8a 1e 01 00 	cmpq   $0x0,0x11e8a(%rip)        # 1bfe0 <__cxa_finalize@GLIBC_2.2.5>
    a155:	00 
    a156:	48 89 e5             	mov    %rsp,%rbp
    a159:	74 0c                	je     a167 <__do_global_dtors_aux+0x27>
    a15b:	48 8b 3d a6 1e 01 00 	mov    0x11ea6(%rip),%rdi        # 1c008 <__dso_handle>
    a162:	e8 f9 fe ff ff       	callq  a060 <__cxa_finalize@plt>
    a167:	e8 64 ff ff ff       	callq  a0d0 <deregister_tm_clones>
    a16c:	c6 05 4d 67 01 00 01 	movb   $0x1,0x1674d(%rip)        # 208c0 <completed.8061>
    a173:	5d                   	pop    %rbp
    a174:	c3                   	retq   
    a175:	0f 1f 00             	nopl   (%rax)
    a178:	c3                   	retq   
    a179:	0f 1f 80 00 00 00 00 	nopl   0x0(%rax)

000000000000a180 <frame_dummy>:
    a180:	f3 0f 1e fa          	endbr64 
    a184:	e9 77 ff ff ff       	jmpq   a100 <register_tm_clones>

000000000000a189 <platform_main_begin>:
    a189:	f3 0f 1e fa          	endbr64 
    a18d:	55                   	push   %rbp
    a18e:	48 89 e5             	mov    %rsp,%rbp
    a191:	90                   	nop
    a192:	5d                   	pop    %rbp
    a193:	c3                   	retq   

000000000000a194 <platform_main_end>:
    a194:	f3 0f 1e fa          	endbr64 
    a198:	55                   	push   %rbp
    a199:	48 89 e5             	mov    %rsp,%rbp
    a19c:	48 83 ec 10          	sub    $0x10,%rsp
    a1a0:	89 7d fc             	mov    %edi,-0x4(%rbp)
    a1a3:	89 75 f8             	mov    %esi,-0x8(%rbp)
    a1a6:	8b 45 fc             	mov    -0x4(%rbp),%eax
    a1a9:	89 c6                	mov    %eax,%esi
    a1ab:	48 8d 3d 6e ce 00 00 	lea    0xce6e(%rip),%rdi        # 17020 <_IO_stdin_used+0x20>
    a1b2:	b8 00 00 00 00       	mov    $0x0,%eax
    a1b7:	e8 c4 fe ff ff       	callq  a080 <printf@plt>
    a1bc:	90                   	nop
    a1bd:	c9                   	leaveq 
    a1be:	c3                   	retq   

000000000000a1bf <safe_unary_minus_func_int8_t_s>:
    a1bf:	f3 0f 1e fa          	endbr64 
    a1c3:	55                   	push   %rbp
    a1c4:	48 89 e5             	mov    %rsp,%rbp
    a1c7:	89 f8                	mov    %edi,%eax
    a1c9:	88 45 fc             	mov    %al,-0x4(%rbp)
    a1cc:	0f b6 45 fc          	movzbl -0x4(%rbp),%eax
    a1d0:	f7 d8                	neg    %eax
    a1d2:	5d                   	pop    %rbp
    a1d3:	c3                   	retq   

000000000000a1d4 <safe_add_func_int8_t_s_s>:
    a1d4:	f3 0f 1e fa          	endbr64 
    a1d8:	55                   	push   %rbp
    a1d9:	48 89 e5             	mov    %rsp,%rbp
    a1dc:	89 fa                	mov    %edi,%edx
    a1de:	89 f0                	mov    %esi,%eax
    a1e0:	88 55 fc             	mov    %dl,-0x4(%rbp)
    a1e3:	88 45 f8             	mov    %al,-0x8(%rbp)
    a1e6:	0f b6 55 fc          	movzbl -0x4(%rbp),%edx
    a1ea:	0f b6 45 f8          	movzbl -0x8(%rbp),%eax
    a1ee:	01 d0                	add    %edx,%eax
    a1f0:	5d                   	pop    %rbp
    a1f1:	c3                   	retq   

000000000000a1f2 <safe_sub_func_int8_t_s_s>:
    a1f2:	f3 0f 1e fa          	endbr64 
    a1f6:	55                   	push   %rbp
    a1f7:	48 89 e5             	mov    %rsp,%rbp
    a1fa:	89 fa                	mov    %edi,%edx
    a1fc:	89 f0                	mov    %esi,%eax
    a1fe:	88 55 fc             	mov    %dl,-0x4(%rbp)
    a201:	88 45 f8             	mov    %al,-0x8(%rbp)
    a204:	0f b6 55 fc          	movzbl -0x4(%rbp),%edx
    a208:	0f b6 45 f8          	movzbl -0x8(%rbp),%eax
    a20c:	29 c2                	sub    %eax,%edx
    a20e:	89 d0                	mov    %edx,%eax
    a210:	5d                   	pop    %rbp
    a211:	c3                   	retq   

000000000000a212 <safe_mul_func_int8_t_s_s>:
    a212:	f3 0f 1e fa          	endbr64 
    a216:	55                   	push   %rbp
    a217:	48 89 e5             	mov    %rsp,%rbp
    a21a:	89 fa                	mov    %edi,%edx
    a21c:	89 f0                	mov    %esi,%eax
    a21e:	88 55 fc             	mov    %dl,-0x4(%rbp)
    a221:	88 45 f8             	mov    %al,-0x8(%rbp)
    a224:	0f b6 45 fc          	movzbl -0x4(%rbp),%eax
    a228:	0f b6 55 f8          	movzbl -0x8(%rbp),%edx
    a22c:	0f af c2             	imul   %edx,%eax
    a22f:	5d                   	pop    %rbp
    a230:	c3                   	retq   

000000000000a231 <safe_mod_func_int8_t_s_s>:
    a231:	f3 0f 1e fa          	endbr64 
    a235:	55                   	push   %rbp
    a236:	48 89 e5             	mov    %rsp,%rbp
    a239:	89 fa                	mov    %edi,%edx
    a23b:	89 f0                	mov    %esi,%eax
    a23d:	88 55 fc             	mov    %dl,-0x4(%rbp)
    a240:	88 45 f8             	mov    %al,-0x8(%rbp)
    a243:	80 7d f8 00          	cmpb   $0x0,-0x8(%rbp)
    a247:	74 1b                	je     a264 <safe_mod_func_int8_t_s_s+0x33>
    a249:	80 7d fc 80          	cmpb   $0x80,-0x4(%rbp)
    a24d:	75 06                	jne    a255 <safe_mod_func_int8_t_s_s+0x24>
    a24f:	80 7d f8 ff          	cmpb   $0xff,-0x8(%rbp)
    a253:	74 0f                	je     a264 <safe_mod_func_int8_t_s_s+0x33>
    a255:	0f be 45 fc          	movsbl -0x4(%rbp),%eax
    a259:	0f be 4d f8          	movsbl -0x8(%rbp),%ecx
    a25d:	99                   	cltd   
    a25e:	f7 f9                	idiv   %ecx
    a260:	89 d0                	mov    %edx,%eax
    a262:	eb 04                	jmp    a268 <safe_mod_func_int8_t_s_s+0x37>
    a264:	0f b6 45 fc          	movzbl -0x4(%rbp),%eax
    a268:	5d                   	pop    %rbp
    a269:	c3                   	retq   

000000000000a26a <safe_div_func_int8_t_s_s>:
    a26a:	f3 0f 1e fa          	endbr64 
    a26e:	55                   	push   %rbp
    a26f:	48 89 e5             	mov    %rsp,%rbp
    a272:	89 fa                	mov    %edi,%edx
    a274:	89 f0                	mov    %esi,%eax
    a276:	88 55 fc             	mov    %dl,-0x4(%rbp)
    a279:	88 45 f8             	mov    %al,-0x8(%rbp)
    a27c:	80 7d f8 00          	cmpb   $0x0,-0x8(%rbp)
    a280:	74 19                	je     a29b <safe_div_func_int8_t_s_s+0x31>
    a282:	80 7d fc 80          	cmpb   $0x80,-0x4(%rbp)
    a286:	75 06                	jne    a28e <safe_div_func_int8_t_s_s+0x24>
    a288:	80 7d f8 ff          	cmpb   $0xff,-0x8(%rbp)
    a28c:	74 0d                	je     a29b <safe_div_func_int8_t_s_s+0x31>
    a28e:	0f be 45 fc          	movsbl -0x4(%rbp),%eax
    a292:	0f be 4d f8          	movsbl -0x8(%rbp),%ecx
    a296:	99                   	cltd   
    a297:	f7 f9                	idiv   %ecx
    a299:	eb 04                	jmp    a29f <safe_div_func_int8_t_s_s+0x35>
    a29b:	0f b6 45 fc          	movzbl -0x4(%rbp),%eax
    a29f:	5d                   	pop    %rbp
    a2a0:	c3                   	retq   

000000000000a2a1 <safe_lshift_func_int8_t_s_s>:
    a2a1:	f3 0f 1e fa          	endbr64 
    a2a5:	55                   	push   %rbp
    a2a6:	48 89 e5             	mov    %rsp,%rbp
    a2a9:	89 f8                	mov    %edi,%eax
    a2ab:	89 75 f8             	mov    %esi,-0x8(%rbp)
    a2ae:	88 45 fc             	mov    %al,-0x4(%rbp)
    a2b1:	80 7d fc 00          	cmpb   $0x0,-0x4(%rbp)
    a2b5:	78 31                	js     a2e8 <safe_lshift_func_int8_t_s_s+0x47>
    a2b7:	83 7d f8 00          	cmpl   $0x0,-0x8(%rbp)
    a2bb:	78 2b                	js     a2e8 <safe_lshift_func_int8_t_s_s+0x47>
    a2bd:	83 7d f8 1f          	cmpl   $0x1f,-0x8(%rbp)
    a2c1:	7f 25                	jg     a2e8 <safe_lshift_func_int8_t_s_s+0x47>
    a2c3:	0f be 55 fc          	movsbl -0x4(%rbp),%edx
    a2c7:	8b 45 f8             	mov    -0x8(%rbp),%eax
    a2ca:	be 7f 00 00 00       	mov    $0x7f,%esi
    a2cf:	89 c1                	mov    %eax,%ecx
    a2d1:	d3 fe                	sar    %cl,%esi
    a2d3:	89 f0                	mov    %esi,%eax
    a2d5:	39 c2                	cmp    %eax,%edx
    a2d7:	7f 0f                	jg     a2e8 <safe_lshift_func_int8_t_s_s+0x47>
    a2d9:	0f be 55 fc          	movsbl -0x4(%rbp),%edx
    a2dd:	8b 45 f8             	mov    -0x8(%rbp),%eax
    a2e0:	89 c1                	mov    %eax,%ecx
    a2e2:	d3 e2                	shl    %cl,%edx
    a2e4:	89 d0                	mov    %edx,%eax
    a2e6:	eb 04                	jmp    a2ec <safe_lshift_func_int8_t_s_s+0x4b>
    a2e8:	0f b6 45 fc          	movzbl -0x4(%rbp),%eax
    a2ec:	5d                   	pop    %rbp
    a2ed:	c3                   	retq   

000000000000a2ee <safe_lshift_func_int8_t_s_u>:
    a2ee:	f3 0f 1e fa          	endbr64 
    a2f2:	55                   	push   %rbp
    a2f3:	48 89 e5             	mov    %rsp,%rbp
    a2f6:	89 f8                	mov    %edi,%eax
    a2f8:	89 75 f8             	mov    %esi,-0x8(%rbp)
    a2fb:	88 45 fc             	mov    %al,-0x4(%rbp)
    a2fe:	80 7d fc 00          	cmpb   $0x0,-0x4(%rbp)
    a302:	78 2b                	js     a32f <safe_lshift_func_int8_t_s_u+0x41>
    a304:	83 7d f8 1f          	cmpl   $0x1f,-0x8(%rbp)
    a308:	77 25                	ja     a32f <safe_lshift_func_int8_t_s_u+0x41>
    a30a:	0f be 55 fc          	movsbl -0x4(%rbp),%edx
    a30e:	8b 45 f8             	mov    -0x8(%rbp),%eax
    a311:	be 7f 00 00 00       	mov    $0x7f,%esi
    a316:	89 c1                	mov    %eax,%ecx
    a318:	d3 fe                	sar    %cl,%esi
    a31a:	89 f0                	mov    %esi,%eax
    a31c:	39 c2                	cmp    %eax,%edx
    a31e:	7f 0f                	jg     a32f <safe_lshift_func_int8_t_s_u+0x41>
    a320:	0f be 55 fc          	movsbl -0x4(%rbp),%edx
    a324:	8b 45 f8             	mov    -0x8(%rbp),%eax
    a327:	89 c1                	mov    %eax,%ecx
    a329:	d3 e2                	shl    %cl,%edx
    a32b:	89 d0                	mov    %edx,%eax
    a32d:	eb 04                	jmp    a333 <safe_lshift_func_int8_t_s_u+0x45>
    a32f:	0f b6 45 fc          	movzbl -0x4(%rbp),%eax
    a333:	5d                   	pop    %rbp
    a334:	c3                   	retq   

000000000000a335 <safe_rshift_func_int8_t_s_s>:
    a335:	f3 0f 1e fa          	endbr64 
    a339:	55                   	push   %rbp
    a33a:	48 89 e5             	mov    %rsp,%rbp
    a33d:	89 f8                	mov    %edi,%eax
    a33f:	89 75 f8             	mov    %esi,-0x8(%rbp)
    a342:	88 45 fc             	mov    %al,-0x4(%rbp)
    a345:	80 7d fc 00          	cmpb   $0x0,-0x4(%rbp)
    a349:	78 1b                	js     a366 <safe_rshift_func_int8_t_s_s+0x31>
    a34b:	83 7d f8 00          	cmpl   $0x0,-0x8(%rbp)
    a34f:	78 15                	js     a366 <safe_rshift_func_int8_t_s_s+0x31>
    a351:	83 7d f8 1f          	cmpl   $0x1f,-0x8(%rbp)
    a355:	7f 0f                	jg     a366 <safe_rshift_func_int8_t_s_s+0x31>
    a357:	0f be 55 fc          	movsbl -0x4(%rbp),%edx
    a35b:	8b 45 f8             	mov    -0x8(%rbp),%eax
    a35e:	89 c1                	mov    %eax,%ecx
    a360:	d3 fa                	sar    %cl,%edx
    a362:	89 d0                	mov    %edx,%eax
    a364:	eb 04                	jmp    a36a <safe_rshift_func_int8_t_s_s+0x35>
    a366:	0f b6 45 fc          	movzbl -0x4(%rbp),%eax
    a36a:	5d                   	pop    %rbp
    a36b:	c3                   	retq   

000000000000a36c <safe_rshift_func_int8_t_s_u>:
    a36c:	f3 0f 1e fa          	endbr64 
    a370:	55                   	push   %rbp
    a371:	48 89 e5             	mov    %rsp,%rbp
    a374:	89 f8                	mov    %edi,%eax
    a376:	89 75 f8             	mov    %esi,-0x8(%rbp)
    a379:	88 45 fc             	mov    %al,-0x4(%rbp)
    a37c:	80 7d fc 00          	cmpb   $0x0,-0x4(%rbp)
    a380:	78 15                	js     a397 <safe_rshift_func_int8_t_s_u+0x2b>
    a382:	83 7d f8 1f          	cmpl   $0x1f,-0x8(%rbp)
    a386:	77 0f                	ja     a397 <safe_rshift_func_int8_t_s_u+0x2b>
    a388:	0f be 55 fc          	movsbl -0x4(%rbp),%edx
    a38c:	8b 45 f8             	mov    -0x8(%rbp),%eax
    a38f:	89 c1                	mov    %eax,%ecx
    a391:	d3 fa                	sar    %cl,%edx
    a393:	89 d0                	mov    %edx,%eax
    a395:	eb 04                	jmp    a39b <safe_rshift_func_int8_t_s_u+0x2f>
    a397:	0f b6 45 fc          	movzbl -0x4(%rbp),%eax
    a39b:	5d                   	pop    %rbp
    a39c:	c3                   	retq   

000000000000a39d <safe_unary_minus_func_int16_t_s>:
    a39d:	f3 0f 1e fa          	endbr64 
    a3a1:	55                   	push   %rbp
    a3a2:	48 89 e5             	mov    %rsp,%rbp
    a3a5:	89 f8                	mov    %edi,%eax
    a3a7:	66 89 45 fc          	mov    %ax,-0x4(%rbp)
    a3ab:	0f b7 45 fc          	movzwl -0x4(%rbp),%eax
    a3af:	f7 d8                	neg    %eax
    a3b1:	5d                   	pop    %rbp
    a3b2:	c3                   	retq   

000000000000a3b3 <safe_add_func_int16_t_s_s>:
    a3b3:	f3 0f 1e fa          	endbr64 
    a3b7:	55                   	push   %rbp
    a3b8:	48 89 e5             	mov    %rsp,%rbp
    a3bb:	89 fa                	mov    %edi,%edx
    a3bd:	89 f0                	mov    %esi,%eax
    a3bf:	66 89 55 fc          	mov    %dx,-0x4(%rbp)
    a3c3:	66 89 45 f8          	mov    %ax,-0x8(%rbp)
    a3c7:	0f b7 55 fc          	movzwl -0x4(%rbp),%edx
    a3cb:	0f b7 45 f8          	movzwl -0x8(%rbp),%eax
    a3cf:	01 d0                	add    %edx,%eax
    a3d1:	5d                   	pop    %rbp
    a3d2:	c3                   	retq   

000000000000a3d3 <safe_sub_func_int16_t_s_s>:
    a3d3:	f3 0f 1e fa          	endbr64 
    a3d7:	55                   	push   %rbp
    a3d8:	48 89 e5             	mov    %rsp,%rbp
    a3db:	89 fa                	mov    %edi,%edx
    a3dd:	89 f0                	mov    %esi,%eax
    a3df:	66 89 55 fc          	mov    %dx,-0x4(%rbp)
    a3e3:	66 89 45 f8          	mov    %ax,-0x8(%rbp)
    a3e7:	0f b7 55 fc          	movzwl -0x4(%rbp),%edx
    a3eb:	0f b7 45 f8          	movzwl -0x8(%rbp),%eax
    a3ef:	29 c2                	sub    %eax,%edx
    a3f1:	89 d0                	mov    %edx,%eax
    a3f3:	5d                   	pop    %rbp
    a3f4:	c3                   	retq   

000000000000a3f5 <safe_mul_func_int16_t_s_s>:
    a3f5:	f3 0f 1e fa          	endbr64 
    a3f9:	55                   	push   %rbp
    a3fa:	48 89 e5             	mov    %rsp,%rbp
    a3fd:	89 fa                	mov    %edi,%edx
    a3ff:	89 f0                	mov    %esi,%eax
    a401:	66 89 55 fc          	mov    %dx,-0x4(%rbp)
    a405:	66 89 45 f8          	mov    %ax,-0x8(%rbp)
    a409:	0f b7 55 fc          	movzwl -0x4(%rbp),%edx
    a40d:	0f b7 45 f8          	movzwl -0x8(%rbp),%eax
    a411:	0f af c2             	imul   %edx,%eax
    a414:	5d                   	pop    %rbp
    a415:	c3                   	retq   

000000000000a416 <safe_mod_func_int16_t_s_s>:
    a416:	f3 0f 1e fa          	endbr64 
    a41a:	55                   	push   %rbp
    a41b:	48 89 e5             	mov    %rsp,%rbp
    a41e:	89 fa                	mov    %edi,%edx
    a420:	89 f0                	mov    %esi,%eax
    a422:	66 89 55 fc          	mov    %dx,-0x4(%rbp)
    a426:	66 89 45 f8          	mov    %ax,-0x8(%rbp)
    a42a:	66 83 7d f8 00       	cmpw   $0x0,-0x8(%rbp)
    a42f:	74 1e                	je     a44f <safe_mod_func_int16_t_s_s+0x39>
    a431:	66 81 7d fc 00 80    	cmpw   $0x8000,-0x4(%rbp)
    a437:	75 07                	jne    a440 <safe_mod_func_int16_t_s_s+0x2a>
    a439:	66 83 7d f8 ff       	cmpw   $0xffff,-0x8(%rbp)
    a43e:	74 0f                	je     a44f <safe_mod_func_int16_t_s_s+0x39>
    a440:	0f bf 45 fc          	movswl -0x4(%rbp),%eax
    a444:	0f bf 4d f8          	movswl -0x8(%rbp),%ecx
    a448:	99                   	cltd   
    a449:	f7 f9                	idiv   %ecx
    a44b:	89 d0                	mov    %edx,%eax
    a44d:	eb 04                	jmp    a453 <safe_mod_func_int16_t_s_s+0x3d>
    a44f:	0f b7 45 fc          	movzwl -0x4(%rbp),%eax
    a453:	5d                   	pop    %rbp
    a454:	c3                   	retq   

000000000000a455 <safe_div_func_int16_t_s_s>:
    a455:	f3 0f 1e fa          	endbr64 
    a459:	55                   	push   %rbp
    a45a:	48 89 e5             	mov    %rsp,%rbp
    a45d:	89 fa                	mov    %edi,%edx
    a45f:	89 f0                	mov    %esi,%eax
    a461:	66 89 55 fc          	mov    %dx,-0x4(%rbp)
    a465:	66 89 45 f8          	mov    %ax,-0x8(%rbp)
    a469:	66 83 7d f8 00       	cmpw   $0x0,-0x8(%rbp)
    a46e:	74 1c                	je     a48c <safe_div_func_int16_t_s_s+0x37>
    a470:	66 81 7d fc 00 80    	cmpw   $0x8000,-0x4(%rbp)
    a476:	75 07                	jne    a47f <safe_div_func_int16_t_s_s+0x2a>
    a478:	66 83 7d f8 ff       	cmpw   $0xffff,-0x8(%rbp)
    a47d:	74 0d                	je     a48c <safe_div_func_int16_t_s_s+0x37>
    a47f:	0f bf 45 fc          	movswl -0x4(%rbp),%eax
    a483:	0f bf 4d f8          	movswl -0x8(%rbp),%ecx
    a487:	99                   	cltd   
    a488:	f7 f9                	idiv   %ecx
    a48a:	eb 04                	jmp    a490 <safe_div_func_int16_t_s_s+0x3b>
    a48c:	0f b7 45 fc          	movzwl -0x4(%rbp),%eax
    a490:	5d                   	pop    %rbp
    a491:	c3                   	retq   

000000000000a492 <safe_lshift_func_int16_t_s_s>:
    a492:	f3 0f 1e fa          	endbr64 
    a496:	55                   	push   %rbp
    a497:	48 89 e5             	mov    %rsp,%rbp
    a49a:	89 f8                	mov    %edi,%eax
    a49c:	89 75 f8             	mov    %esi,-0x8(%rbp)
    a49f:	66 89 45 fc          	mov    %ax,-0x4(%rbp)
    a4a3:	66 83 7d fc 00       	cmpw   $0x0,-0x4(%rbp)
    a4a8:	78 31                	js     a4db <safe_lshift_func_int16_t_s_s+0x49>
    a4aa:	83 7d f8 00          	cmpl   $0x0,-0x8(%rbp)
    a4ae:	78 2b                	js     a4db <safe_lshift_func_int16_t_s_s+0x49>
    a4b0:	83 7d f8 1f          	cmpl   $0x1f,-0x8(%rbp)
    a4b4:	7f 25                	jg     a4db <safe_lshift_func_int16_t_s_s+0x49>
    a4b6:	0f bf 55 fc          	movswl -0x4(%rbp),%edx
    a4ba:	8b 45 f8             	mov    -0x8(%rbp),%eax
    a4bd:	be ff 7f 00 00       	mov    $0x7fff,%esi
    a4c2:	89 c1                	mov    %eax,%ecx
    a4c4:	d3 fe                	sar    %cl,%esi
    a4c6:	89 f0                	mov    %esi,%eax
    a4c8:	39 c2                	cmp    %eax,%edx
    a4ca:	7f 0f                	jg     a4db <safe_lshift_func_int16_t_s_s+0x49>
    a4cc:	0f bf 55 fc          	movswl -0x4(%rbp),%edx
    a4d0:	8b 45 f8             	mov    -0x8(%rbp),%eax
    a4d3:	89 c1                	mov    %eax,%ecx
    a4d5:	d3 e2                	shl    %cl,%edx
    a4d7:	89 d0                	mov    %edx,%eax
    a4d9:	eb 04                	jmp    a4df <safe_lshift_func_int16_t_s_s+0x4d>
    a4db:	0f b7 45 fc          	movzwl -0x4(%rbp),%eax
    a4df:	5d                   	pop    %rbp
    a4e0:	c3                   	retq   

000000000000a4e1 <safe_lshift_func_int16_t_s_u>:
    a4e1:	f3 0f 1e fa          	endbr64 
    a4e5:	55                   	push   %rbp
    a4e6:	48 89 e5             	mov    %rsp,%rbp
    a4e9:	89 f8                	mov    %edi,%eax
    a4eb:	89 75 f8             	mov    %esi,-0x8(%rbp)
    a4ee:	66 89 45 fc          	mov    %ax,-0x4(%rbp)
    a4f2:	66 83 7d fc 00       	cmpw   $0x0,-0x4(%rbp)
    a4f7:	78 2b                	js     a524 <safe_lshift_func_int16_t_s_u+0x43>
    a4f9:	83 7d f8 1f          	cmpl   $0x1f,-0x8(%rbp)
    a4fd:	77 25                	ja     a524 <safe_lshift_func_int16_t_s_u+0x43>
    a4ff:	0f bf 55 fc          	movswl -0x4(%rbp),%edx
    a503:	8b 45 f8             	mov    -0x8(%rbp),%eax
    a506:	be ff 7f 00 00       	mov    $0x7fff,%esi
    a50b:	89 c1                	mov    %eax,%ecx
    a50d:	d3 fe                	sar    %cl,%esi
    a50f:	89 f0                	mov    %esi,%eax
    a511:	39 c2                	cmp    %eax,%edx
    a513:	7f 0f                	jg     a524 <safe_lshift_func_int16_t_s_u+0x43>
    a515:	0f bf 55 fc          	movswl -0x4(%rbp),%edx
    a519:	8b 45 f8             	mov    -0x8(%rbp),%eax
    a51c:	89 c1                	mov    %eax,%ecx
    a51e:	d3 e2                	shl    %cl,%edx
    a520:	89 d0                	mov    %edx,%eax
    a522:	eb 04                	jmp    a528 <safe_lshift_func_int16_t_s_u+0x47>
    a524:	0f b7 45 fc          	movzwl -0x4(%rbp),%eax
    a528:	5d                   	pop    %rbp
    a529:	c3                   	retq   

000000000000a52a <safe_rshift_func_int16_t_s_s>:
    a52a:	f3 0f 1e fa          	endbr64 
    a52e:	55                   	push   %rbp
    a52f:	48 89 e5             	mov    %rsp,%rbp
    a532:	89 f8                	mov    %edi,%eax
    a534:	89 75 f8             	mov    %esi,-0x8(%rbp)
    a537:	66 89 45 fc          	mov    %ax,-0x4(%rbp)
    a53b:	66 83 7d fc 00       	cmpw   $0x0,-0x4(%rbp)
    a540:	78 1b                	js     a55d <safe_rshift_func_int16_t_s_s+0x33>
    a542:	83 7d f8 00          	cmpl   $0x0,-0x8(%rbp)
    a546:	78 15                	js     a55d <safe_rshift_func_int16_t_s_s+0x33>
    a548:	83 7d f8 1f          	cmpl   $0x1f,-0x8(%rbp)
    a54c:	7f 0f                	jg     a55d <safe_rshift_func_int16_t_s_s+0x33>
    a54e:	0f bf 55 fc          	movswl -0x4(%rbp),%edx
    a552:	8b 45 f8             	mov    -0x8(%rbp),%eax
    a555:	89 c1                	mov    %eax,%ecx
    a557:	d3 fa                	sar    %cl,%edx
    a559:	89 d0                	mov    %edx,%eax
    a55b:	eb 04                	jmp    a561 <safe_rshift_func_int16_t_s_s+0x37>
    a55d:	0f b7 45 fc          	movzwl -0x4(%rbp),%eax
    a561:	5d                   	pop    %rbp
    a562:	c3                   	retq   

000000000000a563 <safe_rshift_func_int16_t_s_u>:
    a563:	f3 0f 1e fa          	endbr64 
    a567:	55                   	push   %rbp
    a568:	48 89 e5             	mov    %rsp,%rbp
    a56b:	89 f8                	mov    %edi,%eax
    a56d:	89 75 f8             	mov    %esi,-0x8(%rbp)
    a570:	66 89 45 fc          	mov    %ax,-0x4(%rbp)
    a574:	66 83 7d fc 00       	cmpw   $0x0,-0x4(%rbp)
    a579:	78 15                	js     a590 <safe_rshift_func_int16_t_s_u+0x2d>
    a57b:	83 7d f8 1f          	cmpl   $0x1f,-0x8(%rbp)
    a57f:	77 0f                	ja     a590 <safe_rshift_func_int16_t_s_u+0x2d>
    a581:	0f bf 55 fc          	movswl -0x4(%rbp),%edx
    a585:	8b 45 f8             	mov    -0x8(%rbp),%eax
    a588:	89 c1                	mov    %eax,%ecx
    a58a:	d3 fa                	sar    %cl,%edx
    a58c:	89 d0                	mov    %edx,%eax
    a58e:	eb 04                	jmp    a594 <safe_rshift_func_int16_t_s_u+0x31>
    a590:	0f b7 45 fc          	movzwl -0x4(%rbp),%eax
    a594:	5d                   	pop    %rbp
    a595:	c3                   	retq   

000000000000a596 <safe_unary_minus_func_int32_t_s>:
    a596:	f3 0f 1e fa          	endbr64 
    a59a:	55                   	push   %rbp
    a59b:	48 89 e5             	mov    %rsp,%rbp
    a59e:	89 7d fc             	mov    %edi,-0x4(%rbp)
    a5a1:	81 7d fc 00 00 00 80 	cmpl   $0x80000000,-0x4(%rbp)
    a5a8:	74 07                	je     a5b1 <safe_unary_minus_func_int32_t_s+0x1b>
    a5aa:	8b 45 fc             	mov    -0x4(%rbp),%eax
    a5ad:	f7 d8                	neg    %eax
    a5af:	eb 03                	jmp    a5b4 <safe_unary_minus_func_int32_t_s+0x1e>
    a5b1:	8b 45 fc             	mov    -0x4(%rbp),%eax
    a5b4:	5d                   	pop    %rbp
    a5b5:	c3                   	retq   

000000000000a5b6 <safe_add_func_int32_t_s_s>:
    a5b6:	f3 0f 1e fa          	endbr64 
    a5ba:	55                   	push   %rbp
    a5bb:	48 89 e5             	mov    %rsp,%rbp
    a5be:	89 7d fc             	mov    %edi,-0x4(%rbp)
    a5c1:	89 75 f8             	mov    %esi,-0x8(%rbp)
    a5c4:	83 7d fc 00          	cmpl   $0x0,-0x4(%rbp)
    a5c8:	7e 13                	jle    a5dd <safe_add_func_int32_t_s_s+0x27>
    a5ca:	83 7d f8 00          	cmpl   $0x0,-0x8(%rbp)
    a5ce:	7e 0d                	jle    a5dd <safe_add_func_int32_t_s_s+0x27>
    a5d0:	b8 ff ff ff 7f       	mov    $0x7fffffff,%eax
    a5d5:	2b 45 f8             	sub    -0x8(%rbp),%eax
    a5d8:	39 45 fc             	cmp    %eax,-0x4(%rbp)
    a5db:	7f 23                	jg     a600 <safe_add_func_int32_t_s_s+0x4a>
    a5dd:	83 7d fc 00          	cmpl   $0x0,-0x4(%rbp)
    a5e1:	79 13                	jns    a5f6 <safe_add_func_int32_t_s_s+0x40>
    a5e3:	83 7d f8 00          	cmpl   $0x0,-0x8(%rbp)
    a5e7:	79 0d                	jns    a5f6 <safe_add_func_int32_t_s_s+0x40>
    a5e9:	b8 00 00 00 80       	mov    $0x80000000,%eax
    a5ee:	2b 45 f8             	sub    -0x8(%rbp),%eax
    a5f1:	39 45 fc             	cmp    %eax,-0x4(%rbp)
    a5f4:	7c 0a                	jl     a600 <safe_add_func_int32_t_s_s+0x4a>
    a5f6:	8b 55 fc             	mov    -0x4(%rbp),%edx
    a5f9:	8b 45 f8             	mov    -0x8(%rbp),%eax
    a5fc:	01 d0                	add    %edx,%eax
    a5fe:	eb 03                	jmp    a603 <safe_add_func_int32_t_s_s+0x4d>
    a600:	8b 45 fc             	mov    -0x4(%rbp),%eax
    a603:	5d                   	pop    %rbp
    a604:	c3                   	retq   

000000000000a605 <safe_sub_func_int32_t_s_s>:
    a605:	f3 0f 1e fa          	endbr64 
    a609:	55                   	push   %rbp
    a60a:	48 89 e5             	mov    %rsp,%rbp
    a60d:	89 7d fc             	mov    %edi,-0x4(%rbp)
    a610:	89 75 f8             	mov    %esi,-0x8(%rbp)
    a613:	8b 45 fc             	mov    -0x4(%rbp),%eax
    a616:	33 45 f8             	xor    -0x8(%rbp),%eax
    a619:	89 c2                	mov    %eax,%edx
    a61b:	8b 45 fc             	mov    -0x4(%rbp),%eax
    a61e:	33 45 f8             	xor    -0x8(%rbp),%eax
    a621:	25 00 00 00 80       	and    $0x80000000,%eax
    a626:	33 45 fc             	xor    -0x4(%rbp),%eax
    a629:	2b 45 f8             	sub    -0x8(%rbp),%eax
    a62c:	33 45 f8             	xor    -0x8(%rbp),%eax
    a62f:	21 d0                	and    %edx,%eax
    a631:	85 c0                	test   %eax,%eax
    a633:	78 08                	js     a63d <safe_sub_func_int32_t_s_s+0x38>
    a635:	8b 45 fc             	mov    -0x4(%rbp),%eax
    a638:	2b 45 f8             	sub    -0x8(%rbp),%eax
    a63b:	eb 03                	jmp    a640 <safe_sub_func_int32_t_s_s+0x3b>
    a63d:	8b 45 fc             	mov    -0x4(%rbp),%eax
    a640:	5d                   	pop    %rbp
    a641:	c3                   	retq   

000000000000a642 <safe_mul_func_int32_t_s_s>:
    a642:	f3 0f 1e fa          	endbr64 
    a646:	55                   	push   %rbp
    a647:	48 89 e5             	mov    %rsp,%rbp
    a64a:	89 7d fc             	mov    %edi,-0x4(%rbp)
    a64d:	89 75 f8             	mov    %esi,-0x8(%rbp)
    a650:	83 7d fc 00          	cmpl   $0x0,-0x4(%rbp)
    a654:	7e 14                	jle    a66a <safe_mul_func_int32_t_s_s+0x28>
    a656:	83 7d f8 00          	cmpl   $0x0,-0x8(%rbp)
    a65a:	7e 0e                	jle    a66a <safe_mul_func_int32_t_s_s+0x28>
    a65c:	b8 ff ff ff 7f       	mov    $0x7fffffff,%eax
    a661:	99                   	cltd   
    a662:	f7 7d f8             	idivl  -0x8(%rbp)
    a665:	39 45 fc             	cmp    %eax,-0x4(%rbp)
    a668:	7f 5d                	jg     a6c7 <safe_mul_func_int32_t_s_s+0x85>
    a66a:	83 7d fc 00          	cmpl   $0x0,-0x4(%rbp)
    a66e:	7e 14                	jle    a684 <safe_mul_func_int32_t_s_s+0x42>
    a670:	83 7d f8 00          	cmpl   $0x0,-0x8(%rbp)
    a674:	7f 0e                	jg     a684 <safe_mul_func_int32_t_s_s+0x42>
    a676:	b8 00 00 00 80       	mov    $0x80000000,%eax
    a67b:	99                   	cltd   
    a67c:	f7 7d fc             	idivl  -0x4(%rbp)
    a67f:	39 45 f8             	cmp    %eax,-0x8(%rbp)
    a682:	7c 43                	jl     a6c7 <safe_mul_func_int32_t_s_s+0x85>
    a684:	83 7d fc 00          	cmpl   $0x0,-0x4(%rbp)
    a688:	7f 14                	jg     a69e <safe_mul_func_int32_t_s_s+0x5c>
    a68a:	83 7d f8 00          	cmpl   $0x0,-0x8(%rbp)
    a68e:	7e 0e                	jle    a69e <safe_mul_func_int32_t_s_s+0x5c>
    a690:	b8 00 00 00 80       	mov    $0x80000000,%eax
    a695:	99                   	cltd   
    a696:	f7 7d f8             	idivl  -0x8(%rbp)
    a699:	39 45 fc             	cmp    %eax,-0x4(%rbp)
    a69c:	7c 29                	jl     a6c7 <safe_mul_func_int32_t_s_s+0x85>
    a69e:	83 7d fc 00          	cmpl   $0x0,-0x4(%rbp)
    a6a2:	7f 1a                	jg     a6be <safe_mul_func_int32_t_s_s+0x7c>
    a6a4:	83 7d f8 00          	cmpl   $0x0,-0x8(%rbp)
    a6a8:	7f 14                	jg     a6be <safe_mul_func_int32_t_s_s+0x7c>
    a6aa:	83 7d fc 00          	cmpl   $0x0,-0x4(%rbp)
    a6ae:	74 0e                	je     a6be <safe_mul_func_int32_t_s_s+0x7c>
    a6b0:	b8 ff ff ff 7f       	mov    $0x7fffffff,%eax
    a6b5:	99                   	cltd   
    a6b6:	f7 7d fc             	idivl  -0x4(%rbp)
    a6b9:	39 45 f8             	cmp    %eax,-0x8(%rbp)
    a6bc:	7c 09                	jl     a6c7 <safe_mul_func_int32_t_s_s+0x85>
    a6be:	8b 45 fc             	mov    -0x4(%rbp),%eax
    a6c1:	0f af 45 f8          	imul   -0x8(%rbp),%eax
    a6c5:	eb 03                	jmp    a6ca <safe_mul_func_int32_t_s_s+0x88>
    a6c7:	8b 45 fc             	mov    -0x4(%rbp),%eax
    a6ca:	5d                   	pop    %rbp
    a6cb:	c3                   	retq   

000000000000a6cc <safe_mod_func_int32_t_s_s>:
    a6cc:	f3 0f 1e fa          	endbr64 
    a6d0:	55                   	push   %rbp
    a6d1:	48 89 e5             	mov    %rsp,%rbp
    a6d4:	89 7d fc             	mov    %edi,-0x4(%rbp)
    a6d7:	89 75 f8             	mov    %esi,-0x8(%rbp)
    a6da:	83 7d f8 00          	cmpl   $0x0,-0x8(%rbp)
    a6de:	74 1a                	je     a6fa <safe_mod_func_int32_t_s_s+0x2e>
    a6e0:	81 7d fc 00 00 00 80 	cmpl   $0x80000000,-0x4(%rbp)
    a6e7:	75 06                	jne    a6ef <safe_mod_func_int32_t_s_s+0x23>
    a6e9:	83 7d f8 ff          	cmpl   $0xffffffff,-0x8(%rbp)
    a6ed:	74 0b                	je     a6fa <safe_mod_func_int32_t_s_s+0x2e>
    a6ef:	8b 45 fc             	mov    -0x4(%rbp),%eax
    a6f2:	99                   	cltd   
    a6f3:	f7 7d f8             	idivl  -0x8(%rbp)
    a6f6:	89 d0                	mov    %edx,%eax
    a6f8:	eb 03                	jmp    a6fd <safe_mod_func_int32_t_s_s+0x31>
    a6fa:	8b 45 fc             	mov    -0x4(%rbp),%eax
    a6fd:	5d                   	pop    %rbp
    a6fe:	c3                   	retq   

000000000000a6ff <safe_div_func_int32_t_s_s>:
    a6ff:	f3 0f 1e fa          	endbr64 
    a703:	55                   	push   %rbp
    a704:	48 89 e5             	mov    %rsp,%rbp
    a707:	89 7d fc             	mov    %edi,-0x4(%rbp)
    a70a:	89 75 f8             	mov    %esi,-0x8(%rbp)
    a70d:	83 7d f8 00          	cmpl   $0x0,-0x8(%rbp)
    a711:	74 18                	je     a72b <safe_div_func_int32_t_s_s+0x2c>
    a713:	81 7d fc 00 00 00 80 	cmpl   $0x80000000,-0x4(%rbp)
    a71a:	75 06                	jne    a722 <safe_div_func_int32_t_s_s+0x23>
    a71c:	83 7d f8 ff          	cmpl   $0xffffffff,-0x8(%rbp)
    a720:	74 09                	je     a72b <safe_div_func_int32_t_s_s+0x2c>
    a722:	8b 45 fc             	mov    -0x4(%rbp),%eax
    a725:	99                   	cltd   
    a726:	f7 7d f8             	idivl  -0x8(%rbp)
    a729:	eb 03                	jmp    a72e <safe_div_func_int32_t_s_s+0x2f>
    a72b:	8b 45 fc             	mov    -0x4(%rbp),%eax
    a72e:	5d                   	pop    %rbp
    a72f:	c3                   	retq   

000000000000a730 <safe_lshift_func_int32_t_s_s>:
    a730:	f3 0f 1e fa          	endbr64 
    a734:	55                   	push   %rbp
    a735:	48 89 e5             	mov    %rsp,%rbp
    a738:	89 7d fc             	mov    %edi,-0x4(%rbp)
    a73b:	89 75 f8             	mov    %esi,-0x8(%rbp)
    a73e:	83 7d fc 00          	cmpl   $0x0,-0x4(%rbp)
    a742:	78 2d                	js     a771 <safe_lshift_func_int32_t_s_s+0x41>
    a744:	83 7d f8 00          	cmpl   $0x0,-0x8(%rbp)
    a748:	78 27                	js     a771 <safe_lshift_func_int32_t_s_s+0x41>
    a74a:	83 7d f8 1f          	cmpl   $0x1f,-0x8(%rbp)
    a74e:	7f 21                	jg     a771 <safe_lshift_func_int32_t_s_s+0x41>
    a750:	8b 45 f8             	mov    -0x8(%rbp),%eax
    a753:	ba ff ff ff 7f       	mov    $0x7fffffff,%edx
    a758:	89 c1                	mov    %eax,%ecx
    a75a:	d3 fa                	sar    %cl,%edx
    a75c:	89 d0                	mov    %edx,%eax
    a75e:	39 45 fc             	cmp    %eax,-0x4(%rbp)
    a761:	7f 0e                	jg     a771 <safe_lshift_func_int32_t_s_s+0x41>
    a763:	8b 45 f8             	mov    -0x8(%rbp),%eax
    a766:	8b 55 fc             	mov    -0x4(%rbp),%edx
    a769:	89 c1                	mov    %eax,%ecx
    a76b:	d3 e2                	shl    %cl,%edx
    a76d:	89 d0                	mov    %edx,%eax
    a76f:	eb 03                	jmp    a774 <safe_lshift_func_int32_t_s_s+0x44>
    a771:	8b 45 fc             	mov    -0x4(%rbp),%eax
    a774:	5d                   	pop    %rbp
    a775:	c3                   	retq   

000000000000a776 <safe_lshift_func_int32_t_s_u>:
    a776:	f3 0f 1e fa          	endbr64 
    a77a:	55                   	push   %rbp
    a77b:	48 89 e5             	mov    %rsp,%rbp
    a77e:	89 7d fc             	mov    %edi,-0x4(%rbp)
    a781:	89 75 f8             	mov    %esi,-0x8(%rbp)
    a784:	83 7d fc 00          	cmpl   $0x0,-0x4(%rbp)
    a788:	78 27                	js     a7b1 <safe_lshift_func_int32_t_s_u+0x3b>
    a78a:	83 7d f8 1f          	cmpl   $0x1f,-0x8(%rbp)
    a78e:	77 21                	ja     a7b1 <safe_lshift_func_int32_t_s_u+0x3b>
    a790:	8b 45 f8             	mov    -0x8(%rbp),%eax
    a793:	ba ff ff ff 7f       	mov    $0x7fffffff,%edx
    a798:	89 c1                	mov    %eax,%ecx
    a79a:	d3 fa                	sar    %cl,%edx
    a79c:	89 d0                	mov    %edx,%eax
    a79e:	39 45 fc             	cmp    %eax,-0x4(%rbp)
    a7a1:	7f 0e                	jg     a7b1 <safe_lshift_func_int32_t_s_u+0x3b>
    a7a3:	8b 45 f8             	mov    -0x8(%rbp),%eax
    a7a6:	8b 55 fc             	mov    -0x4(%rbp),%edx
    a7a9:	89 c1                	mov    %eax,%ecx
    a7ab:	d3 e2                	shl    %cl,%edx
    a7ad:	89 d0                	mov    %edx,%eax
    a7af:	eb 03                	jmp    a7b4 <safe_lshift_func_int32_t_s_u+0x3e>
    a7b1:	8b 45 fc             	mov    -0x4(%rbp),%eax
    a7b4:	5d                   	pop    %rbp
    a7b5:	c3                   	retq   

000000000000a7b6 <safe_rshift_func_int32_t_s_s>:
    a7b6:	f3 0f 1e fa          	endbr64 
    a7ba:	55                   	push   %rbp
    a7bb:	48 89 e5             	mov    %rsp,%rbp
    a7be:	89 7d fc             	mov    %edi,-0x4(%rbp)
    a7c1:	89 75 f8             	mov    %esi,-0x8(%rbp)
    a7c4:	83 7d fc 00          	cmpl   $0x0,-0x4(%rbp)
    a7c8:	78 1a                	js     a7e4 <safe_rshift_func_int32_t_s_s+0x2e>
    a7ca:	83 7d f8 00          	cmpl   $0x0,-0x8(%rbp)
    a7ce:	78 14                	js     a7e4 <safe_rshift_func_int32_t_s_s+0x2e>
    a7d0:	83 7d f8 1f          	cmpl   $0x1f,-0x8(%rbp)
    a7d4:	7f 0e                	jg     a7e4 <safe_rshift_func_int32_t_s_s+0x2e>
    a7d6:	8b 45 f8             	mov    -0x8(%rbp),%eax
    a7d9:	8b 55 fc             	mov    -0x4(%rbp),%edx
    a7dc:	89 c1                	mov    %eax,%ecx
    a7de:	d3 fa                	sar    %cl,%edx
    a7e0:	89 d0                	mov    %edx,%eax
    a7e2:	eb 03                	jmp    a7e7 <safe_rshift_func_int32_t_s_s+0x31>
    a7e4:	8b 45 fc             	mov    -0x4(%rbp),%eax
    a7e7:	5d                   	pop    %rbp
    a7e8:	c3                   	retq   

000000000000a7e9 <safe_rshift_func_int32_t_s_u>:
    a7e9:	f3 0f 1e fa          	endbr64 
    a7ed:	55                   	push   %rbp
    a7ee:	48 89 e5             	mov    %rsp,%rbp
    a7f1:	89 7d fc             	mov    %edi,-0x4(%rbp)
    a7f4:	89 75 f8             	mov    %esi,-0x8(%rbp)
    a7f7:	83 7d fc 00          	cmpl   $0x0,-0x4(%rbp)
    a7fb:	78 14                	js     a811 <safe_rshift_func_int32_t_s_u+0x28>
    a7fd:	83 7d f8 1f          	cmpl   $0x1f,-0x8(%rbp)
    a801:	77 0e                	ja     a811 <safe_rshift_func_int32_t_s_u+0x28>
    a803:	8b 45 f8             	mov    -0x8(%rbp),%eax
    a806:	8b 55 fc             	mov    -0x4(%rbp),%edx
    a809:	89 c1                	mov    %eax,%ecx
    a80b:	d3 fa                	sar    %cl,%edx
    a80d:	89 d0                	mov    %edx,%eax
    a80f:	eb 03                	jmp    a814 <safe_rshift_func_int32_t_s_u+0x2b>
    a811:	8b 45 fc             	mov    -0x4(%rbp),%eax
    a814:	5d                   	pop    %rbp
    a815:	c3                   	retq   

000000000000a816 <safe_unary_minus_func_int64_t_s>:
    a816:	f3 0f 1e fa          	endbr64 
    a81a:	55                   	push   %rbp
    a81b:	48 89 e5             	mov    %rsp,%rbp
    a81e:	48 89 7d f8          	mov    %rdi,-0x8(%rbp)
    a822:	48 b8 00 00 00 00 00 	movabs $0x8000000000000000,%rax
    a829:	00 00 80 
    a82c:	48 39 45 f8          	cmp    %rax,-0x8(%rbp)
    a830:	74 09                	je     a83b <safe_unary_minus_func_int64_t_s+0x25>
    a832:	48 8b 45 f8          	mov    -0x8(%rbp),%rax
    a836:	48 f7 d8             	neg    %rax
    a839:	eb 04                	jmp    a83f <safe_unary_minus_func_int64_t_s+0x29>
    a83b:	48 8b 45 f8          	mov    -0x8(%rbp),%rax
    a83f:	5d                   	pop    %rbp
    a840:	c3                   	retq   

000000000000a841 <safe_add_func_int64_t_s_s>:
    a841:	f3 0f 1e fa          	endbr64 
    a845:	55                   	push   %rbp
    a846:	48 89 e5             	mov    %rsp,%rbp
    a849:	48 89 7d f8          	mov    %rdi,-0x8(%rbp)
    a84d:	48 89 75 f0          	mov    %rsi,-0x10(%rbp)
    a851:	48 83 7d f8 00       	cmpq   $0x0,-0x8(%rbp)
    a856:	7e 1b                	jle    a873 <safe_add_func_int64_t_s_s+0x32>
    a858:	48 83 7d f0 00       	cmpq   $0x0,-0x10(%rbp)
    a85d:	7e 14                	jle    a873 <safe_add_func_int64_t_s_s+0x32>
    a85f:	48 b8 ff ff ff ff ff 	movabs $0x7fffffffffffffff,%rax
    a866:	ff ff 7f 
    a869:	48 2b 45 f0          	sub    -0x10(%rbp),%rax
    a86d:	48 39 45 f8          	cmp    %rax,-0x8(%rbp)
    a871:	7f 2f                	jg     a8a2 <safe_add_func_int64_t_s_s+0x61>
    a873:	48 83 7d f8 00       	cmpq   $0x0,-0x8(%rbp)
    a878:	79 1b                	jns    a895 <safe_add_func_int64_t_s_s+0x54>
    a87a:	48 83 7d f0 00       	cmpq   $0x0,-0x10(%rbp)
    a87f:	79 14                	jns    a895 <safe_add_func_int64_t_s_s+0x54>
    a881:	48 b8 00 00 00 00 00 	movabs $0x8000000000000000,%rax
    a888:	00 00 80 
    a88b:	48 2b 45 f0          	sub    -0x10(%rbp),%rax
    a88f:	48 39 45 f8          	cmp    %rax,-0x8(%rbp)
    a893:	7c 0d                	jl     a8a2 <safe_add_func_int64_t_s_s+0x61>
    a895:	48 8b 55 f8          	mov    -0x8(%rbp),%rdx
    a899:	48 8b 45 f0          	mov    -0x10(%rbp),%rax
    a89d:	48 01 d0             	add    %rdx,%rax
    a8a0:	eb 04                	jmp    a8a6 <safe_add_func_int64_t_s_s+0x65>
    a8a2:	48 8b 45 f8          	mov    -0x8(%rbp),%rax
    a8a6:	5d                   	pop    %rbp
    a8a7:	c3                   	retq   

000000000000a8a8 <safe_sub_func_int64_t_s_s>:
    a8a8:	f3 0f 1e fa          	endbr64 
    a8ac:	55                   	push   %rbp
    a8ad:	48 89 e5             	mov    %rsp,%rbp
    a8b0:	48 89 7d f8          	mov    %rdi,-0x8(%rbp)
    a8b4:	48 89 75 f0          	mov    %rsi,-0x10(%rbp)
    a8b8:	48 8b 45 f8          	mov    -0x8(%rbp),%rax
    a8bc:	48 33 45 f0          	xor    -0x10(%rbp),%rax
    a8c0:	48 89 c2             	mov    %rax,%rdx
    a8c3:	48 8b 45 f8          	mov    -0x8(%rbp),%rax
    a8c7:	48 33 45 f0          	xor    -0x10(%rbp),%rax
    a8cb:	48 b9 00 00 00 00 00 	movabs $0x8000000000000000,%rcx
    a8d2:	00 00 80 
    a8d5:	48 21 c8             	and    %rcx,%rax
    a8d8:	48 33 45 f8          	xor    -0x8(%rbp),%rax
    a8dc:	48 2b 45 f0          	sub    -0x10(%rbp),%rax
    a8e0:	48 33 45 f0          	xor    -0x10(%rbp),%rax
    a8e4:	48 21 d0             	and    %rdx,%rax
    a8e7:	48 85 c0             	test   %rax,%rax
    a8ea:	78 0a                	js     a8f6 <safe_sub_func_int64_t_s_s+0x4e>
    a8ec:	48 8b 45 f8          	mov    -0x8(%rbp),%rax
    a8f0:	48 2b 45 f0          	sub    -0x10(%rbp),%rax
    a8f4:	eb 04                	jmp    a8fa <safe_sub_func_int64_t_s_s+0x52>
    a8f6:	48 8b 45 f8          	mov    -0x8(%rbp),%rax
    a8fa:	5d                   	pop    %rbp
    a8fb:	c3                   	retq   

000000000000a8fc <safe_mul_func_int64_t_s_s>:
    a8fc:	f3 0f 1e fa          	endbr64 
    a900:	55                   	push   %rbp
    a901:	48 89 e5             	mov    %rsp,%rbp
    a904:	48 89 7d f8          	mov    %rdi,-0x8(%rbp)
    a908:	48 89 75 f0          	mov    %rsi,-0x10(%rbp)
    a90c:	48 83 7d f8 00       	cmpq   $0x0,-0x8(%rbp)
    a911:	7e 1d                	jle    a930 <safe_mul_func_int64_t_s_s+0x34>
    a913:	48 83 7d f0 00       	cmpq   $0x0,-0x10(%rbp)
    a918:	7e 16                	jle    a930 <safe_mul_func_int64_t_s_s+0x34>
    a91a:	48 b8 ff ff ff ff ff 	movabs $0x7fffffffffffffff,%rax
    a921:	ff ff 7f 
    a924:	48 99                	cqto   
    a926:	48 f7 7d f0          	idivq  -0x10(%rbp)
    a92a:	48 39 45 f8          	cmp    %rax,-0x8(%rbp)
    a92e:	7f 7e                	jg     a9ae <safe_mul_func_int64_t_s_s+0xb2>
    a930:	48 83 7d f8 00       	cmpq   $0x0,-0x8(%rbp)
    a935:	7e 1d                	jle    a954 <safe_mul_func_int64_t_s_s+0x58>
    a937:	48 83 7d f0 00       	cmpq   $0x0,-0x10(%rbp)
    a93c:	7f 16                	jg     a954 <safe_mul_func_int64_t_s_s+0x58>
    a93e:	48 b8 00 00 00 00 00 	movabs $0x8000000000000000,%rax
    a945:	00 00 80 
    a948:	48 99                	cqto   
    a94a:	48 f7 7d f8          	idivq  -0x8(%rbp)
    a94e:	48 39 45 f0          	cmp    %rax,-0x10(%rbp)
    a952:	7c 5a                	jl     a9ae <safe_mul_func_int64_t_s_s+0xb2>
    a954:	48 83 7d f8 00       	cmpq   $0x0,-0x8(%rbp)
    a959:	7f 1d                	jg     a978 <safe_mul_func_int64_t_s_s+0x7c>
    a95b:	48 83 7d f0 00       	cmpq   $0x0,-0x10(%rbp)
    a960:	7e 16                	jle    a978 <safe_mul_func_int64_t_s_s+0x7c>
    a962:	48 b8 00 00 00 00 00 	movabs $0x8000000000000000,%rax
    a969:	00 00 80 
    a96c:	48 99                	cqto   
    a96e:	48 f7 7d f0          	idivq  -0x10(%rbp)
    a972:	48 39 45 f8          	cmp    %rax,-0x8(%rbp)
    a976:	7c 36                	jl     a9ae <safe_mul_func_int64_t_s_s+0xb2>
    a978:	48 83 7d f8 00       	cmpq   $0x0,-0x8(%rbp)
    a97d:	7f 24                	jg     a9a3 <safe_mul_func_int64_t_s_s+0xa7>
    a97f:	48 83 7d f0 00       	cmpq   $0x0,-0x10(%rbp)
    a984:	7f 1d                	jg     a9a3 <safe_mul_func_int64_t_s_s+0xa7>
    a986:	48 83 7d f8 00       	cmpq   $0x0,-0x8(%rbp)
    a98b:	74 16                	je     a9a3 <safe_mul_func_int64_t_s_s+0xa7>
    a98d:	48 b8 ff ff ff ff ff 	movabs $0x7fffffffffffffff,%rax
    a994:	ff ff 7f 
    a997:	48 99                	cqto   
    a999:	48 f7 7d f8          	idivq  -0x8(%rbp)
    a99d:	48 39 45 f0          	cmp    %rax,-0x10(%rbp)
    a9a1:	7c 0b                	jl     a9ae <safe_mul_func_int64_t_s_s+0xb2>
    a9a3:	48 8b 45 f8          	mov    -0x8(%rbp),%rax
    a9a7:	48 0f af 45 f0       	imul   -0x10(%rbp),%rax
    a9ac:	eb 04                	jmp    a9b2 <safe_mul_func_int64_t_s_s+0xb6>
    a9ae:	48 8b 45 f8          	mov    -0x8(%rbp),%rax
    a9b2:	5d                   	pop    %rbp
    a9b3:	c3                   	retq   

000000000000a9b4 <safe_mod_func_int64_t_s_s>:
    a9b4:	f3 0f 1e fa          	endbr64 
    a9b8:	55                   	push   %rbp
    a9b9:	48 89 e5             	mov    %rsp,%rbp
    a9bc:	48 89 7d f8          	mov    %rdi,-0x8(%rbp)
    a9c0:	48 89 75 f0          	mov    %rsi,-0x10(%rbp)
    a9c4:	48 83 7d f0 00       	cmpq   $0x0,-0x10(%rbp)
    a9c9:	74 26                	je     a9f1 <safe_mod_func_int64_t_s_s+0x3d>
    a9cb:	48 b8 00 00 00 00 00 	movabs $0x8000000000000000,%rax
    a9d2:	00 00 80 
    a9d5:	48 39 45 f8          	cmp    %rax,-0x8(%rbp)
    a9d9:	75 07                	jne    a9e2 <safe_mod_func_int64_t_s_s+0x2e>
    a9db:	48 83 7d f0 ff       	cmpq   $0xffffffffffffffff,-0x10(%rbp)
    a9e0:	74 0f                	je     a9f1 <safe_mod_func_int64_t_s_s+0x3d>
    a9e2:	48 8b 45 f8          	mov    -0x8(%rbp),%rax
    a9e6:	48 99                	cqto   
    a9e8:	48 f7 7d f0          	idivq  -0x10(%rbp)
    a9ec:	48 89 d0             	mov    %rdx,%rax
    a9ef:	eb 04                	jmp    a9f5 <safe_mod_func_int64_t_s_s+0x41>
    a9f1:	48 8b 45 f8          	mov    -0x8(%rbp),%rax
    a9f5:	5d                   	pop    %rbp
    a9f6:	c3                   	retq   

000000000000a9f7 <safe_div_func_int64_t_s_s>:
    a9f7:	f3 0f 1e fa          	endbr64 
    a9fb:	55                   	push   %rbp
    a9fc:	48 89 e5             	mov    %rsp,%rbp
    a9ff:	48 89 7d f8          	mov    %rdi,-0x8(%rbp)
    aa03:	48 89 75 f0          	mov    %rsi,-0x10(%rbp)
    aa07:	48 83 7d f0 00       	cmpq   $0x0,-0x10(%rbp)
    aa0c:	74 23                	je     aa31 <safe_div_func_int64_t_s_s+0x3a>
    aa0e:	48 b8 00 00 00 00 00 	movabs $0x8000000000000000,%rax
    aa15:	00 00 80 
    aa18:	48 39 45 f8          	cmp    %rax,-0x8(%rbp)
    aa1c:	75 07                	jne    aa25 <safe_div_func_int64_t_s_s+0x2e>
    aa1e:	48 83 7d f0 ff       	cmpq   $0xffffffffffffffff,-0x10(%rbp)
    aa23:	74 0c                	je     aa31 <safe_div_func_int64_t_s_s+0x3a>
    aa25:	48 8b 45 f8          	mov    -0x8(%rbp),%rax
    aa29:	48 99                	cqto   
    aa2b:	48 f7 7d f0          	idivq  -0x10(%rbp)
    aa2f:	eb 04                	jmp    aa35 <safe_div_func_int64_t_s_s+0x3e>
    aa31:	48 8b 45 f8          	mov    -0x8(%rbp),%rax
    aa35:	5d                   	pop    %rbp
    aa36:	c3                   	retq   

000000000000aa37 <safe_lshift_func_int64_t_s_s>:
    aa37:	f3 0f 1e fa          	endbr64 
    aa3b:	55                   	push   %rbp
    aa3c:	48 89 e5             	mov    %rsp,%rbp
    aa3f:	48 89 7d f8          	mov    %rdi,-0x8(%rbp)
    aa43:	89 75 f4             	mov    %esi,-0xc(%rbp)
    aa46:	48 83 7d f8 00       	cmpq   $0x0,-0x8(%rbp)
    aa4b:	78 38                	js     aa85 <safe_lshift_func_int64_t_s_s+0x4e>
    aa4d:	83 7d f4 00          	cmpl   $0x0,-0xc(%rbp)
    aa51:	78 32                	js     aa85 <safe_lshift_func_int64_t_s_s+0x4e>
    aa53:	83 7d f4 1f          	cmpl   $0x1f,-0xc(%rbp)
    aa57:	7f 2c                	jg     aa85 <safe_lshift_func_int64_t_s_s+0x4e>
    aa59:	8b 45 f4             	mov    -0xc(%rbp),%eax
    aa5c:	48 ba ff ff ff ff ff 	movabs $0x7fffffffffffffff,%rdx
    aa63:	ff ff 7f 
    aa66:	89 c1                	mov    %eax,%ecx
    aa68:	48 d3 fa             	sar    %cl,%rdx
    aa6b:	48 89 d0             	mov    %rdx,%rax
    aa6e:	48 39 45 f8          	cmp    %rax,-0x8(%rbp)
    aa72:	7f 11                	jg     aa85 <safe_lshift_func_int64_t_s_s+0x4e>
    aa74:	8b 45 f4             	mov    -0xc(%rbp),%eax
    aa77:	48 8b 55 f8          	mov    -0x8(%rbp),%rdx
    aa7b:	89 c1                	mov    %eax,%ecx
    aa7d:	48 d3 e2             	shl    %cl,%rdx
    aa80:	48 89 d0             	mov    %rdx,%rax
    aa83:	eb 04                	jmp    aa89 <safe_lshift_func_int64_t_s_s+0x52>
    aa85:	48 8b 45 f8          	mov    -0x8(%rbp),%rax
    aa89:	5d                   	pop    %rbp
    aa8a:	c3                   	retq   

000000000000aa8b <safe_lshift_func_int64_t_s_u>:
    aa8b:	f3 0f 1e fa          	endbr64 
    aa8f:	55                   	push   %rbp
    aa90:	48 89 e5             	mov    %rsp,%rbp
    aa93:	48 89 7d f8          	mov    %rdi,-0x8(%rbp)
    aa97:	89 75 f4             	mov    %esi,-0xc(%rbp)
    aa9a:	48 83 7d f8 00       	cmpq   $0x0,-0x8(%rbp)
    aa9f:	78 32                	js     aad3 <safe_lshift_func_int64_t_s_u+0x48>
    aaa1:	83 7d f4 1f          	cmpl   $0x1f,-0xc(%rbp)
    aaa5:	77 2c                	ja     aad3 <safe_lshift_func_int64_t_s_u+0x48>
    aaa7:	8b 45 f4             	mov    -0xc(%rbp),%eax
    aaaa:	48 ba ff ff ff ff ff 	movabs $0x7fffffffffffffff,%rdx
    aab1:	ff ff 7f 
    aab4:	89 c1                	mov    %eax,%ecx
    aab6:	48 d3 fa             	sar    %cl,%rdx
    aab9:	48 89 d0             	mov    %rdx,%rax
    aabc:	48 39 45 f8          	cmp    %rax,-0x8(%rbp)
    aac0:	7f 11                	jg     aad3 <safe_lshift_func_int64_t_s_u+0x48>
    aac2:	8b 45 f4             	mov    -0xc(%rbp),%eax
    aac5:	48 8b 55 f8          	mov    -0x8(%rbp),%rdx
    aac9:	89 c1                	mov    %eax,%ecx
    aacb:	48 d3 e2             	shl    %cl,%rdx
    aace:	48 89 d0             	mov    %rdx,%rax
    aad1:	eb 04                	jmp    aad7 <safe_lshift_func_int64_t_s_u+0x4c>
    aad3:	48 8b 45 f8          	mov    -0x8(%rbp),%rax
    aad7:	5d                   	pop    %rbp
    aad8:	c3                   	retq   

000000000000aad9 <safe_rshift_func_int64_t_s_s>:
    aad9:	f3 0f 1e fa          	endbr64 
    aadd:	55                   	push   %rbp
    aade:	48 89 e5             	mov    %rsp,%rbp
    aae1:	48 89 7d f8          	mov    %rdi,-0x8(%rbp)
    aae5:	89 75 f4             	mov    %esi,-0xc(%rbp)
    aae8:	48 83 7d f8 00       	cmpq   $0x0,-0x8(%rbp)
    aaed:	78 1d                	js     ab0c <safe_rshift_func_int64_t_s_s+0x33>
    aaef:	83 7d f4 00          	cmpl   $0x0,-0xc(%rbp)
    aaf3:	78 17                	js     ab0c <safe_rshift_func_int64_t_s_s+0x33>
    aaf5:	83 7d f4 1f          	cmpl   $0x1f,-0xc(%rbp)
    aaf9:	7f 11                	jg     ab0c <safe_rshift_func_int64_t_s_s+0x33>
    aafb:	8b 45 f4             	mov    -0xc(%rbp),%eax
    aafe:	48 8b 55 f8          	mov    -0x8(%rbp),%rdx
    ab02:	89 c1                	mov    %eax,%ecx
    ab04:	48 d3 fa             	sar    %cl,%rdx
    ab07:	48 89 d0             	mov    %rdx,%rax
    ab0a:	eb 04                	jmp    ab10 <safe_rshift_func_int64_t_s_s+0x37>
    ab0c:	48 8b 45 f8          	mov    -0x8(%rbp),%rax
    ab10:	5d                   	pop    %rbp
    ab11:	c3                   	retq   

000000000000ab12 <safe_rshift_func_int64_t_s_u>:
    ab12:	f3 0f 1e fa          	endbr64 
    ab16:	55                   	push   %rbp
    ab17:	48 89 e5             	mov    %rsp,%rbp
    ab1a:	48 89 7d f8          	mov    %rdi,-0x8(%rbp)
    ab1e:	89 75 f4             	mov    %esi,-0xc(%rbp)
    ab21:	48 83 7d f8 00       	cmpq   $0x0,-0x8(%rbp)
    ab26:	78 17                	js     ab3f <safe_rshift_func_int64_t_s_u+0x2d>
    ab28:	83 7d f4 1f          	cmpl   $0x1f,-0xc(%rbp)
    ab2c:	77 11                	ja     ab3f <safe_rshift_func_int64_t_s_u+0x2d>
    ab2e:	8b 45 f4             	mov    -0xc(%rbp),%eax
    ab31:	48 8b 55 f8          	mov    -0x8(%rbp),%rdx
    ab35:	89 c1                	mov    %eax,%ecx
    ab37:	48 d3 fa             	sar    %cl,%rdx
    ab3a:	48 89 d0             	mov    %rdx,%rax
    ab3d:	eb 04                	jmp    ab43 <safe_rshift_func_int64_t_s_u+0x31>
    ab3f:	48 8b 45 f8          	mov    -0x8(%rbp),%rax
    ab43:	5d                   	pop    %rbp
    ab44:	c3                   	retq   

000000000000ab45 <safe_unary_minus_func_uint8_t_u>:
    ab45:	f3 0f 1e fa          	endbr64 
    ab49:	55                   	push   %rbp
    ab4a:	48 89 e5             	mov    %rsp,%rbp
    ab4d:	89 f8                	mov    %edi,%eax
    ab4f:	88 45 fc             	mov    %al,-0x4(%rbp)
    ab52:	0f b6 45 fc          	movzbl -0x4(%rbp),%eax
    ab56:	f7 d8                	neg    %eax
    ab58:	5d                   	pop    %rbp
    ab59:	c3                   	retq   

000000000000ab5a <safe_add_func_uint8_t_u_u>:
    ab5a:	f3 0f 1e fa          	endbr64 
    ab5e:	55                   	push   %rbp
    ab5f:	48 89 e5             	mov    %rsp,%rbp
    ab62:	89 fa                	mov    %edi,%edx
    ab64:	89 f0                	mov    %esi,%eax
    ab66:	88 55 fc             	mov    %dl,-0x4(%rbp)
    ab69:	88 45 f8             	mov    %al,-0x8(%rbp)
    ab6c:	0f b6 55 fc          	movzbl -0x4(%rbp),%edx
    ab70:	0f b6 45 f8          	movzbl -0x8(%rbp),%eax
    ab74:	01 d0                	add    %edx,%eax
    ab76:	5d                   	pop    %rbp
    ab77:	c3                   	retq   

000000000000ab78 <safe_sub_func_uint8_t_u_u>:
    ab78:	f3 0f 1e fa          	endbr64 
    ab7c:	55                   	push   %rbp
    ab7d:	48 89 e5             	mov    %rsp,%rbp
    ab80:	89 fa                	mov    %edi,%edx
    ab82:	89 f0                	mov    %esi,%eax
    ab84:	88 55 fc             	mov    %dl,-0x4(%rbp)
    ab87:	88 45 f8             	mov    %al,-0x8(%rbp)
    ab8a:	0f b6 45 fc          	movzbl -0x4(%rbp),%eax
    ab8e:	2a 45 f8             	sub    -0x8(%rbp),%al
    ab91:	5d                   	pop    %rbp
    ab92:	c3                   	retq   

000000000000ab93 <safe_mul_func_uint8_t_u_u>:
    ab93:	f3 0f 1e fa          	endbr64 
    ab97:	55                   	push   %rbp
    ab98:	48 89 e5             	mov    %rsp,%rbp
    ab9b:	89 fa                	mov    %edi,%edx
    ab9d:	89 f0                	mov    %esi,%eax
    ab9f:	88 55 fc             	mov    %dl,-0x4(%rbp)
    aba2:	88 45 f8             	mov    %al,-0x8(%rbp)
    aba5:	0f b6 45 fc          	movzbl -0x4(%rbp),%eax
    aba9:	f6 65 f8             	mulb   -0x8(%rbp)
    abac:	5d                   	pop    %rbp
    abad:	c3                   	retq   

000000000000abae <safe_mod_func_uint8_t_u_u>:
    abae:	f3 0f 1e fa          	endbr64 
    abb2:	55                   	push   %rbp
    abb3:	48 89 e5             	mov    %rsp,%rbp
    abb6:	89 fa                	mov    %edi,%edx
    abb8:	89 f0                	mov    %esi,%eax
    abba:	88 55 fc             	mov    %dl,-0x4(%rbp)
    abbd:	88 45 f8             	mov    %al,-0x8(%rbp)
    abc0:	80 7d f8 00          	cmpb   $0x0,-0x8(%rbp)
    abc4:	74 0f                	je     abd5 <safe_mod_func_uint8_t_u_u+0x27>
    abc6:	0f b6 45 fc          	movzbl -0x4(%rbp),%eax
    abca:	0f b6 c0             	movzbl %al,%eax
    abcd:	f6 75 f8             	divb   -0x8(%rbp)
    abd0:	0f b6 c4             	movzbl %ah,%eax
    abd3:	eb 04                	jmp    abd9 <safe_mod_func_uint8_t_u_u+0x2b>
    abd5:	0f b6 45 fc          	movzbl -0x4(%rbp),%eax
    abd9:	5d                   	pop    %rbp
    abda:	c3                   	retq   

000000000000abdb <safe_div_func_uint8_t_u_u>:
    abdb:	f3 0f 1e fa          	endbr64 
    abdf:	55                   	push   %rbp
    abe0:	48 89 e5             	mov    %rsp,%rbp
    abe3:	89 fa                	mov    %edi,%edx
    abe5:	89 f0                	mov    %esi,%eax
    abe7:	88 55 fc             	mov    %dl,-0x4(%rbp)
    abea:	88 45 f8             	mov    %al,-0x8(%rbp)
    abed:	80 7d f8 00          	cmpb   $0x0,-0x8(%rbp)
    abf1:	74 0c                	je     abff <safe_div_func_uint8_t_u_u+0x24>
    abf3:	0f b6 45 fc          	movzbl -0x4(%rbp),%eax
    abf7:	0f b6 c0             	movzbl %al,%eax
    abfa:	f6 75 f8             	divb   -0x8(%rbp)
    abfd:	eb 04                	jmp    ac03 <safe_div_func_uint8_t_u_u+0x28>
    abff:	0f b6 45 fc          	movzbl -0x4(%rbp),%eax
    ac03:	5d                   	pop    %rbp
    ac04:	c3                   	retq   

000000000000ac05 <safe_lshift_func_uint8_t_u_s>:
    ac05:	f3 0f 1e fa          	endbr64 
    ac09:	55                   	push   %rbp
    ac0a:	48 89 e5             	mov    %rsp,%rbp
    ac0d:	89 f8                	mov    %edi,%eax
    ac0f:	89 75 f8             	mov    %esi,-0x8(%rbp)
    ac12:	88 45 fc             	mov    %al,-0x4(%rbp)
    ac15:	83 7d f8 00          	cmpl   $0x0,-0x8(%rbp)
    ac19:	78 2b                	js     ac46 <safe_lshift_func_uint8_t_u_s+0x41>
    ac1b:	83 7d f8 1f          	cmpl   $0x1f,-0x8(%rbp)
    ac1f:	7f 25                	jg     ac46 <safe_lshift_func_uint8_t_u_s+0x41>
    ac21:	0f b6 55 fc          	movzbl -0x4(%rbp),%edx
    ac25:	8b 45 f8             	mov    -0x8(%rbp),%eax
    ac28:	be ff 00 00 00       	mov    $0xff,%esi
    ac2d:	89 c1                	mov    %eax,%ecx
    ac2f:	d3 fe                	sar    %cl,%esi
    ac31:	89 f0                	mov    %esi,%eax
    ac33:	39 c2                	cmp    %eax,%edx
    ac35:	7f 0f                	jg     ac46 <safe_lshift_func_uint8_t_u_s+0x41>
    ac37:	0f b6 55 fc          	movzbl -0x4(%rbp),%edx
    ac3b:	8b 45 f8             	mov    -0x8(%rbp),%eax
    ac3e:	89 c1                	mov    %eax,%ecx
    ac40:	d3 e2                	shl    %cl,%edx
    ac42:	89 d0                	mov    %edx,%eax
    ac44:	eb 04                	jmp    ac4a <safe_lshift_func_uint8_t_u_s+0x45>
    ac46:	0f b6 45 fc          	movzbl -0x4(%rbp),%eax
    ac4a:	5d                   	pop    %rbp
    ac4b:	c3                   	retq   

000000000000ac4c <safe_lshift_func_uint8_t_u_u>:
    ac4c:	f3 0f 1e fa          	endbr64 
    ac50:	55                   	push   %rbp
    ac51:	48 89 e5             	mov    %rsp,%rbp
    ac54:	89 f8                	mov    %edi,%eax
    ac56:	89 75 f8             	mov    %esi,-0x8(%rbp)
    ac59:	88 45 fc             	mov    %al,-0x4(%rbp)
    ac5c:	83 7d f8 1f          	cmpl   $0x1f,-0x8(%rbp)
    ac60:	77 25                	ja     ac87 <safe_lshift_func_uint8_t_u_u+0x3b>
    ac62:	0f b6 55 fc          	movzbl -0x4(%rbp),%edx
    ac66:	8b 45 f8             	mov    -0x8(%rbp),%eax
    ac69:	be ff 00 00 00       	mov    $0xff,%esi
    ac6e:	89 c1                	mov    %eax,%ecx
    ac70:	d3 fe                	sar    %cl,%esi
    ac72:	89 f0                	mov    %esi,%eax
    ac74:	39 c2                	cmp    %eax,%edx
    ac76:	7f 0f                	jg     ac87 <safe_lshift_func_uint8_t_u_u+0x3b>
    ac78:	0f b6 55 fc          	movzbl -0x4(%rbp),%edx
    ac7c:	8b 45 f8             	mov    -0x8(%rbp),%eax
    ac7f:	89 c1                	mov    %eax,%ecx
    ac81:	d3 e2                	shl    %cl,%edx
    ac83:	89 d0                	mov    %edx,%eax
    ac85:	eb 04                	jmp    ac8b <safe_lshift_func_uint8_t_u_u+0x3f>
    ac87:	0f b6 45 fc          	movzbl -0x4(%rbp),%eax
    ac8b:	5d                   	pop    %rbp
    ac8c:	c3                   	retq   

000000000000ac8d <safe_rshift_func_uint8_t_u_s>:
    ac8d:	f3 0f 1e fa          	endbr64 
    ac91:	55                   	push   %rbp
    ac92:	48 89 e5             	mov    %rsp,%rbp
    ac95:	89 f8                	mov    %edi,%eax
    ac97:	89 75 f8             	mov    %esi,-0x8(%rbp)
    ac9a:	88 45 fc             	mov    %al,-0x4(%rbp)
    ac9d:	83 7d f8 00          	cmpl   $0x0,-0x8(%rbp)
    aca1:	78 15                	js     acb8 <safe_rshift_func_uint8_t_u_s+0x2b>
    aca3:	83 7d f8 1f          	cmpl   $0x1f,-0x8(%rbp)
    aca7:	7f 0f                	jg     acb8 <safe_rshift_func_uint8_t_u_s+0x2b>
    aca9:	0f b6 55 fc          	movzbl -0x4(%rbp),%edx
    acad:	8b 45 f8             	mov    -0x8(%rbp),%eax
    acb0:	89 c1                	mov    %eax,%ecx
    acb2:	d3 fa                	sar    %cl,%edx
    acb4:	89 d0                	mov    %edx,%eax
    acb6:	eb 04                	jmp    acbc <safe_rshift_func_uint8_t_u_s+0x2f>
    acb8:	0f b6 45 fc          	movzbl -0x4(%rbp),%eax
    acbc:	5d                   	pop    %rbp
    acbd:	c3                   	retq   

000000000000acbe <safe_rshift_func_uint8_t_u_u>:
    acbe:	f3 0f 1e fa          	endbr64 
    acc2:	55                   	push   %rbp
    acc3:	48 89 e5             	mov    %rsp,%rbp
    acc6:	89 f8                	mov    %edi,%eax
    acc8:	89 75 f8             	mov    %esi,-0x8(%rbp)
    accb:	88 45 fc             	mov    %al,-0x4(%rbp)
    acce:	83 7d f8 1f          	cmpl   $0x1f,-0x8(%rbp)
    acd2:	77 0f                	ja     ace3 <safe_rshift_func_uint8_t_u_u+0x25>
    acd4:	0f b6 55 fc          	movzbl -0x4(%rbp),%edx
    acd8:	8b 45 f8             	mov    -0x8(%rbp),%eax
    acdb:	89 c1                	mov    %eax,%ecx
    acdd:	d3 fa                	sar    %cl,%edx
    acdf:	89 d0                	mov    %edx,%eax
    ace1:	eb 04                	jmp    ace7 <safe_rshift_func_uint8_t_u_u+0x29>
    ace3:	0f b6 45 fc          	movzbl -0x4(%rbp),%eax
    ace7:	5d                   	pop    %rbp
    ace8:	c3                   	retq   

000000000000ace9 <safe_unary_minus_func_uint16_t_u>:
    ace9:	f3 0f 1e fa          	endbr64 
    aced:	55                   	push   %rbp
    acee:	48 89 e5             	mov    %rsp,%rbp
    acf1:	89 f8                	mov    %edi,%eax
    acf3:	66 89 45 fc          	mov    %ax,-0x4(%rbp)
    acf7:	0f b7 45 fc          	movzwl -0x4(%rbp),%eax
    acfb:	f7 d8                	neg    %eax
    acfd:	5d                   	pop    %rbp
    acfe:	c3                   	retq   

000000000000acff <safe_add_func_uint16_t_u_u>:
    acff:	f3 0f 1e fa          	endbr64 
    ad03:	55                   	push   %rbp
    ad04:	48 89 e5             	mov    %rsp,%rbp
    ad07:	89 fa                	mov    %edi,%edx
    ad09:	89 f0                	mov    %esi,%eax
    ad0b:	66 89 55 fc          	mov    %dx,-0x4(%rbp)
    ad0f:	66 89 45 f8          	mov    %ax,-0x8(%rbp)
    ad13:	0f b7 55 fc          	movzwl -0x4(%rbp),%edx
    ad17:	0f b7 45 f8          	movzwl -0x8(%rbp),%eax
    ad1b:	01 d0                	add    %edx,%eax
    ad1d:	5d                   	pop    %rbp
    ad1e:	c3                   	retq   

000000000000ad1f <safe_sub_func_uint16_t_u_u>:
    ad1f:	f3 0f 1e fa          	endbr64 
    ad23:	55                   	push   %rbp
    ad24:	48 89 e5             	mov    %rsp,%rbp
    ad27:	89 fa                	mov    %edi,%edx
    ad29:	89 f0                	mov    %esi,%eax
    ad2b:	66 89 55 fc          	mov    %dx,-0x4(%rbp)
    ad2f:	66 89 45 f8          	mov    %ax,-0x8(%rbp)
    ad33:	0f b7 45 fc          	movzwl -0x4(%rbp),%eax
    ad37:	66 2b 45 f8          	sub    -0x8(%rbp),%ax
    ad3b:	5d                   	pop    %rbp
    ad3c:	c3                   	retq   

000000000000ad3d <safe_mul_func_uint16_t_u_u>:
    ad3d:	f3 0f 1e fa          	endbr64 
    ad41:	55                   	push   %rbp
    ad42:	48 89 e5             	mov    %rsp,%rbp
    ad45:	89 fa                	mov    %edi,%edx
    ad47:	89 f0                	mov    %esi,%eax
    ad49:	66 89 55 fc          	mov    %dx,-0x4(%rbp)
    ad4d:	66 89 45 f8          	mov    %ax,-0x8(%rbp)
    ad51:	0f b7 45 fc          	movzwl -0x4(%rbp),%eax
    ad55:	66 0f af 45 f8       	imul   -0x8(%rbp),%ax
    ad5a:	5d                   	pop    %rbp
    ad5b:	c3                   	retq   

000000000000ad5c <safe_mod_func_uint16_t_u_u>:
    ad5c:	f3 0f 1e fa          	endbr64 
    ad60:	55                   	push   %rbp
    ad61:	48 89 e5             	mov    %rsp,%rbp
    ad64:	89 fa                	mov    %edi,%edx
    ad66:	89 f0                	mov    %esi,%eax
    ad68:	66 89 55 fc          	mov    %dx,-0x4(%rbp)
    ad6c:	66 89 45 f8          	mov    %ax,-0x8(%rbp)
    ad70:	66 83 7d f8 00       	cmpw   $0x0,-0x8(%rbp)
    ad75:	74 11                	je     ad88 <safe_mod_func_uint16_t_u_u+0x2c>
    ad77:	0f b7 45 fc          	movzwl -0x4(%rbp),%eax
    ad7b:	ba 00 00 00 00       	mov    $0x0,%edx
    ad80:	66 f7 75 f8          	divw   -0x8(%rbp)
    ad84:	89 d0                	mov    %edx,%eax
    ad86:	eb 04                	jmp    ad8c <safe_mod_func_uint16_t_u_u+0x30>
    ad88:	0f b7 45 fc          	movzwl -0x4(%rbp),%eax
    ad8c:	5d                   	pop    %rbp
    ad8d:	c3                   	retq   

000000000000ad8e <safe_div_func_uint16_t_u_u>:
    ad8e:	f3 0f 1e fa          	endbr64 
    ad92:	55                   	push   %rbp
    ad93:	48 89 e5             	mov    %rsp,%rbp
    ad96:	89 fa                	mov    %edi,%edx
    ad98:	89 f0                	mov    %esi,%eax
    ad9a:	66 89 55 fc          	mov    %dx,-0x4(%rbp)
    ad9e:	66 89 45 f8          	mov    %ax,-0x8(%rbp)
    ada2:	66 83 7d f8 00       	cmpw   $0x0,-0x8(%rbp)
    ada7:	74 0f                	je     adb8 <safe_div_func_uint16_t_u_u+0x2a>
    ada9:	0f b7 45 fc          	movzwl -0x4(%rbp),%eax
    adad:	ba 00 00 00 00       	mov    $0x0,%edx
    adb2:	66 f7 75 f8          	divw   -0x8(%rbp)
    adb6:	eb 04                	jmp    adbc <safe_div_func_uint16_t_u_u+0x2e>
    adb8:	0f b7 45 fc          	movzwl -0x4(%rbp),%eax
    adbc:	5d                   	pop    %rbp
    adbd:	c3                   	retq   

000000000000adbe <safe_lshift_func_uint16_t_u_s>:
    adbe:	f3 0f 1e fa          	endbr64 
    adc2:	55                   	push   %rbp
    adc3:	48 89 e5             	mov    %rsp,%rbp
    adc6:	89 f8                	mov    %edi,%eax
    adc8:	89 75 f8             	mov    %esi,-0x8(%rbp)
    adcb:	66 89 45 fc          	mov    %ax,-0x4(%rbp)
    adcf:	83 7d f8 00          	cmpl   $0x0,-0x8(%rbp)
    add3:	78 2b                	js     ae00 <safe_lshift_func_uint16_t_u_s+0x42>
    add5:	83 7d f8 1f          	cmpl   $0x1f,-0x8(%rbp)
    add9:	7f 25                	jg     ae00 <safe_lshift_func_uint16_t_u_s+0x42>
    addb:	0f b7 55 fc          	movzwl -0x4(%rbp),%edx
    addf:	8b 45 f8             	mov    -0x8(%rbp),%eax
    ade2:	be ff ff 00 00       	mov    $0xffff,%esi
    ade7:	89 c1                	mov    %eax,%ecx
    ade9:	d3 fe                	sar    %cl,%esi
    adeb:	89 f0                	mov    %esi,%eax
    aded:	39 c2                	cmp    %eax,%edx
    adef:	7f 0f                	jg     ae00 <safe_lshift_func_uint16_t_u_s+0x42>
    adf1:	0f b7 55 fc          	movzwl -0x4(%rbp),%edx
    adf5:	8b 45 f8             	mov    -0x8(%rbp),%eax
    adf8:	89 c1                	mov    %eax,%ecx
    adfa:	d3 e2                	shl    %cl,%edx
    adfc:	89 d0                	mov    %edx,%eax
    adfe:	eb 04                	jmp    ae04 <safe_lshift_func_uint16_t_u_s+0x46>
    ae00:	0f b7 45 fc          	movzwl -0x4(%rbp),%eax
    ae04:	5d                   	pop    %rbp
    ae05:	c3                   	retq   

000000000000ae06 <safe_lshift_func_uint16_t_u_u>:
    ae06:	f3 0f 1e fa          	endbr64 
    ae0a:	55                   	push   %rbp
    ae0b:	48 89 e5             	mov    %rsp,%rbp
    ae0e:	89 f8                	mov    %edi,%eax
    ae10:	89 75 f8             	mov    %esi,-0x8(%rbp)
    ae13:	66 89 45 fc          	mov    %ax,-0x4(%rbp)
    ae17:	83 7d f8 1f          	cmpl   $0x1f,-0x8(%rbp)
    ae1b:	77 25                	ja     ae42 <safe_lshift_func_uint16_t_u_u+0x3c>
    ae1d:	0f b7 55 fc          	movzwl -0x4(%rbp),%edx
    ae21:	8b 45 f8             	mov    -0x8(%rbp),%eax
    ae24:	be ff ff 00 00       	mov    $0xffff,%esi
    ae29:	89 c1                	mov    %eax,%ecx
    ae2b:	d3 fe                	sar    %cl,%esi
    ae2d:	89 f0                	mov    %esi,%eax
    ae2f:	39 c2                	cmp    %eax,%edx
    ae31:	7f 0f                	jg     ae42 <safe_lshift_func_uint16_t_u_u+0x3c>
    ae33:	0f b7 55 fc          	movzwl -0x4(%rbp),%edx
    ae37:	8b 45 f8             	mov    -0x8(%rbp),%eax
    ae3a:	89 c1                	mov    %eax,%ecx
    ae3c:	d3 e2                	shl    %cl,%edx
    ae3e:	89 d0                	mov    %edx,%eax
    ae40:	eb 04                	jmp    ae46 <safe_lshift_func_uint16_t_u_u+0x40>
    ae42:	0f b7 45 fc          	movzwl -0x4(%rbp),%eax
    ae46:	5d                   	pop    %rbp
    ae47:	c3                   	retq   

000000000000ae48 <safe_rshift_func_uint16_t_u_s>:
    ae48:	f3 0f 1e fa          	endbr64 
    ae4c:	55                   	push   %rbp
    ae4d:	48 89 e5             	mov    %rsp,%rbp
    ae50:	89 f8                	mov    %edi,%eax
    ae52:	89 75 f8             	mov    %esi,-0x8(%rbp)
    ae55:	66 89 45 fc          	mov    %ax,-0x4(%rbp)
    ae59:	83 7d f8 00          	cmpl   $0x0,-0x8(%rbp)
    ae5d:	78 15                	js     ae74 <safe_rshift_func_uint16_t_u_s+0x2c>
    ae5f:	83 7d f8 1f          	cmpl   $0x1f,-0x8(%rbp)
    ae63:	7f 0f                	jg     ae74 <safe_rshift_func_uint16_t_u_s+0x2c>
    ae65:	0f b7 55 fc          	movzwl -0x4(%rbp),%edx
    ae69:	8b 45 f8             	mov    -0x8(%rbp),%eax
    ae6c:	89 c1                	mov    %eax,%ecx
    ae6e:	d3 fa                	sar    %cl,%edx
    ae70:	89 d0                	mov    %edx,%eax
    ae72:	eb 04                	jmp    ae78 <safe_rshift_func_uint16_t_u_s+0x30>
    ae74:	0f b7 45 fc          	movzwl -0x4(%rbp),%eax
    ae78:	5d                   	pop    %rbp
    ae79:	c3                   	retq   

000000000000ae7a <safe_rshift_func_uint16_t_u_u>:
    ae7a:	f3 0f 1e fa          	endbr64 
    ae7e:	55                   	push   %rbp
    ae7f:	48 89 e5             	mov    %rsp,%rbp
    ae82:	89 f8                	mov    %edi,%eax
    ae84:	89 75 f8             	mov    %esi,-0x8(%rbp)
    ae87:	66 89 45 fc          	mov    %ax,-0x4(%rbp)
    ae8b:	83 7d f8 1f          	cmpl   $0x1f,-0x8(%rbp)
    ae8f:	77 0f                	ja     aea0 <safe_rshift_func_uint16_t_u_u+0x26>
    ae91:	0f b7 55 fc          	movzwl -0x4(%rbp),%edx
    ae95:	8b 45 f8             	mov    -0x8(%rbp),%eax
    ae98:	89 c1                	mov    %eax,%ecx
    ae9a:	d3 fa                	sar    %cl,%edx
    ae9c:	89 d0                	mov    %edx,%eax
    ae9e:	eb 04                	jmp    aea4 <safe_rshift_func_uint16_t_u_u+0x2a>
    aea0:	0f b7 45 fc          	movzwl -0x4(%rbp),%eax
    aea4:	5d                   	pop    %rbp
    aea5:	c3                   	retq   

000000000000aea6 <safe_unary_minus_func_uint32_t_u>:
    aea6:	f3 0f 1e fa          	endbr64 
    aeaa:	55                   	push   %rbp
    aeab:	48 89 e5             	mov    %rsp,%rbp
    aeae:	89 7d fc             	mov    %edi,-0x4(%rbp)
    aeb1:	8b 45 fc             	mov    -0x4(%rbp),%eax
    aeb4:	f7 d8                	neg    %eax
    aeb6:	5d                   	pop    %rbp
    aeb7:	c3                   	retq   

000000000000aeb8 <safe_add_func_uint32_t_u_u>:
    aeb8:	f3 0f 1e fa          	endbr64 
    aebc:	55                   	push   %rbp
    aebd:	48 89 e5             	mov    %rsp,%rbp
    aec0:	89 7d fc             	mov    %edi,-0x4(%rbp)
    aec3:	89 75 f8             	mov    %esi,-0x8(%rbp)
    aec6:	8b 55 fc             	mov    -0x4(%rbp),%edx
    aec9:	8b 45 f8             	mov    -0x8(%rbp),%eax
    aecc:	01 d0                	add    %edx,%eax
    aece:	5d                   	pop    %rbp
    aecf:	c3                   	retq   

000000000000aed0 <safe_sub_func_uint32_t_u_u>:
    aed0:	f3 0f 1e fa          	endbr64 
    aed4:	55                   	push   %rbp
    aed5:	48 89 e5             	mov    %rsp,%rbp
    aed8:	89 7d fc             	mov    %edi,-0x4(%rbp)
    aedb:	89 75 f8             	mov    %esi,-0x8(%rbp)
    aede:	8b 45 fc             	mov    -0x4(%rbp),%eax
    aee1:	2b 45 f8             	sub    -0x8(%rbp),%eax
    aee4:	5d                   	pop    %rbp
    aee5:	c3                   	retq   

000000000000aee6 <safe_mul_func_uint32_t_u_u>:
    aee6:	f3 0f 1e fa          	endbr64 
    aeea:	55                   	push   %rbp
    aeeb:	48 89 e5             	mov    %rsp,%rbp
    aeee:	89 7d fc             	mov    %edi,-0x4(%rbp)
    aef1:	89 75 f8             	mov    %esi,-0x8(%rbp)
    aef4:	8b 45 fc             	mov    -0x4(%rbp),%eax
    aef7:	0f af 45 f8          	imul   -0x8(%rbp),%eax
    aefb:	5d                   	pop    %rbp
    aefc:	c3                   	retq   

000000000000aefd <safe_mod_func_uint32_t_u_u>:
    aefd:	f3 0f 1e fa          	endbr64 
    af01:	55                   	push   %rbp
    af02:	48 89 e5             	mov    %rsp,%rbp
    af05:	89 7d fc             	mov    %edi,-0x4(%rbp)
    af08:	89 75 f8             	mov    %esi,-0x8(%rbp)
    af0b:	83 7d f8 00          	cmpl   $0x0,-0x8(%rbp)
    af0f:	74 0f                	je     af20 <safe_mod_func_uint32_t_u_u+0x23>
    af11:	8b 45 fc             	mov    -0x4(%rbp),%eax
    af14:	ba 00 00 00 00       	mov    $0x0,%edx
    af19:	f7 75 f8             	divl   -0x8(%rbp)
    af1c:	89 d0                	mov    %edx,%eax
    af1e:	eb 03                	jmp    af23 <safe_mod_func_uint32_t_u_u+0x26>
    af20:	8b 45 fc             	mov    -0x4(%rbp),%eax
    af23:	5d                   	pop    %rbp
    af24:	c3                   	retq   

000000000000af25 <safe_div_func_uint32_t_u_u>:
    af25:	f3 0f 1e fa          	endbr64 
    af29:	55                   	push   %rbp
    af2a:	48 89 e5             	mov    %rsp,%rbp
    af2d:	89 7d fc             	mov    %edi,-0x4(%rbp)
    af30:	89 75 f8             	mov    %esi,-0x8(%rbp)
    af33:	83 7d f8 00          	cmpl   $0x0,-0x8(%rbp)
    af37:	74 0d                	je     af46 <safe_div_func_uint32_t_u_u+0x21>
    af39:	8b 45 fc             	mov    -0x4(%rbp),%eax
    af3c:	ba 00 00 00 00       	mov    $0x0,%edx
    af41:	f7 75 f8             	divl   -0x8(%rbp)
    af44:	eb 03                	jmp    af49 <safe_div_func_uint32_t_u_u+0x24>
    af46:	8b 45 fc             	mov    -0x4(%rbp),%eax
    af49:	5d                   	pop    %rbp
    af4a:	c3                   	retq   

000000000000af4b <safe_lshift_func_uint32_t_u_s>:
    af4b:	f3 0f 1e fa          	endbr64 
    af4f:	55                   	push   %rbp
    af50:	48 89 e5             	mov    %rsp,%rbp
    af53:	89 7d fc             	mov    %edi,-0x4(%rbp)
    af56:	89 75 f8             	mov    %esi,-0x8(%rbp)
    af59:	83 7d f8 00          	cmpl   $0x0,-0x8(%rbp)
    af5d:	78 27                	js     af86 <safe_lshift_func_uint32_t_u_s+0x3b>
    af5f:	83 7d f8 1f          	cmpl   $0x1f,-0x8(%rbp)
    af63:	7f 21                	jg     af86 <safe_lshift_func_uint32_t_u_s+0x3b>
    af65:	8b 45 f8             	mov    -0x8(%rbp),%eax
    af68:	ba ff ff ff ff       	mov    $0xffffffff,%edx
    af6d:	89 c1                	mov    %eax,%ecx
    af6f:	d3 ea                	shr    %cl,%edx
    af71:	89 d0                	mov    %edx,%eax
    af73:	39 45 fc             	cmp    %eax,-0x4(%rbp)
    af76:	77 0e                	ja     af86 <safe_lshift_func_uint32_t_u_s+0x3b>
    af78:	8b 45 f8             	mov    -0x8(%rbp),%eax
    af7b:	8b 55 fc             	mov    -0x4(%rbp),%edx
    af7e:	89 c1                	mov    %eax,%ecx
    af80:	d3 e2                	shl    %cl,%edx
    af82:	89 d0                	mov    %edx,%eax
    af84:	eb 03                	jmp    af89 <safe_lshift_func_uint32_t_u_s+0x3e>
    af86:	8b 45 fc             	mov    -0x4(%rbp),%eax
    af89:	5d                   	pop    %rbp
    af8a:	c3                   	retq   

000000000000af8b <safe_lshift_func_uint32_t_u_u>:
    af8b:	f3 0f 1e fa          	endbr64 
    af8f:	55                   	push   %rbp
    af90:	48 89 e5             	mov    %rsp,%rbp
    af93:	89 7d fc             	mov    %edi,-0x4(%rbp)
    af96:	89 75 f8             	mov    %esi,-0x8(%rbp)
    af99:	83 7d f8 1f          	cmpl   $0x1f,-0x8(%rbp)
    af9d:	77 21                	ja     afc0 <safe_lshift_func_uint32_t_u_u+0x35>
    af9f:	8b 45 f8             	mov    -0x8(%rbp),%eax
    afa2:	ba ff ff ff ff       	mov    $0xffffffff,%edx
    afa7:	89 c1                	mov    %eax,%ecx
    afa9:	d3 ea                	shr    %cl,%edx
    afab:	89 d0                	mov    %edx,%eax
    afad:	39 45 fc             	cmp    %eax,-0x4(%rbp)
    afb0:	77 0e                	ja     afc0 <safe_lshift_func_uint32_t_u_u+0x35>
    afb2:	8b 45 f8             	mov    -0x8(%rbp),%eax
    afb5:	8b 55 fc             	mov    -0x4(%rbp),%edx
    afb8:	89 c1                	mov    %eax,%ecx
    afba:	d3 e2                	shl    %cl,%edx
    afbc:	89 d0                	mov    %edx,%eax
    afbe:	eb 03                	jmp    afc3 <safe_lshift_func_uint32_t_u_u+0x38>
    afc0:	8b 45 fc             	mov    -0x4(%rbp),%eax
    afc3:	5d                   	pop    %rbp
    afc4:	c3                   	retq   

000000000000afc5 <safe_rshift_func_uint32_t_u_s>:
    afc5:	f3 0f 1e fa          	endbr64 
    afc9:	55                   	push   %rbp
    afca:	48 89 e5             	mov    %rsp,%rbp
    afcd:	89 7d fc             	mov    %edi,-0x4(%rbp)
    afd0:	89 75 f8             	mov    %esi,-0x8(%rbp)
    afd3:	83 7d f8 00          	cmpl   $0x0,-0x8(%rbp)
    afd7:	78 14                	js     afed <safe_rshift_func_uint32_t_u_s+0x28>
    afd9:	83 7d f8 1f          	cmpl   $0x1f,-0x8(%rbp)
    afdd:	7f 0e                	jg     afed <safe_rshift_func_uint32_t_u_s+0x28>
    afdf:	8b 45 f8             	mov    -0x8(%rbp),%eax
    afe2:	8b 55 fc             	mov    -0x4(%rbp),%edx
    afe5:	89 c1                	mov    %eax,%ecx
    afe7:	d3 ea                	shr    %cl,%edx
    afe9:	89 d0                	mov    %edx,%eax
    afeb:	eb 03                	jmp    aff0 <safe_rshift_func_uint32_t_u_s+0x2b>
    afed:	8b 45 fc             	mov    -0x4(%rbp),%eax
    aff0:	5d                   	pop    %rbp
    aff1:	c3                   	retq   

000000000000aff2 <safe_rshift_func_uint32_t_u_u>:
    aff2:	f3 0f 1e fa          	endbr64 
    aff6:	55                   	push   %rbp
    aff7:	48 89 e5             	mov    %rsp,%rbp
    affa:	89 7d fc             	mov    %edi,-0x4(%rbp)
    affd:	89 75 f8             	mov    %esi,-0x8(%rbp)
    b000:	83 7d f8 1f          	cmpl   $0x1f,-0x8(%rbp)
    b004:	77 0e                	ja     b014 <safe_rshift_func_uint32_t_u_u+0x22>
    b006:	8b 45 f8             	mov    -0x8(%rbp),%eax
    b009:	8b 55 fc             	mov    -0x4(%rbp),%edx
    b00c:	89 c1                	mov    %eax,%ecx
    b00e:	d3 ea                	shr    %cl,%edx
    b010:	89 d0                	mov    %edx,%eax
    b012:	eb 03                	jmp    b017 <safe_rshift_func_uint32_t_u_u+0x25>
    b014:	8b 45 fc             	mov    -0x4(%rbp),%eax
    b017:	5d                   	pop    %rbp
    b018:	c3                   	retq   

000000000000b019 <safe_unary_minus_func_uint64_t_u>:
    b019:	f3 0f 1e fa          	endbr64 
    b01d:	55                   	push   %rbp
    b01e:	48 89 e5             	mov    %rsp,%rbp
    b021:	48 89 7d f8          	mov    %rdi,-0x8(%rbp)
    b025:	48 8b 45 f8          	mov    -0x8(%rbp),%rax
    b029:	48 f7 d8             	neg    %rax
    b02c:	5d                   	pop    %rbp
    b02d:	c3                   	retq   

000000000000b02e <safe_add_func_uint64_t_u_u>:
    b02e:	f3 0f 1e fa          	endbr64 
    b032:	55                   	push   %rbp
    b033:	48 89 e5             	mov    %rsp,%rbp
    b036:	48 89 7d f8          	mov    %rdi,-0x8(%rbp)
    b03a:	48 89 75 f0          	mov    %rsi,-0x10(%rbp)
    b03e:	48 8b 55 f8          	mov    -0x8(%rbp),%rdx
    b042:	48 8b 45 f0          	mov    -0x10(%rbp),%rax
    b046:	48 01 d0             	add    %rdx,%rax
    b049:	5d                   	pop    %rbp
    b04a:	c3                   	retq   

000000000000b04b <safe_sub_func_uint64_t_u_u>:
    b04b:	f3 0f 1e fa          	endbr64 
    b04f:	55                   	push   %rbp
    b050:	48 89 e5             	mov    %rsp,%rbp
    b053:	48 89 7d f8          	mov    %rdi,-0x8(%rbp)
    b057:	48 89 75 f0          	mov    %rsi,-0x10(%rbp)
    b05b:	48 8b 45 f8          	mov    -0x8(%rbp),%rax
    b05f:	48 2b 45 f0          	sub    -0x10(%rbp),%rax
    b063:	5d                   	pop    %rbp
    b064:	c3                   	retq   

000000000000b065 <safe_mul_func_uint64_t_u_u>:
    b065:	f3 0f 1e fa          	endbr64 
    b069:	55                   	push   %rbp
    b06a:	48 89 e5             	mov    %rsp,%rbp
    b06d:	48 89 7d f8          	mov    %rdi,-0x8(%rbp)
    b071:	48 89 75 f0          	mov    %rsi,-0x10(%rbp)
    b075:	48 8b 45 f8          	mov    -0x8(%rbp),%rax
    b079:	48 0f af 45 f0       	imul   -0x10(%rbp),%rax
    b07e:	5d                   	pop    %rbp
    b07f:	c3                   	retq   

000000000000b080 <safe_mod_func_uint64_t_u_u>:
    b080:	f3 0f 1e fa          	endbr64 
    b084:	55                   	push   %rbp
    b085:	48 89 e5             	mov    %rsp,%rbp
    b088:	48 89 7d f8          	mov    %rdi,-0x8(%rbp)
    b08c:	48 89 75 f0          	mov    %rsi,-0x10(%rbp)
    b090:	48 83 7d f0 00       	cmpq   $0x0,-0x10(%rbp)
    b095:	74 12                	je     b0a9 <safe_mod_func_uint64_t_u_u+0x29>
    b097:	48 8b 45 f8          	mov    -0x8(%rbp),%rax
    b09b:	ba 00 00 00 00       	mov    $0x0,%edx
    b0a0:	48 f7 75 f0          	divq   -0x10(%rbp)
    b0a4:	48 89 d0             	mov    %rdx,%rax
    b0a7:	eb 04                	jmp    b0ad <safe_mod_func_uint64_t_u_u+0x2d>
    b0a9:	48 8b 45 f8          	mov    -0x8(%rbp),%rax
    b0ad:	5d                   	pop    %rbp
    b0ae:	c3                   	retq   

000000000000b0af <safe_div_func_uint64_t_u_u>:
    b0af:	f3 0f 1e fa          	endbr64 
    b0b3:	55                   	push   %rbp
    b0b4:	48 89 e5             	mov    %rsp,%rbp
    b0b7:	48 89 7d f8          	mov    %rdi,-0x8(%rbp)
    b0bb:	48 89 75 f0          	mov    %rsi,-0x10(%rbp)
    b0bf:	48 83 7d f0 00       	cmpq   $0x0,-0x10(%rbp)
    b0c4:	74 0f                	je     b0d5 <safe_div_func_uint64_t_u_u+0x26>
    b0c6:	48 8b 45 f8          	mov    -0x8(%rbp),%rax
    b0ca:	ba 00 00 00 00       	mov    $0x0,%edx
    b0cf:	48 f7 75 f0          	divq   -0x10(%rbp)
    b0d3:	eb 04                	jmp    b0d9 <safe_div_func_uint64_t_u_u+0x2a>
    b0d5:	48 8b 45 f8          	mov    -0x8(%rbp),%rax
    b0d9:	5d                   	pop    %rbp
    b0da:	c3                   	retq   

000000000000b0db <safe_lshift_func_uint64_t_u_s>:
    b0db:	f3 0f 1e fa          	endbr64 
    b0df:	55                   	push   %rbp
    b0e0:	48 89 e5             	mov    %rsp,%rbp
    b0e3:	48 89 7d f8          	mov    %rdi,-0x8(%rbp)
    b0e7:	89 75 f4             	mov    %esi,-0xc(%rbp)
    b0ea:	83 7d f4 00          	cmpl   $0x0,-0xc(%rbp)
    b0ee:	78 2f                	js     b11f <safe_lshift_func_uint64_t_u_s+0x44>
    b0f0:	83 7d f4 1f          	cmpl   $0x1f,-0xc(%rbp)
    b0f4:	7f 29                	jg     b11f <safe_lshift_func_uint64_t_u_s+0x44>
    b0f6:	8b 45 f4             	mov    -0xc(%rbp),%eax
    b0f9:	48 c7 c2 ff ff ff ff 	mov    $0xffffffffffffffff,%rdx
    b100:	89 c1                	mov    %eax,%ecx
    b102:	48 d3 ea             	shr    %cl,%rdx
    b105:	48 89 d0             	mov    %rdx,%rax
    b108:	48 39 45 f8          	cmp    %rax,-0x8(%rbp)
    b10c:	77 11                	ja     b11f <safe_lshift_func_uint64_t_u_s+0x44>
    b10e:	8b 45 f4             	mov    -0xc(%rbp),%eax
    b111:	48 8b 55 f8          	mov    -0x8(%rbp),%rdx
    b115:	89 c1                	mov    %eax,%ecx
    b117:	48 d3 e2             	shl    %cl,%rdx
    b11a:	48 89 d0             	mov    %rdx,%rax
    b11d:	eb 04                	jmp    b123 <safe_lshift_func_uint64_t_u_s+0x48>
    b11f:	48 8b 45 f8          	mov    -0x8(%rbp),%rax
    b123:	5d                   	pop    %rbp
    b124:	c3                   	retq   

000000000000b125 <safe_lshift_func_uint64_t_u_u>:
    b125:	f3 0f 1e fa          	endbr64 
    b129:	55                   	push   %rbp
    b12a:	48 89 e5             	mov    %rsp,%rbp
    b12d:	48 89 7d f8          	mov    %rdi,-0x8(%rbp)
    b131:	89 75 f4             	mov    %esi,-0xc(%rbp)
    b134:	83 7d f4 1f          	cmpl   $0x1f,-0xc(%rbp)
    b138:	77 29                	ja     b163 <safe_lshift_func_uint64_t_u_u+0x3e>
    b13a:	8b 45 f4             	mov    -0xc(%rbp),%eax
    b13d:	48 c7 c2 ff ff ff ff 	mov    $0xffffffffffffffff,%rdx
    b144:	89 c1                	mov    %eax,%ecx
    b146:	48 d3 ea             	shr    %cl,%rdx
    b149:	48 89 d0             	mov    %rdx,%rax
    b14c:	48 39 45 f8          	cmp    %rax,-0x8(%rbp)
    b150:	77 11                	ja     b163 <safe_lshift_func_uint64_t_u_u+0x3e>
    b152:	8b 45 f4             	mov    -0xc(%rbp),%eax
    b155:	48 8b 55 f8          	mov    -0x8(%rbp),%rdx
    b159:	89 c1                	mov    %eax,%ecx
    b15b:	48 d3 e2             	shl    %cl,%rdx
    b15e:	48 89 d0             	mov    %rdx,%rax
    b161:	eb 04                	jmp    b167 <safe_lshift_func_uint64_t_u_u+0x42>
    b163:	48 8b 45 f8          	mov    -0x8(%rbp),%rax
    b167:	5d                   	pop    %rbp
    b168:	c3                   	retq   

000000000000b169 <safe_rshift_func_uint64_t_u_s>:
    b169:	f3 0f 1e fa          	endbr64 
    b16d:	55                   	push   %rbp
    b16e:	48 89 e5             	mov    %rsp,%rbp
    b171:	48 89 7d f8          	mov    %rdi,-0x8(%rbp)
    b175:	89 75 f4             	mov    %esi,-0xc(%rbp)
    b178:	83 7d f4 00          	cmpl   $0x0,-0xc(%rbp)
    b17c:	78 17                	js     b195 <safe_rshift_func_uint64_t_u_s+0x2c>
    b17e:	83 7d f4 1f          	cmpl   $0x1f,-0xc(%rbp)
    b182:	7f 11                	jg     b195 <safe_rshift_func_uint64_t_u_s+0x2c>
    b184:	8b 45 f4             	mov    -0xc(%rbp),%eax
    b187:	48 8b 55 f8          	mov    -0x8(%rbp),%rdx
    b18b:	89 c1                	mov    %eax,%ecx
    b18d:	48 d3 ea             	shr    %cl,%rdx
    b190:	48 89 d0             	mov    %rdx,%rax
    b193:	eb 04                	jmp    b199 <safe_rshift_func_uint64_t_u_s+0x30>
    b195:	48 8b 45 f8          	mov    -0x8(%rbp),%rax
    b199:	5d                   	pop    %rbp
    b19a:	c3                   	retq   

000000000000b19b <safe_rshift_func_uint64_t_u_u>:
    b19b:	f3 0f 1e fa          	endbr64 
    b19f:	55                   	push   %rbp
    b1a0:	48 89 e5             	mov    %rsp,%rbp
    b1a3:	48 89 7d f8          	mov    %rdi,-0x8(%rbp)
    b1a7:	89 75 f4             	mov    %esi,-0xc(%rbp)
    b1aa:	83 7d f4 1f          	cmpl   $0x1f,-0xc(%rbp)
    b1ae:	77 11                	ja     b1c1 <safe_rshift_func_uint64_t_u_u+0x26>
    b1b0:	8b 45 f4             	mov    -0xc(%rbp),%eax
    b1b3:	48 8b 55 f8          	mov    -0x8(%rbp),%rdx
    b1b7:	89 c1                	mov    %eax,%ecx
    b1b9:	48 d3 ea             	shr    %cl,%rdx
    b1bc:	48 89 d0             	mov    %rdx,%rax
    b1bf:	eb 04                	jmp    b1c5 <safe_rshift_func_uint64_t_u_u+0x2a>
    b1c1:	48 8b 45 f8          	mov    -0x8(%rbp),%rax
    b1c5:	5d                   	pop    %rbp
    b1c6:	c3                   	retq   

000000000000b1c7 <safe_add_func_float_f_f>:
    b1c7:	f3 0f 1e fa          	endbr64 
    b1cb:	55                   	push   %rbp
    b1cc:	48 89 e5             	mov    %rsp,%rbp
    b1cf:	f3 0f 11 45 fc       	movss  %xmm0,-0x4(%rbp)
    b1d4:	f3 0f 11 4d f8       	movss  %xmm1,-0x8(%rbp)
    b1d9:	f3 0f 10 4d fc       	movss  -0x4(%rbp),%xmm1
    b1de:	f3 0f 10 05 72 e3 00 	movss  0xe372(%rip),%xmm0        # 19558 <g_3500+0x2388>
    b1e5:	00 
    b1e6:	f3 0f 59 c8          	mulss  %xmm0,%xmm1
    b1ea:	f3 0f 10 55 f8       	movss  -0x8(%rbp),%xmm2
    b1ef:	f3 0f 10 05 61 e3 00 	movss  0xe361(%rip),%xmm0        # 19558 <g_3500+0x2388>
    b1f6:	00 
    b1f7:	f3 0f 59 c2          	mulss  %xmm2,%xmm0
    b1fb:	f3 0f 58 c1          	addss  %xmm1,%xmm0
    b1ff:	f3 0f 10 0d 59 e3 00 	movss  0xe359(%rip),%xmm1        # 19560 <g_3500+0x2390>
    b206:	00 
    b207:	0f 54 c1             	andps  %xmm1,%xmm0
    b20a:	0f 2f 05 5f e3 00 00 	comiss 0xe35f(%rip),%xmm0        # 19570 <g_3500+0x23a0>
    b211:	76 07                	jbe    b21a <safe_add_func_float_f_f+0x53>
    b213:	f3 0f 10 45 fc       	movss  -0x4(%rbp),%xmm0
    b218:	eb 0a                	jmp    b224 <safe_add_func_float_f_f+0x5d>
    b21a:	f3 0f 10 45 fc       	movss  -0x4(%rbp),%xmm0
    b21f:	f3 0f 58 45 f8       	addss  -0x8(%rbp),%xmm0
    b224:	5d                   	pop    %rbp
    b225:	c3                   	retq   

000000000000b226 <safe_sub_func_float_f_f>:
    b226:	f3 0f 1e fa          	endbr64 
    b22a:	55                   	push   %rbp
    b22b:	48 89 e5             	mov    %rsp,%rbp
    b22e:	f3 0f 11 45 fc       	movss  %xmm0,-0x4(%rbp)
    b233:	f3 0f 11 4d f8       	movss  %xmm1,-0x8(%rbp)
    b238:	f3 0f 10 4d fc       	movss  -0x4(%rbp),%xmm1
    b23d:	f3 0f 10 05 13 e3 00 	movss  0xe313(%rip),%xmm0        # 19558 <g_3500+0x2388>
    b244:	00 
    b245:	f3 0f 59 c1          	mulss  %xmm1,%xmm0
    b249:	f3 0f 10 55 f8       	movss  -0x8(%rbp),%xmm2
    b24e:	f3 0f 10 0d 02 e3 00 	movss  0xe302(%rip),%xmm1        # 19558 <g_3500+0x2388>
    b255:	00 
    b256:	f3 0f 59 ca          	mulss  %xmm2,%xmm1
    b25a:	f3 0f 5c c1          	subss  %xmm1,%xmm0
    b25e:	f3 0f 10 0d fa e2 00 	movss  0xe2fa(%rip),%xmm1        # 19560 <g_3500+0x2390>
    b265:	00 
    b266:	0f 54 c1             	andps  %xmm1,%xmm0
    b269:	0f 2f 05 00 e3 00 00 	comiss 0xe300(%rip),%xmm0        # 19570 <g_3500+0x23a0>
    b270:	76 07                	jbe    b279 <safe_sub_func_float_f_f+0x53>
    b272:	f3 0f 10 45 fc       	movss  -0x4(%rbp),%xmm0
    b277:	eb 0a                	jmp    b283 <safe_sub_func_float_f_f+0x5d>
    b279:	f3 0f 10 45 fc       	movss  -0x4(%rbp),%xmm0
    b27e:	f3 0f 5c 45 f8       	subss  -0x8(%rbp),%xmm0
    b283:	5d                   	pop    %rbp
    b284:	c3                   	retq   

000000000000b285 <safe_mul_func_float_f_f>:
    b285:	f3 0f 1e fa          	endbr64 
    b289:	55                   	push   %rbp
    b28a:	48 89 e5             	mov    %rsp,%rbp
    b28d:	f3 0f 11 45 fc       	movss  %xmm0,-0x4(%rbp)
    b292:	f3 0f 11 4d f8       	movss  %xmm1,-0x8(%rbp)
    b297:	f3 0f 10 4d fc       	movss  -0x4(%rbp),%xmm1
    b29c:	f3 0f 10 05 d0 e2 00 	movss  0xe2d0(%rip),%xmm0        # 19574 <g_3500+0x23a4>
    b2a3:	00 
    b2a4:	f3 0f 59 c8          	mulss  %xmm0,%xmm1
    b2a8:	f3 0f 10 55 f8       	movss  -0x8(%rbp),%xmm2
    b2ad:	f3 0f 10 05 c3 e2 00 	movss  0xe2c3(%rip),%xmm0        # 19578 <g_3500+0x23a8>
    b2b4:	00 
    b2b5:	f3 0f 59 c2          	mulss  %xmm2,%xmm0
    b2b9:	f3 0f 59 c1          	mulss  %xmm1,%xmm0
    b2bd:	f3 0f 10 0d 9b e2 00 	movss  0xe29b(%rip),%xmm1        # 19560 <g_3500+0x2390>
    b2c4:	00 
    b2c5:	0f 54 c1             	andps  %xmm1,%xmm0
    b2c8:	0f 2f 05 ad e2 00 00 	comiss 0xe2ad(%rip),%xmm0        # 1957c <g_3500+0x23ac>
    b2cf:	76 07                	jbe    b2d8 <safe_mul_func_float_f_f+0x53>
    b2d1:	f3 0f 10 45 fc       	movss  -0x4(%rbp),%xmm0
    b2d6:	eb 0a                	jmp    b2e2 <safe_mul_func_float_f_f+0x5d>
    b2d8:	f3 0f 10 45 fc       	movss  -0x4(%rbp),%xmm0
    b2dd:	f3 0f 59 45 f8       	mulss  -0x8(%rbp),%xmm0
    b2e2:	5d                   	pop    %rbp
    b2e3:	c3                   	retq   

000000000000b2e4 <safe_div_func_float_f_f>:
    b2e4:	f3 0f 1e fa          	endbr64 
    b2e8:	55                   	push   %rbp
    b2e9:	48 89 e5             	mov    %rsp,%rbp
    b2ec:	f3 0f 11 45 fc       	movss  %xmm0,-0x4(%rbp)
    b2f1:	f3 0f 11 4d f8       	movss  %xmm1,-0x8(%rbp)
    b2f6:	f3 0f 10 45 f8       	movss  -0x8(%rbp),%xmm0
    b2fb:	f3 0f 10 0d 5d e2 00 	movss  0xe25d(%rip),%xmm1        # 19560 <g_3500+0x2390>
    b302:	00 
    b303:	0f 54 c8             	andps  %xmm0,%xmm1
    b306:	f3 0f 10 05 72 e2 00 	movss  0xe272(%rip),%xmm0        # 19580 <g_3500+0x23b0>
    b30d:	00 
    b30e:	0f 2f c1             	comiss %xmm1,%xmm0
    b311:	0f 97 c0             	seta   %al
    b314:	83 f0 01             	xor    $0x1,%eax
    b317:	84 c0                	test   %al,%al
    b319:	75 56                	jne    b371 <safe_div_func_float_f_f+0x8d>
    b31b:	66 0f ef c0          	pxor   %xmm0,%xmm0
    b31f:	0f 2e 45 f8          	ucomiss -0x8(%rbp),%xmm0
    b323:	7a 0a                	jp     b32f <safe_div_func_float_f_f+0x4b>
    b325:	66 0f ef c0          	pxor   %xmm0,%xmm0
    b329:	0f 2e 45 f8          	ucomiss -0x8(%rbp),%xmm0
    b32d:	74 4e                	je     b37d <safe_div_func_float_f_f+0x99>
    b32f:	f3 0f 10 4d fc       	movss  -0x4(%rbp),%xmm1
    b334:	f3 0f 10 05 48 e2 00 	movss  0xe248(%rip),%xmm0        # 19584 <g_3500+0x23b4>
    b33b:	00 
    b33c:	f3 0f 59 c1          	mulss  %xmm1,%xmm0
    b340:	f3 0f 10 55 f8       	movss  -0x8(%rbp),%xmm2
    b345:	f3 0f 10 0d 3b e2 00 	movss  0xe23b(%rip),%xmm1        # 19588 <g_3500+0x23b8>
    b34c:	00 
    b34d:	f3 0f 59 ca          	mulss  %xmm2,%xmm1
    b351:	f3 0f 5e c1          	divss  %xmm1,%xmm0
    b355:	f3 0f 10 0d 03 e2 00 	movss  0xe203(%rip),%xmm1        # 19560 <g_3500+0x2390>
    b35c:	00 
    b35d:	0f 54 c1             	andps  %xmm1,%xmm0
    b360:	0f 2f 05 25 e2 00 00 	comiss 0xe225(%rip),%xmm0        # 1958c <g_3500+0x23bc>
    b367:	0f 97 c0             	seta   %al
    b36a:	83 f0 01             	xor    $0x1,%eax
    b36d:	84 c0                	test   %al,%al
    b36f:	74 0c                	je     b37d <safe_div_func_float_f_f+0x99>
    b371:	f3 0f 10 45 fc       	movss  -0x4(%rbp),%xmm0
    b376:	f3 0f 5e 45 f8       	divss  -0x8(%rbp),%xmm0
    b37b:	eb 05                	jmp    b382 <safe_div_func_float_f_f+0x9e>
    b37d:	f3 0f 10 45 fc       	movss  -0x4(%rbp),%xmm0
    b382:	5d                   	pop    %rbp
    b383:	c3                   	retq   

000000000000b384 <safe_add_func_double_f_f>:
    b384:	f3 0f 1e fa          	endbr64 
    b388:	55                   	push   %rbp
    b389:	48 89 e5             	mov    %rsp,%rbp
    b38c:	f2 0f 11 45 f8       	movsd  %xmm0,-0x8(%rbp)
    b391:	f2 0f 11 4d f0       	movsd  %xmm1,-0x10(%rbp)
    b396:	f2 0f 10 4d f8       	movsd  -0x8(%rbp),%xmm1
    b39b:	f2 0f 10 05 ed e1 00 	movsd  0xe1ed(%rip),%xmm0        # 19590 <g_3500+0x23c0>
    b3a2:	00 
    b3a3:	f2 0f 59 c8          	mulsd  %xmm0,%xmm1
    b3a7:	f2 0f 10 55 f0       	movsd  -0x10(%rbp),%xmm2
    b3ac:	f2 0f 10 05 dc e1 00 	movsd  0xe1dc(%rip),%xmm0        # 19590 <g_3500+0x23c0>
    b3b3:	00 
    b3b4:	f2 0f 59 c2          	mulsd  %xmm2,%xmm0
    b3b8:	f2 0f 58 c1          	addsd  %xmm1,%xmm0
    b3bc:	f3 0f 7e 0d dc e1 00 	movq   0xe1dc(%rip),%xmm1        # 195a0 <g_3500+0x23d0>
    b3c3:	00 
    b3c4:	66 0f 54 c1          	andpd  %xmm1,%xmm0
    b3c8:	66 0f 2f 05 e0 e1 00 	comisd 0xe1e0(%rip),%xmm0        # 195b0 <g_3500+0x23e0>
    b3cf:	00 
    b3d0:	76 07                	jbe    b3d9 <safe_add_func_double_f_f+0x55>
    b3d2:	f2 0f 10 45 f8       	movsd  -0x8(%rbp),%xmm0
    b3d7:	eb 0a                	jmp    b3e3 <safe_add_func_double_f_f+0x5f>
    b3d9:	f2 0f 10 45 f8       	movsd  -0x8(%rbp),%xmm0
    b3de:	f2 0f 58 45 f0       	addsd  -0x10(%rbp),%xmm0
    b3e3:	5d                   	pop    %rbp
    b3e4:	c3                   	retq   

000000000000b3e5 <safe_sub_func_double_f_f>:
    b3e5:	f3 0f 1e fa          	endbr64 
    b3e9:	55                   	push   %rbp
    b3ea:	48 89 e5             	mov    %rsp,%rbp
    b3ed:	f2 0f 11 45 f8       	movsd  %xmm0,-0x8(%rbp)
    b3f2:	f2 0f 11 4d f0       	movsd  %xmm1,-0x10(%rbp)
    b3f7:	f2 0f 10 4d f8       	movsd  -0x8(%rbp),%xmm1
    b3fc:	f2 0f 10 05 8c e1 00 	movsd  0xe18c(%rip),%xmm0        # 19590 <g_3500+0x23c0>
    b403:	00 
    b404:	f2 0f 59 c1          	mulsd  %xmm1,%xmm0
    b408:	f2 0f 10 55 f0       	movsd  -0x10(%rbp),%xmm2
    b40d:	f2 0f 10 0d 7b e1 00 	movsd  0xe17b(%rip),%xmm1        # 19590 <g_3500+0x23c0>
    b414:	00 
    b415:	f2 0f 59 ca          	mulsd  %xmm2,%xmm1
    b419:	f2 0f 5c c1          	subsd  %xmm1,%xmm0
    b41d:	f3 0f 7e 0d 7b e1 00 	movq   0xe17b(%rip),%xmm1        # 195a0 <g_3500+0x23d0>
    b424:	00 
    b425:	66 0f 54 c1          	andpd  %xmm1,%xmm0
    b429:	66 0f 2f 05 7f e1 00 	comisd 0xe17f(%rip),%xmm0        # 195b0 <g_3500+0x23e0>
    b430:	00 
    b431:	76 07                	jbe    b43a <safe_sub_func_double_f_f+0x55>
    b433:	f2 0f 10 45 f8       	movsd  -0x8(%rbp),%xmm0
    b438:	eb 0a                	jmp    b444 <safe_sub_func_double_f_f+0x5f>
    b43a:	f2 0f 10 45 f8       	movsd  -0x8(%rbp),%xmm0
    b43f:	f2 0f 5c 45 f0       	subsd  -0x10(%rbp),%xmm0
    b444:	5d                   	pop    %rbp
    b445:	c3                   	retq   

000000000000b446 <safe_mul_func_double_f_f>:
    b446:	f3 0f 1e fa          	endbr64 
    b44a:	55                   	push   %rbp
    b44b:	48 89 e5             	mov    %rsp,%rbp
    b44e:	f2 0f 11 45 f8       	movsd  %xmm0,-0x8(%rbp)
    b453:	f2 0f 11 4d f0       	movsd  %xmm1,-0x10(%rbp)
    b458:	f2 0f 10 4d f8       	movsd  -0x8(%rbp),%xmm1
    b45d:	f2 0f 10 05 53 e1 00 	movsd  0xe153(%rip),%xmm0        # 195b8 <g_3500+0x23e8>
    b464:	00 
    b465:	f2 0f 59 c8          	mulsd  %xmm0,%xmm1
    b469:	f2 0f 10 55 f0       	movsd  -0x10(%rbp),%xmm2
    b46e:	f2 0f 10 05 4a e1 00 	movsd  0xe14a(%rip),%xmm0        # 195c0 <g_3500+0x23f0>
    b475:	00 
    b476:	f2 0f 59 c2          	mulsd  %xmm2,%xmm0
    b47a:	f2 0f 59 c1          	mulsd  %xmm1,%xmm0
    b47e:	f3 0f 7e 0d 1a e1 00 	movq   0xe11a(%rip),%xmm1        # 195a0 <g_3500+0x23d0>
    b485:	00 
    b486:	66 0f 54 c1          	andpd  %xmm1,%xmm0
    b48a:	66 0f 2f 05 36 e1 00 	comisd 0xe136(%rip),%xmm0        # 195c8 <g_3500+0x23f8>
    b491:	00 
    b492:	76 07                	jbe    b49b <safe_mul_func_double_f_f+0x55>
    b494:	f2 0f 10 45 f8       	movsd  -0x8(%rbp),%xmm0
    b499:	eb 0a                	jmp    b4a5 <safe_mul_func_double_f_f+0x5f>
    b49b:	f2 0f 10 45 f8       	movsd  -0x8(%rbp),%xmm0
    b4a0:	f2 0f 59 45 f0       	mulsd  -0x10(%rbp),%xmm0
    b4a5:	5d                   	pop    %rbp
    b4a6:	c3                   	retq   

000000000000b4a7 <safe_div_func_double_f_f>:
    b4a7:	f3 0f 1e fa          	endbr64 
    b4ab:	55                   	push   %rbp
    b4ac:	48 89 e5             	mov    %rsp,%rbp
    b4af:	f2 0f 11 45 f8       	movsd  %xmm0,-0x8(%rbp)
    b4b4:	f2 0f 11 4d f0       	movsd  %xmm1,-0x10(%rbp)
    b4b9:	f2 0f 10 45 f0       	movsd  -0x10(%rbp),%xmm0
    b4be:	f3 0f 7e 0d da e0 00 	movq   0xe0da(%rip),%xmm1        # 195a0 <g_3500+0x23d0>
    b4c5:	00 
    b4c6:	66 0f 54 c8          	andpd  %xmm0,%xmm1
    b4ca:	f2 0f 10 05 fe e0 00 	movsd  0xe0fe(%rip),%xmm0        # 195d0 <g_3500+0x2400>
    b4d1:	00 
    b4d2:	66 0f 2f c1          	comisd %xmm1,%xmm0
    b4d6:	0f 97 c0             	seta   %al
    b4d9:	83 f0 01             	xor    $0x1,%eax
    b4dc:	84 c0                	test   %al,%al
    b4de:	75 5a                	jne    b53a <safe_div_func_double_f_f+0x93>
    b4e0:	66 0f ef c0          	pxor   %xmm0,%xmm0
    b4e4:	66 0f 2e 45 f0       	ucomisd -0x10(%rbp),%xmm0
    b4e9:	7a 0b                	jp     b4f6 <safe_div_func_double_f_f+0x4f>
    b4eb:	66 0f ef c0          	pxor   %xmm0,%xmm0
    b4ef:	66 0f 2e 45 f0       	ucomisd -0x10(%rbp),%xmm0
    b4f4:	74 50                	je     b546 <safe_div_func_double_f_f+0x9f>
    b4f6:	f2 0f 10 4d f8       	movsd  -0x8(%rbp),%xmm1
    b4fb:	f2 0f 10 05 d5 e0 00 	movsd  0xe0d5(%rip),%xmm0        # 195d8 <g_3500+0x2408>
    b502:	00 
    b503:	f2 0f 59 c1          	mulsd  %xmm1,%xmm0
    b507:	f2 0f 10 55 f0       	movsd  -0x10(%rbp),%xmm2
    b50c:	f2 0f 10 0d cc e0 00 	movsd  0xe0cc(%rip),%xmm1        # 195e0 <g_3500+0x2410>
    b513:	00 
    b514:	f2 0f 59 ca          	mulsd  %xmm2,%xmm1
    b518:	f2 0f 5e c1          	divsd  %xmm1,%xmm0
    b51c:	f3 0f 7e 0d 7c e0 00 	movq   0xe07c(%rip),%xmm1        # 195a0 <g_3500+0x23d0>
    b523:	00 
    b524:	66 0f 54 c1          	andpd  %xmm1,%xmm0
    b528:	66 0f 2f 05 b8 e0 00 	comisd 0xe0b8(%rip),%xmm0        # 195e8 <g_3500+0x2418>
    b52f:	00 
    b530:	0f 97 c0             	seta   %al
    b533:	83 f0 01             	xor    $0x1,%eax
    b536:	84 c0                	test   %al,%al
    b538:	74 0c                	je     b546 <safe_div_func_double_f_f+0x9f>
    b53a:	f2 0f 10 45 f8       	movsd  -0x8(%rbp),%xmm0
    b53f:	f2 0f 5e 45 f0       	divsd  -0x10(%rbp),%xmm0
    b544:	eb 05                	jmp    b54b <safe_div_func_double_f_f+0xa4>
    b546:	f2 0f 10 45 f8       	movsd  -0x8(%rbp),%xmm0
    b54b:	5d                   	pop    %rbp
    b54c:	c3                   	retq   

000000000000b54d <safe_convert_func_float_to_int32_t>:
    b54d:	f3 0f 1e fa          	endbr64 
    b551:	55                   	push   %rbp
    b552:	48 89 e5             	mov    %rsp,%rbp
    b555:	f3 0f 11 45 fc       	movss  %xmm0,-0x4(%rbp)
    b55a:	f3 0f 10 05 8e e0 00 	movss  0xe08e(%rip),%xmm0        # 195f0 <g_3500+0x2420>
    b561:	00 
    b562:	0f 2f 45 fc          	comiss -0x4(%rbp),%xmm0
    b566:	0f 93 c0             	setae  %al
    b569:	83 f0 01             	xor    $0x1,%eax
    b56c:	84 c0                	test   %al,%al
    b56e:	74 21                	je     b591 <safe_convert_func_float_to_int32_t+0x44>
    b570:	f3 0f 10 45 fc       	movss  -0x4(%rbp),%xmm0
    b575:	0f 2f 05 78 e0 00 00 	comiss 0xe078(%rip),%xmm0        # 195f4 <g_3500+0x2424>
    b57c:	0f 93 c0             	setae  %al
    b57f:	83 f0 01             	xor    $0x1,%eax
    b582:	84 c0                	test   %al,%al
    b584:	74 0b                	je     b591 <safe_convert_func_float_to_int32_t+0x44>
    b586:	f3 0f 10 45 fc       	movss  -0x4(%rbp),%xmm0
    b58b:	f3 0f 2c c0          	cvttss2si %xmm0,%eax
    b58f:	eb 05                	jmp    b596 <safe_convert_func_float_to_int32_t+0x49>
    b591:	b8 ff ff ff 7f       	mov    $0x7fffffff,%eax
    b596:	5d                   	pop    %rbp
    b597:	c3                   	retq   

000000000000b598 <crc32_gentab>:
    b598:	f3 0f 1e fa          	endbr64 
    b59c:	55                   	push   %rbp
    b59d:	48 89 e5             	mov    %rsp,%rbp
    b5a0:	c7 45 fc 20 83 b8 ed 	movl   $0xedb88320,-0x4(%rbp)
    b5a7:	c7 45 f4 00 00 00 00 	movl   $0x0,-0xc(%rbp)
    b5ae:	eb 51                	jmp    b601 <crc32_gentab+0x69>
    b5b0:	8b 45 f4             	mov    -0xc(%rbp),%eax
    b5b3:	89 45 f0             	mov    %eax,-0x10(%rbp)
    b5b6:	c7 45 f8 08 00 00 00 	movl   $0x8,-0x8(%rbp)
    b5bd:	eb 1e                	jmp    b5dd <crc32_gentab+0x45>
    b5bf:	8b 45 f0             	mov    -0x10(%rbp),%eax
    b5c2:	83 e0 01             	and    $0x1,%eax
    b5c5:	85 c0                	test   %eax,%eax
    b5c7:	74 0d                	je     b5d6 <crc32_gentab+0x3e>
    b5c9:	8b 45 f0             	mov    -0x10(%rbp),%eax
    b5cc:	d1 e8                	shr    %eax
    b5ce:	33 45 fc             	xor    -0x4(%rbp),%eax
    b5d1:	89 45 f0             	mov    %eax,-0x10(%rbp)
    b5d4:	eb 03                	jmp    b5d9 <crc32_gentab+0x41>
    b5d6:	d1 6d f0             	shrl   -0x10(%rbp)
    b5d9:	83 6d f8 01          	subl   $0x1,-0x8(%rbp)
    b5dd:	83 7d f8 00          	cmpl   $0x0,-0x8(%rbp)
    b5e1:	7f dc                	jg     b5bf <crc32_gentab+0x27>
    b5e3:	8b 45 f4             	mov    -0xc(%rbp),%eax
    b5e6:	48 98                	cltq   
    b5e8:	48 8d 0c 85 00 00 00 	lea    0x0(,%rax,4),%rcx
    b5ef:	00 
    b5f0:	48 8d 15 e9 52 01 00 	lea    0x152e9(%rip),%rdx        # 208e0 <crc32_tab>
    b5f7:	8b 45 f0             	mov    -0x10(%rbp),%eax
    b5fa:	89 04 11             	mov    %eax,(%rcx,%rdx,1)
    b5fd:	83 45 f4 01          	addl   $0x1,-0xc(%rbp)
    b601:	81 7d f4 ff 00 00 00 	cmpl   $0xff,-0xc(%rbp)
    b608:	7e a6                	jle    b5b0 <crc32_gentab+0x18>
    b60a:	90                   	nop
    b60b:	90                   	nop
    b60c:	5d                   	pop    %rbp
    b60d:	c3                   	retq   

000000000000b60e <crc32_byte>:
    b60e:	f3 0f 1e fa          	endbr64 
    b612:	55                   	push   %rbp
    b613:	48 89 e5             	mov    %rsp,%rbp
    b616:	89 f8                	mov    %edi,%eax
    b618:	88 45 fc             	mov    %al,-0x4(%rbp)
    b61b:	8b 05 ff 09 01 00    	mov    0x109ff(%rip),%eax        # 1c020 <crc32_context>
    b621:	c1 e8 08             	shr    $0x8,%eax
    b624:	89 c1                	mov    %eax,%ecx
    b626:	0f b6 55 fc          	movzbl -0x4(%rbp),%edx
    b62a:	8b 05 f0 09 01 00    	mov    0x109f0(%rip),%eax        # 1c020 <crc32_context>
    b630:	31 d0                	xor    %edx,%eax
    b632:	0f b6 c0             	movzbl %al,%eax
    b635:	89 c0                	mov    %eax,%eax
    b637:	48 8d 14 85 00 00 00 	lea    0x0(,%rax,4),%rdx
    b63e:	00 
    b63f:	48 8d 05 9a 52 01 00 	lea    0x1529a(%rip),%rax        # 208e0 <crc32_tab>
    b646:	8b 04 02             	mov    (%rdx,%rax,1),%eax
    b649:	31 c8                	xor    %ecx,%eax
    b64b:	89 05 cf 09 01 00    	mov    %eax,0x109cf(%rip)        # 1c020 <crc32_context>
    b651:	90                   	nop
    b652:	5d                   	pop    %rbp
    b653:	c3                   	retq   

000000000000b654 <crc32_8bytes>:
    b654:	f3 0f 1e fa          	endbr64 
    b658:	55                   	push   %rbp
    b659:	48 89 e5             	mov    %rsp,%rbp
    b65c:	48 83 ec 08          	sub    $0x8,%rsp
    b660:	48 89 7d f8          	mov    %rdi,-0x8(%rbp)
    b664:	48 8b 45 f8          	mov    -0x8(%rbp),%rax
    b668:	0f b6 c0             	movzbl %al,%eax
    b66b:	89 c7                	mov    %eax,%edi
    b66d:	e8 9c ff ff ff       	callq  b60e <crc32_byte>
    b672:	48 8b 45 f8          	mov    -0x8(%rbp),%rax
    b676:	48 c1 e8 08          	shr    $0x8,%rax
    b67a:	0f b6 c0             	movzbl %al,%eax
    b67d:	89 c7                	mov    %eax,%edi
    b67f:	e8 8a ff ff ff       	callq  b60e <crc32_byte>
    b684:	48 8b 45 f8          	mov    -0x8(%rbp),%rax
    b688:	48 c1 e8 10          	shr    $0x10,%rax
    b68c:	0f b6 c0             	movzbl %al,%eax
    b68f:	89 c7                	mov    %eax,%edi
    b691:	e8 78 ff ff ff       	callq  b60e <crc32_byte>
    b696:	48 8b 45 f8          	mov    -0x8(%rbp),%rax
    b69a:	48 c1 e8 18          	shr    $0x18,%rax
    b69e:	0f b6 c0             	movzbl %al,%eax
    b6a1:	89 c7                	mov    %eax,%edi
    b6a3:	e8 66 ff ff ff       	callq  b60e <crc32_byte>
    b6a8:	48 8b 45 f8          	mov    -0x8(%rbp),%rax
    b6ac:	48 c1 e8 20          	shr    $0x20,%rax
    b6b0:	0f b6 c0             	movzbl %al,%eax
    b6b3:	89 c7                	mov    %eax,%edi
    b6b5:	e8 54 ff ff ff       	callq  b60e <crc32_byte>
    b6ba:	48 8b 45 f8          	mov    -0x8(%rbp),%rax
    b6be:	48 c1 e8 28          	shr    $0x28,%rax
    b6c2:	0f b6 c0             	movzbl %al,%eax
    b6c5:	89 c7                	mov    %eax,%edi
    b6c7:	e8 42 ff ff ff       	callq  b60e <crc32_byte>
    b6cc:	48 8b 45 f8          	mov    -0x8(%rbp),%rax
    b6d0:	48 c1 e8 30          	shr    $0x30,%rax
    b6d4:	0f b6 c0             	movzbl %al,%eax
    b6d7:	89 c7                	mov    %eax,%edi
    b6d9:	e8 30 ff ff ff       	callq  b60e <crc32_byte>
    b6de:	48 8b 45 f8          	mov    -0x8(%rbp),%rax
    b6e2:	48 c1 e8 38          	shr    $0x38,%rax
    b6e6:	0f b6 c0             	movzbl %al,%eax
    b6e9:	89 c7                	mov    %eax,%edi
    b6eb:	e8 1e ff ff ff       	callq  b60e <crc32_byte>
    b6f0:	90                   	nop
    b6f1:	c9                   	leaveq 
    b6f2:	c3                   	retq   

000000000000b6f3 <transparent_crc>:
    b6f3:	f3 0f 1e fa          	endbr64 
    b6f7:	55                   	push   %rbp
    b6f8:	48 89 e5             	mov    %rsp,%rbp
    b6fb:	48 83 ec 20          	sub    $0x20,%rsp
    b6ff:	48 89 7d f8          	mov    %rdi,-0x8(%rbp)
    b703:	48 89 75 f0          	mov    %rsi,-0x10(%rbp)
    b707:	89 55 ec             	mov    %edx,-0x14(%rbp)
    b70a:	48 8b 45 f8          	mov    -0x8(%rbp),%rax
    b70e:	48 89 c7             	mov    %rax,%rdi
    b711:	e8 3e ff ff ff       	callq  b654 <crc32_8bytes>
    b716:	83 7d ec 00          	cmpl   $0x0,-0x14(%rbp)
    b71a:	74 22                	je     b73e <transparent_crc+0x4b>
    b71c:	8b 05 fe 08 01 00    	mov    0x108fe(%rip),%eax        # 1c020 <crc32_context>
    b722:	f7 d0                	not    %eax
    b724:	89 c2                	mov    %eax,%edx
    b726:	48 8b 45 f0          	mov    -0x10(%rbp),%rax
    b72a:	48 89 c6             	mov    %rax,%rsi
    b72d:	48 8d 3d fc b8 00 00 	lea    0xb8fc(%rip),%rdi        # 17030 <_IO_stdin_used+0x30>
    b734:	b8 00 00 00 00       	mov    $0x0,%eax
    b739:	e8 42 e9 ff ff       	callq  a080 <printf@plt>
    b73e:	90                   	nop
    b73f:	c9                   	leaveq 
    b740:	c3                   	retq   

000000000000b741 <transparent_crc_bytes>:
    b741:	f3 0f 1e fa          	endbr64 
    b745:	55                   	push   %rbp
    b746:	48 89 e5             	mov    %rsp,%rbp
    b749:	48 83 ec 30          	sub    $0x30,%rsp
    b74d:	48 89 7d e8          	mov    %rdi,-0x18(%rbp)
    b751:	89 75 e4             	mov    %esi,-0x1c(%rbp)
    b754:	48 89 55 d8          	mov    %rdx,-0x28(%rbp)
    b758:	89 4d e0             	mov    %ecx,-0x20(%rbp)
    b75b:	c7 45 fc 00 00 00 00 	movl   $0x0,-0x4(%rbp)
    b762:	eb 1e                	jmp    b782 <transparent_crc_bytes+0x41>
    b764:	8b 45 fc             	mov    -0x4(%rbp),%eax
    b767:	48 63 d0             	movslq %eax,%rdx
    b76a:	48 8b 45 e8          	mov    -0x18(%rbp),%rax
    b76e:	48 01 d0             	add    %rdx,%rax
    b771:	0f b6 00             	movzbl (%rax),%eax
    b774:	0f b6 c0             	movzbl %al,%eax
    b777:	89 c7                	mov    %eax,%edi
    b779:	e8 90 fe ff ff       	callq  b60e <crc32_byte>
    b77e:	83 45 fc 01          	addl   $0x1,-0x4(%rbp)
    b782:	8b 45 fc             	mov    -0x4(%rbp),%eax
    b785:	3b 45 e4             	cmp    -0x1c(%rbp),%eax
    b788:	7c da                	jl     b764 <transparent_crc_bytes+0x23>
    b78a:	83 7d e0 00          	cmpl   $0x0,-0x20(%rbp)
    b78e:	74 22                	je     b7b2 <transparent_crc_bytes+0x71>
    b790:	8b 05 8a 08 01 00    	mov    0x1088a(%rip),%eax        # 1c020 <crc32_context>
    b796:	f7 d0                	not    %eax
    b798:	89 c2                	mov    %eax,%edx
    b79a:	48 8b 45 d8          	mov    -0x28(%rbp),%rax
    b79e:	48 89 c6             	mov    %rax,%rsi
    b7a1:	48 8d 3d 88 b8 00 00 	lea    0xb888(%rip),%rdi        # 17030 <_IO_stdin_used+0x30>
    b7a8:	b8 00 00 00 00       	mov    $0x0,%eax
    b7ad:	e8 ce e8 ff ff       	callq  a080 <printf@plt>
    b7b2:	90                   	nop
    b7b3:	c9                   	leaveq 
    b7b4:	c3                   	retq   

000000000000b7b5 <func_1>:
    b7b5:	f3 0f 1e fa          	endbr64 
    b7b9:	55                   	push   %rbp
    b7ba:	48 89 e5             	mov    %rsp,%rbp
    b7bd:	48 81 ec 00 10 00 00 	sub    $0x1000,%rsp
    b7c4:	48 83 0c 24 00       	orq    $0x0,(%rsp)
    b7c9:	48 81 ec a0 05 00 00 	sub    $0x5a0,%rsp
    b7d0:	64 48 8b 04 25 28 00 	mov    %fs:0x28,%rax
    b7d7:	00 00 
    b7d9:	48 89 45 f8          	mov    %rax,-0x8(%rbp)
    b7dd:	31 c0                	xor    %eax,%eax
    b7df:	48 b8 55 ce 24 cb ac 	movabs $0x92f644accb24ce55,%rax
    b7e6:	44 f6 92 
    b7e9:	48 89 85 e8 ea ff ff 	mov    %rax,-0x1518(%rbp)
    b7f0:	48 8d 05 7d 08 01 00 	lea    0x1087d(%rip),%rax        # 1c074 <g_274+0x4>
    b7f7:	48 89 85 f0 ea ff ff 	mov    %rax,-0x1510(%rbp)
    b7fe:	48 8d 05 af 0c 01 00 	lea    0x10caf(%rip),%rax        # 1c4b4 <g_1974+0x4>
    b805:	48 89 85 b8 ea ff ff 	mov    %rax,-0x1548(%rbp)
    b80c:	48 8d 85 b8 ea ff ff 	lea    -0x1548(%rbp),%rax
    b813:	48 89 85 f8 ea ff ff 	mov    %rax,-0x1508(%rbp)
    b81a:	48 c7 85 c0 ea ff ff 	movq   $0x0,-0x1540(%rbp)
    b821:	00 00 00 00 
    b825:	48 8d 85 c0 ea ff ff 	lea    -0x1540(%rbp),%rax
    b82c:	48 89 85 00 eb ff ff 	mov    %rax,-0x1500(%rbp)
    b833:	c7 85 8c ea ff ff 00 	movl   $0x0,-0x1574(%rbp)
    b83a:	00 00 00 
    b83d:	48 b8 03 9b 19 d1 85 	movabs $0x733f4085d1199b03,%rax
    b844:	40 3f 73 
    b847:	48 89 85 08 eb ff ff 	mov    %rax,-0x14f8(%rbp)
    b84e:	48 8d 85 b0 f0 ff ff 	lea    -0xf50(%rbp),%rax
    b855:	48 8d 15 44 10 01 00 	lea    0x11044(%rip),%rdx        # 1c8a0 <g_3956+0x18>
    b85c:	b9 24 00 00 00       	mov    $0x24,%ecx
    b861:	48 89 c7             	mov    %rax,%rdi
    b864:	48 89 d6             	mov    %rdx,%rsi
    b867:	f3 48 a5             	rep movsq %ds:(%rsi),%es:(%rdi)
    b86a:	48 8d 05 2f 0a 01 00 	lea    0x10a2f(%rip),%rax        # 1c2a0 <g_276+0x220>
    b871:	48 89 85 10 eb ff ff 	mov    %rax,-0x14f0(%rbp)
    b878:	48 8d 85 f0 f2 ff ff 	lea    -0xd10(%rbp),%rax
    b87f:	48 8d 15 3a 11 01 00 	lea    0x1113a(%rip),%rdx        # 1c9c0 <g_3956+0x138>
    b886:	b9 2d 00 00 00       	mov    $0x2d,%ecx
    b88b:	48 89 c7             	mov    %rax,%rdi
    b88e:	48 89 d6             	mov    %rdx,%rsi
    b891:	f3 48 a5             	rep movsq %ds:(%rsi),%es:(%rdi)
    b894:	48 8d 85 f0 f2 ff ff 	lea    -0xd10(%rbp),%rax
    b89b:	48 05 40 01 00 00    	add    $0x140,%rax
    b8a1:	48 89 85 18 eb ff ff 	mov    %rax,-0x14e8(%rbp)
    b8a8:	66 c7 85 80 ec ff ff 	movw   $0x1,-0x1380(%rbp)
    b8af:	01 00 
    b8b1:	66 c7 85 82 ec ff ff 	movw   $0x562,-0x137e(%rbp)
    b8b8:	62 05 
    b8ba:	66 c7 85 84 ec ff ff 	movw   $0xfff8,-0x137c(%rbp)
    b8c1:	f8 ff 
    b8c3:	66 c7 85 86 ec ff ff 	movw   $0xb813,-0x137a(%rbp)
    b8ca:	13 b8 
    b8cc:	66 c7 85 88 ec ff ff 	movw   $0xb813,-0x1378(%rbp)
    b8d3:	13 b8 
    b8d5:	66 c7 85 8a ec ff ff 	movw   $0xfff8,-0x1376(%rbp)
    b8dc:	f8 ff 
    b8de:	66 c7 85 8c ec ff ff 	movw   $0x562,-0x1374(%rbp)
    b8e5:	62 05 
    b8e7:	66 c7 85 8e ec ff ff 	movw   $0x0,-0x1372(%rbp)
    b8ee:	00 00 
    b8f0:	66 c7 85 90 ec ff ff 	movw   $0xffff,-0x1370(%rbp)
    b8f7:	ff ff 
    b8f9:	66 c7 85 92 ec ff ff 	movw   $0x64c2,-0x136e(%rbp)
    b900:	c2 64 
    b902:	66 c7 85 94 ec ff ff 	movw   $0x0,-0x136c(%rbp)
    b909:	00 00 
    b90b:	66 c7 85 96 ec ff ff 	movw   $0xffff,-0x136a(%rbp)
    b912:	ff ff 
    b914:	66 c7 85 98 ec ff ff 	movw   $0x5bd3,-0x1368(%rbp)
    b91b:	d3 5b 
    b91d:	66 c7 85 9a ec ff ff 	movw   $0x9e30,-0x1366(%rbp)
    b924:	30 9e 
    b926:	66 c7 85 9c ec ff ff 	movw   $0x83c,-0x1364(%rbp)
    b92d:	3c 08 
    b92f:	66 c7 85 9e ec ff ff 	movw   $0xfffb,-0x1362(%rbp)
    b936:	fb ff 
    b938:	66 c7 85 a0 ec ff ff 	movw   $0xfff8,-0x1360(%rbp)
    b93f:	f8 ff 
    b941:	66 c7 85 a2 ec ff ff 	movw   $0x83c,-0x135e(%rbp)
    b948:	3c 08 
    b94a:	66 c7 85 a4 ec ff ff 	movw   $0x10cb,-0x135c(%rbp)
    b951:	cb 10 
    b953:	66 c7 85 a6 ec ff ff 	movw   $0x83c,-0x135a(%rbp)
    b95a:	3c 08 
    b95c:	66 c7 85 a8 ec ff ff 	movw   $0xfff8,-0x1358(%rbp)
    b963:	f8 ff 
    b965:	66 c7 85 aa ec ff ff 	movw   $0x0,-0x1356(%rbp)
    b96c:	00 00 
    b96e:	66 c7 85 ac ec ff ff 	movw   $0x0,-0x1354(%rbp)
    b975:	00 00 
    b977:	66 c7 85 ae ec ff ff 	movw   $0xfff9,-0x1352(%rbp)
    b97e:	f9 ff 
    b980:	66 c7 85 b0 ec ff ff 	movw   $0x0,-0x1350(%rbp)
    b987:	00 00 
    b989:	66 c7 85 b2 ec ff ff 	movw   $0x0,-0x134e(%rbp)
    b990:	00 00 
    b992:	66 c7 85 b4 ec ff ff 	movw   $0xcb35,-0x134c(%rbp)
    b999:	35 cb 
    b99b:	66 c7 85 b6 ec ff ff 	movw   $0x0,-0x134a(%rbp)
    b9a2:	00 00 
    b9a4:	66 c7 85 b8 ec ff ff 	movw   $0x4129,-0x1348(%rbp)
    b9ab:	29 41 
    b9ad:	66 c7 85 ba ec ff ff 	movw   $0xfff8,-0x1346(%rbp)
    b9b4:	f8 ff 
    b9b6:	66 c7 85 bc ec ff ff 	movw   $0x448d,-0x1344(%rbp)
    b9bd:	8d 44 
    b9bf:	66 c7 85 be ec ff ff 	movw   $0xfffb,-0x1342(%rbp)
    b9c6:	fb ff 
    b9c8:	66 c7 85 c0 ec ff ff 	movw   $0xffff,-0x1340(%rbp)
    b9cf:	ff ff 
    b9d1:	66 c7 85 c2 ec ff ff 	movw   $0xffff,-0x133e(%rbp)
    b9d8:	ff ff 
    b9da:	66 c7 85 c4 ec ff ff 	movw   $0xfffb,-0x133c(%rbp)
    b9e1:	fb ff 
    b9e3:	66 c7 85 c6 ec ff ff 	movw   $0x1,-0x133a(%rbp)
    b9ea:	01 00 
    b9ec:	66 c7 85 c8 ec ff ff 	movw   $0x9e30,-0x1338(%rbp)
    b9f3:	30 9e 
    b9f5:	66 c7 85 ca ec ff ff 	movw   $0x1,-0x1336(%rbp)
    b9fc:	01 00 
    b9fe:	66 c7 85 cc ec ff ff 	movw   $0x5bd3,-0x1334(%rbp)
    ba05:	d3 5b 
    ba07:	66 c7 85 ce ec ff ff 	movw   $0x0,-0x1332(%rbp)
    ba0e:	00 00 
    ba10:	66 c7 85 d0 ec ff ff 	movw   $0x1,-0x1330(%rbp)
    ba17:	01 00 
    ba19:	66 c7 85 d2 ec ff ff 	movw   $0xffff,-0x132e(%rbp)
    ba20:	ff ff 
    ba22:	66 c7 85 d4 ec ff ff 	movw   $0xfffb,-0x132c(%rbp)
    ba29:	fb ff 
    ba2b:	66 c7 85 d6 ec ff ff 	movw   $0x10cb,-0x132a(%rbp)
    ba32:	cb 10 
    ba34:	66 c7 85 d8 ec ff ff 	movw   $0x562,-0x1328(%rbp)
    ba3b:	62 05 
    ba3d:	66 c7 85 da ec ff ff 	movw   $0x5375,-0x1326(%rbp)
    ba44:	75 53 
    ba46:	66 c7 85 dc ec ff ff 	movw   $0x10cb,-0x1324(%rbp)
    ba4d:	cb 10 
    ba4f:	66 c7 85 de ec ff ff 	movw   $0x1,-0x1322(%rbp)
    ba56:	01 00 
    ba58:	66 c7 85 e0 ec ff ff 	movw   $0x10cb,-0x1320(%rbp)
    ba5f:	cb 10 
    ba61:	66 c7 85 e2 ec ff ff 	movw   $0x6,-0x131e(%rbp)
    ba68:	06 00 
    ba6a:	66 c7 85 e4 ec ff ff 	movw   $0x5bd3,-0x131c(%rbp)
    ba71:	d3 5b 
    ba73:	66 c7 85 e6 ec ff ff 	movw   $0x5bd3,-0x131a(%rbp)
    ba7a:	d3 5b 
    ba7c:	66 c7 85 e8 ec ff ff 	movw   $0x6,-0x1318(%rbp)
    ba83:	06 00 
    ba85:	66 c7 85 ea ec ff ff 	movw   $0xffff,-0x1316(%rbp)
    ba8c:	ff ff 
    ba8e:	66 c7 85 ec ec ff ff 	movw   $0x1,-0x1314(%rbp)
    ba95:	01 00 
    ba97:	66 c7 85 ee ec ff ff 	movw   $0x0,-0x1312(%rbp)
    ba9e:	00 00 
    baa0:	66 c7 85 f0 ec ff ff 	movw   $0xffff,-0x1310(%rbp)
    baa7:	ff ff 
    baa9:	66 c7 85 f2 ec ff ff 	movw   $0x4129,-0x130e(%rbp)
    bab0:	29 41 
    bab2:	66 c7 85 f4 ec ff ff 	movw   $0xfff8,-0x130c(%rbp)
    bab9:	f8 ff 
    babb:	66 c7 85 f6 ec ff ff 	movw   $0x448d,-0x130a(%rbp)
    bac2:	8d 44 
    bac4:	66 c7 85 f8 ec ff ff 	movw   $0xfffb,-0x1308(%rbp)
    bacb:	fb ff 
    bacd:	66 c7 85 fa ec ff ff 	movw   $0xffff,-0x1306(%rbp)
    bad4:	ff ff 
    bad6:	66 c7 85 fc ec ff ff 	movw   $0xffff,-0x1304(%rbp)
    badd:	ff ff 
    badf:	66 c7 85 fe ec ff ff 	movw   $0x0,-0x1302(%rbp)
    bae6:	00 00 
    bae8:	66 c7 85 00 ed ff ff 	movw   $0x0,-0x1300(%rbp)
    baef:	00 00 
    baf1:	66 c7 85 02 ed ff ff 	movw   $0x9,-0x12fe(%rbp)
    baf8:	09 00 
    bafa:	66 c7 85 04 ed ff ff 	movw   $0x0,-0x12fc(%rbp)
    bb01:	00 00 
    bb03:	66 c7 85 06 ed ff ff 	movw   $0x0,-0x12fa(%rbp)
    bb0a:	00 00 
    bb0c:	66 c7 85 08 ed ff ff 	movw   $0xcb35,-0x12f8(%rbp)
    bb13:	35 cb 
    bb15:	66 c7 85 0a ed ff ff 	movw   $0x0,-0x12f6(%rbp)
    bb1c:	00 00 
    bb1e:	48 8d 05 73 3f 01 00 	lea    0x13f73(%rip),%rax        # 1fa98 <g_1041>
    bb25:	48 89 85 c8 ea ff ff 	mov    %rax,-0x1538(%rbp)
    bb2c:	48 8d 85 c8 ea ff ff 	lea    -0x1538(%rbp),%rax
    bb33:	48 89 85 20 eb ff ff 	mov    %rax,-0x14e0(%rbp)
    bb3a:	48 c7 85 28 eb ff ff 	movq   $0x1,-0x14d8(%rbp)
    bb41:	01 00 00 00 
    bb45:	48 b8 1c 97 d7 a4 68 	movabs $0x210f1b68a4d7971c,%rax
    bb4c:	1b 0f 21 
    bb4f:	48 89 85 30 eb ff ff 	mov    %rax,-0x14d0(%rbp)
    bb56:	48 8d 05 33 43 01 00 	lea    0x14333(%rip),%rax        # 1fe90 <g_2011>
    bb5d:	48 89 85 d0 ea ff ff 	mov    %rax,-0x1530(%rbp)
    bb64:	48 8d 85 d0 f1 ff ff 	lea    -0xe30(%rbp),%rax
    bb6b:	48 8d 15 6e b6 00 00 	lea    0xb66e(%rip),%rdx        # 171e0 <g_3500+0x10>
    bb72:	b9 24 00 00 00       	mov    $0x24,%ecx
    bb77:	48 89 c7             	mov    %rax,%rdi
    bb7a:	48 89 d6             	mov    %rdx,%rsi
    bb7d:	f3 48 a5             	rep movsq %ds:(%rsi),%es:(%rdi)
    bb80:	c6 85 6c ea ff ff 31 	movb   $0x31,-0x1594(%rbp)
    bb87:	c7 85 90 ea ff ff d7 	movl   $0x766622d7,-0x1570(%rbp)
    bb8e:	22 66 76 
    bb91:	48 8d 05 d0 42 01 00 	lea    0x142d0(%rip),%rax        # 1fe68 <g_1881+0x28>
    bb98:	48 89 85 38 eb ff ff 	mov    %rax,-0x14c8(%rbp)
    bb9f:	c7 85 94 ea ff ff 00 	movl   $0x0,-0x156c(%rbp)
    bba6:	00 00 00 
    bba9:	c6 85 6d ea ff ff c0 	movb   $0xc0,-0x1593(%rbp)
    bbb0:	c7 85 98 ea ff ff b8 	movl   $0xc4a8deb8,-0x1568(%rbp)
    bbb7:	de a8 c4 
    bbba:	c7 85 9c ea ff ff 11 	movl   $0x3eb7c111,-0x1564(%rbp)
    bbc1:	c1 b7 3e 
    bbc4:	c7 85 a0 ea ff ff ff 	movl   $0xffffffff,-0x1560(%rbp)
    bbcb:	ff ff ff 
    bbce:	48 b8 82 7e 99 97 a5 	movabs $0xa2ac0ea597997e82,%rax
    bbd5:	0e ac a2 
    bbd8:	48 89 85 40 eb ff ff 	mov    %rax,-0x14c0(%rbp)
    bbdf:	48 8d 85 d0 ea ff ff 	lea    -0x1530(%rbp),%rax
    bbe6:	48 89 85 48 eb ff ff 	mov    %rax,-0x14b8(%rbp)
    bbed:	48 8d 05 1c 08 01 00 	lea    0x1081c(%rip),%rax        # 1c410 <g_1627>
    bbf4:	48 89 85 50 eb ff ff 	mov    %rax,-0x14b0(%rbp)
    bbfb:	66 c7 85 70 ea ff ff 	movw   $0x5,-0x1590(%rbp)
    bc02:	05 00 
    bc04:	48 8d 05 dd 08 01 00 	lea    0x108dd(%rip),%rax        # 1c4e8 <g_2221>
    bc0b:	48 89 85 d8 ea ff ff 	mov    %rax,-0x1528(%rbp)
    bc12:	48 8d 85 d8 ea ff ff 	lea    -0x1528(%rbp),%rax
    bc19:	48 89 85 58 eb ff ff 	mov    %rax,-0x14a8(%rbp)
    bc20:	c6 85 6e ea ff ff cc 	movb   $0xcc,-0x1592(%rbp)
    bc27:	48 b8 07 01 57 98 f1 	movabs $0x213aebf198570107,%rax
    bc2e:	eb 3a 21 
    bc31:	48 89 85 60 eb ff ff 	mov    %rax,-0x14a0(%rbp)
    bc38:	48 8d 85 60 f9 ff ff 	lea    -0x6a0(%rbp),%rax
    bc3f:	48 8d 15 fa 0e 01 00 	lea    0x10efa(%rip),%rdx        # 1cb40 <g_3956+0x2b8>
    bc46:	b9 d2 00 00 00       	mov    $0xd2,%ecx
    bc4b:	48 89 c7             	mov    %rax,%rdi
    bc4e:	48 89 d6             	mov    %rdx,%rsi
    bc51:	f3 48 a5             	rep movsq %ds:(%rsi),%es:(%rdi)
    bc54:	48 b8 6c d4 81 f9 d2 	movabs $0xcf3655d2f981d46c,%rax
    bc5b:	55 36 cf 
    bc5e:	48 89 85 68 eb ff ff 	mov    %rax,-0x1498(%rbp)
    bc65:	c6 85 6f ea ff ff fc 	movb   $0xfc,-0x1591(%rbp)
    bc6c:	66 c7 85 72 ea ff ff 	movw   $0x78ba,-0x158e(%rbp)
    bc73:	ba 78 
    bc75:	c7 85 a4 ea ff ff d7 	movl   $0x46a920d7,-0x155c(%rbp)
    bc7c:	20 a9 46 
    bc7f:	66 c7 85 74 ea ff ff 	movw   $0x0,-0x158c(%rbp)
    bc86:	00 00 
    bc88:	c7 85 a8 ea ff ff 3d 	movl   $0x8c2b8d3d,-0x1558(%rbp)
    bc8f:	8d 2b 8c 
    bc92:	66 c7 85 76 ea ff ff 	movw   $0x8,-0x158a(%rbp)
    bc99:	08 00 
    bc9b:	c7 85 ac ea ff ff f9 	movl   $0xfffffff9,-0x1554(%rbp)
    bca2:	ff ff ff 
    bca5:	66 c7 85 78 ea ff ff 	movw   $0x0,-0x1588(%rbp)
    bcac:	00 00 
    bcae:	c7 85 b0 ea ff ff fe 	movl   $0xfffffffe,-0x1550(%rbp)
    bcb5:	ff ff ff 
    bcb8:	66 c7 85 7a ea ff ff 	movw   $0xffff,-0x1586(%rbp)
    bcbf:	ff ff 
    bcc1:	48 8d 85 60 f4 ff ff 	lea    -0xba0(%rbp),%rax
    bcc8:	48 8d 15 11 15 01 00 	lea    0x11511(%rip),%rdx        # 1d1e0 <g_3956+0x958>
    bccf:	b9 a0 00 00 00       	mov    $0xa0,%ecx
    bcd4:	48 89 c7             	mov    %rax,%rdi
    bcd7:	48 89 d6             	mov    %rdx,%rsi
    bcda:	f3 48 a5             	rep movsq %ds:(%rsi),%es:(%rdi)
    bcdd:	c7 45 f4 ff ff ff ff 	movl   $0xffffffff,-0xc(%rbp)
    bce4:	66 c7 85 7c ea ff ff 	movw   $0x94ee,-0x1584(%rbp)
    bceb:	ee 94 
    bced:	48 b8 73 d3 2a fd 78 	movabs $0x8bccee78fd2ad373,%rax
    bcf4:	ee cc 8b 
    bcf7:	48 89 85 90 ee ff ff 	mov    %rax,-0x1170(%rbp)
    bcfe:	48 89 85 98 ee ff ff 	mov    %rax,-0x1168(%rbp)
    bd05:	48 bf 24 20 d3 a2 69 	movabs $0x1167b569a2d32024,%rdi
    bd0c:	b5 67 11 
    bd0f:	48 89 bd a0 ee ff ff 	mov    %rdi,-0x1160(%rbp)
    bd16:	48 89 85 a8 ee ff ff 	mov    %rax,-0x1158(%rbp)
    bd1d:	48 89 85 b0 ee ff ff 	mov    %rax,-0x1150(%rbp)
    bd24:	48 c7 85 b8 ee ff ff 	movq   $0x0,-0x1148(%rbp)
    bd2b:	00 00 00 00 
    bd2f:	48 c7 85 c0 ee ff ff 	movq   $0x0,-0x1140(%rbp)
    bd36:	00 00 00 00 
    bd3a:	48 89 85 c8 ee ff ff 	mov    %rax,-0x1138(%rbp)
    bd41:	48 c7 85 d0 ee ff ff 	movq   $0x0,-0x1130(%rbp)
    bd48:	00 00 00 00 
    bd4c:	48 89 85 d8 ee ff ff 	mov    %rax,-0x1128(%rbp)
    bd53:	48 c7 85 e0 ee ff ff 	movq   $0x0,-0x1120(%rbp)
    bd5a:	00 00 00 00 
    bd5e:	48 c7 85 e8 ee ff ff 	movq   $0x0,-0x1118(%rbp)
    bd65:	00 00 00 00 
    bd69:	48 89 85 f0 ee ff ff 	mov    %rax,-0x1110(%rbp)
    bd70:	48 89 85 f8 ee ff ff 	mov    %rax,-0x1108(%rbp)
    bd77:	48 89 bd 00 ef ff ff 	mov    %rdi,-0x1100(%rbp)
    bd7e:	48 89 85 08 ef ff ff 	mov    %rax,-0x10f8(%rbp)
    bd85:	48 89 85 10 ef ff ff 	mov    %rax,-0x10f0(%rbp)
    bd8c:	48 c7 85 18 ef ff ff 	movq   $0x0,-0x10e8(%rbp)
    bd93:	00 00 00 00 
    bd97:	48 c7 85 20 ef ff ff 	movq   $0x0,-0x10e0(%rbp)
    bd9e:	00 00 00 00 
    bda2:	48 89 85 28 ef ff ff 	mov    %rax,-0x10d8(%rbp)
    bda9:	48 c7 85 30 ef ff ff 	movq   $0x0,-0x10d0(%rbp)
    bdb0:	00 00 00 00 
    bdb4:	48 89 85 38 ef ff ff 	mov    %rax,-0x10c8(%rbp)
    bdbb:	48 c7 85 40 ef ff ff 	movq   $0x0,-0x10c0(%rbp)
    bdc2:	00 00 00 00 
    bdc6:	48 c7 85 48 ef ff ff 	movq   $0x0,-0x10b8(%rbp)
    bdcd:	00 00 00 00 
    bdd1:	48 89 85 50 ef ff ff 	mov    %rax,-0x10b0(%rbp)
    bdd8:	48 89 85 58 ef ff ff 	mov    %rax,-0x10a8(%rbp)
    bddf:	48 89 bd 60 ef ff ff 	mov    %rdi,-0x10a0(%rbp)
    bde6:	48 89 85 68 ef ff ff 	mov    %rax,-0x1098(%rbp)
    bded:	48 89 85 70 ef ff ff 	mov    %rax,-0x1090(%rbp)
    bdf4:	48 c7 85 78 ef ff ff 	movq   $0x0,-0x1088(%rbp)
    bdfb:	00 00 00 00 
    bdff:	48 c7 85 80 ef ff ff 	movq   $0x0,-0x1080(%rbp)
    be06:	00 00 00 00 
    be0a:	48 89 85 88 ef ff ff 	mov    %rax,-0x1078(%rbp)
    be11:	48 c7 85 70 eb ff ff 	movq   $0xffffffffffffffff,-0x1490(%rbp)
    be18:	ff ff ff ff 
    be1c:	48 b8 76 74 6b 76 00 	movabs $0x22442600766b7476,%rax
    be23:	26 44 22 
    be26:	48 89 85 d0 eb ff ff 	mov    %rax,-0x1430(%rbp)
    be2d:	48 c7 85 d8 eb ff ff 	movq   $0xffffffffffffffff,-0x1428(%rbp)
    be34:	ff ff ff ff 
    be38:	48 89 85 e0 eb ff ff 	mov    %rax,-0x1420(%rbp)
    be3f:	48 c7 85 e8 eb ff ff 	movq   $0xffffffffffffffff,-0x1418(%rbp)
    be46:	ff ff ff ff 
    be4a:	48 89 85 f0 eb ff ff 	mov    %rax,-0x1410(%rbp)
    be51:	48 c7 85 f8 eb ff ff 	movq   $0xffffffffffffffff,-0x1408(%rbp)
    be58:	ff ff ff ff 
    be5c:	48 89 85 00 ec ff ff 	mov    %rax,-0x1400(%rbp)
    be63:	48 c7 85 08 ec ff ff 	movq   $0xffffffffffffffff,-0x13f8(%rbp)
    be6a:	ff ff ff ff 
    be6e:	48 89 85 10 ec ff ff 	mov    %rax,-0x13f0(%rbp)
    be75:	48 8d 05 34 41 01 00 	lea    0x14134(%rip),%rax        # 1ffb0 <g_2853>
    be7c:	48 89 85 20 ec ff ff 	mov    %rax,-0x13e0(%rbp)
    be83:	48 8d 05 26 41 01 00 	lea    0x14126(%rip),%rax        # 1ffb0 <g_2853>
    be8a:	48 89 85 28 ec ff ff 	mov    %rax,-0x13d8(%rbp)
    be91:	48 8d 05 18 41 01 00 	lea    0x14118(%rip),%rax        # 1ffb0 <g_2853>
    be98:	48 89 85 30 ec ff ff 	mov    %rax,-0x13d0(%rbp)
    be9f:	48 8d 05 0a 41 01 00 	lea    0x1410a(%rip),%rax        # 1ffb0 <g_2853>
    bea6:	48 89 85 38 ec ff ff 	mov    %rax,-0x13c8(%rbp)
    bead:	48 8d 05 fc 40 01 00 	lea    0x140fc(%rip),%rax        # 1ffb0 <g_2853>
    beb4:	48 89 85 40 ec ff ff 	mov    %rax,-0x13c0(%rbp)
    bebb:	48 8d 05 ee 40 01 00 	lea    0x140ee(%rip),%rax        # 1ffb0 <g_2853>
    bec2:	48 89 85 48 ec ff ff 	mov    %rax,-0x13b8(%rbp)
    bec9:	48 8d 05 e0 40 01 00 	lea    0x140e0(%rip),%rax        # 1ffb0 <g_2853>
    bed0:	48 89 85 50 ec ff ff 	mov    %rax,-0x13b0(%rbp)
    bed7:	48 8d 05 d2 40 01 00 	lea    0x140d2(%rip),%rax        # 1ffb0 <g_2853>
    bede:	48 89 85 58 ec ff ff 	mov    %rax,-0x13a8(%rbp)
    bee5:	48 8d 05 c4 40 01 00 	lea    0x140c4(%rip),%rax        # 1ffb0 <g_2853>
    beec:	48 89 85 60 ec ff ff 	mov    %rax,-0x13a0(%rbp)
    bef3:	48 8d 05 b6 40 01 00 	lea    0x140b6(%rip),%rax        # 1ffb0 <g_2853>
    befa:	48 89 85 68 ec ff ff 	mov    %rax,-0x1398(%rbp)
    bf01:	48 8d 05 a8 40 01 00 	lea    0x140a8(%rip),%rax        # 1ffb0 <g_2853>
    bf08:	48 89 85 70 ec ff ff 	mov    %rax,-0x1390(%rbp)
    bf0f:	48 8d 05 9a 40 01 00 	lea    0x1409a(%rip),%rax        # 1ffb0 <g_2853>
    bf16:	48 89 85 78 ec ff ff 	mov    %rax,-0x1388(%rbp)
    bf1d:	c7 85 b4 ea ff ff 5d 	movl   $0x994fe35d,-0x154c(%rbp)
    bf24:	e3 4f 99 
    bf27:	48 8d 85 b0 eb ff ff 	lea    -0x1450(%rbp),%rax
    bf2e:	48 89 85 e0 ea ff ff 	mov    %rax,-0x1520(%rbp)
    bf35:	48 8d 85 e0 ea ff ff 	lea    -0x1520(%rbp),%rax
    bf3c:	48 89 85 78 eb ff ff 	mov    %rax,-0x1488(%rbp)
    bf43:	66 c7 85 7e ea ff ff 	movw   $0x1,-0x1582(%rbp)
    bf4a:	01 00 
    bf4c:	48 c7 85 80 eb ff ff 	movq   $0xfffffffffffffff9,-0x1480(%rbp)
    bf53:	f9 ff ff ff 
    bf57:	c7 85 a0 ed ff ff 64 	movl   $0x2d02b64,-0x1260(%rbp)
    bf5e:	2b d0 02 
    bf61:	c6 85 a4 ed ff ff 61 	movb   $0x61,-0x125c(%rbp)
    bf68:	c7 85 a5 ed ff ff fe 	movl   $0xfe0d0dfe,-0x125b(%rbp)
    bf6f:	0d 0d fe 
    bf72:	c6 85 a9 ed ff ff 61 	movb   $0x61,-0x1257(%rbp)
    bf79:	c7 85 aa ed ff ff 6f 	movl   $0x1ffe16f,-0x1256(%rbp)
    bf80:	e1 ff 01 
    bf83:	c6 85 ae ed ff ff fe 	movb   $0xfe,-0x1252(%rbp)
    bf8a:	c7 85 af ed ff ff 04 	movl   $0x2bb80104,-0x1251(%rbp)
    bf91:	01 b8 2b 
    bf94:	c6 85 b3 ed ff ff 61 	movb   $0x61,-0x124d(%rbp)
    bf9b:	c7 85 b4 ed ff ff 99 	movl   $0x1640299,-0x124c(%rbp)
    bfa2:	02 64 01 
    bfa5:	c6 85 b8 ed ff ff fc 	movb   $0xfc,-0x1248(%rbp)
    bfac:	c7 85 b9 ed ff ff ff 	movl   $0xff670dff,-0x1247(%rbp)
    bfb3:	0d 67 ff 
    bfb6:	c6 85 bd ed ff ff 67 	movb   $0x67,-0x1243(%rbp)
    bfbd:	c7 85 be ed ff ff fc 	movl   $0x6f67fcfc,-0x1242(%rbp)
    bfc4:	fc 67 6f 
    bfc7:	c6 85 c2 ed ff ff 02 	movb   $0x2,-0x123e(%rbp)
    bfce:	c7 85 c3 ed ff ff d0 	movl   $0x4642bd0,-0x123d(%rbp)
    bfd5:	2b 64 04 
    bfd8:	c6 85 c7 ed ff ff ff 	movb   $0xff,-0x1239(%rbp)
    bfdf:	c7 85 c8 ed ff ff e1 	movl   $0x99b820e1,-0x1238(%rbp)
    bfe6:	20 b8 99 
    bfe9:	c6 85 cc ed ff ff d0 	movb   $0xd0,-0x1234(%rbp)
    bff0:	c7 85 cd ed ff ff 0d 	movl   $0xffff2b0d,-0x1233(%rbp)
    bff7:	2b ff ff 
    bffa:	c6 85 d1 ed ff ff b8 	movb   $0xb8,-0x122f(%rbp)
    c001:	c7 85 d2 ed ff ff ff 	movl   $0xfc99fcff,-0x122e(%rbp)
    c008:	fc 99 fc 
    c00b:	c6 85 d6 ed ff ff ff 	movb   $0xff,-0x122a(%rbp)
    c012:	c7 85 d7 ed ff ff ff 	movl   $0xd0e10dff,-0x1229(%rbp)
    c019:	0d e1 d0 
    c01c:	c6 85 db ed ff ff fc 	movb   $0xfc,-0x1225(%rbp)
    c023:	c7 85 dc ed ff ff 0d 	movl   $0xe101020d,-0x1224(%rbp)
    c02a:	02 01 e1 
    c02d:	c6 85 e0 ed ff ff 99 	movb   $0x99,-0x1220(%rbp)
    c034:	c7 85 e1 ed ff ff e1 	movl   $0xd0201e1,-0x121f(%rbp)
    c03b:	01 02 0d 
    c03e:	c6 85 e5 ed ff ff fc 	movb   $0xfc,-0x121b(%rbp)
    c045:	c7 85 e6 ed ff ff d0 	movl   $0xff0de1d0,-0x121a(%rbp)
    c04c:	e1 0d ff 
    c04f:	c6 85 ea ed ff ff ff 	movb   $0xff,-0x1216(%rbp)
    c056:	c7 85 eb ed ff ff fc 	movl   $0xfffc99fc,-0x1215(%rbp)
    c05d:	99 fc ff 
    c060:	c6 85 ef ed ff ff b8 	movb   $0xb8,-0x1211(%rbp)
    c067:	c7 85 f0 ed ff ff ff 	movl   $0xd2bffff,-0x1210(%rbp)
    c06e:	ff 2b 0d 
    c071:	c6 85 f4 ed ff ff d0 	movb   $0xd0,-0x120c(%rbp)
    c078:	c7 85 f5 ed ff ff 99 	movl   $0xe120b899,-0x120b(%rbp)
    c07f:	b8 20 e1 
    c082:	c6 85 f9 ed ff ff ff 	movb   $0xff,-0x1207(%rbp)
    c089:	c7 85 fa ed ff ff 04 	movl   $0xd02b6404,-0x1206(%rbp)
    c090:	64 2b d0 
    c093:	c6 85 fe ed ff ff 02 	movb   $0x2,-0x1202(%rbp)
    c09a:	c7 85 ff ed ff ff 6f 	movl   $0xfcfc676f,-0x1201(%rbp)
    c0a1:	67 fc fc 
    c0a4:	c6 85 03 ee ff ff 67 	movb   $0x67,-0x11fd(%rbp)
    c0ab:	c7 85 04 ee ff ff ff 	movl   $0xff0d67ff,-0x11fc(%rbp)
    c0b2:	67 0d ff 
    c0b5:	c6 85 08 ee ff ff fc 	movb   $0xfc,-0x11f8(%rbp)
    c0bc:	c7 85 09 ee ff ff 01 	movl   $0x99026401,-0x11f7(%rbp)
    c0c3:	64 02 99 
    c0c6:	c6 85 0d ee ff ff 61 	movb   $0x61,-0x11f3(%rbp)
    c0cd:	c7 85 0e ee ff ff 2b 	movl   $0x401b82b,-0x11f2(%rbp)
    c0d4:	b8 01 04 
    c0d7:	c6 85 12 ee ff ff fe 	movb   $0xfe,-0x11ee(%rbp)
    c0de:	c7 85 13 ee ff ff 01 	movl   $0x6fe1ff01,-0x11ed(%rbp)
    c0e5:	ff e1 6f 
    c0e8:	c6 85 17 ee ff ff 0d 	movb   $0xd,-0x11e9(%rbp)
    c0ef:	c7 85 18 ee ff ff ff 	movl   $0xff9999ff,-0x11e8(%rbp)
    c0f6:	99 99 ff 
    c0f9:	c6 85 1c ee ff ff 0d 	movb   $0xd,-0x11e4(%rbp)
    c100:	c7 85 1d ee ff ff 6f 	movl   $0x1ffe16f,-0x11e3(%rbp)
    c107:	e1 ff 01 
    c10a:	c6 85 21 ee ff ff fe 	movb   $0xfe,-0x11df(%rbp)
    c111:	c7 85 22 ee ff ff 04 	movl   $0x2bb80104,-0x11de(%rbp)
    c118:	01 b8 2b 
    c11b:	c6 85 26 ee ff ff 61 	movb   $0x61,-0x11da(%rbp)
    c122:	c7 85 27 ee ff ff 99 	movl   $0x1640299,-0x11d9(%rbp)
    c129:	02 64 01 
    c12c:	c6 85 2b ee ff ff fc 	movb   $0xfc,-0x11d5(%rbp)
    c133:	c7 85 2c ee ff ff ff 	movl   $0xff670dff,-0x11d4(%rbp)
    c13a:	0d 67 ff 
    c13d:	c6 85 30 ee ff ff 67 	movb   $0x67,-0x11d0(%rbp)
    c144:	c7 85 31 ee ff ff fc 	movl   $0x6f67fcfc,-0x11cf(%rbp)
    c14b:	fc 67 6f 
    c14e:	c6 85 35 ee ff ff 02 	movb   $0x2,-0x11cb(%rbp)
    c155:	c7 85 36 ee ff ff d0 	movl   $0x4642bd0,-0x11ca(%rbp)
    c15c:	2b 64 04 
    c15f:	c6 85 3a ee ff ff ff 	movb   $0xff,-0x11c6(%rbp)
    c166:	c7 85 3b ee ff ff e1 	movl   $0x99b820e1,-0x11c5(%rbp)
    c16d:	20 b8 99 
    c170:	c6 85 3f ee ff ff d0 	movb   $0xd0,-0x11c1(%rbp)
    c177:	c7 85 40 ee ff ff 0d 	movl   $0xffff2b0d,-0x11c0(%rbp)
    c17e:	2b ff ff 
    c181:	c6 85 44 ee ff ff b8 	movb   $0xb8,-0x11bc(%rbp)
    c188:	c7 85 45 ee ff ff ff 	movl   $0xfc99fcff,-0x11bb(%rbp)
    c18f:	fc 99 fc 
    c192:	c6 85 49 ee ff ff ff 	movb   $0xff,-0x11b7(%rbp)
    c199:	c7 85 4a ee ff ff ff 	movl   $0xd0e10dff,-0x11b6(%rbp)
    c1a0:	0d e1 d0 
    c1a3:	c6 85 4e ee ff ff fc 	movb   $0xfc,-0x11b2(%rbp)
    c1aa:	c7 85 4f ee ff ff 0d 	movl   $0xe101020d,-0x11b1(%rbp)
    c1b1:	02 01 e1 
    c1b4:	c6 85 53 ee ff ff 99 	movb   $0x99,-0x11ad(%rbp)
    c1bb:	c7 85 54 ee ff ff e1 	movl   $0xd0201e1,-0x11ac(%rbp)
    c1c2:	01 02 0d 
    c1c5:	c6 85 58 ee ff ff fc 	movb   $0xfc,-0x11a8(%rbp)
    c1cc:	c7 85 59 ee ff ff d0 	movl   $0xff0de1d0,-0x11a7(%rbp)
    c1d3:	e1 0d ff 
    c1d6:	c6 85 5d ee ff ff ff 	movb   $0xff,-0x11a3(%rbp)
    c1dd:	c7 85 5e ee ff ff fc 	movl   $0xfffc99fc,-0x11a2(%rbp)
    c1e4:	99 fc ff 
    c1e7:	c6 85 62 ee ff ff b8 	movb   $0xb8,-0x119e(%rbp)
    c1ee:	c7 85 63 ee ff ff ff 	movl   $0xd2bffff,-0x119d(%rbp)
    c1f5:	ff 2b 0d 
    c1f8:	c6 85 67 ee ff ff d0 	movb   $0xd0,-0x1199(%rbp)
    c1ff:	c7 85 68 ee ff ff 99 	movl   $0xff046799,-0x1198(%rbp)
    c206:	67 04 ff 
    c209:	c6 85 6c ee ff ff ff 	movb   $0xff,-0x1194(%rbp)
    c210:	c7 85 6d ee ff ff fe 	movl   $0xe1ff01fe,-0x1193(%rbp)
    c217:	01 ff e1 
    c21a:	c6 85 71 ee ff ff 6f 	movb   $0x6f,-0x118f(%rbp)
    c221:	c7 85 72 ee ff ff fc 	movl   $0xfcfc20fc,-0x118e(%rbp)
    c228:	20 fc fc 
    c22b:	c6 85 76 ee ff ff 20 	movb   $0x20,-0x118a(%rbp)
    c232:	c7 85 77 ee ff ff ff 	movl   $0x649920ff,-0x1189(%rbp)
    c239:	20 99 64 
    c23c:	c6 85 7b ee ff ff 61 	movb   $0x61,-0x1185(%rbp)
    c243:	c7 85 7c ee ff ff d0 	movl   $0x66f01d0,-0x1184(%rbp)
    c24a:	01 6f 06 
    c24d:	c6 85 80 ee ff ff 0d 	movb   $0xd,-0x1180(%rbp)
    c254:	48 8d 85 6c ea ff ff 	lea    -0x1594(%rbp),%rax
    c25b:	48 89 85 10 ed ff ff 	mov    %rax,-0x12f0(%rbp)
    c262:	48 8d 85 6c ea ff ff 	lea    -0x1594(%rbp),%rax
    c269:	48 89 85 18 ed ff ff 	mov    %rax,-0x12e8(%rbp)
    c270:	48 8d 85 6c ea ff ff 	lea    -0x1594(%rbp),%rax
    c277:	48 89 85 20 ed ff ff 	mov    %rax,-0x12e0(%rbp)
    c27e:	48 8d 05 b5 fd 00 00 	lea    0xfdb5(%rip),%rax        # 1c03a <g_167>
    c285:	48 89 85 28 ed ff ff 	mov    %rax,-0x12d8(%rbp)
    c28c:	48 8d 05 a7 fd 00 00 	lea    0xfda7(%rip),%rax        # 1c03a <g_167>
    c293:	48 89 85 30 ed ff ff 	mov    %rax,-0x12d0(%rbp)
    c29a:	48 8d 05 99 fd 00 00 	lea    0xfd99(%rip),%rax        # 1c03a <g_167>
    c2a1:	48 89 85 38 ed ff ff 	mov    %rax,-0x12c8(%rbp)
    c2a8:	48 8d 85 6c ea ff ff 	lea    -0x1594(%rbp),%rax
    c2af:	48 89 85 40 ed ff ff 	mov    %rax,-0x12c0(%rbp)
    c2b6:	48 8d 85 6c ea ff ff 	lea    -0x1594(%rbp),%rax
    c2bd:	48 89 85 48 ed ff ff 	mov    %rax,-0x12b8(%rbp)
    c2c4:	48 8d 85 6c ea ff ff 	lea    -0x1594(%rbp),%rax
    c2cb:	48 89 85 50 ed ff ff 	mov    %rax,-0x12b0(%rbp)
    c2d2:	48 8d 05 61 fd 00 00 	lea    0xfd61(%rip),%rax        # 1c03a <g_167>
    c2d9:	48 89 85 58 ed ff ff 	mov    %rax,-0x12a8(%rbp)
    c2e0:	48 8d 05 53 fd 00 00 	lea    0xfd53(%rip),%rax        # 1c03a <g_167>
    c2e7:	48 89 85 60 ed ff ff 	mov    %rax,-0x12a0(%rbp)
    c2ee:	48 8d 05 45 fd 00 00 	lea    0xfd45(%rip),%rax        # 1c03a <g_167>
    c2f5:	48 89 85 68 ed ff ff 	mov    %rax,-0x1298(%rbp)
    c2fc:	48 8d 85 6c ea ff ff 	lea    -0x1594(%rbp),%rax
    c303:	48 89 85 70 ed ff ff 	mov    %rax,-0x1290(%rbp)
    c30a:	48 8d 85 6c ea ff ff 	lea    -0x1594(%rbp),%rax
    c311:	48 89 85 78 ed ff ff 	mov    %rax,-0x1288(%rbp)
    c318:	48 8d 85 6c ea ff ff 	lea    -0x1594(%rbp),%rax
    c31f:	48 89 85 80 ed ff ff 	mov    %rax,-0x1280(%rbp)
    c326:	48 8d 05 0d fd 00 00 	lea    0xfd0d(%rip),%rax        # 1c03a <g_167>
    c32d:	48 89 85 88 ed ff ff 	mov    %rax,-0x1278(%rbp)
    c334:	48 8d 05 ff fc 00 00 	lea    0xfcff(%rip),%rax        # 1c03a <g_167>
    c33b:	48 89 85 90 ed ff ff 	mov    %rax,-0x1270(%rbp)
    c342:	48 8d 05 f1 fc 00 00 	lea    0xfcf1(%rip),%rax        # 1c03a <g_167>
    c349:	48 89 85 98 ed ff ff 	mov    %rax,-0x1268(%rbp)
    c350:	48 8d 85 10 ed ff ff 	lea    -0x12f0(%rbp),%rax
    c357:	48 83 c0 28          	add    $0x28,%rax
    c35b:	48 89 85 88 eb ff ff 	mov    %rax,-0x1478(%rbp)
    c362:	48 c7 85 90 eb ff ff 	movq   $0x0,-0x1470(%rbp)
    c369:	00 00 00 00 
    c36d:	c7 85 80 ea ff ff 00 	movl   $0x0,-0x1580(%rbp)
    c374:	00 00 00 
    c377:	eb 78                	jmp    c3f1 <func_1+0xc3c>
    c379:	c7 85 84 ea ff ff 00 	movl   $0x0,-0x157c(%rbp)
    c380:	00 00 00 
    c383:	eb 5c                	jmp    c3e1 <func_1+0xc2c>
    c385:	c7 85 88 ea ff ff 00 	movl   $0x0,-0x1578(%rbp)
    c38c:	00 00 00 
    c38f:	eb 40                	jmp    c3d1 <func_1+0xc1c>
    c391:	8b 85 88 ea ff ff    	mov    -0x1578(%rbp),%eax
    c397:	48 63 f0             	movslq %eax,%rsi
    c39a:	8b 85 84 ea ff ff    	mov    -0x157c(%rbp),%eax
    c3a0:	48 63 c8             	movslq %eax,%rcx
    c3a3:	8b 85 80 ea ff ff    	mov    -0x1580(%rbp),%eax
    c3a9:	48 63 d0             	movslq %eax,%rdx
    c3ac:	48 89 d0             	mov    %rdx,%rax
    c3af:	48 01 c0             	add    %rax,%rax
    c3b2:	48 01 d0             	add    %rdx,%rax
    c3b5:	48 01 c0             	add    %rax,%rax
    c3b8:	48 01 f0             	add    %rsi,%rax
    c3bb:	48 01 c8             	add    %rcx,%rax
    c3be:	48 c7 84 c5 90 ef ff 	movq   $0x0,-0x1070(%rbp,%rax,8)
    c3c5:	ff 00 00 00 00 
    c3ca:	83 85 88 ea ff ff 01 	addl   $0x1,-0x1578(%rbp)
    c3d1:	83 bd 88 ea ff ff 00 	cmpl   $0x0,-0x1578(%rbp)
    c3d8:	7e b7                	jle    c391 <func_1+0xbdc>
    c3da:	83 85 84 ea ff ff 01 	addl   $0x1,-0x157c(%rbp)
    c3e1:	83 bd 84 ea ff ff 05 	cmpl   $0x5,-0x157c(%rbp)
    c3e8:	7e 9b                	jle    c385 <func_1+0xbd0>
    c3ea:	83 85 80 ea ff ff 01 	addl   $0x1,-0x1580(%rbp)
    c3f1:	83 bd 80 ea ff ff 05 	cmpl   $0x5,-0x1580(%rbp)
    c3f8:	0f 8e 7b ff ff ff    	jle    c379 <func_1+0xbc4>
    c3fe:	c7 85 80 ea ff ff 00 	movl   $0x0,-0x1580(%rbp)
    c405:	00 00 00 
    c408:	eb 1a                	jmp    c424 <func_1+0xc6f>
    c40a:	8b 85 80 ea ff ff    	mov    -0x1580(%rbp),%eax
    c410:	48 98                	cltq   
    c412:	c7 84 85 a4 eb ff ff 	movl   $0x24a449f2,-0x145c(%rbp,%rax,4)
    c419:	f2 49 a4 24 
    c41d:	83 85 80 ea ff ff 01 	addl   $0x1,-0x1580(%rbp)
    c424:	83 bd 80 ea ff ff 02 	cmpl   $0x2,-0x1580(%rbp)
    c42b:	7e dd                	jle    c40a <func_1+0xc55>
    c42d:	c7 85 80 ea ff ff 00 	movl   $0x0,-0x1580(%rbp)
    c434:	00 00 00 
    c437:	eb 19                	jmp    c452 <func_1+0xc9d>
    c439:	8b 85 80 ea ff ff    	mov    -0x1580(%rbp),%eax
    c43f:	48 98                	cltq   
    c441:	66 c7 84 45 9c eb ff 	movw   $0x777f,-0x1464(%rbp,%rax,2)
    c448:	ff 7f 77 
    c44b:	83 85 80 ea ff ff 01 	addl   $0x1,-0x1580(%rbp)
    c452:	83 bd 80 ea ff ff 03 	cmpl   $0x3,-0x1580(%rbp)
    c459:	7e de                	jle    c439 <func_1+0xc84>
    c45b:	c7 85 80 ea ff ff 00 	movl   $0x0,-0x1580(%rbp)
    c462:	00 00 00 
    c465:	eb 1e                	jmp    c485 <func_1+0xcd0>
    c467:	8b 85 80 ea ff ff    	mov    -0x1580(%rbp),%eax
    c46d:	48 98                	cltq   
    c46f:	48 8d 15 3a 3b 01 00 	lea    0x13b3a(%rip),%rdx        # 1ffb0 <g_2853>
    c476:	48 89 94 c5 b0 eb ff 	mov    %rdx,-0x1450(%rbp,%rax,8)
    c47d:	ff 
    c47e:	83 85 80 ea ff ff 01 	addl   $0x1,-0x1580(%rbp)
    c485:	83 bd 80 ea ff ff 02 	cmpl   $0x2,-0x1580(%rbp)
    c48c:	7e d9                	jle    c467 <func_1+0xcb2>
    c48e:	48 8b 05 93 42 01 00 	mov    0x14293(%rip),%rax        # 20728 <g_3689>
    c495:	48 8b 00             	mov    (%rax),%rax
    c498:	48 8b 00             	mov    (%rax),%rax
    c49b:	48 8b 00             	mov    (%rax),%rax
    c49e:	8b 00                	mov    (%rax),%eax
    c4a0:	48 8b 4d f8          	mov    -0x8(%rbp),%rcx
    c4a4:	64 48 33 0c 25 28 00 	xor    %fs:0x28,%rcx
    c4ab:	00 00 
    c4ad:	74 05                	je     c4b4 <func_1+0xcff>
    c4af:	e8 bc db ff ff       	callq  a070 <__stack_chk_fail@plt>
    c4b4:	c9                   	leaveq 
    c4b5:	c3                   	retq   

000000000000c4b6 <func_2>:
    c4b6:	f3 0f 1e fa          	endbr64 
    c4ba:	55                   	push   %rbp
    c4bb:	48 89 e5             	mov    %rsp,%rbp
    c4be:	41 57                	push   %r15
    c4c0:	41 56                	push   %r14
    c4c2:	41 55                	push   %r13
    c4c4:	41 54                	push   %r12
    c4c6:	53                   	push   %rbx
    c4c7:	48 81 ec 00 10 00 00 	sub    $0x1000,%rsp
    c4ce:	48 83 0c 24 00       	orq    $0x0,(%rsp)
    c4d3:	48 81 ec 48 04 00 00 	sub    $0x448,%rsp
    c4da:	48 89 bd a8 eb ff ff 	mov    %rdi,-0x1458(%rbp)
    c4e1:	89 f0                	mov    %esi,%eax
    c4e3:	89 95 a0 eb ff ff    	mov    %edx,-0x1460(%rbp)
    c4e9:	48 89 8d 98 eb ff ff 	mov    %rcx,-0x1468(%rbp)
    c4f0:	4c 89 85 90 eb ff ff 	mov    %r8,-0x1470(%rbp)
    c4f7:	66 89 85 a4 eb ff ff 	mov    %ax,-0x145c(%rbp)
    c4fe:	64 48 8b 04 25 28 00 	mov    %fs:0x28,%rax
    c505:	00 00 
    c507:	48 89 45 c8          	mov    %rax,-0x38(%rbp)
    c50b:	31 c0                	xor    %eax,%eax
    c50d:	48 c7 85 e0 eb ff ff 	movq   $0x0,-0x1420(%rbp)
    c514:	00 00 00 00 
    c518:	c7 85 c8 eb ff ff 45 	movl   $0x34ea1245,-0x1438(%rbp)
    c51f:	12 ea 34 
    c522:	48 8d 05 4b fe 00 00 	lea    0xfe4b(%rip),%rax        # 1c374 <g_1257+0x4>
    c529:	48 89 85 e8 eb ff ff 	mov    %rax,-0x1418(%rbp)
    c530:	48 c7 85 d0 eb ff ff 	movq   $0x0,-0x1430(%rbp)
    c537:	00 00 00 00 
    c53b:	48 8d 85 d0 eb ff ff 	lea    -0x1430(%rbp),%rax
    c542:	48 89 85 f0 eb ff ff 	mov    %rax,-0x1410(%rbp)
    c549:	48 8d 05 48 35 01 00 	lea    0x13548(%rip),%rax        # 1fa98 <g_1041>
    c550:	48 89 85 d8 eb ff ff 	mov    %rax,-0x1428(%rbp)
    c557:	48 8d 85 d8 eb ff ff 	lea    -0x1428(%rbp),%rax
    c55e:	48 89 85 40 ed ff ff 	mov    %rax,-0x12c0(%rbp)
    c565:	48 8d 85 d8 eb ff ff 	lea    -0x1428(%rbp),%rax
    c56c:	48 89 85 48 ed ff ff 	mov    %rax,-0x12b8(%rbp)
    c573:	48 8d 85 d8 eb ff ff 	lea    -0x1428(%rbp),%rax
    c57a:	48 89 85 50 ed ff ff 	mov    %rax,-0x12b0(%rbp)
    c581:	48 8d 85 d8 eb ff ff 	lea    -0x1428(%rbp),%rax
    c588:	48 89 85 58 ed ff ff 	mov    %rax,-0x12a8(%rbp)
    c58f:	48 8d 85 d8 eb ff ff 	lea    -0x1428(%rbp),%rax
    c596:	48 89 85 60 ed ff ff 	mov    %rax,-0x12a0(%rbp)
    c59d:	48 8d 85 d8 eb ff ff 	lea    -0x1428(%rbp),%rax
    c5a4:	48 89 85 68 ed ff ff 	mov    %rax,-0x1298(%rbp)
    c5ab:	48 c7 85 70 ed ff ff 	movq   $0x0,-0x1290(%rbp)
    c5b2:	00 00 00 00 
    c5b6:	48 8d 85 d8 eb ff ff 	lea    -0x1428(%rbp),%rax
    c5bd:	48 89 85 78 ed ff ff 	mov    %rax,-0x1288(%rbp)
    c5c4:	48 8d 85 d8 eb ff ff 	lea    -0x1428(%rbp),%rax
    c5cb:	48 89 85 80 ed ff ff 	mov    %rax,-0x1280(%rbp)
    c5d2:	48 c7 85 88 ed ff ff 	movq   $0x0,-0x1278(%rbp)
    c5d9:	00 00 00 00 
    c5dd:	48 8d 85 d8 eb ff ff 	lea    -0x1428(%rbp),%rax
    c5e4:	48 89 85 90 ed ff ff 	mov    %rax,-0x1270(%rbp)
    c5eb:	48 8d 85 d8 eb ff ff 	lea    -0x1428(%rbp),%rax
    c5f2:	48 89 85 98 ed ff ff 	mov    %rax,-0x1268(%rbp)
    c5f9:	48 8d 85 d8 eb ff ff 	lea    -0x1428(%rbp),%rax
    c600:	48 89 85 a0 ed ff ff 	mov    %rax,-0x1260(%rbp)
    c607:	48 c7 85 a8 ed ff ff 	movq   $0x0,-0x1258(%rbp)
    c60e:	00 00 00 00 
    c612:	48 8d 85 d8 eb ff ff 	lea    -0x1428(%rbp),%rax
    c619:	48 89 85 b0 ed ff ff 	mov    %rax,-0x1250(%rbp)
    c620:	48 8d 85 d8 eb ff ff 	lea    -0x1428(%rbp),%rax
    c627:	48 89 85 b8 ed ff ff 	mov    %rax,-0x1248(%rbp)
    c62e:	48 8d 85 d8 eb ff ff 	lea    -0x1428(%rbp),%rax
    c635:	48 89 85 c0 ed ff ff 	mov    %rax,-0x1240(%rbp)
    c63c:	48 8d 85 d8 eb ff ff 	lea    -0x1428(%rbp),%rax
    c643:	48 89 85 c8 ed ff ff 	mov    %rax,-0x1238(%rbp)
    c64a:	48 c7 85 d0 ed ff ff 	movq   $0x0,-0x1230(%rbp)
    c651:	00 00 00 00 
    c655:	48 8d 85 d8 eb ff ff 	lea    -0x1428(%rbp),%rax
    c65c:	48 89 85 d8 ed ff ff 	mov    %rax,-0x1228(%rbp)
    c663:	48 8d 85 d8 eb ff ff 	lea    -0x1428(%rbp),%rax
    c66a:	48 89 85 e0 ed ff ff 	mov    %rax,-0x1220(%rbp)
    c671:	48 c7 85 e8 ed ff ff 	movq   $0x0,-0x1218(%rbp)
    c678:	00 00 00 00 
    c67c:	48 8d 85 d8 eb ff ff 	lea    -0x1428(%rbp),%rax
    c683:	48 89 85 f0 ed ff ff 	mov    %rax,-0x1210(%rbp)
    c68a:	48 8d 85 d8 eb ff ff 	lea    -0x1428(%rbp),%rax
    c691:	48 89 85 f8 ed ff ff 	mov    %rax,-0x1208(%rbp)
    c698:	48 8d 85 d8 eb ff ff 	lea    -0x1428(%rbp),%rax
    c69f:	48 89 85 00 ee ff ff 	mov    %rax,-0x1200(%rbp)
    c6a6:	48 8d 85 d8 eb ff ff 	lea    -0x1428(%rbp),%rax
    c6ad:	48 89 85 08 ee ff ff 	mov    %rax,-0x11f8(%rbp)
    c6b4:	48 c7 85 10 ee ff ff 	movq   $0x0,-0x11f0(%rbp)
    c6bb:	00 00 00 00 
    c6bf:	48 8d 85 d8 eb ff ff 	lea    -0x1428(%rbp),%rax
    c6c6:	48 89 85 18 ee ff ff 	mov    %rax,-0x11e8(%rbp)
    c6cd:	48 8d 85 d8 eb ff ff 	lea    -0x1428(%rbp),%rax
    c6d4:	48 89 85 20 ee ff ff 	mov    %rax,-0x11e0(%rbp)
    c6db:	48 8d 85 d8 eb ff ff 	lea    -0x1428(%rbp),%rax
    c6e2:	48 89 85 28 ee ff ff 	mov    %rax,-0x11d8(%rbp)
    c6e9:	48 c7 85 30 ee ff ff 	movq   $0x0,-0x11d0(%rbp)
    c6f0:	00 00 00 00 
    c6f4:	48 8d 85 d8 eb ff ff 	lea    -0x1428(%rbp),%rax
    c6fb:	48 89 85 38 ee ff ff 	mov    %rax,-0x11c8(%rbp)
    c702:	48 8d 85 40 ed ff ff 	lea    -0x12c0(%rbp),%rax
    c709:	48 83 c0 20          	add    $0x20,%rax
    c70d:	48 89 85 a0 ec ff ff 	mov    %rax,-0x1360(%rbp)
    c714:	48 8d 85 40 ed ff ff 	lea    -0x12c0(%rbp),%rax
    c71b:	48 83 c0 20          	add    $0x20,%rax
    c71f:	48 89 85 a8 ec ff ff 	mov    %rax,-0x1358(%rbp)
    c726:	48 8d 85 40 ed ff ff 	lea    -0x12c0(%rbp),%rax
    c72d:	48 83 c0 18          	add    $0x18,%rax
    c731:	48 89 85 b0 ec ff ff 	mov    %rax,-0x1350(%rbp)
    c738:	48 8d 85 40 ed ff ff 	lea    -0x12c0(%rbp),%rax
    c73f:	48 83 c0 18          	add    $0x18,%rax
    c743:	48 89 85 b8 ec ff ff 	mov    %rax,-0x1348(%rbp)
    c74a:	48 8d 85 40 ed ff ff 	lea    -0x12c0(%rbp),%rax
    c751:	48 83 c0 18          	add    $0x18,%rax
    c755:	48 89 85 c0 ec ff ff 	mov    %rax,-0x1340(%rbp)
    c75c:	48 8d 85 40 ed ff ff 	lea    -0x12c0(%rbp),%rax
    c763:	48 83 c0 20          	add    $0x20,%rax
    c767:	48 89 85 c8 ec ff ff 	mov    %rax,-0x1338(%rbp)
    c76e:	48 8d 85 40 ed ff ff 	lea    -0x12c0(%rbp),%rax
    c775:	48 83 c0 20          	add    $0x20,%rax
    c779:	48 89 85 d0 ec ff ff 	mov    %rax,-0x1330(%rbp)
    c780:	48 8d 85 40 ed ff ff 	lea    -0x12c0(%rbp),%rax
    c787:	48 83 c0 20          	add    $0x20,%rax
    c78b:	48 89 85 d8 ec ff ff 	mov    %rax,-0x1328(%rbp)
    c792:	48 8d 85 40 ed ff ff 	lea    -0x12c0(%rbp),%rax
    c799:	48 83 c0 20          	add    $0x20,%rax
    c79d:	48 89 85 e0 ec ff ff 	mov    %rax,-0x1320(%rbp)
    c7a4:	48 8d 85 40 ed ff ff 	lea    -0x12c0(%rbp),%rax
    c7ab:	48 83 c0 20          	add    $0x20,%rax
    c7af:	48 89 85 e8 ec ff ff 	mov    %rax,-0x1318(%rbp)
    c7b6:	48 8d 85 40 ed ff ff 	lea    -0x12c0(%rbp),%rax
    c7bd:	48 83 c0 20          	add    $0x20,%rax
    c7c1:	48 89 85 f0 ec ff ff 	mov    %rax,-0x1310(%rbp)
    c7c8:	48 8d 85 40 ed ff ff 	lea    -0x12c0(%rbp),%rax
    c7cf:	48 83 c0 20          	add    $0x20,%rax
    c7d3:	48 89 85 f8 ec ff ff 	mov    %rax,-0x1308(%rbp)
    c7da:	48 8d 85 40 ed ff ff 	lea    -0x12c0(%rbp),%rax
    c7e1:	48 83 c0 18          	add    $0x18,%rax
    c7e5:	48 89 85 00 ed ff ff 	mov    %rax,-0x1300(%rbp)
    c7ec:	48 8d 85 40 ed ff ff 	lea    -0x12c0(%rbp),%rax
    c7f3:	48 83 c0 18          	add    $0x18,%rax
    c7f7:	48 89 85 08 ed ff ff 	mov    %rax,-0x12f8(%rbp)
    c7fe:	48 8d 85 40 ed ff ff 	lea    -0x12c0(%rbp),%rax
    c805:	48 83 c0 18          	add    $0x18,%rax
    c809:	48 89 85 10 ed ff ff 	mov    %rax,-0x12f0(%rbp)
    c810:	48 8d 85 40 ed ff ff 	lea    -0x12c0(%rbp),%rax
    c817:	48 83 c0 20          	add    $0x20,%rax
    c81b:	48 89 85 18 ed ff ff 	mov    %rax,-0x12e8(%rbp)
    c822:	48 8d 85 40 ed ff ff 	lea    -0x12c0(%rbp),%rax
    c829:	48 83 c0 20          	add    $0x20,%rax
    c82d:	48 89 85 20 ed ff ff 	mov    %rax,-0x12e0(%rbp)
    c834:	48 8d 85 40 ed ff ff 	lea    -0x12c0(%rbp),%rax
    c83b:	48 83 c0 20          	add    $0x20,%rax
    c83f:	48 89 85 28 ed ff ff 	mov    %rax,-0x12d8(%rbp)
    c846:	48 8d 85 40 ed ff ff 	lea    -0x12c0(%rbp),%rax
    c84d:	48 83 c0 20          	add    $0x20,%rax
    c851:	48 89 85 30 ed ff ff 	mov    %rax,-0x12d0(%rbp)
    c858:	48 8d 85 40 ed ff ff 	lea    -0x12c0(%rbp),%rax
    c85f:	48 83 c0 20          	add    $0x20,%rax
    c863:	48 89 85 38 ed ff ff 	mov    %rax,-0x12c8(%rbp)
    c86a:	48 8d 05 ef f7 00 00 	lea    0xf7ef(%rip),%rax        # 1c060 <g_228>
    c871:	48 89 85 f8 eb ff ff 	mov    %rax,-0x1408(%rbp)
    c878:	48 8d 05 99 35 01 00 	lea    0x13599(%rip),%rax        # 1fe18 <g_1843>
    c87f:	48 89 85 00 ec ff ff 	mov    %rax,-0x1400(%rbp)
    c886:	48 8d 05 97 fa 00 00 	lea    0xfa97(%rip),%rax        # 1c324 <g_820+0x4>
    c88d:	48 89 85 08 ec ff ff 	mov    %rax,-0x13f8(%rbp)
    c894:	48 8b 05 fd 2f 01 00 	mov    0x12ffd(%rip),%rax        # 1f898 <g_626>
    c89b:	48 8b 95 e0 eb ff ff 	mov    -0x1420(%rbp),%rdx
    c8a2:	48 89 10             	mov    %rdx,(%rax)
    c8a5:	c7 05 65 fb 00 00 f2 	movl   $0xfffffff2,0xfb65(%rip)        # 1c414 <g_1627+0x4>
    c8ac:	ff ff ff 
    c8af:	90                   	nop
    c8b0:	8b 05 5e fb 00 00    	mov    0xfb5e(%rip),%eax        # 1c414 <g_1627+0x4>
    c8b6:	83 f8 0c             	cmp    $0xc,%eax
    c8b9:	0f 8f fd 12 00 00    	jg     dbbc <func_2+0x1706>
    c8bf:	66 c7 85 b4 eb ff ff 	movw   $0x91e9,-0x144c(%rbp)
    c8c6:	e9 91 
    c8c8:	48 c7 85 10 ec ff ff 	movq   $0x0,-0x13f0(%rbp)
    c8cf:	00 00 00 00 
    c8d3:	48 8d 05 60 f7 00 00 	lea    0xf760(%rip),%rax        # 1c03a <g_167>
    c8da:	48 89 85 18 ec ff ff 	mov    %rax,-0x13e8(%rbp)
    c8e1:	c6 85 b3 eb ff ff 84 	movb   $0x84,-0x144d(%rbp)
    c8e8:	48 8d 05 a1 36 01 00 	lea    0x136a1(%rip),%rax        # 1ff90 <g_2018>
    c8ef:	48 89 85 20 ec ff ff 	mov    %rax,-0x13e0(%rbp)
    c8f6:	c7 85 c0 eb ff ff 8c 	movl   $0x9234138c,-0x1440(%rbp)
    c8fd:	13 34 92 
    c900:	c7 85 b8 eb ff ff a1 	movl   $0x54ba32a1,-0x1448(%rbp)
    c907:	32 ba 54 
    c90a:	b8 ca 02 00 00       	mov    $0x2ca,%eax
    c90f:	41 89 c7             	mov    %eax,%r15d
    c912:	8b 85 a0 eb ff ff    	mov    -0x1460(%rbp),%eax
    c918:	48 63 d8             	movslq %eax,%rbx
    c91b:	8b 05 33 f7 00 00    	mov    0xf733(%rip),%eax        # 1c054 <g_218+0x4>
    c921:	4c 63 e0             	movslq %eax,%r12
    c924:	44 0f b7 ad a4 eb ff 	movzwl -0x145c(%rbp),%r13d
    c92b:	ff 
    c92c:	4c 0f bf b5 b4 eb ff 	movswq -0x144c(%rbp),%r14
    c933:	ff 
    c934:	0f b7 85 b4 eb ff ff 	movzwl -0x144c(%rbp),%eax
    c93b:	0f b6 d0             	movzbl %al,%edx
    c93e:	8b 85 a0 eb ff ff    	mov    -0x1460(%rbp),%eax
    c944:	85 c0                	test   %eax,%eax
    c946:	74 11                	je     c959 <func_2+0x4a3>
    c948:	66 83 bd b4 eb ff ff 	cmpw   $0x0,-0x144c(%rbp)
    c94f:	00 
    c950:	74 07                	je     c959 <func_2+0x4a3>
    c952:	b8 01 00 00 00       	mov    $0x1,%eax
    c957:	eb 05                	jmp    c95e <func_2+0x4a8>
    c959:	b8 00 00 00 00       	mov    $0x0,%eax
    c95e:	0f b6 c0             	movzbl %al,%eax
    c961:	89 d6                	mov    %edx,%esi
    c963:	89 c7                	mov    %eax,%edi
    c965:	e8 29 e2 ff ff       	callq  ab93 <safe_mul_func_uint8_t_u_u>
    c96a:	4c 89 f6             	mov    %r14,%rsi
    c96d:	bf 01 00 00 00       	mov    $0x1,%edi
    c972:	e8 ca de ff ff       	callq  a841 <safe_add_func_int64_t_s_s>
    c977:	4c 89 ee             	mov    %r13,%rsi
    c97a:	48 89 c7             	mov    %rax,%rdi
    c97d:	e8 75 e0 ff ff       	callq  a9f7 <safe_div_func_int64_t_s_s>
    c982:	4c 89 e6             	mov    %r12,%rsi
    c985:	48 89 c7             	mov    %rax,%rdi
    c988:	e8 1b df ff ff       	callq  a8a8 <safe_sub_func_int64_t_s_s>
    c98d:	48 89 de             	mov    %rbx,%rsi
    c990:	48 89 c7             	mov    %rax,%rdi
    c993:	e8 5f e0 ff ff       	callq  a9f7 <safe_div_func_int64_t_s_s>
    c998:	b8 01 00 00 00       	mov    $0x1,%eax
    c99d:	89 c7                	mov    %eax,%edi
    c99f:	e8 f2 db ff ff       	callq  a596 <safe_unary_minus_func_int32_t_s>
    c9a4:	0f b7 15 af fa 00 00 	movzwl 0xfaaf(%rip),%edx        # 1c45a <g_1948+0x1a>
    c9ab:	0f b7 d2             	movzwl %dx,%edx
    c9ae:	39 d0                	cmp    %edx,%eax
    c9b0:	0f 9f c0             	setg   %al
    c9b3:	0f b6 c0             	movzbl %al,%eax
    c9b6:	41 39 c7             	cmp    %eax,%r15d
    c9b9:	0f 9f c0             	setg   %al
    c9bc:	89 c2                	mov    %eax,%edx
    c9be:	48 8b 85 18 ec ff ff 	mov    -0x13e8(%rbp),%rax
    c9c5:	88 10                	mov    %dl,(%rax)
    c9c7:	48 8b 05 4a 31 01 00 	mov    0x1314a(%rip),%rax        # 1fb18 <g_1395>
    c9ce:	48 8b 00             	mov    (%rax),%rax
    c9d1:	0f b6 00             	movzbl (%rax),%eax
    c9d4:	48 b8 82 2d 31 fd 58 	movabs $0x93ad4e58fd312d82,%rax
    c9db:	4e ad 93 
    c9de:	48 85 c0             	test   %rax,%rax
    c9e1:	0f 84 7b 11 00 00    	je     db62 <func_2+0x16ac>
    c9e7:	66 c7 85 b6 eb ff ff 	movw   $0xaab2,-0x144a(%rbp)
    c9ee:	b2 aa 
    c9f0:	c7 85 bc eb ff ff 01 	movl   $0x1,-0x1444(%rbp)
    c9f7:	00 00 00 
    c9fa:	48 8d 85 b8 eb ff ff 	lea    -0x1448(%rbp),%rax
    ca01:	48 89 85 28 ec ff ff 	mov    %rax,-0x13d8(%rbp)
    ca08:	48 8d 85 bc eb ff ff 	lea    -0x1444(%rbp),%rax
    ca0f:	48 89 85 30 ec ff ff 	mov    %rax,-0x13d0(%rbp)
    ca16:	48 8d 05 57 f9 00 00 	lea    0xf957(%rip),%rax        # 1c374 <g_1257+0x4>
    ca1d:	48 89 85 38 ec ff ff 	mov    %rax,-0x13c8(%rbp)
    ca24:	48 c7 85 40 ec ff ff 	movq   $0x0,-0x13c0(%rbp)
    ca2b:	00 00 00 00 
    ca2f:	48 8d 05 2e f9 00 00 	lea    0xf92e(%rip),%rax        # 1c364 <g_1256+0x4>
    ca36:	48 89 85 48 ec ff ff 	mov    %rax,-0x13b8(%rbp)
    ca3d:	48 8d 05 00 f9 00 00 	lea    0xf900(%rip),%rax        # 1c344 <g_1091+0x4>
    ca44:	48 89 85 50 ec ff ff 	mov    %rax,-0x13b0(%rbp)
    ca4b:	48 8d 05 f2 f8 00 00 	lea    0xf8f2(%rip),%rax        # 1c344 <g_1091+0x4>
    ca52:	48 89 85 58 ec ff ff 	mov    %rax,-0x13a8(%rbp)
    ca59:	48 8d 05 c4 f8 00 00 	lea    0xf8c4(%rip),%rax        # 1c324 <g_820+0x4>
    ca60:	48 89 85 60 ec ff ff 	mov    %rax,-0x13a0(%rbp)
    ca67:	c7 85 c4 eb ff ff 00 	movl   $0x0,-0x143c(%rbp)
    ca6e:	00 00 00 
    ca71:	eb 1e                	jmp    ca91 <func_2+0x5db>
    ca73:	8b 85 c4 eb ff ff    	mov    -0x143c(%rbp),%eax
    ca79:	48 98                	cltq   
    ca7b:	48 8d 15 82 fa 00 00 	lea    0xfa82(%rip),%rdx        # 1c504 <g_2624+0x4>
    ca82:	48 89 94 c5 70 ec ff 	mov    %rdx,-0x1390(%rbp,%rax,8)
    ca89:	ff 
    ca8a:	83 85 c4 eb ff ff 01 	addl   $0x1,-0x143c(%rbp)
    ca91:	83 bd c4 eb ff ff 04 	cmpl   $0x4,-0x143c(%rbp)
    ca98:	7e d9                	jle    ca73 <func_2+0x5bd>
    ca9a:	83 bd c8 eb ff ff 00 	cmpl   $0x0,-0x1438(%rbp)
    caa1:	0f 85 0e 11 00 00    	jne    dbb5 <func_2+0x16ff>
    caa7:	c7 85 a0 eb ff ff 00 	movl   $0x0,-0x1460(%rbp)
    caae:	00 00 00 
    cab1:	e9 80 10 00 00       	jmpq   db36 <func_2+0x1680>
    cab6:	48 8d 05 67 f8 00 00 	lea    0xf867(%rip),%rax        # 1c324 <g_820+0x4>
    cabd:	48 89 85 68 ec ff ff 	mov    %rax,-0x1398(%rbp)
    cac4:	48 c7 85 e0 f7 ff ff 	movq   $0x0,-0x820(%rbp)
    cacb:	00 00 00 00 
    cacf:	48 8d 05 8a f5 00 00 	lea    0xf58a(%rip),%rax        # 1c060 <g_228>
    cad6:	48 89 85 e8 f7 ff ff 	mov    %rax,-0x818(%rbp)
    cadd:	48 8d 05 fc f8 00 00 	lea    0xf8fc(%rip),%rax        # 1c3e0 <g_1428>
    cae4:	48 89 85 f0 f7 ff ff 	mov    %rax,-0x810(%rbp)
    caeb:	48 8d 05 ee f8 00 00 	lea    0xf8ee(%rip),%rax        # 1c3e0 <g_1428>
    caf2:	48 89 85 f8 f7 ff ff 	mov    %rax,-0x808(%rbp)
    caf9:	48 c7 85 00 f8 ff ff 	movq   $0x0,-0x800(%rbp)
    cb00:	00 00 00 00 
    cb04:	48 8d 05 d5 f8 00 00 	lea    0xf8d5(%rip),%rax        # 1c3e0 <g_1428>
    cb0b:	48 89 85 08 f8 ff ff 	mov    %rax,-0x7f8(%rbp)
    cb12:	48 8d 05 c7 f8 00 00 	lea    0xf8c7(%rip),%rax        # 1c3e0 <g_1428>
    cb19:	48 89 85 10 f8 ff ff 	mov    %rax,-0x7f0(%rbp)
    cb20:	48 8d 05 39 f5 00 00 	lea    0xf539(%rip),%rax        # 1c060 <g_228>
    cb27:	48 89 85 18 f8 ff ff 	mov    %rax,-0x7e8(%rbp)
    cb2e:	48 8d 85 b3 eb ff ff 	lea    -0x144d(%rbp),%rax
    cb35:	48 89 85 20 f8 ff ff 	mov    %rax,-0x7e0(%rbp)
    cb3c:	48 8d 85 b3 eb ff ff 	lea    -0x144d(%rbp),%rax
    cb43:	48 89 85 28 f8 ff ff 	mov    %rax,-0x7d8(%rbp)
    cb4a:	48 8d 85 b3 eb ff ff 	lea    -0x144d(%rbp),%rax
    cb51:	48 89 85 30 f8 ff ff 	mov    %rax,-0x7d0(%rbp)
    cb58:	48 8d 85 b3 eb ff ff 	lea    -0x144d(%rbp),%rax
    cb5f:	48 89 85 38 f8 ff ff 	mov    %rax,-0x7c8(%rbp)
    cb66:	48 8d 85 b3 eb ff ff 	lea    -0x144d(%rbp),%rax
    cb6d:	48 89 85 40 f8 ff ff 	mov    %rax,-0x7c0(%rbp)
    cb74:	48 8d 85 b3 eb ff ff 	lea    -0x144d(%rbp),%rax
    cb7b:	48 89 85 48 f8 ff ff 	mov    %rax,-0x7b8(%rbp)
    cb82:	48 c7 85 50 f8 ff ff 	movq   $0x0,-0x7b0(%rbp)
    cb89:	00 00 00 00 
    cb8d:	48 8d 05 4c f8 00 00 	lea    0xf84c(%rip),%rax        # 1c3e0 <g_1428>
    cb94:	48 89 85 58 f8 ff ff 	mov    %rax,-0x7a8(%rbp)
    cb9b:	48 8d 05 be f4 00 00 	lea    0xf4be(%rip),%rax        # 1c060 <g_228>
    cba2:	48 89 85 60 f8 ff ff 	mov    %rax,-0x7a0(%rbp)
    cba9:	48 c7 85 68 f8 ff ff 	movq   $0x0,-0x798(%rbp)
    cbb0:	00 00 00 00 
    cbb4:	48 8d 05 a5 f4 00 00 	lea    0xf4a5(%rip),%rax        # 1c060 <g_228>
    cbbb:	48 89 85 70 f8 ff ff 	mov    %rax,-0x790(%rbp)
    cbc2:	48 8d 05 97 f4 00 00 	lea    0xf497(%rip),%rax        # 1c060 <g_228>
    cbc9:	48 89 85 78 f8 ff ff 	mov    %rax,-0x788(%rbp)
    cbd0:	48 8d 05 09 f8 00 00 	lea    0xf809(%rip),%rax        # 1c3e0 <g_1428>
    cbd7:	48 89 85 80 f8 ff ff 	mov    %rax,-0x780(%rbp)
    cbde:	48 8d 05 fb f7 00 00 	lea    0xf7fb(%rip),%rax        # 1c3e0 <g_1428>
    cbe5:	48 89 85 88 f8 ff ff 	mov    %rax,-0x778(%rbp)
    cbec:	48 8d 05 ed f7 00 00 	lea    0xf7ed(%rip),%rax        # 1c3e0 <g_1428>
    cbf3:	48 89 85 90 f8 ff ff 	mov    %rax,-0x770(%rbp)
    cbfa:	48 8d 05 5f f4 00 00 	lea    0xf45f(%rip),%rax        # 1c060 <g_228>
    cc01:	48 89 85 98 f8 ff ff 	mov    %rax,-0x768(%rbp)
    cc08:	48 8d 05 51 f4 00 00 	lea    0xf451(%rip),%rax        # 1c060 <g_228>
    cc0f:	48 89 85 a0 f8 ff ff 	mov    %rax,-0x760(%rbp)
    cc16:	48 8d 85 b3 eb ff ff 	lea    -0x144d(%rbp),%rax
    cc1d:	48 89 85 a8 f8 ff ff 	mov    %rax,-0x758(%rbp)
    cc24:	48 8d 85 b3 eb ff ff 	lea    -0x144d(%rbp),%rax
    cc2b:	48 89 85 b0 f8 ff ff 	mov    %rax,-0x750(%rbp)
    cc32:	48 8d 85 b3 eb ff ff 	lea    -0x144d(%rbp),%rax
    cc39:	48 89 85 b8 f8 ff ff 	mov    %rax,-0x748(%rbp)
    cc40:	48 c7 85 c0 f8 ff ff 	movq   $0x0,-0x740(%rbp)
    cc47:	00 00 00 00 
    cc4b:	48 8d 05 0e f4 00 00 	lea    0xf40e(%rip),%rax        # 1c060 <g_228>
    cc52:	48 89 85 c8 f8 ff ff 	mov    %rax,-0x738(%rbp)
    cc59:	48 8d 05 00 f4 00 00 	lea    0xf400(%rip),%rax        # 1c060 <g_228>
    cc60:	48 89 85 d0 f8 ff ff 	mov    %rax,-0x730(%rbp)
    cc67:	48 c7 85 d8 f8 ff ff 	movq   $0x0,-0x728(%rbp)
    cc6e:	00 00 00 00 
    cc72:	48 8d 85 b3 eb ff ff 	lea    -0x144d(%rbp),%rax
    cc79:	48 89 85 e0 f8 ff ff 	mov    %rax,-0x720(%rbp)
    cc80:	48 8d 05 59 f7 00 00 	lea    0xf759(%rip),%rax        # 1c3e0 <g_1428>
    cc87:	48 89 85 e8 f8 ff ff 	mov    %rax,-0x718(%rbp)
    cc8e:	48 8d 05 4b f7 00 00 	lea    0xf74b(%rip),%rax        # 1c3e0 <g_1428>
    cc95:	48 89 85 f0 f8 ff ff 	mov    %rax,-0x710(%rbp)
    cc9c:	48 8d 05 98 f3 00 00 	lea    0xf398(%rip),%rax        # 1c03b <g_190>
    cca3:	48 89 85 f8 f8 ff ff 	mov    %rax,-0x708(%rbp)
    ccaa:	48 8d 85 b3 eb ff ff 	lea    -0x144d(%rbp),%rax
    ccb1:	48 89 85 00 f9 ff ff 	mov    %rax,-0x700(%rbp)
    ccb8:	48 8d 05 21 f7 00 00 	lea    0xf721(%rip),%rax        # 1c3e0 <g_1428>
    ccbf:	48 89 85 08 f9 ff ff 	mov    %rax,-0x6f8(%rbp)
    ccc6:	48 8d 85 b3 eb ff ff 	lea    -0x144d(%rbp),%rax
    cccd:	48 89 85 10 f9 ff ff 	mov    %rax,-0x6f0(%rbp)
    ccd4:	48 8d 05 05 f7 00 00 	lea    0xf705(%rip),%rax        # 1c3e0 <g_1428>
    ccdb:	48 89 85 18 f9 ff ff 	mov    %rax,-0x6e8(%rbp)
    cce2:	48 8d 05 77 f3 00 00 	lea    0xf377(%rip),%rax        # 1c060 <g_228>
    cce9:	48 89 85 20 f9 ff ff 	mov    %rax,-0x6e0(%rbp)
    ccf0:	48 8d 05 44 f3 00 00 	lea    0xf344(%rip),%rax        # 1c03b <g_190>
    ccf7:	48 89 85 28 f9 ff ff 	mov    %rax,-0x6d8(%rbp)
    ccfe:	48 8d 05 db f6 00 00 	lea    0xf6db(%rip),%rax        # 1c3e0 <g_1428>
    cd05:	48 89 85 30 f9 ff ff 	mov    %rax,-0x6d0(%rbp)
    cd0c:	48 8d 05 cd f6 00 00 	lea    0xf6cd(%rip),%rax        # 1c3e0 <g_1428>
    cd13:	48 89 85 38 f9 ff ff 	mov    %rax,-0x6c8(%rbp)
    cd1a:	48 8d 05 bf f6 00 00 	lea    0xf6bf(%rip),%rax        # 1c3e0 <g_1428>
    cd21:	48 89 85 40 f9 ff ff 	mov    %rax,-0x6c0(%rbp)
    cd28:	48 8d 05 b1 f6 00 00 	lea    0xf6b1(%rip),%rax        # 1c3e0 <g_1428>
    cd2f:	48 89 85 48 f9 ff ff 	mov    %rax,-0x6b8(%rbp)
    cd36:	48 8d 05 a3 f6 00 00 	lea    0xf6a3(%rip),%rax        # 1c3e0 <g_1428>
    cd3d:	48 89 85 50 f9 ff ff 	mov    %rax,-0x6b0(%rbp)
    cd44:	48 8d 05 95 f6 00 00 	lea    0xf695(%rip),%rax        # 1c3e0 <g_1428>
    cd4b:	48 89 85 58 f9 ff ff 	mov    %rax,-0x6a8(%rbp)
    cd52:	48 8d 05 87 f6 00 00 	lea    0xf687(%rip),%rax        # 1c3e0 <g_1428>
    cd59:	48 89 85 60 f9 ff ff 	mov    %rax,-0x6a0(%rbp)
    cd60:	48 8d 05 d4 f2 00 00 	lea    0xf2d4(%rip),%rax        # 1c03b <g_190>
    cd67:	48 89 85 68 f9 ff ff 	mov    %rax,-0x698(%rbp)
    cd6e:	48 8d 05 eb f2 00 00 	lea    0xf2eb(%rip),%rax        # 1c060 <g_228>
    cd75:	48 89 85 70 f9 ff ff 	mov    %rax,-0x690(%rbp)
    cd7c:	48 8d 05 5d f6 00 00 	lea    0xf65d(%rip),%rax        # 1c3e0 <g_1428>
    cd83:	48 89 85 78 f9 ff ff 	mov    %rax,-0x688(%rbp)
    cd8a:	48 8d 05 aa f2 00 00 	lea    0xf2aa(%rip),%rax        # 1c03b <g_190>
    cd91:	48 89 85 80 f9 ff ff 	mov    %rax,-0x680(%rbp)
    cd98:	48 8d 05 9c f2 00 00 	lea    0xf29c(%rip),%rax        # 1c03b <g_190>
    cd9f:	48 89 85 88 f9 ff ff 	mov    %rax,-0x678(%rbp)
    cda6:	48 8d 85 b3 eb ff ff 	lea    -0x144d(%rbp),%rax
    cdad:	48 89 85 90 f9 ff ff 	mov    %rax,-0x670(%rbp)
    cdb4:	48 8d 85 b3 eb ff ff 	lea    -0x144d(%rbp),%rax
    cdbb:	48 89 85 98 f9 ff ff 	mov    %rax,-0x668(%rbp)
    cdc2:	48 8d 05 17 f6 00 00 	lea    0xf617(%rip),%rax        # 1c3e0 <g_1428>
    cdc9:	48 89 85 a0 f9 ff ff 	mov    %rax,-0x660(%rbp)
    cdd0:	48 c7 85 a8 f9 ff ff 	movq   $0x0,-0x658(%rbp)
    cdd7:	00 00 00 00 
    cddb:	48 8d 05 fe f5 00 00 	lea    0xf5fe(%rip),%rax        # 1c3e0 <g_1428>
    cde2:	48 89 85 b0 f9 ff ff 	mov    %rax,-0x650(%rbp)
    cde9:	48 8d 05 f0 f5 00 00 	lea    0xf5f0(%rip),%rax        # 1c3e0 <g_1428>
    cdf0:	48 89 85 b8 f9 ff ff 	mov    %rax,-0x648(%rbp)
    cdf7:	48 c7 85 c0 f9 ff ff 	movq   $0x0,-0x640(%rbp)
    cdfe:	00 00 00 00 
    ce02:	48 c7 85 c8 f9 ff ff 	movq   $0x0,-0x638(%rbp)
    ce09:	00 00 00 00 
    ce0d:	48 8d 05 cc f5 00 00 	lea    0xf5cc(%rip),%rax        # 1c3e0 <g_1428>
    ce14:	48 89 85 d0 f9 ff ff 	mov    %rax,-0x630(%rbp)
    ce1b:	48 8d 05 be f5 00 00 	lea    0xf5be(%rip),%rax        # 1c3e0 <g_1428>
    ce22:	48 89 85 d8 f9 ff ff 	mov    %rax,-0x628(%rbp)
    ce29:	48 8d 05 30 f2 00 00 	lea    0xf230(%rip),%rax        # 1c060 <g_228>
    ce30:	48 89 85 e0 f9 ff ff 	mov    %rax,-0x620(%rbp)
    ce37:	48 8d 05 a2 f5 00 00 	lea    0xf5a2(%rip),%rax        # 1c3e0 <g_1428>
    ce3e:	48 89 85 e8 f9 ff ff 	mov    %rax,-0x618(%rbp)
    ce45:	48 8d 85 b3 eb ff ff 	lea    -0x144d(%rbp),%rax
    ce4c:	48 89 85 f0 f9 ff ff 	mov    %rax,-0x610(%rbp)
    ce53:	48 8d 05 06 f2 00 00 	lea    0xf206(%rip),%rax        # 1c060 <g_228>
    ce5a:	48 89 85 f8 f9 ff ff 	mov    %rax,-0x608(%rbp)
    ce61:	48 8d 05 d3 f1 00 00 	lea    0xf1d3(%rip),%rax        # 1c03b <g_190>
    ce68:	48 89 85 00 fa ff ff 	mov    %rax,-0x600(%rbp)
    ce6f:	48 8d 85 b3 eb ff ff 	lea    -0x144d(%rbp),%rax
    ce76:	48 89 85 08 fa ff ff 	mov    %rax,-0x5f8(%rbp)
    ce7d:	48 8d 05 5c f5 00 00 	lea    0xf55c(%rip),%rax        # 1c3e0 <g_1428>
    ce84:	48 89 85 10 fa ff ff 	mov    %rax,-0x5f0(%rbp)
    ce8b:	48 c7 85 18 fa ff ff 	movq   $0x0,-0x5e8(%rbp)
    ce92:	00 00 00 00 
    ce96:	48 8d 05 43 f5 00 00 	lea    0xf543(%rip),%rax        # 1c3e0 <g_1428>
    ce9d:	48 89 85 20 fa ff ff 	mov    %rax,-0x5e0(%rbp)
    cea4:	48 c7 85 28 fa ff ff 	movq   $0x0,-0x5d8(%rbp)
    ceab:	00 00 00 00 
    ceaf:	48 8d 05 aa f1 00 00 	lea    0xf1aa(%rip),%rax        # 1c060 <g_228>
    ceb6:	48 89 85 30 fa ff ff 	mov    %rax,-0x5d0(%rbp)
    cebd:	48 8d 05 9c f1 00 00 	lea    0xf19c(%rip),%rax        # 1c060 <g_228>
    cec4:	48 89 85 38 fa ff ff 	mov    %rax,-0x5c8(%rbp)
    cecb:	48 8d 05 0e f5 00 00 	lea    0xf50e(%rip),%rax        # 1c3e0 <g_1428>
    ced2:	48 89 85 40 fa ff ff 	mov    %rax,-0x5c0(%rbp)
    ced9:	48 8d 05 5b f1 00 00 	lea    0xf15b(%rip),%rax        # 1c03b <g_190>
    cee0:	48 89 85 48 fa ff ff 	mov    %rax,-0x5b8(%rbp)
    cee7:	48 8d 05 4d f1 00 00 	lea    0xf14d(%rip),%rax        # 1c03b <g_190>
    ceee:	48 89 85 50 fa ff ff 	mov    %rax,-0x5b0(%rbp)
    cef5:	48 8d 05 e4 f4 00 00 	lea    0xf4e4(%rip),%rax        # 1c3e0 <g_1428>
    cefc:	48 89 85 58 fa ff ff 	mov    %rax,-0x5a8(%rbp)
    cf03:	48 8d 05 d6 f4 00 00 	lea    0xf4d6(%rip),%rax        # 1c3e0 <g_1428>
    cf0a:	48 89 85 60 fa ff ff 	mov    %rax,-0x5a0(%rbp)
    cf11:	48 8d 05 23 f1 00 00 	lea    0xf123(%rip),%rax        # 1c03b <g_190>
    cf18:	48 89 85 68 fa ff ff 	mov    %rax,-0x598(%rbp)
    cf1f:	48 8d 05 15 f1 00 00 	lea    0xf115(%rip),%rax        # 1c03b <g_190>
    cf26:	48 89 85 70 fa ff ff 	mov    %rax,-0x590(%rbp)
    cf2d:	48 c7 85 78 fa ff ff 	movq   $0x0,-0x588(%rbp)
    cf34:	00 00 00 00 
    cf38:	48 8d 05 21 f1 00 00 	lea    0xf121(%rip),%rax        # 1c060 <g_228>
    cf3f:	48 89 85 80 fa ff ff 	mov    %rax,-0x580(%rbp)
    cf46:	48 8d 05 93 f4 00 00 	lea    0xf493(%rip),%rax        # 1c3e0 <g_1428>
    cf4d:	48 89 85 88 fa ff ff 	mov    %rax,-0x578(%rbp)
    cf54:	48 8d 05 05 f1 00 00 	lea    0xf105(%rip),%rax        # 1c060 <g_228>
    cf5b:	48 89 85 90 fa ff ff 	mov    %rax,-0x570(%rbp)
    cf62:	48 8d 85 b3 eb ff ff 	lea    -0x144d(%rbp),%rax
    cf69:	48 89 85 98 fa ff ff 	mov    %rax,-0x568(%rbp)
    cf70:	48 8d 05 69 f4 00 00 	lea    0xf469(%rip),%rax        # 1c3e0 <g_1428>
    cf77:	48 89 85 a0 fa ff ff 	mov    %rax,-0x560(%rbp)
    cf7e:	48 c7 85 a8 fa ff ff 	movq   $0x0,-0x558(%rbp)
    cf85:	00 00 00 00 
    cf89:	48 8d 85 b3 eb ff ff 	lea    -0x144d(%rbp),%rax
    cf90:	48 89 85 b0 fa ff ff 	mov    %rax,-0x550(%rbp)
    cf97:	48 8d 05 c2 f0 00 00 	lea    0xf0c2(%rip),%rax        # 1c060 <g_228>
    cf9e:	48 89 85 b8 fa ff ff 	mov    %rax,-0x548(%rbp)
    cfa5:	48 8d 05 8f f0 00 00 	lea    0xf08f(%rip),%rax        # 1c03b <g_190>
    cfac:	48 89 85 c0 fa ff ff 	mov    %rax,-0x540(%rbp)
    cfb3:	48 8d 05 a6 f0 00 00 	lea    0xf0a6(%rip),%rax        # 1c060 <g_228>
    cfba:	48 89 85 c8 fa ff ff 	mov    %rax,-0x538(%rbp)
    cfc1:	48 8d 85 b3 eb ff ff 	lea    -0x144d(%rbp),%rax
    cfc8:	48 89 85 d0 fa ff ff 	mov    %rax,-0x530(%rbp)
    cfcf:	48 8d 05 65 f0 00 00 	lea    0xf065(%rip),%rax        # 1c03b <g_190>
    cfd6:	48 89 85 d8 fa ff ff 	mov    %rax,-0x528(%rbp)
    cfdd:	48 8d 85 b3 eb ff ff 	lea    -0x144d(%rbp),%rax
    cfe4:	48 89 85 e0 fa ff ff 	mov    %rax,-0x520(%rbp)
    cfeb:	48 8d 85 b3 eb ff ff 	lea    -0x144d(%rbp),%rax
    cff2:	48 89 85 e8 fa ff ff 	mov    %rax,-0x518(%rbp)
    cff9:	48 8d 05 e0 f3 00 00 	lea    0xf3e0(%rip),%rax        # 1c3e0 <g_1428>
    d000:	48 89 85 f0 fa ff ff 	mov    %rax,-0x510(%rbp)
    d007:	48 8d 05 d2 f3 00 00 	lea    0xf3d2(%rip),%rax        # 1c3e0 <g_1428>
    d00e:	48 89 85 f8 fa ff ff 	mov    %rax,-0x508(%rbp)
    d015:	48 c7 85 00 fb ff ff 	movq   $0x0,-0x500(%rbp)
    d01c:	00 00 00 00 
    d020:	48 8d 05 39 f0 00 00 	lea    0xf039(%rip),%rax        # 1c060 <g_228>
    d027:	48 89 85 08 fb ff ff 	mov    %rax,-0x4f8(%rbp)
    d02e:	48 8d 05 ab f3 00 00 	lea    0xf3ab(%rip),%rax        # 1c3e0 <g_1428>
    d035:	48 89 85 10 fb ff ff 	mov    %rax,-0x4f0(%rbp)
    d03c:	48 8d 85 b3 eb ff ff 	lea    -0x144d(%rbp),%rax
    d043:	48 89 85 18 fb ff ff 	mov    %rax,-0x4e8(%rbp)
    d04a:	48 8d 05 8f f3 00 00 	lea    0xf38f(%rip),%rax        # 1c3e0 <g_1428>
    d051:	48 89 85 20 fb ff ff 	mov    %rax,-0x4e0(%rbp)
    d058:	48 8d 05 81 f3 00 00 	lea    0xf381(%rip),%rax        # 1c3e0 <g_1428>
    d05f:	48 89 85 28 fb ff ff 	mov    %rax,-0x4d8(%rbp)
    d066:	48 8d 85 b3 eb ff ff 	lea    -0x144d(%rbp),%rax
    d06d:	48 89 85 30 fb ff ff 	mov    %rax,-0x4d0(%rbp)
    d074:	48 8d 05 c0 ef 00 00 	lea    0xefc0(%rip),%rax        # 1c03b <g_190>
    d07b:	48 89 85 38 fb ff ff 	mov    %rax,-0x4c8(%rbp)
    d082:	48 8d 05 d7 ef 00 00 	lea    0xefd7(%rip),%rax        # 1c060 <g_228>
    d089:	48 89 85 40 fb ff ff 	mov    %rax,-0x4c0(%rbp)
    d090:	48 8d 85 b3 eb ff ff 	lea    -0x144d(%rbp),%rax
    d097:	48 89 85 48 fb ff ff 	mov    %rax,-0x4b8(%rbp)
    d09e:	48 8d 05 bb ef 00 00 	lea    0xefbb(%rip),%rax        # 1c060 <g_228>
    d0a5:	48 89 85 50 fb ff ff 	mov    %rax,-0x4b0(%rbp)
    d0ac:	48 8d 05 ad ef 00 00 	lea    0xefad(%rip),%rax        # 1c060 <g_228>
    d0b3:	48 89 85 58 fb ff ff 	mov    %rax,-0x4a8(%rbp)
    d0ba:	48 8d 05 1f f3 00 00 	lea    0xf31f(%rip),%rax        # 1c3e0 <g_1428>
    d0c1:	48 89 85 60 fb ff ff 	mov    %rax,-0x4a0(%rbp)
    d0c8:	48 8d 05 11 f3 00 00 	lea    0xf311(%rip),%rax        # 1c3e0 <g_1428>
    d0cf:	48 89 85 68 fb ff ff 	mov    %rax,-0x498(%rbp)
    d0d6:	48 8d 05 03 f3 00 00 	lea    0xf303(%rip),%rax        # 1c3e0 <g_1428>
    d0dd:	48 89 85 70 fb ff ff 	mov    %rax,-0x490(%rbp)
    d0e4:	48 8d 05 f5 f2 00 00 	lea    0xf2f5(%rip),%rax        # 1c3e0 <g_1428>
    d0eb:	48 89 85 78 fb ff ff 	mov    %rax,-0x488(%rbp)
    d0f2:	48 8d 05 e7 f2 00 00 	lea    0xf2e7(%rip),%rax        # 1c3e0 <g_1428>
    d0f9:	48 89 85 80 fb ff ff 	mov    %rax,-0x480(%rbp)
    d100:	48 8d 05 d9 f2 00 00 	lea    0xf2d9(%rip),%rax        # 1c3e0 <g_1428>
    d107:	48 89 85 88 fb ff ff 	mov    %rax,-0x478(%rbp)
    d10e:	48 c7 85 90 fb ff ff 	movq   $0x0,-0x470(%rbp)
    d115:	00 00 00 00 
    d119:	48 8d 85 b3 eb ff ff 	lea    -0x144d(%rbp),%rax
    d120:	48 89 85 98 fb ff ff 	mov    %rax,-0x468(%rbp)
    d127:	48 8d 85 b3 eb ff ff 	lea    -0x144d(%rbp),%rax
    d12e:	48 89 85 a0 fb ff ff 	mov    %rax,-0x460(%rbp)
    d135:	48 8d 05 24 ef 00 00 	lea    0xef24(%rip),%rax        # 1c060 <g_228>
    d13c:	48 89 85 a8 fb ff ff 	mov    %rax,-0x458(%rbp)
    d143:	48 c7 85 b0 fb ff ff 	movq   $0x0,-0x450(%rbp)
    d14a:	00 00 00 00 
    d14e:	48 8d 05 e6 ee 00 00 	lea    0xeee6(%rip),%rax        # 1c03b <g_190>
    d155:	48 89 85 b8 fb ff ff 	mov    %rax,-0x448(%rbp)
    d15c:	48 8d 05 7d f2 00 00 	lea    0xf27d(%rip),%rax        # 1c3e0 <g_1428>
    d163:	48 89 85 c0 fb ff ff 	mov    %rax,-0x440(%rbp)
    d16a:	48 8d 05 ca ee 00 00 	lea    0xeeca(%rip),%rax        # 1c03b <g_190>
    d171:	48 89 85 c8 fb ff ff 	mov    %rax,-0x438(%rbp)
    d178:	48 c7 85 d0 fb ff ff 	movq   $0x0,-0x430(%rbp)
    d17f:	00 00 00 00 
    d183:	48 8d 05 56 f2 00 00 	lea    0xf256(%rip),%rax        # 1c3e0 <g_1428>
    d18a:	48 89 85 d8 fb ff ff 	mov    %rax,-0x428(%rbp)
    d191:	48 8d 05 c8 ee 00 00 	lea    0xeec8(%rip),%rax        # 1c060 <g_228>
    d198:	48 89 85 e0 fb ff ff 	mov    %rax,-0x420(%rbp)
    d19f:	48 8d 85 b3 eb ff ff 	lea    -0x144d(%rbp),%rax
    d1a6:	48 89 85 e8 fb ff ff 	mov    %rax,-0x418(%rbp)
    d1ad:	48 8d 85 b3 eb ff ff 	lea    -0x144d(%rbp),%rax
    d1b4:	48 89 85 f0 fb ff ff 	mov    %rax,-0x410(%rbp)
    d1bb:	48 8d 05 9e ee 00 00 	lea    0xee9e(%rip),%rax        # 1c060 <g_228>
    d1c2:	48 89 85 f8 fb ff ff 	mov    %rax,-0x408(%rbp)
    d1c9:	48 8d 05 10 f2 00 00 	lea    0xf210(%rip),%rax        # 1c3e0 <g_1428>
    d1d0:	48 89 85 00 fc ff ff 	mov    %rax,-0x400(%rbp)
    d1d7:	48 8d 85 b3 eb ff ff 	lea    -0x144d(%rbp),%rax
    d1de:	48 89 85 08 fc ff ff 	mov    %rax,-0x3f8(%rbp)
    d1e5:	48 c7 85 10 fc ff ff 	movq   $0x0,-0x3f0(%rbp)
    d1ec:	00 00 00 00 
    d1f0:	48 8d 85 b3 eb ff ff 	lea    -0x144d(%rbp),%rax
    d1f7:	48 89 85 18 fc ff ff 	mov    %rax,-0x3e8(%rbp)
    d1fe:	48 8d 05 db f1 00 00 	lea    0xf1db(%rip),%rax        # 1c3e0 <g_1428>
    d205:	48 89 85 20 fc ff ff 	mov    %rax,-0x3e0(%rbp)
    d20c:	48 8d 85 b3 eb ff ff 	lea    -0x144d(%rbp),%rax
    d213:	48 89 85 28 fc ff ff 	mov    %rax,-0x3d8(%rbp)
    d21a:	48 8d 05 1a ee 00 00 	lea    0xee1a(%rip),%rax        # 1c03b <g_190>
    d221:	48 89 85 30 fc ff ff 	mov    %rax,-0x3d0(%rbp)
    d228:	48 8d 05 31 ee 00 00 	lea    0xee31(%rip),%rax        # 1c060 <g_228>
    d22f:	48 89 85 38 fc ff ff 	mov    %rax,-0x3c8(%rbp)
    d236:	48 8d 05 a3 f1 00 00 	lea    0xf1a3(%rip),%rax        # 1c3e0 <g_1428>
    d23d:	48 89 85 40 fc ff ff 	mov    %rax,-0x3c0(%rbp)
    d244:	48 8d 85 b3 eb ff ff 	lea    -0x144d(%rbp),%rax
    d24b:	48 89 85 48 fc ff ff 	mov    %rax,-0x3b8(%rbp)
    d252:	48 8d 05 87 f1 00 00 	lea    0xf187(%rip),%rax        # 1c3e0 <g_1428>
    d259:	48 89 85 50 fc ff ff 	mov    %rax,-0x3b0(%rbp)
    d260:	48 8d 05 79 f1 00 00 	lea    0xf179(%rip),%rax        # 1c3e0 <g_1428>
    d267:	48 89 85 58 fc ff ff 	mov    %rax,-0x3a8(%rbp)
    d26e:	48 8d 85 b3 eb ff ff 	lea    -0x144d(%rbp),%rax
    d275:	48 89 85 60 fc ff ff 	mov    %rax,-0x3a0(%rbp)
    d27c:	48 8d 85 b3 eb ff ff 	lea    -0x144d(%rbp),%rax
    d283:	48 89 85 68 fc ff ff 	mov    %rax,-0x398(%rbp)
    d28a:	48 8d 85 b3 eb ff ff 	lea    -0x144d(%rbp),%rax
    d291:	48 89 85 70 fc ff ff 	mov    %rax,-0x390(%rbp)
    d298:	48 8d 05 41 f1 00 00 	lea    0xf141(%rip),%rax        # 1c3e0 <g_1428>
    d29f:	48 89 85 78 fc ff ff 	mov    %rax,-0x388(%rbp)
    d2a6:	48 8d 05 b3 ed 00 00 	lea    0xedb3(%rip),%rax        # 1c060 <g_228>
    d2ad:	48 89 85 80 fc ff ff 	mov    %rax,-0x380(%rbp)
    d2b4:	48 8d 05 a5 ed 00 00 	lea    0xeda5(%rip),%rax        # 1c060 <g_228>
    d2bb:	48 89 85 88 fc ff ff 	mov    %rax,-0x378(%rbp)
    d2c2:	48 8d 05 17 f1 00 00 	lea    0xf117(%rip),%rax        # 1c3e0 <g_1428>
    d2c9:	48 89 85 90 fc ff ff 	mov    %rax,-0x370(%rbp)
    d2d0:	48 8d 05 89 ed 00 00 	lea    0xed89(%rip),%rax        # 1c060 <g_228>
    d2d7:	48 89 85 98 fc ff ff 	mov    %rax,-0x368(%rbp)
    d2de:	48 8d 05 7b ed 00 00 	lea    0xed7b(%rip),%rax        # 1c060 <g_228>
    d2e5:	48 89 85 a0 fc ff ff 	mov    %rax,-0x360(%rbp)
    d2ec:	48 8d 05 6d ed 00 00 	lea    0xed6d(%rip),%rax        # 1c060 <g_228>
    d2f3:	48 89 85 a8 fc ff ff 	mov    %rax,-0x358(%rbp)
    d2fa:	48 8d 05 df f0 00 00 	lea    0xf0df(%rip),%rax        # 1c3e0 <g_1428>
    d301:	48 89 85 b0 fc ff ff 	mov    %rax,-0x350(%rbp)
    d308:	48 8d 85 b3 eb ff ff 	lea    -0x144d(%rbp),%rax
    d30f:	48 89 85 b8 fc ff ff 	mov    %rax,-0x348(%rbp)
    d316:	48 8d 05 c3 f0 00 00 	lea    0xf0c3(%rip),%rax        # 1c3e0 <g_1428>
    d31d:	48 89 85 c0 fc ff ff 	mov    %rax,-0x340(%rbp)
    d324:	48 8d 85 b3 eb ff ff 	lea    -0x144d(%rbp),%rax
    d32b:	48 89 85 c8 fc ff ff 	mov    %rax,-0x338(%rbp)
    d332:	48 8d 05 27 ed 00 00 	lea    0xed27(%rip),%rax        # 1c060 <g_228>
    d339:	48 89 85 d0 fc ff ff 	mov    %rax,-0x330(%rbp)
    d340:	48 8d 05 19 ed 00 00 	lea    0xed19(%rip),%rax        # 1c060 <g_228>
    d347:	48 89 85 d8 fc ff ff 	mov    %rax,-0x328(%rbp)
    d34e:	48 8d 05 8b f0 00 00 	lea    0xf08b(%rip),%rax        # 1c3e0 <g_1428>
    d355:	48 89 85 e0 fc ff ff 	mov    %rax,-0x320(%rbp)
    d35c:	48 8d 05 fd ec 00 00 	lea    0xecfd(%rip),%rax        # 1c060 <g_228>
    d363:	48 89 85 e8 fc ff ff 	mov    %rax,-0x318(%rbp)
    d36a:	48 8d 05 ef ec 00 00 	lea    0xecef(%rip),%rax        # 1c060 <g_228>
    d371:	48 89 85 f0 fc ff ff 	mov    %rax,-0x310(%rbp)
    d378:	48 8d 05 e1 ec 00 00 	lea    0xece1(%rip),%rax        # 1c060 <g_228>
    d37f:	48 89 85 f8 fc ff ff 	mov    %rax,-0x308(%rbp)
    d386:	48 c7 85 00 fd ff ff 	movq   $0x0,-0x300(%rbp)
    d38d:	00 00 00 00 
    d391:	48 8d 05 c8 ec 00 00 	lea    0xecc8(%rip),%rax        # 1c060 <g_228>
    d398:	48 89 85 08 fd ff ff 	mov    %rax,-0x2f8(%rbp)
    d39f:	48 8d 05 ba ec 00 00 	lea    0xecba(%rip),%rax        # 1c060 <g_228>
    d3a6:	48 89 85 10 fd ff ff 	mov    %rax,-0x2f0(%rbp)
    d3ad:	48 8d 05 ac ec 00 00 	lea    0xecac(%rip),%rax        # 1c060 <g_228>
    d3b4:	48 89 85 18 fd ff ff 	mov    %rax,-0x2e8(%rbp)
    d3bb:	48 8d 05 9e ec 00 00 	lea    0xec9e(%rip),%rax        # 1c060 <g_228>
    d3c2:	48 89 85 20 fd ff ff 	mov    %rax,-0x2e0(%rbp)
    d3c9:	48 c7 85 28 fd ff ff 	movq   $0x0,-0x2d8(%rbp)
    d3d0:	00 00 00 00 
    d3d4:	48 8d 85 b3 eb ff ff 	lea    -0x144d(%rbp),%rax
    d3db:	48 89 85 30 fd ff ff 	mov    %rax,-0x2d0(%rbp)
    d3e2:	48 8d 05 f7 ef 00 00 	lea    0xeff7(%rip),%rax        # 1c3e0 <g_1428>
    d3e9:	48 89 85 38 fd ff ff 	mov    %rax,-0x2c8(%rbp)
    d3f0:	48 8d 05 e9 ef 00 00 	lea    0xefe9(%rip),%rax        # 1c3e0 <g_1428>
    d3f7:	48 89 85 40 fd ff ff 	mov    %rax,-0x2c0(%rbp)
    d3fe:	48 8d 05 db ef 00 00 	lea    0xefdb(%rip),%rax        # 1c3e0 <g_1428>
    d405:	48 89 85 48 fd ff ff 	mov    %rax,-0x2b8(%rbp)
    d40c:	48 8d 85 b3 eb ff ff 	lea    -0x144d(%rbp),%rax
    d413:	48 89 85 50 fd ff ff 	mov    %rax,-0x2b0(%rbp)
    d41a:	48 8d 05 1a ec 00 00 	lea    0xec1a(%rip),%rax        # 1c03b <g_190>
    d421:	48 89 85 58 fd ff ff 	mov    %rax,-0x2a8(%rbp)
    d428:	48 8d 05 0c ec 00 00 	lea    0xec0c(%rip),%rax        # 1c03b <g_190>
    d42f:	48 89 85 60 fd ff ff 	mov    %rax,-0x2a0(%rbp)
    d436:	48 8d 05 a3 ef 00 00 	lea    0xefa3(%rip),%rax        # 1c3e0 <g_1428>
    d43d:	48 89 85 68 fd ff ff 	mov    %rax,-0x298(%rbp)
    d444:	48 8d 05 15 ec 00 00 	lea    0xec15(%rip),%rax        # 1c060 <g_228>
    d44b:	48 89 85 70 fd ff ff 	mov    %rax,-0x290(%rbp)
    d452:	48 8d 85 b3 eb ff ff 	lea    -0x144d(%rbp),%rax
    d459:	48 89 85 78 fd ff ff 	mov    %rax,-0x288(%rbp)
    d460:	48 8d 85 b3 eb ff ff 	lea    -0x144d(%rbp),%rax
    d467:	48 89 85 80 fd ff ff 	mov    %rax,-0x280(%rbp)
    d46e:	48 8d 05 eb eb 00 00 	lea    0xebeb(%rip),%rax        # 1c060 <g_228>
    d475:	48 89 85 88 fd ff ff 	mov    %rax,-0x278(%rbp)
    d47c:	48 8d 85 b3 eb ff ff 	lea    -0x144d(%rbp),%rax
    d483:	48 89 85 90 fd ff ff 	mov    %rax,-0x270(%rbp)
    d48a:	48 c7 85 98 fd ff ff 	movq   $0x0,-0x268(%rbp)
    d491:	00 00 00 00 
    d495:	48 8d 85 b3 eb ff ff 	lea    -0x144d(%rbp),%rax
    d49c:	48 89 85 a0 fd ff ff 	mov    %rax,-0x260(%rbp)
    d4a3:	48 8d 05 b6 eb 00 00 	lea    0xebb6(%rip),%rax        # 1c060 <g_228>
    d4aa:	48 89 85 a8 fd ff ff 	mov    %rax,-0x258(%rbp)
    d4b1:	48 8d 05 a8 eb 00 00 	lea    0xeba8(%rip),%rax        # 1c060 <g_228>
    d4b8:	48 89 85 b0 fd ff ff 	mov    %rax,-0x250(%rbp)
    d4bf:	48 c7 85 b8 fd ff ff 	movq   $0x0,-0x248(%rbp)
    d4c6:	00 00 00 00 
    d4ca:	48 8d 05 0f ef 00 00 	lea    0xef0f(%rip),%rax        # 1c3e0 <g_1428>
    d4d1:	48 89 85 c0 fd ff ff 	mov    %rax,-0x240(%rbp)
    d4d8:	48 8d 05 81 eb 00 00 	lea    0xeb81(%rip),%rax        # 1c060 <g_228>
    d4df:	48 89 85 c8 fd ff ff 	mov    %rax,-0x238(%rbp)
    d4e6:	48 8d 05 4e eb 00 00 	lea    0xeb4e(%rip),%rax        # 1c03b <g_190>
    d4ed:	48 89 85 d0 fd ff ff 	mov    %rax,-0x230(%rbp)
    d4f4:	48 8d 05 65 eb 00 00 	lea    0xeb65(%rip),%rax        # 1c060 <g_228>
    d4fb:	48 89 85 d8 fd ff ff 	mov    %rax,-0x228(%rbp)
    d502:	48 8d 05 32 eb 00 00 	lea    0xeb32(%rip),%rax        # 1c03b <g_190>
    d509:	48 89 85 e0 fd ff ff 	mov    %rax,-0x220(%rbp)
    d510:	48 8d 05 49 eb 00 00 	lea    0xeb49(%rip),%rax        # 1c060 <g_228>
    d517:	48 89 85 e8 fd ff ff 	mov    %rax,-0x218(%rbp)
    d51e:	48 8d 85 b3 eb ff ff 	lea    -0x144d(%rbp),%rax
    d525:	48 89 85 f0 fd ff ff 	mov    %rax,-0x210(%rbp)
    d52c:	48 8d 05 08 eb 00 00 	lea    0xeb08(%rip),%rax        # 1c03b <g_190>
    d533:	48 89 85 f8 fd ff ff 	mov    %rax,-0x208(%rbp)
    d53a:	48 c7 85 00 fe ff ff 	movq   $0x0,-0x200(%rbp)
    d541:	00 00 00 00 
    d545:	48 8d 05 14 eb 00 00 	lea    0xeb14(%rip),%rax        # 1c060 <g_228>
    d54c:	48 89 85 08 fe ff ff 	mov    %rax,-0x1f8(%rbp)
    d553:	48 8d 05 86 ee 00 00 	lea    0xee86(%rip),%rax        # 1c3e0 <g_1428>
    d55a:	48 89 85 10 fe ff ff 	mov    %rax,-0x1f0(%rbp)
    d561:	48 8d 05 78 ee 00 00 	lea    0xee78(%rip),%rax        # 1c3e0 <g_1428>
    d568:	48 89 85 18 fe ff ff 	mov    %rax,-0x1e8(%rbp)
    d56f:	48 8d 05 ea ea 00 00 	lea    0xeaea(%rip),%rax        # 1c060 <g_228>
    d576:	48 89 85 20 fe ff ff 	mov    %rax,-0x1e0(%rbp)
    d57d:	48 c7 85 28 fe ff ff 	movq   $0x0,-0x1d8(%rbp)
    d584:	00 00 00 00 
    d588:	48 c7 85 30 fe ff ff 	movq   $0x0,-0x1d0(%rbp)
    d58f:	00 00 00 00 
    d593:	48 8d 85 b3 eb ff ff 	lea    -0x144d(%rbp),%rax
    d59a:	48 89 85 38 fe ff ff 	mov    %rax,-0x1c8(%rbp)
    d5a1:	48 8d 05 b8 ea 00 00 	lea    0xeab8(%rip),%rax        # 1c060 <g_228>
    d5a8:	48 89 85 40 fe ff ff 	mov    %rax,-0x1c0(%rbp)
    d5af:	48 8d 05 aa ea 00 00 	lea    0xeaaa(%rip),%rax        # 1c060 <g_228>
    d5b6:	48 89 85 48 fe ff ff 	mov    %rax,-0x1b8(%rbp)
    d5bd:	48 8d 05 1c ee 00 00 	lea    0xee1c(%rip),%rax        # 1c3e0 <g_1428>
    d5c4:	48 89 85 50 fe ff ff 	mov    %rax,-0x1b0(%rbp)
    d5cb:	48 8d 05 0e ee 00 00 	lea    0xee0e(%rip),%rax        # 1c3e0 <g_1428>
    d5d2:	48 89 85 58 fe ff ff 	mov    %rax,-0x1a8(%rbp)
    d5d9:	48 8d 85 b3 eb ff ff 	lea    -0x144d(%rbp),%rax
    d5e0:	48 89 85 60 fe ff ff 	mov    %rax,-0x1a0(%rbp)
    d5e7:	48 8d 05 72 ea 00 00 	lea    0xea72(%rip),%rax        # 1c060 <g_228>
    d5ee:	48 89 85 68 fe ff ff 	mov    %rax,-0x198(%rbp)
    d5f5:	48 8d 05 e4 ed 00 00 	lea    0xede4(%rip),%rax        # 1c3e0 <g_1428>
    d5fc:	48 89 85 70 fe ff ff 	mov    %rax,-0x190(%rbp)
    d603:	48 c7 85 78 fe ff ff 	movq   $0x0,-0x188(%rbp)
    d60a:	00 00 00 00 
    d60e:	48 8d 05 cb ed 00 00 	lea    0xedcb(%rip),%rax        # 1c3e0 <g_1428>
    d615:	48 89 85 80 fe ff ff 	mov    %rax,-0x180(%rbp)
    d61c:	48 8d 05 bd ed 00 00 	lea    0xedbd(%rip),%rax        # 1c3e0 <g_1428>
    d623:	48 89 85 88 fe ff ff 	mov    %rax,-0x178(%rbp)
    d62a:	48 8d 05 af ed 00 00 	lea    0xedaf(%rip),%rax        # 1c3e0 <g_1428>
    d631:	48 89 85 90 fe ff ff 	mov    %rax,-0x170(%rbp)
    d638:	48 8d 05 a1 ed 00 00 	lea    0xeda1(%rip),%rax        # 1c3e0 <g_1428>
    d63f:	48 89 85 98 fe ff ff 	mov    %rax,-0x168(%rbp)
    d646:	48 8d 05 93 ed 00 00 	lea    0xed93(%rip),%rax        # 1c3e0 <g_1428>
    d64d:	48 89 85 a0 fe ff ff 	mov    %rax,-0x160(%rbp)
    d654:	48 8d 05 05 ea 00 00 	lea    0xea05(%rip),%rax        # 1c060 <g_228>
    d65b:	48 89 85 a8 fe ff ff 	mov    %rax,-0x158(%rbp)
    d662:	48 8d 05 f7 e9 00 00 	lea    0xe9f7(%rip),%rax        # 1c060 <g_228>
    d669:	48 89 85 b0 fe ff ff 	mov    %rax,-0x150(%rbp)
    d670:	48 8d 85 b3 eb ff ff 	lea    -0x144d(%rbp),%rax
    d677:	48 89 85 b8 fe ff ff 	mov    %rax,-0x148(%rbp)
    d67e:	48 8d 05 b6 e9 00 00 	lea    0xe9b6(%rip),%rax        # 1c03b <g_190>
    d685:	48 89 85 c0 fe ff ff 	mov    %rax,-0x140(%rbp)
    d68c:	48 8d 05 4d ed 00 00 	lea    0xed4d(%rip),%rax        # 1c3e0 <g_1428>
    d693:	48 89 85 c8 fe ff ff 	mov    %rax,-0x138(%rbp)
    d69a:	48 8d 05 bf e9 00 00 	lea    0xe9bf(%rip),%rax        # 1c060 <g_228>
    d6a1:	48 89 85 d0 fe ff ff 	mov    %rax,-0x130(%rbp)
    d6a8:	48 8d 85 b3 eb ff ff 	lea    -0x144d(%rbp),%rax
    d6af:	48 89 85 d8 fe ff ff 	mov    %rax,-0x128(%rbp)
    d6b6:	48 c7 85 e0 fe ff ff 	movq   $0x0,-0x120(%rbp)
    d6bd:	00 00 00 00 
    d6c1:	48 8d 05 98 e9 00 00 	lea    0xe998(%rip),%rax        # 1c060 <g_228>
    d6c8:	48 89 85 e8 fe ff ff 	mov    %rax,-0x118(%rbp)
    d6cf:	48 8d 05 8a e9 00 00 	lea    0xe98a(%rip),%rax        # 1c060 <g_228>
    d6d6:	48 89 85 f0 fe ff ff 	mov    %rax,-0x110(%rbp)
    d6dd:	48 8d 05 fc ec 00 00 	lea    0xecfc(%rip),%rax        # 1c3e0 <g_1428>
    d6e4:	48 89 85 f8 fe ff ff 	mov    %rax,-0x108(%rbp)
    d6eb:	48 8d 05 ee ec 00 00 	lea    0xecee(%rip),%rax        # 1c3e0 <g_1428>
    d6f2:	48 89 85 00 ff ff ff 	mov    %rax,-0x100(%rbp)
    d6f9:	48 8d 05 60 e9 00 00 	lea    0xe960(%rip),%rax        # 1c060 <g_228>
    d700:	48 89 85 08 ff ff ff 	mov    %rax,-0xf8(%rbp)
    d707:	48 8d 05 52 e9 00 00 	lea    0xe952(%rip),%rax        # 1c060 <g_228>
    d70e:	48 89 85 10 ff ff ff 	mov    %rax,-0xf0(%rbp)
    d715:	48 8d 05 c4 ec 00 00 	lea    0xecc4(%rip),%rax        # 1c3e0 <g_1428>
    d71c:	48 89 85 18 ff ff ff 	mov    %rax,-0xe8(%rbp)
    d723:	48 8d 05 11 e9 00 00 	lea    0xe911(%rip),%rax        # 1c03b <g_190>
    d72a:	48 89 85 20 ff ff ff 	mov    %rax,-0xe0(%rbp)
    d731:	48 8d 05 28 e9 00 00 	lea    0xe928(%rip),%rax        # 1c060 <g_228>
    d738:	48 89 85 28 ff ff ff 	mov    %rax,-0xd8(%rbp)
    d73f:	48 8d 05 f5 e8 00 00 	lea    0xe8f5(%rip),%rax        # 1c03b <g_190>
    d746:	48 89 85 30 ff ff ff 	mov    %rax,-0xd0(%rbp)
    d74d:	48 8d 05 8c ec 00 00 	lea    0xec8c(%rip),%rax        # 1c3e0 <g_1428>
    d754:	48 89 85 38 ff ff ff 	mov    %rax,-0xc8(%rbp)
    d75b:	48 8d 05 fe e8 00 00 	lea    0xe8fe(%rip),%rax        # 1c060 <g_228>
    d762:	48 89 85 40 ff ff ff 	mov    %rax,-0xc0(%rbp)
    d769:	48 8d 05 70 ec 00 00 	lea    0xec70(%rip),%rax        # 1c3e0 <g_1428>
    d770:	48 89 85 48 ff ff ff 	mov    %rax,-0xb8(%rbp)
    d777:	48 8d 05 e2 e8 00 00 	lea    0xe8e2(%rip),%rax        # 1c060 <g_228>
    d77e:	48 89 85 50 ff ff ff 	mov    %rax,-0xb0(%rbp)
    d785:	48 c7 85 58 ff ff ff 	movq   $0x0,-0xa8(%rbp)
    d78c:	00 00 00 00 
    d790:	48 8d 05 49 ec 00 00 	lea    0xec49(%rip),%rax        # 1c3e0 <g_1428>
    d797:	48 89 85 60 ff ff ff 	mov    %rax,-0xa0(%rbp)
    d79e:	48 c7 85 68 ff ff ff 	movq   $0x0,-0x98(%rbp)
    d7a5:	00 00 00 00 
    d7a9:	48 8d 05 30 ec 00 00 	lea    0xec30(%rip),%rax        # 1c3e0 <g_1428>
    d7b0:	48 89 85 70 ff ff ff 	mov    %rax,-0x90(%rbp)
    d7b7:	48 8d 85 b3 eb ff ff 	lea    -0x144d(%rbp),%rax
    d7be:	48 89 85 78 ff ff ff 	mov    %rax,-0x88(%rbp)
    d7c5:	48 c7 45 80 00 00 00 	movq   $0x0,-0x80(%rbp)
    d7cc:	00 
    d7cd:	48 c7 45 88 00 00 00 	movq   $0x0,-0x78(%rbp)
    d7d4:	00 
    d7d5:	48 8d 05 5f e8 00 00 	lea    0xe85f(%rip),%rax        # 1c03b <g_190>
    d7dc:	48 89 45 90          	mov    %rax,-0x70(%rbp)
    d7e0:	48 8d 05 54 e8 00 00 	lea    0xe854(%rip),%rax        # 1c03b <g_190>
    d7e7:	48 89 45 98          	mov    %rax,-0x68(%rbp)
    d7eb:	48 8d 05 ee eb 00 00 	lea    0xebee(%rip),%rax        # 1c3e0 <g_1428>
    d7f2:	48 89 45 a0          	mov    %rax,-0x60(%rbp)
    d7f6:	48 8d 05 e3 eb 00 00 	lea    0xebe3(%rip),%rax        # 1c3e0 <g_1428>
    d7fd:	48 89 45 a8          	mov    %rax,-0x58(%rbp)
    d801:	48 8d 05 33 e8 00 00 	lea    0xe833(%rip),%rax        # 1c03b <g_190>
    d808:	48 89 45 b0          	mov    %rax,-0x50(%rbp)
    d80c:	48 8d 05 28 e8 00 00 	lea    0xe828(%rip),%rax        # 1c03b <g_190>
    d813:	48 89 45 b8          	mov    %rax,-0x48(%rbp)
    d817:	48 8b 05 7a 20 01 00 	mov    0x1207a(%rip),%rax        # 1f898 <g_626>
    d81e:	48 c7 00 00 00 00 00 	movq   $0x0,(%rax)
    d825:	48 c7 05 00 e8 00 00 	movq   $0x9,0xe800(%rip)        # 1c030 <g_106>
    d82c:	09 00 00 00 
    d830:	e9 bc 01 00 00       	jmpq   d9f1 <func_2+0x153b>
    d835:	48 8d 85 e0 f0 ff ff 	lea    -0xf20(%rbp),%rax
    d83c:	48 8d 15 9d fe 00 00 	lea    0xfe9d(%rip),%rdx        # 1d6e0 <g_3956+0xe58>
    d843:	b9 e0 00 00 00       	mov    $0xe0,%ecx
    d848:	48 89 c7             	mov    %rax,%rdi
    d84b:	48 89 d6             	mov    %rdx,%rsi
    d84e:	f3 48 a5             	rep movsq %ds:(%rsi),%es:(%rdi)
    d851:	48 8d 85 40 ee ff ff 	lea    -0x11c0(%rbp),%rax
    d858:	48 8d 15 81 05 01 00 	lea    0x10581(%rip),%rdx        # 1dde0 <g_3956+0x1558>
    d85f:	b9 54 00 00 00       	mov    $0x54,%ecx
    d864:	48 89 c7             	mov    %rax,%rdi
    d867:	48 89 d6             	mov    %rdx,%rsi
    d86a:	f3 48 a5             	rep movsq %ds:(%rsi),%es:(%rdi)
    d86d:	48 8b 85 e8 eb ff ff 	mov    -0x1418(%rbp),%rax
    d874:	48 89 85 68 ec ff ff 	mov    %rax,-0x1398(%rbp)
    d87b:	48 8b 05 16 20 01 00 	mov    0x12016(%rip),%rax        # 1f898 <g_626>
    d882:	48 8b 95 68 ec ff ff 	mov    -0x1398(%rbp),%rdx
    d889:	48 89 10             	mov    %rdx,(%rax)
    d88c:	8b 85 a0 eb ff ff    	mov    -0x1460(%rbp),%eax
    d892:	85 c0                	test   %eax,%eax
    d894:	74 35                	je     d8cb <func_2+0x1415>
    d896:	8b 05 7c 34 01 00    	mov    0x1347c(%rip),%eax        # 20d18 <g_639>
    d89c:	0f b7 c0             	movzwl %ax,%eax
    d89f:	89 c7                	mov    %eax,%edi
    d8a1:	e8 43 d4 ff ff       	callq  ace9 <safe_unary_minus_func_uint16_t_u>
    d8a6:	0f be c0             	movsbl %al,%eax
    d8a9:	89 c6                	mov    %eax,%esi
    d8ab:	bf 01 00 00 00       	mov    $0x1,%edi
    d8b0:	e8 5d c9 ff ff       	callq  a212 <safe_mul_func_int8_t_s_s>
    d8b5:	0f be d0             	movsbl %al,%edx
    d8b8:	8b 05 46 eb 00 00    	mov    0xeb46(%rip),%eax        # 1c404 <g_1615+0x4>
    d8be:	83 f8 66             	cmp    $0x66,%eax
    d8c1:	0f 95 c0             	setne  %al
    d8c4:	0f b6 c0             	movzbl %al,%eax
    d8c7:	09 d0                	or     %edx,%eax
    d8c9:	85 c0                	test   %eax,%eax
    d8cb:	8b 95 a0 eb ff ff    	mov    -0x1460(%rbp),%edx
    d8d1:	48 8b 05 38 25 01 00 	mov    0x12538(%rip),%rax        # 1fe10 <g_1844>
    d8d8:	89 10                	mov    %edx,(%rax)
    d8da:	8b 00                	mov    (%rax),%eax
    d8dc:	85 c0                	test   %eax,%eax
    d8de:	75 13                	jne    d8f3 <func_2+0x143d>
    d8e0:	48 8b 05 39 25 01 00 	mov    0x12539(%rip),%rax        # 1fe20 <g_1842>
    d8e7:	48 8b 00             	mov    (%rax),%rax
    d8ea:	48 8b 00             	mov    (%rax),%rax
    d8ed:	8b 00                	mov    (%rax),%eax
    d8ef:	85 c0                	test   %eax,%eax
    d8f1:	74 07                	je     d8fa <func_2+0x1444>
    d8f3:	b8 01 00 00 00       	mov    $0x1,%eax
    d8f8:	eb 05                	jmp    d8ff <func_2+0x1449>
    d8fa:	b8 00 00 00 00       	mov    $0x0,%eax
    d8ff:	48 98                	cltq   
    d901:	48 89 05 00 e8 00 00 	mov    %rax,0xe800(%rip)        # 1c108 <g_276+0x88>
    d908:	48 8b 05 f9 21 01 00 	mov    0x121f9(%rip),%rax        # 1fb08 <g_1337>
    d90f:	48 8b 00             	mov    (%rax),%rax
    d912:	48 8b 00             	mov    (%rax),%rax
    d915:	0f b6 00             	movzbl (%rax),%eax
    d918:	66 83 bd b4 eb ff ff 	cmpw   $0x0,-0x144c(%rbp)
    d91f:	00 
    d920:	74 07                	je     d929 <func_2+0x1473>
    d922:	ba 01 00 00 00       	mov    $0x1,%edx
    d927:	eb 05                	jmp    d92e <func_2+0x1478>
    d929:	ba 00 00 00 00       	mov    $0x0,%edx
    d92e:	48 8b 05 5b 21 01 00 	mov    0x1215b(%rip),%rax        # 1fa90 <g_1042>
    d935:	66 89 10             	mov    %dx,(%rax)
    d938:	0f b7 00             	movzwl (%rax),%eax
    d93b:	66 39 85 b6 eb ff ff 	cmp    %ax,-0x144a(%rbp)
    d942:	0f 9c c0             	setl   %al
    d945:	0f b6 c0             	movzbl %al,%eax
    d948:	89 05 ca 33 01 00    	mov    %eax,0x133ca(%rip)        # 20d18 <g_639>
    d94e:	48 8b 05 c3 24 01 00 	mov    0x124c3(%rip),%rax        # 1fe18 <g_1843>
    d955:	48 8b 00             	mov    (%rax),%rax
    d958:	8b 10                	mov    (%rax),%edx
    d95a:	48 8b 85 98 eb ff ff 	mov    -0x1468(%rbp),%rax
    d961:	8b 00                	mov    (%rax),%eax
    d963:	21 d0                	and    %edx,%eax
    d965:	89 c2                	mov    %eax,%edx
    d967:	0f b6 05 cd e6 00 00 	movzbl 0xe6cd(%rip),%eax        # 1c03b <g_190>
    d96e:	83 e8 01             	sub    $0x1,%eax
    d971:	88 05 c4 e6 00 00    	mov    %al,0xe6c4(%rip)        # 1c03b <g_190>
    d977:	0f b6 05 bd e6 00 00 	movzbl 0xe6bd(%rip),%eax        # 1c03b <g_190>
    d97e:	0f b6 c0             	movzbl %al,%eax
    d981:	89 d6                	mov    %edx,%esi
    d983:	89 c7                	mov    %eax,%edi
    d985:	e8 7b d2 ff ff       	callq  ac05 <safe_lshift_func_uint8_t_u_s>
    d98a:	89 c2                	mov    %eax,%edx
    d98c:	48 8b 05 2d 1b 01 00 	mov    0x11b2d(%rip),%rax        # 1f4c0 <g_8>
    d993:	0f b6 d2             	movzbl %dl,%edx
    d996:	89 10                	mov    %edx,(%rax)
    d998:	8b 10                	mov    (%rax),%edx
    d99a:	8b 85 a0 eb ff ff    	mov    -0x1460(%rbp),%eax
    d9a0:	21 d0                	and    %edx,%eax
    d9a2:	be fe 20 16 ce       	mov    $0xce1620fe,%esi
    d9a7:	89 c7                	mov    %eax,%edi
    d9a9:	e8 1e cd ff ff       	callq  a6cc <safe_mod_func_int32_t_s_s>
    d9ae:	0f bf 95 b6 eb ff ff 	movswl -0x144a(%rbp),%edx
    d9b5:	39 d0                	cmp    %edx,%eax
    d9b7:	0f 9d c0             	setge  %al
    d9ba:	0f b6 c0             	movzbl %al,%eax
    d9bd:	48 89 05 4c eb 00 00 	mov    %rax,0xeb4c(%rip)        # 1c510 <g_2628>
    d9c4:	48 c7 c2 fe ff ff ff 	mov    $0xfffffffffffffffe,%rdx
    d9cb:	48 8b 85 a8 eb ff ff 	mov    -0x1458(%rbp),%rax
    d9d2:	8b 00                	mov    (%rax),%eax
    d9d4:	21 c2                	and    %eax,%edx
    d9d6:	48 8b 85 a8 eb ff ff 	mov    -0x1458(%rbp),%rax
    d9dd:	89 10                	mov    %edx,(%rax)
    d9df:	48 8b 05 4a e6 00 00 	mov    0xe64a(%rip),%rax        # 1c030 <g_106>
    d9e6:	48 83 e8 01          	sub    $0x1,%rax
    d9ea:	48 89 05 3f e6 00 00 	mov    %rax,0xe63f(%rip)        # 1c030 <g_106>
    d9f1:	48 8b 05 38 e6 00 00 	mov    0xe638(%rip),%rax        # 1c030 <g_106>
    d9f8:	48 85 c0             	test   %rax,%rax
    d9fb:	0f 89 34 fe ff ff    	jns    d835 <func_2+0x137f>
    da01:	0f b7 9d a4 eb ff ff 	movzwl -0x145c(%rbp),%ebx
    da08:	44 0f bf a5 b6 eb ff 	movswl -0x144a(%rbp),%r12d
    da0f:	ff 
    da10:	48 8b 05 09 eb 00 00 	mov    0xeb09(%rip),%rax        # 1c520 <g_2638>
    da17:	48 8b 15 0a eb 00 00 	mov    0xeb0a(%rip),%rdx        # 1c528 <g_2638+0x8>
    da1e:	0f bf 95 b4 eb ff ff 	movswl -0x144c(%rbp),%edx
    da25:	0f b6 85 b3 eb ff ff 	movzbl -0x144d(%rbp),%eax
    da2c:	0f b6 c8             	movzbl %al,%ecx
    da2f:	0f b7 b5 a4 eb ff ff 	movzwl -0x145c(%rbp),%esi
    da36:	48 8b 85 a8 eb ff ff 	mov    -0x1458(%rbp),%rax
    da3d:	8b 38                	mov    (%rax),%edi
    da3f:	48 83 bd 20 ec ff ff 	cmpq   $0x0,-0x13e0(%rbp)
    da46:	00 
    da47:	0f 95 c0             	setne  %al
    da4a:	0f b6 c0             	movzbl %al,%eax
    da4d:	21 c7                	and    %eax,%edi
    da4f:	0f bf 85 b4 eb ff ff 	movswl -0x144c(%rbp),%eax
    da56:	39 c7                	cmp    %eax,%edi
    da58:	0f 9e c0             	setle  %al
    da5b:	0f b6 c0             	movzbl %al,%eax
    da5e:	21 f0                	and    %esi,%eax
    da60:	39 c1                	cmp    %eax,%ecx
    da62:	0f 9e c0             	setle  %al
    da65:	0f b6 c0             	movzbl %al,%eax
    da68:	39 c2                	cmp    %eax,%edx
    da6a:	0f 9c c0             	setl   %al
    da6d:	0f b6 d0             	movzbl %al,%edx
    da70:	48 8b 05 19 20 01 00 	mov    0x12019(%rip),%rax        # 1fa90 <g_1042>
    da77:	0f b7 00             	movzwl (%rax),%eax
    da7a:	98                   	cwtl   
    da7b:	39 c2                	cmp    %eax,%edx
    da7d:	0f 9c c0             	setl   %al
    da80:	0f b6 c0             	movzbl %al,%eax
    da83:	89 85 bc eb ff ff    	mov    %eax,-0x1444(%rbp)
    da89:	48 83 bd a8 eb ff ff 	cmpq   $0x0,-0x1458(%rbp)
    da90:	00 
    da91:	0f 95 c0             	setne  %al
    da94:	0f b6 c0             	movzbl %al,%eax
    da97:	be 00 00 00 00       	mov    $0x0,%esi
    da9c:	89 c7                	mov    %eax,%edi
    da9e:	e8 52 c9 ff ff       	callq  a3f5 <safe_mul_func_int16_t_s_s>
    daa3:	98                   	cwtl   
    daa4:	44 89 e6             	mov    %r12d,%esi
    daa7:	89 c7                	mov    %eax,%edi
    daa9:	e8 7c ca ff ff       	callq  a52a <safe_rshift_func_int16_t_s_s>
    daae:	48 0f bf c0          	movswq %ax,%rax
    dab2:	48 89 de             	mov    %rbx,%rsi
    dab5:	48 89 c7             	mov    %rax,%rdi
    dab8:	e8 c3 d5 ff ff       	callq  b080 <safe_mod_func_uint64_t_u_u>
    dabd:	0f b7 c0             	movzwl %ax,%eax
    dac0:	be 06 c1 00 00       	mov    $0xc106,%esi
    dac5:	89 c7                	mov    %eax,%edi
    dac7:	e8 71 d2 ff ff       	callq  ad3d <safe_mul_func_uint16_t_u_u>
    dacc:	0f b7 c0             	movzwl %ax,%eax
    dacf:	31 85 c0 eb ff ff    	xor    %eax,-0x1440(%rbp)
    dad5:	8b 85 c0 eb ff ff    	mov    -0x1440(%rbp),%eax
    dadb:	89 85 b8 eb ff ff    	mov    %eax,-0x1448(%rbp)
    dae1:	8b 85 b8 eb ff ff    	mov    -0x1448(%rbp),%eax
    dae7:	48 63 d0             	movslq %eax,%rdx
    daea:	48 8b 05 4f e7 00 00 	mov    0xe74f(%rip),%rax        # 1c240 <g_276+0x1c0>
    daf1:	48 09 d0             	or     %rdx,%rax
    daf4:	48 3d bd 00 00 00    	cmp    $0xbd,%rax
    dafa:	76 0a                	jbe    db06 <func_2+0x1650>
    dafc:	66 83 bd a4 eb ff ff 	cmpw   $0x0,-0x145c(%rbp)
    db03:	00 
    db04:	74 07                	je     db0d <func_2+0x1657>
    db06:	ba 01 00 00 00       	mov    $0x1,%edx
    db0b:	eb 05                	jmp    db12 <func_2+0x165c>
    db0d:	ba 00 00 00 00       	mov    $0x0,%edx
    db12:	48 8b 85 e8 eb ff ff 	mov    -0x1418(%rbp),%rax
    db19:	89 10                	mov    %edx,(%rax)
    db1b:	8b 85 a0 eb ff ff    	mov    -0x1460(%rbp),%eax
    db21:	48 98                	cltq   
    db23:	be 07 00 00 00       	mov    $0x7,%esi
    db28:	48 89 c7             	mov    %rax,%rdi
    db2b:	e8 1b d5 ff ff       	callq  b04b <safe_sub_func_uint64_t_u_u>
    db30:	89 85 a0 eb ff ff    	mov    %eax,-0x1460(%rbp)
    db36:	8b 85 a0 eb ff ff    	mov    -0x1460(%rbp),%eax
    db3c:	83 f8 e9             	cmp    $0xffffffe9,%eax
    db3f:	0f 8c 71 ef ff ff    	jl     cab6 <func_2+0x600>
    db45:	83 bd c0 eb ff ff 00 	cmpl   $0x0,-0x1440(%rbp)
    db4c:	75 6a                	jne    dbb8 <func_2+0x1702>
    db4e:	48 8b 05 db e9 00 00 	mov    0xe9db(%rip),%rax        # 1c530 <g_2653>
    db55:	48 83 c0 01          	add    $0x1,%rax
    db59:	48 89 05 d0 e9 00 00 	mov    %rax,0xe9d0(%rip)        # 1c530 <g_2653>
    db60:	eb 44                	jmp    dba6 <func_2+0x16f0>
    db62:	48 8d 85 e0 f7 ff ff 	lea    -0x820(%rbp),%rax
    db69:	48 8d 15 10 05 01 00 	lea    0x10510(%rip),%rdx        # 1e080 <g_3956+0x17f8>
    db70:	b9 36 00 00 00       	mov    $0x36,%ecx
    db75:	48 89 c7             	mov    %rax,%rdi
    db78:	48 89 d6             	mov    %rdx,%rsi
    db7b:	f3 48 a5             	rep movsq %ds:(%rsi),%es:(%rdi)
    db7e:	c7 85 cc eb ff ff 16 	movl   $0xac952816,-0x1434(%rbp)
    db85:	28 95 ac 
    db88:	48 8b 05 09 1d 01 00 	mov    0x11d09(%rip),%rax        # 1f898 <g_626>
    db8f:	48 8d 95 a0 eb ff ff 	lea    -0x1460(%rbp),%rdx
    db96:	48 89 10             	mov    %rdx,(%rax)
    db99:	48 8b 85 a8 eb ff ff 	mov    -0x1458(%rbp),%rax
    dba0:	8b 00                	mov    (%rax),%eax
    dba2:	85 c0                	test   %eax,%eax
    dba4:	75 15                	jne    dbbb <func_2+0x1705>
    dba6:	48 8b 05 e3 1c 01 00 	mov    0x11ce3(%rip),%rax        # 1f890 <g_430>
    dbad:	48 8b 00             	mov    (%rax),%rax
    dbb0:	e9 d7 00 00 00       	jmpq   dc8c <func_2+0x17d6>
    dbb5:	90                   	nop
    dbb6:	eb 04                	jmp    dbbc <func_2+0x1706>
    dbb8:	90                   	nop
    dbb9:	eb 01                	jmp    dbbc <func_2+0x1706>
    dbbb:	90                   	nop
    dbbc:	48 83 bd f0 eb ff ff 	cmpq   $0x0,-0x1410(%rbp)
    dbc3:	00 
    dbc4:	0f 95 c0             	setne  %al
    dbc7:	0f b6 d0             	movzbl %al,%edx
    dbca:	0f b7 85 a4 eb ff ff 	movzwl -0x145c(%rbp),%eax
    dbd1:	89 d3                	mov    %edx,%ebx
    dbd3:	31 c3                	xor    %eax,%ebx
    dbd5:	48 8b 85 f8 eb ff ff 	mov    -0x1408(%rbp),%rax
    dbdc:	0f b6 00             	movzbl (%rax),%eax
    dbdf:	8d 50 01             	lea    0x1(%rax),%edx
    dbe2:	48 8b 85 f8 eb ff ff 	mov    -0x1408(%rbp),%rax
    dbe9:	88 10                	mov    %dl,(%rax)
    dbeb:	48 8b 85 f8 eb ff ff 	mov    -0x1408(%rbp),%rax
    dbf2:	0f b6 00             	movzbl (%rax),%eax
    dbf5:	0f b6 c0             	movzbl %al,%eax
    dbf8:	8b 15 1e e8 00 00    	mov    0xe81e(%rip),%edx        # 1c41c <g_1627+0xc>
    dbfe:	81 e2 ff ff 3f 00    	and    $0x3fffff,%edx
    dc04:	39 d0                	cmp    %edx,%eax
    dc06:	0f 95 c0             	setne  %al
    dc09:	0f b6 d0             	movzbl %al,%edx
    dc0c:	48 8b 85 a8 eb ff ff 	mov    -0x1458(%rbp),%rax
    dc13:	8b 00                	mov    (%rax),%eax
    dc15:	39 c2                	cmp    %eax,%edx
    dc17:	0f 9f c0             	setg   %al
    dc1a:	0f b6 d0             	movzbl %al,%edx
    dc1d:	8b 85 a0 eb ff ff    	mov    -0x1460(%rbp),%eax
    dc23:	0f be c0             	movsbl %al,%eax
    dc26:	89 d6                	mov    %edx,%esi
    dc28:	89 c7                	mov    %eax,%edi
    dc2a:	e8 bf c6 ff ff       	callq  a2ee <safe_lshift_func_int8_t_s_u>
    dc2f:	0f be c0             	movsbl %al,%eax
    dc32:	be ef 4a 0b e5       	mov    $0xe50b4aef,%esi
    dc37:	89 c7                	mov    %eax,%edi
    dc39:	e8 8e ca ff ff       	callq  a6cc <safe_mod_func_int32_t_s_s>
    dc3e:	83 f8 01             	cmp    $0x1,%eax
    dc41:	8b 85 a0 eb ff ff    	mov    -0x1460(%rbp),%eax
    dc47:	85 c0                	test   %eax,%eax
    dc49:	0f 9f c0             	setg   %al
    dc4c:	0f b6 d0             	movzbl %al,%edx
    dc4f:	48 8b 85 e8 ec ff ff 	mov    -0x1318(%rbp),%rax
    dc56:	48 8d 0d c3 30 01 00 	lea    0x130c3(%rip),%rcx        # 20d20 <g_729>
    dc5d:	48 39 c8             	cmp    %rcx,%rax
    dc60:	0f 94 c0             	sete   %al
    dc63:	0f b6 c0             	movzbl %al,%eax
    dc66:	89 d6                	mov    %edx,%esi
    dc68:	89 c7                	mov    %eax,%edi
    dc6a:	e8 eb ce ff ff       	callq  ab5a <safe_add_func_uint8_t_u_u>
    dc6f:	0f b6 c0             	movzbl %al,%eax
    dc72:	39 c3                	cmp    %eax,%ebx
    dc74:	48 8b 05 1d 1c 01 00 	mov    0x11c1d(%rip),%rax        # 1f898 <g_626>
    dc7b:	48 8d 95 a0 eb ff ff 	lea    -0x1460(%rbp),%rdx
    dc82:	48 89 10             	mov    %rdx,(%rax)
    dc85:	48 8b 85 08 ec ff ff 	mov    -0x13f8(%rbp),%rax
    dc8c:	48 8b 5d c8          	mov    -0x38(%rbp),%rbx
    dc90:	64 48 33 1c 25 28 00 	xor    %fs:0x28,%rbx
    dc97:	00 00 
    dc99:	74 05                	je     dca0 <func_2+0x17ea>
    dc9b:	e8 d0 c3 ff ff       	callq  a070 <__stack_chk_fail@plt>
    dca0:	48 81 c4 48 14 00 00 	add    $0x1448,%rsp
    dca7:	5b                   	pop    %rbx
    dca8:	41 5c                	pop    %r12
    dcaa:	41 5d                	pop    %r13
    dcac:	41 5e                	pop    %r14
    dcae:	41 5f                	pop    %r15
    dcb0:	5d                   	pop    %rbp
    dcb1:	c3                   	retq   

000000000000dcb2 <func_10>:
    dcb2:	f3 0f 1e fa          	endbr64 
    dcb6:	55                   	push   %rbp
    dcb7:	48 89 e5             	mov    %rsp,%rbp
    dcba:	53                   	push   %rbx
    dcbb:	48 81 ec c8 00 00 00 	sub    $0xc8,%rsp
    dcc2:	48 89 bd 38 ff ff ff 	mov    %rdi,-0xc8(%rbp)
    dcc9:	89 f0                	mov    %esi,%eax
    dccb:	89 95 30 ff ff ff    	mov    %edx,-0xd0(%rbp)
    dcd1:	88 85 34 ff ff ff    	mov    %al,-0xcc(%rbp)
    dcd7:	64 48 8b 04 25 28 00 	mov    %fs:0x28,%rax
    dcde:	00 00 
    dce0:	48 89 45 e8          	mov    %rax,-0x18(%rbp)
    dce4:	31 c0                	xor    %eax,%eax
    dce6:	c7 85 48 ff ff ff 00 	movl   $0x0,-0xb8(%rbp)
    dced:	00 00 00 
    dcf0:	48 c7 85 58 ff ff ff 	movq   $0x0,-0xa8(%rbp)
    dcf7:	00 00 00 00 
    dcfb:	48 8d 05 26 e3 00 00 	lea    0xe326(%rip),%rax        # 1c028 <g_29>
    dd02:	48 89 85 60 ff ff ff 	mov    %rax,-0xa0(%rbp)
    dd09:	c7 85 4c ff ff ff 08 	movl   $0x8,-0xb4(%rbp)
    dd10:	00 00 00 
    dd13:	48 8d 05 26 e5 00 00 	lea    0xe526(%rip),%rax        # 1c240 <g_276+0x1c0>
    dd1a:	48 89 45 a0          	mov    %rax,-0x60(%rbp)
    dd1e:	48 8d 05 1b e5 00 00 	lea    0xe51b(%rip),%rax        # 1c240 <g_276+0x1c0>
    dd25:	48 89 45 a8          	mov    %rax,-0x58(%rbp)
    dd29:	48 8d 05 10 e5 00 00 	lea    0xe510(%rip),%rax        # 1c240 <g_276+0x1c0>
    dd30:	48 89 45 b0          	mov    %rax,-0x50(%rbp)
    dd34:	48 8d 05 05 e5 00 00 	lea    0xe505(%rip),%rax        # 1c240 <g_276+0x1c0>
    dd3b:	48 89 45 b8          	mov    %rax,-0x48(%rbp)
    dd3f:	c7 85 40 ff ff ff fe 	movl   $0xdb773ffe,-0xc0(%rbp)
    dd46:	3f 77 db 
    dd49:	c7 45 c0 01 00 00 00 	movl   $0x1,-0x40(%rbp)
    dd50:	c7 45 c4 01 00 00 00 	movl   $0x1,-0x3c(%rbp)
    dd57:	c7 45 c8 7a 1c b4 4d 	movl   $0x4db41c7a,-0x38(%rbp)
    dd5e:	c7 45 cc 01 00 00 00 	movl   $0x1,-0x34(%rbp)
    dd65:	c7 45 d0 01 00 00 00 	movl   $0x1,-0x30(%rbp)
    dd6c:	c7 45 d4 7a 1c b4 4d 	movl   $0x4db41c7a,-0x2c(%rbp)
    dd73:	c7 45 d8 01 00 00 00 	movl   $0x1,-0x28(%rbp)
    dd7a:	c7 45 dc 01 00 00 00 	movl   $0x1,-0x24(%rbp)
    dd81:	48 8d 05 38 e5 00 00 	lea    0xe538(%rip),%rax        # 1c2c0 <g_278>
    dd88:	48 89 85 68 ff ff ff 	mov    %rax,-0x98(%rbp)
    dd8f:	48 c7 85 70 ff ff ff 	movq   $0x0,-0x90(%rbp)
    dd96:	00 00 00 00 
    dd9a:	48 8d 05 7f 20 01 00 	lea    0x1207f(%rip),%rax        # 1fe20 <g_1842>
    dda1:	48 89 85 78 ff ff ff 	mov    %rax,-0x88(%rbp)
    dda8:	c7 85 50 ff ff ff f3 	movl   $0xf956f3,-0xb0(%rbp)
    ddaf:	56 f9 00 
    ddb2:	c7 85 54 ff ff ff ff 	movl   $0xffffffff,-0xac(%rbp)
    ddb9:	ff ff ff 
    ddbc:	c7 85 44 ff ff ff 00 	movl   $0x0,-0xbc(%rbp)
    ddc3:	00 00 00 
    ddc6:	eb 1b                	jmp    dde3 <func_10+0x131>
    ddc8:	8b 85 44 ff ff ff    	mov    -0xbc(%rbp),%eax
    ddce:	48 98                	cltq   
    ddd0:	48 8d 15 64 e2 00 00 	lea    0xe264(%rip),%rdx        # 1c03b <g_190>
    ddd7:	48 89 54 c5 80       	mov    %rdx,-0x80(%rbp,%rax,8)
    dddc:	83 85 44 ff ff ff 01 	addl   $0x1,-0xbc(%rbp)
    dde3:	83 bd 44 ff ff ff 02 	cmpl   $0x2,-0xbc(%rbp)
    ddea:	7e dc                	jle    ddc8 <func_10+0x116>
    ddec:	8b 05 32 e2 00 00    	mov    0xe232(%rip),%eax        # 1c024 <g_9>
    ddf2:	89 c2                	mov    %eax,%edx
    ddf4:	48 8d 05 29 e2 00 00 	lea    0xe229(%rip),%rax        # 1c024 <g_9>
    ddfb:	48 39 85 58 ff ff ff 	cmp    %rax,-0xa8(%rbp)
    de02:	0f 94 c0             	sete   %al
    de05:	0f b6 c0             	movzbl %al,%eax
    de08:	89 d6                	mov    %edx,%esi
    de0a:	89 c7                	mov    %eax,%edi
    de0c:	e8 a7 d0 ff ff       	callq  aeb8 <safe_add_func_uint32_t_u_u>
    de11:	89 c6                	mov    %eax,%esi
    de13:	bf fd ff ff ff       	mov    $0xfffffffd,%edi
    de18:	e8 9b d0 ff ff       	callq  aeb8 <safe_add_func_uint32_t_u_u>
    de1d:	0f b6 c0             	movzbl %al,%eax
    de20:	be 02 00 00 00       	mov    $0x2,%esi
    de25:	89 c7                	mov    %eax,%edi
    de27:	e8 61 ce ff ff       	callq  ac8d <safe_rshift_func_uint8_t_u_s>
    de2c:	0f b6 d0             	movzbl %al,%edx
    de2f:	8b 05 ef e1 00 00    	mov    0xe1ef(%rip),%eax        # 1c024 <g_9>
    de35:	85 c0                	test   %eax,%eax
    de37:	0f 95 c0             	setne  %al
    de3a:	0f b6 c0             	movzbl %al,%eax
    de3d:	39 c2                	cmp    %eax,%edx
    de3f:	0f 9d c0             	setge  %al
    de42:	0f b6 c0             	movzbl %al,%eax
    de45:	89 c6                	mov    %eax,%esi
    de47:	bf 00 00 00 00       	mov    $0x0,%edi
    de4c:	e8 50 c4 ff ff       	callq  a2a1 <safe_lshift_func_int8_t_s_s>
    de51:	48 8b 95 60 ff ff ff 	mov    -0xa0(%rbp),%rdx
    de58:	8b 12                	mov    (%rdx),%edx
    de5a:	0f be c0             	movsbl %al,%eax
    de5d:	31 c2                	xor    %eax,%edx
    de5f:	48 8b 85 60 ff ff ff 	mov    -0xa0(%rbp),%rax
    de66:	89 10                	mov    %edx,(%rax)
    de68:	48 8b 85 60 ff ff ff 	mov    -0xa0(%rbp),%rax
    de6f:	8b 10                	mov    (%rax),%edx
    de71:	8b 85 48 ff ff ff    	mov    -0xb8(%rbp),%eax
    de77:	0f b6 c0             	movzbl %al,%eax
    de7a:	48 8b 1d 07 1a 01 00 	mov    0x11a07(%rip),%rbx        # 1f888 <g_335>
    de81:	89 d6                	mov    %edx,%esi
    de83:	89 c7                	mov    %eax,%edi
    de85:	e8 4d 01 00 00       	callq  dfd7 <func_15>
    de8a:	48 89 03             	mov    %rax,(%rbx)
    de8d:	48 8b 05 f4 19 01 00 	mov    0x119f4(%rip),%rax        # 1f888 <g_335>
    de94:	48 8d 95 40 ff ff ff 	lea    -0xc0(%rbp),%rdx
    de9b:	48 89 10             	mov    %rdx,(%rax)
    de9e:	8b 05 fc e5 00 00    	mov    0xe5fc(%rip),%eax        # 1c4a0 <g_1949>
    dea4:	89 c1                	mov    %eax,%ecx
    dea6:	48 83 bd 78 ff ff ff 	cmpq   $0x0,-0x88(%rbp)
    dead:	00 
    deae:	0f 95 c0             	setne  %al
    deb1:	0f b6 d0             	movzbl %al,%edx
    deb4:	48 8b 05 c5 19 01 00 	mov    0x119c5(%rip),%rax        # 1f880 <g_336>
    debb:	8b 00                	mov    (%rax),%eax
    debd:	31 d0                	xor    %edx,%eax
    debf:	89 85 40 ff ff ff    	mov    %eax,-0xc0(%rbp)
    dec5:	8b 85 40 ff ff ff    	mov    -0xc0(%rbp),%eax
    decb:	0f b6 c0             	movzbl %al,%eax
    dece:	89 ce                	mov    %ecx,%esi
    ded0:	89 c7                	mov    %eax,%edi
    ded2:	e8 b6 cd ff ff       	callq  ac8d <safe_rshift_func_uint8_t_u_s>
    ded7:	0f b6 c0             	movzbl %al,%eax
    deda:	89 85 4c ff ff ff    	mov    %eax,-0xb4(%rbp)
    dee0:	8b 85 4c ff ff ff    	mov    -0xb4(%rbp),%eax
    dee6:	48 98                	cltq   
    dee8:	48 c7 c6 ff ff ff ff 	mov    $0xffffffffffffffff,%rsi
    deef:	48 89 c7             	mov    %rax,%rdi
    def2:	e8 89 d1 ff ff       	callq  b080 <safe_mod_func_uint64_t_u_u>
    def7:	89 85 50 ff ff ff    	mov    %eax,-0xb0(%rbp)
    defd:	8b 85 50 ff ff ff    	mov    -0xb0(%rbp),%eax
    df03:	be f8 ff ff ff       	mov    $0xfffffff8,%esi
    df08:	89 c7                	mov    %eax,%edi
    df0a:	e8 a7 c6 ff ff       	callq  a5b6 <safe_add_func_int32_t_s_s>
    df0f:	8b 05 2f e4 00 00    	mov    0xe42f(%rip),%eax        # 1c344 <g_1091+0x4>
    df15:	c1 e8 1f             	shr    $0x1f,%eax
    df18:	0f b6 c0             	movzbl %al,%eax
    df1b:	be 01 00 00 00       	mov    $0x1,%esi
    df20:	89 c7                	mov    %eax,%edi
    df22:	e8 21 cf ff ff       	callq  ae48 <safe_rshift_func_uint16_t_u_s>
    df27:	0f b6 c0             	movzbl %al,%eax
    df2a:	be 04 00 00 00       	mov    $0x4,%esi
    df2f:	89 c7                	mov    %eax,%edi
    df31:	e8 57 cd ff ff       	callq  ac8d <safe_rshift_func_uint8_t_u_s>
    df36:	0f b6 d0             	movzbl %al,%edx
    df39:	48 8b 05 50 1b 01 00 	mov    0x11b50(%rip),%rax        # 1fa90 <g_1042>
    df40:	0f b7 08             	movzwl (%rax),%ecx
    df43:	48 8b 85 38 ff ff ff 	mov    -0xc8(%rbp),%rax
    df4a:	89 c6                	mov    %eax,%esi
    df4c:	48 8b 05 3d 1b 01 00 	mov    0x11b3d(%rip),%rax        # 1fa90 <g_1042>
    df53:	31 f1                	xor    %esi,%ecx
    df55:	66 89 08             	mov    %cx,(%rax)
    df58:	0f b7 00             	movzwl (%rax),%eax
    df5b:	66 85 c0             	test   %ax,%ax
    df5e:	75 22                	jne    df82 <func_10+0x2d0>
    df60:	48 8b 85 38 ff ff ff 	mov    -0xc8(%rbp),%rax
    df67:	89 c1                	mov    %eax,%ecx
    df69:	48 8b 85 68 ff ff ff 	mov    -0x98(%rbp),%rax
    df70:	66 89 08             	mov    %cx,(%rax)
    df73:	48 8b 85 68 ff ff ff 	mov    -0x98(%rbp),%rax
    df7a:	0f b7 00             	movzwl (%rax),%eax
    df7d:	66 85 c0             	test   %ax,%ax
    df80:	74 07                	je     df89 <func_10+0x2d7>
    df82:	b9 01 00 00 00       	mov    $0x1,%ecx
    df87:	eb 05                	jmp    df8e <func_10+0x2dc>
    df89:	b9 00 00 00 00       	mov    $0x0,%ecx
    df8e:	48 8b 05 73 1b 01 00 	mov    0x11b73(%rip),%rax        # 1fb08 <g_1337>
    df95:	48 8b 00             	mov    (%rax),%rax
    df98:	48 8b 00             	mov    (%rax),%rax
    df9b:	0f b6 00             	movzbl (%rax),%eax
    df9e:	0f be c0             	movsbl %al,%eax
    dfa1:	09 c8                	or     %ecx,%eax
    dfa3:	89 d6                	mov    %edx,%esi
    dfa5:	89 c7                	mov    %eax,%edi
    dfa7:	e8 0c cf ff ff       	callq  aeb8 <safe_add_func_uint32_t_u_u>
    dfac:	89 85 54 ff ff ff    	mov    %eax,-0xac(%rbp)
    dfb2:	0f be 85 34 ff ff ff 	movsbl -0xcc(%rbp),%eax
    dfb9:	48 8b 5d e8          	mov    -0x18(%rbp),%rbx
    dfbd:	64 48 33 1c 25 28 00 	xor    %fs:0x28,%rbx
    dfc4:	00 00 
    dfc6:	74 05                	je     dfcd <func_10+0x31b>
    dfc8:	e8 a3 c0 ff ff       	callq  a070 <__stack_chk_fail@plt>
    dfcd:	48 81 c4 c8 00 00 00 	add    $0xc8,%rsp
    dfd4:	5b                   	pop    %rbx
    dfd5:	5d                   	pop    %rbp
    dfd6:	c3                   	retq   

000000000000dfd7 <func_15>:
    dfd7:	f3 0f 1e fa          	endbr64 
    dfdb:	55                   	push   %rbp
    dfdc:	48 89 e5             	mov    %rsp,%rbp
    dfdf:	41 57                	push   %r15
    dfe1:	41 56                	push   %r14
    dfe3:	41 55                	push   %r13
    dfe5:	41 54                	push   %r12
    dfe7:	53                   	push   %rbx
    dfe8:	48 81 ec 00 10 00 00 	sub    $0x1000,%rsp
    dfef:	48 83 0c 24 00       	orq    $0x0,(%rsp)
    dff4:	48 83 ec 18          	sub    $0x18,%rsp
    dff8:	89 f8                	mov    %edi,%eax
    dffa:	89 b5 c8 ef ff ff    	mov    %esi,-0x1038(%rbp)
    e000:	88 85 cc ef ff ff    	mov    %al,-0x1034(%rbp)
    e006:	64 48 8b 04 25 28 00 	mov    %fs:0x28,%rax
    e00d:	00 00 
    e00f:	48 89 45 c8          	mov    %rax,-0x38(%rbp)
    e013:	31 c0                	xor    %eax,%eax
    e015:	c6 85 dc ef ff ff bd 	movb   $0xbd,-0x1024(%rbp)
    e01c:	48 8d 05 01 e0 00 00 	lea    0xe001(%rip),%rax        # 1c024 <g_9>
    e023:	48 89 85 48 f0 ff ff 	mov    %rax,-0xfb8(%rbp)
    e02a:	48 8d 05 1f 1a 01 00 	lea    0x11a1f(%rip),%rax        # 1fa50 <g_746>
    e031:	48 89 85 80 f1 ff ff 	mov    %rax,-0xe80(%rbp)
    e038:	48 8d 05 11 1a 01 00 	lea    0x11a11(%rip),%rax        # 1fa50 <g_746>
    e03f:	48 89 85 88 f1 ff ff 	mov    %rax,-0xe78(%rbp)
    e046:	48 8d 05 03 1a 01 00 	lea    0x11a03(%rip),%rax        # 1fa50 <g_746>
    e04d:	48 89 85 90 f1 ff ff 	mov    %rax,-0xe70(%rbp)
    e054:	48 8d 05 f5 19 01 00 	lea    0x119f5(%rip),%rax        # 1fa50 <g_746>
    e05b:	48 89 85 98 f1 ff ff 	mov    %rax,-0xe68(%rbp)
    e062:	48 8d 05 e7 19 01 00 	lea    0x119e7(%rip),%rax        # 1fa50 <g_746>
    e069:	48 89 85 a0 f1 ff ff 	mov    %rax,-0xe60(%rbp)
    e070:	48 8d 85 80 f1 ff ff 	lea    -0xe80(%rbp),%rax
    e077:	48 83 c0 08          	add    $0x8,%rax
    e07b:	48 89 85 50 f0 ff ff 	mov    %rax,-0xfb0(%rbp)
    e082:	66 c7 85 e2 ef ff ff 	movw   $0xffff,-0x101e(%rbp)
    e089:	ff ff 
    e08b:	48 8d 05 9e 2c 01 00 	lea    0x12c9e(%rip),%rax        # 20d30 <g_1725>
    e092:	48 89 85 58 f0 ff ff 	mov    %rax,-0xfa8(%rbp)
    e099:	66 c7 85 e4 ef ff ff 	movw   $0xf3f6,-0x101c(%rbp)
    e0a0:	f6 f3 
    e0a2:	48 8d 05 af 19 01 00 	lea    0x119af(%rip),%rax        # 1fa58 <g_745>
    e0a9:	48 89 85 60 f0 ff ff 	mov    %rax,-0xfa0(%rbp)
    e0b0:	c6 85 dd ef ff ff 00 	movb   $0x0,-0x1023(%rbp)
    e0b7:	48 c7 85 68 f0 ff ff 	movq   $0x0,-0xf98(%rbp)
    e0be:	00 00 00 00 
    e0c2:	48 8d 05 77 e1 00 00 	lea    0xe177(%rip),%rax        # 1c240 <g_276+0x1c0>
    e0c9:	48 89 85 10 f0 ff ff 	mov    %rax,-0xff0(%rbp)
    e0d0:	48 8d 85 10 f0 ff ff 	lea    -0xff0(%rbp),%rax
    e0d7:	48 89 85 70 f0 ff ff 	mov    %rax,-0xf90(%rbp)
    e0de:	48 8d 85 c0 f4 ff ff 	lea    -0xb40(%rbp),%rax
    e0e5:	48 8d 15 14 92 00 00 	lea    0x9214(%rip),%rdx        # 17300 <g_3500+0x130>
    e0ec:	b9 32 00 00 00       	mov    $0x32,%ecx
    e0f1:	48 89 c7             	mov    %rax,%rdi
    e0f4:	48 89 d6             	mov    %rdx,%rsi
    e0f7:	f3 48 a5             	rep movsq %ds:(%rsi),%es:(%rdi)
    e0fa:	c6 85 de ef ff ff a4 	movb   $0xa4,-0x1022(%rbp)
    e101:	48 8d 05 08 e3 00 00 	lea    0xe308(%rip),%rax        # 1c410 <g_1627>
    e108:	48 89 85 40 f3 ff ff 	mov    %rax,-0xcc0(%rbp)
    e10f:	48 8d 05 fa e2 00 00 	lea    0xe2fa(%rip),%rax        # 1c410 <g_1627>
    e116:	48 89 85 48 f3 ff ff 	mov    %rax,-0xcb8(%rbp)
    e11d:	48 8d 05 ec e2 00 00 	lea    0xe2ec(%rip),%rax        # 1c410 <g_1627>
    e124:	48 89 85 50 f3 ff ff 	mov    %rax,-0xcb0(%rbp)
    e12b:	48 8d 05 de e2 00 00 	lea    0xe2de(%rip),%rax        # 1c410 <g_1627>
    e132:	48 89 85 58 f3 ff ff 	mov    %rax,-0xca8(%rbp)
    e139:	48 8d 05 d0 e2 00 00 	lea    0xe2d0(%rip),%rax        # 1c410 <g_1627>
    e140:	48 89 85 60 f3 ff ff 	mov    %rax,-0xca0(%rbp)
    e147:	48 8d 05 c2 e2 00 00 	lea    0xe2c2(%rip),%rax        # 1c410 <g_1627>
    e14e:	48 89 85 68 f3 ff ff 	mov    %rax,-0xc98(%rbp)
    e155:	48 8d 05 b4 e2 00 00 	lea    0xe2b4(%rip),%rax        # 1c410 <g_1627>
    e15c:	48 89 85 70 f3 ff ff 	mov    %rax,-0xc90(%rbp)
    e163:	48 8d 05 a6 e2 00 00 	lea    0xe2a6(%rip),%rax        # 1c410 <g_1627>
    e16a:	48 89 85 78 f3 ff ff 	mov    %rax,-0xc88(%rbp)
    e171:	48 8d 05 98 e2 00 00 	lea    0xe298(%rip),%rax        # 1c410 <g_1627>
    e178:	48 89 85 80 f3 ff ff 	mov    %rax,-0xc80(%rbp)
    e17f:	48 8d 05 8a e2 00 00 	lea    0xe28a(%rip),%rax        # 1c410 <g_1627>
    e186:	48 89 85 88 f3 ff ff 	mov    %rax,-0xc78(%rbp)
    e18d:	48 8d 05 7c e2 00 00 	lea    0xe27c(%rip),%rax        # 1c410 <g_1627>
    e194:	48 89 85 90 f3 ff ff 	mov    %rax,-0xc70(%rbp)
    e19b:	48 8d 05 6e e2 00 00 	lea    0xe26e(%rip),%rax        # 1c410 <g_1627>
    e1a2:	48 89 85 98 f3 ff ff 	mov    %rax,-0xc68(%rbp)
    e1a9:	48 8d 05 60 e2 00 00 	lea    0xe260(%rip),%rax        # 1c410 <g_1627>
    e1b0:	48 89 85 a0 f3 ff ff 	mov    %rax,-0xc60(%rbp)
    e1b7:	48 8d 05 52 e2 00 00 	lea    0xe252(%rip),%rax        # 1c410 <g_1627>
    e1be:	48 89 85 a8 f3 ff ff 	mov    %rax,-0xc58(%rbp)
    e1c5:	48 8d 05 44 e2 00 00 	lea    0xe244(%rip),%rax        # 1c410 <g_1627>
    e1cc:	48 89 85 b0 f3 ff ff 	mov    %rax,-0xc50(%rbp)
    e1d3:	48 8d 05 36 e2 00 00 	lea    0xe236(%rip),%rax        # 1c410 <g_1627>
    e1da:	48 89 85 b8 f3 ff ff 	mov    %rax,-0xc48(%rbp)
    e1e1:	48 8d 05 28 e2 00 00 	lea    0xe228(%rip),%rax        # 1c410 <g_1627>
    e1e8:	48 89 85 c0 f3 ff ff 	mov    %rax,-0xc40(%rbp)
    e1ef:	48 8d 05 1a e2 00 00 	lea    0xe21a(%rip),%rax        # 1c410 <g_1627>
    e1f6:	48 89 85 c8 f3 ff ff 	mov    %rax,-0xc38(%rbp)
    e1fd:	48 8d 05 0c e2 00 00 	lea    0xe20c(%rip),%rax        # 1c410 <g_1627>
    e204:	48 89 85 d0 f3 ff ff 	mov    %rax,-0xc30(%rbp)
    e20b:	48 8d 05 fe e1 00 00 	lea    0xe1fe(%rip),%rax        # 1c410 <g_1627>
    e212:	48 89 85 d8 f3 ff ff 	mov    %rax,-0xc28(%rbp)
    e219:	48 8d 05 f0 e1 00 00 	lea    0xe1f0(%rip),%rax        # 1c410 <g_1627>
    e220:	48 89 85 e0 f3 ff ff 	mov    %rax,-0xc20(%rbp)
    e227:	48 8d 05 e2 e1 00 00 	lea    0xe1e2(%rip),%rax        # 1c410 <g_1627>
    e22e:	48 89 85 e8 f3 ff ff 	mov    %rax,-0xc18(%rbp)
    e235:	48 8d 05 d4 e1 00 00 	lea    0xe1d4(%rip),%rax        # 1c410 <g_1627>
    e23c:	48 89 85 f0 f3 ff ff 	mov    %rax,-0xc10(%rbp)
    e243:	48 8d 05 c6 e1 00 00 	lea    0xe1c6(%rip),%rax        # 1c410 <g_1627>
    e24a:	48 89 85 f8 f3 ff ff 	mov    %rax,-0xc08(%rbp)
    e251:	66 c7 85 e0 f2 ff ff 	movw   $0xc657,-0xd20(%rbp)
    e258:	57 c6 
    e25a:	66 c7 85 e2 f2 ff ff 	movw   $0x6,-0xd1e(%rbp)
    e261:	06 00 
    e263:	66 c7 85 e4 f2 ff ff 	movw   $0x1fd9,-0xd1c(%rbp)
    e26a:	d9 1f 
    e26c:	66 c7 85 e6 f2 ff ff 	movw   $0x8fec,-0xd1a(%rbp)
    e273:	ec 8f 
    e275:	66 c7 85 e8 f2 ff ff 	movw   $0x8fec,-0xd18(%rbp)
    e27c:	ec 8f 
    e27e:	66 c7 85 ea f2 ff ff 	movw   $0x1fd9,-0xd16(%rbp)
    e285:	d9 1f 
    e287:	66 c7 85 ec f2 ff ff 	movw   $0x6,-0xd14(%rbp)
    e28e:	06 00 
    e290:	66 c7 85 ee f2 ff ff 	movw   $0xc657,-0xd12(%rbp)
    e297:	57 c6 
    e299:	66 c7 85 f0 f2 ff ff 	movw   $0xc657,-0xd10(%rbp)
    e2a0:	57 c6 
    e2a2:	66 c7 85 f2 f2 ff ff 	movw   $0x0,-0xd0e(%rbp)
    e2a9:	00 00 
    e2ab:	66 c7 85 f4 f2 ff ff 	movw   $0xef6e,-0xd0c(%rbp)
    e2b2:	6e ef 
    e2b4:	66 c7 85 f6 f2 ff ff 	movw   $0x0,-0xd0a(%rbp)
    e2bb:	00 00 
    e2bd:	66 c7 85 f8 f2 ff ff 	movw   $0x890,-0xd08(%rbp)
    e2c4:	90 08 
    e2c6:	66 c7 85 fa f2 ff ff 	movw   $0x0,-0xd06(%rbp)
    e2cd:	00 00 
    e2cf:	66 c7 85 fc f2 ff ff 	movw   $0xef6e,-0xd04(%rbp)
    e2d6:	6e ef 
    e2d8:	66 c7 85 fe f2 ff ff 	movw   $0x0,-0xd02(%rbp)
    e2df:	00 00 
    e2e1:	66 c7 85 00 f3 ff ff 	movw   $0x890,-0xd00(%rbp)
    e2e8:	90 08 
    e2ea:	66 c7 85 02 f3 ff ff 	movw   $0x0,-0xcfe(%rbp)
    e2f1:	00 00 
    e2f3:	66 c7 85 04 f3 ff ff 	movw   $0xc657,-0xcfc(%rbp)
    e2fa:	57 c6 
    e2fc:	66 c7 85 06 f3 ff ff 	movw   $0x8fec,-0xcfa(%rbp)
    e303:	ec 8f 
    e305:	66 c7 85 08 f3 ff ff 	movw   $0x6,-0xcf8(%rbp)
    e30c:	06 00 
    e30e:	66 c7 85 0a f3 ff ff 	movw   $0x6,-0xcf6(%rbp)
    e315:	06 00 
    e317:	66 c7 85 0c f3 ff ff 	movw   $0x8fec,-0xcf4(%rbp)
    e31e:	ec 8f 
    e320:	66 c7 85 0e f3 ff ff 	movw   $0xc657,-0xcf2(%rbp)
    e327:	57 c6 
    e329:	66 c7 85 10 f3 ff ff 	movw   $0x1fd9,-0xcf0(%rbp)
    e330:	d9 1f 
    e332:	66 c7 85 12 f3 ff ff 	movw   $0x1fd9,-0xcee(%rbp)
    e339:	d9 1f 
    e33b:	66 c7 85 14 f3 ff ff 	movw   $0xc657,-0xcec(%rbp)
    e342:	57 c6 
    e344:	66 c7 85 16 f3 ff ff 	movw   $0xab6d,-0xcea(%rbp)
    e34b:	6d ab 
    e34d:	66 c7 85 18 f3 ff ff 	movw   $0x890,-0xce8(%rbp)
    e354:	90 08 
    e356:	66 c7 85 1a f3 ff ff 	movw   $0x24dc,-0xce6(%rbp)
    e35d:	dc 24 
    e35f:	66 c7 85 1c f3 ff ff 	movw   $0x890,-0xce4(%rbp)
    e366:	90 08 
    e368:	66 c7 85 1e f3 ff ff 	movw   $0xab6d,-0xce2(%rbp)
    e36f:	6d ab 
    e371:	66 c7 85 20 f3 ff ff 	movw   $0x890,-0xce0(%rbp)
    e378:	90 08 
    e37a:	66 c7 85 22 f3 ff ff 	movw   $0x24dc,-0xcde(%rbp)
    e381:	dc 24 
    e383:	66 c7 85 24 f3 ff ff 	movw   $0x890,-0xcdc(%rbp)
    e38a:	90 08 
    e38c:	66 c7 85 26 f3 ff ff 	movw   $0xab6d,-0xcda(%rbp)
    e393:	6d ab 
    e395:	66 c7 85 28 f3 ff ff 	movw   $0x8fec,-0xcd8(%rbp)
    e39c:	ec 8f 
    e39e:	66 c7 85 2a f3 ff ff 	movw   $0x6,-0xcd6(%rbp)
    e3a5:	06 00 
    e3a7:	66 c7 85 2c f3 ff ff 	movw   $0x6,-0xcd4(%rbp)
    e3ae:	06 00 
    e3b0:	66 c7 85 2e f3 ff ff 	movw   $0x8fec,-0xcd2(%rbp)
    e3b7:	ec 8f 
    e3b9:	66 c7 85 30 f3 ff ff 	movw   $0xc657,-0xcd0(%rbp)
    e3c0:	57 c6 
    e3c2:	66 c7 85 32 f3 ff ff 	movw   $0x1fd9,-0xcce(%rbp)
    e3c9:	d9 1f 
    e3cb:	66 c7 85 34 f3 ff ff 	movw   $0x1fd9,-0xccc(%rbp)
    e3d2:	d9 1f 
    e3d4:	66 c7 85 36 f3 ff ff 	movw   $0xc657,-0xcca(%rbp)
    e3db:	57 c6 
    e3dd:	66 c7 85 38 f3 ff ff 	movw   $0x8fec,-0xcc8(%rbp)
    e3e4:	ec 8f 
    e3e6:	48 c7 85 18 f0 ff ff 	movq   $0x0,-0xfe8(%rbp)
    e3ed:	00 00 00 00 
    e3f1:	48 8d 85 18 f0 ff ff 	lea    -0xfe8(%rbp),%rax
    e3f8:	48 89 85 20 f0 ff ff 	mov    %rax,-0xfe0(%rbp)
    e3ff:	48 8d 85 20 f0 ff ff 	lea    -0xfe0(%rbp),%rax
    e406:	48 89 85 78 f0 ff ff 	mov    %rax,-0xf88(%rbp)
    e40d:	c7 85 40 f1 ff ff ff 	movl   $0xffffffff,-0xec0(%rbp)
    e414:	ff ff ff 
    e417:	c7 85 44 f1 ff ff ff 	movl   $0xffffffff,-0xebc(%rbp)
    e41e:	ff ff ff 
    e421:	c7 85 48 f1 ff ff ff 	movl   $0xffffffff,-0xeb8(%rbp)
    e428:	ff ff ff 
    e42b:	c7 85 4c f1 ff ff ff 	movl   $0xffffffff,-0xeb4(%rbp)
    e432:	ff ff ff 
    e435:	48 8d 05 5c 16 01 00 	lea    0x1165c(%rip),%rax        # 1fa98 <g_1041>
    e43c:	48 89 85 28 f0 ff ff 	mov    %rax,-0xfd8(%rbp)
    e443:	48 8d 85 28 f0 ff ff 	lea    -0xfd8(%rbp),%rax
    e44a:	48 89 85 80 f0 ff ff 	mov    %rax,-0xf80(%rbp)
    e451:	48 c7 85 88 f0 ff ff 	movq   $0x0,-0xf78(%rbp)
    e458:	00 00 00 00 
    e45c:	48 c7 85 90 f0 ff ff 	movq   $0x0,-0xf70(%rbp)
    e463:	00 00 00 00 
    e467:	48 8d 05 d2 dd 00 00 	lea    0xddd2(%rip),%rax        # 1c240 <g_276+0x1c0>
    e46e:	48 89 85 98 f0 ff ff 	mov    %rax,-0xf68(%rbp)
    e475:	48 b8 0e 8f ef a9 c8 	movabs $0x7ce0dfc8a9ef8f0e,%rax
    e47c:	df e0 7c 
    e47f:	48 89 85 b0 f1 ff ff 	mov    %rax,-0xe50(%rbp)
    e486:	48 89 85 b8 f1 ff ff 	mov    %rax,-0xe48(%rbp)
    e48d:	48 89 85 c0 f1 ff ff 	mov    %rax,-0xe40(%rbp)
    e494:	48 89 85 c8 f1 ff ff 	mov    %rax,-0xe38(%rbp)
    e49b:	48 89 85 d0 f1 ff ff 	mov    %rax,-0xe30(%rbp)
    e4a2:	48 89 85 d8 f1 ff ff 	mov    %rax,-0xe28(%rbp)
    e4a9:	48 8d 05 e8 13 01 00 	lea    0x113e8(%rip),%rax        # 1f898 <g_626>
    e4b0:	48 89 85 a0 f0 ff ff 	mov    %rax,-0xf60(%rbp)
    e4b7:	c7 85 f8 ef ff ff 00 	movl   $0x0,-0x1008(%rbp)
    e4be:	00 00 00 
    e4c1:	eb 1a                	jmp    e4dd <func_15+0x506>
    e4c3:	8b 85 f8 ef ff ff    	mov    -0x1008(%rbp),%eax
    e4c9:	48 98                	cltq   
    e4cb:	c7 84 85 30 f1 ff ff 	movl   $0xe7ccce1c,-0xed0(%rbp,%rax,4)
    e4d2:	1c ce cc e7 
    e4d6:	83 85 f8 ef ff ff 01 	addl   $0x1,-0x1008(%rbp)
    e4dd:	83 bd f8 ef ff ff 00 	cmpl   $0x0,-0x1008(%rbp)
    e4e4:	7e dd                	jle    e4c3 <func_15+0x4ec>
    e4e6:	c7 85 f8 ef ff ff 00 	movl   $0x0,-0x1008(%rbp)
    e4ed:	00 00 00 
    e4f0:	eb 51                	jmp    e543 <func_15+0x56c>
    e4f2:	c7 85 f0 ef ff ff 00 	movl   $0x0,-0x1010(%rbp)
    e4f9:	00 00 00 
    e4fc:	eb 35                	jmp    e533 <func_15+0x55c>
    e4fe:	8b 85 f0 ef ff ff    	mov    -0x1010(%rbp),%eax
    e504:	48 63 c8             	movslq %eax,%rcx
    e507:	8b 85 f8 ef ff ff    	mov    -0x1008(%rbp),%eax
    e50d:	48 63 d0             	movslq %eax,%rdx
    e510:	48 89 d0             	mov    %rdx,%rax
    e513:	48 01 c0             	add    %rax,%rax
    e516:	48 01 d0             	add    %rdx,%rax
    e519:	48 8d 5d d0          	lea    -0x30(%rbp),%rbx
    e51d:	48 01 d8             	add    %rbx,%rax
    e520:	48 01 c8             	add    %rcx,%rax
    e523:	48 2d a3 0e 00 00    	sub    $0xea3,%rax
    e529:	c6 00 01             	movb   $0x1,(%rax)
    e52c:	83 85 f0 ef ff ff 01 	addl   $0x1,-0x1010(%rbp)
    e533:	83 bd f0 ef ff ff 02 	cmpl   $0x2,-0x1010(%rbp)
    e53a:	7e c2                	jle    e4fe <func_15+0x527>
    e53c:	83 85 f8 ef ff ff 01 	addl   $0x1,-0x1008(%rbp)
    e543:	83 bd f8 ef ff ff 00 	cmpl   $0x0,-0x1008(%rbp)
    e54a:	7e a6                	jle    e4f2 <func_15+0x51b>
    e54c:	48 0f be 95 dc ef ff 	movsbq -0x1024(%rbp),%rdx
    e553:	ff 
    e554:	0f b6 85 cc ef ff ff 	movzbl -0x1034(%rbp),%eax
    e55b:	48 89 d6             	mov    %rdx,%rsi
    e55e:	48 89 c7             	mov    %rax,%rdi
    e561:	e8 49 cb ff ff       	callq  b0af <safe_div_func_uint64_t_u_u>
    e566:	89 85 30 f1 ff ff    	mov    %eax,-0xed0(%rbp)
    e56c:	8b 05 ba dd 00 00    	mov    0xddba(%rip),%eax        # 1c32c <g_820+0xc>
    e572:	25 ff ff 3f 00       	and    $0x3fffff,%eax
    e577:	0f be d8             	movsbl %al,%ebx
    e57a:	48 8b 85 48 f0 ff ff 	mov    -0xfb8(%rbp),%rax
    e581:	8b 00                	mov    (%rax),%eax
    e583:	44 0f bf e0          	movswl %ax,%r12d
    e587:	0f b7 85 e2 ef ff ff 	movzwl -0x101e(%rbp),%eax
    e58e:	0f b6 d0             	movzbl %al,%edx
    e591:	48 8b 05 b8 14 01 00 	mov    0x114b8(%rip),%rax        # 1fa50 <g_746>
    e598:	48 89 05 61 18 01 00 	mov    %rax,0x11861(%rip)        # 1fe00 <g_1721>
    e59f:	0f b6 85 cc ef ff ff 	movzbl -0x1034(%rbp),%eax
    e5a6:	89 d6                	mov    %edx,%esi
    e5a8:	89 c7                	mov    %eax,%edi
    e5aa:	e8 c9 c5 ff ff       	callq  ab78 <safe_sub_func_uint8_t_u_u>
    e5af:	0f b7 05 8a dd 00 00 	movzwl 0xdd8a(%rip),%eax        # 1c340 <g_1091>
    e5b6:	c1 e0 04             	shl    $0x4,%eax
    e5b9:	66 c1 f8 04          	sar    $0x4,%ax
    e5bd:	48 0f bf c0          	movswq %ax,%rax
    e5c1:	48 ba 95 13 8f 08 f9 	movabs $0x974508f9088f1395,%rdx
    e5c8:	08 45 97 
    e5cb:	48 39 d0             	cmp    %rdx,%rax
    e5ce:	0f 96 c0             	setbe  %al
    e5d1:	0f b6 c0             	movzbl %al,%eax
    e5d4:	44 89 e6             	mov    %r12d,%esi
    e5d7:	89 c7                	mov    %eax,%edi
    e5d9:	e8 f5 bd ff ff       	callq  a3d3 <safe_sub_func_int16_t_s_s>
    e5de:	0f be c0             	movsbl %al,%eax
    e5e1:	89 de                	mov    %ebx,%esi
    e5e3:	89 c7                	mov    %eax,%edi
    e5e5:	e8 80 bc ff ff       	callq  a26a <safe_div_func_int8_t_s_s>
    e5ea:	66 0f be d0          	movsbw %al,%dx
    e5ee:	0f b7 05 2b dd 00 00 	movzwl 0xdd2b(%rip),%eax        # 1c320 <g_820>
    e5f5:	c1 e0 04             	shl    $0x4,%eax
    e5f8:	66 c1 f8 04          	sar    $0x4,%ax
    e5fc:	09 c2                	or     %eax,%edx
    e5fe:	48 8b 85 48 f0 ff ff 	mov    -0xfb8(%rbp),%rax
    e605:	8b 00                	mov    (%rax),%eax
    e607:	31 d0                	xor    %edx,%eax
    e609:	89 c2                	mov    %eax,%edx
    e60b:	48 8b 85 58 f0 ff ff 	mov    -0xfa8(%rbp),%rax
    e612:	66 89 10             	mov    %dx,(%rax)
    e615:	48 8b 85 58 f0 ff ff 	mov    -0xfa8(%rbp),%rax
    e61c:	0f b7 00             	movzwl (%rax),%eax
    e61f:	0f b7 d8             	movzwl %ax,%ebx
    e622:	48 8b 85 48 f0 ff ff 	mov    -0xfb8(%rbp),%rax
    e629:	48 89 c7             	mov    %rax,%rdi
    e62c:	e8 5e 46 00 00       	callq  12c8f <func_38>
    e631:	0f b7 c0             	movzwl %ax,%eax
    e634:	39 85 c8 ef ff ff    	cmp    %eax,-0x1038(%rbp)
    e63a:	0f 97 c0             	seta   %al
    e63d:	0f b6 c0             	movzbl %al,%eax
    e640:	48 89 c7             	mov    %rax,%rdi
    e643:	e8 c5 07 00 00       	callq  ee0d <func_36>
    e648:	0f b7 c0             	movzwl %ax,%eax
    e64b:	89 de                	mov    %ebx,%esi
    e64d:	89 c7                	mov    %eax,%edi
    e64f:	e8 3a c7 ff ff       	callq  ad8e <safe_div_func_uint16_t_u_u>
    e654:	66 85 c0             	test   %ax,%ax
    e657:	0f 84 35 02 00 00    	je     e892 <func_15+0x8bb>
    e65d:	48 8d 85 30 f8 ff ff 	lea    -0x7d0(%rbp),%rax
    e664:	48 8d 15 35 8e 00 00 	lea    0x8e35(%rip),%rdx        # 174a0 <g_3500+0x2d0>
    e66b:	b9 f3 00 00 00       	mov    $0xf3,%ecx
    e670:	48 89 c7             	mov    %rax,%rdi
    e673:	48 89 d6             	mov    %rdx,%rsi
    e676:	f3 48 a5             	rep movsq %ds:(%rsi),%es:(%rdi)
    e679:	48 8d 85 30 f1 ff ff 	lea    -0xed0(%rbp),%rax
    e680:	48 89 85 f0 f0 ff ff 	mov    %rax,-0xf10(%rbp)
    e687:	48 8d 05 c2 13 01 00 	lea    0x113c2(%rip),%rax        # 1fa50 <g_746>
    e68e:	48 89 85 f8 f0 ff ff 	mov    %rax,-0xf08(%rbp)
    e695:	48 8b 85 58 ff ff ff 	mov    -0xa8(%rbp),%rax
    e69c:	89 c2                	mov    %eax,%edx
    e69e:	48 8b 85 f0 f0 ff ff 	mov    -0xf10(%rbp),%rax
    e6a5:	89 10                	mov    %edx,(%rax)
    e6a7:	c7 05 63 dd 00 00 14 	movl   $0x14,0xdd63(%rip)        # 1c414 <g_1627+0x4>
    e6ae:	00 00 00 
    e6b1:	90                   	nop
    e6b2:	8b 05 5c dd 00 00    	mov    0xdd5c(%rip),%eax        # 1c414 <g_1627+0x4>
    e6b8:	83 f8 14             	cmp    $0x14,%eax
    e6bb:	0f 84 1c 07 00 00    	je     eddd <func_15+0xe06>
    e6c1:	c6 85 e1 ef ff ff 1c 	movb   $0x1c,-0x101f(%rbp)
    e6c8:	48 8d 05 75 dc 00 00 	lea    0xdc75(%rip),%rax        # 1c344 <g_1091+0x4>
    e6cf:	48 89 85 00 f1 ff ff 	mov    %rax,-0xf00(%rbp)
    e6d6:	c7 05 44 dc 00 00 00 	movl   $0x0,0xdc44(%rip)        # 1c324 <g_820+0x4>
    e6dd:	00 00 00 
    e6e0:	90                   	nop
    e6e1:	8b 05 3d dc 00 00    	mov    0xdc3d(%rip),%eax        # 1c324 <g_820+0x4>
    e6e7:	83 f8 02             	cmp    $0x2,%eax
    e6ea:	0f 8e 88 01 00 00    	jle    e878 <func_15+0x8a1>
    e6f0:	48 8d 05 49 db 00 00 	lea    0xdb49(%rip),%rax        # 1c240 <g_276+0x1c0>
    e6f7:	48 89 85 08 f1 ff ff 	mov    %rax,-0xef8(%rbp)
    e6fe:	48 8d 05 3b 10 01 00 	lea    0x1103b(%rip),%rax        # 1f740 <g_305+0x220>
    e705:	48 89 85 38 f0 ff ff 	mov    %rax,-0xfc8(%rbp)
    e70c:	48 8d 85 38 f0 ff ff 	lea    -0xfc8(%rbp),%rax
    e713:	48 89 85 40 f0 ff ff 	mov    %rax,-0xfc0(%rbp)
    e71a:	48 8d 85 40 f0 ff ff 	lea    -0xfc0(%rbp),%rax
    e721:	48 89 85 10 f1 ff ff 	mov    %rax,-0xef0(%rbp)
    e728:	48 8d 05 29 13 01 00 	lea    0x11329(%rip),%rax        # 1fa58 <g_745>
    e72f:	48 89 85 18 f1 ff ff 	mov    %rax,-0xee8(%rbp)
    e736:	66 c7 85 ee ef ff ff 	movw   $0x1,-0x1012(%rbp)
    e73d:	01 00 
    e73f:	48 8d 05 f6 d8 00 00 	lea    0xd8f6(%rip),%rax        # 1c03c <g_199>
    e746:	48 89 85 20 f1 ff ff 	mov    %rax,-0xee0(%rbp)
    e74d:	80 bd cc ef ff ff 00 	cmpb   $0x0,-0x1034(%rbp)
    e754:	0f 85 e7 00 00 00    	jne    e841 <func_15+0x86a>
    e75a:	0f bf 9d e4 ef ff ff 	movswl -0x101c(%rbp),%ebx
    e761:	8b 85 c8 ef ff ff    	mov    -0x1038(%rbp),%eax
    e767:	44 0f b6 e0          	movzbl %al,%r12d
    e76b:	48 8b 85 08 f1 ff ff 	mov    -0xef8(%rbp),%rax
    e772:	48 8b 00             	mov    (%rax),%rax
    e775:	48 8d 50 01          	lea    0x1(%rax),%rdx
    e779:	48 8b 85 08 f1 ff ff 	mov    -0xef8(%rbp),%rax
    e780:	48 89 10             	mov    %rdx,(%rax)
    e783:	48 8b 85 f0 f0 ff ff 	mov    -0xf10(%rbp),%rax
    e78a:	8b 00                	mov    (%rax),%eax
    e78c:	85 c0                	test   %eax,%eax
    e78e:	44 0f b6 ad e1 ef ff 	movzbl -0x101f(%rbp),%r13d
    e795:	ff 
    e796:	48 8b 85 48 f0 ff ff 	mov    -0xfb8(%rbp),%rax
    e79d:	44 8b 38             	mov    (%rax),%r15d
    e7a0:	0f b7 05 69 dc 00 00 	movzwl 0xdc69(%rip),%eax        # 1c410 <g_1627>
    e7a7:	c1 e0 04             	shl    $0x4,%eax
    e7aa:	66 c1 f8 04          	sar    $0x4,%ax
    e7ae:	44 0f bf f0          	movswl %ax,%r14d
    e7b2:	48 8b 85 18 f1 ff ff 	mov    -0xee8(%rbp),%rax
    e7b9:	48 8b 95 f8 f0 ff ff 	mov    -0xf08(%rbp),%rdx
    e7c0:	48 89 10             	mov    %rdx,(%rax)
    e7c3:	8b 05 4b db 00 00    	mov    0xdb4b(%rip),%eax        # 1c314 <g_714+0x4>
    e7c9:	89 c2                	mov    %eax,%edx
    e7cb:	0f b7 85 ee ef ff ff 	movzwl -0x1012(%rbp),%eax
    e7d2:	0f be c0             	movsbl %al,%eax
    e7d5:	89 d6                	mov    %edx,%esi
    e7d7:	89 c7                	mov    %eax,%edi
    e7d9:	e8 8e bb ff ff       	callq  a36c <safe_rshift_func_int8_t_s_u>
    e7de:	0f be c0             	movsbl %al,%eax
    e7e1:	44 89 f6             	mov    %r14d,%esi
    e7e4:	89 c7                	mov    %eax,%edi
    e7e6:	e8 cb bd ff ff       	callq  a5b6 <safe_add_func_int32_t_s_s>
    e7eb:	41 39 c7             	cmp    %eax,%r15d
    e7ee:	0f 9e c0             	setle  %al
    e7f1:	0f b6 c0             	movzbl %al,%eax
    e7f4:	44 89 ee             	mov    %r13d,%esi
    e7f7:	89 c7                	mov    %eax,%edi
    e7f9:	e8 c0 c4 ff ff       	callq  acbe <safe_rshift_func_uint8_t_u_u>
    e7fe:	b8 2c 00 00 00       	mov    $0x2c,%eax
    e803:	0f b6 c0             	movzbl %al,%eax
    e806:	44 89 e6             	mov    %r12d,%esi
    e809:	89 c7                	mov    %eax,%edi
    e80b:	e8 83 c3 ff ff       	callq  ab93 <safe_mul_func_uint8_t_u_u>
    e810:	0f b6 c0             	movzbl %al,%eax
    e813:	89 de                	mov    %ebx,%esi
    e815:	89 c7                	mov    %eax,%edi
    e817:	e8 2c c6 ff ff       	callq  ae48 <safe_rshift_func_uint16_t_u_s>
    e81c:	0f b7 c0             	movzwl %ax,%eax
    e81f:	39 85 c8 ef ff ff    	cmp    %eax,-0x1038(%rbp)
    e825:	0f 93 c0             	setae  %al
    e828:	0f b6 d0             	movzbl %al,%edx
    e82b:	48 8b 85 20 f1 ff ff 	mov    -0xee0(%rbp),%rax
    e832:	89 10                	mov    %edx,(%rax)
    e834:	48 8b 85 20 f1 ff ff 	mov    -0xee0(%rbp),%rax
    e83b:	8b 00                	mov    (%rax),%eax
    e83d:	85 c0                	test   %eax,%eax
    e83f:	74 07                	je     e848 <func_15+0x871>
    e841:	b8 01 00 00 00       	mov    $0x1,%eax
    e846:	eb 05                	jmp    e84d <func_15+0x876>
    e848:	b8 00 00 00 00       	mov    $0x0,%eax
    e84d:	48 98                	cltq   
    e84f:	48 be 05 d3 61 5d 6d 	movabs $0x2554e96d5d61d305,%rsi
    e856:	e9 54 25 
    e859:	48 89 c7             	mov    %rax,%rdi
    e85c:	e8 96 c1 ff ff       	callq  a9f7 <safe_div_func_int64_t_s_s>
    e861:	89 c2                	mov    %eax,%edx
    e863:	48 8b 85 f0 f0 ff ff 	mov    -0xf10(%rbp),%rax
    e86a:	89 10                	mov    %edx,(%rax)
    e86c:	48 8b 85 20 f1 ff ff 	mov    -0xee0(%rbp),%rax
    e873:	e9 6f 05 00 00       	jmpq   ede7 <func_15+0xe10>
    e878:	80 bd e1 ef ff ff 00 	cmpb   $0x0,-0x101f(%rbp)
    e87f:	74 05                	je     e886 <func_15+0x8af>
    e881:	e9 0f fe ff ff       	jmpq   e695 <func_15+0x6be>
    e886:	48 8b 85 00 f1 ff ff 	mov    -0xf00(%rbp),%rax
    e88d:	e9 55 05 00 00       	jmpq   ede7 <func_15+0xe10>
    e892:	66 c7 85 e6 ef ff ff 	movw   $0xd8ce,-0x101a(%rbp)
    e899:	ce d8 
    e89b:	48 c7 85 30 f0 ff ff 	movq   $0x0,-0xfd0(%rbp)
    e8a2:	00 00 00 00 
    e8a6:	48 8d 85 30 f0 ff ff 	lea    -0xfd0(%rbp),%rax
    e8ad:	48 89 85 90 f2 ff ff 	mov    %rax,-0xd70(%rbp)
    e8b4:	48 8d 85 30 f0 ff ff 	lea    -0xfd0(%rbp),%rax
    e8bb:	48 89 85 98 f2 ff ff 	mov    %rax,-0xd68(%rbp)
    e8c2:	48 8d 85 30 f0 ff ff 	lea    -0xfd0(%rbp),%rax
    e8c9:	48 89 85 a0 f2 ff ff 	mov    %rax,-0xd60(%rbp)
    e8d0:	48 8d 85 30 f0 ff ff 	lea    -0xfd0(%rbp),%rax
    e8d7:	48 89 85 a8 f2 ff ff 	mov    %rax,-0xd58(%rbp)
    e8de:	48 8d 85 30 f0 ff ff 	lea    -0xfd0(%rbp),%rax
    e8e5:	48 89 85 b0 f2 ff ff 	mov    %rax,-0xd50(%rbp)
    e8ec:	48 8d 85 30 f0 ff ff 	lea    -0xfd0(%rbp),%rax
    e8f3:	48 89 85 b8 f2 ff ff 	mov    %rax,-0xd48(%rbp)
    e8fa:	48 8d 85 30 f0 ff ff 	lea    -0xfd0(%rbp),%rax
    e901:	48 89 85 c0 f2 ff ff 	mov    %rax,-0xd40(%rbp)
    e908:	48 8d 85 30 f0 ff ff 	lea    -0xfd0(%rbp),%rax
    e90f:	48 89 85 c8 f2 ff ff 	mov    %rax,-0xd38(%rbp)
    e916:	48 8d 85 30 f0 ff ff 	lea    -0xfd0(%rbp),%rax
    e91d:	48 89 85 d0 f2 ff ff 	mov    %rax,-0xd30(%rbp)
    e924:	48 8d 85 30 f0 ff ff 	lea    -0xfd0(%rbp),%rax
    e92b:	48 89 85 d8 f2 ff ff 	mov    %rax,-0xd28(%rbp)
    e932:	48 8d 85 90 f2 ff ff 	lea    -0xd70(%rbp),%rax
    e939:	48 89 85 38 f0 ff ff 	mov    %rax,-0xfc8(%rbp)
    e940:	48 c7 85 00 f4 ff ff 	movq   $0x0,-0xc00(%rbp)
    e947:	00 00 00 00 
    e94b:	48 8d 85 10 f2 ff ff 	lea    -0xdf0(%rbp),%rax
    e952:	48 83 c0 10          	add    $0x10,%rax
    e956:	48 89 85 08 f4 ff ff 	mov    %rax,-0xbf8(%rbp)
    e95d:	48 8d 85 10 f2 ff ff 	lea    -0xdf0(%rbp),%rax
    e964:	48 83 c0 10          	add    $0x10,%rax
    e968:	48 89 85 10 f4 ff ff 	mov    %rax,-0xbf0(%rbp)
    e96f:	48 8d 85 10 f2 ff ff 	lea    -0xdf0(%rbp),%rax
    e976:	48 83 c0 10          	add    $0x10,%rax
    e97a:	48 89 85 18 f4 ff ff 	mov    %rax,-0xbe8(%rbp)
    e981:	48 8d 85 10 f2 ff ff 	lea    -0xdf0(%rbp),%rax
    e988:	48 83 c0 10          	add    $0x10,%rax
    e98c:	48 89 85 20 f4 ff ff 	mov    %rax,-0xbe0(%rbp)
    e993:	48 c7 85 28 f4 ff ff 	movq   $0x0,-0xbd8(%rbp)
    e99a:	00 00 00 00 
    e99e:	48 8d 85 10 f2 ff ff 	lea    -0xdf0(%rbp),%rax
    e9a5:	48 83 c0 10          	add    $0x10,%rax
    e9a9:	48 89 85 30 f4 ff ff 	mov    %rax,-0xbd0(%rbp)
    e9b0:	48 c7 85 38 f4 ff ff 	movq   $0x0,-0xbc8(%rbp)
    e9b7:	00 00 00 00 
    e9bb:	48 8d 85 10 f2 ff ff 	lea    -0xdf0(%rbp),%rax
    e9c2:	48 83 c0 10          	add    $0x10,%rax
    e9c6:	48 89 85 40 f4 ff ff 	mov    %rax,-0xbc0(%rbp)
    e9cd:	48 c7 85 48 f4 ff ff 	movq   $0x0,-0xbb8(%rbp)
    e9d4:	00 00 00 00 
    e9d8:	48 8d 85 10 f2 ff ff 	lea    -0xdf0(%rbp),%rax
    e9df:	48 83 c0 10          	add    $0x10,%rax
    e9e3:	48 89 85 50 f4 ff ff 	mov    %rax,-0xbb0(%rbp)
    e9ea:	48 c7 85 58 f4 ff ff 	movq   $0x0,-0xba8(%rbp)
    e9f1:	00 00 00 00 
    e9f5:	48 8d 85 10 f2 ff ff 	lea    -0xdf0(%rbp),%rax
    e9fc:	48 83 c0 10          	add    $0x10,%rax
    ea00:	48 89 85 60 f4 ff ff 	mov    %rax,-0xba0(%rbp)
    ea07:	48 8d 85 10 f2 ff ff 	lea    -0xdf0(%rbp),%rax
    ea0e:	48 83 c0 10          	add    $0x10,%rax
    ea12:	48 89 85 68 f4 ff ff 	mov    %rax,-0xb98(%rbp)
    ea19:	48 8d 85 10 f2 ff ff 	lea    -0xdf0(%rbp),%rax
    ea20:	48 83 c0 10          	add    $0x10,%rax
    ea24:	48 89 85 70 f4 ff ff 	mov    %rax,-0xb90(%rbp)
    ea2b:	48 8d 85 10 f2 ff ff 	lea    -0xdf0(%rbp),%rax
    ea32:	48 83 c0 10          	add    $0x10,%rax
    ea36:	48 89 85 78 f4 ff ff 	mov    %rax,-0xb88(%rbp)
    ea3d:	48 c7 85 80 f4 ff ff 	movq   $0x0,-0xb80(%rbp)
    ea44:	00 00 00 00 
    ea48:	48 8d 85 10 f2 ff ff 	lea    -0xdf0(%rbp),%rax
    ea4f:	48 83 c0 10          	add    $0x10,%rax
    ea53:	48 89 85 88 f4 ff ff 	mov    %rax,-0xb78(%rbp)
    ea5a:	48 8d 85 10 f2 ff ff 	lea    -0xdf0(%rbp),%rax
    ea61:	48 83 c0 10          	add    $0x10,%rax
    ea65:	48 89 85 90 f4 ff ff 	mov    %rax,-0xb70(%rbp)
    ea6c:	48 c7 85 98 f4 ff ff 	movq   $0x0,-0xb68(%rbp)
    ea73:	00 00 00 00 
    ea77:	48 8d 85 10 f2 ff ff 	lea    -0xdf0(%rbp),%rax
    ea7e:	48 83 c0 10          	add    $0x10,%rax
    ea82:	48 89 85 a0 f4 ff ff 	mov    %rax,-0xb60(%rbp)
    ea89:	48 8d 85 10 f2 ff ff 	lea    -0xdf0(%rbp),%rax
    ea90:	48 83 c0 10          	add    $0x10,%rax
    ea94:	48 89 85 a8 f4 ff ff 	mov    %rax,-0xb58(%rbp)
    ea9b:	48 8d 85 10 f2 ff ff 	lea    -0xdf0(%rbp),%rax
    eaa2:	48 83 c0 10          	add    $0x10,%rax
    eaa6:	48 89 85 b0 f4 ff ff 	mov    %rax,-0xb50(%rbp)
    eaad:	48 c7 85 b8 f4 ff ff 	movq   $0x0,-0xb48(%rbp)
    eab4:	00 00 00 00 
    eab8:	48 8d 85 00 f4 ff ff 	lea    -0xc00(%rbp),%rax
    eabf:	48 83 c0 10          	add    $0x10,%rax
    eac3:	48 89 85 a8 f0 ff ff 	mov    %rax,-0xf58(%rbp)
    eaca:	48 8d 05 d7 0d 01 00 	lea    0x10dd7(%rip),%rax        # 1f8a8 <g_690>
    ead1:	48 89 85 b0 f0 ff ff 	mov    %rax,-0xf50(%rbp)
    ead8:	48 8d 85 30 f8 ff ff 	lea    -0x7d0(%rbp),%rax
    eadf:	48 8d 15 5a 91 00 00 	lea    0x915a(%rip),%rdx        # 17c40 <g_3500+0xa70>
    eae6:	b9 7e 00 00 00       	mov    $0x7e,%ecx
    eaeb:	48 89 c7             	mov    %rax,%rdi
    eaee:	48 89 d6             	mov    %rdx,%rsi
    eaf1:	f3 48 a5             	rep movsq %ds:(%rsi),%es:(%rdi)
    eaf4:	48 c7 85 b8 f0 ff ff 	movq   $0x0,-0xf48(%rbp)
    eafb:	00 00 00 00 
    eaff:	48 c7 85 c0 f0 ff ff 	movq   $0x0,-0xf40(%rbp)
    eb06:	00 00 00 00 
    eb0a:	48 8d 85 50 f6 ff ff 	lea    -0x9b0(%rbp),%rax
    eb11:	48 8d 15 28 f7 00 00 	lea    0xf728(%rip),%rdx        # 1e240 <g_3956+0x19b8>
    eb18:	b9 3c 00 00 00       	mov    $0x3c,%ecx
    eb1d:	48 89 c7             	mov    %rax,%rdi
    eb20:	48 89 d6             	mov    %rdx,%rsi
    eb23:	f3 48 a5             	rep movsq %ds:(%rsi),%es:(%rdi)
    eb26:	48 8d 85 50 f6 ff ff 	lea    -0x9b0(%rbp),%rax
    eb2d:	48 05 90 00 00 00    	add    $0x90,%rax
    eb33:	48 89 85 e0 f1 ff ff 	mov    %rax,-0xe20(%rbp)
    eb3a:	48 8d 85 50 f6 ff ff 	lea    -0x9b0(%rbp),%rax
    eb41:	48 05 90 00 00 00    	add    $0x90,%rax
    eb47:	48 89 85 e8 f1 ff ff 	mov    %rax,-0xe18(%rbp)
    eb4e:	48 8d 85 50 f6 ff ff 	lea    -0x9b0(%rbp),%rax
    eb55:	48 05 18 01 00 00    	add    $0x118,%rax
    eb5b:	48 89 85 f0 f1 ff ff 	mov    %rax,-0xe10(%rbp)
    eb62:	48 8d 85 50 f6 ff ff 	lea    -0x9b0(%rbp),%rax
    eb69:	48 05 90 00 00 00    	add    $0x90,%rax
    eb6f:	48 89 85 f8 f1 ff ff 	mov    %rax,-0xe08(%rbp)
    eb76:	48 8d 85 50 f6 ff ff 	lea    -0x9b0(%rbp),%rax
    eb7d:	48 05 90 00 00 00    	add    $0x90,%rax
    eb83:	48 89 85 00 f2 ff ff 	mov    %rax,-0xe00(%rbp)
    eb8a:	48 8d 85 50 f6 ff ff 	lea    -0x9b0(%rbp),%rax
    eb91:	48 05 18 01 00 00    	add    $0x118,%rax
    eb97:	48 89 85 08 f2 ff ff 	mov    %rax,-0xdf8(%rbp)
    eb9e:	66 c7 85 e8 ef ff ff 	movw   $0xfff6,-0x1018(%rbp)
    eba5:	f6 ff 
    eba7:	c6 85 df ef ff ff 94 	movb   $0x94,-0x1021(%rbp)
    ebae:	48 8d 05 eb 12 01 00 	lea    0x112eb(%rip),%rax        # 1fea0 <g_2014>
    ebb5:	48 89 85 c8 f0 ff ff 	mov    %rax,-0xf38(%rbp)
    ebbc:	c7 85 fc ef ff ff 09 	movl   $0x9,-0x1004(%rbp)
    ebc3:	00 00 00 
    ebc6:	48 8d 05 47 d8 00 00 	lea    0xd847(%rip),%rax        # 1c414 <g_1627+0x4>
    ebcd:	48 89 85 50 f2 ff ff 	mov    %rax,-0xdb0(%rbp)
    ebd4:	48 8d 05 39 d8 00 00 	lea    0xd839(%rip),%rax        # 1c414 <g_1627+0x4>
    ebdb:	48 89 85 58 f2 ff ff 	mov    %rax,-0xda8(%rbp)
    ebe2:	48 8d 05 2b d8 00 00 	lea    0xd82b(%rip),%rax        # 1c414 <g_1627+0x4>
    ebe9:	48 89 85 60 f2 ff ff 	mov    %rax,-0xda0(%rbp)
    ebf0:	48 8d 05 1d d8 00 00 	lea    0xd81d(%rip),%rax        # 1c414 <g_1627+0x4>
    ebf7:	48 89 85 68 f2 ff ff 	mov    %rax,-0xd98(%rbp)
    ebfe:	48 8d 05 0f d8 00 00 	lea    0xd80f(%rip),%rax        # 1c414 <g_1627+0x4>
    ec05:	48 89 85 70 f2 ff ff 	mov    %rax,-0xd90(%rbp)
    ec0c:	48 8d 05 01 d8 00 00 	lea    0xd801(%rip),%rax        # 1c414 <g_1627+0x4>
    ec13:	48 89 85 78 f2 ff ff 	mov    %rax,-0xd88(%rbp)
    ec1a:	48 8d 05 f3 d7 00 00 	lea    0xd7f3(%rip),%rax        # 1c414 <g_1627+0x4>
    ec21:	48 89 85 80 f2 ff ff 	mov    %rax,-0xd80(%rbp)
    ec28:	48 8d 05 e5 d7 00 00 	lea    0xd7e5(%rip),%rax        # 1c414 <g_1627+0x4>
    ec2f:	48 89 85 88 f2 ff ff 	mov    %rax,-0xd78(%rbp)
    ec36:	48 8d 85 40 f3 ff ff 	lea    -0xcc0(%rbp),%rax
    ec3d:	48 05 b0 00 00 00    	add    $0xb0,%rax
    ec43:	48 89 85 40 f0 ff ff 	mov    %rax,-0xfc0(%rbp)
    ec4a:	48 8d 85 40 f0 ff ff 	lea    -0xfc0(%rbp),%rax
    ec51:	48 89 85 d0 f0 ff ff 	mov    %rax,-0xf30(%rbp)
    ec58:	c6 85 e0 ef ff ff c1 	movb   $0xc1,-0x1020(%rbp)
    ec5f:	66 c7 85 ea ef ff ff 	movw   $0x1,-0x1016(%rbp)
    ec66:	01 00 
    ec68:	c7 85 00 f0 ff ff ff 	movl   $0xffffffff,-0x1000(%rbp)
    ec6f:	ff ff ff 
    ec72:	48 8d 05 fb d3 00 00 	lea    0xd3fb(%rip),%rax        # 1c074 <g_274+0x4>
    ec79:	48 89 85 d8 f0 ff ff 	mov    %rax,-0xf28(%rbp)
    ec80:	48 b8 d5 d0 f1 da f0 	movabs $0x8e878ef0daf1d0d5,%rax
    ec87:	8e 87 8e 
    ec8a:	48 89 85 e0 f0 ff ff 	mov    %rax,-0xf20(%rbp)
    ec91:	66 c7 85 ec ef ff ff 	movw   $0xd9c7,-0x1014(%rbp)
    ec98:	c7 d9 
    ec9a:	c7 85 04 f0 ff ff 01 	movl   $0x1,-0xffc(%rbp)
    eca1:	00 00 00 
    eca4:	48 8d 05 ed 0b 01 00 	lea    0x10bed(%rip),%rax        # 1f898 <g_626>
    ecab:	48 89 85 e8 f0 ff ff 	mov    %rax,-0xf18(%rbp)
    ecb2:	c7 85 08 f0 ff ff 01 	movl   $0x1,-0xff8(%rbp)
    ecb9:	00 00 00 
    ecbc:	c7 85 0c f0 ff ff 2f 	movl   $0xad4e4d2f,-0xff4(%rbp)
    ecc3:	4d 4e ad 
    ecc6:	c7 85 f4 ef ff ff 00 	movl   $0x0,-0x100c(%rbp)
    eccd:	00 00 00 
    ecd0:	eb 1e                	jmp    ecf0 <func_15+0xd19>
    ecd2:	8b 85 f4 ef ff ff    	mov    -0x100c(%rbp),%eax
    ecd8:	48 98                	cltq   
    ecda:	48 8d 95 38 f0 ff ff 	lea    -0xfc8(%rbp),%rdx
    ece1:	48 89 94 c5 60 f1 ff 	mov    %rdx,-0xea0(%rbp,%rax,8)
    ece8:	ff 
    ece9:	83 85 f4 ef ff ff 01 	addl   $0x1,-0x100c(%rbp)
    ecf0:	83 bd f4 ef ff ff 02 	cmpl   $0x2,-0x100c(%rbp)
    ecf7:	7e d9                	jle    ecd2 <func_15+0xcfb>
    ecf9:	c7 85 f4 ef ff ff 00 	movl   $0x0,-0x100c(%rbp)
    ed00:	00 00 00 
    ed03:	eb 1e                	jmp    ed23 <func_15+0xd4c>
    ed05:	8b 85 f4 ef ff ff    	mov    -0x100c(%rbp),%eax
    ed0b:	48 98                	cltq   
    ed0d:	48 8d 15 26 d3 00 00 	lea    0xd326(%rip),%rdx        # 1c03a <g_167>
    ed14:	48 89 94 c5 10 f2 ff 	mov    %rdx,-0xdf0(%rbp,%rax,8)
    ed1b:	ff 
    ed1c:	83 85 f4 ef ff ff 01 	addl   $0x1,-0x100c(%rbp)
    ed23:	83 bd f4 ef ff ff 06 	cmpl   $0x6,-0x100c(%rbp)
    ed2a:	7e d9                	jle    ed05 <func_15+0xd2e>
    ed2c:	c7 85 f4 ef ff ff 00 	movl   $0x0,-0x100c(%rbp)
    ed33:	00 00 00 
    ed36:	eb 1a                	jmp    ed52 <func_15+0xd7b>
    ed38:	8b 85 f4 ef ff ff    	mov    -0x100c(%rbp),%eax
    ed3e:	48 98                	cltq   
    ed40:	c7 84 85 50 f1 ff ff 	movl   $0xaeaea284,-0xeb0(%rbp,%rax,4)
    ed47:	84 a2 ae ae 
    ed4b:	83 85 f4 ef ff ff 01 	addl   $0x1,-0x100c(%rbp)
    ed52:	83 bd f4 ef ff ff 03 	cmpl   $0x3,-0x100c(%rbp)
    ed59:	7e dd                	jle    ed38 <func_15+0xd61>
    ed5b:	c7 85 f4 ef ff ff 00 	movl   $0x0,-0x100c(%rbp)
    ed62:	00 00 00 
    ed65:	eb 1a                	jmp    ed81 <func_15+0xdaa>
    ed67:	8b 85 f4 ef ff ff    	mov    -0x100c(%rbp),%eax
    ed6d:	48 98                	cltq   
    ed6f:	c7 84 85 34 f1 ff ff 	movl   $0x8bec183,-0xecc(%rbp,%rax,4)
    ed76:	83 c1 be 08 
    ed7a:	83 85 f4 ef ff ff 01 	addl   $0x1,-0x100c(%rbp)
    ed81:	83 bd f4 ef ff ff 02 	cmpl   $0x2,-0x100c(%rbp)
    ed88:	7e dd                	jle    ed67 <func_15+0xd90>
    ed8a:	48 8b 05 ff 0c 01 00 	mov    0x10cff(%rip),%rax        # 1fa90 <g_1042>
    ed91:	0f b7 00             	movzwl (%rax),%eax
    ed94:	98                   	cwtl   
    ed95:	89 c6                	mov    %eax,%esi
    ed97:	bf ff ff 00 00       	mov    $0xffff,%edi
    ed9c:	e8 a7 c0 ff ff       	callq  ae48 <safe_rshift_func_uint16_t_u_s>
    eda1:	66 85 c0             	test   %ax,%ax
    eda4:	75 24                	jne    edca <func_15+0xdf3>
    eda6:	48 8b 85 48 f0 ff ff 	mov    -0xfb8(%rbp),%rax
    edad:	8b 00                	mov    (%rax),%eax
    edaf:	89 c2                	mov    %eax,%edx
    edb1:	48 8b 85 58 f0 ff ff 	mov    -0xfa8(%rbp),%rax
    edb8:	66 89 10             	mov    %dx,(%rax)
    edbb:	48 8b 85 58 f0 ff ff 	mov    -0xfa8(%rbp),%rax
    edc2:	0f b7 00             	movzwl (%rax),%eax
    edc5:	66 85 c0             	test   %ax,%ax
    edc8:	74 07                	je     edd1 <func_15+0xdfa>
    edca:	b8 01 00 00 00       	mov    $0x1,%eax
    edcf:	eb 05                	jmp    edd6 <func_15+0xdff>
    edd1:	b8 00 00 00 00       	mov    $0x0,%eax
    edd6:	66 89 85 e6 ef ff ff 	mov    %ax,-0x101a(%rbp)
    eddd:	48 8b 05 ac 0a 01 00 	mov    0x10aac(%rip),%rax        # 1f890 <g_430>
    ede4:	48 8b 00             	mov    (%rax),%rax
    ede7:	48 8b 5d c8          	mov    -0x38(%rbp),%rbx
    edeb:	64 48 33 1c 25 28 00 	xor    %fs:0x28,%rbx
    edf2:	00 00 
    edf4:	74 05                	je     edfb <func_15+0xe24>
    edf6:	e8 75 b2 ff ff       	callq  a070 <__stack_chk_fail@plt>
    edfb:	48 81 c4 18 10 00 00 	add    $0x1018,%rsp
    ee02:	5b                   	pop    %rbx
    ee03:	41 5c                	pop    %r12
    ee05:	41 5d                	pop    %r13
    ee07:	41 5e                	pop    %r14
    ee09:	41 5f                	pop    %r15
    ee0b:	5d                   	pop    %rbp
    ee0c:	c3                   	retq   

000000000000ee0d <func_36>:
    ee0d:	f3 0f 1e fa          	endbr64 
    ee11:	55                   	push   %rbp
    ee12:	48 89 e5             	mov    %rsp,%rbp
    ee15:	41 57                	push   %r15
    ee17:	41 56                	push   %r14
    ee19:	41 55                	push   %r13
    ee1b:	41 54                	push   %r12
    ee1d:	53                   	push   %rbx
    ee1e:	48 81 ec 00 10 00 00 	sub    $0x1000,%rsp
    ee25:	48 83 0c 24 00       	orq    $0x0,(%rsp)
    ee2a:	48 81 ec 68 04 00 00 	sub    $0x468,%rsp
    ee31:	48 89 bd 78 eb ff ff 	mov    %rdi,-0x1488(%rbp)
    ee38:	64 48 8b 04 25 28 00 	mov    %fs:0x28,%rax
    ee3f:	00 00 
    ee41:	48 89 45 c8          	mov    %rax,-0x38(%rbp)
    ee45:	31 c0                	xor    %eax,%eax
    ee47:	48 8d 05 da d1 00 00 	lea    0xd1da(%rip),%rax        # 1c028 <g_29>
    ee4e:	48 89 85 b0 ef ff ff 	mov    %rax,-0x1050(%rbp)
    ee55:	48 8d 05 cc d1 00 00 	lea    0xd1cc(%rip),%rax        # 1c028 <g_29>
    ee5c:	48 89 85 b8 ef ff ff 	mov    %rax,-0x1048(%rbp)
    ee63:	48 8d 05 be d1 00 00 	lea    0xd1be(%rip),%rax        # 1c028 <g_29>
    ee6a:	48 89 85 c0 ef ff ff 	mov    %rax,-0x1040(%rbp)
    ee71:	c7 85 a0 eb ff ff 0a 	movl   $0x6eb8f10a,-0x1460(%rbp)
    ee78:	f1 b8 6e 
    ee7b:	48 8d 05 56 d2 00 00 	lea    0xd256(%rip),%rax        # 1c0d8 <g_276+0x58>
    ee82:	48 89 85 40 ed ff ff 	mov    %rax,-0x12c0(%rbp)
    ee89:	48 8d 05 10 0a 01 00 	lea    0x10a10(%rip),%rax        # 1f8a0 <g_625>
    ee90:	48 89 85 48 ed ff ff 	mov    %rax,-0x12b8(%rbp)
    ee97:	48 8d 05 9a d1 00 00 	lea    0xd19a(%rip),%rax        # 1c038 <g_131>
    ee9e:	48 89 85 d0 ec ff ff 	mov    %rax,-0x1330(%rbp)
    eea5:	48 8d 05 8e d1 00 00 	lea    0xd18e(%rip),%rax        # 1c03a <g_167>
    eeac:	48 89 85 d8 ec ff ff 	mov    %rax,-0x1328(%rbp)
    eeb3:	c7 85 f0 eb ff ff f4 	movl   $0x7c6bd2f4,-0x1410(%rbp)
    eeba:	d2 6b 7c 
    eebd:	c7 85 ec eb ff ff ff 	movl   $0xffffffff,-0x1414(%rbp)
    eec4:	ff ff ff 
    eec7:	48 c7 85 50 ed ff ff 	movq   $0x7,-0x12b0(%rbp)
    eece:	07 00 00 00 
    eed2:	c7 85 e8 eb ff ff 74 	movl   $0xbce2d774,-0x1418(%rbp)
    eed9:	d7 e2 bc 
    eedc:	48 c7 85 e0 ec ff ff 	movq   $0x1,-0x1320(%rbp)
    eee3:	01 00 00 00 
    eee7:	48 8d 05 32 d4 00 00 	lea    0xd432(%rip),%rax        # 1c320 <g_820>
    eeee:	48 89 85 58 ed ff ff 	mov    %rax,-0x12a8(%rbp)
    eef5:	48 8d 05 94 0b 01 00 	lea    0x10b94(%rip),%rax        # 1fa90 <g_1042>
    eefc:	48 89 85 60 f3 ff ff 	mov    %rax,-0xca0(%rbp)
    ef03:	48 8d 05 86 0b 01 00 	lea    0x10b86(%rip),%rax        # 1fa90 <g_1042>
    ef0a:	48 89 85 68 f3 ff ff 	mov    %rax,-0xc98(%rbp)
    ef11:	48 8d 05 78 0b 01 00 	lea    0x10b78(%rip),%rax        # 1fa90 <g_1042>
    ef18:	48 89 85 70 f3 ff ff 	mov    %rax,-0xc90(%rbp)
    ef1f:	48 8d 85 d0 ec ff ff 	lea    -0x1330(%rbp),%rax
    ef26:	48 89 85 78 f3 ff ff 	mov    %rax,-0xc88(%rbp)
    ef2d:	48 8d 85 d0 ec ff ff 	lea    -0x1330(%rbp),%rax
    ef34:	48 89 85 80 f3 ff ff 	mov    %rax,-0xc80(%rbp)
    ef3b:	48 8d 85 d0 ec ff ff 	lea    -0x1330(%rbp),%rax
    ef42:	48 89 85 88 f3 ff ff 	mov    %rax,-0xc78(%rbp)
    ef49:	48 8d 85 d0 ec ff ff 	lea    -0x1330(%rbp),%rax
    ef50:	48 89 85 90 f3 ff ff 	mov    %rax,-0xc70(%rbp)
    ef57:	48 8d 05 32 0b 01 00 	lea    0x10b32(%rip),%rax        # 1fa90 <g_1042>
    ef5e:	48 89 85 98 f3 ff ff 	mov    %rax,-0xc68(%rbp)
    ef65:	48 8d 05 24 0b 01 00 	lea    0x10b24(%rip),%rax        # 1fa90 <g_1042>
    ef6c:	48 89 85 a0 f3 ff ff 	mov    %rax,-0xc60(%rbp)
    ef73:	48 8d 85 d0 ec ff ff 	lea    -0x1330(%rbp),%rax
    ef7a:	48 89 85 a8 f3 ff ff 	mov    %rax,-0xc58(%rbp)
    ef81:	48 8d 85 d0 ec ff ff 	lea    -0x1330(%rbp),%rax
    ef88:	48 89 85 b0 f3 ff ff 	mov    %rax,-0xc50(%rbp)
    ef8f:	48 c7 85 b8 f3 ff ff 	movq   $0x0,-0xc48(%rbp)
    ef96:	00 00 00 00 
    ef9a:	48 c7 85 c0 f3 ff ff 	movq   $0x0,-0xc40(%rbp)
    efa1:	00 00 00 00 
    efa5:	48 c7 85 c8 f3 ff ff 	movq   $0x0,-0xc38(%rbp)
    efac:	00 00 00 00 
    efb0:	48 c7 85 d0 f3 ff ff 	movq   $0x0,-0xc30(%rbp)
    efb7:	00 00 00 00 
    efbb:	48 8d 85 d0 ec ff ff 	lea    -0x1330(%rbp),%rax
    efc2:	48 89 85 d8 f3 ff ff 	mov    %rax,-0xc28(%rbp)
    efc9:	48 8d 85 d0 ec ff ff 	lea    -0x1330(%rbp),%rax
    efd0:	48 89 85 e0 f3 ff ff 	mov    %rax,-0xc20(%rbp)
    efd7:	48 8d 85 d0 ec ff ff 	lea    -0x1330(%rbp),%rax
    efde:	48 89 85 e8 f3 ff ff 	mov    %rax,-0xc18(%rbp)
    efe5:	48 c7 85 f0 f3 ff ff 	movq   $0x0,-0xc10(%rbp)
    efec:	00 00 00 00 
    eff0:	48 8d 05 99 0a 01 00 	lea    0x10a99(%rip),%rax        # 1fa90 <g_1042>
    eff7:	48 89 85 f8 f3 ff ff 	mov    %rax,-0xc08(%rbp)
    effe:	48 8d 85 d0 ec ff ff 	lea    -0x1330(%rbp),%rax
    f005:	48 89 85 00 f4 ff ff 	mov    %rax,-0xc00(%rbp)
    f00c:	48 8d 85 d0 ec ff ff 	lea    -0x1330(%rbp),%rax
    f013:	48 89 85 08 f4 ff ff 	mov    %rax,-0xbf8(%rbp)
    f01a:	48 8d 05 6f 0a 01 00 	lea    0x10a6f(%rip),%rax        # 1fa90 <g_1042>
    f021:	48 89 85 10 f4 ff ff 	mov    %rax,-0xbf0(%rbp)
    f028:	48 c7 85 18 f4 ff ff 	movq   $0x0,-0xbe8(%rbp)
    f02f:	00 00 00 00 
    f033:	48 8d 85 d0 ec ff ff 	lea    -0x1330(%rbp),%rax
    f03a:	48 89 85 20 f4 ff ff 	mov    %rax,-0xbe0(%rbp)
    f041:	48 c7 85 28 f4 ff ff 	movq   $0x0,-0xbd8(%rbp)
    f048:	00 00 00 00 
    f04c:	48 8d 05 3d 0a 01 00 	lea    0x10a3d(%rip),%rax        # 1fa90 <g_1042>
    f053:	48 89 85 30 f4 ff ff 	mov    %rax,-0xbd0(%rbp)
    f05a:	48 8d 85 d0 ec ff ff 	lea    -0x1330(%rbp),%rax
    f061:	48 89 85 38 f4 ff ff 	mov    %rax,-0xbc8(%rbp)
    f068:	48 8d 85 d0 ec ff ff 	lea    -0x1330(%rbp),%rax
    f06f:	48 89 85 40 f4 ff ff 	mov    %rax,-0xbc0(%rbp)
    f076:	48 8d 85 d0 ec ff ff 	lea    -0x1330(%rbp),%rax
    f07d:	48 89 85 48 f4 ff ff 	mov    %rax,-0xbb8(%rbp)
    f084:	48 8d 85 d0 ec ff ff 	lea    -0x1330(%rbp),%rax
    f08b:	48 89 85 50 f4 ff ff 	mov    %rax,-0xbb0(%rbp)
    f092:	48 8d 85 d0 ec ff ff 	lea    -0x1330(%rbp),%rax
    f099:	48 89 85 58 f4 ff ff 	mov    %rax,-0xba8(%rbp)
    f0a0:	48 8d 05 e9 09 01 00 	lea    0x109e9(%rip),%rax        # 1fa90 <g_1042>
    f0a7:	48 89 85 60 f4 ff ff 	mov    %rax,-0xba0(%rbp)
    f0ae:	48 8d 85 d0 ec ff ff 	lea    -0x1330(%rbp),%rax
    f0b5:	48 89 85 68 f4 ff ff 	mov    %rax,-0xb98(%rbp)
    f0bc:	48 8d 85 d0 ec ff ff 	lea    -0x1330(%rbp),%rax
    f0c3:	48 89 85 70 f4 ff ff 	mov    %rax,-0xb90(%rbp)
    f0ca:	48 8d 85 d0 ec ff ff 	lea    -0x1330(%rbp),%rax
    f0d1:	48 89 85 78 f4 ff ff 	mov    %rax,-0xb88(%rbp)
    f0d8:	48 8d 05 b1 09 01 00 	lea    0x109b1(%rip),%rax        # 1fa90 <g_1042>
    f0df:	48 89 85 80 f4 ff ff 	mov    %rax,-0xb80(%rbp)
    f0e6:	48 8d 05 a3 09 01 00 	lea    0x109a3(%rip),%rax        # 1fa90 <g_1042>
    f0ed:	48 89 85 88 f4 ff ff 	mov    %rax,-0xb78(%rbp)
    f0f4:	48 8d 85 d0 ec ff ff 	lea    -0x1330(%rbp),%rax
    f0fb:	48 89 85 90 f4 ff ff 	mov    %rax,-0xb70(%rbp)
    f102:	48 8d 05 87 09 01 00 	lea    0x10987(%rip),%rax        # 1fa90 <g_1042>
    f109:	48 89 85 98 f4 ff ff 	mov    %rax,-0xb68(%rbp)
    f110:	48 8d 05 79 09 01 00 	lea    0x10979(%rip),%rax        # 1fa90 <g_1042>
    f117:	48 89 85 a0 f4 ff ff 	mov    %rax,-0xb60(%rbp)
    f11e:	48 8d 05 6b 09 01 00 	lea    0x1096b(%rip),%rax        # 1fa90 <g_1042>
    f125:	48 89 85 a8 f4 ff ff 	mov    %rax,-0xb58(%rbp)
    f12c:	48 8d 85 d0 ec ff ff 	lea    -0x1330(%rbp),%rax
    f133:	48 89 85 b0 f4 ff ff 	mov    %rax,-0xb50(%rbp)
    f13a:	48 8d 05 4f 09 01 00 	lea    0x1094f(%rip),%rax        # 1fa90 <g_1042>
    f141:	48 89 85 b8 f4 ff ff 	mov    %rax,-0xb48(%rbp)
    f148:	48 8d 05 41 09 01 00 	lea    0x10941(%rip),%rax        # 1fa90 <g_1042>
    f14f:	48 89 85 c0 f4 ff ff 	mov    %rax,-0xb40(%rbp)
    f156:	48 8d 85 d0 ec ff ff 	lea    -0x1330(%rbp),%rax
    f15d:	48 89 85 c8 f4 ff ff 	mov    %rax,-0xb38(%rbp)
    f164:	48 8d 85 d0 ec ff ff 	lea    -0x1330(%rbp),%rax
    f16b:	48 89 85 d0 f4 ff ff 	mov    %rax,-0xb30(%rbp)
    f172:	48 8d 85 d0 ec ff ff 	lea    -0x1330(%rbp),%rax
    f179:	48 89 85 d8 f4 ff ff 	mov    %rax,-0xb28(%rbp)
    f180:	48 8d 05 09 09 01 00 	lea    0x10909(%rip),%rax        # 1fa90 <g_1042>
    f187:	48 89 85 e0 f4 ff ff 	mov    %rax,-0xb20(%rbp)
    f18e:	48 8d 85 d0 ec ff ff 	lea    -0x1330(%rbp),%rax
    f195:	48 89 85 e8 f4 ff ff 	mov    %rax,-0xb18(%rbp)
    f19c:	48 8d 85 d0 ec ff ff 	lea    -0x1330(%rbp),%rax
    f1a3:	48 89 85 f0 f4 ff ff 	mov    %rax,-0xb10(%rbp)
    f1aa:	48 8d 85 d0 ec ff ff 	lea    -0x1330(%rbp),%rax
    f1b1:	48 89 85 f8 f4 ff ff 	mov    %rax,-0xb08(%rbp)
    f1b8:	48 8d 85 d0 ec ff ff 	lea    -0x1330(%rbp),%rax
    f1bf:	48 89 85 00 f5 ff ff 	mov    %rax,-0xb00(%rbp)
    f1c6:	48 8d 85 d0 ec ff ff 	lea    -0x1330(%rbp),%rax
    f1cd:	48 89 85 08 f5 ff ff 	mov    %rax,-0xaf8(%rbp)
    f1d4:	48 8d 05 b5 08 01 00 	lea    0x108b5(%rip),%rax        # 1fa90 <g_1042>
    f1db:	48 89 85 10 f5 ff ff 	mov    %rax,-0xaf0(%rbp)
    f1e2:	48 c7 85 18 f5 ff ff 	movq   $0x0,-0xae8(%rbp)
    f1e9:	00 00 00 00 
    f1ed:	48 8d 85 d0 ec ff ff 	lea    -0x1330(%rbp),%rax
    f1f4:	48 89 85 20 f5 ff ff 	mov    %rax,-0xae0(%rbp)
    f1fb:	48 c7 85 28 f5 ff ff 	movq   $0x0,-0xad8(%rbp)
    f202:	00 00 00 00 
    f206:	48 8d 05 83 08 01 00 	lea    0x10883(%rip),%rax        # 1fa90 <g_1042>
    f20d:	48 89 85 30 f5 ff ff 	mov    %rax,-0xad0(%rbp)
    f214:	48 8d 85 d0 ec ff ff 	lea    -0x1330(%rbp),%rax
    f21b:	48 89 85 38 f5 ff ff 	mov    %rax,-0xac8(%rbp)
    f222:	48 8d 85 d0 ec ff ff 	lea    -0x1330(%rbp),%rax
    f229:	48 89 85 40 f5 ff ff 	mov    %rax,-0xac0(%rbp)
    f230:	48 8d 05 59 08 01 00 	lea    0x10859(%rip),%rax        # 1fa90 <g_1042>
    f237:	48 89 85 48 f5 ff ff 	mov    %rax,-0xab8(%rbp)
    f23e:	48 8d 05 4b 08 01 00 	lea    0x1084b(%rip),%rax        # 1fa90 <g_1042>
    f245:	48 89 85 50 f5 ff ff 	mov    %rax,-0xab0(%rbp)
    f24c:	48 8d 85 60 f3 ff ff 	lea    -0xca0(%rbp),%rax
    f253:	48 83 c0 38          	add    $0x38,%rax
    f257:	48 89 85 e8 ec ff ff 	mov    %rax,-0x1318(%rbp)
    f25e:	48 8d 85 e8 ec ff ff 	lea    -0x1318(%rbp),%rax
    f265:	48 89 85 f0 ec ff ff 	mov    %rax,-0x1310(%rbp)
    f26c:	48 8d 85 f0 ec ff ff 	lea    -0x1310(%rbp),%rax
    f273:	48 89 85 60 ed ff ff 	mov    %rax,-0x12a0(%rbp)
    f27a:	48 8d 85 b0 f1 ff ff 	lea    -0xe50(%rbp),%rax
    f281:	48 8d 15 b8 8d 00 00 	lea    0x8db8(%rip),%rdx        # 18040 <g_3500+0xe70>
    f288:	b9 34 00 00 00       	mov    $0x34,%ecx
    f28d:	48 89 c7             	mov    %rax,%rdi
    f290:	48 89 d6             	mov    %rdx,%rsi
    f293:	f3 48 a5             	rep movsq %ds:(%rsi),%es:(%rdi)
    f296:	48 89 f2             	mov    %rsi,%rdx
    f299:	48 89 f8             	mov    %rdi,%rax
    f29c:	8b 0a                	mov    (%rdx),%ecx
    f29e:	89 08                	mov    %ecx,(%rax)
    f2a0:	48 8d 40 04          	lea    0x4(%rax),%rax
    f2a4:	48 8d 52 04          	lea    0x4(%rdx),%rdx
    f2a8:	c7 85 f4 eb ff ff 02 	movl   $0x2,-0x140c(%rbp)
    f2af:	00 00 00 
    f2b2:	c7 85 f8 eb ff ff 00 	movl   $0x0,-0x1408(%rbp)
    f2b9:	00 00 00 
    f2bc:	c7 85 90 f0 ff ff f2 	movl   $0x9c2338f2,-0xf70(%rbp)
    f2c3:	38 23 9c 
    f2c6:	c7 85 94 f0 ff ff 71 	movl   $0xd470ea71,-0xf6c(%rbp)
    f2cd:	ea 70 d4 
    f2d0:	c7 85 98 f0 ff ff f2 	movl   $0x9c2338f2,-0xf68(%rbp)
    f2d7:	38 23 9c 
    f2da:	c7 85 9c f0 ff ff 71 	movl   $0xd470ea71,-0xf64(%rbp)
    f2e1:	ea 70 d4 
    f2e4:	c7 85 a0 f0 ff ff f2 	movl   $0x9c2338f2,-0xf60(%rbp)
    f2eb:	38 23 9c 
    f2ee:	c7 85 a4 f0 ff ff 71 	movl   $0xd470ea71,-0xf5c(%rbp)
    f2f5:	ea 70 d4 
    f2f8:	c7 85 a8 f0 ff ff f2 	movl   $0x9c2338f2,-0xf58(%rbp)
    f2ff:	38 23 9c 
    f302:	c7 85 ac f0 ff ff 71 	movl   $0xd470ea71,-0xf54(%rbp)
    f309:	ea 70 d4 
    f30c:	c7 85 b0 f0 ff ff f2 	movl   $0x9c2338f2,-0xf50(%rbp)
    f313:	38 23 9c 
    f316:	c6 85 84 eb ff ff 95 	movb   $0x95,-0x147c(%rbp)
    f31d:	48 8d 05 e4 01 01 00 	lea    0x101e4(%rip),%rax        # 1f508 <g_303>
    f324:	48 89 85 f8 ec ff ff 	mov    %rax,-0x1308(%rbp)
    f32b:	48 8d 85 f8 ec ff ff 	lea    -0x1308(%rbp),%rax
    f332:	48 89 85 68 ed ff ff 	mov    %rax,-0x1298(%rbp)
    f339:	c6 85 85 eb ff ff 01 	movb   $0x1,-0x147b(%rbp)
    f340:	66 c7 85 8c eb ff ff 	movw   $0x3,-0x1474(%rbp)
    f347:	03 00 
    f349:	c7 85 fc eb ff ff bd 	movl   $0x97f172bd,-0x1404(%rbp)
    f350:	72 f1 97 
    f353:	c7 85 e0 eb ff ff 00 	movl   $0x0,-0x1420(%rbp)
    f35a:	00 00 00 
    f35d:	eb 1e                	jmp    f37d <func_36+0x570>
    f35f:	8b 85 e0 eb ff ff    	mov    -0x1420(%rbp),%eax
    f365:	48 98                	cltq   
    f367:	48 8d 15 ba cc 00 00 	lea    0xccba(%rip),%rdx        # 1c028 <g_29>
    f36e:	48 89 94 c5 c0 f0 ff 	mov    %rdx,-0xf40(%rbp,%rax,8)
    f375:	ff 
    f376:	83 85 e0 eb ff ff 01 	addl   $0x1,-0x1420(%rbp)
    f37d:	83 bd e0 eb ff ff 04 	cmpl   $0x4,-0x1420(%rbp)
    f384:	7e d9                	jle    f35f <func_36+0x552>
    f386:	c7 85 e0 eb ff ff 00 	movl   $0x0,-0x1420(%rbp)
    f38d:	00 00 00 
    f390:	eb 1b                	jmp    f3ad <func_36+0x5a0>
    f392:	8b 85 e0 eb ff ff    	mov    -0x1420(%rbp),%eax
    f398:	48 98                	cltq   
    f39a:	48 c7 84 c5 98 ef ff 	movq   $0x0,-0x1068(%rbp,%rax,8)
    f3a1:	ff 00 00 00 00 
    f3a6:	83 85 e0 eb ff ff 01 	addl   $0x1,-0x1420(%rbp)
    f3ad:	83 bd e0 eb ff ff 00 	cmpl   $0x0,-0x1420(%rbp)
    f3b4:	7e dc                	jle    f392 <func_36+0x585>
    f3b6:	c7 85 e0 eb ff ff 00 	movl   $0x0,-0x1420(%rbp)
    f3bd:	00 00 00 
    f3c0:	eb 1a                	jmp    f3dc <func_36+0x5cf>
    f3c2:	8b 85 e0 eb ff ff    	mov    -0x1420(%rbp),%eax
    f3c8:	48 98                	cltq   
    f3ca:	c7 84 85 a4 ef ff ff 	movl   $0x1,-0x105c(%rbp,%rax,4)
    f3d1:	01 00 00 00 
    f3d5:	83 85 e0 eb ff ff 01 	addl   $0x1,-0x1420(%rbp)
    f3dc:	83 bd e0 eb ff ff 02 	cmpl   $0x2,-0x1420(%rbp)
    f3e3:	7e dd                	jle    f3c2 <func_36+0x5b5>
    f3e5:	c7 85 e0 eb ff ff 00 	movl   $0x0,-0x1420(%rbp)
    f3ec:	00 00 00 
    f3ef:	eb 1b                	jmp    f40c <func_36+0x5ff>
    f3f1:	8b 85 e0 eb ff ff    	mov    -0x1420(%rbp),%eax
    f3f7:	48 98                	cltq   
    f3f9:	48 c7 84 c5 30 f0 ff 	movq   $0xfffffffffffffffe,-0xfd0(%rbp,%rax,8)
    f400:	ff fe ff ff ff 
    f405:	83 85 e0 eb ff ff 01 	addl   $0x1,-0x1420(%rbp)
    f40c:	83 bd e0 eb ff ff 03 	cmpl   $0x3,-0x1420(%rbp)
    f413:	7e dc                	jle    f3f1 <func_36+0x5e4>
    f415:	48 8b 1d 14 cc 00 00 	mov    0xcc14(%rip),%rbx        # 1c030 <g_106>
    f41c:	48 8b 85 50 ed ff ff 	mov    -0x12b0(%rbp),%rax
    f423:	41 89 c6             	mov    %eax,%r14d
    f426:	0f b7 05 db 18 01 00 	movzwl 0x118db(%rip),%eax        # 20d08 <g_392>
    f42d:	44 0f be e0          	movsbl %al,%r12d
    f431:	48 8b 8d c0 ef ff ff 	mov    -0x1040(%rbp),%rcx
    f438:	48 8b 05 19 06 01 00 	mov    0x10619(%rip),%rax        # 1fa58 <g_745>
    f43f:	48 8b 00             	mov    (%rax),%rax
    f442:	48 8b 00             	mov    (%rax),%rax
    f445:	48 8b 95 c8 f0 ff ff 	mov    -0xf38(%rbp),%rdx
    f44c:	48 89 10             	mov    %rdx,(%rax)
    f44f:	48 8b 00             	mov    (%rax),%rax
    f452:	48 39 c1             	cmp    %rax,%rcx
    f455:	0f 94 c0             	sete   %al
    f458:	0f b6 c0             	movzbl %al,%eax
    f45b:	89 85 a0 eb ff ff    	mov    %eax,-0x1460(%rbp)
    f461:	8b 85 a0 eb ff ff    	mov    -0x1460(%rbp),%eax
    f467:	48 63 d0             	movslq %eax,%rdx
    f46a:	48 8b 85 40 ed ff ff 	mov    -0x12c0(%rbp),%rax
    f471:	48 89 10             	mov    %rdx,(%rax)
    f474:	8b 05 b2 ce 00 00    	mov    0xceb2(%rip),%eax        # 1c32c <g_820+0xc>
    f47a:	25 ff ff 3f 00       	and    $0x3fffff,%eax
    f47f:	44 0f be e8          	movsbl %al,%r13d
    f483:	48 8b 95 78 eb ff ff 	mov    -0x1488(%rbp),%rdx
    f48a:	48 8b 05 c7 05 01 00 	mov    0x105c7(%rip),%rax        # 1fa58 <g_745>
    f491:	48 8b 00             	mov    (%rax),%rax
    f494:	48 8b 00             	mov    (%rax),%rax
    f497:	48 8d 8d b0 ef ff ff 	lea    -0x1050(%rbp),%rcx
    f49e:	48 83 c1 10          	add    $0x10,%rcx
    f4a2:	48 39 c8             	cmp    %rcx,%rax
    f4a5:	0f 94 c0             	sete   %al
    f4a8:	0f b6 c8             	movzbl %al,%ecx
    f4ab:	48 8b 85 40 ed ff ff 	mov    -0x12c0(%rbp),%rax
    f4b2:	48 89 08             	mov    %rcx,(%rax)
    f4b5:	48 8b 85 40 ed ff ff 	mov    -0x12c0(%rbp),%rax
    f4bc:	48 8b 00             	mov    (%rax),%rax
    f4bf:	48 89 d6             	mov    %rdx,%rsi
    f4c2:	48 89 c7             	mov    %rax,%rdi
    f4c5:	e8 64 bb ff ff       	callq  b02e <safe_add_func_uint64_t_u_u>
    f4ca:	0f be c0             	movsbl %al,%eax
    f4cd:	44 89 ee             	mov    %r13d,%esi
    f4d0:	89 c7                	mov    %eax,%edi
    f4d2:	e8 fd ac ff ff       	callq  a1d4 <safe_add_func_int8_t_s_s>
    f4d7:	48 8b 05 e2 ff 00 00 	mov    0xffe2(%rip),%rax        # 1f4c0 <g_8>
    f4de:	8b 00                	mov    (%rax),%eax
    f4e0:	89 c2                	mov    %eax,%edx
    f4e2:	0f b7 05 1f 18 01 00 	movzwl 0x1181f(%rip),%eax        # 20d08 <g_392>
    f4e9:	98                   	cwtl   
    f4ea:	89 d6                	mov    %edx,%esi
    f4ec:	89 c7                	mov    %eax,%edi
    f4ee:	e8 dd b9 ff ff       	callq  aed0 <safe_sub_func_uint32_t_u_u>
    f4f3:	48 83 bd 78 eb ff ff 	cmpq   $0x0,-0x1488(%rbp)
    f4fa:	00 
    f4fb:	0f 9f c0             	setg   %al
    f4fe:	44 0f b6 e8          	movzbl %al,%r13d
    f502:	48 8b 85 d8 ec ff ff 	mov    -0x1328(%rbp),%rax
    f509:	0f b6 10             	movzbl (%rax),%edx
    f50c:	0f b7 05 19 cb 00 00 	movzwl 0xcb19(%rip),%eax        # 1c02c <g_104>
    f513:	89 c1                	mov    %eax,%ecx
    f515:	48 8b 85 d8 ec ff ff 	mov    -0x1328(%rbp),%rax
    f51c:	21 ca                	and    %ecx,%edx
    f51e:	88 10                	mov    %dl,(%rax)
    f520:	0f b6 00             	movzbl (%rax),%eax
    f523:	0f be d0             	movsbl %al,%edx
    f526:	48 8b 8d 98 ef ff ff 	mov    -0x1068(%rbp),%rcx
    f52d:	48 8b 85 48 ed ff ff 	mov    -0x12b8(%rbp),%rax
    f534:	48 89 08             	mov    %rcx,(%rax)
    f537:	48 8b 85 48 ed ff ff 	mov    -0x12b8(%rbp),%rax
    f53e:	48 8b 00             	mov    (%rax),%rax
    f541:	48 8d 0d c8 17 01 00 	lea    0x117c8(%rip),%rcx        # 20d10 <g_428>
    f548:	48 39 c8             	cmp    %rcx,%rax
    f54b:	0f 94 c0             	sete   %al
    f54e:	89 c6                	mov    %eax,%esi
    f550:	48 8b 0d 79 ff 00 00 	mov    0xff79(%rip),%rcx        # 1f4d0 <g_203>
    f557:	48 8b 85 d0 ec ff ff 	mov    -0x1330(%rbp),%rax
    f55e:	0f b7 09             	movzwl (%rcx),%ecx
    f561:	66 89 08             	mov    %cx,(%rax)
    f564:	0f b7 00             	movzwl (%rax),%eax
    f567:	31 f0                	xor    %esi,%eax
    f569:	0f be c0             	movsbl %al,%eax
    f56c:	89 d6                	mov    %edx,%esi
    f56e:	89 c7                	mov    %eax,%edi
    f570:	e8 bc ac ff ff       	callq  a231 <safe_mod_func_int8_t_s_s>
    f575:	0f be c0             	movsbl %al,%eax
    f578:	44 89 ee             	mov    %r13d,%esi
    f57b:	89 c7                	mov    %eax,%edi
    f57d:	e8 31 ae ff ff       	callq  a3b3 <safe_add_func_int16_t_s_s>
    f582:	48 0f bf c0          	movswq %ax,%rax
    f586:	48 39 85 78 eb ff ff 	cmp    %rax,-0x1488(%rbp)
    f58d:	0f 9d c0             	setge  %al
    f590:	0f b6 c0             	movzbl %al,%eax
    f593:	be 04 00 00 00       	mov    $0x4,%esi
    f598:	89 c7                	mov    %eax,%edi
    f59a:	e8 42 af ff ff       	callq  a4e1 <safe_lshift_func_int16_t_s_u>
    f59f:	0f b6 c0             	movzbl %al,%eax
    f5a2:	be 01 00 00 00       	mov    $0x1,%esi
    f5a7:	89 c7                	mov    %eax,%edi
    f5a9:	e8 ac b5 ff ff       	callq  ab5a <safe_add_func_uint8_t_u_u>
    f5ae:	83 f0 01             	xor    $0x1,%eax
    f5b1:	0f b6 c0             	movzbl %al,%eax
    f5b4:	89 85 f0 eb ff ff    	mov    %eax,-0x1410(%rbp)
    f5ba:	0f b7 05 af ca 00 00 	movzwl 0xcaaf(%rip),%eax        # 1c070 <g_274>
    f5c1:	c1 e0 04             	shl    $0x4,%eax
    f5c4:	66 c1 f8 04          	sar    $0x4,%ax
    f5c8:	98                   	cwtl   
    f5c9:	39 85 f0 eb ff ff    	cmp    %eax,-0x1410(%rbp)
    f5cf:	0f 94 c0             	sete   %al
    f5d2:	0f b6 c0             	movzbl %al,%eax
    f5d5:	44 89 e6             	mov    %r12d,%esi
    f5d8:	89 c7                	mov    %eax,%edi
    f5da:	e8 33 ac ff ff       	callq  a212 <safe_mul_func_int8_t_s_s>
    f5df:	0f b7 05 22 17 01 00 	movzwl 0x11722(%rip),%eax        # 20d08 <g_392>
    f5e6:	48 0f bf c0          	movswq %ax,%rax
    f5ea:	48 39 85 78 eb ff ff 	cmp    %rax,-0x1488(%rbp)
    f5f1:	0f 94 c0             	sete   %al
    f5f4:	0f b6 c0             	movzbl %al,%eax
    f5f7:	89 85 ec eb ff ff    	mov    %eax,-0x1414(%rbp)
    f5fd:	8b 85 ec eb ff ff    	mov    -0x1414(%rbp),%eax
    f603:	44 89 f6             	mov    %r14d,%esi
    f606:	89 c7                	mov    %eax,%edi
    f608:	e8 f2 b0 ff ff       	callq  a6ff <safe_div_func_int32_t_s_s>
    f60d:	3d 95 00 00 00       	cmp    $0x95,%eax
    f612:	0f 9e c0             	setle  %al
    f615:	0f b6 c0             	movzbl %al,%eax
    f618:	48 89 de             	mov    %rbx,%rsi
    f61b:	48 89 c7             	mov    %rax,%rdi
    f61e:	e8 85 b2 ff ff       	callq  a8a8 <safe_sub_func_int64_t_s_s>
    f623:	48 85 c0             	test   %rax,%rax
    f626:	0f 84 51 26 00 00    	je     11c7d <func_36+0x2e70>
    f62c:	48 b8 ae 01 8a d3 c7 	movabs $0x3af922c7d38a01ae,%rax
    f633:	22 f9 3a 
    f636:	48 89 85 00 ed ff ff 	mov    %rax,-0x1300(%rbp)
    f63d:	48 c7 85 30 ee ff ff 	movq   $0x0,-0x11d0(%rbp)
    f644:	00 00 00 00 
    f648:	c7 85 a4 eb ff ff 09 	movl   $0x21985e09,-0x145c(%rbp)
    f64f:	5e 98 21 
    f652:	48 c7 85 08 ed ff ff 	movq   $0x0,-0x12f8(%rbp)
    f659:	00 00 00 00 
    f65d:	48 8d 85 08 ed ff ff 	lea    -0x12f8(%rbp),%rax
    f664:	48 89 85 38 ee ff ff 	mov    %rax,-0x11c8(%rbp)
    f66b:	48 8d 05 c8 c9 00 00 	lea    0xc9c8(%rip),%rax        # 1c03a <g_167>
    f672:	48 89 85 40 ee ff ff 	mov    %rax,-0x11c0(%rbp)
    f679:	c7 85 24 ec ff ff 97 	movl   $0xf5c4ed97,-0x13dc(%rbp)
    f680:	ed c4 f5 
    f683:	66 c7 85 94 eb ff ff 	movw   $0xa3a7,-0x146c(%rbp)
    f68a:	a7 a3 
    f68c:	66 c7 85 40 f1 ff ff 	movw   $0xffff,-0xec0(%rbp)
    f693:	ff ff 
    f695:	66 c7 85 42 f1 ff ff 	movw   $0x0,-0xebe(%rbp)
    f69c:	00 00 
    f69e:	66 c7 85 44 f1 ff ff 	movw   $0x6619,-0xebc(%rbp)
    f6a5:	19 66 
    f6a7:	66 c7 85 46 f1 ff ff 	movw   $0xd04c,-0xeba(%rbp)
    f6ae:	4c d0 
    f6b0:	66 c7 85 48 f1 ff ff 	movw   $0xd04c,-0xeb8(%rbp)
    f6b7:	4c d0 
    f6b9:	66 c7 85 4a f1 ff ff 	movw   $0x6619,-0xeb6(%rbp)
    f6c0:	19 66 
    f6c2:	66 c7 85 4c f1 ff ff 	movw   $0x0,-0xeb4(%rbp)
    f6c9:	00 00 
    f6cb:	66 c7 85 4e f1 ff ff 	movw   $0xffff,-0xeb2(%rbp)
    f6d2:	ff ff 
    f6d4:	66 c7 85 50 f1 ff ff 	movw   $0x0,-0xeb0(%rbp)
    f6db:	00 00 
    f6dd:	66 c7 85 52 f1 ff ff 	movw   $0x6619,-0xeae(%rbp)
    f6e4:	19 66 
    f6e6:	66 c7 85 54 f1 ff ff 	movw   $0xd04c,-0xeac(%rbp)
    f6ed:	4c d0 
    f6ef:	66 c7 85 56 f1 ff ff 	movw   $0xd04c,-0xeaa(%rbp)
    f6f6:	4c d0 
    f6f8:	66 c7 85 58 f1 ff ff 	movw   $0x6619,-0xea8(%rbp)
    f6ff:	19 66 
    f701:	66 c7 85 5a f1 ff ff 	movw   $0x0,-0xea6(%rbp)
    f708:	00 00 
    f70a:	66 c7 85 5c f1 ff ff 	movw   $0xffff,-0xea4(%rbp)
    f711:	ff ff 
    f713:	66 c7 85 5e f1 ff ff 	movw   $0x0,-0xea2(%rbp)
    f71a:	00 00 
    f71c:	66 c7 85 60 f1 ff ff 	movw   $0x6619,-0xea0(%rbp)
    f723:	19 66 
    f725:	66 c7 85 62 f1 ff ff 	movw   $0xd04c,-0xe9e(%rbp)
    f72c:	4c d0 
    f72e:	66 c7 85 64 f1 ff ff 	movw   $0xd04c,-0xe9c(%rbp)
    f735:	4c d0 
    f737:	66 c7 85 66 f1 ff ff 	movw   $0x6619,-0xe9a(%rbp)
    f73e:	19 66 
    f740:	66 c7 85 68 f1 ff ff 	movw   $0x0,-0xe98(%rbp)
    f747:	00 00 
    f749:	66 c7 85 6a f1 ff ff 	movw   $0xffff,-0xe96(%rbp)
    f750:	ff ff 
    f752:	66 c7 85 6c f1 ff ff 	movw   $0x0,-0xe94(%rbp)
    f759:	00 00 
    f75b:	66 c7 85 6e f1 ff ff 	movw   $0x6619,-0xe92(%rbp)
    f762:	19 66 
    f764:	66 c7 85 70 f1 ff ff 	movw   $0xd04c,-0xe90(%rbp)
    f76b:	4c d0 
    f76d:	66 c7 85 72 f1 ff ff 	movw   $0xd04c,-0xe8e(%rbp)
    f774:	4c d0 
    f776:	66 c7 85 74 f1 ff ff 	movw   $0x6619,-0xe8c(%rbp)
    f77d:	19 66 
    f77f:	66 c7 85 76 f1 ff ff 	movw   $0x0,-0xe8a(%rbp)
    f786:	00 00 
    f788:	66 c7 85 78 f1 ff ff 	movw   $0xffff,-0xe88(%rbp)
    f78f:	ff ff 
    f791:	66 c7 85 7a f1 ff ff 	movw   $0x0,-0xe86(%rbp)
    f798:	00 00 
    f79a:	66 c7 85 7c f1 ff ff 	movw   $0x6619,-0xe84(%rbp)
    f7a1:	19 66 
    f7a3:	66 c7 85 7e f1 ff ff 	movw   $0xd04c,-0xe82(%rbp)
    f7aa:	4c d0 
    f7ac:	66 c7 85 80 f1 ff ff 	movw   $0xd04c,-0xe80(%rbp)
    f7b3:	4c d0 
    f7b5:	66 c7 85 82 f1 ff ff 	movw   $0x6619,-0xe7e(%rbp)
    f7bc:	19 66 
    f7be:	66 c7 85 84 f1 ff ff 	movw   $0x0,-0xe7c(%rbp)
    f7c5:	00 00 
    f7c7:	66 c7 85 86 f1 ff ff 	movw   $0xffff,-0xe7a(%rbp)
    f7ce:	ff ff 
    f7d0:	66 c7 85 88 f1 ff ff 	movw   $0x0,-0xe78(%rbp)
    f7d7:	00 00 
    f7d9:	66 c7 85 8a f1 ff ff 	movw   $0x6619,-0xe76(%rbp)
    f7e0:	19 66 
    f7e2:	66 c7 85 8c f1 ff ff 	movw   $0xd04c,-0xe74(%rbp)
    f7e9:	4c d0 
    f7eb:	66 c7 85 8e f1 ff ff 	movw   $0xd04c,-0xe72(%rbp)
    f7f2:	4c d0 
    f7f4:	66 c7 85 90 f1 ff ff 	movw   $0x6619,-0xe70(%rbp)
    f7fb:	19 66 
    f7fd:	66 c7 85 92 f1 ff ff 	movw   $0x0,-0xe6e(%rbp)
    f804:	00 00 
    f806:	66 c7 85 94 f1 ff ff 	movw   $0xffff,-0xe6c(%rbp)
    f80d:	ff ff 
    f80f:	66 c7 85 96 f1 ff ff 	movw   $0x0,-0xe6a(%rbp)
    f816:	00 00 
    f818:	66 c7 85 98 f1 ff ff 	movw   $0x6619,-0xe68(%rbp)
    f81f:	19 66 
    f821:	66 c7 85 9a f1 ff ff 	movw   $0xd04c,-0xe66(%rbp)
    f828:	4c d0 
    f82a:	66 c7 85 9c f1 ff ff 	movw   $0xd04c,-0xe64(%rbp)
    f831:	4c d0 
    f833:	66 c7 85 9e f1 ff ff 	movw   $0x6619,-0xe62(%rbp)
    f83a:	19 66 
    f83c:	66 c7 85 a0 f1 ff ff 	movw   $0x0,-0xe60(%rbp)
    f843:	00 00 
    f845:	66 c7 85 a2 f1 ff ff 	movw   $0xffff,-0xe5e(%rbp)
    f84c:	ff ff 
    f84e:	66 c7 85 a4 f1 ff ff 	movw   $0x0,-0xe5c(%rbp)
    f855:	00 00 
    f857:	66 c7 85 a6 f1 ff ff 	movw   $0x6619,-0xe5a(%rbp)
    f85e:	19 66 
    f860:	66 c7 85 a8 f1 ff ff 	movw   $0xd04c,-0xe58(%rbp)
    f867:	4c d0 
    f869:	66 c7 85 aa f1 ff ff 	movw   $0xd04c,-0xe56(%rbp)
    f870:	4c d0 
    f872:	66 c7 85 ac f1 ff ff 	movw   $0x6619,-0xe54(%rbp)
    f879:	19 66 
    f87b:	66 c7 85 ae f1 ff ff 	movw   $0x0,-0xe52(%rbp)
    f882:	00 00 
    f884:	48 b8 84 8d d3 99 0e 	movabs $0x8147aa0e99d38d84,%rax
    f88b:	aa 47 81 
    f88e:	48 89 85 48 ee ff ff 	mov    %rax,-0x11b8(%rbp)
    f895:	48 8d 85 10 f0 ff ff 	lea    -0xff0(%rbp),%rax
    f89c:	48 83 c0 04          	add    $0x4,%rax
    f8a0:	48 89 85 10 ed ff ff 	mov    %rax,-0x12f0(%rbp)
    f8a7:	48 b8 3e 03 be d2 d3 	movabs $0x7be3cfd3d2be033e,%rax
    f8ae:	cf e3 7b 
    f8b1:	48 89 85 50 ee ff ff 	mov    %rax,-0x11b0(%rbp)
    f8b8:	c7 85 28 ec ff ff fb 	movl   $0xfffffffb,-0x13d8(%rbp)
    f8bf:	ff ff ff 
    f8c2:	c7 85 2c ec ff ff 01 	movl   $0x1,-0x13d4(%rbp)
    f8c9:	00 00 00 
    f8cc:	48 8d 05 cd 01 01 00 	lea    0x101cd(%rip),%rax        # 1faa0 <g_1090>
    f8d3:	48 89 85 58 ee ff ff 	mov    %rax,-0x11a8(%rbp)
    f8da:	48 8d 05 bf 01 01 00 	lea    0x101bf(%rip),%rax        # 1faa0 <g_1090>
    f8e1:	48 89 85 60 ee ff ff 	mov    %rax,-0x11a0(%rbp)
    f8e8:	48 8d 85 10 ed ff ff 	lea    -0x12f0(%rbp),%rax
    f8ef:	48 89 85 68 ee ff ff 	mov    %rax,-0x1198(%rbp)
    f8f6:	48 8d 05 63 77 00 00 	lea    0x7763(%rip),%rax        # 17060 <g_960>
    f8fd:	48 89 85 70 ee ff ff 	mov    %rax,-0x1190(%rbp)
    f904:	c7 85 30 ec ff ff 02 	movl   $0x2,-0x13d0(%rbp)
    f90b:	00 00 00 
    f90e:	48 c7 85 78 ee ff ff 	movq   $0x0,-0x1188(%rbp)
    f915:	00 00 00 00 
    f919:	48 8d 85 a4 eb ff ff 	lea    -0x145c(%rbp),%rax
    f920:	48 89 85 80 ee ff ff 	mov    %rax,-0x1180(%rbp)
    f927:	c7 85 e4 eb ff ff 00 	movl   $0x0,-0x141c(%rbp)
    f92e:	00 00 00 
    f931:	eb 1b                	jmp    f94e <func_36+0xb41>
    f933:	8b 85 e4 eb ff ff    	mov    -0x141c(%rbp),%eax
    f939:	48 98                	cltq   
    f93b:	48 c7 84 c5 d0 ef ff 	movq   $0x0,-0x1030(%rbp,%rax,8)
    f942:	ff 00 00 00 00 
    f947:	83 85 e4 eb ff ff 01 	addl   $0x1,-0x141c(%rbp)
    f94e:	83 bd e4 eb ff ff 02 	cmpl   $0x2,-0x141c(%rbp)
    f955:	7e dc                	jle    f933 <func_36+0xb26>
    f957:	c7 85 e4 eb ff ff 00 	movl   $0x0,-0x141c(%rbp)
    f95e:	00 00 00 
    f961:	eb 1e                	jmp    f981 <func_36+0xb74>
    f963:	8b 85 e4 eb ff ff    	mov    -0x141c(%rbp),%eax
    f969:	48 98                	cltq   
    f96b:	48 8d 15 ce fd 00 00 	lea    0xfdce(%rip),%rdx        # 1f740 <g_305+0x220>
    f972:	48 89 94 c5 f0 ef ff 	mov    %rdx,-0x1010(%rbp,%rax,8)
    f979:	ff 
    f97a:	83 85 e4 eb ff ff 01 	addl   $0x1,-0x141c(%rbp)
    f981:	83 bd e4 eb ff ff 02 	cmpl   $0x2,-0x141c(%rbp)
    f988:	7e d9                	jle    f963 <func_36+0xb56>
    f98a:	c7 85 e4 eb ff ff 00 	movl   $0x0,-0x141c(%rbp)
    f991:	00 00 00 
    f994:	eb 1a                	jmp    f9b0 <func_36+0xba3>
    f996:	8b 85 e4 eb ff ff    	mov    -0x141c(%rbp),%eax
    f99c:	48 98                	cltq   
    f99e:	c7 84 85 10 f0 ff ff 	movl   $0xfffffff7,-0xff0(%rbp,%rax,4)
    f9a5:	f7 ff ff ff 
    f9a9:	83 85 e4 eb ff ff 01 	addl   $0x1,-0x141c(%rbp)
    f9b0:	83 bd e4 eb ff ff 05 	cmpl   $0x5,-0x141c(%rbp)
    f9b7:	7e dd                	jle    f996 <func_36+0xb89>
    f9b9:	90                   	nop
    f9ba:	48 c7 85 78 eb ff ff 	movq   $0x0,-0x1488(%rbp)
    f9c1:	00 00 00 00 
    f9c5:	e9 48 1e 00 00       	jmpq   11812 <func_36+0x2a05>
    f9ca:	66 c7 85 90 eb ff ff 	movw   $0x8296,-0x1470(%rbp)
    f9d1:	96 82 
    f9d3:	c7 85 78 ec ff ff 4f 	movl   $0x1ef5204f,-0x1388(%rbp)
    f9da:	20 f5 1e 
    f9dd:	c7 85 d0 eb ff ff 49 	movl   $0x32915049,-0x1430(%rbp)
    f9e4:	50 91 32 
    f9e7:	48 8d 05 32 c9 00 00 	lea    0xc932(%rip),%rax        # 1c320 <g_820>
    f9ee:	48 89 85 18 ed ff ff 	mov    %rax,-0x12e8(%rbp)
    f9f5:	48 8d 85 18 ed ff ff 	lea    -0x12e8(%rbp),%rax
    f9fc:	48 89 85 20 ed ff ff 	mov    %rax,-0x12e0(%rbp)
    fa03:	48 8d 05 30 c6 00 00 	lea    0xc630(%rip),%rax        # 1c03a <g_167>
    fa0a:	48 89 85 d0 ee ff ff 	mov    %rax,-0x1130(%rbp)
    fa11:	48 8d 05 3c c6 00 00 	lea    0xc63c(%rip),%rax        # 1c054 <g_218+0x4>
    fa18:	48 89 85 d8 ee ff ff 	mov    %rax,-0x1128(%rbp)
    fa1f:	c7 85 7c ec ff ff 79 	movl   $0x232d6079,-0x1384(%rbp)
    fa26:	60 2d 23 
    fa29:	66 c7 85 9a eb ff ff 	movw   $0xfff8,-0x1466(%rbp)
    fa30:	f8 ff 
    fa32:	c7 85 80 ec ff ff fb 	movl   $0xfffffffb,-0x1380(%rbp)
    fa39:	ff ff ff 
    fa3c:	48 8d 05 15 00 01 00 	lea    0x10015(%rip),%rax        # 1fa58 <g_745>
    fa43:	48 89 85 e0 ee ff ff 	mov    %rax,-0x1120(%rbp)
    fa4a:	c7 85 d4 eb ff ff 00 	movl   $0x0,-0x142c(%rbp)
    fa51:	00 00 00 
    fa54:	eb 1a                	jmp    fa70 <func_36+0xc63>
    fa56:	8b 85 d4 eb ff ff    	mov    -0x142c(%rbp),%eax
    fa5c:	48 98                	cltq   
    fa5e:	c7 84 85 50 f0 ff ff 	movl   $0x6,-0xfb0(%rbp,%rax,4)
    fa65:	06 00 00 00 
    fa69:	83 85 d4 eb ff ff 01 	addl   $0x1,-0x142c(%rbp)
    fa70:	83 bd d4 eb ff ff 07 	cmpl   $0x7,-0x142c(%rbp)
    fa77:	7e dd                	jle    fa56 <func_36+0xc49>
    fa79:	c7 85 d4 eb ff ff 00 	movl   $0x0,-0x142c(%rbp)
    fa80:	00 00 00 
    fa83:	eb 21                	jmp    faa6 <func_36+0xc99>
    fa85:	8b 85 d4 eb ff ff    	mov    -0x142c(%rbp),%eax
    fa8b:	48 98                	cltq   
    fa8d:	48 bb 8f 49 3b 0d f9 	movabs $0xb34eabf90d3b498f,%rbx
    fa94:	ab 4e b3 
    fa97:	48 89 9c c5 70 f0 ff 	mov    %rbx,-0xf90(%rbp,%rax,8)
    fa9e:	ff 
    fa9f:	83 85 d4 eb ff ff 01 	addl   $0x1,-0x142c(%rbp)
    faa6:	83 bd d4 eb ff ff 03 	cmpl   $0x3,-0x142c(%rbp)
    faad:	7e d6                	jle    fa85 <func_36+0xc78>
    faaf:	48 8b 85 78 eb ff ff 	mov    -0x1488(%rbp),%rax
    fab6:	48 89 85 00 ed ff ff 	mov    %rax,-0x1300(%rbp)
    fabd:	48 c7 85 00 ed ff ff 	movq   $0xffffffffffffffff,-0x1300(%rbp)
    fac4:	ff ff ff ff 
    fac8:	e9 04 06 00 00       	jmpq   100d1 <func_36+0x12c4>
    facd:	c7 85 28 ed ff ff 71 	movl   $0x674a8a71,-0x12d8(%rbp)
    fad4:	8a 4a 67 
    fad7:	c7 85 bc ec ff ff 00 	movl   $0x0,-0x1344(%rbp)
    fade:	00 00 00 
    fae1:	c7 85 c0 ec ff ff f4 	movl   $0x2dd8d0f4,-0x1340(%rbp)
    fae8:	d0 d8 2d 
    faeb:	48 8d 85 c0 f8 ff ff 	lea    -0x740(%rbp),%rax
    faf2:	48 8d 15 27 e9 00 00 	lea    0xe927(%rip),%rdx        # 1e420 <g_3956+0x1b98>
    faf9:	b9 e0 00 00 00       	mov    $0xe0,%ecx
    fafe:	48 89 c7             	mov    %rax,%rdi
    fb01:	48 89 d6             	mov    %rdx,%rsi
    fb04:	f3 48 a5             	rep movsq %ds:(%rsi),%es:(%rdi)
    fb07:	48 c7 85 68 ef ff ff 	movq   $0x0,-0x1098(%rbp)
    fb0e:	00 00 00 00 
    fb12:	c7 85 d8 eb ff ff 00 	movl   $0x0,-0x1428(%rbp)
    fb19:	00 00 00 
    fb1c:	eb 1e                	jmp    fb3c <func_36+0xd2f>
    fb1e:	8b 85 d8 eb ff ff    	mov    -0x1428(%rbp),%eax
    fb24:	48 98                	cltq   
    fb26:	48 8d 15 0f c5 00 00 	lea    0xc50f(%rip),%rdx        # 1c03c <g_199>
    fb2d:	48 89 94 c5 f0 f0 ff 	mov    %rdx,-0xf10(%rbp,%rax,8)
    fb34:	ff 
    fb35:	83 85 d8 eb ff ff 01 	addl   $0x1,-0x1428(%rbp)
    fb3c:	83 bd d8 eb ff ff 02 	cmpl   $0x2,-0x1428(%rbp)
    fb43:	7e d9                	jle    fb1e <func_36+0xd11>
    fb45:	48 8b 05 3c ff 00 00 	mov    0xff3c(%rip),%rax        # 1fa88 <g_897>
    fb4c:	48 8b 95 30 ee ff ff 	mov    -0x11d0(%rbp),%rdx
    fb53:	48 89 10             	mov    %rdx,(%rax)
    fb56:	8b 05 e0 c4 00 00    	mov    0xc4e0(%rip),%eax        # 1c03c <g_199>
    fb5c:	83 e8 01             	sub    $0x1,%eax
    fb5f:	89 05 d7 c4 00 00    	mov    %eax,0xc4d7(%rip)        # 1c03c <g_199>
    fb65:	be 0e 00 00 00       	mov    $0xe,%esi
    fb6a:	bf 00 00 00 00       	mov    $0x0,%edi
    fb6f:	e8 b6 a9 ff ff       	callq  a52a <safe_rshift_func_int16_t_s_s>
    fb74:	8b 85 d0 eb ff ff    	mov    -0x1430(%rbp),%eax
    fb7a:	98                   	cwtl   
    fb7b:	be 0d 00 00 00       	mov    $0xd,%esi
    fb80:	89 c7                	mov    %eax,%edi
    fb82:	e8 0b a9 ff ff       	callq  a492 <safe_lshift_func_int16_t_s_s>
    fb87:	48 8b 85 78 eb ff ff 	mov    -0x1488(%rbp),%rax
    fb8e:	89 c6                	mov    %eax,%esi
    fb90:	bf 01 00 00 00       	mov    $0x1,%edi
    fb95:	e8 65 ab ff ff       	callq  a6ff <safe_div_func_int32_t_s_s>
    fb9a:	0f be d0             	movsbl %al,%edx
    fb9d:	48 8b 85 78 eb ff ff 	mov    -0x1488(%rbp),%rax
    fba4:	0f be c0             	movsbl %al,%eax
    fba7:	89 d6                	mov    %edx,%esi
    fba9:	89 c7                	mov    %eax,%edi
    fbab:	e8 ba a6 ff ff       	callq  a26a <safe_div_func_int8_t_s_s>
    fbb0:	48 83 bd 78 eb ff ff 	cmpq   $0x1,-0x1488(%rbp)
    fbb7:	01 
    fbb8:	0f 94 c0             	sete   %al
    fbbb:	0f b6 c0             	movzbl %al,%eax
    fbbe:	89 85 d0 eb ff ff    	mov    %eax,-0x1430(%rbp)
    fbc4:	8b 85 d0 eb ff ff    	mov    -0x1430(%rbp),%eax
    fbca:	0f be c0             	movsbl %al,%eax
    fbcd:	89 c7                	mov    %eax,%edi
    fbcf:	e8 eb a5 ff ff       	callq  a1bf <safe_unary_minus_func_int8_t_s>
    fbd4:	0f be d0             	movsbl %al,%edx
    fbd7:	0f b7 05 e2 c6 00 00 	movzwl 0xc6e2(%rip),%eax        # 1c2c0 <g_278>
    fbde:	0f b7 c0             	movzwl %ax,%eax
    fbe1:	39 c2                	cmp    %eax,%edx
    fbe3:	48 8b 95 20 ed ff ff 	mov    -0x12e0(%rbp),%rdx
    fbea:	48 8d 85 18 ed ff ff 	lea    -0x12e8(%rbp),%rax
    fbf1:	48 39 c2             	cmp    %rax,%rdx
    fbf4:	74 07                	je     fbfd <func_36+0xdf0>
    fbf6:	ba 01 00 00 00       	mov    $0x1,%edx
    fbfb:	eb 05                	jmp    fc02 <func_36+0xdf5>
    fbfd:	ba 00 00 00 00       	mov    $0x0,%edx
    fc02:	48 8b 85 78 eb ff ff 	mov    -0x1488(%rbp),%rax
    fc09:	31 d0                	xor    %edx,%eax
    fc0b:	89 85 bc ec ff ff    	mov    %eax,-0x1344(%rbp)
    fc11:	8b 85 bc ec ff ff    	mov    -0x1344(%rbp),%eax
    fc17:	0f b6 c0             	movzbl %al,%eax
    fc1a:	be d9 00 00 00       	mov    $0xd9,%esi
    fc1f:	89 c7                	mov    %eax,%edi
    fc21:	e8 52 af ff ff       	callq  ab78 <safe_sub_func_uint8_t_u_u>
    fc26:	89 c2                	mov    %eax,%edx
    fc28:	8b 85 28 ed ff ff    	mov    -0x12d8(%rbp),%eax
    fc2e:	31 d0                	xor    %edx,%eax
    fc30:	0f be c0             	movsbl %al,%eax
    fc33:	89 c6                	mov    %eax,%esi
    fc35:	bf 00 00 00 00       	mov    $0x0,%edi
    fc3a:	e8 d3 a5 ff ff       	callq  a212 <safe_mul_func_int8_t_s_s>
    fc3f:	0f be c0             	movsbl %al,%eax
    fc42:	89 85 a4 eb ff ff    	mov    %eax,-0x145c(%rbp)
    fc48:	8b 85 a4 eb ff ff    	mov    -0x145c(%rbp),%eax
    fc4e:	89 c2                	mov    %eax,%edx
    fc50:	48 8b 85 78 eb ff ff 	mov    -0x1488(%rbp),%rax
    fc57:	21 d0                	and    %edx,%eax
    fc59:	0f b7 c0             	movzwl %ax,%eax
    fc5c:	be 06 00 00 00       	mov    $0x6,%esi
    fc61:	89 c7                	mov    %eax,%edi
    fc63:	e8 56 b1 ff ff       	callq  adbe <safe_lshift_func_uint16_t_u_s>
    fc68:	8b 95 60 f0 ff ff    	mov    -0xfa0(%rbp),%edx
    fc6e:	0f b7 c0             	movzwl %ax,%eax
    fc71:	09 d0                	or     %edx,%eax
    fc73:	89 85 60 f0 ff ff    	mov    %eax,-0xfa0(%rbp)
    fc79:	8b 85 60 f0 ff ff    	mov    -0xfa0(%rbp),%eax
    fc7f:	85 c0                	test   %eax,%eax
    fc81:	0f 84 9e 02 00 00    	je     ff25 <func_36+0x1118>
    fc87:	66 c7 85 8e eb ff ff 	movw   $0xfff6,-0x1472(%rbp)
    fc8e:	f6 ff 
    fc90:	48 8d 05 11 fc 00 00 	lea    0xfc11(%rip),%rax        # 1f8a8 <g_690>
    fc97:	48 89 85 78 ef ff ff 	mov    %rax,-0x1088(%rbp)
    fc9e:	48 c7 85 80 ef ff ff 	movq   $0x0,-0x1080(%rbp)
    fca5:	00 00 00 00 
    fca9:	48 8d 85 8e eb ff ff 	lea    -0x1472(%rbp),%rax
    fcb0:	48 89 85 88 ef ff ff 	mov    %rax,-0x1078(%rbp)
    fcb7:	48 8d 05 b6 c3 00 00 	lea    0xc3b6(%rip),%rax        # 1c074 <g_274+0x4>
    fcbe:	48 89 85 90 ef ff ff 	mov    %rax,-0x1070(%rbp)
    fcc5:	c7 85 c8 ec ff ff 8b 	movl   $0xaf03b98b,-0x1338(%rbp)
    fccc:	b9 03 af 
    fccf:	0f b7 85 8e eb ff ff 	movzwl -0x1472(%rbp),%eax
    fcd6:	83 e8 01             	sub    $0x1,%eax
    fcd9:	66 89 85 8e eb ff ff 	mov    %ax,-0x1472(%rbp)
    fce0:	8b 05 6e c3 00 00    	mov    0xc36e(%rip),%eax        # 1c054 <g_218+0x4>
    fce6:	85 c0                	test   %eax,%eax
    fce8:	75 17                	jne    fd01 <func_36+0xef4>
    fcea:	48 8b 85 78 eb ff ff 	mov    -0x1488(%rbp),%rax
    fcf1:	be 00 00 00 00       	mov    $0x0,%esi
    fcf6:	48 89 c7             	mov    %rax,%rdi
    fcf9:	e8 4d b3 ff ff       	callq  b04b <safe_sub_func_uint64_t_u_u>
    fcfe:	48 85 c0             	test   %rax,%rax
    fd01:	48 ba ff e7 bd 5f 96 	movabs $0x7978cb965fbde7ff,%rdx
    fd08:	cb 78 79 
    fd0b:	48 8b 85 88 ef ff ff 	mov    -0x1078(%rbp),%rax
    fd12:	0f b7 00             	movzwl (%rax),%eax
    fd15:	89 c1                	mov    %eax,%ecx
    fd17:	89 d0                	mov    %edx,%eax
    fd19:	21 c8                	and    %ecx,%eax
    fd1b:	89 c2                	mov    %eax,%edx
    fd1d:	48 8b 85 88 ef ff ff 	mov    -0x1078(%rbp),%rax
    fd24:	66 89 10             	mov    %dx,(%rax)
    fd27:	48 8b 85 88 ef ff ff 	mov    -0x1078(%rbp),%rax
    fd2e:	0f b7 00             	movzwl (%rax),%eax
    fd31:	66 85 c0             	test   %ax,%ax
    fd34:	0f 84 b3 00 00 00    	je     fded <func_36+0xfe0>
    fd3a:	66 c7 85 9e eb ff ff 	movw   $0xffff,-0x1462(%rbp)
    fd41:	ff ff 
    fd43:	48 8b 05 3e fd 00 00 	mov    0xfd3e(%rip),%rax        # 1fa88 <g_897>
    fd4a:	48 8b 00             	mov    (%rax),%rax
    fd4d:	48 89 85 68 ef ff ff 	mov    %rax,-0x1098(%rbp)
    fd54:	48 8b 85 68 ef ff ff 	mov    -0x1098(%rbp),%rax
    fd5b:	48 3b 85 90 ef ff ff 	cmp    -0x1070(%rbp),%rax
    fd62:	0f 95 c0             	setne  %al
    fd65:	0f b6 d8             	movzbl %al,%ebx
    fd68:	0f b7 85 9e eb ff ff 	movzwl -0x1462(%rbp),%eax
    fd6f:	0f b7 c0             	movzwl %ax,%eax
    fd72:	be 02 00 00 00       	mov    $0x2,%esi
    fd77:	89 c7                	mov    %eax,%edi
    fd79:	e8 40 b0 ff ff       	callq  adbe <safe_lshift_func_uint16_t_u_s>
    fd7e:	0f b7 c0             	movzwl %ax,%eax
    fd81:	31 c3                	xor    %eax,%ebx
    fd83:	48 8b 85 78 eb ff ff 	mov    -0x1488(%rbp),%rax
    fd8a:	89 85 bc ec ff ff    	mov    %eax,-0x1344(%rbp)
    fd90:	48 8b 85 78 eb ff ff 	mov    -0x1488(%rbp),%rax
    fd97:	0f be c0             	movsbl %al,%eax
    fd9a:	89 c6                	mov    %eax,%esi
    fd9c:	bf 05 00 00 00       	mov    $0x5,%edi
    fda1:	e8 2e a4 ff ff       	callq  a1d4 <safe_add_func_int8_t_s_s>
    fda6:	0f be d0             	movsbl %al,%edx
    fda9:	0f bf 85 9e eb ff ff 	movswl -0x1462(%rbp),%eax
    fdb0:	31 d0                	xor    %edx,%eax
    fdb2:	39 85 bc ec ff ff    	cmp    %eax,-0x1344(%rbp)
    fdb8:	0f 94 c0             	sete   %al
    fdbb:	0f b6 d0             	movzbl %al,%edx
    fdbe:	8b 05 54 0f 01 00    	mov    0x10f54(%rip),%eax        # 20d18 <g_639>
    fdc4:	39 c2                	cmp    %eax,%edx
    fdc6:	0f 95 c0             	setne  %al
    fdc9:	0f b6 c0             	movzbl %al,%eax
    fdcc:	39 c3                	cmp    %eax,%ebx
    fdce:	0f 94 c0             	sete   %al
    fdd1:	0f b6 d0             	movzbl %al,%edx
    fdd4:	8b 85 a4 eb ff ff    	mov    -0x145c(%rbp),%eax
    fdda:	31 d0                	xor    %edx,%eax
    fddc:	89 85 a4 eb ff ff    	mov    %eax,-0x145c(%rbp)
    fde2:	8b 85 e8 eb ff ff    	mov    -0x1418(%rbp),%eax
    fde8:	e9 7c 2e 00 00       	jmpq   12c69 <func_36+0x3e5c>
    fded:	66 c7 85 9c eb ff ff 	movw   $0x8c2c,-0x1464(%rbp)
    fdf4:	2c 8c 
    fdf6:	c7 85 cc ec ff ff e4 	movl   $0xafa585e4,-0x1334(%rbp)
    fdfd:	85 a5 af 
    fe00:	8b 05 0e c5 00 00    	mov    0xc50e(%rip),%eax        # 1c314 <g_714+0x4>
    fe06:	85 c0                	test   %eax,%eax
    fe08:	0f 85 ce 00 00 00    	jne    fedc <func_36+0x10cf>
    fe0e:	0f b7 05 23 c2 00 00 	movzwl 0xc223(%rip),%eax        # 1c038 <g_131>
    fe15:	0f bf d8             	movswl %ax,%ebx
    fe18:	48 8b 85 78 eb ff ff 	mov    -0x1488(%rbp),%rax
    fe1f:	44 0f bf e0          	movswl %ax,%r12d
    fe23:	48 8b 85 78 eb ff ff 	mov    -0x1488(%rbp),%rax
    fe2a:	0f b7 c0             	movzwl %ax,%eax
    fe2d:	be 05 00 00 00       	mov    $0x5,%esi
    fe32:	89 c7                	mov    %eax,%edi
    fe34:	e8 23 af ff ff       	callq  ad5c <safe_mod_func_uint16_t_u_u>
    fe39:	44 0f bf e8          	movswl %ax,%r13d
    fe3d:	48 8b 85 d8 ec ff ff 	mov    -0x1328(%rbp),%rax
    fe44:	0f b6 10             	movzbl (%rax),%edx
    fe47:	0f b7 85 9c eb ff ff 	movzwl -0x1464(%rbp),%eax
    fe4e:	89 c1                	mov    %eax,%ecx
    fe50:	48 8b 85 d8 ec ff ff 	mov    -0x1328(%rbp),%rax
    fe57:	09 ca                	or     %ecx,%edx
    fe59:	88 10                	mov    %dl,(%rax)
    fe5b:	0f b6 00             	movzbl (%rax),%eax
    fe5e:	0f be d0             	movsbl %al,%edx
    fe61:	48 8b 85 78 eb ff ff 	mov    -0x1488(%rbp),%rax
    fe68:	0f be c0             	movsbl %al,%eax
    fe6b:	89 d6                	mov    %edx,%esi
    fe6d:	89 c7                	mov    %eax,%edi
    fe6f:	e8 f6 a3 ff ff       	callq  a26a <safe_div_func_int8_t_s_s>
    fe74:	0f be c0             	movsbl %al,%eax
    fe77:	44 89 ee             	mov    %r13d,%esi
    fe7a:	89 c7                	mov    %eax,%edi
    fe7c:	e8 74 a5 ff ff       	callq  a3f5 <safe_mul_func_int16_t_s_s>
    fe81:	48 0f bf c0          	movswq %ax,%rax
    fe85:	48 23 85 78 eb ff ff 	and    -0x1488(%rbp),%rax
    fe8c:	48 89 c2             	mov    %rax,%rdx
    fe8f:	48 8b 05 c2 c1 00 00 	mov    0xc1c2(%rip),%rax        # 1c058 <g_218+0x8>
    fe96:	c1 e0 02             	shl    $0x2,%eax
    fe99:	c1 f8 05             	sar    $0x5,%eax
    fe9c:	48 98                	cltq   
    fe9e:	48 39 85 78 eb ff ff 	cmp    %rax,-0x1488(%rbp)
    fea5:	0f 9e c0             	setle  %al
    fea8:	0f b6 c0             	movzbl %al,%eax
    feab:	48 39 c2             	cmp    %rax,%rdx
    feae:	0f 9e c0             	setle  %al
    feb1:	0f b6 c0             	movzbl %al,%eax
    feb4:	f7 d0                	not    %eax
    feb6:	98                   	cwtl   
    feb7:	44 89 e6             	mov    %r12d,%esi
    feba:	89 c7                	mov    %eax,%edi
    febc:	e8 34 a5 ff ff       	callq  a3f5 <safe_mul_func_int16_t_s_s>
    fec1:	0f be c0             	movsbl %al,%eax
    fec4:	89 de                	mov    %ebx,%esi
    fec6:	89 c7                	mov    %eax,%edi
    fec8:	e8 68 a4 ff ff       	callq  a335 <safe_rshift_func_int8_t_s_s>
    fecd:	48 0f bf 85 9c eb ff 	movswq -0x1464(%rbp),%rax
    fed4:	ff 
    fed5:	48 39 85 78 eb ff ff 	cmp    %rax,-0x1488(%rbp)
    fedc:	48 83 bd 78 eb ff ff 	cmpq   $0x1,-0x1488(%rbp)
    fee3:	01 
    fee4:	0f 9f c0             	setg   %al
    fee7:	0f b6 d0             	movzbl %al,%edx
    feea:	0f b7 85 9c eb ff ff 	movzwl -0x1464(%rbp),%eax
    fef1:	0f b6 c0             	movzbl %al,%eax
    fef4:	89 d6                	mov    %edx,%esi
    fef6:	89 c7                	mov    %eax,%edi
    fef8:	e8 96 ac ff ff       	callq  ab93 <safe_mul_func_uint8_t_u_u>
    fefd:	48 8b 05 bc f5 00 00 	mov    0xf5bc(%rip),%rax        # 1f4c0 <g_8>
    ff04:	8b 00                	mov    (%rax),%eax
    ff06:	89 85 c8 ec ff ff    	mov    %eax,-0x1338(%rbp)
    ff0c:	c7 85 cc ec ff ff 00 	movl   $0x0,-0x1334(%rbp)
    ff13:	00 00 00 
    ff16:	c7 85 a4 eb ff ff 00 	movl   $0x0,-0x145c(%rbp)
    ff1d:	00 00 00 
    ff20:	e9 44 01 00 00       	jmpq   10069 <func_36+0x125c>
    ff25:	48 8d 85 28 ed ff ff 	lea    -0x12d8(%rbp),%rax
    ff2c:	48 89 85 70 ef ff ff 	mov    %rax,-0x1090(%rbp)
    ff33:	c7 85 dc eb ff ff 00 	movl   $0x0,-0x1424(%rbp)
    ff3a:	00 00 00 
    ff3d:	eb 21                	jmp    ff60 <func_36+0x1153>
    ff3f:	8b 85 dc eb ff ff    	mov    -0x1424(%rbp),%eax
    ff45:	48 98                	cltq   
    ff47:	48 bb 1d 02 a6 bc 6f 	movabs $0x68bcc46fbca6021d,%rbx
    ff4e:	c4 bc 68 
    ff51:	48 89 9c c5 60 f5 ff 	mov    %rbx,-0xaa0(%rbp,%rax,8)
    ff58:	ff 
    ff59:	83 85 dc eb ff ff 01 	addl   $0x1,-0x1424(%rbp)
    ff60:	83 bd dc eb ff ff 02 	cmpl   $0x2,-0x1424(%rbp)
    ff67:	7e d6                	jle    ff3f <func_36+0x1132>
    ff69:	c7 85 f0 eb ff ff 17 	movl   $0x17,-0x1410(%rbp)
    ff70:	00 00 00 
    ff73:	e9 a4 00 00 00       	jmpq   1001c <func_36+0x120f>
    ff78:	c6 85 8b eb ff ff 4d 	movb   $0x4d,-0x1475(%rbp)
    ff7f:	c7 85 c4 ec ff ff 7c 	movl   $0x5d30d7c,-0x133c(%rbp)
    ff86:	0d d3 05 
    ff89:	48 8b 85 78 eb ff ff 	mov    -0x1488(%rbp),%rax
    ff90:	0f b6 d0             	movzbl %al,%edx
    ff93:	48 8b 85 78 eb ff ff 	mov    -0x1488(%rbp),%rax
    ff9a:	0a 85 8b eb ff ff    	or     -0x1475(%rbp),%al
    ffa0:	0f b6 c0             	movzbl %al,%eax
    ffa3:	89 d6                	mov    %edx,%esi
    ffa5:	89 c7                	mov    %eax,%edi
    ffa7:	e8 e7 ab ff ff       	callq  ab93 <safe_mul_func_uint8_t_u_u>
    ffac:	0f be c0             	movsbl %al,%eax
    ffaf:	89 c6                	mov    %eax,%esi
    ffb1:	bf 29 00 00 00       	mov    $0x29,%edi
    ffb6:	e8 37 a2 ff ff       	callq  a1f2 <safe_sub_func_int8_t_s_s>
    ffbb:	48 8b 85 d8 ec ff ff 	mov    -0x1328(%rbp),%rax
    ffc2:	48 8b 95 78 eb ff ff 	mov    -0x1488(%rbp),%rdx
    ffc9:	88 10                	mov    %dl,(%rax)
    ffcb:	bf 00 00 00 00       	mov    $0x0,%edi
    ffd0:	e8 c1 a5 ff ff       	callq  a596 <safe_unary_minus_func_int32_t_s>
    ffd5:	85 c0                	test   %eax,%eax
    ffd7:	74 07                	je     ffe0 <func_36+0x11d3>
    ffd9:	b8 01 00 00 00       	mov    $0x1,%eax
    ffde:	eb 05                	jmp    ffe5 <func_36+0x11d8>
    ffe0:	b8 00 00 00 00       	mov    $0x0,%eax
    ffe5:	98                   	cwtl   
    ffe6:	89 c7                	mov    %eax,%edi
    ffe8:	e8 1d 33 00 00       	callq  1330a <func_47>
    ffed:	48 89 85 70 ef ff ff 	mov    %rax,-0x1090(%rbp)
    fff4:	c7 85 c4 ec ff ff ca 	movl   $0x18817dca,-0x133c(%rbp)
    fffb:	7d 81 18 
    fffe:	8b 85 f0 eb ff ff    	mov    -0x1410(%rbp),%eax
   10004:	0f b7 c0             	movzwl %ax,%eax
   10007:	be 07 00 00 00       	mov    $0x7,%esi
   1000c:	89 c7                	mov    %eax,%edi
   1000e:	e8 0c ad ff ff       	callq  ad1f <safe_sub_func_uint16_t_u_u>
   10013:	0f b7 c0             	movzwl %ax,%eax
   10016:	89 85 f0 eb ff ff    	mov    %eax,-0x1410(%rbp)
   1001c:	83 bd f0 eb ff ff 10 	cmpl   $0x10,-0x1410(%rbp)
   10023:	0f 84 4f ff ff ff    	je     ff78 <func_36+0x116b>
   10029:	66 c7 05 8e c2 00 00 	movw   $0x0,0xc28e(%rip)        # 1c2c0 <g_278>
   10030:	00 00 
   10032:	eb 28                	jmp    1005c <func_36+0x124f>
   10034:	c6 85 8a eb ff ff 03 	movb   $0x3,-0x1476(%rbp)
   1003b:	0f b6 85 8a eb ff ff 	movzbl -0x1476(%rbp),%eax
   10042:	83 c0 01             	add    $0x1,%eax
   10045:	88 85 8a eb ff ff    	mov    %al,-0x1476(%rbp)
   1004b:	0f b7 05 6e c2 00 00 	movzwl 0xc26e(%rip),%eax        # 1c2c0 <g_278>
   10052:	83 c0 01             	add    $0x1,%eax
   10055:	66 89 05 64 c2 00 00 	mov    %ax,0xc264(%rip)        # 1c2c0 <g_278>
   1005c:	0f b7 05 5d c2 00 00 	movzwl 0xc25d(%rip),%eax        # 1c2c0 <g_278>
   10063:	66 83 f8 12          	cmp    $0x12,%ax
   10067:	74 cb                	je     10034 <func_36+0x1227>
   10069:	48 8b 05 10 f8 00 00 	mov    0xf810(%rip),%rax        # 1f880 <g_336>
   10070:	8b 00                	mov    (%rax),%eax
   10072:	89 85 bc ec ff ff    	mov    %eax,-0x1344(%rbp)
   10078:	8b 85 bc ec ff ff    	mov    -0x1344(%rbp),%eax
   1007e:	89 85 50 f0 ff ff    	mov    %eax,-0xfb0(%rbp)
   10084:	48 c7 85 e0 ec ff ff 	movq   $0x12,-0x1320(%rbp)
   1008b:	12 00 00 00 
   1008f:	90                   	nop
   10090:	48 8b 85 e0 ec ff ff 	mov    -0x1320(%rbp),%rax
   10097:	48 83 f8 e8          	cmp    $0xffffffffffffffe8,%rax
   1009b:	7c 13                	jl     100b0 <func_36+0x12a3>
   1009d:	0f b7 05 7c c2 00 00 	movzwl 0xc27c(%rip),%eax        # 1c320 <g_820>
   100a4:	c1 e0 04             	shl    $0x4,%eax
   100a7:	66 c1 f8 04          	sar    $0x4,%ax
   100ab:	e9 b9 2b 00 00       	jmpq   12c69 <func_36+0x3e5c>
   100b0:	48 8b 85 00 ed ff ff 	mov    -0x1300(%rbp),%rax
   100b7:	0f be c0             	movsbl %al,%eax
   100ba:	be 07 00 00 00       	mov    $0x7,%esi
   100bf:	89 c7                	mov    %eax,%edi
   100c1:	e8 2c a1 ff ff       	callq  a1f2 <safe_sub_func_int8_t_s_s>
   100c6:	48 0f be c0          	movsbq %al,%rax
   100ca:	48 89 85 00 ed ff ff 	mov    %rax,-0x1300(%rbp)
   100d1:	48 8b 85 00 ed ff ff 	mov    -0x1300(%rbp),%rax
   100d8:	48 83 f8 e4          	cmp    $0xffffffffffffffe4,%rax
   100dc:	0f 8d eb f9 ff ff    	jge    facd <func_36+0xcc0>
   100e2:	48 c7 85 e0 ec ff ff 	movq   $0x0,-0x1320(%rbp)
   100e9:	00 00 00 00 
   100ed:	e9 99 04 00 00       	jmpq   1058b <func_36+0x177e>
   100f2:	66 c7 85 c0 f8 ff ff 	movw   $0x1,-0x740(%rbp)
   100f9:	01 00 
   100fb:	66 c7 85 c2 f8 ff ff 	movw   $0x2d7c,-0x73e(%rbp)
   10102:	7c 2d 
   10104:	66 c7 85 c4 f8 ff ff 	movw   $0xffff,-0x73c(%rbp)
   1010b:	ff ff 
   1010d:	66 c7 85 c6 f8 ff ff 	movw   $0x1,-0x73a(%rbp)
   10114:	01 00 
   10116:	66 c7 85 c8 f8 ff ff 	movw   $0x1,-0x738(%rbp)
   1011d:	01 00 
   1011f:	66 c7 85 ca f8 ff ff 	movw   $0xffff,-0x736(%rbp)
   10126:	ff ff 
   10128:	66 c7 85 cc f8 ff ff 	movw   $0x2d7c,-0x734(%rbp)
   1012f:	7c 2d 
   10131:	66 c7 85 ce f8 ff ff 	movw   $0x1,-0x732(%rbp)
   10138:	01 00 
   1013a:	66 c7 85 d0 f8 ff ff 	movw   $0xffff,-0x730(%rbp)
   10141:	ff ff 
   10143:	66 c7 85 d2 f8 ff ff 	movw   $0xddb1,-0x72e(%rbp)
   1014a:	b1 dd 
   1014c:	66 c7 85 d4 f8 ff ff 	movw   $0x1491,-0x72c(%rbp)
   10153:	91 14 
   10155:	66 c7 85 d6 f8 ff ff 	movw   $0x6fb3,-0x72a(%rbp)
   1015c:	b3 6f 
   1015e:	66 c7 85 d8 f8 ff ff 	movw   $0x6,-0x728(%rbp)
   10165:	06 00 
   10167:	66 c7 85 da f8 ff ff 	movw   $0x6,-0x726(%rbp)
   1016e:	06 00 
   10170:	66 c7 85 dc f8 ff ff 	movw   $0x6fb3,-0x724(%rbp)
   10177:	b3 6f 
   10179:	66 c7 85 de f8 ff ff 	movw   $0x1491,-0x722(%rbp)
   10180:	91 14 
   10182:	66 c7 85 e0 f8 ff ff 	movw   $0xddb1,-0x720(%rbp)
   10189:	b1 dd 
   1018b:	66 c7 85 e2 f8 ff ff 	movw   $0x6fb3,-0x71e(%rbp)
   10192:	b3 6f 
   10194:	66 c7 85 e4 f8 ff ff 	movw   $0x1,-0x71c(%rbp)
   1019b:	01 00 
   1019d:	66 c7 85 e6 f8 ff ff 	movw   $0x2d7c,-0x71a(%rbp)
   101a4:	7c 2d 
   101a6:	66 c7 85 e8 f8 ff ff 	movw   $0xffff,-0x718(%rbp)
   101ad:	ff ff 
   101af:	66 c7 85 ea f8 ff ff 	movw   $0x1,-0x716(%rbp)
   101b6:	01 00 
   101b8:	66 c7 85 ec f8 ff ff 	movw   $0x1,-0x714(%rbp)
   101bf:	01 00 
   101c1:	66 c7 85 ee f8 ff ff 	movw   $0xffff,-0x712(%rbp)
   101c8:	ff ff 
   101ca:	66 c7 85 f0 f8 ff ff 	movw   $0x2d7c,-0x710(%rbp)
   101d1:	7c 2d 
   101d3:	66 c7 85 f2 f8 ff ff 	movw   $0x1,-0x70e(%rbp)
   101da:	01 00 
   101dc:	66 c7 85 f4 f8 ff ff 	movw   $0xffff,-0x70c(%rbp)
   101e3:	ff ff 
   101e5:	66 c7 85 f6 f8 ff ff 	movw   $0xddb1,-0x70a(%rbp)
   101ec:	b1 dd 
   101ee:	66 c7 85 f8 f8 ff ff 	movw   $0x1491,-0x708(%rbp)
   101f5:	91 14 
   101f7:	66 c7 85 fa f8 ff ff 	movw   $0x6fb3,-0x706(%rbp)
   101fe:	b3 6f 
   10200:	66 c7 85 fc f8 ff ff 	movw   $0x6,-0x704(%rbp)
   10207:	06 00 
   10209:	66 c7 85 fe f8 ff ff 	movw   $0x6,-0x702(%rbp)
   10210:	06 00 
   10212:	66 c7 85 00 f9 ff ff 	movw   $0x6fb3,-0x700(%rbp)
   10219:	b3 6f 
   1021b:	66 c7 85 02 f9 ff ff 	movw   $0x1491,-0x6fe(%rbp)
   10222:	91 14 
   10224:	66 c7 85 04 f9 ff ff 	movw   $0xddb1,-0x6fc(%rbp)
   1022b:	b1 dd 
   1022d:	66 c7 85 06 f9 ff ff 	movw   $0x6fb3,-0x6fa(%rbp)
   10234:	b3 6f 
   10236:	66 c7 85 08 f9 ff ff 	movw   $0x1,-0x6f8(%rbp)
   1023d:	01 00 
   1023f:	66 c7 85 0a f9 ff ff 	movw   $0x2d7c,-0x6f6(%rbp)
   10246:	7c 2d 
   10248:	66 c7 85 0c f9 ff ff 	movw   $0xffff,-0x6f4(%rbp)
   1024f:	ff ff 
   10251:	66 c7 85 0e f9 ff ff 	movw   $0x1,-0x6f2(%rbp)
   10258:	01 00 
   1025a:	66 c7 85 10 f9 ff ff 	movw   $0x1,-0x6f0(%rbp)
   10261:	01 00 
   10263:	66 c7 85 12 f9 ff ff 	movw   $0xffff,-0x6ee(%rbp)
   1026a:	ff ff 
   1026c:	66 c7 85 14 f9 ff ff 	movw   $0x2d7c,-0x6ec(%rbp)
   10273:	7c 2d 
   10275:	66 c7 85 16 f9 ff ff 	movw   $0x1,-0x6ea(%rbp)
   1027c:	01 00 
   1027e:	66 c7 85 18 f9 ff ff 	movw   $0xffff,-0x6e8(%rbp)
   10285:	ff ff 
   10287:	48 8d 05 ac bd 00 00 	lea    0xbdac(%rip),%rax        # 1c03a <g_167>
   1028e:	48 89 85 48 ef ff ff 	mov    %rax,-0x10b8(%rbp)
   10295:	c7 85 b0 ec ff ff e1 	movl   $0xc009d5e1,-0x1350(%rbp)
   1029c:	d5 09 c0 
   1029f:	48 c7 85 50 ef ff ff 	movq   $0x0,-0x10b0(%rbp)
   102a6:	00 00 00 00 
   102aa:	48 8d 05 8a bd 00 00 	lea    0xbd8a(%rip),%rax        # 1c03b <g_190>
   102b1:	48 89 85 58 ef ff ff 	mov    %rax,-0x10a8(%rbp)
   102b8:	c7 85 ec eb ff ff 00 	movl   $0x0,-0x1414(%rbp)
   102bf:	00 00 00 
   102c2:	e9 60 02 00 00       	jmpq   10527 <func_36+0x171a>
   102c7:	c7 85 b4 ec ff ff 98 	movl   $0x909df998,-0x134c(%rbp)
   102ce:	f9 9d 90 
   102d1:	48 8b 05 50 c0 00 00 	mov    0xc050(%rip),%rax        # 1c328 <g_820+0x8>
   102d8:	c1 e0 02             	shl    $0x2,%eax
   102db:	c1 f8 05             	sar    $0x5,%eax
   102de:	85 c0                	test   %eax,%eax
   102e0:	74 26                	je     10308 <func_36+0x14fb>
   102e2:	48 8b 85 d8 ef ff ff 	mov    -0x1028(%rbp),%rax
   102e9:	48 85 c0             	test   %rax,%rax
   102ec:	74 1a                	je     10308 <func_36+0x14fb>
   102ee:	48 8b 85 78 eb ff ff 	mov    -0x1488(%rbp),%rax
   102f5:	66 89 85 12 f9 ff ff 	mov    %ax,-0x6ee(%rbp)
   102fc:	48 8b 05 2d bd 00 00 	mov    0xbd2d(%rip),%rax        # 1c030 <g_106>
   10303:	e9 61 29 00 00       	jmpq   12c69 <func_36+0x3e5c>
   10308:	c7 85 b8 ec ff ff 71 	movl   $0x3b38be71,-0x1348(%rbp)
   1030f:	be 38 3b 
   10312:	48 8d 05 23 bd 00 00 	lea    0xbd23(%rip),%rax        # 1c03c <g_199>
   10319:	48 89 85 60 ef ff ff 	mov    %rax,-0x10a0(%rbp)
   10320:	8b 9d b4 ec ff ff    	mov    -0x134c(%rbp),%ebx
   10326:	0f b7 05 f3 bf 00 00 	movzwl 0xbff3(%rip),%eax        # 1c320 <g_820>
   1032d:	c1 e0 04             	shl    $0x4,%eax
   10330:	66 c1 f8 04          	sar    $0x4,%ax
   10334:	44 0f bf e0          	movswl %ax,%r12d
   10338:	48 8b 85 78 eb ff ff 	mov    -0x1488(%rbp),%rax
   1033f:	48 ba a3 6c 64 e4 74 	movabs $0xd7d02c74e4646ca3,%rdx
   10346:	2c d0 d7 
   10349:	48 39 d0             	cmp    %rdx,%rax
   1034c:	77 29                	ja     10377 <func_36+0x156a>
   1034e:	48 8b 85 f0 ef ff ff 	mov    -0x1010(%rbp),%rax
   10355:	48 85 c0             	test   %rax,%rax
   10358:	0f 94 c0             	sete   %al
   1035b:	0f b6 c0             	movzbl %al,%eax
   1035e:	89 85 b8 ec ff ff    	mov    %eax,-0x1348(%rbp)
   10364:	81 bd b8 ec ff ff 33 	cmpl   $0x6ee2df33,-0x1348(%rbp)
   1036b:	df e2 6e 
   1036e:	74 07                	je     10377 <func_36+0x156a>
   10370:	ba 01 00 00 00       	mov    $0x1,%edx
   10375:	eb 05                	jmp    1037c <func_36+0x156f>
   10377:	ba 00 00 00 00       	mov    $0x0,%edx
   1037c:	0f b6 05 dd bc 00 00 	movzbl 0xbcdd(%rip),%eax        # 1c060 <g_228>
   10383:	0f b6 c0             	movzbl %al,%eax
   10386:	39 c2                	cmp    %eax,%edx
   10388:	0f 95 c0             	setne  %al
   1038b:	0f b6 c0             	movzbl %al,%eax
   1038e:	be eb 00 00 00       	mov    $0xeb,%esi
   10393:	89 c7                	mov    %eax,%edi
   10395:	e8 f9 a7 ff ff       	callq  ab93 <safe_mul_func_uint8_t_u_u>
   1039a:	0f b7 85 12 f9 ff ff 	movzwl -0x6ee(%rbp),%eax
   103a1:	44 0f be e8          	movsbl %al,%r13d
   103a5:	48 8b 85 78 eb ff ff 	mov    -0x1488(%rbp),%rax
   103ac:	0f be c0             	movsbl %al,%eax
   103af:	be 07 00 00 00       	mov    $0x7,%esi
   103b4:	89 c7                	mov    %eax,%edi
   103b6:	e8 33 9f ff ff       	callq  a2ee <safe_lshift_func_int8_t_s_u>
   103bb:	0f be c0             	movsbl %al,%eax
   103be:	44 89 ee             	mov    %r13d,%esi
   103c1:	89 c7                	mov    %eax,%edi
   103c3:	e8 4a 9e ff ff       	callq  a212 <safe_mul_func_int8_t_s_s>
   103c8:	84 c0                	test   %al,%al
   103ca:	75 0e                	jne    103da <func_36+0x15cd>
   103cc:	0f b7 05 4d bf 00 00 	movzwl 0xbf4d(%rip),%eax        # 1c320 <g_820>
   103d3:	66 25 ff 0f          	and    $0xfff,%ax
   103d7:	66 85 c0             	test   %ax,%ax
   103da:	0f b6 05 7f bc 00 00 	movzbl 0xbc7f(%rip),%eax        # 1c060 <g_228>
   103e1:	0f b6 c0             	movzbl %al,%eax
   103e4:	48 33 85 78 eb ff ff 	xor    -0x1488(%rbp),%rax
   103eb:	48 89 c2             	mov    %rax,%rdx
   103ee:	48 8b 05 63 bc 00 00 	mov    0xbc63(%rip),%rax        # 1c058 <g_218+0x8>
   103f5:	c1 e0 02             	shl    $0x2,%eax
   103f8:	c1 f8 05             	sar    $0x5,%eax
   103fb:	48 98                	cltq   
   103fd:	48 39 c2             	cmp    %rax,%rdx
   10400:	8b 05 06 bf 00 00    	mov    0xbf06(%rip),%eax        # 1c30c <g_671>
   10406:	bf 00 00 00 00       	mov    $0x0,%edi
   1040b:	e8 96 aa ff ff       	callq  aea6 <safe_unary_minus_func_uint32_t_u>
   10410:	0f be c0             	movsbl %al,%eax
   10413:	44 89 e6             	mov    %r12d,%esi
   10416:	89 c7                	mov    %eax,%edi
   10418:	e8 84 9e ff ff       	callq  a2a1 <safe_lshift_func_int8_t_s_s>
   1041d:	0f be c0             	movsbl %al,%eax
   10420:	39 85 b4 ec ff ff    	cmp    %eax,-0x134c(%rbp)
   10426:	0f 94 c0             	sete   %al
   10429:	0f b6 c0             	movzbl %al,%eax
   1042c:	be 04 00 00 00       	mov    $0x4,%esi
   10431:	89 c7                	mov    %eax,%edi
   10433:	e8 86 a8 ff ff       	callq  acbe <safe_rshift_func_uint8_t_u_u>
   10438:	8b 85 d0 eb ff ff    	mov    -0x1430(%rbp),%eax
   1043e:	44 0f be e0          	movsbl %al,%r12d
   10442:	48 8b 85 78 eb ff ff 	mov    -0x1488(%rbp),%rax
   10449:	0f b6 c0             	movzbl %al,%eax
   1044c:	be 01 00 00 00       	mov    $0x1,%esi
   10451:	89 c7                	mov    %eax,%edi
   10453:	e8 83 a7 ff ff       	callq  abdb <safe_div_func_uint8_t_u_u>
   10458:	0f be c0             	movsbl %al,%eax
   1045b:	44 89 e6             	mov    %r12d,%esi
   1045e:	89 c7                	mov    %eax,%edi
   10460:	e8 8d 9d ff ff       	callq  a1f2 <safe_sub_func_int8_t_s_s>
   10465:	0f be c0             	movsbl %al,%eax
   10468:	ba 00 00 00 00       	mov    $0x0,%edx
   1046d:	39 d0                	cmp    %edx,%eax
   1046f:	89 de                	mov    %ebx,%esi
   10471:	bf 00 00 00 00       	mov    $0x0,%edi
   10476:	e8 55 aa ff ff       	callq  aed0 <safe_sub_func_uint32_t_u_u>
   1047b:	8b 95 78 ec ff ff    	mov    -0x1388(%rbp),%edx
   10481:	39 d0                	cmp    %edx,%eax
   10483:	0f 93 c0             	setae  %al
   10486:	0f b6 c0             	movzbl %al,%eax
   10489:	89 85 50 f0 ff ff    	mov    %eax,-0xfb0(%rbp)
   1048f:	48 8b 85 78 eb ff ff 	mov    -0x1488(%rbp),%rax
   10496:	0c 97                	or     $0x97,%al
   10498:	41 89 c4             	mov    %eax,%r12d
   1049b:	48 8b 95 20 ed ff ff 	mov    -0x12e0(%rbp),%rdx
   104a2:	48 8b 85 20 ed ff ff 	mov    -0x12e0(%rbp),%rax
   104a9:	48 8b 12             	mov    (%rdx),%rdx
   104ac:	48 89 10             	mov    %rdx,(%rax)
   104af:	48 8b 00             	mov    (%rax),%rax
   104b2:	48 8d 15 57 be 00 00 	lea    0xbe57(%rip),%rdx        # 1c310 <g_714>
   104b9:	48 39 d0             	cmp    %rdx,%rax
   104bc:	0f 94 c0             	sete   %al
   104bf:	0f b6 d8             	movzbl %al,%ebx
   104c2:	48 8b 85 78 eb ff ff 	mov    -0x1488(%rbp),%rax
   104c9:	0f b7 c0             	movzwl %ax,%eax
   104cc:	be 0f 00 00 00       	mov    $0xf,%esi
   104d1:	89 c7                	mov    %eax,%edi
   104d3:	e8 e6 a8 ff ff       	callq  adbe <safe_lshift_func_uint16_t_u_s>
   104d8:	0f b7 c0             	movzwl %ax,%eax
   104db:	39 c3                	cmp    %eax,%ebx
   104dd:	0f 9c c0             	setl   %al
   104e0:	0f b6 d8             	movzbl %al,%ebx
   104e3:	0f b7 05 66 bb 00 00 	movzwl 0xbb66(%rip),%eax        # 1c050 <g_218>
   104ea:	c1 e0 04             	shl    $0x4,%eax
   104ed:	66 c1 f8 04          	sar    $0x4,%ax
   104f1:	0f b6 c0             	movzbl %al,%eax
   104f4:	be 05 00 00 00       	mov    $0x5,%esi
   104f9:	89 c7                	mov    %eax,%edi
   104fb:	e8 8d a7 ff ff       	callq  ac8d <safe_rshift_func_uint8_t_u_s>
   10500:	0f b6 d0             	movzbl %al,%edx
   10503:	48 8b 85 60 ef ff ff 	mov    -0x10a0(%rbp),%rax
   1050a:	89 10                	mov    %edx,(%rax)
   1050c:	48 8b 85 60 ef ff ff 	mov    -0x10a0(%rbp),%rax
   10513:	8b 00                	mov    (%rax),%eax
   10515:	31 d8                	xor    %ebx,%eax
   10517:	44 31 e0             	xor    %r12d,%eax
   1051a:	89 85 b0 ec ff ff    	mov    %eax,-0x1350(%rbp)
   10520:	83 ad ec eb ff ff 01 	subl   $0x1,-0x1414(%rbp)
   10527:	83 bd ec eb ff ff ff 	cmpl   $0xffffffff,-0x1414(%rbp)
   1052e:	0f 85 93 fd ff ff    	jne    102c7 <func_36+0x14ba>
   10534:	0f b7 85 12 f9 ff ff 	movzwl -0x6ee(%rbp),%eax
   1053b:	0f b7 d8             	movzwl %ax,%ebx
   1053e:	0f b7 85 12 f9 ff ff 	movzwl -0x6ee(%rbp),%eax
   10545:	89 c2                	mov    %eax,%edx
   10547:	48 8b 85 58 ef ff ff 	mov    -0x10a8(%rbp),%rax
   1054e:	88 10                	mov    %dl,(%rax)
   10550:	48 8b 85 58 ef ff ff 	mov    -0x10a8(%rbp),%rax
   10557:	0f b6 00             	movzbl (%rax),%eax
   1055a:	0f b6 c0             	movzbl %al,%eax
   1055d:	be 8f 00 00 00       	mov    $0x8f,%esi
   10562:	89 c7                	mov    %eax,%edi
   10564:	e8 2a a6 ff ff       	callq  ab93 <safe_mul_func_uint8_t_u_u>
   10569:	0f b6 c0             	movzbl %al,%eax
   1056c:	09 d8                	or     %ebx,%eax
   1056e:	25 6c 23 20 1e       	and    $0x1e20236c,%eax
   10573:	89 85 50 f0 ff ff    	mov    %eax,-0xfb0(%rbp)
   10579:	48 8b 85 e0 ec ff ff 	mov    -0x1320(%rbp),%rax
   10580:	48 83 c0 01          	add    $0x1,%rax
   10584:	48 89 85 e0 ec ff ff 	mov    %rax,-0x1320(%rbp)
   1058b:	48 8b 85 e0 ec ff ff 	mov    -0x1320(%rbp),%rax
   10592:	48 83 f8 0b          	cmp    $0xb,%rax
   10596:	0f 84 56 fb ff ff    	je     100f2 <func_36+0x12e5>
   1059c:	c7 85 ec eb ff ff 00 	movl   $0x0,-0x1414(%rbp)
   105a3:	00 00 00 
   105a6:	e9 38 12 00 00       	jmpq   117e3 <func_36+0x29d6>
   105ab:	c7 85 84 ec ff ff 01 	movl   $0x1,-0x137c(%rbp)
   105b2:	00 00 00 
   105b5:	48 8d 85 60 f5 ff ff 	lea    -0xaa0(%rbp),%rax
   105bc:	48 8d 15 3d 7c 00 00 	lea    0x7c3d(%rip),%rdx        # 18200 <g_3500+0x1030>
   105c3:	b9 6c 00 00 00       	mov    $0x6c,%ecx
   105c8:	48 89 c7             	mov    %rax,%rdi
   105cb:	48 89 d6             	mov    %rdx,%rsi
   105ce:	f3 48 a5             	rep movsq %ds:(%rsi),%es:(%rdi)
   105d1:	48 8d 05 4c bd 00 00 	lea    0xbd4c(%rip),%rax        # 1c324 <g_820+0x4>
   105d8:	48 89 85 38 ed ff ff 	mov    %rax,-0x12c8(%rbp)
   105df:	48 8d 05 ba f4 00 00 	lea    0xf4ba(%rip),%rax        # 1faa0 <g_1090>
   105e6:	48 89 85 e8 ee ff ff 	mov    %rax,-0x1118(%rbp)
   105ed:	c6 85 89 eb ff ff 00 	movb   $0x0,-0x1477(%rbp)
   105f4:	c7 85 88 ec ff ff 65 	movl   $0x77a99465,-0x1378(%rbp)
   105fb:	94 a9 77 
   105fe:	83 bd 84 ec ff ff 00 	cmpl   $0x0,-0x137c(%rbp)
   10605:	0f 84 13 09 00 00    	je     10f1e <func_36+0x2111>
   1060b:	48 8b 85 d0 ec ff ff 	mov    -0x1330(%rbp),%rax
   10612:	66 c7 00 46 68       	movw   $0x6846,(%rax)
   10617:	0f b7 05 12 bd 00 00 	movzwl 0xbd12(%rip),%eax        # 1c330 <g_1038>
   1061e:	0f b6 c0             	movzbl %al,%eax
   10621:	be 93 00 00 00       	mov    $0x93,%esi
   10626:	89 c7                	mov    %eax,%edi
   10628:	e8 66 a5 ff ff       	callq  ab93 <safe_mul_func_uint8_t_u_u>
   1062d:	0f b6 c0             	movzbl %al,%eax
   10630:	be 46 68 00 00       	mov    $0x6846,%esi
   10635:	89 c7                	mov    %eax,%edi
   10637:	e8 b9 9d ff ff       	callq  a3f5 <safe_mul_func_int16_t_s_s>
   1063c:	48 8b 85 d8 ec ff ff 	mov    -0x1328(%rbp),%rax
   10643:	0f b6 10             	movzbl (%rax),%edx
   10646:	0f b7 05 df b9 00 00 	movzwl 0xb9df(%rip),%eax        # 1c02c <g_104>
   1064d:	89 c1                	mov    %eax,%ecx
   1064f:	48 8b 85 d8 ec ff ff 	mov    -0x1328(%rbp),%rax
   10656:	09 ca                	or     %ecx,%edx
   10658:	88 10                	mov    %dl,(%rax)
   1065a:	0f b6 00             	movzbl (%rax),%eax
   1065d:	48 0f be c0          	movsbq %al,%rax
   10661:	48 39 85 78 eb ff ff 	cmp    %rax,-0x1488(%rbp)
   10668:	0f 95 c0             	setne  %al
   1066b:	0f b6 c0             	movzbl %al,%eax
   1066e:	48 89 c7             	mov    %rax,%rdi
   10671:	e8 a0 a1 ff ff       	callq  a816 <safe_unary_minus_func_int64_t_s>
   10676:	89 c2                	mov    %eax,%edx
   10678:	48 8b 85 78 eb ff ff 	mov    -0x1488(%rbp),%rax
   1067f:	89 85 b4 f7 ff ff    	mov    %eax,-0x84c(%rbp)
   10685:	8b 85 b4 f7 ff ff    	mov    -0x84c(%rbp),%eax
   1068b:	89 d6                	mov    %edx,%esi
   1068d:	89 c7                	mov    %eax,%edi
   1068f:	e8 22 9f ff ff       	callq  a5b6 <safe_add_func_int32_t_s_s>
   10694:	85 c0                	test   %eax,%eax
   10696:	0f 9f c0             	setg   %al
   10699:	0f b6 c0             	movzbl %al,%eax
   1069c:	89 c6                	mov    %eax,%esi
   1069e:	bf 16 00 00 00       	mov    $0x16,%edi
   106a3:	e8 c4 9c ff ff       	callq  a36c <safe_rshift_func_int8_t_s_u>
   106a8:	0f be d0             	movsbl %al,%edx
   106ab:	b8 ca 02 00 00       	mov    $0x2ca,%eax
   106b0:	0f b6 c0             	movzbl %al,%eax
   106b3:	89 d6                	mov    %edx,%esi
   106b5:	89 c7                	mov    %eax,%edi
   106b7:	e8 02 a6 ff ff       	callq  acbe <safe_rshift_func_uint8_t_u_u>
   106bc:	0f b6 c0             	movzbl %al,%eax
   106bf:	48 39 85 78 eb ff ff 	cmp    %rax,-0x1488(%rbp)
   106c6:	0f 84 52 08 00 00    	je     10f1e <func_36+0x2111>
   106cc:	48 8d 85 d0 ef ff ff 	lea    -0x1030(%rbp),%rax
   106d3:	48 89 85 28 ed ff ff 	mov    %rax,-0x12d8(%rbp)
   106da:	48 8d 85 28 ed ff ff 	lea    -0x12d8(%rbp),%rax
   106e1:	48 89 85 c0 f8 ff ff 	mov    %rax,-0x740(%rbp)
   106e8:	48 8d 85 28 ed ff ff 	lea    -0x12d8(%rbp),%rax
   106ef:	48 89 85 c8 f8 ff ff 	mov    %rax,-0x738(%rbp)
   106f6:	48 8d 85 28 ed ff ff 	lea    -0x12d8(%rbp),%rax
   106fd:	48 89 85 d0 f8 ff ff 	mov    %rax,-0x730(%rbp)
   10704:	48 8d 85 28 ed ff ff 	lea    -0x12d8(%rbp),%rax
   1070b:	48 89 85 d8 f8 ff ff 	mov    %rax,-0x728(%rbp)
   10712:	48 8d 85 28 ed ff ff 	lea    -0x12d8(%rbp),%rax
   10719:	48 89 85 e0 f8 ff ff 	mov    %rax,-0x720(%rbp)
   10720:	48 8d 85 28 ed ff ff 	lea    -0x12d8(%rbp),%rax
   10727:	48 89 85 e8 f8 ff ff 	mov    %rax,-0x718(%rbp)
   1072e:	48 8d 85 28 ed ff ff 	lea    -0x12d8(%rbp),%rax
   10735:	48 89 85 f0 f8 ff ff 	mov    %rax,-0x710(%rbp)
   1073c:	48 8d 85 28 ed ff ff 	lea    -0x12d8(%rbp),%rax
   10743:	48 89 85 f8 f8 ff ff 	mov    %rax,-0x708(%rbp)
   1074a:	48 8d 85 28 ed ff ff 	lea    -0x12d8(%rbp),%rax
   10751:	48 89 85 00 f9 ff ff 	mov    %rax,-0x700(%rbp)
   10758:	48 8d 85 28 ed ff ff 	lea    -0x12d8(%rbp),%rax
   1075f:	48 89 85 08 f9 ff ff 	mov    %rax,-0x6f8(%rbp)
   10766:	48 8d 85 28 ed ff ff 	lea    -0x12d8(%rbp),%rax
   1076d:	48 89 85 10 f9 ff ff 	mov    %rax,-0x6f0(%rbp)
   10774:	48 8d 85 28 ed ff ff 	lea    -0x12d8(%rbp),%rax
   1077b:	48 89 85 18 f9 ff ff 	mov    %rax,-0x6e8(%rbp)
   10782:	48 8d 85 28 ed ff ff 	lea    -0x12d8(%rbp),%rax
   10789:	48 89 85 20 f9 ff ff 	mov    %rax,-0x6e0(%rbp)
   10790:	48 8d 85 28 ed ff ff 	lea    -0x12d8(%rbp),%rax
   10797:	48 89 85 28 f9 ff ff 	mov    %rax,-0x6d8(%rbp)
   1079e:	48 8d 85 28 ed ff ff 	lea    -0x12d8(%rbp),%rax
   107a5:	48 89 85 30 f9 ff ff 	mov    %rax,-0x6d0(%rbp)
   107ac:	48 8d 85 28 ed ff ff 	lea    -0x12d8(%rbp),%rax
   107b3:	48 89 85 38 f9 ff ff 	mov    %rax,-0x6c8(%rbp)
   107ba:	48 8d 85 28 ed ff ff 	lea    -0x12d8(%rbp),%rax
   107c1:	48 89 85 40 f9 ff ff 	mov    %rax,-0x6c0(%rbp)
   107c8:	48 8d 85 28 ed ff ff 	lea    -0x12d8(%rbp),%rax
   107cf:	48 89 85 48 f9 ff ff 	mov    %rax,-0x6b8(%rbp)
   107d6:	48 8d 85 28 ed ff ff 	lea    -0x12d8(%rbp),%rax
   107dd:	48 89 85 50 f9 ff ff 	mov    %rax,-0x6b0(%rbp)
   107e4:	48 8d 85 28 ed ff ff 	lea    -0x12d8(%rbp),%rax
   107eb:	48 89 85 58 f9 ff ff 	mov    %rax,-0x6a8(%rbp)
   107f2:	48 8d 85 28 ed ff ff 	lea    -0x12d8(%rbp),%rax
   107f9:	48 89 85 60 f9 ff ff 	mov    %rax,-0x6a0(%rbp)
   10800:	48 8d 85 28 ed ff ff 	lea    -0x12d8(%rbp),%rax
   10807:	48 89 85 68 f9 ff ff 	mov    %rax,-0x698(%rbp)
   1080e:	48 8d 85 28 ed ff ff 	lea    -0x12d8(%rbp),%rax
   10815:	48 89 85 70 f9 ff ff 	mov    %rax,-0x690(%rbp)
   1081c:	48 8d 85 28 ed ff ff 	lea    -0x12d8(%rbp),%rax
   10823:	48 89 85 78 f9 ff ff 	mov    %rax,-0x688(%rbp)
   1082a:	48 8d 85 28 ed ff ff 	lea    -0x12d8(%rbp),%rax
   10831:	48 89 85 80 f9 ff ff 	mov    %rax,-0x680(%rbp)
   10838:	48 8d 85 28 ed ff ff 	lea    -0x12d8(%rbp),%rax
   1083f:	48 89 85 88 f9 ff ff 	mov    %rax,-0x678(%rbp)
   10846:	48 8d 85 28 ed ff ff 	lea    -0x12d8(%rbp),%rax
   1084d:	48 89 85 90 f9 ff ff 	mov    %rax,-0x670(%rbp)
   10854:	48 8d 85 28 ed ff ff 	lea    -0x12d8(%rbp),%rax
   1085b:	48 89 85 98 f9 ff ff 	mov    %rax,-0x668(%rbp)
   10862:	48 8d 85 28 ed ff ff 	lea    -0x12d8(%rbp),%rax
   10869:	48 89 85 a0 f9 ff ff 	mov    %rax,-0x660(%rbp)
   10870:	48 8d 85 28 ed ff ff 	lea    -0x12d8(%rbp),%rax
   10877:	48 89 85 a8 f9 ff ff 	mov    %rax,-0x658(%rbp)
   1087e:	48 8d 85 28 ed ff ff 	lea    -0x12d8(%rbp),%rax
   10885:	48 89 85 b0 f9 ff ff 	mov    %rax,-0x650(%rbp)
   1088c:	48 8d 85 28 ed ff ff 	lea    -0x12d8(%rbp),%rax
   10893:	48 89 85 b8 f9 ff ff 	mov    %rax,-0x648(%rbp)
   1089a:	48 8d 85 28 ed ff ff 	lea    -0x12d8(%rbp),%rax
   108a1:	48 89 85 c0 f9 ff ff 	mov    %rax,-0x640(%rbp)
   108a8:	48 8d 85 28 ed ff ff 	lea    -0x12d8(%rbp),%rax
   108af:	48 89 85 c8 f9 ff ff 	mov    %rax,-0x638(%rbp)
   108b6:	48 8d 85 28 ed ff ff 	lea    -0x12d8(%rbp),%rax
   108bd:	48 89 85 d0 f9 ff ff 	mov    %rax,-0x630(%rbp)
   108c4:	48 8d 85 28 ed ff ff 	lea    -0x12d8(%rbp),%rax
   108cb:	48 89 85 d8 f9 ff ff 	mov    %rax,-0x628(%rbp)
   108d2:	48 8d 85 28 ed ff ff 	lea    -0x12d8(%rbp),%rax
   108d9:	48 89 85 e0 f9 ff ff 	mov    %rax,-0x620(%rbp)
   108e0:	48 8d 85 28 ed ff ff 	lea    -0x12d8(%rbp),%rax
   108e7:	48 89 85 e8 f9 ff ff 	mov    %rax,-0x618(%rbp)
   108ee:	48 8d 85 28 ed ff ff 	lea    -0x12d8(%rbp),%rax
   108f5:	48 89 85 f0 f9 ff ff 	mov    %rax,-0x610(%rbp)
   108fc:	48 8d 85 28 ed ff ff 	lea    -0x12d8(%rbp),%rax
   10903:	48 89 85 f8 f9 ff ff 	mov    %rax,-0x608(%rbp)
   1090a:	48 8d 85 28 ed ff ff 	lea    -0x12d8(%rbp),%rax
   10911:	48 89 85 00 fa ff ff 	mov    %rax,-0x600(%rbp)
   10918:	48 8d 85 28 ed ff ff 	lea    -0x12d8(%rbp),%rax
   1091f:	48 89 85 08 fa ff ff 	mov    %rax,-0x5f8(%rbp)
   10926:	48 8d 85 28 ed ff ff 	lea    -0x12d8(%rbp),%rax
   1092d:	48 89 85 10 fa ff ff 	mov    %rax,-0x5f0(%rbp)
   10934:	48 8d 85 28 ed ff ff 	lea    -0x12d8(%rbp),%rax
   1093b:	48 89 85 18 fa ff ff 	mov    %rax,-0x5e8(%rbp)
   10942:	48 8d 85 28 ed ff ff 	lea    -0x12d8(%rbp),%rax
   10949:	48 89 85 20 fa ff ff 	mov    %rax,-0x5e0(%rbp)
   10950:	48 8d 85 28 ed ff ff 	lea    -0x12d8(%rbp),%rax
   10957:	48 89 85 28 fa ff ff 	mov    %rax,-0x5d8(%rbp)
   1095e:	48 8d 85 28 ed ff ff 	lea    -0x12d8(%rbp),%rax
   10965:	48 89 85 30 fa ff ff 	mov    %rax,-0x5d0(%rbp)
   1096c:	48 8d 85 28 ed ff ff 	lea    -0x12d8(%rbp),%rax
   10973:	48 89 85 38 fa ff ff 	mov    %rax,-0x5c8(%rbp)
   1097a:	48 8d 85 28 ed ff ff 	lea    -0x12d8(%rbp),%rax
   10981:	48 89 85 40 fa ff ff 	mov    %rax,-0x5c0(%rbp)
   10988:	48 8d 85 28 ed ff ff 	lea    -0x12d8(%rbp),%rax
   1098f:	48 89 85 48 fa ff ff 	mov    %rax,-0x5b8(%rbp)
   10996:	48 8d 85 28 ed ff ff 	lea    -0x12d8(%rbp),%rax
   1099d:	48 89 85 50 fa ff ff 	mov    %rax,-0x5b0(%rbp)
   109a4:	48 8d 85 28 ed ff ff 	lea    -0x12d8(%rbp),%rax
   109ab:	48 89 85 58 fa ff ff 	mov    %rax,-0x5a8(%rbp)
   109b2:	48 8d 85 28 ed ff ff 	lea    -0x12d8(%rbp),%rax
   109b9:	48 89 85 60 fa ff ff 	mov    %rax,-0x5a0(%rbp)
   109c0:	48 8d 85 28 ed ff ff 	lea    -0x12d8(%rbp),%rax
   109c7:	48 89 85 68 fa ff ff 	mov    %rax,-0x598(%rbp)
   109ce:	48 8d 85 28 ed ff ff 	lea    -0x12d8(%rbp),%rax
   109d5:	48 89 85 70 fa ff ff 	mov    %rax,-0x590(%rbp)
   109dc:	48 8d 85 28 ed ff ff 	lea    -0x12d8(%rbp),%rax
   109e3:	48 89 85 78 fa ff ff 	mov    %rax,-0x588(%rbp)
   109ea:	48 8d 85 28 ed ff ff 	lea    -0x12d8(%rbp),%rax
   109f1:	48 89 85 80 fa ff ff 	mov    %rax,-0x580(%rbp)
   109f8:	48 8d 85 28 ed ff ff 	lea    -0x12d8(%rbp),%rax
   109ff:	48 89 85 88 fa ff ff 	mov    %rax,-0x578(%rbp)
   10a06:	48 8d 85 28 ed ff ff 	lea    -0x12d8(%rbp),%rax
   10a0d:	48 89 85 90 fa ff ff 	mov    %rax,-0x570(%rbp)
   10a14:	48 8d 85 28 ed ff ff 	lea    -0x12d8(%rbp),%rax
   10a1b:	48 89 85 98 fa ff ff 	mov    %rax,-0x568(%rbp)
   10a22:	48 8d 85 28 ed ff ff 	lea    -0x12d8(%rbp),%rax
   10a29:	48 89 85 a0 fa ff ff 	mov    %rax,-0x560(%rbp)
   10a30:	48 8d 85 28 ed ff ff 	lea    -0x12d8(%rbp),%rax
   10a37:	48 89 85 a8 fa ff ff 	mov    %rax,-0x558(%rbp)
   10a3e:	48 8d 85 28 ed ff ff 	lea    -0x12d8(%rbp),%rax
   10a45:	48 89 85 b0 fa ff ff 	mov    %rax,-0x550(%rbp)
   10a4c:	48 8d 85 28 ed ff ff 	lea    -0x12d8(%rbp),%rax
   10a53:	48 89 85 b8 fa ff ff 	mov    %rax,-0x548(%rbp)
   10a5a:	48 8d 85 28 ed ff ff 	lea    -0x12d8(%rbp),%rax
   10a61:	48 89 85 c0 fa ff ff 	mov    %rax,-0x540(%rbp)
   10a68:	48 8d 85 28 ed ff ff 	lea    -0x12d8(%rbp),%rax
   10a6f:	48 89 85 c8 fa ff ff 	mov    %rax,-0x538(%rbp)
   10a76:	48 8d 85 28 ed ff ff 	lea    -0x12d8(%rbp),%rax
   10a7d:	48 89 85 d0 fa ff ff 	mov    %rax,-0x530(%rbp)
   10a84:	48 8d 85 28 ed ff ff 	lea    -0x12d8(%rbp),%rax
   10a8b:	48 89 85 d8 fa ff ff 	mov    %rax,-0x528(%rbp)
   10a92:	48 8d 85 28 ed ff ff 	lea    -0x12d8(%rbp),%rax
   10a99:	48 89 85 e0 fa ff ff 	mov    %rax,-0x520(%rbp)
   10aa0:	48 8d 85 28 ed ff ff 	lea    -0x12d8(%rbp),%rax
   10aa7:	48 89 85 e8 fa ff ff 	mov    %rax,-0x518(%rbp)
   10aae:	48 8d 85 28 ed ff ff 	lea    -0x12d8(%rbp),%rax
   10ab5:	48 89 85 f0 fa ff ff 	mov    %rax,-0x510(%rbp)
   10abc:	48 8d 85 28 ed ff ff 	lea    -0x12d8(%rbp),%rax
   10ac3:	48 89 85 f8 fa ff ff 	mov    %rax,-0x508(%rbp)
   10aca:	48 8d 85 28 ed ff ff 	lea    -0x12d8(%rbp),%rax
   10ad1:	48 89 85 00 fb ff ff 	mov    %rax,-0x500(%rbp)
   10ad8:	48 8d 85 28 ed ff ff 	lea    -0x12d8(%rbp),%rax
   10adf:	48 89 85 08 fb ff ff 	mov    %rax,-0x4f8(%rbp)
   10ae6:	48 8d 85 28 ed ff ff 	lea    -0x12d8(%rbp),%rax
   10aed:	48 89 85 10 fb ff ff 	mov    %rax,-0x4f0(%rbp)
   10af4:	48 8d 85 28 ed ff ff 	lea    -0x12d8(%rbp),%rax
   10afb:	48 89 85 18 fb ff ff 	mov    %rax,-0x4e8(%rbp)
   10b02:	48 8d 85 28 ed ff ff 	lea    -0x12d8(%rbp),%rax
   10b09:	48 89 85 20 fb ff ff 	mov    %rax,-0x4e0(%rbp)
   10b10:	48 8d 85 28 ed ff ff 	lea    -0x12d8(%rbp),%rax
   10b17:	48 89 85 28 fb ff ff 	mov    %rax,-0x4d8(%rbp)
   10b1e:	48 8d 85 28 ed ff ff 	lea    -0x12d8(%rbp),%rax
   10b25:	48 89 85 30 fb ff ff 	mov    %rax,-0x4d0(%rbp)
   10b2c:	48 8d 85 28 ed ff ff 	lea    -0x12d8(%rbp),%rax
   10b33:	48 89 85 38 fb ff ff 	mov    %rax,-0x4c8(%rbp)
   10b3a:	48 8d 85 28 ed ff ff 	lea    -0x12d8(%rbp),%rax
   10b41:	48 89 85 40 fb ff ff 	mov    %rax,-0x4c0(%rbp)
   10b48:	48 8d 85 28 ed ff ff 	lea    -0x12d8(%rbp),%rax
   10b4f:	48 89 85 48 fb ff ff 	mov    %rax,-0x4b8(%rbp)
   10b56:	48 8d 85 28 ed ff ff 	lea    -0x12d8(%rbp),%rax
   10b5d:	48 89 85 50 fb ff ff 	mov    %rax,-0x4b0(%rbp)
   10b64:	48 8d 85 28 ed ff ff 	lea    -0x12d8(%rbp),%rax
   10b6b:	48 89 85 58 fb ff ff 	mov    %rax,-0x4a8(%rbp)
   10b72:	48 8d 85 28 ed ff ff 	lea    -0x12d8(%rbp),%rax
   10b79:	48 89 85 60 fb ff ff 	mov    %rax,-0x4a0(%rbp)
   10b80:	48 8d 85 28 ed ff ff 	lea    -0x12d8(%rbp),%rax
   10b87:	48 89 85 68 fb ff ff 	mov    %rax,-0x498(%rbp)
   10b8e:	48 8d 85 28 ed ff ff 	lea    -0x12d8(%rbp),%rax
   10b95:	48 89 85 70 fb ff ff 	mov    %rax,-0x490(%rbp)
   10b9c:	48 8d 85 28 ed ff ff 	lea    -0x12d8(%rbp),%rax
   10ba3:	48 89 85 78 fb ff ff 	mov    %rax,-0x488(%rbp)
   10baa:	48 8d 85 28 ed ff ff 	lea    -0x12d8(%rbp),%rax
   10bb1:	48 89 85 80 fb ff ff 	mov    %rax,-0x480(%rbp)
   10bb8:	48 8d 85 28 ed ff ff 	lea    -0x12d8(%rbp),%rax
   10bbf:	48 89 85 88 fb ff ff 	mov    %rax,-0x478(%rbp)
   10bc6:	48 8d 85 28 ed ff ff 	lea    -0x12d8(%rbp),%rax
   10bcd:	48 89 85 90 fb ff ff 	mov    %rax,-0x470(%rbp)
   10bd4:	48 8d 85 28 ed ff ff 	lea    -0x12d8(%rbp),%rax
   10bdb:	48 89 85 98 fb ff ff 	mov    %rax,-0x468(%rbp)
   10be2:	48 8d 85 28 ed ff ff 	lea    -0x12d8(%rbp),%rax
   10be9:	48 89 85 a0 fb ff ff 	mov    %rax,-0x460(%rbp)
   10bf0:	48 8d 85 28 ed ff ff 	lea    -0x12d8(%rbp),%rax
   10bf7:	48 89 85 a8 fb ff ff 	mov    %rax,-0x458(%rbp)
   10bfe:	48 8d 85 28 ed ff ff 	lea    -0x12d8(%rbp),%rax
   10c05:	48 89 85 b0 fb ff ff 	mov    %rax,-0x450(%rbp)
   10c0c:	48 8d 85 28 ed ff ff 	lea    -0x12d8(%rbp),%rax
   10c13:	48 89 85 b8 fb ff ff 	mov    %rax,-0x448(%rbp)
   10c1a:	48 8d 85 28 ed ff ff 	lea    -0x12d8(%rbp),%rax
   10c21:	48 89 85 c0 fb ff ff 	mov    %rax,-0x440(%rbp)
   10c28:	48 8d 85 28 ed ff ff 	lea    -0x12d8(%rbp),%rax
   10c2f:	48 89 85 c8 fb ff ff 	mov    %rax,-0x438(%rbp)
   10c36:	48 8d 85 28 ed ff ff 	lea    -0x12d8(%rbp),%rax
   10c3d:	48 89 85 d0 fb ff ff 	mov    %rax,-0x430(%rbp)
   10c44:	48 8d 85 28 ed ff ff 	lea    -0x12d8(%rbp),%rax
   10c4b:	48 89 85 d8 fb ff ff 	mov    %rax,-0x428(%rbp)
   10c52:	48 8d 85 28 ed ff ff 	lea    -0x12d8(%rbp),%rax
   10c59:	48 89 85 e0 fb ff ff 	mov    %rax,-0x420(%rbp)
   10c60:	48 8d 85 28 ed ff ff 	lea    -0x12d8(%rbp),%rax
   10c67:	48 89 85 e8 fb ff ff 	mov    %rax,-0x418(%rbp)
   10c6e:	48 8d 85 28 ed ff ff 	lea    -0x12d8(%rbp),%rax
   10c75:	48 89 85 f0 fb ff ff 	mov    %rax,-0x410(%rbp)
   10c7c:	48 8d 85 28 ed ff ff 	lea    -0x12d8(%rbp),%rax
   10c83:	48 89 85 f8 fb ff ff 	mov    %rax,-0x408(%rbp)
   10c8a:	48 8d 85 28 ed ff ff 	lea    -0x12d8(%rbp),%rax
   10c91:	48 89 85 00 fc ff ff 	mov    %rax,-0x400(%rbp)
   10c98:	48 8d 85 28 ed ff ff 	lea    -0x12d8(%rbp),%rax
   10c9f:	48 89 85 08 fc ff ff 	mov    %rax,-0x3f8(%rbp)
   10ca6:	48 8d 85 28 ed ff ff 	lea    -0x12d8(%rbp),%rax
   10cad:	48 89 85 10 fc ff ff 	mov    %rax,-0x3f0(%rbp)
   10cb4:	48 8d 85 28 ed ff ff 	lea    -0x12d8(%rbp),%rax
   10cbb:	48 89 85 18 fc ff ff 	mov    %rax,-0x3e8(%rbp)
   10cc2:	48 8d 85 28 ed ff ff 	lea    -0x12d8(%rbp),%rax
   10cc9:	48 89 85 20 fc ff ff 	mov    %rax,-0x3e0(%rbp)
   10cd0:	48 8d 85 28 ed ff ff 	lea    -0x12d8(%rbp),%rax
   10cd7:	48 89 85 28 fc ff ff 	mov    %rax,-0x3d8(%rbp)
   10cde:	48 c7 85 30 fc ff ff 	movq   $0x0,-0x3d0(%rbp)
   10ce5:	00 00 00 00 
   10ce9:	48 8d 85 28 ed ff ff 	lea    -0x12d8(%rbp),%rax
   10cf0:	48 89 85 38 fc ff ff 	mov    %rax,-0x3c8(%rbp)
   10cf7:	48 8d 85 28 ed ff ff 	lea    -0x12d8(%rbp),%rax
   10cfe:	48 89 85 40 fc ff ff 	mov    %rax,-0x3c0(%rbp)
   10d05:	48 8d 85 28 ed ff ff 	lea    -0x12d8(%rbp),%rax
   10d0c:	48 89 85 48 fc ff ff 	mov    %rax,-0x3b8(%rbp)
   10d13:	48 8d 85 28 ed ff ff 	lea    -0x12d8(%rbp),%rax
   10d1a:	48 89 85 50 fc ff ff 	mov    %rax,-0x3b0(%rbp)
   10d21:	48 c7 85 58 fc ff ff 	movq   $0x0,-0x3a8(%rbp)
   10d28:	00 00 00 00 
   10d2c:	48 8d 85 28 ed ff ff 	lea    -0x12d8(%rbp),%rax
   10d33:	48 89 85 60 fc ff ff 	mov    %rax,-0x3a0(%rbp)
   10d3a:	48 8d 85 28 ed ff ff 	lea    -0x12d8(%rbp),%rax
   10d41:	48 89 85 68 fc ff ff 	mov    %rax,-0x398(%rbp)
   10d48:	48 8d 85 28 ed ff ff 	lea    -0x12d8(%rbp),%rax
   10d4f:	48 89 85 70 fc ff ff 	mov    %rax,-0x390(%rbp)
   10d56:	48 8d 85 28 ed ff ff 	lea    -0x12d8(%rbp),%rax
   10d5d:	48 89 85 78 fc ff ff 	mov    %rax,-0x388(%rbp)
   10d64:	48 c7 85 80 fc ff ff 	movq   $0x0,-0x380(%rbp)
   10d6b:	00 00 00 00 
   10d6f:	48 8d 85 28 ed ff ff 	lea    -0x12d8(%rbp),%rax
   10d76:	48 89 85 88 fc ff ff 	mov    %rax,-0x378(%rbp)
   10d7d:	48 8d 85 28 ed ff ff 	lea    -0x12d8(%rbp),%rax
   10d84:	48 89 85 90 fc ff ff 	mov    %rax,-0x370(%rbp)
   10d8b:	48 8d 85 28 ed ff ff 	lea    -0x12d8(%rbp),%rax
   10d92:	48 89 85 98 fc ff ff 	mov    %rax,-0x368(%rbp)
   10d99:	48 8d 85 28 ed ff ff 	lea    -0x12d8(%rbp),%rax
   10da0:	48 89 85 a0 fc ff ff 	mov    %rax,-0x360(%rbp)
   10da7:	48 c7 85 a8 fc ff ff 	movq   $0x0,-0x358(%rbp)
   10dae:	00 00 00 00 
   10db2:	48 8d 85 28 ed ff ff 	lea    -0x12d8(%rbp),%rax
   10db9:	48 89 85 b0 fc ff ff 	mov    %rax,-0x350(%rbp)
   10dc0:	48 8d 85 28 ed ff ff 	lea    -0x12d8(%rbp),%rax
   10dc7:	48 89 85 b8 fc ff ff 	mov    %rax,-0x348(%rbp)
   10dce:	48 8d 85 28 ed ff ff 	lea    -0x12d8(%rbp),%rax
   10dd5:	48 89 85 c0 fc ff ff 	mov    %rax,-0x340(%rbp)
   10ddc:	48 8d 85 28 ed ff ff 	lea    -0x12d8(%rbp),%rax
   10de3:	48 89 85 c8 fc ff ff 	mov    %rax,-0x338(%rbp)
   10dea:	48 c7 85 d0 fc ff ff 	movq   $0x0,-0x330(%rbp)
   10df1:	00 00 00 00 
   10df5:	48 8d 85 28 ed ff ff 	lea    -0x12d8(%rbp),%rax
   10dfc:	48 89 85 d8 fc ff ff 	mov    %rax,-0x328(%rbp)
   10e03:	48 8d 85 28 ed ff ff 	lea    -0x12d8(%rbp),%rax
   10e0a:	48 89 85 e0 fc ff ff 	mov    %rax,-0x320(%rbp)
   10e11:	48 8d 85 28 ed ff ff 	lea    -0x12d8(%rbp),%rax
   10e18:	48 89 85 e8 fc ff ff 	mov    %rax,-0x318(%rbp)
   10e1f:	48 8d 85 28 ed ff ff 	lea    -0x12d8(%rbp),%rax
   10e26:	48 89 85 f0 fc ff ff 	mov    %rax,-0x310(%rbp)
   10e2d:	48 c7 85 f8 fc ff ff 	movq   $0x0,-0x308(%rbp)
   10e34:	00 00 00 00 
   10e38:	48 8d 85 28 ed ff ff 	lea    -0x12d8(%rbp),%rax
   10e3f:	48 89 85 00 fd ff ff 	mov    %rax,-0x300(%rbp)
   10e46:	48 8d 85 28 ed ff ff 	lea    -0x12d8(%rbp),%rax
   10e4d:	48 89 85 08 fd ff ff 	mov    %rax,-0x2f8(%rbp)
   10e54:	48 8d 85 28 ed ff ff 	lea    -0x12d8(%rbp),%rax
   10e5b:	48 89 85 10 fd ff ff 	mov    %rax,-0x2f0(%rbp)
   10e62:	48 8d 85 28 ed ff ff 	lea    -0x12d8(%rbp),%rax
   10e69:	48 89 85 18 fd ff ff 	mov    %rax,-0x2e8(%rbp)
   10e70:	48 8d 85 d0 ec ff ff 	lea    -0x1330(%rbp),%rax
   10e77:	48 89 05 1a ec 00 00 	mov    %rax,0xec1a(%rip)        # 1fa98 <g_1041>
   10e7e:	48 8b 85 20 ed ff ff 	mov    -0x12e0(%rbp),%rax
   10e85:	48 8b 95 58 ed ff ff 	mov    -0x12a8(%rbp),%rdx
   10e8c:	48 89 10             	mov    %rdx,(%rax)
   10e8f:	66 c7 05 a8 b1 00 00 	movw   $0x0,0xb1a8(%rip)        # 1c040 <g_204>
   10e96:	00 00 
   10e98:	eb 35                	jmp    10ecf <func_36+0x20c2>
   10e9a:	0f b7 05 9f b1 00 00 	movzwl 0xb19f(%rip),%eax        # 1c040 <g_204>
   10ea1:	98                   	cwtl   
   10ea2:	48 98                	cltq   
   10ea4:	48 8d 14 c5 00 00 00 	lea    0x0(,%rax,8),%rdx
   10eab:	00 
   10eac:	48 8d 05 ed e9 00 00 	lea    0xe9ed(%rip),%rax        # 1f8a0 <g_625>
   10eb3:	48 8d 0d de e9 00 00 	lea    0xe9de(%rip),%rcx        # 1f898 <g_626>
   10eba:	48 89 0c 02          	mov    %rcx,(%rdx,%rax,1)
   10ebe:	0f b7 05 7b b1 00 00 	movzwl 0xb17b(%rip),%eax        # 1c040 <g_204>
   10ec5:	83 c0 01             	add    $0x1,%eax
   10ec8:	66 89 05 71 b1 00 00 	mov    %ax,0xb171(%rip)        # 1c040 <g_204>
   10ecf:	0f b7 05 6a b1 00 00 	movzwl 0xb16a(%rip),%eax        # 1c040 <g_204>
   10ed6:	66 85 c0             	test   %ax,%ax
   10ed9:	7e bf                	jle    10e9a <func_36+0x208d>
   10edb:	66 c7 85 90 eb ff ff 	movw   $0x0,-0x1470(%rbp)
   10ee2:	00 00 
   10ee4:	eb 29                	jmp    10f0f <func_36+0x2102>
   10ee6:	0f bf 85 90 eb ff ff 	movswl -0x1470(%rbp),%eax
   10eed:	48 98                	cltq   
   10eef:	48 8d 15 44 b1 00 00 	lea    0xb144(%rip),%rdx        # 1c03a <g_167>
   10ef6:	0f b6 04 10          	movzbl (%rax,%rdx,1),%eax
   10efa:	84 c0                	test   %al,%al
   10efc:	75 1d                	jne    10f1b <func_36+0x210e>
   10efe:	0f b7 85 90 eb ff ff 	movzwl -0x1470(%rbp),%eax
   10f05:	83 e8 01             	sub    $0x1,%eax
   10f08:	66 89 85 90 eb ff ff 	mov    %ax,-0x1470(%rbp)
   10f0f:	66 83 bd 90 eb ff ff 	cmpw   $0x0,-0x1470(%rbp)
   10f16:	00 
   10f17:	79 cd                	jns    10ee6 <func_36+0x20d9>
   10f19:	eb 25                	jmp    10f40 <func_36+0x2133>
   10f1b:	90                   	nop
   10f1c:	eb 22                	jmp    10f40 <func_36+0x2133>
   10f1e:	66 c7 05 e1 fd 00 00 	movw   $0x8,0xfde1(%rip)        # 20d08 <g_392>
   10f25:	08 00 
   10f27:	90                   	nop
   10f28:	0f b7 05 d9 fd 00 00 	movzwl 0xfdd9(%rip),%eax        # 20d08 <g_392>
   10f2f:	66 83 f8 ea          	cmp    $0xffea,%ax
   10f33:	7c 0b                	jl     10f40 <func_36+0x2133>
   10f35:	8b 85 50 f0 ff ff    	mov    -0xfb0(%rbp),%eax
   10f3b:	e9 29 1d 00 00       	jmpq   12c69 <func_36+0x3e5c>
   10f40:	48 83 bd 78 eb ff ff 	cmpq   $0x0,-0x1488(%rbp)
   10f47:	00 
   10f48:	0f 85 a4 08 00 00    	jne    117f2 <func_36+0x29e5>
   10f4e:	c7 85 d0 eb ff ff 06 	movl   $0x6,-0x1430(%rbp)
   10f55:	00 00 00 
   10f58:	e9 af 04 00 00       	jmpq   1140c <func_36+0x25ff>
   10f5d:	48 c7 85 18 ef ff ff 	movq   $0x0,-0x10e8(%rbp)
   10f64:	00 00 00 00 
   10f68:	c7 85 a8 ec ff ff fa 	movl   $0xf79625fa,-0x1358(%rbp)
   10f6f:	25 96 f7 
   10f72:	48 8d 85 18 ed ff ff 	lea    -0x12e8(%rbp),%rax
   10f79:	48 89 85 20 ef ff ff 	mov    %rax,-0x10e0(%rbp)
   10f80:	48 8d 85 c0 f8 ff ff 	lea    -0x740(%rbp),%rax
   10f87:	48 8d 15 92 db 00 00 	lea    0xdb92(%rip),%rdx        # 1eb20 <g_3956+0x2298>
   10f8e:	b9 24 00 00 00       	mov    $0x24,%ecx
   10f93:	48 89 c7             	mov    %rax,%rdi
   10f96:	48 89 d6             	mov    %rdx,%rsi
   10f99:	f3 48 a5             	rep movsq %ds:(%rsi),%es:(%rdi)
   10f9c:	c7 85 28 ed ff ff f3 	movl   $0x6f06bef3,-0x12d8(%rbp)
   10fa3:	be 06 6f 
   10fa6:	c7 85 b0 eb ff ff 00 	movl   $0x0,-0x1450(%rbp)
   10fad:	00 00 00 
   10fb0:	eb 1e                	jmp    10fd0 <func_36+0x21c3>
   10fb2:	8b 85 b0 eb ff ff    	mov    -0x1450(%rbp),%eax
   10fb8:	48 98                	cltq   
   10fba:	48 8d 15 e7 ea 00 00 	lea    0xeae7(%rip),%rdx        # 1faa8 <g_1089>
   10fc1:	48 89 94 c5 f0 f0 ff 	mov    %rdx,-0xf10(%rbp,%rax,8)
   10fc8:	ff 
   10fc9:	83 85 b0 eb ff ff 01 	addl   $0x1,-0x1450(%rbp)
   10fd0:	83 bd b0 eb ff ff 04 	cmpl   $0x4,-0x1450(%rbp)
   10fd7:	7e d9                	jle    10fb2 <func_36+0x21a5>
   10fd9:	c7 85 a4 eb ff ff 7d 	movl   $0x53e6e57d,-0x145c(%rbp)
   10fe0:	e5 e6 53 
   10fe3:	48 8d 85 a4 eb ff ff 	lea    -0x145c(%rbp),%rax
   10fea:	48 89 85 38 ed ff ff 	mov    %rax,-0x12c8(%rbp)
   10ff1:	c7 85 e8 eb ff ff fe 	movl   $0xfffffffe,-0x1418(%rbp)
   10ff8:	ff ff ff 
   10ffb:	eb 29                	jmp    11026 <func_36+0x2219>
   10ffd:	48 b8 6d a8 5c 97 95 	movabs $0x773fbc95975ca86d,%rax
   11004:	bc 3f 77 
   11007:	48 89 85 40 ef ff ff 	mov    %rax,-0x10c0(%rbp)
   1100e:	8b 85 e8 eb ff ff    	mov    -0x1418(%rbp),%eax
   11014:	be 04 00 00 00       	mov    $0x4,%esi
   11019:	89 c7                	mov    %eax,%edi
   1101b:	e8 e5 95 ff ff       	callq  a605 <safe_sub_func_int32_t_s_s>
   11020:	89 85 e8 eb ff ff    	mov    %eax,-0x1418(%rbp)
   11026:	83 bd e8 eb ff ff f2 	cmpl   $0xfffffff2,-0x1418(%rbp)
   1102d:	7d ce                	jge    10ffd <func_36+0x21f0>
   1102f:	48 8b 05 32 60 00 00 	mov    0x6032(%rip),%rax        # 17068 <g_960+0x8>
   11036:	8d 1c 85 00 00 00 00 	lea    0x0(,%rax,4),%ebx
   1103d:	c1 fb 05             	sar    $0x5,%ebx
   11040:	8b 85 a8 ec ff ff    	mov    -0x1358(%rbp),%eax
   11046:	4c 63 e0             	movslq %eax,%r12
   11049:	8b 95 d0 eb ff ff    	mov    -0x1430(%rbp),%edx
   1104f:	48 8b 05 52 ea 00 00 	mov    0xea52(%rip),%rax        # 1faa8 <g_1089>
   11056:	48 89 05 4b ea 00 00 	mov    %rax,0xea4b(%rip)        # 1faa8 <g_1089>
   1105d:	48 8b 05 44 ea 00 00 	mov    0xea44(%rip),%rax        # 1faa8 <g_1089>
   11064:	48 39 85 20 ef ff ff 	cmp    %rax,-0x10e0(%rbp)
   1106b:	0f 94 c0             	sete   %al
   1106e:	0f b6 c0             	movzbl %al,%eax
   11071:	48 8b 8d 78 eb ff ff 	mov    -0x1488(%rbp),%rcx
   11078:	09 c8                	or     %ecx,%eax
   1107a:	89 05 bc af 00 00    	mov    %eax,0xafbc(%rip)        # 1c03c <g_199>
   11080:	8b 05 b6 af 00 00    	mov    0xafb6(%rip),%eax        # 1c03c <g_199>
   11086:	89 d6                	mov    %edx,%esi
   11088:	89 c7                	mov    %eax,%edi
   1108a:	e8 6e 9e ff ff       	callq  aefd <safe_mod_func_uint32_t_u_u>
   1108f:	be 50 2c 24 05       	mov    $0x5242c50,%esi
   11094:	bf ff ff ff ff       	mov    $0xffffffff,%edi
   11099:	e8 61 96 ff ff       	callq  a6ff <safe_div_func_int32_t_s_s>
   1109e:	85 c0                	test   %eax,%eax
   110a0:	75 0a                	jne    110ac <func_36+0x229f>
   110a2:	48 83 bd 78 eb ff ff 	cmpq   $0x0,-0x1488(%rbp)
   110a9:	00 
   110aa:	74 07                	je     110b3 <func_36+0x22a6>
   110ac:	b8 01 00 00 00       	mov    $0x1,%eax
   110b1:	eb 05                	jmp    110b8 <func_36+0x22ab>
   110b3:	b8 00 00 00 00       	mov    $0x0,%eax
   110b8:	0f bf d0             	movswl %ax,%edx
   110bb:	48 8b 85 78 eb ff ff 	mov    -0x1488(%rbp),%rax
   110c2:	98                   	cwtl   
   110c3:	89 d6                	mov    %edx,%esi
   110c5:	89 c7                	mov    %eax,%edi
   110c7:	e8 4a 93 ff ff       	callq  a416 <safe_mod_func_int16_t_s_s>
   110cc:	48 0f bf c0          	movswq %ax,%rax
   110d0:	48 0b 85 78 eb ff ff 	or     -0x1488(%rbp),%rax
   110d7:	49 39 c4             	cmp    %rax,%r12
   110da:	0f 9c c0             	setl   %al
   110dd:	89 c2                	mov    %eax,%edx
   110df:	48 8b 85 78 eb ff ff 	mov    -0x1488(%rbp),%rax
   110e6:	31 d0                	xor    %edx,%eax
   110e8:	0f b6 c0             	movzbl %al,%eax
   110eb:	be 03 00 00 00       	mov    $0x3,%esi
   110f0:	89 c7                	mov    %eax,%edi
   110f2:	e8 0e 9b ff ff       	callq  ac05 <safe_lshift_func_uint8_t_u_s>
   110f7:	83 f0 10             	xor    $0x10,%eax
   110fa:	0f b6 c0             	movzbl %al,%eax
   110fd:	be ff ff ff ff       	mov    $0xffffffff,%esi
   11102:	89 c7                	mov    %eax,%edi
   11104:	e8 af 9d ff ff       	callq  aeb8 <safe_add_func_uint32_t_u_u>
   11109:	be 04 00 00 00       	mov    $0x4,%esi
   1110e:	bf 00 00 00 00       	mov    $0x0,%edi
   11113:	e8 d6 91 ff ff       	callq  a2ee <safe_lshift_func_int8_t_s_u>
   11118:	84 c0                	test   %al,%al
   1111a:	74 11                	je     1112d <func_36+0x2320>
   1111c:	48 83 bd 78 eb ff ff 	cmpq   $0x0,-0x1488(%rbp)
   11123:	00 
   11124:	74 07                	je     1112d <func_36+0x2320>
   11126:	b8 01 00 00 00       	mov    $0x1,%eax
   1112b:	eb 05                	jmp    11132 <func_36+0x2325>
   1112d:	b8 00 00 00 00       	mov    $0x0,%eax
   11132:	0f be d0             	movsbl %al,%edx
   11135:	8b 05 39 af 00 00    	mov    0xaf39(%rip),%eax        # 1c074 <g_274+0x4>
   1113b:	0f be c0             	movsbl %al,%eax
   1113e:	89 d6                	mov    %edx,%esi
   11140:	89 c7                	mov    %eax,%edi
   11142:	e8 cb 90 ff ff       	callq  a212 <safe_mul_func_int8_t_s_s>
   11147:	0f be c0             	movsbl %al,%eax
   1114a:	c1 e0 05             	shl    $0x5,%eax
   1114d:	c1 f8 05             	sar    $0x5,%eax
   11150:	39 c3                	cmp    %eax,%ebx
   11152:	0f 9c c0             	setl   %al
   11155:	0f b6 c0             	movzbl %al,%eax
   11158:	48 39 85 78 eb ff ff 	cmp    %rax,-0x1488(%rbp)
   1115f:	7c 0f                	jl     11170 <func_36+0x2363>
   11161:	0f b6 05 f8 ae 00 00 	movzbl 0xaef8(%rip),%eax        # 1c060 <g_228>
   11168:	0f b6 c0             	movzbl %al,%eax
   1116b:	e9 f9 1a 00 00       	jmpq   12c69 <func_36+0x3e5c>
   11170:	48 c7 85 28 ef ff ff 	movq   $0x0,-0x10d8(%rbp)
   11177:	00 00 00 00 
   1117b:	48 8d 85 d8 ec ff ff 	lea    -0x1328(%rbp),%rax
   11182:	48 89 85 30 ef ff ff 	mov    %rax,-0x10d0(%rbp)
   11189:	c7 85 ac ec ff ff 27 	movl   $0x9f6dc827,-0x1354(%rbp)
   11190:	c8 6d 9f 
   11193:	48 8d 05 26 b1 00 00 	lea    0xb126(%rip),%rax        # 1c2c0 <g_278>
   1119a:	48 89 85 38 ef ff ff 	mov    %rax,-0x10c8(%rbp)
   111a1:	48 8b 9d 78 eb ff ff 	mov    -0x1488(%rbp),%rbx
   111a8:	b8 2c 00 00 00       	mov    $0x2c,%eax
   111ad:	44 0f be e0          	movsbl %al,%r12d
   111b1:	48 8b 85 30 ef ff ff 	mov    -0x10d0(%rbp),%rax
   111b8:	48 8b 95 d0 ee ff ff 	mov    -0x1130(%rbp),%rdx
   111bf:	48 89 10             	mov    %rdx,(%rax)
   111c2:	48 8b 85 30 ef ff ff 	mov    -0x10d0(%rbp),%rax
   111c9:	48 8b 00             	mov    (%rax),%rax
   111cc:	48 39 85 40 ee ff ff 	cmp    %rax,-0x11c0(%rbp)
   111d3:	0f 94 c2             	sete   %dl
   111d6:	0f bf 85 90 eb ff ff 	movswl -0x1470(%rbp),%eax
   111dd:	23 85 ac ec ff ff    	and    -0x1354(%rbp),%eax
   111e3:	48 98                	cltq   
   111e5:	48 39 85 78 eb ff ff 	cmp    %rax,-0x1488(%rbp)
   111ec:	0f 95 c0             	setne  %al
   111ef:	09 d0                	or     %edx,%eax
   111f1:	0f b6 c0             	movzbl %al,%eax
   111f4:	48 39 85 78 eb ff ff 	cmp    %rax,-0x1488(%rbp)
   111fb:	0f 9f c0             	setg   %al
   111fe:	0f b6 d0             	movzbl %al,%edx
   11201:	48 8b 85 38 ed ff ff 	mov    -0x12c8(%rbp),%rax
   11208:	8b 00                	mov    (%rax),%eax
   1120a:	09 c2                	or     %eax,%edx
   1120c:	48 8b 85 38 ed ff ff 	mov    -0x12c8(%rbp),%rax
   11213:	89 10                	mov    %edx,(%rax)
   11215:	48 8b 85 38 ed ff ff 	mov    -0x12c8(%rbp),%rax
   1121c:	8b 00                	mov    (%rax),%eax
   1121e:	0f b7 c0             	movzwl %ax,%eax
   11221:	be 0a 00 00 00       	mov    $0xa,%esi
   11226:	89 c7                	mov    %eax,%edi
   11228:	e8 4d 9c ff ff       	callq  ae7a <safe_rshift_func_uint16_t_u_u>
   1122d:	0f b7 c0             	movzwl %ax,%eax
   11230:	48 be 43 04 89 87 5c 	movabs $0x2e69615c87890443,%rsi
   11237:	61 69 2e 
   1123a:	48 89 c7             	mov    %rax,%rdi
   1123d:	e8 72 97 ff ff       	callq  a9b4 <safe_mod_func_int64_t_s_s>
   11242:	0f b6 d0             	movzbl %al,%edx
   11245:	0f b7 05 94 b0 00 00 	movzwl 0xb094(%rip),%eax        # 1c2e0 <g_403>
   1124c:	0f b6 c0             	movzbl %al,%eax
   1124f:	89 d6                	mov    %edx,%esi
   11251:	89 c7                	mov    %eax,%edi
   11253:	e8 3b 99 ff ff       	callq  ab93 <safe_mul_func_uint8_t_u_u>
   11258:	0f b6 c0             	movzbl %al,%eax
   1125b:	be ad 6f 00 00       	mov    $0x6fad,%esi
   11260:	89 c7                	mov    %eax,%edi
   11262:	e8 af 91 ff ff       	callq  a416 <safe_mod_func_int16_t_s_s>
   11267:	89 c2                	mov    %eax,%edx
   11269:	48 8b 85 40 ee ff ff 	mov    -0x11c0(%rbp),%rax
   11270:	0f b6 00             	movzbl (%rax),%eax
   11273:	09 c2                	or     %eax,%edx
   11275:	48 8b 85 40 ee ff ff 	mov    -0x11c0(%rbp),%rax
   1127c:	88 10                	mov    %dl,(%rax)
   1127e:	b9 16 fd 00 00       	mov    $0xfd16,%ecx
   11283:	48 8b 85 38 ef ff ff 	mov    -0x10c8(%rbp),%rax
   1128a:	0f b7 00             	movzwl (%rax),%eax
   1128d:	89 c2                	mov    %eax,%edx
   1128f:	89 c8                	mov    %ecx,%eax
   11291:	21 d0                	and    %edx,%eax
   11293:	89 c2                	mov    %eax,%edx
   11295:	48 8b 85 38 ef ff ff 	mov    -0x10c8(%rbp),%rax
   1129c:	66 89 10             	mov    %dx,(%rax)
   1129f:	48 8b 85 38 ef ff ff 	mov    -0x10c8(%rbp),%rax
   112a6:	0f b7 00             	movzwl (%rax),%eax
   112a9:	89 c2                	mov    %eax,%edx
   112ab:	48 8b 85 78 eb ff ff 	mov    -0x1488(%rbp),%rax
   112b2:	09 d0                	or     %edx,%eax
   112b4:	0f be c0             	movsbl %al,%eax
   112b7:	be 92 ff ff ff       	mov    $0xffffff92,%esi
   112bc:	89 c7                	mov    %eax,%edi
   112be:	e8 a7 8f ff ff       	callq  a26a <safe_div_func_int8_t_s_s>
   112c3:	0f be c0             	movsbl %al,%eax
   112c6:	44 89 e6             	mov    %r12d,%esi
   112c9:	89 c7                	mov    %eax,%edi
   112cb:	e8 04 8f ff ff       	callq  a1d4 <safe_add_func_int8_t_s_s>
   112d0:	0f b7 05 31 fa 00 00 	movzwl 0xfa31(%rip),%eax        # 20d08 <g_392>
   112d7:	48 0f bf c0          	movswq %ax,%rax
   112db:	48 39 85 78 eb ff ff 	cmp    %rax,-0x1488(%rbp)
   112e2:	0f 9c c0             	setl   %al
   112e5:	0f b6 c0             	movzbl %al,%eax
   112e8:	48 89 de             	mov    %rbx,%rsi
   112eb:	48 89 c7             	mov    %rax,%rdi
   112ee:	e8 bc 9d ff ff       	callq  b0af <safe_div_func_uint64_t_u_u>
   112f3:	c7 85 28 ed ff ff 64 	movl   $0xf1dd1564,-0x12d8(%rbp)
   112fa:	15 dd f1 
   112fd:	83 8d ac ec ff ff 01 	orl    $0x1,-0x1354(%rbp)
   11304:	8b 85 ac ec ff ff    	mov    -0x1354(%rbp),%eax
   1130a:	0f b7 c0             	movzwl %ax,%eax
   1130d:	be 0d 00 00 00       	mov    $0xd,%esi
   11312:	89 c7                	mov    %eax,%edi
   11314:	e8 a5 9a ff ff       	callq  adbe <safe_lshift_func_uint16_t_u_s>
   11319:	0f b7 c0             	movzwl %ax,%eax
   1131c:	be 01 00 00 00       	mov    $0x1,%esi
   11321:	89 c7                	mov    %eax,%edi
   11323:	e8 52 9b ff ff       	callq  ae7a <safe_rshift_func_uint16_t_u_u>
   11328:	0f be d0             	movsbl %al,%edx
   1132b:	48 8b 05 e6 af 00 00 	mov    0xafe6(%rip),%rax        # 1c318 <g_714+0x8>
   11332:	c1 e0 02             	shl    $0x2,%eax
   11335:	c1 f8 05             	sar    $0x5,%eax
   11338:	48 98                	cltq   
   1133a:	48 39 85 78 eb ff ff 	cmp    %rax,-0x1488(%rbp)
   11341:	0f 9c c0             	setl   %al
   11344:	0f b6 c0             	movzbl %al,%eax
   11347:	89 d6                	mov    %edx,%esi
   11349:	89 c7                	mov    %eax,%edi
   1134b:	e8 e1 8e ff ff       	callq  a231 <safe_mod_func_int8_t_s_s>
   11350:	0f be d8             	movsbl %al,%ebx
   11353:	48 8b 85 78 eb ff ff 	mov    -0x1488(%rbp),%rax
   1135a:	0f b7 c0             	movzwl %ax,%eax
   1135d:	be f6 ff 00 00       	mov    $0xfff6,%esi
   11362:	89 c7                	mov    %eax,%edi
   11364:	e8 d4 99 ff ff       	callq  ad3d <safe_mul_func_uint16_t_u_u>
   11369:	88 05 cb ac 00 00    	mov    %al,0xaccb(%rip)        # 1c03a <g_167>
   1136f:	0f b6 05 c4 ac 00 00 	movzbl 0xacc4(%rip),%eax        # 1c03a <g_167>
   11376:	0f be c0             	movsbl %al,%eax
   11379:	89 de                	mov    %ebx,%esi
   1137b:	89 c7                	mov    %eax,%edi
   1137d:	e8 90 8e ff ff       	callq  a212 <safe_mul_func_int8_t_s_s>
   11382:	0f be d0             	movsbl %al,%edx
   11385:	b8 2c 00 00 00       	mov    $0x2c,%eax
   1138a:	0f b6 c0             	movzbl %al,%eax
   1138d:	89 d6                	mov    %edx,%esi
   1138f:	89 c7                	mov    %eax,%edi
   11391:	e8 f7 98 ff ff       	callq  ac8d <safe_rshift_func_uint8_t_u_s>
   11396:	0f b6 d0             	movzbl %al,%edx
   11399:	48 8b 85 38 ed ff ff 	mov    -0x12c8(%rbp),%rax
   113a0:	8b 00                	mov    (%rax),%eax
   113a2:	98                   	cwtl   
   113a3:	89 d6                	mov    %edx,%esi
   113a5:	89 c7                	mov    %eax,%edi
   113a7:	e8 a9 90 ff ff       	callq  a455 <safe_div_func_int16_t_s_s>
   113ac:	48 8b 05 65 af 00 00 	mov    0xaf65(%rip),%rax        # 1c318 <g_714+0x8>
   113b3:	c1 e0 05             	shl    $0x5,%eax
   113b6:	c0 f8 05             	sar    $0x5,%al
   113b9:	0f be d0             	movsbl %al,%edx
   113bc:	48 8b 85 38 ed ff ff 	mov    -0x12c8(%rbp),%rax
   113c3:	8b 00                	mov    (%rax),%eax
   113c5:	39 c2                	cmp    %eax,%edx
   113c7:	0f 9e c0             	setle  %al
   113ca:	0f b6 d0             	movzbl %al,%edx
   113cd:	b8 00 00 00 00       	mov    $0x0,%eax
   113d2:	0f be c0             	movsbl %al,%eax
   113d5:	21 c2                	and    %eax,%edx
   113d7:	48 8b 85 38 ed ff ff 	mov    -0x12c8(%rbp),%rax
   113de:	89 10                	mov    %edx,(%rax)
   113e0:	48 8d 85 28 ed ff ff 	lea    -0x12d8(%rbp),%rax
   113e7:	48 89 85 d8 ee ff ff 	mov    %rax,-0x1128(%rbp)
   113ee:	8b 85 d0 eb ff ff    	mov    -0x1430(%rbp),%eax
   113f4:	0f b6 c0             	movzbl %al,%eax
   113f7:	be 06 00 00 00       	mov    $0x6,%esi
   113fc:	89 c7                	mov    %eax,%edi
   113fe:	e8 75 97 ff ff       	callq  ab78 <safe_sub_func_uint8_t_u_u>
   11403:	0f b6 c0             	movzbl %al,%eax
   11406:	89 85 d0 eb ff ff    	mov    %eax,-0x1430(%rbp)
   1140c:	83 bd d0 eb ff ff f7 	cmpl   $0xfffffff7,-0x1430(%rbp)
   11413:	0f 8c 44 fb ff ff    	jl     10f5d <func_36+0x2150>
   11419:	48 8b 85 78 eb ff ff 	mov    -0x1488(%rbp),%rax
   11420:	0f bf d0             	movswl %ax,%edx
   11423:	83 bd 7c ec ff ff 00 	cmpl   $0x0,-0x1384(%rbp)
   1142a:	74 11                	je     1143d <func_36+0x2630>
   1142c:	48 83 bd 78 eb ff ff 	cmpq   $0x0,-0x1488(%rbp)
   11433:	00 
   11434:	74 07                	je     1143d <func_36+0x2630>
   11436:	b8 01 00 00 00       	mov    $0x1,%eax
   1143b:	eb 05                	jmp    11442 <func_36+0x2635>
   1143d:	b8 00 00 00 00       	mov    $0x0,%eax
   11442:	98                   	cwtl   
   11443:	89 d6                	mov    %edx,%esi
   11445:	89 c7                	mov    %eax,%edi
   11447:	e8 67 8f ff ff       	callq  a3b3 <safe_add_func_int16_t_s_s>
   1144c:	66 85 c0             	test   %ax,%ax
   1144f:	0f 84 90 02 00 00    	je     116e5 <func_36+0x28d8>
   11455:	c7 85 98 ec ff ff ff 	movl   $0xffffffff,-0x1368(%rbp)
   1145c:	ff ff ff 
   1145f:	c7 85 9c ec ff ff 70 	movl   $0x47734c70,-0x1364(%rbp)
   11466:	4c 73 47 
   11469:	8b 05 d5 ae 00 00    	mov    0xaed5(%rip),%eax        # 1c344 <g_1091+0x4>
   1146f:	0f b7 c0             	movzwl %ax,%eax
   11472:	be ff ff 00 00       	mov    $0xffff,%esi
   11477:	89 c7                	mov    %eax,%edi
   11479:	e8 81 98 ff ff       	callq  acff <safe_add_func_uint16_t_u_u>
   1147e:	89 c2                	mov    %eax,%edx
   11480:	48 8b 05 09 e6 00 00 	mov    0xe609(%rip),%rax        # 1fa90 <g_1042>
   11487:	66 89 10             	mov    %dx,(%rax)
   1148a:	0f b7 00             	movzwl (%rax),%eax
   1148d:	0f bf d8             	movswl %ax,%ebx
   11490:	8b 05 8e ae 00 00    	mov    0xae8e(%rip),%eax        # 1c324 <g_820+0x4>
   11496:	0f b7 d0             	movzwl %ax,%edx
   11499:	48 8b 05 a8 ae 00 00 	mov    0xaea8(%rip),%rax        # 1c348 <g_1091+0x8>
   114a0:	c1 e0 02             	shl    $0x2,%eax
   114a3:	c1 f8 05             	sar    $0x5,%eax
   114a6:	0f b7 c0             	movzwl %ax,%eax
   114a9:	89 d6                	mov    %edx,%esi
   114ab:	89 c7                	mov    %eax,%edi
   114ad:	e8 aa 98 ff ff       	callq  ad5c <safe_mod_func_uint16_t_u_u>
   114b2:	0f b7 c0             	movzwl %ax,%eax
   114b5:	39 c3                	cmp    %eax,%ebx
   114b7:	0f 9d c0             	setge  %al
   114ba:	0f b6 c0             	movzbl %al,%eax
   114bd:	48 39 85 78 eb ff ff 	cmp    %rax,-0x1488(%rbp)
   114c4:	0f 9f c0             	setg   %al
   114c7:	0f b6 d0             	movzbl %al,%edx
   114ca:	48 8b 85 38 ed ff ff 	mov    -0x12c8(%rbp),%rax
   114d1:	89 10                	mov    %edx,(%rax)
   114d3:	48 8b 85 38 ed ff ff 	mov    -0x12c8(%rbp),%rax
   114da:	8b 00                	mov    (%rax),%eax
   114dc:	85 c0                	test   %eax,%eax
   114de:	0f 84 43 01 00 00    	je     11627 <func_36+0x281a>
   114e4:	c7 85 a4 ec ff ff 00 	movl   $0x0,-0x135c(%rbp)
   114eb:	00 00 00 
   114ee:	48 c7 85 08 ef ff ff 	movq   $0x0,-0x10f8(%rbp)
   114f5:	00 00 00 00 
   114f9:	48 8d 05 60 ab 00 00 	lea    0xab60(%rip),%rax        # 1c060 <g_228>
   11500:	48 89 85 10 ef ff ff 	mov    %rax,-0x10f0(%rbp)
   11507:	83 b5 a4 ec ff ff 04 	xorl   $0x4,-0x135c(%rbp)
   1150e:	8b 95 a4 ec ff ff    	mov    -0x135c(%rbp),%edx
   11514:	48 8b 85 38 ed ff ff 	mov    -0x12c8(%rbp),%rax
   1151b:	89 10                	mov    %edx,(%rax)
   1151d:	0f b7 05 fc ad 00 00 	movzwl 0xadfc(%rip),%eax        # 1c320 <g_820>
   11524:	c1 e0 04             	shl    $0x4,%eax
   11527:	66 c1 f8 04          	sar    $0x4,%ax
   1152b:	0f bf d8             	movswl %ax,%ebx
   1152e:	0f b7 85 9a eb ff ff 	movzwl -0x1466(%rbp),%eax
   11535:	39 85 24 ec ff ff    	cmp    %eax,-0x13dc(%rbp)
   1153b:	0f 93 c0             	setae  %al
   1153e:	44 0f b6 e8          	movzbl %al,%r13d
   11542:	48 8b 85 78 eb ff ff 	mov    -0x1488(%rbp),%rax
   11549:	41 89 c6             	mov    %eax,%r14d
   1154c:	48 8b 85 78 eb ff ff 	mov    -0x1488(%rbp),%rax
   11553:	41 89 c7             	mov    %eax,%r15d
   11556:	0f b7 05 e3 ad 00 00 	movzwl 0xade3(%rip),%eax        # 1c340 <g_1091>
   1155d:	c1 e0 04             	shl    $0x4,%eax
   11560:	66 c1 f8 04          	sar    $0x4,%ax
   11564:	44 0f be e0          	movsbl %al,%r12d
   11568:	48 8b 85 78 eb ff ff 	mov    -0x1488(%rbp),%rax
   1156f:	98                   	cwtl   
   11570:	be 03 00 00 00       	mov    $0x3,%esi
   11575:	89 c7                	mov    %eax,%edi
   11577:	e8 e7 8f ff ff       	callq  a563 <safe_rshift_func_int16_t_s_u>
   1157c:	44 89 e6             	mov    %r12d,%esi
   1157f:	bf 01 00 00 00       	mov    $0x1,%edi
   11584:	e8 89 8c ff ff       	callq  a212 <safe_mul_func_int8_t_s_s>
   11589:	0f be c0             	movsbl %al,%eax
   1158c:	44 89 fe             	mov    %r15d,%esi
   1158f:	89 c7                	mov    %eax,%edi
   11591:	e8 58 8d ff ff       	callq  a2ee <safe_lshift_func_int8_t_s_u>
   11596:	3c ff                	cmp    $0xff,%al
   11598:	0f 95 c0             	setne  %al
   1159b:	0f b6 c0             	movzbl %al,%eax
   1159e:	f7 d0                	not    %eax
   115a0:	89 c2                	mov    %eax,%edx
   115a2:	48 8b 05 ef e4 00 00 	mov    0xe4ef(%rip),%rax        # 1fa98 <g_1041>
   115a9:	48 8b 00             	mov    (%rax),%rax
   115ac:	66 89 10             	mov    %dx,(%rax)
   115af:	0f b7 00             	movzwl (%rax),%eax
   115b2:	98                   	cwtl   
   115b3:	89 05 97 ad 00 00    	mov    %eax,0xad97(%rip)        # 1c350 <g_1172>
   115b9:	8b 05 91 ad 00 00    	mov    0xad91(%rip),%eax        # 1c350 <g_1172>
   115bf:	98                   	cwtl   
   115c0:	44 89 f6             	mov    %r14d,%esi
   115c3:	89 c7                	mov    %eax,%edi
   115c5:	e8 c8 8e ff ff       	callq  a492 <safe_lshift_func_int16_t_s_s>
   115ca:	0f b7 d0             	movzwl %ax,%edx
   115cd:	8b 05 a1 aa 00 00    	mov    0xaaa1(%rip),%eax        # 1c074 <g_274+0x4>
   115d3:	0f b7 c0             	movzwl %ax,%eax
   115d6:	89 d6                	mov    %edx,%esi
   115d8:	89 c7                	mov    %eax,%edi
   115da:	e8 7d 97 ff ff       	callq  ad5c <safe_mod_func_uint16_t_u_u>
   115df:	66 85 c0             	test   %ax,%ax
   115e2:	74 10                	je     115f4 <func_36+0x27e7>
   115e4:	83 bd 80 ec ff ff 00 	cmpl   $0x0,-0x1380(%rbp)
   115eb:	74 07                	je     115f4 <func_36+0x27e7>
   115ed:	b8 01 00 00 00       	mov    $0x1,%eax
   115f2:	eb 05                	jmp    115f9 <func_36+0x27ec>
   115f4:	b8 00 00 00 00       	mov    $0x0,%eax
   115f9:	98                   	cwtl   
   115fa:	be 14 22 00 00       	mov    $0x2214,%esi
   115ff:	89 c7                	mov    %eax,%edi
   11601:	e8 cd 8d ff ff       	callq  a3d3 <safe_sub_func_int16_t_s_s>
   11606:	98                   	cwtl   
   11607:	41 39 c5             	cmp    %eax,%r13d
   1160a:	0f 9e c0             	setle  %al
   1160d:	0f b6 c0             	movzbl %al,%eax
   11610:	89 de                	mov    %ebx,%esi
   11612:	89 c7                	mov    %eax,%edi
   11614:	e8 4a 8f ff ff       	callq  a563 <safe_rshift_func_int16_t_s_u>
   11619:	0f bf d0             	movswl %ax,%edx
   1161c:	48 8b 85 38 ed ff ff 	mov    -0x12c8(%rbp),%rax
   11623:	89 10                	mov    %edx,(%rax)
   11625:	eb 7d                	jmp    116a4 <func_36+0x2897>
   11627:	c7 85 a0 ec ff ff 28 	movl   $0x1fd05228,-0x1360(%rbp)
   1162e:	52 d0 1f 
   11631:	48 8b 85 38 ed ff ff 	mov    -0x12c8(%rbp),%rax
   11638:	8b 00                	mov    (%rax),%eax
   1163a:	48 8b 95 78 eb ff ff 	mov    -0x1488(%rbp),%rdx
   11641:	21 c2                	and    %eax,%edx
   11643:	48 8b 85 38 ed ff ff 	mov    -0x12c8(%rbp),%rax
   1164a:	89 10                	mov    %edx,(%rax)
   1164c:	48 8b 85 38 ed ff ff 	mov    -0x12c8(%rbp),%rax
   11653:	8b 00                	mov    (%rax),%eax
   11655:	89 85 9c ec ff ff    	mov    %eax,-0x1364(%rbp)
   1165b:	8b 85 a0 ec ff ff    	mov    -0x1360(%rbp),%eax
   11661:	0f be c0             	movsbl %al,%eax
   11664:	be 05 00 00 00       	mov    $0x5,%esi
   11669:	89 c7                	mov    %eax,%edi
   1166b:	e8 fc 8c ff ff       	callq  a36c <safe_rshift_func_int8_t_s_u>
   11670:	66 98                	cbtw   
   11672:	c1 e0 04             	shl    $0x4,%eax
   11675:	66 c1 f8 04          	sar    $0x4,%ax
   11679:	0f b7 15 f0 a9 00 00 	movzwl 0xa9f0(%rip),%edx        # 1c070 <g_274>
   11680:	c1 e2 04             	shl    $0x4,%edx
   11683:	66 c1 fa 04          	sar    $0x4,%dx
   11687:	66 39 d0             	cmp    %dx,%ax
   1168a:	0f 9e c0             	setle  %al
   1168d:	0f b6 d0             	movzbl %al,%edx
   11690:	48 8b 85 38 ed ff ff 	mov    -0x12c8(%rbp),%rax
   11697:	8b 00                	mov    (%rax),%eax
   11699:	31 c2                	xor    %eax,%edx
   1169b:	48 8b 85 38 ed ff ff 	mov    -0x12c8(%rbp),%rax
   116a2:	89 10                	mov    %edx,(%rax)
   116a4:	48 c7 85 e0 ec ff ff 	movq   $0x0,-0x1320(%rbp)
   116ab:	00 00 00 00 
   116af:	eb 23                	jmp    116d4 <func_36+0x28c7>
   116b1:	48 8b 05 d8 e1 00 00 	mov    0xe1d8(%rip),%rax        # 1f890 <g_430>
   116b8:	48 8b 00             	mov    (%rax),%rax
   116bb:	48 89 85 d8 ee ff ff 	mov    %rax,-0x1128(%rbp)
   116c2:	48 8b 85 e0 ec ff ff 	mov    -0x1320(%rbp),%rax
   116c9:	48 83 c0 01          	add    $0x1,%rax
   116cd:	48 89 85 e0 ec ff ff 	mov    %rax,-0x1320(%rbp)
   116d4:	48 8b 85 e0 ec ff ff 	mov    -0x1320(%rbp),%rax
   116db:	48 85 c0             	test   %rax,%rax
   116de:	7e d1                	jle    116b1 <func_36+0x28a4>
   116e0:	e9 f7 00 00 00       	jmpq   117dc <func_36+0x29cf>
   116e5:	48 8d 85 20 ed ff ff 	lea    -0x12e0(%rbp),%rax
   116ec:	48 89 85 f0 ee ff ff 	mov    %rax,-0x1110(%rbp)
   116f3:	c7 85 8c ec ff ff ff 	movl   $0xffffffff,-0x1374(%rbp)
   116fa:	ff ff ff 
   116fd:	48 b8 0d 4c 22 25 98 	movabs $0x3d969e9825224c0d,%rax
   11704:	9e 96 3d 
   11707:	48 89 85 f8 ee ff ff 	mov    %rax,-0x1108(%rbp)
   1170e:	c7 85 90 ec ff ff 00 	movl   $0x0,-0x1370(%rbp)
   11715:	00 00 00 
   11718:	48 8b 85 f0 ee ff ff 	mov    -0x1110(%rbp),%rax
   1171f:	48 8b 95 e8 ee ff ff 	mov    -0x1118(%rbp),%rdx
   11726:	48 89 10             	mov    %rdx,(%rax)
   11729:	48 8b 85 f0 ee ff ff 	mov    -0x1110(%rbp),%rax
   11730:	48 8b 00             	mov    (%rax),%rax
   11733:	48 39 85 e8 ee ff ff 	cmp    %rax,-0x1118(%rbp)
   1173a:	48 8d 85 e0 ec ff ff 	lea    -0x1320(%rbp),%rax
   11741:	48 89 85 00 ef ff ff 	mov    %rax,-0x1100(%rbp)
   11748:	c7 85 94 ec ff ff 09 	movl   $0x9,-0x136c(%rbp)
   1174f:	00 00 00 
   11752:	48 8d 85 c0 f8 ff ff 	lea    -0x740(%rbp),%rax
   11759:	48 8d 15 00 6e 00 00 	lea    0x6e00(%rip),%rdx        # 18560 <g_3500+0x1390>
   11760:	b9 6c 00 00 00       	mov    $0x6c,%ecx
   11765:	48 89 c7             	mov    %rax,%rdi
   11768:	48 89 d6             	mov    %rdx,%rsi
   1176b:	f3 48 a5             	rep movsq %ds:(%rsi),%es:(%rdi)
   1176e:	48 83 bd 78 eb ff ff 	cmpq   $0x0,-0x1488(%rbp)
   11775:	00 
   11776:	74 46                	je     117be <func_36+0x29b1>
   11778:	8b 05 f6 a8 00 00    	mov    0xa8f6(%rip),%eax        # 1c074 <g_274+0x4>
   1177e:	0f be d0             	movsbl %al,%edx
   11781:	0f b6 85 89 eb ff ff 	movzbl -0x1477(%rbp),%eax
   11788:	0f be c0             	movsbl %al,%eax
   1178b:	89 d6                	mov    %edx,%esi
   1178d:	89 c7                	mov    %eax,%edi
   1178f:	e8 40 8a ff ff       	callq  a1d4 <safe_add_func_int8_t_s_s>
   11794:	0f be c0             	movsbl %al,%eax
   11797:	be 07 00 00 00       	mov    $0x7,%esi
   1179c:	89 c7                	mov    %eax,%edi
   1179e:	e8 92 8b ff ff       	callq  a335 <safe_rshift_func_int8_t_s_s>
   117a3:	48 0f be d0          	movsbq %al,%rdx
   117a7:	48 8b 85 00 ef ff ff 	mov    -0x1100(%rbp),%rax
   117ae:	48 89 10             	mov    %rdx,(%rax)
   117b1:	48 8b 85 00 ef ff ff 	mov    -0x1100(%rbp),%rax
   117b8:	48 8b 00             	mov    (%rax),%rax
   117bb:	48 85 c0             	test   %rax,%rax
   117be:	48 8d 05 93 e2 00 00 	lea    0xe293(%rip),%rax        # 1fa58 <g_745>
   117c5:	48 89 85 e0 ee ff ff 	mov    %rax,-0x1120(%rbp)
   117cc:	48 83 ad f8 ee ff ff 	subq   $0x1,-0x1108(%rbp)
   117d3:	01 
   117d4:	48 83 bd 78 eb ff ff 	cmpq   $0x0,-0x1488(%rbp)
   117db:	00 
   117dc:	83 85 ec eb ff ff 01 	addl   $0x1,-0x1414(%rbp)
   117e3:	83 bd ec eb ff ff 0b 	cmpl   $0xb,-0x1414(%rbp)
   117ea:	0f 8e bb ed ff ff    	jle    105ab <func_36+0x179e>
   117f0:	eb 01                	jmp    117f3 <func_36+0x29e6>
   117f2:	90                   	nop
   117f3:	48 8b 85 78 eb ff ff 	mov    -0x1488(%rbp),%rax
   117fa:	98                   	cwtl   
   117fb:	be 01 00 00 00       	mov    $0x1,%esi
   11800:	89 c7                	mov    %eax,%edi
   11802:	e8 cc 8b ff ff       	callq  a3d3 <safe_sub_func_int16_t_s_s>
   11807:	48 0f bf c0          	movswq %ax,%rax
   1180b:	48 89 85 78 eb ff ff 	mov    %rax,-0x1488(%rbp)
   11812:	48 83 bd 78 eb ff ff 	cmpq   $0xfffffffffffffff7,-0x1488(%rbp)
   11819:	f7 
   1181a:	0f 8c aa e1 ff ff    	jl     f9ca <func_36+0xbbd>
   11820:	c7 05 fe a7 00 00 eb 	movl   $0xffffffeb,0xa7fe(%rip)        # 1c028 <g_29>
   11827:	ff ff ff 
   1182a:	e9 18 04 00 00       	jmpq   11c47 <func_36+0x2e3a>
   1182f:	c6 85 88 eb ff ff 09 	movb   $0x9,-0x1478(%rbp)
   11836:	c7 85 34 ec ff ff 70 	movl   $0xb9a7c570,-0x13cc(%rbp)
   1183d:	c5 a7 b9 
   11840:	48 8d 05 69 ab 00 00 	lea    0xab69(%rip),%rax        # 1c3b0 <g_1258+0x30>
   11847:	48 89 85 c0 f8 ff ff 	mov    %rax,-0x740(%rbp)
   1184e:	48 8d 05 0b ab 00 00 	lea    0xab0b(%rip),%rax        # 1c360 <g_1256>
   11855:	48 89 85 c8 f8 ff ff 	mov    %rax,-0x738(%rbp)
   1185c:	48 8d 05 4d ab 00 00 	lea    0xab4d(%rip),%rax        # 1c3b0 <g_1258+0x30>
   11863:	48 89 85 d0 f8 ff ff 	mov    %rax,-0x730(%rbp)
   1186a:	48 8d 05 3f ab 00 00 	lea    0xab3f(%rip),%rax        # 1c3b0 <g_1258+0x30>
   11871:	48 89 85 d8 f8 ff ff 	mov    %rax,-0x728(%rbp)
   11878:	48 8d 05 e1 aa 00 00 	lea    0xaae1(%rip),%rax        # 1c360 <g_1256>
   1187f:	48 89 85 e0 f8 ff ff 	mov    %rax,-0x720(%rbp)
   11886:	48 8d 05 23 ab 00 00 	lea    0xab23(%rip),%rax        # 1c3b0 <g_1258+0x30>
   1188d:	48 89 85 e8 f8 ff ff 	mov    %rax,-0x718(%rbp)
   11894:	48 8d 05 15 ab 00 00 	lea    0xab15(%rip),%rax        # 1c3b0 <g_1258+0x30>
   1189b:	48 89 85 f0 f8 ff ff 	mov    %rax,-0x710(%rbp)
   118a2:	48 8d 05 b7 aa 00 00 	lea    0xaab7(%rip),%rax        # 1c360 <g_1256>
   118a9:	48 89 85 f8 f8 ff ff 	mov    %rax,-0x708(%rbp)
   118b0:	48 8d 05 f9 aa 00 00 	lea    0xaaf9(%rip),%rax        # 1c3b0 <g_1258+0x30>
   118b7:	48 89 85 00 f9 ff ff 	mov    %rax,-0x700(%rbp)
   118be:	66 c7 85 96 eb ff ff 	movw   $0x7,-0x146a(%rbp)
   118c5:	07 00 
   118c7:	48 c7 85 88 ee ff ff 	movq   $0x0,-0x1178(%rbp)
   118ce:	00 00 00 00 
   118d2:	48 c7 85 90 ee ff ff 	movq   $0x0,-0x1170(%rbp)
   118d9:	00 00 00 00 
   118dd:	c7 85 38 ec ff ff 12 	movl   $0xf789ee12,-0x13c8(%rbp)
   118e4:	ee 89 f7 
   118e7:	c7 85 3c ec ff ff 00 	movl   $0x0,-0x13c4(%rbp)
   118ee:	00 00 00 
   118f1:	c7 85 40 ec ff ff 45 	movl   $0x1204fb45,-0x13c0(%rbp)
   118f8:	fb 04 12 
   118fb:	c7 85 44 ec ff ff 5f 	movl   $0xeb372d5f,-0x13bc(%rbp)
   11902:	2d 37 eb 
   11905:	c7 85 48 ec ff ff 00 	movl   $0x0,-0x13b8(%rbp)
   1190c:	00 00 00 
   1190f:	c7 85 4c ec ff ff 04 	movl   $0x4,-0x13b4(%rbp)
   11916:	00 00 00 
   11919:	c7 85 50 ec ff ff 01 	movl   $0x1,-0x13b0(%rbp)
   11920:	00 00 00 
   11923:	c7 85 54 ec ff ff 67 	movl   $0xaf6d8667,-0x13ac(%rbp)
   1192a:	86 6d af 
   1192d:	48 8d 05 64 e1 00 00 	lea    0xe164(%rip),%rax        # 1fa98 <g_1041>
   11934:	48 89 85 98 ee ff ff 	mov    %rax,-0x1168(%rbp)
   1193b:	66 c7 85 98 eb ff ff 	movw   $0xfffd,-0x1468(%rbp)
   11942:	fd ff 
   11944:	48 8d 85 00 ed ff ff 	lea    -0x1300(%rbp),%rax
   1194b:	48 89 85 a0 ee ff ff 	mov    %rax,-0x1160(%rbp)
   11952:	48 c7 85 a8 ee ff ff 	movq   $0x0,-0x1158(%rbp)
   11959:	00 00 00 00 
   1195d:	c7 85 b4 eb ff ff 00 	movl   $0x0,-0x144c(%rbp)
   11964:	00 00 00 
   11967:	eb 1a                	jmp    11983 <func_36+0x2b76>
   11969:	8b 85 b4 eb ff ff    	mov    -0x144c(%rbp),%eax
   1196f:	48 98                	cltq   
   11971:	c7 84 85 60 f5 ff ff 	movl   $0xffffffff,-0xaa0(%rbp,%rax,4)
   11978:	ff ff ff ff 
   1197c:	83 85 b4 eb ff ff 01 	addl   $0x1,-0x144c(%rbp)
   11983:	83 bd b4 eb ff ff 00 	cmpl   $0x0,-0x144c(%rbp)
   1198a:	7e dd                	jle    11969 <func_36+0x2b5c>
   1198c:	c7 05 8e a9 00 00 ed 	movl   $0xffffffed,0xa98e(%rip)        # 1c324 <g_820+0x4>
   11993:	ff ff ff 
   11996:	e9 7f 02 00 00       	jmpq   11c1a <func_36+0x2e0d>
   1199b:	48 b8 f3 44 e7 b8 bc 	movabs $0xd1d7ebbcb8e744f3,%rax
   119a2:	eb d7 d1 
   119a5:	48 89 85 30 ed ff ff 	mov    %rax,-0x12d0(%rbp)
   119ac:	c7 85 58 ec ff ff f6 	movl   $0x15705bf6,-0x13a8(%rbp)
   119b3:	5b 70 15 
   119b6:	c7 85 5c ec ff ff ff 	movl   $0x2e7c61ff,-0x13a4(%rbp)
   119bd:	61 7c 2e 
   119c0:	c7 85 b8 eb ff ff ff 	movl   $0xffffffff,-0x1448(%rbp)
   119c7:	ff ff ff 
   119ca:	c6 05 6a a6 00 00 e6 	movb   $0xe6,0xa66a(%rip)        # 1c03b <g_190>
   119d1:	e9 01 02 00 00       	jmpq   11bd7 <func_36+0x2dca>
   119d6:	48 c7 85 b0 ee ff ff 	movq   $0xfffffffffffffff9,-0x1150(%rbp)
   119dd:	f9 ff ff ff 
   119e1:	c7 85 60 ec ff ff f7 	movl   $0xfffffff7,-0x13a0(%rbp)
   119e8:	ff ff ff 
   119eb:	c7 85 64 ec ff ff 01 	movl   $0x1,-0x139c(%rbp)
   119f2:	00 00 00 
   119f5:	48 8d 05 0c db 00 00 	lea    0xdb0c(%rip),%rax        # 1f508 <g_303>
   119fc:	48 89 85 28 ed ff ff 	mov    %rax,-0x12d8(%rbp)
   11a03:	48 8d 85 28 ed ff ff 	lea    -0x12d8(%rbp),%rax
   11a0a:	48 89 85 b8 ee ff ff 	mov    %rax,-0x1148(%rbp)
   11a11:	48 83 ad 30 ed ff ff 	subq   $0x1,-0x12d0(%rbp)
   11a18:	01 
   11a19:	c7 85 f0 eb ff ff 00 	movl   $0x0,-0x1410(%rbp)
   11a20:	00 00 00 
   11a23:	eb 2c                	jmp    11a51 <func_36+0x2c44>
   11a25:	48 8b 05 6c de 00 00 	mov    0xde6c(%rip),%rax        # 1f898 <g_626>
   11a2c:	48 8b 00             	mov    (%rax),%rax
   11a2f:	8b 00                	mov    (%rax),%eax
   11a31:	85 c0                	test   %eax,%eax
   11a33:	75 27                	jne    11a5c <func_36+0x2c4f>
   11a35:	0f b7 05 e4 a8 00 00 	movzwl 0xa8e4(%rip),%eax        # 1c320 <g_820>
   11a3c:	66 25 ff 0f          	and    $0xfff,%ax
   11a40:	66 85 c0             	test   %ax,%ax
   11a43:	74 05                	je     11a4a <func_36+0x2c3d>
   11a45:	e9 70 df ff ff       	jmpq   f9ba <func_36+0xbad>
   11a4a:	83 85 f0 eb ff ff 01 	addl   $0x1,-0x1410(%rbp)
   11a51:	83 bd f0 eb ff ff 02 	cmpl   $0x2,-0x1410(%rbp)
   11a58:	7e cb                	jle    11a25 <func_36+0x2c18>
   11a5a:	eb 01                	jmp    11a5d <func_36+0x2c50>
   11a5c:	90                   	nop
   11a5d:	48 8b 85 78 eb ff ff 	mov    -0x1488(%rbp),%rax
   11a64:	48 21 85 b0 ee ff ff 	and    %rax,-0x1150(%rbp)
   11a6b:	48 83 bd b0 ee ff ff 	cmpq   $0x0,-0x1150(%rbp)
   11a72:	00 
   11a73:	0f 84 87 00 00 00    	je     11b00 <func_36+0x2cf3>
   11a79:	48 8d 05 bc a5 00 00 	lea    0xa5bc(%rip),%rax        # 1c03c <g_199>
   11a80:	48 89 85 c8 ee ff ff 	mov    %rax,-0x1138(%rbp)
   11a87:	c7 85 6c ec ff ff 01 	movl   $0x1,-0x1394(%rbp)
   11a8e:	00 00 00 
   11a91:	c7 85 70 ec ff ff e6 	movl   $0x5dded9e6,-0x1390(%rbp)
   11a98:	d9 de 5d 
   11a9b:	c7 85 74 ec ff ff 3d 	movl   $0x72d51e3d,-0x138c(%rbp)
   11aa2:	1e d5 72 
   11aa5:	48 8b 85 c8 ee ff ff 	mov    -0x1138(%rbp),%rax
   11aac:	8b 00                	mov    (%rax),%eax
   11aae:	0d 76 0c f0 ba       	or     $0xbaf00c76,%eax
   11ab3:	89 c2                	mov    %eax,%edx
   11ab5:	48 8b 85 c8 ee ff ff 	mov    -0x1138(%rbp),%rax
   11abc:	89 10                	mov    %edx,(%rax)
   11abe:	48 8b 85 c8 ee ff ff 	mov    -0x1138(%rbp),%rax
   11ac5:	8b 00                	mov    (%rax),%eax
   11ac7:	89 c2                	mov    %eax,%edx
   11ac9:	48 8b 85 78 eb ff ff 	mov    -0x1488(%rbp),%rax
   11ad0:	89 d6                	mov    %edx,%esi
   11ad2:	89 c7                	mov    %eax,%edi
   11ad4:	e8 f3 8b ff ff       	callq  a6cc <safe_mod_func_int32_t_s_s>
   11ad9:	8b 15 35 a8 00 00    	mov    0xa835(%rip),%edx        # 1c314 <g_714+0x4>
   11adf:	39 d0                	cmp    %edx,%eax
   11ae1:	0f 9e c0             	setle  %al
   11ae4:	0f b6 c0             	movzbl %al,%eax
   11ae7:	21 85 60 ec ff ff    	and    %eax,-0x13a0(%rbp)
   11aed:	83 ad 64 ec ff ff 01 	subl   $0x1,-0x139c(%rbp)
   11af4:	83 85 b8 eb ff ff 01 	addl   $0x1,-0x1448(%rbp)
   11afb:	e9 c7 00 00 00       	jmpq   11bc7 <func_36+0x2dba>
   11b00:	48 8d 05 b9 a7 00 00 	lea    0xa7b9(%rip),%rax        # 1c2c0 <g_278>
   11b07:	48 89 85 c0 ee ff ff 	mov    %rax,-0x1140(%rbp)
   11b0e:	c7 85 68 ec ff ff 01 	movl   $0x1,-0x1398(%rbp)
   11b15:	00 00 00 
   11b18:	0f b7 05 51 a5 00 00 	movzwl 0xa551(%rip),%eax        # 1c070 <g_274>
   11b1f:	c1 e0 04             	shl    $0x4,%eax
   11b22:	66 c1 f8 04          	sar    $0x4,%ax
   11b26:	0f bf d0             	movswl %ax,%edx
   11b29:	48 8b 85 78 eb ff ff 	mov    -0x1488(%rbp),%rax
   11b30:	98                   	cwtl   
   11b31:	89 d6                	mov    %edx,%esi
   11b33:	89 c7                	mov    %eax,%edi
   11b35:	e8 bb 88 ff ff       	callq  a3f5 <safe_mul_func_int16_t_s_s>
   11b3a:	98                   	cwtl   
   11b3b:	89 c6                	mov    %eax,%esi
   11b3d:	bf 00 00 00 00       	mov    $0x0,%edi
   11b42:	e8 b8 8b ff ff       	callq  a6ff <safe_div_func_int32_t_s_s>
   11b47:	0f b7 d8             	movzwl %ax,%ebx
   11b4a:	48 8b 85 78 eb ff ff 	mov    -0x1488(%rbp),%rax
   11b51:	48 89 c7             	mov    %rax,%rdi
   11b54:	e8 bd 8c ff ff       	callq  a816 <safe_unary_minus_func_int64_t_s>
   11b59:	48 8b 05 70 d9 00 00 	mov    0xd970(%rip),%rax        # 1f4d0 <g_203>
   11b60:	0f b7 00             	movzwl (%rax),%eax
   11b63:	48 8b 05 ee de 00 00 	mov    0xdeee(%rip),%rax        # 1fa58 <g_745>
   11b6a:	48 8b 00             	mov    (%rax),%rax
   11b6d:	48 39 85 b8 ee ff ff 	cmp    %rax,-0x1148(%rbp)
   11b74:	0f 95 c0             	setne  %al
   11b77:	0f b6 d0             	movzbl %al,%edx
   11b7a:	48 8b 85 c0 ee ff ff 	mov    -0x1140(%rbp),%rax
   11b81:	66 89 10             	mov    %dx,(%rax)
   11b84:	48 8b 85 c0 ee ff ff 	mov    -0x1140(%rbp),%rax
   11b8b:	0f b7 00             	movzwl (%rax),%eax
   11b8e:	0f b7 c0             	movzwl %ax,%eax
   11b91:	89 de                	mov    %ebx,%esi
   11b93:	89 c7                	mov    %eax,%edi
   11b95:	e8 a3 91 ff ff       	callq  ad3d <safe_mul_func_uint16_t_u_u>
   11b9a:	0f b7 c0             	movzwl %ax,%eax
   11b9d:	83 e0 05             	and    $0x5,%eax
   11ba0:	48 89 c2             	mov    %rax,%rdx
   11ba3:	8b 05 7b a7 00 00    	mov    0xa77b(%rip),%eax        # 1c324 <g_820+0x4>
   11ba9:	48 98                	cltq   
   11bab:	48 39 c2             	cmp    %rax,%rdx
   11bae:	0f 94 c0             	sete   %al
   11bb1:	0f b6 c0             	movzbl %al,%eax
   11bb4:	be 0a 00 00 00       	mov    $0xa,%esi
   11bb9:	89 c7                	mov    %eax,%edi
   11bbb:	e8 21 89 ff ff       	callq  a4e1 <safe_lshift_func_int16_t_s_u>
   11bc0:	98                   	cwtl   
   11bc1:	09 85 68 ec ff ff    	or     %eax,-0x1398(%rbp)
   11bc7:	0f b6 05 6d a4 00 00 	movzbl 0xa46d(%rip),%eax        # 1c03b <g_190>
   11bce:	83 c0 01             	add    $0x1,%eax
   11bd1:	88 05 64 a4 00 00    	mov    %al,0xa464(%rip)        # 1c03b <g_190>
   11bd7:	0f b6 05 5d a4 00 00 	movzbl 0xa45d(%rip),%eax        # 1c03b <g_190>
   11bde:	3c 1a                	cmp    $0x1a,%al
   11be0:	0f 87 f0 fd ff ff    	ja     119d6 <func_36+0x2bc9>
   11be6:	c7 85 a8 ef ff ff cd 	movl   $0xfb4b4cd,-0x1058(%rbp)
   11bed:	b4 b4 0f 
   11bf0:	48 8b 05 59 de 00 00 	mov    0xde59(%rip),%rax        # 1fa50 <g_746>
   11bf7:	48 8b 95 f0 ef ff ff 	mov    -0x1010(%rbp),%rdx
   11bfe:	48 89 10             	mov    %rdx,(%rax)
   11c01:	48 83 bd 78 eb ff ff 	cmpq   $0x0,-0x1488(%rbp)
   11c08:	00 
   11c09:	75 20                	jne    11c2b <func_36+0x2e1e>
   11c0b:	8b 05 13 a7 00 00    	mov    0xa713(%rip),%eax        # 1c324 <g_820+0x4>
   11c11:	83 c0 01             	add    $0x1,%eax
   11c14:	89 05 0a a7 00 00    	mov    %eax,0xa70a(%rip)        # 1c324 <g_820+0x4>
   11c1a:	8b 05 04 a7 00 00    	mov    0xa704(%rip),%eax        # 1c324 <g_820+0x4>
   11c20:	83 f8 08             	cmp    $0x8,%eax
   11c23:	0f 8e 72 fd ff ff    	jle    1199b <func_36+0x2b8e>
   11c29:	eb 01                	jmp    11c2c <func_36+0x2e1f>
   11c2b:	90                   	nop
   11c2c:	8b 05 f6 a3 00 00    	mov    0xa3f6(%rip),%eax        # 1c028 <g_29>
   11c32:	89 c0                	mov    %eax,%eax
   11c34:	be 05 00 00 00       	mov    $0x5,%esi
   11c39:	48 89 c7             	mov    %rax,%rdi
   11c3c:	e8 ed 93 ff ff       	callq  b02e <safe_add_func_uint64_t_u_u>
   11c41:	89 05 e1 a3 00 00    	mov    %eax,0xa3e1(%rip)        # 1c028 <g_29>
   11c47:	8b 05 db a3 00 00    	mov    0xa3db(%rip),%eax        # 1c028 <g_29>
   11c4d:	83 f8 01             	cmp    $0x1,%eax
   11c50:	0f 84 d9 fb ff ff    	je     1182f <func_36+0x2a22>
   11c56:	48 8b 85 78 eb ff ff 	mov    -0x1488(%rbp),%rax
   11c5d:	89 c2                	mov    %eax,%edx
   11c5f:	48 8b 85 80 ee ff ff 	mov    -0x1180(%rbp),%rax
   11c66:	89 10                	mov    %edx,(%rax)
   11c68:	0f b7 05 c9 a3 00 00 	movzwl 0xa3c9(%rip),%eax        # 1c038 <g_131>
   11c6f:	66 85 c0             	test   %ax,%ax
   11c72:	0f 84 ea 0f 00 00    	je     12c62 <func_36+0x3e55>
   11c78:	e9 3d dd ff ff       	jmpq   f9ba <func_36+0xbad>
   11c7d:	66 c7 85 92 eb ff ff 	movw   $0x713f,-0x146e(%rbp)
   11c84:	3f 71 
   11c86:	48 8d 05 db 54 00 00 	lea    0x54db(%rip),%rax        # 17168 <g_1471>
   11c8d:	48 89 85 10 ed ff ff 	mov    %rax,-0x12f0(%rbp)
   11c94:	48 8d 85 10 ed ff ff 	lea    -0x12f0(%rbp),%rax
   11c9b:	48 89 85 70 ed ff ff 	mov    %rax,-0x1290(%rbp)
   11ca2:	c7 85 00 ed ff ff ff 	movl   $0xffffffff,-0x1300(%rbp)
   11ca9:	ff ff ff 
   11cac:	c7 85 bc eb ff ff ff 	movl   $0xffffffff,-0x1444(%rbp)
   11cb3:	ff ff ff 
   11cb6:	c7 85 c0 eb ff ff 00 	movl   $0x0,-0x1440(%rbp)
   11cbd:	00 00 00 
   11cc0:	eb 1e                	jmp    11ce0 <func_36+0x2ed3>
   11cc2:	8b 85 c0 eb ff ff    	mov    -0x1440(%rbp),%eax
   11cc8:	48 98                	cltq   
   11cca:	48 8d 15 37 d8 00 00 	lea    0xd837(%rip),%rdx        # 1f508 <g_303>
   11cd1:	48 89 94 c5 f0 f0 ff 	mov    %rdx,-0xf10(%rbp,%rax,8)
   11cd8:	ff 
   11cd9:	83 85 c0 eb ff ff 01 	addl   $0x1,-0x1440(%rbp)
   11ce0:	83 bd c0 eb ff ff 09 	cmpl   $0x9,-0x1440(%rbp)
   11ce7:	7e d9                	jle    11cc2 <func_36+0x2eb5>
   11ce9:	0f b6 05 d4 a6 00 00 	movzbl 0xa6d4(%rip),%eax        # 1c3c4 <g_1340>
   11cf0:	0f b7 85 92 eb ff ff 	movzwl -0x146e(%rbp),%eax
   11cf7:	0f b7 c0             	movzwl %ax,%eax
   11cfa:	be 01 00 00 00       	mov    $0x1,%esi
   11cff:	89 c7                	mov    %eax,%edi
   11d01:	e8 88 90 ff ff       	callq  ad8e <safe_div_func_uint16_t_u_u>
   11d06:	66 85 c0             	test   %ax,%ax
   11d09:	74 08                	je     11d13 <func_36+0x2f06>
   11d0b:	66 83 bd 92 eb ff ff 	cmpw   $0x0,-0x146e(%rbp)
   11d12:	00 
   11d13:	48 8b 85 70 ed ff ff 	mov    -0x1290(%rbp),%rax
   11d1a:	48 8b 95 40 ed ff ff 	mov    -0x12c0(%rbp),%rdx
   11d21:	48 89 10             	mov    %rdx,(%rax)
   11d24:	48 8b 85 70 ed ff ff 	mov    -0x1290(%rbp),%rax
   11d2b:	48 8b 00             	mov    (%rax),%rax
   11d2e:	48 85 c0             	test   %rax,%rax
   11d31:	75 07                	jne    11d3a <func_36+0x2f2d>
   11d33:	ba e2 f3 bc d9       	mov    $0xd9bcf3e2,%edx
   11d38:	eb 05                	jmp    11d3f <func_36+0x2f32>
   11d3a:	ba e3 f3 bc d9       	mov    $0xd9bcf3e3,%edx
   11d3f:	0f bf 85 92 eb ff ff 	movswl -0x146e(%rbp),%eax
   11d46:	89 d6                	mov    %edx,%esi
   11d48:	89 c7                	mov    %eax,%edi
   11d4a:	e8 7d 89 ff ff       	callq  a6cc <safe_mod_func_int32_t_s_s>
   11d4f:	8b 05 5f a6 00 00    	mov    0xa65f(%rip),%eax        # 1c3b4 <g_1258+0x34>
   11d55:	48 8b 95 78 eb ff ff 	mov    -0x1488(%rbp),%rdx
   11d5c:	21 d0                	and    %edx,%eax
   11d5e:	89 c2                	mov    %eax,%edx
   11d60:	48 8b 05 29 dd 00 00 	mov    0xdd29(%rip),%rax        # 1fa90 <g_1042>
   11d67:	0f b7 00             	movzwl (%rax),%eax
   11d6a:	98                   	cwtl   
   11d6b:	89 d6                	mov    %edx,%esi
   11d6d:	89 c7                	mov    %eax,%edi
   11d6f:	e8 6d 87 ff ff       	callq  a4e1 <safe_lshift_func_int16_t_s_u>
   11d74:	0f b7 c0             	movzwl %ax,%eax
   11d77:	89 c6                	mov    %eax,%esi
   11d79:	bf 01 00 00 00       	mov    $0x1,%edi
   11d7e:	e8 0b 90 ff ff       	callq  ad8e <safe_div_func_uint16_t_u_u>
   11d83:	0f b7 c0             	movzwl %ax,%eax
   11d86:	89 85 00 ed ff ff    	mov    %eax,-0x1300(%rbp)
   11d8c:	8b 85 00 ed ff ff    	mov    -0x1300(%rbp),%eax
   11d92:	89 85 bc eb ff ff    	mov    %eax,-0x1444(%rbp)
   11d98:	83 bd bc eb ff ff 00 	cmpl   $0x0,-0x1444(%rbp)
   11d9f:	74 0b                	je     11dac <func_36+0x2f9f>
   11da1:	8b 85 00 ed ff ff    	mov    -0x1300(%rbp),%eax
   11da7:	e9 bd 0e 00 00       	jmpq   12c69 <func_36+0x3e5c>
   11dac:	c6 85 86 eb ff ff ff 	movb   $0xff,-0x147a(%rbp)
   11db3:	c7 85 00 ec ff ff 01 	movl   $0x1,-0x1400(%rbp)
   11dba:	00 00 00 
   11dbd:	c7 85 04 ec ff ff 01 	movl   $0x1,-0x13fc(%rbp)
   11dc4:	00 00 00 
   11dc7:	c7 85 08 ec ff ff 32 	movl   $0xe2cc4832,-0x13f8(%rbp)
   11dce:	48 cc e2 
   11dd1:	c7 85 0c ec ff ff d2 	movl   $0xb9ef46d2,-0x13f4(%rbp)
   11dd8:	46 ef b9 
   11ddb:	48 8d 05 62 a5 00 00 	lea    0xa562(%rip),%rax        # 1c344 <g_1091+0x4>
   11de2:	48 89 85 18 ed ff ff 	mov    %rax,-0x12e8(%rbp)
   11de9:	48 c7 85 78 ed ff ff 	movq   $0x0,-0x1288(%rbp)
   11df0:	00 00 00 00 
   11df4:	48 8d 85 18 ed ff ff 	lea    -0x12e8(%rbp),%rax
   11dfb:	48 89 85 80 ed ff ff 	mov    %rax,-0x1280(%rbp)
   11e02:	48 8d 05 df a5 00 00 	lea    0xa5df(%rip),%rax        # 1c3e8 <g_1472>
   11e09:	48 89 85 88 ed ff ff 	mov    %rax,-0x1278(%rbp)
   11e10:	48 8d 05 25 a2 00 00 	lea    0xa225(%rip),%rax        # 1c03c <g_199>
   11e17:	48 89 85 90 ed ff ff 	mov    %rax,-0x1270(%rbp)
   11e1e:	48 8d 85 84 eb ff ff 	lea    -0x147c(%rbp),%rax
   11e25:	48 89 85 98 ed ff ff 	mov    %rax,-0x1268(%rbp)
   11e2c:	48 8d 85 c0 f8 ff ff 	lea    -0x740(%rbp),%rax
   11e33:	48 8d 15 06 ce 00 00 	lea    0xce06(%rip),%rdx        # 1ec40 <g_3956+0x23b8>
   11e3a:	b9 32 00 00 00       	mov    $0x32,%ecx
   11e3f:	48 89 c7             	mov    %rax,%rdi
   11e42:	48 89 d6             	mov    %rdx,%rsi
   11e45:	f3 48 a5             	rep movsq %ds:(%rsi),%es:(%rdi)
   11e48:	48 8b 05 39 da 00 00 	mov    0xda39(%rip),%rax        # 1f888 <g_335>
   11e4f:	48 8d 95 00 ed ff ff 	lea    -0x1300(%rbp),%rdx
   11e56:	48 89 10             	mov    %rdx,(%rax)
   11e59:	c7 85 00 ed ff ff 00 	movl   $0x0,-0x1300(%rbp)
   11e60:	00 00 00 
   11e63:	e9 eb 01 00 00       	jmpq   12053 <func_36+0x3246>
   11e68:	c6 85 28 ed ff ff 66 	movb   $0x66,-0x12d8(%rbp)
   11e6f:	c7 85 1c ec ff ff 04 	movl   $0x4,-0x13e4(%rbp)
   11e76:	00 00 00 
   11e79:	48 c7 05 64 a5 00 00 	movq   $0x0,0xa564(%rip)        # 1c3e8 <g_1472>
   11e80:	00 00 00 00 
   11e84:	e9 aa 01 00 00       	jmpq   12033 <func_36+0x3226>
   11e89:	48 8d 85 a0 eb ff ff 	lea    -0x1460(%rbp),%rax
   11e90:	48 89 85 10 ee ff ff 	mov    %rax,-0x11f0(%rbp)
   11e97:	c7 85 20 ec ff ff fe 	movl   $0xfffffffe,-0x13e0(%rbp)
   11e9e:	ff ff ff 
   11ea1:	c7 85 c4 eb ff ff 00 	movl   $0x0,-0x143c(%rbp)
   11ea8:	00 00 00 
   11eab:	eb 14                	jmp    11ec1 <func_36+0x30b4>
   11ead:	8b 85 c4 eb ff ff    	mov    -0x143c(%rbp),%eax
   11eb3:	48 98                	cltq   
   11eb5:	c6 44 05 c3 08       	movb   $0x8,-0x3d(%rbp,%rax,1)
   11eba:	83 85 c4 eb ff ff 01 	addl   $0x1,-0x143c(%rbp)
   11ec1:	83 bd c4 eb ff ff 02 	cmpl   $0x2,-0x143c(%rbp)
   11ec8:	7e e3                	jle    11ead <func_36+0x30a0>
   11eca:	48 8b 05 7f db 00 00 	mov    0xdb7f(%rip),%rax        # 1fa50 <g_746>
   11ed1:	48 8b 10             	mov    (%rax),%rdx
   11ed4:	48 8b 85 00 f1 ff ff 	mov    -0xf00(%rbp),%rax
   11edb:	48 39 c2             	cmp    %rax,%rdx
   11ede:	75 0f                	jne    11eef <func_36+0x30e2>
   11ee0:	0f b6 45 c3          	movzbl -0x3d(%rbp),%eax
   11ee4:	83 c0 01             	add    $0x1,%eax
   11ee7:	88 45 c3             	mov    %al,-0x3d(%rbp)
   11eea:	e9 0d 01 00 00       	jmpq   11ffc <func_36+0x31ef>
   11eef:	48 8d 85 28 ed ff ff 	lea    -0x12d8(%rbp),%rax
   11ef6:	48 89 85 18 ee ff ff 	mov    %rax,-0x11e8(%rbp)
   11efd:	48 c7 85 20 ee ff ff 	movq   $0x0,-0x11e0(%rbp)
   11f04:	00 00 00 00 
   11f08:	48 8d 85 d8 ec ff ff 	lea    -0x1328(%rbp),%rax
   11f0f:	48 89 85 28 ee ff ff 	mov    %rax,-0x11d8(%rbp)
   11f16:	48 8b 85 78 eb ff ff 	mov    -0x1488(%rbp),%rax
   11f1d:	0f b7 d8             	movzwl %ax,%ebx
   11f20:	c7 85 1c ec ff ff 72 	movl   $0x656ea172,-0x13e4(%rbp)
   11f27:	a1 6e 65 
   11f2a:	8b 05 fc a3 00 00    	mov    0xa3fc(%rip),%eax        # 1c32c <g_820+0xc>
   11f30:	25 ff ff 3f 00       	and    $0x3fffff,%eax
   11f35:	41 89 c5             	mov    %eax,%r13d
   11f38:	0f b6 45 c4          	movzbl -0x3c(%rbp),%eax
   11f3c:	0f b6 d0             	movzbl %al,%edx
   11f3f:	0f be 85 86 eb ff ff 	movsbl -0x147a(%rbp),%eax
   11f46:	39 c2                	cmp    %eax,%edx
   11f48:	0f 9e c0             	setle  %al
   11f4b:	44 0f b6 e0          	movzbl %al,%r12d
   11f4f:	bf c2 ff ff ff       	mov    $0xffffffc2,%edi
   11f54:	e8 66 82 ff ff       	callq  a1bf <safe_unary_minus_func_int8_t_s>
   11f59:	0f be c0             	movsbl %al,%eax
   11f5c:	44 21 e0             	and    %r12d,%eax
   11f5f:	3d 71 a1 6e 65       	cmp    $0x656ea171,%eax
   11f64:	0f 9f c0             	setg   %al
   11f67:	0f b6 c0             	movzbl %al,%eax
   11f6a:	41 39 c5             	cmp    %eax,%r13d
   11f6d:	0f 9e c0             	setle  %al
   11f70:	0f b6 c0             	movzbl %al,%eax
   11f73:	89 c7                	mov    %eax,%edi
   11f75:	e8 90 13 00 00       	callq  1330a <func_47>
   11f7a:	48 89 85 10 ee ff ff 	mov    %rax,-0x11f0(%rbp)
   11f81:	48 8b 05 40 d5 00 00 	mov    0xd540(%rip),%rax        # 1f4c8 <g_72>
   11f88:	48 8b 00             	mov    (%rax),%rax
   11f8b:	48 39 85 10 ee ff ff 	cmp    %rax,-0x11f0(%rbp)
   11f92:	0f 95 c0             	setne  %al
   11f95:	0f b6 c0             	movzbl %al,%eax
   11f98:	89 de                	mov    %ebx,%esi
   11f9a:	89 c7                	mov    %eax,%edi
   11f9c:	e8 9c 8d ff ff       	callq  ad3d <safe_mul_func_uint16_t_u_u>
   11fa1:	0f b7 c0             	movzwl %ax,%eax
   11fa4:	89 c6                	mov    %eax,%esi
   11fa6:	bf 00 00 00 00       	mov    $0x0,%edi
   11fab:	e8 e2 84 ff ff       	callq  a492 <safe_lshift_func_int16_t_s_s>
   11fb0:	0f be d0             	movsbl %al,%edx
   11fb3:	48 8b 85 28 ee ff ff 	mov    -0x11d8(%rbp),%rax
   11fba:	48 8d 8d 28 ed ff ff 	lea    -0x12d8(%rbp),%rcx
   11fc1:	48 89 08             	mov    %rcx,(%rax)
   11fc4:	48 8b 85 28 ee ff ff 	mov    -0x11d8(%rbp),%rax
   11fcb:	48 8b 00             	mov    (%rax),%rax
   11fce:	48 39 85 18 ee ff ff 	cmp    %rax,-0x11e8(%rbp)
   11fd5:	0f 94 c0             	sete   %al
   11fd8:	0f b6 c0             	movzbl %al,%eax
   11fdb:	89 d6                	mov    %edx,%esi
   11fdd:	89 c7                	mov    %eax,%edi
   11fdf:	e8 86 82 ff ff       	callq  a26a <safe_div_func_int8_t_s_s>
   11fe4:	0f be c0             	movsbl %al,%eax
   11fe7:	09 85 20 ec ff ff    	or     %eax,-0x13e0(%rbp)
   11fed:	48 83 bd 78 eb ff ff 	cmpq   $0x0,-0x1488(%rbp)
   11ff4:	00 
   11ff5:	74 05                	je     11ffc <func_36+0x31ef>
   11ff7:	e9 4c fe ff ff       	jmpq   11e48 <func_36+0x303b>
   11ffc:	80 bd 86 eb ff ff 00 	cmpb   $0x0,-0x147a(%rbp)
   12003:	75 1b                	jne    12020 <func_36+0x3213>
   12005:	48 8b 85 78 eb ff ff 	mov    -0x1488(%rbp),%rax
   1200c:	98                   	cwtl   
   1200d:	48 8b 1d b4 d4 00 00 	mov    0xd4b4(%rip),%rbx        # 1f4c8 <g_72>
   12014:	89 c7                	mov    %eax,%edi
   12016:	e8 ef 12 00 00       	callq  1330a <func_47>
   1201b:	48 89 03             	mov    %rax,(%rbx)
   1201e:	eb 01                	jmp    12021 <func_36+0x3214>
   12020:	90                   	nop
   12021:	48 8b 05 c0 a3 00 00 	mov    0xa3c0(%rip),%rax        # 1c3e8 <g_1472>
   12028:	48 83 c0 01          	add    $0x1,%rax
   1202c:	48 89 05 b5 a3 00 00 	mov    %rax,0xa3b5(%rip)        # 1c3e8 <g_1472>
   12033:	48 8b 05 ae a3 00 00 	mov    0xa3ae(%rip),%rax        # 1c3e8 <g_1472>
   1203a:	48 83 f8 08          	cmp    $0x8,%rax
   1203e:	0f 8e 45 fe ff ff    	jle    11e89 <func_36+0x307c>
   12044:	8b 85 00 ed ff ff    	mov    -0x1300(%rbp),%eax
   1204a:	83 c0 01             	add    $0x1,%eax
   1204d:	89 85 00 ed ff ff    	mov    %eax,-0x1300(%rbp)
   12053:	8b 85 00 ed ff ff    	mov    -0x1300(%rbp),%eax
   12059:	85 c0                	test   %eax,%eax
   1205b:	0f 8e 07 fe ff ff    	jle    11e68 <func_36+0x305b>
   12061:	8b 1d fd a2 00 00    	mov    0xa2fd(%rip),%ebx        # 1c364 <g_1256+0x4>
   12067:	0f b6 05 f2 9f 00 00 	movzbl 0x9ff2(%rip),%eax        # 1c060 <g_228>
   1206e:	44 0f b6 e0          	movzbl %al,%r12d
   12072:	8b 85 00 ed ff ff    	mov    -0x1300(%rbp),%eax
   12078:	41 89 c5             	mov    %eax,%r13d
   1207b:	0f b6 85 86 eb ff ff 	movzbl -0x147a(%rbp),%eax
   12082:	0f b6 c0             	movzbl %al,%eax
   12085:	89 c6                	mov    %eax,%esi
   12087:	bf 02 00 00 00       	mov    $0x2,%edi
   1208c:	e8 02 8b ff ff       	callq  ab93 <safe_mul_func_uint8_t_u_u>
   12091:	0f b6 c0             	movzbl %al,%eax
   12094:	44 89 ee             	mov    %r13d,%esi
   12097:	89 c7                	mov    %eax,%edi
   12099:	e8 1a 8e ff ff       	callq  aeb8 <safe_add_func_uint32_t_u_u>
   1209e:	8b 95 bc eb ff ff    	mov    -0x1444(%rbp),%edx
   120a4:	39 d0                	cmp    %edx,%eax
   120a6:	0f 92 c0             	setb   %al
   120a9:	0f b6 c0             	movzbl %al,%eax
   120ac:	be 00 00 00 00       	mov    $0x0,%esi
   120b1:	89 c7                	mov    %eax,%edi
   120b3:	e8 e9 81 ff ff       	callq  a2a1 <safe_lshift_func_int8_t_s_s>
   120b8:	84 c0                	test   %al,%al
   120ba:	74 11                	je     120cd <func_36+0x32c0>
   120bc:	48 83 bd 78 eb ff ff 	cmpq   $0x0,-0x1488(%rbp)
   120c3:	00 
   120c4:	74 07                	je     120cd <func_36+0x32c0>
   120c6:	b8 01 00 00 00       	mov    $0x1,%eax
   120cb:	eb 05                	jmp    120d2 <func_36+0x32c5>
   120cd:	b8 00 00 00 00       	mov    $0x0,%eax
   120d2:	0d eb 7b 72 4a       	or     $0x4a727beb,%eax
   120d7:	48 98                	cltq   
   120d9:	4c 31 e0             	xor    %r12,%rax
   120dc:	48 39 85 78 eb ff ff 	cmp    %rax,-0x1488(%rbp)
   120e3:	0f 9d c0             	setge  %al
   120e6:	0f b6 d0             	movzbl %al,%edx
   120e9:	48 8b 85 78 eb ff ff 	mov    -0x1488(%rbp),%rax
   120f0:	0f b6 c0             	movzbl %al,%eax
   120f3:	89 d6                	mov    %edx,%esi
   120f5:	89 c7                	mov    %eax,%edi
   120f7:	e8 c2 8b ff ff       	callq  acbe <safe_rshift_func_uint8_t_u_u>
   120fc:	0f b6 d0             	movzbl %al,%edx
   120ff:	8b 85 00 ed ff ff    	mov    -0x1300(%rbp),%eax
   12105:	21 d0                	and    %edx,%eax
   12107:	21 d8                	and    %ebx,%eax
   12109:	be 00 00 00 00       	mov    $0x0,%esi
   1210e:	89 c7                	mov    %eax,%edi
   12110:	e8 a3 8d ff ff       	callq  aeb8 <safe_add_func_uint32_t_u_u>
   12115:	89 85 00 ed ff ff    	mov    %eax,-0x1300(%rbp)
   1211b:	8b 85 00 ed ff ff    	mov    -0x1300(%rbp),%eax
   12121:	88 85 85 eb ff ff    	mov    %al,-0x147b(%rbp)
   12127:	0f b6 85 85 eb ff ff 	movzbl -0x147b(%rbp),%eax
   1212e:	84 c0                	test   %al,%al
   12130:	0f 84 89 09 00 00    	je     12abf <func_36+0x3cb2>
   12136:	c7 85 10 ec ff ff fc 	movl   $0xfffffffc,-0x13f0(%rbp)
   1213d:	ff ff ff 
   12140:	c7 85 08 ed ff ff 3b 	movl   $0xde76ed3b,-0x12f8(%rbp)
   12147:	ed 76 de 
   1214a:	48 8d 05 07 d9 00 00 	lea    0xd907(%rip),%rax        # 1fa58 <g_745>
   12151:	48 89 85 40 f1 ff ff 	mov    %rax,-0xec0(%rbp)
   12158:	48 8d 05 f9 d8 00 00 	lea    0xd8f9(%rip),%rax        # 1fa58 <g_745>
   1215f:	48 89 85 48 f1 ff ff 	mov    %rax,-0xeb8(%rbp)
   12166:	48 8d 05 eb d8 00 00 	lea    0xd8eb(%rip),%rax        # 1fa58 <g_745>
   1216d:	48 89 85 50 f1 ff ff 	mov    %rax,-0xeb0(%rbp)
   12174:	48 8d 05 dd d8 00 00 	lea    0xd8dd(%rip),%rax        # 1fa58 <g_745>
   1217b:	48 89 85 58 f1 ff ff 	mov    %rax,-0xea8(%rbp)
   12182:	48 8d 05 cf d8 00 00 	lea    0xd8cf(%rip),%rax        # 1fa58 <g_745>
   12189:	48 89 85 60 f1 ff ff 	mov    %rax,-0xea0(%rbp)
   12190:	48 8d 05 c1 d8 00 00 	lea    0xd8c1(%rip),%rax        # 1fa58 <g_745>
   12197:	48 89 85 68 f1 ff ff 	mov    %rax,-0xe98(%rbp)
   1219e:	48 8d 05 b3 d8 00 00 	lea    0xd8b3(%rip),%rax        # 1fa58 <g_745>
   121a5:	48 89 85 70 f1 ff ff 	mov    %rax,-0xe90(%rbp)
   121ac:	48 8d 05 a5 d8 00 00 	lea    0xd8a5(%rip),%rax        # 1fa58 <g_745>
   121b3:	48 89 85 78 f1 ff ff 	mov    %rax,-0xe88(%rbp)
   121ba:	48 8d 05 97 d8 00 00 	lea    0xd897(%rip),%rax        # 1fa58 <g_745>
   121c1:	48 89 85 80 f1 ff ff 	mov    %rax,-0xe80(%rbp)
   121c8:	48 8d 05 89 d8 00 00 	lea    0xd889(%rip),%rax        # 1fa58 <g_745>
   121cf:	48 89 85 88 f1 ff ff 	mov    %rax,-0xe78(%rbp)
   121d6:	48 8d 05 13 eb 00 00 	lea    0xeb13(%rip),%rax        # 20cf0 <g_73>
   121dd:	48 89 85 a0 ed ff ff 	mov    %rax,-0x1260(%rbp)
   121e4:	c7 85 c8 eb ff ff 01 	movl   $0x1,-0x1438(%rbp)
   121eb:	00 00 00 
   121ee:	48 8d 05 45 9e 00 00 	lea    0x9e45(%rip),%rax        # 1c03a <g_167>
   121f5:	48 89 85 a8 ed ff ff 	mov    %rax,-0x1258(%rbp)
   121fc:	48 8d 85 85 eb ff ff 	lea    -0x147b(%rbp),%rax
   12203:	48 89 85 b0 ed ff ff 	mov    %rax,-0x1250(%rbp)
   1220a:	c7 85 cc eb ff ff 00 	movl   $0x0,-0x1434(%rbp)
   12211:	00 00 00 
   12214:	eb 46                	jmp    1225c <func_36+0x344f>
   12216:	c7 85 a8 eb ff ff 00 	movl   $0x0,-0x1458(%rbp)
   1221d:	00 00 00 
   12220:	eb 2a                	jmp    1224c <func_36+0x343f>
   12222:	8b 85 a8 eb ff ff    	mov    -0x1458(%rbp),%eax
   12228:	48 98                	cltq   
   1222a:	8b 95 cc eb ff ff    	mov    -0x1434(%rbp),%edx
   12230:	48 63 d2             	movslq %edx,%rdx
   12233:	48 c1 e2 02          	shl    $0x2,%rdx
   12237:	48 01 d0             	add    %rdx,%rax
   1223a:	c7 84 85 70 f0 ff ff 	movl   $0x1,-0xf90(%rbp,%rax,4)
   12241:	01 00 00 00 
   12245:	83 85 a8 eb ff ff 01 	addl   $0x1,-0x1458(%rbp)
   1224c:	83 bd a8 eb ff ff 03 	cmpl   $0x3,-0x1458(%rbp)
   12253:	7e cd                	jle    12222 <func_36+0x3415>
   12255:	83 85 cc eb ff ff 01 	addl   $0x1,-0x1434(%rbp)
   1225c:	83 bd cc eb ff ff 00 	cmpl   $0x0,-0x1434(%rbp)
   12263:	7e b1                	jle    12216 <func_36+0x3409>
   12265:	c7 85 cc eb ff ff 00 	movl   $0x0,-0x1434(%rbp)
   1226c:	00 00 00 
   1226f:	eb 14                	jmp    12285 <func_36+0x3478>
   12271:	8b 85 cc eb ff ff    	mov    -0x1434(%rbp),%eax
   12277:	48 98                	cltq   
   12279:	c6 44 05 c3 fe       	movb   $0xfe,-0x3d(%rbp,%rax,1)
   1227e:	83 85 cc eb ff ff 01 	addl   $0x1,-0x1434(%rbp)
   12285:	83 bd cc eb ff ff 01 	cmpl   $0x1,-0x1434(%rbp)
   1228c:	7e e3                	jle    12271 <func_36+0x3464>
   1228e:	90                   	nop
   1228f:	f3 0f 1e fa          	endbr64 
   12293:	8b 85 10 ec ff ff    	mov    -0x13f0(%rbp),%eax
   12299:	31 85 bc eb ff ff    	xor    %eax,-0x1444(%rbp)
   1229f:	48 83 bd 78 eb ff ff 	cmpq   $0x0,-0x1488(%rbp)
   122a6:	00 
   122a7:	0f 84 d0 00 00 00    	je     1237d <func_36+0x3570>
   122ad:	48 8d 05 e4 d7 00 00 	lea    0xd7e4(%rip),%rax        # 1fa98 <g_1041>
   122b4:	48 89 85 20 ed ff ff 	mov    %rax,-0x12e0(%rbp)
   122bb:	48 8d 85 20 ed ff ff 	lea    -0x12e0(%rbp),%rax
   122c2:	48 89 85 28 ed ff ff 	mov    %rax,-0x12d8(%rbp)
   122c9:	48 8d 85 28 ed ff ff 	lea    -0x12d8(%rbp),%rax
   122d0:	48 89 85 00 ee ff ff 	mov    %rax,-0x1200(%rbp)
   122d7:	48 8b 85 78 eb ff ff 	mov    -0x1488(%rbp),%rax
   122de:	0f b7 c0             	movzwl %ax,%eax
   122e1:	89 c7                	mov    %eax,%edi
   122e3:	e8 01 8a ff ff       	callq  ace9 <safe_unary_minus_func_uint16_t_u>
   122e8:	0f b7 d8             	movzwl %ax,%ebx
   122eb:	be 64 00 00 00       	mov    $0x64,%esi
   122f0:	bf d0 ff ff ff       	mov    $0xffffffd0,%edi
   122f5:	e8 18 7f ff ff       	callq  a212 <safe_mul_func_int8_t_s_s>
   122fa:	0f be c0             	movsbl %al,%eax
   122fd:	39 c3                	cmp    %eax,%ebx
   122ff:	75 70                	jne    12371 <func_36+0x3564>
   12301:	48 8d 85 28 ed ff ff 	lea    -0x12d8(%rbp),%rax
   12308:	48 89 85 08 ee ff ff 	mov    %rax,-0x11f8(%rbp)
   1230f:	c7 85 ac eb ff ff 00 	movl   $0x0,-0x1454(%rbp)
   12316:	00 00 00 
   12319:	eb 1a                	jmp    12335 <func_36+0x3528>
   1231b:	8b 85 ac eb ff ff    	mov    -0x1454(%rbp),%eax
   12321:	48 98                	cltq   
   12323:	c7 84 85 60 f5 ff ff 	movl   $0x1,-0xaa0(%rbp,%rax,4)
   1232a:	01 00 00 00 
   1232e:	83 85 ac eb ff ff 01 	addl   $0x1,-0x1454(%rbp)
   12335:	83 bd ac eb ff ff 01 	cmpl   $0x1,-0x1454(%rbp)
   1233c:	7e dd                	jle    1231b <func_36+0x350e>
   1233e:	48 83 bd 50 ed ff ff 	cmpq   $0x0,-0x12b0(%rbp)
   12345:	00 
   12346:	74 05                	je     1234d <func_36+0x3540>
   12348:	e9 fb fa ff ff       	jmpq   11e48 <func_36+0x303b>
   1234d:	48 8b 85 00 ee ff ff 	mov    -0x1200(%rbp),%rax
   12354:	48 89 85 08 ee ff ff 	mov    %rax,-0x11f8(%rbp)
   1235b:	0f b7 85 8c eb ff ff 	movzwl -0x1474(%rbp),%eax
   12362:	83 e8 01             	sub    $0x1,%eax
   12365:	66 89 85 8c eb ff ff 	mov    %ax,-0x1474(%rbp)
   1236c:	e9 ab 05 00 00       	jmpq   1291c <func_36+0x3b0f>
   12371:	0f b7 05 b8 9f 00 00 	movzwl 0x9fb8(%rip),%eax        # 1c330 <g_1038>
   12378:	e9 ec 08 00 00       	jmpq   12c69 <func_36+0x3e5c>
   1237d:	48 c7 85 b8 ed ff ff 	movq   $0x0,-0x1248(%rbp)
   12384:	00 00 00 00 
   12388:	c7 85 14 ec ff ff ff 	movl   $0xffffffff,-0x13ec(%rbp)
   1238f:	ff ff ff 
   12392:	48 8d 85 8c eb ff ff 	lea    -0x1474(%rbp),%rax
   12399:	48 89 85 c0 ed ff ff 	mov    %rax,-0x1240(%rbp)
   123a0:	48 c7 85 c8 ed ff ff 	movq   $0x0,-0x1238(%rbp)
   123a7:	00 00 00 00 
   123ab:	48 8d 05 89 9c 00 00 	lea    0x9c89(%rip),%rax        # 1c03b <g_190>
   123b2:	48 89 85 d0 ed ff ff 	mov    %rax,-0x1230(%rbp)
   123b9:	48 8d 05 48 d7 00 00 	lea    0xd748(%rip),%rax        # 1fb08 <g_1337>
   123c0:	48 89 85 28 ed ff ff 	mov    %rax,-0x12d8(%rbp)
   123c7:	48 8d 85 28 ed ff ff 	lea    -0x12d8(%rbp),%rax
   123ce:	48 89 85 d8 ed ff ff 	mov    %rax,-0x1228(%rbp)
   123d5:	48 8d 05 bc d4 00 00 	lea    0xd4bc(%rip),%rax        # 1f898 <g_626>
   123dc:	48 89 85 e0 ed ff ff 	mov    %rax,-0x1220(%rbp)
   123e3:	48 8d 85 84 eb ff ff 	lea    -0x147c(%rbp),%rax
   123ea:	48 89 85 60 f5 ff ff 	mov    %rax,-0xaa0(%rbp)
   123f1:	48 8d 85 84 eb ff ff 	lea    -0x147c(%rbp),%rax
   123f8:	48 89 85 68 f5 ff ff 	mov    %rax,-0xa98(%rbp)
   123ff:	48 8d 85 84 eb ff ff 	lea    -0x147c(%rbp),%rax
   12406:	48 89 85 70 f5 ff ff 	mov    %rax,-0xa90(%rbp)
   1240d:	48 8d 85 84 eb ff ff 	lea    -0x147c(%rbp),%rax
   12414:	48 89 85 78 f5 ff ff 	mov    %rax,-0xa88(%rbp)
   1241b:	48 8d 85 84 eb ff ff 	lea    -0x147c(%rbp),%rax
   12422:	48 89 85 80 f5 ff ff 	mov    %rax,-0xa80(%rbp)
   12429:	48 c7 85 88 f5 ff ff 	movq   $0x0,-0xa78(%rbp)
   12430:	00 00 00 00 
   12434:	48 8d 05 ff 9b 00 00 	lea    0x9bff(%rip),%rax        # 1c03a <g_167>
   1243b:	48 89 85 90 f5 ff ff 	mov    %rax,-0xa70(%rbp)
   12442:	48 c7 85 98 f5 ff ff 	movq   $0x0,-0xa68(%rbp)
   12449:	00 00 00 00 
   1244d:	48 8d 05 e6 9b 00 00 	lea    0x9be6(%rip),%rax        # 1c03a <g_167>
   12454:	48 89 85 a0 f5 ff ff 	mov    %rax,-0xa60(%rbp)
   1245b:	48 c7 85 a8 f5 ff ff 	movq   $0x0,-0xa58(%rbp)
   12462:	00 00 00 00 
   12466:	48 8d 85 84 eb ff ff 	lea    -0x147c(%rbp),%rax
   1246d:	48 89 85 b0 f5 ff ff 	mov    %rax,-0xa50(%rbp)
   12474:	48 8d 85 84 eb ff ff 	lea    -0x147c(%rbp),%rax
   1247b:	48 89 85 b8 f5 ff ff 	mov    %rax,-0xa48(%rbp)
   12482:	48 8d 85 84 eb ff ff 	lea    -0x147c(%rbp),%rax
   12489:	48 89 85 c0 f5 ff ff 	mov    %rax,-0xa40(%rbp)
   12490:	48 8d 85 84 eb ff ff 	lea    -0x147c(%rbp),%rax
   12497:	48 89 85 c8 f5 ff ff 	mov    %rax,-0xa38(%rbp)
   1249e:	48 8d 85 84 eb ff ff 	lea    -0x147c(%rbp),%rax
   124a5:	48 89 85 d0 f5 ff ff 	mov    %rax,-0xa30(%rbp)
   124ac:	c6 85 87 eb ff ff f6 	movb   $0xf6,-0x1479(%rbp)
   124b3:	48 8b 05 de d5 00 00 	mov    0xd5de(%rip),%rax        # 1fa98 <g_1041>
   124ba:	48 8b 00             	mov    (%rax),%rax
   124bd:	0f b7 00             	movzwl (%rax),%eax
   124c0:	0f bf d8             	movswl %ax,%ebx
   124c3:	44 8b a5 0c ec ff ff 	mov    -0x13f4(%rbp),%r12d
   124ca:	44 8b 2d 57 9b 00 00 	mov    0x9b57(%rip),%r13d        # 1c028 <g_29>
   124d1:	48 8b 05 28 9f 00 00 	mov    0x9f28(%rip),%rax        # 1c400 <g_1615>
   124d8:	48 8b 15 29 9f 00 00 	mov    0x9f29(%rip),%rdx        # 1c408 <g_1615+0x8>
   124df:	48 8b 85 88 f1 ff ff 	mov    -0xe78(%rbp),%rax
   124e6:	48 39 85 b8 ed ff ff 	cmp    %rax,-0x1248(%rbp)
   124ed:	0f 94 c0             	sete   %al
   124f0:	0f b6 c0             	movzbl %al,%eax
   124f3:	f7 d0                	not    %eax
   124f5:	c1 e8 1f             	shr    $0x1f,%eax
   124f8:	0f b6 d0             	movzbl %al,%edx
   124fb:	48 8b 85 d0 ed ff ff 	mov    -0x1230(%rbp),%rax
   12502:	0f b6 00             	movzbl (%rax),%eax
   12505:	89 c1                	mov    %eax,%ecx
   12507:	89 d0                	mov    %edx,%eax
   12509:	09 c8                	or     %ecx,%eax
   1250b:	89 c2                	mov    %eax,%edx
   1250d:	48 8b 85 d0 ed ff ff 	mov    -0x1230(%rbp),%rax
   12514:	88 10                	mov    %dl,(%rax)
   12516:	48 8b 85 d0 ed ff ff 	mov    -0x1230(%rbp),%rax
   1251d:	0f b6 00             	movzbl (%rax),%eax
   12520:	0f b6 c0             	movzbl %al,%eax
   12523:	be 00 00 00 00       	mov    $0x0,%esi
   12528:	89 c7                	mov    %eax,%edi
   1252a:	e8 d6 86 ff ff       	callq  ac05 <safe_lshift_func_uint8_t_u_s>
   1252f:	0f b6 d0             	movzbl %al,%edx
   12532:	8b 05 ec 9d 00 00    	mov    0x9dec(%rip),%eax        # 1c324 <g_820+0x4>
   12538:	39 c2                	cmp    %eax,%edx
   1253a:	0f 9c c0             	setl   %al
   1253d:	0f b6 c0             	movzbl %al,%eax
   12540:	44 89 ee             	mov    %r13d,%esi
   12543:	89 c7                	mov    %eax,%edi
   12545:	e8 a4 7d ff ff       	callq  a2ee <safe_lshift_func_int8_t_s_u>
   1254a:	0f be c0             	movsbl %al,%eax
   1254d:	39 85 bc eb ff ff    	cmp    %eax,-0x1444(%rbp)
   12553:	0f 9e c0             	setle  %al
   12556:	0f b6 c0             	movzbl %al,%eax
   12559:	44 89 e6             	mov    %r12d,%esi
   1255c:	89 c7                	mov    %eax,%edi
   1255e:	e8 55 89 ff ff       	callq  aeb8 <safe_add_func_uint32_t_u_u>
   12563:	48 8b 05 66 cf 00 00 	mov    0xcf66(%rip),%rax        # 1f4d0 <g_203>
   1256a:	0f b7 10             	movzwl (%rax),%edx
   1256d:	48 8b 05 1c d5 00 00 	mov    0xd51c(%rip),%rax        # 1fa90 <g_1042>
   12574:	0f b7 00             	movzwl (%rax),%eax
   12577:	66 39 c2             	cmp    %ax,%dx
   1257a:	0f 9d c0             	setge  %al
   1257d:	0f b6 c0             	movzbl %al,%eax
   12580:	48 39 85 78 eb ff ff 	cmp    %rax,-0x1488(%rbp)
   12587:	0f 9c c0             	setl   %al
   1258a:	0f b6 d0             	movzbl %al,%edx
   1258d:	0f bf 85 92 eb ff ff 	movswl -0x146e(%rbp),%eax
   12594:	39 c2                	cmp    %eax,%edx
   12596:	0f 94 c0             	sete   %al
   12599:	0f b6 c0             	movzbl %al,%eax
   1259c:	89 de                	mov    %ebx,%esi
   1259e:	89 c7                	mov    %eax,%edi
   125a0:	e8 19 88 ff ff       	callq  adbe <safe_lshift_func_uint16_t_u_s>
   125a5:	66 85 c0             	test   %ax,%ax
   125a8:	0f 95 c0             	setne  %al
   125ab:	0f b6 d8             	movzbl %al,%ebx
   125ae:	8b 85 00 ed ff ff    	mov    -0x1300(%rbp),%eax
   125b4:	0f b7 d0             	movzwl %ax,%edx
   125b7:	48 8b 85 78 eb ff ff 	mov    -0x1488(%rbp),%rax
   125be:	0f b7 c0             	movzwl %ax,%eax
   125c1:	89 d6                	mov    %edx,%esi
   125c3:	89 c7                	mov    %eax,%edi
   125c5:	e8 55 87 ff ff       	callq  ad1f <safe_sub_func_uint16_t_u_u>
   125ca:	0f b7 c0             	movzwl %ax,%eax
   125cd:	39 85 bc eb ff ff    	cmp    %eax,-0x1444(%rbp)
   125d3:	0f 9f c0             	setg   %al
   125d6:	0f b6 c0             	movzbl %al,%eax
   125d9:	89 de                	mov    %ebx,%esi
   125db:	89 c7                	mov    %eax,%edi
   125dd:	e8 5b 87 ff ff       	callq  ad3d <safe_mul_func_uint16_t_u_u>
   125e2:	0f b7 05 37 9d 00 00 	movzwl 0x9d37(%rip),%eax        # 1c320 <g_820>
   125e9:	66 25 ff 0f          	and    $0xfff,%ax
   125ed:	66 85 c0             	test   %ax,%ax
   125f0:	48 8d 05 59 d4 00 00 	lea    0xd459(%rip),%rax        # 1fa50 <g_746>
   125f7:	48 89 05 5a d4 00 00 	mov    %rax,0xd45a(%rip)        # 1fa58 <g_745>
   125fe:	48 8b 85 d8 ed ff ff 	mov    -0x1228(%rbp),%rax
   12605:	48 8d 15 fc d4 00 00 	lea    0xd4fc(%rip),%rdx        # 1fb08 <g_1337>
   1260c:	48 89 10             	mov    %rdx,(%rax)
   1260f:	48 8d 85 08 ed ff ff 	lea    -0x12f8(%rbp),%rax
   12616:	48 89 85 18 ed ff ff 	mov    %rax,-0x12e8(%rbp)
   1261d:	48 8b 05 64 d2 00 00 	mov    0xd264(%rip),%rax        # 1f888 <g_335>
   12624:	48 8b 95 18 ed ff ff 	mov    -0x12e8(%rbp),%rdx
   1262b:	48 89 10             	mov    %rdx,(%rax)
   1262e:	0f b6 9d 87 eb ff ff 	movzbl -0x1479(%rbp),%ebx
   12635:	48 8b 85 78 eb ff ff 	mov    -0x1488(%rbp),%rax
   1263c:	0f be c0             	movsbl %al,%eax
   1263f:	be 9d ff ff ff       	mov    $0xffffff9d,%esi
   12644:	89 c7                	mov    %eax,%edi
   12646:	e8 c7 7b ff ff       	callq  a212 <safe_mul_func_int8_t_s_s>
   1264b:	44 0f be e0          	movsbl %al,%r12d
   1264f:	48 83 bd c0 ed ff ff 	cmpq   $0x0,-0x1240(%rbp)
   12656:	00 
   12657:	75 12                	jne    1266b <func_36+0x385e>
   12659:	0f b6 05 00 9a 00 00 	movzbl 0x9a00(%rip),%eax        # 1c060 <g_228>
   12660:	84 c0                	test   %al,%al
   12662:	74 07                	je     1266b <func_36+0x385e>
   12664:	b8 01 00 00 00       	mov    $0x1,%eax
   12669:	eb 05                	jmp    12670 <func_36+0x3863>
   1266b:	b8 00 00 00 00       	mov    $0x0,%eax
   12670:	88 05 c4 99 00 00    	mov    %al,0x99c4(%rip)        # 1c03a <g_167>
   12676:	44 0f b6 2d bc 99 00 	movzbl 0x99bc(%rip),%r13d        # 1c03a <g_167>
   1267d:	00 
   1267e:	48 8b 85 78 eb ff ff 	mov    -0x1488(%rbp),%rax
   12685:	89 c2                	mov    %eax,%edx
   12687:	0f b7 05 c2 99 00 00 	movzwl 0x99c2(%rip),%eax        # 1c050 <g_218>
   1268e:	c1 e0 04             	shl    $0x4,%eax
   12691:	66 c1 f8 04          	sar    $0x4,%ax
   12695:	0f be c0             	movsbl %al,%eax
   12698:	89 d6                	mov    %edx,%esi
   1269a:	89 c7                	mov    %eax,%edi
   1269c:	e8 00 7c ff ff       	callq  a2a1 <safe_lshift_func_int8_t_s_s>
   126a1:	44 31 e8             	xor    %r13d,%eax
   126a4:	0f be c0             	movsbl %al,%eax
   126a7:	be 05 00 00 00       	mov    $0x5,%esi
   126ac:	89 c7                	mov    %eax,%edi
   126ae:	e8 82 7c ff ff       	callq  a335 <safe_rshift_func_int8_t_s_s>
   126b3:	84 c0                	test   %al,%al
   126b5:	74 07                	je     126be <func_36+0x38b1>
   126b7:	b8 01 00 00 00       	mov    $0x1,%eax
   126bc:	eb 05                	jmp    126c3 <func_36+0x38b6>
   126be:	b8 00 00 00 00       	mov    $0x0,%eax
   126c3:	44 39 e0             	cmp    %r12d,%eax
   126c6:	0f 94 c0             	sete   %al
   126c9:	0f b6 d0             	movzbl %al,%edx
   126cc:	8b 85 00 ed ff ff    	mov    -0x1300(%rbp),%eax
   126d2:	39 c2                	cmp    %eax,%edx
   126d4:	0f 9f c0             	setg   %al
   126d7:	0f b6 c0             	movzbl %al,%eax
   126da:	48 be 74 e9 3b c5 f3 	movabs $0x271b7cf3c53be974,%rsi
   126e1:	7c 1b 27 
   126e4:	48 89 c7             	mov    %rax,%rdi
   126e7:	e8 5f 89 ff ff       	callq  b04b <safe_sub_func_uint64_t_u_u>
   126ec:	0f b6 c0             	movzbl %al,%eax
   126ef:	89 de                	mov    %ebx,%esi
   126f1:	89 c7                	mov    %eax,%edi
   126f3:	e8 9b 84 ff ff       	callq  ab93 <safe_mul_func_uint8_t_u_u>
   126f8:	48 8b 85 78 eb ff ff 	mov    -0x1488(%rbp),%rax
   126ff:	89 c2                	mov    %eax,%edx
   12701:	48 8b 85 78 ed ff ff 	mov    -0x1288(%rbp),%rax
   12708:	48 3b 85 e0 ed ff ff 	cmp    -0x1220(%rbp),%rax
   1270f:	0f 94 c0             	sete   %al
   12712:	0f b6 c0             	movzbl %al,%eax
   12715:	89 d6                	mov    %edx,%esi
   12717:	89 c7                	mov    %eax,%edi
   12719:	e8 df 87 ff ff       	callq  aefd <safe_mod_func_uint32_t_u_u>
   1271e:	48 8b 05 43 9c 00 00 	mov    0x9c43(%rip),%rax        # 1c368 <g_1256+0x8>
   12725:	c1 e0 02             	shl    $0x2,%eax
   12728:	c1 f8 05             	sar    $0x5,%eax
   1272b:	48 98                	cltq   
   1272d:	48 c7 c6 fc ff ff ff 	mov    $0xfffffffffffffffc,%rsi
   12734:	48 89 c7             	mov    %rax,%rdi
   12737:	e8 44 89 ff ff       	callq  b080 <safe_mod_func_uint64_t_u_u>
   1273c:	48 85 c0             	test   %rax,%rax
   1273f:	74 08                	je     12749 <func_36+0x393c>
   12741:	48 83 bd 78 eb ff ff 	cmpq   $0x0,-0x1488(%rbp)
   12748:	00 
   12749:	48 8b 85 18 ed ff ff 	mov    -0x12e8(%rbp),%rax
   12750:	c7 00 00 00 00 00    	movl   $0x0,(%rax)
   12756:	c7 85 a0 eb ff ff 00 	movl   $0x0,-0x1460(%rbp)
   1275d:	00 00 00 
   12760:	e9 a8 01 00 00       	jmpq   1290d <func_36+0x3b00>
   12765:	c7 85 18 ec ff ff f7 	movl   $0xfffffff7,-0x13e8(%rbp)
   1276c:	ff ff ff 
   1276f:	48 8d 05 ba 98 00 00 	lea    0x98ba(%rip),%rax        # 1c030 <g_106>
   12776:	48 89 85 20 ed ff ff 	mov    %rax,-0x12e0(%rbp)
   1277d:	48 8d 85 20 ed ff ff 	lea    -0x12e0(%rbp),%rax
   12784:	48 89 85 e8 ed ff ff 	mov    %rax,-0x1218(%rbp)
   1278b:	48 8d 85 d8 ec ff ff 	lea    -0x1328(%rbp),%rax
   12792:	48 89 85 f0 ed ff ff 	mov    %rax,-0x1210(%rbp)
   12799:	48 8d 85 90 f0 ff ff 	lea    -0xf70(%rbp),%rax
   127a0:	48 83 c0 18          	add    $0x18,%rax
   127a4:	48 89 85 28 ed ff ff 	mov    %rax,-0x12d8(%rbp)
   127ab:	48 8d 85 28 ed ff ff 	lea    -0x12d8(%rbp),%rax
   127b2:	48 89 85 f8 ed ff ff 	mov    %rax,-0x1208(%rbp)
   127b9:	48 8b 85 a0 ed ff ff 	mov    -0x1260(%rbp),%rax
   127c0:	48 89 85 80 ed ff ff 	mov    %rax,-0x1280(%rbp)
   127c7:	48 83 bd 78 eb ff ff 	cmpq   $0x0,-0x1488(%rbp)
   127ce:	00 
   127cf:	0f 85 28 01 00 00    	jne    128fd <func_36+0x3af0>
   127d5:	48 8b 85 78 eb ff ff 	mov    -0x1488(%rbp),%rax
   127dc:	89 85 18 ec ff ff    	mov    %eax,-0x13e8(%rbp)
   127e2:	48 8b 05 ff 9b 00 00 	mov    0x9bff(%rip),%rax        # 1c3e8 <g_1472>
   127e9:	0f b7 d8             	movzwl %ax,%ebx
   127ec:	48 8b 85 e8 ed ff ff 	mov    -0x1218(%rbp),%rax
   127f3:	48 8d 15 36 98 00 00 	lea    0x9836(%rip),%rdx        # 1c030 <g_106>
   127fa:	48 89 10             	mov    %rdx,(%rax)
   127fd:	48 8b 85 e8 ed ff ff 	mov    -0x1218(%rbp),%rax
   12804:	48 8b 00             	mov    (%rax),%rax
   12807:	48 8d 15 da 9b 00 00 	lea    0x9bda(%rip),%rdx        # 1c3e8 <g_1472>
   1280e:	48 39 d0             	cmp    %rdx,%rax
   12811:	41 0f 95 c4          	setne  %r12b
   12815:	48 8b 05 ec d2 00 00 	mov    0xd2ec(%rip),%rax        # 1fb08 <g_1337>
   1281c:	48 8b 00             	mov    (%rax),%rax
   1281f:	48 39 85 f0 ed ff ff 	cmp    %rax,-0x1210(%rbp)
   12826:	0f 94 c0             	sete   %al
   12829:	0f b6 d0             	movzbl %al,%edx
   1282c:	48 8b 85 c0 ed ff ff 	mov    -0x1240(%rbp),%rax
   12833:	66 89 10             	mov    %dx,(%rax)
   12836:	48 8b 85 f8 ed ff ff 	mov    -0x1208(%rbp),%rax
   1283d:	48 8d 15 f8 97 00 00 	lea    0x97f8(%rip),%rdx        # 1c03c <g_199>
   12844:	48 89 10             	mov    %rdx,(%rax)
   12847:	48 8b 85 f8 ed ff ff 	mov    -0x1208(%rbp),%rax
   1284e:	48 8b 00             	mov    (%rax),%rax
   12851:	48 8d 15 e4 97 00 00 	lea    0x97e4(%rip),%rdx        # 1c03c <g_199>
   12858:	48 39 d0             	cmp    %rdx,%rax
   1285b:	0f 95 c0             	setne  %al
   1285e:	0f b6 c0             	movzbl %al,%eax
   12861:	8b 95 14 ec ff ff    	mov    -0x13ec(%rbp),%edx
   12867:	89 d6                	mov    %edx,%esi
   12869:	89 c7                	mov    %eax,%edi
   1286b:	e8 95 83 ff ff       	callq  ac05 <safe_lshift_func_uint8_t_u_s>
   12870:	0f b6 c0             	movzbl %al,%eax
   12873:	89 85 00 ed ff ff    	mov    %eax,-0x1300(%rbp)
   12879:	8b 85 00 ed ff ff    	mov    -0x1300(%rbp),%eax
   1287f:	48 98                	cltq   
   12881:	48 39 85 78 eb ff ff 	cmp    %rax,-0x1488(%rbp)
   12888:	0f 9e c0             	setle  %al
   1288b:	44 31 e0             	xor    %r12d,%eax
   1288e:	84 c0                	test   %al,%al
   12890:	74 07                	je     12899 <func_36+0x3a8c>
   12892:	b8 01 00 00 00       	mov    $0x1,%eax
   12897:	eb 05                	jmp    1289e <func_36+0x3a91>
   12899:	b8 00 00 00 00       	mov    $0x0,%eax
   1289e:	21 85 c8 eb ff ff    	and    %eax,-0x1438(%rbp)
   128a4:	8b 85 c8 eb ff ff    	mov    -0x1438(%rbp),%eax
   128aa:	89 c2                	mov    %eax,%edx
   128ac:	48 8b 85 78 eb ff ff 	mov    -0x1488(%rbp),%rax
   128b3:	31 d0                	xor    %edx,%eax
   128b5:	98                   	cwtl   
   128b6:	be 04 00 00 00       	mov    $0x4,%esi
   128bb:	89 c7                	mov    %eax,%edi
   128bd:	e8 33 7b ff ff       	callq  a3f5 <safe_mul_func_int16_t_s_s>
   128c2:	0f b7 c0             	movzwl %ax,%eax
   128c5:	89 de                	mov    %ebx,%esi
   128c7:	89 c7                	mov    %eax,%edi
   128c9:	e8 c0 84 ff ff       	callq  ad8e <safe_div_func_uint16_t_u_u>
   128ce:	66 85 c0             	test   %ax,%ax
   128d1:	75 0a                	jne    128dd <func_36+0x3ad0>
   128d3:	48 83 bd 78 eb ff ff 	cmpq   $0x0,-0x1488(%rbp)
   128da:	00 
   128db:	74 07                	je     128e4 <func_36+0x3ad7>
   128dd:	b8 01 00 00 00       	mov    $0x1,%eax
   128e2:	eb 05                	jmp    128e9 <func_36+0x3adc>
   128e4:	b8 00 00 00 00       	mov    $0x0,%eax
   128e9:	98                   	cwtl   
   128ea:	89 c7                	mov    %eax,%edi
   128ec:	e8 19 0a 00 00       	callq  1330a <func_47>
   128f1:	48 8b 95 80 ed ff ff 	mov    -0x1280(%rbp),%rdx
   128f8:	48 89 02             	mov    %rax,(%rdx)
   128fb:	eb 01                	jmp    128fe <func_36+0x3af1>
   128fd:	90                   	nop
   128fe:	8b 85 a0 eb ff ff    	mov    -0x1460(%rbp),%eax
   12904:	83 c0 01             	add    $0x1,%eax
   12907:	89 85 a0 eb ff ff    	mov    %eax,-0x1460(%rbp)
   1290d:	8b 85 a0 eb ff ff    	mov    -0x1460(%rbp),%eax
   12913:	83 f8 05             	cmp    $0x5,%eax
   12916:	0f 8e 49 fe ff ff    	jle    12765 <func_36+0x3958>
   1291c:	b8 2c 00 00 00       	mov    $0x2c,%eax
   12921:	48 0f bf d8          	movswq %ax,%rbx
   12925:	48 b8 0b 63 dc a4 14 	movabs $0x59301f14a4dc630b,%rax
   1292c:	1f 30 59 
   1292f:	48 39 85 78 eb ff ff 	cmp    %rax,-0x1488(%rbp)
   12936:	0f 9f c0             	setg   %al
   12939:	0f b6 c0             	movzbl %al,%eax
   1293c:	48 89 c6             	mov    %rax,%rsi
   1293f:	48 bf be e4 49 b4 78 	movabs $0x3192ac78b449e4be,%rdi
   12946:	ac 92 31 
   12949:	e8 f3 7e ff ff       	callq  a841 <safe_add_func_int64_t_s_s>
   1294e:	49 89 c4             	mov    %rax,%r12
   12951:	48 8b 85 78 eb ff ff 	mov    -0x1488(%rbp),%rax
   12958:	41 89 c6             	mov    %eax,%r14d
   1295b:	48 8b 05 ae d1 00 00 	mov    0xd1ae(%rip),%rax        # 1fb10 <g_1396>
   12962:	0f b6 00             	movzbl (%rax),%eax
   12965:	66 44 0f be e8       	movsbw %al,%r13w
   1296a:	48 8b 85 78 eb ff ff 	mov    -0x1488(%rbp),%rax
   12971:	41 89 c7             	mov    %eax,%r15d
   12974:	b8 2c 00 00 00       	mov    $0x2c,%eax
   12979:	48 0f bf c0          	movswq %ax,%rax
   1297d:	48 8b 95 78 eb ff ff 	mov    -0x1488(%rbp),%rdx
   12984:	48 89 d6             	mov    %rdx,%rsi
   12987:	48 89 c7             	mov    %rax,%rdi
   1298a:	e8 68 80 ff ff       	callq  a9f7 <safe_div_func_int64_t_s_s>
   1298f:	0f be c0             	movsbl %al,%eax
   12992:	be e1 ff ff ff       	mov    $0xffffffe1,%esi
   12997:	89 c7                	mov    %eax,%edi
   12999:	e8 74 78 ff ff       	callq  a212 <safe_mul_func_int8_t_s_s>
   1299e:	48 0f be c0          	movsbq %al,%rax
   129a2:	48 89 85 40 f0 ff ff 	mov    %rax,-0xfc0(%rbp)
   129a9:	48 8b 95 40 f0 ff ff 	mov    -0xfc0(%rbp),%rdx
   129b0:	b8 2c 00 00 00       	mov    $0x2c,%eax
   129b5:	48 0f bf c0          	movswq %ax,%rax
   129b9:	48 39 c2             	cmp    %rax,%rdx
   129bc:	77 07                	ja     129c5 <func_36+0x3bb8>
   129be:	b8 03 83 82 44       	mov    $0x44828303,%eax
   129c3:	eb 05                	jmp    129ca <func_36+0x3bbd>
   129c5:	b8 02 83 82 44       	mov    $0x44828302,%eax
   129ca:	89 85 00 ed ff ff    	mov    %eax,-0x1300(%rbp)
   129d0:	8b 85 00 ed ff ff    	mov    -0x1300(%rbp),%eax
   129d6:	98                   	cwtl   
   129d7:	be 00 00 00 00       	mov    $0x0,%esi
   129dc:	89 c7                	mov    %eax,%edi
   129de:	e8 12 7a ff ff       	callq  a3f5 <safe_mul_func_int16_t_s_s>
   129e3:	48 0f bf c0          	movswq %ax,%rax
   129e7:	48 39 85 78 eb ff ff 	cmp    %rax,-0x1488(%rbp)
   129ee:	0f 9f c0             	setg   %al
   129f1:	0f b6 c0             	movzbl %al,%eax
   129f4:	48 8b 95 78 eb ff ff 	mov    -0x1488(%rbp),%rdx
   129fb:	48 89 d6             	mov    %rdx,%rsi
   129fe:	48 89 c7             	mov    %rax,%rdi
   12a01:	e8 3b 7e ff ff       	callq  a841 <safe_add_func_int64_t_s_s>
   12a06:	8b 85 00 ed ff ff    	mov    -0x1300(%rbp),%eax
   12a0c:	0f b7 c0             	movzwl %ax,%eax
   12a0f:	44 89 fe             	mov    %r15d,%esi
   12a12:	89 c7                	mov    %eax,%edi
   12a14:	e8 61 84 ff ff       	callq  ae7a <safe_rshift_func_uint16_t_u_u>
   12a19:	48 83 bd 78 eb ff ff 	cmpq   $0x0,-0x1488(%rbp)
   12a20:	00 
   12a21:	83 bd fc eb ff ff 00 	cmpl   $0x0,-0x1404(%rbp)
   12a28:	0f 95 c0             	setne  %al
   12a2b:	0f b6 c0             	movzbl %al,%eax
   12a2e:	be 05 00 00 00       	mov    $0x5,%esi
   12a33:	89 c7                	mov    %eax,%edi
   12a35:	e8 0e 84 ff ff       	callq  ae48 <safe_rshift_func_uint16_t_u_s>
   12a3a:	48 8b 85 a8 ed ff ff 	mov    -0x1258(%rbp),%rax
   12a41:	c6 00 1e             	movb   $0x1e,(%rax)
   12a44:	48 8b 85 b0 ed ff ff 	mov    -0x1250(%rbp),%rax
   12a4b:	c6 00 00             	movb   $0x0,(%rax)
   12a4e:	48 8b 85 b0 ed ff ff 	mov    -0x1250(%rbp),%rax
   12a55:	0f b6 00             	movzbl (%rax),%eax
   12a58:	66 98                	cbtw   
   12a5a:	48 8b 95 78 eb ff ff 	mov    -0x1488(%rbp),%rdx
   12a61:	09 d0                	or     %edx,%eax
   12a63:	44 21 e8             	and    %r13d,%eax
   12a66:	98                   	cwtl   
   12a67:	44 89 f6             	mov    %r14d,%esi
   12a6a:	89 c7                	mov    %eax,%edi
   12a6c:	e8 f2 7a ff ff       	callq  a563 <safe_rshift_func_int16_t_s_u>
   12a71:	48 0f bf c0          	movswq %ax,%rax
   12a75:	49 39 c4             	cmp    %rax,%r12
   12a78:	75 07                	jne    12a81 <func_36+0x3c74>
   12a7a:	ba 01 00 00 00       	mov    $0x1,%edx
   12a7f:	eb 05                	jmp    12a86 <func_36+0x3c79>
   12a81:	ba 00 00 00 00       	mov    $0x0,%edx
   12a86:	0f b7 05 33 98 00 00 	movzwl 0x9833(%rip),%eax        # 1c2c0 <g_278>
   12a8d:	0f b7 c0             	movzwl %ax,%eax
   12a90:	21 d0                	and    %edx,%eax
   12a92:	48 98                	cltq   
   12a94:	48 89 de             	mov    %rbx,%rsi
   12a97:	48 89 c7             	mov    %rax,%rdi
   12a9a:	e8 15 7f ff ff       	callq  a9b4 <safe_mod_func_int64_t_s_s>
   12a9f:	48 33 85 78 eb ff ff 	xor    -0x1488(%rbp),%rax
   12aa6:	48 89 c1             	mov    %rax,%rcx
   12aa9:	48 8b 85 18 ed ff ff 	mov    -0x12e8(%rbp),%rax
   12ab0:	8b 10                	mov    (%rax),%edx
   12ab2:	48 8b 85 18 ed ff ff 	mov    -0x12e8(%rbp),%rax
   12ab9:	09 ca                	or     %ecx,%edx
   12abb:	89 10                	mov    %edx,(%rax)
   12abd:	eb 4e                	jmp    12b0d <func_36+0x3d00>
   12abf:	c7 05 87 98 00 00 00 	movl   $0x0,0x9887(%rip)        # 1c350 <g_1172>
   12ac6:	00 00 00 
   12ac9:	eb 37                	jmp    12b02 <func_36+0x3cf5>
   12acb:	c7 45 c3 fc fc fc fc 	movl   $0xfcfcfcfc,-0x3d(%rbp)
   12ad2:	c6 45 c7 fc          	movb   $0xfc,-0x39(%rbp)
   12ad6:	0f b6 45 c7          	movzbl -0x39(%rbp),%eax
   12ada:	0f be d0             	movsbl %al,%edx
   12add:	8b 85 00 ed ff ff    	mov    -0x1300(%rbp),%eax
   12ae3:	31 d0                	xor    %edx,%eax
   12ae5:	89 85 00 ed ff ff    	mov    %eax,-0x1300(%rbp)
   12aeb:	48 83 bd 78 eb ff ff 	cmpq   $0x0,-0x1488(%rbp)
   12af2:	00 
   12af3:	8b 05 57 98 00 00    	mov    0x9857(%rip),%eax        # 1c350 <g_1172>
   12af9:	83 c0 01             	add    $0x1,%eax
   12afc:	89 05 4e 98 00 00    	mov    %eax,0x984e(%rip)        # 1c350 <g_1172>
   12b02:	8b 05 48 98 00 00    	mov    0x9848(%rip),%eax        # 1c350 <g_1172>
   12b08:	83 f8 1a             	cmp    $0x1a,%eax
   12b0b:	7f be                	jg     12acb <func_36+0x3cbe>
   12b0d:	0f b7 05 2c 95 00 00 	movzwl 0x952c(%rip),%eax        # 1c040 <g_204>
   12b14:	0f bf d0             	movswl %ax,%edx
   12b17:	8b 85 00 ed ff ff    	mov    -0x1300(%rbp),%eax
   12b1d:	39 c2                	cmp    %eax,%edx
   12b1f:	0f 8c f4 00 00 00    	jl     12c19 <func_36+0x3e0c>
   12b25:	48 8b 85 78 eb ff ff 	mov    -0x1488(%rbp),%rax
   12b2c:	41 89 c4             	mov    %eax,%r12d
   12b2f:	48 8b 85 90 ed ff ff 	mov    -0x1270(%rbp),%rax
   12b36:	8b 00                	mov    (%rax),%eax
   12b38:	8d 48 ff             	lea    -0x1(%rax),%ecx
   12b3b:	48 8b 95 90 ed ff ff 	mov    -0x1270(%rbp),%rdx
   12b42:	89 0a                	mov    %ecx,(%rdx)
   12b44:	41 89 c6             	mov    %eax,%r14d
   12b47:	48 8b 9d 78 eb ff ff 	mov    -0x1488(%rbp),%rbx
   12b4e:	48 8b 85 78 eb ff ff 	mov    -0x1488(%rbp),%rax
   12b55:	41 89 c5             	mov    %eax,%r13d
   12b58:	48 8b 05 31 cf 00 00 	mov    0xcf31(%rip),%rax        # 1fa90 <g_1042>
   12b5f:	66 c7 00 a1 c5       	movw   $0xc5a1,(%rax)
   12b64:	48 8b 85 a0 f9 ff ff 	mov    -0x660(%rbp),%rax
   12b6b:	48 8d 15 36 cf 00 00 	lea    0xcf36(%rip),%rdx        # 1faa8 <g_1089>
   12b72:	48 39 d0             	cmp    %rdx,%rax
   12b75:	0f 95 c0             	setne  %al
   12b78:	0f b6 d0             	movzbl %al,%edx
   12b7b:	0f b7 05 ce 94 00 00 	movzwl 0x94ce(%rip),%eax        # 1c050 <g_218>
   12b82:	c1 e0 04             	shl    $0x4,%eax
   12b85:	66 c1 f8 04          	sar    $0x4,%ax
   12b89:	0f b6 c0             	movzbl %al,%eax
   12b8c:	89 d6                	mov    %edx,%esi
   12b8e:	89 c7                	mov    %eax,%edi
   12b90:	e8 c5 7f ff ff       	callq  ab5a <safe_add_func_uint8_t_u_u>
   12b95:	84 c0                	test   %al,%al
   12b97:	74 08                	je     12ba1 <func_36+0x3d94>
   12b99:	48 83 bd 78 eb ff ff 	cmpq   $0x0,-0x1488(%rbp)
   12ba0:	00 
   12ba1:	44 89 ee             	mov    %r13d,%esi
   12ba4:	bf 00 00 00 00       	mov    $0x0,%edi
   12ba9:	e8 40 77 ff ff       	callq  a2ee <safe_lshift_func_int8_t_s_u>
   12bae:	48 0f be c0          	movsbq %al,%rax
   12bb2:	48 39 85 78 eb ff ff 	cmp    %rax,-0x1488(%rbp)
   12bb9:	0f 9e c0             	setle  %al
   12bbc:	0f b6 d0             	movzbl %al,%edx
   12bbf:	8b 85 bc eb ff ff    	mov    -0x1444(%rbp),%eax
   12bc5:	89 c1                	mov    %eax,%ecx
   12bc7:	48 8b 85 98 ed ff ff 	mov    -0x1268(%rbp),%rax
   12bce:	88 08                	mov    %cl,(%rax)
   12bd0:	48 8b 85 98 ed ff ff 	mov    -0x1268(%rbp),%rax
   12bd7:	0f b6 00             	movzbl (%rax),%eax
   12bda:	0f be c0             	movsbl %al,%eax
   12bdd:	89 d6                	mov    %edx,%esi
   12bdf:	89 c7                	mov    %eax,%edi
   12be1:	e8 0c 76 ff ff       	callq  a1f2 <safe_sub_func_int8_t_s_s>
   12be6:	3c 01                	cmp    $0x1,%al
   12be8:	0f 94 c0             	sete   %al
   12beb:	0f b6 c0             	movzbl %al,%eax
   12bee:	48 89 de             	mov    %rbx,%rsi
   12bf1:	48 89 c7             	mov    %rax,%rdi
   12bf4:	e8 35 84 ff ff       	callq  b02e <safe_add_func_uint64_t_u_u>
   12bf9:	49 39 c6             	cmp    %rax,%r14
   12bfc:	0f 95 c0             	setne  %al
   12bff:	0f b6 c0             	movzbl %al,%eax
   12c02:	44 89 e6             	mov    %r12d,%esi
   12c05:	89 c7                	mov    %eax,%edi
   12c07:	e8 60 77 ff ff       	callq  a36c <safe_rshift_func_int8_t_s_u>
   12c0c:	0f be d0             	movsbl %al,%edx
   12c0f:	8b 85 00 ed ff ff    	mov    -0x1300(%rbp),%eax
   12c15:	39 c2                	cmp    %eax,%edx
   12c17:	7e 07                	jle    12c20 <func_36+0x3e13>
   12c19:	b8 01 00 00 00       	mov    $0x1,%eax
   12c1e:	eb 05                	jmp    12c25 <func_36+0x3e18>
   12c20:	b8 00 00 00 00       	mov    $0x0,%eax
   12c25:	0f be c0             	movsbl %al,%eax
   12c28:	be d6 ff ff ff       	mov    $0xffffffd6,%esi
   12c2d:	89 c7                	mov    %eax,%edi
   12c2f:	e8 36 76 ff ff       	callq  a26a <safe_div_func_int8_t_s_s>
   12c34:	0f be d0             	movsbl %al,%edx
   12c37:	0f b6 05 a2 97 00 00 	movzbl 0x97a2(%rip),%eax        # 1c3e0 <g_1428>
   12c3e:	0f b6 c0             	movzbl %al,%eax
   12c41:	39 c2                	cmp    %eax,%edx
   12c43:	0f 9e c0             	setle  %al
   12c46:	0f b6 c0             	movzbl %al,%eax
   12c49:	48 8b 1d 30 ce 00 00 	mov    0xce30(%rip),%rbx        # 1fa80 <g_833>
   12c50:	89 c7                	mov    %eax,%edi
   12c52:	e8 b3 06 00 00       	callq  1330a <func_47>
   12c57:	48 89 03             	mov    %rax,(%rbx)
   12c5a:	8b 85 00 ed ff ff    	mov    -0x1300(%rbp),%eax
   12c60:	eb 07                	jmp    12c69 <func_36+0x3e5c>
   12c62:	48 8b 85 78 eb ff ff 	mov    -0x1488(%rbp),%rax
   12c69:	48 8b 5d c8          	mov    -0x38(%rbp),%rbx
   12c6d:	64 48 33 1c 25 28 00 	xor    %fs:0x28,%rbx
   12c74:	00 00 
   12c76:	74 05                	je     12c7d <func_36+0x3e70>
   12c78:	e8 f3 73 ff ff       	callq  a070 <__stack_chk_fail@plt>
   12c7d:	48 81 c4 68 14 00 00 	add    $0x1468,%rsp
   12c84:	5b                   	pop    %rbx
   12c85:	41 5c                	pop    %r12
   12c87:	41 5d                	pop    %r13
   12c89:	41 5e                	pop    %r14
   12c8b:	41 5f                	pop    %r15
   12c8d:	5d                   	pop    %rbp
   12c8e:	c3                   	retq   

0000000000012c8f <func_38>:
   12c8f:	f3 0f 1e fa          	endbr64 
   12c93:	55                   	push   %rbp
   12c94:	48 89 e5             	mov    %rsp,%rbp
   12c97:	48 81 ec 70 03 00 00 	sub    $0x370,%rsp
   12c9e:	48 89 bd 98 fc ff ff 	mov    %rdi,-0x368(%rbp)
   12ca5:	64 48 8b 04 25 28 00 	mov    %fs:0x28,%rax
   12cac:	00 00 
   12cae:	48 89 45 f8          	mov    %rax,-0x8(%rbp)
   12cb2:	31 c0                	xor    %eax,%eax
   12cb4:	48 c7 85 c0 fc ff ff 	movq   $0x0,-0x340(%rbp)
   12cbb:	00 00 00 00 
   12cbf:	c7 85 a8 fc ff ff 6e 	movl   $0xce88636e,-0x358(%rbp)
   12cc6:	63 88 ce 
   12cc9:	c7 85 30 fd ff ff b1 	movl   $0x1ae281b1,-0x2d0(%rbp)
   12cd0:	81 e2 1a 
   12cd3:	c7 85 34 fd ff ff 11 	movl   $0xd12ef611,-0x2cc(%rbp)
   12cda:	f6 2e d1 
   12cdd:	c7 85 38 fd ff ff 11 	movl   $0xd12ef611,-0x2c8(%rbp)
   12ce4:	f6 2e d1 
   12ce7:	c7 85 3c fd ff ff b1 	movl   $0x1ae281b1,-0x2c4(%rbp)
   12cee:	81 e2 1a 
   12cf1:	c7 85 40 fd ff ff 11 	movl   $0xd12ef611,-0x2c0(%rbp)
   12cf8:	f6 2e d1 
   12cfb:	c7 85 44 fd ff ff b1 	movl   $0x1ae281b1,-0x2bc(%rbp)
   12d02:	81 e2 1a 
   12d05:	c7 85 48 fd ff ff 11 	movl   $0xd12ef611,-0x2b8(%rbp)
   12d0c:	f6 2e d1 
   12d0f:	c7 85 4c fd ff ff 82 	movl   $0x7be62782,-0x2b4(%rbp)
   12d16:	27 e6 7b 
   12d19:	c7 85 50 fd ff ff 11 	movl   $0xd12ef611,-0x2b0(%rbp)
   12d20:	f6 2e d1 
   12d23:	c7 85 54 fd ff ff 11 	movl   $0xd12ef611,-0x2ac(%rbp)
   12d2a:	f6 2e d1 
   12d2d:	c7 85 58 fd ff ff b1 	movl   $0x1ae281b1,-0x2a8(%rbp)
   12d34:	81 e2 1a 
   12d37:	c7 85 5c fd ff ff 11 	movl   $0xd12ef611,-0x2a4(%rbp)
   12d3e:	f6 2e d1 
   12d41:	48 8d 05 40 cb 00 00 	lea    0xcb40(%rip),%rax        # 1f888 <g_335>
   12d48:	48 89 85 c8 fc ff ff 	mov    %rax,-0x338(%rbp)
   12d4f:	48 8d 05 2a cb 00 00 	lea    0xcb2a(%rip),%rax        # 1f880 <g_336>
   12d56:	48 89 85 b8 fc ff ff 	mov    %rax,-0x348(%rbp)
   12d5d:	48 8d 85 b8 fc ff ff 	lea    -0x348(%rbp),%rax
   12d64:	48 89 85 90 fd ff ff 	mov    %rax,-0x270(%rbp)
   12d6b:	48 8d 85 b8 fc ff ff 	lea    -0x348(%rbp),%rax
   12d72:	48 89 85 98 fd ff ff 	mov    %rax,-0x268(%rbp)
   12d79:	48 8d 85 b8 fc ff ff 	lea    -0x348(%rbp),%rax
   12d80:	48 89 85 a0 fd ff ff 	mov    %rax,-0x260(%rbp)
   12d87:	48 8d 85 b8 fc ff ff 	lea    -0x348(%rbp),%rax
   12d8e:	48 89 85 a8 fd ff ff 	mov    %rax,-0x258(%rbp)
   12d95:	48 8d 85 b8 fc ff ff 	lea    -0x348(%rbp),%rax
   12d9c:	48 89 85 b0 fd ff ff 	mov    %rax,-0x250(%rbp)
   12da3:	48 8d 85 b8 fc ff ff 	lea    -0x348(%rbp),%rax
   12daa:	48 89 85 b8 fd ff ff 	mov    %rax,-0x248(%rbp)
   12db1:	48 8d 85 b8 fc ff ff 	lea    -0x348(%rbp),%rax
   12db8:	48 89 85 c0 fd ff ff 	mov    %rax,-0x240(%rbp)
   12dbf:	48 c7 85 c8 fd ff ff 	movq   $0x0,-0x238(%rbp)
   12dc6:	00 00 00 00 
   12dca:	48 8d 85 b8 fc ff ff 	lea    -0x348(%rbp),%rax
   12dd1:	48 89 85 d0 fd ff ff 	mov    %rax,-0x230(%rbp)
   12dd8:	48 c7 85 d8 fd ff ff 	movq   $0x0,-0x228(%rbp)
   12ddf:	00 00 00 00 
   12de3:	48 c7 85 e0 fd ff ff 	movq   $0x0,-0x220(%rbp)
   12dea:	00 00 00 00 
   12dee:	48 8d 85 b8 fc ff ff 	lea    -0x348(%rbp),%rax
   12df5:	48 89 85 e8 fd ff ff 	mov    %rax,-0x218(%rbp)
   12dfc:	48 c7 85 f0 fd ff ff 	movq   $0x0,-0x210(%rbp)
   12e03:	00 00 00 00 
   12e07:	48 c7 85 f8 fd ff ff 	movq   $0x0,-0x208(%rbp)
   12e0e:	00 00 00 00 
   12e12:	48 8d 05 21 92 00 00 	lea    0x9221(%rip),%rax        # 1c03a <g_167>
   12e19:	48 89 85 f0 fe ff ff 	mov    %rax,-0x110(%rbp)
   12e20:	48 8d 05 13 92 00 00 	lea    0x9213(%rip),%rax        # 1c03a <g_167>
   12e27:	48 89 85 f8 fe ff ff 	mov    %rax,-0x108(%rbp)
   12e2e:	48 8d 05 05 92 00 00 	lea    0x9205(%rip),%rax        # 1c03a <g_167>
   12e35:	48 89 85 00 ff ff ff 	mov    %rax,-0x100(%rbp)
   12e3c:	48 8d 05 f7 91 00 00 	lea    0x91f7(%rip),%rax        # 1c03a <g_167>
   12e43:	48 89 85 08 ff ff ff 	mov    %rax,-0xf8(%rbp)
   12e4a:	48 8d 05 e9 91 00 00 	lea    0x91e9(%rip),%rax        # 1c03a <g_167>
   12e51:	48 89 85 10 ff ff ff 	mov    %rax,-0xf0(%rbp)
   12e58:	48 8d 05 db 91 00 00 	lea    0x91db(%rip),%rax        # 1c03a <g_167>
   12e5f:	48 89 85 18 ff ff ff 	mov    %rax,-0xe8(%rbp)
   12e66:	48 8d 05 cd 91 00 00 	lea    0x91cd(%rip),%rax        # 1c03a <g_167>
   12e6d:	48 89 85 20 ff ff ff 	mov    %rax,-0xe0(%rbp)
   12e74:	48 8d 05 bf 91 00 00 	lea    0x91bf(%rip),%rax        # 1c03a <g_167>
   12e7b:	48 89 85 28 ff ff ff 	mov    %rax,-0xd8(%rbp)
   12e82:	48 8d 05 b1 91 00 00 	lea    0x91b1(%rip),%rax        # 1c03a <g_167>
   12e89:	48 89 85 30 ff ff ff 	mov    %rax,-0xd0(%rbp)
   12e90:	48 8d 05 a3 91 00 00 	lea    0x91a3(%rip),%rax        # 1c03a <g_167>
   12e97:	48 89 85 38 ff ff ff 	mov    %rax,-0xc8(%rbp)
   12e9e:	48 8d 05 95 91 00 00 	lea    0x9195(%rip),%rax        # 1c03a <g_167>
   12ea5:	48 89 85 40 ff ff ff 	mov    %rax,-0xc0(%rbp)
   12eac:	48 8d 05 87 91 00 00 	lea    0x9187(%rip),%rax        # 1c03a <g_167>
   12eb3:	48 89 85 48 ff ff ff 	mov    %rax,-0xb8(%rbp)
   12eba:	48 8d 05 79 91 00 00 	lea    0x9179(%rip),%rax        # 1c03a <g_167>
   12ec1:	48 89 85 50 ff ff ff 	mov    %rax,-0xb0(%rbp)
   12ec8:	48 8d 05 6b 91 00 00 	lea    0x916b(%rip),%rax        # 1c03a <g_167>
   12ecf:	48 89 85 58 ff ff ff 	mov    %rax,-0xa8(%rbp)
   12ed6:	48 8d 05 5d 91 00 00 	lea    0x915d(%rip),%rax        # 1c03a <g_167>
   12edd:	48 89 85 60 ff ff ff 	mov    %rax,-0xa0(%rbp)
   12ee4:	48 8d 05 4f 91 00 00 	lea    0x914f(%rip),%rax        # 1c03a <g_167>
   12eeb:	48 89 85 68 ff ff ff 	mov    %rax,-0x98(%rbp)
   12ef2:	48 8d 05 41 91 00 00 	lea    0x9141(%rip),%rax        # 1c03a <g_167>
   12ef9:	48 89 85 70 ff ff ff 	mov    %rax,-0x90(%rbp)
   12f00:	48 8d 05 33 91 00 00 	lea    0x9133(%rip),%rax        # 1c03a <g_167>
   12f07:	48 89 85 78 ff ff ff 	mov    %rax,-0x88(%rbp)
   12f0e:	48 8d 05 25 91 00 00 	lea    0x9125(%rip),%rax        # 1c03a <g_167>
   12f15:	48 89 45 80          	mov    %rax,-0x80(%rbp)
   12f19:	48 8d 05 1a 91 00 00 	lea    0x911a(%rip),%rax        # 1c03a <g_167>
   12f20:	48 89 45 88          	mov    %rax,-0x78(%rbp)
   12f24:	48 8d 05 0f 91 00 00 	lea    0x910f(%rip),%rax        # 1c03a <g_167>
   12f2b:	48 89 45 90          	mov    %rax,-0x70(%rbp)
   12f2f:	48 8d 05 04 91 00 00 	lea    0x9104(%rip),%rax        # 1c03a <g_167>
   12f36:	48 89 45 98          	mov    %rax,-0x68(%rbp)
   12f3a:	48 8d 05 f9 90 00 00 	lea    0x90f9(%rip),%rax        # 1c03a <g_167>
   12f41:	48 89 45 a0          	mov    %rax,-0x60(%rbp)
   12f45:	48 8d 05 ee 90 00 00 	lea    0x90ee(%rip),%rax        # 1c03a <g_167>
   12f4c:	48 89 45 a8          	mov    %rax,-0x58(%rbp)
   12f50:	48 8d 05 e3 90 00 00 	lea    0x90e3(%rip),%rax        # 1c03a <g_167>
   12f57:	48 89 45 b0          	mov    %rax,-0x50(%rbp)
   12f5b:	48 8d 05 d8 90 00 00 	lea    0x90d8(%rip),%rax        # 1c03a <g_167>
   12f62:	48 89 45 b8          	mov    %rax,-0x48(%rbp)
   12f66:	48 8d 05 cd 90 00 00 	lea    0x90cd(%rip),%rax        # 1c03a <g_167>
   12f6d:	48 89 45 c0          	mov    %rax,-0x40(%rbp)
   12f71:	48 8d 05 c2 90 00 00 	lea    0x90c2(%rip),%rax        # 1c03a <g_167>
   12f78:	48 89 45 c8          	mov    %rax,-0x38(%rbp)
   12f7c:	48 8d 05 b7 90 00 00 	lea    0x90b7(%rip),%rax        # 1c03a <g_167>
   12f83:	48 89 45 d0          	mov    %rax,-0x30(%rbp)
   12f87:	48 8d 05 ac 90 00 00 	lea    0x90ac(%rip),%rax        # 1c03a <g_167>
   12f8e:	48 89 45 d8          	mov    %rax,-0x28(%rbp)
   12f92:	48 8d 05 a1 90 00 00 	lea    0x90a1(%rip),%rax        # 1c03a <g_167>
   12f99:	48 89 45 e0          	mov    %rax,-0x20(%rbp)
   12f9d:	48 8d 05 96 90 00 00 	lea    0x9096(%rip),%rax        # 1c03a <g_167>
   12fa4:	48 89 45 e8          	mov    %rax,-0x18(%rbp)
   12fa8:	48 8d 05 89 90 00 00 	lea    0x9089(%rip),%rax        # 1c038 <g_131>
   12faf:	48 89 85 d0 fc ff ff 	mov    %rax,-0x330(%rbp)
   12fb6:	48 c7 85 d8 fc ff ff 	movq   $0x0,-0x328(%rbp)
   12fbd:	00 00 00 00 
   12fc1:	48 8d 05 28 dd 00 00 	lea    0xdd28(%rip),%rax        # 20cf0 <g_73>
   12fc8:	48 89 85 00 fe ff ff 	mov    %rax,-0x200(%rbp)
   12fcf:	48 8d 05 1a dd 00 00 	lea    0xdd1a(%rip),%rax        # 20cf0 <g_73>
   12fd6:	48 89 85 08 fe ff ff 	mov    %rax,-0x1f8(%rbp)
   12fdd:	48 8d 05 dc c4 00 00 	lea    0xc4dc(%rip),%rax        # 1f4c0 <g_8>
   12fe4:	48 89 85 10 fe ff ff 	mov    %rax,-0x1f0(%rbp)
   12feb:	48 8d 05 ce c4 00 00 	lea    0xc4ce(%rip),%rax        # 1f4c0 <g_8>
   12ff2:	48 89 85 18 fe ff ff 	mov    %rax,-0x1e8(%rbp)
   12ff9:	48 8d 05 f0 dc 00 00 	lea    0xdcf0(%rip),%rax        # 20cf0 <g_73>
   13000:	48 89 85 20 fe ff ff 	mov    %rax,-0x1e0(%rbp)
   13007:	48 8d 05 b2 c4 00 00 	lea    0xc4b2(%rip),%rax        # 1f4c0 <g_8>
   1300e:	48 89 85 28 fe ff ff 	mov    %rax,-0x1d8(%rbp)
   13015:	48 8d 05 a4 c4 00 00 	lea    0xc4a4(%rip),%rax        # 1f4c0 <g_8>
   1301c:	48 89 85 30 fe ff ff 	mov    %rax,-0x1d0(%rbp)
   13023:	48 8d 05 96 c4 00 00 	lea    0xc496(%rip),%rax        # 1f4c0 <g_8>
   1302a:	48 89 85 38 fe ff ff 	mov    %rax,-0x1c8(%rbp)
   13031:	48 8d 05 b8 dc 00 00 	lea    0xdcb8(%rip),%rax        # 20cf0 <g_73>
   13038:	48 89 85 40 fe ff ff 	mov    %rax,-0x1c0(%rbp)
   1303f:	48 8d 05 7a c4 00 00 	lea    0xc47a(%rip),%rax        # 1f4c0 <g_8>
   13046:	48 89 85 48 fe ff ff 	mov    %rax,-0x1b8(%rbp)
   1304d:	48 8d 05 6c c4 00 00 	lea    0xc46c(%rip),%rax        # 1f4c0 <g_8>
   13054:	48 89 85 50 fe ff ff 	mov    %rax,-0x1b0(%rbp)
   1305b:	48 8d 05 8e dc 00 00 	lea    0xdc8e(%rip),%rax        # 20cf0 <g_73>
   13062:	48 89 85 58 fe ff ff 	mov    %rax,-0x1a8(%rbp)
   13069:	48 8d 05 50 c4 00 00 	lea    0xc450(%rip),%rax        # 1f4c0 <g_8>
   13070:	48 89 85 60 fe ff ff 	mov    %rax,-0x1a0(%rbp)
   13077:	48 8d 05 72 dc 00 00 	lea    0xdc72(%rip),%rax        # 20cf0 <g_73>
   1307e:	48 89 85 68 fe ff ff 	mov    %rax,-0x198(%rbp)
   13085:	48 8d 05 64 dc 00 00 	lea    0xdc64(%rip),%rax        # 20cf0 <g_73>
   1308c:	48 89 85 70 fe ff ff 	mov    %rax,-0x190(%rbp)
   13093:	48 8d 05 56 dc 00 00 	lea    0xdc56(%rip),%rax        # 20cf0 <g_73>
   1309a:	48 89 85 78 fe ff ff 	mov    %rax,-0x188(%rbp)
   130a1:	48 8d 05 48 dc 00 00 	lea    0xdc48(%rip),%rax        # 20cf0 <g_73>
   130a8:	48 89 85 80 fe ff ff 	mov    %rax,-0x180(%rbp)
   130af:	48 8d 05 3a dc 00 00 	lea    0xdc3a(%rip),%rax        # 20cf0 <g_73>
   130b6:	48 89 85 88 fe ff ff 	mov    %rax,-0x178(%rbp)
   130bd:	48 8d 05 2c dc 00 00 	lea    0xdc2c(%rip),%rax        # 20cf0 <g_73>
   130c4:	48 89 85 90 fe ff ff 	mov    %rax,-0x170(%rbp)
   130cb:	48 8d 05 1e dc 00 00 	lea    0xdc1e(%rip),%rax        # 20cf0 <g_73>
   130d2:	48 89 85 98 fe ff ff 	mov    %rax,-0x168(%rbp)
   130d9:	48 8d 05 10 dc 00 00 	lea    0xdc10(%rip),%rax        # 20cf0 <g_73>
   130e0:	48 89 85 a0 fe ff ff 	mov    %rax,-0x160(%rbp)
   130e7:	48 8d 05 d2 c3 00 00 	lea    0xc3d2(%rip),%rax        # 1f4c0 <g_8>
   130ee:	48 89 85 a8 fe ff ff 	mov    %rax,-0x158(%rbp)
   130f5:	48 8d 05 f4 db 00 00 	lea    0xdbf4(%rip),%rax        # 20cf0 <g_73>
   130fc:	48 89 85 b0 fe ff ff 	mov    %rax,-0x150(%rbp)
   13103:	48 8d 05 e6 db 00 00 	lea    0xdbe6(%rip),%rax        # 20cf0 <g_73>
   1310a:	48 89 85 b8 fe ff ff 	mov    %rax,-0x148(%rbp)
   13111:	48 8d 05 a8 c3 00 00 	lea    0xc3a8(%rip),%rax        # 1f4c0 <g_8>
   13118:	48 89 85 c0 fe ff ff 	mov    %rax,-0x140(%rbp)
   1311f:	48 8d 05 ca db 00 00 	lea    0xdbca(%rip),%rax        # 20cf0 <g_73>
   13126:	48 89 85 c8 fe ff ff 	mov    %rax,-0x138(%rbp)
   1312d:	48 8d 05 bc db 00 00 	lea    0xdbbc(%rip),%rax        # 20cf0 <g_73>
   13134:	48 89 85 d0 fe ff ff 	mov    %rax,-0x130(%rbp)
   1313b:	48 8d 05 ae db 00 00 	lea    0xdbae(%rip),%rax        # 20cf0 <g_73>
   13142:	48 89 85 d8 fe ff ff 	mov    %rax,-0x128(%rbp)
   13149:	48 8d 05 70 c3 00 00 	lea    0xc370(%rip),%rax        # 1f4c0 <g_8>
   13150:	48 89 85 e0 fe ff ff 	mov    %rax,-0x120(%rbp)
   13157:	48 8d 05 62 c3 00 00 	lea    0xc362(%rip),%rax        # 1f4c0 <g_8>
   1315e:	48 89 85 e8 fe ff ff 	mov    %rax,-0x118(%rbp)
   13165:	48 8d 05 cc 8e 00 00 	lea    0x8ecc(%rip),%rax        # 1c038 <g_131>
   1316c:	48 89 85 e0 fc ff ff 	mov    %rax,-0x320(%rbp)
   13173:	c7 85 10 fd ff ff f6 	movl   $0xf6f601f6,-0x2f0(%rbp)
   1317a:	01 f6 f6 
   1317d:	c7 85 14 fd ff ff 01 	movl   $0x1c30101,-0x2ec(%rbp)
   13184:	01 c3 01 
   13187:	c7 85 18 fd ff ff 01 	movl   $0x1f6f601,-0x2e8(%rbp)
   1318e:	f6 f6 01 
   13191:	c7 85 1c fd ff ff f6 	movl   $0xf6f601f6,-0x2e4(%rbp)
   13198:	01 f6 f6 
   1319b:	c7 85 20 fd ff ff 01 	movl   $0x1c30101,-0x2e0(%rbp)
   131a2:	01 c3 01 
   131a5:	c7 85 24 fd ff ff 01 	movl   $0x1f6f601,-0x2dc(%rbp)
   131ac:	f6 f6 01 
   131af:	48 8d 05 76 8e 00 00 	lea    0x8e76(%rip),%rax        # 1c02c <g_104>
   131b6:	48 89 85 60 fd ff ff 	mov    %rax,-0x2a0(%rbp)
   131bd:	48 8d 05 68 8e 00 00 	lea    0x8e68(%rip),%rax        # 1c02c <g_104>
   131c4:	48 89 85 68 fd ff ff 	mov    %rax,-0x298(%rbp)
   131cb:	48 8d 05 5a 8e 00 00 	lea    0x8e5a(%rip),%rax        # 1c02c <g_104>
   131d2:	48 89 85 70 fd ff ff 	mov    %rax,-0x290(%rbp)
   131d9:	48 8d 05 4c 8e 00 00 	lea    0x8e4c(%rip),%rax        # 1c02c <g_104>
   131e0:	48 89 85 78 fd ff ff 	mov    %rax,-0x288(%rbp)
   131e7:	48 8d 05 3e 8e 00 00 	lea    0x8e3e(%rip),%rax        # 1c02c <g_104>
   131ee:	48 89 85 80 fd ff ff 	mov    %rax,-0x280(%rbp)
   131f5:	48 8d 05 30 8e 00 00 	lea    0x8e30(%rip),%rax        # 1c02c <g_104>
   131fc:	48 89 85 88 fd ff ff 	mov    %rax,-0x278(%rbp)
   13203:	66 c7 85 a2 fc ff ff 	movw   $0x9,-0x35e(%rbp)
   1320a:	09 00 
   1320c:	c7 85 ac fc ff ff ff 	movl   $0xffffffff,-0x354(%rbp)
   13213:	ff ff ff 
   13216:	c6 85 a0 fc ff ff 04 	movb   $0x4,-0x360(%rbp)
   1321d:	c7 85 b0 fc ff ff 9d 	movl   $0x5f7d089d,-0x350(%rbp)
   13224:	08 7d 5f 
   13227:	c7 85 b4 fc ff ff fe 	movl   $0xfffffffe,-0x34c(%rbp)
   1322e:	ff ff ff 
   13231:	c6 85 a1 fc ff ff 60 	movb   $0x60,-0x35f(%rbp)
   13238:	48 8d 05 41 8f 00 00 	lea    0x8f41(%rip),%rax        # 1c180 <g_276+0x100>
   1323f:	48 89 85 e8 fc ff ff 	mov    %rax,-0x318(%rbp)
   13246:	c7 85 a4 fc ff ff 00 	movl   $0x0,-0x35c(%rbp)
   1324d:	00 00 00 
   13250:	eb 21                	jmp    13273 <func_38+0x5e4>
   13252:	8b 85 a4 fc ff ff    	mov    -0x35c(%rbp),%eax
   13258:	48 98                	cltq   
   1325a:	48 ba ed 2a 1f 47 c4 	movabs $0xbb4d05c4471f2aed,%rdx
   13261:	05 4d bb 
   13264:	48 89 94 c5 f0 fc ff 	mov    %rdx,-0x310(%rbp,%rax,8)
   1326b:	ff 
   1326c:	83 85 a4 fc ff ff 01 	addl   $0x1,-0x35c(%rbp)
   13273:	83 bd a4 fc ff ff 02 	cmpl   $0x2,-0x35c(%rbp)
   1327a:	7e d6                	jle    13252 <func_38+0x5c3>
   1327c:	48 8b 05 f5 8d 00 00 	mov    0x8df5(%rip),%rax        # 1c078 <g_274+0x8>
   13283:	c1 e0 02             	shl    $0x2,%eax
   13286:	c1 f8 05             	sar    $0x5,%eax
   13289:	48 8b 4d f8          	mov    -0x8(%rbp),%rcx
   1328d:	64 48 33 0c 25 28 00 	xor    %fs:0x28,%rcx
   13294:	00 00 
   13296:	74 05                	je     1329d <func_38+0x60e>
   13298:	e8 d3 6d ff ff       	callq  a070 <__stack_chk_fail@plt>
   1329d:	c9                   	leaveq 
   1329e:	c3                   	retq   

000000000001329f <func_43>:
   1329f:	f3 0f 1e fa          	endbr64 
   132a3:	55                   	push   %rbp
   132a4:	48 89 e5             	mov    %rsp,%rbp
   132a7:	48 83 ec 30          	sub    $0x30,%rsp
   132ab:	48 89 7d d8          	mov    %rdi,-0x28(%rbp)
   132af:	48 89 75 d0          	mov    %rsi,-0x30(%rbp)
   132b3:	64 48 8b 04 25 28 00 	mov    %fs:0x28,%rax
   132ba:	00 00 
   132bc:	48 89 45 f8          	mov    %rax,-0x8(%rbp)
   132c0:	31 c0                	xor    %eax,%eax
   132c2:	66 c7 45 ea f6 0f    	movw   $0xff6,-0x16(%rbp)
   132c8:	c7 45 ec 00 00 00 00 	movl   $0x0,-0x14(%rbp)
   132cf:	eb 15                	jmp    132e6 <func_43+0x47>
   132d1:	8b 45 ec             	mov    -0x14(%rbp),%eax
   132d4:	48 98                	cltq   
   132d6:	48 8d 15 77 8d 00 00 	lea    0x8d77(%rip),%rdx        # 1c054 <g_218+0x4>
   132dd:	48 89 54 c5 f0       	mov    %rdx,-0x10(%rbp,%rax,8)
   132e2:	83 45 ec 01          	addl   $0x1,-0x14(%rbp)
   132e6:	83 7d ec 00          	cmpl   $0x0,-0x14(%rbp)
   132ea:	7e e5                	jle    132d1 <func_43+0x32>
   132ec:	0f b7 05 45 8d 00 00 	movzwl 0x8d45(%rip),%eax        # 1c038 <g_131>
   132f3:	98                   	cwtl   
   132f4:	48 8b 4d f8          	mov    -0x8(%rbp),%rcx
   132f8:	64 48 33 0c 25 28 00 	xor    %fs:0x28,%rcx
   132ff:	00 00 
   13301:	74 05                	je     13308 <func_43+0x69>
   13303:	e8 68 6d ff ff       	callq  a070 <__stack_chk_fail@plt>
   13308:	c9                   	leaveq 
   13309:	c3                   	retq   

000000000001330a <func_47>:
   1330a:	f3 0f 1e fa          	endbr64 
   1330e:	55                   	push   %rbp
   1330f:	48 89 e5             	mov    %rsp,%rbp
   13312:	48 81 ec 10 04 00 00 	sub    $0x410,%rsp
   13319:	89 f8                	mov    %edi,%eax
   1331b:	66 89 85 fc fb ff ff 	mov    %ax,-0x404(%rbp)
   13322:	64 48 8b 04 25 28 00 	mov    %fs:0x28,%rax
   13329:	00 00 
   1332b:	48 89 45 f8          	mov    %rax,-0x8(%rbp)
   1332f:	31 c0                	xor    %eax,%eax
   13331:	48 8d 05 1c 8d 00 00 	lea    0x8d1c(%rip),%rax        # 1c054 <g_218+0x4>
   13338:	48 89 85 10 fc ff ff 	mov    %rax,-0x3f0(%rbp)
   1333f:	c6 85 0f fc ff ff 6f 	movb   $0x6f,-0x3f1(%rbp)
   13346:	48 8d 05 b3 c4 00 00 	lea    0xc4b3(%rip),%rax        # 1f800 <g_305+0x2e0>
   1334d:	48 89 85 18 fc ff ff 	mov    %rax,-0x3e8(%rbp)
   13354:	c7 05 f6 8c 00 00 01 	movl   $0x1,0x8cf6(%rip)        # 1c054 <g_218+0x4>
   1335b:	00 00 00 
   1335e:	90                   	nop
   1335f:	8b 05 ef 8c 00 00    	mov    0x8cef(%rip),%eax        # 1c054 <g_218+0x4>
   13365:	85 c0                	test   %eax,%eax
   13367:	78 17                	js     13380 <func_47+0x76>
   13369:	48 c7 85 28 fc ff ff 	movq   $0x0,-0x3d8(%rbp)
   13370:	00 00 00 00 
   13374:	48 8b 85 28 fc ff ff 	mov    -0x3d8(%rbp),%rax
   1337b:	e9 d3 00 00 00       	jmpq   13453 <func_47+0x149>
   13380:	c7 05 9e 8c 00 00 f7 	movl   $0xfffffff7,0x8c9e(%rip)        # 1c028 <g_29>
   13387:	ff ff ff 
   1338a:	90                   	nop
   1338b:	8b 05 97 8c 00 00    	mov    0x8c97(%rip),%eax        # 1c028 <g_29>
   13391:	83 f8 1e             	cmp    $0x1e,%eax
   13394:	76 1a                	jbe    133b0 <func_47+0xa6>
   13396:	48 8d 05 8b 8c 00 00 	lea    0x8c8b(%rip),%rax        # 1c028 <g_29>
   1339d:	48 89 85 20 fc ff ff 	mov    %rax,-0x3e0(%rbp)
   133a4:	48 8b 85 20 fc ff ff 	mov    -0x3e0(%rbp),%rax
   133ab:	e9 a3 00 00 00       	jmpq   13453 <func_47+0x149>
   133b0:	be 07 00 00 00       	mov    $0x7,%esi
   133b5:	bf ff ff ff ff       	mov    $0xffffffff,%edi
   133ba:	e8 e2 6e ff ff       	callq  a2a1 <safe_lshift_func_int8_t_s_s>
   133bf:	0f be d0             	movsbl %al,%edx
   133c2:	0f bf 85 fc fb ff ff 	movswl -0x404(%rbp),%eax
   133c9:	09 c2                	or     %eax,%edx
   133cb:	48 8b 85 10 fc ff ff 	mov    -0x3f0(%rbp),%rax
   133d2:	89 10                	mov    %edx,(%rax)
   133d4:	c6 05 60 8c 00 00 00 	movb   $0x0,0x8c60(%rip)        # 1c03b <g_190>
   133db:	eb 64                	jmp    13441 <func_47+0x137>
   133dd:	48 8d 85 30 fc ff ff 	lea    -0x3d0(%rbp),%rax
   133e4:	48 8d 15 f5 b9 00 00 	lea    0xb9f5(%rip),%rdx        # 1ede0 <g_3956+0x2558>
   133eb:	b9 78 00 00 00       	mov    $0x78,%ecx
   133f0:	48 89 c7             	mov    %rax,%rdi
   133f3:	48 89 d6             	mov    %rdx,%rsi
   133f6:	f3 48 a5             	rep movsq %ds:(%rsi),%es:(%rdi)
   133f9:	48 8d 05 08 c1 00 00 	lea    0xc108(%rip),%rax        # 1f508 <g_303>
   13400:	48 89 85 60 fe ff ff 	mov    %rax,-0x1a0(%rbp)
   13407:	48 8b 85 60 fe ff ff 	mov    -0x1a0(%rbp),%rax
   1340e:	48 39 85 18 fc ff ff 	cmp    %rax,-0x3e8(%rbp)
   13415:	0f 95 c0             	setne  %al
   13418:	0f b6 d0             	movzbl %al,%edx
   1341b:	48 8b 85 10 fc ff ff 	mov    -0x3f0(%rbp),%rax
   13422:	89 10                	mov    %edx,(%rax)
   13424:	0f b6 05 10 8c 00 00 	movzbl 0x8c10(%rip),%eax        # 1c03b <g_190>
   1342b:	0f b6 c0             	movzbl %al,%eax
   1342e:	be 07 00 00 00       	mov    $0x7,%esi
   13433:	48 89 c7             	mov    %rax,%rdi
   13436:	e8 06 74 ff ff       	callq  a841 <safe_add_func_int64_t_s_s>
   1343b:	88 05 fa 8b 00 00    	mov    %al,0x8bfa(%rip)        # 1c03b <g_190>
   13441:	0f b6 05 f3 8b 00 00 	movzbl 0x8bf3(%rip),%eax        # 1c03b <g_190>
   13448:	3c 0d                	cmp    $0xd,%al
   1344a:	74 91                	je     133dd <func_47+0xd3>
   1344c:	48 8d 05 d5 8b 00 00 	lea    0x8bd5(%rip),%rax        # 1c028 <g_29>
   13453:	48 8b 4d f8          	mov    -0x8(%rbp),%rcx
   13457:	64 48 33 0c 25 28 00 	xor    %fs:0x28,%rcx
   1345e:	00 00 
   13460:	74 05                	je     13467 <func_47+0x15d>
   13462:	e8 09 6c ff ff       	callq  a070 <__stack_chk_fail@plt>
   13467:	c9                   	leaveq 
   13468:	c3                   	retq   

0000000000013469 <func_49>:
   13469:	f3 0f 1e fa          	endbr64 
   1346d:	55                   	push   %rbp
   1346e:	48 89 e5             	mov    %rsp,%rbp
   13471:	41 57                	push   %r15
   13473:	41 56                	push   %r14
   13475:	41 55                	push   %r13
   13477:	41 54                	push   %r12
   13479:	53                   	push   %rbx
   1347a:	48 81 ec 08 09 00 00 	sub    $0x908,%rsp
   13481:	89 95 e4 f6 ff ff    	mov    %edx,-0x91c(%rbp)
   13487:	89 c8                	mov    %ecx,%eax
   13489:	44 89 85 dc f6 ff ff 	mov    %r8d,-0x924(%rbp)
   13490:	89 fa                	mov    %edi,%edx
   13492:	66 89 95 ec f6 ff ff 	mov    %dx,-0x914(%rbp)
   13499:	89 f2                	mov    %esi,%edx
   1349b:	88 95 e8 f6 ff ff    	mov    %dl,-0x918(%rbp)
   134a1:	66 89 85 e0 f6 ff ff 	mov    %ax,-0x920(%rbp)
   134a8:	64 48 8b 04 25 28 00 	mov    %fs:0x28,%rax
   134af:	00 00 
   134b1:	48 89 45 c8          	mov    %rax,-0x38(%rbp)
   134b5:	31 c0                	xor    %eax,%eax
   134b7:	48 c7 85 30 f8 ff ff 	movq   $0x8,-0x7d0(%rbp)
   134be:	08 00 00 00 
   134c2:	48 c7 85 38 f8 ff ff 	movq   $0x8,-0x7c8(%rbp)
   134c9:	08 00 00 00 
   134cd:	48 c7 85 40 f8 ff ff 	movq   $0x8,-0x7c0(%rbp)
   134d4:	08 00 00 00 
   134d8:	48 c7 85 48 f8 ff ff 	movq   $0x8,-0x7b8(%rbp)
   134df:	08 00 00 00 
   134e3:	48 8d 85 80 f8 ff ff 	lea    -0x780(%rbp),%rax
   134ea:	48 83 c0 18          	add    $0x18,%rax
   134ee:	48 89 85 70 f7 ff ff 	mov    %rax,-0x890(%rbp)
   134f5:	48 8d 05 3c 8b 00 00 	lea    0x8b3c(%rip),%rax        # 1c038 <g_131>
   134fc:	48 89 85 58 f7 ff ff 	mov    %rax,-0x8a8(%rbp)
   13503:	c7 85 20 f7 ff ff 01 	movl   $0x1,-0x8e0(%rbp)
   1350a:	00 00 00 
   1350d:	66 c7 85 02 f7 ff ff 	movw   $0x5,-0x8fe(%rbp)
   13514:	05 00 
   13516:	c7 85 24 f7 ff ff eb 	movl   $0x692b22eb,-0x8dc(%rbp)
   1351d:	22 2b 69 
   13520:	48 c7 85 78 f7 ff ff 	movq   $0x0,-0x888(%rbp)
   13527:	00 00 00 00 
   1352b:	c6 85 ff f6 ff ff ff 	movb   $0xff,-0x901(%rbp)
   13532:	c7 85 28 f7 ff ff ff 	movl   $0xffffffff,-0x8d8(%rbp)
   13539:	ff ff ff 
   1353c:	48 b8 5e 2d ee 6e db 	movabs $0x52917ddb6eee2d5e,%rax
   13543:	7d 91 52 
   13546:	48 89 85 80 f7 ff ff 	mov    %rax,-0x880(%rbp)
   1354d:	c7 85 0c f7 ff ff 00 	movl   $0x0,-0x8f4(%rbp)
   13554:	00 00 00 
   13557:	eb 1b                	jmp    13574 <func_49+0x10b>
   13559:	8b 85 0c f7 ff ff    	mov    -0x8f4(%rbp),%eax
   1355f:	48 98                	cltq   
   13561:	48 c7 84 c5 80 f8 ff 	movq   $0x0,-0x780(%rbp,%rax,8)
   13568:	ff 00 00 00 00 
   1356d:	83 85 0c f7 ff ff 01 	addl   $0x1,-0x8f4(%rbp)
   13574:	83 bd 0c f7 ff ff 06 	cmpl   $0x6,-0x8f4(%rbp)
   1357b:	7e dc                	jle    13559 <func_49+0xf0>
   1357d:	c7 85 0c f7 ff ff 00 	movl   $0x0,-0x8f4(%rbp)
   13584:	00 00 00 
   13587:	eb 4e                	jmp    135d7 <func_49+0x16e>
   13589:	c7 85 10 f7 ff ff 00 	movl   $0x0,-0x8f0(%rbp)
   13590:	00 00 00 
   13593:	eb 32                	jmp    135c7 <func_49+0x15e>
   13595:	8b 85 10 f7 ff ff    	mov    -0x8f0(%rbp),%eax
   1359b:	48 63 c8             	movslq %eax,%rcx
   1359e:	8b 85 0c f7 ff ff    	mov    -0x8f4(%rbp),%eax
   135a4:	48 63 d0             	movslq %eax,%rdx
   135a7:	48 89 d0             	mov    %rdx,%rax
   135aa:	48 c1 e0 02          	shl    $0x2,%rax
   135ae:	48 01 d0             	add    %rdx,%rax
   135b1:	48 01 c8             	add    %rcx,%rax
   135b4:	48 c7 84 c5 d0 f9 ff 	movq   $0x0,-0x630(%rbp,%rax,8)
   135bb:	ff 00 00 00 00 
   135c0:	83 85 10 f7 ff ff 01 	addl   $0x1,-0x8f0(%rbp)
   135c7:	83 bd 10 f7 ff ff 04 	cmpl   $0x4,-0x8f0(%rbp)
   135ce:	7e c5                	jle    13595 <func_49+0x12c>
   135d0:	83 85 0c f7 ff ff 01 	addl   $0x1,-0x8f4(%rbp)
   135d7:	83 bd 0c f7 ff ff 04 	cmpl   $0x4,-0x8f4(%rbp)
   135de:	7e a9                	jle    13589 <func_49+0x120>
   135e0:	4c 8b ad 48 f8 ff ff 	mov    -0x7b8(%rbp),%r13
   135e7:	0f b7 9d e0 f6 ff ff 	movzwl -0x920(%rbp),%ebx
   135ee:	0f b7 95 ec f6 ff ff 	movzwl -0x914(%rbp),%edx
   135f5:	48 8b 85 70 f7 ff ff 	mov    -0x890(%rbp),%rax
   135fc:	48 8d 0d 21 8a 00 00 	lea    0x8a21(%rip),%rcx        # 1c024 <g_9>
   13603:	48 89 08             	mov    %rcx,(%rax)
   13606:	48 8b 85 70 f7 ff ff 	mov    -0x890(%rbp),%rax
   1360d:	48 8b 00             	mov    (%rax),%rax
   13610:	48 8d 35 0d 8a 00 00 	lea    0x8a0d(%rip),%rsi        # 1c024 <g_9>
   13617:	48 89 c7             	mov    %rax,%rdi
   1361a:	e8 2f 11 00 00       	callq  1474e <func_66>
   1361f:	85 c0                	test   %eax,%eax
   13621:	74 6f                	je     13692 <func_49+0x229>
   13623:	48 8b 05 06 8a 00 00 	mov    0x8a06(%rip),%rax        # 1c030 <g_106>
   1362a:	41 89 c7             	mov    %eax,%r15d
   1362d:	44 0f be b5 e8 f6 ff 	movsbl -0x918(%rbp),%r14d
   13634:	ff 
   13635:	0f b7 05 f0 89 00 00 	movzwl 0x89f0(%rip),%eax        # 1c02c <g_104>
   1363c:	44 0f b6 e0          	movzbl %al,%r12d
   13640:	be 01 00 00 00       	mov    $0x1,%esi
   13645:	bf 00 00 00 00       	mov    $0x0,%edi
   1364a:	e8 3e 76 ff ff       	callq  ac8d <safe_rshift_func_uint8_t_u_s>
   1364f:	0f b6 d0             	movzbl %al,%edx
   13652:	8b 85 e4 f6 ff ff    	mov    -0x91c(%rbp),%eax
   13658:	0f b6 c0             	movzbl %al,%eax
   1365b:	89 d6                	mov    %edx,%esi
   1365d:	89 c7                	mov    %eax,%edi
   1365f:	e8 29 76 ff ff       	callq  ac8d <safe_rshift_func_uint8_t_u_s>
   13664:	0f b6 c0             	movzbl %al,%eax
   13667:	44 89 e6             	mov    %r12d,%esi
   1366a:	89 c7                	mov    %eax,%edi
   1366c:	e8 07 75 ff ff       	callq  ab78 <safe_sub_func_uint8_t_u_u>
   13671:	0f b6 c0             	movzbl %al,%eax
   13674:	41 39 c6             	cmp    %eax,%r14d
   13677:	0f 94 c0             	sete   %al
   1367a:	0f b6 c0             	movzbl %al,%eax
   1367d:	44 89 fe             	mov    %r15d,%esi
   13680:	89 c7                	mov    %eax,%edi
   13682:	e8 37 76 ff ff       	callq  acbe <safe_rshift_func_uint8_t_u_u>
   13687:	84 c0                	test   %al,%al
   13689:	74 07                	je     13692 <func_49+0x229>
   1368b:	ba 01 00 00 00       	mov    $0x1,%edx
   13690:	eb 05                	jmp    13697 <func_49+0x22e>
   13692:	ba 00 00 00 00       	mov    $0x0,%edx
   13697:	8b 85 e4 f6 ff ff    	mov    -0x91c(%rbp),%eax
   1369d:	39 c2                	cmp    %eax,%edx
   1369f:	0f 9c c2             	setl   %dl
   136a2:	48 8b 85 58 f7 ff ff 	mov    -0x8a8(%rbp),%rax
   136a9:	0f b6 d2             	movzbl %dl,%edx
   136ac:	66 89 10             	mov    %dx,(%rax)
   136af:	0f b7 00             	movzwl (%rax),%eax
   136b2:	98                   	cwtl   
   136b3:	89 de                	mov    %ebx,%esi
   136b5:	89 c7                	mov    %eax,%edi
   136b7:	e8 6e 6e ff ff       	callq  a52a <safe_rshift_func_int16_t_s_s>
   136bc:	48 0f bf c0          	movswq %ax,%rax
   136c0:	49 39 c5             	cmp    %rax,%r13
   136c3:	0f 85 f2 00 00 00    	jne    137bb <func_49+0x352>
   136c9:	90                   	nop
   136ca:	66 c7 85 ec f6 ff ff 	movw   $0xffe6,-0x914(%rbp)
   136d1:	e6 ff 
   136d3:	e9 c3 00 00 00       	jmpq   1379b <func_49+0x332>
   136d8:	c7 85 14 f7 ff ff fb 	movl   $0xfffffffb,-0x8ec(%rbp)
   136df:	ff ff ff 
   136e2:	c7 85 e4 f6 ff ff 05 	movl   $0x5,-0x91c(%rbp)
   136e9:	00 00 00 
   136ec:	eb 4d                	jmp    1373b <func_49+0x2d2>
   136ee:	48 c7 05 37 89 00 00 	movq   $0x0,0x8937(%rip)        # 1c030 <g_106>
   136f5:	00 00 00 00 
   136f9:	eb 19                	jmp    13714 <func_49+0x2ab>
   136fb:	83 ad 14 f7 ff ff 01 	subl   $0x1,-0x8ec(%rbp)
   13702:	48 8b 05 27 89 00 00 	mov    0x8927(%rip),%rax        # 1c030 <g_106>
   13709:	48 83 c0 01          	add    $0x1,%rax
   1370d:	48 89 05 1c 89 00 00 	mov    %rax,0x891c(%rip)        # 1c030 <g_106>
   13714:	48 8b 05 15 89 00 00 	mov    0x8915(%rip),%rax        # 1c030 <g_106>
   1371b:	48 83 f8 01          	cmp    $0x1,%rax
   1371f:	7e da                	jle    136fb <func_49+0x292>
   13721:	8b 85 e4 f6 ff ff    	mov    -0x91c(%rbp),%eax
   13727:	98                   	cwtl   
   13728:	be 04 00 00 00       	mov    $0x4,%esi
   1372d:	89 c7                	mov    %eax,%edi
   1372f:	e8 7f 6c ff ff       	callq  a3b3 <safe_add_func_int16_t_s_s>
   13734:	98                   	cwtl   
   13735:	89 85 e4 f6 ff ff    	mov    %eax,-0x91c(%rbp)
   1373b:	8b 85 e4 f6 ff ff    	mov    -0x91c(%rbp),%eax
   13741:	83 f8 15             	cmp    $0x15,%eax
   13744:	7e a8                	jle    136ee <func_49+0x285>
   13746:	8b 85 dc f6 ff ff    	mov    -0x924(%rbp),%eax
   1374c:	25 d4 53 8f ec       	and    $0xec8f53d4,%eax
   13751:	89 85 dc f6 ff ff    	mov    %eax,-0x924(%rbp)
   13757:	8b 85 dc f6 ff ff    	mov    -0x924(%rbp),%eax
   1375d:	85 c0                	test   %eax,%eax
   1375f:	74 1c                	je     1377d <func_49+0x314>
   13761:	80 bd e8 f6 ff ff 00 	cmpb   $0x0,-0x918(%rbp)
   13768:	75 41                	jne    137ab <func_49+0x342>
   1376a:	48 8b 85 70 f7 ff ff 	mov    -0x890(%rbp),%rax
   13771:	48 8d 95 e4 f6 ff ff 	lea    -0x91c(%rbp),%rdx
   13778:	48 89 10             	mov    %rdx,(%rax)
   1377b:	eb 0d                	jmp    1378a <func_49+0x321>
   1377d:	48 8b 05 3c bd 00 00 	mov    0xbd3c(%rip),%rax        # 1f4c0 <g_8>
   13784:	8b 00                	mov    (%rax),%eax
   13786:	85 c0                	test   %eax,%eax
   13788:	75 24                	jne    137ae <func_49+0x345>
   1378a:	0f b7 85 ec f6 ff ff 	movzwl -0x914(%rbp),%eax
   13791:	83 c0 01             	add    $0x1,%eax
   13794:	66 89 85 ec f6 ff ff 	mov    %ax,-0x914(%rbp)
   1379b:	66 83 bd ec f6 ff ff 	cmpw   $0x12,-0x914(%rbp)
   137a2:	12 
   137a3:	0f 86 2f ff ff ff    	jbe    136d8 <func_49+0x26f>
   137a9:	eb 04                	jmp    137af <func_49+0x346>
   137ab:	90                   	nop
   137ac:	eb 01                	jmp    137af <func_49+0x346>
   137ae:	90                   	nop
   137af:	0f b7 85 ec f6 ff ff 	movzwl -0x914(%rbp),%eax
   137b6:	e9 6d 0f 00 00       	jmpq   14728 <func_49+0x12bf>
   137bb:	c7 85 08 f7 ff ff 00 	movl   $0x0,-0x8f8(%rbp)
   137c2:	00 00 00 
   137c5:	66 c7 85 00 f7 ff ff 	movw   $0xffff,-0x900(%rbp)
   137cc:	ff ff 
   137ce:	48 8d 05 7f 88 00 00 	lea    0x887f(%rip),%rax        # 1c054 <g_218+0x4>
   137d5:	48 89 85 88 f7 ff ff 	mov    %rax,-0x878(%rbp)
   137dc:	c7 85 18 f7 ff ff 01 	movl   $0x1,-0x8e8(%rbp)
   137e3:	00 00 00 
   137e6:	48 8d 05 53 8a 00 00 	lea    0x8a53(%rip),%rax        # 1c240 <g_276+0x1c0>
   137ed:	48 89 85 90 f7 ff ff 	mov    %rax,-0x870(%rbp)
   137f4:	48 8d 85 a0 fc ff ff 	lea    -0x360(%rbp),%rax
   137fb:	48 8d 15 be 50 00 00 	lea    0x50be(%rip),%rdx        # 188c0 <g_3500+0x16f0>
   13802:	b9 64 00 00 00       	mov    $0x64,%ecx
   13807:	48 89 c7             	mov    %rax,%rdi
   1380a:	48 89 d6             	mov    %rdx,%rsi
   1380d:	f3 48 a5             	rep movsq %ds:(%rsi),%es:(%rdi)
   13810:	c7 85 2c f7 ff ff fb 	movl   $0xfffffffb,-0x8d4(%rbp)
   13817:	ff ff ff 
   1381a:	48 b8 aa 58 4d c6 d7 	movabs $0xd271b4d7c64d58aa,%rax
   13821:	b4 71 d2 
   13824:	48 89 85 98 f7 ff ff 	mov    %rax,-0x868(%rbp)
   1382b:	48 b8 13 b4 ee 9e e0 	movabs $0xf94884e09eeeb413,%rax
   13832:	84 48 f9 
   13835:	48 89 85 a0 f7 ff ff 	mov    %rax,-0x860(%rbp)
   1383c:	c7 85 30 f7 ff ff 64 	movl   $0xe8eb3064,-0x8d0(%rbp)
   13843:	30 eb e8 
   13846:	48 8d 05 bb bc 00 00 	lea    0xbcbb(%rip),%rax        # 1f508 <g_303>
   1384d:	48 89 85 a8 f7 ff ff 	mov    %rax,-0x858(%rbp)
   13854:	48 8d 85 ff f6 ff ff 	lea    -0x901(%rbp),%rax
   1385b:	48 89 85 b0 f7 ff ff 	mov    %rax,-0x850(%rbp)
   13862:	48 8d 85 a0 fa ff ff 	lea    -0x560(%rbp),%rax
   13869:	48 8d 15 30 b9 00 00 	lea    0xb930(%rip),%rdx        # 1f1a0 <g_3956+0x2918>
   13870:	b9 40 00 00 00       	mov    $0x40,%ecx
   13875:	48 89 c7             	mov    %rax,%rdi
   13878:	48 89 d6             	mov    %rdx,%rsi
   1387b:	f3 48 a5             	rep movsq %ds:(%rsi),%es:(%rdi)
   1387e:	48 c7 85 b8 f7 ff ff 	movq   $0x0,-0x848(%rbp)
   13885:	00 00 00 00 
   13889:	48 c7 85 c0 f7 ff ff 	movq   $0x0,-0x840(%rbp)
   13890:	00 00 00 00 
   13894:	48 8d 05 9f 87 00 00 	lea    0x879f(%rip),%rax        # 1c03a <g_167>
   1389b:	48 89 85 c8 f7 ff ff 	mov    %rax,-0x838(%rbp)
   138a2:	c7 05 7c 87 00 00 00 	movl   $0x0,0x877c(%rip)        # 1c028 <g_29>
   138a9:	00 00 00 
   138ac:	e9 c9 0c 00 00       	jmpq   1457a <func_49+0x1111>
   138b1:	48 8d 05 80 87 00 00 	lea    0x8780(%rip),%rax        # 1c038 <g_131>
   138b8:	48 89 85 60 f7 ff ff 	mov    %rax,-0x8a0(%rbp)
   138bf:	c7 85 34 f7 ff ff 75 	movl   $0xa90be275,-0x8cc(%rbp)
   138c6:	e2 0b a9 
   138c9:	c7 85 10 f9 ff ff 40 	movl   $0xbc6c1640,-0x6f0(%rbp)
   138d0:	16 6c bc 
   138d3:	c7 85 14 f9 ff ff 00 	movl   $0x0,-0x6ec(%rbp)
   138da:	00 00 00 
   138dd:	c7 85 18 f9 ff ff 00 	movl   $0x0,-0x6e8(%rbp)
   138e4:	00 00 00 
   138e7:	c7 85 1c f9 ff ff 00 	movl   $0x0,-0x6e4(%rbp)
   138ee:	00 00 00 
   138f1:	c7 85 20 f9 ff ff 00 	movl   $0x0,-0x6e0(%rbp)
   138f8:	00 00 00 
   138fb:	c7 85 24 f9 ff ff 40 	movl   $0xbc6c1640,-0x6dc(%rbp)
   13902:	16 6c bc 
   13905:	c7 85 28 f9 ff ff 00 	movl   $0x0,-0x6d8(%rbp)
   1390c:	00 00 00 
   1390f:	c7 85 2c f9 ff ff 40 	movl   $0xbc6c1640,-0x6d4(%rbp)
   13916:	16 6c bc 
   13919:	c7 85 30 f9 ff ff 00 	movl   $0x0,-0x6d0(%rbp)
   13920:	00 00 00 
   13923:	c7 85 34 f9 ff ff 40 	movl   $0xbc6c1640,-0x6cc(%rbp)
   1392a:	16 6c bc 
   1392d:	c7 85 38 f9 ff ff 00 	movl   $0x0,-0x6c8(%rbp)
   13934:	00 00 00 
   13937:	c7 85 3c f9 ff ff 40 	movl   $0xbc6c1640,-0x6c4(%rbp)
   1393e:	16 6c bc 
   13941:	c7 85 40 f9 ff ff 00 	movl   $0x0,-0x6c0(%rbp)
   13948:	00 00 00 
   1394b:	c7 85 44 f9 ff ff 00 	movl   $0x0,-0x6bc(%rbp)
   13952:	00 00 00 
   13955:	c7 85 48 f9 ff ff 00 	movl   $0x0,-0x6b8(%rbp)
   1395c:	00 00 00 
   1395f:	c7 85 4c f9 ff ff 00 	movl   $0x0,-0x6b4(%rbp)
   13966:	00 00 00 
   13969:	c7 85 50 f9 ff ff 40 	movl   $0xbc6c1640,-0x6b0(%rbp)
   13970:	16 6c bc 
   13973:	c7 85 54 f9 ff ff 67 	movl   $0xf8459a67,-0x6ac(%rbp)
   1397a:	9a 45 f8 
   1397d:	c7 85 58 f9 ff ff 67 	movl   $0xf8459a67,-0x6a8(%rbp)
   13984:	9a 45 f8 
   13987:	c7 85 5c f9 ff ff 40 	movl   $0xbc6c1640,-0x6a4(%rbp)
   1398e:	16 6c bc 
   13991:	c7 85 60 f9 ff ff ff 	movl   $0xffffffff,-0x6a0(%rbp)
   13998:	ff ff ff 
   1399b:	c7 85 64 f9 ff ff 00 	movl   $0x0,-0x69c(%rbp)
   139a2:	00 00 00 
   139a5:	c7 85 68 f9 ff ff ff 	movl   $0xffffffff,-0x698(%rbp)
   139ac:	ff ff ff 
   139af:	c7 85 6c f9 ff ff 40 	movl   $0xbc6c1640,-0x694(%rbp)
   139b6:	16 6c bc 
   139b9:	c7 85 70 f9 ff ff 67 	movl   $0xf8459a67,-0x690(%rbp)
   139c0:	9a 45 f8 
   139c3:	c7 85 74 f9 ff ff ff 	movl   $0xffffffff,-0x68c(%rbp)
   139ca:	ff ff ff 
   139cd:	c7 85 78 f9 ff ff 67 	movl   $0xf8459a67,-0x688(%rbp)
   139d4:	9a 45 f8 
   139d7:	c7 85 7c f9 ff ff 00 	movl   $0x0,-0x684(%rbp)
   139de:	00 00 00 
   139e1:	c7 85 80 f9 ff ff 00 	movl   $0x0,-0x680(%rbp)
   139e8:	00 00 00 
   139eb:	c7 85 84 f9 ff ff 00 	movl   $0x0,-0x67c(%rbp)
   139f2:	00 00 00 
   139f5:	c7 85 88 f9 ff ff 00 	movl   $0x0,-0x678(%rbp)
   139fc:	00 00 00 
   139ff:	c7 85 8c f9 ff ff 67 	movl   $0xf8459a67,-0x674(%rbp)
   13a06:	9a 45 f8 
   13a09:	c7 85 90 f9 ff ff ff 	movl   $0xffffffff,-0x670(%rbp)
   13a10:	ff ff ff 
   13a13:	c7 85 94 f9 ff ff ff 	movl   $0xffffffff,-0x66c(%rbp)
   13a1a:	ff ff ff 
   13a1d:	c7 85 98 f9 ff ff 00 	movl   $0x0,-0x668(%rbp)
   13a24:	00 00 00 
   13a27:	c7 85 9c f9 ff ff 00 	movl   $0x0,-0x664(%rbp)
   13a2e:	00 00 00 
   13a31:	c7 85 a0 f9 ff ff 9a 	movl   $0x306d479a,-0x660(%rbp)
   13a38:	47 6d 30 
   13a3b:	c7 85 a4 f9 ff ff 00 	movl   $0x0,-0x65c(%rbp)
   13a42:	00 00 00 
   13a45:	c7 85 a8 f9 ff ff 00 	movl   $0x0,-0x658(%rbp)
   13a4c:	00 00 00 
   13a4f:	c7 85 ac f9 ff ff ff 	movl   $0xffffffff,-0x654(%rbp)
   13a56:	ff ff ff 
   13a59:	c7 85 b0 f9 ff ff ff 	movl   $0xffffffff,-0x650(%rbp)
   13a60:	ff ff ff 
   13a63:	c7 85 b4 f9 ff ff 67 	movl   $0xf8459a67,-0x64c(%rbp)
   13a6a:	9a 45 f8 
   13a6d:	c7 85 b8 f9 ff ff 00 	movl   $0x0,-0x648(%rbp)
   13a74:	00 00 00 
   13a77:	c7 85 bc f9 ff ff 00 	movl   $0x0,-0x644(%rbp)
   13a7e:	00 00 00 
   13a81:	c7 85 c0 f9 ff ff 00 	movl   $0x0,-0x640(%rbp)
   13a88:	00 00 00 
   13a8b:	c7 85 c4 f9 ff ff 00 	movl   $0x0,-0x63c(%rbp)
   13a92:	00 00 00 
   13a95:	c7 85 c8 f9 ff ff 67 	movl   $0xf8459a67,-0x638(%rbp)
   13a9c:	9a 45 f8 
   13a9f:	c7 85 cc f9 ff ff ff 	movl   $0xffffffff,-0x634(%rbp)
   13aa6:	ff ff ff 
   13aa9:	66 c7 05 7a 85 00 00 	movw   $0x0,0x857a(%rip)        # 1c02c <g_104>
   13ab0:	00 00 
   13ab2:	e9 a0 0a 00 00       	jmpq   14557 <func_49+0x10ee>
   13ab7:	48 b8 50 75 30 65 3a 	movabs $0x17168c3a65307550,%rax
   13abe:	8c 16 17 
   13ac1:	48 89 85 68 f7 ff ff 	mov    %rax,-0x898(%rbp)
   13ac8:	66 c7 85 04 f7 ff ff 	movw   $0xbfdf,-0x8fc(%rbp)
   13acf:	df bf 
   13ad1:	c7 85 38 f7 ff ff ff 	movl   $0xffffffff,-0x8c8(%rbp)
   13ad8:	ff ff ff 
   13adb:	c7 85 3c f7 ff ff 01 	movl   $0x1,-0x8c4(%rbp)
   13ae2:	00 00 00 
   13ae5:	66 c7 85 06 f7 ff ff 	movw   $0x6f90,-0x8fa(%rbp)
   13aec:	90 6f 
   13aee:	8b 85 e4 f6 ff ff    	mov    -0x91c(%rbp),%eax
   13af4:	85 c0                	test   %eax,%eax
   13af6:	0f 85 6e 0a 00 00    	jne    1456a <func_49+0x1101>
   13afc:	c7 85 dc f6 ff ff 00 	movl   $0x0,-0x924(%rbp)
   13b03:	00 00 00 
   13b06:	e9 08 0a 00 00       	jmpq   14513 <func_49+0x10aa>
   13b0b:	c7 85 40 f7 ff ff 8e 	movl   $0xcbdcb88e,-0x8c0(%rbp)
   13b12:	b8 dc cb 
   13b15:	48 8d 05 1c 85 00 00 	lea    0x851c(%rip),%rax        # 1c038 <g_131>
   13b1c:	48 89 85 d0 f7 ff ff 	mov    %rax,-0x830(%rbp)
   13b23:	48 8d 85 58 f7 ff ff 	lea    -0x8a8(%rbp),%rax
   13b2a:	48 89 85 d8 f7 ff ff 	mov    %rax,-0x828(%rbp)
   13b31:	48 8d 05 03 85 00 00 	lea    0x8503(%rip),%rax        # 1c03b <g_190>
   13b38:	48 89 85 e0 f7 ff ff 	mov    %rax,-0x820(%rbp)
   13b3f:	48 8d 85 68 f7 ff ff 	lea    -0x898(%rbp),%rax
   13b46:	48 89 85 e8 f7 ff ff 	mov    %rax,-0x818(%rbp)
   13b4d:	48 8d 05 e8 84 00 00 	lea    0x84e8(%rip),%rax        # 1c03c <g_199>
   13b54:	48 89 85 50 f8 ff ff 	mov    %rax,-0x7b0(%rbp)
   13b5b:	48 8d 05 da 84 00 00 	lea    0x84da(%rip),%rax        # 1c03c <g_199>
   13b62:	48 89 85 58 f8 ff ff 	mov    %rax,-0x7a8(%rbp)
   13b69:	48 8d 05 cc 84 00 00 	lea    0x84cc(%rip),%rax        # 1c03c <g_199>
   13b70:	48 89 85 60 f8 ff ff 	mov    %rax,-0x7a0(%rbp)
   13b77:	48 8d 05 be 84 00 00 	lea    0x84be(%rip),%rax        # 1c03c <g_199>
   13b7e:	48 89 85 68 f8 ff ff 	mov    %rax,-0x798(%rbp)
   13b85:	48 8d 05 b0 84 00 00 	lea    0x84b0(%rip),%rax        # 1c03c <g_199>
   13b8c:	48 89 85 70 f8 ff ff 	mov    %rax,-0x790(%rbp)
   13b93:	c7 85 44 f7 ff ff 30 	movl   $0x5a456930,-0x8bc(%rbp)
   13b9a:	69 45 5a 
   13b9d:	48 8d 85 08 f7 ff ff 	lea    -0x8f8(%rbp),%rax
   13ba4:	48 89 85 f0 f7 ff ff 	mov    %rax,-0x810(%rbp)
   13bab:	c7 85 48 f7 ff ff 01 	movl   $0x1,-0x8b8(%rbp)
   13bb2:	00 00 00 
   13bb5:	48 c7 05 70 84 00 00 	movq   $0x3,0x8470(%rip)        # 1c030 <g_106>
   13bbc:	03 00 00 00 
   13bc0:	e9 4c 02 00 00       	jmpq   13e11 <func_49+0x9a8>
   13bc5:	48 c7 85 c0 f8 ff ff 	movq   $0x0,-0x740(%rbp)
   13bcc:	00 00 00 00 
   13bd0:	48 c7 85 c8 f8 ff ff 	movq   $0x0,-0x738(%rbp)
   13bd7:	00 00 00 00 
   13bdb:	48 c7 85 d0 f8 ff ff 	movq   $0x0,-0x730(%rbp)
   13be2:	00 00 00 00 
   13be6:	48 c7 85 d8 f8 ff ff 	movq   $0x0,-0x728(%rbp)
   13bed:	00 00 00 00 
   13bf1:	48 c7 85 e0 f8 ff ff 	movq   $0x0,-0x720(%rbp)
   13bf8:	00 00 00 00 
   13bfc:	48 c7 85 e8 f8 ff ff 	movq   $0x0,-0x718(%rbp)
   13c03:	00 00 00 00 
   13c07:	48 c7 85 f0 f8 ff ff 	movq   $0x0,-0x710(%rbp)
   13c0e:	00 00 00 00 
   13c12:	48 c7 85 f8 f8 ff ff 	movq   $0x0,-0x708(%rbp)
   13c19:	00 00 00 00 
   13c1d:	48 c7 85 00 f9 ff ff 	movq   $0x0,-0x700(%rbp)
   13c24:	00 00 00 00 
   13c28:	48 c7 85 08 f9 ff ff 	movq   $0x0,-0x6f8(%rbp)
   13c2f:	00 00 00 00 
   13c33:	c7 85 1c f7 ff ff 00 	movl   $0x0,-0x8e4(%rbp)
   13c3a:	00 00 00 
   13c3d:	eb 1e                	jmp    13c5d <func_49+0x7f4>
   13c3f:	8b 85 1c f7 ff ff    	mov    -0x8e4(%rbp),%eax
   13c45:	48 98                	cltq   
   13c47:	48 8d 95 60 f7 ff ff 	lea    -0x8a0(%rbp),%rdx
   13c4e:	48 89 94 c5 20 f8 ff 	mov    %rdx,-0x7e0(%rbp,%rax,8)
   13c55:	ff 
   13c56:	83 85 1c f7 ff ff 01 	addl   $0x1,-0x8e4(%rbp)
   13c5d:	83 bd 1c f7 ff ff 01 	cmpl   $0x1,-0x8e4(%rbp)
   13c64:	7e d9                	jle    13c3f <func_49+0x7d6>
   13c66:	48 8b 05 c3 83 00 00 	mov    0x83c3(%rip),%rax        # 1c030 <g_106>
   13c6d:	41 89 c6             	mov    %eax,%r14d
   13c70:	8b 85 08 f7 ff ff    	mov    -0x8f8(%rbp),%eax
   13c76:	0f b7 d8             	movzwl %ax,%ebx
   13c79:	8b 85 34 f7 ff ff    	mov    -0x8cc(%rbp),%eax
   13c7f:	4c 63 e0             	movslq %eax,%r12
   13c82:	44 8b ad 08 f7 ff ff 	mov    -0x8f8(%rbp),%r13d
   13c89:	8b 05 95 83 00 00    	mov    0x8395(%rip),%eax        # 1c024 <g_9>
   13c8f:	41 89 c7             	mov    %eax,%r15d
   13c92:	48 8b 85 60 f7 ff ff 	mov    -0x8a0(%rbp),%rax
   13c99:	48 89 85 60 f7 ff ff 	mov    %rax,-0x8a0(%rbp)
   13ca0:	48 8b 05 89 83 00 00 	mov    0x8389(%rip),%rax        # 1c030 <g_106>
   13ca7:	0f bf d0             	movswl %ax,%edx
   13caa:	0f b6 0d 89 83 00 00 	movzbl 0x8389(%rip),%ecx        # 1c03a <g_167>
   13cb1:	8b 05 71 83 00 00    	mov    0x8371(%rip),%eax        # 1c028 <g_29>
   13cb7:	85 c0                	test   %eax,%eax
   13cb9:	74 18                	je     13cd3 <func_49+0x86a>
   13cbb:	0f b7 b5 ec f6 ff ff 	movzwl -0x914(%rbp),%esi
   13cc2:	8b 85 08 f7 ff ff    	mov    -0x8f8(%rbp),%eax
   13cc8:	39 c6                	cmp    %eax,%esi
   13cca:	74 07                	je     13cd3 <func_49+0x86a>
   13ccc:	b8 01 00 00 00       	mov    $0x1,%eax
   13cd1:	eb 05                	jmp    13cd8 <func_49+0x86f>
   13cd3:	b8 00 00 00 00       	mov    $0x0,%eax
   13cd8:	21 c8                	and    %ecx,%eax
   13cda:	88 05 5a 83 00 00    	mov    %al,0x835a(%rip)        # 1c03a <g_167>
   13ce0:	0f b6 05 53 83 00 00 	movzbl 0x8353(%rip),%eax        # 1c03a <g_167>
   13ce7:	0f be c0             	movsbl %al,%eax
   13cea:	89 d6                	mov    %edx,%esi
   13cec:	89 c7                	mov    %eax,%edi
   13cee:	e8 02 67 ff ff       	callq  a3f5 <safe_mul_func_int16_t_s_s>
   13cf3:	66 85 c0             	test   %ax,%ax
   13cf6:	74 07                	je     13cff <func_49+0x896>
   13cf8:	ba 01 00 00 00       	mov    $0x1,%edx
   13cfd:	eb 05                	jmp    13d04 <func_49+0x89b>
   13cff:	ba 00 00 00 00       	mov    $0x0,%edx
   13d04:	8b 85 dc f6 ff ff    	mov    -0x924(%rbp),%eax
   13d0a:	48 63 ca             	movslq %edx,%rcx
   13d0d:	48 63 d0             	movslq %eax,%rdx
   13d10:	48 89 8c d5 30 f8 ff 	mov    %rcx,-0x7d0(%rbp,%rdx,8)
   13d17:	ff 
   13d18:	48 98                	cltq   
   13d1a:	48 8b 84 c5 30 f8 ff 	mov    -0x7d0(%rbp,%rax,8),%rax
   13d21:	ff 
   13d22:	48 be c2 25 16 44 37 	movabs $0xf86f2637441625c2,%rsi
   13d29:	26 6f f8 
   13d2c:	48 89 c7             	mov    %rax,%rdi
   13d2f:	e8 80 6c ff ff       	callq  a9b4 <safe_mod_func_int64_t_s_s>
   13d34:	8b 85 dc f6 ff ff    	mov    -0x924(%rbp),%eax
   13d3a:	98                   	cwtl   
   13d3b:	be f9 ff ff ff       	mov    $0xfffffff9,%esi
   13d40:	89 c7                	mov    %eax,%edi
   13d42:	e8 0e 67 ff ff       	callq  a455 <safe_div_func_int16_t_s_s>
   13d47:	48 0f bf c0          	movswq %ax,%rax
   13d4b:	48 89 85 68 f7 ff ff 	mov    %rax,-0x898(%rbp)
   13d52:	48 8b 85 68 f7 ff ff 	mov    -0x898(%rbp),%rax
   13d59:	0f b6 c0             	movzbl %al,%eax
   13d5c:	44 89 fe             	mov    %r15d,%esi
   13d5f:	89 c7                	mov    %eax,%edi
   13d61:	e8 e6 6e ff ff       	callq  ac4c <safe_lshift_func_uint8_t_u_u>
   13d66:	0f b6 c0             	movzbl %al,%eax
   13d69:	44 89 ee             	mov    %r13d,%esi
   13d6c:	89 c7                	mov    %eax,%edi
   13d6e:	e8 93 70 ff ff       	callq  ae06 <safe_lshift_func_uint16_t_u_u>
   13d73:	0f b7 d0             	movzwl %ax,%edx
   13d76:	8b 05 ac 82 00 00    	mov    0x82ac(%rip),%eax        # 1c028 <g_29>
   13d7c:	39 c2                	cmp    %eax,%edx
   13d7e:	0f 92 c0             	setb   %al
   13d81:	0f b6 c8             	movzbl %al,%ecx
   13d84:	48 8b 85 58 f7 ff ff 	mov    -0x8a8(%rbp),%rax
   13d8b:	0f b7 10             	movzwl (%rax),%edx
   13d8e:	48 8b 85 58 f7 ff ff 	mov    -0x8a8(%rbp),%rax
   13d95:	31 ca                	xor    %ecx,%edx
   13d97:	66 89 10             	mov    %dx,(%rax)
   13d9a:	0f b7 00             	movzwl (%rax),%eax
   13d9d:	66 85 c0             	test   %ax,%ax
   13da0:	74 0a                	je     13dac <func_49+0x943>
   13da2:	48 8b 05 87 82 00 00 	mov    0x8287(%rip),%rax        # 1c030 <g_106>
   13da9:	48 85 c0             	test   %rax,%rax
   13dac:	0f b6 05 87 82 00 00 	movzbl 0x8287(%rip),%eax        # 1c03a <g_167>
   13db3:	0f be d0             	movsbl %al,%edx
   13db6:	8b 05 6c 82 00 00    	mov    0x826c(%rip),%eax        # 1c028 <g_29>
   13dbc:	39 c2                	cmp    %eax,%edx
   13dbe:	0f 94 c0             	sete   %al
   13dc1:	0f b6 c0             	movzbl %al,%eax
   13dc4:	4c 89 e6             	mov    %r12,%rsi
   13dc7:	48 89 c7             	mov    %rax,%rdi
   13dca:	e8 72 6a ff ff       	callq  a841 <safe_add_func_int64_t_s_s>
   13dcf:	0f b7 c0             	movzwl %ax,%eax
   13dd2:	89 de                	mov    %ebx,%esi
   13dd4:	89 c7                	mov    %eax,%edi
   13dd6:	e8 81 6f ff ff       	callq  ad5c <safe_mod_func_uint16_t_u_u>
   13ddb:	f7 d0                	not    %eax
   13ddd:	0f b6 c0             	movzbl %al,%eax
   13de0:	44 89 f6             	mov    %r14d,%esi
   13de3:	89 c7                	mov    %eax,%edi
   13de5:	e8 a3 6e ff ff       	callq  ac8d <safe_rshift_func_uint8_t_u_s>
   13dea:	0f b6 c0             	movzbl %al,%eax
   13ded:	f7 d0                	not    %eax
   13def:	89 c2                	mov    %eax,%edx
   13df1:	8b 85 e4 f6 ff ff    	mov    -0x91c(%rbp),%eax
   13df7:	09 d0                	or     %edx,%eax
   13df9:	89 85 e4 f6 ff ff    	mov    %eax,-0x91c(%rbp)
   13dff:	48 8b 05 2a 82 00 00 	mov    0x822a(%rip),%rax        # 1c030 <g_106>
   13e06:	48 83 e8 01          	sub    $0x1,%rax
   13e0a:	48 89 05 1f 82 00 00 	mov    %rax,0x821f(%rip)        # 1c030 <g_106>
   13e11:	48 8b 05 18 82 00 00 	mov    0x8218(%rip),%rax        # 1c030 <g_106>
   13e18:	48 85 c0             	test   %rax,%rax
   13e1b:	0f 89 a4 fd ff ff    	jns    13bc5 <func_49+0x75c>
   13e21:	8b 85 08 f7 ff ff    	mov    -0x8f8(%rbp),%eax
   13e27:	0f be d8             	movsbl %al,%ebx
   13e2a:	0f b6 05 09 82 00 00 	movzbl 0x8209(%rip),%eax        # 1c03a <g_167>
   13e31:	44 0f be e0          	movsbl %al,%r12d
   13e35:	44 0f b7 ad ec f6 ff 	movzwl -0x914(%rbp),%r13d
   13e3c:	ff 
   13e3d:	44 8b 35 e4 81 00 00 	mov    0x81e4(%rip),%r14d        # 1c028 <g_29>
   13e44:	0f b7 05 ed 81 00 00 	movzwl 0x81ed(%rip),%eax        # 1c038 <g_131>
   13e4b:	4c 0f bf f8          	movswq %ax,%r15
   13e4f:	48 8b 05 72 b6 00 00 	mov    0xb672(%rip),%rax        # 1f4c8 <g_72>
   13e56:	48 8b 08             	mov    (%rax),%rcx
   13e59:	48 8b 85 70 f7 ff ff 	mov    -0x890(%rbp),%rax
   13e60:	48 8d 95 dc f6 ff ff 	lea    -0x924(%rbp),%rdx
   13e67:	48 89 10             	mov    %rdx,(%rax)
   13e6a:	48 8b 85 70 f7 ff ff 	mov    -0x890(%rbp),%rax
   13e71:	48 8b 00             	mov    (%rax),%rax
   13e74:	48 39 c1             	cmp    %rax,%rcx
   13e77:	0f 95 c0             	setne  %al
   13e7a:	0f b6 d0             	movzbl %al,%edx
   13e7d:	48 8b 85 e0 f7 ff ff 	mov    -0x820(%rbp),%rax
   13e84:	0f b6 00             	movzbl (%rax),%eax
   13e87:	89 c1                	mov    %eax,%ecx
   13e89:	89 d0                	mov    %edx,%eax
   13e8b:	21 c8                	and    %ecx,%eax
   13e8d:	89 c2                	mov    %eax,%edx
   13e8f:	48 8b 85 e0 f7 ff ff 	mov    -0x820(%rbp),%rax
   13e96:	88 10                	mov    %dl,(%rax)
   13e98:	48 8b 85 e0 f7 ff ff 	mov    -0x820(%rbp),%rax
   13e9f:	0f b6 00             	movzbl (%rax),%eax
   13ea2:	0f b6 c0             	movzbl %al,%eax
   13ea5:	be 07 00 00 00       	mov    $0x7,%esi
   13eaa:	89 c7                	mov    %eax,%edi
   13eac:	e8 9b 6d ff ff       	callq  ac4c <safe_lshift_func_uint8_t_u_u>
   13eb1:	0f b7 85 00 f7 ff ff 	movzwl -0x900(%rbp),%eax
   13eb8:	66 83 f8 01          	cmp    $0x1,%ax
   13ebc:	0f 94 c0             	sete   %al
   13ebf:	0f b6 d0             	movzbl %al,%edx
   13ec2:	8b 85 40 f7 ff ff    	mov    -0x8c0(%rbp),%eax
   13ec8:	48 21 c2             	and    %rax,%rdx
   13ecb:	b8 bc aa d9 ca       	mov    $0xcad9aabc,%eax
   13ed0:	48 39 c2             	cmp    %rax,%rdx
   13ed3:	75 0a                	jne    13edf <func_49+0xa76>
   13ed5:	8b 05 4d 81 00 00    	mov    0x814d(%rip),%eax        # 1c028 <g_29>
   13edb:	85 c0                	test   %eax,%eax
   13edd:	74 07                	je     13ee6 <func_49+0xa7d>
   13edf:	ba 01 00 00 00       	mov    $0x1,%edx
   13ee4:	eb 05                	jmp    13eeb <func_49+0xa82>
   13ee6:	ba 00 00 00 00       	mov    $0x0,%edx
   13eeb:	0f bf 85 04 f7 ff ff 	movswl -0x8fc(%rbp),%eax
   13ef2:	31 d0                	xor    %edx,%eax
   13ef4:	39 85 34 f7 ff ff    	cmp    %eax,-0x8cc(%rbp)
   13efa:	0f 95 c0             	setne  %al
   13efd:	0f b6 c0             	movzbl %al,%eax
   13f00:	be 07 2f aa 13       	mov    $0x13aa2f07,%esi
   13f05:	89 c7                	mov    %eax,%edi
   13f07:	e8 f9 66 ff ff       	callq  a605 <safe_sub_func_int32_t_s_s>
   13f0c:	83 c8 fa             	or     $0xfffffffa,%eax
   13f0f:	48 98                	cltq   
   13f11:	4c 89 fe             	mov    %r15,%rsi
   13f14:	48 89 c7             	mov    %rax,%rdi
   13f17:	e8 db 6a ff ff       	callq  a9f7 <safe_div_func_int64_t_s_s>
   13f1c:	48 8b 95 58 f7 ff ff 	mov    -0x8a8(%rbp),%rdx
   13f23:	48 8b 85 d8 f7 ff ff 	mov    -0x828(%rbp),%rax
   13f2a:	48 89 10             	mov    %rdx,(%rax)
   13f2d:	48 8b 85 d8 f7 ff ff 	mov    -0x828(%rbp),%rax
   13f34:	48 8b 00             	mov    (%rax),%rax
   13f37:	48 8d 15 fa 80 00 00 	lea    0x80fa(%rip),%rdx        # 1c038 <g_131>
   13f3e:	48 39 d0             	cmp    %rdx,%rax
   13f41:	0f 94 c0             	sete   %al
   13f44:	0f b6 c0             	movzbl %al,%eax
   13f47:	be 01 00 00 00       	mov    $0x1,%esi
   13f4c:	89 c7                	mov    %eax,%edi
   13f4e:	e8 bf 62 ff ff       	callq  a212 <safe_mul_func_int8_t_s_s>
   13f53:	3c 52                	cmp    $0x52,%al
   13f55:	0f 9e c0             	setle  %al
   13f58:	0f b6 d0             	movzbl %al,%edx
   13f5b:	48 8b 05 5e b5 00 00 	mov    0xb55e(%rip),%rax        # 1f4c0 <g_8>
   13f62:	8b 00                	mov    (%rax),%eax
   13f64:	39 c2                	cmp    %eax,%edx
   13f66:	0f 9f c0             	setg   %al
   13f69:	0f b6 c0             	movzbl %al,%eax
   13f6c:	44 89 f6             	mov    %r14d,%esi
   13f6f:	89 c7                	mov    %eax,%edi
   13f71:	e8 af 6f ff ff       	callq  af25 <safe_div_func_uint32_t_u_u>
   13f76:	89 c2                	mov    %eax,%edx
   13f78:	48 8b 85 e8 f7 ff ff 	mov    -0x818(%rbp),%rax
   13f7f:	48 8b 00             	mov    (%rax),%rax
   13f82:	89 d2                	mov    %edx,%edx
   13f84:	48 31 c2             	xor    %rax,%rdx
   13f87:	48 8b 85 e8 f7 ff ff 	mov    -0x818(%rbp),%rax
   13f8e:	48 89 10             	mov    %rdx,(%rax)
   13f91:	48 8b 85 e8 f7 ff ff 	mov    -0x818(%rbp),%rax
   13f98:	48 8b 00             	mov    (%rax),%rax
   13f9b:	89 85 38 f7 ff ff    	mov    %eax,-0x8c8(%rbp)
   13fa1:	83 bd 38 f7 ff ff 00 	cmpl   $0x0,-0x8c8(%rbp)
   13fa8:	75 09                	jne    13fb3 <func_49+0xb4a>
   13faa:	83 bd 3c f7 ff ff 00 	cmpl   $0x0,-0x8c4(%rbp)
   13fb1:	74 07                	je     13fba <func_49+0xb51>
   13fb3:	b8 01 00 00 00       	mov    $0x1,%eax
   13fb8:	eb 05                	jmp    13fbf <func_49+0xb56>
   13fba:	b8 00 00 00 00       	mov    $0x0,%eax
   13fbf:	48 98                	cltq   
   13fc1:	48 be c8 19 6d b9 c5 	movabs $0x63d1dac5b96d19c8,%rsi
   13fc8:	da d1 63 
   13fcb:	48 89 c7             	mov    %rax,%rdi
   13fce:	e8 6e 68 ff ff       	callq  a841 <safe_add_func_int64_t_s_s>
   13fd3:	8b 95 40 f7 ff ff    	mov    -0x8c0(%rbp),%edx
   13fd9:	48 39 d0             	cmp    %rdx,%rax
   13fdc:	7c 07                	jl     13fe5 <func_49+0xb7c>
   13fde:	b8 03 00 00 00       	mov    $0x3,%eax
   13fe3:	eb 05                	jmp    13fea <func_49+0xb81>
   13fe5:	b8 02 00 00 00       	mov    $0x2,%eax
   13fea:	4c 89 ee             	mov    %r13,%rsi
   13fed:	48 89 c7             	mov    %rax,%rdi
   13ff0:	e8 4c 68 ff ff       	callq  a841 <safe_add_func_int64_t_s_s>
   13ff5:	89 c2                	mov    %eax,%edx
   13ff7:	8b 85 dc f6 ff ff    	mov    -0x924(%rbp),%eax
   13ffd:	31 d0                	xor    %edx,%eax
   13fff:	0f be c0             	movsbl %al,%eax
   14002:	44 89 e6             	mov    %r12d,%esi
   14005:	89 c7                	mov    %eax,%edi
   14007:	e8 60 63 ff ff       	callq  a36c <safe_rshift_func_int8_t_s_u>
   1400c:	0f be c0             	movsbl %al,%eax
   1400f:	89 de                	mov    %ebx,%esi
   14011:	89 c7                	mov    %eax,%edi
   14013:	e8 da 61 ff ff       	callq  a1f2 <safe_sub_func_int8_t_s_s>
   14018:	0f be c0             	movsbl %al,%eax
   1401b:	31 85 44 f7 ff ff    	xor    %eax,-0x8bc(%rbp)
   14021:	66 81 bd 04 f7 ff ff 	cmpw   $0x5964,-0x8fc(%rbp)
   14028:	64 59 
   1402a:	0f 9f c0             	setg   %al
   1402d:	0f b6 d0             	movzbl %al,%edx
   14030:	48 8b 85 f0 f7 ff ff 	mov    -0x810(%rbp),%rax
   14037:	89 10                	mov    %edx,(%rax)
   14039:	48 8b 05 a0 b4 00 00 	mov    0xb4a0(%rip),%rax        # 1f4e0 <g_202>
   14040:	0f b7 85 00 f7 ff ff 	movzwl -0x900(%rbp),%eax
   14047:	66 83 f8 01          	cmp    $0x1,%ax
   1404b:	0f 8e 40 03 00 00    	jle    14391 <func_49+0xf28>
   14051:	48 c7 85 f8 f7 ff ff 	movq   $0x0,-0x808(%rbp)
   14058:	00 00 00 00 
   1405c:	c7 85 50 f7 ff ff 01 	movl   $0x1,-0x8b0(%rbp)
   14063:	00 00 00 
   14066:	48 c7 85 00 f8 ff ff 	movq   $0x0,-0x800(%rbp)
   1406d:	00 00 00 00 
   14071:	48 8d 05 e8 7f 00 00 	lea    0x7fe8(%rip),%rax        # 1c060 <g_228>
   14078:	48 89 85 08 f8 ff ff 	mov    %rax,-0x7f8(%rbp)
   1407f:	c7 85 54 f7 ff ff f9 	movl   $0xfffffff9,-0x8ac(%rbp)
   14086:	ff ff ff 
   14089:	48 8d 05 60 cc 00 00 	lea    0xcc60(%rip),%rax        # 20cf0 <g_73>
   14090:	48 89 85 10 f8 ff ff 	mov    %rax,-0x7f0(%rbp)
   14097:	8b 05 8b 7f 00 00    	mov    0x7f8b(%rip),%eax        # 1c028 <g_29>
   1409d:	0f b6 d8             	movzbl %al,%ebx
   140a0:	0f b6 05 94 7f 00 00 	movzbl 0x7f94(%rip),%eax        # 1c03b <g_190>
   140a7:	0f b6 c0             	movzbl %al,%eax
   140aa:	be 0b 00 00 00       	mov    $0xb,%esi
   140af:	89 c7                	mov    %eax,%edi
   140b1:	e8 92 6d ff ff       	callq  ae48 <safe_rshift_func_uint16_t_u_s>
   140b6:	66 85 c0             	test   %ax,%ax
   140b9:	0f 84 16 01 00 00    	je     141d5 <func_49+0xd6c>
   140bf:	0f b7 05 8a 7f 00 00 	movzwl 0x7f8a(%rip),%eax        # 1c050 <g_218>
   140c6:	c1 e0 04             	shl    $0x4,%eax
   140c9:	66 c1 f8 04          	sar    $0x4,%ax
   140cd:	44 0f b7 e0          	movzwl %ax,%r12d
   140d1:	0f b6 85 e8 f6 ff ff 	movzbl -0x918(%rbp),%eax
   140d8:	44 0f b6 e8          	movzbl %al,%r13d
   140dc:	8b 05 5a 7f 00 00    	mov    0x7f5a(%rip),%eax        # 1c03c <g_199>
   140e2:	44 0f be f0          	movsbl %al,%r14d
   140e6:	48 8b 85 e8 f7 ff ff 	mov    -0x818(%rbp),%rax
   140ed:	48 c7 00 00 00 00 00 	movq   $0x0,(%rax)
   140f4:	48 8b 85 e8 f7 ff ff 	mov    -0x818(%rbp),%rax
   140fb:	48 8b 00             	mov    (%rax),%rax
   140fe:	41 89 c7             	mov    %eax,%r15d
   14101:	0f b7 05 24 7f 00 00 	movzwl 0x7f24(%rip),%eax        # 1c02c <g_104>
   14108:	0f b7 d0             	movzwl %ax,%edx
   1410b:	8b 05 4b 7f 00 00    	mov    0x7f4b(%rip),%eax        # 1c05c <g_218+0xc>
   14111:	25 ff ff 3f 00       	and    $0x3fffff,%eax
   14116:	98                   	cwtl   
   14117:	89 d6                	mov    %edx,%esi
   14119:	89 c7                	mov    %eax,%edi
   1411b:	e8 c1 63 ff ff       	callq  a4e1 <safe_lshift_func_int16_t_s_u>
   14120:	81 bd 44 f7 ff ff cf 	cmpl   $0xafcf,-0x8bc(%rbp)
   14127:	af 00 00 
   1412a:	0f 9e c0             	setle  %al
   1412d:	0f b6 c0             	movzbl %al,%eax
   14130:	be 07 00 00 00       	mov    $0x7,%esi
   14135:	89 c7                	mov    %eax,%edi
   14137:	e8 82 6c ff ff       	callq  adbe <safe_lshift_func_uint16_t_u_s>
   1413c:	0f b6 c0             	movzbl %al,%eax
   1413f:	89 c6                	mov    %eax,%esi
   14141:	bf ff 00 00 00       	mov    $0xff,%edi
   14146:	e8 0f 6a ff ff       	callq  ab5a <safe_add_func_uint8_t_u_u>
   1414b:	84 c0                	test   %al,%al
   1414d:	74 11                	je     14160 <func_49+0xcf7>
   1414f:	8b 05 ff 7e 00 00    	mov    0x7eff(%rip),%eax        # 1c054 <g_218+0x4>
   14155:	85 c0                	test   %eax,%eax
   14157:	74 07                	je     14160 <func_49+0xcf7>
   14159:	b8 01 00 00 00       	mov    $0x1,%eax
   1415e:	eb 05                	jmp    14165 <func_49+0xcfc>
   14160:	b8 00 00 00 00       	mov    $0x0,%eax
   14165:	44 09 f8             	or     %r15d,%eax
   14168:	0f be c0             	movsbl %al,%eax
   1416b:	44 89 f6             	mov    %r14d,%esi
   1416e:	89 c7                	mov    %eax,%edi
   14170:	e8 5f 60 ff ff       	callq  a1d4 <safe_add_func_int8_t_s_s>
   14175:	48 8b 85 f8 f7 ff ff 	mov    -0x808(%rbp),%rax
   1417c:	48 3b 85 e8 f7 ff ff 	cmp    -0x818(%rbp),%rax
   14183:	0f 95 c0             	setne  %al
   14186:	89 c1                	mov    %eax,%ecx
   14188:	8b 05 96 7e 00 00    	mov    0x7e96(%rip),%eax        # 1c024 <g_9>
   1418e:	83 f8 fe             	cmp    $0xfffffffe,%eax
   14191:	0f 9c c0             	setl   %al
   14194:	0f b6 d0             	movzbl %al,%edx
   14197:	8b 05 b7 7e 00 00    	mov    0x7eb7(%rip),%eax        # 1c054 <g_218+0x4>
   1419d:	39 c2                	cmp    %eax,%edx
   1419f:	0f 9c c0             	setl   %al
   141a2:	0f b6 d0             	movzbl %al,%edx
   141a5:	8b 05 91 7e 00 00    	mov    0x7e91(%rip),%eax        # 1c03c <g_199>
   141ab:	09 d0                	or     %edx,%eax
   141ad:	85 c0                	test   %eax,%eax
   141af:	0f 94 c0             	sete   %al
   141b2:	31 c8                	xor    %ecx,%eax
   141b4:	0f b6 c0             	movzbl %al,%eax
   141b7:	44 89 ee             	mov    %r13d,%esi
   141ba:	89 c7                	mov    %eax,%edi
   141bc:	e8 99 69 ff ff       	callq  ab5a <safe_add_func_uint8_t_u_u>
   141c1:	0f b6 c0             	movzbl %al,%eax
   141c4:	44 89 e6             	mov    %r12d,%esi
   141c7:	89 c7                	mov    %eax,%edi
   141c9:	e8 51 6b ff ff       	callq  ad1f <safe_sub_func_uint16_t_u_u>
   141ce:	b8 01 00 00 00       	mov    $0x1,%eax
   141d3:	eb 05                	jmp    141da <func_49+0xd71>
   141d5:	b8 00 00 00 00       	mov    $0x0,%eax
   141da:	48 98                	cltq   
   141dc:	48 be 74 88 5d 28 24 	movabs $0xe61fe24285d8874,%rsi
   141e3:	fe 61 0e 
   141e6:	48 89 c7             	mov    %rax,%rdi
   141e9:	e8 40 6e ff ff       	callq  b02e <safe_add_func_uint64_t_u_u>
   141ee:	48 83 f8 01          	cmp    $0x1,%rax
   141f2:	0f 96 c0             	setbe  %al
   141f5:	0f b6 d0             	movzbl %al,%edx
   141f8:	48 8b 85 08 f8 ff ff 	mov    -0x7f8(%rbp),%rax
   141ff:	0f b6 00             	movzbl (%rax),%eax
   14202:	89 c1                	mov    %eax,%ecx
   14204:	89 d0                	mov    %edx,%eax
   14206:	31 c8                	xor    %ecx,%eax
   14208:	89 c2                	mov    %eax,%edx
   1420a:	48 8b 85 08 f8 ff ff 	mov    -0x7f8(%rbp),%rax
   14211:	88 10                	mov    %dl,(%rax)
   14213:	48 8b 85 08 f8 ff ff 	mov    -0x7f8(%rbp),%rax
   1421a:	0f b6 00             	movzbl (%rax),%eax
   1421d:	0f b6 c0             	movzbl %al,%eax
   14220:	89 de                	mov    %ebx,%esi
   14222:	89 c7                	mov    %eax,%edi
   14224:	e8 31 69 ff ff       	callq  ab5a <safe_add_func_uint8_t_u_u>
   14229:	0f b6 05 30 7e 00 00 	movzbl 0x7e30(%rip),%eax        # 1c060 <g_228>
   14230:	0f b6 c0             	movzbl %al,%eax
   14233:	39 85 48 f7 ff ff    	cmp    %eax,-0x8b8(%rbp)
   14239:	b8 01 00 00 00       	mov    $0x1,%eax
   1423e:	31 85 54 f7 ff ff    	xor    %eax,-0x8ac(%rbp)
   14244:	48 8b 85 70 f7 ff ff 	mov    -0x890(%rbp),%rax
   1424b:	48 8d 95 dc f6 ff ff 	lea    -0x924(%rbp),%rdx
   14252:	48 89 10             	mov    %rdx,(%rax)
   14255:	48 8b 85 70 f7 ff ff 	mov    -0x890(%rbp),%rax
   1425c:	48 8b 10             	mov    (%rax),%rdx
   1425f:	48 8b 85 10 f8 ff ff 	mov    -0x7f0(%rbp),%rax
   14266:	48 89 10             	mov    %rdx,(%rax)
   14269:	0f b7 05 e0 7d 00 00 	movzwl 0x7de0(%rip),%eax        # 1c050 <g_218>
   14270:	c1 e0 04             	shl    $0x4,%eax
   14273:	66 c1 f8 04          	sar    $0x4,%ax
   14277:	0f bf d8             	movswl %ax,%ebx
   1427a:	48 8b 85 88 f7 ff ff 	mov    -0x878(%rbp),%rax
   14281:	8b 00                	mov    (%rax),%eax
   14283:	85 c0                	test   %eax,%eax
   14285:	74 51                	je     142d8 <func_49+0xe6f>
   14287:	0f b7 85 ec f6 ff ff 	movzwl -0x914(%rbp),%eax
   1428e:	89 85 20 f7 ff ff    	mov    %eax,-0x8e0(%rbp)
   14294:	83 bd 20 f7 ff ff 00 	cmpl   $0x0,-0x8e0(%rbp)
   1429b:	75 1b                	jne    142b8 <func_49+0xe4f>
   1429d:	8b 05 85 7d 00 00    	mov    0x7d85(%rip),%eax        # 1c028 <g_29>
   142a3:	41 89 c4             	mov    %eax,%r12d
   142a6:	0f b7 85 e0 f6 ff ff 	movzwl -0x920(%rbp),%eax
   142ad:	48 89 c7             	mov    %rax,%rdi
   142b0:	e8 64 6d ff ff       	callq  b019 <safe_unary_minus_func_uint64_t_u>
   142b5:	49 39 c4             	cmp    %rax,%r12
   142b8:	be a9 00 00 00       	mov    $0xa9,%esi
   142bd:	bf 01 00 00 00       	mov    $0x1,%edi
   142c2:	e8 cc 68 ff ff       	callq  ab93 <safe_mul_func_uint8_t_u_u>
   142c7:	66 83 bd ec f6 ff ff 	cmpw   $0x0,-0x914(%rbp)
   142ce:	00 
   142cf:	74 07                	je     142d8 <func_49+0xe6f>
   142d1:	b8 01 00 00 00       	mov    $0x1,%eax
   142d6:	eb 05                	jmp    142dd <func_49+0xe74>
   142d8:	b8 00 00 00 00       	mov    $0x0,%eax
   142dd:	89 c6                	mov    %eax,%esi
   142df:	bf 01 00 00 00       	mov    $0x1,%edi
   142e4:	e8 7a 62 ff ff       	callq  a563 <safe_rshift_func_int16_t_s_u>
   142e9:	44 0f bf e0          	movswl %ax,%r12d
   142ed:	0f b7 85 ec f6 ff ff 	movzwl -0x914(%rbp),%eax
   142f4:	0f b6 c0             	movzbl %al,%eax
   142f7:	be 01 00 00 00       	mov    $0x1,%esi
   142fc:	89 c7                	mov    %eax,%edi
   142fe:	e8 49 69 ff ff       	callq  ac4c <safe_lshift_func_uint8_t_u_u>
   14303:	0f b6 c0             	movzbl %al,%eax
   14306:	be 06 00 00 00       	mov    $0x6,%esi
   1430b:	89 c7                	mov    %eax,%edi
   1430d:	e8 ac 69 ff ff       	callq  acbe <safe_rshift_func_uint8_t_u_u>
   14312:	0f b6 c0             	movzbl %al,%eax
   14315:	44 89 e6             	mov    %r12d,%esi
   14318:	89 c7                	mov    %eax,%edi
   1431a:	e8 94 60 ff ff       	callq  a3b3 <safe_add_func_int16_t_s_s>
   1431f:	44 0f b6 25 14 7d 00 	movzbl 0x7d14(%rip),%r12d        # 1c03b <g_190>
   14326:	00 
   14327:	be 05 00 00 00       	mov    $0x5,%esi
   1432c:	bf 03 00 00 00       	mov    $0x3,%edi
   14331:	e8 88 6a ff ff       	callq  adbe <safe_lshift_func_uint16_t_u_s>
   14336:	0f b7 d0             	movzwl %ax,%edx
   14339:	48 8b 85 08 f8 ff ff 	mov    -0x7f8(%rbp),%rax
   14340:	0f b6 00             	movzbl (%rax),%eax
   14343:	44 89 e1             	mov    %r12d,%ecx
   14346:	31 c1                	xor    %eax,%ecx
   14348:	48 8b 85 08 f8 ff ff 	mov    -0x7f8(%rbp),%rax
   1434f:	88 08                	mov    %cl,(%rax)
   14351:	48 8b 85 08 f8 ff ff 	mov    -0x7f8(%rbp),%rax
   14358:	0f b6 00             	movzbl (%rax),%eax
   1435b:	0f b6 c0             	movzbl %al,%eax
   1435e:	09 d0                	or     %edx,%eax
   14360:	89 c2                	mov    %eax,%edx
   14362:	8b 85 dc f6 ff ff    	mov    -0x924(%rbp),%eax
   14368:	89 d6                	mov    %edx,%esi
   1436a:	89 c7                	mov    %eax,%edi
   1436c:	e8 b4 6b ff ff       	callq  af25 <safe_div_func_uint32_t_u_u>
   14371:	0f b6 c0             	movzbl %al,%eax
   14374:	89 de                	mov    %ebx,%esi
   14376:	89 c7                	mov    %eax,%edi
   14378:	e8 88 68 ff ff       	callq  ac05 <safe_lshift_func_uint8_t_u_s>
   1437d:	b8 01 00 00 00       	mov    $0x1,%eax
   14382:	21 85 44 f7 ff ff    	and    %eax,-0x8bc(%rbp)
   14388:	83 85 18 f7 ff ff 01 	addl   $0x1,-0x8e8(%rbp)
   1438f:	eb 1f                	jmp    143b0 <func_49+0xf47>
   14391:	c7 85 4c f7 ff ff 06 	movl   $0x6,-0x8b4(%rbp)
   14398:	00 00 00 
   1439b:	66 83 bd e0 f6 ff ff 	cmpw   $0x0,-0x920(%rbp)
   143a2:	00 
   143a3:	0f 85 7b 01 00 00    	jne    14524 <func_49+0x10bb>
   143a9:	83 85 4c f7 ff ff 01 	addl   $0x1,-0x8b4(%rbp)
   143b0:	48 c7 05 75 7c 00 00 	movq   $0xfffffffffffffff8,0x7c75(%rip)        # 1c030 <g_106>
   143b7:	f8 ff ff ff 
   143bb:	e9 30 01 00 00       	jmpq   144f0 <func_49+0x1087>
   143c0:	48 8d 05 f9 7e 00 00 	lea    0x7ef9(%rip),%rax        # 1c2c0 <g_278>
   143c7:	48 89 85 18 f8 ff ff 	mov    %rax,-0x7e8(%rbp)
   143ce:	83 bd 34 f7 ff ff 00 	cmpl   $0x0,-0x8cc(%rbp)
   143d5:	0f 85 28 01 00 00    	jne    14503 <func_49+0x109a>
   143db:	8b 9d 48 f7 ff ff    	mov    -0x8b8(%rbp),%ebx
   143e1:	48 8b 05 48 7c 00 00 	mov    0x7c48(%rip),%rax        # 1c030 <g_106>
   143e8:	48 85 c0             	test   %rax,%rax
   143eb:	75 27                	jne    14414 <func_49+0xfab>
   143ed:	8b 85 dc f6 ff ff    	mov    -0x924(%rbp),%eax
   143f3:	0f b6 c0             	movzbl %al,%eax
   143f6:	be 02 00 00 00       	mov    $0x2,%esi
   143fb:	89 c7                	mov    %eax,%edi
   143fd:	e8 8b 68 ff ff       	callq  ac8d <safe_rshift_func_uint8_t_u_s>
   14402:	be 02 00 00 00       	mov    $0x2,%esi
   14407:	bf 01 00 00 00       	mov    $0x1,%edi
   1440c:	e8 ee 68 ff ff       	callq  acff <safe_add_func_uint16_t_u_u>
   14411:	66 85 c0             	test   %ax,%ax
   14414:	48 8b 05 15 7c 00 00 	mov    0x7c15(%rip),%rax        # 1c030 <g_106>
   1441b:	48 85 c0             	test   %rax,%rax
   1441e:	74 07                	je     14427 <func_49+0xfbe>
   14420:	b8 01 00 00 00       	mov    $0x1,%eax
   14425:	eb 05                	jmp    1442c <func_49+0xfc3>
   14427:	b8 00 00 00 00       	mov    $0x0,%eax
   1442c:	0f b6 c0             	movzbl %al,%eax
   1442f:	be f9 00 00 00       	mov    $0xf9,%esi
   14434:	89 c7                	mov    %eax,%edi
   14436:	e8 73 67 ff ff       	callq  abae <safe_mod_func_uint8_t_u_u>
   1443b:	0f b6 05 f8 7b 00 00 	movzbl 0x7bf8(%rip),%eax        # 1c03a <g_167>
   14442:	48 0f be c0          	movsbq %al,%rax
   14446:	48 83 c8 f7          	or     $0xfffffffffffffff7,%rax
   1444a:	48 89 c2             	mov    %rax,%rdx
   1444d:	48 0f be 85 e8 f6 ff 	movsbq -0x918(%rbp),%rax
   14454:	ff 
   14455:	48 39 c2             	cmp    %rax,%rdx
   14458:	0f 94 c0             	sete   %al
   1445b:	0f b6 c0             	movzbl %al,%eax
   1445e:	89 de                	mov    %ebx,%esi
   14460:	89 c7                	mov    %eax,%edi
   14462:	e8 2b 60 ff ff       	callq  a492 <safe_lshift_func_int16_t_s_s>
   14467:	0f bf d0             	movswl %ax,%edx
   1446a:	48 8b 85 88 f7 ff ff 	mov    -0x878(%rbp),%rax
   14471:	89 10                	mov    %edx,(%rax)
   14473:	48 8b 85 18 f8 ff ff 	mov    -0x7e8(%rbp),%rax
   1447a:	0f b7 00             	movzwl (%rax),%eax
   1447d:	8d 50 01             	lea    0x1(%rax),%edx
   14480:	48 8b 85 18 f8 ff ff 	mov    -0x7e8(%rbp),%rax
   14487:	66 89 10             	mov    %dx,(%rax)
   1448a:	48 8b 85 18 f8 ff ff 	mov    -0x7e8(%rbp),%rax
   14491:	0f b7 00             	movzwl (%rax),%eax
   14494:	0f b7 c0             	movzwl %ax,%eax
   14497:	be 03 00 00 00       	mov    $0x3,%esi
   1449c:	89 c7                	mov    %eax,%edi
   1449e:	e8 63 69 ff ff       	callq  ae06 <safe_lshift_func_uint16_t_u_u>
   144a3:	0f b7 c0             	movzwl %ax,%eax
   144a6:	be 00 00 00 00       	mov    $0x0,%esi
   144ab:	48 89 c7             	mov    %rax,%rdi
   144ae:	e8 7b 6b ff ff       	callq  b02e <safe_add_func_uint64_t_u_u>
   144b3:	89 c1                	mov    %eax,%ecx
   144b5:	48 8b 85 d8 f7 ff ff 	mov    -0x828(%rbp),%rax
   144bc:	48 8b 00             	mov    (%rax),%rax
   144bf:	0f b7 10             	movzwl (%rax),%edx
   144c2:	48 8b 85 d8 f7 ff ff 	mov    -0x828(%rbp),%rax
   144c9:	48 8b 00             	mov    (%rax),%rax
   144cc:	83 e2 fc             	and    $0xfffffffc,%edx
   144cf:	66 89 10             	mov    %dx,(%rax)
   144d2:	0f b7 00             	movzwl (%rax),%eax
   144d5:	98                   	cwtl   
   144d6:	21 c8                	and    %ecx,%eax
   144d8:	89 85 e4 f6 ff ff    	mov    %eax,-0x91c(%rbp)
   144de:	48 8b 05 4b 7b 00 00 	mov    0x7b4b(%rip),%rax        # 1c030 <g_106>
   144e5:	48 83 c0 01          	add    $0x1,%rax
   144e9:	48 89 05 40 7b 00 00 	mov    %rax,0x7b40(%rip)        # 1c030 <g_106>
   144f0:	48 8b 05 39 7b 00 00 	mov    0x7b39(%rip),%rax        # 1c030 <g_106>
   144f7:	48 83 f8 fe          	cmp    $0xfffffffffffffffe,%rax
   144fb:	0f 8c bf fe ff ff    	jl     143c0 <func_49+0xf57>
   14501:	eb 01                	jmp    14504 <func_49+0x109b>
   14503:	90                   	nop
   14504:	8b 85 dc f6 ff ff    	mov    -0x924(%rbp),%eax
   1450a:	83 c0 01             	add    $0x1,%eax
   1450d:	89 85 dc f6 ff ff    	mov    %eax,-0x924(%rbp)
   14513:	8b 85 dc f6 ff ff    	mov    -0x924(%rbp),%eax
   14519:	83 f8 03             	cmp    $0x3,%eax
   1451c:	0f 8e e9 f5 ff ff    	jle    13b0b <func_49+0x6a2>
   14522:	eb 01                	jmp    14525 <func_49+0x10bc>
   14524:	90                   	nop
   14525:	48 8b 85 68 f7 ff ff 	mov    -0x898(%rbp),%rax
   1452c:	48 85 c0             	test   %rax,%rax
   1452f:	0f 85 95 f1 ff ff    	jne    136ca <func_49+0x261>
   14535:	0f b7 85 06 f7 ff ff 	movzwl -0x8fa(%rbp),%eax
   1453c:	83 c0 01             	add    $0x1,%eax
   1453f:	66 89 85 06 f7 ff ff 	mov    %ax,-0x8fa(%rbp)
   14546:	0f b7 05 df 7a 00 00 	movzwl 0x7adf(%rip),%eax        # 1c02c <g_104>
   1454d:	83 c0 01             	add    $0x1,%eax
   14550:	66 89 05 d5 7a 00 00 	mov    %ax,0x7ad5(%rip)        # 1c02c <g_104>
   14557:	0f b7 05 ce 7a 00 00 	movzwl 0x7ace(%rip),%eax        # 1c02c <g_104>
   1455e:	66 83 f8 36          	cmp    $0x36,%ax
   14562:	0f 86 4f f5 ff ff    	jbe    13ab7 <func_49+0x64e>
   14568:	eb 01                	jmp    1456b <func_49+0x1102>
   1456a:	90                   	nop
   1456b:	8b 05 b7 7a 00 00    	mov    0x7ab7(%rip),%eax        # 1c028 <g_29>
   14571:	83 c0 01             	add    $0x1,%eax
   14574:	89 05 ae 7a 00 00    	mov    %eax,0x7aae(%rip)        # 1c028 <g_29>
   1457a:	8b 05 a8 7a 00 00    	mov    0x7aa8(%rip),%eax        # 1c028 <g_29>
   14580:	83 f8 0c             	cmp    $0xc,%eax
   14583:	0f 86 28 f3 ff ff    	jbe    138b1 <func_49+0x448>
   14589:	0f b6 85 ff f6 ff ff 	movzbl -0x901(%rbp),%eax
   14590:	83 c0 01             	add    $0x1,%eax
   14593:	88 85 ff f6 ff ff    	mov    %al,-0x901(%rbp)
   14599:	48 8b 85 88 f7 ff ff 	mov    -0x878(%rbp),%rax
   145a0:	8b 00                	mov    (%rax),%eax
   145a2:	0f b7 d0             	movzwl %ax,%edx
   145a5:	48 83 bd 90 f7 ff ff 	cmpq   $0x0,-0x870(%rbp)
   145ac:	00 
   145ad:	0f 94 c0             	sete   %al
   145b0:	0f b6 c0             	movzbl %al,%eax
   145b3:	89 d6                	mov    %edx,%esi
   145b5:	89 c7                	mov    %eax,%edi
   145b7:	e8 a0 67 ff ff       	callq  ad5c <safe_mod_func_uint16_t_u_u>
   145bc:	66 0f be 85 e8 f6 ff 	movsbw -0x918(%rbp),%ax
   145c3:	ff 
   145c4:	0f b7 d8             	movzwl %ax,%ebx
   145c7:	44 0f b7 a5 e0 f6 ff 	movzwl -0x920(%rbp),%r12d
   145ce:	ff 
   145cf:	be 01 00 00 00       	mov    $0x1,%esi
   145d4:	bf 3f 00 00 00       	mov    $0x3f,%edi
   145d9:	e8 27 66 ff ff       	callq  ac05 <safe_lshift_func_uint8_t_u_s>
   145de:	48 83 bd b0 f7 ff ff 	cmpq   $0x0,-0x850(%rbp)
   145e5:	00 
   145e6:	0f 94 c0             	sete   %al
   145e9:	0f b6 c0             	movzbl %al,%eax
   145ec:	48 be 8e b5 4e af c8 	movabs $0xc391c3c8af4eb58e,%rsi
   145f3:	c3 91 c3 
   145f6:	48 89 c7             	mov    %rax,%rdi
   145f9:	e8 4d 6a ff ff       	callq  b04b <safe_sub_func_uint64_t_u_u>
   145fe:	8b 05 20 7a 00 00    	mov    0x7a20(%rip),%eax        # 1c024 <g_9>
   14604:	0f be c0             	movsbl %al,%eax
   14607:	44 89 e6             	mov    %r12d,%esi
   1460a:	89 c7                	mov    %eax,%edi
   1460c:	e8 5b 5d ff ff       	callq  a36c <safe_rshift_func_int8_t_s_u>
   14611:	89 c2                	mov    %eax,%edx
   14613:	48 8b 85 b0 f7 ff ff 	mov    -0x850(%rbp),%rax
   1461a:	88 10                	mov    %dl,(%rax)
   1461c:	48 8b 85 b0 f7 ff ff 	mov    -0x850(%rbp),%rax
   14623:	0f b6 08             	movzbl (%rax),%ecx
   14626:	48 8b 85 88 f7 ff ff 	mov    -0x878(%rbp),%rax
   1462d:	8b 10                	mov    (%rax),%edx
   1462f:	0f b6 c1             	movzbl %cl,%eax
   14632:	09 c2                	or     %eax,%edx
   14634:	48 8b 85 88 f7 ff ff 	mov    -0x878(%rbp),%rax
   1463b:	89 10                	mov    %edx,(%rax)
   1463d:	48 8b 85 88 f7 ff ff 	mov    -0x878(%rbp),%rax
   14644:	8b 10                	mov    (%rax),%edx
   14646:	8b 85 dc f6 ff ff    	mov    -0x924(%rbp),%eax
   1464c:	39 c2                	cmp    %eax,%edx
   1464e:	0f 9c c0             	setl   %al
   14651:	0f b6 d0             	movzbl %al,%edx
   14654:	8b 85 e4 f6 ff ff    	mov    -0x91c(%rbp),%eax
   1465a:	31 c2                	xor    %eax,%edx
   1465c:	0f b7 85 e0 f6 ff ff 	movzwl -0x920(%rbp),%eax
   14663:	89 d6                	mov    %edx,%esi
   14665:	31 c6                	xor    %eax,%esi
   14667:	48 8b 15 9a ae 00 00 	mov    0xae9a(%rip),%rdx        # 1f508 <g_303>
   1466e:	48 8b 85 a8 f7 ff ff 	mov    -0x858(%rbp),%rax
   14675:	48 89 10             	mov    %rdx,(%rax)
   14678:	48 8b 85 a8 f7 ff ff 	mov    -0x858(%rbp),%rax
   1467f:	48 8b 10             	mov    (%rax),%rdx
   14682:	48 8b 85 90 f8 ff ff 	mov    -0x770(%rbp),%rax
   14689:	48 89 05 b0 b0 00 00 	mov    %rax,0xb0b0(%rip)        # 1f740 <g_305+0x220>
   14690:	48 8b 05 a9 b0 00 00 	mov    0xb0a9(%rip),%rax        # 1f740 <g_305+0x220>
   14697:	48 39 c2             	cmp    %rax,%rdx
   1469a:	0f 95 c1             	setne  %cl
   1469d:	48 8b 85 c8 f7 ff ff 	mov    -0x838(%rbp),%rax
   146a4:	0f b6 00             	movzbl (%rax),%eax
   146a7:	89 f2                	mov    %esi,%edx
   146a9:	31 c2                	xor    %eax,%edx
   146ab:	48 8b 85 c8 f7 ff ff 	mov    -0x838(%rbp),%rax
   146b2:	88 10                	mov    %dl,(%rax)
   146b4:	48 8b 85 c8 f7 ff ff 	mov    -0x838(%rbp),%rax
   146bb:	0f b6 00             	movzbl (%rax),%eax
   146be:	0f be c0             	movsbl %al,%eax
   146c1:	3d fe 00 00 00       	cmp    $0xfe,%eax
   146c6:	0f 97 c0             	seta   %al
   146c9:	0f b6 c0             	movzbl %al,%eax
   146cc:	48 39 85 80 f7 ff ff 	cmp    %rax,-0x880(%rbp)
   146d3:	0f 9f c0             	setg   %al
   146d6:	09 c8                	or     %ecx,%eax
   146d8:	0f b6 d0             	movzbl %al,%edx
   146db:	48 8b 05 96 79 00 00 	mov    0x7996(%rip),%rax        # 1c078 <g_274+0x8>
   146e2:	c1 e0 05             	shl    $0x5,%eax
   146e5:	c0 f8 05             	sar    $0x5,%al
   146e8:	66 98                	cbtw   
   146ea:	31 d0                	xor    %edx,%eax
   146ec:	0f b7 c0             	movzwl %ax,%eax
   146ef:	89 de                	mov    %ebx,%esi
   146f1:	89 c7                	mov    %eax,%edi
   146f3:	e8 27 66 ff ff       	callq  ad1f <safe_sub_func_uint16_t_u_u>
   146f8:	48 8b 05 79 79 00 00 	mov    0x7979(%rip),%rax        # 1c078 <g_274+0x8>
   146ff:	c1 e0 02             	shl    $0x2,%eax
   14702:	c1 f8 05             	sar    $0x5,%eax
   14705:	25 d9 1f 00 00       	and    $0x1fd9,%eax
   1470a:	89 c2                	mov    %eax,%edx
   1470c:	0f b6 05 4d 79 00 00 	movzbl 0x794d(%rip),%eax        # 1c060 <g_228>
   14713:	0f b6 c0             	movzbl %al,%eax
   14716:	09 d0                	or     %edx,%eax
   14718:	89 85 e4 f6 ff ff    	mov    %eax,-0x91c(%rbp)
   1471e:	0f b6 05 15 79 00 00 	movzbl 0x7915(%rip),%eax        # 1c03a <g_167>
   14725:	0f be c0             	movsbl %al,%eax
   14728:	48 8b 5d c8          	mov    -0x38(%rbp),%rbx
   1472c:	64 48 33 1c 25 28 00 	xor    %fs:0x28,%rbx
   14733:	00 00 
   14735:	74 05                	je     1473c <func_49+0x12d3>
   14737:	e8 34 59 ff ff       	callq  a070 <__stack_chk_fail@plt>
   1473c:	48 81 c4 08 09 00 00 	add    $0x908,%rsp
   14743:	5b                   	pop    %rbx
   14744:	41 5c                	pop    %r12
   14746:	41 5d                	pop    %r13
   14748:	41 5e                	pop    %r14
   1474a:	41 5f                	pop    %r15
   1474c:	5d                   	pop    %rbp
   1474d:	c3                   	retq   

000000000001474e <func_66>:
   1474e:	f3 0f 1e fa          	endbr64 
   14752:	55                   	push   %rbp
   14753:	48 89 e5             	mov    %rsp,%rbp
   14756:	41 57                	push   %r15
   14758:	41 56                	push   %r14
   1475a:	41 55                	push   %r13
   1475c:	41 54                	push   %r12
   1475e:	53                   	push   %rbx
   1475f:	48 81 ec 68 05 00 00 	sub    $0x568,%rsp
   14766:	48 89 bd 88 fa ff ff 	mov    %rdi,-0x578(%rbp)
   1476d:	48 89 b5 80 fa ff ff 	mov    %rsi,-0x580(%rbp)
   14774:	89 95 7c fa ff ff    	mov    %edx,-0x584(%rbp)
   1477a:	64 48 8b 04 25 28 00 	mov    %fs:0x28,%rax
   14781:	00 00 
   14783:	48 89 45 c8          	mov    %rax,-0x38(%rbp)
   14787:	31 c0                	xor    %eax,%eax
   14789:	48 8d 05 98 78 00 00 	lea    0x7898(%rip),%rax        # 1c028 <g_29>
   14790:	48 89 85 b0 fa ff ff 	mov    %rax,-0x550(%rbp)
   14797:	c7 85 a0 fa ff ff fb 	movl   $0xfffffffb,-0x560(%rbp)
   1479e:	ff ff ff 
   147a1:	48 8d 85 20 fc ff ff 	lea    -0x3e0(%rbp),%rax
   147a8:	48 8d 15 f1 ab 00 00 	lea    0xabf1(%rip),%rdx        # 1f3a0 <g_3956+0x2b18>
   147af:	b9 24 00 00 00       	mov    $0x24,%ecx
   147b4:	48 89 c7             	mov    %rax,%rdi
   147b7:	48 89 d6             	mov    %rdx,%rsi
   147ba:	f3 48 a5             	rep movsq %ds:(%rsi),%es:(%rdi)
   147bd:	48 c7 85 b8 fa ff ff 	movq   $0xfffffffffffffff6,-0x548(%rbp)
   147c4:	f6 ff ff ff 
   147c8:	48 8b 05 f9 ac 00 00 	mov    0xacf9(%rip),%rax        # 1f4c8 <g_72>
   147cf:	48 8d 15 4e 78 00 00 	lea    0x784e(%rip),%rdx        # 1c024 <g_9>
   147d6:	48 89 10             	mov    %rdx,(%rax)
   147d9:	48 8b 05 e8 ac 00 00 	mov    0xace8(%rip),%rax        # 1f4c8 <g_72>
   147e0:	48 8b 00             	mov    (%rax),%rax
   147e3:	48 85 c0             	test   %rax,%rax
   147e6:	0f 84 11 05 00 00    	je     14cfd <func_66+0x5af>
   147ec:	c7 85 a4 fa ff ff 03 	movl   $0x3,-0x55c(%rbp)
   147f3:	00 00 00 
   147f6:	48 8d 05 2b 78 00 00 	lea    0x782b(%rip),%rax        # 1c028 <g_29>
   147fd:	48 89 85 d0 fa ff ff 	mov    %rax,-0x530(%rbp)
   14804:	48 c7 85 d8 fa ff ff 	movq   $0x0,-0x528(%rbp)
   1480b:	00 00 00 00 
   1480f:	48 8d 05 12 78 00 00 	lea    0x7812(%rip),%rax        # 1c028 <g_29>
   14816:	48 89 85 e0 fa ff ff 	mov    %rax,-0x520(%rbp)
   1481d:	48 c7 85 e8 fa ff ff 	movq   $0x0,-0x518(%rbp)
   14824:	00 00 00 00 
   14828:	48 8d 05 f9 77 00 00 	lea    0x77f9(%rip),%rax        # 1c028 <g_29>
   1482f:	48 89 85 f0 fa ff ff 	mov    %rax,-0x510(%rbp)
   14836:	48 c7 85 f8 fa ff ff 	movq   $0x0,-0x508(%rbp)
   1483d:	00 00 00 00 
   14841:	48 8d 05 e0 77 00 00 	lea    0x77e0(%rip),%rax        # 1c028 <g_29>
   14848:	48 89 85 00 fb ff ff 	mov    %rax,-0x500(%rbp)
   1484f:	48 c7 85 08 fb ff ff 	movq   $0x0,-0x4f8(%rbp)
   14856:	00 00 00 00 
   1485a:	48 8d 05 c7 77 00 00 	lea    0x77c7(%rip),%rax        # 1c028 <g_29>
   14861:	48 89 85 10 fb ff ff 	mov    %rax,-0x4f0(%rbp)
   14868:	48 c7 85 18 fb ff ff 	movq   $0x0,-0x4e8(%rbp)
   1486f:	00 00 00 00 
   14873:	c6 85 9f fa ff ff 9d 	movb   $0x9d,-0x561(%rbp)
   1487a:	48 8d 05 6f c4 00 00 	lea    0xc46f(%rip),%rax        # 20cf0 <g_73>
   14881:	48 89 85 c0 fa ff ff 	mov    %rax,-0x540(%rbp)
   14888:	48 8d 05 9d 77 00 00 	lea    0x779d(%rip),%rax        # 1c02c <g_104>
   1488f:	48 89 85 20 fb ff ff 	mov    %rax,-0x4e0(%rbp)
   14896:	48 8d 05 8f 77 00 00 	lea    0x778f(%rip),%rax        # 1c02c <g_104>
   1489d:	48 89 85 28 fb ff ff 	mov    %rax,-0x4d8(%rbp)
   148a4:	48 8d 05 81 77 00 00 	lea    0x7781(%rip),%rax        # 1c02c <g_104>
   148ab:	48 89 85 30 fb ff ff 	mov    %rax,-0x4d0(%rbp)
   148b2:	48 8d 05 73 77 00 00 	lea    0x7773(%rip),%rax        # 1c02c <g_104>
   148b9:	48 89 85 38 fb ff ff 	mov    %rax,-0x4c8(%rbp)
   148c0:	48 8d 05 65 77 00 00 	lea    0x7765(%rip),%rax        # 1c02c <g_104>
   148c7:	48 89 85 40 fb ff ff 	mov    %rax,-0x4c0(%rbp)
   148ce:	48 8d 05 57 77 00 00 	lea    0x7757(%rip),%rax        # 1c02c <g_104>
   148d5:	48 89 85 48 fb ff ff 	mov    %rax,-0x4b8(%rbp)
   148dc:	48 8d 05 49 77 00 00 	lea    0x7749(%rip),%rax        # 1c02c <g_104>
   148e3:	48 89 85 50 fb ff ff 	mov    %rax,-0x4b0(%rbp)
   148ea:	48 8d 05 3b 77 00 00 	lea    0x773b(%rip),%rax        # 1c02c <g_104>
   148f1:	48 89 85 58 fb ff ff 	mov    %rax,-0x4a8(%rbp)
   148f8:	48 8d 05 2d 77 00 00 	lea    0x772d(%rip),%rax        # 1c02c <g_104>
   148ff:	48 89 85 60 fb ff ff 	mov    %rax,-0x4a0(%rbp)
   14906:	48 8d 05 1f 77 00 00 	lea    0x771f(%rip),%rax        # 1c02c <g_104>
   1490d:	48 89 85 68 fb ff ff 	mov    %rax,-0x498(%rbp)
   14914:	48 8d 05 11 77 00 00 	lea    0x7711(%rip),%rax        # 1c02c <g_104>
   1491b:	48 89 85 70 fb ff ff 	mov    %rax,-0x490(%rbp)
   14922:	48 8d 05 03 77 00 00 	lea    0x7703(%rip),%rax        # 1c02c <g_104>
   14929:	48 89 85 78 fb ff ff 	mov    %rax,-0x488(%rbp)
   14930:	48 8d 05 f5 76 00 00 	lea    0x76f5(%rip),%rax        # 1c02c <g_104>
   14937:	48 89 85 80 fb ff ff 	mov    %rax,-0x480(%rbp)
   1493e:	48 8d 05 e7 76 00 00 	lea    0x76e7(%rip),%rax        # 1c02c <g_104>
   14945:	48 89 85 88 fb ff ff 	mov    %rax,-0x478(%rbp)
   1494c:	48 8d 05 d9 76 00 00 	lea    0x76d9(%rip),%rax        # 1c02c <g_104>
   14953:	48 89 85 90 fb ff ff 	mov    %rax,-0x470(%rbp)
   1495a:	48 8d 05 cb 76 00 00 	lea    0x76cb(%rip),%rax        # 1c02c <g_104>
   14961:	48 89 85 98 fb ff ff 	mov    %rax,-0x468(%rbp)
   14968:	48 8d 05 bd 76 00 00 	lea    0x76bd(%rip),%rax        # 1c02c <g_104>
   1496f:	48 89 85 a0 fb ff ff 	mov    %rax,-0x460(%rbp)
   14976:	48 8d 05 af 76 00 00 	lea    0x76af(%rip),%rax        # 1c02c <g_104>
   1497d:	48 89 85 a8 fb ff ff 	mov    %rax,-0x458(%rbp)
   14984:	48 8d 05 a1 76 00 00 	lea    0x76a1(%rip),%rax        # 1c02c <g_104>
   1498b:	48 89 85 b0 fb ff ff 	mov    %rax,-0x450(%rbp)
   14992:	48 8d 05 93 76 00 00 	lea    0x7693(%rip),%rax        # 1c02c <g_104>
   14999:	48 89 85 b8 fb ff ff 	mov    %rax,-0x448(%rbp)
   149a0:	48 8d 05 85 76 00 00 	lea    0x7685(%rip),%rax        # 1c02c <g_104>
   149a7:	48 89 85 c0 fb ff ff 	mov    %rax,-0x440(%rbp)
   149ae:	48 8d 05 77 76 00 00 	lea    0x7677(%rip),%rax        # 1c02c <g_104>
   149b5:	48 89 85 c8 fb ff ff 	mov    %rax,-0x438(%rbp)
   149bc:	48 8d 05 69 76 00 00 	lea    0x7669(%rip),%rax        # 1c02c <g_104>
   149c3:	48 89 85 d0 fb ff ff 	mov    %rax,-0x430(%rbp)
   149ca:	48 8d 05 5b 76 00 00 	lea    0x765b(%rip),%rax        # 1c02c <g_104>
   149d1:	48 89 85 d8 fb ff ff 	mov    %rax,-0x428(%rbp)
   149d8:	48 8d 05 4d 76 00 00 	lea    0x764d(%rip),%rax        # 1c02c <g_104>
   149df:	48 89 85 e0 fb ff ff 	mov    %rax,-0x420(%rbp)
   149e6:	48 8d 05 3f 76 00 00 	lea    0x763f(%rip),%rax        # 1c02c <g_104>
   149ed:	48 89 85 e8 fb ff ff 	mov    %rax,-0x418(%rbp)
   149f4:	48 8d 05 31 76 00 00 	lea    0x7631(%rip),%rax        # 1c02c <g_104>
   149fb:	48 89 85 f0 fb ff ff 	mov    %rax,-0x410(%rbp)
   14a02:	48 8d 05 23 76 00 00 	lea    0x7623(%rip),%rax        # 1c02c <g_104>
   14a09:	48 89 85 f8 fb ff ff 	mov    %rax,-0x408(%rbp)
   14a10:	48 8d 05 15 76 00 00 	lea    0x7615(%rip),%rax        # 1c02c <g_104>
   14a17:	48 89 85 00 fc ff ff 	mov    %rax,-0x400(%rbp)
   14a1e:	48 8d 05 07 76 00 00 	lea    0x7607(%rip),%rax        # 1c02c <g_104>
   14a25:	48 89 85 08 fc ff ff 	mov    %rax,-0x3f8(%rbp)
   14a2c:	48 8d 05 f9 75 00 00 	lea    0x75f9(%rip),%rax        # 1c02c <g_104>
   14a33:	48 89 85 10 fc ff ff 	mov    %rax,-0x3f0(%rbp)
   14a3a:	48 8d 05 eb 75 00 00 	lea    0x75eb(%rip),%rax        # 1c02c <g_104>
   14a41:	48 89 85 18 fc ff ff 	mov    %rax,-0x3e8(%rbp)
   14a48:	48 8d 05 e1 75 00 00 	lea    0x75e1(%rip),%rax        # 1c030 <g_106>
   14a4f:	48 89 85 c8 fa ff ff 	mov    %rax,-0x538(%rbp)
   14a56:	c7 85 a8 fa ff ff 18 	movl   $0x5bef7218,-0x558(%rbp)
   14a5d:	72 ef 5b 
   14a60:	c7 85 ac fa ff ff 75 	movl   $0xacefa75,-0x554(%rbp)
   14a67:	fa ce 0a 
   14a6a:	8b 05 b4 75 00 00    	mov    0x75b4(%rip),%eax        # 1c024 <g_9>
   14a70:	41 89 c7             	mov    %eax,%r15d
   14a73:	8b 9d 7c fa ff ff    	mov    -0x584(%rbp),%ebx
   14a79:	8b 85 a0 fa ff ff    	mov    -0x560(%rbp),%eax
   14a7f:	98                   	cwtl   
   14a80:	89 c6                	mov    %eax,%esi
   14a82:	bf 9d a4 ff ff       	mov    $0xffffa49d,%edi
   14a87:	e8 27 59 ff ff       	callq  a3b3 <safe_add_func_int16_t_s_s>
   14a8c:	4c 0f bf f0          	movswq %ax,%r14
   14a90:	8b 05 8e 75 00 00    	mov    0x758e(%rip),%eax        # 1c024 <g_9>
   14a96:	4c 63 e0             	movslq %eax,%r12
   14a99:	8b 05 85 75 00 00    	mov    0x7585(%rip),%eax        # 1c024 <g_9>
   14a9f:	44 0f b7 e8          	movzwl %ax,%r13d
   14aa3:	8b 85 7c fa ff ff    	mov    -0x584(%rbp),%eax
   14aa9:	0f b7 d0             	movzwl %ax,%edx
   14aac:	48 8b 85 98 fc ff ff 	mov    -0x368(%rbp),%rax
   14ab3:	48 39 85 c0 fa ff ff 	cmp    %rax,-0x540(%rbp)
   14aba:	0f 95 c0             	setne  %al
   14abd:	0f b6 c0             	movzbl %al,%eax
   14ac0:	89 d6                	mov    %edx,%esi
   14ac2:	89 c7                	mov    %eax,%edi
   14ac4:	e8 93 62 ff ff       	callq  ad5c <safe_mod_func_uint16_t_u_u>
   14ac9:	66 85 c0             	test   %ax,%ax
   14acc:	75 0d                	jne    14adb <func_66+0x38d>
   14ace:	48 8b 05 eb a9 00 00 	mov    0xa9eb(%rip),%rax        # 1f4c0 <g_8>
   14ad5:	8b 00                	mov    (%rax),%eax
   14ad7:	85 c0                	test   %eax,%eax
   14ad9:	74 07                	je     14ae2 <func_66+0x394>
   14adb:	b8 01 00 00 00       	mov    $0x1,%eax
   14ae0:	eb 05                	jmp    14ae7 <func_66+0x399>
   14ae2:	b8 00 00 00 00       	mov    $0x0,%eax
   14ae7:	89 c2                	mov    %eax,%edx
   14ae9:	8b 05 39 75 00 00    	mov    0x7539(%rip),%eax        # 1c028 <g_29>
   14aef:	39 c2                	cmp    %eax,%edx
   14af1:	0f 95 c0             	setne  %al
   14af4:	0f b6 d0             	movzbl %al,%edx
   14af7:	8b 05 27 75 00 00    	mov    0x7527(%rip),%eax        # 1c024 <g_9>
   14afd:	39 c2                	cmp    %eax,%edx
   14aff:	0f 9f c0             	setg   %al
   14b02:	0f b6 c0             	movzbl %al,%eax
   14b05:	66 89 05 20 75 00 00 	mov    %ax,0x7520(%rip)        # 1c02c <g_104>
   14b0c:	0f b7 05 19 75 00 00 	movzwl 0x7519(%rip),%eax        # 1c02c <g_104>
   14b13:	0f b7 c0             	movzwl %ax,%eax
   14b16:	39 85 7c fa ff ff    	cmp    %eax,-0x584(%rbp)
   14b1c:	0f 96 c0             	setbe  %al
   14b1f:	0f b6 c0             	movzbl %al,%eax
   14b22:	44 89 ee             	mov    %r13d,%esi
   14b25:	89 c7                	mov    %eax,%edi
   14b27:	e8 d3 61 ff ff       	callq  acff <safe_add_func_uint16_t_u_u>
   14b2c:	0f b7 d0             	movzwl %ax,%edx
   14b2f:	8b 05 ef 74 00 00    	mov    0x74ef(%rip),%eax        # 1c024 <g_9>
   14b35:	39 c2                	cmp    %eax,%edx
   14b37:	0f 95 c0             	setne  %al
   14b3a:	0f b6 d0             	movzbl %al,%edx
   14b3d:	8b 05 e1 74 00 00    	mov    0x74e1(%rip),%eax        # 1c024 <g_9>
   14b43:	31 d0                	xor    %edx,%eax
   14b45:	39 85 a4 fa ff ff    	cmp    %eax,-0x55c(%rbp)
   14b4b:	0f 94 c0             	sete   %al
   14b4e:	0f b6 c0             	movzbl %al,%eax
   14b51:	be 01 00 00 00       	mov    $0x1,%esi
   14b56:	89 c7                	mov    %eax,%edi
   14b58:	e8 61 61 ff ff       	callq  acbe <safe_rshift_func_uint8_t_u_u>
   14b5d:	0f b6 c0             	movzbl %al,%eax
   14b60:	4c 89 e6             	mov    %r12,%rsi
   14b63:	48 89 c7             	mov    %rax,%rdi
   14b66:	e8 d6 5c ff ff       	callq  a841 <safe_add_func_int64_t_s_s>
   14b6b:	49 39 c6             	cmp    %rax,%r14
   14b6e:	0f 9e c0             	setle  %al
   14b71:	0f b6 d0             	movzbl %al,%edx
   14b74:	0f b6 85 9f fa ff ff 	movzbl -0x561(%rbp),%eax
   14b7b:	89 d6                	mov    %edx,%esi
   14b7d:	89 c7                	mov    %eax,%edi
   14b7f:	e8 81 5a ff ff       	callq  a605 <safe_sub_func_int32_t_s_s>
   14b84:	48 63 d0             	movslq %eax,%rdx
   14b87:	48 8b 85 c8 fa ff ff 	mov    -0x538(%rbp),%rax
   14b8e:	48 89 10             	mov    %rdx,(%rax)
   14b91:	48 8b 85 c8 fa ff ff 	mov    -0x538(%rbp),%rax
   14b98:	48 8b 00             	mov    (%rax),%rax
   14b9b:	48 89 de             	mov    %rbx,%rsi
   14b9e:	48 89 c7             	mov    %rax,%rdi
   14ba1:	e8 02 5d ff ff       	callq  a8a8 <safe_sub_func_int64_t_s_s>
   14ba6:	48 83 bd 80 fa ff ff 	cmpq   $0x0,-0x580(%rbp)
   14bad:	00 
   14bae:	0f 95 c0             	setne  %al
   14bb1:	0f b6 c0             	movzbl %al,%eax
   14bb4:	be ff ff ff ff       	mov    $0xffffffff,%esi
   14bb9:	89 c7                	mov    %eax,%edi
   14bbb:	e8 14 56 ff ff       	callq  a1d4 <safe_add_func_int8_t_s_s>
   14bc0:	0f b6 c0             	movzbl %al,%eax
   14bc3:	be 11 00 00 00       	mov    $0x11,%esi
   14bc8:	89 c7                	mov    %eax,%edi
   14bca:	e8 8b 5f ff ff       	callq  ab5a <safe_add_func_uint8_t_u_u>
   14bcf:	0f b6 c0             	movzbl %al,%eax
   14bd2:	39 85 7c fa ff ff    	cmp    %eax,-0x584(%rbp)
   14bd8:	0f 96 c0             	setbe  %al
   14bdb:	0f b6 d0             	movzbl %al,%edx
   14bde:	48 8b 85 80 fa ff ff 	mov    -0x580(%rbp),%rax
   14be5:	8b 00                	mov    (%rax),%eax
   14be7:	39 c2                	cmp    %eax,%edx
   14be9:	7d 13                	jge    14bfe <func_66+0x4b0>
   14beb:	0f b7 05 3a 74 00 00 	movzwl 0x743a(%rip),%eax        # 1c02c <g_104>
   14bf2:	66 85 c0             	test   %ax,%ax
   14bf5:	74 07                	je     14bfe <func_66+0x4b0>
   14bf7:	b8 01 00 00 00       	mov    $0x1,%eax
   14bfc:	eb 05                	jmp    14c03 <func_66+0x4b5>
   14bfe:	b8 00 00 00 00       	mov    $0x0,%eax
   14c03:	44 89 fe             	mov    %r15d,%esi
   14c06:	89 c7                	mov    %eax,%edi
   14c08:	e8 ab 62 ff ff       	callq  aeb8 <safe_add_func_uint32_t_u_u>
   14c0d:	0f be c0             	movsbl %al,%eax
   14c10:	be 07 00 00 00       	mov    $0x7,%esi
   14c15:	89 c7                	mov    %eax,%edi
   14c17:	e8 f6 55 ff ff       	callq  a212 <safe_mul_func_int8_t_s_s>
   14c1c:	0f be c0             	movsbl %al,%eax
   14c1f:	89 85 a4 fa ff ff    	mov    %eax,-0x55c(%rbp)
   14c25:	8b 05 fd 73 00 00    	mov    0x73fd(%rip),%eax        # 1c028 <g_29>
   14c2b:	41 89 c4             	mov    %eax,%r12d
   14c2e:	8b 05 f4 73 00 00    	mov    0x73f4(%rip),%eax        # 1c028 <g_29>
   14c34:	0f b7 d8             	movzwl %ax,%ebx
   14c37:	48 8b 05 f2 73 00 00 	mov    0x73f2(%rip),%rax        # 1c030 <g_106>
   14c3e:	48 85 c0             	test   %rax,%rax
   14c41:	74 24                	je     14c67 <func_66+0x519>
   14c43:	8b 85 a8 fa ff ff    	mov    -0x558(%rbp),%eax
   14c49:	0f b6 d0             	movzbl %al,%edx
   14c4c:	8b 85 7c fa ff ff    	mov    -0x584(%rbp),%eax
   14c52:	0f b6 c0             	movzbl %al,%eax
   14c55:	89 d6                	mov    %edx,%esi
   14c57:	89 c7                	mov    %eax,%edi
   14c59:	e8 35 5f ff ff       	callq  ab93 <safe_mul_func_uint8_t_u_u>
   14c5e:	0f b6 c0             	movzbl %al,%eax
   14c61:	39 85 7c fa ff ff    	cmp    %eax,-0x584(%rbp)
   14c67:	be 00 00 00 00       	mov    $0x0,%esi
   14c6c:	48 c7 c7 ff ff ff ff 	mov    $0xffffffffffffffff,%rdi
   14c73:	e8 b6 63 ff ff       	callq  b02e <safe_add_func_uint64_t_u_u>
   14c78:	0f b7 c0             	movzwl %ax,%eax
   14c7b:	89 de                	mov    %ebx,%esi
   14c7d:	89 c7                	mov    %eax,%edi
   14c7f:	e8 b9 60 ff ff       	callq  ad3d <safe_mul_func_uint16_t_u_u>
   14c84:	0f b7 c0             	movzwl %ax,%eax
   14c87:	4c 89 e6             	mov    %r12,%rsi
   14c8a:	48 89 c7             	mov    %rax,%rdi
   14c8d:	e8 22 5d ff ff       	callq  a9b4 <safe_mod_func_int64_t_s_s>
   14c92:	48 85 c0             	test   %rax,%rax
   14c95:	74 07                	je     14c9e <func_66+0x550>
   14c97:	b8 01 00 00 00       	mov    $0x1,%eax
   14c9c:	eb 05                	jmp    14ca3 <func_66+0x555>
   14c9e:	b8 00 00 00 00       	mov    $0x0,%eax
   14ca3:	48 98                	cltq   
   14ca5:	48 be ff 5d bd dc 15 	movabs $0x86533915dcbd5dff,%rsi
   14cac:	39 53 86 
   14caf:	48 89 c7             	mov    %rax,%rdi
   14cb2:	e8 94 63 ff ff       	callq  b04b <safe_sub_func_uint64_t_u_u>
   14cb7:	48 85 c0             	test   %rax,%rax
   14cba:	74 1c                	je     14cd8 <func_66+0x58a>
   14cbc:	c7 85 a8 fa ff ff 00 	movl   $0x0,-0x558(%rbp)
   14cc3:	00 00 00 
   14cc6:	c7 85 a8 fa ff ff 19 	movl   $0xa24b7619,-0x558(%rbp)
   14ccd:	76 4b a2 
   14cd0:	8b 85 ac fa ff ff    	mov    -0x554(%rbp),%eax
   14cd6:	eb 71                	jmp    14d49 <func_66+0x5fb>
   14cd8:	48 8d 85 40 fd ff ff 	lea    -0x2c0(%rbp),%rax
   14cdf:	48 8d 15 fa 3e 00 00 	lea    0x3efa(%rip),%rdx        # 18be0 <g_3500+0x1a10>
   14ce6:	b9 50 00 00 00       	mov    $0x50,%ecx
   14ceb:	48 89 c7             	mov    %rax,%rdi
   14cee:	48 89 d6             	mov    %rdx,%rsi
   14cf1:	f3 48 a5             	rep movsq %ds:(%rsi),%es:(%rdi)
   14cf4:	48 8b 85 c8 fe ff ff 	mov    -0x138(%rbp),%rax
   14cfb:	eb 4c                	jmp    14d49 <func_66+0x5fb>
   14cfd:	48 8d 05 ec bf 00 00 	lea    0xbfec(%rip),%rax        # 20cf0 <g_73>
   14d04:	48 89 85 40 fd ff ff 	mov    %rax,-0x2c0(%rbp)
   14d0b:	48 8d 05 de bf 00 00 	lea    0xbfde(%rip),%rax        # 20cf0 <g_73>
   14d12:	48 89 85 48 fd ff ff 	mov    %rax,-0x2b8(%rbp)
   14d19:	48 8d 05 d0 bf 00 00 	lea    0xbfd0(%rip),%rax        # 20cf0 <g_73>
   14d20:	48 89 85 50 fd ff ff 	mov    %rax,-0x2b0(%rbp)
   14d27:	48 8d 05 c2 bf 00 00 	lea    0xbfc2(%rip),%rax        # 20cf0 <g_73>
   14d2e:	48 89 85 58 fd ff ff 	mov    %rax,-0x2a8(%rbp)
   14d35:	48 c7 85 88 fa ff ff 	movq   $0x0,-0x578(%rbp)
   14d3c:	00 00 00 00 
   14d40:	48 8b 05 79 a7 00 00 	mov    0xa779(%rip),%rax        # 1f4c0 <g_8>
   14d47:	8b 00                	mov    (%rax),%eax
   14d49:	48 8b 4d c8          	mov    -0x38(%rbp),%rcx
   14d4d:	64 48 33 0c 25 28 00 	xor    %fs:0x28,%rcx
   14d54:	00 00 
   14d56:	74 05                	je     14d5d <func_66+0x60f>
   14d58:	e8 13 53 ff ff       	callq  a070 <__stack_chk_fail@plt>
   14d5d:	48 81 c4 68 05 00 00 	add    $0x568,%rsp
   14d64:	5b                   	pop    %rbx
   14d65:	41 5c                	pop    %r12
   14d67:	41 5d                	pop    %r13
   14d69:	41 5e                	pop    %r14
   14d6b:	41 5f                	pop    %r15
   14d6d:	5d                   	pop    %rbp
   14d6e:	c3                   	retq   

0000000000014d6f <main>:
   14d6f:	f3 0f 1e fa          	endbr64 
   14d73:	55                   	push   %rbp
   14d74:	48 89 e5             	mov    %rsp,%rbp
   14d77:	48 83 ec 20          	sub    $0x20,%rsp
   14d7b:	89 7d ec             	mov    %edi,-0x14(%rbp)
   14d7e:	48 89 75 e0          	mov    %rsi,-0x20(%rbp)
   14d82:	c7 45 fc 00 00 00 00 	movl   $0x0,-0x4(%rbp)
   14d89:	83 7d ec 02          	cmpl   $0x2,-0x14(%rbp)
   14d8d:	75 25                	jne    14db4 <main+0x45>
   14d8f:	48 8b 45 e0          	mov    -0x20(%rbp),%rax
   14d93:	48 83 c0 08          	add    $0x8,%rax
   14d97:	48 8b 00             	mov    (%rax),%rax
   14d9a:	48 8d 35 bf 40 00 00 	lea    0x40bf(%rip),%rsi        # 18e60 <g_3500+0x1c90>
   14da1:	48 89 c7             	mov    %rax,%rdi
   14da4:	e8 e7 52 ff ff       	callq  a090 <strcmp@plt>
   14da9:	85 c0                	test   %eax,%eax
   14dab:	75 07                	jne    14db4 <main+0x45>
   14dad:	c7 45 fc 01 00 00 00 	movl   $0x1,-0x4(%rbp)
   14db4:	e8 d0 53 ff ff       	callq  a189 <platform_main_begin>
   14db9:	e8 da 67 ff ff       	callq  b598 <crc32_gentab>
   14dbe:	e8 f2 69 ff ff       	callq  b7b5 <func_1>
   14dc3:	8b 05 5b 72 00 00    	mov    0x725b(%rip),%eax        # 1c024 <g_9>
   14dc9:	48 98                	cltq   
   14dcb:	8b 55 fc             	mov    -0x4(%rbp),%edx
   14dce:	48 8d 35 8d 40 00 00 	lea    0x408d(%rip),%rsi        # 18e62 <g_3500+0x1c92>
   14dd5:	48 89 c7             	mov    %rax,%rdi
   14dd8:	e8 16 69 ff ff       	callq  b6f3 <transparent_crc>
   14ddd:	8b 05 45 72 00 00    	mov    0x7245(%rip),%eax        # 1c028 <g_29>
   14de3:	89 c1                	mov    %eax,%ecx
   14de5:	8b 45 fc             	mov    -0x4(%rbp),%eax
   14de8:	89 c2                	mov    %eax,%edx
   14dea:	48 8d 35 75 40 00 00 	lea    0x4075(%rip),%rsi        # 18e66 <g_3500+0x1c96>
   14df1:	48 89 cf             	mov    %rcx,%rdi
   14df4:	e8 fa 68 ff ff       	callq  b6f3 <transparent_crc>
   14df9:	0f b7 05 2c 72 00 00 	movzwl 0x722c(%rip),%eax        # 1c02c <g_104>
   14e00:	0f b7 c0             	movzwl %ax,%eax
   14e03:	8b 55 fc             	mov    -0x4(%rbp),%edx
   14e06:	48 8d 35 5e 40 00 00 	lea    0x405e(%rip),%rsi        # 18e6b <g_3500+0x1c9b>
   14e0d:	48 89 c7             	mov    %rax,%rdi
   14e10:	e8 de 68 ff ff       	callq  b6f3 <transparent_crc>
   14e15:	48 8b 05 14 72 00 00 	mov    0x7214(%rip),%rax        # 1c030 <g_106>
   14e1c:	48 89 c1             	mov    %rax,%rcx
   14e1f:	8b 45 fc             	mov    -0x4(%rbp),%eax
   14e22:	89 c2                	mov    %eax,%edx
   14e24:	48 8d 35 46 40 00 00 	lea    0x4046(%rip),%rsi        # 18e71 <g_3500+0x1ca1>
   14e2b:	48 89 cf             	mov    %rcx,%rdi
   14e2e:	e8 c0 68 ff ff       	callq  b6f3 <transparent_crc>
   14e33:	0f b7 05 fe 71 00 00 	movzwl 0x71fe(%rip),%eax        # 1c038 <g_131>
   14e3a:	48 0f bf c0          	movswq %ax,%rax
   14e3e:	8b 55 fc             	mov    -0x4(%rbp),%edx
   14e41:	48 8d 35 2f 40 00 00 	lea    0x402f(%rip),%rsi        # 18e77 <g_3500+0x1ca7>
   14e48:	48 89 c7             	mov    %rax,%rdi
   14e4b:	e8 a3 68 ff ff       	callq  b6f3 <transparent_crc>
   14e50:	c7 45 f0 00 00 00 00 	movl   $0x0,-0x10(%rbp)
   14e57:	eb 46                	jmp    14e9f <main+0x130>
   14e59:	8b 45 f0             	mov    -0x10(%rbp),%eax
   14e5c:	48 98                	cltq   
   14e5e:	48 8d 15 d5 71 00 00 	lea    0x71d5(%rip),%rdx        # 1c03a <g_167>
   14e65:	0f b6 04 10          	movzbl (%rax,%rdx,1),%eax
   14e69:	48 0f be c0          	movsbq %al,%rax
   14e6d:	8b 55 fc             	mov    -0x4(%rbp),%edx
   14e70:	48 8d 35 06 40 00 00 	lea    0x4006(%rip),%rsi        # 18e7d <g_3500+0x1cad>
   14e77:	48 89 c7             	mov    %rax,%rdi
   14e7a:	e8 74 68 ff ff       	callq  b6f3 <transparent_crc>
   14e7f:	83 7d fc 00          	cmpl   $0x0,-0x4(%rbp)
   14e83:	74 16                	je     14e9b <main+0x12c>
   14e85:	8b 45 f0             	mov    -0x10(%rbp),%eax
   14e88:	89 c6                	mov    %eax,%esi
   14e8a:	48 8d 3d f5 3f 00 00 	lea    0x3ff5(%rip),%rdi        # 18e86 <g_3500+0x1cb6>
   14e91:	b8 00 00 00 00       	mov    $0x0,%eax
   14e96:	e8 e5 51 ff ff       	callq  a080 <printf@plt>
   14e9b:	83 45 f0 01          	addl   $0x1,-0x10(%rbp)
   14e9f:	83 7d f0 00          	cmpl   $0x0,-0x10(%rbp)
   14ea3:	7e b4                	jle    14e59 <main+0xea>
   14ea5:	0f b6 05 8f 71 00 00 	movzbl 0x718f(%rip),%eax        # 1c03b <g_190>
   14eac:	0f b6 c0             	movzbl %al,%eax
   14eaf:	8b 55 fc             	mov    -0x4(%rbp),%edx
   14eb2:	48 8d 35 db 3f 00 00 	lea    0x3fdb(%rip),%rsi        # 18e94 <g_3500+0x1cc4>
   14eb9:	48 89 c7             	mov    %rax,%rdi
   14ebc:	e8 32 68 ff ff       	callq  b6f3 <transparent_crc>
   14ec1:	8b 05 75 71 00 00    	mov    0x7175(%rip),%eax        # 1c03c <g_199>
   14ec7:	89 c1                	mov    %eax,%ecx
   14ec9:	8b 45 fc             	mov    -0x4(%rbp),%eax
   14ecc:	89 c2                	mov    %eax,%edx
   14ece:	48 8d 35 c5 3f 00 00 	lea    0x3fc5(%rip),%rsi        # 18e9a <g_3500+0x1cca>
   14ed5:	48 89 cf             	mov    %rcx,%rdi
   14ed8:	e8 16 68 ff ff       	callq  b6f3 <transparent_crc>
   14edd:	0f b7 05 5c 71 00 00 	movzwl 0x715c(%rip),%eax        # 1c040 <g_204>
   14ee4:	48 0f bf c0          	movswq %ax,%rax
   14ee8:	8b 55 fc             	mov    -0x4(%rbp),%edx
   14eeb:	48 8d 35 ae 3f 00 00 	lea    0x3fae(%rip),%rsi        # 18ea0 <g_3500+0x1cd0>
   14ef2:	48 89 c7             	mov    %rax,%rdi
   14ef5:	e8 f9 67 ff ff       	callq  b6f3 <transparent_crc>
   14efa:	0f b7 05 4f 71 00 00 	movzwl 0x714f(%rip),%eax        # 1c050 <g_218>
   14f01:	c1 e0 04             	shl    $0x4,%eax
   14f04:	66 c1 f8 04          	sar    $0x4,%ax
   14f08:	48 0f bf c0          	movswq %ax,%rax
   14f0c:	8b 55 fc             	mov    -0x4(%rbp),%edx
   14f0f:	48 8d 35 90 3f 00 00 	lea    0x3f90(%rip),%rsi        # 18ea6 <g_3500+0x1cd6>
   14f16:	48 89 c7             	mov    %rax,%rdi
   14f19:	e8 d5 67 ff ff       	callq  b6f3 <transparent_crc>
   14f1e:	8b 05 30 71 00 00    	mov    0x7130(%rip),%eax        # 1c054 <g_218+0x4>
   14f24:	48 98                	cltq   
   14f26:	8b 55 fc             	mov    -0x4(%rbp),%edx
   14f29:	48 8d 35 7f 3f 00 00 	lea    0x3f7f(%rip),%rsi        # 18eaf <g_3500+0x1cdf>
   14f30:	48 89 c7             	mov    %rax,%rdi
   14f33:	e8 bb 67 ff ff       	callq  b6f3 <transparent_crc>
   14f38:	48 8b 05 19 71 00 00 	mov    0x7119(%rip),%rax        # 1c058 <g_218+0x8>
   14f3f:	c1 e0 05             	shl    $0x5,%eax
   14f42:	c0 f8 05             	sar    $0x5,%al
   14f45:	48 0f be c0          	movsbq %al,%rax
   14f49:	8b 55 fc             	mov    -0x4(%rbp),%edx
   14f4c:	48 8d 35 65 3f 00 00 	lea    0x3f65(%rip),%rsi        # 18eb8 <g_3500+0x1ce8>
   14f53:	48 89 c7             	mov    %rax,%rdi
   14f56:	e8 98 67 ff ff       	callq  b6f3 <transparent_crc>
   14f5b:	48 8b 05 f6 70 00 00 	mov    0x70f6(%rip),%rax        # 1c058 <g_218+0x8>
   14f62:	c1 e0 02             	shl    $0x2,%eax
   14f65:	c1 f8 05             	sar    $0x5,%eax
   14f68:	48 98                	cltq   
   14f6a:	8b 55 fc             	mov    -0x4(%rbp),%edx
   14f6d:	48 8d 35 4d 3f 00 00 	lea    0x3f4d(%rip),%rsi        # 18ec1 <g_3500+0x1cf1>
   14f74:	48 89 c7             	mov    %rax,%rdi
   14f77:	e8 77 67 ff ff       	callq  b6f3 <transparent_crc>
   14f7c:	8b 05 da 70 00 00    	mov    0x70da(%rip),%eax        # 1c05c <g_218+0xc>
   14f82:	25 ff ff 3f 00       	and    $0x3fffff,%eax
   14f87:	89 c1                	mov    %eax,%ecx
   14f89:	8b 45 fc             	mov    -0x4(%rbp),%eax
   14f8c:	89 c2                	mov    %eax,%edx
   14f8e:	48 8d 35 35 3f 00 00 	lea    0x3f35(%rip),%rsi        # 18eca <g_3500+0x1cfa>
   14f95:	48 89 cf             	mov    %rcx,%rdi
   14f98:	e8 56 67 ff ff       	callq  b6f3 <transparent_crc>
   14f9d:	0f b6 05 bc 70 00 00 	movzbl 0x70bc(%rip),%eax        # 1c060 <g_228>
   14fa4:	0f b6 c0             	movzbl %al,%eax
   14fa7:	8b 55 fc             	mov    -0x4(%rbp),%edx
   14faa:	48 8d 35 22 3f 00 00 	lea    0x3f22(%rip),%rsi        # 18ed3 <g_3500+0x1d03>
   14fb1:	48 89 c7             	mov    %rax,%rdi
   14fb4:	e8 3a 67 ff ff       	callq  b6f3 <transparent_crc>
   14fb9:	0f b7 05 b0 70 00 00 	movzwl 0x70b0(%rip),%eax        # 1c070 <g_274>
   14fc0:	c1 e0 04             	shl    $0x4,%eax
   14fc3:	66 c1 f8 04          	sar    $0x4,%ax
   14fc7:	48 0f bf c0          	movswq %ax,%rax
   14fcb:	8b 55 fc             	mov    -0x4(%rbp),%edx
   14fce:	48 8d 35 04 3f 00 00 	lea    0x3f04(%rip),%rsi        # 18ed9 <g_3500+0x1d09>
   14fd5:	48 89 c7             	mov    %rax,%rdi
   14fd8:	e8 16 67 ff ff       	callq  b6f3 <transparent_crc>
   14fdd:	8b 05 91 70 00 00    	mov    0x7091(%rip),%eax        # 1c074 <g_274+0x4>
   14fe3:	48 98                	cltq   
   14fe5:	8b 55 fc             	mov    -0x4(%rbp),%edx
   14fe8:	48 8d 35 f3 3e 00 00 	lea    0x3ef3(%rip),%rsi        # 18ee2 <g_3500+0x1d12>
   14fef:	48 89 c7             	mov    %rax,%rdi
   14ff2:	e8 fc 66 ff ff       	callq  b6f3 <transparent_crc>
   14ff7:	48 8b 05 7a 70 00 00 	mov    0x707a(%rip),%rax        # 1c078 <g_274+0x8>
   14ffe:	c1 e0 05             	shl    $0x5,%eax
   15001:	c0 f8 05             	sar    $0x5,%al
   15004:	48 0f be c0          	movsbq %al,%rax
   15008:	8b 55 fc             	mov    -0x4(%rbp),%edx
   1500b:	48 8d 35 d9 3e 00 00 	lea    0x3ed9(%rip),%rsi        # 18eeb <g_3500+0x1d1b>
   15012:	48 89 c7             	mov    %rax,%rdi
   15015:	e8 d9 66 ff ff       	callq  b6f3 <transparent_crc>
   1501a:	48 8b 05 57 70 00 00 	mov    0x7057(%rip),%rax        # 1c078 <g_274+0x8>
   15021:	c1 e0 02             	shl    $0x2,%eax
   15024:	c1 f8 05             	sar    $0x5,%eax
   15027:	48 98                	cltq   
   15029:	8b 55 fc             	mov    -0x4(%rbp),%edx
   1502c:	48 8d 35 c1 3e 00 00 	lea    0x3ec1(%rip),%rsi        # 18ef4 <g_3500+0x1d24>
   15033:	48 89 c7             	mov    %rax,%rdi
   15036:	e8 b8 66 ff ff       	callq  b6f3 <transparent_crc>
   1503b:	8b 05 3b 70 00 00    	mov    0x703b(%rip),%eax        # 1c07c <g_274+0xc>
   15041:	25 ff ff 3f 00       	and    $0x3fffff,%eax
   15046:	89 c1                	mov    %eax,%ecx
   15048:	8b 45 fc             	mov    -0x4(%rbp),%eax
   1504b:	89 c2                	mov    %eax,%edx
   1504d:	48 8d 35 a9 3e 00 00 	lea    0x3ea9(%rip),%rsi        # 18efd <g_3500+0x1d2d>
   15054:	48 89 cf             	mov    %rcx,%rdi
   15057:	e8 97 66 ff ff       	callq  b6f3 <transparent_crc>
   1505c:	c7 45 f0 00 00 00 00 	movl   $0x0,-0x10(%rbp)
   15063:	eb 6d                	jmp    150d2 <main+0x363>
   15065:	c7 45 f4 00 00 00 00 	movl   $0x0,-0xc(%rbp)
   1506c:	eb 5a                	jmp    150c8 <main+0x359>
   1506e:	8b 45 f4             	mov    -0xc(%rbp),%eax
   15071:	48 98                	cltq   
   15073:	8b 55 f0             	mov    -0x10(%rbp),%edx
   15076:	48 63 d2             	movslq %edx,%rdx
   15079:	48 c1 e2 03          	shl    $0x3,%rdx
   1507d:	48 01 d0             	add    %rdx,%rax
   15080:	48 8d 14 c5 00 00 00 	lea    0x0(,%rax,8),%rdx
   15087:	00 
   15088:	48 8d 05 f1 6f 00 00 	lea    0x6ff1(%rip),%rax        # 1c080 <g_276>
   1508f:	48 8b 04 02          	mov    (%rdx,%rax,1),%rax
   15093:	8b 55 fc             	mov    -0x4(%rbp),%edx
   15096:	48 8d 35 69 3e 00 00 	lea    0x3e69(%rip),%rsi        # 18f06 <g_3500+0x1d36>
   1509d:	48 89 c7             	mov    %rax,%rdi
   150a0:	e8 4e 66 ff ff       	callq  b6f3 <transparent_crc>
   150a5:	83 7d fc 00          	cmpl   $0x0,-0x4(%rbp)
   150a9:	74 19                	je     150c4 <main+0x355>
   150ab:	8b 55 f4             	mov    -0xc(%rbp),%edx
   150ae:	8b 45 f0             	mov    -0x10(%rbp),%eax
   150b1:	89 c6                	mov    %eax,%esi
   150b3:	48 8d 3d 58 3e 00 00 	lea    0x3e58(%rip),%rdi        # 18f12 <g_3500+0x1d42>
   150ba:	b8 00 00 00 00       	mov    $0x0,%eax
   150bf:	e8 bc 4f ff ff       	callq  a080 <printf@plt>
   150c4:	83 45 f4 01          	addl   $0x1,-0xc(%rbp)
   150c8:	83 7d f4 07          	cmpl   $0x7,-0xc(%rbp)
   150cc:	7e a0                	jle    1506e <main+0x2ff>
   150ce:	83 45 f0 01          	addl   $0x1,-0x10(%rbp)
   150d2:	83 7d f0 08          	cmpl   $0x8,-0x10(%rbp)
   150d6:	7e 8d                	jle    15065 <main+0x2f6>
   150d8:	0f b7 05 e1 71 00 00 	movzwl 0x71e1(%rip),%eax        # 1c2c0 <g_278>
   150df:	0f b7 c0             	movzwl %ax,%eax
   150e2:	8b 55 fc             	mov    -0x4(%rbp),%edx
   150e5:	48 8d 35 38 3e 00 00 	lea    0x3e38(%rip),%rsi        # 18f24 <g_3500+0x1d54>
   150ec:	48 89 c7             	mov    %rax,%rdi
   150ef:	e8 ff 65 ff ff       	callq  b6f3 <transparent_crc>
   150f4:	0f b7 05 0d bc 00 00 	movzwl 0xbc0d(%rip),%eax        # 20d08 <g_392>
   150fb:	48 0f bf c0          	movswq %ax,%rax
   150ff:	8b 55 fc             	mov    -0x4(%rbp),%edx
   15102:	48 8d 35 21 3e 00 00 	lea    0x3e21(%rip),%rsi        # 18f2a <g_3500+0x1d5a>
   15109:	48 89 c7             	mov    %rax,%rdi
   1510c:	e8 e2 65 ff ff       	callq  b6f3 <transparent_crc>
   15111:	c7 45 f0 00 00 00 00 	movl   $0x0,-0x10(%rbp)
   15118:	e9 ae 00 00 00       	jmpq   151cb <main+0x45c>
   1511d:	c7 45 f4 00 00 00 00 	movl   $0x0,-0xc(%rbp)
   15124:	e9 94 00 00 00       	jmpq   151bd <main+0x44e>
   15129:	c7 45 f8 00 00 00 00 	movl   $0x0,-0x8(%rbp)
   15130:	eb 7d                	jmp    151af <main+0x440>
   15132:	8b 45 f8             	mov    -0x8(%rbp),%eax
   15135:	48 63 f0             	movslq %eax,%rsi
   15138:	8b 45 f0             	mov    -0x10(%rbp),%eax
   1513b:	48 63 d0             	movslq %eax,%rdx
   1513e:	8b 45 f4             	mov    -0xc(%rbp),%eax
   15141:	48 63 c8             	movslq %eax,%rcx
   15144:	48 89 d0             	mov    %rdx,%rax
   15147:	48 c1 e0 02          	shl    $0x2,%rax
   1514b:	48 01 d0             	add    %rdx,%rax
   1514e:	48 c1 e0 02          	shl    $0x2,%rax
   15152:	48 01 d0             	add    %rdx,%rax
   15155:	48 89 ca             	mov    %rcx,%rdx
   15158:	48 01 d2             	add    %rdx,%rdx
   1515b:	48 01 ca             	add    %rcx,%rdx
   1515e:	48 01 d0             	add    %rdx,%rax
   15161:	48 01 f0             	add    %rsi,%rax
   15164:	48 8d 14 00          	lea    (%rax,%rax,1),%rdx
   15168:	48 8d 05 71 71 00 00 	lea    0x7171(%rip),%rax        # 1c2e0 <g_403>
   1516f:	0f b7 04 02          	movzwl (%rdx,%rax,1),%eax
   15173:	48 0f bf c0          	movswq %ax,%rax
   15177:	8b 55 fc             	mov    -0x4(%rbp),%edx
   1517a:	48 8d 35 af 3d 00 00 	lea    0x3daf(%rip),%rsi        # 18f30 <g_3500+0x1d60>
   15181:	48 89 c7             	mov    %rax,%rdi
   15184:	e8 6a 65 ff ff       	callq  b6f3 <transparent_crc>
   15189:	83 7d fc 00          	cmpl   $0x0,-0x4(%rbp)
   1518d:	74 1c                	je     151ab <main+0x43c>
   1518f:	8b 4d f8             	mov    -0x8(%rbp),%ecx
   15192:	8b 55 f4             	mov    -0xc(%rbp),%edx
   15195:	8b 45 f0             	mov    -0x10(%rbp),%eax
   15198:	89 c6                	mov    %eax,%esi
   1519a:	48 8d 3d 9e 3d 00 00 	lea    0x3d9e(%rip),%rdi        # 18f3f <g_3500+0x1d6f>
   151a1:	b8 00 00 00 00       	mov    $0x0,%eax
   151a6:	e8 d5 4e ff ff       	callq  a080 <printf@plt>
   151ab:	83 45 f8 01          	addl   $0x1,-0x8(%rbp)
   151af:	83 7d f8 02          	cmpl   $0x2,-0x8(%rbp)
   151b3:	0f 8e 79 ff ff ff    	jle    15132 <main+0x3c3>
   151b9:	83 45 f4 01          	addl   $0x1,-0xc(%rbp)
   151bd:	83 7d f4 06          	cmpl   $0x6,-0xc(%rbp)
   151c1:	0f 8e 62 ff ff ff    	jle    15129 <main+0x3ba>
   151c7:	83 45 f0 01          	addl   $0x1,-0x10(%rbp)
   151cb:	83 7d f0 00          	cmpl   $0x0,-0x10(%rbp)
   151cf:	0f 8e 48 ff ff ff    	jle    1511d <main+0x3ae>
   151d5:	8b 05 3d bb 00 00    	mov    0xbb3d(%rip),%eax        # 20d18 <g_639>
   151db:	48 98                	cltq   
   151dd:	8b 55 fc             	mov    -0x4(%rbp),%edx
   151e0:	48 8d 35 6e 3d 00 00 	lea    0x3d6e(%rip),%rsi        # 18f55 <g_3500+0x1d85>
   151e7:	48 89 c7             	mov    %rax,%rdi
   151ea:	e8 04 65 ff ff       	callq  b6f3 <transparent_crc>
   151ef:	8b 05 17 71 00 00    	mov    0x7117(%rip),%eax        # 1c30c <g_671>
   151f5:	48 98                	cltq   
   151f7:	8b 55 fc             	mov    -0x4(%rbp),%edx
   151fa:	48 8d 35 5a 3d 00 00 	lea    0x3d5a(%rip),%rsi        # 18f5b <g_3500+0x1d8b>
   15201:	48 89 c7             	mov    %rax,%rdi
   15204:	e8 ea 64 ff ff       	callq  b6f3 <transparent_crc>
   15209:	48 8b 05 00 71 00 00 	mov    0x7100(%rip),%rax        # 1c310 <g_714>
   15210:	c1 e0 04             	shl    $0x4,%eax
   15213:	66 c1 f8 04          	sar    $0x4,%ax
   15217:	48 0f bf c0          	movswq %ax,%rax
   1521b:	8b 55 fc             	mov    -0x4(%rbp),%edx
   1521e:	48 8d 35 3c 3d 00 00 	lea    0x3d3c(%rip),%rsi        # 18f61 <g_3500+0x1d91>
   15225:	48 89 c7             	mov    %rax,%rdi
   15228:	e8 c6 64 ff ff       	callq  b6f3 <transparent_crc>
   1522d:	8b 05 e1 70 00 00    	mov    0x70e1(%rip),%eax        # 1c314 <g_714+0x4>
   15233:	48 98                	cltq   
   15235:	8b 55 fc             	mov    -0x4(%rbp),%edx
   15238:	48 8d 35 2b 3d 00 00 	lea    0x3d2b(%rip),%rsi        # 18f6a <g_3500+0x1d9a>
   1523f:	48 89 c7             	mov    %rax,%rdi
   15242:	e8 ac 64 ff ff       	callq  b6f3 <transparent_crc>
   15247:	48 8b 05 ca 70 00 00 	mov    0x70ca(%rip),%rax        # 1c318 <g_714+0x8>
   1524e:	c1 e0 05             	shl    $0x5,%eax
   15251:	c0 f8 05             	sar    $0x5,%al
   15254:	48 0f be c0          	movsbq %al,%rax
   15258:	8b 55 fc             	mov    -0x4(%rbp),%edx
   1525b:	48 8d 35 11 3d 00 00 	lea    0x3d11(%rip),%rsi        # 18f73 <g_3500+0x1da3>
   15262:	48 89 c7             	mov    %rax,%rdi
   15265:	e8 89 64 ff ff       	callq  b6f3 <transparent_crc>
   1526a:	48 8b 05 a7 70 00 00 	mov    0x70a7(%rip),%rax        # 1c318 <g_714+0x8>
   15271:	c1 e0 02             	shl    $0x2,%eax
   15274:	c1 f8 05             	sar    $0x5,%eax
   15277:	48 98                	cltq   
   15279:	8b 55 fc             	mov    -0x4(%rbp),%edx
   1527c:	48 8d 35 f9 3c 00 00 	lea    0x3cf9(%rip),%rsi        # 18f7c <g_3500+0x1dac>
   15283:	48 89 c7             	mov    %rax,%rdi
   15286:	e8 68 64 ff ff       	callq  b6f3 <transparent_crc>
   1528b:	48 8b 05 86 70 00 00 	mov    0x7086(%rip),%rax        # 1c318 <g_714+0x8>
   15292:	48 c1 e8 20          	shr    $0x20,%rax
   15296:	25 ff ff 3f 00       	and    $0x3fffff,%eax
   1529b:	89 c1                	mov    %eax,%ecx
   1529d:	8b 45 fc             	mov    -0x4(%rbp),%eax
   152a0:	89 c2                	mov    %eax,%edx
   152a2:	48 8d 35 dc 3c 00 00 	lea    0x3cdc(%rip),%rsi        # 18f85 <g_3500+0x1db5>
   152a9:	48 89 cf             	mov    %rcx,%rdi
   152ac:	e8 42 64 ff ff       	callq  b6f3 <transparent_crc>
   152b1:	0f b7 05 68 70 00 00 	movzwl 0x7068(%rip),%eax        # 1c320 <g_820>
   152b8:	c1 e0 04             	shl    $0x4,%eax
   152bb:	66 c1 f8 04          	sar    $0x4,%ax
   152bf:	48 0f bf c0          	movswq %ax,%rax
   152c3:	8b 55 fc             	mov    -0x4(%rbp),%edx
   152c6:	48 8d 35 c1 3c 00 00 	lea    0x3cc1(%rip),%rsi        # 18f8e <g_3500+0x1dbe>
   152cd:	48 89 c7             	mov    %rax,%rdi
   152d0:	e8 1e 64 ff ff       	callq  b6f3 <transparent_crc>
   152d5:	8b 05 49 70 00 00    	mov    0x7049(%rip),%eax        # 1c324 <g_820+0x4>
   152db:	48 98                	cltq   
   152dd:	8b 55 fc             	mov    -0x4(%rbp),%edx
   152e0:	48 8d 35 b0 3c 00 00 	lea    0x3cb0(%rip),%rsi        # 18f97 <g_3500+0x1dc7>
   152e7:	48 89 c7             	mov    %rax,%rdi
   152ea:	e8 04 64 ff ff       	callq  b6f3 <transparent_crc>
   152ef:	48 8b 05 32 70 00 00 	mov    0x7032(%rip),%rax        # 1c328 <g_820+0x8>
   152f6:	c1 e0 05             	shl    $0x5,%eax
   152f9:	c0 f8 05             	sar    $0x5,%al
   152fc:	48 0f be c0          	movsbq %al,%rax
   15300:	8b 55 fc             	mov    -0x4(%rbp),%edx
   15303:	48 8d 35 96 3c 00 00 	lea    0x3c96(%rip),%rsi        # 18fa0 <g_3500+0x1dd0>
   1530a:	48 89 c7             	mov    %rax,%rdi
   1530d:	e8 e1 63 ff ff       	callq  b6f3 <transparent_crc>
   15312:	48 8b 05 0f 70 00 00 	mov    0x700f(%rip),%rax        # 1c328 <g_820+0x8>
   15319:	c1 e0 02             	shl    $0x2,%eax
   1531c:	c1 f8 05             	sar    $0x5,%eax
   1531f:	48 98                	cltq   
   15321:	8b 55 fc             	mov    -0x4(%rbp),%edx
   15324:	48 8d 35 7e 3c 00 00 	lea    0x3c7e(%rip),%rsi        # 18fa9 <g_3500+0x1dd9>
   1532b:	48 89 c7             	mov    %rax,%rdi
   1532e:	e8 c0 63 ff ff       	callq  b6f3 <transparent_crc>
   15333:	8b 05 f3 6f 00 00    	mov    0x6ff3(%rip),%eax        # 1c32c <g_820+0xc>
   15339:	25 ff ff 3f 00       	and    $0x3fffff,%eax
   1533e:	89 c1                	mov    %eax,%ecx
   15340:	8b 45 fc             	mov    -0x4(%rbp),%eax
   15343:	89 c2                	mov    %eax,%edx
   15345:	48 8d 35 66 3c 00 00 	lea    0x3c66(%rip),%rsi        # 18fb2 <g_3500+0x1de2>
   1534c:	48 89 cf             	mov    %rcx,%rdi
   1534f:	e8 9f 63 ff ff       	callq  b6f3 <transparent_crc>
   15354:	b8 2c 00 00 00       	mov    $0x2c,%eax
   15359:	48 0f bf c0          	movswq %ax,%rax
   1535d:	8b 55 fc             	mov    -0x4(%rbp),%edx
   15360:	48 8d 35 54 3c 00 00 	lea    0x3c54(%rip),%rsi        # 18fbb <g_3500+0x1deb>
   15367:	48 89 c7             	mov    %rax,%rdi
   1536a:	e8 84 63 ff ff       	callq  b6f3 <transparent_crc>
   1536f:	b8 00 00 00 00       	mov    $0x0,%eax
   15374:	48 98                	cltq   
   15376:	8b 55 fc             	mov    -0x4(%rbp),%edx
   15379:	48 8d 35 44 3c 00 00 	lea    0x3c44(%rip),%rsi        # 18fc4 <g_3500+0x1df4>
   15380:	48 89 c7             	mov    %rax,%rdi
   15383:	e8 6b 63 ff ff       	callq  b6f3 <transparent_crc>
   15388:	48 8b 05 d9 1c 00 00 	mov    0x1cd9(%rip),%rax        # 17068 <g_960+0x8>
   1538f:	c1 e0 05             	shl    $0x5,%eax
   15392:	c0 f8 05             	sar    $0x5,%al
   15395:	48 0f be c0          	movsbq %al,%rax
   15399:	8b 55 fc             	mov    -0x4(%rbp),%edx
   1539c:	48 8d 35 2a 3c 00 00 	lea    0x3c2a(%rip),%rsi        # 18fcd <g_3500+0x1dfd>
   153a3:	48 89 c7             	mov    %rax,%rdi
   153a6:	e8 48 63 ff ff       	callq  b6f3 <transparent_crc>
   153ab:	48 8b 05 b6 1c 00 00 	mov    0x1cb6(%rip),%rax        # 17068 <g_960+0x8>
   153b2:	c1 e0 02             	shl    $0x2,%eax
   153b5:	c1 f8 05             	sar    $0x5,%eax
   153b8:	48 98                	cltq   
   153ba:	8b 55 fc             	mov    -0x4(%rbp),%edx
   153bd:	48 8d 35 12 3c 00 00 	lea    0x3c12(%rip),%rsi        # 18fd6 <g_3500+0x1e06>
   153c4:	48 89 c7             	mov    %rax,%rdi
   153c7:	e8 27 63 ff ff       	callq  b6f3 <transparent_crc>
   153cc:	b8 ca 02 00 00       	mov    $0x2ca,%eax
   153d1:	89 c1                	mov    %eax,%ecx
   153d3:	8b 45 fc             	mov    -0x4(%rbp),%eax
   153d6:	89 c2                	mov    %eax,%edx
   153d8:	48 8d 35 00 3c 00 00 	lea    0x3c00(%rip),%rsi        # 18fdf <g_3500+0x1e0f>
   153df:	48 89 cf             	mov    %rcx,%rdi
   153e2:	e8 0c 63 ff ff       	callq  b6f3 <transparent_crc>
   153e7:	0f b7 05 42 6f 00 00 	movzwl 0x6f42(%rip),%eax        # 1c330 <g_1038>
   153ee:	48 0f bf c0          	movswq %ax,%rax
   153f2:	8b 55 fc             	mov    -0x4(%rbp),%edx
   153f5:	48 8d 35 ec 3b 00 00 	lea    0x3bec(%rip),%rsi        # 18fe8 <g_3500+0x1e18>
   153fc:	48 89 c7             	mov    %rax,%rdi
   153ff:	e8 ef 62 ff ff       	callq  b6f3 <transparent_crc>
   15404:	0f b7 05 35 6f 00 00 	movzwl 0x6f35(%rip),%eax        # 1c340 <g_1091>
   1540b:	c1 e0 04             	shl    $0x4,%eax
   1540e:	66 c1 f8 04          	sar    $0x4,%ax
   15412:	48 0f bf c0          	movswq %ax,%rax
   15416:	8b 55 fc             	mov    -0x4(%rbp),%edx
   15419:	48 8d 35 cf 3b 00 00 	lea    0x3bcf(%rip),%rsi        # 18fef <g_3500+0x1e1f>
   15420:	48 89 c7             	mov    %rax,%rdi
   15423:	e8 cb 62 ff ff       	callq  b6f3 <transparent_crc>
   15428:	8b 05 16 6f 00 00    	mov    0x6f16(%rip),%eax        # 1c344 <g_1091+0x4>
   1542e:	48 98                	cltq   
   15430:	8b 55 fc             	mov    -0x4(%rbp),%edx
   15433:	48 8d 35 bf 3b 00 00 	lea    0x3bbf(%rip),%rsi        # 18ff9 <g_3500+0x1e29>
   1543a:	48 89 c7             	mov    %rax,%rdi
   1543d:	e8 b1 62 ff ff       	callq  b6f3 <transparent_crc>
   15442:	48 8b 05 ff 6e 00 00 	mov    0x6eff(%rip),%rax        # 1c348 <g_1091+0x8>
   15449:	c1 e0 05             	shl    $0x5,%eax
   1544c:	c0 f8 05             	sar    $0x5,%al
   1544f:	48 0f be c0          	movsbq %al,%rax
   15453:	8b 55 fc             	mov    -0x4(%rbp),%edx
   15456:	48 8d 35 a6 3b 00 00 	lea    0x3ba6(%rip),%rsi        # 19003 <g_3500+0x1e33>
   1545d:	48 89 c7             	mov    %rax,%rdi
   15460:	e8 8e 62 ff ff       	callq  b6f3 <transparent_crc>
   15465:	48 8b 05 dc 6e 00 00 	mov    0x6edc(%rip),%rax        # 1c348 <g_1091+0x8>
   1546c:	c1 e0 02             	shl    $0x2,%eax
   1546f:	c1 f8 05             	sar    $0x5,%eax
   15472:	48 98                	cltq   
   15474:	8b 55 fc             	mov    -0x4(%rbp),%edx
   15477:	48 8d 35 8f 3b 00 00 	lea    0x3b8f(%rip),%rsi        # 1900d <g_3500+0x1e3d>
   1547e:	48 89 c7             	mov    %rax,%rdi
   15481:	e8 6d 62 ff ff       	callq  b6f3 <transparent_crc>
   15486:	8b 05 c0 6e 00 00    	mov    0x6ec0(%rip),%eax        # 1c34c <g_1091+0xc>
   1548c:	25 ff ff 3f 00       	and    $0x3fffff,%eax
   15491:	89 c1                	mov    %eax,%ecx
   15493:	8b 45 fc             	mov    -0x4(%rbp),%eax
   15496:	89 c2                	mov    %eax,%edx
   15498:	48 8d 35 78 3b 00 00 	lea    0x3b78(%rip),%rsi        # 19017 <g_3500+0x1e47>
   1549f:	48 89 cf             	mov    %rcx,%rdi
   154a2:	e8 4c 62 ff ff       	callq  b6f3 <transparent_crc>
   154a7:	c7 45 f0 00 00 00 00 	movl   $0x0,-0x10(%rbp)
   154ae:	e9 b0 00 00 00       	jmpq   15563 <main+0x7f4>
   154b3:	c7 45 f4 00 00 00 00 	movl   $0x0,-0xc(%rbp)
   154ba:	e9 96 00 00 00       	jmpq   15555 <main+0x7e6>
   154bf:	c7 45 f8 00 00 00 00 	movl   $0x0,-0x8(%rbp)
   154c6:	eb 7f                	jmp    15547 <main+0x7d8>
   154c8:	8b 45 f8             	mov    -0x8(%rbp),%eax
   154cb:	48 63 f0             	movslq %eax,%rsi
   154ce:	8b 45 f0             	mov    -0x10(%rbp),%eax
   154d1:	48 63 d0             	movslq %eax,%rdx
   154d4:	8b 45 f4             	mov    -0xc(%rbp),%eax
   154d7:	48 63 c8             	movslq %eax,%rcx
   154da:	48 89 d0             	mov    %rdx,%rax
   154dd:	48 01 c0             	add    %rax,%rax
   154e0:	48 01 d0             	add    %rdx,%rax
   154e3:	48 89 c2             	mov    %rax,%rdx
   154e6:	48 c1 e2 04          	shl    $0x4,%rdx
   154ea:	48 29 c2             	sub    %rax,%rdx
   154ed:	48 89 c8             	mov    %rcx,%rax
   154f0:	48 c1 e0 02          	shl    $0x2,%rax
   154f4:	48 01 c8             	add    %rcx,%rax
   154f7:	48 01 d0             	add    %rdx,%rax
   154fa:	48 8d 14 30          	lea    (%rax,%rsi,1),%rdx
   154fe:	48 8d 05 7b 1b 00 00 	lea    0x1b7b(%rip),%rax        # 17080 <g_1130>
   15505:	48 01 d0             	add    %rdx,%rax
   15508:	0f b6 00             	movzbl (%rax),%eax
   1550b:	48 0f be c0          	movsbq %al,%rax
   1550f:	8b 55 fc             	mov    -0x4(%rbp),%edx
   15512:	48 8d 35 08 3b 00 00 	lea    0x3b08(%rip),%rsi        # 19021 <g_3500+0x1e51>
   15519:	48 89 c7             	mov    %rax,%rdi
   1551c:	e8 d2 61 ff ff       	callq  b6f3 <transparent_crc>
   15521:	83 7d fc 00          	cmpl   $0x0,-0x4(%rbp)
   15525:	74 1c                	je     15543 <main+0x7d4>
   15527:	8b 4d f8             	mov    -0x8(%rbp),%ecx
   1552a:	8b 55 f4             	mov    -0xc(%rbp),%edx
   1552d:	8b 45 f0             	mov    -0x10(%rbp),%eax
   15530:	89 c6                	mov    %eax,%esi
   15532:	48 8d 3d 06 3a 00 00 	lea    0x3a06(%rip),%rdi        # 18f3f <g_3500+0x1d6f>
   15539:	b8 00 00 00 00       	mov    $0x0,%eax
   1553e:	e8 3d 4b ff ff       	callq  a080 <printf@plt>
   15543:	83 45 f8 01          	addl   $0x1,-0x8(%rbp)
   15547:	83 7d f8 04          	cmpl   $0x4,-0x8(%rbp)
   1554b:	0f 8e 77 ff ff ff    	jle    154c8 <main+0x759>
   15551:	83 45 f4 01          	addl   $0x1,-0xc(%rbp)
   15555:	83 7d f4 08          	cmpl   $0x8,-0xc(%rbp)
   15559:	0f 8e 60 ff ff ff    	jle    154bf <main+0x750>
   1555f:	83 45 f0 01          	addl   $0x1,-0x10(%rbp)
   15563:	83 7d f0 04          	cmpl   $0x4,-0x10(%rbp)
   15567:	0f 8e 46 ff ff ff    	jle    154b3 <main+0x744>
   1556d:	8b 05 dd 6d 00 00    	mov    0x6ddd(%rip),%eax        # 1c350 <g_1172>
   15573:	48 98                	cltq   
   15575:	8b 55 fc             	mov    -0x4(%rbp),%edx
   15578:	48 8d 35 b2 3a 00 00 	lea    0x3ab2(%rip),%rsi        # 19031 <g_3500+0x1e61>
   1557f:	48 89 c7             	mov    %rax,%rdi
   15582:	e8 6c 61 ff ff       	callq  b6f3 <transparent_crc>
   15587:	0f b7 05 d2 6d 00 00 	movzwl 0x6dd2(%rip),%eax        # 1c360 <g_1256>
   1558e:	c1 e0 04             	shl    $0x4,%eax
   15591:	66 c1 f8 04          	sar    $0x4,%ax
   15595:	48 0f bf c0          	movswq %ax,%rax
   15599:	8b 55 fc             	mov    -0x4(%rbp),%edx
   1559c:	48 8d 35 95 3a 00 00 	lea    0x3a95(%rip),%rsi        # 19038 <g_3500+0x1e68>
   155a3:	48 89 c7             	mov    %rax,%rdi
   155a6:	e8 48 61 ff ff       	callq  b6f3 <transparent_crc>
   155ab:	8b 05 b3 6d 00 00    	mov    0x6db3(%rip),%eax        # 1c364 <g_1256+0x4>
   155b1:	48 98                	cltq   
   155b3:	8b 55 fc             	mov    -0x4(%rbp),%edx
   155b6:	48 8d 35 85 3a 00 00 	lea    0x3a85(%rip),%rsi        # 19042 <g_3500+0x1e72>
   155bd:	48 89 c7             	mov    %rax,%rdi
   155c0:	e8 2e 61 ff ff       	callq  b6f3 <transparent_crc>
   155c5:	48 8b 05 9c 6d 00 00 	mov    0x6d9c(%rip),%rax        # 1c368 <g_1256+0x8>
   155cc:	c1 e0 05             	shl    $0x5,%eax
   155cf:	c0 f8 05             	sar    $0x5,%al
   155d2:	48 0f be c0          	movsbq %al,%rax
   155d6:	8b 55 fc             	mov    -0x4(%rbp),%edx
   155d9:	48 8d 35 6c 3a 00 00 	lea    0x3a6c(%rip),%rsi        # 1904c <g_3500+0x1e7c>
   155e0:	48 89 c7             	mov    %rax,%rdi
   155e3:	e8 0b 61 ff ff       	callq  b6f3 <transparent_crc>
   155e8:	48 8b 05 79 6d 00 00 	mov    0x6d79(%rip),%rax        # 1c368 <g_1256+0x8>
   155ef:	c1 e0 02             	shl    $0x2,%eax
   155f2:	c1 f8 05             	sar    $0x5,%eax
   155f5:	48 98                	cltq   
   155f7:	8b 55 fc             	mov    -0x4(%rbp),%edx
   155fa:	48 8d 35 55 3a 00 00 	lea    0x3a55(%rip),%rsi        # 19056 <g_3500+0x1e86>
   15601:	48 89 c7             	mov    %rax,%rdi
   15604:	e8 ea 60 ff ff       	callq  b6f3 <transparent_crc>
   15609:	8b 05 5d 6d 00 00    	mov    0x6d5d(%rip),%eax        # 1c36c <g_1256+0xc>
   1560f:	25 ff ff 3f 00       	and    $0x3fffff,%eax
   15614:	89 c1                	mov    %eax,%ecx
   15616:	8b 45 fc             	mov    -0x4(%rbp),%eax
   15619:	89 c2                	mov    %eax,%edx
   1561b:	48 8d 35 3e 3a 00 00 	lea    0x3a3e(%rip),%rsi        # 19060 <g_3500+0x1e90>
   15622:	48 89 cf             	mov    %rcx,%rdi
   15625:	e8 c9 60 ff ff       	callq  b6f3 <transparent_crc>
   1562a:	0f b7 05 3f 6d 00 00 	movzwl 0x6d3f(%rip),%eax        # 1c370 <g_1257>
   15631:	c1 e0 04             	shl    $0x4,%eax
   15634:	66 c1 f8 04          	sar    $0x4,%ax
   15638:	48 0f bf c0          	movswq %ax,%rax
   1563c:	8b 55 fc             	mov    -0x4(%rbp),%edx
   1563f:	48 8d 35 24 3a 00 00 	lea    0x3a24(%rip),%rsi        # 1906a <g_3500+0x1e9a>
   15646:	48 89 c7             	mov    %rax,%rdi
   15649:	e8 a5 60 ff ff       	callq  b6f3 <transparent_crc>
   1564e:	8b 05 20 6d 00 00    	mov    0x6d20(%rip),%eax        # 1c374 <g_1257+0x4>
   15654:	48 98                	cltq   
   15656:	8b 55 fc             	mov    -0x4(%rbp),%edx
   15659:	48 8d 35 14 3a 00 00 	lea    0x3a14(%rip),%rsi        # 19074 <g_3500+0x1ea4>
   15660:	48 89 c7             	mov    %rax,%rdi
   15663:	e8 8b 60 ff ff       	callq  b6f3 <transparent_crc>
   15668:	48 8b 05 09 6d 00 00 	mov    0x6d09(%rip),%rax        # 1c378 <g_1257+0x8>
   1566f:	c1 e0 05             	shl    $0x5,%eax
   15672:	c0 f8 05             	sar    $0x5,%al
   15675:	48 0f be c0          	movsbq %al,%rax
   15679:	8b 55 fc             	mov    -0x4(%rbp),%edx
   1567c:	48 8d 35 fb 39 00 00 	lea    0x39fb(%rip),%rsi        # 1907e <g_3500+0x1eae>
   15683:	48 89 c7             	mov    %rax,%rdi
   15686:	e8 68 60 ff ff       	callq  b6f3 <transparent_crc>
   1568b:	48 8b 05 e6 6c 00 00 	mov    0x6ce6(%rip),%rax        # 1c378 <g_1257+0x8>
   15692:	c1 e0 02             	shl    $0x2,%eax
   15695:	c1 f8 05             	sar    $0x5,%eax
   15698:	48 98                	cltq   
   1569a:	8b 55 fc             	mov    -0x4(%rbp),%edx
   1569d:	48 8d 35 e4 39 00 00 	lea    0x39e4(%rip),%rsi        # 19088 <g_3500+0x1eb8>
   156a4:	48 89 c7             	mov    %rax,%rdi
   156a7:	e8 47 60 ff ff       	callq  b6f3 <transparent_crc>
   156ac:	8b 05 ca 6c 00 00    	mov    0x6cca(%rip),%eax        # 1c37c <g_1257+0xc>
   156b2:	25 ff ff 3f 00       	and    $0x3fffff,%eax
   156b7:	89 c1                	mov    %eax,%ecx
   156b9:	8b 45 fc             	mov    -0x4(%rbp),%eax
   156bc:	89 c2                	mov    %eax,%edx
   156be:	48 8d 35 cd 39 00 00 	lea    0x39cd(%rip),%rsi        # 19092 <g_3500+0x1ec2>
   156c5:	48 89 cf             	mov    %rcx,%rdi
   156c8:	e8 26 60 ff ff       	callq  b6f3 <transparent_crc>
   156cd:	c7 45 f0 00 00 00 00 	movl   $0x0,-0x10(%rbp)
   156d4:	e9 16 01 00 00       	jmpq   157ef <main+0xa80>
   156d9:	8b 45 f0             	mov    -0x10(%rbp),%eax
   156dc:	48 98                	cltq   
   156de:	48 c1 e0 04          	shl    $0x4,%rax
   156e2:	48 89 c2             	mov    %rax,%rdx
   156e5:	48 8d 05 94 6c 00 00 	lea    0x6c94(%rip),%rax        # 1c380 <g_1258>
   156ec:	0f b7 04 02          	movzwl (%rdx,%rax,1),%eax
   156f0:	c1 e0 04             	shl    $0x4,%eax
   156f3:	66 c1 f8 04          	sar    $0x4,%ax
   156f7:	48 0f bf c0          	movswq %ax,%rax
   156fb:	8b 55 fc             	mov    -0x4(%rbp),%edx
   156fe:	48 8d 35 97 39 00 00 	lea    0x3997(%rip),%rsi        # 1909c <g_3500+0x1ecc>
   15705:	48 89 c7             	mov    %rax,%rdi
   15708:	e8 e6 5f ff ff       	callq  b6f3 <transparent_crc>
   1570d:	8b 45 f0             	mov    -0x10(%rbp),%eax
   15710:	48 98                	cltq   
   15712:	48 c1 e0 04          	shl    $0x4,%rax
   15716:	48 89 c2             	mov    %rax,%rdx
   15719:	48 8d 05 64 6c 00 00 	lea    0x6c64(%rip),%rax        # 1c384 <g_1258+0x4>
   15720:	8b 04 02             	mov    (%rdx,%rax,1),%eax
   15723:	48 98                	cltq   
   15725:	8b 55 fc             	mov    -0x4(%rbp),%edx
   15728:	48 8d 35 7a 39 00 00 	lea    0x397a(%rip),%rsi        # 190a9 <g_3500+0x1ed9>
   1572f:	48 89 c7             	mov    %rax,%rdi
   15732:	e8 bc 5f ff ff       	callq  b6f3 <transparent_crc>
   15737:	8b 45 f0             	mov    -0x10(%rbp),%eax
   1573a:	48 98                	cltq   
   1573c:	48 c1 e0 04          	shl    $0x4,%rax
   15740:	48 89 c2             	mov    %rax,%rdx
   15743:	48 8d 05 36 6c 00 00 	lea    0x6c36(%rip),%rax        # 1c380 <g_1258>
   1574a:	48 8b 44 02 08       	mov    0x8(%rdx,%rax,1),%rax
   1574f:	c1 e0 05             	shl    $0x5,%eax
   15752:	c0 f8 05             	sar    $0x5,%al
   15755:	48 0f be c0          	movsbq %al,%rax
   15759:	8b 55 fc             	mov    -0x4(%rbp),%edx
   1575c:	48 8d 35 53 39 00 00 	lea    0x3953(%rip),%rsi        # 190b6 <g_3500+0x1ee6>
   15763:	48 89 c7             	mov    %rax,%rdi
   15766:	e8 88 5f ff ff       	callq  b6f3 <transparent_crc>
   1576b:	8b 45 f0             	mov    -0x10(%rbp),%eax
   1576e:	48 98                	cltq   
   15770:	48 c1 e0 04          	shl    $0x4,%rax
   15774:	48 89 c2             	mov    %rax,%rdx
   15777:	48 8d 05 02 6c 00 00 	lea    0x6c02(%rip),%rax        # 1c380 <g_1258>
   1577e:	48 8b 44 02 08       	mov    0x8(%rdx,%rax,1),%rax
   15783:	c1 e0 02             	shl    $0x2,%eax
   15786:	c1 f8 05             	sar    $0x5,%eax
   15789:	48 98                	cltq   
   1578b:	8b 55 fc             	mov    -0x4(%rbp),%edx
   1578e:	48 8d 35 2e 39 00 00 	lea    0x392e(%rip),%rsi        # 190c3 <g_3500+0x1ef3>
   15795:	48 89 c7             	mov    %rax,%rdi
   15798:	e8 56 5f ff ff       	callq  b6f3 <transparent_crc>
   1579d:	8b 45 f0             	mov    -0x10(%rbp),%eax
   157a0:	48 98                	cltq   
   157a2:	48 c1 e0 04          	shl    $0x4,%rax
   157a6:	48 89 c2             	mov    %rax,%rdx
   157a9:	48 8d 05 d0 6b 00 00 	lea    0x6bd0(%rip),%rax        # 1c380 <g_1258>
   157b0:	8b 44 02 0c          	mov    0xc(%rdx,%rax,1),%eax
   157b4:	25 ff ff 3f 00       	and    $0x3fffff,%eax
   157b9:	89 c1                	mov    %eax,%ecx
   157bb:	8b 45 fc             	mov    -0x4(%rbp),%eax
   157be:	89 c2                	mov    %eax,%edx
   157c0:	48 8d 35 09 39 00 00 	lea    0x3909(%rip),%rsi        # 190d0 <g_3500+0x1f00>
   157c7:	48 89 cf             	mov    %rcx,%rdi
   157ca:	e8 24 5f ff ff       	callq  b6f3 <transparent_crc>
   157cf:	83 7d fc 00          	cmpl   $0x0,-0x4(%rbp)
   157d3:	74 16                	je     157eb <main+0xa7c>
   157d5:	8b 45 f0             	mov    -0x10(%rbp),%eax
   157d8:	89 c6                	mov    %eax,%esi
   157da:	48 8d 3d a5 36 00 00 	lea    0x36a5(%rip),%rdi        # 18e86 <g_3500+0x1cb6>
   157e1:	b8 00 00 00 00       	mov    $0x0,%eax
   157e6:	e8 95 48 ff ff       	callq  a080 <printf@plt>
   157eb:	83 45 f0 01          	addl   $0x1,-0x10(%rbp)
   157ef:	83 7d f0 03          	cmpl   $0x3,-0x10(%rbp)
   157f3:	0f 8e e0 fe ff ff    	jle    156d9 <main+0x96a>
   157f9:	8b 05 c1 6b 00 00    	mov    0x6bc1(%rip),%eax        # 1c3c0 <g_1291>
   157ff:	89 c1                	mov    %eax,%ecx
   15801:	8b 45 fc             	mov    -0x4(%rbp),%eax
   15804:	89 c2                	mov    %eax,%edx
   15806:	48 8d 35 d0 38 00 00 	lea    0x38d0(%rip),%rsi        # 190dd <g_3500+0x1f0d>
   1580d:	48 89 cf             	mov    %rcx,%rdi
   15810:	e8 de 5e ff ff       	callq  b6f3 <transparent_crc>
   15815:	0f b6 05 a8 6b 00 00 	movzbl 0x6ba8(%rip),%eax        # 1c3c4 <g_1340>
   1581c:	48 0f be c0          	movsbq %al,%rax
   15820:	8b 55 fc             	mov    -0x4(%rbp),%edx
   15823:	48 8d 35 ba 38 00 00 	lea    0x38ba(%rip),%rsi        # 190e4 <g_3500+0x1f14>
   1582a:	48 89 c7             	mov    %rax,%rdi
   1582d:	e8 c1 5e ff ff       	callq  b6f3 <transparent_crc>
   15832:	0f b6 05 8c 6b 00 00 	movzbl 0x6b8c(%rip),%eax        # 1c3c5 <g_1386>
   15839:	48 0f be c0          	movsbq %al,%rax
   1583d:	8b 55 fc             	mov    -0x4(%rbp),%edx
   15840:	48 8d 35 a4 38 00 00 	lea    0x38a4(%rip),%rsi        # 190eb <g_3500+0x1f1b>
   15847:	48 89 c7             	mov    %rax,%rdi
   1584a:	e8 a4 5e ff ff       	callq  b6f3 <transparent_crc>
   1584f:	48 8b 05 7a 6b 00 00 	mov    0x6b7a(%rip),%rax        # 1c3d0 <g_1391>
   15856:	c1 e0 04             	shl    $0x4,%eax
   15859:	66 c1 f8 04          	sar    $0x4,%ax
   1585d:	48 0f bf c0          	movswq %ax,%rax
   15861:	8b 55 fc             	mov    -0x4(%rbp),%edx
   15864:	48 8d 35 87 38 00 00 	lea    0x3887(%rip),%rsi        # 190f2 <g_3500+0x1f22>
   1586b:	48 89 c7             	mov    %rax,%rdi
   1586e:	e8 80 5e ff ff       	callq  b6f3 <transparent_crc>
   15873:	8b 05 5b 6b 00 00    	mov    0x6b5b(%rip),%eax        # 1c3d4 <g_1391+0x4>
   15879:	48 98                	cltq   
   1587b:	8b 55 fc             	mov    -0x4(%rbp),%edx
   1587e:	48 8d 35 77 38 00 00 	lea    0x3877(%rip),%rsi        # 190fc <g_3500+0x1f2c>
   15885:	48 89 c7             	mov    %rax,%rdi
   15888:	e8 66 5e ff ff       	callq  b6f3 <transparent_crc>
   1588d:	48 8b 05 44 6b 00 00 	mov    0x6b44(%rip),%rax        # 1c3d8 <g_1391+0x8>
   15894:	c1 e0 05             	shl    $0x5,%eax
   15897:	c0 f8 05             	sar    $0x5,%al
   1589a:	48 0f be c0          	movsbq %al,%rax
   1589e:	8b 55 fc             	mov    -0x4(%rbp),%edx
   158a1:	48 8d 35 5e 38 00 00 	lea    0x385e(%rip),%rsi        # 19106 <g_3500+0x1f36>
   158a8:	48 89 c7             	mov    %rax,%rdi
   158ab:	e8 43 5e ff ff       	callq  b6f3 <transparent_crc>
   158b0:	48 8b 05 21 6b 00 00 	mov    0x6b21(%rip),%rax        # 1c3d8 <g_1391+0x8>
   158b7:	c1 e0 02             	shl    $0x2,%eax
   158ba:	c1 f8 05             	sar    $0x5,%eax
   158bd:	48 98                	cltq   
   158bf:	8b 55 fc             	mov    -0x4(%rbp),%edx
   158c2:	48 8d 35 47 38 00 00 	lea    0x3847(%rip),%rsi        # 19110 <g_3500+0x1f40>
   158c9:	48 89 c7             	mov    %rax,%rdi
   158cc:	e8 22 5e ff ff       	callq  b6f3 <transparent_crc>
   158d1:	48 8b 05 00 6b 00 00 	mov    0x6b00(%rip),%rax        # 1c3d8 <g_1391+0x8>
   158d8:	48 c1 e8 20          	shr    $0x20,%rax
   158dc:	25 ff ff 3f 00       	and    $0x3fffff,%eax
   158e1:	89 c1                	mov    %eax,%ecx
   158e3:	8b 45 fc             	mov    -0x4(%rbp),%eax
   158e6:	89 c2                	mov    %eax,%edx
   158e8:	48 8d 35 2b 38 00 00 	lea    0x382b(%rip),%rsi        # 1911a <g_3500+0x1f4a>
   158ef:	48 89 cf             	mov    %rcx,%rdi
   158f2:	e8 fc 5d ff ff       	callq  b6f3 <transparent_crc>
   158f7:	0f b6 05 e2 6a 00 00 	movzbl 0x6ae2(%rip),%eax        # 1c3e0 <g_1428>
   158fe:	0f b6 c0             	movzbl %al,%eax
   15901:	8b 55 fc             	mov    -0x4(%rbp),%edx
   15904:	48 8d 35 19 38 00 00 	lea    0x3819(%rip),%rsi        # 19124 <g_3500+0x1f54>
   1590b:	48 89 c7             	mov    %rax,%rdi
   1590e:	e8 e0 5d ff ff       	callq  b6f3 <transparent_crc>
   15913:	48 b9 6c e1 5f 31 2d 	movabs $0x2d621f2d315fe16c,%rcx
   1591a:	1f 62 2d 
   1591d:	8b 45 fc             	mov    -0x4(%rbp),%eax
   15920:	89 c2                	mov    %eax,%edx
   15922:	48 8d 35 02 38 00 00 	lea    0x3802(%rip),%rsi        # 1912b <g_3500+0x1f5b>
   15929:	48 89 cf             	mov    %rcx,%rdi
   1592c:	e8 c2 5d ff ff       	callq  b6f3 <transparent_crc>
   15931:	48 8b 05 b0 6a 00 00 	mov    0x6ab0(%rip),%rax        # 1c3e8 <g_1472>
   15938:	48 89 c1             	mov    %rax,%rcx
   1593b:	8b 45 fc             	mov    -0x4(%rbp),%eax
   1593e:	89 c2                	mov    %eax,%edx
   15940:	48 8d 35 eb 37 00 00 	lea    0x37eb(%rip),%rsi        # 19132 <g_3500+0x1f62>
   15947:	48 89 cf             	mov    %rcx,%rdi
   1594a:	e8 a4 5d ff ff       	callq  b6f3 <transparent_crc>
   1594f:	8b 05 9b 6a 00 00    	mov    0x6a9b(%rip),%eax        # 1c3f0 <g_1504>
   15955:	48 98                	cltq   
   15957:	8b 55 fc             	mov    -0x4(%rbp),%edx
   1595a:	48 8d 35 d8 37 00 00 	lea    0x37d8(%rip),%rsi        # 19139 <g_3500+0x1f69>
   15961:	48 89 c7             	mov    %rax,%rdi
   15964:	e8 8a 5d ff ff       	callq  b6f3 <transparent_crc>
   15969:	48 8b 05 90 6a 00 00 	mov    0x6a90(%rip),%rax        # 1c400 <g_1615>
   15970:	c1 e0 04             	shl    $0x4,%eax
   15973:	66 c1 f8 04          	sar    $0x4,%ax
   15977:	48 0f bf c0          	movswq %ax,%rax
   1597b:	8b 55 fc             	mov    -0x4(%rbp),%edx
   1597e:	48 8d 35 bb 37 00 00 	lea    0x37bb(%rip),%rsi        # 19140 <g_3500+0x1f70>
   15985:	48 89 c7             	mov    %rax,%rdi
   15988:	e8 66 5d ff ff       	callq  b6f3 <transparent_crc>
   1598d:	8b 05 71 6a 00 00    	mov    0x6a71(%rip),%eax        # 1c404 <g_1615+0x4>
   15993:	48 98                	cltq   
   15995:	8b 55 fc             	mov    -0x4(%rbp),%edx
   15998:	48 8d 35 ab 37 00 00 	lea    0x37ab(%rip),%rsi        # 1914a <g_3500+0x1f7a>
   1599f:	48 89 c7             	mov    %rax,%rdi
   159a2:	e8 4c 5d ff ff       	callq  b6f3 <transparent_crc>
   159a7:	48 8b 05 5a 6a 00 00 	mov    0x6a5a(%rip),%rax        # 1c408 <g_1615+0x8>
   159ae:	c1 e0 05             	shl    $0x5,%eax
   159b1:	c0 f8 05             	sar    $0x5,%al
   159b4:	48 0f be c0          	movsbq %al,%rax
   159b8:	8b 55 fc             	mov    -0x4(%rbp),%edx
   159bb:	48 8d 35 92 37 00 00 	lea    0x3792(%rip),%rsi        # 19154 <g_3500+0x1f84>
   159c2:	48 89 c7             	mov    %rax,%rdi
   159c5:	e8 29 5d ff ff       	callq  b6f3 <transparent_crc>
   159ca:	48 8b 05 37 6a 00 00 	mov    0x6a37(%rip),%rax        # 1c408 <g_1615+0x8>
   159d1:	c1 e0 02             	shl    $0x2,%eax
   159d4:	c1 f8 05             	sar    $0x5,%eax
   159d7:	48 98                	cltq   
   159d9:	8b 55 fc             	mov    -0x4(%rbp),%edx
   159dc:	48 8d 35 7b 37 00 00 	lea    0x377b(%rip),%rsi        # 1915e <g_3500+0x1f8e>
   159e3:	48 89 c7             	mov    %rax,%rdi
   159e6:	e8 08 5d ff ff       	callq  b6f3 <transparent_crc>
   159eb:	48 8b 05 16 6a 00 00 	mov    0x6a16(%rip),%rax        # 1c408 <g_1615+0x8>
   159f2:	48 c1 e8 20          	shr    $0x20,%rax
   159f6:	25 ff ff 3f 00       	and    $0x3fffff,%eax
   159fb:	89 c1                	mov    %eax,%ecx
   159fd:	8b 45 fc             	mov    -0x4(%rbp),%eax
   15a00:	89 c2                	mov    %eax,%edx
   15a02:	48 8d 35 5f 37 00 00 	lea    0x375f(%rip),%rsi        # 19168 <g_3500+0x1f98>
   15a09:	48 89 cf             	mov    %rcx,%rdi
   15a0c:	e8 e2 5c ff ff       	callq  b6f3 <transparent_crc>
   15a11:	0f b7 05 f8 69 00 00 	movzwl 0x69f8(%rip),%eax        # 1c410 <g_1627>
   15a18:	c1 e0 04             	shl    $0x4,%eax
   15a1b:	66 c1 f8 04          	sar    $0x4,%ax
   15a1f:	48 0f bf c0          	movswq %ax,%rax
   15a23:	8b 55 fc             	mov    -0x4(%rbp),%edx
   15a26:	48 8d 35 45 37 00 00 	lea    0x3745(%rip),%rsi        # 19172 <g_3500+0x1fa2>
   15a2d:	48 89 c7             	mov    %rax,%rdi
   15a30:	e8 be 5c ff ff       	callq  b6f3 <transparent_crc>
   15a35:	8b 05 d9 69 00 00    	mov    0x69d9(%rip),%eax        # 1c414 <g_1627+0x4>
   15a3b:	48 98                	cltq   
   15a3d:	8b 55 fc             	mov    -0x4(%rbp),%edx
   15a40:	48 8d 35 35 37 00 00 	lea    0x3735(%rip),%rsi        # 1917c <g_3500+0x1fac>
   15a47:	48 89 c7             	mov    %rax,%rdi
   15a4a:	e8 a4 5c ff ff       	callq  b6f3 <transparent_crc>
   15a4f:	48 8b 05 c2 69 00 00 	mov    0x69c2(%rip),%rax        # 1c418 <g_1627+0x8>
   15a56:	c1 e0 05             	shl    $0x5,%eax
   15a59:	c0 f8 05             	sar    $0x5,%al
   15a5c:	48 0f be c0          	movsbq %al,%rax
   15a60:	8b 55 fc             	mov    -0x4(%rbp),%edx
   15a63:	48 8d 35 1c 37 00 00 	lea    0x371c(%rip),%rsi        # 19186 <g_3500+0x1fb6>
   15a6a:	48 89 c7             	mov    %rax,%rdi
   15a6d:	e8 81 5c ff ff       	callq  b6f3 <transparent_crc>
   15a72:	48 8b 05 9f 69 00 00 	mov    0x699f(%rip),%rax        # 1c418 <g_1627+0x8>
   15a79:	c1 e0 02             	shl    $0x2,%eax
   15a7c:	c1 f8 05             	sar    $0x5,%eax
   15a7f:	48 98                	cltq   
   15a81:	8b 55 fc             	mov    -0x4(%rbp),%edx
   15a84:	48 8d 35 05 37 00 00 	lea    0x3705(%rip),%rsi        # 19190 <g_3500+0x1fc0>
   15a8b:	48 89 c7             	mov    %rax,%rdi
   15a8e:	e8 60 5c ff ff       	callq  b6f3 <transparent_crc>
   15a93:	8b 05 83 69 00 00    	mov    0x6983(%rip),%eax        # 1c41c <g_1627+0xc>
   15a99:	25 ff ff 3f 00       	and    $0x3fffff,%eax
   15a9e:	89 c1                	mov    %eax,%ecx
   15aa0:	8b 45 fc             	mov    -0x4(%rbp),%eax
   15aa3:	89 c2                	mov    %eax,%edx
   15aa5:	48 8d 35 ee 36 00 00 	lea    0x36ee(%rip),%rsi        # 1919a <g_3500+0x1fca>
   15aac:	48 89 cf             	mov    %rcx,%rdi
   15aaf:	e8 3f 5c ff ff       	callq  b6f3 <transparent_crc>
   15ab4:	0f b7 05 75 b2 00 00 	movzwl 0xb275(%rip),%eax        # 20d30 <g_1725>
   15abb:	0f b7 c0             	movzwl %ax,%eax
   15abe:	8b 55 fc             	mov    -0x4(%rbp),%edx
   15ac1:	48 8d 35 dc 36 00 00 	lea    0x36dc(%rip),%rsi        # 191a4 <g_3500+0x1fd4>
   15ac8:	48 89 c7             	mov    %rax,%rdi
   15acb:	e8 23 5c ff ff       	callq  b6f3 <transparent_crc>
   15ad0:	0f b7 05 49 69 00 00 	movzwl 0x6949(%rip),%eax        # 1c420 <g_1805>
   15ad7:	48 0f bf c0          	movswq %ax,%rax
   15adb:	8b 55 fc             	mov    -0x4(%rbp),%edx
   15ade:	48 8d 35 c6 36 00 00 	lea    0x36c6(%rip),%rsi        # 191ab <g_3500+0x1fdb>
   15ae5:	48 89 c7             	mov    %rax,%rdi
   15ae8:	e8 06 5c ff ff       	callq  b6f3 <transparent_crc>
   15aed:	8b 05 3d 69 00 00    	mov    0x693d(%rip),%eax        # 1c430 <g_1945>
   15af3:	48 98                	cltq   
   15af5:	8b 55 fc             	mov    -0x4(%rbp),%edx
   15af8:	48 8d 35 b3 36 00 00 	lea    0x36b3(%rip),%rsi        # 191b2 <g_3500+0x1fe2>
   15aff:	48 89 c7             	mov    %rax,%rdi
   15b02:	e8 ec 5b ff ff       	callq  b6f3 <transparent_crc>
   15b07:	c7 45 f0 00 00 00 00 	movl   $0x0,-0x10(%rbp)
   15b0e:	eb 75                	jmp    15b85 <main+0xe16>
   15b10:	c7 45 f4 00 00 00 00 	movl   $0x0,-0xc(%rbp)
   15b17:	eb 62                	jmp    15b7b <main+0xe0c>
   15b19:	8b 45 f4             	mov    -0xc(%rbp),%eax
   15b1c:	48 63 c8             	movslq %eax,%rcx
   15b1f:	8b 45 f0             	mov    -0x10(%rbp),%eax
   15b22:	48 63 d0             	movslq %eax,%rdx
   15b25:	48 89 d0             	mov    %rdx,%rax
   15b28:	48 01 c0             	add    %rax,%rax
   15b2b:	48 01 d0             	add    %rdx,%rax
   15b2e:	48 01 c0             	add    %rax,%rax
   15b31:	48 01 c8             	add    %rcx,%rax
   15b34:	48 8d 14 00          	lea    (%rax,%rax,1),%rdx
   15b38:	48 8d 05 01 69 00 00 	lea    0x6901(%rip),%rax        # 1c440 <g_1948>
   15b3f:	0f b7 04 02          	movzwl (%rdx,%rax,1),%eax
   15b43:	0f b7 c0             	movzwl %ax,%eax
   15b46:	8b 55 fc             	mov    -0x4(%rbp),%edx
   15b49:	48 8d 35 69 36 00 00 	lea    0x3669(%rip),%rsi        # 191b9 <g_3500+0x1fe9>
   15b50:	48 89 c7             	mov    %rax,%rdi
   15b53:	e8 9b 5b ff ff       	callq  b6f3 <transparent_crc>
   15b58:	83 7d fc 00          	cmpl   $0x0,-0x4(%rbp)
   15b5c:	74 19                	je     15b77 <main+0xe08>
   15b5e:	8b 55 f4             	mov    -0xc(%rbp),%edx
   15b61:	8b 45 f0             	mov    -0x10(%rbp),%eax
   15b64:	89 c6                	mov    %eax,%esi
   15b66:	48 8d 3d a5 33 00 00 	lea    0x33a5(%rip),%rdi        # 18f12 <g_3500+0x1d42>
   15b6d:	b8 00 00 00 00       	mov    $0x0,%eax
   15b72:	e8 09 45 ff ff       	callq  a080 <printf@plt>
   15b77:	83 45 f4 01          	addl   $0x1,-0xc(%rbp)
   15b7b:	83 7d f4 05          	cmpl   $0x5,-0xc(%rbp)
   15b7f:	7e 98                	jle    15b19 <main+0xdaa>
   15b81:	83 45 f0 01          	addl   $0x1,-0x10(%rbp)
   15b85:	83 7d f0 07          	cmpl   $0x7,-0x10(%rbp)
   15b89:	7e 85                	jle    15b10 <main+0xda1>
   15b8b:	8b 05 0f 69 00 00    	mov    0x690f(%rip),%eax        # 1c4a0 <g_1949>
   15b91:	89 c1                	mov    %eax,%ecx
   15b93:	8b 45 fc             	mov    -0x4(%rbp),%eax
   15b96:	89 c2                	mov    %eax,%edx
   15b98:	48 8d 35 27 36 00 00 	lea    0x3627(%rip),%rsi        # 191c6 <g_3500+0x1ff6>
   15b9f:	48 89 cf             	mov    %rcx,%rdi
   15ba2:	e8 4c 5b ff ff       	callq  b6f3 <transparent_crc>
   15ba7:	48 8b 05 fa 68 00 00 	mov    0x68fa(%rip),%rax        # 1c4a8 <g_1954>
   15bae:	48 89 c1             	mov    %rax,%rcx
   15bb1:	8b 45 fc             	mov    -0x4(%rbp),%eax
   15bb4:	89 c2                	mov    %eax,%edx
   15bb6:	48 8d 35 10 36 00 00 	lea    0x3610(%rip),%rsi        # 191cd <g_3500+0x1ffd>
   15bbd:	48 89 cf             	mov    %rcx,%rdi
   15bc0:	e8 2e 5b ff ff       	callq  b6f3 <transparent_crc>
   15bc5:	0f b7 05 e4 68 00 00 	movzwl 0x68e4(%rip),%eax        # 1c4b0 <g_1974>
   15bcc:	c1 e0 04             	shl    $0x4,%eax
   15bcf:	66 c1 f8 04          	sar    $0x4,%ax
   15bd3:	48 0f bf c0          	movswq %ax,%rax
   15bd7:	8b 55 fc             	mov    -0x4(%rbp),%edx
   15bda:	48 8d 35 f3 35 00 00 	lea    0x35f3(%rip),%rsi        # 191d4 <g_3500+0x2004>
   15be1:	48 89 c7             	mov    %rax,%rdi
   15be4:	e8 0a 5b ff ff       	callq  b6f3 <transparent_crc>
   15be9:	8b 05 c5 68 00 00    	mov    0x68c5(%rip),%eax        # 1c4b4 <g_1974+0x4>
   15bef:	48 98                	cltq   
   15bf1:	8b 55 fc             	mov    -0x4(%rbp),%edx
   15bf4:	48 8d 35 e3 35 00 00 	lea    0x35e3(%rip),%rsi        # 191de <g_3500+0x200e>
   15bfb:	48 89 c7             	mov    %rax,%rdi
   15bfe:	e8 f0 5a ff ff       	callq  b6f3 <transparent_crc>
   15c03:	48 8b 05 ae 68 00 00 	mov    0x68ae(%rip),%rax        # 1c4b8 <g_1974+0x8>
   15c0a:	c1 e0 05             	shl    $0x5,%eax
   15c0d:	c0 f8 05             	sar    $0x5,%al
   15c10:	48 0f be c0          	movsbq %al,%rax
   15c14:	8b 55 fc             	mov    -0x4(%rbp),%edx
   15c17:	48 8d 35 ca 35 00 00 	lea    0x35ca(%rip),%rsi        # 191e8 <g_3500+0x2018>
   15c1e:	48 89 c7             	mov    %rax,%rdi
   15c21:	e8 cd 5a ff ff       	callq  b6f3 <transparent_crc>
   15c26:	48 8b 05 8b 68 00 00 	mov    0x688b(%rip),%rax        # 1c4b8 <g_1974+0x8>
   15c2d:	c1 e0 02             	shl    $0x2,%eax
   15c30:	c1 f8 05             	sar    $0x5,%eax
   15c33:	48 98                	cltq   
   15c35:	8b 55 fc             	mov    -0x4(%rbp),%edx
   15c38:	48 8d 35 b3 35 00 00 	lea    0x35b3(%rip),%rsi        # 191f2 <g_3500+0x2022>
   15c3f:	48 89 c7             	mov    %rax,%rdi
   15c42:	e8 ac 5a ff ff       	callq  b6f3 <transparent_crc>
   15c47:	8b 05 6f 68 00 00    	mov    0x686f(%rip),%eax        # 1c4bc <g_1974+0xc>
   15c4d:	25 ff ff 3f 00       	and    $0x3fffff,%eax
   15c52:	89 c1                	mov    %eax,%ecx
   15c54:	8b 45 fc             	mov    -0x4(%rbp),%eax
   15c57:	89 c2                	mov    %eax,%edx
   15c59:	48 8d 35 9c 35 00 00 	lea    0x359c(%rip),%rsi        # 191fc <g_3500+0x202c>
   15c60:	48 89 cf             	mov    %rcx,%rdi
   15c63:	e8 8b 5a ff ff       	callq  b6f3 <transparent_crc>
   15c68:	48 8b 05 51 68 00 00 	mov    0x6851(%rip),%rax        # 1c4c0 <g_1975>
   15c6f:	c1 e0 04             	shl    $0x4,%eax
   15c72:	66 c1 f8 04          	sar    $0x4,%ax
   15c76:	48 0f bf c0          	movswq %ax,%rax
   15c7a:	8b 55 fc             	mov    -0x4(%rbp),%edx
   15c7d:	48 8d 35 82 35 00 00 	lea    0x3582(%rip),%rsi        # 19206 <g_3500+0x2036>
   15c84:	48 89 c7             	mov    %rax,%rdi
   15c87:	e8 67 5a ff ff       	callq  b6f3 <transparent_crc>
   15c8c:	8b 05 32 68 00 00    	mov    0x6832(%rip),%eax        # 1c4c4 <g_1975+0x4>
   15c92:	48 98                	cltq   
   15c94:	8b 55 fc             	mov    -0x4(%rbp),%edx
   15c97:	48 8d 35 72 35 00 00 	lea    0x3572(%rip),%rsi        # 19210 <g_3500+0x2040>
   15c9e:	48 89 c7             	mov    %rax,%rdi
   15ca1:	e8 4d 5a ff ff       	callq  b6f3 <transparent_crc>
   15ca6:	48 8b 05 1b 68 00 00 	mov    0x681b(%rip),%rax        # 1c4c8 <g_1975+0x8>
   15cad:	c1 e0 05             	shl    $0x5,%eax
   15cb0:	c0 f8 05             	sar    $0x5,%al
   15cb3:	48 0f be c0          	movsbq %al,%rax
   15cb7:	8b 55 fc             	mov    -0x4(%rbp),%edx
   15cba:	48 8d 35 59 35 00 00 	lea    0x3559(%rip),%rsi        # 1921a <g_3500+0x204a>
   15cc1:	48 89 c7             	mov    %rax,%rdi
   15cc4:	e8 2a 5a ff ff       	callq  b6f3 <transparent_crc>
   15cc9:	48 8b 05 f8 67 00 00 	mov    0x67f8(%rip),%rax        # 1c4c8 <g_1975+0x8>
   15cd0:	c1 e0 02             	shl    $0x2,%eax
   15cd3:	c1 f8 05             	sar    $0x5,%eax
   15cd6:	48 98                	cltq   
   15cd8:	8b 55 fc             	mov    -0x4(%rbp),%edx
   15cdb:	48 8d 35 42 35 00 00 	lea    0x3542(%rip),%rsi        # 19224 <g_3500+0x2054>
   15ce2:	48 89 c7             	mov    %rax,%rdi
   15ce5:	e8 09 5a ff ff       	callq  b6f3 <transparent_crc>
   15cea:	48 8b 05 d7 67 00 00 	mov    0x67d7(%rip),%rax        # 1c4c8 <g_1975+0x8>
   15cf1:	48 c1 e8 20          	shr    $0x20,%rax
   15cf5:	25 ff ff 3f 00       	and    $0x3fffff,%eax
   15cfa:	89 c1                	mov    %eax,%ecx
   15cfc:	8b 45 fc             	mov    -0x4(%rbp),%eax
   15cff:	89 c2                	mov    %eax,%edx
   15d01:	48 8d 35 26 35 00 00 	lea    0x3526(%rip),%rsi        # 1922e <g_3500+0x205e>
   15d08:	48 89 cf             	mov    %rcx,%rdi
   15d0b:	e8 e3 59 ff ff       	callq  b6f3 <transparent_crc>
   15d10:	48 8b 05 b9 67 00 00 	mov    0x67b9(%rip),%rax        # 1c4d0 <g_2134>
   15d17:	c1 e0 04             	shl    $0x4,%eax
   15d1a:	66 c1 f8 04          	sar    $0x4,%ax
   15d1e:	48 0f bf c0          	movswq %ax,%rax
   15d22:	8b 55 fc             	mov    -0x4(%rbp),%edx
   15d25:	48 8d 35 0c 35 00 00 	lea    0x350c(%rip),%rsi        # 19238 <g_3500+0x2068>
   15d2c:	48 89 c7             	mov    %rax,%rdi
   15d2f:	e8 bf 59 ff ff       	callq  b6f3 <transparent_crc>
   15d34:	8b 05 9a 67 00 00    	mov    0x679a(%rip),%eax        # 1c4d4 <g_2134+0x4>
   15d3a:	48 98                	cltq   
   15d3c:	8b 55 fc             	mov    -0x4(%rbp),%edx
   15d3f:	48 8d 35 fc 34 00 00 	lea    0x34fc(%rip),%rsi        # 19242 <g_3500+0x2072>
   15d46:	48 89 c7             	mov    %rax,%rdi
   15d49:	e8 a5 59 ff ff       	callq  b6f3 <transparent_crc>
   15d4e:	48 8b 05 83 67 00 00 	mov    0x6783(%rip),%rax        # 1c4d8 <g_2134+0x8>
   15d55:	c1 e0 05             	shl    $0x5,%eax
   15d58:	c0 f8 05             	sar    $0x5,%al
   15d5b:	48 0f be c0          	movsbq %al,%rax
   15d5f:	8b 55 fc             	mov    -0x4(%rbp),%edx
   15d62:	48 8d 35 e3 34 00 00 	lea    0x34e3(%rip),%rsi        # 1924c <g_3500+0x207c>
   15d69:	48 89 c7             	mov    %rax,%rdi
   15d6c:	e8 82 59 ff ff       	callq  b6f3 <transparent_crc>
   15d71:	48 8b 05 60 67 00 00 	mov    0x6760(%rip),%rax        # 1c4d8 <g_2134+0x8>
   15d78:	c1 e0 02             	shl    $0x2,%eax
   15d7b:	c1 f8 05             	sar    $0x5,%eax
   15d7e:	48 98                	cltq   
   15d80:	8b 55 fc             	mov    -0x4(%rbp),%edx
   15d83:	48 8d 35 cc 34 00 00 	lea    0x34cc(%rip),%rsi        # 19256 <g_3500+0x2086>
   15d8a:	48 89 c7             	mov    %rax,%rdi
   15d8d:	e8 61 59 ff ff       	callq  b6f3 <transparent_crc>
   15d92:	48 8b 05 3f 67 00 00 	mov    0x673f(%rip),%rax        # 1c4d8 <g_2134+0x8>
   15d99:	48 c1 e8 20          	shr    $0x20,%rax
   15d9d:	25 ff ff 3f 00       	and    $0x3fffff,%eax
   15da2:	89 c1                	mov    %eax,%ecx
   15da4:	8b 45 fc             	mov    -0x4(%rbp),%eax
   15da7:	89 c2                	mov    %eax,%edx
   15da9:	48 8d 35 b0 34 00 00 	lea    0x34b0(%rip),%rsi        # 19260 <g_3500+0x2090>
   15db0:	48 89 cf             	mov    %rcx,%rdi
   15db3:	e8 3b 59 ff ff       	callq  b6f3 <transparent_crc>
   15db8:	8b 05 22 67 00 00    	mov    0x6722(%rip),%eax        # 1c4e0 <g_2165>
   15dbe:	48 98                	cltq   
   15dc0:	8b 55 fc             	mov    -0x4(%rbp),%edx
   15dc3:	48 8d 35 a0 34 00 00 	lea    0x34a0(%rip),%rsi        # 1926a <g_3500+0x209a>
   15dca:	48 89 c7             	mov    %rax,%rdi
   15dcd:	e8 21 59 ff ff       	callq  b6f3 <transparent_crc>
   15dd2:	48 8b 05 0f 67 00 00 	mov    0x670f(%rip),%rax        # 1c4e8 <g_2221>
   15dd9:	48 89 c1             	mov    %rax,%rcx
   15ddc:	8b 45 fc             	mov    -0x4(%rbp),%eax
   15ddf:	89 c2                	mov    %eax,%edx
   15de1:	48 8d 35 89 34 00 00 	lea    0x3489(%rip),%rsi        # 19271 <g_3500+0x20a1>
   15de8:	48 89 cf             	mov    %rcx,%rdi
   15deb:	e8 03 59 ff ff       	callq  b6f3 <transparent_crc>
   15df0:	c7 45 f0 00 00 00 00 	movl   $0x0,-0x10(%rbp)
   15df7:	eb 4a                	jmp    15e43 <main+0x10d4>
   15df9:	8b 45 f0             	mov    -0x10(%rbp),%eax
   15dfc:	48 98                	cltq   
   15dfe:	48 8d 14 c5 00 00 00 	lea    0x0(,%rax,8),%rdx
   15e05:	00 
   15e06:	48 8d 05 73 13 00 00 	lea    0x1373(%rip),%rax        # 17180 <g_2280>
   15e0d:	48 8b 04 02          	mov    (%rdx,%rax,1),%rax
   15e11:	8b 55 fc             	mov    -0x4(%rbp),%edx
   15e14:	48 8d 35 5d 34 00 00 	lea    0x345d(%rip),%rsi        # 19278 <g_3500+0x20a8>
   15e1b:	48 89 c7             	mov    %rax,%rdi
   15e1e:	e8 d0 58 ff ff       	callq  b6f3 <transparent_crc>
   15e23:	83 7d fc 00          	cmpl   $0x0,-0x4(%rbp)
   15e27:	74 16                	je     15e3f <main+0x10d0>
   15e29:	8b 45 f0             	mov    -0x10(%rbp),%eax
   15e2c:	89 c6                	mov    %eax,%esi
   15e2e:	48 8d 3d 51 30 00 00 	lea    0x3051(%rip),%rdi        # 18e86 <g_3500+0x1cb6>
   15e35:	b8 00 00 00 00       	mov    $0x0,%eax
   15e3a:	e8 41 42 ff ff       	callq  a080 <printf@plt>
   15e3f:	83 45 f0 01          	addl   $0x1,-0x10(%rbp)
   15e43:	83 7d f0 09          	cmpl   $0x9,-0x10(%rbp)
   15e47:	7e b0                	jle    15df9 <main+0x108a>
   15e49:	8b 05 a1 66 00 00    	mov    0x66a1(%rip),%eax        # 1c4f0 <g_2336>
   15e4f:	48 98                	cltq   
   15e51:	8b 55 fc             	mov    -0x4(%rbp),%edx
   15e54:	48 8d 35 27 34 00 00 	lea    0x3427(%rip),%rsi        # 19282 <g_3500+0x20b2>
   15e5b:	48 89 c7             	mov    %rax,%rdi
   15e5e:	e8 90 58 ff ff       	callq  b6f3 <transparent_crc>
   15e63:	0f b7 05 96 66 00 00 	movzwl 0x6696(%rip),%eax        # 1c500 <g_2624>
   15e6a:	c1 e0 04             	shl    $0x4,%eax
   15e6d:	66 c1 f8 04          	sar    $0x4,%ax
   15e71:	48 0f bf c0          	movswq %ax,%rax
   15e75:	8b 55 fc             	mov    -0x4(%rbp),%edx
   15e78:	48 8d 35 0a 34 00 00 	lea    0x340a(%rip),%rsi        # 19289 <g_3500+0x20b9>
   15e7f:	48 89 c7             	mov    %rax,%rdi
   15e82:	e8 6c 58 ff ff       	callq  b6f3 <transparent_crc>
   15e87:	8b 05 77 66 00 00    	mov    0x6677(%rip),%eax        # 1c504 <g_2624+0x4>
   15e8d:	48 98                	cltq   
   15e8f:	8b 55 fc             	mov    -0x4(%rbp),%edx
   15e92:	48 8d 35 fa 33 00 00 	lea    0x33fa(%rip),%rsi        # 19293 <g_3500+0x20c3>
   15e99:	48 89 c7             	mov    %rax,%rdi
   15e9c:	e8 52 58 ff ff       	callq  b6f3 <transparent_crc>
   15ea1:	48 8b 05 60 66 00 00 	mov    0x6660(%rip),%rax        # 1c508 <g_2624+0x8>
   15ea8:	c1 e0 05             	shl    $0x5,%eax
   15eab:	c0 f8 05             	sar    $0x5,%al
   15eae:	48 0f be c0          	movsbq %al,%rax
   15eb2:	8b 55 fc             	mov    -0x4(%rbp),%edx
   15eb5:	48 8d 35 e1 33 00 00 	lea    0x33e1(%rip),%rsi        # 1929d <g_3500+0x20cd>
   15ebc:	48 89 c7             	mov    %rax,%rdi
   15ebf:	e8 2f 58 ff ff       	callq  b6f3 <transparent_crc>
   15ec4:	48 8b 05 3d 66 00 00 	mov    0x663d(%rip),%rax        # 1c508 <g_2624+0x8>
   15ecb:	c1 e0 02             	shl    $0x2,%eax
   15ece:	c1 f8 05             	sar    $0x5,%eax
   15ed1:	48 98                	cltq   
   15ed3:	8b 55 fc             	mov    -0x4(%rbp),%edx
   15ed6:	48 8d 35 ca 33 00 00 	lea    0x33ca(%rip),%rsi        # 192a7 <g_3500+0x20d7>
   15edd:	48 89 c7             	mov    %rax,%rdi
   15ee0:	e8 0e 58 ff ff       	callq  b6f3 <transparent_crc>
   15ee5:	8b 05 21 66 00 00    	mov    0x6621(%rip),%eax        # 1c50c <g_2624+0xc>
   15eeb:	25 ff ff 3f 00       	and    $0x3fffff,%eax
   15ef0:	89 c1                	mov    %eax,%ecx
   15ef2:	8b 45 fc             	mov    -0x4(%rbp),%eax
   15ef5:	89 c2                	mov    %eax,%edx
   15ef7:	48 8d 35 b3 33 00 00 	lea    0x33b3(%rip),%rsi        # 192b1 <g_3500+0x20e1>
   15efe:	48 89 cf             	mov    %rcx,%rdi
   15f01:	e8 ed 57 ff ff       	callq  b6f3 <transparent_crc>
   15f06:	48 8b 05 03 66 00 00 	mov    0x6603(%rip),%rax        # 1c510 <g_2628>
   15f0d:	8b 55 fc             	mov    -0x4(%rbp),%edx
   15f10:	48 8d 35 a4 33 00 00 	lea    0x33a4(%rip),%rsi        # 192bb <g_3500+0x20eb>
   15f17:	48 89 c7             	mov    %rax,%rdi
   15f1a:	e8 d4 57 ff ff       	callq  b6f3 <transparent_crc>
   15f1f:	48 8b 05 fa 65 00 00 	mov    0x65fa(%rip),%rax        # 1c520 <g_2638>
   15f26:	c1 e0 04             	shl    $0x4,%eax
   15f29:	66 c1 f8 04          	sar    $0x4,%ax
   15f2d:	48 0f bf c0          	movswq %ax,%rax
   15f31:	8b 55 fc             	mov    -0x4(%rbp),%edx
   15f34:	48 8d 35 87 33 00 00 	lea    0x3387(%rip),%rsi        # 192c2 <g_3500+0x20f2>
   15f3b:	48 89 c7             	mov    %rax,%rdi
   15f3e:	e8 b0 57 ff ff       	callq  b6f3 <transparent_crc>
   15f43:	8b 05 db 65 00 00    	mov    0x65db(%rip),%eax        # 1c524 <g_2638+0x4>
   15f49:	48 98                	cltq   
   15f4b:	8b 55 fc             	mov    -0x4(%rbp),%edx
   15f4e:	48 8d 35 77 33 00 00 	lea    0x3377(%rip),%rsi        # 192cc <g_3500+0x20fc>
   15f55:	48 89 c7             	mov    %rax,%rdi
   15f58:	e8 96 57 ff ff       	callq  b6f3 <transparent_crc>
   15f5d:	48 8b 05 c4 65 00 00 	mov    0x65c4(%rip),%rax        # 1c528 <g_2638+0x8>
   15f64:	c1 e0 05             	shl    $0x5,%eax
   15f67:	c0 f8 05             	sar    $0x5,%al
   15f6a:	48 0f be c0          	movsbq %al,%rax
   15f6e:	8b 55 fc             	mov    -0x4(%rbp),%edx
   15f71:	48 8d 35 5e 33 00 00 	lea    0x335e(%rip),%rsi        # 192d6 <g_3500+0x2106>
   15f78:	48 89 c7             	mov    %rax,%rdi
   15f7b:	e8 73 57 ff ff       	callq  b6f3 <transparent_crc>
   15f80:	48 8b 05 a1 65 00 00 	mov    0x65a1(%rip),%rax        # 1c528 <g_2638+0x8>
   15f87:	c1 e0 02             	shl    $0x2,%eax
   15f8a:	c1 f8 05             	sar    $0x5,%eax
   15f8d:	48 98                	cltq   
   15f8f:	8b 55 fc             	mov    -0x4(%rbp),%edx
   15f92:	48 8d 35 47 33 00 00 	lea    0x3347(%rip),%rsi        # 192e0 <g_3500+0x2110>
   15f99:	48 89 c7             	mov    %rax,%rdi
   15f9c:	e8 52 57 ff ff       	callq  b6f3 <transparent_crc>
   15fa1:	48 8b 05 80 65 00 00 	mov    0x6580(%rip),%rax        # 1c528 <g_2638+0x8>
   15fa8:	48 c1 e8 20          	shr    $0x20,%rax
   15fac:	25 ff ff 3f 00       	and    $0x3fffff,%eax
   15fb1:	89 c1                	mov    %eax,%ecx
   15fb3:	8b 45 fc             	mov    -0x4(%rbp),%eax
   15fb6:	89 c2                	mov    %eax,%edx
   15fb8:	48 8d 35 2b 33 00 00 	lea    0x332b(%rip),%rsi        # 192ea <g_3500+0x211a>
   15fbf:	48 89 cf             	mov    %rcx,%rdi
   15fc2:	e8 2c 57 ff ff       	callq  b6f3 <transparent_crc>
   15fc7:	48 8b 05 62 65 00 00 	mov    0x6562(%rip),%rax        # 1c530 <g_2653>
   15fce:	8b 55 fc             	mov    -0x4(%rbp),%edx
   15fd1:	48 8d 35 1c 33 00 00 	lea    0x331c(%rip),%rsi        # 192f4 <g_3500+0x2124>
   15fd8:	48 89 c7             	mov    %rax,%rdi
   15fdb:	e8 13 57 ff ff       	callq  b6f3 <transparent_crc>
   15fe0:	0f b7 05 59 65 00 00 	movzwl 0x6559(%rip),%eax        # 1c540 <g_2663>
   15fe7:	c1 e0 04             	shl    $0x4,%eax
   15fea:	66 c1 f8 04          	sar    $0x4,%ax
   15fee:	48 0f bf c0          	movswq %ax,%rax
   15ff2:	8b 55 fc             	mov    -0x4(%rbp),%edx
   15ff5:	48 8d 35 ff 32 00 00 	lea    0x32ff(%rip),%rsi        # 192fb <g_3500+0x212b>
   15ffc:	48 89 c7             	mov    %rax,%rdi
   15fff:	e8 ef 56 ff ff       	callq  b6f3 <transparent_crc>
   16004:	8b 05 3a 65 00 00    	mov    0x653a(%rip),%eax        # 1c544 <g_2663+0x4>
   1600a:	48 98                	cltq   
   1600c:	8b 55 fc             	mov    -0x4(%rbp),%edx
   1600f:	48 8d 35 ef 32 00 00 	lea    0x32ef(%rip),%rsi        # 19305 <g_3500+0x2135>
   16016:	48 89 c7             	mov    %rax,%rdi
   16019:	e8 d5 56 ff ff       	callq  b6f3 <transparent_crc>
   1601e:	48 8b 05 23 65 00 00 	mov    0x6523(%rip),%rax        # 1c548 <g_2663+0x8>
   16025:	c1 e0 05             	shl    $0x5,%eax
   16028:	c0 f8 05             	sar    $0x5,%al
   1602b:	48 0f be c0          	movsbq %al,%rax
   1602f:	8b 55 fc             	mov    -0x4(%rbp),%edx
   16032:	48 8d 35 d6 32 00 00 	lea    0x32d6(%rip),%rsi        # 1930f <g_3500+0x213f>
   16039:	48 89 c7             	mov    %rax,%rdi
   1603c:	e8 b2 56 ff ff       	callq  b6f3 <transparent_crc>
   16041:	48 8b 05 00 65 00 00 	mov    0x6500(%rip),%rax        # 1c548 <g_2663+0x8>
   16048:	c1 e0 02             	shl    $0x2,%eax
   1604b:	c1 f8 05             	sar    $0x5,%eax
   1604e:	48 98                	cltq   
   16050:	8b 55 fc             	mov    -0x4(%rbp),%edx
   16053:	48 8d 35 bf 32 00 00 	lea    0x32bf(%rip),%rsi        # 19319 <g_3500+0x2149>
   1605a:	48 89 c7             	mov    %rax,%rdi
   1605d:	e8 91 56 ff ff       	callq  b6f3 <transparent_crc>
   16062:	8b 05 e4 64 00 00    	mov    0x64e4(%rip),%eax        # 1c54c <g_2663+0xc>
   16068:	25 ff ff 3f 00       	and    $0x3fffff,%eax
   1606d:	89 c1                	mov    %eax,%ecx
   1606f:	8b 45 fc             	mov    -0x4(%rbp),%eax
   16072:	89 c2                	mov    %eax,%edx
   16074:	48 8d 35 a8 32 00 00 	lea    0x32a8(%rip),%rsi        # 19323 <g_3500+0x2153>
   1607b:	48 89 cf             	mov    %rcx,%rdi
   1607e:	e8 70 56 ff ff       	callq  b6f3 <transparent_crc>
   16083:	48 8b 05 c6 64 00 00 	mov    0x64c6(%rip),%rax        # 1c550 <g_2697>
   1608a:	8b 55 fc             	mov    -0x4(%rbp),%edx
   1608d:	48 8d 35 99 32 00 00 	lea    0x3299(%rip),%rsi        # 1932d <g_3500+0x215d>
   16094:	48 89 c7             	mov    %rax,%rdi
   16097:	e8 57 56 ff ff       	callq  b6f3 <transparent_crc>
   1609c:	c7 45 f0 00 00 00 00 	movl   $0x0,-0x10(%rbp)
   160a3:	eb 4a                	jmp    160ef <main+0x1380>
   160a5:	8b 45 f0             	mov    -0x10(%rbp),%eax
   160a8:	48 98                	cltq   
   160aa:	48 8d 14 c5 00 00 00 	lea    0x0(,%rax,8),%rdx
   160b1:	00 
   160b2:	48 8d 05 a7 64 00 00 	lea    0x64a7(%rip),%rax        # 1c560 <g_2779>
   160b9:	48 8b 04 02          	mov    (%rdx,%rax,1),%rax
   160bd:	8b 55 fc             	mov    -0x4(%rbp),%edx
   160c0:	48 8d 35 6d 32 00 00 	lea    0x326d(%rip),%rsi        # 19334 <g_3500+0x2164>
   160c7:	48 89 c7             	mov    %rax,%rdi
   160ca:	e8 24 56 ff ff       	callq  b6f3 <transparent_crc>
   160cf:	83 7d fc 00          	cmpl   $0x0,-0x4(%rbp)
   160d3:	74 16                	je     160eb <main+0x137c>
   160d5:	8b 45 f0             	mov    -0x10(%rbp),%eax
   160d8:	89 c6                	mov    %eax,%esi
   160da:	48 8d 3d a5 2d 00 00 	lea    0x2da5(%rip),%rdi        # 18e86 <g_3500+0x1cb6>
   160e1:	b8 00 00 00 00       	mov    $0x0,%eax
   160e6:	e8 95 3f ff ff       	callq  a080 <printf@plt>
   160eb:	83 45 f0 01          	addl   $0x1,-0x10(%rbp)
   160ef:	83 7d f0 03          	cmpl   $0x3,-0x10(%rbp)
   160f3:	7e b0                	jle    160a5 <main+0x1336>
   160f5:	0f b7 05 84 64 00 00 	movzwl 0x6484(%rip),%eax        # 1c580 <g_2870>
   160fc:	c1 e0 04             	shl    $0x4,%eax
   160ff:	66 c1 f8 04          	sar    $0x4,%ax
   16103:	48 0f bf c0          	movswq %ax,%rax
   16107:	8b 55 fc             	mov    -0x4(%rbp),%edx
   1610a:	48 8d 35 2d 32 00 00 	lea    0x322d(%rip),%rsi        # 1933e <g_3500+0x216e>
   16111:	48 89 c7             	mov    %rax,%rdi
   16114:	e8 da 55 ff ff       	callq  b6f3 <transparent_crc>
   16119:	8b 05 65 64 00 00    	mov    0x6465(%rip),%eax        # 1c584 <g_2870+0x4>
   1611f:	48 98                	cltq   
   16121:	8b 55 fc             	mov    -0x4(%rbp),%edx
   16124:	48 8d 35 1d 32 00 00 	lea    0x321d(%rip),%rsi        # 19348 <g_3500+0x2178>
   1612b:	48 89 c7             	mov    %rax,%rdi
   1612e:	e8 c0 55 ff ff       	callq  b6f3 <transparent_crc>
   16133:	48 8b 05 4e 64 00 00 	mov    0x644e(%rip),%rax        # 1c588 <g_2870+0x8>
   1613a:	c1 e0 05             	shl    $0x5,%eax
   1613d:	c0 f8 05             	sar    $0x5,%al
   16140:	48 0f be c0          	movsbq %al,%rax
   16144:	8b 55 fc             	mov    -0x4(%rbp),%edx
   16147:	48 8d 35 04 32 00 00 	lea    0x3204(%rip),%rsi        # 19352 <g_3500+0x2182>
   1614e:	48 89 c7             	mov    %rax,%rdi
   16151:	e8 9d 55 ff ff       	callq  b6f3 <transparent_crc>
   16156:	48 8b 05 2b 64 00 00 	mov    0x642b(%rip),%rax        # 1c588 <g_2870+0x8>
   1615d:	c1 e0 02             	shl    $0x2,%eax
   16160:	c1 f8 05             	sar    $0x5,%eax
   16163:	48 98                	cltq   
   16165:	8b 55 fc             	mov    -0x4(%rbp),%edx
   16168:	48 8d 35 ed 31 00 00 	lea    0x31ed(%rip),%rsi        # 1935c <g_3500+0x218c>
   1616f:	48 89 c7             	mov    %rax,%rdi
   16172:	e8 7c 55 ff ff       	callq  b6f3 <transparent_crc>
   16177:	8b 05 0f 64 00 00    	mov    0x640f(%rip),%eax        # 1c58c <g_2870+0xc>
   1617d:	25 ff ff 3f 00       	and    $0x3fffff,%eax
   16182:	89 c1                	mov    %eax,%ecx
   16184:	8b 45 fc             	mov    -0x4(%rbp),%eax
   16187:	89 c2                	mov    %eax,%edx
   16189:	48 8d 35 d6 31 00 00 	lea    0x31d6(%rip),%rsi        # 19366 <g_3500+0x2196>
   16190:	48 89 cf             	mov    %rcx,%rdi
   16193:	e8 5b 55 ff ff       	callq  b6f3 <transparent_crc>
   16198:	c7 45 f0 00 00 00 00 	movl   $0x0,-0x10(%rbp)
   1619f:	e9 8c 00 00 00       	jmpq   16230 <main+0x14c1>
   161a4:	c7 45 f4 00 00 00 00 	movl   $0x0,-0xc(%rbp)
   161ab:	eb 79                	jmp    16226 <main+0x14b7>
   161ad:	c7 45 f8 00 00 00 00 	movl   $0x0,-0x8(%rbp)
   161b4:	eb 66                	jmp    1621c <main+0x14ad>
   161b6:	8b 45 f8             	mov    -0x8(%rbp),%eax
   161b9:	48 63 d0             	movslq %eax,%rdx
   161bc:	8b 45 f4             	mov    -0xc(%rbp),%eax
   161bf:	48 98                	cltq   
   161c1:	8b 4d f0             	mov    -0x10(%rbp),%ecx
   161c4:	48 63 c9             	movslq %ecx,%rcx
   161c7:	48 c1 e1 03          	shl    $0x3,%rcx
   161cb:	48 01 ca             	add    %rcx,%rdx
   161ce:	48 01 d0             	add    %rdx,%rax
   161d1:	48 8d 14 00          	lea    (%rax,%rax,1),%rdx
   161d5:	48 8d 05 c4 63 00 00 	lea    0x63c4(%rip),%rax        # 1c5a0 <g_2896>
   161dc:	0f b7 04 02          	movzwl (%rdx,%rax,1),%eax
   161e0:	48 0f bf c0          	movswq %ax,%rax
   161e4:	8b 55 fc             	mov    -0x4(%rbp),%edx
   161e7:	48 8d 35 82 31 00 00 	lea    0x3182(%rip),%rsi        # 19370 <g_3500+0x21a0>
   161ee:	48 89 c7             	mov    %rax,%rdi
   161f1:	e8 fd 54 ff ff       	callq  b6f3 <transparent_crc>
   161f6:	83 7d fc 00          	cmpl   $0x0,-0x4(%rbp)
   161fa:	74 1c                	je     16218 <main+0x14a9>
   161fc:	8b 4d f8             	mov    -0x8(%rbp),%ecx
   161ff:	8b 55 f4             	mov    -0xc(%rbp),%edx
   16202:	8b 45 f0             	mov    -0x10(%rbp),%eax
   16205:	89 c6                	mov    %eax,%esi
   16207:	48 8d 3d 31 2d 00 00 	lea    0x2d31(%rip),%rdi        # 18f3f <g_3500+0x1d6f>
   1620e:	b8 00 00 00 00       	mov    $0x0,%eax
   16213:	e8 68 3e ff ff       	callq  a080 <printf@plt>
   16218:	83 45 f8 01          	addl   $0x1,-0x8(%rbp)
   1621c:	83 7d f8 00          	cmpl   $0x0,-0x8(%rbp)
   16220:	7e 94                	jle    161b6 <main+0x1447>
   16222:	83 45 f4 01          	addl   $0x1,-0xc(%rbp)
   16226:	83 7d f4 07          	cmpl   $0x7,-0xc(%rbp)
   1622a:	7e 81                	jle    161ad <main+0x143e>
   1622c:	83 45 f0 01          	addl   $0x1,-0x10(%rbp)
   16230:	83 7d f0 02          	cmpl   $0x2,-0x10(%rbp)
   16234:	0f 8e 6a ff ff ff    	jle    161a4 <main+0x1435>
   1623a:	c7 45 f0 00 00 00 00 	movl   $0x0,-0x10(%rbp)
   16241:	e9 16 01 00 00       	jmpq   1635c <main+0x15ed>
   16246:	8b 45 f0             	mov    -0x10(%rbp),%eax
   16249:	48 98                	cltq   
   1624b:	48 c1 e0 04          	shl    $0x4,%rax
   1624f:	48 89 c2             	mov    %rax,%rdx
   16252:	48 8d 05 87 63 00 00 	lea    0x6387(%rip),%rax        # 1c5e0 <g_2951>
   16259:	0f b7 04 02          	movzwl (%rdx,%rax,1),%eax
   1625d:	c1 e0 04             	shl    $0x4,%eax
   16260:	66 c1 f8 04          	sar    $0x4,%ax
   16264:	48 0f bf c0          	movswq %ax,%rax
   16268:	8b 55 fc             	mov    -0x4(%rbp),%edx
   1626b:	48 8d 35 0e 31 00 00 	lea    0x310e(%rip),%rsi        # 19380 <g_3500+0x21b0>
   16272:	48 89 c7             	mov    %rax,%rdi
   16275:	e8 79 54 ff ff       	callq  b6f3 <transparent_crc>
   1627a:	8b 45 f0             	mov    -0x10(%rbp),%eax
   1627d:	48 98                	cltq   
   1627f:	48 c1 e0 04          	shl    $0x4,%rax
   16283:	48 89 c2             	mov    %rax,%rdx
   16286:	48 8d 05 57 63 00 00 	lea    0x6357(%rip),%rax        # 1c5e4 <g_2951+0x4>
   1628d:	8b 04 02             	mov    (%rdx,%rax,1),%eax
   16290:	48 98                	cltq   
   16292:	8b 55 fc             	mov    -0x4(%rbp),%edx
   16295:	48 8d 35 f1 30 00 00 	lea    0x30f1(%rip),%rsi        # 1938d <g_3500+0x21bd>
   1629c:	48 89 c7             	mov    %rax,%rdi
   1629f:	e8 4f 54 ff ff       	callq  b6f3 <transparent_crc>
   162a4:	8b 45 f0             	mov    -0x10(%rbp),%eax
   162a7:	48 98                	cltq   
   162a9:	48 c1 e0 04          	shl    $0x4,%rax
   162ad:	48 89 c2             	mov    %rax,%rdx
   162b0:	48 8d 05 29 63 00 00 	lea    0x6329(%rip),%rax        # 1c5e0 <g_2951>
   162b7:	48 8b 44 02 08       	mov    0x8(%rdx,%rax,1),%rax
   162bc:	c1 e0 05             	shl    $0x5,%eax
   162bf:	c0 f8 05             	sar    $0x5,%al
   162c2:	48 0f be c0          	movsbq %al,%rax
   162c6:	8b 55 fc             	mov    -0x4(%rbp),%edx
   162c9:	48 8d 35 ca 30 00 00 	lea    0x30ca(%rip),%rsi        # 1939a <g_3500+0x21ca>
   162d0:	48 89 c7             	mov    %rax,%rdi
   162d3:	e8 1b 54 ff ff       	callq  b6f3 <transparent_crc>
   162d8:	8b 45 f0             	mov    -0x10(%rbp),%eax
   162db:	48 98                	cltq   
   162dd:	48 c1 e0 04          	shl    $0x4,%rax
   162e1:	48 89 c2             	mov    %rax,%rdx
   162e4:	48 8d 05 f5 62 00 00 	lea    0x62f5(%rip),%rax        # 1c5e0 <g_2951>
   162eb:	48 8b 44 02 08       	mov    0x8(%rdx,%rax,1),%rax
   162f0:	c1 e0 02             	shl    $0x2,%eax
   162f3:	c1 f8 05             	sar    $0x5,%eax
   162f6:	48 98                	cltq   
   162f8:	8b 55 fc             	mov    -0x4(%rbp),%edx
   162fb:	48 8d 35 a5 30 00 00 	lea    0x30a5(%rip),%rsi        # 193a7 <g_3500+0x21d7>
   16302:	48 89 c7             	mov    %rax,%rdi
   16305:	e8 e9 53 ff ff       	callq  b6f3 <transparent_crc>
   1630a:	8b 45 f0             	mov    -0x10(%rbp),%eax
   1630d:	48 98                	cltq   
   1630f:	48 c1 e0 04          	shl    $0x4,%rax
   16313:	48 89 c2             	mov    %rax,%rdx
   16316:	48 8d 05 c3 62 00 00 	lea    0x62c3(%rip),%rax        # 1c5e0 <g_2951>
   1631d:	8b 44 02 0c          	mov    0xc(%rdx,%rax,1),%eax
   16321:	25 ff ff 3f 00       	and    $0x3fffff,%eax
   16326:	89 c1                	mov    %eax,%ecx
   16328:	8b 45 fc             	mov    -0x4(%rbp),%eax
   1632b:	89 c2                	mov    %eax,%edx
   1632d:	48 8d 35 80 30 00 00 	lea    0x3080(%rip),%rsi        # 193b4 <g_3500+0x21e4>
   16334:	48 89 cf             	mov    %rcx,%rdi
   16337:	e8 b7 53 ff ff       	callq  b6f3 <transparent_crc>
   1633c:	83 7d fc 00          	cmpl   $0x0,-0x4(%rbp)
   16340:	74 16                	je     16358 <main+0x15e9>
   16342:	8b 45 f0             	mov    -0x10(%rbp),%eax
   16345:	89 c6                	mov    %eax,%esi
   16347:	48 8d 3d 38 2b 00 00 	lea    0x2b38(%rip),%rdi        # 18e86 <g_3500+0x1cb6>
   1634e:	b8 00 00 00 00       	mov    $0x0,%eax
   16353:	e8 28 3d ff ff       	callq  a080 <printf@plt>
   16358:	83 45 f0 01          	addl   $0x1,-0x10(%rbp)
   1635c:	83 7d f0 05          	cmpl   $0x5,-0x10(%rbp)
   16360:	0f 8e e0 fe ff ff    	jle    16246 <main+0x14d7>
   16366:	c7 45 f0 00 00 00 00 	movl   $0x0,-0x10(%rbp)
   1636d:	eb 4a                	jmp    163b9 <main+0x164a>
   1636f:	8b 45 f0             	mov    -0x10(%rbp),%eax
   16372:	48 98                	cltq   
   16374:	48 8d 14 00          	lea    (%rax,%rax,1),%rdx
   16378:	48 8d 05 c1 62 00 00 	lea    0x62c1(%rip),%rax        # 1c640 <g_2979>
   1637f:	0f b7 04 02          	movzwl (%rdx,%rax,1),%eax
   16383:	48 0f bf c0          	movswq %ax,%rax
   16387:	8b 55 fc             	mov    -0x4(%rbp),%edx
   1638a:	48 8d 35 30 30 00 00 	lea    0x3030(%rip),%rsi        # 193c1 <g_3500+0x21f1>
   16391:	48 89 c7             	mov    %rax,%rdi
   16394:	e8 5a 53 ff ff       	callq  b6f3 <transparent_crc>
   16399:	83 7d fc 00          	cmpl   $0x0,-0x4(%rbp)
   1639d:	74 16                	je     163b5 <main+0x1646>
   1639f:	8b 45 f0             	mov    -0x10(%rbp),%eax
   163a2:	89 c6                	mov    %eax,%esi
   163a4:	48 8d 3d db 2a 00 00 	lea    0x2adb(%rip),%rdi        # 18e86 <g_3500+0x1cb6>
   163ab:	b8 00 00 00 00       	mov    $0x0,%eax
   163b0:	e8 cb 3c ff ff       	callq  a080 <printf@plt>
   163b5:	83 45 f0 01          	addl   $0x1,-0x10(%rbp)
   163b9:	83 7d f0 02          	cmpl   $0x2,-0x10(%rbp)
   163bd:	7e b0                	jle    1636f <main+0x1600>
   163bf:	0f b7 05 80 62 00 00 	movzwl 0x6280(%rip),%eax        # 1c646 <g_3153>
   163c6:	0f b7 c0             	movzwl %ax,%eax
   163c9:	8b 55 fc             	mov    -0x4(%rbp),%edx
   163cc:	48 8d 35 f8 2f 00 00 	lea    0x2ff8(%rip),%rsi        # 193cb <g_3500+0x21fb>
   163d3:	48 89 c7             	mov    %rax,%rdi
   163d6:	e8 18 53 ff ff       	callq  b6f3 <transparent_crc>
   163db:	0f b6 05 66 62 00 00 	movzbl 0x6266(%rip),%eax        # 1c648 <g_3173>
   163e2:	0f b6 c0             	movzbl %al,%eax
   163e5:	8b 55 fc             	mov    -0x4(%rbp),%edx
   163e8:	48 8d 35 e3 2f 00 00 	lea    0x2fe3(%rip),%rsi        # 193d2 <g_3500+0x2202>
   163ef:	48 89 c7             	mov    %rax,%rdi
   163f2:	e8 fc 52 ff ff       	callq  b6f3 <transparent_crc>
   163f7:	0f b7 05 4c 62 00 00 	movzwl 0x624c(%rip),%eax        # 1c64a <g_3219>
   163fe:	48 0f bf c0          	movswq %ax,%rax
   16402:	8b 55 fc             	mov    -0x4(%rbp),%edx
   16405:	48 8d 35 cd 2f 00 00 	lea    0x2fcd(%rip),%rsi        # 193d9 <g_3500+0x2209>
   1640c:	48 89 c7             	mov    %rax,%rdi
   1640f:	e8 df 52 ff ff       	callq  b6f3 <transparent_crc>
   16414:	0f b7 05 35 62 00 00 	movzwl 0x6235(%rip),%eax        # 1c650 <g_3268>
   1641b:	c1 e0 04             	shl    $0x4,%eax
   1641e:	66 c1 f8 04          	sar    $0x4,%ax
   16422:	48 0f bf c0          	movswq %ax,%rax
   16426:	8b 55 fc             	mov    -0x4(%rbp),%edx
   16429:	48 8d 35 b0 2f 00 00 	lea    0x2fb0(%rip),%rsi        # 193e0 <g_3500+0x2210>
   16430:	48 89 c7             	mov    %rax,%rdi
   16433:	e8 bb 52 ff ff       	callq  b6f3 <transparent_crc>
   16438:	8b 05 16 62 00 00    	mov    0x6216(%rip),%eax        # 1c654 <g_3268+0x4>
   1643e:	48 98                	cltq   
   16440:	8b 55 fc             	mov    -0x4(%rbp),%edx
   16443:	48 8d 35 a0 2f 00 00 	lea    0x2fa0(%rip),%rsi        # 193ea <g_3500+0x221a>
   1644a:	48 89 c7             	mov    %rax,%rdi
   1644d:	e8 a1 52 ff ff       	callq  b6f3 <transparent_crc>
   16452:	48 8b 05 ff 61 00 00 	mov    0x61ff(%rip),%rax        # 1c658 <g_3268+0x8>
   16459:	c1 e0 05             	shl    $0x5,%eax
   1645c:	c0 f8 05             	sar    $0x5,%al
   1645f:	48 0f be c0          	movsbq %al,%rax
   16463:	8b 55 fc             	mov    -0x4(%rbp),%edx
   16466:	48 8d 35 87 2f 00 00 	lea    0x2f87(%rip),%rsi        # 193f4 <g_3500+0x2224>
   1646d:	48 89 c7             	mov    %rax,%rdi
   16470:	e8 7e 52 ff ff       	callq  b6f3 <transparent_crc>
   16475:	48 8b 05 dc 61 00 00 	mov    0x61dc(%rip),%rax        # 1c658 <g_3268+0x8>
   1647c:	c1 e0 02             	shl    $0x2,%eax
   1647f:	c1 f8 05             	sar    $0x5,%eax
   16482:	48 98                	cltq   
   16484:	8b 55 fc             	mov    -0x4(%rbp),%edx
   16487:	48 8d 35 70 2f 00 00 	lea    0x2f70(%rip),%rsi        # 193fe <g_3500+0x222e>
   1648e:	48 89 c7             	mov    %rax,%rdi
   16491:	e8 5d 52 ff ff       	callq  b6f3 <transparent_crc>
   16496:	8b 05 c0 61 00 00    	mov    0x61c0(%rip),%eax        # 1c65c <g_3268+0xc>
   1649c:	25 ff ff 3f 00       	and    $0x3fffff,%eax
   164a1:	89 c1                	mov    %eax,%ecx
   164a3:	8b 45 fc             	mov    -0x4(%rbp),%eax
   164a6:	89 c2                	mov    %eax,%edx
   164a8:	48 8d 35 59 2f 00 00 	lea    0x2f59(%rip),%rsi        # 19408 <g_3500+0x2238>
   164af:	48 89 cf             	mov    %rcx,%rdi
   164b2:	e8 3c 52 ff ff       	callq  b6f3 <transparent_crc>
   164b7:	0f b6 05 a2 61 00 00 	movzbl 0x61a2(%rip),%eax        # 1c660 <g_3347>
   164be:	0f b6 c0             	movzbl %al,%eax
   164c1:	8b 55 fc             	mov    -0x4(%rbp),%edx
   164c4:	48 8d 35 47 2f 00 00 	lea    0x2f47(%rip),%rsi        # 19412 <g_3500+0x2242>
   164cb:	48 89 c7             	mov    %rax,%rdi
   164ce:	e8 20 52 ff ff       	callq  b6f3 <transparent_crc>
   164d3:	c7 45 f0 00 00 00 00 	movl   $0x0,-0x10(%rbp)
   164da:	e9 92 01 00 00       	jmpq   16671 <main+0x1902>
   164df:	c7 45 f4 00 00 00 00 	movl   $0x0,-0xc(%rbp)
   164e6:	e9 78 01 00 00       	jmpq   16663 <main+0x18f4>
   164eb:	8b 45 f4             	mov    -0xc(%rbp),%eax
   164ee:	48 63 c8             	movslq %eax,%rcx
   164f1:	8b 45 f0             	mov    -0x10(%rbp),%eax
   164f4:	48 63 d0             	movslq %eax,%rdx
   164f7:	48 89 d0             	mov    %rdx,%rax
   164fa:	48 01 c0             	add    %rax,%rax
   164fd:	48 01 d0             	add    %rdx,%rax
   16500:	48 01 c8             	add    %rcx,%rax
   16503:	48 c1 e0 04          	shl    $0x4,%rax
   16507:	48 89 c2             	mov    %rax,%rdx
   1650a:	48 8d 05 6f 61 00 00 	lea    0x616f(%rip),%rax        # 1c680 <g_3443>
   16511:	0f b7 04 02          	movzwl (%rdx,%rax,1),%eax
   16515:	c1 e0 04             	shl    $0x4,%eax
   16518:	66 c1 f8 04          	sar    $0x4,%ax
   1651c:	48 0f bf c0          	movswq %ax,%rax
   16520:	8b 55 fc             	mov    -0x4(%rbp),%edx
   16523:	48 8d 35 ef 2e 00 00 	lea    0x2eef(%rip),%rsi        # 19419 <g_3500+0x2249>
   1652a:	48 89 c7             	mov    %rax,%rdi
   1652d:	e8 c1 51 ff ff       	callq  b6f3 <transparent_crc>
   16532:	8b 45 f4             	mov    -0xc(%rbp),%eax
   16535:	48 63 c8             	movslq %eax,%rcx
   16538:	8b 45 f0             	mov    -0x10(%rbp),%eax
   1653b:	48 63 d0             	movslq %eax,%rdx
   1653e:	48 89 d0             	mov    %rdx,%rax
   16541:	48 01 c0             	add    %rax,%rax
   16544:	48 01 d0             	add    %rdx,%rax
   16547:	48 01 c8             	add    %rcx,%rax
   1654a:	48 c1 e0 04          	shl    $0x4,%rax
   1654e:	48 89 c2             	mov    %rax,%rdx
   16551:	48 8d 05 2c 61 00 00 	lea    0x612c(%rip),%rax        # 1c684 <g_3443+0x4>
   16558:	8b 04 02             	mov    (%rdx,%rax,1),%eax
   1655b:	48 98                	cltq   
   1655d:	8b 55 fc             	mov    -0x4(%rbp),%edx
   16560:	48 8d 35 c2 2e 00 00 	lea    0x2ec2(%rip),%rsi        # 19429 <g_3500+0x2259>
   16567:	48 89 c7             	mov    %rax,%rdi
   1656a:	e8 84 51 ff ff       	callq  b6f3 <transparent_crc>
   1656f:	8b 45 f4             	mov    -0xc(%rbp),%eax
   16572:	48 63 c8             	movslq %eax,%rcx
   16575:	8b 45 f0             	mov    -0x10(%rbp),%eax
   16578:	48 63 d0             	movslq %eax,%rdx
   1657b:	48 89 d0             	mov    %rdx,%rax
   1657e:	48 01 c0             	add    %rax,%rax
   16581:	48 01 d0             	add    %rdx,%rax
   16584:	48 01 c8             	add    %rcx,%rax
   16587:	48 c1 e0 04          	shl    $0x4,%rax
   1658b:	48 89 c2             	mov    %rax,%rdx
   1658e:	48 8d 05 eb 60 00 00 	lea    0x60eb(%rip),%rax        # 1c680 <g_3443>
   16595:	48 8b 44 02 08       	mov    0x8(%rdx,%rax,1),%rax
   1659a:	c1 e0 05             	shl    $0x5,%eax
   1659d:	c0 f8 05             	sar    $0x5,%al
   165a0:	48 0f be c0          	movsbq %al,%rax
   165a4:	8b 55 fc             	mov    -0x4(%rbp),%edx
   165a7:	48 8d 35 8b 2e 00 00 	lea    0x2e8b(%rip),%rsi        # 19439 <g_3500+0x2269>
   165ae:	48 89 c7             	mov    %rax,%rdi
   165b1:	e8 3d 51 ff ff       	callq  b6f3 <transparent_crc>
   165b6:	8b 45 f4             	mov    -0xc(%rbp),%eax
   165b9:	48 63 c8             	movslq %eax,%rcx
   165bc:	8b 45 f0             	mov    -0x10(%rbp),%eax
   165bf:	48 63 d0             	movslq %eax,%rdx
   165c2:	48 89 d0             	mov    %rdx,%rax
   165c5:	48 01 c0             	add    %rax,%rax
   165c8:	48 01 d0             	add    %rdx,%rax
   165cb:	48 01 c8             	add    %rcx,%rax
   165ce:	48 c1 e0 04          	shl    $0x4,%rax
   165d2:	48 89 c2             	mov    %rax,%rdx
   165d5:	48 8d 05 a4 60 00 00 	lea    0x60a4(%rip),%rax        # 1c680 <g_3443>
   165dc:	48 8b 44 02 08       	mov    0x8(%rdx,%rax,1),%rax
   165e1:	c1 e0 02             	shl    $0x2,%eax
   165e4:	c1 f8 05             	sar    $0x5,%eax
   165e7:	48 98                	cltq   
   165e9:	8b 55 fc             	mov    -0x4(%rbp),%edx
   165ec:	48 8d 35 56 2e 00 00 	lea    0x2e56(%rip),%rsi        # 19449 <g_3500+0x2279>
   165f3:	48 89 c7             	mov    %rax,%rdi
   165f6:	e8 f8 50 ff ff       	callq  b6f3 <transparent_crc>
   165fb:	8b 45 f4             	mov    -0xc(%rbp),%eax
   165fe:	48 63 c8             	movslq %eax,%rcx
   16601:	8b 45 f0             	mov    -0x10(%rbp),%eax
   16604:	48 63 d0             	movslq %eax,%rdx
   16607:	48 89 d0             	mov    %rdx,%rax
   1660a:	48 01 c0             	add    %rax,%rax
   1660d:	48 01 d0             	add    %rdx,%rax
   16610:	48 01 c8             	add    %rcx,%rax
   16613:	48 c1 e0 04          	shl    $0x4,%rax
   16617:	48 89 c2             	mov    %rax,%rdx
   1661a:	48 8d 05 5f 60 00 00 	lea    0x605f(%rip),%rax        # 1c680 <g_3443>
   16621:	8b 44 02 0c          	mov    0xc(%rdx,%rax,1),%eax
   16625:	25 ff ff 3f 00       	and    $0x3fffff,%eax
   1662a:	89 c1                	mov    %eax,%ecx
   1662c:	8b 45 fc             	mov    -0x4(%rbp),%eax
   1662f:	89 c2                	mov    %eax,%edx
   16631:	48 8d 35 21 2e 00 00 	lea    0x2e21(%rip),%rsi        # 19459 <g_3500+0x2289>
   16638:	48 89 cf             	mov    %rcx,%rdi
   1663b:	e8 b3 50 ff ff       	callq  b6f3 <transparent_crc>
   16640:	83 7d fc 00          	cmpl   $0x0,-0x4(%rbp)
   16644:	74 19                	je     1665f <main+0x18f0>
   16646:	8b 55 f4             	mov    -0xc(%rbp),%edx
   16649:	8b 45 f0             	mov    -0x10(%rbp),%eax
   1664c:	89 c6                	mov    %eax,%esi
   1664e:	48 8d 3d bd 28 00 00 	lea    0x28bd(%rip),%rdi        # 18f12 <g_3500+0x1d42>
   16655:	b8 00 00 00 00       	mov    $0x0,%eax
   1665a:	e8 21 3a ff ff       	callq  a080 <printf@plt>
   1665f:	83 45 f4 01          	addl   $0x1,-0xc(%rbp)
   16663:	83 7d f4 02          	cmpl   $0x2,-0xc(%rbp)
   16667:	0f 8e 7e fe ff ff    	jle    164eb <main+0x177c>
   1666d:	83 45 f0 01          	addl   $0x1,-0x10(%rbp)
   16671:	83 7d f0 00          	cmpl   $0x0,-0x10(%rbp)
   16675:	0f 8e 64 fe ff ff    	jle    164df <main+0x1770>
   1667b:	0f b7 05 2e 60 00 00 	movzwl 0x602e(%rip),%eax        # 1c6b0 <g_3451>
   16682:	c1 e0 04             	shl    $0x4,%eax
   16685:	66 c1 f8 04          	sar    $0x4,%ax
   16689:	48 0f bf c0          	movswq %ax,%rax
   1668d:	8b 55 fc             	mov    -0x4(%rbp),%edx
   16690:	48 8d 35 d2 2d 00 00 	lea    0x2dd2(%rip),%rsi        # 19469 <g_3500+0x2299>
   16697:	48 89 c7             	mov    %rax,%rdi
   1669a:	e8 54 50 ff ff       	callq  b6f3 <transparent_crc>
   1669f:	8b 05 0f 60 00 00    	mov    0x600f(%rip),%eax        # 1c6b4 <g_3451+0x4>
   166a5:	48 98                	cltq   
   166a7:	8b 55 fc             	mov    -0x4(%rbp),%edx
   166aa:	48 8d 35 c2 2d 00 00 	lea    0x2dc2(%rip),%rsi        # 19473 <g_3500+0x22a3>
   166b1:	48 89 c7             	mov    %rax,%rdi
   166b4:	e8 3a 50 ff ff       	callq  b6f3 <transparent_crc>
   166b9:	48 8b 05 f8 5f 00 00 	mov    0x5ff8(%rip),%rax        # 1c6b8 <g_3451+0x8>
   166c0:	c1 e0 05             	shl    $0x5,%eax
   166c3:	c0 f8 05             	sar    $0x5,%al
   166c6:	48 0f be c0          	movsbq %al,%rax
   166ca:	8b 55 fc             	mov    -0x4(%rbp),%edx
   166cd:	48 8d 35 a9 2d 00 00 	lea    0x2da9(%rip),%rsi        # 1947d <g_3500+0x22ad>
   166d4:	48 89 c7             	mov    %rax,%rdi
   166d7:	e8 17 50 ff ff       	callq  b6f3 <transparent_crc>
   166dc:	48 8b 05 d5 5f 00 00 	mov    0x5fd5(%rip),%rax        # 1c6b8 <g_3451+0x8>
   166e3:	c1 e0 02             	shl    $0x2,%eax
   166e6:	c1 f8 05             	sar    $0x5,%eax
   166e9:	48 98                	cltq   
   166eb:	8b 55 fc             	mov    -0x4(%rbp),%edx
   166ee:	48 8d 35 92 2d 00 00 	lea    0x2d92(%rip),%rsi        # 19487 <g_3500+0x22b7>
   166f5:	48 89 c7             	mov    %rax,%rdi
   166f8:	e8 f6 4f ff ff       	callq  b6f3 <transparent_crc>
   166fd:	8b 05 b9 5f 00 00    	mov    0x5fb9(%rip),%eax        # 1c6bc <g_3451+0xc>
   16703:	25 ff ff 3f 00       	and    $0x3fffff,%eax
   16708:	89 c1                	mov    %eax,%ecx
   1670a:	8b 45 fc             	mov    -0x4(%rbp),%eax
   1670d:	89 c2                	mov    %eax,%edx
   1670f:	48 8d 35 7b 2d 00 00 	lea    0x2d7b(%rip),%rsi        # 19491 <g_3500+0x22c1>
   16716:	48 89 cf             	mov    %rcx,%rdi
   16719:	e8 d5 4f ff ff       	callq  b6f3 <transparent_crc>
   1671e:	48 8b 05 9b 5f 00 00 	mov    0x5f9b(%rip),%rax        # 1c6c0 <g_3461>
   16725:	8b 55 fc             	mov    -0x4(%rbp),%edx
   16728:	48 8d 35 6c 2d 00 00 	lea    0x2d6c(%rip),%rsi        # 1949b <g_3500+0x22cb>
   1672f:	48 89 c7             	mov    %rax,%rdi
   16732:	e8 bc 4f ff ff       	callq  b6f3 <transparent_crc>
   16737:	0f b6 05 92 5f 00 00 	movzbl 0x5f92(%rip),%eax        # 1c6d0 <g_3659>
   1673e:	48 0f be c0          	movsbq %al,%rax
   16742:	8b 55 fc             	mov    -0x4(%rbp),%edx
   16745:	48 8d 35 56 2d 00 00 	lea    0x2d56(%rip),%rsi        # 194a2 <g_3500+0x22d2>
   1674c:	48 89 c7             	mov    %rax,%rdi
   1674f:	e8 9f 4f ff ff       	callq  b6f3 <transparent_crc>
   16754:	c7 45 f0 00 00 00 00 	movl   $0x0,-0x10(%rbp)
   1675b:	eb 77                	jmp    167d4 <main+0x1a65>
   1675d:	c7 45 f4 00 00 00 00 	movl   $0x0,-0xc(%rbp)
   16764:	eb 64                	jmp    167ca <main+0x1a5b>
   16766:	8b 45 f4             	mov    -0xc(%rbp),%eax
   16769:	48 63 c8             	movslq %eax,%rcx
   1676c:	8b 45 f0             	mov    -0x10(%rbp),%eax
   1676f:	48 63 d0             	movslq %eax,%rdx
   16772:	48 89 d0             	mov    %rdx,%rax
   16775:	48 c1 e0 02          	shl    $0x2,%rax
   16779:	48 01 d0             	add    %rdx,%rax
   1677c:	48 01 c8             	add    %rcx,%rax
   1677f:	48 8d 14 85 00 00 00 	lea    0x0(,%rax,4),%rdx
   16786:	00 
   16787:	48 8d 05 52 5f 00 00 	lea    0x5f52(%rip),%rax        # 1c6e0 <g_3678>
   1678e:	8b 04 02             	mov    (%rdx,%rax,1),%eax
   16791:	89 c1                	mov    %eax,%ecx
   16793:	8b 45 fc             	mov    -0x4(%rbp),%eax
   16796:	89 c2                	mov    %eax,%edx
   16798:	48 8d 35 0a 2d 00 00 	lea    0x2d0a(%rip),%rsi        # 194a9 <g_3500+0x22d9>
   1679f:	48 89 cf             	mov    %rcx,%rdi
   167a2:	e8 4c 4f ff ff       	callq  b6f3 <transparent_crc>
   167a7:	83 7d fc 00          	cmpl   $0x0,-0x4(%rbp)
   167ab:	74 19                	je     167c6 <main+0x1a57>
   167ad:	8b 55 f4             	mov    -0xc(%rbp),%edx
   167b0:	8b 45 f0             	mov    -0x10(%rbp),%eax
   167b3:	89 c6                	mov    %eax,%esi
   167b5:	48 8d 3d 56 27 00 00 	lea    0x2756(%rip),%rdi        # 18f12 <g_3500+0x1d42>
   167bc:	b8 00 00 00 00       	mov    $0x0,%eax
   167c1:	e8 ba 38 ff ff       	callq  a080 <printf@plt>
   167c6:	83 45 f4 01          	addl   $0x1,-0xc(%rbp)
   167ca:	83 7d f4 04          	cmpl   $0x4,-0xc(%rbp)
   167ce:	7e 96                	jle    16766 <main+0x19f7>
   167d0:	83 45 f0 01          	addl   $0x1,-0x10(%rbp)
   167d4:	83 7d f0 04          	cmpl   $0x4,-0x10(%rbp)
   167d8:	7e 83                	jle    1675d <main+0x19ee>
   167da:	48 8b 05 67 5f 00 00 	mov    0x5f67(%rip),%rax        # 1c748 <g_3770>
   167e1:	8b 55 fc             	mov    -0x4(%rbp),%edx
   167e4:	48 8d 35 cb 2c 00 00 	lea    0x2ccb(%rip),%rsi        # 194b6 <g_3500+0x22e6>
   167eb:	48 89 c7             	mov    %rax,%rdi
   167ee:	e8 00 4f ff ff       	callq  b6f3 <transparent_crc>
   167f3:	48 8b 05 56 5f 00 00 	mov    0x5f56(%rip),%rax        # 1c750 <g_3780>
   167fa:	c1 e0 04             	shl    $0x4,%eax
   167fd:	66 c1 f8 04          	sar    $0x4,%ax
   16801:	48 0f bf c0          	movswq %ax,%rax
   16805:	8b 55 fc             	mov    -0x4(%rbp),%edx
   16808:	48 8d 35 ae 2c 00 00 	lea    0x2cae(%rip),%rsi        # 194bd <g_3500+0x22ed>
   1680f:	48 89 c7             	mov    %rax,%rdi
   16812:	e8 dc 4e ff ff       	callq  b6f3 <transparent_crc>
   16817:	8b 05 37 5f 00 00    	mov    0x5f37(%rip),%eax        # 1c754 <g_3780+0x4>
   1681d:	48 98                	cltq   
   1681f:	8b 55 fc             	mov    -0x4(%rbp),%edx
   16822:	48 8d 35 9e 2c 00 00 	lea    0x2c9e(%rip),%rsi        # 194c7 <g_3500+0x22f7>
   16829:	48 89 c7             	mov    %rax,%rdi
   1682c:	e8 c2 4e ff ff       	callq  b6f3 <transparent_crc>
   16831:	48 8b 05 20 5f 00 00 	mov    0x5f20(%rip),%rax        # 1c758 <g_3780+0x8>
   16838:	c1 e0 05             	shl    $0x5,%eax
   1683b:	c0 f8 05             	sar    $0x5,%al
   1683e:	48 0f be c0          	movsbq %al,%rax
   16842:	8b 55 fc             	mov    -0x4(%rbp),%edx
   16845:	48 8d 35 85 2c 00 00 	lea    0x2c85(%rip),%rsi        # 194d1 <g_3500+0x2301>
   1684c:	48 89 c7             	mov    %rax,%rdi
   1684f:	e8 9f 4e ff ff       	callq  b6f3 <transparent_crc>
   16854:	48 8b 05 fd 5e 00 00 	mov    0x5efd(%rip),%rax        # 1c758 <g_3780+0x8>
   1685b:	c1 e0 02             	shl    $0x2,%eax
   1685e:	c1 f8 05             	sar    $0x5,%eax
   16861:	48 98                	cltq   
   16863:	8b 55 fc             	mov    -0x4(%rbp),%edx
   16866:	48 8d 35 6e 2c 00 00 	lea    0x2c6e(%rip),%rsi        # 194db <g_3500+0x230b>
   1686d:	48 89 c7             	mov    %rax,%rdi
   16870:	e8 7e 4e ff ff       	callq  b6f3 <transparent_crc>
   16875:	48 8b 05 dc 5e 00 00 	mov    0x5edc(%rip),%rax        # 1c758 <g_3780+0x8>
   1687c:	48 c1 e8 20          	shr    $0x20,%rax
   16880:	25 ff ff 3f 00       	and    $0x3fffff,%eax
   16885:	89 c1                	mov    %eax,%ecx
   16887:	8b 45 fc             	mov    -0x4(%rbp),%eax
   1688a:	89 c2                	mov    %eax,%edx
   1688c:	48 8d 35 52 2c 00 00 	lea    0x2c52(%rip),%rsi        # 194e5 <g_3500+0x2315>
   16893:	48 89 cf             	mov    %rcx,%rdi
   16896:	e8 58 4e ff ff       	callq  b6f3 <transparent_crc>
   1689b:	c7 45 f0 00 00 00 00 	movl   $0x0,-0x10(%rbp)
   168a2:	eb 4b                	jmp    168ef <main+0x1b80>
   168a4:	8b 45 f0             	mov    -0x10(%rbp),%eax
   168a7:	48 98                	cltq   
   168a9:	48 8d 14 85 00 00 00 	lea    0x0(,%rax,4),%rdx
   168b0:	00 
   168b1:	48 8d 05 a8 5e 00 00 	lea    0x5ea8(%rip),%rax        # 1c760 <g_3788>
   168b8:	8b 04 02             	mov    (%rdx,%rax,1),%eax
   168bb:	48 98                	cltq   
   168bd:	8b 55 fc             	mov    -0x4(%rbp),%edx
   168c0:	48 8d 35 28 2c 00 00 	lea    0x2c28(%rip),%rsi        # 194ef <g_3500+0x231f>
   168c7:	48 89 c7             	mov    %rax,%rdi
   168ca:	e8 24 4e ff ff       	callq  b6f3 <transparent_crc>
   168cf:	83 7d fc 00          	cmpl   $0x0,-0x4(%rbp)
   168d3:	74 16                	je     168eb <main+0x1b7c>
   168d5:	8b 45 f0             	mov    -0x10(%rbp),%eax
   168d8:	89 c6                	mov    %eax,%esi
   168da:	48 8d 3d a5 25 00 00 	lea    0x25a5(%rip),%rdi        # 18e86 <g_3500+0x1cb6>
   168e1:	b8 00 00 00 00       	mov    $0x0,%eax
   168e6:	e8 95 37 ff ff       	callq  a080 <printf@plt>
   168eb:	83 45 f0 01          	addl   $0x1,-0x10(%rbp)
   168ef:	83 7d f0 02          	cmpl   $0x2,-0x10(%rbp)
   168f3:	7e af                	jle    168a4 <main+0x1b35>
   168f5:	c7 45 f0 00 00 00 00 	movl   $0x0,-0x10(%rbp)
   168fc:	eb 4a                	jmp    16948 <main+0x1bd9>
   168fe:	8b 45 f0             	mov    -0x10(%rbp),%eax
   16901:	48 98                	cltq   
   16903:	48 8d 14 c5 00 00 00 	lea    0x0(,%rax,8),%rdx
   1690a:	00 
   1690b:	48 8d 05 6e 5e 00 00 	lea    0x5e6e(%rip),%rax        # 1c780 <g_3792>
   16912:	48 8b 04 02          	mov    (%rdx,%rax,1),%rax
   16916:	8b 55 fc             	mov    -0x4(%rbp),%edx
   16919:	48 8d 35 d9 2b 00 00 	lea    0x2bd9(%rip),%rsi        # 194f9 <g_3500+0x2329>
   16920:	48 89 c7             	mov    %rax,%rdi
   16923:	e8 cb 4d ff ff       	callq  b6f3 <transparent_crc>
   16928:	83 7d fc 00          	cmpl   $0x0,-0x4(%rbp)
   1692c:	74 16                	je     16944 <main+0x1bd5>
   1692e:	8b 45 f0             	mov    -0x10(%rbp),%eax
   16931:	89 c6                	mov    %eax,%esi
   16933:	48 8d 3d 4c 25 00 00 	lea    0x254c(%rip),%rdi        # 18e86 <g_3500+0x1cb6>
   1693a:	b8 00 00 00 00       	mov    $0x0,%eax
   1693f:	e8 3c 37 ff ff       	callq  a080 <printf@plt>
   16944:	83 45 f0 01          	addl   $0x1,-0x10(%rbp)
   16948:	83 7d f0 07          	cmpl   $0x7,-0x10(%rbp)
   1694c:	7e b0                	jle    168fe <main+0x1b8f>
   1694e:	0f b7 05 6b 5e 00 00 	movzwl 0x5e6b(%rip),%eax        # 1c7c0 <g_3805>
   16955:	c1 e0 04             	shl    $0x4,%eax
   16958:	66 c1 f8 04          	sar    $0x4,%ax
   1695c:	48 0f bf c0          	movswq %ax,%rax
   16960:	8b 55 fc             	mov    -0x4(%rbp),%edx
   16963:	48 8d 35 99 2b 00 00 	lea    0x2b99(%rip),%rsi        # 19503 <g_3500+0x2333>
   1696a:	48 89 c7             	mov    %rax,%rdi
   1696d:	e8 81 4d ff ff       	callq  b6f3 <transparent_crc>
   16972:	8b 05 4c 5e 00 00    	mov    0x5e4c(%rip),%eax        # 1c7c4 <g_3805+0x4>
   16978:	48 98                	cltq   
   1697a:	8b 55 fc             	mov    -0x4(%rbp),%edx
   1697d:	48 8d 35 89 2b 00 00 	lea    0x2b89(%rip),%rsi        # 1950d <g_3500+0x233d>
   16984:	48 89 c7             	mov    %rax,%rdi
   16987:	e8 67 4d ff ff       	callq  b6f3 <transparent_crc>
   1698c:	48 8b 05 35 5e 00 00 	mov    0x5e35(%rip),%rax        # 1c7c8 <g_3805+0x8>
   16993:	c1 e0 05             	shl    $0x5,%eax
   16996:	c0 f8 05             	sar    $0x5,%al
   16999:	48 0f be c0          	movsbq %al,%rax
   1699d:	8b 55 fc             	mov    -0x4(%rbp),%edx
   169a0:	48 8d 35 70 2b 00 00 	lea    0x2b70(%rip),%rsi        # 19517 <g_3500+0x2347>
   169a7:	48 89 c7             	mov    %rax,%rdi
   169aa:	e8 44 4d ff ff       	callq  b6f3 <transparent_crc>
   169af:	48 8b 05 12 5e 00 00 	mov    0x5e12(%rip),%rax        # 1c7c8 <g_3805+0x8>
   169b6:	c1 e0 02             	shl    $0x2,%eax
   169b9:	c1 f8 05             	sar    $0x5,%eax
   169bc:	48 98                	cltq   
   169be:	8b 55 fc             	mov    -0x4(%rbp),%edx
   169c1:	48 8d 35 59 2b 00 00 	lea    0x2b59(%rip),%rsi        # 19521 <g_3500+0x2351>
   169c8:	48 89 c7             	mov    %rax,%rdi
   169cb:	e8 23 4d ff ff       	callq  b6f3 <transparent_crc>
   169d0:	8b 05 f6 5d 00 00    	mov    0x5df6(%rip),%eax        # 1c7cc <g_3805+0xc>
   169d6:	25 ff ff 3f 00       	and    $0x3fffff,%eax
   169db:	89 c1                	mov    %eax,%ecx
   169dd:	8b 45 fc             	mov    -0x4(%rbp),%eax
   169e0:	89 c2                	mov    %eax,%edx
   169e2:	48 8d 35 42 2b 00 00 	lea    0x2b42(%rip),%rsi        # 1952b <g_3500+0x235b>
   169e9:	48 89 cf             	mov    %rcx,%rdi
   169ec:	e8 02 4d ff ff       	callq  b6f3 <transparent_crc>
   169f1:	0f b6 05 d8 5d 00 00 	movzbl 0x5dd8(%rip),%eax        # 1c7d0 <g_3824>
   169f8:	0f b6 c0             	movzbl %al,%eax
   169fb:	8b 55 fc             	mov    -0x4(%rbp),%edx
   169fe:	48 8d 35 30 2b 00 00 	lea    0x2b30(%rip),%rsi        # 19535 <g_3500+0x2365>
   16a05:	48 89 c7             	mov    %rax,%rdi
   16a08:	e8 e6 4c ff ff       	callq  b6f3 <transparent_crc>
   16a0d:	c7 45 f0 00 00 00 00 	movl   $0x0,-0x10(%rbp)
   16a14:	e9 a0 00 00 00       	jmpq   16ab9 <main+0x1d4a>
   16a19:	c7 45 f4 00 00 00 00 	movl   $0x0,-0xc(%rbp)
   16a20:	e9 86 00 00 00       	jmpq   16aab <main+0x1d3c>
   16a25:	c7 45 f8 00 00 00 00 	movl   $0x0,-0x8(%rbp)
   16a2c:	eb 73                	jmp    16aa1 <main+0x1d32>
   16a2e:	8b 45 f8             	mov    -0x8(%rbp),%eax
   16a31:	48 63 f0             	movslq %eax,%rsi
   16a34:	8b 45 f4             	mov    -0xc(%rbp),%eax
   16a37:	48 63 c8             	movslq %eax,%rcx
   16a3a:	8b 45 f0             	mov    -0x10(%rbp),%eax
   16a3d:	48 63 d0             	movslq %eax,%rdx
   16a40:	48 89 d0             	mov    %rdx,%rax
   16a43:	48 c1 e0 02          	shl    $0x2,%rax
   16a47:	48 01 d0             	add    %rdx,%rax
   16a4a:	48 01 c0             	add    %rax,%rax
   16a4d:	48 01 f0             	add    %rsi,%rax
   16a50:	48 01 c8             	add    %rcx,%rax
   16a53:	48 8d 14 85 00 00 00 	lea    0x0(,%rax,4),%rdx
   16a5a:	00 
   16a5b:	48 8d 05 7e 5d 00 00 	lea    0x5d7e(%rip),%rax        # 1c7e0 <g_3884>
   16a62:	8b 04 02             	mov    (%rdx,%rax,1),%eax
   16a65:	89 c1                	mov    %eax,%ecx
   16a67:	8b 45 fc             	mov    -0x4(%rbp),%eax
   16a6a:	89 c2                	mov    %eax,%edx
   16a6c:	48 8d 35 c9 2a 00 00 	lea    0x2ac9(%rip),%rsi        # 1953c <g_3500+0x236c>
   16a73:	48 89 cf             	mov    %rcx,%rdi
   16a76:	e8 78 4c ff ff       	callq  b6f3 <transparent_crc>
   16a7b:	83 7d fc 00          	cmpl   $0x0,-0x4(%rbp)
   16a7f:	74 1c                	je     16a9d <main+0x1d2e>
   16a81:	8b 4d f8             	mov    -0x8(%rbp),%ecx
   16a84:	8b 55 f4             	mov    -0xc(%rbp),%edx
   16a87:	8b 45 f0             	mov    -0x10(%rbp),%eax
   16a8a:	89 c6                	mov    %eax,%esi
   16a8c:	48 8d 3d ac 24 00 00 	lea    0x24ac(%rip),%rdi        # 18f3f <g_3500+0x1d6f>
   16a93:	b8 00 00 00 00       	mov    $0x0,%eax
   16a98:	e8 e3 35 ff ff       	callq  a080 <printf@plt>
   16a9d:	83 45 f8 01          	addl   $0x1,-0x8(%rbp)
   16aa1:	83 7d f8 00          	cmpl   $0x0,-0x8(%rbp)
   16aa5:	7e 87                	jle    16a2e <main+0x1cbf>
   16aa7:	83 45 f4 01          	addl   $0x1,-0xc(%rbp)
   16aab:	83 7d f4 09          	cmpl   $0x9,-0xc(%rbp)
   16aaf:	0f 8e 70 ff ff ff    	jle    16a25 <main+0x1cb6>
   16ab5:	83 45 f0 01          	addl   $0x1,-0x10(%rbp)
   16ab9:	83 7d f0 03          	cmpl   $0x3,-0x10(%rbp)
   16abd:	0f 8e 56 ff ff ff    	jle    16a19 <main+0x1caa>
   16ac3:	c7 45 f0 00 00 00 00 	movl   $0x0,-0x10(%rbp)
   16aca:	eb 4f                	jmp    16b1b <main+0x1dac>
   16acc:	8b 45 f0             	mov    -0x10(%rbp),%eax
   16acf:	48 98                	cltq   
   16ad1:	48 8d 14 c5 00 00 00 	lea    0x0(,%rax,8),%rdx
   16ad8:	00 
   16ad9:	48 8d 05 a8 5d 00 00 	lea    0x5da8(%rip),%rax        # 1c888 <g_3956>
   16ae0:	48 8b 04 02          	mov    (%rdx,%rax,1),%rax
   16ae4:	48 89 c1             	mov    %rax,%rcx
   16ae7:	8b 45 fc             	mov    -0x4(%rbp),%eax
   16aea:	89 c2                	mov    %eax,%edx
   16aec:	48 8d 35 59 2a 00 00 	lea    0x2a59(%rip),%rsi        # 1954c <g_3500+0x237c>
   16af3:	48 89 cf             	mov    %rcx,%rdi
   16af6:	e8 f8 4b ff ff       	callq  b6f3 <transparent_crc>
   16afb:	83 7d fc 00          	cmpl   $0x0,-0x4(%rbp)
   16aff:	74 16                	je     16b17 <main+0x1da8>
   16b01:	8b 45 f0             	mov    -0x10(%rbp),%eax
   16b04:	89 c6                	mov    %eax,%esi
   16b06:	48 8d 3d 79 23 00 00 	lea    0x2379(%rip),%rdi        # 18e86 <g_3500+0x1cb6>
   16b0d:	b8 00 00 00 00       	mov    $0x0,%eax
   16b12:	e8 69 35 ff ff       	callq  a080 <printf@plt>
   16b17:	83 45 f0 01          	addl   $0x1,-0x10(%rbp)
   16b1b:	83 7d f0 00          	cmpl   $0x0,-0x10(%rbp)
   16b1f:	7e ab                	jle    16acc <main+0x1d5d>
   16b21:	8b 05 f9 54 00 00    	mov    0x54f9(%rip),%eax        # 1c020 <crc32_context>
   16b27:	f7 d0                	not    %eax
   16b29:	89 c2                	mov    %eax,%edx
   16b2b:	8b 45 fc             	mov    -0x4(%rbp),%eax
   16b2e:	89 c6                	mov    %eax,%esi
   16b30:	89 d7                	mov    %edx,%edi
   16b32:	e8 5d 36 ff ff       	callq  a194 <platform_main_end>
   16b37:	b8 00 00 00 00       	mov    $0x0,%eax
   16b3c:	c9                   	leaveq 
   16b3d:	c3                   	retq   
   16b3e:	66 90                	xchg   %ax,%ax

0000000000016b40 <__libc_csu_init>:
   16b40:	f3 0f 1e fa          	endbr64 
   16b44:	41 57                	push   %r15
   16b46:	4c 8d 3d a3 50 00 00 	lea    0x50a3(%rip),%r15        # 1bbf0 <__frame_dummy_init_array_entry>
   16b4d:	41 56                	push   %r14
   16b4f:	49 89 d6             	mov    %rdx,%r14
   16b52:	41 55                	push   %r13
   16b54:	49 89 f5             	mov    %rsi,%r13
   16b57:	41 54                	push   %r12
   16b59:	41 89 fc             	mov    %edi,%r12d
   16b5c:	55                   	push   %rbp
   16b5d:	48 8d 2d 94 50 00 00 	lea    0x5094(%rip),%rbp        # 1bbf8 <__do_global_dtors_aux_fini_array_entry>
   16b64:	53                   	push   %rbx
   16b65:	4c 29 fd             	sub    %r15,%rbp
   16b68:	48 83 ec 08          	sub    $0x8,%rsp
   16b6c:	e8 8f 34 ff ff       	callq  a000 <_init>
   16b71:	48 c1 fd 03          	sar    $0x3,%rbp
   16b75:	74 1f                	je     16b96 <__libc_csu_init+0x56>
   16b77:	31 db                	xor    %ebx,%ebx
   16b79:	0f 1f 80 00 00 00 00 	nopl   0x0(%rax)
   16b80:	4c 89 f2             	mov    %r14,%rdx
   16b83:	4c 89 ee             	mov    %r13,%rsi
   16b86:	44 89 e7             	mov    %r12d,%edi
   16b89:	41 ff 14 df          	callq  *(%r15,%rbx,8)
   16b8d:	48 83 c3 01          	add    $0x1,%rbx
   16b91:	48 39 dd             	cmp    %rbx,%rbp
   16b94:	75 ea                	jne    16b80 <__libc_csu_init+0x40>
   16b96:	48 83 c4 08          	add    $0x8,%rsp
   16b9a:	5b                   	pop    %rbx
   16b9b:	5d                   	pop    %rbp
   16b9c:	41 5c                	pop    %r12
   16b9e:	41 5d                	pop    %r13
   16ba0:	41 5e                	pop    %r14
   16ba2:	41 5f                	pop    %r15
   16ba4:	c3                   	retq   
   16ba5:	66 66 2e 0f 1f 84 00 	data16 nopw %cs:0x0(%rax,%rax,1)
   16bac:	00 00 00 00 

0000000000016bb0 <__libc_csu_fini>:
   16bb0:	f3 0f 1e fa          	endbr64 
   16bb4:	c3                   	retq   
