


Disassembly of section .text:

00000000000080a0 <_start>:
    80a0:	f3 0f 1e fa          	endbr64 
    80a4:	31 ed                	xor    %ebp,%ebp
    80a6:	49 89 d1             	mov    %rdx,%r9
    80a9:	5e                   	pop    %rsi
    80aa:	48 89 e2             	mov    %rsp,%rdx
    80ad:	48 83 e4 f0          	and    $0xfffffffffffffff0,%rsp
    80b1:	50                   	push   %rax
    80b2:	54                   	push   %rsp
    80b3:	4c 8d 05 d6 c8 00 00 	lea    0xc8d6(%rip),%r8        # 14990 <__libc_csu_fini>
    80ba:	48 8d 0d 5f c8 00 00 	lea    0xc85f(%rip),%rcx        # 14920 <__libc_csu_init>
    80c1:	48 8d 3d 1d ba 00 00 	lea    0xba1d(%rip),%rdi        # 13ae5 <main>
    80c8:	ff 15 0a 0f 01 00    	callq  *0x10f0a(%rip)        # 18fd8 <__libc_start_main@GLIBC_2.2.5>
    80ce:	f4                   	hlt    
    80cf:	90                   	nop

00000000000080d0 <deregister_tm_clones>:
    80d0:	48 8d 3d 39 55 01 00 	lea    0x15539(%rip),%rdi        # 1d610 <__TMC_END__>
    80d7:	48 8d 05 32 55 01 00 	lea    0x15532(%rip),%rax        # 1d610 <__TMC_END__>
    80de:	48 39 f8             	cmp    %rdi,%rax
    80e1:	74 15                	je     80f8 <deregister_tm_clones+0x28>
    80e3:	48 8b 05 e6 0e 01 00 	mov    0x10ee6(%rip),%rax        # 18fd0 <_ITM_deregisterTMCloneTable>
    80ea:	48 85 c0             	test   %rax,%rax
    80ed:	74 09                	je     80f8 <deregister_tm_clones+0x28>
    80ef:	ff e0                	jmpq   *%rax
    80f1:	0f 1f 80 00 00 00 00 	nopl   0x0(%rax)
    80f8:	c3                   	retq   
    80f9:	0f 1f 80 00 00 00 00 	nopl   0x0(%rax)

0000000000008100 <register_tm_clones>:
    8100:	48 8d 3d 09 55 01 00 	lea    0x15509(%rip),%rdi        # 1d610 <__TMC_END__>
    8107:	48 8d 35 02 55 01 00 	lea    0x15502(%rip),%rsi        # 1d610 <__TMC_END__>
    810e:	48 29 fe             	sub    %rdi,%rsi
    8111:	48 89 f0             	mov    %rsi,%rax
    8114:	48 c1 ee 3f          	shr    $0x3f,%rsi
    8118:	48 c1 f8 03          	sar    $0x3,%rax
    811c:	48 01 c6             	add    %rax,%rsi
    811f:	48 d1 fe             	sar    %rsi
    8122:	74 14                	je     8138 <register_tm_clones+0x38>
    8124:	48 8b 05 bd 0e 01 00 	mov    0x10ebd(%rip),%rax        # 18fe8 <_ITM_registerTMCloneTable>
    812b:	48 85 c0             	test   %rax,%rax
    812e:	74 08                	je     8138 <register_tm_clones+0x38>
    8130:	ff e0                	jmpq   *%rax
    8132:	66 0f 1f 44 00 00    	nopw   0x0(%rax,%rax,1)
    8138:	c3                   	retq   
    8139:	0f 1f 80 00 00 00 00 	nopl   0x0(%rax)

0000000000008140 <__do_global_dtors_aux>:
    8140:	f3 0f 1e fa          	endbr64 
    8144:	80 3d d5 54 01 00 00 	cmpb   $0x0,0x154d5(%rip)        # 1d620 <completed.8061>
    814b:	75 2b                	jne    8178 <__do_global_dtors_aux+0x38>
    814d:	55                   	push   %rbp
    814e:	48 83 3d 9a 0e 01 00 	cmpq   $0x0,0x10e9a(%rip)        # 18ff0 <__cxa_finalize@GLIBC_2.2.5>
    8155:	00 
    8156:	48 89 e5             	mov    %rsp,%rbp
    8159:	74 0c                	je     8167 <__do_global_dtors_aux+0x27>
    815b:	48 8b 3d a6 0e 01 00 	mov    0x10ea6(%rip),%rdi        # 19008 <__dso_handle>
    8162:	e8 f9 fe ff ff       	callq  8060 <__cxa_finalize@plt>
    8167:	e8 64 ff ff ff       	callq  80d0 <deregister_tm_clones>
    816c:	c6 05 ad 54 01 00 01 	movb   $0x1,0x154ad(%rip)        # 1d620 <completed.8061>
    8173:	5d                   	pop    %rbp
    8174:	c3                   	retq   
    8175:	0f 1f 00             	nopl   (%rax)
    8178:	c3                   	retq   
    8179:	0f 1f 80 00 00 00 00 	nopl   0x0(%rax)

0000000000008180 <frame_dummy>:
    8180:	f3 0f 1e fa          	endbr64 
    8184:	e9 77 ff ff ff       	jmpq   8100 <register_tm_clones>

0000000000008189 <platform_main_begin>:
    8189:	f3 0f 1e fa          	endbr64 
    818d:	55                   	push   %rbp
    818e:	48 89 e5             	mov    %rsp,%rbp
    8191:	90                   	nop
    8192:	5d                   	pop    %rbp
    8193:	c3                   	retq   

0000000000008194 <platform_main_end>:
    8194:	f3 0f 1e fa          	endbr64 
    8198:	55                   	push   %rbp
    8199:	48 89 e5             	mov    %rsp,%rbp
    819c:	48 83 ec 10          	sub    $0x10,%rsp
    81a0:	89 7d fc             	mov    %edi,-0x4(%rbp)
    81a3:	89 75 f8             	mov    %esi,-0x8(%rbp)
    81a6:	8b 45 fc             	mov    -0x4(%rbp),%eax
    81a9:	89 c6                	mov    %eax,%esi
    81ab:	48 8d 3d 6e ce 00 00 	lea    0xce6e(%rip),%rdi        # 15020 <_IO_stdin_used+0x20>
    81b2:	b8 00 00 00 00       	mov    $0x0,%eax
    81b7:	e8 c4 fe ff ff       	callq  8080 <printf@plt>
    81bc:	90                   	nop
    81bd:	c9                   	leaveq 
    81be:	c3                   	retq   

00000000000081bf <safe_unary_minus_func_int8_t_s>:
    81bf:	f3 0f 1e fa          	endbr64 
    81c3:	55                   	push   %rbp
    81c4:	48 89 e5             	mov    %rsp,%rbp
    81c7:	89 f8                	mov    %edi,%eax
    81c9:	88 45 fc             	mov    %al,-0x4(%rbp)
    81cc:	0f b6 45 fc          	movzbl -0x4(%rbp),%eax
    81d0:	f7 d8                	neg    %eax
    81d2:	5d                   	pop    %rbp
    81d3:	c3                   	retq   

00000000000081d4 <safe_add_func_int8_t_s_s>:
    81d4:	f3 0f 1e fa          	endbr64 
    81d8:	55                   	push   %rbp
    81d9:	48 89 e5             	mov    %rsp,%rbp
    81dc:	89 fa                	mov    %edi,%edx
    81de:	89 f0                	mov    %esi,%eax
    81e0:	88 55 fc             	mov    %dl,-0x4(%rbp)
    81e3:	88 45 f8             	mov    %al,-0x8(%rbp)
    81e6:	0f b6 55 fc          	movzbl -0x4(%rbp),%edx
    81ea:	0f b6 45 f8          	movzbl -0x8(%rbp),%eax
    81ee:	01 d0                	add    %edx,%eax
    81f0:	5d                   	pop    %rbp
    81f1:	c3                   	retq   

00000000000081f2 <safe_sub_func_int8_t_s_s>:
    81f2:	f3 0f 1e fa          	endbr64 
    81f6:	55                   	push   %rbp
    81f7:	48 89 e5             	mov    %rsp,%rbp
    81fa:	89 fa                	mov    %edi,%edx
    81fc:	89 f0                	mov    %esi,%eax
    81fe:	88 55 fc             	mov    %dl,-0x4(%rbp)
    8201:	88 45 f8             	mov    %al,-0x8(%rbp)
    8204:	0f b6 55 fc          	movzbl -0x4(%rbp),%edx
    8208:	0f b6 45 f8          	movzbl -0x8(%rbp),%eax
    820c:	29 c2                	sub    %eax,%edx
    820e:	89 d0                	mov    %edx,%eax
    8210:	5d                   	pop    %rbp
    8211:	c3                   	retq   

0000000000008212 <safe_mul_func_int8_t_s_s>:
    8212:	f3 0f 1e fa          	endbr64 
    8216:	55                   	push   %rbp
    8217:	48 89 e5             	mov    %rsp,%rbp
    821a:	89 fa                	mov    %edi,%edx
    821c:	89 f0                	mov    %esi,%eax
    821e:	88 55 fc             	mov    %dl,-0x4(%rbp)
    8221:	88 45 f8             	mov    %al,-0x8(%rbp)
    8224:	0f b6 45 fc          	movzbl -0x4(%rbp),%eax
    8228:	0f b6 55 f8          	movzbl -0x8(%rbp),%edx
    822c:	0f af c2             	imul   %edx,%eax
    822f:	5d                   	pop    %rbp
    8230:	c3                   	retq   

0000000000008231 <safe_mod_func_int8_t_s_s>:
    8231:	f3 0f 1e fa          	endbr64 
    8235:	55                   	push   %rbp
    8236:	48 89 e5             	mov    %rsp,%rbp
    8239:	89 fa                	mov    %edi,%edx
    823b:	89 f0                	mov    %esi,%eax
    823d:	88 55 fc             	mov    %dl,-0x4(%rbp)
    8240:	88 45 f8             	mov    %al,-0x8(%rbp)
    8243:	80 7d f8 00          	cmpb   $0x0,-0x8(%rbp)
    8247:	74 1b                	je     8264 <safe_mod_func_int8_t_s_s+0x33>
    8249:	80 7d fc 80          	cmpb   $0x80,-0x4(%rbp)
    824d:	75 06                	jne    8255 <safe_mod_func_int8_t_s_s+0x24>
    824f:	80 7d f8 ff          	cmpb   $0xff,-0x8(%rbp)
    8253:	74 0f                	je     8264 <safe_mod_func_int8_t_s_s+0x33>
    8255:	0f be 45 fc          	movsbl -0x4(%rbp),%eax
    8259:	0f be 4d f8          	movsbl -0x8(%rbp),%ecx
    825d:	99                   	cltd   
    825e:	f7 f9                	idiv   %ecx
    8260:	89 d0                	mov    %edx,%eax
    8262:	eb 04                	jmp    8268 <safe_mod_func_int8_t_s_s+0x37>
    8264:	0f b6 45 fc          	movzbl -0x4(%rbp),%eax
    8268:	5d                   	pop    %rbp
    8269:	c3                   	retq   

000000000000826a <safe_div_func_int8_t_s_s>:
    826a:	f3 0f 1e fa          	endbr64 
    826e:	55                   	push   %rbp
    826f:	48 89 e5             	mov    %rsp,%rbp
    8272:	89 fa                	mov    %edi,%edx
    8274:	89 f0                	mov    %esi,%eax
    8276:	88 55 fc             	mov    %dl,-0x4(%rbp)
    8279:	88 45 f8             	mov    %al,-0x8(%rbp)
    827c:	80 7d f8 00          	cmpb   $0x0,-0x8(%rbp)
    8280:	74 19                	je     829b <safe_div_func_int8_t_s_s+0x31>
    8282:	80 7d fc 80          	cmpb   $0x80,-0x4(%rbp)
    8286:	75 06                	jne    828e <safe_div_func_int8_t_s_s+0x24>
    8288:	80 7d f8 ff          	cmpb   $0xff,-0x8(%rbp)
    828c:	74 0d                	je     829b <safe_div_func_int8_t_s_s+0x31>
    828e:	0f be 45 fc          	movsbl -0x4(%rbp),%eax
    8292:	0f be 4d f8          	movsbl -0x8(%rbp),%ecx
    8296:	99                   	cltd   
    8297:	f7 f9                	idiv   %ecx
    8299:	eb 04                	jmp    829f <safe_div_func_int8_t_s_s+0x35>
    829b:	0f b6 45 fc          	movzbl -0x4(%rbp),%eax
    829f:	5d                   	pop    %rbp
    82a0:	c3                   	retq   

00000000000082a1 <safe_lshift_func_int8_t_s_s>:
    82a1:	f3 0f 1e fa          	endbr64 
    82a5:	55                   	push   %rbp
    82a6:	48 89 e5             	mov    %rsp,%rbp
    82a9:	89 f8                	mov    %edi,%eax
    82ab:	89 75 f8             	mov    %esi,-0x8(%rbp)
    82ae:	88 45 fc             	mov    %al,-0x4(%rbp)
    82b1:	80 7d fc 00          	cmpb   $0x0,-0x4(%rbp)
    82b5:	78 31                	js     82e8 <safe_lshift_func_int8_t_s_s+0x47>
    82b7:	83 7d f8 00          	cmpl   $0x0,-0x8(%rbp)
    82bb:	78 2b                	js     82e8 <safe_lshift_func_int8_t_s_s+0x47>
    82bd:	83 7d f8 1f          	cmpl   $0x1f,-0x8(%rbp)
    82c1:	7f 25                	jg     82e8 <safe_lshift_func_int8_t_s_s+0x47>
    82c3:	0f be 55 fc          	movsbl -0x4(%rbp),%edx
    82c7:	8b 45 f8             	mov    -0x8(%rbp),%eax
    82ca:	be 7f 00 00 00       	mov    $0x7f,%esi
    82cf:	89 c1                	mov    %eax,%ecx
    82d1:	d3 fe                	sar    %cl,%esi
    82d3:	89 f0                	mov    %esi,%eax
    82d5:	39 c2                	cmp    %eax,%edx
    82d7:	7f 0f                	jg     82e8 <safe_lshift_func_int8_t_s_s+0x47>
    82d9:	0f be 55 fc          	movsbl -0x4(%rbp),%edx
    82dd:	8b 45 f8             	mov    -0x8(%rbp),%eax
    82e0:	89 c1                	mov    %eax,%ecx
    82e2:	d3 e2                	shl    %cl,%edx
    82e4:	89 d0                	mov    %edx,%eax
    82e6:	eb 04                	jmp    82ec <safe_lshift_func_int8_t_s_s+0x4b>
    82e8:	0f b6 45 fc          	movzbl -0x4(%rbp),%eax
    82ec:	5d                   	pop    %rbp
    82ed:	c3                   	retq   

00000000000082ee <safe_lshift_func_int8_t_s_u>:
    82ee:	f3 0f 1e fa          	endbr64 
    82f2:	55                   	push   %rbp
    82f3:	48 89 e5             	mov    %rsp,%rbp
    82f6:	89 f8                	mov    %edi,%eax
    82f8:	89 75 f8             	mov    %esi,-0x8(%rbp)
    82fb:	88 45 fc             	mov    %al,-0x4(%rbp)
    82fe:	80 7d fc 00          	cmpb   $0x0,-0x4(%rbp)
    8302:	78 2b                	js     832f <safe_lshift_func_int8_t_s_u+0x41>
    8304:	83 7d f8 1f          	cmpl   $0x1f,-0x8(%rbp)
    8308:	77 25                	ja     832f <safe_lshift_func_int8_t_s_u+0x41>
    830a:	0f be 55 fc          	movsbl -0x4(%rbp),%edx
    830e:	8b 45 f8             	mov    -0x8(%rbp),%eax
    8311:	be 7f 00 00 00       	mov    $0x7f,%esi
    8316:	89 c1                	mov    %eax,%ecx
    8318:	d3 fe                	sar    %cl,%esi
    831a:	89 f0                	mov    %esi,%eax
    831c:	39 c2                	cmp    %eax,%edx
    831e:	7f 0f                	jg     832f <safe_lshift_func_int8_t_s_u+0x41>
    8320:	0f be 55 fc          	movsbl -0x4(%rbp),%edx
    8324:	8b 45 f8             	mov    -0x8(%rbp),%eax
    8327:	89 c1                	mov    %eax,%ecx
    8329:	d3 e2                	shl    %cl,%edx
    832b:	89 d0                	mov    %edx,%eax
    832d:	eb 04                	jmp    8333 <safe_lshift_func_int8_t_s_u+0x45>
    832f:	0f b6 45 fc          	movzbl -0x4(%rbp),%eax
    8333:	5d                   	pop    %rbp
    8334:	c3                   	retq   

0000000000008335 <safe_rshift_func_int8_t_s_s>:
    8335:	f3 0f 1e fa          	endbr64 
    8339:	55                   	push   %rbp
    833a:	48 89 e5             	mov    %rsp,%rbp
    833d:	89 f8                	mov    %edi,%eax
    833f:	89 75 f8             	mov    %esi,-0x8(%rbp)
    8342:	88 45 fc             	mov    %al,-0x4(%rbp)
    8345:	80 7d fc 00          	cmpb   $0x0,-0x4(%rbp)
    8349:	78 1b                	js     8366 <safe_rshift_func_int8_t_s_s+0x31>
    834b:	83 7d f8 00          	cmpl   $0x0,-0x8(%rbp)
    834f:	78 15                	js     8366 <safe_rshift_func_int8_t_s_s+0x31>
    8351:	83 7d f8 1f          	cmpl   $0x1f,-0x8(%rbp)
    8355:	7f 0f                	jg     8366 <safe_rshift_func_int8_t_s_s+0x31>
    8357:	0f be 55 fc          	movsbl -0x4(%rbp),%edx
    835b:	8b 45 f8             	mov    -0x8(%rbp),%eax
    835e:	89 c1                	mov    %eax,%ecx
    8360:	d3 fa                	sar    %cl,%edx
    8362:	89 d0                	mov    %edx,%eax
    8364:	eb 04                	jmp    836a <safe_rshift_func_int8_t_s_s+0x35>
    8366:	0f b6 45 fc          	movzbl -0x4(%rbp),%eax
    836a:	5d                   	pop    %rbp
    836b:	c3                   	retq   

000000000000836c <safe_rshift_func_int8_t_s_u>:
    836c:	f3 0f 1e fa          	endbr64 
    8370:	55                   	push   %rbp
    8371:	48 89 e5             	mov    %rsp,%rbp
    8374:	89 f8                	mov    %edi,%eax
    8376:	89 75 f8             	mov    %esi,-0x8(%rbp)
    8379:	88 45 fc             	mov    %al,-0x4(%rbp)
    837c:	80 7d fc 00          	cmpb   $0x0,-0x4(%rbp)
    8380:	78 15                	js     8397 <safe_rshift_func_int8_t_s_u+0x2b>
    8382:	83 7d f8 1f          	cmpl   $0x1f,-0x8(%rbp)
    8386:	77 0f                	ja     8397 <safe_rshift_func_int8_t_s_u+0x2b>
    8388:	0f be 55 fc          	movsbl -0x4(%rbp),%edx
    838c:	8b 45 f8             	mov    -0x8(%rbp),%eax
    838f:	89 c1                	mov    %eax,%ecx
    8391:	d3 fa                	sar    %cl,%edx
    8393:	89 d0                	mov    %edx,%eax
    8395:	eb 04                	jmp    839b <safe_rshift_func_int8_t_s_u+0x2f>
    8397:	0f b6 45 fc          	movzbl -0x4(%rbp),%eax
    839b:	5d                   	pop    %rbp
    839c:	c3                   	retq   

000000000000839d <safe_unary_minus_func_int16_t_s>:
    839d:	f3 0f 1e fa          	endbr64 
    83a1:	55                   	push   %rbp
    83a2:	48 89 e5             	mov    %rsp,%rbp
    83a5:	89 f8                	mov    %edi,%eax
    83a7:	66 89 45 fc          	mov    %ax,-0x4(%rbp)
    83ab:	0f b7 45 fc          	movzwl -0x4(%rbp),%eax
    83af:	f7 d8                	neg    %eax
    83b1:	5d                   	pop    %rbp
    83b2:	c3                   	retq   

00000000000083b3 <safe_add_func_int16_t_s_s>:
    83b3:	f3 0f 1e fa          	endbr64 
    83b7:	55                   	push   %rbp
    83b8:	48 89 e5             	mov    %rsp,%rbp
    83bb:	89 fa                	mov    %edi,%edx
    83bd:	89 f0                	mov    %esi,%eax
    83bf:	66 89 55 fc          	mov    %dx,-0x4(%rbp)
    83c3:	66 89 45 f8          	mov    %ax,-0x8(%rbp)
    83c7:	0f b7 55 fc          	movzwl -0x4(%rbp),%edx
    83cb:	0f b7 45 f8          	movzwl -0x8(%rbp),%eax
    83cf:	01 d0                	add    %edx,%eax
    83d1:	5d                   	pop    %rbp
    83d2:	c3                   	retq   

00000000000083d3 <safe_sub_func_int16_t_s_s>:
    83d3:	f3 0f 1e fa          	endbr64 
    83d7:	55                   	push   %rbp
    83d8:	48 89 e5             	mov    %rsp,%rbp
    83db:	89 fa                	mov    %edi,%edx
    83dd:	89 f0                	mov    %esi,%eax
    83df:	66 89 55 fc          	mov    %dx,-0x4(%rbp)
    83e3:	66 89 45 f8          	mov    %ax,-0x8(%rbp)
    83e7:	0f b7 55 fc          	movzwl -0x4(%rbp),%edx
    83eb:	0f b7 45 f8          	movzwl -0x8(%rbp),%eax
    83ef:	29 c2                	sub    %eax,%edx
    83f1:	89 d0                	mov    %edx,%eax
    83f3:	5d                   	pop    %rbp
    83f4:	c3                   	retq   

00000000000083f5 <safe_mul_func_int16_t_s_s>:
    83f5:	f3 0f 1e fa          	endbr64 
    83f9:	55                   	push   %rbp
    83fa:	48 89 e5             	mov    %rsp,%rbp
    83fd:	89 fa                	mov    %edi,%edx
    83ff:	89 f0                	mov    %esi,%eax
    8401:	66 89 55 fc          	mov    %dx,-0x4(%rbp)
    8405:	66 89 45 f8          	mov    %ax,-0x8(%rbp)
    8409:	0f b7 55 fc          	movzwl -0x4(%rbp),%edx
    840d:	0f b7 45 f8          	movzwl -0x8(%rbp),%eax
    8411:	0f af c2             	imul   %edx,%eax
    8414:	5d                   	pop    %rbp
    8415:	c3                   	retq   

0000000000008416 <safe_mod_func_int16_t_s_s>:
    8416:	f3 0f 1e fa          	endbr64 
    841a:	55                   	push   %rbp
    841b:	48 89 e5             	mov    %rsp,%rbp
    841e:	89 fa                	mov    %edi,%edx
    8420:	89 f0                	mov    %esi,%eax
    8422:	66 89 55 fc          	mov    %dx,-0x4(%rbp)
    8426:	66 89 45 f8          	mov    %ax,-0x8(%rbp)
    842a:	66 83 7d f8 00       	cmpw   $0x0,-0x8(%rbp)
    842f:	74 1e                	je     844f <safe_mod_func_int16_t_s_s+0x39>
    8431:	66 81 7d fc 00 80    	cmpw   $0x8000,-0x4(%rbp)
    8437:	75 07                	jne    8440 <safe_mod_func_int16_t_s_s+0x2a>
    8439:	66 83 7d f8 ff       	cmpw   $0xffff,-0x8(%rbp)
    843e:	74 0f                	je     844f <safe_mod_func_int16_t_s_s+0x39>
    8440:	0f bf 45 fc          	movswl -0x4(%rbp),%eax
    8444:	0f bf 4d f8          	movswl -0x8(%rbp),%ecx
    8448:	99                   	cltd   
    8449:	f7 f9                	idiv   %ecx
    844b:	89 d0                	mov    %edx,%eax
    844d:	eb 04                	jmp    8453 <safe_mod_func_int16_t_s_s+0x3d>
    844f:	0f b7 45 fc          	movzwl -0x4(%rbp),%eax
    8453:	5d                   	pop    %rbp
    8454:	c3                   	retq   

0000000000008455 <safe_div_func_int16_t_s_s>:
    8455:	f3 0f 1e fa          	endbr64 
    8459:	55                   	push   %rbp
    845a:	48 89 e5             	mov    %rsp,%rbp
    845d:	89 fa                	mov    %edi,%edx
    845f:	89 f0                	mov    %esi,%eax
    8461:	66 89 55 fc          	mov    %dx,-0x4(%rbp)
    8465:	66 89 45 f8          	mov    %ax,-0x8(%rbp)
    8469:	66 83 7d f8 00       	cmpw   $0x0,-0x8(%rbp)
    846e:	74 1c                	je     848c <safe_div_func_int16_t_s_s+0x37>
    8470:	66 81 7d fc 00 80    	cmpw   $0x8000,-0x4(%rbp)
    8476:	75 07                	jne    847f <safe_div_func_int16_t_s_s+0x2a>
    8478:	66 83 7d f8 ff       	cmpw   $0xffff,-0x8(%rbp)
    847d:	74 0d                	je     848c <safe_div_func_int16_t_s_s+0x37>
    847f:	0f bf 45 fc          	movswl -0x4(%rbp),%eax
    8483:	0f bf 4d f8          	movswl -0x8(%rbp),%ecx
    8487:	99                   	cltd   
    8488:	f7 f9                	idiv   %ecx
    848a:	eb 04                	jmp    8490 <safe_div_func_int16_t_s_s+0x3b>
    848c:	0f b7 45 fc          	movzwl -0x4(%rbp),%eax
    8490:	5d                   	pop    %rbp
    8491:	c3                   	retq   

0000000000008492 <safe_lshift_func_int16_t_s_s>:
    8492:	f3 0f 1e fa          	endbr64 
    8496:	55                   	push   %rbp
    8497:	48 89 e5             	mov    %rsp,%rbp
    849a:	89 f8                	mov    %edi,%eax
    849c:	89 75 f8             	mov    %esi,-0x8(%rbp)
    849f:	66 89 45 fc          	mov    %ax,-0x4(%rbp)
    84a3:	66 83 7d fc 00       	cmpw   $0x0,-0x4(%rbp)
    84a8:	78 31                	js     84db <safe_lshift_func_int16_t_s_s+0x49>
    84aa:	83 7d f8 00          	cmpl   $0x0,-0x8(%rbp)
    84ae:	78 2b                	js     84db <safe_lshift_func_int16_t_s_s+0x49>
    84b0:	83 7d f8 1f          	cmpl   $0x1f,-0x8(%rbp)
    84b4:	7f 25                	jg     84db <safe_lshift_func_int16_t_s_s+0x49>
    84b6:	0f bf 55 fc          	movswl -0x4(%rbp),%edx
    84ba:	8b 45 f8             	mov    -0x8(%rbp),%eax
    84bd:	be ff 7f 00 00       	mov    $0x7fff,%esi
    84c2:	89 c1                	mov    %eax,%ecx
    84c4:	d3 fe                	sar    %cl,%esi
    84c6:	89 f0                	mov    %esi,%eax
    84c8:	39 c2                	cmp    %eax,%edx
    84ca:	7f 0f                	jg     84db <safe_lshift_func_int16_t_s_s+0x49>
    84cc:	0f bf 55 fc          	movswl -0x4(%rbp),%edx
    84d0:	8b 45 f8             	mov    -0x8(%rbp),%eax
    84d3:	89 c1                	mov    %eax,%ecx
    84d5:	d3 e2                	shl    %cl,%edx
    84d7:	89 d0                	mov    %edx,%eax
    84d9:	eb 04                	jmp    84df <safe_lshift_func_int16_t_s_s+0x4d>
    84db:	0f b7 45 fc          	movzwl -0x4(%rbp),%eax
    84df:	5d                   	pop    %rbp
    84e0:	c3                   	retq   

00000000000084e1 <safe_lshift_func_int16_t_s_u>:
    84e1:	f3 0f 1e fa          	endbr64 
    84e5:	55                   	push   %rbp
    84e6:	48 89 e5             	mov    %rsp,%rbp
    84e9:	89 f8                	mov    %edi,%eax
    84eb:	89 75 f8             	mov    %esi,-0x8(%rbp)
    84ee:	66 89 45 fc          	mov    %ax,-0x4(%rbp)
    84f2:	66 83 7d fc 00       	cmpw   $0x0,-0x4(%rbp)
    84f7:	78 2b                	js     8524 <safe_lshift_func_int16_t_s_u+0x43>
    84f9:	83 7d f8 1f          	cmpl   $0x1f,-0x8(%rbp)
    84fd:	77 25                	ja     8524 <safe_lshift_func_int16_t_s_u+0x43>
    84ff:	0f bf 55 fc          	movswl -0x4(%rbp),%edx
    8503:	8b 45 f8             	mov    -0x8(%rbp),%eax
    8506:	be ff 7f 00 00       	mov    $0x7fff,%esi
    850b:	89 c1                	mov    %eax,%ecx
    850d:	d3 fe                	sar    %cl,%esi
    850f:	89 f0                	mov    %esi,%eax
    8511:	39 c2                	cmp    %eax,%edx
    8513:	7f 0f                	jg     8524 <safe_lshift_func_int16_t_s_u+0x43>
    8515:	0f bf 55 fc          	movswl -0x4(%rbp),%edx
    8519:	8b 45 f8             	mov    -0x8(%rbp),%eax
    851c:	89 c1                	mov    %eax,%ecx
    851e:	d3 e2                	shl    %cl,%edx
    8520:	89 d0                	mov    %edx,%eax
    8522:	eb 04                	jmp    8528 <safe_lshift_func_int16_t_s_u+0x47>
    8524:	0f b7 45 fc          	movzwl -0x4(%rbp),%eax
    8528:	5d                   	pop    %rbp
    8529:	c3                   	retq   

000000000000852a <safe_rshift_func_int16_t_s_s>:
    852a:	f3 0f 1e fa          	endbr64 
    852e:	55                   	push   %rbp
    852f:	48 89 e5             	mov    %rsp,%rbp
    8532:	89 f8                	mov    %edi,%eax
    8534:	89 75 f8             	mov    %esi,-0x8(%rbp)
    8537:	66 89 45 fc          	mov    %ax,-0x4(%rbp)
    853b:	66 83 7d fc 00       	cmpw   $0x0,-0x4(%rbp)
    8540:	78 1b                	js     855d <safe_rshift_func_int16_t_s_s+0x33>
    8542:	83 7d f8 00          	cmpl   $0x0,-0x8(%rbp)
    8546:	78 15                	js     855d <safe_rshift_func_int16_t_s_s+0x33>
    8548:	83 7d f8 1f          	cmpl   $0x1f,-0x8(%rbp)
    854c:	7f 0f                	jg     855d <safe_rshift_func_int16_t_s_s+0x33>
    854e:	0f bf 55 fc          	movswl -0x4(%rbp),%edx
    8552:	8b 45 f8             	mov    -0x8(%rbp),%eax
    8555:	89 c1                	mov    %eax,%ecx
    8557:	d3 fa                	sar    %cl,%edx
    8559:	89 d0                	mov    %edx,%eax
    855b:	eb 04                	jmp    8561 <safe_rshift_func_int16_t_s_s+0x37>
    855d:	0f b7 45 fc          	movzwl -0x4(%rbp),%eax
    8561:	5d                   	pop    %rbp
    8562:	c3                   	retq   

0000000000008563 <safe_rshift_func_int16_t_s_u>:
    8563:	f3 0f 1e fa          	endbr64 
    8567:	55                   	push   %rbp
    8568:	48 89 e5             	mov    %rsp,%rbp
    856b:	89 f8                	mov    %edi,%eax
    856d:	89 75 f8             	mov    %esi,-0x8(%rbp)
    8570:	66 89 45 fc          	mov    %ax,-0x4(%rbp)
    8574:	66 83 7d fc 00       	cmpw   $0x0,-0x4(%rbp)
    8579:	78 15                	js     8590 <safe_rshift_func_int16_t_s_u+0x2d>
    857b:	83 7d f8 1f          	cmpl   $0x1f,-0x8(%rbp)
    857f:	77 0f                	ja     8590 <safe_rshift_func_int16_t_s_u+0x2d>
    8581:	0f bf 55 fc          	movswl -0x4(%rbp),%edx
    8585:	8b 45 f8             	mov    -0x8(%rbp),%eax
    8588:	89 c1                	mov    %eax,%ecx
    858a:	d3 fa                	sar    %cl,%edx
    858c:	89 d0                	mov    %edx,%eax
    858e:	eb 04                	jmp    8594 <safe_rshift_func_int16_t_s_u+0x31>
    8590:	0f b7 45 fc          	movzwl -0x4(%rbp),%eax
    8594:	5d                   	pop    %rbp
    8595:	c3                   	retq   

0000000000008596 <safe_unary_minus_func_int32_t_s>:
    8596:	f3 0f 1e fa          	endbr64 
    859a:	55                   	push   %rbp
    859b:	48 89 e5             	mov    %rsp,%rbp
    859e:	89 7d fc             	mov    %edi,-0x4(%rbp)
    85a1:	81 7d fc 00 00 00 80 	cmpl   $0x80000000,-0x4(%rbp)
    85a8:	74 07                	je     85b1 <safe_unary_minus_func_int32_t_s+0x1b>
    85aa:	8b 45 fc             	mov    -0x4(%rbp),%eax
    85ad:	f7 d8                	neg    %eax
    85af:	eb 03                	jmp    85b4 <safe_unary_minus_func_int32_t_s+0x1e>
    85b1:	8b 45 fc             	mov    -0x4(%rbp),%eax
    85b4:	5d                   	pop    %rbp
    85b5:	c3                   	retq   

00000000000085b6 <safe_add_func_int32_t_s_s>:
    85b6:	f3 0f 1e fa          	endbr64 
    85ba:	55                   	push   %rbp
    85bb:	48 89 e5             	mov    %rsp,%rbp
    85be:	89 7d fc             	mov    %edi,-0x4(%rbp)
    85c1:	89 75 f8             	mov    %esi,-0x8(%rbp)
    85c4:	83 7d fc 00          	cmpl   $0x0,-0x4(%rbp)
    85c8:	7e 13                	jle    85dd <safe_add_func_int32_t_s_s+0x27>
    85ca:	83 7d f8 00          	cmpl   $0x0,-0x8(%rbp)
    85ce:	7e 0d                	jle    85dd <safe_add_func_int32_t_s_s+0x27>
    85d0:	b8 ff ff ff 7f       	mov    $0x7fffffff,%eax
    85d5:	2b 45 f8             	sub    -0x8(%rbp),%eax
    85d8:	39 45 fc             	cmp    %eax,-0x4(%rbp)
    85db:	7f 23                	jg     8600 <safe_add_func_int32_t_s_s+0x4a>
    85dd:	83 7d fc 00          	cmpl   $0x0,-0x4(%rbp)
    85e1:	79 13                	jns    85f6 <safe_add_func_int32_t_s_s+0x40>
    85e3:	83 7d f8 00          	cmpl   $0x0,-0x8(%rbp)
    85e7:	79 0d                	jns    85f6 <safe_add_func_int32_t_s_s+0x40>
    85e9:	b8 00 00 00 80       	mov    $0x80000000,%eax
    85ee:	2b 45 f8             	sub    -0x8(%rbp),%eax
    85f1:	39 45 fc             	cmp    %eax,-0x4(%rbp)
    85f4:	7c 0a                	jl     8600 <safe_add_func_int32_t_s_s+0x4a>
    85f6:	8b 55 fc             	mov    -0x4(%rbp),%edx
    85f9:	8b 45 f8             	mov    -0x8(%rbp),%eax
    85fc:	01 d0                	add    %edx,%eax
    85fe:	eb 03                	jmp    8603 <safe_add_func_int32_t_s_s+0x4d>
    8600:	8b 45 fc             	mov    -0x4(%rbp),%eax
    8603:	5d                   	pop    %rbp
    8604:	c3                   	retq   

0000000000008605 <safe_sub_func_int32_t_s_s>:
    8605:	f3 0f 1e fa          	endbr64 
    8609:	55                   	push   %rbp
    860a:	48 89 e5             	mov    %rsp,%rbp
    860d:	89 7d fc             	mov    %edi,-0x4(%rbp)
    8610:	89 75 f8             	mov    %esi,-0x8(%rbp)
    8613:	8b 45 fc             	mov    -0x4(%rbp),%eax
    8616:	33 45 f8             	xor    -0x8(%rbp),%eax
    8619:	89 c2                	mov    %eax,%edx
    861b:	8b 45 fc             	mov    -0x4(%rbp),%eax
    861e:	33 45 f8             	xor    -0x8(%rbp),%eax
    8621:	25 00 00 00 80       	and    $0x80000000,%eax
    8626:	33 45 fc             	xor    -0x4(%rbp),%eax
    8629:	2b 45 f8             	sub    -0x8(%rbp),%eax
    862c:	33 45 f8             	xor    -0x8(%rbp),%eax
    862f:	21 d0                	and    %edx,%eax
    8631:	85 c0                	test   %eax,%eax
    8633:	78 08                	js     863d <safe_sub_func_int32_t_s_s+0x38>
    8635:	8b 45 fc             	mov    -0x4(%rbp),%eax
    8638:	2b 45 f8             	sub    -0x8(%rbp),%eax
    863b:	eb 03                	jmp    8640 <safe_sub_func_int32_t_s_s+0x3b>
    863d:	8b 45 fc             	mov    -0x4(%rbp),%eax
    8640:	5d                   	pop    %rbp
    8641:	c3                   	retq   

0000000000008642 <safe_mul_func_int32_t_s_s>:
    8642:	f3 0f 1e fa          	endbr64 
    8646:	55                   	push   %rbp
    8647:	48 89 e5             	mov    %rsp,%rbp
    864a:	89 7d fc             	mov    %edi,-0x4(%rbp)
    864d:	89 75 f8             	mov    %esi,-0x8(%rbp)
    8650:	83 7d fc 00          	cmpl   $0x0,-0x4(%rbp)
    8654:	7e 14                	jle    866a <safe_mul_func_int32_t_s_s+0x28>
    8656:	83 7d f8 00          	cmpl   $0x0,-0x8(%rbp)
    865a:	7e 0e                	jle    866a <safe_mul_func_int32_t_s_s+0x28>
    865c:	b8 ff ff ff 7f       	mov    $0x7fffffff,%eax
    8661:	99                   	cltd   
    8662:	f7 7d f8             	idivl  -0x8(%rbp)
    8665:	39 45 fc             	cmp    %eax,-0x4(%rbp)
    8668:	7f 5d                	jg     86c7 <safe_mul_func_int32_t_s_s+0x85>
    866a:	83 7d fc 00          	cmpl   $0x0,-0x4(%rbp)
    866e:	7e 14                	jle    8684 <safe_mul_func_int32_t_s_s+0x42>
    8670:	83 7d f8 00          	cmpl   $0x0,-0x8(%rbp)
    8674:	7f 0e                	jg     8684 <safe_mul_func_int32_t_s_s+0x42>
    8676:	b8 00 00 00 80       	mov    $0x80000000,%eax
    867b:	99                   	cltd   
    867c:	f7 7d fc             	idivl  -0x4(%rbp)
    867f:	39 45 f8             	cmp    %eax,-0x8(%rbp)
    8682:	7c 43                	jl     86c7 <safe_mul_func_int32_t_s_s+0x85>
    8684:	83 7d fc 00          	cmpl   $0x0,-0x4(%rbp)
    8688:	7f 14                	jg     869e <safe_mul_func_int32_t_s_s+0x5c>
    868a:	83 7d f8 00          	cmpl   $0x0,-0x8(%rbp)
    868e:	7e 0e                	jle    869e <safe_mul_func_int32_t_s_s+0x5c>
    8690:	b8 00 00 00 80       	mov    $0x80000000,%eax
    8695:	99                   	cltd   
    8696:	f7 7d f8             	idivl  -0x8(%rbp)
    8699:	39 45 fc             	cmp    %eax,-0x4(%rbp)
    869c:	7c 29                	jl     86c7 <safe_mul_func_int32_t_s_s+0x85>
    869e:	83 7d fc 00          	cmpl   $0x0,-0x4(%rbp)
    86a2:	7f 1a                	jg     86be <safe_mul_func_int32_t_s_s+0x7c>
    86a4:	83 7d f8 00          	cmpl   $0x0,-0x8(%rbp)
    86a8:	7f 14                	jg     86be <safe_mul_func_int32_t_s_s+0x7c>
    86aa:	83 7d fc 00          	cmpl   $0x0,-0x4(%rbp)
    86ae:	74 0e                	je     86be <safe_mul_func_int32_t_s_s+0x7c>
    86b0:	b8 ff ff ff 7f       	mov    $0x7fffffff,%eax
    86b5:	99                   	cltd   
    86b6:	f7 7d fc             	idivl  -0x4(%rbp)
    86b9:	39 45 f8             	cmp    %eax,-0x8(%rbp)
    86bc:	7c 09                	jl     86c7 <safe_mul_func_int32_t_s_s+0x85>
    86be:	8b 45 fc             	mov    -0x4(%rbp),%eax
    86c1:	0f af 45 f8          	imul   -0x8(%rbp),%eax
    86c5:	eb 03                	jmp    86ca <safe_mul_func_int32_t_s_s+0x88>
    86c7:	8b 45 fc             	mov    -0x4(%rbp),%eax
    86ca:	5d                   	pop    %rbp
    86cb:	c3                   	retq   

00000000000086cc <safe_mod_func_int32_t_s_s>:
    86cc:	f3 0f 1e fa          	endbr64 
    86d0:	55                   	push   %rbp
    86d1:	48 89 e5             	mov    %rsp,%rbp
    86d4:	89 7d fc             	mov    %edi,-0x4(%rbp)
    86d7:	89 75 f8             	mov    %esi,-0x8(%rbp)
    86da:	83 7d f8 00          	cmpl   $0x0,-0x8(%rbp)
    86de:	74 1a                	je     86fa <safe_mod_func_int32_t_s_s+0x2e>
    86e0:	81 7d fc 00 00 00 80 	cmpl   $0x80000000,-0x4(%rbp)
    86e7:	75 06                	jne    86ef <safe_mod_func_int32_t_s_s+0x23>
    86e9:	83 7d f8 ff          	cmpl   $0xffffffff,-0x8(%rbp)
    86ed:	74 0b                	je     86fa <safe_mod_func_int32_t_s_s+0x2e>
    86ef:	8b 45 fc             	mov    -0x4(%rbp),%eax
    86f2:	99                   	cltd   
    86f3:	f7 7d f8             	idivl  -0x8(%rbp)
    86f6:	89 d0                	mov    %edx,%eax
    86f8:	eb 03                	jmp    86fd <safe_mod_func_int32_t_s_s+0x31>
    86fa:	8b 45 fc             	mov    -0x4(%rbp),%eax
    86fd:	5d                   	pop    %rbp
    86fe:	c3                   	retq   

00000000000086ff <safe_div_func_int32_t_s_s>:
    86ff:	f3 0f 1e fa          	endbr64 
    8703:	55                   	push   %rbp
    8704:	48 89 e5             	mov    %rsp,%rbp
    8707:	89 7d fc             	mov    %edi,-0x4(%rbp)
    870a:	89 75 f8             	mov    %esi,-0x8(%rbp)
    870d:	83 7d f8 00          	cmpl   $0x0,-0x8(%rbp)
    8711:	74 18                	je     872b <safe_div_func_int32_t_s_s+0x2c>
    8713:	81 7d fc 00 00 00 80 	cmpl   $0x80000000,-0x4(%rbp)
    871a:	75 06                	jne    8722 <safe_div_func_int32_t_s_s+0x23>
    871c:	83 7d f8 ff          	cmpl   $0xffffffff,-0x8(%rbp)
    8720:	74 09                	je     872b <safe_div_func_int32_t_s_s+0x2c>
    8722:	8b 45 fc             	mov    -0x4(%rbp),%eax
    8725:	99                   	cltd   
    8726:	f7 7d f8             	idivl  -0x8(%rbp)
    8729:	eb 03                	jmp    872e <safe_div_func_int32_t_s_s+0x2f>
    872b:	8b 45 fc             	mov    -0x4(%rbp),%eax
    872e:	5d                   	pop    %rbp
    872f:	c3                   	retq   

0000000000008730 <safe_lshift_func_int32_t_s_s>:
    8730:	f3 0f 1e fa          	endbr64 
    8734:	55                   	push   %rbp
    8735:	48 89 e5             	mov    %rsp,%rbp
    8738:	89 7d fc             	mov    %edi,-0x4(%rbp)
    873b:	89 75 f8             	mov    %esi,-0x8(%rbp)
    873e:	83 7d fc 00          	cmpl   $0x0,-0x4(%rbp)
    8742:	78 2d                	js     8771 <safe_lshift_func_int32_t_s_s+0x41>
    8744:	83 7d f8 00          	cmpl   $0x0,-0x8(%rbp)
    8748:	78 27                	js     8771 <safe_lshift_func_int32_t_s_s+0x41>
    874a:	83 7d f8 1f          	cmpl   $0x1f,-0x8(%rbp)
    874e:	7f 21                	jg     8771 <safe_lshift_func_int32_t_s_s+0x41>
    8750:	8b 45 f8             	mov    -0x8(%rbp),%eax
    8753:	ba ff ff ff 7f       	mov    $0x7fffffff,%edx
    8758:	89 c1                	mov    %eax,%ecx
    875a:	d3 fa                	sar    %cl,%edx
    875c:	89 d0                	mov    %edx,%eax
    875e:	39 45 fc             	cmp    %eax,-0x4(%rbp)
    8761:	7f 0e                	jg     8771 <safe_lshift_func_int32_t_s_s+0x41>
    8763:	8b 45 f8             	mov    -0x8(%rbp),%eax
    8766:	8b 55 fc             	mov    -0x4(%rbp),%edx
    8769:	89 c1                	mov    %eax,%ecx
    876b:	d3 e2                	shl    %cl,%edx
    876d:	89 d0                	mov    %edx,%eax
    876f:	eb 03                	jmp    8774 <safe_lshift_func_int32_t_s_s+0x44>
    8771:	8b 45 fc             	mov    -0x4(%rbp),%eax
    8774:	5d                   	pop    %rbp
    8775:	c3                   	retq   

0000000000008776 <safe_lshift_func_int32_t_s_u>:
    8776:	f3 0f 1e fa          	endbr64 
    877a:	55                   	push   %rbp
    877b:	48 89 e5             	mov    %rsp,%rbp
    877e:	89 7d fc             	mov    %edi,-0x4(%rbp)
    8781:	89 75 f8             	mov    %esi,-0x8(%rbp)
    8784:	83 7d fc 00          	cmpl   $0x0,-0x4(%rbp)
    8788:	78 27                	js     87b1 <safe_lshift_func_int32_t_s_u+0x3b>
    878a:	83 7d f8 1f          	cmpl   $0x1f,-0x8(%rbp)
    878e:	77 21                	ja     87b1 <safe_lshift_func_int32_t_s_u+0x3b>
    8790:	8b 45 f8             	mov    -0x8(%rbp),%eax
    8793:	ba ff ff ff 7f       	mov    $0x7fffffff,%edx
    8798:	89 c1                	mov    %eax,%ecx
    879a:	d3 fa                	sar    %cl,%edx
    879c:	89 d0                	mov    %edx,%eax
    879e:	39 45 fc             	cmp    %eax,-0x4(%rbp)
    87a1:	7f 0e                	jg     87b1 <safe_lshift_func_int32_t_s_u+0x3b>
    87a3:	8b 45 f8             	mov    -0x8(%rbp),%eax
    87a6:	8b 55 fc             	mov    -0x4(%rbp),%edx
    87a9:	89 c1                	mov    %eax,%ecx
    87ab:	d3 e2                	shl    %cl,%edx
    87ad:	89 d0                	mov    %edx,%eax
    87af:	eb 03                	jmp    87b4 <safe_lshift_func_int32_t_s_u+0x3e>
    87b1:	8b 45 fc             	mov    -0x4(%rbp),%eax
    87b4:	5d                   	pop    %rbp
    87b5:	c3                   	retq   

00000000000087b6 <safe_rshift_func_int32_t_s_s>:
    87b6:	f3 0f 1e fa          	endbr64 
    87ba:	55                   	push   %rbp
    87bb:	48 89 e5             	mov    %rsp,%rbp
    87be:	89 7d fc             	mov    %edi,-0x4(%rbp)
    87c1:	89 75 f8             	mov    %esi,-0x8(%rbp)
    87c4:	83 7d fc 00          	cmpl   $0x0,-0x4(%rbp)
    87c8:	78 1a                	js     87e4 <safe_rshift_func_int32_t_s_s+0x2e>
    87ca:	83 7d f8 00          	cmpl   $0x0,-0x8(%rbp)
    87ce:	78 14                	js     87e4 <safe_rshift_func_int32_t_s_s+0x2e>
    87d0:	83 7d f8 1f          	cmpl   $0x1f,-0x8(%rbp)
    87d4:	7f 0e                	jg     87e4 <safe_rshift_func_int32_t_s_s+0x2e>
    87d6:	8b 45 f8             	mov    -0x8(%rbp),%eax
    87d9:	8b 55 fc             	mov    -0x4(%rbp),%edx
    87dc:	89 c1                	mov    %eax,%ecx
    87de:	d3 fa                	sar    %cl,%edx
    87e0:	89 d0                	mov    %edx,%eax
    87e2:	eb 03                	jmp    87e7 <safe_rshift_func_int32_t_s_s+0x31>
    87e4:	8b 45 fc             	mov    -0x4(%rbp),%eax
    87e7:	5d                   	pop    %rbp
    87e8:	c3                   	retq   

00000000000087e9 <safe_rshift_func_int32_t_s_u>:
    87e9:	f3 0f 1e fa          	endbr64 
    87ed:	55                   	push   %rbp
    87ee:	48 89 e5             	mov    %rsp,%rbp
    87f1:	89 7d fc             	mov    %edi,-0x4(%rbp)
    87f4:	89 75 f8             	mov    %esi,-0x8(%rbp)
    87f7:	83 7d fc 00          	cmpl   $0x0,-0x4(%rbp)
    87fb:	78 14                	js     8811 <safe_rshift_func_int32_t_s_u+0x28>
    87fd:	83 7d f8 1f          	cmpl   $0x1f,-0x8(%rbp)
    8801:	77 0e                	ja     8811 <safe_rshift_func_int32_t_s_u+0x28>
    8803:	8b 45 f8             	mov    -0x8(%rbp),%eax
    8806:	8b 55 fc             	mov    -0x4(%rbp),%edx
    8809:	89 c1                	mov    %eax,%ecx
    880b:	d3 fa                	sar    %cl,%edx
    880d:	89 d0                	mov    %edx,%eax
    880f:	eb 03                	jmp    8814 <safe_rshift_func_int32_t_s_u+0x2b>
    8811:	8b 45 fc             	mov    -0x4(%rbp),%eax
    8814:	5d                   	pop    %rbp
    8815:	c3                   	retq   

0000000000008816 <safe_unary_minus_func_int64_t_s>:
    8816:	f3 0f 1e fa          	endbr64 
    881a:	55                   	push   %rbp
    881b:	48 89 e5             	mov    %rsp,%rbp
    881e:	48 89 7d f8          	mov    %rdi,-0x8(%rbp)
    8822:	48 b8 00 00 00 00 00 	movabs $0x8000000000000000,%rax
    8829:	00 00 80 
    882c:	48 39 45 f8          	cmp    %rax,-0x8(%rbp)
    8830:	74 09                	je     883b <safe_unary_minus_func_int64_t_s+0x25>
    8832:	48 8b 45 f8          	mov    -0x8(%rbp),%rax
    8836:	48 f7 d8             	neg    %rax
    8839:	eb 04                	jmp    883f <safe_unary_minus_func_int64_t_s+0x29>
    883b:	48 8b 45 f8          	mov    -0x8(%rbp),%rax
    883f:	5d                   	pop    %rbp
    8840:	c3                   	retq   

0000000000008841 <safe_add_func_int64_t_s_s>:
    8841:	f3 0f 1e fa          	endbr64 
    8845:	55                   	push   %rbp
    8846:	48 89 e5             	mov    %rsp,%rbp
    8849:	48 89 7d f8          	mov    %rdi,-0x8(%rbp)
    884d:	48 89 75 f0          	mov    %rsi,-0x10(%rbp)
    8851:	48 83 7d f8 00       	cmpq   $0x0,-0x8(%rbp)
    8856:	7e 1b                	jle    8873 <safe_add_func_int64_t_s_s+0x32>
    8858:	48 83 7d f0 00       	cmpq   $0x0,-0x10(%rbp)
    885d:	7e 14                	jle    8873 <safe_add_func_int64_t_s_s+0x32>
    885f:	48 b8 ff ff ff ff ff 	movabs $0x7fffffffffffffff,%rax
    8866:	ff ff 7f 
    8869:	48 2b 45 f0          	sub    -0x10(%rbp),%rax
    886d:	48 39 45 f8          	cmp    %rax,-0x8(%rbp)
    8871:	7f 2f                	jg     88a2 <safe_add_func_int64_t_s_s+0x61>
    8873:	48 83 7d f8 00       	cmpq   $0x0,-0x8(%rbp)
    8878:	79 1b                	jns    8895 <safe_add_func_int64_t_s_s+0x54>
    887a:	48 83 7d f0 00       	cmpq   $0x0,-0x10(%rbp)
    887f:	79 14                	jns    8895 <safe_add_func_int64_t_s_s+0x54>
    8881:	48 b8 00 00 00 00 00 	movabs $0x8000000000000000,%rax
    8888:	00 00 80 
    888b:	48 2b 45 f0          	sub    -0x10(%rbp),%rax
    888f:	48 39 45 f8          	cmp    %rax,-0x8(%rbp)
    8893:	7c 0d                	jl     88a2 <safe_add_func_int64_t_s_s+0x61>
    8895:	48 8b 55 f8          	mov    -0x8(%rbp),%rdx
    8899:	48 8b 45 f0          	mov    -0x10(%rbp),%rax
    889d:	48 01 d0             	add    %rdx,%rax
    88a0:	eb 04                	jmp    88a6 <safe_add_func_int64_t_s_s+0x65>
    88a2:	48 8b 45 f8          	mov    -0x8(%rbp),%rax
    88a6:	5d                   	pop    %rbp
    88a7:	c3                   	retq   

00000000000088a8 <safe_sub_func_int64_t_s_s>:
    88a8:	f3 0f 1e fa          	endbr64 
    88ac:	55                   	push   %rbp
    88ad:	48 89 e5             	mov    %rsp,%rbp
    88b0:	48 89 7d f8          	mov    %rdi,-0x8(%rbp)
    88b4:	48 89 75 f0          	mov    %rsi,-0x10(%rbp)
    88b8:	48 8b 45 f8          	mov    -0x8(%rbp),%rax
    88bc:	48 33 45 f0          	xor    -0x10(%rbp),%rax
    88c0:	48 89 c2             	mov    %rax,%rdx
    88c3:	48 8b 45 f8          	mov    -0x8(%rbp),%rax
    88c7:	48 33 45 f0          	xor    -0x10(%rbp),%rax
    88cb:	48 b9 00 00 00 00 00 	movabs $0x8000000000000000,%rcx
    88d2:	00 00 80 
    88d5:	48 21 c8             	and    %rcx,%rax
    88d8:	48 33 45 f8          	xor    -0x8(%rbp),%rax
    88dc:	48 2b 45 f0          	sub    -0x10(%rbp),%rax
    88e0:	48 33 45 f0          	xor    -0x10(%rbp),%rax
    88e4:	48 21 d0             	and    %rdx,%rax
    88e7:	48 85 c0             	test   %rax,%rax
    88ea:	78 0a                	js     88f6 <safe_sub_func_int64_t_s_s+0x4e>
    88ec:	48 8b 45 f8          	mov    -0x8(%rbp),%rax
    88f0:	48 2b 45 f0          	sub    -0x10(%rbp),%rax
    88f4:	eb 04                	jmp    88fa <safe_sub_func_int64_t_s_s+0x52>
    88f6:	48 8b 45 f8          	mov    -0x8(%rbp),%rax
    88fa:	5d                   	pop    %rbp
    88fb:	c3                   	retq   

00000000000088fc <safe_mul_func_int64_t_s_s>:
    88fc:	f3 0f 1e fa          	endbr64 
    8900:	55                   	push   %rbp
    8901:	48 89 e5             	mov    %rsp,%rbp
    8904:	48 89 7d f8          	mov    %rdi,-0x8(%rbp)
    8908:	48 89 75 f0          	mov    %rsi,-0x10(%rbp)
    890c:	48 83 7d f8 00       	cmpq   $0x0,-0x8(%rbp)
    8911:	7e 1d                	jle    8930 <safe_mul_func_int64_t_s_s+0x34>
    8913:	48 83 7d f0 00       	cmpq   $0x0,-0x10(%rbp)
    8918:	7e 16                	jle    8930 <safe_mul_func_int64_t_s_s+0x34>
    891a:	48 b8 ff ff ff ff ff 	movabs $0x7fffffffffffffff,%rax
    8921:	ff ff 7f 
    8924:	48 99                	cqto   
    8926:	48 f7 7d f0          	idivq  -0x10(%rbp)
    892a:	48 39 45 f8          	cmp    %rax,-0x8(%rbp)
    892e:	7f 7e                	jg     89ae <safe_mul_func_int64_t_s_s+0xb2>
    8930:	48 83 7d f8 00       	cmpq   $0x0,-0x8(%rbp)
    8935:	7e 1d                	jle    8954 <safe_mul_func_int64_t_s_s+0x58>
    8937:	48 83 7d f0 00       	cmpq   $0x0,-0x10(%rbp)
    893c:	7f 16                	jg     8954 <safe_mul_func_int64_t_s_s+0x58>
    893e:	48 b8 00 00 00 00 00 	movabs $0x8000000000000000,%rax
    8945:	00 00 80 
    8948:	48 99                	cqto   
    894a:	48 f7 7d f8          	idivq  -0x8(%rbp)
    894e:	48 39 45 f0          	cmp    %rax,-0x10(%rbp)
    8952:	7c 5a                	jl     89ae <safe_mul_func_int64_t_s_s+0xb2>
    8954:	48 83 7d f8 00       	cmpq   $0x0,-0x8(%rbp)
    8959:	7f 1d                	jg     8978 <safe_mul_func_int64_t_s_s+0x7c>
    895b:	48 83 7d f0 00       	cmpq   $0x0,-0x10(%rbp)
    8960:	7e 16                	jle    8978 <safe_mul_func_int64_t_s_s+0x7c>
    8962:	48 b8 00 00 00 00 00 	movabs $0x8000000000000000,%rax
    8969:	00 00 80 
    896c:	48 99                	cqto   
    896e:	48 f7 7d f0          	idivq  -0x10(%rbp)
    8972:	48 39 45 f8          	cmp    %rax,-0x8(%rbp)
    8976:	7c 36                	jl     89ae <safe_mul_func_int64_t_s_s+0xb2>
    8978:	48 83 7d f8 00       	cmpq   $0x0,-0x8(%rbp)
    897d:	7f 24                	jg     89a3 <safe_mul_func_int64_t_s_s+0xa7>
    897f:	48 83 7d f0 00       	cmpq   $0x0,-0x10(%rbp)
    8984:	7f 1d                	jg     89a3 <safe_mul_func_int64_t_s_s+0xa7>
    8986:	48 83 7d f8 00       	cmpq   $0x0,-0x8(%rbp)
    898b:	74 16                	je     89a3 <safe_mul_func_int64_t_s_s+0xa7>
    898d:	48 b8 ff ff ff ff ff 	movabs $0x7fffffffffffffff,%rax
    8994:	ff ff 7f 
    8997:	48 99                	cqto   
    8999:	48 f7 7d f8          	idivq  -0x8(%rbp)
    899d:	48 39 45 f0          	cmp    %rax,-0x10(%rbp)
    89a1:	7c 0b                	jl     89ae <safe_mul_func_int64_t_s_s+0xb2>
    89a3:	48 8b 45 f8          	mov    -0x8(%rbp),%rax
    89a7:	48 0f af 45 f0       	imul   -0x10(%rbp),%rax
    89ac:	eb 04                	jmp    89b2 <safe_mul_func_int64_t_s_s+0xb6>
    89ae:	48 8b 45 f8          	mov    -0x8(%rbp),%rax
    89b2:	5d                   	pop    %rbp
    89b3:	c3                   	retq   

00000000000089b4 <safe_mod_func_int64_t_s_s>:
    89b4:	f3 0f 1e fa          	endbr64 
    89b8:	55                   	push   %rbp
    89b9:	48 89 e5             	mov    %rsp,%rbp
    89bc:	48 89 7d f8          	mov    %rdi,-0x8(%rbp)
    89c0:	48 89 75 f0          	mov    %rsi,-0x10(%rbp)
    89c4:	48 83 7d f0 00       	cmpq   $0x0,-0x10(%rbp)
    89c9:	74 26                	je     89f1 <safe_mod_func_int64_t_s_s+0x3d>
    89cb:	48 b8 00 00 00 00 00 	movabs $0x8000000000000000,%rax
    89d2:	00 00 80 
    89d5:	48 39 45 f8          	cmp    %rax,-0x8(%rbp)
    89d9:	75 07                	jne    89e2 <safe_mod_func_int64_t_s_s+0x2e>
    89db:	48 83 7d f0 ff       	cmpq   $0xffffffffffffffff,-0x10(%rbp)
    89e0:	74 0f                	je     89f1 <safe_mod_func_int64_t_s_s+0x3d>
    89e2:	48 8b 45 f8          	mov    -0x8(%rbp),%rax
    89e6:	48 99                	cqto   
    89e8:	48 f7 7d f0          	idivq  -0x10(%rbp)
    89ec:	48 89 d0             	mov    %rdx,%rax
    89ef:	eb 04                	jmp    89f5 <safe_mod_func_int64_t_s_s+0x41>
    89f1:	48 8b 45 f8          	mov    -0x8(%rbp),%rax
    89f5:	5d                   	pop    %rbp
    89f6:	c3                   	retq   

00000000000089f7 <safe_div_func_int64_t_s_s>:
    89f7:	f3 0f 1e fa          	endbr64 
    89fb:	55                   	push   %rbp
    89fc:	48 89 e5             	mov    %rsp,%rbp
    89ff:	48 89 7d f8          	mov    %rdi,-0x8(%rbp)
    8a03:	48 89 75 f0          	mov    %rsi,-0x10(%rbp)
    8a07:	48 83 7d f0 00       	cmpq   $0x0,-0x10(%rbp)
    8a0c:	74 23                	je     8a31 <safe_div_func_int64_t_s_s+0x3a>
    8a0e:	48 b8 00 00 00 00 00 	movabs $0x8000000000000000,%rax
    8a15:	00 00 80 
    8a18:	48 39 45 f8          	cmp    %rax,-0x8(%rbp)
    8a1c:	75 07                	jne    8a25 <safe_div_func_int64_t_s_s+0x2e>
    8a1e:	48 83 7d f0 ff       	cmpq   $0xffffffffffffffff,-0x10(%rbp)
    8a23:	74 0c                	je     8a31 <safe_div_func_int64_t_s_s+0x3a>
    8a25:	48 8b 45 f8          	mov    -0x8(%rbp),%rax
    8a29:	48 99                	cqto   
    8a2b:	48 f7 7d f0          	idivq  -0x10(%rbp)
    8a2f:	eb 04                	jmp    8a35 <safe_div_func_int64_t_s_s+0x3e>
    8a31:	48 8b 45 f8          	mov    -0x8(%rbp),%rax
    8a35:	5d                   	pop    %rbp
    8a36:	c3                   	retq   

0000000000008a37 <safe_lshift_func_int64_t_s_s>:
    8a37:	f3 0f 1e fa          	endbr64 
    8a3b:	55                   	push   %rbp
    8a3c:	48 89 e5             	mov    %rsp,%rbp
    8a3f:	48 89 7d f8          	mov    %rdi,-0x8(%rbp)
    8a43:	89 75 f4             	mov    %esi,-0xc(%rbp)
    8a46:	48 83 7d f8 00       	cmpq   $0x0,-0x8(%rbp)
    8a4b:	78 38                	js     8a85 <safe_lshift_func_int64_t_s_s+0x4e>
    8a4d:	83 7d f4 00          	cmpl   $0x0,-0xc(%rbp)
    8a51:	78 32                	js     8a85 <safe_lshift_func_int64_t_s_s+0x4e>
    8a53:	83 7d f4 1f          	cmpl   $0x1f,-0xc(%rbp)
    8a57:	7f 2c                	jg     8a85 <safe_lshift_func_int64_t_s_s+0x4e>
    8a59:	8b 45 f4             	mov    -0xc(%rbp),%eax
    8a5c:	48 ba ff ff ff ff ff 	movabs $0x7fffffffffffffff,%rdx
    8a63:	ff ff 7f 
    8a66:	89 c1                	mov    %eax,%ecx
    8a68:	48 d3 fa             	sar    %cl,%rdx
    8a6b:	48 89 d0             	mov    %rdx,%rax
    8a6e:	48 39 45 f8          	cmp    %rax,-0x8(%rbp)
    8a72:	7f 11                	jg     8a85 <safe_lshift_func_int64_t_s_s+0x4e>
    8a74:	8b 45 f4             	mov    -0xc(%rbp),%eax
    8a77:	48 8b 55 f8          	mov    -0x8(%rbp),%rdx
    8a7b:	89 c1                	mov    %eax,%ecx
    8a7d:	48 d3 e2             	shl    %cl,%rdx
    8a80:	48 89 d0             	mov    %rdx,%rax
    8a83:	eb 04                	jmp    8a89 <safe_lshift_func_int64_t_s_s+0x52>
    8a85:	48 8b 45 f8          	mov    -0x8(%rbp),%rax
    8a89:	5d                   	pop    %rbp
    8a8a:	c3                   	retq   

0000000000008a8b <safe_lshift_func_int64_t_s_u>:
    8a8b:	f3 0f 1e fa          	endbr64 
    8a8f:	55                   	push   %rbp
    8a90:	48 89 e5             	mov    %rsp,%rbp
    8a93:	48 89 7d f8          	mov    %rdi,-0x8(%rbp)
    8a97:	89 75 f4             	mov    %esi,-0xc(%rbp)
    8a9a:	48 83 7d f8 00       	cmpq   $0x0,-0x8(%rbp)
    8a9f:	78 32                	js     8ad3 <safe_lshift_func_int64_t_s_u+0x48>
    8aa1:	83 7d f4 1f          	cmpl   $0x1f,-0xc(%rbp)
    8aa5:	77 2c                	ja     8ad3 <safe_lshift_func_int64_t_s_u+0x48>
    8aa7:	8b 45 f4             	mov    -0xc(%rbp),%eax
    8aaa:	48 ba ff ff ff ff ff 	movabs $0x7fffffffffffffff,%rdx
    8ab1:	ff ff 7f 
    8ab4:	89 c1                	mov    %eax,%ecx
    8ab6:	48 d3 fa             	sar    %cl,%rdx
    8ab9:	48 89 d0             	mov    %rdx,%rax
    8abc:	48 39 45 f8          	cmp    %rax,-0x8(%rbp)
    8ac0:	7f 11                	jg     8ad3 <safe_lshift_func_int64_t_s_u+0x48>
    8ac2:	8b 45 f4             	mov    -0xc(%rbp),%eax
    8ac5:	48 8b 55 f8          	mov    -0x8(%rbp),%rdx
    8ac9:	89 c1                	mov    %eax,%ecx
    8acb:	48 d3 e2             	shl    %cl,%rdx
    8ace:	48 89 d0             	mov    %rdx,%rax
    8ad1:	eb 04                	jmp    8ad7 <safe_lshift_func_int64_t_s_u+0x4c>
    8ad3:	48 8b 45 f8          	mov    -0x8(%rbp),%rax
    8ad7:	5d                   	pop    %rbp
    8ad8:	c3                   	retq   

0000000000008ad9 <safe_rshift_func_int64_t_s_s>:
    8ad9:	f3 0f 1e fa          	endbr64 
    8add:	55                   	push   %rbp
    8ade:	48 89 e5             	mov    %rsp,%rbp
    8ae1:	48 89 7d f8          	mov    %rdi,-0x8(%rbp)
    8ae5:	89 75 f4             	mov    %esi,-0xc(%rbp)
    8ae8:	48 83 7d f8 00       	cmpq   $0x0,-0x8(%rbp)
    8aed:	78 1d                	js     8b0c <safe_rshift_func_int64_t_s_s+0x33>
    8aef:	83 7d f4 00          	cmpl   $0x0,-0xc(%rbp)
    8af3:	78 17                	js     8b0c <safe_rshift_func_int64_t_s_s+0x33>
    8af5:	83 7d f4 1f          	cmpl   $0x1f,-0xc(%rbp)
    8af9:	7f 11                	jg     8b0c <safe_rshift_func_int64_t_s_s+0x33>
    8afb:	8b 45 f4             	mov    -0xc(%rbp),%eax
    8afe:	48 8b 55 f8          	mov    -0x8(%rbp),%rdx
    8b02:	89 c1                	mov    %eax,%ecx
    8b04:	48 d3 fa             	sar    %cl,%rdx
    8b07:	48 89 d0             	mov    %rdx,%rax
    8b0a:	eb 04                	jmp    8b10 <safe_rshift_func_int64_t_s_s+0x37>
    8b0c:	48 8b 45 f8          	mov    -0x8(%rbp),%rax
    8b10:	5d                   	pop    %rbp
    8b11:	c3                   	retq   

0000000000008b12 <safe_rshift_func_int64_t_s_u>:
    8b12:	f3 0f 1e fa          	endbr64 
    8b16:	55                   	push   %rbp
    8b17:	48 89 e5             	mov    %rsp,%rbp
    8b1a:	48 89 7d f8          	mov    %rdi,-0x8(%rbp)
    8b1e:	89 75 f4             	mov    %esi,-0xc(%rbp)
    8b21:	48 83 7d f8 00       	cmpq   $0x0,-0x8(%rbp)
    8b26:	78 17                	js     8b3f <safe_rshift_func_int64_t_s_u+0x2d>
    8b28:	83 7d f4 1f          	cmpl   $0x1f,-0xc(%rbp)
    8b2c:	77 11                	ja     8b3f <safe_rshift_func_int64_t_s_u+0x2d>
    8b2e:	8b 45 f4             	mov    -0xc(%rbp),%eax
    8b31:	48 8b 55 f8          	mov    -0x8(%rbp),%rdx
    8b35:	89 c1                	mov    %eax,%ecx
    8b37:	48 d3 fa             	sar    %cl,%rdx
    8b3a:	48 89 d0             	mov    %rdx,%rax
    8b3d:	eb 04                	jmp    8b43 <safe_rshift_func_int64_t_s_u+0x31>
    8b3f:	48 8b 45 f8          	mov    -0x8(%rbp),%rax
    8b43:	5d                   	pop    %rbp
    8b44:	c3                   	retq   

0000000000008b45 <safe_unary_minus_func_uint8_t_u>:
    8b45:	f3 0f 1e fa          	endbr64 
    8b49:	55                   	push   %rbp
    8b4a:	48 89 e5             	mov    %rsp,%rbp
    8b4d:	89 f8                	mov    %edi,%eax
    8b4f:	88 45 fc             	mov    %al,-0x4(%rbp)
    8b52:	0f b6 45 fc          	movzbl -0x4(%rbp),%eax
    8b56:	f7 d8                	neg    %eax
    8b58:	5d                   	pop    %rbp
    8b59:	c3                   	retq   

0000000000008b5a <safe_add_func_uint8_t_u_u>:
    8b5a:	f3 0f 1e fa          	endbr64 
    8b5e:	55                   	push   %rbp
    8b5f:	48 89 e5             	mov    %rsp,%rbp
    8b62:	89 fa                	mov    %edi,%edx
    8b64:	89 f0                	mov    %esi,%eax
    8b66:	88 55 fc             	mov    %dl,-0x4(%rbp)
    8b69:	88 45 f8             	mov    %al,-0x8(%rbp)
    8b6c:	0f b6 55 fc          	movzbl -0x4(%rbp),%edx
    8b70:	0f b6 45 f8          	movzbl -0x8(%rbp),%eax
    8b74:	01 d0                	add    %edx,%eax
    8b76:	5d                   	pop    %rbp
    8b77:	c3                   	retq   

0000000000008b78 <safe_sub_func_uint8_t_u_u>:
    8b78:	f3 0f 1e fa          	endbr64 
    8b7c:	55                   	push   %rbp
    8b7d:	48 89 e5             	mov    %rsp,%rbp
    8b80:	89 fa                	mov    %edi,%edx
    8b82:	89 f0                	mov    %esi,%eax
    8b84:	88 55 fc             	mov    %dl,-0x4(%rbp)
    8b87:	88 45 f8             	mov    %al,-0x8(%rbp)
    8b8a:	0f b6 45 fc          	movzbl -0x4(%rbp),%eax
    8b8e:	2a 45 f8             	sub    -0x8(%rbp),%al
    8b91:	5d                   	pop    %rbp
    8b92:	c3                   	retq   

0000000000008b93 <safe_mul_func_uint8_t_u_u>:
    8b93:	f3 0f 1e fa          	endbr64 
    8b97:	55                   	push   %rbp
    8b98:	48 89 e5             	mov    %rsp,%rbp
    8b9b:	89 fa                	mov    %edi,%edx
    8b9d:	89 f0                	mov    %esi,%eax
    8b9f:	88 55 fc             	mov    %dl,-0x4(%rbp)
    8ba2:	88 45 f8             	mov    %al,-0x8(%rbp)
    8ba5:	0f b6 45 fc          	movzbl -0x4(%rbp),%eax
    8ba9:	f6 65 f8             	mulb   -0x8(%rbp)
    8bac:	5d                   	pop    %rbp
    8bad:	c3                   	retq   

0000000000008bae <safe_mod_func_uint8_t_u_u>:
    8bae:	f3 0f 1e fa          	endbr64 
    8bb2:	55                   	push   %rbp
    8bb3:	48 89 e5             	mov    %rsp,%rbp
    8bb6:	89 fa                	mov    %edi,%edx
    8bb8:	89 f0                	mov    %esi,%eax
    8bba:	88 55 fc             	mov    %dl,-0x4(%rbp)
    8bbd:	88 45 f8             	mov    %al,-0x8(%rbp)
    8bc0:	80 7d f8 00          	cmpb   $0x0,-0x8(%rbp)
    8bc4:	74 0f                	je     8bd5 <safe_mod_func_uint8_t_u_u+0x27>
    8bc6:	0f b6 45 fc          	movzbl -0x4(%rbp),%eax
    8bca:	0f b6 c0             	movzbl %al,%eax
    8bcd:	f6 75 f8             	divb   -0x8(%rbp)
    8bd0:	0f b6 c4             	movzbl %ah,%eax
    8bd3:	eb 04                	jmp    8bd9 <safe_mod_func_uint8_t_u_u+0x2b>
    8bd5:	0f b6 45 fc          	movzbl -0x4(%rbp),%eax
    8bd9:	5d                   	pop    %rbp
    8bda:	c3                   	retq   

0000000000008bdb <safe_div_func_uint8_t_u_u>:
    8bdb:	f3 0f 1e fa          	endbr64 
    8bdf:	55                   	push   %rbp
    8be0:	48 89 e5             	mov    %rsp,%rbp
    8be3:	89 fa                	mov    %edi,%edx
    8be5:	89 f0                	mov    %esi,%eax
    8be7:	88 55 fc             	mov    %dl,-0x4(%rbp)
    8bea:	88 45 f8             	mov    %al,-0x8(%rbp)
    8bed:	80 7d f8 00          	cmpb   $0x0,-0x8(%rbp)
    8bf1:	74 0c                	je     8bff <safe_div_func_uint8_t_u_u+0x24>
    8bf3:	0f b6 45 fc          	movzbl -0x4(%rbp),%eax
    8bf7:	0f b6 c0             	movzbl %al,%eax
    8bfa:	f6 75 f8             	divb   -0x8(%rbp)
    8bfd:	eb 04                	jmp    8c03 <safe_div_func_uint8_t_u_u+0x28>
    8bff:	0f b6 45 fc          	movzbl -0x4(%rbp),%eax
    8c03:	5d                   	pop    %rbp
    8c04:	c3                   	retq   

0000000000008c05 <safe_lshift_func_uint8_t_u_s>:
    8c05:	f3 0f 1e fa          	endbr64 
    8c09:	55                   	push   %rbp
    8c0a:	48 89 e5             	mov    %rsp,%rbp
    8c0d:	89 f8                	mov    %edi,%eax
    8c0f:	89 75 f8             	mov    %esi,-0x8(%rbp)
    8c12:	88 45 fc             	mov    %al,-0x4(%rbp)
    8c15:	83 7d f8 00          	cmpl   $0x0,-0x8(%rbp)
    8c19:	78 2b                	js     8c46 <safe_lshift_func_uint8_t_u_s+0x41>
    8c1b:	83 7d f8 1f          	cmpl   $0x1f,-0x8(%rbp)
    8c1f:	7f 25                	jg     8c46 <safe_lshift_func_uint8_t_u_s+0x41>
    8c21:	0f b6 55 fc          	movzbl -0x4(%rbp),%edx
    8c25:	8b 45 f8             	mov    -0x8(%rbp),%eax
    8c28:	be ff 00 00 00       	mov    $0xff,%esi
    8c2d:	89 c1                	mov    %eax,%ecx
    8c2f:	d3 fe                	sar    %cl,%esi
    8c31:	89 f0                	mov    %esi,%eax
    8c33:	39 c2                	cmp    %eax,%edx
    8c35:	7f 0f                	jg     8c46 <safe_lshift_func_uint8_t_u_s+0x41>
    8c37:	0f b6 55 fc          	movzbl -0x4(%rbp),%edx
    8c3b:	8b 45 f8             	mov    -0x8(%rbp),%eax
    8c3e:	89 c1                	mov    %eax,%ecx
    8c40:	d3 e2                	shl    %cl,%edx
    8c42:	89 d0                	mov    %edx,%eax
    8c44:	eb 04                	jmp    8c4a <safe_lshift_func_uint8_t_u_s+0x45>
    8c46:	0f b6 45 fc          	movzbl -0x4(%rbp),%eax
    8c4a:	5d                   	pop    %rbp
    8c4b:	c3                   	retq   

0000000000008c4c <safe_lshift_func_uint8_t_u_u>:
    8c4c:	f3 0f 1e fa          	endbr64 
    8c50:	55                   	push   %rbp
    8c51:	48 89 e5             	mov    %rsp,%rbp
    8c54:	89 f8                	mov    %edi,%eax
    8c56:	89 75 f8             	mov    %esi,-0x8(%rbp)
    8c59:	88 45 fc             	mov    %al,-0x4(%rbp)
    8c5c:	83 7d f8 1f          	cmpl   $0x1f,-0x8(%rbp)
    8c60:	77 25                	ja     8c87 <safe_lshift_func_uint8_t_u_u+0x3b>
    8c62:	0f b6 55 fc          	movzbl -0x4(%rbp),%edx
    8c66:	8b 45 f8             	mov    -0x8(%rbp),%eax
    8c69:	be ff 00 00 00       	mov    $0xff,%esi
    8c6e:	89 c1                	mov    %eax,%ecx
    8c70:	d3 fe                	sar    %cl,%esi
    8c72:	89 f0                	mov    %esi,%eax
    8c74:	39 c2                	cmp    %eax,%edx
    8c76:	7f 0f                	jg     8c87 <safe_lshift_func_uint8_t_u_u+0x3b>
    8c78:	0f b6 55 fc          	movzbl -0x4(%rbp),%edx
    8c7c:	8b 45 f8             	mov    -0x8(%rbp),%eax
    8c7f:	89 c1                	mov    %eax,%ecx
    8c81:	d3 e2                	shl    %cl,%edx
    8c83:	89 d0                	mov    %edx,%eax
    8c85:	eb 04                	jmp    8c8b <safe_lshift_func_uint8_t_u_u+0x3f>
    8c87:	0f b6 45 fc          	movzbl -0x4(%rbp),%eax
    8c8b:	5d                   	pop    %rbp
    8c8c:	c3                   	retq   

0000000000008c8d <safe_rshift_func_uint8_t_u_s>:
    8c8d:	f3 0f 1e fa          	endbr64 
    8c91:	55                   	push   %rbp
    8c92:	48 89 e5             	mov    %rsp,%rbp
    8c95:	89 f8                	mov    %edi,%eax
    8c97:	89 75 f8             	mov    %esi,-0x8(%rbp)
    8c9a:	88 45 fc             	mov    %al,-0x4(%rbp)
    8c9d:	83 7d f8 00          	cmpl   $0x0,-0x8(%rbp)
    8ca1:	78 15                	js     8cb8 <safe_rshift_func_uint8_t_u_s+0x2b>
    8ca3:	83 7d f8 1f          	cmpl   $0x1f,-0x8(%rbp)
    8ca7:	7f 0f                	jg     8cb8 <safe_rshift_func_uint8_t_u_s+0x2b>
    8ca9:	0f b6 55 fc          	movzbl -0x4(%rbp),%edx
    8cad:	8b 45 f8             	mov    -0x8(%rbp),%eax
    8cb0:	89 c1                	mov    %eax,%ecx
    8cb2:	d3 fa                	sar    %cl,%edx
    8cb4:	89 d0                	mov    %edx,%eax
    8cb6:	eb 04                	jmp    8cbc <safe_rshift_func_uint8_t_u_s+0x2f>
    8cb8:	0f b6 45 fc          	movzbl -0x4(%rbp),%eax
    8cbc:	5d                   	pop    %rbp
    8cbd:	c3                   	retq   

0000000000008cbe <safe_rshift_func_uint8_t_u_u>:
    8cbe:	f3 0f 1e fa          	endbr64 
    8cc2:	55                   	push   %rbp
    8cc3:	48 89 e5             	mov    %rsp,%rbp
    8cc6:	89 f8                	mov    %edi,%eax
    8cc8:	89 75 f8             	mov    %esi,-0x8(%rbp)
    8ccb:	88 45 fc             	mov    %al,-0x4(%rbp)
    8cce:	83 7d f8 1f          	cmpl   $0x1f,-0x8(%rbp)
    8cd2:	77 0f                	ja     8ce3 <safe_rshift_func_uint8_t_u_u+0x25>
    8cd4:	0f b6 55 fc          	movzbl -0x4(%rbp),%edx
    8cd8:	8b 45 f8             	mov    -0x8(%rbp),%eax
    8cdb:	89 c1                	mov    %eax,%ecx
    8cdd:	d3 fa                	sar    %cl,%edx
    8cdf:	89 d0                	mov    %edx,%eax
    8ce1:	eb 04                	jmp    8ce7 <safe_rshift_func_uint8_t_u_u+0x29>
    8ce3:	0f b6 45 fc          	movzbl -0x4(%rbp),%eax
    8ce7:	5d                   	pop    %rbp
    8ce8:	c3                   	retq   

0000000000008ce9 <safe_unary_minus_func_uint16_t_u>:
    8ce9:	f3 0f 1e fa          	endbr64 
    8ced:	55                   	push   %rbp
    8cee:	48 89 e5             	mov    %rsp,%rbp
    8cf1:	89 f8                	mov    %edi,%eax
    8cf3:	66 89 45 fc          	mov    %ax,-0x4(%rbp)
    8cf7:	0f b7 45 fc          	movzwl -0x4(%rbp),%eax
    8cfb:	f7 d8                	neg    %eax
    8cfd:	5d                   	pop    %rbp
    8cfe:	c3                   	retq   

0000000000008cff <safe_add_func_uint16_t_u_u>:
    8cff:	f3 0f 1e fa          	endbr64 
    8d03:	55                   	push   %rbp
    8d04:	48 89 e5             	mov    %rsp,%rbp
    8d07:	89 fa                	mov    %edi,%edx
    8d09:	89 f0                	mov    %esi,%eax
    8d0b:	66 89 55 fc          	mov    %dx,-0x4(%rbp)
    8d0f:	66 89 45 f8          	mov    %ax,-0x8(%rbp)
    8d13:	0f b7 55 fc          	movzwl -0x4(%rbp),%edx
    8d17:	0f b7 45 f8          	movzwl -0x8(%rbp),%eax
    8d1b:	01 d0                	add    %edx,%eax
    8d1d:	5d                   	pop    %rbp
    8d1e:	c3                   	retq   

0000000000008d1f <safe_sub_func_uint16_t_u_u>:
    8d1f:	f3 0f 1e fa          	endbr64 
    8d23:	55                   	push   %rbp
    8d24:	48 89 e5             	mov    %rsp,%rbp
    8d27:	89 fa                	mov    %edi,%edx
    8d29:	89 f0                	mov    %esi,%eax
    8d2b:	66 89 55 fc          	mov    %dx,-0x4(%rbp)
    8d2f:	66 89 45 f8          	mov    %ax,-0x8(%rbp)
    8d33:	0f b7 45 fc          	movzwl -0x4(%rbp),%eax
    8d37:	66 2b 45 f8          	sub    -0x8(%rbp),%ax
    8d3b:	5d                   	pop    %rbp
    8d3c:	c3                   	retq   

0000000000008d3d <safe_mul_func_uint16_t_u_u>:
    8d3d:	f3 0f 1e fa          	endbr64 
    8d41:	55                   	push   %rbp
    8d42:	48 89 e5             	mov    %rsp,%rbp
    8d45:	89 fa                	mov    %edi,%edx
    8d47:	89 f0                	mov    %esi,%eax
    8d49:	66 89 55 fc          	mov    %dx,-0x4(%rbp)
    8d4d:	66 89 45 f8          	mov    %ax,-0x8(%rbp)
    8d51:	0f b7 45 fc          	movzwl -0x4(%rbp),%eax
    8d55:	66 0f af 45 f8       	imul   -0x8(%rbp),%ax
    8d5a:	5d                   	pop    %rbp
    8d5b:	c3                   	retq   

0000000000008d5c <safe_mod_func_uint16_t_u_u>:
    8d5c:	f3 0f 1e fa          	endbr64 
    8d60:	55                   	push   %rbp
    8d61:	48 89 e5             	mov    %rsp,%rbp
    8d64:	89 fa                	mov    %edi,%edx
    8d66:	89 f0                	mov    %esi,%eax
    8d68:	66 89 55 fc          	mov    %dx,-0x4(%rbp)
    8d6c:	66 89 45 f8          	mov    %ax,-0x8(%rbp)
    8d70:	66 83 7d f8 00       	cmpw   $0x0,-0x8(%rbp)
    8d75:	74 11                	je     8d88 <safe_mod_func_uint16_t_u_u+0x2c>
    8d77:	0f b7 45 fc          	movzwl -0x4(%rbp),%eax
    8d7b:	ba 00 00 00 00       	mov    $0x0,%edx
    8d80:	66 f7 75 f8          	divw   -0x8(%rbp)
    8d84:	89 d0                	mov    %edx,%eax
    8d86:	eb 04                	jmp    8d8c <safe_mod_func_uint16_t_u_u+0x30>
    8d88:	0f b7 45 fc          	movzwl -0x4(%rbp),%eax
    8d8c:	5d                   	pop    %rbp
    8d8d:	c3                   	retq   

0000000000008d8e <safe_div_func_uint16_t_u_u>:
    8d8e:	f3 0f 1e fa          	endbr64 
    8d92:	55                   	push   %rbp
    8d93:	48 89 e5             	mov    %rsp,%rbp
    8d96:	89 fa                	mov    %edi,%edx
    8d98:	89 f0                	mov    %esi,%eax
    8d9a:	66 89 55 fc          	mov    %dx,-0x4(%rbp)
    8d9e:	66 89 45 f8          	mov    %ax,-0x8(%rbp)
    8da2:	66 83 7d f8 00       	cmpw   $0x0,-0x8(%rbp)
    8da7:	74 0f                	je     8db8 <safe_div_func_uint16_t_u_u+0x2a>
    8da9:	0f b7 45 fc          	movzwl -0x4(%rbp),%eax
    8dad:	ba 00 00 00 00       	mov    $0x0,%edx
    8db2:	66 f7 75 f8          	divw   -0x8(%rbp)
    8db6:	eb 04                	jmp    8dbc <safe_div_func_uint16_t_u_u+0x2e>
    8db8:	0f b7 45 fc          	movzwl -0x4(%rbp),%eax
    8dbc:	5d                   	pop    %rbp
    8dbd:	c3                   	retq   

0000000000008dbe <safe_lshift_func_uint16_t_u_s>:
    8dbe:	f3 0f 1e fa          	endbr64 
    8dc2:	55                   	push   %rbp
    8dc3:	48 89 e5             	mov    %rsp,%rbp
    8dc6:	89 f8                	mov    %edi,%eax
    8dc8:	89 75 f8             	mov    %esi,-0x8(%rbp)
    8dcb:	66 89 45 fc          	mov    %ax,-0x4(%rbp)
    8dcf:	83 7d f8 00          	cmpl   $0x0,-0x8(%rbp)
    8dd3:	78 2b                	js     8e00 <safe_lshift_func_uint16_t_u_s+0x42>
    8dd5:	83 7d f8 1f          	cmpl   $0x1f,-0x8(%rbp)
    8dd9:	7f 25                	jg     8e00 <safe_lshift_func_uint16_t_u_s+0x42>
    8ddb:	0f b7 55 fc          	movzwl -0x4(%rbp),%edx
    8ddf:	8b 45 f8             	mov    -0x8(%rbp),%eax
    8de2:	be ff ff 00 00       	mov    $0xffff,%esi
    8de7:	89 c1                	mov    %eax,%ecx
    8de9:	d3 fe                	sar    %cl,%esi
    8deb:	89 f0                	mov    %esi,%eax
    8ded:	39 c2                	cmp    %eax,%edx
    8def:	7f 0f                	jg     8e00 <safe_lshift_func_uint16_t_u_s+0x42>
    8df1:	0f b7 55 fc          	movzwl -0x4(%rbp),%edx
    8df5:	8b 45 f8             	mov    -0x8(%rbp),%eax
    8df8:	89 c1                	mov    %eax,%ecx
    8dfa:	d3 e2                	shl    %cl,%edx
    8dfc:	89 d0                	mov    %edx,%eax
    8dfe:	eb 04                	jmp    8e04 <safe_lshift_func_uint16_t_u_s+0x46>
    8e00:	0f b7 45 fc          	movzwl -0x4(%rbp),%eax
    8e04:	5d                   	pop    %rbp
    8e05:	c3                   	retq   

0000000000008e06 <safe_lshift_func_uint16_t_u_u>:
    8e06:	f3 0f 1e fa          	endbr64 
    8e0a:	55                   	push   %rbp
    8e0b:	48 89 e5             	mov    %rsp,%rbp
    8e0e:	89 f8                	mov    %edi,%eax
    8e10:	89 75 f8             	mov    %esi,-0x8(%rbp)
    8e13:	66 89 45 fc          	mov    %ax,-0x4(%rbp)
    8e17:	83 7d f8 1f          	cmpl   $0x1f,-0x8(%rbp)
    8e1b:	77 25                	ja     8e42 <safe_lshift_func_uint16_t_u_u+0x3c>
    8e1d:	0f b7 55 fc          	movzwl -0x4(%rbp),%edx
    8e21:	8b 45 f8             	mov    -0x8(%rbp),%eax
    8e24:	be ff ff 00 00       	mov    $0xffff,%esi
    8e29:	89 c1                	mov    %eax,%ecx
    8e2b:	d3 fe                	sar    %cl,%esi
    8e2d:	89 f0                	mov    %esi,%eax
    8e2f:	39 c2                	cmp    %eax,%edx
    8e31:	7f 0f                	jg     8e42 <safe_lshift_func_uint16_t_u_u+0x3c>
    8e33:	0f b7 55 fc          	movzwl -0x4(%rbp),%edx
    8e37:	8b 45 f8             	mov    -0x8(%rbp),%eax
    8e3a:	89 c1                	mov    %eax,%ecx
    8e3c:	d3 e2                	shl    %cl,%edx
    8e3e:	89 d0                	mov    %edx,%eax
    8e40:	eb 04                	jmp    8e46 <safe_lshift_func_uint16_t_u_u+0x40>
    8e42:	0f b7 45 fc          	movzwl -0x4(%rbp),%eax
    8e46:	5d                   	pop    %rbp
    8e47:	c3                   	retq   

0000000000008e48 <safe_rshift_func_uint16_t_u_s>:
    8e48:	f3 0f 1e fa          	endbr64 
    8e4c:	55                   	push   %rbp
    8e4d:	48 89 e5             	mov    %rsp,%rbp
    8e50:	89 f8                	mov    %edi,%eax
    8e52:	89 75 f8             	mov    %esi,-0x8(%rbp)
    8e55:	66 89 45 fc          	mov    %ax,-0x4(%rbp)
    8e59:	83 7d f8 00          	cmpl   $0x0,-0x8(%rbp)
    8e5d:	78 15                	js     8e74 <safe_rshift_func_uint16_t_u_s+0x2c>
    8e5f:	83 7d f8 1f          	cmpl   $0x1f,-0x8(%rbp)
    8e63:	7f 0f                	jg     8e74 <safe_rshift_func_uint16_t_u_s+0x2c>
    8e65:	0f b7 55 fc          	movzwl -0x4(%rbp),%edx
    8e69:	8b 45 f8             	mov    -0x8(%rbp),%eax
    8e6c:	89 c1                	mov    %eax,%ecx
    8e6e:	d3 fa                	sar    %cl,%edx
    8e70:	89 d0                	mov    %edx,%eax
    8e72:	eb 04                	jmp    8e78 <safe_rshift_func_uint16_t_u_s+0x30>
    8e74:	0f b7 45 fc          	movzwl -0x4(%rbp),%eax
    8e78:	5d                   	pop    %rbp
    8e79:	c3                   	retq   

0000000000008e7a <safe_rshift_func_uint16_t_u_u>:
    8e7a:	f3 0f 1e fa          	endbr64 
    8e7e:	55                   	push   %rbp
    8e7f:	48 89 e5             	mov    %rsp,%rbp
    8e82:	89 f8                	mov    %edi,%eax
    8e84:	89 75 f8             	mov    %esi,-0x8(%rbp)
    8e87:	66 89 45 fc          	mov    %ax,-0x4(%rbp)
    8e8b:	83 7d f8 1f          	cmpl   $0x1f,-0x8(%rbp)
    8e8f:	77 0f                	ja     8ea0 <safe_rshift_func_uint16_t_u_u+0x26>
    8e91:	0f b7 55 fc          	movzwl -0x4(%rbp),%edx
    8e95:	8b 45 f8             	mov    -0x8(%rbp),%eax
    8e98:	89 c1                	mov    %eax,%ecx
    8e9a:	d3 fa                	sar    %cl,%edx
    8e9c:	89 d0                	mov    %edx,%eax
    8e9e:	eb 04                	jmp    8ea4 <safe_rshift_func_uint16_t_u_u+0x2a>
    8ea0:	0f b7 45 fc          	movzwl -0x4(%rbp),%eax
    8ea4:	5d                   	pop    %rbp
    8ea5:	c3                   	retq   

0000000000008ea6 <safe_unary_minus_func_uint32_t_u>:
    8ea6:	f3 0f 1e fa          	endbr64 
    8eaa:	55                   	push   %rbp
    8eab:	48 89 e5             	mov    %rsp,%rbp
    8eae:	89 7d fc             	mov    %edi,-0x4(%rbp)
    8eb1:	8b 45 fc             	mov    -0x4(%rbp),%eax
    8eb4:	f7 d8                	neg    %eax
    8eb6:	5d                   	pop    %rbp
    8eb7:	c3                   	retq   

0000000000008eb8 <safe_add_func_uint32_t_u_u>:
    8eb8:	f3 0f 1e fa          	endbr64 
    8ebc:	55                   	push   %rbp
    8ebd:	48 89 e5             	mov    %rsp,%rbp
    8ec0:	89 7d fc             	mov    %edi,-0x4(%rbp)
    8ec3:	89 75 f8             	mov    %esi,-0x8(%rbp)
    8ec6:	8b 55 fc             	mov    -0x4(%rbp),%edx
    8ec9:	8b 45 f8             	mov    -0x8(%rbp),%eax
    8ecc:	01 d0                	add    %edx,%eax
    8ece:	5d                   	pop    %rbp
    8ecf:	c3                   	retq   

0000000000008ed0 <safe_sub_func_uint32_t_u_u>:
    8ed0:	f3 0f 1e fa          	endbr64 
    8ed4:	55                   	push   %rbp
    8ed5:	48 89 e5             	mov    %rsp,%rbp
    8ed8:	89 7d fc             	mov    %edi,-0x4(%rbp)
    8edb:	89 75 f8             	mov    %esi,-0x8(%rbp)
    8ede:	8b 45 fc             	mov    -0x4(%rbp),%eax
    8ee1:	2b 45 f8             	sub    -0x8(%rbp),%eax
    8ee4:	5d                   	pop    %rbp
    8ee5:	c3                   	retq   

0000000000008ee6 <safe_mul_func_uint32_t_u_u>:
    8ee6:	f3 0f 1e fa          	endbr64 
    8eea:	55                   	push   %rbp
    8eeb:	48 89 e5             	mov    %rsp,%rbp
    8eee:	89 7d fc             	mov    %edi,-0x4(%rbp)
    8ef1:	89 75 f8             	mov    %esi,-0x8(%rbp)
    8ef4:	8b 45 fc             	mov    -0x4(%rbp),%eax
    8ef7:	0f af 45 f8          	imul   -0x8(%rbp),%eax
    8efb:	5d                   	pop    %rbp
    8efc:	c3                   	retq   

0000000000008efd <safe_mod_func_uint32_t_u_u>:
    8efd:	f3 0f 1e fa          	endbr64 
    8f01:	55                   	push   %rbp
    8f02:	48 89 e5             	mov    %rsp,%rbp
    8f05:	89 7d fc             	mov    %edi,-0x4(%rbp)
    8f08:	89 75 f8             	mov    %esi,-0x8(%rbp)
    8f0b:	83 7d f8 00          	cmpl   $0x0,-0x8(%rbp)
    8f0f:	74 0f                	je     8f20 <safe_mod_func_uint32_t_u_u+0x23>
    8f11:	8b 45 fc             	mov    -0x4(%rbp),%eax
    8f14:	ba 00 00 00 00       	mov    $0x0,%edx
    8f19:	f7 75 f8             	divl   -0x8(%rbp)
    8f1c:	89 d0                	mov    %edx,%eax
    8f1e:	eb 03                	jmp    8f23 <safe_mod_func_uint32_t_u_u+0x26>
    8f20:	8b 45 fc             	mov    -0x4(%rbp),%eax
    8f23:	5d                   	pop    %rbp
    8f24:	c3                   	retq   

0000000000008f25 <safe_div_func_uint32_t_u_u>:
    8f25:	f3 0f 1e fa          	endbr64 
    8f29:	55                   	push   %rbp
    8f2a:	48 89 e5             	mov    %rsp,%rbp
    8f2d:	89 7d fc             	mov    %edi,-0x4(%rbp)
    8f30:	89 75 f8             	mov    %esi,-0x8(%rbp)
    8f33:	83 7d f8 00          	cmpl   $0x0,-0x8(%rbp)
    8f37:	74 0d                	je     8f46 <safe_div_func_uint32_t_u_u+0x21>
    8f39:	8b 45 fc             	mov    -0x4(%rbp),%eax
    8f3c:	ba 00 00 00 00       	mov    $0x0,%edx
    8f41:	f7 75 f8             	divl   -0x8(%rbp)
    8f44:	eb 03                	jmp    8f49 <safe_div_func_uint32_t_u_u+0x24>
    8f46:	8b 45 fc             	mov    -0x4(%rbp),%eax
    8f49:	5d                   	pop    %rbp
    8f4a:	c3                   	retq   

0000000000008f4b <safe_lshift_func_uint32_t_u_s>:
    8f4b:	f3 0f 1e fa          	endbr64 
    8f4f:	55                   	push   %rbp
    8f50:	48 89 e5             	mov    %rsp,%rbp
    8f53:	89 7d fc             	mov    %edi,-0x4(%rbp)
    8f56:	89 75 f8             	mov    %esi,-0x8(%rbp)
    8f59:	83 7d f8 00          	cmpl   $0x0,-0x8(%rbp)
    8f5d:	78 27                	js     8f86 <safe_lshift_func_uint32_t_u_s+0x3b>
    8f5f:	83 7d f8 1f          	cmpl   $0x1f,-0x8(%rbp)
    8f63:	7f 21                	jg     8f86 <safe_lshift_func_uint32_t_u_s+0x3b>
    8f65:	8b 45 f8             	mov    -0x8(%rbp),%eax
    8f68:	ba ff ff ff ff       	mov    $0xffffffff,%edx
    8f6d:	89 c1                	mov    %eax,%ecx
    8f6f:	d3 ea                	shr    %cl,%edx
    8f71:	89 d0                	mov    %edx,%eax
    8f73:	39 45 fc             	cmp    %eax,-0x4(%rbp)
    8f76:	77 0e                	ja     8f86 <safe_lshift_func_uint32_t_u_s+0x3b>
    8f78:	8b 45 f8             	mov    -0x8(%rbp),%eax
    8f7b:	8b 55 fc             	mov    -0x4(%rbp),%edx
    8f7e:	89 c1                	mov    %eax,%ecx
    8f80:	d3 e2                	shl    %cl,%edx
    8f82:	89 d0                	mov    %edx,%eax
    8f84:	eb 03                	jmp    8f89 <safe_lshift_func_uint32_t_u_s+0x3e>
    8f86:	8b 45 fc             	mov    -0x4(%rbp),%eax
    8f89:	5d                   	pop    %rbp
    8f8a:	c3                   	retq   

0000000000008f8b <safe_lshift_func_uint32_t_u_u>:
    8f8b:	f3 0f 1e fa          	endbr64 
    8f8f:	55                   	push   %rbp
    8f90:	48 89 e5             	mov    %rsp,%rbp
    8f93:	89 7d fc             	mov    %edi,-0x4(%rbp)
    8f96:	89 75 f8             	mov    %esi,-0x8(%rbp)
    8f99:	83 7d f8 1f          	cmpl   $0x1f,-0x8(%rbp)
    8f9d:	77 21                	ja     8fc0 <safe_lshift_func_uint32_t_u_u+0x35>
    8f9f:	8b 45 f8             	mov    -0x8(%rbp),%eax
    8fa2:	ba ff ff ff ff       	mov    $0xffffffff,%edx
    8fa7:	89 c1                	mov    %eax,%ecx
    8fa9:	d3 ea                	shr    %cl,%edx
    8fab:	89 d0                	mov    %edx,%eax
    8fad:	39 45 fc             	cmp    %eax,-0x4(%rbp)
    8fb0:	77 0e                	ja     8fc0 <safe_lshift_func_uint32_t_u_u+0x35>
    8fb2:	8b 45 f8             	mov    -0x8(%rbp),%eax
    8fb5:	8b 55 fc             	mov    -0x4(%rbp),%edx
    8fb8:	89 c1                	mov    %eax,%ecx
    8fba:	d3 e2                	shl    %cl,%edx
    8fbc:	89 d0                	mov    %edx,%eax
    8fbe:	eb 03                	jmp    8fc3 <safe_lshift_func_uint32_t_u_u+0x38>
    8fc0:	8b 45 fc             	mov    -0x4(%rbp),%eax
    8fc3:	5d                   	pop    %rbp
    8fc4:	c3                   	retq   

0000000000008fc5 <safe_rshift_func_uint32_t_u_s>:
    8fc5:	f3 0f 1e fa          	endbr64 
    8fc9:	55                   	push   %rbp
    8fca:	48 89 e5             	mov    %rsp,%rbp
    8fcd:	89 7d fc             	mov    %edi,-0x4(%rbp)
    8fd0:	89 75 f8             	mov    %esi,-0x8(%rbp)
    8fd3:	83 7d f8 00          	cmpl   $0x0,-0x8(%rbp)
    8fd7:	78 14                	js     8fed <safe_rshift_func_uint32_t_u_s+0x28>
    8fd9:	83 7d f8 1f          	cmpl   $0x1f,-0x8(%rbp)
    8fdd:	7f 0e                	jg     8fed <safe_rshift_func_uint32_t_u_s+0x28>
    8fdf:	8b 45 f8             	mov    -0x8(%rbp),%eax
    8fe2:	8b 55 fc             	mov    -0x4(%rbp),%edx
    8fe5:	89 c1                	mov    %eax,%ecx
    8fe7:	d3 ea                	shr    %cl,%edx
    8fe9:	89 d0                	mov    %edx,%eax
    8feb:	eb 03                	jmp    8ff0 <safe_rshift_func_uint32_t_u_s+0x2b>
    8fed:	8b 45 fc             	mov    -0x4(%rbp),%eax
    8ff0:	5d                   	pop    %rbp
    8ff1:	c3                   	retq   

0000000000008ff2 <safe_rshift_func_uint32_t_u_u>:
    8ff2:	f3 0f 1e fa          	endbr64 
    8ff6:	55                   	push   %rbp
    8ff7:	48 89 e5             	mov    %rsp,%rbp
    8ffa:	89 7d fc             	mov    %edi,-0x4(%rbp)
    8ffd:	89 75 f8             	mov    %esi,-0x8(%rbp)
    9000:	83 7d f8 1f          	cmpl   $0x1f,-0x8(%rbp)
    9004:	77 0e                	ja     9014 <safe_rshift_func_uint32_t_u_u+0x22>
    9006:	8b 45 f8             	mov    -0x8(%rbp),%eax
    9009:	8b 55 fc             	mov    -0x4(%rbp),%edx
    900c:	89 c1                	mov    %eax,%ecx
    900e:	d3 ea                	shr    %cl,%edx
    9010:	89 d0                	mov    %edx,%eax
    9012:	eb 03                	jmp    9017 <safe_rshift_func_uint32_t_u_u+0x25>
    9014:	8b 45 fc             	mov    -0x4(%rbp),%eax
    9017:	5d                   	pop    %rbp
    9018:	c3                   	retq   

0000000000009019 <safe_unary_minus_func_uint64_t_u>:
    9019:	f3 0f 1e fa          	endbr64 
    901d:	55                   	push   %rbp
    901e:	48 89 e5             	mov    %rsp,%rbp
    9021:	48 89 7d f8          	mov    %rdi,-0x8(%rbp)
    9025:	48 8b 45 f8          	mov    -0x8(%rbp),%rax
    9029:	48 f7 d8             	neg    %rax
    902c:	5d                   	pop    %rbp
    902d:	c3                   	retq   

000000000000902e <safe_add_func_uint64_t_u_u>:
    902e:	f3 0f 1e fa          	endbr64 
    9032:	55                   	push   %rbp
    9033:	48 89 e5             	mov    %rsp,%rbp
    9036:	48 89 7d f8          	mov    %rdi,-0x8(%rbp)
    903a:	48 89 75 f0          	mov    %rsi,-0x10(%rbp)
    903e:	48 8b 55 f8          	mov    -0x8(%rbp),%rdx
    9042:	48 8b 45 f0          	mov    -0x10(%rbp),%rax
    9046:	48 01 d0             	add    %rdx,%rax
    9049:	5d                   	pop    %rbp
    904a:	c3                   	retq   

000000000000904b <safe_sub_func_uint64_t_u_u>:
    904b:	f3 0f 1e fa          	endbr64 
    904f:	55                   	push   %rbp
    9050:	48 89 e5             	mov    %rsp,%rbp
    9053:	48 89 7d f8          	mov    %rdi,-0x8(%rbp)
    9057:	48 89 75 f0          	mov    %rsi,-0x10(%rbp)
    905b:	48 8b 45 f8          	mov    -0x8(%rbp),%rax
    905f:	48 2b 45 f0          	sub    -0x10(%rbp),%rax
    9063:	5d                   	pop    %rbp
    9064:	c3                   	retq   

0000000000009065 <safe_mul_func_uint64_t_u_u>:
    9065:	f3 0f 1e fa          	endbr64 
    9069:	55                   	push   %rbp
    906a:	48 89 e5             	mov    %rsp,%rbp
    906d:	48 89 7d f8          	mov    %rdi,-0x8(%rbp)
    9071:	48 89 75 f0          	mov    %rsi,-0x10(%rbp)
    9075:	48 8b 45 f8          	mov    -0x8(%rbp),%rax
    9079:	48 0f af 45 f0       	imul   -0x10(%rbp),%rax
    907e:	5d                   	pop    %rbp
    907f:	c3                   	retq   

0000000000009080 <safe_mod_func_uint64_t_u_u>:
    9080:	f3 0f 1e fa          	endbr64 
    9084:	55                   	push   %rbp
    9085:	48 89 e5             	mov    %rsp,%rbp
    9088:	48 89 7d f8          	mov    %rdi,-0x8(%rbp)
    908c:	48 89 75 f0          	mov    %rsi,-0x10(%rbp)
    9090:	48 83 7d f0 00       	cmpq   $0x0,-0x10(%rbp)
    9095:	74 12                	je     90a9 <safe_mod_func_uint64_t_u_u+0x29>
    9097:	48 8b 45 f8          	mov    -0x8(%rbp),%rax
    909b:	ba 00 00 00 00       	mov    $0x0,%edx
    90a0:	48 f7 75 f0          	divq   -0x10(%rbp)
    90a4:	48 89 d0             	mov    %rdx,%rax
    90a7:	eb 04                	jmp    90ad <safe_mod_func_uint64_t_u_u+0x2d>
    90a9:	48 8b 45 f8          	mov    -0x8(%rbp),%rax
    90ad:	5d                   	pop    %rbp
    90ae:	c3                   	retq   

00000000000090af <safe_div_func_uint64_t_u_u>:
    90af:	f3 0f 1e fa          	endbr64 
    90b3:	55                   	push   %rbp
    90b4:	48 89 e5             	mov    %rsp,%rbp
    90b7:	48 89 7d f8          	mov    %rdi,-0x8(%rbp)
    90bb:	48 89 75 f0          	mov    %rsi,-0x10(%rbp)
    90bf:	48 83 7d f0 00       	cmpq   $0x0,-0x10(%rbp)
    90c4:	74 0f                	je     90d5 <safe_div_func_uint64_t_u_u+0x26>
    90c6:	48 8b 45 f8          	mov    -0x8(%rbp),%rax
    90ca:	ba 00 00 00 00       	mov    $0x0,%edx
    90cf:	48 f7 75 f0          	divq   -0x10(%rbp)
    90d3:	eb 04                	jmp    90d9 <safe_div_func_uint64_t_u_u+0x2a>
    90d5:	48 8b 45 f8          	mov    -0x8(%rbp),%rax
    90d9:	5d                   	pop    %rbp
    90da:	c3                   	retq   

00000000000090db <safe_lshift_func_uint64_t_u_s>:
    90db:	f3 0f 1e fa          	endbr64 
    90df:	55                   	push   %rbp
    90e0:	48 89 e5             	mov    %rsp,%rbp
    90e3:	48 89 7d f8          	mov    %rdi,-0x8(%rbp)
    90e7:	89 75 f4             	mov    %esi,-0xc(%rbp)
    90ea:	83 7d f4 00          	cmpl   $0x0,-0xc(%rbp)
    90ee:	78 2f                	js     911f <safe_lshift_func_uint64_t_u_s+0x44>
    90f0:	83 7d f4 1f          	cmpl   $0x1f,-0xc(%rbp)
    90f4:	7f 29                	jg     911f <safe_lshift_func_uint64_t_u_s+0x44>
    90f6:	8b 45 f4             	mov    -0xc(%rbp),%eax
    90f9:	48 c7 c2 ff ff ff ff 	mov    $0xffffffffffffffff,%rdx
    9100:	89 c1                	mov    %eax,%ecx
    9102:	48 d3 ea             	shr    %cl,%rdx
    9105:	48 89 d0             	mov    %rdx,%rax
    9108:	48 39 45 f8          	cmp    %rax,-0x8(%rbp)
    910c:	77 11                	ja     911f <safe_lshift_func_uint64_t_u_s+0x44>
    910e:	8b 45 f4             	mov    -0xc(%rbp),%eax
    9111:	48 8b 55 f8          	mov    -0x8(%rbp),%rdx
    9115:	89 c1                	mov    %eax,%ecx
    9117:	48 d3 e2             	shl    %cl,%rdx
    911a:	48 89 d0             	mov    %rdx,%rax
    911d:	eb 04                	jmp    9123 <safe_lshift_func_uint64_t_u_s+0x48>
    911f:	48 8b 45 f8          	mov    -0x8(%rbp),%rax
    9123:	5d                   	pop    %rbp
    9124:	c3                   	retq   

0000000000009125 <safe_lshift_func_uint64_t_u_u>:
    9125:	f3 0f 1e fa          	endbr64 
    9129:	55                   	push   %rbp
    912a:	48 89 e5             	mov    %rsp,%rbp
    912d:	48 89 7d f8          	mov    %rdi,-0x8(%rbp)
    9131:	89 75 f4             	mov    %esi,-0xc(%rbp)
    9134:	83 7d f4 1f          	cmpl   $0x1f,-0xc(%rbp)
    9138:	77 29                	ja     9163 <safe_lshift_func_uint64_t_u_u+0x3e>
    913a:	8b 45 f4             	mov    -0xc(%rbp),%eax
    913d:	48 c7 c2 ff ff ff ff 	mov    $0xffffffffffffffff,%rdx
    9144:	89 c1                	mov    %eax,%ecx
    9146:	48 d3 ea             	shr    %cl,%rdx
    9149:	48 89 d0             	mov    %rdx,%rax
    914c:	48 39 45 f8          	cmp    %rax,-0x8(%rbp)
    9150:	77 11                	ja     9163 <safe_lshift_func_uint64_t_u_u+0x3e>
    9152:	8b 45 f4             	mov    -0xc(%rbp),%eax
    9155:	48 8b 55 f8          	mov    -0x8(%rbp),%rdx
    9159:	89 c1                	mov    %eax,%ecx
    915b:	48 d3 e2             	shl    %cl,%rdx
    915e:	48 89 d0             	mov    %rdx,%rax
    9161:	eb 04                	jmp    9167 <safe_lshift_func_uint64_t_u_u+0x42>
    9163:	48 8b 45 f8          	mov    -0x8(%rbp),%rax
    9167:	5d                   	pop    %rbp
    9168:	c3                   	retq   

0000000000009169 <safe_rshift_func_uint64_t_u_s>:
    9169:	f3 0f 1e fa          	endbr64 
    916d:	55                   	push   %rbp
    916e:	48 89 e5             	mov    %rsp,%rbp
    9171:	48 89 7d f8          	mov    %rdi,-0x8(%rbp)
    9175:	89 75 f4             	mov    %esi,-0xc(%rbp)
    9178:	83 7d f4 00          	cmpl   $0x0,-0xc(%rbp)
    917c:	78 17                	js     9195 <safe_rshift_func_uint64_t_u_s+0x2c>
    917e:	83 7d f4 1f          	cmpl   $0x1f,-0xc(%rbp)
    9182:	7f 11                	jg     9195 <safe_rshift_func_uint64_t_u_s+0x2c>
    9184:	8b 45 f4             	mov    -0xc(%rbp),%eax
    9187:	48 8b 55 f8          	mov    -0x8(%rbp),%rdx
    918b:	89 c1                	mov    %eax,%ecx
    918d:	48 d3 ea             	shr    %cl,%rdx
    9190:	48 89 d0             	mov    %rdx,%rax
    9193:	eb 04                	jmp    9199 <safe_rshift_func_uint64_t_u_s+0x30>
    9195:	48 8b 45 f8          	mov    -0x8(%rbp),%rax
    9199:	5d                   	pop    %rbp
    919a:	c3                   	retq   

000000000000919b <safe_rshift_func_uint64_t_u_u>:
    919b:	f3 0f 1e fa          	endbr64 
    919f:	55                   	push   %rbp
    91a0:	48 89 e5             	mov    %rsp,%rbp
    91a3:	48 89 7d f8          	mov    %rdi,-0x8(%rbp)
    91a7:	89 75 f4             	mov    %esi,-0xc(%rbp)
    91aa:	83 7d f4 1f          	cmpl   $0x1f,-0xc(%rbp)
    91ae:	77 11                	ja     91c1 <safe_rshift_func_uint64_t_u_u+0x26>
    91b0:	8b 45 f4             	mov    -0xc(%rbp),%eax
    91b3:	48 8b 55 f8          	mov    -0x8(%rbp),%rdx
    91b7:	89 c1                	mov    %eax,%ecx
    91b9:	48 d3 ea             	shr    %cl,%rdx
    91bc:	48 89 d0             	mov    %rdx,%rax
    91bf:	eb 04                	jmp    91c5 <safe_rshift_func_uint64_t_u_u+0x2a>
    91c1:	48 8b 45 f8          	mov    -0x8(%rbp),%rax
    91c5:	5d                   	pop    %rbp
    91c6:	c3                   	retq   

00000000000091c7 <safe_add_func_float_f_f>:
    91c7:	f3 0f 1e fa          	endbr64 
    91cb:	55                   	push   %rbp
    91cc:	48 89 e5             	mov    %rsp,%rbp
    91cf:	f3 0f 11 45 fc       	movss  %xmm0,-0x4(%rbp)
    91d4:	f3 0f 11 4d f8       	movss  %xmm1,-0x8(%rbp)
    91d9:	f3 0f 10 4d fc       	movss  -0x4(%rbp),%xmm1
    91de:	f3 0f 10 05 2a d0 00 	movss  0xd02a(%rip),%xmm0        # 16210 <l_2917.4521+0x8>
    91e5:	00 
    91e6:	f3 0f 59 c8          	mulss  %xmm0,%xmm1
    91ea:	f3 0f 10 55 f8       	movss  -0x8(%rbp),%xmm2
    91ef:	f3 0f 10 05 19 d0 00 	movss  0xd019(%rip),%xmm0        # 16210 <l_2917.4521+0x8>
    91f6:	00 
    91f7:	f3 0f 59 c2          	mulss  %xmm2,%xmm0
    91fb:	f3 0f 58 c1          	addss  %xmm1,%xmm0
    91ff:	f3 0f 10 0d 19 d0 00 	movss  0xd019(%rip),%xmm1        # 16220 <l_2917.4521+0x18>
    9206:	00 
    9207:	0f 54 c1             	andps  %xmm1,%xmm0
    920a:	0f 2f 05 1f d0 00 00 	comiss 0xd01f(%rip),%xmm0        # 16230 <l_2917.4521+0x28>
    9211:	76 07                	jbe    921a <safe_add_func_float_f_f+0x53>
    9213:	f3 0f 10 45 fc       	movss  -0x4(%rbp),%xmm0
    9218:	eb 0a                	jmp    9224 <safe_add_func_float_f_f+0x5d>
    921a:	f3 0f 10 45 fc       	movss  -0x4(%rbp),%xmm0
    921f:	f3 0f 58 45 f8       	addss  -0x8(%rbp),%xmm0
    9224:	5d                   	pop    %rbp
    9225:	c3                   	retq   

0000000000009226 <safe_sub_func_float_f_f>:
    9226:	f3 0f 1e fa          	endbr64 
    922a:	55                   	push   %rbp
    922b:	48 89 e5             	mov    %rsp,%rbp
    922e:	f3 0f 11 45 fc       	movss  %xmm0,-0x4(%rbp)
    9233:	f3 0f 11 4d f8       	movss  %xmm1,-0x8(%rbp)
    9238:	f3 0f 10 4d fc       	movss  -0x4(%rbp),%xmm1
    923d:	f3 0f 10 05 cb cf 00 	movss  0xcfcb(%rip),%xmm0        # 16210 <l_2917.4521+0x8>
    9244:	00 
    9245:	f3 0f 59 c1          	mulss  %xmm1,%xmm0
    9249:	f3 0f 10 55 f8       	movss  -0x8(%rbp),%xmm2
    924e:	f3 0f 10 0d ba cf 00 	movss  0xcfba(%rip),%xmm1        # 16210 <l_2917.4521+0x8>
    9255:	00 
    9256:	f3 0f 59 ca          	mulss  %xmm2,%xmm1
    925a:	f3 0f 5c c1          	subss  %xmm1,%xmm0
    925e:	f3 0f 10 0d ba cf 00 	movss  0xcfba(%rip),%xmm1        # 16220 <l_2917.4521+0x18>
    9265:	00 
    9266:	0f 54 c1             	andps  %xmm1,%xmm0
    9269:	0f 2f 05 c0 cf 00 00 	comiss 0xcfc0(%rip),%xmm0        # 16230 <l_2917.4521+0x28>
    9270:	76 07                	jbe    9279 <safe_sub_func_float_f_f+0x53>
    9272:	f3 0f 10 45 fc       	movss  -0x4(%rbp),%xmm0
    9277:	eb 0a                	jmp    9283 <safe_sub_func_float_f_f+0x5d>
    9279:	f3 0f 10 45 fc       	movss  -0x4(%rbp),%xmm0
    927e:	f3 0f 5c 45 f8       	subss  -0x8(%rbp),%xmm0
    9283:	5d                   	pop    %rbp
    9284:	c3                   	retq   

0000000000009285 <safe_mul_func_float_f_f>:
    9285:	f3 0f 1e fa          	endbr64 
    9289:	55                   	push   %rbp
    928a:	48 89 e5             	mov    %rsp,%rbp
    928d:	f3 0f 11 45 fc       	movss  %xmm0,-0x4(%rbp)
    9292:	f3 0f 11 4d f8       	movss  %xmm1,-0x8(%rbp)
    9297:	f3 0f 10 4d fc       	movss  -0x4(%rbp),%xmm1
    929c:	f3 0f 10 05 90 cf 00 	movss  0xcf90(%rip),%xmm0        # 16234 <l_2917.4521+0x2c>
    92a3:	00 
    92a4:	f3 0f 59 c8          	mulss  %xmm0,%xmm1
    92a8:	f3 0f 10 55 f8       	movss  -0x8(%rbp),%xmm2
    92ad:	f3 0f 10 05 83 cf 00 	movss  0xcf83(%rip),%xmm0        # 16238 <l_2917.4521+0x30>
    92b4:	00 
    92b5:	f3 0f 59 c2          	mulss  %xmm2,%xmm0
    92b9:	f3 0f 59 c1          	mulss  %xmm1,%xmm0
    92bd:	f3 0f 10 0d 5b cf 00 	movss  0xcf5b(%rip),%xmm1        # 16220 <l_2917.4521+0x18>
    92c4:	00 
    92c5:	0f 54 c1             	andps  %xmm1,%xmm0
    92c8:	0f 2f 05 6d cf 00 00 	comiss 0xcf6d(%rip),%xmm0        # 1623c <l_2917.4521+0x34>
    92cf:	76 07                	jbe    92d8 <safe_mul_func_float_f_f+0x53>
    92d1:	f3 0f 10 45 fc       	movss  -0x4(%rbp),%xmm0
    92d6:	eb 0a                	jmp    92e2 <safe_mul_func_float_f_f+0x5d>
    92d8:	f3 0f 10 45 fc       	movss  -0x4(%rbp),%xmm0
    92dd:	f3 0f 59 45 f8       	mulss  -0x8(%rbp),%xmm0
    92e2:	5d                   	pop    %rbp
    92e3:	c3                   	retq   

00000000000092e4 <safe_div_func_float_f_f>:
    92e4:	f3 0f 1e fa          	endbr64 
    92e8:	55                   	push   %rbp
    92e9:	48 89 e5             	mov    %rsp,%rbp
    92ec:	f3 0f 11 45 fc       	movss  %xmm0,-0x4(%rbp)
    92f1:	f3 0f 11 4d f8       	movss  %xmm1,-0x8(%rbp)
    92f6:	f3 0f 10 45 f8       	movss  -0x8(%rbp),%xmm0
    92fb:	f3 0f 10 0d 1d cf 00 	movss  0xcf1d(%rip),%xmm1        # 16220 <l_2917.4521+0x18>
    9302:	00 
    9303:	0f 54 c8             	andps  %xmm0,%xmm1
    9306:	f3 0f 10 05 32 cf 00 	movss  0xcf32(%rip),%xmm0        # 16240 <l_2917.4521+0x38>
    930d:	00 
    930e:	0f 2f c1             	comiss %xmm1,%xmm0
    9311:	0f 97 c0             	seta   %al
    9314:	83 f0 01             	xor    $0x1,%eax
    9317:	84 c0                	test   %al,%al
    9319:	75 56                	jne    9371 <safe_div_func_float_f_f+0x8d>
    931b:	66 0f ef c0          	pxor   %xmm0,%xmm0
    931f:	0f 2e 45 f8          	ucomiss -0x8(%rbp),%xmm0
    9323:	7a 0a                	jp     932f <safe_div_func_float_f_f+0x4b>
    9325:	66 0f ef c0          	pxor   %xmm0,%xmm0
    9329:	0f 2e 45 f8          	ucomiss -0x8(%rbp),%xmm0
    932d:	74 4e                	je     937d <safe_div_func_float_f_f+0x99>
    932f:	f3 0f 10 4d fc       	movss  -0x4(%rbp),%xmm1
    9334:	f3 0f 10 05 08 cf 00 	movss  0xcf08(%rip),%xmm0        # 16244 <l_2917.4521+0x3c>
    933b:	00 
    933c:	f3 0f 59 c1          	mulss  %xmm1,%xmm0
    9340:	f3 0f 10 55 f8       	movss  -0x8(%rbp),%xmm2
    9345:	f3 0f 10 0d fb ce 00 	movss  0xcefb(%rip),%xmm1        # 16248 <l_2917.4521+0x40>
    934c:	00 
    934d:	f3 0f 59 ca          	mulss  %xmm2,%xmm1
    9351:	f3 0f 5e c1          	divss  %xmm1,%xmm0
    9355:	f3 0f 10 0d c3 ce 00 	movss  0xcec3(%rip),%xmm1        # 16220 <l_2917.4521+0x18>
    935c:	00 
    935d:	0f 54 c1             	andps  %xmm1,%xmm0
    9360:	0f 2f 05 e5 ce 00 00 	comiss 0xcee5(%rip),%xmm0        # 1624c <l_2917.4521+0x44>
    9367:	0f 97 c0             	seta   %al
    936a:	83 f0 01             	xor    $0x1,%eax
    936d:	84 c0                	test   %al,%al
    936f:	74 0c                	je     937d <safe_div_func_float_f_f+0x99>
    9371:	f3 0f 10 45 fc       	movss  -0x4(%rbp),%xmm0
    9376:	f3 0f 5e 45 f8       	divss  -0x8(%rbp),%xmm0
    937b:	eb 05                	jmp    9382 <safe_div_func_float_f_f+0x9e>
    937d:	f3 0f 10 45 fc       	movss  -0x4(%rbp),%xmm0
    9382:	5d                   	pop    %rbp
    9383:	c3                   	retq   

0000000000009384 <safe_add_func_double_f_f>:
    9384:	f3 0f 1e fa          	endbr64 
    9388:	55                   	push   %rbp
    9389:	48 89 e5             	mov    %rsp,%rbp
    938c:	f2 0f 11 45 f8       	movsd  %xmm0,-0x8(%rbp)
    9391:	f2 0f 11 4d f0       	movsd  %xmm1,-0x10(%rbp)
    9396:	f2 0f 10 4d f8       	movsd  -0x8(%rbp),%xmm1
    939b:	f2 0f 10 05 ad ce 00 	movsd  0xcead(%rip),%xmm0        # 16250 <l_2917.4521+0x48>
    93a2:	00 
    93a3:	f2 0f 59 c8          	mulsd  %xmm0,%xmm1
    93a7:	f2 0f 10 55 f0       	movsd  -0x10(%rbp),%xmm2
    93ac:	f2 0f 10 05 9c ce 00 	movsd  0xce9c(%rip),%xmm0        # 16250 <l_2917.4521+0x48>
    93b3:	00 
    93b4:	f2 0f 59 c2          	mulsd  %xmm2,%xmm0
    93b8:	f2 0f 58 c1          	addsd  %xmm1,%xmm0
    93bc:	f3 0f 7e 0d 9c ce 00 	movq   0xce9c(%rip),%xmm1        # 16260 <l_2917.4521+0x58>
    93c3:	00 
    93c4:	66 0f 54 c1          	andpd  %xmm1,%xmm0
    93c8:	66 0f 2f 05 a0 ce 00 	comisd 0xcea0(%rip),%xmm0        # 16270 <l_2917.4521+0x68>
    93cf:	00 
    93d0:	76 07                	jbe    93d9 <safe_add_func_double_f_f+0x55>
    93d2:	f2 0f 10 45 f8       	movsd  -0x8(%rbp),%xmm0
    93d7:	eb 0a                	jmp    93e3 <safe_add_func_double_f_f+0x5f>
    93d9:	f2 0f 10 45 f8       	movsd  -0x8(%rbp),%xmm0
    93de:	f2 0f 58 45 f0       	addsd  -0x10(%rbp),%xmm0
    93e3:	5d                   	pop    %rbp
    93e4:	c3                   	retq   

00000000000093e5 <safe_sub_func_double_f_f>:
    93e5:	f3 0f 1e fa          	endbr64 
    93e9:	55                   	push   %rbp
    93ea:	48 89 e5             	mov    %rsp,%rbp
    93ed:	f2 0f 11 45 f8       	movsd  %xmm0,-0x8(%rbp)
    93f2:	f2 0f 11 4d f0       	movsd  %xmm1,-0x10(%rbp)
    93f7:	f2 0f 10 4d f8       	movsd  -0x8(%rbp),%xmm1
    93fc:	f2 0f 10 05 4c ce 00 	movsd  0xce4c(%rip),%xmm0        # 16250 <l_2917.4521+0x48>
    9403:	00 
    9404:	f2 0f 59 c1          	mulsd  %xmm1,%xmm0
    9408:	f2 0f 10 55 f0       	movsd  -0x10(%rbp),%xmm2
    940d:	f2 0f 10 0d 3b ce 00 	movsd  0xce3b(%rip),%xmm1        # 16250 <l_2917.4521+0x48>
    9414:	00 
    9415:	f2 0f 59 ca          	mulsd  %xmm2,%xmm1
    9419:	f2 0f 5c c1          	subsd  %xmm1,%xmm0
    941d:	f3 0f 7e 0d 3b ce 00 	movq   0xce3b(%rip),%xmm1        # 16260 <l_2917.4521+0x58>
    9424:	00 
    9425:	66 0f 54 c1          	andpd  %xmm1,%xmm0
    9429:	66 0f 2f 05 3f ce 00 	comisd 0xce3f(%rip),%xmm0        # 16270 <l_2917.4521+0x68>
    9430:	00 
    9431:	76 07                	jbe    943a <safe_sub_func_double_f_f+0x55>
    9433:	f2 0f 10 45 f8       	movsd  -0x8(%rbp),%xmm0
    9438:	eb 0a                	jmp    9444 <safe_sub_func_double_f_f+0x5f>
    943a:	f2 0f 10 45 f8       	movsd  -0x8(%rbp),%xmm0
    943f:	f2 0f 5c 45 f0       	subsd  -0x10(%rbp),%xmm0
    9444:	5d                   	pop    %rbp
    9445:	c3                   	retq   

0000000000009446 <safe_mul_func_double_f_f>:
    9446:	f3 0f 1e fa          	endbr64 
    944a:	55                   	push   %rbp
    944b:	48 89 e5             	mov    %rsp,%rbp
    944e:	f2 0f 11 45 f8       	movsd  %xmm0,-0x8(%rbp)
    9453:	f2 0f 11 4d f0       	movsd  %xmm1,-0x10(%rbp)
    9458:	f2 0f 10 4d f8       	movsd  -0x8(%rbp),%xmm1
    945d:	f2 0f 10 05 13 ce 00 	movsd  0xce13(%rip),%xmm0        # 16278 <l_2917.4521+0x70>
    9464:	00 
    9465:	f2 0f 59 c8          	mulsd  %xmm0,%xmm1
    9469:	f2 0f 10 55 f0       	movsd  -0x10(%rbp),%xmm2
    946e:	f2 0f 10 05 0a ce 00 	movsd  0xce0a(%rip),%xmm0        # 16280 <l_2917.4521+0x78>
    9475:	00 
    9476:	f2 0f 59 c2          	mulsd  %xmm2,%xmm0
    947a:	f2 0f 59 c1          	mulsd  %xmm1,%xmm0
    947e:	f3 0f 7e 0d da cd 00 	movq   0xcdda(%rip),%xmm1        # 16260 <l_2917.4521+0x58>
    9485:	00 
    9486:	66 0f 54 c1          	andpd  %xmm1,%xmm0
    948a:	66 0f 2f 05 f6 cd 00 	comisd 0xcdf6(%rip),%xmm0        # 16288 <l_2917.4521+0x80>
    9491:	00 
    9492:	76 07                	jbe    949b <safe_mul_func_double_f_f+0x55>
    9494:	f2 0f 10 45 f8       	movsd  -0x8(%rbp),%xmm0
    9499:	eb 0a                	jmp    94a5 <safe_mul_func_double_f_f+0x5f>
    949b:	f2 0f 10 45 f8       	movsd  -0x8(%rbp),%xmm0
    94a0:	f2 0f 59 45 f0       	mulsd  -0x10(%rbp),%xmm0
    94a5:	5d                   	pop    %rbp
    94a6:	c3                   	retq   

00000000000094a7 <safe_div_func_double_f_f>:
    94a7:	f3 0f 1e fa          	endbr64 
    94ab:	55                   	push   %rbp
    94ac:	48 89 e5             	mov    %rsp,%rbp
    94af:	f2 0f 11 45 f8       	movsd  %xmm0,-0x8(%rbp)
    94b4:	f2 0f 11 4d f0       	movsd  %xmm1,-0x10(%rbp)
    94b9:	f2 0f 10 45 f0       	movsd  -0x10(%rbp),%xmm0
    94be:	f3 0f 7e 0d 9a cd 00 	movq   0xcd9a(%rip),%xmm1        # 16260 <l_2917.4521+0x58>
    94c5:	00 
    94c6:	66 0f 54 c8          	andpd  %xmm0,%xmm1
    94ca:	f2 0f 10 05 be cd 00 	movsd  0xcdbe(%rip),%xmm0        # 16290 <l_2917.4521+0x88>
    94d1:	00 
    94d2:	66 0f 2f c1          	comisd %xmm1,%xmm0
    94d6:	0f 97 c0             	seta   %al
    94d9:	83 f0 01             	xor    $0x1,%eax
    94dc:	84 c0                	test   %al,%al
    94de:	75 5a                	jne    953a <safe_div_func_double_f_f+0x93>
    94e0:	66 0f ef c0          	pxor   %xmm0,%xmm0
    94e4:	66 0f 2e 45 f0       	ucomisd -0x10(%rbp),%xmm0
    94e9:	7a 0b                	jp     94f6 <safe_div_func_double_f_f+0x4f>
    94eb:	66 0f ef c0          	pxor   %xmm0,%xmm0
    94ef:	66 0f 2e 45 f0       	ucomisd -0x10(%rbp),%xmm0
    94f4:	74 50                	je     9546 <safe_div_func_double_f_f+0x9f>
    94f6:	f2 0f 10 4d f8       	movsd  -0x8(%rbp),%xmm1
    94fb:	f2 0f 10 05 95 cd 00 	movsd  0xcd95(%rip),%xmm0        # 16298 <l_2917.4521+0x90>
    9502:	00 
    9503:	f2 0f 59 c1          	mulsd  %xmm1,%xmm0
    9507:	f2 0f 10 55 f0       	movsd  -0x10(%rbp),%xmm2
    950c:	f2 0f 10 0d 8c cd 00 	movsd  0xcd8c(%rip),%xmm1        # 162a0 <l_2917.4521+0x98>
    9513:	00 
    9514:	f2 0f 59 ca          	mulsd  %xmm2,%xmm1
    9518:	f2 0f 5e c1          	divsd  %xmm1,%xmm0
    951c:	f3 0f 7e 0d 3c cd 00 	movq   0xcd3c(%rip),%xmm1        # 16260 <l_2917.4521+0x58>
    9523:	00 
    9524:	66 0f 54 c1          	andpd  %xmm1,%xmm0
    9528:	66 0f 2f 05 78 cd 00 	comisd 0xcd78(%rip),%xmm0        # 162a8 <l_2917.4521+0xa0>
    952f:	00 
    9530:	0f 97 c0             	seta   %al
    9533:	83 f0 01             	xor    $0x1,%eax
    9536:	84 c0                	test   %al,%al
    9538:	74 0c                	je     9546 <safe_div_func_double_f_f+0x9f>
    953a:	f2 0f 10 45 f8       	movsd  -0x8(%rbp),%xmm0
    953f:	f2 0f 5e 45 f0       	divsd  -0x10(%rbp),%xmm0
    9544:	eb 05                	jmp    954b <safe_div_func_double_f_f+0xa4>
    9546:	f2 0f 10 45 f8       	movsd  -0x8(%rbp),%xmm0
    954b:	5d                   	pop    %rbp
    954c:	c3                   	retq   

000000000000954d <safe_convert_func_float_to_int32_t>:
    954d:	f3 0f 1e fa          	endbr64 
    9551:	55                   	push   %rbp
    9552:	48 89 e5             	mov    %rsp,%rbp
    9555:	f3 0f 11 45 fc       	movss  %xmm0,-0x4(%rbp)
    955a:	f3 0f 10 05 4e cd 00 	movss  0xcd4e(%rip),%xmm0        # 162b0 <l_2917.4521+0xa8>
    9561:	00 
    9562:	0f 2f 45 fc          	comiss -0x4(%rbp),%xmm0
    9566:	0f 93 c0             	setae  %al
    9569:	83 f0 01             	xor    $0x1,%eax
    956c:	84 c0                	test   %al,%al
    956e:	74 21                	je     9591 <safe_convert_func_float_to_int32_t+0x44>
    9570:	f3 0f 10 45 fc       	movss  -0x4(%rbp),%xmm0
    9575:	0f 2f 05 38 cd 00 00 	comiss 0xcd38(%rip),%xmm0        # 162b4 <l_2917.4521+0xac>
    957c:	0f 93 c0             	setae  %al
    957f:	83 f0 01             	xor    $0x1,%eax
    9582:	84 c0                	test   %al,%al
    9584:	74 0b                	je     9591 <safe_convert_func_float_to_int32_t+0x44>
    9586:	f3 0f 10 45 fc       	movss  -0x4(%rbp),%xmm0
    958b:	f3 0f 2c c0          	cvttss2si %xmm0,%eax
    958f:	eb 05                	jmp    9596 <safe_convert_func_float_to_int32_t+0x49>
    9591:	b8 ff ff ff 7f       	mov    $0x7fffffff,%eax
    9596:	5d                   	pop    %rbp
    9597:	c3                   	retq   

0000000000009598 <crc32_gentab>:
    9598:	f3 0f 1e fa          	endbr64 
    959c:	55                   	push   %rbp
    959d:	48 89 e5             	mov    %rsp,%rbp
    95a0:	c7 45 fc 20 83 b8 ed 	movl   $0xedb88320,-0x4(%rbp)
    95a7:	c7 45 f4 00 00 00 00 	movl   $0x0,-0xc(%rbp)
    95ae:	eb 51                	jmp    9601 <crc32_gentab+0x69>
    95b0:	8b 45 f4             	mov    -0xc(%rbp),%eax
    95b3:	89 45 f0             	mov    %eax,-0x10(%rbp)
    95b6:	c7 45 f8 08 00 00 00 	movl   $0x8,-0x8(%rbp)
    95bd:	eb 1e                	jmp    95dd <crc32_gentab+0x45>
    95bf:	8b 45 f0             	mov    -0x10(%rbp),%eax
    95c2:	83 e0 01             	and    $0x1,%eax
    95c5:	85 c0                	test   %eax,%eax
    95c7:	74 0d                	je     95d6 <crc32_gentab+0x3e>
    95c9:	8b 45 f0             	mov    -0x10(%rbp),%eax
    95cc:	d1 e8                	shr    %eax
    95ce:	33 45 fc             	xor    -0x4(%rbp),%eax
    95d1:	89 45 f0             	mov    %eax,-0x10(%rbp)
    95d4:	eb 03                	jmp    95d9 <crc32_gentab+0x41>
    95d6:	d1 6d f0             	shrl   -0x10(%rbp)
    95d9:	83 6d f8 01          	subl   $0x1,-0x8(%rbp)
    95dd:	83 7d f8 00          	cmpl   $0x0,-0x8(%rbp)
    95e1:	7f dc                	jg     95bf <crc32_gentab+0x27>
    95e3:	8b 45 f4             	mov    -0xc(%rbp),%eax
    95e6:	48 98                	cltq   
    95e8:	48 8d 0c 85 00 00 00 	lea    0x0(,%rax,4),%rcx
    95ef:	00 
    95f0:	48 8d 15 49 40 01 00 	lea    0x14049(%rip),%rdx        # 1d640 <crc32_tab>
    95f7:	8b 45 f0             	mov    -0x10(%rbp),%eax
    95fa:	89 04 11             	mov    %eax,(%rcx,%rdx,1)
    95fd:	83 45 f4 01          	addl   $0x1,-0xc(%rbp)
    9601:	81 7d f4 ff 00 00 00 	cmpl   $0xff,-0xc(%rbp)
    9608:	7e a6                	jle    95b0 <crc32_gentab+0x18>
    960a:	90                   	nop
    960b:	90                   	nop
    960c:	5d                   	pop    %rbp
    960d:	c3                   	retq   

000000000000960e <crc32_byte>:
    960e:	f3 0f 1e fa          	endbr64 
    9612:	55                   	push   %rbp
    9613:	48 89 e5             	mov    %rsp,%rbp
    9616:	89 f8                	mov    %edi,%eax
    9618:	88 45 fc             	mov    %al,-0x4(%rbp)
    961b:	8b 05 ff f9 00 00    	mov    0xf9ff(%rip),%eax        # 19020 <crc32_context>
    9621:	c1 e8 08             	shr    $0x8,%eax
    9624:	89 c1                	mov    %eax,%ecx
    9626:	0f b6 55 fc          	movzbl -0x4(%rbp),%edx
    962a:	8b 05 f0 f9 00 00    	mov    0xf9f0(%rip),%eax        # 19020 <crc32_context>
    9630:	31 d0                	xor    %edx,%eax
    9632:	0f b6 c0             	movzbl %al,%eax
    9635:	89 c0                	mov    %eax,%eax
    9637:	48 8d 14 85 00 00 00 	lea    0x0(,%rax,4),%rdx
    963e:	00 
    963f:	48 8d 05 fa 3f 01 00 	lea    0x13ffa(%rip),%rax        # 1d640 <crc32_tab>
    9646:	8b 04 02             	mov    (%rdx,%rax,1),%eax
    9649:	31 c8                	xor    %ecx,%eax
    964b:	89 05 cf f9 00 00    	mov    %eax,0xf9cf(%rip)        # 19020 <crc32_context>
    9651:	90                   	nop
    9652:	5d                   	pop    %rbp
    9653:	c3                   	retq   

0000000000009654 <crc32_8bytes>:
    9654:	f3 0f 1e fa          	endbr64 
    9658:	55                   	push   %rbp
    9659:	48 89 e5             	mov    %rsp,%rbp
    965c:	48 83 ec 08          	sub    $0x8,%rsp
    9660:	48 89 7d f8          	mov    %rdi,-0x8(%rbp)
    9664:	48 8b 45 f8          	mov    -0x8(%rbp),%rax
    9668:	0f b6 c0             	movzbl %al,%eax
    966b:	89 c7                	mov    %eax,%edi
    966d:	e8 9c ff ff ff       	callq  960e <crc32_byte>
    9672:	48 8b 45 f8          	mov    -0x8(%rbp),%rax
    9676:	48 c1 e8 08          	shr    $0x8,%rax
    967a:	0f b6 c0             	movzbl %al,%eax
    967d:	89 c7                	mov    %eax,%edi
    967f:	e8 8a ff ff ff       	callq  960e <crc32_byte>
    9684:	48 8b 45 f8          	mov    -0x8(%rbp),%rax
    9688:	48 c1 e8 10          	shr    $0x10,%rax
    968c:	0f b6 c0             	movzbl %al,%eax
    968f:	89 c7                	mov    %eax,%edi
    9691:	e8 78 ff ff ff       	callq  960e <crc32_byte>
    9696:	48 8b 45 f8          	mov    -0x8(%rbp),%rax
    969a:	48 c1 e8 18          	shr    $0x18,%rax
    969e:	0f b6 c0             	movzbl %al,%eax
    96a1:	89 c7                	mov    %eax,%edi
    96a3:	e8 66 ff ff ff       	callq  960e <crc32_byte>
    96a8:	48 8b 45 f8          	mov    -0x8(%rbp),%rax
    96ac:	48 c1 e8 20          	shr    $0x20,%rax
    96b0:	0f b6 c0             	movzbl %al,%eax
    96b3:	89 c7                	mov    %eax,%edi
    96b5:	e8 54 ff ff ff       	callq  960e <crc32_byte>
    96ba:	48 8b 45 f8          	mov    -0x8(%rbp),%rax
    96be:	48 c1 e8 28          	shr    $0x28,%rax
    96c2:	0f b6 c0             	movzbl %al,%eax
    96c5:	89 c7                	mov    %eax,%edi
    96c7:	e8 42 ff ff ff       	callq  960e <crc32_byte>
    96cc:	48 8b 45 f8          	mov    -0x8(%rbp),%rax
    96d0:	48 c1 e8 30          	shr    $0x30,%rax
    96d4:	0f b6 c0             	movzbl %al,%eax
    96d7:	89 c7                	mov    %eax,%edi
    96d9:	e8 30 ff ff ff       	callq  960e <crc32_byte>
    96de:	48 8b 45 f8          	mov    -0x8(%rbp),%rax
    96e2:	48 c1 e8 38          	shr    $0x38,%rax
    96e6:	0f b6 c0             	movzbl %al,%eax
    96e9:	89 c7                	mov    %eax,%edi
    96eb:	e8 1e ff ff ff       	callq  960e <crc32_byte>
    96f0:	90                   	nop
    96f1:	c9                   	leaveq 
    96f2:	c3                   	retq   

00000000000096f3 <transparent_crc>:
    96f3:	f3 0f 1e fa          	endbr64 
    96f7:	55                   	push   %rbp
    96f8:	48 89 e5             	mov    %rsp,%rbp
    96fb:	48 83 ec 20          	sub    $0x20,%rsp
    96ff:	48 89 7d f8          	mov    %rdi,-0x8(%rbp)
    9703:	48 89 75 f0          	mov    %rsi,-0x10(%rbp)
    9707:	89 55 ec             	mov    %edx,-0x14(%rbp)
    970a:	48 8b 45 f8          	mov    -0x8(%rbp),%rax
    970e:	48 89 c7             	mov    %rax,%rdi
    9711:	e8 3e ff ff ff       	callq  9654 <crc32_8bytes>
    9716:	83 7d ec 00          	cmpl   $0x0,-0x14(%rbp)
    971a:	74 22                	je     973e <transparent_crc+0x4b>
    971c:	8b 05 fe f8 00 00    	mov    0xf8fe(%rip),%eax        # 19020 <crc32_context>
    9722:	f7 d0                	not    %eax
    9724:	89 c2                	mov    %eax,%edx
    9726:	48 8b 45 f0          	mov    -0x10(%rbp),%rax
    972a:	48 89 c6             	mov    %rax,%rsi
    972d:	48 8d 3d fc b8 00 00 	lea    0xb8fc(%rip),%rdi        # 15030 <_IO_stdin_used+0x30>
    9734:	b8 00 00 00 00       	mov    $0x0,%eax
    9739:	e8 42 e9 ff ff       	callq  8080 <printf@plt>
    973e:	90                   	nop
    973f:	c9                   	leaveq 
    9740:	c3                   	retq   

0000000000009741 <transparent_crc_bytes>:
    9741:	f3 0f 1e fa          	endbr64 
    9745:	55                   	push   %rbp
    9746:	48 89 e5             	mov    %rsp,%rbp
    9749:	48 83 ec 30          	sub    $0x30,%rsp
    974d:	48 89 7d e8          	mov    %rdi,-0x18(%rbp)
    9751:	89 75 e4             	mov    %esi,-0x1c(%rbp)
    9754:	48 89 55 d8          	mov    %rdx,-0x28(%rbp)
    9758:	89 4d e0             	mov    %ecx,-0x20(%rbp)
    975b:	c7 45 fc 00 00 00 00 	movl   $0x0,-0x4(%rbp)
    9762:	eb 1e                	jmp    9782 <transparent_crc_bytes+0x41>
    9764:	8b 45 fc             	mov    -0x4(%rbp),%eax
    9767:	48 63 d0             	movslq %eax,%rdx
    976a:	48 8b 45 e8          	mov    -0x18(%rbp),%rax
    976e:	48 01 d0             	add    %rdx,%rax
    9771:	0f b6 00             	movzbl (%rax),%eax
    9774:	0f b6 c0             	movzbl %al,%eax
    9777:	89 c7                	mov    %eax,%edi
    9779:	e8 90 fe ff ff       	callq  960e <crc32_byte>
    977e:	83 45 fc 01          	addl   $0x1,-0x4(%rbp)
    9782:	8b 45 fc             	mov    -0x4(%rbp),%eax
    9785:	3b 45 e4             	cmp    -0x1c(%rbp),%eax
    9788:	7c da                	jl     9764 <transparent_crc_bytes+0x23>
    978a:	83 7d e0 00          	cmpl   $0x0,-0x20(%rbp)
    978e:	74 22                	je     97b2 <transparent_crc_bytes+0x71>
    9790:	8b 05 8a f8 00 00    	mov    0xf88a(%rip),%eax        # 19020 <crc32_context>
    9796:	f7 d0                	not    %eax
    9798:	89 c2                	mov    %eax,%edx
    979a:	48 8b 45 d8          	mov    -0x28(%rbp),%rax
    979e:	48 89 c6             	mov    %rax,%rsi
    97a1:	48 8d 3d 88 b8 00 00 	lea    0xb888(%rip),%rdi        # 15030 <_IO_stdin_used+0x30>
    97a8:	b8 00 00 00 00       	mov    $0x0,%eax
    97ad:	e8 ce e8 ff ff       	callq  8080 <printf@plt>
    97b2:	90                   	nop
    97b3:	c9                   	leaveq 
    97b4:	c3                   	retq   

00000000000097b5 <func_1>:
    97b5:	f3 0f 1e fa          	endbr64 
    97b9:	55                   	push   %rbp
    97ba:	48 89 e5             	mov    %rsp,%rbp
    97bd:	41 54                	push   %r12
    97bf:	53                   	push   %rbx
    97c0:	48 83 ec 40          	sub    $0x40,%rsp
    97c4:	64 48 8b 04 25 28 00 	mov    %fs:0x28,%rax
    97cb:	00 00 
    97cd:	48 89 45 e8          	mov    %rax,-0x18(%rbp)
    97d1:	31 c0                	xor    %eax,%eax
    97d3:	48 8d 05 6e 42 01 00 	lea    0x1426e(%rip),%rax        # 1da48 <g_3>
    97da:	48 89 45 b8          	mov    %rax,-0x48(%rbp)
    97de:	48 8d 05 63 42 01 00 	lea    0x14263(%rip),%rax        # 1da48 <g_3>
    97e5:	48 89 45 c0          	mov    %rax,-0x40(%rbp)
    97e9:	48 8d 05 58 42 01 00 	lea    0x14258(%rip),%rax        # 1da48 <g_3>
    97f0:	48 89 45 c8          	mov    %rax,-0x38(%rbp)
    97f4:	c7 45 b4 f7 ff ff ff 	movl   $0xfffffff7,-0x4c(%rbp)
    97fb:	c7 45 b0 00 00 00 00 	movl   $0x0,-0x50(%rbp)
    9802:	eb 12                	jmp    9816 <func_1+0x61>
    9804:	8b 45 b0             	mov    -0x50(%rbp),%eax
    9807:	48 98                	cltq   
    9809:	48 c7 44 c5 d0 00 00 	movq   $0x0,-0x30(%rbp,%rax,8)
    9810:	00 00 
    9812:	83 45 b0 01          	addl   $0x1,-0x50(%rbp)
    9816:	83 7d b0 01          	cmpl   $0x1,-0x50(%rbp)
    981a:	7e e8                	jle    9804 <func_1+0x4f>
    981c:	0f b7 05 03 f8 00 00 	movzwl 0xf803(%rip),%eax        # 19026 <g_8>
    9823:	83 e8 01             	sub    $0x1,%eax
    9826:	66 89 05 f9 f7 00 00 	mov    %ax,0xf7f9(%rip)        # 19026 <g_8>
    982d:	48 8b 45 c0          	mov    -0x40(%rbp),%rax
    9831:	8b 00                	mov    (%rax),%eax
    9833:	41 89 c4             	mov    %eax,%r12d
    9836:	48 8b 45 b8          	mov    -0x48(%rbp),%rax
    983a:	8b 00                	mov    (%rax),%eax
    983c:	48 98                	cltq   
    983e:	48 8b 1d 53 39 01 00 	mov    0x13953(%rip),%rbx        # 1d198 <g_2180>
    9845:	48 89 c7             	mov    %rax,%rdi
    9848:	e8 6d 2c 00 00       	callq  c4ba <func_18>
    984d:	48 89 03             	mov    %rax,(%rbx)
    9850:	48 8b 03             	mov    (%rbx),%rax
    9853:	48 89 c7             	mov    %rax,%rdi
    9856:	e8 4a 00 00 00       	callq  98a5 <func_16>
    985b:	0f b6 d0             	movzbl %al,%edx
    985e:	48 8b 45 c0          	mov    -0x40(%rbp),%rax
    9862:	8b 00                	mov    (%rax),%eax
    9864:	f7 d0                	not    %eax
    9866:	0f b6 c0             	movzbl %al,%eax
    9869:	89 d6                	mov    %edx,%esi
    986b:	89 c7                	mov    %eax,%edi
    986d:	e8 3c f3 ff ff       	callq  8bae <safe_mod_func_uint8_t_u_u>
    9872:	0f b6 c0             	movzbl %al,%eax
    9875:	44 89 e6             	mov    %r12d,%esi
    9878:	89 c7                	mov    %eax,%edi
    987a:	e8 a6 f6 ff ff       	callq  8f25 <safe_div_func_uint32_t_u_u>
    987f:	21 45 b4             	and    %eax,-0x4c(%rbp)
    9882:	48 8b 45 c8          	mov    -0x38(%rbp),%rax
    9886:	8b 00                	mov    (%rax),%eax
    9888:	48 8b 4d e8          	mov    -0x18(%rbp),%rcx
    988c:	64 48 33 0c 25 28 00 	xor    %fs:0x28,%rcx
    9893:	00 00 
    9895:	74 05                	je     989c <func_1+0xe7>
    9897:	e8 d4 e7 ff ff       	callq  8070 <__stack_chk_fail@plt>
    989c:	48 83 c4 40          	add    $0x40,%rsp
    98a0:	5b                   	pop    %rbx
    98a1:	41 5c                	pop    %r12
    98a3:	5d                   	pop    %rbp
    98a4:	c3                   	retq   

00000000000098a5 <func_16>:
    98a5:	f3 0f 1e fa          	endbr64 
    98a9:	55                   	push   %rbp
    98aa:	48 89 e5             	mov    %rsp,%rbp
    98ad:	41 57                	push   %r15
    98af:	41 56                	push   %r14
    98b1:	41 55                	push   %r13
    98b3:	41 54                	push   %r12
    98b5:	53                   	push   %rbx
    98b6:	48 81 ec 38 0d 00 00 	sub    $0xd38,%rsp
    98bd:	48 89 bd b8 f2 ff ff 	mov    %rdi,-0xd48(%rbp)
    98c4:	64 48 8b 04 25 28 00 	mov    %fs:0x28,%rax
    98cb:	00 00 
    98cd:	48 89 45 c8          	mov    %rax,-0x38(%rbp)
    98d1:	31 c0                	xor    %eax,%eax
    98d3:	48 b8 71 60 45 3c e5 	movabs $0x1a48cae53c456071,%rax
    98da:	ca 48 1a 
    98dd:	48 89 85 f8 f3 ff ff 	mov    %rax,-0xc08(%rbp)
    98e4:	48 c7 85 00 f4 ff ff 	movq   $0x0,-0xc00(%rbp)
    98eb:	00 00 00 00 
    98ef:	c7 85 e0 f2 ff ff 03 	movl   $0x3,-0xd20(%rbp)
    98f6:	00 00 00 
    98f9:	48 8d 05 20 42 01 00 	lea    0x14220(%rip),%rax        # 1db20 <g_2848>
    9900:	48 89 85 b0 f3 ff ff 	mov    %rax,-0xc50(%rbp)
    9907:	48 c7 85 b8 f3 ff ff 	movq   $0xfffffffffffffff9,-0xc48(%rbp)
    990e:	f9 ff ff ff 
    9912:	48 c7 85 08 f4 ff ff 	movq   $0x0,-0xbf8(%rbp)
    9919:	00 00 00 00 
    991d:	48 8d 05 20 f9 00 00 	lea    0xf920(%rip),%rax        # 19244 <g_101>
    9924:	48 89 85 c0 f3 ff ff 	mov    %rax,-0xc40(%rbp)
    992b:	48 b8 be 5c 15 7d cb 	movabs $0xa52537cb7d155cbe,%rax
    9932:	37 25 a5 
    9935:	48 89 85 e8 f3 ff ff 	mov    %rax,-0xc18(%rbp)
    993c:	c7 85 e4 f2 ff ff 04 	movl   $0x4,-0xd1c(%rbp)
    9943:	00 00 00 
    9946:	c7 85 90 f5 ff ff 85 	movl   $0x24824485,-0xa70(%rbp)
    994d:	44 82 24 
    9950:	c7 85 94 f5 ff ff 85 	movl   $0x24824485,-0xa6c(%rbp)
    9957:	44 82 24 
    995a:	c7 85 98 f5 ff ff 85 	movl   $0x24824485,-0xa68(%rbp)
    9961:	44 82 24 
    9964:	c7 85 9c f5 ff ff 85 	movl   $0x24824485,-0xa64(%rbp)
    996b:	44 82 24 
    996e:	c7 85 a0 f5 ff ff 85 	movl   $0x24824485,-0xa60(%rbp)
    9975:	44 82 24 
    9978:	c7 85 a4 f5 ff ff 85 	movl   $0x24824485,-0xa5c(%rbp)
    997f:	44 82 24 
    9982:	c7 85 a8 f5 ff ff 85 	movl   $0x24824485,-0xa58(%rbp)
    9989:	44 82 24 
    998c:	c7 85 ac f5 ff ff 85 	movl   $0x24824485,-0xa54(%rbp)
    9993:	44 82 24 
    9996:	c7 85 b0 f5 ff ff 85 	movl   $0x24824485,-0xa50(%rbp)
    999d:	44 82 24 
    99a0:	c7 85 30 f3 ff ff 21 	movl   $0xd1e57521,-0xcd0(%rbp)
    99a7:	75 e5 d1 
    99aa:	48 b8 89 a5 5b a5 47 	movabs $0xa1f3d847a55ba589,%rax
    99b1:	d8 f3 a1 
    99b4:	48 89 85 10 f4 ff ff 	mov    %rax,-0xbf0(%rbp)
    99bb:	48 c7 85 f0 f3 ff ff 	movq   $0xffffffffffffffff,-0xc10(%rbp)
    99c2:	ff ff ff ff 
    99c6:	c7 85 24 f5 ff ff 01 	movl   $0x1010101,-0xadc(%rbp)
    99cd:	01 01 01 
    99d0:	66 c7 85 28 f5 ff ff 	movw   $0x101,-0xad8(%rbp)
    99d7:	01 01 
    99d9:	c7 85 2a f5 ff ff 01 	movl   $0x1010101,-0xad6(%rbp)
    99e0:	01 01 01 
    99e3:	66 c7 85 2e f5 ff ff 	movw   $0x101,-0xad2(%rbp)
    99ea:	01 01 
    99ec:	48 b8 86 55 14 6f 04 	movabs $0xa461f4046f145586,%rax
    99f3:	f4 61 a4 
    99f6:	48 89 85 18 f4 ff ff 	mov    %rax,-0xbe8(%rbp)
    99fd:	c6 85 cc f2 ff ff f8 	movb   $0xf8,-0xd34(%rbp)
    9a04:	48 b8 ec 29 1d 86 e9 	movabs $0xe6814fe9861d29ec,%rax
    9a0b:	4f 81 e6 
    9a0e:	48 89 85 e0 f3 ff ff 	mov    %rax,-0xc20(%rbp)
    9a15:	c6 85 cd f2 ff ff ff 	movb   $0xff,-0xd33(%rbp)
    9a1c:	c7 85 34 f3 ff ff 31 	movl   $0x393cb531,-0xccc(%rbp)
    9a23:	b5 3c 39 
    9a26:	c7 85 38 f3 ff ff 06 	movl   $0x6,-0xcc8(%rbp)
    9a2d:	00 00 00 
    9a30:	66 c7 85 d2 f2 ff ff 	movw   $0x2c44,-0xd2e(%rbp)
    9a37:	44 2c 
    9a39:	c7 85 3c f3 ff ff 10 	movl   $0x57eff310,-0xcc4(%rbp)
    9a40:	f3 ef 57 
    9a43:	48 8d 05 4e 40 01 00 	lea    0x1404e(%rip),%rax        # 1da98 <g_429>
    9a4a:	48 89 85 20 f4 ff ff 	mov    %rax,-0xbe0(%rbp)
    9a51:	c7 85 00 f3 ff ff 00 	movl   $0x0,-0xd00(%rbp)
    9a58:	00 00 00 
    9a5b:	eb 19                	jmp    9a76 <func_16+0x1d1>
    9a5d:	8b 85 00 f3 ff ff    	mov    -0xd00(%rbp),%eax
    9a63:	48 98                	cltq   
    9a65:	66 c7 84 45 1c f5 ff 	movw   $0x3,-0xae4(%rbp,%rax,2)
    9a6c:	ff 03 00 
    9a6f:	83 85 00 f3 ff ff 01 	addl   $0x1,-0xd00(%rbp)
    9a76:	83 bd 00 f3 ff ff 03 	cmpl   $0x3,-0xd00(%rbp)
    9a7d:	7e de                	jle    9a5d <func_16+0x1b8>
    9a7f:	c7 85 00 f3 ff ff 00 	movl   $0x0,-0xd00(%rbp)
    9a86:	00 00 00 
    9a89:	eb 1b                	jmp    9aa6 <func_16+0x201>
    9a8b:	8b 85 00 f3 ff ff    	mov    -0xd00(%rbp),%eax
    9a91:	48 98                	cltq   
    9a93:	48 c7 84 c5 50 f5 ff 	movq   $0x0,-0xab0(%rbp,%rax,8)
    9a9a:	ff 00 00 00 00 
    9a9f:	83 85 00 f3 ff ff 01 	addl   $0x1,-0xd00(%rbp)
    9aa6:	83 bd 00 f3 ff ff 02 	cmpl   $0x2,-0xd00(%rbp)
    9aad:	7e dc                	jle    9a8b <func_16+0x1e6>
    9aaf:	48 8b 85 f8 f3 ff ff 	mov    -0xc08(%rbp),%rax
    9ab6:	0f bf d8             	movswl %ax,%ebx
    9ab9:	48 8b 85 f8 f3 ff ff 	mov    -0xc08(%rbp),%rax
    9ac0:	0f b7 c0             	movzwl %ax,%eax
    9ac3:	be 36 53 00 00       	mov    $0x5336,%esi
    9ac8:	89 c7                	mov    %eax,%edi
    9aca:	e8 30 f2 ff ff       	callq  8cff <safe_add_func_uint16_t_u_u>
    9acf:	0f b7 c0             	movzwl %ax,%eax
    9ad2:	c6 05 67 03 01 00 00 	movb   $0x0,0x10367(%rip)        # 19e40 <g_2842>
    9ad9:	89 c6                	mov    %eax,%esi
    9adb:	bf 00 00 00 00       	mov    $0x0,%edi
    9ae0:	e8 67 f1 ff ff       	callq  8c4c <safe_lshift_func_uint8_t_u_u>
    9ae5:	0f b6 c0             	movzbl %al,%eax
    9ae8:	48 8b 95 f8 f3 ff ff 	mov    -0xc08(%rbp),%rdx
    9aef:	89 c6                	mov    %eax,%esi
    9af1:	89 d7                	mov    %edx,%edi
    9af3:	e8 c0 f3 ff ff       	callq  8eb8 <safe_add_func_uint32_t_u_u>
    9af8:	98                   	cwtl   
    9af9:	89 de                	mov    %ebx,%esi
    9afb:	89 c7                	mov    %eax,%edi
    9afd:	e8 d1 e8 ff ff       	callq  83d3 <safe_sub_func_int16_t_s_s>
    9b02:	48 0f bf c0          	movswq %ax,%rax
    9b06:	48 39 85 f8 f3 ff ff 	cmp    %rax,-0xc08(%rbp)
    9b0d:	0f 92 c0             	setb   %al
    9b10:	0f b6 d0             	movzbl %al,%edx
    9b13:	48 83 bd 00 f4 ff ff 	cmpq   $0x0,-0xc00(%rbp)
    9b1a:	00 
    9b1b:	0f 94 c0             	sete   %al
    9b1e:	0f b6 c0             	movzbl %al,%eax
    9b21:	89 d6                	mov    %edx,%esi
    9b23:	89 c7                	mov    %eax,%edi
    9b25:	e8 f5 f1 ff ff       	callq  8d1f <safe_sub_func_uint16_t_u_u>
    9b2a:	48 8b 05 5f 36 01 00 	mov    0x1365f(%rip),%rax        # 1d190 <g_2172>
    9b31:	48 8b 00             	mov    (%rax),%rax
    9b34:	8b 00                	mov    (%rax),%eax
    9b36:	48 98                	cltq   
    9b38:	48 39 85 f8 f3 ff ff 	cmp    %rax,-0xc08(%rbp)
    9b3f:	0f 97 c0             	seta   %al
    9b42:	0f b6 d0             	movzbl %al,%edx
    9b45:	8b 85 e0 f2 ff ff    	mov    -0xd20(%rbp),%eax
    9b4b:	09 d0                	or     %edx,%eax
    9b4d:	89 85 e0 f2 ff ff    	mov    %eax,-0xd20(%rbp)
    9b53:	48 8b 85 b0 f3 ff ff 	mov    -0xc50(%rbp),%rax
    9b5a:	48 85 c0             	test   %rax,%rax
    9b5d:	48 8b 85 c0 f3 ff ff 	mov    -0xc40(%rbp),%rax
    9b64:	48 89 85 c0 f3 ff ff 	mov    %rax,-0xc40(%rbp)
    9b6b:	48 8b 85 c0 f3 ff ff 	mov    -0xc40(%rbp),%rax
    9b72:	48 39 85 08 f4 ff ff 	cmp    %rax,-0xbf8(%rbp)
    9b79:	0f 94 c0             	sete   %al
    9b7c:	0f b6 c0             	movzbl %al,%eax
    9b7f:	89 c7                	mov    %eax,%edi
    9b81:	e8 39 e6 ff ff       	callq  81bf <safe_unary_minus_func_int8_t_s>
    9b86:	84 c0                	test   %al,%al
    9b88:	75 17                	jne    9ba1 <func_16+0x2fc>
    9b8a:	48 8b 85 b8 f3 ff ff 	mov    -0xc48(%rbp),%rax
    9b91:	89 85 e0 f2 ff ff    	mov    %eax,-0xd20(%rbp)
    9b97:	8b 85 e0 f2 ff ff    	mov    -0xd20(%rbp),%eax
    9b9d:	85 c0                	test   %eax,%eax
    9b9f:	74 07                	je     9ba8 <func_16+0x303>
    9ba1:	b8 01 00 00 00       	mov    $0x1,%eax
    9ba6:	eb 05                	jmp    9bad <func_16+0x308>
    9ba8:	b8 00 00 00 00       	mov    $0x0,%eax
    9bad:	48 63 d0             	movslq %eax,%rdx
    9bb0:	48 8b 85 b8 f3 ff ff 	mov    -0xc48(%rbp),%rax
    9bb7:	48 39 c2             	cmp    %rax,%rdx
    9bba:	48 8b 85 b8 f3 ff ff 	mov    -0xc48(%rbp),%rax
    9bc1:	0f be d8             	movsbl %al,%ebx
    9bc4:	48 8b 05 85 35 01 00 	mov    0x13585(%rip),%rax        # 1d150 <g_1882>
    9bcb:	be 04 00 00 00       	mov    $0x4,%esi
    9bd0:	bf ff 00 00 00       	mov    $0xff,%edi
    9bd5:	e8 72 f0 ff ff       	callq  8c4c <safe_lshift_func_uint8_t_u_u>
    9bda:	0f be c0             	movsbl %al,%eax
    9bdd:	be 24 00 00 00       	mov    $0x24,%esi
    9be2:	89 c7                	mov    %eax,%edi
    9be4:	e8 29 e6 ff ff       	callq  8212 <safe_mul_func_int8_t_s_s>
    9be9:	83 c8 03             	or     $0x3,%eax
    9bec:	0f be c0             	movsbl %al,%eax
    9bef:	89 de                	mov    %ebx,%esi
    9bf1:	89 c7                	mov    %eax,%edi
    9bf3:	e8 39 e6 ff ff       	callq  8231 <safe_mod_func_int8_t_s_s>
    9bf8:	0f be d0             	movsbl %al,%edx
    9bfb:	8b 85 e0 f2 ff ff    	mov    -0xd20(%rbp),%eax
    9c01:	31 c2                	xor    %eax,%edx
    9c03:	48 8b 05 06 27 01 00 	mov    0x12706(%rip),%rax        # 1c310 <g_1559>
    9c0a:	48 8b 00             	mov    (%rax),%rax
    9c0d:	89 10                	mov    %edx,(%rax)
    9c0f:	8b 00                	mov    (%rax),%eax
    9c11:	3d 1a d1 80 f7       	cmp    $0xf780d11a,%eax
    9c16:	0f 86 b6 02 00 00    	jbe    9ed2 <func_16+0x62d>
    9c1c:	c7 85 40 f3 ff ff 15 	movl   $0x735e2115,-0xcc0(%rbp)
    9c23:	21 5e 73 
    9c26:	48 8d 05 07 f7 00 00 	lea    0xf707(%rip),%rax        # 19334 <g_699+0x34>
    9c2d:	48 89 85 28 f4 ff ff 	mov    %rax,-0xbd8(%rbp)
    9c34:	48 8d 05 85 f8 00 00 	lea    0xf885(%rip),%rax        # 194c0 <g_1878>
    9c3b:	48 89 85 30 f4 ff ff 	mov    %rax,-0xbd0(%rbp)
    9c42:	48 8d 05 cf f8 00 00 	lea    0xf8cf(%rip),%rax        # 19518 <g_2148+0x38>
    9c49:	48 89 85 38 f4 ff ff 	mov    %rax,-0xbc8(%rbp)
    9c50:	c6 85 ce f2 ff ff 61 	movb   $0x61,-0xd32(%rbp)
    9c57:	0f be 9d ce f2 ff ff 	movsbl -0xd32(%rbp),%ebx
    9c5e:	0f b7 85 22 f5 ff ff 	movzwl -0xade(%rbp),%eax
    9c65:	4c 0f bf e0          	movswq %ax,%r12
    9c69:	48 8b 85 f8 f3 ff ff 	mov    -0xc08(%rbp),%rax
    9c70:	44 0f be e8          	movsbl %al,%r13d
    9c74:	48 8b 85 b8 f3 ff ff 	mov    -0xc48(%rbp),%rax
    9c7b:	89 85 b4 f2 ff ff    	mov    %eax,-0xd4c(%rbp)
    9c81:	48 c7 c7 f9 ff ff ff 	mov    $0xfffffffffffffff9,%rdi
    9c88:	e8 8c f3 ff ff       	callq  9019 <safe_unary_minus_func_uint64_t_u>
    9c8d:	48 85 c0             	test   %rax,%rax
    9c90:	0f 94 c0             	sete   %al
    9c93:	0f b6 c0             	movzbl %al,%eax
    9c96:	89 85 e0 f2 ff ff    	mov    %eax,-0xd20(%rbp)
    9c9c:	8b 85 e0 f2 ff ff    	mov    -0xd20(%rbp),%eax
    9ca2:	0f b7 c0             	movzwl %ax,%eax
    9ca5:	be 9a 7a 00 00       	mov    $0x7a9a,%esi
    9caa:	89 c7                	mov    %eax,%edi
    9cac:	e8 ab f0 ff ff       	callq  8d5c <safe_mod_func_uint16_t_u_u>
    9cb1:	48 8b 85 28 f4 ff ff 	mov    -0xbd8(%rbp),%rax
    9cb8:	48 3b 85 08 f4 ff ff 	cmp    -0xbf8(%rbp),%rax
    9cbf:	0f 94 c0             	sete   %al
    9cc2:	0f b6 d0             	movzbl %al,%edx
    9cc5:	48 8b 85 30 f4 ff ff 	mov    -0xbd0(%rbp),%rax
    9ccc:	48 89 10             	mov    %rdx,(%rax)
    9ccf:	48 8b 85 30 f4 ff ff 	mov    -0xbd0(%rbp),%rax
    9cd6:	48 8b 00             	mov    (%rax),%rax
    9cd9:	89 85 b0 f2 ff ff    	mov    %eax,-0xd50(%rbp)
    9cdf:	48 8b 05 42 26 01 00 	mov    0x12642(%rip),%rax        # 1c328 <g_1662>
    9ce6:	0f b6 00             	movzbl (%rax),%eax
    9ce9:	44 0f be f0          	movsbl %al,%r14d
    9ced:	44 8b bd 40 f3 ff ff 	mov    -0xcc0(%rbp),%r15d
    9cf4:	48 8b 85 b8 f3 ff ff 	mov    -0xc48(%rbp),%rax
    9cfb:	0f b6 c0             	movzbl %al,%eax
    9cfe:	89 85 ac f2 ff ff    	mov    %eax,-0xd54(%rbp)
    9d04:	48 8b 95 e8 f3 ff ff 	mov    -0xc18(%rbp),%rdx
    9d0b:	8b 85 40 f3 ff ff    	mov    -0xcc0(%rbp),%eax
    9d11:	48 98                	cltq   
    9d13:	48 89 d6             	mov    %rdx,%rsi
    9d16:	48 89 c7             	mov    %rax,%rdi
    9d19:	e8 23 eb ff ff       	callq  8841 <safe_add_func_int64_t_s_s>
    9d1e:	89 85 e4 f2 ff ff    	mov    %eax,-0xd1c(%rbp)
    9d24:	8b 85 e4 f2 ff ff    	mov    -0xd1c(%rbp),%eax
    9d2a:	48 98                	cltq   
    9d2c:	48 0b 85 e8 f3 ff ff 	or     -0xc18(%rbp),%rax
    9d33:	48 ba e5 b1 fc 98 95 	movabs $0x17cf849598fcb1e5,%rdx
    9d3a:	84 cf 17 
    9d3d:	48 39 d0             	cmp    %rdx,%rax
    9d40:	0f 95 c0             	setne  %al
    9d43:	0f b6 c0             	movzbl %al,%eax
    9d46:	39 85 40 f3 ff ff    	cmp    %eax,-0xcc0(%rbp)
    9d4c:	0f 9e c0             	setle  %al
    9d4f:	0f b6 c0             	movzbl %al,%eax
    9d52:	48 89 c6             	mov    %rax,%rsi
    9d55:	48 bf 9c ce 56 d1 2b 	movabs $0x749f8a2bd156ce9c,%rdi
    9d5c:	8a 9f 74 
    9d5f:	e8 ca f2 ff ff       	callq  902e <safe_add_func_uint64_t_u_u>
    9d64:	0f b6 d0             	movzbl %al,%edx
    9d67:	8b 85 40 f3 ff ff    	mov    -0xcc0(%rbp),%eax
    9d6d:	0f b6 c0             	movzbl %al,%eax
    9d70:	89 d6                	mov    %edx,%esi
    9d72:	89 c7                	mov    %eax,%edi
    9d74:	e8 62 ee ff ff       	callq  8bdb <safe_div_func_uint8_t_u_u>
    9d79:	be 0f 00 00 00       	mov    $0xf,%esi
    9d7e:	bf 3e 2d 00 00       	mov    $0x2d3e,%edi
    9d83:	e8 7e f0 ff ff       	callq  8e06 <safe_lshift_func_uint16_t_u_u>
    9d88:	0f b6 c0             	movzbl %al,%eax
    9d8b:	8b b5 ac f2 ff ff    	mov    -0xd54(%rbp),%esi
    9d91:	89 c7                	mov    %eax,%edi
    9d93:	e8 16 ee ff ff       	callq  8bae <safe_mod_func_uint8_t_u_u>
    9d98:	0f b6 c0             	movzbl %al,%eax
    9d9b:	48 23 85 e8 f3 ff ff 	and    -0xc18(%rbp),%rax
    9da2:	48 89 c2             	mov    %rax,%rdx
    9da5:	48 8b 85 38 f4 ff ff 	mov    -0xbc8(%rbp),%rax
    9dac:	48 89 10             	mov    %rdx,(%rax)
    9daf:	48 8b 85 38 f4 ff ff 	mov    -0xbc8(%rbp),%rax
    9db6:	48 8b 00             	mov    (%rax),%rax
    9db9:	48 85 c0             	test   %rax,%rax
    9dbc:	74 11                	je     9dcf <func_16+0x52a>
    9dbe:	48 83 bd f8 f3 ff ff 	cmpq   $0x0,-0xc08(%rbp)
    9dc5:	00 
    9dc6:	74 07                	je     9dcf <func_16+0x52a>
    9dc8:	b8 01 00 00 00       	mov    $0x1,%eax
    9dcd:	eb 05                	jmp    9dd4 <func_16+0x52f>
    9dcf:	b8 00 00 00 00       	mov    $0x0,%eax
    9dd4:	98                   	cwtl   
    9dd5:	44 89 fe             	mov    %r15d,%esi
    9dd8:	89 c7                	mov    %eax,%edi
    9dda:	e8 02 e7 ff ff       	callq  84e1 <safe_lshift_func_int16_t_s_u>
    9ddf:	98                   	cwtl   
    9de0:	39 85 40 f3 ff ff    	cmp    %eax,-0xcc0(%rbp)
    9de6:	0f 94 c0             	sete   %al
    9de9:	0f b6 c0             	movzbl %al,%eax
    9dec:	44 89 f6             	mov    %r14d,%esi
    9def:	89 c7                	mov    %eax,%edi
    9df1:	e8 97 ee ff ff       	callq  8c8d <safe_rshift_func_uint8_t_u_s>
    9df6:	89 c2                	mov    %eax,%edx
    9df8:	48 8b 05 c1 33 01 00 	mov    0x133c1(%rip),%rax        # 1d1c0 <g_2486>
    9dff:	48 8b 00             	mov    (%rax),%rax
    9e02:	0f b6 d2             	movzbl %dl,%edx
    9e05:	89 10                	mov    %edx,(%rax)
    9e07:	48 8b 85 b8 f3 ff ff 	mov    -0xc48(%rbp),%rax
    9e0e:	98                   	cwtl   
    9e0f:	be 09 00 00 00       	mov    $0x9,%esi
    9e14:	89 c7                	mov    %eax,%edi
    9e16:	e8 0f e7 ff ff       	callq  852a <safe_rshift_func_int16_t_s_s>
    9e1b:	98                   	cwtl   
    9e1c:	0b 85 b0 f2 ff ff    	or     -0xd50(%rbp),%eax
    9e22:	8b b5 b4 f2 ff ff    	mov    -0xd4c(%rbp),%esi
    9e28:	89 c7                	mov    %eax,%edi
    9e2a:	e8 89 f0 ff ff       	callq  8eb8 <safe_add_func_uint32_t_u_u>
    9e2f:	0f be c0             	movsbl %al,%eax
    9e32:	44 89 ee             	mov    %r13d,%esi
    9e35:	89 c7                	mov    %eax,%edi
    9e37:	e8 b6 e3 ff ff       	callq  81f2 <safe_sub_func_int8_t_s_s>
    9e3c:	0f be c0             	movsbl %al,%eax
    9e3f:	0b 85 40 f3 ff ff    	or     -0xcc0(%rbp),%eax
    9e45:	48 98                	cltq   
    9e47:	48 39 85 f8 f3 ff ff 	cmp    %rax,-0xc08(%rbp)
    9e4e:	0f 94 c0             	sete   %al
    9e51:	0f b6 d0             	movzbl %al,%edx
    9e54:	8b 85 b0 f5 ff ff    	mov    -0xa50(%rbp),%eax
    9e5a:	21 d0                	and    %edx,%eax
    9e5c:	89 85 b0 f5 ff ff    	mov    %eax,-0xa50(%rbp)
    9e62:	be 01 00 00 00       	mov    $0x1,%esi
    9e67:	bf 00 00 00 00       	mov    $0x0,%edi
    9e6c:	e8 4d ee ff ff       	callq  8cbe <safe_rshift_func_uint8_t_u_u>
    9e71:	0f b6 d0             	movzbl %al,%edx
    9e74:	48 8b 85 b8 f3 ff ff 	mov    -0xc48(%rbp),%rax
    9e7b:	48 39 c2             	cmp    %rax,%rdx
    9e7e:	0f 94 c0             	sete   %al
    9e81:	0f b6 c0             	movzbl %al,%eax
    9e84:	4c 89 e6             	mov    %r12,%rsi
    9e87:	48 89 c7             	mov    %rax,%rdi
    9e8a:	e8 20 f2 ff ff       	callq  90af <safe_div_func_uint64_t_u_u>
    9e8f:	0f be c0             	movsbl %al,%eax
    9e92:	89 de                	mov    %ebx,%esi
    9e94:	89 c7                	mov    %eax,%edi
    9e96:	e8 06 e4 ff ff       	callq  82a1 <safe_lshift_func_int8_t_s_s>
    9e9b:	0f be d0             	movsbl %al,%edx
    9e9e:	48 8b 85 b8 f2 ff ff 	mov    -0xd48(%rbp),%rax
    9ea5:	8b 00                	mov    (%rax),%eax
    9ea7:	39 c2                	cmp    %eax,%edx
    9ea9:	7e 0c                	jle    9eb7 <func_16+0x612>
    9eab:	48 8b 85 b8 f3 ff ff 	mov    -0xc48(%rbp),%rax
    9eb2:	48 85 c0             	test   %rax,%rax
    9eb5:	74 07                	je     9ebe <func_16+0x619>
    9eb7:	b9 01 00 00 00       	mov    $0x1,%ecx
    9ebc:	eb 05                	jmp    9ec3 <func_16+0x61e>
    9ebe:	b9 00 00 00 00       	mov    $0x0,%ecx
    9ec3:	48 8b 05 ee 32 01 00 	mov    0x132ee(%rip),%rax        # 1d1b8 <g_2338>
    9eca:	8b 10                	mov    (%rax),%edx
    9ecc:	21 ca                	and    %ecx,%edx
    9ece:	89 10                	mov    %edx,(%rax)
    9ed0:	eb 20                	jmp    9ef2 <func_16+0x64d>
    9ed2:	0f b7 85 22 f5 ff ff 	movzwl -0xade(%rbp),%eax
    9ed9:	98                   	cwtl   
    9eda:	be 0c 00 00 00       	mov    $0xc,%esi
    9edf:	89 c7                	mov    %eax,%edi
    9ee1:	e8 44 e6 ff ff       	callq  852a <safe_rshift_func_int16_t_s_s>
    9ee6:	0f bf d0             	movswl %ax,%edx
    9ee9:	48 8b 85 b8 f2 ff ff 	mov    -0xd48(%rbp),%rax
    9ef0:	89 10                	mov    %edx,(%rax)
    9ef2:	48 c7 85 b8 f3 ff ff 	movq   $0xffffffffffffffeb,-0xc48(%rbp)
    9ef9:	eb ff ff ff 
    9efd:	90                   	nop
    9efe:	48 8b 85 b8 f3 ff ff 	mov    -0xc48(%rbp),%rax
    9f05:	48 83 f8 f3          	cmp    $0xfffffffffffffff3,%rax
    9f09:	0f 84 ac 00 00 00    	je     9fbb <func_16+0x716>
    9f0f:	c7 85 ac f3 ff ff 69 	movl   $0x322f269,-0xc54(%rbp)
    9f16:	f2 22 03 
    9f19:	c7 85 e4 f2 ff ff 00 	movl   $0x0,-0xd1c(%rbp)
    9f20:	00 00 00 
    9f23:	eb 7b                	jmp    9fa0 <func_16+0x6fb>
    9f25:	c6 85 d1 f2 ff ff 04 	movb   $0x4,-0xd2f(%rbp)
    9f2c:	48 c7 05 81 f3 00 00 	movq   $0x0,0xf381(%rip)        # 192b8 <g_570>
    9f33:	00 00 00 00 
    9f37:	eb 12                	jmp    9f4b <func_16+0x6a6>
    9f39:	48 8b 05 78 f3 00 00 	mov    0xf378(%rip),%rax        # 192b8 <g_570>
    9f40:	48 83 c0 01          	add    $0x1,%rax
    9f44:	48 89 05 6d f3 00 00 	mov    %rax,0xf36d(%rip)        # 192b8 <g_570>
    9f4b:	48 8b 05 66 f3 00 00 	mov    0xf366(%rip),%rax        # 192b8 <g_570>
    9f52:	48 83 f8 03          	cmp    $0x3,%rax
    9f56:	76 e1                	jbe    9f39 <func_16+0x694>
    9f58:	c6 05 53 f3 00 00 e3 	movb   $0xe3,0xf353(%rip)        # 192b2 <g_403>
    9f5f:	eb 1c                	jmp    9f7d <func_16+0x6d8>
    9f61:	0f b6 05 4a f3 00 00 	movzbl 0xf34a(%rip),%eax        # 192b2 <g_403>
    9f68:	0f be c0             	movsbl %al,%eax
    9f6b:	be 01 00 00 00       	mov    $0x1,%esi
    9f70:	89 c7                	mov    %eax,%edi
    9f72:	e8 5d e2 ff ff       	callq  81d4 <safe_add_func_int8_t_s_s>
    9f77:	88 05 35 f3 00 00    	mov    %al,0xf335(%rip)        # 192b2 <g_403>
    9f7d:	0f b6 05 2e f3 00 00 	movzbl 0xf32e(%rip),%eax        # 192b2 <g_403>
    9f84:	3c 20                	cmp    $0x20,%al
    9f86:	77 d9                	ja     9f61 <func_16+0x6bc>
    9f88:	8b 85 e4 f2 ff ff    	mov    -0xd1c(%rbp),%eax
    9f8e:	be 04 00 00 00       	mov    $0x4,%esi
    9f93:	89 c7                	mov    %eax,%edi
    9f95:	e8 1c e6 ff ff       	callq  85b6 <safe_add_func_int32_t_s_s>
    9f9a:	89 85 e4 f2 ff ff    	mov    %eax,-0xd1c(%rbp)
    9fa0:	8b 85 e4 f2 ff ff    	mov    -0xd1c(%rbp),%eax
    9fa6:	83 f8 11             	cmp    $0x11,%eax
    9fa9:	0f 84 76 ff ff ff    	je     9f25 <func_16+0x680>
    9faf:	0f b7 85 22 f5 ff ff 	movzwl -0xade(%rbp),%eax
    9fb6:	e9 d9 24 00 00       	jmpq   c494 <func_16+0x2bef>
    9fbb:	c6 05 7e fe 00 00 00 	movb   $0x0,0xfe7e(%rip)        # 19e40 <g_2842>
    9fc2:	e9 ae 24 00 00       	jmpq   c475 <func_16+0x2bd0>
    9fc7:	48 8d 05 82 3b 01 00 	lea    0x13b82(%rip),%rax        # 1db50 <g_2848+0x30>
    9fce:	48 89 85 40 f4 ff ff 	mov    %rax,-0xbc0(%rbp)
    9fd5:	c7 85 04 f3 ff ff fd 	movl   $0xfffffffd,-0xcfc(%rbp)
    9fdc:	ff ff ff 
    9fdf:	c7 85 e8 f2 ff ff 00 	movl   $0x0,-0xd18(%rbp)
    9fe6:	00 00 00 
    9fe9:	c7 85 44 f3 ff ff f6 	movl   $0xfffffff6,-0xcbc(%rbp)
    9ff0:	ff ff ff 
    9ff3:	c7 85 ec f2 ff ff f8 	movl   $0xfffffff8,-0xd14(%rbp)
    9ffa:	ff ff ff 
    9ffd:	c7 85 f0 f2 ff ff 14 	movl   $0xe314b214,-0xd10(%rbp)
    a004:	b2 14 e3 
    a007:	c7 85 48 f3 ff ff 4b 	movl   $0x61a9294b,-0xcb8(%rbp)
    a00e:	29 a9 61 
    a011:	c7 85 08 f3 ff ff 00 	movl   $0x0,-0xcf8(%rbp)
    a018:	00 00 00 
    a01b:	c7 85 f4 f2 ff ff 35 	movl   $0xd3f85a35,-0xd0c(%rbp)
    a022:	5a f8 d3 
    a025:	c7 85 f8 f2 ff ff 02 	movl   $0x2,-0xd08(%rbp)
    a02c:	00 00 00 
    a02f:	c7 85 a0 f7 ff ff db 	movl   $0xdf399fdb,-0x860(%rbp)
    a036:	9f 39 df 
    a039:	c7 85 a4 f7 ff ff 01 	movl   $0x1,-0x85c(%rbp)
    a040:	00 00 00 
    a043:	c7 85 a8 f7 ff ff 01 	movl   $0x1,-0x858(%rbp)
    a04a:	00 00 00 
    a04d:	c7 85 ac f7 ff ff db 	movl   $0xdf399fdb,-0x854(%rbp)
    a054:	9f 39 df 
    a057:	c7 85 b0 f7 ff ff 01 	movl   $0x1,-0x850(%rbp)
    a05e:	00 00 00 
    a061:	c7 85 b4 f7 ff ff 00 	movl   $0x0,-0x84c(%rbp)
    a068:	00 00 00 
    a06b:	c7 85 b8 f7 ff ff 5d 	movl   $0x4bf9405d,-0x848(%rbp)
    a072:	40 f9 4b 
    a075:	c7 85 bc f7 ff ff 52 	movl   $0x142d0952,-0x844(%rbp)
    a07c:	09 2d 14 
    a07f:	c7 85 c0 f7 ff ff 5d 	movl   $0x4bf9405d,-0x840(%rbp)
    a086:	40 f9 4b 
    a089:	c7 85 c4 f7 ff ff 00 	movl   $0x0,-0x83c(%rbp)
    a090:	00 00 00 
    a093:	c7 85 c8 f7 ff ff 01 	movl   $0x1,-0x838(%rbp)
    a09a:	00 00 00 
    a09d:	c7 85 cc f7 ff ff db 	movl   $0xdf399fdb,-0x834(%rbp)
    a0a4:	9f 39 df 
    a0a7:	c7 85 d0 f7 ff ff 01 	movl   $0x1,-0x830(%rbp)
    a0ae:	00 00 00 
    a0b1:	c7 85 d4 f7 ff ff 01 	movl   $0x1,-0x82c(%rbp)
    a0b8:	00 00 00 
    a0bb:	c7 85 d8 f7 ff ff db 	movl   $0xdf399fdb,-0x828(%rbp)
    a0c2:	9f 39 df 
    a0c5:	c7 85 dc f7 ff ff 00 	movl   $0x0,-0x824(%rbp)
    a0cc:	00 00 00 
    a0cf:	c7 85 e0 f7 ff ff fd 	movl   $0xfffffffd,-0x820(%rbp)
    a0d6:	ff ff ff 
    a0d9:	c7 85 e4 f7 ff ff fd 	movl   $0xfffffffd,-0x81c(%rbp)
    a0e0:	ff ff ff 
    a0e3:	c7 85 e8 f7 ff ff 5d 	movl   $0x4bf9405d,-0x818(%rbp)
    a0ea:	40 f9 4b 
    a0ed:	c7 85 ec f7 ff ff fd 	movl   $0xfffffffd,-0x814(%rbp)
    a0f4:	ff ff ff 
    a0f7:	c7 85 f0 f7 ff ff db 	movl   $0xdf399fdb,-0x810(%rbp)
    a0fe:	9f 39 df 
    a101:	c7 85 f4 f7 ff ff db 	movl   $0xdf399fdb,-0x80c(%rbp)
    a108:	9f 39 df 
    a10b:	c7 85 f8 f7 ff ff c3 	movl   $0x5c62fdc3,-0x808(%rbp)
    a112:	fd 62 5c 
    a115:	c7 85 fc f7 ff ff db 	movl   $0xdf399fdb,-0x804(%rbp)
    a11c:	9f 39 df 
    a11f:	c7 85 00 f8 ff ff db 	movl   $0xdf399fdb,-0x800(%rbp)
    a126:	9f 39 df 
    a129:	c7 85 04 f8 ff ff fd 	movl   $0xfffffffd,-0x7fc(%rbp)
    a130:	ff ff ff 
    a133:	c7 85 08 f8 ff ff 5d 	movl   $0x4bf9405d,-0x7f8(%rbp)
    a13a:	40 f9 4b 
    a13d:	c7 85 0c f8 ff ff fd 	movl   $0xfffffffd,-0x7f4(%rbp)
    a144:	ff ff ff 
    a147:	c7 85 10 f8 ff ff fd 	movl   $0xfffffffd,-0x7f0(%rbp)
    a14e:	ff ff ff 
    a151:	c7 85 14 f8 ff ff 00 	movl   $0x0,-0x7ec(%rbp)
    a158:	00 00 00 
    a15b:	c7 85 18 f8 ff ff db 	movl   $0xdf399fdb,-0x7e8(%rbp)
    a162:	9f 39 df 
    a165:	c7 85 1c f8 ff ff 01 	movl   $0x1,-0x7e4(%rbp)
    a16c:	00 00 00 
    a16f:	c7 85 20 f8 ff ff 01 	movl   $0x1,-0x7e0(%rbp)
    a176:	00 00 00 
    a179:	c7 85 24 f8 ff ff db 	movl   $0xdf399fdb,-0x7dc(%rbp)
    a180:	9f 39 df 
    a183:	c7 85 28 f8 ff ff 01 	movl   $0x1,-0x7d8(%rbp)
    a18a:	00 00 00 
    a18d:	c7 85 2c f8 ff ff 00 	movl   $0x0,-0x7d4(%rbp)
    a194:	00 00 00 
    a197:	c7 85 30 f8 ff ff 5d 	movl   $0x4bf9405d,-0x7d0(%rbp)
    a19e:	40 f9 4b 
    a1a1:	c7 85 34 f8 ff ff 52 	movl   $0x142d0952,-0x7cc(%rbp)
    a1a8:	09 2d 14 
    a1ab:	c7 85 38 f8 ff ff 5d 	movl   $0x4bf9405d,-0x7c8(%rbp)
    a1b2:	40 f9 4b 
    a1b5:	c7 85 3c f8 ff ff 00 	movl   $0x0,-0x7c4(%rbp)
    a1bc:	00 00 00 
    a1bf:	c7 85 40 f8 ff ff 01 	movl   $0x1,-0x7c0(%rbp)
    a1c6:	00 00 00 
    a1c9:	c7 85 44 f8 ff ff db 	movl   $0xdf399fdb,-0x7bc(%rbp)
    a1d0:	9f 39 df 
    a1d3:	c7 85 48 f8 ff ff 01 	movl   $0x1,-0x7b8(%rbp)
    a1da:	00 00 00 
    a1dd:	c7 85 4c f8 ff ff 01 	movl   $0x1,-0x7b4(%rbp)
    a1e4:	00 00 00 
    a1e7:	c7 85 50 f8 ff ff db 	movl   $0xdf399fdb,-0x7b0(%rbp)
    a1ee:	9f 39 df 
    a1f1:	c7 85 54 f8 ff ff 00 	movl   $0x0,-0x7ac(%rbp)
    a1f8:	00 00 00 
    a1fb:	c7 85 58 f8 ff ff fd 	movl   $0xfffffffd,-0x7a8(%rbp)
    a202:	ff ff ff 
    a205:	c7 85 5c f8 ff ff fd 	movl   $0xfffffffd,-0x7a4(%rbp)
    a20c:	ff ff ff 
    a20f:	c7 85 60 f8 ff ff 5d 	movl   $0x4bf9405d,-0x7a0(%rbp)
    a216:	40 f9 4b 
    a219:	c7 85 64 f8 ff ff fd 	movl   $0xfffffffd,-0x79c(%rbp)
    a220:	ff ff ff 
    a223:	48 8d 05 be 20 01 00 	lea    0x120be(%rip),%rax        # 1c2e8 <g_1560+0x8>
    a22a:	48 89 85 48 f4 ff ff 	mov    %rax,-0xbb8(%rbp)
    a231:	66 c7 85 d6 f2 ff ff 	movw   $0x6,-0xd2a(%rbp)
    a238:	06 00 
    a23a:	48 8d 05 8f ef 00 00 	lea    0xef8f(%rip),%rax        # 191d0 <g_95+0x10>
    a241:	48 89 85 50 f4 ff ff 	mov    %rax,-0xbb0(%rbp)
    a248:	48 b8 98 94 50 38 ad 	movabs $0xc20befad38509498,%rax
    a24f:	ef 0b c2 
    a252:	48 89 85 58 f4 ff ff 	mov    %rax,-0xba8(%rbp)
    a259:	48 8d 05 80 38 01 00 	lea    0x13880(%rip),%rax        # 1dae0 <g_1665>
    a260:	48 89 85 c8 f3 ff ff 	mov    %rax,-0xc38(%rbp)
    a267:	48 8d 85 f8 f2 ff ff 	lea    -0xd08(%rbp),%rax
    a26e:	48 89 85 e0 f6 ff ff 	mov    %rax,-0x920(%rbp)
    a275:	48 c7 85 e8 f6 ff ff 	movq   $0x0,-0x918(%rbp)
    a27c:	00 00 00 00 
    a280:	48 8d 85 f8 f2 ff ff 	lea    -0xd08(%rbp),%rax
    a287:	48 89 85 f0 f6 ff ff 	mov    %rax,-0x910(%rbp)
    a28e:	48 8d 85 ec f2 ff ff 	lea    -0xd14(%rbp),%rax
    a295:	48 89 85 f8 f6 ff ff 	mov    %rax,-0x908(%rbp)
    a29c:	48 8d 85 f4 f2 ff ff 	lea    -0xd0c(%rbp),%rax
    a2a3:	48 89 85 00 f7 ff ff 	mov    %rax,-0x900(%rbp)
    a2aa:	48 8d 85 f0 f2 ff ff 	lea    -0xd10(%rbp),%rax
    a2b1:	48 89 85 08 f7 ff ff 	mov    %rax,-0x8f8(%rbp)
    a2b8:	48 8d 85 ec f2 ff ff 	lea    -0xd14(%rbp),%rax
    a2bf:	48 89 85 10 f7 ff ff 	mov    %rax,-0x8f0(%rbp)
    a2c6:	48 8d 85 ec f2 ff ff 	lea    -0xd14(%rbp),%rax
    a2cd:	48 89 85 18 f7 ff ff 	mov    %rax,-0x8e8(%rbp)
    a2d4:	48 8d 85 f4 f2 ff ff 	lea    -0xd0c(%rbp),%rax
    a2db:	48 89 85 20 f7 ff ff 	mov    %rax,-0x8e0(%rbp)
    a2e2:	48 8d 85 f8 f2 ff ff 	lea    -0xd08(%rbp),%rax
    a2e9:	48 89 85 28 f7 ff ff 	mov    %rax,-0x8d8(%rbp)
    a2f0:	48 8d 85 f4 f2 ff ff 	lea    -0xd0c(%rbp),%rax
    a2f7:	48 89 85 30 f7 ff ff 	mov    %rax,-0x8d0(%rbp)
    a2fe:	48 8d 85 f4 f2 ff ff 	lea    -0xd0c(%rbp),%rax
    a305:	48 89 85 38 f7 ff ff 	mov    %rax,-0x8c8(%rbp)
    a30c:	48 8d 85 f4 f2 ff ff 	lea    -0xd0c(%rbp),%rax
    a313:	48 89 85 40 f7 ff ff 	mov    %rax,-0x8c0(%rbp)
    a31a:	48 c7 85 48 f7 ff ff 	movq   $0x0,-0x8b8(%rbp)
    a321:	00 00 00 00 
    a325:	48 8d 85 f0 f2 ff ff 	lea    -0xd10(%rbp),%rax
    a32c:	48 89 85 50 f7 ff ff 	mov    %rax,-0x8b0(%rbp)
    a333:	48 8d 85 f8 f2 ff ff 	lea    -0xd08(%rbp),%rax
    a33a:	48 89 85 58 f7 ff ff 	mov    %rax,-0x8a8(%rbp)
    a341:	48 c7 85 60 f7 ff ff 	movq   $0x0,-0x8a0(%rbp)
    a348:	00 00 00 00 
    a34c:	48 8d 85 f8 f2 ff ff 	lea    -0xd08(%rbp),%rax
    a353:	48 89 85 68 f7 ff ff 	mov    %rax,-0x898(%rbp)
    a35a:	48 8d 85 ec f2 ff ff 	lea    -0xd14(%rbp),%rax
    a361:	48 89 85 70 f7 ff ff 	mov    %rax,-0x890(%rbp)
    a368:	48 8d 85 f4 f2 ff ff 	lea    -0xd0c(%rbp),%rax
    a36f:	48 89 85 78 f7 ff ff 	mov    %rax,-0x888(%rbp)
    a376:	48 8d 85 f0 f2 ff ff 	lea    -0xd10(%rbp),%rax
    a37d:	48 89 85 80 f7 ff ff 	mov    %rax,-0x880(%rbp)
    a384:	48 8d 85 ec f2 ff ff 	lea    -0xd14(%rbp),%rax
    a38b:	48 89 85 88 f7 ff ff 	mov    %rax,-0x878(%rbp)
    a392:	48 8d 85 ec f2 ff ff 	lea    -0xd14(%rbp),%rax
    a399:	48 89 85 90 f7 ff ff 	mov    %rax,-0x870(%rbp)
    a3a0:	48 8d 85 f4 f2 ff ff 	lea    -0xd0c(%rbp),%rax
    a3a7:	48 89 85 98 f7 ff ff 	mov    %rax,-0x868(%rbp)
    a3ae:	48 8d 05 bf f0 00 00 	lea    0xf0bf(%rip),%rax        # 19474 <g_1479>
    a3b5:	48 89 85 d0 f3 ff ff 	mov    %rax,-0xc30(%rbp)
    a3bc:	48 8d 85 d0 f3 ff ff 	lea    -0xc30(%rbp),%rax
    a3c3:	48 89 85 60 f4 ff ff 	mov    %rax,-0xba0(%rbp)
    a3ca:	c7 85 0c f3 ff ff 00 	movl   $0x0,-0xcf4(%rbp)
    a3d1:	00 00 00 
    a3d4:	eb 1b                	jmp    a3f1 <func_16+0xb4c>
    a3d6:	8b 85 0c f3 ff ff    	mov    -0xcf4(%rbp),%eax
    a3dc:	48 98                	cltq   
    a3de:	48 c7 84 c5 30 f5 ff 	movq   $0x0,-0xad0(%rbp,%rax,8)
    a3e5:	ff 00 00 00 00 
    a3ea:	83 85 0c f3 ff ff 01 	addl   $0x1,-0xcf4(%rbp)
    a3f1:	83 bd 0c f3 ff ff 01 	cmpl   $0x1,-0xcf4(%rbp)
    a3f8:	7e dc                	jle    a3d6 <func_16+0xb31>
    a3fa:	0f b6 05 3f fa 00 00 	movzbl 0xfa3f(%rip),%eax        # 19e40 <g_2842>
    a401:	0f b6 c0             	movzbl %al,%eax
    a404:	48 98                	cltq   
    a406:	0f b7 84 45 1c f5 ff 	movzwl -0xae4(%rbp,%rax,2),%eax
    a40d:	ff 
    a40e:	83 f0 01             	xor    $0x1,%eax
    a411:	0f bf c8             	movswl %ax,%ecx
    a414:	48 8b 05 a5 1e 01 00 	mov    0x11ea5(%rip),%rax        # 1c2c0 <g_1266>
    a41b:	8b 10                	mov    (%rax),%edx
    a41d:	48 8b 05 9c 1e 01 00 	mov    0x11e9c(%rip),%rax        # 1c2c0 <g_1266>
    a424:	21 ca                	and    %ecx,%edx
    a426:	89 10                	mov    %edx,(%rax)
    a428:	0f b6 05 11 fa 00 00 	movzbl 0xfa11(%rip),%eax        # 19e40 <g_2842>
    a42f:	0f b6 c0             	movzbl %al,%eax
    a432:	48 98                	cltq   
    a434:	0f b7 84 45 1c f5 ff 	movzwl -0xae4(%rbp,%rax,2),%eax
    a43b:	ff 
    a43c:	48 0f bf c0          	movswq %ax,%rax
    a440:	48 39 85 f8 f3 ff ff 	cmp    %rax,-0xc08(%rbp)
    a447:	0f 94 c0             	sete   %al
    a44a:	0f b6 c0             	movzbl %al,%eax
    a44d:	be ff ff 00 00       	mov    $0xffff,%esi
    a452:	89 c7                	mov    %eax,%edi
    a454:	e8 e4 e8 ff ff       	callq  8d3d <safe_mul_func_uint16_t_u_u>
    a459:	b9 01 00 00 00       	mov    $0x1,%ecx
    a45e:	0f b6 05 db f9 00 00 	movzbl 0xf9db(%rip),%eax        # 19e40 <g_2842>
    a465:	0f b6 c0             	movzbl %al,%eax
    a468:	48 98                	cltq   
    a46a:	0f b7 84 45 1c f5 ff 	movzwl -0xae4(%rbp,%rax,2),%eax
    a471:	ff 
    a472:	89 c6                	mov    %eax,%esi
    a474:	48 8b 05 45 2d 01 00 	mov    0x12d45(%rip),%rax        # 1d1c0 <g_2486>
    a47b:	48 8b 00             	mov    (%rax),%rax
    a47e:	8b 10                	mov    (%rax),%edx
    a480:	48 8b 05 39 2d 01 00 	mov    0x12d39(%rip),%rax        # 1d1c0 <g_2486>
    a487:	48 8b 00             	mov    (%rax),%rax
    a48a:	09 ca                	or     %ecx,%edx
    a48c:	89 10                	mov    %edx,(%rax)
    a48e:	8b 00                	mov    (%rax),%eax
    a490:	89 c0                	mov    %eax,%eax
    a492:	48 39 85 e8 f3 ff ff 	cmp    %rax,-0xc18(%rbp)
    a499:	0f 95 c0             	setne  %al
    a49c:	09 c6                	or     %eax,%esi
    a49e:	89 f2                	mov    %esi,%edx
    a4a0:	48 8b 85 c0 f3 ff ff 	mov    -0xc40(%rbp),%rax
    a4a7:	88 10                	mov    %dl,(%rax)
    a4a9:	0f b6 00             	movzbl (%rax),%eax
    a4ac:	84 c0                	test   %al,%al
    a4ae:	75 17                	jne    a4c7 <func_16+0xc22>
    a4b0:	0f b6 05 89 f9 00 00 	movzbl 0xf989(%rip),%eax        # 19e40 <g_2842>
    a4b7:	0f b6 c0             	movzbl %al,%eax
    a4ba:	48 98                	cltq   
    a4bc:	0f b7 84 45 1c f5 ff 	movzwl -0xae4(%rbp,%rax,2),%eax
    a4c3:	ff 
    a4c4:	66 85 c0             	test   %ax,%ax
    a4c7:	48 8b 05 32 1b 01 00 	mov    0x11b32(%rip),%rax        # 1c000 <g_200>
    a4ce:	0f b7 00             	movzwl (%rax),%eax
    a4d1:	0f b7 d0             	movzwl %ax,%edx
    a4d4:	0f b6 05 65 f9 00 00 	movzbl 0xf965(%rip),%eax        # 19e40 <g_2842>
    a4db:	0f b6 c0             	movzbl %al,%eax
    a4de:	48 98                	cltq   
    a4e0:	0f b7 84 45 1c f5 ff 	movzwl -0xae4(%rbp,%rax,2),%eax
    a4e7:	ff 
    a4e8:	0f b7 c0             	movzwl %ax,%eax
    a4eb:	89 d6                	mov    %edx,%esi
    a4ed:	89 c7                	mov    %eax,%edi
    a4ef:	e8 49 e8 ff ff       	callq  8d3d <safe_mul_func_uint16_t_u_u>
    a4f4:	0f b7 d0             	movzwl %ax,%edx
    a4f7:	48 8b 85 b8 f2 ff ff 	mov    -0xd48(%rbp),%rax
    a4fe:	8b 00                	mov    (%rax),%eax
    a500:	39 c2                	cmp    %eax,%edx
    a502:	0f 8f c5 1c 00 00    	jg     c1cd <func_16+0x2928>
    a508:	c7 85 50 f3 ff ff 06 	movl   $0x6,-0xcb0(%rbp)
    a50f:	00 00 00 
    a512:	48 c7 85 78 f4 ff ff 	movq   $0x0,-0xb88(%rbp)
    a519:	00 00 00 00 
    a51d:	48 8d 85 b0 f3 ff ff 	lea    -0xc50(%rbp),%rax
    a524:	48 89 85 60 f9 ff ff 	mov    %rax,-0x6a0(%rbp)
    a52b:	48 8d 85 b0 f3 ff ff 	lea    -0xc50(%rbp),%rax
    a532:	48 89 85 68 f9 ff ff 	mov    %rax,-0x698(%rbp)
    a539:	48 8d 85 b0 f3 ff ff 	lea    -0xc50(%rbp),%rax
    a540:	48 89 85 70 f9 ff ff 	mov    %rax,-0x690(%rbp)
    a547:	48 8d 85 b0 f3 ff ff 	lea    -0xc50(%rbp),%rax
    a54e:	48 89 85 78 f9 ff ff 	mov    %rax,-0x688(%rbp)
    a555:	48 8d 85 b0 f3 ff ff 	lea    -0xc50(%rbp),%rax
    a55c:	48 89 85 80 f9 ff ff 	mov    %rax,-0x680(%rbp)
    a563:	48 8d 85 b0 f3 ff ff 	lea    -0xc50(%rbp),%rax
    a56a:	48 89 85 88 f9 ff ff 	mov    %rax,-0x678(%rbp)
    a571:	48 8d 85 b0 f3 ff ff 	lea    -0xc50(%rbp),%rax
    a578:	48 89 85 90 f9 ff ff 	mov    %rax,-0x670(%rbp)
    a57f:	48 8d 85 b0 f3 ff ff 	lea    -0xc50(%rbp),%rax
    a586:	48 89 85 98 f9 ff ff 	mov    %rax,-0x668(%rbp)
    a58d:	48 8d 85 b0 f3 ff ff 	lea    -0xc50(%rbp),%rax
    a594:	48 89 85 a0 f9 ff ff 	mov    %rax,-0x660(%rbp)
    a59b:	48 8d 85 b0 f3 ff ff 	lea    -0xc50(%rbp),%rax
    a5a2:	48 89 85 a8 f9 ff ff 	mov    %rax,-0x658(%rbp)
    a5a9:	48 8d 85 b0 f3 ff ff 	lea    -0xc50(%rbp),%rax
    a5b0:	48 89 85 b0 f9 ff ff 	mov    %rax,-0x650(%rbp)
    a5b7:	48 8d 85 b0 f3 ff ff 	lea    -0xc50(%rbp),%rax
    a5be:	48 89 85 b8 f9 ff ff 	mov    %rax,-0x648(%rbp)
    a5c5:	48 8d 85 b0 f3 ff ff 	lea    -0xc50(%rbp),%rax
    a5cc:	48 89 85 c0 f9 ff ff 	mov    %rax,-0x640(%rbp)
    a5d3:	48 8d 85 b0 f3 ff ff 	lea    -0xc50(%rbp),%rax
    a5da:	48 89 85 c8 f9 ff ff 	mov    %rax,-0x638(%rbp)
    a5e1:	48 8d 85 b0 f3 ff ff 	lea    -0xc50(%rbp),%rax
    a5e8:	48 89 85 d0 f9 ff ff 	mov    %rax,-0x630(%rbp)
    a5ef:	48 8d 85 b0 f3 ff ff 	lea    -0xc50(%rbp),%rax
    a5f6:	48 89 85 d8 f9 ff ff 	mov    %rax,-0x628(%rbp)
    a5fd:	48 8d 85 b0 f3 ff ff 	lea    -0xc50(%rbp),%rax
    a604:	48 89 85 e0 f9 ff ff 	mov    %rax,-0x620(%rbp)
    a60b:	48 8d 85 b0 f3 ff ff 	lea    -0xc50(%rbp),%rax
    a612:	48 89 85 e8 f9 ff ff 	mov    %rax,-0x618(%rbp)
    a619:	48 8d 85 b0 f3 ff ff 	lea    -0xc50(%rbp),%rax
    a620:	48 89 85 f0 f9 ff ff 	mov    %rax,-0x610(%rbp)
    a627:	48 8d 85 b0 f3 ff ff 	lea    -0xc50(%rbp),%rax
    a62e:	48 89 85 f8 f9 ff ff 	mov    %rax,-0x608(%rbp)
    a635:	48 8d 85 b0 f3 ff ff 	lea    -0xc50(%rbp),%rax
    a63c:	48 89 85 00 fa ff ff 	mov    %rax,-0x600(%rbp)
    a643:	48 8d 85 b0 f3 ff ff 	lea    -0xc50(%rbp),%rax
    a64a:	48 89 85 08 fa ff ff 	mov    %rax,-0x5f8(%rbp)
    a651:	48 8d 85 b0 f3 ff ff 	lea    -0xc50(%rbp),%rax
    a658:	48 89 85 10 fa ff ff 	mov    %rax,-0x5f0(%rbp)
    a65f:	48 8d 85 b0 f3 ff ff 	lea    -0xc50(%rbp),%rax
    a666:	48 89 85 18 fa ff ff 	mov    %rax,-0x5e8(%rbp)
    a66d:	48 8d 85 b0 f3 ff ff 	lea    -0xc50(%rbp),%rax
    a674:	48 89 85 20 fa ff ff 	mov    %rax,-0x5e0(%rbp)
    a67b:	48 8d 85 b0 f3 ff ff 	lea    -0xc50(%rbp),%rax
    a682:	48 89 85 28 fa ff ff 	mov    %rax,-0x5d8(%rbp)
    a689:	48 8d 85 b0 f3 ff ff 	lea    -0xc50(%rbp),%rax
    a690:	48 89 85 30 fa ff ff 	mov    %rax,-0x5d0(%rbp)
    a697:	48 8d 85 b0 f3 ff ff 	lea    -0xc50(%rbp),%rax
    a69e:	48 89 85 38 fa ff ff 	mov    %rax,-0x5c8(%rbp)
    a6a5:	48 8d 85 b0 f3 ff ff 	lea    -0xc50(%rbp),%rax
    a6ac:	48 89 85 40 fa ff ff 	mov    %rax,-0x5c0(%rbp)
    a6b3:	48 8d 85 b0 f3 ff ff 	lea    -0xc50(%rbp),%rax
    a6ba:	48 89 85 48 fa ff ff 	mov    %rax,-0x5b8(%rbp)
    a6c1:	48 8d 85 b0 f3 ff ff 	lea    -0xc50(%rbp),%rax
    a6c8:	48 89 85 50 fa ff ff 	mov    %rax,-0x5b0(%rbp)
    a6cf:	48 8d 85 b0 f3 ff ff 	lea    -0xc50(%rbp),%rax
    a6d6:	48 89 85 58 fa ff ff 	mov    %rax,-0x5a8(%rbp)
    a6dd:	48 8d 85 b0 f3 ff ff 	lea    -0xc50(%rbp),%rax
    a6e4:	48 89 85 60 fa ff ff 	mov    %rax,-0x5a0(%rbp)
    a6eb:	48 8d 85 b0 f3 ff ff 	lea    -0xc50(%rbp),%rax
    a6f2:	48 89 85 68 fa ff ff 	mov    %rax,-0x598(%rbp)
    a6f9:	48 8d 85 b0 f3 ff ff 	lea    -0xc50(%rbp),%rax
    a700:	48 89 85 70 fa ff ff 	mov    %rax,-0x590(%rbp)
    a707:	48 8d 85 b0 f3 ff ff 	lea    -0xc50(%rbp),%rax
    a70e:	48 89 85 78 fa ff ff 	mov    %rax,-0x588(%rbp)
    a715:	48 8d 05 4c ed 00 00 	lea    0xed4c(%rip),%rax        # 19468 <g_1201>
    a71c:	48 89 85 80 f4 ff ff 	mov    %rax,-0xb80(%rbp)
    a723:	48 8d 05 36 ed 00 00 	lea    0xed36(%rip),%rax        # 19460 <g_1188>
    a72a:	48 89 85 a0 fb ff ff 	mov    %rax,-0x460(%rbp)
    a731:	48 8d 05 28 ed 00 00 	lea    0xed28(%rip),%rax        # 19460 <g_1188>
    a738:	48 89 85 a8 fb ff ff 	mov    %rax,-0x458(%rbp)
    a73f:	48 c7 85 b0 fb ff ff 	movq   $0x0,-0x450(%rbp)
    a746:	00 00 00 00 
    a74a:	48 8d 85 b8 f3 ff ff 	lea    -0xc48(%rbp),%rax
    a751:	48 89 85 b8 fb ff ff 	mov    %rax,-0x448(%rbp)
    a758:	48 c7 85 c0 fb ff ff 	movq   $0x0,-0x440(%rbp)
    a75f:	00 00 00 00 
    a763:	48 c7 85 c8 fb ff ff 	movq   $0x0,-0x438(%rbp)
    a76a:	00 00 00 00 
    a76e:	48 8d 85 b8 f3 ff ff 	lea    -0xc48(%rbp),%rax
    a775:	48 89 85 d0 fb ff ff 	mov    %rax,-0x430(%rbp)
    a77c:	48 8d 05 6d f4 00 00 	lea    0xf46d(%rip),%rax        # 19bf0 <g_2624+0x4b0>
    a783:	48 89 85 d8 fb ff ff 	mov    %rax,-0x428(%rbp)
    a78a:	48 8d 85 b8 f3 ff ff 	lea    -0xc48(%rbp),%rax
    a791:	48 89 85 e0 fb ff ff 	mov    %rax,-0x420(%rbp)
    a798:	48 8d 05 51 f4 00 00 	lea    0xf451(%rip),%rax        # 19bf0 <g_2624+0x4b0>
    a79f:	48 89 85 e8 fb ff ff 	mov    %rax,-0x418(%rbp)
    a7a6:	48 8d 05 b3 eb 00 00 	lea    0xebb3(%rip),%rax        # 19360 <g_949>
    a7ad:	48 89 85 f0 fb ff ff 	mov    %rax,-0x410(%rbp)
    a7b4:	48 8d 05 35 f4 00 00 	lea    0xf435(%rip),%rax        # 19bf0 <g_2624+0x4b0>
    a7bb:	48 89 85 f8 fb ff ff 	mov    %rax,-0x408(%rbp)
    a7c2:	48 8d 85 b8 f3 ff ff 	lea    -0xc48(%rbp),%rax
    a7c9:	48 89 85 00 fc ff ff 	mov    %rax,-0x400(%rbp)
    a7d0:	48 8d 05 19 f4 00 00 	lea    0xf419(%rip),%rax        # 19bf0 <g_2624+0x4b0>
    a7d7:	48 89 85 08 fc ff ff 	mov    %rax,-0x3f8(%rbp)
    a7de:	48 8d 05 7b ec 00 00 	lea    0xec7b(%rip),%rax        # 19460 <g_1188>
    a7e5:	48 89 85 10 fc ff ff 	mov    %rax,-0x3f0(%rbp)
    a7ec:	48 8d 85 b8 f3 ff ff 	lea    -0xc48(%rbp),%rax
    a7f3:	48 89 85 18 fc ff ff 	mov    %rax,-0x3e8(%rbp)
    a7fa:	48 8d 85 b8 f3 ff ff 	lea    -0xc48(%rbp),%rax
    a801:	48 89 85 20 fc ff ff 	mov    %rax,-0x3e0(%rbp)
    a808:	48 8d 05 51 ec 00 00 	lea    0xec51(%rip),%rax        # 19460 <g_1188>
    a80f:	48 89 85 28 fc ff ff 	mov    %rax,-0x3d8(%rbp)
    a816:	48 c7 85 30 fc ff ff 	movq   $0x0,-0x3d0(%rbp)
    a81d:	00 00 00 00 
    a821:	48 c7 85 38 fc ff ff 	movq   $0x0,-0x3c8(%rbp)
    a828:	00 00 00 00 
    a82c:	48 c7 85 40 fc ff ff 	movq   $0x0,-0x3c0(%rbp)
    a833:	00 00 00 00 
    a837:	48 c7 85 48 fc ff ff 	movq   $0x0,-0x3b8(%rbp)
    a83e:	00 00 00 00 
    a842:	48 8d 85 b8 f3 ff ff 	lea    -0xc48(%rbp),%rax
    a849:	48 89 85 50 fc ff ff 	mov    %rax,-0x3b0(%rbp)
    a850:	48 8d 05 09 e8 00 00 	lea    0xe809(%rip),%rax        # 19060 <g_75+0x20>
    a857:	48 89 85 58 fc ff ff 	mov    %rax,-0x3a8(%rbp)
    a85e:	48 8d 85 b8 f3 ff ff 	lea    -0xc48(%rbp),%rax
    a865:	48 89 85 60 fc ff ff 	mov    %rax,-0x3a0(%rbp)
    a86c:	48 c7 85 68 fc ff ff 	movq   $0x0,-0x398(%rbp)
    a873:	00 00 00 00 
    a877:	48 8d 85 b8 f3 ff ff 	lea    -0xc48(%rbp),%rax
    a87e:	48 89 85 70 fc ff ff 	mov    %rax,-0x390(%rbp)
    a885:	48 8d 05 d4 e7 00 00 	lea    0xe7d4(%rip),%rax        # 19060 <g_75+0x20>
    a88c:	48 89 85 78 fc ff ff 	mov    %rax,-0x388(%rbp)
    a893:	48 c7 85 80 fc ff ff 	movq   $0x0,-0x380(%rbp)
    a89a:	00 00 00 00 
    a89e:	48 8d 05 bb eb 00 00 	lea    0xebbb(%rip),%rax        # 19460 <g_1188>
    a8a5:	48 89 85 88 fc ff ff 	mov    %rax,-0x378(%rbp)
    a8ac:	48 8d 85 b8 f3 ff ff 	lea    -0xc48(%rbp),%rax
    a8b3:	48 89 85 90 fc ff ff 	mov    %rax,-0x370(%rbp)
    a8ba:	48 8d 85 b8 f3 ff ff 	lea    -0xc48(%rbp),%rax
    a8c1:	48 89 85 98 fc ff ff 	mov    %rax,-0x368(%rbp)
    a8c8:	48 8d 05 91 eb 00 00 	lea    0xeb91(%rip),%rax        # 19460 <g_1188>
    a8cf:	48 89 85 a0 fc ff ff 	mov    %rax,-0x360(%rbp)
    a8d6:	48 c7 85 a8 fc ff ff 	movq   $0x0,-0x358(%rbp)
    a8dd:	00 00 00 00 
    a8e1:	48 c7 85 b0 fc ff ff 	movq   $0x0,-0x350(%rbp)
    a8e8:	00 00 00 00 
    a8ec:	48 8d 05 fd f2 00 00 	lea    0xf2fd(%rip),%rax        # 19bf0 <g_2624+0x4b0>
    a8f3:	48 89 85 b8 fc ff ff 	mov    %rax,-0x348(%rbp)
    a8fa:	48 8d 05 5f ea 00 00 	lea    0xea5f(%rip),%rax        # 19360 <g_949>
    a901:	48 89 85 c0 fc ff ff 	mov    %rax,-0x340(%rbp)
    a908:	48 8d 05 e1 f2 00 00 	lea    0xf2e1(%rip),%rax        # 19bf0 <g_2624+0x4b0>
    a90f:	48 89 85 c8 fc ff ff 	mov    %rax,-0x338(%rbp)
    a916:	48 8d 85 b8 f3 ff ff 	lea    -0xc48(%rbp),%rax
    a91d:	48 89 85 d0 fc ff ff 	mov    %rax,-0x330(%rbp)
    a924:	48 8d 05 c5 f2 00 00 	lea    0xf2c5(%rip),%rax        # 19bf0 <g_2624+0x4b0>
    a92b:	48 89 85 d8 fc ff ff 	mov    %rax,-0x328(%rbp)
    a932:	48 8d 05 27 ea 00 00 	lea    0xea27(%rip),%rax        # 19360 <g_949>
    a939:	48 89 85 e0 fc ff ff 	mov    %rax,-0x320(%rbp)
    a940:	48 8d 05 a9 f2 00 00 	lea    0xf2a9(%rip),%rax        # 19bf0 <g_2624+0x4b0>
    a947:	48 89 85 e8 fc ff ff 	mov    %rax,-0x318(%rbp)
    a94e:	c7 85 fc f2 ff ff 29 	movl   $0xe7828a29,-0xd04(%rbp)
    a955:	8a 82 e7 
    a958:	c7 85 54 f3 ff ff ec 	movl   $0xbc278ec,-0xcac(%rbp)
    a95f:	78 c2 0b 
    a962:	48 8d 85 e8 f2 ff ff 	lea    -0xd18(%rbp),%rax
    a969:	48 89 85 88 f4 ff ff 	mov    %rax,-0xb78(%rbp)
    a970:	48 8d 05 45 ea 00 00 	lea    0xea45(%rip),%rax        # 193bc <g_984+0x3c>
    a977:	48 89 85 90 f4 ff ff 	mov    %rax,-0xb70(%rbp)
    a97e:	48 8d 05 9f ea 00 00 	lea    0xea9f(%rip),%rax        # 19424 <g_984+0xa4>
    a985:	48 89 85 98 f4 ff ff 	mov    %rax,-0xb68(%rbp)
    a98c:	48 c7 85 a0 f4 ff ff 	movq   $0x0,-0xb60(%rbp)
    a993:	00 00 00 00 
    a997:	48 8d 05 9a e6 00 00 	lea    0xe69a(%rip),%rax        # 19038 <g_73+0x8>
    a99e:	48 89 85 a8 f4 ff ff 	mov    %rax,-0xb58(%rbp)
    a9a5:	48 8d 05 10 ea 00 00 	lea    0xea10(%rip),%rax        # 193bc <g_984+0x3c>
    a9ac:	48 89 85 b0 f4 ff ff 	mov    %rax,-0xb50(%rbp)
    a9b3:	48 8d 85 e8 f2 ff ff 	lea    -0xd18(%rbp),%rax
    a9ba:	48 89 85 b8 f4 ff ff 	mov    %rax,-0xb48(%rbp)
    a9c1:	48 8d 05 b8 e7 00 00 	lea    0xe7b8(%rip),%rax        # 19180 <g_77+0x100>
    a9c8:	48 89 85 c0 f4 ff ff 	mov    %rax,-0xb40(%rbp)
    a9cf:	48 8d 05 a2 ec 00 00 	lea    0xeca2(%rip),%rax        # 19678 <g_2374>
    a9d6:	48 89 85 c8 f4 ff ff 	mov    %rax,-0xb38(%rbp)
    a9dd:	48 8d 85 fc f2 ff ff 	lea    -0xd04(%rbp),%rax
    a9e4:	48 89 85 d0 f4 ff ff 	mov    %rax,-0xb30(%rbp)
    a9eb:	48 8d 85 e4 f2 ff ff 	lea    -0xd1c(%rbp),%rax
    a9f2:	48 89 85 f0 fc ff ff 	mov    %rax,-0x310(%rbp)
    a9f9:	48 8d 85 e0 f2 ff ff 	lea    -0xd20(%rbp),%rax
    aa00:	48 89 85 f8 fc ff ff 	mov    %rax,-0x308(%rbp)
    aa07:	48 8d 05 3a 30 01 00 	lea    0x1303a(%rip),%rax        # 1da48 <g_3>
    aa0e:	48 89 85 00 fd ff ff 	mov    %rax,-0x300(%rbp)
    aa15:	48 8d 85 90 f5 ff ff 	lea    -0xa70(%rbp),%rax
    aa1c:	48 83 c0 20          	add    $0x20,%rax
    aa20:	48 89 85 08 fd ff ff 	mov    %rax,-0x2f8(%rbp)
    aa27:	48 8d 05 0a e6 00 00 	lea    0xe60a(%rip),%rax        # 19038 <g_73+0x8>
    aa2e:	48 89 85 10 fd ff ff 	mov    %rax,-0x2f0(%rbp)
    aa35:	48 8d 05 9c e9 00 00 	lea    0xe99c(%rip),%rax        # 193d8 <g_984+0x58>
    aa3c:	48 89 85 18 fd ff ff 	mov    %rax,-0x2e8(%rbp)
    aa43:	48 8d 05 fe 2f 01 00 	lea    0x12ffe(%rip),%rax        # 1da48 <g_3>
    aa4a:	48 89 85 20 fd ff ff 	mov    %rax,-0x2e0(%rbp)
    aa51:	48 8d 85 e4 f2 ff ff 	lea    -0xd1c(%rbp),%rax
    aa58:	48 89 85 28 fd ff ff 	mov    %rax,-0x2d8(%rbp)
    aa5f:	48 8d 05 e2 2f 01 00 	lea    0x12fe2(%rip),%rax        # 1da48 <g_3>
    aa66:	48 89 85 30 fd ff ff 	mov    %rax,-0x2d0(%rbp)
    aa6d:	48 8d 85 e0 f2 ff ff 	lea    -0xd20(%rbp),%rax
    aa74:	48 89 85 38 fd ff ff 	mov    %rax,-0x2c8(%rbp)
    aa7b:	48 8d 05 f6 eb 00 00 	lea    0xebf6(%rip),%rax        # 19678 <g_2374>
    aa82:	48 89 85 40 fd ff ff 	mov    %rax,-0x2c0(%rbp)
    aa89:	48 8d 85 e8 f2 ff ff 	lea    -0xd18(%rbp),%rax
    aa90:	48 89 85 48 fd ff ff 	mov    %rax,-0x2b8(%rbp)
    aa97:	48 c7 85 50 fd ff ff 	movq   $0x0,-0x2b0(%rbp)
    aa9e:	00 00 00 00 
    aaa2:	48 8d 05 cf eb 00 00 	lea    0xebcf(%rip),%rax        # 19678 <g_2374>
    aaa9:	48 89 85 58 fd ff ff 	mov    %rax,-0x2a8(%rbp)
    aab0:	48 8d 85 e4 f2 ff ff 	lea    -0xd1c(%rbp),%rax
    aab7:	48 89 85 60 fd ff ff 	mov    %rax,-0x2a0(%rbp)
    aabe:	48 8d 05 73 e5 00 00 	lea    0xe573(%rip),%rax        # 19038 <g_73+0x8>
    aac5:	48 89 85 68 fd ff ff 	mov    %rax,-0x298(%rbp)
    aacc:	48 8d 85 e4 f2 ff ff 	lea    -0xd1c(%rbp),%rax
    aad3:	48 89 85 70 fd ff ff 	mov    %rax,-0x290(%rbp)
    aada:	48 8d 05 97 eb 00 00 	lea    0xeb97(%rip),%rax        # 19678 <g_2374>
    aae1:	48 89 85 78 fd ff ff 	mov    %rax,-0x288(%rbp)
    aae8:	48 8d 05 e5 e5 00 00 	lea    0xe5e5(%rip),%rax        # 190d4 <g_77+0x54>
    aaef:	48 89 85 80 fd ff ff 	mov    %rax,-0x280(%rbp)
    aaf6:	48 8d 05 3b e5 00 00 	lea    0xe53b(%rip),%rax        # 19038 <g_73+0x8>
    aafd:	48 89 85 88 fd ff ff 	mov    %rax,-0x278(%rbp)
    ab04:	48 8d 05 2d e5 00 00 	lea    0xe52d(%rip),%rax        # 19038 <g_73+0x8>
    ab0b:	48 89 85 90 fd ff ff 	mov    %rax,-0x270(%rbp)
    ab12:	48 8d 05 1f e5 00 00 	lea    0xe51f(%rip),%rax        # 19038 <g_73+0x8>
    ab19:	48 89 85 98 fd ff ff 	mov    %rax,-0x268(%rbp)
    ab20:	48 8d 85 e0 f2 ff ff 	lea    -0xd20(%rbp),%rax
    ab27:	48 89 85 a0 fd ff ff 	mov    %rax,-0x260(%rbp)
    ab2e:	48 8d 85 90 f5 ff ff 	lea    -0xa70(%rbp),%rax
    ab35:	48 83 c0 20          	add    $0x20,%rax
    ab39:	48 89 85 a8 fd ff ff 	mov    %rax,-0x258(%rbp)
    ab40:	48 c7 85 b0 fd ff ff 	movq   $0x0,-0x250(%rbp)
    ab47:	00 00 00 00 
    ab4b:	48 8d 05 86 e8 00 00 	lea    0xe886(%rip),%rax        # 193d8 <g_984+0x58>
    ab52:	48 89 85 b8 fd ff ff 	mov    %rax,-0x248(%rbp)
    ab59:	48 8d 85 90 f5 ff ff 	lea    -0xa70(%rbp),%rax
    ab60:	48 83 c0 20          	add    $0x20,%rax
    ab64:	48 89 85 c0 fd ff ff 	mov    %rax,-0x240(%rbp)
    ab6b:	48 8d 85 e0 f2 ff ff 	lea    -0xd20(%rbp),%rax
    ab72:	48 89 85 c8 fd ff ff 	mov    %rax,-0x238(%rbp)
    ab79:	48 8d 85 90 f5 ff ff 	lea    -0xa70(%rbp),%rax
    ab80:	48 83 c0 20          	add    $0x20,%rax
    ab84:	48 89 85 d0 fd ff ff 	mov    %rax,-0x230(%rbp)
    ab8b:	48 8d 05 a6 e4 00 00 	lea    0xe4a6(%rip),%rax        # 19038 <g_73+0x8>
    ab92:	48 89 85 d8 fd ff ff 	mov    %rax,-0x228(%rbp)
    ab99:	48 8d 05 a8 2e 01 00 	lea    0x12ea8(%rip),%rax        # 1da48 <g_3>
    aba0:	48 89 85 e0 fd ff ff 	mov    %rax,-0x220(%rbp)
    aba7:	48 8d 85 e4 f2 ff ff 	lea    -0xd1c(%rbp),%rax
    abae:	48 89 85 e8 fd ff ff 	mov    %rax,-0x218(%rbp)
    abb5:	48 8d 05 bc ea 00 00 	lea    0xeabc(%rip),%rax        # 19678 <g_2374>
    abbc:	48 89 85 f0 fd ff ff 	mov    %rax,-0x210(%rbp)
    abc3:	48 8d 85 90 f5 ff ff 	lea    -0xa70(%rbp),%rax
    abca:	48 83 c0 20          	add    $0x20,%rax
    abce:	48 89 85 f8 fd ff ff 	mov    %rax,-0x208(%rbp)
    abd5:	48 8d 85 90 f5 ff ff 	lea    -0xa70(%rbp),%rax
    abdc:	48 83 c0 20          	add    $0x20,%rax
    abe0:	48 89 85 00 fe ff ff 	mov    %rax,-0x200(%rbp)
    abe7:	48 8d 85 e4 f2 ff ff 	lea    -0xd1c(%rbp),%rax
    abee:	48 89 85 08 fe ff ff 	mov    %rax,-0x1f8(%rbp)
    abf5:	48 8d 85 e4 f2 ff ff 	lea    -0xd1c(%rbp),%rax
    abfc:	48 89 85 10 fe ff ff 	mov    %rax,-0x1f0(%rbp)
    ac03:	48 8d 05 ce e7 00 00 	lea    0xe7ce(%rip),%rax        # 193d8 <g_984+0x58>
    ac0a:	48 89 85 18 fe ff ff 	mov    %rax,-0x1e8(%rbp)
    ac11:	48 8d 85 e8 f2 ff ff 	lea    -0xd18(%rbp),%rax
    ac18:	48 89 85 20 fe ff ff 	mov    %rax,-0x1e0(%rbp)
    ac1f:	48 8d 85 e4 f2 ff ff 	lea    -0xd1c(%rbp),%rax
    ac26:	48 89 85 28 fe ff ff 	mov    %rax,-0x1d8(%rbp)
    ac2d:	48 8d 85 e0 f2 ff ff 	lea    -0xd20(%rbp),%rax
    ac34:	48 89 85 30 fe ff ff 	mov    %rax,-0x1d0(%rbp)
    ac3b:	48 8d 05 06 2e 01 00 	lea    0x12e06(%rip),%rax        # 1da48 <g_3>
    ac42:	48 89 85 38 fe ff ff 	mov    %rax,-0x1c8(%rbp)
    ac49:	66 c7 85 da f2 ff ff 	movw   $0x1,-0xd26(%rbp)
    ac50:	01 00 
    ac52:	48 c7 85 d8 f4 ff ff 	movq   $0x0,-0xb28(%rbp)
    ac59:	00 00 00 00 
    ac5d:	48 c7 85 e0 f4 ff ff 	movq   $0x0,-0xb20(%rbp)
    ac64:	00 00 00 00 
    ac68:	48 8b 85 f8 f3 ff ff 	mov    -0xc08(%rbp),%rax
    ac6f:	0f bf d8             	movswl %ax,%ebx
    ac72:	0f b6 05 c7 f1 00 00 	movzbl 0xf1c7(%rip),%eax        # 19e40 <g_2842>
    ac79:	0f b6 c0             	movzbl %al,%eax
    ac7c:	48 98                	cltq   
    ac7e:	0f b7 84 45 1c f5 ff 	movzwl -0xae4(%rbp,%rax,2),%eax
    ac85:	ff 
    ac86:	44 0f bf e0          	movswl %ax,%r12d
    ac8a:	0f b7 85 22 f5 ff ff 	movzwl -0xade(%rbp),%eax
    ac91:	44 0f bf e8          	movswl %ax,%r13d
    ac95:	0f b6 05 a4 f1 00 00 	movzbl 0xf1a4(%rip),%eax        # 19e40 <g_2842>
    ac9c:	0f b6 c0             	movzbl %al,%eax
    ac9f:	48 98                	cltq   
    aca1:	0f b7 84 45 1c f5 ff 	movzwl -0xae4(%rbp,%rax,2),%eax
    aca8:	ff 
    aca9:	44 0f be f0          	movsbl %al,%r14d
    acad:	48 c7 85 40 f4 ff ff 	movq   $0x0,-0xbc0(%rbp)
    acb4:	00 00 00 00 
    acb8:	0f b6 05 81 f1 00 00 	movzbl 0xf181(%rip),%eax        # 19e40 <g_2842>
    acbf:	0f b6 c0             	movzbl %al,%eax
    acc2:	48 98                	cltq   
    acc4:	0f b7 84 45 1c f5 ff 	movzwl -0xae4(%rbp,%rax,2),%eax
    accb:	ff 
    accc:	0f b7 c0             	movzwl %ax,%eax
    accf:	be 08 00 00 00       	mov    $0x8,%esi
    acd4:	89 c7                	mov    %eax,%edi
    acd6:	e8 6d e1 ff ff       	callq  8e48 <safe_rshift_func_uint16_t_u_s>
    acdb:	0f be c0             	movsbl %al,%eax
    acde:	be ff ff ff ff       	mov    $0xffffffff,%esi
    ace3:	89 c7                	mov    %eax,%edi
    ace5:	e8 28 d5 ff ff       	callq  8212 <safe_mul_func_int8_t_s_s>
    acea:	48 0f be d0          	movsbq %al,%rdx
    acee:	48 8b 85 80 f4 ff ff 	mov    -0xb80(%rbp),%rax
    acf5:	48 89 10             	mov    %rdx,(%rax)
    acf8:	48 8b 85 80 f4 ff ff 	mov    -0xb80(%rbp),%rax
    acff:	48 8b 00             	mov    (%rax),%rax
    ad02:	89 85 04 f3 ff ff    	mov    %eax,-0xcfc(%rbp)
    ad08:	8b 85 04 f3 ff ff    	mov    -0xcfc(%rbp),%eax
    ad0e:	89 85 fc f2 ff ff    	mov    %eax,-0xd04(%rbp)
    ad14:	8b 85 fc f2 ff ff    	mov    -0xd04(%rbp),%eax
    ad1a:	48 98                	cltq   
    ad1c:	be 03 00 00 00       	mov    $0x3,%esi
    ad21:	48 89 c7             	mov    %rax,%rdi
    ad24:	e8 7f db ff ff       	callq  88a8 <safe_sub_func_int64_t_s_s>
    ad29:	0f be c0             	movsbl %al,%eax
    ad2c:	44 89 f6             	mov    %r14d,%esi
    ad2f:	89 c7                	mov    %eax,%edi
    ad31:	e8 34 d5 ff ff       	callq  826a <safe_div_func_int8_t_s_s>
    ad36:	0f b7 85 1e f5 ff ff 	movzwl -0xae2(%rbp),%eax
    ad3d:	0f be c0             	movsbl %al,%eax
    ad40:	44 89 ee             	mov    %r13d,%esi
    ad43:	89 c7                	mov    %eax,%edi
    ad45:	e8 a4 d5 ff ff       	callq  82ee <safe_lshift_func_int8_t_s_u>
    ad4a:	84 c0                	test   %al,%al
    ad4c:	74 0a                	je     ad58 <func_16+0x14b3>
    ad4e:	48 8b 05 f3 f1 00 00 	mov    0xf1f3(%rip),%rax        # 19f48 <g_3251+0xc8>
    ad55:	48 85 c0             	test   %rax,%rax
    ad58:	44 89 e6             	mov    %r12d,%esi
    ad5b:	bf 50 00 00 00       	mov    $0x50,%edi
    ad60:	e8 90 d6 ff ff       	callq  83f5 <safe_mul_func_int16_t_s_s>
    ad65:	0f b7 85 22 f5 ff ff 	movzwl -0xade(%rbp),%eax
    ad6c:	98                   	cwtl   
    ad6d:	89 de                	mov    %ebx,%esi
    ad6f:	89 c7                	mov    %eax,%edi
    ad71:	e8 3d d6 ff ff       	callq  83b3 <safe_add_func_int16_t_s_s>
    ad76:	0f b7 c0             	movzwl %ax,%eax
    ad79:	48 8b 15 70 14 01 00 	mov    0x11470(%rip),%rdx        # 1c1f0 <g_758>
    ad80:	0f b7 12             	movzwl (%rdx),%edx
    ad83:	0f bf d2             	movswl %dx,%edx
    ad86:	39 95 50 f3 ff ff    	cmp    %edx,-0xcb0(%rbp)
    ad8c:	7c 07                	jl     ad95 <func_16+0x14f0>
    ad8e:	ba b1 04 00 00       	mov    $0x4b1,%edx
    ad93:	eb 05                	jmp    ad9a <func_16+0x14f5>
    ad95:	ba b0 04 00 00       	mov    $0x4b0,%edx
    ad9a:	89 c6                	mov    %eax,%esi
    ad9c:	89 d7                	mov    %edx,%edi
    ad9e:	e8 eb df ff ff       	callq  8d8e <safe_div_func_uint16_t_u_u>
    ada3:	66 85 c0             	test   %ax,%ax
    ada6:	75 0a                	jne    adb2 <func_16+0x150d>
    ada8:	8b 85 a4 f5 ff ff    	mov    -0xa5c(%rbp),%eax
    adae:	85 c0                	test   %eax,%eax
    adb0:	74 07                	je     adb9 <func_16+0x1514>
    adb2:	b8 01 00 00 00       	mov    $0x1,%eax
    adb7:	eb 05                	jmp    adbe <func_16+0x1519>
    adb9:	b8 00 00 00 00       	mov    $0x0,%eax
    adbe:	3b 85 50 f3 ff ff    	cmp    -0xcb0(%rbp),%eax
    adc4:	7c 07                	jl     adcd <func_16+0x1528>
    adc6:	ba 3f 00 00 00       	mov    $0x3f,%edx
    adcb:	eb 05                	jmp    add2 <func_16+0x152d>
    adcd:	ba 3e 00 00 00       	mov    $0x3e,%edx
    add2:	48 8b 85 b8 f2 ff ff 	mov    -0xd48(%rbp),%rax
    add9:	89 10                	mov    %edx,(%rax)
    addb:	48 8b 85 b8 f2 ff ff 	mov    -0xd48(%rbp),%rax
    ade2:	8b 10                	mov    (%rax),%edx
    ade4:	8b 85 e8 f2 ff ff    	mov    -0xd18(%rbp),%eax
    adea:	09 d0                	or     %edx,%eax
    adec:	89 85 e8 f2 ff ff    	mov    %eax,-0xd18(%rbp)
    adf2:	b8 00 00 00 00       	mov    $0x0,%eax
    adf7:	89 c2                	mov    %eax,%edx
    adf9:	8b 85 54 f3 ff ff    	mov    -0xcac(%rbp),%eax
    adff:	31 d0                	xor    %edx,%eax
    ae01:	89 85 54 f3 ff ff    	mov    %eax,-0xcac(%rbp)
    ae07:	48 8b 05 02 25 01 00 	mov    0x12502(%rip),%rax        # 1d310 <g_3135>
    ae0e:	8b 00                	mov    (%rax),%eax
    ae10:	85 c0                	test   %eax,%eax
    ae12:	0f 85 6e 16 00 00    	jne    c486 <func_16+0x2be1>
    ae18:	48 83 85 f0 f3 ff ff 	addq   $0x1,-0xc10(%rbp)
    ae1f:	01 
    ae20:	c7 05 76 e3 00 00 00 	movl   $0x0,0xe376(%rip)        # 191a0 <g_88>
    ae27:	00 00 00 
    ae2a:	e9 8a 13 00 00       	jmpq   c1b9 <func_16+0x2914>
    ae2f:	48 8d 05 52 e7 00 00 	lea    0xe752(%rip),%rax        # 19588 <g_2308>
    ae36:	48 89 85 c0 f5 ff ff 	mov    %rax,-0xa40(%rbp)
    ae3d:	48 c7 85 c8 f5 ff ff 	movq   $0x0,-0xa38(%rbp)
    ae44:	00 00 00 00 
    ae48:	48 c7 85 d0 f5 ff ff 	movq   $0x0,-0xa30(%rbp)
    ae4f:	00 00 00 00 
    ae53:	48 8d 05 2e e7 00 00 	lea    0xe72e(%rip),%rax        # 19588 <g_2308>
    ae5a:	48 89 85 d8 f5 ff ff 	mov    %rax,-0xa28(%rbp)
    ae61:	48 c7 85 e0 f5 ff ff 	movq   $0x0,-0xa20(%rbp)
    ae68:	00 00 00 00 
    ae6c:	48 c7 85 e8 f5 ff ff 	movq   $0x0,-0xa18(%rbp)
    ae73:	00 00 00 00 
    ae77:	c7 85 60 f3 ff ff f6 	movl   $0xfffffff6,-0xca0(%rbp)
    ae7e:	ff ff ff 
    ae81:	c7 85 70 f8 ff ff 01 	movl   $0x1,-0x790(%rbp)
    ae88:	00 00 00 
    ae8b:	c7 85 74 f8 ff ff ed 	movl   $0x90d0c0ed,-0x78c(%rbp)
    ae92:	c0 d0 90 
    ae95:	c7 85 78 f8 ff ff 01 	movl   $0x1,-0x788(%rbp)
    ae9c:	00 00 00 
    ae9f:	c7 85 7c f8 ff ff 07 	movl   $0x8dbe1207,-0x784(%rbp)
    aea6:	12 be 8d 
    aea9:	c7 85 80 f8 ff ff 00 	movl   $0x0,-0x780(%rbp)
    aeb0:	00 00 00 
    aeb3:	c7 85 84 f8 ff ff 31 	movl   $0x31018a31,-0x77c(%rbp)
    aeba:	8a 01 31 
    aebd:	c7 85 88 f8 ff ff 31 	movl   $0x31018a31,-0x778(%rbp)
    aec4:	8a 01 31 
    aec7:	c7 85 8c f8 ff ff 00 	movl   $0x0,-0x774(%rbp)
    aece:	00 00 00 
    aed1:	c7 85 90 f8 ff ff 07 	movl   $0x8dbe1207,-0x770(%rbp)
    aed8:	12 be 8d 
    aedb:	c7 85 94 f8 ff ff 01 	movl   $0x1,-0x76c(%rbp)
    aee2:	00 00 00 
    aee5:	c7 85 98 f8 ff ff 01 	movl   $0x1,-0x768(%rbp)
    aeec:	00 00 00 
    aeef:	c7 85 9c f8 ff ff 01 	movl   $0x1,-0x764(%rbp)
    aef6:	00 00 00 
    aef9:	c7 85 a0 f8 ff ff 19 	movl   $0x492d5a19,-0x760(%rbp)
    af00:	5a 2d 49 
    af03:	c7 85 a4 f8 ff ff ff 	movl   $0xffffffff,-0x75c(%rbp)
    af0a:	ff ff ff 
    af0d:	c7 85 a8 f8 ff ff ed 	movl   $0x90d0c0ed,-0x758(%rbp)
    af14:	c0 d0 90 
    af17:	c7 85 ac f8 ff ff 10 	movl   $0x79b55a10,-0x754(%rbp)
    af1e:	5a b5 79 
    af21:	c7 85 b0 f8 ff ff 00 	movl   $0x0,-0x750(%rbp)
    af28:	00 00 00 
    af2b:	c7 85 b4 f8 ff ff ff 	movl   $0xffffffff,-0x74c(%rbp)
    af32:	ff ff ff 
    af35:	c7 85 b8 f8 ff ff b1 	movl   $0xd8a7cab1,-0x748(%rbp)
    af3c:	ca a7 d8 
    af3f:	c7 85 bc f8 ff ff fc 	movl   $0xfffffffc,-0x744(%rbp)
    af46:	ff ff ff 
    af49:	c7 85 c0 f8 ff ff 00 	movl   $0x0,-0x740(%rbp)
    af50:	00 00 00 
    af53:	c7 85 c4 f8 ff ff ff 	movl   $0xffffffff,-0x73c(%rbp)
    af5a:	ff ff ff 
    af5d:	c7 85 c8 f8 ff ff fd 	movl   $0x7b9c73fd,-0x738(%rbp)
    af64:	73 9c 7b 
    af67:	c7 85 cc f8 ff ff 01 	movl   $0x1,-0x734(%rbp)
    af6e:	00 00 00 
    af71:	c7 85 d0 f8 ff ff 31 	movl   $0x31018a31,-0x730(%rbp)
    af78:	8a 01 31 
    af7b:	c7 85 d4 f8 ff ff b1 	movl   $0xd8a7cab1,-0x72c(%rbp)
    af82:	ca a7 d8 
    af85:	c7 85 d8 f8 ff ff 00 	movl   $0x0,-0x728(%rbp)
    af8c:	00 00 00 
    af8f:	c7 85 dc f8 ff ff ff 	movl   $0xffffffff,-0x724(%rbp)
    af96:	ff ff ff 
    af99:	c7 85 e0 f8 ff ff 00 	movl   $0x0,-0x720(%rbp)
    afa0:	00 00 00 
    afa3:	c7 85 e4 f8 ff ff b1 	movl   $0xd8a7cab1,-0x71c(%rbp)
    afaa:	ca a7 d8 
    afad:	c7 85 e8 f8 ff ff fc 	movl   $0xfffffffc,-0x718(%rbp)
    afb4:	ff ff ff 
    afb7:	c7 85 ec f8 ff ff 01 	movl   $0x1,-0x714(%rbp)
    afbe:	00 00 00 
    afc1:	c7 85 f0 f8 ff ff 01 	movl   $0x1,-0x710(%rbp)
    afc8:	00 00 00 
    afcb:	c7 85 f4 f8 ff ff 01 	movl   $0x1,-0x70c(%rbp)
    afd2:	00 00 00 
    afd5:	c7 85 f8 f8 ff ff fc 	movl   $0xfffffffc,-0x708(%rbp)
    afdc:	ff ff ff 
    afdf:	c7 85 fc f8 ff ff fd 	movl   $0x7b9c73fd,-0x704(%rbp)
    afe6:	73 9c 7b 
    afe9:	c7 85 00 f9 ff ff 31 	movl   $0x31018a31,-0x700(%rbp)
    aff0:	8a 01 31 
    aff3:	c7 85 04 f9 ff ff 79 	movl   $0xd5ef9d79,-0x6fc(%rbp)
    affa:	9d ef d5 
    affd:	c7 85 08 f9 ff ff ed 	movl   $0x90d0c0ed,-0x6f8(%rbp)
    b004:	c0 d0 90 
    b007:	c7 85 0c f9 ff ff 19 	movl   $0x492d5a19,-0x6f4(%rbp)
    b00e:	5a 2d 49 
    b011:	c7 85 10 f9 ff ff f9 	movl   $0xc8a075f9,-0x6f0(%rbp)
    b018:	75 a0 c8 
    b01b:	c7 85 14 f9 ff ff ed 	movl   $0x90d0c0ed,-0x6ec(%rbp)
    b022:	c0 d0 90 
    b025:	c7 85 18 f9 ff ff 07 	movl   $0x8dbe1207,-0x6e8(%rbp)
    b02c:	12 be 8d 
    b02f:	c7 85 1c f9 ff ff 00 	movl   $0x0,-0x6e4(%rbp)
    b036:	00 00 00 
    b039:	c7 85 20 f9 ff ff 01 	movl   $0x1,-0x6e0(%rbp)
    b040:	00 00 00 
    b043:	c7 85 24 f9 ff ff 00 	movl   $0x0,-0x6dc(%rbp)
    b04a:	00 00 00 
    b04d:	c7 85 28 f9 ff ff fd 	movl   $0x7b9c73fd,-0x6d8(%rbp)
    b054:	73 9c 7b 
    b057:	c7 85 2c f9 ff ff 01 	movl   $0x1,-0x6d4(%rbp)
    b05e:	00 00 00 
    b061:	c7 85 30 f9 ff ff 19 	movl   $0x492d5a19,-0x6d0(%rbp)
    b068:	5a 2d 49 
    b06b:	c7 85 34 f9 ff ff 19 	movl   $0x492d5a19,-0x6cc(%rbp)
    b072:	5a 2d 49 
    b075:	c7 85 38 f9 ff ff 31 	movl   $0x31018a31,-0x6c8(%rbp)
    b07c:	8a 01 31 
    b07f:	c7 85 3c f9 ff ff 00 	movl   $0x0,-0x6c4(%rbp)
    b086:	00 00 00 
    b089:	c7 85 40 f9 ff ff f9 	movl   $0xc8a075f9,-0x6c0(%rbp)
    b090:	75 a0 c8 
    b093:	c7 85 44 f9 ff ff fc 	movl   $0xfffffffc,-0x6bc(%rbp)
    b09a:	ff ff ff 
    b09d:	c7 85 48 f9 ff ff fc 	movl   $0xfffffffc,-0x6b8(%rbp)
    b0a4:	ff ff ff 
    b0a7:	c7 85 4c f9 ff ff f9 	movl   $0xc8a075f9,-0x6b4(%rbp)
    b0ae:	75 a0 c8 
    b0b1:	c7 85 50 f9 ff ff 00 	movl   $0x0,-0x6b0(%rbp)
    b0b8:	00 00 00 
    b0bb:	c7 85 54 f9 ff ff 31 	movl   $0x31018a31,-0x6ac(%rbp)
    b0c2:	8a 01 31 
    b0c5:	c7 85 58 f9 ff ff 01 	movl   $0x1,-0x6a8(%rbp)
    b0cc:	00 00 00 
    b0cf:	c7 85 5c f9 ff ff b1 	movl   $0xd8a7cab1,-0x6a4(%rbp)
    b0d6:	ca a7 d8 
    b0d9:	48 8d 05 d2 e1 00 00 	lea    0xe1d2(%rip),%rax        # 192b2 <g_403>
    b0e0:	48 89 85 f0 f4 ff ff 	mov    %rax,-0xb10(%rbp)
    b0e7:	66 c7 85 dc f2 ff ff 	movw   $0xffff,-0xd24(%rbp)
    b0ee:	ff ff 
    b0f0:	c7 85 64 f3 ff ff 09 	movl   $0x9,-0xc9c(%rbp)
    b0f7:	00 00 00 
    b0fa:	48 8b 85 18 f4 ff ff 	mov    -0xbe8(%rbp),%rax
    b101:	41 89 c6             	mov    %eax,%r14d
    b104:	48 8b 85 b8 f4 ff ff 	mov    -0xb48(%rbp),%rax
    b10b:	8b 18                	mov    (%rax),%ebx
    b10d:	8b 85 2c f9 ff ff    	mov    -0x6d4(%rbp),%eax
    b113:	44 0f b7 e0          	movzwl %ax,%r12d
    b117:	48 8b 85 90 f4 ff ff 	mov    -0xb70(%rbp),%rax
    b11e:	8b 00                	mov    (%rax),%eax
    b120:	44 0f b7 e8          	movzwl %ax,%r13d
    b124:	0f b6 85 26 f5 ff ff 	movzbl -0xada(%rbp),%eax
    b12b:	83 c0 01             	add    $0x1,%eax
    b12e:	88 85 26 f5 ff ff    	mov    %al,-0xada(%rbp)
    b134:	0f b6 85 26 f5 ff ff 	movzbl -0xada(%rbp),%eax
    b13b:	84 c0                	test   %al,%al
    b13d:	75 59                	jne    b198 <func_16+0x18f3>
    b13f:	8b 85 a4 f5 ff ff    	mov    -0xa5c(%rbp),%eax
    b145:	48 98                	cltq   
    b147:	be 01 00 00 00       	mov    $0x1,%esi
    b14c:	48 89 c7             	mov    %rax,%rdi
    b14f:	e8 a3 d8 ff ff       	callq  89f7 <safe_div_func_int64_t_s_s>
    b154:	48 8b 05 95 10 01 00 	mov    0x11095(%rip),%rax        # 1c1f0 <g_758>
    b15b:	0f b7 08             	movzwl (%rax),%ecx
    b15e:	0f b6 05 db ec 00 00 	movzbl 0xecdb(%rip),%eax        # 19e40 <g_2842>
    b165:	0f b6 c0             	movzbl %al,%eax
    b168:	48 98                	cltq   
    b16a:	0f b7 94 45 1c f5 ff 	movzwl -0xae4(%rbp,%rax,2),%edx
    b171:	ff 
    b172:	0f b6 05 c7 ec 00 00 	movzbl 0xecc7(%rip),%eax        # 19e40 <g_2842>
    b179:	0f b6 c0             	movzbl %al,%eax
    b17c:	09 d1                	or     %edx,%ecx
    b17e:	48 63 d0             	movslq %eax,%rdx
    b181:	66 89 8c 55 1c f5 ff 	mov    %cx,-0xae4(%rbp,%rdx,2)
    b188:	ff 
    b189:	48 98                	cltq   
    b18b:	0f b7 84 45 1c f5 ff 	movzwl -0xae4(%rbp,%rax,2),%eax
    b192:	ff 
    b193:	66 85 c0             	test   %ax,%ax
    b196:	74 07                	je     b19f <func_16+0x18fa>
    b198:	b8 01 00 00 00       	mov    $0x1,%eax
    b19d:	eb 05                	jmp    b1a4 <func_16+0x18ff>
    b19f:	b8 00 00 00 00       	mov    $0x0,%eax
    b1a4:	0f b7 c0             	movzwl %ax,%eax
    b1a7:	44 89 ee             	mov    %r13d,%esi
    b1aa:	89 c7                	mov    %eax,%edi
    b1ac:	e8 dd db ff ff       	callq  8d8e <safe_div_func_uint16_t_u_u>
    b1b1:	0f b7 c0             	movzwl %ax,%eax
    b1b4:	44 89 e6             	mov    %r12d,%esi
    b1b7:	89 c7                	mov    %eax,%edi
    b1b9:	e8 7f db ff ff       	callq  8d3d <safe_mul_func_uint16_t_u_u>
    b1be:	44 0f b7 e8          	movzwl %ax,%r13d
    b1c2:	83 bd 60 f3 ff ff 00 	cmpl   $0x0,-0xca0(%rbp)
    b1c9:	75 56                	jne    b221 <func_16+0x197c>
    b1cb:	48 8b 85 88 f4 ff ff 	mov    -0xb78(%rbp),%rax
    b1d2:	8b 00                	mov    (%rax),%eax
    b1d4:	44 0f bf e0          	movswl %ax,%r12d
    b1d8:	48 8b 85 90 f4 ff ff 	mov    -0xb70(%rbp),%rax
    b1df:	8b 00                	mov    (%rax),%eax
    b1e1:	89 c2                	mov    %eax,%edx
    b1e3:	48 8b 05 76 0e 01 00 	mov    0x10e76(%rip),%rax        # 1c060 <g_275>
    b1ea:	8b 00                	mov    (%rax),%eax
    b1ec:	89 d6                	mov    %edx,%esi
    b1ee:	89 c7                	mov    %eax,%edi
    b1f0:	e8 c3 dc ff ff       	callq  8eb8 <safe_add_func_uint32_t_u_u>
    b1f5:	85 c0                	test   %eax,%eax
    b1f7:	0f 94 c0             	sete   %al
    b1fa:	0f b6 d0             	movzbl %al,%edx
    b1fd:	8b 85 88 f8 ff ff    	mov    -0x778(%rbp),%eax
    b203:	0f be c0             	movsbl %al,%eax
    b206:	89 d6                	mov    %edx,%esi
    b208:	89 c7                	mov    %eax,%edi
    b20a:	e8 c5 cf ff ff       	callq  81d4 <safe_add_func_int8_t_s_s>
    b20f:	0f be c0             	movsbl %al,%eax
    b212:	44 89 e6             	mov    %r12d,%esi
    b215:	89 c7                	mov    %eax,%edi
    b217:	e8 d9 d1 ff ff       	callq  83f5 <safe_mul_func_int16_t_s_s>
    b21c:	66 85 c0             	test   %ax,%ax
    b21f:	78 07                	js     b228 <func_16+0x1983>
    b221:	b8 01 00 00 00       	mov    $0x1,%eax
    b226:	eb 05                	jmp    b22d <func_16+0x1988>
    b228:	b8 00 00 00 00       	mov    $0x0,%eax
    b22d:	44 39 e8             	cmp    %r13d,%eax
    b230:	0f 95 c0             	setne  %al
    b233:	0f b6 c0             	movzbl %al,%eax
    b236:	89 c6                	mov    %eax,%esi
    b238:	bf d0 00 00 00       	mov    $0xd0,%edi
    b23d:	e8 51 d9 ff ff       	callq  8b93 <safe_mul_func_uint8_t_u_u>
    b242:	8b 85 3c f8 ff ff    	mov    -0x7c4(%rbp),%eax
    b248:	85 c0                	test   %eax,%eax
    b24a:	0f 94 c0             	sete   %al
    b24d:	0f b6 c0             	movzbl %al,%eax
    b250:	89 de                	mov    %ebx,%esi
    b252:	89 c7                	mov    %eax,%edi
    b254:	e8 dc d0 ff ff       	callq  8335 <safe_rshift_func_int8_t_s_s>
    b259:	0f be c0             	movsbl %al,%eax
    b25c:	23 85 48 f3 ff ff    	and    -0xcb8(%rbp),%eax
    b262:	89 c2                	mov    %eax,%edx
    b264:	48 8b 05 ad 10 01 00 	mov    0x110ad(%rip),%rax        # 1c318 <g_1558>
    b26b:	48 8b 00             	mov    (%rax),%rax
    b26e:	48 8b 00             	mov    (%rax),%rax
    b271:	8b 00                	mov    (%rax),%eax
    b273:	39 c2                	cmp    %eax,%edx
    b275:	0f 93 c0             	setae  %al
    b278:	0f b6 d0             	movzbl %al,%edx
    b27b:	0f bf 85 da f2 ff ff 	movswl -0xd26(%rbp),%eax
    b282:	39 c2                	cmp    %eax,%edx
    b284:	0f 9d c0             	setge  %al
    b287:	0f b6 c0             	movzbl %al,%eax
    b28a:	44 89 f6             	mov    %r14d,%esi
    b28d:	89 c7                	mov    %eax,%edi
    b28f:	e8 69 dc ff ff       	callq  8efd <safe_mod_func_uint32_t_u_u>
    b294:	89 c2                	mov    %eax,%edx
    b296:	48 8b 85 98 f4 ff ff 	mov    -0xb68(%rbp),%rax
    b29d:	89 10                	mov    %edx,(%rax)
    b29f:	0f be 9d cc f2 ff ff 	movsbl -0xd34(%rbp),%ebx
    b2a6:	48 8b 85 a8 f4 ff ff 	mov    -0xb58(%rbp),%rax
    b2ad:	8b 00                	mov    (%rax),%eax
    b2af:	44 0f b6 e0          	movzbl %al,%r12d
    b2b3:	48 8d 05 87 eb 00 00 	lea    0xeb87(%rip),%rax        # 19e41 <g_2892>
    b2ba:	48 39 85 f0 f4 ff ff 	cmp    %rax,-0xb10(%rbp)
    b2c1:	0f 95 c0             	setne  %al
    b2c4:	44 0f b6 e8          	movzbl %al,%r13d
    b2c8:	83 bd 60 f3 ff ff 00 	cmpl   $0x0,-0xca0(%rbp)
    b2cf:	75 09                	jne    b2da <func_16+0x1a35>
    b2d1:	83 bd 48 f3 ff ff 00 	cmpl   $0x0,-0xcb8(%rbp)
    b2d8:	74 07                	je     b2e1 <func_16+0x1a3c>
    b2da:	b8 01 00 00 00       	mov    $0x1,%eax
    b2df:	eb 05                	jmp    b2e6 <func_16+0x1a41>
    b2e1:	b8 00 00 00 00       	mov    $0x0,%eax
    b2e6:	83 f8 01             	cmp    $0x1,%eax
    b2e9:	0f 94 c0             	sete   %al
    b2ec:	0f b6 c0             	movzbl %al,%eax
    b2ef:	48 31 85 e0 f3 ff ff 	xor    %rax,-0xc20(%rbp)
    b2f6:	48 8b 85 b0 f4 ff ff 	mov    -0xb50(%rbp),%rax
    b2fd:	8b 10                	mov    (%rax),%edx
    b2ff:	0f b7 85 22 f5 ff ff 	movzwl -0xade(%rbp),%eax
    b306:	98                   	cwtl   
    b307:	39 c2                	cmp    %eax,%edx
    b309:	7c 09                	jl     b314 <func_16+0x1a6f>
    b30b:	83 bd 60 f3 ff ff 00 	cmpl   $0x0,-0xca0(%rbp)
    b312:	74 07                	je     b31b <func_16+0x1a76>
    b314:	b8 01 00 00 00       	mov    $0x1,%eax
    b319:	eb 05                	jmp    b320 <func_16+0x1a7b>
    b31b:	b8 00 00 00 00       	mov    $0x0,%eax
    b320:	0f b6 d0             	movzbl %al,%edx
    b323:	48 8b 05 c6 d6 00 00 	mov    0xd6c6(%rip),%rax        # 189f0 <l_3324.4227+0x10>
    b32a:	48 85 c0             	test   %rax,%rax
    b32d:	0f 95 c0             	setne  %al
    b330:	0f b6 c0             	movzbl %al,%eax
    b333:	89 d6                	mov    %edx,%esi
    b335:	89 c7                	mov    %eax,%edi
    b337:	e8 3c d8 ff ff       	callq  8b78 <safe_sub_func_uint8_t_u_u>
    b33c:	0f be 95 cc f2 ff ff 	movsbl -0xd34(%rbp),%edx
    b343:	48 83 bd d8 f4 ff ff 	cmpq   $0x0,-0xb28(%rbp)
    b34a:	00 
    b34b:	0f 95 c0             	setne  %al
    b34e:	0f b6 c0             	movzbl %al,%eax
    b351:	39 c2                	cmp    %eax,%edx
    b353:	0f 95 c0             	setne  %al
    b356:	89 c2                	mov    %eax,%edx
    b358:	48 8b 85 f0 f3 ff ff 	mov    -0xc10(%rbp),%rax
    b35f:	31 d0                	xor    %edx,%eax
    b361:	0f be d0             	movsbl %al,%edx
    b364:	48 83 bd 48 f4 ff ff 	cmpq   $0x0,-0xbb8(%rbp)
    b36b:	00 
    b36c:	0f 95 c0             	setne  %al
    b36f:	0f b6 c0             	movzbl %al,%eax
    b372:	89 d6                	mov    %edx,%esi
    b374:	89 c7                	mov    %eax,%edi
    b376:	e8 ef ce ff ff       	callq  826a <safe_div_func_int8_t_s_s>
    b37b:	66 98                	cbtw   
    b37d:	0f b7 c0             	movzwl %ax,%eax
    b380:	be ff ff 00 00       	mov    $0xffff,%esi
    b385:	89 c7                	mov    %eax,%edi
    b387:	e8 d0 d9 ff ff       	callq  8d5c <safe_mod_func_uint16_t_u_u>
    b38c:	44 21 e8             	and    %r13d,%eax
    b38f:	98                   	cwtl   
    b390:	be d5 95 ff ff       	mov    $0xffff95d5,%esi
    b395:	89 c7                	mov    %eax,%edi
    b397:	e8 59 d0 ff ff       	callq  83f5 <safe_mul_func_int16_t_s_s>
    b39c:	98                   	cwtl   
    b39d:	39 85 04 f3 ff ff    	cmp    %eax,-0xcfc(%rbp)
    b3a3:	0f 95 c0             	setne  %al
    b3a6:	0f b6 c0             	movzbl %al,%eax
    b3a9:	44 89 e6             	mov    %r12d,%esi
    b3ac:	89 c7                	mov    %eax,%edi
    b3ae:	e8 e0 d7 ff ff       	callq  8b93 <safe_mul_func_uint8_t_u_u>
    b3b3:	0f b6 c0             	movzbl %al,%eax
    b3b6:	33 85 60 f3 ff ff    	xor    -0xca0(%rbp),%eax
    b3bc:	89 c2                	mov    %eax,%edx
    b3be:	8b 85 2c f9 ff ff    	mov    -0x6d4(%rbp),%eax
    b3c4:	39 c2                	cmp    %eax,%edx
    b3c6:	0f 95 c0             	setne  %al
    b3c9:	0f b6 c0             	movzbl %al,%eax
    b3cc:	89 de                	mov    %ebx,%esi
    b3ce:	89 c7                	mov    %eax,%edi
    b3d0:	e8 50 db ff ff       	callq  8f25 <safe_div_func_uint32_t_u_u>
    b3d5:	8b 95 e4 f2 ff ff    	mov    -0xd1c(%rbp),%edx
    b3db:	21 d0                	and    %edx,%eax
    b3dd:	89 85 e4 f2 ff ff    	mov    %eax,-0xd1c(%rbp)
    b3e3:	8b 95 e4 f2 ff ff    	mov    -0xd1c(%rbp),%edx
    b3e9:	8b 85 e0 f2 ff ff    	mov    -0xd20(%rbp),%eax
    b3ef:	39 c2                	cmp    %eax,%edx
    b3f1:	75 15                	jne    b408 <func_16+0x1b63>
    b3f3:	48 8b 05 2e 0f 01 00 	mov    0x10f2e(%rip),%rax        # 1c328 <g_1662>
    b3fa:	0f b6 00             	movzbl (%rax),%eax
    b3fd:	84 c0                	test   %al,%al
    b3ff:	74 07                	je     b408 <func_16+0x1b63>
    b401:	b8 01 00 00 00       	mov    $0x1,%eax
    b406:	eb 05                	jmp    b40d <func_16+0x1b68>
    b408:	b8 00 00 00 00       	mov    $0x0,%eax
    b40d:	89 c2                	mov    %eax,%edx
    b40f:	48 8b 85 f0 f4 ff ff 	mov    -0xb10(%rbp),%rax
    b416:	88 10                	mov    %dl,(%rax)
    b418:	48 8b 85 f0 f4 ff ff 	mov    -0xb10(%rbp),%rax
    b41f:	0f b6 00             	movzbl (%rax),%eax
    b422:	84 c0                	test   %al,%al
    b424:	74 10                	je     b436 <func_16+0x1b91>
    b426:	80 bd cc f2 ff ff 00 	cmpb   $0x0,-0xd34(%rbp)
    b42d:	74 07                	je     b436 <func_16+0x1b91>
    b42f:	ba 01 00 00 00       	mov    $0x1,%edx
    b434:	eb 05                	jmp    b43b <func_16+0x1b96>
    b436:	ba 00 00 00 00       	mov    $0x0,%edx
    b43b:	48 8b 85 a8 f4 ff ff 	mov    -0xb58(%rbp),%rax
    b442:	89 10                	mov    %edx,(%rax)
    b444:	48 c7 85 e8 f3 ff ff 	movq   $0x0,-0xc18(%rbp)
    b44b:	00 00 00 00 
    b44f:	e9 62 0c 00 00       	jmpq   c0b6 <func_16+0x2811>
    b454:	c7 85 68 f3 ff ff 01 	movl   $0x1,-0xc98(%rbp)
    b45b:	00 00 00 
    b45e:	c7 85 6c f3 ff ff ff 	movl   $0xffffffff,-0xc94(%rbp)
    b465:	ff ff ff 
    b468:	c7 85 70 f3 ff ff 09 	movl   $0x9,-0xc90(%rbp)
    b46f:	00 00 00 
    b472:	66 c7 85 70 f6 ff ff 	movw   $0xfff7,-0x990(%rbp)
    b479:	f7 ff 
    b47b:	66 c7 85 72 f6 ff ff 	movw   $0xffff,-0x98e(%rbp)
    b482:	ff ff 
    b484:	66 c7 85 74 f6 ff ff 	movw   $0xfff9,-0x98c(%rbp)
    b48b:	f9 ff 
    b48d:	66 c7 85 76 f6 ff ff 	movw   $0xffff,-0x98a(%rbp)
    b494:	ff ff 
    b496:	66 c7 85 78 f6 ff ff 	movw   $0xfff7,-0x988(%rbp)
    b49d:	f7 ff 
    b49f:	66 c7 85 7a f6 ff ff 	movw   $0x3f19,-0x986(%rbp)
    b4a6:	19 3f 
    b4a8:	66 c7 85 7c f6 ff ff 	movw   $0x4601,-0x984(%rbp)
    b4af:	01 46 
    b4b1:	66 c7 85 7e f6 ff ff 	movw   $0x5bd5,-0x982(%rbp)
    b4b8:	d5 5b 
    b4ba:	66 c7 85 80 f6 ff ff 	movw   $0x8,-0x980(%rbp)
    b4c1:	08 00 
    b4c3:	66 c7 85 82 f6 ff ff 	movw   $0xfff9,-0x97e(%rbp)
    b4ca:	f9 ff 
    b4cc:	66 c7 85 84 f6 ff ff 	movw   $0x6,-0x97c(%rbp)
    b4d3:	06 00 
    b4d5:	66 c7 85 86 f6 ff ff 	movw   $0xffff,-0x97a(%rbp)
    b4dc:	ff ff 
    b4de:	66 c7 85 88 f6 ff ff 	movw   $0x0,-0x978(%rbp)
    b4e5:	00 00 
    b4e7:	66 c7 85 8a f6 ff ff 	movw   $0x0,-0x976(%rbp)
    b4ee:	00 00 
    b4f0:	66 c7 85 8c f6 ff ff 	movw   $0x6,-0x974(%rbp)
    b4f7:	06 00 
    b4f9:	66 c7 85 8e f6 ff ff 	movw   $0x0,-0x972(%rbp)
    b500:	00 00 
    b502:	66 c7 85 90 f6 ff ff 	movw   $0x0,-0x970(%rbp)
    b509:	00 00 
    b50b:	66 c7 85 92 f6 ff ff 	movw   $0x0,-0x96e(%rbp)
    b512:	00 00 
    b514:	66 c7 85 94 f6 ff ff 	movw   $0x0,-0x96c(%rbp)
    b51b:	00 00 
    b51d:	66 c7 85 96 f6 ff ff 	movw   $0x0,-0x96a(%rbp)
    b524:	00 00 
    b526:	66 c7 85 98 f6 ff ff 	movw   $0x0,-0x968(%rbp)
    b52d:	00 00 
    b52f:	66 c7 85 9a f6 ff ff 	movw   $0x5bd5,-0x966(%rbp)
    b536:	d5 5b 
    b538:	66 c7 85 9c f6 ff ff 	movw   $0x6,-0x964(%rbp)
    b53f:	06 00 
    b541:	66 c7 85 9e f6 ff ff 	movw   $0x8,-0x962(%rbp)
    b548:	08 00 
    b54a:	66 c7 85 a0 f6 ff ff 	movw   $0x4601,-0x960(%rbp)
    b551:	01 46 
    b553:	66 c7 85 a2 f6 ff ff 	movw   $0x8,-0x95e(%rbp)
    b55a:	08 00 
    b55c:	66 c7 85 a4 f6 ff ff 	movw   $0x0,-0x95c(%rbp)
    b563:	00 00 
    b565:	66 c7 85 a6 f6 ff ff 	movw   $0x3f19,-0x95a(%rbp)
    b56c:	19 3f 
    b56e:	66 c7 85 a8 f6 ff ff 	movw   $0xfff7,-0x958(%rbp)
    b575:	f7 ff 
    b577:	66 c7 85 aa f6 ff ff 	movw   $0x4,-0x956(%rbp)
    b57e:	04 00 
    b580:	66 c7 85 ac f6 ff ff 	movw   $0x71af,-0x954(%rbp)
    b587:	af 71 
    b589:	66 c7 85 ae f6 ff ff 	movw   $0xfff9,-0x952(%rbp)
    b590:	f9 ff 
    b592:	66 c7 85 b0 f6 ff ff 	movw   $0x9,-0x950(%rbp)
    b599:	09 00 
    b59b:	66 c7 85 b2 f6 ff ff 	movw   $0x0,-0x94e(%rbp)
    b5a2:	00 00 
    b5a4:	66 c7 85 b4 f6 ff ff 	movw   $0x9,-0x94c(%rbp)
    b5ab:	09 00 
    b5ad:	66 c7 85 b6 f6 ff ff 	movw   $0x4601,-0x94a(%rbp)
    b5b4:	01 46 
    b5b6:	66 c7 85 b8 f6 ff ff 	movw   $0x71af,-0x948(%rbp)
    b5bd:	af 71 
    b5bf:	66 c7 85 ba f6 ff ff 	movw   $0x71af,-0x946(%rbp)
    b5c6:	af 71 
    b5c8:	66 c7 85 bc f6 ff ff 	movw   $0x5bd5,-0x944(%rbp)
    b5cf:	d5 5b 
    b5d1:	66 c7 85 be f6 ff ff 	movw   $0x8,-0x942(%rbp)
    b5d8:	08 00 
    b5da:	66 c7 85 c0 f6 ff ff 	movw   $0xfff9,-0x940(%rbp)
    b5e1:	f9 ff 
    b5e3:	66 c7 85 c2 f6 ff ff 	movw   $0x6,-0x93e(%rbp)
    b5ea:	06 00 
    b5ec:	66 c7 85 c4 f6 ff ff 	movw   $0xfff9,-0x93c(%rbp)
    b5f3:	f9 ff 
    b5f5:	66 c7 85 c6 f6 ff ff 	movw   $0x71af,-0x93a(%rbp)
    b5fc:	af 71 
    b5fe:	66 c7 85 c8 f6 ff ff 	movw   $0x4,-0x938(%rbp)
    b605:	04 00 
    b607:	66 c7 85 ca f6 ff ff 	movw   $0xfff7,-0x936(%rbp)
    b60e:	f7 ff 
    b610:	66 c7 85 cc f6 ff ff 	movw   $0x0,-0x934(%rbp)
    b617:	00 00 
    b619:	66 c7 85 ce f6 ff ff 	movw   $0x8,-0x932(%rbp)
    b620:	08 00 
    b622:	66 c7 85 d0 f6 ff ff 	movw   $0x3f19,-0x930(%rbp)
    b629:	19 3f 
    b62b:	c7 85 74 f3 ff ff ff 	movl   $0xffffffff,-0xc8c(%rbp)
    b632:	ff ff ff 
    b635:	66 c7 85 d4 f2 ff ff 	movw   $0x1,-0xd2c(%rbp)
    b63c:	01 00 
    b63e:	c7 85 78 f3 ff ff ff 	movl   $0xffffffff,-0xc88(%rbp)
    b645:	ff ff ff 
    b648:	48 8d 85 80 fa ff ff 	lea    -0x580(%rbp),%rax
    b64f:	48 8d 15 0a 9c 00 00 	lea    0x9c0a(%rip),%rdx        # 15260 <g_3399+0x8>
    b656:	b9 24 00 00 00       	mov    $0x24,%ecx
    b65b:	48 89 c7             	mov    %rax,%rdi
    b65e:	48 89 d6             	mov    %rdx,%rsi
    b661:	f3 48 a5             	rep movsq %ds:(%rsi),%es:(%rdi)
    b664:	48 8d 05 e5 23 01 00 	lea    0x123e5(%rip),%rax        # 1da50 <g_253>
    b66b:	48 89 85 f8 f4 ff ff 	mov    %rax,-0xb08(%rbp)
    b672:	c7 85 10 f3 ff ff 00 	movl   $0x0,-0xcf0(%rbp)
    b679:	00 00 00 
    b67c:	eb 1b                	jmp    b699 <func_16+0x1df4>
    b67e:	8b 85 10 f3 ff ff    	mov    -0xcf0(%rbp),%eax
    b684:	48 98                	cltq   
    b686:	48 c7 84 c5 f0 f5 ff 	movq   $0x1,-0xa10(%rbp,%rax,8)
    b68d:	ff 01 00 00 00 
    b692:	83 85 10 f3 ff ff 01 	addl   $0x1,-0xcf0(%rbp)
    b699:	83 bd 10 f3 ff ff 06 	cmpl   $0x6,-0xcf0(%rbp)
    b6a0:	7e dc                	jle    b67e <func_16+0x1dd9>
    b6a2:	c7 85 10 f3 ff ff 00 	movl   $0x0,-0xcf0(%rbp)
    b6a9:	00 00 00 
    b6ac:	eb 1b                	jmp    b6c9 <func_16+0x1e24>
    b6ae:	8b 85 10 f3 ff ff    	mov    -0xcf0(%rbp),%eax
    b6b4:	48 98                	cltq   
    b6b6:	48 c7 84 c5 10 f5 ff 	movq   $0x0,-0xaf0(%rbp,%rax,8)
    b6bd:	ff 00 00 00 00 
    b6c2:	83 85 10 f3 ff ff 01 	addl   $0x1,-0xcf0(%rbp)
    b6c9:	83 bd 10 f3 ff ff 00 	cmpl   $0x0,-0xcf0(%rbp)
    b6d0:	7e dc                	jle    b6ae <func_16+0x1e09>
    b6d2:	c7 85 10 f3 ff ff 00 	movl   $0x0,-0xcf0(%rbp)
    b6d9:	00 00 00 
    b6dc:	eb 1e                	jmp    b6fc <func_16+0x1e57>
    b6de:	8b 85 10 f3 ff ff    	mov    -0xcf0(%rbp),%eax
    b6e4:	48 98                	cltq   
    b6e6:	48 8d 95 10 f5 ff ff 	lea    -0xaf0(%rbp),%rdx
    b6ed:	48 89 94 c5 70 f5 ff 	mov    %rdx,-0xa90(%rbp,%rax,8)
    b6f4:	ff 
    b6f5:	83 85 10 f3 ff ff 01 	addl   $0x1,-0xcf0(%rbp)
    b6fc:	83 bd 10 f3 ff ff 02 	cmpl   $0x2,-0xcf0(%rbp)
    b703:	7e d9                	jle    b6de <func_16+0x1e39>
    b705:	c7 85 10 f3 ff ff 00 	movl   $0x0,-0xcf0(%rbp)
    b70c:	00 00 00 
    b70f:	eb 4d                	jmp    b75e <func_16+0x1eb9>
    b711:	c7 85 14 f3 ff ff 00 	movl   $0x0,-0xcec(%rbp)
    b718:	00 00 00 
    b71b:	eb 31                	jmp    b74e <func_16+0x1ea9>
    b71d:	8b 85 14 f3 ff ff    	mov    -0xcec(%rbp),%eax
    b723:	48 63 c8             	movslq %eax,%rcx
    b726:	8b 85 10 f3 ff ff    	mov    -0xcf0(%rbp),%eax
    b72c:	48 63 d0             	movslq %eax,%rdx
    b72f:	48 89 d0             	mov    %rdx,%rax
    b732:	48 c1 e0 03          	shl    $0x3,%rax
    b736:	48 29 d0             	sub    %rdx,%rax
    b739:	48 01 c8             	add    %rcx,%rax
    b73c:	c7 84 85 30 f6 ff ff 	movl   $0x1,-0x9d0(%rbp,%rax,4)
    b743:	01 00 00 00 
    b747:	83 85 14 f3 ff ff 01 	addl   $0x1,-0xcec(%rbp)
    b74e:	83 bd 14 f3 ff ff 06 	cmpl   $0x6,-0xcec(%rbp)
    b755:	7e c6                	jle    b71d <func_16+0x1e78>
    b757:	83 85 10 f3 ff ff 01 	addl   $0x1,-0xcf0(%rbp)
    b75e:	83 bd 10 f3 ff ff 01 	cmpl   $0x1,-0xcf0(%rbp)
    b765:	7e aa                	jle    b711 <func_16+0x1e6c>
    b767:	48 8b 85 b8 f2 ff ff 	mov    -0xd48(%rbp),%rax
    b76e:	8b 00                	mov    (%rax),%eax
    b770:	85 c0                	test   %eax,%eax
    b772:	0f 84 46 04 00 00    	je     bbbe <func_16+0x2319>
    b778:	48 8d 85 40 f5 ff ff 	lea    -0xac0(%rbp),%rax
    b77f:	48 89 85 d8 f3 ff ff 	mov    %rax,-0xc28(%rbp)
    b786:	48 8d 85 d8 f3 ff ff 	lea    -0xc28(%rbp),%rax
    b78d:	48 89 85 40 fe ff ff 	mov    %rax,-0x1c0(%rbp)
    b794:	48 8d 85 d8 f3 ff ff 	lea    -0xc28(%rbp),%rax
    b79b:	48 89 85 48 fe ff ff 	mov    %rax,-0x1b8(%rbp)
    b7a2:	48 c7 85 50 fe ff ff 	movq   $0x0,-0x1b0(%rbp)
    b7a9:	00 00 00 00 
    b7ad:	48 c7 85 58 fe ff ff 	movq   $0x0,-0x1a8(%rbp)
    b7b4:	00 00 00 00 
    b7b8:	48 8d 85 d8 f3 ff ff 	lea    -0xc28(%rbp),%rax
    b7bf:	48 89 85 60 fe ff ff 	mov    %rax,-0x1a0(%rbp)
    b7c6:	48 8d 85 d8 f3 ff ff 	lea    -0xc28(%rbp),%rax
    b7cd:	48 89 85 68 fe ff ff 	mov    %rax,-0x198(%rbp)
    b7d4:	48 8d 85 d8 f3 ff ff 	lea    -0xc28(%rbp),%rax
    b7db:	48 89 85 70 fe ff ff 	mov    %rax,-0x190(%rbp)
    b7e2:	48 8d 85 d8 f3 ff ff 	lea    -0xc28(%rbp),%rax
    b7e9:	48 89 85 78 fe ff ff 	mov    %rax,-0x188(%rbp)
    b7f0:	48 c7 85 80 fe ff ff 	movq   $0x0,-0x180(%rbp)
    b7f7:	00 00 00 00 
    b7fb:	48 8d 85 d8 f3 ff ff 	lea    -0xc28(%rbp),%rax
    b802:	48 89 85 88 fe ff ff 	mov    %rax,-0x178(%rbp)
    b809:	48 8d 85 d8 f3 ff ff 	lea    -0xc28(%rbp),%rax
    b810:	48 89 85 90 fe ff ff 	mov    %rax,-0x170(%rbp)
    b817:	48 c7 85 98 fe ff ff 	movq   $0x0,-0x168(%rbp)
    b81e:	00 00 00 00 
    b822:	48 8d 85 d8 f3 ff ff 	lea    -0xc28(%rbp),%rax
    b829:	48 89 85 a0 fe ff ff 	mov    %rax,-0x160(%rbp)
    b830:	48 8d 85 d8 f3 ff ff 	lea    -0xc28(%rbp),%rax
    b837:	48 89 85 a8 fe ff ff 	mov    %rax,-0x158(%rbp)
    b83e:	48 8d 85 d8 f3 ff ff 	lea    -0xc28(%rbp),%rax
    b845:	48 89 85 b0 fe ff ff 	mov    %rax,-0x150(%rbp)
    b84c:	48 8d 85 d8 f3 ff ff 	lea    -0xc28(%rbp),%rax
    b853:	48 89 85 b8 fe ff ff 	mov    %rax,-0x148(%rbp)
    b85a:	48 c7 85 c0 fe ff ff 	movq   $0x0,-0x140(%rbp)
    b861:	00 00 00 00 
    b865:	48 c7 85 c8 fe ff ff 	movq   $0x0,-0x138(%rbp)
    b86c:	00 00 00 00 
    b870:	48 8d 85 d8 f3 ff ff 	lea    -0xc28(%rbp),%rax
    b877:	48 89 85 d0 fe ff ff 	mov    %rax,-0x130(%rbp)
    b87e:	48 8d 85 d8 f3 ff ff 	lea    -0xc28(%rbp),%rax
    b885:	48 89 85 d8 fe ff ff 	mov    %rax,-0x128(%rbp)
    b88c:	48 8d 85 d8 f3 ff ff 	lea    -0xc28(%rbp),%rax
    b893:	48 89 85 e0 fe ff ff 	mov    %rax,-0x120(%rbp)
    b89a:	48 8d 85 d8 f3 ff ff 	lea    -0xc28(%rbp),%rax
    b8a1:	48 89 85 e8 fe ff ff 	mov    %rax,-0x118(%rbp)
    b8a8:	48 c7 85 f0 fe ff ff 	movq   $0x0,-0x110(%rbp)
    b8af:	00 00 00 00 
    b8b3:	48 8d 85 d8 f3 ff ff 	lea    -0xc28(%rbp),%rax
    b8ba:	48 89 85 f8 fe ff ff 	mov    %rax,-0x108(%rbp)
    b8c1:	48 8d 85 d8 f3 ff ff 	lea    -0xc28(%rbp),%rax
    b8c8:	48 89 85 00 ff ff ff 	mov    %rax,-0x100(%rbp)
    b8cf:	48 c7 85 08 ff ff ff 	movq   $0x0,-0xf8(%rbp)
    b8d6:	00 00 00 00 
    b8da:	48 8d 85 d8 f3 ff ff 	lea    -0xc28(%rbp),%rax
    b8e1:	48 89 85 10 ff ff ff 	mov    %rax,-0xf0(%rbp)
    b8e8:	48 8d 85 d8 f3 ff ff 	lea    -0xc28(%rbp),%rax
    b8ef:	48 89 85 18 ff ff ff 	mov    %rax,-0xe8(%rbp)
    b8f6:	48 8d 85 d8 f3 ff ff 	lea    -0xc28(%rbp),%rax
    b8fd:	48 89 85 20 ff ff ff 	mov    %rax,-0xe0(%rbp)
    b904:	48 8d 85 d8 f3 ff ff 	lea    -0xc28(%rbp),%rax
    b90b:	48 89 85 28 ff ff ff 	mov    %rax,-0xd8(%rbp)
    b912:	48 c7 85 30 ff ff ff 	movq   $0x0,-0xd0(%rbp)
    b919:	00 00 00 00 
    b91d:	48 c7 85 38 ff ff ff 	movq   $0x0,-0xc8(%rbp)
    b924:	00 00 00 00 
    b928:	48 8d 85 d8 f3 ff ff 	lea    -0xc28(%rbp),%rax
    b92f:	48 89 85 40 ff ff ff 	mov    %rax,-0xc0(%rbp)
    b936:	48 8d 85 d8 f3 ff ff 	lea    -0xc28(%rbp),%rax
    b93d:	48 89 85 48 ff ff ff 	mov    %rax,-0xb8(%rbp)
    b944:	48 8d 85 d8 f3 ff ff 	lea    -0xc28(%rbp),%rax
    b94b:	48 89 85 50 ff ff ff 	mov    %rax,-0xb0(%rbp)
    b952:	48 8d 85 d8 f3 ff ff 	lea    -0xc28(%rbp),%rax
    b959:	48 89 85 58 ff ff ff 	mov    %rax,-0xa8(%rbp)
    b960:	48 8d 85 d8 f3 ff ff 	lea    -0xc28(%rbp),%rax
    b967:	48 89 85 60 ff ff ff 	mov    %rax,-0xa0(%rbp)
    b96e:	48 8d 85 d8 f3 ff ff 	lea    -0xc28(%rbp),%rax
    b975:	48 89 85 68 ff ff ff 	mov    %rax,-0x98(%rbp)
    b97c:	48 8d 85 d8 f3 ff ff 	lea    -0xc28(%rbp),%rax
    b983:	48 89 85 70 ff ff ff 	mov    %rax,-0x90(%rbp)
    b98a:	48 8d 85 d8 f3 ff ff 	lea    -0xc28(%rbp),%rax
    b991:	48 89 85 78 ff ff ff 	mov    %rax,-0x88(%rbp)
    b998:	48 8d 85 d8 f3 ff ff 	lea    -0xc28(%rbp),%rax
    b99f:	48 89 45 80          	mov    %rax,-0x80(%rbp)
    b9a3:	48 8d 85 d8 f3 ff ff 	lea    -0xc28(%rbp),%rax
    b9aa:	48 89 45 88          	mov    %rax,-0x78(%rbp)
    b9ae:	48 8d 85 d8 f3 ff ff 	lea    -0xc28(%rbp),%rax
    b9b5:	48 89 45 90          	mov    %rax,-0x70(%rbp)
    b9b9:	48 c7 45 98 00 00 00 	movq   $0x0,-0x68(%rbp)
    b9c0:	00 
    b9c1:	48 8d 85 d8 f3 ff ff 	lea    -0xc28(%rbp),%rax
    b9c8:	48 89 45 a0          	mov    %rax,-0x60(%rbp)
    b9cc:	48 8d 85 d8 f3 ff ff 	lea    -0xc28(%rbp),%rax
    b9d3:	48 89 45 a8          	mov    %rax,-0x58(%rbp)
    b9d7:	48 c7 45 b0 00 00 00 	movq   $0x0,-0x50(%rbp)
    b9de:	00 
    b9df:	48 8d 85 d8 f3 ff ff 	lea    -0xc28(%rbp),%rax
    b9e6:	48 89 45 b8          	mov    %rax,-0x48(%rbp)
    b9ea:	48 8d 85 d8 f3 ff ff 	lea    -0xc28(%rbp),%rax
    b9f1:	48 89 45 c0          	mov    %rax,-0x40(%rbp)
    b9f5:	48 8d 85 40 fe ff ff 	lea    -0x1c0(%rbp),%rax
    b9fc:	48 83 c0 28          	add    $0x28,%rax
    ba00:	48 89 85 00 f5 ff ff 	mov    %rax,-0xb00(%rbp)
    ba07:	c7 85 88 f3 ff ff 01 	movl   $0x1,-0xc78(%rbp)
    ba0e:	00 00 00 
    ba11:	c7 85 18 f3 ff ff 00 	movl   $0x0,-0xce8(%rbp)
    ba18:	00 00 00 
    ba1b:	eb 43                	jmp    ba60 <func_16+0x21bb>
    ba1d:	c7 85 1c f3 ff ff 00 	movl   $0x0,-0xce4(%rbp)
    ba24:	00 00 00 
    ba27:	eb 27                	jmp    ba50 <func_16+0x21ab>
    ba29:	8b 85 1c f3 ff ff    	mov    -0xce4(%rbp),%eax
    ba2f:	48 63 d0             	movslq %eax,%rdx
    ba32:	8b 85 18 f3 ff ff    	mov    -0xce8(%rbp),%eax
    ba38:	48 98                	cltq   
    ba3a:	48 01 d0             	add    %rdx,%rax
    ba3d:	48 c7 84 c5 40 f5 ff 	movq   $0x0,-0xac0(%rbp,%rax,8)
    ba44:	ff 00 00 00 00 
    ba49:	83 85 1c f3 ff ff 01 	addl   $0x1,-0xce4(%rbp)
    ba50:	83 bd 1c f3 ff ff 00 	cmpl   $0x0,-0xce4(%rbp)
    ba57:	7e d0                	jle    ba29 <func_16+0x2184>
    ba59:	83 85 18 f3 ff ff 01 	addl   $0x1,-0xce8(%rbp)
    ba60:	83 bd 18 f3 ff ff 01 	cmpl   $0x1,-0xce8(%rbp)
    ba67:	7e b4                	jle    ba1d <func_16+0x2178>
    ba69:	48 8b 85 88 f4 ff ff 	mov    -0xb78(%rbp),%rax
    ba70:	8b 00                	mov    (%rax),%eax
    ba72:	41 89 c4             	mov    %eax,%r12d
    ba75:	48 8b 05 94 18 01 00 	mov    0x11894(%rip),%rax        # 1d310 <g_3135>
    ba7c:	8b 18                	mov    (%rax),%ebx
    ba7e:	48 8b 85 10 f6 ff ff 	mov    -0x9f0(%rbp),%rax
    ba85:	0f b6 d0             	movzbl %al,%edx
    ba88:	48 8b 05 99 08 01 00 	mov    0x10899(%rip),%rax        # 1c328 <g_1662>
    ba8f:	c6 00 00             	movb   $0x0,(%rax)
    ba92:	48 8b 85 f0 f4 ff ff 	mov    -0xb10(%rbp),%rax
    ba99:	c6 00 00             	movb   $0x0,(%rax)
    ba9c:	48 8b 85 f0 f4 ff ff 	mov    -0xb10(%rbp),%rax
    baa3:	0f b6 00             	movzbl (%rax),%eax
    baa6:	0f b6 c0             	movzbl %al,%eax
    baa9:	89 d6                	mov    %edx,%esi
    baab:	89 c7                	mov    %eax,%edi
    baad:	e8 e1 d0 ff ff       	callq  8b93 <safe_mul_func_uint8_t_u_u>
    bab2:	0f b6 c0             	movzbl %al,%eax
    bab5:	89 c6                	mov    %eax,%esi
    bab7:	bf 6d 00 00 00       	mov    $0x6d,%edi
    babc:	e8 44 d1 ff ff       	callq  8c05 <safe_lshift_func_uint8_t_u_s>
    bac1:	48 8b 85 b8 f4 ff ff 	mov    -0xb48(%rbp),%rax
    bac8:	8b 00                	mov    (%rax),%eax
    baca:	0b 85 88 f3 ff ff    	or     -0xc78(%rbp),%eax
    bad0:	83 f8 01             	cmp    $0x1,%eax
    bad3:	0f 94 c0             	sete   %al
    bad6:	0f b6 d0             	movzbl %al,%edx
    bad9:	48 8b 85 c8 f4 ff ff 	mov    -0xb38(%rbp),%rax
    bae0:	8b 00                	mov    (%rax),%eax
    bae2:	39 85 88 f3 ff ff    	cmp    %eax,-0xc78(%rbp)
    bae8:	0f 9c c0             	setl   %al
    baeb:	0f b6 c0             	movzbl %al,%eax
    baee:	89 d6                	mov    %edx,%esi
    baf0:	89 c7                	mov    %eax,%edi
    baf2:	e8 1b c7 ff ff       	callq  8212 <safe_mul_func_int8_t_s_s>
    baf7:	48 c7 c6 fd ff ff ff 	mov    $0xfffffffffffffffd,%rsi
    bafe:	bf 00 00 00 00       	mov    $0x0,%edi
    bb03:	e8 a7 d5 ff ff       	callq  90af <safe_div_func_uint64_t_u_u>
    bb08:	89 85 f8 f2 ff ff    	mov    %eax,-0xd08(%rbp)
    bb0e:	8b 85 e0 f2 ff ff    	mov    -0xd20(%rbp),%eax
    bb14:	c1 e8 1f             	shr    $0x1f,%eax
    bb17:	0f b6 c0             	movzbl %al,%eax
    bb1a:	be 01 00 00 00       	mov    $0x1,%esi
    bb1f:	48 89 c7             	mov    %rax,%rdi
    bb22:	e8 8d ce ff ff       	callq  89b4 <safe_mod_func_int64_t_s_s>
    bb27:	48 85 c0             	test   %rax,%rax
    bb2a:	75 0c                	jne    bb38 <func_16+0x2293>
    bb2c:	48 8b 85 10 f6 ff ff 	mov    -0x9f0(%rbp),%rax
    bb33:	48 85 c0             	test   %rax,%rax
    bb36:	74 07                	je     bb3f <func_16+0x229a>
    bb38:	b8 01 00 00 00       	mov    $0x1,%eax
    bb3d:	eb 05                	jmp    bb44 <func_16+0x229f>
    bb3f:	b8 00 00 00 00       	mov    $0x0,%eax
    bb44:	98                   	cwtl   
    bb45:	be 0a 00 00 00       	mov    $0xa,%esi
    bb4a:	89 c7                	mov    %eax,%edi
    bb4c:	e8 90 c9 ff ff       	callq  84e1 <safe_lshift_func_int16_t_s_u>
    bb51:	98                   	cwtl   
    bb52:	be 03 00 00 00       	mov    $0x3,%esi
    bb57:	89 c7                	mov    %eax,%edi
    bb59:	e8 34 c9 ff ff       	callq  8492 <safe_lshift_func_int16_t_s_s>
    bb5e:	48 8b 85 78 f5 ff ff 	mov    -0xa88(%rbp),%rax
    bb65:	48 39 85 00 f5 ff ff 	cmp    %rax,-0xb00(%rbp)
    bb6c:	0f 94 c0             	sete   %al
    bb6f:	0f b6 c0             	movzbl %al,%eax
    bb72:	89 de                	mov    %ebx,%esi
    bb74:	89 c7                	mov    %eax,%edi
    bb76:	e8 51 cb ff ff       	callq  86cc <safe_mod_func_int32_t_s_s>
    bb7b:	85 c0                	test   %eax,%eax
    bb7d:	78 07                	js     bb86 <func_16+0x22e1>
    bb7f:	83 bd 44 f3 ff ff 00 	cmpl   $0x0,-0xcbc(%rbp)
    bb86:	44 89 e6             	mov    %r12d,%esi
    bb89:	bf 01 00 00 00       	mov    $0x1,%edi
    bb8e:	e8 d9 c7 ff ff       	callq  836c <safe_rshift_func_int8_t_s_u>
    bb93:	0f be c0             	movsbl %al,%eax
    bb96:	89 85 04 f3 ff ff    	mov    %eax,-0xcfc(%rbp)
    bb9c:	48 8b 05 a5 15 01 00 	mov    0x115a5(%rip),%rax        # 1d148 <g_1786>
    bba3:	48 8b 00             	mov    (%rax),%rax
    bba6:	8b 95 88 f3 ff ff    	mov    -0xc78(%rbp),%edx
    bbac:	89 10                	mov    %edx,(%rax)
    bbae:	48 c7 05 07 d9 00 00 	movq   $0x0,0xd907(%rip)        # 194c0 <g_1878>
    bbb5:	00 00 00 00 
    bbb9:	e9 1f 03 00 00       	jmpq   bedd <func_16+0x2638>
    bbbe:	c7 85 7c f3 ff ff 45 	movl   $0x1f04f845,-0xc84(%rbp)
    bbc5:	f8 04 1f 
    bbc8:	c7 85 80 f3 ff ff 0e 	movl   $0x7f71f50e,-0xc80(%rbp)
    bbcf:	f5 71 7f 
    bbd2:	c7 85 84 f3 ff ff f9 	movl   $0xfffffff9,-0xc7c(%rbp)
    bbd9:	ff ff ff 
    bbdc:	c7 85 20 f3 ff ff 00 	movl   $0x0,-0xce0(%rbp)
    bbe3:	00 00 00 
    bbe6:	eb 45                	jmp    bc2d <func_16+0x2388>
    bbe8:	c7 85 24 f3 ff ff 00 	movl   $0x0,-0xcdc(%rbp)
    bbef:	00 00 00 
    bbf2:	eb 29                	jmp    bc1d <func_16+0x2378>
    bbf4:	8b 85 24 f3 ff ff    	mov    -0xcdc(%rbp),%eax
    bbfa:	48 98                	cltq   
    bbfc:	8b 95 20 f3 ff ff    	mov    -0xce0(%rbp),%edx
    bc02:	48 63 d2             	movslq %edx,%rdx
    bc05:	48 01 d2             	add    %rdx,%rdx
    bc08:	48 01 d0             	add    %rdx,%rax
    bc0b:	c7 84 85 40 fe ff ff 	movl   $0x1,-0x1c0(%rbp,%rax,4)
    bc12:	01 00 00 00 
    bc16:	83 85 24 f3 ff ff 01 	addl   $0x1,-0xcdc(%rbp)
    bc1d:	83 bd 24 f3 ff ff 01 	cmpl   $0x1,-0xcdc(%rbp)
    bc24:	7e ce                	jle    bbf4 <func_16+0x234f>
    bc26:	83 85 20 f3 ff ff 01 	addl   $0x1,-0xce0(%rbp)
    bc2d:	83 bd 20 f3 ff ff 01 	cmpl   $0x1,-0xce0(%rbp)
    bc34:	7e b2                	jle    bbe8 <func_16+0x2343>
    bc36:	48 8b 85 c0 f4 ff ff 	mov    -0xb40(%rbp),%rax
    bc3d:	8b 00                	mov    (%rax),%eax
    bc3f:	35 58 10 70 ad       	xor    $0xad701058,%eax
    bc44:	89 c2                	mov    %eax,%edx
    bc46:	48 8b 85 c0 f4 ff ff 	mov    -0xb40(%rbp),%rax
    bc4d:	89 10                	mov    %edx,(%rax)
    bc4f:	0f b7 85 ba f6 ff ff 	movzwl -0x946(%rbp),%eax
    bc56:	83 c0 01             	add    $0x1,%eax
    bc59:	66 89 85 ba f6 ff ff 	mov    %ax,-0x946(%rbp)
    bc60:	83 85 74 f3 ff ff 01 	addl   $0x1,-0xc8c(%rbp)
    bc67:	8b 85 38 f6 ff ff    	mov    -0x9c8(%rbp),%eax
    bc6d:	e9 22 08 00 00       	jmpq   c494 <func_16+0x2bef>
    bc72:	c7 85 8c f3 ff ff 01 	movl   $0x1,-0xc74(%rbp)
    bc79:	00 00 00 
    bc7c:	c7 85 90 f3 ff ff 9f 	movl   $0x93f9719f,-0xc70(%rbp)
    bc83:	71 f9 93 
    bc86:	c7 85 94 f3 ff ff 8f 	movl   $0x2228bd8f,-0xc6c(%rbp)
    bc8d:	bd 28 22 
    bc90:	c7 85 98 f3 ff ff 40 	movl   $0x7113a640,-0xc68(%rbp)
    bc97:	a6 13 71 
    bc9a:	c7 85 9c f3 ff ff 01 	movl   $0x1,-0xc64(%rbp)
    bca1:	00 00 00 
    bca4:	c7 85 a0 f3 ff ff c1 	movl   $0x7e33adc1,-0xc60(%rbp)
    bcab:	ad 33 7e 
    bcae:	c7 85 a4 f3 ff ff f6 	movl   $0xfffffff6,-0xc5c(%rbp)
    bcb5:	ff ff ff 
    bcb8:	c7 85 a8 f3 ff ff 86 	movl   $0x32826586,-0xc58(%rbp)
    bcbf:	65 82 32 
    bcc2:	66 c7 85 de f2 ff ff 	movw   $0x90d8,-0xd22(%rbp)
    bcc9:	d8 90 
    bccb:	48 c7 85 d8 f3 ff ff 	movq   $0x0,-0xc28(%rbp)
    bcd2:	00 00 00 00 
    bcd6:	48 8d 85 d8 f3 ff ff 	lea    -0xc28(%rbp),%rax
    bcdd:	48 89 85 08 f5 ff ff 	mov    %rax,-0xaf8(%rbp)
    bce4:	c7 85 28 f3 ff ff 00 	movl   $0x0,-0xcd8(%rbp)
    bceb:	00 00 00 
    bcee:	eb 21                	jmp    bd11 <func_16+0x246c>
    bcf0:	8b 85 28 f3 ff ff    	mov    -0xcd8(%rbp),%eax
    bcf6:	48 98                	cltq   
    bcf8:	48 bb 5d 25 21 d7 bf 	movabs $0xb4ab6ebfd721255d,%rbx
    bcff:	6e ab b4 
    bd02:	48 89 9c c5 40 fe ff 	mov    %rbx,-0x1c0(%rbp,%rax,8)
    bd09:	ff 
    bd0a:	83 85 28 f3 ff ff 01 	addl   $0x1,-0xcd8(%rbp)
    bd11:	83 bd 28 f3 ff ff 06 	cmpl   $0x6,-0xcd8(%rbp)
    bd18:	7e d6                	jle    bcf0 <func_16+0x244b>
    bd1a:	66 83 85 d4 f2 ff ff 	addw   $0x1,-0xd2c(%rbp)
    bd21:	01 
    bd22:	0f b7 85 d4 f2 ff ff 	movzwl -0xd2c(%rbp),%eax
    bd29:	98                   	cwtl   
    bd2a:	89 c6                	mov    %eax,%esi
    bd2c:	bf ff ff ff ff       	mov    $0xffffffff,%edi
    bd31:	e8 bf c6 ff ff       	callq  83f5 <safe_mul_func_int16_t_s_s>
    bd36:	48 8b 95 c8 f4 ff ff 	mov    -0xb38(%rbp),%rdx
    bd3d:	8b 12                	mov    (%rdx),%edx
    bd3f:	98                   	cwtl   
    bd40:	21 c2                	and    %eax,%edx
    bd42:	48 8b 85 c8 f4 ff ff 	mov    -0xb38(%rbp),%rax
    bd49:	89 10                	mov    %edx,(%rax)
    bd4b:	83 85 8c f3 ff ff 01 	addl   $0x1,-0xc74(%rbp)
    bd52:	0f b7 85 de f2 ff ff 	movzwl -0xd22(%rbp),%eax
    bd59:	83 e8 01             	sub    $0x1,%eax
    bd5c:	66 89 85 de f2 ff ff 	mov    %ax,-0xd22(%rbp)
    bd63:	8b 85 74 f3 ff ff    	mov    -0xc8c(%rbp),%eax
    bd69:	0f b7 d8             	movzwl %ax,%ebx
    bd6c:	48 8b 85 50 f4 ff ff 	mov    -0xbb0(%rbp),%rax
    bd73:	48 89 05 ae 15 01 00 	mov    %rax,0x115ae(%rip)        # 1d328 <g_3398+0x8>
    bd7a:	48 8b 95 d8 f3 ff ff 	mov    -0xc28(%rbp),%rdx
    bd81:	48 8b 85 08 f5 ff ff 	mov    -0xaf8(%rbp),%rax
    bd88:	48 89 10             	mov    %rdx,(%rax)
    bd8b:	0f b6 05 ae e0 00 00 	movzbl 0xe0ae(%rip),%eax        # 19e40 <g_2842>
    bd92:	0f b6 c0             	movzbl %al,%eax
    bd95:	48 98                	cltq   
    bd97:	0f b7 84 45 1c f5 ff 	movzwl -0xae4(%rbp,%rax,2),%eax
    bd9e:	ff 
    bd9f:	44 0f bf e0          	movswl %ax,%r12d
    bda3:	8b 95 34 f3 ff ff    	mov    -0xccc(%rbp),%edx
    bda9:	8b 85 f0 f2 ff ff    	mov    -0xd10(%rbp),%eax
    bdaf:	0f b7 c0             	movzwl %ax,%eax
    bdb2:	89 d6                	mov    %edx,%esi
    bdb4:	89 c7                	mov    %eax,%edi
    bdb6:	e8 4b d0 ff ff       	callq  8e06 <safe_lshift_func_uint16_t_u_u>
    bdbb:	0f b7 c0             	movzwl %ax,%eax
    bdbe:	44 89 e6             	mov    %r12d,%esi
    bdc1:	89 c7                	mov    %eax,%edi
    bdc3:	e8 80 d0 ff ff       	callq  8e48 <safe_rshift_func_uint16_t_u_s>
    bdc8:	0f b7 d0             	movzwl %ax,%edx
    bdcb:	48 8b 85 b8 f4 ff ff 	mov    -0xb48(%rbp),%rax
    bdd2:	8b 00                	mov    (%rax),%eax
    bdd4:	0f b7 c0             	movzwl %ax,%eax
    bdd7:	89 d6                	mov    %edx,%esi
    bdd9:	89 c7                	mov    %eax,%edi
    bddb:	e8 5d cf ff ff       	callq  8d3d <safe_mul_func_uint16_t_u_u>
    bde0:	0f b7 d0             	movzwl %ax,%edx
    bde3:	8b 85 30 f3 ff ff    	mov    -0xcd0(%rbp),%eax
    bde9:	89 d6                	mov    %edx,%esi
    bdeb:	89 c7                	mov    %eax,%edi
    bded:	e8 c6 d0 ff ff       	callq  8eb8 <safe_add_func_uint32_t_u_u>
    bdf2:	89 85 6c f3 ff ff    	mov    %eax,-0xc94(%rbp)
    bdf8:	48 8b 85 d8 f4 ff ff 	mov    -0xb28(%rbp),%rax
    bdff:	48 3b 85 f8 f4 ff ff 	cmp    -0xb08(%rbp),%rax
    be06:	0f 94 c0             	sete   %al
    be09:	0f b6 d0             	movzbl %al,%edx
    be0c:	0f b7 85 22 f5 ff ff 	movzwl -0xade(%rbp),%eax
    be13:	48 0f bf c8          	movswq %ax,%rcx
    be17:	48 c7 85 40 fe ff ff 	movq   $0x2,-0x1c0(%rbp)
    be1e:	02 00 00 00 
    be22:	48 8b 85 40 fe ff ff 	mov    -0x1c0(%rbp),%rax
    be29:	48 39 c1             	cmp    %rax,%rcx
    be2c:	72 0c                	jb     be3a <func_16+0x2595>
    be2e:	48 b8 a3 2f fd c3 94 	movabs $0x9c489c94c3fd2fa3,%rax
    be35:	9c 48 9c 
    be38:	eb 0a                	jmp    be44 <func_16+0x259f>
    be3a:	48 b8 a2 2f fd c3 94 	movabs $0x9c489c94c3fd2fa2,%rax
    be41:	9c 48 9c 
    be44:	48 39 d0             	cmp    %rdx,%rax
    be47:	73 0f                	jae    be58 <func_16+0x25b3>
    be49:	48 8b 05 b0 01 01 00 	mov    0x101b0(%rip),%rax        # 1c000 <g_200>
    be50:	0f b7 00             	movzwl (%rax),%eax
    be53:	66 85 c0             	test   %ax,%ax
    be56:	74 07                	je     be5f <func_16+0x25ba>
    be58:	b8 01 00 00 00       	mov    $0x1,%eax
    be5d:	eb 05                	jmp    be64 <func_16+0x25bf>
    be5f:	b8 00 00 00 00       	mov    $0x0,%eax
    be64:	48 63 d0             	movslq %eax,%rdx
    be67:	48 8b 05 4a d4 00 00 	mov    0xd44a(%rip),%rax        # 192b8 <g_570>
    be6e:	48 39 c2             	cmp    %rax,%rdx
    be71:	0f 94 c0             	sete   %al
    be74:	0f b6 d0             	movzbl %al,%edx
    be77:	48 8b 05 aa 04 01 00 	mov    0x104aa(%rip),%rax        # 1c328 <g_1662>
    be7e:	0f b6 00             	movzbl (%rax),%eax
    be81:	0f be c0             	movsbl %al,%eax
    be84:	39 c2                	cmp    %eax,%edx
    be86:	0f 9f c0             	setg   %al
    be89:	0f b6 c0             	movzbl %al,%eax
    be8c:	89 c7                	mov    %eax,%edi
    be8e:	e8 0a c5 ff ff       	callq  839d <safe_unary_minus_func_int16_t_s>
    be93:	89 de                	mov    %ebx,%esi
    be95:	bf fc ff 00 00       	mov    $0xfffc,%edi
    be9a:	e8 9e ce ff ff       	callq  8d3d <safe_mul_func_uint16_t_u_u>
    be9f:	89 c1                	mov    %eax,%ecx
    bea1:	48 8b 85 c0 f3 ff ff 	mov    -0xc40(%rbp),%rax
    bea8:	0f b6 10             	movzbl (%rax),%edx
    beab:	48 8b 85 c0 f3 ff ff 	mov    -0xc40(%rbp),%rax
    beb2:	21 ca                	and    %ecx,%edx
    beb4:	88 10                	mov    %dl,(%rax)
    beb6:	48 8b 05 cb 12 01 00 	mov    0x112cb(%rip),%rax        # 1d188 <g_1983>
    bebd:	48 8b 10             	mov    (%rax),%rdx
    bec0:	48 8b 05 21 03 01 00 	mov    0x10321(%rip),%rax        # 1c1e8 <g_589>
    bec7:	8b 12                	mov    (%rdx),%edx
    bec9:	89 10                	mov    %edx,(%rax)
    becb:	48 8b 05 ee d5 00 00 	mov    0xd5ee(%rip),%rax        # 194c0 <g_1878>
    bed2:	48 83 c0 01          	add    $0x1,%rax
    bed6:	48 89 05 e3 d5 00 00 	mov    %rax,0xd5e3(%rip)        # 194c0 <g_1878>
    bedd:	48 8b 05 dc d5 00 00 	mov    0xd5dc(%rip),%rax        # 194c0 <g_1878>
    bee4:	48 83 f8 01          	cmp    $0x1,%rax
    bee8:	0f 86 84 fd ff ff    	jbe    bc72 <func_16+0x23cd>
    beee:	8b 95 2c f9 ff ff    	mov    -0x6d4(%rbp),%edx
    bef4:	48 8b 85 c0 f3 ff ff 	mov    -0xc40(%rbp),%rax
    befb:	88 10                	mov    %dl,(%rax)
    befd:	0f b6 10             	movzbl (%rax),%edx
    bf00:	48 8b 85 f0 f4 ff ff 	mov    -0xb10(%rbp),%rax
    bf07:	88 10                	mov    %dl,(%rax)
    bf09:	48 8b 85 f0 f4 ff ff 	mov    -0xb10(%rbp),%rax
    bf10:	0f b6 00             	movzbl (%rax),%eax
    bf13:	0f b6 c0             	movzbl %al,%eax
    bf16:	be 03 00 00 00       	mov    $0x3,%esi
    bf1b:	89 c7                	mov    %eax,%edi
    bf1d:	e8 e3 cc ff ff       	callq  8c05 <safe_lshift_func_uint8_t_u_s>
    bf22:	b9 01 00 00 00       	mov    $0x1,%ecx
    bf27:	48 8b 05 ba 02 01 00 	mov    0x102ba(%rip),%rax        # 1c1e8 <g_589>
    bf2e:	8b 10                	mov    (%rax),%edx
    bf30:	48 8b 05 b1 02 01 00 	mov    0x102b1(%rip),%rax        # 1c1e8 <g_589>
    bf37:	31 ca                	xor    %ecx,%edx
    bf39:	89 10                	mov    %edx,(%rax)
    bf3b:	8b 85 48 f3 ff ff    	mov    -0xcb8(%rbp),%eax
    bf41:	48 63 d8             	movslq %eax,%rbx
    bf44:	8b 85 a8 f5 ff ff    	mov    -0xa58(%rbp),%eax
    bf4a:	4c 63 e0             	movslq %eax,%r12
    bf4d:	0f b6 05 ec de 00 00 	movzbl 0xdeec(%rip),%eax        # 19e40 <g_2842>
    bf54:	0f b6 c0             	movzbl %al,%eax
    bf57:	48 98                	cltq   
    bf59:	0f b7 84 45 1c f5 ff 	movzwl -0xae4(%rbp,%rax,2),%eax
    bf60:	ff 
    bf61:	48 0f bf d0          	movswq %ax,%rdx
    bf65:	0f b7 85 22 f5 ff ff 	movzwl -0xade(%rbp),%eax
    bf6c:	48 0f bf c0          	movswq %ax,%rax
    bf70:	48 89 d6             	mov    %rdx,%rsi
    bf73:	48 89 c7             	mov    %rax,%rdi
    bf76:	e8 d0 d0 ff ff       	callq  904b <safe_sub_func_uint64_t_u_u>
    bf7b:	41 89 c5             	mov    %eax,%r13d
    bf7e:	be 05 00 00 00       	mov    $0x5,%esi
    bf83:	bf 81 ff ff ff       	mov    $0xffffff81,%edi
    bf88:	e8 a8 c3 ff ff       	callq  8335 <safe_rshift_func_int8_t_s_s>
    bf8d:	89 c2                	mov    %eax,%edx
    bf8f:	48 8b 85 c0 f3 ff ff 	mov    -0xc40(%rbp),%rax
    bf96:	88 10                	mov    %dl,(%rax)
    bf98:	0f b6 00             	movzbl (%rax),%eax
    bf9b:	0f b6 c0             	movzbl %al,%eax
    bf9e:	44 89 ee             	mov    %r13d,%esi
    bfa1:	89 c7                	mov    %eax,%edi
    bfa3:	e8 5d cc ff ff       	callq  8c05 <safe_lshift_func_uint8_t_u_s>
    bfa8:	84 c0                	test   %al,%al
    bfaa:	75 17                	jne    bfc3 <func_16+0x271e>
    bfac:	83 bd 60 f3 ff ff 00 	cmpl   $0x0,-0xca0(%rbp)
    bfb3:	0f 95 c0             	setne  %al
    bfb6:	0f b6 c0             	movzbl %al,%eax
    bfb9:	23 85 70 f3 ff ff    	and    -0xc90(%rbp),%eax
    bfbf:	85 c0                	test   %eax,%eax
    bfc1:	74 07                	je     bfca <func_16+0x2725>
    bfc3:	b8 01 00 00 00       	mov    $0x1,%eax
    bfc8:	eb 05                	jmp    bfcf <func_16+0x272a>
    bfca:	b8 00 00 00 00       	mov    $0x0,%eax
    bfcf:	48 98                	cltq   
    bfd1:	4c 89 e6             	mov    %r12,%rsi
    bfd4:	48 89 c7             	mov    %rax,%rdi
    bfd7:	e8 d8 c9 ff ff       	callq  89b4 <safe_mod_func_int64_t_s_s>
    bfdc:	48 89 de             	mov    %rbx,%rsi
    bfdf:	48 89 c7             	mov    %rax,%rdi
    bfe2:	e8 c8 d0 ff ff       	callq  90af <safe_div_func_uint64_t_u_u>
    bfe7:	0f b6 d8             	movzbl %al,%ebx
    bfea:	be 06 00 00 00       	mov    $0x6,%esi
    bfef:	bf 81 dd ff ff       	mov    $0xffffdd81,%edi
    bff4:	e8 31 c5 ff ff       	callq  852a <safe_rshift_func_int16_t_s_s>
    bff9:	0f b6 c0             	movzbl %al,%eax
    bffc:	89 de                	mov    %ebx,%esi
    bffe:	89 c7                	mov    %eax,%edi
    c000:	e8 8e cb ff ff       	callq  8b93 <safe_mul_func_uint8_t_u_u>
    c005:	84 c0                	test   %al,%al
    c007:	74 20                	je     c029 <func_16+0x2784>
    c009:	0f b6 05 30 de 00 00 	movzbl 0xde30(%rip),%eax        # 19e40 <g_2842>
    c010:	0f b6 c0             	movzbl %al,%eax
    c013:	48 98                	cltq   
    c015:	0f b7 84 45 1c f5 ff 	movzwl -0xae4(%rbp,%rax,2),%eax
    c01c:	ff 
    c01d:	66 85 c0             	test   %ax,%ax
    c020:	74 07                	je     c029 <func_16+0x2784>
    c022:	bb 01 00 00 00       	mov    $0x1,%ebx
    c027:	eb 05                	jmp    c02e <func_16+0x2789>
    c029:	bb 00 00 00 00       	mov    $0x0,%ebx
    c02e:	48 8b 05 db 02 01 00 	mov    0x102db(%rip),%rax        # 1c310 <g_1559>
    c035:	48 8b 00             	mov    (%rax),%rax
    c038:	8b 10                	mov    (%rax),%edx
    c03a:	48 8b 85 90 f4 ff ff 	mov    -0xb70(%rbp),%rax
    c041:	8b 00                	mov    (%rax),%eax
    c043:	89 c1                	mov    %eax,%ecx
    c045:	48 8b 05 c4 02 01 00 	mov    0x102c4(%rip),%rax        # 1c310 <g_1559>
    c04c:	48 8b 00             	mov    (%rax),%rax
    c04f:	21 ca                	and    %ecx,%edx
    c051:	89 10                	mov    %edx,(%rax)
    c053:	8b 00                	mov    (%rax),%eax
    c055:	89 85 98 f8 ff ff    	mov    %eax,-0x768(%rbp)
    c05b:	8b 95 98 f8 ff ff    	mov    -0x768(%rbp),%edx
    c061:	48 8b 85 b8 f2 ff ff 	mov    -0xd48(%rbp),%rax
    c068:	8b 00                	mov    (%rax),%eax
    c06a:	89 d6                	mov    %edx,%esi
    c06c:	89 c7                	mov    %eax,%edi
    c06e:	e8 92 c5 ff ff       	callq  8605 <safe_sub_func_int32_t_s_s>
    c073:	48 63 d0             	movslq %eax,%rdx
    c076:	48 8b 05 ab 02 01 00 	mov    0x102ab(%rip),%rax        # 1c328 <g_1662>
    c07d:	0f b6 08             	movzbl (%rax),%ecx
    c080:	89 de                	mov    %ebx,%esi
    c082:	48 8b 05 9f 02 01 00 	mov    0x1029f(%rip),%rax        # 1c328 <g_1662>
    c089:	31 f1                	xor    %esi,%ecx
    c08b:	88 08                	mov    %cl,(%rax)
    c08d:	0f b6 00             	movzbl (%rax),%eax
    c090:	83 c8 34             	or     $0x34,%eax
    c093:	48 0f be c0          	movsbq %al,%rax
    c097:	48 09 c2             	or     %rax,%rdx
    c09a:	48 8b 85 b8 f4 ff ff 	mov    -0xb48(%rbp),%rax
    c0a1:	8b 00                	mov    (%rax),%eax
    c0a3:	31 c2                	xor    %eax,%edx
    c0a5:	48 8b 85 b8 f4 ff ff 	mov    -0xb48(%rbp),%rax
    c0ac:	89 10                	mov    %edx,(%rax)
    c0ae:	48 83 85 e8 f3 ff ff 	addq   $0x1,-0xc18(%rbp)
    c0b5:	01 
    c0b6:	48 83 bd e8 f3 ff ff 	cmpq   $0x1,-0xc18(%rbp)
    c0bd:	01 
    c0be:	0f 86 90 f3 ff ff    	jbe    b454 <func_16+0x1baf>
    c0c4:	48 8b 05 4d 02 01 00 	mov    0x1024d(%rip),%rax        # 1c318 <g_1558>
    c0cb:	48 8b 00             	mov    (%rax),%rax
    c0ce:	48 8b 00             	mov    (%rax),%rax
    c0d1:	8b 10                	mov    (%rax),%edx
    c0d3:	83 c2 01             	add    $0x1,%edx
    c0d6:	89 10                	mov    %edx,(%rax)
    c0d8:	8b 10                	mov    (%rax),%edx
    c0da:	48 83 bd e0 f4 ff ff 	cmpq   $0x0,-0xb20(%rbp)
    c0e1:	00 
    c0e2:	0f 95 c0             	setne  %al
    c0e5:	0f b6 c0             	movzbl %al,%eax
    c0e8:	39 c2                	cmp    %eax,%edx
    c0ea:	75 0c                	jne    c0f8 <func_16+0x2853>
    c0ec:	48 b8 f9 17 3b c0 f1 	movabs $0x5a422df1c03b17f9,%rax
    c0f3:	2d 42 5a 
    c0f6:	eb 0a                	jmp    c102 <func_16+0x285d>
    c0f8:	48 b8 f8 17 3b c0 f1 	movabs $0x5a422df1c03b17f8,%rax
    c0ff:	2d 42 5a 
    c102:	0f b6 15 37 dd 00 00 	movzbl 0xdd37(%rip),%edx        # 19e40 <g_2842>
    c109:	0f b6 d2             	movzbl %dl,%edx
    c10c:	48 63 d2             	movslq %edx,%rdx
    c10f:	0f b7 94 55 1c f5 ff 	movzwl -0xae4(%rbp,%rdx,2),%edx
    c116:	ff 
    c117:	48 0f bf d2          	movswq %dx,%rdx
    c11b:	48 39 d0             	cmp    %rdx,%rax
    c11e:	0f 9c c0             	setl   %al
    c121:	44 0f b6 e0          	movzbl %al,%r12d
    c125:	44 8b ad 1c f8 ff ff 	mov    -0x7e4(%rbp),%r13d
    c12c:	8b 9d c4 f7 ff ff    	mov    -0x83c(%rbp),%ebx
    c132:	48 8b 85 58 f4 ff ff 	mov    -0xba8(%rbp),%rax
    c139:	89 c2                	mov    %eax,%edx
    c13b:	8b 85 f0 f2 ff ff    	mov    -0xd10(%rbp),%eax
    c141:	39 85 64 f3 ff ff    	cmp    %eax,-0xc9c(%rbp)
    c147:	0f 95 c0             	setne  %al
    c14a:	0f b6 c0             	movzbl %al,%eax
    c14d:	89 d6                	mov    %edx,%esi
    c14f:	89 c7                	mov    %eax,%edi
    c151:	e8 16 c2 ff ff       	callq  836c <safe_rshift_func_int8_t_s_u>
    c156:	84 c0                	test   %al,%al
    c158:	74 07                	je     c161 <func_16+0x28bc>
    c15a:	83 bd 64 f3 ff ff 00 	cmpl   $0x0,-0xc9c(%rbp)
    c161:	b8 01 00 00 00       	mov    $0x1,%eax
    c166:	89 de                	mov    %ebx,%esi
    c168:	89 c7                	mov    %eax,%edi
    c16a:	e8 96 c4 ff ff       	callq  8605 <safe_sub_func_int32_t_s_s>
    c16f:	44 31 e8             	xor    %r13d,%eax
    c172:	41 39 c4             	cmp    %eax,%r12d
    c175:	0f 95 c2             	setne  %dl
    c178:	48 8b 05 19 10 01 00 	mov    0x11019(%rip),%rax        # 1d198 <g_2180>
    c17f:	48 8b 00             	mov    (%rax),%rax
    c182:	0f b6 d2             	movzbl %dl,%edx
    c185:	89 10                	mov    %edx,(%rax)
    c187:	48 c7 05 ce d1 00 00 	movq   $0x1,0xd1ce(%rip)        # 19360 <g_949>
    c18e:	01 00 00 00 
    c192:	90                   	nop
    c193:	48 8b 05 c6 d1 00 00 	mov    0xd1c6(%rip),%rax        # 19360 <g_949>
    c19a:	48 85 c0             	test   %rax,%rax
    c19d:	78 0b                	js     c1aa <func_16+0x2905>
    c19f:	8b 85 60 f3 ff ff    	mov    -0xca0(%rbp),%eax
    c1a5:	e9 ea 02 00 00       	jmpq   c494 <func_16+0x2bef>
    c1aa:	8b 05 f0 cf 00 00    	mov    0xcff0(%rip),%eax        # 191a0 <g_88>
    c1b0:	83 c0 01             	add    $0x1,%eax
    c1b3:	89 05 e7 cf 00 00    	mov    %eax,0xcfe7(%rip)        # 191a0 <g_88>
    c1b9:	8b 05 e1 cf 00 00    	mov    0xcfe1(%rip),%eax        # 191a0 <g_88>
    c1bf:	83 f8 01             	cmp    $0x1,%eax
    c1c2:	0f 8e 67 ec ff ff    	jle    ae2f <func_16+0x158a>
    c1c8:	e9 ff 01 00 00       	jmpq   c3cc <func_16+0x2b27>
    c1cd:	c6 85 cf f2 ff ff 00 	movb   $0x0,-0xd31(%rbp)
    c1d4:	c7 85 4c f3 ff ff 50 	movl   $0xa9432f50,-0xcb4(%rbp)
    c1db:	2f 43 a9 
    c1de:	48 8d 85 c8 f3 ff ff 	lea    -0xc38(%rbp),%rax
    c1e5:	48 89 85 68 f4 ff ff 	mov    %rax,-0xb98(%rbp)
    c1ec:	48 8d 05 5d d0 00 00 	lea    0xd05d(%rip),%rax        # 19250 <g_164>
    c1f3:	48 89 85 70 f4 ff ff 	mov    %rax,-0xb90(%rbp)
    c1fa:	48 8b 85 b8 f2 ff ff 	mov    -0xd48(%rbp),%rax
    c201:	8b 00                	mov    (%rax),%eax
    c203:	85 c0                	test   %eax,%eax
    c205:	0f 85 7e 02 00 00    	jne    c489 <func_16+0x2be4>
    c20b:	0f b6 85 cf f2 ff ff 	movzbl -0xd31(%rbp),%eax
    c212:	21 85 30 f3 ff ff    	and    %eax,-0xcd0(%rbp)
    c218:	0f b6 85 cf f2 ff ff 	movzbl -0xd31(%rbp),%eax
    c21f:	89 85 4c f3 ff ff    	mov    %eax,-0xcb4(%rbp)
    c225:	8b 85 4c f3 ff ff    	mov    -0xcb4(%rbp),%eax
    c22b:	0d fb ff 00 00       	or     $0xfffb,%eax
    c230:	41 89 c6             	mov    %eax,%r14d
    c233:	48 8b 8d 58 f5 ff ff 	mov    -0xaa8(%rbp),%rcx
    c23a:	48 8b 95 c8 f3 ff ff 	mov    -0xc38(%rbp),%rdx
    c241:	48 8b 85 68 f4 ff ff 	mov    -0xb98(%rbp),%rax
    c248:	48 89 10             	mov    %rdx,(%rax)
    c24b:	48 8b 85 68 f4 ff ff 	mov    -0xb98(%rbp),%rax
    c252:	48 8b 00             	mov    (%rax),%rax
    c255:	48 39 c1             	cmp    %rax,%rcx
    c258:	0f 94 c2             	sete   %dl
    c25b:	48 8b 85 c0 f3 ff ff 	mov    -0xc40(%rbp),%rax
    c262:	88 10                	mov    %dl,(%rax)
    c264:	0f b6 00             	movzbl (%rax),%eax
    c267:	3c 02                	cmp    $0x2,%al
    c269:	0f 97 c0             	seta   %al
    c26c:	0f b6 d0             	movzbl %al,%edx
    c26f:	8b 85 3c f8 ff ff    	mov    -0x7c4(%rbp),%eax
    c275:	0f b6 c0             	movzbl %al,%eax
    c278:	89 d6                	mov    %edx,%esi
    c27a:	89 c7                	mov    %eax,%edi
    c27c:	e8 3d ca ff ff       	callq  8cbe <safe_rshift_func_uint8_t_u_u>
    c281:	0f be c0             	movsbl %al,%eax
    c284:	be 03 00 00 00       	mov    $0x3,%esi
    c289:	89 c7                	mov    %eax,%edi
    c28b:	e8 5e c0 ff ff       	callq  82ee <safe_lshift_func_int8_t_s_u>
    c290:	44 0f be e8          	movsbl %al,%r13d
    c294:	0f bf 9d d6 f2 ff ff 	movswl -0xd2a(%rbp),%ebx
    c29b:	44 0f b6 a5 cf f2 ff 	movzbl -0xd31(%rbp),%r12d
    c2a2:	ff 
    c2a3:	8b 95 f8 f2 ff ff    	mov    -0xd08(%rbp),%edx
    c2a9:	48 8b 05 38 12 01 00 	mov    0x11238(%rip),%rax        # 1d4e8 <g_3458+0x1a8>
    c2b0:	48 89 05 31 12 01 00 	mov    %rax,0x11231(%rip)        # 1d4e8 <g_3458+0x1a8>
    c2b7:	48 8b 05 2a 12 01 00 	mov    0x1122a(%rip),%rax        # 1d4e8 <g_3458+0x1a8>
    c2be:	48 85 c0             	test   %rax,%rax
    c2c1:	0f 94 c0             	sete   %al
    c2c4:	0f b6 c0             	movzbl %al,%eax
    c2c7:	89 d6                	mov    %edx,%esi
    c2c9:	89 c7                	mov    %eax,%edi
    c2cb:	e8 2f c4 ff ff       	callq  86ff <safe_div_func_int32_t_s_s>
    c2d0:	44 89 e6             	mov    %r12d,%esi
    c2d3:	89 c7                	mov    %eax,%edi
    c2d5:	e8 2b c3 ff ff       	callq  8605 <safe_sub_func_int32_t_s_s>
    c2da:	0f be c0             	movsbl %al,%eax
    c2dd:	89 de                	mov    %ebx,%esi
    c2df:	89 c7                	mov    %eax,%edi
    c2e1:	e8 08 c0 ff ff       	callq  82ee <safe_lshift_func_int8_t_s_u>
    c2e6:	3c fd                	cmp    $0xfd,%al
    c2e8:	0f 96 c0             	setbe  %al
    c2eb:	0f b6 d0             	movzbl %al,%edx
    c2ee:	48 8b 05 fb fe 00 00 	mov    0xfefb(%rip),%rax        # 1c1f0 <g_758>
    c2f5:	0f b7 00             	movzwl (%rax),%eax
    c2f8:	98                   	cwtl   
    c2f9:	89 d6                	mov    %edx,%esi
    c2fb:	89 c7                	mov    %eax,%edi
    c2fd:	e8 f3 c0 ff ff       	callq  83f5 <safe_mul_func_int16_t_s_s>
    c302:	98                   	cwtl   
    c303:	44 31 e8             	xor    %r13d,%eax
    c306:	44 21 f0             	and    %r14d,%eax
    c309:	3d c3 00 00 00       	cmp    $0xc3,%eax
    c30e:	0f 96 c0             	setbe  %al
    c311:	0f b6 c0             	movzbl %al,%eax
    c314:	39 85 30 f3 ff ff    	cmp    %eax,-0xcd0(%rbp)
    c31a:	0f 94 c0             	sete   %al
    c31d:	89 c2                	mov    %eax,%edx
    c31f:	48 8b 85 70 f4 ff ff 	mov    -0xb90(%rbp),%rax
    c326:	88 10                	mov    %dl,(%rax)
    c328:	48 8b 85 70 f4 ff ff 	mov    -0xb90(%rbp),%rax
    c32f:	0f b6 10             	movzbl (%rax),%edx
    c332:	0f b6 05 07 db 00 00 	movzbl 0xdb07(%rip),%eax        # 19e40 <g_2842>
    c339:	38 c2                	cmp    %al,%dl
    c33b:	75 37                	jne    c374 <func_16+0x2acf>
    c33d:	66 c7 85 d8 f2 ff ff 	movw   $0x1,-0xd28(%rbp)
    c344:	01 00 
    c346:	c7 85 e4 f2 ff ff 00 	movl   $0x0,-0xd1c(%rbp)
    c34d:	00 00 00 
    c350:	90                   	nop
    c351:	8b 85 e4 f2 ff ff    	mov    -0xd1c(%rbp),%eax
    c357:	83 f8 03             	cmp    $0x3,%eax
    c35a:	7f 0c                	jg     c368 <func_16+0x2ac3>
    c35c:	0f b7 85 d8 f2 ff ff 	movzwl -0xd28(%rbp),%eax
    c363:	e9 2c 01 00 00       	jmpq   c494 <func_16+0x2bef>
    c368:	0f b6 85 cf f2 ff ff 	movzbl -0xd31(%rbp),%eax
    c36f:	e9 20 01 00 00       	jmpq   c494 <func_16+0x2bef>
    c374:	48 8b 85 b8 f2 ff ff 	mov    -0xd48(%rbp),%rax
    c37b:	8b 00                	mov    (%rax),%eax
    c37d:	85 c0                	test   %eax,%eax
    c37f:	0f 85 07 01 00 00    	jne    c48c <func_16+0x2be7>
    c385:	48 c7 85 b8 f3 ff ff 	movq   $0x0,-0xc48(%rbp)
    c38c:	00 00 00 00 
    c390:	eb 1f                	jmp    c3b1 <func_16+0x2b0c>
    c392:	48 8b 85 b8 f2 ff ff 	mov    -0xd48(%rbp),%rax
    c399:	8b 00                	mov    (%rax),%eax
    c39b:	85 c0                	test   %eax,%eax
    c39d:	75 21                	jne    c3c0 <func_16+0x2b1b>
    c39f:	48 8b 85 b8 f3 ff ff 	mov    -0xc48(%rbp),%rax
    c3a6:	48 83 c0 01          	add    $0x1,%rax
    c3aa:	48 89 85 b8 f3 ff ff 	mov    %rax,-0xc48(%rbp)
    c3b1:	48 8b 85 b8 f3 ff ff 	mov    -0xc48(%rbp),%rax
    c3b8:	48 83 f8 03          	cmp    $0x3,%rax
    c3bc:	7e d4                	jle    c392 <func_16+0x2aed>
    c3be:	eb 01                	jmp    c3c1 <func_16+0x2b1c>
    c3c0:	90                   	nop
    c3c1:	8b 85 48 f3 ff ff    	mov    -0xcb8(%rbp),%eax
    c3c7:	e9 c8 00 00 00       	jmpq   c494 <func_16+0x2bef>
    c3cc:	0f b7 85 d2 f2 ff ff 	movzwl -0xd2e(%rbp),%eax
    c3d3:	83 c0 01             	add    $0x1,%eax
    c3d6:	66 89 85 d2 f2 ff ff 	mov    %ax,-0xd2e(%rbp)
    c3dd:	c7 85 08 f3 ff ff 01 	movl   $0x1,-0xcf8(%rbp)
    c3e4:	00 00 00 
    c3e7:	eb 73                	jmp    c45c <func_16+0x2bb7>
    c3e9:	c6 85 d0 f2 ff ff 12 	movb   $0x12,-0xd30(%rbp)
    c3f0:	c7 85 58 f3 ff ff 06 	movl   $0x6,-0xca8(%rbp)
    c3f7:	00 00 00 
    c3fa:	c7 85 5c f3 ff ff 17 	movl   $0xf7f4c217,-0xca4(%rbp)
    c401:	c2 f4 f7 
    c404:	48 8d 05 8d 16 01 00 	lea    0x1168d(%rip),%rax        # 1da98 <g_429>
    c40b:	48 89 85 e8 f4 ff ff 	mov    %rax,-0xb18(%rbp)
    c412:	c7 85 2c f3 ff ff 00 	movl   $0x0,-0xcd4(%rbp)
    c419:	00 00 00 
    c41c:	eb 1e                	jmp    c43c <func_16+0x2b97>
    c41e:	8b 85 2c f3 ff ff    	mov    -0xcd4(%rbp),%eax
    c424:	48 98                	cltq   
    c426:	48 8d 95 c0 f3 ff ff 	lea    -0xc40(%rbp),%rdx
    c42d:	48 89 94 c5 40 fe ff 	mov    %rdx,-0x1c0(%rbp,%rax,8)
    c434:	ff 
    c435:	83 85 2c f3 ff ff 01 	addl   $0x1,-0xcd4(%rbp)
    c43c:	83 bd 2c f3 ff ff 02 	cmpl   $0x2,-0xcd4(%rbp)
    c443:	7e d9                	jle    c41e <func_16+0x2b79>
    c445:	0f b6 85 d0 f2 ff ff 	movzbl -0xd30(%rbp),%eax
    c44c:	83 e8 01             	sub    $0x1,%eax
    c44f:	88 85 d0 f2 ff ff    	mov    %al,-0xd30(%rbp)
    c455:	83 ad 08 f3 ff ff 01 	subl   $0x1,-0xcf8(%rbp)
    c45c:	83 bd 08 f3 ff ff 00 	cmpl   $0x0,-0xcf8(%rbp)
    c463:	79 84                	jns    c3e9 <func_16+0x2b44>
    c465:	0f b6 05 d4 d9 00 00 	movzbl 0xd9d4(%rip),%eax        # 19e40 <g_2842>
    c46c:	83 c0 01             	add    $0x1,%eax
    c46f:	88 05 cb d9 00 00    	mov    %al,0xd9cb(%rip)        # 19e40 <g_2842>
    c475:	0f b6 05 c4 d9 00 00 	movzbl 0xd9c4(%rip),%eax        # 19e40 <g_2842>
    c47c:	3c 03                	cmp    $0x3,%al
    c47e:	0f 86 43 db ff ff    	jbe    9fc7 <func_16+0x722>
    c484:	eb 07                	jmp    c48d <func_16+0x2be8>
    c486:	90                   	nop
    c487:	eb 04                	jmp    c48d <func_16+0x2be8>
    c489:	90                   	nop
    c48a:	eb 01                	jmp    c48d <func_16+0x2be8>
    c48c:	90                   	nop
    c48d:	0f b6 85 2a f5 ff ff 	movzbl -0xad6(%rbp),%eax
    c494:	48 8b 5d c8          	mov    -0x38(%rbp),%rbx
    c498:	64 48 33 1c 25 28 00 	xor    %fs:0x28,%rbx
    c49f:	00 00 
    c4a1:	74 05                	je     c4a8 <func_16+0x2c03>
    c4a3:	e8 c8 bb ff ff       	callq  8070 <__stack_chk_fail@plt>
    c4a8:	48 81 c4 38 0d 00 00 	add    $0xd38,%rsp
    c4af:	5b                   	pop    %rbx
    c4b0:	41 5c                	pop    %r12
    c4b2:	41 5d                	pop    %r13
    c4b4:	41 5e                	pop    %r14
    c4b6:	41 5f                	pop    %r15
    c4b8:	5d                   	pop    %rbp
    c4b9:	c3                   	retq   

000000000000c4ba <func_18>:
    c4ba:	f3 0f 1e fa          	endbr64 
    c4be:	55                   	push   %rbp
    c4bf:	48 89 e5             	mov    %rsp,%rbp
    c4c2:	41 56                	push   %r14
    c4c4:	41 55                	push   %r13
    c4c6:	41 54                	push   %r12
    c4c8:	53                   	push   %rbx
    c4c9:	48 81 ec 00 10 00 00 	sub    $0x1000,%rsp
    c4d0:	48 83 0c 24 00       	orq    $0x0,(%rsp)
    c4d5:	48 81 ec 20 0a 00 00 	sub    $0xa20,%rsp
    c4dc:	48 89 bd c8 e5 ff ff 	mov    %rdi,-0x1a38(%rbp)
    c4e3:	64 48 8b 04 25 28 00 	mov    %fs:0x28,%rax
    c4ea:	00 00 
    c4ec:	48 89 45 d8          	mov    %rax,-0x28(%rbp)
    c4f0:	31 c0                	xor    %eax,%eax
    c4f2:	48 8d 05 4f 15 01 00 	lea    0x1154f(%rip),%rax        # 1da48 <g_3>
    c4f9:	48 89 85 68 e6 ff ff 	mov    %rax,-0x1998(%rbp)
    c500:	c7 85 e4 e5 ff ff 01 	movl   $0x1,-0x1a1c(%rbp)
    c507:	00 00 00 
    c50a:	48 8d 05 4f ce 00 00 	lea    0xce4f(%rip),%rax        # 19360 <g_949>
    c511:	48 89 85 70 e6 ff ff 	mov    %rax,-0x1990(%rbp)
    c518:	48 8d 05 51 fb 00 00 	lea    0xfb51(%rip),%rax        # 1c070 <g_428>
    c51f:	48 89 85 78 e6 ff ff 	mov    %rax,-0x1988(%rbp)
    c526:	48 8d 05 d3 15 01 00 	lea    0x115d3(%rip),%rax        # 1db00 <g_1883>
    c52d:	48 89 85 80 e6 ff ff 	mov    %rax,-0x1980(%rbp)
    c534:	c6 85 da e5 ff ff 00 	movb   $0x0,-0x1a26(%rbp)
    c53b:	c7 85 10 e6 ff ff 83 	movl   $0xae1bb083,-0x19f0(%rbp)
    c542:	b0 1b ae 
    c545:	48 b8 24 43 4d 69 d6 	movabs $0x2a3fbad6694d4324,%rax
    c54c:	ba 3f 2a 
    c54f:	48 89 85 48 e6 ff ff 	mov    %rax,-0x19b8(%rbp)
    c556:	c7 85 14 e6 ff ff 03 	movl   $0x3,-0x19ec(%rbp)
    c55d:	00 00 00 
    c560:	c7 85 18 e6 ff ff ef 	movl   $0xb51a79ef,-0x19e8(%rbp)
    c567:	79 1a b5 
    c56a:	48 8d 85 f0 f1 ff ff 	lea    -0xe10(%rbp),%rax
    c571:	48 8d 15 08 8e 00 00 	lea    0x8e08(%rip),%rdx        # 15380 <g_3399+0x128>
    c578:	b9 c8 00 00 00       	mov    $0xc8,%ecx
    c57d:	48 89 c7             	mov    %rax,%rdi
    c580:	48 89 d6             	mov    %rdx,%rsi
    c583:	f3 48 a5             	rep movsq %ds:(%rsi),%es:(%rdi)
    c586:	c7 85 1c e6 ff ff e2 	movl   $0x2208d6e2,-0x19e4(%rbp)
    c58d:	d6 08 22 
    c590:	48 b8 8c 83 01 ef c0 	movabs $0xde9ba2c0ef01838c,%rax
    c597:	a2 9b de 
    c59a:	48 89 85 88 e6 ff ff 	mov    %rax,-0x1978(%rbp)
    c5a1:	c7 85 20 e6 ff ff ff 	movl   $0xffffffff,-0x19e0(%rbp)
    c5a8:	ff ff ff 
    c5ab:	c7 85 24 e6 ff ff fd 	movl   $0xfffffffd,-0x19dc(%rbp)
    c5b2:	ff ff ff 
    c5b5:	48 c7 85 50 e6 ff ff 	movq   $0x0,-0x19b0(%rbp)
    c5bc:	00 00 00 00 
    c5c0:	48 c7 85 90 e6 ff ff 	movq   $0x0,-0x1970(%rbp)
    c5c7:	00 00 00 00 
    c5cb:	48 8d 85 50 e6 ff ff 	lea    -0x19b0(%rbp),%rax
    c5d2:	48 89 85 50 e8 ff ff 	mov    %rax,-0x17b0(%rbp)
    c5d9:	48 c7 85 58 e8 ff ff 	movq   $0x0,-0x17a8(%rbp)
    c5e0:	00 00 00 00 
    c5e4:	48 8d 05 e5 cb 00 00 	lea    0xcbe5(%rip),%rax        # 191d0 <g_95+0x10>
    c5eb:	48 89 85 60 e8 ff ff 	mov    %rax,-0x17a0(%rbp)
    c5f2:	48 8d 05 d7 cb 00 00 	lea    0xcbd7(%rip),%rax        # 191d0 <g_95+0x10>
    c5f9:	48 89 85 68 e8 ff ff 	mov    %rax,-0x1798(%rbp)
    c600:	48 c7 85 70 e8 ff ff 	movq   $0x0,-0x1790(%rbp)
    c607:	00 00 00 00 
    c60b:	48 8d 85 50 e6 ff ff 	lea    -0x19b0(%rbp),%rax
    c612:	48 89 85 78 e8 ff ff 	mov    %rax,-0x1788(%rbp)
    c619:	48 c7 85 80 e8 ff ff 	movq   $0x0,-0x1780(%rbp)
    c620:	00 00 00 00 
    c624:	48 8d 05 a5 cb 00 00 	lea    0xcba5(%rip),%rax        # 191d0 <g_95+0x10>
    c62b:	48 89 85 88 e8 ff ff 	mov    %rax,-0x1778(%rbp)
    c632:	48 8d 05 97 cb 00 00 	lea    0xcb97(%rip),%rax        # 191d0 <g_95+0x10>
    c639:	48 89 85 90 e8 ff ff 	mov    %rax,-0x1770(%rbp)
    c640:	48 c7 85 98 e8 ff ff 	movq   $0x0,-0x1768(%rbp)
    c647:	00 00 00 00 
    c64b:	48 8d 05 f2 cb 00 00 	lea    0xcbf2(%rip),%rax        # 19244 <g_101>
    c652:	48 89 85 98 e6 ff ff 	mov    %rax,-0x1968(%rbp)
    c659:	66 c7 85 dc e5 ff ff 	movw   $0x1,-0x1a24(%rbp)
    c660:	01 00 
    c662:	48 8d 05 57 fc 00 00 	lea    0xfc57(%rip),%rax        # 1c2c0 <g_1266>
    c669:	48 89 85 a0 e6 ff ff 	mov    %rax,-0x1960(%rbp)
    c670:	48 8d 05 49 fc 00 00 	lea    0xfc49(%rip),%rax        # 1c2c0 <g_1266>
    c677:	48 89 85 a8 e6 ff ff 	mov    %rax,-0x1958(%rbp)
    c67e:	48 8d 05 37 cd 00 00 	lea    0xcd37(%rip),%rax        # 193bc <g_984+0x3c>
    c685:	48 89 85 b0 e6 ff ff 	mov    %rax,-0x1950(%rbp)
    c68c:	48 8d 05 f9 cc 00 00 	lea    0xccf9(%rip),%rax        # 1938c <g_984+0xc>
    c693:	48 89 85 b8 e6 ff ff 	mov    %rax,-0x1948(%rbp)
    c69a:	48 8d 05 e7 ca 00 00 	lea    0xcae7(%rip),%rax        # 19188 <g_77+0x108>
    c6a1:	48 89 85 c0 e6 ff ff 	mov    %rax,-0x1940(%rbp)
    c6a8:	48 8d 85 e4 e5 ff ff 	lea    -0x1a1c(%rbp),%rax
    c6af:	48 89 85 c8 e6 ff ff 	mov    %rax,-0x1938(%rbp)
    c6b6:	66 c7 85 de e5 ff ff 	movw   $0xfffc,-0x1a22(%rbp)
    c6bd:	fc ff 
    c6bf:	c7 85 ec e5 ff ff 00 	movl   $0x0,-0x1a14(%rbp)
    c6c6:	00 00 00 
    c6c9:	eb 1e                	jmp    c6e9 <func_18+0x22f>
    c6cb:	8b 85 ec e5 ff ff    	mov    -0x1a14(%rbp),%eax
    c6d1:	48 98                	cltq   
    c6d3:	48 8d 15 72 cb 00 00 	lea    0xcb72(%rip),%rdx        # 1924c <g_135>
    c6da:	48 89 94 c5 20 e8 ff 	mov    %rdx,-0x17e0(%rbp,%rax,8)
    c6e1:	ff 
    c6e2:	83 85 ec e5 ff ff 01 	addl   $0x1,-0x1a14(%rbp)
    c6e9:	83 bd ec e5 ff ff 04 	cmpl   $0x4,-0x1a14(%rbp)
    c6f0:	7e d9                	jle    c6cb <func_18+0x211>
    c6f2:	c7 85 ec e5 ff ff 00 	movl   $0x0,-0x1a14(%rbp)
    c6f9:	00 00 00 
    c6fc:	eb 46                	jmp    c744 <func_18+0x28a>
    c6fe:	c7 85 f0 e5 ff ff 00 	movl   $0x0,-0x1a10(%rbp)
    c705:	00 00 00 
    c708:	eb 2a                	jmp    c734 <func_18+0x27a>
    c70a:	8b 85 f0 e5 ff ff    	mov    -0x1a10(%rbp),%eax
    c710:	48 98                	cltq   
    c712:	8b 95 ec e5 ff ff    	mov    -0x1a14(%rbp),%edx
    c718:	48 63 d2             	movslq %edx,%rdx
    c71b:	48 c1 e2 02          	shl    $0x2,%rdx
    c71f:	48 01 d0             	add    %rdx,%rax
    c722:	c7 84 85 a0 e7 ff ff 	movl   $0x665eb517,-0x1860(%rbp,%rax,4)
    c729:	17 b5 5e 66 
    c72d:	83 85 f0 e5 ff ff 01 	addl   $0x1,-0x1a10(%rbp)
    c734:	83 bd f0 e5 ff ff 03 	cmpl   $0x3,-0x1a10(%rbp)
    c73b:	7e cd                	jle    c70a <func_18+0x250>
    c73d:	83 85 ec e5 ff ff 01 	addl   $0x1,-0x1a14(%rbp)
    c744:	83 bd ec e5 ff ff 00 	cmpl   $0x0,-0x1a14(%rbp)
    c74b:	7e b1                	jle    c6fe <func_18+0x244>
    c74d:	c7 85 ec e5 ff ff 00 	movl   $0x0,-0x1a14(%rbp)
    c754:	00 00 00 
    c757:	eb 1b                	jmp    c774 <func_18+0x2ba>
    c759:	8b 85 ec e5 ff ff    	mov    -0x1a14(%rbp),%eax
    c75f:	48 98                	cltq   
    c761:	48 c7 84 c5 c0 e7 ff 	movq   $0x0,-0x1840(%rbp,%rax,8)
    c768:	ff 00 00 00 00 
    c76d:	83 85 ec e5 ff ff 01 	addl   $0x1,-0x1a14(%rbp)
    c774:	83 bd ec e5 ff ff 02 	cmpl   $0x2,-0x1a14(%rbp)
    c77b:	7e dc                	jle    c759 <func_18+0x29f>
    c77d:	c7 85 ec e5 ff ff 00 	movl   $0x0,-0x1a14(%rbp)
    c784:	00 00 00 
    c787:	eb 1e                	jmp    c7a7 <func_18+0x2ed>
    c789:	8b 85 ec e5 ff ff    	mov    -0x1a14(%rbp),%eax
    c78f:	48 98                	cltq   
    c791:	48 8d 15 98 c9 00 00 	lea    0xc998(%rip),%rdx        # 19130 <g_77+0xb0>
    c798:	48 89 94 c5 e0 e7 ff 	mov    %rdx,-0x1820(%rbp,%rax,8)
    c79f:	ff 
    c7a0:	83 85 ec e5 ff ff 01 	addl   $0x1,-0x1a14(%rbp)
    c7a7:	83 bd ec e5 ff ff 02 	cmpl   $0x2,-0x1a14(%rbp)
    c7ae:	7e d9                	jle    c789 <func_18+0x2cf>
    c7b0:	48 83 bd c8 e5 ff ff 	cmpq   $0x0,-0x1a38(%rbp)
    c7b7:	00 
    c7b8:	75 0a                	jne    c7c4 <func_18+0x30a>
    c7ba:	0f b7 05 63 c8 00 00 	movzwl 0xc863(%rip),%eax        # 19024 <g_7>
    c7c1:	66 85 c0             	test   %ax,%ax
    c7c4:	48 8b 85 68 e6 ff ff 	mov    -0x1998(%rbp),%rax
    c7cb:	8b 00                	mov    (%rax),%eax
    c7cd:	0f be d8             	movsbl %al,%ebx
    c7d0:	b8 d9 2e c9 81       	mov    $0x81c92ed9,%eax
    c7d5:	41 89 c4             	mov    %eax,%r12d
    c7d8:	8b 05 6a 12 01 00    	mov    0x1126a(%rip),%eax        # 1da48 <g_3>
    c7de:	0f b7 d0             	movzwl %ax,%edx
    c7e1:	48 8b 8d 68 e6 ff ff 	mov    -0x1998(%rbp),%rcx
    c7e8:	48 8b 85 68 e6 ff ff 	mov    -0x1998(%rbp),%rax
    c7ef:	48 89 ce             	mov    %rcx,%rsi
    c7f2:	48 89 c7             	mov    %rax,%rdi
    c7f5:	e8 7e 2d 00 00       	callq  f578 <func_34>
    c7fa:	48 89 c2             	mov    %rax,%rdx
    c7fd:	48 8d 05 44 12 01 00 	lea    0x11244(%rip),%rax        # 1da48 <g_3>
    c804:	48 39 85 68 e6 ff ff 	cmp    %rax,-0x1998(%rbp)
    c80b:	0f 94 c0             	sete   %al
    c80e:	0f b6 c0             	movzbl %al,%eax
    c811:	48 89 d6             	mov    %rdx,%rsi
    c814:	48 89 c7             	mov    %rax,%rdi
    c817:	e8 12 c8 ff ff       	callq  902e <safe_add_func_uint64_t_u_u>
    c81c:	48 8b 05 65 09 01 00 	mov    0x10965(%rip),%rax        # 1d188 <g_1983>
    c823:	48 8b 00             	mov    (%rax),%rax
    c826:	48 39 85 68 e6 ff ff 	cmp    %rax,-0x1998(%rbp)
    c82d:	0f 95 c0             	setne  %al
    c830:	0f b6 c0             	movzbl %al,%eax
    c833:	89 85 e4 e5 ff ff    	mov    %eax,-0x1a1c(%rbp)
    c839:	8b 85 e4 e5 ff ff    	mov    -0x1a1c(%rbp),%eax
    c83f:	89 85 a0 e7 ff ff    	mov    %eax,-0x1860(%rbp)
    c845:	8b 85 a0 e7 ff ff    	mov    -0x1860(%rbp),%eax
    c84b:	89 c7                	mov    %eax,%edi
    c84d:	e8 b5 1d 00 00       	callq  e607 <func_29>
    c852:	48 89 c6             	mov    %rax,%rsi
    c855:	8b 05 9d 99 00 00    	mov    0x999d(%rip),%eax        # 161f8 <l_28.4390+0x8>
    c85b:	89 c7                	mov    %eax,%edi
    c85d:	48 8b 85 68 e6 ff ff 	mov    -0x1998(%rbp),%rax
    c864:	41 89 d8             	mov    %ebx,%r8d
    c867:	48 89 c1             	mov    %rax,%rcx
    c86a:	44 89 e2             	mov    %r12d,%edx
    c86d:	e8 03 1a 00 00       	callq  e275 <func_22>
    c872:	48 8b 85 70 e6 ff ff 	mov    -0x1990(%rbp),%rax
    c879:	48 8b 95 c8 e5 ff ff 	mov    -0x1a38(%rbp),%rdx
    c880:	48 89 10             	mov    %rdx,(%rax)
    c883:	48 8b 85 70 e6 ff ff 	mov    -0x1990(%rbp),%rax
    c88a:	48 8b 00             	mov    (%rax),%rax
    c88d:	48 be 59 10 af 9f da 	movabs $0xb95037da9faf1059,%rsi
    c894:	37 50 b9 
    c897:	48 89 c7             	mov    %rax,%rdi
    c89a:	e8 09 c0 ff ff       	callq  88a8 <safe_sub_func_int64_t_s_s>
    c89f:	48 85 c0             	test   %rax,%rax
    c8a2:	0f 84 22 17 00 00    	je     dfca <func_18+0x1b10>
    c8a8:	66 c7 85 e2 e5 ff ff 	movw   $0xc2bc,-0x1a1e(%rbp)
    c8af:	bc c2 
    c8b1:	c7 85 3c e6 ff ff ff 	movl   $0xffffffff,-0x19c4(%rbp)
    c8b8:	ff ff ff 
    c8bb:	48 8d 85 50 e9 ff ff 	lea    -0x16b0(%rbp),%rax
    c8c2:	48 8d 15 77 dd 00 00 	lea    0xdd77(%rip),%rdx        # 1a640 <g_3529+0x14>
    c8c9:	b9 60 00 00 00       	mov    $0x60,%ecx
    c8ce:	48 89 c7             	mov    %rax,%rdi
    c8d1:	48 89 d6             	mov    %rdx,%rsi
    c8d4:	f3 48 a5             	rep movsq %ds:(%rsi),%es:(%rdi)
    c8d7:	48 c7 85 38 e7 ff ff 	movq   $0x5,-0x18c8(%rbp)
    c8de:	05 00 00 00 
    c8e2:	c7 85 f4 e5 ff ff 00 	movl   $0x0,-0x1a0c(%rbp)
    c8e9:	00 00 00 
    c8ec:	eb 1a                	jmp    c908 <func_18+0x44e>
    c8ee:	8b 85 f4 e5 ff ff    	mov    -0x1a0c(%rbp),%eax
    c8f4:	48 98                	cltq   
    c8f6:	c7 84 85 00 e8 ff ff 	movl   $0x9c088fb3,-0x1800(%rbp,%rax,4)
    c8fd:	b3 8f 08 9c 
    c901:	83 85 f4 e5 ff ff 01 	addl   $0x1,-0x1a0c(%rbp)
    c908:	83 bd f4 e5 ff ff 07 	cmpl   $0x7,-0x1a0c(%rbp)
    c90f:	7e dd                	jle    c8ee <func_18+0x434>
    c911:	48 8b 05 f8 f9 00 00 	mov    0xf9f8(%rip),%rax        # 1c310 <g_1559>
    c918:	48 8b 00             	mov    (%rax),%rax
    c91b:	c7 00 9b ad 63 15    	movl   $0x1563ad9b,(%rax)
    c921:	8b 00                	mov    (%rax),%eax
    c923:	89 c6                	mov    %eax,%esi
    c925:	bf 9c 34 81 ea       	mov    $0xea81349c,%edi
    c92a:	e8 89 c5 ff ff       	callq  8eb8 <safe_add_func_uint32_t_u_u>
    c92f:	0f b6 c0             	movzbl %al,%eax
    c932:	be 04 00 00 00       	mov    $0x4,%esi
    c937:	89 c7                	mov    %eax,%edi
    c939:	e8 80 c3 ff ff       	callq  8cbe <safe_rshift_func_uint8_t_u_u>
    c93e:	84 c0                	test   %al,%al
    c940:	41 0f 94 c4          	sete   %r12b
    c944:	48 8b 85 c8 e5 ff ff 	mov    -0x1a38(%rbp),%rax
    c94b:	0f b7 c0             	movzwl %ax,%eax
    c94e:	be cc bb 00 00       	mov    $0xbbcc,%esi
    c953:	89 c7                	mov    %eax,%edi
    c955:	e8 e3 c3 ff ff       	callq  8d3d <safe_mul_func_uint16_t_u_u>
    c95a:	0f b7 c0             	movzwl %ax,%eax
    c95d:	48 23 85 c8 e5 ff ff 	and    -0x1a38(%rbp),%rax
    c964:	48 89 c3             	mov    %rax,%rbx
    c967:	0f b7 85 e2 e5 ff ff 	movzwl -0x1a1e(%rbp),%eax
    c96e:	0f be c0             	movsbl %al,%eax
    c971:	89 c6                	mov    %eax,%esi
    c973:	bf ff ff ff ff       	mov    $0xffffffff,%edi
    c978:	e8 ed b8 ff ff       	callq  826a <safe_div_func_int8_t_s_s>
    c97d:	48 0f be c0          	movsbq %al,%rax
    c981:	48 39 85 c8 e5 ff ff 	cmp    %rax,-0x1a38(%rbp)
    c988:	0f 9d c0             	setge  %al
    c98b:	0f b6 c0             	movzbl %al,%eax
    c98e:	48 39 85 c8 e5 ff ff 	cmp    %rax,-0x1a38(%rbp)
    c995:	0f 9f c0             	setg   %al
    c998:	0f b6 d0             	movzbl %al,%edx
    c99b:	48 8b 85 70 e6 ff ff 	mov    -0x1990(%rbp),%rax
    c9a2:	48 89 10             	mov    %rdx,(%rax)
    c9a5:	48 8b 85 70 e6 ff ff 	mov    -0x1990(%rbp),%rax
    c9ac:	48 8b 00             	mov    (%rax),%rax
    c9af:	48 39 c3             	cmp    %rax,%rbx
    c9b2:	0f 95 c0             	setne  %al
    c9b5:	44 31 e0             	xor    %r12d,%eax
    c9b8:	84 c0                	test   %al,%al
    c9ba:	0f 84 a5 15 00 00    	je     df65 <func_18+0x1aab>
    c9c0:	48 8d 85 50 ec ff ff 	lea    -0x13b0(%rbp),%rax
    c9c7:	48 8d 15 72 df 00 00 	lea    0xdf72(%rip),%rdx        # 1a940 <g_3529+0x314>
    c9ce:	b9 b4 00 00 00       	mov    $0xb4,%ecx
    c9d3:	48 89 c7             	mov    %rax,%rdi
    c9d6:	48 89 d6             	mov    %rdx,%rsi
    c9d9:	f3 48 a5             	rep movsq %ds:(%rsi),%es:(%rdi)
    c9dc:	48 8d 85 50 ec ff ff 	lea    -0x13b0(%rbp),%rax
    c9e3:	48 05 d8 03 00 00    	add    $0x3d8,%rax
    c9e9:	48 89 85 58 e6 ff ff 	mov    %rax,-0x19a8(%rbp)
    c9f0:	48 8d 85 58 e6 ff ff 	lea    -0x19a8(%rbp),%rax
    c9f7:	48 89 85 58 e7 ff ff 	mov    %rax,-0x18a8(%rbp)
    c9fe:	48 8d 85 20 e8 ff ff 	lea    -0x17e0(%rbp),%rax
    ca05:	48 83 c0 10          	add    $0x10,%rax
    ca09:	48 89 85 30 f8 ff ff 	mov    %rax,-0x7d0(%rbp)
    ca10:	48 8d 85 20 e8 ff ff 	lea    -0x17e0(%rbp),%rax
    ca17:	48 83 c0 10          	add    $0x10,%rax
    ca1b:	48 89 85 38 f8 ff ff 	mov    %rax,-0x7c8(%rbp)
    ca22:	48 c7 85 40 f8 ff ff 	movq   $0x0,-0x7c0(%rbp)
    ca29:	00 00 00 00 
    ca2d:	48 8d 85 20 e8 ff ff 	lea    -0x17e0(%rbp),%rax
    ca34:	48 83 c0 18          	add    $0x18,%rax
    ca38:	48 89 85 48 f8 ff ff 	mov    %rax,-0x7b8(%rbp)
    ca3f:	48 8d 85 20 e8 ff ff 	lea    -0x17e0(%rbp),%rax
    ca46:	48 83 c0 10          	add    $0x10,%rax
    ca4a:	48 89 85 50 f8 ff ff 	mov    %rax,-0x7b0(%rbp)
    ca51:	48 8d 85 20 e8 ff ff 	lea    -0x17e0(%rbp),%rax
    ca58:	48 83 c0 08          	add    $0x8,%rax
    ca5c:	48 89 85 58 f8 ff ff 	mov    %rax,-0x7a8(%rbp)
    ca63:	48 8d 85 20 e8 ff ff 	lea    -0x17e0(%rbp),%rax
    ca6a:	48 83 c0 10          	add    $0x10,%rax
    ca6e:	48 89 85 60 f8 ff ff 	mov    %rax,-0x7a0(%rbp)
    ca75:	48 8d 85 20 e8 ff ff 	lea    -0x17e0(%rbp),%rax
    ca7c:	48 83 c0 10          	add    $0x10,%rax
    ca80:	48 89 85 68 f8 ff ff 	mov    %rax,-0x798(%rbp)
    ca87:	48 8d 85 20 e8 ff ff 	lea    -0x17e0(%rbp),%rax
    ca8e:	48 83 c0 20          	add    $0x20,%rax
    ca92:	48 89 85 70 f8 ff ff 	mov    %rax,-0x790(%rbp)
    ca99:	48 c7 85 78 f8 ff ff 	movq   $0x0,-0x788(%rbp)
    caa0:	00 00 00 00 
    caa4:	48 8d 85 20 e8 ff ff 	lea    -0x17e0(%rbp),%rax
    caab:	48 83 c0 10          	add    $0x10,%rax
    caaf:	48 89 85 80 f8 ff ff 	mov    %rax,-0x780(%rbp)
    cab6:	48 8d 85 20 e8 ff ff 	lea    -0x17e0(%rbp),%rax
    cabd:	48 83 c0 18          	add    $0x18,%rax
    cac1:	48 89 85 88 f8 ff ff 	mov    %rax,-0x778(%rbp)
    cac8:	48 c7 85 90 f8 ff ff 	movq   $0x0,-0x770(%rbp)
    cacf:	00 00 00 00 
    cad3:	48 8d 85 20 e8 ff ff 	lea    -0x17e0(%rbp),%rax
    cada:	48 83 c0 10          	add    $0x10,%rax
    cade:	48 89 85 98 f8 ff ff 	mov    %rax,-0x768(%rbp)
    cae5:	48 8d 85 20 e8 ff ff 	lea    -0x17e0(%rbp),%rax
    caec:	48 83 c0 10          	add    $0x10,%rax
    caf0:	48 89 85 a0 f8 ff ff 	mov    %rax,-0x760(%rbp)
    caf7:	48 8d 85 20 e8 ff ff 	lea    -0x17e0(%rbp),%rax
    cafe:	48 83 c0 18          	add    $0x18,%rax
    cb02:	48 89 85 a8 f8 ff ff 	mov    %rax,-0x758(%rbp)
    cb09:	48 c7 85 b0 f8 ff ff 	movq   $0x0,-0x750(%rbp)
    cb10:	00 00 00 00 
    cb14:	48 8d 85 20 e8 ff ff 	lea    -0x17e0(%rbp),%rax
    cb1b:	48 83 c0 18          	add    $0x18,%rax
    cb1f:	48 89 85 b8 f8 ff ff 	mov    %rax,-0x748(%rbp)
    cb26:	48 c7 85 c0 f8 ff ff 	movq   $0x0,-0x740(%rbp)
    cb2d:	00 00 00 00 
    cb31:	48 8d 85 20 e8 ff ff 	lea    -0x17e0(%rbp),%rax
    cb38:	48 83 c0 10          	add    $0x10,%rax
    cb3c:	48 89 85 c8 f8 ff ff 	mov    %rax,-0x738(%rbp)
    cb43:	48 8d 85 20 e8 ff ff 	lea    -0x17e0(%rbp),%rax
    cb4a:	48 83 c0 18          	add    $0x18,%rax
    cb4e:	48 89 85 d0 f8 ff ff 	mov    %rax,-0x730(%rbp)
    cb55:	48 8d 85 20 e8 ff ff 	lea    -0x17e0(%rbp),%rax
    cb5c:	48 83 c0 18          	add    $0x18,%rax
    cb60:	48 89 85 d8 f8 ff ff 	mov    %rax,-0x728(%rbp)
    cb67:	48 8d 85 20 e8 ff ff 	lea    -0x17e0(%rbp),%rax
    cb6e:	48 83 c0 10          	add    $0x10,%rax
    cb72:	48 89 85 e0 f8 ff ff 	mov    %rax,-0x720(%rbp)
    cb79:	48 8d 85 20 e8 ff ff 	lea    -0x17e0(%rbp),%rax
    cb80:	48 83 c0 10          	add    $0x10,%rax
    cb84:	48 89 85 e8 f8 ff ff 	mov    %rax,-0x718(%rbp)
    cb8b:	48 8d 85 20 e8 ff ff 	lea    -0x17e0(%rbp),%rax
    cb92:	48 83 c0 10          	add    $0x10,%rax
    cb96:	48 89 85 f0 f8 ff ff 	mov    %rax,-0x710(%rbp)
    cb9d:	48 8d 85 20 e8 ff ff 	lea    -0x17e0(%rbp),%rax
    cba4:	48 83 c0 10          	add    $0x10,%rax
    cba8:	48 89 85 f8 f8 ff ff 	mov    %rax,-0x708(%rbp)
    cbaf:	48 c7 85 00 f9 ff ff 	movq   $0x0,-0x700(%rbp)
    cbb6:	00 00 00 00 
    cbba:	48 8d 85 20 e8 ff ff 	lea    -0x17e0(%rbp),%rax
    cbc1:	48 83 c0 10          	add    $0x10,%rax
    cbc5:	48 89 85 08 f9 ff ff 	mov    %rax,-0x6f8(%rbp)
    cbcc:	48 8d 85 20 e8 ff ff 	lea    -0x17e0(%rbp),%rax
    cbd3:	48 83 c0 08          	add    $0x8,%rax
    cbd7:	48 89 85 10 f9 ff ff 	mov    %rax,-0x6f0(%rbp)
    cbde:	48 8d 85 20 e8 ff ff 	lea    -0x17e0(%rbp),%rax
    cbe5:	48 83 c0 10          	add    $0x10,%rax
    cbe9:	48 89 85 18 f9 ff ff 	mov    %rax,-0x6e8(%rbp)
    cbf0:	48 8d 85 20 e8 ff ff 	lea    -0x17e0(%rbp),%rax
    cbf7:	48 83 c0 08          	add    $0x8,%rax
    cbfb:	48 89 85 20 f9 ff ff 	mov    %rax,-0x6e0(%rbp)
    cc02:	48 8d 85 20 e8 ff ff 	lea    -0x17e0(%rbp),%rax
    cc09:	48 83 c0 08          	add    $0x8,%rax
    cc0d:	48 89 85 28 f9 ff ff 	mov    %rax,-0x6d8(%rbp)
    cc14:	48 8d 85 20 e8 ff ff 	lea    -0x17e0(%rbp),%rax
    cc1b:	48 83 c0 08          	add    $0x8,%rax
    cc1f:	48 89 85 30 f9 ff ff 	mov    %rax,-0x6d0(%rbp)
    cc26:	48 8d 85 20 e8 ff ff 	lea    -0x17e0(%rbp),%rax
    cc2d:	48 83 c0 08          	add    $0x8,%rax
    cc31:	48 89 85 38 f9 ff ff 	mov    %rax,-0x6c8(%rbp)
    cc38:	48 c7 85 40 f9 ff ff 	movq   $0x0,-0x6c0(%rbp)
    cc3f:	00 00 00 00 
    cc43:	48 8d 85 20 e8 ff ff 	lea    -0x17e0(%rbp),%rax
    cc4a:	48 83 c0 10          	add    $0x10,%rax
    cc4e:	48 89 85 48 f9 ff ff 	mov    %rax,-0x6b8(%rbp)
    cc55:	48 8d 85 20 e8 ff ff 	lea    -0x17e0(%rbp),%rax
    cc5c:	48 83 c0 10          	add    $0x10,%rax
    cc60:	48 89 85 50 f9 ff ff 	mov    %rax,-0x6b0(%rbp)
    cc67:	48 8d 85 20 e8 ff ff 	lea    -0x17e0(%rbp),%rax
    cc6e:	48 83 c0 08          	add    $0x8,%rax
    cc72:	48 89 85 58 f9 ff ff 	mov    %rax,-0x6a8(%rbp)
    cc79:	48 8d 85 20 e8 ff ff 	lea    -0x17e0(%rbp),%rax
    cc80:	48 83 c0 20          	add    $0x20,%rax
    cc84:	48 89 85 60 f9 ff ff 	mov    %rax,-0x6a0(%rbp)
    cc8b:	48 8d 85 20 e8 ff ff 	lea    -0x17e0(%rbp),%rax
    cc92:	48 83 c0 10          	add    $0x10,%rax
    cc96:	48 89 85 68 f9 ff ff 	mov    %rax,-0x698(%rbp)
    cc9d:	48 c7 85 70 f9 ff ff 	movq   $0x0,-0x690(%rbp)
    cca4:	00 00 00 00 
    cca8:	48 8d 85 20 e8 ff ff 	lea    -0x17e0(%rbp),%rax
    ccaf:	48 83 c0 08          	add    $0x8,%rax
    ccb3:	48 89 85 78 f9 ff ff 	mov    %rax,-0x688(%rbp)
    ccba:	48 8d 85 20 e8 ff ff 	lea    -0x17e0(%rbp),%rax
    ccc1:	48 89 85 80 f9 ff ff 	mov    %rax,-0x680(%rbp)
    ccc8:	48 8d 85 20 e8 ff ff 	lea    -0x17e0(%rbp),%rax
    cccf:	48 83 c0 10          	add    $0x10,%rax
    ccd3:	48 89 85 88 f9 ff ff 	mov    %rax,-0x678(%rbp)
    ccda:	48 8d 85 20 e8 ff ff 	lea    -0x17e0(%rbp),%rax
    cce1:	48 83 c0 10          	add    $0x10,%rax
    cce5:	48 89 85 90 f9 ff ff 	mov    %rax,-0x670(%rbp)
    ccec:	48 8d 85 20 e8 ff ff 	lea    -0x17e0(%rbp),%rax
    ccf3:	48 83 c0 20          	add    $0x20,%rax
    ccf7:	48 89 85 98 f9 ff ff 	mov    %rax,-0x668(%rbp)
    ccfe:	48 8d 85 20 e8 ff ff 	lea    -0x17e0(%rbp),%rax
    cd05:	48 89 85 a0 f9 ff ff 	mov    %rax,-0x660(%rbp)
    cd0c:	48 8d 85 20 e8 ff ff 	lea    -0x17e0(%rbp),%rax
    cd13:	48 89 85 a8 f9 ff ff 	mov    %rax,-0x658(%rbp)
    cd1a:	48 8d 85 20 e8 ff ff 	lea    -0x17e0(%rbp),%rax
    cd21:	48 83 c0 20          	add    $0x20,%rax
    cd25:	48 89 85 b0 f9 ff ff 	mov    %rax,-0x650(%rbp)
    cd2c:	48 8d 85 20 e8 ff ff 	lea    -0x17e0(%rbp),%rax
    cd33:	48 83 c0 10          	add    $0x10,%rax
    cd37:	48 89 85 b8 f9 ff ff 	mov    %rax,-0x648(%rbp)
    cd3e:	48 c7 85 c0 f9 ff ff 	movq   $0x0,-0x640(%rbp)
    cd45:	00 00 00 00 
    cd49:	48 8d 85 20 e8 ff ff 	lea    -0x17e0(%rbp),%rax
    cd50:	48 83 c0 10          	add    $0x10,%rax
    cd54:	48 89 85 c8 f9 ff ff 	mov    %rax,-0x638(%rbp)
    cd5b:	48 8d 85 20 e8 ff ff 	lea    -0x17e0(%rbp),%rax
    cd62:	48 83 c0 10          	add    $0x10,%rax
    cd66:	48 89 85 d0 f9 ff ff 	mov    %rax,-0x630(%rbp)
    cd6d:	48 8d 85 20 e8 ff ff 	lea    -0x17e0(%rbp),%rax
    cd74:	48 83 c0 08          	add    $0x8,%rax
    cd78:	48 89 85 d8 f9 ff ff 	mov    %rax,-0x628(%rbp)
    cd7f:	48 8d 85 20 e8 ff ff 	lea    -0x17e0(%rbp),%rax
    cd86:	48 89 85 e0 f9 ff ff 	mov    %rax,-0x620(%rbp)
    cd8d:	48 8d 85 20 e8 ff ff 	lea    -0x17e0(%rbp),%rax
    cd94:	48 83 c0 10          	add    $0x10,%rax
    cd98:	48 89 85 e8 f9 ff ff 	mov    %rax,-0x618(%rbp)
    cd9f:	48 8d 85 20 e8 ff ff 	lea    -0x17e0(%rbp),%rax
    cda6:	48 83 c0 10          	add    $0x10,%rax
    cdaa:	48 89 85 f0 f9 ff ff 	mov    %rax,-0x610(%rbp)
    cdb1:	48 8d 85 20 e8 ff ff 	lea    -0x17e0(%rbp),%rax
    cdb8:	48 83 c0 08          	add    $0x8,%rax
    cdbc:	48 89 85 f8 f9 ff ff 	mov    %rax,-0x608(%rbp)
    cdc3:	48 8d 85 20 e8 ff ff 	lea    -0x17e0(%rbp),%rax
    cdca:	48 83 c0 08          	add    $0x8,%rax
    cdce:	48 89 85 00 fa ff ff 	mov    %rax,-0x600(%rbp)
    cdd5:	48 8d 85 20 e8 ff ff 	lea    -0x17e0(%rbp),%rax
    cddc:	48 83 c0 20          	add    $0x20,%rax
    cde0:	48 89 85 08 fa ff ff 	mov    %rax,-0x5f8(%rbp)
    cde7:	48 8d 85 20 e8 ff ff 	lea    -0x17e0(%rbp),%rax
    cdee:	48 83 c0 20          	add    $0x20,%rax
    cdf2:	48 89 85 10 fa ff ff 	mov    %rax,-0x5f0(%rbp)
    cdf9:	48 8d 85 20 e8 ff ff 	lea    -0x17e0(%rbp),%rax
    ce00:	48 89 85 18 fa ff ff 	mov    %rax,-0x5e8(%rbp)
    ce07:	48 8d 85 20 e8 ff ff 	lea    -0x17e0(%rbp),%rax
    ce0e:	48 83 c0 10          	add    $0x10,%rax
    ce12:	48 89 85 20 fa ff ff 	mov    %rax,-0x5e0(%rbp)
    ce19:	48 8d 85 20 e8 ff ff 	lea    -0x17e0(%rbp),%rax
    ce20:	48 83 c0 10          	add    $0x10,%rax
    ce24:	48 89 85 28 fa ff ff 	mov    %rax,-0x5d8(%rbp)
    ce2b:	48 8d 85 20 e8 ff ff 	lea    -0x17e0(%rbp),%rax
    ce32:	48 83 c0 10          	add    $0x10,%rax
    ce36:	48 89 85 30 fa ff ff 	mov    %rax,-0x5d0(%rbp)
    ce3d:	48 8d 85 20 e8 ff ff 	lea    -0x17e0(%rbp),%rax
    ce44:	48 83 c0 10          	add    $0x10,%rax
    ce48:	48 89 85 38 fa ff ff 	mov    %rax,-0x5c8(%rbp)
    ce4f:	48 8d 85 20 e8 ff ff 	lea    -0x17e0(%rbp),%rax
    ce56:	48 83 c0 10          	add    $0x10,%rax
    ce5a:	48 89 85 40 fa ff ff 	mov    %rax,-0x5c0(%rbp)
    ce61:	48 8d 85 20 e8 ff ff 	lea    -0x17e0(%rbp),%rax
    ce68:	48 89 85 48 fa ff ff 	mov    %rax,-0x5b8(%rbp)
    ce6f:	48 8d 85 20 e8 ff ff 	lea    -0x17e0(%rbp),%rax
    ce76:	48 83 c0 10          	add    $0x10,%rax
    ce7a:	48 89 85 50 fa ff ff 	mov    %rax,-0x5b0(%rbp)
    ce81:	48 8d 85 20 e8 ff ff 	lea    -0x17e0(%rbp),%rax
    ce88:	48 83 c0 08          	add    $0x8,%rax
    ce8c:	48 89 85 58 fa ff ff 	mov    %rax,-0x5a8(%rbp)
    ce93:	48 8d 85 20 e8 ff ff 	lea    -0x17e0(%rbp),%rax
    ce9a:	48 83 c0 08          	add    $0x8,%rax
    ce9e:	48 89 85 60 fa ff ff 	mov    %rax,-0x5a0(%rbp)
    cea5:	48 8d 85 20 e8 ff ff 	lea    -0x17e0(%rbp),%rax
    ceac:	48 83 c0 10          	add    $0x10,%rax
    ceb0:	48 89 85 68 fa ff ff 	mov    %rax,-0x598(%rbp)
    ceb7:	48 c7 85 70 fa ff ff 	movq   $0x0,-0x590(%rbp)
    cebe:	00 00 00 00 
    cec2:	48 8d 85 20 e8 ff ff 	lea    -0x17e0(%rbp),%rax
    cec9:	48 83 c0 10          	add    $0x10,%rax
    cecd:	48 89 85 78 fa ff ff 	mov    %rax,-0x588(%rbp)
    ced4:	48 c7 85 80 fa ff ff 	movq   $0x0,-0x580(%rbp)
    cedb:	00 00 00 00 
    cedf:	48 c7 85 88 fa ff ff 	movq   $0x0,-0x578(%rbp)
    cee6:	00 00 00 00 
    ceea:	48 c7 85 90 fa ff ff 	movq   $0x0,-0x570(%rbp)
    cef1:	00 00 00 00 
    cef5:	48 8d 85 20 e8 ff ff 	lea    -0x17e0(%rbp),%rax
    cefc:	48 83 c0 10          	add    $0x10,%rax
    cf00:	48 89 85 98 fa ff ff 	mov    %rax,-0x568(%rbp)
    cf07:	48 8d 85 20 e8 ff ff 	lea    -0x17e0(%rbp),%rax
    cf0e:	48 83 c0 20          	add    $0x20,%rax
    cf12:	48 89 85 a0 fa ff ff 	mov    %rax,-0x560(%rbp)
    cf19:	48 8d 85 20 e8 ff ff 	lea    -0x17e0(%rbp),%rax
    cf20:	48 83 c0 10          	add    $0x10,%rax
    cf24:	48 89 85 a8 fa ff ff 	mov    %rax,-0x558(%rbp)
    cf2b:	48 8d 85 20 e8 ff ff 	lea    -0x17e0(%rbp),%rax
    cf32:	48 83 c0 10          	add    $0x10,%rax
    cf36:	48 89 85 b0 fa ff ff 	mov    %rax,-0x550(%rbp)
    cf3d:	48 8d 85 20 e8 ff ff 	lea    -0x17e0(%rbp),%rax
    cf44:	48 89 85 b8 fa ff ff 	mov    %rax,-0x548(%rbp)
    cf4b:	48 8d 85 20 e8 ff ff 	lea    -0x17e0(%rbp),%rax
    cf52:	48 89 85 c0 fa ff ff 	mov    %rax,-0x540(%rbp)
    cf59:	48 c7 85 c8 fa ff ff 	movq   $0x0,-0x538(%rbp)
    cf60:	00 00 00 00 
    cf64:	48 8d 85 20 e8 ff ff 	lea    -0x17e0(%rbp),%rax
    cf6b:	48 83 c0 20          	add    $0x20,%rax
    cf6f:	48 89 85 d0 fa ff ff 	mov    %rax,-0x530(%rbp)
    cf76:	48 8d 85 20 e8 ff ff 	lea    -0x17e0(%rbp),%rax
    cf7d:	48 83 c0 08          	add    $0x8,%rax
    cf81:	48 89 85 d8 fa ff ff 	mov    %rax,-0x528(%rbp)
    cf88:	48 c7 85 e0 fa ff ff 	movq   $0x0,-0x520(%rbp)
    cf8f:	00 00 00 00 
    cf93:	48 c7 85 e8 fa ff ff 	movq   $0x0,-0x518(%rbp)
    cf9a:	00 00 00 00 
    cf9e:	48 8d 85 20 e8 ff ff 	lea    -0x17e0(%rbp),%rax
    cfa5:	48 83 c0 10          	add    $0x10,%rax
    cfa9:	48 89 85 f0 fa ff ff 	mov    %rax,-0x510(%rbp)
    cfb0:	48 8d 85 20 e8 ff ff 	lea    -0x17e0(%rbp),%rax
    cfb7:	48 83 c0 10          	add    $0x10,%rax
    cfbb:	48 89 85 f8 fa ff ff 	mov    %rax,-0x508(%rbp)
    cfc2:	48 8d 85 20 e8 ff ff 	lea    -0x17e0(%rbp),%rax
    cfc9:	48 83 c0 10          	add    $0x10,%rax
    cfcd:	48 89 85 00 fb ff ff 	mov    %rax,-0x500(%rbp)
    cfd4:	48 8d 85 20 e8 ff ff 	lea    -0x17e0(%rbp),%rax
    cfdb:	48 89 85 08 fb ff ff 	mov    %rax,-0x4f8(%rbp)
    cfe2:	48 8d 85 20 e8 ff ff 	lea    -0x17e0(%rbp),%rax
    cfe9:	48 83 c0 10          	add    $0x10,%rax
    cfed:	48 89 85 10 fb ff ff 	mov    %rax,-0x4f0(%rbp)
    cff4:	48 c7 85 18 fb ff ff 	movq   $0x0,-0x4e8(%rbp)
    cffb:	00 00 00 00 
    cfff:	48 8d 85 20 e8 ff ff 	lea    -0x17e0(%rbp),%rax
    d006:	48 83 c0 10          	add    $0x10,%rax
    d00a:	48 89 85 20 fb ff ff 	mov    %rax,-0x4e0(%rbp)
    d011:	48 8d 85 20 e8 ff ff 	lea    -0x17e0(%rbp),%rax
    d018:	48 83 c0 10          	add    $0x10,%rax
    d01c:	48 89 85 28 fb ff ff 	mov    %rax,-0x4d8(%rbp)
    d023:	48 c7 85 30 fb ff ff 	movq   $0x0,-0x4d0(%rbp)
    d02a:	00 00 00 00 
    d02e:	48 8d 85 20 e8 ff ff 	lea    -0x17e0(%rbp),%rax
    d035:	48 83 c0 10          	add    $0x10,%rax
    d039:	48 89 85 38 fb ff ff 	mov    %rax,-0x4c8(%rbp)
    d040:	48 8d 85 20 e8 ff ff 	lea    -0x17e0(%rbp),%rax
    d047:	48 83 c0 08          	add    $0x8,%rax
    d04b:	48 89 85 40 fb ff ff 	mov    %rax,-0x4c0(%rbp)
    d052:	48 8d 85 20 e8 ff ff 	lea    -0x17e0(%rbp),%rax
    d059:	48 83 c0 10          	add    $0x10,%rax
    d05d:	48 89 85 48 fb ff ff 	mov    %rax,-0x4b8(%rbp)
    d064:	48 8d 85 20 e8 ff ff 	lea    -0x17e0(%rbp),%rax
    d06b:	48 83 c0 20          	add    $0x20,%rax
    d06f:	48 89 85 50 fb ff ff 	mov    %rax,-0x4b0(%rbp)
    d076:	48 8d 85 20 e8 ff ff 	lea    -0x17e0(%rbp),%rax
    d07d:	48 83 c0 10          	add    $0x10,%rax
    d081:	48 89 85 58 fb ff ff 	mov    %rax,-0x4a8(%rbp)
    d088:	48 8d 85 20 e8 ff ff 	lea    -0x17e0(%rbp),%rax
    d08f:	48 83 c0 10          	add    $0x10,%rax
    d093:	48 89 85 60 fb ff ff 	mov    %rax,-0x4a0(%rbp)
    d09a:	48 8d 85 20 e8 ff ff 	lea    -0x17e0(%rbp),%rax
    d0a1:	48 83 c0 20          	add    $0x20,%rax
    d0a5:	48 89 85 68 fb ff ff 	mov    %rax,-0x498(%rbp)
    d0ac:	48 8d 85 20 e8 ff ff 	lea    -0x17e0(%rbp),%rax
    d0b3:	48 89 85 70 fb ff ff 	mov    %rax,-0x490(%rbp)
    d0ba:	48 8d 85 20 e8 ff ff 	lea    -0x17e0(%rbp),%rax
    d0c1:	48 89 85 78 fb ff ff 	mov    %rax,-0x488(%rbp)
    d0c8:	48 8d 85 20 e8 ff ff 	lea    -0x17e0(%rbp),%rax
    d0cf:	48 83 c0 10          	add    $0x10,%rax
    d0d3:	48 89 85 80 fb ff ff 	mov    %rax,-0x480(%rbp)
    d0da:	48 8d 85 20 e8 ff ff 	lea    -0x17e0(%rbp),%rax
    d0e1:	48 83 c0 10          	add    $0x10,%rax
    d0e5:	48 89 85 88 fb ff ff 	mov    %rax,-0x478(%rbp)
    d0ec:	48 8d 85 20 e8 ff ff 	lea    -0x17e0(%rbp),%rax
    d0f3:	48 83 c0 10          	add    $0x10,%rax
    d0f7:	48 89 85 90 fb ff ff 	mov    %rax,-0x470(%rbp)
    d0fe:	48 8d 85 20 e8 ff ff 	lea    -0x17e0(%rbp),%rax
    d105:	48 83 c0 10          	add    $0x10,%rax
    d109:	48 89 85 98 fb ff ff 	mov    %rax,-0x468(%rbp)
    d110:	48 8d 85 20 e8 ff ff 	lea    -0x17e0(%rbp),%rax
    d117:	48 89 85 a0 fb ff ff 	mov    %rax,-0x460(%rbp)
    d11e:	48 8d 85 20 e8 ff ff 	lea    -0x17e0(%rbp),%rax
    d125:	48 83 c0 08          	add    $0x8,%rax
    d129:	48 89 85 a8 fb ff ff 	mov    %rax,-0x458(%rbp)
    d130:	48 c7 85 b0 fb ff ff 	movq   $0x0,-0x450(%rbp)
    d137:	00 00 00 00 
    d13b:	48 8d 85 20 e8 ff ff 	lea    -0x17e0(%rbp),%rax
    d142:	48 83 c0 20          	add    $0x20,%rax
    d146:	48 89 85 b8 fb ff ff 	mov    %rax,-0x448(%rbp)
    d14d:	48 8d 85 20 e8 ff ff 	lea    -0x17e0(%rbp),%rax
    d154:	48 83 c0 20          	add    $0x20,%rax
    d158:	48 89 85 c0 fb ff ff 	mov    %rax,-0x440(%rbp)
    d15f:	48 8d 85 20 e8 ff ff 	lea    -0x17e0(%rbp),%rax
    d166:	48 83 c0 20          	add    $0x20,%rax
    d16a:	48 89 85 c8 fb ff ff 	mov    %rax,-0x438(%rbp)
    d171:	48 8d 85 20 e8 ff ff 	lea    -0x17e0(%rbp),%rax
    d178:	48 89 85 d0 fb ff ff 	mov    %rax,-0x430(%rbp)
    d17f:	48 8d 85 20 e8 ff ff 	lea    -0x17e0(%rbp),%rax
    d186:	48 83 c0 10          	add    $0x10,%rax
    d18a:	48 89 85 d8 fb ff ff 	mov    %rax,-0x428(%rbp)
    d191:	48 8d 85 20 e8 ff ff 	lea    -0x17e0(%rbp),%rax
    d198:	48 89 85 e0 fb ff ff 	mov    %rax,-0x420(%rbp)
    d19f:	48 8d 85 20 e8 ff ff 	lea    -0x17e0(%rbp),%rax
    d1a6:	48 83 c0 20          	add    $0x20,%rax
    d1aa:	48 89 85 e8 fb ff ff 	mov    %rax,-0x418(%rbp)
    d1b1:	48 8d 85 20 e8 ff ff 	lea    -0x17e0(%rbp),%rax
    d1b8:	48 83 c0 10          	add    $0x10,%rax
    d1bc:	48 89 85 f0 fb ff ff 	mov    %rax,-0x410(%rbp)
    d1c3:	48 8d 85 20 e8 ff ff 	lea    -0x17e0(%rbp),%rax
    d1ca:	48 83 c0 10          	add    $0x10,%rax
    d1ce:	48 89 85 f8 fb ff ff 	mov    %rax,-0x408(%rbp)
    d1d5:	48 8d 85 20 e8 ff ff 	lea    -0x17e0(%rbp),%rax
    d1dc:	48 83 c0 10          	add    $0x10,%rax
    d1e0:	48 89 85 00 fc ff ff 	mov    %rax,-0x400(%rbp)
    d1e7:	48 8d 85 20 e8 ff ff 	lea    -0x17e0(%rbp),%rax
    d1ee:	48 83 c0 10          	add    $0x10,%rax
    d1f2:	48 89 85 08 fc ff ff 	mov    %rax,-0x3f8(%rbp)
    d1f9:	48 c7 85 10 fc ff ff 	movq   $0x0,-0x3f0(%rbp)
    d200:	00 00 00 00 
    d204:	48 8d 85 20 e8 ff ff 	lea    -0x17e0(%rbp),%rax
    d20b:	48 83 c0 10          	add    $0x10,%rax
    d20f:	48 89 85 18 fc ff ff 	mov    %rax,-0x3e8(%rbp)
    d216:	48 8d 85 20 e8 ff ff 	lea    -0x17e0(%rbp),%rax
    d21d:	48 83 c0 10          	add    $0x10,%rax
    d221:	48 89 85 20 fc ff ff 	mov    %rax,-0x3e0(%rbp)
    d228:	48 8d 85 20 e8 ff ff 	lea    -0x17e0(%rbp),%rax
    d22f:	48 83 c0 18          	add    $0x18,%rax
    d233:	48 89 85 28 fc ff ff 	mov    %rax,-0x3d8(%rbp)
    d23a:	48 8d 85 20 e8 ff ff 	lea    -0x17e0(%rbp),%rax
    d241:	48 83 c0 10          	add    $0x10,%rax
    d245:	48 89 85 30 fc ff ff 	mov    %rax,-0x3d0(%rbp)
    d24c:	48 8d 85 20 e8 ff ff 	lea    -0x17e0(%rbp),%rax
    d253:	48 83 c0 08          	add    $0x8,%rax
    d257:	48 89 85 38 fc ff ff 	mov    %rax,-0x3c8(%rbp)
    d25e:	48 8d 85 20 e8 ff ff 	lea    -0x17e0(%rbp),%rax
    d265:	48 83 c0 08          	add    $0x8,%rax
    d269:	48 89 85 40 fc ff ff 	mov    %rax,-0x3c0(%rbp)
    d270:	48 c7 85 48 fc ff ff 	movq   $0x0,-0x3b8(%rbp)
    d277:	00 00 00 00 
    d27b:	48 8d 85 20 e8 ff ff 	lea    -0x17e0(%rbp),%rax
    d282:	48 83 c0 08          	add    $0x8,%rax
    d286:	48 89 85 50 fc ff ff 	mov    %rax,-0x3b0(%rbp)
    d28d:	48 8d 85 20 e8 ff ff 	lea    -0x17e0(%rbp),%rax
    d294:	48 83 c0 10          	add    $0x10,%rax
    d298:	48 89 85 58 fc ff ff 	mov    %rax,-0x3a8(%rbp)
    d29f:	48 c7 85 60 fc ff ff 	movq   $0x0,-0x3a0(%rbp)
    d2a6:	00 00 00 00 
    d2aa:	48 8d 85 20 e8 ff ff 	lea    -0x17e0(%rbp),%rax
    d2b1:	48 83 c0 10          	add    $0x10,%rax
    d2b5:	48 89 85 68 fc ff ff 	mov    %rax,-0x398(%rbp)
    d2bc:	48 8d 85 20 e8 ff ff 	lea    -0x17e0(%rbp),%rax
    d2c3:	48 83 c0 10          	add    $0x10,%rax
    d2c7:	48 89 85 70 fc ff ff 	mov    %rax,-0x390(%rbp)
    d2ce:	48 c7 85 78 fc ff ff 	movq   $0x0,-0x388(%rbp)
    d2d5:	00 00 00 00 
    d2d9:	48 c7 85 80 fc ff ff 	movq   $0x0,-0x380(%rbp)
    d2e0:	00 00 00 00 
    d2e4:	48 8d 85 20 e8 ff ff 	lea    -0x17e0(%rbp),%rax
    d2eb:	48 83 c0 20          	add    $0x20,%rax
    d2ef:	48 89 85 88 fc ff ff 	mov    %rax,-0x378(%rbp)
    d2f6:	48 c7 85 90 fc ff ff 	movq   $0x0,-0x370(%rbp)
    d2fd:	00 00 00 00 
    d301:	48 8d 85 20 e8 ff ff 	lea    -0x17e0(%rbp),%rax
    d308:	48 83 c0 10          	add    $0x10,%rax
    d30c:	48 89 85 98 fc ff ff 	mov    %rax,-0x368(%rbp)
    d313:	48 8d 85 20 e8 ff ff 	lea    -0x17e0(%rbp),%rax
    d31a:	48 83 c0 08          	add    $0x8,%rax
    d31e:	48 89 85 a0 fc ff ff 	mov    %rax,-0x360(%rbp)
    d325:	48 8d 85 20 e8 ff ff 	lea    -0x17e0(%rbp),%rax
    d32c:	48 83 c0 10          	add    $0x10,%rax
    d330:	48 89 85 a8 fc ff ff 	mov    %rax,-0x358(%rbp)
    d337:	48 8d 85 20 e8 ff ff 	lea    -0x17e0(%rbp),%rax
    d33e:	48 83 c0 20          	add    $0x20,%rax
    d342:	48 89 85 b0 fc ff ff 	mov    %rax,-0x350(%rbp)
    d349:	48 8d 85 20 e8 ff ff 	lea    -0x17e0(%rbp),%rax
    d350:	48 83 c0 08          	add    $0x8,%rax
    d354:	48 89 85 b8 fc ff ff 	mov    %rax,-0x348(%rbp)
    d35b:	48 8d 85 20 e8 ff ff 	lea    -0x17e0(%rbp),%rax
    d362:	48 83 c0 08          	add    $0x8,%rax
    d366:	48 89 85 c0 fc ff ff 	mov    %rax,-0x340(%rbp)
    d36d:	48 8d 85 20 e8 ff ff 	lea    -0x17e0(%rbp),%rax
    d374:	48 83 c0 20          	add    $0x20,%rax
    d378:	48 89 85 c8 fc ff ff 	mov    %rax,-0x338(%rbp)
    d37f:	48 8d 85 20 e8 ff ff 	lea    -0x17e0(%rbp),%rax
    d386:	48 83 c0 10          	add    $0x10,%rax
    d38a:	48 89 85 d0 fc ff ff 	mov    %rax,-0x330(%rbp)
    d391:	48 8d 85 20 e8 ff ff 	lea    -0x17e0(%rbp),%rax
    d398:	48 83 c0 10          	add    $0x10,%rax
    d39c:	48 89 85 d8 fc ff ff 	mov    %rax,-0x328(%rbp)
    d3a3:	48 c7 85 e0 fc ff ff 	movq   $0x0,-0x320(%rbp)
    d3aa:	00 00 00 00 
    d3ae:	48 c7 85 e8 fc ff ff 	movq   $0x0,-0x318(%rbp)
    d3b5:	00 00 00 00 
    d3b9:	48 8d 85 20 e8 ff ff 	lea    -0x17e0(%rbp),%rax
    d3c0:	48 83 c0 20          	add    $0x20,%rax
    d3c4:	48 89 85 f0 fc ff ff 	mov    %rax,-0x310(%rbp)
    d3cb:	48 8d 85 20 e8 ff ff 	lea    -0x17e0(%rbp),%rax
    d3d2:	48 83 c0 10          	add    $0x10,%rax
    d3d6:	48 89 85 f8 fc ff ff 	mov    %rax,-0x308(%rbp)
    d3dd:	48 8d 85 20 e8 ff ff 	lea    -0x17e0(%rbp),%rax
    d3e4:	48 89 85 00 fd ff ff 	mov    %rax,-0x300(%rbp)
    d3eb:	48 8d 85 20 e8 ff ff 	lea    -0x17e0(%rbp),%rax
    d3f2:	48 83 c0 10          	add    $0x10,%rax
    d3f6:	48 89 85 08 fd ff ff 	mov    %rax,-0x2f8(%rbp)
    d3fd:	48 8d 85 20 e8 ff ff 	lea    -0x17e0(%rbp),%rax
    d404:	48 83 c0 10          	add    $0x10,%rax
    d408:	48 89 85 10 fd ff ff 	mov    %rax,-0x2f0(%rbp)
    d40f:	48 c7 85 18 fd ff ff 	movq   $0x0,-0x2e8(%rbp)
    d416:	00 00 00 00 
    d41a:	48 8d 85 20 e8 ff ff 	lea    -0x17e0(%rbp),%rax
    d421:	48 83 c0 10          	add    $0x10,%rax
    d425:	48 89 85 20 fd ff ff 	mov    %rax,-0x2e0(%rbp)
    d42c:	48 8d 85 20 e8 ff ff 	lea    -0x17e0(%rbp),%rax
    d433:	48 83 c0 10          	add    $0x10,%rax
    d437:	48 89 85 28 fd ff ff 	mov    %rax,-0x2d8(%rbp)
    d43e:	48 8d 85 20 e8 ff ff 	lea    -0x17e0(%rbp),%rax
    d445:	48 83 c0 10          	add    $0x10,%rax
    d449:	48 89 85 30 fd ff ff 	mov    %rax,-0x2d0(%rbp)
    d450:	48 8d 85 20 e8 ff ff 	lea    -0x17e0(%rbp),%rax
    d457:	48 83 c0 08          	add    $0x8,%rax
    d45b:	48 89 85 38 fd ff ff 	mov    %rax,-0x2c8(%rbp)
    d462:	48 8d 85 20 e8 ff ff 	lea    -0x17e0(%rbp),%rax
    d469:	48 83 c0 10          	add    $0x10,%rax
    d46d:	48 89 85 40 fd ff ff 	mov    %rax,-0x2c0(%rbp)
    d474:	48 c7 85 48 fd ff ff 	movq   $0x0,-0x2b8(%rbp)
    d47b:	00 00 00 00 
    d47f:	48 8d 85 20 e8 ff ff 	lea    -0x17e0(%rbp),%rax
    d486:	48 83 c0 10          	add    $0x10,%rax
    d48a:	48 89 85 50 fd ff ff 	mov    %rax,-0x2b0(%rbp)
    d491:	48 8d 85 20 e8 ff ff 	lea    -0x17e0(%rbp),%rax
    d498:	48 83 c0 10          	add    $0x10,%rax
    d49c:	48 89 85 58 fd ff ff 	mov    %rax,-0x2a8(%rbp)
    d4a3:	48 8d 85 20 e8 ff ff 	lea    -0x17e0(%rbp),%rax
    d4aa:	48 83 c0 20          	add    $0x20,%rax
    d4ae:	48 89 85 60 fd ff ff 	mov    %rax,-0x2a0(%rbp)
    d4b5:	48 8d 85 20 e8 ff ff 	lea    -0x17e0(%rbp),%rax
    d4bc:	48 83 c0 18          	add    $0x18,%rax
    d4c0:	48 89 85 68 fd ff ff 	mov    %rax,-0x298(%rbp)
    d4c7:	48 8d 85 20 e8 ff ff 	lea    -0x17e0(%rbp),%rax
    d4ce:	48 83 c0 10          	add    $0x10,%rax
    d4d2:	48 89 85 70 fd ff ff 	mov    %rax,-0x290(%rbp)
    d4d9:	48 8d 85 20 e8 ff ff 	lea    -0x17e0(%rbp),%rax
    d4e0:	48 83 c0 10          	add    $0x10,%rax
    d4e4:	48 89 85 78 fd ff ff 	mov    %rax,-0x288(%rbp)
    d4eb:	48 8d 85 20 e8 ff ff 	lea    -0x17e0(%rbp),%rax
    d4f2:	48 83 c0 20          	add    $0x20,%rax
    d4f6:	48 89 85 80 fd ff ff 	mov    %rax,-0x280(%rbp)
    d4fd:	48 c7 85 88 fd ff ff 	movq   $0x0,-0x278(%rbp)
    d504:	00 00 00 00 
    d508:	48 8d 85 20 e8 ff ff 	lea    -0x17e0(%rbp),%rax
    d50f:	48 83 c0 08          	add    $0x8,%rax
    d513:	48 89 85 90 fd ff ff 	mov    %rax,-0x270(%rbp)
    d51a:	48 8d 85 20 e8 ff ff 	lea    -0x17e0(%rbp),%rax
    d521:	48 83 c0 10          	add    $0x10,%rax
    d525:	48 89 85 98 fd ff ff 	mov    %rax,-0x268(%rbp)
    d52c:	48 8d 85 20 e8 ff ff 	lea    -0x17e0(%rbp),%rax
    d533:	48 83 c0 20          	add    $0x20,%rax
    d537:	48 89 85 a0 fd ff ff 	mov    %rax,-0x260(%rbp)
    d53e:	48 8d 85 20 e8 ff ff 	lea    -0x17e0(%rbp),%rax
    d545:	48 83 c0 08          	add    $0x8,%rax
    d549:	48 89 85 a8 fd ff ff 	mov    %rax,-0x258(%rbp)
    d550:	48 8d 85 20 e8 ff ff 	lea    -0x17e0(%rbp),%rax
    d557:	48 83 c0 10          	add    $0x10,%rax
    d55b:	48 89 85 b0 fd ff ff 	mov    %rax,-0x250(%rbp)
    d562:	48 8d 85 20 e8 ff ff 	lea    -0x17e0(%rbp),%rax
    d569:	48 83 c0 18          	add    $0x18,%rax
    d56d:	48 89 85 b8 fd ff ff 	mov    %rax,-0x248(%rbp)
    d574:	48 8d 85 20 e8 ff ff 	lea    -0x17e0(%rbp),%rax
    d57b:	48 83 c0 10          	add    $0x10,%rax
    d57f:	48 89 85 c0 fd ff ff 	mov    %rax,-0x240(%rbp)
    d586:	48 8d 85 20 e8 ff ff 	lea    -0x17e0(%rbp),%rax
    d58d:	48 83 c0 10          	add    $0x10,%rax
    d591:	48 89 85 c8 fd ff ff 	mov    %rax,-0x238(%rbp)
    d598:	48 c7 85 d0 fd ff ff 	movq   $0x0,-0x230(%rbp)
    d59f:	00 00 00 00 
    d5a3:	48 8d 85 20 e8 ff ff 	lea    -0x17e0(%rbp),%rax
    d5aa:	48 83 c0 10          	add    $0x10,%rax
    d5ae:	48 89 85 d8 fd ff ff 	mov    %rax,-0x228(%rbp)
    d5b5:	48 8d 85 20 e8 ff ff 	lea    -0x17e0(%rbp),%rax
    d5bc:	48 83 c0 10          	add    $0x10,%rax
    d5c0:	48 89 85 e0 fd ff ff 	mov    %rax,-0x220(%rbp)
    d5c7:	48 8d 85 20 e8 ff ff 	lea    -0x17e0(%rbp),%rax
    d5ce:	48 89 85 e8 fd ff ff 	mov    %rax,-0x218(%rbp)
    d5d5:	48 c7 85 f0 fd ff ff 	movq   $0x0,-0x210(%rbp)
    d5dc:	00 00 00 00 
    d5e0:	48 c7 85 f8 fd ff ff 	movq   $0x0,-0x208(%rbp)
    d5e7:	00 00 00 00 
    d5eb:	48 c7 85 00 fe ff ff 	movq   $0x0,-0x200(%rbp)
    d5f2:	00 00 00 00 
    d5f6:	48 c7 85 08 fe ff ff 	movq   $0x0,-0x1f8(%rbp)
    d5fd:	00 00 00 00 
    d601:	48 8d 85 20 e8 ff ff 	lea    -0x17e0(%rbp),%rax
    d608:	48 83 c0 20          	add    $0x20,%rax
    d60c:	48 89 85 10 fe ff ff 	mov    %rax,-0x1f0(%rbp)
    d613:	48 8d 85 20 e8 ff ff 	lea    -0x17e0(%rbp),%rax
    d61a:	48 83 c0 08          	add    $0x8,%rax
    d61e:	48 89 85 18 fe ff ff 	mov    %rax,-0x1e8(%rbp)
    d625:	48 8d 85 20 e8 ff ff 	lea    -0x17e0(%rbp),%rax
    d62c:	48 83 c0 10          	add    $0x10,%rax
    d630:	48 89 85 20 fe ff ff 	mov    %rax,-0x1e0(%rbp)
    d637:	48 8d 85 20 e8 ff ff 	lea    -0x17e0(%rbp),%rax
    d63e:	48 83 c0 10          	add    $0x10,%rax
    d642:	48 89 85 28 fe ff ff 	mov    %rax,-0x1d8(%rbp)
    d649:	48 8d 85 20 e8 ff ff 	lea    -0x17e0(%rbp),%rax
    d650:	48 83 c0 20          	add    $0x20,%rax
    d654:	48 89 85 30 fe ff ff 	mov    %rax,-0x1d0(%rbp)
    d65b:	48 8d 85 20 e8 ff ff 	lea    -0x17e0(%rbp),%rax
    d662:	48 83 c0 10          	add    $0x10,%rax
    d666:	48 89 85 38 fe ff ff 	mov    %rax,-0x1c8(%rbp)
    d66d:	48 c7 85 40 fe ff ff 	movq   $0x0,-0x1c0(%rbp)
    d674:	00 00 00 00 
    d678:	48 8d 85 20 e8 ff ff 	lea    -0x17e0(%rbp),%rax
    d67f:	48 83 c0 08          	add    $0x8,%rax
    d683:	48 89 85 48 fe ff ff 	mov    %rax,-0x1b8(%rbp)
    d68a:	48 8d 85 20 e8 ff ff 	lea    -0x17e0(%rbp),%rax
    d691:	48 83 c0 10          	add    $0x10,%rax
    d695:	48 89 85 50 fe ff ff 	mov    %rax,-0x1b0(%rbp)
    d69c:	48 8d 85 20 e8 ff ff 	lea    -0x17e0(%rbp),%rax
    d6a3:	48 83 c0 20          	add    $0x20,%rax
    d6a7:	48 89 85 58 fe ff ff 	mov    %rax,-0x1a8(%rbp)
    d6ae:	48 8d 85 20 e8 ff ff 	lea    -0x17e0(%rbp),%rax
    d6b5:	48 83 c0 20          	add    $0x20,%rax
    d6b9:	48 89 85 60 fe ff ff 	mov    %rax,-0x1a0(%rbp)
    d6c0:	48 8d 85 20 e8 ff ff 	lea    -0x17e0(%rbp),%rax
    d6c7:	48 83 c0 18          	add    $0x18,%rax
    d6cb:	48 89 85 68 fe ff ff 	mov    %rax,-0x198(%rbp)
    d6d2:	48 8d 85 20 e8 ff ff 	lea    -0x17e0(%rbp),%rax
    d6d9:	48 83 c0 08          	add    $0x8,%rax
    d6dd:	48 89 85 70 fe ff ff 	mov    %rax,-0x190(%rbp)
    d6e4:	48 c7 85 78 fe ff ff 	movq   $0x0,-0x188(%rbp)
    d6eb:	00 00 00 00 
    d6ef:	48 8d 85 20 e8 ff ff 	lea    -0x17e0(%rbp),%rax
    d6f6:	48 83 c0 08          	add    $0x8,%rax
    d6fa:	48 89 85 80 fe ff ff 	mov    %rax,-0x180(%rbp)
    d701:	48 8d 85 20 e8 ff ff 	lea    -0x17e0(%rbp),%rax
    d708:	48 83 c0 08          	add    $0x8,%rax
    d70c:	48 89 85 88 fe ff ff 	mov    %rax,-0x178(%rbp)
    d713:	48 c7 85 90 fe ff ff 	movq   $0x0,-0x170(%rbp)
    d71a:	00 00 00 00 
    d71e:	48 8d 85 20 e8 ff ff 	lea    -0x17e0(%rbp),%rax
    d725:	48 83 c0 20          	add    $0x20,%rax
    d729:	48 89 85 98 fe ff ff 	mov    %rax,-0x168(%rbp)
    d730:	48 8d 85 20 e8 ff ff 	lea    -0x17e0(%rbp),%rax
    d737:	48 83 c0 10          	add    $0x10,%rax
    d73b:	48 89 85 a0 fe ff ff 	mov    %rax,-0x160(%rbp)
    d742:	48 c7 85 a8 fe ff ff 	movq   $0x0,-0x158(%rbp)
    d749:	00 00 00 00 
    d74d:	48 c7 85 b0 fe ff ff 	movq   $0x0,-0x150(%rbp)
    d754:	00 00 00 00 
    d758:	48 8d 85 20 e8 ff ff 	lea    -0x17e0(%rbp),%rax
    d75f:	48 89 85 b8 fe ff ff 	mov    %rax,-0x148(%rbp)
    d766:	48 c7 85 c0 fe ff ff 	movq   $0x0,-0x140(%rbp)
    d76d:	00 00 00 00 
    d771:	48 8d 85 20 e8 ff ff 	lea    -0x17e0(%rbp),%rax
    d778:	48 83 c0 10          	add    $0x10,%rax
    d77c:	48 89 85 c8 fe ff ff 	mov    %rax,-0x138(%rbp)
    d783:	48 8d 85 20 e8 ff ff 	lea    -0x17e0(%rbp),%rax
    d78a:	48 83 c0 08          	add    $0x8,%rax
    d78e:	48 89 85 d0 fe ff ff 	mov    %rax,-0x130(%rbp)
    d795:	48 8d 85 20 e8 ff ff 	lea    -0x17e0(%rbp),%rax
    d79c:	48 83 c0 10          	add    $0x10,%rax
    d7a0:	48 89 85 d8 fe ff ff 	mov    %rax,-0x128(%rbp)
    d7a7:	48 c7 85 e0 fe ff ff 	movq   $0x0,-0x120(%rbp)
    d7ae:	00 00 00 00 
    d7b2:	48 8d 85 20 e8 ff ff 	lea    -0x17e0(%rbp),%rax
    d7b9:	48 83 c0 10          	add    $0x10,%rax
    d7bd:	48 89 85 e8 fe ff ff 	mov    %rax,-0x118(%rbp)
    d7c4:	48 c7 85 f0 fe ff ff 	movq   $0x0,-0x110(%rbp)
    d7cb:	00 00 00 00 
    d7cf:	48 8d 85 20 e8 ff ff 	lea    -0x17e0(%rbp),%rax
    d7d6:	48 83 c0 18          	add    $0x18,%rax
    d7da:	48 89 85 f8 fe ff ff 	mov    %rax,-0x108(%rbp)
    d7e1:	48 c7 85 00 ff ff ff 	movq   $0x0,-0x100(%rbp)
    d7e8:	00 00 00 00 
    d7ec:	48 8d 85 20 e8 ff ff 	lea    -0x17e0(%rbp),%rax
    d7f3:	48 83 c0 18          	add    $0x18,%rax
    d7f7:	48 89 85 08 ff ff ff 	mov    %rax,-0xf8(%rbp)
    d7fe:	48 c7 85 10 ff ff ff 	movq   $0x0,-0xf0(%rbp)
    d805:	00 00 00 00 
    d809:	48 8d 85 20 e8 ff ff 	lea    -0x17e0(%rbp),%rax
    d810:	48 83 c0 20          	add    $0x20,%rax
    d814:	48 89 85 18 ff ff ff 	mov    %rax,-0xe8(%rbp)
    d81b:	48 8d 85 20 e8 ff ff 	lea    -0x17e0(%rbp),%rax
    d822:	48 83 c0 10          	add    $0x10,%rax
    d826:	48 89 85 20 ff ff ff 	mov    %rax,-0xe0(%rbp)
    d82d:	48 8d 85 20 e8 ff ff 	lea    -0x17e0(%rbp),%rax
    d834:	48 83 c0 20          	add    $0x20,%rax
    d838:	48 89 85 28 ff ff ff 	mov    %rax,-0xd8(%rbp)
    d83f:	48 8d 85 20 e8 ff ff 	lea    -0x17e0(%rbp),%rax
    d846:	48 83 c0 18          	add    $0x18,%rax
    d84a:	48 89 85 30 ff ff ff 	mov    %rax,-0xd0(%rbp)
    d851:	48 8d 85 20 e8 ff ff 	lea    -0x17e0(%rbp),%rax
    d858:	48 83 c0 20          	add    $0x20,%rax
    d85c:	48 89 85 38 ff ff ff 	mov    %rax,-0xc8(%rbp)
    d863:	48 8d 85 20 e8 ff ff 	lea    -0x17e0(%rbp),%rax
    d86a:	48 83 c0 08          	add    $0x8,%rax
    d86e:	48 89 85 40 ff ff ff 	mov    %rax,-0xc0(%rbp)
    d875:	48 8d 85 20 e8 ff ff 	lea    -0x17e0(%rbp),%rax
    d87c:	48 83 c0 10          	add    $0x10,%rax
    d880:	48 89 85 48 ff ff ff 	mov    %rax,-0xb8(%rbp)
    d887:	48 8d 85 20 e8 ff ff 	lea    -0x17e0(%rbp),%rax
    d88e:	48 83 c0 10          	add    $0x10,%rax
    d892:	48 89 85 50 ff ff ff 	mov    %rax,-0xb0(%rbp)
    d899:	48 8d 85 20 e8 ff ff 	lea    -0x17e0(%rbp),%rax
    d8a0:	48 83 c0 10          	add    $0x10,%rax
    d8a4:	48 89 85 58 ff ff ff 	mov    %rax,-0xa8(%rbp)
    d8ab:	48 8d 85 20 e8 ff ff 	lea    -0x17e0(%rbp),%rax
    d8b2:	48 83 c0 08          	add    $0x8,%rax
    d8b6:	48 89 85 60 ff ff ff 	mov    %rax,-0xa0(%rbp)
    d8bd:	48 8d 85 20 e8 ff ff 	lea    -0x17e0(%rbp),%rax
    d8c4:	48 83 c0 10          	add    $0x10,%rax
    d8c8:	48 89 85 68 ff ff ff 	mov    %rax,-0x98(%rbp)
    d8cf:	48 c7 85 70 ff ff ff 	movq   $0x0,-0x90(%rbp)
    d8d6:	00 00 00 00 
    d8da:	48 8d 85 20 e8 ff ff 	lea    -0x17e0(%rbp),%rax
    d8e1:	48 83 c0 10          	add    $0x10,%rax
    d8e5:	48 89 85 78 ff ff ff 	mov    %rax,-0x88(%rbp)
    d8ec:	48 8d 85 20 e8 ff ff 	lea    -0x17e0(%rbp),%rax
    d8f3:	48 83 c0 10          	add    $0x10,%rax
    d8f7:	48 89 45 80          	mov    %rax,-0x80(%rbp)
    d8fb:	48 8d 85 20 e8 ff ff 	lea    -0x17e0(%rbp),%rax
    d902:	48 83 c0 08          	add    $0x8,%rax
    d906:	48 89 45 88          	mov    %rax,-0x78(%rbp)
    d90a:	48 c7 45 90 00 00 00 	movq   $0x0,-0x70(%rbp)
    d911:	00 
    d912:	48 8d 85 20 e8 ff ff 	lea    -0x17e0(%rbp),%rax
    d919:	48 83 c0 10          	add    $0x10,%rax
    d91d:	48 89 45 98          	mov    %rax,-0x68(%rbp)
    d921:	48 8d 85 20 e8 ff ff 	lea    -0x17e0(%rbp),%rax
    d928:	48 83 c0 10          	add    $0x10,%rax
    d92c:	48 89 45 a0          	mov    %rax,-0x60(%rbp)
    d930:	48 8d 85 20 e8 ff ff 	lea    -0x17e0(%rbp),%rax
    d937:	48 83 c0 10          	add    $0x10,%rax
    d93b:	48 89 45 a8          	mov    %rax,-0x58(%rbp)
    d93f:	48 8d 85 20 e8 ff ff 	lea    -0x17e0(%rbp),%rax
    d946:	48 83 c0 10          	add    $0x10,%rax
    d94a:	48 89 45 b0          	mov    %rax,-0x50(%rbp)
    d94e:	48 8d 85 20 e8 ff ff 	lea    -0x17e0(%rbp),%rax
    d955:	48 83 c0 08          	add    $0x8,%rax
    d959:	48 89 45 b8          	mov    %rax,-0x48(%rbp)
    d95d:	48 8d 85 20 e8 ff ff 	lea    -0x17e0(%rbp),%rax
    d964:	48 83 c0 10          	add    $0x10,%rax
    d968:	48 89 45 c0          	mov    %rax,-0x40(%rbp)
    d96c:	48 8d 85 20 e8 ff ff 	lea    -0x17e0(%rbp),%rax
    d973:	48 83 c0 10          	add    $0x10,%rax
    d977:	48 89 45 c8          	mov    %rax,-0x38(%rbp)
    d97b:	48 8d 85 20 e8 ff ff 	lea    -0x17e0(%rbp),%rax
    d982:	48 83 c0 10          	add    $0x10,%rax
    d986:	48 89 45 d0          	mov    %rax,-0x30(%rbp)
    d98a:	48 c7 85 60 e7 ff ff 	movq   $0x0,-0x18a0(%rbp)
    d991:	00 00 00 00 
    d995:	48 8d 05 74 e9 00 00 	lea    0xe974(%rip),%rax        # 1c310 <g_1559>
    d99c:	48 89 85 60 e6 ff ff 	mov    %rax,-0x19a0(%rbp)
    d9a3:	48 8d 85 60 e6 ff ff 	lea    -0x19a0(%rbp),%rax
    d9aa:	48 89 85 68 e7 ff ff 	mov    %rax,-0x1898(%rbp)
    d9b1:	c7 85 e8 e5 ff ff fb 	movl   $0xfffffffb,-0x1a18(%rbp)
    d9b8:	ff ff ff 
    d9bb:	48 8d 05 76 b6 00 00 	lea    0xb676(%rip),%rax        # 19038 <g_73+0x8>
    d9c2:	48 89 85 70 e7 ff ff 	mov    %rax,-0x1890(%rbp)
    d9c9:	c6 05 80 b8 00 00 00 	movb   $0x0,0xb880(%rip)        # 19250 <g_164>
    d9d0:	e9 b9 04 00 00       	jmpq   de8e <func_18+0x19d4>
    d9d5:	c6 85 db e5 ff ff ff 	movb   $0xff,-0x1a25(%rbp)
    d9dc:	48 b8 19 30 b4 d8 2a 	movabs $0x2531c2ad8b43019,%rax
    d9e3:	1c 53 02 
    d9e6:	48 89 85 78 e7 ff ff 	mov    %rax,-0x1888(%rbp)
    d9ed:	48 c7 85 80 e7 ff ff 	movq   $0x0,-0x1880(%rbp)
    d9f4:	00 00 00 00 
    d9f8:	48 8d 05 61 bc 00 00 	lea    0xbc61(%rip),%rax        # 19660 <g_2367+0xc0>
    d9ff:	48 89 85 88 e7 ff ff 	mov    %rax,-0x1878(%rbp)
    da06:	c7 85 40 e6 ff ff f9 	movl   $0xfffffff9,-0x19c0(%rbp)
    da0d:	ff ff ff 
    da10:	c7 85 44 e6 ff ff 02 	movl   $0x2,-0x19bc(%rbp)
    da17:	00 00 00 
    da1a:	c7 85 f8 e5 ff ff 00 	movl   $0x0,-0x1a08(%rbp)
    da21:	00 00 00 
    da24:	eb 22                	jmp    da48 <func_18+0x158e>
    da26:	8b 85 f8 e5 ff ff    	mov    -0x1a08(%rbp),%eax
    da2c:	48 98                	cltq   
    da2e:	48 8d 95 20 e8 ff ff 	lea    -0x17e0(%rbp),%rdx
    da35:	48 83 c2 10          	add    $0x10,%rdx
    da39:	48 89 94 c5 b0 e7 ff 	mov    %rdx,-0x1850(%rbp,%rax,8)
    da40:	ff 
    da41:	83 85 f8 e5 ff ff 01 	addl   $0x1,-0x1a08(%rbp)
    da48:	83 bd f8 e5 ff ff 01 	cmpl   $0x1,-0x1a08(%rbp)
    da4f:	7e d5                	jle    da26 <func_18+0x156c>
    da51:	48 8b 05 d0 e8 00 00 	mov    0xe8d0(%rip),%rax        # 1c328 <g_1662>
    da58:	0f b6 00             	movzbl (%rax),%eax
    da5b:	0f be d8             	movsbl %al,%ebx
    da5e:	44 0f b6 a5 db e5 ff 	movzbl -0x1a25(%rbp),%r12d
    da65:	ff 
    da66:	48 8b 85 c8 e5 ff ff 	mov    -0x1a38(%rbp),%rax
    da6d:	41 89 c6             	mov    %eax,%r14d
    da70:	48 8b 05 89 e5 00 00 	mov    0xe589(%rip),%rax        # 1c000 <g_200>
    da77:	0f b7 00             	movzwl (%rax),%eax
    da7a:	44 0f b7 e8          	movzwl %ax,%r13d
    da7e:	48 83 bd c8 e5 ff ff 	cmpq   $0x22,-0x1a38(%rbp)
    da85:	22 
    da86:	0f 9f c0             	setg   %al
    da89:	0f b6 c0             	movzbl %al,%eax
    da8c:	48 8b 95 c8 e5 ff ff 	mov    -0x1a38(%rbp),%rdx
    da93:	48 89 d6             	mov    %rdx,%rsi
    da96:	48 89 c7             	mov    %rax,%rdi
    da99:	e8 a3 ad ff ff       	callq  8841 <safe_add_func_int64_t_s_s>
    da9e:	48 83 bd c8 e5 ff ff 	cmpq   $0x1,-0x1a38(%rbp)
    daa5:	01 
    daa6:	0f 95 c0             	setne  %al
    daa9:	0f b6 c0             	movzbl %al,%eax
    daac:	89 c7                	mov    %eax,%edi
    daae:	e8 ea a8 ff ff       	callq  839d <safe_unary_minus_func_int16_t_s>
    dab3:	48 8b 85 78 e6 ff ff 	mov    -0x1988(%rbp),%rax
    daba:	48 3b 85 58 e7 ff ff 	cmp    -0x18a8(%rbp),%rax
    dac1:	0f 95 c0             	setne  %al
    dac4:	0f b6 c0             	movzbl %al,%eax
    dac7:	48 39 85 c8 e5 ff ff 	cmp    %rax,-0x1a38(%rbp)
    dace:	0f 9f c0             	setg   %al
    dad1:	0f b6 c0             	movzbl %al,%eax
    dad4:	44 89 ee             	mov    %r13d,%esi
    dad7:	89 c7                	mov    %eax,%edi
    dad9:	e8 41 b2 ff ff       	callq  8d1f <safe_sub_func_uint16_t_u_u>
    dade:	0f b7 c0             	movzwl %ax,%eax
    dae1:	89 85 3c e6 ff ff    	mov    %eax,-0x19c4(%rbp)
    dae7:	48 8b 85 c8 e5 ff ff 	mov    -0x1a38(%rbp),%rax
    daee:	48 be ae 5b c6 5b 1f 	movabs $0x2969481f5bc65bae,%rsi
    daf5:	48 69 29 
    daf8:	48 89 c7             	mov    %rax,%rdi
    dafb:	e8 b4 ae ff ff       	callq  89b4 <safe_mod_func_int64_t_s_s>
    db00:	be 05 00 00 00       	mov    $0x5,%esi
    db05:	bf 00 00 00 00       	mov    $0x0,%edi
    db0a:	e8 d2 a9 ff ff       	callq  84e1 <safe_lshift_func_int16_t_s_u>
    db0f:	0f be c0             	movsbl %al,%eax
    db12:	be 05 00 00 00       	mov    $0x5,%esi
    db17:	89 c7                	mov    %eax,%edi
    db19:	e8 17 a8 ff ff       	callq  8335 <safe_rshift_func_int8_t_s_s>
    db1e:	0f be c0             	movsbl %al,%eax
    db21:	be 05 00 00 00       	mov    $0x5,%esi
    db26:	89 c7                	mov    %eax,%edi
    db28:	e8 a6 a8 ff ff       	callq  83d3 <safe_sub_func_int16_t_s_s>
    db2d:	48 8b 05 f4 e7 00 00 	mov    0xe7f4(%rip),%rax        # 1c328 <g_1662>
    db34:	0f b6 00             	movzbl (%rax),%eax
    db37:	0f be c0             	movsbl %al,%eax
    db3a:	44 89 f6             	mov    %r14d,%esi
    db3d:	89 c7                	mov    %eax,%edi
    db3f:	e8 28 a8 ff ff       	callq  836c <safe_rshift_func_int8_t_s_u>
    db44:	0f be c0             	movsbl %al,%eax
    db47:	44 89 e6             	mov    %r12d,%esi
    db4a:	89 c7                	mov    %eax,%edi
    db4c:	e8 65 aa ff ff       	callq  85b6 <safe_add_func_int32_t_s_s>
    db51:	89 de                	mov    %ebx,%esi
    db53:	bf 4d 00 00 00       	mov    $0x4d,%edi
    db58:	e8 a8 b0 ff ff       	callq  8c05 <safe_lshift_func_uint8_t_u_s>
    db5d:	48 8b 85 68 e6 ff ff 	mov    -0x1998(%rbp),%rax
    db64:	8b 00                	mov    (%rax),%eax
    db66:	83 f8 01             	cmp    $0x1,%eax
    db69:	0f 95 c0             	setne  %al
    db6c:	0f b6 d0             	movzbl %al,%edx
    db6f:	8b 85 1c e8 ff ff    	mov    -0x17e4(%rbp),%eax
    db75:	21 d0                	and    %edx,%eax
    db77:	89 85 1c e8 ff ff    	mov    %eax,-0x17e4(%rbp)
    db7d:	48 8b 05 a4 c0 00 00 	mov    0xc0a4(%rip),%rax        # 19c28 <g_2624+0x4e8>
    db84:	41 89 c4             	mov    %eax,%r12d
    db87:	48 8b 85 c8 e5 ff ff 	mov    -0x1a38(%rbp),%rax
    db8e:	41 89 c5             	mov    %eax,%r13d
    db91:	48 8b 05 90 e7 00 00 	mov    0xe790(%rip),%rax        # 1c328 <g_1662>
    db98:	0f b6 00             	movzbl (%rax),%eax
    db9b:	0f b6 d8             	movzbl %al,%ebx
    db9e:	0f b6 85 db e5 ff ff 	movzbl -0x1a25(%rbp),%eax
    dba5:	83 c8 01             	or     $0x1,%eax
    dba8:	0f b6 d0             	movzbl %al,%edx
    dbab:	48 8b 85 70 e6 ff ff 	mov    -0x1990(%rbp),%rax
    dbb2:	48 89 10             	mov    %rdx,(%rax)
    dbb5:	48 8b 05 1c f6 00 00 	mov    0xf61c(%rip),%rax        # 1d1d8 <g_2612>
    dbbc:	48 85 c0             	test   %rax,%rax
    dbbf:	0f 95 c1             	setne  %cl
    dbc2:	48 8b 95 c0 fe ff ff 	mov    -0x140(%rbp),%rdx
    dbc9:	48 8b 85 b8 e7 ff ff 	mov    -0x1848(%rbp),%rax
    dbd0:	48 89 05 81 f6 00 00 	mov    %rax,0xf681(%rip)        # 1d258 <g_2617+0x78>
    dbd7:	48 8b 05 7a f6 00 00 	mov    0xf67a(%rip),%rax        # 1d258 <g_2617+0x78>
    dbde:	48 39 c2             	cmp    %rax,%rdx
    dbe1:	0f 94 c0             	sete   %al
    dbe4:	31 c8                	xor    %ecx,%eax
    dbe6:	0f b6 d0             	movzbl %al,%edx
    dbe9:	48 8b 85 60 e7 ff ff 	mov    -0x18a0(%rbp),%rax
    dbf0:	48 3b 85 80 e6 ff ff 	cmp    -0x1980(%rbp),%rax
    dbf7:	0f 94 c0             	sete   %al
    dbfa:	0f b6 c0             	movzbl %al,%eax
    dbfd:	39 c2                	cmp    %eax,%edx
    dbff:	0f b6 85 db e5 ff ff 	movzbl -0x1a25(%rbp),%eax
    dc06:	8b 95 3c e6 ff ff    	mov    -0x19c4(%rbp),%edx
    dc0c:	89 d6                	mov    %edx,%esi
    dc0e:	89 c7                	mov    %eax,%edi
    dc10:	e8 f0 a9 ff ff       	callq  8605 <safe_sub_func_int32_t_s_s>
    dc15:	83 f8 07             	cmp    $0x7,%eax
    dc18:	0f 96 c0             	setbe  %al
    dc1b:	0f b6 c0             	movzbl %al,%eax
    dc1e:	be 75 12 00 00       	mov    $0x1275,%esi
    dc23:	89 c7                	mov    %eax,%edi
    dc25:	e8 a9 a7 ff ff       	callq  83d3 <safe_sub_func_int16_t_s_s>
    dc2a:	66 85 c0             	test   %ax,%ax
    dc2d:	75 0a                	jne    dc39 <func_18+0x177f>
    dc2f:	48 83 bd c8 e5 ff ff 	cmpq   $0x0,-0x1a38(%rbp)
    dc36:	00 
    dc37:	74 07                	je     dc40 <func_18+0x1786>
    dc39:	b8 01 00 00 00       	mov    $0x1,%eax
    dc3e:	eb 05                	jmp    dc45 <func_18+0x178b>
    dc40:	b8 00 00 00 00       	mov    $0x0,%eax
    dc45:	48 98                	cltq   
    dc47:	48 8b 95 c8 e5 ff ff 	mov    -0x1a38(%rbp),%rdx
    dc4e:	48 89 d6             	mov    %rdx,%rsi
    dc51:	48 89 c7             	mov    %rax,%rdi
    dc54:	e8 e8 ab ff ff       	callq  8841 <safe_add_func_int64_t_s_s>
    dc59:	0f b6 c0             	movzbl %al,%eax
    dc5c:	89 de                	mov    %ebx,%esi
    dc5e:	89 c7                	mov    %eax,%edi
    dc60:	e8 f5 ae ff ff       	callq  8b5a <safe_add_func_uint8_t_u_u>
    dc65:	0f b6 d0             	movzbl %al,%edx
    dc68:	48 8b 05 f9 e3 00 00 	mov    0xe3f9(%rip),%rax        # 1c068 <g_274>
    dc6f:	48 8b 00             	mov    (%rax),%rax
    dc72:	8b 00                	mov    (%rax),%eax
    dc74:	39 c2                	cmp    %eax,%edx
    dc76:	0f 93 c0             	setae  %al
    dc79:	0f b6 c0             	movzbl %al,%eax
    dc7c:	89 c6                	mov    %eax,%esi
    dc7e:	bf 00 00 00 00       	mov    $0x0,%edi
    dc83:	e8 7d a9 ff ff       	callq  8605 <safe_sub_func_int32_t_s_s>
    dc88:	48 83 bd 68 e7 ff ff 	cmpq   $0x0,-0x1898(%rbp)
    dc8f:	00 
    dc90:	0f 94 c0             	sete   %al
    dc93:	0f b6 c0             	movzbl %al,%eax
    dc96:	44 89 ee             	mov    %r13d,%esi
    dc99:	89 c7                	mov    %eax,%edi
    dc9b:	e8 1e b1 ff ff       	callq  8dbe <safe_lshift_func_uint16_t_u_s>
    dca0:	48 83 bd c8 e5 ff ff 	cmpq   $0x0,-0x1a38(%rbp)
    dca7:	00 
    dca8:	74 11                	je     dcbb <func_18+0x1801>
    dcaa:	48 83 bd c8 e5 ff ff 	cmpq   $0x0,-0x1a38(%rbp)
    dcb1:	00 
    dcb2:	74 07                	je     dcbb <func_18+0x1801>
    dcb4:	b8 01 00 00 00       	mov    $0x1,%eax
    dcb9:	eb 05                	jmp    dcc0 <func_18+0x1806>
    dcbb:	b8 00 00 00 00       	mov    $0x0,%eax
    dcc0:	89 85 e8 e5 ff ff    	mov    %eax,-0x1a18(%rbp)
    dcc6:	8b 85 e8 e5 ff ff    	mov    -0x1a18(%rbp),%eax
    dccc:	0f b7 c0             	movzwl %ax,%eax
    dccf:	44 89 e6             	mov    %r12d,%esi
    dcd2:	89 c7                	mov    %eax,%edi
    dcd4:	e8 6f b1 ff ff       	callq  8e48 <safe_rshift_func_uint16_t_u_s>
    dcd9:	0f b7 d0             	movzwl %ax,%edx
    dcdc:	0f be 85 da e5 ff ff 	movsbl -0x1a26(%rbp),%eax
    dce3:	39 c2                	cmp    %eax,%edx
    dce5:	0f 9e c0             	setle  %al
    dce8:	0f b6 c0             	movzbl %al,%eax
    dceb:	48 8b 95 78 e7 ff ff 	mov    -0x1888(%rbp),%rdx
    dcf2:	09 d0                	or     %edx,%eax
    dcf4:	89 c2                	mov    %eax,%edx
    dcf6:	48 8b 85 c8 e5 ff ff 	mov    -0x1a38(%rbp),%rax
    dcfd:	0f b6 c0             	movzbl %al,%eax
    dd00:	89 d6                	mov    %edx,%esi
    dd02:	89 c7                	mov    %eax,%edi
    dd04:	e8 43 af ff ff       	callq  8c4c <safe_lshift_func_uint8_t_u_u>
    dd09:	48 83 bd c8 e5 ff ff 	cmpq   $0x0,-0x1a38(%rbp)
    dd10:	00 
    dd11:	48 c7 85 90 e7 ff ff 	movq   $0x0,-0x1870(%rbp)
    dd18:	00 00 00 00 
    dd1c:	48 8d 05 a5 e5 00 00 	lea    0xe5a5(%rip),%rax        # 1c2c8 <g_1265>
    dd23:	48 89 85 98 e7 ff ff 	mov    %rax,-0x1868(%rbp)
    dd2a:	c7 85 fc e5 ff ff 00 	movl   $0x0,-0x1a04(%rbp)
    dd31:	00 00 00 
    dd34:	eb 7b                	jmp    ddb1 <func_18+0x18f7>
    dd36:	c7 85 00 e6 ff ff 00 	movl   $0x0,-0x1a00(%rbp)
    dd3d:	00 00 00 
    dd40:	eb 5f                	jmp    dda1 <func_18+0x18e7>
    dd42:	c7 85 04 e6 ff ff 00 	movl   $0x0,-0x19fc(%rbp)
    dd49:	00 00 00 
    dd4c:	eb 43                	jmp    dd91 <func_18+0x18d7>
    dd4e:	8b 85 04 e6 ff ff    	mov    -0x19fc(%rbp),%eax
    dd54:	48 63 c8             	movslq %eax,%rcx
    dd57:	8b 85 fc e5 ff ff    	mov    -0x1a04(%rbp),%eax
    dd5d:	48 63 d0             	movslq %eax,%rdx
    dd60:	8b 85 00 e6 ff ff    	mov    -0x1a00(%rbp),%eax
    dd66:	48 98                	cltq   
    dd68:	48 01 c2             	add    %rax,%rdx
    dd6b:	48 89 d0             	mov    %rdx,%rax
    dd6e:	48 c1 e0 03          	shl    $0x3,%rax
    dd72:	48 29 d0             	sub    %rdx,%rax
    dd75:	48 01 c8             	add    %rcx,%rax
    dd78:	48 bb 11 4c 13 5d aa 	movabs $0x1eade0aa5d134c11,%rbx
    dd7f:	e0 ad 1e 
    dd82:	48 89 9c c5 a0 e8 ff 	mov    %rbx,-0x1760(%rbp,%rax,8)
    dd89:	ff 
    dd8a:	83 85 04 e6 ff ff 01 	addl   $0x1,-0x19fc(%rbp)
    dd91:	83 bd 04 e6 ff ff 06 	cmpl   $0x6,-0x19fc(%rbp)
    dd98:	7e b4                	jle    dd4e <func_18+0x1894>
    dd9a:	83 85 00 e6 ff ff 01 	addl   $0x1,-0x1a00(%rbp)
    dda1:	83 bd 00 e6 ff ff 00 	cmpl   $0x0,-0x1a00(%rbp)
    dda8:	7e 98                	jle    dd42 <func_18+0x1888>
    ddaa:	83 85 fc e5 ff ff 01 	addl   $0x1,-0x1a04(%rbp)
    ddb1:	83 bd fc e5 ff ff 02 	cmpl   $0x2,-0x1a04(%rbp)
    ddb8:	0f 8e 78 ff ff ff    	jle    dd36 <func_18+0x187c>
    ddbe:	0f b6 85 db e5 ff ff 	movzbl -0x1a25(%rbp),%eax
    ddc5:	48 8b 95 b8 e8 ff ff 	mov    -0x1748(%rbp),%rdx
    ddcc:	31 d0                	xor    %edx,%eax
    ddce:	89 85 3c e6 ff ff    	mov    %eax,-0x19c4(%rbp)
    ddd4:	48 8b 05 5d e5 00 00 	mov    0xe55d(%rip),%rax        # 1c338 <g_1666>
    dddb:	48 8b 00             	mov    (%rax),%rax
    ddde:	48 8b 00             	mov    (%rax),%rax
    dde1:	48 85 c0             	test   %rax,%rax
    dde4:	74 19                	je     ddff <func_18+0x1945>
    dde6:	48 8b 95 40 eb ff ff 	mov    -0x14c0(%rbp),%rdx
    dded:	48 8b 85 98 e7 ff ff 	mov    -0x1868(%rbp),%rax
    ddf4:	48 89 10             	mov    %rdx,(%rax)
    ddf7:	48 83 bd c8 e5 ff ff 	cmpq   $0x1,-0x1a38(%rbp)
    ddfe:	01 
    ddff:	8b 85 e8 e5 ff ff    	mov    -0x1a18(%rbp),%eax
    de05:	0f b6 c0             	movzbl %al,%eax
    de08:	be 02 00 00 00       	mov    $0x2,%esi
    de0d:	89 c7                	mov    %eax,%edi
    de0f:	e8 38 ae ff ff       	callq  8c4c <safe_lshift_func_uint8_t_u_u>
    de14:	48 8b 85 68 e6 ff ff 	mov    -0x1998(%rbp),%rax
    de1b:	8b 00                	mov    (%rax),%eax
    de1d:	0f bf d0             	movswl %ax,%edx
    de20:	48 8b 85 c8 e5 ff ff 	mov    -0x1a38(%rbp),%rax
    de27:	83 f0 01             	xor    $0x1,%eax
    de2a:	98                   	cwtl   
    de2b:	89 d6                	mov    %edx,%esi
    de2d:	89 c7                	mov    %eax,%edi
    de2f:	e8 21 a6 ff ff       	callq  8455 <safe_div_func_int16_t_s_s>
    de34:	0f bf d0             	movswl %ax,%edx
    de37:	48 8b 85 68 e6 ff ff 	mov    -0x1998(%rbp),%rax
    de3e:	8b 00                	mov    (%rax),%eax
    de40:	39 c2                	cmp    %eax,%edx
    de42:	0f 9e c0             	setle  %al
    de45:	0f b6 c0             	movzbl %al,%eax
    de48:	be 90 00 00 00       	mov    $0x90,%esi
    de4d:	89 c7                	mov    %eax,%edi
    de4f:	e8 06 ad ff ff       	callq  8b5a <safe_add_func_uint8_t_u_u>
    de54:	48 8b 85 68 e6 ff ff 	mov    -0x1998(%rbp),%rax
    de5b:	8b 00                	mov    (%rax),%eax
    de5d:	48 98                	cltq   
    de5f:	48 ba 8f 22 d9 98 1c 	movabs $0x69a15a1c98d9228f,%rdx
    de66:	5a a1 69 
    de69:	48 09 d0             	or     %rdx,%rax
    de6c:	48 85 c0             	test   %rax,%rax
    de6f:	0f 9e c2             	setle  %dl
    de72:	48 8b 05 87 f4 00 00 	mov    0xf487(%rip),%rax        # 1d300 <g_2637>
    de79:	0f b6 d2             	movzbl %dl,%edx
    de7c:	89 10                	mov    %edx,(%rax)
    de7e:	0f b6 05 cb b3 00 00 	movzbl 0xb3cb(%rip),%eax        # 19250 <g_164>
    de85:	83 c0 01             	add    $0x1,%eax
    de88:	88 05 c2 b3 00 00    	mov    %al,0xb3c2(%rip)        # 19250 <g_164>
    de8e:	0f b6 05 bb b3 00 00 	movzbl 0xb3bb(%rip),%eax        # 19250 <g_164>
    de95:	3c 29                	cmp    $0x29,%al
    de97:	0f 84 38 fb ff ff    	je     d9d5 <func_18+0x151b>
    de9d:	8b 85 e8 e5 ff ff    	mov    -0x1a18(%rbp),%eax
    dea3:	85 c0                	test   %eax,%eax
    dea5:	74 35                	je     dedc <func_18+0x1a22>
    dea7:	48 8b 85 c8 e5 ff ff 	mov    -0x1a38(%rbp),%rax
    deae:	48 83 c8 01          	or     $0x1,%rax
    deb2:	48 89 c3             	mov    %rax,%rbx
    deb5:	48 8b 85 68 e6 ff ff 	mov    -0x1998(%rbp),%rax
    debc:	8b 00                	mov    (%rax),%eax
    debe:	48 98                	cltq   
    dec0:	be 7d 11 00 00       	mov    $0x117d,%esi
    dec5:	48 89 c7             	mov    %rax,%rdi
    dec8:	e8 db a9 ff ff       	callq  88a8 <safe_sub_func_int64_t_s_s>
    decd:	48 3d fe 00 00 00    	cmp    $0xfe,%rax
    ded3:	0f 96 c0             	setbe  %al
    ded6:	0f b6 c0             	movzbl %al,%eax
    ded9:	48 39 c3             	cmp    %rax,%rbx
    dedc:	be 0d 00 00 00       	mov    $0xd,%esi
    dee1:	bf 01 00 00 00       	mov    $0x1,%edi
    dee6:	e8 3f a6 ff ff       	callq  852a <safe_rshift_func_int16_t_s_s>
    deeb:	48 8b 95 c8 e5 ff ff 	mov    -0x1a38(%rbp),%rdx
    def2:	48 8b 85 68 e6 ff ff 	mov    -0x1998(%rbp),%rax
    def9:	8b 00                	mov    (%rax),%eax
    defb:	48 98                	cltq   
    defd:	48 89 d6             	mov    %rdx,%rsi
    df00:	48 89 c7             	mov    %rax,%rdi
    df03:	e8 43 b1 ff ff       	callq  904b <safe_sub_func_uint64_t_u_u>
    df08:	48 8b 95 c8 e5 ff ff 	mov    -0x1a38(%rbp),%rdx
    df0f:	48 39 d0             	cmp    %rdx,%rax
    df12:	0f 96 c0             	setbe  %al
    df15:	0f b6 c0             	movzbl %al,%eax
    df18:	be ff ff ff ff       	mov    $0xffffffff,%esi
    df1d:	89 c7                	mov    %eax,%edi
    df1f:	e8 f2 a4 ff ff       	callq  8416 <safe_mod_func_int16_t_s_s>
    df24:	48 0f bf c0          	movswq %ax,%rax
    df28:	48 39 85 c8 e5 ff ff 	cmp    %rax,-0x1a38(%rbp)
    df2f:	0f 9f c0             	setg   %al
    df32:	0f b6 d0             	movzbl %al,%edx
    df35:	48 8b 85 48 e6 ff ff 	mov    -0x19b8(%rbp),%rax
    df3c:	48 21 d0             	and    %rdx,%rax
    df3f:	48 89 85 48 e6 ff ff 	mov    %rax,-0x19b8(%rbp)
    df46:	48 8b 85 48 e6 ff ff 	mov    -0x19b8(%rbp),%rax
    df4d:	89 85 e8 e5 ff ff    	mov    %eax,-0x1a18(%rbp)
    df53:	48 8b 85 70 e7 ff ff 	mov    -0x1890(%rbp),%rax
    df5a:	c7 00 ff ff ff ff    	movl   $0xffffffff,(%rax)
    df60:	e9 dd 02 00 00       	jmpq   e242 <func_18+0x1d88>
    df65:	48 c7 85 40 e7 ff ff 	movq   $0x0,-0x18c0(%rbp)
    df6c:	00 00 00 00 
    df70:	48 c7 85 48 e7 ff ff 	movq   $0x0,-0x18b8(%rbp)
    df77:	00 00 00 00 
    df7b:	48 c7 85 50 e7 ff ff 	movq   $0x0,-0x18b0(%rbp)
    df82:	00 00 00 00 
    df86:	c7 85 08 e6 ff ff 00 	movl   $0x0,-0x19f8(%rbp)
    df8d:	00 00 00 
    df90:	eb 22                	jmp    dfb4 <func_18+0x1afa>
    df92:	8b 85 08 e6 ff ff    	mov    -0x19f8(%rbp),%eax
    df98:	48 98                	cltq   
    df9a:	48 8d 95 00 e8 ff ff 	lea    -0x1800(%rbp),%rdx
    dfa1:	48 83 c2 1c          	add    $0x1c,%rdx
    dfa5:	48 89 94 c5 30 f8 ff 	mov    %rdx,-0x7d0(%rbp,%rax,8)
    dfac:	ff 
    dfad:	83 85 08 e6 ff ff 01 	addl   $0x1,-0x19f8(%rbp)
    dfb4:	83 bd 08 e6 ff ff 07 	cmpl   $0x7,-0x19f8(%rbp)
    dfbb:	7e d5                	jle    df92 <func_18+0x1ad8>
    dfbd:	48 83 ad 38 e7 ff ff 	subq   $0x1,-0x18c8(%rbp)
    dfc4:	01 
    dfc5:	e9 78 02 00 00       	jmpq   e242 <func_18+0x1d88>
    dfca:	48 b8 44 e3 b7 b9 2c 	movabs $0x946e5b2cb9b7e344,%rax
    dfd1:	5b 6e 94 
    dfd4:	48 89 85 d0 e6 ff ff 	mov    %rax,-0x1930(%rbp)
    dfdb:	c7 85 28 e6 ff ff eb 	movl   $0xd70d3beb,-0x19d8(%rbp)
    dfe2:	3b 0d d7 
    dfe5:	48 c7 85 d8 e6 ff ff 	movq   $0x0,-0x1928(%rbp)
    dfec:	00 00 00 00 
    dff0:	c7 85 2c e6 ff ff 01 	movl   $0x1,-0x19d4(%rbp)
    dff7:	00 00 00 
    dffa:	48 c7 85 e0 e6 ff ff 	movq   $0x0,-0x1920(%rbp)
    e001:	00 00 00 00 
    e005:	48 c7 85 e8 e6 ff ff 	movq   $0x0,-0x1918(%rbp)
    e00c:	00 00 00 00 
    e010:	48 8d 05 61 b6 00 00 	lea    0xb661(%rip),%rax        # 19678 <g_2374>
    e017:	48 89 85 f0 e6 ff ff 	mov    %rax,-0x1910(%rbp)
    e01e:	48 8d 05 63 b5 00 00 	lea    0xb563(%rip),%rax        # 19588 <g_2308>
    e025:	48 89 85 f8 e6 ff ff 	mov    %rax,-0x1908(%rbp)
    e02c:	48 8d 85 48 e6 ff ff 	lea    -0x19b8(%rbp),%rax
    e033:	48 89 85 00 e7 ff ff 	mov    %rax,-0x1900(%rbp)
    e03a:	48 8d 05 94 b6 00 00 	lea    0xb694(%rip),%rax        # 196d5 <g_2398+0x55>
    e041:	48 89 85 08 e7 ff ff 	mov    %rax,-0x18f8(%rbp)
    e048:	c7 85 30 e6 ff ff 03 	movl   $0x3,-0x19d0(%rbp)
    e04f:	00 00 00 
    e052:	c7 85 34 e6 ff ff 09 	movl   $0xaa47ea09,-0x19cc(%rbp)
    e059:	ea 47 aa 
    e05c:	c7 85 38 e6 ff ff 00 	movl   $0x0,-0x19c8(%rbp)
    e063:	00 00 00 
    e066:	48 c7 85 10 e7 ff ff 	movq   $0x0,-0x18f0(%rbp)
    e06d:	00 00 00 00 
    e071:	48 8d 05 90 e0 00 00 	lea    0xe090(%rip),%rax        # 1c108 <g_427+0x88>
    e078:	48 89 85 18 e7 ff ff 	mov    %rax,-0x18e8(%rbp)
    e07f:	48 c7 85 20 e7 ff ff 	movq   $0x0,-0x18e0(%rbp)
    e086:	00 00 00 00 
    e08a:	48 8d 05 5f fa 00 00 	lea    0xfa5f(%rip),%rax        # 1daf0 <g_1665+0x10>
    e091:	48 89 85 28 e7 ff ff 	mov    %rax,-0x18d8(%rbp)
    e098:	48 c7 85 30 e7 ff ff 	movq   $0x0,-0x18d0(%rbp)
    e09f:	00 00 00 00 
    e0a3:	66 c7 85 e0 e5 ff ff 	movw   $0xe8f3,-0x1a20(%rbp)
    e0aa:	f3 e8 
    e0ac:	c7 85 0c e6 ff ff 00 	movl   $0x0,-0x19f4(%rbp)
    e0b3:	00 00 00 
    e0b6:	eb 1a                	jmp    e0d2 <func_18+0x1c18>
    e0b8:	8b 85 0c e6 ff ff    	mov    -0x19f4(%rbp),%eax
    e0be:	48 98                	cltq   
    e0c0:	c7 84 85 30 f8 ff ff 	movl   $0xffffffff,-0x7d0(%rbp,%rax,4)
    e0c7:	ff ff ff ff 
    e0cb:	83 85 0c e6 ff ff 01 	addl   $0x1,-0x19f4(%rbp)
    e0d2:	83 bd 0c e6 ff ff 01 	cmpl   $0x1,-0x19f4(%rbp)
    e0d9:	7e dd                	jle    e0b8 <func_18+0x1bfe>
    e0db:	48 8b 85 68 e6 ff ff 	mov    -0x1998(%rbp),%rax
    e0e2:	8b 18                	mov    (%rax),%ebx
    e0e4:	48 8b 85 68 e6 ff ff 	mov    -0x1998(%rbp),%rax
    e0eb:	8b 00                	mov    (%rax),%eax
    e0ed:	4c 63 e0             	movslq %eax,%r12
    e0f0:	c7 85 18 e6 ff ff 01 	movl   $0x1,-0x19e8(%rbp)
    e0f7:	00 00 00 
    e0fa:	48 8b 85 c8 e5 ff ff 	mov    -0x1a38(%rbp),%rax
    e101:	89 c6                	mov    %eax,%esi
    e103:	48 8b 05 06 e2 00 00 	mov    0xe206(%rip),%rax        # 1c310 <g_1559>
    e10a:	48 8b 10             	mov    (%rax),%rdx
    e10d:	8b 02                	mov    (%rdx),%eax
    e10f:	8d 48 01             	lea    0x1(%rax),%ecx
    e112:	89 0a                	mov    %ecx,(%rdx)
    e114:	89 c7                	mov    %eax,%edi
    e116:	e8 9d ad ff ff       	callq  8eb8 <safe_add_func_uint32_t_u_u>
    e11b:	0d b9 a6 bd 0c       	or     $0xcbda6b9,%eax
    e120:	41 89 c6             	mov    %eax,%r14d
    e123:	48 8b 85 d0 e6 ff ff 	mov    -0x1930(%rbp),%rax
    e12a:	41 89 c5             	mov    %eax,%r13d
    e12d:	48 8b 85 c8 e5 ff ff 	mov    -0x1a38(%rbp),%rax
    e134:	89 c2                	mov    %eax,%edx
    e136:	48 83 bd d0 e6 ff ff 	cmpq   $0x0,-0x1930(%rbp)
    e13d:	00 
    e13e:	0f 95 c0             	setne  %al
    e141:	0f b6 c0             	movzbl %al,%eax
    e144:	89 d6                	mov    %edx,%esi
    e146:	89 c7                	mov    %eax,%edi
    e148:	e8 94 a3 ff ff       	callq  84e1 <safe_lshift_func_int16_t_s_u>
    e14d:	48 8b 05 e4 e1 00 00 	mov    0xe1e4(%rip),%rax        # 1c338 <g_1666>
    e154:	48 8b 00             	mov    (%rax),%rax
    e157:	48 8b 00             	mov    (%rax),%rax
    e15a:	48 85 c0             	test   %rax,%rax
    e15d:	0f 95 c0             	setne  %al
    e160:	0f b6 c0             	movzbl %al,%eax
    e163:	44 89 ee             	mov    %r13d,%esi
    e166:	89 c7                	mov    %eax,%edi
    e168:	e8 db ac ff ff       	callq  8e48 <safe_rshift_func_uint16_t_u_s>
    e16d:	0f b7 c0             	movzwl %ax,%eax
    e170:	4c 21 f0             	and    %r14,%rax
    e173:	4c 89 e6             	mov    %r12,%rsi
    e176:	48 89 c7             	mov    %rax,%rdi
    e179:	e8 79 a8 ff ff       	callq  89f7 <safe_div_func_int64_t_s_s>
    e17e:	48 8b 95 68 e6 ff ff 	mov    -0x1998(%rbp),%rdx
    e185:	8b 12                	mov    (%rdx),%edx
    e187:	48 63 d2             	movslq %edx,%rdx
    e18a:	48 39 d0             	cmp    %rdx,%rax
    e18d:	7e 13                	jle    e1a2 <func_18+0x1ce8>
    e18f:	48 8b 85 f0 f5 ff ff 	mov    -0xa10(%rbp),%rax
    e196:	48 85 c0             	test   %rax,%rax
    e199:	74 07                	je     e1a2 <func_18+0x1ce8>
    e19b:	b8 01 00 00 00       	mov    $0x1,%eax
    e1a0:	eb 05                	jmp    e1a7 <func_18+0x1ced>
    e1a2:	b8 00 00 00 00       	mov    $0x0,%eax
    e1a7:	0f b6 c0             	movzbl %al,%eax
    e1aa:	be 0b 00 00 00       	mov    $0xb,%esi
    e1af:	89 c7                	mov    %eax,%edi
    e1b1:	e8 f8 a9 ff ff       	callq  8bae <safe_mod_func_uint8_t_u_u>
    e1b6:	0f b6 c0             	movzbl %al,%eax
    e1b9:	83 f0 f7             	xor    $0xfffffff7,%eax
    e1bc:	89 de                	mov    %ebx,%esi
    e1be:	89 c7                	mov    %eax,%edi
    e1c0:	e8 f1 a3 ff ff       	callq  85b6 <safe_add_func_int32_t_s_s>
    e1c5:	89 85 28 e6 ff ff    	mov    %eax,-0x19d8(%rbp)
    e1cb:	8b 85 28 e6 ff ff    	mov    -0x19d8(%rbp),%eax
    e1d1:	0f b7 d0             	movzwl %ax,%edx
    e1d4:	48 8b 85 d0 e6 ff ff 	mov    -0x1930(%rbp),%rax
    e1db:	0f b7 c0             	movzwl %ax,%eax
    e1de:	89 d6                	mov    %edx,%esi
    e1e0:	89 c7                	mov    %eax,%edi
    e1e2:	e8 18 ab ff ff       	callq  8cff <safe_add_func_uint16_t_u_u>
    e1e7:	48 8b 85 c8 e5 ff ff 	mov    -0x1a38(%rbp),%rax
    e1ee:	31 85 2c e6 ff ff    	xor    %eax,-0x19d4(%rbp)
    e1f4:	83 bd 2c e6 ff ff 00 	cmpl   $0x0,-0x19d4(%rbp)
    e1fb:	74 0b                	je     e208 <func_18+0x1d4e>
    e1fd:	48 8b 05 fc e4 00 00 	mov    0xe4fc(%rip),%rax        # 1c700 <g_1733>
    e204:	8b 00                	mov    (%rax),%eax
    e206:	85 c0                	test   %eax,%eax
    e208:	48 83 bd e0 e6 ff ff 	cmpq   $0x0,-0x1920(%rbp)
    e20f:	00 
    e210:	0f 95 c0             	setne  %al
    e213:	0f b6 c0             	movzbl %al,%eax
    e216:	be 06 00 00 00       	mov    $0x6,%esi
    e21b:	89 c7                	mov    %eax,%edi
    e21d:	e8 70 a2 ff ff       	callq  8492 <safe_lshift_func_int16_t_s_s>
    e222:	48 83 bd c8 e5 ff ff 	cmpq   $0x0,-0x1a38(%rbp)
    e229:	00 
    e22a:	0f 9f c0             	setg   %al
    e22d:	0f b6 c0             	movzbl %al,%eax
    e230:	48 8b 95 c8 e5 ff ff 	mov    -0x1a38(%rbp),%rdx
    e237:	09 c2                	or     %eax,%edx
    e239:	48 8b 85 f0 e6 ff ff 	mov    -0x1910(%rbp),%rax
    e240:	89 10                	mov    %edx,(%rax)
    e242:	66 83 ad de e5 ff ff 	subw   $0x1,-0x1a22(%rbp)
    e249:	01 
    e24a:	48 8b 05 bf f0 00 00 	mov    0xf0bf(%rip),%rax        # 1d310 <g_3135>
    e251:	48 8b 5d d8          	mov    -0x28(%rbp),%rbx
    e255:	64 48 33 1c 25 28 00 	xor    %fs:0x28,%rbx
    e25c:	00 00 
    e25e:	74 05                	je     e265 <func_18+0x1dab>
    e260:	e8 0b 9e ff ff       	callq  8070 <__stack_chk_fail@plt>
    e265:	48 81 c4 20 1a 00 00 	add    $0x1a20,%rsp
    e26c:	5b                   	pop    %rbx
    e26d:	41 5c                	pop    %r12
    e26f:	41 5d                	pop    %r13
    e271:	41 5e                	pop    %r14
    e273:	5d                   	pop    %rbp
    e274:	c3                   	retq   

000000000000e275 <func_22>:
    e275:	f3 0f 1e fa          	endbr64 
    e279:	55                   	push   %rbp
    e27a:	48 89 e5             	mov    %rsp,%rbp
    e27d:	41 54                	push   %r12
    e27f:	53                   	push   %rbx
    e280:	48 81 ec 90 00 00 00 	sub    $0x90,%rsp
    e287:	48 89 bd 78 ff ff ff 	mov    %rdi,-0x88(%rbp)
    e28e:	48 89 b5 70 ff ff ff 	mov    %rsi,-0x90(%rbp)
    e295:	89 95 6c ff ff ff    	mov    %edx,-0x94(%rbp)
    e29b:	48 89 8d 60 ff ff ff 	mov    %rcx,-0xa0(%rbp)
    e2a2:	44 89 c0             	mov    %r8d,%eax
    e2a5:	88 85 68 ff ff ff    	mov    %al,-0x98(%rbp)
    e2ab:	64 48 8b 04 25 28 00 	mov    %fs:0x28,%rax
    e2b2:	00 00 
    e2b4:	48 89 45 e8          	mov    %rax,-0x18(%rbp)
    e2b8:	31 c0                	xor    %eax,%eax
    e2ba:	48 c7 45 98 ff ff ff 	movq   $0xffffffffffffffff,-0x68(%rbp)
    e2c1:	ff 
    e2c2:	c7 45 94 db 71 20 6a 	movl   $0x6a2071db,-0x6c(%rbp)
    e2c9:	48 b8 c9 14 7f b0 73 	movabs $0x4d161d73b07f14c9,%rax
    e2d0:	1d 16 4d 
    e2d3:	48 89 45 a0          	mov    %rax,-0x60(%rbp)
    e2d7:	48 8d 45 d0          	lea    -0x30(%rbp),%rax
    e2db:	48 83 c0 08          	add    $0x8,%rax
    e2df:	48 89 45 a8          	mov    %rax,-0x58(%rbp)
    e2e3:	c7 45 e1 09 34 09 09 	movl   $0x9093409,-0x1f(%rbp)
    e2ea:	66 c7 45 e5 34 09    	movw   $0x934,-0x1b(%rbp)
    e2f0:	c6 45 e7 09          	movb   $0x9,-0x19(%rbp)
    e2f4:	c7 45 88 00 00 00 00 	movl   $0x0,-0x78(%rbp)
    e2fb:	eb 34                	jmp    e331 <func_22+0xbc>
    e2fd:	c7 45 8c 00 00 00 00 	movl   $0x0,-0x74(%rbp)
    e304:	eb 21                	jmp    e327 <func_22+0xb2>
    e306:	8b 45 8c             	mov    -0x74(%rbp),%eax
    e309:	48 98                	cltq   
    e30b:	8b 55 88             	mov    -0x78(%rbp),%edx
    e30e:	48 63 d2             	movslq %edx,%rdx
    e311:	48 01 d2             	add    %rdx,%rdx
    e314:	48 01 d0             	add    %rdx,%rax
    e317:	48 8d 15 33 af 00 00 	lea    0xaf33(%rip),%rdx        # 19251 <g_192>
    e31e:	48 89 54 c5 d0       	mov    %rdx,-0x30(%rbp,%rax,8)
    e323:	83 45 8c 01          	addl   $0x1,-0x74(%rbp)
    e327:	83 7d 8c 01          	cmpl   $0x1,-0x74(%rbp)
    e32b:	7e d9                	jle    e306 <func_22+0x91>
    e32d:	83 45 88 01          	addl   $0x1,-0x78(%rbp)
    e331:	83 7d 88 00          	cmpl   $0x0,-0x78(%rbp)
    e335:	7e c6                	jle    e2fd <func_22+0x88>
    e337:	c7 05 37 b3 00 00 03 	movl   $0x3,0xb337(%rip)        # 19678 <g_2374>
    e33e:	00 00 00 
    e341:	e9 71 02 00 00       	jmpq   e5b7 <func_22+0x342>
    e346:	48 c7 45 b0 ff ff ff 	movq   $0xffffffffffffffff,-0x50(%rbp)
    e34d:	ff 
    e34e:	48 8d 05 d3 df 00 00 	lea    0xdfd3(%rip),%rax        # 1c328 <g_1662>
    e355:	48 89 45 b8          	mov    %rax,-0x48(%rbp)
    e359:	48 8d 05 74 ad 00 00 	lea    0xad74(%rip),%rax        # 190d4 <g_77+0x54>
    e360:	48 89 45 c0          	mov    %rax,-0x40(%rbp)
    e364:	c7 45 90 00 00 00 00 	movl   $0x0,-0x70(%rbp)
    e36b:	eb 11                	jmp    e37e <func_22+0x109>
    e36d:	8b 45 90             	mov    -0x70(%rbp),%eax
    e370:	48 98                	cltq   
    e372:	c7 44 85 cc fa ff ff 	movl   $0xfffffffa,-0x34(%rbp,%rax,4)
    e379:	ff 
    e37a:	83 45 90 01          	addl   $0x1,-0x70(%rbp)
    e37e:	83 7d 90 00          	cmpl   $0x0,-0x70(%rbp)
    e382:	7e e9                	jle    e36d <func_22+0xf8>
    e384:	c7 85 6c ff ff ff 00 	movl   $0x0,-0x94(%rbp)
    e38b:	00 00 00 
    e38e:	e9 a2 00 00 00       	jmpq   e435 <func_22+0x1c0>
    e393:	48 c7 05 1a af 00 00 	movq   $0x0,0xaf1a(%rip)        # 192b8 <g_570>
    e39a:	00 00 00 00 
    e39e:	eb 7d                	jmp    e41d <func_22+0x1a8>
    e3a0:	66 c7 05 c9 b0 00 00 	movw   $0x0,0xb0c9(%rip)        # 19472 <g_1470>
    e3a7:	00 00 
    e3a9:	eb 53                	jmp    e3fe <func_22+0x189>
    e3ab:	48 8b 0d 06 af 00 00 	mov    0xaf06(%rip),%rcx        # 192b8 <g_570>
    e3b2:	0f b7 05 b9 b0 00 00 	movzwl 0xb0b9(%rip),%eax        # 19472 <g_1470>
    e3b9:	0f b7 c0             	movzwl %ax,%eax
    e3bc:	48 63 f0             	movslq %eax,%rsi
    e3bf:	8b 85 6c ff ff ff    	mov    -0x94(%rbp),%eax
    e3c5:	48 89 c2             	mov    %rax,%rdx
    e3c8:	48 c1 e2 06          	shl    $0x6,%rdx
    e3cc:	48 29 c2             	sub    %rax,%rdx
    e3cf:	48 89 c8             	mov    %rcx,%rax
    e3d2:	48 c1 e0 03          	shl    $0x3,%rax
    e3d6:	48 29 c8             	sub    %rcx,%rax
    e3d9:	48 01 d0             	add    %rdx,%rax
    e3dc:	48 8d 14 30          	lea    (%rax,%rsi,1),%rdx
    e3e0:	48 8d 05 99 b2 00 00 	lea    0xb299(%rip),%rax        # 19680 <g_2398>
    e3e7:	48 01 d0             	add    %rdx,%rax
    e3ea:	c6 00 00             	movb   $0x0,(%rax)
    e3ed:	0f b7 05 7e b0 00 00 	movzwl 0xb07e(%rip),%eax        # 19472 <g_1470>
    e3f4:	83 c0 01             	add    $0x1,%eax
    e3f7:	66 89 05 74 b0 00 00 	mov    %ax,0xb074(%rip)        # 19472 <g_1470>
    e3fe:	0f b7 05 6d b0 00 00 	movzwl 0xb06d(%rip),%eax        # 19472 <g_1470>
    e405:	66 83 f8 06          	cmp    $0x6,%ax
    e409:	76 a0                	jbe    e3ab <func_22+0x136>
    e40b:	48 8b 05 a6 ae 00 00 	mov    0xaea6(%rip),%rax        # 192b8 <g_570>
    e412:	48 83 c0 01          	add    $0x1,%rax
    e416:	48 89 05 9b ae 00 00 	mov    %rax,0xae9b(%rip)        # 192b8 <g_570>
    e41d:	48 8b 05 94 ae 00 00 	mov    0xae94(%rip),%rax        # 192b8 <g_570>
    e424:	48 83 f8 08          	cmp    $0x8,%rax
    e428:	0f 86 72 ff ff ff    	jbe    e3a0 <func_22+0x12b>
    e42e:	83 85 6c ff ff ff 01 	addl   $0x1,-0x94(%rbp)
    e435:	83 bd 6c ff ff ff 02 	cmpl   $0x2,-0x94(%rbp)
    e43c:	0f 86 51 ff ff ff    	jbe    e393 <func_22+0x11e>
    e442:	48 8b 85 78 ff ff ff 	mov    -0x88(%rbp),%rax
    e449:	0f bf d8             	movswl %ax,%ebx
    e44c:	48 8b 45 b0          	mov    -0x50(%rbp),%rax
    e450:	44 0f b7 e0          	movzwl %ax,%r12d
    e454:	48 8b 85 78 ff ff ff 	mov    -0x88(%rbp),%rax
    e45b:	0f b6 d0             	movzbl %al,%edx
    e45e:	48 8b 45 b0          	mov    -0x50(%rbp),%rax
    e462:	89 c1                	mov    %eax,%ecx
    e464:	0f b6 85 68 ff ff ff 	movzbl -0x98(%rbp),%eax
    e46b:	31 c8                	xor    %ecx,%eax
    e46d:	0f b6 c0             	movzbl %al,%eax
    e470:	89 d6                	mov    %edx,%esi
    e472:	89 c7                	mov    %eax,%edi
    e474:	e8 35 a7 ff ff       	callq  8bae <safe_mod_func_uint8_t_u_u>
    e479:	0f b6 c0             	movzbl %al,%eax
    e47c:	83 e0 09             	and    $0x9,%eax
    e47f:	48 85 c0             	test   %rax,%rax
    e482:	0f 9e c0             	setle  %al
    e485:	0f b6 d0             	movzbl %al,%edx
    e488:	48 8b 05 81 de 00 00 	mov    0xde81(%rip),%rax        # 1c310 <g_1559>
    e48f:	48 8b 00             	mov    (%rax),%rax
    e492:	8b 00                	mov    (%rax),%eax
    e494:	39 c2                	cmp    %eax,%edx
    e496:	0f 97 c0             	seta   %al
    e499:	0f b6 c0             	movzbl %al,%eax
    e49c:	44 89 e6             	mov    %r12d,%esi
    e49f:	89 c7                	mov    %eax,%edi
    e4a1:	e8 97 a8 ff ff       	callq  8d3d <safe_mul_func_uint16_t_u_u>
    e4a6:	66 85 c0             	test   %ax,%ax
    e4a9:	75 0e                	jne    e4b9 <func_22+0x244>
    e4ab:	48 8b 05 76 de 00 00 	mov    0xde76(%rip),%rax        # 1c328 <g_1662>
    e4b2:	0f b6 00             	movzbl (%rax),%eax
    e4b5:	84 c0                	test   %al,%al
    e4b7:	74 07                	je     e4c0 <func_22+0x24b>
    e4b9:	b8 01 00 00 00       	mov    $0x1,%eax
    e4be:	eb 05                	jmp    e4c5 <func_22+0x250>
    e4c0:	b8 00 00 00 00       	mov    $0x0,%eax
    e4c5:	48 98                	cltq   
    e4c7:	48 39 45 b0          	cmp    %rax,-0x50(%rbp)
    e4cb:	73 09                	jae    e4d6 <func_22+0x261>
    e4cd:	83 bd 6c ff ff ff 00 	cmpl   $0x0,-0x94(%rbp)
    e4d4:	74 07                	je     e4dd <func_22+0x268>
    e4d6:	b8 01 00 00 00       	mov    $0x1,%eax
    e4db:	eb 05                	jmp    e4e2 <func_22+0x26d>
    e4dd:	b8 00 00 00 00       	mov    $0x0,%eax
    e4e2:	3d 8d 26 00 00       	cmp    $0x268d,%eax
    e4e7:	0f 94 c0             	sete   %al
    e4ea:	0f b6 c0             	movzbl %al,%eax
    e4ed:	89 45 cc             	mov    %eax,-0x34(%rbp)
    e4f0:	48 8b 45 a8          	mov    -0x58(%rbp),%rax
    e4f4:	48 3b 45 b8          	cmp    -0x48(%rbp),%rax
    e4f8:	0f 95 c0             	setne  %al
    e4fb:	0f b6 c0             	movzbl %al,%eax
    e4fe:	89 de                	mov    %ebx,%esi
    e500:	89 c7                	mov    %eax,%edi
    e502:	e8 4e 9f ff ff       	callq  8455 <safe_div_func_int16_t_s_s>
    e507:	0f b6 c0             	movzbl %al,%eax
    e50a:	be 57 00 00 00       	mov    $0x57,%esi
    e50f:	89 c7                	mov    %eax,%edi
    e511:	e8 98 a6 ff ff       	callq  8bae <safe_mod_func_uint8_t_u_u>
    e516:	83 bd 6c ff ff ff 00 	cmpl   $0x0,-0x94(%rbp)
    e51d:	74 07                	je     e526 <func_22+0x2b1>
    e51f:	b8 01 00 00 00       	mov    $0x1,%eax
    e524:	eb 05                	jmp    e52b <func_22+0x2b6>
    e526:	b8 00 00 00 00       	mov    $0x0,%eax
    e52b:	89 c2                	mov    %eax,%edx
    e52d:	0f b6 45 e3          	movzbl -0x1d(%rbp),%eax
    e531:	66 98                	cbtw   
    e533:	31 c2                	xor    %eax,%edx
    e535:	48 8b 45 98          	mov    -0x68(%rbp),%rax
    e539:	31 d0                	xor    %edx,%eax
    e53b:	0f b7 d0             	movzwl %ax,%edx
    e53e:	c7 45 94 a4 f1 00 00 	movl   $0xf1a4,-0x6c(%rbp)
    e545:	48 81 7d 98 a4 f1 00 	cmpq   $0xf1a4,-0x68(%rbp)
    e54c:	00 
    e54d:	0f 94 c0             	sete   %al
    e550:	0f b6 c0             	movzbl %al,%eax
    e553:	48 39 45 a0          	cmp    %rax,-0x60(%rbp)
    e557:	0f 92 c0             	setb   %al
    e55a:	0f b6 c0             	movzbl %al,%eax
    e55d:	89 d6                	mov    %edx,%esi
    e55f:	89 c7                	mov    %eax,%edi
    e561:	e8 f6 a7 ff ff       	callq  8d5c <safe_mod_func_uint16_t_u_u>
    e566:	48 8b 15 db eb 00 00 	mov    0xebdb(%rip),%rdx        # 1d148 <g_1786>
    e56d:	48 8b 05 24 ec 00 00 	mov    0xec24(%rip),%rax        # 1d198 <g_2180>
    e574:	48 8b 12             	mov    (%rdx),%rdx
    e577:	48 89 10             	mov    %rdx,(%rax)
    e57a:	ba 00 00 00 00       	mov    $0x0,%edx
    e57f:	48 8b 45 c0          	mov    -0x40(%rbp),%rax
    e583:	8b 00                	mov    (%rax),%eax
    e585:	21 c2                	and    %eax,%edx
    e587:	48 8b 45 c0          	mov    -0x40(%rbp),%rax
    e58b:	89 10                	mov    %edx,(%rax)
    e58d:	48 8b 05 34 ec 00 00 	mov    0xec34(%rip),%rax        # 1d1c8 <g_2551>
    e594:	48 8b 55 c0          	mov    -0x40(%rbp),%rdx
    e598:	8b 12                	mov    (%rdx),%edx
    e59a:	89 10                	mov    %edx,(%rax)
    e59c:	8b 05 d6 b0 00 00    	mov    0xb0d6(%rip),%eax        # 19678 <g_2374>
    e5a2:	48 98                	cltq   
    e5a4:	be 07 00 00 00       	mov    $0x7,%esi
    e5a9:	48 89 c7             	mov    %rax,%rdi
    e5ac:	e8 9a aa ff ff       	callq  904b <safe_sub_func_uint64_t_u_u>
    e5b1:	89 05 c1 b0 00 00    	mov    %eax,0xb0c1(%rip)        # 19678 <g_2374>
    e5b7:	8b 05 bb b0 00 00    	mov    0xb0bb(%rip),%eax        # 19678 <g_2374>
    e5bd:	83 f8 ee             	cmp    $0xffffffee,%eax
    e5c0:	0f 84 80 fd ff ff    	je     e346 <func_22+0xd1>
    e5c6:	48 c7 45 a0 09 00 00 	movq   $0x9,-0x60(%rbp)
    e5cd:	00 
    e5ce:	48 83 7d a0 26       	cmpq   $0x26,-0x60(%rbp)
    e5d3:	77 0a                	ja     e5df <func_22+0x36a>
    e5d5:	48 0f be 85 68 ff ff 	movsbq -0x98(%rbp),%rax
    e5dc:	ff 
    e5dd:	eb 08                	jmp    e5e7 <func_22+0x372>
    e5df:	48 0f be 85 68 ff ff 	movsbq -0x98(%rbp),%rax
    e5e6:	ff 
    e5e7:	48 8b 5d e8          	mov    -0x18(%rbp),%rbx
    e5eb:	64 48 33 1c 25 28 00 	xor    %fs:0x28,%rbx
    e5f2:	00 00 
    e5f4:	74 05                	je     e5fb <func_22+0x386>
    e5f6:	e8 75 9a ff ff       	callq  8070 <__stack_chk_fail@plt>
    e5fb:	48 81 c4 90 00 00 00 	add    $0x90,%rsp
    e602:	5b                   	pop    %rbx
    e603:	41 5c                	pop    %r12
    e605:	5d                   	pop    %rbp
    e606:	c3                   	retq   

000000000000e607 <func_29>:
    e607:	f3 0f 1e fa          	endbr64 
    e60b:	55                   	push   %rbp
    e60c:	48 89 e5             	mov    %rsp,%rbp
    e60f:	41 55                	push   %r13
    e611:	41 54                	push   %r12
    e613:	53                   	push   %rbx
    e614:	48 81 ec 68 07 00 00 	sub    $0x768,%rsp
    e61b:	89 bd 8c f8 ff ff    	mov    %edi,-0x774(%rbp)
    e621:	64 48 8b 04 25 28 00 	mov    %fs:0x28,%rax
    e628:	00 00 
    e62a:	48 89 45 d8          	mov    %rax,-0x28(%rbp)
    e62e:	31 c0                	xor    %eax,%eax
    e630:	c7 85 b4 f8 ff ff 04 	movl   $0x4,-0x74c(%rbp)
    e637:	00 00 00 
    e63a:	c7 85 a4 f8 ff ff 00 	movl   $0x0,-0x75c(%rbp)
    e641:	00 00 00 
    e644:	c7 85 b8 f8 ff ff 92 	movl   $0xef4bc92,-0x748(%rbp)
    e64b:	bc f4 0e 
    e64e:	c7 85 bc f8 ff ff ff 	movl   $0xffffffff,-0x744(%rbp)
    e655:	ff ff ff 
    e658:	c7 85 c0 f8 ff ff f9 	movl   $0xfffffff9,-0x740(%rbp)
    e65f:	ff ff ff 
    e662:	c7 85 c4 f8 ff ff 0f 	movl   $0x75d05c0f,-0x73c(%rbp)
    e669:	5c d0 75 
    e66c:	c7 85 c8 f8 ff ff 00 	movl   $0x0,-0x738(%rbp)
    e673:	00 00 00 
    e676:	c7 85 a8 f8 ff ff ff 	movl   $0xffffffff,-0x758(%rbp)
    e67d:	ff ff ff 
    e680:	c7 85 ac f8 ff ff 83 	movl   $0x87254583,-0x754(%rbp)
    e687:	45 25 87 
    e68a:	c7 85 b0 f8 ff ff 94 	movl   $0xfbbedd94,-0x750(%rbp)
    e691:	dd be fb 
    e694:	c7 85 60 fc ff ff fd 	movl   $0xfffffffd,-0x3a0(%rbp)
    e69b:	ff ff ff 
    e69e:	c7 85 64 fc ff ff de 	movl   $0x163799de,-0x39c(%rbp)
    e6a5:	99 37 16 
    e6a8:	c7 85 68 fc ff ff 01 	movl   $0x1,-0x398(%rbp)
    e6af:	00 00 00 
    e6b2:	c7 85 6c fc ff ff 20 	movl   $0xf14a6420,-0x394(%rbp)
    e6b9:	64 4a f1 
    e6bc:	c7 85 70 fc ff ff 8a 	movl   $0x1685af8a,-0x390(%rbp)
    e6c3:	af 85 16 
    e6c6:	c7 85 74 fc ff ff f6 	movl   $0xfffffff6,-0x38c(%rbp)
    e6cd:	ff ff ff 
    e6d0:	c7 85 78 fc ff ff f6 	movl   $0xfffffff6,-0x388(%rbp)
    e6d7:	ff ff ff 
    e6da:	c7 85 7c fc ff ff 8a 	movl   $0x1685af8a,-0x384(%rbp)
    e6e1:	af 85 16 
    e6e4:	c7 85 80 fc ff ff 20 	movl   $0xf14a6420,-0x380(%rbp)
    e6eb:	64 4a f1 
    e6ee:	c7 85 84 fc ff ff 01 	movl   $0x1,-0x37c(%rbp)
    e6f5:	00 00 00 
    e6f8:	c7 85 88 fc ff ff 8a 	movl   $0x1685af8a,-0x378(%rbp)
    e6ff:	af 85 16 
    e702:	c7 85 8c fc ff ff 8a 	movl   $0x1685af8a,-0x374(%rbp)
    e709:	af 85 16 
    e70c:	c7 85 90 fc ff ff 82 	movl   $0x3627bd82,-0x370(%rbp)
    e713:	bd 27 36 
    e716:	c7 85 94 fc ff ff fd 	movl   $0xfffffffd,-0x36c(%rbp)
    e71d:	ff ff ff 
    e720:	c7 85 98 fc ff ff 30 	movl   $0x7f856730,-0x368(%rbp)
    e727:	67 85 7f 
    e72a:	c7 85 9c fc ff ff f6 	movl   $0xfffffff6,-0x364(%rbp)
    e731:	ff ff ff 
    e734:	c7 85 a0 fc ff ff cf 	movl   $0x51895dcf,-0x360(%rbp)
    e73b:	5d 89 51 
    e73e:	c7 85 a4 fc ff ff f6 	movl   $0xfffffff6,-0x35c(%rbp)
    e745:	ff ff ff 
    e748:	c7 85 a8 fc ff ff 30 	movl   $0x7f856730,-0x358(%rbp)
    e74f:	67 85 7f 
    e752:	c7 85 ac fc ff ff fd 	movl   $0xfffffffd,-0x354(%rbp)
    e759:	ff ff ff 
    e75c:	c7 85 b0 fc ff ff fd 	movl   $0xfffffffd,-0x350(%rbp)
    e763:	ff ff ff 
    e766:	c7 85 b4 fc ff ff bb 	movl   $0x39c704bb,-0x34c(%rbp)
    e76d:	04 c7 39 
    e770:	c7 85 b8 fc ff ff fd 	movl   $0xfffffffd,-0x348(%rbp)
    e777:	ff ff ff 
    e77a:	c7 85 bc fc ff ff f6 	movl   $0xfffffff6,-0x344(%rbp)
    e781:	ff ff ff 
    e784:	c7 85 c0 fc ff ff 94 	movl   $0xee4dce94,-0x340(%rbp)
    e78b:	ce 4d ee 
    e78e:	c7 85 c4 fc ff ff 01 	movl   $0x1,-0x33c(%rbp)
    e795:	00 00 00 
    e798:	c7 85 c8 fc ff ff cf 	movl   $0x51895dcf,-0x338(%rbp)
    e79f:	5d 89 51 
    e7a2:	c7 85 cc fc ff ff cf 	movl   $0x51895dcf,-0x334(%rbp)
    e7a9:	5d 89 51 
    e7ac:	c7 85 d0 fc ff ff 01 	movl   $0x1,-0x330(%rbp)
    e7b3:	00 00 00 
    e7b6:	c7 85 d4 fc ff ff 94 	movl   $0xee4dce94,-0x32c(%rbp)
    e7bd:	ce 4d ee 
    e7c0:	c7 85 d8 fc ff ff 82 	movl   $0x3627bd82,-0x328(%rbp)
    e7c7:	bd 27 36 
    e7ca:	c7 85 dc fc ff ff 8a 	movl   $0x1685af8a,-0x324(%rbp)
    e7d1:	af 85 16 
    e7d4:	c7 85 e0 fc ff ff 8a 	movl   $0x1685af8a,-0x320(%rbp)
    e7db:	af 85 16 
    e7de:	c7 85 e4 fc ff ff 82 	movl   $0x3627bd82,-0x31c(%rbp)
    e7e5:	bd 27 36 
    e7e8:	c7 85 e8 fc ff ff fd 	movl   $0xfffffffd,-0x318(%rbp)
    e7ef:	ff ff ff 
    e7f2:	c7 85 ec fc ff ff 30 	movl   $0x7f856730,-0x314(%rbp)
    e7f9:	67 85 7f 
    e7fc:	c7 85 f0 fc ff ff f6 	movl   $0xfffffff6,-0x310(%rbp)
    e803:	ff ff ff 
    e806:	c7 85 f4 fc ff ff cf 	movl   $0x51895dcf,-0x30c(%rbp)
    e80d:	5d 89 51 
    e810:	c7 85 f8 fc ff ff f6 	movl   $0xfffffff6,-0x308(%rbp)
    e817:	ff ff ff 
    e81a:	c7 85 fc fc ff ff 30 	movl   $0x7f856730,-0x304(%rbp)
    e821:	67 85 7f 
    e824:	c7 85 00 fd ff ff 01 	movl   $0x1,-0x300(%rbp)
    e82b:	00 00 00 
    e82e:	c7 85 04 fd ff ff de 	movl   $0x163799de,-0x2fc(%rbp)
    e835:	99 37 16 
    e838:	c7 85 08 fd ff ff fd 	movl   $0xfffffffd,-0x2f8(%rbp)
    e83f:	ff ff ff 
    e842:	c7 85 0c fd ff ff de 	movl   $0x163799de,-0x2f4(%rbp)
    e849:	99 37 16 
    e84c:	c7 85 10 fd ff ff 01 	movl   $0x1,-0x2f0(%rbp)
    e853:	00 00 00 
    e856:	c7 85 14 fd ff ff 20 	movl   $0xf14a6420,-0x2ec(%rbp)
    e85d:	64 4a f1 
    e860:	c7 85 18 fd ff ff 8a 	movl   $0x1685af8a,-0x2e8(%rbp)
    e867:	af 85 16 
    e86a:	c7 85 1c fd ff ff f6 	movl   $0xfffffff6,-0x2e4(%rbp)
    e871:	ff ff ff 
    e874:	c7 85 20 fd ff ff f6 	movl   $0xfffffff6,-0x2e0(%rbp)
    e87b:	ff ff ff 
    e87e:	c7 85 24 fd ff ff 8a 	movl   $0x1685af8a,-0x2dc(%rbp)
    e885:	af 85 16 
    e888:	c7 85 28 fd ff ff cf 	movl   $0x51895dcf,-0x2d8(%rbp)
    e88f:	5d 89 51 
    e892:	c7 85 2c fd ff ff 20 	movl   $0xf14a6420,-0x2d4(%rbp)
    e899:	64 4a f1 
    e89c:	c7 85 30 fd ff ff 82 	movl   $0x3627bd82,-0x2d0(%rbp)
    e8a3:	bd 27 36 
    e8a6:	c7 85 34 fd ff ff 82 	movl   $0x3627bd82,-0x2cc(%rbp)
    e8ad:	bd 27 36 
    e8b0:	c7 85 38 fd ff ff 20 	movl   $0xf14a6420,-0x2c8(%rbp)
    e8b7:	64 4a f1 
    e8ba:	c7 85 3c fd ff ff cf 	movl   $0x51895dcf,-0x2c4(%rbp)
    e8c1:	5d 89 51 
    e8c4:	c7 85 40 fd ff ff 94 	movl   $0xee4dce94,-0x2c0(%rbp)
    e8cb:	ce 4d ee 
    e8ce:	c7 85 44 fd ff ff 8a 	movl   $0x1685af8a,-0x2bc(%rbp)
    e8d5:	af 85 16 
    e8d8:	c7 85 48 fd ff ff 01 	movl   $0x1,-0x2b8(%rbp)
    e8df:	00 00 00 
    e8e2:	c7 85 4c fd ff ff 8a 	movl   $0x1685af8a,-0x2b4(%rbp)
    e8e9:	af 85 16 
    e8ec:	c7 85 dc f8 ff ff 27 	movl   $0x34bdd627,-0x724(%rbp)
    e8f3:	d6 bd 34 
    e8f6:	48 c7 85 28 f9 ff ff 	movq   $0x0,-0x6d8(%rbp)
    e8fd:	00 00 00 00 
    e901:	48 b8 13 13 a3 ce 67 	movabs $0x78081e67cea31313,%rax
    e908:	1e 08 78 
    e90b:	48 89 85 30 f9 ff ff 	mov    %rax,-0x6d0(%rbp)
    e912:	48 8d 05 f7 d9 00 00 	lea    0xd9f7(%rip),%rax        # 1c310 <g_1559>
    e919:	48 89 85 38 f9 ff ff 	mov    %rax,-0x6c8(%rbp)
    e920:	48 8d 85 c0 f9 ff ff 	lea    -0x640(%rbp),%rax
    e927:	48 89 85 40 f9 ff ff 	mov    %rax,-0x6c0(%rbp)
    e92e:	48 8d 85 40 fe ff ff 	lea    -0x1c0(%rbp),%rax
    e935:	48 8d 15 84 70 00 00 	lea    0x7084(%rip),%rdx        # 159c0 <g_3399+0x768>
    e93c:	b9 32 00 00 00       	mov    $0x32,%ecx
    e941:	48 89 c7             	mov    %rax,%rdi
    e944:	48 89 d6             	mov    %rdx,%rsi
    e947:	f3 48 a5             	rep movsq %ds:(%rsi),%es:(%rdi)
    e94a:	66 c7 85 9c f8 ff ff 	movw   $0x1,-0x764(%rbp)
    e951:	01 00 
    e953:	48 8d 85 a4 f8 ff ff 	lea    -0x75c(%rbp),%rax
    e95a:	48 89 85 48 f9 ff ff 	mov    %rax,-0x6b8(%rbp)
    e961:	48 8d 05 c0 d9 00 00 	lea    0xd9c0(%rip),%rax        # 1c328 <g_1662>
    e968:	48 89 85 10 f9 ff ff 	mov    %rax,-0x6f0(%rbp)
    e96f:	48 8d 85 10 f9 ff ff 	lea    -0x6f0(%rbp),%rax
    e976:	48 89 85 18 f9 ff ff 	mov    %rax,-0x6e8(%rbp)
    e97d:	48 8d 85 10 fa ff ff 	lea    -0x5f0(%rbp),%rax
    e984:	48 83 c0 18          	add    $0x18,%rax
    e988:	48 89 85 50 f9 ff ff 	mov    %rax,-0x6b0(%rbp)
    e98f:	c7 85 d0 f8 ff ff 00 	movl   $0x0,-0x730(%rbp)
    e996:	00 00 00 
    e999:	eb 1e                	jmp    e9b9 <func_29+0x3b2>
    e99b:	8b 85 d0 f8 ff ff    	mov    -0x730(%rbp),%eax
    e9a1:	48 98                	cltq   
    e9a3:	48 8d 15 c6 aa 00 00 	lea    0xaac6(%rip),%rdx        # 19470 <g_1393>
    e9aa:	48 89 94 c5 c0 f9 ff 	mov    %rdx,-0x640(%rbp,%rax,8)
    e9b1:	ff 
    e9b2:	83 85 d0 f8 ff ff 01 	addl   $0x1,-0x730(%rbp)
    e9b9:	83 bd d0 f8 ff ff 00 	cmpl   $0x0,-0x730(%rbp)
    e9c0:	7e d9                	jle    e99b <func_29+0x394>
    e9c2:	c7 85 d0 f8 ff ff 00 	movl   $0x0,-0x730(%rbp)
    e9c9:	00 00 00 
    e9cc:	eb 21                	jmp    e9ef <func_29+0x3e8>
    e9ce:	8b 85 d0 f8 ff ff    	mov    -0x730(%rbp),%eax
    e9d4:	48 98                	cltq   
    e9d6:	48 bf 0e 3e f5 b1 6f 	movabs $0xede5556fb1f53e0e,%rdi
    e9dd:	55 e5 ed 
    e9e0:	48 89 bc c5 f0 f9 ff 	mov    %rdi,-0x610(%rbp,%rax,8)
    e9e7:	ff 
    e9e8:	83 85 d0 f8 ff ff 01 	addl   $0x1,-0x730(%rbp)
    e9ef:	83 bd d0 f8 ff ff 03 	cmpl   $0x3,-0x730(%rbp)
    e9f6:	7e d6                	jle    e9ce <func_29+0x3c7>
    e9f8:	c7 85 d0 f8 ff ff 00 	movl   $0x0,-0x730(%rbp)
    e9ff:	00 00 00 
    ea02:	eb 1e                	jmp    ea22 <func_29+0x41b>
    ea04:	8b 85 d0 f8 ff ff    	mov    -0x730(%rbp),%eax
    ea0a:	48 98                	cltq   
    ea0c:	48 8d 95 18 f9 ff ff 	lea    -0x6e8(%rbp),%rdx
    ea13:	48 89 94 c5 10 fa ff 	mov    %rdx,-0x5f0(%rbp,%rax,8)
    ea1a:	ff 
    ea1b:	83 85 d0 f8 ff ff 01 	addl   $0x1,-0x730(%rbp)
    ea22:	83 bd d0 f8 ff ff 03 	cmpl   $0x3,-0x730(%rbp)
    ea29:	7e d9                	jle    ea04 <func_29+0x3fd>
    ea2b:	48 c7 05 32 aa 00 00 	movq   $0x0,0xaa32(%rip)        # 19468 <g_1201>
    ea32:	00 00 00 00 
    ea36:	e9 fd 0a 00 00       	jmpq   f538 <func_29+0xf31>
    ea3b:	66 c7 85 9e f8 ff ff 	movw   $0x1,-0x762(%rbp)
    ea42:	01 00 
    ea44:	c7 85 f0 fa ff ff f8 	movl   $0xfffffff8,-0x510(%rbp)
    ea4b:	ff ff ff 
    ea4e:	c7 85 f4 fa ff ff 07 	movl   $0x7,-0x50c(%rbp)
    ea55:	00 00 00 
    ea58:	c7 85 f8 fa ff ff 07 	movl   $0x7,-0x508(%rbp)
    ea5f:	00 00 00 
    ea62:	c7 85 fc fa ff ff f8 	movl   $0xfffffff8,-0x504(%rbp)
    ea69:	ff ff ff 
    ea6c:	c7 85 00 fb ff ff ff 	movl   $0xffffffff,-0x500(%rbp)
    ea73:	ff ff ff 
    ea76:	c7 85 04 fb ff ff 07 	movl   $0x7,-0x4fc(%rbp)
    ea7d:	00 00 00 
    ea80:	c7 85 08 fb ff ff ee 	movl   $0xfa803ee,-0x4f8(%rbp)
    ea87:	03 a8 0f 
    ea8a:	c7 85 0c fb ff ff 07 	movl   $0x7,-0x4f4(%rbp)
    ea91:	00 00 00 
    ea94:	c7 85 10 fb ff ff 07 	movl   $0x7,-0x4f0(%rbp)
    ea9b:	00 00 00 
    ea9e:	c7 85 14 fb ff ff 01 	movl   $0x1,-0x4ec(%rbp)
    eaa5:	00 00 00 
    eaa8:	c7 85 18 fb ff ff ee 	movl   $0xfa803ee,-0x4e8(%rbp)
    eaaf:	03 a8 0f 
    eab2:	c7 85 1c fb ff ff ee 	movl   $0xfa803ee,-0x4e4(%rbp)
    eab9:	03 a8 0f 
    eabc:	c7 85 20 fb ff ff ff 	movl   $0xffffffff,-0x4e0(%rbp)
    eac3:	ff ff ff 
    eac6:	c7 85 24 fb ff ff ff 	movl   $0xffffffff,-0x4dc(%rbp)
    eacd:	ff ff ff 
    ead0:	c7 85 28 fb ff ff 07 	movl   $0x7,-0x4d8(%rbp)
    ead7:	00 00 00 
    eada:	c7 85 2c fb ff ff ee 	movl   $0xfa803ee,-0x4d4(%rbp)
    eae1:	03 a8 0f 
    eae4:	c7 85 30 fb ff ff f8 	movl   $0xfffffff8,-0x4d0(%rbp)
    eaeb:	ff ff ff 
    eaee:	c7 85 34 fb ff ff 01 	movl   $0x1,-0x4cc(%rbp)
    eaf5:	00 00 00 
    eaf8:	c7 85 38 fb ff ff f8 	movl   $0xfffffff8,-0x4c8(%rbp)
    eaff:	ff ff ff 
    eb02:	c7 85 3c fb ff ff 07 	movl   $0x7,-0x4c4(%rbp)
    eb09:	00 00 00 
    eb0c:	c7 85 40 fb ff ff f8 	movl   $0xfffffff8,-0x4c0(%rbp)
    eb13:	ff ff ff 
    eb16:	c7 85 44 fb ff ff 07 	movl   $0x7,-0x4bc(%rbp)
    eb1d:	00 00 00 
    eb20:	c7 85 48 fb ff ff 07 	movl   $0x7,-0x4b8(%rbp)
    eb27:	00 00 00 
    eb2a:	c7 85 4c fb ff ff f8 	movl   $0xfffffff8,-0x4b4(%rbp)
    eb31:	ff ff ff 
    eb34:	c7 85 50 fb ff ff ff 	movl   $0xffffffff,-0x4b0(%rbp)
    eb3b:	ff ff ff 
    eb3e:	c7 85 54 fb ff ff 07 	movl   $0x7,-0x4ac(%rbp)
    eb45:	00 00 00 
    eb48:	c7 85 58 fb ff ff ee 	movl   $0xfa803ee,-0x4a8(%rbp)
    eb4f:	03 a8 0f 
    eb52:	c7 85 5c fb ff ff 07 	movl   $0x7,-0x4a4(%rbp)
    eb59:	00 00 00 
    eb5c:	c7 85 60 fb ff ff 07 	movl   $0x7,-0x4a0(%rbp)
    eb63:	00 00 00 
    eb66:	c7 85 64 fb ff ff 01 	movl   $0x1,-0x49c(%rbp)
    eb6d:	00 00 00 
    eb70:	c7 85 68 fb ff ff ee 	movl   $0xfa803ee,-0x498(%rbp)
    eb77:	03 a8 0f 
    eb7a:	c7 85 6c fb ff ff ee 	movl   $0xfa803ee,-0x494(%rbp)
    eb81:	03 a8 0f 
    eb84:	c7 85 70 fb ff ff ff 	movl   $0xffffffff,-0x490(%rbp)
    eb8b:	ff ff ff 
    eb8e:	c7 85 74 fb ff ff ff 	movl   $0xffffffff,-0x48c(%rbp)
    eb95:	ff ff ff 
    eb98:	c7 85 78 fb ff ff 07 	movl   $0x7,-0x488(%rbp)
    eb9f:	00 00 00 
    eba2:	c7 85 7c fb ff ff ee 	movl   $0xfa803ee,-0x484(%rbp)
    eba9:	03 a8 0f 
    ebac:	48 8d 05 21 a5 00 00 	lea    0xa521(%rip),%rax        # 190d4 <g_77+0x54>
    ebb3:	48 89 85 58 f9 ff ff 	mov    %rax,-0x6a8(%rbp)
    ebba:	66 c7 85 a0 f8 ff ff 	movw   $0xc5d8,-0x760(%rbp)
    ebc1:	d8 c5 
    ebc3:	c7 85 80 fb ff ff 00 	movl   $0x0,-0x480(%rbp)
    ebca:	00 00 00 
    ebcd:	c7 85 84 fb ff ff 07 	movl   $0x7,-0x47c(%rbp)
    ebd4:	00 00 00 
    ebd7:	c7 85 88 fb ff ff 80 	movl   $0xe2219880,-0x478(%rbp)
    ebde:	98 21 e2 
    ebe1:	c7 85 8c fb ff ff fc 	movl   $0xfffffffc,-0x474(%rbp)
    ebe8:	ff ff ff 
    ebeb:	c7 85 90 fb ff ff 01 	movl   $0x1,-0x470(%rbp)
    ebf2:	00 00 00 
    ebf5:	c7 85 94 fb ff ff 00 	movl   $0x0,-0x46c(%rbp)
    ebfc:	00 00 00 
    ebff:	c7 85 98 fb ff ff 07 	movl   $0x7,-0x468(%rbp)
    ec06:	00 00 00 
    ec09:	c7 85 9c fb ff ff ff 	movl   $0xffffffff,-0x464(%rbp)
    ec10:	ff ff ff 
    ec13:	c7 85 a0 fb ff ff e3 	movl   $0x403350e3,-0x460(%rbp)
    ec1a:	50 33 40 
    ec1d:	c7 85 a4 fb ff ff 3f 	movl   $0x884a0f3f,-0x45c(%rbp)
    ec24:	0f 4a 88 
    ec27:	c7 85 a8 fb ff ff ce 	movl   $0xc3f769ce,-0x458(%rbp)
    ec2e:	69 f7 c3 
    ec31:	c7 85 ac fb ff ff fc 	movl   $0xfffffffc,-0x454(%rbp)
    ec38:	ff ff ff 
    ec3b:	c7 85 b0 fb ff ff 93 	movl   $0x574ce793,-0x450(%rbp)
    ec42:	e7 4c 57 
    ec45:	c7 85 b4 fb ff ff 6f 	movl   $0x94130d6f,-0x44c(%rbp)
    ec4c:	0d 13 94 
    ec4f:	c7 85 b8 fb ff ff 01 	movl   $0x1,-0x448(%rbp)
    ec56:	00 00 00 
    ec59:	c7 85 bc fb ff ff ce 	movl   $0xc3f769ce,-0x444(%rbp)
    ec60:	69 f7 c3 
    ec63:	c7 85 c0 fb ff ff ca 	movl   $0x488ad1ca,-0x440(%rbp)
    ec6a:	d1 8a 48 
    ec6d:	c7 85 c4 fb ff ff 93 	movl   $0x574ce793,-0x43c(%rbp)
    ec74:	e7 4c 57 
    ec77:	c7 85 c8 fb ff ff 04 	movl   $0x4,-0x438(%rbp)
    ec7e:	00 00 00 
    ec81:	c7 85 cc fb ff ff df 	movl   $0x8fe764df,-0x434(%rbp)
    ec88:	64 e7 8f 
    ec8b:	c7 85 d0 fb ff ff 04 	movl   $0x4,-0x430(%rbp)
    ec92:	00 00 00 
    ec95:	c7 85 d4 fb ff ff 93 	movl   $0x574ce793,-0x42c(%rbp)
    ec9c:	e7 4c 57 
    ec9f:	c7 85 d8 fb ff ff ca 	movl   $0x488ad1ca,-0x428(%rbp)
    eca6:	d1 8a 48 
    eca9:	c7 85 dc fb ff ff fe 	movl   $0x25e713fe,-0x424(%rbp)
    ecb0:	13 e7 25 
    ecb3:	c7 85 e0 fb ff ff ff 	movl   $0xffffffff,-0x420(%rbp)
    ecba:	ff ff ff 
    ecbd:	c7 85 e4 fb ff ff fe 	movl   $0x25e713fe,-0x41c(%rbp)
    ecc4:	13 e7 25 
    ecc7:	c7 85 e8 fb ff ff 01 	movl   $0x1,-0x418(%rbp)
    ecce:	00 00 00 
    ecd1:	c7 85 ec fb ff ff 80 	movl   $0xe2219880,-0x414(%rbp)
    ecd8:	98 21 e2 
    ecdb:	c7 85 f0 fb ff ff f9 	movl   $0xfffffff9,-0x410(%rbp)
    ece2:	ff ff ff 
    ece5:	c7 85 f4 fb ff ff fd 	movl   $0xfffffffd,-0x40c(%rbp)
    ecec:	ff ff ff 
    ecef:	c7 85 f8 fb ff ff fc 	movl   $0xfffffffc,-0x408(%rbp)
    ecf6:	ff ff ff 
    ecf9:	c7 85 fc fb ff ff 04 	movl   $0x4,-0x404(%rbp)
    ed00:	00 00 00 
    ed03:	c7 85 00 fc ff ff 3f 	movl   $0x884a0f3f,-0x400(%rbp)
    ed0a:	0f 4a 88 
    ed0d:	c7 85 04 fc ff ff f9 	movl   $0xfffffff9,-0x3fc(%rbp)
    ed14:	ff ff ff 
    ed17:	c7 85 08 fc ff ff fe 	movl   $0xfffffffe,-0x3f8(%rbp)
    ed1e:	ff ff ff 
    ed21:	c7 85 0c fc ff ff ce 	movl   $0xc3f769ce,-0x3f4(%rbp)
    ed28:	69 f7 c3 
    ed2b:	c7 85 10 fc ff ff f9 	movl   $0xfffffff9,-0x3f0(%rbp)
    ed32:	ff ff ff 
    ed35:	c7 85 14 fc ff ff 3f 	movl   $0x884a0f3f,-0x3ec(%rbp)
    ed3c:	0f 4a 88 
    ed3f:	c7 85 18 fc ff ff 6b 	movl   $0xedaa46b,-0x3e8(%rbp)
    ed46:	a4 da 0e 
    ed49:	c7 85 1c fc ff ff df 	movl   $0x8fe764df,-0x3e4(%rbp)
    ed50:	64 e7 8f 
    ed53:	c7 85 20 fc ff ff ff 	movl   $0xffffffff,-0x3e0(%rbp)
    ed5a:	ff ff ff 
    ed5d:	c7 85 24 fc ff ff 01 	movl   $0x1,-0x3dc(%rbp)
    ed64:	00 00 00 
    ed67:	c7 85 28 fc ff ff 80 	movl   $0xe2219880,-0x3d8(%rbp)
    ed6e:	98 21 e2 
    ed71:	c7 85 2c fc ff ff 04 	movl   $0x4,-0x3d4(%rbp)
    ed78:	00 00 00 
    ed7b:	c7 85 30 fc ff ff 04 	movl   $0x4,-0x3d0(%rbp)
    ed82:	00 00 00 
    ed85:	c7 85 34 fc ff ff fe 	movl   $0xfffffffe,-0x3cc(%rbp)
    ed8c:	ff ff ff 
    ed8f:	c7 85 38 fc ff ff ca 	movl   $0x488ad1ca,-0x3c8(%rbp)
    ed96:	d1 8a 48 
    ed99:	c7 85 3c fc ff ff 08 	movl   $0xd8e47408,-0x3c4(%rbp)
    eda0:	74 e4 d8 
    eda3:	c7 85 40 fc ff ff fc 	movl   $0xfffffffc,-0x3c0(%rbp)
    edaa:	ff ff ff 
    edad:	c7 85 44 fc ff ff ff 	movl   $0xffffffff,-0x3bc(%rbp)
    edb4:	ff ff ff 
    edb7:	c7 85 48 fc ff ff f9 	movl   $0xfffffff9,-0x3b8(%rbp)
    edbe:	ff ff ff 
    edc1:	c7 85 4c fc ff ff fd 	movl   $0xfffffffd,-0x3b4(%rbp)
    edc8:	ff ff ff 
    edcb:	c7 85 50 fc ff ff 3f 	movl   $0x884a0f3f,-0x3b0(%rbp)
    edd2:	0f 4a 88 
    edd5:	c7 85 54 fc ff ff fe 	movl   $0x25e713fe,-0x3ac(%rbp)
    eddc:	13 e7 25 
    eddf:	c7 85 58 fc ff ff 80 	movl   $0xe2219880,-0x3a8(%rbp)
    ede6:	98 21 e2 
    ede9:	c7 85 5c fc ff ff f9 	movl   $0xfffffff9,-0x3a4(%rbp)
    edf0:	ff ff ff 
    edf3:	48 c7 85 60 f9 ff ff 	movq   $0x0,-0x6a0(%rbp)
    edfa:	00 00 00 00 
    edfe:	48 b8 26 4e a5 6c 8b 	movabs $0x281bdc8b6ca54e26,%rax
    ee05:	dc 1b 28 
    ee08:	48 89 85 68 f9 ff ff 	mov    %rax,-0x698(%rbp)
    ee0f:	48 8d 05 32 ec 00 00 	lea    0xec32(%rip),%rax        # 1da48 <g_3>
    ee16:	48 89 85 70 f9 ff ff 	mov    %rax,-0x690(%rbp)
    ee1d:	c6 05 2d a4 00 00 00 	movb   $0x0,0xa42d(%rip)        # 19251 <g_192>
    ee24:	e9 4e 06 00 00       	jmpq   f477 <func_29+0xe70>
    ee29:	48 b8 7c f3 0c 91 fc 	movabs $0x7e08cffc910cf37c,%rax
    ee30:	cf 08 7e 
    ee33:	48 89 85 50 fd ff ff 	mov    %rax,-0x2b0(%rbp)
    ee3a:	48 89 85 58 fd ff ff 	mov    %rax,-0x2a8(%rbp)
    ee41:	48 c7 85 60 fd ff ff 	movq   $0x1,-0x2a0(%rbp)
    ee48:	01 00 00 00 
    ee4c:	48 bb 62 39 95 bc 2d 	movabs $0xffb4b72dbc953962,%rbx
    ee53:	b7 b4 ff 
    ee56:	48 89 9d 68 fd ff ff 	mov    %rbx,-0x298(%rbp)
    ee5d:	48 c7 85 70 fd ff ff 	movq   $0x1,-0x290(%rbp)
    ee64:	01 00 00 00 
    ee68:	48 89 85 78 fd ff ff 	mov    %rax,-0x288(%rbp)
    ee6f:	48 c7 85 80 fd ff ff 	movq   $0x1,-0x280(%rbp)
    ee76:	01 00 00 00 
    ee7a:	48 b9 7f f0 4b b8 00 	movabs $0x91890f00b84bf07f,%rcx
    ee81:	0f 89 91 
    ee84:	48 89 8d 88 fd ff ff 	mov    %rcx,-0x278(%rbp)
    ee8b:	48 89 9d 90 fd ff ff 	mov    %rbx,-0x270(%rbp)
    ee92:	48 89 9d 98 fd ff ff 	mov    %rbx,-0x268(%rbp)
    ee99:	48 89 8d a0 fd ff ff 	mov    %rcx,-0x260(%rbp)
    eea0:	48 c7 85 a8 fd ff ff 	movq   $0x1,-0x258(%rbp)
    eea7:	01 00 00 00 
    eeab:	48 89 85 b0 fd ff ff 	mov    %rax,-0x250(%rbp)
    eeb2:	48 c7 85 b8 fd ff ff 	movq   $0x1,-0x248(%rbp)
    eeb9:	01 00 00 00 
    eebd:	48 89 9d c0 fd ff ff 	mov    %rbx,-0x240(%rbp)
    eec4:	48 c7 85 c8 fd ff ff 	movq   $0x1,-0x238(%rbp)
    eecb:	01 00 00 00 
    eecf:	48 89 85 d0 fd ff ff 	mov    %rax,-0x230(%rbp)
    eed6:	48 89 85 d8 fd ff ff 	mov    %rax,-0x228(%rbp)
    eedd:	48 b8 40 1f 76 46 93 	movabs $0x1070539346761f40,%rax
    eee4:	53 70 10 
    eee7:	48 89 85 e0 fd ff ff 	mov    %rax,-0x220(%rbp)
    eeee:	48 c7 85 e8 fd ff ff 	movq   $0x1,-0x218(%rbp)
    eef5:	01 00 00 00 
    eef9:	48 c7 85 f0 fd ff ff 	movq   $0x1,-0x210(%rbp)
    ef00:	01 00 00 00 
    ef04:	48 89 85 f8 fd ff ff 	mov    %rax,-0x208(%rbp)
    ef0b:	48 89 8d 00 fe ff ff 	mov    %rcx,-0x200(%rbp)
    ef12:	48 89 85 08 fe ff ff 	mov    %rax,-0x1f8(%rbp)
    ef19:	48 89 85 10 fe ff ff 	mov    %rax,-0x1f0(%rbp)
    ef20:	48 89 8d 18 fe ff ff 	mov    %rcx,-0x1e8(%rbp)
    ef27:	48 89 85 20 fe ff ff 	mov    %rax,-0x1e0(%rbp)
    ef2e:	48 c7 85 28 fe ff ff 	movq   $0x1,-0x1d8(%rbp)
    ef35:	01 00 00 00 
    ef39:	48 c7 85 30 fe ff ff 	movq   $0x1,-0x1d0(%rbp)
    ef40:	01 00 00 00 
    ef44:	48 89 85 38 fe ff ff 	mov    %rax,-0x1c8(%rbp)
    ef4b:	48 8d 05 b2 a4 00 00 	lea    0xa4b2(%rip),%rax        # 19404 <g_984+0x84>
    ef52:	48 89 85 78 f9 ff ff 	mov    %rax,-0x688(%rbp)
    ef59:	c7 85 e0 f8 ff ff f7 	movl   $0xfffffff7,-0x720(%rbp)
    ef60:	ff ff ff 
    ef63:	c7 85 e4 f8 ff ff 05 	movl   $0x5,-0x71c(%rbp)
    ef6a:	00 00 00 
    ef6d:	c7 85 e8 f8 ff ff 3e 	movl   $0xa150083e,-0x718(%rbp)
    ef74:	08 50 a1 
    ef77:	c7 85 ec f8 ff ff bf 	movl   $0x492071bf,-0x714(%rbp)
    ef7e:	71 20 49 
    ef81:	c7 85 f0 f8 ff ff 00 	movl   $0x0,-0x710(%rbp)
    ef88:	00 00 00 
    ef8b:	c7 85 f4 f8 ff ff 01 	movl   $0x1,-0x70c(%rbp)
    ef92:	00 00 00 
    ef95:	c7 85 f8 f8 ff ff ff 	movl   $0xffffffff,-0x708(%rbp)
    ef9c:	ff ff ff 
    ef9f:	c7 85 fc f8 ff ff fa 	movl   $0xfffffffa,-0x704(%rbp)
    efa6:	ff ff ff 
    efa9:	c7 85 00 f9 ff ff 95 	movl   $0x241caf95,-0x700(%rbp)
    efb0:	af 1c 24 
    efb3:	c7 85 04 f9 ff ff ff 	movl   $0xffffffff,-0x6fc(%rbp)
    efba:	ff ff ff 
    efbd:	c7 85 30 fa ff ff 04 	movl   $0x4,-0x5d0(%rbp)
    efc4:	00 00 00 
    efc7:	c7 85 34 fa ff ff a8 	movl   $0xc3b0a8,-0x5cc(%rbp)
    efce:	b0 c3 00 
    efd1:	c7 85 38 fa ff ff a8 	movl   $0xc3b0a8,-0x5c8(%rbp)
    efd8:	b0 c3 00 
    efdb:	c7 85 3c fa ff ff 04 	movl   $0x4,-0x5c4(%rbp)
    efe2:	00 00 00 
    efe5:	c7 85 40 fa ff ff a8 	movl   $0xc3b0a8,-0x5c0(%rbp)
    efec:	b0 c3 00 
    efef:	c7 85 44 fa ff ff a8 	movl   $0xc3b0a8,-0x5bc(%rbp)
    eff6:	b0 c3 00 
    eff9:	c7 85 48 fa ff ff 04 	movl   $0x4,-0x5b8(%rbp)
    f000:	00 00 00 
    f003:	c7 85 4c fa ff ff a8 	movl   $0xc3b0a8,-0x5b4(%rbp)
    f00a:	b0 c3 00 
    f00d:	c7 85 50 fa ff ff a8 	movl   $0xc3b0a8,-0x5b0(%rbp)
    f014:	b0 c3 00 
    f017:	48 c7 85 80 f9 ff ff 	movq   $0x0,-0x680(%rbp)
    f01e:	00 00 00 00 
    f022:	c7 85 8c f8 ff ff 00 	movl   $0x0,-0x774(%rbp)
    f029:	00 00 00 
    f02c:	e9 d6 00 00 00       	jmpq   f107 <func_29+0xb00>
    f031:	48 8b 9d c8 fd ff ff 	mov    -0x238(%rbp),%rbx
    f038:	8b 85 8c f8 ff ff    	mov    -0x774(%rbp),%eax
    f03e:	0f be d0             	movsbl %al,%edx
    f041:	48 8b 05 e0 d2 00 00 	mov    0xd2e0(%rip),%rax        # 1c328 <g_1662>
    f048:	0f b6 08             	movzbl (%rax),%ecx
    f04b:	48 8b 05 7e ea 00 00 	mov    0xea7e(%rip),%rax        # 1dad0 <g_1191>
    f052:	48 85 c0             	test   %rax,%rax
    f055:	0f 94 c0             	sete   %al
    f058:	89 c6                	mov    %eax,%esi
    f05a:	48 8b 05 c7 d2 00 00 	mov    0xd2c7(%rip),%rax        # 1c328 <g_1662>
    f061:	21 f1                	and    %esi,%ecx
    f063:	88 08                	mov    %cl,(%rax)
    f065:	0f b6 00             	movzbl (%rax),%eax
    f068:	0f be c0             	movsbl %al,%eax
    f06b:	89 d6                	mov    %edx,%esi
    f06d:	89 c7                	mov    %eax,%edi
    f06f:	e8 60 91 ff ff       	callq  81d4 <safe_add_func_int8_t_s_s>
    f074:	8b 85 b4 f8 ff ff    	mov    -0x74c(%rbp),%eax
    f07a:	0f b6 c0             	movzbl %al,%eax
    f07d:	83 e0 24             	and    $0x24,%eax
    f080:	89 c2                	mov    %eax,%edx
    f082:	8b 85 b4 f8 ff ff    	mov    -0x74c(%rbp),%eax
    f088:	89 c6                	mov    %eax,%esi
    f08a:	89 d7                	mov    %edx,%edi
    f08c:	e8 fc 9b ff ff       	callq  8c8d <safe_rshift_func_uint8_t_u_s>
    f091:	83 bd 8c f8 ff ff 07 	cmpl   $0x7,-0x774(%rbp)
    f098:	0f 97 c0             	seta   %al
    f09b:	0f b6 c0             	movzbl %al,%eax
    f09e:	39 85 8c f8 ff ff    	cmp    %eax,-0x774(%rbp)
    f0a4:	0f 97 c0             	seta   %al
    f0a7:	0f b6 c8             	movzbl %al,%ecx
    f0aa:	66 83 bd 9e f8 ff ff 	cmpw   $0x0,-0x762(%rbp)
    f0b1:	00 
    f0b2:	0f 95 c0             	setne  %al
    f0b5:	0f b6 c0             	movzbl %al,%eax
    f0b8:	89 c6                	mov    %eax,%esi
    f0ba:	48 8b 05 57 d2 00 00 	mov    0xd257(%rip),%rax        # 1c318 <g_1558>
    f0c1:	48 8b 00             	mov    (%rax),%rax
    f0c4:	48 8b 00             	mov    (%rax),%rax
    f0c7:	8b 10                	mov    (%rax),%edx
    f0c9:	48 8b 05 48 d2 00 00 	mov    0xd248(%rip),%rax        # 1c318 <g_1558>
    f0d0:	48 8b 00             	mov    (%rax),%rax
    f0d3:	48 8b 00             	mov    (%rax),%rax
    f0d6:	21 ca                	and    %ecx,%edx
    f0d8:	89 10                	mov    %edx,(%rax)
    f0da:	8b 00                	mov    (%rax),%eax
    f0dc:	39 c6                	cmp    %eax,%esi
    f0de:	0f 93 c2             	setae  %dl
    f0e1:	48 8b 05 00 d1 00 00 	mov    0xd100(%rip),%rax        # 1c1e8 <g_589>
    f0e8:	0f b6 d2             	movzbl %dl,%edx
    f0eb:	89 10                	mov    %edx,(%rax)
    f0ed:	8b 00                	mov    (%rax),%eax
    f0ef:	48 98                	cltq   
    f0f1:	48 39 c3             	cmp    %rax,%rbx
    f0f4:	0f 93 c0             	setae  %al
    f0f7:	0f b6 c0             	movzbl %al,%eax
    f0fa:	89 85 a4 f8 ff ff    	mov    %eax,-0x75c(%rbp)
    f100:	83 85 8c f8 ff ff 01 	addl   $0x1,-0x774(%rbp)
    f107:	83 bd 8c f8 ff ff 00 	cmpl   $0x0,-0x774(%rbp)
    f10e:	0f 84 1d ff ff ff    	je     f031 <func_29+0xa2a>
    f114:	c6 05 35 a1 00 00 00 	movb   $0x0,0xa135(%rip)        # 19250 <g_164>
    f11b:	eb 23                	jmp    f140 <func_29+0xb39>
    f11d:	66 c7 85 a2 f8 ff ff 	movw   $0x0,-0x75e(%rbp)
    f124:	00 00 
    f126:	66 83 bd a2 f8 ff ff 	cmpw   $0x0,-0x75e(%rbp)
    f12d:	00 
    f12e:	75 1d                	jne    f14d <func_29+0xb46>
    f130:	0f b6 05 19 a1 00 00 	movzbl 0xa119(%rip),%eax        # 19250 <g_164>
    f137:	83 c0 01             	add    $0x1,%eax
    f13a:	88 05 10 a1 00 00    	mov    %al,0xa110(%rip)        # 19250 <g_164>
    f140:	0f b6 05 09 a1 00 00 	movzbl 0xa109(%rip),%eax        # 19250 <g_164>
    f147:	84 c0                	test   %al,%al
    f149:	74 d2                	je     f11d <func_29+0xb16>
    f14b:	eb 01                	jmp    f14e <func_29+0xb47>
    f14d:	90                   	nop
    f14e:	c7 05 50 a1 00 00 00 	movl   $0x0,0xa150(%rip)        # 192a8 <g_204>
    f155:	00 00 00 
    f158:	e9 f3 02 00 00       	jmpq   f450 <func_29+0xe49>
    f15d:	48 c7 85 60 fa ff ff 	movq   $0x0,-0x5a0(%rbp)
    f164:	00 00 00 00 
    f168:	48 c7 85 68 fa ff ff 	movq   $0x0,-0x598(%rbp)
    f16f:	00 00 00 00 
    f173:	48 c7 85 70 fa ff ff 	movq   $0x0,-0x590(%rbp)
    f17a:	00 00 00 00 
    f17e:	48 c7 85 78 fa ff ff 	movq   $0x0,-0x588(%rbp)
    f185:	00 00 00 00 
    f189:	48 c7 85 80 fa ff ff 	movq   $0x0,-0x580(%rbp)
    f190:	00 00 00 00 
    f194:	48 c7 85 88 fa ff ff 	movq   $0x0,-0x578(%rbp)
    f19b:	00 00 00 00 
    f19f:	48 c7 85 90 fa ff ff 	movq   $0x0,-0x570(%rbp)
    f1a6:	00 00 00 00 
    f1aa:	48 c7 85 98 fa ff ff 	movq   $0x0,-0x568(%rbp)
    f1b1:	00 00 00 00 
    f1b5:	48 8d 05 dc 5f 00 00 	lea    0x5fdc(%rip),%rax        # 15198 <g_2377+0x18>
    f1bc:	48 89 85 88 f9 ff ff 	mov    %rax,-0x678(%rbp)
    f1c3:	c7 85 20 f9 ff ff 04 	movl   $0x4,-0x6e0(%rbp)
    f1ca:	00 00 00 
    f1cd:	66 c7 85 bc f9 ff ff 	movw   $0xfefe,-0x644(%rbp)
    f1d4:	fe fe 
    f1d6:	66 c7 85 be f9 ff ff 	movw   $0xfefe,-0x642(%rbp)
    f1dd:	fe fe 
    f1df:	c7 85 08 f9 ff ff fe 	movl   $0xfffffffe,-0x6f8(%rbp)
    f1e6:	ff ff ff 
    f1e9:	48 c7 85 90 f9 ff ff 	movq   $0x8,-0x670(%rbp)
    f1f0:	08 00 00 00 
    f1f4:	c7 85 d4 f8 ff ff 00 	movl   $0x0,-0x72c(%rbp)
    f1fb:	00 00 00 
    f1fe:	eb 1a                	jmp    f21a <func_29+0xc13>
    f200:	8b 85 d4 f8 ff ff    	mov    -0x72c(%rbp),%eax
    f206:	48 98                	cltq   
    f208:	c7 84 85 c8 f9 ff ff 	movl   $0xffffffff,-0x638(%rbp,%rax,4)
    f20f:	ff ff ff ff 
    f213:	83 85 d4 f8 ff ff 01 	addl   $0x1,-0x72c(%rbp)
    f21a:	83 bd d4 f8 ff ff 01 	cmpl   $0x1,-0x72c(%rbp)
    f221:	7e dd                	jle    f200 <func_29+0xbf9>
    f223:	48 c7 85 98 f9 ff ff 	movq   $0x0,-0x668(%rbp)
    f22a:	00 00 00 00 
    f22e:	48 8d 05 4b d6 00 00 	lea    0xd64b(%rip),%rax        # 1c880 <g_1776+0x160>
    f235:	48 89 85 a0 f9 ff ff 	mov    %rax,-0x660(%rbp)
    f23c:	48 8d 05 5d df 00 00 	lea    0xdf5d(%rip),%rax        # 1d1a0 <g_2289>
    f243:	48 89 85 a0 fa ff ff 	mov    %rax,-0x560(%rbp)
    f24a:	48 8d 05 4f df 00 00 	lea    0xdf4f(%rip),%rax        # 1d1a0 <g_2289>
    f251:	48 89 85 a8 fa ff ff 	mov    %rax,-0x558(%rbp)
    f258:	48 8d 05 41 df 00 00 	lea    0xdf41(%rip),%rax        # 1d1a0 <g_2289>
    f25f:	48 89 85 b0 fa ff ff 	mov    %rax,-0x550(%rbp)
    f266:	48 8d 05 33 df 00 00 	lea    0xdf33(%rip),%rax        # 1d1a0 <g_2289>
    f26d:	48 89 85 b8 fa ff ff 	mov    %rax,-0x548(%rbp)
    f274:	48 8d 05 25 df 00 00 	lea    0xdf25(%rip),%rax        # 1d1a0 <g_2289>
    f27b:	48 89 85 c0 fa ff ff 	mov    %rax,-0x540(%rbp)
    f282:	48 8d 05 17 df 00 00 	lea    0xdf17(%rip),%rax        # 1d1a0 <g_2289>
    f289:	48 89 85 c8 fa ff ff 	mov    %rax,-0x538(%rbp)
    f290:	48 8d 05 09 df 00 00 	lea    0xdf09(%rip),%rax        # 1d1a0 <g_2289>
    f297:	48 89 85 d0 fa ff ff 	mov    %rax,-0x530(%rbp)
    f29e:	48 8d 05 fb de 00 00 	lea    0xdefb(%rip),%rax        # 1d1a0 <g_2289>
    f2a5:	48 89 85 d8 fa ff ff 	mov    %rax,-0x528(%rbp)
    f2ac:	48 8d 05 ed de 00 00 	lea    0xdeed(%rip),%rax        # 1d1a0 <g_2289>
    f2b3:	48 89 85 e0 fa ff ff 	mov    %rax,-0x520(%rbp)
    f2ba:	48 8d 05 df de 00 00 	lea    0xdedf(%rip),%rax        # 1d1a0 <g_2289>
    f2c1:	48 89 85 e8 fa ff ff 	mov    %rax,-0x518(%rbp)
    f2c8:	c7 85 d8 f8 ff ff 00 	movl   $0x0,-0x728(%rbp)
    f2cf:	00 00 00 
    f2d2:	eb 1e                	jmp    f2f2 <func_29+0xceb>
    f2d4:	8b 85 d8 f8 ff ff    	mov    -0x728(%rbp),%eax
    f2da:	48 98                	cltq   
    f2dc:	48 8d 15 61 9f 00 00 	lea    0x9f61(%rip),%rdx        # 19244 <g_101>
    f2e3:	48 89 94 c5 d0 f9 ff 	mov    %rdx,-0x630(%rbp,%rax,8)
    f2ea:	ff 
    f2eb:	83 85 d8 f8 ff ff 01 	addl   $0x1,-0x728(%rbp)
    f2f2:	83 bd d8 f8 ff ff 02 	cmpl   $0x2,-0x728(%rbp)
    f2f9:	7e d9                	jle    f2d4 <func_29+0xccd>
    f2fb:	48 8b 05 76 97 00 00 	mov    0x9776(%rip),%rax        # 18a78 <l_2353.4658+0x78>
    f302:	48 89 85 78 f9 ff ff 	mov    %rax,-0x688(%rbp)
    f309:	8b 9d b4 f8 ff ff    	mov    -0x74c(%rbp),%ebx
    f30f:	8b 85 8c f8 ff ff    	mov    -0x774(%rbp),%eax
    f315:	44 0f bf e0          	movswl %ax,%r12d
    f319:	48 8b 85 78 f9 ff ff 	mov    -0x688(%rbp),%rax
    f320:	8b 00                	mov    (%rax),%eax
    f322:	41 89 c5             	mov    %eax,%r13d
    f325:	8b 85 8c f8 ff ff    	mov    -0x774(%rbp),%eax
    f32b:	48 c7 c6 ff ff ff ff 	mov    $0xffffffffffffffff,%rsi
    f332:	48 89 c7             	mov    %rax,%rdi
    f335:	e8 11 9d ff ff       	callq  904b <safe_sub_func_uint64_t_u_u>
    f33a:	66 25 f8 00          	and    $0xf8,%ax
    f33e:	44 09 e8             	or     %r13d,%eax
    f341:	98                   	cwtl   
    f342:	44 89 e6             	mov    %r12d,%esi
    f345:	89 c7                	mov    %eax,%edi
    f347:	e8 a9 90 ff ff       	callq  83f5 <safe_mul_func_int16_t_s_s>
    f34c:	98                   	cwtl   
    f34d:	0b 85 8c f8 ff ff    	or     -0x774(%rbp),%eax
    f353:	39 85 8c f8 ff ff    	cmp    %eax,-0x774(%rbp)
    f359:	0f 93 c0             	setae  %al
    f35c:	0f b6 d0             	movzbl %al,%edx
    f35f:	48 8b 85 78 f9 ff ff 	mov    -0x688(%rbp),%rax
    f366:	89 10                	mov    %edx,(%rax)
    f368:	8b 85 8c f8 ff ff    	mov    -0x774(%rbp),%eax
    f36e:	0f b7 c0             	movzwl %ax,%eax
    f371:	89 de                	mov    %ebx,%esi
    f373:	89 c7                	mov    %eax,%edi
    f375:	e8 00 9b ff ff       	callq  8e7a <safe_rshift_func_uint16_t_u_u>
    f37a:	0f b6 05 87 e7 00 00 	movzbl 0xe787(%rip),%eax        # 1db08 <g_2062>
    f381:	8b 85 10 fb ff ff    	mov    -0x4f0(%rbp),%eax
    f387:	83 c8 05             	or     $0x5,%eax
    f38a:	89 85 10 fb ff ff    	mov    %eax,-0x4f0(%rbp)
    f390:	8b 85 10 fb ff ff    	mov    -0x4f0(%rbp),%eax
    f396:	0f be d0             	movsbl %al,%edx
    f399:	8b 85 8c f8 ff ff    	mov    -0x774(%rbp),%eax
    f39f:	0f be c0             	movsbl %al,%eax
    f3a2:	89 d6                	mov    %edx,%esi
    f3a4:	89 c7                	mov    %eax,%edi
    f3a6:	e8 47 8e ff ff       	callq  81f2 <safe_sub_func_int8_t_s_s>
    f3ab:	48 8b 05 4e cc 00 00 	mov    0xcc4e(%rip),%rax        # 1c000 <g_200>
    f3b2:	0f b7 00             	movzwl (%rax),%eax
    f3b5:	48 c7 c6 f6 ff ff ff 	mov    $0xfffffffffffffff6,%rsi
    f3bc:	bf 01 00 00 00       	mov    $0x1,%edi
    f3c1:	e8 31 96 ff ff       	callq  89f7 <safe_div_func_int64_t_s_s>
    f3c6:	48 8b 05 cb dd 00 00 	mov    0xddcb(%rip),%rax        # 1d198 <g_2180>
    f3cd:	48 8b 00             	mov    (%rax),%rax
    f3d0:	8b 95 8c f8 ff ff    	mov    -0x774(%rbp),%edx
    f3d6:	89 10                	mov    %edx,(%rax)
    f3d8:	8b 85 a4 f8 ff ff    	mov    -0x75c(%rbp),%eax
    f3de:	85 c0                	test   %eax,%eax
    f3e0:	75 5f                	jne    f441 <func_29+0xe3a>
    f3e2:	48 8b 95 78 fa ff ff 	mov    -0x588(%rbp),%rdx
    f3e9:	48 8b 85 a0 f9 ff ff 	mov    -0x660(%rbp),%rax
    f3f0:	48 c7 00 00 00 00 00 	movq   $0x0,(%rax)
    f3f7:	48 8b 85 a0 f9 ff ff 	mov    -0x660(%rbp),%rax
    f3fe:	48 8b 00             	mov    (%rax),%rax
    f401:	48 39 c2             	cmp    %rax,%rdx
    f404:	0f 95 c0             	setne  %al
    f407:	0f b6 c0             	movzbl %al,%eax
    f40a:	89 05 68 a2 00 00    	mov    %eax,0xa268(%rip)        # 19678 <g_2374>
    f410:	8b 05 62 a2 00 00    	mov    0xa262(%rip),%eax        # 19678 <g_2374>
    f416:	0f b6 c0             	movzbl %al,%eax
    f419:	be 05 00 00 00       	mov    $0x5,%esi
    f41e:	89 c7                	mov    %eax,%edi
    f420:	e8 99 98 ff ff       	callq  8cbe <safe_rshift_func_uint8_t_u_u>
    f425:	48 8d 85 a4 f8 ff ff 	lea    -0x75c(%rbp),%rax
    f42c:	48 89 85 88 f9 ff ff 	mov    %rax,-0x678(%rbp)
    f433:	48 8b 85 88 f9 ff ff 	mov    -0x678(%rbp),%rax
    f43a:	48 89 85 58 f9 ff ff 	mov    %rax,-0x6a8(%rbp)
    f441:	8b 05 61 9e 00 00    	mov    0x9e61(%rip),%eax        # 192a8 <g_204>
    f447:	83 c0 01             	add    $0x1,%eax
    f44a:	89 05 58 9e 00 00    	mov    %eax,0x9e58(%rip)        # 192a8 <g_204>
    f450:	8b 05 52 9e 00 00    	mov    0x9e52(%rip),%eax        # 192a8 <g_204>
    f456:	85 c0                	test   %eax,%eax
    f458:	0f 84 ff fc ff ff    	je     f15d <func_29+0xb56>
    f45e:	83 bd 8c f8 ff ff 00 	cmpl   $0x0,-0x774(%rbp)
    f465:	75 21                	jne    f488 <func_29+0xe81>
    f467:	0f b6 05 e3 9d 00 00 	movzbl 0x9de3(%rip),%eax        # 19251 <g_192>
    f46e:	83 e8 01             	sub    $0x1,%eax
    f471:	88 05 da 9d 00 00    	mov    %al,0x9dda(%rip)        # 19251 <g_192>
    f477:	0f b6 05 d3 9d 00 00 	movzbl 0x9dd3(%rip),%eax        # 19251 <g_192>
    f47e:	84 c0                	test   %al,%al
    f480:	0f 89 a3 f9 ff ff    	jns    ee29 <func_29+0x822>
    f486:	eb 01                	jmp    f489 <func_29+0xe82>
    f488:	90                   	nop
    f489:	8b 85 28 fc ff ff    	mov    -0x3d8(%rbp),%eax
    f48f:	85 c0                	test   %eax,%eax
    f491:	0f 85 b4 00 00 00    	jne    f54b <func_29+0xf44>
    f497:	66 c7 05 d0 9f 00 00 	movw   $0x0,0x9fd0(%rip)        # 19470 <g_1393>
    f49e:	00 00 
    f4a0:	eb 6e                	jmp    f510 <func_29+0xf09>
    f4a2:	48 c7 85 20 f9 ff ff 	movq   $0x0,-0x6e0(%rbp)
    f4a9:	00 00 00 00 
    f4ad:	48 8d 85 20 f9 ff ff 	lea    -0x6e0(%rbp),%rax
    f4b4:	48 89 85 a8 f9 ff ff 	mov    %rax,-0x658(%rbp)
    f4bb:	c7 85 0c f9 ff ff 88 	movl   $0xd0861988,-0x6f4(%rbp)
    f4c2:	19 86 d0 
    f4c5:	48 c7 85 b0 f9 ff ff 	movq   $0x0,-0x650(%rbp)
    f4cc:	00 00 00 00 
    f4d0:	c7 85 cc f8 ff ff 00 	movl   $0x0,-0x734(%rbp)
    f4d7:	00 00 00 
    f4da:	eb 1a                	jmp    f4f6 <func_29+0xeef>
    f4dc:	8b 85 cc f8 ff ff    	mov    -0x734(%rbp),%eax
    f4e2:	48 98                	cltq   
    f4e4:	c7 84 85 50 fd ff ff 	movl   $0xd614ee65,-0x2b0(%rbp,%rax,4)
    f4eb:	65 ee 14 d6 
    f4ef:	83 85 cc f8 ff ff 01 	addl   $0x1,-0x734(%rbp)
    f4f6:	83 bd cc f8 ff ff 07 	cmpl   $0x7,-0x734(%rbp)
    f4fd:	7e dd                	jle    f4dc <func_29+0xed5>
    f4ff:	0f b7 05 6a 9f 00 00 	movzwl 0x9f6a(%rip),%eax        # 19470 <g_1393>
    f506:	83 e8 01             	sub    $0x1,%eax
    f509:	66 89 05 60 9f 00 00 	mov    %ax,0x9f60(%rip)        # 19470 <g_1393>
    f510:	0f b7 05 59 9f 00 00 	movzwl 0x9f59(%rip),%eax        # 19470 <g_1393>
    f517:	66 83 f8 fe          	cmp    $0xfffe,%ax
    f51b:	74 85                	je     f4a2 <func_29+0xe9b>
    f51d:	48 8b 05 44 9f 00 00 	mov    0x9f44(%rip),%rax        # 19468 <g_1201>
    f524:	be 03 00 00 00       	mov    $0x3,%esi
    f529:	48 89 c7             	mov    %rax,%rdi
    f52c:	e8 10 93 ff ff       	callq  8841 <safe_add_func_int64_t_s_s>
    f531:	48 89 05 30 9f 00 00 	mov    %rax,0x9f30(%rip)        # 19468 <g_1201>
    f538:	48 8b 05 29 9f 00 00 	mov    0x9f29(%rip),%rax        # 19468 <g_1201>
    f53f:	48 83 f8 09          	cmp    $0x9,%rax
    f543:	0f 85 f2 f4 ff ff    	jne    ea3b <func_29+0x434>
    f549:	eb 01                	jmp    f54c <func_29+0xf45>
    f54b:	90                   	nop
    f54c:	48 8b 05 45 dc 00 00 	mov    0xdc45(%rip),%rax        # 1d198 <g_2180>
    f553:	48 8b 00             	mov    (%rax),%rax
    f556:	48 8b 7d d8          	mov    -0x28(%rbp),%rdi
    f55a:	64 48 33 3c 25 28 00 	xor    %fs:0x28,%rdi
    f561:	00 00 
    f563:	74 05                	je     f56a <func_29+0xf63>
    f565:	e8 06 8b ff ff       	callq  8070 <__stack_chk_fail@plt>
    f56a:	48 81 c4 68 07 00 00 	add    $0x768,%rsp
    f571:	5b                   	pop    %rbx
    f572:	41 5c                	pop    %r12
    f574:	41 5d                	pop    %r13
    f576:	5d                   	pop    %rbp
    f577:	c3                   	retq   

000000000000f578 <func_34>:
    f578:	f3 0f 1e fa          	endbr64 
    f57c:	55                   	push   %rbp
    f57d:	48 89 e5             	mov    %rsp,%rbp
    f580:	41 57                	push   %r15
    f582:	41 56                	push   %r14
    f584:	41 55                	push   %r13
    f586:	41 54                	push   %r12
    f588:	53                   	push   %rbx
    f589:	48 81 ec 28 0b 00 00 	sub    $0xb28,%rsp
    f590:	48 89 bd c8 f4 ff ff 	mov    %rdi,-0xb38(%rbp)
    f597:	48 89 b5 c0 f4 ff ff 	mov    %rsi,-0xb40(%rbp)
    f59e:	89 d0                	mov    %edx,%eax
    f5a0:	66 89 85 bc f4 ff ff 	mov    %ax,-0xb44(%rbp)
    f5a7:	64 48 8b 04 25 28 00 	mov    %fs:0x28,%rax
    f5ae:	00 00 
    f5b0:	48 89 45 c8          	mov    %rax,-0x38(%rbp)
    f5b4:	31 c0                	xor    %eax,%eax
    f5b6:	48 b8 83 ab 97 76 58 	movabs $0xad11e7587697ab83,%rax
    f5bd:	e7 11 ad 
    f5c0:	48 89 85 78 f5 ff ff 	mov    %rax,-0xa88(%rbp)
    f5c7:	48 8d 05 6e 9a 00 00 	lea    0x9a6e(%rip),%rax        # 1903c <g_73+0xc>
    f5ce:	48 89 85 80 f5 ff ff 	mov    %rax,-0xa80(%rbp)
    f5d5:	48 8d 05 34 cd 00 00 	lea    0xcd34(%rip),%rax        # 1c310 <g_1559>
    f5dc:	48 89 85 48 f5 ff ff 	mov    %rax,-0xab8(%rbp)
    f5e3:	48 8d 85 48 f5 ff ff 	lea    -0xab8(%rbp),%rax
    f5ea:	48 89 85 50 f5 ff ff 	mov    %rax,-0xab0(%rbp)
    f5f1:	c7 85 dc f4 ff ff 3f 	movl   $0x7cafe73f,-0xb24(%rbp)
    f5f8:	e7 af 7c 
    f5fb:	c7 85 08 f5 ff ff fa 	movl   $0xfffffffa,-0xaf8(%rbp)
    f602:	ff ff ff 
    f605:	c7 85 e0 f4 ff ff 00 	movl   $0x0,-0xb20(%rbp)
    f60c:	00 00 00 
    f60f:	c7 85 e4 f4 ff ff 85 	movl   $0x35ffda85,-0xb1c(%rbp)
    f616:	da ff 35 
    f619:	48 8d 05 d8 e4 00 00 	lea    0xe4d8(%rip),%rax        # 1daf8 <g_1665+0x18>
    f620:	48 89 85 88 f5 ff ff 	mov    %rax,-0xa78(%rbp)
    f627:	48 8d 05 72 9b 00 00 	lea    0x9b72(%rip),%rax        # 191a0 <g_88>
    f62e:	48 89 85 90 f5 ff ff 	mov    %rax,-0xa70(%rbp)
    f635:	48 8d 05 a4 9c 00 00 	lea    0x9ca4(%rip),%rax        # 192e0 <g_572+0x20>
    f63c:	48 89 85 98 f5 ff ff 	mov    %rax,-0xa68(%rbp)
    f643:	48 c7 85 a0 f5 ff ff 	movq   $0x7,-0xa60(%rbp)
    f64a:	07 00 00 00 
    f64e:	48 c7 85 a8 f5 ff ff 	movq   $0x0,-0xa58(%rbp)
    f655:	00 00 00 00 
    f659:	66 c7 85 d8 f4 ff ff 	movw   $0x6492,-0xb28(%rbp)
    f660:	92 64 
    f662:	48 c7 85 b0 f5 ff ff 	movq   $0x0,-0xa50(%rbp)
    f669:	00 00 00 00 
    f66d:	48 c7 85 b8 f5 ff ff 	movq   $0xfffffffffffffff8,-0xa48(%rbp)
    f674:	f8 ff ff ff 
    f678:	48 8d 85 c0 f9 ff ff 	lea    -0x640(%rbp),%rax
    f67f:	48 83 e8 80          	sub    $0xffffffffffffff80,%rax
    f683:	48 89 85 c0 f5 ff ff 	mov    %rax,-0xa40(%rbp)
    f68a:	48 8d 05 df c9 00 00 	lea    0xc9df(%rip),%rax        # 1c070 <g_428>
    f691:	48 89 85 c8 f5 ff ff 	mov    %rax,-0xa38(%rbp)
    f698:	66 c7 85 da f4 ff ff 	movw   $0x67fe,-0xb26(%rbp)
    f69f:	fe 67 
    f6a1:	c7 85 e8 f4 ff ff 00 	movl   $0x0,-0xb18(%rbp)
    f6a8:	00 00 00 
    f6ab:	c7 85 0c f5 ff ff 00 	movl   $0x0,-0xaf4(%rbp)
    f6b2:	00 00 00 
    f6b5:	c7 85 10 f5 ff ff 08 	movl   $0x8,-0xaf0(%rbp)
    f6bc:	00 00 00 
    f6bf:	48 8d 05 aa 9d 00 00 	lea    0x9daa(%rip),%rax        # 19470 <g_1393>
    f6c6:	48 89 85 58 f5 ff ff 	mov    %rax,-0xaa8(%rbp)
    f6cd:	48 8d 85 58 f5 ff ff 	lea    -0xaa8(%rbp),%rax
    f6d4:	48 89 85 d0 f5 ff ff 	mov    %rax,-0xa30(%rbp)
    f6db:	48 8d 05 96 ca 00 00 	lea    0xca96(%rip),%rax        # 1c178 <g_426+0x8>
    f6e2:	48 89 85 d8 f5 ff ff 	mov    %rax,-0xa28(%rbp)
    f6e9:	48 8d 05 f8 ca 00 00 	lea    0xcaf8(%rip),%rax        # 1c1e8 <g_589>
    f6f0:	48 89 85 e0 f5 ff ff 	mov    %rax,-0xa20(%rbp)
    f6f7:	48 8d 05 6a 9d 00 00 	lea    0x9d6a(%rip),%rax        # 19468 <g_1201>
    f6fe:	48 89 85 e8 f5 ff ff 	mov    %rax,-0xa18(%rbp)
    f705:	48 8d 05 54 99 00 00 	lea    0x9954(%rip),%rax        # 19060 <g_75+0x20>
    f70c:	48 89 85 f0 f5 ff ff 	mov    %rax,-0xa10(%rbp)
    f713:	48 b8 f3 a2 5a 0f 6e 	movabs $0x54eee6e0f5aa2f3,%rax
    f71a:	ee 4e 05 
    f71d:	48 89 85 f8 f5 ff ff 	mov    %rax,-0xa08(%rbp)
    f724:	c7 85 14 f5 ff ff fe 	movl   $0xfffffffe,-0xaec(%rbp)
    f72b:	ff ff ff 
    f72e:	c7 85 18 f5 ff ff fc 	movl   $0xfffffffc,-0xae8(%rbp)
    f735:	ff ff ff 
    f738:	48 c7 85 00 f6 ff ff 	movq   $0xfffffffffffffffa,-0xa00(%rbp)
    f73f:	fa ff ff ff 
    f743:	c7 85 1c f5 ff ff a8 	movl   $0xfe4de5a8,-0xae4(%rbp)
    f74a:	e5 4d fe 
    f74d:	48 8d 85 e8 f4 ff ff 	lea    -0xb18(%rbp),%rax
    f754:	48 89 85 08 f6 ff ff 	mov    %rax,-0x9f8(%rbp)
    f75b:	c6 85 d4 f4 ff ff 01 	movb   $0x1,-0xb2c(%rbp)
    f762:	48 8d 05 3f 9b 00 00 	lea    0x9b3f(%rip),%rax        # 192a8 <g_204>
    f769:	48 89 85 b0 f7 ff ff 	mov    %rax,-0x850(%rbp)
    f770:	48 8d 05 31 9b 00 00 	lea    0x9b31(%rip),%rax        # 192a8 <g_204>
    f777:	48 89 85 b8 f7 ff ff 	mov    %rax,-0x848(%rbp)
    f77e:	48 8d 05 23 9b 00 00 	lea    0x9b23(%rip),%rax        # 192a8 <g_204>
    f785:	48 89 85 c0 f7 ff ff 	mov    %rax,-0x840(%rbp)
    f78c:	48 8d 05 15 9b 00 00 	lea    0x9b15(%rip),%rax        # 192a8 <g_204>
    f793:	48 89 85 c8 f7 ff ff 	mov    %rax,-0x838(%rbp)
    f79a:	48 8d 85 b0 f7 ff ff 	lea    -0x850(%rbp),%rax
    f7a1:	48 89 85 60 f5 ff ff 	mov    %rax,-0xaa0(%rbp)
    f7a8:	48 8d 85 60 f5 ff ff 	lea    -0xaa0(%rbp),%rax
    f7af:	48 89 85 10 f6 ff ff 	mov    %rax,-0x9f0(%rbp)
    f7b6:	c7 85 20 f5 ff ff 09 	movl   $0x9,-0xae0(%rbp)
    f7bd:	00 00 00 
    f7c0:	48 8d 05 b9 d7 00 00 	lea    0xd7b9(%rip),%rax        # 1cf80 <g_1775+0x3e0>
    f7c7:	48 89 85 18 f6 ff ff 	mov    %rax,-0x9e8(%rbp)
    f7ce:	c7 85 f0 f4 ff ff 00 	movl   $0x0,-0xb10(%rbp)
    f7d5:	00 00 00 
    f7d8:	eb 1e                	jmp    f7f8 <func_34+0x280>
    f7da:	8b 85 f0 f4 ff ff    	mov    -0xb10(%rbp),%eax
    f7e0:	48 98                	cltq   
    f7e2:	48 8d 95 50 f5 ff ff 	lea    -0xab0(%rbp),%rdx
    f7e9:	48 89 94 c5 30 f8 ff 	mov    %rdx,-0x7d0(%rbp,%rax,8)
    f7f0:	ff 
    f7f1:	83 85 f0 f4 ff ff 01 	addl   $0x1,-0xb10(%rbp)
    f7f8:	83 bd f0 f4 ff ff 08 	cmpl   $0x8,-0xb10(%rbp)
    f7ff:	7e d9                	jle    f7da <func_34+0x262>
    f801:	c7 85 f0 f4 ff ff 00 	movl   $0x0,-0xb10(%rbp)
    f808:	00 00 00 
    f80b:	eb 19                	jmp    f826 <func_34+0x2ae>
    f80d:	8b 85 f0 f4 ff ff    	mov    -0xb10(%rbp),%eax
    f813:	48 98                	cltq   
    f815:	66 c7 84 45 76 f7 ff 	movw   $0xfff7,-0x88a(%rbp,%rax,2)
    f81c:	ff f7 ff 
    f81f:	83 85 f0 f4 ff ff 01 	addl   $0x1,-0xb10(%rbp)
    f826:	83 bd f0 f4 ff ff 05 	cmpl   $0x5,-0xb10(%rbp)
    f82d:	7e de                	jle    f80d <func_34+0x295>
    f82f:	c7 85 f0 f4 ff ff 00 	movl   $0x0,-0xb10(%rbp)
    f836:	00 00 00 
    f839:	eb 4a                	jmp    f885 <func_34+0x30d>
    f83b:	c7 85 f4 f4 ff ff 00 	movl   $0x0,-0xb0c(%rbp)
    f842:	00 00 00 
    f845:	eb 2e                	jmp    f875 <func_34+0x2fd>
    f847:	8b 85 f4 f4 ff ff    	mov    -0xb0c(%rbp),%eax
    f84d:	48 98                	cltq   
    f84f:	8b 95 f0 f4 ff ff    	mov    -0xb10(%rbp),%edx
    f855:	48 63 d2             	movslq %edx,%rdx
    f858:	48 c1 e2 02          	shl    $0x2,%rdx
    f85c:	48 01 d0             	add    %rdx,%rax
    f85f:	48 8d 15 c2 ca 00 00 	lea    0xcac2(%rip),%rdx        # 1c328 <g_1662>
    f866:	48 89 94 c5 c0 f9 ff 	mov    %rdx,-0x640(%rbp,%rax,8)
    f86d:	ff 
    f86e:	83 85 f4 f4 ff ff 01 	addl   $0x1,-0xb0c(%rbp)
    f875:	83 bd f4 f4 ff ff 03 	cmpl   $0x3,-0xb0c(%rbp)
    f87c:	7e c9                	jle    f847 <func_34+0x2cf>
    f87e:	83 85 f0 f4 ff ff 01 	addl   $0x1,-0xb10(%rbp)
    f885:	83 bd f0 f4 ff ff 07 	cmpl   $0x7,-0xb10(%rbp)
    f88c:	7e ad                	jle    f83b <func_34+0x2c3>
    f88e:	c7 85 f0 f4 ff ff 00 	movl   $0x0,-0xb10(%rbp)
    f895:	00 00 00 
    f898:	e9 8b 00 00 00       	jmpq   f928 <func_34+0x3b0>
    f89d:	c7 85 f4 f4 ff ff 00 	movl   $0x0,-0xb0c(%rbp)
    f8a4:	00 00 00 
    f8a7:	eb 6f                	jmp    f918 <func_34+0x3a0>
    f8a9:	c7 85 f8 f4 ff ff 00 	movl   $0x0,-0xb08(%rbp)
    f8b0:	00 00 00 
    f8b3:	eb 53                	jmp    f908 <func_34+0x390>
    f8b5:	8b 85 f8 f4 ff ff    	mov    -0xb08(%rbp),%eax
    f8bb:	48 63 f0             	movslq %eax,%rsi
    f8be:	8b 85 f0 f4 ff ff    	mov    -0xb10(%rbp),%eax
    f8c4:	48 63 d0             	movslq %eax,%rdx
    f8c7:	8b 85 f4 f4 ff ff    	mov    -0xb0c(%rbp),%eax
    f8cd:	48 63 c8             	movslq %eax,%rcx
    f8d0:	48 89 d0             	mov    %rdx,%rax
    f8d3:	48 c1 e0 02          	shl    $0x2,%rax
    f8d7:	48 01 d0             	add    %rdx,%rax
    f8da:	48 c1 e0 02          	shl    $0x2,%rax
    f8de:	48 01 d0             	add    %rdx,%rax
    f8e1:	48 01 c0             	add    %rax,%rax
    f8e4:	48 89 ca             	mov    %rcx,%rdx
    f8e7:	48 01 d2             	add    %rdx,%rdx
    f8ea:	48 01 ca             	add    %rcx,%rdx
    f8ed:	48 01 d2             	add    %rdx,%rdx
    f8f0:	48 01 d0             	add    %rdx,%rax
    f8f3:	48 01 f0             	add    %rsi,%rax
    f8f6:	c7 84 85 e0 fc ff ff 	movl   $0x39d8b4f3,-0x320(%rbp,%rax,4)
    f8fd:	f3 b4 d8 39 
    f901:	83 85 f8 f4 ff ff 01 	addl   $0x1,-0xb08(%rbp)
    f908:	83 bd f8 f4 ff ff 05 	cmpl   $0x5,-0xb08(%rbp)
    f90f:	7e a4                	jle    f8b5 <func_34+0x33d>
    f911:	83 85 f4 f4 ff ff 01 	addl   $0x1,-0xb0c(%rbp)
    f918:	83 bd f4 f4 ff ff 06 	cmpl   $0x6,-0xb0c(%rbp)
    f91f:	7e 88                	jle    f8a9 <func_34+0x331>
    f921:	83 85 f0 f4 ff ff 01 	addl   $0x1,-0xb10(%rbp)
    f928:	83 bd f0 f4 ff ff 01 	cmpl   $0x1,-0xb10(%rbp)
    f92f:	0f 8e 68 ff ff ff    	jle    f89d <func_34+0x325>
    f935:	66 c7 05 e8 96 00 00 	movw   $0x0,0x96e8(%rip)        # 19026 <g_8>
    f93c:	00 00 
    f93e:	90                   	nop
    f93f:	0f b7 05 e0 96 00 00 	movzwl 0x96e0(%rip),%eax        # 19026 <g_8>
    f946:	66 83 f8 22          	cmp    $0x22,%ax
    f94a:	77 0d                	ja     f959 <func_34+0x3e1>
    f94c:	8b 05 f6 e0 00 00    	mov    0xe0f6(%rip),%eax        # 1da48 <g_3>
    f952:	48 98                	cltq   
    f954:	e9 f9 10 00 00       	jmpq   10a52 <func_34+0x14da>
    f959:	0f b7 85 bc f4 ff ff 	movzwl -0xb44(%rbp),%eax
    f960:	0f be d8             	movsbl %al,%ebx
    f963:	44 0f b7 a5 bc f4 ff 	movzwl -0xb44(%rbp),%r12d
    f96a:	ff 
    f96b:	48 8b 85 78 f5 ff ff 	mov    -0xa88(%rbp),%rax
    f972:	44 0f be e8          	movsbl %al,%r13d
    f976:	4c 8b 35 db 96 00 00 	mov    0x96db(%rip),%r14        # 19058 <g_75+0x18>
    f97d:	48 8b 85 c0 f4 ff ff 	mov    -0xb40(%rbp),%rax
    f984:	48 89 85 c8 f4 ff ff 	mov    %rax,-0xb38(%rbp)
    f98b:	48 8b 85 c8 f4 ff ff 	mov    -0xb38(%rbp),%rax
    f992:	48 3b 85 c0 f4 ff ff 	cmp    -0xb40(%rbp),%rax
    f999:	0f 94 c0             	sete   %al
    f99c:	0f b6 c8             	movzbl %al,%ecx
    f99f:	0f b7 85 bc f4 ff ff 	movzwl -0xb44(%rbp),%eax
    f9a6:	48 8d 15 9b e0 00 00 	lea    0xe09b(%rip),%rdx        # 1da48 <g_3>
    f9ad:	89 ce                	mov    %ecx,%esi
    f9af:	89 c7                	mov    %eax,%edi
    f9b1:	e8 8f 35 00 00       	callq  12f45 <func_63>
    f9b6:	44 0f b6 f8          	movzbl %al,%r15d
    f9ba:	48 8b 85 78 f5 ff ff 	mov    -0xa88(%rbp),%rax
    f9c1:	0f b6 c0             	movzbl %al,%eax
    f9c4:	89 c6                	mov    %eax,%esi
    f9c6:	bf 00 00 00 00       	mov    $0x0,%edi
    f9cb:	e8 8a 91 ff ff       	callq  8b5a <safe_add_func_uint8_t_u_u>
    f9d0:	0f b6 c0             	movzbl %al,%eax
    f9d3:	44 89 fe             	mov    %r15d,%esi
    f9d6:	89 c7                	mov    %eax,%edi
    f9d8:	e8 9b 91 ff ff       	callq  8b78 <safe_sub_func_uint8_t_u_u>
    f9dd:	0f b6 c8             	movzbl %al,%ecx
    f9e0:	48 8b 85 78 f5 ff ff 	mov    -0xa88(%rbp),%rax
    f9e7:	4c 89 f2             	mov    %r14,%rdx
    f9ea:	89 ce                	mov    %ecx,%esi
    f9ec:	48 89 c7             	mov    %rax,%rdi
    f9ef:	e8 8a 14 00 00       	callq  10e7e <func_54>
    f9f4:	48 8b 8d c0 f4 ff ff 	mov    -0xb40(%rbp),%rcx
    f9fb:	48 8b 85 80 f5 ff ff 	mov    -0xa80(%rbp),%rax
    fa02:	44 89 ea             	mov    %r13d,%edx
    fa05:	48 89 ce             	mov    %rcx,%rsi
    fa08:	48 89 c7             	mov    %rax,%rdi
    fa0b:	e8 68 10 00 00       	callq  10a78 <func_50>
    fa10:	be 04 00 00 00       	mov    $0x4,%esi
    fa15:	bf 01 00 00 00       	mov    $0x1,%edi
    fa1a:	e8 6e 92 ff ff       	callq  8c8d <safe_rshift_func_uint8_t_u_s>
    fa1f:	3c f9                	cmp    $0xf9,%al
    fa21:	0f 94 c0             	sete   %al
    fa24:	0f b6 c0             	movzbl %al,%eax
    fa27:	44 89 e6             	mov    %r12d,%esi
    fa2a:	89 c7                	mov    %eax,%edi
    fa2c:	e8 9b 8c ff ff       	callq  86cc <safe_mod_func_int32_t_s_s>
    fa31:	0f be c0             	movsbl %al,%eax
    fa34:	89 de                	mov    %ebx,%esi
    fa36:	89 c7                	mov    %eax,%edi
    fa38:	e8 b5 87 ff ff       	callq  81f2 <safe_sub_func_int8_t_s_s>
    fa3d:	0f b7 05 e0 95 00 00 	movzwl 0x95e0(%rip),%eax        # 19024 <g_7>
    fa44:	98                   	cwtl   
    fa45:	be 01 00 00 00       	mov    $0x1,%esi
    fa4a:	89 c7                	mov    %eax,%edi
    fa4c:	e8 d9 8a ff ff       	callq  852a <safe_rshift_func_int16_t_s_s>
    fa51:	66 83 f8 08          	cmp    $0x8,%ax
    fa55:	0f 97 c0             	seta   %al
    fa58:	0f b6 d0             	movzbl %al,%edx
    fa5b:	48 83 bd c0 f4 ff ff 	cmpq   $0x0,-0xb40(%rbp)
    fa62:	00 
    fa63:	0f 94 c0             	sete   %al
    fa66:	0f b6 c0             	movzbl %al,%eax
    fa69:	89 d6                	mov    %edx,%esi
    fa6b:	89 c7                	mov    %eax,%edi
    fa6d:	e8 21 91 ff ff       	callq  8b93 <safe_mul_func_uint8_t_u_u>
    fa72:	0f b6 c0             	movzbl %al,%eax
    fa75:	48 39 85 78 f5 ff ff 	cmp    %rax,-0xa88(%rbp)
    fa7c:	0f 87 0c 0a 00 00    	ja     1048e <func_34+0xf16>
    fa82:	48 8d 05 b7 c8 00 00 	lea    0xc8b7(%rip),%rax        # 1c340 <g_1679>
    fa89:	48 89 85 60 f6 ff ff 	mov    %rax,-0x9a0(%rbp)
    fa90:	c7 85 ec f4 ff ff 00 	movl   $0x0,-0xb14(%rbp)
    fa97:	00 00 00 
    fa9a:	66 c7 85 30 f9 ff ff 	movw   $0xd94a,-0x6d0(%rbp)
    faa1:	4a d9 
    faa3:	66 c7 85 32 f9 ff ff 	movw   $0x3140,-0x6ce(%rbp)
    faaa:	40 31 
    faac:	66 c7 85 34 f9 ff ff 	movw   $0x76a4,-0x6cc(%rbp)
    fab3:	a4 76 
    fab5:	66 c7 85 36 f9 ff ff 	movw   $0xefd6,-0x6ca(%rbp)
    fabc:	d6 ef 
    fabe:	66 c7 85 38 f9 ff ff 	movw   $0x1b9a,-0x6c8(%rbp)
    fac5:	9a 1b 
    fac7:	66 c7 85 3a f9 ff ff 	movw   $0xfcfb,-0x6c6(%rbp)
    face:	fb fc 
    fad0:	66 c7 85 3c f9 ff ff 	movw   $0xfffa,-0x6c4(%rbp)
    fad7:	fa ff 
    fad9:	66 c7 85 3e f9 ff ff 	movw   $0x1168,-0x6c2(%rbp)
    fae0:	68 11 
    fae2:	66 c7 85 40 f9 ff ff 	movw   $0xfba2,-0x6c0(%rbp)
    fae9:	a2 fb 
    faeb:	66 c7 85 42 f9 ff ff 	movw   $0x1168,-0x6be(%rbp)
    faf2:	68 11 
    faf4:	66 c7 85 44 f9 ff ff 	movw   $0xefd6,-0x6bc(%rbp)
    fafb:	d6 ef 
    fafd:	66 c7 85 46 f9 ff ff 	movw   $0x1168,-0x6ba(%rbp)
    fb04:	68 11 
    fb06:	66 c7 85 48 f9 ff ff 	movw   $0x76a4,-0x6b8(%rbp)
    fb0d:	a4 76 
    fb0f:	66 c7 85 4a f9 ff ff 	movw   $0x1b9a,-0x6b6(%rbp)
    fb16:	9a 1b 
    fb18:	66 c7 85 4c f9 ff ff 	movw   $0x76a4,-0x6b4(%rbp)
    fb1f:	a4 76 
    fb21:	66 c7 85 4e f9 ff ff 	movw   $0x1168,-0x6b2(%rbp)
    fb28:	68 11 
    fb2a:	66 c7 85 50 f9 ff ff 	movw   $0xefd6,-0x6b0(%rbp)
    fb31:	d6 ef 
    fb33:	66 c7 85 52 f9 ff ff 	movw   $0x2,-0x6ae(%rbp)
    fb3a:	02 00 
    fb3c:	66 c7 85 54 f9 ff ff 	movw   $0xffff,-0x6ac(%rbp)
    fb43:	ff ff 
    fb45:	66 c7 85 56 f9 ff ff 	movw   $0x1,-0x6aa(%rbp)
    fb4c:	01 00 
    fb4e:	66 c7 85 58 f9 ff ff 	movw   $0xcc9e,-0x6a8(%rbp)
    fb55:	9e cc 
    fb57:	66 c7 85 5a f9 ff ff 	movw   $0x9331,-0x6a6(%rbp)
    fb5e:	31 93 
    fb60:	66 c7 85 5c f9 ff ff 	movw   $0xffff,-0x6a4(%rbp)
    fb67:	ff ff 
    fb69:	66 c7 85 5e f9 ff ff 	movw   $0xd9fd,-0x6a2(%rbp)
    fb70:	fd d9 
    fb72:	66 c7 85 60 f9 ff ff 	movw   $0xfffa,-0x6a0(%rbp)
    fb79:	fa ff 
    fb7b:	66 c7 85 62 f9 ff ff 	movw   $0x76a4,-0x69e(%rbp)
    fb82:	a4 76 
    fb84:	66 c7 85 64 f9 ff ff 	movw   $0x2,-0x69c(%rbp)
    fb8b:	02 00 
    fb8d:	66 c7 85 66 f9 ff ff 	movw   $0x3140,-0x69a(%rbp)
    fb94:	40 31 
    fb96:	66 c7 85 68 f9 ff ff 	movw   $0x3140,-0x698(%rbp)
    fb9d:	40 31 
    fb9f:	66 c7 85 6a f9 ff ff 	movw   $0x2,-0x696(%rbp)
    fba6:	02 00 
    fba8:	66 c7 85 6c f9 ff ff 	movw   $0xfba2,-0x694(%rbp)
    fbaf:	a2 fb 
    fbb1:	66 c7 85 6e f9 ff ff 	movw   $0x9331,-0x692(%rbp)
    fbb8:	31 93 
    fbba:	66 c7 85 70 f9 ff ff 	movw   $0x2,-0x690(%rbp)
    fbc1:	02 00 
    fbc3:	66 c7 85 72 f9 ff ff 	movw   $0x2,-0x68e(%rbp)
    fbca:	02 00 
    fbcc:	66 c7 85 74 f9 ff ff 	movw   $0x9331,-0x68c(%rbp)
    fbd3:	31 93 
    fbd5:	66 c7 85 76 f9 ff ff 	movw   $0xfba2,-0x68a(%rbp)
    fbdc:	a2 fb 
    fbde:	66 c7 85 78 f9 ff ff 	movw   $0xefd6,-0x688(%rbp)
    fbe5:	d6 ef 
    fbe7:	66 c7 85 7a f9 ff ff 	movw   $0x1,-0x686(%rbp)
    fbee:	01 00 
    fbf0:	66 c7 85 7c f9 ff ff 	movw   $0xffff,-0x684(%rbp)
    fbf7:	ff ff 
    fbf9:	66 c7 85 7e f9 ff ff 	movw   $0x76a4,-0x682(%rbp)
    fc00:	a4 76 
    fc02:	66 c7 85 80 f9 ff ff 	movw   $0x1,-0x680(%rbp)
    fc09:	01 00 
    fc0b:	66 c7 85 82 f9 ff ff 	movw   $0x1168,-0x67e(%rbp)
    fc12:	68 11 
    fc14:	66 c7 85 84 f9 ff ff 	movw   $0xfcfb,-0x67c(%rbp)
    fc1b:	fb fc 
    fc1d:	66 c7 85 86 f9 ff ff 	movw   $0xfba2,-0x67a(%rbp)
    fc24:	a2 fb 
    fc26:	66 c7 85 88 f9 ff ff 	movw   $0xd9fd,-0x678(%rbp)
    fc2d:	fd d9 
    fc2f:	66 c7 85 8a f9 ff ff 	movw   $0xd94a,-0x676(%rbp)
    fc36:	4a d9 
    fc38:	66 c7 85 8c f9 ff ff 	movw   $0xfffa,-0x674(%rbp)
    fc3f:	fa ff 
    fc41:	66 c7 85 8e f9 ff ff 	movw   $0xffff,-0x672(%rbp)
    fc48:	ff ff 
    fc4a:	66 c7 85 90 f9 ff ff 	movw   $0xfffa,-0x670(%rbp)
    fc51:	fa ff 
    fc53:	66 c7 85 92 f9 ff ff 	movw   $0xd94a,-0x66e(%rbp)
    fc5a:	4a d9 
    fc5c:	66 c7 85 94 f9 ff ff 	movw   $0x1,-0x66c(%rbp)
    fc63:	01 00 
    fc65:	66 c7 85 96 f9 ff ff 	movw   $0x3140,-0x66a(%rbp)
    fc6c:	40 31 
    fc6e:	66 c7 85 98 f9 ff ff 	movw   $0xcc9e,-0x668(%rbp)
    fc75:	9e cc 
    fc77:	66 c7 85 9a f9 ff ff 	movw   $0x3140,-0x666(%rbp)
    fc7e:	40 31 
    fc80:	66 c7 85 9c f9 ff ff 	movw   $0x1,-0x664(%rbp)
    fc87:	01 00 
    fc89:	66 c7 85 9e f9 ff ff 	movw   $0xfba2,-0x662(%rbp)
    fc90:	a2 fb 
    fc92:	66 c7 85 a0 f9 ff ff 	movw   $0xd94a,-0x660(%rbp)
    fc99:	4a d9 
    fc9b:	66 c7 85 a2 f9 ff ff 	movw   $0x1b9a,-0x65e(%rbp)
    fca2:	9a 1b 
    fca4:	66 c7 85 a4 f9 ff ff 	movw   $0x8,-0x65c(%rbp)
    fcab:	08 00 
    fcad:	66 c7 85 a6 f9 ff ff 	movw   $0xab28,-0x65a(%rbp)
    fcb4:	28 ab 
    fcb6:	66 c7 85 a8 f9 ff ff 	movw   $0xfba2,-0x658(%rbp)
    fcbd:	a2 fb 
    fcbf:	66 c7 85 aa f9 ff ff 	movw   $0xd94a,-0x656(%rbp)
    fcc6:	4a d9 
    fcc8:	66 c7 85 ac f9 ff ff 	movw   $0x1b9a,-0x654(%rbp)
    fccf:	9a 1b 
    fcd1:	66 c7 85 ae f9 ff ff 	movw   $0x8,-0x652(%rbp)
    fcd8:	08 00 
    fcda:	66 c7 85 b0 f9 ff ff 	movw   $0xab28,-0x650(%rbp)
    fce1:	28 ab 
    fce3:	66 c7 85 b2 f9 ff ff 	movw   $0x76a4,-0x64e(%rbp)
    fcea:	a4 76 
    fcec:	66 c7 85 b4 f9 ff ff 	movw   $0x9331,-0x64c(%rbp)
    fcf3:	31 93 
    fcf5:	66 c7 85 b6 f9 ff ff 	movw   $0x9331,-0x64a(%rbp)
    fcfc:	31 93 
    fcfe:	66 c7 85 b8 f9 ff ff 	movw   $0x76a4,-0x648(%rbp)
    fd05:	a4 76 
    fd07:	66 c7 85 ba f9 ff ff 	movw   $0xab28,-0x646(%rbp)
    fd0e:	28 ab 
    fd10:	c7 85 90 f7 ff ff f7 	movl   $0xbcf0e1f7,-0x870(%rbp)
    fd17:	e1 f0 bc 
    fd1a:	c7 85 94 f7 ff ff f7 	movl   $0xbcf0e1f7,-0x86c(%rbp)
    fd21:	e1 f0 bc 
    fd24:	c7 85 98 f7 ff ff f7 	movl   $0xbcf0e1f7,-0x868(%rbp)
    fd2b:	e1 f0 bc 
    fd2e:	c7 85 9c f7 ff ff f7 	movl   $0xbcf0e1f7,-0x864(%rbp)
    fd35:	e1 f0 bc 
    fd38:	c7 85 a0 f7 ff ff f7 	movl   $0xbcf0e1f7,-0x860(%rbp)
    fd3f:	e1 f0 bc 
    fd42:	c7 85 a4 f7 ff ff f7 	movl   $0xbcf0e1f7,-0x85c(%rbp)
    fd49:	e1 f0 bc 
    fd4c:	48 8d 85 30 fe ff ff 	lea    -0x1d0(%rbp),%rax
    fd53:	48 8d 15 06 5e 00 00 	lea    0x5e06(%rip),%rdx        # 15b60 <g_3399+0x908>
    fd5a:	b9 32 00 00 00       	mov    $0x32,%ecx
    fd5f:	48 89 c7             	mov    %rax,%rdi
    fd62:	48 89 d6             	mov    %rdx,%rsi
    fd65:	f3 48 a5             	rep movsq %ds:(%rsi),%es:(%rdi)
    fd68:	48 8d 05 f1 96 00 00 	lea    0x96f1(%rip),%rax        # 19460 <g_1188>
    fd6f:	48 89 85 68 f5 ff ff 	mov    %rax,-0xa98(%rbp)
    fd76:	48 8d 85 68 f5 ff ff 	lea    -0xa98(%rbp),%rax
    fd7d:	48 89 85 68 f6 ff ff 	mov    %rax,-0x998(%rbp)
    fd84:	c7 85 30 f5 ff ff fb 	movl   $0xfffffffb,-0xad0(%rbp)
    fd8b:	ff ff ff 
    fd8e:	48 8d 05 1b 95 00 00 	lea    0x951b(%rip),%rax        # 192b0 <g_386>
    fd95:	48 89 85 f0 f7 ff ff 	mov    %rax,-0x810(%rbp)
    fd9c:	48 8d 05 0d 95 00 00 	lea    0x950d(%rip),%rax        # 192b0 <g_386>
    fda3:	48 89 85 f8 f7 ff ff 	mov    %rax,-0x808(%rbp)
    fdaa:	48 8d 05 ff 94 00 00 	lea    0x94ff(%rip),%rax        # 192b0 <g_386>
    fdb1:	48 89 85 00 f8 ff ff 	mov    %rax,-0x800(%rbp)
    fdb8:	48 8d 05 f1 94 00 00 	lea    0x94f1(%rip),%rax        # 192b0 <g_386>
    fdbf:	48 89 85 08 f8 ff ff 	mov    %rax,-0x7f8(%rbp)
    fdc6:	48 8d 05 e3 94 00 00 	lea    0x94e3(%rip),%rax        # 192b0 <g_386>
    fdcd:	48 89 85 10 f8 ff ff 	mov    %rax,-0x7f0(%rbp)
    fdd4:	48 8d 05 d5 94 00 00 	lea    0x94d5(%rip),%rax        # 192b0 <g_386>
    fddb:	48 89 85 18 f8 ff ff 	mov    %rax,-0x7e8(%rbp)
    fde2:	48 8d 05 c7 94 00 00 	lea    0x94c7(%rip),%rax        # 192b0 <g_386>
    fde9:	48 89 85 20 f8 ff ff 	mov    %rax,-0x7e0(%rbp)
    fdf0:	48 8d 85 f0 f7 ff ff 	lea    -0x810(%rbp),%rax
    fdf7:	48 83 c0 20          	add    $0x20,%rax
    fdfb:	48 89 85 70 f6 ff ff 	mov    %rax,-0x990(%rbp)
    fe02:	48 c7 85 78 f6 ff ff 	movq   $0x0,-0x988(%rbp)
    fe09:	00 00 00 00 
    fe0d:	c7 85 34 f5 ff ff fe 	movl   $0xfffffffe,-0xacc(%rbp)
    fe14:	ff ff ff 
    fe17:	c6 85 d6 f4 ff ff de 	movb   $0xde,-0xb2a(%rbp)
    fe1e:	48 8d 05 13 92 00 00 	lea    0x9213(%rip),%rax        # 19038 <g_73+0x8>
    fe25:	48 89 85 80 f6 ff ff 	mov    %rax,-0x980(%rbp)
    fe2c:	48 8d 85 30 fe ff ff 	lea    -0x1d0(%rbp),%rax
    fe33:	48 83 c0 18          	add    $0x18,%rax
    fe37:	48 89 85 88 f6 ff ff 	mov    %rax,-0x978(%rbp)
    fe3e:	48 8d 85 e4 f4 ff ff 	lea    -0xb1c(%rbp),%rax
    fe45:	48 89 85 90 f6 ff ff 	mov    %rax,-0x970(%rbp)
    fe4c:	48 8d 85 90 f7 ff ff 	lea    -0x870(%rbp),%rax
    fe53:	48 83 c0 08          	add    $0x8,%rax
    fe57:	48 89 85 98 f6 ff ff 	mov    %rax,-0x968(%rbp)
    fe5e:	48 8d 85 e4 f4 ff ff 	lea    -0xb1c(%rbp),%rax
    fe65:	48 89 85 a0 f6 ff ff 	mov    %rax,-0x960(%rbp)
    fe6c:	48 8d 85 ec f4 ff ff 	lea    -0xb14(%rbp),%rax
    fe73:	48 89 85 a8 f6 ff ff 	mov    %rax,-0x958(%rbp)
    fe7a:	48 c7 85 b0 f6 ff ff 	movq   $0x0,-0x950(%rbp)
    fe81:	00 00 00 00 
    fe85:	48 8d 85 e4 f4 ff ff 	lea    -0xb1c(%rbp),%rax
    fe8c:	48 89 85 b8 f6 ff ff 	mov    %rax,-0x948(%rbp)
    fe93:	48 8d 05 9e 91 00 00 	lea    0x919e(%rip),%rax        # 19038 <g_73+0x8>
    fe9a:	48 89 85 c0 f6 ff ff 	mov    %rax,-0x940(%rbp)
    fea1:	48 c7 85 c8 f6 ff ff 	movq   $0x0,-0x938(%rbp)
    fea8:	00 00 00 00 
    feac:	48 8d 05 55 95 00 00 	lea    0x9555(%rip),%rax        # 19408 <g_984+0x88>
    feb3:	48 89 85 d0 f6 ff ff 	mov    %rax,-0x930(%rbp)
    feba:	48 8d 05 17 92 00 00 	lea    0x9217(%rip),%rax        # 190d8 <g_77+0x58>
    fec1:	48 89 85 d8 f6 ff ff 	mov    %rax,-0x928(%rbp)
    fec8:	48 c7 85 e0 f6 ff ff 	movq   $0x0,-0x920(%rbp)
    fecf:	00 00 00 00 
    fed3:	48 8d 85 e4 f4 ff ff 	lea    -0xb1c(%rbp),%rax
    feda:	48 89 85 e8 f6 ff ff 	mov    %rax,-0x918(%rbp)
    fee1:	48 8d 85 dc f4 ff ff 	lea    -0xb24(%rbp),%rax
    fee8:	48 89 85 f0 f6 ff ff 	mov    %rax,-0x910(%rbp)
    feef:	48 8d 85 90 f7 ff ff 	lea    -0x870(%rbp),%rax
    fef6:	48 83 c0 10          	add    $0x10,%rax
    fefa:	48 89 85 f8 f6 ff ff 	mov    %rax,-0x908(%rbp)
    ff01:	48 8d 05 7c 92 00 00 	lea    0x927c(%rip),%rax        # 19184 <g_77+0x104>
    ff08:	48 89 85 c0 fb ff ff 	mov    %rax,-0x440(%rbp)
    ff0f:	48 8d 85 30 fe ff ff 	lea    -0x1d0(%rbp),%rax
    ff16:	48 05 4c 01 00 00    	add    $0x14c,%rax
    ff1c:	48 89 85 c8 fb ff ff 	mov    %rax,-0x438(%rbp)
    ff23:	48 8d 05 2e 92 00 00 	lea    0x922e(%rip),%rax        # 19158 <g_77+0xd8>
    ff2a:	48 89 85 d0 fb ff ff 	mov    %rax,-0x430(%rbp)
    ff31:	48 8d 85 30 fe ff ff 	lea    -0x1d0(%rbp),%rax
    ff38:	48 05 4c 01 00 00    	add    $0x14c,%rax
    ff3e:	48 89 85 d8 fb ff ff 	mov    %rax,-0x428(%rbp)
    ff45:	48 8d 05 38 92 00 00 	lea    0x9238(%rip),%rax        # 19184 <g_77+0x104>
    ff4c:	48 89 85 e0 fb ff ff 	mov    %rax,-0x420(%rbp)
    ff53:	48 8d 05 de 90 00 00 	lea    0x90de(%rip),%rax        # 19038 <g_73+0x8>
    ff5a:	48 89 85 e8 fb ff ff 	mov    %rax,-0x418(%rbp)
    ff61:	48 8d 05 d0 90 00 00 	lea    0x90d0(%rip),%rax        # 19038 <g_73+0x8>
    ff68:	48 89 85 f0 fb ff ff 	mov    %rax,-0x410(%rbp)
    ff6f:	48 8d 05 0e 92 00 00 	lea    0x920e(%rip),%rax        # 19184 <g_77+0x104>
    ff76:	48 89 85 f8 fb ff ff 	mov    %rax,-0x408(%rbp)
    ff7d:	48 8d 85 30 fe ff ff 	lea    -0x1d0(%rbp),%rax
    ff84:	48 05 4c 01 00 00    	add    $0x14c,%rax
    ff8a:	48 89 85 00 fc ff ff 	mov    %rax,-0x400(%rbp)
    ff91:	48 8d 05 98 90 00 00 	lea    0x9098(%rip),%rax        # 19030 <g_73>
    ff98:	48 89 85 08 fc ff ff 	mov    %rax,-0x3f8(%rbp)
    ff9f:	48 8d 05 2e 91 00 00 	lea    0x912e(%rip),%rax        # 190d4 <g_77+0x54>
    ffa6:	48 89 85 10 fc ff ff 	mov    %rax,-0x3f0(%rbp)
    ffad:	48 8d 05 7c 90 00 00 	lea    0x907c(%rip),%rax        # 19030 <g_73>
    ffb4:	48 89 85 18 fc ff ff 	mov    %rax,-0x3e8(%rbp)
    ffbb:	48 8d 05 76 90 00 00 	lea    0x9076(%rip),%rax        # 19038 <g_73+0x8>
    ffc2:	48 89 85 20 fc ff ff 	mov    %rax,-0x3e0(%rbp)
    ffc9:	48 8d 05 88 91 00 00 	lea    0x9188(%rip),%rax        # 19158 <g_77+0xd8>
    ffd0:	48 89 85 28 fc ff ff 	mov    %rax,-0x3d8(%rbp)
    ffd7:	48 8d 05 7a 91 00 00 	lea    0x917a(%rip),%rax        # 19158 <g_77+0xd8>
    ffde:	48 89 85 30 fc ff ff 	mov    %rax,-0x3d0(%rbp)
    ffe5:	48 8d 05 4c 90 00 00 	lea    0x904c(%rip),%rax        # 19038 <g_73+0x8>
    ffec:	48 89 85 38 fc ff ff 	mov    %rax,-0x3c8(%rbp)
    fff3:	48 8d 05 36 90 00 00 	lea    0x9036(%rip),%rax        # 19030 <g_73>
    fffa:	48 89 85 40 fc ff ff 	mov    %rax,-0x3c0(%rbp)
   10001:	48 8d 05 cc 90 00 00 	lea    0x90cc(%rip),%rax        # 190d4 <g_77+0x54>
   10008:	48 89 85 48 fc ff ff 	mov    %rax,-0x3b8(%rbp)
   1000f:	48 8d 05 be 90 00 00 	lea    0x90be(%rip),%rax        # 190d4 <g_77+0x54>
   10016:	48 89 85 50 fc ff ff 	mov    %rax,-0x3b0(%rbp)
   1001d:	48 8d 05 0c 90 00 00 	lea    0x900c(%rip),%rax        # 19030 <g_73>
   10024:	48 89 85 58 fc ff ff 	mov    %rax,-0x3a8(%rbp)
   1002b:	48 8d 05 06 90 00 00 	lea    0x9006(%rip),%rax        # 19038 <g_73+0x8>
   10032:	48 89 85 60 fc ff ff 	mov    %rax,-0x3a0(%rbp)
   10039:	48 8d 05 18 91 00 00 	lea    0x9118(%rip),%rax        # 19158 <g_77+0xd8>
   10040:	48 89 85 68 fc ff ff 	mov    %rax,-0x398(%rbp)
   10047:	48 8d 05 0a 91 00 00 	lea    0x910a(%rip),%rax        # 19158 <g_77+0xd8>
   1004e:	48 89 85 70 fc ff ff 	mov    %rax,-0x390(%rbp)
   10055:	48 8d 05 dc 8f 00 00 	lea    0x8fdc(%rip),%rax        # 19038 <g_73+0x8>
   1005c:	48 89 85 78 fc ff ff 	mov    %rax,-0x388(%rbp)
   10063:	48 8d 05 c6 8f 00 00 	lea    0x8fc6(%rip),%rax        # 19030 <g_73>
   1006a:	48 89 85 80 fc ff ff 	mov    %rax,-0x380(%rbp)
   10071:	48 8d 05 5c 90 00 00 	lea    0x905c(%rip),%rax        # 190d4 <g_77+0x54>
   10078:	48 89 85 88 fc ff ff 	mov    %rax,-0x378(%rbp)
   1007f:	48 8d 05 aa 8f 00 00 	lea    0x8faa(%rip),%rax        # 19030 <g_73>
   10086:	48 89 85 90 fc ff ff 	mov    %rax,-0x370(%rbp)
   1008d:	48 8d 85 30 fe ff ff 	lea    -0x1d0(%rbp),%rax
   10094:	48 05 4c 01 00 00    	add    $0x14c,%rax
   1009a:	48 89 85 98 fc ff ff 	mov    %rax,-0x368(%rbp)
   100a1:	48 8d 05 dc 90 00 00 	lea    0x90dc(%rip),%rax        # 19184 <g_77+0x104>
   100a8:	48 89 85 a0 fc ff ff 	mov    %rax,-0x360(%rbp)
   100af:	48 8d 05 82 8f 00 00 	lea    0x8f82(%rip),%rax        # 19038 <g_73+0x8>
   100b6:	48 89 85 a8 fc ff ff 	mov    %rax,-0x358(%rbp)
   100bd:	48 8d 05 74 8f 00 00 	lea    0x8f74(%rip),%rax        # 19038 <g_73+0x8>
   100c4:	48 89 85 b0 fc ff ff 	mov    %rax,-0x350(%rbp)
   100cb:	48 8d 05 b2 90 00 00 	lea    0x90b2(%rip),%rax        # 19184 <g_77+0x104>
   100d2:	48 89 85 b8 fc ff ff 	mov    %rax,-0x348(%rbp)
   100d9:	48 8d 85 30 fe ff ff 	lea    -0x1d0(%rbp),%rax
   100e0:	48 05 4c 01 00 00    	add    $0x14c,%rax
   100e6:	48 89 85 c0 fc ff ff 	mov    %rax,-0x340(%rbp)
   100ed:	48 8d 05 64 90 00 00 	lea    0x9064(%rip),%rax        # 19158 <g_77+0xd8>
   100f4:	48 89 85 c8 fc ff ff 	mov    %rax,-0x338(%rbp)
   100fb:	48 8d 85 30 fe ff ff 	lea    -0x1d0(%rbp),%rax
   10102:	48 05 4c 01 00 00    	add    $0x14c,%rax
   10108:	48 89 85 d0 fc ff ff 	mov    %rax,-0x330(%rbp)
   1010f:	48 8d 05 6e 90 00 00 	lea    0x906e(%rip),%rax        # 19184 <g_77+0x104>
   10116:	48 89 85 d8 fc ff ff 	mov    %rax,-0x328(%rbp)
   1011d:	c7 85 fc f4 ff ff 00 	movl   $0x0,-0xb04(%rbp)
   10124:	00 00 00 
   10127:	eb 1e                	jmp    10147 <func_34+0xbcf>
   10129:	8b 85 fc f4 ff ff    	mov    -0xb04(%rbp),%eax
   1012f:	48 98                	cltq   
   10131:	48 8d 15 98 bf 00 00 	lea    0xbf98(%rip),%rdx        # 1c0d0 <g_427+0x50>
   10138:	48 89 94 c5 d0 f7 ff 	mov    %rdx,-0x830(%rbp,%rax,8)
   1013f:	ff 
   10140:	83 85 fc f4 ff ff 01 	addl   $0x1,-0xb04(%rbp)
   10147:	83 bd fc f4 ff ff 03 	cmpl   $0x3,-0xb04(%rbp)
   1014e:	7e d9                	jle    10129 <func_34+0xbb1>
   10150:	48 8b 05 61 c2 00 00 	mov    0xc261(%rip),%rax        # 1c3b8 <g_1678+0x58>
   10157:	48 89 85 60 f6 ff ff 	mov    %rax,-0x9a0(%rbp)
   1015e:	b9 01 00 00 00       	mov    $0x1,%ecx
   10163:	48 8b 05 7e c0 00 00 	mov    0xc07e(%rip),%rax        # 1c1e8 <g_589>
   1016a:	8b 10                	mov    (%rax),%edx
   1016c:	48 8b 05 75 c0 00 00 	mov    0xc075(%rip),%rax        # 1c1e8 <g_589>
   10173:	21 ca                	and    %ecx,%edx
   10175:	89 10                	mov    %edx,(%rax)
   10177:	c7 05 bf 90 00 00 00 	movl   $0x0,0x90bf(%rip)        # 19240 <g_97>
   1017e:	00 00 00 
   10181:	e9 e3 02 00 00       	jmpq   10469 <func_34+0xef1>
   10186:	48 8d 85 80 f8 ff ff 	lea    -0x780(%rbp),%rax
   1018d:	48 83 c0 40          	add    $0x40,%rax
   10191:	48 89 85 00 f7 ff ff 	mov    %rax,-0x900(%rbp)
   10198:	c7 85 38 f5 ff ff ec 	movl   $0xc94854ec,-0xac8(%rbp)
   1019f:	54 48 c9 
   101a2:	48 8d 05 c7 be 00 00 	lea    0xbec7(%rip),%rax        # 1c070 <g_428>
   101a9:	48 89 85 70 f5 ff ff 	mov    %rax,-0xa90(%rbp)
   101b0:	48 8d 85 70 f5 ff ff 	lea    -0xa90(%rbp),%rax
   101b7:	48 89 85 08 f7 ff ff 	mov    %rax,-0x8f8(%rbp)
   101be:	48 b8 e9 37 e0 cb 79 	movabs $0x85495679cbe037e9,%rax
   101c5:	56 49 85 
   101c8:	48 89 85 d0 f8 ff ff 	mov    %rax,-0x730(%rbp)
   101cf:	48 89 85 d8 f8 ff ff 	mov    %rax,-0x728(%rbp)
   101d6:	48 89 85 e0 f8 ff ff 	mov    %rax,-0x720(%rbp)
   101dd:	48 89 85 e8 f8 ff ff 	mov    %rax,-0x718(%rbp)
   101e4:	48 89 85 f0 f8 ff ff 	mov    %rax,-0x710(%rbp)
   101eb:	48 89 85 f8 f8 ff ff 	mov    %rax,-0x708(%rbp)
   101f2:	48 89 85 00 f9 ff ff 	mov    %rax,-0x700(%rbp)
   101f9:	48 89 85 08 f9 ff ff 	mov    %rax,-0x6f8(%rbp)
   10200:	48 89 85 10 f9 ff ff 	mov    %rax,-0x6f0(%rbp)
   10207:	48 89 85 18 f9 ff ff 	mov    %rax,-0x6e8(%rbp)
   1020e:	48 89 85 20 f9 ff ff 	mov    %rax,-0x6e0(%rbp)
   10215:	48 89 85 28 f9 ff ff 	mov    %rax,-0x6d8(%rbp)
   1021c:	48 8d 05 cd bf 00 00 	lea    0xbfcd(%rip),%rax        # 1c1f0 <g_758>
   10223:	48 89 85 10 f7 ff ff 	mov    %rax,-0x8f0(%rbp)
   1022a:	48 b8 59 48 75 32 79 	movabs $0xdce6c27932754859,%rax
   10231:	c2 e6 dc 
   10234:	48 89 85 18 f7 ff ff 	mov    %rax,-0x8e8(%rbp)
   1023b:	c7 85 3c f5 ff ff 01 	movl   $0x1,-0xac4(%rbp)
   10242:	00 00 00 
   10245:	48 8d 85 90 f7 ff ff 	lea    -0x870(%rbp),%rax
   1024c:	48 83 c0 10          	add    $0x10,%rax
   10250:	48 89 85 20 f7 ff ff 	mov    %rax,-0x8e0(%rbp)
   10257:	48 8d 85 ec f4 ff ff 	lea    -0xb14(%rbp),%rax
   1025e:	48 89 85 28 f7 ff ff 	mov    %rax,-0x8d8(%rbp)
   10265:	48 c7 85 30 f7 ff ff 	movq   $0x0,-0x8d0(%rbp)
   1026c:	00 00 00 00 
   10270:	48 8d 05 5d 8e 00 00 	lea    0x8e5d(%rip),%rax        # 190d4 <g_77+0x54>
   10277:	48 89 85 38 f7 ff ff 	mov    %rax,-0x8c8(%rbp)
   1027e:	48 8d 05 c3 d7 00 00 	lea    0xd7c3(%rip),%rax        # 1da48 <g_3>
   10285:	48 89 85 c0 fa ff ff 	mov    %rax,-0x540(%rbp)
   1028c:	48 c7 85 c8 fa ff ff 	movq   $0x0,-0x538(%rbp)
   10293:	00 00 00 00 
   10297:	48 c7 85 d0 fa ff ff 	movq   $0x0,-0x530(%rbp)
   1029e:	00 00 00 00 
   102a2:	48 c7 85 d8 fa ff ff 	movq   $0x0,-0x528(%rbp)
   102a9:	00 00 00 00 
   102ad:	48 c7 85 e0 fa ff ff 	movq   $0x0,-0x520(%rbp)
   102b4:	00 00 00 00 
   102b8:	48 c7 85 e8 fa ff ff 	movq   $0x0,-0x518(%rbp)
   102bf:	00 00 00 00 
   102c3:	48 c7 85 f0 fa ff ff 	movq   $0x0,-0x510(%rbp)
   102ca:	00 00 00 00 
   102ce:	48 c7 85 f8 fa ff ff 	movq   $0x0,-0x508(%rbp)
   102d5:	00 00 00 00 
   102d9:	48 8d 05 68 d7 00 00 	lea    0xd768(%rip),%rax        # 1da48 <g_3>
   102e0:	48 89 85 00 fb ff ff 	mov    %rax,-0x500(%rbp)
   102e7:	48 8d 05 5a d7 00 00 	lea    0xd75a(%rip),%rax        # 1da48 <g_3>
   102ee:	48 89 85 08 fb ff ff 	mov    %rax,-0x4f8(%rbp)
   102f5:	48 c7 85 10 fb ff ff 	movq   $0x0,-0x4f0(%rbp)
   102fc:	00 00 00 00 
   10300:	48 c7 85 18 fb ff ff 	movq   $0x0,-0x4e8(%rbp)
   10307:	00 00 00 00 
   1030b:	48 8d 05 2e 8e 00 00 	lea    0x8e2e(%rip),%rax        # 19140 <g_77+0xc0>
   10312:	48 89 85 20 fb ff ff 	mov    %rax,-0x4e0(%rbp)
   10319:	48 c7 85 28 fb ff ff 	movq   $0x0,-0x4d8(%rbp)
   10320:	00 00 00 00 
   10324:	48 8d 05 15 8e 00 00 	lea    0x8e15(%rip),%rax        # 19140 <g_77+0xc0>
   1032b:	48 89 85 30 fb ff ff 	mov    %rax,-0x4d0(%rbp)
   10332:	48 c7 85 38 fb ff ff 	movq   $0x0,-0x4c8(%rbp)
   10339:	00 00 00 00 
   1033d:	48 8d 05 fc 8d 00 00 	lea    0x8dfc(%rip),%rax        # 19140 <g_77+0xc0>
   10344:	48 89 85 40 fb ff ff 	mov    %rax,-0x4c0(%rbp)
   1034b:	48 c7 85 48 fb ff ff 	movq   $0x0,-0x4b8(%rbp)
   10352:	00 00 00 00 
   10356:	48 c7 85 50 fb ff ff 	movq   $0x0,-0x4b0(%rbp)
   1035d:	00 00 00 00 
   10361:	48 8d 05 d8 8d 00 00 	lea    0x8dd8(%rip),%rax        # 19140 <g_77+0xc0>
   10368:	48 89 85 58 fb ff ff 	mov    %rax,-0x4a8(%rbp)
   1036f:	48 8d 05 d2 d6 00 00 	lea    0xd6d2(%rip),%rax        # 1da48 <g_3>
   10376:	48 89 85 60 fb ff ff 	mov    %rax,-0x4a0(%rbp)
   1037d:	48 c7 85 68 fb ff ff 	movq   $0x0,-0x498(%rbp)
   10384:	00 00 00 00 
   10388:	48 c7 85 70 fb ff ff 	movq   $0x0,-0x490(%rbp)
   1038f:	00 00 00 00 
   10393:	48 c7 85 78 fb ff ff 	movq   $0x0,-0x488(%rbp)
   1039a:	00 00 00 00 
   1039e:	48 c7 85 80 fb ff ff 	movq   $0x0,-0x480(%rbp)
   103a5:	00 00 00 00 
   103a9:	48 c7 85 88 fb ff ff 	movq   $0x0,-0x478(%rbp)
   103b0:	00 00 00 00 
   103b4:	48 c7 85 90 fb ff ff 	movq   $0x0,-0x470(%rbp)
   103bb:	00 00 00 00 
   103bf:	48 c7 85 98 fb ff ff 	movq   $0x0,-0x468(%rbp)
   103c6:	00 00 00 00 
   103ca:	48 8d 05 77 d6 00 00 	lea    0xd677(%rip),%rax        # 1da48 <g_3>
   103d1:	48 89 85 a0 fb ff ff 	mov    %rax,-0x460(%rbp)
   103d8:	48 8d 05 69 d6 00 00 	lea    0xd669(%rip),%rax        # 1da48 <g_3>
   103df:	48 89 85 a8 fb ff ff 	mov    %rax,-0x458(%rbp)
   103e6:	48 c7 85 b0 fb ff ff 	movq   $0x0,-0x450(%rbp)
   103ed:	00 00 00 00 
   103f1:	48 c7 85 b8 fb ff ff 	movq   $0x0,-0x448(%rbp)
   103f8:	00 00 00 00 
   103fc:	c7 85 00 f5 ff ff 00 	movl   $0x0,-0xb00(%rbp)
   10403:	00 00 00 
   10406:	eb 1b                	jmp    10423 <func_34+0xeab>
   10408:	8b 85 00 f5 ff ff    	mov    -0xb00(%rbp),%eax
   1040e:	48 98                	cltq   
   10410:	48 c7 84 c5 80 f8 ff 	movq   $0x0,-0x780(%rbp,%rax,8)
   10417:	ff 00 00 00 00 
   1041c:	83 85 00 f5 ff ff 01 	addl   $0x1,-0xb00(%rbp)
   10423:	83 bd 00 f5 ff ff 09 	cmpl   $0x9,-0xb00(%rbp)
   1042a:	7e dc                	jle    10408 <func_34+0xe90>
   1042c:	c7 85 00 f5 ff ff 00 	movl   $0x0,-0xb00(%rbp)
   10433:	00 00 00 
   10436:	eb 19                	jmp    10451 <func_34+0xed9>
   10438:	8b 85 00 f5 ff ff    	mov    -0xb00(%rbp),%eax
   1043e:	48 98                	cltq   
   10440:	66 c7 84 45 82 f7 ff 	movw   $0xffff,-0x87e(%rbp,%rax,2)
   10447:	ff ff ff 
   1044a:	83 85 00 f5 ff ff 01 	addl   $0x1,-0xb00(%rbp)
   10451:	83 bd 00 f5 ff ff 06 	cmpl   $0x6,-0xb00(%rbp)
   10458:	7e de                	jle    10438 <func_34+0xec0>
   1045a:	8b 05 e0 8d 00 00    	mov    0x8de0(%rip),%eax        # 19240 <g_97>
   10460:	83 c0 01             	add    $0x1,%eax
   10463:	89 05 d7 8d 00 00    	mov    %eax,0x8dd7(%rip)        # 19240 <g_97>
   10469:	8b 05 d1 8d 00 00    	mov    0x8dd1(%rip),%eax        # 19240 <g_97>
   1046f:	85 c0                	test   %eax,%eax
   10471:	0f 84 0f fd ff ff    	je     10186 <func_34+0xc0e>
   10477:	48 8b 05 42 90 00 00 	mov    0x9042(%rip),%rax        # 194c0 <g_1878>
   1047e:	48 83 c0 01          	add    $0x1,%rax
   10482:	48 89 05 37 90 00 00 	mov    %rax,0x9037(%rip)        # 194c0 <g_1878>
   10489:	e9 37 02 00 00       	jmpq   106c5 <func_34+0x114d>
   1048e:	48 c7 85 68 f5 ff ff 	movq   $0x0,-0xa98(%rbp)
   10495:	00 00 00 00 
   10499:	48 8d 85 d0 f8 ff ff 	lea    -0x730(%rbp),%rax
   104a0:	48 83 c0 08          	add    $0x8,%rax
   104a4:	48 89 85 20 f6 ff ff 	mov    %rax,-0x9e0(%rbp)
   104ab:	c7 85 24 f5 ff ff fd 	movl   $0xfffffffd,-0xadc(%rbp)
   104b2:	ff ff ff 
   104b5:	48 8d 05 88 8d 00 00 	lea    0x8d88(%rip),%rax        # 19244 <g_101>
   104bc:	48 89 85 30 fe ff ff 	mov    %rax,-0x1d0(%rbp)
   104c3:	48 8d 05 e8 8d 00 00 	lea    0x8de8(%rip),%rax        # 192b2 <g_403>
   104ca:	48 89 85 38 fe ff ff 	mov    %rax,-0x1c8(%rbp)
   104d1:	48 8d 05 6c 8d 00 00 	lea    0x8d6c(%rip),%rax        # 19244 <g_101>
   104d8:	48 89 85 40 fe ff ff 	mov    %rax,-0x1c0(%rbp)
   104df:	48 8d 05 5e 8d 00 00 	lea    0x8d5e(%rip),%rax        # 19244 <g_101>
   104e6:	48 89 85 48 fe ff ff 	mov    %rax,-0x1b8(%rbp)
   104ed:	48 8d 05 50 8d 00 00 	lea    0x8d50(%rip),%rax        # 19244 <g_101>
   104f4:	48 89 85 50 fe ff ff 	mov    %rax,-0x1b0(%rbp)
   104fb:	48 8d 05 42 8d 00 00 	lea    0x8d42(%rip),%rax        # 19244 <g_101>
   10502:	48 89 85 58 fe ff ff 	mov    %rax,-0x1a8(%rbp)
   10509:	48 c7 85 60 fe ff ff 	movq   $0x0,-0x1a0(%rbp)
   10510:	00 00 00 00 
   10514:	48 8d 05 97 8d 00 00 	lea    0x8d97(%rip),%rax        # 192b2 <g_403>
   1051b:	48 89 85 68 fe ff ff 	mov    %rax,-0x198(%rbp)
   10522:	48 8d 05 1b 8d 00 00 	lea    0x8d1b(%rip),%rax        # 19244 <g_101>
   10529:	48 89 85 70 fe ff ff 	mov    %rax,-0x190(%rbp)
   10530:	48 8d 05 0d 8d 00 00 	lea    0x8d0d(%rip),%rax        # 19244 <g_101>
   10537:	48 89 85 78 fe ff ff 	mov    %rax,-0x188(%rbp)
   1053e:	c7 85 28 f5 ff ff 16 	movl   $0x7577de16,-0xad8(%rbp)
   10545:	de 77 75 
   10548:	48 8d 05 49 d5 00 00 	lea    0xd549(%rip),%rax        # 1da98 <g_429>
   1054f:	48 89 85 28 f6 ff ff 	mov    %rax,-0x9d8(%rbp)
   10556:	48 b8 5f 30 16 9e 22 	movabs $0xd7ed12229e16305f,%rax
   1055d:	12 ed d7 
   10560:	48 89 85 30 f6 ff ff 	mov    %rax,-0x9d0(%rbp)
   10567:	c7 85 30 f9 ff ff 90 	movl   $0x16eed190,-0x6d0(%rbp)
   1056e:	d1 ee 16 
   10571:	c7 85 34 f9 ff ff 0a 	movl   $0xf0eb210a,-0x6cc(%rbp)
   10578:	21 eb f0 
   1057b:	c7 85 38 f9 ff ff 90 	movl   $0x16eed190,-0x6c8(%rbp)
   10582:	d1 ee 16 
   10585:	c7 85 3c f9 ff ff 0a 	movl   $0xf0eb210a,-0x6c4(%rbp)
   1058c:	21 eb f0 
   1058f:	c7 85 40 f9 ff ff 90 	movl   $0x16eed190,-0x6c0(%rbp)
   10596:	d1 ee 16 
   10599:	c7 85 44 f9 ff ff 0a 	movl   $0xf0eb210a,-0x6bc(%rbp)
   105a0:	21 eb f0 
   105a3:	c7 85 48 f9 ff ff 90 	movl   $0x16eed190,-0x6b8(%rbp)
   105aa:	d1 ee 16 
   105ad:	c7 85 4c f9 ff ff 0a 	movl   $0xf0eb210a,-0x6b4(%rbp)
   105b4:	21 eb f0 
   105b7:	c6 85 d5 f4 ff ff ff 	movb   $0xff,-0xb2b(%rbp)
   105be:	48 8d 85 dc f4 ff ff 	lea    -0xb24(%rbp),%rax
   105c5:	48 89 85 38 f6 ff ff 	mov    %rax,-0x9c8(%rbp)
   105cc:	48 c7 85 70 f5 ff ff 	movq   $0x0,-0xa90(%rbp)
   105d3:	00 00 00 00 
   105d7:	48 8d 85 70 f5 ff ff 	lea    -0xa90(%rbp),%rax
   105de:	48 89 85 40 f6 ff ff 	mov    %rax,-0x9c0(%rbp)
   105e5:	48 8d 85 c0 f9 ff ff 	lea    -0x640(%rbp),%rax
   105ec:	48 83 c0 18          	add    $0x18,%rax
   105f0:	48 89 85 48 f6 ff ff 	mov    %rax,-0x9b8(%rbp)
   105f7:	c7 85 2c f5 ff ff 01 	movl   $0x1,-0xad4(%rbp)
   105fe:	00 00 00 
   10601:	48 c7 85 50 f6 ff ff 	movq   $0x1,-0x9b0(%rbp)
   10608:	01 00 00 00 
   1060c:	48 c7 85 c0 fa ff ff 	movq   $0x0,-0x540(%rbp)
   10613:	00 00 00 00 
   10617:	48 c7 85 c8 fa ff ff 	movq   $0x0,-0x538(%rbp)
   1061e:	00 00 00 00 
   10622:	48 c7 85 d0 fa ff ff 	movq   $0x0,-0x530(%rbp)
   10629:	00 00 00 00 
   1062d:	48 c7 85 d8 fa ff ff 	movq   $0x0,-0x528(%rbp)
   10634:	00 00 00 00 
   10638:	48 c7 85 e0 fa ff ff 	movq   $0x0,-0x520(%rbp)
   1063f:	00 00 00 00 
   10643:	48 c7 85 58 f6 ff ff 	movq   $0x0,-0x9a8(%rbp)
   1064a:	00 00 00 00 
   1064e:	c7 85 04 f5 ff ff 00 	movl   $0x0,-0xafc(%rbp)
   10655:	00 00 00 
   10658:	eb 1e                	jmp    10678 <func_34+0x1100>
   1065a:	8b 85 04 f5 ff ff    	mov    -0xafc(%rbp),%eax
   10660:	48 98                	cltq   
   10662:	48 8d 95 68 f5 ff ff 	lea    -0xa98(%rbp),%rdx
   10669:	48 89 94 c5 d0 f8 ff 	mov    %rdx,-0x730(%rbp,%rax,8)
   10670:	ff 
   10671:	83 85 04 f5 ff ff 01 	addl   $0x1,-0xafc(%rbp)
   10678:	83 bd 04 f5 ff ff 01 	cmpl   $0x1,-0xafc(%rbp)
   1067f:	7e d9                	jle    1065a <func_34+0x10e2>
   10681:	c7 85 04 f5 ff ff 00 	movl   $0x0,-0xafc(%rbp)
   10688:	00 00 00 
   1068b:	eb 1e                	jmp    106ab <func_34+0x1133>
   1068d:	8b 85 04 f5 ff ff    	mov    -0xafc(%rbp),%eax
   10693:	48 98                	cltq   
   10695:	48 8d 15 dc ba 00 00 	lea    0xbadc(%rip),%rdx        # 1c178 <g_426+0x8>
   1069c:	48 89 94 c5 c0 fb ff 	mov    %rdx,-0x440(%rbp,%rax,8)
   106a3:	ff 
   106a4:	83 85 04 f5 ff ff 01 	addl   $0x1,-0xafc(%rbp)
   106ab:	83 bd 04 f5 ff ff 08 	cmpl   $0x8,-0xafc(%rbp)
   106b2:	7e d9                	jle    1068d <func_34+0x1115>
   106b4:	48 8b 05 95 ca 00 00 	mov    0xca95(%rip),%rax        # 1d150 <g_1882>
   106bb:	48 8b 95 88 f5 ff ff 	mov    -0xa78(%rbp),%rdx
   106c2:	48 89 10             	mov    %rdx,(%rax)
   106c5:	48 8b 85 80 f5 ff ff 	mov    -0xa80(%rbp),%rax
   106cc:	8b 00                	mov    (%rax),%eax
   106ce:	98                   	cwtl   
   106cf:	be 07 00 00 00       	mov    $0x7,%esi
   106d4:	89 c7                	mov    %eax,%edi
   106d6:	e8 88 7e ff ff       	callq  8563 <safe_rshift_func_int16_t_s_u>
   106db:	66 85 c0             	test   %ax,%ax
   106de:	0f 84 b2 01 00 00    	je     10896 <func_34+0x131e>
   106e4:	48 8d 05 49 89 00 00 	lea    0x8949(%rip),%rax        # 19034 <g_73+0x4>
   106eb:	48 89 85 40 f7 ff ff 	mov    %rax,-0x8c0(%rbp)
   106f2:	c7 85 70 f5 ff ff 00 	movl   $0x0,-0xa90(%rbp)
   106f9:	00 00 00 
   106fc:	48 8d 05 d1 89 00 00 	lea    0x89d1(%rip),%rax        # 190d4 <g_77+0x54>
   10703:	48 89 85 48 f7 ff ff 	mov    %rax,-0x8b8(%rbp)
   1070a:	48 8b 85 e0 f5 ff ff 	mov    -0xa20(%rbp),%rax
   10711:	48 8b 95 40 f7 ff ff 	mov    -0x8c0(%rbp),%rdx
   10718:	48 89 10             	mov    %rdx,(%rax)
   1071b:	66 c7 05 4e 8d 00 00 	movw   $0x0,0x8d4e(%rip)        # 19472 <g_1470>
   10722:	00 00 
   10724:	e9 3c 01 00 00       	jmpq   10865 <func_34+0x12ed>
   10729:	48 8d 05 08 89 00 00 	lea    0x8908(%rip),%rax        # 19038 <g_73+0x8>
   10730:	48 89 85 50 f7 ff ff 	mov    %rax,-0x8b0(%rbp)
   10737:	48 8d 85 e0 f4 ff ff 	lea    -0xb20(%rbp),%rax
   1073e:	48 89 85 58 f7 ff ff 	mov    %rax,-0x8a8(%rbp)
   10745:	48 8d 85 e0 fc ff ff 	lea    -0x320(%rbp),%rax
   1074c:	48 05 88 00 00 00    	add    $0x88,%rax
   10752:	48 89 85 60 f7 ff ff 	mov    %rax,-0x8a0(%rbp)
   10759:	48 8d 05 5c 8c 00 00 	lea    0x8c5c(%rip),%rax        # 193bc <g_984+0x3c>
   10760:	48 89 85 30 fe ff ff 	mov    %rax,-0x1d0(%rbp)
   10767:	48 c7 85 38 fe ff ff 	movq   $0x0,-0x1c8(%rbp)
   1076e:	00 00 00 00 
   10772:	48 8d 05 43 8c 00 00 	lea    0x8c43(%rip),%rax        # 193bc <g_984+0x3c>
   10779:	48 89 85 40 fe ff ff 	mov    %rax,-0x1c0(%rbp)
   10780:	48 c7 85 48 fe ff ff 	movq   $0x0,-0x1b8(%rbp)
   10787:	00 00 00 00 
   1078b:	48 8d 05 2a 8c 00 00 	lea    0x8c2a(%rip),%rax        # 193bc <g_984+0x3c>
   10792:	48 89 85 50 fe ff ff 	mov    %rax,-0x1b0(%rbp)
   10799:	48 8d 05 1c 8c 00 00 	lea    0x8c1c(%rip),%rax        # 193bc <g_984+0x3c>
   107a0:	48 89 85 58 fe ff ff 	mov    %rax,-0x1a8(%rbp)
   107a7:	48 c7 85 60 fe ff ff 	movq   $0x0,-0x1a0(%rbp)
   107ae:	00 00 00 00 
   107b2:	48 8d 05 03 8c 00 00 	lea    0x8c03(%rip),%rax        # 193bc <g_984+0x3c>
   107b9:	48 89 85 68 fe ff ff 	mov    %rax,-0x198(%rbp)
   107c0:	48 c7 85 70 fe ff ff 	movq   $0x0,-0x190(%rbp)
   107c7:	00 00 00 00 
   107cb:	48 8d 05 ea 8b 00 00 	lea    0x8bea(%rip),%rax        # 193bc <g_984+0x3c>
   107d2:	48 89 85 78 fe ff ff 	mov    %rax,-0x188(%rbp)
   107d9:	48 8d 05 c0 c9 00 00 	lea    0xc9c0(%rip),%rax        # 1d1a0 <g_2289>
   107e0:	48 89 85 68 f7 ff ff 	mov    %rax,-0x898(%rbp)
   107e7:	80 ad d4 f4 ff ff 01 	subb   $0x1,-0xb2c(%rbp)
   107ee:	48 8b 85 68 f7 ff ff 	mov    -0x898(%rbp),%rax
   107f5:	48 8d 95 70 f5 ff ff 	lea    -0xa90(%rbp),%rdx
   107fc:	48 89 10             	mov    %rdx,(%rax)
   107ff:	48 8b 85 68 f7 ff ff 	mov    -0x898(%rbp),%rax
   10806:	48 8b 00             	mov    (%rax),%rax
   10809:	48 89 85 48 f7 ff ff 	mov    %rax,-0x8b8(%rbp)
   10810:	48 c7 05 4d 8c 00 00 	movq   $0x4,0x8c4d(%rip)        # 19468 <g_1201>
   10817:	04 00 00 00 
   1081b:	90                   	nop
   1081c:	48 8b 05 45 8c 00 00 	mov    0x8c45(%rip),%rax        # 19468 <g_1201>
   10823:	48 85 c0             	test   %rax,%rax
   10826:	7e 2c                	jle    10854 <func_34+0x12dc>
   10828:	48 8b 85 80 f5 ff ff 	mov    -0xa80(%rbp),%rax
   1082f:	8b 10                	mov    (%rax),%edx
   10831:	48 8b 85 c8 f4 ff ff 	mov    -0xb38(%rbp),%rax
   10838:	8b 00                	mov    (%rax),%eax
   1083a:	31 c2                	xor    %eax,%edx
   1083c:	48 8b 85 80 f5 ff ff 	mov    -0xa80(%rbp),%rax
   10843:	89 10                	mov    %edx,(%rax)
   10845:	0f b7 05 3c 8d 00 00 	movzwl 0x8d3c(%rip),%eax        # 19588 <g_2308>
   1084c:	0f b7 c0             	movzwl %ax,%eax
   1084f:	e9 fe 01 00 00       	jmpq   10a52 <func_34+0x14da>
   10854:	0f b7 05 17 8c 00 00 	movzwl 0x8c17(%rip),%eax        # 19472 <g_1470>
   1085b:	83 c0 01             	add    $0x1,%eax
   1085e:	66 89 05 0d 8c 00 00 	mov    %ax,0x8c0d(%rip)        # 19472 <g_1470>
   10865:	0f b7 05 06 8c 00 00 	movzwl 0x8c06(%rip),%eax        # 19472 <g_1470>
   1086c:	66 83 f8 04          	cmp    $0x4,%ax
   10870:	0f 86 b3 fe ff ff    	jbe    10729 <func_34+0x11b1>
   10876:	48 8b 85 e0 f5 ff ff 	mov    -0xa20(%rbp),%rax
   1087d:	48 8b 10             	mov    (%rax),%rdx
   10880:	48 8b 85 e0 f5 ff ff 	mov    -0xa20(%rbp),%rax
   10887:	48 89 10             	mov    %rdx,(%rax)
   1088a:	0f b7 85 bc f4 ff ff 	movzwl -0xb44(%rbp),%eax
   10891:	e9 bc 01 00 00       	jmpq   10a52 <func_34+0x14da>
   10896:	c6 85 d7 f4 ff ff ed 	movb   $0xed,-0xb29(%rbp)
   1089d:	c7 85 40 f5 ff ff 49 	movl   $0x64128449,-0xac0(%rbp)
   108a4:	84 12 64 
   108a7:	c7 85 44 f5 ff ff e0 	movl   $0x3ba64ce0,-0xabc(%rbp)
   108ae:	4c a6 3b 
   108b1:	48 8b 85 e0 f5 ff ff 	mov    -0xa20(%rbp),%rax
   108b8:	48 8b 00             	mov    (%rax),%rax
   108bb:	8b 00                	mov    (%rax),%eax
   108bd:	0f be d8             	movsbl %al,%ebx
   108c0:	48 8b 85 e0 f5 ff ff 	mov    -0xa20(%rbp),%rax
   108c7:	48 8b 00             	mov    (%rax),%rax
   108ca:	44 8b 20             	mov    (%rax),%r12d
   108cd:	be 06 00 00 00       	mov    $0x6,%esi
   108d2:	bf 03 00 00 00       	mov    $0x3,%edi
   108d7:	e8 29 83 ff ff       	callq  8c05 <safe_lshift_func_uint8_t_u_s>
   108dc:	0f b6 c0             	movzbl %al,%eax
   108df:	41 39 c4             	cmp    %eax,%r12d
   108e2:	0f 9c c0             	setl   %al
   108e5:	0f b6 d0             	movzbl %al,%edx
   108e8:	66 83 85 bc f4 ff ff 	addw   $0x1,-0xb44(%rbp)
   108ef:	01 
   108f0:	0f b7 85 bc f4 ff ff 	movzwl -0xb44(%rbp),%eax
   108f7:	39 c2                	cmp    %eax,%edx
   108f9:	0f 9f c0             	setg   %al
   108fc:	44 0f b6 f0          	movzbl %al,%r14d
   10900:	44 0f b6 a5 d7 f4 ff 	movzbl -0xb29(%rbp),%r12d
   10907:	ff 
   10908:	48 8b 05 e1 b8 00 00 	mov    0xb8e1(%rip),%rax        # 1c1f0 <g_758>
   1090f:	0f b7 00             	movzwl (%rax),%eax
   10912:	44 0f b7 e8          	movzwl %ax,%r13d
   10916:	83 bd 20 f5 ff ff 00 	cmpl   $0x0,-0xae0(%rbp)
   1091d:	74 27                	je     10946 <func_34+0x13ce>
   1091f:	48 8b 85 80 f5 ff ff 	mov    -0xa80(%rbp),%rax
   10926:	8b 00                	mov    (%rax),%eax
   10928:	3d d9 00 00 00       	cmp    $0xd9,%eax
   1092d:	0f 95 c0             	setne  %al
   10930:	0f b6 c0             	movzbl %al,%eax
   10933:	be ff 00 00 00       	mov    $0xff,%esi
   10938:	89 c7                	mov    %eax,%edi
   1093a:	e8 6f 82 ff ff       	callq  8bae <safe_mod_func_uint8_t_u_u>
   1093f:	ba 01 00 00 00       	mov    $0x1,%edx
   10944:	eb 05                	jmp    1094b <func_34+0x13d3>
   10946:	ba 00 00 00 00       	mov    $0x0,%edx
   1094b:	0f b6 85 d7 f4 ff ff 	movzbl -0xb29(%rbp),%eax
   10952:	31 d0                	xor    %edx,%eax
   10954:	89 85 40 f5 ff ff    	mov    %eax,-0xac0(%rbp)
   1095a:	8b 85 40 f5 ff ff    	mov    -0xac0(%rbp),%eax
   10960:	0f b7 c0             	movzwl %ax,%eax
   10963:	44 89 ee             	mov    %r13d,%esi
   10966:	89 c7                	mov    %eax,%edi
   10968:	e8 ef 83 ff ff       	callq  8d5c <safe_mod_func_uint16_t_u_u>
   1096d:	0f b7 d0             	movzwl %ax,%edx
   10970:	0f b6 85 d7 f4 ff ff 	movzbl -0xb29(%rbp),%eax
   10977:	89 d6                	mov    %edx,%esi
   10979:	89 c7                	mov    %eax,%edi
   1097b:	e8 3e 84 ff ff       	callq  8dbe <safe_lshift_func_uint16_t_u_s>
   10980:	0f b7 d0             	movzwl %ax,%edx
   10983:	48 8b 85 08 f6 ff ff 	mov    -0x9f8(%rbp),%rax
   1098a:	8b 00                	mov    (%rax),%eax
   1098c:	39 c2                	cmp    %eax,%edx
   1098e:	0f 9c c0             	setl   %al
   10991:	0f b6 d0             	movzbl %al,%edx
   10994:	48 8b 85 e0 f5 ff ff 	mov    -0xa20(%rbp),%rax
   1099b:	48 8b 00             	mov    (%rax),%rax
   1099e:	8b 00                	mov    (%rax),%eax
   109a0:	39 c2                	cmp    %eax,%edx
   109a2:	74 07                	je     109ab <func_34+0x1433>
   109a4:	b8 01 00 00 00       	mov    $0x1,%eax
   109a9:	eb 05                	jmp    109b0 <func_34+0x1438>
   109ab:	b8 00 00 00 00       	mov    $0x0,%eax
   109b0:	0f be d0             	movsbl %al,%edx
   109b3:	0f b6 85 d7 f4 ff ff 	movzbl -0xb29(%rbp),%eax
   109ba:	0f be c0             	movsbl %al,%eax
   109bd:	89 d6                	mov    %edx,%esi
   109bf:	89 c7                	mov    %eax,%edi
   109c1:	e8 6b 78 ff ff       	callq  8231 <safe_mod_func_int8_t_s_s>
   109c6:	48 8b 85 48 f5 ff ff 	mov    -0xab8(%rbp),%rax
   109cd:	48 8b 00             	mov    (%rax),%rax
   109d0:	48 8b 00             	mov    (%rax),%rax
   109d3:	c7 00 01 00 00 00    	movl   $0x1,(%rax)
   109d9:	8b 00                	mov    (%rax),%eax
   109db:	89 85 44 f5 ff ff    	mov    %eax,-0xabc(%rbp)
   109e1:	48 8b 85 c8 f4 ff ff 	mov    -0xb38(%rbp),%rax
   109e8:	8b 00                	mov    (%rax),%eax
   109ea:	85 c0                	test   %eax,%eax
   109ec:	be 02 00 00 00       	mov    $0x2,%esi
   109f1:	bf 01 00 00 00       	mov    $0x1,%edi
   109f6:	e8 0a 82 ff ff       	callq  8c05 <safe_lshift_func_uint8_t_u_s>
   109fb:	44 89 e6             	mov    %r12d,%esi
   109fe:	bf 63 57 00 00       	mov    $0x5763,%edi
   10a03:	e8 54 83 ff ff       	callq  8d5c <safe_mod_func_uint16_t_u_u>
   10a08:	0f b7 c0             	movzwl %ax,%eax
   10a0b:	41 39 c6             	cmp    %eax,%r14d
   10a0e:	0f 94 c0             	sete   %al
   10a11:	0f b6 c0             	movzbl %al,%eax
   10a14:	89 de                	mov    %ebx,%esi
   10a16:	89 c7                	mov    %eax,%edi
   10a18:	e8 d5 77 ff ff       	callq  81f2 <safe_sub_func_int8_t_s_s>
   10a1d:	89 c2                	mov    %eax,%edx
   10a1f:	48 8b 05 92 c7 00 00 	mov    0xc792(%rip),%rax        # 1d1b8 <g_2338>
   10a26:	8b 08                	mov    (%rax),%ecx
   10a28:	0f be d2             	movsbl %dl,%edx
   10a2b:	21 ca                	and    %ecx,%edx
   10a2d:	89 10                	mov    %edx,(%rax)
   10a2f:	48 8b 15 b2 b7 00 00 	mov    0xb7b2(%rip),%rdx        # 1c1e8 <g_589>
   10a36:	48 8b 05 5b c7 00 00 	mov    0xc75b(%rip),%rax        # 1d198 <g_2180>
   10a3d:	48 8b 00             	mov    (%rax),%rax
   10a40:	8b 12                	mov    (%rdx),%edx
   10a42:	89 10                	mov    %edx,(%rax)
   10a44:	48 8b 85 e0 f5 ff ff 	mov    -0xa20(%rbp),%rax
   10a4b:	48 8b 00             	mov    (%rax),%rax
   10a4e:	8b 00                	mov    (%rax),%eax
   10a50:	48 98                	cltq   
   10a52:	48 8b 5d c8          	mov    -0x38(%rbp),%rbx
   10a56:	64 48 33 1c 25 28 00 	xor    %fs:0x28,%rbx
   10a5d:	00 00 
   10a5f:	74 05                	je     10a66 <func_34+0x14ee>
   10a61:	e8 0a 76 ff ff       	callq  8070 <__stack_chk_fail@plt>
   10a66:	48 81 c4 28 0b 00 00 	add    $0xb28,%rsp
   10a6d:	5b                   	pop    %rbx
   10a6e:	41 5c                	pop    %r12
   10a70:	41 5d                	pop    %r13
   10a72:	41 5e                	pop    %r14
   10a74:	41 5f                	pop    %r15
   10a76:	5d                   	pop    %rbp
   10a77:	c3                   	retq   

0000000000010a78 <func_50>:
   10a78:	f3 0f 1e fa          	endbr64 
   10a7c:	55                   	push   %rbp
   10a7d:	48 89 e5             	mov    %rsp,%rbp
   10a80:	48 81 ec 50 02 00 00 	sub    $0x250,%rsp
   10a87:	48 89 bd c8 fd ff ff 	mov    %rdi,-0x238(%rbp)
   10a8e:	48 89 b5 c0 fd ff ff 	mov    %rsi,-0x240(%rbp)
   10a95:	89 d0                	mov    %edx,%eax
   10a97:	88 85 bc fd ff ff    	mov    %al,-0x244(%rbp)
   10a9d:	64 48 8b 04 25 28 00 	mov    %fs:0x28,%rax
   10aa4:	00 00 
   10aa6:	48 89 45 f8          	mov    %rax,-0x8(%rbp)
   10aaa:	31 c0                	xor    %eax,%eax
   10aac:	c7 85 a0 fe ff ff 73 	movl   $0x57bcd073,-0x160(%rbp)
   10ab3:	d0 bc 57 
   10ab6:	c7 85 a4 fe ff ff c8 	movl   $0xa0a7fac8,-0x15c(%rbp)
   10abd:	fa a7 a0 
   10ac0:	c7 85 a8 fe ff ff 73 	movl   $0x57bcd073,-0x158(%rbp)
   10ac7:	d0 bc 57 
   10aca:	c7 85 ac fe ff ff 73 	movl   $0x57bcd073,-0x154(%rbp)
   10ad1:	d0 bc 57 
   10ad4:	c7 85 b0 fe ff ff c8 	movl   $0xa0a7fac8,-0x150(%rbp)
   10adb:	fa a7 a0 
   10ade:	c7 85 b4 fe ff ff 73 	movl   $0x57bcd073,-0x14c(%rbp)
   10ae5:	d0 bc 57 
   10ae8:	c7 85 b8 fe ff ff 73 	movl   $0x57bcd073,-0x148(%rbp)
   10aef:	d0 bc 57 
   10af2:	c7 85 bc fe ff ff c8 	movl   $0xa0a7fac8,-0x144(%rbp)
   10af9:	fa a7 a0 
   10afc:	48 8d 05 41 87 00 00 	lea    0x8741(%rip),%rax        # 19244 <g_101>
   10b03:	48 89 85 28 fe ff ff 	mov    %rax,-0x1d8(%rbp)
   10b0a:	48 c7 85 30 fe ff ff 	movq   $0x0,-0x1d0(%rbp)
   10b11:	00 00 00 00 
   10b15:	48 8d 05 2c 87 00 00 	lea    0x872c(%rip),%rax        # 19248 <g_113>
   10b1c:	48 89 85 e8 fd ff ff 	mov    %rax,-0x218(%rbp)
   10b23:	48 8d 85 e8 fd ff ff 	lea    -0x218(%rbp),%rax
   10b2a:	48 89 85 c0 fe ff ff 	mov    %rax,-0x140(%rbp)
   10b31:	48 8d 85 e8 fd ff ff 	lea    -0x218(%rbp),%rax
   10b38:	48 89 85 c8 fe ff ff 	mov    %rax,-0x138(%rbp)
   10b3f:	48 8d 85 e8 fd ff ff 	lea    -0x218(%rbp),%rax
   10b46:	48 89 85 d0 fe ff ff 	mov    %rax,-0x130(%rbp)
   10b4d:	48 8d 85 e8 fd ff ff 	lea    -0x218(%rbp),%rax
   10b54:	48 89 85 d8 fe ff ff 	mov    %rax,-0x128(%rbp)
   10b5b:	48 8d 85 e8 fd ff ff 	lea    -0x218(%rbp),%rax
   10b62:	48 89 85 e0 fe ff ff 	mov    %rax,-0x120(%rbp)
   10b69:	48 8d 85 e8 fd ff ff 	lea    -0x218(%rbp),%rax
   10b70:	48 89 85 e8 fe ff ff 	mov    %rax,-0x118(%rbp)
   10b77:	48 8d 85 e8 fd ff ff 	lea    -0x218(%rbp),%rax
   10b7e:	48 89 85 f0 fe ff ff 	mov    %rax,-0x110(%rbp)
   10b85:	48 8d 85 e8 fd ff ff 	lea    -0x218(%rbp),%rax
   10b8c:	48 89 85 f8 fe ff ff 	mov    %rax,-0x108(%rbp)
   10b93:	48 8d 85 e8 fd ff ff 	lea    -0x218(%rbp),%rax
   10b9a:	48 89 85 00 ff ff ff 	mov    %rax,-0x100(%rbp)
   10ba1:	48 8d 85 e8 fd ff ff 	lea    -0x218(%rbp),%rax
   10ba8:	48 89 85 08 ff ff ff 	mov    %rax,-0xf8(%rbp)
   10baf:	48 8d 05 1e 85 00 00 	lea    0x851e(%rip),%rax        # 190d4 <g_77+0x54>
   10bb6:	48 89 85 38 fe ff ff 	mov    %rax,-0x1c8(%rbp)
   10bbd:	48 8d 05 ec 86 00 00 	lea    0x86ec(%rip),%rax        # 192b0 <g_386>
   10bc4:	48 89 85 40 fe ff ff 	mov    %rax,-0x1c0(%rbp)
   10bcb:	48 8d 05 fe b4 00 00 	lea    0xb4fe(%rip),%rax        # 1c0d0 <g_427+0x50>
   10bd2:	48 89 85 48 fe ff ff 	mov    %rax,-0x1b8(%rbp)
   10bd9:	48 b8 17 3f db 84 5a 	movabs $0x679a845a84db3f17,%rax
   10be0:	84 9a 67 
   10be3:	48 89 85 50 fe ff ff 	mov    %rax,-0x1b0(%rbp)
   10bea:	c7 85 d8 fd ff ff 17 	movl   $0xf11ab117,-0x228(%rbp)
   10bf1:	b1 1a f1 
   10bf4:	c7 85 dc fd ff ff 04 	movl   $0x4c5de04,-0x224(%rbp)
   10bfb:	de c5 04 
   10bfe:	48 8d 05 1b 86 00 00 	lea    0x861b(%rip),%rax        # 19220 <g_95+0x60>
   10c05:	48 89 85 f0 fd ff ff 	mov    %rax,-0x210(%rbp)
   10c0c:	48 c7 85 58 fe ff ff 	movq   $0x0,-0x1a8(%rbp)
   10c13:	00 00 00 00 
   10c17:	48 c7 85 f8 fd ff ff 	movq   $0x0,-0x208(%rbp)
   10c1e:	00 00 00 00 
   10c22:	48 8d 85 f8 fd ff ff 	lea    -0x208(%rbp),%rax
   10c29:	48 89 85 00 fe ff ff 	mov    %rax,-0x200(%rbp)
   10c30:	48 8d 85 00 fe ff ff 	lea    -0x200(%rbp),%rax
   10c37:	48 89 85 60 fe ff ff 	mov    %rax,-0x1a0(%rbp)
   10c3e:	48 8d 05 a3 b5 00 00 	lea    0xb5a3(%rip),%rax        # 1c1e8 <g_589>
   10c45:	48 89 85 08 fe ff ff 	mov    %rax,-0x1f8(%rbp)
   10c4c:	48 8d 85 08 fe ff ff 	lea    -0x1f8(%rbp),%rax
   10c53:	48 89 85 68 fe ff ff 	mov    %rax,-0x198(%rbp)
   10c5a:	c7 85 e0 fd ff ff 02 	movl   $0x2,-0x220(%rbp)
   10c61:	00 00 00 
   10c64:	48 b8 68 b3 a5 0e 47 	movabs $0xb67996470ea5b368,%rax
   10c6b:	96 79 b6 
   10c6e:	48 89 85 70 fe ff ff 	mov    %rax,-0x190(%rbp)
   10c75:	48 8d 05 24 ce 00 00 	lea    0xce24(%rip),%rax        # 1daa0 <g_457>
   10c7c:	48 89 85 10 fe ff ff 	mov    %rax,-0x1f0(%rbp)
   10c83:	48 8d 85 10 fe ff ff 	lea    -0x1f0(%rbp),%rax
   10c8a:	48 89 85 78 fe ff ff 	mov    %rax,-0x188(%rbp)
   10c91:	c7 85 e4 fd ff ff ff 	movl   $0xffffffff,-0x21c(%rbp)
   10c98:	ff ff ff 
   10c9b:	48 8d 05 b6 87 00 00 	lea    0x87b6(%rip),%rax        # 19458 <g_987>
   10ca2:	48 89 85 18 fe ff ff 	mov    %rax,-0x1e8(%rbp)
   10ca9:	48 8d 85 18 fe ff ff 	lea    -0x1e8(%rbp),%rax
   10cb0:	48 89 85 80 fe ff ff 	mov    %rax,-0x180(%rbp)
   10cb7:	48 8d 85 f0 fd ff ff 	lea    -0x210(%rbp),%rax
   10cbe:	48 89 85 20 fe ff ff 	mov    %rax,-0x1e0(%rbp)
   10cc5:	48 8d 85 20 fe ff ff 	lea    -0x1e0(%rbp),%rax
   10ccc:	48 89 85 10 ff ff ff 	mov    %rax,-0xf0(%rbp)
   10cd3:	48 c7 85 18 ff ff ff 	movq   $0x0,-0xe8(%rbp)
   10cda:	00 00 00 00 
   10cde:	48 8d 85 20 fe ff ff 	lea    -0x1e0(%rbp),%rax
   10ce5:	48 89 85 20 ff ff ff 	mov    %rax,-0xe0(%rbp)
   10cec:	48 8d 85 20 fe ff ff 	lea    -0x1e0(%rbp),%rax
   10cf3:	48 89 85 28 ff ff ff 	mov    %rax,-0xd8(%rbp)
   10cfa:	48 c7 85 30 ff ff ff 	movq   $0x0,-0xd0(%rbp)
   10d01:	00 00 00 00 
   10d05:	48 8d 85 20 fe ff ff 	lea    -0x1e0(%rbp),%rax
   10d0c:	48 89 85 38 ff ff ff 	mov    %rax,-0xc8(%rbp)
   10d13:	48 8d 85 20 fe ff ff 	lea    -0x1e0(%rbp),%rax
   10d1a:	48 89 85 40 ff ff ff 	mov    %rax,-0xc0(%rbp)
   10d21:	48 8d 85 20 fe ff ff 	lea    -0x1e0(%rbp),%rax
   10d28:	48 89 85 48 ff ff ff 	mov    %rax,-0xb8(%rbp)
   10d2f:	48 8d 85 20 fe ff ff 	lea    -0x1e0(%rbp),%rax
   10d36:	48 89 85 50 ff ff ff 	mov    %rax,-0xb0(%rbp)
   10d3d:	48 8d 85 20 fe ff ff 	lea    -0x1e0(%rbp),%rax
   10d44:	48 89 85 58 ff ff ff 	mov    %rax,-0xa8(%rbp)
   10d4b:	48 8d 85 20 fe ff ff 	lea    -0x1e0(%rbp),%rax
   10d52:	48 89 85 60 ff ff ff 	mov    %rax,-0xa0(%rbp)
   10d59:	48 8d 85 20 fe ff ff 	lea    -0x1e0(%rbp),%rax
   10d60:	48 89 85 68 ff ff ff 	mov    %rax,-0x98(%rbp)
   10d67:	48 8d 85 20 fe ff ff 	lea    -0x1e0(%rbp),%rax
   10d6e:	48 89 85 70 ff ff ff 	mov    %rax,-0x90(%rbp)
   10d75:	48 8d 85 20 fe ff ff 	lea    -0x1e0(%rbp),%rax
   10d7c:	48 89 85 78 ff ff ff 	mov    %rax,-0x88(%rbp)
   10d83:	48 c7 45 80 00 00 00 	movq   $0x0,-0x80(%rbp)
   10d8a:	00 
   10d8b:	48 8d 85 20 fe ff ff 	lea    -0x1e0(%rbp),%rax
   10d92:	48 89 45 88          	mov    %rax,-0x78(%rbp)
   10d96:	48 8d 85 20 fe ff ff 	lea    -0x1e0(%rbp),%rax
   10d9d:	48 89 45 90          	mov    %rax,-0x70(%rbp)
   10da1:	48 c7 45 98 00 00 00 	movq   $0x0,-0x68(%rbp)
   10da8:	00 
   10da9:	48 8d 85 20 fe ff ff 	lea    -0x1e0(%rbp),%rax
   10db0:	48 89 45 a0          	mov    %rax,-0x60(%rbp)
   10db4:	48 8d 85 20 fe ff ff 	lea    -0x1e0(%rbp),%rax
   10dbb:	48 89 45 a8          	mov    %rax,-0x58(%rbp)
   10dbf:	48 c7 45 b0 00 00 00 	movq   $0x0,-0x50(%rbp)
   10dc6:	00 
   10dc7:	48 8d 85 20 fe ff ff 	lea    -0x1e0(%rbp),%rax
   10dce:	48 89 45 b8          	mov    %rax,-0x48(%rbp)
   10dd2:	48 8d 85 20 fe ff ff 	lea    -0x1e0(%rbp),%rax
   10dd9:	48 89 45 c0          	mov    %rax,-0x40(%rbp)
   10ddd:	48 8d 85 20 fe ff ff 	lea    -0x1e0(%rbp),%rax
   10de4:	48 89 45 c8          	mov    %rax,-0x38(%rbp)
   10de8:	48 8d 85 20 fe ff ff 	lea    -0x1e0(%rbp),%rax
   10def:	48 89 45 d0          	mov    %rax,-0x30(%rbp)
   10df3:	48 8d 85 20 fe ff ff 	lea    -0x1e0(%rbp),%rax
   10dfa:	48 89 45 d8          	mov    %rax,-0x28(%rbp)
   10dfe:	48 8d 85 20 fe ff ff 	lea    -0x1e0(%rbp),%rax
   10e05:	48 89 45 e0          	mov    %rax,-0x20(%rbp)
   10e09:	48 8d 85 20 fe ff ff 	lea    -0x1e0(%rbp),%rax
   10e10:	48 89 45 e8          	mov    %rax,-0x18(%rbp)
   10e14:	c6 85 d1 fd ff ff 01 	movb   $0x1,-0x22f(%rbp)
   10e1b:	66 c7 85 d2 fd ff ff 	movw   $0x1,-0x22e(%rbp)
   10e22:	01 00 
   10e24:	48 8d 85 94 fe ff ff 	lea    -0x16c(%rbp),%rax
   10e2b:	48 89 85 88 fe ff ff 	mov    %rax,-0x178(%rbp)
   10e32:	c7 85 d4 fd ff ff 00 	movl   $0x0,-0x22c(%rbp)
   10e39:	00 00 00 
   10e3c:	eb 1a                	jmp    10e58 <func_50+0x3e0>
   10e3e:	8b 85 d4 fd ff ff    	mov    -0x22c(%rbp),%eax
   10e44:	48 98                	cltq   
   10e46:	c7 84 85 94 fe ff ff 	movl   $0xfffffffe,-0x16c(%rbp,%rax,4)
   10e4d:	fe ff ff ff 
   10e51:	83 85 d4 fd ff ff 01 	addl   $0x1,-0x22c(%rbp)
   10e58:	83 bd d4 fd ff ff 02 	cmpl   $0x2,-0x22c(%rbp)
   10e5f:	7e dd                	jle    10e3e <func_50+0x3c6>
   10e61:	0f b6 85 bc fd ff ff 	movzbl -0x244(%rbp),%eax
   10e68:	48 8b 4d f8          	mov    -0x8(%rbp),%rcx
   10e6c:	64 48 33 0c 25 28 00 	xor    %fs:0x28,%rcx
   10e73:	00 00 
   10e75:	74 05                	je     10e7c <func_50+0x404>
   10e77:	e8 f4 71 ff ff       	callq  8070 <__stack_chk_fail@plt>
   10e7c:	c9                   	leaveq 
   10e7d:	c3                   	retq   

0000000000010e7e <func_54>:
   10e7e:	f3 0f 1e fa          	endbr64 
   10e82:	55                   	push   %rbp
   10e83:	48 89 e5             	mov    %rsp,%rbp
   10e86:	41 57                	push   %r15
   10e88:	41 56                	push   %r14
   10e8a:	41 55                	push   %r13
   10e8c:	41 54                	push   %r12
   10e8e:	53                   	push   %rbx
   10e8f:	48 81 ec d8 0f 00 00 	sub    $0xfd8,%rsp
   10e96:	48 89 bd 18 f0 ff ff 	mov    %rdi,-0xfe8(%rbp)
   10e9d:	89 b5 14 f0 ff ff    	mov    %esi,-0xfec(%rbp)
   10ea3:	48 89 95 08 f0 ff ff 	mov    %rdx,-0xff8(%rbp)
   10eaa:	64 48 8b 04 25 28 00 	mov    %fs:0x28,%rax
   10eb1:	00 00 
   10eb3:	48 89 45 c8          	mov    %rax,-0x38(%rbp)
   10eb7:	31 c0                	xor    %eax,%eax
   10eb9:	48 c7 85 d8 f0 ff ff 	movq   $0xfffffffffffffffb,-0xf28(%rbp)
   10ec0:	fb ff ff ff 
   10ec4:	48 c7 85 e0 f0 ff ff 	movq   $0x0,-0xf20(%rbp)
   10ecb:	00 00 00 00 
   10ecf:	48 8d 85 e0 f0 ff ff 	lea    -0xf20(%rbp),%rax
   10ed6:	48 89 85 e8 f0 ff ff 	mov    %rax,-0xf18(%rbp)
   10edd:	48 8d 05 88 82 00 00 	lea    0x8288(%rip),%rax        # 1916c <g_77+0xec>
   10ee4:	48 89 85 f0 f0 ff ff 	mov    %rax,-0xf10(%rbp)
   10eeb:	48 8d 85 f0 f0 ff ff 	lea    -0xf10(%rbp),%rax
   10ef2:	48 89 85 30 f3 ff ff 	mov    %rax,-0xcd0(%rbp)
   10ef9:	48 8d 85 f0 f0 ff ff 	lea    -0xf10(%rbp),%rax
   10f00:	48 89 85 38 f3 ff ff 	mov    %rax,-0xcc8(%rbp)
   10f07:	48 8d 85 f0 f0 ff ff 	lea    -0xf10(%rbp),%rax
   10f0e:	48 89 85 40 f3 ff ff 	mov    %rax,-0xcc0(%rbp)
   10f15:	48 8d 85 f0 f0 ff ff 	lea    -0xf10(%rbp),%rax
   10f1c:	48 89 85 48 f3 ff ff 	mov    %rax,-0xcb8(%rbp)
   10f23:	48 8d 85 f0 f0 ff ff 	lea    -0xf10(%rbp),%rax
   10f2a:	48 89 85 50 f3 ff ff 	mov    %rax,-0xcb0(%rbp)
   10f31:	48 8d 85 f0 f0 ff ff 	lea    -0xf10(%rbp),%rax
   10f38:	48 89 85 58 f3 ff ff 	mov    %rax,-0xca8(%rbp)
   10f3f:	48 8d 85 f0 f0 ff ff 	lea    -0xf10(%rbp),%rax
   10f46:	48 89 85 60 f3 ff ff 	mov    %rax,-0xca0(%rbp)
   10f4d:	48 8d 85 f0 f0 ff ff 	lea    -0xf10(%rbp),%rax
   10f54:	48 89 85 68 f3 ff ff 	mov    %rax,-0xc98(%rbp)
   10f5b:	48 8d 85 f0 f0 ff ff 	lea    -0xf10(%rbp),%rax
   10f62:	48 89 85 70 f3 ff ff 	mov    %rax,-0xc90(%rbp)
   10f69:	48 8d 85 f0 f0 ff ff 	lea    -0xf10(%rbp),%rax
   10f70:	48 89 85 78 f3 ff ff 	mov    %rax,-0xc88(%rbp)
   10f77:	48 8d 85 f0 f0 ff ff 	lea    -0xf10(%rbp),%rax
   10f7e:	48 89 85 80 f3 ff ff 	mov    %rax,-0xc80(%rbp)
   10f85:	48 8d 85 f0 f0 ff ff 	lea    -0xf10(%rbp),%rax
   10f8c:	48 89 85 88 f3 ff ff 	mov    %rax,-0xc78(%rbp)
   10f93:	48 c7 85 f8 f0 ff ff 	movq   $0x0,-0xf08(%rbp)
   10f9a:	00 00 00 00 
   10f9e:	48 8d 05 a3 80 00 00 	lea    0x80a3(%rip),%rax        # 19048 <g_75+0x8>
   10fa5:	48 89 85 48 f1 ff ff 	mov    %rax,-0xeb8(%rbp)
   10fac:	c6 85 29 f0 ff ff ff 	movb   $0xff,-0xfd7(%rbp)
   10fb3:	c7 85 38 f0 ff ff 92 	movl   $0x9c165c92,-0xfc8(%rbp)
   10fba:	5c 16 9c 
   10fbd:	66 c7 85 32 f0 ff ff 	movw   $0x329e,-0xfce(%rbp)
   10fc4:	9e 32 
   10fc6:	48 b8 73 b7 57 1c 5b 	movabs $0x583e285b1c57b773,%rax
   10fcd:	28 3e 58 
   10fd0:	48 89 85 00 f1 ff ff 	mov    %rax,-0xf00(%rbp)
   10fd7:	48 b8 ff 7f 46 46 14 	movabs $0xa3466c1446467fff,%rax
   10fde:	6c 46 a3 
   10fe1:	48 89 85 50 f1 ff ff 	mov    %rax,-0xeb0(%rbp)
   10fe8:	c6 85 2a f0 ff ff ff 	movb   $0xff,-0xfd6(%rbp)
   10fef:	48 c7 85 58 f1 ff ff 	movq   $0xffffffffffffffff,-0xea8(%rbp)
   10ff6:	ff ff ff ff 
   10ffa:	48 c7 85 60 f1 ff ff 	movq   $0x0,-0xea0(%rbp)
   11001:	00 00 00 00 
   11005:	48 c7 85 68 f1 ff ff 	movq   $0x0,-0xe98(%rbp)
   1100c:	00 00 00 00 
   11010:	48 8d 85 a0 f2 ff ff 	lea    -0xd60(%rbp),%rax
   11017:	48 83 c0 08          	add    $0x8,%rax
   1101b:	48 89 85 a0 f4 ff ff 	mov    %rax,-0xb60(%rbp)
   11022:	48 c7 85 a8 f4 ff ff 	movq   $0x0,-0xb58(%rbp)
   11029:	00 00 00 00 
   1102d:	48 c7 85 b0 f4 ff ff 	movq   $0x0,-0xb50(%rbp)
   11034:	00 00 00 00 
   11038:	48 8d 85 a0 f2 ff ff 	lea    -0xd60(%rbp),%rax
   1103f:	48 89 85 b8 f4 ff ff 	mov    %rax,-0xb48(%rbp)
   11046:	48 c7 85 c0 f4 ff ff 	movq   $0x0,-0xb40(%rbp)
   1104d:	00 00 00 00 
   11051:	48 8d 85 a0 f2 ff ff 	lea    -0xd60(%rbp),%rax
   11058:	48 89 85 c8 f4 ff ff 	mov    %rax,-0xb38(%rbp)
   1105f:	48 8d 85 a0 f2 ff ff 	lea    -0xd60(%rbp),%rax
   11066:	48 89 85 d0 f4 ff ff 	mov    %rax,-0xb30(%rbp)
   1106d:	48 8d 85 a0 f2 ff ff 	lea    -0xd60(%rbp),%rax
   11074:	48 83 c0 08          	add    $0x8,%rax
   11078:	48 89 85 d8 f4 ff ff 	mov    %rax,-0xb28(%rbp)
   1107f:	48 c7 85 e0 f4 ff ff 	movq   $0x0,-0xb20(%rbp)
   11086:	00 00 00 00 
   1108a:	48 c7 85 e8 f4 ff ff 	movq   $0x0,-0xb18(%rbp)
   11091:	00 00 00 00 
   11095:	48 c7 85 f0 f4 ff ff 	movq   $0x0,-0xb10(%rbp)
   1109c:	00 00 00 00 
   110a0:	48 c7 85 f8 f4 ff ff 	movq   $0x0,-0xb08(%rbp)
   110a7:	00 00 00 00 
   110ab:	48 8d 85 a0 f2 ff ff 	lea    -0xd60(%rbp),%rax
   110b2:	48 89 85 00 f5 ff ff 	mov    %rax,-0xb00(%rbp)
   110b9:	48 8d 85 a0 f2 ff ff 	lea    -0xd60(%rbp),%rax
   110c0:	48 83 c0 08          	add    $0x8,%rax
   110c4:	48 89 85 08 f5 ff ff 	mov    %rax,-0xaf8(%rbp)
   110cb:	48 8d 85 a0 f2 ff ff 	lea    -0xd60(%rbp),%rax
   110d2:	48 83 c0 08          	add    $0x8,%rax
   110d6:	48 89 85 10 f5 ff ff 	mov    %rax,-0xaf0(%rbp)
   110dd:	48 c7 85 18 f5 ff ff 	movq   $0x0,-0xae8(%rbp)
   110e4:	00 00 00 00 
   110e8:	48 c7 85 20 f5 ff ff 	movq   $0x0,-0xae0(%rbp)
   110ef:	00 00 00 00 
   110f3:	48 c7 85 28 f5 ff ff 	movq   $0x0,-0xad8(%rbp)
   110fa:	00 00 00 00 
   110fe:	48 8d 85 a0 f2 ff ff 	lea    -0xd60(%rbp),%rax
   11105:	48 89 85 30 f5 ff ff 	mov    %rax,-0xad0(%rbp)
   1110c:	48 c7 85 38 f5 ff ff 	movq   $0x0,-0xac8(%rbp)
   11113:	00 00 00 00 
   11117:	48 8d 85 a0 f2 ff ff 	lea    -0xd60(%rbp),%rax
   1111e:	48 89 85 40 f5 ff ff 	mov    %rax,-0xac0(%rbp)
   11125:	48 c7 85 48 f5 ff ff 	movq   $0x0,-0xab8(%rbp)
   1112c:	00 00 00 00 
   11130:	48 c7 85 50 f5 ff ff 	movq   $0x0,-0xab0(%rbp)
   11137:	00 00 00 00 
   1113b:	48 c7 85 58 f5 ff ff 	movq   $0x0,-0xaa8(%rbp)
   11142:	00 00 00 00 
   11146:	48 8d 85 a0 f2 ff ff 	lea    -0xd60(%rbp),%rax
   1114d:	48 89 85 60 f5 ff ff 	mov    %rax,-0xaa0(%rbp)
   11154:	48 8d 85 a0 f2 ff ff 	lea    -0xd60(%rbp),%rax
   1115b:	48 89 85 68 f5 ff ff 	mov    %rax,-0xa98(%rbp)
   11162:	48 8d 85 a0 f2 ff ff 	lea    -0xd60(%rbp),%rax
   11169:	48 83 c0 08          	add    $0x8,%rax
   1116d:	48 89 85 70 f5 ff ff 	mov    %rax,-0xa90(%rbp)
   11174:	48 8d 85 a0 f2 ff ff 	lea    -0xd60(%rbp),%rax
   1117b:	48 89 85 78 f5 ff ff 	mov    %rax,-0xa88(%rbp)
   11182:	48 c7 85 80 f5 ff ff 	movq   $0x0,-0xa80(%rbp)
   11189:	00 00 00 00 
   1118d:	48 c7 85 88 f5 ff ff 	movq   $0x0,-0xa78(%rbp)
   11194:	00 00 00 00 
   11198:	48 c7 85 70 f1 ff ff 	movq   $0x0,-0xe90(%rbp)
   1119f:	00 00 00 00 
   111a3:	48 c7 85 78 f1 ff ff 	movq   $0x0,-0xe88(%rbp)
   111aa:	00 00 00 00 
   111ae:	48 8d 85 a0 f2 ff ff 	lea    -0xd60(%rbp),%rax
   111b5:	48 83 c0 08          	add    $0x8,%rax
   111b9:	48 89 85 80 f1 ff ff 	mov    %rax,-0xe80(%rbp)
   111c0:	c7 85 68 f0 ff ff ff 	movl   $0xffffffff,-0xf98(%rbp)
   111c7:	ff ff ff 
   111ca:	48 8d 05 27 81 00 00 	lea    0x8127(%rip),%rax        # 192f8 <g_572+0x38>
   111d1:	48 89 85 90 f5 ff ff 	mov    %rax,-0xa70(%rbp)
   111d8:	48 8d 05 d9 80 00 00 	lea    0x80d9(%rip),%rax        # 192b8 <g_570>
   111df:	48 89 85 98 f5 ff ff 	mov    %rax,-0xa68(%rbp)
   111e6:	48 8d 85 00 f1 ff ff 	lea    -0xf00(%rbp),%rax
   111ed:	48 89 85 a0 f5 ff ff 	mov    %rax,-0xa60(%rbp)
   111f4:	48 8d 05 0d 80 00 00 	lea    0x800d(%rip),%rax        # 19208 <g_95+0x48>
   111fb:	48 89 85 a8 f5 ff ff 	mov    %rax,-0xa58(%rbp)
   11202:	48 8d 05 ff 7f 00 00 	lea    0x7fff(%rip),%rax        # 19208 <g_95+0x48>
   11209:	48 89 85 b0 f5 ff ff 	mov    %rax,-0xa50(%rbp)
   11210:	48 8d 85 00 f1 ff ff 	lea    -0xf00(%rbp),%rax
   11217:	48 89 85 b8 f5 ff ff 	mov    %rax,-0xa48(%rbp)
   1121e:	48 8d 05 93 80 00 00 	lea    0x8093(%rip),%rax        # 192b8 <g_570>
   11225:	48 89 85 c0 f5 ff ff 	mov    %rax,-0xa40(%rbp)
   1122c:	48 8d 05 c5 80 00 00 	lea    0x80c5(%rip),%rax        # 192f8 <g_572+0x38>
   11233:	48 89 85 c8 f5 ff ff 	mov    %rax,-0xa38(%rbp)
   1123a:	48 8d 05 77 80 00 00 	lea    0x8077(%rip),%rax        # 192b8 <g_570>
   11241:	48 89 85 d0 f5 ff ff 	mov    %rax,-0xa30(%rbp)
   11248:	48 8d 05 b1 7f 00 00 	lea    0x7fb1(%rip),%rax        # 19200 <g_95+0x40>
   1124f:	48 89 85 d8 f5 ff ff 	mov    %rax,-0xa28(%rbp)
   11256:	48 8d 85 00 f1 ff ff 	lea    -0xf00(%rbp),%rax
   1125d:	48 89 85 e0 f5 ff ff 	mov    %rax,-0xa20(%rbp)
   11264:	48 8d 85 00 f1 ff ff 	lea    -0xf00(%rbp),%rax
   1126b:	48 89 85 e8 f5 ff ff 	mov    %rax,-0xa18(%rbp)
   11272:	48 8d 85 00 f1 ff ff 	lea    -0xf00(%rbp),%rax
   11279:	48 89 85 f0 f5 ff ff 	mov    %rax,-0xa10(%rbp)
   11280:	48 8d 85 00 f1 ff ff 	lea    -0xf00(%rbp),%rax
   11287:	48 89 85 f8 f5 ff ff 	mov    %rax,-0xa08(%rbp)
   1128e:	48 8d 05 6b 7f 00 00 	lea    0x7f6b(%rip),%rax        # 19200 <g_95+0x40>
   11295:	48 89 85 00 f6 ff ff 	mov    %rax,-0xa00(%rbp)
   1129c:	48 8d 05 65 7f 00 00 	lea    0x7f65(%rip),%rax        # 19208 <g_95+0x48>
   112a3:	48 89 85 08 f6 ff ff 	mov    %rax,-0x9f8(%rbp)
   112aa:	48 8d 05 4f 7f 00 00 	lea    0x7f4f(%rip),%rax        # 19200 <g_95+0x40>
   112b1:	48 89 85 10 f6 ff ff 	mov    %rax,-0x9f0(%rbp)
   112b8:	48 8d 85 00 f1 ff ff 	lea    -0xf00(%rbp),%rax
   112bf:	48 89 85 18 f6 ff ff 	mov    %rax,-0x9e8(%rbp)
   112c6:	48 8d 05 33 7f 00 00 	lea    0x7f33(%rip),%rax        # 19200 <g_95+0x40>
   112cd:	48 89 85 20 f6 ff ff 	mov    %rax,-0x9e0(%rbp)
   112d4:	48 8d 05 dd 7f 00 00 	lea    0x7fdd(%rip),%rax        # 192b8 <g_570>
   112db:	48 89 85 28 f6 ff ff 	mov    %rax,-0x9d8(%rbp)
   112e2:	48 8d 05 cf 7f 00 00 	lea    0x7fcf(%rip),%rax        # 192b8 <g_570>
   112e9:	48 89 85 30 f6 ff ff 	mov    %rax,-0x9d0(%rbp)
   112f0:	48 8d 05 09 7f 00 00 	lea    0x7f09(%rip),%rax        # 19200 <g_95+0x40>
   112f7:	48 89 85 38 f6 ff ff 	mov    %rax,-0x9c8(%rbp)
   112fe:	48 8d 05 f3 7f 00 00 	lea    0x7ff3(%rip),%rax        # 192f8 <g_572+0x38>
   11305:	48 89 85 40 f6 ff ff 	mov    %rax,-0x9c0(%rbp)
   1130c:	48 8d 85 00 f1 ff ff 	lea    -0xf00(%rbp),%rax
   11313:	48 89 85 48 f6 ff ff 	mov    %rax,-0x9b8(%rbp)
   1131a:	48 8d 05 d7 7f 00 00 	lea    0x7fd7(%rip),%rax        # 192f8 <g_572+0x38>
   11321:	48 89 85 50 f6 ff ff 	mov    %rax,-0x9b0(%rbp)
   11328:	48 8d 05 d1 7e 00 00 	lea    0x7ed1(%rip),%rax        # 19200 <g_95+0x40>
   1132f:	48 89 85 58 f6 ff ff 	mov    %rax,-0x9a8(%rbp)
   11336:	48 8d 05 7b 7f 00 00 	lea    0x7f7b(%rip),%rax        # 192b8 <g_570>
   1133d:	48 89 85 60 f6 ff ff 	mov    %rax,-0x9a0(%rbp)
   11344:	48 8d 05 ad 7f 00 00 	lea    0x7fad(%rip),%rax        # 192f8 <g_572+0x38>
   1134b:	48 89 85 68 f6 ff ff 	mov    %rax,-0x998(%rbp)
   11352:	48 8d 05 9f 7f 00 00 	lea    0x7f9f(%rip),%rax        # 192f8 <g_572+0x38>
   11359:	48 89 85 70 f6 ff ff 	mov    %rax,-0x990(%rbp)
   11360:	48 8d 05 a1 7e 00 00 	lea    0x7ea1(%rip),%rax        # 19208 <g_95+0x48>
   11367:	48 89 85 78 f6 ff ff 	mov    %rax,-0x988(%rbp)
   1136e:	48 8d 85 00 f1 ff ff 	lea    -0xf00(%rbp),%rax
   11375:	48 89 85 80 f6 ff ff 	mov    %rax,-0x980(%rbp)
   1137c:	48 8d 05 7d 7e 00 00 	lea    0x7e7d(%rip),%rax        # 19200 <g_95+0x40>
   11383:	48 89 85 88 f6 ff ff 	mov    %rax,-0x978(%rbp)
   1138a:	48 8d 85 00 f1 ff ff 	lea    -0xf00(%rbp),%rax
   11391:	48 89 85 90 f6 ff ff 	mov    %rax,-0x970(%rbp)
   11398:	48 8d 05 69 7e 00 00 	lea    0x7e69(%rip),%rax        # 19208 <g_95+0x48>
   1139f:	48 89 85 98 f6 ff ff 	mov    %rax,-0x968(%rbp)
   113a6:	48 8d 05 4b 7f 00 00 	lea    0x7f4b(%rip),%rax        # 192f8 <g_572+0x38>
   113ad:	48 89 85 a0 f6 ff ff 	mov    %rax,-0x960(%rbp)
   113b4:	48 8d 05 3d 7f 00 00 	lea    0x7f3d(%rip),%rax        # 192f8 <g_572+0x38>
   113bb:	48 89 85 a8 f6 ff ff 	mov    %rax,-0x958(%rbp)
   113c2:	48 8d 85 90 f5 ff ff 	lea    -0xa70(%rbp),%rax
   113c9:	48 05 08 01 00 00    	add    $0x108,%rax
   113cf:	48 89 85 88 f1 ff ff 	mov    %rax,-0xe78(%rbp)
   113d6:	48 8d 05 c3 c6 00 00 	lea    0xc6c3(%rip),%rax        # 1daa0 <g_457>
   113dd:	48 89 85 08 f1 ff ff 	mov    %rax,-0xef8(%rbp)
   113e4:	48 8d 85 08 f1 ff ff 	lea    -0xef8(%rbp),%rax
   113eb:	48 89 85 10 f1 ff ff 	mov    %rax,-0xef0(%rbp)
   113f2:	48 8d 85 10 f1 ff ff 	lea    -0xef0(%rbp),%rax
   113f9:	48 89 85 90 f1 ff ff 	mov    %rax,-0xe70(%rbp)
   11400:	c6 85 2b f0 ff ff fe 	movb   $0xfe,-0xfd5(%rbp)
   11407:	c7 85 6c f0 ff ff d2 	movl   $0xcb8225d2,-0xf94(%rbp)
   1140e:	25 82 cb 
   11411:	c7 85 50 f0 ff ff 00 	movl   $0x0,-0xfb0(%rbp)
   11418:	00 00 00 
   1141b:	eb 1e                	jmp    1143b <func_54+0x5bd>
   1141d:	8b 85 50 f0 ff ff    	mov    -0xfb0(%rbp),%eax
   11423:	48 98                	cltq   
   11425:	48 8d 15 74 c6 00 00 	lea    0xc674(%rip),%rdx        # 1daa0 <g_457>
   1142c:	48 89 94 c5 a0 f2 ff 	mov    %rdx,-0xd60(%rbp,%rax,8)
   11433:	ff 
   11434:	83 85 50 f0 ff ff 01 	addl   $0x1,-0xfb0(%rbp)
   1143b:	83 bd 50 f0 ff ff 01 	cmpl   $0x1,-0xfb0(%rbp)
   11442:	7e d9                	jle    1141d <func_54+0x59f>
   11444:	90                   	nop
   11445:	c6 05 f8 7d 00 00 00 	movb   $0x0,0x7df8(%rip)        # 19244 <g_101>
   1144c:	90                   	nop
   1144d:	0f b6 05 f0 7d 00 00 	movzbl 0x7df0(%rip),%eax        # 19244 <g_101>
   11454:	3c 01                	cmp    $0x1,%al
   11456:	0f 87 ac 0b 00 00    	ja     12008 <func_54+0x118a>
   1145c:	48 c7 85 08 f2 ff ff 	movq   $0x0,-0xdf8(%rbp)
   11463:	00 00 00 00 
   11467:	c7 85 00 f4 ff ff fd 	movl   $0xfffffffd,-0xc00(%rbp)
   1146e:	ff ff ff 
   11471:	c7 85 04 f4 ff ff 04 	movl   $0x4,-0xbfc(%rbp)
   11478:	00 00 00 
   1147b:	c7 85 08 f4 ff ff fd 	movl   $0xfffffffd,-0xbf8(%rbp)
   11482:	ff ff ff 
   11485:	c7 85 0c f4 ff ff 04 	movl   $0x4,-0xbf4(%rbp)
   1148c:	00 00 00 
   1148f:	c7 85 10 f4 ff ff fd 	movl   $0xfffffffd,-0xbf0(%rbp)
   11496:	ff ff ff 
   11499:	c7 85 14 f4 ff ff 04 	movl   $0x4,-0xbec(%rbp)
   114a0:	00 00 00 
   114a3:	c7 85 18 f4 ff ff fd 	movl   $0xfffffffd,-0xbe8(%rbp)
   114aa:	ff ff ff 
   114ad:	c7 85 1c f4 ff ff 04 	movl   $0x4,-0xbe4(%rbp)
   114b4:	00 00 00 
   114b7:	c7 85 20 f4 ff ff fd 	movl   $0xfffffffd,-0xbe0(%rbp)
   114be:	ff ff ff 
   114c1:	c7 85 24 f4 ff ff 04 	movl   $0x4,-0xbdc(%rbp)
   114c8:	00 00 00 
   114cb:	c7 85 28 f4 ff ff fd 	movl   $0xfffffffd,-0xbd8(%rbp)
   114d2:	ff ff ff 
   114d5:	c7 85 2c f4 ff ff 04 	movl   $0x4,-0xbd4(%rbp)
   114dc:	00 00 00 
   114df:	c7 85 30 f4 ff ff fd 	movl   $0xfffffffd,-0xbd0(%rbp)
   114e6:	ff ff ff 
   114e9:	c7 85 34 f4 ff ff 04 	movl   $0x4,-0xbcc(%rbp)
   114f0:	00 00 00 
   114f3:	c7 85 38 f4 ff ff fd 	movl   $0xfffffffd,-0xbc8(%rbp)
   114fa:	ff ff ff 
   114fd:	c7 85 3c f4 ff ff 04 	movl   $0x4,-0xbc4(%rbp)
   11504:	00 00 00 
   11507:	c7 85 40 f4 ff ff fd 	movl   $0xfffffffd,-0xbc0(%rbp)
   1150e:	ff ff ff 
   11511:	c7 85 44 f4 ff ff 04 	movl   $0x4,-0xbbc(%rbp)
   11518:	00 00 00 
   1151b:	c7 85 48 f4 ff ff fd 	movl   $0xfffffffd,-0xbb8(%rbp)
   11522:	ff ff ff 
   11525:	c7 85 4c f4 ff ff 04 	movl   $0x4,-0xbb4(%rbp)
   1152c:	00 00 00 
   1152f:	c7 85 50 f4 ff ff fd 	movl   $0xfffffffd,-0xbb0(%rbp)
   11536:	ff ff ff 
   11539:	c7 85 54 f4 ff ff 04 	movl   $0x4,-0xbac(%rbp)
   11540:	00 00 00 
   11543:	c7 85 58 f4 ff ff fd 	movl   $0xfffffffd,-0xba8(%rbp)
   1154a:	ff ff ff 
   1154d:	c7 85 5c f4 ff ff 04 	movl   $0x4,-0xba4(%rbp)
   11554:	00 00 00 
   11557:	c7 85 60 f4 ff ff fd 	movl   $0xfffffffd,-0xba0(%rbp)
   1155e:	ff ff ff 
   11561:	c7 85 64 f4 ff ff 04 	movl   $0x4,-0xb9c(%rbp)
   11568:	00 00 00 
   1156b:	c7 85 68 f4 ff ff fd 	movl   $0xfffffffd,-0xb98(%rbp)
   11572:	ff ff ff 
   11575:	c7 85 6c f4 ff ff 04 	movl   $0x4,-0xb94(%rbp)
   1157c:	00 00 00 
   1157f:	c7 85 70 f4 ff ff fd 	movl   $0xfffffffd,-0xb90(%rbp)
   11586:	ff ff ff 
   11589:	c7 85 74 f4 ff ff 04 	movl   $0x4,-0xb8c(%rbp)
   11590:	00 00 00 
   11593:	c7 85 78 f4 ff ff fd 	movl   $0xfffffffd,-0xb88(%rbp)
   1159a:	ff ff ff 
   1159d:	c7 85 7c f4 ff ff 04 	movl   $0x4,-0xb84(%rbp)
   115a4:	00 00 00 
   115a7:	48 c7 85 10 f2 ff ff 	movq   $0x0,-0xdf0(%rbp)
   115ae:	00 00 00 00 
   115b2:	c7 05 84 7c 00 00 00 	movl   $0x0,0x7c84(%rip)        # 19240 <g_97>
   115b9:	00 00 00 
   115bc:	e9 0a 09 00 00       	jmpq   11ecb <func_54+0x104d>
   115c1:	c7 85 bc f0 ff ff 00 	movl   $0x0,-0xf44(%rbp)
   115c8:	00 00 00 
   115cb:	48 c7 85 18 f2 ff ff 	movq   $0x0,-0xde8(%rbp)
   115d2:	00 00 00 00 
   115d6:	48 c7 85 20 f2 ff ff 	movq   $0xffffffffffffffff,-0xde0(%rbp)
   115dd:	ff ff ff ff 
   115e1:	66 c7 85 36 f0 ff ff 	movw   $0x6,-0xfca(%rbp)
   115e8:	06 00 
   115ea:	c7 85 c0 f0 ff ff 70 	movl   $0xb1266c70,-0xf40(%rbp)
   115f1:	6c 26 b1 
   115f4:	48 8d 05 56 7c 00 00 	lea    0x7c56(%rip),%rax        # 19251 <g_192>
   115fb:	48 89 85 28 f2 ff ff 	mov    %rax,-0xdd8(%rbp)
   11602:	48 c7 85 30 f2 ff ff 	movq   $0x0,-0xdd0(%rbp)
   11609:	00 00 00 00 
   1160d:	48 c7 85 38 f2 ff ff 	movq   $0x0,-0xdc8(%rbp)
   11614:	00 00 00 00 
   11618:	48 c7 85 40 f2 ff ff 	movq   $0x0,-0xdc0(%rbp)
   1161f:	00 00 00 00 
   11623:	48 8d 05 26 7c 00 00 	lea    0x7c26(%rip),%rax        # 19250 <g_164>
   1162a:	48 89 85 e0 f2 ff ff 	mov    %rax,-0xd20(%rbp)
   11631:	48 8d 05 0c 7c 00 00 	lea    0x7c0c(%rip),%rax        # 19244 <g_101>
   11638:	48 89 85 e8 f2 ff ff 	mov    %rax,-0xd18(%rbp)
   1163f:	48 8d 05 fe 7b 00 00 	lea    0x7bfe(%rip),%rax        # 19244 <g_101>
   11646:	48 89 85 f0 f2 ff ff 	mov    %rax,-0xd10(%rbp)
   1164d:	48 8d 05 f0 7b 00 00 	lea    0x7bf0(%rip),%rax        # 19244 <g_101>
   11654:	48 89 85 f8 f2 ff ff 	mov    %rax,-0xd08(%rbp)
   1165b:	48 8d 05 ee 7b 00 00 	lea    0x7bee(%rip),%rax        # 19250 <g_164>
   11662:	48 89 85 00 f3 ff ff 	mov    %rax,-0xd00(%rbp)
   11669:	48 8d 05 d4 7b 00 00 	lea    0x7bd4(%rip),%rax        # 19244 <g_101>
   11670:	48 89 85 08 f3 ff ff 	mov    %rax,-0xcf8(%rbp)
   11677:	48 8d 05 c6 7b 00 00 	lea    0x7bc6(%rip),%rax        # 19244 <g_101>
   1167e:	48 89 85 10 f3 ff ff 	mov    %rax,-0xcf0(%rbp)
   11685:	48 8d 05 c4 7b 00 00 	lea    0x7bc4(%rip),%rax        # 19250 <g_164>
   1168c:	48 89 85 18 f3 ff ff 	mov    %rax,-0xce8(%rbp)
   11693:	48 8d 85 d8 f0 ff ff 	lea    -0xf28(%rbp),%rax
   1169a:	48 89 85 48 f2 ff ff 	mov    %rax,-0xdb8(%rbp)
   116a1:	c7 05 a1 7b 00 00 01 	movl   $0x1,0x7ba1(%rip)        # 1924c <g_135>
   116a8:	00 00 00 
   116ab:	e9 25 07 00 00       	jmpq   11dd5 <func_54+0xf57>
   116b0:	48 8d 05 6f 79 00 00 	lea    0x796f(%rip),%rax        # 19026 <g_8>
   116b7:	48 89 85 50 f2 ff ff 	mov    %rax,-0xdb0(%rbp)
   116be:	48 8d 05 77 79 00 00 	lea    0x7977(%rip),%rax        # 1903c <g_73+0xc>
   116c5:	48 89 85 30 f1 ff ff 	mov    %rax,-0xed0(%rbp)
   116cc:	48 8d 05 d5 7b 00 00 	lea    0x7bd5(%rip),%rax        # 192a8 <g_204>
   116d3:	48 89 85 58 f2 ff ff 	mov    %rax,-0xda8(%rbp)
   116da:	48 c7 85 60 f2 ff ff 	movq   $0x0,-0xda0(%rbp)
   116e1:	00 00 00 00 
   116e5:	48 8d 85 b0 f6 ff ff 	lea    -0x950(%rbp),%rax
   116ec:	48 8d 15 ed 97 00 00 	lea    0x97ed(%rip),%rdx        # 1aee0 <g_3529+0x8b4>
   116f3:	b9 36 00 00 00       	mov    $0x36,%ecx
   116f8:	48 89 c7             	mov    %rax,%rdi
   116fb:	48 89 d6             	mov    %rdx,%rsi
   116fe:	f3 48 a5             	rep movsq %ds:(%rsi),%es:(%rdi)
   11701:	c7 85 c4 f0 ff ff ff 	movl   $0xffffffff,-0xf3c(%rbp)
   11708:	ff ff ff 
   1170b:	c7 85 c8 f0 ff ff 3a 	movl   $0x5558ec3a,-0xf38(%rbp)
   11712:	ec 58 55 
   11715:	48 8d 85 30 f9 ff ff 	lea    -0x6d0(%rbp),%rax
   1171c:	48 8d 15 7d 99 00 00 	lea    0x997d(%rip),%rdx        # 1b0a0 <g_3529+0xa74>
   11723:	b9 c8 00 00 00       	mov    $0xc8,%ecx
   11728:	48 89 c7             	mov    %rax,%rdi
   1172b:	48 89 d6             	mov    %rdx,%rsi
   1172e:	f3 48 a5             	rep movsq %ds:(%rsi),%es:(%rdi)
   11731:	48 8d 85 30 f9 ff ff 	lea    -0x6d0(%rbp),%rax
   11738:	48 83 c0 58          	add    $0x58,%rax
   1173c:	48 89 85 38 f1 ff ff 	mov    %rax,-0xec8(%rbp)
   11743:	48 8b 05 be 7a 00 00 	mov    0x7abe(%rip),%rax        # 19208 <g_95+0x48>
   1174a:	41 89 c6             	mov    %eax,%r14d
   1174d:	48 8b 05 0c 79 00 00 	mov    0x790c(%rip),%rax        # 19060 <g_75+0x20>
   11754:	0f be d8             	movsbl %al,%ebx
   11757:	44 8b 25 ea 7a 00 00 	mov    0x7aea(%rip),%r12d        # 19248 <g_113>
   1175e:	8b 05 dc 7a 00 00    	mov    0x7adc(%rip),%eax        # 19240 <g_97>
   11764:	44 0f b7 e8          	movzwl %ax,%r13d
   11768:	48 8b 85 18 f0 ff ff 	mov    -0xfe8(%rbp),%rax
   1176f:	0f b7 c0             	movzwl %ax,%eax
   11772:	89 c6                	mov    %eax,%esi
   11774:	bf 01 00 00 00       	mov    $0x1,%edi
   11779:	e8 a1 75 ff ff       	callq  8d1f <safe_sub_func_uint16_t_u_u>
   1177e:	0f b6 c0             	movzbl %al,%eax
   11781:	89 c6                	mov    %eax,%esi
   11783:	bf fd 00 00 00       	mov    $0xfd,%edi
   11788:	e8 4e 74 ff ff       	callq  8bdb <safe_div_func_uint8_t_u_u>
   1178d:	0f b6 05 bd 7a 00 00 	movzbl 0x7abd(%rip),%eax        # 19251 <g_192>
   11794:	84 c0                	test   %al,%al
   11796:	75 0a                	jne    117a2 <func_54+0x924>
   11798:	8b 05 ae 7a 00 00    	mov    0x7aae(%rip),%eax        # 1924c <g_135>
   1179e:	85 c0                	test   %eax,%eax
   117a0:	74 07                	je     117a9 <func_54+0x92b>
   117a2:	b8 01 00 00 00       	mov    $0x1,%eax
   117a7:	eb 05                	jmp    117ae <func_54+0x930>
   117a9:	b8 00 00 00 00       	mov    $0x0,%eax
   117ae:	89 c2                	mov    %eax,%edx
   117b0:	48 8b 85 50 f2 ff ff 	mov    -0xdb0(%rbp),%rax
   117b7:	66 89 10             	mov    %dx,(%rax)
   117ba:	48 8b 85 50 f2 ff ff 	mov    -0xdb0(%rbp),%rax
   117c1:	0f b7 00             	movzwl (%rax),%eax
   117c4:	0f b7 c0             	movzwl %ax,%eax
   117c7:	be 00 00 00 00       	mov    $0x0,%esi
   117cc:	89 c7                	mov    %eax,%edi
   117ce:	e8 2c 75 ff ff       	callq  8cff <safe_add_func_uint16_t_u_u>
   117d3:	98                   	cwtl   
   117d4:	be 0b 00 00 00       	mov    $0xb,%esi
   117d9:	89 c7                	mov    %eax,%edi
   117db:	e8 01 6d ff ff       	callq  84e1 <safe_lshift_func_int16_t_s_u>
   117e0:	0f b6 05 69 7a 00 00 	movzbl 0x7a69(%rip),%eax        # 19250 <g_164>
   117e7:	0f b6 c0             	movzbl %al,%eax
   117ea:	44 89 ee             	mov    %r13d,%esi
   117ed:	89 c7                	mov    %eax,%edi
   117ef:	e8 68 75 ff ff       	callq  8d5c <safe_mod_func_uint16_t_u_u>
   117f4:	48 8b 95 30 f1 ff ff 	mov    -0xed0(%rbp),%rdx
   117fb:	8b 0a                	mov    (%rdx),%ecx
   117fd:	0f b7 d0             	movzwl %ax,%edx
   11800:	48 8b 85 30 f1 ff ff 	mov    -0xed0(%rbp),%rax
   11807:	09 ca                	or     %ecx,%edx
   11809:	89 10                	mov    %edx,(%rax)
   1180b:	8b 00                	mov    (%rax),%eax
   1180d:	8b 95 14 f0 ff ff    	mov    -0xfec(%rbp),%edx
   11813:	89 d6                	mov    %edx,%esi
   11815:	89 c7                	mov    %eax,%edi
   11817:	e8 e9 6d ff ff       	callq  8605 <safe_sub_func_int32_t_s_s>
   1181c:	89 c2                	mov    %eax,%edx
   1181e:	48 8b 85 58 f2 ff ff 	mov    -0xda8(%rbp),%rax
   11825:	89 10                	mov    %edx,(%rax)
   11827:	b8 01 00 00 00       	mov    $0x1,%eax
   1182c:	0f b7 c0             	movzwl %ax,%eax
   1182f:	44 89 e6             	mov    %r12d,%esi
   11832:	89 c7                	mov    %eax,%edi
   11834:	e8 cd 75 ff ff       	callq  8e06 <safe_lshift_func_uint16_t_u_u>
   11839:	89 de                	mov    %ebx,%esi
   1183b:	bf fe ff ff ff       	mov    $0xfffffffe,%edi
   11840:	e8 cd 69 ff ff       	callq  8212 <safe_mul_func_int8_t_s_s>
   11845:	0f be c0             	movsbl %al,%eax
   11848:	44 89 f6             	mov    %r14d,%esi
   1184b:	89 c7                	mov    %eax,%edi
   1184d:	e8 9c 6a ff ff       	callq  82ee <safe_lshift_func_int8_t_s_u>
   11852:	0f be c0             	movsbl %al,%eax
   11855:	39 85 bc f0 ff ff    	cmp    %eax,-0xf44(%rbp)
   1185b:	48 8b 85 18 f2 ff ff 	mov    -0xde8(%rbp),%rax
   11862:	48 89 85 e8 f0 ff ff 	mov    %rax,-0xf18(%rbp)
   11869:	48 8b 05 c8 79 00 00 	mov    0x79c8(%rip),%rax        # 19238 <g_95+0x78>
   11870:	48 85 c0             	test   %rax,%rax
   11873:	75 7f                	jne    118f4 <func_54+0xa76>
   11875:	48 8b 85 30 f1 ff ff 	mov    -0xed0(%rbp),%rax
   1187c:	c7 00 0b 00 00 00    	movl   $0xb,(%rax)
   11882:	48 8b 05 d7 77 00 00 	mov    0x77d7(%rip),%rax        # 19060 <g_75+0x20>
   11889:	0f bf d0             	movswl %ax,%edx
   1188c:	8b 85 44 f4 ff ff    	mov    -0xbbc(%rbp),%eax
   11892:	98                   	cwtl   
   11893:	89 d6                	mov    %edx,%esi
   11895:	89 c7                	mov    %eax,%edi
   11897:	e8 7a 6b ff ff       	callq  8416 <safe_mod_func_int16_t_s_s>
   1189c:	48 0f bf c0          	movswq %ax,%rax
   118a0:	48 0b 85 20 f2 ff ff 	or     -0xde0(%rbp),%rax
   118a7:	48 85 c0             	test   %rax,%rax
   118aa:	74 09                	je     118b5 <func_54+0xa37>
   118ac:	0f b6 05 9d 79 00 00 	movzbl 0x799d(%rip),%eax        # 19250 <g_164>
   118b3:	84 c0                	test   %al,%al
   118b5:	48 8b 95 30 f3 ff ff 	mov    -0xcd0(%rbp),%rdx
   118bc:	48 8d 85 30 f1 ff ff 	lea    -0xed0(%rbp),%rax
   118c3:	48 39 c2             	cmp    %rax,%rdx
   118c6:	0f 94 c0             	sete   %al
   118c9:	0f b6 c0             	movzbl %al,%eax
   118cc:	48 be f9 07 77 dd ce 	movabs $0x46daf4cedd7707f9,%rsi
   118d3:	f4 da 46 
   118d6:	48 89 c7             	mov    %rax,%rdi
   118d9:	e8 d1 77 ff ff       	callq  90af <safe_div_func_uint64_t_u_u>
   118de:	48 89 c2             	mov    %rax,%rdx
   118e1:	48 8b 85 f0 f0 ff ff 	mov    -0xf10(%rbp),%rax
   118e8:	89 10                	mov    %edx,(%rax)
   118ea:	8b 00                	mov    (%rax),%eax
   118ec:	85 c0                	test   %eax,%eax
   118ee:	0f 84 8d 04 00 00    	je     11d81 <func_54+0xf03>
   118f4:	c6 85 30 f0 ff ff 38 	movb   $0x38,-0xfd0(%rbp)
   118fb:	c7 85 28 f1 ff ff 04 	movl   $0x4,-0xed8(%rbp)
   11902:	00 00 00 
   11905:	8b 85 14 f0 ff ff    	mov    -0xfec(%rbp),%eax
   1190b:	48 98                	cltq   
   1190d:	48 39 85 08 f0 ff ff 	cmp    %rax,-0xff8(%rbp)
   11914:	0f 9f c0             	setg   %al
   11917:	0f b6 c0             	movzbl %al,%eax
   1191a:	f7 d0                	not    %eax
   1191c:	48 63 d0             	movslq %eax,%rdx
   1191f:	48 8b 0d 12 79 00 00 	mov    0x7912(%rip),%rcx        # 19238 <g_95+0x78>
   11926:	48 8b 85 18 f0 ff ff 	mov    -0xfe8(%rbp),%rax
   1192d:	48 39 c1             	cmp    %rax,%rcx
   11930:	0f 97 c0             	seta   %al
   11933:	0f b6 c0             	movzbl %al,%eax
   11936:	48 89 d6             	mov    %rdx,%rsi
   11939:	48 89 c7             	mov    %rax,%rdi
   1193c:	e8 b6 70 ff ff       	callq  89f7 <safe_div_func_int64_t_s_s>
   11941:	48 89 c2             	mov    %rax,%rdx
   11944:	48 8b 85 30 f1 ff ff 	mov    -0xed0(%rbp),%rax
   1194b:	89 10                	mov    %edx,(%rax)
   1194d:	8b 00                	mov    (%rax),%eax
   1194f:	85 c0                	test   %eax,%eax
   11951:	0f 84 9b 00 00 00    	je     119f2 <func_54+0xb74>
   11957:	48 8d 05 c8 76 00 00 	lea    0x76c8(%rip),%rax        # 19026 <g_8>
   1195e:	48 89 85 70 f2 ff ff 	mov    %rax,-0xd90(%rbp)
   11965:	48 8d 05 ba 76 00 00 	lea    0x76ba(%rip),%rax        # 19026 <g_8>
   1196c:	48 89 85 70 f2 ff ff 	mov    %rax,-0xd90(%rbp)
   11973:	48 8b 85 f8 f0 ff ff 	mov    -0xf08(%rbp),%rax
   1197a:	48 39 85 70 f2 ff ff 	cmp    %rax,-0xd90(%rbp)
   11981:	0f 94 c0             	sete   %al
   11984:	0f b6 c8             	movzbl %al,%ecx
   11987:	48 8b 85 30 f1 ff ff 	mov    -0xed0(%rbp),%rax
   1198e:	8b 10                	mov    (%rax),%edx
   11990:	48 8b 85 30 f1 ff ff 	mov    -0xed0(%rbp),%rax
   11997:	31 ca                	xor    %ecx,%edx
   11999:	89 10                	mov    %edx,(%rax)
   1199b:	8b 85 14 f0 ff ff    	mov    -0xfec(%rbp),%eax
   119a1:	89 05 2d 77 00 00    	mov    %eax,0x772d(%rip)        # 190d4 <g_77+0x54>
   119a7:	48 8b 85 f0 f0 ff ff 	mov    -0xf10(%rbp),%rax
   119ae:	8b 00                	mov    (%rax),%eax
   119b0:	89 c2                	mov    %eax,%edx
   119b2:	48 8b 05 0f 78 00 00 	mov    0x780f(%rip),%rax        # 191c8 <g_95+0x8>
   119b9:	21 c2                	and    %eax,%edx
   119bb:	48 8b 85 f0 f0 ff ff 	mov    -0xf10(%rbp),%rax
   119c2:	89 10                	mov    %edx,(%rax)
   119c4:	48 8b 95 30 f1 ff ff 	mov    -0xed0(%rbp),%rdx
   119cb:	8b 00                	mov    (%rax),%eax
   119cd:	89 02                	mov    %eax,(%rdx)
   119cf:	0f b6 05 7a 78 00 00 	movzbl 0x787a(%rip),%eax        # 19250 <g_164>
   119d6:	84 c0                	test   %al,%al
   119d8:	0f 84 dc 02 00 00    	je     11cba <func_54+0xe3c>
   119de:	8b 05 68 78 00 00    	mov    0x7868(%rip),%eax        # 1924c <g_135>
   119e4:	83 c0 01             	add    $0x1,%eax
   119e7:	89 05 5f 78 00 00    	mov    %eax,0x785f(%rip)        # 1924c <g_135>
   119ed:	e9 e3 03 00 00       	jmpq   11dd5 <func_54+0xf57>
   119f2:	48 c7 85 40 f1 ff ff 	movq   $0x0,-0xec0(%rbp)
   119f9:	00 00 00 00 
   119fd:	48 8d 85 40 f1 ff ff 	lea    -0xec0(%rbp),%rax
   11a04:	48 89 85 90 f3 ff ff 	mov    %rax,-0xc70(%rbp)
   11a0b:	48 8d 85 40 f1 ff ff 	lea    -0xec0(%rbp),%rax
   11a12:	48 89 85 98 f3 ff ff 	mov    %rax,-0xc68(%rbp)
   11a19:	48 8d 85 40 f1 ff ff 	lea    -0xec0(%rbp),%rax
   11a20:	48 89 85 a0 f3 ff ff 	mov    %rax,-0xc60(%rbp)
   11a27:	48 8d 85 40 f1 ff ff 	lea    -0xec0(%rbp),%rax
   11a2e:	48 89 85 a8 f3 ff ff 	mov    %rax,-0xc58(%rbp)
   11a35:	48 8d 85 40 f1 ff ff 	lea    -0xec0(%rbp),%rax
   11a3c:	48 89 85 b0 f3 ff ff 	mov    %rax,-0xc50(%rbp)
   11a43:	48 8d 85 40 f1 ff ff 	lea    -0xec0(%rbp),%rax
   11a4a:	48 89 85 b8 f3 ff ff 	mov    %rax,-0xc48(%rbp)
   11a51:	48 8d 85 40 f1 ff ff 	lea    -0xec0(%rbp),%rax
   11a58:	48 89 85 c0 f3 ff ff 	mov    %rax,-0xc40(%rbp)
   11a5f:	48 8d 85 40 f1 ff ff 	lea    -0xec0(%rbp),%rax
   11a66:	48 89 85 c8 f3 ff ff 	mov    %rax,-0xc38(%rbp)
   11a6d:	48 8d 85 40 f1 ff ff 	lea    -0xec0(%rbp),%rax
   11a74:	48 89 85 d0 f3 ff ff 	mov    %rax,-0xc30(%rbp)
   11a7b:	c7 85 48 f0 ff ff 00 	movl   $0x0,-0xfb8(%rbp)
   11a82:	00 00 00 
   11a85:	eb 49                	jmp    11ad0 <func_54+0xc52>
   11a87:	c7 85 4c f0 ff ff 00 	movl   $0x0,-0xfb4(%rbp)
   11a8e:	00 00 00 
   11a91:	eb 2d                	jmp    11ac0 <func_54+0xc42>
   11a93:	8b 85 4c f0 ff ff    	mov    -0xfb4(%rbp),%eax
   11a99:	48 98                	cltq   
   11a9b:	8b 95 48 f0 ff ff    	mov    -0xfb8(%rbp),%edx
   11aa1:	48 63 d2             	movslq %edx,%rdx
   11aa4:	48 01 d2             	add    %rdx,%rdx
   11aa7:	48 01 d0             	add    %rdx,%rax
   11aaa:	48 8d 15 df 76 00 00 	lea    0x76df(%rip),%rdx        # 19190 <g_77+0x110>
   11ab1:	48 89 94 c5 b0 f2 ff 	mov    %rdx,-0xd50(%rbp,%rax,8)
   11ab8:	ff 
   11ab9:	83 85 4c f0 ff ff 01 	addl   $0x1,-0xfb4(%rbp)
   11ac0:	83 bd 4c f0 ff ff 01 	cmpl   $0x1,-0xfb4(%rbp)
   11ac7:	7e ca                	jle    11a93 <func_54+0xc15>
   11ac9:	83 85 48 f0 ff ff 01 	addl   $0x1,-0xfb8(%rbp)
   11ad0:	83 bd 48 f0 ff ff 00 	cmpl   $0x0,-0xfb8(%rbp)
   11ad7:	7e ae                	jle    11a87 <func_54+0xc09>
   11ad9:	48 8b 85 30 f1 ff ff 	mov    -0xed0(%rbp),%rax
   11ae0:	c7 00 00 b6 0c 6e    	movl   $0x6e0cb600,(%rax)
   11ae6:	48 8b 85 18 f0 ff ff 	mov    -0xfe8(%rbp),%rax
   11aed:	0f b7 d8             	movzwl %ax,%ebx
   11af0:	8b 85 24 f4 ff ff    	mov    -0xbdc(%rbp),%eax
   11af6:	85 c0                	test   %eax,%eax
   11af8:	75 19                	jne    11b13 <func_54+0xc95>
   11afa:	48 8b 05 07 77 00 00 	mov    0x7707(%rip),%rax        # 19208 <g_95+0x48>
   11b01:	48 89 c6             	mov    %rax,%rsi
   11b04:	bf 00 00 00 00       	mov    $0x0,%edi
   11b09:	e8 9a 6d ff ff       	callq  88a8 <safe_sub_func_int64_t_s_s>
   11b0e:	48 85 c0             	test   %rax,%rax
   11b11:	75 07                	jne    11b1a <func_54+0xc9c>
   11b13:	b8 01 00 00 00       	mov    $0x1,%eax
   11b18:	eb 05                	jmp    11b1f <func_54+0xca1>
   11b1a:	b8 00 00 00 00       	mov    $0x0,%eax
   11b1f:	44 0f bf e0          	movswl %ax,%r12d
   11b23:	8b 05 7f 77 00 00    	mov    0x777f(%rip),%eax        # 192a8 <g_204>
   11b29:	0f b7 c0             	movzwl %ax,%eax
   11b2c:	be 09 00 00 00       	mov    $0x9,%esi
   11b31:	89 c7                	mov    %eax,%edi
   11b33:	e8 10 73 ff ff       	callq  8e48 <safe_rshift_func_uint16_t_u_s>
   11b38:	98                   	cwtl   
   11b39:	44 89 e6             	mov    %r12d,%esi
   11b3c:	89 c7                	mov    %eax,%edi
   11b3e:	e8 b2 68 ff ff       	callq  83f5 <safe_mul_func_int16_t_s_s>
   11b43:	48 8b 95 50 f2 ff ff 	mov    -0xdb0(%rbp),%rdx
   11b4a:	0f b7 12             	movzwl (%rdx),%edx
   11b4d:	31 d0                	xor    %edx,%eax
   11b4f:	89 c2                	mov    %eax,%edx
   11b51:	48 8b 85 50 f2 ff ff 	mov    -0xdb0(%rbp),%rax
   11b58:	66 89 10             	mov    %dx,(%rax)
   11b5b:	48 8b 85 50 f2 ff ff 	mov    -0xdb0(%rbp),%rax
   11b62:	0f b7 00             	movzwl (%rax),%eax
   11b65:	41 89 c6             	mov    %eax,%r14d
   11b68:	48 8b 85 18 f0 ff ff 	mov    -0xfe8(%rbp),%rax
   11b6f:	44 0f b7 e0          	movzwl %ax,%r12d
   11b73:	48 8b 05 8e 76 00 00 	mov    0x768e(%rip),%rax        # 19208 <g_95+0x48>
   11b7a:	44 0f bf e8          	movswl %ax,%r13d
   11b7e:	80 85 30 f0 ff ff 01 	addb   $0x1,-0xfd0(%rbp)
   11b85:	48 c7 05 c0 be 00 00 	movq   $0x0,0xbec0(%rip)        # 1da50 <g_253>
   11b8c:	00 00 00 00 
   11b90:	48 8b 15 b9 be 00 00 	mov    0xbeb9(%rip),%rdx        # 1da50 <g_253>
   11b97:	48 8d 85 e8 f0 ff ff 	lea    -0xf18(%rbp),%rax
   11b9e:	48 39 c2             	cmp    %rax,%rdx
   11ba1:	0f 95 c0             	setne  %al
   11ba4:	8b 35 96 76 00 00    	mov    0x7696(%rip),%esi        # 19240 <g_97>
   11baa:	0f b6 c0             	movzbl %al,%eax
   11bad:	89 f2                	mov    %esi,%edx
   11baf:	48 8d 0c d5 00 00 00 	lea    0x0(,%rdx,8),%rcx
   11bb6:	00 
   11bb7:	48 8d 15 82 74 00 00 	lea    0x7482(%rip),%rdx        # 19040 <g_75>
   11bbe:	48 89 04 11          	mov    %rax,(%rcx,%rdx,1)
   11bc2:	89 f0                	mov    %esi,%eax
   11bc4:	48 8d 14 c5 00 00 00 	lea    0x0(,%rax,8),%rdx
   11bcb:	00 
   11bcc:	48 8d 05 6d 74 00 00 	lea    0x746d(%rip),%rax        # 19040 <g_75>
   11bd3:	48 8b 04 02          	mov    (%rdx,%rax,1),%rax
   11bd7:	48 be 12 f0 15 00 1a 	movabs $0xd1089f1a0015f012,%rsi
   11bde:	9f 08 d1 
   11be1:	48 89 c7             	mov    %rax,%rdi
   11be4:	e8 58 6c ff ff       	callq  8841 <safe_add_func_int64_t_s_s>
   11be9:	8b 95 44 f4 ff ff    	mov    -0xbbc(%rbp),%edx
   11bef:	48 63 d2             	movslq %edx,%rdx
   11bf2:	48 39 d0             	cmp    %rdx,%rax
   11bf5:	83 bd c4 f0 ff ff 08 	cmpl   $0x8,-0xf3c(%rbp)
   11bfc:	0f 97 c0             	seta   %al
   11bff:	0f b6 c0             	movzbl %al,%eax
   11c02:	44 89 ee             	mov    %r13d,%esi
   11c05:	89 c7                	mov    %eax,%edi
   11c07:	e8 e9 67 ff ff       	callq  83f5 <safe_mul_func_int16_t_s_s>
   11c0c:	0f b7 c0             	movzwl %ax,%eax
   11c0f:	44 89 e6             	mov    %r12d,%esi
   11c12:	89 c7                	mov    %eax,%edi
   11c14:	e8 75 71 ff ff       	callq  8d8e <safe_div_func_uint16_t_u_u>
   11c19:	66 83 f8 05          	cmp    $0x5,%ax
   11c1d:	0f 95 c0             	setne  %al
   11c20:	0f b6 c0             	movzbl %al,%eax
   11c23:	44 09 f0             	or     %r14d,%eax
   11c26:	66 89 85 36 f0 ff ff 	mov    %ax,-0xfca(%rbp)
   11c2d:	0f bf 95 36 f0 ff ff 	movswl -0xfca(%rbp),%edx
   11c34:	48 8b 85 f0 f0 ff ff 	mov    -0xf10(%rbp),%rax
   11c3b:	8b 00                	mov    (%rax),%eax
   11c3d:	21 c2                	and    %eax,%edx
   11c3f:	8b 05 03 76 00 00    	mov    0x7603(%rip),%eax        # 19248 <g_113>
   11c45:	0f b7 c0             	movzwl %ax,%eax
   11c48:	89 d6                	mov    %edx,%esi
   11c4a:	89 c7                	mov    %eax,%edi
   11c4c:	e8 f7 71 ff ff       	callq  8e48 <safe_rshift_func_uint16_t_u_s>
   11c51:	44 0f b7 e0          	movzwl %ax,%r12d
   11c55:	8b 05 31 75 00 00    	mov    0x7531(%rip),%eax        # 1918c <g_77+0x10c>
   11c5b:	0f b6 c0             	movzbl %al,%eax
   11c5e:	be 03 00 00 00       	mov    $0x3,%esi
   11c63:	89 c7                	mov    %eax,%edi
   11c65:	e8 54 70 ff ff       	callq  8cbe <safe_rshift_func_uint8_t_u_u>
   11c6a:	0f b6 c0             	movzbl %al,%eax
   11c6d:	4c 89 e6             	mov    %r12,%rsi
   11c70:	48 89 c7             	mov    %rax,%rdi
   11c73:	e8 c9 6b ff ff       	callq  8841 <safe_add_func_int64_t_s_s>
   11c78:	0f b7 c0             	movzwl %ax,%eax
   11c7b:	89 de                	mov    %ebx,%esi
   11c7d:	89 c7                	mov    %eax,%edi
   11c7f:	e8 0a 71 ff ff       	callq  8d8e <safe_div_func_uint16_t_u_u>
   11c84:	8b 85 28 f1 ff ff    	mov    -0xed8(%rbp),%eax
   11c8a:	83 f8 f9             	cmp    $0xfffffff9,%eax
   11c8d:	0f 9c c2             	setl   %dl
   11c90:	48 8b 85 30 f1 ff ff 	mov    -0xed0(%rbp),%rax
   11c97:	0f b6 d2             	movzbl %dl,%edx
   11c9a:	89 10                	mov    %edx,(%rax)
   11c9c:	48 8b 85 b0 f2 ff ff 	mov    -0xd50(%rbp),%rax
   11ca3:	48 89 85 10 f2 ff ff 	mov    %rax,-0xdf0(%rbp)
   11caa:	48 8b 95 18 f0 ff ff 	mov    -0xfe8(%rbp),%rdx
   11cb1:	48 8b 85 30 f1 ff ff 	mov    -0xed0(%rbp),%rax
   11cb8:	89 10                	mov    %edx,(%rax)
   11cba:	48 8b 85 f0 f0 ff ff 	mov    -0xf10(%rbp),%rax
   11cc1:	8b 08                	mov    (%rax),%ecx
   11cc3:	48 8b 05 96 bd 00 00 	mov    0xbd96(%rip),%rax        # 1da60 <g_258>
   11cca:	48 85 c0             	test   %rax,%rax
   11ccd:	0f 94 c0             	sete   %al
   11cd0:	0f b6 d0             	movzbl %al,%edx
   11cd3:	48 8b 85 f0 f0 ff ff 	mov    -0xf10(%rbp),%rax
   11cda:	09 ca                	or     %ecx,%edx
   11cdc:	89 10                	mov    %edx,(%rax)
   11cde:	48 8b 85 30 f1 ff ff 	mov    -0xed0(%rbp),%rax
   11ce5:	8b 00                	mov    (%rax),%eax
   11ce7:	85 c0                	test   %eax,%eax
   11ce9:	74 34                	je     11d1f <func_54+0xea1>
   11ceb:	c6 85 31 f0 ff ff 01 	movb   $0x1,-0xfcf(%rbp)
   11cf2:	0f b6 85 31 f0 ff ff 	movzbl -0xfcf(%rbp),%eax
   11cf9:	83 c0 01             	add    $0x1,%eax
   11cfc:	88 85 31 f0 ff ff    	mov    %al,-0xfcf(%rbp)
   11d02:	48 8b 85 f0 f0 ff ff 	mov    -0xf10(%rbp),%rax
   11d09:	8b 10                	mov    (%rax),%edx
   11d0b:	48 8b 85 f0 f0 ff ff 	mov    -0xf10(%rbp),%rax
   11d12:	0b 95 14 f0 ff ff    	or     -0xfec(%rbp),%edx
   11d18:	89 10                	mov    %edx,(%rax)
   11d1a:	e9 ab 00 00 00       	jmpq   11dca <func_54+0xf4c>
   11d1f:	48 c7 85 78 f2 ff ff 	movq   $0x0,-0xd88(%rbp)
   11d26:	00 00 00 00 
   11d2a:	48 8b 85 50 f2 ff ff 	mov    -0xdb0(%rbp),%rax
   11d31:	0f b7 00             	movzwl (%rax),%eax
   11d34:	8d 50 ff             	lea    -0x1(%rax),%edx
   11d37:	48 8b 85 50 f2 ff ff 	mov    -0xdb0(%rbp),%rax
   11d3e:	66 89 10             	mov    %dx,(%rax)
   11d41:	48 8b 85 50 f2 ff ff 	mov    -0xdb0(%rbp),%rax
   11d48:	0f b7 00             	movzwl (%rax),%eax
   11d4b:	0f b7 c0             	movzwl %ax,%eax
   11d4e:	be 04 00 00 00       	mov    $0x4,%esi
   11d53:	89 c7                	mov    %eax,%edi
   11d55:	e8 ee 70 ff ff       	callq  8e48 <safe_rshift_func_uint16_t_u_s>
   11d5a:	48 8b 95 f0 f0 ff ff 	mov    -0xf10(%rbp),%rdx
   11d61:	8b 0a                	mov    (%rdx),%ecx
   11d63:	0f b7 d0             	movzwl %ax,%edx
   11d66:	48 8b 85 f0 f0 ff ff 	mov    -0xf10(%rbp),%rax
   11d6d:	21 ca                	and    %ecx,%edx
   11d6f:	89 10                	mov    %edx,(%rax)
   11d71:	48 8d 85 28 f1 ff ff 	lea    -0xed8(%rbp),%rax
   11d78:	48 89 85 78 f2 ff ff 	mov    %rax,-0xd88(%rbp)
   11d7f:	eb 49                	jmp    11dca <func_54+0xf4c>
   11d81:	48 8d 85 38 f1 ff ff 	lea    -0xec8(%rbp),%rax
   11d88:	48 89 85 68 f2 ff ff 	mov    %rax,-0xd98(%rbp)
   11d8f:	c7 85 cc f0 ff ff e4 	movl   $0x681518e4,-0xf34(%rbp)
   11d96:	18 15 68 
   11d99:	48 8b 95 38 f1 ff ff 	mov    -0xec8(%rbp),%rdx
   11da0:	48 8b 85 68 f2 ff ff 	mov    -0xd98(%rbp),%rax
   11da7:	48 89 10             	mov    %rdx,(%rax)
   11daa:	48 8b 85 68 f2 ff ff 	mov    -0xd98(%rbp),%rax
   11db1:	48 8b 10             	mov    (%rax),%rdx
   11db4:	48 8b 05 ad a2 00 00 	mov    0xa2ad(%rip),%rax        # 1c068 <g_274>
   11dbb:	48 39 c2             	cmp    %rax,%rdx
   11dbe:	0f 94 c0             	sete   %al
   11dc1:	0f b6 c0             	movzbl %al,%eax
   11dc4:	89 85 cc f0 ff ff    	mov    %eax,-0xf34(%rbp)
   11dca:	8b 05 d0 73 00 00    	mov    0x73d0(%rip),%eax        # 191a0 <g_88>
   11dd0:	e9 4a 11 00 00       	jmpq   12f1f <func_54+0x20a1>
   11dd5:	8b 05 71 74 00 00    	mov    0x7471(%rip),%eax        # 1924c <g_135>
   11ddb:	83 f8 04             	cmp    $0x4,%eax
   11dde:	0f 86 cc f8 ff ff    	jbe    116b0 <func_54+0x832>
   11de4:	48 8b 85 18 f0 ff ff 	mov    -0xfe8(%rbp),%rax
   11deb:	48 85 c0             	test   %rax,%rax
   11dee:	74 08                	je     11df8 <func_54+0xf7a>
   11df0:	8b 05 4a 74 00 00    	mov    0x744a(%rip),%eax        # 19240 <g_97>
   11df6:	85 c0                	test   %eax,%eax
   11df8:	48 83 bd 28 f2 ff ff 	cmpq   $0x0,-0xdd8(%rbp)
   11dff:	00 
   11e00:	8b 1d ce 72 00 00    	mov    0x72ce(%rip),%ebx        # 190d4 <g_77+0x54>
   11e06:	48 8b 15 c3 73 00 00 	mov    0x73c3(%rip),%rdx        # 191d0 <g_95+0x10>
   11e0d:	48 8b 05 54 a2 00 00 	mov    0xa254(%rip),%rax        # 1c068 <g_274>
   11e14:	48 8b 00             	mov    (%rax),%rax
   11e17:	8b 00                	mov    (%rax),%eax
   11e19:	89 c0                	mov    %eax,%eax
   11e1b:	48 39 85 08 f0 ff ff 	cmp    %rax,-0xff8(%rbp)
   11e22:	0f 9f c0             	setg   %al
   11e25:	0f b6 c0             	movzbl %al,%eax
   11e28:	48 39 c2             	cmp    %rax,%rdx
   11e2b:	0f 94 c0             	sete   %al
   11e2e:	88 05 1c 74 00 00    	mov    %al,0x741c(%rip)        # 19250 <g_164>
   11e34:	0f b6 05 15 74 00 00 	movzbl 0x7415(%rip),%eax        # 19250 <g_164>
   11e3b:	0f b6 c0             	movzbl %al,%eax
   11e3e:	be 04 00 00 00       	mov    $0x4,%esi
   11e43:	89 c7                	mov    %eax,%edi
   11e45:	e8 02 6e ff ff       	callq  8c4c <safe_lshift_func_uint8_t_u_u>
   11e4a:	0f b6 c0             	movzbl %al,%eax
   11e4d:	39 c3                	cmp    %eax,%ebx
   11e4f:	b9 00 00 00 00       	mov    $0x0,%ecx
   11e54:	48 8b 85 48 f2 ff ff 	mov    -0xdb8(%rbp),%rax
   11e5b:	48 8b 10             	mov    (%rax),%rdx
   11e5e:	48 63 c1             	movslq %ecx,%rax
   11e61:	48 21 c2             	and    %rax,%rdx
   11e64:	48 8b 85 48 f2 ff ff 	mov    -0xdb8(%rbp),%rax
   11e6b:	48 89 10             	mov    %rdx,(%rax)
   11e6e:	48 8b 85 48 f2 ff ff 	mov    -0xdb8(%rbp),%rax
   11e75:	48 8b 00             	mov    (%rax),%rax
   11e78:	8b 15 2a 74 00 00    	mov    0x742a(%rip),%edx        # 192a8 <g_204>
   11e7e:	89 d2                	mov    %edx,%edx
   11e80:	48 21 c2             	and    %rax,%rdx
   11e83:	b8 a7 12 63 d8       	mov    $0xd86312a7,%eax
   11e88:	48 39 c2             	cmp    %rax,%rdx
   11e8b:	0f 95 c0             	setne  %al
   11e8e:	0f b6 d0             	movzbl %al,%edx
   11e91:	8b 05 a9 73 00 00    	mov    0x73a9(%rip),%eax        # 19240 <g_97>
   11e97:	39 c2                	cmp    %eax,%edx
   11e99:	0f 96 c2             	setbe  %dl
   11e9c:	48 8b 85 f0 f0 ff ff 	mov    -0xf10(%rbp),%rax
   11ea3:	0f b6 d2             	movzbl %dl,%edx
   11ea6:	89 10                	mov    %edx,(%rax)
   11ea8:	8b 05 9a 73 00 00    	mov    0x739a(%rip),%eax        # 19248 <g_113>
   11eae:	85 c0                	test   %eax,%eax
   11eb0:	75 2a                	jne    11edc <func_54+0x105e>
   11eb2:	c7 85 c0 f0 ff ff f6 	movl   $0xbb9caff6,-0xf40(%rbp)
   11eb9:	af 9c bb 
   11ebc:	8b 05 7e 73 00 00    	mov    0x737e(%rip),%eax        # 19240 <g_97>
   11ec2:	83 c0 01             	add    $0x1,%eax
   11ec5:	89 05 75 73 00 00    	mov    %eax,0x7375(%rip)        # 19240 <g_97>
   11ecb:	8b 05 6f 73 00 00    	mov    0x736f(%rip),%eax        # 19240 <g_97>
   11ed1:	83 f8 04             	cmp    $0x4,%eax
   11ed4:	0f 86 e7 f6 ff ff    	jbe    115c1 <func_54+0x743>
   11eda:	eb 01                	jmp    11edd <func_54+0x105f>
   11edc:	90                   	nop
   11edd:	48 8b 85 18 f0 ff ff 	mov    -0xfe8(%rbp),%rax
   11ee4:	48 85 c0             	test   %rax,%rax
   11ee7:	0f 84 cd 00 00 00    	je     11fba <func_54+0x113c>
   11eed:	48 c7 85 88 f2 ff ff 	movq   $0xfffffffffffffffb,-0xd78(%rbp)
   11ef4:	fb ff ff ff 
   11ef8:	48 8d 05 27 71 00 00 	lea    0x7127(%rip),%rax        # 19026 <g_8>
   11eff:	48 89 85 90 f2 ff ff 	mov    %rax,-0xd70(%rbp)
   11f06:	c7 85 d4 f0 ff ff fb 	movl   $0xfffffffb,-0xf2c(%rbp)
   11f0d:	ff ff ff 
   11f10:	48 8b 05 a9 6b 00 00 	mov    0x6ba9(%rip),%rax        # 18ac0 <l_287.4953+0x20>
   11f17:	48 8d 15 4a a1 00 00 	lea    0xa14a(%rip),%rdx        # 1c068 <g_274>
   11f1e:	48 39 d0             	cmp    %rdx,%rax
   11f21:	0f 95 c0             	setne  %al
   11f24:	0f b6 d0             	movzbl %al,%edx
   11f27:	8b 05 7b 73 00 00    	mov    0x737b(%rip),%eax        # 192a8 <g_204>
   11f2d:	39 c2                	cmp    %eax,%edx
   11f2f:	0f 92 c0             	setb   %al
   11f32:	0f b6 c0             	movzbl %al,%eax
   11f35:	48 89 85 88 f2 ff ff 	mov    %rax,-0xd78(%rbp)
   11f3c:	48 83 bd 90 f2 ff ff 	cmpq   $0x0,-0xd70(%rbp)
   11f43:	00 
   11f44:	0f 95 c0             	setne  %al
   11f47:	0f b6 d8             	movzbl %al,%ebx
   11f4a:	48 8b 85 f0 f0 ff ff 	mov    -0xf10(%rbp),%rax
   11f51:	8b 00                	mov    (%rax),%eax
   11f53:	98                   	cwtl   
   11f54:	be 0f 00 00 00       	mov    $0xf,%esi
   11f59:	89 c7                	mov    %eax,%edi
   11f5b:	e8 03 66 ff ff       	callq  8563 <safe_rshift_func_int16_t_s_u>
   11f60:	48 8b 85 88 f2 ff ff 	mov    -0xd78(%rbp),%rax
   11f67:	89 c2                	mov    %eax,%edx
   11f69:	48 8b 85 90 f2 ff ff 	mov    -0xd70(%rbp),%rax
   11f70:	66 89 10             	mov    %dx,(%rax)
   11f73:	48 8b 85 90 f2 ff ff 	mov    -0xd70(%rbp),%rax
   11f7a:	0f b7 00             	movzwl (%rax),%eax
   11f7d:	0f b7 c0             	movzwl %ax,%eax
   11f80:	89 de                	mov    %ebx,%esi
   11f82:	89 c7                	mov    %eax,%edi
   11f84:	e8 b4 6d ff ff       	callq  8d3d <safe_mul_func_uint16_t_u_u>
   11f89:	0f b7 d0             	movzwl %ax,%edx
   11f8c:	48 8b 85 18 f0 ff ff 	mov    -0xfe8(%rbp),%rax
   11f93:	48 39 c2             	cmp    %rax,%rdx
   11f96:	0f 92 c0             	setb   %al
   11f99:	0f b6 d0             	movzbl %al,%edx
   11f9c:	48 8b 85 18 f0 ff ff 	mov    -0xfe8(%rbp),%rax
   11fa3:	0f be c0             	movsbl %al,%eax
   11fa6:	89 d6                	mov    %edx,%esi
   11fa8:	89 c7                	mov    %eax,%edi
   11faa:	e8 43 62 ff ff       	callq  81f2 <safe_sub_func_int8_t_s_s>
   11faf:	0f be c0             	movsbl %al,%eax
   11fb2:	89 85 d4 f0 ff ff    	mov    %eax,-0xf2c(%rbp)
   11fb8:	eb 43                	jmp    11ffd <func_54+0x117f>
   11fba:	c7 05 7c 72 00 00 00 	movl   $0x0,0x727c(%rip)        # 19240 <g_97>
   11fc1:	00 00 00 
   11fc4:	eb 2c                	jmp    11ff2 <func_54+0x1174>
   11fc6:	c7 85 d0 f0 ff ff 0d 	movl   $0x3d50ff0d,-0xf30(%rbp)
   11fcd:	ff 50 3d 
   11fd0:	48 c7 85 80 f2 ff ff 	movq   $0x1,-0xd80(%rbp)
   11fd7:	01 00 00 00 
   11fdb:	48 83 85 80 f2 ff ff 	addq   $0x1,-0xd80(%rbp)
   11fe2:	01 
   11fe3:	8b 05 57 72 00 00    	mov    0x7257(%rip),%eax        # 19240 <g_97>
   11fe9:	83 c0 01             	add    $0x1,%eax
   11fec:	89 05 4e 72 00 00    	mov    %eax,0x724e(%rip)        # 19240 <g_97>
   11ff2:	8b 05 48 72 00 00    	mov    0x7248(%rip),%eax        # 19240 <g_97>
   11ff8:	83 f8 01             	cmp    $0x1,%eax
   11ffb:	76 c9                	jbe    11fc6 <func_54+0x1148>
   11ffd:	8b 85 14 f0 ff ff    	mov    -0xfec(%rbp),%eax
   12003:	e9 17 0f 00 00       	jmpq   12f1f <func_54+0x20a1>
   12008:	48 8b 05 d9 71 00 00 	mov    0x71d9(%rip),%rax        # 191e8 <g_95+0x28>
   1200f:	48 89 c7             	mov    %rax,%rdi
   12012:	e8 02 70 ff ff       	callq  9019 <safe_unary_minus_func_uint64_t_u>
   12017:	48 8b 95 f8 f0 ff ff 	mov    -0xf08(%rbp),%rdx
   1201e:	48 85 d2             	test   %rdx,%rdx
   12021:	0f 94 c2             	sete   %dl
   12024:	0f b6 d2             	movzbl %dl,%edx
   12027:	48 09 d0             	or     %rdx,%rax
   1202a:	48 89 c2             	mov    %rax,%rdx
   1202d:	48 8b 85 48 f1 ff ff 	mov    -0xeb8(%rbp),%rax
   12034:	48 89 10             	mov    %rdx,(%rax)
   12037:	48 8b 85 48 f1 ff ff 	mov    -0xeb8(%rbp),%rax
   1203e:	48 8b 00             	mov    (%rax),%rax
   12041:	88 85 29 f0 ff ff    	mov    %al,-0xfd7(%rbp)
   12047:	b9 00 00 00 00       	mov    $0x0,%ecx
   1204c:	48 8b 85 f0 f0 ff ff 	mov    -0xf10(%rbp),%rax
   12053:	8b 10                	mov    (%rax),%edx
   12055:	48 8b 85 f0 f0 ff ff 	mov    -0xf10(%rbp),%rax
   1205c:	31 ca                	xor    %ecx,%edx
   1205e:	89 10                	mov    %edx,(%rax)
   12060:	48 c7 85 08 f0 ff ff 	movq   $0x0,-0xff8(%rbp)
   12067:	00 00 00 00 
   1206b:	e9 6a 0d 00 00       	jmpq   12dda <func_54+0x1f5c>
   12070:	48 8d 85 f8 f0 ff ff 	lea    -0xf08(%rbp),%rax
   12077:	48 89 85 18 f1 ff ff 	mov    %rax,-0xee8(%rbp)
   1207e:	48 8d 85 18 f1 ff ff 	lea    -0xee8(%rbp),%rax
   12085:	48 89 85 20 f1 ff ff 	mov    %rax,-0xee0(%rbp)
   1208c:	c7 85 40 f0 ff ff 1c 	movl   $0xc102ae1c,-0xfc0(%rbp)
   12093:	ae 02 c1 
   12096:	c7 85 44 f0 ff ff ae 	movl   $0xa5a5deae,-0xfbc(%rbp)
   1209d:	de a5 a5 
   120a0:	c7 85 3c f0 ff ff 09 	movl   $0x9,-0xfc4(%rbp)
   120a7:	00 00 00 
   120aa:	c7 85 54 f0 ff ff 00 	movl   $0x0,-0xfac(%rbp)
   120b1:	00 00 00 
   120b4:	48 8d 85 b0 f6 ff ff 	lea    -0x950(%rbp),%rax
   120bb:	48 8d 15 1e 96 00 00 	lea    0x961e(%rip),%rdx        # 1b6e0 <g_3529+0x10b4>
   120c2:	b9 50 00 00 00       	mov    $0x50,%ecx
   120c7:	48 89 c7             	mov    %rax,%rdi
   120ca:	48 89 d6             	mov    %rdx,%rsi
   120cd:	f3 48 a5             	rep movsq %ds:(%rsi),%es:(%rdi)
   120d0:	48 8d 05 6d 71 00 00 	lea    0x716d(%rip),%rax        # 19244 <g_101>
   120d7:	48 89 85 98 f1 ff ff 	mov    %rax,-0xe68(%rbp)
   120de:	c6 85 2c f0 ff ff 01 	movb   $0x1,-0xfd4(%rbp)
   120e5:	48 8d 05 c4 71 00 00 	lea    0x71c4(%rip),%rax        # 192b0 <g_386>
   120ec:	48 89 85 a0 f1 ff ff 	mov    %rax,-0xe60(%rbp)
   120f3:	48 8d 85 d8 f0 ff ff 	lea    -0xf28(%rbp),%rax
   120fa:	48 89 85 a8 f1 ff ff 	mov    %rax,-0xe58(%rbp)
   12101:	48 8d 85 e8 f0 ff ff 	lea    -0xf18(%rbp),%rax
   12108:	48 89 85 28 f1 ff ff 	mov    %rax,-0xed8(%rbp)
   1210f:	48 8d 85 28 f1 ff ff 	lea    -0xed8(%rbp),%rax
   12116:	48 89 85 b0 f1 ff ff 	mov    %rax,-0xe50(%rbp)
   1211d:	48 8d 05 2d 71 00 00 	lea    0x712d(%rip),%rax        # 19251 <g_192>
   12124:	48 89 85 b0 f2 ff ff 	mov    %rax,-0xd50(%rbp)
   1212b:	48 8d 05 1f 71 00 00 	lea    0x711f(%rip),%rax        # 19251 <g_192>
   12132:	48 89 85 b8 f2 ff ff 	mov    %rax,-0xd48(%rbp)
   12139:	48 8d 05 11 71 00 00 	lea    0x7111(%rip),%rax        # 19251 <g_192>
   12140:	48 89 85 c0 f2 ff ff 	mov    %rax,-0xd40(%rbp)
   12147:	48 8d 05 03 71 00 00 	lea    0x7103(%rip),%rax        # 19251 <g_192>
   1214e:	48 89 85 c8 f2 ff ff 	mov    %rax,-0xd38(%rbp)
   12155:	48 8d 05 f5 70 00 00 	lea    0x70f5(%rip),%rax        # 19251 <g_192>
   1215c:	48 89 85 d0 f2 ff ff 	mov    %rax,-0xd30(%rbp)
   12163:	48 8d 05 e7 70 00 00 	lea    0x70e7(%rip),%rax        # 19251 <g_192>
   1216a:	48 89 85 d8 f2 ff ff 	mov    %rax,-0xd28(%rbp)
   12171:	c7 85 70 f0 ff ff d8 	movl   $0x8e67a1d8,-0xf90(%rbp)
   12178:	a1 67 8e 
   1217b:	c7 85 74 f0 ff ff 00 	movl   $0x0,-0xf8c(%rbp)
   12182:	00 00 00 
   12185:	48 8d 05 14 70 00 00 	lea    0x7014(%rip),%rax        # 191a0 <g_88>
   1218c:	48 89 85 00 f4 ff ff 	mov    %rax,-0xc00(%rbp)
   12193:	48 8d 85 38 f0 ff ff 	lea    -0xfc8(%rbp),%rax
   1219a:	48 89 85 08 f4 ff ff 	mov    %rax,-0xbf8(%rbp)
   121a1:	48 8d 05 f8 6f 00 00 	lea    0x6ff8(%rip),%rax        # 191a0 <g_88>
   121a8:	48 89 85 10 f4 ff ff 	mov    %rax,-0xbf0(%rbp)
   121af:	48 8d 05 ea 6f 00 00 	lea    0x6fea(%rip),%rax        # 191a0 <g_88>
   121b6:	48 89 85 18 f4 ff ff 	mov    %rax,-0xbe8(%rbp)
   121bd:	48 8d 85 38 f0 ff ff 	lea    -0xfc8(%rbp),%rax
   121c4:	48 89 85 20 f4 ff ff 	mov    %rax,-0xbe0(%rbp)
   121cb:	48 8d 85 38 f0 ff ff 	lea    -0xfc8(%rbp),%rax
   121d2:	48 89 85 28 f4 ff ff 	mov    %rax,-0xbd8(%rbp)
   121d9:	48 8d 05 c0 6f 00 00 	lea    0x6fc0(%rip),%rax        # 191a0 <g_88>
   121e0:	48 89 85 30 f4 ff ff 	mov    %rax,-0xbd0(%rbp)
   121e7:	48 8d 05 b2 6f 00 00 	lea    0x6fb2(%rip),%rax        # 191a0 <g_88>
   121ee:	48 89 85 38 f4 ff ff 	mov    %rax,-0xbc8(%rbp)
   121f5:	48 8d 85 38 f0 ff ff 	lea    -0xfc8(%rbp),%rax
   121fc:	48 89 85 40 f4 ff ff 	mov    %rax,-0xbc0(%rbp)
   12203:	48 8d 05 96 6f 00 00 	lea    0x6f96(%rip),%rax        # 191a0 <g_88>
   1220a:	48 89 85 48 f4 ff ff 	mov    %rax,-0xbb8(%rbp)
   12211:	48 8d 05 88 6f 00 00 	lea    0x6f88(%rip),%rax        # 191a0 <g_88>
   12218:	48 89 85 50 f4 ff ff 	mov    %rax,-0xbb0(%rbp)
   1221f:	48 8d 85 38 f0 ff ff 	lea    -0xfc8(%rbp),%rax
   12226:	48 89 85 58 f4 ff ff 	mov    %rax,-0xba8(%rbp)
   1222d:	48 8d 05 6c 6f 00 00 	lea    0x6f6c(%rip),%rax        # 191a0 <g_88>
   12234:	48 89 85 60 f4 ff ff 	mov    %rax,-0xba0(%rbp)
   1223b:	48 8d 85 38 f0 ff ff 	lea    -0xfc8(%rbp),%rax
   12242:	48 89 85 68 f4 ff ff 	mov    %rax,-0xb98(%rbp)
   12249:	48 8d 85 38 f0 ff ff 	lea    -0xfc8(%rbp),%rax
   12250:	48 89 85 70 f4 ff ff 	mov    %rax,-0xb90(%rbp)
   12257:	48 8d 05 42 6f 00 00 	lea    0x6f42(%rip),%rax        # 191a0 <g_88>
   1225e:	48 89 85 78 f4 ff ff 	mov    %rax,-0xb88(%rbp)
   12265:	48 8d 85 38 f0 ff ff 	lea    -0xfc8(%rbp),%rax
   1226c:	48 89 85 80 f4 ff ff 	mov    %rax,-0xb80(%rbp)
   12273:	48 8d 05 26 6f 00 00 	lea    0x6f26(%rip),%rax        # 191a0 <g_88>
   1227a:	48 89 85 88 f4 ff ff 	mov    %rax,-0xb78(%rbp)
   12281:	48 8d 05 18 6f 00 00 	lea    0x6f18(%rip),%rax        # 191a0 <g_88>
   12288:	48 89 85 90 f4 ff ff 	mov    %rax,-0xb70(%rbp)
   1228f:	48 8d 85 38 f0 ff ff 	lea    -0xfc8(%rbp),%rax
   12296:	48 89 85 98 f4 ff ff 	mov    %rax,-0xb68(%rbp)
   1229d:	66 c7 85 90 f3 ff ff 	movw   $0x9ce8,-0xc70(%rbp)
   122a4:	e8 9c 
   122a6:	66 c7 85 92 f3 ff ff 	movw   $0x2dce,-0xc6e(%rbp)
   122ad:	ce 2d 
   122af:	66 c7 85 94 f3 ff ff 	movw   $0x9ce8,-0xc6c(%rbp)
   122b6:	e8 9c 
   122b8:	66 c7 85 96 f3 ff ff 	movw   $0x2dce,-0xc6a(%rbp)
   122bf:	ce 2d 
   122c1:	66 c7 85 98 f3 ff ff 	movw   $0x9ce8,-0xc68(%rbp)
   122c8:	e8 9c 
   122ca:	66 c7 85 9a f3 ff ff 	movw   $0x2dce,-0xc66(%rbp)
   122d1:	ce 2d 
   122d3:	66 c7 85 9c f3 ff ff 	movw   $0x9ce8,-0xc64(%rbp)
   122da:	e8 9c 
   122dc:	66 c7 85 9e f3 ff ff 	movw   $0x2dce,-0xc62(%rbp)
   122e3:	ce 2d 
   122e5:	66 c7 85 a0 f3 ff ff 	movw   $0x9ce8,-0xc60(%rbp)
   122ec:	e8 9c 
   122ee:	66 c7 85 a2 f3 ff ff 	movw   $0x2dce,-0xc5e(%rbp)
   122f5:	ce 2d 
   122f7:	66 c7 85 a4 f3 ff ff 	movw   $0x9ce8,-0xc5c(%rbp)
   122fe:	e8 9c 
   12300:	66 c7 85 a6 f3 ff ff 	movw   $0x2dce,-0xc5a(%rbp)
   12307:	ce 2d 
   12309:	66 c7 85 a8 f3 ff ff 	movw   $0x9ce8,-0xc58(%rbp)
   12310:	e8 9c 
   12312:	66 c7 85 aa f3 ff ff 	movw   $0x2dce,-0xc56(%rbp)
   12319:	ce 2d 
   1231b:	66 c7 85 ac f3 ff ff 	movw   $0x9ce8,-0xc54(%rbp)
   12322:	e8 9c 
   12324:	66 c7 85 ae f3 ff ff 	movw   $0x2dce,-0xc52(%rbp)
   1232b:	ce 2d 
   1232d:	66 c7 85 b0 f3 ff ff 	movw   $0x9ce8,-0xc50(%rbp)
   12334:	e8 9c 
   12336:	66 c7 85 b2 f3 ff ff 	movw   $0x2dce,-0xc4e(%rbp)
   1233d:	ce 2d 
   1233f:	66 c7 85 b4 f3 ff ff 	movw   $0x9ce8,-0xc4c(%rbp)
   12346:	e8 9c 
   12348:	66 c7 85 b6 f3 ff ff 	movw   $0x2dce,-0xc4a(%rbp)
   1234f:	ce 2d 
   12351:	66 c7 85 b8 f3 ff ff 	movw   $0x9ce8,-0xc48(%rbp)
   12358:	e8 9c 
   1235a:	66 c7 85 ba f3 ff ff 	movw   $0x2dce,-0xc46(%rbp)
   12361:	ce 2d 
   12363:	66 c7 85 bc f3 ff ff 	movw   $0x9ce8,-0xc44(%rbp)
   1236a:	e8 9c 
   1236c:	66 c7 85 be f3 ff ff 	movw   $0x2dce,-0xc42(%rbp)
   12373:	ce 2d 
   12375:	66 c7 85 c0 f3 ff ff 	movw   $0x9ce8,-0xc40(%rbp)
   1237c:	e8 9c 
   1237e:	66 c7 85 c2 f3 ff ff 	movw   $0x2dce,-0xc3e(%rbp)
   12385:	ce 2d 
   12387:	66 c7 85 c4 f3 ff ff 	movw   $0x9ce8,-0xc3c(%rbp)
   1238e:	e8 9c 
   12390:	66 c7 85 c6 f3 ff ff 	movw   $0x2dce,-0xc3a(%rbp)
   12397:	ce 2d 
   12399:	66 c7 85 c8 f3 ff ff 	movw   $0x9ce8,-0xc38(%rbp)
   123a0:	e8 9c 
   123a2:	66 c7 85 ca f3 ff ff 	movw   $0x2dce,-0xc36(%rbp)
   123a9:	ce 2d 
   123ab:	66 c7 85 cc f3 ff ff 	movw   $0x9ce8,-0xc34(%rbp)
   123b2:	e8 9c 
   123b4:	66 c7 85 ce f3 ff ff 	movw   $0x2dce,-0xc32(%rbp)
   123bb:	ce 2d 
   123bd:	66 c7 85 d0 f3 ff ff 	movw   $0x9ce8,-0xc30(%rbp)
   123c4:	e8 9c 
   123c6:	66 c7 85 d2 f3 ff ff 	movw   $0x2dce,-0xc2e(%rbp)
   123cd:	ce 2d 
   123cf:	66 c7 85 d4 f3 ff ff 	movw   $0x9ce8,-0xc2c(%rbp)
   123d6:	e8 9c 
   123d8:	66 c7 85 d6 f3 ff ff 	movw   $0x2dce,-0xc2a(%rbp)
   123df:	ce 2d 
   123e1:	66 c7 85 d8 f3 ff ff 	movw   $0x9ce8,-0xc28(%rbp)
   123e8:	e8 9c 
   123ea:	66 c7 85 da f3 ff ff 	movw   $0x2dce,-0xc26(%rbp)
   123f1:	ce 2d 
   123f3:	66 c7 85 dc f3 ff ff 	movw   $0x9ce8,-0xc24(%rbp)
   123fa:	e8 9c 
   123fc:	66 c7 85 de f3 ff ff 	movw   $0x2dce,-0xc22(%rbp)
   12403:	ce 2d 
   12405:	66 c7 85 e0 f3 ff ff 	movw   $0x9ce8,-0xc20(%rbp)
   1240c:	e8 9c 
   1240e:	66 c7 85 e2 f3 ff ff 	movw   $0x2dce,-0xc1e(%rbp)
   12415:	ce 2d 
   12417:	66 c7 85 e4 f3 ff ff 	movw   $0x9ce8,-0xc1c(%rbp)
   1241e:	e8 9c 
   12420:	66 c7 85 e6 f3 ff ff 	movw   $0x2dce,-0xc1a(%rbp)
   12427:	ce 2d 
   12429:	66 c7 85 e8 f3 ff ff 	movw   $0x9ce8,-0xc18(%rbp)
   12430:	e8 9c 
   12432:	66 c7 85 ea f3 ff ff 	movw   $0x2dce,-0xc16(%rbp)
   12439:	ce 2d 
   1243b:	66 c7 85 ec f3 ff ff 	movw   $0x9ce8,-0xc14(%rbp)
   12442:	e8 9c 
   12444:	66 c7 85 ee f3 ff ff 	movw   $0x2dce,-0xc12(%rbp)
   1244b:	ce 2d 
   1244d:	66 c7 85 f0 f3 ff ff 	movw   $0x9ce8,-0xc10(%rbp)
   12454:	e8 9c 
   12456:	66 c7 85 f2 f3 ff ff 	movw   $0x2dce,-0xc0e(%rbp)
   1245d:	ce 2d 
   1245f:	c7 85 78 f0 ff ff db 	movl   $0x44b288db,-0xf88(%rbp)
   12466:	88 b2 44 
   12469:	c7 85 7c f0 ff ff ff 	movl   $0xffffffff,-0xf84(%rbp)
   12470:	ff ff ff 
   12473:	c7 85 80 f0 ff ff af 	movl   $0xfee529af,-0xf80(%rbp)
   1247a:	29 e5 fe 
   1247d:	c7 85 58 f0 ff ff 00 	movl   $0x0,-0xfa8(%rbp)
   12484:	00 00 00 
   12487:	eb 1a                	jmp    124a3 <func_54+0x1625>
   12489:	8b 85 58 f0 ff ff    	mov    -0xfa8(%rbp),%eax
   1248f:	48 98                	cltq   
   12491:	c7 84 85 98 f2 ff ff 	movl   $0x6e707895,-0xd68(%rbp,%rax,4)
   12498:	95 78 70 6e 
   1249c:	83 85 58 f0 ff ff 01 	addl   $0x1,-0xfa8(%rbp)
   124a3:	83 bd 58 f0 ff ff 00 	cmpl   $0x0,-0xfa8(%rbp)
   124aa:	7e dd                	jle    12489 <func_54+0x160b>
   124ac:	c6 05 9e 6d 00 00 07 	movb   $0x7,0x6d9e(%rip)        # 19251 <g_192>
   124b3:	e9 d8 04 00 00       	jmpq   12990 <func_54+0x1b12>
   124b8:	c7 85 84 f0 ff ff b6 	movl   $0xcbea14b6,-0xf7c(%rbp)
   124bf:	14 ea cb 
   124c2:	c7 85 88 f0 ff ff 00 	movl   $0x0,-0xf78(%rbp)
   124c9:	00 00 00 
   124cc:	48 8d 85 f0 f0 ff ff 	lea    -0xf10(%rbp),%rax
   124d3:	48 89 85 b8 f1 ff ff 	mov    %rax,-0xe48(%rbp)
   124da:	c6 05 63 6d 00 00 00 	movb   $0x0,0x6d63(%rip)        # 19244 <g_101>
   124e1:	e9 44 03 00 00       	jmpq   1282a <func_54+0x19ac>
   124e6:	c7 85 8c f0 ff ff 01 	movl   $0x1,-0xf74(%rbp)
   124ed:	00 00 00 
   124f0:	c7 85 90 f0 ff ff fc 	movl   $0xfffffffc,-0xf70(%rbp)
   124f7:	ff ff ff 
   124fa:	48 8d 85 e0 f2 ff ff 	lea    -0xd20(%rbp),%rax
   12501:	48 89 85 30 f1 ff ff 	mov    %rax,-0xed0(%rbp)
   12508:	48 8d 85 30 f1 ff ff 	lea    -0xed0(%rbp),%rax
   1250f:	48 89 85 38 f1 ff ff 	mov    %rax,-0xec8(%rbp)
   12516:	48 8d 85 38 f1 ff ff 	lea    -0xec8(%rbp),%rax
   1251d:	48 89 85 40 f1 ff ff 	mov    %rax,-0xec0(%rbp)
   12524:	c7 85 5c f0 ff ff 00 	movl   $0x0,-0xfa4(%rbp)
   1252b:	00 00 00 
   1252e:	eb 1a                	jmp    1254a <func_54+0x16cc>
   12530:	8b 85 5c f0 ff ff    	mov    -0xfa4(%rbp),%eax
   12536:	48 98                	cltq   
   12538:	c7 84 85 9c f2 ff ff 	movl   $0x1,-0xd64(%rbp,%rax,4)
   1253f:	01 00 00 00 
   12543:	83 85 5c f0 ff ff 01 	addl   $0x1,-0xfa4(%rbp)
   1254a:	83 bd 5c f0 ff ff 00 	cmpl   $0x0,-0xfa4(%rbp)
   12551:	7e dd                	jle    12530 <func_54+0x16b2>
   12553:	c7 85 5c f0 ff ff 00 	movl   $0x0,-0xfa4(%rbp)
   1255a:	00 00 00 
   1255d:	eb 1e                	jmp    1257d <func_54+0x16ff>
   1255f:	8b 85 5c f0 ff ff    	mov    -0xfa4(%rbp),%eax
   12565:	48 98                	cltq   
   12567:	48 8d 15 d2 6c 00 00 	lea    0x6cd2(%rip),%rdx        # 19240 <g_97>
   1256e:	48 89 94 c5 e0 f2 ff 	mov    %rdx,-0xd20(%rbp,%rax,8)
   12575:	ff 
   12576:	83 85 5c f0 ff ff 01 	addl   $0x1,-0xfa4(%rbp)
   1257d:	83 bd 5c f0 ff ff 00 	cmpl   $0x0,-0xfa4(%rbp)
   12584:	7e d9                	jle    1255f <func_54+0x16e1>
   12586:	0f b6 05 b7 6c 00 00 	movzbl 0x6cb7(%rip),%eax        # 19244 <g_101>
   1258d:	0f b6 c0             	movzbl %al,%eax
   12590:	8d 50 04             	lea    0x4(%rax),%edx
   12593:	0f b6 05 b7 6c 00 00 	movzbl 0x6cb7(%rip),%eax        # 19251 <g_192>
   1259a:	0f be c0             	movsbl %al,%eax
   1259d:	83 c0 01             	add    $0x1,%eax
   125a0:	48 63 c8             	movslq %eax,%rcx
   125a3:	48 63 d2             	movslq %edx,%rdx
   125a6:	48 89 d0             	mov    %rdx,%rax
   125a9:	48 c1 e0 03          	shl    $0x3,%rax
   125ad:	48 01 d0             	add    %rdx,%rax
   125b0:	48 01 c8             	add    %rcx,%rax
   125b3:	48 8d 14 85 00 00 00 	lea    0x0(,%rax,4),%rdx
   125ba:	00 
   125bb:	48 8d 05 be 6a 00 00 	lea    0x6abe(%rip),%rax        # 19080 <g_77>
   125c2:	8b 04 02             	mov    (%rdx,%rax,1),%eax
   125c5:	85 c0                	test   %eax,%eax
   125c7:	0f 84 bb 01 00 00    	je     12788 <func_54+0x190a>
   125cd:	66 c7 85 34 f0 ff ff 	movw   $0xb8d,-0xfcc(%rbp)
   125d4:	8d 0b 
   125d6:	c7 85 94 f0 ff ff 86 	movl   $0xd7f4a686,-0xf6c(%rbp)
   125dd:	a6 f4 d7 
   125e0:	c7 85 98 f0 ff ff a5 	movl   $0x92a632a5,-0xf68(%rbp)
   125e7:	32 a6 92 
   125ea:	c7 85 9c f0 ff ff 94 	movl   $0x4b753794,-0xf64(%rbp)
   125f1:	37 75 4b 
   125f4:	c7 85 a0 f0 ff ff 04 	movl   $0x4,-0xf60(%rbp)
   125fb:	00 00 00 
   125fe:	c7 85 a4 f0 ff ff fc 	movl   $0xfffffffc,-0xf5c(%rbp)
   12605:	ff ff ff 
   12608:	c7 85 a8 f0 ff ff fb 	movl   $0xfffffffb,-0xf58(%rbp)
   1260f:	ff ff ff 
   12612:	c7 85 ac f0 ff ff 08 	movl   $0x8,-0xf54(%rbp)
   12619:	00 00 00 
   1261c:	c7 85 b0 f0 ff ff 00 	movl   $0x0,-0xf50(%rbp)
   12623:	00 00 00 
   12626:	c7 05 18 6c 00 00 01 	movl   $0x1,0x6c18(%rip)        # 19248 <g_113>
   1262d:	00 00 00 
   12630:	e9 3f 01 00 00       	jmpq   12774 <func_54+0x18f6>
   12635:	c7 85 b4 f0 ff ff ff 	movl   $0xffffffff,-0xf4c(%rbp)
   1263c:	ff ff ff 
   1263f:	c7 85 b8 f0 ff ff 19 	movl   $0xb69fdc19,-0xf48(%rbp)
   12646:	dc 9f b6 
   12649:	c7 85 30 f9 ff ff ff 	movl   $0xffffffff,-0x6d0(%rbp)
   12650:	ff ff ff 
   12653:	c7 85 34 f9 ff ff ff 	movl   $0xffffffff,-0x6cc(%rbp)
   1265a:	ff ff ff 
   1265d:	c7 85 38 f9 ff ff ff 	movl   $0xffffffff,-0x6c8(%rbp)
   12664:	ff ff ff 
   12667:	c7 85 3c f9 ff ff ff 	movl   $0xffffffff,-0x6c4(%rbp)
   1266e:	ff ff ff 
   12671:	c7 85 40 f9 ff ff ff 	movl   $0xffffffff,-0x6c0(%rbp)
   12678:	ff ff ff 
   1267b:	48 b8 f2 8a a8 27 e8 	movabs $0xffa1e5e827a88af2,%rax
   12682:	e5 a1 ff 
   12685:	48 89 85 d0 f1 ff ff 	mov    %rax,-0xe30(%rbp)
   1268c:	c6 85 2d f0 ff ff 75 	movb   $0x75,-0xfd3(%rbp)
   12693:	48 8b 85 20 f1 ff ff 	mov    -0xee0(%rbp),%rax
   1269a:	48 85 c0             	test   %rax,%rax
   1269d:	0f 95 c0             	setne  %al
   126a0:	0f b6 d8             	movzbl %al,%ebx
   126a3:	0f b7 85 34 f0 ff ff 	movzwl -0xfcc(%rbp),%eax
   126aa:	0f b6 c0             	movzbl %al,%eax
   126ad:	89 c6                	mov    %eax,%esi
   126af:	bf 24 00 00 00       	mov    $0x24,%edi
   126b4:	e8 f5 64 ff ff       	callq  8bae <safe_mod_func_uint8_t_u_u>
   126b9:	0f b6 d0             	movzbl %al,%edx
   126bc:	48 8b 05 4d 6b 00 00 	mov    0x6b4d(%rip),%rax        # 19210 <g_95+0x50>
   126c3:	48 39 c2             	cmp    %rax,%rdx
   126c6:	0f 95 c0             	setne  %al
   126c9:	0f b6 c0             	movzbl %al,%eax
   126cc:	39 c3                	cmp    %eax,%ebx
   126ce:	0f 9f c1             	setg   %cl
   126d1:	0f b6 05 6c 6b 00 00 	movzbl 0x6b6c(%rip),%eax        # 19244 <g_101>
   126d8:	0f b6 c0             	movzbl %al,%eax
   126db:	8d 70 02             	lea    0x2(%rax),%esi
   126de:	0f b6 05 6c 6b 00 00 	movzbl 0x6b6c(%rip),%eax        # 19251 <g_192>
   126e5:	0f be d0             	movsbl %al,%edx
   126e8:	0f b6 f9             	movzbl %cl,%edi
   126eb:	4c 63 c2             	movslq %edx,%r8
   126ee:	48 63 ce             	movslq %esi,%rcx
   126f1:	48 89 c8             	mov    %rcx,%rax
   126f4:	48 c1 e0 03          	shl    $0x3,%rax
   126f8:	48 01 c8             	add    %rcx,%rax
   126fb:	4c 01 c0             	add    %r8,%rax
   126fe:	48 8d 0c 85 00 00 00 	lea    0x0(,%rax,4),%rcx
   12705:	00 
   12706:	48 8d 05 73 69 00 00 	lea    0x6973(%rip),%rax        # 19080 <g_77>
   1270d:	89 3c 01             	mov    %edi,(%rcx,%rax,1)
   12710:	48 63 ca             	movslq %edx,%rcx
   12713:	48 63 d6             	movslq %esi,%rdx
   12716:	48 89 d0             	mov    %rdx,%rax
   12719:	48 c1 e0 03          	shl    $0x3,%rax
   1271d:	48 01 d0             	add    %rdx,%rax
   12720:	48 01 c8             	add    %rcx,%rax
   12723:	48 8d 14 85 00 00 00 	lea    0x0(,%rax,4),%rdx
   1272a:	00 
   1272b:	48 8d 05 4e 69 00 00 	lea    0x694e(%rip),%rax        # 19080 <g_77>
   12732:	8b 04 02             	mov    (%rdx,%rax,1),%eax
   12735:	31 85 b4 f0 ff ff    	xor    %eax,-0xf4c(%rbp)
   1273b:	0f b6 85 2d f0 ff ff 	movzbl -0xfd3(%rbp),%eax
   12742:	83 e8 01             	sub    $0x1,%eax
   12745:	88 85 2d f0 ff ff    	mov    %al,-0xfd3(%rbp)
   1274b:	c7 05 e3 68 00 00 3b 	movl   $0xc0c6803b,0x68e3(%rip)        # 19038 <g_73+0x8>
   12752:	80 c6 c0 
   12755:	0f b6 05 f5 6a 00 00 	movzbl 0x6af5(%rip),%eax        # 19251 <g_192>
   1275c:	84 c0                	test   %al,%al
   1275e:	74 05                	je     12765 <func_54+0x18e7>
   12760:	e9 e0 ec ff ff       	jmpq   11445 <func_54+0x5c7>
   12765:	8b 05 dd 6a 00 00    	mov    0x6add(%rip),%eax        # 19248 <g_113>
   1276b:	83 c0 01             	add    $0x1,%eax
   1276e:	89 05 d4 6a 00 00    	mov    %eax,0x6ad4(%rip)        # 19248 <g_113>
   12774:	8b 05 ce 6a 00 00    	mov    0x6ace(%rip),%eax        # 19248 <g_113>
   1277a:	83 f8 07             	cmp    $0x7,%eax
   1277d:	0f 86 b2 fe ff ff    	jbe    12635 <func_54+0x17b7>
   12783:	e9 92 00 00 00       	jmpq   1281a <func_54+0x199c>
   12788:	48 b8 18 06 f7 e7 db 	movabs $0xbaf991dbe7f70618,%rax
   1278f:	91 f9 ba 
   12792:	48 89 85 c0 f1 ff ff 	mov    %rax,-0xe40(%rbp)
   12799:	8b 05 a9 6a 00 00    	mov    0x6aa9(%rip),%eax        # 19248 <g_113>
   1279f:	85 c0                	test   %eax,%eax
   127a1:	0f 85 94 00 00 00    	jne    1283b <func_54+0x19bd>
   127a7:	0f b6 05 96 6a 00 00 	movzbl 0x6a96(%rip),%eax        # 19244 <g_101>
   127ae:	84 c0                	test   %al,%al
   127b0:	74 2b                	je     127dd <func_54+0x195f>
   127b2:	48 8d 85 40 f1 ff ff 	lea    -0xec0(%rbp),%rax
   127b9:	48 89 85 c8 f1 ff ff 	mov    %rax,-0xe38(%rbp)
   127c0:	8b 05 82 6a 00 00    	mov    0x6a82(%rip),%eax        # 19248 <g_113>
   127c6:	85 c0                	test   %eax,%eax
   127c8:	75 74                	jne    1283e <func_54+0x19c0>
   127ca:	48 8b 95 40 f1 ff ff 	mov    -0xec0(%rbp),%rdx
   127d1:	48 8b 85 c8 f1 ff ff 	mov    -0xe38(%rbp),%rax
   127d8:	48 89 10             	mov    %rdx,(%rax)
   127db:	eb 1d                	jmp    127fa <func_54+0x197c>
   127dd:	83 bd 88 f0 ff ff 00 	cmpl   $0x0,-0xf78(%rbp)
   127e4:	75 5b                	jne    12841 <func_54+0x19c3>
   127e6:	8b 05 5c 6a 00 00    	mov    0x6a5c(%rip),%eax        # 19248 <g_113>
   127ec:	85 c0                	test   %eax,%eax
   127ee:	75 54                	jne    12844 <func_54+0x19c6>
   127f0:	81 a5 54 f0 ff ff 72 	andl   $0x8d32e372,-0xfac(%rbp)
   127f7:	e3 32 8d 
   127fa:	83 bd 40 f0 ff ff 00 	cmpl   $0x0,-0xfc0(%rbp)
   12801:	74 0c                	je     1280f <func_54+0x1991>
   12803:	48 8b 85 c0 f1 ff ff 	mov    -0xe40(%rbp),%rax
   1280a:	e9 10 07 00 00       	jmpq   12f1f <func_54+0x20a1>
   1280f:	0f b6 05 3b 6a 00 00 	movzbl 0x6a3b(%rip),%eax        # 19251 <g_192>
   12816:	84 c0                	test   %al,%al
   12818:	75 2d                	jne    12847 <func_54+0x19c9>
   1281a:	0f b6 05 23 6a 00 00 	movzbl 0x6a23(%rip),%eax        # 19244 <g_101>
   12821:	83 c0 01             	add    $0x1,%eax
   12824:	88 05 1a 6a 00 00    	mov    %al,0x6a1a(%rip)        # 19244 <g_101>
   1282a:	0f b6 05 13 6a 00 00 	movzbl 0x6a13(%rip),%eax        # 19244 <g_101>
   12831:	3c 01                	cmp    $0x1,%al
   12833:	0f 86 ad fc ff ff    	jbe    124e6 <func_54+0x1668>
   12839:	eb 0d                	jmp    12848 <func_54+0x19ca>
   1283b:	90                   	nop
   1283c:	eb 0a                	jmp    12848 <func_54+0x19ca>
   1283e:	90                   	nop
   1283f:	eb 07                	jmp    12848 <func_54+0x19ca>
   12841:	90                   	nop
   12842:	eb 04                	jmp    12848 <func_54+0x19ca>
   12844:	90                   	nop
   12845:	eb 01                	jmp    12848 <func_54+0x19ca>
   12847:	90                   	nop
   12848:	0f b6 05 02 6a 00 00 	movzbl 0x6a02(%rip),%eax        # 19251 <g_192>
   1284f:	0f be c0             	movsbl %al,%eax
   12852:	0f b6 15 f8 69 00 00 	movzbl 0x69f8(%rip),%edx        # 19251 <g_192>
   12859:	0f be d2             	movsbl %dl,%edx
   1285c:	48 63 ca             	movslq %edx,%rcx
   1285f:	48 63 d0             	movslq %eax,%rdx
   12862:	48 89 d0             	mov    %rdx,%rax
   12865:	48 c1 e0 03          	shl    $0x3,%rax
   12869:	48 01 d0             	add    %rdx,%rax
   1286c:	48 01 c8             	add    %rcx,%rax
   1286f:	48 8d 14 85 00 00 00 	lea    0x0(,%rax,4),%rdx
   12876:	00 
   12877:	48 8d 05 02 68 00 00 	lea    0x6802(%rip),%rax        # 19080 <g_77>
   1287e:	8b 04 02             	mov    (%rdx,%rax,1),%eax
   12881:	85 c0                	test   %eax,%eax
   12883:	0f 85 18 01 00 00    	jne    129a1 <func_54+0x1b23>
   12889:	48 8d 05 c0 97 00 00 	lea    0x97c0(%rip),%rax        # 1c050 <g_259+0x30>
   12890:	48 39 85 b8 f1 ff ff 	cmp    %rax,-0xe48(%rbp)
   12897:	0f 95 c0             	setne  %al
   1289a:	0f b6 c8             	movzbl %al,%ecx
   1289d:	48 8b 95 08 f0 ff ff 	mov    -0xff8(%rbp),%rdx
   128a4:	48 89 d0             	mov    %rdx,%rax
   128a7:	48 c1 e0 02          	shl    $0x2,%rax
   128ab:	48 01 d0             	add    %rdx,%rax
   128ae:	48 c1 e0 03          	shl    $0x3,%rax
   128b2:	48 89 c2             	mov    %rax,%rdx
   128b5:	48 8d 05 c4 67 00 00 	lea    0x67c4(%rip),%rax        # 19080 <g_77>
   128bc:	89 0c 02             	mov    %ecx,(%rdx,%rax,1)
   128bf:	48 8b 85 18 f0 ff ff 	mov    -0xfe8(%rbp),%rax
   128c6:	41 89 c4             	mov    %eax,%r12d
   128c9:	0f b6 05 81 69 00 00 	movzbl 0x6981(%rip),%eax        # 19251 <g_192>
   128d0:	0f be d8             	movsbl %al,%ebx
   128d3:	0f b7 05 4c 67 00 00 	movzwl 0x674c(%rip),%eax        # 19026 <g_8>
   128da:	0f be d0             	movsbl %al,%edx
   128dd:	48 8b 85 18 f0 ff ff 	mov    -0xfe8(%rbp),%rax
   128e4:	48 85 c0             	test   %rax,%rax
   128e7:	0f 94 c0             	sete   %al
   128ea:	0f b6 c0             	movzbl %al,%eax
   128ed:	89 d6                	mov    %edx,%esi
   128ef:	89 c7                	mov    %eax,%edi
   128f1:	e8 1c 59 ff ff       	callq  8212 <safe_mul_func_int8_t_s_s>
   128f6:	0f be c0             	movsbl %al,%eax
   128f9:	89 85 40 f0 ff ff    	mov    %eax,-0xfc0(%rbp)
   128ff:	83 bd 40 f0 ff ff 00 	cmpl   $0x0,-0xfc0(%rbp)
   12906:	c7 85 54 f0 ff ff 01 	movl   $0x1,-0xfac(%rbp)
   1290d:	00 00 00 
   12910:	8b 85 54 f0 ff ff    	mov    -0xfac(%rbp),%eax
   12916:	be bd e0 20 df       	mov    $0xdf20e0bd,%esi
   1291b:	89 c7                	mov    %eax,%edi
   1291d:	e8 94 5c ff ff       	callq  85b6 <safe_add_func_int32_t_s_s>
   12922:	09 d8                	or     %ebx,%eax
   12924:	44 89 e6             	mov    %r12d,%esi
   12927:	89 c7                	mov    %eax,%edi
   12929:	e8 8a 65 ff ff       	callq  8eb8 <safe_add_func_uint32_t_u_u>
   1292e:	0f bf d8             	movswl %ax,%ebx
   12931:	48 8b 85 b8 f1 ff ff 	mov    -0xe48(%rbp),%rax
   12938:	48 8b 00             	mov    (%rax),%rax
   1293b:	8b 00                	mov    (%rax),%eax
   1293d:	0f bf d0             	movswl %ax,%edx
   12940:	8b 85 3c f0 ff ff    	mov    -0xfc4(%rbp),%eax
   12946:	85 c0                	test   %eax,%eax
   12948:	75 0f                	jne    12959 <func_54+0x1adb>
   1294a:	48 8b 85 18 f1 ff ff 	mov    -0xee8(%rbp),%rax
   12951:	48 8b 00             	mov    (%rax),%rax
   12954:	48 85 c0             	test   %rax,%rax
   12957:	74 07                	je     12960 <func_54+0x1ae2>
   12959:	b8 01 00 00 00       	mov    $0x1,%eax
   1295e:	eb 05                	jmp    12965 <func_54+0x1ae7>
   12960:	b8 00 00 00 00       	mov    $0x0,%eax
   12965:	98                   	cwtl   
   12966:	89 d6                	mov    %edx,%esi
   12968:	89 c7                	mov    %eax,%edi
   1296a:	e8 64 5a ff ff       	callq  83d3 <safe_sub_func_int16_t_s_s>
   1296f:	98                   	cwtl   
   12970:	89 de                	mov    %ebx,%esi
   12972:	89 c7                	mov    %eax,%edi
   12974:	e8 3a 5a ff ff       	callq  83b3 <safe_add_func_int16_t_s_s>
   12979:	98                   	cwtl   
   1297a:	31 85 44 f0 ff ff    	xor    %eax,-0xfbc(%rbp)
   12980:	0f b6 05 ca 68 00 00 	movzbl 0x68ca(%rip),%eax        # 19251 <g_192>
   12987:	83 e8 01             	sub    $0x1,%eax
   1298a:	88 05 c1 68 00 00    	mov    %al,0x68c1(%rip)        # 19251 <g_192>
   12990:	0f b6 05 ba 68 00 00 	movzbl 0x68ba(%rip),%eax        # 19251 <g_192>
   12997:	84 c0                	test   %al,%al
   12999:	0f 89 19 fb ff ff    	jns    124b8 <func_54+0x163a>
   1299f:	eb 01                	jmp    129a2 <func_54+0x1b24>
   129a1:	90                   	nop
   129a2:	0f b6 05 a8 68 00 00 	movzbl 0x68a8(%rip),%eax        # 19251 <g_192>
   129a9:	0f b6 d8             	movzbl %al,%ebx
   129ac:	8b 85 14 f0 ff ff    	mov    -0xfec(%rbp),%eax
   129b2:	44 0f b6 e0          	movzbl %al,%r12d
   129b6:	8b 85 3c f0 ff ff    	mov    -0xfc4(%rbp),%eax
   129bc:	89 85 04 f0 ff ff    	mov    %eax,-0xffc(%rbp)
   129c2:	8b 85 54 f0 ff ff    	mov    -0xfac(%rbp),%eax
   129c8:	4c 63 e8             	movslq %eax,%r13
   129cb:	8b 85 3c f0 ff ff    	mov    -0xfc4(%rbp),%eax
   129d1:	44 0f b7 f0          	movzwl %ax,%r14d
   129d5:	0f b7 05 4a 66 00 00 	movzwl 0x664a(%rip),%eax        # 19026 <g_8>
   129dc:	8d 50 01             	lea    0x1(%rax),%edx
   129df:	66 89 15 40 66 00 00 	mov    %dx,0x6640(%rip)        # 19026 <g_8>
   129e6:	0f b7 d0             	movzwl %ax,%edx
   129e9:	8b 85 40 f0 ff ff    	mov    -0xfc0(%rbp),%eax
   129ef:	0f b7 c0             	movzwl %ax,%eax
   129f2:	89 d6                	mov    %edx,%esi
   129f4:	89 c7                	mov    %eax,%edi
   129f6:	e8 61 63 ff ff       	callq  8d5c <safe_mod_func_uint16_t_u_u>
   129fb:	0f b7 c0             	movzwl %ax,%eax
   129fe:	89 05 44 68 00 00    	mov    %eax,0x6844(%rip)        # 19248 <g_113>
   12a04:	8b 05 3e 68 00 00    	mov    0x683e(%rip),%eax        # 19248 <g_113>
   12a0a:	89 85 00 f0 ff ff    	mov    %eax,-0x1000(%rbp)
   12a10:	8b 05 92 68 00 00    	mov    0x6892(%rip),%eax        # 192a8 <g_204>
   12a16:	44 0f bf f8          	movswl %ax,%r15d
   12a1a:	48 8b 05 3f 66 00 00 	mov    0x663f(%rip),%rax        # 19060 <g_75+0x20>
   12a21:	89 c6                	mov    %eax,%esi
   12a23:	bf 03 00 00 00       	mov    $0x3,%edi
   12a28:	e8 a3 64 ff ff       	callq  8ed0 <safe_sub_func_uint32_t_u_u>
   12a2d:	48 8b 05 2c 66 00 00 	mov    0x662c(%rip),%rax        # 19060 <g_75+0x20>
   12a34:	48 85 c0             	test   %rax,%rax
   12a37:	75 09                	jne    12a42 <func_54+0x1bc4>
   12a39:	83 bd 14 f0 ff ff 00 	cmpl   $0x0,-0xfec(%rbp)
   12a40:	74 07                	je     12a49 <func_54+0x1bcb>
   12a42:	b8 01 00 00 00       	mov    $0x1,%eax
   12a47:	eb 05                	jmp    12a4e <func_54+0x1bd0>
   12a49:	b8 00 00 00 00       	mov    $0x0,%eax
   12a4e:	31 85 44 f0 ff ff    	xor    %eax,-0xfbc(%rbp)
   12a54:	48 8b 85 08 f0 ff ff 	mov    -0xff8(%rbp),%rax
   12a5b:	89 c6                	mov    %eax,%esi
   12a5d:	bf b0 79 a9 5b       	mov    $0x5ba979b0,%edi
   12a62:	e8 98 5c ff ff       	callq  86ff <safe_div_func_int32_t_s_s>
   12a67:	8b 8d 14 f0 ff ff    	mov    -0xfec(%rbp),%ecx
   12a6d:	8b 15 35 68 00 00    	mov    0x6835(%rip),%edx        # 192a8 <g_204>
   12a73:	39 d1                	cmp    %edx,%ecx
   12a75:	0f 95 c2             	setne  %dl
   12a78:	0f b6 ca             	movzbl %dl,%ecx
   12a7b:	8b 95 3c f0 ff ff    	mov    -0xfc4(%rbp),%edx
   12a81:	39 d1                	cmp    %edx,%ecx
   12a83:	0f 9d c2             	setge  %dl
   12a86:	0f b6 d2             	movzbl %dl,%edx
   12a89:	39 d0                	cmp    %edx,%eax
   12a8b:	0f 95 c0             	setne  %al
   12a8e:	0f b6 c0             	movzbl %al,%eax
   12a91:	44 89 fe             	mov    %r15d,%esi
   12a94:	89 c7                	mov    %eax,%edi
   12a96:	e8 18 59 ff ff       	callq  83b3 <safe_add_func_int16_t_s_s>
   12a9b:	98                   	cwtl   
   12a9c:	39 85 00 f0 ff ff    	cmp    %eax,-0x1000(%rbp)
   12aa2:	0f 95 c0             	setne  %al
   12aa5:	0f b6 c0             	movzbl %al,%eax
   12aa8:	89 85 38 f0 ff ff    	mov    %eax,-0xfc8(%rbp)
   12aae:	48 8b 85 08 f0 ff ff 	mov    -0xff8(%rbp),%rax
   12ab5:	0f b7 c0             	movzwl %ax,%eax
   12ab8:	44 89 f6             	mov    %r14d,%esi
   12abb:	89 c7                	mov    %eax,%edi
   12abd:	e8 9a 62 ff ff       	callq  8d5c <safe_mod_func_uint16_t_u_u>
   12ac2:	0f b7 c0             	movzwl %ax,%eax
   12ac5:	4c 89 ee             	mov    %r13,%rsi
   12ac8:	48 89 c7             	mov    %rax,%rdi
   12acb:	e8 27 5f ff ff       	callq  89f7 <safe_div_func_int64_t_s_s>
   12ad0:	98                   	cwtl   
   12ad1:	8b b5 04 f0 ff ff    	mov    -0xffc(%rbp),%esi
   12ad7:	89 c7                	mov    %eax,%edi
   12ad9:	e8 85 5a ff ff       	callq  8563 <safe_rshift_func_int16_t_s_u>
   12ade:	0f b6 c0             	movzbl %al,%eax
   12ae1:	44 89 e6             	mov    %r12d,%esi
   12ae4:	89 c7                	mov    %eax,%edi
   12ae6:	e8 f0 60 ff ff       	callq  8bdb <safe_div_func_uint8_t_u_u>
   12aeb:	0f b6 d0             	movzbl %al,%edx
   12aee:	48 8b 85 18 f0 ff ff 	mov    -0xfe8(%rbp),%rax
   12af5:	48 39 c2             	cmp    %rax,%rdx
   12af8:	0f 95 c0             	setne  %al
   12afb:	0f b6 d0             	movzbl %al,%edx
   12afe:	48 8b 85 98 f1 ff ff 	mov    -0xe68(%rbp),%rax
   12b05:	0f b6 00             	movzbl (%rax),%eax
   12b08:	89 c1                	mov    %eax,%ecx
   12b0a:	89 d0                	mov    %edx,%eax
   12b0c:	09 c8                	or     %ecx,%eax
   12b0e:	89 c2                	mov    %eax,%edx
   12b10:	48 8b 85 98 f1 ff ff 	mov    -0xe68(%rbp),%rax
   12b17:	88 10                	mov    %dl,(%rax)
   12b19:	48 8b 85 98 f1 ff ff 	mov    -0xe68(%rbp),%rax
   12b20:	0f b6 00             	movzbl (%rax),%eax
   12b23:	0f b6 c0             	movzbl %al,%eax
   12b26:	be 03 00 00 00       	mov    $0x3,%esi
   12b2b:	89 c7                	mov    %eax,%edi
   12b2d:	e8 5b 61 ff ff       	callq  8c8d <safe_rshift_func_uint8_t_u_s>
   12b32:	84 c0                	test   %al,%al
   12b34:	74 0a                	je     12b40 <func_54+0x1cc2>
   12b36:	48 8b 05 23 65 00 00 	mov    0x6523(%rip),%rax        # 19060 <g_75+0x20>
   12b3d:	48 85 c0             	test   %rax,%rax
   12b40:	0f b6 95 2c f0 ff ff 	movzbl -0xfd4(%rbp),%edx
   12b47:	48 8b 85 a0 f1 ff ff 	mov    -0xe60(%rbp),%rax
   12b4e:	66 89 10             	mov    %dx,(%rax)
   12b51:	48 8b 85 a0 f1 ff ff 	mov    -0xe60(%rbp),%rax
   12b58:	0f b7 00             	movzwl (%rax),%eax
   12b5b:	98                   	cwtl   
   12b5c:	89 c7                	mov    %eax,%edi
   12b5e:	e8 3a 58 ff ff       	callq  839d <safe_unary_minus_func_int16_t_s>
   12b63:	66 3d c6 00          	cmp    $0xc6,%ax
   12b67:	0f 9f c0             	setg   %al
   12b6a:	0f b6 d0             	movzbl %al,%edx
   12b6d:	48 8b 05 4c 5f 00 00 	mov    0x5f4c(%rip),%rax        # 18ac0 <l_287.4953+0x20>
   12b74:	48 85 c0             	test   %rax,%rax
   12b77:	0f 95 c0             	setne  %al
   12b7a:	0f b6 c0             	movzbl %al,%eax
   12b7d:	89 d6                	mov    %edx,%esi
   12b7f:	89 c7                	mov    %eax,%edi
   12b81:	e8 30 5a ff ff       	callq  85b6 <safe_add_func_int32_t_s_s>
   12b86:	48 8b 95 a8 f1 ff ff 	mov    -0xe58(%rbp),%rdx
   12b8d:	48 8b 12             	mov    (%rdx),%rdx
   12b90:	48 98                	cltq   
   12b92:	48 09 c2             	or     %rax,%rdx
   12b95:	48 8b 85 a8 f1 ff ff 	mov    -0xe58(%rbp),%rax
   12b9c:	48 89 10             	mov    %rdx,(%rax)
   12b9f:	48 8b 85 a8 f1 ff ff 	mov    -0xe58(%rbp),%rax
   12ba6:	48 8b 00             	mov    (%rax),%rax
   12ba9:	48 85 c0             	test   %rax,%rax
   12bac:	74 11                	je     12bbf <func_54+0x1d41>
   12bae:	8b 05 98 66 00 00    	mov    0x6698(%rip),%eax        # 1924c <g_135>
   12bb4:	85 c0                	test   %eax,%eax
   12bb6:	74 07                	je     12bbf <func_54+0x1d41>
   12bb8:	b8 01 00 00 00       	mov    $0x1,%eax
   12bbd:	eb 05                	jmp    12bc4 <func_54+0x1d46>
   12bbf:	b8 00 00 00 00       	mov    $0x0,%eax
   12bc4:	0f be c0             	movsbl %al,%eax
   12bc7:	be 07 00 00 00       	mov    $0x7,%esi
   12bcc:	89 c7                	mov    %eax,%edi
   12bce:	e8 62 57 ff ff       	callq  8335 <safe_rshift_func_int8_t_s_s>
   12bd3:	0f b6 c0             	movzbl %al,%eax
   12bd6:	be 07 00 00 00       	mov    $0x7,%esi
   12bdb:	89 c7                	mov    %eax,%edi
   12bdd:	e8 ab 60 ff ff       	callq  8c8d <safe_rshift_func_uint8_t_u_s>
   12be2:	0f b6 c0             	movzbl %al,%eax
   12be5:	89 de                	mov    %ebx,%esi
   12be7:	89 c7                	mov    %eax,%edi
   12be9:	e8 c0 5f ff ff       	callq  8bae <safe_mod_func_uint8_t_u_u>
   12bee:	48 8b 85 b0 f1 ff ff 	mov    -0xe50(%rbp),%rax
   12bf5:	48 8d 95 e8 f0 ff ff 	lea    -0xf18(%rbp),%rdx
   12bfc:	48 89 10             	mov    %rdx,(%rax)
   12bff:	c7 85 38 f0 ff ff 00 	movl   $0x0,-0xfc8(%rbp)
   12c06:	00 00 00 
   12c09:	e9 b5 01 00 00       	jmpq   12dc3 <func_54+0x1f45>
   12c0e:	48 c7 85 d8 f1 ff ff 	movq   $0x0,-0xe28(%rbp)
   12c15:	00 00 00 00 
   12c19:	48 c7 85 e0 f1 ff ff 	movq   $0x0,-0xe20(%rbp)
   12c20:	00 00 00 00 
   12c24:	48 c7 85 e8 f1 ff ff 	movq   $0x0,-0xe18(%rbp)
   12c2b:	00 00 00 00 
   12c2f:	48 8d 85 30 f9 ff ff 	lea    -0x6d0(%rbp),%rax
   12c36:	48 8d 15 23 8d 00 00 	lea    0x8d23(%rip),%rdx        # 1b960 <g_3529+0x1334>
   12c3d:	b9 d2 00 00 00       	mov    $0xd2,%ecx
   12c42:	48 89 c7             	mov    %rax,%rdi
   12c45:	48 89 d6             	mov    %rdx,%rsi
   12c48:	f3 48 a5             	rep movsq %ds:(%rsi),%es:(%rdi)
   12c4b:	48 c7 85 f0 f1 ff ff 	movq   $0x0,-0xe10(%rbp)
   12c52:	00 00 00 00 
   12c56:	48 8d 05 eb 65 00 00 	lea    0x65eb(%rip),%rax        # 19248 <g_113>
   12c5d:	48 89 85 f8 f1 ff ff 	mov    %rax,-0xe08(%rbp)
   12c64:	48 8d 05 05 94 00 00 	lea    0x9405(%rip),%rax        # 1c070 <g_428>
   12c6b:	48 89 85 00 f2 ff ff 	mov    %rax,-0xe00(%rbp)
   12c72:	c6 85 2e f0 ff ff 00 	movb   $0x0,-0xfd2(%rbp)
   12c79:	c6 85 2f f0 ff ff 58 	movb   $0x58,-0xfd1(%rbp)
   12c80:	c7 85 60 f0 ff ff 00 	movl   $0x0,-0xfa0(%rbp)
   12c87:	00 00 00 
   12c8a:	eb 51                	jmp    12cdd <func_54+0x1e5f>
   12c8c:	c7 85 64 f0 ff ff 00 	movl   $0x0,-0xf9c(%rbp)
   12c93:	00 00 00 
   12c96:	eb 35                	jmp    12ccd <func_54+0x1e4f>
   12c98:	8b 85 64 f0 ff ff    	mov    -0xf9c(%rbp),%eax
   12c9e:	48 63 c8             	movslq %eax,%rcx
   12ca1:	8b 85 60 f0 ff ff    	mov    -0xfa0(%rbp),%eax
   12ca7:	48 63 d0             	movslq %eax,%rdx
   12caa:	48 89 d0             	mov    %rdx,%rax
   12cad:	48 01 c0             	add    %rax,%rax
   12cb0:	48 01 d0             	add    %rdx,%rax
   12cb3:	48 8d 14 08          	lea    (%rax,%rcx,1),%rdx
   12cb7:	48 8d 85 3c f0 ff ff 	lea    -0xfc4(%rbp),%rax
   12cbe:	48 89 84 d5 e0 f2 ff 	mov    %rax,-0xd20(%rbp,%rdx,8)
   12cc5:	ff 
   12cc6:	83 85 64 f0 ff ff 01 	addl   $0x1,-0xf9c(%rbp)
   12ccd:	83 bd 64 f0 ff ff 02 	cmpl   $0x2,-0xf9c(%rbp)
   12cd4:	7e c2                	jle    12c98 <func_54+0x1e1a>
   12cd6:	83 85 60 f0 ff ff 01 	addl   $0x1,-0xfa0(%rbp)
   12cdd:	83 bd 60 f0 ff ff 02 	cmpl   $0x2,-0xfa0(%rbp)
   12ce4:	7e a6                	jle    12c8c <func_54+0x1e0e>
   12ce6:	48 8b 85 f0 f0 ff ff 	mov    -0xf10(%rbp),%rax
   12ced:	8b 00                	mov    (%rax),%eax
   12cef:	89 c2                	mov    %eax,%edx
   12cf1:	48 8b 85 08 f0 ff ff 	mov    -0xff8(%rbp),%rax
   12cf8:	0f be c0             	movsbl %al,%eax
   12cfb:	89 d6                	mov    %edx,%esi
   12cfd:	89 c7                	mov    %eax,%edi
   12cff:	e8 ea 55 ff ff       	callq  82ee <safe_lshift_func_int8_t_s_u>
   12d04:	83 bd 40 f0 ff ff 00 	cmpl   $0x0,-0xfc0(%rbp)
   12d0b:	74 08                	je     12d15 <func_54+0x1e97>
   12d0d:	8b 05 25 63 00 00    	mov    0x6325(%rip),%eax        # 19038 <g_73+0x8>
   12d13:	85 c0                	test   %eax,%eax
   12d15:	0f b6 95 2c f0 ff ff 	movzbl -0xfd4(%rbp),%edx
   12d1c:	8b 05 b2 63 00 00    	mov    0x63b2(%rip),%eax        # 190d4 <g_77+0x54>
   12d22:	48 63 c8             	movslq %eax,%rcx
   12d25:	48 8b 85 18 f0 ff ff 	mov    -0xfe8(%rbp),%rax
   12d2c:	48 39 c1             	cmp    %rax,%rcx
   12d2f:	0f 95 c0             	setne  %al
   12d32:	89 c1                	mov    %eax,%ecx
   12d34:	48 8b 85 98 f1 ff ff 	mov    -0xe68(%rbp),%rax
   12d3b:	88 08                	mov    %cl,(%rax)
   12d3d:	48 8b 85 98 f1 ff ff 	mov    -0xe68(%rbp),%rax
   12d44:	0f b6 00             	movzbl (%rax),%eax
   12d47:	0f b6 c0             	movzbl %al,%eax
   12d4a:	89 d6                	mov    %edx,%esi
   12d4c:	89 c7                	mov    %eax,%edi
   12d4e:	e8 07 5e ff ff       	callq  8b5a <safe_add_func_uint8_t_u_u>
   12d53:	0f b6 d0             	movzbl %al,%edx
   12d56:	8b 05 b4 63 00 00    	mov    0x63b4(%rip),%eax        # 19110 <g_77+0x90>
   12d5c:	39 c2                	cmp    %eax,%edx
   12d5e:	0f b6 05 ec 64 00 00 	movzbl 0x64ec(%rip),%eax        # 19251 <g_192>
   12d65:	0f be c0             	movsbl %al,%eax
   12d68:	83 e0 01             	and    $0x1,%eax
   12d6b:	89 c2                	mov    %eax,%edx
   12d6d:	0f b6 05 3e 65 00 00 	movzbl 0x653e(%rip),%eax        # 192b2 <g_403>
   12d74:	09 d0                	or     %edx,%eax
   12d76:	88 05 36 65 00 00    	mov    %al,0x6536(%rip)        # 192b2 <g_403>
   12d7c:	48 8b 85 18 f0 ff ff 	mov    -0xfe8(%rbp),%rax
   12d83:	f7 d0                	not    %eax
   12d85:	0f b7 c0             	movzwl %ax,%eax
   12d88:	be 08 00 00 00       	mov    $0x8,%esi
   12d8d:	89 c7                	mov    %eax,%edi
   12d8f:	e8 2a 60 ff ff       	callq  8dbe <safe_lshift_func_uint16_t_u_s>
   12d94:	66 3d 47 8a          	cmp    $0x8a47,%ax
   12d98:	0f 94 c0             	sete   %al
   12d9b:	0f b6 d0             	movzbl %al,%edx
   12d9e:	48 8b 85 f8 f1 ff ff 	mov    -0xe08(%rbp),%rax
   12da5:	89 10                	mov    %edx,(%rax)
   12da7:	48 8b 85 f0 f0 ff ff 	mov    -0xf10(%rbp),%rax
   12dae:	c7 00 79 92 ef 3b    	movl   $0x3bef9279,(%rax)
   12db4:	8b 85 38 f0 ff ff    	mov    -0xfc8(%rbp),%eax
   12dba:	83 c0 01             	add    $0x1,%eax
   12dbd:	89 85 38 f0 ff ff    	mov    %eax,-0xfc8(%rbp)
   12dc3:	8b 85 38 f0 ff ff    	mov    -0xfc8(%rbp),%eax
   12dc9:	83 f8 01             	cmp    $0x1,%eax
   12dcc:	0f 8e 3c fe ff ff    	jle    12c0e <func_54+0x1d90>
   12dd2:	48 83 85 08 f0 ff ff 	addq   $0x1,-0xff8(%rbp)
   12dd9:	01 
   12dda:	48 83 bd 08 f0 ff ff 	cmpq   $0x7,-0xff8(%rbp)
   12de1:	07 
   12de2:	0f 8e 88 f2 ff ff    	jle    12070 <func_54+0x11f2>
   12de8:	0f be 9d 2b f0 ff ff 	movsbl -0xfd5(%rbp),%ebx
   12def:	8b 95 14 f0 ff ff    	mov    -0xfec(%rbp),%edx
   12df5:	8b 85 68 f0 ff ff    	mov    -0xf98(%rbp),%eax
   12dfb:	f7 d0                	not    %eax
   12dfd:	89 c6                	mov    %eax,%esi
   12dff:	48 8b 85 88 f1 ff ff 	mov    -0xe78(%rbp),%rax
   12e06:	48 8d 0d f3 63 00 00 	lea    0x63f3(%rip),%rcx        # 19200 <g_95+0x40>
   12e0d:	48 89 08             	mov    %rcx,(%rax)
   12e10:	48 8b 85 88 f1 ff ff 	mov    -0xe78(%rbp),%rax
   12e17:	48 8b 08             	mov    (%rax),%rcx
   12e1a:	48 8d 85 18 f0 ff ff 	lea    -0xfe8(%rbp),%rax
   12e21:	48 39 c1             	cmp    %rax,%rcx
   12e24:	0f 95 c0             	setne  %al
   12e27:	0f b6 c8             	movzbl %al,%ecx
   12e2a:	48 83 bd 90 f1 ff ff 	cmpq   $0x0,-0xe70(%rbp)
   12e31:	00 
   12e32:	0f 94 c0             	sete   %al
   12e35:	0f b6 c0             	movzbl %al,%eax
   12e38:	39 c1                	cmp    %eax,%ecx
   12e3a:	0f 9d c0             	setge  %al
   12e3d:	0f b6 c0             	movzbl %al,%eax
   12e40:	39 c6                	cmp    %eax,%esi
   12e42:	0f 93 c0             	setae  %al
   12e45:	0f b6 c0             	movzbl %al,%eax
   12e48:	48 8b 8d 18 f0 ff ff 	mov    -0xfe8(%rbp),%rcx
   12e4f:	31 c8                	xor    %ecx,%eax
   12e51:	98                   	cwtl   
   12e52:	89 d6                	mov    %edx,%esi
   12e54:	89 c7                	mov    %eax,%edi
   12e56:	e8 08 57 ff ff       	callq  8563 <safe_rshift_func_int16_t_s_u>
   12e5b:	0f bf d0             	movswl %ax,%edx
   12e5e:	8b 05 d4 61 00 00    	mov    0x61d4(%rip),%eax        # 19038 <g_73+0x8>
   12e64:	39 c2                	cmp    %eax,%edx
   12e66:	0f 95 c0             	setne  %al
   12e69:	0f b6 d0             	movzbl %al,%edx
   12e6c:	0f b6 05 c1 64 00 00 	movzbl 0x64c1(%rip),%eax        # 19334 <g_699+0x34>
   12e73:	21 d0                	and    %edx,%eax
   12e75:	88 05 b9 64 00 00    	mov    %al,0x64b9(%rip)        # 19334 <g_699+0x34>
   12e7b:	0f b6 05 b2 64 00 00 	movzbl 0x64b2(%rip),%eax        # 19334 <g_699+0x34>
   12e82:	84 c0                	test   %al,%al
   12e84:	74 14                	je     12e9a <func_54+0x201c>
   12e86:	48 8b 05 d3 91 00 00 	mov    0x91d3(%rip),%rax        # 1c060 <g_275>
   12e8d:	8b 00                	mov    (%rax),%eax
   12e8f:	85 c0                	test   %eax,%eax
   12e91:	74 07                	je     12e9a <func_54+0x201c>
   12e93:	b8 01 00 00 00       	mov    $0x1,%eax
   12e98:	eb 05                	jmp    12e9f <func_54+0x2021>
   12e9a:	b8 00 00 00 00       	mov    $0x0,%eax
   12e9f:	0f bf d0             	movswl %ax,%edx
   12ea2:	48 8b 85 f0 f0 ff ff 	mov    -0xf10(%rbp),%rax
   12ea9:	8b 00                	mov    (%rax),%eax
   12eab:	98                   	cwtl   
   12eac:	89 d6                	mov    %edx,%esi
   12eae:	89 c7                	mov    %eax,%edi
   12eb0:	e8 1e 55 ff ff       	callq  83d3 <safe_sub_func_int16_t_s_s>
   12eb5:	0f be c0             	movsbl %al,%eax
   12eb8:	89 de                	mov    %ebx,%esi
   12eba:	89 c7                	mov    %eax,%edi
   12ebc:	e8 74 54 ff ff       	callq  8335 <safe_rshift_func_int8_t_s_s>
   12ec1:	48 8b 85 18 f0 ff ff 	mov    -0xfe8(%rbp),%rax
   12ec8:	48 85 c0             	test   %rax,%rax
   12ecb:	48 8b 85 28 f5 ff ff 	mov    -0xad8(%rbp),%rax
   12ed2:	48 89 85 28 f5 ff ff 	mov    %rax,-0xad8(%rbp)
   12ed9:	48 8b 85 28 f5 ff ff 	mov    -0xad8(%rbp),%rax
   12ee0:	48 c7 85 80 f1 ff ff 	movq   $0x0,-0xe80(%rbp)
   12ee7:	00 00 00 00 
   12eeb:	48 39 85 80 f1 ff ff 	cmp    %rax,-0xe80(%rbp)
   12ef2:	0f 94 c0             	sete   %al
   12ef5:	0f b6 c0             	movzbl %al,%eax
   12ef8:	39 85 6c f0 ff ff    	cmp    %eax,-0xf94(%rbp)
   12efe:	0f 97 c0             	seta   %al
   12f01:	0f b6 c0             	movzbl %al,%eax
   12f04:	48 39 85 08 f0 ff ff 	cmp    %rax,-0xff8(%rbp)
   12f0b:	48 c7 05 3a 91 00 00 	movq   $0x0,0x913a(%rip)        # 1c050 <g_259+0x30>
   12f12:	00 00 00 00 
   12f16:	48 8b 05 cb 92 00 00 	mov    0x92cb(%rip),%rax        # 1c1e8 <g_589>
   12f1d:	8b 00                	mov    (%rax),%eax
   12f1f:	48 8b 5d c8          	mov    -0x38(%rbp),%rbx
   12f23:	64 48 33 1c 25 28 00 	xor    %fs:0x28,%rbx
   12f2a:	00 00 
   12f2c:	74 05                	je     12f33 <func_54+0x20b5>
   12f2e:	e8 3d 51 ff ff       	callq  8070 <__stack_chk_fail@plt>
   12f33:	48 81 c4 d8 0f 00 00 	add    $0xfd8,%rsp
   12f3a:	5b                   	pop    %rbx
   12f3b:	41 5c                	pop    %r12
   12f3d:	41 5d                	pop    %r13
   12f3f:	41 5e                	pop    %r14
   12f41:	41 5f                	pop    %r15
   12f43:	5d                   	pop    %rbp
   12f44:	c3                   	retq   

0000000000012f45 <func_63>:
   12f45:	f3 0f 1e fa          	endbr64 
   12f49:	55                   	push   %rbp
   12f4a:	48 89 e5             	mov    %rsp,%rbp
   12f4d:	41 55                	push   %r13
   12f4f:	41 54                	push   %r12
   12f51:	53                   	push   %rbx
   12f52:	48 81 ec b8 04 00 00 	sub    $0x4b8,%rsp
   12f59:	89 bd 3c fb ff ff    	mov    %edi,-0x4c4(%rbp)
   12f5f:	89 b5 38 fb ff ff    	mov    %esi,-0x4c8(%rbp)
   12f65:	48 89 95 30 fb ff ff 	mov    %rdx,-0x4d0(%rbp)
   12f6c:	64 48 8b 04 25 28 00 	mov    %fs:0x28,%rax
   12f73:	00 00 
   12f75:	48 89 45 d8          	mov    %rax,-0x28(%rbp)
   12f79:	31 c0                	xor    %eax,%eax
   12f7b:	c7 85 00 fc ff ff 5f 	movl   $0x6845925f,-0x400(%rbp)
   12f82:	92 45 68 
   12f85:	c7 85 04 fc ff ff 00 	movl   $0x0,-0x3fc(%rbp)
   12f8c:	00 00 00 
   12f8f:	c7 85 08 fc ff ff 5f 	movl   $0x6845925f,-0x3f8(%rbp)
   12f96:	92 45 68 
   12f99:	c7 85 0c fc ff ff 5f 	movl   $0x6845925f,-0x3f4(%rbp)
   12fa0:	92 45 68 
   12fa3:	c7 85 10 fc ff ff 00 	movl   $0x0,-0x3f0(%rbp)
   12faa:	00 00 00 
   12fad:	c7 85 14 fc ff ff 5f 	movl   $0x6845925f,-0x3ec(%rbp)
   12fb4:	92 45 68 
   12fb7:	c7 85 18 fc ff ff 5f 	movl   $0x6845925f,-0x3e8(%rbp)
   12fbe:	92 45 68 
   12fc1:	48 8d 05 80 62 00 00 	lea    0x6280(%rip),%rax        # 19248 <g_113>
   12fc8:	48 89 85 a0 fb ff ff 	mov    %rax,-0x460(%rbp)
   12fcf:	48 c7 85 98 fb ff ff 	movq   $0x6,-0x468(%rbp)
   12fd6:	06 00 00 00 
   12fda:	c6 85 41 fb ff ff f9 	movb   $0xf9,-0x4bf(%rbp)
   12fe1:	48 8d 85 41 fb ff ff 	lea    -0x4bf(%rbp),%rax
   12fe8:	48 89 85 a8 fb ff ff 	mov    %rax,-0x458(%rbp)
   12fef:	c7 85 58 fb ff ff 80 	movl   $0x826a9580,-0x4a8(%rbp)
   12ff6:	95 6a 82 
   12ff9:	48 8b 15 30 5b 00 00 	mov    0x5b30(%rip),%rdx        # 18b30 <l_71.5154+0x50>
   13000:	8b 85 0c fc ff ff    	mov    -0x3f4(%rbp),%eax
   13006:	48 89 d6             	mov    %rdx,%rsi
   13009:	89 c7                	mov    %eax,%edi
   1300b:	e8 44 0a 00 00       	callq  13a54 <func_67>
   13010:	85 c0                	test   %eax,%eax
   13012:	0f 84 5e 06 00 00    	je     13676 <func_63+0x731>
   13018:	66 c7 85 f8 fb ff ff 	movw   $0xffff,-0x408(%rbp)
   1301f:	ff ff 
   13021:	66 c7 85 fa fb ff ff 	movw   $0xffff,-0x406(%rbp)
   13028:	ff ff 
   1302a:	66 c7 85 fc fb ff ff 	movw   $0xffff,-0x404(%rbp)
   13031:	ff ff 
   13033:	66 c7 85 fe fb ff ff 	movw   $0xffff,-0x402(%rbp)
   1303a:	ff ff 
   1303c:	c7 85 64 fb ff ff 7a 	movl   $0xd481397a,-0x49c(%rbp)
   13043:	39 81 d4 
   13046:	c7 85 68 fb ff ff fc 	movl   $0xfffffffc,-0x498(%rbp)
   1304d:	ff ff ff 
   13050:	c7 85 6c fb ff ff b8 	movl   $0x622b19b8,-0x494(%rbp)
   13057:	19 2b 62 
   1305a:	c7 85 70 fb ff ff fb 	movl   $0xfffffffb,-0x490(%rbp)
   13061:	ff ff ff 
   13064:	66 c7 85 42 fb ff ff 	movw   $0x85bd,-0x4be(%rbp)
   1306b:	bd 85 
   1306d:	c7 85 48 fb ff ff 00 	movl   $0x0,-0x4b8(%rbp)
   13074:	00 00 00 
   13077:	eb 1a                	jmp    13093 <func_63+0x14e>
   13079:	8b 85 48 fb ff ff    	mov    -0x4b8(%rbp),%eax
   1307f:	48 98                	cltq   
   13081:	c7 84 85 f0 fb ff ff 	movl   $0x1,-0x410(%rbp,%rax,4)
   13088:	01 00 00 00 
   1308c:	83 85 48 fb ff ff 01 	addl   $0x1,-0x4b8(%rbp)
   13093:	83 bd 48 fb ff ff 01 	cmpl   $0x1,-0x4b8(%rbp)
   1309a:	7e dd                	jle    13079 <func_63+0x134>
   1309c:	66 c7 05 81 5f 00 00 	movw   $0x0,0x5f81(%rip)        # 19026 <g_8>
   130a3:	00 00 
   130a5:	e9 a6 05 00 00       	jmpq   13650 <func_63+0x70b>
   130aa:	48 8d 85 f8 fb ff ff 	lea    -0x408(%rbp),%rax
   130b1:	48 83 c0 06          	add    $0x6,%rax
   130b5:	48 89 85 d0 fc ff ff 	mov    %rax,-0x330(%rbp)
   130bc:	48 8d 05 63 5f 00 00 	lea    0x5f63(%rip),%rax        # 19026 <g_8>
   130c3:	48 89 85 d8 fc ff ff 	mov    %rax,-0x328(%rbp)
   130ca:	48 8d 85 f8 fb ff ff 	lea    -0x408(%rbp),%rax
   130d1:	48 83 c0 06          	add    $0x6,%rax
   130d5:	48 89 85 e0 fc ff ff 	mov    %rax,-0x320(%rbp)
   130dc:	48 8d 85 f8 fb ff ff 	lea    -0x408(%rbp),%rax
   130e3:	48 89 85 e8 fc ff ff 	mov    %rax,-0x318(%rbp)
   130ea:	48 8d 85 f8 fb ff ff 	lea    -0x408(%rbp),%rax
   130f1:	48 83 c0 04          	add    $0x4,%rax
   130f5:	48 89 85 f0 fc ff ff 	mov    %rax,-0x310(%rbp)
   130fc:	48 8d 85 f8 fb ff ff 	lea    -0x408(%rbp),%rax
   13103:	48 83 c0 04          	add    $0x4,%rax
   13107:	48 89 85 f8 fc ff ff 	mov    %rax,-0x308(%rbp)
   1310e:	48 8d 85 f8 fb ff ff 	lea    -0x408(%rbp),%rax
   13115:	48 83 c0 06          	add    $0x6,%rax
   13119:	48 89 85 00 fd ff ff 	mov    %rax,-0x300(%rbp)
   13120:	48 8d 05 ff 5e 00 00 	lea    0x5eff(%rip),%rax        # 19026 <g_8>
   13127:	48 89 85 08 fd ff ff 	mov    %rax,-0x2f8(%rbp)
   1312e:	48 8d 85 f8 fb ff ff 	lea    -0x408(%rbp),%rax
   13135:	48 83 c0 06          	add    $0x6,%rax
   13139:	48 89 85 10 fd ff ff 	mov    %rax,-0x2f0(%rbp)
   13140:	48 8d 85 f8 fb ff ff 	lea    -0x408(%rbp),%rax
   13147:	48 89 85 18 fd ff ff 	mov    %rax,-0x2e8(%rbp)
   1314e:	48 8d 85 f8 fb ff ff 	lea    -0x408(%rbp),%rax
   13155:	48 83 c0 04          	add    $0x4,%rax
   13159:	48 89 85 20 fd ff ff 	mov    %rax,-0x2e0(%rbp)
   13160:	48 8d 85 f8 fb ff ff 	lea    -0x408(%rbp),%rax
   13167:	48 83 c0 04          	add    $0x4,%rax
   1316b:	48 89 85 28 fd ff ff 	mov    %rax,-0x2d8(%rbp)
   13172:	48 8d 85 f8 fb ff ff 	lea    -0x408(%rbp),%rax
   13179:	48 83 c0 06          	add    $0x6,%rax
   1317d:	48 89 85 30 fd ff ff 	mov    %rax,-0x2d0(%rbp)
   13184:	48 8d 05 9b 5e 00 00 	lea    0x5e9b(%rip),%rax        # 19026 <g_8>
   1318b:	48 89 85 38 fd ff ff 	mov    %rax,-0x2c8(%rbp)
   13192:	48 8d 85 f8 fb ff ff 	lea    -0x408(%rbp),%rax
   13199:	48 83 c0 06          	add    $0x6,%rax
   1319d:	48 89 85 40 fd ff ff 	mov    %rax,-0x2c0(%rbp)
   131a4:	48 8d 85 f8 fb ff ff 	lea    -0x408(%rbp),%rax
   131ab:	48 89 85 48 fd ff ff 	mov    %rax,-0x2b8(%rbp)
   131b2:	48 8d 85 f8 fb ff ff 	lea    -0x408(%rbp),%rax
   131b9:	48 83 c0 04          	add    $0x4,%rax
   131bd:	48 89 85 50 fd ff ff 	mov    %rax,-0x2b0(%rbp)
   131c4:	48 8d 85 f8 fb ff ff 	lea    -0x408(%rbp),%rax
   131cb:	48 83 c0 04          	add    $0x4,%rax
   131cf:	48 89 85 58 fd ff ff 	mov    %rax,-0x2a8(%rbp)
   131d6:	48 8d 85 f8 fb ff ff 	lea    -0x408(%rbp),%rax
   131dd:	48 83 c0 06          	add    $0x6,%rax
   131e1:	48 89 85 60 fd ff ff 	mov    %rax,-0x2a0(%rbp)
   131e8:	48 8d 05 37 5e 00 00 	lea    0x5e37(%rip),%rax        # 19026 <g_8>
   131ef:	48 89 85 68 fd ff ff 	mov    %rax,-0x298(%rbp)
   131f6:	48 8d 85 f8 fb ff ff 	lea    -0x408(%rbp),%rax
   131fd:	48 83 c0 06          	add    $0x6,%rax
   13201:	48 89 85 70 fd ff ff 	mov    %rax,-0x290(%rbp)
   13208:	48 8d 85 f8 fb ff ff 	lea    -0x408(%rbp),%rax
   1320f:	48 89 85 78 fd ff ff 	mov    %rax,-0x288(%rbp)
   13216:	48 8d 85 f8 fb ff ff 	lea    -0x408(%rbp),%rax
   1321d:	48 89 85 80 fd ff ff 	mov    %rax,-0x280(%rbp)
   13224:	48 8d 85 f8 fb ff ff 	lea    -0x408(%rbp),%rax
   1322b:	48 89 85 88 fd ff ff 	mov    %rax,-0x278(%rbp)
   13232:	48 8d 05 07 60 00 00 	lea    0x6007(%rip),%rax        # 19240 <g_97>
   13239:	48 89 85 88 fb ff ff 	mov    %rax,-0x478(%rbp)
   13240:	48 8d 05 fd 5f 00 00 	lea    0x5ffd(%rip),%rax        # 19244 <g_101>
   13247:	48 89 85 d8 fb ff ff 	mov    %rax,-0x428(%rbp)
   1324e:	c7 85 74 fb ff ff 01 	movl   $0x1,-0x48c(%rbp)
   13255:	00 00 00 
   13258:	48 8d 05 e9 5f 00 00 	lea    0x5fe9(%rip),%rax        # 19248 <g_113>
   1325f:	48 89 85 90 fb ff ff 	mov    %rax,-0x470(%rbp)
   13266:	48 8d 85 90 fb ff ff 	lea    -0x470(%rbp),%rax
   1326d:	48 89 85 70 fc ff ff 	mov    %rax,-0x390(%rbp)
   13274:	48 8d 85 88 fb ff ff 	lea    -0x478(%rbp),%rax
   1327b:	48 89 85 78 fc ff ff 	mov    %rax,-0x388(%rbp)
   13282:	48 8d 85 88 fb ff ff 	lea    -0x478(%rbp),%rax
   13289:	48 89 85 80 fc ff ff 	mov    %rax,-0x380(%rbp)
   13290:	48 8d 85 90 fb ff ff 	lea    -0x470(%rbp),%rax
   13297:	48 89 85 88 fc ff ff 	mov    %rax,-0x378(%rbp)
   1329e:	48 8d 85 88 fb ff ff 	lea    -0x478(%rbp),%rax
   132a5:	48 89 85 90 fc ff ff 	mov    %rax,-0x370(%rbp)
   132ac:	48 8d 85 88 fb ff ff 	lea    -0x478(%rbp),%rax
   132b3:	48 89 85 98 fc ff ff 	mov    %rax,-0x368(%rbp)
   132ba:	48 8d 85 90 fb ff ff 	lea    -0x470(%rbp),%rax
   132c1:	48 89 85 a0 fc ff ff 	mov    %rax,-0x360(%rbp)
   132c8:	48 8d 85 88 fb ff ff 	lea    -0x478(%rbp),%rax
   132cf:	48 89 85 a8 fc ff ff 	mov    %rax,-0x358(%rbp)
   132d6:	c7 85 40 fc ff ff e1 	movl   $0x1461a9e1,-0x3c0(%rbp)
   132dd:	a9 61 14 
   132e0:	c7 85 44 fc ff ff e1 	movl   $0x1461a9e1,-0x3bc(%rbp)
   132e7:	a9 61 14 
   132ea:	c7 85 48 fc ff ff e1 	movl   $0x1461a9e1,-0x3b8(%rbp)
   132f1:	a9 61 14 
   132f4:	c7 85 4c fc ff ff e1 	movl   $0x1461a9e1,-0x3b4(%rbp)
   132fb:	a9 61 14 
   132fe:	c7 85 50 fc ff ff e1 	movl   $0x1461a9e1,-0x3b0(%rbp)
   13305:	a9 61 14 
   13308:	c7 85 54 fc ff ff e1 	movl   $0x1461a9e1,-0x3ac(%rbp)
   1330f:	a9 61 14 
   13312:	c7 85 58 fc ff ff e1 	movl   $0x1461a9e1,-0x3a8(%rbp)
   13319:	a9 61 14 
   1331c:	c7 85 5c fc ff ff e1 	movl   $0x1461a9e1,-0x3a4(%rbp)
   13323:	a9 61 14 
   13326:	c7 85 60 fc ff ff e1 	movl   $0x1461a9e1,-0x3a0(%rbp)
   1332d:	a9 61 14 
   13330:	48 c7 85 e0 fb ff ff 	movq   $0x0,-0x420(%rbp)
   13337:	00 00 00 00 
   1333b:	48 b8 01 01 01 01 01 	movabs $0x101010101010101,%rax
   13342:	01 01 01 
   13345:	48 89 45 cf          	mov    %rax,-0x31(%rbp)
   13349:	c6 45 d7 01          	movb   $0x1,-0x29(%rbp)
   1334d:	c7 85 38 fb ff ff 00 	movl   $0x0,-0x4c8(%rbp)
   13354:	00 00 00 
   13357:	eb 7b                	jmp    133d4 <func_63+0x48f>
   13359:	48 8d 05 74 5d 00 00 	lea    0x5d74(%rip),%rax        # 190d4 <g_77+0x54>
   13360:	48 89 85 e8 fb ff ff 	mov    %rax,-0x418(%rbp)
   13367:	8b 05 db a6 00 00    	mov    0xa6db(%rip),%eax        # 1da48 <g_3>
   1336d:	48 98                	cltq   
   1336f:	48 ba 0b b7 4d 82 38 	movabs $0x64bba38824db70b,%rdx
   13376:	ba 4b 06 
   13379:	48 21 c2             	and    %rax,%rdx
   1337c:	8b 85 3c fb ff ff    	mov    -0x4c4(%rbp),%eax
   13382:	48 98                	cltq   
   13384:	48 39 c2             	cmp    %rax,%rdx
   13387:	7c 11                	jl     1339a <func_63+0x455>
   13389:	8b 05 a1 5c 00 00    	mov    0x5ca1(%rip),%eax        # 19030 <g_73>
   1338f:	85 c0                	test   %eax,%eax
   13391:	74 07                	je     1339a <func_63+0x455>
   13393:	b8 01 00 00 00       	mov    $0x1,%eax
   13398:	eb 05                	jmp    1339f <func_63+0x45a>
   1339a:	b8 00 00 00 00       	mov    $0x0,%eax
   1339f:	23 85 3c fb ff ff    	and    -0x4c4(%rbp),%eax
   133a5:	89 c2                	mov    %eax,%edx
   133a7:	48 8b 85 e8 fb ff ff 	mov    -0x418(%rbp),%rax
   133ae:	89 10                	mov    %edx,(%rax)
   133b0:	8b 05 ea 5d 00 00    	mov    0x5dea(%rip),%eax        # 191a0 <g_88>
   133b6:	85 c0                	test   %eax,%eax
   133b8:	0f 94 c0             	sete   %al
   133bb:	0f b6 c0             	movzbl %al,%eax
   133be:	66 89 85 f8 fb ff ff 	mov    %ax,-0x408(%rbp)
   133c5:	8b 85 38 fb ff ff    	mov    -0x4c8(%rbp),%eax
   133cb:	83 c0 01             	add    $0x1,%eax
   133ce:	89 85 38 fb ff ff    	mov    %eax,-0x4c8(%rbp)
   133d4:	8b 85 38 fb ff ff    	mov    -0x4c8(%rbp),%eax
   133da:	83 f8 04             	cmp    $0x4,%eax
   133dd:	0f 86 76 ff ff ff    	jbe    13359 <func_63+0x414>
   133e3:	8b 85 38 fb ff ff    	mov    -0x4c8(%rbp),%eax
   133e9:	0f be c0             	movsbl %al,%eax
   133ec:	83 e0 01             	and    $0x1,%eax
   133ef:	89 c3                	mov    %eax,%ebx
   133f1:	48 c7 05 0c 5e 00 00 	movq   $0xd11f,0x5e0c(%rip)        # 19208 <g_95+0x48>
   133f8:	1f d1 00 00 
   133fc:	be 08 00 00 00       	mov    $0x8,%esi
   13401:	bf 1f d1 00 00       	mov    $0xd11f,%edi
   13406:	e8 b3 59 ff ff       	callq  8dbe <safe_lshift_func_uint16_t_u_s>
   1340b:	0f be c0             	movsbl %al,%eax
   1340e:	89 de                	mov    %ebx,%esi
   13410:	89 c7                	mov    %eax,%edi
   13412:	e8 1a 4e ff ff       	callq  8231 <safe_mod_func_int8_t_s_s>
   13417:	0f be d0             	movsbl %al,%edx
   1341a:	48 8b 85 88 fb ff ff 	mov    -0x478(%rbp),%rax
   13421:	8b 08                	mov    (%rax),%ecx
   13423:	83 e9 01             	sub    $0x1,%ecx
   13426:	89 08                	mov    %ecx,(%rax)
   13428:	8b 00                	mov    (%rax),%eax
   1342a:	31 c2                	xor    %eax,%edx
   1342c:	8b 85 3c fb ff ff    	mov    -0x4c4(%rbp),%eax
   13432:	39 c2                	cmp    %eax,%edx
   13434:	0f 94 c0             	sete   %al
   13437:	89 c2                	mov    %eax,%edx
   13439:	48 8b 85 d8 fb ff ff 	mov    -0x428(%rbp),%rax
   13440:	88 10                	mov    %dl,(%rax)
   13442:	48 8b 85 d8 fb ff ff 	mov    -0x428(%rbp),%rax
   13449:	0f b6 00             	movzbl (%rax),%eax
   1344c:	44 0f b6 e0          	movzbl %al,%r12d
   13450:	8b 85 38 fb ff ff    	mov    -0x4c8(%rbp),%eax
   13456:	85 c0                	test   %eax,%eax
   13458:	75 72                	jne    134cc <func_63+0x587>
   1345a:	8b 9d 3c fb ff ff    	mov    -0x4c4(%rbp),%ebx
   13460:	0f b7 85 fa fb ff ff 	movzwl -0x406(%rbp),%eax
   13467:	0f b7 d0             	movzwl %ax,%edx
   1346a:	8b 85 38 fb ff ff    	mov    -0x4c8(%rbp),%eax
   13470:	85 c0                	test   %eax,%eax
   13472:	74 15                	je     13489 <func_63+0x544>
   13474:	48 8d 85 38 fb ff ff 	lea    -0x4c8(%rbp),%rax
   1347b:	48 89 85 a0 fb ff ff 	mov    %rax,-0x460(%rbp)
   13482:	b8 01 00 00 00       	mov    $0x1,%eax
   13487:	eb 05                	jmp    1348e <func_63+0x549>
   13489:	b8 00 00 00 00       	mov    $0x0,%eax
   1348e:	0f be c0             	movsbl %al,%eax
   13491:	89 d6                	mov    %edx,%esi
   13493:	89 c7                	mov    %eax,%edi
   13495:	e8 d2 4e ff ff       	callq  836c <safe_rshift_func_int8_t_s_u>
   1349a:	3c 05                	cmp    $0x5,%al
   1349c:	0f 96 c0             	setbe  %al
   1349f:	0f b6 d0             	movzbl %al,%edx
   134a2:	8b 05 90 5b 00 00    	mov    0x5b90(%rip),%eax        # 19038 <g_73+0x8>
   134a8:	39 c2                	cmp    %eax,%edx
   134aa:	0f 9f c0             	setg   %al
   134ad:	0f b6 c0             	movzbl %al,%eax
   134b0:	89 de                	mov    %ebx,%esi
   134b2:	89 c7                	mov    %eax,%edi
   134b4:	e8 c1 59 ff ff       	callq  8e7a <safe_rshift_func_uint16_t_u_u>
   134b9:	0f b7 c0             	movzwl %ax,%eax
   134bc:	be 01 00 00 00       	mov    $0x1,%esi
   134c1:	89 c7                	mov    %eax,%edi
   134c3:	e8 35 5a ff ff       	callq  8efd <safe_mod_func_uint32_t_u_u>
   134c8:	85 c0                	test   %eax,%eax
   134ca:	74 07                	je     134d3 <func_63+0x58e>
   134cc:	b8 01 00 00 00       	mov    $0x1,%eax
   134d1:	eb 05                	jmp    134d8 <func_63+0x593>
   134d3:	b8 00 00 00 00       	mov    $0x0,%eax
   134d8:	44 09 e0             	or     %r12d,%eax
   134db:	85 c0                	test   %eax,%eax
   134dd:	74 0c                	je     134eb <func_63+0x5a6>
   134df:	48 8b 05 22 5d 00 00 	mov    0x5d22(%rip),%rax        # 19208 <g_95+0x48>
   134e6:	e9 47 05 00 00       	jmpq   13a32 <func_63+0xaed>
   134eb:	66 c7 85 44 fb ff ff 	movw   $0x3436,-0x4bc(%rbp)
   134f2:	36 34 
   134f4:	c7 85 4c fb ff ff 00 	movl   $0x0,-0x4b4(%rbp)
   134fb:	00 00 00 
   134fe:	eb 1a                	jmp    1351a <func_63+0x5d5>
   13500:	8b 85 4c fb ff ff    	mov    -0x4b4(%rbp),%eax
   13506:	48 98                	cltq   
   13508:	c7 84 85 20 fc ff ff 	movl   $0x1,-0x3e0(%rbp,%rax,4)
   1350f:	01 00 00 00 
   13513:	83 85 4c fb ff ff 01 	addl   $0x1,-0x4b4(%rbp)
   1351a:	83 bd 4c fb ff ff 04 	cmpl   $0x4,-0x4b4(%rbp)
   13521:	7e dd                	jle    13500 <func_63+0x5bb>
   13523:	48 83 85 e0 fb ff ff 	addq   $0x1,-0x420(%rbp)
   1352a:	01 
   1352b:	0f b6 45 d4          	movzbl -0x2c(%rbp),%eax
   1352f:	83 e8 01             	sub    $0x1,%eax
   13532:	88 45 d4             	mov    %al,-0x2c(%rbp)
   13535:	c7 05 09 5d 00 00 00 	movl   $0x0,0x5d09(%rip)        # 19248 <g_113>
   1353c:	00 00 00 
   1353f:	e9 ec 00 00 00       	jmpq   13630 <func_63+0x6eb>
   13544:	c7 85 78 fb ff ff 1b 	movl   $0xcd8d3f1b,-0x488(%rbp)
   1354b:	3f 8d cd 
   1354e:	c7 85 7c fb ff ff 54 	movl   $0x23462454,-0x484(%rbp)
   13555:	24 46 23 
   13558:	c7 85 50 fb ff ff 00 	movl   $0x0,-0x4b0(%rbp)
   1355f:	00 00 00 
   13562:	eb 1a                	jmp    1357e <func_63+0x639>
   13564:	8b 85 50 fb ff ff    	mov    -0x4b0(%rbp),%eax
   1356a:	48 98                	cltq   
   1356c:	c7 84 85 20 fc ff ff 	movl   $0xd5cc44b,-0x3e0(%rbp,%rax,4)
   13573:	4b c4 5c 0d 
   13577:	83 85 50 fb ff ff 01 	addl   $0x1,-0x4b0(%rbp)
   1357e:	83 bd 50 fb ff ff 07 	cmpl   $0x7,-0x4b0(%rbp)
   13585:	7e dd                	jle    13564 <func_63+0x61f>
   13587:	c7 05 0f 5c 00 00 00 	movl   $0x0,0x5c0f(%rip)        # 191a0 <g_88>
   1358e:	00 00 00 
   13591:	eb 74                	jmp    13607 <func_63+0x6c2>
   13593:	8b 05 07 5c 00 00    	mov    0x5c07(%rip),%eax        # 191a0 <g_88>
   13599:	8b 15 a9 5c 00 00    	mov    0x5ca9(%rip),%edx        # 19248 <g_113>
   1359f:	89 d2                	mov    %edx,%edx
   135a1:	48 98                	cltq   
   135a3:	48 c1 e0 03          	shl    $0x3,%rax
   135a7:	48 01 d0             	add    %rdx,%rax
   135aa:	48 8d 14 c5 00 00 00 	lea    0x0(,%rax,8),%rdx
   135b1:	00 
   135b2:	48 8d 05 07 5c 00 00 	lea    0x5c07(%rip),%rax        # 191c0 <g_95>
   135b9:	48 8b 04 02          	mov    (%rdx,%rax,1),%rax
   135bd:	48 85 c0             	test   %rax,%rax
   135c0:	74 3a                	je     135fc <func_63+0x6b7>
   135c2:	66 c7 85 46 fb ff ff 	movw   $0xfffe,-0x4ba(%rbp)
   135c9:	fe ff 
   135cb:	66 83 ad 46 fb ff ff 	subw   $0x1,-0x4ba(%rbp)
   135d2:	01 
   135d3:	48 8b 85 30 fb ff ff 	mov    -0x4d0(%rbp),%rax
   135da:	8b 00                	mov    (%rax),%eax
   135dc:	85 c0                	test   %eax,%eax
   135de:	74 11                	je     135f1 <func_63+0x6ac>
   135e0:	8b 05 ba 5b 00 00    	mov    0x5bba(%rip),%eax        # 191a0 <g_88>
   135e6:	83 c0 01             	add    $0x1,%eax
   135e9:	89 05 b1 5b 00 00    	mov    %eax,0x5bb1(%rip)        # 191a0 <g_88>
   135ef:	eb 16                	jmp    13607 <func_63+0x6c2>
   135f1:	8b 85 3c fb ff ff    	mov    -0x4c4(%rbp),%eax
   135f7:	e9 36 04 00 00       	jmpq   13a32 <func_63+0xaed>
   135fc:	8b 85 3c fb ff ff    	mov    -0x4c4(%rbp),%eax
   13602:	e9 2b 04 00 00       	jmpq   13a32 <func_63+0xaed>
   13607:	8b 05 93 5b 00 00    	mov    0x5b93(%rip),%eax        # 191a0 <g_88>
   1360d:	83 f8 01             	cmp    $0x1,%eax
   13610:	7e 81                	jle    13593 <func_63+0x64e>
   13612:	8b 05 34 5c 00 00    	mov    0x5c34(%rip),%eax        # 1924c <g_135>
   13618:	83 c0 01             	add    $0x1,%eax
   1361b:	89 05 2b 5c 00 00    	mov    %eax,0x5c2b(%rip)        # 1924c <g_135>
   13621:	8b 05 21 5c 00 00    	mov    0x5c21(%rip),%eax        # 19248 <g_113>
   13627:	83 c0 01             	add    $0x1,%eax
   1362a:	89 05 18 5c 00 00    	mov    %eax,0x5c18(%rip)        # 19248 <g_113>
   13630:	8b 05 12 5c 00 00    	mov    0x5c12(%rip),%eax        # 19248 <g_113>
   13636:	83 f8 07             	cmp    $0x7,%eax
   13639:	0f 86 05 ff ff ff    	jbe    13544 <func_63+0x5ff>
   1363f:	0f b7 05 e0 59 00 00 	movzwl 0x59e0(%rip),%eax        # 19026 <g_8>
   13646:	83 c0 01             	add    $0x1,%eax
   13649:	66 89 05 d6 59 00 00 	mov    %ax,0x59d6(%rip)        # 19026 <g_8>
   13650:	0f b7 05 cf 59 00 00 	movzwl 0x59cf(%rip),%eax        # 19026 <g_8>
   13657:	66 83 f8 04          	cmp    $0x4,%ax
   1365b:	0f 86 49 fa ff ff    	jbe    130aa <func_63+0x165>
   13661:	0f b6 85 41 fb ff ff 	movzbl -0x4bf(%rbp),%eax
   13668:	83 e8 01             	sub    $0x1,%eax
   1366b:	88 85 41 fb ff ff    	mov    %al,-0x4bf(%rbp)
   13671:	e9 b6 03 00 00       	jmpq   13a2c <func_63+0xae7>
   13676:	48 c7 85 80 fb ff ff 	movq   $0x0,-0x480(%rbp)
   1367d:	00 00 00 00 
   13681:	48 8d 85 80 fb ff ff 	lea    -0x480(%rbp),%rax
   13688:	48 89 85 88 fb ff ff 	mov    %rax,-0x478(%rbp)
   1368f:	48 8d 85 88 fb ff ff 	lea    -0x478(%rbp),%rax
   13696:	48 89 85 b0 fb ff ff 	mov    %rax,-0x450(%rbp)
   1369d:	48 8d 05 30 5a 00 00 	lea    0x5a30(%rip),%rax        # 190d4 <g_77+0x54>
   136a4:	48 89 85 90 fb ff ff 	mov    %rax,-0x470(%rbp)
   136ab:	48 8d 85 90 fb ff ff 	lea    -0x470(%rbp),%rax
   136b2:	48 89 85 70 fc ff ff 	mov    %rax,-0x390(%rbp)
   136b9:	48 8d 85 90 fb ff ff 	lea    -0x470(%rbp),%rax
   136c0:	48 89 85 78 fc ff ff 	mov    %rax,-0x388(%rbp)
   136c7:	48 8d 85 90 fb ff ff 	lea    -0x470(%rbp),%rax
   136ce:	48 89 85 80 fc ff ff 	mov    %rax,-0x380(%rbp)
   136d5:	48 8d 85 90 fb ff ff 	lea    -0x470(%rbp),%rax
   136dc:	48 89 85 88 fc ff ff 	mov    %rax,-0x378(%rbp)
   136e3:	48 8d 85 90 fb ff ff 	lea    -0x470(%rbp),%rax
   136ea:	48 89 85 90 fc ff ff 	mov    %rax,-0x370(%rbp)
   136f1:	48 8d 85 90 fb ff ff 	lea    -0x470(%rbp),%rax
   136f8:	48 89 85 98 fc ff ff 	mov    %rax,-0x368(%rbp)
   136ff:	48 8d 85 90 fb ff ff 	lea    -0x470(%rbp),%rax
   13706:	48 89 85 a0 fc ff ff 	mov    %rax,-0x360(%rbp)
   1370d:	48 8d 85 90 fb ff ff 	lea    -0x470(%rbp),%rax
   13714:	48 89 85 a8 fc ff ff 	mov    %rax,-0x358(%rbp)
   1371b:	48 8d 85 90 fb ff ff 	lea    -0x470(%rbp),%rax
   13722:	48 89 85 b0 fc ff ff 	mov    %rax,-0x350(%rbp)
   13729:	48 8d 85 90 fb ff ff 	lea    -0x470(%rbp),%rax
   13730:	48 89 85 b8 fc ff ff 	mov    %rax,-0x348(%rbp)
   13737:	48 8d 85 90 fb ff ff 	lea    -0x470(%rbp),%rax
   1373e:	48 89 85 c0 fc ff ff 	mov    %rax,-0x340(%rbp)
   13745:	48 8d 85 90 fb ff ff 	lea    -0x470(%rbp),%rax
   1374c:	48 89 85 c8 fc ff ff 	mov    %rax,-0x338(%rbp)
   13753:	48 8b 85 b0 fb ff ff 	mov    -0x450(%rbp),%rax
   1375a:	48 c7 00 00 00 00 00 	movq   $0x0,(%rax)
   13761:	48 8b 85 a0 fb ff ff 	mov    -0x460(%rbp),%rax
   13768:	48 89 85 30 fb ff ff 	mov    %rax,-0x4d0(%rbp)
   1376f:	c6 85 41 fb ff ff 00 	movb   $0x0,-0x4bf(%rbp)
   13776:	e9 a2 02 00 00       	jmpq   13a1d <func_63+0xad8>
   1377b:	c7 85 5c fb ff ff 08 	movl   $0x8,-0x4a4(%rbp)
   13782:	00 00 00 
   13785:	83 bd 3c fb ff ff 00 	cmpl   $0x0,-0x4c4(%rbp)
   1378c:	74 02                	je     13790 <func_63+0x84b>
   1378e:	eb c3                	jmp    13753 <func_63+0x80e>
   13790:	c7 05 ae 5a 00 00 00 	movl   $0x0,0x5aae(%rip)        # 19248 <g_113>
   13797:	00 00 00 
   1379a:	e9 5f 02 00 00       	jmpq   139fe <func_63+0xab9>
   1379f:	48 c7 85 b8 fb ff ff 	movq   $0xfffffffffffffff9,-0x448(%rbp)
   137a6:	f9 ff ff ff 
   137aa:	c7 85 60 fb ff ff fd 	movl   $0xfffffffd,-0x4a0(%rbp)
   137b1:	ff ff ff 
   137b4:	48 8d 85 d0 fc ff ff 	lea    -0x330(%rbp),%rax
   137bb:	48 8d 15 3e 25 00 00 	lea    0x253e(%rip),%rdx        # 15d00 <g_3399+0xaa8>
   137c2:	b9 5e 00 00 00       	mov    $0x5e,%ecx
   137c7:	48 89 c7             	mov    %rax,%rdi
   137ca:	48 89 d6             	mov    %rdx,%rsi
   137cd:	f3 48 a5             	rep movsq %ds:(%rsi),%es:(%rdi)
   137d0:	48 89 f2             	mov    %rsi,%rdx
   137d3:	48 89 f8             	mov    %rdi,%rax
   137d6:	8b 0a                	mov    (%rdx),%ecx
   137d8:	89 08                	mov    %ecx,(%rax)
   137da:	48 8d 40 04          	lea    0x4(%rax),%rax
   137de:	48 8d 52 04          	lea    0x4(%rdx),%rdx
   137e2:	c7 85 54 fb ff ff b3 	movl   $0x1c10a5b3,-0x4ac(%rbp)
   137e9:	a5 10 1c 
   137ec:	48 c7 85 98 fb ff ff 	movq   $0x7,-0x468(%rbp)
   137f3:	07 00 00 00 
   137f7:	e9 e2 01 00 00       	jmpq   139de <func_63+0xa99>
   137fc:	48 8d 05 41 5a 00 00 	lea    0x5a41(%rip),%rax        # 19244 <g_101>
   13803:	48 89 85 c0 fb ff ff 	mov    %rax,-0x440(%rbp)
   1380a:	48 8d 05 3f 5a 00 00 	lea    0x5a3f(%rip),%rax        # 19250 <g_164>
   13811:	48 89 85 c8 fb ff ff 	mov    %rax,-0x438(%rbp)
   13818:	48 8d 05 07 58 00 00 	lea    0x5807(%rip),%rax        # 19026 <g_8>
   1381f:	48 89 85 d0 fb ff ff 	mov    %rax,-0x430(%rbp)
   13826:	0f b6 85 41 fb ff ff 	movzbl -0x4bf(%rbp),%eax
   1382d:	0f b6 c0             	movzbl %al,%eax
   13830:	48 63 c8             	movslq %eax,%rcx
   13833:	48 8b 95 98 fb ff ff 	mov    -0x468(%rbp),%rdx
   1383a:	48 89 d0             	mov    %rdx,%rax
   1383d:	48 c1 e0 03          	shl    $0x3,%rax
   13841:	48 01 d0             	add    %rdx,%rax
   13844:	48 01 c8             	add    %rcx,%rax
   13847:	48 8d 14 85 00 00 00 	lea    0x0(,%rax,4),%rdx
   1384e:	00 
   1384f:	48 8d 05 2a 58 00 00 	lea    0x582a(%rip),%rax        # 19080 <g_77>
   13856:	8b 04 02             	mov    (%rdx,%rax,1),%eax
   13859:	85 c0                	test   %eax,%eax
   1385b:	0f 85 8d 01 00 00    	jne    139ee <func_63+0xaa9>
   13861:	83 85 54 fb ff ff 01 	addl   $0x1,-0x4ac(%rbp)
   13868:	8b 9d 54 fb ff ff    	mov    -0x4ac(%rbp),%ebx
   1386e:	8b 85 3c fb ff ff    	mov    -0x4c4(%rbp),%eax
   13874:	44 0f bf e0          	movswl %ax,%r12d
   13878:	8b 05 56 58 00 00    	mov    0x5856(%rip),%eax        # 190d4 <g_77+0x54>
   1387e:	44 0f b7 e8          	movzwl %ax,%r13d
   13882:	48 8b 85 c0 fb ff ff 	mov    -0x440(%rbp),%rax
   13889:	0f b6 00             	movzbl (%rax),%eax
   1388c:	83 e0 bc             	and    $0xffffffbc,%eax
   1388f:	89 c2                	mov    %eax,%edx
   13891:	48 8b 85 c0 fb ff ff 	mov    -0x440(%rbp),%rax
   13898:	88 10                	mov    %dl,(%rax)
   1389a:	48 8b 85 c0 fb ff ff 	mov    -0x440(%rbp),%rax
   138a1:	0f b6 10             	movzbl (%rax),%edx
   138a4:	48 8b 85 c8 fb ff ff 	mov    -0x438(%rbp),%rax
   138ab:	0f b6 00             	movzbl (%rax),%eax
   138ae:	21 c2                	and    %eax,%edx
   138b0:	48 8b 85 c8 fb ff ff 	mov    -0x438(%rbp),%rax
   138b7:	88 10                	mov    %dl,(%rax)
   138b9:	48 8b 05 38 59 00 00 	mov    0x5938(%rip),%rax        # 191f8 <g_95+0x38>
   138c0:	48 83 f8 04          	cmp    $0x4,%rax
   138c4:	0f 97 c1             	seta   %cl
   138c7:	48 8b 85 d0 fb ff ff 	mov    -0x430(%rbp),%rax
   138ce:	0f b7 00             	movzwl (%rax),%eax
   138d1:	89 c2                	mov    %eax,%edx
   138d3:	8b 05 57 57 00 00    	mov    0x5757(%rip),%eax        # 19030 <g_73>
   138d9:	31 d0                	xor    %edx,%eax
   138db:	89 c2                	mov    %eax,%edx
   138dd:	48 8b 85 d0 fb ff ff 	mov    -0x430(%rbp),%rax
   138e4:	66 89 10             	mov    %dx,(%rax)
   138e7:	b8 00 00 00 00       	mov    $0x0,%eax
   138ec:	83 e0 01             	and    $0x1,%eax
   138ef:	31 c8                	xor    %ecx,%eax
   138f1:	0f b6 c0             	movzbl %al,%eax
   138f4:	be ed dc 00 00       	mov    $0xdced,%esi
   138f9:	89 c7                	mov    %eax,%edi
   138fb:	e8 1f 54 ff ff       	callq  8d1f <safe_sub_func_uint16_t_u_u>
   13900:	48 8d 05 49 59 00 00 	lea    0x5949(%rip),%rax        # 19250 <g_164>
   13907:	48 39 85 a8 fb ff ff 	cmp    %rax,-0x458(%rbp)
   1390e:	75 08                	jne    13918 <func_63+0x9d3>
   13910:	8b 05 c2 57 00 00    	mov    0x57c2(%rip),%eax        # 190d8 <g_77+0x58>
   13916:	85 c0                	test   %eax,%eax
   13918:	8b 05 2a 59 00 00    	mov    0x592a(%rip),%eax        # 19248 <g_113>
   1391e:	89 c0                	mov    %eax,%eax
   13920:	48 8d 14 c5 00 00 00 	lea    0x0(,%rax,8),%rdx
   13927:	00 
   13928:	48 8b 85 98 fb ff ff 	mov    -0x468(%rbp),%rax
   1392f:	48 01 d0             	add    %rdx,%rax
   13932:	48 8d 14 c5 00 00 00 	lea    0x0(,%rax,8),%rdx
   13939:	00 
   1393a:	48 8d 05 7f 58 00 00 	lea    0x587f(%rip),%rax        # 191c0 <g_95>
   13941:	48 8b 04 02          	mov    (%rdx,%rax,1),%rax
   13945:	48 85 c0             	test   %rax,%rax
   13948:	75 0a                	jne    13954 <func_63+0xa0f>
   1394a:	8b 05 f8 58 00 00    	mov    0x58f8(%rip),%eax        # 19248 <g_113>
   13950:	85 c0                	test   %eax,%eax
   13952:	74 07                	je     1395b <func_63+0xa16>
   13954:	b8 01 00 00 00       	mov    $0x1,%eax
   13959:	eb 05                	jmp    13960 <func_63+0xa1b>
   1395b:	b8 00 00 00 00       	mov    $0x0,%eax
   13960:	3d 78 4b 00 00       	cmp    $0x4b78,%eax
   13965:	0f 95 c0             	setne  %al
   13968:	0f b6 d0             	movzbl %al,%edx
   1396b:	8b 05 c7 56 00 00    	mov    0x56c7(%rip),%eax        # 19038 <g_73+0x8>
   13971:	39 c2                	cmp    %eax,%edx
   13973:	0f 94 c0             	sete   %al
   13976:	0f b6 c0             	movzbl %al,%eax
   13979:	44 89 ee             	mov    %r13d,%esi
   1397c:	89 c7                	mov    %eax,%edi
   1397e:	e8 ba 53 ff ff       	callq  8d3d <safe_mul_func_uint16_t_u_u>
   13983:	0f b6 85 41 fb ff ff 	movzbl -0x4bf(%rbp),%eax
   1398a:	0f b6 c0             	movzbl %al,%eax
   1398d:	48 63 c8             	movslq %eax,%rcx
   13990:	48 8b 95 98 fb ff ff 	mov    -0x468(%rbp),%rdx
   13997:	48 89 d0             	mov    %rdx,%rax
   1399a:	48 c1 e0 03          	shl    $0x3,%rax
   1399e:	48 01 d0             	add    %rdx,%rax
   139a1:	48 01 c8             	add    %rcx,%rax
   139a4:	48 8d 14 85 00 00 00 	lea    0x0(,%rax,4),%rdx
   139ab:	00 
   139ac:	48 8d 05 cd 56 00 00 	lea    0x56cd(%rip),%rax        # 19080 <g_77>
   139b3:	8b 04 02             	mov    (%rdx,%rax,1),%eax
   139b6:	98                   	cwtl   
   139b7:	44 89 e6             	mov    %r12d,%esi
   139ba:	89 c7                	mov    %eax,%edi
   139bc:	e8 34 4a ff ff       	callq  83f5 <safe_mul_func_int16_t_s_s>
   139c1:	48 0f bf c0          	movswq %ax,%rax
   139c5:	48 89 de             	mov    %rbx,%rsi
   139c8:	48 89 c7             	mov    %rax,%rdi
   139cb:	e8 b0 56 ff ff       	callq  9080 <safe_mod_func_uint64_t_u_u>
   139d0:	89 85 5c fb ff ff    	mov    %eax,-0x4a4(%rbp)
   139d6:	48 83 ad 98 fb ff ff 	subq   $0x1,-0x468(%rbp)
   139dd:	01 
   139de:	48 83 bd 98 fb ff ff 	cmpq   $0x0,-0x468(%rbp)
   139e5:	00 
   139e6:	0f 89 10 fe ff ff    	jns    137fc <func_63+0x8b7>
   139ec:	eb 01                	jmp    139ef <func_63+0xaaa>
   139ee:	90                   	nop
   139ef:	8b 05 53 58 00 00    	mov    0x5853(%rip),%eax        # 19248 <g_113>
   139f5:	83 c0 01             	add    $0x1,%eax
   139f8:	89 05 4a 58 00 00    	mov    %eax,0x584a(%rip)        # 19248 <g_113>
   139fe:	8b 05 44 58 00 00    	mov    0x5844(%rip),%eax        # 19248 <g_113>
   13a04:	83 f8 01             	cmp    $0x1,%eax
   13a07:	0f 86 92 fd ff ff    	jbe    1379f <func_63+0x85a>
   13a0d:	0f b6 85 41 fb ff ff 	movzbl -0x4bf(%rbp),%eax
   13a14:	83 c0 01             	add    $0x1,%eax
   13a17:	88 85 41 fb ff ff    	mov    %al,-0x4bf(%rbp)
   13a1d:	0f b6 85 41 fb ff ff 	movzbl -0x4bf(%rbp),%eax
   13a24:	3c 07                	cmp    $0x7,%al
   13a26:	0f 86 4f fd ff ff    	jbe    1377b <func_63+0x836>
   13a2c:	8b 85 58 fb ff ff    	mov    -0x4a8(%rbp),%eax
   13a32:	48 8b 5d d8          	mov    -0x28(%rbp),%rbx
   13a36:	64 48 33 1c 25 28 00 	xor    %fs:0x28,%rbx
   13a3d:	00 00 
   13a3f:	74 05                	je     13a46 <func_63+0xb01>
   13a41:	e8 2a 46 ff ff       	callq  8070 <__stack_chk_fail@plt>
   13a46:	48 81 c4 b8 04 00 00 	add    $0x4b8,%rsp
   13a4d:	5b                   	pop    %rbx
   13a4e:	41 5c                	pop    %r12
   13a50:	41 5d                	pop    %r13
   13a52:	5d                   	pop    %rbp
   13a53:	c3                   	retq   

0000000000013a54 <func_67>:
   13a54:	f3 0f 1e fa          	endbr64 
   13a58:	55                   	push   %rbp
   13a59:	48 89 e5             	mov    %rsp,%rbp
   13a5c:	48 83 ec 70          	sub    $0x70,%rsp
   13a60:	89 7d 9c             	mov    %edi,-0x64(%rbp)
   13a63:	48 89 75 90          	mov    %rsi,-0x70(%rbp)
   13a67:	64 48 8b 04 25 28 00 	mov    %fs:0x28,%rax
   13a6e:	00 00 
   13a70:	48 89 45 f8          	mov    %rax,-0x8(%rbp)
   13a74:	31 c0                	xor    %eax,%eax
   13a76:	48 8d 05 bb 55 00 00 	lea    0x55bb(%rip),%rax        # 19038 <g_73+0x8>
   13a7d:	48 89 45 c0          	mov    %rax,-0x40(%rbp)
   13a81:	c7 45 b4 28 7d 28 e7 	movl   $0xe7287d28,-0x4c(%rbp)
   13a88:	c7 45 b8 f7 ff ff ff 	movl   $0xfffffff7,-0x48(%rbp)
   13a8f:	48 c7 45 c8 f6 ff ff 	movq   $0xfffffffffffffff6,-0x38(%rbp)
   13a96:	ff 
   13a97:	c7 45 bc ff ff ff ff 	movl   $0xffffffff,-0x44(%rbp)
   13a9e:	c6 45 af 18          	movb   $0x18,-0x51(%rbp)
   13aa2:	c7 45 b0 00 00 00 00 	movl   $0x0,-0x50(%rbp)
   13aa9:	eb 12                	jmp    13abd <func_67+0x69>
   13aab:	8b 45 b0             	mov    -0x50(%rbp),%eax
   13aae:	48 98                	cltq   
   13ab0:	48 c7 44 c5 d0 00 00 	movq   $0x0,-0x30(%rbp,%rax,8)
   13ab7:	00 00 
   13ab9:	83 45 b0 01          	addl   $0x1,-0x50(%rbp)
   13abd:	83 7d b0 04          	cmpl   $0x4,-0x50(%rbp)
   13ac1:	7e e8                	jle    13aab <func_67+0x57>
   13ac3:	83 45 b8 01          	addl   $0x1,-0x48(%rbp)
   13ac7:	83 45 bc 01          	addl   $0x1,-0x44(%rbp)
   13acb:	0f b6 45 af          	movzbl -0x51(%rbp),%eax
   13acf:	48 8b 55 f8          	mov    -0x8(%rbp),%rdx
   13ad3:	64 48 33 14 25 28 00 	xor    %fs:0x28,%rdx
   13ada:	00 00 
   13adc:	74 05                	je     13ae3 <func_67+0x8f>
   13ade:	e8 8d 45 ff ff       	callq  8070 <__stack_chk_fail@plt>
   13ae3:	c9                   	leaveq 
   13ae4:	c3                   	retq   

0000000000013ae5 <main>:
   13ae5:	f3 0f 1e fa          	endbr64 
   13ae9:	55                   	push   %rbp
   13aea:	48 89 e5             	mov    %rsp,%rbp
   13aed:	48 83 ec 20          	sub    $0x20,%rsp
   13af1:	89 7d ec             	mov    %edi,-0x14(%rbp)
   13af4:	48 89 75 e0          	mov    %rsi,-0x20(%rbp)
   13af8:	c7 45 fc 00 00 00 00 	movl   $0x0,-0x4(%rbp)
   13aff:	83 7d ec 02          	cmpl   $0x2,-0x14(%rbp)
   13b03:	75 25                	jne    13b2a <main+0x45>
   13b05:	48 8b 45 e0          	mov    -0x20(%rbp),%rax
   13b09:	48 83 c0 08          	add    $0x8,%rax
   13b0d:	48 8b 00             	mov    (%rax),%rax
   13b10:	48 8d 35 dd 24 00 00 	lea    0x24dd(%rip),%rsi        # 15ff4 <g_3399+0xd9c>
   13b17:	48 89 c7             	mov    %rax,%rdi
   13b1a:	e8 71 45 ff ff       	callq  8090 <strcmp@plt>
   13b1f:	85 c0                	test   %eax,%eax
   13b21:	75 07                	jne    13b2a <main+0x45>
   13b23:	c7 45 fc 01 00 00 00 	movl   $0x1,-0x4(%rbp)
   13b2a:	e8 5a 46 ff ff       	callq  8189 <platform_main_begin>
   13b2f:	e8 64 5a ff ff       	callq  9598 <crc32_gentab>
   13b34:	e8 7c 5c ff ff       	callq  97b5 <func_1>
   13b39:	8b 05 09 9f 00 00    	mov    0x9f09(%rip),%eax        # 1da48 <g_3>
   13b3f:	48 98                	cltq   
   13b41:	8b 55 fc             	mov    -0x4(%rbp),%edx
   13b44:	48 8d 35 ab 24 00 00 	lea    0x24ab(%rip),%rsi        # 15ff6 <g_3399+0xd9e>
   13b4b:	48 89 c7             	mov    %rax,%rdi
   13b4e:	e8 a0 5b ff ff       	callq  96f3 <transparent_crc>
   13b53:	0f b7 05 ca 54 00 00 	movzwl 0x54ca(%rip),%eax        # 19024 <g_7>
   13b5a:	48 0f bf c0          	movswq %ax,%rax
   13b5e:	8b 55 fc             	mov    -0x4(%rbp),%edx
   13b61:	48 8d 35 92 24 00 00 	lea    0x2492(%rip),%rsi        # 15ffa <g_3399+0xda2>
   13b68:	48 89 c7             	mov    %rax,%rdi
   13b6b:	e8 83 5b ff ff       	callq  96f3 <transparent_crc>
   13b70:	0f b7 05 af 54 00 00 	movzwl 0x54af(%rip),%eax        # 19026 <g_8>
   13b77:	0f b7 c0             	movzwl %ax,%eax
   13b7a:	8b 55 fc             	mov    -0x4(%rbp),%edx
   13b7d:	48 8d 35 7a 24 00 00 	lea    0x247a(%rip),%rsi        # 15ffe <g_3399+0xda6>
   13b84:	48 89 c7             	mov    %rax,%rdi
   13b87:	e8 67 5b ff ff       	callq  96f3 <transparent_crc>
   13b8c:	c7 45 f0 00 00 00 00 	movl   $0x0,-0x10(%rbp)
   13b93:	eb 4b                	jmp    13be0 <main+0xfb>
   13b95:	8b 45 f0             	mov    -0x10(%rbp),%eax
   13b98:	48 98                	cltq   
   13b9a:	48 8d 14 85 00 00 00 	lea    0x0(,%rax,4),%rdx
   13ba1:	00 
   13ba2:	48 8d 05 87 54 00 00 	lea    0x5487(%rip),%rax        # 19030 <g_73>
   13ba9:	8b 04 02             	mov    (%rdx,%rax,1),%eax
   13bac:	48 98                	cltq   
   13bae:	8b 55 fc             	mov    -0x4(%rbp),%edx
   13bb1:	48 8d 35 4a 24 00 00 	lea    0x244a(%rip),%rsi        # 16002 <g_3399+0xdaa>
   13bb8:	48 89 c7             	mov    %rax,%rdi
   13bbb:	e8 33 5b ff ff       	callq  96f3 <transparent_crc>
   13bc0:	83 7d fc 00          	cmpl   $0x0,-0x4(%rbp)
   13bc4:	74 16                	je     13bdc <main+0xf7>
   13bc6:	8b 45 f0             	mov    -0x10(%rbp),%eax
   13bc9:	89 c6                	mov    %eax,%esi
   13bcb:	48 8d 3d 38 24 00 00 	lea    0x2438(%rip),%rdi        # 1600a <g_3399+0xdb2>
   13bd2:	b8 00 00 00 00       	mov    $0x0,%eax
   13bd7:	e8 a4 44 ff ff       	callq  8080 <printf@plt>
   13bdc:	83 45 f0 01          	addl   $0x1,-0x10(%rbp)
   13be0:	83 7d f0 03          	cmpl   $0x3,-0x10(%rbp)
   13be4:	7e af                	jle    13b95 <main+0xb0>
   13be6:	c7 45 f0 00 00 00 00 	movl   $0x0,-0x10(%rbp)
   13bed:	eb 4f                	jmp    13c3e <main+0x159>
   13bef:	8b 45 f0             	mov    -0x10(%rbp),%eax
   13bf2:	48 98                	cltq   
   13bf4:	48 8d 14 c5 00 00 00 	lea    0x0(,%rax,8),%rdx
   13bfb:	00 
   13bfc:	48 8d 05 3d 54 00 00 	lea    0x543d(%rip),%rax        # 19040 <g_75>
   13c03:	48 8b 04 02          	mov    (%rdx,%rax,1),%rax
   13c07:	48 89 c1             	mov    %rax,%rcx
   13c0a:	8b 45 fc             	mov    -0x4(%rbp),%eax
   13c0d:	89 c2                	mov    %eax,%edx
   13c0f:	48 8d 35 02 24 00 00 	lea    0x2402(%rip),%rsi        # 16018 <g_3399+0xdc0>
   13c16:	48 89 cf             	mov    %rcx,%rdi
   13c19:	e8 d5 5a ff ff       	callq  96f3 <transparent_crc>
   13c1e:	83 7d fc 00          	cmpl   $0x0,-0x4(%rbp)
   13c22:	74 16                	je     13c3a <main+0x155>
   13c24:	8b 45 f0             	mov    -0x10(%rbp),%eax
   13c27:	89 c6                	mov    %eax,%esi
   13c29:	48 8d 3d da 23 00 00 	lea    0x23da(%rip),%rdi        # 1600a <g_3399+0xdb2>
   13c30:	b8 00 00 00 00       	mov    $0x0,%eax
   13c35:	e8 46 44 ff ff       	callq  8080 <printf@plt>
   13c3a:	83 45 f0 01          	addl   $0x1,-0x10(%rbp)
   13c3e:	83 7d f0 04          	cmpl   $0x4,-0x10(%rbp)
   13c42:	7e ab                	jle    13bef <main+0x10a>
   13c44:	c7 45 f0 00 00 00 00 	movl   $0x0,-0x10(%rbp)
   13c4b:	eb 75                	jmp    13cc2 <main+0x1dd>
   13c4d:	c7 45 f4 00 00 00 00 	movl   $0x0,-0xc(%rbp)
   13c54:	eb 62                	jmp    13cb8 <main+0x1d3>
   13c56:	8b 45 f4             	mov    -0xc(%rbp),%eax
   13c59:	48 63 c8             	movslq %eax,%rcx
   13c5c:	8b 45 f0             	mov    -0x10(%rbp),%eax
   13c5f:	48 63 d0             	movslq %eax,%rdx
   13c62:	48 89 d0             	mov    %rdx,%rax
   13c65:	48 c1 e0 03          	shl    $0x3,%rax
   13c69:	48 01 d0             	add    %rdx,%rax
   13c6c:	48 01 c8             	add    %rcx,%rax
   13c6f:	48 8d 14 85 00 00 00 	lea    0x0(,%rax,4),%rdx
   13c76:	00 
   13c77:	48 8d 05 02 54 00 00 	lea    0x5402(%rip),%rax        # 19080 <g_77>
   13c7e:	8b 04 02             	mov    (%rdx,%rax,1),%eax
   13c81:	48 98                	cltq   
   13c83:	8b 55 fc             	mov    -0x4(%rbp),%edx
   13c86:	48 8d 35 93 23 00 00 	lea    0x2393(%rip),%rsi        # 16020 <g_3399+0xdc8>
   13c8d:	48 89 c7             	mov    %rax,%rdi
   13c90:	e8 5e 5a ff ff       	callq  96f3 <transparent_crc>
   13c95:	83 7d fc 00          	cmpl   $0x0,-0x4(%rbp)
   13c99:	74 19                	je     13cb4 <main+0x1cf>
   13c9b:	8b 55 f4             	mov    -0xc(%rbp),%edx
   13c9e:	8b 45 f0             	mov    -0x10(%rbp),%eax
   13ca1:	89 c6                	mov    %eax,%esi
   13ca3:	48 8d 3d 81 23 00 00 	lea    0x2381(%rip),%rdi        # 1602b <g_3399+0xdd3>
   13caa:	b8 00 00 00 00       	mov    $0x0,%eax
   13caf:	e8 cc 43 ff ff       	callq  8080 <printf@plt>
   13cb4:	83 45 f4 01          	addl   $0x1,-0xc(%rbp)
   13cb8:	83 7d f4 08          	cmpl   $0x8,-0xc(%rbp)
   13cbc:	7e 98                	jle    13c56 <main+0x171>
   13cbe:	83 45 f0 01          	addl   $0x1,-0x10(%rbp)
   13cc2:	83 7d f0 07          	cmpl   $0x7,-0x10(%rbp)
   13cc6:	7e 85                	jle    13c4d <main+0x168>
   13cc8:	8b 05 d2 54 00 00    	mov    0x54d2(%rip),%eax        # 191a0 <g_88>
   13cce:	48 98                	cltq   
   13cd0:	8b 55 fc             	mov    -0x4(%rbp),%edx
   13cd3:	48 8d 35 63 23 00 00 	lea    0x2363(%rip),%rsi        # 1603d <g_3399+0xde5>
   13cda:	48 89 c7             	mov    %rax,%rdi
   13cdd:	e8 11 5a ff ff       	callq  96f3 <transparent_crc>
   13ce2:	c7 45 f0 00 00 00 00 	movl   $0x0,-0x10(%rbp)
   13ce9:	eb 6d                	jmp    13d58 <main+0x273>
   13ceb:	c7 45 f4 00 00 00 00 	movl   $0x0,-0xc(%rbp)
   13cf2:	eb 5a                	jmp    13d4e <main+0x269>
   13cf4:	8b 45 f4             	mov    -0xc(%rbp),%eax
   13cf7:	48 98                	cltq   
   13cf9:	8b 55 f0             	mov    -0x10(%rbp),%edx
   13cfc:	48 63 d2             	movslq %edx,%rdx
   13cff:	48 c1 e2 03          	shl    $0x3,%rdx
   13d03:	48 01 d0             	add    %rdx,%rax
   13d06:	48 8d 14 c5 00 00 00 	lea    0x0(,%rax,8),%rdx
   13d0d:	00 
   13d0e:	48 8d 05 ab 54 00 00 	lea    0x54ab(%rip),%rax        # 191c0 <g_95>
   13d15:	48 8b 04 02          	mov    (%rdx,%rax,1),%rax
   13d19:	8b 55 fc             	mov    -0x4(%rbp),%edx
   13d1c:	48 8d 35 1f 23 00 00 	lea    0x231f(%rip),%rsi        # 16042 <g_3399+0xdea>
   13d23:	48 89 c7             	mov    %rax,%rdi
   13d26:	e8 c8 59 ff ff       	callq  96f3 <transparent_crc>
   13d2b:	83 7d fc 00          	cmpl   $0x0,-0x4(%rbp)
   13d2f:	74 19                	je     13d4a <main+0x265>
   13d31:	8b 55 f4             	mov    -0xc(%rbp),%edx
   13d34:	8b 45 f0             	mov    -0x10(%rbp),%eax
   13d37:	89 c6                	mov    %eax,%esi
   13d39:	48 8d 3d eb 22 00 00 	lea    0x22eb(%rip),%rdi        # 1602b <g_3399+0xdd3>
   13d40:	b8 00 00 00 00       	mov    $0x0,%eax
   13d45:	e8 36 43 ff ff       	callq  8080 <printf@plt>
   13d4a:	83 45 f4 01          	addl   $0x1,-0xc(%rbp)
   13d4e:	83 7d f4 07          	cmpl   $0x7,-0xc(%rbp)
   13d52:	7e a0                	jle    13cf4 <main+0x20f>
   13d54:	83 45 f0 01          	addl   $0x1,-0x10(%rbp)
   13d58:	83 7d f0 01          	cmpl   $0x1,-0x10(%rbp)
   13d5c:	7e 8d                	jle    13ceb <main+0x206>
   13d5e:	8b 05 dc 54 00 00    	mov    0x54dc(%rip),%eax        # 19240 <g_97>
   13d64:	89 c1                	mov    %eax,%ecx
   13d66:	8b 45 fc             	mov    -0x4(%rbp),%eax
   13d69:	89 c2                	mov    %eax,%edx
   13d6b:	48 8d 35 db 22 00 00 	lea    0x22db(%rip),%rsi        # 1604d <g_3399+0xdf5>
   13d72:	48 89 cf             	mov    %rcx,%rdi
   13d75:	e8 79 59 ff ff       	callq  96f3 <transparent_crc>
   13d7a:	0f b6 05 c3 54 00 00 	movzbl 0x54c3(%rip),%eax        # 19244 <g_101>
   13d81:	0f b6 c0             	movzbl %al,%eax
   13d84:	8b 55 fc             	mov    -0x4(%rbp),%edx
   13d87:	48 8d 35 c4 22 00 00 	lea    0x22c4(%rip),%rsi        # 16052 <g_3399+0xdfa>
   13d8e:	48 89 c7             	mov    %rax,%rdi
   13d91:	e8 5d 59 ff ff       	callq  96f3 <transparent_crc>
   13d96:	8b 05 ac 54 00 00    	mov    0x54ac(%rip),%eax        # 19248 <g_113>
   13d9c:	89 c1                	mov    %eax,%ecx
   13d9e:	8b 45 fc             	mov    -0x4(%rbp),%eax
   13da1:	89 c2                	mov    %eax,%edx
   13da3:	48 8d 35 ae 22 00 00 	lea    0x22ae(%rip),%rsi        # 16058 <g_3399+0xe00>
   13daa:	48 89 cf             	mov    %rcx,%rdi
   13dad:	e8 41 59 ff ff       	callq  96f3 <transparent_crc>
   13db2:	8b 05 94 54 00 00    	mov    0x5494(%rip),%eax        # 1924c <g_135>
   13db8:	89 c1                	mov    %eax,%ecx
   13dba:	8b 45 fc             	mov    -0x4(%rbp),%eax
   13dbd:	89 c2                	mov    %eax,%edx
   13dbf:	48 8d 35 98 22 00 00 	lea    0x2298(%rip),%rsi        # 1605e <g_3399+0xe06>
   13dc6:	48 89 cf             	mov    %rcx,%rdi
   13dc9:	e8 25 59 ff ff       	callq  96f3 <transparent_crc>
   13dce:	0f b6 05 7b 54 00 00 	movzbl 0x547b(%rip),%eax        # 19250 <g_164>
   13dd5:	0f b6 c0             	movzbl %al,%eax
   13dd8:	8b 55 fc             	mov    -0x4(%rbp),%edx
   13ddb:	48 8d 35 82 22 00 00 	lea    0x2282(%rip),%rsi        # 16064 <g_3399+0xe0c>
   13de2:	48 89 c7             	mov    %rax,%rdi
   13de5:	e8 09 59 ff ff       	callq  96f3 <transparent_crc>
   13dea:	0f b6 05 60 54 00 00 	movzbl 0x5460(%rip),%eax        # 19251 <g_192>
   13df1:	48 0f be c0          	movsbq %al,%rax
   13df5:	8b 55 fc             	mov    -0x4(%rbp),%edx
   13df8:	48 8d 35 6b 22 00 00 	lea    0x226b(%rip),%rsi        # 1606a <g_3399+0xe12>
   13dff:	48 89 c7             	mov    %rax,%rdi
   13e02:	e8 ec 58 ff ff       	callq  96f3 <transparent_crc>
   13e07:	c7 45 f0 00 00 00 00 	movl   $0x0,-0x10(%rbp)
   13e0e:	e9 9b 00 00 00       	jmpq   13eae <main+0x3c9>
   13e13:	c7 45 f4 00 00 00 00 	movl   $0x0,-0xc(%rbp)
   13e1a:	e9 81 00 00 00       	jmpq   13ea0 <main+0x3bb>
   13e1f:	c7 45 f8 00 00 00 00 	movl   $0x0,-0x8(%rbp)
   13e26:	eb 6e                	jmp    13e96 <main+0x3b1>
   13e28:	8b 45 f8             	mov    -0x8(%rbp),%eax
   13e2b:	48 63 f0             	movslq %eax,%rsi
   13e2e:	8b 45 f4             	mov    -0xc(%rbp),%eax
   13e31:	48 63 c8             	movslq %eax,%rcx
   13e34:	8b 45 f0             	mov    -0x10(%rbp),%eax
   13e37:	48 63 d0             	movslq %eax,%rdx
   13e3a:	48 89 d0             	mov    %rdx,%rax
   13e3d:	48 01 c0             	add    %rax,%rax
   13e40:	48 01 d0             	add    %rdx,%rax
   13e43:	48 01 c0             	add    %rax,%rax
   13e46:	48 01 f0             	add    %rsi,%rax
   13e49:	48 01 c8             	add    %rcx,%rax
   13e4c:	48 8d 14 00          	lea    (%rax,%rax,1),%rdx
   13e50:	48 8d 05 09 54 00 00 	lea    0x5409(%rip),%rax        # 19260 <g_201>
   13e57:	0f b7 04 02          	movzwl (%rdx,%rax,1),%eax
   13e5b:	0f b7 c0             	movzwl %ax,%eax
   13e5e:	8b 55 fc             	mov    -0x4(%rbp),%edx
   13e61:	48 8d 35 08 22 00 00 	lea    0x2208(%rip),%rsi        # 16070 <g_3399+0xe18>
   13e68:	48 89 c7             	mov    %rax,%rdi
   13e6b:	e8 83 58 ff ff       	callq  96f3 <transparent_crc>
   13e70:	83 7d fc 00          	cmpl   $0x0,-0x4(%rbp)
   13e74:	74 1c                	je     13e92 <main+0x3ad>
   13e76:	8b 4d f8             	mov    -0x8(%rbp),%ecx
   13e79:	8b 55 f4             	mov    -0xc(%rbp),%edx
   13e7c:	8b 45 f0             	mov    -0x10(%rbp),%eax
   13e7f:	89 c6                	mov    %eax,%esi
   13e81:	48 8d 3d f7 21 00 00 	lea    0x21f7(%rip),%rdi        # 1607f <g_3399+0xe27>
   13e88:	b8 00 00 00 00       	mov    $0x0,%eax
   13e8d:	e8 ee 41 ff ff       	callq  8080 <printf@plt>
   13e92:	83 45 f8 01          	addl   $0x1,-0x8(%rbp)
   13e96:	83 7d f8 00          	cmpl   $0x0,-0x8(%rbp)
   13e9a:	7e 8c                	jle    13e28 <main+0x343>
   13e9c:	83 45 f4 01          	addl   $0x1,-0xc(%rbp)
   13ea0:	83 7d f4 05          	cmpl   $0x5,-0xc(%rbp)
   13ea4:	0f 8e 75 ff ff ff    	jle    13e1f <main+0x33a>
   13eaa:	83 45 f0 01          	addl   $0x1,-0x10(%rbp)
   13eae:	83 7d f0 05          	cmpl   $0x5,-0x10(%rbp)
   13eb2:	0f 8e 5b ff ff ff    	jle    13e13 <main+0x32e>
   13eb8:	8b 05 ea 53 00 00    	mov    0x53ea(%rip),%eax        # 192a8 <g_204>
   13ebe:	89 c1                	mov    %eax,%ecx
   13ec0:	8b 45 fc             	mov    -0x4(%rbp),%eax
   13ec3:	89 c2                	mov    %eax,%edx
   13ec5:	48 8d 35 c9 21 00 00 	lea    0x21c9(%rip),%rsi        # 16095 <g_3399+0xe3d>
   13ecc:	48 89 cf             	mov    %rcx,%rdi
   13ecf:	e8 1f 58 ff ff       	callq  96f3 <transparent_crc>
   13ed4:	8b 05 d2 53 00 00    	mov    0x53d2(%rip),%eax        # 192ac <g_260>
   13eda:	48 98                	cltq   
   13edc:	8b 55 fc             	mov    -0x4(%rbp),%edx
   13edf:	48 8d 35 b5 21 00 00 	lea    0x21b5(%rip),%rsi        # 1609b <g_3399+0xe43>
   13ee6:	48 89 c7             	mov    %rax,%rdi
   13ee9:	e8 05 58 ff ff       	callq  96f3 <transparent_crc>
   13eee:	0f b7 05 bb 53 00 00 	movzwl 0x53bb(%rip),%eax        # 192b0 <g_386>
   13ef5:	48 0f bf c0          	movswq %ax,%rax
   13ef9:	8b 55 fc             	mov    -0x4(%rbp),%edx
   13efc:	48 8d 35 9e 21 00 00 	lea    0x219e(%rip),%rsi        # 160a1 <g_3399+0xe49>
   13f03:	48 89 c7             	mov    %rax,%rdi
   13f06:	e8 e8 57 ff ff       	callq  96f3 <transparent_crc>
   13f0b:	0f b6 05 a0 53 00 00 	movzbl 0x53a0(%rip),%eax        # 192b2 <g_403>
   13f12:	0f b6 c0             	movzbl %al,%eax
   13f15:	8b 55 fc             	mov    -0x4(%rbp),%edx
   13f18:	48 8d 35 88 21 00 00 	lea    0x2188(%rip),%rsi        # 160a7 <g_3399+0xe4f>
   13f1f:	48 89 c7             	mov    %rax,%rdi
   13f22:	e8 cc 57 ff ff       	callq  96f3 <transparent_crc>
   13f27:	b8 01 00 00 00       	mov    $0x1,%eax
   13f2c:	0f b7 c0             	movzwl %ax,%eax
   13f2f:	8b 55 fc             	mov    -0x4(%rbp),%edx
   13f32:	48 8d 35 74 21 00 00 	lea    0x2174(%rip),%rsi        # 160ad <g_3399+0xe55>
   13f39:	48 89 c7             	mov    %rax,%rdi
   13f3c:	e8 b2 57 ff ff       	callq  96f3 <transparent_crc>
   13f41:	c7 45 f0 00 00 00 00 	movl   $0x0,-0x10(%rbp)
   13f48:	eb 75                	jmp    13fbf <main+0x4da>
   13f4a:	c7 45 f4 00 00 00 00 	movl   $0x0,-0xc(%rbp)
   13f51:	eb 62                	jmp    13fb5 <main+0x4d0>
   13f53:	8b 45 f4             	mov    -0xc(%rbp),%eax
   13f56:	48 63 c8             	movslq %eax,%rcx
   13f59:	8b 45 f0             	mov    -0x10(%rbp),%eax
   13f5c:	48 63 d0             	movslq %eax,%rdx
   13f5f:	48 89 d0             	mov    %rdx,%rax
   13f62:	48 c1 e0 03          	shl    $0x3,%rax
   13f66:	48 29 d0             	sub    %rdx,%rax
   13f69:	48 01 c8             	add    %rcx,%rax
   13f6c:	48 8d 14 85 00 00 00 	lea    0x0(,%rax,4),%rdx
   13f73:	00 
   13f74:	48 8d 05 e5 10 00 00 	lea    0x10e5(%rip),%rax        # 15060 <g_563>
   13f7b:	8b 04 02             	mov    (%rdx,%rax,1),%eax
   13f7e:	48 98                	cltq   
   13f80:	8b 55 fc             	mov    -0x4(%rbp),%edx
   13f83:	48 8d 35 29 21 00 00 	lea    0x2129(%rip),%rsi        # 160b3 <g_3399+0xe5b>
   13f8a:	48 89 c7             	mov    %rax,%rdi
   13f8d:	e8 61 57 ff ff       	callq  96f3 <transparent_crc>
   13f92:	83 7d fc 00          	cmpl   $0x0,-0x4(%rbp)
   13f96:	74 19                	je     13fb1 <main+0x4cc>
   13f98:	8b 55 f4             	mov    -0xc(%rbp),%edx
   13f9b:	8b 45 f0             	mov    -0x10(%rbp),%eax
   13f9e:	89 c6                	mov    %eax,%esi
   13fa0:	48 8d 3d 84 20 00 00 	lea    0x2084(%rip),%rdi        # 1602b <g_3399+0xdd3>
   13fa7:	b8 00 00 00 00       	mov    $0x0,%eax
   13fac:	e8 cf 40 ff ff       	callq  8080 <printf@plt>
   13fb1:	83 45 f4 01          	addl   $0x1,-0xc(%rbp)
   13fb5:	83 7d f4 06          	cmpl   $0x6,-0xc(%rbp)
   13fb9:	7e 98                	jle    13f53 <main+0x46e>
   13fbb:	83 45 f0 01          	addl   $0x1,-0x10(%rbp)
   13fbf:	83 7d f0 05          	cmpl   $0x5,-0x10(%rbp)
   13fc3:	7e 85                	jle    13f4a <main+0x465>
   13fc5:	48 8b 05 ec 52 00 00 	mov    0x52ec(%rip),%rax        # 192b8 <g_570>
   13fcc:	8b 55 fc             	mov    -0x4(%rbp),%edx
   13fcf:	48 8d 35 e9 20 00 00 	lea    0x20e9(%rip),%rsi        # 160bf <g_3399+0xe67>
   13fd6:	48 89 c7             	mov    %rax,%rdi
   13fd9:	e8 15 57 ff ff       	callq  96f3 <transparent_crc>
   13fde:	c7 45 f0 00 00 00 00 	movl   $0x0,-0x10(%rbp)
   13fe5:	eb 4a                	jmp    14031 <main+0x54c>
   13fe7:	8b 45 f0             	mov    -0x10(%rbp),%eax
   13fea:	48 98                	cltq   
   13fec:	48 8d 14 c5 00 00 00 	lea    0x0(,%rax,8),%rdx
   13ff3:	00 
   13ff4:	48 8d 05 c5 52 00 00 	lea    0x52c5(%rip),%rax        # 192c0 <g_572>
   13ffb:	48 8b 04 02          	mov    (%rdx,%rax,1),%rax
   13fff:	8b 55 fc             	mov    -0x4(%rbp),%edx
   14002:	48 8d 35 bc 20 00 00 	lea    0x20bc(%rip),%rsi        # 160c5 <g_3399+0xe6d>
   14009:	48 89 c7             	mov    %rax,%rdi
   1400c:	e8 e2 56 ff ff       	callq  96f3 <transparent_crc>
   14011:	83 7d fc 00          	cmpl   $0x0,-0x4(%rbp)
   14015:	74 16                	je     1402d <main+0x548>
   14017:	8b 45 f0             	mov    -0x10(%rbp),%eax
   1401a:	89 c6                	mov    %eax,%esi
   1401c:	48 8d 3d e7 1f 00 00 	lea    0x1fe7(%rip),%rdi        # 1600a <g_3399+0xdb2>
   14023:	b8 00 00 00 00       	mov    $0x0,%eax
   14028:	e8 53 40 ff ff       	callq  8080 <printf@plt>
   1402d:	83 45 f0 01          	addl   $0x1,-0x10(%rbp)
   14031:	83 7d f0 07          	cmpl   $0x7,-0x10(%rbp)
   14035:	7e b0                	jle    13fe7 <main+0x502>
   14037:	c7 45 f0 00 00 00 00 	movl   $0x0,-0x10(%rbp)
   1403e:	e9 9f 00 00 00       	jmpq   140e2 <main+0x5fd>
   14043:	c7 45 f4 00 00 00 00 	movl   $0x0,-0xc(%rbp)
   1404a:	e9 85 00 00 00       	jmpq   140d4 <main+0x5ef>
   1404f:	c7 45 f8 00 00 00 00 	movl   $0x0,-0x8(%rbp)
   14056:	eb 72                	jmp    140ca <main+0x5e5>
   14058:	8b 45 f8             	mov    -0x8(%rbp),%eax
   1405b:	48 63 c8             	movslq %eax,%rcx
   1405e:	8b 45 f0             	mov    -0x10(%rbp),%eax
   14061:	48 98                	cltq   
   14063:	8b 55 f4             	mov    -0xc(%rbp),%edx
   14066:	48 63 d2             	movslq %edx,%rdx
   14069:	48 6b f0 5a          	imul   $0x5a,%rax,%rsi
   1406d:	48 89 d0             	mov    %rdx,%rax
   14070:	48 c1 e0 02          	shl    $0x2,%rax
   14074:	48 01 d0             	add    %rdx,%rax
   14077:	48 01 c0             	add    %rax,%rax
   1407a:	48 01 f0             	add    %rsi,%rax
   1407d:	48 8d 14 08          	lea    (%rax,%rcx,1),%rdx
   14081:	48 8d 05 78 52 00 00 	lea    0x5278(%rip),%rax        # 19300 <g_699>
   14088:	48 01 d0             	add    %rdx,%rax
   1408b:	0f b6 00             	movzbl (%rax),%eax
   1408e:	48 0f be c0          	movsbq %al,%rax
   14092:	8b 55 fc             	mov    -0x4(%rbp),%edx
   14095:	48 8d 35 32 20 00 00 	lea    0x2032(%rip),%rsi        # 160ce <g_3399+0xe76>
   1409c:	48 89 c7             	mov    %rax,%rdi
   1409f:	e8 4f 56 ff ff       	callq  96f3 <transparent_crc>
   140a4:	83 7d fc 00          	cmpl   $0x0,-0x4(%rbp)
   140a8:	74 1c                	je     140c6 <main+0x5e1>
   140aa:	8b 4d f8             	mov    -0x8(%rbp),%ecx
   140ad:	8b 55 f4             	mov    -0xc(%rbp),%edx
   140b0:	8b 45 f0             	mov    -0x10(%rbp),%eax
   140b3:	89 c6                	mov    %eax,%esi
   140b5:	48 8d 3d c3 1f 00 00 	lea    0x1fc3(%rip),%rdi        # 1607f <g_3399+0xe27>
   140bc:	b8 00 00 00 00       	mov    $0x0,%eax
   140c1:	e8 ba 3f ff ff       	callq  8080 <printf@plt>
   140c6:	83 45 f8 01          	addl   $0x1,-0x8(%rbp)
   140ca:	83 7d f8 09          	cmpl   $0x9,-0x8(%rbp)
   140ce:	7e 88                	jle    14058 <main+0x573>
   140d0:	83 45 f4 01          	addl   $0x1,-0xc(%rbp)
   140d4:	83 7d f4 08          	cmpl   $0x8,-0xc(%rbp)
   140d8:	0f 8e 71 ff ff ff    	jle    1404f <main+0x56a>
   140de:	83 45 f0 01          	addl   $0x1,-0x10(%rbp)
   140e2:	83 7d f0 00          	cmpl   $0x0,-0x10(%rbp)
   140e6:	0f 8e 57 ff ff ff    	jle    14043 <main+0x55e>
   140ec:	8b 05 6a 52 00 00    	mov    0x526a(%rip),%eax        # 1935c <g_726>
   140f2:	89 c1                	mov    %eax,%ecx
   140f4:	8b 45 fc             	mov    -0x4(%rbp),%eax
   140f7:	89 c2                	mov    %eax,%edx
   140f9:	48 8d 35 dd 1f 00 00 	lea    0x1fdd(%rip),%rsi        # 160dd <g_3399+0xe85>
   14100:	48 89 cf             	mov    %rcx,%rdi
   14103:	e8 eb 55 ff ff       	callq  96f3 <transparent_crc>
   14108:	b8 03 00 00 00       	mov    $0x3,%eax
   1410d:	48 0f bf c0          	movswq %ax,%rax
   14111:	8b 55 fc             	mov    -0x4(%rbp),%edx
   14114:	48 8d 35 c8 1f 00 00 	lea    0x1fc8(%rip),%rsi        # 160e3 <g_3399+0xe8b>
   1411b:	48 89 c7             	mov    %rax,%rdi
   1411e:	e8 d0 55 ff ff       	callq  96f3 <transparent_crc>
   14123:	48 8b 05 36 52 00 00 	mov    0x5236(%rip),%rax        # 19360 <g_949>
   1412a:	48 89 c1             	mov    %rax,%rcx
   1412d:	8b 45 fc             	mov    -0x4(%rbp),%eax
   14130:	89 c2                	mov    %eax,%edx
   14132:	48 8d 35 b0 1f 00 00 	lea    0x1fb0(%rip),%rsi        # 160e9 <g_3399+0xe91>
   14139:	48 89 cf             	mov    %rcx,%rdi
   1413c:	e8 b2 55 ff ff       	callq  96f3 <transparent_crc>
   14141:	c7 45 f0 00 00 00 00 	movl   $0x0,-0x10(%rbp)
   14148:	e9 9b 00 00 00       	jmpq   141e8 <main+0x703>
   1414d:	c7 45 f4 00 00 00 00 	movl   $0x0,-0xc(%rbp)
   14154:	e9 81 00 00 00       	jmpq   141da <main+0x6f5>
   14159:	c7 45 f8 00 00 00 00 	movl   $0x0,-0x8(%rbp)
   14160:	eb 6e                	jmp    141d0 <main+0x6eb>
   14162:	8b 45 f8             	mov    -0x8(%rbp),%eax
   14165:	48 63 f0             	movslq %eax,%rsi
   14168:	8b 45 f4             	mov    -0xc(%rbp),%eax
   1416b:	48 63 c8             	movslq %eax,%rcx
   1416e:	8b 45 f0             	mov    -0x10(%rbp),%eax
   14171:	48 63 d0             	movslq %eax,%rdx
   14174:	48 89 d0             	mov    %rdx,%rax
   14177:	48 c1 e0 03          	shl    $0x3,%rax
   1417b:	48 01 d0             	add    %rdx,%rax
   1417e:	48 01 f0             	add    %rsi,%rax
   14181:	48 01 c8             	add    %rcx,%rax
   14184:	48 8d 14 85 00 00 00 	lea    0x0(,%rax,4),%rdx
   1418b:	00 
   1418c:	48 8d 05 ed 51 00 00 	lea    0x51ed(%rip),%rax        # 19380 <g_984>
   14193:	8b 04 02             	mov    (%rdx,%rax,1),%eax
   14196:	48 98                	cltq   
   14198:	8b 55 fc             	mov    -0x4(%rbp),%edx
   1419b:	48 8d 35 4d 1f 00 00 	lea    0x1f4d(%rip),%rsi        # 160ef <g_3399+0xe97>
   141a2:	48 89 c7             	mov    %rax,%rdi
   141a5:	e8 49 55 ff ff       	callq  96f3 <transparent_crc>
   141aa:	83 7d fc 00          	cmpl   $0x0,-0x4(%rbp)
   141ae:	74 1c                	je     141cc <main+0x6e7>
   141b0:	8b 4d f8             	mov    -0x8(%rbp),%ecx
   141b3:	8b 55 f4             	mov    -0xc(%rbp),%edx
   141b6:	8b 45 f0             	mov    -0x10(%rbp),%eax
   141b9:	89 c6                	mov    %eax,%esi
   141bb:	48 8d 3d bd 1e 00 00 	lea    0x1ebd(%rip),%rdi        # 1607f <g_3399+0xe27>
   141c2:	b8 00 00 00 00       	mov    $0x0,%eax
   141c7:	e8 b4 3e ff ff       	callq  8080 <printf@plt>
   141cc:	83 45 f8 01          	addl   $0x1,-0x8(%rbp)
   141d0:	83 7d f8 00          	cmpl   $0x0,-0x8(%rbp)
   141d4:	7e 8c                	jle    14162 <main+0x67d>
   141d6:	83 45 f4 01          	addl   $0x1,-0xc(%rbp)
   141da:	83 7d f4 08          	cmpl   $0x8,-0xc(%rbp)
   141de:	0f 8e 75 ff ff ff    	jle    14159 <main+0x674>
   141e4:	83 45 f0 01          	addl   $0x1,-0x10(%rbp)
   141e8:	83 7d f0 05          	cmpl   $0x5,-0x10(%rbp)
   141ec:	0f 8e 5b ff ff ff    	jle    1414d <main+0x668>
   141f2:	0f b6 05 5f 52 00 00 	movzbl 0x525f(%rip),%eax        # 19458 <g_987>
   141f9:	48 0f be c0          	movsbq %al,%rax
   141fd:	8b 55 fc             	mov    -0x4(%rbp),%edx
   14200:	48 8d 35 f7 1e 00 00 	lea    0x1ef7(%rip),%rsi        # 160fe <g_3399+0xea6>
   14207:	48 89 c7             	mov    %rax,%rdi
   1420a:	e8 e4 54 ff ff       	callq  96f3 <transparent_crc>
   1420f:	8b 05 b3 98 00 00    	mov    0x98b3(%rip),%eax        # 1dac8 <g_1135>
   14215:	89 c1                	mov    %eax,%ecx
   14217:	8b 45 fc             	mov    -0x4(%rbp),%eax
   1421a:	89 c2                	mov    %eax,%edx
   1421c:	48 8d 35 e1 1e 00 00 	lea    0x1ee1(%rip),%rsi        # 16104 <g_3399+0xeac>
   14223:	48 89 cf             	mov    %rcx,%rdi
   14226:	e8 c8 54 ff ff       	callq  96f3 <transparent_crc>
   1422b:	48 8b 05 2e 52 00 00 	mov    0x522e(%rip),%rax        # 19460 <g_1188>
   14232:	48 89 c1             	mov    %rax,%rcx
   14235:	8b 45 fc             	mov    -0x4(%rbp),%eax
   14238:	89 c2                	mov    %eax,%edx
   1423a:	48 8d 35 ca 1e 00 00 	lea    0x1eca(%rip),%rsi        # 1610b <g_3399+0xeb3>
   14241:	48 89 cf             	mov    %rcx,%rdi
   14244:	e8 aa 54 ff ff       	callq  96f3 <transparent_crc>
   14249:	48 8b 05 18 52 00 00 	mov    0x5218(%rip),%rax        # 19468 <g_1201>
   14250:	48 89 c1             	mov    %rax,%rcx
   14253:	8b 45 fc             	mov    -0x4(%rbp),%eax
   14256:	89 c2                	mov    %eax,%edx
   14258:	48 8d 35 b3 1e 00 00 	lea    0x1eb3(%rip),%rsi        # 16112 <g_3399+0xeba>
   1425f:	48 89 cf             	mov    %rcx,%rdi
   14262:	e8 8c 54 ff ff       	callq  96f3 <transparent_crc>
   14267:	0f b7 05 02 52 00 00 	movzwl 0x5202(%rip),%eax        # 19470 <g_1393>
   1426e:	48 0f bf c0          	movswq %ax,%rax
   14272:	8b 55 fc             	mov    -0x4(%rbp),%edx
   14275:	48 8d 35 9d 1e 00 00 	lea    0x1e9d(%rip),%rsi        # 16119 <g_3399+0xec1>
   1427c:	48 89 c7             	mov    %rax,%rdi
   1427f:	e8 6f 54 ff ff       	callq  96f3 <transparent_crc>
   14284:	0f b7 05 e7 51 00 00 	movzwl 0x51e7(%rip),%eax        # 19472 <g_1470>
   1428b:	0f b7 c0             	movzwl %ax,%eax
   1428e:	8b 55 fc             	mov    -0x4(%rbp),%edx
   14291:	48 8d 35 88 1e 00 00 	lea    0x1e88(%rip),%rsi        # 16120 <g_3399+0xec8>
   14298:	48 89 c7             	mov    %rax,%rdi
   1429b:	e8 53 54 ff ff       	callq  96f3 <transparent_crc>
   142a0:	8b 05 ce 51 00 00    	mov    0x51ce(%rip),%eax        # 19474 <g_1479>
   142a6:	48 98                	cltq   
   142a8:	8b 55 fc             	mov    -0x4(%rbp),%edx
   142ab:	48 8d 35 75 1e 00 00 	lea    0x1e75(%rip),%rsi        # 16127 <g_3399+0xecf>
   142b2:	48 89 c7             	mov    %rax,%rdi
   142b5:	e8 39 54 ff ff       	callq  96f3 <transparent_crc>
   142ba:	c7 45 f0 00 00 00 00 	movl   $0x0,-0x10(%rbp)
   142c1:	eb 4a                	jmp    1430d <main+0x828>
   142c3:	8b 45 f0             	mov    -0x10(%rbp),%eax
   142c6:	48 98                	cltq   
   142c8:	48 8d 14 c5 00 00 00 	lea    0x0(,%rax,8),%rdx
   142cf:	00 
   142d0:	48 8d 05 a9 51 00 00 	lea    0x51a9(%rip),%rax        # 19480 <g_1668>
   142d7:	48 8b 04 02          	mov    (%rdx,%rax,1),%rax
   142db:	8b 55 fc             	mov    -0x4(%rbp),%edx
   142de:	48 8d 35 49 1e 00 00 	lea    0x1e49(%rip),%rsi        # 1612e <g_3399+0xed6>
   142e5:	48 89 c7             	mov    %rax,%rdi
   142e8:	e8 06 54 ff ff       	callq  96f3 <transparent_crc>
   142ed:	83 7d fc 00          	cmpl   $0x0,-0x4(%rbp)
   142f1:	74 16                	je     14309 <main+0x824>
   142f3:	8b 45 f0             	mov    -0x10(%rbp),%eax
   142f6:	89 c6                	mov    %eax,%esi
   142f8:	48 8d 3d 0b 1d 00 00 	lea    0x1d0b(%rip),%rdi        # 1600a <g_3399+0xdb2>
   142ff:	b8 00 00 00 00       	mov    $0x0,%eax
   14304:	e8 77 3d ff ff       	callq  8080 <printf@plt>
   14309:	83 45 f0 01          	addl   $0x1,-0x10(%rbp)
   1430d:	83 7d f0 06          	cmpl   $0x6,-0x10(%rbp)
   14311:	7e b0                	jle    142c3 <main+0x7de>
   14313:	0f b6 05 9e 51 00 00 	movzbl 0x519e(%rip),%eax        # 194b8 <g_1858>
   1431a:	0f b6 c0             	movzbl %al,%eax
   1431d:	8b 55 fc             	mov    -0x4(%rbp),%edx
   14320:	48 8d 35 11 1e 00 00 	lea    0x1e11(%rip),%rsi        # 16138 <g_3399+0xee0>
   14327:	48 89 c7             	mov    %rax,%rdi
   1432a:	e8 c4 53 ff ff       	callq  96f3 <transparent_crc>
   1432f:	48 8b 05 8a 51 00 00 	mov    0x518a(%rip),%rax        # 194c0 <g_1878>
   14336:	8b 55 fc             	mov    -0x4(%rbp),%edx
   14339:	48 8d 35 ff 1d 00 00 	lea    0x1dff(%rip),%rsi        # 1613f <g_3399+0xee7>
   14340:	48 89 c7             	mov    %rax,%rdi
   14343:	e8 ab 53 ff ff       	callq  96f3 <transparent_crc>
   14348:	0f b6 05 b9 97 00 00 	movzbl 0x97b9(%rip),%eax        # 1db08 <g_2062>
   1434f:	48 0f be c0          	movsbq %al,%rax
   14353:	8b 55 fc             	mov    -0x4(%rbp),%edx
   14356:	48 8d 35 e9 1d 00 00 	lea    0x1de9(%rip),%rsi        # 16146 <g_3399+0xeee>
   1435d:	48 89 c7             	mov    %rax,%rdi
   14360:	e8 8e 53 ff ff       	callq  96f3 <transparent_crc>
   14365:	c7 45 f0 00 00 00 00 	movl   $0x0,-0x10(%rbp)
   1436c:	eb 78                	jmp    143e6 <main+0x901>
   1436e:	c7 45 f4 00 00 00 00 	movl   $0x0,-0xc(%rbp)
   14375:	eb 65                	jmp    143dc <main+0x8f7>
   14377:	8b 45 f4             	mov    -0xc(%rbp),%eax
   1437a:	48 63 c8             	movslq %eax,%rcx
   1437d:	8b 45 f0             	mov    -0x10(%rbp),%eax
   14380:	48 63 d0             	movslq %eax,%rdx
   14383:	48 89 d0             	mov    %rdx,%rax
   14386:	48 01 c0             	add    %rax,%rax
   14389:	48 01 d0             	add    %rdx,%rax
   1438c:	48 01 c8             	add    %rcx,%rax
   1438f:	48 8d 14 c5 00 00 00 	lea    0x0(,%rax,8),%rdx
   14396:	00 
   14397:	48 8d 05 42 51 00 00 	lea    0x5142(%rip),%rax        # 194e0 <g_2148>
   1439e:	48 8b 04 02          	mov    (%rdx,%rax,1),%rax
   143a2:	48 89 c1             	mov    %rax,%rcx
   143a5:	8b 45 fc             	mov    -0x4(%rbp),%eax
   143a8:	89 c2                	mov    %eax,%edx
   143aa:	48 8d 35 9c 1d 00 00 	lea    0x1d9c(%rip),%rsi        # 1614d <g_3399+0xef5>
   143b1:	48 89 cf             	mov    %rcx,%rdi
   143b4:	e8 3a 53 ff ff       	callq  96f3 <transparent_crc>
   143b9:	83 7d fc 00          	cmpl   $0x0,-0x4(%rbp)
   143bd:	74 19                	je     143d8 <main+0x8f3>
   143bf:	8b 55 f4             	mov    -0xc(%rbp),%edx
   143c2:	8b 45 f0             	mov    -0x10(%rbp),%eax
   143c5:	89 c6                	mov    %eax,%esi
   143c7:	48 8d 3d 5d 1c 00 00 	lea    0x1c5d(%rip),%rdi        # 1602b <g_3399+0xdd3>
   143ce:	b8 00 00 00 00       	mov    $0x0,%eax
   143d3:	e8 a8 3c ff ff       	callq  8080 <printf@plt>
   143d8:	83 45 f4 01          	addl   $0x1,-0xc(%rbp)
   143dc:	83 7d f4 02          	cmpl   $0x2,-0xc(%rbp)
   143e0:	7e 95                	jle    14377 <main+0x892>
   143e2:	83 45 f0 01          	addl   $0x1,-0x10(%rbp)
   143e6:	83 7d f0 06          	cmpl   $0x6,-0x10(%rbp)
   143ea:	7e 82                	jle    1436e <main+0x889>
   143ec:	0f b7 05 95 51 00 00 	movzwl 0x5195(%rip),%eax        # 19588 <g_2308>
   143f3:	0f b7 c0             	movzwl %ax,%eax
   143f6:	8b 55 fc             	mov    -0x4(%rbp),%edx
   143f9:	48 8d 35 5a 1d 00 00 	lea    0x1d5a(%rip),%rsi        # 1615a <g_3399+0xf02>
   14400:	48 89 c7             	mov    %rax,%rdi
   14403:	e8 eb 52 ff ff       	callq  96f3 <transparent_crc>
   14408:	c7 45 f0 00 00 00 00 	movl   $0x0,-0x10(%rbp)
   1440f:	e9 9f 00 00 00       	jmpq   144b3 <main+0x9ce>
   14414:	c7 45 f4 00 00 00 00 	movl   $0x0,-0xc(%rbp)
   1441b:	e9 85 00 00 00       	jmpq   144a5 <main+0x9c0>
   14420:	c7 45 f8 00 00 00 00 	movl   $0x0,-0x8(%rbp)
   14427:	eb 72                	jmp    1449b <main+0x9b6>
   14429:	8b 45 f8             	mov    -0x8(%rbp),%eax
   1442c:	48 63 c8             	movslq %eax,%rcx
   1442f:	8b 45 f0             	mov    -0x10(%rbp),%eax
   14432:	48 63 d0             	movslq %eax,%rdx
   14435:	8b 45 f4             	mov    -0xc(%rbp),%eax
   14438:	48 63 f0             	movslq %eax,%rsi
   1443b:	48 89 d0             	mov    %rdx,%rax
   1443e:	48 01 c0             	add    %rax,%rax
   14441:	48 01 d0             	add    %rdx,%rax
   14444:	48 01 f0             	add    %rsi,%rax
   14447:	48 01 c0             	add    %rax,%rax
   1444a:	48 01 c8             	add    %rcx,%rax
   1444d:	48 8d 14 85 00 00 00 	lea    0x0(,%rax,4),%rdx
   14454:	00 
   14455:	48 8d 05 44 51 00 00 	lea    0x5144(%rip),%rax        # 195a0 <g_2367>
   1445c:	8b 04 02             	mov    (%rdx,%rax,1),%eax
   1445f:	89 c1                	mov    %eax,%ecx
   14461:	8b 45 fc             	mov    -0x4(%rbp),%eax
   14464:	89 c2                	mov    %eax,%edx
   14466:	48 8d 35 f4 1c 00 00 	lea    0x1cf4(%rip),%rsi        # 16161 <g_3399+0xf09>
   1446d:	48 89 cf             	mov    %rcx,%rdi
   14470:	e8 7e 52 ff ff       	callq  96f3 <transparent_crc>
   14475:	83 7d fc 00          	cmpl   $0x0,-0x4(%rbp)
   14479:	74 1c                	je     14497 <main+0x9b2>
   1447b:	8b 4d f8             	mov    -0x8(%rbp),%ecx
   1447e:	8b 55 f4             	mov    -0xc(%rbp),%edx
   14481:	8b 45 f0             	mov    -0x10(%rbp),%eax
   14484:	89 c6                	mov    %eax,%esi
   14486:	48 8d 3d f2 1b 00 00 	lea    0x1bf2(%rip),%rdi        # 1607f <g_3399+0xe27>
   1448d:	b8 00 00 00 00       	mov    $0x0,%eax
   14492:	e8 e9 3b ff ff       	callq  8080 <printf@plt>
   14497:	83 45 f8 01          	addl   $0x1,-0x8(%rbp)
   1449b:	83 7d f8 01          	cmpl   $0x1,-0x8(%rbp)
   1449f:	7e 88                	jle    14429 <main+0x944>
   144a1:	83 45 f4 01          	addl   $0x1,-0xc(%rbp)
   144a5:	83 7d f4 02          	cmpl   $0x2,-0xc(%rbp)
   144a9:	0f 8e 71 ff ff ff    	jle    14420 <main+0x93b>
   144af:	83 45 f0 01          	addl   $0x1,-0x10(%rbp)
   144b3:	83 7d f0 08          	cmpl   $0x8,-0x10(%rbp)
   144b7:	0f 8e 57 ff ff ff    	jle    14414 <main+0x92f>
   144bd:	8b 05 b5 51 00 00    	mov    0x51b5(%rip),%eax        # 19678 <g_2374>
   144c3:	48 98                	cltq   
   144c5:	8b 55 fc             	mov    -0x4(%rbp),%edx
   144c8:	48 8d 35 a2 1c 00 00 	lea    0x1ca2(%rip),%rsi        # 16171 <g_3399+0xf19>
   144cf:	48 89 c7             	mov    %rax,%rdi
   144d2:	e8 1c 52 ff ff       	callq  96f3 <transparent_crc>
   144d7:	c7 45 f0 00 00 00 00 	movl   $0x0,-0x10(%rbp)
   144de:	eb 75                	jmp    14555 <main+0xa70>
   144e0:	c7 45 f4 00 00 00 00 	movl   $0x0,-0xc(%rbp)
   144e7:	eb 62                	jmp    1454b <main+0xa66>
   144e9:	8b 45 f4             	mov    -0xc(%rbp),%eax
   144ec:	48 63 c8             	movslq %eax,%rcx
   144ef:	8b 45 f0             	mov    -0x10(%rbp),%eax
   144f2:	48 63 d0             	movslq %eax,%rdx
   144f5:	48 89 d0             	mov    %rdx,%rax
   144f8:	48 c1 e0 03          	shl    $0x3,%rax
   144fc:	48 01 d0             	add    %rdx,%rax
   144ff:	48 01 c8             	add    %rcx,%rax
   14502:	48 8d 14 85 00 00 00 	lea    0x0(,%rax,4),%rdx
   14509:	00 
   1450a:	48 8d 05 6f 0c 00 00 	lea    0xc6f(%rip),%rax        # 15180 <g_2377>
   14511:	8b 04 02             	mov    (%rdx,%rax,1),%eax
   14514:	48 98                	cltq   
   14516:	8b 55 fc             	mov    -0x4(%rbp),%edx
   14519:	48 8d 35 58 1c 00 00 	lea    0x1c58(%rip),%rsi        # 16178 <g_3399+0xf20>
   14520:	48 89 c7             	mov    %rax,%rdi
   14523:	e8 cb 51 ff ff       	callq  96f3 <transparent_crc>
   14528:	83 7d fc 00          	cmpl   $0x0,-0x4(%rbp)
   1452c:	74 19                	je     14547 <main+0xa62>
   1452e:	8b 55 f4             	mov    -0xc(%rbp),%edx
   14531:	8b 45 f0             	mov    -0x10(%rbp),%eax
   14534:	89 c6                	mov    %eax,%esi
   14536:	48 8d 3d ee 1a 00 00 	lea    0x1aee(%rip),%rdi        # 1602b <g_3399+0xdd3>
   1453d:	b8 00 00 00 00       	mov    $0x0,%eax
   14542:	e8 39 3b ff ff       	callq  8080 <printf@plt>
   14547:	83 45 f4 01          	addl   $0x1,-0xc(%rbp)
   1454b:	83 7d f4 08          	cmpl   $0x8,-0xc(%rbp)
   1454f:	7e 98                	jle    144e9 <main+0xa04>
   14551:	83 45 f0 01          	addl   $0x1,-0x10(%rbp)
   14555:	83 7d f0 05          	cmpl   $0x5,-0x10(%rbp)
   14559:	7e 85                	jle    144e0 <main+0x9fb>
   1455b:	c7 45 f0 00 00 00 00 	movl   $0x0,-0x10(%rbp)
   14562:	e9 a2 00 00 00       	jmpq   14609 <main+0xb24>
   14567:	c7 45 f4 00 00 00 00 	movl   $0x0,-0xc(%rbp)
   1456e:	e9 88 00 00 00       	jmpq   145fb <main+0xb16>
   14573:	c7 45 f8 00 00 00 00 	movl   $0x0,-0x8(%rbp)
   1457a:	eb 75                	jmp    145f1 <main+0xb0c>
   1457c:	8b 45 f8             	mov    -0x8(%rbp),%eax
   1457f:	48 63 f0             	movslq %eax,%rsi
   14582:	8b 45 f0             	mov    -0x10(%rbp),%eax
   14585:	48 98                	cltq   
   14587:	8b 55 f4             	mov    -0xc(%rbp),%edx
   1458a:	48 63 ca             	movslq %edx,%rcx
   1458d:	48 89 c2             	mov    %rax,%rdx
   14590:	48 c1 e2 06          	shl    $0x6,%rdx
   14594:	48 29 c2             	sub    %rax,%rdx
   14597:	48 89 c8             	mov    %rcx,%rax
   1459a:	48 c1 e0 03          	shl    $0x3,%rax
   1459e:	48 29 c8             	sub    %rcx,%rax
   145a1:	48 01 d0             	add    %rdx,%rax
   145a4:	48 8d 14 30          	lea    (%rax,%rsi,1),%rdx
   145a8:	48 8d 05 d1 50 00 00 	lea    0x50d1(%rip),%rax        # 19680 <g_2398>
   145af:	48 01 d0             	add    %rdx,%rax
   145b2:	0f b6 00             	movzbl (%rax),%eax
   145b5:	48 0f be c0          	movsbq %al,%rax
   145b9:	8b 55 fc             	mov    -0x4(%rbp),%edx
   145bc:	48 8d 35 c2 1b 00 00 	lea    0x1bc2(%rip),%rsi        # 16185 <g_3399+0xf2d>
   145c3:	48 89 c7             	mov    %rax,%rdi
   145c6:	e8 28 51 ff ff       	callq  96f3 <transparent_crc>
   145cb:	83 7d fc 00          	cmpl   $0x0,-0x4(%rbp)
   145cf:	74 1c                	je     145ed <main+0xb08>
   145d1:	8b 4d f8             	mov    -0x8(%rbp),%ecx
   145d4:	8b 55 f4             	mov    -0xc(%rbp),%edx
   145d7:	8b 45 f0             	mov    -0x10(%rbp),%eax
   145da:	89 c6                	mov    %eax,%esi
   145dc:	48 8d 3d 9c 1a 00 00 	lea    0x1a9c(%rip),%rdi        # 1607f <g_3399+0xe27>
   145e3:	b8 00 00 00 00       	mov    $0x0,%eax
   145e8:	e8 93 3a ff ff       	callq  8080 <printf@plt>
   145ed:	83 45 f8 01          	addl   $0x1,-0x8(%rbp)
   145f1:	83 7d f8 06          	cmpl   $0x6,-0x8(%rbp)
   145f5:	7e 85                	jle    1457c <main+0xa97>
   145f7:	83 45 f4 01          	addl   $0x1,-0xc(%rbp)
   145fb:	83 7d f4 08          	cmpl   $0x8,-0xc(%rbp)
   145ff:	0f 8e 6e ff ff ff    	jle    14573 <main+0xa8e>
   14605:	83 45 f0 01          	addl   $0x1,-0x10(%rbp)
   14609:	83 7d f0 02          	cmpl   $0x2,-0x10(%rbp)
   1460d:	0f 8e 54 ff ff ff    	jle    14567 <main+0xa82>
   14613:	c7 45 f0 00 00 00 00 	movl   $0x0,-0x10(%rbp)
   1461a:	e9 9c 00 00 00       	jmpq   146bb <main+0xbd6>
   1461f:	c7 45 f4 00 00 00 00 	movl   $0x0,-0xc(%rbp)
   14626:	e9 82 00 00 00       	jmpq   146ad <main+0xbc8>
   1462b:	c7 45 f8 00 00 00 00 	movl   $0x0,-0x8(%rbp)
   14632:	eb 6f                	jmp    146a3 <main+0xbbe>
   14634:	8b 45 f8             	mov    -0x8(%rbp),%eax
   14637:	48 98                	cltq   
   14639:	8b 55 f0             	mov    -0x10(%rbp),%edx
   1463c:	48 63 ca             	movslq %edx,%rcx
   1463f:	8b 55 f4             	mov    -0xc(%rbp),%edx
   14642:	48 63 d2             	movslq %edx,%rdx
   14645:	48 c1 e1 03          	shl    $0x3,%rcx
   14649:	48 01 ca             	add    %rcx,%rdx
   1464c:	48 c1 e2 02          	shl    $0x2,%rdx
   14650:	48 01 d0             	add    %rdx,%rax
   14653:	48 8d 14 c5 00 00 00 	lea    0x0(,%rax,8),%rdx
   1465a:	00 
   1465b:	48 8d 05 de 50 00 00 	lea    0x50de(%rip),%rax        # 19740 <g_2624>
   14662:	48 8b 04 02          	mov    (%rdx,%rax,1),%rax
   14666:	48 89 c1             	mov    %rax,%rcx
   14669:	8b 45 fc             	mov    -0x4(%rbp),%eax
   1466c:	89 c2                	mov    %eax,%edx
   1466e:	48 8d 35 20 1b 00 00 	lea    0x1b20(%rip),%rsi        # 16195 <g_3399+0xf3d>
   14675:	48 89 cf             	mov    %rcx,%rdi
   14678:	e8 76 50 ff ff       	callq  96f3 <transparent_crc>
   1467d:	83 7d fc 00          	cmpl   $0x0,-0x4(%rbp)
   14681:	74 1c                	je     1469f <main+0xbba>
   14683:	8b 4d f8             	mov    -0x8(%rbp),%ecx
   14686:	8b 55 f4             	mov    -0xc(%rbp),%edx
   14689:	8b 45 f0             	mov    -0x10(%rbp),%eax
   1468c:	89 c6                	mov    %eax,%esi
   1468e:	48 8d 3d ea 19 00 00 	lea    0x19ea(%rip),%rdi        # 1607f <g_3399+0xe27>
   14695:	b8 00 00 00 00       	mov    $0x0,%eax
   1469a:	e8 e1 39 ff ff       	callq  8080 <printf@plt>
   1469f:	83 45 f8 01          	addl   $0x1,-0x8(%rbp)
   146a3:	83 7d f8 03          	cmpl   $0x3,-0x8(%rbp)
   146a7:	7e 8b                	jle    14634 <main+0xb4f>
   146a9:	83 45 f4 01          	addl   $0x1,-0xc(%rbp)
   146ad:	83 7d f4 07          	cmpl   $0x7,-0xc(%rbp)
   146b1:	0f 8e 74 ff ff ff    	jle    1462b <main+0xb46>
   146b7:	83 45 f0 01          	addl   $0x1,-0x10(%rbp)
   146bb:	83 7d f0 06          	cmpl   $0x6,-0x10(%rbp)
   146bf:	0f 8e 5a ff ff ff    	jle    1461f <main+0xb3a>
   146c5:	0f b6 05 74 57 00 00 	movzbl 0x5774(%rip),%eax        # 19e40 <g_2842>
   146cc:	0f b6 c0             	movzbl %al,%eax
   146cf:	8b 55 fc             	mov    -0x4(%rbp),%edx
   146d2:	48 8d 35 cc 1a 00 00 	lea    0x1acc(%rip),%rsi        # 161a5 <g_3399+0xf4d>
   146d9:	48 89 c7             	mov    %rax,%rdi
   146dc:	e8 12 50 ff ff       	callq  96f3 <transparent_crc>
   146e1:	0f b6 05 59 57 00 00 	movzbl 0x5759(%rip),%eax        # 19e41 <g_2892>
   146e8:	0f b6 c0             	movzbl %al,%eax
   146eb:	8b 55 fc             	mov    -0x4(%rbp),%edx
   146ee:	48 8d 35 b7 1a 00 00 	lea    0x1ab7(%rip),%rsi        # 161ac <g_3399+0xf54>
   146f5:	48 89 c7             	mov    %rax,%rdi
   146f8:	e8 f6 4f ff ff       	callq  96f3 <transparent_crc>
   146fd:	c7 45 f0 00 00 00 00 	movl   $0x0,-0x10(%rbp)
   14704:	eb 49                	jmp    1474f <main+0xc6a>
   14706:	8b 45 f0             	mov    -0x10(%rbp),%eax
   14709:	48 98                	cltq   
   1470b:	48 8d 14 00          	lea    (%rax,%rax,1),%rdx
   1470f:	48 8d 05 3a 57 00 00 	lea    0x573a(%rip),%rax        # 19e50 <g_3108>
   14716:	0f b7 04 02          	movzwl (%rdx,%rax,1),%eax
   1471a:	0f b7 c0             	movzwl %ax,%eax
   1471d:	8b 55 fc             	mov    -0x4(%rbp),%edx
   14720:	48 8d 35 8c 1a 00 00 	lea    0x1a8c(%rip),%rsi        # 161b3 <g_3399+0xf5b>
   14727:	48 89 c7             	mov    %rax,%rdi
   1472a:	e8 c4 4f ff ff       	callq  96f3 <transparent_crc>
   1472f:	83 7d fc 00          	cmpl   $0x0,-0x4(%rbp)
   14733:	74 16                	je     1474b <main+0xc66>
   14735:	8b 45 f0             	mov    -0x10(%rbp),%eax
   14738:	89 c6                	mov    %eax,%esi
   1473a:	48 8d 3d c9 18 00 00 	lea    0x18c9(%rip),%rdi        # 1600a <g_3399+0xdb2>
   14741:	b8 00 00 00 00       	mov    $0x0,%eax
   14746:	e8 35 39 ff ff       	callq  8080 <printf@plt>
   1474b:	83 45 f0 01          	addl   $0x1,-0x10(%rbp)
   1474f:	83 7d f0 09          	cmpl   $0x9,-0x10(%rbp)
   14753:	7e b1                	jle    14706 <main+0xc21>
   14755:	c7 45 f0 00 00 00 00 	movl   $0x0,-0x10(%rbp)
   1475c:	eb 75                	jmp    147d3 <main+0xcee>
   1475e:	c7 45 f4 00 00 00 00 	movl   $0x0,-0xc(%rbp)
   14765:	eb 62                	jmp    147c9 <main+0xce4>
   14767:	8b 45 f4             	mov    -0xc(%rbp),%eax
   1476a:	48 63 c8             	movslq %eax,%rcx
   1476d:	8b 45 f0             	mov    -0x10(%rbp),%eax
   14770:	48 63 d0             	movslq %eax,%rdx
   14773:	48 89 d0             	mov    %rdx,%rax
   14776:	48 01 c0             	add    %rax,%rax
   14779:	48 01 d0             	add    %rdx,%rax
   1477c:	48 01 c0             	add    %rax,%rax
   1477f:	48 8d 14 08          	lea    (%rax,%rcx,1),%rdx
   14783:	48 8d 05 de 56 00 00 	lea    0x56de(%rip),%rax        # 19e68 <g_3119>
   1478a:	48 01 d0             	add    %rdx,%rax
   1478d:	0f b6 00             	movzbl (%rax),%eax
   14790:	48 0f be c0          	movsbq %al,%rax
   14794:	8b 55 fc             	mov    -0x4(%rbp),%edx
   14797:	48 8d 35 1f 1a 00 00 	lea    0x1a1f(%rip),%rsi        # 161bd <g_3399+0xf65>
   1479e:	48 89 c7             	mov    %rax,%rdi
   147a1:	e8 4d 4f ff ff       	callq  96f3 <transparent_crc>
   147a6:	83 7d fc 00          	cmpl   $0x0,-0x4(%rbp)
   147aa:	74 19                	je     147c5 <main+0xce0>
   147ac:	8b 55 f4             	mov    -0xc(%rbp),%edx
   147af:	8b 45 f0             	mov    -0x10(%rbp),%eax
   147b2:	89 c6                	mov    %eax,%esi
   147b4:	48 8d 3d 70 18 00 00 	lea    0x1870(%rip),%rdi        # 1602b <g_3399+0xdd3>
   147bb:	b8 00 00 00 00       	mov    $0x0,%eax
   147c0:	e8 bb 38 ff ff       	callq  8080 <printf@plt>
   147c5:	83 45 f4 01          	addl   $0x1,-0xc(%rbp)
   147c9:	83 7d f4 05          	cmpl   $0x5,-0xc(%rbp)
   147cd:	7e 98                	jle    14767 <main+0xc82>
   147cf:	83 45 f0 01          	addl   $0x1,-0x10(%rbp)
   147d3:	83 7d f0 01          	cmpl   $0x1,-0x10(%rbp)
   147d7:	7e 85                	jle    1475e <main+0xc79>
   147d9:	c7 45 f0 00 00 00 00 	movl   $0x0,-0x10(%rbp)
   147e0:	e9 af 00 00 00       	jmpq   14894 <main+0xdaf>
   147e5:	c7 45 f4 00 00 00 00 	movl   $0x0,-0xc(%rbp)
   147ec:	e9 95 00 00 00       	jmpq   14886 <main+0xda1>
   147f1:	c7 45 f8 00 00 00 00 	movl   $0x0,-0x8(%rbp)
   147f8:	eb 7e                	jmp    14878 <main+0xd93>
   147fa:	8b 45 f8             	mov    -0x8(%rbp),%eax
   147fd:	48 63 f0             	movslq %eax,%rsi
   14800:	8b 45 f0             	mov    -0x10(%rbp),%eax
   14803:	48 63 d0             	movslq %eax,%rdx
   14806:	8b 45 f4             	mov    -0xc(%rbp),%eax
   14809:	48 63 c8             	movslq %eax,%rcx
   1480c:	48 89 d0             	mov    %rdx,%rax
   1480f:	48 c1 e0 03          	shl    $0x3,%rax
   14813:	48 01 d0             	add    %rdx,%rax
   14816:	48 c1 e0 02          	shl    $0x2,%rax
   1481a:	48 29 d0             	sub    %rdx,%rax
   1481d:	48 89 ca             	mov    %rcx,%rdx
   14820:	48 c1 e2 03          	shl    $0x3,%rdx
   14824:	48 29 ca             	sub    %rcx,%rdx
   14827:	48 01 d0             	add    %rdx,%rax
   1482a:	48 01 f0             	add    %rsi,%rax
   1482d:	48 8d 14 c5 00 00 00 	lea    0x0(,%rax,8),%rdx
   14834:	00 
   14835:	48 8d 05 44 56 00 00 	lea    0x5644(%rip),%rax        # 19e80 <g_3251>
   1483c:	48 8b 04 02          	mov    (%rdx,%rax,1),%rax
   14840:	8b 55 fc             	mov    -0x4(%rbp),%edx
   14843:	48 8d 35 80 19 00 00 	lea    0x1980(%rip),%rsi        # 161ca <g_3399+0xf72>
   1484a:	48 89 c7             	mov    %rax,%rdi
   1484d:	e8 a1 4e ff ff       	callq  96f3 <transparent_crc>
   14852:	83 7d fc 00          	cmpl   $0x0,-0x4(%rbp)
   14856:	74 1c                	je     14874 <main+0xd8f>
   14858:	8b 4d f8             	mov    -0x8(%rbp),%ecx
   1485b:	8b 55 f4             	mov    -0xc(%rbp),%edx
   1485e:	8b 45 f0             	mov    -0x10(%rbp),%eax
   14861:	89 c6                	mov    %eax,%esi
   14863:	48 8d 3d 15 18 00 00 	lea    0x1815(%rip),%rdi        # 1607f <g_3399+0xe27>
   1486a:	b8 00 00 00 00       	mov    $0x0,%eax
   1486f:	e8 0c 38 ff ff       	callq  8080 <printf@plt>
   14874:	83 45 f8 01          	addl   $0x1,-0x8(%rbp)
   14878:	83 7d f8 06          	cmpl   $0x6,-0x8(%rbp)
   1487c:	0f 8e 78 ff ff ff    	jle    147fa <main+0xd15>
   14882:	83 45 f4 01          	addl   $0x1,-0xc(%rbp)
   14886:	83 7d f4 04          	cmpl   $0x4,-0xc(%rbp)
   1488a:	0f 8e 61 ff ff ff    	jle    147f1 <main+0xd0c>
   14890:	83 45 f0 01          	addl   $0x1,-0x10(%rbp)
   14894:	83 7d f0 06          	cmpl   $0x6,-0x10(%rbp)
   14898:	0f 8e 47 ff ff ff    	jle    147e5 <main+0xd00>
   1489e:	48 b9 2e ad 06 78 ec 	movabs $0xb4ef0aec7806ad2e,%rcx
   148a5:	0a ef b4 
   148a8:	8b 45 fc             	mov    -0x4(%rbp),%eax
   148ab:	89 c2                	mov    %eax,%edx
   148ad:	48 8d 35 26 19 00 00 	lea    0x1926(%rip),%rsi        # 161da <g_3399+0xf82>
   148b4:	48 89 cf             	mov    %rcx,%rdi
   148b7:	e8 37 4e ff ff       	callq  96f3 <transparent_crc>
   148bc:	8b 05 66 5d 00 00    	mov    0x5d66(%rip),%eax        # 1a628 <g_3515>
   148c2:	89 c1                	mov    %eax,%ecx
   148c4:	8b 45 fc             	mov    -0x4(%rbp),%eax
   148c7:	89 c2                	mov    %eax,%edx
   148c9:	48 8d 35 11 19 00 00 	lea    0x1911(%rip),%rsi        # 161e1 <g_3399+0xf89>
   148d0:	48 89 cf             	mov    %rcx,%rdi
   148d3:	e8 1b 4e ff ff       	callq  96f3 <transparent_crc>
   148d8:	0f b6 05 4d 5d 00 00 	movzbl 0x5d4d(%rip),%eax        # 1a62c <g_3529>
   148df:	0f b6 c0             	movzbl %al,%eax
   148e2:	8b 55 fc             	mov    -0x4(%rbp),%edx
   148e5:	48 8d 35 fc 18 00 00 	lea    0x18fc(%rip),%rsi        # 161e8 <g_3399+0xf90>
   148ec:	48 89 c7             	mov    %rax,%rdi
   148ef:	e8 ff 4d ff ff       	callq  96f3 <transparent_crc>
   148f4:	8b 05 26 47 00 00    	mov    0x4726(%rip),%eax        # 19020 <crc32_context>
   148fa:	f7 d0                	not    %eax
   148fc:	89 c2                	mov    %eax,%edx
   148fe:	8b 45 fc             	mov    -0x4(%rbp),%eax
   14901:	89 c6                	mov    %eax,%esi
   14903:	89 d7                	mov    %edx,%edi
   14905:	e8 8a 38 ff ff       	callq  8194 <platform_main_end>
   1490a:	b8 00 00 00 00       	mov    $0x0,%eax
   1490f:	c9                   	leaveq 
   14910:	c3                   	retq   
   14911:	66 2e 0f 1f 84 00 00 	nopw   %cs:0x0(%rax,%rax,1)
   14918:	00 00 00 
   1491b:	0f 1f 44 00 00       	nopl   0x0(%rax,%rax,1)

0000000000014920 <__libc_csu_init>:
   14920:	f3 0f 1e fa          	endbr64 
   14924:	41 57                	push   %r15
   14926:	4c 8d 3d 83 40 00 00 	lea    0x4083(%rip),%r15        # 189b0 <__frame_dummy_init_array_entry>
   1492d:	41 56                	push   %r14
   1492f:	49 89 d6             	mov    %rdx,%r14
   14932:	41 55                	push   %r13
   14934:	49 89 f5             	mov    %rsi,%r13
   14937:	41 54                	push   %r12
   14939:	41 89 fc             	mov    %edi,%r12d
   1493c:	55                   	push   %rbp
   1493d:	48 8d 2d 74 40 00 00 	lea    0x4074(%rip),%rbp        # 189b8 <__do_global_dtors_aux_fini_array_entry>
   14944:	53                   	push   %rbx
   14945:	4c 29 fd             	sub    %r15,%rbp
   14948:	48 83 ec 08          	sub    $0x8,%rsp
   1494c:	e8 af 36 ff ff       	callq  8000 <_init>
   14951:	48 c1 fd 03          	sar    $0x3,%rbp
   14955:	74 1f                	je     14976 <__libc_csu_init+0x56>
   14957:	31 db                	xor    %ebx,%ebx
   14959:	0f 1f 80 00 00 00 00 	nopl   0x0(%rax)
   14960:	4c 89 f2             	mov    %r14,%rdx
   14963:	4c 89 ee             	mov    %r13,%rsi
   14966:	44 89 e7             	mov    %r12d,%edi
   14969:	41 ff 14 df          	callq  *(%r15,%rbx,8)
   1496d:	48 83 c3 01          	add    $0x1,%rbx
   14971:	48 39 dd             	cmp    %rbx,%rbp
   14974:	75 ea                	jne    14960 <__libc_csu_init+0x40>
   14976:	48 83 c4 08          	add    $0x8,%rsp
   1497a:	5b                   	pop    %rbx
   1497b:	5d                   	pop    %rbp
   1497c:	41 5c                	pop    %r12
   1497e:	41 5d                	pop    %r13
   14980:	41 5e                	pop    %r14
   14982:	41 5f                	pop    %r15
   14984:	c3                   	retq   
   14985:	66 66 2e 0f 1f 84 00 	data16 nopw %cs:0x0(%rax,%rax,1)
   1498c:	00 00 00 00 

0000000000014990 <__libc_csu_fini>:
   14990:	f3 0f 1e fa          	endbr64 
   14994:	c3                   	retq   
