


Disassembly of section .text:

00000000000050a0 <_start>:
    50a0:	f3 0f 1e fa          	endbr64 
    50a4:	31 ed                	xor    %ebp,%ebp
    50a6:	49 89 d1             	mov    %rdx,%r9
    50a9:	5e                   	pop    %rsi
    50aa:	48 89 e2             	mov    %rsp,%rdx
    50ad:	48 83 e4 f0          	and    $0xfffffffffffffff0,%rsp
    50b1:	50                   	push   %rax
    50b2:	54                   	push   %rsp
    50b3:	4c 8d 05 c6 fd 00 00 	lea    0xfdc6(%rip),%r8        # 14e80 <__libc_csu_fini>
    50ba:	48 8d 0d 4f fd 00 00 	lea    0xfd4f(%rip),%rcx        # 14e10 <__libc_csu_init>
    50c1:	48 8d 3d f6 e1 00 00 	lea    0xe1f6(%rip),%rdi        # 132be <main>
    50c8:	ff 15 fa 4e 01 00    	callq  *0x14efa(%rip)        # 19fc8 <__libc_start_main@GLIBC_2.2.5>
    50ce:	f4                   	hlt    
    50cf:	90                   	nop

00000000000050d0 <deregister_tm_clones>:
    50d0:	48 8d 3d 79 7a 01 00 	lea    0x17a79(%rip),%rdi        # 1cb50 <__TMC_END__>
    50d7:	48 8d 05 72 7a 01 00 	lea    0x17a72(%rip),%rax        # 1cb50 <__TMC_END__>
    50de:	48 39 f8             	cmp    %rdi,%rax
    50e1:	74 15                	je     50f8 <deregister_tm_clones+0x28>
    50e3:	48 8b 05 d6 4e 01 00 	mov    0x14ed6(%rip),%rax        # 19fc0 <_ITM_deregisterTMCloneTable>
    50ea:	48 85 c0             	test   %rax,%rax
    50ed:	74 09                	je     50f8 <deregister_tm_clones+0x28>
    50ef:	ff e0                	jmpq   *%rax
    50f1:	0f 1f 80 00 00 00 00 	nopl   0x0(%rax)
    50f8:	c3                   	retq   
    50f9:	0f 1f 80 00 00 00 00 	nopl   0x0(%rax)

0000000000005100 <register_tm_clones>:
    5100:	48 8d 3d 49 7a 01 00 	lea    0x17a49(%rip),%rdi        # 1cb50 <__TMC_END__>
    5107:	48 8d 35 42 7a 01 00 	lea    0x17a42(%rip),%rsi        # 1cb50 <__TMC_END__>
    510e:	48 29 fe             	sub    %rdi,%rsi
    5111:	48 89 f0             	mov    %rsi,%rax
    5114:	48 c1 ee 3f          	shr    $0x3f,%rsi
    5118:	48 c1 f8 03          	sar    $0x3,%rax
    511c:	48 01 c6             	add    %rax,%rsi
    511f:	48 d1 fe             	sar    %rsi
    5122:	74 14                	je     5138 <register_tm_clones+0x38>
    5124:	48 8b 05 ad 4e 01 00 	mov    0x14ead(%rip),%rax        # 19fd8 <_ITM_registerTMCloneTable>
    512b:	48 85 c0             	test   %rax,%rax
    512e:	74 08                	je     5138 <register_tm_clones+0x38>
    5130:	ff e0                	jmpq   *%rax
    5132:	66 0f 1f 44 00 00    	nopw   0x0(%rax,%rax,1)
    5138:	c3                   	retq   
    5139:	0f 1f 80 00 00 00 00 	nopl   0x0(%rax)

0000000000005140 <__do_global_dtors_aux>:
    5140:	f3 0f 1e fa          	endbr64 
    5144:	80 3d 15 7a 01 00 00 	cmpb   $0x0,0x17a15(%rip)        # 1cb60 <completed.8061>
    514b:	75 2b                	jne    5178 <__do_global_dtors_aux+0x38>
    514d:	55                   	push   %rbp
    514e:	48 83 3d 8a 4e 01 00 	cmpq   $0x0,0x14e8a(%rip)        # 19fe0 <__cxa_finalize@GLIBC_2.2.5>
    5155:	00 
    5156:	48 89 e5             	mov    %rsp,%rbp
    5159:	74 0c                	je     5167 <__do_global_dtors_aux+0x27>
    515b:	48 8b 3d a6 4e 01 00 	mov    0x14ea6(%rip),%rdi        # 1a008 <__dso_handle>
    5162:	e8 f9 fe ff ff       	callq  5060 <__cxa_finalize@plt>
    5167:	e8 64 ff ff ff       	callq  50d0 <deregister_tm_clones>
    516c:	c6 05 ed 79 01 00 01 	movb   $0x1,0x179ed(%rip)        # 1cb60 <completed.8061>
    5173:	5d                   	pop    %rbp
    5174:	c3                   	retq   
    5175:	0f 1f 00             	nopl   (%rax)
    5178:	c3                   	retq   
    5179:	0f 1f 80 00 00 00 00 	nopl   0x0(%rax)

0000000000005180 <frame_dummy>:
    5180:	f3 0f 1e fa          	endbr64 
    5184:	e9 77 ff ff ff       	jmpq   5100 <register_tm_clones>

0000000000005189 <platform_main_begin>:
    5189:	f3 0f 1e fa          	endbr64 
    518d:	55                   	push   %rbp
    518e:	48 89 e5             	mov    %rsp,%rbp
    5191:	90                   	nop
    5192:	5d                   	pop    %rbp
    5193:	c3                   	retq   

0000000000005194 <platform_main_end>:
    5194:	f3 0f 1e fa          	endbr64 
    5198:	55                   	push   %rbp
    5199:	48 89 e5             	mov    %rsp,%rbp
    519c:	48 83 ec 10          	sub    $0x10,%rsp
    51a0:	89 7d fc             	mov    %edi,-0x4(%rbp)
    51a3:	89 75 f8             	mov    %esi,-0x8(%rbp)
    51a6:	8b 45 fc             	mov    -0x4(%rbp),%eax
    51a9:	89 c6                	mov    %eax,%esi
    51ab:	48 8d 3d 6e fe 00 00 	lea    0xfe6e(%rip),%rdi        # 15020 <_IO_stdin_used+0x20>
    51b2:	b8 00 00 00 00       	mov    $0x0,%eax
    51b7:	e8 c4 fe ff ff       	callq  5080 <printf@plt>
    51bc:	90                   	nop
    51bd:	c9                   	leaveq 
    51be:	c3                   	retq   

00000000000051bf <safe_unary_minus_func_int8_t_s>:
    51bf:	f3 0f 1e fa          	endbr64 
    51c3:	55                   	push   %rbp
    51c4:	48 89 e5             	mov    %rsp,%rbp
    51c7:	89 f8                	mov    %edi,%eax
    51c9:	88 45 fc             	mov    %al,-0x4(%rbp)
    51cc:	0f b6 45 fc          	movzbl -0x4(%rbp),%eax
    51d0:	f7 d8                	neg    %eax
    51d2:	5d                   	pop    %rbp
    51d3:	c3                   	retq   

00000000000051d4 <safe_add_func_int8_t_s_s>:
    51d4:	f3 0f 1e fa          	endbr64 
    51d8:	55                   	push   %rbp
    51d9:	48 89 e5             	mov    %rsp,%rbp
    51dc:	89 fa                	mov    %edi,%edx
    51de:	89 f0                	mov    %esi,%eax
    51e0:	88 55 fc             	mov    %dl,-0x4(%rbp)
    51e3:	88 45 f8             	mov    %al,-0x8(%rbp)
    51e6:	0f b6 55 fc          	movzbl -0x4(%rbp),%edx
    51ea:	0f b6 45 f8          	movzbl -0x8(%rbp),%eax
    51ee:	01 d0                	add    %edx,%eax
    51f0:	5d                   	pop    %rbp
    51f1:	c3                   	retq   

00000000000051f2 <safe_sub_func_int8_t_s_s>:
    51f2:	f3 0f 1e fa          	endbr64 
    51f6:	55                   	push   %rbp
    51f7:	48 89 e5             	mov    %rsp,%rbp
    51fa:	89 fa                	mov    %edi,%edx
    51fc:	89 f0                	mov    %esi,%eax
    51fe:	88 55 fc             	mov    %dl,-0x4(%rbp)
    5201:	88 45 f8             	mov    %al,-0x8(%rbp)
    5204:	0f b6 55 fc          	movzbl -0x4(%rbp),%edx
    5208:	0f b6 45 f8          	movzbl -0x8(%rbp),%eax
    520c:	29 c2                	sub    %eax,%edx
    520e:	89 d0                	mov    %edx,%eax
    5210:	5d                   	pop    %rbp
    5211:	c3                   	retq   

0000000000005212 <safe_mul_func_int8_t_s_s>:
    5212:	f3 0f 1e fa          	endbr64 
    5216:	55                   	push   %rbp
    5217:	48 89 e5             	mov    %rsp,%rbp
    521a:	89 fa                	mov    %edi,%edx
    521c:	89 f0                	mov    %esi,%eax
    521e:	88 55 fc             	mov    %dl,-0x4(%rbp)
    5221:	88 45 f8             	mov    %al,-0x8(%rbp)
    5224:	0f b6 45 fc          	movzbl -0x4(%rbp),%eax
    5228:	0f b6 55 f8          	movzbl -0x8(%rbp),%edx
    522c:	0f af c2             	imul   %edx,%eax
    522f:	5d                   	pop    %rbp
    5230:	c3                   	retq   

0000000000005231 <safe_mod_func_int8_t_s_s>:
    5231:	f3 0f 1e fa          	endbr64 
    5235:	55                   	push   %rbp
    5236:	48 89 e5             	mov    %rsp,%rbp
    5239:	89 fa                	mov    %edi,%edx
    523b:	89 f0                	mov    %esi,%eax
    523d:	88 55 fc             	mov    %dl,-0x4(%rbp)
    5240:	88 45 f8             	mov    %al,-0x8(%rbp)
    5243:	80 7d f8 00          	cmpb   $0x0,-0x8(%rbp)
    5247:	74 1b                	je     5264 <safe_mod_func_int8_t_s_s+0x33>
    5249:	80 7d fc 80          	cmpb   $0x80,-0x4(%rbp)
    524d:	75 06                	jne    5255 <safe_mod_func_int8_t_s_s+0x24>
    524f:	80 7d f8 ff          	cmpb   $0xff,-0x8(%rbp)
    5253:	74 0f                	je     5264 <safe_mod_func_int8_t_s_s+0x33>
    5255:	0f be 45 fc          	movsbl -0x4(%rbp),%eax
    5259:	0f be 4d f8          	movsbl -0x8(%rbp),%ecx
    525d:	99                   	cltd   
    525e:	f7 f9                	idiv   %ecx
    5260:	89 d0                	mov    %edx,%eax
    5262:	eb 04                	jmp    5268 <safe_mod_func_int8_t_s_s+0x37>
    5264:	0f b6 45 fc          	movzbl -0x4(%rbp),%eax
    5268:	5d                   	pop    %rbp
    5269:	c3                   	retq   

000000000000526a <safe_div_func_int8_t_s_s>:
    526a:	f3 0f 1e fa          	endbr64 
    526e:	55                   	push   %rbp
    526f:	48 89 e5             	mov    %rsp,%rbp
    5272:	89 fa                	mov    %edi,%edx
    5274:	89 f0                	mov    %esi,%eax
    5276:	88 55 fc             	mov    %dl,-0x4(%rbp)
    5279:	88 45 f8             	mov    %al,-0x8(%rbp)
    527c:	80 7d f8 00          	cmpb   $0x0,-0x8(%rbp)
    5280:	74 19                	je     529b <safe_div_func_int8_t_s_s+0x31>
    5282:	80 7d fc 80          	cmpb   $0x80,-0x4(%rbp)
    5286:	75 06                	jne    528e <safe_div_func_int8_t_s_s+0x24>
    5288:	80 7d f8 ff          	cmpb   $0xff,-0x8(%rbp)
    528c:	74 0d                	je     529b <safe_div_func_int8_t_s_s+0x31>
    528e:	0f be 45 fc          	movsbl -0x4(%rbp),%eax
    5292:	0f be 4d f8          	movsbl -0x8(%rbp),%ecx
    5296:	99                   	cltd   
    5297:	f7 f9                	idiv   %ecx
    5299:	eb 04                	jmp    529f <safe_div_func_int8_t_s_s+0x35>
    529b:	0f b6 45 fc          	movzbl -0x4(%rbp),%eax
    529f:	5d                   	pop    %rbp
    52a0:	c3                   	retq   

00000000000052a1 <safe_lshift_func_int8_t_s_s>:
    52a1:	f3 0f 1e fa          	endbr64 
    52a5:	55                   	push   %rbp
    52a6:	48 89 e5             	mov    %rsp,%rbp
    52a9:	89 f8                	mov    %edi,%eax
    52ab:	89 75 f8             	mov    %esi,-0x8(%rbp)
    52ae:	88 45 fc             	mov    %al,-0x4(%rbp)
    52b1:	80 7d fc 00          	cmpb   $0x0,-0x4(%rbp)
    52b5:	78 31                	js     52e8 <safe_lshift_func_int8_t_s_s+0x47>
    52b7:	83 7d f8 00          	cmpl   $0x0,-0x8(%rbp)
    52bb:	78 2b                	js     52e8 <safe_lshift_func_int8_t_s_s+0x47>
    52bd:	83 7d f8 1f          	cmpl   $0x1f,-0x8(%rbp)
    52c1:	7f 25                	jg     52e8 <safe_lshift_func_int8_t_s_s+0x47>
    52c3:	0f be 55 fc          	movsbl -0x4(%rbp),%edx
    52c7:	8b 45 f8             	mov    -0x8(%rbp),%eax
    52ca:	be 7f 00 00 00       	mov    $0x7f,%esi
    52cf:	89 c1                	mov    %eax,%ecx
    52d1:	d3 fe                	sar    %cl,%esi
    52d3:	89 f0                	mov    %esi,%eax
    52d5:	39 c2                	cmp    %eax,%edx
    52d7:	7f 0f                	jg     52e8 <safe_lshift_func_int8_t_s_s+0x47>
    52d9:	0f be 55 fc          	movsbl -0x4(%rbp),%edx
    52dd:	8b 45 f8             	mov    -0x8(%rbp),%eax
    52e0:	89 c1                	mov    %eax,%ecx
    52e2:	d3 e2                	shl    %cl,%edx
    52e4:	89 d0                	mov    %edx,%eax
    52e6:	eb 04                	jmp    52ec <safe_lshift_func_int8_t_s_s+0x4b>
    52e8:	0f b6 45 fc          	movzbl -0x4(%rbp),%eax
    52ec:	5d                   	pop    %rbp
    52ed:	c3                   	retq   

00000000000052ee <safe_lshift_func_int8_t_s_u>:
    52ee:	f3 0f 1e fa          	endbr64 
    52f2:	55                   	push   %rbp
    52f3:	48 89 e5             	mov    %rsp,%rbp
    52f6:	89 f8                	mov    %edi,%eax
    52f8:	89 75 f8             	mov    %esi,-0x8(%rbp)
    52fb:	88 45 fc             	mov    %al,-0x4(%rbp)
    52fe:	80 7d fc 00          	cmpb   $0x0,-0x4(%rbp)
    5302:	78 2b                	js     532f <safe_lshift_func_int8_t_s_u+0x41>
    5304:	83 7d f8 1f          	cmpl   $0x1f,-0x8(%rbp)
    5308:	77 25                	ja     532f <safe_lshift_func_int8_t_s_u+0x41>
    530a:	0f be 55 fc          	movsbl -0x4(%rbp),%edx
    530e:	8b 45 f8             	mov    -0x8(%rbp),%eax
    5311:	be 7f 00 00 00       	mov    $0x7f,%esi
    5316:	89 c1                	mov    %eax,%ecx
    5318:	d3 fe                	sar    %cl,%esi
    531a:	89 f0                	mov    %esi,%eax
    531c:	39 c2                	cmp    %eax,%edx
    531e:	7f 0f                	jg     532f <safe_lshift_func_int8_t_s_u+0x41>
    5320:	0f be 55 fc          	movsbl -0x4(%rbp),%edx
    5324:	8b 45 f8             	mov    -0x8(%rbp),%eax
    5327:	89 c1                	mov    %eax,%ecx
    5329:	d3 e2                	shl    %cl,%edx
    532b:	89 d0                	mov    %edx,%eax
    532d:	eb 04                	jmp    5333 <safe_lshift_func_int8_t_s_u+0x45>
    532f:	0f b6 45 fc          	movzbl -0x4(%rbp),%eax
    5333:	5d                   	pop    %rbp
    5334:	c3                   	retq   

0000000000005335 <safe_rshift_func_int8_t_s_s>:
    5335:	f3 0f 1e fa          	endbr64 
    5339:	55                   	push   %rbp
    533a:	48 89 e5             	mov    %rsp,%rbp
    533d:	89 f8                	mov    %edi,%eax
    533f:	89 75 f8             	mov    %esi,-0x8(%rbp)
    5342:	88 45 fc             	mov    %al,-0x4(%rbp)
    5345:	80 7d fc 00          	cmpb   $0x0,-0x4(%rbp)
    5349:	78 1b                	js     5366 <safe_rshift_func_int8_t_s_s+0x31>
    534b:	83 7d f8 00          	cmpl   $0x0,-0x8(%rbp)
    534f:	78 15                	js     5366 <safe_rshift_func_int8_t_s_s+0x31>
    5351:	83 7d f8 1f          	cmpl   $0x1f,-0x8(%rbp)
    5355:	7f 0f                	jg     5366 <safe_rshift_func_int8_t_s_s+0x31>
    5357:	0f be 55 fc          	movsbl -0x4(%rbp),%edx
    535b:	8b 45 f8             	mov    -0x8(%rbp),%eax
    535e:	89 c1                	mov    %eax,%ecx
    5360:	d3 fa                	sar    %cl,%edx
    5362:	89 d0                	mov    %edx,%eax
    5364:	eb 04                	jmp    536a <safe_rshift_func_int8_t_s_s+0x35>
    5366:	0f b6 45 fc          	movzbl -0x4(%rbp),%eax
    536a:	5d                   	pop    %rbp
    536b:	c3                   	retq   

000000000000536c <safe_rshift_func_int8_t_s_u>:
    536c:	f3 0f 1e fa          	endbr64 
    5370:	55                   	push   %rbp
    5371:	48 89 e5             	mov    %rsp,%rbp
    5374:	89 f8                	mov    %edi,%eax
    5376:	89 75 f8             	mov    %esi,-0x8(%rbp)
    5379:	88 45 fc             	mov    %al,-0x4(%rbp)
    537c:	80 7d fc 00          	cmpb   $0x0,-0x4(%rbp)
    5380:	78 15                	js     5397 <safe_rshift_func_int8_t_s_u+0x2b>
    5382:	83 7d f8 1f          	cmpl   $0x1f,-0x8(%rbp)
    5386:	77 0f                	ja     5397 <safe_rshift_func_int8_t_s_u+0x2b>
    5388:	0f be 55 fc          	movsbl -0x4(%rbp),%edx
    538c:	8b 45 f8             	mov    -0x8(%rbp),%eax
    538f:	89 c1                	mov    %eax,%ecx
    5391:	d3 fa                	sar    %cl,%edx
    5393:	89 d0                	mov    %edx,%eax
    5395:	eb 04                	jmp    539b <safe_rshift_func_int8_t_s_u+0x2f>
    5397:	0f b6 45 fc          	movzbl -0x4(%rbp),%eax
    539b:	5d                   	pop    %rbp
    539c:	c3                   	retq   

000000000000539d <safe_unary_minus_func_int16_t_s>:
    539d:	f3 0f 1e fa          	endbr64 
    53a1:	55                   	push   %rbp
    53a2:	48 89 e5             	mov    %rsp,%rbp
    53a5:	89 f8                	mov    %edi,%eax
    53a7:	66 89 45 fc          	mov    %ax,-0x4(%rbp)
    53ab:	0f b7 45 fc          	movzwl -0x4(%rbp),%eax
    53af:	f7 d8                	neg    %eax
    53b1:	5d                   	pop    %rbp
    53b2:	c3                   	retq   

00000000000053b3 <safe_add_func_int16_t_s_s>:
    53b3:	f3 0f 1e fa          	endbr64 
    53b7:	55                   	push   %rbp
    53b8:	48 89 e5             	mov    %rsp,%rbp
    53bb:	89 fa                	mov    %edi,%edx
    53bd:	89 f0                	mov    %esi,%eax
    53bf:	66 89 55 fc          	mov    %dx,-0x4(%rbp)
    53c3:	66 89 45 f8          	mov    %ax,-0x8(%rbp)
    53c7:	0f b7 55 fc          	movzwl -0x4(%rbp),%edx
    53cb:	0f b7 45 f8          	movzwl -0x8(%rbp),%eax
    53cf:	01 d0                	add    %edx,%eax
    53d1:	5d                   	pop    %rbp
    53d2:	c3                   	retq   

00000000000053d3 <safe_sub_func_int16_t_s_s>:
    53d3:	f3 0f 1e fa          	endbr64 
    53d7:	55                   	push   %rbp
    53d8:	48 89 e5             	mov    %rsp,%rbp
    53db:	89 fa                	mov    %edi,%edx
    53dd:	89 f0                	mov    %esi,%eax
    53df:	66 89 55 fc          	mov    %dx,-0x4(%rbp)
    53e3:	66 89 45 f8          	mov    %ax,-0x8(%rbp)
    53e7:	0f b7 55 fc          	movzwl -0x4(%rbp),%edx
    53eb:	0f b7 45 f8          	movzwl -0x8(%rbp),%eax
    53ef:	29 c2                	sub    %eax,%edx
    53f1:	89 d0                	mov    %edx,%eax
    53f3:	5d                   	pop    %rbp
    53f4:	c3                   	retq   

00000000000053f5 <safe_mul_func_int16_t_s_s>:
    53f5:	f3 0f 1e fa          	endbr64 
    53f9:	55                   	push   %rbp
    53fa:	48 89 e5             	mov    %rsp,%rbp
    53fd:	89 fa                	mov    %edi,%edx
    53ff:	89 f0                	mov    %esi,%eax
    5401:	66 89 55 fc          	mov    %dx,-0x4(%rbp)
    5405:	66 89 45 f8          	mov    %ax,-0x8(%rbp)
    5409:	0f b7 55 fc          	movzwl -0x4(%rbp),%edx
    540d:	0f b7 45 f8          	movzwl -0x8(%rbp),%eax
    5411:	0f af c2             	imul   %edx,%eax
    5414:	5d                   	pop    %rbp
    5415:	c3                   	retq   

0000000000005416 <safe_mod_func_int16_t_s_s>:
    5416:	f3 0f 1e fa          	endbr64 
    541a:	55                   	push   %rbp
    541b:	48 89 e5             	mov    %rsp,%rbp
    541e:	89 fa                	mov    %edi,%edx
    5420:	89 f0                	mov    %esi,%eax
    5422:	66 89 55 fc          	mov    %dx,-0x4(%rbp)
    5426:	66 89 45 f8          	mov    %ax,-0x8(%rbp)
    542a:	66 83 7d f8 00       	cmpw   $0x0,-0x8(%rbp)
    542f:	74 1e                	je     544f <safe_mod_func_int16_t_s_s+0x39>
    5431:	66 81 7d fc 00 80    	cmpw   $0x8000,-0x4(%rbp)
    5437:	75 07                	jne    5440 <safe_mod_func_int16_t_s_s+0x2a>
    5439:	66 83 7d f8 ff       	cmpw   $0xffff,-0x8(%rbp)
    543e:	74 0f                	je     544f <safe_mod_func_int16_t_s_s+0x39>
    5440:	0f bf 45 fc          	movswl -0x4(%rbp),%eax
    5444:	0f bf 4d f8          	movswl -0x8(%rbp),%ecx
    5448:	99                   	cltd   
    5449:	f7 f9                	idiv   %ecx
    544b:	89 d0                	mov    %edx,%eax
    544d:	eb 04                	jmp    5453 <safe_mod_func_int16_t_s_s+0x3d>
    544f:	0f b7 45 fc          	movzwl -0x4(%rbp),%eax
    5453:	5d                   	pop    %rbp
    5454:	c3                   	retq   

0000000000005455 <safe_div_func_int16_t_s_s>:
    5455:	f3 0f 1e fa          	endbr64 
    5459:	55                   	push   %rbp
    545a:	48 89 e5             	mov    %rsp,%rbp
    545d:	89 fa                	mov    %edi,%edx
    545f:	89 f0                	mov    %esi,%eax
    5461:	66 89 55 fc          	mov    %dx,-0x4(%rbp)
    5465:	66 89 45 f8          	mov    %ax,-0x8(%rbp)
    5469:	66 83 7d f8 00       	cmpw   $0x0,-0x8(%rbp)
    546e:	74 1c                	je     548c <safe_div_func_int16_t_s_s+0x37>
    5470:	66 81 7d fc 00 80    	cmpw   $0x8000,-0x4(%rbp)
    5476:	75 07                	jne    547f <safe_div_func_int16_t_s_s+0x2a>
    5478:	66 83 7d f8 ff       	cmpw   $0xffff,-0x8(%rbp)
    547d:	74 0d                	je     548c <safe_div_func_int16_t_s_s+0x37>
    547f:	0f bf 45 fc          	movswl -0x4(%rbp),%eax
    5483:	0f bf 4d f8          	movswl -0x8(%rbp),%ecx
    5487:	99                   	cltd   
    5488:	f7 f9                	idiv   %ecx
    548a:	eb 04                	jmp    5490 <safe_div_func_int16_t_s_s+0x3b>
    548c:	0f b7 45 fc          	movzwl -0x4(%rbp),%eax
    5490:	5d                   	pop    %rbp
    5491:	c3                   	retq   

0000000000005492 <safe_lshift_func_int16_t_s_s>:
    5492:	f3 0f 1e fa          	endbr64 
    5496:	55                   	push   %rbp
    5497:	48 89 e5             	mov    %rsp,%rbp
    549a:	89 f8                	mov    %edi,%eax
    549c:	89 75 f8             	mov    %esi,-0x8(%rbp)
    549f:	66 89 45 fc          	mov    %ax,-0x4(%rbp)
    54a3:	66 83 7d fc 00       	cmpw   $0x0,-0x4(%rbp)
    54a8:	78 31                	js     54db <safe_lshift_func_int16_t_s_s+0x49>
    54aa:	83 7d f8 00          	cmpl   $0x0,-0x8(%rbp)
    54ae:	78 2b                	js     54db <safe_lshift_func_int16_t_s_s+0x49>
    54b0:	83 7d f8 1f          	cmpl   $0x1f,-0x8(%rbp)
    54b4:	7f 25                	jg     54db <safe_lshift_func_int16_t_s_s+0x49>
    54b6:	0f bf 55 fc          	movswl -0x4(%rbp),%edx
    54ba:	8b 45 f8             	mov    -0x8(%rbp),%eax
    54bd:	be ff 7f 00 00       	mov    $0x7fff,%esi
    54c2:	89 c1                	mov    %eax,%ecx
    54c4:	d3 fe                	sar    %cl,%esi
    54c6:	89 f0                	mov    %esi,%eax
    54c8:	39 c2                	cmp    %eax,%edx
    54ca:	7f 0f                	jg     54db <safe_lshift_func_int16_t_s_s+0x49>
    54cc:	0f bf 55 fc          	movswl -0x4(%rbp),%edx
    54d0:	8b 45 f8             	mov    -0x8(%rbp),%eax
    54d3:	89 c1                	mov    %eax,%ecx
    54d5:	d3 e2                	shl    %cl,%edx
    54d7:	89 d0                	mov    %edx,%eax
    54d9:	eb 04                	jmp    54df <safe_lshift_func_int16_t_s_s+0x4d>
    54db:	0f b7 45 fc          	movzwl -0x4(%rbp),%eax
    54df:	5d                   	pop    %rbp
    54e0:	c3                   	retq   

00000000000054e1 <safe_lshift_func_int16_t_s_u>:
    54e1:	f3 0f 1e fa          	endbr64 
    54e5:	55                   	push   %rbp
    54e6:	48 89 e5             	mov    %rsp,%rbp
    54e9:	89 f8                	mov    %edi,%eax
    54eb:	89 75 f8             	mov    %esi,-0x8(%rbp)
    54ee:	66 89 45 fc          	mov    %ax,-0x4(%rbp)
    54f2:	66 83 7d fc 00       	cmpw   $0x0,-0x4(%rbp)
    54f7:	78 2b                	js     5524 <safe_lshift_func_int16_t_s_u+0x43>
    54f9:	83 7d f8 1f          	cmpl   $0x1f,-0x8(%rbp)
    54fd:	77 25                	ja     5524 <safe_lshift_func_int16_t_s_u+0x43>
    54ff:	0f bf 55 fc          	movswl -0x4(%rbp),%edx
    5503:	8b 45 f8             	mov    -0x8(%rbp),%eax
    5506:	be ff 7f 00 00       	mov    $0x7fff,%esi
    550b:	89 c1                	mov    %eax,%ecx
    550d:	d3 fe                	sar    %cl,%esi
    550f:	89 f0                	mov    %esi,%eax
    5511:	39 c2                	cmp    %eax,%edx
    5513:	7f 0f                	jg     5524 <safe_lshift_func_int16_t_s_u+0x43>
    5515:	0f bf 55 fc          	movswl -0x4(%rbp),%edx
    5519:	8b 45 f8             	mov    -0x8(%rbp),%eax
    551c:	89 c1                	mov    %eax,%ecx
    551e:	d3 e2                	shl    %cl,%edx
    5520:	89 d0                	mov    %edx,%eax
    5522:	eb 04                	jmp    5528 <safe_lshift_func_int16_t_s_u+0x47>
    5524:	0f b7 45 fc          	movzwl -0x4(%rbp),%eax
    5528:	5d                   	pop    %rbp
    5529:	c3                   	retq   

000000000000552a <safe_rshift_func_int16_t_s_s>:
    552a:	f3 0f 1e fa          	endbr64 
    552e:	55                   	push   %rbp
    552f:	48 89 e5             	mov    %rsp,%rbp
    5532:	89 f8                	mov    %edi,%eax
    5534:	89 75 f8             	mov    %esi,-0x8(%rbp)
    5537:	66 89 45 fc          	mov    %ax,-0x4(%rbp)
    553b:	66 83 7d fc 00       	cmpw   $0x0,-0x4(%rbp)
    5540:	78 1b                	js     555d <safe_rshift_func_int16_t_s_s+0x33>
    5542:	83 7d f8 00          	cmpl   $0x0,-0x8(%rbp)
    5546:	78 15                	js     555d <safe_rshift_func_int16_t_s_s+0x33>
    5548:	83 7d f8 1f          	cmpl   $0x1f,-0x8(%rbp)
    554c:	7f 0f                	jg     555d <safe_rshift_func_int16_t_s_s+0x33>
    554e:	0f bf 55 fc          	movswl -0x4(%rbp),%edx
    5552:	8b 45 f8             	mov    -0x8(%rbp),%eax
    5555:	89 c1                	mov    %eax,%ecx
    5557:	d3 fa                	sar    %cl,%edx
    5559:	89 d0                	mov    %edx,%eax
    555b:	eb 04                	jmp    5561 <safe_rshift_func_int16_t_s_s+0x37>
    555d:	0f b7 45 fc          	movzwl -0x4(%rbp),%eax
    5561:	5d                   	pop    %rbp
    5562:	c3                   	retq   

0000000000005563 <safe_rshift_func_int16_t_s_u>:
    5563:	f3 0f 1e fa          	endbr64 
    5567:	55                   	push   %rbp
    5568:	48 89 e5             	mov    %rsp,%rbp
    556b:	89 f8                	mov    %edi,%eax
    556d:	89 75 f8             	mov    %esi,-0x8(%rbp)
    5570:	66 89 45 fc          	mov    %ax,-0x4(%rbp)
    5574:	66 83 7d fc 00       	cmpw   $0x0,-0x4(%rbp)
    5579:	78 15                	js     5590 <safe_rshift_func_int16_t_s_u+0x2d>
    557b:	83 7d f8 1f          	cmpl   $0x1f,-0x8(%rbp)
    557f:	77 0f                	ja     5590 <safe_rshift_func_int16_t_s_u+0x2d>
    5581:	0f bf 55 fc          	movswl -0x4(%rbp),%edx
    5585:	8b 45 f8             	mov    -0x8(%rbp),%eax
    5588:	89 c1                	mov    %eax,%ecx
    558a:	d3 fa                	sar    %cl,%edx
    558c:	89 d0                	mov    %edx,%eax
    558e:	eb 04                	jmp    5594 <safe_rshift_func_int16_t_s_u+0x31>
    5590:	0f b7 45 fc          	movzwl -0x4(%rbp),%eax
    5594:	5d                   	pop    %rbp
    5595:	c3                   	retq   

0000000000005596 <safe_unary_minus_func_int32_t_s>:
    5596:	f3 0f 1e fa          	endbr64 
    559a:	55                   	push   %rbp
    559b:	48 89 e5             	mov    %rsp,%rbp
    559e:	89 7d fc             	mov    %edi,-0x4(%rbp)
    55a1:	81 7d fc 00 00 00 80 	cmpl   $0x80000000,-0x4(%rbp)
    55a8:	74 07                	je     55b1 <safe_unary_minus_func_int32_t_s+0x1b>
    55aa:	8b 45 fc             	mov    -0x4(%rbp),%eax
    55ad:	f7 d8                	neg    %eax
    55af:	eb 03                	jmp    55b4 <safe_unary_minus_func_int32_t_s+0x1e>
    55b1:	8b 45 fc             	mov    -0x4(%rbp),%eax
    55b4:	5d                   	pop    %rbp
    55b5:	c3                   	retq   

00000000000055b6 <safe_add_func_int32_t_s_s>:
    55b6:	f3 0f 1e fa          	endbr64 
    55ba:	55                   	push   %rbp
    55bb:	48 89 e5             	mov    %rsp,%rbp
    55be:	89 7d fc             	mov    %edi,-0x4(%rbp)
    55c1:	89 75 f8             	mov    %esi,-0x8(%rbp)
    55c4:	83 7d fc 00          	cmpl   $0x0,-0x4(%rbp)
    55c8:	7e 13                	jle    55dd <safe_add_func_int32_t_s_s+0x27>
    55ca:	83 7d f8 00          	cmpl   $0x0,-0x8(%rbp)
    55ce:	7e 0d                	jle    55dd <safe_add_func_int32_t_s_s+0x27>
    55d0:	b8 ff ff ff 7f       	mov    $0x7fffffff,%eax
    55d5:	2b 45 f8             	sub    -0x8(%rbp),%eax
    55d8:	39 45 fc             	cmp    %eax,-0x4(%rbp)
    55db:	7f 23                	jg     5600 <safe_add_func_int32_t_s_s+0x4a>
    55dd:	83 7d fc 00          	cmpl   $0x0,-0x4(%rbp)
    55e1:	79 13                	jns    55f6 <safe_add_func_int32_t_s_s+0x40>
    55e3:	83 7d f8 00          	cmpl   $0x0,-0x8(%rbp)
    55e7:	79 0d                	jns    55f6 <safe_add_func_int32_t_s_s+0x40>
    55e9:	b8 00 00 00 80       	mov    $0x80000000,%eax
    55ee:	2b 45 f8             	sub    -0x8(%rbp),%eax
    55f1:	39 45 fc             	cmp    %eax,-0x4(%rbp)
    55f4:	7c 0a                	jl     5600 <safe_add_func_int32_t_s_s+0x4a>
    55f6:	8b 55 fc             	mov    -0x4(%rbp),%edx
    55f9:	8b 45 f8             	mov    -0x8(%rbp),%eax
    55fc:	01 d0                	add    %edx,%eax
    55fe:	eb 03                	jmp    5603 <safe_add_func_int32_t_s_s+0x4d>
    5600:	8b 45 fc             	mov    -0x4(%rbp),%eax
    5603:	5d                   	pop    %rbp
    5604:	c3                   	retq   

0000000000005605 <safe_sub_func_int32_t_s_s>:
    5605:	f3 0f 1e fa          	endbr64 
    5609:	55                   	push   %rbp
    560a:	48 89 e5             	mov    %rsp,%rbp
    560d:	89 7d fc             	mov    %edi,-0x4(%rbp)
    5610:	89 75 f8             	mov    %esi,-0x8(%rbp)
    5613:	8b 45 fc             	mov    -0x4(%rbp),%eax
    5616:	33 45 f8             	xor    -0x8(%rbp),%eax
    5619:	89 c2                	mov    %eax,%edx
    561b:	8b 45 fc             	mov    -0x4(%rbp),%eax
    561e:	33 45 f8             	xor    -0x8(%rbp),%eax
    5621:	25 00 00 00 80       	and    $0x80000000,%eax
    5626:	33 45 fc             	xor    -0x4(%rbp),%eax
    5629:	2b 45 f8             	sub    -0x8(%rbp),%eax
    562c:	33 45 f8             	xor    -0x8(%rbp),%eax
    562f:	21 d0                	and    %edx,%eax
    5631:	85 c0                	test   %eax,%eax
    5633:	78 08                	js     563d <safe_sub_func_int32_t_s_s+0x38>
    5635:	8b 45 fc             	mov    -0x4(%rbp),%eax
    5638:	2b 45 f8             	sub    -0x8(%rbp),%eax
    563b:	eb 03                	jmp    5640 <safe_sub_func_int32_t_s_s+0x3b>
    563d:	8b 45 fc             	mov    -0x4(%rbp),%eax
    5640:	5d                   	pop    %rbp
    5641:	c3                   	retq   

0000000000005642 <safe_mul_func_int32_t_s_s>:
    5642:	f3 0f 1e fa          	endbr64 
    5646:	55                   	push   %rbp
    5647:	48 89 e5             	mov    %rsp,%rbp
    564a:	89 7d fc             	mov    %edi,-0x4(%rbp)
    564d:	89 75 f8             	mov    %esi,-0x8(%rbp)
    5650:	83 7d fc 00          	cmpl   $0x0,-0x4(%rbp)
    5654:	7e 14                	jle    566a <safe_mul_func_int32_t_s_s+0x28>
    5656:	83 7d f8 00          	cmpl   $0x0,-0x8(%rbp)
    565a:	7e 0e                	jle    566a <safe_mul_func_int32_t_s_s+0x28>
    565c:	b8 ff ff ff 7f       	mov    $0x7fffffff,%eax
    5661:	99                   	cltd   
    5662:	f7 7d f8             	idivl  -0x8(%rbp)
    5665:	39 45 fc             	cmp    %eax,-0x4(%rbp)
    5668:	7f 5d                	jg     56c7 <safe_mul_func_int32_t_s_s+0x85>
    566a:	83 7d fc 00          	cmpl   $0x0,-0x4(%rbp)
    566e:	7e 14                	jle    5684 <safe_mul_func_int32_t_s_s+0x42>
    5670:	83 7d f8 00          	cmpl   $0x0,-0x8(%rbp)
    5674:	7f 0e                	jg     5684 <safe_mul_func_int32_t_s_s+0x42>
    5676:	b8 00 00 00 80       	mov    $0x80000000,%eax
    567b:	99                   	cltd   
    567c:	f7 7d fc             	idivl  -0x4(%rbp)
    567f:	39 45 f8             	cmp    %eax,-0x8(%rbp)
    5682:	7c 43                	jl     56c7 <safe_mul_func_int32_t_s_s+0x85>
    5684:	83 7d fc 00          	cmpl   $0x0,-0x4(%rbp)
    5688:	7f 14                	jg     569e <safe_mul_func_int32_t_s_s+0x5c>
    568a:	83 7d f8 00          	cmpl   $0x0,-0x8(%rbp)
    568e:	7e 0e                	jle    569e <safe_mul_func_int32_t_s_s+0x5c>
    5690:	b8 00 00 00 80       	mov    $0x80000000,%eax
    5695:	99                   	cltd   
    5696:	f7 7d f8             	idivl  -0x8(%rbp)
    5699:	39 45 fc             	cmp    %eax,-0x4(%rbp)
    569c:	7c 29                	jl     56c7 <safe_mul_func_int32_t_s_s+0x85>
    569e:	83 7d fc 00          	cmpl   $0x0,-0x4(%rbp)
    56a2:	7f 1a                	jg     56be <safe_mul_func_int32_t_s_s+0x7c>
    56a4:	83 7d f8 00          	cmpl   $0x0,-0x8(%rbp)
    56a8:	7f 14                	jg     56be <safe_mul_func_int32_t_s_s+0x7c>
    56aa:	83 7d fc 00          	cmpl   $0x0,-0x4(%rbp)
    56ae:	74 0e                	je     56be <safe_mul_func_int32_t_s_s+0x7c>
    56b0:	b8 ff ff ff 7f       	mov    $0x7fffffff,%eax
    56b5:	99                   	cltd   
    56b6:	f7 7d fc             	idivl  -0x4(%rbp)
    56b9:	39 45 f8             	cmp    %eax,-0x8(%rbp)
    56bc:	7c 09                	jl     56c7 <safe_mul_func_int32_t_s_s+0x85>
    56be:	8b 45 fc             	mov    -0x4(%rbp),%eax
    56c1:	0f af 45 f8          	imul   -0x8(%rbp),%eax
    56c5:	eb 03                	jmp    56ca <safe_mul_func_int32_t_s_s+0x88>
    56c7:	8b 45 fc             	mov    -0x4(%rbp),%eax
    56ca:	5d                   	pop    %rbp
    56cb:	c3                   	retq   

00000000000056cc <safe_mod_func_int32_t_s_s>:
    56cc:	f3 0f 1e fa          	endbr64 
    56d0:	55                   	push   %rbp
    56d1:	48 89 e5             	mov    %rsp,%rbp
    56d4:	89 7d fc             	mov    %edi,-0x4(%rbp)
    56d7:	89 75 f8             	mov    %esi,-0x8(%rbp)
    56da:	83 7d f8 00          	cmpl   $0x0,-0x8(%rbp)
    56de:	74 1a                	je     56fa <safe_mod_func_int32_t_s_s+0x2e>
    56e0:	81 7d fc 00 00 00 80 	cmpl   $0x80000000,-0x4(%rbp)
    56e7:	75 06                	jne    56ef <safe_mod_func_int32_t_s_s+0x23>
    56e9:	83 7d f8 ff          	cmpl   $0xffffffff,-0x8(%rbp)
    56ed:	74 0b                	je     56fa <safe_mod_func_int32_t_s_s+0x2e>
    56ef:	8b 45 fc             	mov    -0x4(%rbp),%eax
    56f2:	99                   	cltd   
    56f3:	f7 7d f8             	idivl  -0x8(%rbp)
    56f6:	89 d0                	mov    %edx,%eax
    56f8:	eb 03                	jmp    56fd <safe_mod_func_int32_t_s_s+0x31>
    56fa:	8b 45 fc             	mov    -0x4(%rbp),%eax
    56fd:	5d                   	pop    %rbp
    56fe:	c3                   	retq   

00000000000056ff <safe_div_func_int32_t_s_s>:
    56ff:	f3 0f 1e fa          	endbr64 
    5703:	55                   	push   %rbp
    5704:	48 89 e5             	mov    %rsp,%rbp
    5707:	89 7d fc             	mov    %edi,-0x4(%rbp)
    570a:	89 75 f8             	mov    %esi,-0x8(%rbp)
    570d:	83 7d f8 00          	cmpl   $0x0,-0x8(%rbp)
    5711:	74 18                	je     572b <safe_div_func_int32_t_s_s+0x2c>
    5713:	81 7d fc 00 00 00 80 	cmpl   $0x80000000,-0x4(%rbp)
    571a:	75 06                	jne    5722 <safe_div_func_int32_t_s_s+0x23>
    571c:	83 7d f8 ff          	cmpl   $0xffffffff,-0x8(%rbp)
    5720:	74 09                	je     572b <safe_div_func_int32_t_s_s+0x2c>
    5722:	8b 45 fc             	mov    -0x4(%rbp),%eax
    5725:	99                   	cltd   
    5726:	f7 7d f8             	idivl  -0x8(%rbp)
    5729:	eb 03                	jmp    572e <safe_div_func_int32_t_s_s+0x2f>
    572b:	8b 45 fc             	mov    -0x4(%rbp),%eax
    572e:	5d                   	pop    %rbp
    572f:	c3                   	retq   

0000000000005730 <safe_lshift_func_int32_t_s_s>:
    5730:	f3 0f 1e fa          	endbr64 
    5734:	55                   	push   %rbp
    5735:	48 89 e5             	mov    %rsp,%rbp
    5738:	89 7d fc             	mov    %edi,-0x4(%rbp)
    573b:	89 75 f8             	mov    %esi,-0x8(%rbp)
    573e:	83 7d fc 00          	cmpl   $0x0,-0x4(%rbp)
    5742:	78 2d                	js     5771 <safe_lshift_func_int32_t_s_s+0x41>
    5744:	83 7d f8 00          	cmpl   $0x0,-0x8(%rbp)
    5748:	78 27                	js     5771 <safe_lshift_func_int32_t_s_s+0x41>
    574a:	83 7d f8 1f          	cmpl   $0x1f,-0x8(%rbp)
    574e:	7f 21                	jg     5771 <safe_lshift_func_int32_t_s_s+0x41>
    5750:	8b 45 f8             	mov    -0x8(%rbp),%eax
    5753:	ba ff ff ff 7f       	mov    $0x7fffffff,%edx
    5758:	89 c1                	mov    %eax,%ecx
    575a:	d3 fa                	sar    %cl,%edx
    575c:	89 d0                	mov    %edx,%eax
    575e:	39 45 fc             	cmp    %eax,-0x4(%rbp)
    5761:	7f 0e                	jg     5771 <safe_lshift_func_int32_t_s_s+0x41>
    5763:	8b 45 f8             	mov    -0x8(%rbp),%eax
    5766:	8b 55 fc             	mov    -0x4(%rbp),%edx
    5769:	89 c1                	mov    %eax,%ecx
    576b:	d3 e2                	shl    %cl,%edx
    576d:	89 d0                	mov    %edx,%eax
    576f:	eb 03                	jmp    5774 <safe_lshift_func_int32_t_s_s+0x44>
    5771:	8b 45 fc             	mov    -0x4(%rbp),%eax
    5774:	5d                   	pop    %rbp
    5775:	c3                   	retq   

0000000000005776 <safe_lshift_func_int32_t_s_u>:
    5776:	f3 0f 1e fa          	endbr64 
    577a:	55                   	push   %rbp
    577b:	48 89 e5             	mov    %rsp,%rbp
    577e:	89 7d fc             	mov    %edi,-0x4(%rbp)
    5781:	89 75 f8             	mov    %esi,-0x8(%rbp)
    5784:	83 7d fc 00          	cmpl   $0x0,-0x4(%rbp)
    5788:	78 27                	js     57b1 <safe_lshift_func_int32_t_s_u+0x3b>
    578a:	83 7d f8 1f          	cmpl   $0x1f,-0x8(%rbp)
    578e:	77 21                	ja     57b1 <safe_lshift_func_int32_t_s_u+0x3b>
    5790:	8b 45 f8             	mov    -0x8(%rbp),%eax
    5793:	ba ff ff ff 7f       	mov    $0x7fffffff,%edx
    5798:	89 c1                	mov    %eax,%ecx
    579a:	d3 fa                	sar    %cl,%edx
    579c:	89 d0                	mov    %edx,%eax
    579e:	39 45 fc             	cmp    %eax,-0x4(%rbp)
    57a1:	7f 0e                	jg     57b1 <safe_lshift_func_int32_t_s_u+0x3b>
    57a3:	8b 45 f8             	mov    -0x8(%rbp),%eax
    57a6:	8b 55 fc             	mov    -0x4(%rbp),%edx
    57a9:	89 c1                	mov    %eax,%ecx
    57ab:	d3 e2                	shl    %cl,%edx
    57ad:	89 d0                	mov    %edx,%eax
    57af:	eb 03                	jmp    57b4 <safe_lshift_func_int32_t_s_u+0x3e>
    57b1:	8b 45 fc             	mov    -0x4(%rbp),%eax
    57b4:	5d                   	pop    %rbp
    57b5:	c3                   	retq   

00000000000057b6 <safe_rshift_func_int32_t_s_s>:
    57b6:	f3 0f 1e fa          	endbr64 
    57ba:	55                   	push   %rbp
    57bb:	48 89 e5             	mov    %rsp,%rbp
    57be:	89 7d fc             	mov    %edi,-0x4(%rbp)
    57c1:	89 75 f8             	mov    %esi,-0x8(%rbp)
    57c4:	83 7d fc 00          	cmpl   $0x0,-0x4(%rbp)
    57c8:	78 1a                	js     57e4 <safe_rshift_func_int32_t_s_s+0x2e>
    57ca:	83 7d f8 00          	cmpl   $0x0,-0x8(%rbp)
    57ce:	78 14                	js     57e4 <safe_rshift_func_int32_t_s_s+0x2e>
    57d0:	83 7d f8 1f          	cmpl   $0x1f,-0x8(%rbp)
    57d4:	7f 0e                	jg     57e4 <safe_rshift_func_int32_t_s_s+0x2e>
    57d6:	8b 45 f8             	mov    -0x8(%rbp),%eax
    57d9:	8b 55 fc             	mov    -0x4(%rbp),%edx
    57dc:	89 c1                	mov    %eax,%ecx
    57de:	d3 fa                	sar    %cl,%edx
    57e0:	89 d0                	mov    %edx,%eax
    57e2:	eb 03                	jmp    57e7 <safe_rshift_func_int32_t_s_s+0x31>
    57e4:	8b 45 fc             	mov    -0x4(%rbp),%eax
    57e7:	5d                   	pop    %rbp
    57e8:	c3                   	retq   

00000000000057e9 <safe_rshift_func_int32_t_s_u>:
    57e9:	f3 0f 1e fa          	endbr64 
    57ed:	55                   	push   %rbp
    57ee:	48 89 e5             	mov    %rsp,%rbp
    57f1:	89 7d fc             	mov    %edi,-0x4(%rbp)
    57f4:	89 75 f8             	mov    %esi,-0x8(%rbp)
    57f7:	83 7d fc 00          	cmpl   $0x0,-0x4(%rbp)
    57fb:	78 14                	js     5811 <safe_rshift_func_int32_t_s_u+0x28>
    57fd:	83 7d f8 1f          	cmpl   $0x1f,-0x8(%rbp)
    5801:	77 0e                	ja     5811 <safe_rshift_func_int32_t_s_u+0x28>
    5803:	8b 45 f8             	mov    -0x8(%rbp),%eax
    5806:	8b 55 fc             	mov    -0x4(%rbp),%edx
    5809:	89 c1                	mov    %eax,%ecx
    580b:	d3 fa                	sar    %cl,%edx
    580d:	89 d0                	mov    %edx,%eax
    580f:	eb 03                	jmp    5814 <safe_rshift_func_int32_t_s_u+0x2b>
    5811:	8b 45 fc             	mov    -0x4(%rbp),%eax
    5814:	5d                   	pop    %rbp
    5815:	c3                   	retq   

0000000000005816 <safe_unary_minus_func_int64_t_s>:
    5816:	f3 0f 1e fa          	endbr64 
    581a:	55                   	push   %rbp
    581b:	48 89 e5             	mov    %rsp,%rbp
    581e:	48 89 7d f8          	mov    %rdi,-0x8(%rbp)
    5822:	48 b8 00 00 00 00 00 	movabs $0x8000000000000000,%rax
    5829:	00 00 80 
    582c:	48 39 45 f8          	cmp    %rax,-0x8(%rbp)
    5830:	74 09                	je     583b <safe_unary_minus_func_int64_t_s+0x25>
    5832:	48 8b 45 f8          	mov    -0x8(%rbp),%rax
    5836:	48 f7 d8             	neg    %rax
    5839:	eb 04                	jmp    583f <safe_unary_minus_func_int64_t_s+0x29>
    583b:	48 8b 45 f8          	mov    -0x8(%rbp),%rax
    583f:	5d                   	pop    %rbp
    5840:	c3                   	retq   

0000000000005841 <safe_add_func_int64_t_s_s>:
    5841:	f3 0f 1e fa          	endbr64 
    5845:	55                   	push   %rbp
    5846:	48 89 e5             	mov    %rsp,%rbp
    5849:	48 89 7d f8          	mov    %rdi,-0x8(%rbp)
    584d:	48 89 75 f0          	mov    %rsi,-0x10(%rbp)
    5851:	48 83 7d f8 00       	cmpq   $0x0,-0x8(%rbp)
    5856:	7e 1b                	jle    5873 <safe_add_func_int64_t_s_s+0x32>
    5858:	48 83 7d f0 00       	cmpq   $0x0,-0x10(%rbp)
    585d:	7e 14                	jle    5873 <safe_add_func_int64_t_s_s+0x32>
    585f:	48 b8 ff ff ff ff ff 	movabs $0x7fffffffffffffff,%rax
    5866:	ff ff 7f 
    5869:	48 2b 45 f0          	sub    -0x10(%rbp),%rax
    586d:	48 39 45 f8          	cmp    %rax,-0x8(%rbp)
    5871:	7f 2f                	jg     58a2 <safe_add_func_int64_t_s_s+0x61>
    5873:	48 83 7d f8 00       	cmpq   $0x0,-0x8(%rbp)
    5878:	79 1b                	jns    5895 <safe_add_func_int64_t_s_s+0x54>
    587a:	48 83 7d f0 00       	cmpq   $0x0,-0x10(%rbp)
    587f:	79 14                	jns    5895 <safe_add_func_int64_t_s_s+0x54>
    5881:	48 b8 00 00 00 00 00 	movabs $0x8000000000000000,%rax
    5888:	00 00 80 
    588b:	48 2b 45 f0          	sub    -0x10(%rbp),%rax
    588f:	48 39 45 f8          	cmp    %rax,-0x8(%rbp)
    5893:	7c 0d                	jl     58a2 <safe_add_func_int64_t_s_s+0x61>
    5895:	48 8b 55 f8          	mov    -0x8(%rbp),%rdx
    5899:	48 8b 45 f0          	mov    -0x10(%rbp),%rax
    589d:	48 01 d0             	add    %rdx,%rax
    58a0:	eb 04                	jmp    58a6 <safe_add_func_int64_t_s_s+0x65>
    58a2:	48 8b 45 f8          	mov    -0x8(%rbp),%rax
    58a6:	5d                   	pop    %rbp
    58a7:	c3                   	retq   

00000000000058a8 <safe_sub_func_int64_t_s_s>:
    58a8:	f3 0f 1e fa          	endbr64 
    58ac:	55                   	push   %rbp
    58ad:	48 89 e5             	mov    %rsp,%rbp
    58b0:	48 89 7d f8          	mov    %rdi,-0x8(%rbp)
    58b4:	48 89 75 f0          	mov    %rsi,-0x10(%rbp)
    58b8:	48 8b 45 f8          	mov    -0x8(%rbp),%rax
    58bc:	48 33 45 f0          	xor    -0x10(%rbp),%rax
    58c0:	48 89 c2             	mov    %rax,%rdx
    58c3:	48 8b 45 f8          	mov    -0x8(%rbp),%rax
    58c7:	48 33 45 f0          	xor    -0x10(%rbp),%rax
    58cb:	48 b9 00 00 00 00 00 	movabs $0x8000000000000000,%rcx
    58d2:	00 00 80 
    58d5:	48 21 c8             	and    %rcx,%rax
    58d8:	48 33 45 f8          	xor    -0x8(%rbp),%rax
    58dc:	48 2b 45 f0          	sub    -0x10(%rbp),%rax
    58e0:	48 33 45 f0          	xor    -0x10(%rbp),%rax
    58e4:	48 21 d0             	and    %rdx,%rax
    58e7:	48 85 c0             	test   %rax,%rax
    58ea:	78 0a                	js     58f6 <safe_sub_func_int64_t_s_s+0x4e>
    58ec:	48 8b 45 f8          	mov    -0x8(%rbp),%rax
    58f0:	48 2b 45 f0          	sub    -0x10(%rbp),%rax
    58f4:	eb 04                	jmp    58fa <safe_sub_func_int64_t_s_s+0x52>
    58f6:	48 8b 45 f8          	mov    -0x8(%rbp),%rax
    58fa:	5d                   	pop    %rbp
    58fb:	c3                   	retq   

00000000000058fc <safe_mul_func_int64_t_s_s>:
    58fc:	f3 0f 1e fa          	endbr64 
    5900:	55                   	push   %rbp
    5901:	48 89 e5             	mov    %rsp,%rbp
    5904:	48 89 7d f8          	mov    %rdi,-0x8(%rbp)
    5908:	48 89 75 f0          	mov    %rsi,-0x10(%rbp)
    590c:	48 83 7d f8 00       	cmpq   $0x0,-0x8(%rbp)
    5911:	7e 1d                	jle    5930 <safe_mul_func_int64_t_s_s+0x34>
    5913:	48 83 7d f0 00       	cmpq   $0x0,-0x10(%rbp)
    5918:	7e 16                	jle    5930 <safe_mul_func_int64_t_s_s+0x34>
    591a:	48 b8 ff ff ff ff ff 	movabs $0x7fffffffffffffff,%rax
    5921:	ff ff 7f 
    5924:	48 99                	cqto   
    5926:	48 f7 7d f0          	idivq  -0x10(%rbp)
    592a:	48 39 45 f8          	cmp    %rax,-0x8(%rbp)
    592e:	7f 7e                	jg     59ae <safe_mul_func_int64_t_s_s+0xb2>
    5930:	48 83 7d f8 00       	cmpq   $0x0,-0x8(%rbp)
    5935:	7e 1d                	jle    5954 <safe_mul_func_int64_t_s_s+0x58>
    5937:	48 83 7d f0 00       	cmpq   $0x0,-0x10(%rbp)
    593c:	7f 16                	jg     5954 <safe_mul_func_int64_t_s_s+0x58>
    593e:	48 b8 00 00 00 00 00 	movabs $0x8000000000000000,%rax
    5945:	00 00 80 
    5948:	48 99                	cqto   
    594a:	48 f7 7d f8          	idivq  -0x8(%rbp)
    594e:	48 39 45 f0          	cmp    %rax,-0x10(%rbp)
    5952:	7c 5a                	jl     59ae <safe_mul_func_int64_t_s_s+0xb2>
    5954:	48 83 7d f8 00       	cmpq   $0x0,-0x8(%rbp)
    5959:	7f 1d                	jg     5978 <safe_mul_func_int64_t_s_s+0x7c>
    595b:	48 83 7d f0 00       	cmpq   $0x0,-0x10(%rbp)
    5960:	7e 16                	jle    5978 <safe_mul_func_int64_t_s_s+0x7c>
    5962:	48 b8 00 00 00 00 00 	movabs $0x8000000000000000,%rax
    5969:	00 00 80 
    596c:	48 99                	cqto   
    596e:	48 f7 7d f0          	idivq  -0x10(%rbp)
    5972:	48 39 45 f8          	cmp    %rax,-0x8(%rbp)
    5976:	7c 36                	jl     59ae <safe_mul_func_int64_t_s_s+0xb2>
    5978:	48 83 7d f8 00       	cmpq   $0x0,-0x8(%rbp)
    597d:	7f 24                	jg     59a3 <safe_mul_func_int64_t_s_s+0xa7>
    597f:	48 83 7d f0 00       	cmpq   $0x0,-0x10(%rbp)
    5984:	7f 1d                	jg     59a3 <safe_mul_func_int64_t_s_s+0xa7>
    5986:	48 83 7d f8 00       	cmpq   $0x0,-0x8(%rbp)
    598b:	74 16                	je     59a3 <safe_mul_func_int64_t_s_s+0xa7>
    598d:	48 b8 ff ff ff ff ff 	movabs $0x7fffffffffffffff,%rax
    5994:	ff ff 7f 
    5997:	48 99                	cqto   
    5999:	48 f7 7d f8          	idivq  -0x8(%rbp)
    599d:	48 39 45 f0          	cmp    %rax,-0x10(%rbp)
    59a1:	7c 0b                	jl     59ae <safe_mul_func_int64_t_s_s+0xb2>
    59a3:	48 8b 45 f8          	mov    -0x8(%rbp),%rax
    59a7:	48 0f af 45 f0       	imul   -0x10(%rbp),%rax
    59ac:	eb 04                	jmp    59b2 <safe_mul_func_int64_t_s_s+0xb6>
    59ae:	48 8b 45 f8          	mov    -0x8(%rbp),%rax
    59b2:	5d                   	pop    %rbp
    59b3:	c3                   	retq   

00000000000059b4 <safe_mod_func_int64_t_s_s>:
    59b4:	f3 0f 1e fa          	endbr64 
    59b8:	55                   	push   %rbp
    59b9:	48 89 e5             	mov    %rsp,%rbp
    59bc:	48 89 7d f8          	mov    %rdi,-0x8(%rbp)
    59c0:	48 89 75 f0          	mov    %rsi,-0x10(%rbp)
    59c4:	48 83 7d f0 00       	cmpq   $0x0,-0x10(%rbp)
    59c9:	74 26                	je     59f1 <safe_mod_func_int64_t_s_s+0x3d>
    59cb:	48 b8 00 00 00 00 00 	movabs $0x8000000000000000,%rax
    59d2:	00 00 80 
    59d5:	48 39 45 f8          	cmp    %rax,-0x8(%rbp)
    59d9:	75 07                	jne    59e2 <safe_mod_func_int64_t_s_s+0x2e>
    59db:	48 83 7d f0 ff       	cmpq   $0xffffffffffffffff,-0x10(%rbp)
    59e0:	74 0f                	je     59f1 <safe_mod_func_int64_t_s_s+0x3d>
    59e2:	48 8b 45 f8          	mov    -0x8(%rbp),%rax
    59e6:	48 99                	cqto   
    59e8:	48 f7 7d f0          	idivq  -0x10(%rbp)
    59ec:	48 89 d0             	mov    %rdx,%rax
    59ef:	eb 04                	jmp    59f5 <safe_mod_func_int64_t_s_s+0x41>
    59f1:	48 8b 45 f8          	mov    -0x8(%rbp),%rax
    59f5:	5d                   	pop    %rbp
    59f6:	c3                   	retq   

00000000000059f7 <safe_div_func_int64_t_s_s>:
    59f7:	f3 0f 1e fa          	endbr64 
    59fb:	55                   	push   %rbp
    59fc:	48 89 e5             	mov    %rsp,%rbp
    59ff:	48 89 7d f8          	mov    %rdi,-0x8(%rbp)
    5a03:	48 89 75 f0          	mov    %rsi,-0x10(%rbp)
    5a07:	48 83 7d f0 00       	cmpq   $0x0,-0x10(%rbp)
    5a0c:	74 23                	je     5a31 <safe_div_func_int64_t_s_s+0x3a>
    5a0e:	48 b8 00 00 00 00 00 	movabs $0x8000000000000000,%rax
    5a15:	00 00 80 
    5a18:	48 39 45 f8          	cmp    %rax,-0x8(%rbp)
    5a1c:	75 07                	jne    5a25 <safe_div_func_int64_t_s_s+0x2e>
    5a1e:	48 83 7d f0 ff       	cmpq   $0xffffffffffffffff,-0x10(%rbp)
    5a23:	74 0c                	je     5a31 <safe_div_func_int64_t_s_s+0x3a>
    5a25:	48 8b 45 f8          	mov    -0x8(%rbp),%rax
    5a29:	48 99                	cqto   
    5a2b:	48 f7 7d f0          	idivq  -0x10(%rbp)
    5a2f:	eb 04                	jmp    5a35 <safe_div_func_int64_t_s_s+0x3e>
    5a31:	48 8b 45 f8          	mov    -0x8(%rbp),%rax
    5a35:	5d                   	pop    %rbp
    5a36:	c3                   	retq   

0000000000005a37 <safe_lshift_func_int64_t_s_s>:
    5a37:	f3 0f 1e fa          	endbr64 
    5a3b:	55                   	push   %rbp
    5a3c:	48 89 e5             	mov    %rsp,%rbp
    5a3f:	48 89 7d f8          	mov    %rdi,-0x8(%rbp)
    5a43:	89 75 f4             	mov    %esi,-0xc(%rbp)
    5a46:	48 83 7d f8 00       	cmpq   $0x0,-0x8(%rbp)
    5a4b:	78 38                	js     5a85 <safe_lshift_func_int64_t_s_s+0x4e>
    5a4d:	83 7d f4 00          	cmpl   $0x0,-0xc(%rbp)
    5a51:	78 32                	js     5a85 <safe_lshift_func_int64_t_s_s+0x4e>
    5a53:	83 7d f4 1f          	cmpl   $0x1f,-0xc(%rbp)
    5a57:	7f 2c                	jg     5a85 <safe_lshift_func_int64_t_s_s+0x4e>
    5a59:	8b 45 f4             	mov    -0xc(%rbp),%eax
    5a5c:	48 ba ff ff ff ff ff 	movabs $0x7fffffffffffffff,%rdx
    5a63:	ff ff 7f 
    5a66:	89 c1                	mov    %eax,%ecx
    5a68:	48 d3 fa             	sar    %cl,%rdx
    5a6b:	48 89 d0             	mov    %rdx,%rax
    5a6e:	48 39 45 f8          	cmp    %rax,-0x8(%rbp)
    5a72:	7f 11                	jg     5a85 <safe_lshift_func_int64_t_s_s+0x4e>
    5a74:	8b 45 f4             	mov    -0xc(%rbp),%eax
    5a77:	48 8b 55 f8          	mov    -0x8(%rbp),%rdx
    5a7b:	89 c1                	mov    %eax,%ecx
    5a7d:	48 d3 e2             	shl    %cl,%rdx
    5a80:	48 89 d0             	mov    %rdx,%rax
    5a83:	eb 04                	jmp    5a89 <safe_lshift_func_int64_t_s_s+0x52>
    5a85:	48 8b 45 f8          	mov    -0x8(%rbp),%rax
    5a89:	5d                   	pop    %rbp
    5a8a:	c3                   	retq   

0000000000005a8b <safe_lshift_func_int64_t_s_u>:
    5a8b:	f3 0f 1e fa          	endbr64 
    5a8f:	55                   	push   %rbp
    5a90:	48 89 e5             	mov    %rsp,%rbp
    5a93:	48 89 7d f8          	mov    %rdi,-0x8(%rbp)
    5a97:	89 75 f4             	mov    %esi,-0xc(%rbp)
    5a9a:	48 83 7d f8 00       	cmpq   $0x0,-0x8(%rbp)
    5a9f:	78 32                	js     5ad3 <safe_lshift_func_int64_t_s_u+0x48>
    5aa1:	83 7d f4 1f          	cmpl   $0x1f,-0xc(%rbp)
    5aa5:	77 2c                	ja     5ad3 <safe_lshift_func_int64_t_s_u+0x48>
    5aa7:	8b 45 f4             	mov    -0xc(%rbp),%eax
    5aaa:	48 ba ff ff ff ff ff 	movabs $0x7fffffffffffffff,%rdx
    5ab1:	ff ff 7f 
    5ab4:	89 c1                	mov    %eax,%ecx
    5ab6:	48 d3 fa             	sar    %cl,%rdx
    5ab9:	48 89 d0             	mov    %rdx,%rax
    5abc:	48 39 45 f8          	cmp    %rax,-0x8(%rbp)
    5ac0:	7f 11                	jg     5ad3 <safe_lshift_func_int64_t_s_u+0x48>
    5ac2:	8b 45 f4             	mov    -0xc(%rbp),%eax
    5ac5:	48 8b 55 f8          	mov    -0x8(%rbp),%rdx
    5ac9:	89 c1                	mov    %eax,%ecx
    5acb:	48 d3 e2             	shl    %cl,%rdx
    5ace:	48 89 d0             	mov    %rdx,%rax
    5ad1:	eb 04                	jmp    5ad7 <safe_lshift_func_int64_t_s_u+0x4c>
    5ad3:	48 8b 45 f8          	mov    -0x8(%rbp),%rax
    5ad7:	5d                   	pop    %rbp
    5ad8:	c3                   	retq   

0000000000005ad9 <safe_rshift_func_int64_t_s_s>:
    5ad9:	f3 0f 1e fa          	endbr64 
    5add:	55                   	push   %rbp
    5ade:	48 89 e5             	mov    %rsp,%rbp
    5ae1:	48 89 7d f8          	mov    %rdi,-0x8(%rbp)
    5ae5:	89 75 f4             	mov    %esi,-0xc(%rbp)
    5ae8:	48 83 7d f8 00       	cmpq   $0x0,-0x8(%rbp)
    5aed:	78 1d                	js     5b0c <safe_rshift_func_int64_t_s_s+0x33>
    5aef:	83 7d f4 00          	cmpl   $0x0,-0xc(%rbp)
    5af3:	78 17                	js     5b0c <safe_rshift_func_int64_t_s_s+0x33>
    5af5:	83 7d f4 1f          	cmpl   $0x1f,-0xc(%rbp)
    5af9:	7f 11                	jg     5b0c <safe_rshift_func_int64_t_s_s+0x33>
    5afb:	8b 45 f4             	mov    -0xc(%rbp),%eax
    5afe:	48 8b 55 f8          	mov    -0x8(%rbp),%rdx
    5b02:	89 c1                	mov    %eax,%ecx
    5b04:	48 d3 fa             	sar    %cl,%rdx
    5b07:	48 89 d0             	mov    %rdx,%rax
    5b0a:	eb 04                	jmp    5b10 <safe_rshift_func_int64_t_s_s+0x37>
    5b0c:	48 8b 45 f8          	mov    -0x8(%rbp),%rax
    5b10:	5d                   	pop    %rbp
    5b11:	c3                   	retq   

0000000000005b12 <safe_rshift_func_int64_t_s_u>:
    5b12:	f3 0f 1e fa          	endbr64 
    5b16:	55                   	push   %rbp
    5b17:	48 89 e5             	mov    %rsp,%rbp
    5b1a:	48 89 7d f8          	mov    %rdi,-0x8(%rbp)
    5b1e:	89 75 f4             	mov    %esi,-0xc(%rbp)
    5b21:	48 83 7d f8 00       	cmpq   $0x0,-0x8(%rbp)
    5b26:	78 17                	js     5b3f <safe_rshift_func_int64_t_s_u+0x2d>
    5b28:	83 7d f4 1f          	cmpl   $0x1f,-0xc(%rbp)
    5b2c:	77 11                	ja     5b3f <safe_rshift_func_int64_t_s_u+0x2d>
    5b2e:	8b 45 f4             	mov    -0xc(%rbp),%eax
    5b31:	48 8b 55 f8          	mov    -0x8(%rbp),%rdx
    5b35:	89 c1                	mov    %eax,%ecx
    5b37:	48 d3 fa             	sar    %cl,%rdx
    5b3a:	48 89 d0             	mov    %rdx,%rax
    5b3d:	eb 04                	jmp    5b43 <safe_rshift_func_int64_t_s_u+0x31>
    5b3f:	48 8b 45 f8          	mov    -0x8(%rbp),%rax
    5b43:	5d                   	pop    %rbp
    5b44:	c3                   	retq   

0000000000005b45 <safe_unary_minus_func_uint8_t_u>:
    5b45:	f3 0f 1e fa          	endbr64 
    5b49:	55                   	push   %rbp
    5b4a:	48 89 e5             	mov    %rsp,%rbp
    5b4d:	89 f8                	mov    %edi,%eax
    5b4f:	88 45 fc             	mov    %al,-0x4(%rbp)
    5b52:	0f b6 45 fc          	movzbl -0x4(%rbp),%eax
    5b56:	f7 d8                	neg    %eax
    5b58:	5d                   	pop    %rbp
    5b59:	c3                   	retq   

0000000000005b5a <safe_add_func_uint8_t_u_u>:
    5b5a:	f3 0f 1e fa          	endbr64 
    5b5e:	55                   	push   %rbp
    5b5f:	48 89 e5             	mov    %rsp,%rbp
    5b62:	89 fa                	mov    %edi,%edx
    5b64:	89 f0                	mov    %esi,%eax
    5b66:	88 55 fc             	mov    %dl,-0x4(%rbp)
    5b69:	88 45 f8             	mov    %al,-0x8(%rbp)
    5b6c:	0f b6 55 fc          	movzbl -0x4(%rbp),%edx
    5b70:	0f b6 45 f8          	movzbl -0x8(%rbp),%eax
    5b74:	01 d0                	add    %edx,%eax
    5b76:	5d                   	pop    %rbp
    5b77:	c3                   	retq   

0000000000005b78 <safe_sub_func_uint8_t_u_u>:
    5b78:	f3 0f 1e fa          	endbr64 
    5b7c:	55                   	push   %rbp
    5b7d:	48 89 e5             	mov    %rsp,%rbp
    5b80:	89 fa                	mov    %edi,%edx
    5b82:	89 f0                	mov    %esi,%eax
    5b84:	88 55 fc             	mov    %dl,-0x4(%rbp)
    5b87:	88 45 f8             	mov    %al,-0x8(%rbp)
    5b8a:	0f b6 45 fc          	movzbl -0x4(%rbp),%eax
    5b8e:	2a 45 f8             	sub    -0x8(%rbp),%al
    5b91:	5d                   	pop    %rbp
    5b92:	c3                   	retq   

0000000000005b93 <safe_mul_func_uint8_t_u_u>:
    5b93:	f3 0f 1e fa          	endbr64 
    5b97:	55                   	push   %rbp
    5b98:	48 89 e5             	mov    %rsp,%rbp
    5b9b:	89 fa                	mov    %edi,%edx
    5b9d:	89 f0                	mov    %esi,%eax
    5b9f:	88 55 fc             	mov    %dl,-0x4(%rbp)
    5ba2:	88 45 f8             	mov    %al,-0x8(%rbp)
    5ba5:	0f b6 45 fc          	movzbl -0x4(%rbp),%eax
    5ba9:	f6 65 f8             	mulb   -0x8(%rbp)
    5bac:	5d                   	pop    %rbp
    5bad:	c3                   	retq   

0000000000005bae <safe_mod_func_uint8_t_u_u>:
    5bae:	f3 0f 1e fa          	endbr64 
    5bb2:	55                   	push   %rbp
    5bb3:	48 89 e5             	mov    %rsp,%rbp
    5bb6:	89 fa                	mov    %edi,%edx
    5bb8:	89 f0                	mov    %esi,%eax
    5bba:	88 55 fc             	mov    %dl,-0x4(%rbp)
    5bbd:	88 45 f8             	mov    %al,-0x8(%rbp)
    5bc0:	80 7d f8 00          	cmpb   $0x0,-0x8(%rbp)
    5bc4:	74 0f                	je     5bd5 <safe_mod_func_uint8_t_u_u+0x27>
    5bc6:	0f b6 45 fc          	movzbl -0x4(%rbp),%eax
    5bca:	0f b6 c0             	movzbl %al,%eax
    5bcd:	f6 75 f8             	divb   -0x8(%rbp)
    5bd0:	0f b6 c4             	movzbl %ah,%eax
    5bd3:	eb 04                	jmp    5bd9 <safe_mod_func_uint8_t_u_u+0x2b>
    5bd5:	0f b6 45 fc          	movzbl -0x4(%rbp),%eax
    5bd9:	5d                   	pop    %rbp
    5bda:	c3                   	retq   

0000000000005bdb <safe_div_func_uint8_t_u_u>:
    5bdb:	f3 0f 1e fa          	endbr64 
    5bdf:	55                   	push   %rbp
    5be0:	48 89 e5             	mov    %rsp,%rbp
    5be3:	89 fa                	mov    %edi,%edx
    5be5:	89 f0                	mov    %esi,%eax
    5be7:	88 55 fc             	mov    %dl,-0x4(%rbp)
    5bea:	88 45 f8             	mov    %al,-0x8(%rbp)
    5bed:	80 7d f8 00          	cmpb   $0x0,-0x8(%rbp)
    5bf1:	74 0c                	je     5bff <safe_div_func_uint8_t_u_u+0x24>
    5bf3:	0f b6 45 fc          	movzbl -0x4(%rbp),%eax
    5bf7:	0f b6 c0             	movzbl %al,%eax
    5bfa:	f6 75 f8             	divb   -0x8(%rbp)
    5bfd:	eb 04                	jmp    5c03 <safe_div_func_uint8_t_u_u+0x28>
    5bff:	0f b6 45 fc          	movzbl -0x4(%rbp),%eax
    5c03:	5d                   	pop    %rbp
    5c04:	c3                   	retq   

0000000000005c05 <safe_lshift_func_uint8_t_u_s>:
    5c05:	f3 0f 1e fa          	endbr64 
    5c09:	55                   	push   %rbp
    5c0a:	48 89 e5             	mov    %rsp,%rbp
    5c0d:	89 f8                	mov    %edi,%eax
    5c0f:	89 75 f8             	mov    %esi,-0x8(%rbp)
    5c12:	88 45 fc             	mov    %al,-0x4(%rbp)
    5c15:	83 7d f8 00          	cmpl   $0x0,-0x8(%rbp)
    5c19:	78 2b                	js     5c46 <safe_lshift_func_uint8_t_u_s+0x41>
    5c1b:	83 7d f8 1f          	cmpl   $0x1f,-0x8(%rbp)
    5c1f:	7f 25                	jg     5c46 <safe_lshift_func_uint8_t_u_s+0x41>
    5c21:	0f b6 55 fc          	movzbl -0x4(%rbp),%edx
    5c25:	8b 45 f8             	mov    -0x8(%rbp),%eax
    5c28:	be ff 00 00 00       	mov    $0xff,%esi
    5c2d:	89 c1                	mov    %eax,%ecx
    5c2f:	d3 fe                	sar    %cl,%esi
    5c31:	89 f0                	mov    %esi,%eax
    5c33:	39 c2                	cmp    %eax,%edx
    5c35:	7f 0f                	jg     5c46 <safe_lshift_func_uint8_t_u_s+0x41>
    5c37:	0f b6 55 fc          	movzbl -0x4(%rbp),%edx
    5c3b:	8b 45 f8             	mov    -0x8(%rbp),%eax
    5c3e:	89 c1                	mov    %eax,%ecx
    5c40:	d3 e2                	shl    %cl,%edx
    5c42:	89 d0                	mov    %edx,%eax
    5c44:	eb 04                	jmp    5c4a <safe_lshift_func_uint8_t_u_s+0x45>
    5c46:	0f b6 45 fc          	movzbl -0x4(%rbp),%eax
    5c4a:	5d                   	pop    %rbp
    5c4b:	c3                   	retq   

0000000000005c4c <safe_lshift_func_uint8_t_u_u>:
    5c4c:	f3 0f 1e fa          	endbr64 
    5c50:	55                   	push   %rbp
    5c51:	48 89 e5             	mov    %rsp,%rbp
    5c54:	89 f8                	mov    %edi,%eax
    5c56:	89 75 f8             	mov    %esi,-0x8(%rbp)
    5c59:	88 45 fc             	mov    %al,-0x4(%rbp)
    5c5c:	83 7d f8 1f          	cmpl   $0x1f,-0x8(%rbp)
    5c60:	77 25                	ja     5c87 <safe_lshift_func_uint8_t_u_u+0x3b>
    5c62:	0f b6 55 fc          	movzbl -0x4(%rbp),%edx
    5c66:	8b 45 f8             	mov    -0x8(%rbp),%eax
    5c69:	be ff 00 00 00       	mov    $0xff,%esi
    5c6e:	89 c1                	mov    %eax,%ecx
    5c70:	d3 fe                	sar    %cl,%esi
    5c72:	89 f0                	mov    %esi,%eax
    5c74:	39 c2                	cmp    %eax,%edx
    5c76:	7f 0f                	jg     5c87 <safe_lshift_func_uint8_t_u_u+0x3b>
    5c78:	0f b6 55 fc          	movzbl -0x4(%rbp),%edx
    5c7c:	8b 45 f8             	mov    -0x8(%rbp),%eax
    5c7f:	89 c1                	mov    %eax,%ecx
    5c81:	d3 e2                	shl    %cl,%edx
    5c83:	89 d0                	mov    %edx,%eax
    5c85:	eb 04                	jmp    5c8b <safe_lshift_func_uint8_t_u_u+0x3f>
    5c87:	0f b6 45 fc          	movzbl -0x4(%rbp),%eax
    5c8b:	5d                   	pop    %rbp
    5c8c:	c3                   	retq   

0000000000005c8d <safe_rshift_func_uint8_t_u_s>:
    5c8d:	f3 0f 1e fa          	endbr64 
    5c91:	55                   	push   %rbp
    5c92:	48 89 e5             	mov    %rsp,%rbp
    5c95:	89 f8                	mov    %edi,%eax
    5c97:	89 75 f8             	mov    %esi,-0x8(%rbp)
    5c9a:	88 45 fc             	mov    %al,-0x4(%rbp)
    5c9d:	83 7d f8 00          	cmpl   $0x0,-0x8(%rbp)
    5ca1:	78 15                	js     5cb8 <safe_rshift_func_uint8_t_u_s+0x2b>
    5ca3:	83 7d f8 1f          	cmpl   $0x1f,-0x8(%rbp)
    5ca7:	7f 0f                	jg     5cb8 <safe_rshift_func_uint8_t_u_s+0x2b>
    5ca9:	0f b6 55 fc          	movzbl -0x4(%rbp),%edx
    5cad:	8b 45 f8             	mov    -0x8(%rbp),%eax
    5cb0:	89 c1                	mov    %eax,%ecx
    5cb2:	d3 fa                	sar    %cl,%edx
    5cb4:	89 d0                	mov    %edx,%eax
    5cb6:	eb 04                	jmp    5cbc <safe_rshift_func_uint8_t_u_s+0x2f>
    5cb8:	0f b6 45 fc          	movzbl -0x4(%rbp),%eax
    5cbc:	5d                   	pop    %rbp
    5cbd:	c3                   	retq   

0000000000005cbe <safe_rshift_func_uint8_t_u_u>:
    5cbe:	f3 0f 1e fa          	endbr64 
    5cc2:	55                   	push   %rbp
    5cc3:	48 89 e5             	mov    %rsp,%rbp
    5cc6:	89 f8                	mov    %edi,%eax
    5cc8:	89 75 f8             	mov    %esi,-0x8(%rbp)
    5ccb:	88 45 fc             	mov    %al,-0x4(%rbp)
    5cce:	83 7d f8 1f          	cmpl   $0x1f,-0x8(%rbp)
    5cd2:	77 0f                	ja     5ce3 <safe_rshift_func_uint8_t_u_u+0x25>
    5cd4:	0f b6 55 fc          	movzbl -0x4(%rbp),%edx
    5cd8:	8b 45 f8             	mov    -0x8(%rbp),%eax
    5cdb:	89 c1                	mov    %eax,%ecx
    5cdd:	d3 fa                	sar    %cl,%edx
    5cdf:	89 d0                	mov    %edx,%eax
    5ce1:	eb 04                	jmp    5ce7 <safe_rshift_func_uint8_t_u_u+0x29>
    5ce3:	0f b6 45 fc          	movzbl -0x4(%rbp),%eax
    5ce7:	5d                   	pop    %rbp
    5ce8:	c3                   	retq   

0000000000005ce9 <safe_unary_minus_func_uint16_t_u>:
    5ce9:	f3 0f 1e fa          	endbr64 
    5ced:	55                   	push   %rbp
    5cee:	48 89 e5             	mov    %rsp,%rbp
    5cf1:	89 f8                	mov    %edi,%eax
    5cf3:	66 89 45 fc          	mov    %ax,-0x4(%rbp)
    5cf7:	0f b7 45 fc          	movzwl -0x4(%rbp),%eax
    5cfb:	f7 d8                	neg    %eax
    5cfd:	5d                   	pop    %rbp
    5cfe:	c3                   	retq   

0000000000005cff <safe_add_func_uint16_t_u_u>:
    5cff:	f3 0f 1e fa          	endbr64 
    5d03:	55                   	push   %rbp
    5d04:	48 89 e5             	mov    %rsp,%rbp
    5d07:	89 fa                	mov    %edi,%edx
    5d09:	89 f0                	mov    %esi,%eax
    5d0b:	66 89 55 fc          	mov    %dx,-0x4(%rbp)
    5d0f:	66 89 45 f8          	mov    %ax,-0x8(%rbp)
    5d13:	0f b7 55 fc          	movzwl -0x4(%rbp),%edx
    5d17:	0f b7 45 f8          	movzwl -0x8(%rbp),%eax
    5d1b:	01 d0                	add    %edx,%eax
    5d1d:	5d                   	pop    %rbp
    5d1e:	c3                   	retq   

0000000000005d1f <safe_sub_func_uint16_t_u_u>:
    5d1f:	f3 0f 1e fa          	endbr64 
    5d23:	55                   	push   %rbp
    5d24:	48 89 e5             	mov    %rsp,%rbp
    5d27:	89 fa                	mov    %edi,%edx
    5d29:	89 f0                	mov    %esi,%eax
    5d2b:	66 89 55 fc          	mov    %dx,-0x4(%rbp)
    5d2f:	66 89 45 f8          	mov    %ax,-0x8(%rbp)
    5d33:	0f b7 45 fc          	movzwl -0x4(%rbp),%eax
    5d37:	66 2b 45 f8          	sub    -0x8(%rbp),%ax
    5d3b:	5d                   	pop    %rbp
    5d3c:	c3                   	retq   

0000000000005d3d <safe_mul_func_uint16_t_u_u>:
    5d3d:	f3 0f 1e fa          	endbr64 
    5d41:	55                   	push   %rbp
    5d42:	48 89 e5             	mov    %rsp,%rbp
    5d45:	89 fa                	mov    %edi,%edx
    5d47:	89 f0                	mov    %esi,%eax
    5d49:	66 89 55 fc          	mov    %dx,-0x4(%rbp)
    5d4d:	66 89 45 f8          	mov    %ax,-0x8(%rbp)
    5d51:	0f b7 45 fc          	movzwl -0x4(%rbp),%eax
    5d55:	66 0f af 45 f8       	imul   -0x8(%rbp),%ax
    5d5a:	5d                   	pop    %rbp
    5d5b:	c3                   	retq   

0000000000005d5c <safe_mod_func_uint16_t_u_u>:
    5d5c:	f3 0f 1e fa          	endbr64 
    5d60:	55                   	push   %rbp
    5d61:	48 89 e5             	mov    %rsp,%rbp
    5d64:	89 fa                	mov    %edi,%edx
    5d66:	89 f0                	mov    %esi,%eax
    5d68:	66 89 55 fc          	mov    %dx,-0x4(%rbp)
    5d6c:	66 89 45 f8          	mov    %ax,-0x8(%rbp)
    5d70:	66 83 7d f8 00       	cmpw   $0x0,-0x8(%rbp)
    5d75:	74 11                	je     5d88 <safe_mod_func_uint16_t_u_u+0x2c>
    5d77:	0f b7 45 fc          	movzwl -0x4(%rbp),%eax
    5d7b:	ba 00 00 00 00       	mov    $0x0,%edx
    5d80:	66 f7 75 f8          	divw   -0x8(%rbp)
    5d84:	89 d0                	mov    %edx,%eax
    5d86:	eb 04                	jmp    5d8c <safe_mod_func_uint16_t_u_u+0x30>
    5d88:	0f b7 45 fc          	movzwl -0x4(%rbp),%eax
    5d8c:	5d                   	pop    %rbp
    5d8d:	c3                   	retq   

0000000000005d8e <safe_div_func_uint16_t_u_u>:
    5d8e:	f3 0f 1e fa          	endbr64 
    5d92:	55                   	push   %rbp
    5d93:	48 89 e5             	mov    %rsp,%rbp
    5d96:	89 fa                	mov    %edi,%edx
    5d98:	89 f0                	mov    %esi,%eax
    5d9a:	66 89 55 fc          	mov    %dx,-0x4(%rbp)
    5d9e:	66 89 45 f8          	mov    %ax,-0x8(%rbp)
    5da2:	66 83 7d f8 00       	cmpw   $0x0,-0x8(%rbp)
    5da7:	74 0f                	je     5db8 <safe_div_func_uint16_t_u_u+0x2a>
    5da9:	0f b7 45 fc          	movzwl -0x4(%rbp),%eax
    5dad:	ba 00 00 00 00       	mov    $0x0,%edx
    5db2:	66 f7 75 f8          	divw   -0x8(%rbp)
    5db6:	eb 04                	jmp    5dbc <safe_div_func_uint16_t_u_u+0x2e>
    5db8:	0f b7 45 fc          	movzwl -0x4(%rbp),%eax
    5dbc:	5d                   	pop    %rbp
    5dbd:	c3                   	retq   

0000000000005dbe <safe_lshift_func_uint16_t_u_s>:
    5dbe:	f3 0f 1e fa          	endbr64 
    5dc2:	55                   	push   %rbp
    5dc3:	48 89 e5             	mov    %rsp,%rbp
    5dc6:	89 f8                	mov    %edi,%eax
    5dc8:	89 75 f8             	mov    %esi,-0x8(%rbp)
    5dcb:	66 89 45 fc          	mov    %ax,-0x4(%rbp)
    5dcf:	83 7d f8 00          	cmpl   $0x0,-0x8(%rbp)
    5dd3:	78 2b                	js     5e00 <safe_lshift_func_uint16_t_u_s+0x42>
    5dd5:	83 7d f8 1f          	cmpl   $0x1f,-0x8(%rbp)
    5dd9:	7f 25                	jg     5e00 <safe_lshift_func_uint16_t_u_s+0x42>
    5ddb:	0f b7 55 fc          	movzwl -0x4(%rbp),%edx
    5ddf:	8b 45 f8             	mov    -0x8(%rbp),%eax
    5de2:	be ff ff 00 00       	mov    $0xffff,%esi
    5de7:	89 c1                	mov    %eax,%ecx
    5de9:	d3 fe                	sar    %cl,%esi
    5deb:	89 f0                	mov    %esi,%eax
    5ded:	39 c2                	cmp    %eax,%edx
    5def:	7f 0f                	jg     5e00 <safe_lshift_func_uint16_t_u_s+0x42>
    5df1:	0f b7 55 fc          	movzwl -0x4(%rbp),%edx
    5df5:	8b 45 f8             	mov    -0x8(%rbp),%eax
    5df8:	89 c1                	mov    %eax,%ecx
    5dfa:	d3 e2                	shl    %cl,%edx
    5dfc:	89 d0                	mov    %edx,%eax
    5dfe:	eb 04                	jmp    5e04 <safe_lshift_func_uint16_t_u_s+0x46>
    5e00:	0f b7 45 fc          	movzwl -0x4(%rbp),%eax
    5e04:	5d                   	pop    %rbp
    5e05:	c3                   	retq   

0000000000005e06 <safe_lshift_func_uint16_t_u_u>:
    5e06:	f3 0f 1e fa          	endbr64 
    5e0a:	55                   	push   %rbp
    5e0b:	48 89 e5             	mov    %rsp,%rbp
    5e0e:	89 f8                	mov    %edi,%eax
    5e10:	89 75 f8             	mov    %esi,-0x8(%rbp)
    5e13:	66 89 45 fc          	mov    %ax,-0x4(%rbp)
    5e17:	83 7d f8 1f          	cmpl   $0x1f,-0x8(%rbp)
    5e1b:	77 25                	ja     5e42 <safe_lshift_func_uint16_t_u_u+0x3c>
    5e1d:	0f b7 55 fc          	movzwl -0x4(%rbp),%edx
    5e21:	8b 45 f8             	mov    -0x8(%rbp),%eax
    5e24:	be ff ff 00 00       	mov    $0xffff,%esi
    5e29:	89 c1                	mov    %eax,%ecx
    5e2b:	d3 fe                	sar    %cl,%esi
    5e2d:	89 f0                	mov    %esi,%eax
    5e2f:	39 c2                	cmp    %eax,%edx
    5e31:	7f 0f                	jg     5e42 <safe_lshift_func_uint16_t_u_u+0x3c>
    5e33:	0f b7 55 fc          	movzwl -0x4(%rbp),%edx
    5e37:	8b 45 f8             	mov    -0x8(%rbp),%eax
    5e3a:	89 c1                	mov    %eax,%ecx
    5e3c:	d3 e2                	shl    %cl,%edx
    5e3e:	89 d0                	mov    %edx,%eax
    5e40:	eb 04                	jmp    5e46 <safe_lshift_func_uint16_t_u_u+0x40>
    5e42:	0f b7 45 fc          	movzwl -0x4(%rbp),%eax
    5e46:	5d                   	pop    %rbp
    5e47:	c3                   	retq   

0000000000005e48 <safe_rshift_func_uint16_t_u_s>:
    5e48:	f3 0f 1e fa          	endbr64 
    5e4c:	55                   	push   %rbp
    5e4d:	48 89 e5             	mov    %rsp,%rbp
    5e50:	89 f8                	mov    %edi,%eax
    5e52:	89 75 f8             	mov    %esi,-0x8(%rbp)
    5e55:	66 89 45 fc          	mov    %ax,-0x4(%rbp)
    5e59:	83 7d f8 00          	cmpl   $0x0,-0x8(%rbp)
    5e5d:	78 15                	js     5e74 <safe_rshift_func_uint16_t_u_s+0x2c>
    5e5f:	83 7d f8 1f          	cmpl   $0x1f,-0x8(%rbp)
    5e63:	7f 0f                	jg     5e74 <safe_rshift_func_uint16_t_u_s+0x2c>
    5e65:	0f b7 55 fc          	movzwl -0x4(%rbp),%edx
    5e69:	8b 45 f8             	mov    -0x8(%rbp),%eax
    5e6c:	89 c1                	mov    %eax,%ecx
    5e6e:	d3 fa                	sar    %cl,%edx
    5e70:	89 d0                	mov    %edx,%eax
    5e72:	eb 04                	jmp    5e78 <safe_rshift_func_uint16_t_u_s+0x30>
    5e74:	0f b7 45 fc          	movzwl -0x4(%rbp),%eax
    5e78:	5d                   	pop    %rbp
    5e79:	c3                   	retq   

0000000000005e7a <safe_rshift_func_uint16_t_u_u>:
    5e7a:	f3 0f 1e fa          	endbr64 
    5e7e:	55                   	push   %rbp
    5e7f:	48 89 e5             	mov    %rsp,%rbp
    5e82:	89 f8                	mov    %edi,%eax
    5e84:	89 75 f8             	mov    %esi,-0x8(%rbp)
    5e87:	66 89 45 fc          	mov    %ax,-0x4(%rbp)
    5e8b:	83 7d f8 1f          	cmpl   $0x1f,-0x8(%rbp)
    5e8f:	77 0f                	ja     5ea0 <safe_rshift_func_uint16_t_u_u+0x26>
    5e91:	0f b7 55 fc          	movzwl -0x4(%rbp),%edx
    5e95:	8b 45 f8             	mov    -0x8(%rbp),%eax
    5e98:	89 c1                	mov    %eax,%ecx
    5e9a:	d3 fa                	sar    %cl,%edx
    5e9c:	89 d0                	mov    %edx,%eax
    5e9e:	eb 04                	jmp    5ea4 <safe_rshift_func_uint16_t_u_u+0x2a>
    5ea0:	0f b7 45 fc          	movzwl -0x4(%rbp),%eax
    5ea4:	5d                   	pop    %rbp
    5ea5:	c3                   	retq   

0000000000005ea6 <safe_unary_minus_func_uint32_t_u>:
    5ea6:	f3 0f 1e fa          	endbr64 
    5eaa:	55                   	push   %rbp
    5eab:	48 89 e5             	mov    %rsp,%rbp
    5eae:	89 7d fc             	mov    %edi,-0x4(%rbp)
    5eb1:	8b 45 fc             	mov    -0x4(%rbp),%eax
    5eb4:	f7 d8                	neg    %eax
    5eb6:	5d                   	pop    %rbp
    5eb7:	c3                   	retq   

0000000000005eb8 <safe_add_func_uint32_t_u_u>:
    5eb8:	f3 0f 1e fa          	endbr64 
    5ebc:	55                   	push   %rbp
    5ebd:	48 89 e5             	mov    %rsp,%rbp
    5ec0:	89 7d fc             	mov    %edi,-0x4(%rbp)
    5ec3:	89 75 f8             	mov    %esi,-0x8(%rbp)
    5ec6:	8b 55 fc             	mov    -0x4(%rbp),%edx
    5ec9:	8b 45 f8             	mov    -0x8(%rbp),%eax
    5ecc:	01 d0                	add    %edx,%eax
    5ece:	5d                   	pop    %rbp
    5ecf:	c3                   	retq   

0000000000005ed0 <safe_sub_func_uint32_t_u_u>:
    5ed0:	f3 0f 1e fa          	endbr64 
    5ed4:	55                   	push   %rbp
    5ed5:	48 89 e5             	mov    %rsp,%rbp
    5ed8:	89 7d fc             	mov    %edi,-0x4(%rbp)
    5edb:	89 75 f8             	mov    %esi,-0x8(%rbp)
    5ede:	8b 45 fc             	mov    -0x4(%rbp),%eax
    5ee1:	2b 45 f8             	sub    -0x8(%rbp),%eax
    5ee4:	5d                   	pop    %rbp
    5ee5:	c3                   	retq   

0000000000005ee6 <safe_mul_func_uint32_t_u_u>:
    5ee6:	f3 0f 1e fa          	endbr64 
    5eea:	55                   	push   %rbp
    5eeb:	48 89 e5             	mov    %rsp,%rbp
    5eee:	89 7d fc             	mov    %edi,-0x4(%rbp)
    5ef1:	89 75 f8             	mov    %esi,-0x8(%rbp)
    5ef4:	8b 45 fc             	mov    -0x4(%rbp),%eax
    5ef7:	0f af 45 f8          	imul   -0x8(%rbp),%eax
    5efb:	5d                   	pop    %rbp
    5efc:	c3                   	retq   

0000000000005efd <safe_mod_func_uint32_t_u_u>:
    5efd:	f3 0f 1e fa          	endbr64 
    5f01:	55                   	push   %rbp
    5f02:	48 89 e5             	mov    %rsp,%rbp
    5f05:	89 7d fc             	mov    %edi,-0x4(%rbp)
    5f08:	89 75 f8             	mov    %esi,-0x8(%rbp)
    5f0b:	83 7d f8 00          	cmpl   $0x0,-0x8(%rbp)
    5f0f:	74 0f                	je     5f20 <safe_mod_func_uint32_t_u_u+0x23>
    5f11:	8b 45 fc             	mov    -0x4(%rbp),%eax
    5f14:	ba 00 00 00 00       	mov    $0x0,%edx
    5f19:	f7 75 f8             	divl   -0x8(%rbp)
    5f1c:	89 d0                	mov    %edx,%eax
    5f1e:	eb 03                	jmp    5f23 <safe_mod_func_uint32_t_u_u+0x26>
    5f20:	8b 45 fc             	mov    -0x4(%rbp),%eax
    5f23:	5d                   	pop    %rbp
    5f24:	c3                   	retq   

0000000000005f25 <safe_div_func_uint32_t_u_u>:
    5f25:	f3 0f 1e fa          	endbr64 
    5f29:	55                   	push   %rbp
    5f2a:	48 89 e5             	mov    %rsp,%rbp
    5f2d:	89 7d fc             	mov    %edi,-0x4(%rbp)
    5f30:	89 75 f8             	mov    %esi,-0x8(%rbp)
    5f33:	83 7d f8 00          	cmpl   $0x0,-0x8(%rbp)
    5f37:	74 0d                	je     5f46 <safe_div_func_uint32_t_u_u+0x21>
    5f39:	8b 45 fc             	mov    -0x4(%rbp),%eax
    5f3c:	ba 00 00 00 00       	mov    $0x0,%edx
    5f41:	f7 75 f8             	divl   -0x8(%rbp)
    5f44:	eb 03                	jmp    5f49 <safe_div_func_uint32_t_u_u+0x24>
    5f46:	8b 45 fc             	mov    -0x4(%rbp),%eax
    5f49:	5d                   	pop    %rbp
    5f4a:	c3                   	retq   

0000000000005f4b <safe_lshift_func_uint32_t_u_s>:
    5f4b:	f3 0f 1e fa          	endbr64 
    5f4f:	55                   	push   %rbp
    5f50:	48 89 e5             	mov    %rsp,%rbp
    5f53:	89 7d fc             	mov    %edi,-0x4(%rbp)
    5f56:	89 75 f8             	mov    %esi,-0x8(%rbp)
    5f59:	83 7d f8 00          	cmpl   $0x0,-0x8(%rbp)
    5f5d:	78 27                	js     5f86 <safe_lshift_func_uint32_t_u_s+0x3b>
    5f5f:	83 7d f8 1f          	cmpl   $0x1f,-0x8(%rbp)
    5f63:	7f 21                	jg     5f86 <safe_lshift_func_uint32_t_u_s+0x3b>
    5f65:	8b 45 f8             	mov    -0x8(%rbp),%eax
    5f68:	ba ff ff ff ff       	mov    $0xffffffff,%edx
    5f6d:	89 c1                	mov    %eax,%ecx
    5f6f:	d3 ea                	shr    %cl,%edx
    5f71:	89 d0                	mov    %edx,%eax
    5f73:	39 45 fc             	cmp    %eax,-0x4(%rbp)
    5f76:	77 0e                	ja     5f86 <safe_lshift_func_uint32_t_u_s+0x3b>
    5f78:	8b 45 f8             	mov    -0x8(%rbp),%eax
    5f7b:	8b 55 fc             	mov    -0x4(%rbp),%edx
    5f7e:	89 c1                	mov    %eax,%ecx
    5f80:	d3 e2                	shl    %cl,%edx
    5f82:	89 d0                	mov    %edx,%eax
    5f84:	eb 03                	jmp    5f89 <safe_lshift_func_uint32_t_u_s+0x3e>
    5f86:	8b 45 fc             	mov    -0x4(%rbp),%eax
    5f89:	5d                   	pop    %rbp
    5f8a:	c3                   	retq   

0000000000005f8b <safe_lshift_func_uint32_t_u_u>:
    5f8b:	f3 0f 1e fa          	endbr64 
    5f8f:	55                   	push   %rbp
    5f90:	48 89 e5             	mov    %rsp,%rbp
    5f93:	89 7d fc             	mov    %edi,-0x4(%rbp)
    5f96:	89 75 f8             	mov    %esi,-0x8(%rbp)
    5f99:	83 7d f8 1f          	cmpl   $0x1f,-0x8(%rbp)
    5f9d:	77 21                	ja     5fc0 <safe_lshift_func_uint32_t_u_u+0x35>
    5f9f:	8b 45 f8             	mov    -0x8(%rbp),%eax
    5fa2:	ba ff ff ff ff       	mov    $0xffffffff,%edx
    5fa7:	89 c1                	mov    %eax,%ecx
    5fa9:	d3 ea                	shr    %cl,%edx
    5fab:	89 d0                	mov    %edx,%eax
    5fad:	39 45 fc             	cmp    %eax,-0x4(%rbp)
    5fb0:	77 0e                	ja     5fc0 <safe_lshift_func_uint32_t_u_u+0x35>
    5fb2:	8b 45 f8             	mov    -0x8(%rbp),%eax
    5fb5:	8b 55 fc             	mov    -0x4(%rbp),%edx
    5fb8:	89 c1                	mov    %eax,%ecx
    5fba:	d3 e2                	shl    %cl,%edx
    5fbc:	89 d0                	mov    %edx,%eax
    5fbe:	eb 03                	jmp    5fc3 <safe_lshift_func_uint32_t_u_u+0x38>
    5fc0:	8b 45 fc             	mov    -0x4(%rbp),%eax
    5fc3:	5d                   	pop    %rbp
    5fc4:	c3                   	retq   

0000000000005fc5 <safe_rshift_func_uint32_t_u_s>:
    5fc5:	f3 0f 1e fa          	endbr64 
    5fc9:	55                   	push   %rbp
    5fca:	48 89 e5             	mov    %rsp,%rbp
    5fcd:	89 7d fc             	mov    %edi,-0x4(%rbp)
    5fd0:	89 75 f8             	mov    %esi,-0x8(%rbp)
    5fd3:	83 7d f8 00          	cmpl   $0x0,-0x8(%rbp)
    5fd7:	78 14                	js     5fed <safe_rshift_func_uint32_t_u_s+0x28>
    5fd9:	83 7d f8 1f          	cmpl   $0x1f,-0x8(%rbp)
    5fdd:	7f 0e                	jg     5fed <safe_rshift_func_uint32_t_u_s+0x28>
    5fdf:	8b 45 f8             	mov    -0x8(%rbp),%eax
    5fe2:	8b 55 fc             	mov    -0x4(%rbp),%edx
    5fe5:	89 c1                	mov    %eax,%ecx
    5fe7:	d3 ea                	shr    %cl,%edx
    5fe9:	89 d0                	mov    %edx,%eax
    5feb:	eb 03                	jmp    5ff0 <safe_rshift_func_uint32_t_u_s+0x2b>
    5fed:	8b 45 fc             	mov    -0x4(%rbp),%eax
    5ff0:	5d                   	pop    %rbp
    5ff1:	c3                   	retq   

0000000000005ff2 <safe_rshift_func_uint32_t_u_u>:
    5ff2:	f3 0f 1e fa          	endbr64 
    5ff6:	55                   	push   %rbp
    5ff7:	48 89 e5             	mov    %rsp,%rbp
    5ffa:	89 7d fc             	mov    %edi,-0x4(%rbp)
    5ffd:	89 75 f8             	mov    %esi,-0x8(%rbp)
    6000:	83 7d f8 1f          	cmpl   $0x1f,-0x8(%rbp)
    6004:	77 0e                	ja     6014 <safe_rshift_func_uint32_t_u_u+0x22>
    6006:	8b 45 f8             	mov    -0x8(%rbp),%eax
    6009:	8b 55 fc             	mov    -0x4(%rbp),%edx
    600c:	89 c1                	mov    %eax,%ecx
    600e:	d3 ea                	shr    %cl,%edx
    6010:	89 d0                	mov    %edx,%eax
    6012:	eb 03                	jmp    6017 <safe_rshift_func_uint32_t_u_u+0x25>
    6014:	8b 45 fc             	mov    -0x4(%rbp),%eax
    6017:	5d                   	pop    %rbp
    6018:	c3                   	retq   

0000000000006019 <safe_unary_minus_func_uint64_t_u>:
    6019:	f3 0f 1e fa          	endbr64 
    601d:	55                   	push   %rbp
    601e:	48 89 e5             	mov    %rsp,%rbp
    6021:	48 89 7d f8          	mov    %rdi,-0x8(%rbp)
    6025:	48 8b 45 f8          	mov    -0x8(%rbp),%rax
    6029:	48 f7 d8             	neg    %rax
    602c:	5d                   	pop    %rbp
    602d:	c3                   	retq   

000000000000602e <safe_add_func_uint64_t_u_u>:
    602e:	f3 0f 1e fa          	endbr64 
    6032:	55                   	push   %rbp
    6033:	48 89 e5             	mov    %rsp,%rbp
    6036:	48 89 7d f8          	mov    %rdi,-0x8(%rbp)
    603a:	48 89 75 f0          	mov    %rsi,-0x10(%rbp)
    603e:	48 8b 55 f8          	mov    -0x8(%rbp),%rdx
    6042:	48 8b 45 f0          	mov    -0x10(%rbp),%rax
    6046:	48 01 d0             	add    %rdx,%rax
    6049:	5d                   	pop    %rbp
    604a:	c3                   	retq   

000000000000604b <safe_sub_func_uint64_t_u_u>:
    604b:	f3 0f 1e fa          	endbr64 
    604f:	55                   	push   %rbp
    6050:	48 89 e5             	mov    %rsp,%rbp
    6053:	48 89 7d f8          	mov    %rdi,-0x8(%rbp)
    6057:	48 89 75 f0          	mov    %rsi,-0x10(%rbp)
    605b:	48 8b 45 f8          	mov    -0x8(%rbp),%rax
    605f:	48 2b 45 f0          	sub    -0x10(%rbp),%rax
    6063:	5d                   	pop    %rbp
    6064:	c3                   	retq   

0000000000006065 <safe_mul_func_uint64_t_u_u>:
    6065:	f3 0f 1e fa          	endbr64 
    6069:	55                   	push   %rbp
    606a:	48 89 e5             	mov    %rsp,%rbp
    606d:	48 89 7d f8          	mov    %rdi,-0x8(%rbp)
    6071:	48 89 75 f0          	mov    %rsi,-0x10(%rbp)
    6075:	48 8b 45 f8          	mov    -0x8(%rbp),%rax
    6079:	48 0f af 45 f0       	imul   -0x10(%rbp),%rax
    607e:	5d                   	pop    %rbp
    607f:	c3                   	retq   

0000000000006080 <safe_mod_func_uint64_t_u_u>:
    6080:	f3 0f 1e fa          	endbr64 
    6084:	55                   	push   %rbp
    6085:	48 89 e5             	mov    %rsp,%rbp
    6088:	48 89 7d f8          	mov    %rdi,-0x8(%rbp)
    608c:	48 89 75 f0          	mov    %rsi,-0x10(%rbp)
    6090:	48 83 7d f0 00       	cmpq   $0x0,-0x10(%rbp)
    6095:	74 12                	je     60a9 <safe_mod_func_uint64_t_u_u+0x29>
    6097:	48 8b 45 f8          	mov    -0x8(%rbp),%rax
    609b:	ba 00 00 00 00       	mov    $0x0,%edx
    60a0:	48 f7 75 f0          	divq   -0x10(%rbp)
    60a4:	48 89 d0             	mov    %rdx,%rax
    60a7:	eb 04                	jmp    60ad <safe_mod_func_uint64_t_u_u+0x2d>
    60a9:	48 8b 45 f8          	mov    -0x8(%rbp),%rax
    60ad:	5d                   	pop    %rbp
    60ae:	c3                   	retq   

00000000000060af <safe_div_func_uint64_t_u_u>:
    60af:	f3 0f 1e fa          	endbr64 
    60b3:	55                   	push   %rbp
    60b4:	48 89 e5             	mov    %rsp,%rbp
    60b7:	48 89 7d f8          	mov    %rdi,-0x8(%rbp)
    60bb:	48 89 75 f0          	mov    %rsi,-0x10(%rbp)
    60bf:	48 83 7d f0 00       	cmpq   $0x0,-0x10(%rbp)
    60c4:	74 0f                	je     60d5 <safe_div_func_uint64_t_u_u+0x26>
    60c6:	48 8b 45 f8          	mov    -0x8(%rbp),%rax
    60ca:	ba 00 00 00 00       	mov    $0x0,%edx
    60cf:	48 f7 75 f0          	divq   -0x10(%rbp)
    60d3:	eb 04                	jmp    60d9 <safe_div_func_uint64_t_u_u+0x2a>
    60d5:	48 8b 45 f8          	mov    -0x8(%rbp),%rax
    60d9:	5d                   	pop    %rbp
    60da:	c3                   	retq   

00000000000060db <safe_lshift_func_uint64_t_u_s>:
    60db:	f3 0f 1e fa          	endbr64 
    60df:	55                   	push   %rbp
    60e0:	48 89 e5             	mov    %rsp,%rbp
    60e3:	48 89 7d f8          	mov    %rdi,-0x8(%rbp)
    60e7:	89 75 f4             	mov    %esi,-0xc(%rbp)
    60ea:	83 7d f4 00          	cmpl   $0x0,-0xc(%rbp)
    60ee:	78 2f                	js     611f <safe_lshift_func_uint64_t_u_s+0x44>
    60f0:	83 7d f4 1f          	cmpl   $0x1f,-0xc(%rbp)
    60f4:	7f 29                	jg     611f <safe_lshift_func_uint64_t_u_s+0x44>
    60f6:	8b 45 f4             	mov    -0xc(%rbp),%eax
    60f9:	48 c7 c2 ff ff ff ff 	mov    $0xffffffffffffffff,%rdx
    6100:	89 c1                	mov    %eax,%ecx
    6102:	48 d3 ea             	shr    %cl,%rdx
    6105:	48 89 d0             	mov    %rdx,%rax
    6108:	48 39 45 f8          	cmp    %rax,-0x8(%rbp)
    610c:	77 11                	ja     611f <safe_lshift_func_uint64_t_u_s+0x44>
    610e:	8b 45 f4             	mov    -0xc(%rbp),%eax
    6111:	48 8b 55 f8          	mov    -0x8(%rbp),%rdx
    6115:	89 c1                	mov    %eax,%ecx
    6117:	48 d3 e2             	shl    %cl,%rdx
    611a:	48 89 d0             	mov    %rdx,%rax
    611d:	eb 04                	jmp    6123 <safe_lshift_func_uint64_t_u_s+0x48>
    611f:	48 8b 45 f8          	mov    -0x8(%rbp),%rax
    6123:	5d                   	pop    %rbp
    6124:	c3                   	retq   

0000000000006125 <safe_lshift_func_uint64_t_u_u>:
    6125:	f3 0f 1e fa          	endbr64 
    6129:	55                   	push   %rbp
    612a:	48 89 e5             	mov    %rsp,%rbp
    612d:	48 89 7d f8          	mov    %rdi,-0x8(%rbp)
    6131:	89 75 f4             	mov    %esi,-0xc(%rbp)
    6134:	83 7d f4 1f          	cmpl   $0x1f,-0xc(%rbp)
    6138:	77 29                	ja     6163 <safe_lshift_func_uint64_t_u_u+0x3e>
    613a:	8b 45 f4             	mov    -0xc(%rbp),%eax
    613d:	48 c7 c2 ff ff ff ff 	mov    $0xffffffffffffffff,%rdx
    6144:	89 c1                	mov    %eax,%ecx
    6146:	48 d3 ea             	shr    %cl,%rdx
    6149:	48 89 d0             	mov    %rdx,%rax
    614c:	48 39 45 f8          	cmp    %rax,-0x8(%rbp)
    6150:	77 11                	ja     6163 <safe_lshift_func_uint64_t_u_u+0x3e>
    6152:	8b 45 f4             	mov    -0xc(%rbp),%eax
    6155:	48 8b 55 f8          	mov    -0x8(%rbp),%rdx
    6159:	89 c1                	mov    %eax,%ecx
    615b:	48 d3 e2             	shl    %cl,%rdx
    615e:	48 89 d0             	mov    %rdx,%rax
    6161:	eb 04                	jmp    6167 <safe_lshift_func_uint64_t_u_u+0x42>
    6163:	48 8b 45 f8          	mov    -0x8(%rbp),%rax
    6167:	5d                   	pop    %rbp
    6168:	c3                   	retq   

0000000000006169 <safe_rshift_func_uint64_t_u_s>:
    6169:	f3 0f 1e fa          	endbr64 
    616d:	55                   	push   %rbp
    616e:	48 89 e5             	mov    %rsp,%rbp
    6171:	48 89 7d f8          	mov    %rdi,-0x8(%rbp)
    6175:	89 75 f4             	mov    %esi,-0xc(%rbp)
    6178:	83 7d f4 00          	cmpl   $0x0,-0xc(%rbp)
    617c:	78 17                	js     6195 <safe_rshift_func_uint64_t_u_s+0x2c>
    617e:	83 7d f4 1f          	cmpl   $0x1f,-0xc(%rbp)
    6182:	7f 11                	jg     6195 <safe_rshift_func_uint64_t_u_s+0x2c>
    6184:	8b 45 f4             	mov    -0xc(%rbp),%eax
    6187:	48 8b 55 f8          	mov    -0x8(%rbp),%rdx
    618b:	89 c1                	mov    %eax,%ecx
    618d:	48 d3 ea             	shr    %cl,%rdx
    6190:	48 89 d0             	mov    %rdx,%rax
    6193:	eb 04                	jmp    6199 <safe_rshift_func_uint64_t_u_s+0x30>
    6195:	48 8b 45 f8          	mov    -0x8(%rbp),%rax
    6199:	5d                   	pop    %rbp
    619a:	c3                   	retq   

000000000000619b <safe_rshift_func_uint64_t_u_u>:
    619b:	f3 0f 1e fa          	endbr64 
    619f:	55                   	push   %rbp
    61a0:	48 89 e5             	mov    %rsp,%rbp
    61a3:	48 89 7d f8          	mov    %rdi,-0x8(%rbp)
    61a7:	89 75 f4             	mov    %esi,-0xc(%rbp)
    61aa:	83 7d f4 1f          	cmpl   $0x1f,-0xc(%rbp)
    61ae:	77 11                	ja     61c1 <safe_rshift_func_uint64_t_u_u+0x26>
    61b0:	8b 45 f4             	mov    -0xc(%rbp),%eax
    61b3:	48 8b 55 f8          	mov    -0x8(%rbp),%rdx
    61b7:	89 c1                	mov    %eax,%ecx
    61b9:	48 d3 ea             	shr    %cl,%rdx
    61bc:	48 89 d0             	mov    %rdx,%rax
    61bf:	eb 04                	jmp    61c5 <safe_rshift_func_uint64_t_u_u+0x2a>
    61c1:	48 8b 45 f8          	mov    -0x8(%rbp),%rax
    61c5:	5d                   	pop    %rbp
    61c6:	c3                   	retq   

00000000000061c7 <safe_add_func_float_f_f>:
    61c7:	f3 0f 1e fa          	endbr64 
    61cb:	55                   	push   %rbp
    61cc:	48 89 e5             	mov    %rsp,%rbp
    61cf:	f3 0f 11 45 fc       	movss  %xmm0,-0x4(%rbp)
    61d4:	f3 0f 11 4d f8       	movss  %xmm1,-0x8(%rbp)
    61d9:	f3 0f 10 4d fc       	movss  -0x4(%rbp),%xmm1
    61de:	f3 0f 10 05 92 06 01 	movss  0x10692(%rip),%xmm0        # 16878 <l_2061.4547+0x1f8>
    61e5:	00 
    61e6:	f3 0f 59 c8          	mulss  %xmm0,%xmm1
    61ea:	f3 0f 10 55 f8       	movss  -0x8(%rbp),%xmm2
    61ef:	f3 0f 10 05 81 06 01 	movss  0x10681(%rip),%xmm0        # 16878 <l_2061.4547+0x1f8>
    61f6:	00 
    61f7:	f3 0f 59 c2          	mulss  %xmm2,%xmm0
    61fb:	f3 0f 58 c1          	addss  %xmm1,%xmm0
    61ff:	f3 0f 10 0d 79 06 01 	movss  0x10679(%rip),%xmm1        # 16880 <l_2061.4547+0x200>
    6206:	00 
    6207:	0f 54 c1             	andps  %xmm1,%xmm0
    620a:	0f 2f 05 7f 06 01 00 	comiss 0x1067f(%rip),%xmm0        # 16890 <l_2061.4547+0x210>
    6211:	76 07                	jbe    621a <safe_add_func_float_f_f+0x53>
    6213:	f3 0f 10 45 fc       	movss  -0x4(%rbp),%xmm0
    6218:	eb 0a                	jmp    6224 <safe_add_func_float_f_f+0x5d>
    621a:	f3 0f 10 45 fc       	movss  -0x4(%rbp),%xmm0
    621f:	f3 0f 58 45 f8       	addss  -0x8(%rbp),%xmm0
    6224:	5d                   	pop    %rbp
    6225:	c3                   	retq   

0000000000006226 <safe_sub_func_float_f_f>:
    6226:	f3 0f 1e fa          	endbr64 
    622a:	55                   	push   %rbp
    622b:	48 89 e5             	mov    %rsp,%rbp
    622e:	f3 0f 11 45 fc       	movss  %xmm0,-0x4(%rbp)
    6233:	f3 0f 11 4d f8       	movss  %xmm1,-0x8(%rbp)
    6238:	f3 0f 10 4d fc       	movss  -0x4(%rbp),%xmm1
    623d:	f3 0f 10 05 33 06 01 	movss  0x10633(%rip),%xmm0        # 16878 <l_2061.4547+0x1f8>
    6244:	00 
    6245:	f3 0f 59 c1          	mulss  %xmm1,%xmm0
    6249:	f3 0f 10 55 f8       	movss  -0x8(%rbp),%xmm2
    624e:	f3 0f 10 0d 22 06 01 	movss  0x10622(%rip),%xmm1        # 16878 <l_2061.4547+0x1f8>
    6255:	00 
    6256:	f3 0f 59 ca          	mulss  %xmm2,%xmm1
    625a:	f3 0f 5c c1          	subss  %xmm1,%xmm0
    625e:	f3 0f 10 0d 1a 06 01 	movss  0x1061a(%rip),%xmm1        # 16880 <l_2061.4547+0x200>
    6265:	00 
    6266:	0f 54 c1             	andps  %xmm1,%xmm0
    6269:	0f 2f 05 20 06 01 00 	comiss 0x10620(%rip),%xmm0        # 16890 <l_2061.4547+0x210>
    6270:	76 07                	jbe    6279 <safe_sub_func_float_f_f+0x53>
    6272:	f3 0f 10 45 fc       	movss  -0x4(%rbp),%xmm0
    6277:	eb 0a                	jmp    6283 <safe_sub_func_float_f_f+0x5d>
    6279:	f3 0f 10 45 fc       	movss  -0x4(%rbp),%xmm0
    627e:	f3 0f 5c 45 f8       	subss  -0x8(%rbp),%xmm0
    6283:	5d                   	pop    %rbp
    6284:	c3                   	retq   

0000000000006285 <safe_mul_func_float_f_f>:
    6285:	f3 0f 1e fa          	endbr64 
    6289:	55                   	push   %rbp
    628a:	48 89 e5             	mov    %rsp,%rbp
    628d:	f3 0f 11 45 fc       	movss  %xmm0,-0x4(%rbp)
    6292:	f3 0f 11 4d f8       	movss  %xmm1,-0x8(%rbp)
    6297:	f3 0f 10 4d fc       	movss  -0x4(%rbp),%xmm1
    629c:	f3 0f 10 05 f0 05 01 	movss  0x105f0(%rip),%xmm0        # 16894 <l_2061.4547+0x214>
    62a3:	00 
    62a4:	f3 0f 59 c8          	mulss  %xmm0,%xmm1
    62a8:	f3 0f 10 55 f8       	movss  -0x8(%rbp),%xmm2
    62ad:	f3 0f 10 05 e3 05 01 	movss  0x105e3(%rip),%xmm0        # 16898 <l_2061.4547+0x218>
    62b4:	00 
    62b5:	f3 0f 59 c2          	mulss  %xmm2,%xmm0
    62b9:	f3 0f 59 c1          	mulss  %xmm1,%xmm0
    62bd:	f3 0f 10 0d bb 05 01 	movss  0x105bb(%rip),%xmm1        # 16880 <l_2061.4547+0x200>
    62c4:	00 
    62c5:	0f 54 c1             	andps  %xmm1,%xmm0
    62c8:	0f 2f 05 cd 05 01 00 	comiss 0x105cd(%rip),%xmm0        # 1689c <l_2061.4547+0x21c>
    62cf:	76 07                	jbe    62d8 <safe_mul_func_float_f_f+0x53>
    62d1:	f3 0f 10 45 fc       	movss  -0x4(%rbp),%xmm0
    62d6:	eb 0a                	jmp    62e2 <safe_mul_func_float_f_f+0x5d>
    62d8:	f3 0f 10 45 fc       	movss  -0x4(%rbp),%xmm0
    62dd:	f3 0f 59 45 f8       	mulss  -0x8(%rbp),%xmm0
    62e2:	5d                   	pop    %rbp
    62e3:	c3                   	retq   

00000000000062e4 <safe_div_func_float_f_f>:
    62e4:	f3 0f 1e fa          	endbr64 
    62e8:	55                   	push   %rbp
    62e9:	48 89 e5             	mov    %rsp,%rbp
    62ec:	f3 0f 11 45 fc       	movss  %xmm0,-0x4(%rbp)
    62f1:	f3 0f 11 4d f8       	movss  %xmm1,-0x8(%rbp)
    62f6:	f3 0f 10 45 f8       	movss  -0x8(%rbp),%xmm0
    62fb:	f3 0f 10 0d 7d 05 01 	movss  0x1057d(%rip),%xmm1        # 16880 <l_2061.4547+0x200>
    6302:	00 
    6303:	0f 54 c8             	andps  %xmm0,%xmm1
    6306:	f3 0f 10 05 92 05 01 	movss  0x10592(%rip),%xmm0        # 168a0 <l_2061.4547+0x220>
    630d:	00 
    630e:	0f 2f c1             	comiss %xmm1,%xmm0
    6311:	0f 97 c0             	seta   %al
    6314:	83 f0 01             	xor    $0x1,%eax
    6317:	84 c0                	test   %al,%al
    6319:	75 56                	jne    6371 <safe_div_func_float_f_f+0x8d>
    631b:	66 0f ef c0          	pxor   %xmm0,%xmm0
    631f:	0f 2e 45 f8          	ucomiss -0x8(%rbp),%xmm0
    6323:	7a 0a                	jp     632f <safe_div_func_float_f_f+0x4b>
    6325:	66 0f ef c0          	pxor   %xmm0,%xmm0
    6329:	0f 2e 45 f8          	ucomiss -0x8(%rbp),%xmm0
    632d:	74 4e                	je     637d <safe_div_func_float_f_f+0x99>
    632f:	f3 0f 10 4d fc       	movss  -0x4(%rbp),%xmm1
    6334:	f3 0f 10 05 68 05 01 	movss  0x10568(%rip),%xmm0        # 168a4 <l_2061.4547+0x224>
    633b:	00 
    633c:	f3 0f 59 c1          	mulss  %xmm1,%xmm0
    6340:	f3 0f 10 55 f8       	movss  -0x8(%rbp),%xmm2
    6345:	f3 0f 10 0d 5b 05 01 	movss  0x1055b(%rip),%xmm1        # 168a8 <l_2061.4547+0x228>
    634c:	00 
    634d:	f3 0f 59 ca          	mulss  %xmm2,%xmm1
    6351:	f3 0f 5e c1          	divss  %xmm1,%xmm0
    6355:	f3 0f 10 0d 23 05 01 	movss  0x10523(%rip),%xmm1        # 16880 <l_2061.4547+0x200>
    635c:	00 
    635d:	0f 54 c1             	andps  %xmm1,%xmm0
    6360:	0f 2f 05 45 05 01 00 	comiss 0x10545(%rip),%xmm0        # 168ac <l_2061.4547+0x22c>
    6367:	0f 97 c0             	seta   %al
    636a:	83 f0 01             	xor    $0x1,%eax
    636d:	84 c0                	test   %al,%al
    636f:	74 0c                	je     637d <safe_div_func_float_f_f+0x99>
    6371:	f3 0f 10 45 fc       	movss  -0x4(%rbp),%xmm0
    6376:	f3 0f 5e 45 f8       	divss  -0x8(%rbp),%xmm0
    637b:	eb 05                	jmp    6382 <safe_div_func_float_f_f+0x9e>
    637d:	f3 0f 10 45 fc       	movss  -0x4(%rbp),%xmm0
    6382:	5d                   	pop    %rbp
    6383:	c3                   	retq   

0000000000006384 <safe_add_func_double_f_f>:
    6384:	f3 0f 1e fa          	endbr64 
    6388:	55                   	push   %rbp
    6389:	48 89 e5             	mov    %rsp,%rbp
    638c:	f2 0f 11 45 f8       	movsd  %xmm0,-0x8(%rbp)
    6391:	f2 0f 11 4d f0       	movsd  %xmm1,-0x10(%rbp)
    6396:	f2 0f 10 4d f8       	movsd  -0x8(%rbp),%xmm1
    639b:	f2 0f 10 05 0d 05 01 	movsd  0x1050d(%rip),%xmm0        # 168b0 <l_2061.4547+0x230>
    63a2:	00 
    63a3:	f2 0f 59 c8          	mulsd  %xmm0,%xmm1
    63a7:	f2 0f 10 55 f0       	movsd  -0x10(%rbp),%xmm2
    63ac:	f2 0f 10 05 fc 04 01 	movsd  0x104fc(%rip),%xmm0        # 168b0 <l_2061.4547+0x230>
    63b3:	00 
    63b4:	f2 0f 59 c2          	mulsd  %xmm2,%xmm0
    63b8:	f2 0f 58 c1          	addsd  %xmm1,%xmm0
    63bc:	f3 0f 7e 0d fc 04 01 	movq   0x104fc(%rip),%xmm1        # 168c0 <l_2061.4547+0x240>
    63c3:	00 
    63c4:	66 0f 54 c1          	andpd  %xmm1,%xmm0
    63c8:	66 0f 2f 05 00 05 01 	comisd 0x10500(%rip),%xmm0        # 168d0 <l_2061.4547+0x250>
    63cf:	00 
    63d0:	76 07                	jbe    63d9 <safe_add_func_double_f_f+0x55>
    63d2:	f2 0f 10 45 f8       	movsd  -0x8(%rbp),%xmm0
    63d7:	eb 0a                	jmp    63e3 <safe_add_func_double_f_f+0x5f>
    63d9:	f2 0f 10 45 f8       	movsd  -0x8(%rbp),%xmm0
    63de:	f2 0f 58 45 f0       	addsd  -0x10(%rbp),%xmm0
    63e3:	5d                   	pop    %rbp
    63e4:	c3                   	retq   

00000000000063e5 <safe_sub_func_double_f_f>:
    63e5:	f3 0f 1e fa          	endbr64 
    63e9:	55                   	push   %rbp
    63ea:	48 89 e5             	mov    %rsp,%rbp
    63ed:	f2 0f 11 45 f8       	movsd  %xmm0,-0x8(%rbp)
    63f2:	f2 0f 11 4d f0       	movsd  %xmm1,-0x10(%rbp)
    63f7:	f2 0f 10 4d f8       	movsd  -0x8(%rbp),%xmm1
    63fc:	f2 0f 10 05 ac 04 01 	movsd  0x104ac(%rip),%xmm0        # 168b0 <l_2061.4547+0x230>
    6403:	00 
    6404:	f2 0f 59 c1          	mulsd  %xmm1,%xmm0
    6408:	f2 0f 10 55 f0       	movsd  -0x10(%rbp),%xmm2
    640d:	f2 0f 10 0d 9b 04 01 	movsd  0x1049b(%rip),%xmm1        # 168b0 <l_2061.4547+0x230>
    6414:	00 
    6415:	f2 0f 59 ca          	mulsd  %xmm2,%xmm1
    6419:	f2 0f 5c c1          	subsd  %xmm1,%xmm0
    641d:	f3 0f 7e 0d 9b 04 01 	movq   0x1049b(%rip),%xmm1        # 168c0 <l_2061.4547+0x240>
    6424:	00 
    6425:	66 0f 54 c1          	andpd  %xmm1,%xmm0
    6429:	66 0f 2f 05 9f 04 01 	comisd 0x1049f(%rip),%xmm0        # 168d0 <l_2061.4547+0x250>
    6430:	00 
    6431:	76 07                	jbe    643a <safe_sub_func_double_f_f+0x55>
    6433:	f2 0f 10 45 f8       	movsd  -0x8(%rbp),%xmm0
    6438:	eb 0a                	jmp    6444 <safe_sub_func_double_f_f+0x5f>
    643a:	f2 0f 10 45 f8       	movsd  -0x8(%rbp),%xmm0
    643f:	f2 0f 5c 45 f0       	subsd  -0x10(%rbp),%xmm0
    6444:	5d                   	pop    %rbp
    6445:	c3                   	retq   

0000000000006446 <safe_mul_func_double_f_f>:
    6446:	f3 0f 1e fa          	endbr64 
    644a:	55                   	push   %rbp
    644b:	48 89 e5             	mov    %rsp,%rbp
    644e:	f2 0f 11 45 f8       	movsd  %xmm0,-0x8(%rbp)
    6453:	f2 0f 11 4d f0       	movsd  %xmm1,-0x10(%rbp)
    6458:	f2 0f 10 4d f8       	movsd  -0x8(%rbp),%xmm1
    645d:	f2 0f 10 05 73 04 01 	movsd  0x10473(%rip),%xmm0        # 168d8 <l_2061.4547+0x258>
    6464:	00 
    6465:	f2 0f 59 c8          	mulsd  %xmm0,%xmm1
    6469:	f2 0f 10 55 f0       	movsd  -0x10(%rbp),%xmm2
    646e:	f2 0f 10 05 6a 04 01 	movsd  0x1046a(%rip),%xmm0        # 168e0 <l_2061.4547+0x260>
    6475:	00 
    6476:	f2 0f 59 c2          	mulsd  %xmm2,%xmm0
    647a:	f2 0f 59 c1          	mulsd  %xmm1,%xmm0
    647e:	f3 0f 7e 0d 3a 04 01 	movq   0x1043a(%rip),%xmm1        # 168c0 <l_2061.4547+0x240>
    6485:	00 
    6486:	66 0f 54 c1          	andpd  %xmm1,%xmm0
    648a:	66 0f 2f 05 56 04 01 	comisd 0x10456(%rip),%xmm0        # 168e8 <l_2061.4547+0x268>
    6491:	00 
    6492:	76 07                	jbe    649b <safe_mul_func_double_f_f+0x55>
    6494:	f2 0f 10 45 f8       	movsd  -0x8(%rbp),%xmm0
    6499:	eb 0a                	jmp    64a5 <safe_mul_func_double_f_f+0x5f>
    649b:	f2 0f 10 45 f8       	movsd  -0x8(%rbp),%xmm0
    64a0:	f2 0f 59 45 f0       	mulsd  -0x10(%rbp),%xmm0
    64a5:	5d                   	pop    %rbp
    64a6:	c3                   	retq   

00000000000064a7 <safe_div_func_double_f_f>:
    64a7:	f3 0f 1e fa          	endbr64 
    64ab:	55                   	push   %rbp
    64ac:	48 89 e5             	mov    %rsp,%rbp
    64af:	f2 0f 11 45 f8       	movsd  %xmm0,-0x8(%rbp)
    64b4:	f2 0f 11 4d f0       	movsd  %xmm1,-0x10(%rbp)
    64b9:	f2 0f 10 45 f0       	movsd  -0x10(%rbp),%xmm0
    64be:	f3 0f 7e 0d fa 03 01 	movq   0x103fa(%rip),%xmm1        # 168c0 <l_2061.4547+0x240>
    64c5:	00 
    64c6:	66 0f 54 c8          	andpd  %xmm0,%xmm1
    64ca:	f2 0f 10 05 1e 04 01 	movsd  0x1041e(%rip),%xmm0        # 168f0 <l_2061.4547+0x270>
    64d1:	00 
    64d2:	66 0f 2f c1          	comisd %xmm1,%xmm0
    64d6:	0f 97 c0             	seta   %al
    64d9:	83 f0 01             	xor    $0x1,%eax
    64dc:	84 c0                	test   %al,%al
    64de:	75 5a                	jne    653a <safe_div_func_double_f_f+0x93>
    64e0:	66 0f ef c0          	pxor   %xmm0,%xmm0
    64e4:	66 0f 2e 45 f0       	ucomisd -0x10(%rbp),%xmm0
    64e9:	7a 0b                	jp     64f6 <safe_div_func_double_f_f+0x4f>
    64eb:	66 0f ef c0          	pxor   %xmm0,%xmm0
    64ef:	66 0f 2e 45 f0       	ucomisd -0x10(%rbp),%xmm0
    64f4:	74 50                	je     6546 <safe_div_func_double_f_f+0x9f>
    64f6:	f2 0f 10 4d f8       	movsd  -0x8(%rbp),%xmm1
    64fb:	f2 0f 10 05 f5 03 01 	movsd  0x103f5(%rip),%xmm0        # 168f8 <l_2061.4547+0x278>
    6502:	00 
    6503:	f2 0f 59 c1          	mulsd  %xmm1,%xmm0
    6507:	f2 0f 10 55 f0       	movsd  -0x10(%rbp),%xmm2
    650c:	f2 0f 10 0d ec 03 01 	movsd  0x103ec(%rip),%xmm1        # 16900 <l_2061.4547+0x280>
    6513:	00 
    6514:	f2 0f 59 ca          	mulsd  %xmm2,%xmm1
    6518:	f2 0f 5e c1          	divsd  %xmm1,%xmm0
    651c:	f3 0f 7e 0d 9c 03 01 	movq   0x1039c(%rip),%xmm1        # 168c0 <l_2061.4547+0x240>
    6523:	00 
    6524:	66 0f 54 c1          	andpd  %xmm1,%xmm0
    6528:	66 0f 2f 05 d8 03 01 	comisd 0x103d8(%rip),%xmm0        # 16908 <l_2061.4547+0x288>
    652f:	00 
    6530:	0f 97 c0             	seta   %al
    6533:	83 f0 01             	xor    $0x1,%eax
    6536:	84 c0                	test   %al,%al
    6538:	74 0c                	je     6546 <safe_div_func_double_f_f+0x9f>
    653a:	f2 0f 10 45 f8       	movsd  -0x8(%rbp),%xmm0
    653f:	f2 0f 5e 45 f0       	divsd  -0x10(%rbp),%xmm0
    6544:	eb 05                	jmp    654b <safe_div_func_double_f_f+0xa4>
    6546:	f2 0f 10 45 f8       	movsd  -0x8(%rbp),%xmm0
    654b:	5d                   	pop    %rbp
    654c:	c3                   	retq   

000000000000654d <safe_convert_func_float_to_int32_t>:
    654d:	f3 0f 1e fa          	endbr64 
    6551:	55                   	push   %rbp
    6552:	48 89 e5             	mov    %rsp,%rbp
    6555:	f3 0f 11 45 fc       	movss  %xmm0,-0x4(%rbp)
    655a:	f3 0f 10 05 ae 03 01 	movss  0x103ae(%rip),%xmm0        # 16910 <l_2061.4547+0x290>
    6561:	00 
    6562:	0f 2f 45 fc          	comiss -0x4(%rbp),%xmm0
    6566:	0f 93 c0             	setae  %al
    6569:	83 f0 01             	xor    $0x1,%eax
    656c:	84 c0                	test   %al,%al
    656e:	74 21                	je     6591 <safe_convert_func_float_to_int32_t+0x44>
    6570:	f3 0f 10 45 fc       	movss  -0x4(%rbp),%xmm0
    6575:	0f 2f 05 98 03 01 00 	comiss 0x10398(%rip),%xmm0        # 16914 <l_2061.4547+0x294>
    657c:	0f 93 c0             	setae  %al
    657f:	83 f0 01             	xor    $0x1,%eax
    6582:	84 c0                	test   %al,%al
    6584:	74 0b                	je     6591 <safe_convert_func_float_to_int32_t+0x44>
    6586:	f3 0f 10 45 fc       	movss  -0x4(%rbp),%xmm0
    658b:	f3 0f 2c c0          	cvttss2si %xmm0,%eax
    658f:	eb 05                	jmp    6596 <safe_convert_func_float_to_int32_t+0x49>
    6591:	b8 ff ff ff 7f       	mov    $0x7fffffff,%eax
    6596:	5d                   	pop    %rbp
    6597:	c3                   	retq   

0000000000006598 <crc32_gentab>:
    6598:	f3 0f 1e fa          	endbr64 
    659c:	55                   	push   %rbp
    659d:	48 89 e5             	mov    %rsp,%rbp
    65a0:	c7 45 fc 20 83 b8 ed 	movl   $0xedb88320,-0x4(%rbp)
    65a7:	c7 45 f4 00 00 00 00 	movl   $0x0,-0xc(%rbp)
    65ae:	eb 51                	jmp    6601 <crc32_gentab+0x69>
    65b0:	8b 45 f4             	mov    -0xc(%rbp),%eax
    65b3:	89 45 f0             	mov    %eax,-0x10(%rbp)
    65b6:	c7 45 f8 08 00 00 00 	movl   $0x8,-0x8(%rbp)
    65bd:	eb 1e                	jmp    65dd <crc32_gentab+0x45>
    65bf:	8b 45 f0             	mov    -0x10(%rbp),%eax
    65c2:	83 e0 01             	and    $0x1,%eax
    65c5:	85 c0                	test   %eax,%eax
    65c7:	74 0d                	je     65d6 <crc32_gentab+0x3e>
    65c9:	8b 45 f0             	mov    -0x10(%rbp),%eax
    65cc:	d1 e8                	shr    %eax
    65ce:	33 45 fc             	xor    -0x4(%rbp),%eax
    65d1:	89 45 f0             	mov    %eax,-0x10(%rbp)
    65d4:	eb 03                	jmp    65d9 <crc32_gentab+0x41>
    65d6:	d1 6d f0             	shrl   -0x10(%rbp)
    65d9:	83 6d f8 01          	subl   $0x1,-0x8(%rbp)
    65dd:	83 7d f8 00          	cmpl   $0x0,-0x8(%rbp)
    65e1:	7f dc                	jg     65bf <crc32_gentab+0x27>
    65e3:	8b 45 f4             	mov    -0xc(%rbp),%eax
    65e6:	48 98                	cltq   
    65e8:	48 8d 0c 85 00 00 00 	lea    0x0(,%rax,4),%rcx
    65ef:	00 
    65f0:	48 8d 15 89 65 01 00 	lea    0x16589(%rip),%rdx        # 1cb80 <crc32_tab>
    65f7:	8b 45 f0             	mov    -0x10(%rbp),%eax
    65fa:	89 04 11             	mov    %eax,(%rcx,%rdx,1)
    65fd:	83 45 f4 01          	addl   $0x1,-0xc(%rbp)
    6601:	81 7d f4 ff 00 00 00 	cmpl   $0xff,-0xc(%rbp)
    6608:	7e a6                	jle    65b0 <crc32_gentab+0x18>
    660a:	90                   	nop
    660b:	90                   	nop
    660c:	5d                   	pop    %rbp
    660d:	c3                   	retq   

000000000000660e <crc32_byte>:
    660e:	f3 0f 1e fa          	endbr64 
    6612:	55                   	push   %rbp
    6613:	48 89 e5             	mov    %rsp,%rbp
    6616:	89 f8                	mov    %edi,%eax
    6618:	88 45 fc             	mov    %al,-0x4(%rbp)
    661b:	8b 05 ff 39 01 00    	mov    0x139ff(%rip),%eax        # 1a020 <crc32_context>
    6621:	c1 e8 08             	shr    $0x8,%eax
    6624:	89 c1                	mov    %eax,%ecx
    6626:	0f b6 55 fc          	movzbl -0x4(%rbp),%edx
    662a:	8b 05 f0 39 01 00    	mov    0x139f0(%rip),%eax        # 1a020 <crc32_context>
    6630:	31 d0                	xor    %edx,%eax
    6632:	0f b6 c0             	movzbl %al,%eax
    6635:	89 c0                	mov    %eax,%eax
    6637:	48 8d 14 85 00 00 00 	lea    0x0(,%rax,4),%rdx
    663e:	00 
    663f:	48 8d 05 3a 65 01 00 	lea    0x1653a(%rip),%rax        # 1cb80 <crc32_tab>
    6646:	8b 04 02             	mov    (%rdx,%rax,1),%eax
    6649:	31 c8                	xor    %ecx,%eax
    664b:	89 05 cf 39 01 00    	mov    %eax,0x139cf(%rip)        # 1a020 <crc32_context>
    6651:	90                   	nop
    6652:	5d                   	pop    %rbp
    6653:	c3                   	retq   

0000000000006654 <crc32_8bytes>:
    6654:	f3 0f 1e fa          	endbr64 
    6658:	55                   	push   %rbp
    6659:	48 89 e5             	mov    %rsp,%rbp
    665c:	48 83 ec 08          	sub    $0x8,%rsp
    6660:	48 89 7d f8          	mov    %rdi,-0x8(%rbp)
    6664:	48 8b 45 f8          	mov    -0x8(%rbp),%rax
    6668:	0f b6 c0             	movzbl %al,%eax
    666b:	89 c7                	mov    %eax,%edi
    666d:	e8 9c ff ff ff       	callq  660e <crc32_byte>
    6672:	48 8b 45 f8          	mov    -0x8(%rbp),%rax
    6676:	48 c1 e8 08          	shr    $0x8,%rax
    667a:	0f b6 c0             	movzbl %al,%eax
    667d:	89 c7                	mov    %eax,%edi
    667f:	e8 8a ff ff ff       	callq  660e <crc32_byte>
    6684:	48 8b 45 f8          	mov    -0x8(%rbp),%rax
    6688:	48 c1 e8 10          	shr    $0x10,%rax
    668c:	0f b6 c0             	movzbl %al,%eax
    668f:	89 c7                	mov    %eax,%edi
    6691:	e8 78 ff ff ff       	callq  660e <crc32_byte>
    6696:	48 8b 45 f8          	mov    -0x8(%rbp),%rax
    669a:	48 c1 e8 18          	shr    $0x18,%rax
    669e:	0f b6 c0             	movzbl %al,%eax
    66a1:	89 c7                	mov    %eax,%edi
    66a3:	e8 66 ff ff ff       	callq  660e <crc32_byte>
    66a8:	48 8b 45 f8          	mov    -0x8(%rbp),%rax
    66ac:	48 c1 e8 20          	shr    $0x20,%rax
    66b0:	0f b6 c0             	movzbl %al,%eax
    66b3:	89 c7                	mov    %eax,%edi
    66b5:	e8 54 ff ff ff       	callq  660e <crc32_byte>
    66ba:	48 8b 45 f8          	mov    -0x8(%rbp),%rax
    66be:	48 c1 e8 28          	shr    $0x28,%rax
    66c2:	0f b6 c0             	movzbl %al,%eax
    66c5:	89 c7                	mov    %eax,%edi
    66c7:	e8 42 ff ff ff       	callq  660e <crc32_byte>
    66cc:	48 8b 45 f8          	mov    -0x8(%rbp),%rax
    66d0:	48 c1 e8 30          	shr    $0x30,%rax
    66d4:	0f b6 c0             	movzbl %al,%eax
    66d7:	89 c7                	mov    %eax,%edi
    66d9:	e8 30 ff ff ff       	callq  660e <crc32_byte>
    66de:	48 8b 45 f8          	mov    -0x8(%rbp),%rax
    66e2:	48 c1 e8 38          	shr    $0x38,%rax
    66e6:	0f b6 c0             	movzbl %al,%eax
    66e9:	89 c7                	mov    %eax,%edi
    66eb:	e8 1e ff ff ff       	callq  660e <crc32_byte>
    66f0:	90                   	nop
    66f1:	c9                   	leaveq 
    66f2:	c3                   	retq   

00000000000066f3 <transparent_crc>:
    66f3:	f3 0f 1e fa          	endbr64 
    66f7:	55                   	push   %rbp
    66f8:	48 89 e5             	mov    %rsp,%rbp
    66fb:	48 83 ec 20          	sub    $0x20,%rsp
    66ff:	48 89 7d f8          	mov    %rdi,-0x8(%rbp)
    6703:	48 89 75 f0          	mov    %rsi,-0x10(%rbp)
    6707:	89 55 ec             	mov    %edx,-0x14(%rbp)
    670a:	48 8b 45 f8          	mov    -0x8(%rbp),%rax
    670e:	48 89 c7             	mov    %rax,%rdi
    6711:	e8 3e ff ff ff       	callq  6654 <crc32_8bytes>
    6716:	83 7d ec 00          	cmpl   $0x0,-0x14(%rbp)
    671a:	74 22                	je     673e <transparent_crc+0x4b>
    671c:	8b 05 fe 38 01 00    	mov    0x138fe(%rip),%eax        # 1a020 <crc32_context>
    6722:	f7 d0                	not    %eax
    6724:	89 c2                	mov    %eax,%edx
    6726:	48 8b 45 f0          	mov    -0x10(%rbp),%rax
    672a:	48 89 c6             	mov    %rax,%rsi
    672d:	48 8d 3d fc e8 00 00 	lea    0xe8fc(%rip),%rdi        # 15030 <_IO_stdin_used+0x30>
    6734:	b8 00 00 00 00       	mov    $0x0,%eax
    6739:	e8 42 e9 ff ff       	callq  5080 <printf@plt>
    673e:	90                   	nop
    673f:	c9                   	leaveq 
    6740:	c3                   	retq   

0000000000006741 <transparent_crc_bytes>:
    6741:	f3 0f 1e fa          	endbr64 
    6745:	55                   	push   %rbp
    6746:	48 89 e5             	mov    %rsp,%rbp
    6749:	48 83 ec 30          	sub    $0x30,%rsp
    674d:	48 89 7d e8          	mov    %rdi,-0x18(%rbp)
    6751:	89 75 e4             	mov    %esi,-0x1c(%rbp)
    6754:	48 89 55 d8          	mov    %rdx,-0x28(%rbp)
    6758:	89 4d e0             	mov    %ecx,-0x20(%rbp)
    675b:	c7 45 fc 00 00 00 00 	movl   $0x0,-0x4(%rbp)
    6762:	eb 1e                	jmp    6782 <transparent_crc_bytes+0x41>
    6764:	8b 45 fc             	mov    -0x4(%rbp),%eax
    6767:	48 63 d0             	movslq %eax,%rdx
    676a:	48 8b 45 e8          	mov    -0x18(%rbp),%rax
    676e:	48 01 d0             	add    %rdx,%rax
    6771:	0f b6 00             	movzbl (%rax),%eax
    6774:	0f b6 c0             	movzbl %al,%eax
    6777:	89 c7                	mov    %eax,%edi
    6779:	e8 90 fe ff ff       	callq  660e <crc32_byte>
    677e:	83 45 fc 01          	addl   $0x1,-0x4(%rbp)
    6782:	8b 45 fc             	mov    -0x4(%rbp),%eax
    6785:	3b 45 e4             	cmp    -0x1c(%rbp),%eax
    6788:	7c da                	jl     6764 <transparent_crc_bytes+0x23>
    678a:	83 7d e0 00          	cmpl   $0x0,-0x20(%rbp)
    678e:	74 22                	je     67b2 <transparent_crc_bytes+0x71>
    6790:	8b 05 8a 38 01 00    	mov    0x1388a(%rip),%eax        # 1a020 <crc32_context>
    6796:	f7 d0                	not    %eax
    6798:	89 c2                	mov    %eax,%edx
    679a:	48 8b 45 d8          	mov    -0x28(%rbp),%rax
    679e:	48 89 c6             	mov    %rax,%rsi
    67a1:	48 8d 3d 88 e8 00 00 	lea    0xe888(%rip),%rdi        # 15030 <_IO_stdin_used+0x30>
    67a8:	b8 00 00 00 00       	mov    $0x0,%eax
    67ad:	e8 ce e8 ff ff       	callq  5080 <printf@plt>
    67b2:	90                   	nop
    67b3:	c9                   	leaveq 
    67b4:	c3                   	retq   

00000000000067b5 <func_1>:
    67b5:	f3 0f 1e fa          	endbr64 
    67b9:	55                   	push   %rbp
    67ba:	48 89 e5             	mov    %rsp,%rbp
    67bd:	41 56                	push   %r14
    67bf:	41 55                	push   %r13
    67c1:	41 54                	push   %r12
    67c3:	53                   	push   %rbx
    67c4:	48 81 ec a0 0c 00 00 	sub    $0xca0,%rsp
    67cb:	64 48 8b 04 25 28 00 	mov    %fs:0x28,%rax
    67d2:	00 00 
    67d4:	48 89 45 d8          	mov    %rax,-0x28(%rbp)
    67d8:	31 c0                	xor    %eax,%eax
    67da:	c7 85 50 f3 ff ff c5 	movl   $0x9e95d1c5,-0xcb0(%rbp)
    67e1:	d1 95 9e 
    67e4:	48 c7 85 c0 f3 ff ff 	movq   $0x0,-0xc40(%rbp)
    67eb:	00 00 00 00 
    67ef:	48 8d 05 92 67 01 00 	lea    0x16792(%rip),%rax        # 1cf88 <g_21>
    67f6:	48 89 85 c8 f3 ff ff 	mov    %rax,-0xc38(%rbp)
    67fd:	48 c7 85 d0 f3 ff ff 	movq   $0x0,-0xc30(%rbp)
    6804:	00 00 00 00 
    6808:	48 8d 05 17 38 01 00 	lea    0x13817(%rip),%rax        # 1a026 <g_24>
    680f:	48 89 85 a0 f4 ff ff 	mov    %rax,-0xb60(%rbp)
    6816:	48 8d 05 09 38 01 00 	lea    0x13809(%rip),%rax        # 1a026 <g_24>
    681d:	48 89 85 a8 f4 ff ff 	mov    %rax,-0xb58(%rbp)
    6824:	48 8d 05 fb 37 01 00 	lea    0x137fb(%rip),%rax        # 1a026 <g_24>
    682b:	48 89 85 b0 f4 ff ff 	mov    %rax,-0xb50(%rbp)
    6832:	48 8d 05 ed 37 01 00 	lea    0x137ed(%rip),%rax        # 1a026 <g_24>
    6839:	48 89 85 b8 f4 ff ff 	mov    %rax,-0xb48(%rbp)
    6840:	48 8d 05 df 37 01 00 	lea    0x137df(%rip),%rax        # 1a026 <g_24>
    6847:	48 89 85 c0 f4 ff ff 	mov    %rax,-0xb40(%rbp)
    684e:	48 8d 05 d1 37 01 00 	lea    0x137d1(%rip),%rax        # 1a026 <g_24>
    6855:	48 89 85 c8 f4 ff ff 	mov    %rax,-0xb38(%rbp)
    685c:	48 b8 61 8d 99 87 d8 	movabs $0xda24bdd887998d61,%rax
    6863:	bd 24 da 
    6866:	48 89 85 d8 f3 ff ff 	mov    %rax,-0xc28(%rbp)
    686d:	48 8d 85 20 f6 ff ff 	lea    -0x9e0(%rbp),%rax
    6874:	48 8d 15 c5 4b 01 00 	lea    0x14bc5(%rip),%rdx        # 1b440 <g_2786+0x10>
    687b:	b9 3c 00 00 00       	mov    $0x3c,%ecx
    6880:	48 89 c7             	mov    %rax,%rdi
    6883:	48 89 d6             	mov    %rdx,%rsi
    6886:	f3 48 a5             	rep movsq %ds:(%rsi),%es:(%rdi)
    6889:	c6 85 43 f3 ff ff fa 	movb   $0xfa,-0xcbd(%rbp)
    6890:	c6 85 44 f3 ff ff 0a 	movb   $0xa,-0xcbc(%rbp)
    6897:	66 c7 85 46 f3 ff ff 	movw   $0x0,-0xcba(%rbp)
    689e:	00 00 
    68a0:	66 c7 85 48 f3 ff ff 	movw   $0xbe0e,-0xcb8(%rbp)
    68a7:	0e be 
    68a9:	48 8d 05 70 4a 01 00 	lea    0x14a70(%rip),%rax        # 1b320 <g_2636>
    68b0:	48 89 85 e0 f3 ff ff 	mov    %rax,-0xc20(%rbp)
    68b7:	48 8d 05 ca 59 01 00 	lea    0x159ca(%rip),%rax        # 1c288 <g_1911+0x88>
    68be:	48 89 85 a8 f3 ff ff 	mov    %rax,-0xc58(%rbp)
    68c5:	48 8d 05 d4 66 01 00 	lea    0x166d4(%rip),%rax        # 1cfa0 <g_879>
    68cc:	48 89 85 e8 f3 ff ff 	mov    %rax,-0xc18(%rbp)
    68d3:	48 8d 05 36 58 01 00 	lea    0x15836(%rip),%rax        # 1c110 <g_1311+0x50>
    68da:	48 89 85 f0 f3 ff ff 	mov    %rax,-0xc10(%rbp)
    68e1:	66 c7 85 a0 f5 ff ff 	movw   $0x9e3e,-0xa60(%rbp)
    68e8:	3e 9e 
    68ea:	66 c7 85 a2 f5 ff ff 	movw   $0x6,-0xa5e(%rbp)
    68f1:	06 00 
    68f3:	66 c7 85 a4 f5 ff ff 	movw   $0xfff7,-0xa5c(%rbp)
    68fa:	f7 ff 
    68fc:	66 c7 85 a6 f5 ff ff 	movw   $0x9e3e,-0xa5a(%rbp)
    6903:	3e 9e 
    6905:	66 c7 85 a8 f5 ff ff 	movw   $0xfffe,-0xa58(%rbp)
    690c:	fe ff 
    690e:	66 c7 85 aa f5 ff ff 	movw   $0xb34,-0xa56(%rbp)
    6915:	34 0b 
    6917:	66 c7 85 ac f5 ff ff 	movw   $0x874a,-0xa54(%rbp)
    691e:	4a 87 
    6920:	66 c7 85 ae f5 ff ff 	movw   $0xb34,-0xa52(%rbp)
    6927:	34 0b 
    6929:	66 c7 85 b0 f5 ff ff 	movw   $0xfffe,-0xa50(%rbp)
    6930:	fe ff 
    6932:	66 c7 85 b2 f5 ff ff 	movw   $0xe120,-0xa4e(%rbp)
    6939:	20 e1 
    693b:	66 c7 85 b4 f5 ff ff 	movw   $0xfff7,-0xa4c(%rbp)
    6942:	f7 ff 
    6944:	66 c7 85 b6 f5 ff ff 	movw   $0xfff7,-0xa4a(%rbp)
    694b:	f7 ff 
    694d:	66 c7 85 b8 f5 ff ff 	movw   $0xe120,-0xa48(%rbp)
    6954:	20 e1 
    6956:	66 c7 85 ba f5 ff ff 	movw   $0x1,-0xa46(%rbp)
    695d:	01 00 
    695f:	66 c7 85 bc f5 ff ff 	movw   $0xb34,-0xa44(%rbp)
    6966:	34 0b 
    6968:	66 c7 85 be f5 ff ff 	movw   $0x9e3e,-0xa42(%rbp)
    696f:	3e 9e 
    6971:	66 c7 85 c0 f5 ff ff 	movw   $0x1,-0xa40(%rbp)
    6978:	01 00 
    697a:	66 c7 85 c2 f5 ff ff 	movw   $0x3,-0xa3e(%rbp)
    6981:	03 00 
    6983:	66 c7 85 c4 f5 ff ff 	movw   $0x2661,-0xa3c(%rbp)
    698a:	61 26 
    698c:	66 c7 85 c6 f5 ff ff 	movw   $0x9e3e,-0xa3a(%rbp)
    6993:	3e 9e 
    6995:	66 c7 85 c8 f5 ff ff 	movw   $0xffff,-0xa38(%rbp)
    699c:	ff ff 
    699e:	66 c7 85 ca f5 ff ff 	movw   $0xfffe,-0xa36(%rbp)
    69a5:	fe ff 
    69a7:	66 c7 85 cc f5 ff ff 	movw   $0x5d7b,-0xa34(%rbp)
    69ae:	7b 5d 
    69b0:	66 c7 85 ce f5 ff ff 	movw   $0x0,-0xa32(%rbp)
    69b7:	00 00 
    69b9:	66 c7 85 d0 f5 ff ff 	movw   $0x7796,-0xa30(%rbp)
    69c0:	96 77 
    69c2:	66 c7 85 d2 f5 ff ff 	movw   $0xffff,-0xa2e(%rbp)
    69c9:	ff ff 
    69cb:	66 c7 85 d4 f5 ff ff 	movw   $0xfff7,-0xa2c(%rbp)
    69d2:	f7 ff 
    69d4:	66 c7 85 d6 f5 ff ff 	movw   $0x1,-0xa2a(%rbp)
    69db:	01 00 
    69dd:	66 c7 85 d8 f5 ff ff 	movw   $0xffff,-0xa28(%rbp)
    69e4:	ff ff 
    69e6:	66 c7 85 da f5 ff ff 	movw   $0x1,-0xa26(%rbp)
    69ed:	01 00 
    69ef:	66 c7 85 dc f5 ff ff 	movw   $0x6,-0xa24(%rbp)
    69f6:	06 00 
    69f8:	66 c7 85 de f5 ff ff 	movw   $0x1,-0xa22(%rbp)
    69ff:	01 00 
    6a01:	66 c7 85 e0 f5 ff ff 	movw   $0x1,-0xa20(%rbp)
    6a08:	01 00 
    6a0a:	66 c7 85 e2 f5 ff ff 	movw   $0x1,-0xa1e(%rbp)
    6a11:	01 00 
    6a13:	66 c7 85 e4 f5 ff ff 	movw   $0x6,-0xa1c(%rbp)
    6a1a:	06 00 
    6a1c:	66 c7 85 e6 f5 ff ff 	movw   $0x1,-0xa1a(%rbp)
    6a23:	01 00 
    6a25:	66 c7 85 e8 f5 ff ff 	movw   $0x5d7b,-0xa18(%rbp)
    6a2c:	7b 5d 
    6a2e:	66 c7 85 ea f5 ff ff 	movw   $0x5d7b,-0xa16(%rbp)
    6a35:	7b 5d 
    6a37:	66 c7 85 ec f5 ff ff 	movw   $0x1,-0xa14(%rbp)
    6a3e:	01 00 
    6a40:	66 c7 85 ee f5 ff ff 	movw   $0x6,-0xa12(%rbp)
    6a47:	06 00 
    6a49:	66 c7 85 f0 f5 ff ff 	movw   $0xfffe,-0xa10(%rbp)
    6a50:	fe ff 
    6a52:	66 c7 85 f2 f5 ff ff 	movw   $0xffff,-0xa0e(%rbp)
    6a59:	ff ff 
    6a5b:	66 c7 85 f4 f5 ff ff 	movw   $0xfff8,-0xa0c(%rbp)
    6a62:	f8 ff 
    6a64:	66 c7 85 f6 f5 ff ff 	movw   $0x9e3e,-0xa0a(%rbp)
    6a6b:	3e 9e 
    6a6d:	66 c7 85 f8 f5 ff ff 	movw   $0x6,-0xa08(%rbp)
    6a74:	06 00 
    6a76:	66 c7 85 fa f5 ff ff 	movw   $0xc321,-0xa06(%rbp)
    6a7d:	21 c3 
    6a7f:	66 c7 85 fc f5 ff ff 	movw   $0xfff7,-0xa04(%rbp)
    6a86:	f7 ff 
    6a88:	66 c7 85 fe f5 ff ff 	movw   $0xe120,-0xa02(%rbp)
    6a8f:	20 e1 
    6a91:	66 c7 85 00 f6 ff ff 	movw   $0xfffe,-0xa00(%rbp)
    6a98:	fe ff 
    6a9a:	66 c7 85 02 f6 ff ff 	movw   $0x1,-0x9fe(%rbp)
    6aa1:	01 00 
    6aa3:	66 c7 85 04 f6 ff ff 	movw   $0xfff6,-0x9fc(%rbp)
    6aaa:	f6 ff 
    6aac:	66 c7 85 06 f6 ff ff 	movw   $0xfff7,-0x9fa(%rbp)
    6ab3:	f7 ff 
    6ab5:	66 c7 85 08 f6 ff ff 	movw   $0xb34,-0x9f8(%rbp)
    6abc:	34 0b 
    6abe:	66 c7 85 0a f6 ff ff 	movw   $0x7796,-0x9f6(%rbp)
    6ac5:	96 77 
    6ac7:	66 c7 85 0c f6 ff ff 	movw   $0x3,-0x9f4(%rbp)
    6ace:	03 00 
    6ad0:	66 c7 85 0e f6 ff ff 	movw   $0x7796,-0x9f2(%rbp)
    6ad7:	96 77 
    6ad9:	66 c7 85 10 f6 ff ff 	movw   $0x1,-0x9f0(%rbp)
    6ae0:	01 00 
    6ae2:	66 c7 85 12 f6 ff ff 	movw   $0xe120,-0x9ee(%rbp)
    6ae9:	20 e1 
    6aeb:	66 c7 85 14 f6 ff ff 	movw   $0xffff,-0x9ec(%rbp)
    6af2:	ff ff 
    6af4:	66 c7 85 16 f6 ff ff 	movw   $0xe120,-0x9ea(%rbp)
    6afb:	20 e1 
    6afd:	66 c7 85 18 f6 ff ff 	movw   $0x1,-0x9e8(%rbp)
    6b04:	01 00 
    6b06:	66 c7 85 1a f6 ff ff 	movw   $0x7796,-0x9e6(%rbp)
    6b0d:	96 77 
    6b0f:	66 c7 85 1c f6 ff ff 	movw   $0x3,-0x9e4(%rbp)
    6b16:	03 00 
    6b18:	c7 85 54 f3 ff ff f8 	movl   $0x2f5820f8,-0xcac(%rbp)
    6b1f:	20 58 2f 
    6b22:	c7 85 70 f4 ff ff 6d 	movl   $0x1601b26d,-0xb90(%rbp)
    6b29:	b2 01 16 
    6b2c:	c7 85 74 f4 ff ff ee 	movl   $0xe7bfc7ee,-0xb8c(%rbp)
    6b33:	c7 bf e7 
    6b36:	c7 85 78 f4 ff ff 73 	movl   $0xb7acda73,-0xb88(%rbp)
    6b3d:	da ac b7 
    6b40:	c7 85 7c f4 ff ff ee 	movl   $0xe7bfc7ee,-0xb84(%rbp)
    6b47:	c7 bf e7 
    6b4a:	c7 85 80 f4 ff ff 6d 	movl   $0x1601b26d,-0xb80(%rbp)
    6b51:	b2 01 16 
    6b54:	c7 85 84 f4 ff ff 6d 	movl   $0x1601b26d,-0xb7c(%rbp)
    6b5b:	b2 01 16 
    6b5e:	c7 85 88 f4 ff ff ee 	movl   $0xe7bfc7ee,-0xb78(%rbp)
    6b65:	c7 bf e7 
    6b68:	c7 85 8c f4 ff ff 73 	movl   $0xb7acda73,-0xb74(%rbp)
    6b6f:	da ac b7 
    6b72:	c7 85 90 f4 ff ff ee 	movl   $0xe7bfc7ee,-0xb70(%rbp)
    6b79:	c7 bf e7 
    6b7c:	c7 85 94 f4 ff ff 6d 	movl   $0x1601b26d,-0xb6c(%rbp)
    6b83:	b2 01 16 
    6b86:	c6 85 42 f3 ff ff 00 	movb   $0x0,-0xcbe(%rbp)
    6b8d:	0f b6 9d 43 f3 ff ff 	movzbl -0xcbd(%rbp),%ebx
    6b94:	66 0f be 85 44 f3 ff 	movsbw -0xcbc(%rbp),%ax
    6b9b:	ff 
    6b9c:	44 0f b7 e0          	movzwl %ax,%r12d
    6ba0:	0f b7 85 46 f3 ff ff 	movzwl -0xcba(%rbp),%eax
    6ba7:	44 0f bf e8          	movswl %ax,%r13d
    6bab:	0f be 95 44 f3 ff ff 	movsbl -0xcbc(%rbp),%edx
    6bb2:	0f b6 85 43 f3 ff ff 	movzbl -0xcbd(%rbp),%eax
    6bb9:	8b 0d 7d 46 01 00    	mov    0x1467d(%rip),%ecx        # 1b23c <g_2356+0xc>
    6bbf:	81 e1 ff ff ff 3f    	and    $0x3fffffff,%ecx
    6bc5:	89 ce                	mov    %ecx,%esi
    6bc7:	48 8b 0d e2 54 01 00 	mov    0x154e2(%rip),%rcx        # 1c0b0 <g_1312>
    6bce:	66 c7 01 01 00       	movw   $0x1,(%rcx)
    6bd3:	89 d1                	mov    %edx,%ecx
    6bd5:	89 c2                	mov    %eax,%edx
    6bd7:	bf 01 00 00 00       	mov    $0x1,%edi
    6bdc:	e8 d1 1b 00 00       	callq  87b2 <func_11>
    6be1:	0f b6 c0             	movzbl %al,%eax
    6be4:	44 89 ee             	mov    %r13d,%esi
    6be7:	89 c7                	mov    %eax,%edi
    6be9:	e8 9f f0 ff ff       	callq  5c8d <safe_rshift_func_uint8_t_u_s>
    6bee:	44 89 e6             	mov    %r12d,%esi
    6bf1:	bf 20 1a 00 00       	mov    $0x1a20,%edi
    6bf6:	e8 93 f1 ff ff       	callq  5d8e <safe_div_func_uint16_t_u_u>
    6bfb:	0f b7 05 22 34 01 00 	movzwl 0x13422(%rip),%eax        # 1a024 <g_6>
    6c02:	48 0f bf c0          	movswq %ax,%rax
    6c06:	48 be aa 43 ac 38 87 	movabs $0xb97fbf8738ac43aa,%rsi
    6c0d:	bf 7f b9 
    6c10:	48 89 c7             	mov    %rax,%rdi
    6c13:	e8 33 f4 ff ff       	callq  604b <safe_sub_func_uint64_t_u_u>
    6c18:	83 f0 32             	xor    $0x32,%eax
    6c1b:	0f b6 c0             	movzbl %al,%eax
    6c1e:	89 de                	mov    %ebx,%esi
    6c20:	89 c7                	mov    %eax,%edi
    6c22:	e8 87 ef ff ff       	callq  5bae <safe_mod_func_uint8_t_u_u>
    6c27:	0f b7 85 48 f3 ff ff 	movzwl -0xcb8(%rbp),%eax
    6c2e:	66 3d 6e 50          	cmp    $0x506e,%ax
    6c32:	0f 9f c0             	setg   %al
    6c35:	0f b6 d0             	movzbl %al,%edx
    6c38:	48 8b 85 e0 f3 ff ff 	mov    -0xc20(%rbp),%rax
    6c3f:	8b 00                	mov    (%rax),%eax
    6c41:	21 c2                	and    %eax,%edx
    6c43:	48 8b 85 e0 f3 ff ff 	mov    -0xc20(%rbp),%rax
    6c4a:	89 10                	mov    %edx,(%rax)
    6c4c:	66 c7 05 d1 33 01 00 	movw   $0xffe4,0x133d1(%rip)        # 1a026 <g_24>
    6c53:	e4 ff 
    6c55:	e9 48 12 00 00       	jmpq   7ea2 <func_1+0x16ed>
    6c5a:	48 8d 05 27 58 01 00 	lea    0x15827(%rip),%rax        # 1c488 <g_2008+0x1c8>
    6c61:	48 89 85 40 f4 ff ff 	mov    %rax,-0xbc0(%rbp)
    6c68:	c7 85 9c f3 ff ff fa 	movl   $0xfffffffa,-0xc64(%rbp)
    6c6f:	ff ff ff 
    6c72:	48 c7 05 73 42 01 00 	movq   $0x6,0x14273(%rip)        # 1aef0 <g_1709>
    6c79:	06 00 00 00 
    6c7d:	e9 ff 11 00 00       	jmpq   7e81 <func_1+0x16cc>
    6c82:	48 8d 05 03 63 01 00 	lea    0x16303(%rip),%rax        # 1cf8c <g_73>
    6c89:	48 89 85 48 f4 ff ff 	mov    %rax,-0xbb8(%rbp)
    6c90:	c7 85 a0 f3 ff ff aa 	movl   $0xd6cc06aa,-0xc60(%rbp)
    6c97:	06 cc d6 
    6c9a:	c7 85 58 f3 ff ff 2a 	movl   $0x5547d62a,-0xca8(%rbp)
    6ca1:	d6 47 55 
    6ca4:	66 c7 85 48 f3 ff ff 	movw   $0x2,-0xcb8(%rbp)
    6cab:	02 00 
    6cad:	e9 ac 11 00 00       	jmpq   7e5e <func_1+0x16a9>
    6cb2:	c6 85 41 f3 ff ff 11 	movb   $0x11,-0xcbf(%rbp)
    6cb9:	c7 85 a4 f3 ff ff ff 	movl   $0xffffffff,-0xc5c(%rbp)
    6cc0:	ff ff ff 
    6cc3:	0f b6 85 41 f3 ff ff 	movzbl -0xcbf(%rbp),%eax
    6cca:	83 e8 01             	sub    $0x1,%eax
    6ccd:	88 85 41 f3 ff ff    	mov    %al,-0xcbf(%rbp)
    6cd3:	48 8b 85 40 f4 ff ff 	mov    -0xbc0(%rbp),%rax
    6cda:	48 8b 95 48 f4 ff ff 	mov    -0xbb8(%rbp),%rdx
    6ce1:	48 89 10             	mov    %rdx,(%rax)
    6ce4:	48 8b 85 40 f4 ff ff 	mov    -0xbc0(%rbp),%rax
    6ceb:	48 8b 10             	mov    (%rax),%rdx
    6cee:	48 8d 85 41 f3 ff ff 	lea    -0xcbf(%rbp),%rax
    6cf5:	48 39 c2             	cmp    %rax,%rdx
    6cf8:	0f 95 c0             	setne  %al
    6cfb:	0f b6 d8             	movzbl %al,%ebx
    6cfe:	48 83 bd 40 f4 ff ff 	cmpq   $0x0,-0xbc0(%rbp)
    6d05:	00 
    6d06:	0f 95 c0             	setne  %al
    6d09:	89 c2                	mov    %eax,%edx
    6d0b:	0f b6 85 41 f3 ff ff 	movzbl -0xcbf(%rbp),%eax
    6d12:	21 d0                	and    %edx,%eax
    6d14:	0f b6 c0             	movzbl %al,%eax
    6d17:	89 c6                	mov    %eax,%esi
    6d19:	bf 00 00 00 00       	mov    $0x0,%edi
    6d1e:	e8 55 ee ff ff       	callq  5b78 <safe_sub_func_uint8_t_u_u>
    6d23:	0f b6 c0             	movzbl %al,%eax
    6d26:	89 de                	mov    %ebx,%esi
    6d28:	89 c7                	mov    %eax,%edi
    6d2a:	e8 d0 ef ff ff       	callq  5cff <safe_add_func_uint16_t_u_u>
    6d2f:	0f b7 c0             	movzwl %ax,%eax
    6d32:	0b 85 a0 f3 ff ff    	or     -0xc60(%rbp),%eax
    6d38:	89 c2                	mov    %eax,%edx
    6d3a:	48 8b 85 e0 f3 ff ff 	mov    -0xc20(%rbp),%rax
    6d41:	8b 00                	mov    (%rax),%eax
    6d43:	31 c2                	xor    %eax,%edx
    6d45:	48 8b 85 e0 f3 ff ff 	mov    -0xc20(%rbp),%rax
    6d4c:	89 10                	mov    %edx,(%rax)
    6d4e:	48 8b 85 e0 f3 ff ff 	mov    -0xc20(%rbp),%rax
    6d55:	8b 00                	mov    (%rax),%eax
    6d57:	85 c0                	test   %eax,%eax
    6d59:	0f 84 e3 10 00 00    	je     7e42 <func_1+0x168d>
    6d5f:	48 b8 b7 fe 24 86 b0 	movabs $0x3fb6d5b08624feb7,%rax
    6d66:	d5 b6 3f 
    6d69:	48 89 85 50 f4 ff ff 	mov    %rax,-0xbb0(%rbp)
    6d70:	c7 85 20 f5 ff ff 00 	movl   $0x0,-0xae0(%rbp)
    6d77:	00 00 00 
    6d7a:	c7 85 24 f5 ff ff 00 	movl   $0x0,-0xadc(%rbp)
    6d81:	00 00 00 
    6d84:	c7 85 28 f5 ff ff 00 	movl   $0x0,-0xad8(%rbp)
    6d8b:	00 00 00 
    6d8e:	c7 85 2c f5 ff ff 2c 	movl   $0xa078d2c,-0xad4(%rbp)
    6d95:	8d 07 0a 
    6d98:	c7 85 30 f5 ff ff 59 	movl   $0xf5af1559,-0xad0(%rbp)
    6d9f:	15 af f5 
    6da2:	c7 85 34 f5 ff ff 00 	movl   $0x0,-0xacc(%rbp)
    6da9:	00 00 00 
    6dac:	c7 85 38 f5 ff ff 01 	movl   $0x1,-0xac8(%rbp)
    6db3:	00 00 00 
    6db6:	c7 85 3c f5 ff ff 01 	movl   $0x1,-0xac4(%rbp)
    6dbd:	00 00 00 
    6dc0:	c7 85 40 f5 ff ff 00 	movl   $0x0,-0xac0(%rbp)
    6dc7:	00 00 00 
    6dca:	c7 85 44 f5 ff ff 00 	movl   $0x0,-0xabc(%rbp)
    6dd1:	00 00 00 
    6dd4:	c7 85 48 f5 ff ff 00 	movl   $0x0,-0xab8(%rbp)
    6ddb:	00 00 00 
    6dde:	c7 85 4c f5 ff ff 2c 	movl   $0xa078d2c,-0xab4(%rbp)
    6de5:	8d 07 0a 
    6de8:	c7 85 50 f5 ff ff 72 	movl   $0x616d7272,-0xab0(%rbp)
    6def:	72 6d 61 
    6df2:	c7 85 54 f5 ff ff 72 	movl   $0x616d7272,-0xaac(%rbp)
    6df9:	72 6d 61 
    6dfc:	c7 85 58 f5 ff ff 2c 	movl   $0xa078d2c,-0xaa8(%rbp)
    6e03:	8d 07 0a 
    6e06:	c7 85 5c f5 ff ff 00 	movl   $0x0,-0xaa4(%rbp)
    6e0d:	00 00 00 
    6e10:	c7 85 60 f5 ff ff 01 	movl   $0x1,-0xaa0(%rbp)
    6e17:	00 00 00 
    6e1a:	c7 85 64 f5 ff ff 72 	movl   $0x616d7272,-0xa9c(%rbp)
    6e21:	72 6d 61 
    6e24:	c7 85 68 f5 ff ff 00 	movl   $0x0,-0xa98(%rbp)
    6e2b:	00 00 00 
    6e2e:	c7 85 6c f5 ff ff 00 	movl   $0x0,-0xa94(%rbp)
    6e35:	00 00 00 
    6e38:	c7 85 70 f5 ff ff 01 	movl   $0x1,-0xa90(%rbp)
    6e3f:	00 00 00 
    6e42:	c7 85 74 f5 ff ff 00 	movl   $0x0,-0xa8c(%rbp)
    6e49:	00 00 00 
    6e4c:	c7 85 78 f5 ff ff 01 	movl   $0x1,-0xa88(%rbp)
    6e53:	00 00 00 
    6e56:	c7 85 7c f5 ff ff 72 	movl   $0x616d7272,-0xa84(%rbp)
    6e5d:	72 6d 61 
    6e60:	c7 85 80 f5 ff ff 00 	movl   $0x0,-0xa80(%rbp)
    6e67:	00 00 00 
    6e6a:	c7 85 84 f5 ff ff 2c 	movl   $0xa078d2c,-0xa7c(%rbp)
    6e71:	8d 07 0a 
    6e74:	c7 85 88 f5 ff ff 00 	movl   $0x0,-0xa78(%rbp)
    6e7b:	00 00 00 
    6e7e:	c7 85 8c f5 ff ff 00 	movl   $0x0,-0xa74(%rbp)
    6e85:	00 00 00 
    6e88:	c7 85 90 f5 ff ff 00 	movl   $0x0,-0xa70(%rbp)
    6e8f:	00 00 00 
    6e92:	c7 85 94 f5 ff ff 2c 	movl   $0xa078d2c,-0xa6c(%rbp)
    6e99:	8d 07 0a 
    6e9c:	66 c7 05 6f 3a 01 00 	movw   $0x7,0x13a6f(%rip)        # 1a914 <g_598>
    6ea3:	07 00 
    6ea5:	e9 6c 0f 00 00       	jmpq   7e16 <func_1+0x1661>
    6eaa:	66 c7 85 4a f3 ff ff 	movw   $0x0,-0xcb6(%rbp)
    6eb1:	00 00 
    6eb3:	48 c7 85 b0 f3 ff ff 	movq   $0x0,-0xc50(%rbp)
    6eba:	00 00 00 00 
    6ebe:	48 8d 85 b0 f3 ff ff 	lea    -0xc50(%rbp),%rax
    6ec5:	48 89 85 58 f4 ff ff 	mov    %rax,-0xba8(%rbp)
    6ecc:	48 c7 85 60 f4 ff ff 	movq   $0x0,-0xba0(%rbp)
    6ed3:	00 00 00 00 
    6ed7:	48 8d 05 36 3a 01 00 	lea    0x13a36(%rip),%rax        # 1a914 <g_598>
    6ede:	48 89 85 00 f8 ff ff 	mov    %rax,-0x800(%rbp)
    6ee5:	48 8d 85 48 f3 ff ff 	lea    -0xcb8(%rbp),%rax
    6eec:	48 89 85 08 f8 ff ff 	mov    %rax,-0x7f8(%rbp)
    6ef3:	48 8d 05 2a 31 01 00 	lea    0x1312a(%rip),%rax        # 1a024 <g_6>
    6efa:	48 89 85 10 f8 ff ff 	mov    %rax,-0x7f0(%rbp)
    6f01:	48 8d 05 78 39 01 00 	lea    0x13978(%rip),%rax        # 1a880 <g_219>
    6f08:	48 89 85 18 f8 ff ff 	mov    %rax,-0x7e8(%rbp)
    6f0f:	48 8d 05 fe 39 01 00 	lea    0x139fe(%rip),%rax        # 1a914 <g_598>
    6f16:	48 89 85 20 f8 ff ff 	mov    %rax,-0x7e0(%rbp)
    6f1d:	48 c7 85 28 f8 ff ff 	movq   $0x0,-0x7d8(%rbp)
    6f24:	00 00 00 00 
    6f28:	48 c7 85 30 f8 ff ff 	movq   $0x0,-0x7d0(%rbp)
    6f2f:	00 00 00 00 
    6f33:	48 8d 85 46 f3 ff ff 	lea    -0xcba(%rbp),%rax
    6f3a:	48 89 85 38 f8 ff ff 	mov    %rax,-0x7c8(%rbp)
    6f41:	48 8d 05 cc 39 01 00 	lea    0x139cc(%rip),%rax        # 1a914 <g_598>
    6f48:	48 89 85 40 f8 ff ff 	mov    %rax,-0x7c0(%rbp)
    6f4f:	48 c7 85 48 f8 ff ff 	movq   $0x0,-0x7b8(%rbp)
    6f56:	00 00 00 00 
    6f5a:	48 c7 85 50 f8 ff ff 	movq   $0x0,-0x7b0(%rbp)
    6f61:	00 00 00 00 
    6f65:	48 8d 85 46 f3 ff ff 	lea    -0xcba(%rbp),%rax
    6f6c:	48 89 85 58 f8 ff ff 	mov    %rax,-0x7a8(%rbp)
    6f73:	48 8d 05 9a 39 01 00 	lea    0x1399a(%rip),%rax        # 1a914 <g_598>
    6f7a:	48 89 85 60 f8 ff ff 	mov    %rax,-0x7a0(%rbp)
    6f81:	48 8d 85 48 f3 ff ff 	lea    -0xcb8(%rbp),%rax
    6f88:	48 89 85 68 f8 ff ff 	mov    %rax,-0x798(%rbp)
    6f8f:	48 8d 85 48 f3 ff ff 	lea    -0xcb8(%rbp),%rax
    6f96:	48 89 85 70 f8 ff ff 	mov    %rax,-0x790(%rbp)
    6f9d:	48 8d 05 80 30 01 00 	lea    0x13080(%rip),%rax        # 1a024 <g_6>
    6fa4:	48 89 85 78 f8 ff ff 	mov    %rax,-0x788(%rbp)
    6fab:	48 8d 85 48 f3 ff ff 	lea    -0xcb8(%rbp),%rax
    6fb2:	48 89 85 80 f8 ff ff 	mov    %rax,-0x780(%rbp)
    6fb9:	48 8d 05 54 39 01 00 	lea    0x13954(%rip),%rax        # 1a914 <g_598>
    6fc0:	48 89 85 88 f8 ff ff 	mov    %rax,-0x778(%rbp)
    6fc7:	48 8d 85 46 f3 ff ff 	lea    -0xcba(%rbp),%rax
    6fce:	48 89 85 90 f8 ff ff 	mov    %rax,-0x770(%rbp)
    6fd5:	48 8d 85 46 f3 ff ff 	lea    -0xcba(%rbp),%rax
    6fdc:	48 89 85 98 f8 ff ff 	mov    %rax,-0x768(%rbp)
    6fe3:	48 8d 05 2a 39 01 00 	lea    0x1392a(%rip),%rax        # 1a914 <g_598>
    6fea:	48 89 85 a0 f8 ff ff 	mov    %rax,-0x760(%rbp)
    6ff1:	48 8d 85 4a f3 ff ff 	lea    -0xcb6(%rbp),%rax
    6ff8:	48 89 85 a8 f8 ff ff 	mov    %rax,-0x758(%rbp)
    6fff:	48 8d 85 46 f3 ff ff 	lea    -0xcba(%rbp),%rax
    7006:	48 89 85 b0 f8 ff ff 	mov    %rax,-0x750(%rbp)
    700d:	48 8d 05 00 39 01 00 	lea    0x13900(%rip),%rax        # 1a914 <g_598>
    7014:	48 89 85 b8 f8 ff ff 	mov    %rax,-0x748(%rbp)
    701b:	48 8d 05 02 30 01 00 	lea    0x13002(%rip),%rax        # 1a024 <g_6>
    7022:	48 89 85 c0 f8 ff ff 	mov    %rax,-0x740(%rbp)
    7029:	48 8d 85 48 f3 ff ff 	lea    -0xcb8(%rbp),%rax
    7030:	48 89 85 c8 f8 ff ff 	mov    %rax,-0x738(%rbp)
    7037:	48 8d 05 42 38 01 00 	lea    0x13842(%rip),%rax        # 1a880 <g_219>
    703e:	48 89 85 d0 f8 ff ff 	mov    %rax,-0x730(%rbp)
    7045:	48 8d 05 d8 2f 01 00 	lea    0x12fd8(%rip),%rax        # 1a024 <g_6>
    704c:	48 89 85 d8 f8 ff ff 	mov    %rax,-0x728(%rbp)
    7053:	48 8d 85 4a f3 ff ff 	lea    -0xcb6(%rbp),%rax
    705a:	48 89 85 e0 f8 ff ff 	mov    %rax,-0x720(%rbp)
    7061:	48 8d 05 ac 38 01 00 	lea    0x138ac(%rip),%rax        # 1a914 <g_598>
    7068:	48 89 85 e8 f8 ff ff 	mov    %rax,-0x718(%rbp)
    706f:	48 8d 05 0c 38 01 00 	lea    0x1380c(%rip),%rax        # 1a882 <g_219+0x2>
    7076:	48 89 85 f0 f8 ff ff 	mov    %rax,-0x710(%rbp)
    707d:	48 8d 85 48 f3 ff ff 	lea    -0xcb8(%rbp),%rax
    7084:	48 89 85 f8 f8 ff ff 	mov    %rax,-0x708(%rbp)
    708b:	48 8d 05 f2 37 01 00 	lea    0x137f2(%rip),%rax        # 1a884 <g_219+0x4>
    7092:	48 89 85 00 f9 ff ff 	mov    %rax,-0x700(%rbp)
    7099:	48 c7 85 08 f9 ff ff 	movq   $0x0,-0x6f8(%rbp)
    70a0:	00 00 00 00 
    70a4:	48 8d 05 69 38 01 00 	lea    0x13869(%rip),%rax        # 1a914 <g_598>
    70ab:	48 89 85 10 f9 ff ff 	mov    %rax,-0x6f0(%rbp)
    70b2:	48 8d 05 c7 37 01 00 	lea    0x137c7(%rip),%rax        # 1a880 <g_219>
    70b9:	48 89 85 18 f9 ff ff 	mov    %rax,-0x6e8(%rbp)
    70c0:	48 8d 05 5d 2f 01 00 	lea    0x12f5d(%rip),%rax        # 1a024 <g_6>
    70c7:	48 89 85 20 f9 ff ff 	mov    %rax,-0x6e0(%rbp)
    70ce:	48 8d 85 46 f3 ff ff 	lea    -0xcba(%rbp),%rax
    70d5:	48 89 85 28 f9 ff ff 	mov    %rax,-0x6d8(%rbp)
    70dc:	48 8d 85 48 f3 ff ff 	lea    -0xcb8(%rbp),%rax
    70e3:	48 89 85 30 f9 ff ff 	mov    %rax,-0x6d0(%rbp)
    70ea:	48 8d 85 46 f3 ff ff 	lea    -0xcba(%rbp),%rax
    70f1:	48 89 85 38 f9 ff ff 	mov    %rax,-0x6c8(%rbp)
    70f8:	48 c7 85 40 f9 ff ff 	movq   $0x0,-0x6c0(%rbp)
    70ff:	00 00 00 00 
    7103:	48 c7 85 48 f9 ff ff 	movq   $0x0,-0x6b8(%rbp)
    710a:	00 00 00 00 
    710e:	48 c7 85 50 f9 ff ff 	movq   $0x0,-0x6b0(%rbp)
    7115:	00 00 00 00 
    7119:	48 8d 05 66 37 01 00 	lea    0x13766(%rip),%rax        # 1a886 <g_219+0x6>
    7120:	48 89 85 58 f9 ff ff 	mov    %rax,-0x6a8(%rbp)
    7127:	48 c7 85 60 f9 ff ff 	movq   $0x0,-0x6a0(%rbp)
    712e:	00 00 00 00 
    7132:	48 8d 05 eb 2e 01 00 	lea    0x12eeb(%rip),%rax        # 1a024 <g_6>
    7139:	48 89 85 68 f9 ff ff 	mov    %rax,-0x698(%rbp)
    7140:	48 8d 05 cd 37 01 00 	lea    0x137cd(%rip),%rax        # 1a914 <g_598>
    7147:	48 89 85 70 f9 ff ff 	mov    %rax,-0x690(%rbp)
    714e:	48 8d 05 31 37 01 00 	lea    0x13731(%rip),%rax        # 1a886 <g_219+0x6>
    7155:	48 89 85 78 f9 ff ff 	mov    %rax,-0x688(%rbp)
    715c:	48 8d 85 48 f3 ff ff 	lea    -0xcb8(%rbp),%rax
    7163:	48 89 85 80 f9 ff ff 	mov    %rax,-0x680(%rbp)
    716a:	48 8d 05 b3 2e 01 00 	lea    0x12eb3(%rip),%rax        # 1a024 <g_6>
    7171:	48 89 85 88 f9 ff ff 	mov    %rax,-0x678(%rbp)
    7178:	48 8d 85 48 f3 ff ff 	lea    -0xcb8(%rbp),%rax
    717f:	48 89 85 90 f9 ff ff 	mov    %rax,-0x670(%rbp)
    7186:	48 8d 85 46 f3 ff ff 	lea    -0xcba(%rbp),%rax
    718d:	48 89 85 98 f9 ff ff 	mov    %rax,-0x668(%rbp)
    7194:	48 8d 85 4a f3 ff ff 	lea    -0xcb6(%rbp),%rax
    719b:	48 89 85 a0 f9 ff ff 	mov    %rax,-0x660(%rbp)
    71a2:	48 8d 05 6b 37 01 00 	lea    0x1376b(%rip),%rax        # 1a914 <g_598>
    71a9:	48 89 85 a8 f9 ff ff 	mov    %rax,-0x658(%rbp)
    71b0:	48 8d 05 5d 37 01 00 	lea    0x1375d(%rip),%rax        # 1a914 <g_598>
    71b7:	48 89 85 b0 f9 ff ff 	mov    %rax,-0x650(%rbp)
    71be:	48 8d 85 48 f3 ff ff 	lea    -0xcb8(%rbp),%rax
    71c5:	48 89 85 b8 f9 ff ff 	mov    %rax,-0x648(%rbp)
    71cc:	48 8d 05 41 37 01 00 	lea    0x13741(%rip),%rax        # 1a914 <g_598>
    71d3:	48 89 85 c0 f9 ff ff 	mov    %rax,-0x640(%rbp)
    71da:	48 c7 85 c8 f9 ff ff 	movq   $0x0,-0x638(%rbp)
    71e1:	00 00 00 00 
    71e5:	48 8d 85 4a f3 ff ff 	lea    -0xcb6(%rbp),%rax
    71ec:	48 89 85 d0 f9 ff ff 	mov    %rax,-0x630(%rbp)
    71f3:	48 8d 85 4a f3 ff ff 	lea    -0xcb6(%rbp),%rax
    71fa:	48 89 85 d8 f9 ff ff 	mov    %rax,-0x628(%rbp)
    7201:	48 8d 05 7e 36 01 00 	lea    0x1367e(%rip),%rax        # 1a886 <g_219+0x6>
    7208:	48 89 85 e0 f9 ff ff 	mov    %rax,-0x620(%rbp)
    720f:	48 c7 85 e8 f9 ff ff 	movq   $0x0,-0x618(%rbp)
    7216:	00 00 00 00 
    721a:	48 8d 85 48 f3 ff ff 	lea    -0xcb8(%rbp),%rax
    7221:	48 89 85 f0 f9 ff ff 	mov    %rax,-0x610(%rbp)
    7228:	48 c7 85 f8 f9 ff ff 	movq   $0x0,-0x608(%rbp)
    722f:	00 00 00 00 
    7233:	48 8d 05 da 36 01 00 	lea    0x136da(%rip),%rax        # 1a914 <g_598>
    723a:	48 89 85 00 fa ff ff 	mov    %rax,-0x600(%rbp)
    7241:	48 8d 05 cc 36 01 00 	lea    0x136cc(%rip),%rax        # 1a914 <g_598>
    7248:	48 89 85 08 fa ff ff 	mov    %rax,-0x5f8(%rbp)
    724f:	48 8d 05 ce 2d 01 00 	lea    0x12dce(%rip),%rax        # 1a024 <g_6>
    7256:	48 89 85 10 fa ff ff 	mov    %rax,-0x5f0(%rbp)
    725d:	48 8d 05 22 36 01 00 	lea    0x13622(%rip),%rax        # 1a886 <g_219+0x6>
    7264:	48 89 85 18 fa ff ff 	mov    %rax,-0x5e8(%rbp)
    726b:	48 8d 85 48 f3 ff ff 	lea    -0xcb8(%rbp),%rax
    7272:	48 89 85 20 fa ff ff 	mov    %rax,-0x5e0(%rbp)
    7279:	48 8d 05 a4 2d 01 00 	lea    0x12da4(%rip),%rax        # 1a024 <g_6>
    7280:	48 89 85 28 fa ff ff 	mov    %rax,-0x5d8(%rbp)
    7287:	48 8d 05 86 36 01 00 	lea    0x13686(%rip),%rax        # 1a914 <g_598>
    728e:	48 89 85 30 fa ff ff 	mov    %rax,-0x5d0(%rbp)
    7295:	48 8d 85 48 f3 ff ff 	lea    -0xcb8(%rbp),%rax
    729c:	48 89 85 38 fa ff ff 	mov    %rax,-0x5c8(%rbp)
    72a3:	48 c7 85 40 fa ff ff 	movq   $0x0,-0x5c0(%rbp)
    72aa:	00 00 00 00 
    72ae:	48 8d 05 5f 36 01 00 	lea    0x1365f(%rip),%rax        # 1a914 <g_598>
    72b5:	48 89 85 48 fa ff ff 	mov    %rax,-0x5b8(%rbp)
    72bc:	48 c7 85 50 fa ff ff 	movq   $0x0,-0x5b0(%rbp)
    72c3:	00 00 00 00 
    72c7:	48 8d 85 4a f3 ff ff 	lea    -0xcb6(%rbp),%rax
    72ce:	48 89 85 58 fa ff ff 	mov    %rax,-0x5a8(%rbp)
    72d5:	48 8d 05 a4 35 01 00 	lea    0x135a4(%rip),%rax        # 1a880 <g_219>
    72dc:	48 89 85 60 fa ff ff 	mov    %rax,-0x5a0(%rbp)
    72e3:	48 8d 85 46 f3 ff ff 	lea    -0xcba(%rbp),%rax
    72ea:	48 89 85 68 fa ff ff 	mov    %rax,-0x598(%rbp)
    72f1:	48 8d 05 2c 2d 01 00 	lea    0x12d2c(%rip),%rax        # 1a024 <g_6>
    72f8:	48 89 85 70 fa ff ff 	mov    %rax,-0x590(%rbp)
    72ff:	48 8d 85 4a f3 ff ff 	lea    -0xcb6(%rbp),%rax
    7306:	48 89 85 78 fa ff ff 	mov    %rax,-0x588(%rbp)
    730d:	48 c7 85 80 fa ff ff 	movq   $0x0,-0x580(%rbp)
    7314:	00 00 00 00 
    7318:	48 8d 85 4a f3 ff ff 	lea    -0xcb6(%rbp),%rax
    731f:	48 89 85 88 fa ff ff 	mov    %rax,-0x578(%rbp)
    7326:	48 8d 85 48 f3 ff ff 	lea    -0xcb8(%rbp),%rax
    732d:	48 89 85 90 fa ff ff 	mov    %rax,-0x570(%rbp)
    7334:	48 8d 85 4a f3 ff ff 	lea    -0xcb6(%rbp),%rax
    733b:	48 89 85 98 fa ff ff 	mov    %rax,-0x568(%rbp)
    7342:	48 8d 05 43 35 01 00 	lea    0x13543(%rip),%rax        # 1a88c <g_219+0xc>
    7349:	48 89 85 a0 fa ff ff 	mov    %rax,-0x560(%rbp)
    7350:	48 8d 05 35 35 01 00 	lea    0x13535(%rip),%rax        # 1a88c <g_219+0xc>
    7357:	48 89 85 a8 fa ff ff 	mov    %rax,-0x558(%rbp)
    735e:	48 8d 85 48 f3 ff ff 	lea    -0xcb8(%rbp),%rax
    7365:	48 89 85 b0 fa ff ff 	mov    %rax,-0x550(%rbp)
    736c:	48 8d 05 a1 35 01 00 	lea    0x135a1(%rip),%rax        # 1a914 <g_598>
    7373:	48 89 85 b8 fa ff ff 	mov    %rax,-0x548(%rbp)
    737a:	48 8d 85 48 f3 ff ff 	lea    -0xcb8(%rbp),%rax
    7381:	48 89 85 c0 fa ff ff 	mov    %rax,-0x540(%rbp)
    7388:	48 c7 85 c8 fa ff ff 	movq   $0x0,-0x538(%rbp)
    738f:	00 00 00 00 
    7393:	48 8d 05 f2 34 01 00 	lea    0x134f2(%rip),%rax        # 1a88c <g_219+0xc>
    739a:	48 89 85 d0 fa ff ff 	mov    %rax,-0x530(%rbp)
    73a1:	48 8d 85 48 f3 ff ff 	lea    -0xcb8(%rbp),%rax
    73a8:	48 89 85 d8 fa ff ff 	mov    %rax,-0x528(%rbp)
    73af:	48 8d 85 4a f3 ff ff 	lea    -0xcb6(%rbp),%rax
    73b6:	48 89 85 e0 fa ff ff 	mov    %rax,-0x520(%rbp)
    73bd:	48 c7 85 e8 fa ff ff 	movq   $0x0,-0x518(%rbp)
    73c4:	00 00 00 00 
    73c8:	48 8d 85 46 f3 ff ff 	lea    -0xcba(%rbp),%rax
    73cf:	48 89 85 f0 fa ff ff 	mov    %rax,-0x510(%rbp)
    73d6:	48 8d 05 a3 34 01 00 	lea    0x134a3(%rip),%rax        # 1a880 <g_219>
    73dd:	48 89 85 f8 fa ff ff 	mov    %rax,-0x508(%rbp)
    73e4:	48 c7 85 00 fb ff ff 	movq   $0x0,-0x500(%rbp)
    73eb:	00 00 00 00 
    73ef:	48 8d 85 46 f3 ff ff 	lea    -0xcba(%rbp),%rax
    73f6:	48 89 85 08 fb ff ff 	mov    %rax,-0x4f8(%rbp)
    73fd:	48 8d 85 48 f3 ff ff 	lea    -0xcb8(%rbp),%rax
    7404:	48 89 85 10 fb ff ff 	mov    %rax,-0x4f0(%rbp)
    740b:	48 8d 05 02 35 01 00 	lea    0x13502(%rip),%rax        # 1a914 <g_598>
    7412:	48 89 85 18 fb ff ff 	mov    %rax,-0x4e8(%rbp)
    7419:	48 8d 85 4a f3 ff ff 	lea    -0xcb6(%rbp),%rax
    7420:	48 89 85 20 fb ff ff 	mov    %rax,-0x4e0(%rbp)
    7427:	48 c7 85 28 fb ff ff 	movq   $0x0,-0x4d8(%rbp)
    742e:	00 00 00 00 
    7432:	48 8d 85 46 f3 ff ff 	lea    -0xcba(%rbp),%rax
    7439:	48 89 85 30 fb ff ff 	mov    %rax,-0x4d0(%rbp)
    7440:	48 8d 05 3d 34 01 00 	lea    0x1343d(%rip),%rax        # 1a884 <g_219+0x4>
    7447:	48 89 85 38 fb ff ff 	mov    %rax,-0x4c8(%rbp)
    744e:	48 8d 05 bf 34 01 00 	lea    0x134bf(%rip),%rax        # 1a914 <g_598>
    7455:	48 89 85 40 fb ff ff 	mov    %rax,-0x4c0(%rbp)
    745c:	48 8d 05 1d 34 01 00 	lea    0x1341d(%rip),%rax        # 1a880 <g_219>
    7463:	48 89 85 48 fb ff ff 	mov    %rax,-0x4b8(%rbp)
    746a:	48 8d 85 46 f3 ff ff 	lea    -0xcba(%rbp),%rax
    7471:	48 89 85 50 fb ff ff 	mov    %rax,-0x4b0(%rbp)
    7478:	48 8d 85 46 f3 ff ff 	lea    -0xcba(%rbp),%rax
    747f:	48 89 85 58 fb ff ff 	mov    %rax,-0x4a8(%rbp)
    7486:	48 8d 85 48 f3 ff ff 	lea    -0xcb8(%rbp),%rax
    748d:	48 89 85 60 fb ff ff 	mov    %rax,-0x4a0(%rbp)
    7494:	48 8d 05 79 34 01 00 	lea    0x13479(%rip),%rax        # 1a914 <g_598>
    749b:	48 89 85 68 fb ff ff 	mov    %rax,-0x498(%rbp)
    74a2:	48 8d 05 d7 33 01 00 	lea    0x133d7(%rip),%rax        # 1a880 <g_219>
    74a9:	48 89 85 70 fb ff ff 	mov    %rax,-0x490(%rbp)
    74b0:	48 8d 05 5d 34 01 00 	lea    0x1345d(%rip),%rax        # 1a914 <g_598>
    74b7:	48 89 85 78 fb ff ff 	mov    %rax,-0x488(%rbp)
    74be:	48 8d 05 c5 33 01 00 	lea    0x133c5(%rip),%rax        # 1a88a <g_219+0xa>
    74c5:	48 89 85 80 fb ff ff 	mov    %rax,-0x480(%rbp)
    74cc:	48 8d 05 41 34 01 00 	lea    0x13441(%rip),%rax        # 1a914 <g_598>
    74d3:	48 89 85 88 fb ff ff 	mov    %rax,-0x478(%rbp)
    74da:	48 8d 05 9f 33 01 00 	lea    0x1339f(%rip),%rax        # 1a880 <g_219>
    74e1:	48 89 85 90 fb ff ff 	mov    %rax,-0x470(%rbp)
    74e8:	48 c7 85 98 fb ff ff 	movq   $0x0,-0x468(%rbp)
    74ef:	00 00 00 00 
    74f3:	48 8d 85 48 f3 ff ff 	lea    -0xcb8(%rbp),%rax
    74fa:	48 89 85 a0 fb ff ff 	mov    %rax,-0x460(%rbp)
    7501:	48 8d 05 84 33 01 00 	lea    0x13384(%rip),%rax        # 1a88c <g_219+0xc>
    7508:	48 89 85 a8 fb ff ff 	mov    %rax,-0x458(%rbp)
    750f:	48 8d 05 fe 33 01 00 	lea    0x133fe(%rip),%rax        # 1a914 <g_598>
    7516:	48 89 85 b0 fb ff ff 	mov    %rax,-0x450(%rbp)
    751d:	48 8d 85 48 f3 ff ff 	lea    -0xcb8(%rbp),%rax
    7524:	48 89 85 b8 fb ff ff 	mov    %rax,-0x448(%rbp)
    752b:	48 8d 05 4e 33 01 00 	lea    0x1334e(%rip),%rax        # 1a880 <g_219>
    7532:	48 89 85 c0 fb ff ff 	mov    %rax,-0x440(%rbp)
    7539:	48 8d 85 4a f3 ff ff 	lea    -0xcb6(%rbp),%rax
    7540:	48 89 85 c8 fb ff ff 	mov    %rax,-0x438(%rbp)
    7547:	48 8d 85 48 f3 ff ff 	lea    -0xcb8(%rbp),%rax
    754e:	48 89 85 d0 fb ff ff 	mov    %rax,-0x430(%rbp)
    7555:	48 c7 85 d8 fb ff ff 	movq   $0x0,-0x428(%rbp)
    755c:	00 00 00 00 
    7560:	48 8d 05 bd 2a 01 00 	lea    0x12abd(%rip),%rax        # 1a024 <g_6>
    7567:	48 89 85 e0 fb ff ff 	mov    %rax,-0x420(%rbp)
    756e:	48 8d 05 9f 33 01 00 	lea    0x1339f(%rip),%rax        # 1a914 <g_598>
    7575:	48 89 85 e8 fb ff ff 	mov    %rax,-0x418(%rbp)
    757c:	48 8d 85 48 f3 ff ff 	lea    -0xcb8(%rbp),%rax
    7583:	48 89 85 f0 fb ff ff 	mov    %rax,-0x410(%rbp)
    758a:	48 8d 85 46 f3 ff ff 	lea    -0xcba(%rbp),%rax
    7591:	48 89 85 f8 fb ff ff 	mov    %rax,-0x408(%rbp)
    7598:	48 8d 85 48 f3 ff ff 	lea    -0xcb8(%rbp),%rax
    759f:	48 89 85 00 fc ff ff 	mov    %rax,-0x400(%rbp)
    75a6:	48 8d 85 48 f3 ff ff 	lea    -0xcb8(%rbp),%rax
    75ad:	48 89 85 08 fc ff ff 	mov    %rax,-0x3f8(%rbp)
    75b4:	48 8d 85 4a f3 ff ff 	lea    -0xcb6(%rbp),%rax
    75bb:	48 89 85 10 fc ff ff 	mov    %rax,-0x3f0(%rbp)
    75c2:	48 c7 85 18 fc ff ff 	movq   $0x0,-0x3e8(%rbp)
    75c9:	00 00 00 00 
    75cd:	48 8d 05 ae 32 01 00 	lea    0x132ae(%rip),%rax        # 1a882 <g_219+0x2>
    75d4:	48 89 85 20 fc ff ff 	mov    %rax,-0x3e0(%rbp)
    75db:	48 8d 85 4a f3 ff ff 	lea    -0xcb6(%rbp),%rax
    75e2:	48 89 85 28 fc ff ff 	mov    %rax,-0x3d8(%rbp)
    75e9:	48 8d 05 90 32 01 00 	lea    0x13290(%rip),%rax        # 1a880 <g_219>
    75f0:	48 89 85 30 fc ff ff 	mov    %rax,-0x3d0(%rbp)
    75f7:	48 8d 85 48 f3 ff ff 	lea    -0xcb8(%rbp),%rax
    75fe:	48 89 85 38 fc ff ff 	mov    %rax,-0x3c8(%rbp)
    7605:	48 8d 05 7a 32 01 00 	lea    0x1327a(%rip),%rax        # 1a886 <g_219+0x6>
    760c:	48 89 85 40 fc ff ff 	mov    %rax,-0x3c0(%rbp)
    7613:	48 c7 85 48 fc ff ff 	movq   $0x0,-0x3b8(%rbp)
    761a:	00 00 00 00 
    761e:	48 8d 85 4a f3 ff ff 	lea    -0xcb6(%rbp),%rax
    7625:	48 89 85 50 fc ff ff 	mov    %rax,-0x3b0(%rbp)
    762c:	48 8d 05 e1 32 01 00 	lea    0x132e1(%rip),%rax        # 1a914 <g_598>
    7633:	48 89 85 58 fc ff ff 	mov    %rax,-0x3a8(%rbp)
    763a:	48 8d 85 48 f3 ff ff 	lea    -0xcb8(%rbp),%rax
    7641:	48 89 85 60 fc ff ff 	mov    %rax,-0x3a0(%rbp)
    7648:	48 8d 05 31 32 01 00 	lea    0x13231(%rip),%rax        # 1a880 <g_219>
    764f:	48 89 85 68 fc ff ff 	mov    %rax,-0x398(%rbp)
    7656:	48 8d 85 48 f3 ff ff 	lea    -0xcb8(%rbp),%rax
    765d:	48 89 85 70 fc ff ff 	mov    %rax,-0x390(%rbp)
    7664:	48 8d 85 4a f3 ff ff 	lea    -0xcb6(%rbp),%rax
    766b:	48 89 85 78 fc ff ff 	mov    %rax,-0x388(%rbp)
    7672:	48 8d 05 9b 32 01 00 	lea    0x1329b(%rip),%rax        # 1a914 <g_598>
    7679:	48 89 85 80 fc ff ff 	mov    %rax,-0x380(%rbp)
    7680:	48 8d 85 48 f3 ff ff 	lea    -0xcb8(%rbp),%rax
    7687:	48 89 85 88 fc ff ff 	mov    %rax,-0x378(%rbp)
    768e:	48 c7 85 90 fc ff ff 	movq   $0x0,-0x370(%rbp)
    7695:	00 00 00 00 
    7699:	48 8d 05 74 32 01 00 	lea    0x13274(%rip),%rax        # 1a914 <g_598>
    76a0:	48 89 85 98 fc ff ff 	mov    %rax,-0x368(%rbp)
    76a7:	48 8d 85 48 f3 ff ff 	lea    -0xcb8(%rbp),%rax
    76ae:	48 89 85 a0 fc ff ff 	mov    %rax,-0x360(%rbp)
    76b5:	48 8d 05 58 32 01 00 	lea    0x13258(%rip),%rax        # 1a914 <g_598>
    76bc:	48 89 85 a8 fc ff ff 	mov    %rax,-0x358(%rbp)
    76c3:	48 8d 05 bc 31 01 00 	lea    0x131bc(%rip),%rax        # 1a886 <g_219+0x6>
    76ca:	48 89 85 b0 fc ff ff 	mov    %rax,-0x350(%rbp)
    76d1:	48 8d 05 b4 31 01 00 	lea    0x131b4(%rip),%rax        # 1a88c <g_219+0xc>
    76d8:	48 89 85 b8 fc ff ff 	mov    %rax,-0x348(%rbp)
    76df:	48 8d 85 48 f3 ff ff 	lea    -0xcb8(%rbp),%rax
    76e6:	48 89 85 c0 fc ff ff 	mov    %rax,-0x340(%rbp)
    76ed:	48 c7 85 c8 fc ff ff 	movq   $0x0,-0x338(%rbp)
    76f4:	00 00 00 00 
    76f8:	48 8d 85 46 f3 ff ff 	lea    -0xcba(%rbp),%rax
    76ff:	48 89 85 d0 fc ff ff 	mov    %rax,-0x330(%rbp)
    7706:	48 8d 85 48 f3 ff ff 	lea    -0xcb8(%rbp),%rax
    770d:	48 89 85 d8 fc ff ff 	mov    %rax,-0x328(%rbp)
    7714:	48 8d 05 09 29 01 00 	lea    0x12909(%rip),%rax        # 1a024 <g_6>
    771b:	48 89 85 e0 fc ff ff 	mov    %rax,-0x320(%rbp)
    7722:	48 8d 05 57 31 01 00 	lea    0x13157(%rip),%rax        # 1a880 <g_219>
    7729:	48 89 85 e8 fc ff ff 	mov    %rax,-0x318(%rbp)
    7730:	48 8d 85 46 f3 ff ff 	lea    -0xcba(%rbp),%rax
    7737:	48 89 85 f0 fc ff ff 	mov    %rax,-0x310(%rbp)
    773e:	48 c7 85 f8 fc ff ff 	movq   $0x0,-0x308(%rbp)
    7745:	00 00 00 00 
    7749:	48 8d 05 c4 31 01 00 	lea    0x131c4(%rip),%rax        # 1a914 <g_598>
    7750:	48 89 85 00 fd ff ff 	mov    %rax,-0x300(%rbp)
    7757:	48 8d 85 48 f3 ff ff 	lea    -0xcb8(%rbp),%rax
    775e:	48 89 85 08 fd ff ff 	mov    %rax,-0x2f8(%rbp)
    7765:	48 8d 05 a8 31 01 00 	lea    0x131a8(%rip),%rax        # 1a914 <g_598>
    776c:	48 89 85 10 fd ff ff 	mov    %rax,-0x2f0(%rbp)
    7773:	48 8d 85 46 f3 ff ff 	lea    -0xcba(%rbp),%rax
    777a:	48 89 85 18 fd ff ff 	mov    %rax,-0x2e8(%rbp)
    7781:	48 8d 85 46 f3 ff ff 	lea    -0xcba(%rbp),%rax
    7788:	48 89 85 20 fd ff ff 	mov    %rax,-0x2e0(%rbp)
    778f:	48 c7 85 28 fd ff ff 	movq   $0x0,-0x2d8(%rbp)
    7796:	00 00 00 00 
    779a:	48 8d 85 48 f3 ff ff 	lea    -0xcb8(%rbp),%rax
    77a1:	48 89 85 30 fd ff ff 	mov    %rax,-0x2d0(%rbp)
    77a8:	48 8d 05 75 28 01 00 	lea    0x12875(%rip),%rax        # 1a024 <g_6>
    77af:	48 89 85 38 fd ff ff 	mov    %rax,-0x2c8(%rbp)
    77b6:	48 c7 85 40 fd ff ff 	movq   $0x0,-0x2c0(%rbp)
    77bd:	00 00 00 00 
    77c1:	48 8d 85 4a f3 ff ff 	lea    -0xcb6(%rbp),%rax
    77c8:	48 89 85 48 fd ff ff 	mov    %rax,-0x2b8(%rbp)
    77cf:	48 8d 05 ae 30 01 00 	lea    0x130ae(%rip),%rax        # 1a884 <g_219+0x4>
    77d6:	48 89 85 50 fd ff ff 	mov    %rax,-0x2b0(%rbp)
    77dd:	48 8d 05 a2 30 01 00 	lea    0x130a2(%rip),%rax        # 1a886 <g_219+0x6>
    77e4:	48 89 85 58 fd ff ff 	mov    %rax,-0x2a8(%rbp)
    77eb:	48 8d 85 48 f3 ff ff 	lea    -0xcb8(%rbp),%rax
    77f2:	48 89 85 60 fd ff ff 	mov    %rax,-0x2a0(%rbp)
    77f9:	48 8d 85 48 f3 ff ff 	lea    -0xcb8(%rbp),%rax
    7800:	48 89 85 68 fd ff ff 	mov    %rax,-0x298(%rbp)
    7807:	48 8d 85 46 f3 ff ff 	lea    -0xcba(%rbp),%rax
    780e:	48 89 85 70 fd ff ff 	mov    %rax,-0x290(%rbp)
    7815:	48 8d 85 4a f3 ff ff 	lea    -0xcb6(%rbp),%rax
    781c:	48 89 85 78 fd ff ff 	mov    %rax,-0x288(%rbp)
    7823:	48 8d 85 4a f3 ff ff 	lea    -0xcb6(%rbp),%rax
    782a:	48 89 85 80 fd ff ff 	mov    %rax,-0x280(%rbp)
    7831:	48 c7 85 88 fd ff ff 	movq   $0x0,-0x278(%rbp)
    7838:	00 00 00 00 
    783c:	48 8d 85 4a f3 ff ff 	lea    -0xcb6(%rbp),%rax
    7843:	48 89 85 90 fd ff ff 	mov    %rax,-0x270(%rbp)
    784a:	48 8d 05 c3 30 01 00 	lea    0x130c3(%rip),%rax        # 1a914 <g_598>
    7851:	48 89 85 98 fd ff ff 	mov    %rax,-0x268(%rbp)
    7858:	48 c7 85 a0 fd ff ff 	movq   $0x0,-0x260(%rbp)
    785f:	00 00 00 00 
    7863:	48 8d 05 aa 30 01 00 	lea    0x130aa(%rip),%rax        # 1a914 <g_598>
    786a:	48 89 85 a8 fd ff ff 	mov    %rax,-0x258(%rbp)
    7871:	48 8d 05 08 30 01 00 	lea    0x13008(%rip),%rax        # 1a880 <g_219>
    7878:	48 89 85 b0 fd ff ff 	mov    %rax,-0x250(%rbp)
    787f:	48 8d 85 4a f3 ff ff 	lea    -0xcb6(%rbp),%rax
    7886:	48 89 85 b8 fd ff ff 	mov    %rax,-0x248(%rbp)
    788d:	48 8d 85 4a f3 ff ff 	lea    -0xcb6(%rbp),%rax
    7894:	48 89 85 c0 fd ff ff 	mov    %rax,-0x240(%rbp)
    789b:	48 8d 85 48 f3 ff ff 	lea    -0xcb8(%rbp),%rax
    78a2:	48 89 85 c8 fd ff ff 	mov    %rax,-0x238(%rbp)
    78a9:	48 8d 05 d0 2f 01 00 	lea    0x12fd0(%rip),%rax        # 1a880 <g_219>
    78b0:	48 89 85 d0 fd ff ff 	mov    %rax,-0x230(%rbp)
    78b7:	48 8d 85 48 f3 ff ff 	lea    -0xcb8(%rbp),%rax
    78be:	48 89 85 d8 fd ff ff 	mov    %rax,-0x228(%rbp)
    78c5:	48 8d 85 4a f3 ff ff 	lea    -0xcb6(%rbp),%rax
    78cc:	48 89 85 e0 fd ff ff 	mov    %rax,-0x220(%rbp)
    78d3:	48 8d 05 4a 27 01 00 	lea    0x1274a(%rip),%rax        # 1a024 <g_6>
    78da:	48 89 85 e8 fd ff ff 	mov    %rax,-0x218(%rbp)
    78e1:	48 8d 05 a4 2f 01 00 	lea    0x12fa4(%rip),%rax        # 1a88c <g_219+0xc>
    78e8:	48 89 85 f0 fd ff ff 	mov    %rax,-0x210(%rbp)
    78ef:	48 8d 85 46 f3 ff ff 	lea    -0xcba(%rbp),%rax
    78f6:	48 89 85 f8 fd ff ff 	mov    %rax,-0x208(%rbp)
    78fd:	48 8d 05 7c 2f 01 00 	lea    0x12f7c(%rip),%rax        # 1a880 <g_219>
    7904:	48 89 85 00 fe ff ff 	mov    %rax,-0x200(%rbp)
    790b:	48 8d 85 48 f3 ff ff 	lea    -0xcb8(%rbp),%rax
    7912:	48 89 85 08 fe ff ff 	mov    %rax,-0x1f8(%rbp)
    7919:	48 8d 05 f4 2f 01 00 	lea    0x12ff4(%rip),%rax        # 1a914 <g_598>
    7920:	48 89 85 10 fe ff ff 	mov    %rax,-0x1f0(%rbp)
    7927:	48 8d 85 4a f3 ff ff 	lea    -0xcb6(%rbp),%rax
    792e:	48 89 85 18 fe ff ff 	mov    %rax,-0x1e8(%rbp)
    7935:	48 8d 85 46 f3 ff ff 	lea    -0xcba(%rbp),%rax
    793c:	48 89 85 20 fe ff ff 	mov    %rax,-0x1e0(%rbp)
    7943:	48 8d 05 ca 2f 01 00 	lea    0x12fca(%rip),%rax        # 1a914 <g_598>
    794a:	48 89 85 28 fe ff ff 	mov    %rax,-0x1d8(%rbp)
    7951:	48 c7 85 30 fe ff ff 	movq   $0x0,-0x1d0(%rbp)
    7958:	00 00 00 00 
    795c:	48 8d 05 c1 26 01 00 	lea    0x126c1(%rip),%rax        # 1a024 <g_6>
    7963:	48 89 85 38 fe ff ff 	mov    %rax,-0x1c8(%rbp)
    796a:	48 8d 05 a3 2f 01 00 	lea    0x12fa3(%rip),%rax        # 1a914 <g_598>
    7971:	48 89 85 40 fe ff ff 	mov    %rax,-0x1c0(%rbp)
    7978:	48 8d 85 48 f3 ff ff 	lea    -0xcb8(%rbp),%rax
    797f:	48 89 85 48 fe ff ff 	mov    %rax,-0x1b8(%rbp)
    7986:	48 8d 05 f3 2e 01 00 	lea    0x12ef3(%rip),%rax        # 1a880 <g_219>
    798d:	48 89 85 50 fe ff ff 	mov    %rax,-0x1b0(%rbp)
    7994:	48 8d 05 79 2f 01 00 	lea    0x12f79(%rip),%rax        # 1a914 <g_598>
    799b:	48 89 85 58 fe ff ff 	mov    %rax,-0x1a8(%rbp)
    79a2:	48 8d 05 db 2e 01 00 	lea    0x12edb(%rip),%rax        # 1a884 <g_219+0x4>
    79a9:	48 89 85 60 fe ff ff 	mov    %rax,-0x1a0(%rbp)
    79b0:	48 8d 05 5d 2f 01 00 	lea    0x12f5d(%rip),%rax        # 1a914 <g_598>
    79b7:	48 89 85 68 fe ff ff 	mov    %rax,-0x198(%rbp)
    79be:	48 8d 05 4f 2f 01 00 	lea    0x12f4f(%rip),%rax        # 1a914 <g_598>
    79c5:	48 89 85 70 fe ff ff 	mov    %rax,-0x190(%rbp)
    79cc:	48 8d 85 48 f3 ff ff 	lea    -0xcb8(%rbp),%rax
    79d3:	48 89 85 78 fe ff ff 	mov    %rax,-0x188(%rbp)
    79da:	48 8d 05 33 2f 01 00 	lea    0x12f33(%rip),%rax        # 1a914 <g_598>
    79e1:	48 89 85 80 fe ff ff 	mov    %rax,-0x180(%rbp)
    79e8:	48 8d 05 91 2e 01 00 	lea    0x12e91(%rip),%rax        # 1a880 <g_219>
    79ef:	48 89 85 88 fe ff ff 	mov    %rax,-0x178(%rbp)
    79f6:	48 8d 05 27 26 01 00 	lea    0x12627(%rip),%rax        # 1a024 <g_6>
    79fd:	48 89 85 90 fe ff ff 	mov    %rax,-0x170(%rbp)
    7a04:	48 8d 85 48 f3 ff ff 	lea    -0xcb8(%rbp),%rax
    7a0b:	48 89 85 98 fe ff ff 	mov    %rax,-0x168(%rbp)
    7a12:	48 8d 05 67 2e 01 00 	lea    0x12e67(%rip),%rax        # 1a880 <g_219>
    7a19:	48 89 85 a0 fe ff ff 	mov    %rax,-0x160(%rbp)
    7a20:	48 8d 85 48 f3 ff ff 	lea    -0xcb8(%rbp),%rax
    7a27:	48 89 85 a8 fe ff ff 	mov    %rax,-0x158(%rbp)
    7a2e:	48 8d 05 57 2e 01 00 	lea    0x12e57(%rip),%rax        # 1a88c <g_219+0xc>
    7a35:	48 89 85 b0 fe ff ff 	mov    %rax,-0x150(%rbp)
    7a3c:	48 8d 05 d1 2e 01 00 	lea    0x12ed1(%rip),%rax        # 1a914 <g_598>
    7a43:	48 89 85 b8 fe ff ff 	mov    %rax,-0x148(%rbp)
    7a4a:	48 8d 85 46 f3 ff ff 	lea    -0xcba(%rbp),%rax
    7a51:	48 89 85 c0 fe ff ff 	mov    %rax,-0x140(%rbp)
    7a58:	48 c7 85 c8 fe ff ff 	movq   $0x0,-0x138(%rbp)
    7a5f:	00 00 00 00 
    7a63:	48 8d 05 1a 2e 01 00 	lea    0x12e1a(%rip),%rax        # 1a884 <g_219+0x4>
    7a6a:	48 89 85 d0 fe ff ff 	mov    %rax,-0x130(%rbp)
    7a71:	48 8d 05 08 2e 01 00 	lea    0x12e08(%rip),%rax        # 1a880 <g_219>
    7a78:	48 89 85 d8 fe ff ff 	mov    %rax,-0x128(%rbp)
    7a7f:	48 8d 05 fa 2d 01 00 	lea    0x12dfa(%rip),%rax        # 1a880 <g_219>
    7a86:	48 89 85 e0 fe ff ff 	mov    %rax,-0x120(%rbp)
    7a8d:	48 c7 85 e8 fe ff ff 	movq   $0x0,-0x118(%rbp)
    7a94:	00 00 00 00 
    7a98:	48 8d 85 48 f3 ff ff 	lea    -0xcb8(%rbp),%rax
    7a9f:	48 89 85 f0 fe ff ff 	mov    %rax,-0x110(%rbp)
    7aa6:	48 8d 85 48 f3 ff ff 	lea    -0xcb8(%rbp),%rax
    7aad:	48 89 85 f8 fe ff ff 	mov    %rax,-0x108(%rbp)
    7ab4:	48 8d 85 46 f3 ff ff 	lea    -0xcba(%rbp),%rax
    7abb:	48 89 85 00 ff ff ff 	mov    %rax,-0x100(%rbp)
    7ac2:	48 8d 05 5b 25 01 00 	lea    0x1255b(%rip),%rax        # 1a024 <g_6>
    7ac9:	48 89 85 08 ff ff ff 	mov    %rax,-0xf8(%rbp)
    7ad0:	48 8d 05 4d 25 01 00 	lea    0x1254d(%rip),%rax        # 1a024 <g_6>
    7ad7:	48 89 85 10 ff ff ff 	mov    %rax,-0xf0(%rbp)
    7ade:	48 8d 05 3f 25 01 00 	lea    0x1253f(%rip),%rax        # 1a024 <g_6>
    7ae5:	48 89 85 18 ff ff ff 	mov    %rax,-0xe8(%rbp)
    7aec:	48 c7 85 20 ff ff ff 	movq   $0x0,-0xe0(%rbp)
    7af3:	00 00 00 00 
    7af7:	48 8d 85 48 f3 ff ff 	lea    -0xcb8(%rbp),%rax
    7afe:	48 89 85 28 ff ff ff 	mov    %rax,-0xd8(%rbp)
    7b05:	48 c7 85 30 ff ff ff 	movq   $0x0,-0xd0(%rbp)
    7b0c:	00 00 00 00 
    7b10:	48 8d 05 fd 2d 01 00 	lea    0x12dfd(%rip),%rax        # 1a914 <g_598>
    7b17:	48 89 85 38 ff ff ff 	mov    %rax,-0xc8(%rbp)
    7b1e:	48 8d 05 ef 2d 01 00 	lea    0x12def(%rip),%rax        # 1a914 <g_598>
    7b25:	48 89 85 40 ff ff ff 	mov    %rax,-0xc0(%rbp)
    7b2c:	48 8d 85 48 f3 ff ff 	lea    -0xcb8(%rbp),%rax
    7b33:	48 89 85 48 ff ff ff 	mov    %rax,-0xb8(%rbp)
    7b3a:	48 8d 05 d3 2d 01 00 	lea    0x12dd3(%rip),%rax        # 1a914 <g_598>
    7b41:	48 89 85 50 ff ff ff 	mov    %rax,-0xb0(%rbp)
    7b48:	48 8d 85 46 f3 ff ff 	lea    -0xcba(%rbp),%rax
    7b4f:	48 89 85 58 ff ff ff 	mov    %rax,-0xa8(%rbp)
    7b56:	48 8d 05 b7 2d 01 00 	lea    0x12db7(%rip),%rax        # 1a914 <g_598>
    7b5d:	48 89 85 60 ff ff ff 	mov    %rax,-0xa0(%rbp)
    7b64:	48 8d 05 15 2d 01 00 	lea    0x12d15(%rip),%rax        # 1a880 <g_219>
    7b6b:	48 89 85 68 ff ff ff 	mov    %rax,-0x98(%rbp)
    7b72:	48 8d 85 48 f3 ff ff 	lea    -0xcb8(%rbp),%rax
    7b79:	48 89 85 70 ff ff ff 	mov    %rax,-0x90(%rbp)
    7b80:	48 8d 05 fb 2c 01 00 	lea    0x12cfb(%rip),%rax        # 1a882 <g_219+0x2>
    7b87:	48 89 85 78 ff ff ff 	mov    %rax,-0x88(%rbp)
    7b8e:	48 8d 85 4a f3 ff ff 	lea    -0xcb6(%rbp),%rax
    7b95:	48 89 45 80          	mov    %rax,-0x80(%rbp)
    7b99:	48 8d 05 84 24 01 00 	lea    0x12484(%rip),%rax        # 1a024 <g_6>
    7ba0:	48 89 45 88          	mov    %rax,-0x78(%rbp)
    7ba4:	48 8d 85 48 f3 ff ff 	lea    -0xcb8(%rbp),%rax
    7bab:	48 89 45 90          	mov    %rax,-0x70(%rbp)
    7baf:	48 8d 05 6e 24 01 00 	lea    0x1246e(%rip),%rax        # 1a024 <g_6>
    7bb6:	48 89 45 98          	mov    %rax,-0x68(%rbp)
    7bba:	48 8d 05 c9 2c 01 00 	lea    0x12cc9(%rip),%rax        # 1a88a <g_219+0xa>
    7bc1:	48 89 45 a0          	mov    %rax,-0x60(%rbp)
    7bc5:	48 8d 85 46 f3 ff ff 	lea    -0xcba(%rbp),%rax
    7bcc:	48 89 45 a8          	mov    %rax,-0x58(%rbp)
    7bd0:	48 c7 45 b0 00 00 00 	movq   $0x0,-0x50(%rbp)
    7bd7:	00 
    7bd8:	48 8d 05 35 2d 01 00 	lea    0x12d35(%rip),%rax        # 1a914 <g_598>
    7bdf:	48 89 45 b8          	mov    %rax,-0x48(%rbp)
    7be3:	48 8d 05 a0 2c 01 00 	lea    0x12ca0(%rip),%rax        # 1a88a <g_219+0xa>
    7bea:	48 89 45 c0          	mov    %rax,-0x40(%rbp)
    7bee:	48 c7 45 c8 00 00 00 	movq   $0x0,-0x38(%rbp)
    7bf5:	00 
    7bf6:	48 8d 05 23 37 01 00 	lea    0x13723(%rip),%rax        # 1b320 <g_2636>
    7bfd:	48 89 85 68 f4 ff ff 	mov    %rax,-0xb98(%rbp)
    7c04:	c7 85 5c f3 ff ff 00 	movl   $0x0,-0xca4(%rbp)
    7c0b:	00 00 00 
    7c0e:	eb 22                	jmp    7c32 <func_1+0x147d>
    7c10:	8b 85 5c f3 ff ff    	mov    -0xca4(%rbp),%eax
    7c16:	48 98                	cltq   
    7c18:	48 8d 95 20 f5 ff ff 	lea    -0xae0(%rbp),%rdx
    7c1f:	48 83 c2 2c          	add    $0x2c,%rdx
    7c23:	48 89 94 c5 d0 f4 ff 	mov    %rdx,-0xb30(%rbp,%rax,8)
    7c2a:	ff 
    7c2b:	83 85 5c f3 ff ff 01 	addl   $0x1,-0xca4(%rbp)
    7c32:	83 bd 5c f3 ff ff 08 	cmpl   $0x8,-0xca4(%rbp)
    7c39:	7e d5                	jle    7c10 <func_1+0x145b>
    7c3b:	0f b7 85 4a f3 ff ff 	movzwl -0xcb6(%rbp),%eax
    7c42:	44 0f bf e8          	movswl %ax,%r13d
    7c46:	48 8b 85 50 f4 ff ff 	mov    -0xbb0(%rbp),%rax
    7c4d:	0f b6 c0             	movzbl %al,%eax
    7c50:	be 00 00 00 00       	mov    $0x0,%esi
    7c55:	89 c7                	mov    %eax,%edi
    7c57:	e8 f0 df ff ff       	callq  5c4c <safe_lshift_func_uint8_t_u_u>
    7c5c:	84 c0                	test   %al,%al
    7c5e:	0f 84 50 01 00 00    	je     7db4 <func_1+0x15ff>
    7c64:	48 8b 85 50 f4 ff ff 	mov    -0xbb0(%rbp),%rax
    7c6b:	0f b6 d8             	movzbl %al,%ebx
    7c6e:	48 8b 05 73 41 01 00 	mov    0x14173(%rip),%rax        # 1bde8 <g_537>
    7c75:	0f b6 00             	movzbl (%rax),%eax
    7c78:	44 0f be e0          	movsbl %al,%r12d
    7c7c:	48 8b 85 e0 f3 ff ff 	mov    -0xc20(%rbp),%rax
    7c83:	8b 00                	mov    (%rax),%eax
    7c85:	83 f0 fe             	xor    $0xfffffffe,%eax
    7c88:	89 c2                	mov    %eax,%edx
    7c8a:	48 8b 85 e0 f3 ff ff 	mov    -0xc20(%rbp),%rax
    7c91:	89 10                	mov    %edx,(%rax)
    7c93:	48 8b 85 e0 f3 ff ff 	mov    -0xc20(%rbp),%rax
    7c9a:	44 8b 30             	mov    (%rax),%r14d
    7c9d:	0f b7 85 4a f3 ff ff 	movzwl -0xcb6(%rbp),%eax
    7ca4:	66 85 c0             	test   %ax,%ax
    7ca7:	74 4e                	je     7cf7 <func_1+0x1542>
    7ca9:	48 8b 85 58 f4 ff ff 	mov    -0xba8(%rbp),%rax
    7cb0:	48 8d 15 e9 2b 01 00 	lea    0x12be9(%rip),%rdx        # 1a8a0 <g_246>
    7cb7:	48 89 10             	mov    %rdx,(%rax)
    7cba:	48 8b 85 58 f4 ff ff 	mov    -0xba8(%rbp),%rax
    7cc1:	48 8b 00             	mov    (%rax),%rax
    7cc4:	48 8d 15 d5 2b 01 00 	lea    0x12bd5(%rip),%rdx        # 1a8a0 <g_246>
    7ccb:	48 39 d0             	cmp    %rdx,%rax
    7cce:	0f 95 c0             	setne  %al
    7cd1:	0f b6 c0             	movzbl %al,%eax
    7cd4:	89 c6                	mov    %eax,%esi
    7cd6:	bf 42 13 d3 c8       	mov    $0xc8d31342,%edi
    7cdb:	e8 f0 e1 ff ff       	callq  5ed0 <safe_sub_func_uint32_t_u_u>
    7ce0:	89 c2                	mov    %eax,%edx
    7ce2:	48 8b 85 50 f4 ff ff 	mov    -0xbb0(%rbp),%rax
    7ce9:	0f be c0             	movsbl %al,%eax
    7cec:	89 d6                	mov    %edx,%esi
    7cee:	89 c7                	mov    %eax,%edi
    7cf0:	e8 f9 d5 ff ff       	callq  52ee <safe_lshift_func_int8_t_s_u>
    7cf5:	84 c0                	test   %al,%al
    7cf7:	48 8b 85 50 f4 ff ff 	mov    -0xbb0(%rbp),%rax
    7cfe:	0f be c0             	movsbl %al,%eax
    7d01:	be 81 ff ff ff       	mov    $0xffffff81,%esi
    7d06:	89 c7                	mov    %eax,%edi
    7d08:	e8 24 d5 ff ff       	callq  5231 <safe_mod_func_int8_t_s_s>
    7d0d:	0f be c0             	movsbl %al,%eax
    7d10:	44 09 f0             	or     %r14d,%eax
    7d13:	0b 85 a0 f3 ff ff    	or     -0xc60(%rbp),%eax
    7d19:	48 98                	cltq   
    7d1b:	be 00 00 00 00       	mov    $0x0,%esi
    7d20:	48 89 c7             	mov    %rax,%rdi
    7d23:	e8 d4 db ff ff       	callq  58fc <safe_mul_func_int64_t_s_s>
    7d28:	48 89 c2             	mov    %rax,%rdx
    7d2b:	48 8b 05 4e 31 01 00 	mov    0x1314e(%rip),%rax        # 1ae80 <g_1292>
    7d32:	01 c0                	add    %eax,%eax
    7d34:	d1 f8                	sar    %eax
    7d36:	48 98                	cltq   
    7d38:	48 39 c2             	cmp    %rax,%rdx
    7d3b:	0f 94 c0             	sete   %al
    7d3e:	0f b6 c0             	movzbl %al,%eax
    7d41:	89 85 4c f5 ff ff    	mov    %eax,-0xab4(%rbp)
    7d47:	8b 85 4c f5 ff ff    	mov    -0xab4(%rbp),%eax
    7d4d:	98                   	cwtl   
    7d4e:	be ff ff ff ff       	mov    $0xffffffff,%esi
    7d53:	89 c7                	mov    %eax,%edi
    7d55:	e8 79 d6 ff ff       	callq  53d3 <safe_sub_func_int16_t_s_s>
    7d5a:	0f b7 d0             	movzwl %ax,%edx
    7d5d:	0f b7 85 4a f3 ff ff 	movzwl -0xcb6(%rbp),%eax
    7d64:	0f b7 c0             	movzwl %ax,%eax
    7d67:	89 d6                	mov    %edx,%esi
    7d69:	89 c7                	mov    %eax,%edi
    7d6b:	e8 cd df ff ff       	callq  5d3d <safe_mul_func_uint16_t_u_u>
    7d70:	0f b6 c0             	movzbl %al,%eax
    7d73:	44 89 e6             	mov    %r12d,%esi
    7d76:	89 c7                	mov    %eax,%edi
    7d78:	e8 88 de ff ff       	callq  5c05 <safe_lshift_func_uint8_t_u_s>
    7d7d:	be 01 00 00 00       	mov    $0x1,%esi
    7d82:	bf 00 00 00 00       	mov    $0x0,%edi
    7d87:	e8 15 d5 ff ff       	callq  52a1 <safe_lshift_func_int8_t_s_s>
    7d8c:	48 8b 05 05 44 01 00 	mov    0x14405(%rip),%rax        # 1c198 <g_1570>
    7d93:	48 8b 00             	mov    (%rax),%rax
    7d96:	48 83 f8 01          	cmp    $0x1,%rax
    7d9a:	0f 94 c0             	sete   %al
    7d9d:	0f b6 c0             	movzbl %al,%eax
    7da0:	89 de                	mov    %ebx,%esi
    7da2:	89 c7                	mov    %eax,%edi
    7da4:	e8 ea dd ff ff       	callq  5b93 <safe_mul_func_uint8_t_u_u>
    7da9:	84 c0                	test   %al,%al
    7dab:	74 07                	je     7db4 <func_1+0x15ff>
    7dad:	b8 01 00 00 00       	mov    $0x1,%eax
    7db2:	eb 05                	jmp    7db9 <func_1+0x1604>
    7db4:	b8 00 00 00 00       	mov    $0x0,%eax
    7db9:	44 39 e8             	cmp    %r13d,%eax
    7dbc:	0f 95 c0             	setne  %al
    7dbf:	0f b6 c0             	movzbl %al,%eax
    7dc2:	89 85 9c f3 ff ff    	mov    %eax,-0xc64(%rbp)
    7dc8:	83 85 58 f3 ff ff 01 	addl   $0x1,-0xca8(%rbp)
    7dcf:	83 bd 9c f3 ff ff 00 	cmpl   $0x0,-0xc64(%rbp)
    7dd6:	75 50                	jne    7e28 <func_1+0x1673>
    7dd8:	8b 85 a0 f3 ff ff    	mov    -0xc60(%rbp),%eax
    7dde:	0f be c0             	movsbl %al,%eax
    7de1:	be 06 00 00 00       	mov    $0x6,%esi
    7de6:	89 c7                	mov    %eax,%edi
    7de8:	e8 b4 d4 ff ff       	callq  52a1 <safe_lshift_func_int8_t_s_s>
    7ded:	48 8b 05 ac 44 01 00 	mov    0x144ac(%rip),%rax        # 1c2a0 <g_2003>
    7df4:	48 8b 00             	mov    (%rax),%rax
    7df7:	48 8d 95 20 f5 ff ff 	lea    -0xae0(%rbp),%rdx
    7dfe:	48 83 c2 2c          	add    $0x2c,%rdx
    7e02:	48 89 10             	mov    %rdx,(%rax)
    7e05:	0f b7 05 08 2b 01 00 	movzwl 0x12b08(%rip),%eax        # 1a914 <g_598>
    7e0c:	83 e8 01             	sub    $0x1,%eax
    7e0f:	66 89 05 fe 2a 01 00 	mov    %ax,0x12afe(%rip)        # 1a914 <g_598>
    7e16:	0f b7 05 f7 2a 01 00 	movzwl 0x12af7(%rip),%eax        # 1a914 <g_598>
    7e1d:	66 85 c0             	test   %ax,%ax
    7e20:	0f 89 84 f0 ff ff    	jns    6eaa <func_1+0x6f5>
    7e26:	eb 01                	jmp    7e29 <func_1+0x1674>
    7e28:	90                   	nop
    7e29:	48 8b 05 b8 43 01 00 	mov    0x143b8(%rip),%rax        # 1c1e8 <g_1715>
    7e30:	48 8b 00             	mov    (%rax),%rax
    7e33:	48 8b 00             	mov    (%rax),%rax
    7e36:	48 8b 00             	mov    (%rax),%rax
    7e39:	48 8b 00             	mov    (%rax),%rax
    7e3c:	8b 00                	mov    (%rax),%eax
    7e3e:	85 c0                	test   %eax,%eax
    7e40:	eb 0b                	jmp    7e4d <func_1+0x1698>
    7e42:	8b 85 a4 f3 ff ff    	mov    -0xc5c(%rbp),%eax
    7e48:	e9 41 09 00 00       	jmpq   878e <func_1+0x1fd9>
    7e4d:	0f b7 85 48 f3 ff ff 	movzwl -0xcb8(%rbp),%eax
    7e54:	83 c0 01             	add    $0x1,%eax
    7e57:	66 89 85 48 f3 ff ff 	mov    %ax,-0xcb8(%rbp)
    7e5e:	0f b7 85 48 f3 ff ff 	movzwl -0xcb8(%rbp),%eax
    7e65:	66 83 f8 07          	cmp    $0x7,%ax
    7e69:	0f 8e 43 ee ff ff    	jle    6cb2 <func_1+0x4fd>
    7e6f:	48 8b 05 7a 30 01 00 	mov    0x1307a(%rip),%rax        # 1aef0 <g_1709>
    7e76:	48 83 e8 01          	sub    $0x1,%rax
    7e7a:	48 89 05 6f 30 01 00 	mov    %rax,0x1306f(%rip)        # 1aef0 <g_1709>
    7e81:	48 8b 05 68 30 01 00 	mov    0x13068(%rip),%rax        # 1aef0 <g_1709>
    7e88:	48 85 c0             	test   %rax,%rax
    7e8b:	0f 89 f1 ed ff ff    	jns    6c82 <func_1+0x4cd>
    7e91:	0f b7 05 8e 21 01 00 	movzwl 0x1218e(%rip),%eax        # 1a026 <g_24>
    7e98:	83 c0 01             	add    $0x1,%eax
    7e9b:	66 89 05 84 21 01 00 	mov    %ax,0x12184(%rip)        # 1a026 <g_24>
    7ea2:	0f b7 05 7d 21 01 00 	movzwl 0x1217d(%rip),%eax        # 1a026 <g_24>
    7ea9:	66 83 f8 39          	cmp    $0x39,%ax
    7ead:	0f 87 a7 ed ff ff    	ja     6c5a <func_1+0x4a5>
    7eb3:	66 c7 05 68 21 01 00 	movw   $0x1a,0x12168(%rip)        # 1a024 <g_6>
    7eba:	1a 00 
    7ebc:	e9 b3 08 00 00       	jmpq   8774 <func_1+0x1fbf>
    7ec1:	48 8d 05 c8 43 01 00 	lea    0x143c8(%rip),%rax        # 1c290 <g_1910>
    7ec8:	48 89 85 f8 f3 ff ff 	mov    %rax,-0xc08(%rbp)
    7ecf:	48 8d 85 a8 f3 ff ff 	lea    -0xc58(%rbp),%rax
    7ed6:	48 89 85 00 f4 ff ff 	mov    %rax,-0xc00(%rbp)
    7edd:	c7 85 20 f5 ff ff 03 	movl   $0x1ea95203,-0xae0(%rbp)
    7ee4:	52 a9 1e 
    7ee7:	c7 85 24 f5 ff ff b0 	movl   $0xcaa798b0,-0xadc(%rbp)
    7eee:	98 a7 ca 
    7ef1:	c7 85 28 f5 ff ff 03 	movl   $0x1ea95203,-0xad8(%rbp)
    7ef8:	52 a9 1e 
    7efb:	c7 85 2c f5 ff ff 03 	movl   $0x1ea95203,-0xad4(%rbp)
    7f02:	52 a9 1e 
    7f05:	c7 85 30 f5 ff ff b0 	movl   $0xcaa798b0,-0xad0(%rbp)
    7f0c:	98 a7 ca 
    7f0f:	c7 85 34 f5 ff ff 03 	movl   $0x1ea95203,-0xacc(%rbp)
    7f16:	52 a9 1e 
    7f19:	c7 85 38 f5 ff ff 03 	movl   $0x1ea95203,-0xac8(%rbp)
    7f20:	52 a9 1e 
    7f23:	c7 85 3c f5 ff ff b0 	movl   $0xcaa798b0,-0xac4(%rbp)
    7f2a:	98 a7 ca 
    7f2d:	c7 85 40 f5 ff ff b0 	movl   $0xcaa798b0,-0xac0(%rbp)
    7f34:	98 a7 ca 
    7f37:	c7 85 44 f5 ff ff 03 	movl   $0x1ea95203,-0xabc(%rbp)
    7f3e:	52 a9 1e 
    7f41:	c7 85 48 f5 ff ff 03 	movl   $0x1ea95203,-0xab8(%rbp)
    7f48:	52 a9 1e 
    7f4b:	c7 85 4c f5 ff ff b0 	movl   $0xcaa798b0,-0xab4(%rbp)
    7f52:	98 a7 ca 
    7f55:	c7 85 50 f5 ff ff 03 	movl   $0x1ea95203,-0xab0(%rbp)
    7f5c:	52 a9 1e 
    7f5f:	c7 85 54 f5 ff ff 03 	movl   $0x1ea95203,-0xaac(%rbp)
    7f66:	52 a9 1e 
    7f69:	c7 85 58 f5 ff ff b0 	movl   $0xcaa798b0,-0xaa8(%rbp)
    7f70:	98 a7 ca 
    7f73:	c7 85 5c f5 ff ff 03 	movl   $0x1ea95203,-0xaa4(%rbp)
    7f7a:	52 a9 1e 
    7f7d:	48 8b 95 a8 f3 ff ff 	mov    -0xc58(%rbp),%rdx
    7f84:	48 8b 85 f8 f3 ff ff 	mov    -0xc08(%rbp),%rax
    7f8b:	48 89 10             	mov    %rdx,(%rax)
    7f8e:	48 8b 85 f8 f3 ff ff 	mov    -0xc08(%rbp),%rax
    7f95:	48 8b 10             	mov    (%rax),%rdx
    7f98:	48 8b 85 00 f4 ff ff 	mov    -0xc00(%rbp),%rax
    7f9f:	48 89 10             	mov    %rdx,(%rax)
    7fa2:	48 8b 85 00 f4 ff ff 	mov    -0xc00(%rbp),%rax
    7fa9:	48 8b 00             	mov    (%rax),%rax
    7fac:	48 85 c0             	test   %rax,%rax
    7faf:	0f 84 d9 06 00 00    	je     868e <func_1+0x1ed9>
    7fb5:	c7 85 68 f3 ff ff fe 	movl   $0xfffffffe,-0xc98(%rbp)
    7fbc:	ff ff ff 
    7fbf:	c7 85 6c f3 ff ff 08 	movl   $0xb8367e08,-0xc94(%rbp)
    7fc6:	7e 36 b8 
    7fc9:	c7 85 60 f3 ff ff 9f 	movl   $0x482fc9f,-0xca0(%rbp)
    7fd0:	fc 82 04 
    7fd3:	c7 85 70 f3 ff ff 03 	movl   $0x3,-0xc90(%rbp)
    7fda:	00 00 00 
    7fdd:	c7 85 74 f3 ff ff 07 	movl   $0x7,-0xc8c(%rbp)
    7fe4:	00 00 00 
    7fe7:	c7 85 d0 f4 ff ff 01 	movl   $0x1,-0xb30(%rbp)
    7fee:	00 00 00 
    7ff1:	c7 85 d4 f4 ff ff 01 	movl   $0x1,-0xb2c(%rbp)
    7ff8:	00 00 00 
    7ffb:	c7 85 d8 f4 ff ff 01 	movl   $0x1,-0xb28(%rbp)
    8002:	00 00 00 
    8005:	c7 85 dc f4 ff ff 01 	movl   $0x1,-0xb24(%rbp)
    800c:	00 00 00 
    800f:	c7 85 e0 f4 ff ff 01 	movl   $0x1,-0xb20(%rbp)
    8016:	00 00 00 
    8019:	c7 85 e4 f4 ff ff 01 	movl   $0x1,-0xb1c(%rbp)
    8020:	00 00 00 
    8023:	c7 85 e8 f4 ff ff 01 	movl   $0x1,-0xb18(%rbp)
    802a:	00 00 00 
    802d:	c7 85 ec f4 ff ff 01 	movl   $0x1,-0xb14(%rbp)
    8034:	00 00 00 
    8037:	c7 85 f0 f4 ff ff 01 	movl   $0x1,-0xb10(%rbp)
    803e:	00 00 00 
    8041:	48 b8 f2 3e 36 b8 38 	movabs $0x300aa638b8363ef2,%rax
    8048:	a6 0a 30 
    804b:	48 89 85 b8 f3 ff ff 	mov    %rax,-0xc48(%rbp)
    8052:	48 c7 85 20 f4 ff ff 	movq   $0x0,-0xbe0(%rbp)
    8059:	00 00 00 00 
    805d:	48 8d 85 54 f3 ff ff 	lea    -0xcac(%rbp),%rax
    8064:	48 89 85 28 f4 ff ff 	mov    %rax,-0xbd8(%rbp)
    806b:	48 8b 05 3e 41 01 00 	mov    0x1413e(%rip),%rax        # 1c1b0 <g_1717>
    8072:	48 8b 00             	mov    (%rax),%rax
    8075:	48 8b 00             	mov    (%rax),%rax
    8078:	8b 00                	mov    (%rax),%eax
    807a:	48 8b 05 1f 41 01 00 	mov    0x1411f(%rip),%rax        # 1c1a0 <g_1719>
    8081:	44 8b 30             	mov    (%rax),%r14d
    8084:	48 8b 05 05 42 01 00 	mov    0x14205(%rip),%rax        # 1c290 <g_1910>
    808b:	48 8b 00             	mov    (%rax),%rax
    808e:	0f b7 00             	movzwl (%rax),%eax
    8091:	0f bf d8             	movswl %ax,%ebx
    8094:	48 8b 85 e0 f3 ff ff 	mov    -0xc20(%rbp),%rax
    809b:	8b 00                	mov    (%rax),%eax
    809d:	44 0f b7 e0          	movzwl %ax,%r12d
    80a1:	8b 85 54 f5 ff ff    	mov    -0xaac(%rbp),%eax
    80a7:	44 0f b7 e8          	movzwl %ax,%r13d
    80ab:	48 8b 05 f6 3f 01 00 	mov    0x13ff6(%rip),%rax        # 1c0a8 <g_990>
    80b2:	48 8b 00             	mov    (%rax),%rax
    80b5:	48 8b 00             	mov    (%rax),%rax
    80b8:	33 85 6c f3 ff ff    	xor    -0xc94(%rbp),%eax
    80be:	f7 d0                	not    %eax
    80c0:	be 5b 2f cf c2       	mov    $0xc2cf2f5b,%esi
    80c5:	89 c7                	mov    %eax,%edi
    80c7:	e8 ea d4 ff ff       	callq  55b6 <safe_add_func_int32_t_s_s>
    80cc:	39 85 68 f3 ff ff    	cmp    %eax,-0xc98(%rbp)
    80d2:	0f 97 c0             	seta   %al
    80d5:	0f b6 d0             	movzbl %al,%edx
    80d8:	48 8b 85 e0 f3 ff ff 	mov    -0xc20(%rbp),%rax
    80df:	8b 00                	mov    (%rax),%eax
    80e1:	09 d0                	or     %edx,%eax
    80e3:	39 85 60 f3 ff ff    	cmp    %eax,-0xca0(%rbp)
    80e9:	0f 94 c0             	sete   %al
    80ec:	0f b6 c0             	movzbl %al,%eax
    80ef:	39 85 68 f3 ff ff    	cmp    %eax,-0xc98(%rbp)
    80f5:	0f 94 c0             	sete   %al
    80f8:	0f b6 d0             	movzbl %al,%edx
    80fb:	48 8b 05 e6 3c 01 00 	mov    0x13ce6(%rip),%rax        # 1bde8 <g_537>
    8102:	0f b6 00             	movzbl (%rax),%eax
    8105:	0f be c0             	movsbl %al,%eax
    8108:	89 d6                	mov    %edx,%esi
    810a:	89 c7                	mov    %eax,%edi
    810c:	e8 e1 d0 ff ff       	callq  51f2 <safe_sub_func_int8_t_s_s>
    8111:	0f be c0             	movsbl %al,%eax
    8114:	48 8b 15 bd 49 01 00 	mov    0x149bd(%rip),%rdx        # 1cad8 <g_2700>
    811b:	48 89 15 b6 49 01 00 	mov    %rdx,0x149b6(%rip)        # 1cad8 <g_2700>
    8122:	48 8b 15 af 49 01 00 	mov    0x149af(%rip),%rdx        # 1cad8 <g_2700>
    8129:	48 89 15 b0 4e 01 00 	mov    %rdx,0x14eb0(%rip)        # 1cfe0 <g_2702>
    8130:	89 c6                	mov    %eax,%esi
    8132:	bf 01 00 00 00       	mov    $0x1,%edi
    8137:	e8 82 db ff ff       	callq  5cbe <safe_rshift_func_uint8_t_u_u>
    813c:	0f b6 c0             	movzbl %al,%eax
    813f:	44 89 ee             	mov    %r13d,%esi
    8142:	89 c7                	mov    %eax,%edi
    8144:	e8 f4 db ff ff       	callq  5d3d <safe_mul_func_uint16_t_u_u>
    8149:	48 8b 15 98 3c 01 00 	mov    0x13c98(%rip),%rdx        # 1bde8 <g_537>
    8150:	0f b6 12             	movzbl (%rdx),%edx
    8153:	66 0f be d2          	movsbw %dl,%dx
    8157:	31 d0                	xor    %edx,%eax
    8159:	83 f0 06             	xor    $0x6,%eax
    815c:	0f b7 c0             	movzwl %ax,%eax
    815f:	44 89 e6             	mov    %r12d,%esi
    8162:	89 c7                	mov    %eax,%edi
    8164:	e8 25 dc ff ff       	callq  5d8e <safe_div_func_uint16_t_u_u>
    8169:	8b 85 54 f5 ff ff    	mov    -0xaac(%rbp),%eax
    816f:	85 c0                	test   %eax,%eax
    8171:	74 07                	je     817a <func_1+0x19c5>
    8173:	b8 01 00 00 00       	mov    $0x1,%eax
    8178:	eb 05                	jmp    817f <func_1+0x19ca>
    817a:	b8 00 00 00 00       	mov    $0x0,%eax
    817f:	89 c2                	mov    %eax,%edx
    8181:	8b 85 54 f5 ff ff    	mov    -0xaac(%rbp),%eax
    8187:	21 d0                	and    %edx,%eax
    8189:	0f b7 c0             	movzwl %ax,%eax
    818c:	89 de                	mov    %ebx,%esi
    818e:	89 c7                	mov    %eax,%edi
    8190:	e8 b3 dc ff ff       	callq  5e48 <safe_rshift_func_uint16_t_u_s>
    8195:	0f b7 c0             	movzwl %ax,%eax
    8198:	41 39 c6             	cmp    %eax,%r14d
    819b:	0f 9e c2             	setle  %dl
    819e:	48 8b 05 03 40 01 00 	mov    0x14003(%rip),%rax        # 1c1a8 <g_1718>
    81a5:	48 8b 00             	mov    (%rax),%rax
    81a8:	0f b6 d2             	movzbl %dl,%edx
    81ab:	89 10                	mov    %edx,(%rax)
    81ad:	c7 05 99 1e 01 00 00 	movl   $0x0,0x11e99(%rip)        # 1a050 <g_100>
    81b4:	00 00 00 
    81b7:	e9 99 04 00 00       	jmpq   8655 <func_1+0x1ea0>
    81bc:	c6 85 45 f3 ff ff 7a 	movb   $0x7a,-0xcbb(%rbp)
    81c3:	c7 85 78 f3 ff ff 01 	movl   $0x1,-0xc88(%rbp)
    81ca:	00 00 00 
    81cd:	c7 85 7c f3 ff ff 03 	movl   $0x3,-0xc84(%rbp)
    81d4:	00 00 00 
    81d7:	c7 85 80 f3 ff ff f6 	movl   $0xfffffff6,-0xc80(%rbp)
    81de:	ff ff ff 
    81e1:	c7 85 84 f3 ff ff 0d 	movl   $0xa92bf20d,-0xc7c(%rbp)
    81e8:	f2 2b a9 
    81eb:	c7 85 88 f3 ff ff bb 	movl   $0x5ca260bb,-0xc78(%rbp)
    81f2:	60 a2 5c 
    81f5:	c7 85 8c f3 ff ff 03 	movl   $0x3,-0xc74(%rbp)
    81fc:	00 00 00 
    81ff:	c7 85 64 f3 ff ff 59 	movl   $0x5ee99f59,-0xc9c(%rbp)
    8206:	9f e9 5e 
    8209:	48 8b 05 88 40 01 00 	mov    0x14088(%rip),%rax        # 1c298 <g_1909>
    8210:	48 8b 05 d1 3f 01 00 	mov    0x13fd1(%rip),%rax        # 1c1e8 <g_1715>
    8217:	48 8b 00             	mov    (%rax),%rax
    821a:	48 8b 00             	mov    (%rax),%rax
    821d:	48 8b 00             	mov    (%rax),%rax
    8220:	48 8b 00             	mov    (%rax),%rax
    8223:	48 8b 95 e0 f3 ff ff 	mov    -0xc20(%rbp),%rdx
    822a:	8b 12                	mov    (%rdx),%edx
    822c:	89 10                	mov    %edx,(%rax)
    822e:	48 83 bd e8 f3 ff ff 	cmpq   $0x0,-0xc18(%rbp)
    8235:	00 
    8236:	0f 94 c0             	sete   %al
    8239:	0f b6 d8             	movzbl %al,%ebx
    823c:	48 8b 05 cd 2f 01 00 	mov    0x12fcd(%rip),%rax        # 1b210 <g_2288>
    8243:	48 c1 e0 08          	shl    $0x8,%rax
    8247:	48 c1 f8 28          	sar    $0x28,%rax
    824b:	89 c1                	mov    %eax,%ecx
    824d:	48 8b 85 e0 f3 ff ff 	mov    -0xc20(%rbp),%rax
    8254:	8b 00                	mov    (%rax),%eax
    8256:	48 8b 15 1b 3f 01 00 	mov    0x13f1b(%rip),%rdx        # 1c178 <g_1445>
    825d:	48 8b 12             	mov    (%rdx),%rdx
    8260:	48 39 95 f0 f3 ff ff 	cmp    %rdx,-0xc10(%rbp)
    8267:	0f 95 c2             	setne  %dl
    826a:	0f b6 d2             	movzbl %dl,%edx
    826d:	89 95 78 f3 ff ff    	mov    %edx,-0xc88(%rbp)
    8273:	39 85 78 f3 ff ff    	cmp    %eax,-0xc88(%rbp)
    8279:	0f 9c c0             	setl   %al
    827c:	0f b6 c0             	movzbl %al,%eax
    827f:	89 ce                	mov    %ecx,%esi
    8281:	89 c7                	mov    %eax,%edi
    8283:	e8 44 d4 ff ff       	callq  56cc <safe_mod_func_int32_t_s_s>
    8288:	39 c3                	cmp    %eax,%ebx
    828a:	74 52                	je     82de <func_1+0x1b29>
    828c:	c7 05 76 2f 01 00 00 	movl   $0x0,0x12f76(%rip)        # 1b20c <g_2258>
    8293:	00 00 00 
    8296:	eb 20                	jmp    82b8 <func_1+0x1b03>
    8298:	0f b7 05 a1 2f 01 00 	movzwl 0x12fa1(%rip),%eax        # 1b240 <g_2365>
    829f:	66 85 c0             	test   %ax,%ax
    82a2:	74 05                	je     82a9 <func_1+0x1af4>
    82a4:	e9 a3 e9 ff ff       	jmpq   6c4c <func_1+0x497>
    82a9:	8b 05 5d 2f 01 00    	mov    0x12f5d(%rip),%eax        # 1b20c <g_2258>
    82af:	83 c0 01             	add    $0x1,%eax
    82b2:	89 05 54 2f 01 00    	mov    %eax,0x12f54(%rip)        # 1b20c <g_2258>
    82b8:	8b 05 4e 2f 01 00    	mov    0x12f4e(%rip),%eax        # 1b20c <g_2258>
    82be:	85 c0                	test   %eax,%eax
    82c0:	74 d6                	je     8298 <func_1+0x1ae3>
    82c2:	48 8b 05 e7 3e 01 00 	mov    0x13ee7(%rip),%rax        # 1c1b0 <g_1717>
    82c9:	48 8b 00             	mov    (%rax),%rax
    82cc:	48 8b 00             	mov    (%rax),%rax
    82cf:	8b 00                	mov    (%rax),%eax
    82d1:	85 c0                	test   %eax,%eax
    82d3:	0f 84 6d 01 00 00    	je     8446 <func_1+0x1c91>
    82d9:	e9 89 03 00 00       	jmpq   8667 <func_1+0x1eb2>
    82de:	c7 85 90 f3 ff ff 00 	movl   $0x0,-0xc70(%rbp)
    82e5:	00 00 00 
    82e8:	c7 85 94 f3 ff ff 9a 	movl   $0x5863689a,-0xc6c(%rbp)
    82ef:	68 63 58 
    82f2:	c7 85 98 f3 ff ff fd 	movl   $0xfffffffd,-0xc68(%rbp)
    82f9:	ff ff ff 
    82fc:	c6 85 43 f3 ff ff 00 	movb   $0x0,-0xcbd(%rbp)
    8303:	80 bd 43 f3 ff ff 01 	cmpb   $0x1,-0xcbd(%rbp)
    830a:	77 1b                	ja     8327 <func_1+0x1b72>
    830c:	0f b6 85 43 f3 ff ff 	movzbl -0xcbd(%rbp),%eax
    8313:	48 98                	cltq   
    8315:	48 8d 15 4f 1d 01 00 	lea    0x11d4f(%rip),%rdx        # 1a06b <g_156>
    831c:	0f b6 04 10          	movzbl (%rax,%rdx,1),%eax
    8320:	66 98                	cbtw   
    8322:	e9 67 04 00 00       	jmpq   878e <func_1+0x1fd9>
    8327:	83 bd 78 f3 ff ff 00 	cmpl   $0x0,-0xc88(%rbp)
    832e:	0f 85 11 03 00 00    	jne    8645 <func_1+0x1e90>
    8334:	48 8b 05 0d 3d 01 00 	mov    0x13d0d(%rip),%rax        # 1c048 <g_923>
    833b:	8b 00                	mov    (%rax),%eax
    833d:	85 c0                	test   %eax,%eax
    833f:	74 0f                	je     8350 <func_1+0x1b9b>
    8341:	48 8b 05 68 3d 01 00 	mov    0x13d68(%rip),%rax        # 1c0b0 <g_1312>
    8348:	0f b7 00             	movzwl (%rax),%eax
    834b:	e9 3e 04 00 00       	jmpq   878e <func_1+0x1fd9>
    8350:	48 8d 05 9d 2a 01 00 	lea    0x12a9d(%rip),%rax        # 1adf4 <g_1132>
    8357:	48 89 85 30 f4 ff ff 	mov    %rax,-0xbd0(%rbp)
    835e:	48 c7 85 38 f4 ff ff 	movq   $0x0,-0xbc8(%rbp)
    8365:	00 00 00 00 
    8369:	48 c7 85 00 f8 ff ff 	movq   $0x0,-0x800(%rbp)
    8370:	00 00 00 00 
    8374:	48 8d 85 20 f5 ff ff 	lea    -0xae0(%rbp),%rax
    837b:	48 83 c0 08          	add    $0x8,%rax
    837f:	48 89 85 08 f8 ff ff 	mov    %rax,-0x7f8(%rbp)
    8386:	48 c7 85 10 f8 ff ff 	movq   $0x0,-0x7f0(%rbp)
    838d:	00 00 00 00 
    8391:	48 c7 85 18 f8 ff ff 	movq   $0x0,-0x7e8(%rbp)
    8398:	00 00 00 00 
    839c:	48 c7 85 20 f8 ff ff 	movq   $0x0,-0x7e0(%rbp)
    83a3:	00 00 00 00 
    83a7:	48 8d 85 20 f5 ff ff 	lea    -0xae0(%rbp),%rax
    83ae:	48 83 c0 08          	add    $0x8,%rax
    83b2:	48 89 85 28 f8 ff ff 	mov    %rax,-0x7d8(%rbp)
    83b9:	48 c7 85 30 f8 ff ff 	movq   $0x0,-0x7d0(%rbp)
    83c0:	00 00 00 00 
    83c4:	48 c7 85 38 f8 ff ff 	movq   $0x0,-0x7c8(%rbp)
    83cb:	00 00 00 00 
    83cf:	48 c7 85 40 f8 ff ff 	movq   $0x0,-0x7c0(%rbp)
    83d6:	00 00 00 00 
    83da:	48 8d 85 20 f5 ff ff 	lea    -0xae0(%rbp),%rax
    83e1:	48 83 c0 08          	add    $0x8,%rax
    83e5:	48 89 85 48 f8 ff ff 	mov    %rax,-0x7b8(%rbp)
    83ec:	48 c7 85 50 f8 ff ff 	movq   $0x0,-0x7b0(%rbp)
    83f3:	00 00 00 00 
    83f7:	48 c7 85 58 f8 ff ff 	movq   $0x0,-0x7a8(%rbp)
    83fe:	00 00 00 00 
    8402:	48 c7 85 60 f8 ff ff 	movq   $0x0,-0x7a0(%rbp)
    8409:	00 00 00 00 
    840d:	48 8d 85 20 f5 ff ff 	lea    -0xae0(%rbp),%rax
    8414:	48 83 c0 08          	add    $0x8,%rax
    8418:	48 89 85 68 f8 ff ff 	mov    %rax,-0x798(%rbp)
    841f:	48 c7 85 70 f8 ff ff 	movq   $0x0,-0x790(%rbp)
    8426:	00 00 00 00 
    842a:	48 c7 85 78 f8 ff ff 	movq   $0x0,-0x788(%rbp)
    8431:	00 00 00 00 
    8435:	66 c7 85 4c f3 ff ff 	movw   $0xeaf8,-0xcb4(%rbp)
    843c:	f8 ea 
    843e:	48 83 ad b8 f3 ff ff 	subq   $0x1,-0xc48(%rbp)
    8445:	01 
    8446:	83 bd 60 f3 ff ff 00 	cmpl   $0x0,-0xca0(%rbp)
    844d:	0f 85 13 02 00 00    	jne    8666 <func_1+0x1eb1>
    8453:	c7 85 64 f3 ff ff eb 	movl   $0xffffffeb,-0xc9c(%rbp)
    845a:	ff ff ff 
    845d:	e9 d4 01 00 00       	jmpq   8636 <func_1+0x1e81>
    8462:	48 8d 85 00 f8 ff ff 	lea    -0x800(%rbp),%rax
    8469:	48 8d 15 70 cf 00 00 	lea    0xcf70(%rip),%rdx        # 153e0 <g_1898+0x380>
    8470:	b9 28 00 00 00       	mov    $0x28,%ecx
    8475:	48 89 c7             	mov    %rax,%rdi
    8478:	48 89 d6             	mov    %rdx,%rsi
    847b:	f3 48 a5             	rep movsq %ds:(%rsi),%es:(%rdi)
    847e:	c7 85 60 f3 ff ff 15 	movl   $0x15,-0xca0(%rbp)
    8485:	00 00 00 
    8488:	83 bd 60 f3 ff ff 06 	cmpl   $0x6,-0xca0(%rbp)
    848f:	0f 86 9a 01 00 00    	jbe    862f <func_1+0x1e7a>
    8495:	66 c7 85 4e f3 ff ff 	movw   $0xfffe,-0xcb2(%rbp)
    849c:	fe ff 
    849e:	48 8b 05 8b 2e 01 00 	mov    0x12e8b(%rip),%rax        # 1b330 <g_2755>
    84a5:	48 8b 15 8c 2e 01 00 	mov    0x12e8c(%rip),%rdx        # 1b338 <g_2755+0x8>
    84ac:	48 8b 85 e0 f3 ff ff 	mov    -0xc20(%rbp),%rax
    84b3:	8b 00                	mov    (%rax),%eax
    84b5:	85 c0                	test   %eax,%eax
    84b7:	0f 84 c0 00 00 00    	je     857d <func_1+0x1dc8>
    84bd:	48 8b 05 d4 3c 01 00 	mov    0x13cd4(%rip),%rax        # 1c198 <g_1570>
    84c4:	48 8b 18             	mov    (%rax),%rbx
    84c7:	44 8b ad 28 f5 ff ff 	mov    -0xad8(%rbp),%r13d
    84ce:	48 8b 05 13 39 01 00 	mov    0x13913(%rip),%rax        # 1bde8 <g_537>
    84d5:	0f b6 00             	movzbl (%rax),%eax
    84d8:	44 0f b6 e0          	movzbl %al,%r12d
    84dc:	be fc ff 00 00       	mov    $0xfffc,%esi
    84e1:	bf 8f 1b 00 00       	mov    $0x1b8f,%edi
    84e6:	e8 71 d8 ff ff       	callq  5d5c <safe_mod_func_uint16_t_u_u>
    84eb:	98                   	cwtl   
    84ec:	be 07 00 00 00       	mov    $0x7,%esi
    84f1:	89 c7                	mov    %eax,%edi
    84f3:	e8 6b d0 ff ff       	callq  5563 <safe_rshift_func_int16_t_s_u>
    84f8:	98                   	cwtl   
    84f9:	be 82 37 5d 0d       	mov    $0xd5d3782,%esi
    84fe:	89 c7                	mov    %eax,%edi
    8500:	e8 c7 d1 ff ff       	callq  56cc <safe_mod_func_int32_t_s_s>
    8505:	8b 95 e8 f4 ff ff    	mov    -0xb18(%rbp),%edx
    850b:	83 bd 8c f3 ff ff 01 	cmpl   $0x1,-0xc74(%rbp)
    8512:	0f 94 c0             	sete   %al
    8515:	0f b6 c0             	movzbl %al,%eax
    8518:	39 c2                	cmp    %eax,%edx
    851a:	66 c7 85 4e f3 ff ff 	movw   $0x0,-0xcb2(%rbp)
    8521:	00 00 
    8523:	0f b7 85 4e f3 ff ff 	movzwl -0xcb2(%rbp),%eax
    852a:	0f b6 c0             	movzbl %al,%eax
    852d:	44 89 e6             	mov    %r12d,%esi
    8530:	89 c7                	mov    %eax,%edi
    8532:	e8 77 d6 ff ff       	callq  5bae <safe_mod_func_uint8_t_u_u>
    8537:	0f b6 c0             	movzbl %al,%eax
    853a:	44 21 e8             	and    %r13d,%eax
    853d:	83 f8 01             	cmp    $0x1,%eax
    8540:	0f 96 c0             	setbe  %al
    8543:	0f b6 d0             	movzbl %al,%edx
    8546:	48 8b 85 e0 f3 ff ff 	mov    -0xc20(%rbp),%rax
    854d:	8b 00                	mov    (%rax),%eax
    854f:	39 c2                	cmp    %eax,%edx
    8551:	0f 94 c0             	sete   %al
    8554:	0f b6 c0             	movzbl %al,%eax
    8557:	48 89 de             	mov    %rbx,%rsi
    855a:	48 89 c7             	mov    %rax,%rdi
    855d:	e8 e9 da ff ff       	callq  604b <safe_sub_func_uint64_t_u_u>
    8562:	48 8b 95 e0 f3 ff ff 	mov    -0xc20(%rbp),%rdx
    8569:	8b 12                	mov    (%rdx),%edx
    856b:	48 63 d2             	movslq %edx,%rdx
    856e:	48 09 d0             	or     %rdx,%rax
    8571:	48 85 c0             	test   %rax,%rax
    8574:	74 07                	je     857d <func_1+0x1dc8>
    8576:	b8 01 00 00 00       	mov    $0x1,%eax
    857b:	eb 05                	jmp    8582 <func_1+0x1dcd>
    857d:	b8 00 00 00 00       	mov    $0x0,%eax
    8582:	31 85 84 f3 ff ff    	xor    %eax,-0xc7c(%rbp)
    8588:	81 bd 84 f3 ff ff 94 	cmpl   $0x294,-0xc7c(%rbp)
    858f:	02 00 00 
    8592:	0f 9e c0             	setle  %al
    8595:	0f b6 c0             	movzbl %al,%eax
    8598:	89 c6                	mov    %eax,%esi
    859a:	bf 01 00 00 00       	mov    $0x1,%edi
    859f:	e8 3d cf ff ff       	callq  54e1 <safe_lshift_func_int16_t_s_u>
    85a4:	98                   	cwtl   
    85a5:	31 85 6c f3 ff ff    	xor    %eax,-0xc94(%rbp)
    85ab:	b8 00 00 00 00       	mov    $0x0,%eax
    85b0:	89 c1                	mov    %eax,%ecx
    85b2:	48 8b 85 c8 f3 ff ff 	mov    -0xc38(%rbp),%rax
    85b9:	0f b7 10             	movzwl (%rax),%edx
    85bc:	48 8d 05 7d 2c 01 00 	lea    0x12c7d(%rip),%rax        # 1b240 <g_2365>
    85c3:	0f b7 00             	movzwl (%rax),%eax
    85c6:	21 c2                	and    %eax,%edx
    85c8:	48 8b 85 c8 f3 ff ff 	mov    -0xc38(%rbp),%rax
    85cf:	66 89 10             	mov    %dx,(%rax)
    85d2:	48 8b 85 c8 f3 ff ff 	mov    -0xc38(%rbp),%rax
    85d9:	0f b7 00             	movzwl (%rax),%eax
    85dc:	0f b7 c0             	movzwl %ax,%eax
    85df:	89 ce                	mov    %ecx,%esi
    85e1:	89 c7                	mov    %eax,%edi
    85e3:	e8 1e d8 ff ff       	callq  5e06 <safe_lshift_func_uint16_t_u_u>
    85e8:	0f b7 c0             	movzwl %ax,%eax
    85eb:	be 04 00 00 00       	mov    $0x4,%esi
    85f0:	89 c7                	mov    %eax,%edi
    85f2:	e8 c7 d7 ff ff       	callq  5dbe <safe_lshift_func_uint16_t_u_s>
    85f7:	0f b7 c0             	movzwl %ax,%eax
    85fa:	09 85 78 f3 ff ff    	or     %eax,-0xc88(%rbp)
    8600:	48 8b 05 e1 3b 01 00 	mov    0x13be1(%rip),%rax        # 1c1e8 <g_1715>
    8607:	48 8b 00             	mov    (%rax),%rax
    860a:	48 8b 00             	mov    (%rax),%rax
    860d:	48 8b 00             	mov    (%rax),%rax
    8610:	48 8b 00             	mov    (%rax),%rax
    8613:	8b 08                	mov    (%rax),%ecx
    8615:	0f b7 95 12 f8 ff ff 	movzwl -0x7ee(%rbp),%edx
    861c:	0f b7 d2             	movzwl %dx,%edx
    861f:	09 ca                	or     %ecx,%edx
    8621:	89 10                	mov    %edx,(%rax)
    8623:	0f b7 85 12 f8 ff ff 	movzwl -0x7ee(%rbp),%eax
    862a:	e9 5f 01 00 00       	jmpq   878e <func_1+0x1fd9>
    862f:	83 85 64 f3 ff ff 01 	addl   $0x1,-0xc9c(%rbp)
    8636:	83 bd 64 f3 ff ff 0a 	cmpl   $0xa,-0xc9c(%rbp)
    863d:	0f 85 1f fe ff ff    	jne    8462 <func_1+0x1cad>
    8643:	eb 01                	jmp    8646 <func_1+0x1e91>
    8645:	90                   	nop
    8646:	8b 05 04 1a 01 00    	mov    0x11a04(%rip),%eax        # 1a050 <g_100>
    864c:	83 c0 01             	add    $0x1,%eax
    864f:	89 05 fb 19 01 00    	mov    %eax,0x119fb(%rip)        # 1a050 <g_100>
    8655:	8b 05 f5 19 01 00    	mov    0x119f5(%rip),%eax        # 1a050 <g_100>
    865b:	83 f8 1a             	cmp    $0x1a,%eax
    865e:	0f 85 58 fb ff ff    	jne    81bc <func_1+0x1a07>
    8664:	eb 01                	jmp    8667 <func_1+0x1eb2>
    8666:	90                   	nop
    8667:	48 8b 05 32 3c 01 00 	mov    0x13c32(%rip),%rax        # 1c2a0 <g_2003>
    866e:	48 8b 00             	mov    (%rax),%rax
    8671:	48 8d 95 d0 f4 ff ff 	lea    -0xb30(%rbp),%rdx
    8678:	48 83 c2 1c          	add    $0x1c,%rdx
    867c:	48 89 10             	mov    %rdx,(%rax)
    867f:	48 8b 00             	mov    (%rax),%rax
    8682:	48 89 85 28 f4 ff ff 	mov    %rax,-0xbd8(%rbp)
    8689:	e9 cb 00 00 00       	jmpq   8759 <func_1+0x1fa4>
    868e:	48 8d 05 bb 23 01 00 	lea    0x123bb(%rip),%rax        # 1aa50 <g_954+0x110>
    8695:	48 89 85 08 f4 ff ff 	mov    %rax,-0xbf8(%rbp)
    869c:	48 8d 85 50 f3 ff ff 	lea    -0xcb0(%rbp),%rax
    86a3:	48 89 85 00 f8 ff ff 	mov    %rax,-0x800(%rbp)
    86aa:	48 8d 85 50 f3 ff ff 	lea    -0xcb0(%rbp),%rax
    86b1:	48 89 85 08 f8 ff ff 	mov    %rax,-0x7f8(%rbp)
    86b8:	48 8d 85 50 f3 ff ff 	lea    -0xcb0(%rbp),%rax
    86bf:	48 89 85 10 f8 ff ff 	mov    %rax,-0x7f0(%rbp)
    86c6:	48 8d 85 50 f3 ff ff 	lea    -0xcb0(%rbp),%rax
    86cd:	48 89 85 18 f8 ff ff 	mov    %rax,-0x7e8(%rbp)
    86d4:	48 8d 05 b5 48 01 00 	lea    0x148b5(%rip),%rax        # 1cf90 <g_457>
    86db:	48 89 85 10 f4 ff ff 	mov    %rax,-0xbf0(%rbp)
    86e2:	48 c7 85 b0 f3 ff ff 	movq   $0x0,-0xc50(%rbp)
    86e9:	00 00 00 00 
    86ed:	48 8d 85 b0 f3 ff ff 	lea    -0xc50(%rbp),%rax
    86f4:	48 89 85 18 f4 ff ff 	mov    %rax,-0xbe8(%rbp)
    86fb:	48 8b 05 3e 39 01 00 	mov    0x1393e(%rip),%rax        # 1c040 <g_878>
    8702:	48 8b 95 08 f4 ff ff 	mov    -0xbf8(%rbp),%rdx
    8709:	48 89 10             	mov    %rdx,(%rax)
    870c:	48 8b 00             	mov    (%rax),%rax
    870f:	48 89 05 ca 43 01 00 	mov    %rax,0x143ca(%rip)        # 1cae0 <g_2775>
    8716:	80 85 42 f3 ff ff 01 	addb   $0x1,-0xcbe(%rbp)
    871d:	48 8b 05 b4 36 01 00 	mov    0x136b4(%rip),%rax        # 1bdd8 <g_456>
    8724:	48 8b 10             	mov    (%rax),%rdx
    8727:	48 8b 85 10 f4 ff ff 	mov    -0xbf0(%rbp),%rax
    872e:	48 89 10             	mov    %rdx,(%rax)
    8731:	48 8b 05 08 44 01 00 	mov    0x14408(%rip),%rax        # 1cb40 <g_2784+0x20>
    8738:	48 39 85 18 f4 ff ff 	cmp    %rax,-0xbe8(%rbp)
    873f:	0f 95 c0             	setne  %al
    8742:	0f b6 d0             	movzbl %al,%edx
    8745:	48 8b 85 e0 f3 ff ff 	mov    -0xc20(%rbp),%rax
    874c:	8b 00                	mov    (%rax),%eax
    874e:	31 c2                	xor    %eax,%edx
    8750:	48 8b 85 e0 f3 ff ff 	mov    -0xc20(%rbp),%rax
    8757:	89 10                	mov    %edx,(%rax)
    8759:	0f b7 05 c4 18 01 00 	movzwl 0x118c4(%rip),%eax        # 1a024 <g_6>
    8760:	98                   	cwtl   
    8761:	be 03 00 00 00       	mov    $0x3,%esi
    8766:	89 c7                	mov    %eax,%edi
    8768:	e8 63 d7 ff ff       	callq  5ed0 <safe_sub_func_uint32_t_u_u>
    876d:	66 89 05 b0 18 01 00 	mov    %ax,0x118b0(%rip)        # 1a024 <g_6>
    8774:	0f b7 05 a9 18 01 00 	movzwl 0x118a9(%rip),%eax        # 1a024 <g_6>
    877b:	66 83 f8 f5          	cmp    $0xfff5,%ax
    877f:	0f 8d 3c f7 ff ff    	jge    7ec1 <func_1+0x170c>
    8785:	48 8b 85 e0 f3 ff ff 	mov    -0xc20(%rbp),%rax
    878c:	8b 00                	mov    (%rax),%eax
    878e:	48 8b 5d d8          	mov    -0x28(%rbp),%rbx
    8792:	64 48 33 1c 25 28 00 	xor    %fs:0x28,%rbx
    8799:	00 00 
    879b:	74 05                	je     87a2 <func_1+0x1fed>
    879d:	e8 ce c8 ff ff       	callq  5070 <__stack_chk_fail@plt>
    87a2:	48 81 c4 a0 0c 00 00 	add    $0xca0,%rsp
    87a9:	5b                   	pop    %rbx
    87aa:	41 5c                	pop    %r12
    87ac:	41 5d                	pop    %r13
    87ae:	41 5e                	pop    %r14
    87b0:	5d                   	pop    %rbp
    87b1:	c3                   	retq   

00000000000087b2 <func_11>:
    87b2:	f3 0f 1e fa          	endbr64 
    87b6:	55                   	push   %rbp
    87b7:	48 89 e5             	mov    %rsp,%rbp
    87ba:	41 56                	push   %r14
    87bc:	41 55                	push   %r13
    87be:	41 54                	push   %r12
    87c0:	53                   	push   %rbx
    87c1:	48 81 ec c0 02 00 00 	sub    $0x2c0,%rsp
    87c8:	89 bd 2c fd ff ff    	mov    %edi,-0x2d4(%rbp)
    87ce:	89 b5 28 fd ff ff    	mov    %esi,-0x2d8(%rbp)
    87d4:	89 95 24 fd ff ff    	mov    %edx,-0x2dc(%rbp)
    87da:	89 8d 20 fd ff ff    	mov    %ecx,-0x2e0(%rbp)
    87e0:	64 48 8b 04 25 28 00 	mov    %fs:0x28,%rax
    87e7:	00 00 
    87e9:	48 89 45 d8          	mov    %rax,-0x28(%rbp)
    87ed:	31 c0                	xor    %eax,%eax
    87ef:	48 8d 85 90 fd ff ff 	lea    -0x270(%rbp),%rax
    87f6:	48 83 c0 10          	add    $0x10,%rax
    87fa:	48 89 85 e0 fd ff ff 	mov    %rax,-0x220(%rbp)
    8801:	48 8d 85 90 fd ff ff 	lea    -0x270(%rbp),%rax
    8808:	48 83 c0 10          	add    $0x10,%rax
    880c:	48 89 85 e8 fd ff ff 	mov    %rax,-0x218(%rbp)
    8813:	48 8d 85 90 fd ff ff 	lea    -0x270(%rbp),%rax
    881a:	48 83 c0 10          	add    $0x10,%rax
    881e:	48 89 85 f0 fd ff ff 	mov    %rax,-0x210(%rbp)
    8825:	48 8d 85 90 fd ff ff 	lea    -0x270(%rbp),%rax
    882c:	48 83 c0 10          	add    $0x10,%rax
    8830:	48 89 85 f8 fd ff ff 	mov    %rax,-0x208(%rbp)
    8837:	48 8d 85 90 fd ff ff 	lea    -0x270(%rbp),%rax
    883e:	48 83 c0 10          	add    $0x10,%rax
    8842:	48 89 85 00 fe ff ff 	mov    %rax,-0x200(%rbp)
    8849:	48 8d 85 90 fd ff ff 	lea    -0x270(%rbp),%rax
    8850:	48 83 c0 10          	add    $0x10,%rax
    8854:	48 89 85 08 fe ff ff 	mov    %rax,-0x1f8(%rbp)
    885b:	48 8d 85 90 fd ff ff 	lea    -0x270(%rbp),%rax
    8862:	48 83 c0 10          	add    $0x10,%rax
    8866:	48 89 85 10 fe ff ff 	mov    %rax,-0x1f0(%rbp)
    886d:	48 8d 85 90 fd ff ff 	lea    -0x270(%rbp),%rax
    8874:	48 83 c0 10          	add    $0x10,%rax
    8878:	48 89 85 18 fe ff ff 	mov    %rax,-0x1e8(%rbp)
    887f:	c7 85 40 fd ff ff 00 	movl   $0x0,-0x2c0(%rbp)
    8886:	00 00 00 
    8889:	48 8d 85 40 fd ff ff 	lea    -0x2c0(%rbp),%rax
    8890:	48 89 85 68 fd ff ff 	mov    %rax,-0x298(%rbp)
    8897:	c7 85 44 fd ff ff 00 	movl   $0x0,-0x2bc(%rbp)
    889e:	00 00 00 
    88a1:	eb 1e                	jmp    88c1 <func_11+0x10f>
    88a3:	8b 85 44 fd ff ff    	mov    -0x2bc(%rbp),%eax
    88a9:	48 98                	cltq   
    88ab:	48 8d 15 ee 39 01 00 	lea    0x139ee(%rip),%rdx        # 1c2a0 <g_2003>
    88b2:	48 89 94 c5 90 fd ff 	mov    %rdx,-0x270(%rbp,%rax,8)
    88b9:	ff 
    88ba:	83 85 44 fd ff ff 01 	addl   $0x1,-0x2bc(%rbp)
    88c1:	83 bd 44 fd ff ff 03 	cmpl   $0x3,-0x2bc(%rbp)
    88c8:	7e d9                	jle    88a3 <func_11+0xf1>
    88ca:	c7 05 38 29 01 00 f5 	movl   $0xfffffff5,0x12938(%rip)        # 1b20c <g_2258>
    88d1:	ff ff ff 
    88d4:	e9 46 05 00 00       	jmpq   8e1f <func_11+0x66d>
    88d9:	48 8d 85 20 fe ff ff 	lea    -0x1e0(%rbp),%rax
    88e0:	48 8d 15 39 2d 01 00 	lea    0x12d39(%rip),%rdx        # 1b620 <g_2786+0x1f0>
    88e7:	b9 36 00 00 00       	mov    $0x36,%ecx
    88ec:	48 89 c7             	mov    %rax,%rdi
    88ef:	48 89 d6             	mov    %rdx,%rsi
    88f2:	f3 48 a5             	rep movsq %ds:(%rsi),%es:(%rdi)
    88f5:	48 8d 05 8c 1f 01 00 	lea    0x11f8c(%rip),%rax        # 1a888 <g_219+0x8>
    88fc:	48 89 85 70 fd ff ff 	mov    %rax,-0x290(%rbp)
    8903:	c7 85 4c fd ff ff 01 	movl   $0x1,-0x2b4(%rbp)
    890a:	00 00 00 
    890d:	c7 85 50 fd ff ff 09 	movl   $0xe7f15809,-0x2b0(%rbp)
    8914:	58 f1 e7 
    8917:	c7 85 54 fd ff ff ff 	movl   $0xffffffff,-0x2ac(%rbp)
    891e:	ff ff ff 
    8921:	c7 85 58 fd ff ff 01 	movl   $0x1,-0x2a8(%rbp)
    8928:	00 00 00 
    892b:	8b 85 20 fd ff ff    	mov    -0x2e0(%rbp),%eax
    8931:	0f b6 d8             	movzbl %al,%ebx
    8934:	48 8b 05 75 37 01 00 	mov    0x13775(%rip),%rax        # 1c0b0 <g_1312>
    893b:	66 c7 00 01 00       	movw   $0x1,(%rax)
    8940:	44 8b a5 24 fd ff ff 	mov    -0x2dc(%rbp),%r12d
    8947:	44 8b ad 4c fd ff ff 	mov    -0x2b4(%rbp),%r13d
    894e:	8b 85 4c fd ff ff    	mov    -0x2b4(%rbp),%eax
    8954:	44 0f b7 f0          	movzwl %ax,%r14d
    8958:	8b 85 4c fd ff ff    	mov    -0x2b4(%rbp),%eax
    895e:	48 98                	cltq   
    8960:	48 89 c7             	mov    %rax,%rdi
    8963:	e8 ae ce ff ff       	callq  5816 <safe_unary_minus_func_int64_t_s>
    8968:	98                   	cwtl   
    8969:	be ff ff ff ff       	mov    $0xffffffff,%esi
    896e:	89 c7                	mov    %eax,%edi
    8970:	e8 e0 ca ff ff       	callq  5455 <safe_div_func_int16_t_s_s>
    8975:	98                   	cwtl   
    8976:	39 85 28 fd ff ff    	cmp    %eax,-0x2d8(%rbp)
    897c:	0f 94 c0             	sete   %al
    897f:	0f b6 c0             	movzbl %al,%eax
    8982:	44 89 f6             	mov    %r14d,%esi
    8985:	89 c7                	mov    %eax,%edi
    8987:	e8 73 d3 ff ff       	callq  5cff <safe_add_func_uint16_t_u_u>
    898c:	8b 85 24 fd ff ff    	mov    -0x2dc(%rbp),%eax
    8992:	44 89 ee             	mov    %r13d,%esi
    8995:	89 c7                	mov    %eax,%edi
    8997:	e8 34 d5 ff ff       	callq  5ed0 <safe_sub_func_uint32_t_u_u>
    899c:	44 89 e6             	mov    %r12d,%esi
    899f:	89 c7                	mov    %eax,%edi
    89a1:	e8 59 cd ff ff       	callq  56ff <safe_div_func_int32_t_s_s>
    89a6:	8b 85 40 fd ff ff    	mov    -0x2c0(%rbp),%eax
    89ac:	83 f8 01             	cmp    $0x1,%eax
    89af:	0f 94 c2             	sete   %dl
    89b2:	48 8b 05 2f 34 01 00 	mov    0x1342f(%rip),%rax        # 1bde8 <g_537>
    89b9:	88 10                	mov    %dl,(%rax)
    89bb:	0f b6 00             	movzbl (%rax),%eax
    89be:	0f be c0             	movsbl %al,%eax
    89c1:	39 85 24 fd ff ff    	cmp    %eax,-0x2dc(%rbp)
    89c7:	0f 94 c0             	sete   %al
    89ca:	0f b6 c0             	movzbl %al,%eax
    89cd:	39 85 24 fd ff ff    	cmp    %eax,-0x2dc(%rbp)
    89d3:	0f 97 c0             	seta   %al
    89d6:	89 c2                	mov    %eax,%edx
    89d8:	8b 85 4c fd ff ff    	mov    -0x2b4(%rbp),%eax
    89de:	21 d0                	and    %edx,%eax
    89e0:	44 0f b6 e0          	movzbl %al,%r12d
    89e4:	48 8b 85 18 fe ff ff 	mov    -0x1e8(%rbp),%rax
    89eb:	48 85 c0             	test   %rax,%rax
    89ee:	0f 94 c0             	sete   %al
    89f1:	0f b6 c0             	movzbl %al,%eax
    89f4:	89 c7                	mov    %eax,%edi
    89f6:	e8 ab d4 ff ff       	callq  5ea6 <safe_unary_minus_func_uint32_t_u>
    89fb:	89 c2                	mov    %eax,%edx
    89fd:	48 8b 85 70 fd ff ff 	mov    -0x290(%rbp),%rax
    8a04:	66 89 10             	mov    %dx,(%rax)
    8a07:	48 8b 85 70 fd ff ff 	mov    -0x290(%rbp),%rax
    8a0e:	0f b7 00             	movzwl (%rax),%eax
    8a11:	0f bf f0             	movswl %ax,%esi
    8a14:	48 8d 15 25 28 01 00 	lea    0x12825(%rip),%rdx        # 1b240 <g_2365>
    8a1b:	0f b7 02             	movzwl (%rdx),%eax
    8a1e:	8d 48 ff             	lea    -0x1(%rax),%ecx
    8a21:	66 89 0a             	mov    %cx,(%rdx)
    8a24:	0f b7 c0             	movzwl %ax,%eax
    8a27:	39 c6                	cmp    %eax,%esi
    8a29:	0f 9e c0             	setle  %al
    8a2c:	0f b6 c0             	movzbl %al,%eax
    8a2f:	44 89 e6             	mov    %r12d,%esi
    8a32:	89 c7                	mov    %eax,%edi
    8a34:	e8 75 d1 ff ff       	callq  5bae <safe_mod_func_uint8_t_u_u>
    8a39:	83 bd 20 fd ff ff 00 	cmpl   $0x0,-0x2e0(%rbp)
    8a40:	75 15                	jne    8a57 <func_11+0x2a5>
    8a42:	48 8b 05 07 37 01 00 	mov    0x13707(%rip),%rax        # 1c150 <g_1371>
    8a49:	48 8b 00             	mov    (%rax),%rax
    8a4c:	48 8b 00             	mov    (%rax),%rax
    8a4f:	48 8b 00             	mov    (%rax),%rax
    8a52:	48 85 c0             	test   %rax,%rax
    8a55:	74 07                	je     8a5e <func_11+0x2ac>
    8a57:	b8 01 00 00 00       	mov    $0x1,%eax
    8a5c:	eb 05                	jmp    8a63 <func_11+0x2b1>
    8a5e:	b8 00 00 00 00       	mov    $0x0,%eax
    8a63:	0f b6 c0             	movzbl %al,%eax
    8a66:	89 de                	mov    %ebx,%esi
    8a68:	89 c7                	mov    %eax,%edi
    8a6a:	e8 3f d1 ff ff       	callq  5bae <safe_mod_func_uint8_t_u_u>
    8a6f:	48 8b 45 c8          	mov    -0x38(%rbp),%rax
    8a73:	48 85 c0             	test   %rax,%rax
    8a76:	0f 95 c2             	setne  %dl
    8a79:	48 8b 05 28 37 01 00 	mov    0x13728(%rip),%rax        # 1c1a8 <g_1718>
    8a80:	48 8b 00             	mov    (%rax),%rax
    8a83:	0f b6 d2             	movzbl %dl,%edx
    8a86:	89 10                	mov    %edx,(%rax)
    8a88:	83 bd 24 fd ff ff 00 	cmpl   $0x0,-0x2dc(%rbp)
    8a8f:	74 0b                	je     8a9c <func_11+0x2ea>
    8a91:	8b 85 24 fd ff ff    	mov    -0x2dc(%rbp),%eax
    8a97:	e9 98 03 00 00       	jmpq   8e34 <func_11+0x682>
    8a9c:	c6 85 3f fd ff ff ff 	movb   $0xff,-0x2c1(%rbp)
    8aa3:	c7 85 48 fd ff ff 00 	movl   $0x0,-0x2b8(%rbp)
    8aaa:	00 00 00 
    8aad:	eb 1a                	jmp    8ac9 <func_11+0x317>
    8aaf:	8b 85 48 fd ff ff    	mov    -0x2b8(%rbp),%eax
    8ab5:	48 98                	cltq   
    8ab7:	c7 84 85 b0 fd ff ff 	movl   $0xfffffffe,-0x250(%rbp,%rax,4)
    8abe:	fe ff ff ff 
    8ac2:	83 85 48 fd ff ff 01 	addl   $0x1,-0x2b8(%rbp)
    8ac9:	83 bd 48 fd ff ff 08 	cmpl   $0x8,-0x2b8(%rbp)
    8ad0:	7e dd                	jle    8aaf <func_11+0x2fd>
    8ad2:	48 c7 05 7b 15 01 00 	movq   $0x0,0x1157b(%rip)        # 1a058 <g_115>
    8ad9:	00 00 00 00 
    8add:	eb 3a                	jmp    8b19 <func_11+0x367>
    8adf:	c7 85 5c fd ff ff c5 	movl   $0xb7c761c5,-0x2a4(%rbp)
    8ae6:	61 c7 b7 
    8ae9:	80 bd 3f fd ff ff 00 	cmpb   $0x0,-0x2c1(%rbp)
    8af0:	75 36                	jne    8b28 <func_11+0x376>
    8af2:	83 85 5c fd ff ff 01 	addl   $0x1,-0x2a4(%rbp)
    8af9:	48 8b 05 58 15 01 00 	mov    0x11558(%rip),%rax        # 1a058 <g_115>
    8b00:	0f b6 c0             	movzbl %al,%eax
    8b03:	be 01 00 00 00       	mov    $0x1,%esi
    8b08:	89 c7                	mov    %eax,%edi
    8b0a:	e8 4b d0 ff ff       	callq  5b5a <safe_add_func_uint8_t_u_u>
    8b0f:	0f b6 c0             	movzbl %al,%eax
    8b12:	48 89 05 3f 15 01 00 	mov    %rax,0x1153f(%rip)        # 1a058 <g_115>
    8b19:	48 8b 05 38 15 01 00 	mov    0x11538(%rip),%rax        # 1a058 <g_115>
    8b20:	48 83 f8 09          	cmp    $0x9,%rax
    8b24:	77 b9                	ja     8adf <func_11+0x32d>
    8b26:	eb 01                	jmp    8b29 <func_11+0x377>
    8b28:	90                   	nop
    8b29:	c7 85 28 fd ff ff 00 	movl   $0x0,-0x2d8(%rbp)
    8b30:	00 00 00 
    8b33:	e9 97 02 00 00       	jmpq   8dcf <func_11+0x61d>
    8b38:	c7 85 60 fd ff ff 5c 	movl   $0x3e53ca5c,-0x2a0(%rbp)
    8b3f:	ca 53 3e 
    8b42:	83 bd 28 fd ff ff 00 	cmpl   $0x0,-0x2d8(%rbp)
    8b49:	0f 85 8f 02 00 00    	jne    8dde <func_11+0x62c>
    8b4f:	48 8b 15 da 35 01 00 	mov    0x135da(%rip),%rdx        # 1c130 <g_1310>
    8b56:	48 8b 05 d3 35 01 00 	mov    0x135d3(%rip),%rax        # 1c130 <g_1310>
    8b5d:	48 8b 12             	mov    (%rdx),%rdx
    8b60:	48 89 10             	mov    %rdx,(%rax)
    8b63:	c7 85 20 fd ff ff 00 	movl   $0x0,-0x2e0(%rbp)
    8b6a:	00 00 00 
    8b6d:	e9 c2 01 00 00       	jmpq   8d34 <func_11+0x582>
    8b72:	c7 85 64 fd ff ff 08 	movl   $0x8,-0x29c(%rbp)
    8b79:	00 00 00 
    8b7c:	48 8d 05 2d 23 01 00 	lea    0x1232d(%rip),%rax        # 1aeb0 <g_1457>
    8b83:	48 89 85 78 fd ff ff 	mov    %rax,-0x288(%rbp)
    8b8a:	c7 05 88 1d 01 00 00 	movl   $0x0,0x11d88(%rip)        # 1a91c <g_768>
    8b91:	00 00 00 
    8b94:	90                   	nop
    8b95:	8b 05 81 1d 01 00    	mov    0x11d81(%rip),%eax        # 1a91c <g_768>
    8b9b:	83 f8 07             	cmp    $0x7,%eax
    8b9e:	0f 87 72 01 00 00    	ja     8d16 <func_11+0x564>
    8ba4:	48 8d 05 65 1d 01 00 	lea    0x11d65(%rip),%rax        # 1a910 <g_578>
    8bab:	48 89 85 80 fd ff ff 	mov    %rax,-0x280(%rbp)
    8bb2:	48 8d 05 e7 1c 01 00 	lea    0x11ce7(%rip),%rax        # 1a8a0 <g_246>
    8bb9:	48 89 85 88 fd ff ff 	mov    %rax,-0x278(%rbp)
    8bc0:	8b 85 20 fd ff ff    	mov    -0x2e0(%rbp),%eax
    8bc6:	48 63 d8             	movslq %eax,%rbx
    8bc9:	8b 85 60 fd ff ff    	mov    -0x2a0(%rbp),%eax
    8bcf:	23 85 20 fd ff ff    	and    -0x2e0(%rbp),%eax
    8bd5:	85 c0                	test   %eax,%eax
    8bd7:	0f 85 93 00 00 00    	jne    8c70 <func_11+0x4be>
    8bdd:	8b 95 54 fd ff ff    	mov    -0x2ac(%rbp),%edx
    8be3:	48 8b 85 80 fd ff ff 	mov    -0x280(%rbp),%rax
    8bea:	8b 00                	mov    (%rax),%eax
    8bec:	8d 70 01             	lea    0x1(%rax),%esi
    8bef:	48 8b 8d 80 fd ff ff 	mov    -0x280(%rbp),%rcx
    8bf6:	89 31                	mov    %esi,(%rcx)
    8bf8:	48 8b 8d 88 fd ff ff 	mov    -0x278(%rbp),%rcx
    8bff:	89 01                	mov    %eax,(%rcx)
    8c01:	48 8b 85 88 fd ff ff 	mov    -0x278(%rbp),%rax
    8c08:	8b 00                	mov    (%rax),%eax
    8c0a:	8b 8d c0 fd ff ff    	mov    -0x240(%rbp),%ecx
    8c10:	31 c8                	xor    %ecx,%eax
    8c12:	89 d6                	mov    %edx,%esi
    8c14:	89 c7                	mov    %eax,%edi
    8c16:	e8 b5 d2 ff ff       	callq  5ed0 <safe_sub_func_uint32_t_u_u>
    8c1b:	41 89 c4             	mov    %eax,%r12d
    8c1e:	8b 85 28 fd ff ff    	mov    -0x2d8(%rbp),%eax
    8c24:	0f b6 c0             	movzbl %al,%eax
    8c27:	be 01 00 00 00       	mov    $0x1,%esi
    8c2c:	89 c7                	mov    %eax,%edi
    8c2e:	e8 8b d0 ff ff       	callq  5cbe <safe_rshift_func_uint8_t_u_u>
    8c33:	84 c0                	test   %al,%al
    8c35:	74 11                	je     8c48 <func_11+0x496>
    8c37:	83 bd 20 fd ff ff 00 	cmpl   $0x0,-0x2e0(%rbp)
    8c3e:	74 08                	je     8c48 <func_11+0x496>
    8c40:	41 bd 01 00 00 00    	mov    $0x1,%r13d
    8c46:	eb 06                	jmp    8c4e <func_11+0x49c>
    8c48:	41 bd 00 00 00 00    	mov    $0x0,%r13d
    8c4e:	8b 85 50 fd ff ff    	mov    -0x2b0(%rbp),%eax
    8c54:	be 01 00 00 00       	mov    $0x1,%esi
    8c59:	89 c7                	mov    %eax,%edi
    8c5b:	e8 6c ca ff ff       	callq  56cc <safe_mod_func_int32_t_s_s>
    8c60:	41 39 c5             	cmp    %eax,%r13d
    8c63:	0f 95 c0             	setne  %al
    8c66:	0f b6 c0             	movzbl %al,%eax
    8c69:	44 09 e0             	or     %r12d,%eax
    8c6c:	85 c0                	test   %eax,%eax
    8c6e:	74 07                	je     8c77 <func_11+0x4c5>
    8c70:	ba 01 00 00 00       	mov    $0x1,%edx
    8c75:	eb 05                	jmp    8c7c <func_11+0x4ca>
    8c77:	ba 00 00 00 00       	mov    $0x0,%edx
    8c7c:	48 8d 05 bd 25 01 00 	lea    0x125bd(%rip),%rax        # 1b240 <g_2365>
    8c83:	0f b7 00             	movzwl (%rax),%eax
    8c86:	0f b7 c0             	movzwl %ax,%eax
    8c89:	39 c2                	cmp    %eax,%edx
    8c8b:	0f 94 c0             	sete   %al
    8c8e:	0f b6 d0             	movzbl %al,%edx
    8c91:	8b 85 d0 fd ff ff    	mov    -0x230(%rbp),%eax
    8c97:	21 d0                	and    %edx,%eax
    8c99:	48 98                	cltq   
    8c9b:	48 89 de             	mov    %rbx,%rsi
    8c9e:	48 89 c7             	mov    %rax,%rdi
    8ca1:	e8 9b cb ff ff       	callq  5841 <safe_add_func_int64_t_s_s>
    8ca6:	48 85 c0             	test   %rax,%rax
    8ca9:	74 10                	je     8cbb <func_11+0x509>
    8cab:	83 bd 24 fd ff ff 00 	cmpl   $0x0,-0x2dc(%rbp)
    8cb2:	74 07                	je     8cbb <func_11+0x509>
    8cb4:	b8 01 00 00 00       	mov    $0x1,%eax
    8cb9:	eb 05                	jmp    8cc0 <func_11+0x50e>
    8cbb:	b8 00 00 00 00       	mov    $0x0,%eax
    8cc0:	be 7f db 94 24       	mov    $0x2494db7f,%esi
    8cc5:	89 c7                	mov    %eax,%edi
    8cc7:	e8 39 c9 ff ff       	callq  5605 <safe_sub_func_int32_t_s_s>
    8ccc:	83 bd 20 fd ff ff 00 	cmpl   $0x0,-0x2e0(%rbp)
    8cd3:	0f 9f c0             	setg   %al
    8cd6:	0f b6 c0             	movzbl %al,%eax
    8cd9:	09 85 64 fd ff ff    	or     %eax,-0x29c(%rbp)
    8cdf:	48 8b 05 ba 21 01 00 	mov    0x121ba(%rip),%rax        # 1aea0 <g_1454>
    8ce6:	48 8b 05 b3 35 01 00 	mov    0x135b3(%rip),%rax        # 1c2a0 <g_2003>
    8ced:	48 8b 00             	mov    (%rax),%rax
    8cf0:	48 8b 95 68 fd ff ff 	mov    -0x298(%rbp),%rdx
    8cf7:	48 89 10             	mov    %rdx,(%rax)
    8cfa:	48 8b 05 3f 33 01 00 	mov    0x1333f(%rip),%rax        # 1c040 <g_878>
    8d01:	48 8b 95 78 fd ff ff 	mov    -0x288(%rbp),%rdx
    8d08:	48 89 10             	mov    %rdx,(%rax)
    8d0b:	8b 85 c0 fd ff ff    	mov    -0x240(%rbp),%eax
    8d11:	e9 1e 01 00 00       	jmpq   8e34 <func_11+0x682>
    8d16:	8b 85 20 fd ff ff    	mov    -0x2e0(%rbp),%eax
    8d1c:	0f be c0             	movsbl %al,%eax
    8d1f:	be 01 00 00 00       	mov    $0x1,%esi
    8d24:	89 c7                	mov    %eax,%edi
    8d26:	e8 c7 c4 ff ff       	callq  51f2 <safe_sub_func_int8_t_s_s>
    8d2b:	0f be c0             	movsbl %al,%eax
    8d2e:	89 85 20 fd ff ff    	mov    %eax,-0x2e0(%rbp)
    8d34:	83 bd 20 fd ff ff f1 	cmpl   $0xfffffff1,-0x2e0(%rbp)
    8d3b:	0f 84 31 fe ff ff    	je     8b72 <func_11+0x3c0>
    8d41:	c7 05 05 13 01 00 00 	movl   $0x0,0x11305(%rip)        # 1a050 <g_100>
    8d48:	00 00 00 
    8d4b:	eb 59                	jmp    8da6 <func_11+0x5f4>
    8d4d:	c7 05 b9 1b 01 00 00 	movl   $0x0,0x11bb9(%rip)        # 1a910 <g_578>
    8d54:	00 00 00 
    8d57:	eb 30                	jmp    8d89 <func_11+0x5d7>
    8d59:	83 bd 2c fd ff ff 00 	cmpl   $0x0,-0x2d4(%rbp)
    8d60:	75 34                	jne    8d96 <func_11+0x5e4>
    8d62:	48 8b 05 37 35 01 00 	mov    0x13537(%rip),%rax        # 1c2a0 <g_2003>
    8d69:	48 8b 00             	mov    (%rax),%rax
    8d6c:	48 8d 95 b0 fd ff ff 	lea    -0x250(%rbp),%rdx
    8d73:	48 83 c2 18          	add    $0x18,%rdx
    8d77:	48 89 10             	mov    %rdx,(%rax)
    8d7a:	8b 05 90 1b 01 00    	mov    0x11b90(%rip),%eax        # 1a910 <g_578>
    8d80:	83 c0 01             	add    $0x1,%eax
    8d83:	89 05 87 1b 01 00    	mov    %eax,0x11b87(%rip)        # 1a910 <g_578>
    8d89:	8b 05 81 1b 01 00    	mov    0x11b81(%rip),%eax        # 1a910 <g_578>
    8d8f:	83 f8 08             	cmp    $0x8,%eax
    8d92:	76 c5                	jbe    8d59 <func_11+0x5a7>
    8d94:	eb 01                	jmp    8d97 <func_11+0x5e5>
    8d96:	90                   	nop
    8d97:	8b 05 b3 12 01 00    	mov    0x112b3(%rip),%eax        # 1a050 <g_100>
    8d9d:	83 c0 01             	add    $0x1,%eax
    8da0:	89 05 aa 12 01 00    	mov    %eax,0x112aa(%rip)        # 1a050 <g_100>
    8da6:	8b 05 a4 12 01 00    	mov    0x112a4(%rip),%eax        # 1a050 <g_100>
    8dac:	83 f8 08             	cmp    $0x8,%eax
    8daf:	76 9c                	jbe    8d4d <func_11+0x59b>
    8db1:	8b 85 28 fd ff ff    	mov    -0x2d8(%rbp),%eax
    8db7:	0f b7 c0             	movzwl %ax,%eax
    8dba:	be 06 00 00 00       	mov    $0x6,%esi
    8dbf:	89 c7                	mov    %eax,%edi
    8dc1:	e8 39 cf ff ff       	callq  5cff <safe_add_func_uint16_t_u_u>
    8dc6:	0f b7 c0             	movzwl %ax,%eax
    8dc9:	89 85 28 fd ff ff    	mov    %eax,-0x2d8(%rbp)
    8dcf:	83 bd 28 fd ff ff 14 	cmpl   $0x14,-0x2d8(%rbp)
    8dd6:	0f 8e 5c fd ff ff    	jle    8b38 <func_11+0x386>
    8ddc:	eb 01                	jmp    8ddf <func_11+0x62d>
    8dde:	90                   	nop
    8ddf:	48 8b 05 b2 3c 01 00 	mov    0x13cb2(%rip),%rax        # 1ca98 <g_2231>
    8de6:	48 8b 00             	mov    (%rax),%rax
    8de9:	48 85 c0             	test   %rax,%rax
    8dec:	0f 94 c2             	sete   %dl
    8def:	48 8b 05 f2 33 01 00 	mov    0x133f2(%rip),%rax        # 1c1e8 <g_1715>
    8df6:	48 8b 00             	mov    (%rax),%rax
    8df9:	48 8b 00             	mov    (%rax),%rax
    8dfc:	48 8b 00             	mov    (%rax),%rax
    8dff:	48 8b 00             	mov    (%rax),%rax
    8e02:	0f b6 d2             	movzbl %dl,%edx
    8e05:	89 10                	mov    %edx,(%rax)
    8e07:	83 bd 24 fd ff ff 00 	cmpl   $0x0,-0x2dc(%rbp)
    8e0e:	75 1e                	jne    8e2e <func_11+0x67c>
    8e10:	8b 05 f6 23 01 00    	mov    0x123f6(%rip),%eax        # 1b20c <g_2258>
    8e16:	83 c0 01             	add    $0x1,%eax
    8e19:	89 05 ed 23 01 00    	mov    %eax,0x123ed(%rip)        # 1b20c <g_2258>
    8e1f:	8b 05 e7 23 01 00    	mov    0x123e7(%rip),%eax        # 1b20c <g_2258>
    8e25:	83 f8 25             	cmp    $0x25,%eax
    8e28:	0f 87 ab fa ff ff    	ja     88d9 <func_11+0x127>
    8e2e:	8b 85 20 fd ff ff    	mov    -0x2e0(%rbp),%eax
    8e34:	48 8b 5d d8          	mov    -0x28(%rbp),%rbx
    8e38:	64 48 33 1c 25 28 00 	xor    %fs:0x28,%rbx
    8e3f:	00 00 
    8e41:	74 05                	je     8e48 <func_11+0x696>
    8e43:	e8 28 c2 ff ff       	callq  5070 <__stack_chk_fail@plt>
    8e48:	48 81 c4 c0 02 00 00 	add    $0x2c0,%rsp
    8e4f:	5b                   	pop    %rbx
    8e50:	41 5c                	pop    %r12
    8e52:	41 5d                	pop    %r13
    8e54:	41 5e                	pop    %r14
    8e56:	5d                   	pop    %rbp
    8e57:	c3                   	retq   

0000000000008e58 <func_42>:
    8e58:	f3 0f 1e fa          	endbr64 
    8e5c:	55                   	push   %rbp
    8e5d:	48 89 e5             	mov    %rsp,%rbp
    8e60:	41 57                	push   %r15
    8e62:	41 56                	push   %r14
    8e64:	41 55                	push   %r13
    8e66:	41 54                	push   %r12
    8e68:	53                   	push   %rbx
    8e69:	48 81 ec 00 10 00 00 	sub    $0x1000,%rsp
    8e70:	48 83 0c 24 00       	orq    $0x0,(%rsp)
    8e75:	48 83 ec 48          	sub    $0x48,%rsp
    8e79:	48 89 bd a8 ef ff ff 	mov    %rdi,-0x1058(%rbp)
    8e80:	64 48 8b 04 25 28 00 	mov    %fs:0x28,%rax
    8e87:	00 00 
    8e89:	48 89 45 c8          	mov    %rax,-0x38(%rbp)
    8e8d:	31 c0                	xor    %eax,%eax
    8e8f:	c7 85 e0 ef ff ff 7a 	movl   $0x7b02bc7a,-0x1020(%rbp)
    8e96:	bc 02 7b 
    8e99:	48 c7 85 40 f1 ff ff 	movq   $0x0,-0xec0(%rbp)
    8ea0:	00 00 00 00 
    8ea4:	48 8d 85 40 f1 ff ff 	lea    -0xec0(%rbp),%rax
    8eab:	48 89 85 48 f1 ff ff 	mov    %rax,-0xeb8(%rbp)
    8eb2:	48 8d 85 48 f1 ff ff 	lea    -0xeb8(%rbp),%rax
    8eb9:	48 89 85 d0 f1 ff ff 	mov    %rax,-0xe30(%rbp)
    8ec0:	c7 85 74 f0 ff ff 82 	movl   $0xde1ee682,-0xf8c(%rbp)
    8ec7:	e6 1e de 
    8eca:	48 c7 85 d8 f1 ff ff 	movq   $0x0,-0xe28(%rbp)
    8ed1:	00 00 00 00 
    8ed5:	c7 85 e4 ef ff ff 01 	movl   $0x1,-0x101c(%rbp)
    8edc:	00 00 00 
    8edf:	c7 85 e8 ef ff ff ff 	movl   $0xffffffff,-0x1018(%rbp)
    8ee6:	ff ff ff 
    8ee9:	c7 85 ec ef ff ff d8 	movl   $0x911d1dd8,-0x1014(%rbp)
    8ef0:	1d 1d 91 
    8ef3:	c7 85 f0 ef ff ff 01 	movl   $0x1,-0x1010(%rbp)
    8efa:	00 00 00 
    8efd:	48 8d 05 d4 31 01 00 	lea    0x131d4(%rip),%rax        # 1c0d8 <g_1311+0x18>
    8f04:	48 89 85 50 f1 ff ff 	mov    %rax,-0xeb0(%rbp)
    8f0b:	48 8d 85 50 f1 ff ff 	lea    -0xeb0(%rbp),%rax
    8f12:	48 89 85 40 f6 ff ff 	mov    %rax,-0x9c0(%rbp)
    8f19:	48 8d 85 50 f1 ff ff 	lea    -0xeb0(%rbp),%rax
    8f20:	48 89 85 48 f6 ff ff 	mov    %rax,-0x9b8(%rbp)
    8f27:	48 8d 85 50 f1 ff ff 	lea    -0xeb0(%rbp),%rax
    8f2e:	48 89 85 50 f6 ff ff 	mov    %rax,-0x9b0(%rbp)
    8f35:	48 8d 85 50 f1 ff ff 	lea    -0xeb0(%rbp),%rax
    8f3c:	48 89 85 58 f6 ff ff 	mov    %rax,-0x9a8(%rbp)
    8f43:	48 8d 85 50 f1 ff ff 	lea    -0xeb0(%rbp),%rax
    8f4a:	48 89 85 60 f6 ff ff 	mov    %rax,-0x9a0(%rbp)
    8f51:	48 8d 85 50 f1 ff ff 	lea    -0xeb0(%rbp),%rax
    8f58:	48 89 85 68 f6 ff ff 	mov    %rax,-0x998(%rbp)
    8f5f:	48 8d 85 50 f1 ff ff 	lea    -0xeb0(%rbp),%rax
    8f66:	48 89 85 70 f6 ff ff 	mov    %rax,-0x990(%rbp)
    8f6d:	48 8d 85 50 f1 ff ff 	lea    -0xeb0(%rbp),%rax
    8f74:	48 89 85 78 f6 ff ff 	mov    %rax,-0x988(%rbp)
    8f7b:	48 8d 85 50 f1 ff ff 	lea    -0xeb0(%rbp),%rax
    8f82:	48 89 85 80 f6 ff ff 	mov    %rax,-0x980(%rbp)
    8f89:	c6 85 b6 ef ff ff ff 	movb   $0xff,-0x104a(%rbp)
    8f90:	c6 85 b8 ef ff ff 00 	movb   $0x0,-0x1048(%rbp)
    8f97:	48 b8 e9 ee 20 5d 41 	movabs $0xe246de415d20eee9,%rax
    8f9e:	de 46 e2 
    8fa1:	48 89 85 30 f7 ff ff 	mov    %rax,-0x8d0(%rbp)
    8fa8:	48 c7 85 38 f7 ff ff 	movq   $0x1,-0x8c8(%rbp)
    8faf:	01 00 00 00 
    8fb3:	48 c7 85 40 f7 ff ff 	movq   $0x1,-0x8c0(%rbp)
    8fba:	01 00 00 00 
    8fbe:	48 89 85 48 f7 ff ff 	mov    %rax,-0x8b8(%rbp)
    8fc5:	48 c7 85 50 f7 ff ff 	movq   $0xffffffffffffffff,-0x8b0(%rbp)
    8fcc:	ff ff ff ff 
    8fd0:	48 89 85 58 f7 ff ff 	mov    %rax,-0x8a8(%rbp)
    8fd7:	48 c7 85 60 f7 ff ff 	movq   $0x1,-0x8a0(%rbp)
    8fde:	01 00 00 00 
    8fe2:	48 c7 85 68 f7 ff ff 	movq   $0x1,-0x898(%rbp)
    8fe9:	01 00 00 00 
    8fed:	48 89 85 70 f7 ff ff 	mov    %rax,-0x890(%rbp)
    8ff4:	48 c7 85 78 f7 ff ff 	movq   $0xffffffffffffffff,-0x888(%rbp)
    8ffb:	ff ff ff ff 
    8fff:	c7 85 70 f5 ff ff 57 	movl   $0x12cbf557,-0xa90(%rbp)
    9006:	f5 cb 12 
    9009:	c7 85 74 f5 ff ff 57 	movl   $0x12cbf557,-0xa8c(%rbp)
    9010:	f5 cb 12 
    9013:	c7 85 78 f5 ff ff 57 	movl   $0x12cbf557,-0xa88(%rbp)
    901a:	f5 cb 12 
    901d:	c7 85 7c f5 ff ff 57 	movl   $0x12cbf557,-0xa84(%rbp)
    9024:	f5 cb 12 
    9027:	c7 85 80 f5 ff ff 57 	movl   $0x12cbf557,-0xa80(%rbp)
    902e:	f5 cb 12 
    9031:	66 c7 85 c6 ef ff ff 	movw   $0xb76,-0x103a(%rbp)
    9038:	76 0b 
    903a:	c7 85 78 f0 ff ff d5 	movl   $0xf91f76d5,-0xf88(%rbp)
    9041:	76 1f f9 
    9044:	c7 85 90 f8 ff ff 41 	movl   $0xe0af8641,-0x770(%rbp)
    904b:	86 af e0 
    904e:	c7 85 94 f8 ff ff 85 	movl   $0x47115385,-0x76c(%rbp)
    9055:	53 11 47 
    9058:	c7 85 98 f8 ff ff 85 	movl   $0x47115385,-0x768(%rbp)
    905f:	53 11 47 
    9062:	c7 85 9c f8 ff ff 41 	movl   $0xe0af8641,-0x764(%rbp)
    9069:	86 af e0 
    906c:	c7 85 a0 f8 ff ff 85 	movl   $0x47115385,-0x760(%rbp)
    9073:	53 11 47 
    9076:	c7 85 a4 f8 ff ff 85 	movl   $0x47115385,-0x75c(%rbp)
    907d:	53 11 47 
    9080:	c7 85 a8 f8 ff ff 41 	movl   $0xe0af8641,-0x758(%rbp)
    9087:	86 af e0 
    908a:	c7 85 ac f8 ff ff 85 	movl   $0x47115385,-0x754(%rbp)
    9091:	53 11 47 
    9094:	c7 85 b0 f8 ff ff 85 	movl   $0x47115385,-0x750(%rbp)
    909b:	53 11 47 
    909e:	c7 85 b4 f8 ff ff 41 	movl   $0xe0af8641,-0x74c(%rbp)
    90a5:	86 af e0 
    90a8:	c7 85 b8 f8 ff ff 85 	movl   $0x47115385,-0x748(%rbp)
    90af:	53 11 47 
    90b2:	c7 85 bc f8 ff ff 85 	movl   $0x47115385,-0x744(%rbp)
    90b9:	53 11 47 
    90bc:	c7 85 c0 f8 ff ff 41 	movl   $0xe0af8641,-0x740(%rbp)
    90c3:	86 af e0 
    90c6:	c7 85 c4 f8 ff ff 85 	movl   $0x47115385,-0x73c(%rbp)
    90cd:	53 11 47 
    90d0:	c7 85 c8 f8 ff ff 85 	movl   $0x47115385,-0x738(%rbp)
    90d7:	53 11 47 
    90da:	c7 85 cc f8 ff ff 41 	movl   $0xe0af8641,-0x734(%rbp)
    90e1:	86 af e0 
    90e4:	c7 85 d0 f8 ff ff 85 	movl   $0x47115385,-0x730(%rbp)
    90eb:	53 11 47 
    90ee:	c7 85 d4 f8 ff ff 85 	movl   $0x47115385,-0x72c(%rbp)
    90f5:	53 11 47 
    90f8:	c7 85 d8 f8 ff ff 41 	movl   $0xe0af8641,-0x728(%rbp)
    90ff:	86 af e0 
    9102:	c7 85 dc f8 ff ff 85 	movl   $0x47115385,-0x724(%rbp)
    9109:	53 11 47 
    910c:	c7 85 e0 f8 ff ff 85 	movl   $0x47115385,-0x720(%rbp)
    9113:	53 11 47 
    9116:	c7 85 e4 f8 ff ff 41 	movl   $0xe0af8641,-0x71c(%rbp)
    911d:	86 af e0 
    9120:	c7 85 e8 f8 ff ff 85 	movl   $0x47115385,-0x718(%rbp)
    9127:	53 11 47 
    912a:	c7 85 ec f8 ff ff 85 	movl   $0x47115385,-0x714(%rbp)
    9131:	53 11 47 
    9134:	c7 85 f0 f8 ff ff 41 	movl   $0xe0af8641,-0x710(%rbp)
    913b:	86 af e0 
    913e:	c7 85 f4 f8 ff ff 85 	movl   $0x47115385,-0x70c(%rbp)
    9145:	53 11 47 
    9148:	c7 85 f8 f8 ff ff 85 	movl   $0x47115385,-0x708(%rbp)
    914f:	53 11 47 
    9152:	c7 85 fc f8 ff ff 41 	movl   $0xe0af8641,-0x704(%rbp)
    9159:	86 af e0 
    915c:	c7 85 00 f9 ff ff 85 	movl   $0x47115385,-0x700(%rbp)
    9163:	53 11 47 
    9166:	c7 85 04 f9 ff ff 85 	movl   $0x47115385,-0x6fc(%rbp)
    916d:	53 11 47 
    9170:	c7 85 08 f9 ff ff 41 	movl   $0xe0af8641,-0x6f8(%rbp)
    9177:	86 af e0 
    917a:	c7 85 0c f9 ff ff 85 	movl   $0x47115385,-0x6f4(%rbp)
    9181:	53 11 47 
    9184:	c7 85 10 f9 ff ff 85 	movl   $0x47115385,-0x6f0(%rbp)
    918b:	53 11 47 
    918e:	c7 85 14 f9 ff ff 41 	movl   $0xe0af8641,-0x6ec(%rbp)
    9195:	86 af e0 
    9198:	c7 85 18 f9 ff ff 85 	movl   $0x47115385,-0x6e8(%rbp)
    919f:	53 11 47 
    91a2:	c7 85 1c f9 ff ff 85 	movl   $0x47115385,-0x6e4(%rbp)
    91a9:	53 11 47 
    91ac:	48 8d 85 ec ef ff ff 	lea    -0x1014(%rbp),%rax
    91b3:	48 89 85 90 f5 ff ff 	mov    %rax,-0xa70(%rbp)
    91ba:	48 8d 85 ec ef ff ff 	lea    -0x1014(%rbp),%rax
    91c1:	48 89 85 98 f5 ff ff 	mov    %rax,-0xa68(%rbp)
    91c8:	48 8d 85 ec ef ff ff 	lea    -0x1014(%rbp),%rax
    91cf:	48 89 85 a0 f5 ff ff 	mov    %rax,-0xa60(%rbp)
    91d6:	48 8d 85 ec ef ff ff 	lea    -0x1014(%rbp),%rax
    91dd:	48 89 85 a8 f5 ff ff 	mov    %rax,-0xa58(%rbp)
    91e4:	c6 85 b5 ef ff ff 01 	movb   $0x1,-0x104b(%rbp)
    91eb:	48 8d 05 ae 16 01 00 	lea    0x116ae(%rip),%rax        # 1a8a0 <g_246>
    91f2:	48 89 85 e0 f1 ff ff 	mov    %rax,-0xe20(%rbp)
    91f9:	48 8d 05 1c 17 01 00 	lea    0x1171c(%rip),%rax        # 1a91c <g_768>
    9200:	48 89 85 58 f1 ff ff 	mov    %rax,-0xea8(%rbp)
    9207:	48 8d 85 58 f1 ff ff 	lea    -0xea8(%rbp),%rax
    920e:	48 89 85 e8 f1 ff ff 	mov    %rax,-0xe18(%rbp)
    9215:	48 c7 85 60 f1 ff ff 	movq   $0x0,-0xea0(%rbp)
    921c:	00 00 00 00 
    9220:	48 8d 85 60 f1 ff ff 	lea    -0xea0(%rbp),%rax
    9227:	48 89 85 68 f1 ff ff 	mov    %rax,-0xe98(%rbp)
    922e:	48 8d 85 68 f1 ff ff 	lea    -0xe98(%rbp),%rax
    9235:	48 89 85 f0 f1 ff ff 	mov    %rax,-0xe10(%rbp)
    923c:	48 8d 05 a5 2b 01 00 	lea    0x12ba5(%rip),%rax        # 1bde8 <g_537>
    9243:	48 89 85 70 f1 ff ff 	mov    %rax,-0xe90(%rbp)
    924a:	48 8d 85 70 f1 ff ff 	lea    -0xe90(%rbp),%rax
    9251:	48 89 85 78 f1 ff ff 	mov    %rax,-0xe88(%rbp)
    9258:	48 8d 85 78 f1 ff ff 	lea    -0xe88(%rbp),%rax
    925f:	48 89 85 80 f1 ff ff 	mov    %rax,-0xe80(%rbp)
    9266:	c7 85 7c f0 ff ff ff 	movl   $0xffffffff,-0xf84(%rbp)
    926d:	ff ff ff 
    9270:	66 c7 85 c8 ef ff ff 	movw   $0xffff,-0x1038(%rbp)
    9277:	ff ff 
    9279:	c7 85 2c f0 ff ff 7b 	movl   $0x17490e7b,-0xfd4(%rbp)
    9280:	0e 49 17 
    9283:	48 b8 40 57 84 59 92 	movabs $0x605d4e9259845740,%rax
    928a:	4e 5d 60 
    928d:	48 89 85 f8 f1 ff ff 	mov    %rax,-0xe08(%rbp)
    9294:	48 8d 05 bd 37 01 00 	lea    0x137bd(%rip),%rax        # 1ca58 <g_2008+0x798>
    929b:	48 89 85 88 f1 ff ff 	mov    %rax,-0xe78(%rbp)
    92a2:	48 8d 85 88 f1 ff ff 	lea    -0xe78(%rbp),%rax
    92a9:	48 89 85 00 f2 ff ff 	mov    %rax,-0xe00(%rbp)
    92b0:	c7 85 28 f0 ff ff 00 	movl   $0x0,-0xfd8(%rbp)
    92b7:	00 00 00 
    92ba:	48 8d 05 c7 2e 01 00 	lea    0x12ec7(%rip),%rax        # 1c188 <g_1521>
    92c1:	48 89 85 08 f2 ff ff 	mov    %rax,-0xdf8(%rbp)
    92c8:	48 c7 85 80 f7 ff ff 	movq   $0xffffffffffffffff,-0x880(%rbp)
    92cf:	ff ff ff ff 
    92d3:	48 c7 85 88 f7 ff ff 	movq   $0xffffffffffffffff,-0x878(%rbp)
    92da:	ff ff ff ff 
    92de:	48 b8 11 18 d4 d7 c9 	movabs $0xd2a539c9d7d41811,%rax
    92e5:	39 a5 d2 
    92e8:	48 89 85 90 f7 ff ff 	mov    %rax,-0x870(%rbp)
    92ef:	48 c7 85 98 f7 ff ff 	movq   $0xffffffffffffffff,-0x868(%rbp)
    92f6:	ff ff ff ff 
    92fa:	48 c7 85 a0 f7 ff ff 	movq   $0xffffffffffffffff,-0x860(%rbp)
    9301:	ff ff ff ff 
    9305:	48 89 85 a8 f7 ff ff 	mov    %rax,-0x858(%rbp)
    930c:	48 c7 85 b0 f7 ff ff 	movq   $0xffffffffffffffff,-0x850(%rbp)
    9313:	ff ff ff ff 
    9317:	48 c7 85 b8 f7 ff ff 	movq   $0xffffffffffffffff,-0x848(%rbp)
    931e:	ff ff ff ff 
    9322:	48 89 85 c0 f7 ff ff 	mov    %rax,-0x840(%rbp)
    9329:	48 c7 85 c8 f7 ff ff 	movq   $0xffffffffffffffff,-0x838(%rbp)
    9330:	ff ff ff ff 
    9334:	66 c7 85 cc ef ff ff 	movw   $0x4,-0x1034(%rbp)
    933b:	04 00 
    933d:	48 8d 05 54 2e 01 00 	lea    0x12e54(%rip),%rax        # 1c198 <g_1570>
    9344:	48 89 85 90 f1 ff ff 	mov    %rax,-0xe70(%rbp)
    934b:	48 8d 85 90 f1 ff ff 	lea    -0xe70(%rbp),%rax
    9352:	48 89 85 10 f2 ff ff 	mov    %rax,-0xdf0(%rbp)
    9359:	c7 85 80 f0 ff ff f6 	movl   $0xfffffff6,-0xf80(%rbp)
    9360:	ff ff ff 
    9363:	48 c7 85 d0 f7 ff ff 	movq   $0x0,-0x830(%rbp)
    936a:	00 00 00 00 
    936e:	48 c7 85 d8 f7 ff ff 	movq   $0x0,-0x828(%rbp)
    9375:	00 00 00 00 
    9379:	48 c7 85 e0 f7 ff ff 	movq   $0x0,-0x820(%rbp)
    9380:	00 00 00 00 
    9384:	48 c7 85 e8 f7 ff ff 	movq   $0x0,-0x818(%rbp)
    938b:	00 00 00 00 
    938f:	48 c7 85 f0 f7 ff ff 	movq   $0x0,-0x810(%rbp)
    9396:	00 00 00 00 
    939a:	48 c7 85 f8 f7 ff ff 	movq   $0x0,-0x808(%rbp)
    93a1:	00 00 00 00 
    93a5:	48 c7 85 00 f8 ff ff 	movq   $0x0,-0x800(%rbp)
    93ac:	00 00 00 00 
    93b0:	48 c7 85 08 f8 ff ff 	movq   $0x0,-0x7f8(%rbp)
    93b7:	00 00 00 00 
    93bb:	48 c7 85 10 f8 ff ff 	movq   $0x0,-0x7f0(%rbp)
    93c2:	00 00 00 00 
    93c6:	48 c7 85 18 f8 ff ff 	movq   $0x0,-0x7e8(%rbp)
    93cd:	00 00 00 00 
    93d1:	c7 85 84 f0 ff ff f6 	movl   $0xfffffff6,-0xf7c(%rbp)
    93d8:	ff ff ff 
    93db:	c7 85 88 f0 ff ff 08 	movl   $0x2279d908,-0xf78(%rbp)
    93e2:	d9 79 22 
    93e5:	48 b8 ea 6e c7 5d 7c 	movabs $0xbc03d87c5dc76eea,%rax
    93ec:	d8 03 bc 
    93ef:	48 89 85 18 f2 ff ff 	mov    %rax,-0xde8(%rbp)
    93f6:	c7 85 24 f0 ff ff 00 	movl   $0x0,-0xfdc(%rbp)
    93fd:	00 00 00 
    9400:	eb 19                	jmp    941b <func_42+0x5c3>
    9402:	8b 85 24 f0 ff ff    	mov    -0xfdc(%rbp),%eax
    9408:	48 98                	cltq   
    940a:	66 c7 84 45 3c f5 ff 	movw   $0x6960,-0xac4(%rbp,%rax,2)
    9411:	ff 60 69 
    9414:	83 85 24 f0 ff ff 01 	addl   $0x1,-0xfdc(%rbp)
    941b:	83 bd 24 f0 ff ff 01 	cmpl   $0x1,-0xfdc(%rbp)
    9422:	7e de                	jle    9402 <func_42+0x5aa>
    9424:	c7 85 24 f0 ff ff 00 	movl   $0x0,-0xfdc(%rbp)
    942b:	00 00 00 
    942e:	eb 1e                	jmp    944e <func_42+0x5f6>
    9430:	8b 85 24 f0 ff ff    	mov    -0xfdc(%rbp),%eax
    9436:	48 98                	cltq   
    9438:	48 8d 15 a9 29 01 00 	lea    0x129a9(%rip),%rdx        # 1bde8 <g_537>
    943f:	48 89 94 c5 50 f5 ff 	mov    %rdx,-0xab0(%rbp,%rax,8)
    9446:	ff 
    9447:	83 85 24 f0 ff ff 01 	addl   $0x1,-0xfdc(%rbp)
    944e:	83 bd 24 f0 ff ff 01 	cmpl   $0x1,-0xfdc(%rbp)
    9455:	7e d9                	jle    9430 <func_42+0x5d8>
    9457:	c7 85 24 f0 ff ff 00 	movl   $0x0,-0xfdc(%rbp)
    945e:	00 00 00 
    9461:	eb 1b                	jmp    947e <func_42+0x626>
    9463:	8b 85 24 f0 ff ff    	mov    -0xfdc(%rbp),%eax
    9469:	48 98                	cltq   
    946b:	48 c7 84 c5 90 f6 ff 	movq   $0x0,-0x970(%rbp,%rax,8)
    9472:	ff 00 00 00 00 
    9477:	83 85 24 f0 ff ff 01 	addl   $0x1,-0xfdc(%rbp)
    947e:	83 bd 24 f0 ff ff 08 	cmpl   $0x8,-0xfdc(%rbp)
    9485:	7e dc                	jle    9463 <func_42+0x60b>
    9487:	8b 9d 74 f0 ff ff    	mov    -0xf8c(%rbp),%ebx
    948d:	0f b7 85 3c f5 ff ff 	movzwl -0xac4(%rbp),%eax
    9494:	44 0f b7 e0          	movzwl %ax,%r12d
    9498:	0f b7 85 3e f5 ff ff 	movzwl -0xac2(%rbp),%eax
    949f:	f7 d0                	not    %eax
    94a1:	0f bf d0             	movswl %ax,%edx
    94a4:	8b 85 e0 ef ff ff    	mov    -0x1020(%rbp),%eax
    94aa:	83 f8 01             	cmp    $0x1,%eax
    94ad:	0f 96 c0             	setbe  %al
    94b0:	0f b6 c0             	movzbl %al,%eax
    94b3:	39 c2                	cmp    %eax,%edx
    94b5:	0f 94 c0             	sete   %al
    94b8:	41 89 c5             	mov    %eax,%r13d
    94bb:	48 8d 05 9e 02 01 00 	lea    0x1029e(%rip),%rax        # 19760 <g_778>
    94c2:	48 39 85 d0 f1 ff ff 	cmp    %rax,-0xe30(%rbp)
    94c9:	0f 95 c0             	setne  %al
    94cc:	0f b6 c0             	movzbl %al,%eax
    94cf:	be f3 7d 94 ba       	mov    $0xba947df3,%esi
    94d4:	89 c7                	mov    %eax,%edi
    94d6:	e8 2a c1 ff ff       	callq  5605 <safe_sub_func_int32_t_s_s>
    94db:	48 8b 05 ce 2b 01 00 	mov    0x12bce(%rip),%rax        # 1c0b0 <g_1312>
    94e2:	66 c7 00 00 00       	movw   $0x0,(%rax)
    94e7:	0f b7 00             	movzwl (%rax),%eax
    94ea:	44 31 e8             	xor    %r13d,%eax
    94ed:	0f b6 c0             	movzbl %al,%eax
    94f0:	be 04 00 00 00       	mov    $0x4,%esi
    94f5:	89 c7                	mov    %eax,%edi
    94f7:	e8 50 c7 ff ff       	callq  5c4c <safe_lshift_func_uint8_t_u_u>
    94fc:	48 8b 05 9d 2b 01 00 	mov    0x12b9d(%rip),%rax        # 1c0a0 <g_991>
    9503:	48 8b 00             	mov    (%rax),%rax
    9506:	48 be 31 6c a7 95 dc 	movabs $0x4890c5dc95a76c31,%rsi
    950d:	c5 90 48 
    9510:	48 89 c7             	mov    %rax,%rdi
    9513:	e8 90 c3 ff ff       	callq  58a8 <safe_sub_func_int64_t_s_s>
    9518:	0f b7 15 bb 19 01 00 	movzwl 0x119bb(%rip),%edx        # 1aeda <g_1571+0xa>
    951f:	0f b7 d2             	movzwl %dx,%edx
    9522:	48 39 d0             	cmp    %rdx,%rax
    9525:	0f 9d c0             	setge  %al
    9528:	0f b6 c0             	movzbl %al,%eax
    952b:	be 01 00 00 00       	mov    $0x1,%esi
    9530:	89 c7                	mov    %eax,%edi
    9532:	e8 23 c6 ff ff       	callq  5b5a <safe_add_func_uint8_t_u_u>
    9537:	0f b6 c0             	movzbl %al,%eax
    953a:	44 89 e6             	mov    %r12d,%esi
    953d:	89 c7                	mov    %eax,%edi
    953f:	e8 f9 c7 ff ff       	callq  5d3d <safe_mul_func_uint16_t_u_u>
    9544:	0f b7 c0             	movzwl %ax,%eax
    9547:	89 de                	mov    %ebx,%esi
    9549:	89 c7                	mov    %eax,%edi
    954b:	e8 80 c9 ff ff       	callq  5ed0 <safe_sub_func_uint32_t_u_u>
    9550:	0f b7 c0             	movzwl %ax,%eax
    9553:	89 c7                	mov    %eax,%edi
    9555:	e8 8f c7 ff ff       	callq  5ce9 <safe_unary_minus_func_uint16_t_u>
    955a:	98                   	cwtl   
    955b:	be 20 7c 00 00       	mov    $0x7c20,%esi
    9560:	89 c7                	mov    %eax,%edi
    9562:	e8 ee be ff ff       	callq  5455 <safe_div_func_int16_t_s_s>
    9567:	48 0f bf c0          	movswq %ax,%rax
    956b:	be 01 00 00 00       	mov    $0x1,%esi
    9570:	48 89 c7             	mov    %rax,%rdi
    9573:	e8 30 c3 ff ff       	callq  58a8 <safe_sub_func_int64_t_s_s>
    9578:	48 85 c0             	test   %rax,%rax
    957b:	0f 84 c1 1e 00 00    	je     b442 <func_42+0x25ea>
    9581:	48 c7 85 80 f2 ff ff 	movq   $0xffffffffffffffff,-0xd80(%rbp)
    9588:	ff ff ff ff 
    958c:	48 8d 05 17 13 01 00 	lea    0x11317(%rip),%rax        # 1a8aa <g_346>
    9593:	48 89 85 e0 f6 ff ff 	mov    %rax,-0x920(%rbp)
    959a:	48 8d 05 09 13 01 00 	lea    0x11309(%rip),%rax        # 1a8aa <g_346>
    95a1:	48 89 85 e8 f6 ff ff 	mov    %rax,-0x918(%rbp)
    95a8:	48 8d 05 fb 12 01 00 	lea    0x112fb(%rip),%rax        # 1a8aa <g_346>
    95af:	48 89 85 f0 f6 ff ff 	mov    %rax,-0x910(%rbp)
    95b6:	48 8d 05 ed 12 01 00 	lea    0x112ed(%rip),%rax        # 1a8aa <g_346>
    95bd:	48 89 85 f8 f6 ff ff 	mov    %rax,-0x908(%rbp)
    95c4:	48 8d 05 df 12 01 00 	lea    0x112df(%rip),%rax        # 1a8aa <g_346>
    95cb:	48 89 85 00 f7 ff ff 	mov    %rax,-0x900(%rbp)
    95d2:	48 8d 05 d1 12 01 00 	lea    0x112d1(%rip),%rax        # 1a8aa <g_346>
    95d9:	48 89 85 08 f7 ff ff 	mov    %rax,-0x8f8(%rbp)
    95e0:	48 8d 05 c3 12 01 00 	lea    0x112c3(%rip),%rax        # 1a8aa <g_346>
    95e7:	48 89 85 10 f7 ff ff 	mov    %rax,-0x8f0(%rbp)
    95ee:	48 8d 05 b5 12 01 00 	lea    0x112b5(%rip),%rax        # 1a8aa <g_346>
    95f5:	48 89 85 18 f7 ff ff 	mov    %rax,-0x8e8(%rbp)
    95fc:	48 8d 05 a7 12 01 00 	lea    0x112a7(%rip),%rax        # 1a8aa <g_346>
    9603:	48 89 85 20 f7 ff ff 	mov    %rax,-0x8e0(%rbp)
    960a:	48 8d 85 3c f5 ff ff 	lea    -0xac4(%rbp),%rax
    9611:	48 83 c0 02          	add    $0x2,%rax
    9615:	48 89 85 88 f2 ff ff 	mov    %rax,-0xd78(%rbp)
    961c:	c7 85 f4 ef ff ff 04 	movl   $0x4,-0x100c(%rbp)
    9623:	00 00 00 
    9626:	48 8d 05 c7 17 01 00 	lea    0x117c7(%rip),%rax        # 1adf4 <g_1132>
    962d:	48 89 85 90 f2 ff ff 	mov    %rax,-0xd70(%rbp)
    9634:	48 c7 85 98 f1 ff ff 	movq   $0x0,-0xe68(%rbp)
    963b:	00 00 00 00 
    963f:	48 8d 85 98 f1 ff ff 	lea    -0xe68(%rbp),%rax
    9646:	48 89 85 98 f2 ff ff 	mov    %rax,-0xd68(%rbp)
    964d:	48 8d 05 4c 39 01 00 	lea    0x1394c(%rip),%rax        # 1cfa0 <g_879>
    9654:	48 89 85 a0 f2 ff ff 	mov    %rax,-0xd60(%rbp)
    965b:	48 8d 05 2e 2b 01 00 	lea    0x12b2e(%rip),%rax        # 1c190 <g_1520>
    9662:	48 89 85 a0 f1 ff ff 	mov    %rax,-0xe60(%rbp)
    9669:	c7 85 1c f0 ff ff de 	movl   $0x3f77c5de,-0xfe4(%rbp)
    9670:	c5 77 3f 
    9673:	c7 85 f8 ef ff ff 00 	movl   $0x0,-0x1008(%rbp)
    967a:	00 00 00 
    967d:	c7 85 fc ef ff ff 26 	movl   $0x40e8d726,-0x1004(%rbp)
    9684:	d7 e8 40 
    9687:	c7 85 8c f0 ff ff 8f 	movl   $0xc4ecb68f,-0xf74(%rbp)
    968e:	b6 ec c4 
    9691:	c7 85 00 f0 ff ff 62 	movl   $0x996e0d62,-0x1000(%rbp)
    9698:	0d 6e 99 
    969b:	48 b8 fa 5b 6c 52 7d 	movabs $0xbf878f7d526c5bfa,%rax
    96a2:	8f 87 bf 
    96a5:	48 89 85 a8 f2 ff ff 	mov    %rax,-0xd58(%rbp)
    96ac:	48 8d 85 20 fa ff ff 	lea    -0x5e0(%rbp),%rax
    96b3:	48 8d 15 66 be 00 00 	lea    0xbe66(%rip),%rdx        # 15520 <g_1898+0x4c0>
    96ba:	b9 23 00 00 00       	mov    $0x23,%ecx
    96bf:	48 89 c7             	mov    %rax,%rdi
    96c2:	48 89 d6             	mov    %rdx,%rsi
    96c5:	f3 48 a5             	rep movsq %ds:(%rsi),%es:(%rdi)
    96c8:	8b 05 8e 17 01 00    	mov    0x1178e(%rip),%eax        # 1ae5c <g_1162+0xc>
    96ce:	25 ff ff ff 3f       	and    $0x3fffffff,%eax
    96d3:	0f be d8             	movsbl %al,%ebx
    96d6:	48 8b 85 80 f2 ff ff 	mov    -0xd80(%rbp),%rax
    96dd:	44 0f b7 e0          	movzwl %ax,%r12d
    96e1:	48 8b 85 80 f2 ff ff 	mov    -0xd80(%rbp),%rax
    96e8:	89 c2                	mov    %eax,%edx
    96ea:	0f b7 85 3c f5 ff ff 	movzwl -0xac4(%rbp),%eax
    96f1:	98                   	cwtl   
    96f2:	89 d6                	mov    %edx,%esi
    96f4:	89 c7                	mov    %eax,%edi
    96f6:	e8 04 c0 ff ff       	callq  56ff <safe_div_func_int32_t_s_s>
    96fb:	89 c2                	mov    %eax,%edx
    96fd:	48 8b 05 ac 29 01 00 	mov    0x129ac(%rip),%rax        # 1c0b0 <g_1312>
    9704:	66 89 10             	mov    %dx,(%rax)
    9707:	48 8b 05 02 18 01 00 	mov    0x11802(%rip),%rax        # 1af10 <g_1866>
    970e:	48 8b 15 03 18 01 00 	mov    0x11803(%rip),%rdx        # 1af18 <g_1866+0x8>
    9715:	48 8b 05 84 2a 01 00 	mov    0x12a84(%rip),%rax        # 1c1a0 <g_1719>
    971c:	8b 00                	mov    (%rax),%eax
    971e:	89 85 a4 ef ff ff    	mov    %eax,-0x105c(%rbp)
    9724:	0f b7 05 5f 38 01 00 	movzwl 0x1385f(%rip),%eax        # 1cf8a <g_50>
    972b:	44 0f b7 e8          	movzwl %ax,%r13d
    972f:	0f b6 05 2a 09 01 00 	movzbl 0x1092a(%rip),%eax        # 1a060 <g_137>
    9736:	8d 50 ff             	lea    -0x1(%rax),%edx
    9739:	88 15 21 09 01 00    	mov    %dl,0x10921(%rip)        # 1a060 <g_137>
    973f:	0f b6 c0             	movzbl %al,%eax
    9742:	48 89 85 98 ef ff ff 	mov    %rax,-0x1068(%rbp)
    9749:	48 8b 85 80 f2 ff ff 	mov    -0xd80(%rbp),%rax
    9750:	44 0f be f0          	movsbl %al,%r14d
    9754:	48 8b 05 8d 26 01 00 	mov    0x1268d(%rip),%rax        # 1bde8 <g_537>
    975b:	0f b6 00             	movzbl (%rax),%eax
    975e:	0f be d0             	movsbl %al,%edx
    9761:	8b 85 e0 ef ff ff    	mov    -0x1020(%rbp),%eax
    9767:	39 c2                	cmp    %eax,%edx
    9769:	0f 9e c0             	setle  %al
    976c:	88 85 a3 ef ff ff    	mov    %al,-0x105d(%rbp)
    9772:	8b 85 e0 ef ff ff    	mov    -0x1020(%rbp),%eax
    9778:	44 0f b7 f8          	movzwl %ax,%r15d
    977c:	48 8b 85 80 f2 ff ff 	mov    -0xd80(%rbp),%rax
    9783:	0f b7 c0             	movzwl %ax,%eax
    9786:	be 08 00 00 00       	mov    $0x8,%esi
    978b:	89 c7                	mov    %eax,%edi
    978d:	e8 b6 c6 ff ff       	callq  5e48 <safe_rshift_func_uint16_t_u_s>
    9792:	0f b7 85 3e f5 ff ff 	movzwl -0xac2(%rbp),%eax
    9799:	66 85 c0             	test   %ax,%ax
    979c:	0f 9e c0             	setle  %al
    979f:	0f b6 d0             	movzbl %al,%edx
    97a2:	0f b7 85 3e f5 ff ff 	movzwl -0xac2(%rbp),%eax
    97a9:	21 d0                	and    %edx,%eax
    97ab:	0f b7 c0             	movzwl %ax,%eax
    97ae:	44 89 fe             	mov    %r15d,%esi
    97b1:	89 c7                	mov    %eax,%edi
    97b3:	e8 67 c5 ff ff       	callq  5d1f <safe_sub_func_uint16_t_u_u>
    97b8:	66 85 c0             	test   %ax,%ax
    97bb:	75 16                	jne    97d3 <func_42+0x97b>
    97bd:	48 83 bd 80 f2 ff ff 	cmpq   $0x0,-0xd80(%rbp)
    97c4:	00 
    97c5:	75 0c                	jne    97d3 <func_42+0x97b>
    97c7:	0f b7 85 3e f5 ff ff 	movzwl -0xac2(%rbp),%eax
    97ce:	66 85 c0             	test   %ax,%ax
    97d1:	74 07                	je     97da <func_42+0x982>
    97d3:	b8 01 00 00 00       	mov    $0x1,%eax
    97d8:	eb 05                	jmp    97df <func_42+0x987>
    97da:	b8 00 00 00 00       	mov    $0x0,%eax
    97df:	85 c0                	test   %eax,%eax
    97e1:	0f 95 c0             	setne  %al
    97e4:	0f b6 c0             	movzbl %al,%eax
    97e7:	be 67 62 00 00       	mov    $0x6267,%esi
    97ec:	89 c7                	mov    %eax,%edi
    97ee:	e8 02 bc ff ff       	callq  53f5 <safe_mul_func_int16_t_s_s>
    97f3:	0f b7 95 3e f5 ff ff 	movzwl -0xac2(%rbp),%edx
    97fa:	66 39 d0             	cmp    %dx,%ax
    97fd:	0f 9e c0             	setle  %al
    9800:	0f b6 c0             	movzbl %al,%eax
    9803:	48 8b 95 80 f2 ff ff 	mov    -0xd80(%rbp),%rdx
    980a:	89 c6                	mov    %eax,%esi
    980c:	89 d7                	mov    %edx,%edi
    980e:	e8 2f be ff ff       	callq  5642 <safe_mul_func_int32_t_s_s>
    9813:	0a 85 a3 ef ff ff    	or     -0x105d(%rbp),%al
    9819:	0f be c0             	movsbl %al,%eax
    981c:	44 89 f6             	mov    %r14d,%esi
    981f:	89 c7                	mov    %eax,%edi
    9821:	e8 ec b9 ff ff       	callq  5212 <safe_mul_func_int8_t_s_s>
    9826:	48 8b 05 7b 28 01 00 	mov    0x1287b(%rip),%rax        # 1c0a8 <g_990>
    982d:	48 8b 00             	mov    (%rax),%rax
    9830:	48 8b 00             	mov    (%rax),%rax
    9833:	48 c7 c6 ff ff ff ff 	mov    $0xffffffffffffffff,%rsi
    983a:	48 89 c7             	mov    %rax,%rdi
    983d:	e8 ff bf ff ff       	callq  5841 <safe_add_func_int64_t_s_s>
    9842:	48 8b 95 98 ef ff ff 	mov    -0x1068(%rbp),%rdx
    9849:	48 09 c2             	or     %rax,%rdx
    984c:	0f b7 05 d1 07 01 00 	movzwl 0x107d1(%rip),%eax        # 1a024 <g_6>
    9853:	48 0f bf c0          	movswq %ax,%rax
    9857:	48 39 c2             	cmp    %rax,%rdx
    985a:	7c 07                	jl     9863 <func_42+0xa0b>
    985c:	b8 01 00 00 00       	mov    $0x1,%eax
    9861:	eb 05                	jmp    9868 <func_42+0xa10>
    9863:	b8 00 00 00 00       	mov    $0x0,%eax
    9868:	44 89 ee             	mov    %r13d,%esi
    986b:	89 c7                	mov    %eax,%edi
    986d:	e8 5a be ff ff       	callq  56cc <safe_mod_func_int32_t_s_s>
    9872:	39 85 a4 ef ff ff    	cmp    %eax,-0x105c(%rbp)
    9878:	0f 95 c0             	setne  %al
    987b:	0f b6 d0             	movzbl %al,%edx
    987e:	8b 05 84 16 01 00    	mov    0x11684(%rip),%eax        # 1af08 <g_1830+0x8>
    9884:	c1 e0 06             	shl    $0x6,%eax
    9887:	c1 f8 06             	sar    $0x6,%eax
    988a:	21 c2                	and    %eax,%edx
    988c:	48 8b 85 88 f2 ff ff 	mov    -0xd78(%rbp),%rax
    9893:	66 89 10             	mov    %dx,(%rax)
    9896:	48 8b 85 88 f2 ff ff 	mov    -0xd78(%rbp),%rax
    989d:	0f b7 00             	movzwl (%rax),%eax
    98a0:	0f bf d0             	movswl %ax,%edx
    98a3:	8b 85 e0 ef ff ff    	mov    -0x1020(%rbp),%eax
    98a9:	09 c2                	or     %eax,%edx
    98ab:	8b 85 f4 ef ff ff    	mov    -0x100c(%rbp),%eax
    98b1:	21 d0                	and    %edx,%eax
    98b3:	89 85 f4 ef ff ff    	mov    %eax,-0x100c(%rbp)
    98b9:	8b 85 f4 ef ff ff    	mov    -0x100c(%rbp),%eax
    98bf:	0f b7 c0             	movzwl %ax,%eax
    98c2:	44 89 e6             	mov    %r12d,%esi
    98c5:	89 c7                	mov    %eax,%edi
    98c7:	e8 33 c4 ff ff       	callq  5cff <safe_add_func_uint16_t_u_u>
    98cc:	0f b7 c0             	movzwl %ax,%eax
    98cf:	48 39 85 80 f2 ff ff 	cmp    %rax,-0xd80(%rbp)
    98d6:	0f 96 c0             	setbe  %al
    98d9:	89 c2                	mov    %eax,%edx
    98db:	8b 85 e0 ef ff ff    	mov    -0x1020(%rbp),%eax
    98e1:	31 d0                	xor    %edx,%eax
    98e3:	0f be c0             	movsbl %al,%eax
    98e6:	89 de                	mov    %ebx,%esi
    98e8:	89 c7                	mov    %eax,%edi
    98ea:	e8 23 b9 ff ff       	callq  5212 <safe_mul_func_int8_t_s_s>
    98ef:	8b 95 f4 ef ff ff    	mov    -0x100c(%rbp),%edx
    98f5:	48 8b 85 90 f2 ff ff 	mov    -0xd70(%rbp),%rax
    98fc:	8b 00                	mov    (%rax),%eax
    98fe:	21 c2                	and    %eax,%edx
    9900:	48 8b 85 90 f2 ff ff 	mov    -0xd70(%rbp),%rax
    9907:	89 10                	mov    %edx,(%rax)
    9909:	48 8b 85 90 f2 ff ff 	mov    -0xd70(%rbp),%rax
    9910:	8b 00                	mov    (%rax),%eax
    9912:	85 c0                	test   %eax,%eax
    9914:	0f 84 9f 0c 00 00    	je     a5b9 <func_42+0x1761>
    991a:	66 c7 85 d4 ef ff ff 	movw   $0x1,-0x102c(%rbp)
    9921:	01 00 
    9923:	48 8d 05 f2 0f 01 00 	lea    0x10ff2(%rip),%rax        # 1a91c <g_768>
    992a:	48 89 85 a8 f1 ff ff 	mov    %rax,-0xe58(%rbp)
    9931:	48 8d 05 78 27 01 00 	lea    0x12778(%rip),%rax        # 1c0b0 <g_1312>
    9938:	48 89 85 48 f4 ff ff 	mov    %rax,-0xbb8(%rbp)
    993f:	c7 85 20 f0 ff ff b0 	movl   $0x92b99bb0,-0xfe0(%rbp)
    9946:	9b b9 92 
    9949:	c7 85 10 f0 ff ff e1 	movl   $0xdea063e1,-0xff0(%rbp)
    9950:	63 a0 de 
    9953:	c7 85 20 f8 ff ff be 	movl   $0x9319c5be,-0x7e0(%rbp)
    995a:	c5 19 93 
    995d:	c7 85 24 f8 ff ff 00 	movl   $0x0,-0x7dc(%rbp)
    9964:	00 00 00 
    9967:	c7 85 28 f8 ff ff 00 	movl   $0x0,-0x7d8(%rbp)
    996e:	00 00 00 
    9971:	c7 85 2c f8 ff ff 00 	movl   $0x0,-0x7d4(%rbp)
    9978:	00 00 00 
    997b:	c7 85 30 f8 ff ff be 	movl   $0x9319c5be,-0x7d0(%rbp)
    9982:	c5 19 93 
    9985:	c7 85 34 f8 ff ff 90 	movl   $0xf514da90,-0x7cc(%rbp)
    998c:	da 14 f5 
    998f:	c7 85 38 f8 ff ff 01 	movl   $0x1,-0x7c8(%rbp)
    9996:	00 00 00 
    9999:	c7 85 3c f8 ff ff 43 	movl   $0x49759943,-0x7c4(%rbp)
    99a0:	99 75 49 
    99a3:	c7 85 40 f8 ff ff 01 	movl   $0x1,-0x7c0(%rbp)
    99aa:	00 00 00 
    99ad:	c7 85 44 f8 ff ff 90 	movl   $0xf514da90,-0x7bc(%rbp)
    99b4:	da 14 f5 
    99b7:	c7 85 48 f8 ff ff be 	movl   $0x9319c5be,-0x7b8(%rbp)
    99be:	c5 19 93 
    99c1:	c7 85 4c f8 ff ff 00 	movl   $0x0,-0x7b4(%rbp)
    99c8:	00 00 00 
    99cb:	c7 85 50 f8 ff ff 00 	movl   $0x0,-0x7b0(%rbp)
    99d2:	00 00 00 
    99d5:	c7 85 54 f8 ff ff 00 	movl   $0x0,-0x7ac(%rbp)
    99dc:	00 00 00 
    99df:	c7 85 58 f8 ff ff be 	movl   $0x9319c5be,-0x7a8(%rbp)
    99e6:	c5 19 93 
    99e9:	c7 85 5c f8 ff ff 90 	movl   $0xf514da90,-0x7a4(%rbp)
    99f0:	da 14 f5 
    99f3:	c7 85 60 f8 ff ff 01 	movl   $0x1,-0x7a0(%rbp)
    99fa:	00 00 00 
    99fd:	c7 85 64 f8 ff ff 43 	movl   $0x49759943,-0x79c(%rbp)
    9a04:	99 75 49 
    9a07:	c7 85 68 f8 ff ff 01 	movl   $0x1,-0x798(%rbp)
    9a0e:	00 00 00 
    9a11:	c7 85 6c f8 ff ff 90 	movl   $0xf514da90,-0x794(%rbp)
    9a18:	da 14 f5 
    9a1b:	c7 85 70 f8 ff ff be 	movl   $0x9319c5be,-0x790(%rbp)
    9a22:	c5 19 93 
    9a25:	c7 85 74 f8 ff ff 00 	movl   $0x0,-0x78c(%rbp)
    9a2c:	00 00 00 
    9a2f:	c7 85 78 f8 ff ff 00 	movl   $0x0,-0x788(%rbp)
    9a36:	00 00 00 
    9a39:	c7 85 7c f8 ff ff 00 	movl   $0x0,-0x784(%rbp)
    9a40:	00 00 00 
    9a43:	c7 85 80 f8 ff ff be 	movl   $0x9319c5be,-0x780(%rbp)
    9a4a:	c5 19 93 
    9a4d:	c7 85 14 f0 ff ff 9d 	movl   $0xecf7519d,-0xfec(%rbp)
    9a54:	51 f7 ec 
    9a57:	48 c7 85 50 f4 ff ff 	movq   $0x0,-0xbb0(%rbp)
    9a5e:	00 00 00 00 
    9a62:	c7 85 18 f0 ff ff 00 	movl   $0x0,-0xfe8(%rbp)
    9a69:	00 00 00 
    9a6c:	eb 1e                	jmp    9a8c <func_42+0xc34>
    9a6e:	8b 85 18 f0 ff ff    	mov    -0xfe8(%rbp),%eax
    9a74:	48 98                	cltq   
    9a76:	48 8d 95 a8 f1 ff ff 	lea    -0xe58(%rbp),%rdx
    9a7d:	48 89 94 c5 40 f5 ff 	mov    %rdx,-0xac0(%rbp,%rax,8)
    9a84:	ff 
    9a85:	83 85 18 f0 ff ff 01 	addl   $0x1,-0xfe8(%rbp)
    9a8c:	83 bd 18 f0 ff ff 00 	cmpl   $0x0,-0xfe8(%rbp)
    9a93:	7e d9                	jle    9a6e <func_42+0xc16>
    9a95:	c7 85 18 f0 ff ff 00 	movl   $0x0,-0xfe8(%rbp)
    9a9c:	00 00 00 
    9a9f:	eb 21                	jmp    9ac2 <func_42+0xc6a>
    9aa1:	8b 85 18 f0 ff ff    	mov    -0xfe8(%rbp),%eax
    9aa7:	48 98                	cltq   
    9aa9:	48 b9 e6 02 a1 6b 1d 	movabs $0xa519c51d6ba102e6,%rcx
    9ab0:	c5 19 a5 
    9ab3:	48 89 8c c5 00 f6 ff 	mov    %rcx,-0xa00(%rbp,%rax,8)
    9aba:	ff 
    9abb:	83 85 18 f0 ff ff 01 	addl   $0x1,-0xfe8(%rbp)
    9ac2:	83 bd 18 f0 ff ff 04 	cmpl   $0x4,-0xfe8(%rbp)
    9ac9:	7e d6                	jle    9aa1 <func_42+0xc49>
    9acb:	48 83 bd 98 f2 ff ff 	cmpq   $0x0,-0xd68(%rbp)
    9ad2:	00 
    9ad3:	0f 94 c0             	sete   %al
    9ad6:	0f b6 c0             	movzbl %al,%eax
    9ad9:	89 85 e0 ef ff ff    	mov    %eax,-0x1020(%rbp)
    9adf:	8b 85 e0 ef ff ff    	mov    -0x1020(%rbp),%eax
    9ae5:	85 c0                	test   %eax,%eax
    9ae7:	0f 84 9b 01 00 00    	je     9c88 <func_42+0xe30>
    9aed:	48 8b 05 64 26 01 00 	mov    0x12664(%rip),%rax        # 1c158 <g_1370>
    9af4:	48 8b 00             	mov    (%rax),%rax
    9af7:	48 8b 00             	mov    (%rax),%rax
    9afa:	48 8b 00             	mov    (%rax),%rax
    9afd:	48 8b 00             	mov    (%rax),%rax
    9b00:	48 89 c6             	mov    %rax,%rsi
    9b03:	48 bf 7c 3f 71 9b 94 	movabs $0x3ede0a949b713f7c,%rdi
    9b0a:	0a de 3e 
    9b0d:	e8 a2 be ff ff       	callq  59b4 <safe_mod_func_int64_t_s_s>
    9b12:	48 85 c0             	test   %rax,%rax
    9b15:	75 4b                	jne    9b62 <func_42+0xd0a>
    9b17:	83 bd 74 f0 ff ff 00 	cmpl   $0x0,-0xf8c(%rbp)
    9b1e:	0f 84 64 01 00 00    	je     9c88 <func_42+0xe30>
    9b24:	b8 09 00 00 00       	mov    $0x9,%eax
    9b29:	0f b6 c0             	movzbl %al,%eax
    9b2c:	be 05 00 00 00       	mov    $0x5,%esi
    9b31:	89 c7                	mov    %eax,%edi
    9b33:	e8 14 c1 ff ff       	callq  5c4c <safe_lshift_func_uint8_t_u_u>
    9b38:	48 8b 85 a8 f1 ff ff 	mov    -0xe58(%rbp),%rax
    9b3f:	48 89 05 aa 26 01 00 	mov    %rax,0x126aa(%rip)        # 1c1f0 <g_1897>
    9b46:	48 8b 05 a3 26 01 00 	mov    0x126a3(%rip),%rax        # 1c1f0 <g_1897>
    9b4d:	48 39 85 90 f2 ff ff 	cmp    %rax,-0xd70(%rbp)
    9b54:	66 83 bd d4 ef ff ff 	cmpw   $0x1,-0x102c(%rbp)
    9b5b:	01 
    9b5c:	0f 85 26 01 00 00    	jne    9c88 <func_42+0xe30>
    9b62:	c6 85 be ef ff ff ff 	movb   $0xff,-0x1042(%rbp)
    9b69:	48 0f be 9d be ef ff 	movsbq -0x1042(%rbp),%rbx
    9b70:	ff 
    9b71:	0f b7 85 3e f5 ff ff 	movzwl -0xac2(%rbp),%eax
    9b78:	0f b7 c0             	movzwl %ax,%eax
    9b7b:	be 0a 00 00 00       	mov    $0xa,%esi
    9b80:	89 c7                	mov    %eax,%edi
    9b82:	e8 c1 c2 ff ff       	callq  5e48 <safe_rshift_func_uint16_t_u_s>
    9b87:	0f b7 d0             	movzwl %ax,%edx
    9b8a:	48 8b 85 90 f2 ff ff 	mov    -0xd70(%rbp),%rax
    9b91:	89 10                	mov    %edx,(%rax)
    9b93:	48 8b 85 90 f2 ff ff 	mov    -0xd70(%rbp),%rax
    9b9a:	8b 00                	mov    (%rax),%eax
    9b9c:	48 98                	cltq   
    9b9e:	48 89 de             	mov    %rbx,%rsi
    9ba1:	48 89 c7             	mov    %rax,%rdi
    9ba4:	e8 98 bc ff ff       	callq  5841 <safe_add_func_int64_t_s_s>
    9ba9:	48 89 c2             	mov    %rax,%rdx
    9bac:	48 8b 05 35 26 01 00 	mov    0x12635(%rip),%rax        # 1c1e8 <g_1715>
    9bb3:	48 8b 00             	mov    (%rax),%rax
    9bb6:	48 8b 00             	mov    (%rax),%rax
    9bb9:	48 8b 00             	mov    (%rax),%rax
    9bbc:	48 8b 00             	mov    (%rax),%rax
    9bbf:	8b 08                	mov    (%rax),%ecx
    9bc1:	21 ca                	and    %ecx,%edx
    9bc3:	89 10                	mov    %edx,(%rax)
    9bc5:	66 c7 05 a2 04 01 00 	movw   $0xd,0x104a2(%rip)        # 1a070 <g_192>
    9bcc:	0d 00 
    9bce:	90                   	nop
    9bcf:	0f b7 05 9a 04 01 00 	movzwl 0x1049a(%rip),%eax        # 1a070 <g_192>
    9bd6:	66 83 f8 2b          	cmp    $0x2b,%ax
    9bda:	0f 86 3f 20 00 00    	jbe    bc1f <func_42+0x2dc7>
    9be0:	c7 05 32 0d 01 00 e6 	movl   $0xffffffe6,0x10d32(%rip)        # 1a91c <g_768>
    9be7:	ff ff ff 
    9bea:	eb 3d                	jmp    9c29 <func_42+0xdd1>
    9bec:	48 8b 05 9d 25 01 00 	mov    0x1259d(%rip),%rax        # 1c190 <g_1520>
    9bf3:	48 8b 00             	mov    (%rax),%rax
    9bf6:	48 8d 95 f4 ef ff ff 	lea    -0x100c(%rbp),%rdx
    9bfd:	48 89 10             	mov    %rdx,(%rax)
    9c00:	48 8b 05 91 26 01 00 	mov    0x12691(%rip),%rax        # 1c298 <g_1909>
    9c07:	48 8b 95 d8 f1 ff ff 	mov    -0xe28(%rbp),%rdx
    9c0e:	48 89 10             	mov    %rdx,(%rax)
    9c11:	8b 05 05 0d 01 00    	mov    0x10d05(%rip),%eax        # 1a91c <g_768>
    9c17:	be 07 00 00 00       	mov    $0x7,%esi
    9c1c:	89 c7                	mov    %eax,%edi
    9c1e:	e8 93 b9 ff ff       	callq  55b6 <safe_add_func_int32_t_s_s>
    9c23:	89 05 f3 0c 01 00    	mov    %eax,0x10cf3(%rip)        # 1a91c <g_768>
    9c29:	8b 05 ed 0c 01 00    	mov    0x10ced(%rip),%eax        # 1a91c <g_768>
    9c2f:	83 f8 06             	cmp    $0x6,%eax
    9c32:	76 b8                	jbe    9bec <func_42+0xd94>
    9c34:	48 c7 05 b1 12 01 00 	movq   $0x11,0x112b1(%rip)        # 1aef0 <g_1709>
    9c3b:	11 00 00 00 
    9c3f:	eb 2b                	jmp    9c6c <func_42+0xe14>
    9c41:	48 c7 85 48 f4 ff ff 	movq   $0x0,-0xbb8(%rbp)
    9c48:	00 00 00 00 
    9c4c:	48 8b 05 9d 12 01 00 	mov    0x1129d(%rip),%rax        # 1aef0 <g_1709>
    9c53:	0f b7 c0             	movzwl %ax,%eax
    9c56:	be 04 00 00 00       	mov    $0x4,%esi
    9c5b:	89 c7                	mov    %eax,%edi
    9c5d:	e8 bd c0 ff ff       	callq  5d1f <safe_sub_func_uint16_t_u_u>
    9c62:	0f b7 c0             	movzwl %ax,%eax
    9c65:	48 89 05 84 12 01 00 	mov    %rax,0x11284(%rip)        # 1aef0 <g_1709>
    9c6c:	48 8b 05 7d 12 01 00 	mov    0x1127d(%rip),%rax        # 1aef0 <g_1709>
    9c73:	48 83 f8 e3          	cmp    $0xffffffffffffffe3,%rax
    9c77:	7c c8                	jl     9c41 <func_42+0xde9>
    9c79:	48 8b 05 78 21 01 00 	mov    0x12178(%rip),%rax        # 1bdf8 <g_600>
    9c80:	48 8b 00             	mov    (%rax),%rax
    9c83:	e9 8e 49 00 00       	jmpq   e616 <func_42+0x57be>
    9c88:	c7 85 b0 f0 ff ff 42 	movl   $0xcfeec642,-0xf50(%rbp)
    9c8f:	c6 ee cf 
    9c92:	c7 85 b4 f0 ff ff ff 	movl   $0xffffffff,-0xf4c(%rbp)
    9c99:	ff ff ff 
    9c9c:	c7 85 b8 f0 ff ff 00 	movl   $0x0,-0xf48(%rbp)
    9ca3:	00 00 00 
    9ca6:	c7 85 bc f0 ff ff 01 	movl   $0x1,-0xf44(%rbp)
    9cad:	00 00 00 
    9cb0:	c7 85 d0 f5 ff ff 18 	movl   $0x9136018,-0xa30(%rbp)
    9cb7:	60 13 09 
    9cba:	c7 85 d4 f5 ff ff 63 	movl   $0x332c2c63,-0xa2c(%rbp)
    9cc1:	2c 2c 33 
    9cc4:	c7 85 d8 f5 ff ff 63 	movl   $0x332c2c63,-0xa28(%rbp)
    9ccb:	2c 2c 33 
    9cce:	c7 85 dc f5 ff ff 18 	movl   $0x9136018,-0xa24(%rbp)
    9cd5:	60 13 09 
    9cd8:	c7 85 e0 f5 ff ff 63 	movl   $0x332c2c63,-0xa20(%rbp)
    9cdf:	2c 2c 33 
    9ce2:	c7 85 e4 f5 ff ff 63 	movl   $0x332c2c63,-0xa1c(%rbp)
    9ce9:	2c 2c 33 
    9cec:	c7 85 e8 f5 ff ff 18 	movl   $0x9136018,-0xa18(%rbp)
    9cf3:	60 13 09 
    9cf6:	c7 85 ec f5 ff ff 63 	movl   $0x332c2c63,-0xa14(%rbp)
    9cfd:	2c 2c 33 
    9d00:	c7 85 f0 f5 ff ff 63 	movl   $0x332c2c63,-0xa10(%rbp)
    9d07:	2c 2c 33 
    9d0a:	c7 85 c0 f0 ff ff ff 	movl   $0xffffffff,-0xf40(%rbp)
    9d11:	ff ff ff 
    9d14:	48 c7 85 b0 f1 ff ff 	movq   $0x0,-0xe50(%rbp)
    9d1b:	00 00 00 00 
    9d1f:	48 8d 85 b0 f1 ff ff 	lea    -0xe50(%rbp),%rax
    9d26:	48 89 85 b8 f1 ff ff 	mov    %rax,-0xe48(%rbp)
    9d2d:	66 c7 05 38 03 01 00 	movw   $0x0,0x10338(%rip)        # 1a06e <g_171>
    9d34:	00 00 
    9d36:	e9 51 08 00 00       	jmpq   a58c <func_42+0x1734>
    9d3b:	48 c7 85 58 f4 ff ff 	movq   $0x7,-0xba8(%rbp)
    9d42:	07 00 00 00 
    9d46:	c6 85 bf ef ff ff 03 	movb   $0x3,-0x1041(%rbp)
    9d4d:	48 8d 05 5c 23 01 00 	lea    0x1235c(%rip),%rax        # 1c0b0 <g_1312>
    9d54:	48 89 85 60 f4 ff ff 	mov    %rax,-0xba0(%rbp)
    9d5b:	c7 85 30 f0 ff ff 00 	movl   $0x0,-0xfd0(%rbp)
    9d62:	00 00 00 
    9d65:	eb 42                	jmp    9da9 <func_42+0xf51>
    9d67:	c7 85 34 f0 ff ff 00 	movl   $0x0,-0xfcc(%rbp)
    9d6e:	00 00 00 
    9d71:	eb 26                	jmp    9d99 <func_42+0xf41>
    9d73:	8b 85 34 f0 ff ff    	mov    -0xfcc(%rbp),%eax
    9d79:	48 63 d0             	movslq %eax,%rdx
    9d7c:	8b 85 30 f0 ff ff    	mov    -0xfd0(%rbp),%eax
    9d82:	48 98                	cltq   
    9d84:	48 01 d0             	add    %rdx,%rax
    9d87:	c7 84 85 60 f5 ff ff 	movl   $0xbac02735,-0xaa0(%rbp,%rax,4)
    9d8e:	35 27 c0 ba 
    9d92:	83 85 34 f0 ff ff 01 	addl   $0x1,-0xfcc(%rbp)
    9d99:	83 bd 34 f0 ff ff 00 	cmpl   $0x0,-0xfcc(%rbp)
    9da0:	7e d1                	jle    9d73 <func_42+0xf1b>
    9da2:	83 85 30 f0 ff ff 01 	addl   $0x1,-0xfd0(%rbp)
    9da9:	83 bd 30 f0 ff ff 01 	cmpl   $0x1,-0xfd0(%rbp)
    9db0:	7e b5                	jle    9d67 <func_42+0xf0f>
    9db2:	48 8b 15 87 22 01 00 	mov    0x12287(%rip),%rdx        # 1c040 <g_878>
    9db9:	48 8b 05 80 22 01 00 	mov    0x12280(%rip),%rax        # 1c040 <g_878>
    9dc0:	48 8b 12             	mov    (%rdx),%rdx
    9dc3:	48 89 10             	mov    %rdx,(%rax)
    9dc6:	c7 05 24 10 01 00 e3 	movl   $0xffffffe3,0x11024(%rip)        # 1adf4 <g_1132>
    9dcd:	ff ff ff 
    9dd0:	e9 62 03 00 00       	jmpq   a137 <func_42+0x12df>
    9dd5:	66 c7 85 b0 f5 ff ff 	movw   $0x2a32,-0xa50(%rbp)
    9ddc:	32 2a 
    9dde:	66 c7 85 b2 f5 ff ff 	movw   $0xf17d,-0xa4e(%rbp)
    9de5:	7d f1 
    9de7:	66 c7 85 b4 f5 ff ff 	movw   $0x2a32,-0xa4c(%rbp)
    9dee:	32 2a 
    9df0:	66 c7 85 b6 f5 ff ff 	movw   $0x2a32,-0xa4a(%rbp)
    9df7:	32 2a 
    9df9:	66 c7 85 b8 f5 ff ff 	movw   $0xf17d,-0xa48(%rbp)
    9e00:	7d f1 
    9e02:	66 c7 85 ba f5 ff ff 	movw   $0x2a32,-0xa46(%rbp)
    9e09:	32 2a 
    9e0b:	66 c7 85 bc f5 ff ff 	movw   $0x2a32,-0xa44(%rbp)
    9e12:	32 2a 
    9e14:	c7 85 c4 f0 ff ff c2 	movl   $0xd5c834c2,-0xf3c(%rbp)
    9e1b:	34 c8 d5 
    9e1e:	48 8d 85 e0 ef ff ff 	lea    -0x1020(%rbp),%rax
    9e25:	48 89 85 68 f4 ff ff 	mov    %rax,-0xb98(%rbp)
    9e2c:	48 8d 85 f4 ef ff ff 	lea    -0x100c(%rbp),%rax
    9e33:	48 89 85 20 f9 ff ff 	mov    %rax,-0x6e0(%rbp)
    9e3a:	48 8d 85 f4 ef ff ff 	lea    -0x100c(%rbp),%rax
    9e41:	48 89 85 28 f9 ff ff 	mov    %rax,-0x6d8(%rbp)
    9e48:	48 8d 85 60 f5 ff ff 	lea    -0xaa0(%rbp),%rax
    9e4f:	48 83 c0 04          	add    $0x4,%rax
    9e53:	48 89 85 30 f9 ff ff 	mov    %rax,-0x6d0(%rbp)
    9e5a:	48 8d 85 f4 ef ff ff 	lea    -0x100c(%rbp),%rax
    9e61:	48 89 85 38 f9 ff ff 	mov    %rax,-0x6c8(%rbp)
    9e68:	48 8d 85 60 f5 ff ff 	lea    -0xaa0(%rbp),%rax
    9e6f:	48 83 c0 04          	add    $0x4,%rax
    9e73:	48 89 85 40 f9 ff ff 	mov    %rax,-0x6c0(%rbp)
    9e7a:	48 8d 85 f4 ef ff ff 	lea    -0x100c(%rbp),%rax
    9e81:	48 89 85 48 f9 ff ff 	mov    %rax,-0x6b8(%rbp)
    9e88:	48 8d 85 f4 ef ff ff 	lea    -0x100c(%rbp),%rax
    9e8f:	48 89 85 50 f9 ff ff 	mov    %rax,-0x6b0(%rbp)
    9e96:	48 8d 85 f4 ef ff ff 	lea    -0x100c(%rbp),%rax
    9e9d:	48 89 85 58 f9 ff ff 	mov    %rax,-0x6a8(%rbp)
    9ea4:	48 8d 85 f4 ef ff ff 	lea    -0x100c(%rbp),%rax
    9eab:	48 89 85 60 f9 ff ff 	mov    %rax,-0x6a0(%rbp)
    9eb2:	48 8d 85 60 f5 ff ff 	lea    -0xaa0(%rbp),%rax
    9eb9:	48 83 c0 04          	add    $0x4,%rax
    9ebd:	48 89 85 68 f9 ff ff 	mov    %rax,-0x698(%rbp)
    9ec4:	48 8d 85 f4 ef ff ff 	lea    -0x100c(%rbp),%rax
    9ecb:	48 89 85 70 f9 ff ff 	mov    %rax,-0x690(%rbp)
    9ed2:	48 8d 85 f4 ef ff ff 	lea    -0x100c(%rbp),%rax
    9ed9:	48 89 85 78 f9 ff ff 	mov    %rax,-0x688(%rbp)
    9ee0:	48 8d 85 f4 ef ff ff 	lea    -0x100c(%rbp),%rax
    9ee7:	48 89 85 80 f9 ff ff 	mov    %rax,-0x680(%rbp)
    9eee:	48 8d 85 f4 ef ff ff 	lea    -0x100c(%rbp),%rax
    9ef5:	48 89 85 88 f9 ff ff 	mov    %rax,-0x678(%rbp)
    9efc:	48 8d 85 60 f5 ff ff 	lea    -0xaa0(%rbp),%rax
    9f03:	48 83 c0 04          	add    $0x4,%rax
    9f07:	48 89 85 90 f9 ff ff 	mov    %rax,-0x670(%rbp)
    9f0e:	48 8d 85 f4 ef ff ff 	lea    -0x100c(%rbp),%rax
    9f15:	48 89 85 98 f9 ff ff 	mov    %rax,-0x668(%rbp)
    9f1c:	48 8d 85 60 f5 ff ff 	lea    -0xaa0(%rbp),%rax
    9f23:	48 83 c0 04          	add    $0x4,%rax
    9f27:	48 89 85 a0 f9 ff ff 	mov    %rax,-0x660(%rbp)
    9f2e:	48 8d 85 f4 ef ff ff 	lea    -0x100c(%rbp),%rax
    9f35:	48 89 85 a8 f9 ff ff 	mov    %rax,-0x658(%rbp)
    9f3c:	48 8d 85 f4 ef ff ff 	lea    -0x100c(%rbp),%rax
    9f43:	48 89 85 b0 f9 ff ff 	mov    %rax,-0x650(%rbp)
    9f4a:	48 8d 85 f4 ef ff ff 	lea    -0x100c(%rbp),%rax
    9f51:	48 89 85 b8 f9 ff ff 	mov    %rax,-0x648(%rbp)
    9f58:	0f b7 85 b4 f5 ff ff 	movzwl -0xa4c(%rbp),%eax
    9f5f:	0f b7 d8             	movzwl %ax,%ebx
    9f62:	be 01 00 00 00       	mov    $0x1,%esi
    9f67:	bf f8 00 00 00       	mov    $0xf8,%edi
    9f6c:	e8 07 bc ff ff       	callq  5b78 <safe_sub_func_uint8_t_u_u>
    9f71:	48 8b 85 a0 f2 ff ff 	mov    -0xd60(%rbp),%rax
    9f78:	48 89 05 c1 20 01 00 	mov    %rax,0x120c1(%rip)        # 1c040 <g_878>
    9f7f:	48 8b 15 ba 20 01 00 	mov    0x120ba(%rip),%rdx        # 1c040 <g_878>
    9f86:	48 8d 05 ab 20 01 00 	lea    0x120ab(%rip),%rax        # 1c038 <g_779>
    9f8d:	48 8b 00             	mov    (%rax),%rax
    9f90:	48 39 c2             	cmp    %rax,%rdx
    9f93:	0f 94 c0             	sete   %al
    9f96:	44 0f b6 e8          	movzbl %al,%r13d
    9f9a:	44 0f be a5 bf ef ff 	movsbl -0x1041(%rbp),%r12d
    9fa1:	ff 
    9fa2:	0f be 95 bf ef ff ff 	movsbl -0x1041(%rbp),%edx
    9fa9:	8b 85 e0 ef ff ff    	mov    -0x1020(%rbp),%eax
    9faf:	0f be c0             	movsbl %al,%eax
    9fb2:	89 d6                	mov    %edx,%esi
    9fb4:	89 c7                	mov    %eax,%edi
    9fb6:	e8 7a b3 ff ff       	callq  5335 <safe_rshift_func_int8_t_s_s>
    9fbb:	48 8b 85 90 f2 ff ff 	mov    -0xd70(%rbp),%rax
    9fc2:	8b 10                	mov    (%rax),%edx
    9fc4:	8b 85 e0 ef ff ff    	mov    -0x1020(%rbp),%eax
    9fca:	39 c2                	cmp    %eax,%edx
    9fcc:	0f 94 c0             	sete   %al
    9fcf:	0f b6 d0             	movzbl %al,%edx
    9fd2:	0f b6 05 87 00 01 00 	movzbl 0x10087(%rip),%eax        # 1a060 <g_137>
    9fd9:	0f b6 c0             	movzbl %al,%eax
    9fdc:	39 c2                	cmp    %eax,%edx
    9fde:	0f 9e c0             	setle  %al
    9fe1:	0f b6 d0             	movzbl %al,%edx
    9fe4:	48 8b 85 58 f4 ff ff 	mov    -0xba8(%rbp),%rax
    9feb:	48 89 d6             	mov    %rdx,%rsi
    9fee:	48 89 c7             	mov    %rax,%rdi
    9ff1:	e8 38 c0 ff ff       	callq  602e <safe_add_func_uint64_t_u_u>
    9ff6:	0f be c0             	movsbl %al,%eax
    9ff9:	44 89 e6             	mov    %r12d,%esi
    9ffc:	89 c7                	mov    %eax,%edi
    9ffe:	e8 32 b3 ff ff       	callq  5335 <safe_rshift_func_int8_t_s_s>
    a003:	0f b6 c0             	movzbl %al,%eax
    a006:	89 c6                	mov    %eax,%esi
    a008:	bf ff 00 00 00       	mov    $0xff,%edi
    a00d:	e8 9c bb ff ff       	callq  5bae <safe_mod_func_uint8_t_u_u>
    a012:	0f b6 c0             	movzbl %al,%eax
    a015:	41 39 c5             	cmp    %eax,%r13d
    a018:	0f 9f c0             	setg   %al
    a01b:	0f b6 c0             	movzbl %al,%eax
    a01e:	48 89 de             	mov    %rbx,%rsi
    a021:	48 89 c7             	mov    %rax,%rdi
    a024:	e8 22 c0 ff ff       	callq  604b <safe_sub_func_uint64_t_u_u>
    a029:	48 89 c2             	mov    %rax,%rdx
    a02c:	48 8b 05 b5 21 01 00 	mov    0x121b5(%rip),%rax        # 1c1e8 <g_1715>
    a033:	48 8b 00             	mov    (%rax),%rax
    a036:	48 8b 00             	mov    (%rax),%rax
    a039:	48 8b 00             	mov    (%rax),%rax
    a03c:	48 8b 00             	mov    (%rax),%rax
    a03f:	89 10                	mov    %edx,(%rax)
    a041:	48 8b 05 b0 0e 01 00 	mov    0x10eb0(%rip),%rax        # 1aef8 <g_1782>
    a048:	41 89 c6             	mov    %eax,%r14d
    a04b:	48 8b 05 ae 1d 01 00 	mov    0x11dae(%rip),%rax        # 1be00 <g_599>
    a052:	48 8b 00             	mov    (%rax),%rax
    a055:	48 8b 18             	mov    (%rax),%rbx
    a058:	44 8b a5 b0 f0 ff ff 	mov    -0xf50(%rbp),%r12d
    a05f:	48 8b 05 4a 20 01 00 	mov    0x1204a(%rip),%rax        # 1c0b0 <g_1312>
    a066:	0f b7 10             	movzwl (%rax),%edx
    a069:	83 c2 01             	add    $0x1,%edx
    a06c:	66 89 10             	mov    %dx,(%rax)
    a06f:	48 8b 05 da 20 01 00 	mov    0x120da(%rip),%rax        # 1c150 <g_1371>
    a076:	48 8b 00             	mov    (%rax),%rax
    a079:	48 8b 00             	mov    (%rax),%rax
    a07c:	4c 8b 28             	mov    (%rax),%r13
    a07f:	48 8b 85 90 f2 ff ff 	mov    -0xd70(%rbp),%rax
    a086:	8b 00                	mov    (%rax),%eax
    a088:	be ff ff ff ff       	mov    $0xffffffff,%esi
    a08d:	89 c7                	mov    %eax,%edi
    a08f:	e8 3c be ff ff       	callq  5ed0 <safe_sub_func_uint32_t_u_u>
    a094:	89 c0                	mov    %eax,%eax
    a096:	4c 09 e8             	or     %r13,%rax
    a099:	48 83 f8 f7          	cmp    $0xfffffffffffffff7,%rax
    a09d:	0f 94 c0             	sete   %al
    a0a0:	0f b6 c0             	movzbl %al,%eax
    a0a3:	be fe ff ff ff       	mov    $0xfffffffe,%esi
    a0a8:	89 c7                	mov    %eax,%edi
    a0aa:	e8 04 b3 ff ff       	callq  53b3 <safe_add_func_int16_t_s_s>
    a0af:	98                   	cwtl   
    a0b0:	be 0d 00 00 00       	mov    $0xd,%esi
    a0b5:	89 c7                	mov    %eax,%edi
    a0b7:	e8 a7 b4 ff ff       	callq  5563 <safe_rshift_func_int16_t_s_u>
    a0bc:	48 8b 05 25 1d 01 00 	mov    0x11d25(%rip),%rax        # 1bde8 <g_537>
    a0c3:	0f b6 00             	movzbl (%rax),%eax
    a0c6:	83 f0 01             	xor    $0x1,%eax
    a0c9:	0f be c0             	movsbl %al,%eax
    a0cc:	89 85 64 f5 ff ff    	mov    %eax,-0xa9c(%rbp)
    a0d2:	8b 85 64 f5 ff ff    	mov    -0xa9c(%rbp),%eax
    a0d8:	48 98                	cltq   
    a0da:	48 39 85 58 f4 ff ff 	cmp    %rax,-0xba8(%rbp)
    a0e1:	0f 93 c0             	setae  %al
    a0e4:	0f b6 c0             	movzbl %al,%eax
    a0e7:	44 89 e6             	mov    %r12d,%esi
    a0ea:	89 c7                	mov    %eax,%edi
    a0ec:	e8 df bd ff ff       	callq  5ed0 <safe_sub_func_uint32_t_u_u>
    a0f1:	89 c0                	mov    %eax,%eax
    a0f3:	48 89 de             	mov    %rbx,%rsi
    a0f6:	48 89 c7             	mov    %rax,%rdi
    a0f9:	e8 82 bf ff ff       	callq  6080 <safe_mod_func_uint64_t_u_u>
    a0fe:	0f b6 c0             	movzbl %al,%eax
    a101:	44 89 f6             	mov    %r14d,%esi
    a104:	89 c7                	mov    %eax,%edi
    a106:	e8 41 bb ff ff       	callq  5c4c <safe_lshift_func_uint8_t_u_u>
    a10b:	0f b6 c0             	movzbl %al,%eax
    a10e:	21 85 c4 f0 ff ff    	and    %eax,-0xf3c(%rbp)
    a114:	83 85 14 f0 ff ff 01 	addl   $0x1,-0xfec(%rbp)
    a11b:	48 8b 05 26 1f 01 00 	mov    0x11f26(%rip),%rax        # 1c048 <g_923>
    a122:	8b 00                	mov    (%rax),%eax
    a124:	85 c0                	test   %eax,%eax
    a126:	75 20                	jne    a148 <func_42+0x12f0>
    a128:	8b 05 c6 0c 01 00    	mov    0x10cc6(%rip),%eax        # 1adf4 <g_1132>
    a12e:	83 c0 01             	add    $0x1,%eax
    a131:	89 05 bd 0c 01 00    	mov    %eax,0x10cbd(%rip)        # 1adf4 <g_1132>
    a137:	8b 05 b7 0c 01 00    	mov    0x10cb7(%rip),%eax        # 1adf4 <g_1132>
    a13d:	83 f8 f5             	cmp    $0xfffffff5,%eax
    a140:	0f 8c 8f fc ff ff    	jl     9dd5 <func_42+0xf7d>
    a146:	eb 01                	jmp    a149 <func_42+0x12f1>
    a148:	90                   	nop
    a149:	8b 85 c0 f0 ff ff    	mov    -0xf40(%rbp),%eax
    a14f:	89 c6                	mov    %eax,%esi
    a151:	bf c1 33 3c 81       	mov    $0x813c33c1,%edi
    a156:	e8 5b b4 ff ff       	callq  55b6 <safe_add_func_int32_t_s_s>
    a15b:	48 8b 05 2e 21 01 00 	mov    0x1212e(%rip),%rax        # 1c290 <g_1910>
    a162:	48 8b 00             	mov    (%rax),%rax
    a165:	0f b7 18             	movzwl (%rax),%ebx
    a168:	8b 95 e4 ef ff ff    	mov    -0x101c(%rbp),%edx
    a16e:	48 8b 05 3b 1f 01 00 	mov    0x11f3b(%rip),%rax        # 1c0b0 <g_1312>
    a175:	66 89 10             	mov    %dx,(%rax)
    a178:	48 8b 85 90 f2 ff ff 	mov    -0xd70(%rbp),%rax
    a17f:	c7 00 f8 e2 22 5a    	movl   $0x5a22e2f8,(%rax)
    a185:	48 8b 85 60 f6 ff ff 	mov    -0x9a0(%rbp),%rax
    a18c:	48 85 c0             	test   %rax,%rax
    a18f:	0f 95 c0             	setne  %al
    a192:	0f b6 c0             	movzbl %al,%eax
    a195:	be 01 00 00 00       	mov    $0x1,%esi
    a19a:	89 c7                	mov    %eax,%edi
    a19c:	e8 1d bb ff ff       	callq  5cbe <safe_rshift_func_uint8_t_u_u>
    a1a1:	0f b6 c0             	movzbl %al,%eax
    a1a4:	39 85 14 f0 ff ff    	cmp    %eax,-0xfec(%rbp)
    a1aa:	0f 97 c0             	seta   %al
    a1ad:	0f b6 c0             	movzbl %al,%eax
    a1b0:	be ff ff ff ff       	mov    $0xffffffff,%esi
    a1b5:	89 c7                	mov    %eax,%edi
    a1b7:	e8 49 b4 ff ff       	callq  5605 <safe_sub_func_int32_t_s_s>
    a1bc:	48 8b 05 8d 0c 01 00 	mov    0x10c8d(%rip),%rax        # 1ae50 <g_1162>
    a1c3:	48 c1 e0 08          	shl    $0x8,%rax
    a1c7:	48 c1 f8 28          	sar    $0x28,%rax
    a1cb:	89 85 64 f5 ff ff    	mov    %eax,-0xa9c(%rbp)
    a1d1:	8b 85 64 f5 ff ff    	mov    -0xa9c(%rbp),%eax
    a1d7:	85 c0                	test   %eax,%eax
    a1d9:	74 10                	je     a1eb <func_42+0x1393>
    a1db:	83 bd bc f0 ff ff 00 	cmpl   $0x0,-0xf44(%rbp)
    a1e2:	74 07                	je     a1eb <func_42+0x1393>
    a1e4:	b8 01 00 00 00       	mov    $0x1,%eax
    a1e9:	eb 05                	jmp    a1f0 <func_42+0x1398>
    a1eb:	b8 00 00 00 00       	mov    $0x0,%eax
    a1f0:	89 c2                	mov    %eax,%edx
    a1f2:	48 8b 85 58 f4 ff ff 	mov    -0xba8(%rbp),%rax
    a1f9:	09 d0                	or     %edx,%eax
    a1fb:	89 c2                	mov    %eax,%edx
    a1fd:	48 8b 85 88 f2 ff ff 	mov    -0xd78(%rbp),%rax
    a204:	66 89 10             	mov    %dx,(%rax)
    a207:	48 8b 85 88 f2 ff ff 	mov    -0xd78(%rbp),%rax
    a20e:	0f b7 00             	movzwl (%rax),%eax
    a211:	66 39 c3             	cmp    %ax,%bx
    a214:	0f 9c c0             	setl   %al
    a217:	0f b6 d0             	movzbl %al,%edx
    a21a:	0f b7 05 f3 06 01 00 	movzwl 0x106f3(%rip),%eax        # 1a914 <g_598>
    a221:	98                   	cwtl   
    a222:	39 c2                	cmp    %eax,%edx
    a224:	0f 95 c0             	setne  %al
    a227:	0f b6 c0             	movzbl %al,%eax
    a22a:	be 05 00 00 00       	mov    $0x5,%esi
    a22f:	89 c7                	mov    %eax,%edi
    a231:	e8 6b b0 ff ff       	callq  52a1 <safe_lshift_func_int8_t_s_s>
    a236:	0f be c0             	movsbl %al,%eax
    a239:	be 01 00 00 00       	mov    $0x1,%esi
    a23e:	89 c7                	mov    %eax,%edi
    a240:	e8 e5 b2 ff ff       	callq  552a <safe_rshift_func_int16_t_s_s>
    a245:	0f bf d0             	movswl %ax,%edx
    a248:	0f be 85 bf ef ff ff 	movsbl -0x1041(%rbp),%eax
    a24f:	21 d0                	and    %edx,%eax
    a251:	85 c0                	test   %eax,%eax
    a253:	0f 84 fd 02 00 00    	je     a556 <func_42+0x16fe>
    a259:	48 8d 85 b8 f1 ff ff 	lea    -0xe48(%rbp),%rax
    a260:	48 89 85 70 f4 ff ff 	mov    %rax,-0xb90(%rbp)
    a267:	48 8d 05 8a 0c 01 00 	lea    0x10c8a(%rip),%rax        # 1aef8 <g_1782>
    a26e:	48 89 85 78 f4 ff ff 	mov    %rax,-0xb88(%rbp)
    a275:	c7 85 c8 f0 ff ff 23 	movl   $0x7b800c23,-0xf38(%rbp)
    a27c:	0c 80 7b 
    a27f:	48 8d 05 06 2d 01 00 	lea    0x12d06(%rip),%rax        # 1cf8c <g_73>
    a286:	48 89 85 80 f4 ff ff 	mov    %rax,-0xb80(%rbp)
    a28d:	48 8d 85 e0 f6 ff ff 	lea    -0x920(%rbp),%rax
    a294:	48 83 c0 08          	add    $0x8,%rax
    a298:	48 89 85 88 f4 ff ff 	mov    %rax,-0xb78(%rbp)
    a29f:	48 8b 05 ea 1e 01 00 	mov    0x11eea(%rip),%rax        # 1c190 <g_1520>
    a2a6:	48 8b 00             	mov    (%rax),%rax
    a2a9:	48 8d 95 20 f8 ff ff 	lea    -0x7e0(%rbp),%rdx
    a2b0:	48 83 c2 40          	add    $0x40,%rdx
    a2b4:	48 89 10             	mov    %rdx,(%rax)
    a2b7:	8b 85 74 f0 ff ff    	mov    -0xf8c(%rbp),%eax
    a2bd:	0f b7 d8             	movzwl %ax,%ebx
    a2c0:	48 8b 05 d9 1f 01 00 	mov    0x11fd9(%rip),%rax        # 1c2a0 <g_2003>
    a2c7:	48 85 c0             	test   %rax,%rax
    a2ca:	0f 94 c0             	sete   %al
    a2cd:	0f b6 d0             	movzbl %al,%edx
    a2d0:	48 83 bd 78 f4 ff ff 	cmpq   $0x0,-0xb88(%rbp)
    a2d7:	00 
    a2d8:	0f 95 c0             	setne  %al
    a2db:	0f b6 c0             	movzbl %al,%eax
    a2de:	39 c2                	cmp    %eax,%edx
    a2e0:	0f 9c c0             	setl   %al
    a2e3:	0f b6 c0             	movzbl %al,%eax
    a2e6:	89 85 64 f5 ff ff    	mov    %eax,-0xa9c(%rbp)
    a2ec:	be da ff ff ff       	mov    $0xffffffda,%esi
    a2f1:	bf 00 00 00 00       	mov    $0x0,%edi
    a2f6:	e8 d9 ae ff ff       	callq  51d4 <safe_add_func_int8_t_s_s>
    a2fb:	3c 60                	cmp    $0x60,%al
    a2fd:	8b 05 8d 05 01 00    	mov    0x1058d(%rip),%eax        # 1a890 <g_220>
    a303:	be 01 00 00 00       	mov    $0x1,%esi
    a308:	89 c7                	mov    %eax,%edi
    a30a:	e8 ee bb ff ff       	callq  5efd <safe_mod_func_uint32_t_u_u>
    a30f:	85 c0                	test   %eax,%eax
    a311:	74 09                	je     a31c <func_42+0x14c4>
    a313:	0f b6 05 8a 05 01 00 	movzbl 0x1058a(%rip),%eax        # 1a8a4 <g_249>
    a31a:	84 c0                	test   %al,%al
    a31c:	8b 85 64 f5 ff ff    	mov    -0xa9c(%rbp),%eax
    a322:	85 c0                	test   %eax,%eax
    a324:	74 07                	je     a32d <func_42+0x14d5>
    a326:	83 bd c8 f0 ff ff 00 	cmpl   $0x0,-0xf38(%rbp)
    a32d:	8b 85 64 f5 ff ff    	mov    -0xa9c(%rbp),%eax
    a333:	83 f8 05             	cmp    $0x5,%eax
    a336:	0f 9e c0             	setle  %al
    a339:	0f b6 c0             	movzbl %al,%eax
    a33c:	89 85 e0 ef ff ff    	mov    %eax,-0x1020(%rbp)
    a342:	48 8b 05 9f 1a 01 00 	mov    0x11a9f(%rip),%rax        # 1bde8 <g_537>
    a349:	48 8b 95 58 f4 ff ff 	mov    -0xba8(%rbp),%rdx
    a350:	88 10                	mov    %dl,(%rax)
    a352:	0f b6 00             	movzbl (%rax),%eax
    a355:	3c 07                	cmp    $0x7,%al
    a357:	0f 94 c0             	sete   %al
    a35a:	0f b6 c0             	movzbl %al,%eax
    a35d:	89 de                	mov    %ebx,%esi
    a35f:	89 c7                	mov    %eax,%edi
    a361:	e8 f6 b9 ff ff       	callq  5d5c <safe_mod_func_uint16_t_u_u>
    a366:	83 c8 70             	or     $0x70,%eax
    a369:	83 f0 76             	xor    $0x76,%eax
    a36c:	0f b7 c0             	movzwl %ax,%eax
    a36f:	8b 15 2b 05 01 00    	mov    0x1052b(%rip),%edx        # 1a8a0 <g_246>
    a375:	89 d2                	mov    %edx,%edx
    a377:	48 09 c2             	or     %rax,%rdx
    a37a:	48 8b 05 7f 1a 01 00 	mov    0x11a7f(%rip),%rax        # 1be00 <g_599>
    a381:	48 8b 00             	mov    (%rax),%rax
    a384:	48 89 10             	mov    %rdx,(%rax)
    a387:	48 8b 95 b8 f1 ff ff 	mov    -0xe48(%rbp),%rdx
    a38e:	48 8b 85 70 f4 ff ff 	mov    -0xb90(%rbp),%rax
    a395:	48 89 10             	mov    %rdx,(%rax)
    a398:	48 8b 85 70 f4 ff ff 	mov    -0xb90(%rbp),%rax
    a39f:	48 8b 10             	mov    (%rax),%rdx
    a3a2:	48 8b 05 e7 26 01 00 	mov    0x126e7(%rip),%rax        # 1ca90 <g_2007>
    a3a9:	48 39 c2             	cmp    %rax,%rdx
    a3ac:	0f 95 c0             	setne  %al
    a3af:	0f b6 d0             	movzbl %al,%edx
    a3b2:	48 8b 05 c7 1d 01 00 	mov    0x11dc7(%rip),%rax        # 1c180 <g_1444>
    a3b9:	48 8b 00             	mov    (%rax),%rax
    a3bc:	48 8b 00             	mov    (%rax),%rax
    a3bf:	48 8b 00             	mov    (%rax),%rax
    a3c2:	48 39 85 60 f4 ff ff 	cmp    %rax,-0xba0(%rbp)
    a3c9:	0f 94 c0             	sete   %al
    a3cc:	0f b6 c0             	movzbl %al,%eax
    a3cf:	89 d6                	mov    %edx,%esi
    a3d1:	89 c7                	mov    %eax,%edi
    a3d3:	e8 de b1 ff ff       	callq  55b6 <safe_add_func_int32_t_s_s>
    a3d8:	48 8b 95 a0 f1 ff ff 	mov    -0xe60(%rbp),%rdx
    a3df:	48 8b 12             	mov    (%rdx),%rdx
    a3e2:	48 8b 12             	mov    (%rdx),%rdx
    a3e5:	48 8b 12             	mov    (%rdx),%rdx
    a3e8:	8b 12                	mov    (%rdx),%edx
    a3ea:	39 d0                	cmp    %edx,%eax
    a3ec:	0f 9c c0             	setl   %al
    a3ef:	0f b6 c0             	movzbl %al,%eax
    a3f2:	f7 d0                	not    %eax
    a3f4:	30 85 b6 ef ff ff    	xor    %al,-0x104a(%rbp)
    a3fa:	48 8b 05 e7 19 01 00 	mov    0x119e7(%rip),%rax        # 1bde8 <g_537>
    a401:	0f b6 00             	movzbl (%rax),%eax
    a404:	0f b6 d8             	movzbl %al,%ebx
    a407:	48 8b 05 8a 1e 01 00 	mov    0x11e8a(%rip),%rax        # 1c298 <g_1909>
    a40e:	be 09 00 00 00       	mov    $0x9,%esi
    a413:	bf 01 00 00 00       	mov    $0x1,%edi
    a418:	e8 46 b1 ff ff       	callq  5563 <safe_rshift_func_int16_t_s_u>
    a41d:	0f bf c8             	movswl %ax,%ecx
    a420:	48 8b 85 88 f4 ff ff 	mov    -0xb78(%rbp),%rax
    a427:	48 8b 95 80 f4 ff ff 	mov    -0xb80(%rbp),%rdx
    a42e:	48 89 10             	mov    %rdx,(%rax)
    a431:	48 8b 85 88 f4 ff ff 	mov    -0xb78(%rbp),%rax
    a438:	48 8b 00             	mov    (%rax),%rax
    a43b:	48 8d 15 69 04 01 00 	lea    0x10469(%rip),%rdx        # 1a8ab <g_346+0x1>
    a442:	48 39 d0             	cmp    %rdx,%rax
    a445:	0f 94 c0             	sete   %al
    a448:	0f b6 c0             	movzbl %al,%eax
    a44b:	39 c1                	cmp    %eax,%ecx
    a44d:	0f 9f c0             	setg   %al
    a450:	0f b6 d0             	movzbl %al,%edx
    a453:	48 8b 85 58 f4 ff ff 	mov    -0xba8(%rbp),%rax
    a45a:	0f be c0             	movsbl %al,%eax
    a45d:	89 d6                	mov    %edx,%esi
    a45f:	89 c7                	mov    %eax,%edi
    a461:	e8 ac ad ff ff       	callq  5212 <safe_mul_func_int8_t_s_s>
    a466:	44 0f be e8          	movsbl %al,%r13d
    a46a:	48 8b 85 90 f2 ff ff 	mov    -0xd70(%rbp),%rax
    a471:	8b 00                	mov    (%rax),%eax
    a473:	44 0f b6 e0          	movzbl %al,%r12d
    a477:	be 09 00 00 00       	mov    $0x9,%esi
    a47c:	bf 01 00 00 00       	mov    $0x1,%edi
    a481:	e8 c2 b9 ff ff       	callq  5e48 <safe_rshift_func_uint16_t_u_s>
    a486:	0f b7 c0             	movzwl %ax,%eax
    a489:	f7 d0                	not    %eax
    a48b:	89 c2                	mov    %eax,%edx
    a48d:	8b 05 29 0a 01 00    	mov    0x10a29(%rip),%eax        # 1aebc <g_1457+0xc>
    a493:	25 ff ff ff 3f       	and    $0x3fffffff,%eax
    a498:	21 d0                	and    %edx,%eax
    a49a:	25 ff ff ff 3f       	and    $0x3fffffff,%eax
    a49f:	25 ff ff ff 3f       	and    $0x3fffffff,%eax
    a4a4:	89 c2                	mov    %eax,%edx
    a4a6:	8b 05 10 0a 01 00    	mov    0x10a10(%rip),%eax        # 1aebc <g_1457+0xc>
    a4ac:	25 00 00 00 c0       	and    $0xc0000000,%eax
    a4b1:	09 d0                	or     %edx,%eax
    a4b3:	89 05 03 0a 01 00    	mov    %eax,0x10a03(%rip)        # 1aebc <g_1457+0xc>
    a4b9:	66 0f be 85 b8 ef ff 	movsbw -0x1048(%rbp),%ax
    a4c0:	ff 
    a4c1:	0f b7 c0             	movzwl %ax,%eax
    a4c4:	be ff ff 00 00       	mov    $0xffff,%esi
    a4c9:	89 c7                	mov    %eax,%edi
    a4cb:	e8 aa b9 ff ff       	callq  5e7a <safe_rshift_func_uint16_t_u_u>
    a4d0:	48 83 bd 50 f4 ff ff 	cmpq   $0x0,-0xbb0(%rbp)
    a4d7:	00 
    a4d8:	0f 94 c0             	sete   %al
    a4db:	0f b6 d0             	movzbl %al,%edx
    a4de:	48 8b 85 a0 f1 ff ff 	mov    -0xe60(%rbp),%rax
    a4e5:	48 8b 00             	mov    (%rax),%rax
    a4e8:	48 8b 00             	mov    (%rax),%rax
    a4eb:	48 8b 00             	mov    (%rax),%rax
    a4ee:	8b 00                	mov    (%rax),%eax
    a4f0:	39 c2                	cmp    %eax,%edx
    a4f2:	0f 95 c0             	setne  %al
    a4f5:	0f b6 c0             	movzbl %al,%eax
    a4f8:	89 c7                	mov    %eax,%edi
    a4fa:	e8 97 b0 ff ff       	callq  5596 <safe_unary_minus_func_int32_t_s>
    a4ff:	0f b6 c0             	movzbl %al,%eax
    a502:	44 89 e6             	mov    %r12d,%esi
    a505:	89 c7                	mov    %eax,%edi
    a507:	e8 4e b6 ff ff       	callq  5b5a <safe_add_func_uint8_t_u_u>
    a50c:	0f b6 c0             	movzbl %al,%eax
    a50f:	41 39 c5             	cmp    %eax,%r13d
    a512:	89 de                	mov    %ebx,%esi
    a514:	bf b0 00 00 00       	mov    $0xb0,%edi
    a519:	e8 3c b6 ff ff       	callq  5b5a <safe_add_func_uint8_t_u_u>
    a51e:	0f b6 c0             	movzbl %al,%eax
    a521:	31 85 20 f0 ff ff    	xor    %eax,-0xfe0(%rbp)
    a527:	48 8b 05 7a 1c 01 00 	mov    0x11c7a(%rip),%rax        # 1c1a8 <g_1718>
    a52e:	48 8b 00             	mov    (%rax),%rax
    a531:	8b 95 20 f0 ff ff    	mov    -0xfe0(%rbp),%edx
    a537:	89 10                	mov    %edx,(%rax)
    a539:	48 8b 05 68 1c 01 00 	mov    0x11c68(%rip),%rax        # 1c1a8 <g_1718>
    a540:	48 8b 00             	mov    (%rax),%rax
    a543:	8b 10                	mov    (%rax),%edx
    a545:	89 10                	mov    %edx,(%rax)
    a547:	48 8b 85 90 f2 ff ff 	mov    -0xd70(%rbp),%rax
    a54e:	8b 00                	mov    (%rax),%eax
    a550:	85 c0                	test   %eax,%eax
    a552:	74 1b                	je     a56f <func_42+0x1717>
    a554:	eb 4a                	jmp    a5a0 <func_42+0x1748>
    a556:	8b 85 e4 ef ff ff    	mov    -0x101c(%rbp),%eax
    a55c:	85 c0                	test   %eax,%eax
    a55e:	75 3f                	jne    a59f <func_42+0x1747>
    a560:	48 8b 05 91 18 01 00 	mov    0x11891(%rip),%rax        # 1bdf8 <g_600>
    a567:	48 8b 00             	mov    (%rax),%rax
    a56a:	e9 a7 40 00 00       	jmpq   e616 <func_42+0x57be>
    a56f:	0f b7 05 f8 fa 00 00 	movzwl 0xfaf8(%rip),%eax        # 1a06e <g_171>
    a576:	0f b7 c0             	movzwl %ax,%eax
    a579:	be 01 00 00 00       	mov    $0x1,%esi
    a57e:	89 c7                	mov    %eax,%edi
    a580:	e8 31 b0 ff ff       	callq  55b6 <safe_add_func_int32_t_s_s>
    a585:	66 89 05 e2 fa 00 00 	mov    %ax,0xfae2(%rip)        # 1a06e <g_171>
    a58c:	0f b7 05 db fa 00 00 	movzwl 0xfadb(%rip),%eax        # 1a06e <g_171>
    a593:	66 83 f8 2b          	cmp    $0x2b,%ax
    a597:	0f 86 9e f7 ff ff    	jbe    9d3b <func_42+0xee3>
    a59d:	eb 01                	jmp    a5a0 <func_42+0x1748>
    a59f:	90                   	nop
    a5a0:	48 8b 05 e9 1b 01 00 	mov    0x11be9(%rip),%rax        # 1c190 <g_1520>
    a5a7:	48 8b 00             	mov    (%rax),%rax
    a5aa:	48 8d 95 10 f0 ff ff 	lea    -0xff0(%rbp),%rdx
    a5b1:	48 89 10             	mov    %rdx,(%rax)
    a5b4:	e9 67 16 00 00       	jmpq   bc20 <func_42+0x2dc8>
    a5b9:	c7 85 04 f0 ff ff 1e 	movl   $0xeee9501e,-0xffc(%rbp)
    a5c0:	50 e9 ee 
    a5c3:	c7 85 08 f0 ff ff f8 	movl   $0xfffffff8,-0xff8(%rbp)
    a5ca:	ff ff ff 
    a5cd:	c7 85 0c f0 ff ff 85 	movl   $0xd24a4885,-0xff4(%rbp)
    a5d4:	48 4a d2 
    a5d7:	c7 85 90 f0 ff ff 2b 	movl   $0x522cee2b,-0xf70(%rbp)
    a5de:	ee 2c 52 
    a5e1:	48 8d 05 f8 fd 00 00 	lea    0xfdf8(%rip),%rax        # 1a3e0 <g_196+0x360>
    a5e8:	48 89 85 b0 f2 ff ff 	mov    %rax,-0xd50(%rbp)
    a5ef:	c7 85 10 f0 ff ff fd 	movl   $0x74eab4fd,-0xff0(%rbp)
    a5f6:	b4 ea 74 
    a5f9:	c7 85 94 f0 ff ff 46 	movl   $0xa4108846,-0xf6c(%rbp)
    a600:	88 10 a4 
    a603:	c7 85 a8 f1 ff ff f9 	movl   $0xfffffff9,-0xe58(%rbp)
    a60a:	ff ff ff 
    a60d:	c7 85 98 f0 ff ff ac 	movl   $0xc6872bac,-0xf68(%rbp)
    a614:	2b 87 c6 
    a617:	c7 85 9c f0 ff ff 00 	movl   $0x0,-0xf64(%rbp)
    a61e:	00 00 00 
    a621:	c7 85 a0 f0 ff ff 49 	movl   $0x5ac5f549,-0xf60(%rbp)
    a628:	f5 c5 5a 
    a62b:	c7 85 b0 f5 ff ff 8c 	movl   $0x73dc9d8c,-0xa50(%rbp)
    a632:	9d dc 73 
    a635:	c7 85 b4 f5 ff ff ff 	movl   $0xffffffff,-0xa4c(%rbp)
    a63c:	ff ff ff 
    a63f:	c7 85 b8 f5 ff ff ff 	movl   $0xffffffff,-0xa48(%rbp)
    a646:	ff ff ff 
    a649:	c7 85 bc f5 ff ff 8c 	movl   $0x73dc9d8c,-0xa44(%rbp)
    a650:	9d dc 73 
    a653:	c7 85 c0 f5 ff ff ff 	movl   $0xffffffff,-0xa40(%rbp)
    a65a:	ff ff ff 
    a65d:	c7 85 c4 f5 ff ff ff 	movl   $0xffffffff,-0xa3c(%rbp)
    a664:	ff ff ff 
    a667:	c7 85 c8 f5 ff ff 8c 	movl   $0x73dc9d8c,-0xa38(%rbp)
    a66e:	9d dc 73 
    a671:	c7 85 cc f5 ff ff ff 	movl   $0xffffffff,-0xa34(%rbp)
    a678:	ff ff ff 
    a67b:	66 c7 85 ca ef ff ff 	movw   $0x3e25,-0x1036(%rbp)
    a682:	25 3e 
    a684:	48 8d 05 1d 02 01 00 	lea    0x1021d(%rip),%rax        # 1a8a8 <g_345+0x3>
    a68b:	48 89 85 b8 f2 ff ff 	mov    %rax,-0xd48(%rbp)
    a692:	c7 85 a4 f0 ff ff 00 	movl   $0x0,-0xf5c(%rbp)
    a699:	00 00 00 
    a69c:	66 c7 85 d0 ef ff ff 	movw   $0xf85f,-0x1030(%rbp)
    a6a3:	5f f8 
    a6a5:	c7 85 38 f0 ff ff 00 	movl   $0x0,-0xfc8(%rbp)
    a6ac:	00 00 00 
    a6af:	eb 1b                	jmp    a6cc <func_42+0x1874>
    a6b1:	8b 85 38 f0 ff ff    	mov    -0xfc8(%rbp),%eax
    a6b7:	48 98                	cltq   
    a6b9:	48 c7 84 c5 20 f8 ff 	movq   $0x0,-0x7e0(%rbp,%rax,8)
    a6c0:	ff 00 00 00 00 
    a6c5:	83 85 38 f0 ff ff 01 	addl   $0x1,-0xfc8(%rbp)
    a6cc:	83 bd 38 f0 ff ff 09 	cmpl   $0x9,-0xfc8(%rbp)
    a6d3:	7e dc                	jle    a6b1 <func_42+0x1859>
    a6d5:	90                   	nop
    a6d6:	c7 85 e4 ef ff ff 01 	movl   $0x1,-0x101c(%rbp)
    a6dd:	00 00 00 
    a6e0:	90                   	nop
    a6e1:	8b 85 e4 ef ff ff    	mov    -0x101c(%rbp),%eax
    a6e7:	83 f8 fe             	cmp    $0xfffffffe,%eax
    a6ea:	7d 12                	jge    a6fe <func_42+0x18a6>
    a6ec:	48 8b 05 0d 17 01 00 	mov    0x1170d(%rip),%rax        # 1be00 <g_599>
    a6f3:	48 8b 00             	mov    (%rax),%rax
    a6f6:	48 8b 00             	mov    (%rax),%rax
    a6f9:	e9 18 3f 00 00       	jmpq   e616 <func_42+0x57be>
    a6fe:	83 bd 74 f0 ff ff 00 	cmpl   $0x0,-0xf8c(%rbp)
    a705:	75 0d                	jne    a714 <func_42+0x18bc>
    a707:	80 bd b8 ef ff ff 00 	cmpb   $0x0,-0x1048(%rbp)
    a70e:	0f 84 81 09 00 00    	je     b095 <func_42+0x223d>
    a714:	c6 85 bc ef ff ff 05 	movb   $0x5,-0x1044(%rbp)
    a71b:	c7 85 b0 f1 ff ff 01 	movl   $0x1,-0xe50(%rbp)
    a722:	00 00 00 
    a725:	c6 85 bd ef ff ff e8 	movb   $0xe8,-0x1043(%rbp)
    a72c:	c7 85 ac f0 ff ff 01 	movl   $0x1,-0xf54(%rbp)
    a733:	00 00 00 
    a736:	48 8d 05 9d 07 01 00 	lea    0x1079d(%rip),%rax        # 1aeda <g_1571+0xa>
    a73d:	48 89 85 38 f3 ff ff 	mov    %rax,-0xcc8(%rbp)
    a744:	48 c7 85 b8 f1 ff ff 	movq   $0x0,-0xe48(%rbp)
    a74b:	00 00 00 00 
    a74f:	48 8d 85 b8 f1 ff ff 	lea    -0xe48(%rbp),%rax
    a756:	48 89 85 40 f3 ff ff 	mov    %rax,-0xcc0(%rbp)
    a75d:	c7 85 3c f0 ff ff 00 	movl   $0x0,-0xfc4(%rbp)
    a764:	00 00 00 
    a767:	eb 1a                	jmp    a783 <func_42+0x192b>
    a769:	8b 85 3c f0 ff ff    	mov    -0xfc4(%rbp),%eax
    a76f:	48 98                	cltq   
    a771:	c7 84 85 40 f5 ff ff 	movl   $0xffffffff,-0xac0(%rbp,%rax,4)
    a778:	ff ff ff ff 
    a77c:	83 85 3c f0 ff ff 01 	addl   $0x1,-0xfc4(%rbp)
    a783:	83 bd 3c f0 ff ff 02 	cmpl   $0x2,-0xfc4(%rbp)
    a78a:	7e dd                	jle    a769 <func_42+0x1911>
    a78c:	83 bd 74 f0 ff ff 00 	cmpl   $0x0,-0xf8c(%rbp)
    a793:	0f 84 5c 01 00 00    	je     a8f5 <func_42+0x1a9d>
    a799:	48 8b 05 08 19 01 00 	mov    0x11908(%rip),%rax        # 1c0a8 <g_990>
    a7a0:	48 8b 00             	mov    (%rax),%rax
    a7a3:	48 8b 18             	mov    (%rax),%rbx
    a7a6:	44 8b a5 e4 ef ff ff 	mov    -0x101c(%rbp),%r12d
    a7ad:	48 8b 05 fc 18 01 00 	mov    0x118fc(%rip),%rax        # 1c0b0 <g_1312>
    a7b4:	0f b7 00             	movzwl (%rax),%eax
    a7b7:	44 0f bf e8          	movswl %ax,%r13d
    a7bb:	0f b7 85 3e f5 ff ff 	movzwl -0xac2(%rbp),%eax
    a7c2:	44 0f bf f0          	movswl %ax,%r14d
    a7c6:	8b 85 e8 ef ff ff    	mov    -0x1018(%rbp),%eax
    a7cc:	85 c0                	test   %eax,%eax
    a7ce:	74 28                	je     a7f8 <func_42+0x19a0>
    a7d0:	48 8b 05 c1 1a 01 00 	mov    0x11ac1(%rip),%rax        # 1c298 <g_1909>
    a7d7:	48 8b 00             	mov    (%rax),%rax
    a7da:	48 8b 00             	mov    (%rax),%rax
    a7dd:	0f b7 10             	movzwl (%rax),%edx
    a7e0:	48 8b 05 01 16 01 00 	mov    0x11601(%rip),%rax        # 1bde8 <g_537>
    a7e7:	0f b6 00             	movzbl (%rax),%eax
    a7ea:	66 98                	cbtw   
    a7ec:	66 39 c2             	cmp    %ax,%dx
    a7ef:	7f 07                	jg     a7f8 <func_42+0x19a0>
    a7f1:	b8 01 00 00 00       	mov    $0x1,%eax
    a7f6:	eb 05                	jmp    a7fd <func_42+0x19a5>
    a7f8:	b8 00 00 00 00       	mov    $0x0,%eax
    a7fd:	0f be c0             	movsbl %al,%eax
    a800:	89 c6                	mov    %eax,%esi
    a802:	bf fd ff ff ff       	mov    $0xfffffffd,%edi
    a807:	e8 c8 a9 ff ff       	callq  51d4 <safe_add_func_int8_t_s_s>
    a80c:	f7 d0                	not    %eax
    a80e:	c0 e8 07             	shr    $0x7,%al
    a811:	0f b6 c0             	movzbl %al,%eax
    a814:	41 39 c6             	cmp    %eax,%r14d
    a817:	7c 0a                	jl     a823 <func_42+0x19cb>
    a819:	8b 85 04 f0 ff ff    	mov    -0xffc(%rbp),%eax
    a81f:	85 c0                	test   %eax,%eax
    a821:	74 07                	je     a82a <func_42+0x19d2>
    a823:	b8 01 00 00 00       	mov    $0x1,%eax
    a828:	eb 05                	jmp    a82f <func_42+0x19d7>
    a82a:	b8 00 00 00 00       	mov    $0x0,%eax
    a82f:	3d 0a f2 00 00       	cmp    $0xf20a,%eax
    a834:	ba 00 00 00 00       	mov    $0x0,%edx
    a839:	8b 85 08 f0 ff ff    	mov    -0xff8(%rbp),%eax
    a83f:	21 d0                	and    %edx,%eax
    a841:	89 85 08 f0 ff ff    	mov    %eax,-0xff8(%rbp)
    a847:	8b 85 08 f0 ff ff    	mov    -0xff8(%rbp),%eax
    a84d:	98                   	cwtl   
    a84e:	44 89 ee             	mov    %r13d,%esi
    a851:	89 c7                	mov    %eax,%edi
    a853:	e8 be ab ff ff       	callq  5416 <safe_mod_func_int16_t_s_s>
    a858:	66 0f be 85 bc ef ff 	movsbw -0x1044(%rbp),%ax
    a85f:	ff 
    a860:	0f b7 c0             	movzwl %ax,%eax
    a863:	44 89 e6             	mov    %r12d,%esi
    a866:	89 c7                	mov    %eax,%edi
    a868:	e8 51 b5 ff ff       	callq  5dbe <safe_lshift_func_uint16_t_u_s>
    a86d:	0f b7 c0             	movzwl %ax,%eax
    a870:	48 89 de             	mov    %rbx,%rsi
    a873:	48 89 c7             	mov    %rax,%rdi
    a876:	e8 2d b0 ff ff       	callq  58a8 <safe_sub_func_int64_t_s_s>
    a87b:	48 8b 05 2e 18 01 00 	mov    0x1182e(%rip),%rax        # 1c0b0 <g_1312>
    a882:	0f b7 00             	movzwl (%rax),%eax
    a885:	66 85 c0             	test   %ax,%ax
    a888:	74 6b                	je     a8f5 <func_42+0x1a9d>
    a88a:	90                   	nop
    a88b:	48 8b 05 56 19 01 00 	mov    0x11956(%rip),%rax        # 1c1e8 <g_1715>
    a892:	48 8b 00             	mov    (%rax),%rax
    a895:	48 8b 00             	mov    (%rax),%rax
    a898:	48 8b 00             	mov    (%rax),%rax
    a89b:	48 8b 00             	mov    (%rax),%rax
    a89e:	8b 08                	mov    (%rax),%ecx
    a8a0:	48 8b 95 40 f8 ff ff 	mov    -0x7c0(%rbp),%rdx
    a8a7:	48 39 95 90 f2 ff ff 	cmp    %rdx,-0xd70(%rbp)
    a8ae:	0f 95 c2             	setne  %dl
    a8b1:	0f b6 d2             	movzbl %dl,%edx
    a8b4:	09 ca                	or     %ecx,%edx
    a8b6:	89 10                	mov    %edx,(%rax)
    a8b8:	eb 01                	jmp    a8bb <func_42+0x1a63>
    a8ba:	90                   	nop
    a8bb:	c7 05 2f 05 01 00 00 	movl   $0x0,0x1052f(%rip)        # 1adf4 <g_1132>
    a8c2:	00 00 00 
    a8c5:	eb 1e                	jmp    a8e5 <func_42+0x1a8d>
    a8c7:	8b 85 e8 ef ff ff    	mov    -0x1018(%rbp),%eax
    a8cd:	85 c0                	test   %eax,%eax
    a8cf:	74 05                	je     a8d6 <func_42+0x1a7e>
    a8d1:	e9 00 fe ff ff       	jmpq   a6d6 <func_42+0x187e>
    a8d6:	8b 05 18 05 01 00    	mov    0x10518(%rip),%eax        # 1adf4 <g_1132>
    a8dc:	83 e8 01             	sub    $0x1,%eax
    a8df:	89 05 0f 05 01 00    	mov    %eax,0x1050f(%rip)        # 1adf4 <g_1132>
    a8e5:	8b 05 09 05 01 00    	mov    0x10509(%rip),%eax        # 1adf4 <g_1132>
    a8eb:	83 f8 f2             	cmp    $0xfffffff2,%eax
    a8ee:	7c d7                	jl     a8c7 <func_42+0x1a6f>
    a8f0:	e9 07 07 00 00       	jmpq   affc <func_42+0x21a4>
    a8f5:	48 8d 85 00 f0 ff ff 	lea    -0x1000(%rbp),%rax
    a8fc:	48 89 85 48 f3 ff ff 	mov    %rax,-0xcb8(%rbp)
    a903:	c7 85 20 f9 ff ff ea 	movl   $0x615cc6ea,-0x6e0(%rbp)
    a90a:	c6 5c 61 
    a90d:	c7 85 24 f9 ff ff a8 	movl   $0xc8f338a8,-0x6dc(%rbp)
    a914:	38 f3 c8 
    a917:	c7 85 28 f9 ff ff 05 	movl   $0xb3a89205,-0x6d8(%rbp)
    a91e:	92 a8 b3 
    a921:	c7 85 2c f9 ff ff ff 	movl   $0xffffffff,-0x6d4(%rbp)
    a928:	ff ff ff 
    a92b:	c7 85 30 f9 ff ff 05 	movl   $0xb3a89205,-0x6d0(%rbp)
    a932:	92 a8 b3 
    a935:	c7 85 34 f9 ff ff a8 	movl   $0xc8f338a8,-0x6cc(%rbp)
    a93c:	38 f3 c8 
    a93f:	c7 85 38 f9 ff ff ea 	movl   $0x615cc6ea,-0x6c8(%rbp)
    a946:	c6 5c 61 
    a949:	c7 85 3c f9 ff ff ea 	movl   $0x615cc6ea,-0x6c4(%rbp)
    a950:	c6 5c 61 
    a953:	c7 85 40 f9 ff ff a8 	movl   $0xc8f338a8,-0x6c0(%rbp)
    a95a:	38 f3 c8 
    a95d:	c7 85 44 f9 ff ff fc 	movl   $0xfffffffc,-0x6bc(%rbp)
    a964:	ff ff ff 
    a967:	c7 85 48 f9 ff ff 00 	movl   $0x0,-0x6b8(%rbp)
    a96e:	00 00 00 
    a971:	c7 85 4c f9 ff ff f9 	movl   $0xfffffff9,-0x6b4(%rbp)
    a978:	ff ff ff 
    a97b:	c7 85 50 f9 ff ff 00 	movl   $0x0,-0x6b0(%rbp)
    a982:	00 00 00 
    a985:	c7 85 54 f9 ff ff fc 	movl   $0xfffffffc,-0x6ac(%rbp)
    a98c:	ff ff ff 
    a98f:	c7 85 58 f9 ff ff 06 	movl   $0x6,-0x6a8(%rbp)
    a996:	00 00 00 
    a999:	c7 85 5c f9 ff ff 06 	movl   $0x6,-0x6a4(%rbp)
    a9a0:	00 00 00 
    a9a3:	c7 85 60 f9 ff ff fc 	movl   $0xfffffffc,-0x6a0(%rbp)
    a9aa:	ff ff ff 
    a9ad:	c7 85 64 f9 ff ff 00 	movl   $0x0,-0x69c(%rbp)
    a9b4:	00 00 00 
    a9b7:	c7 85 68 f9 ff ff ea 	movl   $0x615cc6ea,-0x698(%rbp)
    a9be:	c6 5c 61 
    a9c1:	c7 85 6c f9 ff ff 05 	movl   $0xb3a89205,-0x694(%rbp)
    a9c8:	92 a8 b3 
    a9cb:	c7 85 70 f9 ff ff ea 	movl   $0x615cc6ea,-0x690(%rbp)
    a9d2:	c6 5c 61 
    a9d5:	c7 85 74 f9 ff ff ff 	movl   $0xffffffff,-0x68c(%rbp)
    a9dc:	ff ff ff 
    a9df:	c7 85 78 f9 ff ff 01 	movl   $0x1,-0x688(%rbp)
    a9e6:	00 00 00 
    a9e9:	c7 85 7c f9 ff ff 01 	movl   $0x1,-0x684(%rbp)
    a9f0:	00 00 00 
    a9f3:	c7 85 80 f9 ff ff ff 	movl   $0xffffffff,-0x680(%rbp)
    a9fa:	ff ff ff 
    a9fd:	c7 85 84 f9 ff ff ea 	movl   $0x615cc6ea,-0x67c(%rbp)
    aa04:	c6 5c 61 
    aa07:	c7 85 88 f9 ff ff 05 	movl   $0xb3a89205,-0x678(%rbp)
    aa0e:	92 a8 b3 
    aa11:	c7 85 8c f9 ff ff 61 	movl   $0x20df6b61,-0x674(%rbp)
    aa18:	6b df 20 
    aa1b:	c7 85 90 f9 ff ff ff 	movl   $0xffffffff,-0x670(%rbp)
    aa22:	ff ff ff 
    aa25:	c7 85 94 f9 ff ff 06 	movl   $0x6,-0x66c(%rbp)
    aa2c:	00 00 00 
    aa2f:	c7 85 98 f9 ff ff f9 	movl   $0xfffffff9,-0x668(%rbp)
    aa36:	ff ff ff 
    aa39:	c7 85 9c f9 ff ff f9 	movl   $0xfffffff9,-0x664(%rbp)
    aa40:	ff ff ff 
    aa43:	c7 85 a0 f9 ff ff 06 	movl   $0x6,-0x660(%rbp)
    aa4a:	00 00 00 
    aa4d:	c7 85 a4 f9 ff ff ff 	movl   $0xffffffff,-0x65c(%rbp)
    aa54:	ff ff ff 
    aa57:	c7 85 a8 f9 ff ff 61 	movl   $0x20df6b61,-0x658(%rbp)
    aa5e:	6b df 20 
    aa61:	c7 85 ac f9 ff ff ff 	movl   $0xffffffff,-0x654(%rbp)
    aa68:	ff ff ff 
    aa6b:	c7 85 b0 f9 ff ff a8 	movl   $0xc8f338a8,-0x650(%rbp)
    aa72:	38 f3 c8 
    aa75:	c7 85 b4 f9 ff ff ff 	movl   $0xffffffff,-0x64c(%rbp)
    aa7c:	ff ff ff 
    aa7f:	c7 85 b8 f9 ff ff ff 	movl   $0xffffffff,-0x648(%rbp)
    aa86:	ff ff ff 
    aa89:	c7 85 bc f9 ff ff ff 	movl   $0xffffffff,-0x644(%rbp)
    aa90:	ff ff ff 
    aa93:	c7 85 c0 f9 ff ff ff 	movl   $0xffffffff,-0x640(%rbp)
    aa9a:	ff ff ff 
    aa9d:	c7 85 c4 f9 ff ff ea 	movl   $0x615cc6ea,-0x63c(%rbp)
    aaa4:	c6 5c 61 
    aaa7:	c7 85 c8 f9 ff ff 05 	movl   $0xb3a89205,-0x638(%rbp)
    aaae:	92 a8 b3 
    aab1:	c7 85 cc f9 ff ff ea 	movl   $0x615cc6ea,-0x634(%rbp)
    aab8:	c6 5c 61 
    aabb:	c7 85 d0 f9 ff ff ff 	movl   $0xffffffff,-0x630(%rbp)
    aac2:	ff ff ff 
    aac5:	48 8d 85 fc ef ff ff 	lea    -0x1004(%rbp),%rax
    aacc:	48 89 85 50 f3 ff ff 	mov    %rax,-0xcb0(%rbp)
    aad3:	48 8d 85 e8 ef ff ff 	lea    -0x1018(%rbp),%rax
    aada:	48 89 85 58 f3 ff ff 	mov    %rax,-0xca8(%rbp)
    aae1:	48 8d 85 20 f9 ff ff 	lea    -0x6e0(%rbp),%rax
    aae8:	48 83 c0 48          	add    $0x48,%rax
    aaec:	48 89 85 60 f3 ff ff 	mov    %rax,-0xca0(%rbp)
    aaf3:	48 8d 85 fc ef ff ff 	lea    -0x1004(%rbp),%rax
    aafa:	48 89 85 68 f3 ff ff 	mov    %rax,-0xc98(%rbp)
    ab01:	48 c7 85 70 f3 ff ff 	movq   $0x0,-0xc90(%rbp)
    ab08:	00 00 00 00 
    ab0c:	48 8d 85 ec ef ff ff 	lea    -0x1014(%rbp),%rax
    ab13:	48 89 85 78 f3 ff ff 	mov    %rax,-0xc88(%rbp)
    ab1a:	48 8d 85 04 f0 ff ff 	lea    -0xffc(%rbp),%rax
    ab21:	48 89 85 80 f3 ff ff 	mov    %rax,-0xc80(%rbp)
    ab28:	48 8d 85 e0 ef ff ff 	lea    -0x1020(%rbp),%rax
    ab2f:	48 89 85 88 f3 ff ff 	mov    %rax,-0xc78(%rbp)
    ab36:	48 8d 85 0c f0 ff ff 	lea    -0xff4(%rbp),%rax
    ab3d:	48 89 85 90 f3 ff ff 	mov    %rax,-0xc70(%rbp)
    ab44:	48 8d 85 0c f0 ff ff 	lea    -0xff4(%rbp),%rax
    ab4b:	48 89 85 98 f3 ff ff 	mov    %rax,-0xc68(%rbp)
    ab52:	48 8d 85 f4 ef ff ff 	lea    -0x100c(%rbp),%rax
    ab59:	48 89 85 a0 f3 ff ff 	mov    %rax,-0xc60(%rbp)
    ab60:	48 b8 a8 89 e7 84 4e 	movabs $0xbd113f4e84e789a8,%rax
    ab67:	3f 11 bd 
    ab6a:	48 89 85 a8 f3 ff ff 	mov    %rax,-0xc58(%rbp)
    ab71:	c7 85 40 f0 ff ff 00 	movl   $0x0,-0xfc0(%rbp)
    ab78:	00 00 00 
    ab7b:	eb 1e                	jmp    ab9b <func_42+0x1d43>
    ab7d:	8b 85 40 f0 ff ff    	mov    -0xfc0(%rbp),%eax
    ab83:	48 98                	cltq   
    ab85:	48 8d 95 b0 f1 ff ff 	lea    -0xe50(%rbp),%rdx
    ab8c:	48 89 94 c5 60 f5 ff 	mov    %rdx,-0xaa0(%rbp,%rax,8)
    ab93:	ff 
    ab94:	83 85 40 f0 ff ff 01 	addl   $0x1,-0xfc0(%rbp)
    ab9b:	83 bd 40 f0 ff ff 01 	cmpl   $0x1,-0xfc0(%rbp)
    aba2:	7e d9                	jle    ab7d <func_42+0x1d25>
    aba4:	90                   	nop
    aba5:	f3 0f 1e fa          	endbr64 
    aba9:	0f b7 85 3e f5 ff ff 	movzwl -0xac2(%rbp),%eax
    abb0:	48 0f bf d8          	movswq %ax,%rbx
    abb4:	0f b7 85 3e f5 ff ff 	movzwl -0xac2(%rbp),%eax
    abbb:	4c 0f bf e0          	movswq %ax,%r12
    abbf:	44 0f be ad bc ef ff 	movsbl -0x1044(%rbp),%r13d
    abc6:	ff 
    abc7:	48 8b 05 1a 12 01 00 	mov    0x1121a(%rip),%rax        # 1bde8 <g_537>
    abce:	c6 00 ff             	movb   $0xff,(%rax)
    abd1:	be 05 00 00 00       	mov    $0x5,%esi
    abd6:	bf ff ff ff ff       	mov    $0xffffffff,%edi
    abdb:	e8 0e a7 ff ff       	callq  52ee <safe_lshift_func_int8_t_s_u>
    abe0:	be 07 00 00 00       	mov    $0x7,%esi
    abe5:	bf eb 00 00 00       	mov    $0xeb,%edi
    abea:	e8 16 b0 ff ff       	callq  5c05 <safe_lshift_func_uint8_t_u_s>
    abef:	44 0f b6 f0          	movzbl %al,%r14d
    abf3:	be 70 00 00 00       	mov    $0x70,%esi
    abf8:	bf 00 00 00 00       	mov    $0x0,%edi
    abfd:	e8 2f a6 ff ff       	callq  5231 <safe_mod_func_int8_t_s_s>
    ac02:	0f be d0             	movsbl %al,%edx
    ac05:	48 8b 85 90 f2 ff ff 	mov    -0xd70(%rbp),%rax
    ac0c:	8b 00                	mov    (%rax),%eax
    ac0e:	21 d0                	and    %edx,%eax
    ac10:	48 98                	cltq   
    ac12:	48 39 85 a8 f2 ff ff 	cmp    %rax,-0xd58(%rbp)
    ac19:	0f 94 c0             	sete   %al
    ac1c:	0f b6 c0             	movzbl %al,%eax
    ac1f:	41 39 c6             	cmp    %eax,%r14d
    ac22:	7f 09                	jg     ac2d <func_42+0x1dd5>
    ac24:	80 bd bc ef ff ff 00 	cmpb   $0x0,-0x1044(%rbp)
    ac2b:	74 07                	je     ac34 <func_42+0x1ddc>
    ac2d:	b8 01 00 00 00       	mov    $0x1,%eax
    ac32:	eb 05                	jmp    ac39 <func_42+0x1de1>
    ac34:	b8 00 00 00 00       	mov    $0x0,%eax
    ac39:	89 c2                	mov    %eax,%edx
    ac3b:	8b 05 cf fc 00 00    	mov    0xfccf(%rip),%eax        # 1a910 <g_578>
    ac41:	39 c2                	cmp    %eax,%edx
    ac43:	0f 94 c0             	sete   %al
    ac46:	0f b6 d0             	movzbl %al,%edx
    ac49:	48 8b 05 08 bc 00 00 	mov    0xbc08(%rip),%rax        # 16858 <l_2061.4547+0x1d8>
    ac50:	48 39 c2             	cmp    %rax,%rdx
    ac53:	0f 96 c0             	setbe  %al
    ac56:	0f b6 d0             	movzbl %al,%edx
    ac59:	48 8b 05 30 16 01 00 	mov    0x11630(%rip),%rax        # 1c290 <g_1910>
    ac60:	48 8b 00             	mov    (%rax),%rax
    ac63:	0f b7 00             	movzwl (%rax),%eax
    ac66:	98                   	cwtl   
    ac67:	39 c2                	cmp    %eax,%edx
    ac69:	0f 9c c0             	setl   %al
    ac6c:	0f b6 c0             	movzbl %al,%eax
    ac6f:	be 1e 00 00 00       	mov    $0x1e,%esi
    ac74:	89 c7                	mov    %eax,%edi
    ac76:	e8 df ae ff ff       	callq  5b5a <safe_add_func_uint8_t_u_u>
    ac7b:	0f b6 c0             	movzbl %al,%eax
    ac7e:	41 39 c5             	cmp    %eax,%r13d
    ac81:	0f 9f c0             	setg   %al
    ac84:	0f b6 c0             	movzbl %al,%eax
    ac87:	be ff ff ff ff       	mov    $0xffffffff,%esi
    ac8c:	89 c7                	mov    %eax,%edi
    ac8e:	e8 25 b2 ff ff       	callq  5eb8 <safe_add_func_uint32_t_u_u>
    ac93:	0f be d0             	movsbl %al,%edx
    ac96:	8b 85 e4 ef ff ff    	mov    -0x101c(%rbp),%eax
    ac9c:	0f be c0             	movsbl %al,%eax
    ac9f:	89 d6                	mov    %edx,%esi
    aca1:	89 c7                	mov    %eax,%edi
    aca3:	e8 4a a5 ff ff       	callq  51f2 <safe_sub_func_int8_t_s_s>
    aca8:	0f be d0             	movsbl %al,%edx
    acab:	8b 85 08 f0 ff ff    	mov    -0xff8(%rbp),%eax
    acb1:	39 c2                	cmp    %eax,%edx
    acb3:	0f 9c c0             	setl   %al
    acb6:	0f b6 d0             	movzbl %al,%edx
    acb9:	0f be 85 bc ef ff ff 	movsbl -0x1044(%rbp),%eax
    acc0:	39 c2                	cmp    %eax,%edx
    acc2:	0f 95 c0             	setne  %al
    acc5:	0f b6 d0             	movzbl %al,%edx
    acc8:	0f be 85 b8 ef ff ff 	movsbl -0x1048(%rbp),%eax
    accf:	39 c2                	cmp    %eax,%edx
    acd1:	74 14                	je     ace7 <func_42+0x1e8f>
    acd3:	48 8b 85 90 f2 ff ff 	mov    -0xd70(%rbp),%rax
    acda:	8b 00                	mov    (%rax),%eax
    acdc:	85 c0                	test   %eax,%eax
    acde:	74 07                	je     ace7 <func_42+0x1e8f>
    ace0:	b8 01 00 00 00       	mov    $0x1,%eax
    ace5:	eb 05                	jmp    acec <func_42+0x1e94>
    ace7:	b8 00 00 00 00       	mov    $0x0,%eax
    acec:	48 98                	cltq   
    acee:	4c 89 e6             	mov    %r12,%rsi
    acf1:	48 89 c7             	mov    %rax,%rdi
    acf4:	e8 b6 b3 ff ff       	callq  60af <safe_div_func_uint64_t_u_u>
    acf9:	48 89 de             	mov    %rbx,%rsi
    acfc:	48 89 c7             	mov    %rax,%rdi
    acff:	e8 f3 ac ff ff       	callq  59f7 <safe_div_func_int64_t_s_s>
    ad04:	0f b6 c0             	movzbl %al,%eax
    ad07:	be 02 00 00 00       	mov    $0x2,%esi
    ad0c:	89 c7                	mov    %eax,%edi
    ad0e:	e8 f2 ae ff ff       	callq  5c05 <safe_lshift_func_uint8_t_u_s>
    ad13:	48 c7 85 b0 f3 ff ff 	movq   $0x0,-0xc50(%rbp)
    ad1a:	00 00 00 00 
    ad1e:	48 8d 85 08 f0 ff ff 	lea    -0xff8(%rbp),%rax
    ad25:	48 89 85 b8 f3 ff ff 	mov    %rax,-0xc48(%rbp)
    ad2c:	48 8d 85 04 f0 ff ff 	lea    -0xffc(%rbp),%rax
    ad33:	48 89 85 c0 f3 ff ff 	mov    %rax,-0xc40(%rbp)
    ad3a:	48 8d 85 f4 ef ff ff 	lea    -0x100c(%rbp),%rax
    ad41:	48 89 85 c8 f3 ff ff 	mov    %rax,-0xc38(%rbp)
    ad48:	48 8d 85 00 f0 ff ff 	lea    -0x1000(%rbp),%rax
    ad4f:	48 89 85 d0 f3 ff ff 	mov    %rax,-0xc30(%rbp)
    ad56:	48 8d 85 fc ef ff ff 	lea    -0x1004(%rbp),%rax
    ad5d:	48 89 85 d8 f3 ff ff 	mov    %rax,-0xc28(%rbp)
    ad64:	48 8d 85 f0 ef ff ff 	lea    -0x1010(%rbp),%rax
    ad6b:	48 89 85 e0 f3 ff ff 	mov    %rax,-0xc20(%rbp)
    ad72:	48 c7 85 e8 f3 ff ff 	movq   $0x0,-0xc18(%rbp)
    ad79:	00 00 00 00 
    ad7d:	48 8d 85 d0 f5 ff ff 	lea    -0xa30(%rbp),%rax
    ad84:	48 83 c0 18          	add    $0x18,%rax
    ad88:	48 89 85 f0 f3 ff ff 	mov    %rax,-0xc10(%rbp)
    ad8f:	48 c7 85 f8 f3 ff ff 	movq   $0x0,-0xc08(%rbp)
    ad96:	00 00 00 00 
    ad9a:	48 8d 85 f8 ef ff ff 	lea    -0x1008(%rbp),%rax
    ada1:	48 89 85 00 f4 ff ff 	mov    %rax,-0xc00(%rbp)
    ada8:	48 8d 85 00 f0 ff ff 	lea    -0x1000(%rbp),%rax
    adaf:	48 89 85 08 f4 ff ff 	mov    %rax,-0xbf8(%rbp)
    adb6:	48 8d 85 00 f0 ff ff 	lea    -0x1000(%rbp),%rax
    adbd:	48 89 85 10 f4 ff ff 	mov    %rax,-0xbf0(%rbp)
    adc4:	48 c7 85 18 f4 ff ff 	movq   $0x0,-0xbe8(%rbp)
    adcb:	00 00 00 00 
    adcf:	48 8d 85 f4 ef ff ff 	lea    -0x100c(%rbp),%rax
    add6:	48 89 85 20 f4 ff ff 	mov    %rax,-0xbe0(%rbp)
    addd:	48 8d 85 00 f0 ff ff 	lea    -0x1000(%rbp),%rax
    ade4:	48 89 85 28 f4 ff ff 	mov    %rax,-0xbd8(%rbp)
    adeb:	48 8d 85 c6 ef ff ff 	lea    -0x103a(%rbp),%rax
    adf2:	48 89 85 30 f4 ff ff 	mov    %rax,-0xbd0(%rbp)
    adf9:	48 c7 85 38 f4 ff ff 	movq   $0x0,-0xbc8(%rbp)
    ae00:	00 00 00 00 
    ae04:	48 8d 05 95 12 01 00 	lea    0x11295(%rip),%rax        # 1c0a0 <g_991>
    ae0b:	48 89 85 40 f4 ff ff 	mov    %rax,-0xbc0(%rbp)
    ae12:	c7 85 44 f0 ff ff 00 	movl   $0x0,-0xfbc(%rbp)
    ae19:	00 00 00 
    ae1c:	eb 4c                	jmp    ae6a <func_42+0x2012>
    ae1e:	c7 85 48 f0 ff ff 00 	movl   $0x0,-0xfb8(%rbp)
    ae25:	00 00 00 
    ae28:	eb 30                	jmp    ae5a <func_42+0x2002>
    ae2a:	8b 85 48 f0 ff ff    	mov    -0xfb8(%rbp),%eax
    ae30:	48 63 c8             	movslq %eax,%rcx
    ae33:	8b 85 44 f0 ff ff    	mov    -0xfbc(%rbp),%eax
    ae39:	48 63 d0             	movslq %eax,%rdx
    ae3c:	48 89 d0             	mov    %rdx,%rax
    ae3f:	48 01 c0             	add    %rax,%rax
    ae42:	48 01 d0             	add    %rdx,%rax
    ae45:	48 01 c8             	add    %rcx,%rax
    ae48:	c7 84 85 d0 f5 ff ff 	movl   $0x0,-0xa30(%rbp,%rax,4)
    ae4f:	00 00 00 00 
    ae53:	83 85 48 f0 ff ff 01 	addl   $0x1,-0xfb8(%rbp)
    ae5a:	83 bd 48 f0 ff ff 02 	cmpl   $0x2,-0xfb8(%rbp)
    ae61:	7e c7                	jle    ae2a <func_42+0x1fd2>
    ae63:	83 85 44 f0 ff ff 01 	addl   $0x1,-0xfbc(%rbp)
    ae6a:	83 bd 44 f0 ff ff 02 	cmpl   $0x2,-0xfbc(%rbp)
    ae71:	7e ab                	jle    ae1e <func_42+0x1fc6>
    ae73:	c7 85 44 f0 ff ff 00 	movl   $0x0,-0xfbc(%rbp)
    ae7a:	00 00 00 
    ae7d:	eb 1b                	jmp    ae9a <func_42+0x2042>
    ae7f:	8b 85 44 f0 ff ff    	mov    -0xfbc(%rbp),%eax
    ae85:	48 98                	cltq   
    ae87:	48 c7 84 c5 00 f6 ff 	movq   $0x0,-0xa00(%rbp,%rax,8)
    ae8e:	ff 00 00 00 00 
    ae93:	83 85 44 f0 ff ff 01 	addl   $0x1,-0xfbc(%rbp)
    ae9a:	83 bd 44 f0 ff ff 07 	cmpl   $0x7,-0xfbc(%rbp)
    aea1:	7e dc                	jle    ae7f <func_42+0x2027>
    aea3:	48 8b 05 f6 13 01 00 	mov    0x113f6(%rip),%rax        # 1c2a0 <g_2003>
    aeaa:	48 8b 00             	mov    (%rax),%rax
    aead:	48 8d 95 ec ef ff ff 	lea    -0x1014(%rbp),%rdx
    aeb4:	48 89 10             	mov    %rdx,(%rax)
    aeb7:	48 8b 05 e2 13 01 00 	mov    0x113e2(%rip),%rax        # 1c2a0 <g_2003>
    aebe:	48 8b 00             	mov    (%rax),%rax
    aec1:	48 8b 95 48 f3 ff ff 	mov    -0xcb8(%rbp),%rdx
    aec8:	48 89 10             	mov    %rdx,(%rax)
    aecb:	80 bd b6 ef ff ff 00 	cmpb   $0x0,-0x104a(%rbp)
    aed2:	90                   	nop
    aed3:	f3 0f 1e fa          	endbr64 
    aed7:	0f b7 85 c6 ef ff ff 	movzwl -0x103a(%rbp),%eax
    aede:	83 e8 01             	sub    $0x1,%eax
    aee1:	66 89 85 c6 ef ff ff 	mov    %ax,-0x103a(%rbp)
    aee8:	48 8b 05 c1 11 01 00 	mov    0x111c1(%rip),%rax        # 1c0b0 <g_1312>
    aeef:	0f b7 00             	movzwl (%rax),%eax
    aef2:	0f bf d8             	movswl %ax,%ebx
    aef5:	48 8b 05 9c 13 01 00 	mov    0x1139c(%rip),%rax        # 1c298 <g_1909>
    aefc:	48 8b 00             	mov    (%rax),%rax
    aeff:	48 8b 00             	mov    (%rax),%rax
    af02:	0f b7 00             	movzwl (%rax),%eax
    af05:	44 0f b7 e0          	movzwl %ax,%r12d
    af09:	48 8b 85 40 f4 ff ff 	mov    -0xbc0(%rbp),%rax
    af10:	48 8b 95 b0 f2 ff ff 	mov    -0xd50(%rbp),%rdx
    af17:	48 89 10             	mov    %rdx,(%rax)
    af1a:	48 8b 85 40 f4 ff ff 	mov    -0xbc0(%rbp),%rax
    af21:	48 8b 00             	mov    (%rax),%rax
    af24:	48 85 c0             	test   %rax,%rax
    af27:	0f 95 c0             	setne  %al
    af2a:	0f b6 d0             	movzbl %al,%edx
    af2d:	48 83 bd 38 f4 ff ff 	cmpq   $0x0,-0xbc8(%rbp)
    af34:	00 
    af35:	0f 94 c0             	sete   %al
    af38:	0f b6 c0             	movzbl %al,%eax
    af3b:	89 d6                	mov    %edx,%esi
    af3d:	89 c7                	mov    %eax,%edi
    af3f:	e8 16 ac ff ff       	callq  5b5a <safe_add_func_uint8_t_u_u>
    af44:	48 8b 85 38 f3 ff ff 	mov    -0xcc8(%rbp),%rax
    af4b:	48 3b 85 30 f4 ff ff 	cmp    -0xbd0(%rbp),%rax
    af52:	0f 94 c0             	sete   %al
    af55:	0f b6 c0             	movzbl %al,%eax
    af58:	44 89 e6             	mov    %r12d,%esi
    af5b:	89 c7                	mov    %eax,%edi
    af5d:	e8 bd ad ff ff       	callq  5d1f <safe_sub_func_uint16_t_u_u>
    af62:	f7 d0                	not    %eax
    af64:	98                   	cwtl   
    af65:	89 de                	mov    %ebx,%esi
    af67:	89 c7                	mov    %eax,%edi
    af69:	e8 87 a4 ff ff       	callq  53f5 <safe_mul_func_int16_t_s_s>
    af6e:	66 85 c0             	test   %ax,%ax
    af71:	75 10                	jne    af83 <func_42+0x212b>
    af73:	48 8b 05 ce 11 01 00 	mov    0x111ce(%rip),%rax        # 1c148 <g_1372>
    af7a:	48 8b 00             	mov    (%rax),%rax
    af7d:	48 8b 00             	mov    (%rax),%rax
    af80:	48 85 c0             	test   %rax,%rax
    af83:	48 83 bd 40 f3 ff ff 	cmpq   $0x0,-0xcc0(%rbp)
    af8a:	00 
    af8b:	0f 95 c0             	setne  %al
    af8e:	0f b6 d0             	movzbl %al,%edx
    af91:	48 8b 05 50 0e 01 00 	mov    0x10e50(%rip),%rax        # 1bde8 <g_537>
    af98:	0f b6 00             	movzbl (%rax),%eax
    af9b:	0f be c0             	movsbl %al,%eax
    af9e:	21 c2                	and    %eax,%edx
    afa0:	48 8b 85 d0 f3 ff ff 	mov    -0xc30(%rbp),%rax
    afa7:	8b 00                	mov    (%rax),%eax
    afa9:	21 c2                	and    %eax,%edx
    afab:	48 8b 85 d0 f3 ff ff 	mov    -0xc30(%rbp),%rax
    afb2:	89 10                	mov    %edx,(%rax)
    afb4:	c7 85 1c f0 ff ff 00 	movl   $0x0,-0xfe4(%rbp)
    afbb:	00 00 00 
    afbe:	eb 2b                	jmp    afeb <func_42+0x2193>
    afc0:	83 bd 74 f0 ff ff 00 	cmpl   $0x0,-0xf8c(%rbp)
    afc7:	0f 85 ed f8 ff ff    	jne    a8ba <func_42+0x1a62>
    afcd:	8b 85 1c f0 ff ff    	mov    -0xfe4(%rbp),%eax
    afd3:	0f b7 c0             	movzwl %ax,%eax
    afd6:	be 01 00 00 00       	mov    $0x1,%esi
    afdb:	89 c7                	mov    %eax,%edi
    afdd:	e8 3d ad ff ff       	callq  5d1f <safe_sub_func_uint16_t_u_u>
    afe2:	0f b7 c0             	movzwl %ax,%eax
    afe5:	89 85 1c f0 ff ff    	mov    %eax,-0xfe4(%rbp)
    afeb:	83 bd 1c f0 ff ff e8 	cmpl   $0xffffffe8,-0xfe4(%rbp)
    aff2:	75 cc                	jne    afc0 <func_42+0x2168>
    aff4:	66 83 ad ca ef ff ff 	subw   $0x1,-0x1036(%rbp)
    affb:	01 
    affc:	66 c7 05 0f f9 00 00 	movw   $0xffed,0xf90f(%rip)        # 1a914 <g_598>
    b003:	ed ff 
    b005:	eb 6e                	jmp    b075 <func_42+0x221d>
    b007:	c7 85 b0 f1 ff ff 3f 	movl   $0x99902d3f,-0xe50(%rbp)
    b00e:	2d 90 99 
    b011:	8b 85 48 f5 ff ff    	mov    -0xab8(%rbp),%eax
    b017:	0f b6 c0             	movzbl %al,%eax
    b01a:	be 05 00 00 00       	mov    $0x5,%esi
    b01f:	89 c7                	mov    %eax,%edi
    b021:	e8 df ab ff ff       	callq  5c05 <safe_lshift_func_uint8_t_u_s>
    b026:	8b 85 74 f5 ff ff    	mov    -0xa8c(%rbp),%eax
    b02c:	89 c2                	mov    %eax,%edx
    b02e:	48 8b 05 ab 0d 01 00 	mov    0x10dab(%rip),%rax        # 1bde0 <g_529>
    b035:	48 8b 00             	mov    (%rax),%rax
    b038:	31 d0                	xor    %edx,%eax
    b03a:	98                   	cwtl   
    b03b:	89 c6                	mov    %eax,%esi
    b03d:	bf 10 db ff ff       	mov    $0xffffdb10,%edi
    b042:	e8 0e a4 ff ff       	callq  5455 <safe_div_func_int16_t_s_s>
    b047:	0f bf d0             	movswl %ax,%edx
    b04a:	8b 85 0c f0 ff ff    	mov    -0xff4(%rbp),%eax
    b050:	31 d0                	xor    %edx,%eax
    b052:	89 85 0c f0 ff ff    	mov    %eax,-0xff4(%rbp)
    b058:	8b 05 42 f8 00 00    	mov    0xf842(%rip),%eax        # 1a8a0 <g_246>
    b05e:	85 c0                	test   %eax,%eax
    b060:	74 02                	je     b064 <func_42+0x220c>
    b062:	eb 98                	jmp    affc <func_42+0x21a4>
    b064:	0f b7 05 a9 f8 00 00 	movzwl 0xf8a9(%rip),%eax        # 1a914 <g_598>
    b06b:	83 c0 01             	add    $0x1,%eax
    b06e:	66 89 05 9f f8 00 00 	mov    %ax,0xf89f(%rip)        # 1a914 <g_598>
    b075:	0f b7 05 98 f8 00 00 	movzwl 0xf898(%rip),%eax        # 1a914 <g_598>
    b07c:	66 83 f8 f8          	cmp    $0xfff8,%ax
    b080:	7c 85                	jl     b007 <func_42+0x21af>
    b082:	8b 05 a8 ef 00 00    	mov    0xefa8(%rip),%eax        # 1a030 <g_48>
    b088:	85 c0                	test   %eax,%eax
    b08a:	0f 84 a4 03 00 00    	je     b434 <func_42+0x25dc>
    b090:	e9 f6 f7 ff ff       	jmpq   a88b <func_42+0x1a33>
    b095:	c6 85 ba ef ff ff fa 	movb   $0xfa,-0x1046(%rbp)
    b09c:	48 8d 05 bd ef 00 00 	lea    0xefbd(%rip),%rax        # 1a060 <g_137>
    b0a3:	48 89 85 c0 f2 ff ff 	mov    %rax,-0xd40(%rbp)
    b0aa:	48 8d 85 b0 f5 ff ff 	lea    -0xa50(%rbp),%rax
    b0b1:	48 83 c0 10          	add    $0x10,%rax
    b0b5:	48 89 85 c8 f2 ff ff 	mov    %rax,-0xd38(%rbp)
    b0bc:	48 8d 85 10 f0 ff ff 	lea    -0xff0(%rbp),%rax
    b0c3:	48 89 85 d0 f2 ff ff 	mov    %rax,-0xd30(%rbp)
    b0ca:	48 8d 85 10 f0 ff ff 	lea    -0xff0(%rbp),%rax
    b0d1:	48 89 85 d8 f2 ff ff 	mov    %rax,-0xd28(%rbp)
    b0d8:	48 8d 85 04 f0 ff ff 	lea    -0xffc(%rbp),%rax
    b0df:	48 89 85 e0 f2 ff ff 	mov    %rax,-0xd20(%rbp)
    b0e6:	48 8d 85 0c f0 ff ff 	lea    -0xff4(%rbp),%rax
    b0ed:	48 89 85 e8 f2 ff ff 	mov    %rax,-0xd18(%rbp)
    b0f4:	48 c7 85 f0 f2 ff ff 	movq   $0x0,-0xd10(%rbp)
    b0fb:	00 00 00 00 
    b0ff:	48 8d 85 b0 f5 ff ff 	lea    -0xa50(%rbp),%rax
    b106:	48 83 c0 14          	add    $0x14,%rax
    b10a:	48 89 85 f8 f2 ff ff 	mov    %rax,-0xd08(%rbp)
    b111:	48 8d 85 0c f0 ff ff 	lea    -0xff4(%rbp),%rax
    b118:	48 89 85 00 f3 ff ff 	mov    %rax,-0xd00(%rbp)
    b11f:	48 8d 85 a8 f1 ff ff 	lea    -0xe58(%rbp),%rax
    b126:	48 89 85 08 f3 ff ff 	mov    %rax,-0xcf8(%rbp)
    b12d:	48 8d 85 e8 ef ff ff 	lea    -0x1018(%rbp),%rax
    b134:	48 89 85 10 f3 ff ff 	mov    %rax,-0xcf0(%rbp)
    b13b:	48 8d 85 0c f0 ff ff 	lea    -0xff4(%rbp),%rax
    b142:	48 89 85 00 f6 ff ff 	mov    %rax,-0xa00(%rbp)
    b149:	48 8d 85 0c f0 ff ff 	lea    -0xff4(%rbp),%rax
    b150:	48 89 85 08 f6 ff ff 	mov    %rax,-0x9f8(%rbp)
    b157:	48 8d 85 70 f5 ff ff 	lea    -0xa90(%rbp),%rax
    b15e:	48 83 c0 10          	add    $0x10,%rax
    b162:	48 89 85 10 f6 ff ff 	mov    %rax,-0x9f0(%rbp)
    b169:	48 8d 85 0c f0 ff ff 	lea    -0xff4(%rbp),%rax
    b170:	48 89 85 18 f6 ff ff 	mov    %rax,-0x9e8(%rbp)
    b177:	48 8d 85 0c f0 ff ff 	lea    -0xff4(%rbp),%rax
    b17e:	48 89 85 20 f6 ff ff 	mov    %rax,-0x9e0(%rbp)
    b185:	48 8d 85 70 f5 ff ff 	lea    -0xa90(%rbp),%rax
    b18c:	48 83 c0 10          	add    $0x10,%rax
    b190:	48 89 85 28 f6 ff ff 	mov    %rax,-0x9d8(%rbp)
    b197:	66 c7 85 d2 ef ff ff 	movw   $0x59d7,-0x102e(%rbp)
    b19e:	d7 59 
    b1a0:	c7 85 a8 f0 ff ff 64 	movl   $0xcd795364,-0xf58(%rbp)
    b1a7:	53 79 cd 
    b1aa:	48 b8 ba 91 28 00 bb 	movabs $0xa60915bb002891ba,%rax
    b1b1:	15 09 a6 
    b1b4:	48 89 85 18 f3 ff ff 	mov    %rax,-0xce8(%rbp)
    b1bb:	48 c7 05 92 ee 00 00 	movq   $0xfffffffffffffff3,0xee92(%rip)        # 1a058 <g_115>
    b1c2:	f3 ff ff ff 
    b1c6:	e9 4e 02 00 00       	jmpq   b419 <func_42+0x25c1>
    b1cb:	48 8d 05 b6 0f 01 00 	lea    0x10fb6(%rip),%rax        # 1c188 <g_1521>
    b1d2:	48 89 85 20 f3 ff ff 	mov    %rax,-0xce0(%rbp)
    b1d9:	48 8b 85 a0 f1 ff ff 	mov    -0xe60(%rbp),%rax
    b1e0:	48 8b 95 20 f3 ff ff 	mov    -0xce0(%rbp),%rdx
    b1e7:	48 89 10             	mov    %rdx,(%rax)
    b1ea:	48 8b 10             	mov    (%rax),%rdx
    b1ed:	48 8b 05 f4 0f 01 00 	mov    0x10ff4(%rip),%rax        # 1c1e8 <g_1715>
    b1f4:	48 8b 00             	mov    (%rax),%rax
    b1f7:	48 8b 00             	mov    (%rax),%rax
    b1fa:	48 39 c2             	cmp    %rax,%rdx
    b1fd:	0f 85 f0 01 00 00    	jne    b3f3 <func_42+0x259b>
    b203:	c7 85 d0 f5 ff ff fc 	movl   $0xeda4dfc,-0xa30(%rbp)
    b20a:	4d da 0e 
    b20d:	c7 85 d4 f5 ff ff fc 	movl   $0xeda4dfc,-0xa2c(%rbp)
    b214:	4d da 0e 
    b217:	c7 85 d8 f5 ff ff fc 	movl   $0xeda4dfc,-0xa28(%rbp)
    b21e:	4d da 0e 
    b221:	c7 85 dc f5 ff ff fc 	movl   $0xeda4dfc,-0xa24(%rbp)
    b228:	4d da 0e 
    b22b:	c7 85 e0 f5 ff ff fc 	movl   $0xeda4dfc,-0xa20(%rbp)
    b232:	4d da 0e 
    b235:	48 8d 05 74 17 01 00 	lea    0x11774(%rip),%rax        # 1c9b0 <g_2008+0x6f0>
    b23c:	48 89 85 28 f3 ff ff 	mov    %rax,-0xcd8(%rbp)
    b243:	48 8d 85 a0 f1 ff ff 	lea    -0xe60(%rbp),%rax
    b24a:	48 89 85 20 f9 ff ff 	mov    %rax,-0x6e0(%rbp)
    b251:	48 8d 85 a0 f1 ff ff 	lea    -0xe60(%rbp),%rax
    b258:	48 89 85 28 f9 ff ff 	mov    %rax,-0x6d8(%rbp)
    b25f:	48 8d 85 a0 f1 ff ff 	lea    -0xe60(%rbp),%rax
    b266:	48 89 85 30 f9 ff ff 	mov    %rax,-0x6d0(%rbp)
    b26d:	48 8d 85 a0 f1 ff ff 	lea    -0xe60(%rbp),%rax
    b274:	48 89 85 38 f9 ff ff 	mov    %rax,-0x6c8(%rbp)
    b27b:	48 8d 85 a0 f1 ff ff 	lea    -0xe60(%rbp),%rax
    b282:	48 89 85 40 f9 ff ff 	mov    %rax,-0x6c0(%rbp)
    b289:	48 8d 85 a0 f1 ff ff 	lea    -0xe60(%rbp),%rax
    b290:	48 89 85 48 f9 ff ff 	mov    %rax,-0x6b8(%rbp)
    b297:	48 8d 85 a0 f1 ff ff 	lea    -0xe60(%rbp),%rax
    b29e:	48 89 85 50 f9 ff ff 	mov    %rax,-0x6b0(%rbp)
    b2a5:	48 8d 85 a0 f1 ff ff 	lea    -0xe60(%rbp),%rax
    b2ac:	48 89 85 58 f9 ff ff 	mov    %rax,-0x6a8(%rbp)
    b2b3:	48 8d 85 a0 f1 ff ff 	lea    -0xe60(%rbp),%rax
    b2ba:	48 89 85 60 f9 ff ff 	mov    %rax,-0x6a0(%rbp)
    b2c1:	48 8d 85 a0 f1 ff ff 	lea    -0xe60(%rbp),%rax
    b2c8:	48 89 85 68 f9 ff ff 	mov    %rax,-0x698(%rbp)
    b2cf:	48 c7 85 30 f3 ff ff 	movq   $0x0,-0xcd0(%rbp)
    b2d6:	00 00 00 00 
    b2da:	48 8b 85 90 f2 ff ff 	mov    -0xd70(%rbp),%rax
    b2e1:	c7 00 00 00 00 00    	movl   $0x0,(%rax)
    b2e7:	48 8b 05 b2 0d 01 00 	mov    0x10db2(%rip),%rax        # 1c0a0 <g_991>
    b2ee:	48 8b 10             	mov    (%rax),%rdx
    b2f1:	8b 85 10 f0 ff ff    	mov    -0xff0(%rbp),%eax
    b2f7:	48 98                	cltq   
    b2f9:	48 89 d6             	mov    %rdx,%rsi
    b2fc:	48 89 c7             	mov    %rax,%rdi
    b2ff:	e8 a4 a5 ff ff       	callq  58a8 <safe_sub_func_int64_t_s_s>
    b304:	48 3d 7a d1 9a 36    	cmp    $0x369ad17a,%rax
    b30a:	0f 9f c0             	setg   %al
    b30d:	0f b6 d0             	movzbl %al,%edx
    b310:	48 8b 85 90 f2 ff ff 	mov    -0xd70(%rbp),%rax
    b317:	89 10                	mov    %edx,(%rax)
    b319:	0f be 9d ba ef ff ff 	movsbl -0x1046(%rbp),%ebx
    b320:	8b 85 d0 f5 ff ff    	mov    -0xa30(%rbp),%eax
    b326:	41 89 c5             	mov    %eax,%r13d
    b329:	8b 85 94 f0 ff ff    	mov    -0xf6c(%rbp),%eax
    b32f:	4c 63 e0             	movslq %eax,%r12
    b332:	48 8b 85 90 f2 ff ff 	mov    -0xd70(%rbp),%rax
    b339:	c7 00 fd ff 00 00    	movl   $0xfffd,(%rax)
    b33f:	48 8b 05 aa fe 00 00 	mov    0xfeaa(%rip),%rax        # 1b1f0 <g_2169>
    b346:	48 8b 15 ab fe 00 00 	mov    0xfeab(%rip),%rdx        # 1b1f8 <g_2169+0x8>
    b34d:	48 8b 85 28 f3 ff ff 	mov    -0xcd8(%rbp),%rax
    b354:	48 8b 95 b8 f2 ff ff 	mov    -0xd48(%rbp),%rdx
    b35b:	48 89 10             	mov    %rdx,(%rax)
    b35e:	48 8b 85 28 f3 ff ff 	mov    -0xcd8(%rbp),%rax
    b365:	48 8b 00             	mov    (%rax),%rax
    b368:	48 39 85 c0 f2 ff ff 	cmp    %rax,-0xd40(%rbp)
    b36f:	0f 95 c0             	setne  %al
    b372:	0f b6 c0             	movzbl %al,%eax
    b375:	be fd ff 00 00       	mov    $0xfffd,%esi
    b37a:	89 c7                	mov    %eax,%edi
    b37c:	e8 9e a9 ff ff       	callq  5d1f <safe_sub_func_uint16_t_u_u>
    b381:	48 8b 85 30 f3 ff ff 	mov    -0xcd0(%rbp),%rax
    b388:	48 3b 85 b8 f2 ff ff 	cmp    -0xd48(%rbp),%rax
    b38f:	0f b7 85 3e f5 ff ff 	movzwl -0xac2(%rbp),%eax
    b396:	0f bf d0             	movswl %ax,%edx
    b399:	0f be 85 ba ef ff ff 	movsbl -0x1046(%rbp),%eax
    b3a0:	09 d0                	or     %edx,%eax
    b3a2:	3d 90 90 d8 29       	cmp    $0x29d89090,%eax
    b3a7:	0f 95 c0             	setne  %al
    b3aa:	0f b6 c0             	movzbl %al,%eax
    b3ad:	89 c7                	mov    %eax,%edi
    b3af:	e8 f2 aa ff ff       	callq  5ea6 <safe_unary_minus_func_uint32_t_u>
    b3b4:	89 c0                	mov    %eax,%eax
    b3b6:	4c 89 e6             	mov    %r12,%rsi
    b3b9:	48 89 c7             	mov    %rax,%rdi
    b3bc:	e8 e7 a4 ff ff       	callq  58a8 <safe_sub_func_int64_t_s_s>
    b3c1:	44 21 e8             	and    %r13d,%eax
    b3c4:	98                   	cwtl   
    b3c5:	be 0e 00 00 00       	mov    $0xe,%esi
    b3ca:	89 c7                	mov    %eax,%edi
    b3cc:	e8 92 a1 ff ff       	callq  5563 <safe_rshift_func_int16_t_s_u>
    b3d1:	98                   	cwtl   
    b3d2:	89 de                	mov    %ebx,%esi
    b3d4:	89 c7                	mov    %eax,%edi
    b3d6:	e8 3b a0 ff ff       	callq  5416 <safe_mod_func_int16_t_s_s>
    b3db:	66 83 f8 ff          	cmp    $0xffff,%ax
    b3df:	0f 9d c2             	setge  %dl
    b3e2:	48 8b 05 bf 0d 01 00 	mov    0x10dbf(%rip),%rax        # 1c1a8 <g_1718>
    b3e9:	48 8b 00             	mov    (%rax),%rax
    b3ec:	0f b6 d2             	movzbl %dl,%edx
    b3ef:	89 10                	mov    %edx,(%rax)
    b3f1:	eb 14                	jmp    b407 <func_42+0x25af>
    b3f3:	c6 85 bb ef ff ff 00 	movb   $0x0,-0x1045(%rbp)
    b3fa:	48 0f be 85 bb ef ff 	movsbq -0x1045(%rbp),%rax
    b401:	ff 
    b402:	e9 0f 32 00 00       	jmpq   e616 <func_42+0x57be>
    b407:	48 8b 05 4a ec 00 00 	mov    0xec4a(%rip),%rax        # 1a058 <g_115>
    b40e:	48 83 c0 01          	add    $0x1,%rax
    b412:	48 89 05 3f ec 00 00 	mov    %rax,0xec3f(%rip)        # 1a058 <g_115>
    b419:	48 8b 05 38 ec 00 00 	mov    0xec38(%rip),%rax        # 1a058 <g_115>
    b420:	48 83 f8 0a          	cmp    $0xa,%rax
    b424:	0f 87 a1 fd ff ff    	ja     b1cb <func_42+0x2373>
    b42a:	48 83 85 18 f3 ff ff 	addq   $0x1,-0xce8(%rbp)
    b431:	01 
    b432:	eb 01                	jmp    b435 <func_42+0x25dd>
    b434:	90                   	nop
    b435:	8b 85 74 f5 ff ff    	mov    -0xa8c(%rbp),%eax
    b43b:	48 98                	cltq   
    b43d:	e9 d4 31 00 00       	jmpq   e616 <func_42+0x57be>
    b442:	48 8d 85 20 f9 ff ff 	lea    -0x6e0(%rbp),%rax
    b449:	48 8d 15 f0 a1 00 00 	lea    0xa1f0(%rip),%rdx        # 15640 <g_1898+0x5e0>
    b450:	b9 1e 00 00 00       	mov    $0x1e,%ecx
    b455:	48 89 c7             	mov    %rax,%rdi
    b458:	48 89 d6             	mov    %rdx,%rsi
    b45b:	f3 48 a5             	rep movsq %ds:(%rsi),%es:(%rdi)
    b45e:	48 89 f2             	mov    %rsi,%rdx
    b461:	48 89 f8             	mov    %rdi,%rax
    b464:	8b 0a                	mov    (%rdx),%ecx
    b466:	89 08                	mov    %ecx,(%rax)
    b468:	48 8d 40 04          	lea    0x4(%rax),%rax
    b46c:	48 8d 52 04          	lea    0x4(%rdx),%rdx
    b470:	0f b6 0a             	movzbl (%rdx),%ecx
    b473:	88 08                	mov    %cl,(%rax)
    b475:	c7 85 e0 f6 ff ff 17 	movl   $0x2bac4117,-0x920(%rbp)
    b47c:	41 ac 2b 
    b47f:	c7 85 e4 f6 ff ff 17 	movl   $0x2bac4117,-0x91c(%rbp)
    b486:	41 ac 2b 
    b489:	c7 85 e8 f6 ff ff 01 	movl   $0x1,-0x918(%rbp)
    b490:	00 00 00 
    b493:	c7 85 ec f6 ff ff bb 	movl   $0xc62ed5bb,-0x914(%rbp)
    b49a:	d5 2e c6 
    b49d:	c7 85 f0 f6 ff ff ff 	movl   $0xffffffff,-0x910(%rbp)
    b4a4:	ff ff ff 
    b4a7:	c7 85 f4 f6 ff ff f9 	movl   $0xfffffff9,-0x90c(%rbp)
    b4ae:	ff ff ff 
    b4b1:	c7 85 f8 f6 ff ff ff 	movl   $0xffffffff,-0x908(%rbp)
    b4b8:	ff ff ff 
    b4bb:	c7 85 fc f6 ff ff 01 	movl   $0x1,-0x904(%rbp)
    b4c2:	00 00 00 
    b4c5:	c7 85 00 f7 ff ff ff 	movl   $0xffffffff,-0x900(%rbp)
    b4cc:	ff ff ff 
    b4cf:	c7 85 04 f7 ff ff 01 	movl   $0x1,-0x8fc(%rbp)
    b4d6:	00 00 00 
    b4d9:	c7 85 08 f7 ff ff 01 	movl   $0x1,-0x8f8(%rbp)
    b4e0:	00 00 00 
    b4e3:	c7 85 0c f7 ff ff ff 	movl   $0xffffffff,-0x8f4(%rbp)
    b4ea:	ff ff ff 
    b4ed:	c7 85 10 f7 ff ff 17 	movl   $0x2bac4117,-0x8f0(%rbp)
    b4f4:	41 ac 2b 
    b4f7:	c7 85 14 f7 ff ff 01 	movl   $0x1,-0x8ec(%rbp)
    b4fe:	00 00 00 
    b501:	c7 85 18 f7 ff ff bb 	movl   $0xc62ed5bb,-0x8e8(%rbp)
    b508:	d5 2e c6 
    b50b:	c7 85 1c f7 ff ff 01 	movl   $0x1,-0x8e4(%rbp)
    b512:	00 00 00 
    b515:	48 8d 85 e4 ef ff ff 	lea    -0x101c(%rbp),%rax
    b51c:	48 89 85 20 f2 ff ff 	mov    %rax,-0xde0(%rbp)
    b523:	48 8d 05 ca f8 00 00 	lea    0xf8ca(%rip),%rax        # 1adf4 <g_1132>
    b52a:	48 89 85 28 f2 ff ff 	mov    %rax,-0xdd8(%rbp)
    b531:	48 8d 85 e4 ef ff ff 	lea    -0x101c(%rbp),%rax
    b538:	48 89 85 30 f2 ff ff 	mov    %rax,-0xdd0(%rbp)
    b53f:	48 c7 85 38 f2 ff ff 	movq   $0x0,-0xdc8(%rbp)
    b546:	00 00 00 00 
    b54a:	48 8d 85 ec ef ff ff 	lea    -0x1014(%rbp),%rax
    b551:	48 89 85 40 f2 ff ff 	mov    %rax,-0xdc0(%rbp)
    b558:	48 8d 85 e0 ef ff ff 	lea    -0x1020(%rbp),%rax
    b55f:	48 89 85 48 f2 ff ff 	mov    %rax,-0xdb8(%rbp)
    b566:	48 8d 85 e8 ef ff ff 	lea    -0x1018(%rbp),%rax
    b56d:	48 89 85 50 f2 ff ff 	mov    %rax,-0xdb0(%rbp)
    b574:	48 8d 85 e0 ef ff ff 	lea    -0x1020(%rbp),%rax
    b57b:	48 89 85 58 f2 ff ff 	mov    %rax,-0xda8(%rbp)
    b582:	48 8d 85 ec ef ff ff 	lea    -0x1014(%rbp),%rax
    b589:	48 89 85 60 f2 ff ff 	mov    %rax,-0xda0(%rbp)
    b590:	48 8d 85 e0 f6 ff ff 	lea    -0x920(%rbp),%rax
    b597:	48 83 c0 20          	add    $0x20,%rax
    b59b:	48 89 85 68 f2 ff ff 	mov    %rax,-0xd98(%rbp)
    b5a2:	48 c7 85 70 f2 ff ff 	movq   $0xfffffffffffffff9,-0xd90(%rbp)
    b5a9:	f9 ff ff ff 
    b5ad:	66 c7 85 ce ef ff ff 	movw   $0x9,-0x1032(%rbp)
    b5b4:	09 00 
    b5b6:	48 8d 05 8b 0f 01 00 	lea    0x10f8b(%rip),%rax        # 1c548 <g_2008+0x288>
    b5bd:	48 89 85 b0 f1 ff ff 	mov    %rax,-0xe50(%rbp)
    b5c4:	48 8d 85 b0 f1 ff ff 	lea    -0xe50(%rbp),%rax
    b5cb:	48 89 85 b8 f1 ff ff 	mov    %rax,-0xe48(%rbp)
    b5d2:	48 8d 85 b8 f1 ff ff 	lea    -0xe48(%rbp),%rax
    b5d9:	48 89 85 20 fa ff ff 	mov    %rax,-0x5e0(%rbp)
    b5e0:	48 8d 85 b8 f1 ff ff 	lea    -0xe48(%rbp),%rax
    b5e7:	48 89 85 28 fa ff ff 	mov    %rax,-0x5d8(%rbp)
    b5ee:	48 8d 85 b8 f1 ff ff 	lea    -0xe48(%rbp),%rax
    b5f5:	48 89 85 30 fa ff ff 	mov    %rax,-0x5d0(%rbp)
    b5fc:	48 8d 85 b8 f1 ff ff 	lea    -0xe48(%rbp),%rax
    b603:	48 89 85 38 fa ff ff 	mov    %rax,-0x5c8(%rbp)
    b60a:	48 8d 85 b8 f1 ff ff 	lea    -0xe48(%rbp),%rax
    b611:	48 89 85 40 fa ff ff 	mov    %rax,-0x5c0(%rbp)
    b618:	48 8d 85 b8 f1 ff ff 	lea    -0xe48(%rbp),%rax
    b61f:	48 89 85 48 fa ff ff 	mov    %rax,-0x5b8(%rbp)
    b626:	48 8d 85 b8 f1 ff ff 	lea    -0xe48(%rbp),%rax
    b62d:	48 89 85 50 fa ff ff 	mov    %rax,-0x5b0(%rbp)
    b634:	48 8d 85 b8 f1 ff ff 	lea    -0xe48(%rbp),%rax
    b63b:	48 89 85 58 fa ff ff 	mov    %rax,-0x5a8(%rbp)
    b642:	48 8d 85 b8 f1 ff ff 	lea    -0xe48(%rbp),%rax
    b649:	48 89 85 60 fa ff ff 	mov    %rax,-0x5a0(%rbp)
    b650:	48 8d 85 b8 f1 ff ff 	lea    -0xe48(%rbp),%rax
    b657:	48 89 85 68 fa ff ff 	mov    %rax,-0x598(%rbp)
    b65e:	48 8d 85 b8 f1 ff ff 	lea    -0xe48(%rbp),%rax
    b665:	48 89 85 70 fa ff ff 	mov    %rax,-0x590(%rbp)
    b66c:	48 8d 85 b8 f1 ff ff 	lea    -0xe48(%rbp),%rax
    b673:	48 89 85 78 fa ff ff 	mov    %rax,-0x588(%rbp)
    b67a:	48 8d 85 b8 f1 ff ff 	lea    -0xe48(%rbp),%rax
    b681:	48 89 85 80 fa ff ff 	mov    %rax,-0x580(%rbp)
    b688:	48 8d 85 b8 f1 ff ff 	lea    -0xe48(%rbp),%rax
    b68f:	48 89 85 88 fa ff ff 	mov    %rax,-0x578(%rbp)
    b696:	48 8d 85 b8 f1 ff ff 	lea    -0xe48(%rbp),%rax
    b69d:	48 89 85 90 fa ff ff 	mov    %rax,-0x570(%rbp)
    b6a4:	48 8d 85 b8 f1 ff ff 	lea    -0xe48(%rbp),%rax
    b6ab:	48 89 85 98 fa ff ff 	mov    %rax,-0x568(%rbp)
    b6b2:	48 8d 85 b8 f1 ff ff 	lea    -0xe48(%rbp),%rax
    b6b9:	48 89 85 a0 fa ff ff 	mov    %rax,-0x560(%rbp)
    b6c0:	48 8d 85 b8 f1 ff ff 	lea    -0xe48(%rbp),%rax
    b6c7:	48 89 85 a8 fa ff ff 	mov    %rax,-0x558(%rbp)
    b6ce:	48 8d 85 b8 f1 ff ff 	lea    -0xe48(%rbp),%rax
    b6d5:	48 89 85 b0 fa ff ff 	mov    %rax,-0x550(%rbp)
    b6dc:	48 8d 85 b8 f1 ff ff 	lea    -0xe48(%rbp),%rax
    b6e3:	48 89 85 b8 fa ff ff 	mov    %rax,-0x548(%rbp)
    b6ea:	48 8d 85 b8 f1 ff ff 	lea    -0xe48(%rbp),%rax
    b6f1:	48 89 85 c0 fa ff ff 	mov    %rax,-0x540(%rbp)
    b6f8:	48 8d 85 b8 f1 ff ff 	lea    -0xe48(%rbp),%rax
    b6ff:	48 89 85 c8 fa ff ff 	mov    %rax,-0x538(%rbp)
    b706:	48 8d 85 b8 f1 ff ff 	lea    -0xe48(%rbp),%rax
    b70d:	48 89 85 d0 fa ff ff 	mov    %rax,-0x530(%rbp)
    b714:	48 8d 85 b8 f1 ff ff 	lea    -0xe48(%rbp),%rax
    b71b:	48 89 85 d8 fa ff ff 	mov    %rax,-0x528(%rbp)
    b722:	48 8d 85 b8 f1 ff ff 	lea    -0xe48(%rbp),%rax
    b729:	48 89 85 e0 fa ff ff 	mov    %rax,-0x520(%rbp)
    b730:	48 8d 85 b8 f1 ff ff 	lea    -0xe48(%rbp),%rax
    b737:	48 89 85 e8 fa ff ff 	mov    %rax,-0x518(%rbp)
    b73e:	48 8d 85 b8 f1 ff ff 	lea    -0xe48(%rbp),%rax
    b745:	48 89 85 f0 fa ff ff 	mov    %rax,-0x510(%rbp)
    b74c:	48 8d 85 b8 f1 ff ff 	lea    -0xe48(%rbp),%rax
    b753:	48 89 85 f8 fa ff ff 	mov    %rax,-0x508(%rbp)
    b75a:	48 8d 85 b8 f1 ff ff 	lea    -0xe48(%rbp),%rax
    b761:	48 89 85 00 fb ff ff 	mov    %rax,-0x500(%rbp)
    b768:	48 8d 85 b8 f1 ff ff 	lea    -0xe48(%rbp),%rax
    b76f:	48 89 85 08 fb ff ff 	mov    %rax,-0x4f8(%rbp)
    b776:	48 8d 85 b8 f1 ff ff 	lea    -0xe48(%rbp),%rax
    b77d:	48 89 85 10 fb ff ff 	mov    %rax,-0x4f0(%rbp)
    b784:	48 8d 85 b8 f1 ff ff 	lea    -0xe48(%rbp),%rax
    b78b:	48 89 85 18 fb ff ff 	mov    %rax,-0x4e8(%rbp)
    b792:	48 8d 85 b8 f1 ff ff 	lea    -0xe48(%rbp),%rax
    b799:	48 89 85 20 fb ff ff 	mov    %rax,-0x4e0(%rbp)
    b7a0:	48 8d 85 b8 f1 ff ff 	lea    -0xe48(%rbp),%rax
    b7a7:	48 89 85 28 fb ff ff 	mov    %rax,-0x4d8(%rbp)
    b7ae:	48 8d 85 b8 f1 ff ff 	lea    -0xe48(%rbp),%rax
    b7b5:	48 89 85 30 fb ff ff 	mov    %rax,-0x4d0(%rbp)
    b7bc:	48 8d 85 b8 f1 ff ff 	lea    -0xe48(%rbp),%rax
    b7c3:	48 89 85 38 fb ff ff 	mov    %rax,-0x4c8(%rbp)
    b7ca:	48 8d 85 b8 f1 ff ff 	lea    -0xe48(%rbp),%rax
    b7d1:	48 89 85 40 fb ff ff 	mov    %rax,-0x4c0(%rbp)
    b7d8:	48 8d 85 b8 f1 ff ff 	lea    -0xe48(%rbp),%rax
    b7df:	48 89 85 48 fb ff ff 	mov    %rax,-0x4b8(%rbp)
    b7e6:	48 8d 85 b8 f1 ff ff 	lea    -0xe48(%rbp),%rax
    b7ed:	48 89 85 50 fb ff ff 	mov    %rax,-0x4b0(%rbp)
    b7f4:	48 8d 85 b8 f1 ff ff 	lea    -0xe48(%rbp),%rax
    b7fb:	48 89 85 58 fb ff ff 	mov    %rax,-0x4a8(%rbp)
    b802:	48 8d 85 b8 f1 ff ff 	lea    -0xe48(%rbp),%rax
    b809:	48 89 85 60 fb ff ff 	mov    %rax,-0x4a0(%rbp)
    b810:	48 8d 85 b8 f1 ff ff 	lea    -0xe48(%rbp),%rax
    b817:	48 89 85 68 fb ff ff 	mov    %rax,-0x498(%rbp)
    b81e:	48 8d 85 b8 f1 ff ff 	lea    -0xe48(%rbp),%rax
    b825:	48 89 85 70 fb ff ff 	mov    %rax,-0x490(%rbp)
    b82c:	48 8d 85 b8 f1 ff ff 	lea    -0xe48(%rbp),%rax
    b833:	48 89 85 78 fb ff ff 	mov    %rax,-0x488(%rbp)
    b83a:	48 8d 85 b8 f1 ff ff 	lea    -0xe48(%rbp),%rax
    b841:	48 89 85 80 fb ff ff 	mov    %rax,-0x480(%rbp)
    b848:	48 8d 85 b8 f1 ff ff 	lea    -0xe48(%rbp),%rax
    b84f:	48 89 85 88 fb ff ff 	mov    %rax,-0x478(%rbp)
    b856:	48 8d 85 b8 f1 ff ff 	lea    -0xe48(%rbp),%rax
    b85d:	48 89 85 90 fb ff ff 	mov    %rax,-0x470(%rbp)
    b864:	48 8d 85 b8 f1 ff ff 	lea    -0xe48(%rbp),%rax
    b86b:	48 89 85 98 fb ff ff 	mov    %rax,-0x468(%rbp)
    b872:	48 8d 85 b8 f1 ff ff 	lea    -0xe48(%rbp),%rax
    b879:	48 89 85 a0 fb ff ff 	mov    %rax,-0x460(%rbp)
    b880:	48 8d 85 b8 f1 ff ff 	lea    -0xe48(%rbp),%rax
    b887:	48 89 85 a8 fb ff ff 	mov    %rax,-0x458(%rbp)
    b88e:	48 8d 85 b8 f1 ff ff 	lea    -0xe48(%rbp),%rax
    b895:	48 89 85 b0 fb ff ff 	mov    %rax,-0x450(%rbp)
    b89c:	48 8d 85 b8 f1 ff ff 	lea    -0xe48(%rbp),%rax
    b8a3:	48 89 85 b8 fb ff ff 	mov    %rax,-0x448(%rbp)
    b8aa:	48 8d 85 b8 f1 ff ff 	lea    -0xe48(%rbp),%rax
    b8b1:	48 89 85 c0 fb ff ff 	mov    %rax,-0x440(%rbp)
    b8b8:	48 8d 85 b8 f1 ff ff 	lea    -0xe48(%rbp),%rax
    b8bf:	48 89 85 c8 fb ff ff 	mov    %rax,-0x438(%rbp)
    b8c6:	48 8d 85 b8 f1 ff ff 	lea    -0xe48(%rbp),%rax
    b8cd:	48 89 85 d0 fb ff ff 	mov    %rax,-0x430(%rbp)
    b8d4:	48 8d 85 b8 f1 ff ff 	lea    -0xe48(%rbp),%rax
    b8db:	48 89 85 d8 fb ff ff 	mov    %rax,-0x428(%rbp)
    b8e2:	48 8d 85 b8 f1 ff ff 	lea    -0xe48(%rbp),%rax
    b8e9:	48 89 85 e0 fb ff ff 	mov    %rax,-0x420(%rbp)
    b8f0:	48 8d 85 b8 f1 ff ff 	lea    -0xe48(%rbp),%rax
    b8f7:	48 89 85 e8 fb ff ff 	mov    %rax,-0x418(%rbp)
    b8fe:	48 8d 85 b8 f1 ff ff 	lea    -0xe48(%rbp),%rax
    b905:	48 89 85 f0 fb ff ff 	mov    %rax,-0x410(%rbp)
    b90c:	48 8d 85 b8 f1 ff ff 	lea    -0xe48(%rbp),%rax
    b913:	48 89 85 f8 fb ff ff 	mov    %rax,-0x408(%rbp)
    b91a:	48 8d 85 b8 f1 ff ff 	lea    -0xe48(%rbp),%rax
    b921:	48 89 85 00 fc ff ff 	mov    %rax,-0x400(%rbp)
    b928:	48 8d 85 b8 f1 ff ff 	lea    -0xe48(%rbp),%rax
    b92f:	48 89 85 08 fc ff ff 	mov    %rax,-0x3f8(%rbp)
    b936:	48 8d 85 b8 f1 ff ff 	lea    -0xe48(%rbp),%rax
    b93d:	48 89 85 10 fc ff ff 	mov    %rax,-0x3f0(%rbp)
    b944:	48 8d 85 b8 f1 ff ff 	lea    -0xe48(%rbp),%rax
    b94b:	48 89 85 18 fc ff ff 	mov    %rax,-0x3e8(%rbp)
    b952:	48 8d 85 b8 f1 ff ff 	lea    -0xe48(%rbp),%rax
    b959:	48 89 85 20 fc ff ff 	mov    %rax,-0x3e0(%rbp)
    b960:	48 8d 85 b8 f1 ff ff 	lea    -0xe48(%rbp),%rax
    b967:	48 89 85 28 fc ff ff 	mov    %rax,-0x3d8(%rbp)
    b96e:	48 8d 85 b8 f1 ff ff 	lea    -0xe48(%rbp),%rax
    b975:	48 89 85 30 fc ff ff 	mov    %rax,-0x3d0(%rbp)
    b97c:	48 8d 85 b8 f1 ff ff 	lea    -0xe48(%rbp),%rax
    b983:	48 89 85 38 fc ff ff 	mov    %rax,-0x3c8(%rbp)
    b98a:	48 8d 85 b8 f1 ff ff 	lea    -0xe48(%rbp),%rax
    b991:	48 89 85 40 fc ff ff 	mov    %rax,-0x3c0(%rbp)
    b998:	48 8d 85 b8 f1 ff ff 	lea    -0xe48(%rbp),%rax
    b99f:	48 89 85 48 fc ff ff 	mov    %rax,-0x3b8(%rbp)
    b9a6:	48 8d 85 b8 f1 ff ff 	lea    -0xe48(%rbp),%rax
    b9ad:	48 89 85 50 fc ff ff 	mov    %rax,-0x3b0(%rbp)
    b9b4:	48 8d 85 b8 f1 ff ff 	lea    -0xe48(%rbp),%rax
    b9bb:	48 89 85 58 fc ff ff 	mov    %rax,-0x3a8(%rbp)
    b9c2:	48 8d 85 b8 f1 ff ff 	lea    -0xe48(%rbp),%rax
    b9c9:	48 89 85 60 fc ff ff 	mov    %rax,-0x3a0(%rbp)
    b9d0:	48 8d 85 b8 f1 ff ff 	lea    -0xe48(%rbp),%rax
    b9d7:	48 89 85 68 fc ff ff 	mov    %rax,-0x398(%rbp)
    b9de:	48 8d 85 b8 f1 ff ff 	lea    -0xe48(%rbp),%rax
    b9e5:	48 89 85 70 fc ff ff 	mov    %rax,-0x390(%rbp)
    b9ec:	48 8d 85 b8 f1 ff ff 	lea    -0xe48(%rbp),%rax
    b9f3:	48 89 85 78 fc ff ff 	mov    %rax,-0x388(%rbp)
    b9fa:	48 8d 85 b8 f1 ff ff 	lea    -0xe48(%rbp),%rax
    ba01:	48 89 85 80 fc ff ff 	mov    %rax,-0x380(%rbp)
    ba08:	48 8d 85 b8 f1 ff ff 	lea    -0xe48(%rbp),%rax
    ba0f:	48 89 85 88 fc ff ff 	mov    %rax,-0x378(%rbp)
    ba16:	48 8d 85 b8 f1 ff ff 	lea    -0xe48(%rbp),%rax
    ba1d:	48 89 85 90 fc ff ff 	mov    %rax,-0x370(%rbp)
    ba24:	48 8d 85 b8 f1 ff ff 	lea    -0xe48(%rbp),%rax
    ba2b:	48 89 85 98 fc ff ff 	mov    %rax,-0x368(%rbp)
    ba32:	48 8d 85 3c f5 ff ff 	lea    -0xac4(%rbp),%rax
    ba39:	48 89 85 78 f2 ff ff 	mov    %rax,-0xd88(%rbp)
    ba40:	c6 85 b9 ef ff ff 88 	movb   $0x88,-0x1047(%rbp)
    ba47:	c7 85 4c f0 ff ff 00 	movl   $0x0,-0xfb4(%rbp)
    ba4e:	00 00 00 
    ba51:	eb 1e                	jmp    ba71 <func_42+0x2c19>
    ba53:	8b 85 4c f0 ff ff    	mov    -0xfb4(%rbp),%eax
    ba59:	48 98                	cltq   
    ba5b:	48 8d 15 ce e5 00 00 	lea    0xe5ce(%rip),%rdx        # 1a030 <g_48>
    ba62:	48 89 94 c5 20 f8 ff 	mov    %rdx,-0x7e0(%rbp,%rax,8)
    ba69:	ff 
    ba6a:	83 85 4c f0 ff ff 01 	addl   $0x1,-0xfb4(%rbp)
    ba71:	83 bd 4c f0 ff ff 07 	cmpl   $0x7,-0xfb4(%rbp)
    ba78:	7e d9                	jle    ba53 <func_42+0x2bfb>
    ba7a:	83 85 78 f0 ff ff 01 	addl   $0x1,-0xf88(%rbp)
    ba81:	8b 05 81 f7 00 00    	mov    0xf781(%rip),%eax        # 1b208 <g_2212>
    ba87:	0f be c0             	movsbl %al,%eax
    ba8a:	89 c7                	mov    %eax,%edi
    ba8c:	e8 2e 97 ff ff       	callq  51bf <safe_unary_minus_func_int8_t_s>
    ba91:	48 8b 85 58 f2 ff ff 	mov    -0xda8(%rbp),%rax
    ba98:	8b 00                	mov    (%rax),%eax
    ba9a:	0f b6 d8             	movzbl %al,%ebx
    ba9d:	48 8b 85 60 f7 ff ff 	mov    -0x8a0(%rbp),%rax
    baa4:	41 89 c4             	mov    %eax,%r12d
    baa7:	8b 85 ec ef ff ff    	mov    -0x1014(%rbp),%eax
    baad:	0f b6 d0             	movzbl %al,%edx
    bab0:	48 8b 05 31 03 01 00 	mov    0x10331(%rip),%rax        # 1bde8 <g_537>
    bab7:	c6 00 6a             	movb   $0x6a,(%rax)
    baba:	48 8b 85 78 f2 ff ff 	mov    -0xd88(%rbp),%rax
    bac1:	66 c7 00 01 00       	movw   $0x1,(%rax)
    bac6:	48 8b 85 20 f2 ff ff 	mov    -0xde0(%rbp),%rax
    bacd:	8b 00                	mov    (%rax),%eax
    bacf:	83 f8 6b             	cmp    $0x6b,%eax
    bad2:	0f 94 c0             	sete   %al
    bad5:	89 c1                	mov    %eax,%ecx
    bad7:	8b 85 ec ef ff ff    	mov    -0x1014(%rbp),%eax
    badd:	31 c8                	xor    %ecx,%eax
    badf:	0f b6 c0             	movzbl %al,%eax
    bae2:	89 d6                	mov    %edx,%esi
    bae4:	89 c7                	mov    %eax,%edi
    bae6:	e8 8d a0 ff ff       	callq  5b78 <safe_sub_func_uint8_t_u_u>
    baeb:	89 c2                	mov    %eax,%edx
    baed:	48 8b 05 bc 05 01 00 	mov    0x105bc(%rip),%rax        # 1c0b0 <g_1312>
    baf4:	0f b6 d2             	movzbl %dl,%edx
    baf7:	66 89 10             	mov    %dx,(%rax)
    bafa:	0f b7 00             	movzwl (%rax),%eax
    bafd:	0f b7 c0             	movzwl %ax,%eax
    bb00:	44 89 e6             	mov    %r12d,%esi
    bb03:	89 c7                	mov    %eax,%edi
    bb05:	e8 70 a3 ff ff       	callq  5e7a <safe_rshift_func_uint16_t_u_u>
    bb0a:	48 8b 95 70 f7 ff ff 	mov    -0x890(%rbp),%rdx
    bb11:	8b 85 e4 ef ff ff    	mov    -0x101c(%rbp),%eax
    bb17:	48 98                	cltq   
    bb19:	48 39 c2             	cmp    %rax,%rdx
    bb1c:	89 de                	mov    %ebx,%esi
    bb1e:	bf e4 00 00 00       	mov    $0xe4,%edi
    bb23:	e8 86 a0 ff ff       	callq  5bae <safe_mod_func_uint8_t_u_u>
    bb28:	30 85 b9 ef ff ff    	xor    %al,-0x1047(%rbp)
    bb2e:	0f b6 85 b9 ef ff ff 	movzbl -0x1047(%rbp),%eax
    bb35:	0f be d8             	movsbl %al,%ebx
    bb38:	8b 95 78 f5 ff ff    	mov    -0xa88(%rbp),%edx
    bb3e:	48 8b 85 30 f2 ff ff 	mov    -0xdd0(%rbp),%rax
    bb45:	8b 00                	mov    (%rax),%eax
    bb47:	09 d0                	or     %edx,%eax
    bb49:	89 85 78 f5 ff ff    	mov    %eax,-0xa88(%rbp)
    bb4f:	8b 85 78 f5 ff ff    	mov    -0xa88(%rbp),%eax
    bb55:	0f be c0             	movsbl %al,%eax
    bb58:	be 03 00 00 00       	mov    $0x3,%esi
    bb5d:	89 c7                	mov    %eax,%edi
    bb5f:	e8 08 98 ff ff       	callq  536c <safe_rshift_func_int8_t_s_u>
    bb64:	0f be d0             	movsbl %al,%edx
    bb67:	48 8b 85 b8 f1 ff ff 	mov    -0xe48(%rbp),%rax
    bb6e:	48 89 05 53 14 01 00 	mov    %rax,0x11453(%rip)        # 1cfc8 <g_2220>
    bb75:	48 8b 05 4c 14 01 00 	mov    0x1144c(%rip),%rax        # 1cfc8 <g_2220>
    bb7c:	48 8d 0d 0d 0f 01 00 	lea    0x10f0d(%rip),%rcx        # 1ca90 <g_2007>
    bb83:	48 39 c8             	cmp    %rcx,%rax
    bb86:	0f 94 c0             	sete   %al
    bb89:	0f b6 c0             	movzbl %al,%eax
    bb8c:	39 c2                	cmp    %eax,%edx
    bb8e:	0f 9e c0             	setle  %al
    bb91:	0f b6 c0             	movzbl %al,%eax
    bb94:	89 85 d8 f8 ff ff    	mov    %eax,-0x728(%rbp)
    bb9a:	8b 85 d8 f8 ff ff    	mov    -0x728(%rbp),%eax
    bba0:	0f be c0             	movsbl %al,%eax
    bba3:	89 de                	mov    %ebx,%esi
    bba5:	89 c7                	mov    %eax,%edi
    bba7:	e8 28 96 ff ff       	callq  51d4 <safe_add_func_int8_t_s_s>
    bbac:	48 8b 85 70 f7 ff ff 	mov    -0x890(%rbp),%rax
    bbb3:	89 c2                	mov    %eax,%edx
    bbb5:	48 8b 85 68 f2 ff ff 	mov    -0xd98(%rbp),%rax
    bbbc:	89 10                	mov    %edx,(%rax)
    bbbe:	48 8b 85 68 f2 ff ff 	mov    -0xd98(%rbp),%rax
    bbc5:	8b 10                	mov    (%rax),%edx
    bbc7:	8b 85 e8 ef ff ff    	mov    -0x1018(%rbp),%eax
    bbcd:	31 d0                	xor    %edx,%eax
    bbcf:	89 85 e8 ef ff ff    	mov    %eax,-0x1018(%rbp)
    bbd5:	c7 05 51 e4 00 00 00 	movl   $0x0,0xe451(%rip)        # 1a030 <g_48>
    bbdc:	00 00 00 
    bbdf:	eb 31                	jmp    bc12 <func_42+0x2dba>
    bbe1:	8b 05 49 e4 00 00    	mov    0xe449(%rip),%eax        # 1a030 <g_48>
    bbe7:	48 98                	cltq   
    bbe9:	48 8d 14 c5 00 00 00 	lea    0x0(,%rax,8),%rdx
    bbf0:	00 
    bbf1:	48 8d 05 88 01 01 00 	lea    0x10188(%rip),%rax        # 1bd80 <g_151>
    bbf8:	48 8d 0d 69 e4 00 00 	lea    0xe469(%rip),%rcx        # 1a068 <g_154+0x5>
    bbff:	48 89 0c 02          	mov    %rcx,(%rdx,%rax,1)
    bc03:	8b 05 27 e4 00 00    	mov    0xe427(%rip),%eax        # 1a030 <g_48>
    bc09:	83 c0 01             	add    $0x1,%eax
    bc0c:	89 05 1e e4 00 00    	mov    %eax,0xe41e(%rip)        # 1a030 <g_48>
    bc12:	8b 05 18 e4 00 00    	mov    0xe418(%rip),%eax        # 1a030 <g_48>
    bc18:	83 f8 09             	cmp    $0x9,%eax
    bc1b:	7e c4                	jle    bbe1 <func_42+0x2d89>
    bc1d:	eb 01                	jmp    bc20 <func_42+0x2dc8>
    bc1f:	90                   	nop
    bc20:	48 8b 05 79 0e 01 00 	mov    0x10e79(%rip),%rax        # 1caa0 <g_2230>
    bc27:	48 8d 15 c2 05 01 00 	lea    0x105c2(%rip),%rdx        # 1c1f0 <g_1897>
    bc2e:	48 89 10             	mov    %rdx,(%rax)
    bc31:	0f b7 85 3e f5 ff ff 	movzwl -0xac2(%rbp),%eax
    bc38:	88 85 b5 ef ff ff    	mov    %al,-0x104b(%rbp)
    bc3e:	48 8b 05 6b 04 01 00 	mov    0x1046b(%rip),%rax        # 1c0b0 <g_1312>
    bc45:	0f b7 10             	movzwl (%rax),%edx
    bc48:	83 ea 01             	sub    $0x1,%edx
    bc4b:	66 89 10             	mov    %dx,(%rax)
    bc4e:	8b 15 bc ec 00 00    	mov    0xecbc(%rip),%edx        # 1a910 <g_578>
    bc54:	48 8b 85 e0 f1 ff ff 	mov    -0xe20(%rbp),%rax
    bc5b:	89 10                	mov    %edx,(%rax)
    bc5d:	48 8b 85 e0 f1 ff ff 	mov    -0xe20(%rbp),%rax
    bc64:	8b 00                	mov    (%rax),%eax
    bc66:	89 c2                	mov    %eax,%edx
    bc68:	48 8b 05 31 05 01 00 	mov    0x10531(%rip),%rax        # 1c1a0 <g_1719>
    bc6f:	8b 00                	mov    (%rax),%eax
    bc71:	89 d6                	mov    %edx,%esi
    bc73:	89 c7                	mov    %eax,%edi
    bc75:	e8 3c 99 ff ff       	callq  55b6 <safe_add_func_int32_t_s_s>
    bc7a:	0f b7 85 c8 ef ff ff 	movzwl -0x1038(%rbp),%eax
    bc81:	0f bf d8             	movswl %ax,%ebx
    bc84:	48 8b 85 f0 f1 ff ff 	mov    -0xe10(%rbp),%rax
    bc8b:	48 8d 95 58 f1 ff ff 	lea    -0xea8(%rbp),%rdx
    bc92:	48 89 10             	mov    %rdx,(%rax)
    bc95:	48 8b 85 f0 f1 ff ff 	mov    -0xe10(%rbp),%rax
    bc9c:	48 8b 00             	mov    (%rax),%rax
    bc9f:	48 39 85 e8 f1 ff ff 	cmp    %rax,-0xe18(%rbp)
    bca6:	0f 94 c0             	sete   %al
    bca9:	0f b6 d0             	movzbl %al,%edx
    bcac:	48 8b 05 dd 05 01 00 	mov    0x105dd(%rip),%rax        # 1c290 <g_1910>
    bcb3:	48 8b 00             	mov    (%rax),%rax
    bcb6:	0f b7 00             	movzwl (%rax),%eax
    bcb9:	98                   	cwtl   
    bcba:	31 c2                	xor    %eax,%edx
    bcbc:	48 8b 05 dd 03 01 00 	mov    0x103dd(%rip),%rax        # 1c0a0 <g_991>
    bcc3:	48 63 d2             	movslq %edx,%rdx
    bcc6:	48 89 10             	mov    %rdx,(%rax)
    bcc9:	48 8b 00             	mov    (%rax),%rax
    bccc:	48 be ff c0 3b 19 7d 	movabs $0x171a507d193bc0ff,%rsi
    bcd3:	50 1a 17 
    bcd6:	48 89 c7             	mov    %rax,%rdi
    bcd9:	e8 63 9b ff ff       	callq  5841 <safe_add_func_int64_t_s_s>
    bcde:	48 8b 95 c0 f6 ff ff 	mov    -0x940(%rbp),%rdx
    bce5:	48 8b 85 80 f1 ff ff 	mov    -0xe80(%rbp),%rax
    bcec:	48 39 c2             	cmp    %rax,%rdx
    bcef:	0f 95 c0             	setne  %al
    bcf2:	0f b6 c0             	movzbl %al,%eax
    bcf5:	89 c6                	mov    %eax,%esi
    bcf7:	bf 1c 31 00 00       	mov    $0x311c,%edi
    bcfc:	e8 1e a0 ff ff       	callq  5d1f <safe_sub_func_uint16_t_u_u>
    bd01:	0f b7 c0             	movzwl %ax,%eax
    bd04:	39 85 7c f0 ff ff    	cmp    %eax,-0xf84(%rbp)
    bd0a:	0f 95 c0             	setne  %al
    bd0d:	0f b6 c0             	movzbl %al,%eax
    bd10:	89 de                	mov    %ebx,%esi
    bd12:	89 c7                	mov    %eax,%edi
    bd14:	e8 dc 96 ff ff       	callq  53f5 <safe_mul_func_int16_t_s_s>
    bd19:	98                   	cwtl   
    bd1a:	0b 85 2c f0 ff ff    	or     -0xfd4(%rbp),%eax
    bd20:	83 f8 ff             	cmp    $0xffffffff,%eax
    bd23:	48 83 bd f8 f1 ff ff 	cmpq   $0x0,-0xe08(%rbp)
    bd2a:	00 
    bd2b:	0f 9f c0             	setg   %al
    bd2e:	0f b6 c0             	movzbl %al,%eax
    bd31:	89 c2                	mov    %eax,%edx
    bd33:	8b 05 d3 f4 00 00    	mov    0xf4d3(%rip),%eax        # 1b20c <g_2258>
    bd39:	21 d0                	and    %edx,%eax
    bd3b:	89 05 cb f4 00 00    	mov    %eax,0xf4cb(%rip)        # 1b20c <g_2258>
    bd41:	8b 05 c5 f4 00 00    	mov    0xf4c5(%rip),%eax        # 1b20c <g_2258>
    bd47:	85 c0                	test   %eax,%eax
    bd49:	0f 84 27 15 00 00    	je     d276 <func_42+0x441e>
    bd4f:	66 c7 85 10 f0 ff ff 	movw   $0xfd7c,-0xff0(%rbp)
    bd56:	7c fd 
    bd58:	c7 85 98 f1 ff ff fd 	movl   $0xfffffffd,-0xe68(%rbp)
    bd5f:	ff ff ff 
    bd62:	c7 85 e4 f0 ff ff ff 	movl   $0xffffffff,-0xf1c(%rbp)
    bd69:	ff ff ff 
    bd6c:	c7 85 e8 f0 ff ff 08 	movl   $0x8,-0xf18(%rbp)
    bd73:	00 00 00 
    bd76:	c7 85 50 f0 ff ff 74 	movl   $0xd037ef74,-0xfb0(%rbp)
    bd7d:	ef 37 d0 
    bd80:	c7 85 ec f0 ff ff 29 	movl   $0xc714d629,-0xf14(%rbp)
    bd87:	d6 14 c7 
    bd8a:	c7 85 e0 f6 ff ff 27 	movl   $0x675f0527,-0x920(%rbp)
    bd91:	05 5f 67 
    bd94:	c7 85 e4 f6 ff ff 27 	movl   $0x675f0527,-0x91c(%rbp)
    bd9b:	05 5f 67 
    bd9e:	c7 85 e8 f6 ff ff 27 	movl   $0x675f0527,-0x918(%rbp)
    bda5:	05 5f 67 
    bda8:	c7 85 ec f6 ff ff 27 	movl   $0x675f0527,-0x914(%rbp)
    bdaf:	05 5f 67 
    bdb2:	c7 85 f0 f6 ff ff 27 	movl   $0x675f0527,-0x910(%rbp)
    bdb9:	05 5f 67 
    bdbc:	c7 85 f4 f6 ff ff 27 	movl   $0x675f0527,-0x90c(%rbp)
    bdc3:	05 5f 67 
    bdc6:	c7 85 f8 f6 ff ff 27 	movl   $0x675f0527,-0x908(%rbp)
    bdcd:	05 5f 67 
    bdd0:	c7 85 fc f6 ff ff 27 	movl   $0x675f0527,-0x904(%rbp)
    bdd7:	05 5f 67 
    bdda:	c7 85 00 f7 ff ff 27 	movl   $0x675f0527,-0x900(%rbp)
    bde1:	05 5f 67 
    bde4:	c7 85 04 f7 ff ff 27 	movl   $0x675f0527,-0x8fc(%rbp)
    bdeb:	05 5f 67 
    bdee:	48 8d 05 bb 02 01 00 	lea    0x102bb(%rip),%rax        # 1c0b0 <g_1312>
    bdf5:	48 89 85 a8 f1 ff ff 	mov    %rax,-0xe58(%rbp)
    bdfc:	48 8d 85 a8 f1 ff ff 	lea    -0xe58(%rbp),%rax
    be03:	48 89 85 b0 f4 ff ff 	mov    %rax,-0xb50(%rbp)
    be0a:	48 c7 85 c0 f1 ff ff 	movq   $0x1,-0xe40(%rbp)
    be11:	01 00 00 00 
    be15:	48 8d 05 cc ff 00 00 	lea    0xffcc(%rip),%rax        # 1bde8 <g_537>
    be1c:	48 89 85 c8 f1 ff ff 	mov    %rax,-0xe38(%rbp)
    be23:	48 8d 05 96 f0 00 00 	lea    0xf096(%rip),%rax        # 1aec0 <g_1554>
    be2a:	48 89 85 20 f8 ff ff 	mov    %rax,-0x7e0(%rbp)
    be31:	48 8d 05 88 f0 00 00 	lea    0xf088(%rip),%rax        # 1aec0 <g_1554>
    be38:	48 89 85 28 f8 ff ff 	mov    %rax,-0x7d8(%rbp)
    be3f:	48 8d 05 8a f4 00 00 	lea    0xf48a(%rip),%rax        # 1b2d0 <g_2414>
    be46:	48 89 85 30 f8 ff ff 	mov    %rax,-0x7d0(%rbp)
    be4d:	48 8d 05 6c f0 00 00 	lea    0xf06c(%rip),%rax        # 1aec0 <g_1554>
    be54:	48 89 85 38 f8 ff ff 	mov    %rax,-0x7c8(%rbp)
    be5b:	48 8d 05 5e f0 00 00 	lea    0xf05e(%rip),%rax        # 1aec0 <g_1554>
    be62:	48 89 85 40 f8 ff ff 	mov    %rax,-0x7c0(%rbp)
    be69:	48 8d 05 60 f4 00 00 	lea    0xf460(%rip),%rax        # 1b2d0 <g_2414>
    be70:	48 89 85 48 f8 ff ff 	mov    %rax,-0x7b8(%rbp)
    be77:	48 c7 85 50 f8 ff ff 	movq   $0x0,-0x7b0(%rbp)
    be7e:	00 00 00 00 
    be82:	48 c7 85 58 f8 ff ff 	movq   $0x0,-0x7a8(%rbp)
    be89:	00 00 00 00 
    be8d:	48 8d 05 2c f0 00 00 	lea    0xf02c(%rip),%rax        # 1aec0 <g_1554>
    be94:	48 89 85 60 f8 ff ff 	mov    %rax,-0x7a0(%rbp)
    be9b:	48 8d 05 ae e1 00 00 	lea    0xe1ae(%rip),%rax        # 1a050 <g_100>
    bea2:	48 89 85 b8 f4 ff ff 	mov    %rax,-0xb48(%rbp)
    bea9:	48 8d 85 90 f1 ff ff 	lea    -0xe70(%rbp),%rax
    beb0:	48 89 85 c0 f4 ff ff 	mov    %rax,-0xb40(%rbp)
    beb7:	48 8d 05 12 11 01 00 	lea    0x11112(%rip),%rax        # 1cfd0 <g_2467>
    bebe:	48 89 85 20 fa ff ff 	mov    %rax,-0x5e0(%rbp)
    bec5:	48 8d 05 04 11 01 00 	lea    0x11104(%rip),%rax        # 1cfd0 <g_2467>
    becc:	48 89 85 28 fa ff ff 	mov    %rax,-0x5d8(%rbp)
    bed3:	48 8d 05 f6 10 01 00 	lea    0x110f6(%rip),%rax        # 1cfd0 <g_2467>
    beda:	48 89 85 30 fa ff ff 	mov    %rax,-0x5d0(%rbp)
    bee1:	48 8d 05 e8 10 01 00 	lea    0x110e8(%rip),%rax        # 1cfd0 <g_2467>
    bee8:	48 89 85 38 fa ff ff 	mov    %rax,-0x5c8(%rbp)
    beef:	48 8d 05 da 10 01 00 	lea    0x110da(%rip),%rax        # 1cfd0 <g_2467>
    bef6:	48 89 85 40 fa ff ff 	mov    %rax,-0x5c0(%rbp)
    befd:	48 8d 05 cc 10 01 00 	lea    0x110cc(%rip),%rax        # 1cfd0 <g_2467>
    bf04:	48 89 85 48 fa ff ff 	mov    %rax,-0x5b8(%rbp)
    bf0b:	48 8d 05 be 10 01 00 	lea    0x110be(%rip),%rax        # 1cfd0 <g_2467>
    bf12:	48 89 85 50 fa ff ff 	mov    %rax,-0x5b0(%rbp)
    bf19:	48 8d 05 b0 10 01 00 	lea    0x110b0(%rip),%rax        # 1cfd0 <g_2467>
    bf20:	48 89 85 58 fa ff ff 	mov    %rax,-0x5a8(%rbp)
    bf27:	48 8d 05 a2 10 01 00 	lea    0x110a2(%rip),%rax        # 1cfd0 <g_2467>
    bf2e:	48 89 85 60 fa ff ff 	mov    %rax,-0x5a0(%rbp)
    bf35:	48 8d 05 94 10 01 00 	lea    0x11094(%rip),%rax        # 1cfd0 <g_2467>
    bf3c:	48 89 85 68 fa ff ff 	mov    %rax,-0x598(%rbp)
    bf43:	48 8d 05 86 10 01 00 	lea    0x11086(%rip),%rax        # 1cfd0 <g_2467>
    bf4a:	48 89 85 70 fa ff ff 	mov    %rax,-0x590(%rbp)
    bf51:	48 8d 05 78 10 01 00 	lea    0x11078(%rip),%rax        # 1cfd0 <g_2467>
    bf58:	48 89 85 78 fa ff ff 	mov    %rax,-0x588(%rbp)
    bf5f:	48 8d 05 6a 10 01 00 	lea    0x1106a(%rip),%rax        # 1cfd0 <g_2467>
    bf66:	48 89 85 80 fa ff ff 	mov    %rax,-0x580(%rbp)
    bf6d:	48 8d 05 5c 10 01 00 	lea    0x1105c(%rip),%rax        # 1cfd0 <g_2467>
    bf74:	48 89 85 88 fa ff ff 	mov    %rax,-0x578(%rbp)
    bf7b:	48 8d 05 4e 10 01 00 	lea    0x1104e(%rip),%rax        # 1cfd0 <g_2467>
    bf82:	48 89 85 90 fa ff ff 	mov    %rax,-0x570(%rbp)
    bf89:	48 8d 05 40 10 01 00 	lea    0x11040(%rip),%rax        # 1cfd0 <g_2467>
    bf90:	48 89 85 98 fa ff ff 	mov    %rax,-0x568(%rbp)
    bf97:	48 8d 05 32 10 01 00 	lea    0x11032(%rip),%rax        # 1cfd0 <g_2467>
    bf9e:	48 89 85 a0 fa ff ff 	mov    %rax,-0x560(%rbp)
    bfa5:	48 8d 05 24 10 01 00 	lea    0x11024(%rip),%rax        # 1cfd0 <g_2467>
    bfac:	48 89 85 a8 fa ff ff 	mov    %rax,-0x558(%rbp)
    bfb3:	48 8d 05 16 10 01 00 	lea    0x11016(%rip),%rax        # 1cfd0 <g_2467>
    bfba:	48 89 85 b0 fa ff ff 	mov    %rax,-0x550(%rbp)
    bfc1:	48 8d 05 08 10 01 00 	lea    0x11008(%rip),%rax        # 1cfd0 <g_2467>
    bfc8:	48 89 85 b8 fa ff ff 	mov    %rax,-0x548(%rbp)
    bfcf:	48 8d 05 fa 0f 01 00 	lea    0x10ffa(%rip),%rax        # 1cfd0 <g_2467>
    bfd6:	48 89 85 c0 fa ff ff 	mov    %rax,-0x540(%rbp)
    bfdd:	48 8d 05 ec 0f 01 00 	lea    0x10fec(%rip),%rax        # 1cfd0 <g_2467>
    bfe4:	48 89 85 c8 fa ff ff 	mov    %rax,-0x538(%rbp)
    bfeb:	48 8d 05 de 0f 01 00 	lea    0x10fde(%rip),%rax        # 1cfd0 <g_2467>
    bff2:	48 89 85 d0 fa ff ff 	mov    %rax,-0x530(%rbp)
    bff9:	48 8d 05 d0 0f 01 00 	lea    0x10fd0(%rip),%rax        # 1cfd0 <g_2467>
    c000:	48 89 85 d8 fa ff ff 	mov    %rax,-0x528(%rbp)
    c007:	48 8d 05 c2 0f 01 00 	lea    0x10fc2(%rip),%rax        # 1cfd0 <g_2467>
    c00e:	48 89 85 e0 fa ff ff 	mov    %rax,-0x520(%rbp)
    c015:	48 8d 05 b4 0f 01 00 	lea    0x10fb4(%rip),%rax        # 1cfd0 <g_2467>
    c01c:	48 89 85 e8 fa ff ff 	mov    %rax,-0x518(%rbp)
    c023:	48 8d 05 a6 0f 01 00 	lea    0x10fa6(%rip),%rax        # 1cfd0 <g_2467>
    c02a:	48 89 85 f0 fa ff ff 	mov    %rax,-0x510(%rbp)
    c031:	c6 85 c2 ef ff ff d5 	movb   $0xd5,-0x103e(%rbp)
    c038:	c7 85 f0 f0 ff ff ff 	movl   $0xffffffff,-0xf10(%rbp)
    c03f:	ff ff ff 
    c042:	c7 85 54 f0 ff ff 00 	movl   $0x0,-0xfac(%rbp)
    c049:	00 00 00 
    c04c:	eb 1b                	jmp    c069 <func_42+0x3211>
    c04e:	8b 85 54 f0 ff ff    	mov    -0xfac(%rbp),%eax
    c054:	48 98                	cltq   
    c056:	48 c7 84 c5 b0 f5 ff 	movq   $0x0,-0xa50(%rbp,%rax,8)
    c05d:	ff 00 00 00 00 
    c062:	83 85 54 f0 ff ff 01 	addl   $0x1,-0xfac(%rbp)
    c069:	83 bd 54 f0 ff ff 01 	cmpl   $0x1,-0xfac(%rbp)
    c070:	7e dc                	jle    c04e <func_42+0x31f6>
    c072:	c6 05 e7 df 00 00 00 	movb   $0x0,0xdfe7(%rip)        # 1a060 <g_137>
    c079:	90                   	nop
    c07a:	0f b6 05 df df 00 00 	movzbl 0xdfdf(%rip),%eax        # 1a060 <g_137>
    c081:	3c 03                	cmp    $0x3,%al
    c083:	0f 87 af 08 00 00    	ja     c938 <func_42+0x3ae0>
    c089:	66 c7 85 da ef ff ff 	movw   $0xffff,-0x1026(%rbp)
    c090:	ff ff 
    c092:	c6 85 b7 ef ff ff 87 	movb   $0x87,-0x1049(%rbp)
    c099:	c7 85 18 f1 ff ff ff 	movl   $0xffffffff,-0xee8(%rbp)
    c0a0:	ff ff ff 
    c0a3:	48 b8 56 03 29 fc 6c 	movabs $0x70f6266cfc290356,%rax
    c0aa:	26 f6 70 
    c0ad:	48 89 85 f0 f4 ff ff 	mov    %rax,-0xb10(%rbp)
    c0b4:	48 b8 66 0f 6f e9 3f 	movabs $0x732dc73fe96f0f66,%rax
    c0bb:	c7 2d 73 
    c0be:	48 89 85 f8 f4 ff ff 	mov    %rax,-0xb08(%rbp)
    c0c5:	c7 85 58 f0 ff ff 00 	movl   $0x0,-0xfa8(%rbp)
    c0cc:	00 00 00 
    c0cf:	eb 14                	jmp    c0e5 <func_42+0x328d>
    c0d1:	8b 85 58 f0 ff ff    	mov    -0xfa8(%rbp),%eax
    c0d7:	48 98                	cltq   
    c0d9:	c6 44 05 c6 ff       	movb   $0xff,-0x3a(%rbp,%rax,1)
    c0de:	83 85 58 f0 ff ff 01 	addl   $0x1,-0xfa8(%rbp)
    c0e5:	83 bd 58 f0 ff ff 01 	cmpl   $0x1,-0xfa8(%rbp)
    c0ec:	7e e3                	jle    c0d1 <func_42+0x3279>
    c0ee:	c7 85 58 f0 ff ff 00 	movl   $0x0,-0xfa8(%rbp)
    c0f5:	00 00 00 
    c0f8:	eb 1a                	jmp    c114 <func_42+0x32bc>
    c0fa:	8b 85 58 f0 ff ff    	mov    -0xfa8(%rbp),%eax
    c100:	48 98                	cltq   
    c102:	c7 84 85 20 f9 ff ff 	movl   $0x4829052e,-0x6e0(%rbp,%rax,4)
    c109:	2e 05 29 48 
    c10d:	83 85 58 f0 ff ff 01 	addl   $0x1,-0xfa8(%rbp)
    c114:	83 bd 58 f0 ff ff 02 	cmpl   $0x2,-0xfa8(%rbp)
    c11b:	7e dd                	jle    c0fa <func_42+0x32a2>
    c11d:	c7 05 e5 f0 00 00 00 	movl   $0x0,0xf0e5(%rip)        # 1b20c <g_2258>
    c124:	00 00 00 
    c127:	e9 f0 07 00 00       	jmpq   c91c <func_42+0x3ac4>
    c12c:	48 8d 05 35 01 01 00 	lea    0x10135(%rip),%rax        # 1c268 <g_1911+0x68>
    c133:	48 89 85 00 f5 ff ff 	mov    %rax,-0xb00(%rbp)
    c13a:	48 8d 05 c7 07 01 00 	lea    0x107c7(%rip),%rax        # 1c908 <g_2008+0x648>
    c141:	48 89 85 b0 f1 ff ff 	mov    %rax,-0xe50(%rbp)
    c148:	48 8d 85 b0 f1 ff ff 	lea    -0xe50(%rbp),%rax
    c14f:	48 89 85 08 f5 ff ff 	mov    %rax,-0xaf8(%rbp)
    c156:	48 8d 85 58 f1 ff ff 	lea    -0xea8(%rbp),%rax
    c15d:	48 89 85 10 f5 ff ff 	mov    %rax,-0xaf0(%rbp)
    c164:	48 c7 85 b8 f1 ff ff 	movq   $0x0,-0xe48(%rbp)
    c16b:	00 00 00 00 
    c16f:	48 8d 85 b8 f1 ff ff 	lea    -0xe48(%rbp),%rax
    c176:	48 89 85 18 f5 ff ff 	mov    %rax,-0xae8(%rbp)
    c17d:	c7 85 5c f0 ff ff 94 	movl   $0x18718794,-0xfa4(%rbp)
    c184:	87 71 18 
    c187:	c7 85 60 f0 ff ff 00 	movl   $0x0,-0xfa0(%rbp)
    c18e:	00 00 00 
    c191:	eb 1a                	jmp    c1ad <func_42+0x3355>
    c193:	8b 85 60 f0 ff ff    	mov    -0xfa0(%rbp),%eax
    c199:	48 98                	cltq   
    c19b:	c7 84 85 00 f6 ff ff 	movl   $0x1,-0xa00(%rbp,%rax,4)
    c1a2:	01 00 00 00 
    c1a6:	83 85 60 f0 ff ff 01 	addl   $0x1,-0xfa0(%rbp)
    c1ad:	83 bd 60 f0 ff ff 00 	cmpl   $0x0,-0xfa0(%rbp)
    c1b4:	7e dd                	jle    c193 <func_42+0x333b>
    c1b6:	48 8b 05 eb ff 00 00 	mov    0xffeb(%rip),%rax        # 1c1a8 <g_1718>
    c1bd:	48 8b 00             	mov    (%rax),%rax
    c1c0:	8b 08                	mov    (%rax),%ecx
    c1c2:	0f b6 15 97 de 00 00 	movzbl 0xde97(%rip),%edx        # 1a060 <g_137>
    c1c9:	0f b6 d2             	movzbl %dl,%edx
    c1cc:	48 63 d2             	movslq %edx,%rdx
    c1cf:	48 8d 35 52 de 00 00 	lea    0xde52(%rip),%rsi        # 1a028 <g_46>
    c1d6:	0f b6 14 32          	movzbl (%rdx,%rsi,1),%edx
    c1da:	0f be d2             	movsbl %dl,%edx
    c1dd:	09 ca                	or     %ecx,%edx
    c1df:	89 10                	mov    %edx,(%rax)
    c1e1:	c7 85 74 f0 ff ff fe 	movl   $0xfffffffe,-0xf8c(%rbp)
    c1e8:	ff ff ff 
    c1eb:	83 bd 74 f0 ff ff e4 	cmpl   $0xffffffe4,-0xf8c(%rbp)
    c1f2:	7d 16                	jge    c20a <func_42+0x33b2>
    c1f4:	66 c7 85 de ef ff ff 	movw   $0x0,-0x1022(%rbp)
    c1fb:	00 00 
    c1fd:	48 0f bf 85 de ef ff 	movswq -0x1022(%rbp),%rax
    c204:	ff 
    c205:	e9 0c 24 00 00       	jmpq   e616 <func_42+0x57be>
    c20a:	48 83 bd 00 f5 ff ff 	cmpq   $0x0,-0xb00(%rbp)
    c211:	00 
    c212:	0f 94 c0             	sete   %al
    c215:	0f b6 c0             	movzbl %al,%eax
    c218:	66 89 85 10 f0 ff ff 	mov    %ax,-0xff0(%rbp)
    c21f:	0f b7 95 10 f0 ff ff 	movzwl -0xff0(%rbp),%edx
    c226:	48 8b 05 7b ff 00 00 	mov    0xff7b(%rip),%rax        # 1c1a8 <g_1718>
    c22d:	48 8b 00             	mov    (%rax),%rax
    c230:	8b 08                	mov    (%rax),%ecx
    c232:	0f bf d2             	movswl %dx,%edx
    c235:	31 ca                	xor    %ecx,%edx
    c237:	89 10                	mov    %edx,(%rax)
    c239:	66 c7 05 2c de 00 00 	movw   $0x0,0xde2c(%rip)        # 1a06e <g_171>
    c240:	00 00 
    c242:	e9 af 06 00 00       	jmpq   c8f6 <func_42+0x3a9e>
    c247:	66 c7 85 dc ef ff ff 	movw   $0xb650,-0x1024(%rbp)
    c24e:	50 b6 
    c250:	c7 85 1c f1 ff ff 01 	movl   $0x1,-0xee4(%rbp)
    c257:	00 00 00 
    c25a:	c7 85 20 f1 ff ff 01 	movl   $0x1,-0xee0(%rbp)
    c261:	00 00 00 
    c264:	c7 85 24 f1 ff ff 01 	movl   $0x1,-0xedc(%rbp)
    c26b:	00 00 00 
    c26e:	c7 85 28 f1 ff ff 4c 	movl   $0xb847954c,-0xed8(%rbp)
    c275:	95 47 b8 
    c278:	c7 85 a0 f1 ff ff 01 	movl   $0x1,-0xe60(%rbp)
    c27f:	00 00 00 
    c282:	48 b8 f0 74 5e b8 b5 	movabs $0xbb3ba1b5b85e74f0,%rax
    c289:	a1 3b bb 
    c28c:	48 89 85 20 f5 ff ff 	mov    %rax,-0xae0(%rbp)
    c293:	0f b6 45 c7          	movzbl -0x39(%rbp),%eax
    c297:	83 e8 01             	sub    $0x1,%eax
    c29a:	88 45 c7             	mov    %al,-0x39(%rbp)
    c29d:	80 85 b7 ef ff ff 01 	addb   $0x1,-0x1049(%rbp)
    c2a4:	0f b7 85 dc ef ff ff 	movzwl -0x1024(%rbp),%eax
    c2ab:	0f b7 d8             	movzwl %ax,%ebx
    c2ae:	48 8b 05 5b ef 00 00 	mov    0xef5b(%rip),%rax        # 1b210 <g_2288>
    c2b5:	48 8b 15 5c ef 00 00 	mov    0xef5c(%rip),%rdx        # 1b218 <g_2288+0x8>
    c2bc:	0f b7 85 10 f0 ff ff 	movzwl -0xff0(%rbp),%eax
    c2c3:	0f bf d0             	movswl %ax,%edx
    c2c6:	0f b6 45 c6          	movzbl -0x3a(%rbp),%eax
    c2ca:	0f b6 c0             	movzbl %al,%eax
    c2cd:	89 d6                	mov    %edx,%esi
    c2cf:	89 c7                	mov    %eax,%edi
    c2d1:	e8 2f 93 ff ff       	callq  5605 <safe_sub_func_int32_t_s_s>
    c2d6:	39 85 1c f1 ff ff    	cmp    %eax,-0xee4(%rbp)
    c2dc:	0f 9f c0             	setg   %al
    c2df:	44 0f b6 e0          	movzbl %al,%r12d
    c2e3:	48 8b 05 b6 fd 00 00 	mov    0xfdb6(%rip),%rax        # 1c0a0 <g_991>
    c2ea:	48 8b 00             	mov    (%rax),%rax
    c2ed:	41 89 c5             	mov    %eax,%r13d
    c2f0:	48 8b 05 99 ff 00 00 	mov    0xff99(%rip),%rax        # 1c290 <g_1910>
    c2f7:	48 8b 00             	mov    (%rax),%rax
    c2fa:	0f b7 00             	movzwl (%rax),%eax
    c2fd:	98                   	cwtl   
    c2fe:	89 c6                	mov    %eax,%esi
    c300:	bf 03 75 00 00       	mov    $0x7503,%edi
    c305:	e8 a9 90 ff ff       	callq  53b3 <safe_add_func_int16_t_s_s>
    c30a:	44 31 e8             	xor    %r13d,%eax
    c30d:	f7 d0                	not    %eax
    c30f:	0f be c0             	movsbl %al,%eax
    c312:	be 03 00 00 00       	mov    $0x3,%esi
    c317:	89 c7                	mov    %eax,%edi
    c319:	e8 17 90 ff ff       	callq  5335 <safe_rshift_func_int8_t_s_s>
    c31e:	0f be c0             	movsbl %al,%eax
    c321:	44 89 e6             	mov    %r12d,%esi
    c324:	89 c7                	mov    %eax,%edi
    c326:	e8 da 92 ff ff       	callq  5605 <safe_sub_func_int32_t_s_s>
    c32b:	48 8b 85 78 f1 ff ff 	mov    -0xe88(%rbp),%rax
    c332:	48 8b 00             	mov    (%rax),%rax
    c335:	48 8b 00             	mov    (%rax),%rax
    c338:	c6 00 01             	movb   $0x1,(%rax)
    c33b:	48 8b 05 66 07 01 00 	mov    0x10766(%rip),%rax        # 1caa8 <g_2285>
    c342:	48 89 05 5f 07 01 00 	mov    %rax,0x1075f(%rip)        # 1caa8 <g_2285>
    c349:	48 8b 0d 58 07 01 00 	mov    0x10758(%rip),%rcx        # 1caa8 <g_2285>
    c350:	48 8b 85 f0 f1 ff ff 	mov    -0xe10(%rbp),%rax
    c357:	48 8b 95 10 f5 ff ff 	mov    -0xaf0(%rbp),%rdx
    c35e:	48 89 10             	mov    %rdx,(%rax)
    c361:	48 8b 85 f0 f1 ff ff 	mov    -0xe10(%rbp),%rax
    c368:	48 8b 00             	mov    (%rax),%rax
    c36b:	48 39 c1             	cmp    %rax,%rcx
    c36e:	0f 95 c0             	setne  %al
    c371:	0f b6 c0             	movzbl %al,%eax
    c374:	be 01 00 00 00       	mov    $0x1,%esi
    c379:	48 89 c7             	mov    %rax,%rdi
    c37c:	e8 76 96 ff ff       	callq  59f7 <safe_div_func_int64_t_s_s>
    c381:	48 8b 95 e0 f1 ff ff 	mov    -0xe20(%rbp),%rdx
    c388:	8b 12                	mov    (%rdx),%edx
    c38a:	31 d0                	xor    %edx,%eax
    c38c:	89 c2                	mov    %eax,%edx
    c38e:	48 8b 85 e0 f1 ff ff 	mov    -0xe20(%rbp),%rax
    c395:	89 10                	mov    %edx,(%rax)
    c397:	be 01 00 00 00       	mov    $0x1,%esi
    c39c:	bf 01 00 00 00       	mov    $0x1,%edi
    c3a1:	e8 8f 8f ff ff       	callq  5335 <safe_rshift_func_int8_t_s_s>
    c3a6:	89 de                	mov    %ebx,%esi
    c3a8:	bf 01 00 00 00       	mov    $0x1,%edi
    c3ad:	e8 4d 99 ff ff       	callq  5cff <safe_add_func_uint16_t_u_u>
    c3b2:	0f b7 c0             	movzwl %ax,%eax
    c3b5:	89 85 00 f6 ff ff    	mov    %eax,-0xa00(%rbp)
    c3bb:	8b 85 00 f6 ff ff    	mov    -0xa00(%rbp),%eax
    c3c1:	85 c0                	test   %eax,%eax
    c3c3:	0f 84 6a 01 00 00    	je     c533 <func_42+0x36db>
    c3c9:	48 8d 85 b5 ef ff ff 	lea    -0x104b(%rbp),%rax
    c3d0:	48 89 85 28 f5 ff ff 	mov    %rax,-0xad8(%rbp)
    c3d7:	c7 85 30 f1 ff ff 00 	movl   $0x0,-0xed0(%rbp)
    c3de:	00 00 00 
    c3e1:	0f b7 85 10 f0 ff ff 	movzwl -0xff0(%rbp),%eax
    c3e8:	66 85 c0             	test   %ax,%ax
    c3eb:	0f 85 18 05 00 00    	jne    c909 <func_42+0x3ab1>
    c3f1:	0f b6 05 68 dc 00 00 	movzbl 0xdc68(%rip),%eax        # 1a060 <g_137>
    c3f8:	0f b6 c0             	movzbl %al,%eax
    c3fb:	48 98                	cltq   
    c3fd:	48 8d 15 24 dc 00 00 	lea    0xdc24(%rip),%rdx        # 1a028 <g_46>
    c404:	0f b6 04 10          	movzbl (%rax,%rdx,1),%eax
    c408:	66 98                	cbtw   
    c40a:	0f b7 d0             	movzwl %ax,%edx
    c40d:	48 8b 0d 0c ee 00 00 	mov    0xee0c(%rip),%rcx        # 1b220 <g_2313>
    c414:	48 8b 1d 0d ee 00 00 	mov    0xee0d(%rip),%rbx        # 1b228 <g_2313+0x8>
    c41b:	48 83 bd 00 f2 ff ff 	cmpq   $0x0,-0xe00(%rbp)
    c422:	00 
    c423:	0f 95 c0             	setne  %al
    c426:	0f b6 c8             	movzbl %al,%ecx
    c429:	48 8b 85 e0 f1 ff ff 	mov    -0xe20(%rbp),%rax
    c430:	89 08                	mov    %ecx,(%rax)
    c432:	66 81 bd dc ef ff ff 	cmpw   $0x5c37,-0x1024(%rbp)
    c439:	37 5c 
    c43b:	8b 85 98 f1 ff ff    	mov    -0xe68(%rbp),%eax
    c441:	f7 d0                	not    %eax
    c443:	c1 e8 1f             	shr    $0x1f,%eax
    c446:	0f b6 c0             	movzbl %al,%eax
    c449:	89 d6                	mov    %edx,%esi
    c44b:	89 c7                	mov    %eax,%edi
    c44d:	e8 3c 99 ff ff       	callq  5d8e <safe_div_func_uint16_t_u_u>
    c452:	0f b6 95 b7 ef ff ff 	movzbl -0x1049(%rbp),%edx
    c459:	66 39 d0             	cmp    %dx,%ax
    c45c:	0f 96 c0             	setbe  %al
    c45f:	0f b6 d0             	movzbl %al,%edx
    c462:	0f b6 05 f7 db 00 00 	movzbl 0xdbf7(%rip),%eax        # 1a060 <g_137>
    c469:	0f b6 c0             	movzbl %al,%eax
    c46c:	48 98                	cltq   
    c46e:	48 8d 0d b3 db 00 00 	lea    0xdbb3(%rip),%rcx        # 1a028 <g_46>
    c475:	0f b6 04 08          	movzbl (%rax,%rcx,1),%eax
    c479:	0f be c0             	movsbl %al,%eax
    c47c:	39 c2                	cmp    %eax,%edx
    c47e:	0f 9c c0             	setl   %al
    c481:	0f b6 d8             	movzbl %al,%ebx
    c484:	8b 85 00 f6 ff ff    	mov    -0xa00(%rbp),%eax
    c48a:	89 c2                	mov    %eax,%edx
    c48c:	66 83 bd da ef ff ff 	cmpw   $0x0,-0x1026(%rbp)
    c493:	00 
    c494:	0f 95 c0             	setne  %al
    c497:	31 d0                	xor    %edx,%eax
    c499:	0f be c0             	movsbl %al,%eax
    c49c:	be 03 00 00 00       	mov    $0x3,%esi
    c4a1:	89 c7                	mov    %eax,%edi
    c4a3:	e8 f9 8d ff ff       	callq  52a1 <safe_lshift_func_int8_t_s_s>
    c4a8:	0f be c0             	movsbl %al,%eax
    c4ab:	89 de                	mov    %ebx,%esi
    c4ad:	89 c7                	mov    %eax,%edi
    c4af:	e8 04 9a ff ff       	callq  5eb8 <safe_add_func_uint32_t_u_u>
    c4b4:	8b 95 98 f1 ff ff    	mov    -0xe68(%rbp),%edx
    c4ba:	39 d0                	cmp    %edx,%eax
    c4bc:	0f b6 05 9d db 00 00 	movzbl 0xdb9d(%rip),%eax        # 1a060 <g_137>
    c4c3:	0f b6 c0             	movzbl %al,%eax
    c4c6:	48 98                	cltq   
    c4c8:	48 8d 15 59 db 00 00 	lea    0xdb59(%rip),%rdx        # 1a028 <g_46>
    c4cf:	48 01 c2             	add    %rax,%rdx
    c4d2:	48 8b 85 80 f1 ff ff 	mov    -0xe80(%rbp),%rax
    c4d9:	48 8b 00             	mov    (%rax),%rax
    c4dc:	48 8b 00             	mov    (%rax),%rax
    c4df:	48 8b 00             	mov    (%rax),%rax
    c4e2:	48 39 c2             	cmp    %rax,%rdx
    c4e5:	48 8b 85 28 f5 ff ff 	mov    -0xad8(%rbp),%rax
    c4ec:	0f b6 00             	movzbl (%rax),%eax
    c4ef:	8d 50 01             	lea    0x1(%rax),%edx
    c4f2:	48 8b 85 28 f5 ff ff 	mov    -0xad8(%rbp),%rax
    c4f9:	88 10                	mov    %dl,(%rax)
    c4fb:	48 8b 85 28 f5 ff ff 	mov    -0xad8(%rbp),%rax
    c502:	0f b6 00             	movzbl (%rax),%eax
    c505:	3c 86                	cmp    $0x86,%al
    c507:	0f 97 c2             	seta   %dl
    c50a:	48 8b 05 8f fb 00 00 	mov    0xfb8f(%rip),%rax        # 1c0a0 <g_991>
    c511:	0f b6 d2             	movzbl %dl,%edx
    c514:	48 89 10             	mov    %rdx,(%rax)
    c517:	48 8b 10             	mov    (%rax),%rdx
    c51a:	8b 85 30 f1 ff ff    	mov    -0xed0(%rbp),%eax
    c520:	48 98                	cltq   
    c522:	48 39 c2             	cmp    %rax,%rdx
    c525:	0f 9e c0             	setle  %al
    c528:	0f b6 c0             	movzbl %al,%eax
    c52b:	09 85 5c f0 ff ff    	or     %eax,-0xfa4(%rbp)
    c531:	eb 18                	jmp    c54b <func_42+0x36f3>
    c533:	c6 85 c5 ef ff ff 01 	movb   $0x1,-0x103b(%rbp)
    c53a:	c7 85 2c f1 ff ff f6 	movl   $0xfffffff6,-0xed4(%rbp)
    c541:	ff ff ff 
    c544:	83 ad 28 f0 ff ff 01 	subl   $0x1,-0xfd8(%rbp)
    c54b:	0f b6 05 0e db 00 00 	movzbl 0xdb0e(%rip),%eax        # 1a060 <g_137>
    c552:	0f b6 c0             	movzbl %al,%eax
    c555:	48 98                	cltq   
    c557:	48 8d 15 ca da 00 00 	lea    0xdaca(%rip),%rdx        # 1a028 <g_46>
    c55e:	0f b6 04 10          	movzbl (%rax,%rdx,1),%eax
    c562:	84 c0                	test   %al,%al
    c564:	0f 84 02 02 00 00    	je     c76c <func_42+0x3914>
    c56a:	c7 85 38 f1 ff ff 23 	movl   $0x6eae9b23,-0xec8(%rbp)
    c571:	9b ae 6e 
    c574:	48 8d 85 b5 ef ff ff 	lea    -0x104b(%rbp),%rax
    c57b:	48 89 85 30 f5 ff ff 	mov    %rax,-0xad0(%rbp)
    c582:	c7 85 3c f1 ff ff ff 	movl   $0xffffffff,-0xec4(%rbp)
    c589:	ff ff ff 
    c58c:	48 8b 05 fd fc 00 00 	mov    0xfcfd(%rip),%rax        # 1c290 <g_1910>
    c593:	48 8b 00             	mov    (%rax),%rax
    c596:	0f b7 00             	movzwl (%rax),%eax
    c599:	0f b7 d8             	movzwl %ax,%ebx
    c59c:	83 bd 38 f1 ff ff 00 	cmpl   $0x0,-0xec8(%rbp)
    c5a3:	75 0a                	jne    c5af <func_42+0x3757>
    c5a5:	48 83 bd f0 f4 ff ff 	cmpq   $0x0,-0xb10(%rbp)
    c5ac:	00 
    c5ad:	74 07                	je     c5b6 <func_42+0x375e>
    c5af:	b8 01 00 00 00       	mov    $0x1,%eax
    c5b4:	eb 05                	jmp    c5bb <func_42+0x3763>
    c5b6:	b8 00 00 00 00       	mov    $0x0,%eax
    c5bb:	89 c2                	mov    %eax,%edx
    c5bd:	48 8b 85 30 f5 ff ff 	mov    -0xad0(%rbp),%rax
    c5c4:	88 10                	mov    %dl,(%rax)
    c5c6:	44 0f b6 a5 b7 ef ff 	movzbl -0x1049(%rbp),%r12d
    c5cd:	ff 
    c5ce:	48 8b 85 30 f5 ff ff 	mov    -0xad0(%rbp),%rax
    c5d5:	0f b6 00             	movzbl (%rax),%eax
    c5d8:	8d 48 ff             	lea    -0x1(%rax),%ecx
    c5db:	48 8b 95 30 f5 ff ff 	mov    -0xad0(%rbp),%rdx
    c5e2:	88 0a                	mov    %cl,(%rdx)
    c5e4:	0f b6 d0             	movzbl %al,%edx
    c5e7:	8b 85 00 f6 ff ff    	mov    -0xa00(%rbp),%eax
    c5ed:	0f b6 c0             	movzbl %al,%eax
    c5f0:	89 d6                	mov    %edx,%esi
    c5f2:	89 c7                	mov    %eax,%edi
    c5f4:	e8 53 96 ff ff       	callq  5c4c <safe_lshift_func_uint8_t_u_u>
    c5f9:	44 0f b6 f0          	movzbl %al,%r14d
    c5fd:	48 8b 05 fc f7 00 00 	mov    0xf7fc(%rip),%rax        # 1be00 <g_599>
    c604:	48 8b 00             	mov    (%rax),%rax
    c607:	48 85 c0             	test   %rax,%rax
    c60a:	0f 95 c0             	setne  %al
    c60d:	44 0f b6 f8          	movzbl %al,%r15d
    c611:	8b 85 1c f1 ff ff    	mov    -0xee4(%rbp),%eax
    c617:	44 0f b6 e8          	movzbl %al,%r13d
    c61b:	48 8b 05 8e fa 00 00 	mov    0xfa8e(%rip),%rax        # 1c0b0 <g_1312>
    c622:	66 c7 00 05 00       	movw   $0x5,(%rax)
    c627:	be 65 96 44 07       	mov    $0x7449665,%esi
    c62c:	bf 01 00 00 00       	mov    $0x1,%edi
    c631:	e8 82 98 ff ff       	callq  5eb8 <safe_add_func_uint32_t_u_u>
    c636:	0f b6 c0             	movzbl %al,%eax
    c639:	44 89 ee             	mov    %r13d,%esi
    c63c:	89 c7                	mov    %eax,%edi
    c63e:	e8 50 95 ff ff       	callq  5b93 <safe_mul_func_uint8_t_u_u>
    c643:	0f b6 c0             	movzbl %al,%eax
    c646:	be f4 03 00 00       	mov    $0x3f4,%esi
    c64b:	89 c7                	mov    %eax,%edi
    c64d:	e8 ad 96 ff ff       	callq  5cff <safe_add_func_uint16_t_u_u>
    c652:	0f b7 c0             	movzwl %ax,%eax
    c655:	48 0b 85 f0 f4 ff ff 	or     -0xb10(%rbp),%rax
    c65c:	49 39 c7             	cmp    %rax,%r15
    c65f:	0f 96 c0             	setbe  %al
    c662:	0f b6 c0             	movzbl %al,%eax
    c665:	44 21 f0             	and    %r14d,%eax
    c668:	48 98                	cltq   
    c66a:	4c 89 e6             	mov    %r12,%rsi
    c66d:	48 89 c7             	mov    %rax,%rdi
    c670:	e8 0b 9a ff ff       	callq  6080 <safe_mod_func_uint64_t_u_u>
    c675:	48 ba ff da eb 1e 5c 	movabs $0x8b262b5c1eebdaff,%rdx
    c67c:	2b 26 8b 
    c67f:	48 39 d0             	cmp    %rdx,%rax
    c682:	0f 96 c0             	setbe  %al
    c685:	0f b6 d0             	movzbl %al,%edx
    c688:	0f b6 45 c7          	movzbl -0x39(%rbp),%eax
    c68c:	0f b6 c0             	movzbl %al,%eax
    c68f:	39 c2                	cmp    %eax,%edx
    c691:	0f 9e c0             	setle  %al
    c694:	0f b6 c0             	movzbl %al,%eax
    c697:	f7 d0                	not    %eax
    c699:	be 9e 26 4b 97       	mov    $0x974b269e,%esi
    c69e:	89 c7                	mov    %eax,%edi
    c6a0:	e8 13 98 ff ff       	callq  5eb8 <safe_add_func_uint32_t_u_u>
    c6a5:	89 c2                	mov    %eax,%edx
    c6a7:	48 8b 85 f8 f4 ff ff 	mov    -0xb08(%rbp),%rax
    c6ae:	21 d0                	and    %edx,%eax
    c6b0:	89 85 28 f1 ff ff    	mov    %eax,-0xed8(%rbp)
    c6b6:	8b 85 28 f1 ff ff    	mov    -0xed8(%rbp),%eax
    c6bc:	0f b7 c0             	movzwl %ax,%eax
    c6bf:	89 de                	mov    %ebx,%esi
    c6c1:	89 c7                	mov    %eax,%edi
    c6c3:	e8 94 96 ff ff       	callq  5d5c <safe_mod_func_uint16_t_u_u>
    c6c8:	89 c2                	mov    %eax,%edx
    c6ca:	48 8b 05 df fa 00 00 	mov    0xfadf(%rip),%rax        # 1c1b0 <g_1717>
    c6d1:	48 8b 00             	mov    (%rax),%rax
    c6d4:	48 8b 00             	mov    (%rax),%rax
    c6d7:	8b 08                	mov    (%rax),%ecx
    c6d9:	0f b7 d2             	movzwl %dx,%edx
    c6dc:	09 ca                	or     %ecx,%edx
    c6de:	89 10                	mov    %edx,(%rax)
    c6e0:	4c 8b a5 b8 f5 ff ff 	mov    -0xa48(%rbp),%r12
    c6e7:	0f b7 05 ec e7 00 00 	movzwl 0xe7ec(%rip),%eax        # 1aeda <g_1571+0xa>
    c6ee:	0f b7 c0             	movzwl %ax,%eax
    c6f1:	39 85 3c f1 ff ff    	cmp    %eax,-0xec4(%rbp)
    c6f7:	0f 9f c0             	setg   %al
    c6fa:	0f b6 d8             	movzbl %al,%ebx
    c6fd:	8b 85 5c f0 ff ff    	mov    -0xfa4(%rbp),%eax
    c703:	48 63 d0             	movslq %eax,%rdx
    c706:	48 8b 85 b0 f4 ff ff 	mov    -0xb50(%rbp),%rax
    c70d:	48 89 05 a4 03 01 00 	mov    %rax,0x103a4(%rip)        # 1cab8 <g_2362>
    c714:	48 8b 05 9d 03 01 00 	mov    0x1039d(%rip),%rax        # 1cab8 <g_2362>
    c71b:	48 85 c0             	test   %rax,%rax
    c71e:	0f 94 c0             	sete   %al
    c721:	0f b6 c0             	movzbl %al,%eax
    c724:	48 89 d6             	mov    %rdx,%rsi
    c727:	48 89 c7             	mov    %rax,%rdi
    c72a:	e8 ff 98 ff ff       	callq  602e <safe_add_func_uint64_t_u_u>
    c72f:	89 c2                	mov    %eax,%edx
    c731:	8b 85 3c f1 ff ff    	mov    -0xec4(%rbp),%eax
    c737:	21 d0                	and    %edx,%eax
    c739:	98                   	cwtl   
    c73a:	4c 89 e2             	mov    %r12,%rdx
    c73d:	89 de                	mov    %ebx,%esi
    c73f:	89 c7                	mov    %eax,%edi
    c741:	e8 8d 3f 00 00       	callq  106d3 <func_87>
    c746:	48 8b 95 b0 f1 ff ff 	mov    -0xe50(%rbp),%rdx
    c74d:	48 8b 12             	mov    (%rdx),%rdx
    c750:	48 39 d0             	cmp    %rdx,%rax
    c753:	0f 95 c0             	setne  %al
    c756:	0f b6 c0             	movzbl %al,%eax
    c759:	21 85 ec f0 ff ff    	and    %eax,-0xf14(%rbp)
    c75f:	8b 85 98 f1 ff ff    	mov    -0xe68(%rbp),%eax
    c765:	48 98                	cltq   
    c767:	e9 aa 1e 00 00       	jmpq   e616 <func_42+0x57be>
    c76c:	c7 85 34 f1 ff ff ed 	movl   $0x7729ffed,-0xecc(%rbp)
    c773:	ff 29 77 
    c776:	48 8b 05 23 fb 00 00 	mov    0xfb23(%rip),%rax        # 1c2a0 <g_2003>
    c77d:	48 8b 00             	mov    (%rax),%rax
    c780:	48 8d 95 a0 f1 ff ff 	lea    -0xe60(%rbp),%rdx
    c787:	48 89 10             	mov    %rdx,(%rax)
    c78a:	83 bd 1c f1 ff ff 00 	cmpl   $0x0,-0xee4(%rbp)
    c791:	0f 85 75 01 00 00    	jne    c90c <func_42+0x3ab4>
    c797:	8b 85 00 f6 ff ff    	mov    -0xa00(%rbp),%eax
    c79d:	41 89 c4             	mov    %eax,%r12d
    c7a0:	8b 9d 34 f1 ff ff    	mov    -0xecc(%rbp),%ebx
    c7a6:	48 8b 05 e3 f9 00 00 	mov    0xf9e3(%rip),%rax        # 1c190 <g_1520>
    c7ad:	48 8b 00             	mov    (%rax),%rax
    c7b0:	48 8b 00             	mov    (%rax),%rax
    c7b3:	8b 10                	mov    (%rax),%edx
    c7b5:	48 8b 05 d4 f9 00 00 	mov    0xf9d4(%rip),%rax        # 1c190 <g_1520>
    c7bc:	48 8b 00             	mov    (%rax),%rax
    c7bf:	48 8b 00             	mov    (%rax),%rax
    c7c2:	23 95 24 f1 ff ff    	and    -0xedc(%rbp),%edx
    c7c8:	89 10                	mov    %edx,(%rax)
    c7ca:	8b 00                	mov    (%rax),%eax
    c7cc:	85 c0                	test   %eax,%eax
    c7ce:	75 1e                	jne    c7ee <func_42+0x3996>
    c7d0:	8b 85 00 f6 ff ff    	mov    -0xa00(%rbp),%eax
    c7d6:	98                   	cwtl   
    c7d7:	89 c6                	mov    %eax,%esi
    c7d9:	bf 00 00 00 00       	mov    $0x0,%edi
    c7de:	e8 f0 8b ff ff       	callq  53d3 <safe_sub_func_int16_t_s_s>
    c7e3:	8b 85 34 f1 ff ff    	mov    -0xecc(%rbp),%eax
    c7e9:	83 e0 01             	and    $0x1,%eax
    c7ec:	85 c0                	test   %eax,%eax
    c7ee:	8b 85 34 f1 ff ff    	mov    -0xecc(%rbp),%eax
    c7f4:	89 c2                	mov    %eax,%edx
    c7f6:	8b 85 98 f1 ff ff    	mov    -0xe68(%rbp),%eax
    c7fc:	21 d0                	and    %edx,%eax
    c7fe:	89 c2                	mov    %eax,%edx
    c800:	48 8b 05 41 f9 00 00 	mov    0xf941(%rip),%rax        # 1c148 <g_1372>
    c807:	48 8b 00             	mov    (%rax),%rax
    c80a:	48 8b 00             	mov    (%rax),%rax
    c80d:	21 d0                	and    %edx,%eax
    c80f:	0f b7 c0             	movzwl %ax,%eax
    c812:	89 de                	mov    %ebx,%esi
    c814:	89 c7                	mov    %eax,%edi
    c816:	e8 a3 95 ff ff       	callq  5dbe <safe_lshift_func_uint16_t_u_s>
    c81b:	f7 d0                	not    %eax
    c81d:	0f b7 d8             	movzwl %ax,%ebx
    c820:	be 01 00 00 00       	mov    $0x1,%esi
    c825:	bf 01 00 00 00       	mov    $0x1,%edi
    c82a:	e8 bf 8a ff ff       	callq  52ee <safe_lshift_func_int8_t_s_u>
    c82f:	84 c0                	test   %al,%al
    c831:	0f 94 c0             	sete   %al
    c834:	0f b6 d0             	movzbl %al,%edx
    c837:	48 8b 05 ba f5 00 00 	mov    0xf5ba(%rip),%rax        # 1bdf8 <g_600>
    c83e:	48 8b 00             	mov    (%rax),%rax
    c841:	48 89 d6             	mov    %rdx,%rsi
    c844:	48 89 c7             	mov    %rax,%rdi
    c847:	e8 e2 97 ff ff       	callq  602e <safe_add_func_uint64_t_u_u>
    c84c:	48 be a7 aa c5 0a 44 	movabs $0xdbb50440ac5aaa7,%rsi
    c853:	50 bb 0d 
    c856:	48 89 c7             	mov    %rax,%rdi
    c859:	e8 ed 97 ff ff       	callq  604b <safe_sub_func_uint64_t_u_u>
    c85e:	0f b6 c0             	movzbl %al,%eax
    c861:	89 c7                	mov    %eax,%edi
    c863:	e8 dd 92 ff ff       	callq  5b45 <safe_unary_minus_func_uint8_t_u>
    c868:	0f b6 c0             	movzbl %al,%eax
    c86b:	89 c7                	mov    %eax,%edi
    c86d:	e8 d3 92 ff ff       	callq  5b45 <safe_unary_minus_func_uint8_t_u>
    c872:	0f b6 c0             	movzbl %al,%eax
    c875:	89 de                	mov    %ebx,%esi
    c877:	89 c7                	mov    %eax,%edi
    c879:	e8 10 95 ff ff       	callq  5d8e <safe_div_func_uint16_t_u_u>
    c87e:	66 85 c0             	test   %ax,%ax
    c881:	75 09                	jne    c88c <func_42+0x3a34>
    c883:	80 bd b7 ef ff ff 00 	cmpb   $0x0,-0x1049(%rbp)
    c88a:	74 07                	je     c893 <func_42+0x3a3b>
    c88c:	b8 01 00 00 00       	mov    $0x1,%eax
    c891:	eb 05                	jmp    c898 <func_42+0x3a40>
    c893:	b8 00 00 00 00       	mov    $0x0,%eax
    c898:	39 85 34 f1 ff ff    	cmp    %eax,-0xecc(%rbp)
    c89e:	0f 95 c0             	setne  %al
    c8a1:	0f b6 d0             	movzbl %al,%edx
    c8a4:	8b 85 00 f6 ff ff    	mov    -0xa00(%rbp),%eax
    c8aa:	0f b6 c0             	movzbl %al,%eax
    c8ad:	89 d6                	mov    %edx,%esi
    c8af:	89 c7                	mov    %eax,%edi
    c8b1:	e8 dd 92 ff ff       	callq  5b93 <safe_mul_func_uint8_t_u_u>
    c8b6:	0f b6 c0             	movzbl %al,%eax
    c8b9:	23 85 34 f1 ff ff    	and    -0xecc(%rbp),%eax
    c8bf:	41 39 c4             	cmp    %eax,%r12d
    c8c2:	0f 93 c0             	setae  %al
    c8c5:	0f b6 c0             	movzbl %al,%eax
    c8c8:	be 0c 00 00 00       	mov    $0xc,%esi
    c8cd:	89 c7                	mov    %eax,%edi
    c8cf:	e8 8f 8c ff ff       	callq  5563 <safe_rshift_func_int16_t_s_u>
    c8d4:	89 c2                	mov    %eax,%edx
    c8d6:	48 8b 05 cb f8 00 00 	mov    0xf8cb(%rip),%rax        # 1c1a8 <g_1718>
    c8dd:	48 8b 00             	mov    (%rax),%rax
    c8e0:	0f bf d2             	movswl %dx,%edx
    c8e3:	89 10                	mov    %edx,(%rax)
    c8e5:	0f b7 05 82 d7 00 00 	movzwl 0xd782(%rip),%eax        # 1a06e <g_171>
    c8ec:	83 c0 01             	add    $0x1,%eax
    c8ef:	66 89 05 78 d7 00 00 	mov    %ax,0xd778(%rip)        # 1a06e <g_171>
    c8f6:	0f b7 05 71 d7 00 00 	movzwl 0xd771(%rip),%eax        # 1a06e <g_171>
    c8fd:	66 83 f8 13          	cmp    $0x13,%ax
    c901:	0f 86 40 f9 ff ff    	jbe    c247 <func_42+0x33ef>
    c907:	eb 04                	jmp    c90d <func_42+0x3ab5>
    c909:	90                   	nop
    c90a:	eb 01                	jmp    c90d <func_42+0x3ab5>
    c90c:	90                   	nop
    c90d:	8b 05 f9 e8 00 00    	mov    0xe8f9(%rip),%eax        # 1b20c <g_2258>
    c913:	83 c0 01             	add    $0x1,%eax
    c916:	89 05 f0 e8 00 00    	mov    %eax,0xe8f0(%rip)        # 1b20c <g_2258>
    c91c:	8b 05 ea e8 00 00    	mov    0xe8ea(%rip),%eax        # 1b20c <g_2258>
    c922:	83 f8 03             	cmp    $0x3,%eax
    c925:	0f 86 01 f8 ff ff    	jbe    c12c <func_42+0x32d4>
    c92b:	8b 85 28 f9 ff ff    	mov    -0x6d8(%rbp),%eax
    c931:	48 98                	cltq   
    c933:	e9 de 1c 00 00       	jmpq   e616 <func_42+0x57be>
    c938:	48 c7 05 15 d7 00 00 	movq   $0x0,0xd715(%rip)        # 1a058 <g_115>
    c93f:	00 00 00 00 
    c943:	e9 4f 08 00 00       	jmpq   d197 <func_42+0x433f>
    c948:	c7 85 f4 f0 ff ff 66 	movl   $0x8562fb66,-0xf0c(%rbp)
    c94f:	fb 62 85 
    c952:	c7 85 f8 f0 ff ff 32 	movl   $0xd1bec332,-0xf08(%rbp)
    c959:	c3 be d1 
    c95c:	c7 85 fc f0 ff ff f6 	movl   $0xfffffff6,-0xf04(%rbp)
    c963:	ff ff ff 
    c966:	c7 85 d0 f5 ff ff ff 	movl   $0xffffffff,-0xa30(%rbp)
    c96d:	ff ff ff 
    c970:	c7 85 d4 f5 ff ff ff 	movl   $0xffffffff,-0xa2c(%rbp)
    c977:	ff ff ff 
    c97a:	c7 85 d8 f5 ff ff ff 	movl   $0xffffffff,-0xa28(%rbp)
    c981:	ff ff ff 
    c984:	c7 85 dc f5 ff ff ff 	movl   $0xffffffff,-0xa24(%rbp)
    c98b:	ff ff ff 
    c98e:	c6 85 c3 ef ff ff d7 	movb   $0xd7,-0x103d(%rbp)
    c995:	48 8d 85 10 f0 ff ff 	lea    -0xff0(%rbp),%rax
    c99c:	48 89 85 c8 f4 ff ff 	mov    %rax,-0xb38(%rbp)
    c9a3:	c7 85 64 f0 ff ff 53 	movl   $0xc3466553,-0xf9c(%rbp)
    c9aa:	65 46 c3 
    c9ad:	48 8d 05 44 f4 00 00 	lea    0xf444(%rip),%rax        # 1bdf8 <g_600>
    c9b4:	48 89 85 d0 f4 ff ff 	mov    %rax,-0xb30(%rbp)
    c9bb:	48 c7 05 32 e5 00 00 	movq   $0x0,0xe532(%rip)        # 1aef8 <g_1782>
    c9c2:	00 00 00 00 
    c9c6:	e9 4c 03 00 00       	jmpq   cd17 <func_42+0x3ebf>
    c9cb:	c7 85 20 f9 ff ff 40 	movl   $0xf87fc940,-0x6e0(%rbp)
    c9d2:	c9 7f f8 
    c9d5:	c7 85 24 f9 ff ff 07 	movl   $0x7,-0x6dc(%rbp)
    c9dc:	00 00 00 
    c9df:	c7 85 28 f9 ff ff 00 	movl   $0x0,-0x6d8(%rbp)
    c9e6:	00 00 00 
    c9e9:	c7 85 2c f9 ff ff 00 	movl   $0x0,-0x6d4(%rbp)
    c9f0:	00 00 00 
    c9f3:	c7 85 30 f9 ff ff 07 	movl   $0x7,-0x6d0(%rbp)
    c9fa:	00 00 00 
    c9fd:	c7 85 34 f9 ff ff 40 	movl   $0xf87fc940,-0x6cc(%rbp)
    ca04:	c9 7f f8 
    ca07:	c7 85 38 f9 ff ff 07 	movl   $0x7,-0x6c8(%rbp)
    ca0e:	00 00 00 
    ca11:	c7 85 3c f9 ff ff 62 	movl   $0x43cfdc62,-0x6c4(%rbp)
    ca18:	dc cf 43 
    ca1b:	c7 85 40 f9 ff ff 19 	movl   $0x99a79019,-0x6c0(%rbp)
    ca22:	90 a7 99 
    ca25:	c7 85 44 f9 ff ff 19 	movl   $0x99a79019,-0x6bc(%rbp)
    ca2c:	90 a7 99 
    ca2f:	c7 85 48 f9 ff ff 62 	movl   $0x43cfdc62,-0x6b8(%rbp)
    ca36:	dc cf 43 
    ca39:	c7 85 4c f9 ff ff f9 	movl   $0xfffffff9,-0x6b4(%rbp)
    ca40:	ff ff ff 
    ca43:	c7 85 50 f9 ff ff 62 	movl   $0x43cfdc62,-0x6b0(%rbp)
    ca4a:	dc cf 43 
    ca4d:	c7 85 54 f9 ff ff 19 	movl   $0x99a79019,-0x6ac(%rbp)
    ca54:	90 a7 99 
    ca57:	c7 85 58 f9 ff ff ff 	movl   $0xffffffff,-0x6a8(%rbp)
    ca5e:	ff ff ff 
    ca61:	c7 85 5c f9 ff ff ff 	movl   $0xffffffff,-0x6a4(%rbp)
    ca68:	ff ff ff 
    ca6b:	c7 85 60 f9 ff ff 40 	movl   $0xf87fc940,-0x6a0(%rbp)
    ca72:	c9 7f f8 
    ca75:	c7 85 64 f9 ff ff 00 	movl   $0x0,-0x69c(%rbp)
    ca7c:	00 00 00 
    ca7f:	c7 85 68 f9 ff ff 40 	movl   $0xf87fc940,-0x698(%rbp)
    ca86:	c9 7f f8 
    ca89:	c7 85 6c f9 ff ff ff 	movl   $0xffffffff,-0x694(%rbp)
    ca90:	ff ff ff 
    ca93:	c7 85 70 f9 ff ff ff 	movl   $0xffffffff,-0x690(%rbp)
    ca9a:	ff ff ff 
    ca9d:	c7 85 74 f9 ff ff 06 	movl   $0x6,-0x68c(%rbp)
    caa4:	00 00 00 
    caa7:	c7 85 78 f9 ff ff 19 	movl   $0x99a79019,-0x688(%rbp)
    caae:	90 a7 99 
    cab1:	c7 85 7c f9 ff ff 00 	movl   $0x0,-0x684(%rbp)
    cab8:	00 00 00 
    cabb:	c7 85 80 f9 ff ff 19 	movl   $0x99a79019,-0x680(%rbp)
    cac2:	90 a7 99 
    cac5:	c7 85 84 f9 ff ff 06 	movl   $0x6,-0x67c(%rbp)
    cacc:	00 00 00 
    cacf:	c7 85 88 f9 ff ff 06 	movl   $0x6,-0x678(%rbp)
    cad6:	00 00 00 
    cad9:	c7 85 8c f9 ff ff 19 	movl   $0x99a79019,-0x674(%rbp)
    cae0:	90 a7 99 
    cae3:	c7 85 90 f9 ff ff ff 	movl   $0xffffffff,-0x670(%rbp)
    caea:	ff ff ff 
    caed:	c7 85 94 f9 ff ff 07 	movl   $0x7,-0x66c(%rbp)
    caf4:	00 00 00 
    caf7:	c7 85 98 f9 ff ff ff 	movl   $0xffffffff,-0x668(%rbp)
    cafe:	ff ff ff 
    cb01:	c7 85 9c f9 ff ff 40 	movl   $0xf87fc940,-0x664(%rbp)
    cb08:	c9 7f f8 
    cb0b:	c7 85 a0 f9 ff ff 40 	movl   $0xf87fc940,-0x660(%rbp)
    cb12:	c9 7f f8 
    cb15:	c7 85 a4 f9 ff ff ff 	movl   $0xffffffff,-0x65c(%rbp)
    cb1c:	ff ff ff 
    cb1f:	c7 85 a8 f9 ff ff 07 	movl   $0x7,-0x658(%rbp)
    cb26:	00 00 00 
    cb29:	c7 85 ac f9 ff ff 19 	movl   $0x99a79019,-0x654(%rbp)
    cb30:	90 a7 99 
    cb33:	c7 85 b0 f9 ff ff f9 	movl   $0xfffffff9,-0x650(%rbp)
    cb3a:	ff ff ff 
    cb3d:	c7 85 b4 f9 ff ff 00 	movl   $0x0,-0x64c(%rbp)
    cb44:	00 00 00 
    cb47:	c7 85 b8 f9 ff ff 00 	movl   $0x0,-0x648(%rbp)
    cb4e:	00 00 00 
    cb51:	c7 85 bc f9 ff ff f9 	movl   $0xfffffff9,-0x644(%rbp)
    cb58:	ff ff ff 
    cb5b:	c7 85 c0 f9 ff ff 19 	movl   $0x99a79019,-0x640(%rbp)
    cb62:	90 a7 99 
    cb65:	c7 85 c4 f9 ff ff f9 	movl   $0xfffffff9,-0x63c(%rbp)
    cb6c:	ff ff ff 
    cb6f:	c7 85 c8 f9 ff ff ff 	movl   $0xffffffff,-0x638(%rbp)
    cb76:	ff ff ff 
    cb79:	c7 85 cc f9 ff ff 40 	movl   $0xf87fc940,-0x634(%rbp)
    cb80:	c9 7f f8 
    cb83:	c7 85 d0 f9 ff ff 40 	movl   $0xf87fc940,-0x630(%rbp)
    cb8a:	c9 7f f8 
    cb8d:	c7 85 d4 f9 ff ff ff 	movl   $0xffffffff,-0x62c(%rbp)
    cb94:	ff ff ff 
    cb97:	c7 85 d8 f9 ff ff 07 	movl   $0x7,-0x628(%rbp)
    cb9e:	00 00 00 
    cba1:	c7 85 dc f9 ff ff ff 	movl   $0xffffffff,-0x624(%rbp)
    cba8:	ff ff ff 
    cbab:	c7 85 e0 f9 ff ff 40 	movl   $0xf87fc940,-0x620(%rbp)
    cbb2:	c9 7f f8 
    cbb5:	66 c7 85 d6 ef ff ff 	movw   $0x0,-0x102a(%rbp)
    cbbc:	00 00 
    cbbe:	c6 85 c4 ef ff ff f5 	movb   $0xf5,-0x103c(%rbp)
    cbc5:	83 bd f4 f0 ff ff 00 	cmpl   $0x0,-0xf0c(%rbp)
    cbcc:	0f 84 c7 00 00 00    	je     cc99 <func_42+0x3e41>
    cbd2:	c7 85 08 f1 ff ff 4a 	movl   $0xbb2e274a,-0xef8(%rbp)
    cbd9:	27 2e bb 
    cbdc:	48 c7 85 e8 f4 ff ff 	movq   $0xffffffffffffffff,-0xb18(%rbp)
    cbe3:	ff ff ff ff 
    cbe7:	c7 85 0c f1 ff ff 01 	movl   $0x1,-0xef4(%rbp)
    cbee:	00 00 00 
    cbf1:	c7 85 10 f1 ff ff ff 	movl   $0xffffffff,-0xef0(%rbp)
    cbf8:	ff ff ff 
    cbfb:	c7 85 68 f0 ff ff 00 	movl   $0x0,-0xf98(%rbp)
    cc02:	00 00 00 
    cc05:	eb 1b                	jmp    cc22 <func_42+0x3dca>
    cc07:	8b 85 68 f0 ff ff    	mov    -0xf98(%rbp),%eax
    cc0d:	48 98                	cltq   
    cc0f:	48 c7 84 c5 00 f6 ff 	movq   $0x1,-0xa00(%rbp,%rax,8)
    cc16:	ff 01 00 00 00 
    cc1b:	83 85 68 f0 ff ff 01 	addl   $0x1,-0xf98(%rbp)
    cc22:	83 bd 68 f0 ff ff 01 	cmpl   $0x1,-0xf98(%rbp)
    cc29:	7e dc                	jle    cc07 <func_42+0x3daf>
    cc2b:	83 bd f4 f0 ff ff 00 	cmpl   $0x0,-0xf0c(%rbp)
    cc32:	74 20                	je     cc54 <func_42+0x3dfc>
    cc34:	48 8b 05 1d d4 00 00 	mov    0xd41d(%rip),%rax        # 1a058 <g_115>
    cc3b:	48 8d 14 c5 00 00 00 	lea    0x0(,%rax,8),%rdx
    cc42:	00 
    cc43:	48 8d 05 16 f4 00 00 	lea    0xf416(%rip),%rax        # 1c060 <g_925>
    cc4a:	48 c7 04 02 00 00 00 	movq   $0x0,(%rdx,%rax,1)
    cc51:	00 
    cc52:	eb 2d                	jmp    cc81 <func_42+0x3e29>
    cc54:	c7 85 14 f1 ff ff 04 	movl   $0x4,-0xeec(%rbp)
    cc5b:	00 00 00 
    cc5e:	48 8b 85 08 f6 ff ff 	mov    -0x9f8(%rbp),%rax
    cc65:	48 83 e8 01          	sub    $0x1,%rax
    cc69:	48 89 85 08 f6 ff ff 	mov    %rax,-0x9f8(%rbp)
    cc70:	0f b7 05 f5 e5 00 00 	movzwl 0xe5f5(%rip),%eax        # 1b26c <g_2395+0xc>
    cc77:	83 e8 01             	sub    $0x1,%eax
    cc7a:	66 89 05 eb e5 00 00 	mov    %ax,0xe5eb(%rip)        # 1b26c <g_2395+0xc>
    cc81:	80 ad c4 ef ff ff 01 	subb   $0x1,-0x103c(%rbp)
    cc88:	48 83 85 c0 f1 ff ff 	addq   $0x1,-0xe40(%rbp)
    cc8f:	01 
    cc90:	c6 85 b6 ef ff ff 00 	movb   $0x0,-0x104a(%rbp)
    cc97:	eb 4b                	jmp    cce4 <func_42+0x3e8c>
    cc99:	48 8b 05 60 f1 00 00 	mov    0xf160(%rip),%rax        # 1be00 <g_599>
    cca0:	48 8b 00             	mov    (%rax),%rax
    cca3:	48 8b 00             	mov    (%rax),%rax
    cca6:	e9 6b 19 00 00       	jmpq   e616 <func_42+0x57be>
    ccab:	66 c7 85 d8 ef ff ff 	movw   $0x0,-0x1028(%rbp)
    ccb2:	00 00 
    ccb4:	48 8b 05 ed f4 00 00 	mov    0xf4ed(%rip),%rax        # 1c1a8 <g_1718>
    ccbb:	48 8b 00             	mov    (%rax),%rax
    ccbe:	8b 08                	mov    (%rax),%ecx
    ccc0:	0f bf 95 d8 ef ff ff 	movswl -0x1028(%rbp),%edx
    ccc7:	21 ca                	and    %ecx,%edx
    ccc9:	89 10                	mov    %edx,(%rax)
    cccb:	0f be 85 b6 ef ff ff 	movsbl -0x104a(%rbp),%eax
    ccd2:	be 04 00 00 00       	mov    $0x4,%esi
    ccd7:	89 c7                	mov    %eax,%edi
    ccd9:	e8 f5 86 ff ff       	callq  53d3 <safe_sub_func_int16_t_s_s>
    ccde:	88 85 b6 ef ff ff    	mov    %al,-0x104a(%rbp)
    cce4:	80 bd b6 ef ff ff f1 	cmpb   $0xf1,-0x104a(%rbp)
    cceb:	7d be                	jge    ccab <func_42+0x3e53>
    cced:	48 8b 05 9c f4 00 00 	mov    0xf49c(%rip),%rax        # 1c190 <g_1520>
    ccf4:	48 8b 00             	mov    (%rax),%rax
    ccf7:	48 8d 95 d0 f5 ff ff 	lea    -0xa30(%rbp),%rdx
    ccfe:	48 83 c2 0c          	add    $0xc,%rdx
    cd02:	48 89 10             	mov    %rdx,(%rax)
    cd05:	48 8b 05 ec e1 00 00 	mov    0xe1ec(%rip),%rax        # 1aef8 <g_1782>
    cd0c:	48 83 c0 01          	add    $0x1,%rax
    cd10:	48 89 05 e1 e1 00 00 	mov    %rax,0xe1e1(%rip)        # 1aef8 <g_1782>
    cd17:	48 8b 05 da e1 00 00 	mov    0xe1da(%rip),%rax        # 1aef8 <g_1782>
    cd1e:	48 83 f8 07          	cmp    $0x7,%rax
    cd22:	0f 86 a3 fc ff ff    	jbe    c9cb <func_42+0x3b73>
    cd28:	8b 85 fc f0 ff ff    	mov    -0xf04(%rbp),%eax
    cd2e:	0f bf d8             	movswl %ax,%ebx
    cd31:	44 8b a5 ec f0 ff ff 	mov    -0xf14(%rbp),%r12d
    cd38:	48 8b 05 71 fd 00 00 	mov    0xfd71(%rip),%rax        # 1cab0 <g_2363>
    cd3f:	48 8b 00             	mov    (%rax),%rax
    cd42:	0f b7 00             	movzwl (%rax),%eax
    cd45:	0f b7 d0             	movzwl %ax,%edx
    cd48:	48 8b 85 78 f1 ff ff 	mov    -0xe88(%rbp),%rax
    cd4f:	48 8b 00             	mov    (%rax),%rax
    cd52:	48 39 85 c8 f1 ff ff 	cmp    %rax,-0xe38(%rbp)
    cd59:	0f 94 c0             	sete   %al
    cd5c:	0f b6 c0             	movzbl %al,%eax
    cd5f:	89 d6                	mov    %edx,%esi
    cd61:	89 c7                	mov    %eax,%edi
    cd63:	e8 d5 8f ff ff       	callq  5d3d <safe_mul_func_uint16_t_u_u>
    cd68:	8b 85 f4 f0 ff ff    	mov    -0xf0c(%rbp),%eax
    cd6e:	44 0f bf e8          	movswl %ax,%r13d
    cd72:	48 8b 05 c7 f3 00 00 	mov    0xf3c7(%rip),%rax        # 1c140 <g_1373>
    cd79:	48 8b 00             	mov    (%rax),%rax
    cd7c:	48 8b 05 2d f3 00 00 	mov    0xf32d(%rip),%rax        # 1c0b0 <g_1312>
    cd83:	0f b7 00             	movzwl (%rax),%eax
    cd86:	44 0f b7 f0          	movzwl %ax,%r14d
    cd8a:	8b 85 f8 f6 ff ff    	mov    -0x908(%rbp),%eax
    cd90:	83 c8 01             	or     $0x1,%eax
    cd93:	89 85 f8 f6 ff ff    	mov    %eax,-0x908(%rbp)
    cd99:	8b 95 f8 f6 ff ff    	mov    -0x908(%rbp),%edx
    cd9f:	8b 85 98 f1 ff ff    	mov    -0xe68(%rbp),%eax
    cda5:	31 d0                	xor    %edx,%eax
    cda7:	89 85 98 f1 ff ff    	mov    %eax,-0xe68(%rbp)
    cdad:	8b 95 98 f1 ff ff    	mov    -0xe68(%rbp),%edx
    cdb3:	0f b6 85 c3 ef ff ff 	movzbl -0x103d(%rbp),%eax
    cdba:	39 c2                	cmp    %eax,%edx
    cdbc:	0f 95 c0             	setne  %al
    cdbf:	0f b6 c0             	movzbl %al,%eax
    cdc2:	be 07 00 00 00       	mov    $0x7,%esi
    cdc7:	89 c7                	mov    %eax,%edi
    cdc9:	e8 37 8e ff ff       	callq  5c05 <safe_lshift_func_uint8_t_u_s>
    cdce:	0f b6 c0             	movzbl %al,%eax
    cdd1:	44 89 f6             	mov    %r14d,%esi
    cdd4:	89 c7                	mov    %eax,%edi
    cdd6:	e8 24 8f ff ff       	callq  5cff <safe_add_func_uint16_t_u_u>
    cddb:	0f b7 85 10 f0 ff ff 	movzwl -0xff0(%rbp),%eax
    cde2:	66 3d c2 32          	cmp    $0x32c2,%ax
    cde6:	0f 94 c0             	sete   %al
    cde9:	0f b6 c0             	movzbl %al,%eax
    cdec:	be 80 46 87 0b       	mov    $0xb874680,%esi
    cdf1:	89 c7                	mov    %eax,%edi
    cdf3:	e8 c0 90 ff ff       	callq  5eb8 <safe_add_func_uint32_t_u_u>
    cdf8:	98                   	cwtl   
    cdf9:	44 89 ee             	mov    %r13d,%esi
    cdfc:	89 c7                	mov    %eax,%edi
    cdfe:	e8 d0 85 ff ff       	callq  53d3 <safe_sub_func_int16_t_s_s>
    ce03:	66 85 c0             	test   %ax,%ax
    ce06:	75 12                	jne    ce1a <func_42+0x3fc2>
    ce08:	48 8b 05 81 f4 00 00 	mov    0xf481(%rip),%rax        # 1c290 <g_1910>
    ce0f:	48 8b 00             	mov    (%rax),%rax
    ce12:	0f b7 00             	movzwl (%rax),%eax
    ce15:	66 85 c0             	test   %ax,%ax
    ce18:	74 07                	je     ce21 <func_42+0x3fc9>
    ce1a:	b8 01 00 00 00       	mov    $0x1,%eax
    ce1f:	eb 05                	jmp    ce26 <func_42+0x3fce>
    ce21:	b8 00 00 00 00       	mov    $0x0,%eax
    ce26:	0f be c0             	movsbl %al,%eax
    ce29:	be 03 00 00 00       	mov    $0x3,%esi
    ce2e:	89 c7                	mov    %eax,%edi
    ce30:	e8 35 84 ff ff       	callq  526a <safe_div_func_int8_t_s_s>
    ce35:	0f b6 c0             	movzbl %al,%eax
    ce38:	44 89 e6             	mov    %r12d,%esi
    ce3b:	89 c7                	mov    %eax,%edi
    ce3d:	e8 0a 8e ff ff       	callq  5c4c <safe_lshift_func_uint8_t_u_u>
    ce42:	0f b6 d0             	movzbl %al,%edx
    ce45:	83 bd e8 f0 ff ff 00 	cmpl   $0x0,-0xf18(%rbp)
    ce4c:	0f 94 c0             	sete   %al
    ce4f:	0f b6 c0             	movzbl %al,%eax
    ce52:	48 89 d6             	mov    %rdx,%rsi
    ce55:	48 89 c7             	mov    %rax,%rdi
    ce58:	e8 ee 91 ff ff       	callq  604b <safe_sub_func_uint64_t_u_u>
    ce5d:	89 de                	mov    %ebx,%esi
    ce5f:	bf 00 00 00 00       	mov    $0x0,%edi
    ce64:	e8 6a 85 ff ff       	callq  53d3 <safe_sub_func_int16_t_s_s>
    ce69:	0f bf d0             	movswl %ax,%edx
    ce6c:	8b 85 f8 f0 ff ff    	mov    -0xf08(%rbp),%eax
    ce72:	89 d6                	mov    %edx,%esi
    ce74:	89 c7                	mov    %eax,%edi
    ce76:	e8 51 88 ff ff       	callq  56cc <safe_mod_func_int32_t_s_s>
    ce7b:	89 c2                	mov    %eax,%edx
    ce7d:	48 8b 85 c8 f4 ff ff 	mov    -0xb38(%rbp),%rax
    ce84:	66 89 10             	mov    %dx,(%rax)
    ce87:	48 8b 85 c8 f4 ff ff 	mov    -0xb38(%rbp),%rax
    ce8e:	0f b7 00             	movzwl (%rax),%eax
    ce91:	98                   	cwtl   
    ce92:	be 2a 5e 00 00       	mov    $0x5e2a,%esi
    ce97:	89 c7                	mov    %eax,%edi
    ce99:	e8 57 85 ff ff       	callq  53f5 <safe_mul_func_int16_t_s_s>
    ce9e:	48 8b 05 43 ef 00 00 	mov    0xef43(%rip),%rax        # 1bde8 <g_537>
    cea5:	0f b6 00             	movzbl (%rax),%eax
    cea8:	3c 01                	cmp    $0x1,%al
    ceaa:	0f 95 c2             	setne  %dl
    cead:	48 8b 05 fc f2 00 00 	mov    0xf2fc(%rip),%rax        # 1c1b0 <g_1717>
    ceb4:	48 8b 00             	mov    (%rax),%rax
    ceb7:	48 8b 00             	mov    (%rax),%rax
    ceba:	0f b6 d2             	movzbl %dl,%edx
    cebd:	89 10                	mov    %edx,(%rax)
    cebf:	c7 85 2c f0 ff ff 01 	movl   $0x1,-0xfd4(%rbp)
    cec6:	00 00 00 
    cec9:	e9 aa 02 00 00       	jmpq   d178 <func_42+0x4320>
    cece:	48 8d 85 98 f1 ff ff 	lea    -0xe68(%rbp),%rax
    ced5:	48 89 85 d8 f4 ff ff 	mov    %rax,-0xb28(%rbp)
    cedc:	48 8d 05 39 da 00 00 	lea    0xda39(%rip),%rax        # 1a91c <g_768>
    cee3:	48 89 85 e0 f4 ff ff 	mov    %rax,-0xb20(%rbp)
    ceea:	c7 85 50 f0 ff ff 01 	movl   $0x1,-0xfb0(%rbp)
    cef1:	00 00 00 
    cef4:	e9 9d 01 00 00       	jmpq   d096 <func_42+0x423e>
    cef9:	c7 85 00 f1 ff ff 71 	movl   $0xebc8c071,-0xf00(%rbp)
    cf00:	c0 c8 eb 
    cf03:	c7 85 04 f1 ff ff f6 	movl   $0xfffffff6,-0xefc(%rbp)
    cf0a:	ff ff ff 
    cf0d:	8b 85 50 f0 ff ff    	mov    -0xfb0(%rbp),%eax
    cf13:	48 98                	cltq   
    cf15:	48 8d 15 4f d1 00 00 	lea    0xd14f(%rip),%rdx        # 1a06b <g_156>
    cf1c:	0f b6 14 10          	movzbl (%rax,%rdx,1),%edx
    cf20:	48 8b 05 c1 f2 00 00 	mov    0xf2c1(%rip),%rax        # 1c1e8 <g_1715>
    cf27:	48 8b 00             	mov    (%rax),%rax
    cf2a:	48 8b 00             	mov    (%rax),%rax
    cf2d:	48 8b 00             	mov    (%rax),%rax
    cf30:	48 8b 00             	mov    (%rax),%rax
    cf33:	0f be d2             	movsbl %dl,%edx
    cf36:	89 10                	mov    %edx,(%rax)
    cf38:	48 8b 05 61 f3 00 00 	mov    0xf361(%rip),%rax        # 1c2a0 <g_2003>
    cf3f:	48 8b 00             	mov    (%rax),%rax
    cf42:	48 8b 95 d8 f4 ff ff 	mov    -0xb28(%rbp),%rdx
    cf49:	48 89 10             	mov    %rdx,(%rax)
    cf4c:	48 c7 85 f8 f1 ff ff 	movq   $0x1,-0xe08(%rbp)
    cf53:	01 00 00 00 
    cf57:	48 83 bd f8 f1 ff ff 	cmpq   $0x0,-0xe08(%rbp)
    cf5e:	00 
    cf5f:	78 23                	js     cf84 <func_42+0x412c>
    cf61:	48 8b 05 d8 f0 00 00 	mov    0xf0d8(%rip),%rax        # 1c040 <g_878>
    cf68:	48 8b 95 30 f8 ff ff 	mov    -0x7d0(%rbp),%rdx
    cf6f:	48 89 10             	mov    %rdx,(%rax)
    cf72:	48 8b 05 87 ee 00 00 	mov    0xee87(%rip),%rax        # 1be00 <g_599>
    cf79:	48 8b 00             	mov    (%rax),%rax
    cf7c:	48 8b 00             	mov    (%rax),%rax
    cf7f:	e9 92 16 00 00       	jmpq   e616 <func_42+0x57be>
    cf84:	48 8b 05 6d ee 00 00 	mov    0xee6d(%rip),%rax        # 1bdf8 <g_600>
    cf8b:	48 8b 00             	mov    (%rax),%rax
    cf8e:	48 85 c0             	test   %rax,%rax
    cf91:	0f 84 c2 00 00 00    	je     d059 <func_42+0x4201>
    cf97:	48 8b 05 62 ee 00 00 	mov    0xee62(%rip),%rax        # 1be00 <g_599>
    cf9e:	48 8b 00             	mov    (%rax),%rax
    cfa1:	48 8b 85 b8 f4 ff ff 	mov    -0xb48(%rbp),%rax
    cfa8:	48 89 85 e0 f4 ff ff 	mov    %rax,-0xb20(%rbp)
    cfaf:	48 83 bd e0 f4 ff ff 	cmpq   $0x0,-0xb20(%rbp)
    cfb6:	00 
    cfb7:	0f 94 c0             	sete   %al
    cfba:	0f b6 d8             	movzbl %al,%ebx
    cfbd:	48 8b 05 3c ee 00 00 	mov    0xee3c(%rip),%rax        # 1be00 <g_599>
    cfc4:	48 8b 00             	mov    (%rax),%rax
    cfc7:	be ed 33 ca df       	mov    $0xdfca33ed,%esi
    cfcc:	bf f4 89 3c 71       	mov    $0x713c89f4,%edi
    cfd1:	e8 29 87 ff ff       	callq  56ff <safe_div_func_int32_t_s_s>
    cfd6:	48 8b 05 bb f1 00 00 	mov    0xf1bb(%rip),%rax        # 1c198 <g_1570>
    cfdd:	48 8b 10             	mov    (%rax),%rdx
    cfe0:	48 8b 05 b1 f1 00 00 	mov    0xf1b1(%rip),%rax        # 1c198 <g_1570>
    cfe7:	48 83 f2 fd          	xor    $0xfffffffffffffffd,%rdx
    cfeb:	48 89 10             	mov    %rdx,(%rax)
    cfee:	48 8b 00             	mov    (%rax),%rax
    cff1:	48 ba b3 c7 fd f4 e5 	movabs $0xea11e0e5f4fdc7b3,%rdx
    cff8:	e0 11 ea 
    cffb:	48 21 d0             	and    %rdx,%rax
    cffe:	48 3d 07 c1 95 6f    	cmp    $0x6f95c107,%rax
    d004:	0f 96 c0             	setbe  %al
    d007:	0f b6 d0             	movzbl %al,%edx
    d00a:	8b 85 50 f0 ff ff    	mov    -0xfb0(%rbp),%eax
    d010:	48 98                	cltq   
    d012:	48 8d 0d 52 d0 00 00 	lea    0xd052(%rip),%rcx        # 1a06b <g_156>
    d019:	0f b6 04 08          	movzbl (%rax,%rcx,1),%eax
    d01d:	0f be c8             	movsbl %al,%ecx
    d020:	0f b6 85 c3 ef ff ff 	movzbl -0x103d(%rbp),%eax
    d027:	39 c1                	cmp    %eax,%ecx
    d029:	0f 94 c0             	sete   %al
    d02c:	0f b6 c0             	movzbl %al,%eax
    d02f:	89 d6                	mov    %edx,%esi
    d031:	89 c7                	mov    %eax,%edi
    d033:	e8 e7 8c ff ff       	callq  5d1f <safe_sub_func_uint16_t_u_u>
    d038:	0f b7 c0             	movzwl %ax,%eax
    d03b:	09 c3                	or     %eax,%ebx
    d03d:	89 da                	mov    %ebx,%edx
    d03f:	8b 85 00 f1 ff ff    	mov    -0xf00(%rbp),%eax
    d045:	89 c6                	mov    %eax,%esi
    d047:	89 d7                	mov    %edx,%edi
    d049:	e8 68 85 ff ff       	callq  55b6 <safe_add_func_int32_t_s_s>
    d04e:	85 c0                	test   %eax,%eax
    d050:	74 07                	je     d059 <func_42+0x4201>
    d052:	b8 01 00 00 00       	mov    $0x1,%eax
    d057:	eb 05                	jmp    d05e <func_42+0x4206>
    d059:	b8 00 00 00 00       	mov    $0x0,%eax
    d05e:	31 85 04 f1 ff ff    	xor    %eax,-0xefc(%rbp)
    d064:	8b 85 04 f1 ff ff    	mov    -0xefc(%rbp),%eax
    d06a:	48 98                	cltq   
    d06c:	48 89 c6             	mov    %rax,%rsi
    d06f:	bf 01 00 00 00       	mov    $0x1,%edi
    d074:	e8 d2 8f ff ff       	callq  604b <safe_sub_func_uint64_t_u_u>
    d079:	48 8b 95 88 f7 ff ff 	mov    -0x878(%rbp),%rdx
    d080:	48 39 d0             	cmp    %rdx,%rax
    d083:	0f 96 c0             	setbe  %al
    d086:	0f b6 c0             	movzbl %al,%eax
    d089:	21 85 64 f0 ff ff    	and    %eax,-0xf9c(%rbp)
    d08f:	83 ad 50 f0 ff ff 01 	subl   $0x1,-0xfb0(%rbp)
    d096:	83 bd 50 f0 ff ff 00 	cmpl   $0x0,-0xfb0(%rbp)
    d09d:	0f 89 56 fe ff ff    	jns    cef9 <func_42+0x40a1>
    d0a3:	48 8b 15 fe f0 00 00 	mov    0xf0fe(%rip),%rdx        # 1c1a8 <g_1718>
    d0aa:	48 8b 05 37 f1 00 00 	mov    0xf137(%rip),%rax        # 1c1e8 <g_1715>
    d0b1:	48 8b 00             	mov    (%rax),%rax
    d0b4:	48 8b 00             	mov    (%rax),%rax
    d0b7:	48 8b 00             	mov    (%rax),%rax
    d0ba:	48 8b 12             	mov    (%rdx),%rdx
    d0bd:	48 89 10             	mov    %rdx,(%rax)
    d0c0:	c7 05 2a dd 00 00 01 	movl   $0x1,0xdd2a(%rip)        # 1adf4 <g_1132>
    d0c7:	00 00 00 
    d0ca:	e9 94 00 00 00       	jmpq   d163 <func_42+0x430b>
    d0cf:	48 c7 85 b8 f1 ff ff 	movq   $0x0,-0xe48(%rbp)
    d0d6:	00 00 00 00 
    d0da:	48 c7 85 20 f9 ff ff 	movq   $0x0,-0x6e0(%rbp)
    d0e1:	00 00 00 00 
    d0e5:	48 8d 85 b8 f1 ff ff 	lea    -0xe48(%rbp),%rax
    d0ec:	48 89 85 28 f9 ff ff 	mov    %rax,-0x6d8(%rbp)
    d0f3:	48 c7 85 30 f9 ff ff 	movq   $0x0,-0x6d0(%rbp)
    d0fa:	00 00 00 00 
    d0fe:	48 c7 85 38 f9 ff ff 	movq   $0x0,-0x6c8(%rbp)
    d105:	00 00 00 00 
    d109:	48 8d 85 b8 f1 ff ff 	lea    -0xe48(%rbp),%rax
    d110:	48 89 85 40 f9 ff ff 	mov    %rax,-0x6c0(%rbp)
    d117:	48 c7 85 48 f9 ff ff 	movq   $0x0,-0x6b8(%rbp)
    d11e:	00 00 00 00 
    d122:	48 c7 85 50 f9 ff ff 	movq   $0x0,-0x6b0(%rbp)
    d129:	00 00 00 00 
    d12d:	48 8d 85 b8 f1 ff ff 	lea    -0xe48(%rbp),%rax
    d134:	48 89 85 58 f9 ff ff 	mov    %rax,-0x6a8(%rbp)
    d13b:	48 c7 85 60 f9 ff ff 	movq   $0x0,-0x6a0(%rbp)
    d142:	00 00 00 00 
    d146:	48 8d 05 ab ec 00 00 	lea    0xecab(%rip),%rax        # 1bdf8 <g_600>
    d14d:	48 89 85 d0 f4 ff ff 	mov    %rax,-0xb30(%rbp)
    d154:	8b 05 9a dc 00 00    	mov    0xdc9a(%rip),%eax        # 1adf4 <g_1132>
    d15a:	83 e8 01             	sub    $0x1,%eax
    d15d:	89 05 91 dc 00 00    	mov    %eax,0xdc91(%rip)        # 1adf4 <g_1132>
    d163:	8b 05 8b dc 00 00    	mov    0xdc8b(%rip),%eax        # 1adf4 <g_1132>
    d169:	85 c0                	test   %eax,%eax
    d16b:	0f 89 5e ff ff ff    	jns    d0cf <func_42+0x4277>
    d171:	83 ad 2c f0 ff ff 01 	subl   $0x1,-0xfd4(%rbp)
    d178:	83 bd 2c f0 ff ff 00 	cmpl   $0x0,-0xfd4(%rbp)
    d17f:	0f 89 49 fd ff ff    	jns    cece <func_42+0x4076>
    d185:	48 8b 05 cc ce 00 00 	mov    0xcecc(%rip),%rax        # 1a058 <g_115>
    d18c:	48 83 c0 01          	add    $0x1,%rax
    d190:	48 89 05 c1 ce 00 00 	mov    %rax,0xcec1(%rip)        # 1a058 <g_115>
    d197:	48 8b 05 ba ce 00 00 	mov    0xceba(%rip),%rax        # 1a058 <g_115>
    d19e:	48 83 f8 07          	cmp    $0x7,%rax
    d1a2:	0f 86 a0 f7 ff ff    	jbe    c948 <func_42+0x3af0>
    d1a8:	48 8b 05 f9 ee 00 00 	mov    0xeef9(%rip),%rax        # 1c0a8 <g_990>
    d1af:	48 8b 00             	mov    (%rax),%rax
    d1b2:	48 8b 08             	mov    (%rax),%rcx
    d1b5:	48 0f bf 95 cc ef ff 	movswq -0x1034(%rbp),%rdx
    d1bc:	ff 
    d1bd:	48 8b 05 e4 ee 00 00 	mov    0xeee4(%rip),%rax        # 1c0a8 <g_990>
    d1c4:	48 8b 00             	mov    (%rax),%rax
    d1c7:	48 09 ca             	or     %rcx,%rdx
    d1ca:	48 89 10             	mov    %rdx,(%rax)
    d1cd:	48 8b 85 10 f2 ff ff 	mov    -0xdf0(%rbp),%rax
    d1d4:	48 3b 85 c0 f4 ff ff 	cmp    -0xb40(%rbp),%rax
    d1db:	74 07                	je     d1e4 <func_42+0x438c>
    d1dd:	bb f6 ff ff ff       	mov    $0xfffffff6,%ebx
    d1e2:	eb 05                	jmp    d1e9 <func_42+0x4391>
    d1e4:	bb f7 ff ff ff       	mov    $0xfffffff7,%ebx
    d1e9:	8b 95 f0 f0 ff ff    	mov    -0xf10(%rbp),%edx
    d1ef:	48 8b 05 c2 f8 00 00 	mov    0xf8c2(%rip),%rax        # 1cab8 <g_2362>
    d1f6:	48 8b 00             	mov    (%rax),%rax
    d1f9:	48 8b 00             	mov    (%rax),%rax
    d1fc:	0f b6 8d c2 ef ff ff 	movzbl -0x103e(%rbp),%ecx
    d203:	66 89 08             	mov    %cx,(%rax)
    d206:	48 8b 05 c3 fd 00 00 	mov    0xfdc3(%rip),%rax        # 1cfd0 <g_2467>
    d20d:	48 89 05 bc fd 00 00 	mov    %rax,0xfdbc(%rip)        # 1cfd0 <g_2467>
    d214:	48 8b 05 b5 fd 00 00 	mov    0xfdb5(%rip),%rax        # 1cfd0 <g_2467>
    d21b:	48 39 85 08 f2 ff ff 	cmp    %rax,-0xdf8(%rbp)
    d222:	0f 94 c0             	sete   %al
    d225:	0f b6 c8             	movzbl %al,%ecx
    d228:	48 8b 05 b9 d6 00 00 	mov    0xd6b9(%rip),%rax        # 1a8e8 <g_502+0x8>
    d22f:	c1 e0 06             	shl    $0x6,%eax
    d232:	c1 f8 06             	sar    $0x6,%eax
    d235:	89 c6                	mov    %eax,%esi
    d237:	48 8b 85 e0 f1 ff ff 	mov    -0xe20(%rbp),%rax
    d23e:	89 30                	mov    %esi,(%rax)
    d240:	48 8b 85 e0 f1 ff ff 	mov    -0xe20(%rbp),%rax
    d247:	8b 00                	mov    (%rax),%eax
    d249:	39 c1                	cmp    %eax,%ecx
    d24b:	89 d6                	mov    %edx,%esi
    d24d:	bf fd ff ff ff       	mov    $0xfffffffd,%edi
    d252:	e8 3b 82 ff ff       	callq  5492 <safe_lshift_func_int16_t_s_s>
    d257:	0f bf d0             	movswl %ax,%edx
    d25a:	48 8b 05 87 ef 00 00 	mov    0xef87(%rip),%rax        # 1c1e8 <g_1715>
    d261:	48 8b 00             	mov    (%rax),%rax
    d264:	48 8b 00             	mov    (%rax),%rax
    d267:	48 8b 00             	mov    (%rax),%rax
    d26a:	48 8b 00             	mov    (%rax),%rax
    d26d:	21 da                	and    %ebx,%edx
    d26f:	89 10                	mov    %edx,(%rax)
    d271:	e9 ee 12 00 00       	jmpq   e564 <func_42+0x570c>
    d276:	c6 85 b8 f1 ff ff cc 	movb   $0xcc,-0xe48(%rbp)
    d27d:	c7 85 6c f0 ff ff a5 	movl   $0x90e643a5,-0xf94(%rbp)
    d284:	43 e6 90 
    d287:	48 8d 05 22 ee 00 00 	lea    0xee22(%rip),%rax        # 1c0b0 <g_1312>
    d28e:	48 89 85 90 f4 ff ff 	mov    %rax,-0xb70(%rbp)
    d295:	0f b6 85 b8 f1 ff ff 	movzbl -0xe48(%rbp),%eax
    d29c:	0f b6 d8             	movzbl %al,%ebx
    d29f:	48 8b 85 10 f2 ff ff 	mov    -0xdf0(%rbp),%rax
    d2a6:	48 8b 00             	mov    (%rax),%rax
    d2a9:	48 8b 00             	mov    (%rax),%rax
    d2ac:	48 85 c0             	test   %rax,%rax
    d2af:	0f 94 c0             	sete   %al
    d2b2:	0f b6 c0             	movzbl %al,%eax
    d2b5:	be ec ff ff ff       	mov    $0xffffffec,%esi
    d2ba:	89 c7                	mov    %eax,%edi
    d2bc:	e8 13 7f ff ff       	callq  51d4 <safe_add_func_int8_t_s_s>
    d2c1:	0f be c0             	movsbl %al,%eax
    d2c4:	89 de                	mov    %ebx,%esi
    d2c6:	89 c7                	mov    %eax,%edi
    d2c8:	e8 e6 80 ff ff       	callq  53b3 <safe_add_func_int16_t_s_s>
    d2cd:	48 83 bd d8 f1 ff ff 	cmpq   $0x0,-0xe28(%rbp)
    d2d4:	00 
    d2d5:	0f 95 c0             	setne  %al
    d2d8:	0f b6 d0             	movzbl %al,%edx
    d2db:	0f b6 85 b8 f1 ff ff 	movzbl -0xe48(%rbp),%eax
    d2e2:	0f b6 c0             	movzbl %al,%eax
    d2e5:	39 c2                	cmp    %eax,%edx
    d2e7:	0f 95 c0             	setne  %al
    d2ea:	0f b6 d0             	movzbl %al,%edx
    d2ed:	8b 05 ed df 00 00    	mov    0xdfed(%rip),%eax        # 1b2e0 <g_2487>
    d2f3:	39 c2                	cmp    %eax,%edx
    d2f5:	0f 94 c0             	sete   %al
    d2f8:	0f b6 d8             	movzbl %al,%ebx
    d2fb:	be 02 00 00 00       	mov    $0x2,%esi
    d300:	bf 06 00 00 00       	mov    $0x6,%edi
    d305:	e8 2b 80 ff ff       	callq  5335 <safe_rshift_func_int8_t_s_s>
    d30a:	0f be c0             	movsbl %al,%eax
    d30d:	89 de                	mov    %ebx,%esi
    d30f:	89 c7                	mov    %eax,%edi
    d311:	e8 0f 8c ff ff       	callq  5f25 <safe_div_func_uint32_t_u_u>
    d316:	48 8b 05 3b ee 00 00 	mov    0xee3b(%rip),%rax        # 1c158 <g_1370>
    d31d:	48 8b 00             	mov    (%rax),%rax
    d320:	48 8d 15 81 ed 00 00 	lea    0xed81(%rip),%rdx        # 1c0a8 <g_990>
    d327:	48 39 d0             	cmp    %rdx,%rax
    d32a:	0f 95 c0             	setne  %al
    d32d:	89 c2                	mov    %eax,%edx
    d32f:	48 8b 05 72 ed 00 00 	mov    0xed72(%rip),%rax        # 1c0a8 <g_990>
    d336:	48 8b 00             	mov    (%rax),%rax
    d339:	48 8b 00             	mov    (%rax),%rax
    d33c:	31 d0                	xor    %edx,%eax
    d33e:	0f be c0             	movsbl %al,%eax
    d341:	be 06 00 00 00       	mov    $0x6,%esi
    d346:	89 c7                	mov    %eax,%edi
    d348:	e8 54 7f ff ff       	callq  52a1 <safe_lshift_func_int8_t_s_s>
    d34d:	48 0f be c0          	movsbq %al,%rax
    d351:	be 00 00 00 00       	mov    $0x0,%esi
    d356:	48 89 c7             	mov    %rax,%rdi
    d359:	e8 e3 84 ff ff       	callq  5841 <safe_add_func_int64_t_s_s>
    d35e:	0f be c0             	movsbl %al,%eax
    d361:	89 c6                	mov    %eax,%esi
    d363:	bf ff ff ff ff       	mov    $0xffffffff,%edi
    d368:	e8 a5 7e ff ff       	callq  5212 <safe_mul_func_int8_t_s_s>
    d36d:	84 c0                	test   %al,%al
    d36f:	75 0f                	jne    d380 <func_42+0x4528>
    d371:	0f b6 85 b8 f1 ff ff 	movzbl -0xe48(%rbp),%eax
    d378:	84 c0                	test   %al,%al
    d37a:	0f 84 65 0a 00 00    	je     dde5 <func_42+0x4f8d>
    d380:	c7 85 cc f0 ff ff e2 	movl   $0xb220cbe2,-0xf34(%rbp)
    d387:	cb 20 b2 
    d38a:	48 8d 05 1b d5 00 00 	lea    0xd51b(%rip),%rax        # 1a8ac <g_346+0x2>
    d391:	48 89 85 20 fa ff ff 	mov    %rax,-0x5e0(%rbp)
    d398:	48 8d 05 ed fb 00 00 	lea    0xfbed(%rip),%rax        # 1cf8c <g_73>
    d39f:	48 89 85 28 fa ff ff 	mov    %rax,-0x5d8(%rbp)
    d3a6:	48 8d 05 ff d4 00 00 	lea    0xd4ff(%rip),%rax        # 1a8ac <g_346+0x2>
    d3ad:	48 89 85 30 fa ff ff 	mov    %rax,-0x5d0(%rbp)
    d3b4:	48 8d 05 ef d4 00 00 	lea    0xd4ef(%rip),%rax        # 1a8aa <g_346>
    d3bb:	48 89 85 38 fa ff ff 	mov    %rax,-0x5c8(%rbp)
    d3c2:	48 8d 05 97 cc 00 00 	lea    0xcc97(%rip),%rax        # 1a060 <g_137>
    d3c9:	48 89 85 40 fa ff ff 	mov    %rax,-0x5c0(%rbp)
    d3d0:	48 c7 85 48 fa ff ff 	movq   $0x0,-0x5b8(%rbp)
    d3d7:	00 00 00 00 
    d3db:	48 c7 85 50 fa ff ff 	movq   $0x0,-0x5b0(%rbp)
    d3e2:	00 00 00 00 
    d3e6:	48 8d 05 73 cc 00 00 	lea    0xcc73(%rip),%rax        # 1a060 <g_137>
    d3ed:	48 89 85 58 fa ff ff 	mov    %rax,-0x5a8(%rbp)
    d3f4:	48 8d 85 b5 ef ff ff 	lea    -0x104b(%rbp),%rax
    d3fb:	48 89 85 60 fa ff ff 	mov    %rax,-0x5a0(%rbp)
    d402:	48 8d 05 57 cc 00 00 	lea    0xcc57(%rip),%rax        # 1a060 <g_137>
    d409:	48 89 85 68 fa ff ff 	mov    %rax,-0x598(%rbp)
    d410:	48 8d 05 75 fb 00 00 	lea    0xfb75(%rip),%rax        # 1cf8c <g_73>
    d417:	48 89 85 70 fa ff ff 	mov    %rax,-0x590(%rbp)
    d41e:	48 8d 05 85 d4 00 00 	lea    0xd485(%rip),%rax        # 1a8aa <g_346>
    d425:	48 89 85 78 fa ff ff 	mov    %rax,-0x588(%rbp)
    d42c:	48 8d 05 79 d4 00 00 	lea    0xd479(%rip),%rax        # 1a8ac <g_346+0x2>
    d433:	48 89 85 80 fa ff ff 	mov    %rax,-0x580(%rbp)
    d43a:	48 8d 85 b8 f1 ff ff 	lea    -0xe48(%rbp),%rax
    d441:	48 89 85 88 fa ff ff 	mov    %rax,-0x578(%rbp)
    d448:	48 8d 05 11 cc 00 00 	lea    0xcc11(%rip),%rax        # 1a060 <g_137>
    d44f:	48 89 85 90 fa ff ff 	mov    %rax,-0x570(%rbp)
    d456:	48 8d 05 03 cc 00 00 	lea    0xcc03(%rip),%rax        # 1a060 <g_137>
    d45d:	48 89 85 98 fa ff ff 	mov    %rax,-0x568(%rbp)
    d464:	48 c7 85 a0 fa ff ff 	movq   $0x0,-0x560(%rbp)
    d46b:	00 00 00 00 
    d46f:	48 8d 05 35 d4 00 00 	lea    0xd435(%rip),%rax        # 1a8ab <g_346+0x1>
    d476:	48 89 85 a8 fa ff ff 	mov    %rax,-0x558(%rbp)
    d47d:	48 c7 85 b0 fa ff ff 	movq   $0x0,-0x550(%rbp)
    d484:	00 00 00 00 
    d488:	48 8d 05 1d d4 00 00 	lea    0xd41d(%rip),%rax        # 1a8ac <g_346+0x2>
    d48f:	48 89 85 b8 fa ff ff 	mov    %rax,-0x548(%rbp)
    d496:	48 c7 85 c0 fa ff ff 	movq   $0x0,-0x540(%rbp)
    d49d:	00 00 00 00 
    d4a1:	48 8d 05 b8 cb 00 00 	lea    0xcbb8(%rip),%rax        # 1a060 <g_137>
    d4a8:	48 89 85 c8 fa ff ff 	mov    %rax,-0x538(%rbp)
    d4af:	48 8d 05 d6 fa 00 00 	lea    0xfad6(%rip),%rax        # 1cf8c <g_73>
    d4b6:	48 89 85 d0 fa ff ff 	mov    %rax,-0x530(%rbp)
    d4bd:	48 8d 85 b5 ef ff ff 	lea    -0x104b(%rbp),%rax
    d4c4:	48 89 85 d8 fa ff ff 	mov    %rax,-0x528(%rbp)
    d4cb:	48 8d 05 da d3 00 00 	lea    0xd3da(%rip),%rax        # 1a8ac <g_346+0x2>
    d4d2:	48 89 85 e0 fa ff ff 	mov    %rax,-0x520(%rbp)
    d4d9:	48 8d 85 b5 ef ff ff 	lea    -0x104b(%rbp),%rax
    d4e0:	48 89 85 e8 fa ff ff 	mov    %rax,-0x518(%rbp)
    d4e7:	48 8d 05 9e fa 00 00 	lea    0xfa9e(%rip),%rax        # 1cf8c <g_73>
    d4ee:	48 89 85 f0 fa ff ff 	mov    %rax,-0x510(%rbp)
    d4f5:	48 8d 05 af d3 00 00 	lea    0xd3af(%rip),%rax        # 1a8ab <g_346+0x1>
    d4fc:	48 89 85 f8 fa ff ff 	mov    %rax,-0x508(%rbp)
    d503:	48 c7 85 00 fb ff ff 	movq   $0x0,-0x500(%rbp)
    d50a:	00 00 00 00 
    d50e:	48 8d 85 b5 ef ff ff 	lea    -0x104b(%rbp),%rax
    d515:	48 89 85 08 fb ff ff 	mov    %rax,-0x4f8(%rbp)
    d51c:	48 8d 05 69 fa 00 00 	lea    0xfa69(%rip),%rax        # 1cf8c <g_73>
    d523:	48 89 85 10 fb ff ff 	mov    %rax,-0x4f0(%rbp)
    d52a:	48 c7 85 18 fb ff ff 	movq   $0x0,-0x4e8(%rbp)
    d531:	00 00 00 00 
    d535:	48 8d 05 70 d3 00 00 	lea    0xd370(%rip),%rax        # 1a8ac <g_346+0x2>
    d53c:	48 89 85 20 fb ff ff 	mov    %rax,-0x4e0(%rbp)
    d543:	48 c7 85 28 fb ff ff 	movq   $0x0,-0x4d8(%rbp)
    d54a:	00 00 00 00 
    d54e:	48 8d 85 b5 ef ff ff 	lea    -0x104b(%rbp),%rax
    d555:	48 89 85 30 fb ff ff 	mov    %rax,-0x4d0(%rbp)
    d55c:	48 c7 85 38 fb ff ff 	movq   $0x0,-0x4c8(%rbp)
    d563:	00 00 00 00 
    d567:	48 8d 05 1e fa 00 00 	lea    0xfa1e(%rip),%rax        # 1cf8c <g_73>
    d56e:	48 89 85 40 fb ff ff 	mov    %rax,-0x4c0(%rbp)
    d575:	48 c7 85 48 fb ff ff 	movq   $0x0,-0x4b8(%rbp)
    d57c:	00 00 00 00 
    d580:	48 8d 05 24 d3 00 00 	lea    0xd324(%rip),%rax        # 1a8ab <g_346+0x1>
    d587:	48 89 85 50 fb ff ff 	mov    %rax,-0x4b0(%rbp)
    d58e:	48 8d 05 17 d3 00 00 	lea    0xd317(%rip),%rax        # 1a8ac <g_346+0x2>
    d595:	48 89 85 58 fb ff ff 	mov    %rax,-0x4a8(%rbp)
    d59c:	48 c7 85 60 fb ff ff 	movq   $0x0,-0x4a0(%rbp)
    d5a3:	00 00 00 00 
    d5a7:	48 8d 05 fe d2 00 00 	lea    0xd2fe(%rip),%rax        # 1a8ac <g_346+0x2>
    d5ae:	48 89 85 68 fb ff ff 	mov    %rax,-0x498(%rbp)
    d5b5:	48 8d 05 f0 d2 00 00 	lea    0xd2f0(%rip),%rax        # 1a8ac <g_346+0x2>
    d5bc:	48 89 85 70 fb ff ff 	mov    %rax,-0x490(%rbp)
    d5c3:	48 c7 85 78 fb ff ff 	movq   $0x0,-0x488(%rbp)
    d5ca:	00 00 00 00 
    d5ce:	48 8d 05 d7 d2 00 00 	lea    0xd2d7(%rip),%rax        # 1a8ac <g_346+0x2>
    d5d5:	48 89 85 80 fb ff ff 	mov    %rax,-0x480(%rbp)
    d5dc:	48 8d 05 c9 d2 00 00 	lea    0xd2c9(%rip),%rax        # 1a8ac <g_346+0x2>
    d5e3:	48 89 85 88 fb ff ff 	mov    %rax,-0x478(%rbp)
    d5ea:	48 8d 05 9b f9 00 00 	lea    0xf99b(%rip),%rax        # 1cf8c <g_73>
    d5f1:	48 89 85 90 fb ff ff 	mov    %rax,-0x470(%rbp)
    d5f8:	48 8d 05 ad d2 00 00 	lea    0xd2ad(%rip),%rax        # 1a8ac <g_346+0x2>
    d5ff:	48 89 85 98 fb ff ff 	mov    %rax,-0x468(%rbp)
    d606:	48 8d 85 b5 ef ff ff 	lea    -0x104b(%rbp),%rax
    d60d:	48 89 85 a0 fb ff ff 	mov    %rax,-0x460(%rbp)
    d614:	48 8d 05 45 ca 00 00 	lea    0xca45(%rip),%rax        # 1a060 <g_137>
    d61b:	48 89 85 a8 fb ff ff 	mov    %rax,-0x458(%rbp)
    d622:	48 8d 05 82 d2 00 00 	lea    0xd282(%rip),%rax        # 1a8ab <g_346+0x1>
    d629:	48 89 85 b0 fb ff ff 	mov    %rax,-0x450(%rbp)
    d630:	48 c7 85 b8 fb ff ff 	movq   $0x0,-0x448(%rbp)
    d637:	00 00 00 00 
    d63b:	48 8d 05 1e ca 00 00 	lea    0xca1e(%rip),%rax        # 1a060 <g_137>
    d642:	48 89 85 c0 fb ff ff 	mov    %rax,-0x440(%rbp)
    d649:	48 8d 05 5b d2 00 00 	lea    0xd25b(%rip),%rax        # 1a8ab <g_346+0x1>
    d650:	48 89 85 c8 fb ff ff 	mov    %rax,-0x438(%rbp)
    d657:	48 8d 05 4d d2 00 00 	lea    0xd24d(%rip),%rax        # 1a8ab <g_346+0x1>
    d65e:	48 89 85 d0 fb ff ff 	mov    %rax,-0x430(%rbp)
    d665:	48 c7 85 d8 fb ff ff 	movq   $0x0,-0x428(%rbp)
    d66c:	00 00 00 00 
    d670:	48 8d 05 e9 c9 00 00 	lea    0xc9e9(%rip),%rax        # 1a060 <g_137>
    d677:	48 89 85 e0 fb ff ff 	mov    %rax,-0x420(%rbp)
    d67e:	48 8d 85 b5 ef ff ff 	lea    -0x104b(%rbp),%rax
    d685:	48 89 85 e8 fb ff ff 	mov    %rax,-0x418(%rbp)
    d68c:	48 c7 85 f0 fb ff ff 	movq   $0x0,-0x410(%rbp)
    d693:	00 00 00 00 
    d697:	48 8d 85 b5 ef ff ff 	lea    -0x104b(%rbp),%rax
    d69e:	48 89 85 f8 fb ff ff 	mov    %rax,-0x408(%rbp)
    d6a5:	48 c7 85 00 fc ff ff 	movq   $0x0,-0x400(%rbp)
    d6ac:	00 00 00 00 
    d6b0:	48 8d 85 b5 ef ff ff 	lea    -0x104b(%rbp),%rax
    d6b7:	48 89 85 08 fc ff ff 	mov    %rax,-0x3f8(%rbp)
    d6be:	48 8d 85 b5 ef ff ff 	lea    -0x104b(%rbp),%rax
    d6c5:	48 89 85 10 fc ff ff 	mov    %rax,-0x3f0(%rbp)
    d6cc:	48 c7 85 18 fc ff ff 	movq   $0x0,-0x3e8(%rbp)
    d6d3:	00 00 00 00 
    d6d7:	48 8d 05 cc d1 00 00 	lea    0xd1cc(%rip),%rax        # 1a8aa <g_346>
    d6de:	48 89 85 20 fc ff ff 	mov    %rax,-0x3e0(%rbp)
    d6e5:	48 8d 05 74 c9 00 00 	lea    0xc974(%rip),%rax        # 1a060 <g_137>
    d6ec:	48 89 85 28 fc ff ff 	mov    %rax,-0x3d8(%rbp)
    d6f3:	48 8d 85 b5 ef ff ff 	lea    -0x104b(%rbp),%rax
    d6fa:	48 89 85 30 fc ff ff 	mov    %rax,-0x3d0(%rbp)
    d701:	48 c7 85 38 fc ff ff 	movq   $0x0,-0x3c8(%rbp)
    d708:	00 00 00 00 
    d70c:	48 8d 85 b5 ef ff ff 	lea    -0x104b(%rbp),%rax
    d713:	48 89 85 40 fc ff ff 	mov    %rax,-0x3c0(%rbp)
    d71a:	48 c7 85 48 fc ff ff 	movq   $0x0,-0x3b8(%rbp)
    d721:	00 00 00 00 
    d725:	48 8d 05 60 f8 00 00 	lea    0xf860(%rip),%rax        # 1cf8c <g_73>
    d72c:	48 89 85 50 fc ff ff 	mov    %rax,-0x3b0(%rbp)
    d733:	48 8d 05 72 d1 00 00 	lea    0xd172(%rip),%rax        # 1a8ac <g_346+0x2>
    d73a:	48 89 85 58 fc ff ff 	mov    %rax,-0x3a8(%rbp)
    d741:	48 8d 05 64 d1 00 00 	lea    0xd164(%rip),%rax        # 1a8ac <g_346+0x2>
    d748:	48 89 85 60 fc ff ff 	mov    %rax,-0x3a0(%rbp)
    d74f:	48 c7 85 68 fc ff ff 	movq   $0x0,-0x398(%rbp)
    d756:	00 00 00 00 
    d75a:	48 8d 85 b5 ef ff ff 	lea    -0x104b(%rbp),%rax
    d761:	48 89 85 70 fc ff ff 	mov    %rax,-0x390(%rbp)
    d768:	48 8d 05 3d d1 00 00 	lea    0xd13d(%rip),%rax        # 1a8ac <g_346+0x2>
    d76f:	48 89 85 78 fc ff ff 	mov    %rax,-0x388(%rbp)
    d776:	48 c7 85 80 fc ff ff 	movq   $0x0,-0x380(%rbp)
    d77d:	00 00 00 00 
    d781:	48 8d 05 04 f8 00 00 	lea    0xf804(%rip),%rax        # 1cf8c <g_73>
    d788:	48 89 85 88 fc ff ff 	mov    %rax,-0x378(%rbp)
    d78f:	48 8d 05 16 d1 00 00 	lea    0xd116(%rip),%rax        # 1a8ac <g_346+0x2>
    d796:	48 89 85 90 fc ff ff 	mov    %rax,-0x370(%rbp)
    d79d:	48 8d 05 08 d1 00 00 	lea    0xd108(%rip),%rax        # 1a8ac <g_346+0x2>
    d7a4:	48 89 85 98 fc ff ff 	mov    %rax,-0x368(%rbp)
    d7ab:	48 c7 85 a0 fc ff ff 	movq   $0x0,-0x360(%rbp)
    d7b2:	00 00 00 00 
    d7b6:	48 8d 85 b5 ef ff ff 	lea    -0x104b(%rbp),%rax
    d7bd:	48 89 85 a8 fc ff ff 	mov    %rax,-0x358(%rbp)
    d7c4:	48 8d 05 e1 d0 00 00 	lea    0xd0e1(%rip),%rax        # 1a8ac <g_346+0x2>
    d7cb:	48 89 85 b0 fc ff ff 	mov    %rax,-0x350(%rbp)
    d7d2:	48 8d 05 d3 d0 00 00 	lea    0xd0d3(%rip),%rax        # 1a8ac <g_346+0x2>
    d7d9:	48 89 85 b8 fc ff ff 	mov    %rax,-0x348(%rbp)
    d7e0:	48 8d 05 a5 f7 00 00 	lea    0xf7a5(%rip),%rax        # 1cf8c <g_73>
    d7e7:	48 89 85 c0 fc ff ff 	mov    %rax,-0x340(%rbp)
    d7ee:	48 c7 85 c8 fc ff ff 	movq   $0x0,-0x338(%rbp)
    d7f5:	00 00 00 00 
    d7f9:	48 c7 85 d0 fc ff ff 	movq   $0x0,-0x330(%rbp)
    d800:	00 00 00 00 
    d804:	48 8d 85 b5 ef ff ff 	lea    -0x104b(%rbp),%rax
    d80b:	48 89 85 d8 fc ff ff 	mov    %rax,-0x328(%rbp)
    d812:	48 8d 05 47 c8 00 00 	lea    0xc847(%rip),%rax        # 1a060 <g_137>
    d819:	48 89 85 e0 fc ff ff 	mov    %rax,-0x320(%rbp)
    d820:	48 c7 85 e8 fc ff ff 	movq   $0x0,-0x318(%rbp)
    d827:	00 00 00 00 
    d82b:	48 8d 05 7a d0 00 00 	lea    0xd07a(%rip),%rax        # 1a8ac <g_346+0x2>
    d832:	48 89 85 f0 fc ff ff 	mov    %rax,-0x310(%rbp)
    d839:	48 8d 05 4c f7 00 00 	lea    0xf74c(%rip),%rax        # 1cf8c <g_73>
    d840:	48 89 85 f8 fc ff ff 	mov    %rax,-0x308(%rbp)
    d847:	48 8d 05 5e d0 00 00 	lea    0xd05e(%rip),%rax        # 1a8ac <g_346+0x2>
    d84e:	48 89 85 00 fd ff ff 	mov    %rax,-0x300(%rbp)
    d855:	48 8d 05 04 c8 00 00 	lea    0xc804(%rip),%rax        # 1a060 <g_137>
    d85c:	48 89 85 08 fd ff ff 	mov    %rax,-0x2f8(%rbp)
    d863:	48 8d 05 42 d0 00 00 	lea    0xd042(%rip),%rax        # 1a8ac <g_346+0x2>
    d86a:	48 89 85 10 fd ff ff 	mov    %rax,-0x2f0(%rbp)
    d871:	48 8d 85 b5 ef ff ff 	lea    -0x104b(%rbp),%rax
    d878:	48 89 85 18 fd ff ff 	mov    %rax,-0x2e8(%rbp)
    d87f:	48 c7 85 20 fd ff ff 	movq   $0x0,-0x2e0(%rbp)
    d886:	00 00 00 00 
    d88a:	48 8d 85 b5 ef ff ff 	lea    -0x104b(%rbp),%rax
    d891:	48 89 85 28 fd ff ff 	mov    %rax,-0x2d8(%rbp)
    d898:	48 8d 05 0d d0 00 00 	lea    0xd00d(%rip),%rax        # 1a8ac <g_346+0x2>
    d89f:	48 89 85 30 fd ff ff 	mov    %rax,-0x2d0(%rbp)
    d8a6:	48 8d 05 b3 c7 00 00 	lea    0xc7b3(%rip),%rax        # 1a060 <g_137>
    d8ad:	48 89 85 38 fd ff ff 	mov    %rax,-0x2c8(%rbp)
    d8b4:	48 8d 85 b5 ef ff ff 	lea    -0x104b(%rbp),%rax
    d8bb:	48 89 85 40 fd ff ff 	mov    %rax,-0x2c0(%rbp)
    d8c2:	48 8d 85 b5 ef ff ff 	lea    -0x104b(%rbp),%rax
    d8c9:	48 89 85 48 fd ff ff 	mov    %rax,-0x2b8(%rbp)
    d8d0:	48 8d 05 89 c7 00 00 	lea    0xc789(%rip),%rax        # 1a060 <g_137>
    d8d7:	48 89 85 50 fd ff ff 	mov    %rax,-0x2b0(%rbp)
    d8de:	48 8d 05 c7 cf 00 00 	lea    0xcfc7(%rip),%rax        # 1a8ac <g_346+0x2>
    d8e5:	48 89 85 58 fd ff ff 	mov    %rax,-0x2a8(%rbp)
    d8ec:	48 8d 05 6d c7 00 00 	lea    0xc76d(%rip),%rax        # 1a060 <g_137>
    d8f3:	48 89 85 60 fd ff ff 	mov    %rax,-0x2a0(%rbp)
    d8fa:	48 8d 85 b5 ef ff ff 	lea    -0x104b(%rbp),%rax
    d901:	48 89 85 68 fd ff ff 	mov    %rax,-0x298(%rbp)
    d908:	48 8d 05 9d cf 00 00 	lea    0xcf9d(%rip),%rax        # 1a8ac <g_346+0x2>
    d90f:	48 89 85 70 fd ff ff 	mov    %rax,-0x290(%rbp)
    d916:	48 8d 85 b5 ef ff ff 	lea    -0x104b(%rbp),%rax
    d91d:	48 89 85 78 fd ff ff 	mov    %rax,-0x288(%rbp)
    d924:	48 8d 05 35 c7 00 00 	lea    0xc735(%rip),%rax        # 1a060 <g_137>
    d92b:	48 89 85 80 fd ff ff 	mov    %rax,-0x280(%rbp)
    d932:	48 8d 05 73 cf 00 00 	lea    0xcf73(%rip),%rax        # 1a8ac <g_346+0x2>
    d939:	48 89 85 88 fd ff ff 	mov    %rax,-0x278(%rbp)
    d940:	48 8d 05 45 f6 00 00 	lea    0xf645(%rip),%rax        # 1cf8c <g_73>
    d947:	48 89 85 90 fd ff ff 	mov    %rax,-0x270(%rbp)
    d94e:	48 8d 05 57 cf 00 00 	lea    0xcf57(%rip),%rax        # 1a8ac <g_346+0x2>
    d955:	48 89 85 98 fd ff ff 	mov    %rax,-0x268(%rbp)
    d95c:	48 8d 05 47 cf 00 00 	lea    0xcf47(%rip),%rax        # 1a8aa <g_346>
    d963:	48 89 85 a0 fd ff ff 	mov    %rax,-0x260(%rbp)
    d96a:	48 8d 05 ef c6 00 00 	lea    0xc6ef(%rip),%rax        # 1a060 <g_137>
    d971:	48 89 85 a8 fd ff ff 	mov    %rax,-0x258(%rbp)
    d978:	48 c7 85 b0 fd ff ff 	movq   $0x0,-0x250(%rbp)
    d97f:	00 00 00 00 
    d983:	48 c7 85 b8 fd ff ff 	movq   $0x0,-0x248(%rbp)
    d98a:	00 00 00 00 
    d98e:	48 8d 05 cb c6 00 00 	lea    0xc6cb(%rip),%rax        # 1a060 <g_137>
    d995:	48 89 85 c0 fd ff ff 	mov    %rax,-0x240(%rbp)
    d99c:	48 8d 85 b5 ef ff ff 	lea    -0x104b(%rbp),%rax
    d9a3:	48 89 85 c8 fd ff ff 	mov    %rax,-0x238(%rbp)
    d9aa:	48 c7 85 d0 fd ff ff 	movq   $0x0,-0x230(%rbp)
    d9b1:	00 00 00 00 
    d9b5:	48 8d 05 d0 f5 00 00 	lea    0xf5d0(%rip),%rax        # 1cf8c <g_73>
    d9bc:	48 89 85 d8 fd ff ff 	mov    %rax,-0x228(%rbp)
    d9c3:	48 8d 85 b8 f1 ff ff 	lea    -0xe48(%rbp),%rax
    d9ca:	48 89 85 e0 fd ff ff 	mov    %rax,-0x220(%rbp)
    d9d1:	48 8d 05 d4 ce 00 00 	lea    0xced4(%rip),%rax        # 1a8ac <g_346+0x2>
    d9d8:	48 89 85 e8 fd ff ff 	mov    %rax,-0x218(%rbp)
    d9df:	48 8d 05 c6 ce 00 00 	lea    0xcec6(%rip),%rax        # 1a8ac <g_346+0x2>
    d9e6:	48 89 85 f0 fd ff ff 	mov    %rax,-0x210(%rbp)
    d9ed:	48 c7 85 f8 fd ff ff 	movq   $0x0,-0x208(%rbp)
    d9f4:	00 00 00 00 
    d9f8:	48 8d 05 8d f5 00 00 	lea    0xf58d(%rip),%rax        # 1cf8c <g_73>
    d9ff:	48 89 85 00 fe ff ff 	mov    %rax,-0x200(%rbp)
    da06:	48 c7 85 08 fe ff ff 	movq   $0x0,-0x1f8(%rbp)
    da0d:	00 00 00 00 
    da11:	48 8d 05 94 ce 00 00 	lea    0xce94(%rip),%rax        # 1a8ac <g_346+0x2>
    da18:	48 89 85 10 fe ff ff 	mov    %rax,-0x1f0(%rbp)
    da1f:	48 c7 85 18 fe ff ff 	movq   $0x0,-0x1e8(%rbp)
    da26:	00 00 00 00 
    da2a:	48 8d 85 b5 ef ff ff 	lea    -0x104b(%rbp),%rax
    da31:	48 89 85 20 fe ff ff 	mov    %rax,-0x1e0(%rbp)
    da38:	48 c7 85 28 fe ff ff 	movq   $0x0,-0x1d8(%rbp)
    da3f:	00 00 00 00 
    da43:	48 8d 05 61 ce 00 00 	lea    0xce61(%rip),%rax        # 1a8ab <g_346+0x1>
    da4a:	48 89 85 30 fe ff ff 	mov    %rax,-0x1d0(%rbp)
    da51:	48 8d 05 53 ce 00 00 	lea    0xce53(%rip),%rax        # 1a8ab <g_346+0x1>
    da58:	48 89 85 38 fe ff ff 	mov    %rax,-0x1c8(%rbp)
    da5f:	48 8d 05 46 ce 00 00 	lea    0xce46(%rip),%rax        # 1a8ac <g_346+0x2>
    da66:	48 89 85 40 fe ff ff 	mov    %rax,-0x1c0(%rbp)
    da6d:	48 8d 85 b5 ef ff ff 	lea    -0x104b(%rbp),%rax
    da74:	48 89 85 48 fe ff ff 	mov    %rax,-0x1b8(%rbp)
    da7b:	48 8d 05 0a f5 00 00 	lea    0xf50a(%rip),%rax        # 1cf8c <g_73>
    da82:	48 89 85 50 fe ff ff 	mov    %rax,-0x1b0(%rbp)
    da89:	48 8d 05 1c ce 00 00 	lea    0xce1c(%rip),%rax        # 1a8ac <g_346+0x2>
    da90:	48 89 85 58 fe ff ff 	mov    %rax,-0x1a8(%rbp)
    da97:	48 8d 05 ee f4 00 00 	lea    0xf4ee(%rip),%rax        # 1cf8c <g_73>
    da9e:	48 89 85 60 fe ff ff 	mov    %rax,-0x1a0(%rbp)
    daa5:	48 c7 85 68 fe ff ff 	movq   $0x0,-0x198(%rbp)
    daac:	00 00 00 00 
    dab0:	48 8d 05 f5 cd 00 00 	lea    0xcdf5(%rip),%rax        # 1a8ac <g_346+0x2>
    dab7:	48 89 85 70 fe ff ff 	mov    %rax,-0x190(%rbp)
    dabe:	48 8d 85 b5 ef ff ff 	lea    -0x104b(%rbp),%rax
    dac5:	48 89 85 78 fe ff ff 	mov    %rax,-0x188(%rbp)
    dacc:	48 8d 85 b5 ef ff ff 	lea    -0x104b(%rbp),%rax
    dad3:	48 89 85 80 fe ff ff 	mov    %rax,-0x180(%rbp)
    dada:	48 c7 85 88 fe ff ff 	movq   $0x0,-0x178(%rbp)
    dae1:	00 00 00 00 
    dae5:	48 8d 05 74 c5 00 00 	lea    0xc574(%rip),%rax        # 1a060 <g_137>
    daec:	48 89 85 90 fe ff ff 	mov    %rax,-0x170(%rbp)
    daf3:	48 8d 05 b2 cd 00 00 	lea    0xcdb2(%rip),%rax        # 1a8ac <g_346+0x2>
    dafa:	48 89 85 98 fe ff ff 	mov    %rax,-0x168(%rbp)
    db01:	48 8d 05 a4 cd 00 00 	lea    0xcda4(%rip),%rax        # 1a8ac <g_346+0x2>
    db08:	48 89 85 a0 fe ff ff 	mov    %rax,-0x160(%rbp)
    db0f:	48 8d 05 95 cd 00 00 	lea    0xcd95(%rip),%rax        # 1a8ab <g_346+0x1>
    db16:	48 89 85 a8 fe ff ff 	mov    %rax,-0x158(%rbp)
    db1d:	48 8d 85 b5 ef ff ff 	lea    -0x104b(%rbp),%rax
    db24:	48 89 85 b0 fe ff ff 	mov    %rax,-0x150(%rbp)
    db2b:	48 8d 85 b5 ef ff ff 	lea    -0x104b(%rbp),%rax
    db32:	48 89 85 b8 fe ff ff 	mov    %rax,-0x148(%rbp)
    db39:	48 8d 05 6c cd 00 00 	lea    0xcd6c(%rip),%rax        # 1a8ac <g_346+0x2>
    db40:	48 89 85 c0 fe ff ff 	mov    %rax,-0x140(%rbp)
    db47:	48 c7 85 c8 fe ff ff 	movq   $0x0,-0x138(%rbp)
    db4e:	00 00 00 00 
    db52:	48 8d 05 53 cd 00 00 	lea    0xcd53(%rip),%rax        # 1a8ac <g_346+0x2>
    db59:	48 89 85 d0 fe ff ff 	mov    %rax,-0x130(%rbp)
    db60:	48 8d 05 45 cd 00 00 	lea    0xcd45(%rip),%rax        # 1a8ac <g_346+0x2>
    db67:	48 89 85 d8 fe ff ff 	mov    %rax,-0x128(%rbp)
    db6e:	48 c7 85 e0 fe ff ff 	movq   $0x0,-0x120(%rbp)
    db75:	00 00 00 00 
    db79:	48 8d 05 2c cd 00 00 	lea    0xcd2c(%rip),%rax        # 1a8ac <g_346+0x2>
    db80:	48 89 85 e8 fe ff ff 	mov    %rax,-0x118(%rbp)
    db87:	48 8d 85 b5 ef ff ff 	lea    -0x104b(%rbp),%rax
    db8e:	48 89 85 f0 fe ff ff 	mov    %rax,-0x110(%rbp)
    db95:	48 8d 85 b8 f1 ff ff 	lea    -0xe48(%rbp),%rax
    db9c:	48 89 85 f8 fe ff ff 	mov    %rax,-0x108(%rbp)
    dba3:	48 8d 85 b5 ef ff ff 	lea    -0x104b(%rbp),%rax
    dbaa:	48 89 85 00 ff ff ff 	mov    %rax,-0x100(%rbp)
    dbb1:	48 8d 05 f4 cc 00 00 	lea    0xccf4(%rip),%rax        # 1a8ac <g_346+0x2>
    dbb8:	48 89 85 08 ff ff ff 	mov    %rax,-0xf8(%rbp)
    dbbf:	48 8d 05 e4 cc 00 00 	lea    0xcce4(%rip),%rax        # 1a8aa <g_346>
    dbc6:	48 89 85 10 ff ff ff 	mov    %rax,-0xf0(%rbp)
    dbcd:	48 8d 85 b5 ef ff ff 	lea    -0x104b(%rbp),%rax
    dbd4:	48 89 85 18 ff ff ff 	mov    %rax,-0xe8(%rbp)
    dbdb:	48 8d 05 ca cc 00 00 	lea    0xccca(%rip),%rax        # 1a8ac <g_346+0x2>
    dbe2:	48 89 85 20 ff ff ff 	mov    %rax,-0xe0(%rbp)
    dbe9:	48 8d 85 b5 ef ff ff 	lea    -0x104b(%rbp),%rax
    dbf0:	48 89 85 28 ff ff ff 	mov    %rax,-0xd8(%rbp)
    dbf7:	48 8d 85 b5 ef ff ff 	lea    -0x104b(%rbp),%rax
    dbfe:	48 89 85 30 ff ff ff 	mov    %rax,-0xd0(%rbp)
    dc05:	48 8d 85 b5 ef ff ff 	lea    -0x104b(%rbp),%rax
    dc0c:	48 89 85 38 ff ff ff 	mov    %rax,-0xc8(%rbp)
    dc13:	48 c7 85 40 ff ff ff 	movq   $0x0,-0xc0(%rbp)
    dc1a:	00 00 00 00 
    dc1e:	48 8d 05 87 cc 00 00 	lea    0xcc87(%rip),%rax        # 1a8ac <g_346+0x2>
    dc25:	48 89 85 48 ff ff ff 	mov    %rax,-0xb8(%rbp)
    dc2c:	48 8d 85 b5 ef ff ff 	lea    -0x104b(%rbp),%rax
    dc33:	48 89 85 50 ff ff ff 	mov    %rax,-0xb0(%rbp)
    dc3a:	48 8d 05 6b cc 00 00 	lea    0xcc6b(%rip),%rax        # 1a8ac <g_346+0x2>
    dc41:	48 89 85 58 ff ff ff 	mov    %rax,-0xa8(%rbp)
    dc48:	48 8d 05 3d f3 00 00 	lea    0xf33d(%rip),%rax        # 1cf8c <g_73>
    dc4f:	48 89 85 60 ff ff ff 	mov    %rax,-0xa0(%rbp)
    dc56:	48 c7 85 68 ff ff ff 	movq   $0x0,-0x98(%rbp)
    dc5d:	00 00 00 00 
    dc61:	48 c7 85 70 ff ff ff 	movq   $0x0,-0x90(%rbp)
    dc68:	00 00 00 00 
    dc6c:	48 8d 05 ed c3 00 00 	lea    0xc3ed(%rip),%rax        # 1a060 <g_137>
    dc73:	48 89 85 78 ff ff ff 	mov    %rax,-0x88(%rbp)
    dc7a:	48 8d 05 2a cc 00 00 	lea    0xcc2a(%rip),%rax        # 1a8ab <g_346+0x1>
    dc81:	48 89 45 80          	mov    %rax,-0x80(%rbp)
    dc85:	48 8d 85 b5 ef ff ff 	lea    -0x104b(%rbp),%rax
    dc8c:	48 89 45 88          	mov    %rax,-0x78(%rbp)
    dc90:	48 c7 45 90 00 00 00 	movq   $0x0,-0x70(%rbp)
    dc97:	00 
    dc98:	48 c7 45 98 00 00 00 	movq   $0x0,-0x68(%rbp)
    dc9f:	00 
    dca0:	48 8d 05 03 cc 00 00 	lea    0xcc03(%rip),%rax        # 1a8aa <g_346>
    dca7:	48 89 45 a0          	mov    %rax,-0x60(%rbp)
    dcab:	48 c7 45 a8 00 00 00 	movq   $0x0,-0x58(%rbp)
    dcb2:	00 
    dcb3:	48 8d 05 f1 cb 00 00 	lea    0xcbf1(%rip),%rax        # 1a8ab <g_346+0x1>
    dcba:	48 89 45 b0          	mov    %rax,-0x50(%rbp)
    dcbe:	48 8d 05 c7 f2 00 00 	lea    0xf2c7(%rip),%rax        # 1cf8c <g_73>
    dcc5:	48 89 45 b8          	mov    %rax,-0x48(%rbp)
    dcc9:	c7 85 d0 f0 ff ff ff 	movl   $0xffffffff,-0xf30(%rbp)
    dcd0:	ff ff ff 
    dcd3:	c7 85 e8 ef ff ff 00 	movl   $0x0,-0x1018(%rbp)
    dcda:	00 00 00 
    dcdd:	90                   	nop
    dcde:	8b 85 e8 ef ff ff    	mov    -0x1018(%rbp),%eax
    dce4:	85 c0                	test   %eax,%eax
    dce6:	78 5a                	js     dd42 <func_42+0x4eea>
    dce8:	c6 85 c0 ef ff ff f8 	movb   $0xf8,-0x1040(%rbp)
    dcef:	c7 85 d4 f0 ff ff aa 	movl   $0xcf78bdaa,-0xf2c(%rbp)
    dcf6:	bd 78 cf 
    dcf9:	83 85 80 f0 ff ff 01 	addl   $0x1,-0xf80(%rbp)
    dd00:	8b 85 d4 f0 ff ff    	mov    -0xf2c(%rbp),%eax
    dd06:	89 c6                	mov    %eax,%esi
    dd08:	bf 48 29 00 00       	mov    $0x2948,%edi
    dd0d:	e8 36 81 ff ff       	callq  5e48 <safe_rshift_func_uint16_t_u_s>
    dd12:	89 c2                	mov    %eax,%edx
    dd14:	48 8b 05 95 e4 00 00 	mov    0xe495(%rip),%rax        # 1c1b0 <g_1717>
    dd1b:	48 8b 00             	mov    (%rax),%rax
    dd1e:	48 8b 00             	mov    (%rax),%rax
    dd21:	0f b7 d2             	movzwl %dx,%edx
    dd24:	89 10                	mov    %edx,(%rax)
    dd26:	8b 05 0c d5 00 00    	mov    0xd50c(%rip),%eax        # 1b238 <g_2356+0x8>
    dd2c:	25 ff ff ff 03       	and    $0x3ffffff,%eax
    dd31:	85 c0                	test   %eax,%eax
    dd33:	75 10                	jne    dd45 <func_42+0x4eed>
    dd35:	48 0f be 85 c0 ef ff 	movsbq -0x1040(%rbp),%rax
    dd3c:	ff 
    dd3d:	e9 d4 08 00 00       	jmpq   e616 <func_42+0x57be>
    dd42:	90                   	nop
    dd43:	eb 01                	jmp    dd46 <func_42+0x4eee>
    dd45:	90                   	nop
    dd46:	83 bd cc f0 ff ff 00 	cmpl   $0x0,-0xf34(%rbp)
    dd4d:	74 70                	je     ddbf <func_42+0x4f67>
    dd4f:	81 bd cc f0 ff ff af 	cmpl   $0xaf,-0xf34(%rbp)
    dd56:	00 00 00 
    dd59:	0f 94 c0             	sete   %al
    dd5c:	0f b6 c0             	movzbl %al,%eax
    dd5f:	48 8b 15 4a e3 00 00 	mov    0xe34a(%rip),%rdx        # 1c0b0 <g_1312>
    dd66:	0f b7 12             	movzwl (%rdx),%edx
    dd69:	0f b7 ca             	movzwl %dx,%ecx
    dd6c:	48 8b 15 dd e3 00 00 	mov    0xe3dd(%rip),%rdx        # 1c150 <g_1371>
    dd73:	48 8b 12             	mov    (%rdx),%rdx
    dd76:	48 8b 12             	mov    (%rdx),%rdx
    dd79:	48 8b 12             	mov    (%rdx),%rdx
    dd7c:	48 85 d2             	test   %rdx,%rdx
    dd7f:	74 16                	je     dd97 <func_42+0x4f3f>
    dd81:	48 8b 15 10 e4 00 00 	mov    0xe410(%rip),%rdx        # 1c198 <g_1570>
    dd88:	48 8b 12             	mov    (%rdx),%rdx
    dd8b:	48 85 d2             	test   %rdx,%rdx
    dd8e:	74 07                	je     dd97 <func_42+0x4f3f>
    dd90:	ba 01 00 00 00       	mov    $0x1,%edx
    dd95:	eb 05                	jmp    dd9c <func_42+0x4f44>
    dd97:	ba 00 00 00 00       	mov    $0x0,%edx
    dd9c:	21 ca                	and    %ecx,%edx
    dd9e:	21 95 6c f0 ff ff    	and    %edx,-0xf94(%rbp)
    dda4:	8b 95 6c f0 ff ff    	mov    -0xf94(%rbp),%edx
    ddaa:	89 95 d0 f0 ff ff    	mov    %edx,-0xf30(%rbp)
    ddb0:	39 85 d0 f0 ff ff    	cmp    %eax,-0xf30(%rbp)
    ddb6:	7d 07                	jge    ddbf <func_42+0x4f67>
    ddb8:	ba 01 00 00 00       	mov    $0x1,%edx
    ddbd:	eb 05                	jmp    ddc4 <func_42+0x4f6c>
    ddbf:	ba 00 00 00 00       	mov    $0x0,%edx
    ddc4:	48 8b 05 1d e4 00 00 	mov    0xe41d(%rip),%rax        # 1c1e8 <g_1715>
    ddcb:	48 8b 00             	mov    (%rax),%rax
    ddce:	48 8b 00             	mov    (%rax),%rax
    ddd1:	48 8b 00             	mov    (%rax),%rax
    ddd4:	48 8b 00             	mov    (%rax),%rax
    ddd7:	89 10                	mov    %edx,(%rax)
    ddd9:	81 b5 6c f0 ff ff 91 	xorl   $0x2fdd4c91,-0xf94(%rbp)
    dde0:	4c dd 2f 
    dde3:	eb 3c                	jmp    de21 <func_42+0x4fc9>
    dde5:	48 8b 05 c4 e3 00 00 	mov    0xe3c4(%rip),%rax        # 1c1b0 <g_1717>
    ddec:	48 8b 10             	mov    (%rax),%rdx
    ddef:	48 8b 05 b2 e3 00 00 	mov    0xe3b2(%rip),%rax        # 1c1a8 <g_1718>
    ddf6:	48 8b 12             	mov    (%rdx),%rdx
    ddf9:	48 89 10             	mov    %rdx,(%rax)
    ddfc:	c7 05 9a ca 00 00 e9 	movl   $0xffffffe9,0xca9a(%rip)        # 1a8a0 <g_246>
    de03:	ff ff ff 
    de06:	90                   	nop
    de07:	8b 05 93 ca 00 00    	mov    0xca93(%rip),%eax        # 1a8a0 <g_246>
    de0d:	83 f8 0e             	cmp    $0xe,%eax
    de10:	76 0f                	jbe    de21 <func_42+0x4fc9>
    de12:	0f b6 85 b8 f1 ff ff 	movzbl -0xe48(%rbp),%eax
    de19:	0f b6 c0             	movzbl %al,%eax
    de1c:	e9 f5 07 00 00       	jmpq   e616 <func_42+0x57be>
    de21:	48 8b 05 e8 d4 00 00 	mov    0xd4e8(%rip),%rax        # 1b310 <g_2503+0x10>
    de28:	48 8b 15 e9 d4 00 00 	mov    0xd4e9(%rip),%rdx        # 1b318 <g_2503+0x18>
    de2f:	48 c7 c0 ff ff ff ff 	mov    $0xffffffffffffffff,%rax
    de36:	31 85 6c f0 ff ff    	xor    %eax,-0xf94(%rbp)
    de3c:	0f b6 85 b8 f1 ff ff 	movzbl -0xe48(%rbp),%eax
    de43:	84 c0                	test   %al,%al
    de45:	74 3d                	je     de84 <func_42+0x502c>
    de47:	66 c7 05 f0 d3 00 00 	movw   $0x0,0xd3f0(%rip)        # 1b240 <g_2365>
    de4e:	00 00 
    de50:	90                   	nop
    de51:	0f b7 05 e8 d3 00 00 	movzwl 0xd3e8(%rip),%eax        # 1b240 <g_2365>
    de58:	66 85 c0             	test   %ax,%ax
    de5b:	0f 85 03 07 00 00    	jne    e564 <func_42+0x570c>
    de61:	0f b7 05 d8 d3 00 00 	movzwl 0xd3d8(%rip),%eax        # 1b240 <g_2365>
    de68:	0f b7 c0             	movzwl %ax,%eax
    de6b:	83 c0 03             	add    $0x3,%eax
    de6e:	48 98                	cltq   
    de70:	48 8d 15 2e ca 00 00 	lea    0xca2e(%rip),%rdx        # 1a8a5 <g_345>
    de77:	0f b6 04 10          	movzbl (%rax,%rdx,1),%eax
    de7b:	48 0f be c0          	movsbq %al,%rax
    de7f:	e9 92 07 00 00       	jmpq   e616 <func_42+0x57be>
    de84:	c7 85 d8 f0 ff ff 01 	movl   $0x1,-0xf28(%rbp)
    de8b:	00 00 00 
    de8e:	c7 85 dc f0 ff ff 00 	movl   $0x0,-0xf24(%rbp)
    de95:	00 00 00 
    de98:	48 c7 85 98 f4 ff ff 	movq   $0xfffffffffffffff6,-0xb68(%rbp)
    de9f:	f6 ff ff ff 
    dea3:	c7 85 e0 f0 ff ff 01 	movl   $0x1,-0xf20(%rbp)
    deaa:	00 00 00 
    dead:	48 8d 85 20 fa ff ff 	lea    -0x5e0(%rbp),%rax
    deb4:	48 8d 15 85 78 00 00 	lea    0x7885(%rip),%rdx        # 15740 <g_1898+0x6e0>
    debb:	b9 1f 00 00 00       	mov    $0x1f,%ecx
    dec0:	48 89 c7             	mov    %rax,%rdi
    dec3:	48 89 d6             	mov    %rdx,%rsi
    dec6:	f3 48 a5             	rep movsq %ds:(%rsi),%es:(%rdi)
    dec9:	48 89 f2             	mov    %rsi,%rdx
    decc:	48 89 f8             	mov    %rdi,%rax
    decf:	8b 0a                	mov    (%rdx),%ecx
    ded1:	89 08                	mov    %ecx,(%rax)
    ded3:	48 c7 85 a0 f4 ff ff 	movq   $0xffffffffffffffff,-0xb60(%rbp)
    deda:	ff ff ff ff 
    dede:	8b 85 6c f0 ff ff    	mov    -0xf94(%rbp),%eax
    dee4:	0f b7 c0             	movzwl %ax,%eax
    dee7:	be 05 00 00 00       	mov    $0x5,%esi
    deec:	89 c7                	mov    %eax,%edi
    deee:	e8 87 7f ff ff       	callq  5e7a <safe_rshift_func_uint16_t_u_u>
    def3:	0f b7 d0             	movzwl %ax,%edx
    def6:	48 8b 85 e0 f1 ff ff 	mov    -0xe20(%rbp),%rax
    defd:	c7 00 01 00 00 00    	movl   $0x1,(%rax)
    df03:	48 8b 85 e0 f1 ff ff 	mov    -0xe20(%rbp),%rax
    df0a:	8b 00                	mov    (%rax),%eax
    df0c:	39 c2                	cmp    %eax,%edx
    df0e:	0f 96 c0             	setbe  %al
    df11:	0f b6 c0             	movzbl %al,%eax
    df14:	be 07 00 00 00       	mov    $0x7,%esi
    df19:	89 c7                	mov    %eax,%edi
    df1b:	e8 9e 7d ff ff       	callq  5cbe <safe_rshift_func_uint8_t_u_u>
    df20:	0f b6 c0             	movzbl %al,%eax
    df23:	39 85 d8 f0 ff ff    	cmp    %eax,-0xf28(%rbp)
    df29:	0f 9d c0             	setge  %al
    df2c:	0f b6 c0             	movzbl %al,%eax
    df2f:	31 85 dc f0 ff ff    	xor    %eax,-0xf24(%rbp)
    df35:	48 8b 05 14 e2 00 00 	mov    0xe214(%rip),%rax        # 1c150 <g_1371>
    df3c:	48 8b 00             	mov    (%rax),%rax
    df3f:	48 8b 00             	mov    (%rax),%rax
    df42:	48 8b 00             	mov    (%rax),%rax
    df45:	48 85 c0             	test   %rax,%rax
    df48:	75 32                	jne    df7c <func_42+0x5124>
    df4a:	8b 85 6c f0 ff ff    	mov    -0xf94(%rbp),%eax
    df50:	0f b6 d8             	movzbl %al,%ebx
    df53:	48 8b 05 8e de 00 00 	mov    0xde8e(%rip),%rax        # 1bde8 <g_537>
    df5a:	0f b6 00             	movzbl (%rax),%eax
    df5d:	0f be c0             	movsbl %al,%eax
    df60:	be 01 00 00 00       	mov    $0x1,%esi
    df65:	89 c7                	mov    %eax,%edi
    df67:	e8 82 73 ff ff       	callq  52ee <safe_lshift_func_int8_t_s_u>
    df6c:	0f b6 c0             	movzbl %al,%eax
    df6f:	89 de                	mov    %ebx,%esi
    df71:	89 c7                	mov    %eax,%edi
    df73:	e8 63 7c ff ff       	callq  5bdb <safe_div_func_uint8_t_u_u>
    df78:	84 c0                	test   %al,%al
    df7a:	74 07                	je     df83 <func_42+0x512b>
    df7c:	b8 01 00 00 00       	mov    $0x1,%eax
    df81:	eb 05                	jmp    df88 <func_42+0x5130>
    df83:	b8 00 00 00 00       	mov    $0x0,%eax
    df88:	39 85 dc f0 ff ff    	cmp    %eax,-0xf24(%rbp)
    df8e:	0f 9c c0             	setl   %al
    df91:	0f b6 c0             	movzbl %al,%eax
    df94:	33 85 d8 f0 ff ff    	xor    -0xf28(%rbp),%eax
    df9a:	48 63 d0             	movslq %eax,%rdx
    df9d:	48 8b 05 fc e0 00 00 	mov    0xe0fc(%rip),%rax        # 1c0a0 <g_991>
    dfa4:	48 8b 00             	mov    (%rax),%rax
    dfa7:	48 39 c2             	cmp    %rax,%rdx
    dfaa:	0f 9d c0             	setge  %al
    dfad:	0f b6 c0             	movzbl %al,%eax
    dfb0:	39 85 d8 f0 ff ff    	cmp    %eax,-0xf28(%rbp)
    dfb6:	7e 12                	jle    dfca <func_42+0x5172>
    dfb8:	48 8b 05 89 e1 00 00 	mov    0xe189(%rip),%rax        # 1c148 <g_1372>
    dfbf:	48 8b 00             	mov    (%rax),%rax
    dfc2:	48 8b 00             	mov    (%rax),%rax
    dfc5:	48 85 c0             	test   %rax,%rax
    dfc8:	74 07                	je     dfd1 <func_42+0x5179>
    dfca:	b8 01 00 00 00       	mov    $0x1,%eax
    dfcf:	eb 05                	jmp    dfd6 <func_42+0x517e>
    dfd1:	b8 00 00 00 00       	mov    $0x0,%eax
    dfd6:	48 98                	cltq   
    dfd8:	48 ba 79 f6 ba 45 80 	movabs $0x9fe4e48045baf679,%rdx
    dfdf:	e4 e4 9f 
    dfe2:	48 09 c2             	or     %rax,%rdx
    dfe5:	0f b6 85 b8 f1 ff ff 	movzbl -0xe48(%rbp),%eax
    dfec:	0f b6 c0             	movzbl %al,%eax
    dfef:	48 39 c2             	cmp    %rax,%rdx
    dff2:	74 0f                	je     e003 <func_42+0x51ab>
    dff4:	0f b6 85 b8 f1 ff ff 	movzbl -0xe48(%rbp),%eax
    dffb:	0f b6 c0             	movzbl %al,%eax
    dffe:	e9 13 06 00 00       	jmpq   e616 <func_42+0x57be>
    e003:	c6 85 c1 ef ff ff 4a 	movb   $0x4a,-0x103f(%rbp)
    e00a:	48 8d 85 c8 ef ff ff 	lea    -0x1038(%rbp),%rax
    e011:	48 89 85 a8 f4 ff ff 	mov    %rax,-0xb58(%rbp)
    e018:	c7 85 20 f8 ff ff 48 	movl   $0xf8b43348,-0x7e0(%rbp)
    e01f:	33 b4 f8 
    e022:	c7 85 24 f8 ff ff fb 	movl   $0xfffffffb,-0x7dc(%rbp)
    e029:	ff ff ff 
    e02c:	c7 85 28 f8 ff ff fb 	movl   $0xfffffffb,-0x7d8(%rbp)
    e033:	ff ff ff 
    e036:	c7 85 2c f8 ff ff 48 	movl   $0xf8b43348,-0x7d4(%rbp)
    e03d:	33 b4 f8 
    e040:	c7 85 30 f8 ff ff ea 	movl   $0x48e04dea,-0x7d0(%rbp)
    e047:	4d e0 48 
    e04a:	c7 85 34 f8 ff ff 48 	movl   $0xf8b43348,-0x7cc(%rbp)
    e051:	33 b4 f8 
    e054:	c7 85 38 f8 ff ff fb 	movl   $0xfffffffb,-0x7c8(%rbp)
    e05b:	ff ff ff 
    e05e:	c7 85 3c f8 ff ff fb 	movl   $0xfffffffb,-0x7c4(%rbp)
    e065:	ff ff ff 
    e068:	c7 85 40 f8 ff ff 48 	movl   $0xf8b43348,-0x7c0(%rbp)
    e06f:	33 b4 f8 
    e072:	c7 85 44 f8 ff ff ea 	movl   $0x48e04dea,-0x7bc(%rbp)
    e079:	4d e0 48 
    e07c:	c7 85 48 f8 ff ff 48 	movl   $0xf8b43348,-0x7b8(%rbp)
    e083:	33 b4 f8 
    e086:	c7 85 4c f8 ff ff fb 	movl   $0xfffffffb,-0x7b4(%rbp)
    e08d:	ff ff ff 
    e090:	c7 85 50 f8 ff ff fb 	movl   $0xfffffffb,-0x7b0(%rbp)
    e097:	ff ff ff 
    e09a:	c7 85 54 f8 ff ff 48 	movl   $0xf8b43348,-0x7ac(%rbp)
    e0a1:	33 b4 f8 
    e0a4:	c7 85 58 f8 ff ff ea 	movl   $0x48e04dea,-0x7a8(%rbp)
    e0ab:	4d e0 48 
    e0ae:	c7 85 5c f8 ff ff 48 	movl   $0xf8b43348,-0x7a4(%rbp)
    e0b5:	33 b4 f8 
    e0b8:	c7 85 70 f0 ff ff 00 	movl   $0x0,-0xf90(%rbp)
    e0bf:	00 00 00 
    e0c2:	eb 1e                	jmp    e0e2 <func_42+0x528a>
    e0c4:	8b 85 70 f0 ff ff    	mov    -0xf90(%rbp),%eax
    e0ca:	48 98                	cltq   
    e0cc:	48 8d 95 3c f5 ff ff 	lea    -0xac4(%rbp),%rdx
    e0d3:	48 89 94 c5 20 f9 ff 	mov    %rdx,-0x6e0(%rbp,%rax,8)
    e0da:	ff 
    e0db:	83 85 70 f0 ff ff 01 	addl   $0x1,-0xf90(%rbp)
    e0e2:	83 bd 70 f0 ff ff 08 	cmpl   $0x8,-0xf90(%rbp)
    e0e9:	7e d9                	jle    e0c4 <func_42+0x526c>
    e0eb:	8b 85 d8 f0 ff ff    	mov    -0xf28(%rbp),%eax
    e0f1:	3b 85 6c f0 ff ff    	cmp    -0xf94(%rbp),%eax
    e0f7:	75 1f                	jne    e118 <func_42+0x52c0>
    e0f9:	48 8d 85 a8 ef ff ff 	lea    -0x1058(%rbp),%rax
    e100:	48 89 85 90 f4 ff ff 	mov    %rax,-0xb70(%rbp)
    e107:	48 8b 05 62 e0 00 00 	mov    0xe062(%rip),%rax        # 1c170 <g_1446>
    e10e:	48 8b 00             	mov    (%rax),%rax
    e111:	48 39 85 90 f4 ff ff 	cmp    %rax,-0xb70(%rbp)
    e118:	48 8b 05 89 df 00 00 	mov    0xdf89(%rip),%rax        # 1c0a8 <g_990>
    e11f:	48 8b 00             	mov    (%rax),%rax
    e122:	48 8b 18             	mov    (%rax),%rbx
    e125:	8b 85 dc f0 ff ff    	mov    -0xf24(%rbp),%eax
    e12b:	44 0f b7 e0          	movzwl %ax,%r12d
    e12f:	44 0f b6 ad c1 ef ff 	movzbl -0x103f(%rbp),%r13d
    e136:	ff 
    e137:	44 0f b6 b5 c1 ef ff 	movzbl -0x103f(%rbp),%r14d
    e13e:	ff 
    e13f:	0f b6 85 b8 f1 ff ff 	movzbl -0xe48(%rbp),%eax
    e146:	0f b6 d0             	movzbl %al,%edx
    e149:	0f b6 85 c1 ef ff ff 	movzbl -0x103f(%rbp),%eax
    e150:	89 d6                	mov    %edx,%esi
    e152:	89 c7                	mov    %eax,%edi
    e154:	e8 55 7a ff ff       	callq  5bae <safe_mod_func_uint8_t_u_u>
    e159:	3c af                	cmp    $0xaf,%al
    e15b:	8b 95 dc f0 ff ff    	mov    -0xf24(%rbp),%edx
    e161:	48 8b 85 e0 f1 ff ff 	mov    -0xe20(%rbp),%rax
    e168:	89 10                	mov    %edx,(%rax)
    e16a:	48 8b 85 e0 f1 ff ff 	mov    -0xe20(%rbp),%rax
    e171:	8b 00                	mov    (%rax),%eax
    e173:	3d 0d f7 19 79       	cmp    $0x7919f70d,%eax
    e178:	0f 97 c0             	seta   %al
    e17b:	0f b6 c0             	movzbl %al,%eax
    e17e:	be 02 00 00 00       	mov    $0x2,%esi
    e183:	89 c7                	mov    %eax,%edi
    e185:	e8 c2 7a ff ff       	callq  5c4c <safe_lshift_func_uint8_t_u_u>
    e18a:	0f b6 c0             	movzbl %al,%eax
    e18d:	44 89 f6             	mov    %r14d,%esi
    e190:	89 c7                	mov    %eax,%edi
    e192:	e8 a6 7b ff ff       	callq  5d3d <safe_mul_func_uint16_t_u_u>
    e197:	0f b6 c0             	movzbl %al,%eax
    e19a:	44 89 ee             	mov    %r13d,%esi
    e19d:	89 c7                	mov    %eax,%edi
    e19f:	e8 a8 7a ff ff       	callq  5c4c <safe_lshift_func_uint8_t_u_u>
    e1a4:	83 bd d8 f0 ff ff 00 	cmpl   $0x0,-0xf28(%rbp)
    e1ab:	7e 0b                	jle    e1b8 <func_42+0x5360>
    e1ad:	0f b6 85 b8 f1 ff ff 	movzbl -0xe48(%rbp),%eax
    e1b4:	84 c0                	test   %al,%al
    e1b6:	74 07                	je     e1bf <func_42+0x5367>
    e1b8:	b8 01 00 00 00       	mov    $0x1,%eax
    e1bd:	eb 05                	jmp    e1c4 <func_42+0x536c>
    e1bf:	b8 00 00 00 00       	mov    $0x0,%eax
    e1c4:	89 c2                	mov    %eax,%edx
    e1c6:	48 8b 85 a8 f4 ff ff 	mov    -0xb58(%rbp),%rax
    e1cd:	66 89 10             	mov    %dx,(%rax)
    e1d0:	48 8b 85 a8 f4 ff ff 	mov    -0xb58(%rbp),%rax
    e1d7:	0f b7 00             	movzwl (%rax),%eax
    e1da:	0f bf d0             	movswl %ax,%edx
    e1dd:	0f b6 85 b8 f1 ff ff 	movzbl -0xe48(%rbp),%eax
    e1e4:	0f b6 c0             	movzbl %al,%eax
    e1e7:	39 c2                	cmp    %eax,%edx
    e1e9:	0f 9d c0             	setge  %al
    e1ec:	0f b6 c0             	movzbl %al,%eax
    e1ef:	09 85 e0 f0 ff ff    	or     %eax,-0xf20(%rbp)
    e1f5:	8b 95 e0 f0 ff ff    	mov    -0xf20(%rbp),%edx
    e1fb:	8b 85 84 fa ff ff    	mov    -0x57c(%rbp),%eax
    e201:	31 d0                	xor    %edx,%eax
    e203:	89 85 84 fa ff ff    	mov    %eax,-0x57c(%rbp)
    e209:	8b 85 84 fa ff ff    	mov    -0x57c(%rbp),%eax
    e20f:	98                   	cwtl   
    e210:	be 0a 00 00 00       	mov    $0xa,%esi
    e215:	89 c7                	mov    %eax,%edi
    e217:	e8 47 73 ff ff       	callq  5563 <safe_rshift_func_int16_t_s_u>
    e21c:	98                   	cwtl   
    e21d:	89 85 54 f8 ff ff    	mov    %eax,-0x7ac(%rbp)
    e223:	8b 85 54 f8 ff ff    	mov    -0x7ac(%rbp),%eax
    e229:	85 c0                	test   %eax,%eax
    e22b:	74 12                	je     e23f <func_42+0x53e7>
    e22d:	0f b6 85 b8 f1 ff ff 	movzbl -0xe48(%rbp),%eax
    e234:	84 c0                	test   %al,%al
    e236:	74 07                	je     e23f <func_42+0x53e7>
    e238:	b8 01 00 00 00       	mov    $0x1,%eax
    e23d:	eb 05                	jmp    e244 <func_42+0x53ec>
    e23f:	b8 00 00 00 00       	mov    $0x0,%eax
    e244:	0f b7 d0             	movzwl %ax,%edx
    e247:	8b 85 d8 f0 ff ff    	mov    -0xf28(%rbp),%eax
    e24d:	31 85 6c f0 ff ff    	xor    %eax,-0xf94(%rbp)
    e253:	8b 85 6c f0 ff ff    	mov    -0xf94(%rbp),%eax
    e259:	0f b7 c0             	movzwl %ax,%eax
    e25c:	89 d6                	mov    %edx,%esi
    e25e:	89 c7                	mov    %eax,%edi
    e260:	e8 f7 7a ff ff       	callq  5d5c <safe_mod_func_uint16_t_u_u>
    e265:	0f b7 c0             	movzwl %ax,%eax
    e268:	44 89 e6             	mov    %r12d,%esi
    e26b:	89 c7                	mov    %eax,%edi
    e26d:	e8 ea 7a ff ff       	callq  5d5c <safe_mod_func_uint16_t_u_u>
    e272:	0f b7 c8             	movzwl %ax,%ecx
    e275:	48 8b 05 34 e8 00 00 	mov    0xe834(%rip),%rax        # 1cab0 <g_2363>
    e27c:	48 8b 00             	mov    (%rax),%rax
    e27f:	0f b7 10             	movzwl (%rax),%edx
    e282:	8d 72 01             	lea    0x1(%rdx),%esi
    e285:	66 89 30             	mov    %si,(%rax)
    e288:	0f b7 c2             	movzwl %dx,%eax
    e28b:	89 ce                	mov    %ecx,%esi
    e28d:	89 c7                	mov    %eax,%edi
    e28f:	e8 6b 7a ff ff       	callq  5cff <safe_add_func_uint16_t_u_u>
    e294:	0f b7 c0             	movzwl %ax,%eax
    e297:	48 89 de             	mov    %rbx,%rsi
    e29a:	48 89 c7             	mov    %rax,%rdi
    e29d:	e8 55 77 ff ff       	callq  59f7 <safe_div_func_int64_t_s_s>
    e2a2:	48 8b 85 08 f2 ff ff 	mov    -0xdf8(%rbp),%rax
    e2a9:	48 8b 00             	mov    (%rax),%rax
    e2ac:	48 8d 95 20 f8 ff ff 	lea    -0x7e0(%rbp),%rdx
    e2b3:	48 83 c2 1c          	add    $0x1c,%rdx
    e2b7:	48 89 10             	mov    %rdx,(%rax)
    e2ba:	66 c7 05 51 c6 00 00 	movw   $0x1,0xc651(%rip)        # 1a914 <g_598>
    e2c1:	01 00 
    e2c3:	e9 8b 02 00 00       	jmpq   e553 <func_42+0x56fb>
    e2c8:	c7 85 20 f9 ff ff 74 	movl   $0xf72a4374,-0x6e0(%rbp)
    e2cf:	43 2a f7 
    e2d2:	c7 85 24 f9 ff ff 00 	movl   $0x0,-0x6dc(%rbp)
    e2d9:	00 00 00 
    e2dc:	c7 85 28 f9 ff ff ff 	movl   $0xffffffff,-0x6d8(%rbp)
    e2e3:	ff ff ff 
    e2e6:	c7 85 2c f9 ff ff ca 	movl   $0xe678fca,-0x6d4(%rbp)
    e2ed:	8f 67 0e 
    e2f0:	c7 85 30 f9 ff ff ca 	movl   $0xe678fca,-0x6d0(%rbp)
    e2f7:	8f 67 0e 
    e2fa:	c7 85 34 f9 ff ff 05 	movl   $0x6d1c905,-0x6cc(%rbp)
    e301:	c9 d1 06 
    e304:	c7 85 38 f9 ff ff ff 	movl   $0xffffffff,-0x6c8(%rbp)
    e30b:	ff ff ff 
    e30e:	c7 85 3c f9 ff ff 05 	movl   $0x6d1c905,-0x6c4(%rbp)
    e315:	c9 d1 06 
    e318:	c7 85 40 f9 ff ff 2a 	movl   $0x54106a2a,-0x6c0(%rbp)
    e31f:	6a 10 54 
    e322:	c7 85 44 f9 ff ff 00 	movl   $0x0,-0x6bc(%rbp)
    e329:	00 00 00 
    e32c:	c7 85 48 f9 ff ff 58 	movl   $0xb91fb558,-0x6b8(%rbp)
    e333:	b5 1f b9 
    e336:	c7 85 4c f9 ff ff ca 	movl   $0xe678fca,-0x6b4(%rbp)
    e33d:	8f 67 0e 
    e340:	c7 85 50 f9 ff ff 00 	movl   $0x0,-0x6b0(%rbp)
    e347:	00 00 00 
    e34a:	c7 85 54 f9 ff ff 2a 	movl   $0x54106a2a,-0x6ac(%rbp)
    e351:	6a 10 54 
    e354:	c7 85 58 f9 ff ff 05 	movl   $0x6d1c905,-0x6a8(%rbp)
    e35b:	c9 d1 06 
    e35e:	c7 85 5c f9 ff ff 00 	movl   $0x0,-0x6a4(%rbp)
    e365:	00 00 00 
    e368:	c7 85 60 f9 ff ff ff 	movl   $0xffffffff,-0x6a0(%rbp)
    e36f:	ff ff ff 
    e372:	c7 85 64 f9 ff ff ca 	movl   $0xe678fca,-0x69c(%rbp)
    e379:	8f 67 0e 
    e37c:	c7 85 68 f9 ff ff ca 	movl   $0xe678fca,-0x698(%rbp)
    e383:	8f 67 0e 
    e386:	c7 85 6c f9 ff ff ff 	movl   $0xffffffff,-0x694(%rbp)
    e38d:	ff ff ff 
    e390:	c7 85 70 f9 ff ff ff 	movl   $0xffffffff,-0x690(%rbp)
    e397:	ff ff ff 
    e39a:	c7 85 74 f9 ff ff db 	movl   $0x223e11db,-0x68c(%rbp)
    e3a1:	11 3e 22 
    e3a4:	c7 85 78 f9 ff ff 00 	movl   $0x0,-0x688(%rbp)
    e3ab:	00 00 00 
    e3ae:	c7 85 7c f9 ff ff 05 	movl   $0x6d1c905,-0x684(%rbp)
    e3b5:	c9 d1 06 
    e3b8:	c7 85 80 f9 ff ff 03 	movl   $0x3,-0x680(%rbp)
    e3bf:	00 00 00 
    e3c2:	c7 85 84 f9 ff ff ff 	movl   $0xffffffff,-0x67c(%rbp)
    e3c9:	ff ff ff 
    e3cc:	c7 85 88 f9 ff ff db 	movl   $0x223e11db,-0x678(%rbp)
    e3d3:	11 3e 22 
    e3d6:	c7 85 8c f9 ff ff 05 	movl   $0x6d1c905,-0x674(%rbp)
    e3dd:	c9 d1 06 
    e3e0:	c7 85 90 f9 ff ff 2a 	movl   $0xc04cbe2a,-0x670(%rbp)
    e3e7:	be 4c c0 
    e3ea:	c7 85 94 f9 ff ff 00 	movl   $0x0,-0x66c(%rbp)
    e3f1:	00 00 00 
    e3f4:	c7 85 98 f9 ff ff 00 	movl   $0x0,-0x668(%rbp)
    e3fb:	00 00 00 
    e3fe:	c7 85 9c f9 ff ff 2c 	movl   $0xffdfa22c,-0x664(%rbp)
    e405:	a2 df ff 
    e408:	c7 85 a0 f9 ff ff 2c 	movl   $0xffdfa22c,-0x660(%rbp)
    e40f:	a2 df ff 
    e412:	c7 85 a4 f9 ff ff 00 	movl   $0x0,-0x65c(%rbp)
    e419:	00 00 00 
    e41c:	c7 85 a8 f9 ff ff ff 	movl   $0xffffffff,-0x658(%rbp)
    e423:	ff ff ff 
    e426:	c7 85 ac f9 ff ff 74 	movl   $0xf72a4374,-0x654(%rbp)
    e42d:	43 2a f7 
    e430:	c7 85 b0 f9 ff ff ff 	movl   $0xffffffff,-0x650(%rbp)
    e437:	ff ff ff 
    e43a:	c7 85 b4 f9 ff ff 00 	movl   $0x0,-0x64c(%rbp)
    e441:	00 00 00 
    e444:	c7 85 b8 f9 ff ff 2a 	movl   $0x54106a2a,-0x648(%rbp)
    e44b:	6a 10 54 
    e44e:	c7 85 bc f9 ff ff ff 	movl   $0xffffffff,-0x644(%rbp)
    e455:	ff ff ff 
    e458:	48 8d 05 69 e6 00 00 	lea    0xe669(%rip),%rax        # 1cac8 <g_2560>
    e45f:	48 89 85 20 f8 ff ff 	mov    %rax,-0x7e0(%rbp)
    e466:	48 8d 05 5b e6 00 00 	lea    0xe65b(%rip),%rax        # 1cac8 <g_2560>
    e46d:	48 89 85 28 f8 ff ff 	mov    %rax,-0x7d8(%rbp)
    e474:	48 8d 05 4d e6 00 00 	lea    0xe64d(%rip),%rax        # 1cac8 <g_2560>
    e47b:	48 89 85 30 f8 ff ff 	mov    %rax,-0x7d0(%rbp)
    e482:	48 8d 05 3f e6 00 00 	lea    0xe63f(%rip),%rax        # 1cac8 <g_2560>
    e489:	48 89 85 38 f8 ff ff 	mov    %rax,-0x7c8(%rbp)
    e490:	48 8d 05 31 e6 00 00 	lea    0xe631(%rip),%rax        # 1cac8 <g_2560>
    e497:	48 89 85 40 f8 ff ff 	mov    %rax,-0x7c0(%rbp)
    e49e:	8b 85 6c f0 ff ff    	mov    -0xf94(%rbp),%eax
    e4a4:	0f be d8             	movsbl %al,%ebx
    e4a7:	8b 85 50 f9 ff ff    	mov    -0x6b0(%rbp),%eax
    e4ad:	0f b6 c0             	movzbl %al,%eax
    e4b0:	89 c6                	mov    %eax,%esi
    e4b2:	bf 00 00 00 00       	mov    $0x0,%edi
    e4b7:	e8 d7 76 ff ff       	callq  5b93 <safe_mul_func_uint8_t_u_u>
    e4bc:	0f b6 c0             	movzbl %al,%eax
    e4bf:	be 01 00 00 00       	mov    $0x1,%esi
    e4c4:	48 89 c7             	mov    %rax,%rdi
    e4c7:	e8 62 7b ff ff       	callq  602e <safe_add_func_uint64_t_u_u>
    e4cc:	0f be c0             	movsbl %al,%eax
    e4cf:	89 c6                	mov    %eax,%esi
    e4d1:	bf 01 00 00 00       	mov    $0x1,%edi
    e4d6:	e8 37 6d ff ff       	callq  5212 <safe_mul_func_int8_t_s_s>
    e4db:	66 98                	cbtw   
    e4dd:	0f b7 c0             	movzwl %ax,%eax
    e4e0:	be fa ff 00 00       	mov    $0xfffa,%esi
    e4e5:	89 c7                	mov    %eax,%edi
    e4e7:	e8 33 78 ff ff       	callq  5d1f <safe_sub_func_uint16_t_u_u>
    e4ec:	66 3d c4 00          	cmp    $0xc4,%ax
    e4f0:	0f 96 c0             	setbe  %al
    e4f3:	0f b6 c0             	movzbl %al,%eax
    e4f6:	89 de                	mov    %ebx,%esi
    e4f8:	89 c7                	mov    %eax,%edi
    e4fa:	e8 d5 6c ff ff       	callq  51d4 <safe_add_func_int8_t_s_s>
    e4ff:	48 8b 05 82 c9 00 00 	mov    0xc982(%rip),%rax        # 1ae88 <g_1292+0x8>
    e506:	48 8b 05 9b dc 00 00 	mov    0xdc9b(%rip),%rax        # 1c1a8 <g_1718>
    e50d:	48 8b 00             	mov    (%rax),%rax
    e510:	c7 00 00 00 00 00    	movl   $0x0,(%rax)
    e516:	48 8b 85 00 f2 ff ff 	mov    -0xe00(%rbp),%rax
    e51d:	48 8b 10             	mov    (%rax),%rdx
    e520:	48 8b 85 00 f2 ff ff 	mov    -0xe00(%rbp),%rax
    e527:	48 89 10             	mov    %rdx,(%rax)
    e52a:	48 8b 05 9f e5 00 00 	mov    0xe59f(%rip),%rax        # 1cad0 <g_2559>
    e531:	48 89 85 20 f8 ff ff 	mov    %rax,-0x7e0(%rbp)
    e538:	0f b7 05 d5 c3 00 00 	movzwl 0xc3d5(%rip),%eax        # 1a914 <g_598>
    e53f:	98                   	cwtl   
    e540:	be 08 00 00 00       	mov    $0x8,%esi
    e545:	89 c7                	mov    %eax,%edi
    e547:	e8 67 6e ff ff       	callq  53b3 <safe_add_func_int16_t_s_s>
    e54c:	66 89 05 c1 c3 00 00 	mov    %ax,0xc3c1(%rip)        # 1a914 <g_598>
    e553:	0f b7 05 ba c3 00 00 	movzwl 0xc3ba(%rip),%eax        # 1a914 <g_598>
    e55a:	66 83 f8 13          	cmp    $0x13,%ax
    e55e:	0f 8e 64 fd ff ff    	jle    e2c8 <func_42+0x5470>
    e564:	48 8b 05 2d dd 00 00 	mov    0xdd2d(%rip),%rax        # 1c298 <g_1909>
    e56b:	48 8b 00             	mov    (%rax),%rax
    e56e:	48 8b 00             	mov    (%rax),%rax
    e571:	0f b7 00             	movzwl (%rax),%eax
    e574:	98                   	cwtl   
    e575:	89 85 84 f0 ff ff    	mov    %eax,-0xf7c(%rbp)
    e57b:	8b 85 84 f0 ff ff    	mov    -0xf7c(%rbp),%eax
    e581:	21 85 88 f0 ff ff    	and    %eax,-0xf78(%rbp)
    e587:	8b 85 88 f0 ff ff    	mov    -0xf78(%rbp),%eax
    e58d:	0f b7 c0             	movzwl %ax,%eax
    e590:	89 c6                	mov    %eax,%esi
    e592:	bf 01 00 00 00       	mov    $0x1,%edi
    e597:	e8 a1 77 ff ff       	callq  5d3d <safe_mul_func_uint16_t_u_u>
    e59c:	48 8b 05 3d d8 00 00 	mov    0xd83d(%rip),%rax        # 1bde0 <g_529>
    e5a3:	48 8b 18             	mov    (%rax),%rbx
    e5a6:	48 8b 15 3b d8 00 00 	mov    0xd83b(%rip),%rdx        # 1bde8 <g_537>
    e5ad:	48 8b 85 80 f1 ff ff 	mov    -0xe80(%rbp),%rax
    e5b4:	48 8b 00             	mov    (%rax),%rax
    e5b7:	48 8b 00             	mov    (%rax),%rax
    e5ba:	48 8b 00             	mov    (%rax),%rax
    e5bd:	0f b6 12             	movzbl (%rdx),%edx
    e5c0:	88 10                	mov    %dl,(%rax)
    e5c2:	0f b6 00             	movzbl (%rax),%eax
    e5c5:	0f be c0             	movsbl %al,%eax
    e5c8:	89 c6                	mov    %eax,%esi
    e5ca:	bf 0d 00 00 00       	mov    $0xd,%edi
    e5cf:	e8 cd 6c ff ff       	callq  52a1 <safe_lshift_func_int8_t_s_s>
    e5d4:	0f be d0             	movsbl %al,%edx
    e5d7:	48 8b 85 f0 f1 ff ff 	mov    -0xe10(%rbp),%rax
    e5de:	48 8b 00             	mov    (%rax),%rax
    e5e1:	48 8d 0d e8 b1 00 00 	lea    0xb1e8(%rip),%rcx        # 197d0 <g_2286+0x50>
    e5e8:	48 39 c8             	cmp    %rcx,%rax
    e5eb:	0f 94 c0             	sete   %al
    e5ee:	0f b6 c0             	movzbl %al,%eax
    e5f1:	31 d0                	xor    %edx,%eax
    e5f3:	48 98                	cltq   
    e5f5:	48 21 c3             	and    %rax,%rbx
    e5f8:	48 89 da             	mov    %rbx,%rdx
    e5fb:	48 8b 85 18 f2 ff ff 	mov    -0xde8(%rbp),%rax
    e602:	48 31 d0             	xor    %rdx,%rax
    e605:	48 89 85 18 f2 ff ff 	mov    %rax,-0xde8(%rbp)
    e60c:	48 8b 05 e5 d7 00 00 	mov    0xd7e5(%rip),%rax        # 1bdf8 <g_600>
    e613:	48 8b 00             	mov    (%rax),%rax
    e616:	48 8b 4d c8          	mov    -0x38(%rbp),%rcx
    e61a:	64 48 33 0c 25 28 00 	xor    %fs:0x28,%rcx
    e621:	00 00 
    e623:	74 05                	je     e62a <func_42+0x57d2>
    e625:	e8 46 6a ff ff       	callq  5070 <__stack_chk_fail@plt>
    e62a:	48 81 c4 48 10 00 00 	add    $0x1048,%rsp
    e631:	5b                   	pop    %rbx
    e632:	41 5c                	pop    %r12
    e634:	41 5d                	pop    %r13
    e636:	41 5e                	pop    %r14
    e638:	41 5f                	pop    %r15
    e63a:	5d                   	pop    %rbp
    e63b:	c3                   	retq   

000000000000e63c <func_44>:
    e63c:	f3 0f 1e fa          	endbr64 
    e640:	55                   	push   %rbp
    e641:	48 89 e5             	mov    %rsp,%rbp
    e644:	41 54                	push   %r12
    e646:	53                   	push   %rbx
    e647:	48 81 ec 40 0c 00 00 	sub    $0xc40,%rsp
    e64e:	48 89 bd b8 f3 ff ff 	mov    %rdi,-0xc48(%rbp)
    e655:	64 48 8b 04 25 28 00 	mov    %fs:0x28,%rax
    e65c:	00 00 
    e65e:	48 89 45 e8          	mov    %rax,-0x18(%rbp)
    e662:	31 c0                	xor    %eax,%eax
    e664:	48 8d 05 1f e9 00 00 	lea    0xe91f(%rip),%rax        # 1cf8a <g_50>
    e66b:	48 89 85 98 f4 ff ff 	mov    %rax,-0xb68(%rbp)
    e672:	48 c7 85 d0 f4 ff ff 	movq   $0x0,-0xb30(%rbp)
    e679:	00 00 00 00 
    e67d:	48 8d 05 ac b9 00 00 	lea    0xb9ac(%rip),%rax        # 1a030 <g_48>
    e684:	48 89 85 a0 f4 ff ff 	mov    %rax,-0xb60(%rbp)
    e68b:	c6 85 c6 f3 ff ff fd 	movb   $0xfd,-0xc3a(%rbp)
    e692:	c7 85 e8 f3 ff ff 71 	movl   $0xbecde871,-0xc18(%rbp)
    e699:	e8 cd be 
    e69c:	48 c7 85 d8 f4 ff ff 	movq   $0x0,-0xb28(%rbp)
    e6a3:	00 00 00 00 
    e6a7:	48 8d 05 f2 d9 00 00 	lea    0xd9f2(%rip),%rax        # 1c0a0 <g_991>
    e6ae:	48 89 85 e0 f4 ff ff 	mov    %rax,-0xb20(%rbp)
    e6b5:	c7 85 18 f4 ff ff f8 	movl   $0xfffffff8,-0xbe8(%rbp)
    e6bc:	ff ff ff 
    e6bf:	48 8d 05 e6 c1 00 00 	lea    0xc1e6(%rip),%rax        # 1a8ac <g_346+0x2>
    e6c6:	48 89 85 a8 f4 ff ff 	mov    %rax,-0xb58(%rbp)
    e6cd:	c7 85 e0 f3 ff ff 17 	movl   $0x1258bc17,-0xc20(%rbp)
    e6d4:	bc 58 12 
    e6d7:	c7 85 1c f4 ff ff f7 	movl   $0xfffffff7,-0xbe4(%rbp)
    e6de:	ff ff ff 
    e6e1:	c6 85 c7 f3 ff ff 3a 	movb   $0x3a,-0xc39(%rbp)
    e6e8:	c6 85 c8 f3 ff ff 74 	movb   $0x74,-0xc38(%rbp)
    e6ef:	66 c7 85 ca f3 ff ff 	movw   $0x378,-0xc36(%rbp)
    e6f6:	78 03 
    e6f8:	c7 85 40 f7 ff ff ea 	movl   $0x3d13b0ea,-0x8c0(%rbp)
    e6ff:	b0 13 3d 
    e702:	c7 85 44 f7 ff ff 2b 	movl   $0x5a67522b,-0x8bc(%rbp)
    e709:	52 67 5a 
    e70c:	c7 85 48 f7 ff ff 83 	movl   $0x3c3e3083,-0x8b8(%rbp)
    e713:	30 3e 3c 
    e716:	c7 85 4c f7 ff ff 01 	movl   $0x1,-0x8b4(%rbp)
    e71d:	00 00 00 
    e720:	c7 85 50 f7 ff ff 83 	movl   $0x3c3e3083,-0x8b0(%rbp)
    e727:	30 3e 3c 
    e72a:	c7 85 54 f7 ff ff 2b 	movl   $0x5a67522b,-0x8ac(%rbp)
    e731:	52 67 5a 
    e734:	c7 85 58 f7 ff ff ea 	movl   $0x3d13b0ea,-0x8a8(%rbp)
    e73b:	b0 13 3d 
    e73e:	c7 85 5c f7 ff ff ea 	movl   $0x3d13b0ea,-0x8a4(%rbp)
    e745:	b0 13 3d 
    e748:	c7 85 60 f7 ff ff 2b 	movl   $0x5a67522b,-0x8a0(%rbp)
    e74f:	52 67 5a 
    e752:	c7 85 64 f7 ff ff 01 	movl   $0x1,-0x89c(%rbp)
    e759:	00 00 00 
    e75c:	c7 85 68 f7 ff ff 2b 	movl   $0x5a67522b,-0x898(%rbp)
    e763:	52 67 5a 
    e766:	c7 85 6c f7 ff ff 94 	movl   $0x9ee77794,-0x894(%rbp)
    e76d:	77 e7 9e 
    e770:	c7 85 70 f7 ff ff 2b 	movl   $0x5a67522b,-0x890(%rbp)
    e777:	52 67 5a 
    e77a:	c7 85 74 f7 ff ff 01 	movl   $0x1,-0x88c(%rbp)
    e781:	00 00 00 
    e784:	c7 85 78 f7 ff ff 3c 	movl   $0xca4b923c,-0x888(%rbp)
    e78b:	92 4b ca 
    e78e:	c7 85 7c f7 ff ff 3c 	movl   $0xca4b923c,-0x884(%rbp)
    e795:	92 4b ca 
    e798:	c7 85 80 f7 ff ff 01 	movl   $0x1,-0x880(%rbp)
    e79f:	00 00 00 
    e7a2:	c7 85 84 f7 ff ff 2b 	movl   $0x5a67522b,-0x87c(%rbp)
    e7a9:	52 67 5a 
    e7ac:	c7 85 88 f7 ff ff ea 	movl   $0x3d13b0ea,-0x878(%rbp)
    e7b3:	b0 13 3d 
    e7b6:	c7 85 8c f7 ff ff 83 	movl   $0x3c3e3083,-0x874(%rbp)
    e7bd:	30 3e 3c 
    e7c0:	c7 85 90 f7 ff ff ea 	movl   $0x3d13b0ea,-0x870(%rbp)
    e7c7:	b0 13 3d 
    e7ca:	c7 85 94 f7 ff ff 3c 	movl   $0xca4b923c,-0x86c(%rbp)
    e7d1:	92 4b ca 
    e7d4:	c7 85 98 f7 ff ff 94 	movl   $0x9ee77794,-0x868(%rbp)
    e7db:	77 e7 9e 
    e7de:	c7 85 9c f7 ff ff 94 	movl   $0x9ee77794,-0x864(%rbp)
    e7e5:	77 e7 9e 
    e7e8:	c7 85 a0 f7 ff ff 3c 	movl   $0xca4b923c,-0x860(%rbp)
    e7ef:	92 4b ca 
    e7f2:	c7 85 a4 f7 ff ff ea 	movl   $0x3d13b0ea,-0x85c(%rbp)
    e7f9:	b0 13 3d 
    e7fc:	c7 85 a8 f7 ff ff 83 	movl   $0x3c3e3083,-0x858(%rbp)
    e803:	30 3e 3c 
    e806:	66 c7 85 cc f3 ff ff 	movw   $0xffff,-0xc34(%rbp)
    e80d:	ff ff 
    e80f:	48 c7 85 b0 f4 ff ff 	movq   $0x0,-0xb50(%rbp)
    e816:	00 00 00 00 
    e81a:	48 8d 85 b0 f4 ff ff 	lea    -0xb50(%rbp),%rax
    e821:	48 89 85 e8 f4 ff ff 	mov    %rax,-0xb18(%rbp)
    e828:	48 8d 05 71 e7 00 00 	lea    0xe771(%rip),%rax        # 1cfa0 <g_879>
    e82f:	48 89 85 10 f6 ff ff 	mov    %rax,-0x9f0(%rbp)
    e836:	48 8d 05 63 e7 00 00 	lea    0xe763(%rip),%rax        # 1cfa0 <g_879>
    e83d:	48 89 85 18 f6 ff ff 	mov    %rax,-0x9e8(%rbp)
    e844:	48 8d 05 55 e7 00 00 	lea    0xe755(%rip),%rax        # 1cfa0 <g_879>
    e84b:	48 89 85 20 f6 ff ff 	mov    %rax,-0x9e0(%rbp)
    e852:	48 8d 05 47 e7 00 00 	lea    0xe747(%rip),%rax        # 1cfa0 <g_879>
    e859:	48 89 85 28 f6 ff ff 	mov    %rax,-0x9d8(%rbp)
    e860:	48 8d 05 39 e7 00 00 	lea    0xe739(%rip),%rax        # 1cfa0 <g_879>
    e867:	48 89 85 30 f6 ff ff 	mov    %rax,-0x9d0(%rbp)
    e86e:	48 c7 85 f0 f4 ff ff 	movq   $0xfffffffffffffffd,-0xb10(%rbp)
    e875:	fd ff ff ff 
    e879:	c7 85 20 f4 ff ff 03 	movl   $0x3,-0xbe0(%rbp)
    e880:	00 00 00 
    e883:	48 8d 05 5e d5 00 00 	lea    0xd55e(%rip),%rax        # 1bde8 <g_537>
    e88a:	48 89 85 b8 f4 ff ff 	mov    %rax,-0xb48(%rbp)
    e891:	48 8d 85 b8 f4 ff ff 	lea    -0xb48(%rbp),%rax
    e898:	48 89 85 c0 f4 ff ff 	mov    %rax,-0xb40(%rbp)
    e89f:	48 8d 85 c0 f4 ff ff 	lea    -0xb40(%rbp),%rax
    e8a6:	48 89 85 f8 f4 ff ff 	mov    %rax,-0xb08(%rbp)
    e8ad:	48 c7 45 de 00 00 00 	movq   $0x0,-0x22(%rbp)
    e8b4:	00 
    e8b5:	66 c7 45 e6 00 00    	movw   $0x0,-0x1a(%rbp)
    e8bb:	48 c7 85 00 f5 ff ff 	movq   $0x4,-0xb00(%rbp)
    e8c2:	04 00 00 00 
    e8c6:	48 c7 85 08 f5 ff ff 	movq   $0xffffffffffffffff,-0xaf8(%rbp)
    e8cd:	ff ff ff ff 
    e8d1:	48 8d 05 28 c6 00 00 	lea    0xc628(%rip),%rax        # 1af00 <g_1830>
    e8d8:	48 89 85 10 f5 ff ff 	mov    %rax,-0xaf0(%rbp)
    e8df:	48 8d 05 aa bf 00 00 	lea    0xbfaa(%rip),%rax        # 1a890 <g_220>
    e8e6:	48 89 85 18 f5 ff ff 	mov    %rax,-0xae8(%rbp)
    e8ed:	48 8d 85 70 fa ff ff 	lea    -0x590(%rbp),%rax
    e8f4:	48 8d 15 45 6f 00 00 	lea    0x6f45(%rip),%rdx        # 15840 <g_1898+0x7e0>
    e8fb:	b9 3c 00 00 00       	mov    $0x3c,%ecx
    e900:	48 89 c7             	mov    %rax,%rdi
    e903:	48 89 d6             	mov    %rdx,%rsi
    e906:	f3 48 a5             	rep movsq %ds:(%rsi),%es:(%rdi)
    e909:	c7 85 e4 f3 ff ff 00 	movl   $0x0,-0xc1c(%rbp)
    e910:	00 00 00 
    e913:	eb 43                	jmp    e958 <func_44+0x31c>
    e915:	c7 85 ec f3 ff ff 00 	movl   $0x0,-0xc14(%rbp)
    e91c:	00 00 00 
    e91f:	eb 27                	jmp    e948 <func_44+0x30c>
    e921:	8b 85 ec f3 ff ff    	mov    -0xc14(%rbp),%eax
    e927:	48 63 d0             	movslq %eax,%rdx
    e92a:	8b 85 e4 f3 ff ff    	mov    -0xc1c(%rbp),%eax
    e930:	48 98                	cltq   
    e932:	48 01 d0             	add    %rdx,%rax
    e935:	48 c7 84 c5 f0 f6 ff 	movq   $0x0,-0x910(%rbp,%rax,8)
    e93c:	ff 00 00 00 00 
    e941:	83 85 ec f3 ff ff 01 	addl   $0x1,-0xc14(%rbp)
    e948:	83 bd ec f3 ff ff 00 	cmpl   $0x0,-0xc14(%rbp)
    e94f:	7e d0                	jle    e921 <func_44+0x2e5>
    e951:	83 85 e4 f3 ff ff 01 	addl   $0x1,-0xc1c(%rbp)
    e958:	83 bd e4 f3 ff ff 08 	cmpl   $0x8,-0xc1c(%rbp)
    e95f:	7e b4                	jle    e915 <func_44+0x2d9>
    e961:	c7 85 e4 f3 ff ff 00 	movl   $0x0,-0xc1c(%rbp)
    e968:	00 00 00 
    e96b:	eb 1a                	jmp    e987 <func_44+0x34b>
    e96d:	8b 85 e4 f3 ff ff    	mov    -0xc1c(%rbp),%eax
    e973:	48 98                	cltq   
    e975:	c7 84 85 d4 f5 ff ff 	movl   $0x9,-0xa2c(%rbp,%rax,4)
    e97c:	09 00 00 00 
    e980:	83 85 e4 f3 ff ff 01 	addl   $0x1,-0xc1c(%rbp)
    e987:	83 bd e4 f3 ff ff 00 	cmpl   $0x0,-0xc1c(%rbp)
    e98e:	7e dd                	jle    e96d <func_44+0x331>
    e990:	c7 05 96 b6 00 00 00 	movl   $0x0,0xb696(%rip)        # 1a030 <g_48>
    e997:	00 00 00 
    e99a:	90                   	nop
    e99b:	8b 05 8f b6 00 00    	mov    0xb68f(%rip),%eax        # 1a030 <g_48>
    e9a1:	83 f8 03             	cmp    $0x3,%eax
    e9a4:	7f 0c                	jg     e9b2 <func_44+0x376>
    e9a6:	48 8b 85 98 f4 ff ff 	mov    -0xb68(%rbp),%rax
    e9ad:	e9 20 15 00 00       	jmpq   fed2 <func_44+0x1896>
    e9b2:	83 85 e8 f3 ff ff 01 	addl   $0x1,-0xc18(%rbp)
    e9b9:	48 8b 85 a0 f4 ff ff 	mov    -0xb60(%rbp),%rax
    e9c0:	48 39 85 d0 f4 ff ff 	cmp    %rax,-0xb30(%rbp)
    e9c7:	0f 85 b4 07 00 00    	jne    f181 <func_44+0xb45>
    e9cd:	c7 85 f0 f3 ff ff f7 	movl   $0xfffffff7,-0xc10(%rbp)
    e9d4:	ff ff ff 
    e9d7:	48 8d 05 ae e5 00 00 	lea    0xe5ae(%rip),%rax        # 1cf8c <g_73>
    e9de:	48 89 85 88 f5 ff ff 	mov    %rax,-0xa78(%rbp)
    e9e5:	c7 85 3c f4 ff ff 8e 	movl   $0xc0b86a8e,-0xbc4(%rbp)
    e9ec:	6a b8 c0 
    e9ef:	48 b8 44 dd 9b d7 90 	movabs $0x5658a590d79bdd44,%rax
    e9f6:	a5 58 56 
    e9f9:	48 89 85 90 f5 ff ff 	mov    %rax,-0xa70(%rbp)
    ea00:	c7 85 40 f4 ff ff 07 	movl   $0x7,-0xbc0(%rbp)
    ea07:	00 00 00 
    ea0a:	c7 85 f4 f3 ff ff e8 	movl   $0x9fd98be8,-0xc0c(%rbp)
    ea11:	8b d9 9f 
    ea14:	c7 85 d8 f3 ff ff 00 	movl   $0x0,-0xc28(%rbp)
    ea1b:	00 00 00 
    ea1e:	c7 85 dc f3 ff ff f9 	movl   $0xfffffff9,-0xc24(%rbp)
    ea25:	ff ff ff 
    ea28:	c7 85 44 f4 ff ff 94 	movl   $0x7c8b5894,-0xbbc(%rbp)
    ea2f:	58 8b 7c 
    ea32:	66 c7 85 b0 f7 ff ff 	movw   $0xc822,-0x850(%rbp)
    ea39:	22 c8 
    ea3b:	66 c7 85 b2 f7 ff ff 	movw   $0xc822,-0x84e(%rbp)
    ea42:	22 c8 
    ea44:	66 c7 85 b4 f7 ff ff 	movw   $0xc822,-0x84c(%rbp)
    ea4b:	22 c8 
    ea4d:	66 c7 85 b6 f7 ff ff 	movw   $0xc822,-0x84a(%rbp)
    ea54:	22 c8 
    ea56:	66 c7 85 b8 f7 ff ff 	movw   $0xc822,-0x848(%rbp)
    ea5d:	22 c8 
    ea5f:	66 c7 85 ba f7 ff ff 	movw   $0xc822,-0x846(%rbp)
    ea66:	22 c8 
    ea68:	66 c7 85 bc f7 ff ff 	movw   $0xc822,-0x844(%rbp)
    ea6f:	22 c8 
    ea71:	66 c7 85 be f7 ff ff 	movw   $0xc822,-0x842(%rbp)
    ea78:	22 c8 
    ea7a:	48 c7 85 98 f5 ff ff 	movq   $0x0,-0xa68(%rbp)
    ea81:	00 00 00 00 
    ea85:	c7 85 f8 f3 ff ff 00 	movl   $0x0,-0xc08(%rbp)
    ea8c:	00 00 00 
    ea8f:	eb 14                	jmp    eaa5 <func_44+0x469>
    ea91:	8b 85 f8 f3 ff ff    	mov    -0xc08(%rbp),%eax
    ea97:	48 98                	cltq   
    ea99:	c6 44 05 d9 01       	movb   $0x1,-0x27(%rbp,%rax,1)
    ea9e:	83 85 f8 f3 ff ff 01 	addl   $0x1,-0xc08(%rbp)
    eaa5:	83 bd f8 f3 ff ff 04 	cmpl   $0x4,-0xc08(%rbp)
    eaac:	7e e3                	jle    ea91 <func_44+0x455>
    eaae:	c7 85 f8 f3 ff ff 00 	movl   $0x0,-0xc08(%rbp)
    eab5:	00 00 00 
    eab8:	eb 1a                	jmp    ead4 <func_44+0x498>
    eaba:	8b 85 f8 f3 ff ff    	mov    -0xc08(%rbp),%eax
    eac0:	48 98                	cltq   
    eac2:	c7 84 85 b0 f6 ff ff 	movl   $0x9e20f12e,-0x950(%rbp,%rax,4)
    eac9:	2e f1 20 9e 
    eacd:	83 85 f8 f3 ff ff 01 	addl   $0x1,-0xc08(%rbp)
    ead4:	83 bd f8 f3 ff ff 00 	cmpl   $0x0,-0xc08(%rbp)
    eadb:	7e dd                	jle    eaba <func_44+0x47e>
    eadd:	c7 85 e8 f3 ff ff 00 	movl   $0x0,-0xc18(%rbp)
    eae4:	00 00 00 
    eae7:	e9 b2 01 00 00       	jmpq   ec9e <func_44+0x662>
    eaec:	48 8d 05 99 e4 00 00 	lea    0xe499(%rip),%rax        # 1cf8c <g_73>
    eaf3:	48 89 85 c0 f5 ff ff 	mov    %rax,-0xa40(%rbp)
    eafa:	c7 85 8c f4 ff ff 19 	movl   $0xf6804519,-0xb74(%rbp)
    eb01:	45 80 f6 
    eb04:	c7 85 50 fc ff ff 65 	movl   $0xc6648e65,-0x3b0(%rbp)
    eb0b:	8e 64 c6 
    eb0e:	c7 85 54 fc ff ff 65 	movl   $0xc6648e65,-0x3ac(%rbp)
    eb15:	8e 64 c6 
    eb18:	c7 85 58 fc ff ff 65 	movl   $0xc6648e65,-0x3a8(%rbp)
    eb1f:	8e 64 c6 
    eb22:	c7 85 5c fc ff ff 65 	movl   $0xc6648e65,-0x3a4(%rbp)
    eb29:	8e 64 c6 
    eb2c:	c7 85 60 fc ff ff 65 	movl   $0xc6648e65,-0x3a0(%rbp)
    eb33:	8e 64 c6 
    eb36:	c7 85 64 fc ff ff 65 	movl   $0xc6648e65,-0x39c(%rbp)
    eb3d:	8e 64 c6 
    eb40:	c7 85 68 fc ff ff 65 	movl   $0xc6648e65,-0x398(%rbp)
    eb47:	8e 64 c6 
    eb4a:	c7 85 6c fc ff ff 65 	movl   $0xc6648e65,-0x394(%rbp)
    eb51:	8e 64 c6 
    eb54:	c7 85 70 fc ff ff 65 	movl   $0xc6648e65,-0x390(%rbp)
    eb5b:	8e 64 c6 
    eb5e:	c7 85 74 fc ff ff 95 	movl   $0x6efa6095,-0x38c(%rbp)
    eb65:	60 fa 6e 
    eb68:	c7 85 78 fc ff ff f6 	movl   $0xfffffff6,-0x388(%rbp)
    eb6f:	ff ff ff 
    eb72:	c7 85 7c fc ff ff 95 	movl   $0x6efa6095,-0x384(%rbp)
    eb79:	60 fa 6e 
    eb7c:	c7 85 80 fc ff ff f6 	movl   $0xfffffff6,-0x380(%rbp)
    eb83:	ff ff ff 
    eb86:	c7 85 84 fc ff ff 95 	movl   $0x6efa6095,-0x37c(%rbp)
    eb8d:	60 fa 6e 
    eb90:	c7 85 88 fc ff ff f6 	movl   $0xfffffff6,-0x378(%rbp)
    eb97:	ff ff ff 
    eb9a:	c7 85 8c fc ff ff 95 	movl   $0x6efa6095,-0x374(%rbp)
    eba1:	60 fa 6e 
    eba4:	c7 85 90 fc ff ff f6 	movl   $0xfffffff6,-0x370(%rbp)
    ebab:	ff ff ff 
    ebae:	c7 85 94 fc ff ff 95 	movl   $0x6efa6095,-0x36c(%rbp)
    ebb5:	60 fa 6e 
    ebb8:	48 c7 85 c8 f5 ff ff 	movq   $0xfffffffffffffff9,-0xa38(%rbp)
    ebbf:	f9 ff ff ff 
    ebc3:	c7 85 90 f4 ff ff 09 	movl   $0x9,-0xb70(%rbp)
    ebca:	00 00 00 
    ebcd:	c7 85 94 f4 ff ff ff 	movl   $0xffffffff,-0xb6c(%rbp)
    ebd4:	ff ff ff 
    ebd7:	c7 85 b0 f8 ff ff f9 	movl   $0xfffffff9,-0x750(%rbp)
    ebde:	ff ff ff 
    ebe1:	c7 85 b4 f8 ff ff f9 	movl   $0xfffffff9,-0x74c(%rbp)
    ebe8:	ff ff ff 
    ebeb:	c7 85 b8 f8 ff ff f9 	movl   $0xfffffff9,-0x748(%rbp)
    ebf2:	ff ff ff 
    ebf5:	c7 85 bc f8 ff ff f9 	movl   $0xfffffff9,-0x744(%rbp)
    ebfc:	ff ff ff 
    ebff:	c7 85 c0 f8 ff ff f9 	movl   $0xfffffff9,-0x740(%rbp)
    ec06:	ff ff ff 
    ec09:	c7 85 c4 f8 ff ff f9 	movl   $0xfffffff9,-0x73c(%rbp)
    ec10:	ff ff ff 
    ec13:	c7 85 c8 f8 ff ff f9 	movl   $0xfffffff9,-0x738(%rbp)
    ec1a:	ff ff ff 
    ec1d:	c7 85 cc f8 ff ff f9 	movl   $0xfffffff9,-0x734(%rbp)
    ec24:	ff ff ff 
    ec27:	c7 85 d0 f8 ff ff f9 	movl   $0xfffffff9,-0x730(%rbp)
    ec2e:	ff ff ff 
    ec31:	c7 85 d4 f8 ff ff f9 	movl   $0xfffffff9,-0x72c(%rbp)
    ec38:	ff ff ff 
    ec3b:	83 ad f0 f3 ff ff 01 	subl   $0x1,-0xc10(%rbp)
    ec42:	c7 05 e4 b3 00 00 00 	movl   $0x0,0xb3e4(%rip)        # 1a030 <g_48>
    ec49:	00 00 00 
    ec4c:	eb 2d                	jmp    ec7b <func_44+0x63f>
    ec4e:	8b 05 dc b3 00 00    	mov    0xb3dc(%rip),%eax        # 1a030 <g_48>
    ec54:	48 98                	cltq   
    ec56:	48 8d 14 85 00 00 00 	lea    0x0(,%rax,4),%rdx
    ec5d:	00 
    ec5e:	48 8d 05 c7 b3 00 00 	lea    0xb3c7(%rip),%rax        # 1a02c <g_47>
    ec65:	c7 04 02 ff ff ff ff 	movl   $0xffffffff,(%rdx,%rax,1)
    ec6c:	8b 05 be b3 00 00    	mov    0xb3be(%rip),%eax        # 1a030 <g_48>
    ec72:	83 c0 01             	add    $0x1,%eax
    ec75:	89 05 b5 b3 00 00    	mov    %eax,0xb3b5(%rip)        # 1a030 <g_48>
    ec7b:	8b 05 af b3 00 00    	mov    0xb3af(%rip),%eax        # 1a030 <g_48>
    ec81:	85 c0                	test   %eax,%eax
    ec83:	7e c9                	jle    ec4e <func_44+0x612>
    ec85:	8b 85 e8 f3 ff ff    	mov    -0xc18(%rbp),%eax
    ec8b:	be 04 00 00 00       	mov    $0x4,%esi
    ec90:	48 89 c7             	mov    %rax,%rdi
    ec93:	e8 a9 6b ff ff       	callq  5841 <safe_add_func_int64_t_s_s>
    ec98:	89 85 e8 f3 ff ff    	mov    %eax,-0xc18(%rbp)
    ec9e:	83 bd e8 f3 ff ff 00 	cmpl   $0x0,-0xc18(%rbp)
    eca5:	0f 84 41 fe ff ff    	je     eaec <func_44+0x4b0>
    ecab:	0f b7 85 bc f7 ff ff 	movzwl -0x844(%rbp),%eax
    ecb2:	83 c0 01             	add    $0x1,%eax
    ecb5:	66 89 85 bc f7 ff ff 	mov    %ax,-0x844(%rbp)
    ecbc:	48 8b 05 45 d1 00 00 	mov    0xd145(%rip),%rax        # 1be08 <g_638>
    ecc3:	48 8b 00             	mov    (%rax),%rax
    ecc6:	8b 10                	mov    (%rax),%edx
    ecc8:	8b 05 26 c1 00 00    	mov    0xc126(%rip),%eax        # 1adf4 <g_1132>
    ecce:	09 d0                	or     %edx,%eax
    ecd0:	89 05 1e c1 00 00    	mov    %eax,0xc11e(%rip)        # 1adf4 <g_1132>
    ecd6:	0f b6 05 c7 bb 00 00 	movzbl 0xbbc7(%rip),%eax        # 1a8a4 <g_249>
    ecdd:	0f be d8             	movsbl %al,%ebx
    ece0:	48 8b 85 90 f5 ff ff 	mov    -0xa70(%rbp),%rax
    ece7:	89 c6                	mov    %eax,%esi
    ece9:	bf 00 00 00 00       	mov    $0x0,%edi
    ecee:	e8 0a 72 ff ff       	callq  5efd <safe_mod_func_uint32_t_u_u>
    ecf3:	48 8b 05 26 bc 00 00 	mov    0xbc26(%rip),%rax        # 1a920 <g_847>
    ecfa:	01 c0                	add    %eax,%eax
    ecfc:	d1 f8                	sar    %eax
    ecfe:	85 c0                	test   %eax,%eax
    ed00:	74 07                	je     ed09 <func_44+0x6cd>
    ed02:	b8 01 00 00 00       	mov    $0x1,%eax
    ed07:	eb 05                	jmp    ed0e <func_44+0x6d2>
    ed09:	b8 00 00 00 00       	mov    $0x0,%eax
    ed0e:	98                   	cwtl   
    ed0f:	89 de                	mov    %ebx,%esi
    ed11:	89 c7                	mov    %eax,%edi
    ed13:	e8 dd 66 ff ff       	callq  53f5 <safe_mul_func_int16_t_s_s>
    ed18:	48 8b 05 e9 d0 00 00 	mov    0xd0e9(%rip),%rax        # 1be08 <g_638>
    ed1f:	48 8b 00             	mov    (%rax),%rax
    ed22:	8b 00                	mov    (%rax),%eax
    ed24:	85 c0                	test   %eax,%eax
    ed26:	0f 84 ef 01 00 00    	je     ef1b <func_44+0x8df>
    ed2c:	48 8d 05 55 bb 00 00 	lea    0xbb55(%rip),%rax        # 1a888 <g_219+0x8>
    ed33:	48 89 85 b8 f5 ff ff 	mov    %rax,-0xa48(%rbp)
    ed3a:	c7 85 c8 f4 ff ff b6 	movl   $0x82c146b6,-0xb38(%rbp)
    ed41:	46 c1 82 
    ed44:	8b 85 44 f4 ff ff    	mov    -0xbbc(%rbp),%eax
    ed4a:	0f be d0             	movsbl %al,%edx
    ed4d:	48 8b 85 b8 f5 ff ff 	mov    -0xa48(%rbp),%rax
    ed54:	66 c7 00 01 00       	movw   $0x1,(%rax)
    ed59:	48 8b 05 88 d0 00 00 	mov    0xd088(%rip),%rax        # 1bde8 <g_537>
    ed60:	c6 00 fe             	movb   $0xfe,(%rax)
    ed63:	0f b6 00             	movzbl (%rax),%eax
    ed66:	0f be c0             	movsbl %al,%eax
    ed69:	89 d6                	mov    %edx,%esi
    ed6b:	89 c7                	mov    %eax,%edi
    ed6d:	e8 a0 64 ff ff       	callq  5212 <safe_mul_func_int8_t_s_s>
    ed72:	48 8b 95 a0 f4 ff ff 	mov    -0xb60(%rbp),%rdx
    ed79:	8b 0a                	mov    (%rdx),%ecx
    ed7b:	0f be d0             	movsbl %al,%edx
    ed7e:	48 8b 85 a0 f4 ff ff 	mov    -0xb60(%rbp),%rax
    ed85:	21 ca                	and    %ecx,%edx
    ed87:	89 10                	mov    %edx,(%rax)
    ed89:	66 c7 05 f8 e1 00 00 	movw   $0x8,0xe1f8(%rip)        # 1cf8a <g_50>
    ed90:	08 00 
    ed92:	e9 6e 01 00 00       	jmpq   ef05 <func_44+0x8c9>
    ed97:	c6 85 c9 f3 ff ff a6 	movb   $0xa6,-0xc37(%rbp)
    ed9e:	48 8b 05 db c0 00 00 	mov    0xc0db(%rip),%rax        # 1ae80 <g_1292>
    eda5:	48 8b 15 dc c0 00 00 	mov    0xc0dc(%rip),%rdx        # 1ae88 <g_1292+0x8>
    edac:	48 0f be 9d c9 f3 ff 	movsbq -0xc37(%rbp),%rbx
    edb3:	ff 
    edb4:	0f be 85 c9 f3 ff ff 	movsbl -0xc37(%rbp),%eax
    edbb:	be f9 ff ff ff       	mov    $0xfffffff9,%esi
    edc0:	89 c7                	mov    %eax,%edi
    edc2:	e8 a3 64 ff ff       	callq  526a <safe_div_func_int8_t_s_s>
    edc7:	44 0f be e0          	movsbl %al,%r12d
    edcb:	8b 85 c8 f4 ff ff    	mov    -0xb38(%rbp),%eax
    edd1:	09 85 f4 f3 ff ff    	or     %eax,-0xc0c(%rbp)
    edd7:	83 bd f4 f3 ff ff 00 	cmpl   $0x0,-0xc0c(%rbp)
    edde:	74 29                	je     ee09 <func_44+0x7cd>
    ede0:	48 0f be 85 c9 f3 ff 	movsbq -0xc37(%rbp),%rax
    ede7:	ff 
    ede8:	83 e0 30             	and    $0x30,%eax
    edeb:	48 be d0 b4 3a 18 e6 	movabs $0xfcde31e6183ab4d0,%rsi
    edf2:	31 de fc 
    edf5:	48 89 c7             	mov    %rax,%rdi
    edf8:	e8 b2 72 ff ff       	callq  60af <safe_div_func_uint64_t_u_u>
    edfd:	48 85 c0             	test   %rax,%rax
    ee00:	74 07                	je     ee09 <func_44+0x7cd>
    ee02:	b8 01 00 00 00       	mov    $0x1,%eax
    ee07:	eb 05                	jmp    ee0e <func_44+0x7d2>
    ee09:	b8 00 00 00 00       	mov    $0x0,%eax
    ee0e:	98                   	cwtl   
    ee0f:	be 00 00 00 00       	mov    $0x0,%esi
    ee14:	89 c7                	mov    %eax,%edi
    ee16:	e8 b8 65 ff ff       	callq  53d3 <safe_sub_func_int16_t_s_s>
    ee1b:	8b 0d f7 ba 00 00    	mov    0xbaf7(%rip),%ecx        # 1a918 <g_634>
    ee21:	48 8b 05 c0 cf 00 00 	mov    0xcfc0(%rip),%rax        # 1bde8 <g_537>
    ee28:	0f b6 10             	movzbl (%rax),%edx
    ee2b:	48 8b 05 b6 cf 00 00 	mov    0xcfb6(%rip),%rax        # 1bde8 <g_537>
    ee32:	09 ca                	or     %ecx,%edx
    ee34:	88 10                	mov    %dl,(%rax)
    ee36:	0f b6 00             	movzbl (%rax),%eax
    ee39:	0f be c0             	movsbl %al,%eax
    ee3c:	be 00 00 00 00       	mov    $0x0,%esi
    ee41:	89 c7                	mov    %eax,%edi
    ee43:	e8 24 65 ff ff       	callq  536c <safe_rshift_func_int8_t_s_u>
    ee48:	0f be c0             	movsbl %al,%eax
    ee4b:	48 8b 15 f6 b1 00 00 	mov    0xb1f6(%rip),%rdx        # 1a048 <g_71+0x8>
    ee52:	48 c1 ea 20          	shr    $0x20,%rdx
    ee56:	81 e2 ff ff ff 3f    	and    $0x3fffffff,%edx
    ee5c:	21 c2                	and    %eax,%edx
    ee5e:	48 8b 05 6b cf 00 00 	mov    0xcf6b(%rip),%rax        # 1bdd0 <g_267>
    ee65:	8b 00                	mov    (%rax),%eax
    ee67:	21 d0                	and    %edx,%eax
    ee69:	44 09 e0             	or     %r12d,%eax
    ee6c:	85 c0                	test   %eax,%eax
    ee6e:	74 10                	je     ee80 <func_44+0x844>
    ee70:	80 bd c9 f3 ff ff 00 	cmpb   $0x0,-0xc37(%rbp)
    ee77:	74 07                	je     ee80 <func_44+0x844>
    ee79:	b8 01 00 00 00       	mov    $0x1,%eax
    ee7e:	eb 05                	jmp    ee85 <func_44+0x849>
    ee80:	b8 00 00 00 00       	mov    $0x0,%eax
    ee85:	0f be c0             	movsbl %al,%eax
    ee88:	89 c6                	mov    %eax,%esi
    ee8a:	bf 12 00 00 00       	mov    $0x12,%edi
    ee8f:	e8 9d 63 ff ff       	callq  5231 <safe_mod_func_int8_t_s_s>
    ee94:	22 85 c9 f3 ff ff    	and    -0xc37(%rbp),%al
    ee9a:	48 0f be c0          	movsbq %al,%rax
    ee9e:	48 89 de             	mov    %rbx,%rsi
    eea1:	48 89 c7             	mov    %rax,%rdi
    eea4:	e8 98 69 ff ff       	callq  5841 <safe_add_func_int64_t_s_s>
    eea9:	48 85 c0             	test   %rax,%rax
    eeac:	0f 94 c0             	sete   %al
    eeaf:	0f b6 c0             	movzbl %al,%eax
    eeb2:	48 89 c7             	mov    %rax,%rdi
    eeb5:	e8 5c 69 ff ff       	callq  5816 <safe_unary_minus_func_int64_t_s>
    eeba:	0f b6 85 c9 f3 ff ff 	movzbl -0xc37(%rbp),%eax
    eec1:	0f be d0             	movsbl %al,%edx
    eec4:	8b 05 2a bf 00 00    	mov    0xbf2a(%rip),%eax        # 1adf4 <g_1132>
    eeca:	21 d0                	and    %edx,%eax
    eecc:	89 05 22 bf 00 00    	mov    %eax,0xbf22(%rip)        # 1adf4 <g_1132>
    eed2:	48 8b 05 57 d2 00 00 	mov    0xd257(%rip),%rax        # 1c130 <g_1310>
    eed9:	48 8b 95 98 f5 ff ff 	mov    -0xa68(%rbp),%rdx
    eee0:	48 89 10             	mov    %rdx,(%rax)
    eee3:	48 8b 05 4e d2 00 00 	mov    0xd24e(%rip),%rax        # 1c138 <g_1313>
    eeea:	48 8d 95 c8 f4 ff ff 	lea    -0xb38(%rbp),%rdx
    eef1:	48 89 10             	mov    %rdx,(%rax)
    eef4:	0f b7 05 8f e0 00 00 	movzwl 0xe08f(%rip),%eax        # 1cf8a <g_50>
    eefb:	83 c0 01             	add    $0x1,%eax
    eefe:	66 89 05 85 e0 00 00 	mov    %ax,0xe085(%rip)        # 1cf8a <g_50>
    ef05:	0f b7 05 7e e0 00 00 	movzwl 0xe07e(%rip),%eax        # 1cf8a <g_50>
    ef0c:	66 83 f8 3c          	cmp    $0x3c,%ax
    ef10:	0f 84 81 fe ff ff    	je     ed97 <func_44+0x75b>
    ef16:	e9 9e 0e 00 00       	jmpq   fdb9 <func_44+0x177d>
    ef1b:	48 8d 85 dc f3 ff ff 	lea    -0xc24(%rbp),%rax
    ef22:	48 89 85 c8 f4 ff ff 	mov    %rax,-0xb38(%rbp)
    ef29:	48 8d 85 c8 f4 ff ff 	lea    -0xb38(%rbp),%rax
    ef30:	48 89 85 a0 f5 ff ff 	mov    %rax,-0xa60(%rbp)
    ef37:	c7 85 48 f4 ff ff ae 	movl   $0xcb3153ae,-0xbb8(%rbp)
    ef3e:	53 31 cb 
    ef41:	c7 85 4c f4 ff ff 70 	movl   $0x62346770,-0xbb4(%rbp)
    ef48:	67 34 62 
    ef4b:	c7 85 50 f4 ff ff f5 	movl   $0x8f8265f5,-0xbb0(%rbp)
    ef52:	65 82 8f 
    ef55:	c7 85 54 f4 ff ff ff 	movl   $0xffffffff,-0xbac(%rbp)
    ef5c:	ff ff ff 
    ef5f:	c7 85 58 f4 ff ff cb 	movl   $0xcc4714cb,-0xba8(%rbp)
    ef66:	14 47 cc 
    ef69:	c7 85 5c f4 ff ff 01 	movl   $0x1,-0xba4(%rbp)
    ef70:	00 00 00 
    ef73:	c7 85 60 f4 ff ff f6 	movl   $0xfffffff6,-0xba0(%rbp)
    ef7a:	ff ff ff 
    ef7d:	c7 85 64 f4 ff ff 00 	movl   $0x0,-0xb9c(%rbp)
    ef84:	00 00 00 
    ef87:	c7 85 68 f4 ff ff 00 	movl   $0x0,-0xb98(%rbp)
    ef8e:	00 00 00 
    ef91:	c7 85 6c f4 ff ff 02 	movl   $0x2,-0xb94(%rbp)
    ef98:	00 00 00 
    ef9b:	c7 85 70 f4 ff ff a7 	movl   $0xfa0336a7,-0xb90(%rbp)
    efa2:	36 03 fa 
    efa5:	c7 85 74 f4 ff ff ea 	movl   $0xfcfe3cea,-0xb8c(%rbp)
    efac:	3c fe fc 
    efaf:	c7 85 78 f4 ff ff fe 	movl   $0xfffffffe,-0xb88(%rbp)
    efb6:	ff ff ff 
    efb9:	c7 85 7c f4 ff ff f6 	movl   $0x8345bef6,-0xb84(%rbp)
    efc0:	be 45 83 
    efc3:	c7 85 80 f4 ff ff 50 	movl   $0x98669a50,-0xb80(%rbp)
    efca:	9a 66 98 
    efcd:	c7 85 84 f4 ff ff f8 	movl   $0xfffffff8,-0xb7c(%rbp)
    efd4:	ff ff ff 
    efd7:	c7 85 88 f4 ff ff 33 	movl   $0xaaa75933,-0xb78(%rbp)
    efde:	59 a7 aa 
    efe1:	48 c7 85 a8 f5 ff ff 	movq   $0x0,-0xa58(%rbp)
    efe8:	00 00 00 00 
    efec:	48 8d 85 a0 f4 ff ff 	lea    -0xb60(%rbp),%rax
    eff3:	48 89 85 b0 f5 ff ff 	mov    %rax,-0xa50(%rbp)
    effa:	c7 85 fc f3 ff ff 00 	movl   $0x0,-0xc04(%rbp)
    f001:	00 00 00 
    f004:	eb 1e                	jmp    f024 <func_44+0x9e8>
    f006:	8b 85 fc f3 ff ff    	mov    -0xc04(%rbp),%eax
    f00c:	48 98                	cltq   
    f00e:	48 8d 15 6b b8 00 00 	lea    0xb86b(%rip),%rdx        # 1a880 <g_219>
    f015:	48 89 94 c5 50 fc ff 	mov    %rdx,-0x3b0(%rbp,%rax,8)
    f01c:	ff 
    f01d:	83 85 fc f3 ff ff 01 	addl   $0x1,-0xc04(%rbp)
    f024:	83 bd fc f3 ff ff 05 	cmpl   $0x5,-0xc04(%rbp)
    f02b:	7e d9                	jle    f006 <func_44+0x9ca>
    f02d:	c7 85 fc f3 ff ff 00 	movl   $0x0,-0xc04(%rbp)
    f034:	00 00 00 
    f037:	eb 1a                	jmp    f053 <func_44+0xa17>
    f039:	8b 85 fc f3 ff ff    	mov    -0xc04(%rbp),%eax
    f03f:	48 98                	cltq   
    f041:	c7 84 85 b0 f8 ff ff 	movl   $0x1,-0x750(%rbp,%rax,4)
    f048:	01 00 00 00 
    f04c:	83 85 fc f3 ff ff 01 	addl   $0x1,-0xc04(%rbp)
    f053:	83 bd fc f3 ff ff 09 	cmpl   $0x9,-0xc04(%rbp)
    f05a:	7e dd                	jle    f039 <func_44+0x9fd>
    f05c:	48 8b 95 c8 f4 ff ff 	mov    -0xb38(%rbp),%rdx
    f063:	48 8b 85 a0 f5 ff ff 	mov    -0xa60(%rbp),%rax
    f06a:	48 89 10             	mov    %rdx,(%rax)
    f06d:	8b 85 d8 f3 ff ff    	mov    -0xc28(%rbp),%eax
    f073:	0f b7 d0             	movzwl %ax,%edx
    f076:	48 8b 85 c8 f4 ff ff 	mov    -0xb38(%rbp),%rax
    f07d:	8b 00                	mov    (%rax),%eax
    f07f:	0f b7 c0             	movzwl %ax,%eax
    f082:	89 d6                	mov    %edx,%esi
    f084:	89 c7                	mov    %eax,%edi
    f086:	e8 03 6d ff ff       	callq  5d8e <safe_div_func_uint16_t_u_u>
    f08b:	0f b6 c0             	movzbl %al,%eax
    f08e:	be 02 00 00 00       	mov    $0x2,%esi
    f093:	89 c7                	mov    %eax,%edi
    f095:	e8 f3 6b ff ff       	callq  5c8d <safe_rshift_func_uint8_t_u_s>
    f09a:	0f b6 c0             	movzbl %al,%eax
    f09d:	be 01 00 00 00       	mov    $0x1,%esi
    f0a2:	89 c7                	mov    %eax,%edi
    f0a4:	e8 9f 6d ff ff       	callq  5e48 <safe_rshift_func_uint16_t_u_s>
    f0a9:	0f bf d8             	movswl %ax,%ebx
    f0ac:	0f b6 45 dc          	movzbl -0x24(%rbp),%eax
    f0b0:	0f b6 d0             	movzbl %al,%edx
    f0b3:	8b 85 d8 f3 ff ff    	mov    -0xc28(%rbp),%eax
    f0b9:	0f b7 c0             	movzwl %ax,%eax
    f0bc:	89 d6                	mov    %edx,%esi
    f0be:	89 c7                	mov    %eax,%edi
    f0c0:	e8 c9 6c ff ff       	callq  5d8e <safe_div_func_uint16_t_u_u>
    f0c5:	0f b7 c0             	movzwl %ax,%eax
    f0c8:	89 85 f4 f3 ff ff    	mov    %eax,-0xc0c(%rbp)
    f0ce:	8b 85 f4 f3 ff ff    	mov    -0xc0c(%rbp),%eax
    f0d4:	98                   	cwtl   
    f0d5:	89 de                	mov    %ebx,%esi
    f0d7:	89 c7                	mov    %eax,%edi
    f0d9:	e8 77 63 ff ff       	callq  5455 <safe_div_func_int16_t_s_s>
    f0de:	66 85 c0             	test   %ax,%ax
    f0e1:	75 0b                	jne    f0ee <func_44+0xab2>
    f0e3:	48 8b 85 c8 f4 ff ff 	mov    -0xb38(%rbp),%rax
    f0ea:	8b 00                	mov    (%rax),%eax
    f0ec:	85 c0                	test   %eax,%eax
    f0ee:	b9 01 00 00 00       	mov    $0x1,%ecx
    f0f3:	48 8b 85 a0 f4 ff ff 	mov    -0xb60(%rbp),%rax
    f0fa:	8b 10                	mov    (%rax),%edx
    f0fc:	48 8b 85 a0 f4 ff ff 	mov    -0xb60(%rbp),%rax
    f103:	21 ca                	and    %ecx,%edx
    f105:	89 10                	mov    %edx,(%rax)
    f107:	83 85 88 f4 ff ff 01 	addl   $0x1,-0xb78(%rbp)
    f10e:	be 07 00 00 00       	mov    $0x7,%esi
    f113:	bf 00 00 00 00       	mov    $0x0,%edi
    f118:	e8 70 6b ff ff       	callq  5c8d <safe_rshift_func_uint8_t_u_s>
    f11d:	84 c0                	test   %al,%al
    f11f:	75 24                	jne    f145 <func_44+0xb09>
    f121:	48 8b 05 80 cf 00 00 	mov    0xcf80(%rip),%rax        # 1c0a8 <g_990>
    f128:	48 8b 00             	mov    (%rax),%rax
    f12b:	48 8b 00             	mov    (%rax),%rax
    f12e:	48 89 c6             	mov    %rax,%rsi
    f131:	48 bf 9b fa 77 24 29 	movabs $0x4e2e78292477fa9b,%rdi
    f138:	78 2e 4e 
    f13b:	e8 40 6f ff ff       	callq  6080 <safe_mod_func_uint64_t_u_u>
    f140:	48 85 c0             	test   %rax,%rax
    f143:	74 07                	je     f14c <func_44+0xb10>
    f145:	ba 01 00 00 00       	mov    $0x1,%edx
    f14a:	eb 05                	jmp    f151 <func_44+0xb15>
    f14c:	ba 00 00 00 00       	mov    $0x0,%edx
    f151:	48 8b 85 a0 f4 ff ff 	mov    -0xb60(%rbp),%rax
    f158:	89 10                	mov    %edx,(%rax)
    f15a:	48 8b 85 a0 f5 ff ff 	mov    -0xa60(%rbp),%rax
    f161:	48 c7 00 00 00 00 00 	movq   $0x0,(%rax)
    f168:	48 8b 85 a0 f5 ff ff 	mov    -0xa60(%rbp),%rax
    f16f:	48 8b 10             	mov    (%rax),%rdx
    f172:	48 8b 85 b0 f5 ff ff 	mov    -0xa50(%rbp),%rax
    f179:	48 89 10             	mov    %rdx,(%rax)
    f17c:	e9 38 0c 00 00       	jmpq   fdb9 <func_44+0x177d>
    f181:	66 c7 85 ce f3 ff ff 	movw   $0xa2ae,-0xc32(%rbp)
    f188:	ae a2 
    f18a:	c7 85 24 f4 ff ff 07 	movl   $0x7,-0xbdc(%rbp)
    f191:	00 00 00 
    f194:	c7 85 dc f3 ff ff fe 	movl   $0xfffffffe,-0xc24(%rbp)
    f19b:	ff ff ff 
    f19e:	c7 85 28 f4 ff ff 13 	movl   $0x5ce0513,-0xbd8(%rbp)
    f1a5:	05 ce 05 
    f1a8:	c7 85 2c f4 ff ff 00 	movl   $0x0,-0xbd4(%rbp)
    f1af:	00 00 00 
    f1b2:	66 c7 85 d0 f3 ff ff 	movw   $0xa11c,-0xc30(%rbp)
    f1b9:	1c a1 
    f1bb:	48 8d 05 ac ae 00 00 	lea    0xaeac(%rip),%rax        # 1a06e <g_171>
    f1c2:	48 89 85 20 f5 ff ff 	mov    %rax,-0xae0(%rbp)
    f1c9:	66 c7 85 d2 f3 ff ff 	movw   $0xff79,-0xc2e(%rbp)
    f1d0:	79 ff 
    f1d2:	48 8d 05 0f cc 00 00 	lea    0xcc0f(%rip),%rax        # 1bde8 <g_537>
    f1d9:	48 89 85 28 f5 ff ff 	mov    %rax,-0xad8(%rbp)
    f1e0:	48 c7 85 30 f5 ff ff 	movq   $0x0,-0xad0(%rbp)
    f1e7:	00 00 00 00 
    f1eb:	48 c7 85 38 f5 ff ff 	movq   $0x0,-0xac8(%rbp)
    f1f2:	00 00 00 00 
    f1f6:	48 8d 05 8b cf 00 00 	lea    0xcf8b(%rip),%rax        # 1c188 <g_1521>
    f1fd:	48 89 85 c8 f4 ff ff 	mov    %rax,-0xb38(%rbp)
    f204:	48 8d 85 c8 f4 ff ff 	lea    -0xb38(%rbp),%rax
    f20b:	48 89 85 b0 f8 ff ff 	mov    %rax,-0x750(%rbp)
    f212:	48 8d 85 c8 f4 ff ff 	lea    -0xb38(%rbp),%rax
    f219:	48 89 85 b8 f8 ff ff 	mov    %rax,-0x748(%rbp)
    f220:	48 8d 85 c8 f4 ff ff 	lea    -0xb38(%rbp),%rax
    f227:	48 89 85 c0 f8 ff ff 	mov    %rax,-0x740(%rbp)
    f22e:	48 8d 85 c8 f4 ff ff 	lea    -0xb38(%rbp),%rax
    f235:	48 89 85 c8 f8 ff ff 	mov    %rax,-0x738(%rbp)
    f23c:	48 c7 85 d0 f8 ff ff 	movq   $0x0,-0x730(%rbp)
    f243:	00 00 00 00 
    f247:	48 8d 85 c8 f4 ff ff 	lea    -0xb38(%rbp),%rax
    f24e:	48 89 85 d8 f8 ff ff 	mov    %rax,-0x728(%rbp)
    f255:	48 8d 85 c8 f4 ff ff 	lea    -0xb38(%rbp),%rax
    f25c:	48 89 85 e0 f8 ff ff 	mov    %rax,-0x720(%rbp)
    f263:	48 8d 85 c8 f4 ff ff 	lea    -0xb38(%rbp),%rax
    f26a:	48 89 85 e8 f8 ff ff 	mov    %rax,-0x718(%rbp)
    f271:	48 8d 85 c8 f4 ff ff 	lea    -0xb38(%rbp),%rax
    f278:	48 89 85 f0 f8 ff ff 	mov    %rax,-0x710(%rbp)
    f27f:	48 8d 85 c8 f4 ff ff 	lea    -0xb38(%rbp),%rax
    f286:	48 89 85 f8 f8 ff ff 	mov    %rax,-0x708(%rbp)
    f28d:	48 c7 85 00 f9 ff ff 	movq   $0x0,-0x700(%rbp)
    f294:	00 00 00 00 
    f298:	48 8d 85 c8 f4 ff ff 	lea    -0xb38(%rbp),%rax
    f29f:	48 89 85 08 f9 ff ff 	mov    %rax,-0x6f8(%rbp)
    f2a6:	48 8d 85 c8 f4 ff ff 	lea    -0xb38(%rbp),%rax
    f2ad:	48 89 85 10 f9 ff ff 	mov    %rax,-0x6f0(%rbp)
    f2b4:	48 8d 85 c8 f4 ff ff 	lea    -0xb38(%rbp),%rax
    f2bb:	48 89 85 18 f9 ff ff 	mov    %rax,-0x6e8(%rbp)
    f2c2:	48 8d 85 c8 f4 ff ff 	lea    -0xb38(%rbp),%rax
    f2c9:	48 89 85 20 f9 ff ff 	mov    %rax,-0x6e0(%rbp)
    f2d0:	48 8d 85 c8 f4 ff ff 	lea    -0xb38(%rbp),%rax
    f2d7:	48 89 85 28 f9 ff ff 	mov    %rax,-0x6d8(%rbp)
    f2de:	48 8d 85 c8 f4 ff ff 	lea    -0xb38(%rbp),%rax
    f2e5:	48 89 85 30 f9 ff ff 	mov    %rax,-0x6d0(%rbp)
    f2ec:	48 8d 85 c8 f4 ff ff 	lea    -0xb38(%rbp),%rax
    f2f3:	48 89 85 38 f9 ff ff 	mov    %rax,-0x6c8(%rbp)
    f2fa:	48 8d 85 c8 f4 ff ff 	lea    -0xb38(%rbp),%rax
    f301:	48 89 85 40 f9 ff ff 	mov    %rax,-0x6c0(%rbp)
    f308:	48 8d 85 c8 f4 ff ff 	lea    -0xb38(%rbp),%rax
    f30f:	48 89 85 48 f9 ff ff 	mov    %rax,-0x6b8(%rbp)
    f316:	48 8d 85 c8 f4 ff ff 	lea    -0xb38(%rbp),%rax
    f31d:	48 89 85 50 f9 ff ff 	mov    %rax,-0x6b0(%rbp)
    f324:	48 8d 85 c8 f4 ff ff 	lea    -0xb38(%rbp),%rax
    f32b:	48 89 85 58 f9 ff ff 	mov    %rax,-0x6a8(%rbp)
    f332:	48 8d 85 c8 f4 ff ff 	lea    -0xb38(%rbp),%rax
    f339:	48 89 85 60 f9 ff ff 	mov    %rax,-0x6a0(%rbp)
    f340:	48 8d 85 c8 f4 ff ff 	lea    -0xb38(%rbp),%rax
    f347:	48 89 85 68 f9 ff ff 	mov    %rax,-0x698(%rbp)
    f34e:	48 8d 85 c8 f4 ff ff 	lea    -0xb38(%rbp),%rax
    f355:	48 89 85 70 f9 ff ff 	mov    %rax,-0x690(%rbp)
    f35c:	48 8d 85 c8 f4 ff ff 	lea    -0xb38(%rbp),%rax
    f363:	48 89 85 78 f9 ff ff 	mov    %rax,-0x688(%rbp)
    f36a:	48 c7 85 80 f9 ff ff 	movq   $0x0,-0x680(%rbp)
    f371:	00 00 00 00 
    f375:	48 8d 85 c8 f4 ff ff 	lea    -0xb38(%rbp),%rax
    f37c:	48 89 85 88 f9 ff ff 	mov    %rax,-0x678(%rbp)
    f383:	48 8d 85 c8 f4 ff ff 	lea    -0xb38(%rbp),%rax
    f38a:	48 89 85 90 f9 ff ff 	mov    %rax,-0x670(%rbp)
    f391:	48 8d 85 c8 f4 ff ff 	lea    -0xb38(%rbp),%rax
    f398:	48 89 85 98 f9 ff ff 	mov    %rax,-0x668(%rbp)
    f39f:	48 8d 85 c8 f4 ff ff 	lea    -0xb38(%rbp),%rax
    f3a6:	48 89 85 a0 f9 ff ff 	mov    %rax,-0x660(%rbp)
    f3ad:	48 8d 85 c8 f4 ff ff 	lea    -0xb38(%rbp),%rax
    f3b4:	48 89 85 a8 f9 ff ff 	mov    %rax,-0x658(%rbp)
    f3bb:	48 c7 85 b0 f9 ff ff 	movq   $0x0,-0x650(%rbp)
    f3c2:	00 00 00 00 
    f3c6:	48 8d 85 c8 f4 ff ff 	lea    -0xb38(%rbp),%rax
    f3cd:	48 89 85 b8 f9 ff ff 	mov    %rax,-0x648(%rbp)
    f3d4:	48 8d 85 c8 f4 ff ff 	lea    -0xb38(%rbp),%rax
    f3db:	48 89 85 c0 f9 ff ff 	mov    %rax,-0x640(%rbp)
    f3e2:	48 8d 85 c8 f4 ff ff 	lea    -0xb38(%rbp),%rax
    f3e9:	48 89 85 c8 f9 ff ff 	mov    %rax,-0x638(%rbp)
    f3f0:	48 8d 85 c8 f4 ff ff 	lea    -0xb38(%rbp),%rax
    f3f7:	48 89 85 d0 f9 ff ff 	mov    %rax,-0x630(%rbp)
    f3fe:	48 8d 85 c8 f4 ff ff 	lea    -0xb38(%rbp),%rax
    f405:	48 89 85 d8 f9 ff ff 	mov    %rax,-0x628(%rbp)
    f40c:	48 8d 85 c8 f4 ff ff 	lea    -0xb38(%rbp),%rax
    f413:	48 89 85 e0 f9 ff ff 	mov    %rax,-0x620(%rbp)
    f41a:	48 8d 85 c8 f4 ff ff 	lea    -0xb38(%rbp),%rax
    f421:	48 89 85 e8 f9 ff ff 	mov    %rax,-0x618(%rbp)
    f428:	48 8d 85 c8 f4 ff ff 	lea    -0xb38(%rbp),%rax
    f42f:	48 89 85 f0 f9 ff ff 	mov    %rax,-0x610(%rbp)
    f436:	48 8d 85 c8 f4 ff ff 	lea    -0xb38(%rbp),%rax
    f43d:	48 89 85 f8 f9 ff ff 	mov    %rax,-0x608(%rbp)
    f444:	48 8d 85 c8 f4 ff ff 	lea    -0xb38(%rbp),%rax
    f44b:	48 89 85 00 fa ff ff 	mov    %rax,-0x600(%rbp)
    f452:	48 8d 85 c8 f4 ff ff 	lea    -0xb38(%rbp),%rax
    f459:	48 89 85 08 fa ff ff 	mov    %rax,-0x5f8(%rbp)
    f460:	48 8d 85 c8 f4 ff ff 	lea    -0xb38(%rbp),%rax
    f467:	48 89 85 10 fa ff ff 	mov    %rax,-0x5f0(%rbp)
    f46e:	48 8d 85 c8 f4 ff ff 	lea    -0xb38(%rbp),%rax
    f475:	48 89 85 18 fa ff ff 	mov    %rax,-0x5e8(%rbp)
    f47c:	48 8d 85 c8 f4 ff ff 	lea    -0xb38(%rbp),%rax
    f483:	48 89 85 20 fa ff ff 	mov    %rax,-0x5e0(%rbp)
    f48a:	48 8d 85 c8 f4 ff ff 	lea    -0xb38(%rbp),%rax
    f491:	48 89 85 28 fa ff ff 	mov    %rax,-0x5d8(%rbp)
    f498:	48 c7 85 30 fa ff ff 	movq   $0x0,-0x5d0(%rbp)
    f49f:	00 00 00 00 
    f4a3:	48 8d 85 c8 f4 ff ff 	lea    -0xb38(%rbp),%rax
    f4aa:	48 89 85 38 fa ff ff 	mov    %rax,-0x5c8(%rbp)
    f4b1:	48 8d 85 c8 f4 ff ff 	lea    -0xb38(%rbp),%rax
    f4b8:	48 89 85 40 fa ff ff 	mov    %rax,-0x5c0(%rbp)
    f4bf:	48 8d 85 c8 f4 ff ff 	lea    -0xb38(%rbp),%rax
    f4c6:	48 89 85 48 fa ff ff 	mov    %rax,-0x5b8(%rbp)
    f4cd:	48 8d 85 c8 f4 ff ff 	lea    -0xb38(%rbp),%rax
    f4d4:	48 89 85 50 fa ff ff 	mov    %rax,-0x5b0(%rbp)
    f4db:	48 8d 85 c8 f4 ff ff 	lea    -0xb38(%rbp),%rax
    f4e2:	48 89 85 58 fa ff ff 	mov    %rax,-0x5a8(%rbp)
    f4e9:	48 c7 85 60 fa ff ff 	movq   $0x0,-0x5a0(%rbp)
    f4f0:	00 00 00 00 
    f4f4:	48 8d 85 c8 f4 ff ff 	lea    -0xb38(%rbp),%rax
    f4fb:	48 89 85 68 fa ff ff 	mov    %rax,-0x598(%rbp)
    f502:	66 c7 85 d4 f3 ff ff 	movw   $0x0,-0xc2c(%rbp)
    f509:	00 00 
    f50b:	48 b8 81 a6 b6 e5 a1 	movabs $0xe93d5a1e5b6a681,%rax
    f512:	d5 93 0e 
    f515:	48 89 85 40 f5 ff ff 	mov    %rax,-0xac0(%rbp)
    f51c:	c6 85 d8 f3 ff ff 96 	movb   $0x96,-0xc28(%rbp)
    f523:	c7 85 00 f4 ff ff 00 	movl   $0x0,-0xc00(%rbp)
    f52a:	00 00 00 
    f52d:	eb 1a                	jmp    f549 <func_44+0xf0d>
    f52f:	8b 85 00 f4 ff ff    	mov    -0xc00(%rbp),%eax
    f535:	48 98                	cltq   
    f537:	c7 84 85 d8 f5 ff ff 	movl   $0x0,-0xa28(%rbp,%rax,4)
    f53e:	00 00 00 00 
    f542:	83 85 00 f4 ff ff 01 	addl   $0x1,-0xc00(%rbp)
    f549:	83 bd 00 f4 ff ff 00 	cmpl   $0x0,-0xc00(%rbp)
    f550:	7e dd                	jle    f52f <func_44+0xef3>
    f552:	48 8b 05 87 a7 00 00 	mov    0xa787(%rip),%rax        # 19ce0 <l_1355.4968+0x40>
    f559:	48 8d 15 bc b3 00 00 	lea    0xb3bc(%rip),%rdx        # 1a91c <g_768>
    f560:	48 39 d0             	cmp    %rdx,%rax
    f563:	0f 85 44 01 00 00    	jne    f6ad <func_44+0x1071>
    f569:	48 8b 05 40 cb 00 00 	mov    0xcb40(%rip),%rax        # 1c0b0 <g_1312>
    f570:	66 c7 00 05 00       	movw   $0x5,(%rax)
    f575:	48 8b 85 a0 f4 ff ff 	mov    -0xb60(%rbp),%rax
    f57c:	44 8b 20             	mov    (%rax),%r12d
    f57f:	0f bf 9d ce f3 ff ff 	movswl -0xc32(%rbp),%ebx
    f586:	48 8b 05 1b cb 00 00 	mov    0xcb1b(%rip),%rax        # 1c0a8 <g_990>
    f58d:	48 8b 00             	mov    (%rax),%rax
    f590:	48 8b 00             	mov    (%rax),%rax
    f593:	89 c2                	mov    %eax,%edx
    f595:	48 8b 05 4c c8 00 00 	mov    0xc84c(%rip),%rax        # 1bde8 <g_537>
    f59c:	0f b6 00             	movzbl (%rax),%eax
    f59f:	0f be c0             	movsbl %al,%eax
    f5a2:	0c e9                	or     $0xe9,%al
    f5a4:	09 d0                	or     %edx,%eax
    f5a6:	89 85 24 f4 ff ff    	mov    %eax,-0xbdc(%rbp)
    f5ac:	0f b6 05 d9 d9 00 00 	movzbl 0xd9d9(%rip),%eax        # 1cf8c <g_73>
    f5b3:	0f b6 d0             	movzbl %al,%edx
    f5b6:	48 8b 85 a0 f4 ff ff 	mov    -0xb60(%rbp),%rax
    f5bd:	8b 08                	mov    (%rax),%ecx
    f5bf:	8b 85 dc f3 ff ff    	mov    -0xc24(%rbp),%eax
    f5c5:	09 c8                	or     %ecx,%eax
    f5c7:	89 85 dc f3 ff ff    	mov    %eax,-0xc24(%rbp)
    f5cd:	8b 85 dc f3 ff ff    	mov    -0xc24(%rbp),%eax
    f5d3:	89 c1                	mov    %eax,%ecx
    f5d5:	48 8b 05 0c c8 00 00 	mov    0xc80c(%rip),%rax        # 1bde8 <g_537>
    f5dc:	0f b6 00             	movzbl (%rax),%eax
    f5df:	66 98                	cbtw   
    f5e1:	21 c8                	and    %ecx,%eax
    f5e3:	98                   	cwtl   
    f5e4:	89 d6                	mov    %edx,%esi
    f5e6:	89 c7                	mov    %eax,%edi
    f5e8:	e8 c6 5d ff ff       	callq  53b3 <safe_add_func_int16_t_s_s>
    f5ed:	98                   	cwtl   
    f5ee:	be ff ff ff ff       	mov    $0xffffffff,%esi
    f5f3:	89 c7                	mov    %eax,%edi
    f5f5:	e8 bc 5f ff ff       	callq  55b6 <safe_add_func_int32_t_s_s>
    f5fa:	48 98                	cltq   
    f5fc:	25 40 ff 00 00       	and    $0xff40,%eax
    f601:	48 85 c0             	test   %rax,%rax
    f604:	74 07                	je     f60d <func_44+0xfd1>
    f606:	ba 01 00 00 00       	mov    $0x1,%edx
    f60b:	eb 05                	jmp    f612 <func_44+0xfd6>
    f60d:	ba 00 00 00 00       	mov    $0x0,%edx
    f612:	0f bf 85 ce f3 ff ff 	movswl -0xc32(%rbp),%eax
    f619:	39 c2                	cmp    %eax,%edx
    f61b:	0f 9f c0             	setg   %al
    f61e:	0f b6 c0             	movzbl %al,%eax
    f621:	33 85 24 f4 ff ff    	xor    -0xbdc(%rbp),%eax
    f627:	89 c2                	mov    %eax,%edx
    f629:	0f bf 85 ce f3 ff ff 	movswl -0xc32(%rbp),%eax
    f630:	39 c2                	cmp    %eax,%edx
    f632:	0f 95 c0             	setne  %al
    f635:	0f b6 d0             	movzbl %al,%edx
    f638:	48 8b 85 a0 f4 ff ff 	mov    -0xb60(%rbp),%rax
    f63f:	8b 00                	mov    (%rax),%eax
    f641:	39 c2                	cmp    %eax,%edx
    f643:	48 8b 05 b6 c7 00 00 	mov    0xc7b6(%rip),%rax        # 1be00 <g_599>
    f64a:	48 8b 10             	mov    (%rax),%rdx
    f64d:	48 8b 05 ac c7 00 00 	mov    0xc7ac(%rip),%rax        # 1be00 <g_599>
    f654:	48 8b 00             	mov    (%rax),%rax
    f657:	48 39 c2             	cmp    %rax,%rdx
    f65a:	0f 94 c0             	sete   %al
    f65d:	0f b6 c0             	movzbl %al,%eax
    f660:	89 de                	mov    %ebx,%esi
    f662:	89 c7                	mov    %eax,%edi
    f664:	e8 bc 68 ff ff       	callq  5f25 <safe_div_func_uint32_t_u_u>
    f669:	0f bf 95 ce f3 ff ff 	movswl -0xc32(%rbp),%edx
    f670:	39 d0                	cmp    %edx,%eax
    f672:	0f 96 c0             	setbe  %al
    f675:	0f b6 c0             	movzbl %al,%eax
    f678:	41 39 c4             	cmp    %eax,%r12d
    f67b:	0f 9c c0             	setl   %al
    f67e:	0f b6 d0             	movzbl %al,%edx
    f681:	48 8b 05 60 b2 00 00 	mov    0xb260(%rip),%rax        # 1a8e8 <g_502+0x8>
    f688:	48 c1 e8 20          	shr    $0x20,%rax
    f68c:	25 ff ff ff 3f       	and    $0x3fffffff,%eax
    f691:	89 c1                	mov    %eax,%ecx
    f693:	48 8b 05 36 c7 00 00 	mov    0xc736(%rip),%rax        # 1bdd0 <g_267>
    f69a:	31 ca                	xor    %ecx,%edx
    f69c:	89 10                	mov    %edx,(%rax)
    f69e:	8b 10                	mov    (%rax),%edx
    f6a0:	0f bf 85 ce f3 ff ff 	movswl -0xc32(%rbp),%eax
    f6a7:	09 d0                	or     %edx,%eax
    f6a9:	85 c0                	test   %eax,%eax
    f6ab:	74 07                	je     f6b4 <func_44+0x1078>
    f6ad:	ba 01 00 00 00       	mov    $0x1,%edx
    f6b2:	eb 05                	jmp    f6b9 <func_44+0x107d>
    f6b4:	ba 00 00 00 00       	mov    $0x0,%edx
    f6b9:	8b 05 35 b7 00 00    	mov    0xb735(%rip),%eax        # 1adf4 <g_1132>
    f6bf:	31 d0                	xor    %edx,%eax
    f6c1:	89 05 2d b7 00 00    	mov    %eax,0xb72d(%rip)        # 1adf4 <g_1132>
    f6c7:	8b 05 27 b7 00 00    	mov    0xb727(%rip),%eax        # 1adf4 <g_1132>
    f6cd:	85 c0                	test   %eax,%eax
    f6cf:	0f 84 86 00 00 00    	je     f75b <func_44+0x111f>
    f6d5:	48 8d 05 18 b7 00 00 	lea    0xb718(%rip),%rax        # 1adf4 <g_1132>
    f6dc:	48 89 85 50 fc ff ff 	mov    %rax,-0x3b0(%rbp)
    f6e3:	48 8d 85 dc f3 ff ff 	lea    -0xc24(%rbp),%rax
    f6ea:	48 89 85 58 fc ff ff 	mov    %rax,-0x3a8(%rbp)
    f6f1:	48 8d 85 dc f3 ff ff 	lea    -0xc24(%rbp),%rax
    f6f8:	48 89 85 60 fc ff ff 	mov    %rax,-0x3a0(%rbp)
    f6ff:	48 8d 05 ee b6 00 00 	lea    0xb6ee(%rip),%rax        # 1adf4 <g_1132>
    f706:	48 89 85 68 fc ff ff 	mov    %rax,-0x398(%rbp)
    f70d:	48 8d 85 dc f3 ff ff 	lea    -0xc24(%rbp),%rax
    f714:	48 89 85 70 fc ff ff 	mov    %rax,-0x390(%rbp)
    f71b:	48 8d 85 dc f3 ff ff 	lea    -0xc24(%rbp),%rax
    f722:	48 89 85 78 fc ff ff 	mov    %rax,-0x388(%rbp)
    f729:	48 8d 05 c4 b6 00 00 	lea    0xb6c4(%rip),%rax        # 1adf4 <g_1132>
    f730:	48 89 85 80 fc ff ff 	mov    %rax,-0x380(%rbp)
    f737:	48 8d 85 dc f3 ff ff 	lea    -0xc24(%rbp),%rax
    f73e:	48 89 85 88 fc ff ff 	mov    %rax,-0x378(%rbp)
    f745:	48 8b 05 8c c6 00 00 	mov    0xc68c(%rip),%rax        # 1bdd8 <g_456>
    f74c:	48 8b 00             	mov    (%rax),%rax
    f74f:	48 89 85 58 fc ff ff 	mov    %rax,-0x3a8(%rbp)
    f756:	e9 5e 06 00 00       	jmpq   fdb9 <func_44+0x177d>
    f75b:	48 c7 85 48 f5 ff ff 	movq   $0x0,-0xab8(%rbp)
    f762:	00 00 00 00 
    f766:	c7 85 04 f4 ff ff ff 	movl   $0xffffffff,-0xbfc(%rbp)
    f76d:	ff ff ff 
    f770:	48 8d 85 b0 f7 ff ff 	lea    -0x850(%rbp),%rax
    f777:	48 8d 15 a2 62 00 00 	lea    0x62a2(%rip),%rdx        # 15a20 <g_1898+0x9c0>
    f77e:	b9 1f 00 00 00       	mov    $0x1f,%ecx
    f783:	48 89 c7             	mov    %rax,%rdi
    f786:	48 89 d6             	mov    %rdx,%rsi
    f789:	f3 48 a5             	rep movsq %ds:(%rsi),%es:(%rdi)
    f78c:	48 89 f2             	mov    %rsi,%rdx
    f78f:	48 89 f8             	mov    %rdi,%rax
    f792:	8b 0a                	mov    (%rdx),%ecx
    f794:	89 08                	mov    %ecx,(%rax)
    f796:	48 8d 40 04          	lea    0x4(%rax),%rax
    f79a:	48 8d 52 04          	lea    0x4(%rdx),%rdx
    f79e:	c7 85 08 f4 ff ff be 	movl   $0x78db24be,-0xbf8(%rbp)
    f7a5:	24 db 78 
    f7a8:	66 c7 85 dc f5 ff ff 	movw   $0x44a0,-0xa24(%rbp)
    f7af:	a0 44 
    f7b1:	66 c7 85 de f5 ff ff 	movw   $0x44a0,-0xa22(%rbp)
    f7b8:	a0 44 
    f7ba:	66 c7 85 e0 f5 ff ff 	movw   $0x44a0,-0xa20(%rbp)
    f7c1:	a0 44 
    f7c3:	66 c7 85 e2 f5 ff ff 	movw   $0x44a0,-0xa1e(%rbp)
    f7ca:	a0 44 
    f7cc:	66 c7 85 d6 f3 ff ff 	movw   $0xa1e5,-0xc2a(%rbp)
    f7d3:	e5 a1 
    f7d5:	48 b8 32 c0 32 01 01 	movabs $0x59932010132c032,%rax
    f7dc:	32 99 05 
    f7df:	48 89 85 40 f6 ff ff 	mov    %rax,-0x9c0(%rbp)
    f7e6:	48 b8 01 32 c0 32 01 	movabs $0xc032010132c03201,%rax
    f7ed:	01 32 c0 
    f7f0:	48 89 85 48 f6 ff ff 	mov    %rax,-0x9b8(%rbp)
    f7f7:	48 b8 01 01 32 c0 32 	movabs $0x32010132c0320101,%rax
    f7fe:	01 01 32 
    f801:	48 89 85 50 f6 ff ff 	mov    %rax,-0x9b0(%rbp)
    f808:	48 b8 05 32 32 05 99 	movabs $0x3232059905323205,%rax
    f80f:	05 32 32 
    f812:	48 89 85 58 f6 ff ff 	mov    %rax,-0x9a8(%rbp)
    f819:	48 b8 32 99 c0 c0 99 	movabs $0xc0993299c0c09932,%rax
    f820:	32 99 c0 
    f823:	48 89 85 60 f6 ff ff 	mov    %rax,-0x9a0(%rbp)
    f82a:	48 8d 05 b7 c5 00 00 	lea    0xc5b7(%rip),%rax        # 1bde8 <g_537>
    f831:	48 89 85 f0 f5 ff ff 	mov    %rax,-0xa10(%rbp)
    f838:	48 8d 05 a9 c5 00 00 	lea    0xc5a9(%rip),%rax        # 1bde8 <g_537>
    f83f:	48 89 85 f8 f5 ff ff 	mov    %rax,-0xa08(%rbp)
    f846:	48 8d 05 9b c5 00 00 	lea    0xc59b(%rip),%rax        # 1bde8 <g_537>
    f84d:	48 89 85 00 f6 ff ff 	mov    %rax,-0xa00(%rbp)
    f854:	48 8d 05 8d c5 00 00 	lea    0xc58d(%rip),%rax        # 1bde8 <g_537>
    f85b:	48 89 85 08 f6 ff ff 	mov    %rax,-0x9f8(%rbp)
    f862:	48 8d 05 67 c8 00 00 	lea    0xc867(%rip),%rax        # 1c0d0 <g_1311+0x10>
    f869:	48 89 85 50 f5 ff ff 	mov    %rax,-0xab0(%rbp)
    f870:	48 c7 85 58 f5 ff ff 	movq   $0xffffffffffffffff,-0xaa8(%rbp)
    f877:	ff ff ff ff 
    f87b:	48 c7 85 60 f5 ff ff 	movq   $0x0,-0xaa0(%rbp)
    f882:	00 00 00 00 
    f886:	48 8d 85 d8 f3 ff ff 	lea    -0xc28(%rbp),%rax
    f88d:	48 89 85 68 f5 ff ff 	mov    %rax,-0xa98(%rbp)
    f894:	c7 85 0c f4 ff ff 00 	movl   $0x0,-0xbf4(%rbp)
    f89b:	00 00 00 
    f89e:	eb 1b                	jmp    f8bb <func_44+0x127f>
    f8a0:	8b 85 0c f4 ff ff    	mov    -0xbf4(%rbp),%eax
    f8a6:	48 98                	cltq   
    f8a8:	48 c7 84 c5 70 f6 ff 	movq   $0x0,-0x990(%rbp,%rax,8)
    f8af:	ff 00 00 00 00 
    f8b4:	83 85 0c f4 ff ff 01 	addl   $0x1,-0xbf4(%rbp)
    f8bb:	83 bd 0c f4 ff ff 07 	cmpl   $0x7,-0xbf4(%rbp)
    f8c2:	7e dc                	jle    f8a0 <func_44+0x1264>
    f8c4:	66 c7 05 a1 a7 00 00 	movw   $0x0,0xa7a1(%rip)        # 1a06e <g_171>
    f8cb:	00 00 
    f8cd:	e9 c7 04 00 00       	jmpq   fd99 <func_44+0x175d>
    f8d2:	48 8d 05 d3 af 00 00 	lea    0xafd3(%rip),%rax        # 1a8ac <g_346+0x2>
    f8d9:	48 89 85 70 f5 ff ff 	mov    %rax,-0xa90(%rbp)
    f8e0:	48 8d 85 50 fc ff ff 	lea    -0x3b0(%rbp),%rax
    f8e7:	48 8d 15 32 62 00 00 	lea    0x6232(%rip),%rdx        # 15b20 <g_1898+0xac0>
    f8ee:	b9 70 00 00 00       	mov    $0x70,%ecx
    f8f3:	48 89 c7             	mov    %rax,%rdi
    f8f6:	48 89 d6             	mov    %rdx,%rsi
    f8f9:	f3 48 a5             	rep movsq %ds:(%rsi),%es:(%rdi)
    f8fc:	c6 05 5d a7 00 00 00 	movb   $0x0,0xa75d(%rip)        # 1a060 <g_137>
    f903:	e9 3c 02 00 00       	jmpq   fb44 <func_44+0x1508>
    f908:	c7 85 30 f4 ff ff 8c 	movl   $0xe675cc8c,-0xbd0(%rbp)
    f90f:	cc 75 e6 
    f912:	48 8d 85 a8 f4 ff ff 	lea    -0xb58(%rbp),%rax
    f919:	48 89 85 80 f5 ff ff 	mov    %rax,-0xa80(%rbp)
    f920:	c7 85 10 f4 ff ff 00 	movl   $0x0,-0xbf0(%rbp)
    f927:	00 00 00 
    f92a:	eb 1a                	jmp    f946 <func_44+0x130a>
    f92c:	8b 85 10 f4 ff ff    	mov    -0xbf0(%rbp),%eax
    f932:	48 98                	cltq   
    f934:	c7 84 85 b0 f6 ff ff 	movl   $0xffffffff,-0x950(%rbp,%rax,4)
    f93b:	ff ff ff ff 
    f93f:	83 85 10 f4 ff ff 01 	addl   $0x1,-0xbf0(%rbp)
    f946:	83 bd 10 f4 ff ff 03 	cmpl   $0x3,-0xbf0(%rbp)
    f94d:	7e dd                	jle    f92c <func_44+0x12f0>
    f94f:	4c 8b a5 a8 f4 ff ff 	mov    -0xb58(%rbp),%r12
    f956:	8b 85 30 f4 ff ff    	mov    -0xbd0(%rbp),%eax
    f95c:	0f bf d8             	movswl %ax,%ebx
    f95f:	48 8b 05 32 af 00 00 	mov    0xaf32(%rip),%rax        # 1a898 <g_221>
    f966:	0f b7 c0             	movzwl %ax,%eax
    f969:	25 5a d8 00 00       	and    $0xd85a,%eax
    f96e:	be 0c 00 00 00       	mov    $0xc,%esi
    f973:	89 c7                	mov    %eax,%edi
    f975:	e8 8c 64 ff ff       	callq  5e06 <safe_lshift_func_uint16_t_u_u>
    f97a:	0f b7 05 ed a6 00 00 	movzwl 0xa6ed(%rip),%eax        # 1a06e <g_171>
    f981:	0f b7 c0             	movzwl %ax,%eax
    f984:	83 c0 01             	add    $0x1,%eax
    f987:	48 98                	cltq   
    f989:	48 8d 15 98 a6 00 00 	lea    0xa698(%rip),%rdx        # 1a028 <g_46>
    f990:	0f b6 04 10          	movzbl (%rax,%rdx,1),%eax
    f994:	0f be d0             	movsbl %al,%edx
    f997:	0f bf 85 ce f3 ff ff 	movswl -0xc32(%rbp),%eax
    f99e:	39 c2                	cmp    %eax,%edx
    f9a0:	0f 9e c0             	setle  %al
    f9a3:	0f b6 d0             	movzbl %al,%edx
    f9a6:	48 8b 05 3b c4 00 00 	mov    0xc43b(%rip),%rax        # 1bde8 <g_537>
    f9ad:	0f b6 00             	movzbl (%rax),%eax
    f9b0:	0f be c0             	movsbl %al,%eax
    f9b3:	89 d6                	mov    %edx,%esi
    f9b5:	89 c7                	mov    %eax,%edi
    f9b7:	e8 e5 58 ff ff       	callq  52a1 <safe_lshift_func_int8_t_s_s>
    f9bc:	48 8b 05 ed c6 00 00 	mov    0xc6ed(%rip),%rax        # 1c0b0 <g_1312>
    f9c3:	0f b7 00             	movzwl (%rax),%eax
    f9c6:	0f b7 d0             	movzwl %ax,%edx
    f9c9:	48 8b 05 88 c7 00 00 	mov    0xc788(%rip),%rax        # 1c158 <g_1370>
    f9d0:	48 39 85 48 f5 ff ff 	cmp    %rax,-0xab8(%rbp)
    f9d7:	0f 94 c0             	sete   %al
    f9da:	0f b6 c0             	movzbl %al,%eax
    f9dd:	48 63 c8             	movslq %eax,%rcx
    f9e0:	48 8b 05 19 c4 00 00 	mov    0xc419(%rip),%rax        # 1be00 <g_599>
    f9e7:	48 8b 00             	mov    (%rax),%rax
    f9ea:	48 8b 00             	mov    (%rax),%rax
    f9ed:	48 39 c1             	cmp    %rax,%rcx
    f9f0:	0f 95 c0             	setne  %al
    f9f3:	0f b6 c0             	movzbl %al,%eax
    f9f6:	39 c2                	cmp    %eax,%edx
    f9f8:	0f 9d c0             	setge  %al
    f9fb:	0f b6 c0             	movzbl %al,%eax
    f9fe:	4c 89 e2             	mov    %r12,%rdx
    fa01:	89 de                	mov    %ebx,%esi
    fa03:	89 c7                	mov    %eax,%edi
    fa05:	e8 c9 0c 00 00       	callq  106d3 <func_87>
    fa0a:	48 8b 95 80 f5 ff ff 	mov    -0xa80(%rbp),%rdx
    fa11:	48 89 02             	mov    %rax,(%rdx)
    fa14:	48 8b 85 80 f5 ff ff 	mov    -0xa80(%rbp),%rax
    fa1b:	48 8b 00             	mov    (%rax),%rax
    fa1e:	48 39 85 70 f5 ff ff 	cmp    %rax,-0xa90(%rbp)
    fa25:	75 11                	jne    fa38 <func_44+0x13fc>
    fa27:	8b 85 14 ff ff ff    	mov    -0xec(%rbp),%eax
    fa2d:	85 c0                	test   %eax,%eax
    fa2f:	74 07                	je     fa38 <func_44+0x13fc>
    fa31:	b9 01 00 00 00       	mov    $0x1,%ecx
    fa36:	eb 05                	jmp    fa3d <func_44+0x1401>
    fa38:	b9 00 00 00 00       	mov    $0x0,%ecx
    fa3d:	48 8b 05 a4 c3 00 00 	mov    0xc3a4(%rip),%rax        # 1bde8 <g_537>
    fa44:	0f b6 00             	movzbl (%rax),%eax
    fa47:	0f be d0             	movsbl %al,%edx
    fa4a:	0f b7 05 1d a6 00 00 	movzwl 0xa61d(%rip),%eax        # 1a06e <g_171>
    fa51:	0f b7 c0             	movzwl %ax,%eax
    fa54:	21 d1                	and    %edx,%ecx
    fa56:	48 98                	cltq   
    fa58:	48 8d 14 85 00 00 00 	lea    0x0(,%rax,4),%rdx
    fa5f:	00 
    fa60:	48 8d 05 c5 a5 00 00 	lea    0xa5c5(%rip),%rax        # 1a02c <g_47>
    fa67:	89 0c 02             	mov    %ecx,(%rdx,%rax,1)
    fa6a:	c7 05 bc a5 00 00 00 	movl   $0x0,0xa5bc(%rip)        # 1a030 <g_48>
    fa71:	00 00 00 
    fa74:	e9 9c 00 00 00       	jmpq   fb15 <func_44+0x14d9>
    fa79:	c7 85 34 f4 ff ff 31 	movl   $0xdb63fa31,-0xbcc(%rbp)
    fa80:	fa 63 db 
    fa83:	c7 85 38 f4 ff ff 46 	movl   $0xab23be46,-0xbc8(%rbp)
    fa8a:	be 23 ab 
    fa8d:	c7 85 14 f4 ff ff 00 	movl   $0x0,-0xbec(%rbp)
    fa94:	00 00 00 
    fa97:	eb 1a                	jmp    fab3 <func_44+0x1477>
    fa99:	8b 85 14 f4 ff ff    	mov    -0xbec(%rbp),%eax
    fa9f:	48 98                	cltq   
    faa1:	c7 84 85 e4 f5 ff ff 	movl   $0xf2b1f40c,-0xa1c(%rbp,%rax,4)
    faa8:	0c f4 b1 f2 
    faac:	83 85 14 f4 ff ff 01 	addl   $0x1,-0xbec(%rbp)
    fab3:	83 bd 14 f4 ff ff 02 	cmpl   $0x2,-0xbec(%rbp)
    faba:	7e dd                	jle    fa99 <func_44+0x145d>
    fabc:	83 ad 08 f4 ff ff 01 	subl   $0x1,-0xbf8(%rbp)
    fac3:	48 8b 05 16 c3 00 00 	mov    0xc316(%rip),%rax        # 1bde0 <g_529>
    faca:	83 bd 34 f4 ff ff 00 	cmpl   $0x0,-0xbcc(%rbp)
    fad1:	74 14                	je     fae7 <func_44+0x14ab>
    fad3:	8b 85 30 f4 ff ff    	mov    -0xbd0(%rbp),%eax
    fad9:	be ff ff ff ff       	mov    $0xffffffff,%esi
    fade:	89 c7                	mov    %eax,%edi
    fae0:	e8 d1 5a ff ff       	callq  55b6 <safe_add_func_int32_t_s_s>
    fae5:	85 c0                	test   %eax,%eax
    fae7:	be 07 00 00 00       	mov    $0x7,%esi
    faec:	bf 03 00 00 00       	mov    $0x3,%edi
    faf1:	e8 10 63 ff ff       	callq  5e06 <safe_lshift_func_uint16_t_u_u>
    faf6:	0f b7 c0             	movzwl %ax,%eax
    faf9:	89 85 34 f4 ff ff    	mov    %eax,-0xbcc(%rbp)
    faff:	83 ad 38 f4 ff ff 01 	subl   $0x1,-0xbc8(%rbp)
    fb06:	8b 05 24 a5 00 00    	mov    0xa524(%rip),%eax        # 1a030 <g_48>
    fb0c:	83 e8 01             	sub    $0x1,%eax
    fb0f:	89 05 1b a5 00 00    	mov    %eax,0xa51b(%rip)        # 1a030 <g_48>
    fb15:	8b 05 15 a5 00 00    	mov    0xa515(%rip),%eax        # 1a030 <g_48>
    fb1b:	85 c0                	test   %eax,%eax
    fb1d:	0f 89 56 ff ff ff    	jns    fa79 <func_44+0x143d>
    fb23:	0f b7 85 dc f5 ff ff 	movzwl -0xa24(%rbp),%eax
    fb2a:	83 c0 01             	add    $0x1,%eax
    fb2d:	66 89 85 dc f5 ff ff 	mov    %ax,-0xa24(%rbp)
    fb34:	0f b6 05 25 a5 00 00 	movzbl 0xa525(%rip),%eax        # 1a060 <g_137>
    fb3b:	83 c0 01             	add    $0x1,%eax
    fb3e:	88 05 1c a5 00 00    	mov    %al,0xa51c(%rip)        # 1a060 <g_137>
    fb44:	0f b6 05 15 a5 00 00 	movzbl 0xa515(%rip),%eax        # 1a060 <g_137>
    fb4b:	84 c0                	test   %al,%al
    fb4d:	0f 84 b5 fd ff ff    	je     f908 <func_44+0x12cc>
    fb53:	8b 85 78 f8 ff ff    	mov    -0x788(%rbp),%eax
    fb59:	85 c0                	test   %eax,%eax
    fb5b:	0f 85 26 02 00 00    	jne    fd87 <func_44+0x174b>
    fb61:	c7 05 a5 ad 00 00 00 	movl   $0x0,0xada5(%rip)        # 1a910 <g_578>
    fb68:	00 00 00 
    fb6b:	e9 ff 01 00 00       	jmpq   fd6f <func_44+0x1733>
    fb70:	c6 85 c5 f3 ff ff 30 	movb   $0x30,-0xc3b(%rbp)
    fb77:	48 c7 85 b0 f6 ff ff 	movq   $0x0,-0x950(%rbp)
    fb7e:	00 00 00 00 
    fb82:	48 8d 05 07 d4 00 00 	lea    0xd407(%rip),%rax        # 1cf90 <g_457>
    fb89:	48 89 85 b8 f6 ff ff 	mov    %rax,-0x948(%rbp)
    fb90:	48 c7 85 c0 f6 ff ff 	movq   $0x0,-0x940(%rbp)
    fb97:	00 00 00 00 
    fb9b:	48 c7 85 c8 f6 ff ff 	movq   $0x0,-0x938(%rbp)
    fba2:	00 00 00 00 
    fba6:	48 8d 05 e3 d3 00 00 	lea    0xd3e3(%rip),%rax        # 1cf90 <g_457>
    fbad:	48 89 85 d0 f6 ff ff 	mov    %rax,-0x930(%rbp)
    fbb4:	48 c7 85 d8 f6 ff ff 	movq   $0x0,-0x928(%rbp)
    fbbb:	00 00 00 00 
    fbbf:	48 c7 85 e0 f6 ff ff 	movq   $0x0,-0x920(%rbp)
    fbc6:	00 00 00 00 
    fbca:	48 8d 05 bf d3 00 00 	lea    0xd3bf(%rip),%rax        # 1cf90 <g_457>
    fbd1:	48 89 85 e8 f6 ff ff 	mov    %rax,-0x918(%rbp)
    fbd8:	48 8d 85 b0 f6 ff ff 	lea    -0x950(%rbp),%rax
    fbdf:	48 83 c0 18          	add    $0x18,%rax
    fbe3:	48 89 85 78 f5 ff ff 	mov    %rax,-0xa88(%rbp)
    fbea:	c7 85 04 f4 ff ff 00 	movl   $0x0,-0xbfc(%rbp)
    fbf1:	00 00 00 
    fbf4:	e9 a7 00 00 00       	jmpq   fca0 <func_44+0x1664>
    fbf9:	0f b6 85 c5 f3 ff ff 	movzbl -0xc3b(%rbp),%eax
    fc00:	83 c0 01             	add    $0x1,%eax
    fc03:	88 85 c5 f3 ff ff    	mov    %al,-0xc3b(%rbp)
    fc09:	8b 3d 01 ad 00 00    	mov    0xad01(%rip),%edi        # 1a910 <g_578>
    fc0f:	0f b7 05 58 a4 00 00 	movzwl 0xa458(%rip),%eax        # 1a06e <g_171>
    fc16:	0f b7 c0             	movzwl %ax,%eax
    fc19:	8d 70 06             	lea    0x6(%rax),%esi
    fc1c:	0f b7 05 4b a4 00 00 	movzwl 0xa44b(%rip),%eax        # 1a06e <g_171>
    fc23:	0f b7 c0             	movzwl %ax,%eax
    fc26:	8d 48 01             	lea    0x1(%rax),%ecx
    fc29:	48 8b 05 30 c5 00 00 	mov    0xc530(%rip),%rax        # 1c160 <g_1406>
    fc30:	48 8d 95 50 fc ff ff 	lea    -0x3b0(%rbp),%rdx
    fc37:	48 63 c9             	movslq %ecx,%rcx
    fc3a:	89 ff                	mov    %edi,%edi
    fc3c:	48 c1 e7 03          	shl    $0x3,%rdi
    fc40:	48 63 f6             	movslq %esi,%rsi
    fc43:	48 01 fe             	add    %rdi,%rsi
    fc46:	48 c1 e6 02          	shl    $0x2,%rsi
    fc4a:	48 01 f1             	add    %rsi,%rcx
    fc4d:	48 c1 e1 02          	shl    $0x2,%rcx
    fc51:	48 01 ca             	add    %rcx,%rdx
    fc54:	48 89 10             	mov    %rdx,(%rax)
    fc57:	8b 15 b3 ac 00 00    	mov    0xacb3(%rip),%edx        # 1a910 <g_578>
    fc5d:	8b 05 ad ac 00 00    	mov    0xacad(%rip),%eax        # 1a910 <g_578>
    fc63:	8d 70 04             	lea    0x4(%rax),%esi
    fc66:	8b 05 a4 ac 00 00    	mov    0xaca4(%rip),%eax        # 1a910 <g_578>
    fc6c:	83 c0 02             	add    $0x2,%eax
    fc6f:	89 c1                	mov    %eax,%ecx
    fc71:	89 d0                	mov    %edx,%eax
    fc73:	89 f2                	mov    %esi,%edx
    fc75:	48 c1 e0 03          	shl    $0x3,%rax
    fc79:	48 01 d0             	add    %rdx,%rax
    fc7c:	48 c1 e0 03          	shl    $0x3,%rax
    fc80:	48 01 c8             	add    %rcx,%rax
    fc83:	48 8d 14 c5 00 00 00 	lea    0x0(,%rax,8),%rdx
    fc8a:	00 
    fc8b:	48 8d 05 ee a3 00 00 	lea    0xa3ee(%rip),%rax        # 1a080 <g_196>
    fc92:	48 8b 04 02          	mov    (%rdx,%rax,1),%rax
    fc96:	48 85 c0             	test   %rax,%rax
    fc99:	83 85 04 f4 ff ff 01 	addl   $0x1,-0xbfc(%rbp)
    fca0:	83 bd 04 f4 ff ff 04 	cmpl   $0x4,-0xbfc(%rbp)
    fca7:	0f 8e 4c ff ff ff    	jle    fbf9 <func_44+0x15bd>
    fcad:	48 8b 05 b4 c4 00 00 	mov    0xc4b4(%rip),%rax        # 1c168 <g_1407>
    fcb4:	48 8d 95 50 fc ff ff 	lea    -0x3b0(%rbp),%rdx
    fcbb:	48 81 c2 40 03 00 00 	add    $0x340,%rdx
    fcc2:	48 89 10             	mov    %rdx,(%rax)
    fcc5:	8b 95 78 f8 ff ff    	mov    -0x788(%rbp),%edx
    fccb:	48 8d 05 d6 d2 00 00 	lea    0xd2d6(%rip),%rax        # 1cfa8 <g_1020>
    fcd2:	48 39 85 78 f5 ff ff 	cmp    %rax,-0xa88(%rbp)
    fcd9:	74 07                	je     fce2 <func_44+0x16a6>
    fcdb:	b9 29 00 00 00       	mov    $0x29,%ecx
    fce0:	eb 05                	jmp    fce7 <func_44+0x16ab>
    fce2:	b9 28 00 00 00       	mov    $0x28,%ecx
    fce7:	48 8b 85 70 f5 ff ff 	mov    -0xa90(%rbp),%rax
    fcee:	88 08                	mov    %cl,(%rax)
    fcf0:	48 8b 85 70 f5 ff ff 	mov    -0xa90(%rbp),%rax
    fcf7:	0f b6 00             	movzbl (%rax),%eax
    fcfa:	0f b6 c8             	movzbl %al,%ecx
    fcfd:	0f b7 b5 d6 f3 ff ff 	movzwl -0xc2a(%rbp),%esi
    fd04:	48 8b 05 35 a3 00 00 	mov    0xa335(%rip),%rax        # 1a040 <g_71>
    fd0b:	01 c0                	add    %eax,%eax
    fd0d:	d1 f8                	sar    %eax
    fd0f:	31 f0                	xor    %esi,%eax
    fd11:	09 c8                	or     %ecx,%eax
    fd13:	21 c2                	and    %eax,%edx
    fd15:	48 8b 85 a0 f4 ff ff 	mov    -0xb60(%rbp),%rax
    fd1c:	8b 00                	mov    (%rax),%eax
    fd1e:	39 c2                	cmp    %eax,%edx
    fd20:	0f 95 c2             	setne  %dl
    fd23:	48 8b 85 a0 f4 ff ff 	mov    -0xb60(%rbp),%rax
    fd2a:	0f b6 d2             	movzbl %dl,%edx
    fd2d:	89 10                	mov    %edx,(%rax)
    fd2f:	c6 05 56 d2 00 00 00 	movb   $0x0,0xd256(%rip)        # 1cf8c <g_73>
    fd36:	eb 1d                	jmp    fd55 <func_44+0x1719>
    fd38:	48 8b 05 91 c0 00 00 	mov    0xc091(%rip),%rax        # 1bdd0 <g_267>
    fd3f:	c7 00 ff ff ff ff    	movl   $0xffffffff,(%rax)
    fd45:	0f b6 05 40 d2 00 00 	movzbl 0xd240(%rip),%eax        # 1cf8c <g_73>
    fd4c:	83 c0 01             	add    $0x1,%eax
    fd4f:	88 05 37 d2 00 00    	mov    %al,0xd237(%rip)        # 1cf8c <g_73>
    fd55:	0f b6 05 30 d2 00 00 	movzbl 0xd230(%rip),%eax        # 1cf8c <g_73>
    fd5c:	3c 04                	cmp    $0x4,%al
    fd5e:	76 d8                	jbe    fd38 <func_44+0x16fc>
    fd60:	8b 05 aa ab 00 00    	mov    0xabaa(%rip),%eax        # 1a910 <g_578>
    fd66:	83 c0 01             	add    $0x1,%eax
    fd69:	89 05 a1 ab 00 00    	mov    %eax,0xaba1(%rip)        # 1a910 <g_578>
    fd6f:	8b 05 9b ab 00 00    	mov    0xab9b(%rip),%eax        # 1a910 <g_578>
    fd75:	83 f8 03             	cmp    $0x3,%eax
    fd78:	0f 86 f2 fd ff ff    	jbe    fb70 <func_44+0x1534>
    fd7e:	83 ad e0 f3 ff ff 01 	subl   $0x1,-0xc20(%rbp)
    fd85:	eb 01                	jmp    fd88 <func_44+0x174c>
    fd87:	90                   	nop
    fd88:	0f b7 05 df a2 00 00 	movzwl 0xa2df(%rip),%eax        # 1a06e <g_171>
    fd8f:	83 c0 01             	add    $0x1,%eax
    fd92:	66 89 05 d5 a2 00 00 	mov    %ax,0xa2d5(%rip)        # 1a06e <g_171>
    fd99:	0f b7 05 ce a2 00 00 	movzwl 0xa2ce(%rip),%eax        # 1a06e <g_171>
    fda0:	66 85 c0             	test   %ax,%ax
    fda3:	0f 84 29 fb ff ff    	je     f8d2 <func_44+0x1296>
    fda9:	0f b6 85 c7 f3 ff ff 	movzbl -0xc39(%rbp),%eax
    fdb0:	83 c0 01             	add    $0x1,%eax
    fdb3:	88 85 c7 f3 ff ff    	mov    %al,-0xc39(%rbp)
    fdb9:	48 8b 05 40 c0 00 00 	mov    0xc040(%rip),%rax        # 1be00 <g_599>
    fdc0:	48 8b 00             	mov    (%rax),%rax
    fdc3:	8b 05 53 ab 00 00    	mov    0xab53(%rip),%eax        # 1a91c <g_768>
    fdc9:	0f b6 c0             	movzbl %al,%eax
    fdcc:	be 0d 00 00 00       	mov    $0xd,%esi
    fdd1:	89 c7                	mov    %eax,%edi
    fdd3:	e8 a0 5d ff ff       	callq  5b78 <safe_sub_func_uint8_t_u_u>
    fdd8:	0f b6 d0             	movzbl %al,%edx
    fddb:	48 8b 05 96 a8 00 00 	mov    0xa896(%rip),%rax        # 1a678 <g_196+0x5f8>
    fde2:	48 39 c2             	cmp    %rax,%rdx
    fde5:	48 8b 05 54 c2 00 00 	mov    0xc254(%rip),%rax        # 1c040 <g_878>
    fdec:	48 8b 00             	mov    (%rax),%rax
    fdef:	48 39 85 10 f5 ff ff 	cmp    %rax,-0xaf0(%rbp)
    fdf6:	0f 94 c0             	sete   %al
    fdf9:	0f b6 c0             	movzbl %al,%eax
    fdfc:	89 c6                	mov    %eax,%esi
    fdfe:	bf 01 00 00 00       	mov    $0x1,%edi
    fe03:	e8 b0 60 ff ff       	callq  5eb8 <safe_add_func_uint32_t_u_u>
    fe08:	48 8b 85 18 f5 ff ff 	mov    -0xae8(%rbp),%rax
    fe0f:	c7 00 01 00 00 00    	movl   $0x1,(%rax)
    fe15:	48 8b 05 8c c2 00 00 	mov    0xc28c(%rip),%rax        # 1c0a8 <g_990>
    fe1c:	48 8b 00             	mov    (%rax),%rax
    fe1f:	48 8b 00             	mov    (%rax),%rax
    fe22:	48 ba 2f a2 77 16 5d 	movabs $0x5abef15d1677a22f,%rdx
    fe29:	f1 be 5a 
    fe2c:	48 39 d0             	cmp    %rdx,%rax
    fe2f:	0f 9f c0             	setg   %al
    fe32:	0f b6 d0             	movzbl %al,%edx
    fe35:	8b 05 cd b0 00 00    	mov    0xb0cd(%rip),%eax        # 1af08 <g_1830+0x8>
    fe3b:	c1 e0 06             	shl    $0x6,%eax
    fe3e:	c1 f8 06             	sar    $0x6,%eax
    fe41:	31 c2                	xor    %eax,%edx
    fe43:	48 8b 05 66 c2 00 00 	mov    0xc266(%rip),%rax        # 1c0b0 <g_1312>
    fe4a:	0f b7 00             	movzwl (%rax),%eax
    fe4d:	0f b7 c0             	movzwl %ax,%eax
    fe50:	39 c2                	cmp    %eax,%edx
    fe52:	be 04 00 00 00       	mov    $0x4,%esi
    fe57:	bf 00 00 00 00       	mov    $0x0,%edi
    fe5c:	e8 02 57 ff ff       	callq  5563 <safe_rshift_func_int16_t_s_u>
    fe61:	48 8b 05 e0 c1 00 00 	mov    0xc1e0(%rip),%rax        # 1c048 <g_923>
    fe68:	8b 10                	mov    (%rax),%edx
    fe6a:	83 e2 01             	and    $0x1,%edx
    fe6d:	89 10                	mov    %edx,(%rax)
    fe6f:	8b 00                	mov    (%rax),%eax
    fe71:	48 98                	cltq   
    fe73:	48 89 85 08 f5 ff ff 	mov    %rax,-0xaf8(%rbp)
    fe7a:	48 8b 15 17 aa 00 00 	mov    0xaa17(%rip),%rdx        # 1a898 <g_221>
    fe81:	48 8b 05 10 aa 00 00 	mov    0xaa10(%rip),%rax        # 1a898 <g_221>
    fe88:	48 85 c0             	test   %rax,%rax
    fe8b:	0f 94 c0             	sete   %al
    fe8e:	0f b6 c0             	movzbl %al,%eax
    fe91:	48 39 c2             	cmp    %rax,%rdx
    fe94:	0f 95 c0             	setne  %al
    fe97:	0f b6 c0             	movzbl %al,%eax
    fe9a:	48 39 85 08 f5 ff ff 	cmp    %rax,-0xaf8(%rbp)
    fea1:	0f 9e c0             	setle  %al
    fea4:	0f b6 d0             	movzbl %al,%edx
    fea7:	0f b7 05 24 b0 00 00 	movzwl 0xb024(%rip),%eax        # 1aed2 <g_1571+0x2>
    feae:	0f b7 c0             	movzwl %ax,%eax
    feb1:	39 c2                	cmp    %eax,%edx
    feb3:	0f 9e c0             	setle  %al
    feb6:	0f b6 c0             	movzbl %al,%eax
    feb9:	f7 d0                	not    %eax
    febb:	89 c2                	mov    %eax,%edx
    febd:	8b 85 88 fb ff ff    	mov    -0x478(%rbp),%eax
    fec3:	21 d0                	and    %edx,%eax
    fec5:	89 85 88 fb ff ff    	mov    %eax,-0x478(%rbp)
    fecb:	48 8b 85 b8 f3 ff ff 	mov    -0xc48(%rbp),%rax
    fed2:	48 8b 5d e8          	mov    -0x18(%rbp),%rbx
    fed6:	64 48 33 1c 25 28 00 	xor    %fs:0x28,%rbx
    fedd:	00 00 
    fedf:	74 05                	je     fee6 <func_44+0x18aa>
    fee1:	e8 8a 51 ff ff       	callq  5070 <__stack_chk_fail@plt>
    fee6:	48 81 c4 40 0c 00 00 	add    $0xc40,%rsp
    feed:	5b                   	pop    %rbx
    feee:	41 5c                	pop    %r12
    fef0:	5d                   	pop    %rbp
    fef1:	c3                   	retq   

000000000000fef2 <func_78>:
    fef2:	f3 0f 1e fa          	endbr64 
    fef6:	55                   	push   %rbp
    fef7:	48 89 e5             	mov    %rsp,%rbp
    fefa:	48 83 ec 50          	sub    $0x50,%rsp
    fefe:	48 89 7d b8          	mov    %rdi,-0x48(%rbp)
    ff02:	48 89 75 b0          	mov    %rsi,-0x50(%rbp)
    ff06:	64 48 8b 04 25 28 00 	mov    %fs:0x28,%rax
    ff0d:	00 00 
    ff0f:	48 89 45 f8          	mov    %rax,-0x8(%rbp)
    ff13:	31 c0                	xor    %eax,%eax
    ff15:	48 c7 45 c8 00 00 00 	movq   $0x0,-0x38(%rbp)
    ff1c:	00 
    ff1d:	48 8d 05 d0 ae 00 00 	lea    0xaed0(%rip),%rax        # 1adf4 <g_1132>
    ff24:	48 89 45 d0          	mov    %rax,-0x30(%rbp)
    ff28:	48 8d 05 c5 ae 00 00 	lea    0xaec5(%rip),%rax        # 1adf4 <g_1132>
    ff2f:	48 89 45 d8          	mov    %rax,-0x28(%rbp)
    ff33:	48 8d 05 ba ae 00 00 	lea    0xaeba(%rip),%rax        # 1adf4 <g_1132>
    ff3a:	48 89 45 e0          	mov    %rax,-0x20(%rbp)
    ff3e:	48 8d 05 af ae 00 00 	lea    0xaeaf(%rip),%rax        # 1adf4 <g_1132>
    ff45:	48 89 45 e8          	mov    %rax,-0x18(%rbp)
    ff49:	48 8b 05 f8 c0 00 00 	mov    0xc0f8(%rip),%rax        # 1c048 <g_923>
    ff50:	8b 10                	mov    (%rax),%edx
    ff52:	48 8b 4d b0          	mov    -0x50(%rbp),%rcx
    ff56:	21 ca                	and    %ecx,%edx
    ff58:	89 10                	mov    %edx,(%rax)
    ff5a:	48 8b 05 87 be 00 00 	mov    0xbe87(%rip),%rax        # 1bde8 <g_537>
    ff61:	0f b6 00             	movzbl (%rax),%eax
    ff64:	48 8b 75 f8          	mov    -0x8(%rbp),%rsi
    ff68:	64 48 33 34 25 28 00 	xor    %fs:0x28,%rsi
    ff6f:	00 00 
    ff71:	74 05                	je     ff78 <func_78+0x86>
    ff73:	e8 f8 50 ff ff       	callq  5070 <__stack_chk_fail@plt>
    ff78:	c9                   	leaveq 
    ff79:	c3                   	retq   

000000000000ff7a <func_81>:
    ff7a:	f3 0f 1e fa          	endbr64 
    ff7e:	55                   	push   %rbp
    ff7f:	48 89 e5             	mov    %rsp,%rbp
    ff82:	41 57                	push   %r15
    ff84:	41 56                	push   %r14
    ff86:	41 55                	push   %r13
    ff88:	41 54                	push   %r12
    ff8a:	53                   	push   %rbx
    ff8b:	48 81 ec 58 02 00 00 	sub    $0x258,%rsp
    ff92:	89 bd 9c fd ff ff    	mov    %edi,-0x264(%rbp)
    ff98:	48 89 b5 90 fd ff ff 	mov    %rsi,-0x270(%rbp)
    ff9f:	48 89 95 88 fd ff ff 	mov    %rdx,-0x278(%rbp)
    ffa6:	89 c8                	mov    %ecx,%eax
    ffa8:	44 89 c2             	mov    %r8d,%edx
    ffab:	66 89 85 98 fd ff ff 	mov    %ax,-0x268(%rbp)
    ffb2:	89 d0                	mov    %edx,%eax
    ffb4:	88 85 84 fd ff ff    	mov    %al,-0x27c(%rbp)
    ffba:	64 48 8b 04 25 28 00 	mov    %fs:0x28,%rax
    ffc1:	00 00 
    ffc3:	48 89 45 c8          	mov    %rax,-0x38(%rbp)
    ffc7:	31 c0                	xor    %eax,%eax
    ffc9:	c7 85 20 fe ff ff 01 	movl   $0x1,-0x1e0(%rbp)
    ffd0:	00 00 00 
    ffd3:	c7 85 24 fe ff ff 01 	movl   $0x1,-0x1dc(%rbp)
    ffda:	00 00 00 
    ffdd:	c7 85 28 fe ff ff 01 	movl   $0x1,-0x1d8(%rbp)
    ffe4:	00 00 00 
    ffe7:	c7 85 2c fe ff ff 01 	movl   $0x1,-0x1d4(%rbp)
    ffee:	00 00 00 
    fff1:	c7 85 30 fe ff ff 01 	movl   $0x1,-0x1d0(%rbp)
    fff8:	00 00 00 
    fffb:	c7 85 34 fe ff ff 01 	movl   $0x1,-0x1cc(%rbp)
   10002:	00 00 00 
   10005:	c7 85 38 fe ff ff 01 	movl   $0x1,-0x1c8(%rbp)
   1000c:	00 00 00 
   1000f:	c7 85 3c fe ff ff 01 	movl   $0x1,-0x1c4(%rbp)
   10016:	00 00 00 
   10019:	48 8d 05 80 a8 00 00 	lea    0xa880(%rip),%rax        # 1a8a0 <g_246>
   10020:	48 89 85 c8 fd ff ff 	mov    %rax,-0x238(%rbp)
   10027:	48 8d 05 4a a1 00 00 	lea    0xa14a(%rip),%rax        # 1a178 <g_196+0xf8>
   1002e:	48 89 85 40 fe ff ff 	mov    %rax,-0x1c0(%rbp)
   10035:	48 8d 05 8c a3 00 00 	lea    0xa38c(%rip),%rax        # 1a3c8 <g_196+0x348>
   1003c:	48 89 85 48 fe ff ff 	mov    %rax,-0x1b8(%rbp)
   10043:	48 8d 05 c6 a4 00 00 	lea    0xa4c6(%rip),%rax        # 1a510 <g_196+0x490>
   1004a:	48 89 85 50 fe ff ff 	mov    %rax,-0x1b0(%rbp)
   10051:	48 8d 05 70 a3 00 00 	lea    0xa370(%rip),%rax        # 1a3c8 <g_196+0x348>
   10058:	48 89 85 58 fe ff ff 	mov    %rax,-0x1a8(%rbp)
   1005f:	48 8d 05 12 a1 00 00 	lea    0xa112(%rip),%rax        # 1a178 <g_196+0xf8>
   10066:	48 89 85 60 fe ff ff 	mov    %rax,-0x1a0(%rbp)
   1006d:	48 8d 05 04 a1 00 00 	lea    0xa104(%rip),%rax        # 1a178 <g_196+0xf8>
   10074:	48 89 85 68 fe ff ff 	mov    %rax,-0x198(%rbp)
   1007b:	48 8d 05 46 a3 00 00 	lea    0xa346(%rip),%rax        # 1a3c8 <g_196+0x348>
   10082:	48 89 85 70 fe ff ff 	mov    %rax,-0x190(%rbp)
   10089:	48 8d 05 80 a4 00 00 	lea    0xa480(%rip),%rax        # 1a510 <g_196+0x490>
   10090:	48 89 85 78 fe ff ff 	mov    %rax,-0x188(%rbp)
   10097:	48 8d 05 da a0 00 00 	lea    0xa0da(%rip),%rax        # 1a178 <g_196+0xf8>
   1009e:	48 89 85 80 fe ff ff 	mov    %rax,-0x180(%rbp)
   100a5:	48 8d 05 cc a0 00 00 	lea    0xa0cc(%rip),%rax        # 1a178 <g_196+0xf8>
   100ac:	48 89 85 88 fe ff ff 	mov    %rax,-0x178(%rbp)
   100b3:	48 8d 05 0e a3 00 00 	lea    0xa30e(%rip),%rax        # 1a3c8 <g_196+0x348>
   100ba:	48 89 85 90 fe ff ff 	mov    %rax,-0x170(%rbp)
   100c1:	48 8d 05 48 a4 00 00 	lea    0xa448(%rip),%rax        # 1a510 <g_196+0x490>
   100c8:	48 89 85 98 fe ff ff 	mov    %rax,-0x168(%rbp)
   100cf:	48 8d 05 f2 a2 00 00 	lea    0xa2f2(%rip),%rax        # 1a3c8 <g_196+0x348>
   100d6:	48 89 85 a0 fe ff ff 	mov    %rax,-0x160(%rbp)
   100dd:	48 8d 05 94 a0 00 00 	lea    0xa094(%rip),%rax        # 1a178 <g_196+0xf8>
   100e4:	48 89 85 a8 fe ff ff 	mov    %rax,-0x158(%rbp)
   100eb:	48 8d 05 86 a0 00 00 	lea    0xa086(%rip),%rax        # 1a178 <g_196+0xf8>
   100f2:	48 89 85 b0 fe ff ff 	mov    %rax,-0x150(%rbp)
   100f9:	48 8d 05 c8 a2 00 00 	lea    0xa2c8(%rip),%rax        # 1a3c8 <g_196+0x348>
   10100:	48 89 85 b8 fe ff ff 	mov    %rax,-0x148(%rbp)
   10107:	48 8d 85 40 fe ff ff 	lea    -0x1c0(%rbp),%rax
   1010e:	48 83 c0 28          	add    $0x28,%rax
   10112:	48 89 85 b0 fd ff ff 	mov    %rax,-0x250(%rbp)
   10119:	48 c7 85 b8 fd ff ff 	movq   $0x0,-0x248(%rbp)
   10120:	00 00 00 00 
   10124:	48 8d 85 b0 fd ff ff 	lea    -0x250(%rbp),%rax
   1012b:	48 89 85 d0 fd ff ff 	mov    %rax,-0x230(%rbp)
   10132:	48 8d 05 37 9f 00 00 	lea    0x9f37(%rip),%rax        # 1a070 <g_192>
   10139:	48 89 85 d8 fd ff ff 	mov    %rax,-0x228(%rbp)
   10140:	48 8d 85 20 fe ff ff 	lea    -0x1e0(%rbp),%rax
   10147:	48 83 c0 08          	add    $0x8,%rax
   1014b:	48 89 85 e0 fd ff ff 	mov    %rax,-0x220(%rbp)
   10152:	c7 85 a4 fd ff ff 03 	movl   $0x3,-0x25c(%rbp)
   10159:	00 00 00 
   1015c:	c6 85 a3 fd ff ff 01 	movb   $0x1,-0x25d(%rbp)
   10163:	48 8d 05 f6 9e 00 00 	lea    0x9ef6(%rip),%rax        # 1a060 <g_137>
   1016a:	48 89 85 e8 fd ff ff 	mov    %rax,-0x218(%rbp)
   10171:	48 8b 85 c8 fd ff ff 	mov    -0x238(%rbp),%rax
   10178:	8b 00                	mov    (%rax),%eax
   1017a:	8d 50 01             	lea    0x1(%rax),%edx
   1017d:	48 8b 85 c8 fd ff ff 	mov    -0x238(%rbp),%rax
   10184:	89 10                	mov    %edx,(%rax)
   10186:	48 8b 85 c8 fd ff ff 	mov    -0x238(%rbp),%rax
   1018d:	8b 00                	mov    (%rax),%eax
   1018f:	85 c0                	test   %eax,%eax
   10191:	75 70                	jne    10203 <func_81+0x289>
   10193:	48 8b 95 b0 fd ff ff 	mov    -0x250(%rbp),%rdx
   1019a:	48 8b 85 d0 fd ff ff 	mov    -0x230(%rbp),%rax
   101a1:	48 89 10             	mov    %rdx,(%rax)
   101a4:	48 8b 85 d0 fd ff ff 	mov    -0x230(%rbp),%rax
   101ab:	48 8b 10             	mov    (%rax),%rdx
   101ae:	48 8b 05 f3 be 00 00 	mov    0xbef3(%rip),%rax        # 1c0a8 <g_990>
   101b5:	48 39 c2             	cmp    %rax,%rdx
   101b8:	0f 95 c2             	setne  %dl
   101bb:	48 8b 05 36 bc 00 00 	mov    0xbc36(%rip),%rax        # 1bdf8 <g_600>
   101c2:	0f b6 d2             	movzbl %dl,%edx
   101c5:	48 89 10             	mov    %rdx,(%rax)
   101c8:	48 8b 00             	mov    (%rax),%rax
   101cb:	48 85 c0             	test   %rax,%rax
   101ce:	0f 95 c0             	setne  %al
   101d1:	0f b6 d8             	movzbl %al,%ebx
   101d4:	48 8b 85 d8 fd ff ff 	mov    -0x228(%rbp),%rax
   101db:	66 c7 00 34 f2       	movw   $0xf234,(%rax)
   101e0:	8b 05 0a ac 00 00    	mov    0xac0a(%rip),%eax        # 1adf0 <g_994>
   101e6:	0f b7 c0             	movzwl %ax,%eax
   101e9:	be 34 f2 00 00       	mov    $0xf234,%esi
   101ee:	89 c7                	mov    %eax,%edi
   101f0:	e8 67 5b ff ff       	callq  5d5c <safe_mod_func_uint16_t_u_u>
   101f5:	0f b7 c0             	movzwl %ax,%eax
   101f8:	39 c3                	cmp    %eax,%ebx
   101fa:	75 07                	jne    10203 <func_81+0x289>
   101fc:	b8 01 00 00 00       	mov    $0x1,%eax
   10201:	eb 05                	jmp    10208 <func_81+0x28e>
   10203:	b8 00 00 00 00       	mov    $0x0,%eax
   10208:	be 08 00 00 00       	mov    $0x8,%esi
   1020d:	89 c7                	mov    %eax,%edi
   1020f:	e8 11 5d ff ff       	callq  5f25 <safe_div_func_uint32_t_u_u>
   10214:	ba 00 00 00 00       	mov    $0x0,%edx
   10219:	48 8b 85 e0 fd ff ff 	mov    -0x220(%rbp),%rax
   10220:	8b 00                	mov    (%rax),%eax
   10222:	09 c2                	or     %eax,%edx
   10224:	48 8b 85 e0 fd ff ff 	mov    -0x220(%rbp),%rax
   1022b:	89 10                	mov    %edx,(%rax)
   1022d:	48 8b 85 e0 fd ff ff 	mov    -0x220(%rbp),%rax
   10234:	8b 00                	mov    (%rax),%eax
   10236:	48 98                	cltq   
   10238:	48 89 c6             	mov    %rax,%rsi
   1023b:	48 c7 c7 f8 ff ff ff 	mov    $0xfffffffffffffff8,%rdi
   10242:	e8 fa 55 ff ff       	callq  5841 <safe_add_func_int64_t_s_s>
   10247:	48 89 c2             	mov    %rax,%rdx
   1024a:	48 8b 85 90 fd ff ff 	mov    -0x270(%rbp),%rax
   10251:	0f b6 00             	movzbl (%rax),%eax
   10254:	89 c1                	mov    %eax,%ecx
   10256:	89 d0                	mov    %edx,%eax
   10258:	09 c8                	or     %ecx,%eax
   1025a:	89 c2                	mov    %eax,%edx
   1025c:	48 8b 85 90 fd ff ff 	mov    -0x270(%rbp),%rax
   10263:	88 10                	mov    %dl,(%rax)
   10265:	48 8b 85 90 fd ff ff 	mov    -0x270(%rbp),%rax
   1026c:	44 0f b6 28          	movzbl (%rax),%r13d
   10270:	48 8b 85 e0 fd ff ff 	mov    -0x220(%rbp),%rax
   10277:	8b 00                	mov    (%rax),%eax
   10279:	0f b6 d8             	movzbl %al,%ebx
   1027c:	48 8b 85 e0 fd ff ff 	mov    -0x220(%rbp),%rax
   10283:	44 8b 30             	mov    (%rax),%r14d
   10286:	4c 0f be a5 84 fd ff 	movsbq -0x27c(%rbp),%r12
   1028d:	ff 
   1028e:	8b 85 9c fd ff ff    	mov    -0x264(%rbp),%eax
   10294:	41 89 c7             	mov    %eax,%r15d
   10297:	48 8b 05 a2 bd 00 00 	mov    0xbda2(%rip),%rax        # 1c040 <g_878>
   1029e:	48 8b 00             	mov    (%rax),%rax
   102a1:	48 85 c0             	test   %rax,%rax
   102a4:	0f 94 c0             	sete   %al
   102a7:	0f b6 c0             	movzbl %al,%eax
   102aa:	be 0a 00 00 00       	mov    $0xa,%esi
   102af:	89 c7                	mov    %eax,%edi
   102b1:	e8 74 52 ff ff       	callq  552a <safe_rshift_func_int16_t_s_s>
   102b6:	98                   	cwtl   
   102b7:	be 06 00 00 00       	mov    $0x6,%esi
   102bc:	89 c7                	mov    %eax,%edi
   102be:	e8 cf 51 ff ff       	callq  5492 <safe_lshift_func_int16_t_s_s>
   102c3:	98                   	cwtl   
   102c4:	be 7a 23 44 e2       	mov    $0xe244237a,%esi
   102c9:	89 c7                	mov    %eax,%edi
   102cb:	e8 2d 5c ff ff       	callq  5efd <safe_mod_func_uint32_t_u_u>
   102d0:	48 8b 05 11 bb 00 00 	mov    0xbb11(%rip),%rax        # 1bde8 <g_537>
   102d7:	c6 00 01             	movb   $0x1,(%rax)
   102da:	0f b6 85 a3 fd ff ff 	movzbl -0x25d(%rbp),%eax
   102e1:	44 89 fe             	mov    %r15d,%esi
   102e4:	89 c7                	mov    %eax,%edi
   102e6:	e8 f6 51 ff ff       	callq  54e1 <safe_lshift_func_int16_t_s_u>
   102eb:	0f bf d0             	movswl %ax,%edx
   102ee:	48 8b 85 e0 fd ff ff 	mov    -0x220(%rbp),%rax
   102f5:	8b 00                	mov    (%rax),%eax
   102f7:	39 c2                	cmp    %eax,%edx
   102f9:	0f 9e c0             	setle  %al
   102fc:	0f b6 d0             	movzbl %al,%edx
   102ff:	0f be 85 84 fd ff ff 	movsbl -0x27c(%rbp),%eax
   10306:	39 c2                	cmp    %eax,%edx
   10308:	0f 9e c0             	setle  %al
   1030b:	0f b6 c0             	movzbl %al,%eax
   1030e:	4c 89 e6             	mov    %r12,%rsi
   10311:	48 89 c7             	mov    %rax,%rdi
   10314:	e8 32 5d ff ff       	callq  604b <safe_sub_func_uint64_t_u_u>
   10319:	89 c2                	mov    %eax,%edx
   1031b:	48 8b 85 d8 fd ff ff 	mov    -0x228(%rbp),%rax
   10322:	66 89 10             	mov    %dx,(%rax)
   10325:	48 8b 85 d8 fd ff ff 	mov    -0x228(%rbp),%rax
   1032c:	0f b7 00             	movzwl (%rax),%eax
   1032f:	0f b7 c0             	movzwl %ax,%eax
   10332:	0b 85 a4 fd ff ff    	or     -0x25c(%rbp),%eax
   10338:	89 c2                	mov    %eax,%edx
   1033a:	0f bf 85 98 fd ff ff 	movswl -0x268(%rbp),%eax
   10341:	39 c2                	cmp    %eax,%edx
   10343:	0f 92 c0             	setb   %al
   10346:	0f b6 c0             	movzbl %al,%eax
   10349:	48 8b 15 e0 a5 00 00 	mov    0xa5e0(%rip),%rdx        # 1a930 <g_875>
   10350:	48 c1 e2 08          	shl    $0x8,%rdx
   10354:	48 c1 fa 28          	sar    $0x28,%rdx
   10358:	89 c6                	mov    %eax,%esi
   1035a:	89 d7                	mov    %edx,%edi
   1035c:	e8 57 5b ff ff       	callq  5eb8 <safe_add_func_uint32_t_u_u>
   10361:	48 8b 95 e0 fd ff ff 	mov    -0x220(%rbp),%rdx
   10368:	8b 12                	mov    (%rdx),%edx
   1036a:	39 d0                	cmp    %edx,%eax
   1036c:	0f 94 c0             	sete   %al
   1036f:	0f b6 c0             	movzbl %al,%eax
   10372:	41 39 c6             	cmp    %eax,%r14d
   10375:	0f 94 c0             	sete   %al
   10378:	89 c2                	mov    %eax,%edx
   1037a:	48 8b 85 e8 fd ff ff 	mov    -0x218(%rbp),%rax
   10381:	88 10                	mov    %dl,(%rax)
   10383:	48 8b 85 e8 fd ff ff 	mov    -0x218(%rbp),%rax
   1038a:	0f b6 00             	movzbl (%rax),%eax
   1038d:	0f b6 c0             	movzbl %al,%eax
   10390:	be fc 00 00 00       	mov    $0xfc,%esi
   10395:	89 c7                	mov    %eax,%edi
   10397:	e8 dc 57 ff ff       	callq  5b78 <safe_sub_func_uint8_t_u_u>
   1039c:	0f b6 c0             	movzbl %al,%eax
   1039f:	89 de                	mov    %ebx,%esi
   103a1:	89 c7                	mov    %eax,%edi
   103a3:	e8 eb 57 ff ff       	callq  5b93 <safe_mul_func_uint8_t_u_u>
   103a8:	41 38 c5             	cmp    %al,%r13b
   103ab:	0f 94 c0             	sete   %al
   103ae:	0f b6 d0             	movzbl %al,%edx
   103b1:	48 8b 85 e0 fd ff ff 	mov    -0x220(%rbp),%rax
   103b8:	8b 00                	mov    (%rax),%eax
   103ba:	39 c2                	cmp    %eax,%edx
   103bc:	0f 9c c0             	setl   %al
   103bf:	0f b6 c0             	movzbl %al,%eax
   103c2:	be b0 00 00 00       	mov    $0xb0,%esi
   103c7:	89 c7                	mov    %eax,%edi
   103c9:	e8 8c 57 ff ff       	callq  5b5a <safe_add_func_uint8_t_u_u>
   103ce:	84 c0                	test   %al,%al
   103d0:	74 1a                	je     103ec <func_81+0x472>
   103d2:	48 8b 05 2f ba 00 00 	mov    0xba2f(%rip),%rax        # 1be08 <g_638>
   103d9:	48 8d 95 20 fe ff ff 	lea    -0x1e0(%rbp),%rdx
   103e0:	48 83 c2 0c          	add    $0xc,%rdx
   103e4:	48 89 10             	mov    %rdx,(%rax)
   103e7:	e9 ba 02 00 00       	jmpq   106a6 <func_81+0x72c>
   103ec:	48 8d 05 4d bc 00 00 	lea    0xbc4d(%rip),%rax        # 1c040 <g_878>
   103f3:	48 89 85 f0 fd ff ff 	mov    %rax,-0x210(%rbp)
   103fa:	c7 85 a8 fd ff ff 00 	movl   $0x0,-0x258(%rbp)
   10401:	00 00 00 
   10404:	eb 14                	jmp    1041a <func_81+0x4a0>
   10406:	8b 85 a8 fd ff ff    	mov    -0x258(%rbp),%eax
   1040c:	48 98                	cltq   
   1040e:	c6 44 05 c2 00       	movb   $0x0,-0x3e(%rbp,%rax,1)
   10413:	83 85 a8 fd ff ff 01 	addl   $0x1,-0x258(%rbp)
   1041a:	83 bd a8 fd ff ff 05 	cmpl   $0x5,-0x258(%rbp)
   10421:	7e e3                	jle    10406 <func_81+0x48c>
   10423:	c6 05 7a a4 00 00 00 	movb   $0x0,0xa47a(%rip)        # 1a8a4 <g_249>
   1042a:	e9 68 02 00 00       	jmpq   10697 <func_81+0x71d>
   1042f:	48 8d 05 fa 9b 00 00 	lea    0x9bfa(%rip),%rax        # 1a030 <g_48>
   10436:	48 89 85 f8 fd ff ff 	mov    %rax,-0x208(%rbp)
   1043d:	48 8d 85 9c fd ff ff 	lea    -0x264(%rbp),%rax
   10444:	48 89 85 f8 fd ff ff 	mov    %rax,-0x208(%rbp)
   1044b:	48 8b 85 e0 fd ff ff 	mov    -0x220(%rbp),%rax
   10452:	8b 10                	mov    (%rax),%edx
   10454:	80 bd 84 fd ff ff 00 	cmpb   $0x0,-0x27c(%rbp)
   1045b:	0f 94 c0             	sete   %al
   1045e:	0f b6 c0             	movzbl %al,%eax
   10461:	31 c2                	xor    %eax,%edx
   10463:	48 8b 85 e0 fd ff ff 	mov    -0x220(%rbp),%rax
   1046a:	89 10                	mov    %edx,(%rax)
   1046c:	c7 85 a4 fd ff ff 00 	movl   $0x0,-0x25c(%rbp)
   10473:	00 00 00 
   10476:	e9 ff 01 00 00       	jmpq   1067a <func_81+0x700>
   1047b:	48 8d 05 46 9f 00 00 	lea    0x9f46(%rip),%rax        # 1a3c8 <g_196+0x348>
   10482:	48 89 85 c0 fd ff ff 	mov    %rax,-0x240(%rbp)
   10489:	48 8d 85 c0 fd ff ff 	lea    -0x240(%rbp),%rax
   10490:	48 89 85 00 fe ff ff 	mov    %rax,-0x200(%rbp)
   10497:	48 8d 05 e2 a3 00 00 	lea    0xa3e2(%rip),%rax        # 1a880 <g_219>
   1049e:	48 89 85 08 fe ff ff 	mov    %rax,-0x1f8(%rbp)
   104a5:	c7 85 ac fd ff ff 01 	movl   $0x1,-0x254(%rbp)
   104ac:	00 00 00 
   104af:	48 8d 05 9a a5 00 00 	lea    0xa59a(%rip),%rax        # 1aa50 <g_954+0x110>
   104b6:	48 89 85 10 fe ff ff 	mov    %rax,-0x1f0(%rbp)
   104bd:	48 8d 05 cc a3 00 00 	lea    0xa3cc(%rip),%rax        # 1a890 <g_220>
   104c4:	48 89 85 c0 fe ff ff 	mov    %rax,-0x140(%rbp)
   104cb:	48 8d 05 be a3 00 00 	lea    0xa3be(%rip),%rax        # 1a890 <g_220>
   104d2:	48 89 85 c8 fe ff ff 	mov    %rax,-0x138(%rbp)
   104d9:	48 8d 05 b0 a3 00 00 	lea    0xa3b0(%rip),%rax        # 1a890 <g_220>
   104e0:	48 89 85 d0 fe ff ff 	mov    %rax,-0x130(%rbp)
   104e7:	48 8d 05 2a a4 00 00 	lea    0xa42a(%rip),%rax        # 1a918 <g_634>
   104ee:	48 89 85 d8 fe ff ff 	mov    %rax,-0x128(%rbp)
   104f5:	48 8d 05 94 a3 00 00 	lea    0xa394(%rip),%rax        # 1a890 <g_220>
   104fc:	48 89 85 e0 fe ff ff 	mov    %rax,-0x120(%rbp)
   10503:	48 8d 05 86 a3 00 00 	lea    0xa386(%rip),%rax        # 1a890 <g_220>
   1050a:	48 89 85 e8 fe ff ff 	mov    %rax,-0x118(%rbp)
   10511:	48 8d 05 78 a3 00 00 	lea    0xa378(%rip),%rax        # 1a890 <g_220>
   10518:	48 89 85 f0 fe ff ff 	mov    %rax,-0x110(%rbp)
   1051f:	48 8d 05 6a a3 00 00 	lea    0xa36a(%rip),%rax        # 1a890 <g_220>
   10526:	48 89 85 f8 fe ff ff 	mov    %rax,-0x108(%rbp)
   1052d:	48 8d 05 5c a3 00 00 	lea    0xa35c(%rip),%rax        # 1a890 <g_220>
   10534:	48 89 85 00 ff ff ff 	mov    %rax,-0x100(%rbp)
   1053b:	48 8d 05 d6 a3 00 00 	lea    0xa3d6(%rip),%rax        # 1a918 <g_634>
   10542:	48 89 85 08 ff ff ff 	mov    %rax,-0xf8(%rbp)
   10549:	48 8d 05 40 a3 00 00 	lea    0xa340(%rip),%rax        # 1a890 <g_220>
   10550:	48 89 85 10 ff ff ff 	mov    %rax,-0xf0(%rbp)
   10557:	48 8d 05 32 a3 00 00 	lea    0xa332(%rip),%rax        # 1a890 <g_220>
   1055e:	48 89 85 18 ff ff ff 	mov    %rax,-0xe8(%rbp)
   10565:	48 8d 05 24 a3 00 00 	lea    0xa324(%rip),%rax        # 1a890 <g_220>
   1056c:	48 89 85 20 ff ff ff 	mov    %rax,-0xe0(%rbp)
   10573:	48 8d 05 16 a3 00 00 	lea    0xa316(%rip),%rax        # 1a890 <g_220>
   1057a:	48 89 85 28 ff ff ff 	mov    %rax,-0xd8(%rbp)
   10581:	48 8d 05 08 a3 00 00 	lea    0xa308(%rip),%rax        # 1a890 <g_220>
   10588:	48 89 85 30 ff ff ff 	mov    %rax,-0xd0(%rbp)
   1058f:	48 8d 05 82 a3 00 00 	lea    0xa382(%rip),%rax        # 1a918 <g_634>
   10596:	48 89 85 38 ff ff ff 	mov    %rax,-0xc8(%rbp)
   1059d:	48 8d 05 74 a3 00 00 	lea    0xa374(%rip),%rax        # 1a918 <g_634>
   105a4:	48 89 85 40 ff ff ff 	mov    %rax,-0xc0(%rbp)
   105ab:	48 8d 05 de a2 00 00 	lea    0xa2de(%rip),%rax        # 1a890 <g_220>
   105b2:	48 89 85 48 ff ff ff 	mov    %rax,-0xb8(%rbp)
   105b9:	48 8d 05 d0 a2 00 00 	lea    0xa2d0(%rip),%rax        # 1a890 <g_220>
   105c0:	48 89 85 50 ff ff ff 	mov    %rax,-0xb0(%rbp)
   105c7:	48 8d 05 c2 a2 00 00 	lea    0xa2c2(%rip),%rax        # 1a890 <g_220>
   105ce:	48 89 85 58 ff ff ff 	mov    %rax,-0xa8(%rbp)
   105d5:	48 8d 05 b4 a2 00 00 	lea    0xa2b4(%rip),%rax        # 1a890 <g_220>
   105dc:	48 89 85 60 ff ff ff 	mov    %rax,-0xa0(%rbp)
   105e3:	48 8d 05 a6 a2 00 00 	lea    0xa2a6(%rip),%rax        # 1a890 <g_220>
   105ea:	48 89 85 68 ff ff ff 	mov    %rax,-0x98(%rbp)
   105f1:	48 8d 05 98 a2 00 00 	lea    0xa298(%rip),%rax        # 1a890 <g_220>
   105f8:	48 89 85 70 ff ff ff 	mov    %rax,-0x90(%rbp)
   105ff:	48 8d 05 8a a2 00 00 	lea    0xa28a(%rip),%rax        # 1a890 <g_220>
   10606:	48 89 85 78 ff ff ff 	mov    %rax,-0x88(%rbp)
   1060d:	48 8d 05 7c a2 00 00 	lea    0xa27c(%rip),%rax        # 1a890 <g_220>
   10614:	48 89 45 80          	mov    %rax,-0x80(%rbp)
   10618:	48 8d 05 71 a2 00 00 	lea    0xa271(%rip),%rax        # 1a890 <g_220>
   1061f:	48 89 45 88          	mov    %rax,-0x78(%rbp)
   10623:	48 8d 05 66 a2 00 00 	lea    0xa266(%rip),%rax        # 1a890 <g_220>
   1062a:	48 89 45 90          	mov    %rax,-0x70(%rbp)
   1062e:	48 8d 05 5b a2 00 00 	lea    0xa25b(%rip),%rax        # 1a890 <g_220>
   10635:	48 89 45 98          	mov    %rax,-0x68(%rbp)
   10639:	48 8d 05 50 a2 00 00 	lea    0xa250(%rip),%rax        # 1a890 <g_220>
   10640:	48 89 45 a0          	mov    %rax,-0x60(%rbp)
   10644:	48 8d 05 45 a2 00 00 	lea    0xa245(%rip),%rax        # 1a890 <g_220>
   1064b:	48 89 45 a8          	mov    %rax,-0x58(%rbp)
   1064f:	48 8d 05 3a a2 00 00 	lea    0xa23a(%rip),%rax        # 1a890 <g_220>
   10656:	48 89 45 b0          	mov    %rax,-0x50(%rbp)
   1065a:	48 8d 05 b7 a2 00 00 	lea    0xa2b7(%rip),%rax        # 1a918 <g_634>
   10661:	48 89 45 b8          	mov    %rax,-0x48(%rbp)
   10665:	48 8d 85 b8 fd ff ff 	lea    -0x248(%rbp),%rax
   1066c:	48 89 85 18 fe ff ff 	mov    %rax,-0x1e8(%rbp)
   10673:	83 85 a4 fd ff ff 01 	addl   $0x1,-0x25c(%rbp)
   1067a:	83 bd a4 fd ff ff 03 	cmpl   $0x3,-0x25c(%rbp)
   10681:	0f 86 f4 fd ff ff    	jbe    1047b <func_81+0x501>
   10687:	0f b6 05 16 a2 00 00 	movzbl 0xa216(%rip),%eax        # 1a8a4 <g_249>
   1068e:	83 e8 01             	sub    $0x1,%eax
   10691:	88 05 0d a2 00 00    	mov    %al,0xa20d(%rip)        # 1a8a4 <g_249>
   10697:	0f b6 05 06 a2 00 00 	movzbl 0xa206(%rip),%eax        # 1a8a4 <g_249>
   1069e:	3c e2                	cmp    $0xe2,%al
   106a0:	0f 85 89 fd ff ff    	jne    1042f <func_81+0x4b5>
   106a6:	48 8b 85 d8 fd ff ff 	mov    -0x228(%rbp),%rax
   106ad:	48 8b 4d c8          	mov    -0x38(%rbp),%rcx
   106b1:	64 48 33 0c 25 28 00 	xor    %fs:0x28,%rcx
   106b8:	00 00 
   106ba:	74 05                	je     106c1 <func_81+0x747>
   106bc:	e8 af 49 ff ff       	callq  5070 <__stack_chk_fail@plt>
   106c1:	48 81 c4 58 02 00 00 	add    $0x258,%rsp
   106c8:	5b                   	pop    %rbx
   106c9:	41 5c                	pop    %r12
   106cb:	41 5d                	pop    %r13
   106cd:	41 5e                	pop    %r14
   106cf:	41 5f                	pop    %r15
   106d1:	5d                   	pop    %rbp
   106d2:	c3                   	retq   

00000000000106d3 <func_87>:
   106d3:	f3 0f 1e fa          	endbr64 
   106d7:	55                   	push   %rbp
   106d8:	48 89 e5             	mov    %rsp,%rbp
   106db:	48 81 ec 40 04 00 00 	sub    $0x440,%rsp
   106e2:	89 f9                	mov    %edi,%ecx
   106e4:	89 f0                	mov    %esi,%eax
   106e6:	48 89 95 c0 fb ff ff 	mov    %rdx,-0x440(%rbp)
   106ed:	89 ca                	mov    %ecx,%edx
   106ef:	66 89 95 cc fb ff ff 	mov    %dx,-0x434(%rbp)
   106f6:	66 89 85 c8 fb ff ff 	mov    %ax,-0x438(%rbp)
   106fd:	64 48 8b 04 25 28 00 	mov    %fs:0x28,%rax
   10704:	00 00 
   10706:	48 89 45 f8          	mov    %rax,-0x8(%rbp)
   1070a:	31 c0                	xor    %eax,%eax
   1070c:	48 b8 ac 67 b1 20 c4 	movabs $0x2effcbc420b167ac,%rax
   10713:	cb ff 2e 
   10716:	48 89 85 18 fc ff ff 	mov    %rax,-0x3e8(%rbp)
   1071d:	48 c7 85 20 fc ff ff 	movq   $0x0,-0x3e0(%rbp)
   10724:	00 00 00 00 
   10728:	48 8d 05 7c a1 00 00 	lea    0xa17c(%rip),%rax        # 1a8ab <g_346+0x1>
   1072f:	48 89 85 28 fc ff ff 	mov    %rax,-0x3d8(%rbp)
   10736:	48 c7 85 10 fc ff ff 	movq   $0x0,-0x3f0(%rbp)
   1073d:	00 00 00 00 
   10741:	48 8d 05 98 99 00 00 	lea    0x9998(%rip),%rax        # 1a0e0 <g_196+0x60>
   10748:	48 89 85 30 fc ff ff 	mov    %rax,-0x3d0(%rbp)
   1074f:	48 8d 85 00 fe ff ff 	lea    -0x200(%rbp),%rax
   10756:	48 8d 15 43 57 00 00 	lea    0x5743(%rip),%rdx        # 15ea0 <g_1898+0xe40>
   1075d:	b9 3f 00 00 00       	mov    $0x3f,%ecx
   10762:	48 89 c7             	mov    %rax,%rdi
   10765:	48 89 d6             	mov    %rdx,%rsi
   10768:	f3 48 a5             	rep movsq %ds:(%rsi),%es:(%rdi)
   1076b:	c7 85 e0 fb ff ff 0d 	movl   $0x91f8a70d,-0x420(%rbp)
   10772:	a7 f8 91 
   10775:	c7 85 dc fb ff ff f7 	movl   $0xfffffff7,-0x424(%rbp)
   1077c:	ff ff ff 
   1077f:	c7 85 70 fd ff ff 45 	movl   $0x8d955545,-0x290(%rbp)
   10786:	55 95 8d 
   10789:	c7 85 74 fd ff ff 45 	movl   $0x8d955545,-0x28c(%rbp)
   10790:	55 95 8d 
   10793:	c7 85 78 fd ff ff 02 	movl   $0x2,-0x288(%rbp)
   1079a:	00 00 00 
   1079d:	c7 85 7c fd ff ff 00 	movl   $0x0,-0x284(%rbp)
   107a4:	00 00 00 
   107a7:	c7 85 80 fd ff ff ff 	movl   $0xffffffff,-0x280(%rbp)
   107ae:	ff ff ff 
   107b1:	c7 85 84 fd ff ff 09 	movl   $0x9,-0x27c(%rbp)
   107b8:	00 00 00 
   107bb:	c7 85 88 fd ff ff 01 	movl   $0x1,-0x278(%rbp)
   107c2:	00 00 00 
   107c5:	c7 85 8c fd ff ff 03 	movl   $0x3,-0x274(%rbp)
   107cc:	00 00 00 
   107cf:	c7 85 90 fd ff ff ff 	movl   $0xffffffff,-0x270(%rbp)
   107d6:	ff ff ff 
   107d9:	c7 85 94 fd ff ff 02 	movl   $0x2,-0x26c(%rbp)
   107e0:	00 00 00 
   107e3:	c7 85 98 fd ff ff e5 	movl   $0x9f7a80e5,-0x268(%rbp)
   107ea:	80 7a 9f 
   107ed:	c7 85 9c fd ff ff 02 	movl   $0x2,-0x264(%rbp)
   107f4:	00 00 00 
   107f7:	c7 85 a0 fd ff ff ff 	movl   $0xffffffff,-0x260(%rbp)
   107fe:	ff ff ff 
   10801:	c7 85 a4 fd ff ff 01 	movl   $0x1,-0x25c(%rbp)
   10808:	00 00 00 
   1080b:	c7 85 a8 fd ff ff ff 	movl   $0xffffffff,-0x258(%rbp)
   10812:	ff ff ff 
   10815:	c7 85 ac fd ff ff 0d 	movl   $0xdea6bf0d,-0x254(%rbp)
   1081c:	bf a6 de 
   1081f:	c7 85 b0 fd ff ff 45 	movl   $0x8d955545,-0x250(%rbp)
   10826:	55 95 8d 
   10829:	c7 85 b4 fd ff ff 09 	movl   $0x9,-0x24c(%rbp)
   10830:	00 00 00 
   10833:	c7 85 b8 fd ff ff fc 	movl   $0xfffffffc,-0x248(%rbp)
   1083a:	ff ff ff 
   1083d:	c7 85 bc fd ff ff 0d 	movl   $0xdea6bf0d,-0x244(%rbp)
   10844:	bf a6 de 
   10847:	c7 85 c0 fd ff ff 02 	movl   $0x2,-0x240(%rbp)
   1084e:	00 00 00 
   10851:	c7 85 c4 fd ff ff f8 	movl   $0xfffffff8,-0x23c(%rbp)
   10858:	ff ff ff 
   1085b:	c7 85 c8 fd ff ff 00 	movl   $0x0,-0x238(%rbp)
   10862:	00 00 00 
   10865:	c7 85 cc fd ff ff 00 	movl   $0x0,-0x234(%rbp)
   1086c:	00 00 00 
   1086f:	c7 85 d0 fd ff ff f8 	movl   $0xfffffff8,-0x230(%rbp)
   10876:	ff ff ff 
   10879:	c7 85 d4 fd ff ff 00 	movl   $0x0,-0x22c(%rbp)
   10880:	00 00 00 
   10883:	c7 85 d8 fd ff ff 00 	movl   $0x0,-0x228(%rbp)
   1088a:	00 00 00 
   1088d:	c7 85 dc fd ff ff f8 	movl   $0xfffffff8,-0x224(%rbp)
   10894:	ff ff ff 
   10897:	c7 85 e0 fd ff ff 02 	movl   $0x2,-0x220(%rbp)
   1089e:	00 00 00 
   108a1:	c7 85 e4 fd ff ff 0d 	movl   $0xdea6bf0d,-0x21c(%rbp)
   108a8:	bf a6 de 
   108ab:	c7 85 e8 fd ff ff fc 	movl   $0xfffffffc,-0x218(%rbp)
   108b2:	ff ff ff 
   108b5:	c7 85 ec fd ff ff 09 	movl   $0x9,-0x214(%rbp)
   108bc:	00 00 00 
   108bf:	c7 85 f0 fd ff ff 45 	movl   $0x8d955545,-0x210(%rbp)
   108c6:	55 95 8d 
   108c9:	c7 85 f4 fd ff ff 0d 	movl   $0xdea6bf0d,-0x20c(%rbp)
   108d0:	bf a6 de 
   108d3:	c7 85 f8 fd ff ff ff 	movl   $0xffffffff,-0x208(%rbp)
   108da:	ff ff ff 
   108dd:	c7 85 fc fd ff ff 01 	movl   $0x1,-0x204(%rbp)
   108e4:	00 00 00 
   108e7:	c6 05 9e c6 00 00 05 	movb   $0x5,0xc69e(%rip)        # 1cf8c <g_73>
   108ee:	e9 30 03 00 00       	jmpq   10c23 <func_87+0x550>
   108f3:	66 c7 85 da fb ff ff 	movw   $0x8,-0x426(%rbp)
   108fa:	08 00 
   108fc:	48 c7 85 80 fc ff ff 	movq   $0x0,-0x380(%rbp)
   10903:	00 00 00 00 
   10907:	48 c7 85 88 fc ff ff 	movq   $0x0,-0x378(%rbp)
   1090e:	00 00 00 00 
   10912:	48 c7 85 90 fc ff ff 	movq   $0x0,-0x370(%rbp)
   10919:	00 00 00 00 
   1091d:	48 c7 85 98 fc ff ff 	movq   $0x0,-0x368(%rbp)
   10924:	00 00 00 00 
   10928:	48 c7 85 a0 fc ff ff 	movq   $0x0,-0x360(%rbp)
   1092f:	00 00 00 00 
   10933:	48 c7 85 a8 fc ff ff 	movq   $0x0,-0x358(%rbp)
   1093a:	00 00 00 00 
   1093e:	48 c7 85 38 fc ff ff 	movq   $0x0,-0x3c8(%rbp)
   10945:	00 00 00 00 
   10949:	c7 85 e4 fb ff ff ff 	movl   $0xc86fafff,-0x41c(%rbp)
   10950:	af 6f c8 
   10953:	48 8d 05 50 9f 00 00 	lea    0x9f50(%rip),%rax        # 1a8aa <g_346>
   1095a:	48 89 85 40 fc ff ff 	mov    %rax,-0x3c0(%rbp)
   10961:	c7 85 f0 fc ff ff f9 	movl   $0xfffffff9,-0x310(%rbp)
   10968:	ff ff ff 
   1096b:	c7 85 f4 fc ff ff 09 	movl   $0x9,-0x30c(%rbp)
   10972:	00 00 00 
   10975:	c7 85 f8 fc ff ff f9 	movl   $0xfffffff9,-0x308(%rbp)
   1097c:	ff ff ff 
   1097f:	c7 85 fc fc ff ff 5a 	movl   $0x627c325a,-0x304(%rbp)
   10986:	32 7c 62 
   10989:	c7 85 00 fd ff ff 00 	movl   $0x0,-0x300(%rbp)
   10990:	00 00 00 
   10993:	c7 85 04 fd ff ff 0a 	movl   $0x925f650a,-0x2fc(%rbp)
   1099a:	65 5f 92 
   1099d:	c7 85 08 fd ff ff dc 	movl   $0xad6d87dc,-0x2f8(%rbp)
   109a4:	87 6d ad 
   109a7:	c7 85 0c fd ff ff 00 	movl   $0x0,-0x2f4(%rbp)
   109ae:	00 00 00 
   109b1:	c7 85 10 fd ff ff dc 	movl   $0xad6d87dc,-0x2f0(%rbp)
   109b8:	87 6d ad 
   109bb:	c7 85 14 fd ff ff 0a 	movl   $0x925f650a,-0x2ec(%rbp)
   109c2:	65 5f 92 
   109c5:	c7 85 18 fd ff ff f9 	movl   $0xfffffff9,-0x2e8(%rbp)
   109cc:	ff ff ff 
   109cf:	c7 85 1c fd ff ff dc 	movl   $0xad6d87dc,-0x2e4(%rbp)
   109d6:	87 6d ad 
   109d9:	c7 85 20 fd ff ff 09 	movl   $0x9,-0x2e0(%rbp)
   109e0:	00 00 00 
   109e3:	c7 85 24 fd ff ff 0a 	movl   $0x925f650a,-0x2dc(%rbp)
   109ea:	65 5f 92 
   109ed:	c7 85 28 fd ff ff 09 	movl   $0x9,-0x2d8(%rbp)
   109f4:	00 00 00 
   109f7:	c7 85 2c fd ff ff 09 	movl   $0x9,-0x2d4(%rbp)
   109fe:	00 00 00 
   10a01:	c7 85 30 fd ff ff 09 	movl   $0x9,-0x2d0(%rbp)
   10a08:	00 00 00 
   10a0b:	c7 85 34 fd ff ff 00 	movl   $0x0,-0x2cc(%rbp)
   10a12:	00 00 00 
   10a15:	c7 85 38 fd ff ff 0a 	movl   $0x925f650a,-0x2c8(%rbp)
   10a1c:	65 5f 92 
   10a1f:	c7 85 3c fd ff ff b7 	movl   $0x4c4d09b7,-0x2c4(%rbp)
   10a26:	09 4d 4c 
   10a29:	c7 85 40 fd ff ff dc 	movl   $0xad6d87dc,-0x2c0(%rbp)
   10a30:	87 6d ad 
   10a33:	c7 85 44 fd ff ff f9 	movl   $0xfffffff9,-0x2bc(%rbp)
   10a3a:	ff ff ff 
   10a3d:	c7 85 48 fd ff ff f9 	movl   $0xfffffff9,-0x2b8(%rbp)
   10a44:	ff ff ff 
   10a47:	c7 85 4c fd ff ff dc 	movl   $0xad6d87dc,-0x2b4(%rbp)
   10a4e:	87 6d ad 
   10a51:	c7 85 50 fd ff ff 09 	movl   $0x9,-0x2b0(%rbp)
   10a58:	00 00 00 
   10a5b:	c7 85 54 fd ff ff dc 	movl   $0xad6d87dc,-0x2ac(%rbp)
   10a62:	87 6d ad 
   10a65:	c7 85 58 fd ff ff 0a 	movl   $0x925f650a,-0x2a8(%rbp)
   10a6c:	65 5f 92 
   10a6f:	c7 85 5c fd ff ff 5a 	movl   $0x627c325a,-0x2a4(%rbp)
   10a76:	32 7c 62 
   10a79:	c7 85 60 fd ff ff 5a 	movl   $0x627c325a,-0x2a0(%rbp)
   10a80:	32 7c 62 
   10a83:	c7 85 64 fd ff ff 0a 	movl   $0x925f650a,-0x29c(%rbp)
   10a8a:	65 5f 92 
   10a8d:	48 8d 05 0c c5 00 00 	lea    0xc50c(%rip),%rax        # 1cfa0 <g_879>
   10a94:	48 89 85 48 fc ff ff 	mov    %rax,-0x3b8(%rbp)
   10a9b:	48 8d 85 10 fc ff ff 	lea    -0x3f0(%rbp),%rax
   10aa2:	48 89 85 50 fc ff ff 	mov    %rax,-0x3b0(%rbp)
   10aa9:	66 c7 05 d8 c4 00 00 	movw   $0x0,0xc4d8(%rip)        # 1cf8a <g_50>
   10ab0:	00 00 
   10ab2:	e9 2e 01 00 00       	jmpq   10be5 <func_87+0x512>
   10ab7:	c7 85 e8 fb ff ff 01 	movl   $0x1,-0x418(%rbp)
   10abe:	00 00 00 
   10ac1:	48 8d 05 88 95 00 00 	lea    0x9588(%rip),%rax        # 1a050 <g_100>
   10ac8:	48 89 85 58 fc ff ff 	mov    %rax,-0x3a8(%rbp)
   10acf:	48 8d 05 82 95 00 00 	lea    0x9582(%rip),%rax        # 1a058 <g_115>
   10ad6:	48 89 85 b0 fc ff ff 	mov    %rax,-0x350(%rbp)
   10add:	48 8d 05 74 95 00 00 	lea    0x9574(%rip),%rax        # 1a058 <g_115>
   10ae4:	48 89 85 b8 fc ff ff 	mov    %rax,-0x348(%rbp)
   10aeb:	48 8d 05 66 95 00 00 	lea    0x9566(%rip),%rax        # 1a058 <g_115>
   10af2:	48 89 85 c0 fc ff ff 	mov    %rax,-0x340(%rbp)
   10af9:	48 8d 05 58 95 00 00 	lea    0x9558(%rip),%rax        # 1a058 <g_115>
   10b00:	48 89 85 c8 fc ff ff 	mov    %rax,-0x338(%rbp)
   10b07:	48 8d 05 4a 95 00 00 	lea    0x954a(%rip),%rax        # 1a058 <g_115>
   10b0e:	48 89 85 d0 fc ff ff 	mov    %rax,-0x330(%rbp)
   10b15:	48 8d 05 3c 95 00 00 	lea    0x953c(%rip),%rax        # 1a058 <g_115>
   10b1c:	48 89 85 d8 fc ff ff 	mov    %rax,-0x328(%rbp)
   10b23:	48 8d 05 2e 95 00 00 	lea    0x952e(%rip),%rax        # 1a058 <g_115>
   10b2a:	48 89 85 e0 fc ff ff 	mov    %rax,-0x320(%rbp)
   10b31:	48 8d 05 20 95 00 00 	lea    0x9520(%rip),%rax        # 1a058 <g_115>
   10b38:	48 89 85 e8 fc ff ff 	mov    %rax,-0x318(%rbp)
   10b3f:	48 8d 05 e4 94 00 00 	lea    0x94e4(%rip),%rax        # 1a02a <g_46+0x2>
   10b46:	48 89 85 60 fc ff ff 	mov    %rax,-0x3a0(%rbp)
   10b4d:	c7 85 ec fb ff ff 6d 	movl   $0xe5c63b6d,-0x414(%rbp)
   10b54:	3b c6 e5 
   10b57:	48 c7 85 68 fc ff ff 	movq   $0x0,-0x398(%rbp)
   10b5e:	00 00 00 00 
   10b62:	48 8d 05 5f 98 00 00 	lea    0x985f(%rip),%rax        # 1a3c8 <g_196+0x348>
   10b69:	48 89 85 70 fc ff ff 	mov    %rax,-0x390(%rbp)
   10b70:	c7 85 f0 fb ff ff 00 	movl   $0x0,-0x410(%rbp)
   10b77:	00 00 00 
   10b7a:	c7 85 f4 fb ff ff 59 	movl   $0x2dfbfc59,-0x40c(%rbp)
   10b81:	fc fb 2d 
   10b84:	c7 85 f8 fb ff ff f8 	movl   $0xfffffff8,-0x408(%rbp)
   10b8b:	ff ff ff 
   10b8e:	c7 85 fc fb ff ff cd 	movl   $0xbaaa19cd,-0x404(%rbp)
   10b95:	19 aa ba 
   10b98:	c7 85 00 fc ff ff 1c 	movl   $0xa4c17e1c,-0x400(%rbp)
   10b9f:	7e c1 a4 
   10ba2:	c7 85 04 fc ff ff 3a 	movl   $0x5b9e4a3a,-0x3fc(%rbp)
   10ba9:	4a 9e 5b 
   10bac:	c7 85 08 fc ff ff 00 	movl   $0x0,-0x3f8(%rbp)
   10bb3:	00 00 00 
   10bb6:	c7 85 0c fc ff ff 41 	movl   $0xbb9eff41,-0x3f4(%rbp)
   10bbd:	ff 9e bb 
   10bc0:	48 8d 85 00 fe ff ff 	lea    -0x200(%rbp),%rax
   10bc7:	48 05 a8 01 00 00    	add    $0x1a8,%rax
   10bcd:	48 89 85 78 fc ff ff 	mov    %rax,-0x388(%rbp)
   10bd4:	0f b7 05 af c3 00 00 	movzwl 0xc3af(%rip),%eax        # 1cf8a <g_50>
   10bdb:	83 c0 01             	add    $0x1,%eax
   10bde:	66 89 05 a5 c3 00 00 	mov    %ax,0xc3a5(%rip)        # 1cf8a <g_50>
   10be5:	0f b7 05 9e c3 00 00 	movzwl 0xc39e(%rip),%eax        # 1cf8a <g_50>
   10bec:	66 83 f8 04          	cmp    $0x4,%ax
   10bf0:	0f 87 c1 fe ff ff    	ja     10ab7 <func_87+0x3e4>
   10bf6:	48 8b 85 50 fc ff ff 	mov    -0x3b0(%rbp),%rax
   10bfd:	48 8d 95 dc fb ff ff 	lea    -0x424(%rbp),%rdx
   10c04:	48 89 10             	mov    %rdx,(%rax)
   10c07:	0f b6 05 7e c3 00 00 	movzbl 0xc37e(%rip),%eax        # 1cf8c <g_73>
   10c0e:	0f b6 c0             	movzbl %al,%eax
   10c11:	be 04 00 00 00       	mov    $0x4,%esi
   10c16:	89 c7                	mov    %eax,%edi
   10c18:	e8 96 47 ff ff       	callq  53b3 <safe_add_func_int16_t_s_s>
   10c1d:	88 05 69 c3 00 00    	mov    %al,0xc369(%rip)        # 1cf8c <g_73>
   10c23:	0f b6 05 62 c3 00 00 	movzbl 0xc362(%rip),%eax        # 1cf8c <g_73>
   10c2a:	3c 21                	cmp    $0x21,%al
   10c2c:	0f 87 c1 fc ff ff    	ja     108f3 <func_87+0x220>
   10c32:	48 8b 85 c0 fb ff ff 	mov    -0x440(%rbp),%rax
   10c39:	48 8b 4d f8          	mov    -0x8(%rbp),%rcx
   10c3d:	64 48 33 0c 25 28 00 	xor    %fs:0x28,%rcx
   10c44:	00 00 
   10c46:	74 05                	je     10c4d <func_87+0x57a>
   10c48:	e8 23 44 ff ff       	callq  5070 <__stack_chk_fail@plt>
   10c4d:	c9                   	leaveq 
   10c4e:	c3                   	retq   

0000000000010c4f <func_104>:
   10c4f:	f3 0f 1e fa          	endbr64 
   10c53:	55                   	push   %rbp
   10c54:	48 89 e5             	mov    %rsp,%rbp
   10c57:	41 57                	push   %r15
   10c59:	41 56                	push   %r14
   10c5b:	41 55                	push   %r13
   10c5d:	41 54                	push   %r12
   10c5f:	53                   	push   %rbx
   10c60:	48 81 ec 88 07 00 00 	sub    $0x788,%rsp
   10c67:	89 fa                	mov    %edi,%edx
   10c69:	89 f0                	mov    %esi,%eax
   10c6b:	88 95 5c f8 ff ff    	mov    %dl,-0x7a4(%rbp)
   10c71:	88 85 58 f8 ff ff    	mov    %al,-0x7a8(%rbp)
   10c77:	64 48 8b 04 25 28 00 	mov    %fs:0x28,%rax
   10c7e:	00 00 
   10c80:	48 89 45 c8          	mov    %rax,-0x38(%rbp)
   10c84:	31 c0                	xor    %eax,%eax
   10c86:	66 c7 85 68 f8 ff ff 	movw   $0xffff,-0x798(%rbp)
   10c8d:	ff ff 
   10c8f:	c7 85 74 f8 ff ff f9 	movl   $0x4ce853f9,-0x78c(%rbp)
   10c96:	53 e8 4c 
   10c99:	c7 85 78 f8 ff ff 2e 	movl   $0x3a222c2e,-0x788(%rbp)
   10ca0:	2c 22 3a 
   10ca3:	c7 85 7c f8 ff ff 01 	movl   $0x1,-0x784(%rbp)
   10caa:	00 00 00 
   10cad:	c7 85 80 f8 ff ff ff 	movl   $0xffffffff,-0x780(%rbp)
   10cb4:	ff ff ff 
   10cb7:	c7 85 90 f8 ff ff fa 	movl   $0x31e6fa,-0x770(%rbp)
   10cbe:	e6 31 00 
   10cc1:	c7 85 84 f8 ff ff 75 	movl   $0xd6455675,-0x77c(%rbp)
   10cc8:	56 45 d6 
   10ccb:	c7 85 b4 f8 ff ff 5f 	movl   $0xf28e4c5f,-0x74c(%rbp)
   10cd2:	4c 8e f2 
   10cd5:	c7 85 30 fa ff ff 08 	movl   $0x8,-0x5d0(%rbp)
   10cdc:	00 00 00 
   10cdf:	c7 85 34 fa ff ff 08 	movl   $0x8,-0x5cc(%rbp)
   10ce6:	00 00 00 
   10ce9:	c7 85 38 fa ff ff 9f 	movl   $0xae149a9f,-0x5c8(%rbp)
   10cf0:	9a 14 ae 
   10cf3:	c7 85 3c fa ff ff 08 	movl   $0x8,-0x5c4(%rbp)
   10cfa:	00 00 00 
   10cfd:	c7 85 40 fa ff ff 08 	movl   $0x8,-0x5c0(%rbp)
   10d04:	00 00 00 
   10d07:	c7 85 44 fa ff ff 9f 	movl   $0xae149a9f,-0x5bc(%rbp)
   10d0e:	9a 14 ae 
   10d11:	c6 85 64 f8 ff ff a4 	movb   $0xa4,-0x79c(%rbp)
   10d18:	48 8d 05 85 9b 00 00 	lea    0x9b85(%rip),%rax        # 1a8a4 <g_249>
   10d1f:	48 89 85 28 f9 ff ff 	mov    %rax,-0x6d8(%rbp)
   10d26:	c7 85 b8 f8 ff ff 5f 	movl   $0x264d085f,-0x748(%rbp)
   10d2d:	08 4d 26 
   10d30:	66 c7 85 6e f8 ff ff 	movw   $0xbc61,-0x792(%rbp)
   10d37:	61 bc 
   10d39:	48 c7 85 00 f9 ff ff 	movq   $0xfffffffffffffffc,-0x700(%rbp)
   10d40:	fc ff ff ff 
   10d44:	c7 85 94 f8 ff ff 78 	movl   $0x80d8178,-0x76c(%rbp)
   10d4b:	81 0d 08 
   10d4e:	66 c7 85 70 f8 ff ff 	movw   $0xffff,-0x790(%rbp)
   10d55:	ff ff 
   10d57:	c7 85 00 fb ff ff 35 	movl   $0xaeae5535,-0x500(%rbp)
   10d5e:	55 ae ae 
   10d61:	c7 85 04 fb ff ff ff 	movl   $0xffffffff,-0x4fc(%rbp)
   10d68:	ff ff ff 
   10d6b:	c7 85 08 fb ff ff ff 	movl   $0xffffffff,-0x4f8(%rbp)
   10d72:	ff ff ff 
   10d75:	c7 85 0c fb ff ff e0 	movl   $0x54904ae0,-0x4f4(%rbp)
   10d7c:	4a 90 54 
   10d7f:	c7 85 10 fb ff ff ff 	movl   $0xffffffff,-0x4f0(%rbp)
   10d86:	ff ff ff 
   10d89:	c7 85 14 fb ff ff ff 	movl   $0xffffffff,-0x4ec(%rbp)
   10d90:	ff ff ff 
   10d93:	c7 85 18 fb ff ff 35 	movl   $0xaeae5535,-0x4e8(%rbp)
   10d9a:	55 ae ae 
   10d9d:	c7 85 1c fb ff ff 35 	movl   $0xaeae5535,-0x4e4(%rbp)
   10da4:	55 ae ae 
   10da7:	c7 85 20 fb ff ff ff 	movl   $0xffffffff,-0x4e0(%rbp)
   10dae:	ff ff ff 
   10db1:	c7 85 24 fb ff ff ff 	movl   $0xffffffff,-0x4dc(%rbp)
   10db8:	ff ff ff 
   10dbb:	c7 85 28 fb ff ff e0 	movl   $0x54904ae0,-0x4d8(%rbp)
   10dc2:	4a 90 54 
   10dc5:	c7 85 2c fb ff ff ff 	movl   $0xffffffff,-0x4d4(%rbp)
   10dcc:	ff ff ff 
   10dcf:	c7 85 30 fb ff ff ff 	movl   $0xffffffff,-0x4d0(%rbp)
   10dd6:	ff ff ff 
   10dd9:	c7 85 34 fb ff ff 35 	movl   $0xaeae5535,-0x4cc(%rbp)
   10de0:	55 ae ae 
   10de3:	c7 85 38 fb ff ff 35 	movl   $0xaeae5535,-0x4c8(%rbp)
   10dea:	55 ae ae 
   10ded:	c7 85 3c fb ff ff ff 	movl   $0xffffffff,-0x4c4(%rbp)
   10df4:	ff ff ff 
   10df7:	c7 85 40 fb ff ff ff 	movl   $0xffffffff,-0x4c0(%rbp)
   10dfe:	ff ff ff 
   10e01:	c7 85 44 fb ff ff e0 	movl   $0x54904ae0,-0x4bc(%rbp)
   10e08:	4a 90 54 
   10e0b:	c7 85 48 fb ff ff ff 	movl   $0xffffffff,-0x4b8(%rbp)
   10e12:	ff ff ff 
   10e15:	c7 85 4c fb ff ff ff 	movl   $0xffffffff,-0x4b4(%rbp)
   10e1c:	ff ff ff 
   10e1f:	48 8d 85 50 fb ff ff 	lea    -0x4b0(%rbp),%rax
   10e26:	48 83 c0 08          	add    $0x8,%rax
   10e2a:	48 89 85 30 f9 ff ff 	mov    %rax,-0x6d0(%rbp)
   10e31:	48 c7 85 38 f9 ff ff 	movq   $0x0,-0x6c8(%rbp)
   10e38:	00 00 00 00 
   10e3c:	48 8d 05 8d af 00 00 	lea    0xaf8d(%rip),%rax        # 1bdd0 <g_267>
   10e43:	48 89 85 40 f9 ff ff 	mov    %rax,-0x6c0(%rbp)
   10e4a:	c7 85 98 f8 ff ff 00 	movl   $0x0,-0x768(%rbp)
   10e51:	00 00 00 
   10e54:	eb 1e                	jmp    10e74 <func_104+0x225>
   10e56:	8b 85 98 f8 ff ff    	mov    -0x768(%rbp),%eax
   10e5c:	48 98                	cltq   
   10e5e:	48 8d 15 f3 91 00 00 	lea    0x91f3(%rip),%rdx        # 1a058 <g_115>
   10e65:	48 89 94 c5 50 fb ff 	mov    %rdx,-0x4b0(%rbp,%rax,8)
   10e6c:	ff 
   10e6d:	83 85 98 f8 ff ff 01 	addl   $0x1,-0x768(%rbp)
   10e74:	83 bd 98 f8 ff ff 09 	cmpl   $0x9,-0x768(%rbp)
   10e7b:	7e d9                	jle    10e56 <func_104+0x207>
   10e7d:	c6 85 58 f8 ff ff 00 	movb   $0x0,-0x7a8(%rbp)
   10e84:	e9 e2 0e 00 00       	jmpq   11d6b <func_104+0x111c>
   10e89:	c7 85 88 f8 ff ff 68 	movl   $0x7f0c868,-0x778(%rbp)
   10e90:	c8 f0 07 
   10e93:	48 8d 05 c6 91 00 00 	lea    0x91c6(%rip),%rax        # 1a060 <g_137>
   10e9a:	48 89 85 a0 fb ff ff 	mov    %rax,-0x460(%rbp)
   10ea1:	48 8d 05 e4 c0 00 00 	lea    0xc0e4(%rip),%rax        # 1cf8c <g_73>
   10ea8:	48 89 85 a8 fb ff ff 	mov    %rax,-0x458(%rbp)
   10eaf:	48 8d 05 aa 91 00 00 	lea    0x91aa(%rip),%rax        # 1a060 <g_137>
   10eb6:	48 89 85 b0 fb ff ff 	mov    %rax,-0x450(%rbp)
   10ebd:	48 8d 05 c8 c0 00 00 	lea    0xc0c8(%rip),%rax        # 1cf8c <g_73>
   10ec4:	48 89 85 b8 fb ff ff 	mov    %rax,-0x448(%rbp)
   10ecb:	48 8d 05 8e 91 00 00 	lea    0x918e(%rip),%rax        # 1a060 <g_137>
   10ed2:	48 89 85 c0 fb ff ff 	mov    %rax,-0x440(%rbp)
   10ed9:	48 8d 05 ac c0 00 00 	lea    0xc0ac(%rip),%rax        # 1cf8c <g_73>
   10ee0:	48 89 85 c8 fb ff ff 	mov    %rax,-0x438(%rbp)
   10ee7:	48 8d 05 72 91 00 00 	lea    0x9172(%rip),%rax        # 1a060 <g_137>
   10eee:	48 89 85 d0 fb ff ff 	mov    %rax,-0x430(%rbp)
   10ef5:	48 8d 05 90 c0 00 00 	lea    0xc090(%rip),%rax        # 1cf8c <g_73>
   10efc:	48 89 85 d8 fb ff ff 	mov    %rax,-0x428(%rbp)
   10f03:	48 8d 05 56 91 00 00 	lea    0x9156(%rip),%rax        # 1a060 <g_137>
   10f0a:	48 89 85 e0 fb ff ff 	mov    %rax,-0x420(%rbp)
   10f11:	48 8d 05 74 c0 00 00 	lea    0xc074(%rip),%rax        # 1cf8c <g_73>
   10f18:	48 89 85 e8 fb ff ff 	mov    %rax,-0x418(%rbp)
   10f1f:	66 c7 85 6a f8 ff ff 	movw   $0xce3e,-0x796(%rbp)
   10f26:	3e ce 
   10f28:	48 8d 85 6a f8 ff ff 	lea    -0x796(%rbp),%rax
   10f2f:	48 89 85 b0 f9 ff ff 	mov    %rax,-0x650(%rbp)
   10f36:	48 8d 05 6c 99 00 00 	lea    0x996c(%rip),%rax        # 1a8a9 <g_345+0x4>
   10f3d:	48 89 85 08 f9 ff ff 	mov    %rax,-0x6f8(%rbp)
   10f44:	48 8d 85 68 f8 ff ff 	lea    -0x798(%rbp),%rax
   10f4b:	48 89 85 b8 f9 ff ff 	mov    %rax,-0x648(%rbp)
   10f52:	48 8d 05 15 91 00 00 	lea    0x9115(%rip),%rax        # 1a06e <g_171>
   10f59:	48 89 85 c0 f9 ff ff 	mov    %rax,-0x640(%rbp)
   10f60:	c7 85 9c f8 ff ff 07 	movl   $0x57216a07,-0x764(%rbp)
   10f67:	6a 21 57 
   10f6a:	c7 85 d8 f8 ff ff 4b 	movl   $0x63a5e84b,-0x728(%rbp)
   10f71:	e8 a5 63 
   10f74:	c7 85 8c f8 ff ff 06 	movl   $0x6,-0x774(%rbp)
   10f7b:	00 00 00 
   10f7e:	c7 85 dc f8 ff ff 7f 	movl   $0x91070f7f,-0x724(%rbp)
   10f85:	0f 07 91 
   10f88:	c7 85 a0 f8 ff ff 1b 	movl   $0xda73571b,-0x760(%rbp)
   10f8f:	57 73 da 
   10f92:	c7 85 e0 f8 ff ff 06 	movl   $0x6,-0x720(%rbp)
   10f99:	00 00 00 
   10f9c:	c7 85 70 fa ff ff 52 	movl   $0x7e3d8b52,-0x590(%rbp)
   10fa3:	8b 3d 7e 
   10fa6:	c7 85 74 fa ff ff 00 	movl   $0x0,-0x58c(%rbp)
   10fad:	00 00 00 
   10fb0:	c7 85 78 fa ff ff 52 	movl   $0x7e3d8b52,-0x588(%rbp)
   10fb7:	8b 3d 7e 
   10fba:	c7 85 7c fa ff ff 00 	movl   $0x0,-0x584(%rbp)
   10fc1:	00 00 00 
   10fc4:	c7 85 80 fa ff ff 52 	movl   $0x7e3d8b52,-0x580(%rbp)
   10fcb:	8b 3d 7e 
   10fce:	c7 85 84 fa ff ff 00 	movl   $0x0,-0x57c(%rbp)
   10fd5:	00 00 00 
   10fd8:	c7 85 88 fa ff ff 52 	movl   $0x7e3d8b52,-0x578(%rbp)
   10fdf:	8b 3d 7e 
   10fe2:	c7 85 8c fa ff ff 00 	movl   $0x0,-0x574(%rbp)
   10fe9:	00 00 00 
   10fec:	c6 85 66 f8 ff ff 41 	movb   $0x41,-0x79a(%rbp)
   10ff3:	48 8d 05 d6 ad 00 00 	lea    0xadd6(%rip),%rax        # 1bdd0 <g_267>
   10ffa:	48 89 85 c8 f9 ff ff 	mov    %rax,-0x638(%rbp)
   11001:	c7 85 e4 f8 ff ff 6d 	movl   $0x6216416d,-0x71c(%rbp)
   11008:	41 16 62 
   1100b:	48 8b 05 be ad 00 00 	mov    0xadbe(%rip),%rax        # 1bdd0 <g_267>
   11012:	c7 00 25 f8 ea ab    	movl   $0xabeaf825,(%rax)
   11018:	8b 85 88 f8 ff ff    	mov    -0x778(%rbp),%eax
   1101e:	41 89 c7             	mov    %eax,%r15d
   11021:	0f b7 85 6a f8 ff ff 	movzwl -0x796(%rbp),%eax
   11028:	0f bf d8             	movswl %ax,%ebx
   1102b:	80 bd 5c f8 ff ff 00 	cmpb   $0x0,-0x7a4(%rbp)
   11032:	0f 84 9e 01 00 00    	je     111d6 <func_104+0x587>
   11038:	0f b6 85 5c f8 ff ff 	movzbl -0x7a4(%rbp),%eax
   1103f:	be 23 a7 00 00       	mov    $0xa723,%esi
   11044:	89 c7                	mov    %eax,%edi
   11046:	e8 11 4d ff ff       	callq  5d5c <safe_mod_func_uint16_t_u_u>
   1104b:	66 85 c0             	test   %ax,%ax
   1104e:	0f 84 1c 01 00 00    	je     11170 <func_104+0x521>
   11054:	8b 05 d2 8f 00 00    	mov    0x8fd2(%rip),%eax        # 1a02c <g_47>
   1105a:	44 0f b6 a5 5c f8 ff 	movzbl -0x7a4(%rbp),%r12d
   11061:	ff 
   11062:	48 8b 05 5f 93 00 00 	mov    0x935f(%rip),%rax        # 1a3c8 <g_196+0x348>
   11069:	44 0f b6 e8          	movzbl %al,%r13d
   1106d:	0f b7 85 68 f8 ff ff 	movzwl -0x798(%rbp),%eax
   11074:	44 0f b7 f0          	movzwl %ax,%r14d
   11078:	0f b7 85 68 f8 ff ff 	movzwl -0x798(%rbp),%eax
   1107f:	0f b7 d0             	movzwl %ax,%edx
   11082:	0f b6 05 e2 8f 00 00 	movzbl 0x8fe2(%rip),%eax        # 1a06b <g_156>
   11089:	0f be c0             	movsbl %al,%eax
   1108c:	39 c2                	cmp    %eax,%edx
   1108e:	0f 9f c0             	setg   %al
   11091:	0f b6 c0             	movzbl %al,%eax
   11094:	be 36 00 00 00       	mov    $0x36,%esi
   11099:	89 c7                	mov    %eax,%edi
   1109b:	e8 3b 4b ff ff       	callq  5bdb <safe_div_func_uint8_t_u_u>
   110a0:	0f b6 d0             	movzbl %al,%edx
   110a3:	0f b7 85 68 f8 ff ff 	movzwl -0x798(%rbp),%eax
   110aa:	0f b7 c0             	movzwl %ax,%eax
   110ad:	31 c2                	xor    %eax,%edx
   110af:	8b 85 88 f8 ff ff    	mov    -0x778(%rbp),%eax
   110b5:	39 c2                	cmp    %eax,%edx
   110b7:	0f 9c c0             	setl   %al
   110ba:	0f b6 c0             	movzbl %al,%eax
   110bd:	be 06 00 00 00       	mov    $0x6,%esi
   110c2:	89 c7                	mov    %eax,%edi
   110c4:	e8 6c 42 ff ff       	callq  5335 <safe_rshift_func_int8_t_s_s>
   110c9:	0f be c0             	movsbl %al,%eax
   110cc:	44 89 f2             	mov    %r14d,%edx
   110cf:	31 c2                	xor    %eax,%edx
   110d1:	0f b6 85 58 f8 ff ff 	movzbl -0x7a8(%rbp),%eax
   110d8:	0f be c0             	movsbl %al,%eax
   110db:	39 c2                	cmp    %eax,%edx
   110dd:	0f 94 c0             	sete   %al
   110e0:	0f b6 d0             	movzbl %al,%edx
   110e3:	0f b7 85 68 f8 ff ff 	movzwl -0x798(%rbp),%eax
   110ea:	0f be c0             	movsbl %al,%eax
   110ed:	89 d6                	mov    %edx,%esi
   110ef:	89 c7                	mov    %eax,%edi
   110f1:	e8 3f 42 ff ff       	callq  5335 <safe_rshift_func_int8_t_s_s>
   110f6:	66 0f be d0          	movsbw %al,%dx
   110fa:	0f b7 05 7f 97 00 00 	movzwl 0x977f(%rip),%eax        # 1a880 <g_219>
   11101:	66 39 c2             	cmp    %ax,%dx
   11104:	0f 9e c0             	setle  %al
   11107:	0f b6 c0             	movzbl %al,%eax
   1110a:	be d7 00 00 00       	mov    $0xd7,%esi
   1110f:	89 c7                	mov    %eax,%edi
   11111:	e8 c5 4a ff ff       	callq  5bdb <safe_div_func_uint8_t_u_u>
   11116:	0f b6 c0             	movzbl %al,%eax
   11119:	44 89 ee             	mov    %r13d,%esi
   1111c:	89 c7                	mov    %eax,%edi
   1111e:	e8 8b 4a ff ff       	callq  5bae <safe_mod_func_uint8_t_u_u>
   11123:	0f b6 c0             	movzbl %al,%eax
   11126:	4c 89 e6             	mov    %r12,%rsi
   11129:	48 89 c7             	mov    %rax,%rdi
   1112c:	e8 4f 4f ff ff       	callq  6080 <safe_mod_func_uint64_t_u_u>
   11131:	48 83 f8 67          	cmp    $0x67,%rax
   11135:	0f 94 c0             	sete   %al
   11138:	0f b6 c0             	movzbl %al,%eax
   1113b:	89 85 74 f8 ff ff    	mov    %eax,-0x78c(%rbp)
   11141:	8b 85 74 f8 ff ff    	mov    -0x78c(%rbp),%eax
   11147:	3d ff ff 00 00       	cmp    $0xffff,%eax
   1114c:	0f 94 c0             	sete   %al
   1114f:	0f b6 c0             	movzbl %al,%eax
   11152:	be 09 00 00 00       	mov    $0x9,%esi
   11157:	89 c7                	mov    %eax,%edi
   11159:	e8 1c 4d ff ff       	callq  5e7a <safe_rshift_func_uint16_t_u_u>
   1115e:	0f b7 c0             	movzwl %ax,%eax
   11161:	83 e0 09             	and    $0x9,%eax
   11164:	48 85 c0             	test   %rax,%rax
   11167:	74 07                	je     11170 <func_104+0x521>
   11169:	b8 01 00 00 00       	mov    $0x1,%eax
   1116e:	eb 05                	jmp    11175 <func_104+0x526>
   11170:	b8 00 00 00 00       	mov    $0x0,%eax
   11175:	48 63 d0             	movslq %eax,%rdx
   11178:	48 8b 05 19 97 00 00 	mov    0x9719(%rip),%rax        # 1a898 <g_221>
   1117f:	48 39 c2             	cmp    %rax,%rdx
   11182:	0f 97 c0             	seta   %al
   11185:	0f b6 c0             	movzbl %al,%eax
   11188:	be 00 00 00 00       	mov    $0x0,%esi
   1118d:	89 c7                	mov    %eax,%edi
   1118f:	e8 a1 41 ff ff       	callq  5335 <safe_rshift_func_int8_t_s_s>
   11194:	84 c0                	test   %al,%al
   11196:	0f 9f c0             	setg   %al
   11199:	88 05 0d 97 00 00    	mov    %al,0x970d(%rip)        # 1a8ac <g_346+0x2>
   1119f:	0f b7 85 68 f8 ff ff 	movzwl -0x798(%rbp),%eax
   111a6:	0f b7 c0             	movzwl %ax,%eax
   111a9:	89 85 78 f8 ff ff    	mov    %eax,-0x788(%rbp)
   111af:	8b 95 78 f8 ff ff    	mov    -0x788(%rbp),%edx
   111b5:	0f b7 05 ce bd 00 00 	movzwl 0xbdce(%rip),%eax        # 1cf8a <g_50>
   111bc:	0f b7 c0             	movzwl %ax,%eax
   111bf:	21 c2                	and    %eax,%edx
   111c1:	0f b6 85 58 f8 ff ff 	movzbl -0x7a8(%rbp),%eax
   111c8:	0f be c0             	movsbl %al,%eax
   111cb:	39 c2                	cmp    %eax,%edx
   111cd:	74 07                	je     111d6 <func_104+0x587>
   111cf:	b8 01 00 00 00       	mov    $0x1,%eax
   111d4:	eb 05                	jmp    111db <func_104+0x58c>
   111d6:	b8 00 00 00 00       	mov    $0x0,%eax
   111db:	0f b7 c0             	movzwl %ax,%eax
   111de:	89 de                	mov    %ebx,%esi
   111e0:	89 c7                	mov    %eax,%edi
   111e2:	e8 d7 4b ff ff       	callq  5dbe <safe_lshift_func_uint16_t_u_s>
   111e7:	98                   	cwtl   
   111e8:	44 89 fe             	mov    %r15d,%esi
   111eb:	89 c7                	mov    %eax,%edi
   111ed:	e8 ef 42 ff ff       	callq  54e1 <safe_lshift_func_int16_t_s_u>
   111f2:	48 8b 95 b0 f9 ff ff 	mov    -0x650(%rbp),%rdx
   111f9:	66 89 02             	mov    %ax,(%rdx)
   111fc:	48 8b 85 b0 f9 ff ff 	mov    -0x650(%rbp),%rax
   11203:	0f b7 00             	movzwl (%rax),%eax
   11206:	0f bf c8             	movswl %ax,%ecx
   11209:	8b 95 88 f8 ff ff    	mov    -0x778(%rbp),%edx
   1120f:	48 8b 05 ba ab 00 00 	mov    0xabba(%rip),%rax        # 1bdd0 <g_267>
   11216:	09 ca                	or     %ecx,%edx
   11218:	89 10                	mov    %edx,(%rax)
   1121a:	48 8b 85 08 f9 ff ff 	mov    -0x6f8(%rbp),%rax
   11221:	0f b6 08             	movzbl (%rax),%ecx
   11224:	0f b6 95 5c f8 ff ff 	movzbl -0x7a4(%rbp),%edx
   1122b:	48 8b 85 08 f9 ff ff 	mov    -0x6f8(%rbp),%rax
   11232:	09 ca                	or     %ecx,%edx
   11234:	88 10                	mov    %dl,(%rax)
   11236:	0f b6 00             	movzbl (%rax),%eax
   11239:	84 c0                	test   %al,%al
   1123b:	0f 85 d9 00 00 00    	jne    1131a <func_104+0x6cb>
   11241:	0f b6 9d 5c f8 ff ff 	movzbl -0x7a4(%rbp),%ebx
   11248:	8b 85 78 f8 ff ff    	mov    -0x788(%rbp),%eax
   1124e:	44 0f b6 e0          	movzbl %al,%r12d
   11252:	0f b7 85 6a f8 ff ff 	movzwl -0x796(%rbp),%eax
   11259:	66 85 c0             	test   %ax,%ax
   1125c:	75 1c                	jne    1127a <func_104+0x62b>
   1125e:	48 8b 85 c0 f9 ff ff 	mov    -0x640(%rbp),%rax
   11265:	0f b7 00             	movzwl (%rax),%eax
   11268:	8d 48 01             	lea    0x1(%rax),%ecx
   1126b:	48 8b 95 c0 f9 ff ff 	mov    -0x640(%rbp),%rdx
   11272:	66 89 0a             	mov    %cx,(%rdx)
   11275:	66 85 c0             	test   %ax,%ax
   11278:	74 07                	je     11281 <func_104+0x632>
   1127a:	b8 01 00 00 00       	mov    $0x1,%eax
   1127f:	eb 05                	jmp    11286 <func_104+0x637>
   11281:	b8 00 00 00 00       	mov    $0x0,%eax
   11286:	0f b6 c0             	movzbl %al,%eax
   11289:	be 00 00 00 00       	mov    $0x0,%esi
   1128e:	89 c7                	mov    %eax,%edi
   11290:	e8 70 49 ff ff       	callq  5c05 <safe_lshift_func_uint8_t_u_s>
   11295:	0f b6 d0             	movzbl %al,%edx
   11298:	0f b6 85 58 f8 ff ff 	movzbl -0x7a8(%rbp),%eax
   1129f:	0f be c0             	movsbl %al,%eax
   112a2:	39 c2                	cmp    %eax,%edx
   112a4:	0f 9d c0             	setge  %al
   112a7:	0f b6 d0             	movzbl %al,%edx
   112aa:	48 8b 85 b8 f9 ff ff 	mov    -0x648(%rbp),%rax
   112b1:	0f b7 00             	movzwl (%rax),%eax
   112b4:	8d 70 01             	lea    0x1(%rax),%esi
   112b7:	48 8b 8d b8 f9 ff ff 	mov    -0x648(%rbp),%rcx
   112be:	66 89 31             	mov    %si,(%rcx)
   112c1:	66 83 f8 08          	cmp    $0x8,%ax
   112c5:	0f 95 c0             	setne  %al
   112c8:	0f b6 c8             	movzbl %al,%ecx
   112cb:	0f b6 05 d4 95 00 00 	movzbl 0x95d4(%rip),%eax        # 1a8a6 <g_345+0x1>
   112d2:	66 98                	cbtw   
   112d4:	21 c8                	and    %ecx,%eax
   112d6:	98                   	cwtl   
   112d7:	89 d6                	mov    %edx,%esi
   112d9:	89 c7                	mov    %eax,%edi
   112db:	e8 f3 40 ff ff       	callq  53d3 <safe_sub_func_int16_t_s_s>
   112e0:	0f b7 85 6a f8 ff ff 	movzwl -0x796(%rbp),%eax
   112e7:	0f b6 c0             	movzbl %al,%eax
   112ea:	44 89 e6             	mov    %r12d,%esi
   112ed:	89 c7                	mov    %eax,%edi
   112ef:	e8 84 48 ff ff       	callq  5b78 <safe_sub_func_uint8_t_u_u>
   112f4:	0f b6 c0             	movzbl %al,%eax
   112f7:	48 89 de             	mov    %rbx,%rsi
   112fa:	48 89 c7             	mov    %rax,%rdi
   112fd:	e8 49 4d ff ff       	callq  604b <safe_sub_func_uint64_t_u_u>
   11302:	0f b7 c0             	movzwl %ax,%eax
   11305:	89 c6                	mov    %eax,%esi
   11307:	bf 03 00 00 00       	mov    $0x3,%edi
   1130c:	e8 2c 4a ff ff       	callq  5d3d <safe_mul_func_uint16_t_u_u>
   11311:	66 85 c0             	test   %ax,%ax
   11314:	0f 84 16 0a 00 00    	je     11d30 <func_104+0x10e1>
   1131a:	48 8d 85 88 f8 ff ff 	lea    -0x778(%rbp),%rax
   11321:	48 89 85 90 fa ff ff 	mov    %rax,-0x570(%rbp)
   11328:	48 8d 85 88 f8 ff ff 	lea    -0x778(%rbp),%rax
   1132f:	48 89 85 98 fa ff ff 	mov    %rax,-0x568(%rbp)
   11336:	48 8d 85 88 f8 ff ff 	lea    -0x778(%rbp),%rax
   1133d:	48 89 85 a0 fa ff ff 	mov    %rax,-0x560(%rbp)
   11344:	48 8d 85 88 f8 ff ff 	lea    -0x778(%rbp),%rax
   1134b:	48 89 85 a8 fa ff ff 	mov    %rax,-0x558(%rbp)
   11352:	48 8d 85 88 f8 ff ff 	lea    -0x778(%rbp),%rax
   11359:	48 89 85 b0 fa ff ff 	mov    %rax,-0x550(%rbp)
   11360:	66 c7 85 6c f8 ff ff 	movw   $0xfff9,-0x794(%rbp)
   11367:	f9 ff 
   11369:	48 c7 85 d8 f9 ff ff 	movq   $0x0,-0x628(%rbp)
   11370:	00 00 00 00 
   11374:	48 8d 05 25 95 00 00 	lea    0x9525(%rip),%rax        # 1a8a0 <g_246>
   1137b:	48 89 85 e0 f9 ff ff 	mov    %rax,-0x620(%rbp)
   11382:	48 8d 05 1b 95 00 00 	lea    0x951b(%rip),%rax        # 1a8a4 <g_249>
   11389:	48 89 85 e8 f9 ff ff 	mov    %rax,-0x618(%rbp)
   11390:	48 8b 05 19 95 00 00 	mov    0x9519(%rip),%rax        # 1a8b0 <g_435>
   11397:	48 8b 15 1a 95 00 00 	mov    0x951a(%rip),%rdx        # 1a8b8 <g_435+0x8>
   1139e:	48 8b 05 2b aa 00 00 	mov    0xaa2b(%rip),%rax        # 1bdd0 <g_267>
   113a5:	c7 00 01 00 00 00    	movl   $0x1,(%rax)
   113ab:	80 85 66 f8 ff ff 01 	addb   $0x1,-0x79a(%rbp)
   113b2:	c7 85 9c f8 ff ff 00 	movl   $0x0,-0x764(%rbp)
   113b9:	00 00 00 
   113bc:	e9 bc 02 00 00       	jmpq   1167d <func_104+0xa2e>
   113c1:	48 8d 05 8c 3c 00 00 	lea    0x3c8c(%rip),%rax        # 15054 <g_455>
   113c8:	48 89 85 18 f9 ff ff 	mov    %rax,-0x6e8(%rbp)
   113cf:	48 8d 85 18 f9 ff ff 	lea    -0x6e8(%rbp),%rax
   113d6:	48 89 85 18 fa ff ff 	mov    %rax,-0x5e8(%rbp)
   113dd:	48 8d 05 ac 94 00 00 	lea    0x94ac(%rip),%rax        # 1a890 <g_220>
   113e4:	48 89 85 20 fa ff ff 	mov    %rax,-0x5e0(%rbp)
   113eb:	c7 85 f0 f8 ff ff 00 	movl   $0x0,-0x710(%rbp)
   113f2:	00 00 00 
   113f5:	c7 85 f4 f8 ff ff 00 	movl   $0x0,-0x70c(%rbp)
   113fc:	00 00 00 
   113ff:	48 8b 85 18 fa ff ff 	mov    -0x5e8(%rbp),%rax
   11406:	48 8d 15 23 8c 00 00 	lea    0x8c23(%rip),%rdx        # 1a030 <g_48>
   1140d:	48 89 10             	mov    %rdx,(%rax)
   11410:	48 8b 05 c1 a9 00 00 	mov    0xa9c1(%rip),%rax        # 1bdd8 <g_456>
   11417:	48 8b 95 18 fa ff ff 	mov    -0x5e8(%rbp),%rdx
   1141e:	48 8b 12             	mov    (%rdx),%rdx
   11421:	48 89 10             	mov    %rdx,(%rax)
   11424:	48 8d 05 a5 a9 00 00 	lea    0xa9a5(%rip),%rax        # 1bdd0 <g_267>
   1142b:	48 39 85 c8 f9 ff ff 	cmp    %rax,-0x638(%rbp)
   11432:	0f 94 c0             	sete   %al
   11435:	44 0f b6 e8          	movzbl %al,%r13d
   11439:	8b 85 74 f8 ff ff    	mov    -0x78c(%rbp),%eax
   1143f:	0f be d8             	movsbl %al,%ebx
   11442:	0f b6 85 58 f8 ff ff 	movzbl -0x7a8(%rbp),%eax
   11449:	66 98                	cbtw   
   1144b:	44 0f b7 e0          	movzwl %ax,%r12d
   1144f:	48 8b 85 18 f9 ff ff 	mov    -0x6e8(%rbp),%rax
   11456:	8b 00                	mov    (%rax),%eax
   11458:	4c 63 f0             	movslq %eax,%r14
   1145b:	0f b7 05 0c 8c 00 00 	movzwl 0x8c0c(%rip),%eax        # 1a06e <g_171>
   11462:	0f b7 d0             	movzwl %ax,%edx
   11465:	48 8b 85 20 fa ff ff 	mov    -0x5e0(%rbp),%rax
   1146c:	89 10                	mov    %edx,(%rax)
   1146e:	0f b6 85 58 f8 ff ff 	movzbl -0x7a8(%rbp),%eax
   11475:	48 0f be c0          	movsbq %al,%rax
   11479:	48 be 51 d5 5d 9f d2 	movabs $0x428841d29f5dd551,%rsi
   11480:	41 88 42 
   11483:	48 89 c7             	mov    %rax,%rdi
   11486:	e8 6c 45 ff ff       	callq  59f7 <safe_div_func_int64_t_s_s>
   1148b:	49 39 c6             	cmp    %rax,%r14
   1148e:	0f 9c c0             	setl   %al
   11491:	0f b6 c0             	movzbl %al,%eax
   11494:	44 89 e6             	mov    %r12d,%esi
   11497:	89 c7                	mov    %eax,%edi
   11499:	e8 be 48 ff ff       	callq  5d5c <safe_mod_func_uint16_t_u_u>
   1149e:	0f be c0             	movsbl %al,%eax
   114a1:	89 de                	mov    %ebx,%esi
   114a3:	89 c7                	mov    %eax,%edi
   114a5:	e8 2a 3d ff ff       	callq  51d4 <safe_add_func_int8_t_s_s>
   114aa:	be 00 00 00 00       	mov    $0x0,%esi
   114af:	bf 00 00 00 00       	mov    $0x0,%edi
   114b4:	e8 75 4b ff ff       	callq  602e <safe_add_func_uint64_t_u_u>
   114b9:	48 85 c0             	test   %rax,%rax
   114bc:	0f 95 c0             	setne  %al
   114bf:	0f b6 c0             	movzbl %al,%eax
   114c2:	41 39 c5             	cmp    %eax,%r13d
   114c5:	7d 12                	jge    114d9 <func_104+0x88a>
   114c7:	0f b6 05 d9 93 00 00 	movzbl 0x93d9(%rip),%eax        # 1a8a7 <g_345+0x2>
   114ce:	84 c0                	test   %al,%al
   114d0:	74 07                	je     114d9 <func_104+0x88a>
   114d2:	b8 01 00 00 00       	mov    $0x1,%eax
   114d7:	eb 05                	jmp    114de <func_104+0x88f>
   114d9:	b8 00 00 00 00       	mov    $0x0,%eax
   114de:	0f be d0             	movsbl %al,%edx
   114e1:	0f b6 85 5c f8 ff ff 	movzbl -0x7a4(%rbp),%eax
   114e8:	0f be c0             	movsbl %al,%eax
   114eb:	89 d6                	mov    %edx,%esi
   114ed:	89 c7                	mov    %eax,%edi
   114ef:	e8 3d 3d ff ff       	callq  5231 <safe_mod_func_int8_t_s_s>
   114f4:	84 c0                	test   %al,%al
   114f6:	74 07                	je     114ff <func_104+0x8b0>
   114f8:	b8 01 00 00 00       	mov    $0x1,%eax
   114fd:	eb 05                	jmp    11504 <func_104+0x8b5>
   114ff:	b8 00 00 00 00       	mov    $0x0,%eax
   11504:	21 85 90 f8 ff ff    	and    %eax,-0x770(%rbp)
   1150a:	8b 95 90 f8 ff ff    	mov    -0x770(%rbp),%edx
   11510:	8b 85 9c f8 ff ff    	mov    -0x764(%rbp),%eax
   11516:	48 98                	cltq   
   11518:	48 8d 0c 85 00 00 00 	lea    0x0(,%rax,4),%rcx
   1151f:	00 
   11520:	48 8d 05 05 8b 00 00 	lea    0x8b05(%rip),%rax        # 1a02c <g_47>
   11527:	8b 04 01             	mov    (%rcx,%rax,1),%eax
   1152a:	89 d1                	mov    %edx,%ecx
   1152c:	21 c1                	and    %eax,%ecx
   1152e:	8b 85 9c f8 ff ff    	mov    -0x764(%rbp),%eax
   11534:	48 98                	cltq   
   11536:	48 8d 14 85 00 00 00 	lea    0x0(,%rax,4),%rdx
   1153d:	00 
   1153e:	48 8d 05 e7 8a 00 00 	lea    0x8ae7(%rip),%rax        # 1a02c <g_47>
   11545:	89 0c 02             	mov    %ecx,(%rdx,%rax,1)
   11548:	c7 85 74 f8 ff ff e3 	movl   $0xffffffe3,-0x78c(%rbp)
   1154f:	ff ff ff 
   11552:	e9 0d 01 00 00       	jmpq   11664 <func_104+0xa15>
   11557:	66 c7 85 72 f8 ff ff 	movw   $0x0,-0x78e(%rbp)
   1155e:	00 00 
   11560:	c7 85 f8 f8 ff ff 37 	movl   $0x33a2c637,-0x708(%rbp)
   11567:	c6 a2 33 
   1156a:	c7 85 fc f8 ff ff f6 	movl   $0xfffffff6,-0x704(%rbp)
   11571:	ff ff ff 
   11574:	0f b7 85 6c f8 ff ff 	movzwl -0x794(%rbp),%eax
   1157b:	83 e8 01             	sub    $0x1,%eax
   1157e:	66 89 85 6c f8 ff ff 	mov    %ax,-0x794(%rbp)
   11585:	0f b6 85 58 f8 ff ff 	movzbl -0x7a8(%rbp),%eax
   1158c:	0f be d8             	movsbl %al,%ebx
   1158f:	0f b6 85 58 f8 ff ff 	movzbl -0x7a8(%rbp),%eax
   11596:	0f be c0             	movsbl %al,%eax
   11599:	89 c6                	mov    %eax,%esi
   1159b:	bf db bb 00 00       	mov    $0xbbdb,%edi
   115a0:	e8 d5 48 ff ff       	callq  5e7a <safe_rshift_func_uint16_t_u_u>
   115a5:	0f b6 85 58 f8 ff ff 	movzbl -0x7a8(%rbp),%eax
   115ac:	84 c0                	test   %al,%al
   115ae:	75 09                	jne    115b9 <func_104+0x96a>
   115b0:	0f b6 85 58 f8 ff ff 	movzbl -0x7a8(%rbp),%eax
   115b7:	84 c0                	test   %al,%al
   115b9:	be 00 00 00 00       	mov    $0x0,%esi
   115be:	bf 98 d8 0a ab       	mov    $0xab0ad898,%edi
   115c3:	e8 3d 40 ff ff       	callq  5605 <safe_sub_func_int32_t_s_s>
   115c8:	85 c0                	test   %eax,%eax
   115ca:	74 10                	je     115dc <func_104+0x98d>
   115cc:	80 bd 5c f8 ff ff 00 	cmpb   $0x0,-0x7a4(%rbp)
   115d3:	74 07                	je     115dc <func_104+0x98d>
   115d5:	b8 01 00 00 00       	mov    $0x1,%eax
   115da:	eb 05                	jmp    115e1 <func_104+0x992>
   115dc:	b8 00 00 00 00       	mov    $0x0,%eax
   115e1:	89 c6                	mov    %eax,%esi
   115e3:	bf 04 00 00 00       	mov    $0x4,%edi
   115e8:	e8 18 40 ff ff       	callq  5605 <safe_sub_func_int32_t_s_s>
   115ed:	09 d8                	or     %ebx,%eax
   115ef:	85 c0                	test   %eax,%eax
   115f1:	74 1d                	je     11610 <func_104+0x9c1>
   115f3:	48 8b 85 c8 f9 ff ff 	mov    -0x638(%rbp),%rax
   115fa:	48 8b 00             	mov    (%rax),%rax
   115fd:	8b 10                	mov    (%rax),%edx
   115ff:	48 8b 85 c8 f9 ff ff 	mov    -0x638(%rbp),%rax
   11606:	48 8b 00             	mov    (%rax),%rax
   11609:	83 f2 05             	xor    $0x5,%edx
   1160c:	89 10                	mov    %edx,(%rax)
   1160e:	eb 45                	jmp    11655 <func_104+0xa06>
   11610:	48 8d 05 39 8a 00 00 	lea    0x8a39(%rip),%rax        # 1a050 <g_100>
   11617:	48 89 85 28 fa ff ff 	mov    %rax,-0x5d8(%rbp)
   1161e:	48 8d 05 2b 8a 00 00 	lea    0x8a2b(%rip),%rax        # 1a050 <g_100>
   11625:	48 39 85 28 fa ff ff 	cmp    %rax,-0x5d8(%rbp)
   1162c:	0f 94 c2             	sete   %dl
   1162f:	48 8b 85 c8 f9 ff ff 	mov    -0x638(%rbp),%rax
   11636:	48 8b 00             	mov    (%rax),%rax
   11639:	0f b6 d2             	movzbl %dl,%edx
   1163c:	89 10                	mov    %edx,(%rax)
   1163e:	80 bd 5c f8 ff ff 00 	cmpb   $0x0,-0x7a4(%rbp)
   11645:	75 2e                	jne    11675 <func_104+0xa26>
   11647:	48 8b 85 c8 f9 ff ff 	mov    -0x638(%rbp),%rax
   1164e:	48 8b 00             	mov    (%rax),%rax
   11651:	8b 00                	mov    (%rax),%eax
   11653:	85 c0                	test   %eax,%eax
   11655:	8b 85 74 f8 ff ff    	mov    -0x78c(%rbp),%eax
   1165b:	83 c0 01             	add    $0x1,%eax
   1165e:	89 85 74 f8 ff ff    	mov    %eax,-0x78c(%rbp)
   11664:	8b 85 74 f8 ff ff    	mov    -0x78c(%rbp),%eax
   1166a:	83 f8 0d             	cmp    $0xd,%eax
   1166d:	0f 8f e4 fe ff ff    	jg     11557 <func_104+0x908>
   11673:	eb 01                	jmp    11676 <func_104+0xa27>
   11675:	90                   	nop
   11676:	83 85 9c f8 ff ff 01 	addl   $0x1,-0x764(%rbp)
   1167d:	83 bd 9c f8 ff ff 00 	cmpl   $0x0,-0x764(%rbp)
   11684:	0f 8e 37 fd ff ff    	jle    113c1 <func_104+0x772>
   1168a:	0f b6 9d 5c f8 ff ff 	movzbl -0x7a4(%rbp),%ebx
   11691:	48 8b 85 c8 f9 ff ff 	mov    -0x638(%rbp),%rax
   11698:	48 8b 00             	mov    (%rax),%rax
   1169b:	8b 00                	mov    (%rax),%eax
   1169d:	85 c0                	test   %eax,%eax
   1169f:	0f 84 f2 00 00 00    	je     11797 <func_104+0xb48>
   116a5:	48 8b 05 94 89 00 00 	mov    0x8994(%rip),%rax        # 1a040 <g_71>
   116ac:	48 8b 15 95 89 00 00 	mov    0x8995(%rip),%rdx        # 1a048 <g_71+0x8>
   116b3:	48 8b 85 c8 f9 ff ff 	mov    -0x638(%rbp),%rax
   116ba:	48 8b 00             	mov    (%rax),%rax
   116bd:	8b 00                	mov    (%rax),%eax
   116bf:	44 0f b6 e0          	movzbl %al,%r12d
   116c3:	48 8b 05 76 89 00 00 	mov    0x8976(%rip),%rax        # 1a040 <g_71>
   116ca:	48 c1 e0 08          	shl    $0x8,%rax
   116ce:	48 c1 f8 28          	sar    $0x28,%rax
   116d2:	89 c2                	mov    %eax,%edx
   116d4:	48 8b 85 e0 f9 ff ff 	mov    -0x620(%rbp),%rax
   116db:	89 10                	mov    %edx,(%rax)
   116dd:	48 8b 85 c8 f9 ff ff 	mov    -0x638(%rbp),%rax
   116e4:	48 8b 00             	mov    (%rax),%rax
   116e7:	8b 00                	mov    (%rax),%eax
   116e9:	4c 63 e8             	movslq %eax,%r13
   116ec:	44 0f b6 b5 5c f8 ff 	movzbl -0x7a4(%rbp),%r14d
   116f3:	ff 
   116f4:	0f b7 05 73 89 00 00 	movzwl 0x8973(%rip),%eax        # 1a06e <g_171>
   116fb:	0f be d0             	movsbl %al,%edx
   116fe:	48 8b 05 bb 91 00 00 	mov    0x91bb(%rip),%rax        # 1a8c0 <g_501>
   11705:	89 c1                	mov    %eax,%ecx
   11707:	0f b6 85 5c f8 ff ff 	movzbl -0x7a4(%rbp),%eax
   1170e:	09 c8                	or     %ecx,%eax
   11710:	0f be c0             	movsbl %al,%eax
   11713:	89 d6                	mov    %edx,%esi
   11715:	89 c7                	mov    %eax,%edi
   11717:	e8 d6 3a ff ff       	callq  51f2 <safe_sub_func_int8_t_s_s>
   1171c:	0f be c0             	movsbl %al,%eax
   1171f:	41 39 c6             	cmp    %eax,%r14d
   11722:	0f b6 85 58 f8 ff ff 	movzbl -0x7a8(%rbp),%eax
   11729:	84 c0                	test   %al,%al
   1172b:	0f b6 85 58 f8 ff ff 	movzbl -0x7a8(%rbp),%eax
   11732:	48 0f be c0          	movsbq %al,%rax
   11736:	4c 89 ee             	mov    %r13,%rsi
   11739:	48 89 c7             	mov    %rax,%rdi
   1173c:	e8 b6 42 ff ff       	callq  59f7 <safe_div_func_int64_t_s_s>
   11741:	48 85 c0             	test   %rax,%rax
   11744:	74 07                	je     1174d <func_104+0xafe>
   11746:	ba 01 00 00 00       	mov    $0x1,%edx
   1174b:	eb 05                	jmp    11752 <func_104+0xb03>
   1174d:	ba 00 00 00 00       	mov    $0x0,%edx
   11752:	0f b6 85 58 f8 ff ff 	movzbl -0x7a8(%rbp),%eax
   11759:	0f be c0             	movsbl %al,%eax
   1175c:	39 c2                	cmp    %eax,%edx
   1175e:	0f 9e c0             	setle  %al
   11761:	0f b6 c0             	movzbl %al,%eax
   11764:	44 89 e6             	mov    %r12d,%esi
   11767:	89 c7                	mov    %eax,%edi
   11769:	e8 40 44 ff ff       	callq  5bae <safe_mod_func_uint8_t_u_u>
   1176e:	84 c0                	test   %al,%al
   11770:	74 07                	je     11779 <func_104+0xb2a>
   11772:	80 bd 5c f8 ff ff 00 	cmpb   $0x0,-0x7a4(%rbp)
   11779:	0f b6 05 ec 88 00 00 	movzbl 0x88ec(%rip),%eax        # 1a06c <g_156+0x1>
   11780:	48 8b 85 c8 f9 ff ff 	mov    -0x638(%rbp),%rax
   11787:	48 8b 00             	mov    (%rax),%rax
   1178a:	8b 00                	mov    (%rax),%eax
   1178c:	85 c0                	test   %eax,%eax
   1178e:	74 07                	je     11797 <func_104+0xb48>
   11790:	b8 01 00 00 00       	mov    $0x1,%eax
   11795:	eb 05                	jmp    1179c <func_104+0xb4d>
   11797:	b8 00 00 00 00       	mov    $0x0,%eax
   1179c:	98                   	cwtl   
   1179d:	be f9 ff ff ff       	mov    $0xfffffff9,%esi
   117a2:	89 c7                	mov    %eax,%edi
   117a4:	e8 ac 3c ff ff       	callq  5455 <safe_div_func_int16_t_s_s>
   117a9:	0f b6 85 5c f8 ff ff 	movzbl -0x7a4(%rbp),%eax
   117b0:	89 de                	mov    %ebx,%esi
   117b2:	89 c7                	mov    %eax,%edi
   117b4:	e8 22 44 ff ff       	callq  5bdb <safe_div_func_uint8_t_u_u>
   117b9:	0f b6 d0             	movzbl %al,%edx
   117bc:	0f b6 85 58 f8 ff ff 	movzbl -0x7a8(%rbp),%eax
   117c3:	0f be c0             	movsbl %al,%eax
   117c6:	21 d0                	and    %edx,%eax
   117c8:	85 c0                	test   %eax,%eax
   117ca:	74 23                	je     117ef <func_104+0xba0>
   117cc:	48 8b 05 0d 91 00 00 	mov    0x910d(%rip),%rax        # 1a8e0 <g_502>
   117d3:	48 8b 15 0e 91 00 00 	mov    0x910e(%rip),%rdx        # 1a8e8 <g_502+0x8>
   117da:	48 8b 85 c8 f9 ff ff 	mov    -0x638(%rbp),%rax
   117e1:	48 8b 00             	mov    (%rax),%rax
   117e4:	c7 00 6e 46 5a 75    	movl   $0x755a466e,(%rax)
   117ea:	e9 60 05 00 00       	jmpq   11d4f <func_104+0x1100>
   117ef:	c7 85 e8 f8 ff ff 00 	movl   $0x0,-0x718(%rbp)
   117f6:	00 00 00 
   117f9:	c7 85 c0 fc ff ff 00 	movl   $0x0,-0x340(%rbp)
   11800:	00 00 00 
   11803:	c7 85 c4 fc ff ff 03 	movl   $0x3,-0x33c(%rbp)
   1180a:	00 00 00 
   1180d:	c7 85 c8 fc ff ff f8 	movl   $0x82659f8,-0x338(%rbp)
   11814:	59 26 08 
   11817:	c7 85 cc fc ff ff 08 	movl   $0x8,-0x334(%rbp)
   1181e:	00 00 00 
   11821:	c7 85 d0 fc ff ff 03 	movl   $0x3,-0x330(%rbp)
   11828:	00 00 00 
   1182b:	c7 85 d4 fc ff ff 01 	movl   $0x1,-0x32c(%rbp)
   11832:	00 00 00 
   11835:	c7 85 d8 fc ff ff 00 	movl   $0x0,-0x328(%rbp)
   1183c:	00 00 00 
   1183f:	c7 85 dc fc ff ff 08 	movl   $0x8,-0x324(%rbp)
   11846:	00 00 00 
   11849:	c7 85 e0 fc ff ff f8 	movl   $0x82659f8,-0x320(%rbp)
   11850:	59 26 08 
   11853:	c7 85 e4 fc ff ff 00 	movl   $0x0,-0x31c(%rbp)
   1185a:	00 00 00 
   1185d:	c7 85 e8 fc ff ff 91 	movl   $0x8f4cc291,-0x318(%rbp)
   11864:	c2 4c 8f 
   11867:	c7 85 ec fc ff ff 08 	movl   $0x8,-0x314(%rbp)
   1186e:	00 00 00 
   11871:	c7 85 f0 fc ff ff 08 	movl   $0x8,-0x310(%rbp)
   11878:	00 00 00 
   1187b:	c7 85 f4 fc ff ff 08 	movl   $0x8,-0x30c(%rbp)
   11882:	00 00 00 
   11885:	c7 85 f8 fc ff ff 08 	movl   $0x8,-0x308(%rbp)
   1188c:	00 00 00 
   1188f:	c7 85 fc fc ff ff 00 	movl   $0x0,-0x304(%rbp)
   11896:	00 00 00 
   11899:	c7 85 00 fd ff ff 03 	movl   $0x3,-0x300(%rbp)
   118a0:	00 00 00 
   118a3:	c7 85 04 fd ff ff f8 	movl   $0x82659f8,-0x2fc(%rbp)
   118aa:	59 26 08 
   118ad:	c7 85 08 fd ff ff 08 	movl   $0x8,-0x2f8(%rbp)
   118b4:	00 00 00 
   118b7:	c7 85 0c fd ff ff 03 	movl   $0x3,-0x2f4(%rbp)
   118be:	00 00 00 
   118c1:	c7 85 10 fd ff ff 01 	movl   $0x1,-0x2f0(%rbp)
   118c8:	00 00 00 
   118cb:	c7 85 14 fd ff ff 00 	movl   $0x0,-0x2ec(%rbp)
   118d2:	00 00 00 
   118d5:	c7 85 18 fd ff ff 08 	movl   $0x8,-0x2e8(%rbp)
   118dc:	00 00 00 
   118df:	c7 85 1c fd ff ff f8 	movl   $0x82659f8,-0x2e4(%rbp)
   118e6:	59 26 08 
   118e9:	c7 85 20 fd ff ff 00 	movl   $0x0,-0x2e0(%rbp)
   118f0:	00 00 00 
   118f3:	c7 85 24 fd ff ff 91 	movl   $0x8f4cc291,-0x2dc(%rbp)
   118fa:	c2 4c 8f 
   118fd:	c7 85 28 fd ff ff 08 	movl   $0x8,-0x2d8(%rbp)
   11904:	00 00 00 
   11907:	c7 85 2c fd ff ff 08 	movl   $0x8,-0x2d4(%rbp)
   1190e:	00 00 00 
   11911:	c7 85 30 fd ff ff 08 	movl   $0x8,-0x2d0(%rbp)
   11918:	00 00 00 
   1191b:	c7 85 34 fd ff ff 08 	movl   $0x8,-0x2cc(%rbp)
   11922:	00 00 00 
   11925:	48 8d 05 6c 8f 00 00 	lea    0x8f6c(%rip),%rax        # 1a898 <g_221>
   1192c:	48 89 85 10 f9 ff ff 	mov    %rax,-0x6f0(%rbp)
   11933:	48 8d 85 10 f9 ff ff 	lea    -0x6f0(%rbp),%rax
   1193a:	48 89 85 f0 f9 ff ff 	mov    %rax,-0x610(%rbp)
   11941:	48 8d 85 8c f8 ff ff 	lea    -0x774(%rbp),%rax
   11948:	48 89 85 f8 f9 ff ff 	mov    %rax,-0x608(%rbp)
   1194f:	c6 85 67 f8 ff ff 00 	movb   $0x0,-0x799(%rbp)
   11956:	c7 85 a4 f8 ff ff 00 	movl   $0x0,-0x75c(%rbp)
   1195d:	00 00 00 
   11960:	eb 1a                	jmp    1197c <func_104+0xd2d>
   11962:	8b 85 a4 f8 ff ff    	mov    -0x75c(%rbp),%eax
   11968:	48 98                	cltq   
   1196a:	c7 84 85 50 fa ff ff 	movl   $0xf0d57d69,-0x5b0(%rbp,%rax,4)
   11971:	69 7d d5 f0 
   11975:	83 85 a4 f8 ff ff 01 	addl   $0x1,-0x75c(%rbp)
   1197c:	83 bd a4 f8 ff ff 05 	cmpl   $0x5,-0x75c(%rbp)
   11983:	7e dd                	jle    11962 <func_104+0xd13>
   11985:	8b 85 0c fd ff ff    	mov    -0x2f4(%rbp),%eax
   1198b:	83 c0 01             	add    $0x1,%eax
   1198e:	89 85 0c fd ff ff    	mov    %eax,-0x2f4(%rbp)
   11994:	48 c7 05 b9 86 00 00 	movq   $0x0,0x86b9(%rip)        # 1a058 <g_115>
   1199b:	00 00 00 00 
   1199f:	e9 fb 01 00 00       	jmpq   11b9f <func_104+0xf50>
   119a4:	48 8d 85 08 f9 ff ff 	lea    -0x6f8(%rbp),%rax
   119ab:	48 89 85 c0 fa ff ff 	mov    %rax,-0x540(%rbp)
   119b2:	48 8d 85 08 f9 ff ff 	lea    -0x6f8(%rbp),%rax
   119b9:	48 89 85 c8 fa ff ff 	mov    %rax,-0x538(%rbp)
   119c0:	48 8d 85 08 f9 ff ff 	lea    -0x6f8(%rbp),%rax
   119c7:	48 89 85 d0 fa ff ff 	mov    %rax,-0x530(%rbp)
   119ce:	48 8d 85 08 f9 ff ff 	lea    -0x6f8(%rbp),%rax
   119d5:	48 89 85 d8 fa ff ff 	mov    %rax,-0x528(%rbp)
   119dc:	48 8d 85 08 f9 ff ff 	lea    -0x6f8(%rbp),%rax
   119e3:	48 89 85 e0 fa ff ff 	mov    %rax,-0x520(%rbp)
   119ea:	48 8d 85 08 f9 ff ff 	lea    -0x6f8(%rbp),%rax
   119f1:	48 89 85 e8 fa ff ff 	mov    %rax,-0x518(%rbp)
   119f8:	48 8d 85 08 f9 ff ff 	lea    -0x6f8(%rbp),%rax
   119ff:	48 89 85 f0 fa ff ff 	mov    %rax,-0x510(%rbp)
   11a06:	c7 85 ec f8 ff ff ab 	movl   $0x8c1678ab,-0x714(%rbp)
   11a0d:	78 16 8c 
   11a10:	48 c7 85 00 fa ff ff 	movq   $0x0,-0x600(%rbp)
   11a17:	00 00 00 00 
   11a1b:	c7 85 a0 f8 ff ff 00 	movl   $0x0,-0x760(%rbp)
   11a22:	00 00 00 
   11a25:	e9 56 01 00 00       	jmpq   11b80 <func_104+0xf31>
   11a2a:	48 8d 05 1f 86 00 00 	lea    0x861f(%rip),%rax        # 1a050 <g_100>
   11a31:	48 89 85 08 fa ff ff 	mov    %rax,-0x5f8(%rbp)
   11a38:	48 c7 85 18 f9 ff ff 	movq   $0x0,-0x6e8(%rbp)
   11a3f:	00 00 00 00 
   11a43:	48 8d 85 18 f9 ff ff 	lea    -0x6e8(%rbp),%rax
   11a4a:	48 89 85 10 fa ff ff 	mov    %rax,-0x5f0(%rbp)
   11a51:	8b 85 58 fa ff ff    	mov    -0x5a8(%rbp),%eax
   11a57:	83 f8 01             	cmp    $0x1,%eax
   11a5a:	0f 94 c2             	sete   %dl
   11a5d:	48 8b 85 c8 fa ff ff 	mov    -0x538(%rbp),%rax
   11a64:	48 85 c0             	test   %rax,%rax
   11a67:	0f 95 c0             	setne  %al
   11a6a:	31 c2                	xor    %eax,%edx
   11a6c:	48 8b 05 5d a3 00 00 	mov    0xa35d(%rip),%rax        # 1bdd0 <g_267>
   11a73:	0f b6 d2             	movzbl %dl,%edx
   11a76:	89 10                	mov    %edx,(%rax)
   11a78:	8b 85 54 fa ff ff    	mov    -0x5ac(%rbp),%eax
   11a7e:	85 c0                	test   %eax,%eax
   11a80:	0f 85 f2 00 00 00    	jne    11b78 <func_104+0xf29>
   11a86:	0f b6 85 58 f8 ff ff 	movzbl -0x7a8(%rbp),%eax
   11a8d:	44 0f be f0          	movsbl %al,%r14d
   11a91:	8b 85 b4 f8 ff ff    	mov    -0x74c(%rbp),%eax
   11a97:	0f b7 d8             	movzwl %ax,%ebx
   11a9a:	48 8b 85 00 fa ff ff 	mov    -0x600(%rbp),%rax
   11aa1:	44 0f b6 e0          	movzbl %al,%r12d
   11aa5:	48 8b 05 1c 89 00 00 	mov    0x891c(%rip),%rax        # 1a3c8 <g_196+0x348>
   11aac:	44 0f be e8          	movsbl %al,%r13d
   11ab0:	be 00 00 00 00       	mov    $0x0,%esi
   11ab5:	bf 00 00 00 00       	mov    $0x0,%edi
   11aba:	e8 ad 38 ff ff       	callq  536c <safe_rshift_func_int8_t_s_u>
   11abf:	48 8b 95 18 f9 ff ff 	mov    -0x6e8(%rbp),%rdx
   11ac6:	48 8b 85 10 fa ff ff 	mov    -0x5f0(%rbp),%rax
   11acd:	48 89 10             	mov    %rdx,(%rax)
   11ad0:	48 8b 85 10 fa ff ff 	mov    -0x5f0(%rbp),%rax
   11ad7:	48 8b 00             	mov    (%rax),%rax
   11ada:	48 85 c0             	test   %rax,%rax
   11add:	0f 94 c0             	sete   %al
   11ae0:	0f b6 d0             	movzbl %al,%edx
   11ae3:	8b 05 a7 8d 00 00    	mov    0x8da7(%rip),%eax        # 1a890 <g_220>
   11ae9:	39 c2                	cmp    %eax,%edx
   11aeb:	0f 9e c0             	setle  %al
   11aee:	0f b6 c0             	movzbl %al,%eax
   11af1:	89 c6                	mov    %eax,%esi
   11af3:	bf 7a 9d ff ff       	mov    $0xffff9d7a,%edi
   11af8:	e8 d6 38 ff ff       	callq  53d3 <safe_sub_func_int16_t_s_s>
   11afd:	0f be c0             	movsbl %al,%eax
   11b00:	44 89 ee             	mov    %r13d,%esi
   11b03:	89 c7                	mov    %eax,%edi
   11b05:	e8 e8 36 ff ff       	callq  51f2 <safe_sub_func_int8_t_s_s>
   11b0a:	84 c0                	test   %al,%al
   11b0c:	75 0a                	jne    11b18 <func_104+0xec9>
   11b0e:	8b 85 58 fa ff ff    	mov    -0x5a8(%rbp),%eax
   11b14:	85 c0                	test   %eax,%eax
   11b16:	74 07                	je     11b1f <func_104+0xed0>
   11b18:	b8 01 00 00 00       	mov    $0x1,%eax
   11b1d:	eb 05                	jmp    11b24 <func_104+0xed5>
   11b1f:	b8 00 00 00 00       	mov    $0x0,%eax
   11b24:	0f b6 c0             	movzbl %al,%eax
   11b27:	44 89 e6             	mov    %r12d,%esi
   11b2a:	89 c7                	mov    %eax,%edi
   11b2c:	e8 aa 40 ff ff       	callq  5bdb <safe_div_func_uint8_t_u_u>
   11b31:	0f b6 c0             	movzbl %al,%eax
   11b34:	89 de                	mov    %ebx,%esi
   11b36:	89 c7                	mov    %eax,%edi
   11b38:	e8 c2 41 ff ff       	callq  5cff <safe_add_func_uint16_t_u_u>
   11b3d:	0f b7 c0             	movzwl %ax,%eax
   11b40:	48 8b 15 a1 8d 00 00 	mov    0x8da1(%rip),%rdx        # 1a8e8 <g_502+0x8>
   11b47:	48 c1 ea 20          	shr    $0x20,%rdx
   11b4b:	81 e2 ff ff ff 3f    	and    $0x3fffffff,%edx
   11b51:	39 d0                	cmp    %edx,%eax
   11b53:	0f 9d c0             	setge  %al
   11b56:	0f b6 c0             	movzbl %al,%eax
   11b59:	41 39 c6             	cmp    %eax,%r14d
   11b5c:	0f 9f c0             	setg   %al
   11b5f:	0f b6 c8             	movzbl %al,%ecx
   11b62:	48 8b 05 67 a2 00 00 	mov    0xa267(%rip),%rax        # 1bdd0 <g_267>
   11b69:	8b 10                	mov    (%rax),%edx
   11b6b:	48 8b 05 5e a2 00 00 	mov    0xa25e(%rip),%rax        # 1bdd0 <g_267>
   11b72:	31 ca                	xor    %ecx,%edx
   11b74:	89 10                	mov    %edx,(%rax)
   11b76:	eb 01                	jmp    11b79 <func_104+0xf2a>
   11b78:	90                   	nop
   11b79:	83 85 a0 f8 ff ff 01 	addl   $0x1,-0x760(%rbp)
   11b80:	83 bd a0 f8 ff ff 00 	cmpl   $0x0,-0x760(%rbp)
   11b87:	0f 8e 9d fe ff ff    	jle    11a2a <func_104+0xddb>
   11b8d:	48 8b 05 c4 84 00 00 	mov    0x84c4(%rip),%rax        # 1a058 <g_115>
   11b94:	48 83 c0 01          	add    $0x1,%rax
   11b98:	48 89 05 b9 84 00 00 	mov    %rax,0x84b9(%rip)        # 1a058 <g_115>
   11b9f:	48 8b 05 b2 84 00 00 	mov    0x84b2(%rip),%rax        # 1a058 <g_115>
   11ba6:	48 85 c0             	test   %rax,%rax
   11ba9:	0f 84 f5 fd ff ff    	je     119a4 <func_104+0xd55>
   11baf:	48 8b 85 f0 f9 ff ff 	mov    -0x610(%rbp),%rax
   11bb6:	48 8d 15 db 8c 00 00 	lea    0x8cdb(%rip),%rdx        # 1a898 <g_221>
   11bbd:	48 89 10             	mov    %rdx,(%rax)
   11bc0:	48 8b 05 19 a2 00 00 	mov    0xa219(%rip),%rax        # 1bde0 <g_529>
   11bc7:	48 8d 15 ca 8c 00 00 	lea    0x8cca(%rip),%rdx        # 1a898 <g_221>
   11bce:	48 39 d0             	cmp    %rdx,%rax
   11bd1:	0f 94 c0             	sete   %al
   11bd4:	0f b6 d0             	movzbl %al,%edx
   11bd7:	0f b7 05 46 84 00 00 	movzwl 0x8446(%rip),%eax        # 1a024 <g_6>
   11bde:	98                   	cwtl   
   11bdf:	39 c2                	cmp    %eax,%edx
   11be1:	0f 9f c0             	setg   %al
   11be4:	0f b6 d0             	movzbl %al,%edx
   11be7:	0f b6 05 b8 8c 00 00 	movzbl 0x8cb8(%rip),%eax        # 1a8a6 <g_345+0x1>
   11bee:	0f be c0             	movsbl %al,%eax
   11bf1:	39 c2                	cmp    %eax,%edx
   11bf3:	0f 94 c0             	sete   %al
   11bf6:	0f b6 c0             	movzbl %al,%eax
   11bf9:	89 85 e8 f8 ff ff    	mov    %eax,-0x718(%rbp)
   11bff:	0f b6 85 58 f8 ff ff 	movzbl -0x7a8(%rbp),%eax
   11c06:	0f be d8             	movsbl %al,%ebx
   11c09:	48 0f be 95 67 f8 ff 	movsbq -0x799(%rbp),%rdx
   11c10:	ff 
   11c11:	c7 85 5c fa ff ff fd 	movl   $0xe8fd,-0x5a4(%rbp)
   11c18:	e8 00 00 
   11c1b:	8b 8d 5c fa ff ff    	mov    -0x5a4(%rbp),%ecx
   11c21:	48 8b 85 c0 f9 ff ff 	mov    -0x640(%rbp),%rax
   11c28:	0f b7 00             	movzwl (%rax),%eax
   11c2b:	89 c6                	mov    %eax,%esi
   11c2d:	89 c8                	mov    %ecx,%eax
   11c2f:	31 f0                	xor    %esi,%eax
   11c31:	89 c1                	mov    %eax,%ecx
   11c33:	48 8b 85 c0 f9 ff ff 	mov    -0x640(%rbp),%rax
   11c3a:	66 89 08             	mov    %cx,(%rax)
   11c3d:	48 8b 85 c0 f9 ff ff 	mov    -0x640(%rbp),%rax
   11c44:	0f b7 00             	movzwl (%rax),%eax
   11c47:	66 85 c0             	test   %ax,%ax
   11c4a:	74 3f                	je     11c8b <func_104+0x103c>
   11c4c:	48 8d 05 dd 83 00 00 	lea    0x83dd(%rip),%rax        # 1a030 <g_48>
   11c53:	48 89 85 f8 f9 ff ff 	mov    %rax,-0x608(%rbp)
   11c5a:	b9 01 00 00 00       	mov    $0x1,%ecx
   11c5f:	48 8b 85 b0 f9 ff ff 	mov    -0x650(%rbp),%rax
   11c66:	0f b7 00             	movzwl (%rax),%eax
   11c69:	09 c1                	or     %eax,%ecx
   11c6b:	48 8b 85 b0 f9 ff ff 	mov    -0x650(%rbp),%rax
   11c72:	66 89 08             	mov    %cx,(%rax)
   11c75:	48 8b 85 b0 f9 ff ff 	mov    -0x650(%rbp),%rax
   11c7c:	0f b7 00             	movzwl (%rax),%eax
   11c7f:	66 85 c0             	test   %ax,%ax
   11c82:	74 07                	je     11c8b <func_104+0x103c>
   11c84:	b8 01 00 00 00       	mov    $0x1,%eax
   11c89:	eb 05                	jmp    11c90 <func_104+0x1041>
   11c8b:	b8 00 00 00 00       	mov    $0x0,%eax
   11c90:	89 85 e8 f8 ff ff    	mov    %eax,-0x718(%rbp)
   11c96:	8b 85 e8 f8 ff ff    	mov    -0x718(%rbp),%eax
   11c9c:	48 98                	cltq   
   11c9e:	48 89 d6             	mov    %rdx,%rsi
   11ca1:	48 89 c7             	mov    %rax,%rdi
   11ca4:	e8 ff 3b ff ff       	callq  58a8 <safe_sub_func_int64_t_s_s>
   11ca9:	88 05 f8 8b 00 00    	mov    %al,0x8bf8(%rip)        # 1a8a7 <g_345+0x2>
   11caf:	0f b6 05 f1 8b 00 00 	movzbl 0x8bf1(%rip),%eax        # 1a8a7 <g_345+0x2>
   11cb6:	0f be d0             	movsbl %al,%edx
   11cb9:	0f b6 85 5c f8 ff ff 	movzbl -0x7a4(%rbp),%eax
   11cc0:	39 c2                	cmp    %eax,%edx
   11cc2:	0f 95 c2             	setne  %dl
   11cc5:	48 8b 85 c8 f9 ff ff 	mov    -0x638(%rbp),%rax
   11ccc:	48 8b 00             	mov    (%rax),%rax
   11ccf:	0f b6 d2             	movzbl %dl,%edx
   11cd2:	89 10                	mov    %edx,(%rax)
   11cd4:	8b 10                	mov    (%rax),%edx
   11cd6:	48 8b 85 28 f9 ff ff 	mov    -0x6d8(%rbp),%rax
   11cdd:	48 89 05 04 a1 00 00 	mov    %rax,0xa104(%rip)        # 1bde8 <g_537>
   11ce4:	48 8b 05 fd a0 00 00 	mov    0xa0fd(%rip),%rax        # 1bde8 <g_537>
   11ceb:	48 39 85 e8 f9 ff ff 	cmp    %rax,-0x618(%rbp)
   11cf2:	0f 94 c0             	sete   %al
   11cf5:	0f b6 c0             	movzbl %al,%eax
   11cf8:	21 c2                	and    %eax,%edx
   11cfa:	41 89 d4             	mov    %edx,%r12d
   11cfd:	0f b6 85 58 f8 ff ff 	movzbl -0x7a8(%rbp),%eax
   11d04:	0f be c0             	movsbl %al,%eax
   11d07:	be e8 ff ff ff       	mov    $0xffffffe8,%esi
   11d0c:	89 c7                	mov    %eax,%edi
   11d0e:	e8 c1 34 ff ff       	callq  51d4 <safe_add_func_int8_t_s_s>
   11d13:	0f be c0             	movsbl %al,%eax
   11d16:	41 39 c4             	cmp    %eax,%r12d
   11d19:	0f 9e c0             	setle  %al
   11d1c:	0f b6 c0             	movzbl %al,%eax
   11d1f:	89 de                	mov    %ebx,%esi
   11d21:	89 c7                	mov    %eax,%edi
   11d23:	e8 d5 41 ff ff       	callq  5efd <safe_mod_func_uint32_t_u_u>
   11d28:	89 85 7c f8 ff ff    	mov    %eax,-0x784(%rbp)
   11d2e:	eb 1f                	jmp    11d4f <func_104+0x1100>
   11d30:	48 c7 85 d0 f9 ff ff 	movq   $0x0,-0x630(%rbp)
   11d37:	00 00 00 00 
   11d3b:	48 8b 15 96 a0 00 00 	mov    0xa096(%rip),%rdx        # 1bdd8 <g_456>
   11d42:	48 8b 05 a7 a0 00 00 	mov    0xa0a7(%rip),%rax        # 1bdf0 <g_542>
   11d49:	48 8b 12             	mov    (%rdx),%rdx
   11d4c:	48 89 10             	mov    %rdx,(%rax)
   11d4f:	0f b6 85 58 f8 ff ff 	movzbl -0x7a8(%rbp),%eax
   11d56:	0f be c0             	movsbl %al,%eax
   11d59:	be 01 00 00 00       	mov    $0x1,%esi
   11d5e:	89 c7                	mov    %eax,%edi
   11d60:	e8 6e 36 ff ff       	callq  53d3 <safe_sub_func_int16_t_s_s>
   11d65:	88 85 58 f8 ff ff    	mov    %al,-0x7a8(%rbp)
   11d6b:	0f b6 85 58 f8 ff ff 	movzbl -0x7a8(%rbp),%eax
   11d72:	3c ef                	cmp    $0xef,%al
   11d74:	0f 8d 0f f1 ff ff    	jge    10e89 <func_104+0x23a>
   11d7a:	48 8b 05 4f a0 00 00 	mov    0xa04f(%rip),%rax        # 1bdd0 <g_267>
   11d81:	0f b6 95 5c f8 ff ff 	movzbl -0x7a4(%rbp),%edx
   11d88:	89 10                	mov    %edx,(%rax)
   11d8a:	8b 85 b4 f8 ff ff    	mov    -0x74c(%rbp),%eax
   11d90:	48 63 d8             	movslq %eax,%rbx
   11d93:	0f b6 85 58 f8 ff ff 	movzbl -0x7a8(%rbp),%eax
   11d9a:	44 0f be e0          	movsbl %al,%r12d
   11d9e:	48 8b 05 3b a0 00 00 	mov    0xa03b(%rip),%rax        # 1bde0 <g_529>
   11da5:	0f b7 05 78 82 00 00 	movzwl 0x8278(%rip),%eax        # 1a024 <g_6>
   11dac:	44 0f bf e8          	movswl %ax,%r13d
   11db0:	0f b6 05 f5 8a 00 00 	movzbl 0x8af5(%rip),%eax        # 1a8ac <g_346+0x2>
   11db7:	8d 50 ff             	lea    -0x1(%rax),%edx
   11dba:	88 15 ec 8a 00 00    	mov    %dl,0x8aec(%rip)        # 1a8ac <g_346+0x2>
   11dc0:	0f b6 d0             	movzbl %al,%edx
   11dc3:	0f b7 85 68 f8 ff ff 	movzwl -0x798(%rbp),%eax
   11dca:	0f b6 c0             	movzbl %al,%eax
   11dcd:	89 d6                	mov    %edx,%esi
   11dcf:	89 c7                	mov    %eax,%edi
   11dd1:	e8 05 3e ff ff       	callq  5bdb <safe_div_func_uint8_t_u_u>
   11dd6:	44 0f b6 f0          	movzbl %al,%r14d
   11dda:	8b 85 44 fa ff ff    	mov    -0x5bc(%rbp),%eax
   11de0:	89 c2                	mov    %eax,%edx
   11de2:	48 8b 05 f7 9f 00 00 	mov    0x9ff7(%rip),%rax        # 1bde0 <g_529>
   11de9:	48 8b 00             	mov    (%rax),%rax
   11dec:	48 83 f8 fa          	cmp    $0xfffffffffffffffa,%rax
   11df0:	0f 96 c0             	setbe  %al
   11df3:	0f b6 c0             	movzbl %al,%eax
   11df6:	33 85 b8 f8 ff ff    	xor    -0x748(%rbp),%eax
   11dfc:	89 d6                	mov    %edx,%esi
   11dfe:	89 c7                	mov    %eax,%edi
   11e00:	e8 f8 40 ff ff       	callq  5efd <safe_mod_func_uint32_t_u_u>
   11e05:	41 39 c6             	cmp    %eax,%r14d
   11e08:	73 11                	jae    11e1b <func_104+0x11cc>
   11e0a:	66 83 bd 6e f8 ff ff 	cmpw   $0x0,-0x792(%rbp)
   11e11:	00 
   11e12:	74 07                	je     11e1b <func_104+0x11cc>
   11e14:	b8 01 00 00 00       	mov    $0x1,%eax
   11e19:	eb 05                	jmp    11e20 <func_104+0x11d1>
   11e1b:	b8 00 00 00 00       	mov    $0x0,%eax
   11e20:	44 89 ee             	mov    %r13d,%esi
   11e23:	89 c7                	mov    %eax,%edi
   11e25:	e8 d3 40 ff ff       	callq  5efd <safe_mod_func_uint32_t_u_u>
   11e2a:	89 c2                	mov    %eax,%edx
   11e2c:	8b 85 74 f8 ff ff    	mov    -0x78c(%rbp),%eax
   11e32:	89 d6                	mov    %edx,%esi
   11e34:	89 c7                	mov    %eax,%edi
   11e36:	e8 7b 37 ff ff       	callq  55b6 <safe_add_func_int32_t_s_s>
   11e3b:	0f b6 95 5c f8 ff ff 	movzbl -0x7a4(%rbp),%edx
   11e42:	0f b6 85 58 f8 ff ff 	movzbl -0x7a8(%rbp),%eax
   11e49:	0f be c0             	movsbl %al,%eax
   11e4c:	89 d6                	mov    %edx,%esi
   11e4e:	89 c7                	mov    %eax,%edi
   11e50:	e8 7b 40 ff ff       	callq  5ed0 <safe_sub_func_uint32_t_u_u>
   11e55:	44 89 e6             	mov    %r12d,%esi
   11e58:	89 c7                	mov    %eax,%edi
   11e5a:	e8 a6 37 ff ff       	callq  5605 <safe_sub_func_int32_t_s_s>
   11e5f:	48 8b 05 7a 9f 00 00 	mov    0x9f7a(%rip),%rax        # 1bde0 <g_529>
   11e66:	48 8b 00             	mov    (%rax),%rax
   11e69:	48 85 c0             	test   %rax,%rax
   11e6c:	74 13                	je     11e81 <func_104+0x1232>
   11e6e:	48 8b 85 00 f9 ff ff 	mov    -0x700(%rbp),%rax
   11e75:	48 85 c0             	test   %rax,%rax
   11e78:	74 07                	je     11e81 <func_104+0x1232>
   11e7a:	b8 01 00 00 00       	mov    $0x1,%eax
   11e7f:	eb 05                	jmp    11e86 <func_104+0x1237>
   11e81:	b8 00 00 00 00       	mov    $0x0,%eax
   11e86:	48 98                	cltq   
   11e88:	48 89 de             	mov    %rbx,%rsi
   11e8b:	48 89 c7             	mov    %rax,%rdi
   11e8e:	e8 9b 41 ff ff       	callq  602e <safe_add_func_uint64_t_u_u>
   11e93:	48 85 c0             	test   %rax,%rax
   11e96:	0f 84 6b 01 00 00    	je     12007 <func_104+0x13b8>
   11e9c:	c7 85 c4 f8 ff ff 00 	movl   $0x0,-0x73c(%rbp)
   11ea3:	00 00 00 
   11ea6:	c7 85 c8 f8 ff ff 01 	movl   $0x2e97c101,-0x738(%rbp)
   11ead:	c1 97 2e 
   11eb0:	c7 85 cc f8 ff ff 00 	movl   $0x0,-0x734(%rbp)
   11eb7:	00 00 00 
   11eba:	c7 85 d0 f8 ff ff 03 	movl   $0x3,-0x730(%rbp)
   11ec1:	00 00 00 
   11ec4:	c7 85 d4 f8 ff ff 3a 	movl   $0x43fcbe3a,-0x72c(%rbp)
   11ecb:	be fc 43 
   11ece:	c7 85 a0 fb ff ff a0 	movl   $0x67f4cca0,-0x460(%rbp)
   11ed5:	cc f4 67 
   11ed8:	c7 85 a4 fb ff ff a0 	movl   $0x67f4cca0,-0x45c(%rbp)
   11edf:	cc f4 67 
   11ee2:	c7 85 a8 fb ff ff a0 	movl   $0x67f4cca0,-0x458(%rbp)
   11ee9:	cc f4 67 
   11eec:	c7 85 ac fb ff ff a0 	movl   $0x67f4cca0,-0x454(%rbp)
   11ef3:	cc f4 67 
   11ef6:	c7 85 b0 fb ff ff a0 	movl   $0x67f4cca0,-0x450(%rbp)
   11efd:	cc f4 67 
   11f00:	c7 85 b4 fb ff ff a0 	movl   $0x67f4cca0,-0x44c(%rbp)
   11f07:	cc f4 67 
   11f0a:	c7 85 b8 fb ff ff a0 	movl   $0x67f4cca0,-0x448(%rbp)
   11f11:	cc f4 67 
   11f14:	c7 05 82 89 00 00 00 	movl   $0x0,0x8982(%rip)        # 1a8a0 <g_246>
   11f1b:	00 00 00 
   11f1e:	e9 d0 00 00 00       	jmpq   11ff3 <func_104+0x13a4>
   11f23:	48 8d 05 06 81 00 00 	lea    0x8106(%rip),%rax        # 1a030 <g_48>
   11f2a:	48 89 85 c0 fc ff ff 	mov    %rax,-0x340(%rbp)
   11f31:	48 8d 05 f8 80 00 00 	lea    0x80f8(%rip),%rax        # 1a030 <g_48>
   11f38:	48 89 85 c8 fc ff ff 	mov    %rax,-0x338(%rbp)
   11f3f:	48 8d 05 ea 80 00 00 	lea    0x80ea(%rip),%rax        # 1a030 <g_48>
   11f46:	48 89 85 d0 fc ff ff 	mov    %rax,-0x330(%rbp)
   11f4d:	48 8d 05 dc 80 00 00 	lea    0x80dc(%rip),%rax        # 1a030 <g_48>
   11f54:	48 89 85 d8 fc ff ff 	mov    %rax,-0x328(%rbp)
   11f5b:	48 8d 05 ce 80 00 00 	lea    0x80ce(%rip),%rax        # 1a030 <g_48>
   11f62:	48 89 85 e0 fc ff ff 	mov    %rax,-0x320(%rbp)
   11f69:	48 8d 05 c0 80 00 00 	lea    0x80c0(%rip),%rax        # 1a030 <g_48>
   11f70:	48 89 85 e8 fc ff ff 	mov    %rax,-0x318(%rbp)
   11f77:	48 8d 05 b2 80 00 00 	lea    0x80b2(%rip),%rax        # 1a030 <g_48>
   11f7e:	48 89 85 f0 fc ff ff 	mov    %rax,-0x310(%rbp)
   11f85:	48 c7 85 90 f9 ff ff 	movq   $0x0,-0x670(%rbp)
   11f8c:	00 00 00 00 
   11f90:	48 8d 85 84 f8 ff ff 	lea    -0x77c(%rbp),%rax
   11f97:	48 89 85 98 f9 ff ff 	mov    %rax,-0x668(%rbp)
   11f9e:	48 c7 85 a0 f9 ff ff 	movq   $0x3,-0x660(%rbp)
   11fa5:	03 00 00 00 
   11fa9:	48 8d 85 68 f8 ff ff 	lea    -0x798(%rbp),%rax
   11fb0:	48 89 85 a8 f9 ff ff 	mov    %rax,-0x658(%rbp)
   11fb7:	48 8b 85 d8 fc ff ff 	mov    -0x328(%rbp),%rax
   11fbe:	48 89 85 f0 fc ff ff 	mov    %rax,-0x310(%rbp)
   11fc5:	48 8b 85 f0 fc ff ff 	mov    -0x310(%rbp),%rax
   11fcc:	48 89 85 98 f9 ff ff 	mov    %rax,-0x668(%rbp)
   11fd3:	48 8b 05 fe 9d 00 00 	mov    0x9dfe(%rip),%rax        # 1bdd8 <g_456>
   11fda:	48 8b 95 98 f9 ff ff 	mov    -0x668(%rbp),%rdx
   11fe1:	48 89 10             	mov    %rdx,(%rax)
   11fe4:	8b 05 b6 88 00 00    	mov    0x88b6(%rip),%eax        # 1a8a0 <g_246>
   11fea:	83 c0 01             	add    $0x1,%eax
   11fed:	89 05 ad 88 00 00    	mov    %eax,0x88ad(%rip)        # 1a8a0 <g_246>
   11ff3:	8b 05 a7 88 00 00    	mov    0x88a7(%rip),%eax        # 1a8a0 <g_246>
   11ff9:	83 f8 3c             	cmp    $0x3c,%eax
   11ffc:	0f 85 21 ff ff ff    	jne    11f23 <func_104+0x12d4>
   12002:	e9 17 0c 00 00       	jmpq   12c1e <func_104+0x1fcf>
   12007:	48 8d 05 c2 9d 00 00 	lea    0x9dc2(%rip),%rax        # 1bdd0 <g_267>
   1200e:	48 89 85 48 f9 ff ff 	mov    %rax,-0x6b8(%rbp)
   12015:	c7 85 a8 f8 ff ff ff 	movl   $0x6b71f0ff,-0x758(%rbp)
   1201c:	f0 71 6b 
   1201f:	48 8d 05 d2 9d 00 00 	lea    0x9dd2(%rip),%rax        # 1bdf8 <g_600>
   12026:	48 89 85 50 f9 ff ff 	mov    %rax,-0x6b0(%rbp)
   1202d:	c7 85 ac f8 ff ff 00 	movl   $0x0,-0x754(%rbp)
   12034:	00 00 00 
   12037:	eb 1a                	jmp    12053 <func_104+0x1404>
   12039:	8b 85 ac f8 ff ff    	mov    -0x754(%rbp),%eax
   1203f:	48 98                	cltq   
   12041:	c7 84 85 90 fa ff ff 	movl   $0x8,-0x570(%rbp,%rax,4)
   12048:	08 00 00 00 
   1204c:	83 85 ac f8 ff ff 01 	addl   $0x1,-0x754(%rbp)
   12053:	83 bd ac f8 ff ff 06 	cmpl   $0x6,-0x754(%rbp)
   1205a:	7e dd                	jle    12039 <func_104+0x13ea>
   1205c:	83 bd b4 f8 ff ff 00 	cmpl   $0x0,-0x74c(%rbp)
   12063:	0f 84 ec 09 00 00    	je     12a55 <func_104+0x1e06>
   12069:	48 8d 85 00 f9 ff ff 	lea    -0x700(%rbp),%rax
   12070:	48 89 85 c0 fc ff ff 	mov    %rax,-0x340(%rbp)
   12077:	48 8d 05 8a 82 00 00 	lea    0x828a(%rip),%rax        # 1a308 <g_196+0x288>
   1207e:	48 89 85 c8 fc ff ff 	mov    %rax,-0x338(%rbp)
   12085:	48 8d 85 00 f9 ff ff 	lea    -0x700(%rbp),%rax
   1208c:	48 89 85 d0 fc ff ff 	mov    %rax,-0x330(%rbp)
   12093:	48 8d 05 46 83 00 00 	lea    0x8346(%rip),%rax        # 1a3e0 <g_196+0x360>
   1209a:	48 89 85 d8 fc ff ff 	mov    %rax,-0x328(%rbp)
   120a1:	48 8d 05 60 82 00 00 	lea    0x8260(%rip),%rax        # 1a308 <g_196+0x288>
   120a8:	48 89 85 e0 fc ff ff 	mov    %rax,-0x320(%rbp)
   120af:	48 8d 05 12 83 00 00 	lea    0x8312(%rip),%rax        # 1a3c8 <g_196+0x348>
   120b6:	48 89 85 e8 fc ff ff 	mov    %rax,-0x318(%rbp)
   120bd:	48 c7 85 f0 fc ff ff 	movq   $0x0,-0x310(%rbp)
   120c4:	00 00 00 00 
   120c8:	48 8d 05 39 82 00 00 	lea    0x8239(%rip),%rax        # 1a308 <g_196+0x288>
   120cf:	48 89 85 f8 fc ff ff 	mov    %rax,-0x308(%rbp)
   120d6:	48 8d 05 2b 82 00 00 	lea    0x822b(%rip),%rax        # 1a308 <g_196+0x288>
   120dd:	48 89 85 00 fd ff ff 	mov    %rax,-0x300(%rbp)
   120e4:	48 8d 85 00 f9 ff ff 	lea    -0x700(%rbp),%rax
   120eb:	48 89 85 08 fd ff ff 	mov    %rax,-0x2f8(%rbp)
   120f2:	48 8d 05 0f 82 00 00 	lea    0x820f(%rip),%rax        # 1a308 <g_196+0x288>
   120f9:	48 89 85 10 fd ff ff 	mov    %rax,-0x2f0(%rbp)
   12100:	48 8d 85 00 f9 ff ff 	lea    -0x700(%rbp),%rax
   12107:	48 89 85 18 fd ff ff 	mov    %rax,-0x2e8(%rbp)
   1210e:	48 8d 05 cb 82 00 00 	lea    0x82cb(%rip),%rax        # 1a3e0 <g_196+0x360>
   12115:	48 89 85 20 fd ff ff 	mov    %rax,-0x2e0(%rbp)
   1211c:	48 8d 05 e5 81 00 00 	lea    0x81e5(%rip),%rax        # 1a308 <g_196+0x288>
   12123:	48 89 85 28 fd ff ff 	mov    %rax,-0x2d8(%rbp)
   1212a:	48 8d 05 97 82 00 00 	lea    0x8297(%rip),%rax        # 1a3c8 <g_196+0x348>
   12131:	48 89 85 30 fd ff ff 	mov    %rax,-0x2d0(%rbp)
   12138:	48 c7 85 38 fd ff ff 	movq   $0x0,-0x2c8(%rbp)
   1213f:	00 00 00 00 
   12143:	48 8d 05 be 81 00 00 	lea    0x81be(%rip),%rax        # 1a308 <g_196+0x288>
   1214a:	48 89 85 40 fd ff ff 	mov    %rax,-0x2c0(%rbp)
   12151:	48 8d 05 b0 81 00 00 	lea    0x81b0(%rip),%rax        # 1a308 <g_196+0x288>
   12158:	48 89 85 48 fd ff ff 	mov    %rax,-0x2b8(%rbp)
   1215f:	48 8d 85 00 f9 ff ff 	lea    -0x700(%rbp),%rax
   12166:	48 89 85 50 fd ff ff 	mov    %rax,-0x2b0(%rbp)
   1216d:	48 8d 05 94 81 00 00 	lea    0x8194(%rip),%rax        # 1a308 <g_196+0x288>
   12174:	48 89 85 58 fd ff ff 	mov    %rax,-0x2a8(%rbp)
   1217b:	48 8d 85 00 f9 ff ff 	lea    -0x700(%rbp),%rax
   12182:	48 89 85 60 fd ff ff 	mov    %rax,-0x2a0(%rbp)
   12189:	48 8d 05 50 82 00 00 	lea    0x8250(%rip),%rax        # 1a3e0 <g_196+0x360>
   12190:	48 89 85 68 fd ff ff 	mov    %rax,-0x298(%rbp)
   12197:	48 8d 05 6a 81 00 00 	lea    0x816a(%rip),%rax        # 1a308 <g_196+0x288>
   1219e:	48 89 85 70 fd ff ff 	mov    %rax,-0x290(%rbp)
   121a5:	48 8d 05 1c 82 00 00 	lea    0x821c(%rip),%rax        # 1a3c8 <g_196+0x348>
   121ac:	48 89 85 78 fd ff ff 	mov    %rax,-0x288(%rbp)
   121b3:	48 c7 85 80 fd ff ff 	movq   $0x0,-0x280(%rbp)
   121ba:	00 00 00 00 
   121be:	48 8d 05 43 81 00 00 	lea    0x8143(%rip),%rax        # 1a308 <g_196+0x288>
   121c5:	48 89 85 88 fd ff ff 	mov    %rax,-0x278(%rbp)
   121cc:	48 8d 05 35 81 00 00 	lea    0x8135(%rip),%rax        # 1a308 <g_196+0x288>
   121d3:	48 89 85 90 fd ff ff 	mov    %rax,-0x270(%rbp)
   121da:	48 8d 85 00 f9 ff ff 	lea    -0x700(%rbp),%rax
   121e1:	48 89 85 98 fd ff ff 	mov    %rax,-0x268(%rbp)
   121e8:	48 8d 05 19 81 00 00 	lea    0x8119(%rip),%rax        # 1a308 <g_196+0x288>
   121ef:	48 89 85 a0 fd ff ff 	mov    %rax,-0x260(%rbp)
   121f6:	48 8d 85 00 f9 ff ff 	lea    -0x700(%rbp),%rax
   121fd:	48 89 85 a8 fd ff ff 	mov    %rax,-0x258(%rbp)
   12204:	48 8d 05 d5 81 00 00 	lea    0x81d5(%rip),%rax        # 1a3e0 <g_196+0x360>
   1220b:	48 89 85 b0 fd ff ff 	mov    %rax,-0x250(%rbp)
   12212:	48 8d 05 ef 80 00 00 	lea    0x80ef(%rip),%rax        # 1a308 <g_196+0x288>
   12219:	48 89 85 b8 fd ff ff 	mov    %rax,-0x248(%rbp)
   12220:	48 8d 05 a1 81 00 00 	lea    0x81a1(%rip),%rax        # 1a3c8 <g_196+0x348>
   12227:	48 89 85 c0 fd ff ff 	mov    %rax,-0x240(%rbp)
   1222e:	48 c7 85 c8 fd ff ff 	movq   $0x0,-0x238(%rbp)
   12235:	00 00 00 00 
   12239:	48 8d 05 c8 80 00 00 	lea    0x80c8(%rip),%rax        # 1a308 <g_196+0x288>
   12240:	48 89 85 d0 fd ff ff 	mov    %rax,-0x230(%rbp)
   12247:	48 8d 05 ba 80 00 00 	lea    0x80ba(%rip),%rax        # 1a308 <g_196+0x288>
   1224e:	48 89 85 d8 fd ff ff 	mov    %rax,-0x228(%rbp)
   12255:	48 8d 85 00 f9 ff ff 	lea    -0x700(%rbp),%rax
   1225c:	48 89 85 e0 fd ff ff 	mov    %rax,-0x220(%rbp)
   12263:	48 8d 05 9e 80 00 00 	lea    0x809e(%rip),%rax        # 1a308 <g_196+0x288>
   1226a:	48 89 85 e8 fd ff ff 	mov    %rax,-0x218(%rbp)
   12271:	48 8d 85 00 f9 ff ff 	lea    -0x700(%rbp),%rax
   12278:	48 89 85 f0 fd ff ff 	mov    %rax,-0x210(%rbp)
   1227f:	48 8d 05 5a 81 00 00 	lea    0x815a(%rip),%rax        # 1a3e0 <g_196+0x360>
   12286:	48 89 85 f8 fd ff ff 	mov    %rax,-0x208(%rbp)
   1228d:	48 8d 05 74 80 00 00 	lea    0x8074(%rip),%rax        # 1a308 <g_196+0x288>
   12294:	48 89 85 00 fe ff ff 	mov    %rax,-0x200(%rbp)
   1229b:	48 8d 05 26 81 00 00 	lea    0x8126(%rip),%rax        # 1a3c8 <g_196+0x348>
   122a2:	48 89 85 08 fe ff ff 	mov    %rax,-0x1f8(%rbp)
   122a9:	48 c7 85 10 fe ff ff 	movq   $0x0,-0x1f0(%rbp)
   122b0:	00 00 00 00 
   122b4:	48 8d 05 4d 80 00 00 	lea    0x804d(%rip),%rax        # 1a308 <g_196+0x288>
   122bb:	48 89 85 18 fe ff ff 	mov    %rax,-0x1e8(%rbp)
   122c2:	48 8d 05 3f 80 00 00 	lea    0x803f(%rip),%rax        # 1a308 <g_196+0x288>
   122c9:	48 89 85 20 fe ff ff 	mov    %rax,-0x1e0(%rbp)
   122d0:	48 8d 85 00 f9 ff ff 	lea    -0x700(%rbp),%rax
   122d7:	48 89 85 28 fe ff ff 	mov    %rax,-0x1d8(%rbp)
   122de:	48 8d 05 23 80 00 00 	lea    0x8023(%rip),%rax        # 1a308 <g_196+0x288>
   122e5:	48 89 85 30 fe ff ff 	mov    %rax,-0x1d0(%rbp)
   122ec:	48 8d 85 00 f9 ff ff 	lea    -0x700(%rbp),%rax
   122f3:	48 89 85 38 fe ff ff 	mov    %rax,-0x1c8(%rbp)
   122fa:	48 8d 05 df 80 00 00 	lea    0x80df(%rip),%rax        # 1a3e0 <g_196+0x360>
   12301:	48 89 85 40 fe ff ff 	mov    %rax,-0x1c0(%rbp)
   12308:	48 8d 05 f9 7f 00 00 	lea    0x7ff9(%rip),%rax        # 1a308 <g_196+0x288>
   1230f:	48 89 85 48 fe ff ff 	mov    %rax,-0x1b8(%rbp)
   12316:	48 8d 05 ab 80 00 00 	lea    0x80ab(%rip),%rax        # 1a3c8 <g_196+0x348>
   1231d:	48 89 85 50 fe ff ff 	mov    %rax,-0x1b0(%rbp)
   12324:	48 c7 85 58 fe ff ff 	movq   $0x0,-0x1a8(%rbp)
   1232b:	00 00 00 00 
   1232f:	48 8d 05 d2 7f 00 00 	lea    0x7fd2(%rip),%rax        # 1a308 <g_196+0x288>
   12336:	48 89 85 60 fe ff ff 	mov    %rax,-0x1a0(%rbp)
   1233d:	48 8d 05 c4 7f 00 00 	lea    0x7fc4(%rip),%rax        # 1a308 <g_196+0x288>
   12344:	48 89 85 68 fe ff ff 	mov    %rax,-0x198(%rbp)
   1234b:	48 8d 85 00 f9 ff ff 	lea    -0x700(%rbp),%rax
   12352:	48 89 85 70 fe ff ff 	mov    %rax,-0x190(%rbp)
   12359:	48 8d 05 a8 7f 00 00 	lea    0x7fa8(%rip),%rax        # 1a308 <g_196+0x288>
   12360:	48 89 85 78 fe ff ff 	mov    %rax,-0x188(%rbp)
   12367:	48 8d 85 00 f9 ff ff 	lea    -0x700(%rbp),%rax
   1236e:	48 89 85 80 fe ff ff 	mov    %rax,-0x180(%rbp)
   12375:	48 8d 05 64 80 00 00 	lea    0x8064(%rip),%rax        # 1a3e0 <g_196+0x360>
   1237c:	48 89 85 88 fe ff ff 	mov    %rax,-0x178(%rbp)
   12383:	48 8d 05 7e 7f 00 00 	lea    0x7f7e(%rip),%rax        # 1a308 <g_196+0x288>
   1238a:	48 89 85 90 fe ff ff 	mov    %rax,-0x170(%rbp)
   12391:	48 8d 05 30 80 00 00 	lea    0x8030(%rip),%rax        # 1a3c8 <g_196+0x348>
   12398:	48 89 85 98 fe ff ff 	mov    %rax,-0x168(%rbp)
   1239f:	48 c7 85 a0 fe ff ff 	movq   $0x0,-0x160(%rbp)
   123a6:	00 00 00 00 
   123aa:	48 8d 05 57 7f 00 00 	lea    0x7f57(%rip),%rax        # 1a308 <g_196+0x288>
   123b1:	48 89 85 a8 fe ff ff 	mov    %rax,-0x158(%rbp)
   123b8:	48 8d 05 49 7f 00 00 	lea    0x7f49(%rip),%rax        # 1a308 <g_196+0x288>
   123bf:	48 89 85 b0 fe ff ff 	mov    %rax,-0x150(%rbp)
   123c6:	48 8d 85 00 f9 ff ff 	lea    -0x700(%rbp),%rax
   123cd:	48 89 85 b8 fe ff ff 	mov    %rax,-0x148(%rbp)
   123d4:	48 8d 05 2d 7f 00 00 	lea    0x7f2d(%rip),%rax        # 1a308 <g_196+0x288>
   123db:	48 89 85 c0 fe ff ff 	mov    %rax,-0x140(%rbp)
   123e2:	48 8d 85 00 f9 ff ff 	lea    -0x700(%rbp),%rax
   123e9:	48 89 85 c8 fe ff ff 	mov    %rax,-0x138(%rbp)
   123f0:	48 8d 05 e9 7f 00 00 	lea    0x7fe9(%rip),%rax        # 1a3e0 <g_196+0x360>
   123f7:	48 89 85 d0 fe ff ff 	mov    %rax,-0x130(%rbp)
   123fe:	48 8d 05 03 7f 00 00 	lea    0x7f03(%rip),%rax        # 1a308 <g_196+0x288>
   12405:	48 89 85 d8 fe ff ff 	mov    %rax,-0x128(%rbp)
   1240c:	48 8d 05 b5 7f 00 00 	lea    0x7fb5(%rip),%rax        # 1a3c8 <g_196+0x348>
   12413:	48 89 85 e0 fe ff ff 	mov    %rax,-0x120(%rbp)
   1241a:	48 c7 85 e8 fe ff ff 	movq   $0x0,-0x118(%rbp)
   12421:	00 00 00 00 
   12425:	48 8d 05 dc 7e 00 00 	lea    0x7edc(%rip),%rax        # 1a308 <g_196+0x288>
   1242c:	48 89 85 f0 fe ff ff 	mov    %rax,-0x110(%rbp)
   12433:	48 8d 05 ce 7e 00 00 	lea    0x7ece(%rip),%rax        # 1a308 <g_196+0x288>
   1243a:	48 89 85 f8 fe ff ff 	mov    %rax,-0x108(%rbp)
   12441:	48 8d 85 00 f9 ff ff 	lea    -0x700(%rbp),%rax
   12448:	48 89 85 00 ff ff ff 	mov    %rax,-0x100(%rbp)
   1244f:	48 8d 05 b2 7e 00 00 	lea    0x7eb2(%rip),%rax        # 1a308 <g_196+0x288>
   12456:	48 89 85 08 ff ff ff 	mov    %rax,-0xf8(%rbp)
   1245d:	48 8d 85 00 f9 ff ff 	lea    -0x700(%rbp),%rax
   12464:	48 89 85 10 ff ff ff 	mov    %rax,-0xf0(%rbp)
   1246b:	48 8d 05 6e 7f 00 00 	lea    0x7f6e(%rip),%rax        # 1a3e0 <g_196+0x360>
   12472:	48 89 85 18 ff ff ff 	mov    %rax,-0xe8(%rbp)
   12479:	48 8d 05 88 7e 00 00 	lea    0x7e88(%rip),%rax        # 1a308 <g_196+0x288>
   12480:	48 89 85 20 ff ff ff 	mov    %rax,-0xe0(%rbp)
   12487:	48 8d 05 3a 7f 00 00 	lea    0x7f3a(%rip),%rax        # 1a3c8 <g_196+0x348>
   1248e:	48 89 85 28 ff ff ff 	mov    %rax,-0xd8(%rbp)
   12495:	48 c7 85 30 ff ff ff 	movq   $0x0,-0xd0(%rbp)
   1249c:	00 00 00 00 
   124a0:	48 8d 05 61 7e 00 00 	lea    0x7e61(%rip),%rax        # 1a308 <g_196+0x288>
   124a7:	48 89 85 38 ff ff ff 	mov    %rax,-0xc8(%rbp)
   124ae:	48 8d 05 53 7e 00 00 	lea    0x7e53(%rip),%rax        # 1a308 <g_196+0x288>
   124b5:	48 89 85 40 ff ff ff 	mov    %rax,-0xc0(%rbp)
   124bc:	48 8d 85 00 f9 ff ff 	lea    -0x700(%rbp),%rax
   124c3:	48 89 85 48 ff ff ff 	mov    %rax,-0xb8(%rbp)
   124ca:	48 8d 05 37 7e 00 00 	lea    0x7e37(%rip),%rax        # 1a308 <g_196+0x288>
   124d1:	48 89 85 50 ff ff ff 	mov    %rax,-0xb0(%rbp)
   124d8:	48 8d 85 00 f9 ff ff 	lea    -0x700(%rbp),%rax
   124df:	48 89 85 58 ff ff ff 	mov    %rax,-0xa8(%rbp)
   124e6:	48 8d 05 f3 7e 00 00 	lea    0x7ef3(%rip),%rax        # 1a3e0 <g_196+0x360>
   124ed:	48 89 85 60 ff ff ff 	mov    %rax,-0xa0(%rbp)
   124f4:	48 8d 05 0d 7e 00 00 	lea    0x7e0d(%rip),%rax        # 1a308 <g_196+0x288>
   124fb:	48 89 85 68 ff ff ff 	mov    %rax,-0x98(%rbp)
   12502:	48 8d 05 bf 7e 00 00 	lea    0x7ebf(%rip),%rax        # 1a3c8 <g_196+0x348>
   12509:	48 89 85 70 ff ff ff 	mov    %rax,-0x90(%rbp)
   12510:	48 c7 85 78 ff ff ff 	movq   $0x0,-0x88(%rbp)
   12517:	00 00 00 00 
   1251b:	48 8d 05 e6 7d 00 00 	lea    0x7de6(%rip),%rax        # 1a308 <g_196+0x288>
   12522:	48 89 45 80          	mov    %rax,-0x80(%rbp)
   12526:	48 8d 05 db 7d 00 00 	lea    0x7ddb(%rip),%rax        # 1a308 <g_196+0x288>
   1252d:	48 89 45 88          	mov    %rax,-0x78(%rbp)
   12531:	48 8d 85 00 f9 ff ff 	lea    -0x700(%rbp),%rax
   12538:	48 89 45 90          	mov    %rax,-0x70(%rbp)
   1253c:	48 8d 05 c5 7d 00 00 	lea    0x7dc5(%rip),%rax        # 1a308 <g_196+0x288>
   12543:	48 89 45 98          	mov    %rax,-0x68(%rbp)
   12547:	48 8d 85 00 f9 ff ff 	lea    -0x700(%rbp),%rax
   1254e:	48 89 45 a0          	mov    %rax,-0x60(%rbp)
   12552:	48 8d 05 87 7e 00 00 	lea    0x7e87(%rip),%rax        # 1a3e0 <g_196+0x360>
   12559:	48 89 45 a8          	mov    %rax,-0x58(%rbp)
   1255d:	48 8d 05 a4 7d 00 00 	lea    0x7da4(%rip),%rax        # 1a308 <g_196+0x288>
   12564:	48 89 45 b0          	mov    %rax,-0x50(%rbp)
   12568:	48 8d 05 59 7e 00 00 	lea    0x7e59(%rip),%rax        # 1a3c8 <g_196+0x348>
   1256f:	48 89 45 b8          	mov    %rax,-0x48(%rbp)
   12573:	c6 85 65 f8 ff ff 05 	movb   $0x5,-0x79b(%rbp)
   1257a:	48 c7 85 18 f9 ff ff 	movq   $0x0,-0x6e8(%rbp)
   12581:	00 00 00 00 
   12585:	48 8d 85 18 f9 ff ff 	lea    -0x6e8(%rbp),%rax
   1258c:	48 89 85 60 f9 ff ff 	mov    %rax,-0x6a0(%rbp)
   12593:	48 8d 05 f6 82 00 00 	lea    0x82f6(%rip),%rax        # 1a890 <g_220>
   1259a:	48 89 85 68 f9 ff ff 	mov    %rax,-0x698(%rbp)
   125a1:	48 c7 85 70 f9 ff ff 	movq   $0x0,-0x690(%rbp)
   125a8:	00 00 00 00 
   125ac:	c7 85 c0 f8 ff ff c0 	movl   $0x57ea8ac0,-0x740(%rbp)
   125b3:	8a ea 57 
   125b6:	48 b8 ea 97 4f ef f8 	movabs $0xf06201f8ef4f97ea,%rax
   125bd:	01 62 f0 
   125c0:	48 89 85 20 f9 ff ff 	mov    %rax,-0x6e0(%rbp)
   125c7:	c7 85 c0 fa ff ff f8 	movl   $0xfffffff8,-0x540(%rbp)
   125ce:	ff ff ff 
   125d1:	c7 85 c4 fa ff ff 03 	movl   $0x789e8603,-0x53c(%rbp)
   125d8:	86 9e 78 
   125db:	c7 85 c8 fa ff ff 03 	movl   $0x789e8603,-0x538(%rbp)
   125e2:	86 9e 78 
   125e5:	c7 85 cc fa ff ff f8 	movl   $0xfffffff8,-0x534(%rbp)
   125ec:	ff ff ff 
   125ef:	c7 85 d0 fa ff ff 03 	movl   $0x789e8603,-0x530(%rbp)
   125f6:	86 9e 78 
   125f9:	c7 85 d4 fa ff ff f8 	movl   $0xfffffff8,-0x52c(%rbp)
   12600:	ff ff ff 
   12603:	c7 85 d8 fa ff ff f8 	movl   $0xfffffff8,-0x528(%rbp)
   1260a:	ff ff ff 
   1260d:	c7 85 dc fa ff ff ab 	movl   $0xfd2124ab,-0x524(%rbp)
   12614:	24 21 fd 
   12617:	c7 85 e0 fa ff ff f8 	movl   $0xfffffff8,-0x520(%rbp)
   1261e:	ff ff ff 
   12621:	c7 85 e4 fa ff ff f8 	movl   $0xfffffff8,-0x51c(%rbp)
   12628:	ff ff ff 
   1262b:	48 8d 05 5e a9 00 00 	lea    0xa95e(%rip),%rax        # 1cf90 <g_457>
   12632:	48 89 85 78 f9 ff ff 	mov    %rax,-0x688(%rbp)
   12639:	48 8b 85 48 f9 ff ff 	mov    -0x6b8(%rbp),%rax
   12640:	48 8b 00             	mov    (%rax),%rax
   12643:	8b 00                	mov    (%rax),%eax
   12645:	0f bf d8             	movswl %ax,%ebx
   12648:	48 8b 05 09 7a 00 00 	mov    0x7a09(%rip),%rax        # 1a058 <g_115>
   1264f:	41 89 c6             	mov    %eax,%r14d
   12652:	44 8b 25 f7 79 00 00 	mov    0x79f7(%rip),%r12d        # 1a050 <g_100>
   12659:	48 8b 05 70 97 00 00 	mov    0x9770(%rip),%rax        # 1bdd0 <g_267>
   12660:	8b 00                	mov    (%rax),%eax
   12662:	41 89 c7             	mov    %eax,%r15d
   12665:	0f b7 05 1e a9 00 00 	movzwl 0xa91e(%rip),%eax        # 1cf8a <g_50>
   1266c:	44 0f be e8          	movsbl %al,%r13d
   12670:	0f b6 15 ec 79 00 00 	movzbl 0x79ec(%rip),%edx        # 1a063 <g_154>
   12677:	0f b6 85 65 f8 ff ff 	movzbl -0x79b(%rbp),%eax
   1267e:	21 d0                	and    %edx,%eax
   12680:	88 85 65 f8 ff ff    	mov    %al,-0x79b(%rbp)
   12686:	be 00 00 00 00       	mov    $0x0,%esi
   1268b:	bf 32 05 90 82       	mov    $0x82900532,%edi
   12690:	e8 3b 38 ff ff       	callq  5ed0 <safe_sub_func_uint32_t_u_u>
   12695:	89 c6                	mov    %eax,%esi
   12697:	bf fb ff ff ff       	mov    $0xfffffffb,%edi
   1269c:	e8 c2 2e ff ff       	callq  5563 <safe_rshift_func_int16_t_s_u>
   126a1:	66 85 c0             	test   %ax,%ax
   126a4:	74 5e                	je     12704 <func_104+0x1ab5>
   126a6:	48 8d 05 33 98 00 00 	lea    0x9833(%rip),%rax        # 1bee0 <g_697+0xc0>
   126ad:	48 39 85 60 f9 ff ff 	cmp    %rax,-0x6a0(%rbp)
   126b4:	0f 94 c0             	sete   %al
   126b7:	0f b6 c0             	movzbl %al,%eax
   126ba:	be 8e 12 78 50       	mov    $0x5078128e,%esi
   126bf:	89 c7                	mov    %eax,%edi
   126c1:	e8 f0 2e ff ff       	callq  55b6 <safe_add_func_int32_t_s_s>
   126c6:	89 c2                	mov    %eax,%edx
   126c8:	8b 85 a8 fa ff ff    	mov    -0x558(%rbp),%eax
   126ce:	21 c2                	and    %eax,%edx
   126d0:	0f b6 85 58 f8 ff ff 	movzbl -0x7a8(%rbp),%eax
   126d7:	66 98                	cbtw   
   126d9:	31 d0                	xor    %edx,%eax
   126db:	98                   	cwtl   
   126dc:	be 03 00 00 00       	mov    $0x3,%esi
   126e1:	89 c7                	mov    %eax,%edi
   126e3:	e8 aa 2d ff ff       	callq  5492 <safe_lshift_func_int16_t_s_s>
   126e8:	0f bf d0             	movswl %ax,%edx
   126eb:	48 8b 85 68 f9 ff ff 	mov    -0x698(%rbp),%rax
   126f2:	89 10                	mov    %edx,(%rax)
   126f4:	80 bd 5c f8 ff ff 00 	cmpb   $0x0,-0x7a4(%rbp)
   126fb:	74 07                	je     12704 <func_104+0x1ab5>
   126fd:	b8 01 00 00 00       	mov    $0x1,%eax
   12702:	eb 05                	jmp    12709 <func_104+0x1aba>
   12704:	b8 00 00 00 00       	mov    $0x0,%eax
   12709:	0f be c0             	movsbl %al,%eax
   1270c:	44 89 ee             	mov    %r13d,%esi
   1270f:	89 c7                	mov    %eax,%edi
   12711:	e8 fc 2a ff ff       	callq  5212 <safe_mul_func_int8_t_s_s>
   12716:	be 13 9a 00 00       	mov    $0x9a13,%esi
   1271b:	bf 01 00 00 00       	mov    $0x1,%edi
   12720:	e8 da 35 ff ff       	callq  5cff <safe_add_func_uint16_t_u_u>
   12725:	44 89 fe             	mov    %r15d,%esi
   12728:	bf 00 00 00 00       	mov    $0x0,%edi
   1272d:	e8 9e 37 ff ff       	callq  5ed0 <safe_sub_func_uint32_t_u_u>
   12732:	44 89 e6             	mov    %r12d,%esi
   12735:	89 c7                	mov    %eax,%edi
   12737:	e8 c1 37 ff ff       	callq  5efd <safe_mod_func_uint32_t_u_u>
   1273c:	0f b7 c0             	movzwl %ax,%eax
   1273f:	44 89 f6             	mov    %r14d,%esi
   12742:	89 c7                	mov    %eax,%edi
   12744:	e8 31 37 ff ff       	callq  5e7a <safe_rshift_func_uint16_t_u_u>
   12749:	ba 00 00 00 00       	mov    $0x0,%edx
   1274e:	0f b7 05 33 81 00 00 	movzwl 0x8133(%rip),%eax        # 1a888 <g_219+0x8>
   12755:	21 d0                	and    %edx,%eax
   12757:	66 89 05 2a 81 00 00 	mov    %ax,0x812a(%rip)        # 1a888 <g_219+0x8>
   1275e:	0f b7 05 23 81 00 00 	movzwl 0x8123(%rip),%eax        # 1a888 <g_219+0x8>
   12765:	98                   	cwtl   
   12766:	89 de                	mov    %ebx,%esi
   12768:	89 c7                	mov    %eax,%edi
   1276a:	e8 86 2c ff ff       	callq  53f5 <safe_mul_func_int16_t_s_s>
   1276f:	89 c2                	mov    %eax,%edx
   12771:	48 8b 05 58 96 00 00 	mov    0x9658(%rip),%rax        # 1bdd0 <g_267>
   12778:	0f bf d2             	movswl %dx,%edx
   1277b:	89 10                	mov    %edx,(%rax)
   1277d:	c6 05 dc 78 00 00 00 	movb   $0x0,0x78dc(%rip)        # 1a060 <g_137>
   12784:	e9 a4 02 00 00       	jmpq   12a2d <func_104+0x1dde>
   12789:	48 8d 85 74 f8 ff ff 	lea    -0x78c(%rbp),%rax
   12790:	48 89 85 80 f9 ff ff 	mov    %rax,-0x680(%rbp)
   12797:	48 8d 85 30 fa ff ff 	lea    -0x5d0(%rbp),%rax
   1279e:	48 83 c0 10          	add    $0x10,%rax
   127a2:	48 89 85 88 f9 ff ff 	mov    %rax,-0x678(%rbp)
   127a9:	c7 85 08 f9 ff ff 01 	movl   $0x1,-0x6f8(%rbp)
   127b0:	00 00 00 
   127b3:	c7 85 10 f9 ff ff f8 	movl   $0xfffffff8,-0x6f0(%rbp)
   127ba:	ff ff ff 
   127bd:	48 8d 85 78 f8 ff ff 	lea    -0x788(%rbp),%rax
   127c4:	48 89 85 a0 fb ff ff 	mov    %rax,-0x460(%rbp)
   127cb:	48 8d 85 10 f9 ff ff 	lea    -0x6f0(%rbp),%rax
   127d2:	48 89 85 a8 fb ff ff 	mov    %rax,-0x458(%rbp)
   127d9:	48 8d 85 78 f8 ff ff 	lea    -0x788(%rbp),%rax
   127e0:	48 89 85 b0 fb ff ff 	mov    %rax,-0x450(%rbp)
   127e7:	48 8d 85 30 fa ff ff 	lea    -0x5d0(%rbp),%rax
   127ee:	48 83 c0 08          	add    $0x8,%rax
   127f2:	48 89 85 b8 fb ff ff 	mov    %rax,-0x448(%rbp)
   127f9:	48 8d 85 10 f9 ff ff 	lea    -0x6f0(%rbp),%rax
   12800:	48 89 85 c0 fb ff ff 	mov    %rax,-0x440(%rbp)
   12807:	48 c7 85 c8 fb ff ff 	movq   $0x0,-0x438(%rbp)
   1280e:	00 00 00 00 
   12812:	48 c7 85 d0 fb ff ff 	movq   $0x0,-0x430(%rbp)
   12819:	00 00 00 00 
   1281d:	48 8d 85 10 f9 ff ff 	lea    -0x6f0(%rbp),%rax
   12824:	48 89 85 d8 fb ff ff 	mov    %rax,-0x428(%rbp)
   1282b:	48 8d 85 7c f8 ff ff 	lea    -0x784(%rbp),%rax
   12832:	48 89 85 e0 fb ff ff 	mov    %rax,-0x420(%rbp)
   12839:	48 8d 85 90 fa ff ff 	lea    -0x570(%rbp),%rax
   12840:	48 83 c0 14          	add    $0x14,%rax
   12844:	48 89 85 e8 fb ff ff 	mov    %rax,-0x418(%rbp)
   1284b:	48 8d 85 7c f8 ff ff 	lea    -0x784(%rbp),%rax
   12852:	48 89 85 f0 fb ff ff 	mov    %rax,-0x410(%rbp)
   12859:	48 8d 85 10 f9 ff ff 	lea    -0x6f0(%rbp),%rax
   12860:	48 89 85 f8 fb ff ff 	mov    %rax,-0x408(%rbp)
   12867:	48 8d 85 90 fa ff ff 	lea    -0x570(%rbp),%rax
   1286e:	48 83 c0 14          	add    $0x14,%rax
   12872:	48 89 85 00 fc ff ff 	mov    %rax,-0x400(%rbp)
   12879:	48 8d 85 08 f9 ff ff 	lea    -0x6f8(%rbp),%rax
   12880:	48 89 85 08 fc ff ff 	mov    %rax,-0x3f8(%rbp)
   12887:	48 8d 85 08 f9 ff ff 	lea    -0x6f8(%rbp),%rax
   1288e:	48 89 85 10 fc ff ff 	mov    %rax,-0x3f0(%rbp)
   12895:	48 c7 85 18 fc ff ff 	movq   $0x0,-0x3e8(%rbp)
   1289c:	00 00 00 00 
   128a0:	48 8d 85 30 fa ff ff 	lea    -0x5d0(%rbp),%rax
   128a7:	48 83 c0 08          	add    $0x8,%rax
   128ab:	48 89 85 20 fc ff ff 	mov    %rax,-0x3e0(%rbp)
   128b2:	48 8d 85 08 f9 ff ff 	lea    -0x6f8(%rbp),%rax
   128b9:	48 89 85 28 fc ff ff 	mov    %rax,-0x3d8(%rbp)
   128c0:	48 8d 85 30 fa ff ff 	lea    -0x5d0(%rbp),%rax
   128c7:	48 83 c0 08          	add    $0x8,%rax
   128cb:	48 89 85 30 fc ff ff 	mov    %rax,-0x3d0(%rbp)
   128d2:	48 c7 85 38 fc ff ff 	movq   $0x0,-0x3c8(%rbp)
   128d9:	00 00 00 00 
   128dd:	48 8d 85 08 f9 ff ff 	lea    -0x6f8(%rbp),%rax
   128e4:	48 89 85 40 fc ff ff 	mov    %rax,-0x3c0(%rbp)
   128eb:	48 8d 85 78 f8 ff ff 	lea    -0x788(%rbp),%rax
   128f2:	48 89 85 48 fc ff ff 	mov    %rax,-0x3b8(%rbp)
   128f9:	48 8d 85 08 f9 ff ff 	lea    -0x6f8(%rbp),%rax
   12900:	48 89 85 50 fc ff ff 	mov    %rax,-0x3b0(%rbp)
   12907:	48 c7 85 58 fc ff ff 	movq   $0x0,-0x3a8(%rbp)
   1290e:	00 00 00 00 
   12912:	48 8d 85 30 fa ff ff 	lea    -0x5d0(%rbp),%rax
   12919:	48 83 c0 08          	add    $0x8,%rax
   1291d:	48 89 85 60 fc ff ff 	mov    %rax,-0x3a0(%rbp)
   12924:	48 8d 85 08 f9 ff ff 	lea    -0x6f8(%rbp),%rax
   1292b:	48 89 85 68 fc ff ff 	mov    %rax,-0x398(%rbp)
   12932:	48 8d 85 30 fa ff ff 	lea    -0x5d0(%rbp),%rax
   12939:	48 83 c0 08          	add    $0x8,%rax
   1293d:	48 89 85 70 fc ff ff 	mov    %rax,-0x390(%rbp)
   12944:	48 c7 85 78 fc ff ff 	movq   $0x0,-0x388(%rbp)
   1294b:	00 00 00 00 
   1294f:	48 8d 85 08 f9 ff ff 	lea    -0x6f8(%rbp),%rax
   12956:	48 89 85 80 fc ff ff 	mov    %rax,-0x380(%rbp)
   1295d:	48 8d 85 08 f9 ff ff 	lea    -0x6f8(%rbp),%rax
   12964:	48 89 85 88 fc ff ff 	mov    %rax,-0x378(%rbp)
   1296b:	48 8d 85 90 fa ff ff 	lea    -0x570(%rbp),%rax
   12972:	48 83 c0 14          	add    $0x14,%rax
   12976:	48 89 85 90 fc ff ff 	mov    %rax,-0x370(%rbp)
   1297d:	48 8d 85 10 f9 ff ff 	lea    -0x6f0(%rbp),%rax
   12984:	48 89 85 98 fc ff ff 	mov    %rax,-0x368(%rbp)
   1298b:	48 8d 85 7c f8 ff ff 	lea    -0x784(%rbp),%rax
   12992:	48 89 85 a0 fc ff ff 	mov    %rax,-0x360(%rbp)
   12999:	48 8d 85 90 fa ff ff 	lea    -0x570(%rbp),%rax
   129a0:	48 83 c0 14          	add    $0x14,%rax
   129a4:	48 89 85 a8 fc ff ff 	mov    %rax,-0x358(%rbp)
   129ab:	48 8d 85 7c f8 ff ff 	lea    -0x784(%rbp),%rax
   129b2:	48 89 85 b0 fc ff ff 	mov    %rax,-0x350(%rbp)
   129b9:	48 83 ad 20 f9 ff ff 	subq   $0x1,-0x6e0(%rbp)
   129c0:	01 
   129c1:	c7 85 78 f8 ff ff f4 	movl   $0xfffffff4,-0x788(%rbp)
   129c8:	ff ff ff 
   129cb:	eb 3e                	jmp    12a0b <func_104+0x1dbc>
   129cd:	be 81 00 00 00       	mov    $0x81,%esi
   129d2:	bf 01 00 00 00       	mov    $0x1,%edi
   129d7:	e8 ff 31 ff ff       	callq  5bdb <safe_div_func_uint8_t_u_u>
   129dc:	89 c2                	mov    %eax,%edx
   129de:	48 8b 85 48 f9 ff ff 	mov    -0x6b8(%rbp),%rax
   129e5:	48 8b 00             	mov    (%rax),%rax
   129e8:	0f b6 d2             	movzbl %dl,%edx
   129eb:	89 10                	mov    %edx,(%rax)
   129ed:	8b 85 78 f8 ff ff    	mov    -0x788(%rbp),%eax
   129f3:	0f be c0             	movsbl %al,%eax
   129f6:	be 03 00 00 00       	mov    $0x3,%esi
   129fb:	89 c7                	mov    %eax,%edi
   129fd:	e8 d2 27 ff ff       	callq  51d4 <safe_add_func_int8_t_s_s>
   12a02:	0f be c0             	movsbl %al,%eax
   12a05:	89 85 78 f8 ff ff    	mov    %eax,-0x788(%rbp)
   12a0b:	8b 85 78 f8 ff ff    	mov    -0x788(%rbp),%eax
   12a11:	83 f8 f5             	cmp    $0xfffffff5,%eax
   12a14:	7c b7                	jl     129cd <func_104+0x1d7e>
   12a16:	83 85 a8 f8 ff ff 01 	addl   $0x1,-0x758(%rbp)
   12a1d:	0f b6 05 3c 76 00 00 	movzbl 0x763c(%rip),%eax        # 1a060 <g_137>
   12a24:	83 c0 01             	add    $0x1,%eax
   12a27:	88 05 33 76 00 00    	mov    %al,0x7633(%rip)        # 1a060 <g_137>
   12a2d:	0f b6 05 2c 76 00 00 	movzbl 0x762c(%rip),%eax        # 1a060 <g_137>
   12a34:	3c 24                	cmp    $0x24,%al
   12a36:	0f 86 4d fd ff ff    	jbe    12789 <func_104+0x1b3a>
   12a3c:	48 8b 05 95 93 00 00 	mov    0x9395(%rip),%rax        # 1bdd8 <g_456>
   12a43:	48 8b 10             	mov    (%rax),%rdx
   12a46:	48 8b 85 78 f9 ff ff 	mov    -0x688(%rbp),%rax
   12a4d:	48 89 10             	mov    %rdx,(%rax)
   12a50:	e9 c9 01 00 00       	jmpq   12c1e <func_104+0x1fcf>
   12a55:	c7 85 bc f8 ff ff 16 	movl   $0xa9c2c16,-0x744(%rbp)
   12a5c:	2c 9c 0a 
   12a5f:	c7 85 94 f8 ff ff 00 	movl   $0x0,-0x76c(%rbp)
   12a66:	00 00 00 
   12a69:	e9 97 01 00 00       	jmpq   12c05 <func_104+0x1fb6>
   12a6e:	48 c7 85 58 f9 ff ff 	movq   $0x0,-0x6a8(%rbp)
   12a75:	00 00 00 00 
   12a79:	48 8d 85 80 f8 ff ff 	lea    -0x780(%rbp),%rax
   12a80:	48 89 85 c0 fc ff ff 	mov    %rax,-0x340(%rbp)
   12a87:	48 8d 85 80 f8 ff ff 	lea    -0x780(%rbp),%rax
   12a8e:	48 89 85 c8 fc ff ff 	mov    %rax,-0x338(%rbp)
   12a95:	48 8d 85 80 f8 ff ff 	lea    -0x780(%rbp),%rax
   12a9c:	48 89 85 d0 fc ff ff 	mov    %rax,-0x330(%rbp)
   12aa3:	48 8d 85 80 f8 ff ff 	lea    -0x780(%rbp),%rax
   12aaa:	48 89 85 d8 fc ff ff 	mov    %rax,-0x328(%rbp)
   12ab1:	48 8d 85 80 f8 ff ff 	lea    -0x780(%rbp),%rax
   12ab8:	48 89 85 e0 fc ff ff 	mov    %rax,-0x320(%rbp)
   12abf:	48 8d 85 80 f8 ff ff 	lea    -0x780(%rbp),%rax
   12ac6:	48 89 85 e8 fc ff ff 	mov    %rax,-0x318(%rbp)
   12acd:	48 8d 85 80 f8 ff ff 	lea    -0x780(%rbp),%rax
   12ad4:	48 89 85 f0 fc ff ff 	mov    %rax,-0x310(%rbp)
   12adb:	48 8d 85 80 f8 ff ff 	lea    -0x780(%rbp),%rax
   12ae2:	48 89 85 f8 fc ff ff 	mov    %rax,-0x308(%rbp)
   12ae9:	c7 85 b0 f8 ff ff 00 	movl   $0x0,-0x750(%rbp)
   12af0:	00 00 00 
   12af3:	eb 1e                	jmp    12b13 <func_104+0x1ec4>
   12af5:	8b 85 b0 f8 ff ff    	mov    -0x750(%rbp),%eax
   12afb:	48 98                	cltq   
   12afd:	48 8d 15 6c 75 00 00 	lea    0x756c(%rip),%rdx        # 1a070 <g_192>
   12b04:	48 89 94 c5 a0 fb ff 	mov    %rdx,-0x460(%rbp,%rax,8)
   12b0b:	ff 
   12b0c:	83 85 b0 f8 ff ff 01 	addl   $0x1,-0x750(%rbp)
   12b13:	83 bd b0 f8 ff ff 06 	cmpl   $0x6,-0x750(%rbp)
   12b1a:	7e d9                	jle    12af5 <func_104+0x1ea6>
   12b1c:	0f b6 85 58 f8 ff ff 	movzbl -0x7a8(%rbp),%eax
   12b23:	84 c0                	test   %al,%al
   12b25:	0f 85 e9 00 00 00    	jne    12c14 <func_104+0x1fc5>
   12b2b:	b8 09 00 00 00       	mov    $0x9,%eax
   12b30:	0f b7 d8             	movzwl %ax,%ebx
   12b33:	48 8b 05 1e 75 00 00 	mov    0x751e(%rip),%rax        # 1a058 <g_115>
   12b3a:	48 85 c0             	test   %rax,%rax
   12b3d:	0f 94 c0             	sete   %al
   12b40:	0f b6 d0             	movzbl %al,%edx
   12b43:	48 8b 85 48 f9 ff ff 	mov    -0x6b8(%rbp),%rax
   12b4a:	48 8b 00             	mov    (%rax),%rax
   12b4d:	8b 00                	mov    (%rax),%eax
   12b4f:	39 c2                	cmp    %eax,%edx
   12b51:	0f 9f c0             	setg   %al
   12b54:	44 0f b6 e0          	movzbl %al,%r12d
   12b58:	0f b6 85 58 f8 ff ff 	movzbl -0x7a8(%rbp),%eax
   12b5f:	44 0f be e8          	movsbl %al,%r13d
   12b63:	0f b6 85 58 f8 ff ff 	movzbl -0x7a8(%rbp),%eax
   12b6a:	0f b6 c0             	movzbl %al,%eax
   12b6d:	be ed 00 00 00       	mov    $0xed,%esi
   12b72:	89 c7                	mov    %eax,%edi
   12b74:	e8 e1 2f ff ff       	callq  5b5a <safe_add_func_uint8_t_u_u>
   12b79:	0f b6 c0             	movzbl %al,%eax
   12b7c:	41 39 c5             	cmp    %eax,%r13d
   12b7f:	0f 95 c0             	setne  %al
   12b82:	0f b6 c0             	movzbl %al,%eax
   12b85:	44 89 e6             	mov    %r12d,%esi
   12b88:	89 c7                	mov    %eax,%edi
   12b8a:	e8 52 29 ff ff       	callq  54e1 <safe_lshift_func_int16_t_s_u>
   12b8f:	66 89 05 da 74 00 00 	mov    %ax,0x74da(%rip)        # 1a070 <g_192>
   12b96:	0f b7 05 d3 74 00 00 	movzwl 0x74d3(%rip),%eax        # 1a070 <g_192>
   12b9d:	0f b7 c0             	movzwl %ax,%eax
   12ba0:	89 de                	mov    %ebx,%esi
   12ba2:	89 c7                	mov    %eax,%edi
   12ba4:	e8 56 31 ff ff       	callq  5cff <safe_add_func_uint16_t_u_u>
   12ba9:	0f b7 c0             	movzwl %ax,%eax
   12bac:	be 05 00 00 00       	mov    $0x5,%esi
   12bb1:	48 89 c7             	mov    %rax,%rdi
   12bb4:	e8 ef 2c ff ff       	callq  58a8 <safe_sub_func_int64_t_s_s>
   12bb9:	48 8b 05 20 7d 00 00 	mov    0x7d20(%rip),%rax        # 1a8e0 <g_502>
   12bc0:	48 c1 e0 08          	shl    $0x8,%rax
   12bc4:	48 c1 f8 28          	sar    $0x28,%rax
   12bc8:	98                   	cwtl   
   12bc9:	89 c6                	mov    %eax,%esi
   12bcb:	bf 01 00 00 00       	mov    $0x1,%edi
   12bd0:	e8 41 28 ff ff       	callq  5416 <safe_mod_func_int16_t_s_s>
   12bd5:	48 8b 05 d4 7c 00 00 	mov    0x7cd4(%rip),%rax        # 1a8b0 <g_435>
   12bdc:	48 c1 e0 08          	shl    $0x8,%rax
   12be0:	48 c1 f8 28          	sar    $0x28,%rax
   12be4:	48 98                	cltq   
   12be6:	48 89 c7             	mov    %rax,%rdi
   12be9:	e8 28 2c ff ff       	callq  5816 <safe_unary_minus_func_int64_t_s>
   12bee:	89 c2                	mov    %eax,%edx
   12bf0:	8b 05 26 7d 00 00    	mov    0x7d26(%rip),%eax        # 1a91c <g_768>
   12bf6:	09 d0                	or     %edx,%eax
   12bf8:	89 05 1e 7d 00 00    	mov    %eax,0x7d1e(%rip)        # 1a91c <g_768>
   12bfe:	83 85 94 f8 ff ff 01 	addl   $0x1,-0x76c(%rbp)
   12c05:	83 bd 94 f8 ff ff 1f 	cmpl   $0x1f,-0x76c(%rbp)
   12c0c:	0f 86 5c fe ff ff    	jbe    12a6e <func_104+0x1e1f>
   12c12:	eb 01                	jmp    12c15 <func_104+0x1fc6>
   12c14:	90                   	nop
   12c15:	0f b6 85 5c f8 ff ff 	movzbl -0x7a4(%rbp),%eax
   12c1c:	eb 0e                	jmp    12c2c <func_104+0x1fdd>
   12c1e:	48 8b 85 40 f9 ff ff 	mov    -0x6c0(%rbp),%rax
   12c25:	48 8b 00             	mov    (%rax),%rax
   12c28:	8b 00                	mov    (%rax),%eax
   12c2a:	48 98                	cltq   
   12c2c:	48 8b 5d c8          	mov    -0x38(%rbp),%rbx
   12c30:	64 48 33 1c 25 28 00 	xor    %fs:0x28,%rbx
   12c37:	00 00 
   12c39:	74 05                	je     12c40 <func_104+0x1ff1>
   12c3b:	e8 30 24 ff ff       	callq  5070 <__stack_chk_fail@plt>
   12c40:	48 81 c4 88 07 00 00 	add    $0x788,%rsp
   12c47:	5b                   	pop    %rbx
   12c48:	41 5c                	pop    %r12
   12c4a:	41 5d                	pop    %r13
   12c4c:	41 5e                	pop    %r14
   12c4e:	41 5f                	pop    %r15
   12c50:	5d                   	pop    %rbp
   12c51:	c3                   	retq   

0000000000012c52 <func_107>:
   12c52:	f3 0f 1e fa          	endbr64 
   12c56:	55                   	push   %rbp
   12c57:	48 89 e5             	mov    %rsp,%rbp
   12c5a:	53                   	push   %rbx
   12c5b:	48 81 ec 38 06 00 00 	sub    $0x638,%rsp
   12c62:	89 f8                	mov    %edi,%eax
   12c64:	48 89 b5 d0 f9 ff ff 	mov    %rsi,-0x630(%rbp)
   12c6b:	48 89 95 c8 f9 ff ff 	mov    %rdx,-0x638(%rbp)
   12c72:	89 8d d8 f9 ff ff    	mov    %ecx,-0x628(%rbp)
   12c78:	66 89 85 dc f9 ff ff 	mov    %ax,-0x624(%rbp)
   12c7f:	64 48 8b 04 25 28 00 	mov    %fs:0x28,%rax
   12c86:	00 00 
   12c88:	48 89 45 e8          	mov    %rax,-0x18(%rbp)
   12c8c:	31 c0                	xor    %eax,%eax
   12c8e:	48 b8 30 60 34 76 7a 	movabs $0xac01637a76346030,%rax
   12c95:	63 01 ac 
   12c98:	48 89 85 f8 f9 ff ff 	mov    %rax,-0x608(%rbp)
   12c9f:	48 c7 85 20 fa ff ff 	movq   $0x0,-0x5e0(%rbp)
   12ca6:	00 00 00 00 
   12caa:	48 c7 85 28 fa ff ff 	movq   $0x0,-0x5d8(%rbp)
   12cb1:	00 00 00 00 
   12cb5:	48 c7 85 30 fa ff ff 	movq   $0x0,-0x5d0(%rbp)
   12cbc:	00 00 00 00 
   12cc0:	48 c7 85 38 fa ff ff 	movq   $0x0,-0x5c8(%rbp)
   12cc7:	00 00 00 00 
   12ccb:	48 8d 05 ce 7b 00 00 	lea    0x7bce(%rip),%rax        # 1a8a0 <g_246>
   12cd2:	48 89 85 00 fa ff ff 	mov    %rax,-0x600(%rbp)
   12cd9:	48 8d 85 40 fa ff ff 	lea    -0x5c0(%rbp),%rax
   12ce0:	48 8d 15 f9 8a 00 00 	lea    0x8af9(%rip),%rdx        # 1b7e0 <g_2786+0x3b0>
   12ce7:	b9 b4 00 00 00       	mov    $0xb4,%ecx
   12cec:	48 89 c7             	mov    %rax,%rdi
   12cef:	48 89 d6             	mov    %rdx,%rsi
   12cf2:	f3 48 a5             	rep movsq %ds:(%rsi),%es:(%rdi)
   12cf5:	48 8d 85 40 fa ff ff 	lea    -0x5c0(%rbp),%rax
   12cfc:	48 05 08 04 00 00    	add    $0x408,%rax
   12d02:	48 89 85 08 fa ff ff 	mov    %rax,-0x5f8(%rbp)
   12d09:	48 8d 05 60 73 00 00 	lea    0x7360(%rip),%rax        # 1a070 <g_192>
   12d10:	48 89 85 f0 f9 ff ff 	mov    %rax,-0x610(%rbp)
   12d17:	48 8d 85 f0 f9 ff ff 	lea    -0x610(%rbp),%rax
   12d1e:	48 89 85 10 fa ff ff 	mov    %rax,-0x5f0(%rbp)
   12d25:	c7 85 e8 f9 ff ff 1d 	movl   $0x7e16b41d,-0x618(%rbp)
   12d2c:	b4 16 7e 
   12d2f:	48 8d 05 56 7b 00 00 	lea    0x7b56(%rip),%rax        # 1a88c <g_219+0xc>
   12d36:	48 89 85 18 fa ff ff 	mov    %rax,-0x5e8(%rbp)
   12d3d:	c7 85 ec f9 ff ff ff 	movl   $0xffffffff,-0x614(%rbp)
   12d44:	ff ff ff 
   12d47:	48 8b 85 f8 f9 ff ff 	mov    -0x608(%rbp),%rax
   12d4e:	48 89 05 43 7b 00 00 	mov    %rax,0x7b43(%rip)        # 1a898 <g_221>
   12d55:	48 8b 1d 3c 7b 00 00 	mov    0x7b3c(%rip),%rbx        # 1a898 <g_221>
   12d5c:	8b 15 2e 7b 00 00    	mov    0x7b2e(%rip),%edx        # 1a890 <g_220>
   12d62:	48 8b 85 00 fa ff ff 	mov    -0x600(%rbp),%rax
   12d69:	8b 00                	mov    (%rax),%eax
   12d6b:	8d 48 ff             	lea    -0x1(%rax),%ecx
   12d6e:	48 8b 85 00 fa ff ff 	mov    -0x600(%rbp),%rax
   12d75:	89 08                	mov    %ecx,(%rax)
   12d77:	48 8b 85 00 fa ff ff 	mov    -0x600(%rbp),%rax
   12d7e:	8b 00                	mov    (%rax),%eax
   12d80:	85 c0                	test   %eax,%eax
   12d82:	75 7b                	jne    12dff <func_107+0x1ad>
   12d84:	48 8b 85 c8 f9 ff ff 	mov    -0x638(%rbp),%rax
   12d8b:	0f b6 00             	movzbl (%rax),%eax
   12d8e:	0f b6 c0             	movzbl %al,%eax
   12d91:	48 8b 0d 30 76 00 00 	mov    0x7630(%rip),%rcx        # 1a3c8 <g_196+0x348>
   12d98:	31 c1                	xor    %eax,%ecx
   12d9a:	48 8b 85 18 fa ff ff 	mov    -0x5e8(%rbp),%rax
   12da1:	66 89 08             	mov    %cx,(%rax)
   12da4:	0f b6 05 f9 7a 00 00 	movzbl 0x7af9(%rip),%eax        # 1a8a4 <g_249>
   12dab:	48 0f be c8          	movsbq %al,%rcx
   12daf:	48 8b 05 a2 72 00 00 	mov    0x72a2(%rip),%rax        # 1a058 <g_115>
   12db6:	48 21 c8             	and    %rcx,%rax
   12db9:	48 89 05 98 72 00 00 	mov    %rax,0x7298(%rip)        # 1a058 <g_115>
   12dc0:	48 8b 05 91 72 00 00 	mov    0x7291(%rip),%rax        # 1a058 <g_115>
   12dc7:	48 85 c0             	test   %rax,%rax
   12dca:	75 22                	jne    12dee <func_107+0x19c>
   12dcc:	48 8b 85 08 fa ff ff 	mov    -0x5f8(%rbp),%rax
   12dd3:	48 8d 8d dc f9 ff ff 	lea    -0x624(%rbp),%rcx
   12dda:	48 89 08             	mov    %rcx,(%rax)
   12ddd:	48 8b 85 10 fa ff ff 	mov    -0x5f0(%rbp),%rax
   12de4:	48 8d 0d 83 72 00 00 	lea    0x7283(%rip),%rcx        # 1a06e <g_171>
   12deb:	48 89 08             	mov    %rcx,(%rax)
   12dee:	8b 85 d8 f9 ff ff    	mov    -0x628(%rbp),%eax
   12df4:	48 0b 85 f8 f9 ff ff 	or     -0x608(%rbp),%rax
   12dfb:	48 83 f8 ff          	cmp    $0xffffffffffffffff,%rax
   12dff:	48 83 bd c8 f9 ff ff 	cmpq   $0x0,-0x638(%rbp)
   12e06:	00 
   12e07:	0f 95 c0             	setne  %al
   12e0a:	0f b6 c0             	movzbl %al,%eax
   12e0d:	48 8b 8d f8 f9 ff ff 	mov    -0x608(%rbp),%rcx
   12e14:	21 c8                	and    %ecx,%eax
   12e16:	89 85 ec f9 ff ff    	mov    %eax,-0x614(%rbp)
   12e1c:	8b 85 ec f9 ff ff    	mov    -0x614(%rbp),%eax
   12e22:	98                   	cwtl   
   12e23:	89 d6                	mov    %edx,%esi
   12e25:	89 c7                	mov    %eax,%edi
   12e27:	e8 fe 26 ff ff       	callq  552a <safe_rshift_func_int16_t_s_s>
   12e2c:	48 8b 05 c5 78 00 00 	mov    0x78c5(%rip),%rax        # 1a6f8 <g_196+0x678>
   12e33:	48 85 c0             	test   %rax,%rax
   12e36:	75 0a                	jne    12e42 <func_107+0x1f0>
   12e38:	8b 05 12 72 00 00    	mov    0x7212(%rip),%eax        # 1a050 <g_100>
   12e3e:	85 c0                	test   %eax,%eax
   12e40:	74 07                	je     12e49 <func_107+0x1f7>
   12e42:	b8 01 00 00 00       	mov    $0x1,%eax
   12e47:	eb 05                	jmp    12e4e <func_107+0x1fc>
   12e49:	b8 00 00 00 00       	mov    $0x0,%eax
   12e4e:	3d f3 00 00 00       	cmp    $0xf3,%eax
   12e53:	0f 95 c0             	setne  %al
   12e56:	0f b6 c0             	movzbl %al,%eax
   12e59:	be 14 3f d8 38       	mov    $0x38d83f14,%esi
   12e5e:	89 c7                	mov    %eax,%edi
   12e60:	e8 98 30 ff ff       	callq  5efd <safe_mod_func_uint32_t_u_u>
   12e65:	89 c0                	mov    %eax,%eax
   12e67:	48 09 d8             	or     %rbx,%rax
   12e6a:	48 85 c0             	test   %rax,%rax
   12e6d:	74 14                	je     12e83 <func_107+0x231>
   12e6f:	48 8b 85 d0 f9 ff ff 	mov    -0x630(%rbp),%rax
   12e76:	8b 00                	mov    (%rax),%eax
   12e78:	85 c0                	test   %eax,%eax
   12e7a:	74 07                	je     12e83 <func_107+0x231>
   12e7c:	ba 01 00 00 00       	mov    $0x1,%edx
   12e81:	eb 05                	jmp    12e88 <func_107+0x236>
   12e83:	ba 00 00 00 00       	mov    $0x0,%edx
   12e88:	48 8b 85 d0 f9 ff ff 	mov    -0x630(%rbp),%rax
   12e8f:	89 10                	mov    %edx,(%rax)
   12e91:	48 8b 05 b0 71 00 00 	mov    0x71b0(%rip),%rax        # 1a048 <g_71+0x8>
   12e98:	48 c1 e8 20          	shr    $0x20,%rax
   12e9c:	25 ff ff ff 3f       	and    $0x3fffffff,%eax
   12ea1:	48 8b 5d e8          	mov    -0x18(%rbp),%rbx
   12ea5:	64 48 33 1c 25 28 00 	xor    %fs:0x28,%rbx
   12eac:	00 00 
   12eae:	74 05                	je     12eb5 <func_107+0x263>
   12eb0:	e8 bb 21 ff ff       	callq  5070 <__stack_chk_fail@plt>
   12eb5:	48 81 c4 38 06 00 00 	add    $0x638,%rsp
   12ebc:	5b                   	pop    %rbx
   12ebd:	5d                   	pop    %rbp
   12ebe:	c3                   	retq   

0000000000012ebf <func_119>:
   12ebf:	f3 0f 1e fa          	endbr64 
   12ec3:	55                   	push   %rbp
   12ec4:	48 89 e5             	mov    %rsp,%rbp
   12ec7:	41 55                	push   %r13
   12ec9:	41 54                	push   %r12
   12ecb:	53                   	push   %rbx
   12ecc:	48 81 ec b8 01 00 00 	sub    $0x1b8,%rsp
   12ed3:	89 f8                	mov    %edi,%eax
   12ed5:	48 89 b5 30 fe ff ff 	mov    %rsi,-0x1d0(%rbp)
   12edc:	88 85 3c fe ff ff    	mov    %al,-0x1c4(%rbp)
   12ee2:	64 48 8b 04 25 28 00 	mov    %fs:0x28,%rax
   12ee9:	00 00 
   12eeb:	48 89 45 d8          	mov    %rax,-0x28(%rbp)
   12eef:	31 c0                	xor    %eax,%eax
   12ef1:	c7 85 4c fe ff ff a8 	movl   $0x1927a6a8,-0x1b4(%rbp)
   12ef8:	a6 27 19 
   12efb:	48 c7 85 70 fe ff ff 	movq   $0xfffffffffffffffe,-0x190(%rbp)
   12f02:	fe ff ff ff 
   12f06:	c6 85 42 fe ff ff 00 	movb   $0x0,-0x1be(%rbp)
   12f0d:	c6 85 43 fe ff ff fd 	movb   $0xfd,-0x1bd(%rbp)
   12f14:	c7 85 5c fe ff ff 01 	movl   $0x1,-0x1a4(%rbp)
   12f1b:	00 00 00 
   12f1e:	48 c7 85 68 fe ff ff 	movq   $0x0,-0x198(%rbp)
   12f25:	00 00 00 00 
   12f29:	66 c7 85 46 fe ff ff 	movw   $0xfffa,-0x1ba(%rbp)
   12f30:	fa ff 
   12f32:	48 8d 85 68 fe ff ff 	lea    -0x198(%rbp),%rax
   12f39:	48 89 85 78 fe ff ff 	mov    %rax,-0x188(%rbp)
   12f40:	c6 85 3c fe ff ff ef 	movb   $0xef,-0x1c4(%rbp)
   12f47:	e9 3c 03 00 00       	jmpq   13288 <func_119+0x3c9>
   12f4c:	48 8d 05 0d 71 00 00 	lea    0x710d(%rip),%rax        # 1a060 <g_137>
   12f53:	48 89 85 80 fe ff ff 	mov    %rax,-0x180(%rbp)
   12f5a:	c7 85 48 fe ff ff 03 	movl   $0x3,-0x1b8(%rbp)
   12f61:	00 00 00 
   12f64:	48 8d 85 48 fe ff ff 	lea    -0x1b8(%rbp),%rax
   12f6b:	48 89 85 c0 fe ff ff 	mov    %rax,-0x140(%rbp)
   12f72:	48 8d 85 48 fe ff ff 	lea    -0x1b8(%rbp),%rax
   12f79:	48 89 85 c8 fe ff ff 	mov    %rax,-0x138(%rbp)
   12f80:	48 8d 85 48 fe ff ff 	lea    -0x1b8(%rbp),%rax
   12f87:	48 89 85 d0 fe ff ff 	mov    %rax,-0x130(%rbp)
   12f8e:	48 8d 85 48 fe ff ff 	lea    -0x1b8(%rbp),%rax
   12f95:	48 89 85 d8 fe ff ff 	mov    %rax,-0x128(%rbp)
   12f9c:	48 8d 85 48 fe ff ff 	lea    -0x1b8(%rbp),%rax
   12fa3:	48 89 85 e0 fe ff ff 	mov    %rax,-0x120(%rbp)
   12faa:	48 8d 85 48 fe ff ff 	lea    -0x1b8(%rbp),%rax
   12fb1:	48 89 85 e8 fe ff ff 	mov    %rax,-0x118(%rbp)
   12fb8:	c7 85 60 fe ff ff ce 	movl   $0xde73d4ce,-0x1a0(%rbp)
   12fbf:	d4 73 de 
   12fc2:	c6 85 44 fe ff ff 43 	movb   $0x43,-0x1bc(%rbp)
   12fc9:	c7 85 50 fe ff ff 00 	movl   $0x0,-0x1b0(%rbp)
   12fd0:	00 00 00 
   12fd3:	eb 4c                	jmp    13021 <func_119+0x162>
   12fd5:	c7 85 54 fe ff ff 00 	movl   $0x0,-0x1ac(%rbp)
   12fdc:	00 00 00 
   12fdf:	eb 30                	jmp    13011 <func_119+0x152>
   12fe1:	8b 85 54 fe ff ff    	mov    -0x1ac(%rbp),%eax
   12fe7:	48 63 c8             	movslq %eax,%rcx
   12fea:	8b 85 50 fe ff ff    	mov    -0x1b0(%rbp),%eax
   12ff0:	48 63 d0             	movslq %eax,%rdx
   12ff3:	48 89 d0             	mov    %rdx,%rax
   12ff6:	48 01 c0             	add    %rax,%rax
   12ff9:	48 01 d0             	add    %rdx,%rax
   12ffc:	48 01 c8             	add    %rcx,%rax
   12fff:	c7 84 85 60 ff ff ff 	movl   $0xfffffffc,-0xa0(%rbp,%rax,4)
   13006:	fc ff ff ff 
   1300a:	83 85 54 fe ff ff 01 	addl   $0x1,-0x1ac(%rbp)
   13011:	83 bd 54 fe ff ff 02 	cmpl   $0x2,-0x1ac(%rbp)
   13018:	7e c7                	jle    12fe1 <func_119+0x122>
   1301a:	83 85 50 fe ff ff 01 	addl   $0x1,-0x1b0(%rbp)
   13021:	83 bd 50 fe ff ff 08 	cmpl   $0x8,-0x1b0(%rbp)
   13028:	7e ab                	jle    12fd5 <func_119+0x116>
   1302a:	8b 85 48 fe ff ff    	mov    -0x1b8(%rbp),%eax
   13030:	0f b7 d8             	movzwl %ax,%ebx
   13033:	48 8b 85 80 fe ff ff 	mov    -0x180(%rbp),%rax
   1303a:	0f b6 00             	movzbl (%rax),%eax
   1303d:	89 c2                	mov    %eax,%edx
   1303f:	0f b7 05 de 6f 00 00 	movzwl 0x6fde(%rip),%eax        # 1a024 <g_6>
   13046:	21 d0                	and    %edx,%eax
   13048:	89 c2                	mov    %eax,%edx
   1304a:	48 8b 85 80 fe ff ff 	mov    -0x180(%rbp),%rax
   13051:	88 10                	mov    %dl,(%rax)
   13053:	48 8b 85 80 fe ff ff 	mov    -0x180(%rbp),%rax
   1305a:	0f b6 00             	movzbl (%rax),%eax
   1305d:	44 0f b6 e0          	movzbl %al,%r12d
   13061:	8b 05 c9 6f 00 00    	mov    0x6fc9(%rip),%eax        # 1a030 <g_48>
   13067:	98                   	cwtl   
   13068:	be 01 00 00 00       	mov    $0x1,%esi
   1306d:	89 c7                	mov    %eax,%edi
   1306f:	e8 5f 23 ff ff       	callq  53d3 <safe_sub_func_int16_t_s_s>
   13074:	44 0f bf e8          	movswl %ax,%r13d
   13078:	8b 85 4c fe ff ff    	mov    -0x1b4(%rbp),%eax
   1307e:	48 89 c6             	mov    %rax,%rsi
   13081:	bf 01 00 00 00       	mov    $0x1,%edi
   13086:	e8 6c 29 ff ff       	callq  59f7 <safe_div_func_int64_t_s_s>
   1308b:	48 f7 d0             	not    %rax
   1308e:	8b 15 bc 6f 00 00    	mov    0x6fbc(%rip),%edx        # 1a050 <g_100>
   13094:	89 d2                	mov    %edx,%edx
   13096:	48 39 d0             	cmp    %rdx,%rax
   13099:	0f 9e c0             	setle  %al
   1309c:	0f b6 c0             	movzbl %al,%eax
   1309f:	41 39 c5             	cmp    %eax,%r13d
   130a2:	0f 95 c0             	setne  %al
   130a5:	0f b6 c0             	movzbl %al,%eax
   130a8:	48 39 85 70 fe ff ff 	cmp    %rax,-0x190(%rbp)
   130af:	0f 92 c0             	setb   %al
   130b2:	0f b6 c0             	movzbl %al,%eax
   130b5:	41 39 c4             	cmp    %eax,%r12d
   130b8:	0f 9d c0             	setge  %al
   130bb:	0f b6 d0             	movzbl %al,%edx
   130be:	0f b6 05 c7 9e 00 00 	movzbl 0x9ec7(%rip),%eax        # 1cf8c <g_73>
   130c5:	0f b6 c0             	movzbl %al,%eax
   130c8:	21 d0                	and    %edx,%eax
   130ca:	39 85 4c fe ff ff    	cmp    %eax,-0x1b4(%rbp)
   130d0:	0f 95 c0             	setne  %al
   130d3:	0f b6 c0             	movzbl %al,%eax
   130d6:	89 de                	mov    %ebx,%esi
   130d8:	89 c7                	mov    %eax,%edi
   130da:	e8 5e 2c ff ff       	callq  5d3d <safe_mul_func_uint16_t_u_u>
   130df:	0f b6 d0             	movzbl %al,%edx
   130e2:	0f b7 05 3b 6f 00 00 	movzwl 0x6f3b(%rip),%eax        # 1a024 <g_6>
   130e9:	f7 d0                	not    %eax
   130eb:	66 c1 e8 0f          	shr    $0xf,%ax
   130ef:	0f b6 c0             	movzbl %al,%eax
   130f2:	89 d6                	mov    %edx,%esi
   130f4:	89 c7                	mov    %eax,%edi
   130f6:	e8 b3 2a ff ff       	callq  5bae <safe_mod_func_uint8_t_u_u>
   130fb:	0f b6 c0             	movzbl %al,%eax
   130fe:	89 05 2c 6f 00 00    	mov    %eax,0x6f2c(%rip)        # 1a030 <g_48>
   13104:	0f b6 85 42 fe ff ff 	movzbl -0x1be(%rbp),%eax
   1310b:	84 c0                	test   %al,%al
   1310d:	0f 85 6d 01 00 00    	jne    13280 <func_119+0x3c1>
   13113:	c7 85 4c fe ff ff 01 	movl   $0x1,-0x1b4(%rbp)
   1311a:	00 00 00 
   1311d:	e9 4f 01 00 00       	jmpq   13271 <func_119+0x3b2>
   13122:	48 8d 85 42 fe ff ff 	lea    -0x1be(%rbp),%rax
   13129:	48 89 85 88 fe ff ff 	mov    %rax,-0x178(%rbp)
   13130:	c7 85 64 fe ff ff 00 	movl   $0x0,-0x19c(%rbp)
   13137:	00 00 00 
   1313a:	c7 85 f0 fe ff ff a3 	movl   $0xcc4d8aa3,-0x110(%rbp)
   13141:	8a 4d cc 
   13144:	c7 85 f4 fe ff ff ff 	movl   $0xffffffff,-0x10c(%rbp)
   1314b:	ff ff ff 
   1314e:	c7 85 f8 fe ff ff ff 	movl   $0xffffffff,-0x108(%rbp)
   13155:	ff ff ff 
   13158:	c7 85 fc fe ff ff a3 	movl   $0xcc4d8aa3,-0x104(%rbp)
   1315f:	8a 4d cc 
   13162:	c7 85 00 ff ff ff ff 	movl   $0xffffffff,-0x100(%rbp)
   13169:	ff ff ff 
   1316c:	c7 85 04 ff ff ff a3 	movl   $0xcc4d8aa3,-0xfc(%rbp)
   13173:	8a 4d cc 
   13176:	c7 85 08 ff ff ff a3 	movl   $0xcc4d8aa3,-0xf8(%rbp)
   1317d:	8a 4d cc 
   13180:	c7 85 0c ff ff ff 01 	movl   $0x1,-0xf4(%rbp)
   13187:	00 00 00 
   1318a:	c7 85 10 ff ff ff a3 	movl   $0xcc4d8aa3,-0xf0(%rbp)
   13191:	8a 4d cc 
   13194:	c7 85 14 ff ff ff a3 	movl   $0xcc4d8aa3,-0xec(%rbp)
   1319b:	8a 4d cc 
   1319e:	c7 85 18 ff ff ff ff 	movl   $0xffffffff,-0xe8(%rbp)
   131a5:	ff ff ff 
   131a8:	c7 85 1c ff ff ff a3 	movl   $0xcc4d8aa3,-0xe4(%rbp)
   131af:	8a 4d cc 
   131b2:	c7 85 20 ff ff ff ff 	movl   $0xffffffff,-0xe0(%rbp)
   131b9:	ff ff ff 
   131bc:	c7 85 24 ff ff ff ff 	movl   $0xffffffff,-0xdc(%rbp)
   131c3:	ff ff ff 
   131c6:	c7 85 28 ff ff ff a3 	movl   $0xcc4d8aa3,-0xd8(%rbp)
   131cd:	8a 4d cc 
   131d0:	c7 85 2c ff ff ff a3 	movl   $0xcc4d8aa3,-0xd4(%rbp)
   131d7:	8a 4d cc 
   131da:	c7 85 30 ff ff ff ff 	movl   $0xffffffff,-0xd0(%rbp)
   131e1:	ff ff ff 
   131e4:	c7 85 34 ff ff ff ff 	movl   $0xffffffff,-0xcc(%rbp)
   131eb:	ff ff ff 
   131ee:	c7 85 38 ff ff ff a3 	movl   $0xcc4d8aa3,-0xc8(%rbp)
   131f5:	8a 4d cc 
   131f8:	c7 85 3c ff ff ff ff 	movl   $0xffffffff,-0xc4(%rbp)
   131ff:	ff ff ff 
   13202:	c7 85 40 ff ff ff a3 	movl   $0xcc4d8aa3,-0xc0(%rbp)
   13209:	8a 4d cc 
   1320c:	c7 85 44 ff ff ff a3 	movl   $0xcc4d8aa3,-0xbc(%rbp)
   13213:	8a 4d cc 
   13216:	c7 85 48 ff ff ff 01 	movl   $0x1,-0xb8(%rbp)
   1321d:	00 00 00 
   13220:	c7 85 4c ff ff ff a3 	movl   $0xcc4d8aa3,-0xb4(%rbp)
   13227:	8a 4d cc 
   1322a:	c7 85 50 ff ff ff a3 	movl   $0xcc4d8aa3,-0xb0(%rbp)
   13231:	8a 4d cc 
   13234:	c6 85 45 fe ff ff 03 	movb   $0x3,-0x1bb(%rbp)
   1323b:	c7 85 58 fe ff ff 00 	movl   $0x0,-0x1a8(%rbp)
   13242:	00 00 00 
   13245:	eb 1a                	jmp    13261 <func_119+0x3a2>
   13247:	8b 85 58 fe ff ff    	mov    -0x1a8(%rbp),%eax
   1324d:	48 98                	cltq   
   1324f:	c7 84 85 90 fe ff ff 	movl   $0x7b1b4a57,-0x170(%rbp,%rax,4)
   13256:	57 4a 1b 7b 
   1325a:	83 85 58 fe ff ff 01 	addl   $0x1,-0x1a8(%rbp)
   13261:	83 bd 58 fe ff ff 08 	cmpl   $0x8,-0x1a8(%rbp)
   13268:	7e dd                	jle    13247 <func_119+0x388>
   1326a:	83 85 4c fe ff ff 01 	addl   $0x1,-0x1b4(%rbp)
   13271:	83 bd 4c fe ff ff 05 	cmpl   $0x5,-0x1b4(%rbp)
   13278:	0f 86 a4 fe ff ff    	jbe    13122 <func_119+0x263>
   1327e:	eb 01                	jmp    13281 <func_119+0x3c2>
   13280:	90                   	nop
   13281:	80 85 3c fe ff ff 01 	addb   $0x1,-0x1c4(%rbp)
   13288:	80 bd 3c fe ff ff 35 	cmpb   $0x35,-0x1c4(%rbp)
   1328f:	0f 85 b7 fc ff ff    	jne    12f4c <func_119+0x8d>
   13295:	0f b7 85 46 fe ff ff 	movzwl -0x1ba(%rbp),%eax
   1329c:	48 8b 4d d8          	mov    -0x28(%rbp),%rcx
   132a0:	64 48 33 0c 25 28 00 	xor    %fs:0x28,%rcx
   132a7:	00 00 
   132a9:	74 05                	je     132b0 <func_119+0x3f1>
   132ab:	e8 c0 1d ff ff       	callq  5070 <__stack_chk_fail@plt>
   132b0:	48 81 c4 b8 01 00 00 	add    $0x1b8,%rsp
   132b7:	5b                   	pop    %rbx
   132b8:	41 5c                	pop    %r12
   132ba:	41 5d                	pop    %r13
   132bc:	5d                   	pop    %rbp
   132bd:	c3                   	retq   

00000000000132be <main>:
   132be:	f3 0f 1e fa          	endbr64 
   132c2:	55                   	push   %rbp
   132c3:	48 89 e5             	mov    %rsp,%rbp
   132c6:	48 83 ec 20          	sub    $0x20,%rsp
   132ca:	89 7d ec             	mov    %edi,-0x14(%rbp)
   132cd:	48 89 75 e0          	mov    %rsi,-0x20(%rbp)
   132d1:	c7 45 fc 00 00 00 00 	movl   $0x0,-0x4(%rbp)
   132d8:	83 7d ec 02          	cmpl   $0x2,-0x14(%rbp)
   132dc:	75 25                	jne    13303 <main+0x45>
   132de:	48 8b 45 e0          	mov    -0x20(%rbp),%rax
   132e2:	48 83 c0 08          	add    $0x8,%rax
   132e6:	48 8b 00             	mov    (%rax),%rax
   132e9:	48 8d 35 a8 2d 00 00 	lea    0x2da8(%rip),%rsi        # 16098 <g_1898+0x1038>
   132f0:	48 89 c7             	mov    %rax,%rdi
   132f3:	e8 98 1d ff ff       	callq  5090 <strcmp@plt>
   132f8:	85 c0                	test   %eax,%eax
   132fa:	75 07                	jne    13303 <main+0x45>
   132fc:	c7 45 fc 01 00 00 00 	movl   $0x1,-0x4(%rbp)
   13303:	e8 81 1e ff ff       	callq  5189 <platform_main_begin>
   13308:	e8 8b 32 ff ff       	callq  6598 <crc32_gentab>
   1330d:	e8 a3 34 ff ff       	callq  67b5 <func_1>
   13312:	0f b7 05 0b 6d 00 00 	movzwl 0x6d0b(%rip),%eax        # 1a024 <g_6>
   13319:	48 0f bf c0          	movswq %ax,%rax
   1331d:	8b 55 fc             	mov    -0x4(%rbp),%edx
   13320:	48 8d 35 73 2d 00 00 	lea    0x2d73(%rip),%rsi        # 1609a <g_1898+0x103a>
   13327:	48 89 c7             	mov    %rax,%rdi
   1332a:	e8 c4 33 ff ff       	callq  66f3 <transparent_crc>
   1332f:	0f b7 05 52 9c 00 00 	movzwl 0x9c52(%rip),%eax        # 1cf88 <g_21>
   13336:	0f b7 c0             	movzwl %ax,%eax
   13339:	8b 55 fc             	mov    -0x4(%rbp),%edx
   1333c:	48 8d 35 5b 2d 00 00 	lea    0x2d5b(%rip),%rsi        # 1609e <g_1898+0x103e>
   13343:	48 89 c7             	mov    %rax,%rdi
   13346:	e8 a8 33 ff ff       	callq  66f3 <transparent_crc>
   1334b:	0f b7 05 d4 6c 00 00 	movzwl 0x6cd4(%rip),%eax        # 1a026 <g_24>
   13352:	0f b7 c0             	movzwl %ax,%eax
   13355:	8b 55 fc             	mov    -0x4(%rbp),%edx
   13358:	48 8d 35 44 2d 00 00 	lea    0x2d44(%rip),%rsi        # 160a3 <g_1898+0x1043>
   1335f:	48 89 c7             	mov    %rax,%rdi
   13362:	e8 8c 33 ff ff       	callq  66f3 <transparent_crc>
   13367:	c7 45 f0 00 00 00 00 	movl   $0x0,-0x10(%rbp)
   1336e:	eb 46                	jmp    133b6 <main+0xf8>
   13370:	8b 45 f0             	mov    -0x10(%rbp),%eax
   13373:	48 98                	cltq   
   13375:	48 8d 15 ac 6c 00 00 	lea    0x6cac(%rip),%rdx        # 1a028 <g_46>
   1337c:	0f b6 04 10          	movzbl (%rax,%rdx,1),%eax
   13380:	48 0f be c0          	movsbq %al,%rax
   13384:	8b 55 fc             	mov    -0x4(%rbp),%edx
   13387:	48 8d 35 1a 2d 00 00 	lea    0x2d1a(%rip),%rsi        # 160a8 <g_1898+0x1048>
   1338e:	48 89 c7             	mov    %rax,%rdi
   13391:	e8 5d 33 ff ff       	callq  66f3 <transparent_crc>
   13396:	83 7d fc 00          	cmpl   $0x0,-0x4(%rbp)
   1339a:	74 16                	je     133b2 <main+0xf4>
   1339c:	8b 45 f0             	mov    -0x10(%rbp),%eax
   1339f:	89 c6                	mov    %eax,%esi
   133a1:	48 8d 3d 08 2d 00 00 	lea    0x2d08(%rip),%rdi        # 160b0 <g_1898+0x1050>
   133a8:	b8 00 00 00 00       	mov    $0x0,%eax
   133ad:	e8 ce 1c ff ff       	callq  5080 <printf@plt>
   133b2:	83 45 f0 01          	addl   $0x1,-0x10(%rbp)
   133b6:	83 7d f0 03          	cmpl   $0x3,-0x10(%rbp)
   133ba:	7e b4                	jle    13370 <main+0xb2>
   133bc:	c7 45 f0 00 00 00 00 	movl   $0x0,-0x10(%rbp)
   133c3:	eb 4b                	jmp    13410 <main+0x152>
   133c5:	8b 45 f0             	mov    -0x10(%rbp),%eax
   133c8:	48 98                	cltq   
   133ca:	48 8d 14 85 00 00 00 	lea    0x0(,%rax,4),%rdx
   133d1:	00 
   133d2:	48 8d 05 53 6c 00 00 	lea    0x6c53(%rip),%rax        # 1a02c <g_47>
   133d9:	8b 04 02             	mov    (%rdx,%rax,1),%eax
   133dc:	48 98                	cltq   
   133de:	8b 55 fc             	mov    -0x4(%rbp),%edx
   133e1:	48 8d 35 d6 2c 00 00 	lea    0x2cd6(%rip),%rsi        # 160be <g_1898+0x105e>
   133e8:	48 89 c7             	mov    %rax,%rdi
   133eb:	e8 03 33 ff ff       	callq  66f3 <transparent_crc>
   133f0:	83 7d fc 00          	cmpl   $0x0,-0x4(%rbp)
   133f4:	74 16                	je     1340c <main+0x14e>
   133f6:	8b 45 f0             	mov    -0x10(%rbp),%eax
   133f9:	89 c6                	mov    %eax,%esi
   133fb:	48 8d 3d ae 2c 00 00 	lea    0x2cae(%rip),%rdi        # 160b0 <g_1898+0x1050>
   13402:	b8 00 00 00 00       	mov    $0x0,%eax
   13407:	e8 74 1c ff ff       	callq  5080 <printf@plt>
   1340c:	83 45 f0 01          	addl   $0x1,-0x10(%rbp)
   13410:	83 7d f0 00          	cmpl   $0x0,-0x10(%rbp)
   13414:	7e af                	jle    133c5 <main+0x107>
   13416:	8b 05 14 6c 00 00    	mov    0x6c14(%rip),%eax        # 1a030 <g_48>
   1341c:	48 98                	cltq   
   1341e:	8b 55 fc             	mov    -0x4(%rbp),%edx
   13421:	48 8d 35 9e 2c 00 00 	lea    0x2c9e(%rip),%rsi        # 160c6 <g_1898+0x1066>
   13428:	48 89 c7             	mov    %rax,%rdi
   1342b:	e8 c3 32 ff ff       	callq  66f3 <transparent_crc>
   13430:	0f b7 05 53 9b 00 00 	movzwl 0x9b53(%rip),%eax        # 1cf8a <g_50>
   13437:	0f b7 c0             	movzwl %ax,%eax
   1343a:	8b 55 fc             	mov    -0x4(%rbp),%edx
   1343d:	48 8d 35 87 2c 00 00 	lea    0x2c87(%rip),%rsi        # 160cb <g_1898+0x106b>
   13444:	48 89 c7             	mov    %rax,%rdi
   13447:	e8 a7 32 ff ff       	callq  66f3 <transparent_crc>
   1344c:	48 8b 05 ed 6b 00 00 	mov    0x6bed(%rip),%rax        # 1a040 <g_71>
   13453:	01 c0                	add    %eax,%eax
   13455:	d1 f8                	sar    %eax
   13457:	48 98                	cltq   
   13459:	8b 55 fc             	mov    -0x4(%rbp),%edx
   1345c:	48 8d 35 6d 2c 00 00 	lea    0x2c6d(%rip),%rsi        # 160d0 <g_1898+0x1070>
   13463:	48 89 c7             	mov    %rax,%rdi
   13466:	e8 88 32 ff ff       	callq  66f3 <transparent_crc>
   1346b:	48 8b 05 ce 6b 00 00 	mov    0x6bce(%rip),%rax        # 1a040 <g_71>
   13472:	48 c1 e0 08          	shl    $0x8,%rax
   13476:	48 c1 f8 28          	sar    $0x28,%rax
   1347a:	48 98                	cltq   
   1347c:	8b 55 fc             	mov    -0x4(%rbp),%edx
   1347f:	48 8d 35 52 2c 00 00 	lea    0x2c52(%rip),%rsi        # 160d8 <g_1898+0x1078>
   13486:	48 89 c7             	mov    %rax,%rdi
   13489:	e8 65 32 ff ff       	callq  66f3 <transparent_crc>
   1348e:	48 8b 05 b3 6b 00 00 	mov    0x6bb3(%rip),%rax        # 1a048 <g_71+0x8>
   13495:	c1 e0 06             	shl    $0x6,%eax
   13498:	c1 f8 06             	sar    $0x6,%eax
   1349b:	48 98                	cltq   
   1349d:	8b 55 fc             	mov    -0x4(%rbp),%edx
   134a0:	48 8d 35 39 2c 00 00 	lea    0x2c39(%rip),%rsi        # 160e0 <g_1898+0x1080>
   134a7:	48 89 c7             	mov    %rax,%rdi
   134aa:	e8 44 32 ff ff       	callq  66f3 <transparent_crc>
   134af:	48 8b 05 92 6b 00 00 	mov    0x6b92(%rip),%rax        # 1a048 <g_71+0x8>
   134b6:	48 c1 e8 20          	shr    $0x20,%rax
   134ba:	25 ff ff ff 3f       	and    $0x3fffffff,%eax
   134bf:	89 c1                	mov    %eax,%ecx
   134c1:	8b 45 fc             	mov    -0x4(%rbp),%eax
   134c4:	89 c2                	mov    %eax,%edx
   134c6:	48 8d 35 1b 2c 00 00 	lea    0x2c1b(%rip),%rsi        # 160e8 <g_1898+0x1088>
   134cd:	48 89 cf             	mov    %rcx,%rdi
   134d0:	e8 1e 32 ff ff       	callq  66f3 <transparent_crc>
   134d5:	0f b6 05 b0 9a 00 00 	movzbl 0x9ab0(%rip),%eax        # 1cf8c <g_73>
   134dc:	0f b6 c0             	movzbl %al,%eax
   134df:	8b 55 fc             	mov    -0x4(%rbp),%edx
   134e2:	48 8d 35 07 2c 00 00 	lea    0x2c07(%rip),%rsi        # 160f0 <g_1898+0x1090>
   134e9:	48 89 c7             	mov    %rax,%rdi
   134ec:	e8 02 32 ff ff       	callq  66f3 <transparent_crc>
   134f1:	8b 05 59 6b 00 00    	mov    0x6b59(%rip),%eax        # 1a050 <g_100>
   134f7:	89 c1                	mov    %eax,%ecx
   134f9:	8b 45 fc             	mov    -0x4(%rbp),%eax
   134fc:	89 c2                	mov    %eax,%edx
   134fe:	48 8d 35 f0 2b 00 00 	lea    0x2bf0(%rip),%rsi        # 160f5 <g_1898+0x1095>
   13505:	48 89 cf             	mov    %rcx,%rdi
   13508:	e8 e6 31 ff ff       	callq  66f3 <transparent_crc>
   1350d:	48 8b 05 44 6b 00 00 	mov    0x6b44(%rip),%rax        # 1a058 <g_115>
   13514:	8b 55 fc             	mov    -0x4(%rbp),%edx
   13517:	48 8d 35 dd 2b 00 00 	lea    0x2bdd(%rip),%rsi        # 160fb <g_1898+0x109b>
   1351e:	48 89 c7             	mov    %rax,%rdi
   13521:	e8 cd 31 ff ff       	callq  66f3 <transparent_crc>
   13526:	0f b6 05 33 6b 00 00 	movzbl 0x6b33(%rip),%eax        # 1a060 <g_137>
   1352d:	0f b6 c0             	movzbl %al,%eax
   13530:	8b 55 fc             	mov    -0x4(%rbp),%edx
   13533:	48 8d 35 c7 2b 00 00 	lea    0x2bc7(%rip),%rsi        # 16101 <g_1898+0x10a1>
   1353a:	48 89 c7             	mov    %rax,%rdi
   1353d:	e8 b1 31 ff ff       	callq  66f3 <transparent_crc>
   13542:	0f b6 05 18 6b 00 00 	movzbl 0x6b18(%rip),%eax        # 1a061 <g_152>
   13549:	48 0f be c0          	movsbq %al,%rax
   1354d:	8b 55 fc             	mov    -0x4(%rbp),%edx
   13550:	48 8d 35 b0 2b 00 00 	lea    0x2bb0(%rip),%rsi        # 16107 <g_1898+0x10a7>
   13557:	48 89 c7             	mov    %rax,%rdi
   1355a:	e8 94 31 ff ff       	callq  66f3 <transparent_crc>
   1355f:	0f b6 05 fc 6a 00 00 	movzbl 0x6afc(%rip),%eax        # 1a062 <g_153>
   13566:	48 0f be c0          	movsbq %al,%rax
   1356a:	8b 55 fc             	mov    -0x4(%rbp),%edx
   1356d:	48 8d 35 99 2b 00 00 	lea    0x2b99(%rip),%rsi        # 1610d <g_1898+0x10ad>
   13574:	48 89 c7             	mov    %rax,%rdi
   13577:	e8 77 31 ff ff       	callq  66f3 <transparent_crc>
   1357c:	c7 45 f0 00 00 00 00 	movl   $0x0,-0x10(%rbp)
   13583:	eb 46                	jmp    135cb <main+0x30d>
   13585:	8b 45 f0             	mov    -0x10(%rbp),%eax
   13588:	48 98                	cltq   
   1358a:	48 8d 15 d2 6a 00 00 	lea    0x6ad2(%rip),%rdx        # 1a063 <g_154>
   13591:	0f b6 04 10          	movzbl (%rax,%rdx,1),%eax
   13595:	48 0f be c0          	movsbq %al,%rax
   13599:	8b 55 fc             	mov    -0x4(%rbp),%edx
   1359c:	48 8d 35 70 2b 00 00 	lea    0x2b70(%rip),%rsi        # 16113 <g_1898+0x10b3>
   135a3:	48 89 c7             	mov    %rax,%rdi
   135a6:	e8 48 31 ff ff       	callq  66f3 <transparent_crc>
   135ab:	83 7d fc 00          	cmpl   $0x0,-0x4(%rbp)
   135af:	74 16                	je     135c7 <main+0x309>
   135b1:	8b 45 f0             	mov    -0x10(%rbp),%eax
   135b4:	89 c6                	mov    %eax,%esi
   135b6:	48 8d 3d f3 2a 00 00 	lea    0x2af3(%rip),%rdi        # 160b0 <g_1898+0x1050>
   135bd:	b8 00 00 00 00       	mov    $0x0,%eax
   135c2:	e8 b9 1a ff ff       	callq  5080 <printf@plt>
   135c7:	83 45 f0 01          	addl   $0x1,-0x10(%rbp)
   135cb:	83 7d f0 06          	cmpl   $0x6,-0x10(%rbp)
   135cf:	7e b4                	jle    13585 <main+0x2c7>
   135d1:	0f b6 05 92 6a 00 00 	movzbl 0x6a92(%rip),%eax        # 1a06a <g_155>
   135d8:	48 0f be c0          	movsbq %al,%rax
   135dc:	8b 55 fc             	mov    -0x4(%rbp),%edx
   135df:	48 8d 35 36 2b 00 00 	lea    0x2b36(%rip),%rsi        # 1611c <g_1898+0x10bc>
   135e6:	48 89 c7             	mov    %rax,%rdi
   135e9:	e8 05 31 ff ff       	callq  66f3 <transparent_crc>
   135ee:	c7 45 f0 00 00 00 00 	movl   $0x0,-0x10(%rbp)
   135f5:	eb 46                	jmp    1363d <main+0x37f>
   135f7:	8b 45 f0             	mov    -0x10(%rbp),%eax
   135fa:	48 98                	cltq   
   135fc:	48 8d 15 68 6a 00 00 	lea    0x6a68(%rip),%rdx        # 1a06b <g_156>
   13603:	0f b6 04 10          	movzbl (%rax,%rdx,1),%eax
   13607:	48 0f be c0          	movsbq %al,%rax
   1360b:	8b 55 fc             	mov    -0x4(%rbp),%edx
   1360e:	48 8d 35 0d 2b 00 00 	lea    0x2b0d(%rip),%rsi        # 16122 <g_1898+0x10c2>
   13615:	48 89 c7             	mov    %rax,%rdi
   13618:	e8 d6 30 ff ff       	callq  66f3 <transparent_crc>
   1361d:	83 7d fc 00          	cmpl   $0x0,-0x4(%rbp)
   13621:	74 16                	je     13639 <main+0x37b>
   13623:	8b 45 f0             	mov    -0x10(%rbp),%eax
   13626:	89 c6                	mov    %eax,%esi
   13628:	48 8d 3d 81 2a 00 00 	lea    0x2a81(%rip),%rdi        # 160b0 <g_1898+0x1050>
   1362f:	b8 00 00 00 00       	mov    $0x0,%eax
   13634:	e8 47 1a ff ff       	callq  5080 <printf@plt>
   13639:	83 45 f0 01          	addl   $0x1,-0x10(%rbp)
   1363d:	83 7d f0 01          	cmpl   $0x1,-0x10(%rbp)
   13641:	7e b4                	jle    135f7 <main+0x339>
   13643:	0f b7 05 24 6a 00 00 	movzwl 0x6a24(%rip),%eax        # 1a06e <g_171>
   1364a:	0f b7 c0             	movzwl %ax,%eax
   1364d:	8b 55 fc             	mov    -0x4(%rbp),%edx
   13650:	48 8d 35 d4 2a 00 00 	lea    0x2ad4(%rip),%rsi        # 1612b <g_1898+0x10cb>
   13657:	48 89 c7             	mov    %rax,%rdi
   1365a:	e8 94 30 ff ff       	callq  66f3 <transparent_crc>
   1365f:	0f b7 05 0a 6a 00 00 	movzwl 0x6a0a(%rip),%eax        # 1a070 <g_192>
   13666:	0f b7 c0             	movzwl %ax,%eax
   13669:	8b 55 fc             	mov    -0x4(%rbp),%edx
   1366c:	48 8d 35 be 2a 00 00 	lea    0x2abe(%rip),%rsi        # 16131 <g_1898+0x10d1>
   13673:	48 89 c7             	mov    %rax,%rdi
   13676:	e8 78 30 ff ff       	callq  66f3 <transparent_crc>
   1367b:	c7 45 f0 00 00 00 00 	movl   $0x0,-0x10(%rbp)
   13682:	e9 9c 00 00 00       	jmpq   13723 <main+0x465>
   13687:	c7 45 f4 00 00 00 00 	movl   $0x0,-0xc(%rbp)
   1368e:	e9 82 00 00 00       	jmpq   13715 <main+0x457>
   13693:	c7 45 f8 00 00 00 00 	movl   $0x0,-0x8(%rbp)
   1369a:	eb 6f                	jmp    1370b <main+0x44d>
   1369c:	8b 45 f8             	mov    -0x8(%rbp),%eax
   1369f:	48 98                	cltq   
   136a1:	8b 55 f0             	mov    -0x10(%rbp),%edx
   136a4:	48 63 ca             	movslq %edx,%rcx
   136a7:	8b 55 f4             	mov    -0xc(%rbp),%edx
   136aa:	48 63 d2             	movslq %edx,%rdx
   136ad:	48 c1 e1 03          	shl    $0x3,%rcx
   136b1:	48 01 ca             	add    %rcx,%rdx
   136b4:	48 c1 e2 03          	shl    $0x3,%rdx
   136b8:	48 01 d0             	add    %rdx,%rax
   136bb:	48 8d 14 c5 00 00 00 	lea    0x0(,%rax,8),%rdx
   136c2:	00 
   136c3:	48 8d 05 b6 69 00 00 	lea    0x69b6(%rip),%rax        # 1a080 <g_196>
   136ca:	48 8b 04 02          	mov    (%rdx,%rax,1),%rax
   136ce:	48 89 c1             	mov    %rax,%rcx
   136d1:	8b 45 fc             	mov    -0x4(%rbp),%eax
   136d4:	89 c2                	mov    %eax,%edx
   136d6:	48 8d 35 5a 2a 00 00 	lea    0x2a5a(%rip),%rsi        # 16137 <g_1898+0x10d7>
   136dd:	48 89 cf             	mov    %rcx,%rdi
   136e0:	e8 0e 30 ff ff       	callq  66f3 <transparent_crc>
   136e5:	83 7d fc 00          	cmpl   $0x0,-0x4(%rbp)
   136e9:	74 1c                	je     13707 <main+0x449>
   136eb:	8b 4d f8             	mov    -0x8(%rbp),%ecx
   136ee:	8b 55 f4             	mov    -0xc(%rbp),%edx
   136f1:	8b 45 f0             	mov    -0x10(%rbp),%eax
   136f4:	89 c6                	mov    %eax,%esi
   136f6:	48 8d 3d 49 2a 00 00 	lea    0x2a49(%rip),%rdi        # 16146 <g_1898+0x10e6>
   136fd:	b8 00 00 00 00       	mov    $0x0,%eax
   13702:	e8 79 19 ff ff       	callq  5080 <printf@plt>
   13707:	83 45 f8 01          	addl   $0x1,-0x8(%rbp)
   1370b:	83 7d f8 07          	cmpl   $0x7,-0x8(%rbp)
   1370f:	7e 8b                	jle    1369c <main+0x3de>
   13711:	83 45 f4 01          	addl   $0x1,-0xc(%rbp)
   13715:	83 7d f4 07          	cmpl   $0x7,-0xc(%rbp)
   13719:	0f 8e 74 ff ff ff    	jle    13693 <main+0x3d5>
   1371f:	83 45 f0 01          	addl   $0x1,-0x10(%rbp)
   13723:	83 7d f0 03          	cmpl   $0x3,-0x10(%rbp)
   13727:	0f 8e 5a ff ff ff    	jle    13687 <main+0x3c9>
   1372d:	c7 45 f0 00 00 00 00 	movl   $0x0,-0x10(%rbp)
   13734:	eb 4a                	jmp    13780 <main+0x4c2>
   13736:	8b 45 f0             	mov    -0x10(%rbp),%eax
   13739:	48 98                	cltq   
   1373b:	48 8d 14 00          	lea    (%rax,%rax,1),%rdx
   1373f:	48 8d 05 3a 71 00 00 	lea    0x713a(%rip),%rax        # 1a880 <g_219>
   13746:	0f b7 04 02          	movzwl (%rdx,%rax,1),%eax
   1374a:	48 0f bf c0          	movswq %ax,%rax
   1374e:	8b 55 fc             	mov    -0x4(%rbp),%edx
   13751:	48 8d 35 04 2a 00 00 	lea    0x2a04(%rip),%rsi        # 1615c <g_1898+0x10fc>
   13758:	48 89 c7             	mov    %rax,%rdi
   1375b:	e8 93 2f ff ff       	callq  66f3 <transparent_crc>
   13760:	83 7d fc 00          	cmpl   $0x0,-0x4(%rbp)
   13764:	74 16                	je     1377c <main+0x4be>
   13766:	8b 45 f0             	mov    -0x10(%rbp),%eax
   13769:	89 c6                	mov    %eax,%esi
   1376b:	48 8d 3d 3e 29 00 00 	lea    0x293e(%rip),%rdi        # 160b0 <g_1898+0x1050>
   13772:	b8 00 00 00 00       	mov    $0x0,%eax
   13777:	e8 04 19 ff ff       	callq  5080 <printf@plt>
   1377c:	83 45 f0 01          	addl   $0x1,-0x10(%rbp)
   13780:	83 7d f0 07          	cmpl   $0x7,-0x10(%rbp)
   13784:	7e b0                	jle    13736 <main+0x478>
   13786:	c7 45 f0 00 00 00 00 	movl   $0x0,-0x10(%rbp)
   1378d:	eb 4b                	jmp    137da <main+0x51c>
   1378f:	8b 45 f0             	mov    -0x10(%rbp),%eax
   13792:	48 98                	cltq   
   13794:	48 8d 14 85 00 00 00 	lea    0x0(,%rax,4),%rdx
   1379b:	00 
   1379c:	48 8d 05 ed 70 00 00 	lea    0x70ed(%rip),%rax        # 1a890 <g_220>
   137a3:	8b 04 02             	mov    (%rdx,%rax,1),%eax
   137a6:	48 98                	cltq   
   137a8:	8b 55 fc             	mov    -0x4(%rbp),%edx
   137ab:	48 8d 35 b3 29 00 00 	lea    0x29b3(%rip),%rsi        # 16165 <g_1898+0x1105>
   137b2:	48 89 c7             	mov    %rax,%rdi
   137b5:	e8 39 2f ff ff       	callq  66f3 <transparent_crc>
   137ba:	83 7d fc 00          	cmpl   $0x0,-0x4(%rbp)
   137be:	74 16                	je     137d6 <main+0x518>
   137c0:	8b 45 f0             	mov    -0x10(%rbp),%eax
   137c3:	89 c6                	mov    %eax,%esi
   137c5:	48 8d 3d e4 28 00 00 	lea    0x28e4(%rip),%rdi        # 160b0 <g_1898+0x1050>
   137cc:	b8 00 00 00 00       	mov    $0x0,%eax
   137d1:	e8 aa 18 ff ff       	callq  5080 <printf@plt>
   137d6:	83 45 f0 01          	addl   $0x1,-0x10(%rbp)
   137da:	83 7d f0 00          	cmpl   $0x0,-0x10(%rbp)
   137de:	7e af                	jle    1378f <main+0x4d1>
   137e0:	c7 45 f0 00 00 00 00 	movl   $0x0,-0x10(%rbp)
   137e7:	eb 4a                	jmp    13833 <main+0x575>
   137e9:	8b 45 f0             	mov    -0x10(%rbp),%eax
   137ec:	48 98                	cltq   
   137ee:	48 8d 14 c5 00 00 00 	lea    0x0(,%rax,8),%rdx
   137f5:	00 
   137f6:	48 8d 05 9b 70 00 00 	lea    0x709b(%rip),%rax        # 1a898 <g_221>
   137fd:	48 8b 04 02          	mov    (%rdx,%rax,1),%rax
   13801:	8b 55 fc             	mov    -0x4(%rbp),%edx
   13804:	48 8d 35 63 29 00 00 	lea    0x2963(%rip),%rsi        # 1616e <g_1898+0x110e>
   1380b:	48 89 c7             	mov    %rax,%rdi
   1380e:	e8 e0 2e ff ff       	callq  66f3 <transparent_crc>
   13813:	83 7d fc 00          	cmpl   $0x0,-0x4(%rbp)
   13817:	74 16                	je     1382f <main+0x571>
   13819:	8b 45 f0             	mov    -0x10(%rbp),%eax
   1381c:	89 c6                	mov    %eax,%esi
   1381e:	48 8d 3d 8b 28 00 00 	lea    0x288b(%rip),%rdi        # 160b0 <g_1898+0x1050>
   13825:	b8 00 00 00 00       	mov    $0x0,%eax
   1382a:	e8 51 18 ff ff       	callq  5080 <printf@plt>
   1382f:	83 45 f0 01          	addl   $0x1,-0x10(%rbp)
   13833:	83 7d f0 00          	cmpl   $0x0,-0x10(%rbp)
   13837:	7e b0                	jle    137e9 <main+0x52b>
   13839:	8b 05 61 70 00 00    	mov    0x7061(%rip),%eax        # 1a8a0 <g_246>
   1383f:	89 c1                	mov    %eax,%ecx
   13841:	8b 45 fc             	mov    -0x4(%rbp),%eax
   13844:	89 c2                	mov    %eax,%edx
   13846:	48 8d 35 2a 29 00 00 	lea    0x292a(%rip),%rsi        # 16177 <g_1898+0x1117>
   1384d:	48 89 cf             	mov    %rcx,%rdi
   13850:	e8 9e 2e ff ff       	callq  66f3 <transparent_crc>
   13855:	0f b6 05 48 70 00 00 	movzbl 0x7048(%rip),%eax        # 1a8a4 <g_249>
   1385c:	48 0f be c0          	movsbq %al,%rax
   13860:	8b 55 fc             	mov    -0x4(%rbp),%edx
   13863:	48 8d 35 13 29 00 00 	lea    0x2913(%rip),%rsi        # 1617d <g_1898+0x111d>
   1386a:	48 89 c7             	mov    %rax,%rdi
   1386d:	e8 81 2e ff ff       	callq  66f3 <transparent_crc>
   13872:	c7 45 f0 00 00 00 00 	movl   $0x0,-0x10(%rbp)
   13879:	eb 46                	jmp    138c1 <main+0x603>
   1387b:	8b 45 f0             	mov    -0x10(%rbp),%eax
   1387e:	48 98                	cltq   
   13880:	48 8d 15 1e 70 00 00 	lea    0x701e(%rip),%rdx        # 1a8a5 <g_345>
   13887:	0f b6 04 10          	movzbl (%rax,%rdx,1),%eax
   1388b:	48 0f be c0          	movsbq %al,%rax
   1388f:	8b 55 fc             	mov    -0x4(%rbp),%edx
   13892:	48 8d 35 ea 28 00 00 	lea    0x28ea(%rip),%rsi        # 16183 <g_1898+0x1123>
   13899:	48 89 c7             	mov    %rax,%rdi
   1389c:	e8 52 2e ff ff       	callq  66f3 <transparent_crc>
   138a1:	83 7d fc 00          	cmpl   $0x0,-0x4(%rbp)
   138a5:	74 16                	je     138bd <main+0x5ff>
   138a7:	8b 45 f0             	mov    -0x10(%rbp),%eax
   138aa:	89 c6                	mov    %eax,%esi
   138ac:	48 8d 3d fd 27 00 00 	lea    0x27fd(%rip),%rdi        # 160b0 <g_1898+0x1050>
   138b3:	b8 00 00 00 00       	mov    $0x0,%eax
   138b8:	e8 c3 17 ff ff       	callq  5080 <printf@plt>
   138bd:	83 45 f0 01          	addl   $0x1,-0x10(%rbp)
   138c1:	83 7d f0 04          	cmpl   $0x4,-0x10(%rbp)
   138c5:	7e b4                	jle    1387b <main+0x5bd>
   138c7:	c7 45 f0 00 00 00 00 	movl   $0x0,-0x10(%rbp)
   138ce:	eb 45                	jmp    13915 <main+0x657>
   138d0:	8b 45 f0             	mov    -0x10(%rbp),%eax
   138d3:	48 98                	cltq   
   138d5:	48 8d 15 ce 6f 00 00 	lea    0x6fce(%rip),%rdx        # 1a8aa <g_346>
   138dc:	0f b6 04 10          	movzbl (%rax,%rdx,1),%eax
   138e0:	0f b6 c0             	movzbl %al,%eax
   138e3:	8b 55 fc             	mov    -0x4(%rbp),%edx
   138e6:	48 8d 35 9f 28 00 00 	lea    0x289f(%rip),%rsi        # 1618c <g_1898+0x112c>
   138ed:	48 89 c7             	mov    %rax,%rdi
   138f0:	e8 fe 2d ff ff       	callq  66f3 <transparent_crc>
   138f5:	83 7d fc 00          	cmpl   $0x0,-0x4(%rbp)
   138f9:	74 16                	je     13911 <main+0x653>
   138fb:	8b 45 f0             	mov    -0x10(%rbp),%eax
   138fe:	89 c6                	mov    %eax,%esi
   13900:	48 8d 3d a9 27 00 00 	lea    0x27a9(%rip),%rdi        # 160b0 <g_1898+0x1050>
   13907:	b8 00 00 00 00       	mov    $0x0,%eax
   1390c:	e8 6f 17 ff ff       	callq  5080 <printf@plt>
   13911:	83 45 f0 01          	addl   $0x1,-0x10(%rbp)
   13915:	83 7d f0 02          	cmpl   $0x2,-0x10(%rbp)
   13919:	7e b5                	jle    138d0 <main+0x612>
   1391b:	48 8b 05 8e 6f 00 00 	mov    0x6f8e(%rip),%rax        # 1a8b0 <g_435>
   13922:	01 c0                	add    %eax,%eax
   13924:	d1 f8                	sar    %eax
   13926:	48 98                	cltq   
   13928:	8b 55 fc             	mov    -0x4(%rbp),%edx
   1392b:	48 8d 35 63 28 00 00 	lea    0x2863(%rip),%rsi        # 16195 <g_1898+0x1135>
   13932:	48 89 c7             	mov    %rax,%rdi
   13935:	e8 b9 2d ff ff       	callq  66f3 <transparent_crc>
   1393a:	48 8b 05 6f 6f 00 00 	mov    0x6f6f(%rip),%rax        # 1a8b0 <g_435>
   13941:	48 c1 e0 08          	shl    $0x8,%rax
   13945:	48 c1 f8 28          	sar    $0x28,%rax
   13949:	48 98                	cltq   
   1394b:	8b 55 fc             	mov    -0x4(%rbp),%edx
   1394e:	48 8d 35 49 28 00 00 	lea    0x2849(%rip),%rsi        # 1619e <g_1898+0x113e>
   13955:	48 89 c7             	mov    %rax,%rdi
   13958:	e8 96 2d ff ff       	callq  66f3 <transparent_crc>
   1395d:	48 8b 05 54 6f 00 00 	mov    0x6f54(%rip),%rax        # 1a8b8 <g_435+0x8>
   13964:	c1 e0 06             	shl    $0x6,%eax
   13967:	c1 f8 06             	sar    $0x6,%eax
   1396a:	48 98                	cltq   
   1396c:	8b 55 fc             	mov    -0x4(%rbp),%edx
   1396f:	48 8d 35 31 28 00 00 	lea    0x2831(%rip),%rsi        # 161a7 <g_1898+0x1147>
   13976:	48 89 c7             	mov    %rax,%rdi
   13979:	e8 75 2d ff ff       	callq  66f3 <transparent_crc>
   1397e:	48 8b 05 33 6f 00 00 	mov    0x6f33(%rip),%rax        # 1a8b8 <g_435+0x8>
   13985:	48 c1 e8 20          	shr    $0x20,%rax
   13989:	25 ff ff ff 3f       	and    $0x3fffffff,%eax
   1398e:	89 c1                	mov    %eax,%ecx
   13990:	8b 45 fc             	mov    -0x4(%rbp),%eax
   13993:	89 c2                	mov    %eax,%edx
   13995:	48 8d 35 14 28 00 00 	lea    0x2814(%rip),%rsi        # 161b0 <g_1898+0x1150>
   1399c:	48 89 cf             	mov    %rcx,%rdi
   1399f:	e8 4f 2d ff ff       	callq  66f3 <transparent_crc>
   139a4:	b8 09 00 00 00       	mov    $0x9,%eax
   139a9:	48 98                	cltq   
   139ab:	8b 55 fc             	mov    -0x4(%rbp),%edx
   139ae:	48 8d 35 04 28 00 00 	lea    0x2804(%rip),%rsi        # 161b9 <g_1898+0x1159>
   139b5:	48 89 c7             	mov    %rax,%rdi
   139b8:	e8 36 2d ff ff       	callq  66f3 <transparent_crc>
   139bd:	48 8b 05 fc 6e 00 00 	mov    0x6efc(%rip),%rax        # 1a8c0 <g_501>
   139c4:	48 89 c1             	mov    %rax,%rcx
   139c7:	8b 45 fc             	mov    -0x4(%rbp),%eax
   139ca:	89 c2                	mov    %eax,%edx
   139cc:	48 8d 35 ec 27 00 00 	lea    0x27ec(%rip),%rsi        # 161bf <g_1898+0x115f>
   139d3:	48 89 cf             	mov    %rcx,%rdi
   139d6:	e8 18 2d ff ff       	callq  66f3 <transparent_crc>
   139db:	c7 45 f0 00 00 00 00 	movl   $0x0,-0x10(%rbp)
   139e2:	e9 2c 01 00 00       	jmpq   13b13 <main+0x855>
   139e7:	c7 45 f4 00 00 00 00 	movl   $0x0,-0xc(%rbp)
   139ee:	e9 12 01 00 00       	jmpq   13b05 <main+0x847>
   139f3:	8b 45 f4             	mov    -0xc(%rbp),%eax
   139f6:	48 63 d0             	movslq %eax,%rdx
   139f9:	8b 45 f0             	mov    -0x10(%rbp),%eax
   139fc:	48 98                	cltq   
   139fe:	48 01 d0             	add    %rdx,%rax
   13a01:	48 c1 e0 04          	shl    $0x4,%rax
   13a05:	48 89 c2             	mov    %rax,%rdx
   13a08:	48 8d 05 d1 6e 00 00 	lea    0x6ed1(%rip),%rax        # 1a8e0 <g_502>
   13a0f:	48 8b 04 02          	mov    (%rdx,%rax,1),%rax
   13a13:	01 c0                	add    %eax,%eax
   13a15:	d1 f8                	sar    %eax
   13a17:	48 98                	cltq   
   13a19:	8b 55 fc             	mov    -0x4(%rbp),%edx
   13a1c:	48 8d 35 a2 27 00 00 	lea    0x27a2(%rip),%rsi        # 161c5 <g_1898+0x1165>
   13a23:	48 89 c7             	mov    %rax,%rdi
   13a26:	e8 c8 2c ff ff       	callq  66f3 <transparent_crc>
   13a2b:	8b 45 f4             	mov    -0xc(%rbp),%eax
   13a2e:	48 63 d0             	movslq %eax,%rdx
   13a31:	8b 45 f0             	mov    -0x10(%rbp),%eax
   13a34:	48 98                	cltq   
   13a36:	48 01 d0             	add    %rdx,%rax
   13a39:	48 c1 e0 04          	shl    $0x4,%rax
   13a3d:	48 89 c2             	mov    %rax,%rdx
   13a40:	48 8d 05 99 6e 00 00 	lea    0x6e99(%rip),%rax        # 1a8e0 <g_502>
   13a47:	48 8b 04 02          	mov    (%rdx,%rax,1),%rax
   13a4b:	48 c1 e0 08          	shl    $0x8,%rax
   13a4f:	48 c1 f8 28          	sar    $0x28,%rax
   13a53:	48 98                	cltq   
   13a55:	8b 55 fc             	mov    -0x4(%rbp),%edx
   13a58:	48 8d 35 75 27 00 00 	lea    0x2775(%rip),%rsi        # 161d4 <g_1898+0x1174>
   13a5f:	48 89 c7             	mov    %rax,%rdi
   13a62:	e8 8c 2c ff ff       	callq  66f3 <transparent_crc>
   13a67:	8b 45 f4             	mov    -0xc(%rbp),%eax
   13a6a:	48 63 d0             	movslq %eax,%rdx
   13a6d:	8b 45 f0             	mov    -0x10(%rbp),%eax
   13a70:	48 98                	cltq   
   13a72:	48 01 d0             	add    %rdx,%rax
   13a75:	48 c1 e0 04          	shl    $0x4,%rax
   13a79:	48 89 c2             	mov    %rax,%rdx
   13a7c:	48 8d 05 5d 6e 00 00 	lea    0x6e5d(%rip),%rax        # 1a8e0 <g_502>
   13a83:	48 8b 44 02 08       	mov    0x8(%rdx,%rax,1),%rax
   13a88:	c1 e0 06             	shl    $0x6,%eax
   13a8b:	c1 f8 06             	sar    $0x6,%eax
   13a8e:	48 98                	cltq   
   13a90:	8b 55 fc             	mov    -0x4(%rbp),%edx
   13a93:	48 8d 35 49 27 00 00 	lea    0x2749(%rip),%rsi        # 161e3 <g_1898+0x1183>
   13a9a:	48 89 c7             	mov    %rax,%rdi
   13a9d:	e8 51 2c ff ff       	callq  66f3 <transparent_crc>
   13aa2:	8b 45 f4             	mov    -0xc(%rbp),%eax
   13aa5:	48 63 d0             	movslq %eax,%rdx
   13aa8:	8b 45 f0             	mov    -0x10(%rbp),%eax
   13aab:	48 98                	cltq   
   13aad:	48 01 d0             	add    %rdx,%rax
   13ab0:	48 c1 e0 04          	shl    $0x4,%rax
   13ab4:	48 89 c2             	mov    %rax,%rdx
   13ab7:	48 8d 05 22 6e 00 00 	lea    0x6e22(%rip),%rax        # 1a8e0 <g_502>
   13abe:	48 8b 44 02 08       	mov    0x8(%rdx,%rax,1),%rax
   13ac3:	48 c1 e8 20          	shr    $0x20,%rax
   13ac7:	25 ff ff ff 3f       	and    $0x3fffffff,%eax
   13acc:	89 c1                	mov    %eax,%ecx
   13ace:	8b 45 fc             	mov    -0x4(%rbp),%eax
   13ad1:	89 c2                	mov    %eax,%edx
   13ad3:	48 8d 35 18 27 00 00 	lea    0x2718(%rip),%rsi        # 161f2 <g_1898+0x1192>
   13ada:	48 89 cf             	mov    %rcx,%rdi
   13add:	e8 11 2c ff ff       	callq  66f3 <transparent_crc>
   13ae2:	83 7d fc 00          	cmpl   $0x0,-0x4(%rbp)
   13ae6:	74 19                	je     13b01 <main+0x843>
   13ae8:	8b 55 f4             	mov    -0xc(%rbp),%edx
   13aeb:	8b 45 f0             	mov    -0x10(%rbp),%eax
   13aee:	89 c6                	mov    %eax,%esi
   13af0:	48 8d 3d 0a 27 00 00 	lea    0x270a(%rip),%rdi        # 16201 <g_1898+0x11a1>
   13af7:	b8 00 00 00 00       	mov    $0x0,%eax
   13afc:	e8 7f 15 ff ff       	callq  5080 <printf@plt>
   13b01:	83 45 f4 01          	addl   $0x1,-0xc(%rbp)
   13b05:	83 7d f4 00          	cmpl   $0x0,-0xc(%rbp)
   13b09:	0f 8e e4 fe ff ff    	jle    139f3 <main+0x735>
   13b0f:	83 45 f0 01          	addl   $0x1,-0x10(%rbp)
   13b13:	83 7d f0 02          	cmpl   $0x2,-0x10(%rbp)
   13b17:	0f 8e ca fe ff ff    	jle    139e7 <main+0x729>
   13b1d:	8b 05 ed 6d 00 00    	mov    0x6ded(%rip),%eax        # 1a910 <g_578>
   13b23:	89 c1                	mov    %eax,%ecx
   13b25:	8b 45 fc             	mov    -0x4(%rbp),%eax
   13b28:	89 c2                	mov    %eax,%edx
   13b2a:	48 8d 35 e2 26 00 00 	lea    0x26e2(%rip),%rsi        # 16213 <g_1898+0x11b3>
   13b31:	48 89 cf             	mov    %rcx,%rdi
   13b34:	e8 ba 2b ff ff       	callq  66f3 <transparent_crc>
   13b39:	0f b7 05 d4 6d 00 00 	movzwl 0x6dd4(%rip),%eax        # 1a914 <g_598>
   13b40:	48 0f bf c0          	movswq %ax,%rax
   13b44:	8b 55 fc             	mov    -0x4(%rbp),%edx
   13b47:	48 8d 35 cb 26 00 00 	lea    0x26cb(%rip),%rsi        # 16219 <g_1898+0x11b9>
   13b4e:	48 89 c7             	mov    %rax,%rdi
   13b51:	e8 9d 2b ff ff       	callq  66f3 <transparent_crc>
   13b56:	8b 05 bc 6d 00 00    	mov    0x6dbc(%rip),%eax        # 1a918 <g_634>
   13b5c:	48 98                	cltq   
   13b5e:	8b 55 fc             	mov    -0x4(%rbp),%edx
   13b61:	48 8d 35 b7 26 00 00 	lea    0x26b7(%rip),%rsi        # 1621f <g_1898+0x11bf>
   13b68:	48 89 c7             	mov    %rax,%rdi
   13b6b:	e8 83 2b ff ff       	callq  66f3 <transparent_crc>
   13b70:	8b 05 a6 6d 00 00    	mov    0x6da6(%rip),%eax        # 1a91c <g_768>
   13b76:	89 c1                	mov    %eax,%ecx
   13b78:	8b 45 fc             	mov    -0x4(%rbp),%eax
   13b7b:	89 c2                	mov    %eax,%edx
   13b7d:	48 8d 35 a1 26 00 00 	lea    0x26a1(%rip),%rsi        # 16225 <g_1898+0x11c5>
   13b84:	48 89 cf             	mov    %rcx,%rdi
   13b87:	e8 67 2b ff ff       	callq  66f3 <transparent_crc>
   13b8c:	48 8b 05 8d 6d 00 00 	mov    0x6d8d(%rip),%rax        # 1a920 <g_847>
   13b93:	01 c0                	add    %eax,%eax
   13b95:	d1 f8                	sar    %eax
   13b97:	48 98                	cltq   
   13b99:	8b 55 fc             	mov    -0x4(%rbp),%edx
   13b9c:	48 8d 35 88 26 00 00 	lea    0x2688(%rip),%rsi        # 1622b <g_1898+0x11cb>
   13ba3:	48 89 c7             	mov    %rax,%rdi
   13ba6:	e8 48 2b ff ff       	callq  66f3 <transparent_crc>
   13bab:	48 8b 05 6e 6d 00 00 	mov    0x6d6e(%rip),%rax        # 1a920 <g_847>
   13bb2:	48 c1 e0 08          	shl    $0x8,%rax
   13bb6:	48 c1 f8 28          	sar    $0x28,%rax
   13bba:	48 98                	cltq   
   13bbc:	8b 55 fc             	mov    -0x4(%rbp),%edx
   13bbf:	48 8d 35 6e 26 00 00 	lea    0x266e(%rip),%rsi        # 16234 <g_1898+0x11d4>
   13bc6:	48 89 c7             	mov    %rax,%rdi
   13bc9:	e8 25 2b ff ff       	callq  66f3 <transparent_crc>
   13bce:	48 8b 05 53 6d 00 00 	mov    0x6d53(%rip),%rax        # 1a928 <g_847+0x8>
   13bd5:	c1 e0 06             	shl    $0x6,%eax
   13bd8:	c1 f8 06             	sar    $0x6,%eax
   13bdb:	48 98                	cltq   
   13bdd:	8b 55 fc             	mov    -0x4(%rbp),%edx
   13be0:	48 8d 35 56 26 00 00 	lea    0x2656(%rip),%rsi        # 1623d <g_1898+0x11dd>
   13be7:	48 89 c7             	mov    %rax,%rdi
   13bea:	e8 04 2b ff ff       	callq  66f3 <transparent_crc>
   13bef:	48 8b 05 32 6d 00 00 	mov    0x6d32(%rip),%rax        # 1a928 <g_847+0x8>
   13bf6:	48 c1 e8 20          	shr    $0x20,%rax
   13bfa:	25 ff ff ff 3f       	and    $0x3fffffff,%eax
   13bff:	89 c1                	mov    %eax,%ecx
   13c01:	8b 45 fc             	mov    -0x4(%rbp),%eax
   13c04:	89 c2                	mov    %eax,%edx
   13c06:	48 8d 35 39 26 00 00 	lea    0x2639(%rip),%rsi        # 16246 <g_1898+0x11e6>
   13c0d:	48 89 cf             	mov    %rcx,%rdi
   13c10:	e8 de 2a ff ff       	callq  66f3 <transparent_crc>
   13c15:	48 8b 05 14 6d 00 00 	mov    0x6d14(%rip),%rax        # 1a930 <g_875>
   13c1c:	01 c0                	add    %eax,%eax
   13c1e:	d1 f8                	sar    %eax
   13c20:	48 98                	cltq   
   13c22:	8b 55 fc             	mov    -0x4(%rbp),%edx
   13c25:	48 8d 35 23 26 00 00 	lea    0x2623(%rip),%rsi        # 1624f <g_1898+0x11ef>
   13c2c:	48 89 c7             	mov    %rax,%rdi
   13c2f:	e8 bf 2a ff ff       	callq  66f3 <transparent_crc>
   13c34:	48 8b 05 f5 6c 00 00 	mov    0x6cf5(%rip),%rax        # 1a930 <g_875>
   13c3b:	48 c1 e0 08          	shl    $0x8,%rax
   13c3f:	48 c1 f8 28          	sar    $0x28,%rax
   13c43:	48 98                	cltq   
   13c45:	8b 55 fc             	mov    -0x4(%rbp),%edx
   13c48:	48 8d 35 09 26 00 00 	lea    0x2609(%rip),%rsi        # 16258 <g_1898+0x11f8>
   13c4f:	48 89 c7             	mov    %rax,%rdi
   13c52:	e8 9c 2a ff ff       	callq  66f3 <transparent_crc>
   13c57:	8b 05 db 6c 00 00    	mov    0x6cdb(%rip),%eax        # 1a938 <g_875+0x8>
   13c5d:	c1 e0 06             	shl    $0x6,%eax
   13c60:	c1 f8 06             	sar    $0x6,%eax
   13c63:	48 98                	cltq   
   13c65:	8b 55 fc             	mov    -0x4(%rbp),%edx
   13c68:	48 8d 35 f2 25 00 00 	lea    0x25f2(%rip),%rsi        # 16261 <g_1898+0x1201>
   13c6f:	48 89 c7             	mov    %rax,%rdi
   13c72:	e8 7c 2a ff ff       	callq  66f3 <transparent_crc>
   13c77:	8b 05 bf 6c 00 00    	mov    0x6cbf(%rip),%eax        # 1a93c <g_875+0xc>
   13c7d:	25 ff ff ff 3f       	and    $0x3fffffff,%eax
   13c82:	89 c1                	mov    %eax,%ecx
   13c84:	8b 45 fc             	mov    -0x4(%rbp),%eax
   13c87:	89 c2                	mov    %eax,%edx
   13c89:	48 8d 35 da 25 00 00 	lea    0x25da(%rip),%rsi        # 1626a <g_1898+0x120a>
   13c90:	48 89 cf             	mov    %rcx,%rdi
   13c93:	e8 5b 2a ff ff       	callq  66f3 <transparent_crc>
   13c98:	c7 45 f0 00 00 00 00 	movl   $0x0,-0x10(%rbp)
   13c9f:	e9 b7 01 00 00       	jmpq   13e5b <main+0xb9d>
   13ca4:	c7 45 f4 00 00 00 00 	movl   $0x0,-0xc(%rbp)
   13cab:	e9 9d 01 00 00       	jmpq   13e4d <main+0xb8f>
   13cb0:	c7 45 f8 00 00 00 00 	movl   $0x0,-0x8(%rbp)
   13cb7:	e9 83 01 00 00       	jmpq   13e3f <main+0xb81>
   13cbc:	8b 45 f8             	mov    -0x8(%rbp),%eax
   13cbf:	48 63 f0             	movslq %eax,%rsi
   13cc2:	8b 45 f0             	mov    -0x10(%rbp),%eax
   13cc5:	48 98                	cltq   
   13cc7:	8b 55 f4             	mov    -0xc(%rbp),%edx
   13cca:	48 63 ca             	movslq %edx,%rcx
   13ccd:	48 89 c2             	mov    %rax,%rdx
   13cd0:	48 c1 e2 04          	shl    $0x4,%rdx
   13cd4:	48 29 c2             	sub    %rax,%rdx
   13cd7:	48 89 c8             	mov    %rcx,%rax
   13cda:	48 c1 e0 02          	shl    $0x2,%rax
   13cde:	48 01 c8             	add    %rcx,%rax
   13ce1:	48 01 d0             	add    %rdx,%rax
   13ce4:	48 01 f0             	add    %rsi,%rax
   13ce7:	48 c1 e0 04          	shl    $0x4,%rax
   13ceb:	48 89 c2             	mov    %rax,%rdx
   13cee:	48 8d 05 4b 6c 00 00 	lea    0x6c4b(%rip),%rax        # 1a940 <g_954>
   13cf5:	48 8b 04 02          	mov    (%rdx,%rax,1),%rax
   13cf9:	01 c0                	add    %eax,%eax
   13cfb:	d1 f8                	sar    %eax
   13cfd:	48 98                	cltq   
   13cff:	8b 55 fc             	mov    -0x4(%rbp),%edx
   13d02:	48 8d 35 6a 25 00 00 	lea    0x256a(%rip),%rsi        # 16273 <g_1898+0x1213>
   13d09:	48 89 c7             	mov    %rax,%rdi
   13d0c:	e8 e2 29 ff ff       	callq  66f3 <transparent_crc>
   13d11:	8b 45 f8             	mov    -0x8(%rbp),%eax
   13d14:	48 63 f0             	movslq %eax,%rsi
   13d17:	8b 45 f0             	mov    -0x10(%rbp),%eax
   13d1a:	48 98                	cltq   
   13d1c:	8b 55 f4             	mov    -0xc(%rbp),%edx
   13d1f:	48 63 ca             	movslq %edx,%rcx
   13d22:	48 89 c2             	mov    %rax,%rdx
   13d25:	48 c1 e2 04          	shl    $0x4,%rdx
   13d29:	48 29 c2             	sub    %rax,%rdx
   13d2c:	48 89 c8             	mov    %rcx,%rax
   13d2f:	48 c1 e0 02          	shl    $0x2,%rax
   13d33:	48 01 c8             	add    %rcx,%rax
   13d36:	48 01 d0             	add    %rdx,%rax
   13d39:	48 01 f0             	add    %rsi,%rax
   13d3c:	48 c1 e0 04          	shl    $0x4,%rax
   13d40:	48 89 c2             	mov    %rax,%rdx
   13d43:	48 8d 05 f6 6b 00 00 	lea    0x6bf6(%rip),%rax        # 1a940 <g_954>
   13d4a:	48 8b 04 02          	mov    (%rdx,%rax,1),%rax
   13d4e:	48 c1 e0 08          	shl    $0x8,%rax
   13d52:	48 c1 f8 28          	sar    $0x28,%rax
   13d56:	48 98                	cltq   
   13d58:	8b 55 fc             	mov    -0x4(%rbp),%edx
   13d5b:	48 8d 35 23 25 00 00 	lea    0x2523(%rip),%rsi        # 16285 <g_1898+0x1225>
   13d62:	48 89 c7             	mov    %rax,%rdi
   13d65:	e8 89 29 ff ff       	callq  66f3 <transparent_crc>
   13d6a:	8b 45 f8             	mov    -0x8(%rbp),%eax
   13d6d:	48 63 f0             	movslq %eax,%rsi
   13d70:	8b 45 f0             	mov    -0x10(%rbp),%eax
   13d73:	48 98                	cltq   
   13d75:	8b 55 f4             	mov    -0xc(%rbp),%edx
   13d78:	48 63 ca             	movslq %edx,%rcx
   13d7b:	48 89 c2             	mov    %rax,%rdx
   13d7e:	48 c1 e2 04          	shl    $0x4,%rdx
   13d82:	48 29 c2             	sub    %rax,%rdx
   13d85:	48 89 c8             	mov    %rcx,%rax
   13d88:	48 c1 e0 02          	shl    $0x2,%rax
   13d8c:	48 01 c8             	add    %rcx,%rax
   13d8f:	48 01 d0             	add    %rdx,%rax
   13d92:	48 01 f0             	add    %rsi,%rax
   13d95:	48 c1 e0 04          	shl    $0x4,%rax
   13d99:	48 89 c2             	mov    %rax,%rdx
   13d9c:	48 8d 05 9d 6b 00 00 	lea    0x6b9d(%rip),%rax        # 1a940 <g_954>
   13da3:	8b 44 02 08          	mov    0x8(%rdx,%rax,1),%eax
   13da7:	c1 e0 06             	shl    $0x6,%eax
   13daa:	c1 f8 06             	sar    $0x6,%eax
   13dad:	48 98                	cltq   
   13daf:	8b 55 fc             	mov    -0x4(%rbp),%edx
   13db2:	48 8d 35 de 24 00 00 	lea    0x24de(%rip),%rsi        # 16297 <g_1898+0x1237>
   13db9:	48 89 c7             	mov    %rax,%rdi
   13dbc:	e8 32 29 ff ff       	callq  66f3 <transparent_crc>
   13dc1:	8b 45 f8             	mov    -0x8(%rbp),%eax
   13dc4:	48 63 f0             	movslq %eax,%rsi
   13dc7:	8b 45 f0             	mov    -0x10(%rbp),%eax
   13dca:	48 98                	cltq   
   13dcc:	8b 55 f4             	mov    -0xc(%rbp),%edx
   13dcf:	48 63 ca             	movslq %edx,%rcx
   13dd2:	48 89 c2             	mov    %rax,%rdx
   13dd5:	48 c1 e2 04          	shl    $0x4,%rdx
   13dd9:	48 29 c2             	sub    %rax,%rdx
   13ddc:	48 89 c8             	mov    %rcx,%rax
   13ddf:	48 c1 e0 02          	shl    $0x2,%rax
   13de3:	48 01 c8             	add    %rcx,%rax
   13de6:	48 01 d0             	add    %rdx,%rax
   13de9:	48 01 f0             	add    %rsi,%rax
   13dec:	48 c1 e0 04          	shl    $0x4,%rax
   13df0:	48 89 c2             	mov    %rax,%rdx
   13df3:	48 8d 05 46 6b 00 00 	lea    0x6b46(%rip),%rax        # 1a940 <g_954>
   13dfa:	8b 44 02 0c          	mov    0xc(%rdx,%rax,1),%eax
   13dfe:	25 ff ff ff 3f       	and    $0x3fffffff,%eax
   13e03:	89 c1                	mov    %eax,%ecx
   13e05:	8b 45 fc             	mov    -0x4(%rbp),%eax
   13e08:	89 c2                	mov    %eax,%edx
   13e0a:	48 8d 35 98 24 00 00 	lea    0x2498(%rip),%rsi        # 162a9 <g_1898+0x1249>
   13e11:	48 89 cf             	mov    %rcx,%rdi
   13e14:	e8 da 28 ff ff       	callq  66f3 <transparent_crc>
   13e19:	83 7d fc 00          	cmpl   $0x0,-0x4(%rbp)
   13e1d:	74 1c                	je     13e3b <main+0xb7d>
   13e1f:	8b 4d f8             	mov    -0x8(%rbp),%ecx
   13e22:	8b 55 f4             	mov    -0xc(%rbp),%edx
   13e25:	8b 45 f0             	mov    -0x10(%rbp),%eax
   13e28:	89 c6                	mov    %eax,%esi
   13e2a:	48 8d 3d 15 23 00 00 	lea    0x2315(%rip),%rdi        # 16146 <g_1898+0x10e6>
   13e31:	b8 00 00 00 00       	mov    $0x0,%eax
   13e36:	e8 45 12 ff ff       	callq  5080 <printf@plt>
   13e3b:	83 45 f8 01          	addl   $0x1,-0x8(%rbp)
   13e3f:	83 7d f8 04          	cmpl   $0x4,-0x8(%rbp)
   13e43:	0f 8e 73 fe ff ff    	jle    13cbc <main+0x9fe>
   13e49:	83 45 f4 01          	addl   $0x1,-0xc(%rbp)
   13e4d:	83 7d f4 02          	cmpl   $0x2,-0xc(%rbp)
   13e51:	0f 8e 59 fe ff ff    	jle    13cb0 <main+0x9f2>
   13e57:	83 45 f0 01          	addl   $0x1,-0x10(%rbp)
   13e5b:	83 7d f0 04          	cmpl   $0x4,-0x10(%rbp)
   13e5f:	0f 8e 3f fe ff ff    	jle    13ca4 <main+0x9e6>
   13e65:	8b 05 85 6f 00 00    	mov    0x6f85(%rip),%eax        # 1adf0 <g_994>
   13e6b:	89 c1                	mov    %eax,%ecx
   13e6d:	8b 45 fc             	mov    -0x4(%rbp),%eax
   13e70:	89 c2                	mov    %eax,%edx
   13e72:	48 8d 35 42 24 00 00 	lea    0x2442(%rip),%rsi        # 162bb <g_1898+0x125b>
   13e79:	48 89 cf             	mov    %rcx,%rdi
   13e7c:	e8 72 28 ff ff       	callq  66f3 <transparent_crc>
   13e81:	8b 05 6d 6f 00 00    	mov    0x6f6d(%rip),%eax        # 1adf4 <g_1132>
   13e87:	48 98                	cltq   
   13e89:	8b 55 fc             	mov    -0x4(%rbp),%edx
   13e8c:	48 8d 35 2e 24 00 00 	lea    0x242e(%rip),%rsi        # 162c1 <g_1898+0x1261>
   13e93:	48 89 c7             	mov    %rax,%rdi
   13e96:	e8 58 28 ff ff       	callq  66f3 <transparent_crc>
   13e9b:	c7 45 f0 00 00 00 00 	movl   $0x0,-0x10(%rbp)
   13ea2:	eb 4a                	jmp    13eee <main+0xc30>
   13ea4:	8b 45 f0             	mov    -0x10(%rbp),%eax
   13ea7:	48 98                	cltq   
   13ea9:	48 8d 14 c5 00 00 00 	lea    0x0(,%rax,8),%rdx
   13eb0:	00 
   13eb1:	48 8d 05 48 6f 00 00 	lea    0x6f48(%rip),%rax        # 1ae00 <g_1155>
   13eb8:	48 8b 04 02          	mov    (%rdx,%rax,1),%rax
   13ebc:	8b 55 fc             	mov    -0x4(%rbp),%edx
   13ebf:	48 8d 35 02 24 00 00 	lea    0x2402(%rip),%rsi        # 162c8 <g_1898+0x1268>
   13ec6:	48 89 c7             	mov    %rax,%rdi
   13ec9:	e8 25 28 ff ff       	callq  66f3 <transparent_crc>
   13ece:	83 7d fc 00          	cmpl   $0x0,-0x4(%rbp)
   13ed2:	74 16                	je     13eea <main+0xc2c>
   13ed4:	8b 45 f0             	mov    -0x10(%rbp),%eax
   13ed7:	89 c6                	mov    %eax,%esi
   13ed9:	48 8d 3d d0 21 00 00 	lea    0x21d0(%rip),%rdi        # 160b0 <g_1898+0x1050>
   13ee0:	b8 00 00 00 00       	mov    $0x0,%eax
   13ee5:	e8 96 11 ff ff       	callq  5080 <printf@plt>
   13eea:	83 45 f0 01          	addl   $0x1,-0x10(%rbp)
   13eee:	83 7d f0 08          	cmpl   $0x8,-0x10(%rbp)
   13ef2:	7e b0                	jle    13ea4 <main+0xbe6>
   13ef4:	48 8b 05 55 6f 00 00 	mov    0x6f55(%rip),%rax        # 1ae50 <g_1162>
   13efb:	01 c0                	add    %eax,%eax
   13efd:	d1 f8                	sar    %eax
   13eff:	48 98                	cltq   
   13f01:	8b 55 fc             	mov    -0x4(%rbp),%edx
   13f04:	48 8d 35 c7 23 00 00 	lea    0x23c7(%rip),%rsi        # 162d2 <g_1898+0x1272>
   13f0b:	48 89 c7             	mov    %rax,%rdi
   13f0e:	e8 e0 27 ff ff       	callq  66f3 <transparent_crc>
   13f13:	48 8b 05 36 6f 00 00 	mov    0x6f36(%rip),%rax        # 1ae50 <g_1162>
   13f1a:	48 c1 e0 08          	shl    $0x8,%rax
   13f1e:	48 c1 f8 28          	sar    $0x28,%rax
   13f22:	48 98                	cltq   
   13f24:	8b 55 fc             	mov    -0x4(%rbp),%edx
   13f27:	48 8d 35 ae 23 00 00 	lea    0x23ae(%rip),%rsi        # 162dc <g_1898+0x127c>
   13f2e:	48 89 c7             	mov    %rax,%rdi
   13f31:	e8 bd 27 ff ff       	callq  66f3 <transparent_crc>
   13f36:	8b 05 1c 6f 00 00    	mov    0x6f1c(%rip),%eax        # 1ae58 <g_1162+0x8>
   13f3c:	c1 e0 06             	shl    $0x6,%eax
   13f3f:	c1 f8 06             	sar    $0x6,%eax
   13f42:	48 98                	cltq   
   13f44:	8b 55 fc             	mov    -0x4(%rbp),%edx
   13f47:	48 8d 35 98 23 00 00 	lea    0x2398(%rip),%rsi        # 162e6 <g_1898+0x1286>
   13f4e:	48 89 c7             	mov    %rax,%rdi
   13f51:	e8 9d 27 ff ff       	callq  66f3 <transparent_crc>
   13f56:	8b 05 00 6f 00 00    	mov    0x6f00(%rip),%eax        # 1ae5c <g_1162+0xc>
   13f5c:	25 ff ff ff 3f       	and    $0x3fffffff,%eax
   13f61:	89 c1                	mov    %eax,%ecx
   13f63:	8b 45 fc             	mov    -0x4(%rbp),%eax
   13f66:	89 c2                	mov    %eax,%edx
   13f68:	48 8d 35 81 23 00 00 	lea    0x2381(%rip),%rsi        # 162f0 <g_1898+0x1290>
   13f6f:	48 89 cf             	mov    %rcx,%rdi
   13f72:	e8 7c 27 ff ff       	callq  66f3 <transparent_crc>
   13f77:	48 8b 05 e2 6e 00 00 	mov    0x6ee2(%rip),%rax        # 1ae60 <g_1181>
   13f7e:	01 c0                	add    %eax,%eax
   13f80:	d1 f8                	sar    %eax
   13f82:	48 98                	cltq   
   13f84:	8b 55 fc             	mov    -0x4(%rbp),%edx
   13f87:	48 8d 35 6c 23 00 00 	lea    0x236c(%rip),%rsi        # 162fa <g_1898+0x129a>
   13f8e:	48 89 c7             	mov    %rax,%rdi
   13f91:	e8 5d 27 ff ff       	callq  66f3 <transparent_crc>
   13f96:	48 8b 05 c3 6e 00 00 	mov    0x6ec3(%rip),%rax        # 1ae60 <g_1181>
   13f9d:	48 c1 e0 08          	shl    $0x8,%rax
   13fa1:	48 c1 f8 28          	sar    $0x28,%rax
   13fa5:	48 98                	cltq   
   13fa7:	8b 55 fc             	mov    -0x4(%rbp),%edx
   13faa:	48 8d 35 53 23 00 00 	lea    0x2353(%rip),%rsi        # 16304 <g_1898+0x12a4>
   13fb1:	48 89 c7             	mov    %rax,%rdi
   13fb4:	e8 3a 27 ff ff       	callq  66f3 <transparent_crc>
   13fb9:	48 8b 05 a8 6e 00 00 	mov    0x6ea8(%rip),%rax        # 1ae68 <g_1181+0x8>
   13fc0:	c1 e0 06             	shl    $0x6,%eax
   13fc3:	c1 f8 06             	sar    $0x6,%eax
   13fc6:	48 98                	cltq   
   13fc8:	8b 55 fc             	mov    -0x4(%rbp),%edx
   13fcb:	48 8d 35 3c 23 00 00 	lea    0x233c(%rip),%rsi        # 1630e <g_1898+0x12ae>
   13fd2:	48 89 c7             	mov    %rax,%rdi
   13fd5:	e8 19 27 ff ff       	callq  66f3 <transparent_crc>
   13fda:	48 8b 05 87 6e 00 00 	mov    0x6e87(%rip),%rax        # 1ae68 <g_1181+0x8>
   13fe1:	48 c1 e8 20          	shr    $0x20,%rax
   13fe5:	25 ff ff ff 3f       	and    $0x3fffffff,%eax
   13fea:	89 c1                	mov    %eax,%ecx
   13fec:	8b 45 fc             	mov    -0x4(%rbp),%eax
   13fef:	89 c2                	mov    %eax,%edx
   13ff1:	48 8d 35 20 23 00 00 	lea    0x2320(%rip),%rsi        # 16318 <g_1898+0x12b8>
   13ff8:	48 89 cf             	mov    %rcx,%rdi
   13ffb:	e8 f3 26 ff ff       	callq  66f3 <transparent_crc>
   14000:	48 8b 05 69 6e 00 00 	mov    0x6e69(%rip),%rax        # 1ae70 <g_1245>
   14007:	01 c0                	add    %eax,%eax
   14009:	d1 f8                	sar    %eax
   1400b:	48 98                	cltq   
   1400d:	8b 55 fc             	mov    -0x4(%rbp),%edx
   14010:	48 8d 35 0b 23 00 00 	lea    0x230b(%rip),%rsi        # 16322 <g_1898+0x12c2>
   14017:	48 89 c7             	mov    %rax,%rdi
   1401a:	e8 d4 26 ff ff       	callq  66f3 <transparent_crc>
   1401f:	48 8b 05 4a 6e 00 00 	mov    0x6e4a(%rip),%rax        # 1ae70 <g_1245>
   14026:	48 c1 e0 08          	shl    $0x8,%rax
   1402a:	48 c1 f8 28          	sar    $0x28,%rax
   1402e:	48 98                	cltq   
   14030:	8b 55 fc             	mov    -0x4(%rbp),%edx
   14033:	48 8d 35 f2 22 00 00 	lea    0x22f2(%rip),%rsi        # 1632c <g_1898+0x12cc>
   1403a:	48 89 c7             	mov    %rax,%rdi
   1403d:	e8 b1 26 ff ff       	callq  66f3 <transparent_crc>
   14042:	8b 05 30 6e 00 00    	mov    0x6e30(%rip),%eax        # 1ae78 <g_1245+0x8>
   14048:	c1 e0 06             	shl    $0x6,%eax
   1404b:	c1 f8 06             	sar    $0x6,%eax
   1404e:	48 98                	cltq   
   14050:	8b 55 fc             	mov    -0x4(%rbp),%edx
   14053:	48 8d 35 dc 22 00 00 	lea    0x22dc(%rip),%rsi        # 16336 <g_1898+0x12d6>
   1405a:	48 89 c7             	mov    %rax,%rdi
   1405d:	e8 91 26 ff ff       	callq  66f3 <transparent_crc>
   14062:	8b 05 14 6e 00 00    	mov    0x6e14(%rip),%eax        # 1ae7c <g_1245+0xc>
   14068:	25 ff ff ff 3f       	and    $0x3fffffff,%eax
   1406d:	89 c1                	mov    %eax,%ecx
   1406f:	8b 45 fc             	mov    -0x4(%rbp),%eax
   14072:	89 c2                	mov    %eax,%edx
   14074:	48 8d 35 c5 22 00 00 	lea    0x22c5(%rip),%rsi        # 16340 <g_1898+0x12e0>
   1407b:	48 89 cf             	mov    %rcx,%rdi
   1407e:	e8 70 26 ff ff       	callq  66f3 <transparent_crc>
   14083:	48 8b 05 f6 6d 00 00 	mov    0x6df6(%rip),%rax        # 1ae80 <g_1292>
   1408a:	01 c0                	add    %eax,%eax
   1408c:	d1 f8                	sar    %eax
   1408e:	48 98                	cltq   
   14090:	8b 55 fc             	mov    -0x4(%rbp),%edx
   14093:	48 8d 35 b0 22 00 00 	lea    0x22b0(%rip),%rsi        # 1634a <g_1898+0x12ea>
   1409a:	48 89 c7             	mov    %rax,%rdi
   1409d:	e8 51 26 ff ff       	callq  66f3 <transparent_crc>
   140a2:	48 8b 05 d7 6d 00 00 	mov    0x6dd7(%rip),%rax        # 1ae80 <g_1292>
   140a9:	48 c1 e0 08          	shl    $0x8,%rax
   140ad:	48 c1 f8 28          	sar    $0x28,%rax
   140b1:	48 98                	cltq   
   140b3:	8b 55 fc             	mov    -0x4(%rbp),%edx
   140b6:	48 8d 35 97 22 00 00 	lea    0x2297(%rip),%rsi        # 16354 <g_1898+0x12f4>
   140bd:	48 89 c7             	mov    %rax,%rdi
   140c0:	e8 2e 26 ff ff       	callq  66f3 <transparent_crc>
   140c5:	48 8b 05 bc 6d 00 00 	mov    0x6dbc(%rip),%rax        # 1ae88 <g_1292+0x8>
   140cc:	c1 e0 06             	shl    $0x6,%eax
   140cf:	c1 f8 06             	sar    $0x6,%eax
   140d2:	48 98                	cltq   
   140d4:	8b 55 fc             	mov    -0x4(%rbp),%edx
   140d7:	48 8d 35 80 22 00 00 	lea    0x2280(%rip),%rsi        # 1635e <g_1898+0x12fe>
   140de:	48 89 c7             	mov    %rax,%rdi
   140e1:	e8 0d 26 ff ff       	callq  66f3 <transparent_crc>
   140e6:	48 8b 05 9b 6d 00 00 	mov    0x6d9b(%rip),%rax        # 1ae88 <g_1292+0x8>
   140ed:	48 c1 e8 20          	shr    $0x20,%rax
   140f1:	25 ff ff ff 3f       	and    $0x3fffffff,%eax
   140f6:	89 c1                	mov    %eax,%ecx
   140f8:	8b 45 fc             	mov    -0x4(%rbp),%eax
   140fb:	89 c2                	mov    %eax,%edx
   140fd:	48 8d 35 64 22 00 00 	lea    0x2264(%rip),%rsi        # 16368 <g_1898+0x1308>
   14104:	48 89 cf             	mov    %rcx,%rdi
   14107:	e8 e7 25 ff ff       	callq  66f3 <transparent_crc>
   1410c:	8b 05 7e 6d 00 00    	mov    0x6d7e(%rip),%eax        # 1ae90 <g_1341>
   14112:	48 98                	cltq   
   14114:	8b 55 fc             	mov    -0x4(%rbp),%edx
   14117:	48 8d 35 54 22 00 00 	lea    0x2254(%rip),%rsi        # 16372 <g_1898+0x1312>
   1411e:	48 89 c7             	mov    %rax,%rdi
   14121:	e8 cd 25 ff ff       	callq  66f3 <transparent_crc>
   14126:	0f b7 05 83 8e 00 00 	movzwl 0x8e83(%rip),%eax        # 1cfb0 <g_1395>
   1412d:	48 0f bf c0          	movswq %ax,%rax
   14131:	8b 55 fc             	mov    -0x4(%rbp),%edx
   14134:	48 8d 35 3e 22 00 00 	lea    0x223e(%rip),%rsi        # 16379 <g_1898+0x1319>
   1413b:	48 89 c7             	mov    %rax,%rdi
   1413e:	e8 b0 25 ff ff       	callq  66f3 <transparent_crc>
   14143:	0f b6 05 4a 6d 00 00 	movzbl 0x6d4a(%rip),%eax        # 1ae94 <g_1412>
   1414a:	48 0f be c0          	movsbq %al,%rax
   1414e:	8b 55 fc             	mov    -0x4(%rbp),%edx
   14151:	48 8d 35 28 22 00 00 	lea    0x2228(%rip),%rsi        # 16380 <g_1898+0x1320>
   14158:	48 89 c7             	mov    %rax,%rdi
   1415b:	e8 93 25 ff ff       	callq  66f3 <transparent_crc>
   14160:	48 8b 05 39 6d 00 00 	mov    0x6d39(%rip),%rax        # 1aea0 <g_1454>
   14167:	01 c0                	add    %eax,%eax
   14169:	d1 f8                	sar    %eax
   1416b:	48 98                	cltq   
   1416d:	8b 55 fc             	mov    -0x4(%rbp),%edx
   14170:	48 8d 35 10 22 00 00 	lea    0x2210(%rip),%rsi        # 16387 <g_1898+0x1327>
   14177:	48 89 c7             	mov    %rax,%rdi
   1417a:	e8 74 25 ff ff       	callq  66f3 <transparent_crc>
   1417f:	48 8b 05 1a 6d 00 00 	mov    0x6d1a(%rip),%rax        # 1aea0 <g_1454>
   14186:	48 c1 e0 08          	shl    $0x8,%rax
   1418a:	48 c1 f8 28          	sar    $0x28,%rax
   1418e:	48 98                	cltq   
   14190:	8b 55 fc             	mov    -0x4(%rbp),%edx
   14193:	48 8d 35 f7 21 00 00 	lea    0x21f7(%rip),%rsi        # 16391 <g_1898+0x1331>
   1419a:	48 89 c7             	mov    %rax,%rdi
   1419d:	e8 51 25 ff ff       	callq  66f3 <transparent_crc>
   141a2:	48 8b 05 ff 6c 00 00 	mov    0x6cff(%rip),%rax        # 1aea8 <g_1454+0x8>
   141a9:	c1 e0 06             	shl    $0x6,%eax
   141ac:	c1 f8 06             	sar    $0x6,%eax
   141af:	48 98                	cltq   
   141b1:	8b 55 fc             	mov    -0x4(%rbp),%edx
   141b4:	48 8d 35 e0 21 00 00 	lea    0x21e0(%rip),%rsi        # 1639b <g_1898+0x133b>
   141bb:	48 89 c7             	mov    %rax,%rdi
   141be:	e8 30 25 ff ff       	callq  66f3 <transparent_crc>
   141c3:	48 8b 05 de 6c 00 00 	mov    0x6cde(%rip),%rax        # 1aea8 <g_1454+0x8>
   141ca:	48 c1 e8 20          	shr    $0x20,%rax
   141ce:	25 ff ff ff 3f       	and    $0x3fffffff,%eax
   141d3:	89 c1                	mov    %eax,%ecx
   141d5:	8b 45 fc             	mov    -0x4(%rbp),%eax
   141d8:	89 c2                	mov    %eax,%edx
   141da:	48 8d 35 c4 21 00 00 	lea    0x21c4(%rip),%rsi        # 163a5 <g_1898+0x1345>
   141e1:	48 89 cf             	mov    %rcx,%rdi
   141e4:	e8 0a 25 ff ff       	callq  66f3 <transparent_crc>
   141e9:	48 8b 05 c0 6c 00 00 	mov    0x6cc0(%rip),%rax        # 1aeb0 <g_1457>
   141f0:	01 c0                	add    %eax,%eax
   141f2:	d1 f8                	sar    %eax
   141f4:	48 98                	cltq   
   141f6:	8b 55 fc             	mov    -0x4(%rbp),%edx
   141f9:	48 8d 35 af 21 00 00 	lea    0x21af(%rip),%rsi        # 163af <g_1898+0x134f>
   14200:	48 89 c7             	mov    %rax,%rdi
   14203:	e8 eb 24 ff ff       	callq  66f3 <transparent_crc>
   14208:	48 8b 05 a1 6c 00 00 	mov    0x6ca1(%rip),%rax        # 1aeb0 <g_1457>
   1420f:	48 c1 e0 08          	shl    $0x8,%rax
   14213:	48 c1 f8 28          	sar    $0x28,%rax
   14217:	48 98                	cltq   
   14219:	8b 55 fc             	mov    -0x4(%rbp),%edx
   1421c:	48 8d 35 96 21 00 00 	lea    0x2196(%rip),%rsi        # 163b9 <g_1898+0x1359>
   14223:	48 89 c7             	mov    %rax,%rdi
   14226:	e8 c8 24 ff ff       	callq  66f3 <transparent_crc>
   1422b:	8b 05 87 6c 00 00    	mov    0x6c87(%rip),%eax        # 1aeb8 <g_1457+0x8>
   14231:	c1 e0 06             	shl    $0x6,%eax
   14234:	c1 f8 06             	sar    $0x6,%eax
   14237:	48 98                	cltq   
   14239:	8b 55 fc             	mov    -0x4(%rbp),%edx
   1423c:	48 8d 35 80 21 00 00 	lea    0x2180(%rip),%rsi        # 163c3 <g_1898+0x1363>
   14243:	48 89 c7             	mov    %rax,%rdi
   14246:	e8 a8 24 ff ff       	callq  66f3 <transparent_crc>
   1424b:	8b 05 6b 6c 00 00    	mov    0x6c6b(%rip),%eax        # 1aebc <g_1457+0xc>
   14251:	25 ff ff ff 3f       	and    $0x3fffffff,%eax
   14256:	89 c1                	mov    %eax,%ecx
   14258:	8b 45 fc             	mov    -0x4(%rbp),%eax
   1425b:	89 c2                	mov    %eax,%edx
   1425d:	48 8d 35 69 21 00 00 	lea    0x2169(%rip),%rsi        # 163cd <g_1898+0x136d>
   14264:	48 89 cf             	mov    %rcx,%rdi
   14267:	e8 87 24 ff ff       	callq  66f3 <transparent_crc>
   1426c:	48 8b 05 4d 6c 00 00 	mov    0x6c4d(%rip),%rax        # 1aec0 <g_1554>
   14273:	01 c0                	add    %eax,%eax
   14275:	d1 f8                	sar    %eax
   14277:	48 98                	cltq   
   14279:	8b 55 fc             	mov    -0x4(%rbp),%edx
   1427c:	48 8d 35 54 21 00 00 	lea    0x2154(%rip),%rsi        # 163d7 <g_1898+0x1377>
   14283:	48 89 c7             	mov    %rax,%rdi
   14286:	e8 68 24 ff ff       	callq  66f3 <transparent_crc>
   1428b:	48 8b 05 2e 6c 00 00 	mov    0x6c2e(%rip),%rax        # 1aec0 <g_1554>
   14292:	48 c1 e0 08          	shl    $0x8,%rax
   14296:	48 c1 f8 28          	sar    $0x28,%rax
   1429a:	48 98                	cltq   
   1429c:	8b 55 fc             	mov    -0x4(%rbp),%edx
   1429f:	48 8d 35 3b 21 00 00 	lea    0x213b(%rip),%rsi        # 163e1 <g_1898+0x1381>
   142a6:	48 89 c7             	mov    %rax,%rdi
   142a9:	e8 45 24 ff ff       	callq  66f3 <transparent_crc>
   142ae:	8b 05 14 6c 00 00    	mov    0x6c14(%rip),%eax        # 1aec8 <g_1554+0x8>
   142b4:	c1 e0 06             	shl    $0x6,%eax
   142b7:	c1 f8 06             	sar    $0x6,%eax
   142ba:	48 98                	cltq   
   142bc:	8b 55 fc             	mov    -0x4(%rbp),%edx
   142bf:	48 8d 35 25 21 00 00 	lea    0x2125(%rip),%rsi        # 163eb <g_1898+0x138b>
   142c6:	48 89 c7             	mov    %rax,%rdi
   142c9:	e8 25 24 ff ff       	callq  66f3 <transparent_crc>
   142ce:	8b 05 f8 6b 00 00    	mov    0x6bf8(%rip),%eax        # 1aecc <g_1554+0xc>
   142d4:	25 ff ff ff 3f       	and    $0x3fffffff,%eax
   142d9:	89 c1                	mov    %eax,%ecx
   142db:	8b 45 fc             	mov    -0x4(%rbp),%eax
   142de:	89 c2                	mov    %eax,%edx
   142e0:	48 8d 35 0e 21 00 00 	lea    0x210e(%rip),%rsi        # 163f5 <g_1898+0x1395>
   142e7:	48 89 cf             	mov    %rcx,%rdi
   142ea:	e8 04 24 ff ff       	callq  66f3 <transparent_crc>
   142ef:	c7 45 f0 00 00 00 00 	movl   $0x0,-0x10(%rbp)
   142f6:	eb 49                	jmp    14341 <main+0x1083>
   142f8:	8b 45 f0             	mov    -0x10(%rbp),%eax
   142fb:	48 98                	cltq   
   142fd:	48 8d 14 00          	lea    (%rax,%rax,1),%rdx
   14301:	48 8d 05 c8 6b 00 00 	lea    0x6bc8(%rip),%rax        # 1aed0 <g_1571>
   14308:	0f b7 04 02          	movzwl (%rdx,%rax,1),%eax
   1430c:	0f b7 c0             	movzwl %ax,%eax
   1430f:	8b 55 fc             	mov    -0x4(%rbp),%edx
   14312:	48 8d 35 e6 20 00 00 	lea    0x20e6(%rip),%rsi        # 163ff <g_1898+0x139f>
   14319:	48 89 c7             	mov    %rax,%rdi
   1431c:	e8 d2 23 ff ff       	callq  66f3 <transparent_crc>
   14321:	83 7d fc 00          	cmpl   $0x0,-0x4(%rbp)
   14325:	74 16                	je     1433d <main+0x107f>
   14327:	8b 45 f0             	mov    -0x10(%rbp),%eax
   1432a:	89 c6                	mov    %eax,%esi
   1432c:	48 8d 3d 7d 1d 00 00 	lea    0x1d7d(%rip),%rdi        # 160b0 <g_1898+0x1050>
   14333:	b8 00 00 00 00       	mov    $0x0,%eax
   14338:	e8 43 0d ff ff       	callq  5080 <printf@plt>
   1433d:	83 45 f0 01          	addl   $0x1,-0x10(%rbp)
   14341:	83 7d f0 06          	cmpl   $0x6,-0x10(%rbp)
   14345:	7e b1                	jle    142f8 <main+0x103a>
   14347:	48 8b 05 92 6b 00 00 	mov    0x6b92(%rip),%rax        # 1aee0 <g_1593>
   1434e:	01 c0                	add    %eax,%eax
   14350:	d1 f8                	sar    %eax
   14352:	48 98                	cltq   
   14354:	8b 55 fc             	mov    -0x4(%rbp),%edx
   14357:	48 8d 35 ab 20 00 00 	lea    0x20ab(%rip),%rsi        # 16409 <g_1898+0x13a9>
   1435e:	48 89 c7             	mov    %rax,%rdi
   14361:	e8 8d 23 ff ff       	callq  66f3 <transparent_crc>
   14366:	48 8b 05 73 6b 00 00 	mov    0x6b73(%rip),%rax        # 1aee0 <g_1593>
   1436d:	48 c1 e0 08          	shl    $0x8,%rax
   14371:	48 c1 f8 28          	sar    $0x28,%rax
   14375:	48 98                	cltq   
   14377:	8b 55 fc             	mov    -0x4(%rbp),%edx
   1437a:	48 8d 35 92 20 00 00 	lea    0x2092(%rip),%rsi        # 16413 <g_1898+0x13b3>
   14381:	48 89 c7             	mov    %rax,%rdi
   14384:	e8 6a 23 ff ff       	callq  66f3 <transparent_crc>
   14389:	48 8b 05 58 6b 00 00 	mov    0x6b58(%rip),%rax        # 1aee8 <g_1593+0x8>
   14390:	c1 e0 06             	shl    $0x6,%eax
   14393:	c1 f8 06             	sar    $0x6,%eax
   14396:	48 98                	cltq   
   14398:	8b 55 fc             	mov    -0x4(%rbp),%edx
   1439b:	48 8d 35 7b 20 00 00 	lea    0x207b(%rip),%rsi        # 1641d <g_1898+0x13bd>
   143a2:	48 89 c7             	mov    %rax,%rdi
   143a5:	e8 49 23 ff ff       	callq  66f3 <transparent_crc>
   143aa:	48 8b 05 37 6b 00 00 	mov    0x6b37(%rip),%rax        # 1aee8 <g_1593+0x8>
   143b1:	48 c1 e8 20          	shr    $0x20,%rax
   143b5:	25 ff ff ff 3f       	and    $0x3fffffff,%eax
   143ba:	89 c1                	mov    %eax,%ecx
   143bc:	8b 45 fc             	mov    -0x4(%rbp),%eax
   143bf:	89 c2                	mov    %eax,%edx
   143c1:	48 8d 35 5f 20 00 00 	lea    0x205f(%rip),%rsi        # 16427 <g_1898+0x13c7>
   143c8:	48 89 cf             	mov    %rcx,%rdi
   143cb:	e8 23 23 ff ff       	callq  66f3 <transparent_crc>
   143d0:	48 8b 05 19 6b 00 00 	mov    0x6b19(%rip),%rax        # 1aef0 <g_1709>
   143d7:	48 89 c1             	mov    %rax,%rcx
   143da:	8b 45 fc             	mov    -0x4(%rbp),%eax
   143dd:	89 c2                	mov    %eax,%edx
   143df:	48 8d 35 4b 20 00 00 	lea    0x204b(%rip),%rsi        # 16431 <g_1898+0x13d1>
   143e6:	48 89 cf             	mov    %rcx,%rdi
   143e9:	e8 05 23 ff ff       	callq  66f3 <transparent_crc>
   143ee:	48 8b 05 03 6b 00 00 	mov    0x6b03(%rip),%rax        # 1aef8 <g_1782>
   143f5:	8b 55 fc             	mov    -0x4(%rbp),%edx
   143f8:	48 8d 35 39 20 00 00 	lea    0x2039(%rip),%rsi        # 16438 <g_1898+0x13d8>
   143ff:	48 89 c7             	mov    %rax,%rdi
   14402:	e8 ec 22 ff ff       	callq  66f3 <transparent_crc>
   14407:	48 8b 05 f2 6a 00 00 	mov    0x6af2(%rip),%rax        # 1af00 <g_1830>
   1440e:	01 c0                	add    %eax,%eax
   14410:	d1 f8                	sar    %eax
   14412:	48 98                	cltq   
   14414:	8b 55 fc             	mov    -0x4(%rbp),%edx
   14417:	48 8d 35 21 20 00 00 	lea    0x2021(%rip),%rsi        # 1643f <g_1898+0x13df>
   1441e:	48 89 c7             	mov    %rax,%rdi
   14421:	e8 cd 22 ff ff       	callq  66f3 <transparent_crc>
   14426:	48 8b 05 d3 6a 00 00 	mov    0x6ad3(%rip),%rax        # 1af00 <g_1830>
   1442d:	48 c1 e0 08          	shl    $0x8,%rax
   14431:	48 c1 f8 28          	sar    $0x28,%rax
   14435:	48 98                	cltq   
   14437:	8b 55 fc             	mov    -0x4(%rbp),%edx
   1443a:	48 8d 35 08 20 00 00 	lea    0x2008(%rip),%rsi        # 16449 <g_1898+0x13e9>
   14441:	48 89 c7             	mov    %rax,%rdi
   14444:	e8 aa 22 ff ff       	callq  66f3 <transparent_crc>
   14449:	8b 05 b9 6a 00 00    	mov    0x6ab9(%rip),%eax        # 1af08 <g_1830+0x8>
   1444f:	c1 e0 06             	shl    $0x6,%eax
   14452:	c1 f8 06             	sar    $0x6,%eax
   14455:	48 98                	cltq   
   14457:	8b 55 fc             	mov    -0x4(%rbp),%edx
   1445a:	48 8d 35 f2 1f 00 00 	lea    0x1ff2(%rip),%rsi        # 16453 <g_1898+0x13f3>
   14461:	48 89 c7             	mov    %rax,%rdi
   14464:	e8 8a 22 ff ff       	callq  66f3 <transparent_crc>
   14469:	8b 05 9d 6a 00 00    	mov    0x6a9d(%rip),%eax        # 1af0c <g_1830+0xc>
   1446f:	25 ff ff ff 3f       	and    $0x3fffffff,%eax
   14474:	89 c1                	mov    %eax,%ecx
   14476:	8b 45 fc             	mov    -0x4(%rbp),%eax
   14479:	89 c2                	mov    %eax,%edx
   1447b:	48 8d 35 db 1f 00 00 	lea    0x1fdb(%rip),%rsi        # 1645d <g_1898+0x13fd>
   14482:	48 89 cf             	mov    %rcx,%rdi
   14485:	e8 69 22 ff ff       	callq  66f3 <transparent_crc>
   1448a:	48 8b 05 7f 6a 00 00 	mov    0x6a7f(%rip),%rax        # 1af10 <g_1866>
   14491:	01 c0                	add    %eax,%eax
   14493:	d1 f8                	sar    %eax
   14495:	48 98                	cltq   
   14497:	8b 55 fc             	mov    -0x4(%rbp),%edx
   1449a:	48 8d 35 c6 1f 00 00 	lea    0x1fc6(%rip),%rsi        # 16467 <g_1898+0x1407>
   144a1:	48 89 c7             	mov    %rax,%rdi
   144a4:	e8 4a 22 ff ff       	callq  66f3 <transparent_crc>
   144a9:	48 8b 05 60 6a 00 00 	mov    0x6a60(%rip),%rax        # 1af10 <g_1866>
   144b0:	48 c1 e0 08          	shl    $0x8,%rax
   144b4:	48 c1 f8 28          	sar    $0x28,%rax
   144b8:	48 98                	cltq   
   144ba:	8b 55 fc             	mov    -0x4(%rbp),%edx
   144bd:	48 8d 35 ad 1f 00 00 	lea    0x1fad(%rip),%rsi        # 16471 <g_1898+0x1411>
   144c4:	48 89 c7             	mov    %rax,%rdi
   144c7:	e8 27 22 ff ff       	callq  66f3 <transparent_crc>
   144cc:	48 8b 05 45 6a 00 00 	mov    0x6a45(%rip),%rax        # 1af18 <g_1866+0x8>
   144d3:	c1 e0 06             	shl    $0x6,%eax
   144d6:	c1 f8 06             	sar    $0x6,%eax
   144d9:	48 98                	cltq   
   144db:	8b 55 fc             	mov    -0x4(%rbp),%edx
   144de:	48 8d 35 96 1f 00 00 	lea    0x1f96(%rip),%rsi        # 1647b <g_1898+0x141b>
   144e5:	48 89 c7             	mov    %rax,%rdi
   144e8:	e8 06 22 ff ff       	callq  66f3 <transparent_crc>
   144ed:	48 8b 05 24 6a 00 00 	mov    0x6a24(%rip),%rax        # 1af18 <g_1866+0x8>
   144f4:	48 c1 e8 20          	shr    $0x20,%rax
   144f8:	25 ff ff ff 3f       	and    $0x3fffffff,%eax
   144fd:	89 c1                	mov    %eax,%ecx
   144ff:	8b 45 fc             	mov    -0x4(%rbp),%eax
   14502:	89 c2                	mov    %eax,%edx
   14504:	48 8d 35 7a 1f 00 00 	lea    0x1f7a(%rip),%rsi        # 16485 <g_1898+0x1425>
   1450b:	48 89 cf             	mov    %rcx,%rdi
   1450e:	e8 e0 21 ff ff       	callq  66f3 <transparent_crc>
   14513:	c7 45 f0 00 00 00 00 	movl   $0x0,-0x10(%rbp)
   1451a:	e9 a1 00 00 00       	jmpq   145c0 <main+0x1302>
   1451f:	c7 45 f4 00 00 00 00 	movl   $0x0,-0xc(%rbp)
   14526:	e9 87 00 00 00       	jmpq   145b2 <main+0x12f4>
   1452b:	c7 45 f8 00 00 00 00 	movl   $0x0,-0x8(%rbp)
   14532:	eb 74                	jmp    145a8 <main+0x12ea>
   14534:	8b 45 f8             	mov    -0x8(%rbp),%eax
   14537:	48 63 c8             	movslq %eax,%rcx
   1453a:	8b 45 f0             	mov    -0x10(%rbp),%eax
   1453d:	48 63 d0             	movslq %eax,%rdx
   14540:	8b 45 f4             	mov    -0xc(%rbp),%eax
   14543:	48 63 f0             	movslq %eax,%rsi
   14546:	48 89 d0             	mov    %rdx,%rax
   14549:	48 c1 e0 03          	shl    $0x3,%rax
   1454d:	48 29 d0             	sub    %rdx,%rax
   14550:	48 01 f0             	add    %rsi,%rax
   14553:	48 c1 e0 02          	shl    $0x2,%rax
   14557:	48 01 c8             	add    %rcx,%rax
   1455a:	48 8d 14 85 00 00 00 	lea    0x0(,%rax,4),%rdx
   14561:	00 
   14562:	48 8d 05 f7 0a 00 00 	lea    0xaf7(%rip),%rax        # 15060 <g_1898>
   14569:	8b 04 02             	mov    (%rdx,%rax,1),%eax
   1456c:	89 c1                	mov    %eax,%ecx
   1456e:	8b 45 fc             	mov    -0x4(%rbp),%eax
   14571:	89 c2                	mov    %eax,%edx
   14573:	48 8d 35 15 1f 00 00 	lea    0x1f15(%rip),%rsi        # 1648f <g_1898+0x142f>
   1457a:	48 89 cf             	mov    %rcx,%rdi
   1457d:	e8 71 21 ff ff       	callq  66f3 <transparent_crc>
   14582:	83 7d fc 00          	cmpl   $0x0,-0x4(%rbp)
   14586:	74 1c                	je     145a4 <main+0x12e6>
   14588:	8b 4d f8             	mov    -0x8(%rbp),%ecx
   1458b:	8b 55 f4             	mov    -0xc(%rbp),%edx
   1458e:	8b 45 f0             	mov    -0x10(%rbp),%eax
   14591:	89 c6                	mov    %eax,%esi
   14593:	48 8d 3d ac 1b 00 00 	lea    0x1bac(%rip),%rdi        # 16146 <g_1898+0x10e6>
   1459a:	b8 00 00 00 00       	mov    $0x0,%eax
   1459f:	e8 dc 0a ff ff       	callq  5080 <printf@plt>
   145a4:	83 45 f8 01          	addl   $0x1,-0x8(%rbp)
   145a8:	83 7d f8 03          	cmpl   $0x3,-0x8(%rbp)
   145ac:	7e 86                	jle    14534 <main+0x1276>
   145ae:	83 45 f4 01          	addl   $0x1,-0xc(%rbp)
   145b2:	83 7d f4 06          	cmpl   $0x6,-0xc(%rbp)
   145b6:	0f 8e 6f ff ff ff    	jle    1452b <main+0x126d>
   145bc:	83 45 f0 01          	addl   $0x1,-0x10(%rbp)
   145c0:	83 7d f0 07          	cmpl   $0x7,-0x10(%rbp)
   145c4:	0f 8e 55 ff ff ff    	jle    1451f <main+0x1261>
   145ca:	c7 45 f0 00 00 00 00 	movl   $0x0,-0x10(%rbp)
   145d1:	e9 a5 00 00 00       	jmpq   1467b <main+0x13bd>
   145d6:	c7 45 f4 00 00 00 00 	movl   $0x0,-0xc(%rbp)
   145dd:	e9 8b 00 00 00       	jmpq   1466d <main+0x13af>
   145e2:	c7 45 f8 00 00 00 00 	movl   $0x0,-0x8(%rbp)
   145e9:	eb 78                	jmp    14663 <main+0x13a5>
   145eb:	8b 45 f8             	mov    -0x8(%rbp),%eax
   145ee:	48 63 c8             	movslq %eax,%rcx
   145f1:	8b 45 f0             	mov    -0x10(%rbp),%eax
   145f4:	48 98                	cltq   
   145f6:	8b 55 f4             	mov    -0xc(%rbp),%edx
   145f9:	48 63 d2             	movslq %edx,%rdx
   145fc:	48 6b f0 5a          	imul   $0x5a,%rax,%rsi
   14600:	48 89 d0             	mov    %rdx,%rax
   14603:	48 c1 e0 02          	shl    $0x2,%rax
   14607:	48 01 d0             	add    %rdx,%rax
   1460a:	48 01 c0             	add    %rax,%rax
   1460d:	48 01 f0             	add    %rsi,%rax
   14610:	48 01 c8             	add    %rcx,%rax
   14613:	48 8d 14 c5 00 00 00 	lea    0x0(,%rax,8),%rdx
   1461a:	00 
   1461b:	48 8d 05 fe 68 00 00 	lea    0x68fe(%rip),%rax        # 1af20 <g_2137>
   14622:	48 8b 04 02          	mov    (%rdx,%rax,1),%rax
   14626:	48 89 c1             	mov    %rax,%rcx
   14629:	8b 45 fc             	mov    -0x4(%rbp),%eax
   1462c:	89 c2                	mov    %eax,%edx
   1462e:	48 8d 35 6a 1e 00 00 	lea    0x1e6a(%rip),%rsi        # 1649f <g_1898+0x143f>
   14635:	48 89 cf             	mov    %rcx,%rdi
   14638:	e8 b6 20 ff ff       	callq  66f3 <transparent_crc>
   1463d:	83 7d fc 00          	cmpl   $0x0,-0x4(%rbp)
   14641:	74 1c                	je     1465f <main+0x13a1>
   14643:	8b 4d f8             	mov    -0x8(%rbp),%ecx
   14646:	8b 55 f4             	mov    -0xc(%rbp),%edx
   14649:	8b 45 f0             	mov    -0x10(%rbp),%eax
   1464c:	89 c6                	mov    %eax,%esi
   1464e:	48 8d 3d f1 1a 00 00 	lea    0x1af1(%rip),%rdi        # 16146 <g_1898+0x10e6>
   14655:	b8 00 00 00 00       	mov    $0x0,%eax
   1465a:	e8 21 0a ff ff       	callq  5080 <printf@plt>
   1465f:	83 45 f8 01          	addl   $0x1,-0x8(%rbp)
   14663:	83 7d f8 09          	cmpl   $0x9,-0x8(%rbp)
   14667:	7e 82                	jle    145eb <main+0x132d>
   14669:	83 45 f4 01          	addl   $0x1,-0xc(%rbp)
   1466d:	83 7d f4 08          	cmpl   $0x8,-0xc(%rbp)
   14671:	0f 8e 6b ff ff ff    	jle    145e2 <main+0x1324>
   14677:	83 45 f0 01          	addl   $0x1,-0x10(%rbp)
   1467b:	83 7d f0 00          	cmpl   $0x0,-0x10(%rbp)
   1467f:	0f 8e 51 ff ff ff    	jle    145d6 <main+0x1318>
   14685:	48 8b 05 64 6b 00 00 	mov    0x6b64(%rip),%rax        # 1b1f0 <g_2169>
   1468c:	01 c0                	add    %eax,%eax
   1468e:	d1 f8                	sar    %eax
   14690:	48 98                	cltq   
   14692:	8b 55 fc             	mov    -0x4(%rbp),%edx
   14695:	48 8d 35 13 1e 00 00 	lea    0x1e13(%rip),%rsi        # 164af <g_1898+0x144f>
   1469c:	48 89 c7             	mov    %rax,%rdi
   1469f:	e8 4f 20 ff ff       	callq  66f3 <transparent_crc>
   146a4:	48 8b 05 45 6b 00 00 	mov    0x6b45(%rip),%rax        # 1b1f0 <g_2169>
   146ab:	48 c1 e0 08          	shl    $0x8,%rax
   146af:	48 c1 f8 28          	sar    $0x28,%rax
   146b3:	48 98                	cltq   
   146b5:	8b 55 fc             	mov    -0x4(%rbp),%edx
   146b8:	48 8d 35 fa 1d 00 00 	lea    0x1dfa(%rip),%rsi        # 164b9 <g_1898+0x1459>
   146bf:	48 89 c7             	mov    %rax,%rdi
   146c2:	e8 2c 20 ff ff       	callq  66f3 <transparent_crc>
   146c7:	48 8b 05 2a 6b 00 00 	mov    0x6b2a(%rip),%rax        # 1b1f8 <g_2169+0x8>
   146ce:	c1 e0 06             	shl    $0x6,%eax
   146d1:	c1 f8 06             	sar    $0x6,%eax
   146d4:	48 98                	cltq   
   146d6:	8b 55 fc             	mov    -0x4(%rbp),%edx
   146d9:	48 8d 35 e3 1d 00 00 	lea    0x1de3(%rip),%rsi        # 164c3 <g_1898+0x1463>
   146e0:	48 89 c7             	mov    %rax,%rdi
   146e3:	e8 0b 20 ff ff       	callq  66f3 <transparent_crc>
   146e8:	48 8b 05 09 6b 00 00 	mov    0x6b09(%rip),%rax        # 1b1f8 <g_2169+0x8>
   146ef:	48 c1 e8 20          	shr    $0x20,%rax
   146f3:	25 ff ff ff 3f       	and    $0x3fffffff,%eax
   146f8:	89 c1                	mov    %eax,%ecx
   146fa:	8b 45 fc             	mov    -0x4(%rbp),%eax
   146fd:	89 c2                	mov    %eax,%edx
   146ff:	48 8d 35 c7 1d 00 00 	lea    0x1dc7(%rip),%rsi        # 164cd <g_1898+0x146d>
   14706:	48 89 cf             	mov    %rcx,%rdi
   14709:	e8 e5 1f ff ff       	callq  66f3 <transparent_crc>
   1470e:	48 8b 05 eb 6a 00 00 	mov    0x6aeb(%rip),%rax        # 1b200 <g_2207>
   14715:	48 89 c1             	mov    %rax,%rcx
   14718:	8b 45 fc             	mov    -0x4(%rbp),%eax
   1471b:	89 c2                	mov    %eax,%edx
   1471d:	48 8d 35 b3 1d 00 00 	lea    0x1db3(%rip),%rsi        # 164d7 <g_1898+0x1477>
   14724:	48 89 cf             	mov    %rcx,%rdi
   14727:	e8 c7 1f ff ff       	callq  66f3 <transparent_crc>
   1472c:	8b 05 d6 6a 00 00    	mov    0x6ad6(%rip),%eax        # 1b208 <g_2212>
   14732:	48 98                	cltq   
   14734:	8b 55 fc             	mov    -0x4(%rbp),%edx
   14737:	48 8d 35 a0 1d 00 00 	lea    0x1da0(%rip),%rsi        # 164de <g_1898+0x147e>
   1473e:	48 89 c7             	mov    %rax,%rdi
   14741:	e8 ad 1f ff ff       	callq  66f3 <transparent_crc>
   14746:	8b 05 c0 6a 00 00    	mov    0x6ac0(%rip),%eax        # 1b20c <g_2258>
   1474c:	89 c1                	mov    %eax,%ecx
   1474e:	8b 45 fc             	mov    -0x4(%rbp),%eax
   14751:	89 c2                	mov    %eax,%edx
   14753:	48 8d 35 8b 1d 00 00 	lea    0x1d8b(%rip),%rsi        # 164e5 <g_1898+0x1485>
   1475a:	48 89 cf             	mov    %rcx,%rdi
   1475d:	e8 91 1f ff ff       	callq  66f3 <transparent_crc>
   14762:	c7 45 f0 00 00 00 00 	movl   $0x0,-0x10(%rbp)
   14769:	e9 eb 00 00 00       	jmpq   14859 <main+0x159b>
   1476e:	8b 45 f0             	mov    -0x10(%rbp),%eax
   14771:	48 98                	cltq   
   14773:	48 c1 e0 04          	shl    $0x4,%rax
   14777:	48 89 c2             	mov    %rax,%rdx
   1477a:	48 8d 05 8f 6a 00 00 	lea    0x6a8f(%rip),%rax        # 1b210 <g_2288>
   14781:	48 8b 04 02          	mov    (%rdx,%rax,1),%rax
   14785:	01 c0                	add    %eax,%eax
   14787:	d1 f8                	sar    %eax
   14789:	48 98                	cltq   
   1478b:	8b 55 fc             	mov    -0x4(%rbp),%edx
   1478e:	48 8d 35 57 1d 00 00 	lea    0x1d57(%rip),%rsi        # 164ec <g_1898+0x148c>
   14795:	48 89 c7             	mov    %rax,%rdi
   14798:	e8 56 1f ff ff       	callq  66f3 <transparent_crc>
   1479d:	8b 45 f0             	mov    -0x10(%rbp),%eax
   147a0:	48 98                	cltq   
   147a2:	48 c1 e0 04          	shl    $0x4,%rax
   147a6:	48 89 c2             	mov    %rax,%rdx
   147a9:	48 8d 05 60 6a 00 00 	lea    0x6a60(%rip),%rax        # 1b210 <g_2288>
   147b0:	48 8b 04 02          	mov    (%rdx,%rax,1),%rax
   147b4:	48 c1 e0 08          	shl    $0x8,%rax
   147b8:	48 c1 f8 28          	sar    $0x28,%rax
   147bc:	48 98                	cltq   
   147be:	8b 55 fc             	mov    -0x4(%rbp),%edx
   147c1:	48 8d 35 31 1d 00 00 	lea    0x1d31(%rip),%rsi        # 164f9 <g_1898+0x1499>
   147c8:	48 89 c7             	mov    %rax,%rdi
   147cb:	e8 23 1f ff ff       	callq  66f3 <transparent_crc>
   147d0:	8b 45 f0             	mov    -0x10(%rbp),%eax
   147d3:	48 98                	cltq   
   147d5:	48 c1 e0 04          	shl    $0x4,%rax
   147d9:	48 89 c2             	mov    %rax,%rdx
   147dc:	48 8d 05 2d 6a 00 00 	lea    0x6a2d(%rip),%rax        # 1b210 <g_2288>
   147e3:	48 8b 44 02 08       	mov    0x8(%rdx,%rax,1),%rax
   147e8:	c1 e0 06             	shl    $0x6,%eax
   147eb:	c1 f8 06             	sar    $0x6,%eax
   147ee:	48 98                	cltq   
   147f0:	8b 55 fc             	mov    -0x4(%rbp),%edx
   147f3:	48 8d 35 0c 1d 00 00 	lea    0x1d0c(%rip),%rsi        # 16506 <g_1898+0x14a6>
   147fa:	48 89 c7             	mov    %rax,%rdi
   147fd:	e8 f1 1e ff ff       	callq  66f3 <transparent_crc>
   14802:	8b 45 f0             	mov    -0x10(%rbp),%eax
   14805:	48 98                	cltq   
   14807:	48 c1 e0 04          	shl    $0x4,%rax
   1480b:	48 89 c2             	mov    %rax,%rdx
   1480e:	48 8d 05 fb 69 00 00 	lea    0x69fb(%rip),%rax        # 1b210 <g_2288>
   14815:	48 8b 44 02 08       	mov    0x8(%rdx,%rax,1),%rax
   1481a:	48 c1 e8 20          	shr    $0x20,%rax
   1481e:	25 ff ff ff 3f       	and    $0x3fffffff,%eax
   14823:	89 c1                	mov    %eax,%ecx
   14825:	8b 45 fc             	mov    -0x4(%rbp),%eax
   14828:	89 c2                	mov    %eax,%edx
   1482a:	48 8d 35 e2 1c 00 00 	lea    0x1ce2(%rip),%rsi        # 16513 <g_1898+0x14b3>
   14831:	48 89 cf             	mov    %rcx,%rdi
   14834:	e8 ba 1e ff ff       	callq  66f3 <transparent_crc>
   14839:	83 7d fc 00          	cmpl   $0x0,-0x4(%rbp)
   1483d:	74 16                	je     14855 <main+0x1597>
   1483f:	8b 45 f0             	mov    -0x10(%rbp),%eax
   14842:	89 c6                	mov    %eax,%esi
   14844:	48 8d 3d 65 18 00 00 	lea    0x1865(%rip),%rdi        # 160b0 <g_1898+0x1050>
   1484b:	b8 00 00 00 00       	mov    $0x0,%eax
   14850:	e8 2b 08 ff ff       	callq  5080 <printf@plt>
   14855:	83 45 f0 01          	addl   $0x1,-0x10(%rbp)
   14859:	83 7d f0 00          	cmpl   $0x0,-0x10(%rbp)
   1485d:	0f 8e 0b ff ff ff    	jle    1476e <main+0x14b0>
   14863:	48 8b 05 b6 69 00 00 	mov    0x69b6(%rip),%rax        # 1b220 <g_2313>
   1486a:	01 c0                	add    %eax,%eax
   1486c:	d1 f8                	sar    %eax
   1486e:	48 98                	cltq   
   14870:	8b 55 fc             	mov    -0x4(%rbp),%edx
   14873:	48 8d 35 a6 1c 00 00 	lea    0x1ca6(%rip),%rsi        # 16520 <g_1898+0x14c0>
   1487a:	48 89 c7             	mov    %rax,%rdi
   1487d:	e8 71 1e ff ff       	callq  66f3 <transparent_crc>
   14882:	48 8b 05 97 69 00 00 	mov    0x6997(%rip),%rax        # 1b220 <g_2313>
   14889:	48 c1 e0 08          	shl    $0x8,%rax
   1488d:	48 c1 f8 28          	sar    $0x28,%rax
   14891:	48 98                	cltq   
   14893:	8b 55 fc             	mov    -0x4(%rbp),%edx
   14896:	48 8d 35 8d 1c 00 00 	lea    0x1c8d(%rip),%rsi        # 1652a <g_1898+0x14ca>
   1489d:	48 89 c7             	mov    %rax,%rdi
   148a0:	e8 4e 1e ff ff       	callq  66f3 <transparent_crc>
   148a5:	48 8b 05 7c 69 00 00 	mov    0x697c(%rip),%rax        # 1b228 <g_2313+0x8>
   148ac:	c1 e0 06             	shl    $0x6,%eax
   148af:	c1 f8 06             	sar    $0x6,%eax
   148b2:	48 98                	cltq   
   148b4:	8b 55 fc             	mov    -0x4(%rbp),%edx
   148b7:	48 8d 35 76 1c 00 00 	lea    0x1c76(%rip),%rsi        # 16534 <g_1898+0x14d4>
   148be:	48 89 c7             	mov    %rax,%rdi
   148c1:	e8 2d 1e ff ff       	callq  66f3 <transparent_crc>
   148c6:	48 8b 05 5b 69 00 00 	mov    0x695b(%rip),%rax        # 1b228 <g_2313+0x8>
   148cd:	48 c1 e8 20          	shr    $0x20,%rax
   148d1:	25 ff ff ff 3f       	and    $0x3fffffff,%eax
   148d6:	89 c1                	mov    %eax,%ecx
   148d8:	8b 45 fc             	mov    -0x4(%rbp),%eax
   148db:	89 c2                	mov    %eax,%edx
   148dd:	48 8d 35 5a 1c 00 00 	lea    0x1c5a(%rip),%rsi        # 1653e <g_1898+0x14de>
   148e4:	48 89 cf             	mov    %rcx,%rdi
   148e7:	e8 07 1e ff ff       	callq  66f3 <transparent_crc>
   148ec:	48 8b 05 3d 69 00 00 	mov    0x693d(%rip),%rax        # 1b230 <g_2356>
   148f3:	01 c0                	add    %eax,%eax
   148f5:	d1 f8                	sar    %eax
   148f7:	48 98                	cltq   
   148f9:	8b 55 fc             	mov    -0x4(%rbp),%edx
   148fc:	48 8d 35 45 1c 00 00 	lea    0x1c45(%rip),%rsi        # 16548 <g_1898+0x14e8>
   14903:	48 89 c7             	mov    %rax,%rdi
   14906:	e8 e8 1d ff ff       	callq  66f3 <transparent_crc>
   1490b:	48 8b 05 1e 69 00 00 	mov    0x691e(%rip),%rax        # 1b230 <g_2356>
   14912:	48 c1 e0 08          	shl    $0x8,%rax
   14916:	48 c1 f8 28          	sar    $0x28,%rax
   1491a:	48 98                	cltq   
   1491c:	8b 55 fc             	mov    -0x4(%rbp),%edx
   1491f:	48 8d 35 2c 1c 00 00 	lea    0x1c2c(%rip),%rsi        # 16552 <g_1898+0x14f2>
   14926:	48 89 c7             	mov    %rax,%rdi
   14929:	e8 c5 1d ff ff       	callq  66f3 <transparent_crc>
   1492e:	8b 05 04 69 00 00    	mov    0x6904(%rip),%eax        # 1b238 <g_2356+0x8>
   14934:	c1 e0 06             	shl    $0x6,%eax
   14937:	c1 f8 06             	sar    $0x6,%eax
   1493a:	48 98                	cltq   
   1493c:	8b 55 fc             	mov    -0x4(%rbp),%edx
   1493f:	48 8d 35 16 1c 00 00 	lea    0x1c16(%rip),%rsi        # 1655c <g_1898+0x14fc>
   14946:	48 89 c7             	mov    %rax,%rdi
   14949:	e8 a5 1d ff ff       	callq  66f3 <transparent_crc>
   1494e:	8b 05 e8 68 00 00    	mov    0x68e8(%rip),%eax        # 1b23c <g_2356+0xc>
   14954:	25 ff ff ff 3f       	and    $0x3fffffff,%eax
   14959:	89 c1                	mov    %eax,%ecx
   1495b:	8b 45 fc             	mov    -0x4(%rbp),%eax
   1495e:	89 c2                	mov    %eax,%edx
   14960:	48 8d 35 ff 1b 00 00 	lea    0x1bff(%rip),%rsi        # 16566 <g_1898+0x1506>
   14967:	48 89 cf             	mov    %rcx,%rdi
   1496a:	e8 84 1d ff ff       	callq  66f3 <transparent_crc>
   1496f:	0f b7 05 ca 68 00 00 	movzwl 0x68ca(%rip),%eax        # 1b240 <g_2365>
   14976:	0f b7 c0             	movzwl %ax,%eax
   14979:	8b 55 fc             	mov    -0x4(%rbp),%edx
   1497c:	48 8d 35 ed 1b 00 00 	lea    0x1bed(%rip),%rsi        # 16570 <g_1898+0x1510>
   14983:	48 89 c7             	mov    %rax,%rdi
   14986:	e8 68 1d ff ff       	callq  66f3 <transparent_crc>
   1498b:	c7 45 f0 00 00 00 00 	movl   $0x0,-0x10(%rbp)
   14992:	eb 73                	jmp    14a07 <main+0x1749>
   14994:	c7 45 f4 00 00 00 00 	movl   $0x0,-0xc(%rbp)
   1499b:	eb 60                	jmp    149fd <main+0x173f>
   1499d:	8b 45 f4             	mov    -0xc(%rbp),%eax
   149a0:	48 63 c8             	movslq %eax,%rcx
   149a3:	8b 45 f0             	mov    -0x10(%rbp),%eax
   149a6:	48 63 d0             	movslq %eax,%rdx
   149a9:	48 89 d0             	mov    %rdx,%rax
   149ac:	48 c1 e0 03          	shl    $0x3,%rax
   149b0:	48 29 d0             	sub    %rdx,%rax
   149b3:	48 01 c8             	add    %rcx,%rax
   149b6:	48 8d 14 00          	lea    (%rax,%rax,1),%rdx
   149ba:	48 8d 05 9f 68 00 00 	lea    0x689f(%rip),%rax        # 1b260 <g_2395>
   149c1:	0f b7 04 02          	movzwl (%rdx,%rax,1),%eax
   149c5:	0f b7 c0             	movzwl %ax,%eax
   149c8:	8b 55 fc             	mov    -0x4(%rbp),%edx
   149cb:	48 8d 35 a5 1b 00 00 	lea    0x1ba5(%rip),%rsi        # 16577 <g_1898+0x1517>
   149d2:	48 89 c7             	mov    %rax,%rdi
   149d5:	e8 19 1d ff ff       	callq  66f3 <transparent_crc>
   149da:	83 7d fc 00          	cmpl   $0x0,-0x4(%rbp)
   149de:	74 19                	je     149f9 <main+0x173b>
   149e0:	8b 55 f4             	mov    -0xc(%rbp),%edx
   149e3:	8b 45 f0             	mov    -0x10(%rbp),%eax
   149e6:	89 c6                	mov    %eax,%esi
   149e8:	48 8d 3d 12 18 00 00 	lea    0x1812(%rip),%rdi        # 16201 <g_1898+0x11a1>
   149ef:	b8 00 00 00 00       	mov    $0x0,%eax
   149f4:	e8 87 06 ff ff       	callq  5080 <printf@plt>
   149f9:	83 45 f4 01          	addl   $0x1,-0xc(%rbp)
   149fd:	83 7d f4 06          	cmpl   $0x6,-0xc(%rbp)
   14a01:	7e 9a                	jle    1499d <main+0x16df>
   14a03:	83 45 f0 01          	addl   $0x1,-0x10(%rbp)
   14a07:	83 7d f0 07          	cmpl   $0x7,-0x10(%rbp)
   14a0b:	7e 87                	jle    14994 <main+0x16d6>
   14a0d:	48 8b 05 bc 68 00 00 	mov    0x68bc(%rip),%rax        # 1b2d0 <g_2414>
   14a14:	01 c0                	add    %eax,%eax
   14a16:	d1 f8                	sar    %eax
   14a18:	48 98                	cltq   
   14a1a:	8b 55 fc             	mov    -0x4(%rbp),%edx
   14a1d:	48 8d 35 60 1b 00 00 	lea    0x1b60(%rip),%rsi        # 16584 <g_1898+0x1524>
   14a24:	48 89 c7             	mov    %rax,%rdi
   14a27:	e8 c7 1c ff ff       	callq  66f3 <transparent_crc>
   14a2c:	48 8b 05 9d 68 00 00 	mov    0x689d(%rip),%rax        # 1b2d0 <g_2414>
   14a33:	48 c1 e0 08          	shl    $0x8,%rax
   14a37:	48 c1 f8 28          	sar    $0x28,%rax
   14a3b:	48 98                	cltq   
   14a3d:	8b 55 fc             	mov    -0x4(%rbp),%edx
   14a40:	48 8d 35 47 1b 00 00 	lea    0x1b47(%rip),%rsi        # 1658e <g_1898+0x152e>
   14a47:	48 89 c7             	mov    %rax,%rdi
   14a4a:	e8 a4 1c ff ff       	callq  66f3 <transparent_crc>
   14a4f:	8b 05 83 68 00 00    	mov    0x6883(%rip),%eax        # 1b2d8 <g_2414+0x8>
   14a55:	c1 e0 06             	shl    $0x6,%eax
   14a58:	c1 f8 06             	sar    $0x6,%eax
   14a5b:	48 98                	cltq   
   14a5d:	8b 55 fc             	mov    -0x4(%rbp),%edx
   14a60:	48 8d 35 31 1b 00 00 	lea    0x1b31(%rip),%rsi        # 16598 <g_1898+0x1538>
   14a67:	48 89 c7             	mov    %rax,%rdi
   14a6a:	e8 84 1c ff ff       	callq  66f3 <transparent_crc>
   14a6f:	8b 05 67 68 00 00    	mov    0x6867(%rip),%eax        # 1b2dc <g_2414+0xc>
   14a75:	25 ff ff ff 3f       	and    $0x3fffffff,%eax
   14a7a:	89 c1                	mov    %eax,%ecx
   14a7c:	8b 45 fc             	mov    -0x4(%rbp),%eax
   14a7f:	89 c2                	mov    %eax,%edx
   14a81:	48 8d 35 1a 1b 00 00 	lea    0x1b1a(%rip),%rsi        # 165a2 <g_1898+0x1542>
   14a88:	48 89 cf             	mov    %rcx,%rdi
   14a8b:	e8 63 1c ff ff       	callq  66f3 <transparent_crc>
   14a90:	8b 05 4a 68 00 00    	mov    0x684a(%rip),%eax        # 1b2e0 <g_2487>
   14a96:	89 c1                	mov    %eax,%ecx
   14a98:	8b 45 fc             	mov    -0x4(%rbp),%eax
   14a9b:	89 c2                	mov    %eax,%edx
   14a9d:	48 8d 35 08 1b 00 00 	lea    0x1b08(%rip),%rsi        # 165ac <g_1898+0x154c>
   14aa4:	48 89 cf             	mov    %rcx,%rdi
   14aa7:	e8 47 1c ff ff       	callq  66f3 <transparent_crc>
   14aac:	c7 45 f0 00 00 00 00 	movl   $0x0,-0x10(%rbp)
   14ab3:	e9 eb 00 00 00       	jmpq   14ba3 <main+0x18e5>
   14ab8:	8b 45 f0             	mov    -0x10(%rbp),%eax
   14abb:	48 98                	cltq   
   14abd:	48 c1 e0 04          	shl    $0x4,%rax
   14ac1:	48 89 c2             	mov    %rax,%rdx
   14ac4:	48 8d 05 35 68 00 00 	lea    0x6835(%rip),%rax        # 1b300 <g_2503>
   14acb:	48 8b 04 02          	mov    (%rdx,%rax,1),%rax
   14acf:	01 c0                	add    %eax,%eax
   14ad1:	d1 f8                	sar    %eax
   14ad3:	48 98                	cltq   
   14ad5:	8b 55 fc             	mov    -0x4(%rbp),%edx
   14ad8:	48 8d 35 d4 1a 00 00 	lea    0x1ad4(%rip),%rsi        # 165b3 <g_1898+0x1553>
   14adf:	48 89 c7             	mov    %rax,%rdi
   14ae2:	e8 0c 1c ff ff       	callq  66f3 <transparent_crc>
   14ae7:	8b 45 f0             	mov    -0x10(%rbp),%eax
   14aea:	48 98                	cltq   
   14aec:	48 c1 e0 04          	shl    $0x4,%rax
   14af0:	48 89 c2             	mov    %rax,%rdx
   14af3:	48 8d 05 06 68 00 00 	lea    0x6806(%rip),%rax        # 1b300 <g_2503>
   14afa:	48 8b 04 02          	mov    (%rdx,%rax,1),%rax
   14afe:	48 c1 e0 08          	shl    $0x8,%rax
   14b02:	48 c1 f8 28          	sar    $0x28,%rax
   14b06:	48 98                	cltq   
   14b08:	8b 55 fc             	mov    -0x4(%rbp),%edx
   14b0b:	48 8d 35 ae 1a 00 00 	lea    0x1aae(%rip),%rsi        # 165c0 <g_1898+0x1560>
   14b12:	48 89 c7             	mov    %rax,%rdi
   14b15:	e8 d9 1b ff ff       	callq  66f3 <transparent_crc>
   14b1a:	8b 45 f0             	mov    -0x10(%rbp),%eax
   14b1d:	48 98                	cltq   
   14b1f:	48 c1 e0 04          	shl    $0x4,%rax
   14b23:	48 89 c2             	mov    %rax,%rdx
   14b26:	48 8d 05 d3 67 00 00 	lea    0x67d3(%rip),%rax        # 1b300 <g_2503>
   14b2d:	48 8b 44 02 08       	mov    0x8(%rdx,%rax,1),%rax
   14b32:	c1 e0 06             	shl    $0x6,%eax
   14b35:	c1 f8 06             	sar    $0x6,%eax
   14b38:	48 98                	cltq   
   14b3a:	8b 55 fc             	mov    -0x4(%rbp),%edx
   14b3d:	48 8d 35 89 1a 00 00 	lea    0x1a89(%rip),%rsi        # 165cd <g_1898+0x156d>
   14b44:	48 89 c7             	mov    %rax,%rdi
   14b47:	e8 a7 1b ff ff       	callq  66f3 <transparent_crc>
   14b4c:	8b 45 f0             	mov    -0x10(%rbp),%eax
   14b4f:	48 98                	cltq   
   14b51:	48 c1 e0 04          	shl    $0x4,%rax
   14b55:	48 89 c2             	mov    %rax,%rdx
   14b58:	48 8d 05 a1 67 00 00 	lea    0x67a1(%rip),%rax        # 1b300 <g_2503>
   14b5f:	48 8b 44 02 08       	mov    0x8(%rdx,%rax,1),%rax
   14b64:	48 c1 e8 20          	shr    $0x20,%rax
   14b68:	25 ff ff ff 3f       	and    $0x3fffffff,%eax
   14b6d:	89 c1                	mov    %eax,%ecx
   14b6f:	8b 45 fc             	mov    -0x4(%rbp),%eax
   14b72:	89 c2                	mov    %eax,%edx
   14b74:	48 8d 35 5f 1a 00 00 	lea    0x1a5f(%rip),%rsi        # 165da <g_1898+0x157a>
   14b7b:	48 89 cf             	mov    %rcx,%rdi
   14b7e:	e8 70 1b ff ff       	callq  66f3 <transparent_crc>
   14b83:	83 7d fc 00          	cmpl   $0x0,-0x4(%rbp)
   14b87:	74 16                	je     14b9f <main+0x18e1>
   14b89:	8b 45 f0             	mov    -0x10(%rbp),%eax
   14b8c:	89 c6                	mov    %eax,%esi
   14b8e:	48 8d 3d 1b 15 00 00 	lea    0x151b(%rip),%rdi        # 160b0 <g_1898+0x1050>
   14b95:	b8 00 00 00 00       	mov    $0x0,%eax
   14b9a:	e8 e1 04 ff ff       	callq  5080 <printf@plt>
   14b9f:	83 45 f0 01          	addl   $0x1,-0x10(%rbp)
   14ba3:	83 7d f0 01          	cmpl   $0x1,-0x10(%rbp)
   14ba7:	0f 8e 0b ff ff ff    	jle    14ab8 <main+0x17fa>
   14bad:	8b 05 6d 67 00 00    	mov    0x676d(%rip),%eax        # 1b320 <g_2636>
   14bb3:	48 98                	cltq   
   14bb5:	8b 55 fc             	mov    -0x4(%rbp),%edx
   14bb8:	48 8d 35 28 1a 00 00 	lea    0x1a28(%rip),%rsi        # 165e7 <g_1898+0x1587>
   14bbf:	48 89 c7             	mov    %rax,%rdi
   14bc2:	e8 2c 1b ff ff       	callq  66f3 <transparent_crc>
   14bc7:	8b 05 57 67 00 00    	mov    0x6757(%rip),%eax        # 1b324 <g_2742>
   14bcd:	48 98                	cltq   
   14bcf:	8b 55 fc             	mov    -0x4(%rbp),%edx
   14bd2:	48 8d 35 15 1a 00 00 	lea    0x1a15(%rip),%rsi        # 165ee <g_1898+0x158e>
   14bd9:	48 89 c7             	mov    %rax,%rdi
   14bdc:	e8 12 1b ff ff       	callq  66f3 <transparent_crc>
   14be1:	48 8b 05 48 67 00 00 	mov    0x6748(%rip),%rax        # 1b330 <g_2755>
   14be8:	01 c0                	add    %eax,%eax
   14bea:	d1 f8                	sar    %eax
   14bec:	48 98                	cltq   
   14bee:	8b 55 fc             	mov    -0x4(%rbp),%edx
   14bf1:	48 8d 35 fd 19 00 00 	lea    0x19fd(%rip),%rsi        # 165f5 <g_1898+0x1595>
   14bf8:	48 89 c7             	mov    %rax,%rdi
   14bfb:	e8 f3 1a ff ff       	callq  66f3 <transparent_crc>
   14c00:	48 8b 05 29 67 00 00 	mov    0x6729(%rip),%rax        # 1b330 <g_2755>
   14c07:	48 c1 e0 08          	shl    $0x8,%rax
   14c0b:	48 c1 f8 28          	sar    $0x28,%rax
   14c0f:	48 98                	cltq   
   14c11:	8b 55 fc             	mov    -0x4(%rbp),%edx
   14c14:	48 8d 35 e4 19 00 00 	lea    0x19e4(%rip),%rsi        # 165ff <g_1898+0x159f>
   14c1b:	48 89 c7             	mov    %rax,%rdi
   14c1e:	e8 d0 1a ff ff       	callq  66f3 <transparent_crc>
   14c23:	48 8b 05 0e 67 00 00 	mov    0x670e(%rip),%rax        # 1b338 <g_2755+0x8>
   14c2a:	c1 e0 06             	shl    $0x6,%eax
   14c2d:	c1 f8 06             	sar    $0x6,%eax
   14c30:	48 98                	cltq   
   14c32:	8b 55 fc             	mov    -0x4(%rbp),%edx
   14c35:	48 8d 35 cd 19 00 00 	lea    0x19cd(%rip),%rsi        # 16609 <g_1898+0x15a9>
   14c3c:	48 89 c7             	mov    %rax,%rdi
   14c3f:	e8 af 1a ff ff       	callq  66f3 <transparent_crc>
   14c44:	48 8b 05 ed 66 00 00 	mov    0x66ed(%rip),%rax        # 1b338 <g_2755+0x8>
   14c4b:	48 c1 e8 20          	shr    $0x20,%rax
   14c4f:	25 ff ff ff 3f       	and    $0x3fffffff,%eax
   14c54:	89 c1                	mov    %eax,%ecx
   14c56:	8b 45 fc             	mov    -0x4(%rbp),%eax
   14c59:	89 c2                	mov    %eax,%edx
   14c5b:	48 8d 35 b1 19 00 00 	lea    0x19b1(%rip),%rsi        # 16613 <g_1898+0x15b3>
   14c62:	48 89 cf             	mov    %rcx,%rdi
   14c65:	e8 89 1a ff ff       	callq  66f3 <transparent_crc>
   14c6a:	c7 45 f0 00 00 00 00 	movl   $0x0,-0x10(%rbp)
   14c71:	e9 4e 01 00 00       	jmpq   14dc4 <main+0x1b06>
   14c76:	c7 45 f4 00 00 00 00 	movl   $0x0,-0xc(%rbp)
   14c7d:	e9 34 01 00 00       	jmpq   14db6 <main+0x1af8>
   14c82:	8b 45 f4             	mov    -0xc(%rbp),%eax
   14c85:	48 63 c8             	movslq %eax,%rcx
   14c88:	8b 45 f0             	mov    -0x10(%rbp),%eax
   14c8b:	48 63 d0             	movslq %eax,%rdx
   14c8e:	48 89 d0             	mov    %rdx,%rax
   14c91:	48 01 c0             	add    %rax,%rax
   14c94:	48 01 d0             	add    %rdx,%rax
   14c97:	48 01 c8             	add    %rcx,%rax
   14c9a:	48 c1 e0 04          	shl    $0x4,%rax
   14c9e:	48 89 c2             	mov    %rax,%rdx
   14ca1:	48 8d 05 98 66 00 00 	lea    0x6698(%rip),%rax        # 1b340 <g_2776>
   14ca8:	48 8b 04 02          	mov    (%rdx,%rax,1),%rax
   14cac:	01 c0                	add    %eax,%eax
   14cae:	d1 f8                	sar    %eax
   14cb0:	48 98                	cltq   
   14cb2:	8b 55 fc             	mov    -0x4(%rbp),%edx
   14cb5:	48 8d 35 61 19 00 00 	lea    0x1961(%rip),%rsi        # 1661d <g_1898+0x15bd>
   14cbc:	48 89 c7             	mov    %rax,%rdi
   14cbf:	e8 2f 1a ff ff       	callq  66f3 <transparent_crc>
   14cc4:	8b 45 f4             	mov    -0xc(%rbp),%eax
   14cc7:	48 63 c8             	movslq %eax,%rcx
   14cca:	8b 45 f0             	mov    -0x10(%rbp),%eax
   14ccd:	48 63 d0             	movslq %eax,%rdx
   14cd0:	48 89 d0             	mov    %rdx,%rax
   14cd3:	48 01 c0             	add    %rax,%rax
   14cd6:	48 01 d0             	add    %rdx,%rax
   14cd9:	48 01 c8             	add    %rcx,%rax
   14cdc:	48 c1 e0 04          	shl    $0x4,%rax
   14ce0:	48 89 c2             	mov    %rax,%rdx
   14ce3:	48 8d 05 56 66 00 00 	lea    0x6656(%rip),%rax        # 1b340 <g_2776>
   14cea:	48 8b 04 02          	mov    (%rdx,%rax,1),%rax
   14cee:	48 c1 e0 08          	shl    $0x8,%rax
   14cf2:	48 c1 f8 28          	sar    $0x28,%rax
   14cf6:	48 98                	cltq   
   14cf8:	8b 55 fc             	mov    -0x4(%rbp),%edx
   14cfb:	48 8d 35 2b 19 00 00 	lea    0x192b(%rip),%rsi        # 1662d <g_1898+0x15cd>
   14d02:	48 89 c7             	mov    %rax,%rdi
   14d05:	e8 e9 19 ff ff       	callq  66f3 <transparent_crc>
   14d0a:	8b 45 f4             	mov    -0xc(%rbp),%eax
   14d0d:	48 63 c8             	movslq %eax,%rcx
   14d10:	8b 45 f0             	mov    -0x10(%rbp),%eax
   14d13:	48 63 d0             	movslq %eax,%rdx
   14d16:	48 89 d0             	mov    %rdx,%rax
   14d19:	48 01 c0             	add    %rax,%rax
   14d1c:	48 01 d0             	add    %rdx,%rax
   14d1f:	48 01 c8             	add    %rcx,%rax
   14d22:	48 c1 e0 04          	shl    $0x4,%rax
   14d26:	48 89 c2             	mov    %rax,%rdx
   14d29:	48 8d 05 10 66 00 00 	lea    0x6610(%rip),%rax        # 1b340 <g_2776>
   14d30:	8b 44 02 08          	mov    0x8(%rdx,%rax,1),%eax
   14d34:	c1 e0 06             	shl    $0x6,%eax
   14d37:	c1 f8 06             	sar    $0x6,%eax
   14d3a:	48 98                	cltq   
   14d3c:	8b 55 fc             	mov    -0x4(%rbp),%edx
   14d3f:	48 8d 35 f7 18 00 00 	lea    0x18f7(%rip),%rsi        # 1663d <g_1898+0x15dd>
   14d46:	48 89 c7             	mov    %rax,%rdi
   14d49:	e8 a5 19 ff ff       	callq  66f3 <transparent_crc>
   14d4e:	8b 45 f4             	mov    -0xc(%rbp),%eax
   14d51:	48 63 c8             	movslq %eax,%rcx
   14d54:	8b 45 f0             	mov    -0x10(%rbp),%eax
   14d57:	48 63 d0             	movslq %eax,%rdx
   14d5a:	48 89 d0             	mov    %rdx,%rax
   14d5d:	48 01 c0             	add    %rax,%rax
   14d60:	48 01 d0             	add    %rdx,%rax
   14d63:	48 01 c8             	add    %rcx,%rax
   14d66:	48 c1 e0 04          	shl    $0x4,%rax
   14d6a:	48 89 c2             	mov    %rax,%rdx
   14d6d:	48 8d 05 cc 65 00 00 	lea    0x65cc(%rip),%rax        # 1b340 <g_2776>
   14d74:	8b 44 02 0c          	mov    0xc(%rdx,%rax,1),%eax
   14d78:	25 ff ff ff 3f       	and    $0x3fffffff,%eax
   14d7d:	89 c1                	mov    %eax,%ecx
   14d7f:	8b 45 fc             	mov    -0x4(%rbp),%eax
   14d82:	89 c2                	mov    %eax,%edx
   14d84:	48 8d 35 c2 18 00 00 	lea    0x18c2(%rip),%rsi        # 1664d <g_1898+0x15ed>
   14d8b:	48 89 cf             	mov    %rcx,%rdi
   14d8e:	e8 60 19 ff ff       	callq  66f3 <transparent_crc>
   14d93:	83 7d fc 00          	cmpl   $0x0,-0x4(%rbp)
   14d97:	74 19                	je     14db2 <main+0x1af4>
   14d99:	8b 55 f4             	mov    -0xc(%rbp),%edx
   14d9c:	8b 45 f0             	mov    -0x10(%rbp),%eax
   14d9f:	89 c6                	mov    %eax,%esi
   14da1:	48 8d 3d 59 14 00 00 	lea    0x1459(%rip),%rdi        # 16201 <g_1898+0x11a1>
   14da8:	b8 00 00 00 00       	mov    $0x0,%eax
   14dad:	e8 ce 02 ff ff       	callq  5080 <printf@plt>
   14db2:	83 45 f4 01          	addl   $0x1,-0xc(%rbp)
   14db6:	83 7d f4 02          	cmpl   $0x2,-0xc(%rbp)
   14dba:	0f 8e c2 fe ff ff    	jle    14c82 <main+0x19c4>
   14dc0:	83 45 f0 01          	addl   $0x1,-0x10(%rbp)
   14dc4:	83 7d f0 04          	cmpl   $0x4,-0x10(%rbp)
   14dc8:	0f 8e a8 fe ff ff    	jle    14c76 <main+0x19b8>
   14dce:	8b 05 5c 66 00 00    	mov    0x665c(%rip),%eax        # 1b430 <g_2786>
   14dd4:	89 c1                	mov    %eax,%ecx
   14dd6:	8b 45 fc             	mov    -0x4(%rbp),%eax
   14dd9:	89 c2                	mov    %eax,%edx
   14ddb:	48 8d 35 7b 18 00 00 	lea    0x187b(%rip),%rsi        # 1665d <g_1898+0x15fd>
   14de2:	48 89 cf             	mov    %rcx,%rdi
   14de5:	e8 09 19 ff ff       	callq  66f3 <transparent_crc>
   14dea:	8b 05 30 52 00 00    	mov    0x5230(%rip),%eax        # 1a020 <crc32_context>
   14df0:	f7 d0                	not    %eax
   14df2:	89 c2                	mov    %eax,%edx
   14df4:	8b 45 fc             	mov    -0x4(%rbp),%eax
   14df7:	89 c6                	mov    %eax,%esi
   14df9:	89 d7                	mov    %edx,%edi
   14dfb:	e8 94 03 ff ff       	callq  5194 <platform_main_end>
   14e00:	b8 00 00 00 00       	mov    $0x0,%eax
   14e05:	c9                   	leaveq 
   14e06:	c3                   	retq   
   14e07:	66 0f 1f 84 00 00 00 	nopw   0x0(%rax,%rax,1)
   14e0e:	00 00 

0000000000014e10 <__libc_csu_init>:
   14e10:	f3 0f 1e fa          	endbr64 
   14e14:	41 57                	push   %r15
   14e16:	4c 8d 3d 33 49 00 00 	lea    0x4933(%rip),%r15        # 19750 <__frame_dummy_init_array_entry>
   14e1d:	41 56                	push   %r14
   14e1f:	49 89 d6             	mov    %rdx,%r14
   14e22:	41 55                	push   %r13
   14e24:	49 89 f5             	mov    %rsi,%r13
   14e27:	41 54                	push   %r12
   14e29:	41 89 fc             	mov    %edi,%r12d
   14e2c:	55                   	push   %rbp
   14e2d:	48 8d 2d 24 49 00 00 	lea    0x4924(%rip),%rbp        # 19758 <__do_global_dtors_aux_fini_array_entry>
   14e34:	53                   	push   %rbx
   14e35:	4c 29 fd             	sub    %r15,%rbp
   14e38:	48 83 ec 08          	sub    $0x8,%rsp
   14e3c:	e8 bf 01 ff ff       	callq  5000 <_init>
   14e41:	48 c1 fd 03          	sar    $0x3,%rbp
   14e45:	74 1f                	je     14e66 <__libc_csu_init+0x56>
   14e47:	31 db                	xor    %ebx,%ebx
   14e49:	0f 1f 80 00 00 00 00 	nopl   0x0(%rax)
   14e50:	4c 89 f2             	mov    %r14,%rdx
   14e53:	4c 89 ee             	mov    %r13,%rsi
   14e56:	44 89 e7             	mov    %r12d,%edi
   14e59:	41 ff 14 df          	callq  *(%r15,%rbx,8)
   14e5d:	48 83 c3 01          	add    $0x1,%rbx
   14e61:	48 39 dd             	cmp    %rbx,%rbp
   14e64:	75 ea                	jne    14e50 <__libc_csu_init+0x40>
   14e66:	48 83 c4 08          	add    $0x8,%rsp
   14e6a:	5b                   	pop    %rbx
   14e6b:	5d                   	pop    %rbp
   14e6c:	41 5c                	pop    %r12
   14e6e:	41 5d                	pop    %r13
   14e70:	41 5e                	pop    %r14
   14e72:	41 5f                	pop    %r15
   14e74:	c3                   	retq   
   14e75:	66 66 2e 0f 1f 84 00 	data16 nopw %cs:0x0(%rax,%rax,1)
   14e7c:	00 00 00 00 

0000000000014e80 <__libc_csu_fini>:
   14e80:	f3 0f 1e fa          	endbr64 
   14e84:	c3                   	retq   
