


Disassembly of section .text:

00000000000080a0 <_start>:
    80a0:	f3 0f 1e fa          	endbr64 
    80a4:	31 ed                	xor    %ebp,%ebp
    80a6:	49 89 d1             	mov    %rdx,%r9
    80a9:	5e                   	pop    %rsi
    80aa:	48 89 e2             	mov    %rsp,%rdx
    80ad:	48 83 e4 f0          	and    $0xfffffffffffffff0,%rsp
    80b1:	50                   	push   %rax
    80b2:	54                   	push   %rsp
    80b3:	4c 8d 05 a6 57 01 00 	lea    0x157a6(%rip),%r8        # 1d860 <__libc_csu_fini>
    80ba:	48 8d 0d 2f 57 01 00 	lea    0x1572f(%rip),%rcx        # 1d7f0 <__libc_csu_init>
    80c1:	48 8d 3d 9f 44 01 00 	lea    0x1449f(%rip),%rdi        # 1c567 <main>
    80c8:	ff 15 12 af 01 00    	callq  *0x1af12(%rip)        # 22fe0 <__libc_start_main@GLIBC_2.2.5>
    80ce:	f4                   	hlt    
    80cf:	90                   	nop

00000000000080d0 <deregister_tm_clones>:
    80d0:	48 8d 3d 29 e1 01 00 	lea    0x1e129(%rip),%rdi        # 26200 <__TMC_END__>
    80d7:	48 8d 05 22 e1 01 00 	lea    0x1e122(%rip),%rax        # 26200 <__TMC_END__>
    80de:	48 39 f8             	cmp    %rdi,%rax
    80e1:	74 15                	je     80f8 <deregister_tm_clones+0x28>
    80e3:	48 8b 05 ee ae 01 00 	mov    0x1aeee(%rip),%rax        # 22fd8 <_ITM_deregisterTMCloneTable>
    80ea:	48 85 c0             	test   %rax,%rax
    80ed:	74 09                	je     80f8 <deregister_tm_clones+0x28>
    80ef:	ff e0                	jmpq   *%rax
    80f1:	0f 1f 80 00 00 00 00 	nopl   0x0(%rax)
    80f8:	c3                   	retq   
    80f9:	0f 1f 80 00 00 00 00 	nopl   0x0(%rax)

0000000000008100 <register_tm_clones>:
    8100:	48 8d 3d f9 e0 01 00 	lea    0x1e0f9(%rip),%rdi        # 26200 <__TMC_END__>
    8107:	48 8d 35 f2 e0 01 00 	lea    0x1e0f2(%rip),%rsi        # 26200 <__TMC_END__>
    810e:	48 29 fe             	sub    %rdi,%rsi
    8111:	48 89 f0             	mov    %rsi,%rax
    8114:	48 c1 ee 3f          	shr    $0x3f,%rsi
    8118:	48 c1 f8 03          	sar    $0x3,%rax
    811c:	48 01 c6             	add    %rax,%rsi
    811f:	48 d1 fe             	sar    %rsi
    8122:	74 14                	je     8138 <register_tm_clones+0x38>
    8124:	48 8b 05 c5 ae 01 00 	mov    0x1aec5(%rip),%rax        # 22ff0 <_ITM_registerTMCloneTable>
    812b:	48 85 c0             	test   %rax,%rax
    812e:	74 08                	je     8138 <register_tm_clones+0x38>
    8130:	ff e0                	jmpq   *%rax
    8132:	66 0f 1f 44 00 00    	nopw   0x0(%rax,%rax,1)
    8138:	c3                   	retq   
    8139:	0f 1f 80 00 00 00 00 	nopl   0x0(%rax)

0000000000008140 <__do_global_dtors_aux>:
    8140:	f3 0f 1e fa          	endbr64 
    8144:	80 3d b5 e0 01 00 00 	cmpb   $0x0,0x1e0b5(%rip)        # 26200 <__TMC_END__>
    814b:	75 2b                	jne    8178 <__do_global_dtors_aux+0x38>
    814d:	55                   	push   %rbp
    814e:	48 83 3d a2 ae 01 00 	cmpq   $0x0,0x1aea2(%rip)        # 22ff8 <__cxa_finalize@GLIBC_2.2.5>
    8155:	00 
    8156:	48 89 e5             	mov    %rsp,%rbp
    8159:	74 0c                	je     8167 <__do_global_dtors_aux+0x27>
    815b:	48 8b 3d a6 ae 01 00 	mov    0x1aea6(%rip),%rdi        # 23008 <__dso_handle>
    8162:	e8 f9 fe ff ff       	callq  8060 <__cxa_finalize@plt>
    8167:	e8 64 ff ff ff       	callq  80d0 <deregister_tm_clones>
    816c:	c6 05 8d e0 01 00 01 	movb   $0x1,0x1e08d(%rip)        # 26200 <__TMC_END__>
    8173:	5d                   	pop    %rbp
    8174:	c3                   	retq   
    8175:	0f 1f 00             	nopl   (%rax)
    8178:	c3                   	retq   
    8179:	0f 1f 80 00 00 00 00 	nopl   0x0(%rax)

0000000000008180 <frame_dummy>:
    8180:	f3 0f 1e fa          	endbr64 
    8184:	e9 77 ff ff ff       	jmpq   8100 <register_tm_clones>

0000000000008189 <platform_main_begin>:
    8189:	f3 0f 1e fa          	endbr64 
    818d:	55                   	push   %rbp
    818e:	48 89 e5             	mov    %rsp,%rbp
    8191:	90                   	nop
    8192:	5d                   	pop    %rbp
    8193:	c3                   	retq   

0000000000008194 <platform_main_end>:
    8194:	f3 0f 1e fa          	endbr64 
    8198:	55                   	push   %rbp
    8199:	48 89 e5             	mov    %rsp,%rbp
    819c:	48 83 ec 10          	sub    $0x10,%rsp
    81a0:	89 7d fc             	mov    %edi,-0x4(%rbp)
    81a3:	89 75 f8             	mov    %esi,-0x8(%rbp)
    81a6:	8b 45 fc             	mov    -0x4(%rbp),%eax
    81a9:	89 c6                	mov    %eax,%esi
    81ab:	48 8d 3d 6e 5e 01 00 	lea    0x15e6e(%rip),%rdi        # 1e020 <_IO_stdin_used+0x20>
    81b2:	b8 00 00 00 00       	mov    $0x0,%eax
    81b7:	e8 c4 fe ff ff       	callq  8080 <printf@plt>
    81bc:	90                   	nop
    81bd:	c9                   	leaveq 
    81be:	c3                   	retq   

00000000000081bf <safe_unary_minus_func_int8_t_s>:
    81bf:	f3 0f 1e fa          	endbr64 
    81c3:	55                   	push   %rbp
    81c4:	48 89 e5             	mov    %rsp,%rbp
    81c7:	89 f8                	mov    %edi,%eax
    81c9:	88 45 fc             	mov    %al,-0x4(%rbp)
    81cc:	0f b6 45 fc          	movzbl -0x4(%rbp),%eax
    81d0:	f7 d8                	neg    %eax
    81d2:	5d                   	pop    %rbp
    81d3:	c3                   	retq   

00000000000081d4 <safe_add_func_int8_t_s_s>:
    81d4:	f3 0f 1e fa          	endbr64 
    81d8:	55                   	push   %rbp
    81d9:	48 89 e5             	mov    %rsp,%rbp
    81dc:	89 fa                	mov    %edi,%edx
    81de:	89 f0                	mov    %esi,%eax
    81e0:	88 55 fc             	mov    %dl,-0x4(%rbp)
    81e3:	88 45 f8             	mov    %al,-0x8(%rbp)
    81e6:	0f b6 55 fc          	movzbl -0x4(%rbp),%edx
    81ea:	0f b6 45 f8          	movzbl -0x8(%rbp),%eax
    81ee:	01 d0                	add    %edx,%eax
    81f0:	5d                   	pop    %rbp
    81f1:	c3                   	retq   

00000000000081f2 <safe_sub_func_int8_t_s_s>:
    81f2:	f3 0f 1e fa          	endbr64 
    81f6:	55                   	push   %rbp
    81f7:	48 89 e5             	mov    %rsp,%rbp
    81fa:	89 fa                	mov    %edi,%edx
    81fc:	89 f0                	mov    %esi,%eax
    81fe:	88 55 fc             	mov    %dl,-0x4(%rbp)
    8201:	88 45 f8             	mov    %al,-0x8(%rbp)
    8204:	0f b6 55 fc          	movzbl -0x4(%rbp),%edx
    8208:	0f b6 45 f8          	movzbl -0x8(%rbp),%eax
    820c:	29 c2                	sub    %eax,%edx
    820e:	89 d0                	mov    %edx,%eax
    8210:	5d                   	pop    %rbp
    8211:	c3                   	retq   

0000000000008212 <safe_mul_func_int8_t_s_s>:
    8212:	f3 0f 1e fa          	endbr64 
    8216:	55                   	push   %rbp
    8217:	48 89 e5             	mov    %rsp,%rbp
    821a:	89 fa                	mov    %edi,%edx
    821c:	89 f0                	mov    %esi,%eax
    821e:	88 55 fc             	mov    %dl,-0x4(%rbp)
    8221:	88 45 f8             	mov    %al,-0x8(%rbp)
    8224:	0f b6 45 fc          	movzbl -0x4(%rbp),%eax
    8228:	0f b6 55 f8          	movzbl -0x8(%rbp),%edx
    822c:	0f af c2             	imul   %edx,%eax
    822f:	5d                   	pop    %rbp
    8230:	c3                   	retq   

0000000000008231 <safe_mod_func_int8_t_s_s>:
    8231:	f3 0f 1e fa          	endbr64 
    8235:	55                   	push   %rbp
    8236:	48 89 e5             	mov    %rsp,%rbp
    8239:	89 fa                	mov    %edi,%edx
    823b:	89 f0                	mov    %esi,%eax
    823d:	88 55 fc             	mov    %dl,-0x4(%rbp)
    8240:	88 45 f8             	mov    %al,-0x8(%rbp)
    8243:	80 7d f8 00          	cmpb   $0x0,-0x8(%rbp)
    8247:	74 1b                	je     8264 <safe_mod_func_int8_t_s_s+0x33>
    8249:	80 7d fc 80          	cmpb   $0x80,-0x4(%rbp)
    824d:	75 06                	jne    8255 <safe_mod_func_int8_t_s_s+0x24>
    824f:	80 7d f8 ff          	cmpb   $0xff,-0x8(%rbp)
    8253:	74 0f                	je     8264 <safe_mod_func_int8_t_s_s+0x33>
    8255:	0f be 45 fc          	movsbl -0x4(%rbp),%eax
    8259:	0f be 4d f8          	movsbl -0x8(%rbp),%ecx
    825d:	99                   	cltd   
    825e:	f7 f9                	idiv   %ecx
    8260:	89 d0                	mov    %edx,%eax
    8262:	eb 04                	jmp    8268 <safe_mod_func_int8_t_s_s+0x37>
    8264:	0f b6 45 fc          	movzbl -0x4(%rbp),%eax
    8268:	5d                   	pop    %rbp
    8269:	c3                   	retq   

000000000000826a <safe_div_func_int8_t_s_s>:
    826a:	f3 0f 1e fa          	endbr64 
    826e:	55                   	push   %rbp
    826f:	48 89 e5             	mov    %rsp,%rbp
    8272:	89 fa                	mov    %edi,%edx
    8274:	89 f0                	mov    %esi,%eax
    8276:	88 55 fc             	mov    %dl,-0x4(%rbp)
    8279:	88 45 f8             	mov    %al,-0x8(%rbp)
    827c:	80 7d f8 00          	cmpb   $0x0,-0x8(%rbp)
    8280:	74 19                	je     829b <safe_div_func_int8_t_s_s+0x31>
    8282:	80 7d fc 80          	cmpb   $0x80,-0x4(%rbp)
    8286:	75 06                	jne    828e <safe_div_func_int8_t_s_s+0x24>
    8288:	80 7d f8 ff          	cmpb   $0xff,-0x8(%rbp)
    828c:	74 0d                	je     829b <safe_div_func_int8_t_s_s+0x31>
    828e:	0f be 45 fc          	movsbl -0x4(%rbp),%eax
    8292:	0f be 4d f8          	movsbl -0x8(%rbp),%ecx
    8296:	99                   	cltd   
    8297:	f7 f9                	idiv   %ecx
    8299:	eb 04                	jmp    829f <safe_div_func_int8_t_s_s+0x35>
    829b:	0f b6 45 fc          	movzbl -0x4(%rbp),%eax
    829f:	5d                   	pop    %rbp
    82a0:	c3                   	retq   

00000000000082a1 <safe_lshift_func_int8_t_s_s>:
    82a1:	f3 0f 1e fa          	endbr64 
    82a5:	55                   	push   %rbp
    82a6:	48 89 e5             	mov    %rsp,%rbp
    82a9:	89 f8                	mov    %edi,%eax
    82ab:	89 75 f8             	mov    %esi,-0x8(%rbp)
    82ae:	88 45 fc             	mov    %al,-0x4(%rbp)
    82b1:	80 7d fc 00          	cmpb   $0x0,-0x4(%rbp)
    82b5:	78 31                	js     82e8 <safe_lshift_func_int8_t_s_s+0x47>
    82b7:	83 7d f8 00          	cmpl   $0x0,-0x8(%rbp)
    82bb:	78 2b                	js     82e8 <safe_lshift_func_int8_t_s_s+0x47>
    82bd:	83 7d f8 1f          	cmpl   $0x1f,-0x8(%rbp)
    82c1:	7f 25                	jg     82e8 <safe_lshift_func_int8_t_s_s+0x47>
    82c3:	0f be 55 fc          	movsbl -0x4(%rbp),%edx
    82c7:	8b 45 f8             	mov    -0x8(%rbp),%eax
    82ca:	be 7f 00 00 00       	mov    $0x7f,%esi
    82cf:	89 c1                	mov    %eax,%ecx
    82d1:	d3 fe                	sar    %cl,%esi
    82d3:	89 f0                	mov    %esi,%eax
    82d5:	39 c2                	cmp    %eax,%edx
    82d7:	7f 0f                	jg     82e8 <safe_lshift_func_int8_t_s_s+0x47>
    82d9:	0f be 55 fc          	movsbl -0x4(%rbp),%edx
    82dd:	8b 45 f8             	mov    -0x8(%rbp),%eax
    82e0:	89 c1                	mov    %eax,%ecx
    82e2:	d3 e2                	shl    %cl,%edx
    82e4:	89 d0                	mov    %edx,%eax
    82e6:	eb 04                	jmp    82ec <safe_lshift_func_int8_t_s_s+0x4b>
    82e8:	0f b6 45 fc          	movzbl -0x4(%rbp),%eax
    82ec:	5d                   	pop    %rbp
    82ed:	c3                   	retq   

00000000000082ee <safe_lshift_func_int8_t_s_u>:
    82ee:	f3 0f 1e fa          	endbr64 
    82f2:	55                   	push   %rbp
    82f3:	48 89 e5             	mov    %rsp,%rbp
    82f6:	89 f8                	mov    %edi,%eax
    82f8:	89 75 f8             	mov    %esi,-0x8(%rbp)
    82fb:	88 45 fc             	mov    %al,-0x4(%rbp)
    82fe:	80 7d fc 00          	cmpb   $0x0,-0x4(%rbp)
    8302:	78 2b                	js     832f <safe_lshift_func_int8_t_s_u+0x41>
    8304:	83 7d f8 1f          	cmpl   $0x1f,-0x8(%rbp)
    8308:	77 25                	ja     832f <safe_lshift_func_int8_t_s_u+0x41>
    830a:	0f be 55 fc          	movsbl -0x4(%rbp),%edx
    830e:	8b 45 f8             	mov    -0x8(%rbp),%eax
    8311:	be 7f 00 00 00       	mov    $0x7f,%esi
    8316:	89 c1                	mov    %eax,%ecx
    8318:	d3 fe                	sar    %cl,%esi
    831a:	89 f0                	mov    %esi,%eax
    831c:	39 c2                	cmp    %eax,%edx
    831e:	7f 0f                	jg     832f <safe_lshift_func_int8_t_s_u+0x41>
    8320:	0f be 55 fc          	movsbl -0x4(%rbp),%edx
    8324:	8b 45 f8             	mov    -0x8(%rbp),%eax
    8327:	89 c1                	mov    %eax,%ecx
    8329:	d3 e2                	shl    %cl,%edx
    832b:	89 d0                	mov    %edx,%eax
    832d:	eb 04                	jmp    8333 <safe_lshift_func_int8_t_s_u+0x45>
    832f:	0f b6 45 fc          	movzbl -0x4(%rbp),%eax
    8333:	5d                   	pop    %rbp
    8334:	c3                   	retq   

0000000000008335 <safe_rshift_func_int8_t_s_s>:
    8335:	f3 0f 1e fa          	endbr64 
    8339:	55                   	push   %rbp
    833a:	48 89 e5             	mov    %rsp,%rbp
    833d:	89 f8                	mov    %edi,%eax
    833f:	89 75 f8             	mov    %esi,-0x8(%rbp)
    8342:	88 45 fc             	mov    %al,-0x4(%rbp)
    8345:	80 7d fc 00          	cmpb   $0x0,-0x4(%rbp)
    8349:	78 1b                	js     8366 <safe_rshift_func_int8_t_s_s+0x31>
    834b:	83 7d f8 00          	cmpl   $0x0,-0x8(%rbp)
    834f:	78 15                	js     8366 <safe_rshift_func_int8_t_s_s+0x31>
    8351:	83 7d f8 1f          	cmpl   $0x1f,-0x8(%rbp)
    8355:	7f 0f                	jg     8366 <safe_rshift_func_int8_t_s_s+0x31>
    8357:	0f be 55 fc          	movsbl -0x4(%rbp),%edx
    835b:	8b 45 f8             	mov    -0x8(%rbp),%eax
    835e:	89 c1                	mov    %eax,%ecx
    8360:	d3 fa                	sar    %cl,%edx
    8362:	89 d0                	mov    %edx,%eax
    8364:	eb 04                	jmp    836a <safe_rshift_func_int8_t_s_s+0x35>
    8366:	0f b6 45 fc          	movzbl -0x4(%rbp),%eax
    836a:	5d                   	pop    %rbp
    836b:	c3                   	retq   

000000000000836c <safe_rshift_func_int8_t_s_u>:
    836c:	f3 0f 1e fa          	endbr64 
    8370:	55                   	push   %rbp
    8371:	48 89 e5             	mov    %rsp,%rbp
    8374:	89 f8                	mov    %edi,%eax
    8376:	89 75 f8             	mov    %esi,-0x8(%rbp)
    8379:	88 45 fc             	mov    %al,-0x4(%rbp)
    837c:	80 7d fc 00          	cmpb   $0x0,-0x4(%rbp)
    8380:	78 15                	js     8397 <safe_rshift_func_int8_t_s_u+0x2b>
    8382:	83 7d f8 1f          	cmpl   $0x1f,-0x8(%rbp)
    8386:	77 0f                	ja     8397 <safe_rshift_func_int8_t_s_u+0x2b>
    8388:	0f be 55 fc          	movsbl -0x4(%rbp),%edx
    838c:	8b 45 f8             	mov    -0x8(%rbp),%eax
    838f:	89 c1                	mov    %eax,%ecx
    8391:	d3 fa                	sar    %cl,%edx
    8393:	89 d0                	mov    %edx,%eax
    8395:	eb 04                	jmp    839b <safe_rshift_func_int8_t_s_u+0x2f>
    8397:	0f b6 45 fc          	movzbl -0x4(%rbp),%eax
    839b:	5d                   	pop    %rbp
    839c:	c3                   	retq   

000000000000839d <safe_unary_minus_func_int16_t_s>:
    839d:	f3 0f 1e fa          	endbr64 
    83a1:	55                   	push   %rbp
    83a2:	48 89 e5             	mov    %rsp,%rbp
    83a5:	89 f8                	mov    %edi,%eax
    83a7:	66 89 45 fc          	mov    %ax,-0x4(%rbp)
    83ab:	0f b7 45 fc          	movzwl -0x4(%rbp),%eax
    83af:	f7 d8                	neg    %eax
    83b1:	5d                   	pop    %rbp
    83b2:	c3                   	retq   

00000000000083b3 <safe_add_func_int16_t_s_s>:
    83b3:	f3 0f 1e fa          	endbr64 
    83b7:	55                   	push   %rbp
    83b8:	48 89 e5             	mov    %rsp,%rbp
    83bb:	89 fa                	mov    %edi,%edx
    83bd:	89 f0                	mov    %esi,%eax
    83bf:	66 89 55 fc          	mov    %dx,-0x4(%rbp)
    83c3:	66 89 45 f8          	mov    %ax,-0x8(%rbp)
    83c7:	0f b7 55 fc          	movzwl -0x4(%rbp),%edx
    83cb:	0f b7 45 f8          	movzwl -0x8(%rbp),%eax
    83cf:	01 d0                	add    %edx,%eax
    83d1:	5d                   	pop    %rbp
    83d2:	c3                   	retq   

00000000000083d3 <safe_sub_func_int16_t_s_s>:
    83d3:	f3 0f 1e fa          	endbr64 
    83d7:	55                   	push   %rbp
    83d8:	48 89 e5             	mov    %rsp,%rbp
    83db:	89 fa                	mov    %edi,%edx
    83dd:	89 f0                	mov    %esi,%eax
    83df:	66 89 55 fc          	mov    %dx,-0x4(%rbp)
    83e3:	66 89 45 f8          	mov    %ax,-0x8(%rbp)
    83e7:	0f b7 55 fc          	movzwl -0x4(%rbp),%edx
    83eb:	0f b7 45 f8          	movzwl -0x8(%rbp),%eax
    83ef:	29 c2                	sub    %eax,%edx
    83f1:	89 d0                	mov    %edx,%eax
    83f3:	5d                   	pop    %rbp
    83f4:	c3                   	retq   

00000000000083f5 <safe_mul_func_int16_t_s_s>:
    83f5:	f3 0f 1e fa          	endbr64 
    83f9:	55                   	push   %rbp
    83fa:	48 89 e5             	mov    %rsp,%rbp
    83fd:	89 fa                	mov    %edi,%edx
    83ff:	89 f0                	mov    %esi,%eax
    8401:	66 89 55 fc          	mov    %dx,-0x4(%rbp)
    8405:	66 89 45 f8          	mov    %ax,-0x8(%rbp)
    8409:	0f b7 55 fc          	movzwl -0x4(%rbp),%edx
    840d:	0f b7 45 f8          	movzwl -0x8(%rbp),%eax
    8411:	0f af c2             	imul   %edx,%eax
    8414:	5d                   	pop    %rbp
    8415:	c3                   	retq   

0000000000008416 <safe_mod_func_int16_t_s_s>:
    8416:	f3 0f 1e fa          	endbr64 
    841a:	55                   	push   %rbp
    841b:	48 89 e5             	mov    %rsp,%rbp
    841e:	89 fa                	mov    %edi,%edx
    8420:	89 f0                	mov    %esi,%eax
    8422:	66 89 55 fc          	mov    %dx,-0x4(%rbp)
    8426:	66 89 45 f8          	mov    %ax,-0x8(%rbp)
    842a:	66 83 7d f8 00       	cmpw   $0x0,-0x8(%rbp)
    842f:	74 1e                	je     844f <safe_mod_func_int16_t_s_s+0x39>
    8431:	66 81 7d fc 00 80    	cmpw   $0x8000,-0x4(%rbp)
    8437:	75 07                	jne    8440 <safe_mod_func_int16_t_s_s+0x2a>
    8439:	66 83 7d f8 ff       	cmpw   $0xffff,-0x8(%rbp)
    843e:	74 0f                	je     844f <safe_mod_func_int16_t_s_s+0x39>
    8440:	0f bf 45 fc          	movswl -0x4(%rbp),%eax
    8444:	0f bf 4d f8          	movswl -0x8(%rbp),%ecx
    8448:	99                   	cltd   
    8449:	f7 f9                	idiv   %ecx
    844b:	89 d0                	mov    %edx,%eax
    844d:	eb 04                	jmp    8453 <safe_mod_func_int16_t_s_s+0x3d>
    844f:	0f b7 45 fc          	movzwl -0x4(%rbp),%eax
    8453:	5d                   	pop    %rbp
    8454:	c3                   	retq   

0000000000008455 <safe_div_func_int16_t_s_s>:
    8455:	f3 0f 1e fa          	endbr64 
    8459:	55                   	push   %rbp
    845a:	48 89 e5             	mov    %rsp,%rbp
    845d:	89 fa                	mov    %edi,%edx
    845f:	89 f0                	mov    %esi,%eax
    8461:	66 89 55 fc          	mov    %dx,-0x4(%rbp)
    8465:	66 89 45 f8          	mov    %ax,-0x8(%rbp)
    8469:	66 83 7d f8 00       	cmpw   $0x0,-0x8(%rbp)
    846e:	74 1c                	je     848c <safe_div_func_int16_t_s_s+0x37>
    8470:	66 81 7d fc 00 80    	cmpw   $0x8000,-0x4(%rbp)
    8476:	75 07                	jne    847f <safe_div_func_int16_t_s_s+0x2a>
    8478:	66 83 7d f8 ff       	cmpw   $0xffff,-0x8(%rbp)
    847d:	74 0d                	je     848c <safe_div_func_int16_t_s_s+0x37>
    847f:	0f bf 45 fc          	movswl -0x4(%rbp),%eax
    8483:	0f bf 4d f8          	movswl -0x8(%rbp),%ecx
    8487:	99                   	cltd   
    8488:	f7 f9                	idiv   %ecx
    848a:	eb 04                	jmp    8490 <safe_div_func_int16_t_s_s+0x3b>
    848c:	0f b7 45 fc          	movzwl -0x4(%rbp),%eax
    8490:	5d                   	pop    %rbp
    8491:	c3                   	retq   

0000000000008492 <safe_lshift_func_int16_t_s_s>:
    8492:	f3 0f 1e fa          	endbr64 
    8496:	55                   	push   %rbp
    8497:	48 89 e5             	mov    %rsp,%rbp
    849a:	89 f8                	mov    %edi,%eax
    849c:	89 75 f8             	mov    %esi,-0x8(%rbp)
    849f:	66 89 45 fc          	mov    %ax,-0x4(%rbp)
    84a3:	66 83 7d fc 00       	cmpw   $0x0,-0x4(%rbp)
    84a8:	78 31                	js     84db <safe_lshift_func_int16_t_s_s+0x49>
    84aa:	83 7d f8 00          	cmpl   $0x0,-0x8(%rbp)
    84ae:	78 2b                	js     84db <safe_lshift_func_int16_t_s_s+0x49>
    84b0:	83 7d f8 1f          	cmpl   $0x1f,-0x8(%rbp)
    84b4:	7f 25                	jg     84db <safe_lshift_func_int16_t_s_s+0x49>
    84b6:	0f bf 55 fc          	movswl -0x4(%rbp),%edx
    84ba:	8b 45 f8             	mov    -0x8(%rbp),%eax
    84bd:	be ff 7f 00 00       	mov    $0x7fff,%esi
    84c2:	89 c1                	mov    %eax,%ecx
    84c4:	d3 fe                	sar    %cl,%esi
    84c6:	89 f0                	mov    %esi,%eax
    84c8:	39 c2                	cmp    %eax,%edx
    84ca:	7f 0f                	jg     84db <safe_lshift_func_int16_t_s_s+0x49>
    84cc:	0f bf 55 fc          	movswl -0x4(%rbp),%edx
    84d0:	8b 45 f8             	mov    -0x8(%rbp),%eax
    84d3:	89 c1                	mov    %eax,%ecx
    84d5:	d3 e2                	shl    %cl,%edx
    84d7:	89 d0                	mov    %edx,%eax
    84d9:	eb 04                	jmp    84df <safe_lshift_func_int16_t_s_s+0x4d>
    84db:	0f b7 45 fc          	movzwl -0x4(%rbp),%eax
    84df:	5d                   	pop    %rbp
    84e0:	c3                   	retq   

00000000000084e1 <safe_lshift_func_int16_t_s_u>:
    84e1:	f3 0f 1e fa          	endbr64 
    84e5:	55                   	push   %rbp
    84e6:	48 89 e5             	mov    %rsp,%rbp
    84e9:	89 f8                	mov    %edi,%eax
    84eb:	89 75 f8             	mov    %esi,-0x8(%rbp)
    84ee:	66 89 45 fc          	mov    %ax,-0x4(%rbp)
    84f2:	66 83 7d fc 00       	cmpw   $0x0,-0x4(%rbp)
    84f7:	78 2b                	js     8524 <safe_lshift_func_int16_t_s_u+0x43>
    84f9:	83 7d f8 1f          	cmpl   $0x1f,-0x8(%rbp)
    84fd:	77 25                	ja     8524 <safe_lshift_func_int16_t_s_u+0x43>
    84ff:	0f bf 55 fc          	movswl -0x4(%rbp),%edx
    8503:	8b 45 f8             	mov    -0x8(%rbp),%eax
    8506:	be ff 7f 00 00       	mov    $0x7fff,%esi
    850b:	89 c1                	mov    %eax,%ecx
    850d:	d3 fe                	sar    %cl,%esi
    850f:	89 f0                	mov    %esi,%eax
    8511:	39 c2                	cmp    %eax,%edx
    8513:	7f 0f                	jg     8524 <safe_lshift_func_int16_t_s_u+0x43>
    8515:	0f bf 55 fc          	movswl -0x4(%rbp),%edx
    8519:	8b 45 f8             	mov    -0x8(%rbp),%eax
    851c:	89 c1                	mov    %eax,%ecx
    851e:	d3 e2                	shl    %cl,%edx
    8520:	89 d0                	mov    %edx,%eax
    8522:	eb 04                	jmp    8528 <safe_lshift_func_int16_t_s_u+0x47>
    8524:	0f b7 45 fc          	movzwl -0x4(%rbp),%eax
    8528:	5d                   	pop    %rbp
    8529:	c3                   	retq   

000000000000852a <safe_rshift_func_int16_t_s_s>:
    852a:	f3 0f 1e fa          	endbr64 
    852e:	55                   	push   %rbp
    852f:	48 89 e5             	mov    %rsp,%rbp
    8532:	89 f8                	mov    %edi,%eax
    8534:	89 75 f8             	mov    %esi,-0x8(%rbp)
    8537:	66 89 45 fc          	mov    %ax,-0x4(%rbp)
    853b:	66 83 7d fc 00       	cmpw   $0x0,-0x4(%rbp)
    8540:	78 1b                	js     855d <safe_rshift_func_int16_t_s_s+0x33>
    8542:	83 7d f8 00          	cmpl   $0x0,-0x8(%rbp)
    8546:	78 15                	js     855d <safe_rshift_func_int16_t_s_s+0x33>
    8548:	83 7d f8 1f          	cmpl   $0x1f,-0x8(%rbp)
    854c:	7f 0f                	jg     855d <safe_rshift_func_int16_t_s_s+0x33>
    854e:	0f bf 55 fc          	movswl -0x4(%rbp),%edx
    8552:	8b 45 f8             	mov    -0x8(%rbp),%eax
    8555:	89 c1                	mov    %eax,%ecx
    8557:	d3 fa                	sar    %cl,%edx
    8559:	89 d0                	mov    %edx,%eax
    855b:	eb 04                	jmp    8561 <safe_rshift_func_int16_t_s_s+0x37>
    855d:	0f b7 45 fc          	movzwl -0x4(%rbp),%eax
    8561:	5d                   	pop    %rbp
    8562:	c3                   	retq   

0000000000008563 <safe_rshift_func_int16_t_s_u>:
    8563:	f3 0f 1e fa          	endbr64 
    8567:	55                   	push   %rbp
    8568:	48 89 e5             	mov    %rsp,%rbp
    856b:	89 f8                	mov    %edi,%eax
    856d:	89 75 f8             	mov    %esi,-0x8(%rbp)
    8570:	66 89 45 fc          	mov    %ax,-0x4(%rbp)
    8574:	66 83 7d fc 00       	cmpw   $0x0,-0x4(%rbp)
    8579:	78 15                	js     8590 <safe_rshift_func_int16_t_s_u+0x2d>
    857b:	83 7d f8 1f          	cmpl   $0x1f,-0x8(%rbp)
    857f:	77 0f                	ja     8590 <safe_rshift_func_int16_t_s_u+0x2d>
    8581:	0f bf 55 fc          	movswl -0x4(%rbp),%edx
    8585:	8b 45 f8             	mov    -0x8(%rbp),%eax
    8588:	89 c1                	mov    %eax,%ecx
    858a:	d3 fa                	sar    %cl,%edx
    858c:	89 d0                	mov    %edx,%eax
    858e:	eb 04                	jmp    8594 <safe_rshift_func_int16_t_s_u+0x31>
    8590:	0f b7 45 fc          	movzwl -0x4(%rbp),%eax
    8594:	5d                   	pop    %rbp
    8595:	c3                   	retq   

0000000000008596 <safe_unary_minus_func_int32_t_s>:
    8596:	f3 0f 1e fa          	endbr64 
    859a:	55                   	push   %rbp
    859b:	48 89 e5             	mov    %rsp,%rbp
    859e:	89 7d fc             	mov    %edi,-0x4(%rbp)
    85a1:	81 7d fc 00 00 00 80 	cmpl   $0x80000000,-0x4(%rbp)
    85a8:	74 07                	je     85b1 <safe_unary_minus_func_int32_t_s+0x1b>
    85aa:	8b 45 fc             	mov    -0x4(%rbp),%eax
    85ad:	f7 d8                	neg    %eax
    85af:	eb 03                	jmp    85b4 <safe_unary_minus_func_int32_t_s+0x1e>
    85b1:	8b 45 fc             	mov    -0x4(%rbp),%eax
    85b4:	5d                   	pop    %rbp
    85b5:	c3                   	retq   

00000000000085b6 <safe_add_func_int32_t_s_s>:
    85b6:	f3 0f 1e fa          	endbr64 
    85ba:	55                   	push   %rbp
    85bb:	48 89 e5             	mov    %rsp,%rbp
    85be:	89 7d fc             	mov    %edi,-0x4(%rbp)
    85c1:	89 75 f8             	mov    %esi,-0x8(%rbp)
    85c4:	83 7d fc 00          	cmpl   $0x0,-0x4(%rbp)
    85c8:	7e 13                	jle    85dd <safe_add_func_int32_t_s_s+0x27>
    85ca:	83 7d f8 00          	cmpl   $0x0,-0x8(%rbp)
    85ce:	7e 0d                	jle    85dd <safe_add_func_int32_t_s_s+0x27>
    85d0:	b8 ff ff ff 7f       	mov    $0x7fffffff,%eax
    85d5:	2b 45 f8             	sub    -0x8(%rbp),%eax
    85d8:	39 45 fc             	cmp    %eax,-0x4(%rbp)
    85db:	7f 23                	jg     8600 <safe_add_func_int32_t_s_s+0x4a>
    85dd:	83 7d fc 00          	cmpl   $0x0,-0x4(%rbp)
    85e1:	79 13                	jns    85f6 <safe_add_func_int32_t_s_s+0x40>
    85e3:	83 7d f8 00          	cmpl   $0x0,-0x8(%rbp)
    85e7:	79 0d                	jns    85f6 <safe_add_func_int32_t_s_s+0x40>
    85e9:	b8 00 00 00 80       	mov    $0x80000000,%eax
    85ee:	2b 45 f8             	sub    -0x8(%rbp),%eax
    85f1:	39 45 fc             	cmp    %eax,-0x4(%rbp)
    85f4:	7c 0a                	jl     8600 <safe_add_func_int32_t_s_s+0x4a>
    85f6:	8b 55 fc             	mov    -0x4(%rbp),%edx
    85f9:	8b 45 f8             	mov    -0x8(%rbp),%eax
    85fc:	01 d0                	add    %edx,%eax
    85fe:	eb 03                	jmp    8603 <safe_add_func_int32_t_s_s+0x4d>
    8600:	8b 45 fc             	mov    -0x4(%rbp),%eax
    8603:	5d                   	pop    %rbp
    8604:	c3                   	retq   

0000000000008605 <safe_sub_func_int32_t_s_s>:
    8605:	f3 0f 1e fa          	endbr64 
    8609:	55                   	push   %rbp
    860a:	48 89 e5             	mov    %rsp,%rbp
    860d:	89 7d fc             	mov    %edi,-0x4(%rbp)
    8610:	89 75 f8             	mov    %esi,-0x8(%rbp)
    8613:	8b 45 fc             	mov    -0x4(%rbp),%eax
    8616:	33 45 f8             	xor    -0x8(%rbp),%eax
    8619:	89 c2                	mov    %eax,%edx
    861b:	8b 45 fc             	mov    -0x4(%rbp),%eax
    861e:	33 45 f8             	xor    -0x8(%rbp),%eax
    8621:	25 00 00 00 80       	and    $0x80000000,%eax
    8626:	33 45 fc             	xor    -0x4(%rbp),%eax
    8629:	2b 45 f8             	sub    -0x8(%rbp),%eax
    862c:	33 45 f8             	xor    -0x8(%rbp),%eax
    862f:	21 d0                	and    %edx,%eax
    8631:	85 c0                	test   %eax,%eax
    8633:	78 08                	js     863d <safe_sub_func_int32_t_s_s+0x38>
    8635:	8b 45 fc             	mov    -0x4(%rbp),%eax
    8638:	2b 45 f8             	sub    -0x8(%rbp),%eax
    863b:	eb 03                	jmp    8640 <safe_sub_func_int32_t_s_s+0x3b>
    863d:	8b 45 fc             	mov    -0x4(%rbp),%eax
    8640:	5d                   	pop    %rbp
    8641:	c3                   	retq   

0000000000008642 <safe_mul_func_int32_t_s_s>:
    8642:	f3 0f 1e fa          	endbr64 
    8646:	55                   	push   %rbp
    8647:	48 89 e5             	mov    %rsp,%rbp
    864a:	89 7d fc             	mov    %edi,-0x4(%rbp)
    864d:	89 75 f8             	mov    %esi,-0x8(%rbp)
    8650:	83 7d fc 00          	cmpl   $0x0,-0x4(%rbp)
    8654:	7e 14                	jle    866a <safe_mul_func_int32_t_s_s+0x28>
    8656:	83 7d f8 00          	cmpl   $0x0,-0x8(%rbp)
    865a:	7e 0e                	jle    866a <safe_mul_func_int32_t_s_s+0x28>
    865c:	b8 ff ff ff 7f       	mov    $0x7fffffff,%eax
    8661:	99                   	cltd   
    8662:	f7 7d f8             	idivl  -0x8(%rbp)
    8665:	39 45 fc             	cmp    %eax,-0x4(%rbp)
    8668:	7f 5d                	jg     86c7 <safe_mul_func_int32_t_s_s+0x85>
    866a:	83 7d fc 00          	cmpl   $0x0,-0x4(%rbp)
    866e:	7e 14                	jle    8684 <safe_mul_func_int32_t_s_s+0x42>
    8670:	83 7d f8 00          	cmpl   $0x0,-0x8(%rbp)
    8674:	7f 0e                	jg     8684 <safe_mul_func_int32_t_s_s+0x42>
    8676:	b8 00 00 00 80       	mov    $0x80000000,%eax
    867b:	99                   	cltd   
    867c:	f7 7d fc             	idivl  -0x4(%rbp)
    867f:	39 45 f8             	cmp    %eax,-0x8(%rbp)
    8682:	7c 43                	jl     86c7 <safe_mul_func_int32_t_s_s+0x85>
    8684:	83 7d fc 00          	cmpl   $0x0,-0x4(%rbp)
    8688:	7f 14                	jg     869e <safe_mul_func_int32_t_s_s+0x5c>
    868a:	83 7d f8 00          	cmpl   $0x0,-0x8(%rbp)
    868e:	7e 0e                	jle    869e <safe_mul_func_int32_t_s_s+0x5c>
    8690:	b8 00 00 00 80       	mov    $0x80000000,%eax
    8695:	99                   	cltd   
    8696:	f7 7d f8             	idivl  -0x8(%rbp)
    8699:	39 45 fc             	cmp    %eax,-0x4(%rbp)
    869c:	7c 29                	jl     86c7 <safe_mul_func_int32_t_s_s+0x85>
    869e:	83 7d fc 00          	cmpl   $0x0,-0x4(%rbp)
    86a2:	7f 1a                	jg     86be <safe_mul_func_int32_t_s_s+0x7c>
    86a4:	83 7d f8 00          	cmpl   $0x0,-0x8(%rbp)
    86a8:	7f 14                	jg     86be <safe_mul_func_int32_t_s_s+0x7c>
    86aa:	83 7d fc 00          	cmpl   $0x0,-0x4(%rbp)
    86ae:	74 0e                	je     86be <safe_mul_func_int32_t_s_s+0x7c>
    86b0:	b8 ff ff ff 7f       	mov    $0x7fffffff,%eax
    86b5:	99                   	cltd   
    86b6:	f7 7d fc             	idivl  -0x4(%rbp)
    86b9:	39 45 f8             	cmp    %eax,-0x8(%rbp)
    86bc:	7c 09                	jl     86c7 <safe_mul_func_int32_t_s_s+0x85>
    86be:	8b 45 fc             	mov    -0x4(%rbp),%eax
    86c1:	0f af 45 f8          	imul   -0x8(%rbp),%eax
    86c5:	eb 03                	jmp    86ca <safe_mul_func_int32_t_s_s+0x88>
    86c7:	8b 45 fc             	mov    -0x4(%rbp),%eax
    86ca:	5d                   	pop    %rbp
    86cb:	c3                   	retq   

00000000000086cc <safe_mod_func_int32_t_s_s>:
    86cc:	f3 0f 1e fa          	endbr64 
    86d0:	55                   	push   %rbp
    86d1:	48 89 e5             	mov    %rsp,%rbp
    86d4:	89 7d fc             	mov    %edi,-0x4(%rbp)
    86d7:	89 75 f8             	mov    %esi,-0x8(%rbp)
    86da:	83 7d f8 00          	cmpl   $0x0,-0x8(%rbp)
    86de:	74 1a                	je     86fa <safe_mod_func_int32_t_s_s+0x2e>
    86e0:	81 7d fc 00 00 00 80 	cmpl   $0x80000000,-0x4(%rbp)
    86e7:	75 06                	jne    86ef <safe_mod_func_int32_t_s_s+0x23>
    86e9:	83 7d f8 ff          	cmpl   $0xffffffff,-0x8(%rbp)
    86ed:	74 0b                	je     86fa <safe_mod_func_int32_t_s_s+0x2e>
    86ef:	8b 45 fc             	mov    -0x4(%rbp),%eax
    86f2:	99                   	cltd   
    86f3:	f7 7d f8             	idivl  -0x8(%rbp)
    86f6:	89 d0                	mov    %edx,%eax
    86f8:	eb 03                	jmp    86fd <safe_mod_func_int32_t_s_s+0x31>
    86fa:	8b 45 fc             	mov    -0x4(%rbp),%eax
    86fd:	5d                   	pop    %rbp
    86fe:	c3                   	retq   

00000000000086ff <safe_div_func_int32_t_s_s>:
    86ff:	f3 0f 1e fa          	endbr64 
    8703:	55                   	push   %rbp
    8704:	48 89 e5             	mov    %rsp,%rbp
    8707:	89 7d fc             	mov    %edi,-0x4(%rbp)
    870a:	89 75 f8             	mov    %esi,-0x8(%rbp)
    870d:	83 7d f8 00          	cmpl   $0x0,-0x8(%rbp)
    8711:	74 18                	je     872b <safe_div_func_int32_t_s_s+0x2c>
    8713:	81 7d fc 00 00 00 80 	cmpl   $0x80000000,-0x4(%rbp)
    871a:	75 06                	jne    8722 <safe_div_func_int32_t_s_s+0x23>
    871c:	83 7d f8 ff          	cmpl   $0xffffffff,-0x8(%rbp)
    8720:	74 09                	je     872b <safe_div_func_int32_t_s_s+0x2c>
    8722:	8b 45 fc             	mov    -0x4(%rbp),%eax
    8725:	99                   	cltd   
    8726:	f7 7d f8             	idivl  -0x8(%rbp)
    8729:	eb 03                	jmp    872e <safe_div_func_int32_t_s_s+0x2f>
    872b:	8b 45 fc             	mov    -0x4(%rbp),%eax
    872e:	5d                   	pop    %rbp
    872f:	c3                   	retq   

0000000000008730 <safe_lshift_func_int32_t_s_s>:
    8730:	f3 0f 1e fa          	endbr64 
    8734:	55                   	push   %rbp
    8735:	48 89 e5             	mov    %rsp,%rbp
    8738:	89 7d fc             	mov    %edi,-0x4(%rbp)
    873b:	89 75 f8             	mov    %esi,-0x8(%rbp)
    873e:	83 7d fc 00          	cmpl   $0x0,-0x4(%rbp)
    8742:	78 2d                	js     8771 <safe_lshift_func_int32_t_s_s+0x41>
    8744:	83 7d f8 00          	cmpl   $0x0,-0x8(%rbp)
    8748:	78 27                	js     8771 <safe_lshift_func_int32_t_s_s+0x41>
    874a:	83 7d f8 1f          	cmpl   $0x1f,-0x8(%rbp)
    874e:	7f 21                	jg     8771 <safe_lshift_func_int32_t_s_s+0x41>
    8750:	8b 45 f8             	mov    -0x8(%rbp),%eax
    8753:	ba ff ff ff 7f       	mov    $0x7fffffff,%edx
    8758:	89 c1                	mov    %eax,%ecx
    875a:	d3 fa                	sar    %cl,%edx
    875c:	89 d0                	mov    %edx,%eax
    875e:	39 45 fc             	cmp    %eax,-0x4(%rbp)
    8761:	7f 0e                	jg     8771 <safe_lshift_func_int32_t_s_s+0x41>
    8763:	8b 45 f8             	mov    -0x8(%rbp),%eax
    8766:	8b 55 fc             	mov    -0x4(%rbp),%edx
    8769:	89 c1                	mov    %eax,%ecx
    876b:	d3 e2                	shl    %cl,%edx
    876d:	89 d0                	mov    %edx,%eax
    876f:	eb 03                	jmp    8774 <safe_lshift_func_int32_t_s_s+0x44>
    8771:	8b 45 fc             	mov    -0x4(%rbp),%eax
    8774:	5d                   	pop    %rbp
    8775:	c3                   	retq   

0000000000008776 <safe_lshift_func_int32_t_s_u>:
    8776:	f3 0f 1e fa          	endbr64 
    877a:	55                   	push   %rbp
    877b:	48 89 e5             	mov    %rsp,%rbp
    877e:	89 7d fc             	mov    %edi,-0x4(%rbp)
    8781:	89 75 f8             	mov    %esi,-0x8(%rbp)
    8784:	83 7d fc 00          	cmpl   $0x0,-0x4(%rbp)
    8788:	78 27                	js     87b1 <safe_lshift_func_int32_t_s_u+0x3b>
    878a:	83 7d f8 1f          	cmpl   $0x1f,-0x8(%rbp)
    878e:	77 21                	ja     87b1 <safe_lshift_func_int32_t_s_u+0x3b>
    8790:	8b 45 f8             	mov    -0x8(%rbp),%eax
    8793:	ba ff ff ff 7f       	mov    $0x7fffffff,%edx
    8798:	89 c1                	mov    %eax,%ecx
    879a:	d3 fa                	sar    %cl,%edx
    879c:	89 d0                	mov    %edx,%eax
    879e:	39 45 fc             	cmp    %eax,-0x4(%rbp)
    87a1:	7f 0e                	jg     87b1 <safe_lshift_func_int32_t_s_u+0x3b>
    87a3:	8b 45 f8             	mov    -0x8(%rbp),%eax
    87a6:	8b 55 fc             	mov    -0x4(%rbp),%edx
    87a9:	89 c1                	mov    %eax,%ecx
    87ab:	d3 e2                	shl    %cl,%edx
    87ad:	89 d0                	mov    %edx,%eax
    87af:	eb 03                	jmp    87b4 <safe_lshift_func_int32_t_s_u+0x3e>
    87b1:	8b 45 fc             	mov    -0x4(%rbp),%eax
    87b4:	5d                   	pop    %rbp
    87b5:	c3                   	retq   

00000000000087b6 <safe_rshift_func_int32_t_s_s>:
    87b6:	f3 0f 1e fa          	endbr64 
    87ba:	55                   	push   %rbp
    87bb:	48 89 e5             	mov    %rsp,%rbp
    87be:	89 7d fc             	mov    %edi,-0x4(%rbp)
    87c1:	89 75 f8             	mov    %esi,-0x8(%rbp)
    87c4:	83 7d fc 00          	cmpl   $0x0,-0x4(%rbp)
    87c8:	78 1a                	js     87e4 <safe_rshift_func_int32_t_s_s+0x2e>
    87ca:	83 7d f8 00          	cmpl   $0x0,-0x8(%rbp)
    87ce:	78 14                	js     87e4 <safe_rshift_func_int32_t_s_s+0x2e>
    87d0:	83 7d f8 1f          	cmpl   $0x1f,-0x8(%rbp)
    87d4:	7f 0e                	jg     87e4 <safe_rshift_func_int32_t_s_s+0x2e>
    87d6:	8b 45 f8             	mov    -0x8(%rbp),%eax
    87d9:	8b 55 fc             	mov    -0x4(%rbp),%edx
    87dc:	89 c1                	mov    %eax,%ecx
    87de:	d3 fa                	sar    %cl,%edx
    87e0:	89 d0                	mov    %edx,%eax
    87e2:	eb 03                	jmp    87e7 <safe_rshift_func_int32_t_s_s+0x31>
    87e4:	8b 45 fc             	mov    -0x4(%rbp),%eax
    87e7:	5d                   	pop    %rbp
    87e8:	c3                   	retq   

00000000000087e9 <safe_rshift_func_int32_t_s_u>:
    87e9:	f3 0f 1e fa          	endbr64 
    87ed:	55                   	push   %rbp
    87ee:	48 89 e5             	mov    %rsp,%rbp
    87f1:	89 7d fc             	mov    %edi,-0x4(%rbp)
    87f4:	89 75 f8             	mov    %esi,-0x8(%rbp)
    87f7:	83 7d fc 00          	cmpl   $0x0,-0x4(%rbp)
    87fb:	78 14                	js     8811 <safe_rshift_func_int32_t_s_u+0x28>
    87fd:	83 7d f8 1f          	cmpl   $0x1f,-0x8(%rbp)
    8801:	77 0e                	ja     8811 <safe_rshift_func_int32_t_s_u+0x28>
    8803:	8b 45 f8             	mov    -0x8(%rbp),%eax
    8806:	8b 55 fc             	mov    -0x4(%rbp),%edx
    8809:	89 c1                	mov    %eax,%ecx
    880b:	d3 fa                	sar    %cl,%edx
    880d:	89 d0                	mov    %edx,%eax
    880f:	eb 03                	jmp    8814 <safe_rshift_func_int32_t_s_u+0x2b>
    8811:	8b 45 fc             	mov    -0x4(%rbp),%eax
    8814:	5d                   	pop    %rbp
    8815:	c3                   	retq   

0000000000008816 <safe_unary_minus_func_int64_t_s>:
    8816:	f3 0f 1e fa          	endbr64 
    881a:	55                   	push   %rbp
    881b:	48 89 e5             	mov    %rsp,%rbp
    881e:	48 89 7d f8          	mov    %rdi,-0x8(%rbp)
    8822:	48 b8 00 00 00 00 00 	movabs $0x8000000000000000,%rax
    8829:	00 00 80 
    882c:	48 39 45 f8          	cmp    %rax,-0x8(%rbp)
    8830:	74 09                	je     883b <safe_unary_minus_func_int64_t_s+0x25>
    8832:	48 8b 45 f8          	mov    -0x8(%rbp),%rax
    8836:	48 f7 d8             	neg    %rax
    8839:	eb 04                	jmp    883f <safe_unary_minus_func_int64_t_s+0x29>
    883b:	48 8b 45 f8          	mov    -0x8(%rbp),%rax
    883f:	5d                   	pop    %rbp
    8840:	c3                   	retq   

0000000000008841 <safe_add_func_int64_t_s_s>:
    8841:	f3 0f 1e fa          	endbr64 
    8845:	55                   	push   %rbp
    8846:	48 89 e5             	mov    %rsp,%rbp
    8849:	48 89 7d f8          	mov    %rdi,-0x8(%rbp)
    884d:	48 89 75 f0          	mov    %rsi,-0x10(%rbp)
    8851:	48 83 7d f8 00       	cmpq   $0x0,-0x8(%rbp)
    8856:	7e 1b                	jle    8873 <safe_add_func_int64_t_s_s+0x32>
    8858:	48 83 7d f0 00       	cmpq   $0x0,-0x10(%rbp)
    885d:	7e 14                	jle    8873 <safe_add_func_int64_t_s_s+0x32>
    885f:	48 b8 ff ff ff ff ff 	movabs $0x7fffffffffffffff,%rax
    8866:	ff ff 7f 
    8869:	48 2b 45 f0          	sub    -0x10(%rbp),%rax
    886d:	48 39 45 f8          	cmp    %rax,-0x8(%rbp)
    8871:	7f 2f                	jg     88a2 <safe_add_func_int64_t_s_s+0x61>
    8873:	48 83 7d f8 00       	cmpq   $0x0,-0x8(%rbp)
    8878:	79 1b                	jns    8895 <safe_add_func_int64_t_s_s+0x54>
    887a:	48 83 7d f0 00       	cmpq   $0x0,-0x10(%rbp)
    887f:	79 14                	jns    8895 <safe_add_func_int64_t_s_s+0x54>
    8881:	48 b8 00 00 00 00 00 	movabs $0x8000000000000000,%rax
    8888:	00 00 80 
    888b:	48 2b 45 f0          	sub    -0x10(%rbp),%rax
    888f:	48 39 45 f8          	cmp    %rax,-0x8(%rbp)
    8893:	7c 0d                	jl     88a2 <safe_add_func_int64_t_s_s+0x61>
    8895:	48 8b 55 f8          	mov    -0x8(%rbp),%rdx
    8899:	48 8b 45 f0          	mov    -0x10(%rbp),%rax
    889d:	48 01 d0             	add    %rdx,%rax
    88a0:	eb 04                	jmp    88a6 <safe_add_func_int64_t_s_s+0x65>
    88a2:	48 8b 45 f8          	mov    -0x8(%rbp),%rax
    88a6:	5d                   	pop    %rbp
    88a7:	c3                   	retq   

00000000000088a8 <safe_sub_func_int64_t_s_s>:
    88a8:	f3 0f 1e fa          	endbr64 
    88ac:	55                   	push   %rbp
    88ad:	48 89 e5             	mov    %rsp,%rbp
    88b0:	48 89 7d f8          	mov    %rdi,-0x8(%rbp)
    88b4:	48 89 75 f0          	mov    %rsi,-0x10(%rbp)
    88b8:	48 8b 45 f8          	mov    -0x8(%rbp),%rax
    88bc:	48 33 45 f0          	xor    -0x10(%rbp),%rax
    88c0:	48 89 c2             	mov    %rax,%rdx
    88c3:	48 8b 45 f8          	mov    -0x8(%rbp),%rax
    88c7:	48 33 45 f0          	xor    -0x10(%rbp),%rax
    88cb:	48 b9 00 00 00 00 00 	movabs $0x8000000000000000,%rcx
    88d2:	00 00 80 
    88d5:	48 21 c8             	and    %rcx,%rax
    88d8:	48 33 45 f8          	xor    -0x8(%rbp),%rax
    88dc:	48 2b 45 f0          	sub    -0x10(%rbp),%rax
    88e0:	48 33 45 f0          	xor    -0x10(%rbp),%rax
    88e4:	48 21 d0             	and    %rdx,%rax
    88e7:	48 85 c0             	test   %rax,%rax
    88ea:	78 0a                	js     88f6 <safe_sub_func_int64_t_s_s+0x4e>
    88ec:	48 8b 45 f8          	mov    -0x8(%rbp),%rax
    88f0:	48 2b 45 f0          	sub    -0x10(%rbp),%rax
    88f4:	eb 04                	jmp    88fa <safe_sub_func_int64_t_s_s+0x52>
    88f6:	48 8b 45 f8          	mov    -0x8(%rbp),%rax
    88fa:	5d                   	pop    %rbp
    88fb:	c3                   	retq   

00000000000088fc <safe_mul_func_int64_t_s_s>:
    88fc:	f3 0f 1e fa          	endbr64 
    8900:	55                   	push   %rbp
    8901:	48 89 e5             	mov    %rsp,%rbp
    8904:	48 89 7d f8          	mov    %rdi,-0x8(%rbp)
    8908:	48 89 75 f0          	mov    %rsi,-0x10(%rbp)
    890c:	48 83 7d f8 00       	cmpq   $0x0,-0x8(%rbp)
    8911:	7e 1d                	jle    8930 <safe_mul_func_int64_t_s_s+0x34>
    8913:	48 83 7d f0 00       	cmpq   $0x0,-0x10(%rbp)
    8918:	7e 16                	jle    8930 <safe_mul_func_int64_t_s_s+0x34>
    891a:	48 b8 ff ff ff ff ff 	movabs $0x7fffffffffffffff,%rax
    8921:	ff ff 7f 
    8924:	48 99                	cqto   
    8926:	48 f7 7d f0          	idivq  -0x10(%rbp)
    892a:	48 39 45 f8          	cmp    %rax,-0x8(%rbp)
    892e:	7f 7e                	jg     89ae <safe_mul_func_int64_t_s_s+0xb2>
    8930:	48 83 7d f8 00       	cmpq   $0x0,-0x8(%rbp)
    8935:	7e 1d                	jle    8954 <safe_mul_func_int64_t_s_s+0x58>
    8937:	48 83 7d f0 00       	cmpq   $0x0,-0x10(%rbp)
    893c:	7f 16                	jg     8954 <safe_mul_func_int64_t_s_s+0x58>
    893e:	48 b8 00 00 00 00 00 	movabs $0x8000000000000000,%rax
    8945:	00 00 80 
    8948:	48 99                	cqto   
    894a:	48 f7 7d f8          	idivq  -0x8(%rbp)
    894e:	48 39 45 f0          	cmp    %rax,-0x10(%rbp)
    8952:	7c 5a                	jl     89ae <safe_mul_func_int64_t_s_s+0xb2>
    8954:	48 83 7d f8 00       	cmpq   $0x0,-0x8(%rbp)
    8959:	7f 1d                	jg     8978 <safe_mul_func_int64_t_s_s+0x7c>
    895b:	48 83 7d f0 00       	cmpq   $0x0,-0x10(%rbp)
    8960:	7e 16                	jle    8978 <safe_mul_func_int64_t_s_s+0x7c>
    8962:	48 b8 00 00 00 00 00 	movabs $0x8000000000000000,%rax
    8969:	00 00 80 
    896c:	48 99                	cqto   
    896e:	48 f7 7d f0          	idivq  -0x10(%rbp)
    8972:	48 39 45 f8          	cmp    %rax,-0x8(%rbp)
    8976:	7c 36                	jl     89ae <safe_mul_func_int64_t_s_s+0xb2>
    8978:	48 83 7d f8 00       	cmpq   $0x0,-0x8(%rbp)
    897d:	7f 24                	jg     89a3 <safe_mul_func_int64_t_s_s+0xa7>
    897f:	48 83 7d f0 00       	cmpq   $0x0,-0x10(%rbp)
    8984:	7f 1d                	jg     89a3 <safe_mul_func_int64_t_s_s+0xa7>
    8986:	48 83 7d f8 00       	cmpq   $0x0,-0x8(%rbp)
    898b:	74 16                	je     89a3 <safe_mul_func_int64_t_s_s+0xa7>
    898d:	48 b8 ff ff ff ff ff 	movabs $0x7fffffffffffffff,%rax
    8994:	ff ff 7f 
    8997:	48 99                	cqto   
    8999:	48 f7 7d f8          	idivq  -0x8(%rbp)
    899d:	48 39 45 f0          	cmp    %rax,-0x10(%rbp)
    89a1:	7c 0b                	jl     89ae <safe_mul_func_int64_t_s_s+0xb2>
    89a3:	48 8b 45 f8          	mov    -0x8(%rbp),%rax
    89a7:	48 0f af 45 f0       	imul   -0x10(%rbp),%rax
    89ac:	eb 04                	jmp    89b2 <safe_mul_func_int64_t_s_s+0xb6>
    89ae:	48 8b 45 f8          	mov    -0x8(%rbp),%rax
    89b2:	5d                   	pop    %rbp
    89b3:	c3                   	retq   

00000000000089b4 <safe_mod_func_int64_t_s_s>:
    89b4:	f3 0f 1e fa          	endbr64 
    89b8:	55                   	push   %rbp
    89b9:	48 89 e5             	mov    %rsp,%rbp
    89bc:	48 89 7d f8          	mov    %rdi,-0x8(%rbp)
    89c0:	48 89 75 f0          	mov    %rsi,-0x10(%rbp)
    89c4:	48 83 7d f0 00       	cmpq   $0x0,-0x10(%rbp)
    89c9:	74 26                	je     89f1 <safe_mod_func_int64_t_s_s+0x3d>
    89cb:	48 b8 00 00 00 00 00 	movabs $0x8000000000000000,%rax
    89d2:	00 00 80 
    89d5:	48 39 45 f8          	cmp    %rax,-0x8(%rbp)
    89d9:	75 07                	jne    89e2 <safe_mod_func_int64_t_s_s+0x2e>
    89db:	48 83 7d f0 ff       	cmpq   $0xffffffffffffffff,-0x10(%rbp)
    89e0:	74 0f                	je     89f1 <safe_mod_func_int64_t_s_s+0x3d>
    89e2:	48 8b 45 f8          	mov    -0x8(%rbp),%rax
    89e6:	48 99                	cqto   
    89e8:	48 f7 7d f0          	idivq  -0x10(%rbp)
    89ec:	48 89 d0             	mov    %rdx,%rax
    89ef:	eb 04                	jmp    89f5 <safe_mod_func_int64_t_s_s+0x41>
    89f1:	48 8b 45 f8          	mov    -0x8(%rbp),%rax
    89f5:	5d                   	pop    %rbp
    89f6:	c3                   	retq   

00000000000089f7 <safe_div_func_int64_t_s_s>:
    89f7:	f3 0f 1e fa          	endbr64 
    89fb:	55                   	push   %rbp
    89fc:	48 89 e5             	mov    %rsp,%rbp
    89ff:	48 89 7d f8          	mov    %rdi,-0x8(%rbp)
    8a03:	48 89 75 f0          	mov    %rsi,-0x10(%rbp)
    8a07:	48 83 7d f0 00       	cmpq   $0x0,-0x10(%rbp)
    8a0c:	74 23                	je     8a31 <safe_div_func_int64_t_s_s+0x3a>
    8a0e:	48 b8 00 00 00 00 00 	movabs $0x8000000000000000,%rax
    8a15:	00 00 80 
    8a18:	48 39 45 f8          	cmp    %rax,-0x8(%rbp)
    8a1c:	75 07                	jne    8a25 <safe_div_func_int64_t_s_s+0x2e>
    8a1e:	48 83 7d f0 ff       	cmpq   $0xffffffffffffffff,-0x10(%rbp)
    8a23:	74 0c                	je     8a31 <safe_div_func_int64_t_s_s+0x3a>
    8a25:	48 8b 45 f8          	mov    -0x8(%rbp),%rax
    8a29:	48 99                	cqto   
    8a2b:	48 f7 7d f0          	idivq  -0x10(%rbp)
    8a2f:	eb 04                	jmp    8a35 <safe_div_func_int64_t_s_s+0x3e>
    8a31:	48 8b 45 f8          	mov    -0x8(%rbp),%rax
    8a35:	5d                   	pop    %rbp
    8a36:	c3                   	retq   

0000000000008a37 <safe_lshift_func_int64_t_s_s>:
    8a37:	f3 0f 1e fa          	endbr64 
    8a3b:	55                   	push   %rbp
    8a3c:	48 89 e5             	mov    %rsp,%rbp
    8a3f:	48 89 7d f8          	mov    %rdi,-0x8(%rbp)
    8a43:	89 75 f4             	mov    %esi,-0xc(%rbp)
    8a46:	48 83 7d f8 00       	cmpq   $0x0,-0x8(%rbp)
    8a4b:	78 38                	js     8a85 <safe_lshift_func_int64_t_s_s+0x4e>
    8a4d:	83 7d f4 00          	cmpl   $0x0,-0xc(%rbp)
    8a51:	78 32                	js     8a85 <safe_lshift_func_int64_t_s_s+0x4e>
    8a53:	83 7d f4 1f          	cmpl   $0x1f,-0xc(%rbp)
    8a57:	7f 2c                	jg     8a85 <safe_lshift_func_int64_t_s_s+0x4e>
    8a59:	8b 45 f4             	mov    -0xc(%rbp),%eax
    8a5c:	48 ba ff ff ff ff ff 	movabs $0x7fffffffffffffff,%rdx
    8a63:	ff ff 7f 
    8a66:	89 c1                	mov    %eax,%ecx
    8a68:	48 d3 fa             	sar    %cl,%rdx
    8a6b:	48 89 d0             	mov    %rdx,%rax
    8a6e:	48 39 45 f8          	cmp    %rax,-0x8(%rbp)
    8a72:	7f 11                	jg     8a85 <safe_lshift_func_int64_t_s_s+0x4e>
    8a74:	8b 45 f4             	mov    -0xc(%rbp),%eax
    8a77:	48 8b 55 f8          	mov    -0x8(%rbp),%rdx
    8a7b:	89 c1                	mov    %eax,%ecx
    8a7d:	48 d3 e2             	shl    %cl,%rdx
    8a80:	48 89 d0             	mov    %rdx,%rax
    8a83:	eb 04                	jmp    8a89 <safe_lshift_func_int64_t_s_s+0x52>
    8a85:	48 8b 45 f8          	mov    -0x8(%rbp),%rax
    8a89:	5d                   	pop    %rbp
    8a8a:	c3                   	retq   

0000000000008a8b <safe_lshift_func_int64_t_s_u>:
    8a8b:	f3 0f 1e fa          	endbr64 
    8a8f:	55                   	push   %rbp
    8a90:	48 89 e5             	mov    %rsp,%rbp
    8a93:	48 89 7d f8          	mov    %rdi,-0x8(%rbp)
    8a97:	89 75 f4             	mov    %esi,-0xc(%rbp)
    8a9a:	48 83 7d f8 00       	cmpq   $0x0,-0x8(%rbp)
    8a9f:	78 32                	js     8ad3 <safe_lshift_func_int64_t_s_u+0x48>
    8aa1:	83 7d f4 1f          	cmpl   $0x1f,-0xc(%rbp)
    8aa5:	77 2c                	ja     8ad3 <safe_lshift_func_int64_t_s_u+0x48>
    8aa7:	8b 45 f4             	mov    -0xc(%rbp),%eax
    8aaa:	48 ba ff ff ff ff ff 	movabs $0x7fffffffffffffff,%rdx
    8ab1:	ff ff 7f 
    8ab4:	89 c1                	mov    %eax,%ecx
    8ab6:	48 d3 fa             	sar    %cl,%rdx
    8ab9:	48 89 d0             	mov    %rdx,%rax
    8abc:	48 39 45 f8          	cmp    %rax,-0x8(%rbp)
    8ac0:	7f 11                	jg     8ad3 <safe_lshift_func_int64_t_s_u+0x48>
    8ac2:	8b 45 f4             	mov    -0xc(%rbp),%eax
    8ac5:	48 8b 55 f8          	mov    -0x8(%rbp),%rdx
    8ac9:	89 c1                	mov    %eax,%ecx
    8acb:	48 d3 e2             	shl    %cl,%rdx
    8ace:	48 89 d0             	mov    %rdx,%rax
    8ad1:	eb 04                	jmp    8ad7 <safe_lshift_func_int64_t_s_u+0x4c>
    8ad3:	48 8b 45 f8          	mov    -0x8(%rbp),%rax
    8ad7:	5d                   	pop    %rbp
    8ad8:	c3                   	retq   

0000000000008ad9 <safe_rshift_func_int64_t_s_s>:
    8ad9:	f3 0f 1e fa          	endbr64 
    8add:	55                   	push   %rbp
    8ade:	48 89 e5             	mov    %rsp,%rbp
    8ae1:	48 89 7d f8          	mov    %rdi,-0x8(%rbp)
    8ae5:	89 75 f4             	mov    %esi,-0xc(%rbp)
    8ae8:	48 83 7d f8 00       	cmpq   $0x0,-0x8(%rbp)
    8aed:	78 1d                	js     8b0c <safe_rshift_func_int64_t_s_s+0x33>
    8aef:	83 7d f4 00          	cmpl   $0x0,-0xc(%rbp)
    8af3:	78 17                	js     8b0c <safe_rshift_func_int64_t_s_s+0x33>
    8af5:	83 7d f4 1f          	cmpl   $0x1f,-0xc(%rbp)
    8af9:	7f 11                	jg     8b0c <safe_rshift_func_int64_t_s_s+0x33>
    8afb:	8b 45 f4             	mov    -0xc(%rbp),%eax
    8afe:	48 8b 55 f8          	mov    -0x8(%rbp),%rdx
    8b02:	89 c1                	mov    %eax,%ecx
    8b04:	48 d3 fa             	sar    %cl,%rdx
    8b07:	48 89 d0             	mov    %rdx,%rax
    8b0a:	eb 04                	jmp    8b10 <safe_rshift_func_int64_t_s_s+0x37>
    8b0c:	48 8b 45 f8          	mov    -0x8(%rbp),%rax
    8b10:	5d                   	pop    %rbp
    8b11:	c3                   	retq   

0000000000008b12 <safe_rshift_func_int64_t_s_u>:
    8b12:	f3 0f 1e fa          	endbr64 
    8b16:	55                   	push   %rbp
    8b17:	48 89 e5             	mov    %rsp,%rbp
    8b1a:	48 89 7d f8          	mov    %rdi,-0x8(%rbp)
    8b1e:	89 75 f4             	mov    %esi,-0xc(%rbp)
    8b21:	48 83 7d f8 00       	cmpq   $0x0,-0x8(%rbp)
    8b26:	78 17                	js     8b3f <safe_rshift_func_int64_t_s_u+0x2d>
    8b28:	83 7d f4 1f          	cmpl   $0x1f,-0xc(%rbp)
    8b2c:	77 11                	ja     8b3f <safe_rshift_func_int64_t_s_u+0x2d>
    8b2e:	8b 45 f4             	mov    -0xc(%rbp),%eax
    8b31:	48 8b 55 f8          	mov    -0x8(%rbp),%rdx
    8b35:	89 c1                	mov    %eax,%ecx
    8b37:	48 d3 fa             	sar    %cl,%rdx
    8b3a:	48 89 d0             	mov    %rdx,%rax
    8b3d:	eb 04                	jmp    8b43 <safe_rshift_func_int64_t_s_u+0x31>
    8b3f:	48 8b 45 f8          	mov    -0x8(%rbp),%rax
    8b43:	5d                   	pop    %rbp
    8b44:	c3                   	retq   

0000000000008b45 <safe_unary_minus_func_uint8_t_u>:
    8b45:	f3 0f 1e fa          	endbr64 
    8b49:	55                   	push   %rbp
    8b4a:	48 89 e5             	mov    %rsp,%rbp
    8b4d:	89 f8                	mov    %edi,%eax
    8b4f:	88 45 fc             	mov    %al,-0x4(%rbp)
    8b52:	0f b6 45 fc          	movzbl -0x4(%rbp),%eax
    8b56:	f7 d8                	neg    %eax
    8b58:	5d                   	pop    %rbp
    8b59:	c3                   	retq   

0000000000008b5a <safe_add_func_uint8_t_u_u>:
    8b5a:	f3 0f 1e fa          	endbr64 
    8b5e:	55                   	push   %rbp
    8b5f:	48 89 e5             	mov    %rsp,%rbp
    8b62:	89 fa                	mov    %edi,%edx
    8b64:	89 f0                	mov    %esi,%eax
    8b66:	88 55 fc             	mov    %dl,-0x4(%rbp)
    8b69:	88 45 f8             	mov    %al,-0x8(%rbp)
    8b6c:	0f b6 55 fc          	movzbl -0x4(%rbp),%edx
    8b70:	0f b6 45 f8          	movzbl -0x8(%rbp),%eax
    8b74:	01 d0                	add    %edx,%eax
    8b76:	5d                   	pop    %rbp
    8b77:	c3                   	retq   

0000000000008b78 <safe_sub_func_uint8_t_u_u>:
    8b78:	f3 0f 1e fa          	endbr64 
    8b7c:	55                   	push   %rbp
    8b7d:	48 89 e5             	mov    %rsp,%rbp
    8b80:	89 fa                	mov    %edi,%edx
    8b82:	89 f0                	mov    %esi,%eax
    8b84:	88 55 fc             	mov    %dl,-0x4(%rbp)
    8b87:	88 45 f8             	mov    %al,-0x8(%rbp)
    8b8a:	0f b6 45 fc          	movzbl -0x4(%rbp),%eax
    8b8e:	2a 45 f8             	sub    -0x8(%rbp),%al
    8b91:	5d                   	pop    %rbp
    8b92:	c3                   	retq   

0000000000008b93 <safe_mul_func_uint8_t_u_u>:
    8b93:	f3 0f 1e fa          	endbr64 
    8b97:	55                   	push   %rbp
    8b98:	48 89 e5             	mov    %rsp,%rbp
    8b9b:	89 fa                	mov    %edi,%edx
    8b9d:	89 f0                	mov    %esi,%eax
    8b9f:	88 55 fc             	mov    %dl,-0x4(%rbp)
    8ba2:	88 45 f8             	mov    %al,-0x8(%rbp)
    8ba5:	0f b6 45 fc          	movzbl -0x4(%rbp),%eax
    8ba9:	f6 65 f8             	mulb   -0x8(%rbp)
    8bac:	5d                   	pop    %rbp
    8bad:	c3                   	retq   

0000000000008bae <safe_mod_func_uint8_t_u_u>:
    8bae:	f3 0f 1e fa          	endbr64 
    8bb2:	55                   	push   %rbp
    8bb3:	48 89 e5             	mov    %rsp,%rbp
    8bb6:	89 fa                	mov    %edi,%edx
    8bb8:	89 f0                	mov    %esi,%eax
    8bba:	88 55 fc             	mov    %dl,-0x4(%rbp)
    8bbd:	88 45 f8             	mov    %al,-0x8(%rbp)
    8bc0:	80 7d f8 00          	cmpb   $0x0,-0x8(%rbp)
    8bc4:	74 0f                	je     8bd5 <safe_mod_func_uint8_t_u_u+0x27>
    8bc6:	0f b6 45 fc          	movzbl -0x4(%rbp),%eax
    8bca:	0f b6 c0             	movzbl %al,%eax
    8bcd:	f6 75 f8             	divb   -0x8(%rbp)
    8bd0:	0f b6 c4             	movzbl %ah,%eax
    8bd3:	eb 04                	jmp    8bd9 <safe_mod_func_uint8_t_u_u+0x2b>
    8bd5:	0f b6 45 fc          	movzbl -0x4(%rbp),%eax
    8bd9:	5d                   	pop    %rbp
    8bda:	c3                   	retq   

0000000000008bdb <safe_div_func_uint8_t_u_u>:
    8bdb:	f3 0f 1e fa          	endbr64 
    8bdf:	55                   	push   %rbp
    8be0:	48 89 e5             	mov    %rsp,%rbp
    8be3:	89 fa                	mov    %edi,%edx
    8be5:	89 f0                	mov    %esi,%eax
    8be7:	88 55 fc             	mov    %dl,-0x4(%rbp)
    8bea:	88 45 f8             	mov    %al,-0x8(%rbp)
    8bed:	80 7d f8 00          	cmpb   $0x0,-0x8(%rbp)
    8bf1:	74 0c                	je     8bff <safe_div_func_uint8_t_u_u+0x24>
    8bf3:	0f b6 45 fc          	movzbl -0x4(%rbp),%eax
    8bf7:	0f b6 c0             	movzbl %al,%eax
    8bfa:	f6 75 f8             	divb   -0x8(%rbp)
    8bfd:	eb 04                	jmp    8c03 <safe_div_func_uint8_t_u_u+0x28>
    8bff:	0f b6 45 fc          	movzbl -0x4(%rbp),%eax
    8c03:	5d                   	pop    %rbp
    8c04:	c3                   	retq   

0000000000008c05 <safe_lshift_func_uint8_t_u_s>:
    8c05:	f3 0f 1e fa          	endbr64 
    8c09:	55                   	push   %rbp
    8c0a:	48 89 e5             	mov    %rsp,%rbp
    8c0d:	89 f8                	mov    %edi,%eax
    8c0f:	89 75 f8             	mov    %esi,-0x8(%rbp)
    8c12:	88 45 fc             	mov    %al,-0x4(%rbp)
    8c15:	83 7d f8 00          	cmpl   $0x0,-0x8(%rbp)
    8c19:	78 2b                	js     8c46 <safe_lshift_func_uint8_t_u_s+0x41>
    8c1b:	83 7d f8 1f          	cmpl   $0x1f,-0x8(%rbp)
    8c1f:	7f 25                	jg     8c46 <safe_lshift_func_uint8_t_u_s+0x41>
    8c21:	0f b6 55 fc          	movzbl -0x4(%rbp),%edx
    8c25:	8b 45 f8             	mov    -0x8(%rbp),%eax
    8c28:	be ff 00 00 00       	mov    $0xff,%esi
    8c2d:	89 c1                	mov    %eax,%ecx
    8c2f:	d3 fe                	sar    %cl,%esi
    8c31:	89 f0                	mov    %esi,%eax
    8c33:	39 c2                	cmp    %eax,%edx
    8c35:	7f 0f                	jg     8c46 <safe_lshift_func_uint8_t_u_s+0x41>
    8c37:	0f b6 55 fc          	movzbl -0x4(%rbp),%edx
    8c3b:	8b 45 f8             	mov    -0x8(%rbp),%eax
    8c3e:	89 c1                	mov    %eax,%ecx
    8c40:	d3 e2                	shl    %cl,%edx
    8c42:	89 d0                	mov    %edx,%eax
    8c44:	eb 04                	jmp    8c4a <safe_lshift_func_uint8_t_u_s+0x45>
    8c46:	0f b6 45 fc          	movzbl -0x4(%rbp),%eax
    8c4a:	5d                   	pop    %rbp
    8c4b:	c3                   	retq   

0000000000008c4c <safe_lshift_func_uint8_t_u_u>:
    8c4c:	f3 0f 1e fa          	endbr64 
    8c50:	55                   	push   %rbp
    8c51:	48 89 e5             	mov    %rsp,%rbp
    8c54:	89 f8                	mov    %edi,%eax
    8c56:	89 75 f8             	mov    %esi,-0x8(%rbp)
    8c59:	88 45 fc             	mov    %al,-0x4(%rbp)
    8c5c:	83 7d f8 1f          	cmpl   $0x1f,-0x8(%rbp)
    8c60:	77 25                	ja     8c87 <safe_lshift_func_uint8_t_u_u+0x3b>
    8c62:	0f b6 55 fc          	movzbl -0x4(%rbp),%edx
    8c66:	8b 45 f8             	mov    -0x8(%rbp),%eax
    8c69:	be ff 00 00 00       	mov    $0xff,%esi
    8c6e:	89 c1                	mov    %eax,%ecx
    8c70:	d3 fe                	sar    %cl,%esi
    8c72:	89 f0                	mov    %esi,%eax
    8c74:	39 c2                	cmp    %eax,%edx
    8c76:	7f 0f                	jg     8c87 <safe_lshift_func_uint8_t_u_u+0x3b>
    8c78:	0f b6 55 fc          	movzbl -0x4(%rbp),%edx
    8c7c:	8b 45 f8             	mov    -0x8(%rbp),%eax
    8c7f:	89 c1                	mov    %eax,%ecx
    8c81:	d3 e2                	shl    %cl,%edx
    8c83:	89 d0                	mov    %edx,%eax
    8c85:	eb 04                	jmp    8c8b <safe_lshift_func_uint8_t_u_u+0x3f>
    8c87:	0f b6 45 fc          	movzbl -0x4(%rbp),%eax
    8c8b:	5d                   	pop    %rbp
    8c8c:	c3                   	retq   

0000000000008c8d <safe_rshift_func_uint8_t_u_s>:
    8c8d:	f3 0f 1e fa          	endbr64 
    8c91:	55                   	push   %rbp
    8c92:	48 89 e5             	mov    %rsp,%rbp
    8c95:	89 f8                	mov    %edi,%eax
    8c97:	89 75 f8             	mov    %esi,-0x8(%rbp)
    8c9a:	88 45 fc             	mov    %al,-0x4(%rbp)
    8c9d:	83 7d f8 00          	cmpl   $0x0,-0x8(%rbp)
    8ca1:	78 15                	js     8cb8 <safe_rshift_func_uint8_t_u_s+0x2b>
    8ca3:	83 7d f8 1f          	cmpl   $0x1f,-0x8(%rbp)
    8ca7:	7f 0f                	jg     8cb8 <safe_rshift_func_uint8_t_u_s+0x2b>
    8ca9:	0f b6 55 fc          	movzbl -0x4(%rbp),%edx
    8cad:	8b 45 f8             	mov    -0x8(%rbp),%eax
    8cb0:	89 c1                	mov    %eax,%ecx
    8cb2:	d3 fa                	sar    %cl,%edx
    8cb4:	89 d0                	mov    %edx,%eax
    8cb6:	eb 04                	jmp    8cbc <safe_rshift_func_uint8_t_u_s+0x2f>
    8cb8:	0f b6 45 fc          	movzbl -0x4(%rbp),%eax
    8cbc:	5d                   	pop    %rbp
    8cbd:	c3                   	retq   

0000000000008cbe <safe_rshift_func_uint8_t_u_u>:
    8cbe:	f3 0f 1e fa          	endbr64 
    8cc2:	55                   	push   %rbp
    8cc3:	48 89 e5             	mov    %rsp,%rbp
    8cc6:	89 f8                	mov    %edi,%eax
    8cc8:	89 75 f8             	mov    %esi,-0x8(%rbp)
    8ccb:	88 45 fc             	mov    %al,-0x4(%rbp)
    8cce:	83 7d f8 1f          	cmpl   $0x1f,-0x8(%rbp)
    8cd2:	77 0f                	ja     8ce3 <safe_rshift_func_uint8_t_u_u+0x25>
    8cd4:	0f b6 55 fc          	movzbl -0x4(%rbp),%edx
    8cd8:	8b 45 f8             	mov    -0x8(%rbp),%eax
    8cdb:	89 c1                	mov    %eax,%ecx
    8cdd:	d3 fa                	sar    %cl,%edx
    8cdf:	89 d0                	mov    %edx,%eax
    8ce1:	eb 04                	jmp    8ce7 <safe_rshift_func_uint8_t_u_u+0x29>
    8ce3:	0f b6 45 fc          	movzbl -0x4(%rbp),%eax
    8ce7:	5d                   	pop    %rbp
    8ce8:	c3                   	retq   

0000000000008ce9 <safe_unary_minus_func_uint16_t_u>:
    8ce9:	f3 0f 1e fa          	endbr64 
    8ced:	55                   	push   %rbp
    8cee:	48 89 e5             	mov    %rsp,%rbp
    8cf1:	89 f8                	mov    %edi,%eax
    8cf3:	66 89 45 fc          	mov    %ax,-0x4(%rbp)
    8cf7:	0f b7 45 fc          	movzwl -0x4(%rbp),%eax
    8cfb:	f7 d8                	neg    %eax
    8cfd:	5d                   	pop    %rbp
    8cfe:	c3                   	retq   

0000000000008cff <safe_add_func_uint16_t_u_u>:
    8cff:	f3 0f 1e fa          	endbr64 
    8d03:	55                   	push   %rbp
    8d04:	48 89 e5             	mov    %rsp,%rbp
    8d07:	89 fa                	mov    %edi,%edx
    8d09:	89 f0                	mov    %esi,%eax
    8d0b:	66 89 55 fc          	mov    %dx,-0x4(%rbp)
    8d0f:	66 89 45 f8          	mov    %ax,-0x8(%rbp)
    8d13:	0f b7 55 fc          	movzwl -0x4(%rbp),%edx
    8d17:	0f b7 45 f8          	movzwl -0x8(%rbp),%eax
    8d1b:	01 d0                	add    %edx,%eax
    8d1d:	5d                   	pop    %rbp
    8d1e:	c3                   	retq   

0000000000008d1f <safe_sub_func_uint16_t_u_u>:
    8d1f:	f3 0f 1e fa          	endbr64 
    8d23:	55                   	push   %rbp
    8d24:	48 89 e5             	mov    %rsp,%rbp
    8d27:	89 fa                	mov    %edi,%edx
    8d29:	89 f0                	mov    %esi,%eax
    8d2b:	66 89 55 fc          	mov    %dx,-0x4(%rbp)
    8d2f:	66 89 45 f8          	mov    %ax,-0x8(%rbp)
    8d33:	0f b7 45 fc          	movzwl -0x4(%rbp),%eax
    8d37:	66 2b 45 f8          	sub    -0x8(%rbp),%ax
    8d3b:	5d                   	pop    %rbp
    8d3c:	c3                   	retq   

0000000000008d3d <safe_mul_func_uint16_t_u_u>:
    8d3d:	f3 0f 1e fa          	endbr64 
    8d41:	55                   	push   %rbp
    8d42:	48 89 e5             	mov    %rsp,%rbp
    8d45:	89 fa                	mov    %edi,%edx
    8d47:	89 f0                	mov    %esi,%eax
    8d49:	66 89 55 fc          	mov    %dx,-0x4(%rbp)
    8d4d:	66 89 45 f8          	mov    %ax,-0x8(%rbp)
    8d51:	0f b7 45 fc          	movzwl -0x4(%rbp),%eax
    8d55:	66 0f af 45 f8       	imul   -0x8(%rbp),%ax
    8d5a:	5d                   	pop    %rbp
    8d5b:	c3                   	retq   

0000000000008d5c <safe_mod_func_uint16_t_u_u>:
    8d5c:	f3 0f 1e fa          	endbr64 
    8d60:	55                   	push   %rbp
    8d61:	48 89 e5             	mov    %rsp,%rbp
    8d64:	89 fa                	mov    %edi,%edx
    8d66:	89 f0                	mov    %esi,%eax
    8d68:	66 89 55 fc          	mov    %dx,-0x4(%rbp)
    8d6c:	66 89 45 f8          	mov    %ax,-0x8(%rbp)
    8d70:	66 83 7d f8 00       	cmpw   $0x0,-0x8(%rbp)
    8d75:	74 11                	je     8d88 <safe_mod_func_uint16_t_u_u+0x2c>
    8d77:	0f b7 45 fc          	movzwl -0x4(%rbp),%eax
    8d7b:	ba 00 00 00 00       	mov    $0x0,%edx
    8d80:	66 f7 75 f8          	divw   -0x8(%rbp)
    8d84:	89 d0                	mov    %edx,%eax
    8d86:	eb 04                	jmp    8d8c <safe_mod_func_uint16_t_u_u+0x30>
    8d88:	0f b7 45 fc          	movzwl -0x4(%rbp),%eax
    8d8c:	5d                   	pop    %rbp
    8d8d:	c3                   	retq   

0000000000008d8e <safe_div_func_uint16_t_u_u>:
    8d8e:	f3 0f 1e fa          	endbr64 
    8d92:	55                   	push   %rbp
    8d93:	48 89 e5             	mov    %rsp,%rbp
    8d96:	89 fa                	mov    %edi,%edx
    8d98:	89 f0                	mov    %esi,%eax
    8d9a:	66 89 55 fc          	mov    %dx,-0x4(%rbp)
    8d9e:	66 89 45 f8          	mov    %ax,-0x8(%rbp)
    8da2:	66 83 7d f8 00       	cmpw   $0x0,-0x8(%rbp)
    8da7:	74 0f                	je     8db8 <safe_div_func_uint16_t_u_u+0x2a>
    8da9:	0f b7 45 fc          	movzwl -0x4(%rbp),%eax
    8dad:	ba 00 00 00 00       	mov    $0x0,%edx
    8db2:	66 f7 75 f8          	divw   -0x8(%rbp)
    8db6:	eb 04                	jmp    8dbc <safe_div_func_uint16_t_u_u+0x2e>
    8db8:	0f b7 45 fc          	movzwl -0x4(%rbp),%eax
    8dbc:	5d                   	pop    %rbp
    8dbd:	c3                   	retq   

0000000000008dbe <safe_lshift_func_uint16_t_u_s>:
    8dbe:	f3 0f 1e fa          	endbr64 
    8dc2:	55                   	push   %rbp
    8dc3:	48 89 e5             	mov    %rsp,%rbp
    8dc6:	89 f8                	mov    %edi,%eax
    8dc8:	89 75 f8             	mov    %esi,-0x8(%rbp)
    8dcb:	66 89 45 fc          	mov    %ax,-0x4(%rbp)
    8dcf:	83 7d f8 00          	cmpl   $0x0,-0x8(%rbp)
    8dd3:	78 2b                	js     8e00 <safe_lshift_func_uint16_t_u_s+0x42>
    8dd5:	83 7d f8 1f          	cmpl   $0x1f,-0x8(%rbp)
    8dd9:	7f 25                	jg     8e00 <safe_lshift_func_uint16_t_u_s+0x42>
    8ddb:	0f b7 55 fc          	movzwl -0x4(%rbp),%edx
    8ddf:	8b 45 f8             	mov    -0x8(%rbp),%eax
    8de2:	be ff ff 00 00       	mov    $0xffff,%esi
    8de7:	89 c1                	mov    %eax,%ecx
    8de9:	d3 fe                	sar    %cl,%esi
    8deb:	89 f0                	mov    %esi,%eax
    8ded:	39 c2                	cmp    %eax,%edx
    8def:	7f 0f                	jg     8e00 <safe_lshift_func_uint16_t_u_s+0x42>
    8df1:	0f b7 55 fc          	movzwl -0x4(%rbp),%edx
    8df5:	8b 45 f8             	mov    -0x8(%rbp),%eax
    8df8:	89 c1                	mov    %eax,%ecx
    8dfa:	d3 e2                	shl    %cl,%edx
    8dfc:	89 d0                	mov    %edx,%eax
    8dfe:	eb 04                	jmp    8e04 <safe_lshift_func_uint16_t_u_s+0x46>
    8e00:	0f b7 45 fc          	movzwl -0x4(%rbp),%eax
    8e04:	5d                   	pop    %rbp
    8e05:	c3                   	retq   

0000000000008e06 <safe_lshift_func_uint16_t_u_u>:
    8e06:	f3 0f 1e fa          	endbr64 
    8e0a:	55                   	push   %rbp
    8e0b:	48 89 e5             	mov    %rsp,%rbp
    8e0e:	89 f8                	mov    %edi,%eax
    8e10:	89 75 f8             	mov    %esi,-0x8(%rbp)
    8e13:	66 89 45 fc          	mov    %ax,-0x4(%rbp)
    8e17:	83 7d f8 1f          	cmpl   $0x1f,-0x8(%rbp)
    8e1b:	77 25                	ja     8e42 <safe_lshift_func_uint16_t_u_u+0x3c>
    8e1d:	0f b7 55 fc          	movzwl -0x4(%rbp),%edx
    8e21:	8b 45 f8             	mov    -0x8(%rbp),%eax
    8e24:	be ff ff 00 00       	mov    $0xffff,%esi
    8e29:	89 c1                	mov    %eax,%ecx
    8e2b:	d3 fe                	sar    %cl,%esi
    8e2d:	89 f0                	mov    %esi,%eax
    8e2f:	39 c2                	cmp    %eax,%edx
    8e31:	7f 0f                	jg     8e42 <safe_lshift_func_uint16_t_u_u+0x3c>
    8e33:	0f b7 55 fc          	movzwl -0x4(%rbp),%edx
    8e37:	8b 45 f8             	mov    -0x8(%rbp),%eax
    8e3a:	89 c1                	mov    %eax,%ecx
    8e3c:	d3 e2                	shl    %cl,%edx
    8e3e:	89 d0                	mov    %edx,%eax
    8e40:	eb 04                	jmp    8e46 <safe_lshift_func_uint16_t_u_u+0x40>
    8e42:	0f b7 45 fc          	movzwl -0x4(%rbp),%eax
    8e46:	5d                   	pop    %rbp
    8e47:	c3                   	retq   

0000000000008e48 <safe_rshift_func_uint16_t_u_s>:
    8e48:	f3 0f 1e fa          	endbr64 
    8e4c:	55                   	push   %rbp
    8e4d:	48 89 e5             	mov    %rsp,%rbp
    8e50:	89 f8                	mov    %edi,%eax
    8e52:	89 75 f8             	mov    %esi,-0x8(%rbp)
    8e55:	66 89 45 fc          	mov    %ax,-0x4(%rbp)
    8e59:	83 7d f8 00          	cmpl   $0x0,-0x8(%rbp)
    8e5d:	78 15                	js     8e74 <safe_rshift_func_uint16_t_u_s+0x2c>
    8e5f:	83 7d f8 1f          	cmpl   $0x1f,-0x8(%rbp)
    8e63:	7f 0f                	jg     8e74 <safe_rshift_func_uint16_t_u_s+0x2c>
    8e65:	0f b7 55 fc          	movzwl -0x4(%rbp),%edx
    8e69:	8b 45 f8             	mov    -0x8(%rbp),%eax
    8e6c:	89 c1                	mov    %eax,%ecx
    8e6e:	d3 fa                	sar    %cl,%edx
    8e70:	89 d0                	mov    %edx,%eax
    8e72:	eb 04                	jmp    8e78 <safe_rshift_func_uint16_t_u_s+0x30>
    8e74:	0f b7 45 fc          	movzwl -0x4(%rbp),%eax
    8e78:	5d                   	pop    %rbp
    8e79:	c3                   	retq   

0000000000008e7a <safe_rshift_func_uint16_t_u_u>:
    8e7a:	f3 0f 1e fa          	endbr64 
    8e7e:	55                   	push   %rbp
    8e7f:	48 89 e5             	mov    %rsp,%rbp
    8e82:	89 f8                	mov    %edi,%eax
    8e84:	89 75 f8             	mov    %esi,-0x8(%rbp)
    8e87:	66 89 45 fc          	mov    %ax,-0x4(%rbp)
    8e8b:	83 7d f8 1f          	cmpl   $0x1f,-0x8(%rbp)
    8e8f:	77 0f                	ja     8ea0 <safe_rshift_func_uint16_t_u_u+0x26>
    8e91:	0f b7 55 fc          	movzwl -0x4(%rbp),%edx
    8e95:	8b 45 f8             	mov    -0x8(%rbp),%eax
    8e98:	89 c1                	mov    %eax,%ecx
    8e9a:	d3 fa                	sar    %cl,%edx
    8e9c:	89 d0                	mov    %edx,%eax
    8e9e:	eb 04                	jmp    8ea4 <safe_rshift_func_uint16_t_u_u+0x2a>
    8ea0:	0f b7 45 fc          	movzwl -0x4(%rbp),%eax
    8ea4:	5d                   	pop    %rbp
    8ea5:	c3                   	retq   

0000000000008ea6 <safe_unary_minus_func_uint32_t_u>:
    8ea6:	f3 0f 1e fa          	endbr64 
    8eaa:	55                   	push   %rbp
    8eab:	48 89 e5             	mov    %rsp,%rbp
    8eae:	89 7d fc             	mov    %edi,-0x4(%rbp)
    8eb1:	8b 45 fc             	mov    -0x4(%rbp),%eax
    8eb4:	f7 d8                	neg    %eax
    8eb6:	5d                   	pop    %rbp
    8eb7:	c3                   	retq   

0000000000008eb8 <safe_add_func_uint32_t_u_u>:
    8eb8:	f3 0f 1e fa          	endbr64 
    8ebc:	55                   	push   %rbp
    8ebd:	48 89 e5             	mov    %rsp,%rbp
    8ec0:	89 7d fc             	mov    %edi,-0x4(%rbp)
    8ec3:	89 75 f8             	mov    %esi,-0x8(%rbp)
    8ec6:	8b 55 fc             	mov    -0x4(%rbp),%edx
    8ec9:	8b 45 f8             	mov    -0x8(%rbp),%eax
    8ecc:	01 d0                	add    %edx,%eax
    8ece:	5d                   	pop    %rbp
    8ecf:	c3                   	retq   

0000000000008ed0 <safe_sub_func_uint32_t_u_u>:
    8ed0:	f3 0f 1e fa          	endbr64 
    8ed4:	55                   	push   %rbp
    8ed5:	48 89 e5             	mov    %rsp,%rbp
    8ed8:	89 7d fc             	mov    %edi,-0x4(%rbp)
    8edb:	89 75 f8             	mov    %esi,-0x8(%rbp)
    8ede:	8b 45 fc             	mov    -0x4(%rbp),%eax
    8ee1:	2b 45 f8             	sub    -0x8(%rbp),%eax
    8ee4:	5d                   	pop    %rbp
    8ee5:	c3                   	retq   

0000000000008ee6 <safe_mul_func_uint32_t_u_u>:
    8ee6:	f3 0f 1e fa          	endbr64 
    8eea:	55                   	push   %rbp
    8eeb:	48 89 e5             	mov    %rsp,%rbp
    8eee:	89 7d fc             	mov    %edi,-0x4(%rbp)
    8ef1:	89 75 f8             	mov    %esi,-0x8(%rbp)
    8ef4:	8b 45 fc             	mov    -0x4(%rbp),%eax
    8ef7:	0f af 45 f8          	imul   -0x8(%rbp),%eax
    8efb:	5d                   	pop    %rbp
    8efc:	c3                   	retq   

0000000000008efd <safe_mod_func_uint32_t_u_u>:
    8efd:	f3 0f 1e fa          	endbr64 
    8f01:	55                   	push   %rbp
    8f02:	48 89 e5             	mov    %rsp,%rbp
    8f05:	89 7d fc             	mov    %edi,-0x4(%rbp)
    8f08:	89 75 f8             	mov    %esi,-0x8(%rbp)
    8f0b:	83 7d f8 00          	cmpl   $0x0,-0x8(%rbp)
    8f0f:	74 0f                	je     8f20 <safe_mod_func_uint32_t_u_u+0x23>
    8f11:	8b 45 fc             	mov    -0x4(%rbp),%eax
    8f14:	ba 00 00 00 00       	mov    $0x0,%edx
    8f19:	f7 75 f8             	divl   -0x8(%rbp)
    8f1c:	89 d0                	mov    %edx,%eax
    8f1e:	eb 03                	jmp    8f23 <safe_mod_func_uint32_t_u_u+0x26>
    8f20:	8b 45 fc             	mov    -0x4(%rbp),%eax
    8f23:	5d                   	pop    %rbp
    8f24:	c3                   	retq   

0000000000008f25 <safe_div_func_uint32_t_u_u>:
    8f25:	f3 0f 1e fa          	endbr64 
    8f29:	55                   	push   %rbp
    8f2a:	48 89 e5             	mov    %rsp,%rbp
    8f2d:	89 7d fc             	mov    %edi,-0x4(%rbp)
    8f30:	89 75 f8             	mov    %esi,-0x8(%rbp)
    8f33:	83 7d f8 00          	cmpl   $0x0,-0x8(%rbp)
    8f37:	74 0d                	je     8f46 <safe_div_func_uint32_t_u_u+0x21>
    8f39:	8b 45 fc             	mov    -0x4(%rbp),%eax
    8f3c:	ba 00 00 00 00       	mov    $0x0,%edx
    8f41:	f7 75 f8             	divl   -0x8(%rbp)
    8f44:	eb 03                	jmp    8f49 <safe_div_func_uint32_t_u_u+0x24>
    8f46:	8b 45 fc             	mov    -0x4(%rbp),%eax
    8f49:	5d                   	pop    %rbp
    8f4a:	c3                   	retq   

0000000000008f4b <safe_lshift_func_uint32_t_u_s>:
    8f4b:	f3 0f 1e fa          	endbr64 
    8f4f:	55                   	push   %rbp
    8f50:	48 89 e5             	mov    %rsp,%rbp
    8f53:	89 7d fc             	mov    %edi,-0x4(%rbp)
    8f56:	89 75 f8             	mov    %esi,-0x8(%rbp)
    8f59:	83 7d f8 00          	cmpl   $0x0,-0x8(%rbp)
    8f5d:	78 27                	js     8f86 <safe_lshift_func_uint32_t_u_s+0x3b>
    8f5f:	83 7d f8 1f          	cmpl   $0x1f,-0x8(%rbp)
    8f63:	7f 21                	jg     8f86 <safe_lshift_func_uint32_t_u_s+0x3b>
    8f65:	8b 45 f8             	mov    -0x8(%rbp),%eax
    8f68:	ba ff ff ff ff       	mov    $0xffffffff,%edx
    8f6d:	89 c1                	mov    %eax,%ecx
    8f6f:	d3 ea                	shr    %cl,%edx
    8f71:	89 d0                	mov    %edx,%eax
    8f73:	39 45 fc             	cmp    %eax,-0x4(%rbp)
    8f76:	77 0e                	ja     8f86 <safe_lshift_func_uint32_t_u_s+0x3b>
    8f78:	8b 45 f8             	mov    -0x8(%rbp),%eax
    8f7b:	8b 55 fc             	mov    -0x4(%rbp),%edx
    8f7e:	89 c1                	mov    %eax,%ecx
    8f80:	d3 e2                	shl    %cl,%edx
    8f82:	89 d0                	mov    %edx,%eax
    8f84:	eb 03                	jmp    8f89 <safe_lshift_func_uint32_t_u_s+0x3e>
    8f86:	8b 45 fc             	mov    -0x4(%rbp),%eax
    8f89:	5d                   	pop    %rbp
    8f8a:	c3                   	retq   

0000000000008f8b <safe_lshift_func_uint32_t_u_u>:
    8f8b:	f3 0f 1e fa          	endbr64 
    8f8f:	55                   	push   %rbp
    8f90:	48 89 e5             	mov    %rsp,%rbp
    8f93:	89 7d fc             	mov    %edi,-0x4(%rbp)
    8f96:	89 75 f8             	mov    %esi,-0x8(%rbp)
    8f99:	83 7d f8 1f          	cmpl   $0x1f,-0x8(%rbp)
    8f9d:	77 21                	ja     8fc0 <safe_lshift_func_uint32_t_u_u+0x35>
    8f9f:	8b 45 f8             	mov    -0x8(%rbp),%eax
    8fa2:	ba ff ff ff ff       	mov    $0xffffffff,%edx
    8fa7:	89 c1                	mov    %eax,%ecx
    8fa9:	d3 ea                	shr    %cl,%edx
    8fab:	89 d0                	mov    %edx,%eax
    8fad:	39 45 fc             	cmp    %eax,-0x4(%rbp)
    8fb0:	77 0e                	ja     8fc0 <safe_lshift_func_uint32_t_u_u+0x35>
    8fb2:	8b 45 f8             	mov    -0x8(%rbp),%eax
    8fb5:	8b 55 fc             	mov    -0x4(%rbp),%edx
    8fb8:	89 c1                	mov    %eax,%ecx
    8fba:	d3 e2                	shl    %cl,%edx
    8fbc:	89 d0                	mov    %edx,%eax
    8fbe:	eb 03                	jmp    8fc3 <safe_lshift_func_uint32_t_u_u+0x38>
    8fc0:	8b 45 fc             	mov    -0x4(%rbp),%eax
    8fc3:	5d                   	pop    %rbp
    8fc4:	c3                   	retq   

0000000000008fc5 <safe_rshift_func_uint32_t_u_s>:
    8fc5:	f3 0f 1e fa          	endbr64 
    8fc9:	55                   	push   %rbp
    8fca:	48 89 e5             	mov    %rsp,%rbp
    8fcd:	89 7d fc             	mov    %edi,-0x4(%rbp)
    8fd0:	89 75 f8             	mov    %esi,-0x8(%rbp)
    8fd3:	83 7d f8 00          	cmpl   $0x0,-0x8(%rbp)
    8fd7:	78 14                	js     8fed <safe_rshift_func_uint32_t_u_s+0x28>
    8fd9:	83 7d f8 1f          	cmpl   $0x1f,-0x8(%rbp)
    8fdd:	7f 0e                	jg     8fed <safe_rshift_func_uint32_t_u_s+0x28>
    8fdf:	8b 45 f8             	mov    -0x8(%rbp),%eax
    8fe2:	8b 55 fc             	mov    -0x4(%rbp),%edx
    8fe5:	89 c1                	mov    %eax,%ecx
    8fe7:	d3 ea                	shr    %cl,%edx
    8fe9:	89 d0                	mov    %edx,%eax
    8feb:	eb 03                	jmp    8ff0 <safe_rshift_func_uint32_t_u_s+0x2b>
    8fed:	8b 45 fc             	mov    -0x4(%rbp),%eax
    8ff0:	5d                   	pop    %rbp
    8ff1:	c3                   	retq   

0000000000008ff2 <safe_rshift_func_uint32_t_u_u>:
    8ff2:	f3 0f 1e fa          	endbr64 
    8ff6:	55                   	push   %rbp
    8ff7:	48 89 e5             	mov    %rsp,%rbp
    8ffa:	89 7d fc             	mov    %edi,-0x4(%rbp)
    8ffd:	89 75 f8             	mov    %esi,-0x8(%rbp)
    9000:	83 7d f8 1f          	cmpl   $0x1f,-0x8(%rbp)
    9004:	77 0e                	ja     9014 <safe_rshift_func_uint32_t_u_u+0x22>
    9006:	8b 45 f8             	mov    -0x8(%rbp),%eax
    9009:	8b 55 fc             	mov    -0x4(%rbp),%edx
    900c:	89 c1                	mov    %eax,%ecx
    900e:	d3 ea                	shr    %cl,%edx
    9010:	89 d0                	mov    %edx,%eax
    9012:	eb 03                	jmp    9017 <safe_rshift_func_uint32_t_u_u+0x25>
    9014:	8b 45 fc             	mov    -0x4(%rbp),%eax
    9017:	5d                   	pop    %rbp
    9018:	c3                   	retq   

0000000000009019 <safe_unary_minus_func_uint64_t_u>:
    9019:	f3 0f 1e fa          	endbr64 
    901d:	55                   	push   %rbp
    901e:	48 89 e5             	mov    %rsp,%rbp
    9021:	48 89 7d f8          	mov    %rdi,-0x8(%rbp)
    9025:	48 8b 45 f8          	mov    -0x8(%rbp),%rax
    9029:	48 f7 d8             	neg    %rax
    902c:	5d                   	pop    %rbp
    902d:	c3                   	retq   

000000000000902e <safe_add_func_uint64_t_u_u>:
    902e:	f3 0f 1e fa          	endbr64 
    9032:	55                   	push   %rbp
    9033:	48 89 e5             	mov    %rsp,%rbp
    9036:	48 89 7d f8          	mov    %rdi,-0x8(%rbp)
    903a:	48 89 75 f0          	mov    %rsi,-0x10(%rbp)
    903e:	48 8b 55 f8          	mov    -0x8(%rbp),%rdx
    9042:	48 8b 45 f0          	mov    -0x10(%rbp),%rax
    9046:	48 01 d0             	add    %rdx,%rax
    9049:	5d                   	pop    %rbp
    904a:	c3                   	retq   

000000000000904b <safe_sub_func_uint64_t_u_u>:
    904b:	f3 0f 1e fa          	endbr64 
    904f:	55                   	push   %rbp
    9050:	48 89 e5             	mov    %rsp,%rbp
    9053:	48 89 7d f8          	mov    %rdi,-0x8(%rbp)
    9057:	48 89 75 f0          	mov    %rsi,-0x10(%rbp)
    905b:	48 8b 45 f8          	mov    -0x8(%rbp),%rax
    905f:	48 2b 45 f0          	sub    -0x10(%rbp),%rax
    9063:	5d                   	pop    %rbp
    9064:	c3                   	retq   

0000000000009065 <safe_mul_func_uint64_t_u_u>:
    9065:	f3 0f 1e fa          	endbr64 
    9069:	55                   	push   %rbp
    906a:	48 89 e5             	mov    %rsp,%rbp
    906d:	48 89 7d f8          	mov    %rdi,-0x8(%rbp)
    9071:	48 89 75 f0          	mov    %rsi,-0x10(%rbp)
    9075:	48 8b 45 f8          	mov    -0x8(%rbp),%rax
    9079:	48 0f af 45 f0       	imul   -0x10(%rbp),%rax
    907e:	5d                   	pop    %rbp
    907f:	c3                   	retq   

0000000000009080 <safe_mod_func_uint64_t_u_u>:
    9080:	f3 0f 1e fa          	endbr64 
    9084:	55                   	push   %rbp
    9085:	48 89 e5             	mov    %rsp,%rbp
    9088:	48 89 7d f8          	mov    %rdi,-0x8(%rbp)
    908c:	48 89 75 f0          	mov    %rsi,-0x10(%rbp)
    9090:	48 83 7d f0 00       	cmpq   $0x0,-0x10(%rbp)
    9095:	74 12                	je     90a9 <safe_mod_func_uint64_t_u_u+0x29>
    9097:	48 8b 45 f8          	mov    -0x8(%rbp),%rax
    909b:	ba 00 00 00 00       	mov    $0x0,%edx
    90a0:	48 f7 75 f0          	divq   -0x10(%rbp)
    90a4:	48 89 d0             	mov    %rdx,%rax
    90a7:	eb 04                	jmp    90ad <safe_mod_func_uint64_t_u_u+0x2d>
    90a9:	48 8b 45 f8          	mov    -0x8(%rbp),%rax
    90ad:	5d                   	pop    %rbp
    90ae:	c3                   	retq   

00000000000090af <safe_div_func_uint64_t_u_u>:
    90af:	f3 0f 1e fa          	endbr64 
    90b3:	55                   	push   %rbp
    90b4:	48 89 e5             	mov    %rsp,%rbp
    90b7:	48 89 7d f8          	mov    %rdi,-0x8(%rbp)
    90bb:	48 89 75 f0          	mov    %rsi,-0x10(%rbp)
    90bf:	48 83 7d f0 00       	cmpq   $0x0,-0x10(%rbp)
    90c4:	74 0f                	je     90d5 <safe_div_func_uint64_t_u_u+0x26>
    90c6:	48 8b 45 f8          	mov    -0x8(%rbp),%rax
    90ca:	ba 00 00 00 00       	mov    $0x0,%edx
    90cf:	48 f7 75 f0          	divq   -0x10(%rbp)
    90d3:	eb 04                	jmp    90d9 <safe_div_func_uint64_t_u_u+0x2a>
    90d5:	48 8b 45 f8          	mov    -0x8(%rbp),%rax
    90d9:	5d                   	pop    %rbp
    90da:	c3                   	retq   

00000000000090db <safe_lshift_func_uint64_t_u_s>:
    90db:	f3 0f 1e fa          	endbr64 
    90df:	55                   	push   %rbp
    90e0:	48 89 e5             	mov    %rsp,%rbp
    90e3:	48 89 7d f8          	mov    %rdi,-0x8(%rbp)
    90e7:	89 75 f4             	mov    %esi,-0xc(%rbp)
    90ea:	83 7d f4 00          	cmpl   $0x0,-0xc(%rbp)
    90ee:	78 2f                	js     911f <safe_lshift_func_uint64_t_u_s+0x44>
    90f0:	83 7d f4 1f          	cmpl   $0x1f,-0xc(%rbp)
    90f4:	7f 29                	jg     911f <safe_lshift_func_uint64_t_u_s+0x44>
    90f6:	8b 45 f4             	mov    -0xc(%rbp),%eax
    90f9:	48 c7 c2 ff ff ff ff 	mov    $0xffffffffffffffff,%rdx
    9100:	89 c1                	mov    %eax,%ecx
    9102:	48 d3 ea             	shr    %cl,%rdx
    9105:	48 89 d0             	mov    %rdx,%rax
    9108:	48 39 45 f8          	cmp    %rax,-0x8(%rbp)
    910c:	77 11                	ja     911f <safe_lshift_func_uint64_t_u_s+0x44>
    910e:	8b 45 f4             	mov    -0xc(%rbp),%eax
    9111:	48 8b 55 f8          	mov    -0x8(%rbp),%rdx
    9115:	89 c1                	mov    %eax,%ecx
    9117:	48 d3 e2             	shl    %cl,%rdx
    911a:	48 89 d0             	mov    %rdx,%rax
    911d:	eb 04                	jmp    9123 <safe_lshift_func_uint64_t_u_s+0x48>
    911f:	48 8b 45 f8          	mov    -0x8(%rbp),%rax
    9123:	5d                   	pop    %rbp
    9124:	c3                   	retq   

0000000000009125 <safe_lshift_func_uint64_t_u_u>:
    9125:	f3 0f 1e fa          	endbr64 
    9129:	55                   	push   %rbp
    912a:	48 89 e5             	mov    %rsp,%rbp
    912d:	48 89 7d f8          	mov    %rdi,-0x8(%rbp)
    9131:	89 75 f4             	mov    %esi,-0xc(%rbp)
    9134:	83 7d f4 1f          	cmpl   $0x1f,-0xc(%rbp)
    9138:	77 29                	ja     9163 <safe_lshift_func_uint64_t_u_u+0x3e>
    913a:	8b 45 f4             	mov    -0xc(%rbp),%eax
    913d:	48 c7 c2 ff ff ff ff 	mov    $0xffffffffffffffff,%rdx
    9144:	89 c1                	mov    %eax,%ecx
    9146:	48 d3 ea             	shr    %cl,%rdx
    9149:	48 89 d0             	mov    %rdx,%rax
    914c:	48 39 45 f8          	cmp    %rax,-0x8(%rbp)
    9150:	77 11                	ja     9163 <safe_lshift_func_uint64_t_u_u+0x3e>
    9152:	8b 45 f4             	mov    -0xc(%rbp),%eax
    9155:	48 8b 55 f8          	mov    -0x8(%rbp),%rdx
    9159:	89 c1                	mov    %eax,%ecx
    915b:	48 d3 e2             	shl    %cl,%rdx
    915e:	48 89 d0             	mov    %rdx,%rax
    9161:	eb 04                	jmp    9167 <safe_lshift_func_uint64_t_u_u+0x42>
    9163:	48 8b 45 f8          	mov    -0x8(%rbp),%rax
    9167:	5d                   	pop    %rbp
    9168:	c3                   	retq   

0000000000009169 <safe_rshift_func_uint64_t_u_s>:
    9169:	f3 0f 1e fa          	endbr64 
    916d:	55                   	push   %rbp
    916e:	48 89 e5             	mov    %rsp,%rbp
    9171:	48 89 7d f8          	mov    %rdi,-0x8(%rbp)
    9175:	89 75 f4             	mov    %esi,-0xc(%rbp)
    9178:	83 7d f4 00          	cmpl   $0x0,-0xc(%rbp)
    917c:	78 17                	js     9195 <safe_rshift_func_uint64_t_u_s+0x2c>
    917e:	83 7d f4 1f          	cmpl   $0x1f,-0xc(%rbp)
    9182:	7f 11                	jg     9195 <safe_rshift_func_uint64_t_u_s+0x2c>
    9184:	8b 45 f4             	mov    -0xc(%rbp),%eax
    9187:	48 8b 55 f8          	mov    -0x8(%rbp),%rdx
    918b:	89 c1                	mov    %eax,%ecx
    918d:	48 d3 ea             	shr    %cl,%rdx
    9190:	48 89 d0             	mov    %rdx,%rax
    9193:	eb 04                	jmp    9199 <safe_rshift_func_uint64_t_u_s+0x30>
    9195:	48 8b 45 f8          	mov    -0x8(%rbp),%rax
    9199:	5d                   	pop    %rbp
    919a:	c3                   	retq   

000000000000919b <safe_rshift_func_uint64_t_u_u>:
    919b:	f3 0f 1e fa          	endbr64 
    919f:	55                   	push   %rbp
    91a0:	48 89 e5             	mov    %rsp,%rbp
    91a3:	48 89 7d f8          	mov    %rdi,-0x8(%rbp)
    91a7:	89 75 f4             	mov    %esi,-0xc(%rbp)
    91aa:	83 7d f4 1f          	cmpl   $0x1f,-0xc(%rbp)
    91ae:	77 11                	ja     91c1 <safe_rshift_func_uint64_t_u_u+0x26>
    91b0:	8b 45 f4             	mov    -0xc(%rbp),%eax
    91b3:	48 8b 55 f8          	mov    -0x8(%rbp),%rdx
    91b7:	89 c1                	mov    %eax,%ecx
    91b9:	48 d3 ea             	shr    %cl,%rdx
    91bc:	48 89 d0             	mov    %rdx,%rax
    91bf:	eb 04                	jmp    91c5 <safe_rshift_func_uint64_t_u_u+0x2a>
    91c1:	48 8b 45 f8          	mov    -0x8(%rbp),%rax
    91c5:	5d                   	pop    %rbp
    91c6:	c3                   	retq   

00000000000091c7 <safe_add_func_float_f_f>:
    91c7:	f3 0f 1e fa          	endbr64 
    91cb:	55                   	push   %rbp
    91cc:	48 89 e5             	mov    %rsp,%rbp
    91cf:	f3 0f 11 45 fc       	movss  %xmm0,-0x4(%rbp)
    91d4:	f3 0f 11 4d f8       	movss  %xmm1,-0x8(%rbp)
    91d9:	f3 0f 10 4d fc       	movss  -0x4(%rbp),%xmm1
    91de:	f3 0f 10 05 7e 6a 01 	movss  0x16a7e(%rip),%xmm0        # 1fc64 <g_2423+0x1bb4>
    91e5:	00 
    91e6:	f3 0f 59 c8          	mulss  %xmm0,%xmm1
    91ea:	f3 0f 10 55 f8       	movss  -0x8(%rbp),%xmm2
    91ef:	f3 0f 10 05 6d 6a 01 	movss  0x16a6d(%rip),%xmm0        # 1fc64 <g_2423+0x1bb4>
    91f6:	00 
    91f7:	f3 0f 59 c2          	mulss  %xmm2,%xmm0
    91fb:	f3 0f 58 c1          	addss  %xmm1,%xmm0
    91ff:	f3 0f 10 0d 69 6a 01 	movss  0x16a69(%rip),%xmm1        # 1fc70 <g_2423+0x1bc0>
    9206:	00 
    9207:	0f 54 c1             	andps  %xmm1,%xmm0
    920a:	0f 2f 05 6f 6a 01 00 	comiss 0x16a6f(%rip),%xmm0        # 1fc80 <g_2423+0x1bd0>
    9211:	76 07                	jbe    921a <safe_add_func_float_f_f+0x53>
    9213:	f3 0f 10 45 fc       	movss  -0x4(%rbp),%xmm0
    9218:	eb 0a                	jmp    9224 <safe_add_func_float_f_f+0x5d>
    921a:	f3 0f 10 45 fc       	movss  -0x4(%rbp),%xmm0
    921f:	f3 0f 58 45 f8       	addss  -0x8(%rbp),%xmm0
    9224:	5d                   	pop    %rbp
    9225:	c3                   	retq   

0000000000009226 <safe_sub_func_float_f_f>:
    9226:	f3 0f 1e fa          	endbr64 
    922a:	55                   	push   %rbp
    922b:	48 89 e5             	mov    %rsp,%rbp
    922e:	f3 0f 11 45 fc       	movss  %xmm0,-0x4(%rbp)
    9233:	f3 0f 11 4d f8       	movss  %xmm1,-0x8(%rbp)
    9238:	f3 0f 10 4d fc       	movss  -0x4(%rbp),%xmm1
    923d:	f3 0f 10 05 1f 6a 01 	movss  0x16a1f(%rip),%xmm0        # 1fc64 <g_2423+0x1bb4>
    9244:	00 
    9245:	f3 0f 59 c1          	mulss  %xmm1,%xmm0
    9249:	f3 0f 10 55 f8       	movss  -0x8(%rbp),%xmm2
    924e:	f3 0f 10 0d 0e 6a 01 	movss  0x16a0e(%rip),%xmm1        # 1fc64 <g_2423+0x1bb4>
    9255:	00 
    9256:	f3 0f 59 ca          	mulss  %xmm2,%xmm1
    925a:	f3 0f 5c c1          	subss  %xmm1,%xmm0
    925e:	f3 0f 10 0d 0a 6a 01 	movss  0x16a0a(%rip),%xmm1        # 1fc70 <g_2423+0x1bc0>
    9265:	00 
    9266:	0f 54 c1             	andps  %xmm1,%xmm0
    9269:	0f 2f 05 10 6a 01 00 	comiss 0x16a10(%rip),%xmm0        # 1fc80 <g_2423+0x1bd0>
    9270:	76 07                	jbe    9279 <safe_sub_func_float_f_f+0x53>
    9272:	f3 0f 10 45 fc       	movss  -0x4(%rbp),%xmm0
    9277:	eb 0a                	jmp    9283 <safe_sub_func_float_f_f+0x5d>
    9279:	f3 0f 10 45 fc       	movss  -0x4(%rbp),%xmm0
    927e:	f3 0f 5c 45 f8       	subss  -0x8(%rbp),%xmm0
    9283:	5d                   	pop    %rbp
    9284:	c3                   	retq   

0000000000009285 <safe_mul_func_float_f_f>:
    9285:	f3 0f 1e fa          	endbr64 
    9289:	55                   	push   %rbp
    928a:	48 89 e5             	mov    %rsp,%rbp
    928d:	f3 0f 11 45 fc       	movss  %xmm0,-0x4(%rbp)
    9292:	f3 0f 11 4d f8       	movss  %xmm1,-0x8(%rbp)
    9297:	f3 0f 10 4d fc       	movss  -0x4(%rbp),%xmm1
    929c:	f3 0f 10 05 e0 69 01 	movss  0x169e0(%rip),%xmm0        # 1fc84 <g_2423+0x1bd4>
    92a3:	00 
    92a4:	f3 0f 59 c8          	mulss  %xmm0,%xmm1
    92a8:	f3 0f 10 55 f8       	movss  -0x8(%rbp),%xmm2
    92ad:	f3 0f 10 05 d3 69 01 	movss  0x169d3(%rip),%xmm0        # 1fc88 <g_2423+0x1bd8>
    92b4:	00 
    92b5:	f3 0f 59 c2          	mulss  %xmm2,%xmm0
    92b9:	f3 0f 59 c1          	mulss  %xmm1,%xmm0
    92bd:	f3 0f 10 0d ab 69 01 	movss  0x169ab(%rip),%xmm1        # 1fc70 <g_2423+0x1bc0>
    92c4:	00 
    92c5:	0f 54 c1             	andps  %xmm1,%xmm0
    92c8:	0f 2f 05 bd 69 01 00 	comiss 0x169bd(%rip),%xmm0        # 1fc8c <g_2423+0x1bdc>
    92cf:	76 07                	jbe    92d8 <safe_mul_func_float_f_f+0x53>
    92d1:	f3 0f 10 45 fc       	movss  -0x4(%rbp),%xmm0
    92d6:	eb 0a                	jmp    92e2 <safe_mul_func_float_f_f+0x5d>
    92d8:	f3 0f 10 45 fc       	movss  -0x4(%rbp),%xmm0
    92dd:	f3 0f 59 45 f8       	mulss  -0x8(%rbp),%xmm0
    92e2:	5d                   	pop    %rbp
    92e3:	c3                   	retq   

00000000000092e4 <safe_div_func_float_f_f>:
    92e4:	f3 0f 1e fa          	endbr64 
    92e8:	55                   	push   %rbp
    92e9:	48 89 e5             	mov    %rsp,%rbp
    92ec:	f3 0f 11 45 fc       	movss  %xmm0,-0x4(%rbp)
    92f1:	f3 0f 11 4d f8       	movss  %xmm1,-0x8(%rbp)
    92f6:	f3 0f 10 45 f8       	movss  -0x8(%rbp),%xmm0
    92fb:	f3 0f 10 0d 6d 69 01 	movss  0x1696d(%rip),%xmm1        # 1fc70 <g_2423+0x1bc0>
    9302:	00 
    9303:	0f 54 c8             	andps  %xmm0,%xmm1
    9306:	f3 0f 10 05 82 69 01 	movss  0x16982(%rip),%xmm0        # 1fc90 <g_2423+0x1be0>
    930d:	00 
    930e:	0f 2f c1             	comiss %xmm1,%xmm0
    9311:	0f 97 c0             	seta   %al
    9314:	83 f0 01             	xor    $0x1,%eax
    9317:	84 c0                	test   %al,%al
    9319:	75 56                	jne    9371 <safe_div_func_float_f_f+0x8d>
    931b:	66 0f ef c0          	pxor   %xmm0,%xmm0
    931f:	0f 2e 45 f8          	ucomiss -0x8(%rbp),%xmm0
    9323:	7a 0a                	jp     932f <safe_div_func_float_f_f+0x4b>
    9325:	66 0f ef c0          	pxor   %xmm0,%xmm0
    9329:	0f 2e 45 f8          	ucomiss -0x8(%rbp),%xmm0
    932d:	74 4e                	je     937d <safe_div_func_float_f_f+0x99>
    932f:	f3 0f 10 4d fc       	movss  -0x4(%rbp),%xmm1
    9334:	f3 0f 10 05 58 69 01 	movss  0x16958(%rip),%xmm0        # 1fc94 <g_2423+0x1be4>
    933b:	00 
    933c:	f3 0f 59 c1          	mulss  %xmm1,%xmm0
    9340:	f3 0f 10 55 f8       	movss  -0x8(%rbp),%xmm2
    9345:	f3 0f 10 0d 4b 69 01 	movss  0x1694b(%rip),%xmm1        # 1fc98 <g_2423+0x1be8>
    934c:	00 
    934d:	f3 0f 59 ca          	mulss  %xmm2,%xmm1
    9351:	f3 0f 5e c1          	divss  %xmm1,%xmm0
    9355:	f3 0f 10 0d 13 69 01 	movss  0x16913(%rip),%xmm1        # 1fc70 <g_2423+0x1bc0>
    935c:	00 
    935d:	0f 54 c1             	andps  %xmm1,%xmm0
    9360:	0f 2f 05 35 69 01 00 	comiss 0x16935(%rip),%xmm0        # 1fc9c <g_2423+0x1bec>
    9367:	0f 97 c0             	seta   %al
    936a:	83 f0 01             	xor    $0x1,%eax
    936d:	84 c0                	test   %al,%al
    936f:	74 0c                	je     937d <safe_div_func_float_f_f+0x99>
    9371:	f3 0f 10 45 fc       	movss  -0x4(%rbp),%xmm0
    9376:	f3 0f 5e 45 f8       	divss  -0x8(%rbp),%xmm0
    937b:	eb 05                	jmp    9382 <safe_div_func_float_f_f+0x9e>
    937d:	f3 0f 10 45 fc       	movss  -0x4(%rbp),%xmm0
    9382:	5d                   	pop    %rbp
    9383:	c3                   	retq   

0000000000009384 <safe_add_func_double_f_f>:
    9384:	f3 0f 1e fa          	endbr64 
    9388:	55                   	push   %rbp
    9389:	48 89 e5             	mov    %rsp,%rbp
    938c:	f2 0f 11 45 f8       	movsd  %xmm0,-0x8(%rbp)
    9391:	f2 0f 11 4d f0       	movsd  %xmm1,-0x10(%rbp)
    9396:	f2 0f 10 4d f8       	movsd  -0x8(%rbp),%xmm1
    939b:	f2 0f 10 05 fd 68 01 	movsd  0x168fd(%rip),%xmm0        # 1fca0 <g_2423+0x1bf0>
    93a2:	00 
    93a3:	f2 0f 59 c8          	mulsd  %xmm0,%xmm1
    93a7:	f2 0f 10 55 f0       	movsd  -0x10(%rbp),%xmm2
    93ac:	f2 0f 10 05 ec 68 01 	movsd  0x168ec(%rip),%xmm0        # 1fca0 <g_2423+0x1bf0>
    93b3:	00 
    93b4:	f2 0f 59 c2          	mulsd  %xmm2,%xmm0
    93b8:	f2 0f 58 c1          	addsd  %xmm1,%xmm0
    93bc:	f3 0f 7e 0d ec 68 01 	movq   0x168ec(%rip),%xmm1        # 1fcb0 <g_2423+0x1c00>
    93c3:	00 
    93c4:	66 0f 54 c1          	andpd  %xmm1,%xmm0
    93c8:	66 0f 2f 05 f0 68 01 	comisd 0x168f0(%rip),%xmm0        # 1fcc0 <g_2423+0x1c10>
    93cf:	00 
    93d0:	76 07                	jbe    93d9 <safe_add_func_double_f_f+0x55>
    93d2:	f2 0f 10 45 f8       	movsd  -0x8(%rbp),%xmm0
    93d7:	eb 0a                	jmp    93e3 <safe_add_func_double_f_f+0x5f>
    93d9:	f2 0f 10 45 f8       	movsd  -0x8(%rbp),%xmm0
    93de:	f2 0f 58 45 f0       	addsd  -0x10(%rbp),%xmm0
    93e3:	5d                   	pop    %rbp
    93e4:	c3                   	retq   

00000000000093e5 <safe_sub_func_double_f_f>:
    93e5:	f3 0f 1e fa          	endbr64 
    93e9:	55                   	push   %rbp
    93ea:	48 89 e5             	mov    %rsp,%rbp
    93ed:	f2 0f 11 45 f8       	movsd  %xmm0,-0x8(%rbp)
    93f2:	f2 0f 11 4d f0       	movsd  %xmm1,-0x10(%rbp)
    93f7:	f2 0f 10 4d f8       	movsd  -0x8(%rbp),%xmm1
    93fc:	f2 0f 10 05 9c 68 01 	movsd  0x1689c(%rip),%xmm0        # 1fca0 <g_2423+0x1bf0>
    9403:	00 
    9404:	f2 0f 59 c1          	mulsd  %xmm1,%xmm0
    9408:	f2 0f 10 55 f0       	movsd  -0x10(%rbp),%xmm2
    940d:	f2 0f 10 0d 8b 68 01 	movsd  0x1688b(%rip),%xmm1        # 1fca0 <g_2423+0x1bf0>
    9414:	00 
    9415:	f2 0f 59 ca          	mulsd  %xmm2,%xmm1
    9419:	f2 0f 5c c1          	subsd  %xmm1,%xmm0
    941d:	f3 0f 7e 0d 8b 68 01 	movq   0x1688b(%rip),%xmm1        # 1fcb0 <g_2423+0x1c00>
    9424:	00 
    9425:	66 0f 54 c1          	andpd  %xmm1,%xmm0
    9429:	66 0f 2f 05 8f 68 01 	comisd 0x1688f(%rip),%xmm0        # 1fcc0 <g_2423+0x1c10>
    9430:	00 
    9431:	76 07                	jbe    943a <safe_sub_func_double_f_f+0x55>
    9433:	f2 0f 10 45 f8       	movsd  -0x8(%rbp),%xmm0
    9438:	eb 0a                	jmp    9444 <safe_sub_func_double_f_f+0x5f>
    943a:	f2 0f 10 45 f8       	movsd  -0x8(%rbp),%xmm0
    943f:	f2 0f 5c 45 f0       	subsd  -0x10(%rbp),%xmm0
    9444:	5d                   	pop    %rbp
    9445:	c3                   	retq   

0000000000009446 <safe_mul_func_double_f_f>:
    9446:	f3 0f 1e fa          	endbr64 
    944a:	55                   	push   %rbp
    944b:	48 89 e5             	mov    %rsp,%rbp
    944e:	f2 0f 11 45 f8       	movsd  %xmm0,-0x8(%rbp)
    9453:	f2 0f 11 4d f0       	movsd  %xmm1,-0x10(%rbp)
    9458:	f2 0f 10 4d f8       	movsd  -0x8(%rbp),%xmm1
    945d:	f2 0f 10 05 63 68 01 	movsd  0x16863(%rip),%xmm0        # 1fcc8 <g_2423+0x1c18>
    9464:	00 
    9465:	f2 0f 59 c8          	mulsd  %xmm0,%xmm1
    9469:	f2 0f 10 55 f0       	movsd  -0x10(%rbp),%xmm2
    946e:	f2 0f 10 05 5a 68 01 	movsd  0x1685a(%rip),%xmm0        # 1fcd0 <g_2423+0x1c20>
    9475:	00 
    9476:	f2 0f 59 c2          	mulsd  %xmm2,%xmm0
    947a:	f2 0f 59 c1          	mulsd  %xmm1,%xmm0
    947e:	f3 0f 7e 0d 2a 68 01 	movq   0x1682a(%rip),%xmm1        # 1fcb0 <g_2423+0x1c00>
    9485:	00 
    9486:	66 0f 54 c1          	andpd  %xmm1,%xmm0
    948a:	66 0f 2f 05 46 68 01 	comisd 0x16846(%rip),%xmm0        # 1fcd8 <g_2423+0x1c28>
    9491:	00 
    9492:	76 07                	jbe    949b <safe_mul_func_double_f_f+0x55>
    9494:	f2 0f 10 45 f8       	movsd  -0x8(%rbp),%xmm0
    9499:	eb 0a                	jmp    94a5 <safe_mul_func_double_f_f+0x5f>
    949b:	f2 0f 10 45 f8       	movsd  -0x8(%rbp),%xmm0
    94a0:	f2 0f 59 45 f0       	mulsd  -0x10(%rbp),%xmm0
    94a5:	5d                   	pop    %rbp
    94a6:	c3                   	retq   

00000000000094a7 <safe_div_func_double_f_f>:
    94a7:	f3 0f 1e fa          	endbr64 
    94ab:	55                   	push   %rbp
    94ac:	48 89 e5             	mov    %rsp,%rbp
    94af:	f2 0f 11 45 f8       	movsd  %xmm0,-0x8(%rbp)
    94b4:	f2 0f 11 4d f0       	movsd  %xmm1,-0x10(%rbp)
    94b9:	f2 0f 10 45 f0       	movsd  -0x10(%rbp),%xmm0
    94be:	f3 0f 7e 0d ea 67 01 	movq   0x167ea(%rip),%xmm1        # 1fcb0 <g_2423+0x1c00>
    94c5:	00 
    94c6:	66 0f 54 c8          	andpd  %xmm0,%xmm1
    94ca:	f2 0f 10 05 0e 68 01 	movsd  0x1680e(%rip),%xmm0        # 1fce0 <g_2423+0x1c30>
    94d1:	00 
    94d2:	66 0f 2f c1          	comisd %xmm1,%xmm0
    94d6:	0f 97 c0             	seta   %al
    94d9:	83 f0 01             	xor    $0x1,%eax
    94dc:	84 c0                	test   %al,%al
    94de:	75 5a                	jne    953a <safe_div_func_double_f_f+0x93>
    94e0:	66 0f ef c0          	pxor   %xmm0,%xmm0
    94e4:	66 0f 2e 45 f0       	ucomisd -0x10(%rbp),%xmm0
    94e9:	7a 0b                	jp     94f6 <safe_div_func_double_f_f+0x4f>
    94eb:	66 0f ef c0          	pxor   %xmm0,%xmm0
    94ef:	66 0f 2e 45 f0       	ucomisd -0x10(%rbp),%xmm0
    94f4:	74 50                	je     9546 <safe_div_func_double_f_f+0x9f>
    94f6:	f2 0f 10 4d f8       	movsd  -0x8(%rbp),%xmm1
    94fb:	f2 0f 10 05 e5 67 01 	movsd  0x167e5(%rip),%xmm0        # 1fce8 <g_2423+0x1c38>
    9502:	00 
    9503:	f2 0f 59 c1          	mulsd  %xmm1,%xmm0
    9507:	f2 0f 10 55 f0       	movsd  -0x10(%rbp),%xmm2
    950c:	f2 0f 10 0d dc 67 01 	movsd  0x167dc(%rip),%xmm1        # 1fcf0 <g_2423+0x1c40>
    9513:	00 
    9514:	f2 0f 59 ca          	mulsd  %xmm2,%xmm1
    9518:	f2 0f 5e c1          	divsd  %xmm1,%xmm0
    951c:	f3 0f 7e 0d 8c 67 01 	movq   0x1678c(%rip),%xmm1        # 1fcb0 <g_2423+0x1c00>
    9523:	00 
    9524:	66 0f 54 c1          	andpd  %xmm1,%xmm0
    9528:	66 0f 2f 05 c8 67 01 	comisd 0x167c8(%rip),%xmm0        # 1fcf8 <g_2423+0x1c48>
    952f:	00 
    9530:	0f 97 c0             	seta   %al
    9533:	83 f0 01             	xor    $0x1,%eax
    9536:	84 c0                	test   %al,%al
    9538:	74 0c                	je     9546 <safe_div_func_double_f_f+0x9f>
    953a:	f2 0f 10 45 f8       	movsd  -0x8(%rbp),%xmm0
    953f:	f2 0f 5e 45 f0       	divsd  -0x10(%rbp),%xmm0
    9544:	eb 05                	jmp    954b <safe_div_func_double_f_f+0xa4>
    9546:	f2 0f 10 45 f8       	movsd  -0x8(%rbp),%xmm0
    954b:	5d                   	pop    %rbp
    954c:	c3                   	retq   

000000000000954d <safe_convert_func_float_to_int32_t>:
    954d:	f3 0f 1e fa          	endbr64 
    9551:	55                   	push   %rbp
    9552:	48 89 e5             	mov    %rsp,%rbp
    9555:	f3 0f 11 45 fc       	movss  %xmm0,-0x4(%rbp)
    955a:	f3 0f 10 05 9e 67 01 	movss  0x1679e(%rip),%xmm0        # 1fd00 <g_2423+0x1c50>
    9561:	00 
    9562:	0f 2f 45 fc          	comiss -0x4(%rbp),%xmm0
    9566:	0f 93 c0             	setae  %al
    9569:	83 f0 01             	xor    $0x1,%eax
    956c:	84 c0                	test   %al,%al
    956e:	74 21                	je     9591 <safe_convert_func_float_to_int32_t+0x44>
    9570:	f3 0f 10 45 fc       	movss  -0x4(%rbp),%xmm0
    9575:	0f 2f 05 88 67 01 00 	comiss 0x16788(%rip),%xmm0        # 1fd04 <g_2423+0x1c54>
    957c:	0f 93 c0             	setae  %al
    957f:	83 f0 01             	xor    $0x1,%eax
    9582:	84 c0                	test   %al,%al
    9584:	74 0b                	je     9591 <safe_convert_func_float_to_int32_t+0x44>
    9586:	f3 0f 10 45 fc       	movss  -0x4(%rbp),%xmm0
    958b:	f3 0f 2c c0          	cvttss2si %xmm0,%eax
    958f:	eb 05                	jmp    9596 <safe_convert_func_float_to_int32_t+0x49>
    9591:	b8 ff ff ff 7f       	mov    $0x7fffffff,%eax
    9596:	5d                   	pop    %rbp
    9597:	c3                   	retq   

0000000000009598 <crc32_gentab>:
    9598:	f3 0f 1e fa          	endbr64 
    959c:	55                   	push   %rbp
    959d:	48 89 e5             	mov    %rsp,%rbp
    95a0:	c7 45 fc 20 83 b8 ed 	movl   $0xedb88320,-0x4(%rbp)
    95a7:	c7 45 f4 00 00 00 00 	movl   $0x0,-0xc(%rbp)
    95ae:	eb 51                	jmp    9601 <crc32_gentab+0x69>
    95b0:	8b 45 f4             	mov    -0xc(%rbp),%eax
    95b3:	89 45 f0             	mov    %eax,-0x10(%rbp)
    95b6:	c7 45 f8 08 00 00 00 	movl   $0x8,-0x8(%rbp)
    95bd:	eb 1e                	jmp    95dd <crc32_gentab+0x45>
    95bf:	8b 45 f0             	mov    -0x10(%rbp),%eax
    95c2:	83 e0 01             	and    $0x1,%eax
    95c5:	85 c0                	test   %eax,%eax
    95c7:	74 0d                	je     95d6 <crc32_gentab+0x3e>
    95c9:	8b 45 f0             	mov    -0x10(%rbp),%eax
    95cc:	d1 e8                	shr    %eax
    95ce:	33 45 fc             	xor    -0x4(%rbp),%eax
    95d1:	89 45 f0             	mov    %eax,-0x10(%rbp)
    95d4:	eb 03                	jmp    95d9 <crc32_gentab+0x41>
    95d6:	d1 6d f0             	shrl   -0x10(%rbp)
    95d9:	83 6d f8 01          	subl   $0x1,-0x8(%rbp)
    95dd:	83 7d f8 00          	cmpl   $0x0,-0x8(%rbp)
    95e1:	7f dc                	jg     95bf <crc32_gentab+0x27>
    95e3:	8b 45 f4             	mov    -0xc(%rbp),%eax
    95e6:	48 98                	cltq   
    95e8:	48 8d 0c 85 00 00 00 	lea    0x0(,%rax,4),%rcx
    95ef:	00 
    95f0:	48 8d 15 29 cc 01 00 	lea    0x1cc29(%rip),%rdx        # 26220 <crc32_tab>
    95f7:	8b 45 f0             	mov    -0x10(%rbp),%eax
    95fa:	89 04 11             	mov    %eax,(%rcx,%rdx,1)
    95fd:	83 45 f4 01          	addl   $0x1,-0xc(%rbp)
    9601:	81 7d f4 ff 00 00 00 	cmpl   $0xff,-0xc(%rbp)
    9608:	7e a6                	jle    95b0 <crc32_gentab+0x18>
    960a:	90                   	nop
    960b:	90                   	nop
    960c:	5d                   	pop    %rbp
    960d:	c3                   	retq   

000000000000960e <crc32_byte>:
    960e:	f3 0f 1e fa          	endbr64 
    9612:	55                   	push   %rbp
    9613:	48 89 e5             	mov    %rsp,%rbp
    9616:	89 f8                	mov    %edi,%eax
    9618:	88 45 fc             	mov    %al,-0x4(%rbp)
    961b:	8b 05 ff 99 01 00    	mov    0x199ff(%rip),%eax        # 23020 <crc32_context>
    9621:	c1 e8 08             	shr    $0x8,%eax
    9624:	89 c1                	mov    %eax,%ecx
    9626:	0f b6 55 fc          	movzbl -0x4(%rbp),%edx
    962a:	8b 05 f0 99 01 00    	mov    0x199f0(%rip),%eax        # 23020 <crc32_context>
    9630:	31 d0                	xor    %edx,%eax
    9632:	0f b6 c0             	movzbl %al,%eax
    9635:	89 c0                	mov    %eax,%eax
    9637:	48 8d 14 85 00 00 00 	lea    0x0(,%rax,4),%rdx
    963e:	00 
    963f:	48 8d 05 da cb 01 00 	lea    0x1cbda(%rip),%rax        # 26220 <crc32_tab>
    9646:	8b 04 02             	mov    (%rdx,%rax,1),%eax
    9649:	31 c8                	xor    %ecx,%eax
    964b:	89 05 cf 99 01 00    	mov    %eax,0x199cf(%rip)        # 23020 <crc32_context>
    9651:	90                   	nop
    9652:	5d                   	pop    %rbp
    9653:	c3                   	retq   

0000000000009654 <crc32_8bytes>:
    9654:	f3 0f 1e fa          	endbr64 
    9658:	55                   	push   %rbp
    9659:	48 89 e5             	mov    %rsp,%rbp
    965c:	48 83 ec 08          	sub    $0x8,%rsp
    9660:	48 89 7d f8          	mov    %rdi,-0x8(%rbp)
    9664:	48 8b 45 f8          	mov    -0x8(%rbp),%rax
    9668:	0f b6 c0             	movzbl %al,%eax
    966b:	89 c7                	mov    %eax,%edi
    966d:	e8 9c ff ff ff       	callq  960e <crc32_byte>
    9672:	48 8b 45 f8          	mov    -0x8(%rbp),%rax
    9676:	48 c1 e8 08          	shr    $0x8,%rax
    967a:	0f b6 c0             	movzbl %al,%eax
    967d:	89 c7                	mov    %eax,%edi
    967f:	e8 8a ff ff ff       	callq  960e <crc32_byte>
    9684:	48 8b 45 f8          	mov    -0x8(%rbp),%rax
    9688:	48 c1 e8 10          	shr    $0x10,%rax
    968c:	0f b6 c0             	movzbl %al,%eax
    968f:	89 c7                	mov    %eax,%edi
    9691:	e8 78 ff ff ff       	callq  960e <crc32_byte>
    9696:	48 8b 45 f8          	mov    -0x8(%rbp),%rax
    969a:	48 c1 e8 18          	shr    $0x18,%rax
    969e:	0f b6 c0             	movzbl %al,%eax
    96a1:	89 c7                	mov    %eax,%edi
    96a3:	e8 66 ff ff ff       	callq  960e <crc32_byte>
    96a8:	48 8b 45 f8          	mov    -0x8(%rbp),%rax
    96ac:	48 c1 e8 20          	shr    $0x20,%rax
    96b0:	0f b6 c0             	movzbl %al,%eax
    96b3:	89 c7                	mov    %eax,%edi
    96b5:	e8 54 ff ff ff       	callq  960e <crc32_byte>
    96ba:	48 8b 45 f8          	mov    -0x8(%rbp),%rax
    96be:	48 c1 e8 28          	shr    $0x28,%rax
    96c2:	0f b6 c0             	movzbl %al,%eax
    96c5:	89 c7                	mov    %eax,%edi
    96c7:	e8 42 ff ff ff       	callq  960e <crc32_byte>
    96cc:	48 8b 45 f8          	mov    -0x8(%rbp),%rax
    96d0:	48 c1 e8 30          	shr    $0x30,%rax
    96d4:	0f b6 c0             	movzbl %al,%eax
    96d7:	89 c7                	mov    %eax,%edi
    96d9:	e8 30 ff ff ff       	callq  960e <crc32_byte>
    96de:	48 8b 45 f8          	mov    -0x8(%rbp),%rax
    96e2:	48 c1 e8 38          	shr    $0x38,%rax
    96e6:	0f b6 c0             	movzbl %al,%eax
    96e9:	89 c7                	mov    %eax,%edi
    96eb:	e8 1e ff ff ff       	callq  960e <crc32_byte>
    96f0:	90                   	nop
    96f1:	c9                   	leaveq 
    96f2:	c3                   	retq   

00000000000096f3 <transparent_crc>:
    96f3:	f3 0f 1e fa          	endbr64 
    96f7:	55                   	push   %rbp
    96f8:	48 89 e5             	mov    %rsp,%rbp
    96fb:	48 83 ec 20          	sub    $0x20,%rsp
    96ff:	48 89 7d f8          	mov    %rdi,-0x8(%rbp)
    9703:	48 89 75 f0          	mov    %rsi,-0x10(%rbp)
    9707:	89 55 ec             	mov    %edx,-0x14(%rbp)
    970a:	48 8b 45 f8          	mov    -0x8(%rbp),%rax
    970e:	48 89 c7             	mov    %rax,%rdi
    9711:	e8 3e ff ff ff       	callq  9654 <crc32_8bytes>
    9716:	83 7d ec 00          	cmpl   $0x0,-0x14(%rbp)
    971a:	74 22                	je     973e <transparent_crc+0x4b>
    971c:	8b 05 fe 98 01 00    	mov    0x198fe(%rip),%eax        # 23020 <crc32_context>
    9722:	f7 d0                	not    %eax
    9724:	89 c2                	mov    %eax,%edx
    9726:	48 8b 45 f0          	mov    -0x10(%rbp),%rax
    972a:	48 89 c6             	mov    %rax,%rsi
    972d:	48 8d 3d fc 48 01 00 	lea    0x148fc(%rip),%rdi        # 1e030 <_IO_stdin_used+0x30>
    9734:	b8 00 00 00 00       	mov    $0x0,%eax
    9739:	e8 42 e9 ff ff       	callq  8080 <printf@plt>
    973e:	90                   	nop
    973f:	c9                   	leaveq 
    9740:	c3                   	retq   

0000000000009741 <transparent_crc_bytes>:
    9741:	f3 0f 1e fa          	endbr64 
    9745:	55                   	push   %rbp
    9746:	48 89 e5             	mov    %rsp,%rbp
    9749:	48 83 ec 30          	sub    $0x30,%rsp
    974d:	48 89 7d e8          	mov    %rdi,-0x18(%rbp)
    9751:	89 75 e4             	mov    %esi,-0x1c(%rbp)
    9754:	48 89 55 d8          	mov    %rdx,-0x28(%rbp)
    9758:	89 4d e0             	mov    %ecx,-0x20(%rbp)
    975b:	c7 45 fc 00 00 00 00 	movl   $0x0,-0x4(%rbp)
    9762:	eb 1e                	jmp    9782 <transparent_crc_bytes+0x41>
    9764:	8b 45 fc             	mov    -0x4(%rbp),%eax
    9767:	48 63 d0             	movslq %eax,%rdx
    976a:	48 8b 45 e8          	mov    -0x18(%rbp),%rax
    976e:	48 01 d0             	add    %rdx,%rax
    9771:	0f b6 00             	movzbl (%rax),%eax
    9774:	0f b6 c0             	movzbl %al,%eax
    9777:	89 c7                	mov    %eax,%edi
    9779:	e8 90 fe ff ff       	callq  960e <crc32_byte>
    977e:	83 45 fc 01          	addl   $0x1,-0x4(%rbp)
    9782:	8b 45 fc             	mov    -0x4(%rbp),%eax
    9785:	3b 45 e4             	cmp    -0x1c(%rbp),%eax
    9788:	7c da                	jl     9764 <transparent_crc_bytes+0x23>
    978a:	83 7d e0 00          	cmpl   $0x0,-0x20(%rbp)
    978e:	74 22                	je     97b2 <transparent_crc_bytes+0x71>
    9790:	8b 05 8a 98 01 00    	mov    0x1988a(%rip),%eax        # 23020 <crc32_context>
    9796:	f7 d0                	not    %eax
    9798:	89 c2                	mov    %eax,%edx
    979a:	48 8b 45 d8          	mov    -0x28(%rbp),%rax
    979e:	48 89 c6             	mov    %rax,%rsi
    97a1:	48 8d 3d 88 48 01 00 	lea    0x14888(%rip),%rdi        # 1e030 <_IO_stdin_used+0x30>
    97a8:	b8 00 00 00 00       	mov    $0x0,%eax
    97ad:	e8 ce e8 ff ff       	callq  8080 <printf@plt>
    97b2:	90                   	nop
    97b3:	c9                   	leaveq 
    97b4:	c3                   	retq   

00000000000097b5 <func_1>:
    97b5:	f3 0f 1e fa          	endbr64 
    97b9:	55                   	push   %rbp
    97ba:	48 89 e5             	mov    %rsp,%rbp
    97bd:	41 56                	push   %r14
    97bf:	41 55                	push   %r13
    97c1:	41 54                	push   %r12
    97c3:	53                   	push   %rbx
    97c4:	48 81 ec d0 01 00 00 	sub    $0x1d0,%rsp
    97cb:	64 48 8b 04 25 28 00 	mov    %fs:0x28,%rax
    97d2:	00 00 
    97d4:	48 89 45 d8          	mov    %rax,-0x28(%rbp)
    97d8:	31 c0                	xor    %eax,%eax
    97da:	66 c7 85 1c fe ff ff 	movw   $0x8,-0x1e4(%rbp)
    97e1:	08 00 
    97e3:	66 c7 85 46 fe ff ff 	movw   $0x7,-0x1ba(%rbp)
    97ea:	07 00 
    97ec:	66 c7 85 48 fe ff ff 	movw   $0x7,-0x1b8(%rbp)
    97f3:	07 00 
    97f5:	66 c7 85 4a fe ff ff 	movw   $0x7,-0x1b6(%rbp)
    97fc:	07 00 
    97fe:	66 c7 85 4c fe ff ff 	movw   $0x7,-0x1b4(%rbp)
    9805:	07 00 
    9807:	66 c7 85 4e fe ff ff 	movw   $0x7,-0x1b2(%rbp)
    980e:	07 00 
    9810:	48 8d 05 11 98 01 00 	lea    0x19811(%rip),%rax        # 23028 <g_31>
    9817:	48 89 85 28 fe ff ff 	mov    %rax,-0x1d8(%rbp)
    981e:	48 8d 85 50 fe ff ff 	lea    -0x1b0(%rbp),%rax
    9825:	48 8d 15 94 9c 01 00 	lea    0x19c94(%rip),%rdx        # 234c0 <g_2398+0x8>
    982c:	b9 30 00 00 00       	mov    $0x30,%ecx
    9831:	48 89 c7             	mov    %rax,%rdi
    9834:	48 89 d6             	mov    %rdx,%rsi
    9837:	f3 48 a5             	rep movsq %ds:(%rsi),%es:(%rdi)
    983a:	48 8d 85 50 fe ff ff 	lea    -0x1b0(%rbp),%rax
    9841:	48 05 58 01 00 00    	add    $0x158,%rax
    9847:	48 89 85 30 fe ff ff 	mov    %rax,-0x1d0(%rbp)
    984e:	48 8d 05 0b 99 01 00 	lea    0x1990b(%rip),%rax        # 23160 <g_556>
    9855:	48 89 85 38 fe ff ff 	mov    %rax,-0x1c8(%rbp)
    985c:	c7 85 20 fe ff ff 3d 	movl   $0xa392003d,-0x1e0(%rbp)
    9863:	00 92 a3 
    9866:	c7 85 24 fe ff ff 00 	movl   $0x0,-0x1dc(%rbp)
    986d:	00 00 00 
    9870:	66 c7 85 1e fe ff ff 	movw   $0x4655,-0x1e2(%rbp)
    9877:	55 46 
    9879:	0f b7 85 46 fe ff ff 	movzwl -0x1ba(%rbp),%eax
    9880:	0f b7 d8             	movzwl %ax,%ebx
    9883:	0f b7 85 4a fe ff ff 	movzwl -0x1b6(%rbp),%eax
    988a:	44 0f b7 e8          	movzwl %ax,%r13d
    988e:	4c 0f bf a5 1c fe ff 	movswq -0x1e4(%rbp),%r12
    9895:	ff 
    9896:	0f b7 85 4a fe ff ff 	movzwl -0x1b6(%rbp),%eax
    989d:	44 0f b7 f0          	movzwl %ax,%r14d
    98a1:	8b 05 7d 97 01 00    	mov    0x1977d(%rip),%eax        # 23024 <g_18>
    98a7:	48 63 c8             	movslq %eax,%rcx
    98aa:	0f b7 85 4c fe ff ff 	movzwl -0x1b4(%rbp),%eax
    98b1:	0f b7 d0             	movzwl %ax,%edx
    98b4:	48 8b 85 28 fe ff ff 	mov    -0x1d8(%rbp),%rax
    98bb:	48 89 10             	mov    %rdx,(%rax)
    98be:	48 8b 85 28 fe ff ff 	mov    -0x1d8(%rbp),%rax
    98c5:	48 8b 00             	mov    (%rax),%rax
    98c8:	48 39 c1             	cmp    %rax,%rcx
    98cb:	0f 9e c0             	setle  %al
    98ce:	0f b6 c0             	movzbl %al,%eax
    98d1:	89 c7                	mov    %eax,%edi
    98d3:	e8 08 a8 00 00       	callq  140e0 <func_28>
    98d8:	98                   	cwtl   
    98d9:	be 03 00 00 00       	mov    $0x3,%esi
    98de:	89 c7                	mov    %eax,%edi
    98e0:	e8 ad eb ff ff       	callq  8492 <safe_lshift_func_int16_t_s_s>
    98e5:	0f b6 c0             	movzbl %al,%eax
    98e8:	44 89 f6             	mov    %r14d,%esi
    98eb:	89 c7                	mov    %eax,%edi
    98ed:	e8 9b f3 ff ff       	callq  8c8d <safe_rshift_func_uint8_t_u_s>
    98f2:	48 8b 05 af b9 01 00 	mov    0x1b9af(%rip),%rax        # 252a8 <g_307>
    98f9:	8b 00                	mov    (%rax),%eax
    98fb:	8b 15 23 97 01 00    	mov    0x19723(%rip),%edx        # 23024 <g_18>
    9901:	89 c6                	mov    %eax,%esi
    9903:	89 d7                	mov    %edx,%edi
    9905:	e8 81 98 00 00       	callq  1318b <func_21>
    990a:	49 89 c6             	mov    %rax,%r14
    990d:	8b 05 11 97 01 00    	mov    0x19711(%rip),%eax        # 23024 <g_18>
    9913:	0f b7 c0             	movzwl %ax,%eax
    9916:	be bf 4d 00 00       	mov    $0x4dbf,%esi
    991b:	89 c7                	mov    %eax,%edi
    991d:	e8 1b f4 ff ff       	callq  8d3d <safe_mul_func_uint16_t_u_u>
    9922:	0f b7 d0             	movzwl %ax,%edx
    9925:	8b 05 f9 96 01 00    	mov    0x196f9(%rip),%eax        # 23024 <g_18>
    992b:	0f b7 f0             	movzwl %ax,%esi
    992e:	0f b7 85 4a fe ff ff 	movzwl -0x1b6(%rbp),%eax
    9935:	0f b7 c0             	movzwl %ax,%eax
    9938:	4c 89 f1             	mov    %r14,%rcx
    993b:	89 c7                	mov    %eax,%edi
    993d:	e8 8d 3f 00 00       	callq  d8cf <func_12>
    9942:	48 8b 95 30 fe ff ff 	mov    -0x1d0(%rbp),%rdx
    9949:	48 89 02             	mov    %rax,(%rdx)
    994c:	b8 00 00 00 00       	mov    $0x0,%eax
    9951:	48 98                	cltq   
    9953:	ba 9b 79 5a af       	mov    $0xaf5a799b,%edx
    9958:	48 31 d0             	xor    %rdx,%rax
    995b:	48 89 c6             	mov    %rax,%rsi
    995e:	0f bf 85 1c fe ff ff 	movswl -0x1e4(%rbp),%eax
    9965:	44 89 e9             	mov    %r13d,%ecx
    9968:	4c 89 e2             	mov    %r12,%rdx
    996b:	89 c7                	mov    %eax,%edi
    996d:	e8 4f 00 00 00       	callq  99c1 <func_6>
    9972:	98                   	cwtl   
    9973:	be 07 00 00 00       	mov    $0x7,%esi
    9978:	89 c7                	mov    %eax,%edi
    997a:	e8 d6 ea ff ff       	callq  8455 <safe_div_func_int16_t_s_s>
    997f:	0f b6 c0             	movzbl %al,%eax
    9982:	89 de                	mov    %ebx,%esi
    9984:	89 c7                	mov    %eax,%edi
    9986:	e8 c1 f2 ff ff       	callq  8c4c <safe_lshift_func_uint8_t_u_u>
    998b:	b8 00 00 00 00       	mov    $0x0,%eax
    9990:	31 85 24 fe ff ff    	xor    %eax,-0x1dc(%rbp)
    9996:	0f b7 85 1e fe ff ff 	movzwl -0x1e2(%rbp),%eax
    999d:	48 8b 5d d8          	mov    -0x28(%rbp),%rbx
    99a1:	64 48 33 1c 25 28 00 	xor    %fs:0x28,%rbx
    99a8:	00 00 
    99aa:	74 05                	je     99b1 <func_1+0x1fc>
    99ac:	e8 bf e6 ff ff       	callq  8070 <__stack_chk_fail@plt>
    99b1:	48 81 c4 d0 01 00 00 	add    $0x1d0,%rsp
    99b8:	5b                   	pop    %rbx
    99b9:	41 5c                	pop    %r12
    99bb:	41 5d                	pop    %r13
    99bd:	41 5e                	pop    %r14
    99bf:	5d                   	pop    %rbp
    99c0:	c3                   	retq   

00000000000099c1 <func_6>:
    99c1:	f3 0f 1e fa          	endbr64 
    99c5:	55                   	push   %rbp
    99c6:	48 89 e5             	mov    %rsp,%rbp
    99c9:	41 57                	push   %r15
    99cb:	41 56                	push   %r14
    99cd:	41 55                	push   %r13
    99cf:	41 54                	push   %r12
    99d1:	53                   	push   %rbx
    99d2:	48 81 ec 00 10 00 00 	sub    $0x1000,%rsp
    99d9:	48 83 0c 24 00       	orq    $0x0,(%rsp)
    99de:	48 83 ec 38          	sub    $0x38,%rsp
    99e2:	89 bd bc ef ff ff    	mov    %edi,-0x1044(%rbp)
    99e8:	48 89 b5 b0 ef ff ff 	mov    %rsi,-0x1050(%rbp)
    99ef:	48 89 95 a8 ef ff ff 	mov    %rdx,-0x1058(%rbp)
    99f6:	89 8d b8 ef ff ff    	mov    %ecx,-0x1048(%rbp)
    99fc:	64 48 8b 04 25 28 00 	mov    %fs:0x28,%rax
    9a03:	00 00 
    9a05:	48 89 45 c8          	mov    %rax,-0x38(%rbp)
    9a09:	31 c0                	xor    %eax,%eax
    9a0b:	48 8d 05 4e 46 01 00 	lea    0x1464e(%rip),%rax        # 1e060 <g_2179>
    9a12:	48 89 85 00 f3 ff ff 	mov    %rax,-0xd00(%rbp)
    9a19:	48 8d 05 40 46 01 00 	lea    0x14640(%rip),%rax        # 1e060 <g_2179>
    9a20:	48 89 85 08 f3 ff ff 	mov    %rax,-0xcf8(%rbp)
    9a27:	48 8d 05 32 46 01 00 	lea    0x14632(%rip),%rax        # 1e060 <g_2179>
    9a2e:	48 89 85 10 f3 ff ff 	mov    %rax,-0xcf0(%rbp)
    9a35:	48 8d 05 24 46 01 00 	lea    0x14624(%rip),%rax        # 1e060 <g_2179>
    9a3c:	48 89 85 18 f3 ff ff 	mov    %rax,-0xce8(%rbp)
    9a43:	48 8d 05 16 46 01 00 	lea    0x14616(%rip),%rax        # 1e060 <g_2179>
    9a4a:	48 89 85 20 f3 ff ff 	mov    %rax,-0xce0(%rbp)
    9a51:	48 8d 05 08 46 01 00 	lea    0x14608(%rip),%rax        # 1e060 <g_2179>
    9a58:	48 89 85 28 f3 ff ff 	mov    %rax,-0xcd8(%rbp)
    9a5f:	48 8d 05 fa 45 01 00 	lea    0x145fa(%rip),%rax        # 1e060 <g_2179>
    9a66:	48 89 85 30 f3 ff ff 	mov    %rax,-0xcd0(%rbp)
    9a6d:	48 8d 05 ec 45 01 00 	lea    0x145ec(%rip),%rax        # 1e060 <g_2179>
    9a74:	48 89 85 38 f3 ff ff 	mov    %rax,-0xcc8(%rbp)
    9a7b:	48 8d 05 de 45 01 00 	lea    0x145de(%rip),%rax        # 1e060 <g_2179>
    9a82:	48 89 85 40 f3 ff ff 	mov    %rax,-0xcc0(%rbp)
    9a89:	48 8d 05 d0 45 01 00 	lea    0x145d0(%rip),%rax        # 1e060 <g_2179>
    9a90:	48 89 85 48 f3 ff ff 	mov    %rax,-0xcb8(%rbp)
    9a97:	48 8d 85 00 f3 ff ff 	lea    -0xd00(%rbp),%rax
    9a9e:	48 83 c0 20          	add    $0x20,%rax
    9aa2:	48 89 85 70 f2 ff ff 	mov    %rax,-0xd90(%rbp)
    9aa9:	48 8d 85 00 f3 ff ff 	lea    -0xd00(%rbp),%rax
    9ab0:	48 83 c0 20          	add    $0x20,%rax
    9ab4:	48 89 85 78 f2 ff ff 	mov    %rax,-0xd88(%rbp)
    9abb:	48 8d 85 00 f3 ff ff 	lea    -0xd00(%rbp),%rax
    9ac2:	48 83 c0 20          	add    $0x20,%rax
    9ac6:	48 89 85 80 f2 ff ff 	mov    %rax,-0xd80(%rbp)
    9acd:	48 8d 85 00 f3 ff ff 	lea    -0xd00(%rbp),%rax
    9ad4:	48 83 c0 20          	add    $0x20,%rax
    9ad8:	48 89 85 88 f2 ff ff 	mov    %rax,-0xd78(%rbp)
    9adf:	48 8d 85 00 f3 ff ff 	lea    -0xd00(%rbp),%rax
    9ae6:	48 83 c0 20          	add    $0x20,%rax
    9aea:	48 89 85 90 f2 ff ff 	mov    %rax,-0xd70(%rbp)
    9af1:	48 8d 05 70 45 01 00 	lea    0x14570(%rip),%rax        # 1e068 <g_2182>
    9af8:	48 89 85 a0 f0 ff ff 	mov    %rax,-0xf60(%rbp)
    9aff:	c7 85 dc ef ff ff 32 	movl   $0x1610a32,-0x1024(%rbp)
    9b06:	0a 61 01 
    9b09:	48 8d 85 80 f4 ff ff 	lea    -0xb80(%rbp),%rax
    9b10:	48 8d 15 a9 45 01 00 	lea    0x145a9(%rip),%rdx        # 1e0c0 <g_2423+0x10>
    9b17:	b9 24 00 00 00       	mov    $0x24,%ecx
    9b1c:	48 89 c7             	mov    %rax,%rdi
    9b1f:	48 89 d6             	mov    %rdx,%rsi
    9b22:	f3 48 a5             	rep movsq %ds:(%rsi),%es:(%rdi)
    9b25:	c6 85 cb ef ff ff 01 	movb   $0x1,-0x1035(%rbp)
    9b2c:	c7 85 30 f0 ff ff 2e 	movl   $0xece3592e,-0xfd0(%rbp)
    9b33:	59 e3 ec 
    9b36:	48 8d 05 9b c4 01 00 	lea    0x1c49b(%rip),%rax        # 25fd8 <g_1469>
    9b3d:	48 89 85 a8 f0 ff ff 	mov    %rax,-0xf58(%rbp)
    9b44:	c7 85 34 f0 ff ff de 	movl   $0xda417dde,-0xfcc(%rbp)
    9b4b:	7d 41 da 
    9b4e:	48 8d 05 db ca 01 00 	lea    0x1cadb(%rip),%rax        # 26630 <g_251>
    9b55:	48 89 85 b0 f0 ff ff 	mov    %rax,-0xf50(%rbp)
    9b5c:	48 c7 85 90 f0 ff ff 	movq   $0x0,-0xf70(%rbp)
    9b63:	00 00 00 00 
    9b67:	c6 85 cc ef ff ff ad 	movb   $0xad,-0x1034(%rbp)
    9b6e:	c7 85 0c f0 ff ff ff 	movl   $0xffffffff,-0xff4(%rbp)
    9b75:	ff ff ff 
    9b78:	c7 85 30 f2 ff ff 3e 	movl   $0x6aeb963e,-0xdd0(%rbp)
    9b7f:	96 eb 6a 
    9b82:	c7 85 34 f2 ff ff 00 	movl   $0x0,-0xdcc(%rbp)
    9b89:	00 00 00 
    9b8c:	c7 85 38 f2 ff ff 3e 	movl   $0x6aeb963e,-0xdc8(%rbp)
    9b93:	96 eb 6a 
    9b96:	c7 85 3c f2 ff ff 00 	movl   $0x0,-0xdc4(%rbp)
    9b9d:	00 00 00 
    9ba0:	66 c7 85 d4 ef ff ff 	movw   $0x501,-0x102c(%rbp)
    9ba7:	01 05 
    9ba9:	66 c7 85 d6 ef ff ff 	movw   $0x0,-0x102a(%rbp)
    9bb0:	00 00 
    9bb2:	48 8d 05 1f 98 01 00 	lea    0x1981f(%rip),%rax        # 233d8 <g_1182>
    9bb9:	48 89 85 b8 f0 ff ff 	mov    %rax,-0xf48(%rbp)
    9bc0:	48 8b 05 81 c4 01 00 	mov    0x1c481(%rip),%rax        # 26048 <g_1933>
    9bc7:	48 8b 10             	mov    (%rax),%rdx
    9bca:	48 8b 85 20 f3 ff ff 	mov    -0xce0(%rbp),%rax
    9bd1:	48 89 85 a0 f0 ff ff 	mov    %rax,-0xf60(%rbp)
    9bd8:	48 8b 85 a0 f0 ff ff 	mov    -0xf60(%rbp),%rax
    9bdf:	48 89 05 ca ca 01 00 	mov    %rax,0x1caca(%rip)        # 266b0 <g_2183>
    9be6:	48 8b 05 c3 ca 01 00 	mov    0x1cac3(%rip),%rax        # 266b0 <g_2183>
    9bed:	48 39 c2             	cmp    %rax,%rdx
    9bf0:	0f 85 19 2b 00 00    	jne    c70f <func_6+0x2d4e>
    9bf6:	48 8d 05 a3 95 01 00 	lea    0x195a3(%rip),%rax        # 231a0 <g_595>
    9bfd:	48 89 85 c0 f0 ff ff 	mov    %rax,-0xf40(%rbp)
    9c04:	c7 85 e0 ef ff ff ff 	movl   $0xffffffff,-0x1020(%rbp)
    9c0b:	ff ff ff 
    9c0e:	48 8d 05 83 97 01 00 	lea    0x19783(%rip),%rax        # 23398 <g_857+0x38>
    9c15:	48 89 85 c8 f0 ff ff 	mov    %rax,-0xf38(%rbp)
    9c1c:	c7 85 e4 ef ff ff 66 	movl   $0xf5b91466,-0x101c(%rbp)
    9c23:	14 b9 f5 
    9c26:	c7 85 e8 ef ff ff 07 	movl   $0x7,-0x1018(%rbp)
    9c2d:	00 00 00 
    9c30:	c7 85 50 f3 ff ff 01 	movl   $0x1,-0xcb0(%rbp)
    9c37:	00 00 00 
    9c3a:	c7 85 54 f3 ff ff ff 	movl   $0xffffffff,-0xcac(%rbp)
    9c41:	ff ff ff 
    9c44:	c7 85 58 f3 ff ff ff 	movl   $0xffffffff,-0xca8(%rbp)
    9c4b:	ff ff ff 
    9c4e:	c7 85 5c f3 ff ff ac 	movl   $0x238762ac,-0xca4(%rbp)
    9c55:	62 87 23 
    9c58:	c7 85 60 f3 ff ff 32 	movl   $0x35642d32,-0xca0(%rbp)
    9c5f:	2d 64 35 
    9c62:	c7 85 64 f3 ff ff d4 	movl   $0x5fe1c8d4,-0xc9c(%rbp)
    9c69:	c8 e1 5f 
    9c6c:	c7 85 68 f3 ff ff 01 	movl   $0x1,-0xc98(%rbp)
    9c73:	00 00 00 
    9c76:	c7 85 6c f3 ff ff ff 	movl   $0xffffffff,-0xc94(%rbp)
    9c7d:	ff ff ff 
    9c80:	c7 85 70 f3 ff ff ff 	movl   $0xffffffff,-0xc90(%rbp)
    9c87:	ff ff ff 
    9c8a:	c7 85 74 f3 ff ff ac 	movl   $0x238762ac,-0xc8c(%rbp)
    9c91:	62 87 23 
    9c94:	c7 85 78 f3 ff ff 32 	movl   $0x35642d32,-0xc88(%rbp)
    9c9b:	2d 64 35 
    9c9e:	c7 85 7c f3 ff ff d4 	movl   $0x5fe1c8d4,-0xc84(%rbp)
    9ca5:	c8 e1 5f 
    9ca8:	c7 85 80 f3 ff ff 01 	movl   $0x1,-0xc80(%rbp)
    9caf:	00 00 00 
    9cb2:	c7 85 84 f3 ff ff ff 	movl   $0xffffffff,-0xc7c(%rbp)
    9cb9:	ff ff ff 
    9cbc:	c7 85 88 f3 ff ff ff 	movl   $0xffffffff,-0xc78(%rbp)
    9cc3:	ff ff ff 
    9cc6:	c7 85 8c f3 ff ff ac 	movl   $0x238762ac,-0xc74(%rbp)
    9ccd:	62 87 23 
    9cd0:	c7 85 90 f3 ff ff 32 	movl   $0x35642d32,-0xc70(%rbp)
    9cd7:	2d 64 35 
    9cda:	c7 85 94 f3 ff ff d4 	movl   $0x5fe1c8d4,-0xc6c(%rbp)
    9ce1:	c8 e1 5f 
    9ce4:	c7 85 98 f3 ff ff 01 	movl   $0x1,-0xc68(%rbp)
    9ceb:	00 00 00 
    9cee:	c7 85 9c f3 ff ff ff 	movl   $0xffffffff,-0xc64(%rbp)
    9cf5:	ff ff ff 
    9cf8:	c7 85 a0 f3 ff ff ff 	movl   $0xffffffff,-0xc60(%rbp)
    9cff:	ff ff ff 
    9d02:	c7 85 a4 f3 ff ff ac 	movl   $0x238762ac,-0xc5c(%rbp)
    9d09:	62 87 23 
    9d0c:	c7 85 a8 f3 ff ff 32 	movl   $0x35642d32,-0xc58(%rbp)
    9d13:	2d 64 35 
    9d16:	c7 85 ac f3 ff ff d4 	movl   $0x5fe1c8d4,-0xc54(%rbp)
    9d1d:	c8 e1 5f 
    9d20:	c7 85 b0 f3 ff ff 01 	movl   $0x1,-0xc50(%rbp)
    9d27:	00 00 00 
    9d2a:	c7 85 b4 f3 ff ff ff 	movl   $0xffffffff,-0xc4c(%rbp)
    9d31:	ff ff ff 
    9d34:	c7 85 b8 f3 ff ff ff 	movl   $0xffffffff,-0xc48(%rbp)
    9d3b:	ff ff ff 
    9d3e:	c7 85 bc f3 ff ff ac 	movl   $0x238762ac,-0xc44(%rbp)
    9d45:	62 87 23 
    9d48:	c7 85 c0 f3 ff ff 32 	movl   $0x35642d32,-0xc40(%rbp)
    9d4f:	2d 64 35 
    9d52:	c7 85 c4 f3 ff ff d4 	movl   $0x5fe1c8d4,-0xc3c(%rbp)
    9d59:	c8 e1 5f 
    9d5c:	48 c7 85 d0 f0 ff ff 	movq   $0x0,-0xf30(%rbp)
    9d63:	00 00 00 00 
    9d67:	c6 85 cd ef ff ff 01 	movb   $0x1,-0x1033(%rbp)
    9d6e:	66 c7 85 d8 ef ff ff 	movw   $0x2b60,-0x1028(%rbp)
    9d75:	60 2b 
    9d77:	66 c7 85 d2 ef ff ff 	movw   $0x2206,-0x102e(%rbp)
    9d7e:	06 22 
    9d80:	48 b8 0e 4f 4a a9 71 	movabs $0xa5a67771a94a4f0e,%rax
    9d87:	77 a6 a5 
    9d8a:	48 89 85 d8 f0 ff ff 	mov    %rax,-0xf28(%rbp)
    9d91:	48 83 bd c0 f0 ff ff 	cmpq   $0x0,-0xf40(%rbp)
    9d98:	00 
    9d99:	0f 95 c0             	setne  %al
    9d9c:	0f b6 d8             	movzbl %al,%ebx
    9d9f:	48 8b 05 12 b5 01 00 	mov    0x1b512(%rip),%rax        # 252b8 <g_443>
    9da6:	0f b7 00             	movzwl (%rax),%eax
    9da9:	0f b7 d0             	movzwl %ax,%edx
    9dac:	48 8b 85 a8 ef ff ff 	mov    -0x1058(%rbp),%rax
    9db3:	0f b7 c0             	movzwl %ax,%eax
    9db6:	89 d6                	mov    %edx,%esi
    9db8:	89 c7                	mov    %eax,%edi
    9dba:	e8 9d ef ff ff       	callq  8d5c <safe_mod_func_uint16_t_u_u>
    9dbf:	0f b7 c0             	movzwl %ax,%eax
    9dc2:	39 c3                	cmp    %eax,%ebx
    9dc4:	48 8b 9d a8 ef ff ff 	mov    -0x1058(%rbp),%rbx
    9dcb:	8b 85 b8 ef ff ff    	mov    -0x1048(%rbp),%eax
    9dd1:	89 c6                	mov    %eax,%esi
    9dd3:	bf 02 00 00 00       	mov    $0x2,%edi
    9dd8:	e8 29 f0 ff ff       	callq  8e06 <safe_lshift_func_uint16_t_u_u>
    9ddd:	44 0f b7 e0          	movzwl %ax,%r12d
    9de1:	be 00 00 00 00       	mov    $0x0,%esi
    9de6:	bf 01 00 00 00       	mov    $0x1,%edi
    9deb:	e8 15 e8 ff ff       	callq  8605 <safe_sub_func_int32_t_s_s>
    9df0:	98                   	cwtl   
    9df1:	44 89 e6             	mov    %r12d,%esi
    9df4:	89 c7                	mov    %eax,%edi
    9df6:	e8 68 e7 ff ff       	callq  8563 <safe_rshift_func_int16_t_s_u>
    9dfb:	48 0f bf c0          	movswq %ax,%rax
    9dff:	48 89 de             	mov    %rbx,%rsi
    9e02:	48 89 c7             	mov    %rax,%rdi
    9e05:	e8 37 ea ff ff       	callq  8841 <safe_add_func_int64_t_s_s>
    9e0a:	0f be c0             	movsbl %al,%eax
    9e0d:	be 0b 00 00 00       	mov    $0xb,%esi
    9e12:	89 c7                	mov    %eax,%edi
    9e14:	e8 f9 e3 ff ff       	callq  8212 <safe_mul_func_int8_t_s_s>
    9e19:	84 c0                	test   %al,%al
    9e1b:	0f 84 aa 20 00 00    	je     becb <func_6+0x250a>
    9e21:	c7 85 38 f0 ff ff 5e 	movl   $0x53ddaa5e,-0xfc8(%rbp)
    9e28:	aa dd 53 
    9e2b:	48 8d 05 66 95 01 00 	lea    0x19566(%rip),%rax        # 23398 <g_857+0x38>
    9e32:	48 89 85 e0 f0 ff ff 	mov    %rax,-0xf20(%rbp)
    9e39:	c7 85 ec ef ff ff 46 	movl   $0x6f35bb46,-0x1014(%rbp)
    9e40:	bb 35 6f 
    9e43:	c7 85 3c f0 ff ff fa 	movl   $0xfffffffa,-0xfc4(%rbp)
    9e4a:	ff ff ff 
    9e4d:	c7 85 f0 ef ff ff ec 	movl   $0xad63a6ec,-0x1010(%rbp)
    9e54:	a6 63 ad 
    9e57:	c7 85 f4 ef ff ff f9 	movl   $0xfffffff9,-0x100c(%rbp)
    9e5e:	ff ff ff 
    9e61:	c7 85 f8 ef ff ff 48 	movl   $0x87e2e248,-0x1008(%rbp)
    9e68:	e2 e2 87 
    9e6b:	c7 85 fc ef ff ff 01 	movl   $0x1,-0x1004(%rbp)
    9e72:	00 00 00 
    9e75:	c7 85 00 f0 ff ff 1e 	movl   $0xaced721e,-0x1000(%rbp)
    9e7c:	72 ed ac 
    9e7f:	c7 85 04 f0 ff ff fa 	movl   $0xfffffffa,-0xffc(%rbp)
    9e86:	ff ff ff 
    9e89:	48 8d 05 b8 af 01 00 	lea    0x1afb8(%rip),%rax        # 24e48 <g_193+0x328>
    9e90:	48 89 85 e8 f0 ff ff 	mov    %rax,-0xf18(%rbp)
    9e97:	48 c7 85 98 f0 ff ff 	movq   $0x1,-0xf68(%rbp)
    9e9e:	01 00 00 00 
    9ea2:	48 8d 05 9f c7 01 00 	lea    0x1c79f(%rip),%rax        # 26648 <g_504>
    9ea9:	48 89 85 80 f0 ff ff 	mov    %rax,-0xf80(%rbp)
    9eb0:	48 8d 85 80 f0 ff ff 	lea    -0xf80(%rbp),%rax
    9eb7:	48 89 85 f0 f0 ff ff 	mov    %rax,-0xf10(%rbp)
    9ebe:	c7 85 10 f0 ff ff 00 	movl   $0x0,-0xff0(%rbp)
    9ec5:	00 00 00 
    9ec8:	eb 1a                	jmp    9ee4 <func_6+0x523>
    9eca:	8b 85 10 f0 ff ff    	mov    -0xff0(%rbp),%eax
    9ed0:	48 98                	cltq   
    9ed2:	c7 84 85 40 f2 ff ff 	movl   $0xffffffff,-0xdc0(%rbp,%rax,4)
    9ed9:	ff ff ff ff 
    9edd:	83 85 10 f0 ff ff 01 	addl   $0x1,-0xff0(%rbp)
    9ee4:	83 bd 10 f0 ff ff 02 	cmpl   $0x2,-0xff0(%rbp)
    9eeb:	7e dd                	jle    9eca <func_6+0x509>
    9eed:	c7 85 10 f0 ff ff 00 	movl   $0x0,-0xff0(%rbp)
    9ef4:	00 00 00 
    9ef7:	eb 46                	jmp    9f3f <func_6+0x57e>
    9ef9:	c7 85 14 f0 ff ff 00 	movl   $0x0,-0xfec(%rbp)
    9f00:	00 00 00 
    9f03:	eb 2a                	jmp    9f2f <func_6+0x56e>
    9f05:	8b 85 14 f0 ff ff    	mov    -0xfec(%rbp),%eax
    9f0b:	48 98                	cltq   
    9f0d:	8b 95 10 f0 ff ff    	mov    -0xff0(%rbp),%edx
    9f13:	48 63 d2             	movslq %edx,%rdx
    9f16:	48 c1 e2 03          	shl    $0x3,%rdx
    9f1a:	48 01 d0             	add    %rdx,%rax
    9f1d:	c7 84 85 a0 f2 ff ff 	movl   $0xb3b6191,-0xd60(%rbp,%rax,4)
    9f24:	91 61 3b 0b 
    9f28:	83 85 14 f0 ff ff 01 	addl   $0x1,-0xfec(%rbp)
    9f2f:	83 bd 14 f0 ff ff 07 	cmpl   $0x7,-0xfec(%rbp)
    9f36:	7e cd                	jle    9f05 <func_6+0x544>
    9f38:	83 85 10 f0 ff ff 01 	addl   $0x1,-0xff0(%rbp)
    9f3f:	83 bd 10 f0 ff ff 00 	cmpl   $0x0,-0xff0(%rbp)
    9f46:	7e b1                	jle    9ef9 <func_6+0x538>
    9f48:	8b 85 b8 ef ff ff    	mov    -0x1048(%rbp),%eax
    9f4e:	85 c0                	test   %eax,%eax
    9f50:	0f 84 81 02 00 00    	je     a1d7 <func_6+0x816>
    9f56:	c7 85 5c f0 ff ff f8 	movl   $0xfffffff8,-0xfa4(%rbp)
    9f5d:	ff ff ff 
    9f60:	c7 85 60 f0 ff ff 00 	movl   $0x0,-0xfa0(%rbp)
    9f67:	00 00 00 
    9f6a:	c7 85 64 f0 ff ff 01 	movl   $0x1,-0xf9c(%rbp)
    9f71:	00 00 00 
    9f74:	c7 85 68 f0 ff ff 08 	movl   $0x9d5c1e08,-0xf98(%rbp)
    9f7b:	1e 5c 9d 
    9f7e:	c7 85 6c f0 ff ff d7 	movl   $0x871682d7,-0xf94(%rbp)
    9f85:	82 16 87 
    9f88:	48 8d 05 11 ad 01 00 	lea    0x1ad11(%rip),%rax        # 24ca0 <g_193+0x180>
    9f8f:	48 89 85 50 f1 ff ff 	mov    %rax,-0xeb0(%rbp)
    9f96:	8b 85 38 f0 ff ff    	mov    -0xfc8(%rbp),%eax
    9f9c:	89 85 5c f0 ff ff    	mov    %eax,-0xfa4(%rbp)
    9fa2:	48 c7 85 a8 ef ff ff 	movq   $0x0,-0x1058(%rbp)
    9fa9:	00 00 00 00 
    9fad:	e9 d0 01 00 00       	jmpq   a182 <func_6+0x7c1>
    9fb2:	48 8d 85 ec ef ff ff 	lea    -0x1014(%rbp),%rax
    9fb9:	48 89 85 58 f1 ff ff 	mov    %rax,-0xea8(%rbp)
    9fc0:	48 8d 85 ec ef ff ff 	lea    -0x1014(%rbp),%rax
    9fc7:	48 89 85 60 f1 ff ff 	mov    %rax,-0xea0(%rbp)
    9fce:	48 8d 05 5b 90 01 00 	lea    0x1905b(%rip),%rax        # 23030 <g_46>
    9fd5:	48 89 85 68 f1 ff ff 	mov    %rax,-0xe98(%rbp)
    9fdc:	48 c7 85 70 f1 ff ff 	movq   $0x0,-0xe90(%rbp)
    9fe3:	00 00 00 00 
    9fe7:	48 8d 05 36 90 01 00 	lea    0x19036(%rip),%rax        # 23024 <g_18>
    9fee:	48 89 85 78 f1 ff ff 	mov    %rax,-0xe88(%rbp)
    9ff5:	48 8d 05 28 90 01 00 	lea    0x19028(%rip),%rax        # 23024 <g_18>
    9ffc:	48 89 85 80 f1 ff ff 	mov    %rax,-0xe80(%rbp)
    a003:	48 8d 85 e4 ef ff ff 	lea    -0x101c(%rbp),%rax
    a00a:	48 89 85 88 f1 ff ff 	mov    %rax,-0xe78(%rbp)
    a011:	48 8d 85 e4 ef ff ff 	lea    -0x101c(%rbp),%rax
    a018:	48 89 85 90 f1 ff ff 	mov    %rax,-0xe70(%rbp)
    a01f:	48 8d 05 0a 90 01 00 	lea    0x1900a(%rip),%rax        # 23030 <g_46>
    a026:	48 89 85 98 f1 ff ff 	mov    %rax,-0xe68(%rbp)
    a02d:	48 8d 85 ec ef ff ff 	lea    -0x1014(%rbp),%rax
    a034:	48 89 85 e0 f7 ff ff 	mov    %rax,-0x820(%rbp)
    a03b:	48 8d 85 ec ef ff ff 	lea    -0x1014(%rbp),%rax
    a042:	48 89 85 e8 f7 ff ff 	mov    %rax,-0x818(%rbp)
    a049:	48 8d 05 e0 8f 01 00 	lea    0x18fe0(%rip),%rax        # 23030 <g_46>
    a050:	48 89 85 f0 f7 ff ff 	mov    %rax,-0x810(%rbp)
    a057:	48 8d 05 d2 8f 01 00 	lea    0x18fd2(%rip),%rax        # 23030 <g_46>
    a05e:	48 89 85 f8 f7 ff ff 	mov    %rax,-0x808(%rbp)
    a065:	48 8d 85 ec ef ff ff 	lea    -0x1014(%rbp),%rax
    a06c:	48 89 85 00 f8 ff ff 	mov    %rax,-0x800(%rbp)
    a073:	48 8d 85 ec ef ff ff 	lea    -0x1014(%rbp),%rax
    a07a:	48 89 85 08 f8 ff ff 	mov    %rax,-0x7f8(%rbp)
    a081:	48 8d 85 ec ef ff ff 	lea    -0x1014(%rbp),%rax
    a088:	48 89 85 10 f8 ff ff 	mov    %rax,-0x7f0(%rbp)
    a08f:	48 8d 05 9a 8f 01 00 	lea    0x18f9a(%rip),%rax        # 23030 <g_46>
    a096:	48 89 85 18 f8 ff ff 	mov    %rax,-0x7e8(%rbp)
    a09d:	48 8d 05 8c 8f 01 00 	lea    0x18f8c(%rip),%rax        # 23030 <g_46>
    a0a4:	48 89 85 20 f8 ff ff 	mov    %rax,-0x7e0(%rbp)
    a0ab:	48 8d 85 ec ef ff ff 	lea    -0x1014(%rbp),%rax
    a0b2:	48 89 85 28 f8 ff ff 	mov    %rax,-0x7d8(%rbp)
    a0b9:	48 83 bd a8 ef ff ff 	cmpq   $0x0,-0x1058(%rbp)
    a0c0:	00 
    a0c1:	74 3b                	je     a0fe <func_6+0x73d>
    a0c3:	48 8b 05 5e bf 01 00 	mov    0x1bf5e(%rip),%rax        # 26028 <g_1718>
    a0ca:	8b 00                	mov    (%rax),%eax
    a0cc:	85 c0                	test   %eax,%eax
    a0ce:	0f 85 be 00 00 00    	jne    a192 <func_6+0x7d1>
    a0d4:	48 8b 05 25 aa 01 00 	mov    0x1aa25(%rip),%rax        # 24b00 <g_135>
    a0db:	48 8b 00             	mov    (%rax),%rax
    a0de:	8b 00                	mov    (%rax),%eax
    a0e0:	85 c0                	test   %eax,%eax
    a0e2:	75 7e                	jne    a162 <func_6+0x7a1>
    a0e4:	48 8b 85 e0 f0 ff ff 	mov    -0xf20(%rbp),%rax
    a0eb:	48 89 85 c8 f0 ff ff 	mov    %rax,-0xf38(%rbp)
    a0f2:	48 83 bd a8 ef ff ff 	cmpq   $0x0,-0x1058(%rbp)
    a0f9:	00 
    a0fa:	74 2c                	je     a128 <func_6+0x767>
    a0fc:	eb 68                	jmp    a166 <func_6+0x7a5>
    a0fe:	48 8b 85 a8 ef ff ff 	mov    -0x1058(%rbp),%rax
    a105:	89 c2                	mov    %eax,%edx
    a107:	48 8b 1d ea b9 01 00 	mov    0x1b9ea(%rip),%rbx        # 25af8 <g_764>
    a10e:	8b 85 bc ef ff ff    	mov    -0x1044(%rbp),%eax
    a114:	89 d6                	mov    %edx,%esi
    a116:	89 c7                	mov    %eax,%edi
    a118:	e8 99 e4 ff ff       	callq  85b6 <safe_add_func_int32_t_s_s>
    a11d:	89 03                	mov    %eax,(%rbx)
    a11f:	83 bd 38 f0 ff ff 00 	cmpl   $0x0,-0xfc8(%rbp)
    a126:	75 3d                	jne    a165 <func_6+0x7a4>
    a128:	80 ad cb ef ff ff 01 	subb   $0x1,-0x1035(%rbp)
    a12f:	c7 05 9f 92 01 00 00 	movl   $0x0,0x1929f(%rip)        # 233d8 <g_1182>
    a136:	00 00 00 
    a139:	90                   	nop
    a13a:	8b 05 98 92 01 00    	mov    0x19298(%rip),%eax        # 233d8 <g_1182>
    a140:	83 f8 2f             	cmp    $0x2f,%eax
    a143:	74 0c                	je     a151 <func_6+0x790>
    a145:	48 8b 85 b0 ef ff ff 	mov    -0x1050(%rbp),%rax
    a14c:	e9 58 37 00 00       	jmpq   d8a9 <func_6+0x3ee8>
    a151:	8b 85 a8 f2 ff ff    	mov    -0xd58(%rbp),%eax
    a157:	83 c0 01             	add    $0x1,%eax
    a15a:	89 85 a8 f2 ff ff    	mov    %eax,-0xd58(%rbp)
    a160:	eb 04                	jmp    a166 <func_6+0x7a5>
    a162:	90                   	nop
    a163:	eb 01                	jmp    a166 <func_6+0x7a5>
    a165:	90                   	nop
    a166:	48 8b 85 a8 ef ff ff 	mov    -0x1058(%rbp),%rax
    a16d:	be 05 00 00 00       	mov    $0x5,%esi
    a172:	89 c7                	mov    %eax,%edi
    a174:	e8 3f ed ff ff       	callq  8eb8 <safe_add_func_uint32_t_u_u>
    a179:	89 c0                	mov    %eax,%eax
    a17b:	48 89 85 a8 ef ff ff 	mov    %rax,-0x1058(%rbp)
    a182:	48 83 bd a8 ef ff ff 	cmpq   $0x25,-0x1058(%rbp)
    a189:	25 
    a18a:	0f 87 22 fe ff ff    	ja     9fb2 <func_6+0x5f1>
    a190:	eb 01                	jmp    a193 <func_6+0x7d2>
    a192:	90                   	nop
    a193:	48 83 85 98 f0 ff ff 	addq   $0x1,-0xf68(%rbp)
    a19a:	01 
    a19b:	48 8b 85 d0 f0 ff ff 	mov    -0xf30(%rbp),%rax
    a1a2:	48 3b 85 a8 f0 ff ff 	cmp    -0xf58(%rbp),%rax
    a1a9:	0f 95 c0             	setne  %al
    a1ac:	0f b6 c0             	movzbl %al,%eax
    a1af:	be 00 00 00 00       	mov    $0x0,%esi
    a1b4:	89 c7                	mov    %eax,%edi
    a1b6:	e8 9a e2 ff ff       	callq  8455 <safe_div_func_int16_t_s_s>
    a1bb:	48 8b 15 46 b9 01 00 	mov    0x1b946(%rip),%rdx        # 25b08 <g_1230>
    a1c2:	8b 0a                	mov    (%rdx),%ecx
    a1c4:	0f bf d0             	movswl %ax,%edx
    a1c7:	48 8b 05 3a b9 01 00 	mov    0x1b93a(%rip),%rax        # 25b08 <g_1230>
    a1ce:	21 ca                	and    %ecx,%edx
    a1d0:	89 10                	mov    %edx,(%rax)
    a1d2:	e9 9e 1b 00 00       	jmpq   bd75 <func_6+0x23b4>
    a1d7:	48 b8 80 2b 9f fb 06 	movabs $0x12c39b06fb9f2b80,%rax
    a1de:	9b c3 12 
    a1e1:	48 89 85 f8 f0 ff ff 	mov    %rax,-0xf08(%rbp)
    a1e8:	48 8d 05 59 c4 01 00 	lea    0x1c459(%rip),%rax        # 26648 <g_504>
    a1ef:	48 89 85 88 f0 ff ff 	mov    %rax,-0xf78(%rbp)
    a1f6:	48 8d 85 88 f0 ff ff 	lea    -0xf78(%rbp),%rax
    a1fd:	48 89 85 00 f1 ff ff 	mov    %rax,-0xf00(%rbp)
    a204:	c7 85 40 f0 ff ff 00 	movl   $0x0,-0xfc0(%rbp)
    a20b:	00 00 00 
    a20e:	c7 85 44 f0 ff ff fa 	movl   $0xfffffffa,-0xfbc(%rbp)
    a215:	ff ff ff 
    a218:	c7 85 48 f0 ff ff 36 	movl   $0x1c773f36,-0xfb8(%rbp)
    a21f:	3f 77 1c 
    a222:	c7 85 4c f0 ff ff f8 	movl   $0x6da207f8,-0xfb4(%rbp)
    a229:	07 a2 6d 
    a22c:	c7 85 d0 f3 ff ff 01 	movl   $0x1,-0xc30(%rbp)
    a233:	00 00 00 
    a236:	c7 85 d4 f3 ff ff 01 	movl   $0x1,-0xc2c(%rbp)
    a23d:	00 00 00 
    a240:	c7 85 d8 f3 ff ff e6 	movl   $0xb7d956e6,-0xc28(%rbp)
    a247:	56 d9 b7 
    a24a:	c7 85 dc f3 ff ff 01 	movl   $0x1,-0xc24(%rbp)
    a251:	00 00 00 
    a254:	c7 85 e0 f3 ff ff 02 	movl   $0x2,-0xc20(%rbp)
    a25b:	00 00 00 
    a25e:	c7 85 e4 f3 ff ff 02 	movl   $0x2,-0xc1c(%rbp)
    a265:	00 00 00 
    a268:	c7 85 e8 f3 ff ff 02 	movl   $0x2,-0xc18(%rbp)
    a26f:	00 00 00 
    a272:	c7 85 ec f3 ff ff 01 	movl   $0x1,-0xc14(%rbp)
    a279:	00 00 00 
    a27c:	c7 85 f0 f3 ff ff e6 	movl   $0xb7d956e6,-0xc10(%rbp)
    a283:	56 d9 b7 
    a286:	c7 85 f4 f3 ff ff 01 	movl   $0x1,-0xc0c(%rbp)
    a28d:	00 00 00 
    a290:	c7 85 f8 f3 ff ff 01 	movl   $0x1,-0xc08(%rbp)
    a297:	00 00 00 
    a29a:	c7 85 fc f3 ff ff 01 	movl   $0x1,-0xc04(%rbp)
    a2a1:	00 00 00 
    a2a4:	c7 85 00 f4 ff ff e6 	movl   $0xb7d956e6,-0xc00(%rbp)
    a2ab:	56 d9 b7 
    a2ae:	c7 85 04 f4 ff ff 01 	movl   $0x1,-0xbfc(%rbp)
    a2b5:	00 00 00 
    a2b8:	c7 85 08 f4 ff ff 02 	movl   $0x2,-0xbf8(%rbp)
    a2bf:	00 00 00 
    a2c2:	c7 85 0c f4 ff ff 02 	movl   $0x2,-0xbf4(%rbp)
    a2c9:	00 00 00 
    a2cc:	c7 85 10 f4 ff ff 02 	movl   $0x2,-0xbf0(%rbp)
    a2d3:	00 00 00 
    a2d6:	c7 85 14 f4 ff ff 01 	movl   $0x1,-0xbec(%rbp)
    a2dd:	00 00 00 
    a2e0:	c7 85 18 f4 ff ff e6 	movl   $0xb7d956e6,-0xbe8(%rbp)
    a2e7:	56 d9 b7 
    a2ea:	c7 85 1c f4 ff ff 01 	movl   $0x1,-0xbe4(%rbp)
    a2f1:	00 00 00 
    a2f4:	48 8b 85 a8 ef ff ff 	mov    -0x1058(%rbp),%rax
    a2fb:	0f bf d8             	movswl %ax,%ebx
    a2fe:	8b 85 b8 f2 ff ff    	mov    -0xd48(%rbp),%eax
    a304:	44 0f be e0          	movsbl %al,%r12d
    a308:	48 8b 85 a8 ef ff ff 	mov    -0x1058(%rbp),%rax
    a30f:	89 c2                	mov    %eax,%edx
    a311:	8b 85 b8 ef ff ff    	mov    -0x1048(%rbp),%eax
    a317:	21 c2                	and    %eax,%edx
    a319:	8b 85 e0 ef ff ff    	mov    -0x1020(%rbp),%eax
    a31f:	09 d0                	or     %edx,%eax
    a321:	48 8b 95 a8 ef ff ff 	mov    -0x1058(%rbp),%rdx
    a328:	89 c6                	mov    %eax,%esi
    a32a:	89 d7                	mov    %edx,%edi
    a32c:	e8 cc eb ff ff       	callq  8efd <safe_mod_func_uint32_t_u_u>
    a331:	0f be c0             	movsbl %al,%eax
    a334:	44 89 e6             	mov    %r12d,%esi
    a337:	89 c7                	mov    %eax,%edi
    a339:	e8 d4 de ff ff       	callq  8212 <safe_mul_func_int8_t_s_s>
    a33e:	48 0f be c0          	movsbq %al,%rax
    a342:	48 39 85 f8 f0 ff ff 	cmp    %rax,-0xf08(%rbp)
    a349:	0f 97 c0             	seta   %al
    a34c:	0f b6 c0             	movzbl %al,%eax
    a34f:	be fc ff ff ff       	mov    $0xfffffffc,%esi
    a354:	89 c7                	mov    %eax,%edi
    a356:	e8 71 e3 ff ff       	callq  86cc <safe_mod_func_int32_t_s_s>
    a35b:	8b 95 88 f3 ff ff    	mov    -0xc78(%rbp),%edx
    a361:	39 d0                	cmp    %edx,%eax
    a363:	7d 10                	jge    a375 <func_6+0x9b4>
    a365:	80 bd cd ef ff ff 00 	cmpb   $0x0,-0x1033(%rbp)
    a36c:	74 07                	je     a375 <func_6+0x9b4>
    a36e:	b8 01 00 00 00       	mov    $0x1,%eax
    a373:	eb 05                	jmp    a37a <func_6+0x9b9>
    a375:	b8 00 00 00 00       	mov    $0x0,%eax
    a37a:	0f b6 c0             	movzbl %al,%eax
    a37d:	be 02 00 00 00       	mov    $0x2,%esi
    a382:	89 c7                	mov    %eax,%edi
    a384:	e8 c3 e8 ff ff       	callq  8c4c <safe_lshift_func_uint8_t_u_u>
    a389:	b8 01 00 00 00       	mov    $0x1,%eax
    a38e:	98                   	cwtl   
    a38f:	89 de                	mov    %ebx,%esi
    a391:	89 c7                	mov    %eax,%edi
    a393:	e8 3b e0 ff ff       	callq  83d3 <safe_sub_func_int16_t_s_s>
    a398:	8b 05 ea 3c 01 00    	mov    0x13cea(%rip),%eax        # 1e088 <g_2184+0x8>
    a39e:	98                   	cwtl   
    a39f:	be 0d 00 00 00       	mov    $0xd,%esi
    a3a4:	89 c7                	mov    %eax,%edi
    a3a6:	e8 b8 e1 ff ff       	callq  8563 <safe_rshift_func_int16_t_s_u>
    a3ab:	0f bf d0             	movswl %ax,%edx
    a3ae:	8b 85 e4 ef ff ff    	mov    -0x101c(%rbp),%eax
    a3b4:	09 d0                	or     %edx,%eax
    a3b6:	89 85 e4 ef ff ff    	mov    %eax,-0x101c(%rbp)
    a3bc:	8b 85 e4 ef ff ff    	mov    -0x101c(%rbp),%eax
    a3c2:	89 c2                	mov    %eax,%edx
    a3c4:	48 8b 05 45 b7 01 00 	mov    0x1b745(%rip),%rax        # 25b10 <g_1241>
    a3cb:	48 8b 00             	mov    (%rax),%rax
    a3ce:	8b 00                	mov    (%rax),%eax
    a3d0:	89 d6                	mov    %edx,%esi
    a3d2:	89 c7                	mov    %eax,%edi
    a3d4:	e8 df ea ff ff       	callq  8eb8 <safe_add_func_uint32_t_u_u>
    a3d9:	8b 95 e8 ef ff ff    	mov    -0x1018(%rbp),%edx
    a3df:	39 d0                	cmp    %edx,%eax
    a3e1:	0f 92 c0             	setb   %al
    a3e4:	0f b6 c0             	movzbl %al,%eax
    a3e7:	be 01 00 00 00       	mov    $0x1,%esi
    a3ec:	89 c7                	mov    %eax,%edi
    a3ee:	e8 d9 e2 ff ff       	callq  86cc <safe_mod_func_int32_t_s_s>
    a3f3:	85 c0                	test   %eax,%eax
    a3f5:	0f 84 4b 17 00 00    	je     bb46 <func_6+0x2185>
    a3fb:	66 c7 85 da ef ff ff 	movw   $0x86d3,-0x1026(%rbp)
    a402:	d3 86 
    a404:	c7 85 58 f0 ff ff d9 	movl   $0xdbb3cfd9,-0xfa8(%rbp)
    a40b:	cf b3 db 
    a40e:	48 8d 05 f3 8f 01 00 	lea    0x18ff3(%rip),%rax        # 23408 <g_1244>
    a415:	48 89 85 40 f1 ff ff 	mov    %rax,-0xec0(%rbp)
    a41c:	48 8d 05 ed 8f 01 00 	lea    0x18fed(%rip),%rax        # 23410 <g_1406>
    a423:	48 89 85 a0 f5 ff ff 	mov    %rax,-0xa60(%rbp)
    a42a:	48 8d 05 df 8f 01 00 	lea    0x18fdf(%rip),%rax        # 23410 <g_1406>
    a431:	48 89 85 a8 f5 ff ff 	mov    %rax,-0xa58(%rbp)
    a438:	48 8d 05 19 8c 01 00 	lea    0x18c19(%rip),%rax        # 23058 <g_128>
    a43f:	48 89 85 b0 f5 ff ff 	mov    %rax,-0xa50(%rbp)
    a446:	48 8d 05 8f 8f 01 00 	lea    0x18f8f(%rip),%rax        # 233dc <g_1183>
    a44d:	48 89 85 b8 f5 ff ff 	mov    %rax,-0xa48(%rbp)
    a454:	48 8d 85 e0 ef ff ff 	lea    -0x1020(%rbp),%rax
    a45b:	48 89 85 c0 f5 ff ff 	mov    %rax,-0xa40(%rbp)
    a462:	48 c7 85 c8 f5 ff ff 	movq   $0x0,-0xa38(%rbp)
    a469:	00 00 00 00 
    a46d:	48 8d 05 3c 8c 01 00 	lea    0x18c3c(%rip),%rax        # 230b0 <g_194+0x10>
    a474:	48 89 85 d0 f5 ff ff 	mov    %rax,-0xa30(%rbp)
    a47b:	48 8d 85 e0 ef ff ff 	lea    -0x1020(%rbp),%rax
    a482:	48 89 85 d8 f5 ff ff 	mov    %rax,-0xa28(%rbp)
    a489:	48 c7 85 e0 f5 ff ff 	movq   $0x0,-0xa20(%rbp)
    a490:	00 00 00 00 
    a494:	48 8d 85 d0 f2 ff ff 	lea    -0xd30(%rbp),%rax
    a49b:	48 83 c0 10          	add    $0x10,%rax
    a49f:	48 89 85 e8 f5 ff ff 	mov    %rax,-0xa18(%rbp)
    a4a6:	48 c7 85 f0 f5 ff ff 	movq   $0x0,-0xa10(%rbp)
    a4ad:	00 00 00 00 
    a4b1:	48 8d 85 e0 ef ff ff 	lea    -0x1020(%rbp),%rax
    a4b8:	48 89 85 f8 f5 ff ff 	mov    %rax,-0xa08(%rbp)
    a4bf:	48 8d 05 ea 8b 01 00 	lea    0x18bea(%rip),%rax        # 230b0 <g_194+0x10>
    a4c6:	48 89 85 00 f6 ff ff 	mov    %rax,-0xa00(%rbp)
    a4cd:	48 c7 85 08 f6 ff ff 	movq   $0x0,-0x9f8(%rbp)
    a4d4:	00 00 00 00 
    a4d8:	48 8d 85 e0 ef ff ff 	lea    -0x1020(%rbp),%rax
    a4df:	48 89 85 10 f6 ff ff 	mov    %rax,-0x9f0(%rbp)
    a4e6:	48 8d 05 ef 8e 01 00 	lea    0x18eef(%rip),%rax        # 233dc <g_1183>
    a4ed:	48 89 85 18 f6 ff ff 	mov    %rax,-0x9e8(%rbp)
    a4f4:	48 8d 05 5d 8b 01 00 	lea    0x18b5d(%rip),%rax        # 23058 <g_128>
    a4fb:	48 89 85 20 f6 ff ff 	mov    %rax,-0x9e0(%rbp)
    a502:	48 8d 05 07 8f 01 00 	lea    0x18f07(%rip),%rax        # 23410 <g_1406>
    a509:	48 89 85 28 f6 ff ff 	mov    %rax,-0x9d8(%rbp)
    a510:	48 8d 05 f9 8e 01 00 	lea    0x18ef9(%rip),%rax        # 23410 <g_1406>
    a517:	48 89 85 30 f6 ff ff 	mov    %rax,-0x9d0(%rbp)
    a51e:	48 8d 05 8b 8b 01 00 	lea    0x18b8b(%rip),%rax        # 230b0 <g_194+0x10>
    a525:	48 89 85 38 f6 ff ff 	mov    %rax,-0x9c8(%rbp)
    a52c:	48 8d 05 7d 8b 01 00 	lea    0x18b7d(%rip),%rax        # 230b0 <g_194+0x10>
    a533:	48 89 85 40 f6 ff ff 	mov    %rax,-0x9c0(%rbp)
    a53a:	48 c7 85 48 f6 ff ff 	movq   $0x0,-0x9b8(%rbp)
    a541:	00 00 00 00 
    a545:	48 c7 85 50 f6 ff ff 	movq   $0x0,-0x9b0(%rbp)
    a54c:	00 00 00 00 
    a550:	48 8d 05 b9 8e 01 00 	lea    0x18eb9(%rip),%rax        # 23410 <g_1406>
    a557:	48 89 85 58 f6 ff ff 	mov    %rax,-0x9a8(%rbp)
    a55e:	48 8d 85 d0 f2 ff ff 	lea    -0xd30(%rbp),%rax
    a565:	48 83 c0 10          	add    $0x10,%rax
    a569:	48 89 85 60 f6 ff ff 	mov    %rax,-0x9a0(%rbp)
    a570:	48 8d 85 d0 f2 ff ff 	lea    -0xd30(%rbp),%rax
    a577:	48 83 c0 10          	add    $0x10,%rax
    a57b:	48 89 85 68 f6 ff ff 	mov    %rax,-0x998(%rbp)
    a582:	48 8d 05 87 8e 01 00 	lea    0x18e87(%rip),%rax        # 23410 <g_1406>
    a589:	48 89 85 70 f6 ff ff 	mov    %rax,-0x990(%rbp)
    a590:	48 8d 85 d0 f2 ff ff 	lea    -0xd30(%rbp),%rax
    a597:	48 83 c0 10          	add    $0x10,%rax
    a59b:	48 89 85 78 f6 ff ff 	mov    %rax,-0x988(%rbp)
    a5a2:	48 8d 85 d0 f2 ff ff 	lea    -0xd30(%rbp),%rax
    a5a9:	48 83 c0 10          	add    $0x10,%rax
    a5ad:	48 89 85 80 f6 ff ff 	mov    %rax,-0x980(%rbp)
    a5b4:	48 8d 05 55 8e 01 00 	lea    0x18e55(%rip),%rax        # 23410 <g_1406>
    a5bb:	48 89 85 88 f6 ff ff 	mov    %rax,-0x978(%rbp)
    a5c2:	48 c7 85 90 f6 ff ff 	movq   $0x0,-0x970(%rbp)
    a5c9:	00 00 00 00 
    a5cd:	48 c7 85 98 f6 ff ff 	movq   $0x0,-0x968(%rbp)
    a5d4:	00 00 00 00 
    a5d8:	48 8d 05 d1 8a 01 00 	lea    0x18ad1(%rip),%rax        # 230b0 <g_194+0x10>
    a5df:	48 89 85 a0 f6 ff ff 	mov    %rax,-0x960(%rbp)
    a5e6:	48 8d 05 c3 8a 01 00 	lea    0x18ac3(%rip),%rax        # 230b0 <g_194+0x10>
    a5ed:	48 89 85 a8 f6 ff ff 	mov    %rax,-0x958(%rbp)
    a5f4:	48 8d 05 15 8e 01 00 	lea    0x18e15(%rip),%rax        # 23410 <g_1406>
    a5fb:	48 89 85 b0 f6 ff ff 	mov    %rax,-0x950(%rbp)
    a602:	48 8d 05 07 8e 01 00 	lea    0x18e07(%rip),%rax        # 23410 <g_1406>
    a609:	48 89 85 b8 f6 ff ff 	mov    %rax,-0x948(%rbp)
    a610:	48 8d 05 41 8a 01 00 	lea    0x18a41(%rip),%rax        # 23058 <g_128>
    a617:	48 89 85 c0 f6 ff ff 	mov    %rax,-0x940(%rbp)
    a61e:	48 8d 05 b7 8d 01 00 	lea    0x18db7(%rip),%rax        # 233dc <g_1183>
    a625:	48 89 85 c8 f6 ff ff 	mov    %rax,-0x938(%rbp)
    a62c:	48 8d 85 e0 ef ff ff 	lea    -0x1020(%rbp),%rax
    a633:	48 89 85 d0 f6 ff ff 	mov    %rax,-0x930(%rbp)
    a63a:	48 c7 85 d8 f6 ff ff 	movq   $0x0,-0x928(%rbp)
    a641:	00 00 00 00 
    a645:	48 8d 05 64 8a 01 00 	lea    0x18a64(%rip),%rax        # 230b0 <g_194+0x10>
    a64c:	48 89 85 e0 f6 ff ff 	mov    %rax,-0x920(%rbp)
    a653:	48 8d 85 e0 ef ff ff 	lea    -0x1020(%rbp),%rax
    a65a:	48 89 85 e8 f6 ff ff 	mov    %rax,-0x918(%rbp)
    a661:	48 c7 85 f0 f6 ff ff 	movq   $0x0,-0x910(%rbp)
    a668:	00 00 00 00 
    a66c:	48 8d 85 d0 f2 ff ff 	lea    -0xd30(%rbp),%rax
    a673:	48 83 c0 10          	add    $0x10,%rax
    a677:	48 89 85 f8 f6 ff ff 	mov    %rax,-0x908(%rbp)
    a67e:	48 c7 85 00 f7 ff ff 	movq   $0x0,-0x900(%rbp)
    a685:	00 00 00 00 
    a689:	48 8d 85 e0 ef ff ff 	lea    -0x1020(%rbp),%rax
    a690:	48 89 85 08 f7 ff ff 	mov    %rax,-0x8f8(%rbp)
    a697:	48 8d 05 12 8a 01 00 	lea    0x18a12(%rip),%rax        # 230b0 <g_194+0x10>
    a69e:	48 89 85 10 f7 ff ff 	mov    %rax,-0x8f0(%rbp)
    a6a5:	48 c7 85 18 f7 ff ff 	movq   $0x0,-0x8e8(%rbp)
    a6ac:	00 00 00 00 
    a6b0:	48 8d 85 e0 ef ff ff 	lea    -0x1020(%rbp),%rax
    a6b7:	48 89 85 20 f7 ff ff 	mov    %rax,-0x8e0(%rbp)
    a6be:	48 8d 05 17 8d 01 00 	lea    0x18d17(%rip),%rax        # 233dc <g_1183>
    a6c5:	48 89 85 28 f7 ff ff 	mov    %rax,-0x8d8(%rbp)
    a6cc:	48 8d 05 85 89 01 00 	lea    0x18985(%rip),%rax        # 23058 <g_128>
    a6d3:	48 89 85 30 f7 ff ff 	mov    %rax,-0x8d0(%rbp)
    a6da:	48 8d 05 2f 8d 01 00 	lea    0x18d2f(%rip),%rax        # 23410 <g_1406>
    a6e1:	48 89 85 38 f7 ff ff 	mov    %rax,-0x8c8(%rbp)
    a6e8:	48 8d 05 21 8d 01 00 	lea    0x18d21(%rip),%rax        # 23410 <g_1406>
    a6ef:	48 89 85 40 f7 ff ff 	mov    %rax,-0x8c0(%rbp)
    a6f6:	48 8d 05 b3 89 01 00 	lea    0x189b3(%rip),%rax        # 230b0 <g_194+0x10>
    a6fd:	48 89 85 48 f7 ff ff 	mov    %rax,-0x8b8(%rbp)
    a704:	48 8d 05 a5 89 01 00 	lea    0x189a5(%rip),%rax        # 230b0 <g_194+0x10>
    a70b:	48 89 85 50 f7 ff ff 	mov    %rax,-0x8b0(%rbp)
    a712:	48 c7 85 58 f7 ff ff 	movq   $0x0,-0x8a8(%rbp)
    a719:	00 00 00 00 
    a71d:	48 c7 85 60 f7 ff ff 	movq   $0x0,-0x8a0(%rbp)
    a724:	00 00 00 00 
    a728:	48 8d 05 e1 8c 01 00 	lea    0x18ce1(%rip),%rax        # 23410 <g_1406>
    a72f:	48 89 85 68 f7 ff ff 	mov    %rax,-0x898(%rbp)
    a736:	48 8d 85 d0 f2 ff ff 	lea    -0xd30(%rbp),%rax
    a73d:	48 83 c0 10          	add    $0x10,%rax
    a741:	48 89 85 70 f7 ff ff 	mov    %rax,-0x890(%rbp)
    a748:	48 8d 85 d0 f2 ff ff 	lea    -0xd30(%rbp),%rax
    a74f:	48 83 c0 10          	add    $0x10,%rax
    a753:	48 89 85 78 f7 ff ff 	mov    %rax,-0x888(%rbp)
    a75a:	48 8d 05 af 8c 01 00 	lea    0x18caf(%rip),%rax        # 23410 <g_1406>
    a761:	48 89 85 80 f7 ff ff 	mov    %rax,-0x880(%rbp)
    a768:	48 8d 85 d0 f2 ff ff 	lea    -0xd30(%rbp),%rax
    a76f:	48 83 c0 10          	add    $0x10,%rax
    a773:	48 89 85 88 f7 ff ff 	mov    %rax,-0x878(%rbp)
    a77a:	48 8d 85 d0 f2 ff ff 	lea    -0xd30(%rbp),%rax
    a781:	48 83 c0 10          	add    $0x10,%rax
    a785:	48 89 85 90 f7 ff ff 	mov    %rax,-0x870(%rbp)
    a78c:	48 8d 05 7d 8c 01 00 	lea    0x18c7d(%rip),%rax        # 23410 <g_1406>
    a793:	48 89 85 98 f7 ff ff 	mov    %rax,-0x868(%rbp)
    a79a:	48 c7 85 a0 f7 ff ff 	movq   $0x0,-0x860(%rbp)
    a7a1:	00 00 00 00 
    a7a5:	48 c7 85 a8 f7 ff ff 	movq   $0x0,-0x858(%rbp)
    a7ac:	00 00 00 00 
    a7b0:	48 8d 05 f9 88 01 00 	lea    0x188f9(%rip),%rax        # 230b0 <g_194+0x10>
    a7b7:	48 89 85 b0 f7 ff ff 	mov    %rax,-0x850(%rbp)
    a7be:	48 8d 05 eb 88 01 00 	lea    0x188eb(%rip),%rax        # 230b0 <g_194+0x10>
    a7c5:	48 89 85 b8 f7 ff ff 	mov    %rax,-0x848(%rbp)
    a7cc:	48 8d 05 3d 8c 01 00 	lea    0x18c3d(%rip),%rax        # 23410 <g_1406>
    a7d3:	48 89 85 c0 f7 ff ff 	mov    %rax,-0x840(%rbp)
    a7da:	48 8d 05 2f 8c 01 00 	lea    0x18c2f(%rip),%rax        # 23410 <g_1406>
    a7e1:	48 89 85 c8 f7 ff ff 	mov    %rax,-0x838(%rbp)
    a7e8:	48 8d 05 69 88 01 00 	lea    0x18869(%rip),%rax        # 23058 <g_128>
    a7ef:	48 89 85 d0 f7 ff ff 	mov    %rax,-0x830(%rbp)
    a7f6:	48 8d 05 df 8b 01 00 	lea    0x18bdf(%rip),%rax        # 233dc <g_1183>
    a7fd:	48 89 85 d8 f7 ff ff 	mov    %rax,-0x828(%rbp)
    a804:	c6 85 ce ef ff ff 00 	movb   $0x0,-0x1032(%rbp)
    a80b:	c7 85 18 f0 ff ff 00 	movl   $0x0,-0xfe8(%rbp)
    a812:	00 00 00 
    a815:	eb 1a                	jmp    a831 <func_6+0xe70>
    a817:	8b 85 18 f0 ff ff    	mov    -0xfe8(%rbp),%eax
    a81d:	48 98                	cltq   
    a81f:	c7 84 85 d0 f2 ff ff 	movl   $0x0,-0xd30(%rbp,%rax,4)
    a826:	00 00 00 00 
    a82a:	83 85 18 f0 ff ff 01 	addl   $0x1,-0xfe8(%rbp)
    a831:	83 bd 18 f0 ff ff 07 	cmpl   $0x7,-0xfe8(%rbp)
    a838:	7e dd                	jle    a817 <func_6+0xe56>
    a83a:	66 c7 05 5d 8b 01 00 	movw   $0x0,0x18b5d(%rip)        # 233a0 <g_861>
    a841:	00 00 
    a843:	eb 6c                	jmp    a8b1 <func_6+0xef0>
    a845:	c7 85 e8 ef ff ff 00 	movl   $0x0,-0x1018(%rbp)
    a84c:	00 00 00 
    a84f:	eb 44                	jmp    a895 <func_6+0xed4>
    a851:	0f b7 05 48 8b 01 00 	movzwl 0x18b48(%rip),%eax        # 233a0 <g_861>
    a858:	0f b7 d0             	movzwl %ax,%edx
    a85b:	8b 85 e8 ef ff ff    	mov    -0x1018(%rbp),%eax
    a861:	48 98                	cltq   
    a863:	48 63 d2             	movslq %edx,%rdx
    a866:	48 01 d2             	add    %rdx,%rdx
    a869:	48 01 d0             	add    %rdx,%rax
    a86c:	48 8d 14 c5 00 00 00 	lea    0x0(,%rax,8),%rdx
    a873:	00 
    a874:	48 8d 05 45 b2 01 00 	lea    0x1b245(%rip),%rax        # 25ac0 <g_758>
    a87b:	48 8d 0d 8e 9a 01 00 	lea    0x19a8e(%rip),%rcx        # 24310 <g_91>
    a882:	48 89 0c 02          	mov    %rcx,(%rdx,%rax,1)
    a886:	8b 85 e8 ef ff ff    	mov    -0x1018(%rbp),%eax
    a88c:	83 c0 01             	add    $0x1,%eax
    a88f:	89 85 e8 ef ff ff    	mov    %eax,-0x1018(%rbp)
    a895:	8b 85 e8 ef ff ff    	mov    -0x1018(%rbp),%eax
    a89b:	83 f8 01             	cmp    $0x1,%eax
    a89e:	7e b1                	jle    a851 <func_6+0xe90>
    a8a0:	0f b7 05 f9 8a 01 00 	movzwl 0x18af9(%rip),%eax        # 233a0 <g_861>
    a8a7:	83 c0 01             	add    $0x1,%eax
    a8aa:	66 89 05 ef 8a 01 00 	mov    %ax,0x18aef(%rip)        # 233a0 <g_861>
    a8b1:	0f b7 05 e8 8a 01 00 	movzwl 0x18ae8(%rip),%eax        # 233a0 <g_861>
    a8b8:	66 83 f8 02          	cmp    $0x2,%ax
    a8bc:	76 87                	jbe    a845 <func_6+0xe84>
    a8be:	c7 05 c8 8b 01 00 00 	movl   $0x0,0x18bc8(%rip)        # 23490 <g_1947>
    a8c5:	00 00 00 
    a8c8:	eb 23                	jmp    a8ed <func_6+0xf2c>
    a8ca:	48 8b 15 77 b7 01 00 	mov    0x1b777(%rip),%rdx        # 26048 <g_1933>
    a8d1:	48 8b 05 70 b7 01 00 	mov    0x1b770(%rip),%rax        # 26048 <g_1933>
    a8d8:	48 8b 12             	mov    (%rdx),%rdx
    a8db:	48 89 10             	mov    %rdx,(%rax)
    a8de:	8b 05 ac 8b 01 00    	mov    0x18bac(%rip),%eax        # 23490 <g_1947>
    a8e4:	83 c0 01             	add    $0x1,%eax
    a8e7:	89 05 a3 8b 01 00    	mov    %eax,0x18ba3(%rip)        # 23490 <g_1947>
    a8ed:	8b 05 9d 8b 01 00    	mov    0x18b9d(%rip),%eax        # 23490 <g_1947>
    a8f3:	83 f8 11             	cmp    $0x11,%eax
    a8f6:	77 d2                	ja     a8ca <func_6+0xf09>
    a8f8:	8b 85 b8 ef ff ff    	mov    -0x1048(%rbp),%eax
    a8fe:	0f b6 d8             	movzbl %al,%ebx
    a901:	0f b7 05 b8 8a 01 00 	movzwl 0x18ab8(%rip),%eax        # 233c0 <g_1011>
    a908:	44 0f b7 e0          	movzwl %ax,%r12d
    a90c:	8b 85 f4 ef ff ff    	mov    -0x100c(%rbp),%eax
    a912:	44 0f be e8          	movsbl %al,%r13d
    a916:	48 8b 05 e3 a1 01 00 	mov    0x1a1e3(%rip),%rax        # 24b00 <g_135>
    a91d:	48 8b 00             	mov    (%rax),%rax
    a920:	8b 00                	mov    (%rax),%eax
    a922:	48 98                	cltq   
    a924:	48 39 85 f8 f0 ff ff 	cmp    %rax,-0xf08(%rbp)
    a92b:	0f 92 c0             	setb   %al
    a92e:	0f b6 c0             	movzbl %al,%eax
    a931:	48 89 85 a8 ef ff ff 	mov    %rax,-0x1058(%rbp)
    a938:	48 8b 85 a8 ef ff ff 	mov    -0x1058(%rbp),%rax
    a93f:	89 c2                	mov    %eax,%edx
    a941:	48 8d 05 88 b6 01 00 	lea    0x1b688(%rip),%rax        # 25fd0 <g_1411>
    a948:	48 8b 00             	mov    (%rax),%rax
    a94b:	48 8b 00             	mov    (%rax),%rax
    a94e:	48 8b 00             	mov    (%rax),%rax
    a951:	48 8b 00             	mov    (%rax),%rax
    a954:	48 8b 00             	mov    (%rax),%rax
    a957:	09 c2                	or     %eax,%edx
    a959:	48 8b 05 98 b1 01 00 	mov    0x1b198(%rip),%rax        # 25af8 <g_764>
    a960:	89 10                	mov    %edx,(%rax)
    a962:	44 8b b5 78 f5 ff ff 	mov    -0xa88(%rbp),%r14d
    a969:	be 02 00 00 00       	mov    $0x2,%esi
    a96e:	bf 01 00 00 00       	mov    $0x1,%edi
    a973:	e8 46 e4 ff ff       	callq  8dbe <safe_lshift_func_uint16_t_u_s>
    a978:	0f b7 c0             	movzwl %ax,%eax
    a97b:	41 39 c6             	cmp    %eax,%r14d
    a97e:	48 8b 85 00 f1 ff ff 	mov    -0xf00(%rbp),%rax
    a985:	48 89 85 f0 f0 ff ff 	mov    %rax,-0xf10(%rbp)
    a98c:	48 83 bd f0 f0 ff ff 	cmpq   $0x0,-0xf10(%rbp)
    a993:	00 
    a994:	0f 94 c0             	sete   %al
    a997:	0f b6 c0             	movzbl %al,%eax
    a99a:	89 c7                	mov    %eax,%edi
    a99c:	e8 05 e5 ff ff       	callq  8ea6 <safe_unary_minus_func_uint32_t_u>
    a9a1:	89 c2                	mov    %eax,%edx
    a9a3:	48 8b 05 76 b6 01 00 	mov    0x1b676(%rip),%rax        # 26020 <g_1670>
    a9aa:	88 10                	mov    %dl,(%rax)
    a9ac:	0f b6 00             	movzbl (%rax),%eax
    a9af:	0f be c0             	movsbl %al,%eax
    a9b2:	44 89 ee             	mov    %r13d,%esi
    a9b5:	89 c7                	mov    %eax,%edi
    a9b7:	e8 ae d8 ff ff       	callq  826a <safe_div_func_int8_t_s_s>
    a9bc:	0f b6 c0             	movzbl %al,%eax
    a9bf:	be 75 00 00 00       	mov    $0x75,%esi
    a9c4:	89 c7                	mov    %eax,%edi
    a9c6:	e8 8f e1 ff ff       	callq  8b5a <safe_add_func_uint8_t_u_u>
    a9cb:	8b 85 b8 ef ff ff    	mov    -0x1048(%rbp),%eax
    a9d1:	89 c2                	mov    %eax,%edx
    a9d3:	48 8b 85 a8 ef ff ff 	mov    -0x1058(%rbp),%rax
    a9da:	31 d0                	xor    %edx,%eax
    a9dc:	98                   	cwtl   
    a9dd:	be 0d 00 00 00       	mov    $0xd,%esi
    a9e2:	89 c7                	mov    %eax,%edi
    a9e4:	e8 41 db ff ff       	callq  852a <safe_rshift_func_int16_t_s_s>
    a9e9:	48 8b 15 28 b1 01 00 	mov    0x1b128(%rip),%rdx        # 25b18 <g_1240>
    a9f0:	48 8b 12             	mov    (%rdx),%rdx
    a9f3:	48 8b 12             	mov    (%rdx),%rdx
    a9f6:	8b 0a                	mov    (%rdx),%ecx
    a9f8:	0f bf d0             	movswl %ax,%edx
    a9fb:	48 8b 05 16 b1 01 00 	mov    0x1b116(%rip),%rax        # 25b18 <g_1240>
    aa02:	48 8b 00             	mov    (%rax),%rax
    aa05:	48 8b 00             	mov    (%rax),%rax
    aa08:	09 ca                	or     %ecx,%edx
    aa0a:	89 10                	mov    %edx,(%rax)
    aa0c:	8b 00                	mov    (%rax),%eax
    aa0e:	89 c0                	mov    %eax,%eax
    aa10:	48 0b 85 f8 f0 ff ff 	or     -0xf08(%rbp),%rax
    aa17:	48 3d 97 00 00 00    	cmp    $0x97,%rax
    aa1d:	44 89 e6             	mov    %r12d,%esi
    aa20:	bf 01 00 00 00       	mov    $0x1,%edi
    aa25:	e8 13 e3 ff ff       	callq  8d3d <safe_mul_func_uint16_t_u_u>
    aa2a:	0f b7 d0             	movzwl %ax,%edx
    aa2d:	48 8b 05 ec b0 01 00 	mov    0x1b0ec(%rip),%rax        # 25b20 <g_1269>
    aa34:	48 8b 00             	mov    (%rax),%rax
    aa37:	48 21 d0             	and    %rdx,%rax
    aa3a:	48 85 c0             	test   %rax,%rax
    aa3d:	74 11                	je     aa50 <func_6+0x108f>
    aa3f:	48 83 bd f8 f0 ff ff 	cmpq   $0x0,-0xf08(%rbp)
    aa46:	00 
    aa47:	74 07                	je     aa50 <func_6+0x108f>
    aa49:	b8 01 00 00 00       	mov    $0x1,%eax
    aa4e:	eb 05                	jmp    aa55 <func_6+0x1094>
    aa50:	b8 00 00 00 00       	mov    $0x0,%eax
    aa55:	0f b6 c0             	movzbl %al,%eax
    aa58:	89 de                	mov    %ebx,%esi
    aa5a:	89 c7                	mov    %eax,%edi
    aa5c:	e8 17 e1 ff ff       	callq  8b78 <safe_sub_func_uint8_t_u_u>
    aa61:	0f b6 c0             	movzbl %al,%eax
    aa64:	be 01 00 00 00       	mov    $0x1,%esi
    aa69:	48 89 c7             	mov    %rax,%rdi
    aa6c:	e8 43 df ff ff       	callq  89b4 <safe_mod_func_int64_t_s_s>
    aa71:	48 85 c0             	test   %rax,%rax
    aa74:	74 38                	je     aaae <func_6+0x10ed>
    aa76:	48 8b 05 7b b7 01 00 	mov    0x1b77b(%rip),%rax        # 261f8 <g_2164>
    aa7d:	48 8b 00             	mov    (%rax),%rax
    aa80:	8b 08                	mov    (%rax),%ecx
    aa82:	48 8b 05 87 98 01 00 	mov    0x19887(%rip),%rax        # 24310 <g_91>
    aa89:	8b 10                	mov    (%rax),%edx
    aa8b:	48 8b 05 7e 98 01 00 	mov    0x1987e(%rip),%rax        # 24310 <g_91>
    aa92:	21 ca                	and    %ecx,%edx
    aa94:	89 10                	mov    %edx,(%rax)
    aa96:	48 8b 05 1b a8 01 00 	mov    0x1a81b(%rip),%rax        # 252b8 <g_443>
    aa9d:	0f b7 00             	movzwl (%rax),%eax
    aaa0:	66 85 c0             	test   %ax,%ax
    aaa3:	0f 85 6d 10 00 00    	jne    bb16 <func_6+0x2155>
    aaa9:	e9 68 0e 00 00       	jmpq   b916 <func_6+0x1f55>
    aaae:	48 c7 85 48 f1 ff ff 	movq   $0x0,-0xeb8(%rbp)
    aab5:	00 00 00 00 
    aab9:	48 8d 05 64 85 01 00 	lea    0x18564(%rip),%rax        # 23024 <g_18>
    aac0:	48 89 85 e0 f7 ff ff 	mov    %rax,-0x820(%rbp)
    aac7:	48 c7 85 e8 f7 ff ff 	movq   $0x0,-0x818(%rbp)
    aace:	00 00 00 00 
    aad2:	48 8d 85 50 f3 ff ff 	lea    -0xcb0(%rbp),%rax
    aad9:	48 83 c0 04          	add    $0x4,%rax
    aadd:	48 89 85 f0 f7 ff ff 	mov    %rax,-0x810(%rbp)
    aae4:	48 c7 85 f8 f7 ff ff 	movq   $0x0,-0x808(%rbp)
    aaeb:	00 00 00 00 
    aaef:	48 c7 85 00 f8 ff ff 	movq   $0x0,-0x800(%rbp)
    aaf6:	00 00 00 00 
    aafa:	48 8d 85 50 f3 ff ff 	lea    -0xcb0(%rbp),%rax
    ab01:	48 83 c0 04          	add    $0x4,%rax
    ab05:	48 89 85 08 f8 ff ff 	mov    %rax,-0x7f8(%rbp)
    ab0c:	48 8d 85 80 f4 ff ff 	lea    -0xb80(%rbp),%rax
    ab13:	48 83 c0 58          	add    $0x58,%rax
    ab17:	48 89 85 10 f8 ff ff 	mov    %rax,-0x7f0(%rbp)
    ab1e:	48 8d 85 80 f4 ff ff 	lea    -0xb80(%rbp),%rax
    ab25:	48 83 c0 58          	add    $0x58,%rax
    ab29:	48 89 85 18 f8 ff ff 	mov    %rax,-0x7e8(%rbp)
    ab30:	48 8d 85 ec ef ff ff 	lea    -0x1014(%rbp),%rax
    ab37:	48 89 85 20 f8 ff ff 	mov    %rax,-0x7e0(%rbp)
    ab3e:	48 8d 85 f0 ef ff ff 	lea    -0x1010(%rbp),%rax
    ab45:	48 89 85 28 f8 ff ff 	mov    %rax,-0x7d8(%rbp)
    ab4c:	48 8d 85 f0 ef ff ff 	lea    -0x1010(%rbp),%rax
    ab53:	48 89 85 30 f8 ff ff 	mov    %rax,-0x7d0(%rbp)
    ab5a:	48 8d 85 80 f4 ff ff 	lea    -0xb80(%rbp),%rax
    ab61:	48 05 dc 00 00 00    	add    $0xdc,%rax
    ab67:	48 89 85 38 f8 ff ff 	mov    %rax,-0x7c8(%rbp)
    ab6e:	48 8d 05 af 84 01 00 	lea    0x184af(%rip),%rax        # 23024 <g_18>
    ab75:	48 89 85 40 f8 ff ff 	mov    %rax,-0x7c0(%rbp)
    ab7c:	48 8d 85 ec ef ff ff 	lea    -0x1014(%rbp),%rax
    ab83:	48 89 85 48 f8 ff ff 	mov    %rax,-0x7b8(%rbp)
    ab8a:	48 c7 85 50 f8 ff ff 	movq   $0x0,-0x7b0(%rbp)
    ab91:	00 00 00 00 
    ab95:	48 8d 85 80 f4 ff ff 	lea    -0xb80(%rbp),%rax
    ab9c:	48 05 dc 00 00 00    	add    $0xdc,%rax
    aba2:	48 89 85 58 f8 ff ff 	mov    %rax,-0x7a8(%rbp)
    aba9:	48 8d 85 40 f2 ff ff 	lea    -0xdc0(%rbp),%rax
    abb0:	48 89 85 60 f8 ff ff 	mov    %rax,-0x7a0(%rbp)
    abb7:	48 8d 85 ec ef ff ff 	lea    -0x1014(%rbp),%rax
    abbe:	48 89 85 68 f8 ff ff 	mov    %rax,-0x798(%rbp)
    abc5:	48 c7 85 70 f8 ff ff 	movq   $0x0,-0x790(%rbp)
    abcc:	00 00 00 00 
    abd0:	48 8d 05 4d 84 01 00 	lea    0x1844d(%rip),%rax        # 23024 <g_18>
    abd7:	48 89 85 78 f8 ff ff 	mov    %rax,-0x788(%rbp)
    abde:	48 c7 85 80 f8 ff ff 	movq   $0x0,-0x780(%rbp)
    abe5:	00 00 00 00 
    abe9:	48 c7 85 88 f8 ff ff 	movq   $0x0,-0x778(%rbp)
    abf0:	00 00 00 00 
    abf4:	48 8d 85 80 f4 ff ff 	lea    -0xb80(%rbp),%rax
    abfb:	48 83 c0 58          	add    $0x58,%rax
    abff:	48 89 85 90 f8 ff ff 	mov    %rax,-0x770(%rbp)
    ac06:	48 8d 85 80 f4 ff ff 	lea    -0xb80(%rbp),%rax
    ac0d:	48 05 dc 00 00 00    	add    $0xdc,%rax
    ac13:	48 89 85 98 f8 ff ff 	mov    %rax,-0x768(%rbp)
    ac1a:	48 8d 85 ec ef ff ff 	lea    -0x1014(%rbp),%rax
    ac21:	48 89 85 a0 f8 ff ff 	mov    %rax,-0x760(%rbp)
    ac28:	48 c7 85 a8 f8 ff ff 	movq   $0x0,-0x758(%rbp)
    ac2f:	00 00 00 00 
    ac33:	48 8d 85 ec ef ff ff 	lea    -0x1014(%rbp),%rax
    ac3a:	48 89 85 b0 f8 ff ff 	mov    %rax,-0x750(%rbp)
    ac41:	48 8d 85 ec ef ff ff 	lea    -0x1014(%rbp),%rax
    ac48:	48 89 85 b8 f8 ff ff 	mov    %rax,-0x748(%rbp)
    ac4f:	48 8d 85 40 f2 ff ff 	lea    -0xdc0(%rbp),%rax
    ac56:	48 83 c0 04          	add    $0x4,%rax
    ac5a:	48 89 85 c0 f8 ff ff 	mov    %rax,-0x740(%rbp)
    ac61:	48 8d 85 f0 ef ff ff 	lea    -0x1010(%rbp),%rax
    ac68:	48 89 85 c8 f8 ff ff 	mov    %rax,-0x738(%rbp)
    ac6f:	48 8d 85 80 f4 ff ff 	lea    -0xb80(%rbp),%rax
    ac76:	48 83 c0 58          	add    $0x58,%rax
    ac7a:	48 89 85 d0 f8 ff ff 	mov    %rax,-0x730(%rbp)
    ac81:	48 8d 85 ec ef ff ff 	lea    -0x1014(%rbp),%rax
    ac88:	48 89 85 d8 f8 ff ff 	mov    %rax,-0x728(%rbp)
    ac8f:	48 8d 85 f0 ef ff ff 	lea    -0x1010(%rbp),%rax
    ac96:	48 89 85 e0 f8 ff ff 	mov    %rax,-0x720(%rbp)
    ac9d:	48 c7 85 e8 f8 ff ff 	movq   $0x0,-0x718(%rbp)
    aca4:	00 00 00 00 
    aca8:	48 8d 85 80 f4 ff ff 	lea    -0xb80(%rbp),%rax
    acaf:	48 05 dc 00 00 00    	add    $0xdc,%rax
    acb5:	48 89 85 f0 f8 ff ff 	mov    %rax,-0x710(%rbp)
    acbc:	48 8d 85 ec ef ff ff 	lea    -0x1014(%rbp),%rax
    acc3:	48 89 85 f8 f8 ff ff 	mov    %rax,-0x708(%rbp)
    acca:	48 8d 85 ec ef ff ff 	lea    -0x1014(%rbp),%rax
    acd1:	48 89 85 00 f9 ff ff 	mov    %rax,-0x700(%rbp)
    acd8:	48 8d 85 f0 ef ff ff 	lea    -0x1010(%rbp),%rax
    acdf:	48 89 85 08 f9 ff ff 	mov    %rax,-0x6f8(%rbp)
    ace6:	48 c7 85 10 f9 ff ff 	movq   $0x0,-0x6f0(%rbp)
    aced:	00 00 00 00 
    acf1:	48 8d 85 e8 ef ff ff 	lea    -0x1018(%rbp),%rax
    acf8:	48 89 85 18 f9 ff ff 	mov    %rax,-0x6e8(%rbp)
    acff:	48 8d 85 ec ef ff ff 	lea    -0x1014(%rbp),%rax
    ad06:	48 89 85 20 f9 ff ff 	mov    %rax,-0x6e0(%rbp)
    ad0d:	48 8d 85 ec ef ff ff 	lea    -0x1014(%rbp),%rax
    ad14:	48 89 85 28 f9 ff ff 	mov    %rax,-0x6d8(%rbp)
    ad1b:	48 8d 85 ec ef ff ff 	lea    -0x1014(%rbp),%rax
    ad22:	48 89 85 30 f9 ff ff 	mov    %rax,-0x6d0(%rbp)
    ad29:	48 8d 85 80 f4 ff ff 	lea    -0xb80(%rbp),%rax
    ad30:	48 83 c0 58          	add    $0x58,%rax
    ad34:	48 89 85 38 f9 ff ff 	mov    %rax,-0x6c8(%rbp)
    ad3b:	48 8d 85 f0 ef ff ff 	lea    -0x1010(%rbp),%rax
    ad42:	48 89 85 40 f9 ff ff 	mov    %rax,-0x6c0(%rbp)
    ad49:	48 c7 85 48 f9 ff ff 	movq   $0x0,-0x6b8(%rbp)
    ad50:	00 00 00 00 
    ad54:	48 8d 85 40 f2 ff ff 	lea    -0xdc0(%rbp),%rax
    ad5b:	48 89 85 50 f9 ff ff 	mov    %rax,-0x6b0(%rbp)
    ad62:	48 8d 85 40 f2 ff ff 	lea    -0xdc0(%rbp),%rax
    ad69:	48 89 85 58 f9 ff ff 	mov    %rax,-0x6a8(%rbp)
    ad70:	48 8d 85 80 f4 ff ff 	lea    -0xb80(%rbp),%rax
    ad77:	48 83 c0 58          	add    $0x58,%rax
    ad7b:	48 89 85 60 f9 ff ff 	mov    %rax,-0x6a0(%rbp)
    ad82:	48 c7 85 68 f9 ff ff 	movq   $0x0,-0x698(%rbp)
    ad89:	00 00 00 00 
    ad8d:	48 c7 85 70 f9 ff ff 	movq   $0x0,-0x690(%rbp)
    ad94:	00 00 00 00 
    ad98:	48 8d 85 80 f4 ff ff 	lea    -0xb80(%rbp),%rax
    ad9f:	48 83 c0 58          	add    $0x58,%rax
    ada3:	48 89 85 78 f9 ff ff 	mov    %rax,-0x688(%rbp)
    adaa:	48 8d 85 40 f2 ff ff 	lea    -0xdc0(%rbp),%rax
    adb1:	48 83 c0 04          	add    $0x4,%rax
    adb5:	48 89 85 80 f9 ff ff 	mov    %rax,-0x680(%rbp)
    adbc:	48 c7 85 88 f9 ff ff 	movq   $0x0,-0x678(%rbp)
    adc3:	00 00 00 00 
    adc7:	48 c7 85 90 f9 ff ff 	movq   $0x0,-0x670(%rbp)
    adce:	00 00 00 00 
    add2:	48 8d 85 40 f2 ff ff 	lea    -0xdc0(%rbp),%rax
    add9:	48 89 85 98 f9 ff ff 	mov    %rax,-0x668(%rbp)
    ade0:	48 8d 85 f0 ef ff ff 	lea    -0x1010(%rbp),%rax
    ade7:	48 89 85 a0 f9 ff ff 	mov    %rax,-0x660(%rbp)
    adee:	48 8d 85 ec ef ff ff 	lea    -0x1014(%rbp),%rax
    adf5:	48 89 85 a8 f9 ff ff 	mov    %rax,-0x658(%rbp)
    adfc:	48 8d 85 f0 ef ff ff 	lea    -0x1010(%rbp),%rax
    ae03:	48 89 85 b0 f9 ff ff 	mov    %rax,-0x650(%rbp)
    ae0a:	48 8d 85 ec ef ff ff 	lea    -0x1014(%rbp),%rax
    ae11:	48 89 85 b8 f9 ff ff 	mov    %rax,-0x648(%rbp)
    ae18:	48 8d 85 40 f2 ff ff 	lea    -0xdc0(%rbp),%rax
    ae1f:	48 83 c0 04          	add    $0x4,%rax
    ae23:	48 89 85 c0 f9 ff ff 	mov    %rax,-0x640(%rbp)
    ae2a:	48 8d 85 50 f3 ff ff 	lea    -0xcb0(%rbp),%rax
    ae31:	48 83 c0 28          	add    $0x28,%rax
    ae35:	48 89 85 c8 f9 ff ff 	mov    %rax,-0x638(%rbp)
    ae3c:	48 c7 85 d0 f9 ff ff 	movq   $0x0,-0x630(%rbp)
    ae43:	00 00 00 00 
    ae47:	48 8d 05 d6 81 01 00 	lea    0x181d6(%rip),%rax        # 23024 <g_18>
    ae4e:	48 89 85 d8 f9 ff ff 	mov    %rax,-0x628(%rbp)
    ae55:	48 8d 85 f0 ef ff ff 	lea    -0x1010(%rbp),%rax
    ae5c:	48 89 85 e0 f9 ff ff 	mov    %rax,-0x620(%rbp)
    ae63:	48 8d 85 50 f3 ff ff 	lea    -0xcb0(%rbp),%rax
    ae6a:	48 83 c0 04          	add    $0x4,%rax
    ae6e:	48 89 85 e8 f9 ff ff 	mov    %rax,-0x618(%rbp)
    ae75:	48 8d 85 e8 ef ff ff 	lea    -0x1018(%rbp),%rax
    ae7c:	48 89 85 f0 f9 ff ff 	mov    %rax,-0x610(%rbp)
    ae83:	48 8d 85 40 f2 ff ff 	lea    -0xdc0(%rbp),%rax
    ae8a:	48 89 85 f8 f9 ff ff 	mov    %rax,-0x608(%rbp)
    ae91:	48 8d 85 f0 ef ff ff 	lea    -0x1010(%rbp),%rax
    ae98:	48 89 85 00 fa ff ff 	mov    %rax,-0x600(%rbp)
    ae9f:	48 c7 85 08 fa ff ff 	movq   $0x0,-0x5f8(%rbp)
    aea6:	00 00 00 00 
    aeaa:	48 8d 85 40 f2 ff ff 	lea    -0xdc0(%rbp),%rax
    aeb1:	48 83 c0 04          	add    $0x4,%rax
    aeb5:	48 89 85 10 fa ff ff 	mov    %rax,-0x5f0(%rbp)
    aebc:	48 c7 85 18 fa ff ff 	movq   $0x0,-0x5e8(%rbp)
    aec3:	00 00 00 00 
    aec7:	48 8d 85 80 f4 ff ff 	lea    -0xb80(%rbp),%rax
    aece:	48 05 dc 00 00 00    	add    $0xdc,%rax
    aed4:	48 89 85 20 fa ff ff 	mov    %rax,-0x5e0(%rbp)
    aedb:	48 c7 85 28 fa ff ff 	movq   $0x0,-0x5d8(%rbp)
    aee2:	00 00 00 00 
    aee6:	48 c7 85 30 fa ff ff 	movq   $0x0,-0x5d0(%rbp)
    aeed:	00 00 00 00 
    aef1:	48 8d 85 40 f2 ff ff 	lea    -0xdc0(%rbp),%rax
    aef8:	48 83 c0 04          	add    $0x4,%rax
    aefc:	48 89 85 38 fa ff ff 	mov    %rax,-0x5c8(%rbp)
    af03:	48 8d 85 40 f2 ff ff 	lea    -0xdc0(%rbp),%rax
    af0a:	48 89 85 40 fa ff ff 	mov    %rax,-0x5c0(%rbp)
    af11:	48 8d 85 00 f0 ff ff 	lea    -0x1000(%rbp),%rax
    af18:	48 89 85 48 fa ff ff 	mov    %rax,-0x5b8(%rbp)
    af1f:	48 8d 85 e8 ef ff ff 	lea    -0x1018(%rbp),%rax
    af26:	48 89 85 50 fa ff ff 	mov    %rax,-0x5b0(%rbp)
    af2d:	48 8d 85 80 f4 ff ff 	lea    -0xb80(%rbp),%rax
    af34:	48 83 c0 58          	add    $0x58,%rax
    af38:	48 89 85 58 fa ff ff 	mov    %rax,-0x5a8(%rbp)
    af3f:	48 8d 85 50 f3 ff ff 	lea    -0xcb0(%rbp),%rax
    af46:	48 83 c0 04          	add    $0x4,%rax
    af4a:	48 89 85 60 fa ff ff 	mov    %rax,-0x5a0(%rbp)
    af51:	48 8d 85 00 f0 ff ff 	lea    -0x1000(%rbp),%rax
    af58:	48 89 85 68 fa ff ff 	mov    %rax,-0x598(%rbp)
    af5f:	48 8d 85 ec ef ff ff 	lea    -0x1014(%rbp),%rax
    af66:	48 89 85 70 fa ff ff 	mov    %rax,-0x590(%rbp)
    af6d:	48 8d 85 80 f4 ff ff 	lea    -0xb80(%rbp),%rax
    af74:	48 83 c0 58          	add    $0x58,%rax
    af78:	48 89 85 78 fa ff ff 	mov    %rax,-0x588(%rbp)
    af7f:	48 8d 85 40 f2 ff ff 	lea    -0xdc0(%rbp),%rax
    af86:	48 83 c0 04          	add    $0x4,%rax
    af8a:	48 89 85 80 fa ff ff 	mov    %rax,-0x580(%rbp)
    af91:	48 8d 85 f0 ef ff ff 	lea    -0x1010(%rbp),%rax
    af98:	48 89 85 88 fa ff ff 	mov    %rax,-0x578(%rbp)
    af9f:	48 8d 85 50 f3 ff ff 	lea    -0xcb0(%rbp),%rax
    afa6:	48 83 c0 04          	add    $0x4,%rax
    afaa:	48 89 85 90 fa ff ff 	mov    %rax,-0x570(%rbp)
    afb1:	48 8d 85 ec ef ff ff 	lea    -0x1014(%rbp),%rax
    afb8:	48 89 85 98 fa ff ff 	mov    %rax,-0x568(%rbp)
    afbf:	48 8d 85 80 f4 ff ff 	lea    -0xb80(%rbp),%rax
    afc6:	48 05 dc 00 00 00    	add    $0xdc,%rax
    afcc:	48 89 85 a0 fa ff ff 	mov    %rax,-0x560(%rbp)
    afd3:	48 8d 85 00 f0 ff ff 	lea    -0x1000(%rbp),%rax
    afda:	48 89 85 a8 fa ff ff 	mov    %rax,-0x558(%rbp)
    afe1:	48 c7 85 b0 fa ff ff 	movq   $0x0,-0x550(%rbp)
    afe8:	00 00 00 00 
    afec:	48 8d 85 ec ef ff ff 	lea    -0x1014(%rbp),%rax
    aff3:	48 89 85 b8 fa ff ff 	mov    %rax,-0x548(%rbp)
    affa:	48 c7 85 c0 fa ff ff 	movq   $0x0,-0x540(%rbp)
    b001:	00 00 00 00 
    b005:	48 c7 85 c8 fa ff ff 	movq   $0x0,-0x538(%rbp)
    b00c:	00 00 00 00 
    b010:	48 8d 85 ec ef ff ff 	lea    -0x1014(%rbp),%rax
    b017:	48 89 85 d0 fa ff ff 	mov    %rax,-0x530(%rbp)
    b01e:	48 c7 85 d8 fa ff ff 	movq   $0x0,-0x528(%rbp)
    b025:	00 00 00 00 
    b029:	48 8d 85 80 f4 ff ff 	lea    -0xb80(%rbp),%rax
    b030:	48 83 c0 58          	add    $0x58,%rax
    b034:	48 89 85 e0 fa ff ff 	mov    %rax,-0x520(%rbp)
    b03b:	48 8d 85 ec ef ff ff 	lea    -0x1014(%rbp),%rax
    b042:	48 89 85 e8 fa ff ff 	mov    %rax,-0x518(%rbp)
    b049:	48 8d 85 f0 ef ff ff 	lea    -0x1010(%rbp),%rax
    b050:	48 89 85 f0 fa ff ff 	mov    %rax,-0x510(%rbp)
    b057:	48 8d 85 f0 ef ff ff 	lea    -0x1010(%rbp),%rax
    b05e:	48 89 85 f8 fa ff ff 	mov    %rax,-0x508(%rbp)
    b065:	48 8d 85 80 f4 ff ff 	lea    -0xb80(%rbp),%rax
    b06c:	48 05 dc 00 00 00    	add    $0xdc,%rax
    b072:	48 89 85 00 fb ff ff 	mov    %rax,-0x500(%rbp)
    b079:	48 8d 85 50 f3 ff ff 	lea    -0xcb0(%rbp),%rax
    b080:	48 83 c0 04          	add    $0x4,%rax
    b084:	48 89 85 08 fb ff ff 	mov    %rax,-0x4f8(%rbp)
    b08b:	48 8d 85 ec ef ff ff 	lea    -0x1014(%rbp),%rax
    b092:	48 89 85 10 fb ff ff 	mov    %rax,-0x4f0(%rbp)
    b099:	48 8d 85 e8 ef ff ff 	lea    -0x1018(%rbp),%rax
    b0a0:	48 89 85 18 fb ff ff 	mov    %rax,-0x4e8(%rbp)
    b0a7:	48 c7 85 20 fb ff ff 	movq   $0x0,-0x4e0(%rbp)
    b0ae:	00 00 00 00 
    b0b2:	48 8d 85 f0 ef ff ff 	lea    -0x1010(%rbp),%rax
    b0b9:	48 89 85 28 fb ff ff 	mov    %rax,-0x4d8(%rbp)
    b0c0:	48 8d 85 ec ef ff ff 	lea    -0x1014(%rbp),%rax
    b0c7:	48 89 85 30 fb ff ff 	mov    %rax,-0x4d0(%rbp)
    b0ce:	48 8d 85 ec ef ff ff 	lea    -0x1014(%rbp),%rax
    b0d5:	48 89 85 38 fb ff ff 	mov    %rax,-0x4c8(%rbp)
    b0dc:	48 8d 85 ec ef ff ff 	lea    -0x1014(%rbp),%rax
    b0e3:	48 89 85 40 fb ff ff 	mov    %rax,-0x4c0(%rbp)
    b0ea:	48 c7 85 48 fb ff ff 	movq   $0x0,-0x4b8(%rbp)
    b0f1:	00 00 00 00 
    b0f5:	48 8d 85 f0 ef ff ff 	lea    -0x1010(%rbp),%rax
    b0fc:	48 89 85 50 fb ff ff 	mov    %rax,-0x4b0(%rbp)
    b103:	48 8d 85 f0 ef ff ff 	lea    -0x1010(%rbp),%rax
    b10a:	48 89 85 58 fb ff ff 	mov    %rax,-0x4a8(%rbp)
    b111:	48 8d 85 40 f2 ff ff 	lea    -0xdc0(%rbp),%rax
    b118:	48 89 85 60 fb ff ff 	mov    %rax,-0x4a0(%rbp)
    b11f:	48 c7 85 68 fb ff ff 	movq   $0x0,-0x498(%rbp)
    b126:	00 00 00 00 
    b12a:	48 8d 85 80 f4 ff ff 	lea    -0xb80(%rbp),%rax
    b131:	48 83 c0 58          	add    $0x58,%rax
    b135:	48 89 85 70 fb ff ff 	mov    %rax,-0x490(%rbp)
    b13c:	48 8d 85 80 f4 ff ff 	lea    -0xb80(%rbp),%rax
    b143:	48 05 dc 00 00 00    	add    $0xdc,%rax
    b149:	48 89 85 78 fb ff ff 	mov    %rax,-0x488(%rbp)
    b150:	48 c7 85 80 fb ff ff 	movq   $0x0,-0x480(%rbp)
    b157:	00 00 00 00 
    b15b:	48 c7 85 88 fb ff ff 	movq   $0x0,-0x478(%rbp)
    b162:	00 00 00 00 
    b166:	48 8d 85 40 f2 ff ff 	lea    -0xdc0(%rbp),%rax
    b16d:	48 83 c0 04          	add    $0x4,%rax
    b171:	48 89 85 90 fb ff ff 	mov    %rax,-0x470(%rbp)
    b178:	48 8d 85 40 f2 ff ff 	lea    -0xdc0(%rbp),%rax
    b17f:	48 89 85 98 fb ff ff 	mov    %rax,-0x468(%rbp)
    b186:	48 c7 85 a0 fb ff ff 	movq   $0x0,-0x460(%rbp)
    b18d:	00 00 00 00 
    b191:	48 c7 85 a8 fb ff ff 	movq   $0x0,-0x458(%rbp)
    b198:	00 00 00 00 
    b19c:	48 8d 85 f0 ef ff ff 	lea    -0x1010(%rbp),%rax
    b1a3:	48 89 85 b0 fb ff ff 	mov    %rax,-0x450(%rbp)
    b1aa:	48 8d 85 ec ef ff ff 	lea    -0x1014(%rbp),%rax
    b1b1:	48 89 85 b8 fb ff ff 	mov    %rax,-0x448(%rbp)
    b1b8:	48 8d 85 f0 ef ff ff 	lea    -0x1010(%rbp),%rax
    b1bf:	48 89 85 c0 fb ff ff 	mov    %rax,-0x440(%rbp)
    b1c6:	48 8d 85 ec ef ff ff 	lea    -0x1014(%rbp),%rax
    b1cd:	48 89 85 c8 fb ff ff 	mov    %rax,-0x438(%rbp)
    b1d4:	48 8d 85 40 f2 ff ff 	lea    -0xdc0(%rbp),%rax
    b1db:	48 83 c0 04          	add    $0x4,%rax
    b1df:	48 89 85 d0 fb ff ff 	mov    %rax,-0x430(%rbp)
    b1e6:	48 8d 85 f4 ef ff ff 	lea    -0x100c(%rbp),%rax
    b1ed:	48 89 85 d8 fb ff ff 	mov    %rax,-0x428(%rbp)
    b1f4:	48 c7 85 e0 fb ff ff 	movq   $0x0,-0x420(%rbp)
    b1fb:	00 00 00 00 
    b1ff:	48 8d 85 00 f0 ff ff 	lea    -0x1000(%rbp),%rax
    b206:	48 89 85 e8 fb ff ff 	mov    %rax,-0x418(%rbp)
    b20d:	48 8d 85 f0 ef ff ff 	lea    -0x1010(%rbp),%rax
    b214:	48 89 85 f0 fb ff ff 	mov    %rax,-0x410(%rbp)
    b21b:	48 8d 85 ec ef ff ff 	lea    -0x1014(%rbp),%rax
    b222:	48 89 85 f8 fb ff ff 	mov    %rax,-0x408(%rbp)
    b229:	48 8d 85 e8 ef ff ff 	lea    -0x1018(%rbp),%rax
    b230:	48 89 85 00 fc ff ff 	mov    %rax,-0x400(%rbp)
    b237:	48 c7 85 08 fc ff ff 	movq   $0x0,-0x3f8(%rbp)
    b23e:	00 00 00 00 
    b242:	48 8d 85 f0 ef ff ff 	lea    -0x1010(%rbp),%rax
    b249:	48 89 85 10 fc ff ff 	mov    %rax,-0x3f0(%rbp)
    b250:	48 8d 85 40 f2 ff ff 	lea    -0xdc0(%rbp),%rax
    b257:	48 83 c0 04          	add    $0x4,%rax
    b25b:	48 89 85 18 fc ff ff 	mov    %rax,-0x3e8(%rbp)
    b262:	48 8d 85 40 f2 ff ff 	lea    -0xdc0(%rbp),%rax
    b269:	48 83 c0 04          	add    $0x4,%rax
    b26d:	48 89 85 20 fc ff ff 	mov    %rax,-0x3e0(%rbp)
    b274:	48 8d 85 f0 ef ff ff 	lea    -0x1010(%rbp),%rax
    b27b:	48 89 85 28 fc ff ff 	mov    %rax,-0x3d8(%rbp)
    b282:	48 8d 85 80 f4 ff ff 	lea    -0xb80(%rbp),%rax
    b289:	48 05 dc 00 00 00    	add    $0xdc,%rax
    b28f:	48 89 85 30 fc ff ff 	mov    %rax,-0x3d0(%rbp)
    b296:	48 8d 85 80 f4 ff ff 	lea    -0xb80(%rbp),%rax
    b29d:	48 05 dc 00 00 00    	add    $0xdc,%rax
    b2a3:	48 89 85 38 fc ff ff 	mov    %rax,-0x3c8(%rbp)
    b2aa:	48 c7 85 40 fc ff ff 	movq   $0x0,-0x3c0(%rbp)
    b2b1:	00 00 00 00 
    b2b5:	48 c7 85 48 fc ff ff 	movq   $0x0,-0x3b8(%rbp)
    b2bc:	00 00 00 00 
    b2c0:	48 8d 85 40 f2 ff ff 	lea    -0xdc0(%rbp),%rax
    b2c7:	48 89 85 50 fc ff ff 	mov    %rax,-0x3b0(%rbp)
    b2ce:	48 8d 05 4f 7d 01 00 	lea    0x17d4f(%rip),%rax        # 23024 <g_18>
    b2d5:	48 89 85 58 fc ff ff 	mov    %rax,-0x3a8(%rbp)
    b2dc:	48 8d 85 e8 ef ff ff 	lea    -0x1018(%rbp),%rax
    b2e3:	48 89 85 60 fc ff ff 	mov    %rax,-0x3a0(%rbp)
    b2ea:	48 c7 85 68 fc ff ff 	movq   $0x0,-0x398(%rbp)
    b2f1:	00 00 00 00 
    b2f5:	48 8d 85 50 f3 ff ff 	lea    -0xcb0(%rbp),%rax
    b2fc:	48 83 c0 04          	add    $0x4,%rax
    b300:	48 89 85 70 fc ff ff 	mov    %rax,-0x390(%rbp)
    b307:	48 8d 05 16 7d 01 00 	lea    0x17d16(%rip),%rax        # 23024 <g_18>
    b30e:	48 89 85 78 fc ff ff 	mov    %rax,-0x388(%rbp)
    b315:	48 8d 85 ec ef ff ff 	lea    -0x1014(%rbp),%rax
    b31c:	48 89 85 80 fc ff ff 	mov    %rax,-0x380(%rbp)
    b323:	48 c7 85 88 fc ff ff 	movq   $0x0,-0x378(%rbp)
    b32a:	00 00 00 00 
    b32e:	48 8d 85 40 f2 ff ff 	lea    -0xdc0(%rbp),%rax
    b335:	48 83 c0 04          	add    $0x4,%rax
    b339:	48 89 85 90 fc ff ff 	mov    %rax,-0x370(%rbp)
    b340:	48 8d 85 e8 ef ff ff 	lea    -0x1018(%rbp),%rax
    b347:	48 89 85 98 fc ff ff 	mov    %rax,-0x368(%rbp)
    b34e:	48 8d 85 50 f3 ff ff 	lea    -0xcb0(%rbp),%rax
    b355:	48 83 c0 04          	add    $0x4,%rax
    b359:	48 89 85 a0 fc ff ff 	mov    %rax,-0x360(%rbp)
    b360:	48 8d 85 ec ef ff ff 	lea    -0x1014(%rbp),%rax
    b367:	48 89 85 a8 fc ff ff 	mov    %rax,-0x358(%rbp)
    b36e:	48 8d 85 80 f4 ff ff 	lea    -0xb80(%rbp),%rax
    b375:	48 05 dc 00 00 00    	add    $0xdc,%rax
    b37b:	48 89 85 b0 fc ff ff 	mov    %rax,-0x350(%rbp)
    b382:	48 8d 05 9b 7c 01 00 	lea    0x17c9b(%rip),%rax        # 23024 <g_18>
    b389:	48 89 85 b8 fc ff ff 	mov    %rax,-0x348(%rbp)
    b390:	48 c7 85 c0 fc ff ff 	movq   $0x0,-0x340(%rbp)
    b397:	00 00 00 00 
    b39b:	48 8d 85 ec ef ff ff 	lea    -0x1014(%rbp),%rax
    b3a2:	48 89 85 c8 fc ff ff 	mov    %rax,-0x338(%rbp)
    b3a9:	48 c7 85 d0 fc ff ff 	movq   $0x0,-0x330(%rbp)
    b3b0:	00 00 00 00 
    b3b4:	48 8d 85 80 f4 ff ff 	lea    -0xb80(%rbp),%rax
    b3bb:	48 83 c0 58          	add    $0x58,%rax
    b3bf:	48 89 85 d8 fc ff ff 	mov    %rax,-0x328(%rbp)
    b3c6:	48 8d 85 ec ef ff ff 	lea    -0x1014(%rbp),%rax
    b3cd:	48 89 85 e0 fc ff ff 	mov    %rax,-0x320(%rbp)
    b3d4:	48 8d 85 f0 ef ff ff 	lea    -0x1010(%rbp),%rax
    b3db:	48 89 85 e8 fc ff ff 	mov    %rax,-0x318(%rbp)
    b3e2:	48 8d 85 80 f4 ff ff 	lea    -0xb80(%rbp),%rax
    b3e9:	48 83 c0 58          	add    $0x58,%rax
    b3ed:	48 89 85 f0 fc ff ff 	mov    %rax,-0x310(%rbp)
    b3f4:	48 8d 85 ec ef ff ff 	lea    -0x1014(%rbp),%rax
    b3fb:	48 89 85 f8 fc ff ff 	mov    %rax,-0x308(%rbp)
    b402:	48 8d 85 f0 ef ff ff 	lea    -0x1010(%rbp),%rax
    b409:	48 89 85 00 fd ff ff 	mov    %rax,-0x300(%rbp)
    b410:	48 c7 85 08 fd ff ff 	movq   $0x0,-0x2f8(%rbp)
    b417:	00 00 00 00 
    b41b:	48 8d 85 80 f4 ff ff 	lea    -0xb80(%rbp),%rax
    b422:	48 05 dc 00 00 00    	add    $0xdc,%rax
    b428:	48 89 85 10 fd ff ff 	mov    %rax,-0x2f0(%rbp)
    b42f:	48 8d 85 ec ef ff ff 	lea    -0x1014(%rbp),%rax
    b436:	48 89 85 18 fd ff ff 	mov    %rax,-0x2e8(%rbp)
    b43d:	48 8d 85 ec ef ff ff 	lea    -0x1014(%rbp),%rax
    b444:	48 89 85 20 fd ff ff 	mov    %rax,-0x2e0(%rbp)
    b44b:	48 8d 85 f0 ef ff ff 	lea    -0x1010(%rbp),%rax
    b452:	48 89 85 28 fd ff ff 	mov    %rax,-0x2d8(%rbp)
    b459:	48 c7 85 30 fd ff ff 	movq   $0x0,-0x2d0(%rbp)
    b460:	00 00 00 00 
    b464:	48 8d 85 e8 ef ff ff 	lea    -0x1018(%rbp),%rax
    b46b:	48 89 85 38 fd ff ff 	mov    %rax,-0x2c8(%rbp)
    b472:	48 8d 85 ec ef ff ff 	lea    -0x1014(%rbp),%rax
    b479:	48 89 85 40 fd ff ff 	mov    %rax,-0x2c0(%rbp)
    b480:	48 8d 85 ec ef ff ff 	lea    -0x1014(%rbp),%rax
    b487:	48 89 85 48 fd ff ff 	mov    %rax,-0x2b8(%rbp)
    b48e:	48 8d 85 ec ef ff ff 	lea    -0x1014(%rbp),%rax
    b495:	48 89 85 50 fd ff ff 	mov    %rax,-0x2b0(%rbp)
    b49c:	48 8d 85 80 f4 ff ff 	lea    -0xb80(%rbp),%rax
    b4a3:	48 83 c0 58          	add    $0x58,%rax
    b4a7:	48 89 85 58 fd ff ff 	mov    %rax,-0x2a8(%rbp)
    b4ae:	48 8d 85 f0 ef ff ff 	lea    -0x1010(%rbp),%rax
    b4b5:	48 89 85 60 fd ff ff 	mov    %rax,-0x2a0(%rbp)
    b4bc:	48 c7 85 68 fd ff ff 	movq   $0x0,-0x298(%rbp)
    b4c3:	00 00 00 00 
    b4c7:	48 8d 85 40 f2 ff ff 	lea    -0xdc0(%rbp),%rax
    b4ce:	48 89 85 70 fd ff ff 	mov    %rax,-0x290(%rbp)
    b4d5:	48 8d 85 40 f2 ff ff 	lea    -0xdc0(%rbp),%rax
    b4dc:	48 89 85 78 fd ff ff 	mov    %rax,-0x288(%rbp)
    b4e3:	48 8d 85 80 f4 ff ff 	lea    -0xb80(%rbp),%rax
    b4ea:	48 83 c0 58          	add    $0x58,%rax
    b4ee:	48 89 85 80 fd ff ff 	mov    %rax,-0x280(%rbp)
    b4f5:	48 c7 85 88 fd ff ff 	movq   $0x0,-0x278(%rbp)
    b4fc:	00 00 00 00 
    b500:	48 c7 85 90 fd ff ff 	movq   $0x0,-0x270(%rbp)
    b507:	00 00 00 00 
    b50b:	48 8d 85 80 f4 ff ff 	lea    -0xb80(%rbp),%rax
    b512:	48 83 c0 58          	add    $0x58,%rax
    b516:	48 89 85 98 fd ff ff 	mov    %rax,-0x268(%rbp)
    b51d:	48 8d 85 40 f2 ff ff 	lea    -0xdc0(%rbp),%rax
    b524:	48 83 c0 04          	add    $0x4,%rax
    b528:	48 89 85 a0 fd ff ff 	mov    %rax,-0x260(%rbp)
    b52f:	48 c7 85 a8 fd ff ff 	movq   $0x0,-0x258(%rbp)
    b536:	00 00 00 00 
    b53a:	48 c7 85 b0 fd ff ff 	movq   $0x0,-0x250(%rbp)
    b541:	00 00 00 00 
    b545:	48 8d 85 40 f2 ff ff 	lea    -0xdc0(%rbp),%rax
    b54c:	48 89 85 b8 fd ff ff 	mov    %rax,-0x248(%rbp)
    b553:	48 8d 85 f0 ef ff ff 	lea    -0x1010(%rbp),%rax
    b55a:	48 89 85 c0 fd ff ff 	mov    %rax,-0x240(%rbp)
    b561:	48 8d 85 ec ef ff ff 	lea    -0x1014(%rbp),%rax
    b568:	48 89 85 c8 fd ff ff 	mov    %rax,-0x238(%rbp)
    b56f:	48 8d 85 f0 ef ff ff 	lea    -0x1010(%rbp),%rax
    b576:	48 89 85 d0 fd ff ff 	mov    %rax,-0x230(%rbp)
    b57d:	48 8d 85 ec ef ff ff 	lea    -0x1014(%rbp),%rax
    b584:	48 89 85 d8 fd ff ff 	mov    %rax,-0x228(%rbp)
    b58b:	48 8d 85 40 f2 ff ff 	lea    -0xdc0(%rbp),%rax
    b592:	48 83 c0 04          	add    $0x4,%rax
    b596:	48 89 85 e0 fd ff ff 	mov    %rax,-0x220(%rbp)
    b59d:	48 8d 85 50 f3 ff ff 	lea    -0xcb0(%rbp),%rax
    b5a4:	48 83 c0 28          	add    $0x28,%rax
    b5a8:	48 89 85 e8 fd ff ff 	mov    %rax,-0x218(%rbp)
    b5af:	48 c7 85 f0 fd ff ff 	movq   $0x0,-0x210(%rbp)
    b5b6:	00 00 00 00 
    b5ba:	48 8d 05 63 7a 01 00 	lea    0x17a63(%rip),%rax        # 23024 <g_18>
    b5c1:	48 89 85 f8 fd ff ff 	mov    %rax,-0x208(%rbp)
    b5c8:	48 8d 85 f0 ef ff ff 	lea    -0x1010(%rbp),%rax
    b5cf:	48 89 85 00 fe ff ff 	mov    %rax,-0x200(%rbp)
    b5d6:	48 8d 85 50 f3 ff ff 	lea    -0xcb0(%rbp),%rax
    b5dd:	48 83 c0 04          	add    $0x4,%rax
    b5e1:	48 89 85 08 fe ff ff 	mov    %rax,-0x1f8(%rbp)
    b5e8:	48 8d 85 e8 ef ff ff 	lea    -0x1018(%rbp),%rax
    b5ef:	48 89 85 10 fe ff ff 	mov    %rax,-0x1f0(%rbp)
    b5f6:	48 8d 85 40 f2 ff ff 	lea    -0xdc0(%rbp),%rax
    b5fd:	48 89 85 18 fe ff ff 	mov    %rax,-0x1e8(%rbp)
    b604:	48 8d 85 f0 ef ff ff 	lea    -0x1010(%rbp),%rax
    b60b:	48 89 85 20 fe ff ff 	mov    %rax,-0x1e0(%rbp)
    b612:	48 c7 85 28 fe ff ff 	movq   $0x0,-0x1d8(%rbp)
    b619:	00 00 00 00 
    b61d:	48 8d 85 40 f2 ff ff 	lea    -0xdc0(%rbp),%rax
    b624:	48 83 c0 04          	add    $0x4,%rax
    b628:	48 89 85 30 fe ff ff 	mov    %rax,-0x1d0(%rbp)
    b62f:	48 c7 85 38 fe ff ff 	movq   $0x0,-0x1c8(%rbp)
    b636:	00 00 00 00 
    b63a:	48 8d 85 80 f4 ff ff 	lea    -0xb80(%rbp),%rax
    b641:	48 05 dc 00 00 00    	add    $0xdc,%rax
    b647:	48 89 85 40 fe ff ff 	mov    %rax,-0x1c0(%rbp)
    b64e:	48 c7 85 48 fe ff ff 	movq   $0x0,-0x1b8(%rbp)
    b655:	00 00 00 00 
    b659:	48 c7 85 50 fe ff ff 	movq   $0x0,-0x1b0(%rbp)
    b660:	00 00 00 00 
    b664:	48 8d 85 40 f2 ff ff 	lea    -0xdc0(%rbp),%rax
    b66b:	48 83 c0 04          	add    $0x4,%rax
    b66f:	48 89 85 58 fe ff ff 	mov    %rax,-0x1a8(%rbp)
    b676:	48 8d 85 40 f2 ff ff 	lea    -0xdc0(%rbp),%rax
    b67d:	48 89 85 60 fe ff ff 	mov    %rax,-0x1a0(%rbp)
    b684:	48 8d 85 00 f0 ff ff 	lea    -0x1000(%rbp),%rax
    b68b:	48 89 85 68 fe ff ff 	mov    %rax,-0x198(%rbp)
    b692:	48 8d 85 e8 ef ff ff 	lea    -0x1018(%rbp),%rax
    b699:	48 89 85 70 fe ff ff 	mov    %rax,-0x190(%rbp)
    b6a0:	48 8d 85 80 f4 ff ff 	lea    -0xb80(%rbp),%rax
    b6a7:	48 83 c0 58          	add    $0x58,%rax
    b6ab:	48 89 85 78 fe ff ff 	mov    %rax,-0x188(%rbp)
    b6b2:	48 8d 85 50 f3 ff ff 	lea    -0xcb0(%rbp),%rax
    b6b9:	48 83 c0 04          	add    $0x4,%rax
    b6bd:	48 89 85 80 fe ff ff 	mov    %rax,-0x180(%rbp)
    b6c4:	48 8d 85 00 f0 ff ff 	lea    -0x1000(%rbp),%rax
    b6cb:	48 89 85 88 fe ff ff 	mov    %rax,-0x178(%rbp)
    b6d2:	48 8d 85 ec ef ff ff 	lea    -0x1014(%rbp),%rax
    b6d9:	48 89 85 90 fe ff ff 	mov    %rax,-0x170(%rbp)
    b6e0:	48 8d 85 80 f4 ff ff 	lea    -0xb80(%rbp),%rax
    b6e7:	48 83 c0 58          	add    $0x58,%rax
    b6eb:	48 89 85 98 fe ff ff 	mov    %rax,-0x168(%rbp)
    b6f2:	48 8d 85 40 f2 ff ff 	lea    -0xdc0(%rbp),%rax
    b6f9:	48 83 c0 04          	add    $0x4,%rax
    b6fd:	48 89 85 a0 fe ff ff 	mov    %rax,-0x160(%rbp)
    b704:	48 8d 85 f0 ef ff ff 	lea    -0x1010(%rbp),%rax
    b70b:	48 89 85 a8 fe ff ff 	mov    %rax,-0x158(%rbp)
    b712:	48 8d 85 50 f3 ff ff 	lea    -0xcb0(%rbp),%rax
    b719:	48 83 c0 04          	add    $0x4,%rax
    b71d:	48 89 85 b0 fe ff ff 	mov    %rax,-0x150(%rbp)
    b724:	48 8d 85 ec ef ff ff 	lea    -0x1014(%rbp),%rax
    b72b:	48 89 85 b8 fe ff ff 	mov    %rax,-0x148(%rbp)
    b732:	48 8d 05 eb 78 01 00 	lea    0x178eb(%rip),%rax        # 23024 <g_18>
    b739:	48 89 85 c0 fe ff ff 	mov    %rax,-0x140(%rbp)
    b740:	48 8d 85 f0 ef ff ff 	lea    -0x1010(%rbp),%rax
    b747:	48 89 85 c8 fe ff ff 	mov    %rax,-0x138(%rbp)
    b74e:	48 8d 85 40 f2 ff ff 	lea    -0xdc0(%rbp),%rax
    b755:	48 83 c0 04          	add    $0x4,%rax
    b759:	48 89 85 d0 fe ff ff 	mov    %rax,-0x130(%rbp)
    b760:	48 8d 85 80 f4 ff ff 	lea    -0xb80(%rbp),%rax
    b767:	48 83 c0 58          	add    $0x58,%rax
    b76b:	48 89 85 d8 fe ff ff 	mov    %rax,-0x128(%rbp)
    b772:	48 c7 85 e0 fe ff ff 	movq   $0x0,-0x120(%rbp)
    b779:	00 00 00 00 
    b77d:	48 c7 85 e8 fe ff ff 	movq   $0x0,-0x118(%rbp)
    b784:	00 00 00 00 
    b788:	48 8d 85 80 f4 ff ff 	lea    -0xb80(%rbp),%rax
    b78f:	48 83 c0 58          	add    $0x58,%rax
    b793:	48 89 85 f0 fe ff ff 	mov    %rax,-0x110(%rbp)
    b79a:	48 8d 85 40 f2 ff ff 	lea    -0xdc0(%rbp),%rax
    b7a1:	48 83 c0 04          	add    $0x4,%rax
    b7a5:	48 89 85 f8 fe ff ff 	mov    %rax,-0x108(%rbp)
    b7ac:	48 8d 85 80 f4 ff ff 	lea    -0xb80(%rbp),%rax
    b7b3:	48 05 dc 00 00 00    	add    $0xdc,%rax
    b7b9:	48 89 85 00 ff ff ff 	mov    %rax,-0x100(%rbp)
    b7c0:	48 c7 85 08 ff ff ff 	movq   $0x0,-0xf8(%rbp)
    b7c7:	00 00 00 00 
    b7cb:	48 c7 85 10 ff ff ff 	movq   $0x0,-0xf0(%rbp)
    b7d2:	00 00 00 00 
    b7d6:	48 8d 85 40 f2 ff ff 	lea    -0xdc0(%rbp),%rax
    b7dd:	48 89 85 18 ff ff ff 	mov    %rax,-0xe8(%rbp)
    b7e4:	48 8d 05 39 78 01 00 	lea    0x17839(%rip),%rax        # 23024 <g_18>
    b7eb:	48 89 85 20 ff ff ff 	mov    %rax,-0xe0(%rbp)
    b7f2:	48 8d 85 f0 ef ff ff 	lea    -0x1010(%rbp),%rax
    b7f9:	48 89 85 28 ff ff ff 	mov    %rax,-0xd8(%rbp)
    b800:	48 c7 85 30 ff ff ff 	movq   $0x0,-0xd0(%rbp)
    b807:	00 00 00 00 
    b80b:	48 8d 85 f4 ef ff ff 	lea    -0x100c(%rbp),%rax
    b812:	48 89 85 38 ff ff ff 	mov    %rax,-0xc8(%rbp)
    b819:	48 8d 85 ec ef ff ff 	lea    -0x1014(%rbp),%rax
    b820:	48 89 85 40 ff ff ff 	mov    %rax,-0xc0(%rbp)
    b827:	48 8d 85 50 f3 ff ff 	lea    -0xcb0(%rbp),%rax
    b82e:	48 83 c0 28          	add    $0x28,%rax
    b832:	48 89 85 48 ff ff ff 	mov    %rax,-0xb8(%rbp)
    b839:	48 c7 85 50 ff ff ff 	movq   $0x0,-0xb0(%rbp)
    b840:	00 00 00 00 
    b844:	48 8d 85 80 f4 ff ff 	lea    -0xb80(%rbp),%rax
    b84b:	48 83 c0 58          	add    $0x58,%rax
    b84f:	48 89 85 58 ff ff ff 	mov    %rax,-0xa8(%rbp)
    b856:	48 c7 85 60 ff ff ff 	movq   $0x0,-0xa0(%rbp)
    b85d:	00 00 00 00 
    b861:	48 c7 85 68 ff ff ff 	movq   $0x0,-0x98(%rbp)
    b868:	00 00 00 00 
    b86c:	48 8d 85 50 f3 ff ff 	lea    -0xcb0(%rbp),%rax
    b873:	48 83 c0 28          	add    $0x28,%rax
    b877:	48 89 85 70 ff ff ff 	mov    %rax,-0x90(%rbp)
    b87e:	48 8d 85 40 f2 ff ff 	lea    -0xdc0(%rbp),%rax
    b885:	48 89 85 78 ff ff ff 	mov    %rax,-0x88(%rbp)
    b88c:	48 8d 85 ec ef ff ff 	lea    -0x1014(%rbp),%rax
    b893:	48 89 45 80          	mov    %rax,-0x80(%rbp)
    b897:	48 8d 85 50 f3 ff ff 	lea    -0xcb0(%rbp),%rax
    b89e:	48 83 c0 04          	add    $0x4,%rax
    b8a2:	48 89 45 88          	mov    %rax,-0x78(%rbp)
    b8a6:	48 8d 85 80 f4 ff ff 	lea    -0xb80(%rbp),%rax
    b8ad:	48 05 dc 00 00 00    	add    $0xdc,%rax
    b8b3:	48 89 45 90          	mov    %rax,-0x70(%rbp)
    b8b7:	48 8d 05 66 77 01 00 	lea    0x17766(%rip),%rax        # 23024 <g_18>
    b8be:	48 89 45 98          	mov    %rax,-0x68(%rbp)
    b8c2:	48 8d 85 00 f0 ff ff 	lea    -0x1000(%rbp),%rax
    b8c9:	48 89 45 a0          	mov    %rax,-0x60(%rbp)
    b8cd:	48 c7 45 a8 00 00 00 	movq   $0x0,-0x58(%rbp)
    b8d4:	00 
    b8d5:	48 8d 85 ec ef ff ff 	lea    -0x1014(%rbp),%rax
    b8dc:	48 89 45 b0          	mov    %rax,-0x50(%rbp)
    b8e0:	48 8d 85 ec ef ff ff 	lea    -0x1014(%rbp),%rax
    b8e7:	48 89 45 b8          	mov    %rax,-0x48(%rbp)
    b8eb:	0f b6 05 ba 7b 01 00 	movzbl 0x17bba(%rip),%eax        # 234ac <g_2301>
    b8f2:	83 e8 01             	sub    $0x1,%eax
    b8f5:	88 05 b1 7b 01 00    	mov    %al,0x17bb1(%rip)        # 234ac <g_2301>
    b8fb:	8b 85 e0 f2 ff ff    	mov    -0xd20(%rbp),%eax
    b901:	83 c0 01             	add    $0x1,%eax
    b904:	89 85 e0 f2 ff ff    	mov    %eax,-0xd20(%rbp)
    b90a:	48 8b 85 f8 f0 ff ff 	mov    -0xf08(%rbp),%rax
    b911:	e9 93 1f 00 00       	jmpq   d8a9 <func_6+0x3ee8>
    b916:	48 8b 05 93 7b 01 00 	mov    0x17b93(%rip),%rax        # 234b0 <g_2313>
    b91d:	83 bd 58 f0 ff ff 00 	cmpl   $0x0,-0xfa8(%rbp)
    b924:	0f 84 7d 01 00 00    	je     baa7 <func_6+0x20e6>
    b92a:	48 8b 85 b0 ef ff ff 	mov    -0x1050(%rbp),%rax
    b931:	41 89 c7             	mov    %eax,%r15d
    b934:	8b 85 34 f0 ff ff    	mov    -0xfcc(%rbp),%eax
    b93a:	48 63 d8             	movslq %eax,%rbx
    b93d:	0f b7 85 da ef ff ff 	movzwl -0x1026(%rbp),%eax
    b944:	44 0f bf e0          	movswl %ax,%r12d
    b948:	48 8b 05 d1 a6 01 00 	mov    0x1a6d1(%rip),%rax        # 26020 <g_1670>
    b94f:	0f b6 00             	movzbl (%rax),%eax
    b952:	84 c0                	test   %al,%al
    b954:	75 24                	jne    b97a <func_6+0x1fb9>
    b956:	48 8b 85 40 f1 ff ff 	mov    -0xec0(%rbp),%rax
    b95d:	0f b6 00             	movzbl (%rax),%eax
    b960:	8d 50 ff             	lea    -0x1(%rax),%edx
    b963:	48 8b 85 40 f1 ff ff 	mov    -0xec0(%rbp),%rax
    b96a:	88 10                	mov    %dl,(%rax)
    b96c:	48 8b 85 40 f1 ff ff 	mov    -0xec0(%rbp),%rax
    b973:	0f b6 00             	movzbl (%rax),%eax
    b976:	84 c0                	test   %al,%al
    b978:	74 0c                	je     b986 <func_6+0x1fc5>
    b97a:	c7 85 a4 ef ff ff 01 	movl   $0x1,-0x105c(%rbp)
    b981:	00 00 00 
    b984:	eb 0a                	jmp    b990 <func_6+0x1fcf>
    b986:	c7 85 a4 ef ff ff 00 	movl   $0x0,-0x105c(%rbp)
    b98d:	00 00 00 
    b990:	8b 85 d8 f2 ff ff    	mov    -0xd28(%rbp),%eax
    b996:	44 0f b6 e8          	movzbl %al,%r13d
    b99a:	44 8b b5 34 f0 ff ff 	mov    -0xfcc(%rbp),%r14d
    b9a1:	48 8b 85 b0 ef ff ff 	mov    -0x1050(%rbp),%rax
    b9a8:	0f be d0             	movsbl %al,%edx
    b9ab:	8b 85 44 f0 ff ff    	mov    -0xfbc(%rbp),%eax
    b9b1:	0f be c0             	movsbl %al,%eax
    b9b4:	89 d6                	mov    %edx,%esi
    b9b6:	89 c7                	mov    %eax,%edi
    b9b8:	e8 ad c8 ff ff       	callq  826a <safe_div_func_int8_t_s_s>
    b9bd:	0f be d0             	movsbl %al,%edx
    b9c0:	8b 85 40 f0 ff ff    	mov    -0xfc0(%rbp),%eax
    b9c6:	0f be c0             	movsbl %al,%eax
    b9c9:	89 d6                	mov    %edx,%esi
    b9cb:	89 c7                	mov    %eax,%edi
    b9cd:	e8 40 c8 ff ff       	callq  8212 <safe_mul_func_int8_t_s_s>
    b9d2:	0f b6 c0             	movzbl %al,%eax
    b9d5:	44 89 f6             	mov    %r14d,%esi
    b9d8:	89 c7                	mov    %eax,%edi
    b9da:	e8 df d2 ff ff       	callq  8cbe <safe_rshift_func_uint8_t_u_u>
    b9df:	0f b6 c0             	movzbl %al,%eax
    b9e2:	44 89 ee             	mov    %r13d,%esi
    b9e5:	89 c7                	mov    %eax,%edi
    b9e7:	e8 a7 d1 ff ff       	callq  8b93 <safe_mul_func_uint8_t_u_u>
    b9ec:	0f b6 c0             	movzbl %al,%eax
    b9ef:	39 85 a4 ef ff ff    	cmp    %eax,-0x105c(%rbp)
    b9f5:	0f 9d c0             	setge  %al
    b9f8:	0f b6 c0             	movzbl %al,%eax
    b9fb:	44 89 e6             	mov    %r12d,%esi
    b9fe:	89 c7                	mov    %eax,%edi
    ba00:	e8 f0 c9 ff ff       	callq  83f5 <safe_mul_func_int16_t_s_s>
    ba05:	48 0f bf c0          	movswq %ax,%rax
    ba09:	48 89 de             	mov    %rbx,%rsi
    ba0c:	48 89 c7             	mov    %rax,%rdi
    ba0f:	e8 a0 cf ff ff       	callq  89b4 <safe_mod_func_int64_t_s_s>
    ba14:	48 85 c0             	test   %rax,%rax
    ba17:	75 0d                	jne    ba26 <func_6+0x2065>
    ba19:	48 8b 05 d8 a0 01 00 	mov    0x1a0d8(%rip),%rax        # 25af8 <g_764>
    ba20:	8b 00                	mov    (%rax),%eax
    ba22:	85 c0                	test   %eax,%eax
    ba24:	74 07                	je     ba2d <func_6+0x206c>
    ba26:	b8 01 00 00 00       	mov    $0x1,%eax
    ba2b:	eb 05                	jmp    ba32 <func_6+0x2071>
    ba2d:	b8 00 00 00 00       	mov    $0x0,%eax
    ba32:	0f b7 c0             	movzwl %ax,%eax
    ba35:	be 77 d2 00 00       	mov    $0xd277,%esi
    ba3a:	89 c7                	mov    %eax,%edi
    ba3c:	e8 fc d2 ff ff       	callq  8d3d <safe_mul_func_uint16_t_u_u>
    ba41:	0f b7 d0             	movzwl %ax,%edx
    ba44:	48 8d 05 85 a5 01 00 	lea    0x1a585(%rip),%rax        # 25fd0 <g_1411>
    ba4b:	48 8b 00             	mov    (%rax),%rax
    ba4e:	48 8b 00             	mov    (%rax),%rax
    ba51:	48 8b 00             	mov    (%rax),%rax
    ba54:	48 8b 00             	mov    (%rax),%rax
    ba57:	48 8b 00             	mov    (%rax),%rax
    ba5a:	48 39 c2             	cmp    %rax,%rdx
    ba5d:	75 0b                	jne    ba6a <func_6+0x20a9>
    ba5f:	0f b6 05 ea 76 01 00 	movzbl 0x176ea(%rip),%eax        # 23150 <g_481+0x30>
    ba66:	84 c0                	test   %al,%al
    ba68:	74 07                	je     ba71 <func_6+0x20b0>
    ba6a:	b8 01 00 00 00       	mov    $0x1,%eax
    ba6f:	eb 05                	jmp    ba76 <func_6+0x20b5>
    ba71:	b8 00 00 00 00       	mov    $0x0,%eax
    ba76:	89 c2                	mov    %eax,%edx
    ba78:	8b 85 30 f0 ff ff    	mov    -0xfd0(%rbp),%eax
    ba7e:	09 c2                	or     %eax,%edx
    ba80:	48 8b 05 29 98 01 00 	mov    0x19829(%rip),%rax        # 252b0 <g_432>
    ba87:	83 f2 1f             	xor    $0x1f,%edx
    ba8a:	88 10                	mov    %dl,(%rax)
    ba8c:	0f b6 00             	movzbl (%rax),%eax
    ba8f:	0f be c0             	movsbl %al,%eax
    ba92:	44 89 fe             	mov    %r15d,%esi
    ba95:	89 c7                	mov    %eax,%edi
    ba97:	e8 05 c8 ff ff       	callq  82a1 <safe_lshift_func_int8_t_s_s>
    ba9c:	84 c0                	test   %al,%al
    ba9e:	74 07                	je     baa7 <func_6+0x20e6>
    baa0:	b8 01 00 00 00       	mov    $0x1,%eax
    baa5:	eb 05                	jmp    baac <func_6+0x20eb>
    baa7:	b8 00 00 00 00       	mov    $0x0,%eax
    baac:	89 85 dc ef ff ff    	mov    %eax,-0x1024(%rbp)
    bab2:	48 83 bd b0 f0 ff ff 	cmpq   $0x0,-0xf50(%rbp)
    bab9:	00 
    baba:	0f 95 c0             	setne  %al
    babd:	0f b6 d0             	movzbl %al,%edx
    bac0:	0f be 85 ce ef ff ff 	movsbl -0x1032(%rbp),%eax
    bac7:	39 c2                	cmp    %eax,%edx
    bac9:	0f 94 c0             	sete   %al
    bacc:	0f b6 d8             	movzbl %al,%ebx
    bacf:	48 8b 05 3a a0 01 00 	mov    0x1a03a(%rip),%rax        # 25b10 <g_1241>
    bad6:	48 8b 00             	mov    (%rax),%rax
    bad9:	48 8b 95 a8 ef ff ff 	mov    -0x1058(%rbp),%rdx
    bae0:	89 10                	mov    %edx,(%rax)
    bae2:	8b 00                	mov    (%rax),%eax
    bae4:	41 89 c4             	mov    %eax,%r12d
    bae7:	8b 85 b8 ef ff ff    	mov    -0x1048(%rbp),%eax
    baed:	3d ac 76 00 00       	cmp    $0x76ac,%eax
    baf2:	0f 94 c0             	sete   %al
    baf5:	0f b6 c0             	movzbl %al,%eax
    baf8:	be 02 00 00 00       	mov    $0x2,%esi
    bafd:	89 c7                	mov    %eax,%edi
    baff:	e8 44 d3 ff ff       	callq  8e48 <safe_rshift_func_uint16_t_u_s>
    bb04:	44 31 e0             	xor    %r12d,%eax
    bb07:	0f b7 c0             	movzwl %ax,%eax
    bb0a:	89 de                	mov    %ebx,%esi
    bb0c:	89 c7                	mov    %eax,%edi
    bb0e:	e8 0c d2 ff ff       	callq  8d1f <safe_sub_func_uint16_t_u_u>
    bb13:	66 85 c0             	test   %ax,%ax
    bb16:	8b 85 bc ef ff ff    	mov    -0x1044(%rbp),%eax
    bb1c:	48 98                	cltq   
    bb1e:	48 0b 85 b0 ef ff ff 	or     -0x1050(%rbp),%rax
    bb25:	48 ba 0f d3 46 2d a6 	movabs $0x5bdf1aa62d46d30f,%rdx
    bb2c:	1a df 5b 
    bb2f:	48 39 d0             	cmp    %rdx,%rax
    bb32:	0f 9f c2             	setg   %dl
    bb35:	48 8b 05 b4 8f 01 00 	mov    0x18fb4(%rip),%rax        # 24af0 <g_101>
    bb3c:	0f b6 d2             	movzbl %dl,%edx
    bb3f:	89 10                	mov    %edx,(%rax)
    bb41:	e9 2f 02 00 00       	jmpq   bd75 <func_6+0x23b4>
    bb46:	c7 85 08 f0 ff ff 45 	movl   $0x5e148245,-0xff8(%rbp)
    bb4d:	82 14 5e 
    bb50:	c7 85 50 f0 ff ff 82 	movl   $0x7a78fe82,-0xfb0(%rbp)
    bb57:	fe 78 7a 
    bb5a:	c7 85 78 f0 ff ff 00 	movl   $0x0,-0xf88(%rbp)
    bb61:	00 00 00 
    bb64:	c7 85 a0 f5 ff ff 01 	movl   $0x1,-0xa60(%rbp)
    bb6b:	00 00 00 
    bb6e:	c7 85 a4 f5 ff ff 00 	movl   $0x0,-0xa5c(%rbp)
    bb75:	00 00 00 
    bb78:	c7 85 a8 f5 ff ff 01 	movl   $0x1,-0xa58(%rbp)
    bb7f:	00 00 00 
    bb82:	c7 85 ac f5 ff ff c4 	movl   $0x95df1cc4,-0xa54(%rbp)
    bb89:	1c df 95 
    bb8c:	c7 85 b0 f5 ff ff ec 	movl   $0x20ece5ec,-0xa50(%rbp)
    bb93:	e5 ec 20 
    bb96:	c7 85 b4 f5 ff ff ec 	movl   $0x20ece5ec,-0xa4c(%rbp)
    bb9d:	e5 ec 20 
    bba0:	c7 85 b8 f5 ff ff c4 	movl   $0x95df1cc4,-0xa48(%rbp)
    bba7:	1c df 95 
    bbaa:	c7 85 bc f5 ff ff 01 	movl   $0x1,-0xa44(%rbp)
    bbb1:	00 00 00 
    bbb4:	c7 85 c0 f5 ff ff 00 	movl   $0x0,-0xa40(%rbp)
    bbbb:	00 00 00 
    bbbe:	c7 85 c4 f5 ff ff 01 	movl   $0x1,-0xa3c(%rbp)
    bbc5:	00 00 00 
    bbc8:	c7 85 c8 f5 ff ff c4 	movl   $0x95df1cc4,-0xa38(%rbp)
    bbcf:	1c df 95 
    bbd2:	c7 85 cc f5 ff ff ec 	movl   $0x20ece5ec,-0xa34(%rbp)
    bbd9:	e5 ec 20 
    bbdc:	c7 85 d0 f5 ff ff ec 	movl   $0x20ece5ec,-0xa30(%rbp)
    bbe3:	e5 ec 20 
    bbe6:	c7 85 d4 f5 ff ff c4 	movl   $0x95df1cc4,-0xa2c(%rbp)
    bbed:	1c df 95 
    bbf0:	8b 85 88 f3 ff ff    	mov    -0xc78(%rbp),%eax
    bbf6:	85 c0                	test   %eax,%eax
    bbf8:	74 6b                	je     bc65 <func_6+0x22a4>
    bbfa:	48 8d 85 dc ef ff ff 	lea    -0x1024(%rbp),%rax
    bc01:	48 89 85 30 f1 ff ff 	mov    %rax,-0xed0(%rbp)
    bc08:	48 8d 85 e8 ef ff ff 	lea    -0x1018(%rbp),%rax
    bc0f:	48 89 85 38 f1 ff ff 	mov    %rax,-0xec8(%rbp)
    bc16:	48 c7 85 e0 f7 ff ff 	movq   $0x0,-0x820(%rbp)
    bc1d:	00 00 00 00 
    bc21:	48 c7 85 e8 f7 ff ff 	movq   $0x0,-0x818(%rbp)
    bc28:	00 00 00 00 
    bc2c:	48 c7 85 f0 f7 ff ff 	movq   $0x0,-0x810(%rbp)
    bc33:	00 00 00 00 
    bc37:	48 c7 85 f8 f7 ff ff 	movq   $0x0,-0x808(%rbp)
    bc3e:	00 00 00 00 
    bc42:	48 c7 85 00 f8 ff ff 	movq   $0x0,-0x800(%rbp)
    bc49:	00 00 00 00 
    bc4d:	48 c7 85 08 f8 ff ff 	movq   $0x0,-0x7f8(%rbp)
    bc54:	00 00 00 00 
    bc58:	48 83 ad 90 f0 ff ff 	subq   $0x1,-0xf70(%rbp)
    bc5f:	01 
    bc60:	e9 10 01 00 00       	jmpq   bd75 <func_6+0x23b4>
    bc65:	48 8d 85 40 f2 ff ff 	lea    -0xdc0(%rbp),%rax
    bc6c:	48 89 85 08 f1 ff ff 	mov    %rax,-0xef8(%rbp)
    bc73:	48 8d 85 04 f0 ff ff 	lea    -0xffc(%rbp),%rax
    bc7a:	48 89 85 10 f1 ff ff 	mov    %rax,-0xef0(%rbp)
    bc81:	48 8d 85 08 f0 ff ff 	lea    -0xff8(%rbp),%rax
    bc88:	48 89 85 18 f1 ff ff 	mov    %rax,-0xee8(%rbp)
    bc8f:	48 8d 85 00 f0 ff ff 	lea    -0x1000(%rbp),%rax
    bc96:	48 89 85 20 f1 ff ff 	mov    %rax,-0xee0(%rbp)
    bc9d:	48 8d 85 f8 ef ff ff 	lea    -0x1008(%rbp),%rax
    bca4:	48 89 85 28 f1 ff ff 	mov    %rax,-0xed8(%rbp)
    bcab:	48 8d 85 78 f0 ff ff 	lea    -0xf88(%rbp),%rax
    bcb2:	48 89 85 e0 f7 ff ff 	mov    %rax,-0x820(%rbp)
    bcb9:	48 8d 85 78 f0 ff ff 	lea    -0xf88(%rbp),%rax
    bcc0:	48 89 85 e8 f7 ff ff 	mov    %rax,-0x818(%rbp)
    bcc7:	48 8d 85 78 f0 ff ff 	lea    -0xf88(%rbp),%rax
    bcce:	48 89 85 f0 f7 ff ff 	mov    %rax,-0x810(%rbp)
    bcd5:	48 8d 85 fc ef ff ff 	lea    -0x1004(%rbp),%rax
    bcdc:	48 89 85 f8 f7 ff ff 	mov    %rax,-0x808(%rbp)
    bce3:	48 8d 85 80 f4 ff ff 	lea    -0xb80(%rbp),%rax
    bcea:	48 83 c0 58          	add    $0x58,%rax
    bcee:	48 89 85 00 f8 ff ff 	mov    %rax,-0x800(%rbp)
    bcf5:	48 8d 85 50 f3 ff ff 	lea    -0xcb0(%rbp),%rax
    bcfc:	48 83 c0 48          	add    $0x48,%rax
    bd00:	48 89 85 08 f8 ff ff 	mov    %rax,-0x7f8(%rbp)
    bd07:	48 8d 85 fc ef ff ff 	lea    -0x1004(%rbp),%rax
    bd0e:	48 89 85 10 f8 ff ff 	mov    %rax,-0x7f0(%rbp)
    bd15:	48 8d 85 50 f3 ff ff 	lea    -0xcb0(%rbp),%rax
    bd1c:	48 83 c0 48          	add    $0x48,%rax
    bd20:	48 89 85 18 f8 ff ff 	mov    %rax,-0x7e8(%rbp)
    bd27:	48 8d 85 80 f4 ff ff 	lea    -0xb80(%rbp),%rax
    bd2e:	48 83 c0 58          	add    $0x58,%rax
    bd32:	48 89 85 20 f8 ff ff 	mov    %rax,-0x7e0(%rbp)
    bd39:	48 8d 85 fc ef ff ff 	lea    -0x1004(%rbp),%rax
    bd40:	48 89 85 28 f8 ff ff 	mov    %rax,-0x7d8(%rbp)
    bd47:	48 8d 85 78 f0 ff ff 	lea    -0xf88(%rbp),%rax
    bd4e:	48 89 85 30 f8 ff ff 	mov    %rax,-0x7d0(%rbp)
    bd55:	48 8d 85 78 f0 ff ff 	lea    -0xf88(%rbp),%rax
    bd5c:	48 89 85 38 f8 ff ff 	mov    %rax,-0x7c8(%rbp)
    bd63:	c7 85 54 f0 ff ff 3c 	movl   $0xb2b0423c,-0xfac(%rbp)
    bd6a:	42 b0 b2 
    bd6d:	66 83 ad d2 ef ff ff 	subw   $0x1,-0x102e(%rbp)
    bd74:	01 
    bd75:	0f b6 05 8c 76 01 00 	movzbl 0x1768c(%rip),%eax        # 23408 <g_1244>
    bd7c:	84 c0                	test   %al,%al
    bd7e:	74 05                	je     bd85 <func_6+0x23c4>
    bd80:	e9 0c e0 ff ff       	jmpq   9d91 <func_6+0x3d0>
    bd85:	48 c7 85 98 f0 ff ff 	movq   $0x0,-0xf68(%rbp)
    bd8c:	00 00 00 00 
    bd90:	e9 26 01 00 00       	jmpq   bebb <func_6+0x24fa>
    bd95:	c6 85 cf ef ff ff f8 	movb   $0xf8,-0x1031(%rbp)
    bd9c:	48 8d 05 dd a8 01 00 	lea    0x1a8dd(%rip),%rax        # 26680 <g_1459>
    bda3:	48 89 85 a0 f1 ff ff 	mov    %rax,-0xe60(%rbp)
    bdaa:	48 8b 05 4f 8d 01 00 	mov    0x18d4f(%rip),%rax        # 24b00 <g_135>
    bdb1:	48 8d 95 50 f3 ff ff 	lea    -0xcb0(%rbp),%rdx
    bdb8:	48 83 c2 14          	add    $0x14,%rdx
    bdbc:	48 89 10             	mov    %rdx,(%rax)
    bdbf:	48 8b 05 82 a2 01 00 	mov    0x1a282(%rip),%rax        # 26048 <g_1933>
    bdc6:	48 8b 00             	mov    (%rax),%rax
    bdc9:	8b 85 b8 ef ff ff    	mov    -0x1048(%rbp),%eax
    bdcf:	0f b6 d8             	movzbl %al,%ebx
    bdd2:	0f b6 95 cf ef ff ff 	movzbl -0x1031(%rbp),%edx
    bdd9:	48 8b 85 b0 f0 ff ff 	mov    -0xf50(%rbp),%rax
    bde0:	66 89 10             	mov    %dx,(%rax)
    bde3:	48 8b 85 b0 f0 ff ff 	mov    -0xf50(%rbp),%rax
    bdea:	44 0f b7 20          	movzwl (%rax),%r12d
    bdee:	48 8b 85 a0 f1 ff ff 	mov    -0xe60(%rbp),%rax
    bdf5:	0f b6 00             	movzbl (%rax),%eax
    bdf8:	8d 50 01             	lea    0x1(%rax),%edx
    bdfb:	48 8b 85 a0 f1 ff ff 	mov    -0xe60(%rbp),%rax
    be02:	88 10                	mov    %dl,(%rax)
    be04:	48 8b 05 cd a1 01 00 	mov    0x1a1cd(%rip),%rax        # 25fd8 <g_1469>
    be0b:	48 8b 00             	mov    (%rax),%rax
    be0e:	0f b6 00             	movzbl (%rax),%eax
    be11:	48 8b 95 b0 ef ff ff 	mov    -0x1050(%rbp),%rdx
    be18:	48 89 d1             	mov    %rdx,%rcx
    be1b:	83 e1 01             	and    $0x1,%ecx
    be1e:	8b 95 38 f0 ff ff    	mov    -0xfc8(%rbp),%edx
    be24:	48 63 d2             	movslq %edx,%rdx
    be27:	48 39 d1             	cmp    %rdx,%rcx
    be2a:	0f 9f c2             	setg   %dl
    be2d:	21 d0                	and    %edx,%eax
    be2f:	0f be d0             	movsbl %al,%edx
    be32:	8b 85 dc ef ff ff    	mov    -0x1024(%rbp),%eax
    be38:	89 c1                	mov    %eax,%ecx
    be3a:	0f b6 85 cb ef ff ff 	movzbl -0x1035(%rbp),%eax
    be41:	21 c8                	and    %ecx,%eax
    be43:	83 e0 8b             	and    $0xffffff8b,%eax
    be46:	0f be c0             	movsbl %al,%eax
    be49:	89 d6                	mov    %edx,%esi
    be4b:	89 c7                	mov    %eax,%edi
    be4d:	e8 82 c3 ff ff       	callq  81d4 <safe_add_func_int8_t_s_s>
    be52:	66 98                	cbtw   
    be54:	66 41 39 c4          	cmp    %ax,%r12w
    be58:	0f 95 c0             	setne  %al
    be5b:	0f b6 c0             	movzbl %al,%eax
    be5e:	be 0c cf ff ff       	mov    $0xffffcf0c,%esi
    be63:	89 c7                	mov    %eax,%edi
    be65:	e8 ac c5 ff ff       	callq  8416 <safe_mod_func_int16_t_s_s>
    be6a:	89 c2                	mov    %eax,%edx
    be6c:	8b 85 f4 ef ff ff    	mov    -0x100c(%rbp),%eax
    be72:	09 d0                	or     %edx,%eax
    be74:	0f b6 c0             	movzbl %al,%eax
    be77:	89 de                	mov    %ebx,%esi
    be79:	89 c7                	mov    %eax,%edi
    be7b:	e8 13 cd ff ff       	callq  8b93 <safe_mul_func_uint8_t_u_u>
    be80:	84 c0                	test   %al,%al
    be82:	74 08                	je     be8c <func_6+0x24cb>
    be84:	8b 85 b8 ef ff ff    	mov    -0x1048(%rbp),%eax
    be8a:	85 c0                	test   %eax,%eax
    be8c:	ba 00 00 00 00       	mov    $0x0,%edx
    be91:	8b 85 88 f3 ff ff    	mov    -0xc78(%rbp),%eax
    be97:	09 d0                	or     %edx,%eax
    be99:	89 85 88 f3 ff ff    	mov    %eax,-0xc78(%rbp)
    be9f:	48 8b 85 98 f0 ff ff 	mov    -0xf68(%rbp),%rax
    bea6:	be 09 00 00 00       	mov    $0x9,%esi
    beab:	89 c7                	mov    %eax,%edi
    bead:	e8 04 c7 ff ff       	callq  85b6 <safe_add_func_int32_t_s_s>
    beb2:	48 98                	cltq   
    beb4:	48 89 85 98 f0 ff ff 	mov    %rax,-0xf68(%rbp)
    bebb:	48 83 bd 98 f0 ff ff 	cmpq   $0x1a,-0xf68(%rbp)
    bec2:	1a 
    bec3:	0f 84 cc fe ff ff    	je     bd95 <func_6+0x23d4>
    bec9:	eb 07                	jmp    bed2 <func_6+0x2511>
    becb:	83 ad 0c f0 ff ff 01 	subl   $0x1,-0xff4(%rbp)
    bed2:	8b 85 e4 ef ff ff    	mov    -0x101c(%rbp),%eax
    bed8:	89 85 88 f5 ff ff    	mov    %eax,-0xa78(%rbp)
    bede:	8b 85 88 f5 ff ff    	mov    -0xa78(%rbp),%eax
    bee4:	85 c0                	test   %eax,%eax
    bee6:	74 07                	je     beef <func_6+0x252e>
    bee8:	b8 01 00 00 00       	mov    $0x1,%eax
    beed:	eb 05                	jmp    bef4 <func_6+0x2533>
    beef:	b8 00 00 00 00       	mov    $0x0,%eax
    bef4:	0f be c0             	movsbl %al,%eax
    bef7:	be 06 00 00 00       	mov    $0x6,%esi
    befc:	89 c7                	mov    %eax,%edi
    befe:	e8 69 c4 ff ff       	callq  836c <safe_rshift_func_int8_t_s_u>
    bf03:	89 c2                	mov    %eax,%edx
    bf05:	48 8b 05 e4 8b 01 00 	mov    0x18be4(%rip),%rax        # 24af0 <g_101>
    bf0c:	0f be d2             	movsbl %dl,%edx
    bf0f:	89 10                	mov    %edx,(%rax)
    bf11:	c7 85 dc ef ff ff 02 	movl   $0x2,-0x1024(%rbp)
    bf18:	00 00 00 
    bf1b:	e9 db 07 00 00       	jmpq   c6fb <func_6+0x2d3a>
    bf20:	c6 85 d0 ef ff ff 74 	movb   $0x74,-0x1030(%rbp)
    bf27:	48 8d 05 f2 9b 01 00 	lea    0x19bf2(%rip),%rax        # 25b20 <g_1269>
    bf2e:	48 89 85 a8 f1 ff ff 	mov    %rax,-0xe58(%rbp)
    bf35:	48 8d 95 a0 f5 ff ff 	lea    -0xa60(%rbp),%rdx
    bf3c:	b8 00 00 00 00       	mov    $0x0,%eax
    bf41:	b9 1b 00 00 00       	mov    $0x1b,%ecx
    bf46:	48 89 d7             	mov    %rdx,%rdi
    bf49:	f3 48 ab             	rep stos %rax,%es:(%rdi)
    bf4c:	48 8d 85 a0 f5 ff ff 	lea    -0xa60(%rbp),%rax
    bf53:	48 05 a8 00 00 00    	add    $0xa8,%rax
    bf59:	48 89 85 b0 f1 ff ff 	mov    %rax,-0xe50(%rbp)
    bf60:	48 8d 05 21 71 01 00 	lea    0x17121(%rip),%rax        # 23088 <g_162>
    bf67:	48 89 85 78 f0 ff ff 	mov    %rax,-0xf88(%rbp)
    bf6e:	48 8d 85 78 f0 ff ff 	lea    -0xf88(%rbp),%rax
    bf75:	48 89 85 b8 f1 ff ff 	mov    %rax,-0xe48(%rbp)
    bf7c:	48 8d 05 bd 71 01 00 	lea    0x171bd(%rip),%rax        # 23140 <g_481+0x20>
    bf83:	48 89 85 c0 f1 ff ff 	mov    %rax,-0xe40(%rbp)
    bf8a:	c7 85 1c f0 ff ff 00 	movl   $0x0,-0xfe4(%rbp)
    bf91:	00 00 00 
    bf94:	eb 6e                	jmp    c004 <func_6+0x2643>
    bf96:	c7 85 20 f0 ff ff 00 	movl   $0x0,-0xfe0(%rbp)
    bf9d:	00 00 00 
    bfa0:	eb 52                	jmp    bff4 <func_6+0x2633>
    bfa2:	c7 85 24 f0 ff ff 00 	movl   $0x0,-0xfdc(%rbp)
    bfa9:	00 00 00 
    bfac:	eb 36                	jmp    bfe4 <func_6+0x2623>
    bfae:	8b 85 24 f0 ff ff    	mov    -0xfdc(%rbp),%eax
    bfb4:	48 98                	cltq   
    bfb6:	8b 95 1c f0 ff ff    	mov    -0xfe4(%rbp),%edx
    bfbc:	48 63 ca             	movslq %edx,%rcx
    bfbf:	8b 95 20 f0 ff ff    	mov    -0xfe0(%rbp),%edx
    bfc5:	48 63 d2             	movslq %edx,%rdx
    bfc8:	48 01 ca             	add    %rcx,%rdx
    bfcb:	48 c1 e2 03          	shl    $0x3,%rdx
    bfcf:	48 01 d0             	add    %rdx,%rax
    bfd2:	c7 84 85 e0 f7 ff ff 	movl   $0xd3c1e511,-0x820(%rbp,%rax,4)
    bfd9:	11 e5 c1 d3 
    bfdd:	83 85 24 f0 ff ff 01 	addl   $0x1,-0xfdc(%rbp)
    bfe4:	83 bd 24 f0 ff ff 07 	cmpl   $0x7,-0xfdc(%rbp)
    bfeb:	7e c1                	jle    bfae <func_6+0x25ed>
    bfed:	83 85 20 f0 ff ff 01 	addl   $0x1,-0xfe0(%rbp)
    bff4:	83 bd 20 f0 ff ff 00 	cmpl   $0x0,-0xfe0(%rbp)
    bffb:	7e a5                	jle    bfa2 <func_6+0x25e1>
    bffd:	83 85 1c f0 ff ff 01 	addl   $0x1,-0xfe4(%rbp)
    c004:	83 bd 1c f0 ff ff 08 	cmpl   $0x8,-0xfe4(%rbp)
    c00b:	7e 89                	jle    bf96 <func_6+0x25d5>
    c00d:	c7 05 91 71 01 00 03 	movl   $0x3,0x17191(%rip)        # 231a8 <g_635>
    c014:	00 00 00 
    c017:	e9 5c 05 00 00       	jmpq   c578 <func_6+0x2bb7>
    c01c:	66 c7 85 08 f0 ff ff 	movw   $0xfffa,-0xff8(%rbp)
    c023:	fa ff 
    c025:	48 c7 85 d0 f1 ff ff 	movq   $0x0,-0xe30(%rbp)
    c02c:	00 00 00 00 
    c030:	48 8d 85 08 f0 ff ff 	lea    -0xff8(%rbp),%rax
    c037:	48 89 85 d0 f3 ff ff 	mov    %rax,-0xc30(%rbp)
    c03e:	48 8d 85 08 f0 ff ff 	lea    -0xff8(%rbp),%rax
    c045:	48 89 85 d8 f3 ff ff 	mov    %rax,-0xc28(%rbp)
    c04c:	48 8d 05 35 70 01 00 	lea    0x17035(%rip),%rax        # 23088 <g_162>
    c053:	48 89 85 e0 f3 ff ff 	mov    %rax,-0xc20(%rbp)
    c05a:	48 8d 85 08 f0 ff ff 	lea    -0xff8(%rbp),%rax
    c061:	48 89 85 e8 f3 ff ff 	mov    %rax,-0xc18(%rbp)
    c068:	48 8d 85 08 f0 ff ff 	lea    -0xff8(%rbp),%rax
    c06f:	48 89 85 f0 f3 ff ff 	mov    %rax,-0xc10(%rbp)
    c076:	48 8d 05 0b 70 01 00 	lea    0x1700b(%rip),%rax        # 23088 <g_162>
    c07d:	48 89 85 f8 f3 ff ff 	mov    %rax,-0xc08(%rbp)
    c084:	48 8d 85 08 f0 ff ff 	lea    -0xff8(%rbp),%rax
    c08b:	48 89 85 00 f4 ff ff 	mov    %rax,-0xc00(%rbp)
    c092:	48 8d 85 08 f0 ff ff 	lea    -0xff8(%rbp),%rax
    c099:	48 89 85 08 f4 ff ff 	mov    %rax,-0xbf8(%rbp)
    c0a0:	48 8d 05 e1 6f 01 00 	lea    0x16fe1(%rip),%rax        # 23088 <g_162>
    c0a7:	48 89 85 10 f4 ff ff 	mov    %rax,-0xbf0(%rbp)
    c0ae:	48 8d 85 08 f0 ff ff 	lea    -0xff8(%rbp),%rax
    c0b5:	48 89 85 18 f4 ff ff 	mov    %rax,-0xbe8(%rbp)
    c0bc:	48 8d 85 08 f0 ff ff 	lea    -0xff8(%rbp),%rax
    c0c3:	48 89 85 20 f4 ff ff 	mov    %rax,-0xbe0(%rbp)
    c0ca:	48 8d 05 b7 6f 01 00 	lea    0x16fb7(%rip),%rax        # 23088 <g_162>
    c0d1:	48 89 85 28 f4 ff ff 	mov    %rax,-0xbd8(%rbp)
    c0d8:	48 8d 85 08 f0 ff ff 	lea    -0xff8(%rbp),%rax
    c0df:	48 89 85 30 f4 ff ff 	mov    %rax,-0xbd0(%rbp)
    c0e6:	48 8d 85 08 f0 ff ff 	lea    -0xff8(%rbp),%rax
    c0ed:	48 89 85 38 f4 ff ff 	mov    %rax,-0xbc8(%rbp)
    c0f4:	48 8d 05 8d 6f 01 00 	lea    0x16f8d(%rip),%rax        # 23088 <g_162>
    c0fb:	48 89 85 40 f4 ff ff 	mov    %rax,-0xbc0(%rbp)
    c102:	48 8d 85 08 f0 ff ff 	lea    -0xff8(%rbp),%rax
    c109:	48 89 85 48 f4 ff ff 	mov    %rax,-0xbb8(%rbp)
    c110:	48 8d 85 08 f0 ff ff 	lea    -0xff8(%rbp),%rax
    c117:	48 89 85 50 f4 ff ff 	mov    %rax,-0xbb0(%rbp)
    c11e:	48 8d 05 63 6f 01 00 	lea    0x16f63(%rip),%rax        # 23088 <g_162>
    c125:	48 89 85 58 f4 ff ff 	mov    %rax,-0xba8(%rbp)
    c12c:	48 8d 85 08 f0 ff ff 	lea    -0xff8(%rbp),%rax
    c133:	48 89 85 60 f4 ff ff 	mov    %rax,-0xba0(%rbp)
    c13a:	48 8d 85 08 f0 ff ff 	lea    -0xff8(%rbp),%rax
    c141:	48 89 85 68 f4 ff ff 	mov    %rax,-0xb98(%rbp)
    c148:	48 8d 05 39 6f 01 00 	lea    0x16f39(%rip),%rax        # 23088 <g_162>
    c14f:	48 89 85 70 f4 ff ff 	mov    %rax,-0xb90(%rbp)
    c156:	c7 85 40 f2 ff ff fb 	movl   $0xde4c37fb,-0xdc0(%rbp)
    c15d:	37 4c de 
    c160:	c7 85 44 f2 ff ff fb 	movl   $0xde4c37fb,-0xdbc(%rbp)
    c167:	37 4c de 
    c16a:	c7 85 48 f2 ff ff fb 	movl   $0xde4c37fb,-0xdb8(%rbp)
    c171:	37 4c de 
    c174:	c7 85 4c f2 ff ff fb 	movl   $0xde4c37fb,-0xdb4(%rbp)
    c17b:	37 4c de 
    c17e:	c7 85 50 f2 ff ff fb 	movl   $0xde4c37fb,-0xdb0(%rbp)
    c185:	37 4c de 
    c188:	c7 85 54 f2 ff ff fb 	movl   $0xde4c37fb,-0xdac(%rbp)
    c18f:	37 4c de 
    c192:	c7 85 58 f2 ff ff fb 	movl   $0xde4c37fb,-0xda8(%rbp)
    c199:	37 4c de 
    c19c:	c7 85 5c f2 ff ff fb 	movl   $0xde4c37fb,-0xda4(%rbp)
    c1a3:	37 4c de 
    c1a6:	c7 85 60 f2 ff ff fb 	movl   $0xde4c37fb,-0xda0(%rbp)
    c1ad:	37 4c de 
    c1b0:	48 c7 85 d8 f1 ff ff 	movq   $0x0,-0xe28(%rbp)
    c1b7:	00 00 00 00 
    c1bb:	48 8d 85 e8 ef ff ff 	lea    -0x1018(%rbp),%rax
    c1c2:	48 89 85 e0 f1 ff ff 	mov    %rax,-0xe20(%rbp)
    c1c9:	48 c7 85 80 f0 ff ff 	movq   $0x0,-0xf80(%rbp)
    c1d0:	00 00 00 00 
    c1d4:	48 8d 85 80 f0 ff ff 	lea    -0xf80(%rbp),%rax
    c1db:	48 89 85 a0 f2 ff ff 	mov    %rax,-0xd60(%rbp)
    c1e2:	48 8d 85 80 f0 ff ff 	lea    -0xf80(%rbp),%rax
    c1e9:	48 89 85 a8 f2 ff ff 	mov    %rax,-0xd58(%rbp)
    c1f0:	48 8d 85 80 f0 ff ff 	lea    -0xf80(%rbp),%rax
    c1f7:	48 89 85 b0 f2 ff ff 	mov    %rax,-0xd50(%rbp)
    c1fe:	48 8d 85 80 f0 ff ff 	lea    -0xf80(%rbp),%rax
    c205:	48 89 85 b8 f2 ff ff 	mov    %rax,-0xd48(%rbp)
    c20c:	48 8d 85 80 f0 ff ff 	lea    -0xf80(%rbp),%rax
    c213:	48 89 85 c0 f2 ff ff 	mov    %rax,-0xd40(%rbp)
    c21a:	48 8d 85 a0 f2 ff ff 	lea    -0xd60(%rbp),%rax
    c221:	48 83 c0 08          	add    $0x8,%rax
    c225:	48 89 85 e8 f1 ff ff 	mov    %rax,-0xe18(%rbp)
    c22c:	48 8d 05 a5 71 01 00 	lea    0x171a5(%rip),%rax        # 233d8 <g_1182>
    c233:	48 89 85 88 f0 ff ff 	mov    %rax,-0xf78(%rbp)
    c23a:	48 8d 85 88 f0 ff ff 	lea    -0xf78(%rbp),%rax
    c241:	48 89 85 f0 f1 ff ff 	mov    %rax,-0xe10(%rbp)
    c248:	48 8d 85 28 f2 ff ff 	lea    -0xdd8(%rbp),%rax
    c24f:	48 89 85 f8 f1 ff ff 	mov    %rax,-0xe08(%rbp)
    c256:	48 c7 85 00 f2 ff ff 	movq   $0x0,-0xe00(%rbp)
    c25d:	00 00 00 00 
    c261:	48 c7 85 d0 f2 ff ff 	movq   $0x0,-0xd30(%rbp)
    c268:	00 00 00 00 
    c26c:	48 8d 05 3d 1e 01 00 	lea    0x11e3d(%rip),%rax        # 1e0b0 <g_2423>
    c273:	48 89 85 d8 f2 ff ff 	mov    %rax,-0xd28(%rbp)
    c27a:	48 8d 05 2f 1e 01 00 	lea    0x11e2f(%rip),%rax        # 1e0b0 <g_2423>
    c281:	48 89 85 e0 f2 ff ff 	mov    %rax,-0xd20(%rbp)
    c288:	48 c7 85 e8 f2 ff ff 	movq   $0x0,-0xd18(%rbp)
    c28f:	00 00 00 00 
    c293:	48 8d 05 16 1e 01 00 	lea    0x11e16(%rip),%rax        # 1e0b0 <g_2423>
    c29a:	48 89 85 f0 f2 ff ff 	mov    %rax,-0xd10(%rbp)
    c2a1:	48 8d 05 08 1e 01 00 	lea    0x11e08(%rip),%rax        # 1e0b0 <g_2423>
    c2a8:	48 89 85 f8 f2 ff ff 	mov    %rax,-0xd08(%rbp)
    c2af:	48 8d 85 d0 f2 ff ff 	lea    -0xd30(%rbp),%rax
    c2b6:	48 83 c0 18          	add    $0x18,%rax
    c2ba:	48 89 85 08 f2 ff ff 	mov    %rax,-0xdf8(%rbp)
    c2c1:	c7 85 28 f0 ff ff 00 	movl   $0x0,-0xfd8(%rbp)
    c2c8:	00 00 00 
    c2cb:	eb 1b                	jmp    c2e8 <func_6+0x2927>
    c2cd:	8b 85 28 f0 ff ff    	mov    -0xfd8(%rbp),%eax
    c2d3:	48 98                	cltq   
    c2d5:	48 c7 84 c5 28 f2 ff 	movq   $0x0,-0xdd8(%rbp,%rax,8)
    c2dc:	ff 00 00 00 00 
    c2e1:	83 85 28 f0 ff ff 01 	addl   $0x1,-0xfd8(%rbp)
    c2e8:	83 bd 28 f0 ff ff 00 	cmpl   $0x0,-0xfd8(%rbp)
    c2ef:	7e dc                	jle    c2cd <func_6+0x290c>
    c2f1:	0f b7 85 08 f0 ff ff 	movzwl -0xff8(%rbp),%eax
    c2f8:	83 e8 01             	sub    $0x1,%eax
    c2fb:	66 89 85 08 f0 ff ff 	mov    %ax,-0xff8(%rbp)
    c302:	48 8b 85 b0 ef ff ff 	mov    -0x1050(%rbp),%rax
    c309:	0f b7 d8             	movzwl %ax,%ebx
    c30c:	8b 85 34 f0 ff ff    	mov    -0xfcc(%rbp),%eax
    c312:	44 0f bf e0          	movswl %ax,%r12d
    c316:	48 83 bd b0 f1 ff ff 	cmpq   $0x0,-0xe50(%rbp)
    c31d:	00 
    c31e:	0f 85 e8 00 00 00    	jne    c40c <func_6+0x2a4b>
    c324:	48 8b 05 8d 71 01 00 	mov    0x1718d(%rip),%rax        # 234b8 <g_2398>
    c32b:	44 8b 2d 0e 6d 01 00 	mov    0x16d0e(%rip),%r13d        # 23040 <g_85>
    c332:	48 8b 05 97 9c 01 00 	mov    0x19c97(%rip),%rax        # 25fd0 <g_1411>
    c339:	48 8b 00             	mov    (%rax),%rax
    c33c:	48 8b 00             	mov    (%rax),%rax
    c33f:	48 8b 00             	mov    (%rax),%rax
    c342:	48 8b 10             	mov    (%rax),%rdx
    c345:	48 8b 05 a4 87 01 00 	mov    0x187a4(%rip),%rax        # 24af0 <g_101>
    c34c:	48 8b 8d a8 ef ff ff 	mov    -0x1058(%rbp),%rcx
    c353:	89 08                	mov    %ecx,(%rax)
    c355:	48 8b 85 b0 ef ff ff 	mov    -0x1050(%rbp),%rax
    c35c:	83 e0 01             	and    $0x1,%eax
    c35f:	89 85 a8 f4 ff ff    	mov    %eax,-0xb58(%rbp)
    c365:	8b 85 a8 f4 ff ff    	mov    -0xb58(%rbp),%eax
    c36b:	48 98                	cltq   
    c36d:	48 89 d6             	mov    %rdx,%rsi
    c370:	48 89 c7             	mov    %rax,%rdi
    c373:	e8 37 cd ff ff       	callq  90af <safe_div_func_uint64_t_u_u>
    c378:	8b 85 dc ef ff ff    	mov    -0x1024(%rbp),%eax
    c37e:	48 98                	cltq   
    c380:	48 8d 14 85 00 00 00 	lea    0x0(,%rax,4),%rdx
    c387:	00 
    c388:	48 8d 05 51 70 01 00 	lea    0x17051(%rip),%rax        # 233e0 <g_1243>
    c38f:	8b 04 02             	mov    (%rdx,%rax,1),%eax
    c392:	89 85 34 f2 ff ff    	mov    %eax,-0xdcc(%rbp)
    c398:	8b 85 34 f2 ff ff    	mov    -0xdcc(%rbp),%eax
    c39e:	0f b7 c0             	movzwl %ax,%eax
    c3a1:	44 89 ee             	mov    %r13d,%esi
    c3a4:	89 c7                	mov    %eax,%edi
    c3a6:	e8 5b ca ff ff       	callq  8e06 <safe_lshift_func_uint16_t_u_u>
    c3ab:	0f b7 d0             	movzwl %ax,%edx
    c3ae:	8b 85 b8 ef ff ff    	mov    -0x1048(%rbp),%eax
    c3b4:	09 d0                	or     %edx,%eax
    c3b6:	be 07 00 00 00       	mov    $0x7,%esi
    c3bb:	89 c7                	mov    %eax,%edi
    c3bd:	e8 3b cb ff ff       	callq  8efd <safe_mod_func_uint32_t_u_u>
    c3c2:	48 8b 15 2f 97 01 00 	mov    0x1972f(%rip),%rdx        # 25af8 <g_764>
    c3c9:	8b 12                	mov    (%rdx),%edx
    c3cb:	39 d0                	cmp    %edx,%eax
    c3cd:	0f 93 c0             	setae  %al
    c3d0:	0f b6 c0             	movzbl %al,%eax
    c3d3:	48 39 85 a8 ef ff ff 	cmp    %rax,-0x1058(%rbp)
    c3da:	0f 96 c0             	setbe  %al
    c3dd:	0f b6 d0             	movzbl %al,%edx
    c3e0:	0f b6 05 79 6d 01 00 	movzbl 0x16d79(%rip),%eax        # 23160 <g_556>
    c3e7:	0f be c0             	movsbl %al,%eax
    c3ea:	39 c2                	cmp    %eax,%edx
    c3ec:	0f 94 c0             	sete   %al
    c3ef:	0f b6 d0             	movzbl %al,%edx
    c3f2:	0f be 85 d0 ef ff ff 	movsbl -0x1030(%rbp),%eax
    c3f9:	39 c2                	cmp    %eax,%edx
    c3fb:	be 04 00 00 00       	mov    $0x4,%esi
    c400:	bf 01 00 00 00       	mov    $0x1,%edi
    c405:	e8 42 c8 ff ff       	callq  8c4c <safe_lshift_func_uint8_t_u_u>
    c40a:	84 c0                	test   %al,%al
    c40c:	ba 01 00 00 00       	mov    $0x1,%edx
    c411:	8b 85 4c f2 ff ff    	mov    -0xdb4(%rbp),%eax
    c417:	09 d0                	or     %edx,%eax
    c419:	89 85 4c f2 ff ff    	mov    %eax,-0xdb4(%rbp)
    c41f:	8b 95 4c f2 ff ff    	mov    -0xdb4(%rbp),%edx
    c425:	0f b7 85 08 f0 ff ff 	movzwl -0xff8(%rbp),%eax
    c42c:	0f b7 c0             	movzwl %ax,%eax
    c42f:	39 c2                	cmp    %eax,%edx
    c431:	0f 9d c0             	setge  %al
    c434:	0f b6 d0             	movzbl %al,%edx
    c437:	0f b7 05 40 6c 01 00 	movzwl 0x16c40(%rip),%eax        # 2307e <g_158+0x1e>
    c43e:	98                   	cwtl   
    c43f:	39 c2                	cmp    %eax,%edx
    c441:	0f 9e c0             	setle  %al
    c444:	0f b6 c0             	movzbl %al,%eax
    c447:	0f b7 95 08 f0 ff ff 	movzwl -0xff8(%rbp),%edx
    c44e:	09 d0                	or     %edx,%eax
    c450:	98                   	cwtl   
    c451:	44 89 e6             	mov    %r12d,%esi
    c454:	89 c7                	mov    %eax,%edi
    c456:	e8 9a bf ff ff       	callq  83f5 <safe_mul_func_int16_t_s_s>
    c45b:	0f be c0             	movsbl %al,%eax
    c45e:	89 c6                	mov    %eax,%esi
    c460:	bf 08 00 00 00       	mov    $0x8,%edi
    c465:	e8 c7 bd ff ff       	callq  8231 <safe_mod_func_int8_t_s_s>
    c46a:	48 8b 05 cf 9a 01 00 	mov    0x19acf(%rip),%rax        # 25f40 <g_1267>
    c471:	48 8b 95 a8 f1 ff ff 	mov    -0xe58(%rbp),%rdx
    c478:	48 89 10             	mov    %rdx,(%rax)
    c47b:	48 8b 00             	mov    (%rax),%rax
    c47e:	48 85 c0             	test   %rax,%rax
    c481:	74 09                	je     c48c <func_6+0x2acb>
    c483:	80 bd d0 ef ff ff 00 	cmpb   $0x0,-0x1030(%rbp)
    c48a:	74 07                	je     c493 <func_6+0x2ad2>
    c48c:	b8 01 00 00 00       	mov    $0x1,%eax
    c491:	eb 05                	jmp    c498 <func_6+0x2ad7>
    c493:	b8 00 00 00 00       	mov    $0x0,%eax
    c498:	0f b7 c0             	movzwl %ax,%eax
    c49b:	89 de                	mov    %ebx,%esi
    c49d:	89 c7                	mov    %eax,%edi
    c49f:	e8 99 c8 ff ff       	callq  8d3d <safe_mul_func_uint16_t_u_u>
    c4a4:	48 8b 95 e0 f1 ff ff 	mov    -0xe20(%rbp),%rdx
    c4ab:	8b 12                	mov    (%rdx),%edx
    c4ad:	0f b7 c0             	movzwl %ax,%eax
    c4b0:	09 c2                	or     %eax,%edx
    c4b2:	48 8b 85 e0 f1 ff ff 	mov    -0xe20(%rbp),%rax
    c4b9:	89 10                	mov    %edx,(%rax)
    c4bb:	48 8b 85 f0 f1 ff ff 	mov    -0xe10(%rbp),%rax
    c4c2:	48 c7 00 00 00 00 00 	movq   $0x0,(%rax)
    c4c9:	48 8b 85 f8 f1 ff ff 	mov    -0xe08(%rbp),%rax
    c4d0:	48 8d 95 b8 ef ff ff 	lea    -0x1048(%rbp),%rdx
    c4d7:	48 89 10             	mov    %rdx,(%rax)
    c4da:	48 8b 85 f8 f1 ff ff 	mov    -0xe08(%rbp),%rax
    c4e1:	48 8b 10             	mov    (%rax),%rdx
    c4e4:	48 8b 85 08 f2 ff ff 	mov    -0xdf8(%rbp),%rax
    c4eb:	48 89 10             	mov    %rdx,(%rax)
    c4ee:	48 83 bd d8 f0 ff ff 	cmpq   $0x0,-0xf28(%rbp)
    c4f5:	00 
    c4f6:	0f 95 c2             	setne  %dl
    c4f9:	48 8b 85 a8 f1 ff ff 	mov    -0xe58(%rbp),%rax
    c500:	48 8b 00             	mov    (%rax),%rax
    c503:	0f b6 d2             	movzbl %dl,%edx
    c506:	48 89 10             	mov    %rdx,(%rax)
    c509:	48 8b 00             	mov    (%rax),%rax
    c50c:	48 89 c1             	mov    %rax,%rcx
    c50f:	0f be 95 d0 ef ff ff 	movsbl -0x1030(%rbp),%edx
    c516:	48 83 bd e8 f1 ff ff 	cmpq   $0x0,-0xe18(%rbp)
    c51d:	00 
    c51e:	0f 94 c0             	sete   %al
    c521:	0f b6 c0             	movzbl %al,%eax
    c524:	39 c2                	cmp    %eax,%edx
    c526:	0f 9c c0             	setl   %al
    c529:	0f b6 c0             	movzbl %al,%eax
    c52c:	48 89 ce             	mov    %rcx,%rsi
    c52f:	48 89 c7             	mov    %rax,%rdi
    c532:	e8 f7 ca ff ff       	callq  902e <safe_add_func_uint64_t_u_u>
    c537:	48 8b 05 d2 7d 01 00 	mov    0x17dd2(%rip),%rax        # 24310 <g_91>
    c53e:	8b 08                	mov    (%rax),%ecx
    c540:	48 8b 05 c1 95 01 00 	mov    0x195c1(%rip),%rax        # 25b08 <g_1230>
    c547:	8b 10                	mov    (%rax),%edx
    c549:	48 8b 05 b8 95 01 00 	mov    0x195b8(%rip),%rax        # 25b08 <g_1230>
    c550:	09 ca                	or     %ecx,%edx
    c552:	89 10                	mov    %edx,(%rax)
    c554:	48 8b 05 9d 85 01 00 	mov    0x1859d(%rip),%rax        # 24af8 <g_108>
    c55b:	8b 10                	mov    (%rax),%edx
    c55d:	48 8b 05 94 85 01 00 	mov    0x18594(%rip),%rax        # 24af8 <g_108>
    c564:	83 ca f8             	or     $0xfffffff8,%edx
    c567:	89 10                	mov    %edx,(%rax)
    c569:	8b 05 39 6c 01 00    	mov    0x16c39(%rip),%eax        # 231a8 <g_635>
    c56f:	83 c0 01             	add    $0x1,%eax
    c572:	89 05 30 6c 01 00    	mov    %eax,0x16c30(%rip)        # 231a8 <g_635>
    c578:	8b 05 2a 6c 01 00    	mov    0x16c2a(%rip),%eax        # 231a8 <g_635>
    c57e:	83 f8 08             	cmp    $0x8,%eax
    c581:	0f 8e 95 fa ff ff    	jle    c01c <func_6+0x265b>
    c587:	8b 05 b3 6e 01 00    	mov    0x16eb3(%rip),%eax        # 23440 <g_1527>
    c58d:	83 f8 01             	cmp    $0x1,%eax
    c590:	0f 94 c0             	sete   %al
    c593:	0f b6 c0             	movzbl %al,%eax
    c596:	be 0e 00 00 00       	mov    $0xe,%esi
    c59b:	89 c7                	mov    %eax,%edi
    c59d:	e8 f0 be ff ff       	callq  8492 <safe_lshift_func_int16_t_s_s>
    c5a2:	66 85 c0             	test   %ax,%ax
    c5a5:	0f 94 c0             	sete   %al
    c5a8:	0f b6 c8             	movzbl %al,%ecx
    c5ab:	48 8b 05 5e 95 01 00 	mov    0x1955e(%rip),%rax        # 25b10 <g_1241>
    c5b2:	48 8b 00             	mov    (%rax),%rax
    c5b5:	8b 10                	mov    (%rax),%edx
    c5b7:	48 8b 05 52 95 01 00 	mov    0x19552(%rip),%rax        # 25b10 <g_1241>
    c5be:	48 8b 00             	mov    (%rax),%rax
    c5c1:	21 ca                	and    %ecx,%edx
    c5c3:	89 10                	mov    %edx,(%rax)
    c5c5:	8b 00                	mov    (%rax),%eax
    c5c7:	83 bd bc ef ff ff 00 	cmpl   $0x0,-0x1044(%rbp)
    c5ce:	75 0a                	jne    c5da <func_6+0x2c19>
    c5d0:	48 83 bd b8 f1 ff ff 	cmpq   $0x0,-0xe48(%rbp)
    c5d7:	00 
    c5d8:	75 07                	jne    c5e1 <func_6+0x2c20>
    c5da:	ba 01 00 00 00       	mov    $0x1,%edx
    c5df:	eb 05                	jmp    c5e6 <func_6+0x2c25>
    c5e1:	ba 00 00 00 00       	mov    $0x0,%edx
    c5e6:	39 d0                	cmp    %edx,%eax
    c5e8:	0f 85 c5 00 00 00    	jne    c6b3 <func_6+0x2cf2>
    c5ee:	48 8d 85 e4 ef ff ff 	lea    -0x101c(%rbp),%rax
    c5f5:	48 89 85 d0 f3 ff ff 	mov    %rax,-0xc30(%rbp)
    c5fc:	48 8d 85 e4 ef ff ff 	lea    -0x101c(%rbp),%rax
    c603:	48 89 85 d8 f3 ff ff 	mov    %rax,-0xc28(%rbp)
    c60a:	48 8d 85 e4 ef ff ff 	lea    -0x101c(%rbp),%rax
    c611:	48 89 85 e0 f3 ff ff 	mov    %rax,-0xc20(%rbp)
    c618:	48 8d 85 e4 ef ff ff 	lea    -0x101c(%rbp),%rax
    c61f:	48 89 85 e8 f3 ff ff 	mov    %rax,-0xc18(%rbp)
    c626:	48 8d 85 e4 ef ff ff 	lea    -0x101c(%rbp),%rax
    c62d:	48 89 85 f0 f3 ff ff 	mov    %rax,-0xc10(%rbp)
    c634:	48 8d 85 e4 ef ff ff 	lea    -0x101c(%rbp),%rax
    c63b:	48 89 85 f8 f3 ff ff 	mov    %rax,-0xc08(%rbp)
    c642:	48 8d 85 e4 ef ff ff 	lea    -0x101c(%rbp),%rax
    c649:	48 89 85 00 f4 ff ff 	mov    %rax,-0xc00(%rbp)
    c650:	48 8d 85 e4 ef ff ff 	lea    -0x101c(%rbp),%rax
    c657:	48 89 85 08 f4 ff ff 	mov    %rax,-0xbf8(%rbp)
    c65e:	48 8d 85 e4 ef ff ff 	lea    -0x101c(%rbp),%rax
    c665:	48 89 85 10 f4 ff ff 	mov    %rax,-0xbf0(%rbp)
    c66c:	c7 85 70 f0 ff ff 01 	movl   $0x1,-0xf90(%rbp)
    c673:	00 00 00 
    c676:	83 85 70 f0 ff ff 01 	addl   $0x1,-0xf90(%rbp)
    c67d:	48 8b 15 74 9b 01 00 	mov    0x19b74(%rip),%rdx        # 261f8 <g_2164>
    c684:	48 8b 05 75 84 01 00 	mov    0x18475(%rip),%rax        # 24b00 <g_135>
    c68b:	48 8b 12             	mov    (%rdx),%rdx
    c68e:	48 89 10             	mov    %rdx,(%rax)
    c691:	48 8b 00             	mov    (%rax),%rax
    c694:	48 8d 95 50 f3 ff ff 	lea    -0xcb0(%rbp),%rdx
    c69b:	48 83 c2 34          	add    $0x34,%rdx
    c69f:	48 39 d0             	cmp    %rdx,%rax
    c6a2:	0f 95 c2             	setne  %dl
    c6a5:	48 8b 05 64 7c 01 00 	mov    0x17c64(%rip),%rax        # 24310 <g_91>
    c6ac:	0f b6 d2             	movzbl %dl,%edx
    c6af:	89 10                	mov    %edx,(%rax)
    c6b1:	eb 2a                	jmp    c6dd <func_6+0x2d1c>
    c6b3:	48 8d 05 e6 6a 01 00 	lea    0x16ae6(%rip),%rax        # 231a0 <g_595>
    c6ba:	48 89 85 c8 f1 ff ff 	mov    %rax,-0xe38(%rbp)
    c6c1:	8b 85 d8 f4 ff ff    	mov    -0xb28(%rbp),%eax
    c6c7:	85 c0                	test   %eax,%eax
    c6c9:	0f 85 a6 0e 00 00    	jne    d575 <func_6+0x3bb4>
    c6cf:	48 8b 85 c0 f1 ff ff 	mov    -0xe40(%rbp),%rax
    c6d6:	48 89 85 c8 f1 ff ff 	mov    %rax,-0xe38(%rbp)
    c6dd:	8b 85 f8 f8 ff ff    	mov    -0x708(%rbp),%eax
    c6e3:	83 c8 01             	or     $0x1,%eax
    c6e6:	89 85 f8 f8 ff ff    	mov    %eax,-0x708(%rbp)
    c6ec:	8b 85 dc ef ff ff    	mov    -0x1024(%rbp),%eax
    c6f2:	83 c0 01             	add    $0x1,%eax
    c6f5:	89 85 dc ef ff ff    	mov    %eax,-0x1024(%rbp)
    c6fb:	8b 85 dc ef ff ff    	mov    -0x1024(%rbp),%eax
    c701:	83 f8 08             	cmp    $0x8,%eax
    c704:	0f 8e 16 f8 ff ff    	jle    bf20 <func_6+0x255f>
    c70a:	e9 67 0e 00 00       	jmpq   d576 <func_6+0x3bb5>
    c70f:	48 c7 85 e0 f7 ff ff 	movq   $0x0,-0x820(%rbp)
    c716:	00 00 00 00 
    c71a:	48 8d 05 0f 69 01 00 	lea    0x1690f(%rip),%rax        # 23030 <g_46>
    c721:	48 89 85 e8 f7 ff ff 	mov    %rax,-0x818(%rbp)
    c728:	48 8d 05 f5 68 01 00 	lea    0x168f5(%rip),%rax        # 23024 <g_18>
    c72f:	48 89 85 f0 f7 ff ff 	mov    %rax,-0x810(%rbp)
    c736:	48 8d 05 f3 68 01 00 	lea    0x168f3(%rip),%rax        # 23030 <g_46>
    c73d:	48 89 85 f8 f7 ff ff 	mov    %rax,-0x808(%rbp)
    c744:	48 c7 85 00 f8 ff ff 	movq   $0x0,-0x800(%rbp)
    c74b:	00 00 00 00 
    c74f:	48 8d 85 80 f4 ff ff 	lea    -0xb80(%rbp),%rax
    c756:	48 83 c0 58          	add    $0x58,%rax
    c75a:	48 89 85 08 f8 ff ff 	mov    %rax,-0x7f8(%rbp)
    c761:	48 8d 05 c8 68 01 00 	lea    0x168c8(%rip),%rax        # 23030 <g_46>
    c768:	48 89 85 10 f8 ff ff 	mov    %rax,-0x7f0(%rbp)
    c76f:	48 8d 05 ae 68 01 00 	lea    0x168ae(%rip),%rax        # 23024 <g_18>
    c776:	48 89 85 18 f8 ff ff 	mov    %rax,-0x7e8(%rbp)
    c77d:	48 8d 85 80 f4 ff ff 	lea    -0xb80(%rbp),%rax
    c784:	48 83 c0 58          	add    $0x58,%rax
    c788:	48 89 85 20 f8 ff ff 	mov    %rax,-0x7e0(%rbp)
    c78f:	48 c7 85 28 f8 ff ff 	movq   $0x0,-0x7d8(%rbp)
    c796:	00 00 00 00 
    c79a:	48 c7 85 30 f8 ff ff 	movq   $0x0,-0x7d0(%rbp)
    c7a1:	00 00 00 00 
    c7a5:	48 c7 85 38 f8 ff ff 	movq   $0x0,-0x7c8(%rbp)
    c7ac:	00 00 00 00 
    c7b0:	48 8d 85 30 f2 ff ff 	lea    -0xdd0(%rbp),%rax
    c7b7:	48 83 c0 04          	add    $0x4,%rax
    c7bb:	48 89 85 40 f8 ff ff 	mov    %rax,-0x7c0(%rbp)
    c7c2:	48 8d 05 5b 68 01 00 	lea    0x1685b(%rip),%rax        # 23024 <g_18>
    c7c9:	48 89 85 48 f8 ff ff 	mov    %rax,-0x7b8(%rbp)
    c7d0:	48 8d 05 59 68 01 00 	lea    0x16859(%rip),%rax        # 23030 <g_46>
    c7d7:	48 89 85 50 f8 ff ff 	mov    %rax,-0x7b0(%rbp)
    c7de:	48 8d 85 80 f4 ff ff 	lea    -0xb80(%rbp),%rax
    c7e5:	48 05 d0 00 00 00    	add    $0xd0,%rax
    c7eb:	48 89 85 58 f8 ff ff 	mov    %rax,-0x7a8(%rbp)
    c7f2:	48 8d 85 30 f2 ff ff 	lea    -0xdd0(%rbp),%rax
    c7f9:	48 83 c0 04          	add    $0x4,%rax
    c7fd:	48 89 85 60 f8 ff ff 	mov    %rax,-0x7a0(%rbp)
    c804:	48 8d 85 30 f2 ff ff 	lea    -0xdd0(%rbp),%rax
    c80b:	48 83 c0 08          	add    $0x8,%rax
    c80f:	48 89 85 68 f8 ff ff 	mov    %rax,-0x798(%rbp)
    c816:	48 8d 85 dc ef ff ff 	lea    -0x1024(%rbp),%rax
    c81d:	48 89 85 70 f8 ff ff 	mov    %rax,-0x790(%rbp)
    c824:	48 8d 85 80 f4 ff ff 	lea    -0xb80(%rbp),%rax
    c82b:	48 05 d4 00 00 00    	add    $0xd4,%rax
    c831:	48 89 85 78 f8 ff ff 	mov    %rax,-0x788(%rbp)
    c838:	48 8d 05 e5 67 01 00 	lea    0x167e5(%rip),%rax        # 23024 <g_18>
    c83f:	48 89 85 80 f8 ff ff 	mov    %rax,-0x780(%rbp)
    c846:	48 c7 85 88 f8 ff ff 	movq   $0x0,-0x778(%rbp)
    c84d:	00 00 00 00 
    c851:	48 8d 05 cc 67 01 00 	lea    0x167cc(%rip),%rax        # 23024 <g_18>
    c858:	48 89 85 90 f8 ff ff 	mov    %rax,-0x770(%rbp)
    c85f:	48 8d 05 ca 67 01 00 	lea    0x167ca(%rip),%rax        # 23030 <g_46>
    c866:	48 89 85 98 f8 ff ff 	mov    %rax,-0x768(%rbp)
    c86d:	48 8d 85 30 f2 ff ff 	lea    -0xdd0(%rbp),%rax
    c874:	48 83 c0 04          	add    $0x4,%rax
    c878:	48 89 85 a0 f8 ff ff 	mov    %rax,-0x760(%rbp)
    c87f:	48 8d 85 dc ef ff ff 	lea    -0x1024(%rbp),%rax
    c886:	48 89 85 a8 f8 ff ff 	mov    %rax,-0x758(%rbp)
    c88d:	48 c7 85 b0 f8 ff ff 	movq   $0x0,-0x750(%rbp)
    c894:	00 00 00 00 
    c898:	48 c7 85 b8 f8 ff ff 	movq   $0x0,-0x748(%rbp)
    c89f:	00 00 00 00 
    c8a3:	48 c7 85 c0 f8 ff ff 	movq   $0x0,-0x740(%rbp)
    c8aa:	00 00 00 00 
    c8ae:	48 c7 85 c8 f8 ff ff 	movq   $0x0,-0x738(%rbp)
    c8b5:	00 00 00 00 
    c8b9:	48 8d 05 64 67 01 00 	lea    0x16764(%rip),%rax        # 23024 <g_18>
    c8c0:	48 89 85 d0 f8 ff ff 	mov    %rax,-0x730(%rbp)
    c8c7:	48 8d 85 80 f4 ff ff 	lea    -0xb80(%rbp),%rax
    c8ce:	48 83 c0 24          	add    $0x24,%rax
    c8d2:	48 89 85 d8 f8 ff ff 	mov    %rax,-0x728(%rbp)
    c8d9:	48 8d 85 dc ef ff ff 	lea    -0x1024(%rbp),%rax
    c8e0:	48 89 85 e0 f8 ff ff 	mov    %rax,-0x720(%rbp)
    c8e7:	48 8d 85 dc ef ff ff 	lea    -0x1024(%rbp),%rax
    c8ee:	48 89 85 e8 f8 ff ff 	mov    %rax,-0x718(%rbp)
    c8f5:	48 8d 85 80 f4 ff ff 	lea    -0xb80(%rbp),%rax
    c8fc:	48 83 c0 24          	add    $0x24,%rax
    c900:	48 89 85 f0 f8 ff ff 	mov    %rax,-0x710(%rbp)
    c907:	48 8d 05 16 67 01 00 	lea    0x16716(%rip),%rax        # 23024 <g_18>
    c90e:	48 89 85 f8 f8 ff ff 	mov    %rax,-0x708(%rbp)
    c915:	48 8d 85 30 f2 ff ff 	lea    -0xdd0(%rbp),%rax
    c91c:	48 83 c0 04          	add    $0x4,%rax
    c920:	48 89 85 00 f9 ff ff 	mov    %rax,-0x700(%rbp)
    c927:	48 8d 85 30 f2 ff ff 	lea    -0xdd0(%rbp),%rax
    c92e:	48 83 c0 04          	add    $0x4,%rax
    c932:	48 89 85 08 f9 ff ff 	mov    %rax,-0x6f8(%rbp)
    c939:	48 8d 05 f0 66 01 00 	lea    0x166f0(%rip),%rax        # 23030 <g_46>
    c940:	48 89 85 10 f9 ff ff 	mov    %rax,-0x6f0(%rbp)
    c947:	48 c7 85 18 f9 ff ff 	movq   $0x0,-0x6e8(%rbp)
    c94e:	00 00 00 00 
    c952:	48 c7 85 20 f9 ff ff 	movq   $0x0,-0x6e0(%rbp)
    c959:	00 00 00 00 
    c95d:	48 8d 85 30 f2 ff ff 	lea    -0xdd0(%rbp),%rax
    c964:	48 83 c0 08          	add    $0x8,%rax
    c968:	48 89 85 28 f9 ff ff 	mov    %rax,-0x6d8(%rbp)
    c96f:	48 8d 85 dc ef ff ff 	lea    -0x1024(%rbp),%rax
    c976:	48 89 85 30 f9 ff ff 	mov    %rax,-0x6d0(%rbp)
    c97d:	48 8d 85 80 f4 ff ff 	lea    -0xb80(%rbp),%rax
    c984:	48 83 c0 58          	add    $0x58,%rax
    c988:	48 89 85 38 f9 ff ff 	mov    %rax,-0x6c8(%rbp)
    c98f:	48 8d 05 8e 66 01 00 	lea    0x1668e(%rip),%rax        # 23024 <g_18>
    c996:	48 89 85 40 f9 ff ff 	mov    %rax,-0x6c0(%rbp)
    c99d:	48 8d 05 80 66 01 00 	lea    0x16680(%rip),%rax        # 23024 <g_18>
    c9a4:	48 89 85 48 f9 ff ff 	mov    %rax,-0x6b8(%rbp)
    c9ab:	48 8d 05 72 66 01 00 	lea    0x16672(%rip),%rax        # 23024 <g_18>
    c9b2:	48 89 85 50 f9 ff ff 	mov    %rax,-0x6b0(%rbp)
    c9b9:	48 8d 85 30 f2 ff ff 	lea    -0xdd0(%rbp),%rax
    c9c0:	48 83 c0 08          	add    $0x8,%rax
    c9c4:	48 89 85 58 f9 ff ff 	mov    %rax,-0x6a8(%rbp)
    c9cb:	48 c7 85 60 f9 ff ff 	movq   $0x0,-0x6a0(%rbp)
    c9d2:	00 00 00 00 
    c9d6:	48 8d 05 47 66 01 00 	lea    0x16647(%rip),%rax        # 23024 <g_18>
    c9dd:	48 89 85 68 f9 ff ff 	mov    %rax,-0x698(%rbp)
    c9e4:	48 8d 85 30 f2 ff ff 	lea    -0xdd0(%rbp),%rax
    c9eb:	48 83 c0 04          	add    $0x4,%rax
    c9ef:	48 89 85 70 f9 ff ff 	mov    %rax,-0x690(%rbp)
    c9f6:	48 8d 85 80 f4 ff ff 	lea    -0xb80(%rbp),%rax
    c9fd:	48 05 9c 00 00 00    	add    $0x9c,%rax
    ca03:	48 89 85 78 f9 ff ff 	mov    %rax,-0x688(%rbp)
    ca0a:	48 8d 85 80 f4 ff ff 	lea    -0xb80(%rbp),%rax
    ca11:	48 83 c0 58          	add    $0x58,%rax
    ca15:	48 89 85 80 f9 ff ff 	mov    %rax,-0x680(%rbp)
    ca1c:	48 8d 05 0d 66 01 00 	lea    0x1660d(%rip),%rax        # 23030 <g_46>
    ca23:	48 89 85 88 f9 ff ff 	mov    %rax,-0x678(%rbp)
    ca2a:	48 8d 05 ff 65 01 00 	lea    0x165ff(%rip),%rax        # 23030 <g_46>
    ca31:	48 89 85 90 f9 ff ff 	mov    %rax,-0x670(%rbp)
    ca38:	48 8d 05 e5 65 01 00 	lea    0x165e5(%rip),%rax        # 23024 <g_18>
    ca3f:	48 89 85 98 f9 ff ff 	mov    %rax,-0x668(%rbp)
    ca46:	48 8d 05 d7 65 01 00 	lea    0x165d7(%rip),%rax        # 23024 <g_18>
    ca4d:	48 89 85 a0 f9 ff ff 	mov    %rax,-0x660(%rbp)
    ca54:	48 c7 85 a8 f9 ff ff 	movq   $0x0,-0x658(%rbp)
    ca5b:	00 00 00 00 
    ca5f:	48 8d 85 30 f2 ff ff 	lea    -0xdd0(%rbp),%rax
    ca66:	48 83 c0 04          	add    $0x4,%rax
    ca6a:	48 89 85 b0 f9 ff ff 	mov    %rax,-0x650(%rbp)
    ca71:	48 8d 85 80 f4 ff ff 	lea    -0xb80(%rbp),%rax
    ca78:	48 83 c0 58          	add    $0x58,%rax
    ca7c:	48 89 85 b8 f9 ff ff 	mov    %rax,-0x648(%rbp)
    ca83:	48 8d 05 9a 65 01 00 	lea    0x1659a(%rip),%rax        # 23024 <g_18>
    ca8a:	48 89 85 c0 f9 ff ff 	mov    %rax,-0x640(%rbp)
    ca91:	48 8d 05 8c 65 01 00 	lea    0x1658c(%rip),%rax        # 23024 <g_18>
    ca98:	48 89 85 c8 f9 ff ff 	mov    %rax,-0x638(%rbp)
    ca9f:	48 c7 85 d0 f9 ff ff 	movq   $0x0,-0x630(%rbp)
    caa6:	00 00 00 00 
    caaa:	48 8d 85 30 f2 ff ff 	lea    -0xdd0(%rbp),%rax
    cab1:	48 83 c0 04          	add    $0x4,%rax
    cab5:	48 89 85 d8 f9 ff ff 	mov    %rax,-0x628(%rbp)
    cabc:	48 8d 85 80 f4 ff ff 	lea    -0xb80(%rbp),%rax
    cac3:	48 83 c0 58          	add    $0x58,%rax
    cac7:	48 89 85 e0 f9 ff ff 	mov    %rax,-0x620(%rbp)
    cace:	48 8d 85 80 f4 ff ff 	lea    -0xb80(%rbp),%rax
    cad5:	48 05 9c 00 00 00    	add    $0x9c,%rax
    cadb:	48 89 85 e8 f9 ff ff 	mov    %rax,-0x618(%rbp)
    cae2:	48 c7 85 f0 f9 ff ff 	movq   $0x0,-0x610(%rbp)
    cae9:	00 00 00 00 
    caed:	48 8d 85 dc ef ff ff 	lea    -0x1024(%rbp),%rax
    caf4:	48 89 85 f8 f9 ff ff 	mov    %rax,-0x608(%rbp)
    cafb:	48 8d 85 30 f2 ff ff 	lea    -0xdd0(%rbp),%rax
    cb02:	48 83 c0 08          	add    $0x8,%rax
    cb06:	48 89 85 00 fa ff ff 	mov    %rax,-0x600(%rbp)
    cb0d:	48 8d 85 30 f2 ff ff 	lea    -0xdd0(%rbp),%rax
    cb14:	48 83 c0 04          	add    $0x4,%rax
    cb18:	48 89 85 08 fa ff ff 	mov    %rax,-0x5f8(%rbp)
    cb1f:	48 8d 05 fe 64 01 00 	lea    0x164fe(%rip),%rax        # 23024 <g_18>
    cb26:	48 89 85 10 fa ff ff 	mov    %rax,-0x5f0(%rbp)
    cb2d:	48 8d 85 80 f4 ff ff 	lea    -0xb80(%rbp),%rax
    cb34:	48 05 d8 00 00 00    	add    $0xd8,%rax
    cb3a:	48 89 85 18 fa ff ff 	mov    %rax,-0x5e8(%rbp)
    cb41:	48 c7 85 20 fa ff ff 	movq   $0x0,-0x5e0(%rbp)
    cb48:	00 00 00 00 
    cb4c:	48 c7 85 28 fa ff ff 	movq   $0x0,-0x5d8(%rbp)
    cb53:	00 00 00 00 
    cb57:	48 8d 85 dc ef ff ff 	lea    -0x1024(%rbp),%rax
    cb5e:	48 89 85 30 fa ff ff 	mov    %rax,-0x5d0(%rbp)
    cb65:	48 8d 85 30 f2 ff ff 	lea    -0xdd0(%rbp),%rax
    cb6c:	48 83 c0 04          	add    $0x4,%rax
    cb70:	48 89 85 38 fa ff ff 	mov    %rax,-0x5c8(%rbp)
    cb77:	48 8d 05 b2 64 01 00 	lea    0x164b2(%rip),%rax        # 23030 <g_46>
    cb7e:	48 89 85 40 fa ff ff 	mov    %rax,-0x5c0(%rbp)
    cb85:	48 8d 05 98 64 01 00 	lea    0x16498(%rip),%rax        # 23024 <g_18>
    cb8c:	48 89 85 48 fa ff ff 	mov    %rax,-0x5b8(%rbp)
    cb93:	48 8d 05 96 64 01 00 	lea    0x16496(%rip),%rax        # 23030 <g_46>
    cb9a:	48 89 85 50 fa ff ff 	mov    %rax,-0x5b0(%rbp)
    cba1:	48 8d 05 7c 64 01 00 	lea    0x1647c(%rip),%rax        # 23024 <g_18>
    cba8:	48 89 85 58 fa ff ff 	mov    %rax,-0x5a8(%rbp)
    cbaf:	48 8d 85 30 f2 ff ff 	lea    -0xdd0(%rbp),%rax
    cbb6:	48 83 c0 04          	add    $0x4,%rax
    cbba:	48 89 85 60 fa ff ff 	mov    %rax,-0x5a0(%rbp)
    cbc1:	48 8d 05 5c 64 01 00 	lea    0x1645c(%rip),%rax        # 23024 <g_18>
    cbc8:	48 89 85 68 fa ff ff 	mov    %rax,-0x598(%rbp)
    cbcf:	48 8d 85 80 f4 ff ff 	lea    -0xb80(%rbp),%rax
    cbd6:	48 83 c0 58          	add    $0x58,%rax
    cbda:	48 89 85 70 fa ff ff 	mov    %rax,-0x590(%rbp)
    cbe1:	48 8d 85 80 f4 ff ff 	lea    -0xb80(%rbp),%rax
    cbe8:	48 83 c0 58          	add    $0x58,%rax
    cbec:	48 89 85 78 fa ff ff 	mov    %rax,-0x588(%rbp)
    cbf3:	48 8d 85 dc ef ff ff 	lea    -0x1024(%rbp),%rax
    cbfa:	48 89 85 80 fa ff ff 	mov    %rax,-0x580(%rbp)
    cc01:	48 8d 85 30 f2 ff ff 	lea    -0xdd0(%rbp),%rax
    cc08:	48 83 c0 08          	add    $0x8,%rax
    cc0c:	48 89 85 88 fa ff ff 	mov    %rax,-0x578(%rbp)
    cc13:	48 c7 85 90 fa ff ff 	movq   $0x0,-0x570(%rbp)
    cc1a:	00 00 00 00 
    cc1e:	48 8d 85 30 f2 ff ff 	lea    -0xdd0(%rbp),%rax
    cc25:	48 83 c0 04          	add    $0x4,%rax
    cc29:	48 89 85 98 fa ff ff 	mov    %rax,-0x568(%rbp)
    cc30:	48 8d 05 f9 63 01 00 	lea    0x163f9(%rip),%rax        # 23030 <g_46>
    cc37:	48 89 85 a0 fa ff ff 	mov    %rax,-0x560(%rbp)
    cc3e:	48 8d 85 30 f2 ff ff 	lea    -0xdd0(%rbp),%rax
    cc45:	48 83 c0 04          	add    $0x4,%rax
    cc49:	48 89 85 a8 fa ff ff 	mov    %rax,-0x558(%rbp)
    cc50:	48 c7 85 b0 fa ff ff 	movq   $0x0,-0x550(%rbp)
    cc57:	00 00 00 00 
    cc5b:	48 8d 85 30 f2 ff ff 	lea    -0xdd0(%rbp),%rax
    cc62:	48 83 c0 04          	add    $0x4,%rax
    cc66:	48 89 85 b8 fa ff ff 	mov    %rax,-0x548(%rbp)
    cc6d:	48 8d 05 b0 63 01 00 	lea    0x163b0(%rip),%rax        # 23024 <g_18>
    cc74:	48 89 85 c0 fa ff ff 	mov    %rax,-0x540(%rbp)
    cc7b:	48 c7 85 c8 fa ff ff 	movq   $0x0,-0x538(%rbp)
    cc82:	00 00 00 00 
    cc86:	48 8d 05 97 63 01 00 	lea    0x16397(%rip),%rax        # 23024 <g_18>
    cc8d:	48 89 85 d0 fa ff ff 	mov    %rax,-0x530(%rbp)
    cc94:	48 8d 85 30 f2 ff ff 	lea    -0xdd0(%rbp),%rax
    cc9b:	48 83 c0 08          	add    $0x8,%rax
    cc9f:	48 89 85 d8 fa ff ff 	mov    %rax,-0x528(%rbp)
    cca6:	48 8d 05 77 63 01 00 	lea    0x16377(%rip),%rax        # 23024 <g_18>
    ccad:	48 89 85 e0 fa ff ff 	mov    %rax,-0x520(%rbp)
    ccb4:	48 c7 85 e8 fa ff ff 	movq   $0x0,-0x518(%rbp)
    ccbb:	00 00 00 00 
    ccbf:	48 8d 05 5e 63 01 00 	lea    0x1635e(%rip),%rax        # 23024 <g_18>
    ccc6:	48 89 85 f0 fa ff ff 	mov    %rax,-0x510(%rbp)
    cccd:	48 8d 85 30 f2 ff ff 	lea    -0xdd0(%rbp),%rax
    ccd4:	48 83 c0 04          	add    $0x4,%rax
    ccd8:	48 89 85 f8 fa ff ff 	mov    %rax,-0x508(%rbp)
    ccdf:	48 8d 05 4a 63 01 00 	lea    0x1634a(%rip),%rax        # 23030 <g_46>
    cce6:	48 89 85 00 fb ff ff 	mov    %rax,-0x500(%rbp)
    cced:	48 8d 05 30 63 01 00 	lea    0x16330(%rip),%rax        # 23024 <g_18>
    ccf4:	48 89 85 08 fb ff ff 	mov    %rax,-0x4f8(%rbp)
    ccfb:	48 8d 05 22 63 01 00 	lea    0x16322(%rip),%rax        # 23024 <g_18>
    cd02:	48 89 85 10 fb ff ff 	mov    %rax,-0x4f0(%rbp)
    cd09:	48 8d 05 14 63 01 00 	lea    0x16314(%rip),%rax        # 23024 <g_18>
    cd10:	48 89 85 18 fb ff ff 	mov    %rax,-0x4e8(%rbp)
    cd17:	48 c7 85 20 fb ff ff 	movq   $0x0,-0x4e0(%rbp)
    cd1e:	00 00 00 00 
    cd22:	48 8d 85 30 f2 ff ff 	lea    -0xdd0(%rbp),%rax
    cd29:	48 83 c0 08          	add    $0x8,%rax
    cd2d:	48 89 85 28 fb ff ff 	mov    %rax,-0x4d8(%rbp)
    cd34:	48 8d 05 f5 62 01 00 	lea    0x162f5(%rip),%rax        # 23030 <g_46>
    cd3b:	48 89 85 30 fb ff ff 	mov    %rax,-0x4d0(%rbp)
    cd42:	48 8d 85 30 f2 ff ff 	lea    -0xdd0(%rbp),%rax
    cd49:	48 83 c0 04          	add    $0x4,%rax
    cd4d:	48 89 85 38 fb ff ff 	mov    %rax,-0x4c8(%rbp)
    cd54:	48 8d 85 30 f2 ff ff 	lea    -0xdd0(%rbp),%rax
    cd5b:	48 83 c0 08          	add    $0x8,%rax
    cd5f:	48 89 85 40 fb ff ff 	mov    %rax,-0x4c0(%rbp)
    cd66:	48 c7 85 48 fb ff ff 	movq   $0x0,-0x4b8(%rbp)
    cd6d:	00 00 00 00 
    cd71:	48 8d 05 ac 62 01 00 	lea    0x162ac(%rip),%rax        # 23024 <g_18>
    cd78:	48 89 85 50 fb ff ff 	mov    %rax,-0x4b0(%rbp)
    cd7f:	48 8d 85 dc ef ff ff 	lea    -0x1024(%rbp),%rax
    cd86:	48 89 85 58 fb ff ff 	mov    %rax,-0x4a8(%rbp)
    cd8d:	48 8d 85 30 f2 ff ff 	lea    -0xdd0(%rbp),%rax
    cd94:	48 83 c0 08          	add    $0x8,%rax
    cd98:	48 89 85 60 fb ff ff 	mov    %rax,-0x4a0(%rbp)
    cd9f:	48 8d 05 7e 62 01 00 	lea    0x1627e(%rip),%rax        # 23024 <g_18>
    cda6:	48 89 85 68 fb ff ff 	mov    %rax,-0x498(%rbp)
    cdad:	48 8d 05 7c 62 01 00 	lea    0x1627c(%rip),%rax        # 23030 <g_46>
    cdb4:	48 89 85 70 fb ff ff 	mov    %rax,-0x490(%rbp)
    cdbb:	48 8d 85 80 f4 ff ff 	lea    -0xb80(%rbp),%rax
    cdc2:	48 05 d0 00 00 00    	add    $0xd0,%rax
    cdc8:	48 89 85 78 fb ff ff 	mov    %rax,-0x488(%rbp)
    cdcf:	48 8d 85 30 f2 ff ff 	lea    -0xdd0(%rbp),%rax
    cdd6:	48 83 c0 04          	add    $0x4,%rax
    cdda:	48 89 85 80 fb ff ff 	mov    %rax,-0x480(%rbp)
    cde1:	48 8d 05 3c 62 01 00 	lea    0x1623c(%rip),%rax        # 23024 <g_18>
    cde8:	48 89 85 88 fb ff ff 	mov    %rax,-0x478(%rbp)
    cdef:	48 c7 85 90 fb ff ff 	movq   $0x0,-0x470(%rbp)
    cdf6:	00 00 00 00 
    cdfa:	48 8d 85 30 f2 ff ff 	lea    -0xdd0(%rbp),%rax
    ce01:	48 83 c0 04          	add    $0x4,%rax
    ce05:	48 89 85 98 fb ff ff 	mov    %rax,-0x468(%rbp)
    ce0c:	48 8d 85 80 f4 ff ff 	lea    -0xb80(%rbp),%rax
    ce13:	48 83 c0 58          	add    $0x58,%rax
    ce17:	48 89 85 a0 fb ff ff 	mov    %rax,-0x460(%rbp)
    ce1e:	48 8d 05 0b 62 01 00 	lea    0x1620b(%rip),%rax        # 23030 <g_46>
    ce25:	48 89 85 a8 fb ff ff 	mov    %rax,-0x458(%rbp)
    ce2c:	48 8d 85 80 f4 ff ff 	lea    -0xb80(%rbp),%rax
    ce33:	48 83 c0 58          	add    $0x58,%rax
    ce37:	48 89 85 b0 fb ff ff 	mov    %rax,-0x450(%rbp)
    ce3e:	48 8d 05 df 61 01 00 	lea    0x161df(%rip),%rax        # 23024 <g_18>
    ce45:	48 89 85 b8 fb ff ff 	mov    %rax,-0x448(%rbp)
    ce4c:	48 8d 85 80 f4 ff ff 	lea    -0xb80(%rbp),%rax
    ce53:	48 05 fc 00 00 00    	add    $0xfc,%rax
    ce59:	48 89 85 c0 fb ff ff 	mov    %rax,-0x440(%rbp)
    ce60:	48 8d 85 30 f2 ff ff 	lea    -0xdd0(%rbp),%rax
    ce67:	48 83 c0 04          	add    $0x4,%rax
    ce6b:	48 89 85 c8 fb ff ff 	mov    %rax,-0x438(%rbp)
    ce72:	48 8d 85 dc ef ff ff 	lea    -0x1024(%rbp),%rax
    ce79:	48 89 85 d0 fb ff ff 	mov    %rax,-0x430(%rbp)
    ce80:	48 8d 05 9d 61 01 00 	lea    0x1619d(%rip),%rax        # 23024 <g_18>
    ce87:	48 89 85 d8 fb ff ff 	mov    %rax,-0x428(%rbp)
    ce8e:	48 8d 85 80 f4 ff ff 	lea    -0xb80(%rbp),%rax
    ce95:	48 83 c0 58          	add    $0x58,%rax
    ce99:	48 89 85 e0 fb ff ff 	mov    %rax,-0x420(%rbp)
    cea0:	48 c7 85 e8 fb ff ff 	movq   $0x0,-0x418(%rbp)
    cea7:	00 00 00 00 
    ceab:	48 8d 85 dc ef ff ff 	lea    -0x1024(%rbp),%rax
    ceb2:	48 89 85 f0 fb ff ff 	mov    %rax,-0x410(%rbp)
    ceb9:	48 8d 85 30 f2 ff ff 	lea    -0xdd0(%rbp),%rax
    cec0:	48 83 c0 04          	add    $0x4,%rax
    cec4:	48 89 85 f8 fb ff ff 	mov    %rax,-0x408(%rbp)
    cecb:	48 8d 85 30 f2 ff ff 	lea    -0xdd0(%rbp),%rax
    ced2:	48 83 c0 04          	add    $0x4,%rax
    ced6:	48 89 85 00 fc ff ff 	mov    %rax,-0x400(%rbp)
    cedd:	48 8d 85 30 f2 ff ff 	lea    -0xdd0(%rbp),%rax
    cee4:	48 83 c0 04          	add    $0x4,%rax
    cee8:	48 89 85 08 fc ff ff 	mov    %rax,-0x3f8(%rbp)
    ceef:	48 8d 05 3a 61 01 00 	lea    0x1613a(%rip),%rax        # 23030 <g_46>
    cef6:	48 89 85 10 fc ff ff 	mov    %rax,-0x3f0(%rbp)
    cefd:	48 c7 85 18 fc ff ff 	movq   $0x0,-0x3e8(%rbp)
    cf04:	00 00 00 00 
    cf08:	48 8d 05 15 61 01 00 	lea    0x16115(%rip),%rax        # 23024 <g_18>
    cf0f:	48 89 85 20 fc ff ff 	mov    %rax,-0x3e0(%rbp)
    cf16:	48 8d 85 80 f4 ff ff 	lea    -0xb80(%rbp),%rax
    cf1d:	48 05 d8 00 00 00    	add    $0xd8,%rax
    cf23:	48 89 85 28 fc ff ff 	mov    %rax,-0x3d8(%rbp)
    cf2a:	48 8d 85 30 f2 ff ff 	lea    -0xdd0(%rbp),%rax
    cf31:	48 83 c0 08          	add    $0x8,%rax
    cf35:	48 89 85 30 fc ff ff 	mov    %rax,-0x3d0(%rbp)
    cf3c:	48 8d 85 dc ef ff ff 	lea    -0x1024(%rbp),%rax
    cf43:	48 89 85 38 fc ff ff 	mov    %rax,-0x3c8(%rbp)
    cf4a:	48 8d 05 df 60 01 00 	lea    0x160df(%rip),%rax        # 23030 <g_46>
    cf51:	48 89 85 40 fc ff ff 	mov    %rax,-0x3c0(%rbp)
    cf58:	48 8d 85 80 f4 ff ff 	lea    -0xb80(%rbp),%rax
    cf5f:	48 05 d0 00 00 00    	add    $0xd0,%rax
    cf65:	48 89 85 48 fc ff ff 	mov    %rax,-0x3b8(%rbp)
    cf6c:	48 8d 85 80 f4 ff ff 	lea    -0xb80(%rbp),%rax
    cf73:	48 83 c0 58          	add    $0x58,%rax
    cf77:	48 89 85 50 fc ff ff 	mov    %rax,-0x3b0(%rbp)
    cf7e:	48 8d 85 dc ef ff ff 	lea    -0x1024(%rbp),%rax
    cf85:	48 89 85 58 fc ff ff 	mov    %rax,-0x3a8(%rbp)
    cf8c:	48 8d 05 91 60 01 00 	lea    0x16091(%rip),%rax        # 23024 <g_18>
    cf93:	48 89 85 60 fc ff ff 	mov    %rax,-0x3a0(%rbp)
    cf9a:	48 c7 85 68 fc ff ff 	movq   $0x0,-0x398(%rbp)
    cfa1:	00 00 00 00 
    cfa5:	48 8d 05 84 60 01 00 	lea    0x16084(%rip),%rax        # 23030 <g_46>
    cfac:	48 89 85 70 fc ff ff 	mov    %rax,-0x390(%rbp)
    cfb3:	48 c7 85 78 fc ff ff 	movq   $0x0,-0x388(%rbp)
    cfba:	00 00 00 00 
    cfbe:	48 8d 05 5f 60 01 00 	lea    0x1605f(%rip),%rax        # 23024 <g_18>
    cfc5:	48 89 85 80 fc ff ff 	mov    %rax,-0x380(%rbp)
    cfcc:	48 8d 85 dc ef ff ff 	lea    -0x1024(%rbp),%rax
    cfd3:	48 89 85 88 fc ff ff 	mov    %rax,-0x378(%rbp)
    cfda:	48 8d 85 30 f2 ff ff 	lea    -0xdd0(%rbp),%rax
    cfe1:	48 89 85 90 fc ff ff 	mov    %rax,-0x370(%rbp)
    cfe8:	48 8d 85 30 f2 ff ff 	lea    -0xdd0(%rbp),%rax
    cfef:	48 83 c0 04          	add    $0x4,%rax
    cff3:	48 89 85 98 fc ff ff 	mov    %rax,-0x368(%rbp)
    cffa:	48 8d 85 30 f2 ff ff 	lea    -0xdd0(%rbp),%rax
    d001:	48 89 85 a0 fc ff ff 	mov    %rax,-0x360(%rbp)
    d008:	48 c7 85 a8 fc ff ff 	movq   $0x0,-0x358(%rbp)
    d00f:	00 00 00 00 
    d013:	48 8d 05 0a 60 01 00 	lea    0x1600a(%rip),%rax        # 23024 <g_18>
    d01a:	48 89 85 b0 fc ff ff 	mov    %rax,-0x350(%rbp)
    d021:	48 8d 85 80 f4 ff ff 	lea    -0xb80(%rbp),%rax
    d028:	48 05 9c 00 00 00    	add    $0x9c,%rax
    d02e:	48 89 85 b8 fc ff ff 	mov    %rax,-0x348(%rbp)
    d035:	48 8d 85 dc ef ff ff 	lea    -0x1024(%rbp),%rax
    d03c:	48 89 85 c0 fc ff ff 	mov    %rax,-0x340(%rbp)
    d043:	48 8d 85 dc ef ff ff 	lea    -0x1024(%rbp),%rax
    d04a:	48 89 85 c8 fc ff ff 	mov    %rax,-0x338(%rbp)
    d051:	48 8d 85 80 f4 ff ff 	lea    -0xb80(%rbp),%rax
    d058:	48 83 c0 58          	add    $0x58,%rax
    d05c:	48 89 85 d0 fc ff ff 	mov    %rax,-0x330(%rbp)
    d063:	48 c7 85 d8 fc ff ff 	movq   $0x0,-0x328(%rbp)
    d06a:	00 00 00 00 
    d06e:	48 8d 85 30 f2 ff ff 	lea    -0xdd0(%rbp),%rax
    d075:	48 83 c0 04          	add    $0x4,%rax
    d079:	48 89 85 e0 fc ff ff 	mov    %rax,-0x320(%rbp)
    d080:	48 8d 85 30 f2 ff ff 	lea    -0xdd0(%rbp),%rax
    d087:	48 89 85 e8 fc ff ff 	mov    %rax,-0x318(%rbp)
    d08e:	48 c7 85 f0 fc ff ff 	movq   $0x0,-0x310(%rbp)
    d095:	00 00 00 00 
    d099:	48 8d 85 30 f2 ff ff 	lea    -0xdd0(%rbp),%rax
    d0a0:	48 83 c0 04          	add    $0x4,%rax
    d0a4:	48 89 85 f8 fc ff ff 	mov    %rax,-0x308(%rbp)
    d0ab:	48 8d 05 7e 5f 01 00 	lea    0x15f7e(%rip),%rax        # 23030 <g_46>
    d0b2:	48 89 85 00 fd ff ff 	mov    %rax,-0x300(%rbp)
    d0b9:	48 8d 05 64 5f 01 00 	lea    0x15f64(%rip),%rax        # 23024 <g_18>
    d0c0:	48 89 85 08 fd ff ff 	mov    %rax,-0x2f8(%rbp)
    d0c7:	48 8d 85 30 f2 ff ff 	lea    -0xdd0(%rbp),%rax
    d0ce:	48 83 c0 04          	add    $0x4,%rax
    d0d2:	48 89 85 10 fd ff ff 	mov    %rax,-0x2f0(%rbp)
    d0d9:	48 8d 85 dc ef ff ff 	lea    -0x1024(%rbp),%rax
    d0e0:	48 89 85 18 fd ff ff 	mov    %rax,-0x2e8(%rbp)
    d0e7:	48 8d 05 42 5f 01 00 	lea    0x15f42(%rip),%rax        # 23030 <g_46>
    d0ee:	48 89 85 20 fd ff ff 	mov    %rax,-0x2e0(%rbp)
    d0f5:	48 8d 85 80 f4 ff ff 	lea    -0xb80(%rbp),%rax
    d0fc:	48 83 c0 58          	add    $0x58,%rax
    d100:	48 89 85 28 fd ff ff 	mov    %rax,-0x2d8(%rbp)
    d107:	48 8d 05 22 5f 01 00 	lea    0x15f22(%rip),%rax        # 23030 <g_46>
    d10e:	48 89 85 30 fd ff ff 	mov    %rax,-0x2d0(%rbp)
    d115:	48 8d 85 30 f2 ff ff 	lea    -0xdd0(%rbp),%rax
    d11c:	48 83 c0 04          	add    $0x4,%rax
    d120:	48 89 85 38 fd ff ff 	mov    %rax,-0x2c8(%rbp)
    d127:	48 8d 85 30 f2 ff ff 	lea    -0xdd0(%rbp),%rax
    d12e:	48 89 85 40 fd ff ff 	mov    %rax,-0x2c0(%rbp)
    d135:	48 8d 05 e8 5e 01 00 	lea    0x15ee8(%rip),%rax        # 23024 <g_18>
    d13c:	48 89 85 48 fd ff ff 	mov    %rax,-0x2b8(%rbp)
    d143:	48 8d 85 80 f4 ff ff 	lea    -0xb80(%rbp),%rax
    d14a:	48 83 c0 58          	add    $0x58,%rax
    d14e:	48 89 85 50 fd ff ff 	mov    %rax,-0x2b0(%rbp)
    d155:	48 8d 05 d4 5e 01 00 	lea    0x15ed4(%rip),%rax        # 23030 <g_46>
    d15c:	48 89 85 58 fd ff ff 	mov    %rax,-0x2a8(%rbp)
    d163:	48 8d 85 dc ef ff ff 	lea    -0x1024(%rbp),%rax
    d16a:	48 89 85 60 fd ff ff 	mov    %rax,-0x2a0(%rbp)
    d171:	48 c7 85 68 fd ff ff 	movq   $0x0,-0x298(%rbp)
    d178:	00 00 00 00 
    d17c:	48 c7 85 70 fd ff ff 	movq   $0x0,-0x290(%rbp)
    d183:	00 00 00 00 
    d187:	48 c7 85 78 fd ff ff 	movq   $0x0,-0x288(%rbp)
    d18e:	00 00 00 00 
    d192:	48 8d 85 30 f2 ff ff 	lea    -0xdd0(%rbp),%rax
    d199:	48 83 c0 04          	add    $0x4,%rax
    d19d:	48 89 85 80 fd ff ff 	mov    %rax,-0x280(%rbp)
    d1a4:	48 8d 85 30 f2 ff ff 	lea    -0xdd0(%rbp),%rax
    d1ab:	48 83 c0 04          	add    $0x4,%rax
    d1af:	48 89 85 88 fd ff ff 	mov    %rax,-0x278(%rbp)
    d1b6:	48 8d 85 80 f4 ff ff 	lea    -0xb80(%rbp),%rax
    d1bd:	48 83 c0 58          	add    $0x58,%rax
    d1c1:	48 89 85 90 fd ff ff 	mov    %rax,-0x270(%rbp)
    d1c8:	48 8d 85 30 f2 ff ff 	lea    -0xdd0(%rbp),%rax
    d1cf:	48 83 c0 04          	add    $0x4,%rax
    d1d3:	48 89 85 98 fd ff ff 	mov    %rax,-0x268(%rbp)
    d1da:	48 8d 85 80 f4 ff ff 	lea    -0xb80(%rbp),%rax
    d1e1:	48 05 d8 00 00 00    	add    $0xd8,%rax
    d1e7:	48 89 85 a0 fd ff ff 	mov    %rax,-0x260(%rbp)
    d1ee:	48 8d 05 2f 5e 01 00 	lea    0x15e2f(%rip),%rax        # 23024 <g_18>
    d1f5:	48 89 85 a8 fd ff ff 	mov    %rax,-0x258(%rbp)
    d1fc:	48 8d 05 21 5e 01 00 	lea    0x15e21(%rip),%rax        # 23024 <g_18>
    d203:	48 89 85 b0 fd ff ff 	mov    %rax,-0x250(%rbp)
    d20a:	48 8d 85 80 f4 ff ff 	lea    -0xb80(%rbp),%rax
    d211:	48 05 d8 00 00 00    	add    $0xd8,%rax
    d217:	48 89 85 b8 fd ff ff 	mov    %rax,-0x248(%rbp)
    d21e:	48 8d 85 30 f2 ff ff 	lea    -0xdd0(%rbp),%rax
    d225:	48 83 c0 04          	add    $0x4,%rax
    d229:	48 89 85 c0 fd ff ff 	mov    %rax,-0x240(%rbp)
    d230:	48 c7 85 c8 fd ff ff 	movq   $0x0,-0x238(%rbp)
    d237:	00 00 00 00 
    d23b:	48 c7 85 d0 fd ff ff 	movq   $0x0,-0x230(%rbp)
    d242:	00 00 00 00 
    d246:	48 8d 05 d7 5d 01 00 	lea    0x15dd7(%rip),%rax        # 23024 <g_18>
    d24d:	48 89 85 d8 fd ff ff 	mov    %rax,-0x228(%rbp)
    d254:	48 8d 85 30 f2 ff ff 	lea    -0xdd0(%rbp),%rax
    d25b:	48 83 c0 04          	add    $0x4,%rax
    d25f:	48 89 85 e0 fd ff ff 	mov    %rax,-0x220(%rbp)
    d266:	48 8d 85 80 f4 ff ff 	lea    -0xb80(%rbp),%rax
    d26d:	48 83 c0 58          	add    $0x58,%rax
    d271:	48 89 85 e8 fd ff ff 	mov    %rax,-0x218(%rbp)
    d278:	48 c7 85 f0 fd ff ff 	movq   $0x0,-0x210(%rbp)
    d27f:	00 00 00 00 
    d283:	48 c7 85 f8 fd ff ff 	movq   $0x0,-0x208(%rbp)
    d28a:	00 00 00 00 
    d28e:	48 8d 85 30 f2 ff ff 	lea    -0xdd0(%rbp),%rax
    d295:	48 83 c0 04          	add    $0x4,%rax
    d299:	48 89 85 00 fe ff ff 	mov    %rax,-0x200(%rbp)
    d2a0:	48 8d 05 7d 5d 01 00 	lea    0x15d7d(%rip),%rax        # 23024 <g_18>
    d2a7:	48 89 85 08 fe ff ff 	mov    %rax,-0x1f8(%rbp)
    d2ae:	48 8d 85 30 f2 ff ff 	lea    -0xdd0(%rbp),%rax
    d2b5:	48 83 c0 04          	add    $0x4,%rax
    d2b9:	48 89 85 10 fe ff ff 	mov    %rax,-0x1f0(%rbp)
    d2c0:	48 8d 85 80 f4 ff ff 	lea    -0xb80(%rbp),%rax
    d2c7:	48 83 c0 58          	add    $0x58,%rax
    d2cb:	48 89 85 18 fe ff ff 	mov    %rax,-0x1e8(%rbp)
    d2d2:	48 8d 05 4b 5d 01 00 	lea    0x15d4b(%rip),%rax        # 23024 <g_18>
    d2d9:	48 89 85 20 fe ff ff 	mov    %rax,-0x1e0(%rbp)
    d2e0:	48 c7 85 28 fe ff ff 	movq   $0x0,-0x1d8(%rbp)
    d2e7:	00 00 00 00 
    d2eb:	48 8d 85 80 f4 ff ff 	lea    -0xb80(%rbp),%rax
    d2f2:	48 83 c0 58          	add    $0x58,%rax
    d2f6:	48 89 85 30 fe ff ff 	mov    %rax,-0x1d0(%rbp)
    d2fd:	48 8d 85 80 f4 ff ff 	lea    -0xb80(%rbp),%rax
    d304:	48 05 d8 00 00 00    	add    $0xd8,%rax
    d30a:	48 89 85 38 fe ff ff 	mov    %rax,-0x1c8(%rbp)
    d311:	48 8d 85 30 f2 ff ff 	lea    -0xdd0(%rbp),%rax
    d318:	48 83 c0 0c          	add    $0xc,%rax
    d31c:	48 89 85 40 fe ff ff 	mov    %rax,-0x1c0(%rbp)
    d323:	48 8d 85 30 f2 ff ff 	lea    -0xdd0(%rbp),%rax
    d32a:	48 83 c0 04          	add    $0x4,%rax
    d32e:	48 89 85 48 fe ff ff 	mov    %rax,-0x1b8(%rbp)
    d335:	48 8d 85 30 f2 ff ff 	lea    -0xdd0(%rbp),%rax
    d33c:	48 83 c0 04          	add    $0x4,%rax
    d340:	48 89 85 50 fe ff ff 	mov    %rax,-0x1b0(%rbp)
    d347:	48 8d 05 d6 5c 01 00 	lea    0x15cd6(%rip),%rax        # 23024 <g_18>
    d34e:	48 89 85 58 fe ff ff 	mov    %rax,-0x1a8(%rbp)
    d355:	48 c7 85 60 fe ff ff 	movq   $0x0,-0x1a0(%rbp)
    d35c:	00 00 00 00 
    d360:	48 8d 05 bd 5c 01 00 	lea    0x15cbd(%rip),%rax        # 23024 <g_18>
    d367:	48 89 85 68 fe ff ff 	mov    %rax,-0x198(%rbp)
    d36e:	48 8d 85 30 f2 ff ff 	lea    -0xdd0(%rbp),%rax
    d375:	48 83 c0 04          	add    $0x4,%rax
    d379:	48 89 85 70 fe ff ff 	mov    %rax,-0x190(%rbp)
    d380:	48 c7 85 78 fe ff ff 	movq   $0x0,-0x188(%rbp)
    d387:	00 00 00 00 
    d38b:	48 8d 85 30 f2 ff ff 	lea    -0xdd0(%rbp),%rax
    d392:	48 83 c0 08          	add    $0x8,%rax
    d396:	48 89 85 80 fe ff ff 	mov    %rax,-0x180(%rbp)
    d39d:	48 8d 85 dc ef ff ff 	lea    -0x1024(%rbp),%rax
    d3a4:	48 89 85 88 fe ff ff 	mov    %rax,-0x178(%rbp)
    d3ab:	48 8d 85 80 f4 ff ff 	lea    -0xb80(%rbp),%rax
    d3b2:	48 83 c0 58          	add    $0x58,%rax
    d3b6:	48 89 85 90 fe ff ff 	mov    %rax,-0x170(%rbp)
    d3bd:	48 8d 85 80 f4 ff ff 	lea    -0xb80(%rbp),%rax
    d3c4:	48 83 c0 58          	add    $0x58,%rax
    d3c8:	48 89 85 98 fe ff ff 	mov    %rax,-0x168(%rbp)
    d3cf:	48 8d 05 4e 5c 01 00 	lea    0x15c4e(%rip),%rax        # 23024 <g_18>
    d3d6:	48 89 85 a0 fe ff ff 	mov    %rax,-0x160(%rbp)
    d3dd:	48 8d 85 30 f2 ff ff 	lea    -0xdd0(%rbp),%rax
    d3e4:	48 83 c0 04          	add    $0x4,%rax
    d3e8:	48 89 85 a8 fe ff ff 	mov    %rax,-0x158(%rbp)
    d3ef:	48 8d 05 3a 5c 01 00 	lea    0x15c3a(%rip),%rax        # 23030 <g_46>
    d3f6:	48 89 85 b0 fe ff ff 	mov    %rax,-0x150(%rbp)
    d3fd:	48 c7 85 b8 fe ff ff 	movq   $0x0,-0x148(%rbp)
    d404:	00 00 00 00 
    d408:	48 8d 85 dc ef ff ff 	lea    -0x1024(%rbp),%rax
    d40f:	48 89 85 c0 fe ff ff 	mov    %rax,-0x140(%rbp)
    d416:	48 8d 85 80 f4 ff ff 	lea    -0xb80(%rbp),%rax
    d41d:	48 83 c0 58          	add    $0x58,%rax
    d421:	48 89 85 c8 fe ff ff 	mov    %rax,-0x138(%rbp)
    d428:	48 8d 05 f5 5b 01 00 	lea    0x15bf5(%rip),%rax        # 23024 <g_18>
    d42f:	48 89 85 d0 fe ff ff 	mov    %rax,-0x130(%rbp)
    d436:	48 8d 85 30 f2 ff ff 	lea    -0xdd0(%rbp),%rax
    d43d:	48 83 c0 04          	add    $0x4,%rax
    d441:	48 89 85 d8 fe ff ff 	mov    %rax,-0x128(%rbp)
    d448:	48 8d 85 dc ef ff ff 	lea    -0x1024(%rbp),%rax
    d44f:	48 89 85 e0 fe ff ff 	mov    %rax,-0x120(%rbp)
    d456:	48 8d 85 30 f2 ff ff 	lea    -0xdd0(%rbp),%rax
    d45d:	48 83 c0 04          	add    $0x4,%rax
    d461:	48 89 85 e8 fe ff ff 	mov    %rax,-0x118(%rbp)
    d468:	48 8d 05 b5 5b 01 00 	lea    0x15bb5(%rip),%rax        # 23024 <g_18>
    d46f:	48 89 85 f0 fe ff ff 	mov    %rax,-0x110(%rbp)
    d476:	48 c7 85 f8 fe ff ff 	movq   $0x0,-0x108(%rbp)
    d47d:	00 00 00 00 
    d481:	48 8d 05 9c 5b 01 00 	lea    0x15b9c(%rip),%rax        # 23024 <g_18>
    d488:	48 89 85 00 ff ff ff 	mov    %rax,-0x100(%rbp)
    d48f:	48 8d 85 30 f2 ff ff 	lea    -0xdd0(%rbp),%rax
    d496:	48 83 c0 04          	add    $0x4,%rax
    d49a:	48 89 85 08 ff ff ff 	mov    %rax,-0xf8(%rbp)
    d4a1:	48 8d 05 88 5b 01 00 	lea    0x15b88(%rip),%rax        # 23030 <g_46>
    d4a8:	48 89 85 10 ff ff ff 	mov    %rax,-0xf0(%rbp)
    d4af:	48 8d 85 30 f2 ff ff 	lea    -0xdd0(%rbp),%rax
    d4b6:	48 83 c0 04          	add    $0x4,%rax
    d4ba:	48 89 85 18 ff ff ff 	mov    %rax,-0xe8(%rbp)
    d4c1:	48 8d 05 5c 5b 01 00 	lea    0x15b5c(%rip),%rax        # 23024 <g_18>
    d4c8:	48 89 85 20 ff ff ff 	mov    %rax,-0xe0(%rbp)
    d4cf:	48 8d 85 dc ef ff ff 	lea    -0x1024(%rbp),%rax
    d4d6:	48 89 85 28 ff ff ff 	mov    %rax,-0xd8(%rbp)
    d4dd:	48 c7 85 30 ff ff ff 	movq   $0x0,-0xd0(%rbp)
    d4e4:	00 00 00 00 
    d4e8:	48 8d 85 dc ef ff ff 	lea    -0x1024(%rbp),%rax
    d4ef:	48 89 85 38 ff ff ff 	mov    %rax,-0xc8(%rbp)
    d4f6:	48 8d 05 33 5b 01 00 	lea    0x15b33(%rip),%rax        # 23030 <g_46>
    d4fd:	48 89 85 40 ff ff ff 	mov    %rax,-0xc0(%rbp)
    d504:	48 8d 85 30 f2 ff ff 	lea    -0xdd0(%rbp),%rax
    d50b:	48 83 c0 04          	add    $0x4,%rax
    d50f:	48 89 85 48 ff ff ff 	mov    %rax,-0xb8(%rbp)
    d516:	48 c7 85 50 ff ff ff 	movq   $0x0,-0xb0(%rbp)
    d51d:	00 00 00 00 
    d521:	48 8d 85 80 f4 ff ff 	lea    -0xb80(%rbp),%rax
    d528:	48 83 c0 58          	add    $0x58,%rax
    d52c:	48 89 85 58 ff ff ff 	mov    %rax,-0xa8(%rbp)
    d533:	c7 85 2c f0 ff ff 00 	movl   $0x0,-0xfd4(%rbp)
    d53a:	00 00 00 
    d53d:	eb 1a                	jmp    d559 <func_6+0x3b98>
    d53f:	8b 85 2c f0 ff ff    	mov    -0xfd4(%rbp),%eax
    d545:	48 98                	cltq   
    d547:	c7 84 85 a0 f5 ff ff 	movl   $0x6,-0xa60(%rbp,%rax,4)
    d54e:	06 00 00 00 
    d552:	83 85 2c f0 ff ff 01 	addl   $0x1,-0xfd4(%rbp)
    d559:	83 bd 2c f0 ff ff 04 	cmpl   $0x4,-0xfd4(%rbp)
    d560:	7e dd                	jle    d53f <func_6+0x3b7e>
    d562:	0f b7 85 d6 ef ff ff 	movzwl -0x102a(%rbp),%eax
    d569:	83 e8 01             	sub    $0x1,%eax
    d56c:	66 89 85 d6 ef ff ff 	mov    %ax,-0x102a(%rbp)
    d573:	eb 01                	jmp    d576 <func_6+0x3bb5>
    d575:	90                   	nop
    d576:	48 c7 85 a8 ef ff ff 	movq   $0x0,-0x1058(%rbp)
    d57d:	00 00 00 00 
    d581:	e9 0f 03 00 00       	jmpq   d895 <func_6+0x3ed4>
    d586:	c6 85 d1 ef ff ff 00 	movb   $0x0,-0x102f(%rbp)
    d58d:	48 8d 05 7c 5e 01 00 	lea    0x15e7c(%rip),%rax        # 23410 <g_1406>
    d594:	48 89 85 10 f2 ff ff 	mov    %rax,-0xdf0(%rbp)
    d59b:	48 8d 05 3e 5b 01 00 	lea    0x15b3e(%rip),%rax        # 230e0 <g_256>
    d5a2:	48 89 85 18 f2 ff ff 	mov    %rax,-0xde8(%rbp)
    d5a9:	48 b8 a4 16 75 a3 c0 	movabs $0x4c8077c0a37516a4,%rax
    d5b0:	77 80 4c 
    d5b3:	48 89 85 20 f2 ff ff 	mov    %rax,-0xde0(%rbp)
    d5ba:	c7 85 74 f0 ff ff f9 	movl   $0xfffffff9,-0xf8c(%rbp)
    d5c1:	ff ff ff 
    d5c4:	0f be 95 d1 ef ff ff 	movsbl -0x102f(%rbp),%edx
    d5cb:	48 8b 85 a8 ef ff ff 	mov    -0x1058(%rbp),%rax
    d5d2:	0f be c0             	movsbl %al,%eax
    d5d5:	89 d6                	mov    %edx,%esi
    d5d7:	89 c7                	mov    %eax,%edi
    d5d9:	e8 53 ac ff ff       	callq  8231 <safe_mod_func_int8_t_s_s>
    d5de:	44 0f be f8          	movsbl %al,%r15d
    d5e2:	8b 9d b8 ef ff ff    	mov    -0x1048(%rbp),%ebx
    d5e8:	44 0f be a5 d1 ef ff 	movsbl -0x102f(%rbp),%r12d
    d5ef:	ff 
    d5f0:	44 0f be ad d1 ef ff 	movsbl -0x102f(%rbp),%r13d
    d5f7:	ff 
    d5f8:	8b 85 b8 ef ff ff    	mov    -0x1048(%rbp),%eax
    d5fe:	44 0f be f0          	movsbl %al,%r14d
    d602:	48 8b 85 10 f2 ff ff 	mov    -0xdf0(%rbp),%rax
    d609:	8b 10                	mov    (%rax),%edx
    d60b:	48 8d 05 ce 5d 01 00 	lea    0x15dce(%rip),%rax        # 233e0 <g_1243>
    d612:	8b 00                	mov    (%rax),%eax
    d614:	31 c2                	xor    %eax,%edx
    d616:	48 8b 85 10 f2 ff ff 	mov    -0xdf0(%rbp),%rax
    d61d:	89 10                	mov    %edx,(%rax)
    d61f:	48 8b 85 10 f2 ff ff 	mov    -0xdf0(%rbp),%rax
    d626:	8b 00                	mov    (%rax),%eax
    d628:	f7 d0                	not    %eax
    d62a:	0f b6 c0             	movzbl %al,%eax
    d62d:	be 05 00 00 00       	mov    $0x5,%esi
    d632:	89 c7                	mov    %eax,%edi
    d634:	e8 cc b5 ff ff       	callq  8c05 <safe_lshift_func_uint8_t_u_s>
    d639:	0f be c0             	movsbl %al,%eax
    d63c:	44 89 f6             	mov    %r14d,%esi
    d63f:	89 c7                	mov    %eax,%edi
    d641:	e8 8e ab ff ff       	callq  81d4 <safe_add_func_int8_t_s_s>
    d646:	0f be c0             	movsbl %al,%eax
    d649:	44 89 ee             	mov    %r13d,%esi
    d64c:	89 c7                	mov    %eax,%edi
    d64e:	e8 19 ad ff ff       	callq  836c <safe_rshift_func_int8_t_s_u>
    d653:	0f be c0             	movsbl %al,%eax
    d656:	23 85 bc ef ff ff    	and    -0x1044(%rbp),%eax
    d65c:	85 c0                	test   %eax,%eax
    d65e:	48 8b 85 90 f0 ff ff 	mov    -0xf70(%rbp),%rax
    d665:	83 e0 fe             	and    $0xfffffffe,%eax
    d668:	0f bf d0             	movswl %ax,%edx
    d66b:	0f b6 05 ce 8f 01 00 	movzbl 0x18fce(%rip),%eax        # 26640 <g_497>
    d672:	0f b6 c0             	movzbl %al,%eax
    d675:	89 d6                	mov    %edx,%esi
    d677:	89 c7                	mov    %eax,%edi
    d679:	e8 35 ad ff ff       	callq  83b3 <safe_add_func_int16_t_s_s>
    d67e:	83 e0 60             	and    $0x60,%eax
    d681:	89 c2                	mov    %eax,%edx
    d683:	48 8b 85 b0 f0 ff ff 	mov    -0xf50(%rbp),%rax
    d68a:	66 89 10             	mov    %dx,(%rax)
    d68d:	48 8b 85 b0 f0 ff ff 	mov    -0xf50(%rbp),%rax
    d694:	0f b7 00             	movzwl (%rax),%eax
    d697:	0f b7 c0             	movzwl %ax,%eax
    d69a:	89 c6                	mov    %eax,%esi
    d69c:	bf 00 00 00 00       	mov    $0x0,%edi
    d6a1:	e8 79 b6 ff ff       	callq  8d1f <safe_sub_func_uint16_t_u_u>
    d6a6:	be 07 00 00 00       	mov    $0x7,%esi
    d6ab:	bf 00 00 00 00       	mov    $0x0,%edi
    d6b0:	e8 ae ae ff ff       	callq  8563 <safe_rshift_func_int16_t_s_u>
    d6b5:	0f be c0             	movsbl %al,%eax
    d6b8:	44 89 e6             	mov    %r12d,%esi
    d6bb:	89 c7                	mov    %eax,%edi
    d6bd:	e8 30 ab ff ff       	callq  81f2 <safe_sub_func_int8_t_s_s>
    d6c2:	0f b6 c0             	movzbl %al,%eax
    d6c5:	89 de                	mov    %ebx,%esi
    d6c7:	89 c7                	mov    %eax,%edi
    d6c9:	e8 7e b5 ff ff       	callq  8c4c <safe_lshift_func_uint8_t_u_u>
    d6ce:	0f b6 c0             	movzbl %al,%eax
    d6d1:	41 39 c7             	cmp    %eax,%r15d
    d6d4:	74 0a                	je     d6e0 <func_6+0x3d1f>
    d6d6:	8b 85 30 f2 ff ff    	mov    -0xdd0(%rbp),%eax
    d6dc:	85 c0                	test   %eax,%eax
    d6de:	74 07                	je     d6e7 <func_6+0x3d26>
    d6e0:	b8 01 00 00 00       	mov    $0x1,%eax
    d6e5:	eb 05                	jmp    d6ec <func_6+0x3d2b>
    d6e7:	b8 00 00 00 00       	mov    $0x0,%eax
    d6ec:	89 c6                	mov    %eax,%esi
    d6ee:	bf 25 de ff ff       	mov    $0xffffde25,%edi
    d6f3:	e8 e9 ad ff ff       	callq  84e1 <safe_lshift_func_int16_t_s_u>
    d6f8:	48 8b 15 09 84 01 00 	mov    0x18409(%rip),%rdx        # 25b08 <g_1230>
    d6ff:	8b 0a                	mov    (%rdx),%ecx
    d701:	0f bf d0             	movswl %ax,%edx
    d704:	48 8b 05 fd 83 01 00 	mov    0x183fd(%rip),%rax        # 25b08 <g_1230>
    d70b:	31 ca                	xor    %ecx,%edx
    d70d:	89 10                	mov    %edx,(%rax)
    d70f:	8b 85 0c f0 ff ff    	mov    -0xff4(%rbp),%eax
    d715:	0f b6 d8             	movzbl %al,%ebx
    d718:	48 8b 85 20 f2 ff ff 	mov    -0xde0(%rbp),%rax
    d71f:	41 89 c5             	mov    %eax,%r13d
    d722:	48 8b 05 c7 83 01 00 	mov    0x183c7(%rip),%rax        # 25af0 <g_760>
    d729:	48 8b 00             	mov    (%rax),%rax
    d72c:	48 39 85 18 f2 ff ff 	cmp    %rax,-0xde8(%rbp)
    d733:	0f 94 c0             	sete   %al
    d736:	0f b6 c0             	movzbl %al,%eax
    d739:	be 01 00 00 00       	mov    $0x1,%esi
    d73e:	89 c7                	mov    %eax,%edi
    d740:	e8 03 b7 ff ff       	callq  8e48 <safe_rshift_func_uint16_t_u_s>
    d745:	44 8b a5 bc ef ff ff 	mov    -0x1044(%rbp),%r12d
    d74c:	0f b7 05 35 59 01 00 	movzwl 0x15935(%rip),%eax        # 23088 <g_162>
    d753:	0f b7 d0             	movzwl %ax,%edx
    d756:	48 83 bd b0 ef ff ff 	cmpq   $0x0,-0x1050(%rbp)
    d75d:	00 
    d75e:	0f 95 c0             	setne  %al
    d761:	0f b6 c0             	movzbl %al,%eax
    d764:	89 d6                	mov    %edx,%esi
    d766:	89 c7                	mov    %eax,%edi
    d768:	e8 ef b5 ff ff       	callq  8d5c <safe_mod_func_uint16_t_u_u>
    d76d:	98                   	cwtl   
    d76e:	44 89 e6             	mov    %r12d,%esi
    d771:	89 c7                	mov    %eax,%edi
    d773:	e8 69 ad ff ff       	callq  84e1 <safe_lshift_func_int16_t_s_u>
    d778:	66 85 c0             	test   %ax,%ax
    d77b:	75 0a                	jne    d787 <func_6+0x3dc6>
    d77d:	8b 85 d8 f4 ff ff    	mov    -0xb28(%rbp),%eax
    d783:	85 c0                	test   %eax,%eax
    d785:	74 07                	je     d78e <func_6+0x3dcd>
    d787:	b8 01 00 00 00       	mov    $0x1,%eax
    d78c:	eb 05                	jmp    d793 <func_6+0x3dd2>
    d78e:	b8 00 00 00 00       	mov    $0x0,%eax
    d793:	89 c2                	mov    %eax,%edx
    d795:	0f be 85 d1 ef ff ff 	movsbl -0x102f(%rbp),%eax
    d79c:	89 d6                	mov    %edx,%esi
    d79e:	89 c7                	mov    %eax,%edi
    d7a0:	e8 80 b7 ff ff       	callq  8f25 <safe_div_func_uint32_t_u_u>
    d7a5:	89 c2                	mov    %eax,%edx
    d7a7:	8b 05 23 5c 01 00    	mov    0x15c23(%rip),%eax        # 233d0 <g_1114>
    d7ad:	0f b6 c0             	movzbl %al,%eax
    d7b0:	89 d6                	mov    %edx,%esi
    d7b2:	89 c7                	mov    %eax,%edi
    d7b4:	e8 d4 b4 ff ff       	callq  8c8d <safe_rshift_func_uint8_t_u_s>
    d7b9:	0f b6 c0             	movzbl %al,%eax
    d7bc:	be 06 00 00 00       	mov    $0x6,%esi
    d7c1:	89 c7                	mov    %eax,%edi
    d7c3:	e8 57 b5 ff ff       	callq  8d1f <safe_sub_func_uint16_t_u_u>
    d7c8:	0f be 85 d1 ef ff ff 	movsbl -0x102f(%rbp),%eax
    d7cf:	be 05 00 00 00       	mov    $0x5,%esi
    d7d4:	89 c7                	mov    %eax,%edi
    d7d6:	e8 91 ab ff ff       	callq  836c <safe_rshift_func_int8_t_s_u>
    d7db:	0f be c0             	movsbl %al,%eax
    d7de:	ba f9 ff ff ff       	mov    $0xfffffff9,%edx
    d7e3:	48 39 95 20 f2 ff ff 	cmp    %rdx,-0xde0(%rbp)
    d7ea:	0f 95 c2             	setne  %dl
    d7ed:	0f b6 ca             	movzbl %dl,%ecx
    d7f0:	8b 15 e6 5b 01 00    	mov    0x15be6(%rip),%edx        # 233dc <g_1183>
    d7f6:	09 ca                	or     %ecx,%edx
    d7f8:	39 d0                	cmp    %edx,%eax
    d7fa:	8b 85 bc ef ff ff    	mov    -0x1044(%rbp),%eax
    d800:	48 98                	cltq   
    d802:	48 23 85 90 f0 ff ff 	and    -0xf70(%rbp),%rax
    d809:	8b 95 b8 ef ff ff    	mov    -0x1048(%rbp),%edx
    d80f:	89 d2                	mov    %edx,%edx
    d811:	48 21 d0             	and    %rdx,%rax
    d814:	48 85 c0             	test   %rax,%rax
    d817:	74 07                	je     d820 <func_6+0x3e5f>
    d819:	b8 01 00 00 00       	mov    $0x1,%eax
    d81e:	eb 05                	jmp    d825 <func_6+0x3e64>
    d820:	b8 00 00 00 00       	mov    $0x0,%eax
    d825:	44 89 ee             	mov    %r13d,%esi
    d828:	89 c7                	mov    %eax,%edi
    d82a:	e8 d6 ad ff ff       	callq  8605 <safe_sub_func_int32_t_s_s>
    d82f:	0f b6 c0             	movzbl %al,%eax
    d832:	25 fd 00 00 00       	and    $0xfd,%eax
    d837:	89 de                	mov    %ebx,%esi
    d839:	89 c7                	mov    %eax,%edi
    d83b:	e8 38 b3 ff ff       	callq  8b78 <safe_sub_func_uint8_t_u_u>
    d840:	8b 85 dc ef ff ff    	mov    -0x1024(%rbp),%eax
    d846:	83 f8 01             	cmp    $0x1,%eax
    d849:	0f 94 c0             	sete   %al
    d84c:	0f b6 d0             	movzbl %al,%edx
    d84f:	48 8d 05 82 5b 01 00 	lea    0x15b82(%rip),%rax        # 233d8 <g_1182>
    d856:	48 39 85 b8 f0 ff ff 	cmp    %rax,-0xf48(%rbp)
    d85d:	0f 95 c0             	setne  %al
    d860:	0f b6 c0             	movzbl %al,%eax
    d863:	89 d6                	mov    %edx,%esi
    d865:	89 c7                	mov    %eax,%edi
    d867:	e8 68 a9 ff ff       	callq  81d4 <safe_add_func_int8_t_s_s>
    d86c:	0f be c0             	movsbl %al,%eax
    d86f:	31 85 74 f0 ff ff    	xor    %eax,-0xf8c(%rbp)
    d875:	48 8b 85 a8 ef ff ff 	mov    -0x1058(%rbp),%rax
    d87c:	0f b7 c0             	movzwl %ax,%eax
    d87f:	be 08 00 00 00       	mov    $0x8,%esi
    d884:	89 c7                	mov    %eax,%edi
    d886:	e8 74 b4 ff ff       	callq  8cff <safe_add_func_uint16_t_u_u>
    d88b:	0f b7 c0             	movzwl %ax,%eax
    d88e:	48 89 85 a8 ef ff ff 	mov    %rax,-0x1058(%rbp)
    d895:	48 83 bd a8 ef ff ff 	cmpq   $0x2c,-0x1058(%rbp)
    d89c:	2c 
    d89d:	0f 86 e3 fc ff ff    	jbe    d586 <func_6+0x3bc5>
    d8a3:	8b 85 bc ef ff ff    	mov    -0x1044(%rbp),%eax
    d8a9:	48 8b 5d c8          	mov    -0x38(%rbp),%rbx
    d8ad:	64 48 33 1c 25 28 00 	xor    %fs:0x28,%rbx
    d8b4:	00 00 
    d8b6:	74 05                	je     d8bd <func_6+0x3efc>
    d8b8:	e8 b3 a7 ff ff       	callq  8070 <__stack_chk_fail@plt>
    d8bd:	48 81 c4 38 10 00 00 	add    $0x1038,%rsp
    d8c4:	5b                   	pop    %rbx
    d8c5:	41 5c                	pop    %r12
    d8c7:	41 5d                	pop    %r13
    d8c9:	41 5e                	pop    %r14
    d8cb:	41 5f                	pop    %r15
    d8cd:	5d                   	pop    %rbp
    d8ce:	c3                   	retq   

000000000000d8cf <func_12>:
    d8cf:	f3 0f 1e fa          	endbr64 
    d8d3:	55                   	push   %rbp
    d8d4:	48 89 e5             	mov    %rsp,%rbp
    d8d7:	41 55                	push   %r13
    d8d9:	41 54                	push   %r12
    d8db:	53                   	push   %rbx
    d8dc:	48 81 ec 00 10 00 00 	sub    $0x1000,%rsp
    d8e3:	48 83 0c 24 00       	orq    $0x0,(%rsp)
    d8e8:	48 81 ec a8 02 00 00 	sub    $0x2a8,%rsp
    d8ef:	89 f0                	mov    %esi,%eax
    d8f1:	89 95 54 ed ff ff    	mov    %edx,-0x12ac(%rbp)
    d8f7:	48 89 8d 48 ed ff ff 	mov    %rcx,-0x12b8(%rbp)
    d8fe:	89 fa                	mov    %edi,%edx
    d900:	66 89 95 5c ed ff ff 	mov    %dx,-0x12a4(%rbp)
    d907:	66 89 85 58 ed ff ff 	mov    %ax,-0x12a8(%rbp)
    d90e:	64 48 8b 04 25 28 00 	mov    %fs:0x28,%rax
    d915:	00 00 
    d917:	48 89 45 d8          	mov    %rax,-0x28(%rbp)
    d91b:	31 c0                	xor    %eax,%eax
    d91d:	c7 85 7c ed ff ff 01 	movl   $0x1,-0x1284(%rbp)
    d924:	00 00 00 
    d927:	48 8d 05 3a 83 01 00 	lea    0x1833a(%rip),%rax        # 25c68 <g_1268+0x128>
    d92e:	48 89 85 40 ee ff ff 	mov    %rax,-0x11c0(%rbp)
    d935:	48 8d 05 04 86 01 00 	lea    0x18604(%rip),%rax        # 25f40 <g_1267>
    d93c:	48 89 85 90 ee ff ff 	mov    %rax,-0x1170(%rbp)
    d943:	48 c7 85 98 ee ff ff 	movq   $0x0,-0x1168(%rbp)
    d94a:	00 00 00 00 
    d94e:	48 8d 05 29 57 01 00 	lea    0x15729(%rip),%rax        # 2307e <g_158+0x1e>
    d955:	48 89 85 a0 ee ff ff 	mov    %rax,-0x1160(%rbp)
    d95c:	48 8d 05 65 5a 01 00 	lea    0x15a65(%rip),%rax        # 233c8 <g_1079>
    d963:	48 89 85 48 ee ff ff 	mov    %rax,-0x11b8(%rbp)
    d96a:	c7 85 80 ed ff ff 3d 	movl   $0xff7ea3d,-0x1280(%rbp)
    d971:	ea f7 0f 
    d974:	c7 85 84 ed ff ff 36 	movl   $0x41305a36,-0x127c(%rbp)
    d97b:	5a 30 41 
    d97e:	66 c7 85 6c ed ff ff 	movw   $0xac4,-0x1294(%rbp)
    d985:	c4 0a 
    d987:	c7 85 88 ed ff ff 51 	movl   $0x66785951,-0x1278(%rbp)
    d98e:	59 78 66 
    d991:	c7 85 8c ed ff ff ff 	movl   $0xffffffff,-0x1274(%rbp)
    d998:	ff ff ff 
    d99b:	c7 85 90 ed ff ff 38 	movl   $0x15133838,-0x1270(%rbp)
    d9a2:	38 13 15 
    d9a5:	c7 85 d0 f2 ff ff f8 	movl   $0xfffffff8,-0xd30(%rbp)
    d9ac:	ff ff ff 
    d9af:	c7 85 d4 f2 ff ff 81 	movl   $0x9ef6b381,-0xd2c(%rbp)
    d9b6:	b3 f6 9e 
    d9b9:	c7 85 d8 f2 ff ff f8 	movl   $0xfffffff8,-0xd28(%rbp)
    d9c0:	ff ff ff 
    d9c3:	c7 85 dc f2 ff ff 00 	movl   $0x96272500,-0xd24(%rbp)
    d9ca:	25 27 96 
    d9cd:	c7 85 e0 f2 ff ff b5 	movl   $0xd0489bb5,-0xd20(%rbp)
    d9d4:	9b 48 d0 
    d9d7:	c7 85 e4 f2 ff ff 81 	movl   $0x9ef6b381,-0xd1c(%rbp)
    d9de:	b3 f6 9e 
    d9e1:	c7 85 e8 f2 ff ff 7d 	movl   $0xf648c77d,-0xd18(%rbp)
    d9e8:	c7 48 f6 
    d9eb:	c7 85 ec f2 ff ff 81 	movl   $0x9ef6b381,-0xd14(%rbp)
    d9f2:	b3 f6 9e 
    d9f5:	c7 85 f0 f2 ff ff b5 	movl   $0xd0489bb5,-0xd10(%rbp)
    d9fc:	9b 48 d0 
    d9ff:	c7 85 f4 f2 ff ff 00 	movl   $0x96272500,-0xd0c(%rbp)
    da06:	25 27 96 
    da09:	c7 85 f8 f2 ff ff f8 	movl   $0xfffffff8,-0xd08(%rbp)
    da10:	ff ff ff 
    da13:	c7 85 fc f2 ff ff 81 	movl   $0x9ef6b381,-0xd04(%rbp)
    da1a:	b3 f6 9e 
    da1d:	c7 85 00 f3 ff ff f8 	movl   $0xfffffff8,-0xd00(%rbp)
    da24:	ff ff ff 
    da27:	c7 85 04 f3 ff ff 81 	movl   $0x9ef6b381,-0xcfc(%rbp)
    da2e:	b3 f6 9e 
    da31:	c7 85 08 f3 ff ff f8 	movl   $0xfffffff8,-0xcf8(%rbp)
    da38:	ff ff ff 
    da3b:	c7 85 0c f3 ff ff 00 	movl   $0x96272500,-0xcf4(%rbp)
    da42:	25 27 96 
    da45:	c7 85 10 f3 ff ff b5 	movl   $0xd0489bb5,-0xcf0(%rbp)
    da4c:	9b 48 d0 
    da4f:	c7 85 14 f3 ff ff 81 	movl   $0x9ef6b381,-0xcec(%rbp)
    da56:	b3 f6 9e 
    da59:	c7 85 18 f3 ff ff 7d 	movl   $0xf648c77d,-0xce8(%rbp)
    da60:	c7 48 f6 
    da63:	c7 85 1c f3 ff ff 81 	movl   $0x9ef6b381,-0xce4(%rbp)
    da6a:	b3 f6 9e 
    da6d:	c7 85 20 f3 ff ff b5 	movl   $0xd0489bb5,-0xce0(%rbp)
    da74:	9b 48 d0 
    da77:	c7 85 24 f3 ff ff 00 	movl   $0x96272500,-0xcdc(%rbp)
    da7e:	25 27 96 
    da81:	c7 85 28 f3 ff ff f8 	movl   $0xfffffff8,-0xcd8(%rbp)
    da88:	ff ff ff 
    da8b:	c7 85 2c f3 ff ff 81 	movl   $0x9ef6b381,-0xcd4(%rbp)
    da92:	b3 f6 9e 
    da95:	c7 85 30 f3 ff ff f8 	movl   $0xfffffff8,-0xcd0(%rbp)
    da9c:	ff ff ff 
    da9f:	c7 85 34 f3 ff ff 81 	movl   $0x9ef6b381,-0xccc(%rbp)
    daa6:	b3 f6 9e 
    daa9:	c7 85 38 f3 ff ff f8 	movl   $0xfffffff8,-0xcc8(%rbp)
    dab0:	ff ff ff 
    dab3:	c7 85 3c f3 ff ff 00 	movl   $0x96272500,-0xcc4(%rbp)
    daba:	25 27 96 
    dabd:	c7 85 40 f3 ff ff b5 	movl   $0xd0489bb5,-0xcc0(%rbp)
    dac4:	9b 48 d0 
    dac7:	c7 85 44 f3 ff ff 81 	movl   $0x9ef6b381,-0xcbc(%rbp)
    dace:	b3 f6 9e 
    dad1:	c7 85 48 f3 ff ff 7d 	movl   $0xf648c77d,-0xcb8(%rbp)
    dad8:	c7 48 f6 
    dadb:	c7 85 4c f3 ff ff 81 	movl   $0x9ef6b381,-0xcb4(%rbp)
    dae2:	b3 f6 9e 
    dae5:	c7 85 50 f3 ff ff b5 	movl   $0xd0489bb5,-0xcb0(%rbp)
    daec:	9b 48 d0 
    daef:	c7 85 54 f3 ff ff 00 	movl   $0x96272500,-0xcac(%rbp)
    daf6:	25 27 96 
    daf9:	c7 85 58 f3 ff ff f8 	movl   $0xfffffff8,-0xca8(%rbp)
    db00:	ff ff ff 
    db03:	c7 85 5c f3 ff ff 81 	movl   $0x9ef6b381,-0xca4(%rbp)
    db0a:	b3 f6 9e 
    db0d:	c7 85 60 f3 ff ff f8 	movl   $0xfffffff8,-0xca0(%rbp)
    db14:	ff ff ff 
    db17:	c7 85 64 f3 ff ff 81 	movl   $0x9ef6b381,-0xc9c(%rbp)
    db1e:	b3 f6 9e 
    db21:	c7 85 68 f3 ff ff f8 	movl   $0xfffffff8,-0xc98(%rbp)
    db28:	ff ff ff 
    db2b:	c7 85 6c f3 ff ff 00 	movl   $0x96272500,-0xc94(%rbp)
    db32:	25 27 96 
    db35:	c7 85 70 f3 ff ff b5 	movl   $0xd0489bb5,-0xc90(%rbp)
    db3c:	9b 48 d0 
    db3f:	c7 85 74 f3 ff ff 81 	movl   $0x9ef6b381,-0xc8c(%rbp)
    db46:	b3 f6 9e 
    db49:	c7 85 78 f3 ff ff 7d 	movl   $0xf648c77d,-0xc88(%rbp)
    db50:	c7 48 f6 
    db53:	c7 85 7c f3 ff ff 81 	movl   $0x9ef6b381,-0xc84(%rbp)
    db5a:	b3 f6 9e 
    db5d:	c7 85 80 f3 ff ff b5 	movl   $0xd0489bb5,-0xc80(%rbp)
    db64:	9b 48 d0 
    db67:	c7 85 84 f3 ff ff 00 	movl   $0x96272500,-0xc7c(%rbp)
    db6e:	25 27 96 
    db71:	c7 85 88 f3 ff ff f8 	movl   $0xfffffff8,-0xc78(%rbp)
    db78:	ff ff ff 
    db7b:	c7 85 8c f3 ff ff 81 	movl   $0x9ef6b381,-0xc74(%rbp)
    db82:	b3 f6 9e 
    db85:	66 c7 85 6e ed ff ff 	movw   $0x869a,-0x1292(%rbp)
    db8c:	9a 86 
    db8e:	c7 85 d8 ed ff ff 02 	movl   $0x2,-0x1228(%rbp)
    db95:	00 00 00 
    db98:	48 8d 05 41 79 01 00 	lea    0x17941(%rip),%rax        # 254e0 <g_447+0x1e0>
    db9f:	48 89 85 a8 ee ff ff 	mov    %rax,-0x1158(%rbp)
    dba6:	48 8d 85 d0 f2 ff ff 	lea    -0xd30(%rbp),%rax
    dbad:	48 05 88 00 00 00    	add    $0x88,%rax
    dbb3:	48 89 85 b0 ee ff ff 	mov    %rax,-0x1150(%rbp)
    dbba:	48 8d 05 9c 54 01 00 	lea    0x1549c(%rip),%rax        # 2305d <g_150>
    dbc1:	48 89 85 50 ee ff ff 	mov    %rax,-0x11b0(%rbp)
    dbc8:	48 8d 85 50 ee ff ff 	lea    -0x11b0(%rbp),%rax
    dbcf:	48 89 85 b8 ee ff ff 	mov    %rax,-0x1148(%rbp)
    dbd6:	c7 85 94 ed ff ff 06 	movl   $0x6,-0x126c(%rbp)
    dbdd:	00 00 00 
    dbe0:	48 8d 05 f1 83 01 00 	lea    0x183f1(%rip),%rax        # 25fd8 <g_1469>
    dbe7:	48 89 85 c0 ee ff ff 	mov    %rax,-0x1140(%rbp)
    dbee:	48 8d 05 63 04 01 00 	lea    0x10463(%rip),%rax        # 1e058 <g_1991>
    dbf5:	48 89 85 58 ee ff ff 	mov    %rax,-0x11a8(%rbp)
    dbfc:	48 8d 85 58 ee ff ff 	lea    -0x11a8(%rbp),%rax
    dc03:	48 89 85 60 ee ff ff 	mov    %rax,-0x11a0(%rbp)
    dc0a:	48 8d 05 77 78 01 00 	lea    0x17877(%rip),%rax        # 25488 <g_447+0x188>
    dc11:	48 89 85 c8 ee ff ff 	mov    %rax,-0x1138(%rbp)
    dc18:	66 c7 85 70 ed ff ff 	movw   $0x1,-0x1290(%rbp)
    dc1f:	01 00 
    dc21:	48 c7 85 68 ee ff ff 	movq   $0x0,-0x1198(%rbp)
    dc28:	00 00 00 00 
    dc2c:	48 b8 4a 3d a3 44 e3 	movabs $0xe0ba43e344a33d4a,%rax
    dc33:	43 ba e0 
    dc36:	48 89 85 d0 ee ff ff 	mov    %rax,-0x1130(%rbp)
    dc3d:	c7 85 c0 f0 ff ff 21 	movl   $0xfbfefb21,-0xf40(%rbp)
    dc44:	fb fe fb 
    dc47:	66 c7 85 c4 f0 ff ff 	movw   $0xff21,-0xf3c(%rbp)
    dc4e:	21 ff 
    dc50:	c6 85 c6 f0 ff ff ff 	movb   $0xff,-0xf3a(%rbp)
    dc57:	c7 85 c7 f0 ff ff ff 	movl   $0x3bff3bff,-0xf39(%rbp)
    dc5e:	3b ff 3b 
    dc61:	66 c7 85 cb f0 ff ff 	movw   $0xffff,-0xf35(%rbp)
    dc68:	ff ff 
    dc6a:	c6 85 cd f0 ff ff ff 	movb   $0xff,-0xf33(%rbp)
    dc71:	c7 85 ce f0 ff ff 21 	movl   $0xfbfefb21,-0xf32(%rbp)
    dc78:	fb fe fb 
    dc7b:	66 c7 85 d2 f0 ff ff 	movw   $0xff21,-0xf2e(%rbp)
    dc82:	21 ff 
    dc84:	c6 85 d4 f0 ff ff ff 	movb   $0xff,-0xf2c(%rbp)
    dc8b:	c7 85 d5 f0 ff ff ff 	movl   $0x3bff3bff,-0xf2b(%rbp)
    dc92:	3b ff 3b 
    dc95:	66 c7 85 d9 f0 ff ff 	movw   $0xffff,-0xf27(%rbp)
    dc9c:	ff ff 
    dc9e:	c6 85 db f0 ff ff ff 	movb   $0xff,-0xf25(%rbp)
    dca5:	66 c7 85 72 ed ff ff 	movw   $0xaf4,-0x128e(%rbp)
    dcac:	f4 0a 
    dcae:	48 b8 39 f7 c6 c2 40 	movabs $0xc6c04840c2c6f739,%rax
    dcb5:	48 c0 c6 
    dcb8:	48 89 85 d8 ee ff ff 	mov    %rax,-0x1128(%rbp)
    dcbf:	48 c7 85 e0 ee ff ff 	movq   $0x0,-0x1120(%rbp)
    dcc6:	00 00 00 00 
    dcca:	c7 85 b8 ed ff ff 00 	movl   $0x0,-0x1248(%rbp)
    dcd1:	00 00 00 
    dcd4:	eb 1a                	jmp    dcf0 <func_12+0x421>
    dcd6:	8b 85 b8 ed ff ff    	mov    -0x1248(%rbp),%eax
    dcdc:	48 98                	cltq   
    dcde:	c7 84 85 80 f0 ff ff 	movl   $0xffffffff,-0xf80(%rbp,%rax,4)
    dce5:	ff ff ff ff 
    dce9:	83 85 b8 ed ff ff 01 	addl   $0x1,-0x1248(%rbp)
    dcf0:	83 bd b8 ed ff ff 04 	cmpl   $0x4,-0x1248(%rbp)
    dcf7:	7e dd                	jle    dcd6 <func_12+0x407>
    dcf9:	c7 85 b8 ed ff ff 00 	movl   $0x0,-0x1248(%rbp)
    dd00:	00 00 00 
    dd03:	eb 1e                	jmp    dd23 <func_12+0x454>
    dd05:	8b 85 b8 ed ff ff    	mov    -0x1248(%rbp),%eax
    dd0b:	48 98                	cltq   
    dd0d:	48 8d 95 68 ee ff ff 	lea    -0x1198(%rbp),%rdx
    dd14:	48 89 94 c5 70 f0 ff 	mov    %rdx,-0xf90(%rbp,%rax,8)
    dd1b:	ff 
    dd1c:	83 85 b8 ed ff ff 01 	addl   $0x1,-0x1248(%rbp)
    dd23:	83 bd b8 ed ff ff 01 	cmpl   $0x1,-0x1248(%rbp)
    dd2a:	7e d9                	jle    dd05 <func_12+0x436>
    dd2c:	8b 85 7c ed ff ff    	mov    -0x1284(%rbp),%eax
    dd32:	48 63 d8             	movslq %eax,%rbx
    dd35:	0f b7 05 74 56 01 00 	movzwl 0x15674(%rip),%eax        # 233b0 <g_987>
    dd3c:	44 0f b7 e0          	movzwl %ax,%r12d
    dd40:	48 8b 95 40 ee ff ff 	mov    -0x11c0(%rbp),%rdx
    dd47:	48 8b 85 90 ee ff ff 	mov    -0x1170(%rbp),%rax
    dd4e:	48 89 10             	mov    %rdx,(%rax)
    dd51:	8b 85 54 ed ff ff    	mov    -0x12ac(%rbp),%eax
    dd57:	0f b7 c0             	movzwl %ax,%eax
    dd5a:	be 01 00 00 00       	mov    $0x1,%esi
    dd5f:	89 c7                	mov    %eax,%edi
    dd61:	e8 f6 af ff ff       	callq  8d5c <safe_mod_func_uint16_t_u_u>
    dd66:	66 25 1b 08          	and    $0x81b,%ax
    dd6a:	89 c2                	mov    %eax,%edx
    dd6c:	48 8b 85 a0 ee ff ff 	mov    -0x1160(%rbp),%rax
    dd73:	66 89 10             	mov    %dx,(%rax)
    dd76:	48 8b 85 a0 ee ff ff 	mov    -0x1160(%rbp),%rax
    dd7d:	0f b7 00             	movzwl (%rax),%eax
    dd80:	44 0f bf e8          	movswl %ax,%r13d
    dd84:	be 00 00 00 00       	mov    $0x0,%esi
    dd89:	bf 06 00 00 00       	mov    $0x6,%edi
    dd8e:	e8 5f a4 ff ff       	callq  81f2 <safe_sub_func_int8_t_s_s>
    dd93:	0f be c0             	movsbl %al,%eax
    dd96:	44 89 ee             	mov    %r13d,%esi
    dd99:	89 c7                	mov    %eax,%edi
    dd9b:	e8 33 a6 ff ff       	callq  83d3 <safe_sub_func_int16_t_s_s>
    dda0:	0f b7 d0             	movzwl %ax,%edx
    dda3:	8b 85 7c ed ff ff    	mov    -0x1284(%rbp),%eax
    dda9:	85 c0                	test   %eax,%eax
    ddab:	75 19                	jne    ddc6 <func_12+0x4f7>
    ddad:	48 8b 05 3c 6d 01 00 	mov    0x16d3c(%rip),%rax        # 24af0 <g_101>
    ddb4:	c7 00 2e 85 6c ac    	movl   $0xac6c852e,(%rax)
    ddba:	8b 08                	mov    (%rax),%ecx
    ddbc:	8b 85 7c ed ff ff    	mov    -0x1284(%rbp),%eax
    ddc2:	39 c1                	cmp    %eax,%ecx
    ddc4:	7c 07                	jl     ddcd <func_12+0x4fe>
    ddc6:	b8 01 00 00 00       	mov    $0x1,%eax
    ddcb:	eb 05                	jmp    ddd2 <func_12+0x503>
    ddcd:	b8 00 00 00 00       	mov    $0x0,%eax
    ddd2:	0f b7 c0             	movzwl %ax,%eax
    ddd5:	89 d6                	mov    %edx,%esi
    ddd7:	89 c7                	mov    %eax,%edi
    ddd9:	e8 41 af ff ff       	callq  8d1f <safe_sub_func_uint16_t_u_u>
    ddde:	98                   	cwtl   
    dddf:	44 89 e6             	mov    %r12d,%esi
    dde2:	89 c7                	mov    %eax,%edi
    dde4:	e8 41 a7 ff ff       	callq  852a <safe_rshift_func_int16_t_s_s>
    dde9:	48 8b 85 48 ed ff ff 	mov    -0x12b8(%rbp),%rax
    ddf0:	0f b6 00             	movzbl (%rax),%eax
    ddf3:	0f be d0             	movsbl %al,%edx
    ddf6:	0f b7 85 58 ed ff ff 	movzwl -0x12a8(%rbp),%eax
    ddfd:	39 c2                	cmp    %eax,%edx
    ddff:	0f 94 c0             	sete   %al
    de02:	0f b6 d0             	movzbl %al,%edx
    de05:	0f b6 05 ce 52 01 00 	movzbl 0x152ce(%rip),%eax        # 230da <g_254+0xa>
    de0c:	0f b6 c0             	movzbl %al,%eax
    de0f:	39 c2                	cmp    %eax,%edx
    de11:	48 8b 85 48 ee ff ff 	mov    -0x11b8(%rbp),%rax
    de18:	48 b9 96 63 26 c8 2b 	movabs $0x424a162bc8266396,%rcx
    de1f:	16 4a 42 
    de22:	48 89 08             	mov    %rcx,(%rax)
    de25:	48 8b 00             	mov    (%rax),%rax
    de28:	48 89 de             	mov    %rbx,%rsi
    de2b:	48 89 c7             	mov    %rax,%rdi
    de2e:	e8 4d b2 ff ff       	callq  9080 <safe_mod_func_uint64_t_u_u>
    de33:	48 85 c0             	test   %rax,%rax
    de36:	0f 84 b5 1b 00 00    	je     f9f1 <func_12+0x2122>
    de3c:	48 c7 85 00 ef ff ff 	movq   $0xffffffffffffffff,-0x1100(%rbp)
    de43:	ff ff ff ff 
    de47:	48 8d 85 48 ee ff ff 	lea    -0x11b8(%rbp),%rax
    de4e:	48 89 85 70 ee ff ff 	mov    %rax,-0x1190(%rbp)
    de55:	c7 85 bc ed ff ff f4 	movl   $0x661f12f4,-0x1244(%rbp)
    de5c:	12 1f 66 
    de5f:	48 8d 05 76 55 01 00 	lea    0x15576(%rip),%rax        # 233dc <g_1183>
    de66:	48 89 85 08 ef ff ff 	mov    %rax,-0x10f8(%rbp)
    de6d:	48 8d 05 64 78 01 00 	lea    0x17864(%rip),%rax        # 256d8 <g_447+0x3d8>
    de74:	48 89 85 10 ef ff ff 	mov    %rax,-0x10f0(%rbp)
    de7b:	c7 85 e0 f0 ff ff 50 	movl   $0xf2974550,-0xf20(%rbp)
    de82:	45 97 f2 
    de85:	c7 85 e4 f0 ff ff 50 	movl   $0xf2974550,-0xf1c(%rbp)
    de8c:	45 97 f2 
    de8f:	c7 85 e8 f0 ff ff 50 	movl   $0xf2974550,-0xf18(%rbp)
    de96:	45 97 f2 
    de99:	c7 85 ec f0 ff ff 50 	movl   $0xf2974550,-0xf14(%rbp)
    dea0:	45 97 f2 
    dea3:	c7 85 f0 f0 ff ff 50 	movl   $0xf2974550,-0xf10(%rbp)
    deaa:	45 97 f2 
    dead:	c7 85 f4 f0 ff ff 50 	movl   $0xf2974550,-0xf0c(%rbp)
    deb4:	45 97 f2 
    deb7:	c7 85 f8 f0 ff ff 50 	movl   $0xf2974550,-0xf08(%rbp)
    debe:	45 97 f2 
    dec1:	c7 85 fc f0 ff ff 50 	movl   $0xf2974550,-0xf04(%rbp)
    dec8:	45 97 f2 
    decb:	66 c7 85 76 ed ff ff 	movw   $0xfffb,-0x128a(%rbp)
    ded2:	fb ff 
    ded4:	48 8d 85 7c ed ff ff 	lea    -0x1284(%rbp),%rax
    dedb:	48 89 85 18 ef ff ff 	mov    %rax,-0x10e8(%rbp)
    dee2:	8b 85 7c ed ff ff    	mov    -0x1284(%rbp),%eax
    dee8:	85 c0                	test   %eax,%eax
    deea:	0f 84 f9 01 00 00    	je     e0e9 <func_12+0x81a>
    def0:	c7 85 08 ee ff ff fd 	movl   $0xfffffffd,-0x11f8(%rbp)
    def7:	ff ff ff 
    defa:	48 8d 05 87 51 01 00 	lea    0x15187(%rip),%rax        # 23088 <g_162>
    df01:	48 89 85 f0 f7 ff ff 	mov    %rax,-0x810(%rbp)
    df08:	48 8d 05 79 51 01 00 	lea    0x15179(%rip),%rax        # 23088 <g_162>
    df0f:	48 89 85 f8 f7 ff ff 	mov    %rax,-0x808(%rbp)
    df16:	48 8d 05 6b 51 01 00 	lea    0x1516b(%rip),%rax        # 23088 <g_162>
    df1d:	48 89 85 00 f8 ff ff 	mov    %rax,-0x800(%rbp)
    df24:	48 8d 05 5d 51 01 00 	lea    0x1515d(%rip),%rax        # 23088 <g_162>
    df2b:	48 89 85 08 f8 ff ff 	mov    %rax,-0x7f8(%rbp)
    df32:	48 8d 05 4f 51 01 00 	lea    0x1514f(%rip),%rax        # 23088 <g_162>
    df39:	48 89 85 10 f8 ff ff 	mov    %rax,-0x7f0(%rbp)
    df40:	48 8d 05 41 51 01 00 	lea    0x15141(%rip),%rax        # 23088 <g_162>
    df47:	48 89 85 18 f8 ff ff 	mov    %rax,-0x7e8(%rbp)
    df4e:	48 8d 05 33 51 01 00 	lea    0x15133(%rip),%rax        # 23088 <g_162>
    df55:	48 89 85 20 f8 ff ff 	mov    %rax,-0x7e0(%rbp)
    df5c:	48 8d 05 25 51 01 00 	lea    0x15125(%rip),%rax        # 23088 <g_162>
    df63:	48 89 85 28 f8 ff ff 	mov    %rax,-0x7d8(%rbp)
    df6a:	48 8d 05 17 51 01 00 	lea    0x15117(%rip),%rax        # 23088 <g_162>
    df71:	48 89 85 30 f8 ff ff 	mov    %rax,-0x7d0(%rbp)
    df78:	48 8d 05 09 51 01 00 	lea    0x15109(%rip),%rax        # 23088 <g_162>
    df7f:	48 89 85 38 f8 ff ff 	mov    %rax,-0x7c8(%rbp)
    df86:	48 8d 85 f0 f7 ff ff 	lea    -0x810(%rbp),%rax
    df8d:	48 83 c0 20          	add    $0x20,%rax
    df91:	48 89 85 88 ee ff ff 	mov    %rax,-0x1178(%rbp)
    df98:	48 8d 85 88 ee ff ff 	lea    -0x1178(%rbp),%rax
    df9f:	48 89 85 60 ef ff ff 	mov    %rax,-0x10a0(%rbp)
    dfa6:	48 8b 05 93 54 01 00 	mov    0x15493(%rip),%rax        # 23440 <g_1527>
    dfad:	48 8b 85 48 ed ff ff 	mov    -0x12b8(%rbp),%rax
    dfb4:	0f b6 00             	movzbl (%rax),%eax
    dfb7:	84 c0                	test   %al,%al
    dfb9:	74 53                	je     e00e <func_12+0x73f>
    dfbb:	8b 85 7c ed ff ff    	mov    -0x1284(%rbp),%eax
    dfc1:	48 63 d0             	movslq %eax,%rdx
    dfc4:	8b 85 7c ed ff ff    	mov    -0x1284(%rbp),%eax
    dfca:	48 98                	cltq   
    dfcc:	48 89 d6             	mov    %rdx,%rsi
    dfcf:	48 89 c7             	mov    %rax,%rdi
    dfd2:	e8 74 b0 ff ff       	callq  904b <safe_sub_func_uint64_t_u_u>
    dfd7:	89 c2                	mov    %eax,%edx
    dfd9:	48 8b 85 00 ef ff ff 	mov    -0x1100(%rbp),%rax
    dfe0:	09 d0                	or     %edx,%eax
    dfe2:	89 c3                	mov    %eax,%ebx
    dfe4:	48 8b 85 00 ef ff ff 	mov    -0x1100(%rbp),%rax
    dfeb:	8b 15 e7 53 01 00    	mov    0x153e7(%rip),%edx        # 233d8 <g_1182>
    dff1:	89 d2                	mov    %edx,%edx
    dff3:	48 89 c6             	mov    %rax,%rsi
    dff6:	48 89 d7             	mov    %rdx,%rdi
    dff9:	e8 82 b0 ff ff       	callq  9080 <safe_mod_func_uint64_t_u_u>
    dffe:	89 de                	mov    %ebx,%esi
    e000:	89 c7                	mov    %eax,%edi
    e002:	e8 f8 a6 ff ff       	callq  86ff <safe_div_func_int32_t_s_s>
    e007:	b8 01 00 00 00       	mov    $0x1,%eax
    e00c:	eb 05                	jmp    e013 <func_12+0x744>
    e00e:	b8 00 00 00 00       	mov    $0x0,%eax
    e013:	83 e0 01             	and    $0x1,%eax
    e016:	85 c0                	test   %eax,%eax
    e018:	75 09                	jne    e023 <func_12+0x754>
    e01a:	83 bd 08 ee ff ff 00 	cmpl   $0x0,-0x11f8(%rbp)
    e021:	74 07                	je     e02a <func_12+0x75b>
    e023:	b9 01 00 00 00       	mov    $0x1,%ecx
    e028:	eb 05                	jmp    e02f <func_12+0x760>
    e02a:	b9 00 00 00 00       	mov    $0x0,%ecx
    e02f:	48 8b 05 ba 6a 01 00 	mov    0x16aba(%rip),%rax        # 24af0 <g_101>
    e036:	8b 10                	mov    (%rax),%edx
    e038:	48 8b 05 b1 6a 01 00 	mov    0x16ab1(%rip),%rax        # 24af0 <g_101>
    e03f:	09 ca                	or     %ecx,%edx
    e041:	89 10                	mov    %edx,(%rax)
    e043:	66 83 bd 5c ed ff ff 	cmpw   $0x0,-0x12a4(%rbp)
    e04a:	00 
    e04b:	0f 95 c0             	setne  %al
    e04e:	0f b6 c0             	movzbl %al,%eax
    e051:	89 85 08 ee ff ff    	mov    %eax,-0x11f8(%rbp)
    e057:	0f b6 05 f2 50 01 00 	movzbl 0x150f2(%rip),%eax        # 23150 <g_481+0x30>
    e05e:	84 c0                	test   %al,%al
    e060:	75 1d                	jne    e07f <func_12+0x7b0>
    e062:	0f b7 85 5c ed ff ff 	movzwl -0x12a4(%rbp),%eax
    e069:	89 c6                	mov    %eax,%esi
    e06b:	bf fb fd 00 00       	mov    $0xfdfb,%edi
    e070:	e8 c8 ac ff ff       	callq  8d3d <safe_mul_func_uint16_t_u_u>
    e075:	48 8b 05 3c 72 01 00 	mov    0x1723c(%rip),%rax        # 252b8 <g_443>
    e07c:	0f b7 00             	movzwl (%rax),%eax
    e07f:	b8 01 00 00 00       	mov    $0x1,%eax
    e084:	39 85 08 ee ff ff    	cmp    %eax,-0x11f8(%rbp)
    e08a:	74 07                	je     e093 <func_12+0x7c4>
    e08c:	ba 0d 7d 00 00       	mov    $0x7d0d,%edx
    e091:	eb 05                	jmp    e098 <func_12+0x7c9>
    e093:	ba 0c 7d 00 00       	mov    $0x7d0c,%edx
    e098:	48 8b 05 61 6a 01 00 	mov    0x16a61(%rip),%rax        # 24b00 <g_135>
    e09f:	48 8b 00             	mov    (%rax),%rax
    e0a2:	89 10                	mov    %edx,(%rax)
    e0a4:	8b 85 08 ee ff ff    	mov    -0x11f8(%rbp),%eax
    e0aa:	48 63 d8             	movslq %eax,%rbx
    e0ad:	8b 85 7c ed ff ff    	mov    -0x1284(%rbp),%eax
    e0b3:	0f be c0             	movsbl %al,%eax
    e0b6:	89 c6                	mov    %eax,%esi
    e0b8:	bf 01 00 00 00       	mov    $0x1,%edi
    e0bd:	e8 50 a1 ff ff       	callq  8212 <safe_mul_func_int8_t_s_s>
    e0c2:	0f be c0             	movsbl %al,%eax
    e0c5:	0b 85 08 ee ff ff    	or     -0x11f8(%rbp),%eax
    e0cb:	48 98                	cltq   
    e0cd:	48 89 de             	mov    %rbx,%rsi
    e0d0:	48 89 c7             	mov    %rax,%rdi
    e0d3:	e8 69 a7 ff ff       	callq  8841 <safe_add_func_int64_t_s_s>
    e0d8:	48 89 c2             	mov    %rax,%rdx
    e0db:	48 8b 05 0e 6a 01 00 	mov    0x16a0e(%rip),%rax        # 24af0 <g_101>
    e0e2:	89 10                	mov    %edx,(%rax)
    e0e4:	e9 d3 27 00 00       	jmpq   108bc <func_12+0x2fed>
    e0e9:	48 c7 85 d0 f4 ff ff 	movq   $0x0,-0xb30(%rbp)
    e0f0:	00 00 00 00 
    e0f4:	48 8d 05 4d 85 01 00 	lea    0x1854d(%rip),%rax        # 26648 <g_504>
    e0fb:	48 89 85 d8 f4 ff ff 	mov    %rax,-0xb28(%rbp)
    e102:	48 c7 85 e0 f4 ff ff 	movq   $0x0,-0xb20(%rbp)
    e109:	00 00 00 00 
    e10d:	48 8d 85 70 ee ff ff 	lea    -0x1190(%rbp),%rax
    e114:	48 89 85 e8 f4 ff ff 	mov    %rax,-0xb18(%rbp)
    e11b:	48 8d 85 70 ee ff ff 	lea    -0x1190(%rbp),%rax
    e122:	48 89 85 f0 f4 ff ff 	mov    %rax,-0xb10(%rbp)
    e129:	48 c7 85 f8 f4 ff ff 	movq   $0x0,-0xb08(%rbp)
    e130:	00 00 00 00 
    e134:	48 8d 05 0d 85 01 00 	lea    0x1850d(%rip),%rax        # 26648 <g_504>
    e13b:	48 89 85 00 f5 ff ff 	mov    %rax,-0xb00(%rbp)
    e142:	48 c7 85 08 f5 ff ff 	movq   $0x0,-0xaf8(%rbp)
    e149:	00 00 00 00 
    e14d:	48 8d 05 f4 84 01 00 	lea    0x184f4(%rip),%rax        # 26648 <g_504>
    e154:	48 89 85 10 f5 ff ff 	mov    %rax,-0xaf0(%rbp)
    e15b:	48 c7 85 18 f5 ff ff 	movq   $0x0,-0xae8(%rbp)
    e162:	00 00 00 00 
    e166:	48 c7 85 20 f5 ff ff 	movq   $0x0,-0xae0(%rbp)
    e16d:	00 00 00 00 
    e171:	48 c7 85 28 f5 ff ff 	movq   $0x0,-0xad8(%rbp)
    e178:	00 00 00 00 
    e17c:	48 c7 85 30 f5 ff ff 	movq   $0x0,-0xad0(%rbp)
    e183:	00 00 00 00 
    e187:	48 c7 85 38 f5 ff ff 	movq   $0x0,-0xac8(%rbp)
    e18e:	00 00 00 00 
    e192:	48 c7 85 40 f5 ff ff 	movq   $0x0,-0xac0(%rbp)
    e199:	00 00 00 00 
    e19d:	48 8d 85 70 ee ff ff 	lea    -0x1190(%rbp),%rax
    e1a4:	48 89 85 48 f5 ff ff 	mov    %rax,-0xab8(%rbp)
    e1ab:	48 c7 85 50 f5 ff ff 	movq   $0x0,-0xab0(%rbp)
    e1b2:	00 00 00 00 
    e1b6:	48 c7 85 58 f5 ff ff 	movq   $0x0,-0xaa8(%rbp)
    e1bd:	00 00 00 00 
    e1c1:	48 c7 85 60 f5 ff ff 	movq   $0x0,-0xaa0(%rbp)
    e1c8:	00 00 00 00 
    e1cc:	48 8d 05 75 84 01 00 	lea    0x18475(%rip),%rax        # 26648 <g_504>
    e1d3:	48 89 85 68 f5 ff ff 	mov    %rax,-0xa98(%rbp)
    e1da:	48 8d 05 67 84 01 00 	lea    0x18467(%rip),%rax        # 26648 <g_504>
    e1e1:	48 89 85 70 f5 ff ff 	mov    %rax,-0xa90(%rbp)
    e1e8:	48 c7 85 78 f5 ff ff 	movq   $0x0,-0xa88(%rbp)
    e1ef:	00 00 00 00 
    e1f3:	48 c7 85 80 f5 ff ff 	movq   $0x0,-0xa80(%rbp)
    e1fa:	00 00 00 00 
    e1fe:	48 c7 85 88 f5 ff ff 	movq   $0x0,-0xa78(%rbp)
    e205:	00 00 00 00 
    e209:	48 c7 85 90 f5 ff ff 	movq   $0x0,-0xa70(%rbp)
    e210:	00 00 00 00 
    e214:	48 c7 85 98 f5 ff ff 	movq   $0x0,-0xa68(%rbp)
    e21b:	00 00 00 00 
    e21f:	48 8d 05 22 84 01 00 	lea    0x18422(%rip),%rax        # 26648 <g_504>
    e226:	48 89 85 a0 f5 ff ff 	mov    %rax,-0xa60(%rbp)
    e22d:	48 c7 85 a8 f5 ff ff 	movq   $0x0,-0xa58(%rbp)
    e234:	00 00 00 00 
    e238:	48 c7 85 b0 f5 ff ff 	movq   $0x0,-0xa50(%rbp)
    e23f:	00 00 00 00 
    e243:	48 8d 85 70 ee ff ff 	lea    -0x1190(%rbp),%rax
    e24a:	48 89 85 b8 f5 ff ff 	mov    %rax,-0xa48(%rbp)
    e251:	48 c7 85 c0 f5 ff ff 	movq   $0x0,-0xa40(%rbp)
    e258:	00 00 00 00 
    e25c:	48 8d 05 e5 83 01 00 	lea    0x183e5(%rip),%rax        # 26648 <g_504>
    e263:	48 89 85 c8 f5 ff ff 	mov    %rax,-0xa38(%rbp)
    e26a:	48 c7 85 d0 f5 ff ff 	movq   $0x0,-0xa30(%rbp)
    e271:	00 00 00 00 
    e275:	48 8d 85 70 ee ff ff 	lea    -0x1190(%rbp),%rax
    e27c:	48 89 85 d8 f5 ff ff 	mov    %rax,-0xa28(%rbp)
    e283:	48 c7 85 e0 f5 ff ff 	movq   $0x0,-0xa20(%rbp)
    e28a:	00 00 00 00 
    e28e:	48 c7 85 e8 f5 ff ff 	movq   $0x0,-0xa18(%rbp)
    e295:	00 00 00 00 
    e299:	48 8d 05 a8 83 01 00 	lea    0x183a8(%rip),%rax        # 26648 <g_504>
    e2a0:	48 89 85 f0 f5 ff ff 	mov    %rax,-0xa10(%rbp)
    e2a7:	48 c7 85 f8 f5 ff ff 	movq   $0x0,-0xa08(%rbp)
    e2ae:	00 00 00 00 
    e2b2:	48 c7 85 00 f6 ff ff 	movq   $0x0,-0xa00(%rbp)
    e2b9:	00 00 00 00 
    e2bd:	48 c7 85 08 f6 ff ff 	movq   $0x0,-0x9f8(%rbp)
    e2c4:	00 00 00 00 
    e2c8:	48 c7 85 10 f6 ff ff 	movq   $0x0,-0x9f0(%rbp)
    e2cf:	00 00 00 00 
    e2d3:	48 c7 85 18 f6 ff ff 	movq   $0x0,-0x9e8(%rbp)
    e2da:	00 00 00 00 
    e2de:	48 8d 05 63 83 01 00 	lea    0x18363(%rip),%rax        # 26648 <g_504>
    e2e5:	48 89 85 20 f6 ff ff 	mov    %rax,-0x9e0(%rbp)
    e2ec:	48 8d 05 55 83 01 00 	lea    0x18355(%rip),%rax        # 26648 <g_504>
    e2f3:	48 89 85 28 f6 ff ff 	mov    %rax,-0x9d8(%rbp)
    e2fa:	48 c7 85 30 f6 ff ff 	movq   $0x0,-0x9d0(%rbp)
    e301:	00 00 00 00 
    e305:	48 c7 85 38 f6 ff ff 	movq   $0x0,-0x9c8(%rbp)
    e30c:	00 00 00 00 
    e310:	48 c7 85 40 f6 ff ff 	movq   $0x0,-0x9c0(%rbp)
    e317:	00 00 00 00 
    e31b:	48 8d 85 70 ee ff ff 	lea    -0x1190(%rbp),%rax
    e322:	48 89 85 48 f6 ff ff 	mov    %rax,-0x9b8(%rbp)
    e329:	48 c7 85 50 f6 ff ff 	movq   $0x0,-0x9b0(%rbp)
    e330:	00 00 00 00 
    e334:	48 c7 85 58 f6 ff ff 	movq   $0x0,-0x9a8(%rbp)
    e33b:	00 00 00 00 
    e33f:	48 c7 85 60 f6 ff ff 	movq   $0x0,-0x9a0(%rbp)
    e346:	00 00 00 00 
    e34a:	48 c7 85 68 f6 ff ff 	movq   $0x0,-0x998(%rbp)
    e351:	00 00 00 00 
    e355:	48 c7 85 70 f6 ff ff 	movq   $0x0,-0x990(%rbp)
    e35c:	00 00 00 00 
    e360:	48 c7 85 78 f6 ff ff 	movq   $0x0,-0x988(%rbp)
    e367:	00 00 00 00 
    e36b:	48 8d 05 d6 82 01 00 	lea    0x182d6(%rip),%rax        # 26648 <g_504>
    e372:	48 89 85 80 f6 ff ff 	mov    %rax,-0x980(%rbp)
    e379:	48 c7 85 88 f6 ff ff 	movq   $0x0,-0x978(%rbp)
    e380:	00 00 00 00 
    e384:	48 8d 05 bd 82 01 00 	lea    0x182bd(%rip),%rax        # 26648 <g_504>
    e38b:	48 89 85 90 f6 ff ff 	mov    %rax,-0x970(%rbp)
    e392:	48 c7 85 98 f6 ff ff 	movq   $0x0,-0x968(%rbp)
    e399:	00 00 00 00 
    e39d:	48 8d 85 70 ee ff ff 	lea    -0x1190(%rbp),%rax
    e3a4:	48 89 85 a0 f6 ff ff 	mov    %rax,-0x960(%rbp)
    e3ab:	48 8d 85 70 ee ff ff 	lea    -0x1190(%rbp),%rax
    e3b2:	48 89 85 a8 f6 ff ff 	mov    %rax,-0x958(%rbp)
    e3b9:	48 c7 85 b0 f6 ff ff 	movq   $0x0,-0x950(%rbp)
    e3c0:	00 00 00 00 
    e3c4:	48 8d 05 7d 82 01 00 	lea    0x1827d(%rip),%rax        # 26648 <g_504>
    e3cb:	48 89 85 b8 f6 ff ff 	mov    %rax,-0x948(%rbp)
    e3d2:	48 c7 85 c0 f6 ff ff 	movq   $0x0,-0x940(%rbp)
    e3d9:	00 00 00 00 
    e3dd:	48 c7 85 c8 f6 ff ff 	movq   $0x0,-0x938(%rbp)
    e3e4:	00 00 00 00 
    e3e8:	48 8d 05 59 82 01 00 	lea    0x18259(%rip),%rax        # 26648 <g_504>
    e3ef:	48 89 85 d0 f6 ff ff 	mov    %rax,-0x930(%rbp)
    e3f6:	48 c7 85 d8 f6 ff ff 	movq   $0x0,-0x928(%rbp)
    e3fd:	00 00 00 00 
    e401:	48 8d 85 70 ee ff ff 	lea    -0x1190(%rbp),%rax
    e408:	48 89 85 e0 f6 ff ff 	mov    %rax,-0x920(%rbp)
    e40f:	48 8d 85 70 ee ff ff 	lea    -0x1190(%rbp),%rax
    e416:	48 89 85 e8 f6 ff ff 	mov    %rax,-0x918(%rbp)
    e41d:	48 c7 85 f0 f6 ff ff 	movq   $0x0,-0x910(%rbp)
    e424:	00 00 00 00 
    e428:	48 8d 05 19 82 01 00 	lea    0x18219(%rip),%rax        # 26648 <g_504>
    e42f:	48 89 85 f8 f6 ff ff 	mov    %rax,-0x908(%rbp)
    e436:	48 c7 85 00 f7 ff ff 	movq   $0x0,-0x900(%rbp)
    e43d:	00 00 00 00 
    e441:	48 8d 05 00 82 01 00 	lea    0x18200(%rip),%rax        # 26648 <g_504>
    e448:	48 89 85 08 f7 ff ff 	mov    %rax,-0x8f8(%rbp)
    e44f:	48 c7 85 10 f7 ff ff 	movq   $0x0,-0x8f0(%rbp)
    e456:	00 00 00 00 
    e45a:	48 c7 85 18 f7 ff ff 	movq   $0x0,-0x8e8(%rbp)
    e461:	00 00 00 00 
    e465:	48 c7 85 20 f7 ff ff 	movq   $0x0,-0x8e0(%rbp)
    e46c:	00 00 00 00 
    e470:	48 c7 85 28 f7 ff ff 	movq   $0x0,-0x8d8(%rbp)
    e477:	00 00 00 00 
    e47b:	48 c7 85 30 f7 ff ff 	movq   $0x0,-0x8d0(%rbp)
    e482:	00 00 00 00 
    e486:	48 c7 85 38 f7 ff ff 	movq   $0x0,-0x8c8(%rbp)
    e48d:	00 00 00 00 
    e491:	48 8d 85 70 ee ff ff 	lea    -0x1190(%rbp),%rax
    e498:	48 89 85 40 f7 ff ff 	mov    %rax,-0x8c0(%rbp)
    e49f:	48 c7 85 48 f7 ff ff 	movq   $0x0,-0x8b8(%rbp)
    e4a6:	00 00 00 00 
    e4aa:	48 c7 85 50 f7 ff ff 	movq   $0x0,-0x8b0(%rbp)
    e4b1:	00 00 00 00 
    e4b5:	48 c7 85 58 f7 ff ff 	movq   $0x0,-0x8a8(%rbp)
    e4bc:	00 00 00 00 
    e4c0:	48 8d 05 81 81 01 00 	lea    0x18181(%rip),%rax        # 26648 <g_504>
    e4c7:	48 89 85 60 f7 ff ff 	mov    %rax,-0x8a0(%rbp)
    e4ce:	48 8d 05 73 81 01 00 	lea    0x18173(%rip),%rax        # 26648 <g_504>
    e4d5:	48 89 85 68 f7 ff ff 	mov    %rax,-0x898(%rbp)
    e4dc:	48 c7 85 70 f7 ff ff 	movq   $0x0,-0x890(%rbp)
    e4e3:	00 00 00 00 
    e4e7:	48 c7 85 78 f7 ff ff 	movq   $0x0,-0x888(%rbp)
    e4ee:	00 00 00 00 
    e4f2:	48 c7 85 80 f7 ff ff 	movq   $0x0,-0x880(%rbp)
    e4f9:	00 00 00 00 
    e4fd:	48 c7 85 88 f7 ff ff 	movq   $0x0,-0x878(%rbp)
    e504:	00 00 00 00 
    e508:	48 c7 85 90 f7 ff ff 	movq   $0x0,-0x870(%rbp)
    e50f:	00 00 00 00 
    e513:	48 8d 05 2e 81 01 00 	lea    0x1812e(%rip),%rax        # 26648 <g_504>
    e51a:	48 89 85 98 f7 ff ff 	mov    %rax,-0x868(%rbp)
    e521:	48 8d 05 98 73 01 00 	lea    0x17398(%rip),%rax        # 258c0 <g_447+0x5c0>
    e528:	48 89 85 20 ef ff ff 	mov    %rax,-0x10e0(%rbp)
    e52f:	48 c7 85 28 ef ff ff 	movq   $0x0,-0x10d8(%rbp)
    e536:	00 00 00 00 
    e53a:	c7 85 f4 ed ff ff ff 	movl   $0xffffffff,-0x120c(%rbp)
    e541:	ff ff ff 
    e544:	c7 85 c0 ed ff ff 00 	movl   $0x0,-0x1240(%rbp)
    e54b:	00 00 00 
    e54e:	eb 1a                	jmp    e56a <func_12+0xc9b>
    e550:	8b 85 c0 ed ff ff    	mov    -0x1240(%rbp),%eax
    e556:	48 98                	cltq   
    e558:	c7 84 85 64 f0 ff ff 	movl   $0x8e62f9de,-0xf9c(%rbp,%rax,4)
    e55f:	de f9 62 8e 
    e563:	83 85 c0 ed ff ff 01 	addl   $0x1,-0x1240(%rbp)
    e56a:	83 bd c0 ed ff ff 02 	cmpl   $0x2,-0x1240(%rbp)
    e571:	7e dd                	jle    e550 <func_12+0xc81>
    e573:	c7 85 c0 ed ff ff 00 	movl   $0x0,-0x1240(%rbp)
    e57a:	00 00 00 
    e57d:	eb 1b                	jmp    e59a <func_12+0xccb>
    e57f:	8b 85 c0 ed ff ff    	mov    -0x1240(%rbp),%eax
    e585:	48 98                	cltq   
    e587:	48 c7 84 c5 00 f1 ff 	movq   $0x0,-0xf00(%rbp,%rax,8)
    e58e:	ff 00 00 00 00 
    e593:	83 85 c0 ed ff ff 01 	addl   $0x1,-0x1240(%rbp)
    e59a:	83 bd c0 ed ff ff 05 	cmpl   $0x5,-0x1240(%rbp)
    e5a1:	7e dc                	jle    e57f <func_12+0xcb0>
    e5a3:	48 c7 05 9a 4a 01 00 	movq   $0x0,0x14a9a(%rip)        # 23048 <g_88>
    e5aa:	00 00 00 00 
    e5ae:	90                   	nop
    e5af:	48 8b 05 92 4a 01 00 	mov    0x14a92(%rip),%rax        # 23048 <g_88>
    e5b6:	48 83 f8 01          	cmp    $0x1,%rax
    e5ba:	0f 87 1a 13 00 00    	ja     f8da <func_12+0x200b>
    e5c0:	48 b8 fe 00 00 fe d1 	movabs $0xd162ffd1fe0000fe,%rax
    e5c7:	ff 62 d1 
    e5ca:	48 89 85 30 f1 ff ff 	mov    %rax,-0xed0(%rbp)
    e5d1:	66 c7 85 38 f1 ff ff 	movw   $0xeb0b,-0xec8(%rbp)
    e5d8:	0b eb 
    e5da:	48 b8 01 01 c7 01 01 	movabs $0xb62fe0101c70101,%rax
    e5e1:	fe 62 0b 
    e5e4:	48 89 85 3a f1 ff ff 	mov    %rax,-0xec6(%rbp)
    e5eb:	66 c7 85 42 f1 ff ff 	movw   $0x620b,-0xebe(%rbp)
    e5f2:	0b 62 
    e5f4:	48 b8 d1 fe 00 00 fe 	movabs $0x62ffd1fe0000fed1,%rax
    e5fb:	d1 ff 62 
    e5fe:	48 89 85 44 f1 ff ff 	mov    %rax,-0xebc(%rbp)
    e605:	66 c7 85 4c f1 ff ff 	movw   $0x6201,-0xeb4(%rbp)
    e60c:	01 62 
    e60e:	48 b8 01 00 01 0b 01 	movabs $0xff0100010b010001,%rax
    e615:	00 01 ff 
    e618:	48 89 85 4e f1 ff ff 	mov    %rax,-0xeb2(%rbp)
    e61f:	66 c7 85 56 f1 ff ff 	movw   $0xebeb,-0xeaa(%rbp)
    e626:	eb eb 
    e628:	48 b8 01 eb d1 c7 c7 	movabs $0x1ebd1c7c7d1eb01,%rax
    e62f:	d1 eb 01 
    e632:	48 89 85 58 f1 ff ff 	mov    %rax,-0xea8(%rbp)
    e639:	66 c7 85 60 f1 ff ff 	movw   $0xfffe,-0xea0(%rbp)
    e640:	fe ff 
    e642:	48 b8 d1 eb 01 fe ff 	movabs $0xeb01fefffe01ebd1,%rax
    e649:	fe 01 eb 
    e64c:	48 89 85 62 f1 ff ff 	mov    %rax,-0xe9e(%rbp)
    e653:	66 c7 85 6a f1 ff ff 	movw   $0xc7d1,-0xe96(%rbp)
    e65a:	d1 c7 
    e65c:	48 c7 85 f0 f7 ff ff 	movq   $0x0,-0x810(%rbp)
    e663:	00 00 00 00 
    e667:	48 8d 85 30 f1 ff ff 	lea    -0xed0(%rbp),%rax
    e66e:	48 83 c0 30          	add    $0x30,%rax
    e672:	48 89 85 f8 f7 ff ff 	mov    %rax,-0x808(%rbp)
    e679:	48 c7 85 00 f8 ff ff 	movq   $0x0,-0x800(%rbp)
    e680:	00 00 00 00 
    e684:	48 c7 85 08 f8 ff ff 	movq   $0x0,-0x7f8(%rbp)
    e68b:	00 00 00 00 
    e68f:	48 8d 05 49 4a 01 00 	lea    0x14a49(%rip),%rax        # 230df <g_254+0xf>
    e696:	48 89 85 10 f8 ff ff 	mov    %rax,-0x7f0(%rbp)
    e69d:	48 8d 05 fc 4a 01 00 	lea    0x14afc(%rip),%rax        # 231a0 <g_595>
    e6a4:	48 89 85 18 f8 ff ff 	mov    %rax,-0x7e8(%rbp)
    e6ab:	48 8d 05 ee 4a 01 00 	lea    0x14aee(%rip),%rax        # 231a0 <g_595>
    e6b2:	48 89 85 20 f8 ff ff 	mov    %rax,-0x7e0(%rbp)
    e6b9:	48 8d 05 c0 7f 01 00 	lea    0x17fc0(%rip),%rax        # 26680 <g_1459>
    e6c0:	48 89 85 28 f8 ff ff 	mov    %rax,-0x7d8(%rbp)
    e6c7:	48 8d 05 b2 7f 01 00 	lea    0x17fb2(%rip),%rax        # 26680 <g_1459>
    e6ce:	48 89 85 30 f8 ff ff 	mov    %rax,-0x7d0(%rbp)
    e6d5:	48 8d 85 30 f1 ff ff 	lea    -0xed0(%rbp),%rax
    e6dc:	48 83 c0 30          	add    $0x30,%rax
    e6e0:	48 89 85 38 f8 ff ff 	mov    %rax,-0x7c8(%rbp)
    e6e7:	48 8d 05 b2 4a 01 00 	lea    0x14ab2(%rip),%rax        # 231a0 <g_595>
    e6ee:	48 89 85 40 f8 ff ff 	mov    %rax,-0x7c0(%rbp)
    e6f5:	48 8d 05 84 7f 01 00 	lea    0x17f84(%rip),%rax        # 26680 <g_1459>
    e6fc:	48 89 85 48 f8 ff ff 	mov    %rax,-0x7b8(%rbp)
    e703:	48 8d 05 3e 4d 01 00 	lea    0x14d3e(%rip),%rax        # 23448 <g_1528>
    e70a:	48 89 85 50 f8 ff ff 	mov    %rax,-0x7b0(%rbp)
    e711:	48 8d 05 c1 49 01 00 	lea    0x149c1(%rip),%rax        # 230d9 <g_254+0x9>
    e718:	48 89 85 58 f8 ff ff 	mov    %rax,-0x7a8(%rbp)
    e71f:	48 8d 05 22 4d 01 00 	lea    0x14d22(%rip),%rax        # 23448 <g_1528>
    e726:	48 89 85 60 f8 ff ff 	mov    %rax,-0x7a0(%rbp)
    e72d:	48 8d 05 4c 7f 01 00 	lea    0x17f4c(%rip),%rax        # 26680 <g_1459>
    e734:	48 89 85 68 f8 ff ff 	mov    %rax,-0x798(%rbp)
    e73b:	48 8d 05 5e 4a 01 00 	lea    0x14a5e(%rip),%rax        # 231a0 <g_595>
    e742:	48 89 85 70 f8 ff ff 	mov    %rax,-0x790(%rbp)
    e749:	48 8d 85 30 f1 ff ff 	lea    -0xed0(%rbp),%rax
    e750:	48 83 c0 30          	add    $0x30,%rax
    e754:	48 89 85 78 f8 ff ff 	mov    %rax,-0x788(%rbp)
    e75b:	48 8d 05 1e 7f 01 00 	lea    0x17f1e(%rip),%rax        # 26680 <g_1459>
    e762:	48 89 85 80 f8 ff ff 	mov    %rax,-0x780(%rbp)
    e769:	48 8d 05 10 7f 01 00 	lea    0x17f10(%rip),%rax        # 26680 <g_1459>
    e770:	48 89 85 88 f8 ff ff 	mov    %rax,-0x778(%rbp)
    e777:	48 8d 05 22 4a 01 00 	lea    0x14a22(%rip),%rax        # 231a0 <g_595>
    e77e:	48 89 85 90 f8 ff ff 	mov    %rax,-0x770(%rbp)
    e785:	48 8d 05 14 4a 01 00 	lea    0x14a14(%rip),%rax        # 231a0 <g_595>
    e78c:	48 89 85 98 f8 ff ff 	mov    %rax,-0x768(%rbp)
    e793:	48 8d 05 45 49 01 00 	lea    0x14945(%rip),%rax        # 230df <g_254+0xf>
    e79a:	48 89 85 a0 f8 ff ff 	mov    %rax,-0x760(%rbp)
    e7a1:	48 c7 85 a8 f8 ff ff 	movq   $0x0,-0x758(%rbp)
    e7a8:	00 00 00 00 
    e7ac:	48 c7 85 b0 f8 ff ff 	movq   $0x0,-0x750(%rbp)
    e7b3:	00 00 00 00 
    e7b7:	48 8d 85 30 f1 ff ff 	lea    -0xed0(%rbp),%rax
    e7be:	48 83 c0 30          	add    $0x30,%rax
    e7c2:	48 89 85 b8 f8 ff ff 	mov    %rax,-0x748(%rbp)
    e7c9:	48 c7 85 c0 f8 ff ff 	movq   $0x0,-0x740(%rbp)
    e7d0:	00 00 00 00 
    e7d4:	48 8d 05 75 49 01 00 	lea    0x14975(%rip),%rax        # 23150 <g_481+0x30>
    e7db:	48 89 85 c8 f8 ff ff 	mov    %rax,-0x738(%rbp)
    e7e2:	48 c7 85 d0 f8 ff ff 	movq   $0x0,-0x730(%rbp)
    e7e9:	00 00 00 00 
    e7ed:	48 8d 05 ac 49 01 00 	lea    0x149ac(%rip),%rax        # 231a0 <g_595>
    e7f4:	48 89 85 d8 f8 ff ff 	mov    %rax,-0x728(%rbp)
    e7fb:	48 8d 05 4e 49 01 00 	lea    0x1494e(%rip),%rax        # 23150 <g_481+0x30>
    e802:	48 89 85 e0 f8 ff ff 	mov    %rax,-0x720(%rbp)
    e809:	48 c7 85 e8 f8 ff ff 	movq   $0x0,-0x718(%rbp)
    e810:	00 00 00 00 
    e814:	48 8d 05 65 7e 01 00 	lea    0x17e65(%rip),%rax        # 26680 <g_1459>
    e81b:	48 89 85 f0 f8 ff ff 	mov    %rax,-0x710(%rbp)
    e822:	48 c7 85 f8 f8 ff ff 	movq   $0x0,-0x708(%rbp)
    e829:	00 00 00 00 
    e82d:	48 8d 05 1c 49 01 00 	lea    0x1491c(%rip),%rax        # 23150 <g_481+0x30>
    e834:	48 89 85 00 f9 ff ff 	mov    %rax,-0x700(%rbp)
    e83b:	48 8d 05 5e 49 01 00 	lea    0x1495e(%rip),%rax        # 231a0 <g_595>
    e842:	48 89 85 08 f9 ff ff 	mov    %rax,-0x6f8(%rbp)
    e849:	48 c7 85 10 f9 ff ff 	movq   $0x0,-0x6f0(%rbp)
    e850:	00 00 00 00 
    e854:	48 8d 05 f5 48 01 00 	lea    0x148f5(%rip),%rax        # 23150 <g_481+0x30>
    e85b:	48 89 85 18 f9 ff ff 	mov    %rax,-0x6e8(%rbp)
    e862:	48 c7 85 20 f9 ff ff 	movq   $0x0,-0x6e0(%rbp)
    e869:	00 00 00 00 
    e86d:	48 8d 85 30 f1 ff ff 	lea    -0xed0(%rbp),%rax
    e874:	48 83 c0 30          	add    $0x30,%rax
    e878:	48 89 85 28 f9 ff ff 	mov    %rax,-0x6d8(%rbp)
    e87f:	48 c7 85 30 f9 ff ff 	movq   $0x0,-0x6d0(%rbp)
    e886:	00 00 00 00 
    e88a:	48 c7 85 38 f9 ff ff 	movq   $0x0,-0x6c8(%rbp)
    e891:	00 00 00 00 
    e895:	48 8d 05 43 48 01 00 	lea    0x14843(%rip),%rax        # 230df <g_254+0xf>
    e89c:	48 89 85 40 f9 ff ff 	mov    %rax,-0x6c0(%rbp)
    e8a3:	48 8d 05 f6 48 01 00 	lea    0x148f6(%rip),%rax        # 231a0 <g_595>
    e8aa:	48 89 85 48 f9 ff ff 	mov    %rax,-0x6b8(%rbp)
    e8b1:	48 8d 05 e8 48 01 00 	lea    0x148e8(%rip),%rax        # 231a0 <g_595>
    e8b8:	48 89 85 50 f9 ff ff 	mov    %rax,-0x6b0(%rbp)
    e8bf:	48 8d 05 ba 7d 01 00 	lea    0x17dba(%rip),%rax        # 26680 <g_1459>
    e8c6:	48 89 85 58 f9 ff ff 	mov    %rax,-0x6a8(%rbp)
    e8cd:	48 8d 05 ac 7d 01 00 	lea    0x17dac(%rip),%rax        # 26680 <g_1459>
    e8d4:	48 89 85 60 f9 ff ff 	mov    %rax,-0x6a0(%rbp)
    e8db:	48 8d 85 30 f1 ff ff 	lea    -0xed0(%rbp),%rax
    e8e2:	48 83 c0 30          	add    $0x30,%rax
    e8e6:	48 89 85 68 f9 ff ff 	mov    %rax,-0x698(%rbp)
    e8ed:	48 8d 05 ac 48 01 00 	lea    0x148ac(%rip),%rax        # 231a0 <g_595>
    e8f4:	48 89 85 70 f9 ff ff 	mov    %rax,-0x690(%rbp)
    e8fb:	48 8d 05 7e 7d 01 00 	lea    0x17d7e(%rip),%rax        # 26680 <g_1459>
    e902:	48 89 85 78 f9 ff ff 	mov    %rax,-0x688(%rbp)
    e909:	48 8d 05 38 4b 01 00 	lea    0x14b38(%rip),%rax        # 23448 <g_1528>
    e910:	48 89 85 80 f9 ff ff 	mov    %rax,-0x680(%rbp)
    e917:	48 8d 05 bb 47 01 00 	lea    0x147bb(%rip),%rax        # 230d9 <g_254+0x9>
    e91e:	48 89 85 88 f9 ff ff 	mov    %rax,-0x678(%rbp)
    e925:	48 8d 05 1c 4b 01 00 	lea    0x14b1c(%rip),%rax        # 23448 <g_1528>
    e92c:	48 89 85 90 f9 ff ff 	mov    %rax,-0x670(%rbp)
    e933:	48 8d 05 46 7d 01 00 	lea    0x17d46(%rip),%rax        # 26680 <g_1459>
    e93a:	48 89 85 98 f9 ff ff 	mov    %rax,-0x668(%rbp)
    e941:	48 8d 05 58 48 01 00 	lea    0x14858(%rip),%rax        # 231a0 <g_595>
    e948:	48 89 85 a0 f9 ff ff 	mov    %rax,-0x660(%rbp)
    e94f:	48 8d 85 30 f1 ff ff 	lea    -0xed0(%rbp),%rax
    e956:	48 83 c0 30          	add    $0x30,%rax
    e95a:	48 89 85 a8 f9 ff ff 	mov    %rax,-0x658(%rbp)
    e961:	48 8d 05 18 7d 01 00 	lea    0x17d18(%rip),%rax        # 26680 <g_1459>
    e968:	48 89 85 b0 f9 ff ff 	mov    %rax,-0x650(%rbp)
    e96f:	48 8d 05 0a 7d 01 00 	lea    0x17d0a(%rip),%rax        # 26680 <g_1459>
    e976:	48 89 85 b8 f9 ff ff 	mov    %rax,-0x648(%rbp)
    e97d:	48 8d 05 1c 48 01 00 	lea    0x1481c(%rip),%rax        # 231a0 <g_595>
    e984:	48 89 85 c0 f9 ff ff 	mov    %rax,-0x640(%rbp)
    e98b:	48 8d 05 0e 48 01 00 	lea    0x1480e(%rip),%rax        # 231a0 <g_595>
    e992:	48 89 85 c8 f9 ff ff 	mov    %rax,-0x638(%rbp)
    e999:	48 8d 05 3f 47 01 00 	lea    0x1473f(%rip),%rax        # 230df <g_254+0xf>
    e9a0:	48 89 85 d0 f9 ff ff 	mov    %rax,-0x630(%rbp)
    e9a7:	48 c7 85 d8 f9 ff ff 	movq   $0x0,-0x628(%rbp)
    e9ae:	00 00 00 00 
    e9b2:	48 c7 85 e0 f9 ff ff 	movq   $0x0,-0x620(%rbp)
    e9b9:	00 00 00 00 
    e9bd:	48 8d 85 30 f1 ff ff 	lea    -0xed0(%rbp),%rax
    e9c4:	48 83 c0 30          	add    $0x30,%rax
    e9c8:	48 89 85 e8 f9 ff ff 	mov    %rax,-0x618(%rbp)
    e9cf:	48 c7 85 f0 f9 ff ff 	movq   $0x0,-0x610(%rbp)
    e9d6:	00 00 00 00 
    e9da:	48 8d 05 6f 47 01 00 	lea    0x1476f(%rip),%rax        # 23150 <g_481+0x30>
    e9e1:	48 89 85 f8 f9 ff ff 	mov    %rax,-0x608(%rbp)
    e9e8:	48 c7 85 00 fa ff ff 	movq   $0x0,-0x600(%rbp)
    e9ef:	00 00 00 00 
    e9f3:	48 8d 05 a6 47 01 00 	lea    0x147a6(%rip),%rax        # 231a0 <g_595>
    e9fa:	48 89 85 08 fa ff ff 	mov    %rax,-0x5f8(%rbp)
    ea01:	48 8d 05 48 47 01 00 	lea    0x14748(%rip),%rax        # 23150 <g_481+0x30>
    ea08:	48 89 85 10 fa ff ff 	mov    %rax,-0x5f0(%rbp)
    ea0f:	48 c7 85 18 fa ff ff 	movq   $0x0,-0x5e8(%rbp)
    ea16:	00 00 00 00 
    ea1a:	48 8d 05 5f 7c 01 00 	lea    0x17c5f(%rip),%rax        # 26680 <g_1459>
    ea21:	48 89 85 20 fa ff ff 	mov    %rax,-0x5e0(%rbp)
    ea28:	48 c7 85 28 fa ff ff 	movq   $0x0,-0x5d8(%rbp)
    ea2f:	00 00 00 00 
    ea33:	48 8d 05 16 47 01 00 	lea    0x14716(%rip),%rax        # 23150 <g_481+0x30>
    ea3a:	48 89 85 30 fa ff ff 	mov    %rax,-0x5d0(%rbp)
    ea41:	48 8d 05 58 47 01 00 	lea    0x14758(%rip),%rax        # 231a0 <g_595>
    ea48:	48 89 85 38 fa ff ff 	mov    %rax,-0x5c8(%rbp)
    ea4f:	48 c7 85 40 fa ff ff 	movq   $0x0,-0x5c0(%rbp)
    ea56:	00 00 00 00 
    ea5a:	48 8d 05 ef 46 01 00 	lea    0x146ef(%rip),%rax        # 23150 <g_481+0x30>
    ea61:	48 89 85 48 fa ff ff 	mov    %rax,-0x5b8(%rbp)
    ea68:	48 c7 85 50 fa ff ff 	movq   $0x0,-0x5b0(%rbp)
    ea6f:	00 00 00 00 
    ea73:	48 8d 85 30 f1 ff ff 	lea    -0xed0(%rbp),%rax
    ea7a:	48 83 c0 30          	add    $0x30,%rax
    ea7e:	48 89 85 58 fa ff ff 	mov    %rax,-0x5a8(%rbp)
    ea85:	48 c7 85 60 fa ff ff 	movq   $0x0,-0x5a0(%rbp)
    ea8c:	00 00 00 00 
    ea90:	48 c7 85 68 fa ff ff 	movq   $0x0,-0x598(%rbp)
    ea97:	00 00 00 00 
    ea9b:	48 8d 05 3d 46 01 00 	lea    0x1463d(%rip),%rax        # 230df <g_254+0xf>
    eaa2:	48 89 85 70 fa ff ff 	mov    %rax,-0x590(%rbp)
    eaa9:	48 8d 05 f0 46 01 00 	lea    0x146f0(%rip),%rax        # 231a0 <g_595>
    eab0:	48 89 85 78 fa ff ff 	mov    %rax,-0x588(%rbp)
    eab7:	48 8d 05 e2 46 01 00 	lea    0x146e2(%rip),%rax        # 231a0 <g_595>
    eabe:	48 89 85 80 fa ff ff 	mov    %rax,-0x580(%rbp)
    eac5:	48 8d 05 b4 7b 01 00 	lea    0x17bb4(%rip),%rax        # 26680 <g_1459>
    eacc:	48 89 85 88 fa ff ff 	mov    %rax,-0x578(%rbp)
    ead3:	48 8d 05 a6 7b 01 00 	lea    0x17ba6(%rip),%rax        # 26680 <g_1459>
    eada:	48 89 85 90 fa ff ff 	mov    %rax,-0x570(%rbp)
    eae1:	48 8d 85 30 f1 ff ff 	lea    -0xed0(%rbp),%rax
    eae8:	48 83 c0 30          	add    $0x30,%rax
    eaec:	48 89 85 98 fa ff ff 	mov    %rax,-0x568(%rbp)
    eaf3:	48 8d 05 a6 46 01 00 	lea    0x146a6(%rip),%rax        # 231a0 <g_595>
    eafa:	48 89 85 a0 fa ff ff 	mov    %rax,-0x560(%rbp)
    eb01:	48 8d 05 78 7b 01 00 	lea    0x17b78(%rip),%rax        # 26680 <g_1459>
    eb08:	48 89 85 a8 fa ff ff 	mov    %rax,-0x558(%rbp)
    eb0f:	48 8d 05 32 49 01 00 	lea    0x14932(%rip),%rax        # 23448 <g_1528>
    eb16:	48 89 85 b0 fa ff ff 	mov    %rax,-0x550(%rbp)
    eb1d:	48 8d 05 b5 45 01 00 	lea    0x145b5(%rip),%rax        # 230d9 <g_254+0x9>
    eb24:	48 89 85 b8 fa ff ff 	mov    %rax,-0x548(%rbp)
    eb2b:	48 8d 05 16 49 01 00 	lea    0x14916(%rip),%rax        # 23448 <g_1528>
    eb32:	48 89 85 c0 fa ff ff 	mov    %rax,-0x540(%rbp)
    eb39:	48 8d 05 40 7b 01 00 	lea    0x17b40(%rip),%rax        # 26680 <g_1459>
    eb40:	48 89 85 c8 fa ff ff 	mov    %rax,-0x538(%rbp)
    eb47:	48 8d 05 52 46 01 00 	lea    0x14652(%rip),%rax        # 231a0 <g_595>
    eb4e:	48 89 85 d0 fa ff ff 	mov    %rax,-0x530(%rbp)
    eb55:	48 8d 85 30 f1 ff ff 	lea    -0xed0(%rbp),%rax
    eb5c:	48 83 c0 30          	add    $0x30,%rax
    eb60:	48 89 85 d8 fa ff ff 	mov    %rax,-0x528(%rbp)
    eb67:	48 8d 05 12 7b 01 00 	lea    0x17b12(%rip),%rax        # 26680 <g_1459>
    eb6e:	48 89 85 e0 fa ff ff 	mov    %rax,-0x520(%rbp)
    eb75:	48 8d 05 04 7b 01 00 	lea    0x17b04(%rip),%rax        # 26680 <g_1459>
    eb7c:	48 89 85 e8 fa ff ff 	mov    %rax,-0x518(%rbp)
    eb83:	48 8d 05 16 46 01 00 	lea    0x14616(%rip),%rax        # 231a0 <g_595>
    eb8a:	48 89 85 f0 fa ff ff 	mov    %rax,-0x510(%rbp)
    eb91:	48 8d 05 08 46 01 00 	lea    0x14608(%rip),%rax        # 231a0 <g_595>
    eb98:	48 89 85 f8 fa ff ff 	mov    %rax,-0x508(%rbp)
    eb9f:	48 8d 05 39 45 01 00 	lea    0x14539(%rip),%rax        # 230df <g_254+0xf>
    eba6:	48 89 85 00 fb ff ff 	mov    %rax,-0x500(%rbp)
    ebad:	48 c7 85 08 fb ff ff 	movq   $0x0,-0x4f8(%rbp)
    ebb4:	00 00 00 00 
    ebb8:	48 c7 85 10 fb ff ff 	movq   $0x0,-0x4f0(%rbp)
    ebbf:	00 00 00 00 
    ebc3:	48 8d 85 30 f1 ff ff 	lea    -0xed0(%rbp),%rax
    ebca:	48 83 c0 30          	add    $0x30,%rax
    ebce:	48 89 85 18 fb ff ff 	mov    %rax,-0x4e8(%rbp)
    ebd5:	48 c7 85 20 fb ff ff 	movq   $0x0,-0x4e0(%rbp)
    ebdc:	00 00 00 00 
    ebe0:	48 8d 05 69 45 01 00 	lea    0x14569(%rip),%rax        # 23150 <g_481+0x30>
    ebe7:	48 89 85 28 fb ff ff 	mov    %rax,-0x4d8(%rbp)
    ebee:	48 c7 85 30 fb ff ff 	movq   $0x0,-0x4d0(%rbp)
    ebf5:	00 00 00 00 
    ebf9:	48 8d 05 a0 45 01 00 	lea    0x145a0(%rip),%rax        # 231a0 <g_595>
    ec00:	48 89 85 38 fb ff ff 	mov    %rax,-0x4c8(%rbp)
    ec07:	48 8d 05 42 45 01 00 	lea    0x14542(%rip),%rax        # 23150 <g_481+0x30>
    ec0e:	48 89 85 40 fb ff ff 	mov    %rax,-0x4c0(%rbp)
    ec15:	48 c7 85 48 fb ff ff 	movq   $0x0,-0x4b8(%rbp)
    ec1c:	00 00 00 00 
    ec20:	48 8d 05 59 7a 01 00 	lea    0x17a59(%rip),%rax        # 26680 <g_1459>
    ec27:	48 89 85 50 fb ff ff 	mov    %rax,-0x4b0(%rbp)
    ec2e:	48 c7 85 58 fb ff ff 	movq   $0x0,-0x4a8(%rbp)
    ec35:	00 00 00 00 
    ec39:	48 8d 05 10 45 01 00 	lea    0x14510(%rip),%rax        # 23150 <g_481+0x30>
    ec40:	48 89 85 60 fb ff ff 	mov    %rax,-0x4a0(%rbp)
    ec47:	48 8d 05 52 45 01 00 	lea    0x14552(%rip),%rax        # 231a0 <g_595>
    ec4e:	48 89 85 68 fb ff ff 	mov    %rax,-0x498(%rbp)
    ec55:	48 c7 85 70 fb ff ff 	movq   $0x0,-0x490(%rbp)
    ec5c:	00 00 00 00 
    ec60:	48 8d 05 e9 44 01 00 	lea    0x144e9(%rip),%rax        # 23150 <g_481+0x30>
    ec67:	48 89 85 78 fb ff ff 	mov    %rax,-0x488(%rbp)
    ec6e:	48 c7 85 80 fb ff ff 	movq   $0x0,-0x480(%rbp)
    ec75:	00 00 00 00 
    ec79:	48 8d 85 30 f1 ff ff 	lea    -0xed0(%rbp),%rax
    ec80:	48 83 c0 30          	add    $0x30,%rax
    ec84:	48 89 85 88 fb ff ff 	mov    %rax,-0x478(%rbp)
    ec8b:	48 c7 85 90 fb ff ff 	movq   $0x0,-0x470(%rbp)
    ec92:	00 00 00 00 
    ec96:	48 c7 85 98 fb ff ff 	movq   $0x0,-0x468(%rbp)
    ec9d:	00 00 00 00 
    eca1:	48 8d 05 37 44 01 00 	lea    0x14437(%rip),%rax        # 230df <g_254+0xf>
    eca8:	48 89 85 a0 fb ff ff 	mov    %rax,-0x460(%rbp)
    ecaf:	48 8d 05 ea 44 01 00 	lea    0x144ea(%rip),%rax        # 231a0 <g_595>
    ecb6:	48 89 85 a8 fb ff ff 	mov    %rax,-0x458(%rbp)
    ecbd:	48 8d 05 dc 44 01 00 	lea    0x144dc(%rip),%rax        # 231a0 <g_595>
    ecc4:	48 89 85 b0 fb ff ff 	mov    %rax,-0x450(%rbp)
    eccb:	48 8d 05 ae 79 01 00 	lea    0x179ae(%rip),%rax        # 26680 <g_1459>
    ecd2:	48 89 85 b8 fb ff ff 	mov    %rax,-0x448(%rbp)
    ecd9:	48 8d 05 a0 79 01 00 	lea    0x179a0(%rip),%rax        # 26680 <g_1459>
    ece0:	48 89 85 c0 fb ff ff 	mov    %rax,-0x440(%rbp)
    ece7:	48 8d 85 30 f1 ff ff 	lea    -0xed0(%rbp),%rax
    ecee:	48 83 c0 30          	add    $0x30,%rax
    ecf2:	48 89 85 c8 fb ff ff 	mov    %rax,-0x438(%rbp)
    ecf9:	48 8d 05 a0 44 01 00 	lea    0x144a0(%rip),%rax        # 231a0 <g_595>
    ed00:	48 89 85 d0 fb ff ff 	mov    %rax,-0x430(%rbp)
    ed07:	48 8d 05 72 79 01 00 	lea    0x17972(%rip),%rax        # 26680 <g_1459>
    ed0e:	48 89 85 d8 fb ff ff 	mov    %rax,-0x428(%rbp)
    ed15:	48 8d 05 2c 47 01 00 	lea    0x1472c(%rip),%rax        # 23448 <g_1528>
    ed1c:	48 89 85 e0 fb ff ff 	mov    %rax,-0x420(%rbp)
    ed23:	48 8d 05 af 43 01 00 	lea    0x143af(%rip),%rax        # 230d9 <g_254+0x9>
    ed2a:	48 89 85 e8 fb ff ff 	mov    %rax,-0x418(%rbp)
    ed31:	48 8d 05 10 47 01 00 	lea    0x14710(%rip),%rax        # 23448 <g_1528>
    ed38:	48 89 85 f0 fb ff ff 	mov    %rax,-0x410(%rbp)
    ed3f:	48 8d 05 3a 79 01 00 	lea    0x1793a(%rip),%rax        # 26680 <g_1459>
    ed46:	48 89 85 f8 fb ff ff 	mov    %rax,-0x408(%rbp)
    ed4d:	48 8d 05 4c 44 01 00 	lea    0x1444c(%rip),%rax        # 231a0 <g_595>
    ed54:	48 89 85 00 fc ff ff 	mov    %rax,-0x400(%rbp)
    ed5b:	48 8d 85 30 f1 ff ff 	lea    -0xed0(%rbp),%rax
    ed62:	48 83 c0 30          	add    $0x30,%rax
    ed66:	48 89 85 08 fc ff ff 	mov    %rax,-0x3f8(%rbp)
    ed6d:	48 8d 05 0c 79 01 00 	lea    0x1790c(%rip),%rax        # 26680 <g_1459>
    ed74:	48 89 85 10 fc ff ff 	mov    %rax,-0x3f0(%rbp)
    ed7b:	48 8d 05 fe 78 01 00 	lea    0x178fe(%rip),%rax        # 26680 <g_1459>
    ed82:	48 89 85 18 fc ff ff 	mov    %rax,-0x3e8(%rbp)
    ed89:	48 8d 05 10 44 01 00 	lea    0x14410(%rip),%rax        # 231a0 <g_595>
    ed90:	48 89 85 20 fc ff ff 	mov    %rax,-0x3e0(%rbp)
    ed97:	48 8d 05 02 44 01 00 	lea    0x14402(%rip),%rax        # 231a0 <g_595>
    ed9e:	48 89 85 28 fc ff ff 	mov    %rax,-0x3d8(%rbp)
    eda5:	48 8d 05 33 43 01 00 	lea    0x14333(%rip),%rax        # 230df <g_254+0xf>
    edac:	48 89 85 30 fc ff ff 	mov    %rax,-0x3d0(%rbp)
    edb3:	48 8d 05 8e 46 01 00 	lea    0x1468e(%rip),%rax        # 23448 <g_1528>
    edba:	48 89 85 38 fc ff ff 	mov    %rax,-0x3c8(%rbp)
    edc1:	48 8d 05 80 46 01 00 	lea    0x14680(%rip),%rax        # 23448 <g_1528>
    edc8:	48 89 85 40 fc ff ff 	mov    %rax,-0x3c0(%rbp)
    edcf:	48 c7 85 48 fc ff ff 	movq   $0x0,-0x3b8(%rbp)
    edd6:	00 00 00 00 
    edda:	c7 85 a0 ed ff ff 01 	movl   $0x1,-0x1260(%rbp)
    ede1:	00 00 00 
    ede4:	48 8d 05 fd 71 01 00 	lea    0x171fd(%rip),%rax        # 25fe8 <g_1499>
    edeb:	48 89 85 30 ef ff ff 	mov    %rax,-0x10d0(%rbp)
    edf2:	48 8d 05 67 6f 01 00 	lea    0x16f67(%rip),%rax        # 25d60 <g_1268+0x220>
    edf9:	48 89 85 78 ee ff ff 	mov    %rax,-0x1188(%rbp)
    ee00:	c7 85 c4 ed ff ff 00 	movl   $0x0,-0x123c(%rbp)
    ee07:	00 00 00 
    ee0a:	eb 42                	jmp    ee4e <func_12+0x157f>
    ee0c:	c7 85 c8 ed ff ff 00 	movl   $0x0,-0x1238(%rbp)
    ee13:	00 00 00 
    ee16:	eb 26                	jmp    ee3e <func_12+0x156f>
    ee18:	8b 85 c8 ed ff ff    	mov    -0x1238(%rbp),%eax
    ee1e:	48 63 d0             	movslq %eax,%rdx
    ee21:	8b 85 c4 ed ff ff    	mov    -0x123c(%rbp),%eax
    ee27:	48 98                	cltq   
    ee29:	48 01 d0             	add    %rdx,%rax
    ee2c:	c7 84 85 a0 f0 ff ff 	movl   $0x3bf4838f,-0xf60(%rbp,%rax,4)
    ee33:	8f 83 f4 3b 
    ee37:	83 85 c8 ed ff ff 01 	addl   $0x1,-0x1238(%rbp)
    ee3e:	83 bd c8 ed ff ff 00 	cmpl   $0x0,-0x1238(%rbp)
    ee45:	7e d1                	jle    ee18 <func_12+0x1549>
    ee47:	83 85 c4 ed ff ff 01 	addl   $0x1,-0x123c(%rbp)
    ee4e:	83 bd c4 ed ff ff 04 	cmpl   $0x4,-0x123c(%rbp)
    ee55:	7e b5                	jle    ee0c <func_12+0x153d>
    ee57:	be 0e 00 00 00       	mov    $0xe,%esi
    ee5c:	bf dd 00 00 00       	mov    $0xdd,%edi
    ee61:	e8 a0 9f ff ff       	callq  8e06 <safe_lshift_func_uint16_t_u_u>
    ee66:	0f b6 85 35 f1 ff ff 	movzbl -0xecb(%rbp),%eax
    ee6d:	0f b6 d8             	movzbl %al,%ebx
    ee70:	48 8b 85 00 ef ff ff 	mov    -0x1100(%rbp),%rax
    ee77:	48 89 c7             	mov    %rax,%rdi
    ee7a:	e8 9a a1 ff ff       	callq  9019 <safe_unary_minus_func_uint64_t_u>
    ee7f:	89 c1                	mov    %eax,%ecx
    ee81:	8b 95 68 f0 ff ff    	mov    -0xf98(%rbp),%edx
    ee87:	8b 85 a0 ed ff ff    	mov    -0x1260(%rbp),%eax
    ee8d:	31 d0                	xor    %edx,%eax
    ee8f:	89 85 a0 ed ff ff    	mov    %eax,-0x1260(%rbp)
    ee95:	8b 85 a0 ed ff ff    	mov    -0x1260(%rbp),%eax
    ee9b:	83 f8 03             	cmp    $0x3,%eax
    ee9e:	0f 9f c2             	setg   %dl
    eea1:	48 8b 05 58 5c 01 00 	mov    0x15c58(%rip),%rax        # 24b00 <g_135>
    eea8:	48 8b 00             	mov    (%rax),%rax
    eeab:	0f b6 d2             	movzbl %dl,%edx
    eeae:	89 10                	mov    %edx,(%rax)
    eeb0:	8b 00                	mov    (%rax),%eax
    eeb2:	89 ce                	mov    %ecx,%esi
    eeb4:	89 c7                	mov    %eax,%edi
    eeb6:	e8 44 98 ff ff       	callq  86ff <safe_div_func_int32_t_s_s>
    eebb:	89 c2                	mov    %eax,%edx
    eebd:	48 8b 85 48 ed ff ff 	mov    -0x12b8(%rbp),%rax
    eec4:	0f b6 00             	movzbl (%rax),%eax
    eec7:	66 98                	cbtw   
    eec9:	31 d0                	xor    %edx,%eax
    eecb:	0f b7 c0             	movzwl %ax,%eax
    eece:	89 de                	mov    %ebx,%esi
    eed0:	89 c7                	mov    %eax,%edi
    eed2:	e8 e7 9e ff ff       	callq  8dbe <safe_lshift_func_uint16_t_u_s>
    eed7:	0f b7 c0             	movzwl %ax,%eax
    eeda:	be 0c 00 00 00       	mov    $0xc,%esi
    eedf:	89 c7                	mov    %eax,%edi
    eee1:	e8 d8 9e ff ff       	callq  8dbe <safe_lshift_func_uint16_t_u_s>
    eee6:	66 3d ff 00          	cmp    $0xff,%ax
    eeea:	0f b6 85 60 f1 ff ff 	movzbl -0xea0(%rbp),%eax
    eef1:	0f b6 d0             	movzbl %al,%edx
    eef4:	8b 8d 64 f0 ff ff    	mov    -0xf9c(%rbp),%ecx
    eefa:	8b 85 7c ed ff ff    	mov    -0x1284(%rbp),%eax
    ef00:	39 c1                	cmp    %eax,%ecx
    ef02:	0f 9f c0             	setg   %al
    ef05:	0f b6 c0             	movzbl %al,%eax
    ef08:	31 c2                	xor    %eax,%edx
    ef0a:	8b 85 68 f0 ff ff    	mov    -0xf98(%rbp),%eax
    ef10:	39 c2                	cmp    %eax,%edx
    ef12:	0f 95 c2             	setne  %dl
    ef15:	48 8b 05 dc 5b 01 00 	mov    0x15bdc(%rip),%rax        # 24af8 <g_108>
    ef1c:	0f b6 d2             	movzbl %dl,%edx
    ef1f:	89 10                	mov    %edx,(%rax)
    ef21:	c7 85 54 ed ff ff 00 	movl   $0x0,-0x12ac(%rbp)
    ef28:	00 00 00 
    ef2b:	e9 8f 09 00 00       	jmpq   f8bf <func_12+0x1ff0>
    ef30:	48 8d 05 b1 70 01 00 	lea    0x170b1(%rip),%rax        # 25fe8 <g_1499>
    ef37:	48 89 85 80 ee ff ff 	mov    %rax,-0x1180(%rbp)
    ef3e:	48 c7 85 c0 f1 ff ff 	movq   $0x0,-0xe40(%rbp)
    ef45:	00 00 00 00 
    ef49:	48 c7 85 c8 f1 ff ff 	movq   $0x0,-0xe38(%rbp)
    ef50:	00 00 00 00 
    ef54:	48 8d 85 80 ee ff ff 	lea    -0x1180(%rbp),%rax
    ef5b:	48 89 85 d0 f1 ff ff 	mov    %rax,-0xe30(%rbp)
    ef62:	48 c7 85 d8 f1 ff ff 	movq   $0x0,-0xe28(%rbp)
    ef69:	00 00 00 00 
    ef6d:	48 c7 85 e0 f1 ff ff 	movq   $0x0,-0xe20(%rbp)
    ef74:	00 00 00 00 
    ef78:	48 8d 85 80 ee ff ff 	lea    -0x1180(%rbp),%rax
    ef7f:	48 89 85 e8 f1 ff ff 	mov    %rax,-0xe18(%rbp)
    ef86:	48 8d 85 80 ee ff ff 	lea    -0x1180(%rbp),%rax
    ef8d:	48 89 85 f0 f1 ff ff 	mov    %rax,-0xe10(%rbp)
    ef94:	48 c7 85 f8 f1 ff ff 	movq   $0x0,-0xe08(%rbp)
    ef9b:	00 00 00 00 
    ef9f:	48 c7 85 00 f2 ff ff 	movq   $0x0,-0xe00(%rbp)
    efa6:	00 00 00 00 
    efaa:	48 8d 85 80 ee ff ff 	lea    -0x1180(%rbp),%rax
    efb1:	48 89 85 08 f2 ff ff 	mov    %rax,-0xdf8(%rbp)
    efb8:	48 c7 85 10 f2 ff ff 	movq   $0x0,-0xdf0(%rbp)
    efbf:	00 00 00 00 
    efc3:	48 c7 85 18 f2 ff ff 	movq   $0x0,-0xde8(%rbp)
    efca:	00 00 00 00 
    efce:	48 8d 85 80 ee ff ff 	lea    -0x1180(%rbp),%rax
    efd5:	48 89 85 20 f2 ff ff 	mov    %rax,-0xde0(%rbp)
    efdc:	48 8d 85 80 ee ff ff 	lea    -0x1180(%rbp),%rax
    efe3:	48 89 85 28 f2 ff ff 	mov    %rax,-0xdd8(%rbp)
    efea:	48 8d 05 57 40 01 00 	lea    0x14057(%rip),%rax        # 23048 <g_88>
    eff1:	48 89 85 38 ef ff ff 	mov    %rax,-0x10c8(%rbp)
    eff8:	c7 85 f8 ed ff ff ff 	movl   $0xffffffff,-0x1208(%rbp)
    efff:	ff ff ff 
    f002:	c7 85 fc ed ff ff af 	movl   $0x16352aaf,-0x1204(%rbp)
    f009:	2a 35 16 
    f00c:	48 8d 05 c9 43 01 00 	lea    0x143c9(%rip),%rax        # 233dc <g_1183>
    f013:	48 89 85 30 f2 ff ff 	mov    %rax,-0xdd0(%rbp)
    f01a:	48 8d 05 ef 43 01 00 	lea    0x143ef(%rip),%rax        # 23410 <g_1406>
    f021:	48 89 85 38 f2 ff ff 	mov    %rax,-0xdc8(%rbp)
    f028:	48 8d 05 e1 43 01 00 	lea    0x143e1(%rip),%rax        # 23410 <g_1406>
    f02f:	48 89 85 40 f2 ff ff 	mov    %rax,-0xdc0(%rbp)
    f036:	48 8d 05 9f 43 01 00 	lea    0x1439f(%rip),%rax        # 233dc <g_1183>
    f03d:	48 89 85 48 f2 ff ff 	mov    %rax,-0xdb8(%rbp)
    f044:	48 8d 05 c5 43 01 00 	lea    0x143c5(%rip),%rax        # 23410 <g_1406>
    f04b:	48 89 85 50 f2 ff ff 	mov    %rax,-0xdb0(%rbp)
    f052:	48 8d 05 b7 43 01 00 	lea    0x143b7(%rip),%rax        # 23410 <g_1406>
    f059:	48 89 85 58 f2 ff ff 	mov    %rax,-0xda8(%rbp)
    f060:	48 8d 05 75 43 01 00 	lea    0x14375(%rip),%rax        # 233dc <g_1183>
    f067:	48 89 85 60 f2 ff ff 	mov    %rax,-0xda0(%rbp)
    f06e:	48 8d 05 9b 43 01 00 	lea    0x1439b(%rip),%rax        # 23410 <g_1406>
    f075:	48 89 85 68 f2 ff ff 	mov    %rax,-0xd98(%rbp)
    f07c:	48 8d 05 8d 43 01 00 	lea    0x1438d(%rip),%rax        # 23410 <g_1406>
    f083:	48 89 85 70 f2 ff ff 	mov    %rax,-0xd90(%rbp)
    f08a:	48 8d 05 4b 43 01 00 	lea    0x1434b(%rip),%rax        # 233dc <g_1183>
    f091:	48 89 85 78 f2 ff ff 	mov    %rax,-0xd88(%rbp)
    f098:	48 8d 05 71 43 01 00 	lea    0x14371(%rip),%rax        # 23410 <g_1406>
    f09f:	48 89 85 80 f2 ff ff 	mov    %rax,-0xd80(%rbp)
    f0a6:	48 8d 05 2f 43 01 00 	lea    0x1432f(%rip),%rax        # 233dc <g_1183>
    f0ad:	48 89 85 88 f2 ff ff 	mov    %rax,-0xd78(%rbp)
    f0b4:	48 8d 05 55 43 01 00 	lea    0x14355(%rip),%rax        # 23410 <g_1406>
    f0bb:	48 89 85 90 f2 ff ff 	mov    %rax,-0xd70(%rbp)
    f0c2:	48 8d 05 47 43 01 00 	lea    0x14347(%rip),%rax        # 23410 <g_1406>
    f0c9:	48 89 85 98 f2 ff ff 	mov    %rax,-0xd68(%rbp)
    f0d0:	48 8d 05 05 43 01 00 	lea    0x14305(%rip),%rax        # 233dc <g_1183>
    f0d7:	48 89 85 a0 f2 ff ff 	mov    %rax,-0xd60(%rbp)
    f0de:	48 8d 05 2b 43 01 00 	lea    0x1432b(%rip),%rax        # 23410 <g_1406>
    f0e5:	48 89 85 a8 f2 ff ff 	mov    %rax,-0xd58(%rbp)
    f0ec:	48 8d 05 1d 43 01 00 	lea    0x1431d(%rip),%rax        # 23410 <g_1406>
    f0f3:	48 89 85 b0 f2 ff ff 	mov    %rax,-0xd50(%rbp)
    f0fa:	48 8d 05 db 42 01 00 	lea    0x142db(%rip),%rax        # 233dc <g_1183>
    f101:	48 89 85 b8 f2 ff ff 	mov    %rax,-0xd48(%rbp)
    f108:	48 8d 05 01 43 01 00 	lea    0x14301(%rip),%rax        # 23410 <g_1406>
    f10f:	48 89 85 c0 f2 ff ff 	mov    %rax,-0xd40(%rbp)
    f116:	48 8d 05 f3 42 01 00 	lea    0x142f3(%rip),%rax        # 23410 <g_1406>
    f11d:	48 89 85 c8 f2 ff ff 	mov    %rax,-0xd38(%rbp)
    f124:	48 8d 05 ed 6d 01 00 	lea    0x16ded(%rip),%rax        # 25f18 <g_1268+0x3d8>
    f12b:	48 89 85 88 ee ff ff 	mov    %rax,-0x1178(%rbp)
    f132:	c7 85 00 ee ff ff 00 	movl   $0x0,-0x1200(%rbp)
    f139:	00 00 00 
    f13c:	c6 85 68 ed ff ff fa 	movb   $0xfa,-0x1298(%rbp)
    f143:	48 8d 05 f6 6d 01 00 	lea    0x16df6(%rip),%rax        # 25f40 <g_1267>
    f14a:	48 89 85 90 f3 ff ff 	mov    %rax,-0xc70(%rbp)
    f151:	48 8d 85 88 ee ff ff 	lea    -0x1178(%rbp),%rax
    f158:	48 89 85 98 f3 ff ff 	mov    %rax,-0xc68(%rbp)
    f15f:	48 c7 85 a0 f3 ff ff 	movq   $0x0,-0xc60(%rbp)
    f166:	00 00 00 00 
    f16a:	48 8d 85 78 ee ff ff 	lea    -0x1188(%rbp),%rax
    f171:	48 89 85 a8 f3 ff ff 	mov    %rax,-0xc58(%rbp)
    f178:	48 8d 85 78 ee ff ff 	lea    -0x1188(%rbp),%rax
    f17f:	48 89 85 b0 f3 ff ff 	mov    %rax,-0xc50(%rbp)
    f186:	48 c7 85 b8 f3 ff ff 	movq   $0x0,-0xc48(%rbp)
    f18d:	00 00 00 00 
    f191:	48 c7 85 c0 f3 ff ff 	movq   $0x0,-0xc40(%rbp)
    f198:	00 00 00 00 
    f19c:	48 c7 85 c8 f3 ff ff 	movq   $0x0,-0xc38(%rbp)
    f1a3:	00 00 00 00 
    f1a7:	48 c7 85 d0 f3 ff ff 	movq   $0x0,-0xc30(%rbp)
    f1ae:	00 00 00 00 
    f1b2:	48 8d 85 78 ee ff ff 	lea    -0x1188(%rbp),%rax
    f1b9:	48 89 85 d8 f3 ff ff 	mov    %rax,-0xc28(%rbp)
    f1c0:	48 8d 05 79 6d 01 00 	lea    0x16d79(%rip),%rax        # 25f40 <g_1267>
    f1c7:	48 89 85 e0 f3 ff ff 	mov    %rax,-0xc20(%rbp)
    f1ce:	48 8d 85 88 ee ff ff 	lea    -0x1178(%rbp),%rax
    f1d5:	48 89 85 e8 f3 ff ff 	mov    %rax,-0xc18(%rbp)
    f1dc:	48 8d 85 88 ee ff ff 	lea    -0x1178(%rbp),%rax
    f1e3:	48 89 85 f0 f3 ff ff 	mov    %rax,-0xc10(%rbp)
    f1ea:	48 8d 05 4f 6d 01 00 	lea    0x16d4f(%rip),%rax        # 25f40 <g_1267>
    f1f1:	48 89 85 f8 f3 ff ff 	mov    %rax,-0xc08(%rbp)
    f1f8:	48 c7 85 00 f4 ff ff 	movq   $0x0,-0xc00(%rbp)
    f1ff:	00 00 00 00 
    f203:	48 8d 05 36 6d 01 00 	lea    0x16d36(%rip),%rax        # 25f40 <g_1267>
    f20a:	48 89 85 08 f4 ff ff 	mov    %rax,-0xbf8(%rbp)
    f211:	48 c7 85 10 f4 ff ff 	movq   $0x0,-0xbf0(%rbp)
    f218:	00 00 00 00 
    f21c:	48 8d 85 40 ee ff ff 	lea    -0x11c0(%rbp),%rax
    f223:	48 89 85 18 f4 ff ff 	mov    %rax,-0xbe8(%rbp)
    f22a:	48 8d 85 40 ee ff ff 	lea    -0x11c0(%rbp),%rax
    f231:	48 89 85 20 f4 ff ff 	mov    %rax,-0xbe0(%rbp)
    f238:	48 c7 85 28 f4 ff ff 	movq   $0x0,-0xbd8(%rbp)
    f23f:	00 00 00 00 
    f243:	48 c7 85 30 f4 ff ff 	movq   $0x0,-0xbd0(%rbp)
    f24a:	00 00 00 00 
    f24e:	48 c7 85 38 f4 ff ff 	movq   $0x0,-0xbc8(%rbp)
    f255:	00 00 00 00 
    f259:	48 8d 85 40 ee ff ff 	lea    -0x11c0(%rbp),%rax
    f260:	48 89 85 40 f4 ff ff 	mov    %rax,-0xbc0(%rbp)
    f267:	48 c7 85 48 f4 ff ff 	movq   $0x0,-0xbb8(%rbp)
    f26e:	00 00 00 00 
    f272:	48 8d 85 88 ee ff ff 	lea    -0x1178(%rbp),%rax
    f279:	48 89 85 50 f4 ff ff 	mov    %rax,-0xbb0(%rbp)
    f280:	48 8d 85 78 ee ff ff 	lea    -0x1188(%rbp),%rax
    f287:	48 89 85 58 f4 ff ff 	mov    %rax,-0xba8(%rbp)
    f28e:	48 8d 85 88 ee ff ff 	lea    -0x1178(%rbp),%rax
    f295:	48 89 85 60 f4 ff ff 	mov    %rax,-0xba0(%rbp)
    f29c:	48 c7 85 68 f4 ff ff 	movq   $0x0,-0xb98(%rbp)
    f2a3:	00 00 00 00 
    f2a7:	48 8d 85 40 ee ff ff 	lea    -0x11c0(%rbp),%rax
    f2ae:	48 89 85 70 f4 ff ff 	mov    %rax,-0xb90(%rbp)
    f2b5:	48 c7 85 78 f4 ff ff 	movq   $0x0,-0xb88(%rbp)
    f2bc:	00 00 00 00 
    f2c0:	48 8d 85 78 ee ff ff 	lea    -0x1188(%rbp),%rax
    f2c7:	48 89 85 80 f4 ff ff 	mov    %rax,-0xb80(%rbp)
    f2ce:	48 8d 05 6b 6c 01 00 	lea    0x16c6b(%rip),%rax        # 25f40 <g_1267>
    f2d5:	48 89 85 88 f4 ff ff 	mov    %rax,-0xb78(%rbp)
    f2dc:	48 8d 85 40 ee ff ff 	lea    -0x11c0(%rbp),%rax
    f2e3:	48 89 85 90 f4 ff ff 	mov    %rax,-0xb70(%rbp)
    f2ea:	48 8d 05 4f 6c 01 00 	lea    0x16c4f(%rip),%rax        # 25f40 <g_1267>
    f2f1:	48 89 85 98 f4 ff ff 	mov    %rax,-0xb68(%rbp)
    f2f8:	48 8d 85 88 ee ff ff 	lea    -0x1178(%rbp),%rax
    f2ff:	48 89 85 a0 f4 ff ff 	mov    %rax,-0xb60(%rbp)
    f306:	48 8d 85 40 ee ff ff 	lea    -0x11c0(%rbp),%rax
    f30d:	48 89 85 a8 f4 ff ff 	mov    %rax,-0xb58(%rbp)
    f314:	48 8d 05 25 6c 01 00 	lea    0x16c25(%rip),%rax        # 25f40 <g_1267>
    f31b:	48 89 85 b0 f4 ff ff 	mov    %rax,-0xb50(%rbp)
    f322:	48 8d 85 40 ee ff ff 	lea    -0x11c0(%rbp),%rax
    f329:	48 89 85 b8 f4 ff ff 	mov    %rax,-0xb48(%rbp)
    f330:	48 c7 85 c0 f4 ff ff 	movq   $0x0,-0xb40(%rbp)
    f337:	00 00 00 00 
    f33b:	48 c7 85 c8 f4 ff ff 	movq   $0x0,-0xb38(%rbp)
    f342:	00 00 00 00 
    f346:	0f b7 9d 58 ed ff ff 	movzwl -0x12a8(%rbp),%ebx
    f34d:	8b 05 05 3d 01 00    	mov    0x13d05(%rip),%eax        # 23058 <g_128>
    f353:	44 0f b6 e0          	movzbl %al,%r12d
    f357:	48 8b 85 48 ed ff ff 	mov    -0x12b8(%rbp),%rax
    f35e:	0f b6 00             	movzbl (%rax),%eax
    f361:	0f be d0             	movsbl %al,%edx
    f364:	8b 05 d6 3c 01 00    	mov    0x13cd6(%rip),%eax        # 23040 <g_85>
    f36a:	0f b6 c0             	movzbl %al,%eax
    f36d:	89 d6                	mov    %edx,%esi
    f36f:	89 c7                	mov    %eax,%edi
    f371:	e8 17 99 ff ff       	callq  8c8d <safe_rshift_func_uint8_t_u_s>
    f376:	48 8b 85 a0 ee ff ff 	mov    -0x1160(%rbp),%rax
    f37d:	66 c7 00 00 00       	movw   $0x0,(%rax)
    f382:	48 8b 85 a0 ee ff ff 	mov    -0x1160(%rbp),%rax
    f389:	0f b7 00             	movzwl (%rax),%eax
    f38c:	98                   	cwtl   
    f38d:	be 23 f6 ff ff       	mov    $0xfffff623,%esi
    f392:	89 c7                	mov    %eax,%edi
    f394:	e8 5c 90 ff ff       	callq  83f5 <safe_mul_func_int16_t_s_s>
    f399:	66 3d f7 00          	cmp    $0xf7,%ax
    f39d:	0f 96 c0             	setbe  %al
    f3a0:	0f b6 d0             	movzbl %al,%edx
    f3a3:	0f b6 05 29 3d 01 00 	movzbl 0x13d29(%rip),%eax        # 230d3 <g_254+0x3>
    f3aa:	0f b6 c0             	movzbl %al,%eax
    f3ad:	31 c2                	xor    %eax,%edx
    f3af:	48 8b 05 5a 67 01 00 	mov    0x1675a(%rip),%rax        # 25b10 <g_1241>
    f3b6:	48 8b 00             	mov    (%rax),%rax
    f3b9:	89 10                	mov    %edx,(%rax)
    f3bb:	8b 00                	mov    (%rax),%eax
    f3bd:	89 c2                	mov    %eax,%edx
    f3bf:	48 8b 05 3a 57 01 00 	mov    0x1573a(%rip),%rax        # 24b00 <g_135>
    f3c6:	48 8b 00             	mov    (%rax),%rax
    f3c9:	8b 00                	mov    (%rax),%eax
    f3cb:	89 d6                	mov    %edx,%esi
    f3cd:	89 c7                	mov    %eax,%edi
    f3cf:	e8 e2 91 ff ff       	callq  85b6 <safe_add_func_int32_t_s_s>
    f3d4:	0f b6 c0             	movzbl %al,%eax
    f3d7:	44 89 e6             	mov    %r12d,%esi
    f3da:	89 c7                	mov    %eax,%edi
    f3dc:	e8 cd 97 ff ff       	callq  8bae <safe_mod_func_uint8_t_u_u>
    f3e1:	44 0f b6 e0          	movzbl %al,%r12d
    f3e5:	48 c7 85 30 ef ff ff 	movq   $0x0,-0x10d0(%rbp)
    f3ec:	00 00 00 00 
    f3f0:	48 8b 05 11 57 01 00 	mov    0x15711(%rip),%rax        # 24b08 <g_134>
    f3f7:	48 8b 00             	mov    (%rax),%rax
    f3fa:	48 85 c0             	test   %rax,%rax
    f3fd:	0f 95 c0             	setne  %al
    f400:	0f b6 c0             	movzbl %al,%eax
    f403:	be 2b a6 3f 3e       	mov    $0x3e3fa62b,%esi
    f408:	89 c7                	mov    %eax,%edi
    f40a:	e8 ee 9a ff ff       	callq  8efd <safe_mod_func_uint32_t_u_u>
    f40f:	8b 95 80 ed ff ff    	mov    -0x1280(%rbp),%edx
    f415:	39 d0                	cmp    %edx,%eax
    f417:	0f 95 c0             	setne  %al
    f41a:	0f b6 c0             	movzbl %al,%eax
    f41d:	4c 89 e6             	mov    %r12,%rsi
    f420:	48 89 c7             	mov    %rax,%rdi
    f423:	e8 06 9c ff ff       	callq  902e <safe_add_func_uint64_t_u_u>
    f428:	48 83 f8 01          	cmp    $0x1,%rax
    f42c:	74 13                	je     f441 <func_12+0x1b72>
    f42e:	0f b7 05 8b 3c 01 00 	movzwl 0x13c8b(%rip),%eax        # 230c0 <g_253>
    f435:	66 85 c0             	test   %ax,%ax
    f438:	74 07                	je     f441 <func_12+0x1b72>
    f43a:	b8 01 00 00 00       	mov    $0x1,%eax
    f43f:	eb 05                	jmp    f446 <func_12+0x1b77>
    f441:	b8 00 00 00 00       	mov    $0x0,%eax
    f446:	48 98                	cltq   
    f448:	8b 95 80 ed ff ff    	mov    -0x1280(%rbp),%edx
    f44e:	89 d2                	mov    %edx,%edx
    f450:	48 89 c6             	mov    %rax,%rsi
    f453:	48 89 d7             	mov    %rdx,%rdi
    f456:	e8 f0 9b ff ff       	callq  904b <safe_sub_func_uint64_t_u_u>
    f45b:	89 85 a0 ed ff ff    	mov    %eax,-0x1260(%rbp)
    f461:	8b 85 a0 ed ff ff    	mov    -0x1260(%rbp),%eax
    f467:	85 c0                	test   %eax,%eax
    f469:	75 0c                	jne    f477 <func_12+0x1ba8>
    f46b:	48 8b 85 48 ed ff ff 	mov    -0x12b8(%rbp),%rax
    f472:	0f b6 00             	movzbl (%rax),%eax
    f475:	84 c0                	test   %al,%al
    f477:	48 8b 85 70 ee ff ff 	mov    -0x1190(%rbp),%rax
    f47e:	48 8b 95 38 ef ff ff 	mov    -0x10c8(%rbp),%rdx
    f485:	48 89 10             	mov    %rdx,(%rax)
    f488:	8b 85 7c ed ff ff    	mov    -0x1284(%rbp),%eax
    f48e:	88 05 c8 3b 01 00    	mov    %al,0x13bc8(%rip)        # 2305c <g_131>
    f494:	8b 85 54 ed ff ff    	mov    -0x12ac(%rbp),%eax
    f49a:	48 98                	cltq   
    f49c:	48 89 de             	mov    %rbx,%rsi
    f49f:	48 89 c7             	mov    %rax,%rdi
    f4a2:	e8 01 94 ff ff       	callq  88a8 <safe_sub_func_int64_t_s_s>
    f4a7:	c7 85 04 ee ff ff 01 	movl   $0x1,-0x11fc(%rbp)
    f4ae:	00 00 00 
    f4b1:	0f b7 9d 58 ed ff ff 	movzwl -0x12a8(%rbp),%ebx
    f4b8:	be 01 00 00 00       	mov    $0x1,%esi
    f4bd:	bf dd 00 00 00       	mov    $0xdd,%edi
    f4c2:	e8 e7 96 ff ff       	callq  8bae <safe_mod_func_uint8_t_u_u>
    f4c7:	44 0f b6 e0          	movzbl %al,%r12d
    f4cb:	8b 85 7c ed ff ff    	mov    -0x1284(%rbp),%eax
    f4d1:	0f b7 c0             	movzwl %ax,%eax
    f4d4:	be 08 00 00 00       	mov    $0x8,%esi
    f4d9:	89 c7                	mov    %eax,%edi
    f4db:	e8 de 98 ff ff       	callq  8dbe <safe_lshift_func_uint16_t_u_s>
    f4e0:	89 c2                	mov    %eax,%edx
    f4e2:	48 8b 05 c7 5d 01 00 	mov    0x15dc7(%rip),%rax        # 252b0 <g_432>
    f4e9:	88 10                	mov    %dl,(%rax)
    f4eb:	0f b6 00             	movzbl (%rax),%eax
    f4ee:	83 c8 f7             	or     $0xfffffff7,%eax
    f4f1:	48 0f be d0          	movsbq %al,%rdx
    f4f5:	0f b7 85 58 ed ff ff 	movzwl -0x12a8(%rbp),%eax
    f4fc:	48 21 d0             	and    %rdx,%rax
    f4ff:	48 39 85 00 ef ff ff 	cmp    %rax,-0x1100(%rbp)
    f506:	0f 9f c0             	setg   %al
    f509:	0f b6 c0             	movzbl %al,%eax
    f50c:	41 39 c4             	cmp    %eax,%r12d
    f50f:	0f 95 c0             	setne  %al
    f512:	0f b6 c0             	movzbl %al,%eax
    f515:	48 89 de             	mov    %rbx,%rsi
    f518:	48 89 c7             	mov    %rax,%rdi
    f51b:	e8 88 93 ff ff       	callq  88a8 <safe_sub_func_int64_t_s_s>
    f520:	0f b7 95 58 ed ff ff 	movzwl -0x12a8(%rbp),%edx
    f527:	48 8d 05 a2 6a 01 00 	lea    0x16aa2(%rip),%rax        # 25fd0 <g_1411>
    f52e:	48 8b 00             	mov    (%rax),%rax
    f531:	48 8b 00             	mov    (%rax),%rax
    f534:	48 8b 00             	mov    (%rax),%rax
    f537:	48 8b 00             	mov    (%rax),%rax
    f53a:	48 8b 00             	mov    (%rax),%rax
    f53d:	48 21 d0             	and    %rdx,%rax
    f540:	48 85 c0             	test   %rax,%rax
    f543:	0f 94 c0             	sete   %al
    f546:	0f b6 c0             	movzbl %al,%eax
    f549:	39 85 04 ee ff ff    	cmp    %eax,-0x11fc(%rbp)
    f54f:	0f 95 c2             	setne  %dl
    f552:	48 8b 05 a7 55 01 00 	mov    0x155a7(%rip),%rax        # 24b00 <g_135>
    f559:	48 8b 00             	mov    (%rax),%rax
    f55c:	0f b6 d2             	movzbl %dl,%edx
    f55f:	89 10                	mov    %edx,(%rax)
    f561:	48 c7 05 d4 3d 01 00 	movq   $0x0,0x13dd4(%rip)        # 23340 <g_856>
    f568:	00 00 00 00 
    f56c:	e9 1f 01 00 00       	jmpq   f690 <func_12+0x1dc1>
    f571:	48 8d 85 30 f2 ff ff 	lea    -0xdd0(%rbp),%rax
    f578:	48 83 e8 80          	sub    $0xffffffffffffff80,%rax
    f57c:	48 89 85 40 ef ff ff 	mov    %rax,-0x10c0(%rbp)
    f583:	c7 85 70 f1 ff ff 01 	movl   $0x1,-0xe90(%rbp)
    f58a:	00 00 00 
    f58d:	c7 85 74 f1 ff ff 01 	movl   $0x1,-0xe8c(%rbp)
    f594:	00 00 00 
    f597:	c7 85 78 f1 ff ff 01 	movl   $0x1,-0xe88(%rbp)
    f59e:	00 00 00 
    f5a1:	c7 85 7c f1 ff ff 01 	movl   $0x1,-0xe84(%rbp)
    f5a8:	00 00 00 
    f5ab:	c7 85 80 f1 ff ff 01 	movl   $0x1,-0xe80(%rbp)
    f5b2:	00 00 00 
    f5b5:	c7 85 84 f1 ff ff 01 	movl   $0x1,-0xe7c(%rbp)
    f5bc:	00 00 00 
    f5bf:	c7 85 88 f1 ff ff 01 	movl   $0x1,-0xe78(%rbp)
    f5c6:	00 00 00 
    f5c9:	c7 85 8c f1 ff ff 01 	movl   $0x1,-0xe74(%rbp)
    f5d0:	00 00 00 
    f5d3:	c7 85 90 f1 ff ff 01 	movl   $0x1,-0xe70(%rbp)
    f5da:	00 00 00 
    f5dd:	c7 85 94 f1 ff ff 01 	movl   $0x1,-0xe6c(%rbp)
    f5e4:	00 00 00 
    f5e7:	c7 85 cc ed ff ff 00 	movl   $0x0,-0x1234(%rbp)
    f5ee:	00 00 00 
    f5f1:	eb 14                	jmp    f607 <func_12+0x1d38>
    f5f3:	8b 85 cc ed ff ff    	mov    -0x1234(%rbp),%eax
    f5f9:	48 98                	cltq   
    f5fb:	c6 44 05 d3 00       	movb   $0x0,-0x2d(%rbp,%rax,1)
    f600:	83 85 cc ed ff ff 01 	addl   $0x1,-0x1234(%rbp)
    f607:	83 bd cc ed ff ff 01 	cmpl   $0x1,-0x1234(%rbp)
    f60e:	7e e3                	jle    f5f3 <func_12+0x1d24>
    f610:	0f b7 85 5c ed ff ff 	movzwl -0x12a4(%rbp),%eax
    f617:	0f be d0             	movsbl %al,%edx
    f61a:	0f b6 45 d3          	movzbl -0x2d(%rbp),%eax
    f61e:	0f be c0             	movsbl %al,%eax
    f621:	89 d6                	mov    %edx,%esi
    f623:	89 c7                	mov    %eax,%edi
    f625:	e8 e8 8b ff ff       	callq  8212 <safe_mul_func_int8_t_s_s>
    f62a:	48 8b 15 c7 64 01 00 	mov    0x164c7(%rip),%rdx        # 25af8 <g_764>
    f631:	8b 0a                	mov    (%rdx),%ecx
    f633:	0f be d0             	movsbl %al,%edx
    f636:	48 8b 05 bb 64 01 00 	mov    0x164bb(%rip),%rax        # 25af8 <g_764>
    f63d:	09 ca                	or     %ecx,%edx
    f63f:	89 10                	mov    %edx,(%rax)
    f641:	48 8b 95 50 f2 ff ff 	mov    -0xdb0(%rbp),%rdx
    f648:	48 8b 85 40 ef ff ff 	mov    -0x10c0(%rbp),%rax
    f64f:	48 89 10             	mov    %rdx,(%rax)
    f652:	48 8b 85 80 ee ff ff 	mov    -0x1180(%rbp),%rax
    f659:	48 8d 95 54 ed ff ff 	lea    -0x12ac(%rbp),%rdx
    f660:	48 89 10             	mov    %rdx,(%rax)
    f663:	8b 85 54 ed ff ff    	mov    -0x12ac(%rbp),%eax
    f669:	85 c0                	test   %eax,%eax
    f66b:	75 36                	jne    f6a3 <func_12+0x1dd4>
    f66d:	48 8b 85 80 ee ff ff 	mov    -0x1180(%rbp),%rax
    f674:	48 8d 95 7c ed ff ff 	lea    -0x1284(%rbp),%rdx
    f67b:	48 89 10             	mov    %rdx,(%rax)
    f67e:	48 8b 05 bb 3c 01 00 	mov    0x13cbb(%rip),%rax        # 23340 <g_856>
    f685:	48 83 c0 01          	add    $0x1,%rax
    f689:	48 89 05 b0 3c 01 00 	mov    %rax,0x13cb0(%rip)        # 23340 <g_856>
    f690:	48 8b 05 a9 3c 01 00 	mov    0x13ca9(%rip),%rax        # 23340 <g_856>
    f697:	48 83 f8 01          	cmp    $0x1,%rax
    f69b:	0f 86 d0 fe ff ff    	jbe    f571 <func_12+0x1ca2>
    f6a1:	eb 01                	jmp    f6a4 <func_12+0x1dd5>
    f6a3:	90                   	nop
    f6a4:	c7 85 bc ed ff ff 01 	movl   $0x1,-0x1244(%rbp)
    f6ab:	00 00 00 
    f6ae:	e9 ed 01 00 00       	jmpq   f8a0 <func_12+0x1fd1>
    f6b3:	48 8d 05 6a 39 01 00 	lea    0x1396a(%rip),%rax        # 23024 <g_18>
    f6ba:	48 89 85 48 ef ff ff 	mov    %rax,-0x10b8(%rbp)
    f6c1:	48 8d 85 a0 ed ff ff 	lea    -0x1260(%rbp),%rax
    f6c8:	48 89 85 50 ef ff ff 	mov    %rax,-0x10b0(%rbp)
    f6cf:	48 c7 85 58 ef ff ff 	movq   $0x0,-0x10a8(%rbp)
    f6d6:	00 00 00 00 
    f6da:	48 c7 85 70 f1 ff ff 	movq   $0x0,-0xe90(%rbp)
    f6e1:	00 00 00 00 
    f6e5:	48 c7 85 78 f1 ff ff 	movq   $0x0,-0xe88(%rbp)
    f6ec:	00 00 00 00 
    f6f0:	48 c7 85 80 f1 ff ff 	movq   $0x0,-0xe80(%rbp)
    f6f7:	00 00 00 00 
    f6fb:	48 c7 85 88 f1 ff ff 	movq   $0x0,-0xe78(%rbp)
    f702:	00 00 00 00 
    f706:	48 c7 85 90 f1 ff ff 	movq   $0x0,-0xe70(%rbp)
    f70d:	00 00 00 00 
    f711:	48 c7 85 98 f1 ff ff 	movq   $0x0,-0xe68(%rbp)
    f718:	00 00 00 00 
    f71c:	48 c7 85 a0 f1 ff ff 	movq   $0x0,-0xe60(%rbp)
    f723:	00 00 00 00 
    f727:	48 c7 85 a8 f1 ff ff 	movq   $0x0,-0xe58(%rbp)
    f72e:	00 00 00 00 
    f732:	48 c7 85 b0 f1 ff ff 	movq   $0x0,-0xe50(%rbp)
    f739:	00 00 00 00 
    f73d:	48 c7 85 b8 f1 ff ff 	movq   $0x0,-0xe48(%rbp)
    f744:	00 00 00 00 
    f748:	66 83 bd 58 ed ff ff 	cmpw   $0x0,-0x12a8(%rbp)
    f74f:	00 
    f750:	0f 85 59 01 00 00    	jne    f8af <func_12+0x1fe0>
    f756:	66 83 85 6c ed ff ff 	addw   $0x1,-0x1294(%rbp)
    f75d:	01 
    f75e:	0f b7 85 5c ed ff ff 	movzwl -0x12a4(%rbp),%eax
    f765:	0f b6 d8             	movzbl %al,%ebx
    f768:	8b 85 84 ed ff ff    	mov    -0x127c(%rbp),%eax
    f76e:	41 89 c5             	mov    %eax,%r13d
    f771:	44 8b a5 54 ed ff ff 	mov    -0x12ac(%rbp),%r12d
    f778:	48 8d 85 40 ee ff ff 	lea    -0x11c0(%rbp),%rax
    f77f:	48 89 85 20 f4 ff ff 	mov    %rax,-0xbe0(%rbp)
    f786:	48 8b 95 20 f4 ff ff 	mov    -0xbe0(%rbp),%rdx
    f78d:	48 8d 85 88 ee ff ff 	lea    -0x1178(%rbp),%rax
    f794:	48 39 c2             	cmp    %rax,%rdx
    f797:	0f 95 c0             	setne  %al
    f79a:	0f b6 d0             	movzbl %al,%edx
    f79d:	0f b6 05 fc 39 01 00 	movzbl 0x139fc(%rip),%eax        # 231a0 <g_595>
    f7a4:	8d 48 ff             	lea    -0x1(%rax),%ecx
    f7a7:	88 0d f3 39 01 00    	mov    %cl,0x139f3(%rip)        # 231a0 <g_595>
    f7ad:	0f b6 c0             	movzbl %al,%eax
    f7b0:	89 d6                	mov    %edx,%esi
    f7b2:	89 c7                	mov    %eax,%edi
    f7b4:	e8 bf 93 ff ff       	callq  8b78 <safe_sub_func_uint8_t_u_u>
    f7b9:	84 c0                	test   %al,%al
    f7bb:	0f 95 c2             	setne  %dl
    f7be:	48 8b 05 2b 53 01 00 	mov    0x1532b(%rip),%rax        # 24af0 <g_101>
    f7c5:	0f b6 d2             	movzbl %dl,%edx
    f7c8:	89 10                	mov    %edx,(%rax)
    f7ca:	8b 00                	mov    (%rax),%eax
    f7cc:	44 89 e6             	mov    %r12d,%esi
    f7cf:	89 c7                	mov    %eax,%edi
    f7d1:	e8 29 8f ff ff       	callq  86ff <safe_div_func_int32_t_s_s>
    f7d6:	85 c0                	test   %eax,%eax
    f7d8:	74 17                	je     f7f1 <func_12+0x1f22>
    f7da:	48 8b 85 10 ef ff ff 	mov    -0x10f0(%rbp),%rax
    f7e1:	48 3b 85 20 ef ff ff 	cmp    -0x10e0(%rbp),%rax
    f7e8:	74 07                	je     f7f1 <func_12+0x1f22>
    f7ea:	b8 01 00 00 00       	mov    $0x1,%eax
    f7ef:	eb 05                	jmp    f7f6 <func_12+0x1f27>
    f7f1:	b8 00 00 00 00       	mov    $0x0,%eax
    f7f6:	0f be c0             	movsbl %al,%eax
    f7f9:	44 89 ee             	mov    %r13d,%esi
    f7fc:	89 c7                	mov    %eax,%edi
    f7fe:	e8 69 8b ff ff       	callq  836c <safe_rshift_func_int8_t_s_u>
    f803:	48 8b 05 be 3b 01 00 	mov    0x13bbe(%rip),%rax        # 233c8 <g_1079>
    f80a:	48 8d 50 01          	lea    0x1(%rax),%rdx
    f80e:	48 89 15 b3 3b 01 00 	mov    %rdx,0x13bb3(%rip)        # 233c8 <g_1079>
    f815:	48 8b 95 00 ef ff ff 	mov    -0x1100(%rbp),%rdx
    f81c:	48 39 d0             	cmp    %rdx,%rax
    f81f:	0f 93 c0             	setae  %al
    f822:	0f b6 d0             	movzbl %al,%edx
    f825:	8b 85 84 ed ff ff    	mov    -0x127c(%rbp),%eax
    f82b:	39 c2                	cmp    %eax,%edx
    f82d:	0f 95 c0             	setne  %al
    f830:	0f b6 c0             	movzbl %al,%eax
    f833:	89 de                	mov    %ebx,%esi
    f835:	89 c7                	mov    %eax,%edi
    f837:	e8 72 93 ff ff       	callq  8bae <safe_mod_func_uint8_t_u_u>
    f83c:	48 8b 05 cd 62 01 00 	mov    0x162cd(%rip),%rax        # 25b10 <g_1241>
    f843:	48 8b 00             	mov    (%rax),%rax
    f846:	8b 10                	mov    (%rax),%edx
    f848:	83 ea 01             	sub    $0x1,%edx
    f84b:	89 10                	mov    %edx,(%rax)
    f84d:	8b 00                	mov    (%rax),%eax
    f84f:	be 01 00 00 00       	mov    $0x1,%esi
    f854:	89 c7                	mov    %eax,%edi
    f856:	e8 75 96 ff ff       	callq  8ed0 <safe_sub_func_uint32_t_u_u>
    f85b:	b8 01 00 00 00       	mov    $0x1,%eax
    f860:	0f be d8             	movsbl %al,%ebx
    f863:	0f b7 95 6c ed ff ff 	movzwl -0x1294(%rbp),%edx
    f86a:	48 8b 85 00 ef ff ff 	mov    -0x1100(%rbp),%rax
    f871:	48 89 d6             	mov    %rdx,%rsi
    f874:	48 89 c7             	mov    %rax,%rdi
    f877:	e8 7b 91 ff ff       	callq  89f7 <safe_div_func_int64_t_s_s>
    f87c:	0f be c0             	movsbl %al,%eax
    f87f:	89 de                	mov    %ebx,%esi
    f881:	89 c7                	mov    %eax,%edi
    f883:	e8 8a 89 ff ff       	callq  8212 <safe_mul_func_int8_t_s_s>
    f888:	8b 95 f8 f0 ff ff    	mov    -0xf08(%rbp),%edx
    f88e:	0f be c0             	movsbl %al,%eax
    f891:	21 d0                	and    %edx,%eax
    f893:	89 85 f8 f0 ff ff    	mov    %eax,-0xf08(%rbp)
    f899:	83 ad bc ed ff ff 01 	subl   $0x1,-0x1244(%rbp)
    f8a0:	83 bd bc ed ff ff 00 	cmpl   $0x0,-0x1244(%rbp)
    f8a7:	0f 89 06 fe ff ff    	jns    f6b3 <func_12+0x1de4>
    f8ad:	eb 01                	jmp    f8b0 <func_12+0x1fe1>
    f8af:	90                   	nop
    f8b0:	8b 85 54 ed ff ff    	mov    -0x12ac(%rbp),%eax
    f8b6:	83 c0 01             	add    $0x1,%eax
    f8b9:	89 85 54 ed ff ff    	mov    %eax,-0x12ac(%rbp)
    f8bf:	8b 85 54 ed ff ff    	mov    -0x12ac(%rbp),%eax
    f8c5:	83 f8 01             	cmp    $0x1,%eax
    f8c8:	0f 8e 62 f6 ff ff    	jle    ef30 <func_12+0x1661>
    f8ce:	48 8b 05 4b 67 01 00 	mov    0x1674b(%rip),%rax        # 26020 <g_1670>
    f8d5:	e9 8f 38 00 00       	jmpq   13169 <func_12+0x589a>
    f8da:	0f b7 85 5c ed ff ff 	movzwl -0x12a4(%rbp),%eax
    f8e1:	be 01 00 00 00       	mov    $0x1,%esi
    f8e6:	89 c7                	mov    %eax,%edi
    f8e8:	e8 e3 95 ff ff       	callq  8ed0 <safe_sub_func_uint32_t_u_u>
    f8ed:	85 c0                	test   %eax,%eax
    f8ef:	0f 84 c2 00 00 00    	je     f9b7 <func_12+0x20e8>
    f8f5:	48 8b 85 00 ef ff ff 	mov    -0x1100(%rbp),%rax
    f8fc:	89 c3                	mov    %eax,%ebx
    f8fe:	48 8b 05 43 66 01 00 	mov    0x16643(%rip),%rax        # 25f48 <g_1288>
    f905:	48 8b 00             	mov    (%rax),%rax
    f908:	48 39 85 28 ef ff ff 	cmp    %rax,-0x10d8(%rbp)
    f90f:	0f 95 c0             	setne  %al
    f912:	0f b6 d0             	movzbl %al,%edx
    f915:	8b 85 80 ed ff ff    	mov    -0x1280(%rbp),%eax
    f91b:	0f b7 c0             	movzwl %ax,%eax
    f91e:	89 d6                	mov    %edx,%esi
    f920:	89 c7                	mov    %eax,%edi
    f922:	e8 97 94 ff ff       	callq  8dbe <safe_lshift_func_uint16_t_u_s>
    f927:	89 c2                	mov    %eax,%edx
    f929:	48 8b 85 48 ed ff ff 	mov    -0x12b8(%rbp),%rax
    f930:	0f b6 00             	movzbl (%rax),%eax
    f933:	31 c2                	xor    %eax,%edx
    f935:	48 8b 05 9c 66 01 00 	mov    0x1669c(%rip),%rax        # 25fd8 <g_1469>
    f93c:	48 8b 00             	mov    (%rax),%rax
    f93f:	f7 d2                	not    %edx
    f941:	88 10                	mov    %dl,(%rax)
    f943:	0f b6 00             	movzbl (%rax),%eax
    f946:	48 0f be c0          	movsbq %al,%rax
    f94a:	48 39 85 00 ef ff ff 	cmp    %rax,-0x1100(%rbp)
    f951:	0f 95 c0             	setne  %al
    f954:	0f b6 c0             	movzbl %al,%eax
    f957:	be 00 00 00 00       	mov    $0x0,%esi
    f95c:	89 c7                	mov    %eax,%edi
    f95e:	e8 7e 8b ff ff       	callq  84e1 <safe_lshift_func_int16_t_s_u>
    f963:	48 0f bf c0          	movswq %ax,%rax
    f967:	48 89 c6             	mov    %rax,%rsi
    f96a:	48 c7 c7 f9 ff ff ff 	mov    $0xfffffffffffffff9,%rdi
    f971:	e8 32 8f ff ff       	callq  88a8 <safe_sub_func_int64_t_s_s>
    f976:	0f b7 c0             	movzwl %ax,%eax
    f979:	89 c6                	mov    %eax,%esi
    f97b:	bf 1e 6d 00 00       	mov    $0x6d1e,%edi
    f980:	e8 7a 93 ff ff       	callq  8cff <safe_add_func_uint16_t_u_u>
    f985:	83 f0 03             	xor    $0x3,%eax
    f988:	66 39 85 58 ed ff ff 	cmp    %ax,-0x12a8(%rbp)
    f98f:	0f 92 c0             	setb   %al
    f992:	0f b6 d0             	movzbl %al,%edx
    f995:	8b 85 54 ed ff ff    	mov    -0x12ac(%rbp),%eax
    f99b:	39 c2                	cmp    %eax,%edx
    f99d:	0f 9e c0             	setle  %al
    f9a0:	0f b6 c0             	movzbl %al,%eax
    f9a3:	89 de                	mov    %ebx,%esi
    f9a5:	89 c7                	mov    %eax,%edi
    f9a7:	e8 89 89 ff ff       	callq  8335 <safe_rshift_func_int8_t_s_s>
    f9ac:	84 c0                	test   %al,%al
    f9ae:	74 07                	je     f9b7 <func_12+0x20e8>
    f9b0:	b9 01 00 00 00       	mov    $0x1,%ecx
    f9b5:	eb 05                	jmp    f9bc <func_12+0x20ed>
    f9b7:	b9 00 00 00 00       	mov    $0x0,%ecx
    f9bc:	48 8b 05 45 61 01 00 	mov    0x16145(%rip),%rax        # 25b08 <g_1230>
    f9c3:	8b 10                	mov    (%rax),%edx
    f9c5:	48 8b 05 3c 61 01 00 	mov    0x1613c(%rip),%rax        # 25b08 <g_1230>
    f9cc:	09 ca                	or     %ecx,%edx
    f9ce:	89 10                	mov    %edx,(%rax)
    f9d0:	0f b7 85 6e ed ff ff 	movzwl -0x1292(%rbp),%eax
    f9d7:	83 e8 01             	sub    $0x1,%eax
    f9da:	66 89 85 6e ed ff ff 	mov    %ax,-0x1292(%rbp)
    f9e1:	48 c7 85 18 ef ff ff 	movq   $0x0,-0x10e8(%rbp)
    f9e8:	00 00 00 00 
    f9ec:	e9 cb 0e 00 00       	jmpq   108bc <func_12+0x2fed>
    f9f1:	c6 85 66 ed ff ff 98 	movb   $0x98,-0x129a(%rbp)
    f9f8:	66 c7 85 74 ed ff ff 	movw   $0x72fd,-0x128c(%rbp)
    f9ff:	fd 72 
    fa01:	c7 85 dc ed ff ff 3c 	movl   $0x2939663c,-0x1224(%rbp)
    fa08:	66 39 29 
    fa0b:	c7 85 e0 ed ff ff ff 	movl   $0xffffffff,-0x1220(%rbp)
    fa12:	ff ff ff 
    fa15:	c7 85 e4 ed ff ff ff 	movl   $0xffffffff,-0x121c(%rbp)
    fa1c:	ff ff ff 
    fa1f:	c7 85 e8 ed ff ff 99 	movl   $0xc312e399,-0x1218(%rbp)
    fa26:	e3 12 c3 
    fa29:	c7 85 90 f3 ff ff ff 	movl   $0xffffffff,-0xc70(%rbp)
    fa30:	ff ff ff 
    fa33:	c7 85 94 f3 ff ff 04 	movl   $0x4,-0xc6c(%rbp)
    fa3a:	00 00 00 
    fa3d:	c7 85 98 f3 ff ff ab 	movl   $0x2c85dfab,-0xc68(%rbp)
    fa44:	df 85 2c 
    fa47:	c7 85 9c f3 ff ff ab 	movl   $0x2c85dfab,-0xc64(%rbp)
    fa4e:	df 85 2c 
    fa51:	c7 85 a0 f3 ff ff 04 	movl   $0x4,-0xc60(%rbp)
    fa58:	00 00 00 
    fa5b:	c7 85 a4 f3 ff ff ff 	movl   $0xffffffff,-0xc5c(%rbp)
    fa62:	ff ff ff 
    fa65:	c7 85 a8 f3 ff ff 00 	movl   $0x0,-0xc58(%rbp)
    fa6c:	00 00 00 
    fa6f:	c7 85 ac f3 ff ff ff 	movl   $0xffffffff,-0xc54(%rbp)
    fa76:	ff ff ff 
    fa79:	c7 85 b0 f3 ff ff 04 	movl   $0x4,-0xc50(%rbp)
    fa80:	00 00 00 
    fa83:	c7 85 b4 f3 ff ff ab 	movl   $0x2c85dfab,-0xc4c(%rbp)
    fa8a:	df 85 2c 
    fa8d:	c7 85 b8 f3 ff ff ab 	movl   $0x2c85dfab,-0xc48(%rbp)
    fa94:	df 85 2c 
    fa97:	c7 85 bc f3 ff ff 04 	movl   $0x4,-0xc44(%rbp)
    fa9e:	00 00 00 
    faa1:	c7 85 c0 f3 ff ff ff 	movl   $0xffffffff,-0xc40(%rbp)
    faa8:	ff ff ff 
    faab:	c7 85 c4 f3 ff ff 00 	movl   $0x0,-0xc3c(%rbp)
    fab2:	00 00 00 
    fab5:	c7 85 c8 f3 ff ff ff 	movl   $0xffffffff,-0xc38(%rbp)
    fabc:	ff ff ff 
    fabf:	c7 85 cc f3 ff ff 04 	movl   $0x4,-0xc34(%rbp)
    fac6:	00 00 00 
    fac9:	c7 85 d0 f3 ff ff ab 	movl   $0x2c85dfab,-0xc30(%rbp)
    fad0:	df 85 2c 
    fad3:	c7 85 d4 f3 ff ff ab 	movl   $0x2c85dfab,-0xc2c(%rbp)
    fada:	df 85 2c 
    fadd:	c7 85 ec ed ff ff 09 	movl   $0x9,-0x1214(%rbp)
    fae4:	00 00 00 
    fae7:	48 b8 a2 49 14 be 95 	movabs $0x8e6de95be1449a2,%rax
    faee:	de e6 08 
    faf1:	48 89 85 e8 ee ff ff 	mov    %rax,-0x1118(%rbp)
    faf8:	66 c7 85 5c ed ff ff 	movw   $0xf,-0x12a4(%rbp)
    faff:	0f 00 
    fb01:	e9 a8 0d 00 00       	jmpq   108ae <func_12+0x2fdf>
    fb06:	c6 85 67 ed ff ff d6 	movb   $0xd6,-0x1299(%rbp)
    fb0d:	48 8d 85 d0 f4 ff ff 	lea    -0xb30(%rbp),%rax
    fb14:	48 8d 15 c5 e6 00 00 	lea    0xe6c5(%rip),%rdx        # 1e1e0 <g_2423+0x130>
    fb1b:	b9 64 00 00 00       	mov    $0x64,%ecx
    fb20:	48 89 c7             	mov    %rax,%rdi
    fb23:	48 89 d6             	mov    %rdx,%rsi
    fb26:	f3 48 a5             	rep movsq %ds:(%rsi),%es:(%rdi)
    fb29:	c7 85 f0 ed ff ff e4 	movl   $0x59e834e4,-0x1210(%rbp)
    fb30:	34 e8 59 
    fb33:	48 8d 85 40 ee ff ff 	lea    -0x11c0(%rbp),%rax
    fb3a:	48 89 85 88 ee ff ff 	mov    %rax,-0x1178(%rbp)
    fb41:	48 8d 85 88 ee ff ff 	lea    -0x1178(%rbp),%rax
    fb48:	48 89 85 f0 f7 ff ff 	mov    %rax,-0x810(%rbp)
    fb4f:	48 8d 85 88 ee ff ff 	lea    -0x1178(%rbp),%rax
    fb56:	48 89 85 f8 f7 ff ff 	mov    %rax,-0x808(%rbp)
    fb5d:	48 8d 85 88 ee ff ff 	lea    -0x1178(%rbp),%rax
    fb64:	48 89 85 00 f8 ff ff 	mov    %rax,-0x800(%rbp)
    fb6b:	48 8d 85 88 ee ff ff 	lea    -0x1178(%rbp),%rax
    fb72:	48 89 85 08 f8 ff ff 	mov    %rax,-0x7f8(%rbp)
    fb79:	48 8d 85 88 ee ff ff 	lea    -0x1178(%rbp),%rax
    fb80:	48 89 85 10 f8 ff ff 	mov    %rax,-0x7f0(%rbp)
    fb87:	48 8d 85 88 ee ff ff 	lea    -0x1178(%rbp),%rax
    fb8e:	48 89 85 18 f8 ff ff 	mov    %rax,-0x7e8(%rbp)
    fb95:	48 8d 85 88 ee ff ff 	lea    -0x1178(%rbp),%rax
    fb9c:	48 89 85 20 f8 ff ff 	mov    %rax,-0x7e0(%rbp)
    fba3:	48 8d 85 88 ee ff ff 	lea    -0x1178(%rbp),%rax
    fbaa:	48 89 85 28 f8 ff ff 	mov    %rax,-0x7d8(%rbp)
    fbb1:	48 8d 85 88 ee ff ff 	lea    -0x1178(%rbp),%rax
    fbb8:	48 89 85 30 f8 ff ff 	mov    %rax,-0x7d0(%rbp)
    fbbf:	48 8d 85 88 ee ff ff 	lea    -0x1178(%rbp),%rax
    fbc6:	48 89 85 38 f8 ff ff 	mov    %rax,-0x7c8(%rbp)
    fbcd:	48 8d 85 88 ee ff ff 	lea    -0x1178(%rbp),%rax
    fbd4:	48 89 85 40 f8 ff ff 	mov    %rax,-0x7c0(%rbp)
    fbdb:	48 8d 85 88 ee ff ff 	lea    -0x1178(%rbp),%rax
    fbe2:	48 89 85 48 f8 ff ff 	mov    %rax,-0x7b8(%rbp)
    fbe9:	48 8d 85 88 ee ff ff 	lea    -0x1178(%rbp),%rax
    fbf0:	48 89 85 50 f8 ff ff 	mov    %rax,-0x7b0(%rbp)
    fbf7:	48 c7 85 58 f8 ff ff 	movq   $0x0,-0x7a8(%rbp)
    fbfe:	00 00 00 00 
    fc02:	48 8d 85 88 ee ff ff 	lea    -0x1178(%rbp),%rax
    fc09:	48 89 85 60 f8 ff ff 	mov    %rax,-0x7a0(%rbp)
    fc10:	48 8d 85 88 ee ff ff 	lea    -0x1178(%rbp),%rax
    fc17:	48 89 85 68 f8 ff ff 	mov    %rax,-0x798(%rbp)
    fc1e:	48 8d 85 88 ee ff ff 	lea    -0x1178(%rbp),%rax
    fc25:	48 89 85 70 f8 ff ff 	mov    %rax,-0x790(%rbp)
    fc2c:	48 8d 85 88 ee ff ff 	lea    -0x1178(%rbp),%rax
    fc33:	48 89 85 78 f8 ff ff 	mov    %rax,-0x788(%rbp)
    fc3a:	48 8d 85 88 ee ff ff 	lea    -0x1178(%rbp),%rax
    fc41:	48 89 85 80 f8 ff ff 	mov    %rax,-0x780(%rbp)
    fc48:	48 8d 85 88 ee ff ff 	lea    -0x1178(%rbp),%rax
    fc4f:	48 89 85 88 f8 ff ff 	mov    %rax,-0x778(%rbp)
    fc56:	48 8d 85 88 ee ff ff 	lea    -0x1178(%rbp),%rax
    fc5d:	48 89 85 90 f8 ff ff 	mov    %rax,-0x770(%rbp)
    fc64:	48 8d 85 88 ee ff ff 	lea    -0x1178(%rbp),%rax
    fc6b:	48 89 85 98 f8 ff ff 	mov    %rax,-0x768(%rbp)
    fc72:	48 8d 85 88 ee ff ff 	lea    -0x1178(%rbp),%rax
    fc79:	48 89 85 a0 f8 ff ff 	mov    %rax,-0x760(%rbp)
    fc80:	48 c7 85 a8 f8 ff ff 	movq   $0x0,-0x758(%rbp)
    fc87:	00 00 00 00 
    fc8b:	48 8d 85 88 ee ff ff 	lea    -0x1178(%rbp),%rax
    fc92:	48 89 85 b0 f8 ff ff 	mov    %rax,-0x750(%rbp)
    fc99:	48 c7 85 b8 f8 ff ff 	movq   $0x0,-0x748(%rbp)
    fca0:	00 00 00 00 
    fca4:	48 8d 85 88 ee ff ff 	lea    -0x1178(%rbp),%rax
    fcab:	48 89 85 c0 f8 ff ff 	mov    %rax,-0x740(%rbp)
    fcb2:	48 8d 85 88 ee ff ff 	lea    -0x1178(%rbp),%rax
    fcb9:	48 89 85 c8 f8 ff ff 	mov    %rax,-0x738(%rbp)
    fcc0:	48 8d 85 88 ee ff ff 	lea    -0x1178(%rbp),%rax
    fcc7:	48 89 85 d0 f8 ff ff 	mov    %rax,-0x730(%rbp)
    fcce:	48 c7 85 d8 f8 ff ff 	movq   $0x0,-0x728(%rbp)
    fcd5:	00 00 00 00 
    fcd9:	48 c7 85 e0 f8 ff ff 	movq   $0x0,-0x720(%rbp)
    fce0:	00 00 00 00 
    fce4:	48 8d 85 88 ee ff ff 	lea    -0x1178(%rbp),%rax
    fceb:	48 89 85 e8 f8 ff ff 	mov    %rax,-0x718(%rbp)
    fcf2:	48 8d 85 88 ee ff ff 	lea    -0x1178(%rbp),%rax
    fcf9:	48 89 85 f0 f8 ff ff 	mov    %rax,-0x710(%rbp)
    fd00:	48 c7 85 f8 f8 ff ff 	movq   $0x0,-0x708(%rbp)
    fd07:	00 00 00 00 
    fd0b:	48 8d 85 88 ee ff ff 	lea    -0x1178(%rbp),%rax
    fd12:	48 89 85 00 f9 ff ff 	mov    %rax,-0x700(%rbp)
    fd19:	48 8d 85 88 ee ff ff 	lea    -0x1178(%rbp),%rax
    fd20:	48 89 85 08 f9 ff ff 	mov    %rax,-0x6f8(%rbp)
    fd27:	48 c7 85 10 f9 ff ff 	movq   $0x0,-0x6f0(%rbp)
    fd2e:	00 00 00 00 
    fd32:	48 8d 85 88 ee ff ff 	lea    -0x1178(%rbp),%rax
    fd39:	48 89 85 18 f9 ff ff 	mov    %rax,-0x6e8(%rbp)
    fd40:	48 8d 85 88 ee ff ff 	lea    -0x1178(%rbp),%rax
    fd47:	48 89 85 20 f9 ff ff 	mov    %rax,-0x6e0(%rbp)
    fd4e:	48 8d 85 88 ee ff ff 	lea    -0x1178(%rbp),%rax
    fd55:	48 89 85 28 f9 ff ff 	mov    %rax,-0x6d8(%rbp)
    fd5c:	48 c7 85 30 f9 ff ff 	movq   $0x0,-0x6d0(%rbp)
    fd63:	00 00 00 00 
    fd67:	48 8d 85 88 ee ff ff 	lea    -0x1178(%rbp),%rax
    fd6e:	48 89 85 38 f9 ff ff 	mov    %rax,-0x6c8(%rbp)
    fd75:	48 8d 85 88 ee ff ff 	lea    -0x1178(%rbp),%rax
    fd7c:	48 89 85 40 f9 ff ff 	mov    %rax,-0x6c0(%rbp)
    fd83:	48 8d 85 88 ee ff ff 	lea    -0x1178(%rbp),%rax
    fd8a:	48 89 85 48 f9 ff ff 	mov    %rax,-0x6b8(%rbp)
    fd91:	48 8d 85 88 ee ff ff 	lea    -0x1178(%rbp),%rax
    fd98:	48 89 85 50 f9 ff ff 	mov    %rax,-0x6b0(%rbp)
    fd9f:	48 8d 85 88 ee ff ff 	lea    -0x1178(%rbp),%rax
    fda6:	48 89 85 58 f9 ff ff 	mov    %rax,-0x6a8(%rbp)
    fdad:	48 8d 85 88 ee ff ff 	lea    -0x1178(%rbp),%rax
    fdb4:	48 89 85 60 f9 ff ff 	mov    %rax,-0x6a0(%rbp)
    fdbb:	48 8d 85 88 ee ff ff 	lea    -0x1178(%rbp),%rax
    fdc2:	48 89 85 68 f9 ff ff 	mov    %rax,-0x698(%rbp)
    fdc9:	48 8d 85 88 ee ff ff 	lea    -0x1178(%rbp),%rax
    fdd0:	48 89 85 70 f9 ff ff 	mov    %rax,-0x690(%rbp)
    fdd7:	48 8d 85 88 ee ff ff 	lea    -0x1178(%rbp),%rax
    fdde:	48 89 85 78 f9 ff ff 	mov    %rax,-0x688(%rbp)
    fde5:	48 8d 85 88 ee ff ff 	lea    -0x1178(%rbp),%rax
    fdec:	48 89 85 80 f9 ff ff 	mov    %rax,-0x680(%rbp)
    fdf3:	48 8d 85 88 ee ff ff 	lea    -0x1178(%rbp),%rax
    fdfa:	48 89 85 88 f9 ff ff 	mov    %rax,-0x678(%rbp)
    fe01:	48 8d 85 88 ee ff ff 	lea    -0x1178(%rbp),%rax
    fe08:	48 89 85 90 f9 ff ff 	mov    %rax,-0x670(%rbp)
    fe0f:	48 8d 85 88 ee ff ff 	lea    -0x1178(%rbp),%rax
    fe16:	48 89 85 98 f9 ff ff 	mov    %rax,-0x668(%rbp)
    fe1d:	48 8d 85 88 ee ff ff 	lea    -0x1178(%rbp),%rax
    fe24:	48 89 85 a0 f9 ff ff 	mov    %rax,-0x660(%rbp)
    fe2b:	48 c7 85 a8 f9 ff ff 	movq   $0x0,-0x658(%rbp)
    fe32:	00 00 00 00 
    fe36:	48 8d 85 88 ee ff ff 	lea    -0x1178(%rbp),%rax
    fe3d:	48 89 85 b0 f9 ff ff 	mov    %rax,-0x650(%rbp)
    fe44:	48 8d 85 88 ee ff ff 	lea    -0x1178(%rbp),%rax
    fe4b:	48 89 85 b8 f9 ff ff 	mov    %rax,-0x648(%rbp)
    fe52:	48 8d 85 88 ee ff ff 	lea    -0x1178(%rbp),%rax
    fe59:	48 89 85 c0 f9 ff ff 	mov    %rax,-0x640(%rbp)
    fe60:	48 8d 85 88 ee ff ff 	lea    -0x1178(%rbp),%rax
    fe67:	48 89 85 c8 f9 ff ff 	mov    %rax,-0x638(%rbp)
    fe6e:	48 8d 85 88 ee ff ff 	lea    -0x1178(%rbp),%rax
    fe75:	48 89 85 d0 f9 ff ff 	mov    %rax,-0x630(%rbp)
    fe7c:	48 8d 85 88 ee ff ff 	lea    -0x1178(%rbp),%rax
    fe83:	48 89 85 d8 f9 ff ff 	mov    %rax,-0x628(%rbp)
    fe8a:	48 8d 85 88 ee ff ff 	lea    -0x1178(%rbp),%rax
    fe91:	48 89 85 e0 f9 ff ff 	mov    %rax,-0x620(%rbp)
    fe98:	48 8d 85 88 ee ff ff 	lea    -0x1178(%rbp),%rax
    fe9f:	48 89 85 e8 f9 ff ff 	mov    %rax,-0x618(%rbp)
    fea6:	48 c7 85 f0 f9 ff ff 	movq   $0x0,-0x610(%rbp)
    fead:	00 00 00 00 
    feb1:	48 8d 85 88 ee ff ff 	lea    -0x1178(%rbp),%rax
    feb8:	48 89 85 f8 f9 ff ff 	mov    %rax,-0x608(%rbp)
    febf:	48 8d 85 88 ee ff ff 	lea    -0x1178(%rbp),%rax
    fec6:	48 89 85 00 fa ff ff 	mov    %rax,-0x600(%rbp)
    fecd:	48 8d 85 88 ee ff ff 	lea    -0x1178(%rbp),%rax
    fed4:	48 89 85 08 fa ff ff 	mov    %rax,-0x5f8(%rbp)
    fedb:	48 c7 85 10 fa ff ff 	movq   $0x0,-0x5f0(%rbp)
    fee2:	00 00 00 00 
    fee6:	48 8d 85 88 ee ff ff 	lea    -0x1178(%rbp),%rax
    feed:	48 89 85 18 fa ff ff 	mov    %rax,-0x5e8(%rbp)
    fef4:	48 c7 85 20 fa ff ff 	movq   $0x0,-0x5e0(%rbp)
    fefb:	00 00 00 00 
    feff:	48 8d 85 88 ee ff ff 	lea    -0x1178(%rbp),%rax
    ff06:	48 89 85 28 fa ff ff 	mov    %rax,-0x5d8(%rbp)
    ff0d:	48 c7 85 30 fa ff ff 	movq   $0x0,-0x5d0(%rbp)
    ff14:	00 00 00 00 
    ff18:	48 c7 85 38 fa ff ff 	movq   $0x0,-0x5c8(%rbp)
    ff1f:	00 00 00 00 
    ff23:	48 8d 85 88 ee ff ff 	lea    -0x1178(%rbp),%rax
    ff2a:	48 89 85 40 fa ff ff 	mov    %rax,-0x5c0(%rbp)
    ff31:	48 8d 85 88 ee ff ff 	lea    -0x1178(%rbp),%rax
    ff38:	48 89 85 48 fa ff ff 	mov    %rax,-0x5b8(%rbp)
    ff3f:	48 8d 85 88 ee ff ff 	lea    -0x1178(%rbp),%rax
    ff46:	48 89 85 50 fa ff ff 	mov    %rax,-0x5b0(%rbp)
    ff4d:	48 8d 85 88 ee ff ff 	lea    -0x1178(%rbp),%rax
    ff54:	48 89 85 58 fa ff ff 	mov    %rax,-0x5a8(%rbp)
    ff5b:	48 c7 85 60 fa ff ff 	movq   $0x0,-0x5a0(%rbp)
    ff62:	00 00 00 00 
    ff66:	48 c7 85 68 fa ff ff 	movq   $0x0,-0x598(%rbp)
    ff6d:	00 00 00 00 
    ff71:	48 8d 85 88 ee ff ff 	lea    -0x1178(%rbp),%rax
    ff78:	48 89 85 70 fa ff ff 	mov    %rax,-0x590(%rbp)
    ff7f:	48 8d 85 88 ee ff ff 	lea    -0x1178(%rbp),%rax
    ff86:	48 89 85 78 fa ff ff 	mov    %rax,-0x588(%rbp)
    ff8d:	48 c7 85 80 fa ff ff 	movq   $0x0,-0x580(%rbp)
    ff94:	00 00 00 00 
    ff98:	48 c7 85 88 fa ff ff 	movq   $0x0,-0x578(%rbp)
    ff9f:	00 00 00 00 
    ffa3:	48 8d 85 88 ee ff ff 	lea    -0x1178(%rbp),%rax
    ffaa:	48 89 85 90 fa ff ff 	mov    %rax,-0x570(%rbp)
    ffb1:	48 c7 85 98 fa ff ff 	movq   $0x0,-0x568(%rbp)
    ffb8:	00 00 00 00 
    ffbc:	48 c7 85 a0 fa ff ff 	movq   $0x0,-0x560(%rbp)
    ffc3:	00 00 00 00 
    ffc7:	48 8d 85 88 ee ff ff 	lea    -0x1178(%rbp),%rax
    ffce:	48 89 85 a8 fa ff ff 	mov    %rax,-0x558(%rbp)
    ffd5:	48 8d 85 88 ee ff ff 	lea    -0x1178(%rbp),%rax
    ffdc:	48 89 85 b0 fa ff ff 	mov    %rax,-0x550(%rbp)
    ffe3:	48 8d 85 88 ee ff ff 	lea    -0x1178(%rbp),%rax
    ffea:	48 89 85 b8 fa ff ff 	mov    %rax,-0x548(%rbp)
    fff1:	48 8d 85 88 ee ff ff 	lea    -0x1178(%rbp),%rax
    fff8:	48 89 85 c0 fa ff ff 	mov    %rax,-0x540(%rbp)
    ffff:	48 c7 85 c8 fa ff ff 	movq   $0x0,-0x538(%rbp)
   10006:	00 00 00 00 
   1000a:	48 c7 85 d0 fa ff ff 	movq   $0x0,-0x530(%rbp)
   10011:	00 00 00 00 
   10015:	48 8d 85 88 ee ff ff 	lea    -0x1178(%rbp),%rax
   1001c:	48 89 85 d8 fa ff ff 	mov    %rax,-0x528(%rbp)
   10023:	48 c7 85 e0 fa ff ff 	movq   $0x0,-0x520(%rbp)
   1002a:	00 00 00 00 
   1002e:	48 c7 85 e8 fa ff ff 	movq   $0x0,-0x518(%rbp)
   10035:	00 00 00 00 
   10039:	48 8d 85 88 ee ff ff 	lea    -0x1178(%rbp),%rax
   10040:	48 89 85 f0 fa ff ff 	mov    %rax,-0x510(%rbp)
   10047:	48 8d 85 88 ee ff ff 	lea    -0x1178(%rbp),%rax
   1004e:	48 89 85 f8 fa ff ff 	mov    %rax,-0x508(%rbp)
   10055:	48 8d 85 88 ee ff ff 	lea    -0x1178(%rbp),%rax
   1005c:	48 89 85 00 fb ff ff 	mov    %rax,-0x500(%rbp)
   10063:	48 8d 85 88 ee ff ff 	lea    -0x1178(%rbp),%rax
   1006a:	48 89 85 08 fb ff ff 	mov    %rax,-0x4f8(%rbp)
   10071:	48 c7 85 10 fb ff ff 	movq   $0x0,-0x4f0(%rbp)
   10078:	00 00 00 00 
   1007c:	48 8d 85 88 ee ff ff 	lea    -0x1178(%rbp),%rax
   10083:	48 89 85 18 fb ff ff 	mov    %rax,-0x4e8(%rbp)
   1008a:	48 8d 85 88 ee ff ff 	lea    -0x1178(%rbp),%rax
   10091:	48 89 85 20 fb ff ff 	mov    %rax,-0x4e0(%rbp)
   10098:	48 c7 85 28 fb ff ff 	movq   $0x0,-0x4d8(%rbp)
   1009f:	00 00 00 00 
   100a3:	48 8d 85 88 ee ff ff 	lea    -0x1178(%rbp),%rax
   100aa:	48 89 85 30 fb ff ff 	mov    %rax,-0x4d0(%rbp)
   100b1:	48 8d 85 88 ee ff ff 	lea    -0x1178(%rbp),%rax
   100b8:	48 89 85 38 fb ff ff 	mov    %rax,-0x4c8(%rbp)
   100bf:	48 c7 85 40 fb ff ff 	movq   $0x0,-0x4c0(%rbp)
   100c6:	00 00 00 00 
   100ca:	48 8d 85 88 ee ff ff 	lea    -0x1178(%rbp),%rax
   100d1:	48 89 85 48 fb ff ff 	mov    %rax,-0x4b8(%rbp)
   100d8:	48 8d 85 88 ee ff ff 	lea    -0x1178(%rbp),%rax
   100df:	48 89 85 50 fb ff ff 	mov    %rax,-0x4b0(%rbp)
   100e6:	48 8d 85 88 ee ff ff 	lea    -0x1178(%rbp),%rax
   100ed:	48 89 85 58 fb ff ff 	mov    %rax,-0x4a8(%rbp)
   100f4:	48 c7 85 60 fb ff ff 	movq   $0x0,-0x4a0(%rbp)
   100fb:	00 00 00 00 
   100ff:	48 8d 85 88 ee ff ff 	lea    -0x1178(%rbp),%rax
   10106:	48 89 85 68 fb ff ff 	mov    %rax,-0x498(%rbp)
   1010d:	48 c7 85 70 fb ff ff 	movq   $0x0,-0x490(%rbp)
   10114:	00 00 00 00 
   10118:	48 8d 85 88 ee ff ff 	lea    -0x1178(%rbp),%rax
   1011f:	48 89 85 78 fb ff ff 	mov    %rax,-0x488(%rbp)
   10126:	48 c7 85 80 fb ff ff 	movq   $0x0,-0x480(%rbp)
   1012d:	00 00 00 00 
   10131:	48 c7 85 88 fb ff ff 	movq   $0x0,-0x478(%rbp)
   10138:	00 00 00 00 
   1013c:	48 8d 85 88 ee ff ff 	lea    -0x1178(%rbp),%rax
   10143:	48 89 85 90 fb ff ff 	mov    %rax,-0x470(%rbp)
   1014a:	48 8d 85 88 ee ff ff 	lea    -0x1178(%rbp),%rax
   10151:	48 89 85 98 fb ff ff 	mov    %rax,-0x468(%rbp)
   10158:	48 8d 85 88 ee ff ff 	lea    -0x1178(%rbp),%rax
   1015f:	48 89 85 a0 fb ff ff 	mov    %rax,-0x460(%rbp)
   10166:	48 8d 85 88 ee ff ff 	lea    -0x1178(%rbp),%rax
   1016d:	48 89 85 a8 fb ff ff 	mov    %rax,-0x458(%rbp)
   10174:	48 c7 85 b0 fb ff ff 	movq   $0x0,-0x450(%rbp)
   1017b:	00 00 00 00 
   1017f:	48 c7 85 b8 fb ff ff 	movq   $0x0,-0x448(%rbp)
   10186:	00 00 00 00 
   1018a:	48 8d 85 88 ee ff ff 	lea    -0x1178(%rbp),%rax
   10191:	48 89 85 c0 fb ff ff 	mov    %rax,-0x440(%rbp)
   10198:	48 8d 85 88 ee ff ff 	lea    -0x1178(%rbp),%rax
   1019f:	48 89 85 c8 fb ff ff 	mov    %rax,-0x438(%rbp)
   101a6:	48 c7 85 d0 fb ff ff 	movq   $0x0,-0x430(%rbp)
   101ad:	00 00 00 00 
   101b1:	48 c7 85 d8 fb ff ff 	movq   $0x0,-0x428(%rbp)
   101b8:	00 00 00 00 
   101bc:	48 8d 85 88 ee ff ff 	lea    -0x1178(%rbp),%rax
   101c3:	48 89 85 e0 fb ff ff 	mov    %rax,-0x420(%rbp)
   101ca:	48 c7 85 e8 fb ff ff 	movq   $0x0,-0x418(%rbp)
   101d1:	00 00 00 00 
   101d5:	48 c7 85 f0 fb ff ff 	movq   $0x0,-0x410(%rbp)
   101dc:	00 00 00 00 
   101e0:	48 8d 85 88 ee ff ff 	lea    -0x1178(%rbp),%rax
   101e7:	48 89 85 f8 fb ff ff 	mov    %rax,-0x408(%rbp)
   101ee:	48 8d 85 88 ee ff ff 	lea    -0x1178(%rbp),%rax
   101f5:	48 89 85 00 fc ff ff 	mov    %rax,-0x400(%rbp)
   101fc:	48 8d 85 88 ee ff ff 	lea    -0x1178(%rbp),%rax
   10203:	48 89 85 08 fc ff ff 	mov    %rax,-0x3f8(%rbp)
   1020a:	48 8d 85 88 ee ff ff 	lea    -0x1178(%rbp),%rax
   10211:	48 89 85 10 fc ff ff 	mov    %rax,-0x3f0(%rbp)
   10218:	48 c7 85 18 fc ff ff 	movq   $0x0,-0x3e8(%rbp)
   1021f:	00 00 00 00 
   10223:	48 c7 85 20 fc ff ff 	movq   $0x0,-0x3e0(%rbp)
   1022a:	00 00 00 00 
   1022e:	48 8d 85 88 ee ff ff 	lea    -0x1178(%rbp),%rax
   10235:	48 89 85 28 fc ff ff 	mov    %rax,-0x3d8(%rbp)
   1023c:	48 c7 85 30 fc ff ff 	movq   $0x0,-0x3d0(%rbp)
   10243:	00 00 00 00 
   10247:	48 c7 85 38 fc ff ff 	movq   $0x0,-0x3c8(%rbp)
   1024e:	00 00 00 00 
   10252:	48 8d 85 88 ee ff ff 	lea    -0x1178(%rbp),%rax
   10259:	48 89 85 40 fc ff ff 	mov    %rax,-0x3c0(%rbp)
   10260:	48 8d 85 88 ee ff ff 	lea    -0x1178(%rbp),%rax
   10267:	48 89 85 48 fc ff ff 	mov    %rax,-0x3b8(%rbp)
   1026e:	48 8d 85 88 ee ff ff 	lea    -0x1178(%rbp),%rax
   10275:	48 89 85 50 fc ff ff 	mov    %rax,-0x3b0(%rbp)
   1027c:	48 8d 85 88 ee ff ff 	lea    -0x1178(%rbp),%rax
   10283:	48 89 85 58 fc ff ff 	mov    %rax,-0x3a8(%rbp)
   1028a:	48 c7 85 60 fc ff ff 	movq   $0x0,-0x3a0(%rbp)
   10291:	00 00 00 00 
   10295:	48 8d 85 88 ee ff ff 	lea    -0x1178(%rbp),%rax
   1029c:	48 89 85 68 fc ff ff 	mov    %rax,-0x398(%rbp)
   102a3:	48 8d 85 88 ee ff ff 	lea    -0x1178(%rbp),%rax
   102aa:	48 89 85 70 fc ff ff 	mov    %rax,-0x390(%rbp)
   102b1:	48 c7 85 78 fc ff ff 	movq   $0x0,-0x388(%rbp)
   102b8:	00 00 00 00 
   102bc:	48 8d 85 88 ee ff ff 	lea    -0x1178(%rbp),%rax
   102c3:	48 89 85 80 fc ff ff 	mov    %rax,-0x380(%rbp)
   102ca:	48 8d 85 88 ee ff ff 	lea    -0x1178(%rbp),%rax
   102d1:	48 89 85 88 fc ff ff 	mov    %rax,-0x378(%rbp)
   102d8:	48 c7 85 90 fc ff ff 	movq   $0x0,-0x370(%rbp)
   102df:	00 00 00 00 
   102e3:	48 8d 85 88 ee ff ff 	lea    -0x1178(%rbp),%rax
   102ea:	48 89 85 98 fc ff ff 	mov    %rax,-0x368(%rbp)
   102f1:	48 8d 85 88 ee ff ff 	lea    -0x1178(%rbp),%rax
   102f8:	48 89 85 a0 fc ff ff 	mov    %rax,-0x360(%rbp)
   102ff:	48 8d 85 88 ee ff ff 	lea    -0x1178(%rbp),%rax
   10306:	48 89 85 a8 fc ff ff 	mov    %rax,-0x358(%rbp)
   1030d:	48 c7 85 b0 fc ff ff 	movq   $0x0,-0x350(%rbp)
   10314:	00 00 00 00 
   10318:	48 8d 85 88 ee ff ff 	lea    -0x1178(%rbp),%rax
   1031f:	48 89 85 b8 fc ff ff 	mov    %rax,-0x348(%rbp)
   10326:	48 c7 85 c0 fc ff ff 	movq   $0x0,-0x340(%rbp)
   1032d:	00 00 00 00 
   10331:	48 8d 85 88 ee ff ff 	lea    -0x1178(%rbp),%rax
   10338:	48 89 85 c8 fc ff ff 	mov    %rax,-0x338(%rbp)
   1033f:	48 c7 85 d0 fc ff ff 	movq   $0x0,-0x330(%rbp)
   10346:	00 00 00 00 
   1034a:	48 c7 85 d8 fc ff ff 	movq   $0x0,-0x328(%rbp)
   10351:	00 00 00 00 
   10355:	48 8d 85 88 ee ff ff 	lea    -0x1178(%rbp),%rax
   1035c:	48 89 85 e0 fc ff ff 	mov    %rax,-0x320(%rbp)
   10363:	48 8d 85 88 ee ff ff 	lea    -0x1178(%rbp),%rax
   1036a:	48 89 85 e8 fc ff ff 	mov    %rax,-0x318(%rbp)
   10371:	48 8d 85 88 ee ff ff 	lea    -0x1178(%rbp),%rax
   10378:	48 89 85 f0 fc ff ff 	mov    %rax,-0x310(%rbp)
   1037f:	48 8d 85 88 ee ff ff 	lea    -0x1178(%rbp),%rax
   10386:	48 89 85 f8 fc ff ff 	mov    %rax,-0x308(%rbp)
   1038d:	48 c7 85 00 fd ff ff 	movq   $0x0,-0x300(%rbp)
   10394:	00 00 00 00 
   10398:	48 c7 85 08 fd ff ff 	movq   $0x0,-0x2f8(%rbp)
   1039f:	00 00 00 00 
   103a3:	48 8d 85 88 ee ff ff 	lea    -0x1178(%rbp),%rax
   103aa:	48 89 85 10 fd ff ff 	mov    %rax,-0x2f0(%rbp)
   103b1:	48 8d 85 88 ee ff ff 	lea    -0x1178(%rbp),%rax
   103b8:	48 89 85 18 fd ff ff 	mov    %rax,-0x2e8(%rbp)
   103bf:	48 c7 85 20 fd ff ff 	movq   $0x0,-0x2e0(%rbp)
   103c6:	00 00 00 00 
   103ca:	48 c7 85 28 fd ff ff 	movq   $0x0,-0x2d8(%rbp)
   103d1:	00 00 00 00 
   103d5:	48 8d 85 88 ee ff ff 	lea    -0x1178(%rbp),%rax
   103dc:	48 89 85 30 fd ff ff 	mov    %rax,-0x2d0(%rbp)
   103e3:	48 c7 85 38 fd ff ff 	movq   $0x0,-0x2c8(%rbp)
   103ea:	00 00 00 00 
   103ee:	48 c7 85 40 fd ff ff 	movq   $0x0,-0x2c0(%rbp)
   103f5:	00 00 00 00 
   103f9:	48 8d 85 88 ee ff ff 	lea    -0x1178(%rbp),%rax
   10400:	48 89 85 48 fd ff ff 	mov    %rax,-0x2b8(%rbp)
   10407:	48 8d 85 88 ee ff ff 	lea    -0x1178(%rbp),%rax
   1040e:	48 89 85 50 fd ff ff 	mov    %rax,-0x2b0(%rbp)
   10415:	48 8d 85 88 ee ff ff 	lea    -0x1178(%rbp),%rax
   1041c:	48 89 85 58 fd ff ff 	mov    %rax,-0x2a8(%rbp)
   10423:	48 8d 85 88 ee ff ff 	lea    -0x1178(%rbp),%rax
   1042a:	48 89 85 60 fd ff ff 	mov    %rax,-0x2a0(%rbp)
   10431:	48 c7 85 68 fd ff ff 	movq   $0x0,-0x298(%rbp)
   10438:	00 00 00 00 
   1043c:	48 c7 85 70 fd ff ff 	movq   $0x0,-0x290(%rbp)
   10443:	00 00 00 00 
   10447:	48 8d 85 88 ee ff ff 	lea    -0x1178(%rbp),%rax
   1044e:	48 89 85 78 fd ff ff 	mov    %rax,-0x288(%rbp)
   10455:	48 c7 85 80 fd ff ff 	movq   $0x0,-0x280(%rbp)
   1045c:	00 00 00 00 
   10460:	48 c7 85 88 fd ff ff 	movq   $0x0,-0x278(%rbp)
   10467:	00 00 00 00 
   1046b:	48 8d 85 88 ee ff ff 	lea    -0x1178(%rbp),%rax
   10472:	48 89 85 90 fd ff ff 	mov    %rax,-0x270(%rbp)
   10479:	48 8d 85 88 ee ff ff 	lea    -0x1178(%rbp),%rax
   10480:	48 89 85 98 fd ff ff 	mov    %rax,-0x268(%rbp)
   10487:	48 8d 85 88 ee ff ff 	lea    -0x1178(%rbp),%rax
   1048e:	48 89 85 a0 fd ff ff 	mov    %rax,-0x260(%rbp)
   10495:	48 8d 85 88 ee ff ff 	lea    -0x1178(%rbp),%rax
   1049c:	48 89 85 a8 fd ff ff 	mov    %rax,-0x258(%rbp)
   104a3:	48 c7 85 b0 fd ff ff 	movq   $0x0,-0x250(%rbp)
   104aa:	00 00 00 00 
   104ae:	48 8d 85 88 ee ff ff 	lea    -0x1178(%rbp),%rax
   104b5:	48 89 85 b8 fd ff ff 	mov    %rax,-0x248(%rbp)
   104bc:	48 8d 85 88 ee ff ff 	lea    -0x1178(%rbp),%rax
   104c3:	48 89 85 c0 fd ff ff 	mov    %rax,-0x240(%rbp)
   104ca:	48 c7 85 c8 fd ff ff 	movq   $0x0,-0x238(%rbp)
   104d1:	00 00 00 00 
   104d5:	48 8d 85 88 ee ff ff 	lea    -0x1178(%rbp),%rax
   104dc:	48 89 85 d0 fd ff ff 	mov    %rax,-0x230(%rbp)
   104e3:	48 8d 85 88 ee ff ff 	lea    -0x1178(%rbp),%rax
   104ea:	48 89 85 d8 fd ff ff 	mov    %rax,-0x228(%rbp)
   104f1:	48 c7 85 e0 fd ff ff 	movq   $0x0,-0x220(%rbp)
   104f8:	00 00 00 00 
   104fc:	48 8d 85 88 ee ff ff 	lea    -0x1178(%rbp),%rax
   10503:	48 89 85 e8 fd ff ff 	mov    %rax,-0x218(%rbp)
   1050a:	48 8d 85 88 ee ff ff 	lea    -0x1178(%rbp),%rax
   10511:	48 89 85 f0 fd ff ff 	mov    %rax,-0x210(%rbp)
   10518:	48 8d 85 88 ee ff ff 	lea    -0x1178(%rbp),%rax
   1051f:	48 89 85 f8 fd ff ff 	mov    %rax,-0x208(%rbp)
   10526:	48 c7 85 00 fe ff ff 	movq   $0x0,-0x200(%rbp)
   1052d:	00 00 00 00 
   10531:	48 8d 85 88 ee ff ff 	lea    -0x1178(%rbp),%rax
   10538:	48 89 85 08 fe ff ff 	mov    %rax,-0x1f8(%rbp)
   1053f:	48 c7 85 10 fe ff ff 	movq   $0x0,-0x1f0(%rbp)
   10546:	00 00 00 00 
   1054a:	48 8d 85 88 ee ff ff 	lea    -0x1178(%rbp),%rax
   10551:	48 89 85 18 fe ff ff 	mov    %rax,-0x1e8(%rbp)
   10558:	48 c7 85 20 fe ff ff 	movq   $0x0,-0x1e0(%rbp)
   1055f:	00 00 00 00 
   10563:	48 c7 85 28 fe ff ff 	movq   $0x0,-0x1d8(%rbp)
   1056a:	00 00 00 00 
   1056e:	48 8d 85 88 ee ff ff 	lea    -0x1178(%rbp),%rax
   10575:	48 89 85 30 fe ff ff 	mov    %rax,-0x1d0(%rbp)
   1057c:	48 8d 85 88 ee ff ff 	lea    -0x1178(%rbp),%rax
   10583:	48 89 85 38 fe ff ff 	mov    %rax,-0x1c8(%rbp)
   1058a:	48 8d 85 88 ee ff ff 	lea    -0x1178(%rbp),%rax
   10591:	48 89 85 40 fe ff ff 	mov    %rax,-0x1c0(%rbp)
   10598:	48 8d 85 88 ee ff ff 	lea    -0x1178(%rbp),%rax
   1059f:	48 89 85 48 fe ff ff 	mov    %rax,-0x1b8(%rbp)
   105a6:	48 c7 85 50 fe ff ff 	movq   $0x0,-0x1b0(%rbp)
   105ad:	00 00 00 00 
   105b1:	48 c7 85 58 fe ff ff 	movq   $0x0,-0x1a8(%rbp)
   105b8:	00 00 00 00 
   105bc:	48 8d 85 88 ee ff ff 	lea    -0x1178(%rbp),%rax
   105c3:	48 89 85 60 fe ff ff 	mov    %rax,-0x1a0(%rbp)
   105ca:	48 8d 85 88 ee ff ff 	lea    -0x1178(%rbp),%rax
   105d1:	48 89 85 68 fe ff ff 	mov    %rax,-0x198(%rbp)
   105d8:	48 c7 85 70 fe ff ff 	movq   $0x0,-0x190(%rbp)
   105df:	00 00 00 00 
   105e3:	48 c7 85 78 fe ff ff 	movq   $0x0,-0x188(%rbp)
   105ea:	00 00 00 00 
   105ee:	48 8d 85 88 ee ff ff 	lea    -0x1178(%rbp),%rax
   105f5:	48 89 85 80 fe ff ff 	mov    %rax,-0x180(%rbp)
   105fc:	48 c7 85 88 fe ff ff 	movq   $0x0,-0x178(%rbp)
   10603:	00 00 00 00 
   10607:	48 c7 85 90 fe ff ff 	movq   $0x0,-0x170(%rbp)
   1060e:	00 00 00 00 
   10612:	48 8d 85 88 ee ff ff 	lea    -0x1178(%rbp),%rax
   10619:	48 89 85 98 fe ff ff 	mov    %rax,-0x168(%rbp)
   10620:	48 8d 85 88 ee ff ff 	lea    -0x1178(%rbp),%rax
   10627:	48 89 85 a0 fe ff ff 	mov    %rax,-0x160(%rbp)
   1062e:	48 8d 85 88 ee ff ff 	lea    -0x1178(%rbp),%rax
   10635:	48 89 85 a8 fe ff ff 	mov    %rax,-0x158(%rbp)
   1063c:	48 8d 85 88 ee ff ff 	lea    -0x1178(%rbp),%rax
   10643:	48 89 85 b0 fe ff ff 	mov    %rax,-0x150(%rbp)
   1064a:	48 c7 85 b8 fe ff ff 	movq   $0x0,-0x148(%rbp)
   10651:	00 00 00 00 
   10655:	48 c7 85 c0 fe ff ff 	movq   $0x0,-0x140(%rbp)
   1065c:	00 00 00 00 
   10660:	48 8d 85 88 ee ff ff 	lea    -0x1178(%rbp),%rax
   10667:	48 89 85 c8 fe ff ff 	mov    %rax,-0x138(%rbp)
   1066e:	48 c7 85 d0 fe ff ff 	movq   $0x0,-0x130(%rbp)
   10675:	00 00 00 00 
   10679:	48 c7 85 d8 fe ff ff 	movq   $0x0,-0x128(%rbp)
   10680:	00 00 00 00 
   10684:	48 8d 85 88 ee ff ff 	lea    -0x1178(%rbp),%rax
   1068b:	48 89 85 e0 fe ff ff 	mov    %rax,-0x120(%rbp)
   10692:	48 8d 85 88 ee ff ff 	lea    -0x1178(%rbp),%rax
   10699:	48 89 85 e8 fe ff ff 	mov    %rax,-0x118(%rbp)
   106a0:	48 8d 85 88 ee ff ff 	lea    -0x1178(%rbp),%rax
   106a7:	48 89 85 f0 fe ff ff 	mov    %rax,-0x110(%rbp)
   106ae:	48 8d 85 88 ee ff ff 	lea    -0x1178(%rbp),%rax
   106b5:	48 89 85 f8 fe ff ff 	mov    %rax,-0x108(%rbp)
   106bc:	48 c7 85 00 ff ff ff 	movq   $0x0,-0x100(%rbp)
   106c3:	00 00 00 00 
   106c7:	48 8d 85 88 ee ff ff 	lea    -0x1178(%rbp),%rax
   106ce:	48 89 85 08 ff ff ff 	mov    %rax,-0xf8(%rbp)
   106d5:	48 8d 85 88 ee ff ff 	lea    -0x1178(%rbp),%rax
   106dc:	48 89 85 10 ff ff ff 	mov    %rax,-0xf0(%rbp)
   106e3:	48 c7 85 18 ff ff ff 	movq   $0x0,-0xe8(%rbp)
   106ea:	00 00 00 00 
   106ee:	48 8d 85 88 ee ff ff 	lea    -0x1178(%rbp),%rax
   106f5:	48 89 85 20 ff ff ff 	mov    %rax,-0xe0(%rbp)
   106fc:	48 8d 85 88 ee ff ff 	lea    -0x1178(%rbp),%rax
   10703:	48 89 85 28 ff ff ff 	mov    %rax,-0xd8(%rbp)
   1070a:	48 c7 85 30 ff ff ff 	movq   $0x0,-0xd0(%rbp)
   10711:	00 00 00 00 
   10715:	48 8d 85 88 ee ff ff 	lea    -0x1178(%rbp),%rax
   1071c:	48 89 85 38 ff ff ff 	mov    %rax,-0xc8(%rbp)
   10723:	48 8d 85 88 ee ff ff 	lea    -0x1178(%rbp),%rax
   1072a:	48 89 85 40 ff ff ff 	mov    %rax,-0xc0(%rbp)
   10731:	48 8d 85 88 ee ff ff 	lea    -0x1178(%rbp),%rax
   10738:	48 89 85 48 ff ff ff 	mov    %rax,-0xb8(%rbp)
   1073f:	48 c7 85 50 ff ff ff 	movq   $0x0,-0xb0(%rbp)
   10746:	00 00 00 00 
   1074a:	48 8d 85 88 ee ff ff 	lea    -0x1178(%rbp),%rax
   10751:	48 89 85 58 ff ff ff 	mov    %rax,-0xa8(%rbp)
   10758:	48 c7 85 60 ff ff ff 	movq   $0x0,-0xa0(%rbp)
   1075f:	00 00 00 00 
   10763:	48 8d 85 88 ee ff ff 	lea    -0x1178(%rbp),%rax
   1076a:	48 89 85 68 ff ff ff 	mov    %rax,-0x98(%rbp)
   10771:	48 c7 85 70 ff ff ff 	movq   $0x0,-0x90(%rbp)
   10778:	00 00 00 00 
   1077c:	48 c7 85 78 ff ff ff 	movq   $0x0,-0x88(%rbp)
   10783:	00 00 00 00 
   10787:	48 8d 85 88 ee ff ff 	lea    -0x1178(%rbp),%rax
   1078e:	48 89 45 80          	mov    %rax,-0x80(%rbp)
   10792:	48 8d 85 88 ee ff ff 	lea    -0x1178(%rbp),%rax
   10799:	48 89 45 88          	mov    %rax,-0x78(%rbp)
   1079d:	48 8d 85 88 ee ff ff 	lea    -0x1178(%rbp),%rax
   107a4:	48 89 45 90          	mov    %rax,-0x70(%rbp)
   107a8:	48 8d 85 88 ee ff ff 	lea    -0x1178(%rbp),%rax
   107af:	48 89 45 98          	mov    %rax,-0x68(%rbp)
   107b3:	48 c7 45 a0 00 00 00 	movq   $0x0,-0x60(%rbp)
   107ba:	00 
   107bb:	48 c7 45 a8 00 00 00 	movq   $0x0,-0x58(%rbp)
   107c2:	00 
   107c3:	48 8d 85 88 ee ff ff 	lea    -0x1178(%rbp),%rax
   107ca:	48 89 45 b0          	mov    %rax,-0x50(%rbp)
   107ce:	48 8d 85 88 ee ff ff 	lea    -0x1178(%rbp),%rax
   107d5:	48 89 45 b8          	mov    %rax,-0x48(%rbp)
   107d9:	48 c7 45 c0 00 00 00 	movq   $0x0,-0x40(%rbp)
   107e0:	00 
   107e1:	48 c7 45 c8 00 00 00 	movq   $0x0,-0x38(%rbp)
   107e8:	00 
   107e9:	48 8d 05 40 28 01 00 	lea    0x12840(%rip),%rax        # 23030 <g_46>
   107f0:	48 89 85 f0 ee ff ff 	mov    %rax,-0x1110(%rbp)
   107f7:	48 8d 05 22 58 01 00 	lea    0x15822(%rip),%rax        # 26020 <g_1670>
   107fe:	48 89 85 f8 ee ff ff 	mov    %rax,-0x1108(%rbp)
   10805:	c7 85 d0 ed ff ff 00 	movl   $0x0,-0x1230(%rbp)
   1080c:	00 00 00 
   1080f:	eb 1e                	jmp    1082f <func_12+0x2f60>
   10811:	8b 85 d0 ed ff ff    	mov    -0x1230(%rbp),%eax
   10817:	48 98                	cltq   
   10819:	48 8d 15 30 29 01 00 	lea    0x12930(%rip),%rdx        # 23150 <g_481+0x30>
   10820:	48 89 94 c5 30 f2 ff 	mov    %rdx,-0xdd0(%rbp,%rax,8)
   10827:	ff 
   10828:	83 85 d0 ed ff ff 01 	addl   $0x1,-0x1230(%rbp)
   1082f:	83 bd d0 ed ff ff 04 	cmpl   $0x4,-0x1230(%rbp)
   10836:	7e d9                	jle    10811 <func_12+0x2f42>
   10838:	c7 85 d0 ed ff ff 00 	movl   $0x0,-0x1230(%rbp)
   1083f:	00 00 00 
   10842:	eb 46                	jmp    1088a <func_12+0x2fbb>
   10844:	c7 85 d4 ed ff ff 00 	movl   $0x0,-0x122c(%rbp)
   1084b:	00 00 00 
   1084e:	eb 2a                	jmp    1087a <func_12+0x2fab>
   10850:	8b 85 d4 ed ff ff    	mov    -0x122c(%rbp),%eax
   10856:	48 63 d0             	movslq %eax,%rdx
   10859:	8b 85 d0 ed ff ff    	mov    -0x1230(%rbp),%eax
   1085f:	48 98                	cltq   
   10861:	48 01 d0             	add    %rdx,%rax
   10864:	48 8d 15 f5 28 01 00 	lea    0x128f5(%rip),%rdx        # 23160 <g_556>
   1086b:	48 89 94 c5 c0 f1 ff 	mov    %rdx,-0xe40(%rbp,%rax,8)
   10872:	ff 
   10873:	83 85 d4 ed ff ff 01 	addl   $0x1,-0x122c(%rbp)
   1087a:	83 bd d4 ed ff ff 00 	cmpl   $0x0,-0x122c(%rbp)
   10881:	7e cd                	jle    10850 <func_12+0x2f81>
   10883:	83 85 d0 ed ff ff 01 	addl   $0x1,-0x1230(%rbp)
   1088a:	83 bd d0 ed ff ff 03 	cmpl   $0x3,-0x1230(%rbp)
   10891:	7e b1                	jle    10844 <func_12+0x2f75>
   10893:	0f b7 85 5c ed ff ff 	movzwl -0x12a4(%rbp),%eax
   1089a:	be 01 00 00 00       	mov    $0x1,%esi
   1089f:	48 89 c7             	mov    %rax,%rdi
   108a2:	e8 87 87 ff ff       	callq  902e <safe_add_func_uint64_t_u_u>
   108a7:	66 89 85 5c ed ff ff 	mov    %ax,-0x12a4(%rbp)
   108ae:	66 83 bd 5c ed ff ff 	cmpw   $0x3c,-0x12a4(%rbp)
   108b5:	3c 
   108b6:	0f 85 4a f2 ff ff    	jne    fb06 <func_12+0x2237>
   108bc:	c7 05 e2 28 01 00 04 	movl   $0x4,0x128e2(%rip)        # 231a8 <g_635>
   108c3:	00 00 00 
   108c6:	e9 d9 04 00 00       	jmpq   10da4 <func_12+0x34d5>
   108cb:	48 8d 05 4e 2b 01 00 	lea    0x12b4e(%rip),%rax        # 23420 <g_1465>
   108d2:	48 89 85 80 ee ff ff 	mov    %rax,-0x1180(%rbp)
   108d9:	48 8d 85 80 ee ff ff 	lea    -0x1180(%rbp),%rax
   108e0:	48 89 85 68 ef ff ff 	mov    %rax,-0x1098(%rbp)
   108e7:	c7 85 d0 f4 ff ff 01 	movl   $0x1,-0xb30(%rbp)
   108ee:	00 00 00 
   108f1:	c7 85 d4 f4 ff ff 69 	movl   $0xf2c2e369,-0xb2c(%rbp)
   108f8:	e3 c2 f2 
   108fb:	c7 85 d8 f4 ff ff fb 	movl   $0xfffffffb,-0xb28(%rbp)
   10902:	ff ff ff 
   10905:	c7 85 dc f4 ff ff 69 	movl   $0xf2c2e369,-0xb24(%rbp)
   1090c:	e3 c2 f2 
   1090f:	c7 85 e0 f4 ff ff b9 	movl   $0x39ade7b9,-0xb20(%rbp)
   10916:	e7 ad 39 
   10919:	c7 85 e4 f4 ff ff b9 	movl   $0x39ade7b9,-0xb1c(%rbp)
   10920:	e7 ad 39 
   10923:	c7 85 e8 f4 ff ff 69 	movl   $0xf2c2e369,-0xb18(%rbp)
   1092a:	e3 c2 f2 
   1092d:	c7 85 ec f4 ff ff fb 	movl   $0xfffffffb,-0xb14(%rbp)
   10934:	ff ff ff 
   10937:	c7 85 f0 f4 ff ff 69 	movl   $0xf2c2e369,-0xb10(%rbp)
   1093e:	e3 c2 f2 
   10941:	c7 85 f4 f4 ff ff b9 	movl   $0x39ade7b9,-0xb0c(%rbp)
   10948:	e7 ad 39 
   1094b:	c7 85 f8 f4 ff ff b9 	movl   $0x39ade7b9,-0xb08(%rbp)
   10952:	e7 ad 39 
   10955:	c7 85 fc f4 ff ff 69 	movl   $0xf2c2e369,-0xb04(%rbp)
   1095c:	e3 c2 f2 
   1095f:	c7 85 00 f5 ff ff fb 	movl   $0xfffffffb,-0xb00(%rbp)
   10966:	ff ff ff 
   10969:	c7 85 04 f5 ff ff 69 	movl   $0xf2c2e369,-0xafc(%rbp)
   10970:	e3 c2 f2 
   10973:	c7 85 08 f5 ff ff b9 	movl   $0x39ade7b9,-0xaf8(%rbp)
   1097a:	e7 ad 39 
   1097d:	c7 85 0c f5 ff ff b9 	movl   $0x39ade7b9,-0xaf4(%rbp)
   10984:	e7 ad 39 
   10987:	c7 85 10 f5 ff ff 69 	movl   $0xf2c2e369,-0xaf0(%rbp)
   1098e:	e3 c2 f2 
   10991:	c7 85 14 f5 ff ff fb 	movl   $0xfffffffb,-0xaec(%rbp)
   10998:	ff ff ff 
   1099b:	c7 85 18 f5 ff ff 69 	movl   $0xf2c2e369,-0xae8(%rbp)
   109a2:	e3 c2 f2 
   109a5:	c7 85 1c f5 ff ff b9 	movl   $0x39ade7b9,-0xae4(%rbp)
   109ac:	e7 ad 39 
   109af:	c7 85 20 f5 ff ff b9 	movl   $0x39ade7b9,-0xae0(%rbp)
   109b6:	e7 ad 39 
   109b9:	c7 85 24 f5 ff ff 69 	movl   $0xf2c2e369,-0xadc(%rbp)
   109c0:	e3 c2 f2 
   109c3:	c7 85 28 f5 ff ff fb 	movl   $0xfffffffb,-0xad8(%rbp)
   109ca:	ff ff ff 
   109cd:	c7 85 2c f5 ff ff 69 	movl   $0xf2c2e369,-0xad4(%rbp)
   109d4:	e3 c2 f2 
   109d7:	c7 85 30 f5 ff ff b9 	movl   $0x39ade7b9,-0xad0(%rbp)
   109de:	e7 ad 39 
   109e1:	c7 85 34 f5 ff ff b9 	movl   $0x39ade7b9,-0xacc(%rbp)
   109e8:	e7 ad 39 
   109eb:	c7 85 38 f5 ff ff 69 	movl   $0xf2c2e369,-0xac8(%rbp)
   109f2:	e3 c2 f2 
   109f5:	c7 85 3c f5 ff ff fb 	movl   $0xfffffffb,-0xac4(%rbp)
   109fc:	ff ff ff 
   109ff:	c7 85 40 f5 ff ff 69 	movl   $0xf2c2e369,-0xac0(%rbp)
   10a06:	e3 c2 f2 
   10a09:	c7 85 44 f5 ff ff b9 	movl   $0x39ade7b9,-0xabc(%rbp)
   10a10:	e7 ad 39 
   10a13:	c7 85 48 f5 ff ff b9 	movl   $0x39ade7b9,-0xab8(%rbp)
   10a1a:	e7 ad 39 
   10a1d:	c7 85 4c f5 ff ff 69 	movl   $0xf2c2e369,-0xab4(%rbp)
   10a24:	e3 c2 f2 
   10a27:	c7 85 50 f5 ff ff fb 	movl   $0xfffffffb,-0xab0(%rbp)
   10a2e:	ff ff ff 
   10a31:	c7 85 54 f5 ff ff 69 	movl   $0xf2c2e369,-0xaac(%rbp)
   10a38:	e3 c2 f2 
   10a3b:	c7 85 58 f5 ff ff b9 	movl   $0x39ade7b9,-0xaa8(%rbp)
   10a42:	e7 ad 39 
   10a45:	c7 85 5c f5 ff ff b9 	movl   $0x39ade7b9,-0xaa4(%rbp)
   10a4c:	e7 ad 39 
   10a4f:	c7 85 60 f5 ff ff 69 	movl   $0xf2c2e369,-0xaa0(%rbp)
   10a56:	e3 c2 f2 
   10a59:	c7 85 64 f5 ff ff fb 	movl   $0xfffffffb,-0xa9c(%rbp)
   10a60:	ff ff ff 
   10a63:	c7 85 68 f5 ff ff 69 	movl   $0xf2c2e369,-0xa98(%rbp)
   10a6a:	e3 c2 f2 
   10a6d:	c7 85 6c f5 ff ff b9 	movl   $0x39ade7b9,-0xa94(%rbp)
   10a74:	e7 ad 39 
   10a77:	c7 85 70 f5 ff ff b9 	movl   $0x39ade7b9,-0xa90(%rbp)
   10a7e:	e7 ad 39 
   10a81:	c7 85 74 f5 ff ff 69 	movl   $0xf2c2e369,-0xa8c(%rbp)
   10a88:	e3 c2 f2 
   10a8b:	c7 85 78 f5 ff ff fb 	movl   $0xfffffffb,-0xa88(%rbp)
   10a92:	ff ff ff 
   10a95:	c7 85 7c f5 ff ff 69 	movl   $0xf2c2e369,-0xa84(%rbp)
   10a9c:	e3 c2 f2 
   10a9f:	c7 85 80 f5 ff ff b9 	movl   $0x39ade7b9,-0xa80(%rbp)
   10aa6:	e7 ad 39 
   10aa9:	c7 85 84 f5 ff ff b9 	movl   $0x39ade7b9,-0xa7c(%rbp)
   10ab0:	e7 ad 39 
   10ab3:	c7 85 88 f5 ff ff 69 	movl   $0xf2c2e369,-0xa78(%rbp)
   10aba:	e3 c2 f2 
   10abd:	c7 85 8c f5 ff ff fb 	movl   $0xfffffffb,-0xa74(%rbp)
   10ac4:	ff ff ff 
   10ac7:	c7 85 90 f5 ff ff 69 	movl   $0xf2c2e369,-0xa70(%rbp)
   10ace:	e3 c2 f2 
   10ad1:	c7 85 94 f5 ff ff b9 	movl   $0x39ade7b9,-0xa6c(%rbp)
   10ad8:	e7 ad 39 
   10adb:	c7 85 98 f5 ff ff b9 	movl   $0x39ade7b9,-0xa68(%rbp)
   10ae2:	e7 ad 39 
   10ae5:	c7 85 9c f5 ff ff 69 	movl   $0xf2c2e369,-0xa64(%rbp)
   10aec:	e3 c2 f2 
   10aef:	c7 85 a0 f5 ff ff fb 	movl   $0xfffffffb,-0xa60(%rbp)
   10af6:	ff ff ff 
   10af9:	c7 85 a4 f5 ff ff 69 	movl   $0xf2c2e369,-0xa5c(%rbp)
   10b00:	e3 c2 f2 
   10b03:	c7 85 a8 f5 ff ff b9 	movl   $0x39ade7b9,-0xa58(%rbp)
   10b0a:	e7 ad 39 
   10b0d:	c7 85 ac f5 ff ff b9 	movl   $0x39ade7b9,-0xa54(%rbp)
   10b14:	e7 ad 39 
   10b17:	c7 85 b0 f5 ff ff 69 	movl   $0xf2c2e369,-0xa50(%rbp)
   10b1e:	e3 c2 f2 
   10b21:	c7 85 b4 f5 ff ff fb 	movl   $0xfffffffb,-0xa4c(%rbp)
   10b28:	ff ff ff 
   10b2b:	c7 85 b8 f5 ff ff 69 	movl   $0xf2c2e369,-0xa48(%rbp)
   10b32:	e3 c2 f2 
   10b35:	c7 85 bc f5 ff ff b9 	movl   $0x39ade7b9,-0xa44(%rbp)
   10b3c:	e7 ad 39 
   10b3f:	48 8d 05 c2 4f 01 00 	lea    0x14fc2(%rip),%rax        # 25b08 <g_1230>
   10b46:	48 89 85 70 ef ff ff 	mov    %rax,-0x1090(%rbp)
   10b4d:	48 c7 85 88 ee ff ff 	movq   $0x0,-0x1178(%rbp)
   10b54:	00 00 00 00 
   10b58:	48 8d 85 88 ee ff ff 	lea    -0x1178(%rbp),%rax
   10b5f:	48 89 85 78 ef ff ff 	mov    %rax,-0x1088(%rbp)
   10b66:	c7 85 b4 ed ff ff 00 	movl   $0x0,-0x124c(%rbp)
   10b6d:	00 00 00 
   10b70:	eb 1b                	jmp    10b8d <func_12+0x32be>
   10b72:	8b 85 b4 ed ff ff    	mov    -0x124c(%rbp),%eax
   10b78:	48 98                	cltq   
   10b7a:	48 c7 84 c5 90 f3 ff 	movq   $0x0,-0xc70(%rbp,%rax,8)
   10b81:	ff 00 00 00 00 
   10b86:	83 85 b4 ed ff ff 01 	addl   $0x1,-0x124c(%rbp)
   10b8d:	83 bd b4 ed ff ff 03 	cmpl   $0x3,-0x124c(%rbp)
   10b94:	7e dc                	jle    10b72 <func_12+0x32a3>
   10b96:	48 8b 85 40 ee ff ff 	mov    -0x11c0(%rbp),%rax
   10b9d:	48 8b 95 98 f3 ff ff 	mov    -0xc68(%rbp),%rdx
   10ba4:	48 89 10             	mov    %rdx,(%rax)
   10ba7:	48 8b 18             	mov    (%rax),%rbx
   10baa:	8b 85 54 f5 ff ff    	mov    -0xaac(%rbp),%eax
   10bb0:	89 c6                	mov    %eax,%esi
   10bb2:	bf 00 00 00 00       	mov    $0x0,%edi
   10bb7:	e8 10 7b ff ff       	callq  86cc <safe_mod_func_int32_t_s_s>
   10bbc:	48 c7 05 71 54 01 00 	movq   $0x0,0x15471(%rip)        # 26038 <g_1885>
   10bc3:	00 00 00 00 
   10bc7:	48 8b 05 6a 54 01 00 	mov    0x1546a(%rip),%rax        # 26038 <g_1885>
   10bce:	48 39 c3             	cmp    %rax,%rbx
   10bd1:	48 8b 85 b8 ee ff ff 	mov    -0x1148(%rbp),%rax
   10bd8:	48 8b 00             	mov    (%rax),%rax
   10bdb:	c6 00 01             	movb   $0x1,(%rax)
   10bde:	0f b6 00             	movzbl (%rax),%eax
   10be1:	0f b6 c0             	movzbl %al,%eax
   10be4:	89 c6                	mov    %eax,%esi
   10be6:	bf 6c 00 00 00       	mov    $0x6c,%edi
   10beb:	e8 ce 80 ff ff       	callq  8cbe <safe_rshift_func_uint8_t_u_u>
   10bf0:	0f b6 c0             	movzbl %al,%eax
   10bf3:	be 00 00 00 00       	mov    $0x0,%esi
   10bf8:	89 c7                	mov    %eax,%edi
   10bfa:	e8 d1 82 ff ff       	callq  8ed0 <safe_sub_func_uint32_t_u_u>
   10bff:	8b 95 ec f4 ff ff    	mov    -0xb14(%rbp),%edx
   10c05:	39 d0                	cmp    %edx,%eax
   10c07:	0f 96 c0             	setbe  %al
   10c0a:	0f b6 d8             	movzbl %al,%ebx
   10c0d:	48 8b 05 1c 54 01 00 	mov    0x1541c(%rip),%rax        # 26030 <g_1874>
   10c14:	48 39 85 b8 ee ff ff 	cmp    %rax,-0x1148(%rbp)
   10c1b:	0f 94 c0             	sete   %al
   10c1e:	0f b6 c0             	movzbl %al,%eax
   10c21:	f7 d0                	not    %eax
   10c23:	48 63 d0             	movslq %eax,%rdx
   10c26:	8b 85 ec f4 ff ff    	mov    -0xb14(%rbp),%eax
   10c2c:	48 98                	cltq   
   10c2e:	48 89 d6             	mov    %rdx,%rsi
   10c31:	48 89 c7             	mov    %rax,%rdi
   10c34:	e8 76 84 ff ff       	callq  90af <safe_div_func_uint64_t_u_u>
   10c39:	89 de                	mov    %ebx,%esi
   10c3b:	89 c7                	mov    %eax,%edi
   10c3d:	e8 76 82 ff ff       	callq  8eb8 <safe_add_func_uint32_t_u_u>
   10c42:	0f b7 c0             	movzwl %ax,%eax
   10c45:	be 00 00 00 00       	mov    $0x0,%esi
   10c4a:	89 c7                	mov    %eax,%edi
   10c4c:	e8 6d 81 ff ff       	callq  8dbe <safe_lshift_func_uint16_t_u_s>
   10c51:	48 8b 85 a0 ee ff ff 	mov    -0x1160(%rbp),%rax
   10c58:	66 c7 00 00 00       	movw   $0x0,(%rax)
   10c5d:	48 8b 85 a0 ee ff ff 	mov    -0x1160(%rbp),%rax
   10c64:	0f b7 00             	movzwl (%rax),%eax
   10c67:	0f b7 d0             	movzwl %ax,%edx
   10c6a:	48 8b 8d 80 ee ff ff 	mov    -0x1180(%rbp),%rcx
   10c71:	48 8b 85 68 ef ff ff 	mov    -0x1098(%rbp),%rax
   10c78:	48 89 08             	mov    %rcx,(%rax)
   10c7b:	48 8b 85 68 ef ff ff 	mov    -0x1098(%rbp),%rax
   10c82:	48 8b 08             	mov    (%rax),%rcx
   10c85:	48 8b 85 48 ed ff ff 	mov    -0x12b8(%rbp),%rax
   10c8c:	48 39 c1             	cmp    %rax,%rcx
   10c8f:	0f 94 c0             	sete   %al
   10c92:	0f b6 c0             	movzbl %al,%eax
   10c95:	89 d6                	mov    %edx,%esi
   10c97:	89 c7                	mov    %eax,%edi
   10c99:	e8 9f 80 ff ff       	callq  8d3d <safe_mul_func_uint16_t_u_u>
   10c9e:	48 8b 95 b0 ee ff ff 	mov    -0x1150(%rbp),%rdx
   10ca5:	8b 12                	mov    (%rdx),%edx
   10ca7:	0f b7 c0             	movzwl %ax,%eax
   10caa:	21 c2                	and    %eax,%edx
   10cac:	48 8b 85 b0 ee ff ff 	mov    -0x1150(%rbp),%rax
   10cb3:	89 10                	mov    %edx,(%rax)
   10cb5:	48 8b 05 44 3e 01 00 	mov    0x13e44(%rip),%rax        # 24b00 <g_135>
   10cbc:	48 8b 00             	mov    (%rax),%rax
   10cbf:	48 8b 95 b0 ee ff ff 	mov    -0x1150(%rbp),%rdx
   10cc6:	8b 12                	mov    (%rdx),%edx
   10cc8:	89 10                	mov    %edx,(%rax)
   10cca:	8b 85 b4 f5 ff ff    	mov    -0xa4c(%rbp),%eax
   10cd0:	85 c0                	test   %eax,%eax
   10cd2:	0f 85 dc 00 00 00    	jne    10db4 <func_12+0x34e5>
   10cd8:	c7 05 42 23 01 00 00 	movl   $0x0,0x12342(%rip)        # 23024 <g_18>
   10cdf:	00 00 00 
   10ce2:	e9 a0 00 00 00       	jmpq   10d87 <func_12+0x34b8>
   10ce7:	48 c7 85 80 ef ff ff 	movq   $0x0,-0x1080(%rbp)
   10cee:	00 00 00 00 
   10cf2:	48 8d 85 f0 f7 ff ff 	lea    -0x810(%rbp),%rax
   10cf9:	48 8d 15 40 29 01 00 	lea    0x12940(%rip),%rdx        # 23640 <g_2398+0x188>
   10d00:	b9 d8 00 00 00       	mov    $0xd8,%ecx
   10d05:	48 89 c7             	mov    %rax,%rdi
   10d08:	48 89 d6             	mov    %rdx,%rsi
   10d0b:	f3 48 a5             	rep movsq %ds:(%rsi),%es:(%rdi)
   10d0e:	c7 85 0c ee ff ff fc 	movl   $0xfffffffc,-0x11f4(%rbp)
   10d15:	ff ff ff 
   10d18:	48 8d 05 11 59 01 00 	lea    0x15911(%rip),%rax        # 26630 <g_251>
   10d1f:	48 89 85 88 ef ff ff 	mov    %rax,-0x1078(%rbp)
   10d26:	48 8d 05 7b 45 01 00 	lea    0x1457b(%rip),%rax        # 252a8 <g_307>
   10d2d:	48 89 85 90 ef ff ff 	mov    %rax,-0x1070(%rbp)
   10d34:	c7 85 10 ee ff ff 00 	movl   $0x0,-0x11f0(%rbp)
   10d3b:	00 00 00 
   10d3e:	48 c7 85 98 ef ff ff 	movq   $0x0,-0x1068(%rbp)
   10d45:	00 00 00 00 
   10d49:	c7 85 a4 ed ff ff 00 	movl   $0x0,-0x125c(%rbp)
   10d50:	00 00 00 
   10d53:	eb 1a                	jmp    10d6f <func_12+0x34a0>
   10d55:	8b 85 a4 ed ff ff    	mov    -0x125c(%rbp),%eax
   10d5b:	48 98                	cltq   
   10d5d:	c7 84 85 30 f2 ff ff 	movl   $0x0,-0xdd0(%rbp,%rax,4)
   10d64:	00 00 00 00 
   10d68:	83 85 a4 ed ff ff 01 	addl   $0x1,-0x125c(%rbp)
   10d6f:	83 bd a4 ed ff ff 00 	cmpl   $0x0,-0x125c(%rbp)
   10d76:	7e dd                	jle    10d55 <func_12+0x3486>
   10d78:	8b 05 a6 22 01 00    	mov    0x122a6(%rip),%eax        # 23024 <g_18>
   10d7e:	83 e8 01             	sub    $0x1,%eax
   10d81:	89 05 9d 22 01 00    	mov    %eax,0x1229d(%rip)        # 23024 <g_18>
   10d87:	8b 05 97 22 01 00    	mov    0x12297(%rip),%eax        # 23024 <g_18>
   10d8d:	85 c0                	test   %eax,%eax
   10d8f:	0f 89 52 ff ff ff    	jns    10ce7 <func_12+0x3418>
   10d95:	8b 05 0d 24 01 00    	mov    0x1240d(%rip),%eax        # 231a8 <g_635>
   10d9b:	83 e8 01             	sub    $0x1,%eax
   10d9e:	89 05 04 24 01 00    	mov    %eax,0x12404(%rip)        # 231a8 <g_635>
   10da4:	8b 05 fe 23 01 00    	mov    0x123fe(%rip),%eax        # 231a8 <g_635>
   10daa:	85 c0                	test   %eax,%eax
   10dac:	0f 89 19 fb ff ff    	jns    108cb <func_12+0x2ffc>
   10db2:	eb 01                	jmp    10db5 <func_12+0x34e6>
   10db4:	90                   	nop
   10db5:	8b 05 ed 23 01 00    	mov    0x123ed(%rip),%eax        # 231a8 <g_635>
   10dbb:	0f be d8             	movsbl %al,%ebx
   10dbe:	0f b7 95 58 ed ff ff 	movzwl -0x12a8(%rbp),%edx
   10dc5:	48 8b 8d 48 ed ff ff 	mov    -0x12b8(%rbp),%rcx
   10dcc:	48 8b 05 dd 44 01 00 	mov    0x144dd(%rip),%rax        # 252b0 <g_432>
   10dd3:	0f b6 09             	movzbl (%rcx),%ecx
   10dd6:	88 08                	mov    %cl,(%rax)
   10dd8:	0f b6 00             	movzbl (%rax),%eax
   10ddb:	0f be c8             	movsbl %al,%ecx
   10dde:	48 8b 85 b8 ee ff ff 	mov    -0x1148(%rbp),%rax
   10de5:	48 8b 00             	mov    (%rax),%rax
   10de8:	0f b7 b5 58 ed ff ff 	movzwl -0x12a8(%rbp),%esi
   10def:	40 88 30             	mov    %sil,(%rax)
   10df2:	0f b6 00             	movzbl (%rax),%eax
   10df5:	0f b6 c0             	movzbl %al,%eax
   10df8:	39 c1                	cmp    %eax,%ecx
   10dfa:	0f 95 c0             	setne  %al
   10dfd:	0f b6 c0             	movzbl %al,%eax
   10e00:	89 d6                	mov    %edx,%esi
   10e02:	89 c7                	mov    %eax,%edi
   10e04:	e8 53 7f ff ff       	callq  8d5c <safe_mod_func_uint16_t_u_u>
   10e09:	89 de                	mov    %ebx,%esi
   10e0b:	bf 01 00 00 00       	mov    $0x1,%edi
   10e10:	e8 fd 73 ff ff       	callq  8212 <safe_mul_func_int8_t_s_s>
   10e15:	0f be c0             	movsbl %al,%eax
   10e18:	be 67 00 00 00       	mov    $0x67,%esi
   10e1d:	89 c7                	mov    %eax,%edi
   10e1f:	e8 b0 73 ff ff       	callq  81d4 <safe_add_func_int8_t_s_s>
   10e24:	48 0f be d0          	movsbq %al,%rdx
   10e28:	0f b7 05 67 26 01 00 	movzwl 0x12667(%rip),%eax        # 23496 <g_1988>
   10e2f:	48 8b 85 c0 ee ff ff 	mov    -0x1140(%rbp),%rax
   10e36:	48 8b 00             	mov    (%rax),%rax
   10e39:	48 8b 30             	mov    (%rax),%rsi
   10e3c:	48 8b 0d 95 51 01 00 	mov    0x15195(%rip),%rcx        # 25fd8 <g_1469>
   10e43:	48 8b 85 60 ee ff ff 	mov    -0x11a0(%rbp),%rax
   10e4a:	48 8b 09             	mov    (%rcx),%rcx
   10e4d:	48 89 08             	mov    %rcx,(%rax)
   10e50:	48 8b 00             	mov    (%rax),%rax
   10e53:	48 39 c6             	cmp    %rax,%rsi
   10e56:	0f 94 c0             	sete   %al
   10e59:	0f b6 c0             	movzbl %al,%eax
   10e5c:	48 89 d6             	mov    %rdx,%rsi
   10e5f:	48 89 c7             	mov    %rax,%rdi
   10e62:	e8 90 7b ff ff       	callq  89f7 <safe_div_func_int64_t_s_s>
   10e67:	48 85 c0             	test   %rax,%rax
   10e6a:	0f 84 79 0e 00 00    	je     11ce9 <func_12+0x441a>
   10e70:	48 c7 85 f0 ef ff ff 	movq   $0x0,-0x1010(%rbp)
   10e77:	00 00 00 00 
   10e7b:	48 8d 85 84 ed ff ff 	lea    -0x127c(%rbp),%rax
   10e82:	48 89 85 f8 ef ff ff 	mov    %rax,-0x1008(%rbp)
   10e89:	48 8d 05 94 21 01 00 	lea    0x12194(%rip),%rax        # 23024 <g_18>
   10e90:	48 89 85 00 f0 ff ff 	mov    %rax,-0x1000(%rbp)
   10e97:	48 8d 05 92 21 01 00 	lea    0x12192(%rip),%rax        # 23030 <g_46>
   10e9e:	48 89 85 08 f0 ff ff 	mov    %rax,-0xff8(%rbp)
   10ea5:	48 8d 85 d0 f2 ff ff 	lea    -0xd30(%rbp),%rax
   10eac:	48 05 ac 00 00 00    	add    $0xac,%rax
   10eb2:	48 89 85 10 f0 ff ff 	mov    %rax,-0xff0(%rbp)
   10eb9:	48 8d 85 d0 f2 ff ff 	lea    -0xd30(%rbp),%rax
   10ec0:	48 83 c0 04          	add    $0x4,%rax
   10ec4:	48 89 85 18 f0 ff ff 	mov    %rax,-0xfe8(%rbp)
   10ecb:	48 8d 85 7c ed ff ff 	lea    -0x1284(%rbp),%rax
   10ed2:	48 89 85 20 f0 ff ff 	mov    %rax,-0xfe0(%rbp)
   10ed9:	48 c7 85 28 f0 ff ff 	movq   $0x0,-0xfd8(%rbp)
   10ee0:	00 00 00 00 
   10ee4:	48 8d 85 88 ed ff ff 	lea    -0x1278(%rbp),%rax
   10eeb:	48 89 85 30 f0 ff ff 	mov    %rax,-0xfd0(%rbp)
   10ef2:	48 8d 85 d0 f2 ff ff 	lea    -0xd30(%rbp),%rax
   10ef9:	48 83 c0 04          	add    $0x4,%rax
   10efd:	48 89 85 f0 f7 ff ff 	mov    %rax,-0x810(%rbp)
   10f04:	48 c7 85 f8 f7 ff ff 	movq   $0x0,-0x808(%rbp)
   10f0b:	00 00 00 00 
   10f0f:	48 8d 85 7c ed ff ff 	lea    -0x1284(%rbp),%rax
   10f16:	48 89 85 00 f8 ff ff 	mov    %rax,-0x800(%rbp)
   10f1d:	48 8d 85 88 ed ff ff 	lea    -0x1278(%rbp),%rax
   10f24:	48 89 85 08 f8 ff ff 	mov    %rax,-0x7f8(%rbp)
   10f2b:	48 c7 85 10 f8 ff ff 	movq   $0x0,-0x7f0(%rbp)
   10f32:	00 00 00 00 
   10f36:	48 8d 85 84 ed ff ff 	lea    -0x127c(%rbp),%rax
   10f3d:	48 89 85 18 f8 ff ff 	mov    %rax,-0x7e8(%rbp)
   10f44:	48 c7 85 20 f8 ff ff 	movq   $0x0,-0x7e0(%rbp)
   10f4b:	00 00 00 00 
   10f4f:	48 8d 05 da 20 01 00 	lea    0x120da(%rip),%rax        # 23030 <g_46>
   10f56:	48 89 85 28 f8 ff ff 	mov    %rax,-0x7d8(%rbp)
   10f5d:	48 8d 85 90 ed ff ff 	lea    -0x1270(%rbp),%rax
   10f64:	48 89 85 30 f8 ff ff 	mov    %rax,-0x7d0(%rbp)
   10f6b:	48 8d 85 d0 f2 ff ff 	lea    -0xd30(%rbp),%rax
   10f72:	48 83 c0 4c          	add    $0x4c,%rax
   10f76:	48 89 85 38 f8 ff ff 	mov    %rax,-0x7c8(%rbp)
   10f7d:	48 c7 85 40 f8 ff ff 	movq   $0x0,-0x7c0(%rbp)
   10f84:	00 00 00 00 
   10f88:	48 8d 05 a1 20 01 00 	lea    0x120a1(%rip),%rax        # 23030 <g_46>
   10f8f:	48 89 85 48 f8 ff ff 	mov    %rax,-0x7b8(%rbp)
   10f96:	48 c7 85 50 f8 ff ff 	movq   $0x0,-0x7b0(%rbp)
   10f9d:	00 00 00 00 
   10fa1:	48 8d 85 d0 f2 ff ff 	lea    -0xd30(%rbp),%rax
   10fa8:	48 83 c0 04          	add    $0x4,%rax
   10fac:	48 89 85 58 f8 ff ff 	mov    %rax,-0x7a8(%rbp)
   10fb3:	48 c7 85 60 f8 ff ff 	movq   $0x0,-0x7a0(%rbp)
   10fba:	00 00 00 00 
   10fbe:	48 8d 85 84 ed ff ff 	lea    -0x127c(%rbp),%rax
   10fc5:	48 89 85 68 f8 ff ff 	mov    %rax,-0x798(%rbp)
   10fcc:	48 8d 85 88 ed ff ff 	lea    -0x1278(%rbp),%rax
   10fd3:	48 89 85 70 f8 ff ff 	mov    %rax,-0x790(%rbp)
   10fda:	48 8d 85 88 ed ff ff 	lea    -0x1278(%rbp),%rax
   10fe1:	48 89 85 78 f8 ff ff 	mov    %rax,-0x788(%rbp)
   10fe8:	48 8d 85 84 ed ff ff 	lea    -0x127c(%rbp),%rax
   10fef:	48 89 85 80 f8 ff ff 	mov    %rax,-0x780(%rbp)
   10ff6:	48 8d 85 d0 f2 ff ff 	lea    -0xd30(%rbp),%rax
   10ffd:	48 83 c0 04          	add    $0x4,%rax
   11001:	48 89 85 88 f8 ff ff 	mov    %rax,-0x778(%rbp)
   11008:	48 c7 85 90 f8 ff ff 	movq   $0x0,-0x770(%rbp)
   1100f:	00 00 00 00 
   11013:	48 c7 85 98 f8 ff ff 	movq   $0x0,-0x768(%rbp)
   1101a:	00 00 00 00 
   1101e:	48 8d 05 0b 20 01 00 	lea    0x1200b(%rip),%rax        # 23030 <g_46>
   11025:	48 89 85 a0 f8 ff ff 	mov    %rax,-0x760(%rbp)
   1102c:	48 8d 85 84 ed ff ff 	lea    -0x127c(%rbp),%rax
   11033:	48 89 85 a8 f8 ff ff 	mov    %rax,-0x758(%rbp)
   1103a:	48 c7 85 b0 f8 ff ff 	movq   $0x0,-0x750(%rbp)
   11041:	00 00 00 00 
   11045:	48 8d 85 90 ed ff ff 	lea    -0x1270(%rbp),%rax
   1104c:	48 89 85 b8 f8 ff ff 	mov    %rax,-0x748(%rbp)
   11053:	48 c7 85 c0 f8 ff ff 	movq   $0x0,-0x740(%rbp)
   1105a:	00 00 00 00 
   1105e:	48 c7 85 c8 f8 ff ff 	movq   $0x0,-0x738(%rbp)
   11065:	00 00 00 00 
   11069:	48 8d 85 d0 f2 ff ff 	lea    -0xd30(%rbp),%rax
   11070:	48 05 a8 00 00 00    	add    $0xa8,%rax
   11076:	48 89 85 d0 f8 ff ff 	mov    %rax,-0x730(%rbp)
   1107d:	48 8d 85 d0 f2 ff ff 	lea    -0xd30(%rbp),%rax
   11084:	48 83 c0 50          	add    $0x50,%rax
   11088:	48 89 85 d8 f8 ff ff 	mov    %rax,-0x728(%rbp)
   1108f:	48 8d 85 88 ed ff ff 	lea    -0x1278(%rbp),%rax
   11096:	48 89 85 e0 f8 ff ff 	mov    %rax,-0x720(%rbp)
   1109d:	48 8d 85 d0 f2 ff ff 	lea    -0xd30(%rbp),%rax
   110a4:	48 83 c0 04          	add    $0x4,%rax
   110a8:	48 89 85 e8 f8 ff ff 	mov    %rax,-0x718(%rbp)
   110af:	48 8d 85 94 ed ff ff 	lea    -0x126c(%rbp),%rax
   110b6:	48 89 85 f0 f8 ff ff 	mov    %rax,-0x710(%rbp)
   110bd:	48 8d 85 84 ed ff ff 	lea    -0x127c(%rbp),%rax
   110c4:	48 89 85 f8 f8 ff ff 	mov    %rax,-0x708(%rbp)
   110cb:	48 c7 85 00 f9 ff ff 	movq   $0x0,-0x700(%rbp)
   110d2:	00 00 00 00 
   110d6:	48 8d 05 53 1f 01 00 	lea    0x11f53(%rip),%rax        # 23030 <g_46>
   110dd:	48 89 85 08 f9 ff ff 	mov    %rax,-0x6f8(%rbp)
   110e4:	48 8d 85 88 ed ff ff 	lea    -0x1278(%rbp),%rax
   110eb:	48 89 85 10 f9 ff ff 	mov    %rax,-0x6f0(%rbp)
   110f2:	48 8d 05 37 1f 01 00 	lea    0x11f37(%rip),%rax        # 23030 <g_46>
   110f9:	48 89 85 18 f9 ff ff 	mov    %rax,-0x6e8(%rbp)
   11100:	48 8d 85 84 ed ff ff 	lea    -0x127c(%rbp),%rax
   11107:	48 89 85 20 f9 ff ff 	mov    %rax,-0x6e0(%rbp)
   1110e:	48 8d 85 7c ed ff ff 	lea    -0x1284(%rbp),%rax
   11115:	48 89 85 28 f9 ff ff 	mov    %rax,-0x6d8(%rbp)
   1111c:	48 8d 05 01 1f 01 00 	lea    0x11f01(%rip),%rax        # 23024 <g_18>
   11123:	48 89 85 30 f9 ff ff 	mov    %rax,-0x6d0(%rbp)
   1112a:	48 8d 85 84 ed ff ff 	lea    -0x127c(%rbp),%rax
   11131:	48 89 85 38 f9 ff ff 	mov    %rax,-0x6c8(%rbp)
   11138:	48 8d 05 e5 1e 01 00 	lea    0x11ee5(%rip),%rax        # 23024 <g_18>
   1113f:	48 89 85 40 f9 ff ff 	mov    %rax,-0x6c0(%rbp)
   11146:	48 8d 85 d0 f2 ff ff 	lea    -0xd30(%rbp),%rax
   1114d:	48 83 c0 04          	add    $0x4,%rax
   11151:	48 89 85 48 f9 ff ff 	mov    %rax,-0x6b8(%rbp)
   11158:	48 8d 85 88 ed ff ff 	lea    -0x1278(%rbp),%rax
   1115f:	48 89 85 50 f9 ff ff 	mov    %rax,-0x6b0(%rbp)
   11166:	48 8d 85 7c ed ff ff 	lea    -0x1284(%rbp),%rax
   1116d:	48 89 85 58 f9 ff ff 	mov    %rax,-0x6a8(%rbp)
   11174:	48 c7 85 60 f9 ff ff 	movq   $0x0,-0x6a0(%rbp)
   1117b:	00 00 00 00 
   1117f:	48 8d 05 9e 1e 01 00 	lea    0x11e9e(%rip),%rax        # 23024 <g_18>
   11186:	48 89 85 68 f9 ff ff 	mov    %rax,-0x698(%rbp)
   1118d:	48 8d 85 90 ed ff ff 	lea    -0x1270(%rbp),%rax
   11194:	48 89 85 70 f9 ff ff 	mov    %rax,-0x690(%rbp)
   1119b:	48 8d 85 7c ed ff ff 	lea    -0x1284(%rbp),%rax
   111a2:	48 89 85 78 f9 ff ff 	mov    %rax,-0x688(%rbp)
   111a9:	48 8d 05 80 1e 01 00 	lea    0x11e80(%rip),%rax        # 23030 <g_46>
   111b0:	48 89 85 80 f9 ff ff 	mov    %rax,-0x680(%rbp)
   111b7:	48 8d 85 7c ed ff ff 	lea    -0x1284(%rbp),%rax
   111be:	48 89 85 88 f9 ff ff 	mov    %rax,-0x678(%rbp)
   111c5:	48 8d 85 d0 f2 ff ff 	lea    -0xd30(%rbp),%rax
   111cc:	48 83 c0 30          	add    $0x30,%rax
   111d0:	48 89 85 90 f9 ff ff 	mov    %rax,-0x670(%rbp)
   111d7:	48 8d 85 88 ed ff ff 	lea    -0x1278(%rbp),%rax
   111de:	48 89 85 98 f9 ff ff 	mov    %rax,-0x668(%rbp)
   111e5:	48 c7 85 a0 f9 ff ff 	movq   $0x0,-0x660(%rbp)
   111ec:	00 00 00 00 
   111f0:	48 8d 85 d0 f2 ff ff 	lea    -0xd30(%rbp),%rax
   111f7:	48 83 c0 04          	add    $0x4,%rax
   111fb:	48 89 85 a8 f9 ff ff 	mov    %rax,-0x658(%rbp)
   11202:	48 8d 85 d0 f2 ff ff 	lea    -0xd30(%rbp),%rax
   11209:	48 83 c0 4c          	add    $0x4c,%rax
   1120d:	48 89 85 b0 f9 ff ff 	mov    %rax,-0x650(%rbp)
   11214:	48 8d 85 7c ed ff ff 	lea    -0x1284(%rbp),%rax
   1121b:	48 89 85 b8 f9 ff ff 	mov    %rax,-0x648(%rbp)
   11222:	48 8d 85 d0 f2 ff ff 	lea    -0xd30(%rbp),%rax
   11229:	48 83 c0 44          	add    $0x44,%rax
   1122d:	48 89 85 c0 f9 ff ff 	mov    %rax,-0x640(%rbp)
   11234:	48 8d 85 88 ed ff ff 	lea    -0x1278(%rbp),%rax
   1123b:	48 89 85 c8 f9 ff ff 	mov    %rax,-0x638(%rbp)
   11242:	48 c7 85 d0 f9 ff ff 	movq   $0x0,-0x630(%rbp)
   11249:	00 00 00 00 
   1124d:	48 8d 05 d0 1d 01 00 	lea    0x11dd0(%rip),%rax        # 23024 <g_18>
   11254:	48 89 85 d8 f9 ff ff 	mov    %rax,-0x628(%rbp)
   1125b:	48 8d 85 d0 f2 ff ff 	lea    -0xd30(%rbp),%rax
   11262:	48 05 a8 00 00 00    	add    $0xa8,%rax
   11268:	48 89 85 e0 f9 ff ff 	mov    %rax,-0x620(%rbp)
   1126f:	48 c7 85 e8 f9 ff ff 	movq   $0x0,-0x618(%rbp)
   11276:	00 00 00 00 
   1127a:	48 8d 85 84 ed ff ff 	lea    -0x127c(%rbp),%rax
   11281:	48 89 85 f0 f9 ff ff 	mov    %rax,-0x610(%rbp)
   11288:	48 c7 85 f8 f9 ff ff 	movq   $0x0,-0x608(%rbp)
   1128f:	00 00 00 00 
   11293:	48 8d 05 96 1d 01 00 	lea    0x11d96(%rip),%rax        # 23030 <g_46>
   1129a:	48 89 85 00 fa ff ff 	mov    %rax,-0x600(%rbp)
   112a1:	48 8d 85 94 ed ff ff 	lea    -0x126c(%rbp),%rax
   112a8:	48 89 85 08 fa ff ff 	mov    %rax,-0x5f8(%rbp)
   112af:	48 8d 85 84 ed ff ff 	lea    -0x127c(%rbp),%rax
   112b6:	48 89 85 10 fa ff ff 	mov    %rax,-0x5f0(%rbp)
   112bd:	48 8d 85 90 ed ff ff 	lea    -0x1270(%rbp),%rax
   112c4:	48 89 85 18 fa ff ff 	mov    %rax,-0x5e8(%rbp)
   112cb:	48 8d 85 7c ed ff ff 	lea    -0x1284(%rbp),%rax
   112d2:	48 89 85 20 fa ff ff 	mov    %rax,-0x5e0(%rbp)
   112d9:	48 8d 85 7c ed ff ff 	lea    -0x1284(%rbp),%rax
   112e0:	48 89 85 28 fa ff ff 	mov    %rax,-0x5d8(%rbp)
   112e7:	48 8d 05 36 1d 01 00 	lea    0x11d36(%rip),%rax        # 23024 <g_18>
   112ee:	48 89 85 30 fa ff ff 	mov    %rax,-0x5d0(%rbp)
   112f5:	48 8d 85 84 ed ff ff 	lea    -0x127c(%rbp),%rax
   112fc:	48 89 85 38 fa ff ff 	mov    %rax,-0x5c8(%rbp)
   11303:	48 8d 85 90 ed ff ff 	lea    -0x1270(%rbp),%rax
   1130a:	48 89 85 40 fa ff ff 	mov    %rax,-0x5c0(%rbp)
   11311:	48 8d 85 90 ed ff ff 	lea    -0x1270(%rbp),%rax
   11318:	48 89 85 48 fa ff ff 	mov    %rax,-0x5b8(%rbp)
   1131f:	48 c7 85 50 fa ff ff 	movq   $0x0,-0x5b0(%rbp)
   11326:	00 00 00 00 
   1132a:	48 8d 85 90 ed ff ff 	lea    -0x1270(%rbp),%rax
   11331:	48 89 85 58 fa ff ff 	mov    %rax,-0x5a8(%rbp)
   11338:	48 8d 85 88 ed ff ff 	lea    -0x1278(%rbp),%rax
   1133f:	48 89 85 60 fa ff ff 	mov    %rax,-0x5a0(%rbp)
   11346:	48 8d 85 84 ed ff ff 	lea    -0x127c(%rbp),%rax
   1134d:	48 89 85 68 fa ff ff 	mov    %rax,-0x598(%rbp)
   11354:	48 8d 85 84 ed ff ff 	lea    -0x127c(%rbp),%rax
   1135b:	48 89 85 70 fa ff ff 	mov    %rax,-0x590(%rbp)
   11362:	48 8d 85 88 ed ff ff 	lea    -0x1278(%rbp),%rax
   11369:	48 89 85 78 fa ff ff 	mov    %rax,-0x588(%rbp)
   11370:	48 8d 85 90 ed ff ff 	lea    -0x1270(%rbp),%rax
   11377:	48 89 85 80 fa ff ff 	mov    %rax,-0x580(%rbp)
   1137e:	48 8d 05 ab 1c 01 00 	lea    0x11cab(%rip),%rax        # 23030 <g_46>
   11385:	48 89 85 88 fa ff ff 	mov    %rax,-0x578(%rbp)
   1138c:	48 8d 85 88 ed ff ff 	lea    -0x1278(%rbp),%rax
   11393:	48 89 85 90 fa ff ff 	mov    %rax,-0x570(%rbp)
   1139a:	48 8d 85 d0 f2 ff ff 	lea    -0xd30(%rbp),%rax
   113a1:	48 83 c0 04          	add    $0x4,%rax
   113a5:	48 89 85 98 fa ff ff 	mov    %rax,-0x568(%rbp)
   113ac:	48 8d 85 88 ed ff ff 	lea    -0x1278(%rbp),%rax
   113b3:	48 89 85 a0 fa ff ff 	mov    %rax,-0x560(%rbp)
   113ba:	48 c7 85 a8 fa ff ff 	movq   $0x0,-0x558(%rbp)
   113c1:	00 00 00 00 
   113c5:	48 8d 85 7c ed ff ff 	lea    -0x1284(%rbp),%rax
   113cc:	48 89 85 b0 fa ff ff 	mov    %rax,-0x550(%rbp)
   113d3:	48 c7 85 b8 fa ff ff 	movq   $0x0,-0x548(%rbp)
   113da:	00 00 00 00 
   113de:	48 8d 85 84 ed ff ff 	lea    -0x127c(%rbp),%rax
   113e5:	48 89 85 c0 fa ff ff 	mov    %rax,-0x540(%rbp)
   113ec:	48 8d 85 84 ed ff ff 	lea    -0x127c(%rbp),%rax
   113f3:	48 89 85 c8 fa ff ff 	mov    %rax,-0x538(%rbp)
   113fa:	48 8d 85 94 ed ff ff 	lea    -0x126c(%rbp),%rax
   11401:	48 89 85 d0 fa ff ff 	mov    %rax,-0x530(%rbp)
   11408:	48 c7 85 d8 fa ff ff 	movq   $0x0,-0x528(%rbp)
   1140f:	00 00 00 00 
   11413:	48 8d 85 7c ed ff ff 	lea    -0x1284(%rbp),%rax
   1141a:	48 89 85 e0 fa ff ff 	mov    %rax,-0x520(%rbp)
   11421:	48 8d 85 d0 f2 ff ff 	lea    -0xd30(%rbp),%rax
   11428:	48 05 a8 00 00 00    	add    $0xa8,%rax
   1142e:	48 89 85 e8 fa ff ff 	mov    %rax,-0x518(%rbp)
   11435:	48 8d 85 90 ed ff ff 	lea    -0x1270(%rbp),%rax
   1143c:	48 89 85 f0 fa ff ff 	mov    %rax,-0x510(%rbp)
   11443:	48 c7 85 f8 fa ff ff 	movq   $0x0,-0x508(%rbp)
   1144a:	00 00 00 00 
   1144e:	48 8d 85 d0 f2 ff ff 	lea    -0xd30(%rbp),%rax
   11455:	48 83 c0 50          	add    $0x50,%rax
   11459:	48 89 85 00 fb ff ff 	mov    %rax,-0x500(%rbp)
   11460:	48 8d 85 88 ed ff ff 	lea    -0x1278(%rbp),%rax
   11467:	48 89 85 08 fb ff ff 	mov    %rax,-0x4f8(%rbp)
   1146e:	48 8d 85 94 ed ff ff 	lea    -0x126c(%rbp),%rax
   11475:	48 89 85 10 fb ff ff 	mov    %rax,-0x4f0(%rbp)
   1147c:	48 8d 85 7c ed ff ff 	lea    -0x1284(%rbp),%rax
   11483:	48 89 85 18 fb ff ff 	mov    %rax,-0x4e8(%rbp)
   1148a:	48 c7 85 20 fb ff ff 	movq   $0x0,-0x4e0(%rbp)
   11491:	00 00 00 00 
   11495:	48 c7 85 28 fb ff ff 	movq   $0x0,-0x4d8(%rbp)
   1149c:	00 00 00 00 
   114a0:	48 8d 85 7c ed ff ff 	lea    -0x1284(%rbp),%rax
   114a7:	48 89 85 30 fb ff ff 	mov    %rax,-0x4d0(%rbp)
   114ae:	48 8d 85 88 ed ff ff 	lea    -0x1278(%rbp),%rax
   114b5:	48 89 85 38 fb ff ff 	mov    %rax,-0x4c8(%rbp)
   114bc:	48 8d 85 94 ed ff ff 	lea    -0x126c(%rbp),%rax
   114c3:	48 89 85 40 fb ff ff 	mov    %rax,-0x4c0(%rbp)
   114ca:	48 8d 85 88 ed ff ff 	lea    -0x1278(%rbp),%rax
   114d1:	48 89 85 48 fb ff ff 	mov    %rax,-0x4b8(%rbp)
   114d8:	48 8d 85 7c ed ff ff 	lea    -0x1284(%rbp),%rax
   114df:	48 89 85 50 fb ff ff 	mov    %rax,-0x4b0(%rbp)
   114e6:	48 8d 05 43 1b 01 00 	lea    0x11b43(%rip),%rax        # 23030 <g_46>
   114ed:	48 89 85 58 fb ff ff 	mov    %rax,-0x4a8(%rbp)
   114f4:	48 8d 85 90 ed ff ff 	lea    -0x1270(%rbp),%rax
   114fb:	48 89 85 60 fb ff ff 	mov    %rax,-0x4a0(%rbp)
   11502:	48 c7 85 68 fb ff ff 	movq   $0x0,-0x498(%rbp)
   11509:	00 00 00 00 
   1150d:	48 8d 85 90 ed ff ff 	lea    -0x1270(%rbp),%rax
   11514:	48 89 85 70 fb ff ff 	mov    %rax,-0x490(%rbp)
   1151b:	48 8d 05 02 1b 01 00 	lea    0x11b02(%rip),%rax        # 23024 <g_18>
   11522:	48 89 85 78 fb ff ff 	mov    %rax,-0x488(%rbp)
   11529:	48 8d 85 94 ed ff ff 	lea    -0x126c(%rbp),%rax
   11530:	48 89 85 80 fb ff ff 	mov    %rax,-0x480(%rbp)
   11537:	48 8d 85 8c ed ff ff 	lea    -0x1274(%rbp),%rax
   1153e:	48 89 85 88 fb ff ff 	mov    %rax,-0x478(%rbp)
   11545:	48 8d 85 84 ed ff ff 	lea    -0x127c(%rbp),%rax
   1154c:	48 89 85 90 fb ff ff 	mov    %rax,-0x470(%rbp)
   11553:	48 8d 85 84 ed ff ff 	lea    -0x127c(%rbp),%rax
   1155a:	48 89 85 98 fb ff ff 	mov    %rax,-0x468(%rbp)
   11561:	48 8d 85 d0 f2 ff ff 	lea    -0xd30(%rbp),%rax
   11568:	48 83 c0 60          	add    $0x60,%rax
   1156c:	48 89 85 a0 fb ff ff 	mov    %rax,-0x460(%rbp)
   11573:	48 8d 85 90 ed ff ff 	lea    -0x1270(%rbp),%rax
   1157a:	48 89 85 a8 fb ff ff 	mov    %rax,-0x458(%rbp)
   11581:	48 8d 85 90 ed ff ff 	lea    -0x1270(%rbp),%rax
   11588:	48 89 85 b0 fb ff ff 	mov    %rax,-0x450(%rbp)
   1158f:	48 8d 85 7c ed ff ff 	lea    -0x1284(%rbp),%rax
   11596:	48 89 85 b8 fb ff ff 	mov    %rax,-0x448(%rbp)
   1159d:	48 8d 85 84 ed ff ff 	lea    -0x127c(%rbp),%rax
   115a4:	48 89 85 c0 fb ff ff 	mov    %rax,-0x440(%rbp)
   115ab:	48 8d 85 d0 f2 ff ff 	lea    -0xd30(%rbp),%rax
   115b2:	48 83 c0 04          	add    $0x4,%rax
   115b6:	48 89 85 c8 fb ff ff 	mov    %rax,-0x438(%rbp)
   115bd:	48 8d 85 7c ed ff ff 	lea    -0x1284(%rbp),%rax
   115c4:	48 89 85 d0 fb ff ff 	mov    %rax,-0x430(%rbp)
   115cb:	48 c7 85 d8 fb ff ff 	movq   $0x0,-0x428(%rbp)
   115d2:	00 00 00 00 
   115d6:	48 c7 85 e0 fb ff ff 	movq   $0x0,-0x420(%rbp)
   115dd:	00 00 00 00 
   115e1:	48 8d 85 88 ed ff ff 	lea    -0x1278(%rbp),%rax
   115e8:	48 89 85 e8 fb ff ff 	mov    %rax,-0x418(%rbp)
   115ef:	48 8d 85 94 ed ff ff 	lea    -0x126c(%rbp),%rax
   115f6:	48 89 85 f0 fb ff ff 	mov    %rax,-0x410(%rbp)
   115fd:	48 8d 85 7c ed ff ff 	lea    -0x1284(%rbp),%rax
   11604:	48 89 85 f8 fb ff ff 	mov    %rax,-0x408(%rbp)
   1160b:	48 8d 85 d0 f2 ff ff 	lea    -0xd30(%rbp),%rax
   11612:	48 83 c0 04          	add    $0x4,%rax
   11616:	48 89 85 00 fc ff ff 	mov    %rax,-0x400(%rbp)
   1161d:	48 8d 85 84 ed ff ff 	lea    -0x127c(%rbp),%rax
   11624:	48 89 85 08 fc ff ff 	mov    %rax,-0x3f8(%rbp)
   1162b:	48 8d 85 d0 f2 ff ff 	lea    -0xd30(%rbp),%rax
   11632:	48 83 c0 30          	add    $0x30,%rax
   11636:	48 89 85 10 fc ff ff 	mov    %rax,-0x3f0(%rbp)
   1163d:	48 8d 05 ec 19 01 00 	lea    0x119ec(%rip),%rax        # 23030 <g_46>
   11644:	48 89 85 18 fc ff ff 	mov    %rax,-0x3e8(%rbp)
   1164b:	48 8d 85 84 ed ff ff 	lea    -0x127c(%rbp),%rax
   11652:	48 89 85 20 fc ff ff 	mov    %rax,-0x3e0(%rbp)
   11659:	48 8d 85 7c ed ff ff 	lea    -0x1284(%rbp),%rax
   11660:	48 89 85 28 fc ff ff 	mov    %rax,-0x3d8(%rbp)
   11667:	48 8d 85 d0 f2 ff ff 	lea    -0xd30(%rbp),%rax
   1166e:	48 83 c0 30          	add    $0x30,%rax
   11672:	48 89 85 30 fc ff ff 	mov    %rax,-0x3d0(%rbp)
   11679:	48 8d 85 84 ed ff ff 	lea    -0x127c(%rbp),%rax
   11680:	48 89 85 38 fc ff ff 	mov    %rax,-0x3c8(%rbp)
   11687:	48 8d 85 94 ed ff ff 	lea    -0x126c(%rbp),%rax
   1168e:	48 89 85 40 fc ff ff 	mov    %rax,-0x3c0(%rbp)
   11695:	48 8d 85 84 ed ff ff 	lea    -0x127c(%rbp),%rax
   1169c:	48 89 85 48 fc ff ff 	mov    %rax,-0x3b8(%rbp)
   116a3:	48 8d 85 84 ed ff ff 	lea    -0x127c(%rbp),%rax
   116aa:	48 89 85 50 fc ff ff 	mov    %rax,-0x3b0(%rbp)
   116b1:	48 8d 05 78 19 01 00 	lea    0x11978(%rip),%rax        # 23030 <g_46>
   116b8:	48 89 85 58 fc ff ff 	mov    %rax,-0x3a8(%rbp)
   116bf:	48 8d 85 90 ed ff ff 	lea    -0x1270(%rbp),%rax
   116c6:	48 89 85 60 fc ff ff 	mov    %rax,-0x3a0(%rbp)
   116cd:	48 c7 85 68 fc ff ff 	movq   $0x0,-0x398(%rbp)
   116d4:	00 00 00 00 
   116d8:	48 8d 85 94 ed ff ff 	lea    -0x126c(%rbp),%rax
   116df:	48 89 85 70 fc ff ff 	mov    %rax,-0x390(%rbp)
   116e6:	48 8d 85 7c ed ff ff 	lea    -0x1284(%rbp),%rax
   116ed:	48 89 85 78 fc ff ff 	mov    %rax,-0x388(%rbp)
   116f4:	48 8d 85 90 ed ff ff 	lea    -0x1270(%rbp),%rax
   116fb:	48 89 85 80 fc ff ff 	mov    %rax,-0x380(%rbp)
   11702:	48 c7 85 88 fc ff ff 	movq   $0x0,-0x378(%rbp)
   11709:	00 00 00 00 
   1170d:	48 8d 85 d0 f2 ff ff 	lea    -0xd30(%rbp),%rax
   11714:	48 83 c0 30          	add    $0x30,%rax
   11718:	48 89 85 90 fc ff ff 	mov    %rax,-0x370(%rbp)
   1171f:	48 8d 85 90 ed ff ff 	lea    -0x1270(%rbp),%rax
   11726:	48 89 85 98 fc ff ff 	mov    %rax,-0x368(%rbp)
   1172d:	48 8d 85 88 ed ff ff 	lea    -0x1278(%rbp),%rax
   11734:	48 89 85 a0 fc ff ff 	mov    %rax,-0x360(%rbp)
   1173b:	48 8d 85 88 ed ff ff 	lea    -0x1278(%rbp),%rax
   11742:	48 89 85 a8 fc ff ff 	mov    %rax,-0x358(%rbp)
   11749:	48 8d 85 88 ed ff ff 	lea    -0x1278(%rbp),%rax
   11750:	48 89 85 b0 fc ff ff 	mov    %rax,-0x350(%rbp)
   11757:	48 8d 85 90 ed ff ff 	lea    -0x1270(%rbp),%rax
   1175e:	48 89 85 b8 fc ff ff 	mov    %rax,-0x348(%rbp)
   11765:	48 8d 85 d0 f2 ff ff 	lea    -0xd30(%rbp),%rax
   1176c:	48 83 c0 04          	add    $0x4,%rax
   11770:	48 89 85 c0 fc ff ff 	mov    %rax,-0x340(%rbp)
   11777:	48 8d 85 90 ed ff ff 	lea    -0x1270(%rbp),%rax
   1177e:	48 89 85 c8 fc ff ff 	mov    %rax,-0x338(%rbp)
   11785:	48 8d 85 d0 f2 ff ff 	lea    -0xd30(%rbp),%rax
   1178c:	48 83 c0 04          	add    $0x4,%rax
   11790:	48 89 85 d0 fc ff ff 	mov    %rax,-0x330(%rbp)
   11797:	48 8d 85 d0 f2 ff ff 	lea    -0xd30(%rbp),%rax
   1179e:	48 05 a8 00 00 00    	add    $0xa8,%rax
   117a4:	48 89 85 d8 fc ff ff 	mov    %rax,-0x328(%rbp)
   117ab:	48 8d 85 84 ed ff ff 	lea    -0x127c(%rbp),%rax
   117b2:	48 89 85 e0 fc ff ff 	mov    %rax,-0x320(%rbp)
   117b9:	48 8d 85 7c ed ff ff 	lea    -0x1284(%rbp),%rax
   117c0:	48 89 85 e8 fc ff ff 	mov    %rax,-0x318(%rbp)
   117c7:	48 c7 85 f0 fc ff ff 	movq   $0x0,-0x310(%rbp)
   117ce:	00 00 00 00 
   117d2:	48 8d 85 d0 f2 ff ff 	lea    -0xd30(%rbp),%rax
   117d9:	48 83 c0 04          	add    $0x4,%rax
   117dd:	48 89 85 f8 fc ff ff 	mov    %rax,-0x308(%rbp)
   117e4:	48 8d 85 d0 f2 ff ff 	lea    -0xd30(%rbp),%rax
   117eb:	48 83 c0 60          	add    $0x60,%rax
   117ef:	48 89 85 00 fd ff ff 	mov    %rax,-0x300(%rbp)
   117f6:	48 c7 85 08 fd ff ff 	movq   $0x0,-0x2f8(%rbp)
   117fd:	00 00 00 00 
   11801:	48 c7 85 10 fd ff ff 	movq   $0x0,-0x2f0(%rbp)
   11808:	00 00 00 00 
   1180c:	48 8d 85 94 ed ff ff 	lea    -0x126c(%rbp),%rax
   11813:	48 89 85 18 fd ff ff 	mov    %rax,-0x2e8(%rbp)
   1181a:	48 8d 85 88 ed ff ff 	lea    -0x1278(%rbp),%rax
   11821:	48 89 85 20 fd ff ff 	mov    %rax,-0x2e0(%rbp)
   11828:	48 8d 85 d0 f2 ff ff 	lea    -0xd30(%rbp),%rax
   1182f:	48 83 c0 04          	add    $0x4,%rax
   11833:	48 89 85 28 fd ff ff 	mov    %rax,-0x2d8(%rbp)
   1183a:	48 8d 85 88 ed ff ff 	lea    -0x1278(%rbp),%rax
   11841:	48 89 85 30 fd ff ff 	mov    %rax,-0x2d0(%rbp)
   11848:	48 8d 05 e1 17 01 00 	lea    0x117e1(%rip),%rax        # 23030 <g_46>
   1184f:	48 89 85 38 fd ff ff 	mov    %rax,-0x2c8(%rbp)
   11856:	48 8d 85 94 ed ff ff 	lea    -0x126c(%rbp),%rax
   1185d:	48 89 85 40 fd ff ff 	mov    %rax,-0x2c0(%rbp)
   11864:	48 8d 85 90 ed ff ff 	lea    -0x1270(%rbp),%rax
   1186b:	48 89 85 48 fd ff ff 	mov    %rax,-0x2b8(%rbp)
   11872:	48 c7 85 50 fd ff ff 	movq   $0x0,-0x2b0(%rbp)
   11879:	00 00 00 00 
   1187d:	48 8d 85 7c ed ff ff 	lea    -0x1284(%rbp),%rax
   11884:	48 89 85 58 fd ff ff 	mov    %rax,-0x2a8(%rbp)
   1188b:	48 8d 85 94 ed ff ff 	lea    -0x126c(%rbp),%rax
   11892:	48 89 85 60 fd ff ff 	mov    %rax,-0x2a0(%rbp)
   11899:	48 8d 85 d0 f2 ff ff 	lea    -0xd30(%rbp),%rax
   118a0:	48 83 c0 04          	add    $0x4,%rax
   118a4:	48 89 85 68 fd ff ff 	mov    %rax,-0x298(%rbp)
   118ab:	48 8d 05 7e 17 01 00 	lea    0x1177e(%rip),%rax        # 23030 <g_46>
   118b2:	48 89 85 70 fd ff ff 	mov    %rax,-0x290(%rbp)
   118b9:	48 8d 85 d0 f2 ff ff 	lea    -0xd30(%rbp),%rax
   118c0:	48 83 c0 04          	add    $0x4,%rax
   118c4:	48 89 85 78 fd ff ff 	mov    %rax,-0x288(%rbp)
   118cb:	48 c7 85 80 fd ff ff 	movq   $0x0,-0x280(%rbp)
   118d2:	00 00 00 00 
   118d6:	48 8d 85 84 ed ff ff 	lea    -0x127c(%rbp),%rax
   118dd:	48 89 85 88 fd ff ff 	mov    %rax,-0x278(%rbp)
   118e4:	48 8d 85 d0 f2 ff ff 	lea    -0xd30(%rbp),%rax
   118eb:	48 83 c0 04          	add    $0x4,%rax
   118ef:	48 89 85 90 fd ff ff 	mov    %rax,-0x270(%rbp)
   118f6:	48 8d 85 d0 f2 ff ff 	lea    -0xd30(%rbp),%rax
   118fd:	48 83 c0 30          	add    $0x30,%rax
   11901:	48 89 85 98 fd ff ff 	mov    %rax,-0x268(%rbp)
   11908:	48 8d 05 21 17 01 00 	lea    0x11721(%rip),%rax        # 23030 <g_46>
   1190f:	48 89 85 a0 fd ff ff 	mov    %rax,-0x260(%rbp)
   11916:	48 8d 05 07 17 01 00 	lea    0x11707(%rip),%rax        # 23024 <g_18>
   1191d:	48 89 85 a8 fd ff ff 	mov    %rax,-0x258(%rbp)
   11924:	48 8d 85 d0 f2 ff ff 	lea    -0xd30(%rbp),%rax
   1192b:	48 83 c0 30          	add    $0x30,%rax
   1192f:	48 89 85 b0 fd ff ff 	mov    %rax,-0x250(%rbp)
   11936:	48 8d 85 d0 f2 ff ff 	lea    -0xd30(%rbp),%rax
   1193d:	48 83 c0 44          	add    $0x44,%rax
   11941:	48 89 85 b8 fd ff ff 	mov    %rax,-0x248(%rbp)
   11948:	48 8d 85 84 ed ff ff 	lea    -0x127c(%rbp),%rax
   1194f:	48 89 85 c0 fd ff ff 	mov    %rax,-0x240(%rbp)
   11956:	48 8d 85 88 ed ff ff 	lea    -0x1278(%rbp),%rax
   1195d:	48 89 85 c8 fd ff ff 	mov    %rax,-0x238(%rbp)
   11964:	48 8d 85 84 ed ff ff 	lea    -0x127c(%rbp),%rax
   1196b:	48 89 85 d0 fd ff ff 	mov    %rax,-0x230(%rbp)
   11972:	48 8d 85 84 ed ff ff 	lea    -0x127c(%rbp),%rax
   11979:	48 89 85 d8 fd ff ff 	mov    %rax,-0x228(%rbp)
   11980:	48 8d 85 7c ed ff ff 	lea    -0x1284(%rbp),%rax
   11987:	48 89 85 e0 fd ff ff 	mov    %rax,-0x220(%rbp)
   1198e:	48 c7 85 e8 fd ff ff 	movq   $0x0,-0x218(%rbp)
   11995:	00 00 00 00 
   11999:	48 8d 85 7c ed ff ff 	lea    -0x1284(%rbp),%rax
   119a0:	48 89 85 f0 fd ff ff 	mov    %rax,-0x210(%rbp)
   119a7:	48 8d 85 84 ed ff ff 	lea    -0x127c(%rbp),%rax
   119ae:	48 89 85 f8 fd ff ff 	mov    %rax,-0x208(%rbp)
   119b5:	48 8d 05 68 16 01 00 	lea    0x11668(%rip),%rax        # 23024 <g_18>
   119bc:	48 89 85 00 fe ff ff 	mov    %rax,-0x200(%rbp)
   119c3:	48 8d 85 d0 f2 ff ff 	lea    -0xd30(%rbp),%rax
   119ca:	48 83 c0 04          	add    $0x4,%rax
   119ce:	48 89 85 08 fe ff ff 	mov    %rax,-0x1f8(%rbp)
   119d5:	48 8d 85 7c ed ff ff 	lea    -0x1284(%rbp),%rax
   119dc:	48 89 85 10 fe ff ff 	mov    %rax,-0x1f0(%rbp)
   119e3:	48 8d 85 88 ed ff ff 	lea    -0x1278(%rbp),%rax
   119ea:	48 89 85 18 fe ff ff 	mov    %rax,-0x1e8(%rbp)
   119f1:	48 8d 85 d0 f2 ff ff 	lea    -0xd30(%rbp),%rax
   119f8:	48 05 a8 00 00 00    	add    $0xa8,%rax
   119fe:	48 89 85 20 fe ff ff 	mov    %rax,-0x1e0(%rbp)
   11a05:	48 8d 85 90 ed ff ff 	lea    -0x1270(%rbp),%rax
   11a0c:	48 89 85 28 fe ff ff 	mov    %rax,-0x1d8(%rbp)
   11a13:	48 8d 85 84 ed ff ff 	lea    -0x127c(%rbp),%rax
   11a1a:	48 89 85 30 fe ff ff 	mov    %rax,-0x1d0(%rbp)
   11a21:	48 8d 85 84 ed ff ff 	lea    -0x127c(%rbp),%rax
   11a28:	48 89 85 38 fe ff ff 	mov    %rax,-0x1c8(%rbp)
   11a2f:	48 8d 85 7c ed ff ff 	lea    -0x1284(%rbp),%rax
   11a36:	48 89 85 40 fe ff ff 	mov    %rax,-0x1c0(%rbp)
   11a3d:	48 c7 85 48 fe ff ff 	movq   $0x0,-0x1b8(%rbp)
   11a44:	00 00 00 00 
   11a48:	48 c7 85 50 fe ff ff 	movq   $0x0,-0x1b0(%rbp)
   11a4f:	00 00 00 00 
   11a53:	48 8d 05 d6 15 01 00 	lea    0x115d6(%rip),%rax        # 23030 <g_46>
   11a5a:	48 89 85 58 fe ff ff 	mov    %rax,-0x1a8(%rbp)
   11a61:	48 c7 85 60 fe ff ff 	movq   $0x0,-0x1a0(%rbp)
   11a68:	00 00 00 00 
   11a6c:	48 8d 85 88 ed ff ff 	lea    -0x1278(%rbp),%rax
   11a73:	48 89 85 68 fe ff ff 	mov    %rax,-0x198(%rbp)
   11a7a:	48 8d 85 90 ed ff ff 	lea    -0x1270(%rbp),%rax
   11a81:	48 89 85 70 fe ff ff 	mov    %rax,-0x190(%rbp)
   11a88:	48 8d 85 d0 f2 ff ff 	lea    -0xd30(%rbp),%rax
   11a8f:	48 05 b4 00 00 00    	add    $0xb4,%rax
   11a95:	48 89 85 78 fe ff ff 	mov    %rax,-0x188(%rbp)
   11a9c:	48 8d 85 94 ed ff ff 	lea    -0x126c(%rbp),%rax
   11aa3:	48 89 85 80 fe ff ff 	mov    %rax,-0x180(%rbp)
   11aaa:	48 8d 85 94 ed ff ff 	lea    -0x126c(%rbp),%rax
   11ab1:	48 89 85 88 fe ff ff 	mov    %rax,-0x178(%rbp)
   11ab8:	48 8d 85 7c ed ff ff 	lea    -0x1284(%rbp),%rax
   11abf:	48 89 85 90 fe ff ff 	mov    %rax,-0x170(%rbp)
   11ac6:	48 8d 85 84 ed ff ff 	lea    -0x127c(%rbp),%rax
   11acd:	48 89 85 98 fe ff ff 	mov    %rax,-0x168(%rbp)
   11ad4:	48 8d 05 55 15 01 00 	lea    0x11555(%rip),%rax        # 23030 <g_46>
   11adb:	48 89 85 a0 fe ff ff 	mov    %rax,-0x160(%rbp)
   11ae2:	48 8d 05 3b 15 01 00 	lea    0x1153b(%rip),%rax        # 23024 <g_18>
   11ae9:	48 89 85 a8 fe ff ff 	mov    %rax,-0x158(%rbp)
   11af0:	48 8d 85 90 ed ff ff 	lea    -0x1270(%rbp),%rax
   11af7:	48 89 85 b0 fe ff ff 	mov    %rax,-0x150(%rbp)
   11afe:	48 8d 85 88 ed ff ff 	lea    -0x1278(%rbp),%rax
   11b05:	48 89 85 b8 fe ff ff 	mov    %rax,-0x148(%rbp)
   11b0c:	48 8d 85 94 ed ff ff 	lea    -0x126c(%rbp),%rax
   11b13:	48 89 85 c0 fe ff ff 	mov    %rax,-0x140(%rbp)
   11b1a:	48 c7 85 c8 fe ff ff 	movq   $0x0,-0x138(%rbp)
   11b21:	00 00 00 00 
   11b25:	48 8d 85 84 ed ff ff 	lea    -0x127c(%rbp),%rax
   11b2c:	48 89 85 d0 fe ff ff 	mov    %rax,-0x130(%rbp)
   11b33:	48 8d 85 90 ed ff ff 	lea    -0x1270(%rbp),%rax
   11b3a:	48 89 85 d8 fe ff ff 	mov    %rax,-0x128(%rbp)
   11b41:	48 8d 05 e8 14 01 00 	lea    0x114e8(%rip),%rax        # 23030 <g_46>
   11b48:	48 89 85 e0 fe ff ff 	mov    %rax,-0x120(%rbp)
   11b4f:	48 8d 85 88 ed ff ff 	lea    -0x1278(%rbp),%rax
   11b56:	48 89 85 e8 fe ff ff 	mov    %rax,-0x118(%rbp)
   11b5d:	48 8d 85 d0 f2 ff ff 	lea    -0xd30(%rbp),%rax
   11b64:	48 05 b4 00 00 00    	add    $0xb4,%rax
   11b6a:	48 89 85 f0 fe ff ff 	mov    %rax,-0x110(%rbp)
   11b71:	48 8d 85 88 ed ff ff 	lea    -0x1278(%rbp),%rax
   11b78:	48 89 85 f8 fe ff ff 	mov    %rax,-0x108(%rbp)
   11b7f:	48 8d 85 88 ed ff ff 	lea    -0x1278(%rbp),%rax
   11b86:	48 89 85 00 ff ff ff 	mov    %rax,-0x100(%rbp)
   11b8d:	48 8d 85 d0 f2 ff ff 	lea    -0xd30(%rbp),%rax
   11b94:	48 83 c0 04          	add    $0x4,%rax
   11b98:	48 89 85 08 ff ff ff 	mov    %rax,-0xf8(%rbp)
   11b9f:	48 8d 85 d0 f2 ff ff 	lea    -0xd30(%rbp),%rax
   11ba6:	48 83 c0 04          	add    $0x4,%rax
   11baa:	48 89 85 10 ff ff ff 	mov    %rax,-0xf0(%rbp)
   11bb1:	48 8d 05 78 14 01 00 	lea    0x11478(%rip),%rax        # 23030 <g_46>
   11bb8:	48 89 85 18 ff ff ff 	mov    %rax,-0xe8(%rbp)
   11bbf:	48 8d 05 6a 14 01 00 	lea    0x1146a(%rip),%rax        # 23030 <g_46>
   11bc6:	48 89 85 20 ff ff ff 	mov    %rax,-0xe0(%rbp)
   11bcd:	48 c7 85 28 ff ff ff 	movq   $0x0,-0xd8(%rbp)
   11bd4:	00 00 00 00 
   11bd8:	48 c7 85 30 ff ff ff 	movq   $0x0,-0xd0(%rbp)
   11bdf:	00 00 00 00 
   11be3:	48 8d 05 3a 14 01 00 	lea    0x1143a(%rip),%rax        # 23024 <g_18>
   11bea:	48 89 85 38 ff ff ff 	mov    %rax,-0xc8(%rbp)
   11bf1:	48 8d 85 94 ed ff ff 	lea    -0x126c(%rbp),%rax
   11bf8:	48 89 85 40 ff ff ff 	mov    %rax,-0xc0(%rbp)
   11bff:	48 8d 05 2a 14 01 00 	lea    0x1142a(%rip),%rax        # 23030 <g_46>
   11c06:	48 89 85 48 ff ff ff 	mov    %rax,-0xb8(%rbp)
   11c0d:	48 8d 85 d0 f2 ff ff 	lea    -0xd30(%rbp),%rax
   11c14:	48 83 c0 04          	add    $0x4,%rax
   11c18:	48 89 85 50 ff ff ff 	mov    %rax,-0xb0(%rbp)
   11c1f:	48 8d 85 d0 f2 ff ff 	lea    -0xd30(%rbp),%rax
   11c26:	48 83 c0 04          	add    $0x4,%rax
   11c2a:	48 89 85 58 ff ff ff 	mov    %rax,-0xa8(%rbp)
   11c31:	48 8d 85 d0 f2 ff ff 	lea    -0xd30(%rbp),%rax
   11c38:	48 83 c0 04          	add    $0x4,%rax
   11c3c:	48 89 85 60 ff ff ff 	mov    %rax,-0xa0(%rbp)
   11c43:	48 8d 05 da 13 01 00 	lea    0x113da(%rip),%rax        # 23024 <g_18>
   11c4a:	48 89 85 68 ff ff ff 	mov    %rax,-0x98(%rbp)
   11c51:	48 8d 85 7c ed ff ff 	lea    -0x1284(%rbp),%rax
   11c58:	48 89 85 70 ff ff ff 	mov    %rax,-0x90(%rbp)
   11c5f:	48 8d 85 84 ed ff ff 	lea    -0x127c(%rbp),%rax
   11c66:	48 89 85 78 ff ff ff 	mov    %rax,-0x88(%rbp)
   11c6d:	48 8d 85 d0 f2 ff ff 	lea    -0xd30(%rbp),%rax
   11c74:	48 83 c0 60          	add    $0x60,%rax
   11c78:	48 89 45 80          	mov    %rax,-0x80(%rbp)
   11c7c:	48 8d 85 94 ed ff ff 	lea    -0x126c(%rbp),%rax
   11c83:	48 89 45 88          	mov    %rax,-0x78(%rbp)
   11c87:	48 8d 85 d0 f2 ff ff 	lea    -0xd30(%rbp),%rax
   11c8e:	48 83 c0 04          	add    $0x4,%rax
   11c92:	48 89 45 90          	mov    %rax,-0x70(%rbp)
   11c96:	48 8d 85 84 ed ff ff 	lea    -0x127c(%rbp),%rax
   11c9d:	48 89 45 98          	mov    %rax,-0x68(%rbp)
   11ca1:	48 8d 85 90 ed ff ff 	lea    -0x1270(%rbp),%rax
   11ca8:	48 89 45 a0          	mov    %rax,-0x60(%rbp)
   11cac:	48 8d 85 d0 f2 ff ff 	lea    -0xd30(%rbp),%rax
   11cb3:	48 05 a8 00 00 00    	add    $0xa8,%rax
   11cb9:	48 89 45 a8          	mov    %rax,-0x58(%rbp)
   11cbd:	48 8d 85 94 ed ff ff 	lea    -0x126c(%rbp),%rax
   11cc4:	48 89 45 b0          	mov    %rax,-0x50(%rbp)
   11cc8:	48 8d 85 90 ed ff ff 	lea    -0x1270(%rbp),%rax
   11ccf:	48 89 45 b8          	mov    %rax,-0x48(%rbp)
   11cd3:	0f b7 85 70 ed ff ff 	movzwl -0x1290(%rbp),%eax
   11cda:	83 e8 01             	sub    $0x1,%eax
   11cdd:	66 89 85 70 ed ff ff 	mov    %ax,-0x1290(%rbp)
   11ce4:	e9 af 13 00 00       	jmpq   13098 <func_12+0x57c9>
   11ce9:	48 8d 05 00 45 01 00 	lea    0x14500(%rip),%rax        # 261f0 <g_2012>
   11cf0:	48 89 85 a0 ef ff ff 	mov    %rax,-0x1060(%rbp)
   11cf7:	c7 85 98 ed ff ff d6 	movl   $0x8400a0d6,-0x1268(%rbp)
   11cfe:	a0 00 84 
   11d01:	48 c7 85 a8 ef ff ff 	movq   $0x0,-0x1058(%rbp)
   11d08:	00 00 00 00 
   11d0c:	c7 85 9c ed ff ff a4 	movl   $0x70c888a4,-0x1264(%rbp)
   11d13:	88 c8 70 
   11d16:	c7 85 a0 ed ff ff fe 	movl   $0xfffffffe,-0x1260(%rbp)
   11d1d:	ff ff ff 
   11d20:	c6 85 69 ed ff ff 0f 	movb   $0xf,-0x1297(%rbp)
   11d27:	c7 85 14 ee ff ff 00 	movl   $0x0,-0x11ec(%rbp)
   11d2e:	00 00 00 
   11d31:	c7 85 18 ee ff ff db 	movl   $0xd6a56bdb,-0x11e8(%rbp)
   11d38:	6b a5 d6 
   11d3b:	c7 85 1c ee ff ff eb 	movl   $0xb3b6c5eb,-0x11e4(%rbp)
   11d42:	c5 b6 b3 
   11d45:	c7 85 20 ee ff ff ff 	movl   $0xffffffff,-0x11e0(%rbp)
   11d4c:	ff ff ff 
   11d4f:	c7 85 a8 ed ff ff 00 	movl   $0x0,-0x1258(%rbp)
   11d56:	00 00 00 
   11d59:	eb 1a                	jmp    11d75 <func_12+0x44a6>
   11d5b:	8b 85 a8 ed ff ff    	mov    -0x1258(%rbp),%eax
   11d61:	48 98                	cltq   
   11d63:	c7 84 85 30 f2 ff ff 	movl   $0x544535dc,-0xdd0(%rbp,%rax,4)
   11d6a:	dc 35 45 54 
   11d6e:	83 85 a8 ed ff ff 01 	addl   $0x1,-0x1258(%rbp)
   11d75:	83 bd a8 ed ff ff 01 	cmpl   $0x1,-0x1258(%rbp)
   11d7c:	7e dd                	jle    11d5b <func_12+0x448c>
   11d7e:	48 8b 15 6b 44 01 00 	mov    0x1446b(%rip),%rdx        # 261f0 <g_2012>
   11d85:	48 8b 85 a0 ef ff ff 	mov    -0x1060(%rbp),%rax
   11d8c:	48 89 10             	mov    %rdx,(%rax)
   11d8f:	48 8b 85 a0 ef ff ff 	mov    -0x1060(%rbp),%rax
   11d96:	48 8b 10             	mov    (%rax),%rdx
   11d99:	48 8d 85 60 ee ff ff 	lea    -0x11a0(%rbp),%rax
   11da0:	48 39 c2             	cmp    %rax,%rdx
   11da3:	0f 85 da 01 00 00    	jne    11f83 <func_12+0x46b4>
   11da9:	48 b8 40 c4 d6 50 10 	movabs $0x859e0d1050d6c440,%rax
   11db0:	0d 9e 85 
   11db3:	48 89 85 f0 f7 ff ff 	mov    %rax,-0x810(%rbp)
   11dba:	48 bb a6 c7 b5 75 72 	movabs $0x68883b7275b5c7a6,%rbx
   11dc1:	3b 88 68 
   11dc4:	48 89 9d f8 f7 ff ff 	mov    %rbx,-0x808(%rbp)
   11dcb:	48 89 85 00 f8 ff ff 	mov    %rax,-0x800(%rbp)
   11dd2:	48 c7 85 08 f8 ff ff 	movq   $0xffffffffffffffff,-0x7f8(%rbp)
   11dd9:	ff ff ff ff 
   11ddd:	48 c7 85 10 f8 ff ff 	movq   $0x0,-0x7f0(%rbp)
   11de4:	00 00 00 00 
   11de8:	48 c7 85 18 f8 ff ff 	movq   $0xffffffffffffffff,-0x7e8(%rbp)
   11def:	ff ff ff ff 
   11df3:	48 89 85 20 f8 ff ff 	mov    %rax,-0x7e0(%rbp)
   11dfa:	48 89 9d 28 f8 ff ff 	mov    %rbx,-0x7d8(%rbp)
   11e01:	48 89 85 30 f8 ff ff 	mov    %rax,-0x7d0(%rbp)
   11e08:	48 c7 85 38 f8 ff ff 	movq   $0xffffffffffffffff,-0x7c8(%rbp)
   11e0f:	ff ff ff ff 
   11e13:	48 c7 85 40 f8 ff ff 	movq   $0x0,-0x7c0(%rbp)
   11e1a:	00 00 00 00 
   11e1e:	48 c7 85 48 f8 ff ff 	movq   $0xffffffffffffffff,-0x7b8(%rbp)
   11e25:	ff ff ff ff 
   11e29:	48 89 85 50 f8 ff ff 	mov    %rax,-0x7b0(%rbp)
   11e30:	48 89 9d 58 f8 ff ff 	mov    %rbx,-0x7a8(%rbp)
   11e37:	48 89 85 60 f8 ff ff 	mov    %rax,-0x7a0(%rbp)
   11e3e:	48 c7 85 68 f8 ff ff 	movq   $0xffffffffffffffff,-0x798(%rbp)
   11e45:	ff ff ff ff 
   11e49:	48 c7 85 70 f8 ff ff 	movq   $0x0,-0x790(%rbp)
   11e50:	00 00 00 00 
   11e54:	48 c7 85 78 f8 ff ff 	movq   $0xffffffffffffffff,-0x788(%rbp)
   11e5b:	ff ff ff ff 
   11e5f:	48 89 85 80 f8 ff ff 	mov    %rax,-0x780(%rbp)
   11e66:	48 89 9d 88 f8 ff ff 	mov    %rbx,-0x778(%rbp)
   11e6d:	48 89 85 90 f8 ff ff 	mov    %rax,-0x770(%rbp)
   11e74:	48 c7 85 98 f8 ff ff 	movq   $0xffffffffffffffff,-0x768(%rbp)
   11e7b:	ff ff ff ff 
   11e7f:	48 c7 85 a0 f8 ff ff 	movq   $0x0,-0x760(%rbp)
   11e86:	00 00 00 00 
   11e8a:	48 c7 85 a8 f8 ff ff 	movq   $0xffffffffffffffff,-0x758(%rbp)
   11e91:	ff ff ff ff 
   11e95:	48 89 85 b0 f8 ff ff 	mov    %rax,-0x750(%rbp)
   11e9c:	48 89 9d b8 f8 ff ff 	mov    %rbx,-0x748(%rbp)
   11ea3:	48 89 85 c0 f8 ff ff 	mov    %rax,-0x740(%rbp)
   11eaa:	48 c7 85 c8 f8 ff ff 	movq   $0xffffffffffffffff,-0x738(%rbp)
   11eb1:	ff ff ff ff 
   11eb5:	48 c7 85 d0 f8 ff ff 	movq   $0x0,-0x730(%rbp)
   11ebc:	00 00 00 00 
   11ec0:	48 c7 85 d8 f8 ff ff 	movq   $0xffffffffffffffff,-0x728(%rbp)
   11ec7:	ff ff ff ff 
   11ecb:	48 8b 85 48 ed ff ff 	mov    -0x12b8(%rbp),%rax
   11ed2:	0f b6 00             	movzbl (%rax),%eax
   11ed5:	0f b6 d8             	movzbl %al,%ebx
   11ed8:	48 8b 05 d9 33 01 00 	mov    0x133d9(%rip),%rax        # 252b8 <g_443>
   11edf:	0f b7 00             	movzwl (%rax),%eax
   11ee2:	44 0f bf e0          	movswl %ax,%r12d
   11ee6:	be 01 00 00 00       	mov    $0x1,%esi
   11eeb:	bf 01 00 00 00       	mov    $0x1,%edi
   11ef0:	e8 2a 6e ff ff       	callq  8d1f <safe_sub_func_uint16_t_u_u>
   11ef5:	44 0f b6 e8          	movzbl %al,%r13d
   11ef9:	48 8b 05 00 2c 01 00 	mov    0x12c00(%rip),%rax        # 24b00 <g_135>
   11f00:	48 8b 00             	mov    (%rax),%rax
   11f03:	c7 00 61 cc 1a d4    	movl   $0xd41acc61,(%rax)
   11f09:	be 61 cc 1a d4       	mov    $0xd41acc61,%esi
   11f0e:	bf 01 00 00 00       	mov    $0x1,%edi
   11f13:	e8 0d 70 ff ff       	callq  8f25 <safe_div_func_uint32_t_u_u>
   11f18:	0f b6 c0             	movzbl %al,%eax
   11f1b:	44 89 ee             	mov    %r13d,%esi
   11f1e:	89 c7                	mov    %eax,%edi
   11f20:	e8 b6 6c ff ff       	callq  8bdb <safe_div_func_uint8_t_u_u>
   11f25:	66 83 bd 5c ed ff ff 	cmpw   $0x0,-0x12a4(%rbp)
   11f2c:	00 
   11f2d:	8b 85 98 ed ff ff    	mov    -0x1268(%rbp),%eax
   11f33:	83 f8 01             	cmp    $0x1,%eax
   11f36:	0f b7 85 58 ed ff ff 	movzwl -0x12a8(%rbp),%eax
   11f3d:	98                   	cwtl   
   11f3e:	44 89 e6             	mov    %r12d,%esi
   11f41:	89 c7                	mov    %eax,%edi
   11f43:	e8 ad 64 ff ff       	callq  83f5 <safe_mul_func_int16_t_s_s>
   11f48:	0f b6 c0             	movzbl %al,%eax
   11f4b:	89 de                	mov    %ebx,%esi
   11f4d:	89 c7                	mov    %eax,%edi
   11f4f:	e8 87 6c ff ff       	callq  8bdb <safe_div_func_uint8_t_u_u>
   11f54:	0f b6 c0             	movzbl %al,%eax
   11f57:	66 39 85 58 ed ff ff 	cmp    %ax,-0x12a8(%rbp)
   11f5e:	0f 93 c0             	setae  %al
   11f61:	0f b6 d0             	movzbl %al,%edx
   11f64:	48 8b 85 b0 ee ff ff 	mov    -0x1150(%rbp),%rax
   11f6b:	8b 00                	mov    (%rax),%eax
   11f6d:	39 c2                	cmp    %eax,%edx
   11f6f:	0f 9e c0             	setle  %al
   11f72:	0f b6 d0             	movzbl %al,%edx
   11f75:	48 8b 85 b0 ee ff ff 	mov    -0x1150(%rbp),%rax
   11f7c:	89 10                	mov    %edx,(%rax)
   11f7e:	e9 15 11 00 00       	jmpq   13098 <func_12+0x57c9>
   11f83:	66 c7 85 78 ed ff ff 	movw   $0x7dda,-0x1288(%rbp)
   11f8a:	da 7d 
   11f8c:	48 8d 05 b5 46 01 00 	lea    0x146b5(%rip),%rax        # 26648 <g_504>
   11f93:	48 89 85 90 f3 ff ff 	mov    %rax,-0xc70(%rbp)
   11f9a:	48 8d 05 a7 46 01 00 	lea    0x146a7(%rip),%rax        # 26648 <g_504>
   11fa1:	48 89 85 98 f3 ff ff 	mov    %rax,-0xc68(%rbp)
   11fa8:	48 8d 05 99 46 01 00 	lea    0x14699(%rip),%rax        # 26648 <g_504>
   11faf:	48 89 85 a0 f3 ff ff 	mov    %rax,-0xc60(%rbp)
   11fb6:	48 8d 05 8b 46 01 00 	lea    0x1468b(%rip),%rax        # 26648 <g_504>
   11fbd:	48 89 85 a8 f3 ff ff 	mov    %rax,-0xc58(%rbp)
   11fc4:	48 8d 05 7d 46 01 00 	lea    0x1467d(%rip),%rax        # 26648 <g_504>
   11fcb:	48 89 85 b0 f3 ff ff 	mov    %rax,-0xc50(%rbp)
   11fd2:	48 8d 05 6f 46 01 00 	lea    0x1466f(%rip),%rax        # 26648 <g_504>
   11fd9:	48 89 85 b8 f3 ff ff 	mov    %rax,-0xc48(%rbp)
   11fe0:	48 8d 05 61 46 01 00 	lea    0x14661(%rip),%rax        # 26648 <g_504>
   11fe7:	48 89 85 c0 f3 ff ff 	mov    %rax,-0xc40(%rbp)
   11fee:	48 8d 05 53 46 01 00 	lea    0x14653(%rip),%rax        # 26648 <g_504>
   11ff5:	48 89 85 c8 f3 ff ff 	mov    %rax,-0xc38(%rbp)
   11ffc:	48 8d 05 45 46 01 00 	lea    0x14645(%rip),%rax        # 26648 <g_504>
   12003:	48 89 85 d0 f3 ff ff 	mov    %rax,-0xc30(%rbp)
   1200a:	48 8d 05 37 46 01 00 	lea    0x14637(%rip),%rax        # 26648 <g_504>
   12011:	48 89 85 d8 f3 ff ff 	mov    %rax,-0xc28(%rbp)
   12018:	48 8d 85 90 f3 ff ff 	lea    -0xc70(%rbp),%rax
   1201f:	48 83 c0 08          	add    $0x8,%rax
   12023:	48 89 85 88 ee ff ff 	mov    %rax,-0x1178(%rbp)
   1202a:	48 8d 85 88 ee ff ff 	lea    -0x1178(%rbp),%rax
   12031:	48 89 85 b0 ef ff ff 	mov    %rax,-0x1050(%rbp)
   12038:	48 c7 85 b8 ef ff ff 	movq   $0x0,-0x1048(%rbp)
   1203f:	00 00 00 00 
   12043:	c7 85 70 ee ff ff a6 	movl   $0x21b321a6,-0x1190(%rbp)
   1204a:	21 b3 21 
   1204d:	c7 85 78 ee ff ff 12 	movl   $0x2e2ab312,-0x1188(%rbp)
   12054:	b3 2a 2e 
   12057:	48 8d 05 b2 22 01 00 	lea    0x122b2(%rip),%rax        # 24310 <g_91>
   1205e:	48 89 85 c0 ef ff ff 	mov    %rax,-0x1040(%rbp)
   12065:	c7 85 80 ee ff ff cb 	movl   $0xb2248ecb,-0x1180(%rbp)
   1206c:	8e 24 b2 
   1206f:	c7 85 24 ee ff ff 7a 	movl   $0x745f97a,-0x11dc(%rbp)
   12076:	f9 45 07 
   12079:	48 8d 85 9c ed ff ff 	lea    -0x1264(%rbp),%rax
   12080:	48 89 85 c8 ef ff ff 	mov    %rax,-0x1038(%rbp)
   12087:	48 8d 85 98 ed ff ff 	lea    -0x1268(%rbp),%rax
   1208e:	48 89 85 f0 f7 ff ff 	mov    %rax,-0x810(%rbp)
   12095:	48 8d 85 88 ed ff ff 	lea    -0x1278(%rbp),%rax
   1209c:	48 89 85 f8 f7 ff ff 	mov    %rax,-0x808(%rbp)
   120a3:	48 c7 85 00 f8 ff ff 	movq   $0x0,-0x800(%rbp)
   120aa:	00 00 00 00 
   120ae:	48 8d 85 98 ed ff ff 	lea    -0x1268(%rbp),%rax
   120b5:	48 89 85 08 f8 ff ff 	mov    %rax,-0x7f8(%rbp)
   120bc:	48 c7 85 10 f8 ff ff 	movq   $0x0,-0x7f0(%rbp)
   120c3:	00 00 00 00 
   120c7:	48 8d 85 8c ed ff ff 	lea    -0x1274(%rbp),%rax
   120ce:	48 89 85 18 f8 ff ff 	mov    %rax,-0x7e8(%rbp)
   120d5:	48 8d 85 a0 ed ff ff 	lea    -0x1260(%rbp),%rax
   120dc:	48 89 85 20 f8 ff ff 	mov    %rax,-0x7e0(%rbp)
   120e3:	48 8d 85 7c ed ff ff 	lea    -0x1284(%rbp),%rax
   120ea:	48 89 85 28 f8 ff ff 	mov    %rax,-0x7d8(%rbp)
   120f1:	48 8d 85 78 ee ff ff 	lea    -0x1188(%rbp),%rax
   120f8:	48 89 85 30 f8 ff ff 	mov    %rax,-0x7d0(%rbp)
   120ff:	48 c7 85 38 f8 ff ff 	movq   $0x0,-0x7c8(%rbp)
   12106:	00 00 00 00 
   1210a:	48 8d 85 a0 ed ff ff 	lea    -0x1260(%rbp),%rax
   12111:	48 89 85 40 f8 ff ff 	mov    %rax,-0x7c0(%rbp)
   12118:	48 8d 85 80 ee ff ff 	lea    -0x1180(%rbp),%rax
   1211f:	48 89 85 48 f8 ff ff 	mov    %rax,-0x7b8(%rbp)
   12126:	48 8d 85 98 ed ff ff 	lea    -0x1268(%rbp),%rax
   1212d:	48 89 85 50 f8 ff ff 	mov    %rax,-0x7b0(%rbp)
   12134:	48 c7 85 58 f8 ff ff 	movq   $0x0,-0x7a8(%rbp)
   1213b:	00 00 00 00 
   1213f:	48 8d 85 94 ed ff ff 	lea    -0x126c(%rbp),%rax
   12146:	48 89 85 60 f8 ff ff 	mov    %rax,-0x7a0(%rbp)
   1214d:	48 8d 05 d0 0e 01 00 	lea    0x10ed0(%rip),%rax        # 23024 <g_18>
   12154:	48 89 85 68 f8 ff ff 	mov    %rax,-0x798(%rbp)
   1215b:	48 8d 85 98 ed ff ff 	lea    -0x1268(%rbp),%rax
   12162:	48 89 85 70 f8 ff ff 	mov    %rax,-0x790(%rbp)
   12169:	48 8d 85 98 ed ff ff 	lea    -0x1268(%rbp),%rax
   12170:	48 89 85 78 f8 ff ff 	mov    %rax,-0x788(%rbp)
   12177:	48 8d 05 a6 0e 01 00 	lea    0x10ea6(%rip),%rax        # 23024 <g_18>
   1217e:	48 89 85 80 f8 ff ff 	mov    %rax,-0x780(%rbp)
   12185:	48 8d 85 8c ed ff ff 	lea    -0x1274(%rbp),%rax
   1218c:	48 89 85 88 f8 ff ff 	mov    %rax,-0x778(%rbp)
   12193:	48 8d 85 a0 ed ff ff 	lea    -0x1260(%rbp),%rax
   1219a:	48 89 85 90 f8 ff ff 	mov    %rax,-0x770(%rbp)
   121a1:	48 8d 85 8c ed ff ff 	lea    -0x1274(%rbp),%rax
   121a8:	48 89 85 98 f8 ff ff 	mov    %rax,-0x768(%rbp)
   121af:	48 8d 85 7c ed ff ff 	lea    -0x1284(%rbp),%rax
   121b6:	48 89 85 a0 f8 ff ff 	mov    %rax,-0x760(%rbp)
   121bd:	48 8d 85 98 ed ff ff 	lea    -0x1268(%rbp),%rax
   121c4:	48 89 85 a8 f8 ff ff 	mov    %rax,-0x758(%rbp)
   121cb:	48 8d 85 8c ed ff ff 	lea    -0x1274(%rbp),%rax
   121d2:	48 89 85 b0 f8 ff ff 	mov    %rax,-0x750(%rbp)
   121d9:	48 8d 85 8c ed ff ff 	lea    -0x1274(%rbp),%rax
   121e0:	48 89 85 b8 f8 ff ff 	mov    %rax,-0x748(%rbp)
   121e7:	48 8d 85 7c ed ff ff 	lea    -0x1284(%rbp),%rax
   121ee:	48 89 85 c0 f8 ff ff 	mov    %rax,-0x740(%rbp)
   121f5:	48 8d 85 88 ed ff ff 	lea    -0x1278(%rbp),%rax
   121fc:	48 89 85 c8 f8 ff ff 	mov    %rax,-0x738(%rbp)
   12203:	48 8d 85 d0 f2 ff ff 	lea    -0xd30(%rbp),%rax
   1220a:	48 05 a0 00 00 00    	add    $0xa0,%rax
   12210:	48 89 85 d0 f8 ff ff 	mov    %rax,-0x730(%rbp)
   12217:	48 8d 85 94 ed ff ff 	lea    -0x126c(%rbp),%rax
   1221e:	48 89 85 d8 f8 ff ff 	mov    %rax,-0x728(%rbp)
   12225:	48 8d 85 d0 f2 ff ff 	lea    -0xd30(%rbp),%rax
   1222c:	48 05 a0 00 00 00    	add    $0xa0,%rax
   12232:	48 89 85 e0 f8 ff ff 	mov    %rax,-0x720(%rbp)
   12239:	48 8d 85 7c ed ff ff 	lea    -0x1284(%rbp),%rax
   12240:	48 89 85 e8 f8 ff ff 	mov    %rax,-0x718(%rbp)
   12247:	48 8d 85 8c ed ff ff 	lea    -0x1274(%rbp),%rax
   1224e:	48 89 85 f0 f8 ff ff 	mov    %rax,-0x710(%rbp)
   12255:	48 8d 85 98 ed ff ff 	lea    -0x1268(%rbp),%rax
   1225c:	48 89 85 f8 f8 ff ff 	mov    %rax,-0x708(%rbp)
   12263:	48 c7 85 00 f9 ff ff 	movq   $0x0,-0x700(%rbp)
   1226a:	00 00 00 00 
   1226e:	48 8d 85 94 ed ff ff 	lea    -0x126c(%rbp),%rax
   12275:	48 89 85 08 f9 ff ff 	mov    %rax,-0x6f8(%rbp)
   1227c:	48 8d 85 78 ee ff ff 	lea    -0x1188(%rbp),%rax
   12283:	48 89 85 10 f9 ff ff 	mov    %rax,-0x6f0(%rbp)
   1228a:	48 8d 85 8c ed ff ff 	lea    -0x1274(%rbp),%rax
   12291:	48 89 85 18 f9 ff ff 	mov    %rax,-0x6e8(%rbp)
   12298:	48 8d 05 85 0d 01 00 	lea    0x10d85(%rip),%rax        # 23024 <g_18>
   1229f:	48 89 85 20 f9 ff ff 	mov    %rax,-0x6e0(%rbp)
   122a6:	48 8d 85 98 ed ff ff 	lea    -0x1268(%rbp),%rax
   122ad:	48 89 85 28 f9 ff ff 	mov    %rax,-0x6d8(%rbp)
   122b4:	48 8d 85 78 ee ff ff 	lea    -0x1188(%rbp),%rax
   122bb:	48 89 85 30 f9 ff ff 	mov    %rax,-0x6d0(%rbp)
   122c2:	48 8d 85 8c ed ff ff 	lea    -0x1274(%rbp),%rax
   122c9:	48 89 85 38 f9 ff ff 	mov    %rax,-0x6c8(%rbp)
   122d0:	48 8d 85 88 ed ff ff 	lea    -0x1278(%rbp),%rax
   122d7:	48 89 85 40 f9 ff ff 	mov    %rax,-0x6c0(%rbp)
   122de:	48 c7 85 48 f9 ff ff 	movq   $0x0,-0x6b8(%rbp)
   122e5:	00 00 00 00 
   122e9:	48 8d 85 98 ed ff ff 	lea    -0x1268(%rbp),%rax
   122f0:	48 89 85 50 f9 ff ff 	mov    %rax,-0x6b0(%rbp)
   122f7:	48 8d 85 98 ed ff ff 	lea    -0x1268(%rbp),%rax
   122fe:	48 89 85 58 f9 ff ff 	mov    %rax,-0x6a8(%rbp)
   12305:	48 8d 85 78 ee ff ff 	lea    -0x1188(%rbp),%rax
   1230c:	48 89 85 60 f9 ff ff 	mov    %rax,-0x6a0(%rbp)
   12313:	48 8d 85 7c ed ff ff 	lea    -0x1284(%rbp),%rax
   1231a:	48 89 85 68 f9 ff ff 	mov    %rax,-0x698(%rbp)
   12321:	48 8d 85 78 ee ff ff 	lea    -0x1188(%rbp),%rax
   12328:	48 89 85 70 f9 ff ff 	mov    %rax,-0x690(%rbp)
   1232f:	48 8d 85 98 ed ff ff 	lea    -0x1268(%rbp),%rax
   12336:	48 89 85 78 f9 ff ff 	mov    %rax,-0x688(%rbp)
   1233d:	48 8d 85 98 ed ff ff 	lea    -0x1268(%rbp),%rax
   12344:	48 89 85 80 f9 ff ff 	mov    %rax,-0x680(%rbp)
   1234b:	48 8d 85 7c ed ff ff 	lea    -0x1284(%rbp),%rax
   12352:	48 89 85 88 f9 ff ff 	mov    %rax,-0x678(%rbp)
   12359:	48 8d 85 98 ed ff ff 	lea    -0x1268(%rbp),%rax
   12360:	48 89 85 90 f9 ff ff 	mov    %rax,-0x670(%rbp)
   12367:	48 8d 85 9c ed ff ff 	lea    -0x1264(%rbp),%rax
   1236e:	48 89 85 98 f9 ff ff 	mov    %rax,-0x668(%rbp)
   12375:	48 c7 85 a0 f9 ff ff 	movq   $0x0,-0x660(%rbp)
   1237c:	00 00 00 00 
   12380:	48 8d 85 78 ee ff ff 	lea    -0x1188(%rbp),%rax
   12387:	48 89 85 a8 f9 ff ff 	mov    %rax,-0x658(%rbp)
   1238e:	48 8d 85 7c ed ff ff 	lea    -0x1284(%rbp),%rax
   12395:	48 89 85 b0 f9 ff ff 	mov    %rax,-0x650(%rbp)
   1239c:	48 8d 85 98 ed ff ff 	lea    -0x1268(%rbp),%rax
   123a3:	48 89 85 b8 f9 ff ff 	mov    %rax,-0x648(%rbp)
   123aa:	48 8d 85 8c ed ff ff 	lea    -0x1274(%rbp),%rax
   123b1:	48 89 85 c0 f9 ff ff 	mov    %rax,-0x640(%rbp)
   123b8:	48 8d 85 98 ed ff ff 	lea    -0x1268(%rbp),%rax
   123bf:	48 89 85 c8 f9 ff ff 	mov    %rax,-0x638(%rbp)
   123c6:	48 8d 85 94 ed ff ff 	lea    -0x126c(%rbp),%rax
   123cd:	48 89 85 d0 f9 ff ff 	mov    %rax,-0x630(%rbp)
   123d4:	48 8d 85 8c ed ff ff 	lea    -0x1274(%rbp),%rax
   123db:	48 89 85 d8 f9 ff ff 	mov    %rax,-0x628(%rbp)
   123e2:	48 8d 85 7c ed ff ff 	lea    -0x1284(%rbp),%rax
   123e9:	48 89 85 e0 f9 ff ff 	mov    %rax,-0x620(%rbp)
   123f0:	48 8d 85 8c ed ff ff 	lea    -0x1274(%rbp),%rax
   123f7:	48 89 85 e8 f9 ff ff 	mov    %rax,-0x618(%rbp)
   123fe:	48 8d 85 98 ed ff ff 	lea    -0x1268(%rbp),%rax
   12405:	48 89 85 f0 f9 ff ff 	mov    %rax,-0x610(%rbp)
   1240c:	48 8d 85 d0 f2 ff ff 	lea    -0xd30(%rbp),%rax
   12413:	48 05 a0 00 00 00    	add    $0xa0,%rax
   12419:	48 89 85 f8 f9 ff ff 	mov    %rax,-0x608(%rbp)
   12420:	48 8d 85 98 ed ff ff 	lea    -0x1268(%rbp),%rax
   12427:	48 89 85 00 fa ff ff 	mov    %rax,-0x600(%rbp)
   1242e:	48 8d 85 8c ed ff ff 	lea    -0x1274(%rbp),%rax
   12435:	48 89 85 08 fa ff ff 	mov    %rax,-0x5f8(%rbp)
   1243c:	48 8d 85 9c ed ff ff 	lea    -0x1264(%rbp),%rax
   12443:	48 89 85 10 fa ff ff 	mov    %rax,-0x5f0(%rbp)
   1244a:	48 8d 85 98 ed ff ff 	lea    -0x1268(%rbp),%rax
   12451:	48 89 85 18 fa ff ff 	mov    %rax,-0x5e8(%rbp)
   12458:	48 8d 85 8c ed ff ff 	lea    -0x1274(%rbp),%rax
   1245f:	48 89 85 20 fa ff ff 	mov    %rax,-0x5e0(%rbp)
   12466:	48 8d 85 80 ee ff ff 	lea    -0x1180(%rbp),%rax
   1246d:	48 89 85 28 fa ff ff 	mov    %rax,-0x5d8(%rbp)
   12474:	48 8d 85 7c ed ff ff 	lea    -0x1284(%rbp),%rax
   1247b:	48 89 85 30 fa ff ff 	mov    %rax,-0x5d0(%rbp)
   12482:	48 8d 85 78 ee ff ff 	lea    -0x1188(%rbp),%rax
   12489:	48 89 85 38 fa ff ff 	mov    %rax,-0x5c8(%rbp)
   12490:	48 c7 85 40 fa ff ff 	movq   $0x0,-0x5c0(%rbp)
   12497:	00 00 00 00 
   1249b:	48 8d 85 a0 ed ff ff 	lea    -0x1260(%rbp),%rax
   124a2:	48 89 85 48 fa ff ff 	mov    %rax,-0x5b8(%rbp)
   124a9:	48 8d 85 80 ee ff ff 	lea    -0x1180(%rbp),%rax
   124b0:	48 89 85 50 fa ff ff 	mov    %rax,-0x5b0(%rbp)
   124b7:	48 8d 85 98 ed ff ff 	lea    -0x1268(%rbp),%rax
   124be:	48 89 85 58 fa ff ff 	mov    %rax,-0x5a8(%rbp)
   124c5:	48 c7 85 60 fa ff ff 	movq   $0x0,-0x5a0(%rbp)
   124cc:	00 00 00 00 
   124d0:	48 8d 85 94 ed ff ff 	lea    -0x126c(%rbp),%rax
   124d7:	48 89 85 68 fa ff ff 	mov    %rax,-0x598(%rbp)
   124de:	48 8d 05 3f 0b 01 00 	lea    0x10b3f(%rip),%rax        # 23024 <g_18>
   124e5:	48 89 85 70 fa ff ff 	mov    %rax,-0x590(%rbp)
   124ec:	48 8d 85 98 ed ff ff 	lea    -0x1268(%rbp),%rax
   124f3:	48 89 85 78 fa ff ff 	mov    %rax,-0x588(%rbp)
   124fa:	48 8d 85 98 ed ff ff 	lea    -0x1268(%rbp),%rax
   12501:	48 89 85 80 fa ff ff 	mov    %rax,-0x580(%rbp)
   12508:	48 8d 05 15 0b 01 00 	lea    0x10b15(%rip),%rax        # 23024 <g_18>
   1250f:	48 89 85 88 fa ff ff 	mov    %rax,-0x578(%rbp)
   12516:	48 8d 85 8c ed ff ff 	lea    -0x1274(%rbp),%rax
   1251d:	48 89 85 90 fa ff ff 	mov    %rax,-0x570(%rbp)
   12524:	48 8d 85 a0 ed ff ff 	lea    -0x1260(%rbp),%rax
   1252b:	48 89 85 98 fa ff ff 	mov    %rax,-0x568(%rbp)
   12532:	48 8d 85 8c ed ff ff 	lea    -0x1274(%rbp),%rax
   12539:	48 89 85 a0 fa ff ff 	mov    %rax,-0x560(%rbp)
   12540:	48 8d 85 7c ed ff ff 	lea    -0x1284(%rbp),%rax
   12547:	48 89 85 a8 fa ff ff 	mov    %rax,-0x558(%rbp)
   1254e:	48 8d 85 98 ed ff ff 	lea    -0x1268(%rbp),%rax
   12555:	48 89 85 b0 fa ff ff 	mov    %rax,-0x550(%rbp)
   1255c:	48 8d 85 8c ed ff ff 	lea    -0x1274(%rbp),%rax
   12563:	48 89 85 b8 fa ff ff 	mov    %rax,-0x548(%rbp)
   1256a:	48 8d 85 8c ed ff ff 	lea    -0x1274(%rbp),%rax
   12571:	48 89 85 c0 fa ff ff 	mov    %rax,-0x540(%rbp)
   12578:	48 8d 85 7c ed ff ff 	lea    -0x1284(%rbp),%rax
   1257f:	48 89 85 c8 fa ff ff 	mov    %rax,-0x538(%rbp)
   12586:	48 8d 85 88 ed ff ff 	lea    -0x1278(%rbp),%rax
   1258d:	48 89 85 d0 fa ff ff 	mov    %rax,-0x530(%rbp)
   12594:	48 8d 85 d0 f2 ff ff 	lea    -0xd30(%rbp),%rax
   1259b:	48 05 a0 00 00 00    	add    $0xa0,%rax
   125a1:	48 89 85 d8 fa ff ff 	mov    %rax,-0x528(%rbp)
   125a8:	48 8d 85 94 ed ff ff 	lea    -0x126c(%rbp),%rax
   125af:	48 89 85 e0 fa ff ff 	mov    %rax,-0x520(%rbp)
   125b6:	48 8d 85 d0 f2 ff ff 	lea    -0xd30(%rbp),%rax
   125bd:	48 05 a0 00 00 00    	add    $0xa0,%rax
   125c3:	48 89 85 e8 fa ff ff 	mov    %rax,-0x518(%rbp)
   125ca:	48 8d 85 7c ed ff ff 	lea    -0x1284(%rbp),%rax
   125d1:	48 89 85 f0 fa ff ff 	mov    %rax,-0x510(%rbp)
   125d8:	48 8d 85 8c ed ff ff 	lea    -0x1274(%rbp),%rax
   125df:	48 89 85 f8 fa ff ff 	mov    %rax,-0x508(%rbp)
   125e6:	48 8d 85 98 ed ff ff 	lea    -0x1268(%rbp),%rax
   125ed:	48 89 85 00 fb ff ff 	mov    %rax,-0x500(%rbp)
   125f4:	48 c7 85 08 fb ff ff 	movq   $0x0,-0x4f8(%rbp)
   125fb:	00 00 00 00 
   125ff:	48 8d 85 94 ed ff ff 	lea    -0x126c(%rbp),%rax
   12606:	48 89 85 10 fb ff ff 	mov    %rax,-0x4f0(%rbp)
   1260d:	48 8d 85 78 ee ff ff 	lea    -0x1188(%rbp),%rax
   12614:	48 89 85 18 fb ff ff 	mov    %rax,-0x4e8(%rbp)
   1261b:	48 8d 85 8c ed ff ff 	lea    -0x1274(%rbp),%rax
   12622:	48 89 85 20 fb ff ff 	mov    %rax,-0x4e0(%rbp)
   12629:	48 8d 05 f4 09 01 00 	lea    0x109f4(%rip),%rax        # 23024 <g_18>
   12630:	48 89 85 28 fb ff ff 	mov    %rax,-0x4d8(%rbp)
   12637:	48 8d 85 98 ed ff ff 	lea    -0x1268(%rbp),%rax
   1263e:	48 89 85 30 fb ff ff 	mov    %rax,-0x4d0(%rbp)
   12645:	48 8d 85 78 ee ff ff 	lea    -0x1188(%rbp),%rax
   1264c:	48 89 85 38 fb ff ff 	mov    %rax,-0x4c8(%rbp)
   12653:	48 8d 85 8c ed ff ff 	lea    -0x1274(%rbp),%rax
   1265a:	48 89 85 40 fb ff ff 	mov    %rax,-0x4c0(%rbp)
   12661:	48 8d 85 88 ed ff ff 	lea    -0x1278(%rbp),%rax
   12668:	48 89 85 48 fb ff ff 	mov    %rax,-0x4b8(%rbp)
   1266f:	48 c7 85 50 fb ff ff 	movq   $0x0,-0x4b0(%rbp)
   12676:	00 00 00 00 
   1267a:	48 8d 85 98 ed ff ff 	lea    -0x1268(%rbp),%rax
   12681:	48 89 85 58 fb ff ff 	mov    %rax,-0x4a8(%rbp)
   12688:	48 8d 85 98 ed ff ff 	lea    -0x1268(%rbp),%rax
   1268f:	48 89 85 60 fb ff ff 	mov    %rax,-0x4a0(%rbp)
   12696:	48 8d 85 78 ee ff ff 	lea    -0x1188(%rbp),%rax
   1269d:	48 89 85 68 fb ff ff 	mov    %rax,-0x498(%rbp)
   126a4:	48 8d 85 7c ed ff ff 	lea    -0x1284(%rbp),%rax
   126ab:	48 89 85 70 fb ff ff 	mov    %rax,-0x490(%rbp)
   126b2:	48 8d 85 78 ee ff ff 	lea    -0x1188(%rbp),%rax
   126b9:	48 89 85 78 fb ff ff 	mov    %rax,-0x488(%rbp)
   126c0:	48 8d 85 98 ed ff ff 	lea    -0x1268(%rbp),%rax
   126c7:	48 89 85 80 fb ff ff 	mov    %rax,-0x480(%rbp)
   126ce:	48 8d 85 98 ed ff ff 	lea    -0x1268(%rbp),%rax
   126d5:	48 89 85 88 fb ff ff 	mov    %rax,-0x478(%rbp)
   126dc:	48 8d 85 7c ed ff ff 	lea    -0x1284(%rbp),%rax
   126e3:	48 89 85 90 fb ff ff 	mov    %rax,-0x470(%rbp)
   126ea:	48 8d 85 98 ed ff ff 	lea    -0x1268(%rbp),%rax
   126f1:	48 89 85 98 fb ff ff 	mov    %rax,-0x468(%rbp)
   126f8:	48 8d 85 9c ed ff ff 	lea    -0x1264(%rbp),%rax
   126ff:	48 89 85 a0 fb ff ff 	mov    %rax,-0x460(%rbp)
   12706:	48 c7 85 a8 fb ff ff 	movq   $0x0,-0x458(%rbp)
   1270d:	00 00 00 00 
   12711:	48 8d 85 78 ee ff ff 	lea    -0x1188(%rbp),%rax
   12718:	48 89 85 b0 fb ff ff 	mov    %rax,-0x450(%rbp)
   1271f:	48 8d 85 7c ed ff ff 	lea    -0x1284(%rbp),%rax
   12726:	48 89 85 b8 fb ff ff 	mov    %rax,-0x448(%rbp)
   1272d:	48 8d 85 98 ed ff ff 	lea    -0x1268(%rbp),%rax
   12734:	48 89 85 c0 fb ff ff 	mov    %rax,-0x440(%rbp)
   1273b:	48 8d 85 8c ed ff ff 	lea    -0x1274(%rbp),%rax
   12742:	48 89 85 c8 fb ff ff 	mov    %rax,-0x438(%rbp)
   12749:	48 8d 85 98 ed ff ff 	lea    -0x1268(%rbp),%rax
   12750:	48 89 85 d0 fb ff ff 	mov    %rax,-0x430(%rbp)
   12757:	48 8d 85 94 ed ff ff 	lea    -0x126c(%rbp),%rax
   1275e:	48 89 85 d8 fb ff ff 	mov    %rax,-0x428(%rbp)
   12765:	48 8d 85 8c ed ff ff 	lea    -0x1274(%rbp),%rax
   1276c:	48 89 85 e0 fb ff ff 	mov    %rax,-0x420(%rbp)
   12773:	48 8d 85 7c ed ff ff 	lea    -0x1284(%rbp),%rax
   1277a:	48 89 85 e8 fb ff ff 	mov    %rax,-0x418(%rbp)
   12781:	48 8d 85 8c ed ff ff 	lea    -0x1274(%rbp),%rax
   12788:	48 89 85 f0 fb ff ff 	mov    %rax,-0x410(%rbp)
   1278f:	48 8d 85 98 ed ff ff 	lea    -0x1268(%rbp),%rax
   12796:	48 89 85 f8 fb ff ff 	mov    %rax,-0x408(%rbp)
   1279d:	48 8d 85 d0 f2 ff ff 	lea    -0xd30(%rbp),%rax
   127a4:	48 05 a0 00 00 00    	add    $0xa0,%rax
   127aa:	48 89 85 00 fc ff ff 	mov    %rax,-0x400(%rbp)
   127b1:	48 8d 85 98 ed ff ff 	lea    -0x1268(%rbp),%rax
   127b8:	48 89 85 08 fc ff ff 	mov    %rax,-0x3f8(%rbp)
   127bf:	48 8d 85 8c ed ff ff 	lea    -0x1274(%rbp),%rax
   127c6:	48 89 85 10 fc ff ff 	mov    %rax,-0x3f0(%rbp)
   127cd:	48 8d 85 9c ed ff ff 	lea    -0x1264(%rbp),%rax
   127d4:	48 89 85 18 fc ff ff 	mov    %rax,-0x3e8(%rbp)
   127db:	48 8d 85 98 ed ff ff 	lea    -0x1268(%rbp),%rax
   127e2:	48 89 85 20 fc ff ff 	mov    %rax,-0x3e0(%rbp)
   127e9:	48 8d 85 8c ed ff ff 	lea    -0x1274(%rbp),%rax
   127f0:	48 89 85 28 fc ff ff 	mov    %rax,-0x3d8(%rbp)
   127f7:	48 8d 85 80 ee ff ff 	lea    -0x1180(%rbp),%rax
   127fe:	48 89 85 30 fc ff ff 	mov    %rax,-0x3d0(%rbp)
   12805:	48 8d 85 7c ed ff ff 	lea    -0x1284(%rbp),%rax
   1280c:	48 89 85 38 fc ff ff 	mov    %rax,-0x3c8(%rbp)
   12813:	48 8d 85 78 ee ff ff 	lea    -0x1188(%rbp),%rax
   1281a:	48 89 85 40 fc ff ff 	mov    %rax,-0x3c0(%rbp)
   12821:	48 c7 85 48 fc ff ff 	movq   $0x0,-0x3b8(%rbp)
   12828:	00 00 00 00 
   1282c:	48 8d 85 a0 ed ff ff 	lea    -0x1260(%rbp),%rax
   12833:	48 89 85 50 fc ff ff 	mov    %rax,-0x3b0(%rbp)
   1283a:	48 8d 85 80 ee ff ff 	lea    -0x1180(%rbp),%rax
   12841:	48 89 85 58 fc ff ff 	mov    %rax,-0x3a8(%rbp)
   12848:	48 8d 85 98 ed ff ff 	lea    -0x1268(%rbp),%rax
   1284f:	48 89 85 60 fc ff ff 	mov    %rax,-0x3a0(%rbp)
   12856:	48 c7 85 68 fc ff ff 	movq   $0x0,-0x398(%rbp)
   1285d:	00 00 00 00 
   12861:	48 8d 85 94 ed ff ff 	lea    -0x126c(%rbp),%rax
   12868:	48 89 85 70 fc ff ff 	mov    %rax,-0x390(%rbp)
   1286f:	48 8d 05 ae 07 01 00 	lea    0x107ae(%rip),%rax        # 23024 <g_18>
   12876:	48 89 85 78 fc ff ff 	mov    %rax,-0x388(%rbp)
   1287d:	48 8d 85 98 ed ff ff 	lea    -0x1268(%rbp),%rax
   12884:	48 89 85 80 fc ff ff 	mov    %rax,-0x380(%rbp)
   1288b:	48 8d 85 98 ed ff ff 	lea    -0x1268(%rbp),%rax
   12892:	48 89 85 88 fc ff ff 	mov    %rax,-0x378(%rbp)
   12899:	48 8d 05 84 07 01 00 	lea    0x10784(%rip),%rax        # 23024 <g_18>
   128a0:	48 89 85 90 fc ff ff 	mov    %rax,-0x370(%rbp)
   128a7:	48 8d 85 8c ed ff ff 	lea    -0x1274(%rbp),%rax
   128ae:	48 89 85 98 fc ff ff 	mov    %rax,-0x368(%rbp)
   128b5:	48 8d 85 a0 ed ff ff 	lea    -0x1260(%rbp),%rax
   128bc:	48 89 85 a0 fc ff ff 	mov    %rax,-0x360(%rbp)
   128c3:	48 8d 85 8c ed ff ff 	lea    -0x1274(%rbp),%rax
   128ca:	48 89 85 a8 fc ff ff 	mov    %rax,-0x358(%rbp)
   128d1:	48 8d 85 7c ed ff ff 	lea    -0x1284(%rbp),%rax
   128d8:	48 89 85 b0 fc ff ff 	mov    %rax,-0x350(%rbp)
   128df:	48 8d 85 98 ed ff ff 	lea    -0x1268(%rbp),%rax
   128e6:	48 89 85 b8 fc ff ff 	mov    %rax,-0x348(%rbp)
   128ed:	48 8d 85 8c ed ff ff 	lea    -0x1274(%rbp),%rax
   128f4:	48 89 85 c0 fc ff ff 	mov    %rax,-0x340(%rbp)
   128fb:	48 8d 85 8c ed ff ff 	lea    -0x1274(%rbp),%rax
   12902:	48 89 85 c8 fc ff ff 	mov    %rax,-0x338(%rbp)
   12909:	48 8d 85 7c ed ff ff 	lea    -0x1284(%rbp),%rax
   12910:	48 89 85 d0 fc ff ff 	mov    %rax,-0x330(%rbp)
   12917:	48 8d 85 88 ed ff ff 	lea    -0x1278(%rbp),%rax
   1291e:	48 89 85 d8 fc ff ff 	mov    %rax,-0x328(%rbp)
   12925:	48 8d 85 d0 f2 ff ff 	lea    -0xd30(%rbp),%rax
   1292c:	48 05 a0 00 00 00    	add    $0xa0,%rax
   12932:	48 89 85 e0 fc ff ff 	mov    %rax,-0x320(%rbp)
   12939:	48 8d 85 94 ed ff ff 	lea    -0x126c(%rbp),%rax
   12940:	48 89 85 e8 fc ff ff 	mov    %rax,-0x318(%rbp)
   12947:	48 8d 85 d0 f2 ff ff 	lea    -0xd30(%rbp),%rax
   1294e:	48 05 a0 00 00 00    	add    $0xa0,%rax
   12954:	48 89 85 f0 fc ff ff 	mov    %rax,-0x310(%rbp)
   1295b:	48 8d 85 7c ed ff ff 	lea    -0x1284(%rbp),%rax
   12962:	48 89 85 f8 fc ff ff 	mov    %rax,-0x308(%rbp)
   12969:	48 8d 85 8c ed ff ff 	lea    -0x1274(%rbp),%rax
   12970:	48 89 85 00 fd ff ff 	mov    %rax,-0x300(%rbp)
   12977:	48 8d 85 98 ed ff ff 	lea    -0x1268(%rbp),%rax
   1297e:	48 89 85 08 fd ff ff 	mov    %rax,-0x2f8(%rbp)
   12985:	48 c7 85 10 fd ff ff 	movq   $0x0,-0x2f0(%rbp)
   1298c:	00 00 00 00 
   12990:	48 8d 85 94 ed ff ff 	lea    -0x126c(%rbp),%rax
   12997:	48 89 85 18 fd ff ff 	mov    %rax,-0x2e8(%rbp)
   1299e:	48 8d 85 78 ee ff ff 	lea    -0x1188(%rbp),%rax
   129a5:	48 89 85 20 fd ff ff 	mov    %rax,-0x2e0(%rbp)
   129ac:	48 8d 85 8c ed ff ff 	lea    -0x1274(%rbp),%rax
   129b3:	48 89 85 28 fd ff ff 	mov    %rax,-0x2d8(%rbp)
   129ba:	48 8d 05 63 06 01 00 	lea    0x10663(%rip),%rax        # 23024 <g_18>
   129c1:	48 89 85 30 fd ff ff 	mov    %rax,-0x2d0(%rbp)
   129c8:	48 8d 85 98 ed ff ff 	lea    -0x1268(%rbp),%rax
   129cf:	48 89 85 38 fd ff ff 	mov    %rax,-0x2c8(%rbp)
   129d6:	48 8d 85 78 ee ff ff 	lea    -0x1188(%rbp),%rax
   129dd:	48 89 85 40 fd ff ff 	mov    %rax,-0x2c0(%rbp)
   129e4:	48 8d 85 8c ed ff ff 	lea    -0x1274(%rbp),%rax
   129eb:	48 89 85 48 fd ff ff 	mov    %rax,-0x2b8(%rbp)
   129f2:	48 8d 85 88 ed ff ff 	lea    -0x1278(%rbp),%rax
   129f9:	48 89 85 50 fd ff ff 	mov    %rax,-0x2b0(%rbp)
   12a00:	48 c7 85 58 fd ff ff 	movq   $0x0,-0x2a8(%rbp)
   12a07:	00 00 00 00 
   12a0b:	48 8d 85 98 ed ff ff 	lea    -0x1268(%rbp),%rax
   12a12:	48 89 85 60 fd ff ff 	mov    %rax,-0x2a0(%rbp)
   12a19:	48 8d 85 98 ed ff ff 	lea    -0x1268(%rbp),%rax
   12a20:	48 89 85 68 fd ff ff 	mov    %rax,-0x298(%rbp)
   12a27:	48 8d 85 78 ee ff ff 	lea    -0x1188(%rbp),%rax
   12a2e:	48 89 85 70 fd ff ff 	mov    %rax,-0x290(%rbp)
   12a35:	48 8d 85 7c ed ff ff 	lea    -0x1284(%rbp),%rax
   12a3c:	48 89 85 78 fd ff ff 	mov    %rax,-0x288(%rbp)
   12a43:	48 8d 85 78 ee ff ff 	lea    -0x1188(%rbp),%rax
   12a4a:	48 89 85 80 fd ff ff 	mov    %rax,-0x280(%rbp)
   12a51:	48 8d 85 98 ed ff ff 	lea    -0x1268(%rbp),%rax
   12a58:	48 89 85 88 fd ff ff 	mov    %rax,-0x278(%rbp)
   12a5f:	48 8d 85 98 ed ff ff 	lea    -0x1268(%rbp),%rax
   12a66:	48 89 85 90 fd ff ff 	mov    %rax,-0x270(%rbp)
   12a6d:	48 8d 85 7c ed ff ff 	lea    -0x1284(%rbp),%rax
   12a74:	48 89 85 98 fd ff ff 	mov    %rax,-0x268(%rbp)
   12a7b:	48 8d 85 98 ed ff ff 	lea    -0x1268(%rbp),%rax
   12a82:	48 89 85 a0 fd ff ff 	mov    %rax,-0x260(%rbp)
   12a89:	48 8d 85 9c ed ff ff 	lea    -0x1264(%rbp),%rax
   12a90:	48 89 85 a8 fd ff ff 	mov    %rax,-0x258(%rbp)
   12a97:	48 c7 85 b0 fd ff ff 	movq   $0x0,-0x250(%rbp)
   12a9e:	00 00 00 00 
   12aa2:	48 8d 85 78 ee ff ff 	lea    -0x1188(%rbp),%rax
   12aa9:	48 89 85 b8 fd ff ff 	mov    %rax,-0x248(%rbp)
   12ab0:	48 8d 85 7c ed ff ff 	lea    -0x1284(%rbp),%rax
   12ab7:	48 89 85 c0 fd ff ff 	mov    %rax,-0x240(%rbp)
   12abe:	48 8d 85 98 ed ff ff 	lea    -0x1268(%rbp),%rax
   12ac5:	48 89 85 c8 fd ff ff 	mov    %rax,-0x238(%rbp)
   12acc:	48 8d 85 8c ed ff ff 	lea    -0x1274(%rbp),%rax
   12ad3:	48 89 85 d0 fd ff ff 	mov    %rax,-0x230(%rbp)
   12ada:	48 8d 85 98 ed ff ff 	lea    -0x1268(%rbp),%rax
   12ae1:	48 89 85 d8 fd ff ff 	mov    %rax,-0x228(%rbp)
   12ae8:	48 8d 85 94 ed ff ff 	lea    -0x126c(%rbp),%rax
   12aef:	48 89 85 e0 fd ff ff 	mov    %rax,-0x220(%rbp)
   12af6:	48 8d 85 8c ed ff ff 	lea    -0x1274(%rbp),%rax
   12afd:	48 89 85 e8 fd ff ff 	mov    %rax,-0x218(%rbp)
   12b04:	48 8d 85 7c ed ff ff 	lea    -0x1284(%rbp),%rax
   12b0b:	48 89 85 f0 fd ff ff 	mov    %rax,-0x210(%rbp)
   12b12:	48 8d 85 8c ed ff ff 	lea    -0x1274(%rbp),%rax
   12b19:	48 89 85 f8 fd ff ff 	mov    %rax,-0x208(%rbp)
   12b20:	48 8d 85 98 ed ff ff 	lea    -0x1268(%rbp),%rax
   12b27:	48 89 85 00 fe ff ff 	mov    %rax,-0x200(%rbp)
   12b2e:	48 8d 85 d0 f2 ff ff 	lea    -0xd30(%rbp),%rax
   12b35:	48 05 a0 00 00 00    	add    $0xa0,%rax
   12b3b:	48 89 85 08 fe ff ff 	mov    %rax,-0x1f8(%rbp)
   12b42:	48 8d 85 98 ed ff ff 	lea    -0x1268(%rbp),%rax
   12b49:	48 89 85 10 fe ff ff 	mov    %rax,-0x1f0(%rbp)
   12b50:	48 8d 85 8c ed ff ff 	lea    -0x1274(%rbp),%rax
   12b57:	48 89 85 18 fe ff ff 	mov    %rax,-0x1e8(%rbp)
   12b5e:	48 c7 85 20 fe ff ff 	movq   $0x0,-0x1e0(%rbp)
   12b65:	00 00 00 00 
   12b69:	48 8d 85 8c ed ff ff 	lea    -0x1274(%rbp),%rax
   12b70:	48 89 85 28 fe ff ff 	mov    %rax,-0x1d8(%rbp)
   12b77:	48 8d 85 d0 f2 ff ff 	lea    -0xd30(%rbp),%rax
   12b7e:	48 83 c0 28          	add    $0x28,%rax
   12b82:	48 89 85 30 fe ff ff 	mov    %rax,-0x1d0(%rbp)
   12b89:	48 8d 85 94 ed ff ff 	lea    -0x126c(%rbp),%rax
   12b90:	48 89 85 38 fe ff ff 	mov    %rax,-0x1c8(%rbp)
   12b97:	48 c7 85 40 fe ff ff 	movq   $0x0,-0x1c0(%rbp)
   12b9e:	00 00 00 00 
   12ba2:	48 c7 85 48 fe ff ff 	movq   $0x0,-0x1b8(%rbp)
   12ba9:	00 00 00 00 
   12bad:	48 8d 85 90 ed ff ff 	lea    -0x1270(%rbp),%rax
   12bb4:	48 89 85 50 fe ff ff 	mov    %rax,-0x1b0(%rbp)
   12bbb:	48 8d 85 d0 f2 ff ff 	lea    -0xd30(%rbp),%rax
   12bc2:	48 83 c0 04          	add    $0x4,%rax
   12bc6:	48 89 85 58 fe ff ff 	mov    %rax,-0x1a8(%rbp)
   12bcd:	48 8d 85 94 ed ff ff 	lea    -0x126c(%rbp),%rax
   12bd4:	48 89 85 60 fe ff ff 	mov    %rax,-0x1a0(%rbp)
   12bdb:	48 8d 85 9c ed ff ff 	lea    -0x1264(%rbp),%rax
   12be2:	48 89 85 68 fe ff ff 	mov    %rax,-0x198(%rbp)
   12be9:	48 8d 85 84 ed ff ff 	lea    -0x127c(%rbp),%rax
   12bf0:	48 89 85 70 fe ff ff 	mov    %rax,-0x190(%rbp)
   12bf7:	48 8d 85 88 ed ff ff 	lea    -0x1278(%rbp),%rax
   12bfe:	48 89 85 78 fe ff ff 	mov    %rax,-0x188(%rbp)
   12c05:	48 8d 85 90 ed ff ff 	lea    -0x1270(%rbp),%rax
   12c0c:	48 89 85 80 fe ff ff 	mov    %rax,-0x180(%rbp)
   12c13:	48 8d 05 0a 04 01 00 	lea    0x1040a(%rip),%rax        # 23024 <g_18>
   12c1a:	48 89 85 88 fe ff ff 	mov    %rax,-0x178(%rbp)
   12c21:	48 8d 05 fc 03 01 00 	lea    0x103fc(%rip),%rax        # 23024 <g_18>
   12c28:	48 89 85 90 fe ff ff 	mov    %rax,-0x170(%rbp)
   12c2f:	48 8d 85 90 ed ff ff 	lea    -0x1270(%rbp),%rax
   12c36:	48 89 85 98 fe ff ff 	mov    %rax,-0x168(%rbp)
   12c3d:	48 8d 05 ec 03 01 00 	lea    0x103ec(%rip),%rax        # 23030 <g_46>
   12c44:	48 89 85 a0 fe ff ff 	mov    %rax,-0x160(%rbp)
   12c4b:	48 8d 85 d0 f2 ff ff 	lea    -0xd30(%rbp),%rax
   12c52:	48 83 c0 04          	add    $0x4,%rax
   12c56:	48 89 85 a8 fe ff ff 	mov    %rax,-0x158(%rbp)
   12c5d:	48 8d 85 8c ed ff ff 	lea    -0x1274(%rbp),%rax
   12c64:	48 89 85 b0 fe ff ff 	mov    %rax,-0x150(%rbp)
   12c6b:	48 8d 85 9c ed ff ff 	lea    -0x1264(%rbp),%rax
   12c72:	48 89 85 b8 fe ff ff 	mov    %rax,-0x148(%rbp)
   12c79:	48 8d 85 70 ee ff ff 	lea    -0x1190(%rbp),%rax
   12c80:	48 89 85 c0 fe ff ff 	mov    %rax,-0x140(%rbp)
   12c87:	48 8d 05 a2 03 01 00 	lea    0x103a2(%rip),%rax        # 23030 <g_46>
   12c8e:	48 89 85 c8 fe ff ff 	mov    %rax,-0x138(%rbp)
   12c95:	48 8d 85 d0 f2 ff ff 	lea    -0xd30(%rbp),%rax
   12c9c:	48 83 c0 28          	add    $0x28,%rax
   12ca0:	48 89 85 d0 fe ff ff 	mov    %rax,-0x130(%rbp)
   12ca7:	48 8d 85 98 ed ff ff 	lea    -0x1268(%rbp),%rax
   12cae:	48 89 85 d8 fe ff ff 	mov    %rax,-0x128(%rbp)
   12cb5:	48 8d 85 94 ed ff ff 	lea    -0x126c(%rbp),%rax
   12cbc:	48 89 85 e0 fe ff ff 	mov    %rax,-0x120(%rbp)
   12cc3:	48 8d 85 9c ed ff ff 	lea    -0x1264(%rbp),%rax
   12cca:	48 89 85 e8 fe ff ff 	mov    %rax,-0x118(%rbp)
   12cd1:	48 8d 85 88 ed ff ff 	lea    -0x1278(%rbp),%rax
   12cd8:	48 89 85 f0 fe ff ff 	mov    %rax,-0x110(%rbp)
   12cdf:	48 8d 85 9c ed ff ff 	lea    -0x1264(%rbp),%rax
   12ce6:	48 89 85 f8 fe ff ff 	mov    %rax,-0x108(%rbp)
   12ced:	48 c7 85 00 ff ff ff 	movq   $0x0,-0x100(%rbp)
   12cf4:	00 00 00 00 
   12cf8:	48 8d 85 a0 ed ff ff 	lea    -0x1260(%rbp),%rax
   12cff:	48 89 85 08 ff ff ff 	mov    %rax,-0xf8(%rbp)
   12d06:	48 8d 85 70 ee ff ff 	lea    -0x1190(%rbp),%rax
   12d0d:	48 89 85 10 ff ff ff 	mov    %rax,-0xf0(%rbp)
   12d14:	48 8d 85 90 ed ff ff 	lea    -0x1270(%rbp),%rax
   12d1b:	48 89 85 18 ff ff ff 	mov    %rax,-0xe8(%rbp)
   12d22:	48 8d 85 70 ee ff ff 	lea    -0x1190(%rbp),%rax
   12d29:	48 89 85 20 ff ff ff 	mov    %rax,-0xe0(%rbp)
   12d30:	48 8d 85 94 ed ff ff 	lea    -0x126c(%rbp),%rax
   12d37:	48 89 85 28 ff ff ff 	mov    %rax,-0xd8(%rbp)
   12d3e:	48 8d 85 a0 ed ff ff 	lea    -0x1260(%rbp),%rax
   12d45:	48 89 85 30 ff ff ff 	mov    %rax,-0xd0(%rbp)
   12d4c:	48 8d 85 90 ed ff ff 	lea    -0x1270(%rbp),%rax
   12d53:	48 89 85 38 ff ff ff 	mov    %rax,-0xc8(%rbp)
   12d5a:	48 8d 85 8c ed ff ff 	lea    -0x1274(%rbp),%rax
   12d61:	48 89 85 40 ff ff ff 	mov    %rax,-0xc0(%rbp)
   12d68:	48 c7 85 48 ff ff ff 	movq   $0x0,-0xb8(%rbp)
   12d6f:	00 00 00 00 
   12d73:	48 8d 85 a0 ed ff ff 	lea    -0x1260(%rbp),%rax
   12d7a:	48 89 85 50 ff ff ff 	mov    %rax,-0xb0(%rbp)
   12d81:	48 8d 85 94 ed ff ff 	lea    -0x126c(%rbp),%rax
   12d88:	48 89 85 58 ff ff ff 	mov    %rax,-0xa8(%rbp)
   12d8f:	48 8d 85 84 ed ff ff 	lea    -0x127c(%rbp),%rax
   12d96:	48 89 85 60 ff ff ff 	mov    %rax,-0xa0(%rbp)
   12d9d:	48 8d 85 88 ed ff ff 	lea    -0x1278(%rbp),%rax
   12da4:	48 89 85 68 ff ff ff 	mov    %rax,-0x98(%rbp)
   12dab:	48 8d 85 70 ee ff ff 	lea    -0x1190(%rbp),%rax
   12db2:	48 89 85 70 ff ff ff 	mov    %rax,-0x90(%rbp)
   12db9:	48 8d 85 94 ed ff ff 	lea    -0x126c(%rbp),%rax
   12dc0:	48 89 85 78 ff ff ff 	mov    %rax,-0x88(%rbp)
   12dc7:	48 8d 85 9c ed ff ff 	lea    -0x1264(%rbp),%rax
   12dce:	48 89 45 80          	mov    %rax,-0x80(%rbp)
   12dd2:	48 c7 45 88 00 00 00 	movq   $0x0,-0x78(%rbp)
   12dd9:	00 
   12dda:	48 8d 85 7c ed ff ff 	lea    -0x1284(%rbp),%rax
   12de1:	48 89 45 90          	mov    %rax,-0x70(%rbp)
   12de5:	48 8d 85 70 ee ff ff 	lea    -0x1190(%rbp),%rax
   12dec:	48 89 45 98          	mov    %rax,-0x68(%rbp)
   12df0:	48 c7 45 a0 00 00 00 	movq   $0x0,-0x60(%rbp)
   12df7:	00 
   12df8:	48 8d 05 25 02 01 00 	lea    0x10225(%rip),%rax        # 23024 <g_18>
   12dff:	48 89 45 a8          	mov    %rax,-0x58(%rbp)
   12e03:	48 c7 45 b0 00 00 00 	movq   $0x0,-0x50(%rbp)
   12e0a:	00 
   12e0b:	48 c7 45 b8 00 00 00 	movq   $0x0,-0x48(%rbp)
   12e12:	00 
   12e13:	c7 85 28 ee ff ff 06 	movl   $0x6,-0x11d8(%rbp)
   12e1a:	00 00 00 
   12e1d:	66 c7 85 7a ed ff ff 	movw   $0x1f6f,-0x1286(%rbp)
   12e24:	6f 1f 
   12e26:	48 8b 85 b8 ee ff ff 	mov    -0x1148(%rbp),%rax
   12e2d:	48 8b 00             	mov    (%rax),%rax
   12e30:	0f b6 00             	movzbl (%rax),%eax
   12e33:	89 c2                	mov    %eax,%edx
   12e35:	0f b7 85 78 ed ff ff 	movzwl -0x1288(%rbp),%eax
   12e3c:	09 c2                	or     %eax,%edx
   12e3e:	48 8b 85 b8 ee ff ff 	mov    -0x1148(%rbp),%rax
   12e45:	48 8b 00             	mov    (%rax),%rax
   12e48:	88 10                	mov    %dl,(%rax)
   12e4a:	0f b6 00             	movzbl (%rax),%eax
   12e4d:	0f b6 d8             	movzbl %al,%ebx
   12e50:	48 8b 85 b0 ee ff ff 	mov    -0x1150(%rbp),%rax
   12e57:	8b 00                	mov    (%rax),%eax
   12e59:	0f b7 d0             	movzwl %ax,%edx
   12e5c:	66 81 bd 58 ed ff ff 	cmpw   $0xf0c6,-0x12a8(%rbp)
   12e63:	c6 f0 
   12e65:	77 11                	ja     12e78 <func_12+0x55a9>
   12e67:	8b 85 98 ed ff ff    	mov    -0x1268(%rbp),%eax
   12e6d:	85 c0                	test   %eax,%eax
   12e6f:	74 07                	je     12e78 <func_12+0x55a9>
   12e71:	b9 01 00 00 00       	mov    $0x1,%ecx
   12e76:	eb 05                	jmp    12e7d <func_12+0x55ae>
   12e78:	b9 00 00 00 00       	mov    $0x0,%ecx
   12e7d:	8b 85 54 ed ff ff    	mov    -0x12ac(%rbp),%eax
   12e83:	39 c1                	cmp    %eax,%ecx
   12e85:	0f 94 c1             	sete   %cl
   12e88:	48 8b 85 b8 ef ff ff 	mov    -0x1048(%rbp),%rax
   12e8f:	48 89 85 70 f0 ff ff 	mov    %rax,-0xf90(%rbp)
   12e96:	48 8b 85 70 f0 ff ff 	mov    -0xf90(%rbp),%rax
   12e9d:	48 39 85 b0 ef ff ff 	cmp    %rax,-0x1050(%rbp)
   12ea4:	0f 95 c0             	setne  %al
   12ea7:	31 c8                	xor    %ecx,%eax
   12ea9:	0f b6 c0             	movzbl %al,%eax
   12eac:	89 d6                	mov    %edx,%esi
   12eae:	89 c7                	mov    %eax,%edi
   12eb0:	e8 88 5e ff ff       	callq  8d3d <safe_mul_func_uint16_t_u_u>
   12eb5:	0f b7 d0             	movzwl %ax,%edx
   12eb8:	8b 85 70 ee ff ff    	mov    -0x1190(%rbp),%eax
   12ebe:	31 d0                	xor    %edx,%eax
   12ec0:	89 85 70 ee ff ff    	mov    %eax,-0x1190(%rbp)
   12ec6:	8b 85 70 ee ff ff    	mov    -0x1190(%rbp),%eax
   12ecc:	0f be c0             	movsbl %al,%eax
   12ecf:	be 30 00 00 00       	mov    $0x30,%esi
   12ed4:	89 c7                	mov    %eax,%edi
   12ed6:	e8 f9 52 ff ff       	callq  81d4 <safe_add_func_int8_t_s_s>
   12edb:	0f be c0             	movsbl %al,%eax
   12ede:	39 c3                	cmp    %eax,%ebx
   12ee0:	0f 9f c0             	setg   %al
   12ee3:	0f b6 c0             	movzbl %al,%eax
   12ee6:	89 85 78 ee ff ff    	mov    %eax,-0x1188(%rbp)
   12eec:	48 8b 05 c5 23 01 00 	mov    0x123c5(%rip),%rax        # 252b8 <g_443>
   12ef3:	0f b7 00             	movzwl (%rax),%eax
   12ef6:	0f b7 c0             	movzwl %ax,%eax
   12ef9:	be fe ff 00 00       	mov    $0xfffe,%esi
   12efe:	89 c7                	mov    %eax,%edi
   12f00:	e8 38 5e ff ff       	callq  8d3d <safe_mul_func_uint16_t_u_u>
   12f05:	48 8b 85 c0 ef ff ff 	mov    -0x1040(%rbp),%rax
   12f0c:	48 3b 85 a8 ef ff ff 	cmp    -0x1058(%rbp),%rax
   12f13:	75 07                	jne    12f1c <func_12+0x564d>
   12f15:	b9 01 00 00 00       	mov    $0x1,%ecx
   12f1a:	eb 05                	jmp    12f21 <func_12+0x5652>
   12f1c:	b9 00 00 00 00       	mov    $0x0,%ecx
   12f21:	48 8b 85 c0 ef ff ff 	mov    -0x1040(%rbp),%rax
   12f28:	48 8b 00             	mov    (%rax),%rax
   12f2b:	8b 10                	mov    (%rax),%edx
   12f2d:	48 8b 85 c0 ef ff ff 	mov    -0x1040(%rbp),%rax
   12f34:	48 8b 00             	mov    (%rax),%rax
   12f37:	21 ca                	and    %ecx,%edx
   12f39:	89 10                	mov    %edx,(%rax)
   12f3b:	48 8b 85 b0 ee ff ff 	mov    -0x1150(%rbp),%rax
   12f42:	8b 00                	mov    (%rax),%eax
   12f44:	85 c0                	test   %eax,%eax
   12f46:	0f 84 d6 00 00 00    	je     13022 <func_12+0x5753>
   12f4c:	c6 85 6a ed ff ff 04 	movb   $0x4,-0x1296(%rbp)
   12f53:	48 c7 85 d0 ef ff ff 	movq   $0x0,-0x1030(%rbp)
   12f5a:	00 00 00 00 
   12f5e:	48 8d 85 7c ed ff ff 	lea    -0x1284(%rbp),%rax
   12f65:	48 89 85 d8 ef ff ff 	mov    %rax,-0x1028(%rbp)
   12f6c:	48 8d 85 d0 f2 ff ff 	lea    -0xd30(%rbp),%rax
   12f73:	48 83 c0 04          	add    $0x4,%rax
   12f77:	48 89 85 e0 ef ff ff 	mov    %rax,-0x1020(%rbp)
   12f7e:	48 c7 85 e8 ef ff ff 	movq   $0xffffffffffffffff,-0x1018(%rbp)
   12f85:	ff ff ff ff 
   12f89:	c7 85 ac ed ff ff 00 	movl   $0x0,-0x1254(%rbp)
   12f90:	00 00 00 
   12f93:	eb 52                	jmp    12fe7 <func_12+0x5718>
   12f95:	c7 85 b0 ed ff ff 00 	movl   $0x0,-0x1250(%rbp)
   12f9c:	00 00 00 
   12f9f:	eb 36                	jmp    12fd7 <func_12+0x5708>
   12fa1:	8b 85 b0 ed ff ff    	mov    -0x1250(%rbp),%eax
   12fa7:	48 63 c8             	movslq %eax,%rcx
   12faa:	8b 85 ac ed ff ff    	mov    -0x1254(%rbp),%eax
   12fb0:	48 63 d0             	movslq %eax,%rdx
   12fb3:	48 89 d0             	mov    %rdx,%rax
   12fb6:	48 c1 e0 03          	shl    $0x3,%rax
   12fba:	48 29 d0             	sub    %rdx,%rax
   12fbd:	48 8d 14 08          	lea    (%rax,%rcx,1),%rdx
   12fc1:	48 8d 85 90 ed ff ff 	lea    -0x1270(%rbp),%rax
   12fc8:	48 89 84 d5 d0 f4 ff 	mov    %rax,-0xb30(%rbp,%rdx,8)
   12fcf:	ff 
   12fd0:	83 85 b0 ed ff ff 01 	addl   $0x1,-0x1250(%rbp)
   12fd7:	83 bd b0 ed ff ff 06 	cmpl   $0x6,-0x1250(%rbp)
   12fde:	7e c1                	jle    12fa1 <func_12+0x56d2>
   12fe0:	83 85 ac ed ff ff 01 	addl   $0x1,-0x1254(%rbp)
   12fe7:	83 bd ac ed ff ff 04 	cmpl   $0x4,-0x1254(%rbp)
   12fee:	7e a5                	jle    12f95 <func_12+0x56c6>
   12ff0:	48 83 85 e8 ef ff ff 	addq   $0x1,-0x1018(%rbp)
   12ff7:	01 
   12ff8:	48 8b 05 f9 2a 01 00 	mov    0x12af9(%rip),%rax        # 25af8 <g_764>
   12fff:	8b 08                	mov    (%rax),%ecx
   13001:	0f b7 95 58 ed ff ff 	movzwl -0x12a8(%rbp),%edx
   13008:	48 8b 05 e9 2a 01 00 	mov    0x12ae9(%rip),%rax        # 25af8 <g_764>
   1300f:	31 ca                	xor    %ecx,%edx
   13011:	89 10                	mov    %edx,(%rax)
   13013:	48 8b 05 be 2f 01 00 	mov    0x12fbe(%rip),%rax        # 25fd8 <g_1469>
   1301a:	48 8b 00             	mov    (%rax),%rax
   1301d:	e9 47 01 00 00       	jmpq   13169 <func_12+0x589a>
   13022:	c6 05 7f 03 01 00 00 	movb   $0x0,0x1037f(%rip)        # 233a8 <g_937>
   13029:	eb 49                	jmp    13074 <func_12+0x57a5>
   1302b:	c7 85 94 ed ff ff 00 	movl   $0x0,-0x126c(%rbp)
   13032:	00 00 00 
   13035:	90                   	nop
   13036:	8b 85 94 ed ff ff    	mov    -0x126c(%rbp),%eax
   1303c:	83 f8 01             	cmp    $0x1,%eax
   1303f:	7f 23                	jg     13064 <func_12+0x5795>
   13041:	c7 85 2c ee ff ff a4 	movl   $0x17ce5ba4,-0x11d4(%rbp)
   13048:	5b ce 17 
   1304b:	83 ad 2c ee ff ff 01 	subl   $0x1,-0x11d4(%rbp)
   13052:	48 8b 85 c0 ee ff ff 	mov    -0x1140(%rbp),%rax
   13059:	48 8b 00             	mov    (%rax),%rax
   1305c:	48 8b 00             	mov    (%rax),%rax
   1305f:	e9 05 01 00 00       	jmpq   13169 <func_12+0x589a>
   13064:	0f b6 05 3d 03 01 00 	movzbl 0x1033d(%rip),%eax        # 233a8 <g_937>
   1306b:	83 c0 01             	add    $0x1,%eax
   1306e:	88 05 34 03 01 00    	mov    %al,0x10334(%rip)        # 233a8 <g_937>
   13074:	0f b6 05 2d 03 01 00 	movzbl 0x1032d(%rip),%eax        # 233a8 <g_937>
   1307b:	3c 1e                	cmp    $0x1e,%al
   1307d:	76 ac                	jbe    1302b <func_12+0x575c>
   1307f:	48 83 85 d0 ee ff ff 	addq   $0x1,-0x1130(%rbp)
   13086:	01 
   13087:	0f b7 85 7a ed ff ff 	movzwl -0x1286(%rbp),%eax
   1308e:	83 e8 01             	sub    $0x1,%eax
   13091:	66 89 85 7a ed ff ff 	mov    %ax,-0x1286(%rbp)
   13098:	c7 05 ee 03 01 00 00 	movl   $0x0,0x103ee(%rip)        # 23490 <g_1947>
   1309f:	00 00 00 
   130a2:	e9 a6 00 00 00       	jmpq   1314d <func_12+0x587e>
   130a7:	c6 85 6b ed ff ff f9 	movb   $0xf9,-0x1295(%rbp)
   130ae:	c7 85 30 ee ff ff 6c 	movl   $0xb756a96c,-0x11d0(%rbp)
   130b5:	a9 56 b7 
   130b8:	48 c7 85 38 f0 ff ff 	movq   $0xfffffffffffffffe,-0xfc8(%rbp)
   130bf:	fe ff ff ff 
   130c3:	c7 85 34 ee ff ff e1 	movl   $0x2cde7ee1,-0x11cc(%rbp)
   130ca:	7e de 2c 
   130cd:	c7 85 38 ee ff ff f8 	movl   $0xfffffff8,-0x11c8(%rbp)
   130d4:	ff ff ff 
   130d7:	48 8d 05 76 ff 00 00 	lea    0xff76(%rip),%rax        # 23054 <g_123>
   130de:	48 89 85 40 f0 ff ff 	mov    %rax,-0xfc0(%rbp)
   130e5:	c7 85 3c ee ff ff 00 	movl   $0x0,-0x11c4(%rbp)
   130ec:	00 00 00 
   130ef:	48 8d 85 f0 f7 ff ff 	lea    -0x810(%rbp),%rax
   130f6:	48 8d 15 03 b4 00 00 	lea    0xb403(%rip),%rdx        # 1e500 <g_2423+0x450>
   130fd:	b9 78 00 00 00       	mov    $0x78,%ecx
   13102:	48 89 c7             	mov    %rax,%rdi
   13105:	48 89 d6             	mov    %rdx,%rsi
   13108:	f3 48 a5             	rep movsq %ds:(%rsi),%es:(%rdi)
   1310b:	48 c7 85 48 f0 ff ff 	movq   $0xfffffffffffffffb,-0xfb8(%rbp)
   13112:	fb ff ff ff 
   13116:	48 8d 05 07 ff 00 00 	lea    0xff07(%rip),%rax        # 23024 <g_18>
   1311d:	48 89 85 50 f0 ff ff 	mov    %rax,-0xfb0(%rbp)
   13124:	48 c7 85 58 f0 ff ff 	movq   $0x0,-0xfa8(%rbp)
   1312b:	00 00 00 00 
   1312f:	8b 05 5b 03 01 00    	mov    0x1035b(%rip),%eax        # 23490 <g_1947>
   13135:	0f b7 c0             	movzwl %ax,%eax
   13138:	be 03 00 00 00       	mov    $0x3,%esi
   1313d:	89 c7                	mov    %eax,%edi
   1313f:	e8 bb 5b ff ff       	callq  8cff <safe_add_func_uint16_t_u_u>
   13144:	0f b7 c0             	movzwl %ax,%eax
   13147:	89 05 43 03 01 00    	mov    %eax,0x10343(%rip)        # 23490 <g_1947>
   1314d:	8b 05 3d 03 01 00    	mov    0x1033d(%rip),%eax        # 23490 <g_1947>
   13153:	83 f8 2d             	cmp    $0x2d,%eax
   13156:	0f 87 4b ff ff ff    	ja     130a7 <func_12+0x57d8>
   1315c:	48 8b 05 7d 2e 01 00 	mov    0x12e7d(%rip),%rax        # 25fe0 <g_1468>
   13163:	48 8b 00             	mov    (%rax),%rax
   13166:	48 8b 00             	mov    (%rax),%rax
   13169:	48 8b 5d d8          	mov    -0x28(%rbp),%rbx
   1316d:	64 48 33 1c 25 28 00 	xor    %fs:0x28,%rbx
   13174:	00 00 
   13176:	74 05                	je     1317d <func_12+0x58ae>
   13178:	e8 f3 4e ff ff       	callq  8070 <__stack_chk_fail@plt>
   1317d:	48 81 c4 a8 12 00 00 	add    $0x12a8,%rsp
   13184:	5b                   	pop    %rbx
   13185:	41 5c                	pop    %r12
   13187:	41 5d                	pop    %r13
   13189:	5d                   	pop    %rbp
   1318a:	c3                   	retq   

000000000001318b <func_21>:
   1318b:	f3 0f 1e fa          	endbr64 
   1318f:	55                   	push   %rbp
   13190:	48 89 e5             	mov    %rsp,%rbp
   13193:	41 57                	push   %r15
   13195:	41 56                	push   %r14
   13197:	41 55                	push   %r13
   13199:	41 54                	push   %r12
   1319b:	53                   	push   %rbx
   1319c:	48 81 ec 38 07 00 00 	sub    $0x738,%rsp
   131a3:	89 bd ac f8 ff ff    	mov    %edi,-0x754(%rbp)
   131a9:	89 b5 a8 f8 ff ff    	mov    %esi,-0x758(%rbp)
   131af:	64 48 8b 04 25 28 00 	mov    %fs:0x28,%rax
   131b6:	00 00 
   131b8:	48 89 45 c8          	mov    %rax,-0x38(%rbp)
   131bc:	31 c0                	xor    %eax,%eax
   131be:	c7 85 20 f9 ff ff fa 	movl   $0xfffffffa,-0x6e0(%rbp)
   131c5:	ff ff ff 
   131c8:	c7 85 24 f9 ff ff fa 	movl   $0xfffffffa,-0x6dc(%rbp)
   131cf:	ff ff ff 
   131d2:	c7 85 28 f9 ff ff fa 	movl   $0xfffffffa,-0x6d8(%rbp)
   131d9:	ff ff ff 
   131dc:	c7 85 2c f9 ff ff fa 	movl   $0xfffffffa,-0x6d4(%rbp)
   131e3:	ff ff ff 
   131e6:	c7 85 bc f8 ff ff 61 	movl   $0xa84b2d61,-0x744(%rbp)
   131ed:	2d 4b a8 
   131f0:	48 c7 85 e0 f8 ff ff 	movq   $0x0,-0x720(%rbp)
   131f7:	00 00 00 00 
   131fb:	48 8d 05 7c fe 00 00 	lea    0xfe7c(%rip),%rax        # 2307e <g_158+0x1e>
   13202:	48 89 85 e8 f8 ff ff 	mov    %rax,-0x718(%rbp)
   13209:	c6 85 b4 f8 ff ff b6 	movb   $0xb6,-0x74c(%rbp)
   13210:	48 c7 85 f0 f8 ff ff 	movq   $0x0,-0x710(%rbp)
   13217:	00 00 00 00 
   1321b:	66 c7 85 b6 f8 ff ff 	movw   $0x0,-0x74a(%rbp)
   13222:	00 00 
   13224:	48 c7 85 c8 f8 ff ff 	movq   $0x0,-0x738(%rbp)
   1322b:	00 00 00 00 
   1322f:	48 8d 85 c8 f8 ff ff 	lea    -0x738(%rbp),%rax
   13236:	48 89 85 f8 f8 ff ff 	mov    %rax,-0x708(%rbp)
   1323d:	c7 85 b8 f8 ff ff 00 	movl   $0x0,-0x748(%rbp)
   13244:	00 00 00 
   13247:	eb 19                	jmp    13262 <func_21+0xd7>
   13249:	8b 85 b8 f8 ff ff    	mov    -0x748(%rbp),%eax
   1324f:	48 98                	cltq   
   13251:	66 c7 84 45 1a f9 ff 	movw   $0x9,-0x6e6(%rbp,%rax,2)
   13258:	ff 09 00 
   1325b:	83 85 b8 f8 ff ff 01 	addl   $0x1,-0x748(%rbp)
   13262:	83 bd b8 f8 ff ff 02 	cmpl   $0x2,-0x748(%rbp)
   13269:	7e de                	jle    13249 <func_21+0xbe>
   1326b:	0f b6 9d b4 f8 ff ff 	movzbl -0x74c(%rbp),%ebx
   13272:	8b 85 ac f8 ff ff    	mov    -0x754(%rbp),%eax
   13278:	44 0f b7 e0          	movzwl %ax,%r12d
   1327c:	8b 85 28 f9 ff ff    	mov    -0x6d8(%rbp),%eax
   13282:	85 c0                	test   %eax,%eax
   13284:	0f 85 d3 00 00 00    	jne    1335d <func_21+0x1d2>
   1328a:	8b 85 a8 f8 ff ff    	mov    -0x758(%rbp),%eax
   13290:	44 0f b7 e8          	movzwl %ax,%r13d
   13294:	8b 85 28 f9 ff ff    	mov    -0x6d8(%rbp),%eax
   1329a:	44 0f bf f0          	movswl %ax,%r14d
   1329e:	48 8b 05 0b 20 01 00 	mov    0x1200b(%rip),%rax        # 252b0 <g_432>
   132a5:	0f b6 00             	movzbl (%rax),%eax
   132a8:	44 0f be f8          	movsbl %al,%r15d
   132ac:	8b 85 20 f9 ff ff    	mov    -0x6e0(%rbp),%eax
   132b2:	0f b6 d0             	movzbl %al,%edx
   132b5:	48 8b 05 bc 33 01 00 	mov    0x133bc(%rip),%rax        # 26678 <g_1441>
   132bc:	48 85 c0             	test   %rax,%rax
   132bf:	0f 95 c0             	setne  %al
   132c2:	0f b6 c0             	movzbl %al,%eax
   132c5:	89 d6                	mov    %edx,%esi
   132c7:	89 c7                	mov    %eax,%edi
   132c9:	e8 c5 58 ff ff       	callq  8b93 <safe_mul_func_uint8_t_u_u>
   132ce:	0f b6 c0             	movzbl %al,%eax
   132d1:	23 85 ac f8 ff ff    	and    -0x754(%rbp),%eax
   132d7:	8b 95 28 f9 ff ff    	mov    -0x6d8(%rbp),%edx
   132dd:	21 d0                	and    %edx,%eax
   132df:	89 85 bc f8 ff ff    	mov    %eax,-0x744(%rbp)
   132e5:	8b 85 bc f8 ff ff    	mov    -0x744(%rbp),%eax
   132eb:	0f be c0             	movsbl %al,%eax
   132ee:	44 89 fe             	mov    %r15d,%esi
   132f1:	89 c7                	mov    %eax,%edi
   132f3:	e8 3d 50 ff ff       	callq  8335 <safe_rshift_func_int8_t_s_s>
   132f8:	48 0f be c0          	movsbq %al,%rax
   132fc:	48 c7 c6 ff ff ff ff 	mov    $0xffffffffffffffff,%rsi
   13303:	48 89 c7             	mov    %rax,%rdi
   13306:	e8 ec 56 ff ff       	callq  89f7 <safe_div_func_int64_t_s_s>
   1330b:	0f b7 95 1a f9 ff ff 	movzwl -0x6e6(%rbp),%edx
   13312:	09 d0                	or     %edx,%eax
   13314:	66 89 85 1a f9 ff ff 	mov    %ax,-0x6e6(%rbp)
   1331b:	83 bd a8 f8 ff ff 00 	cmpl   $0x0,-0x758(%rbp)
   13322:	0f 94 c0             	sete   %al
   13325:	0f b6 c0             	movzbl %al,%eax
   13328:	44 89 f6             	mov    %r14d,%esi
   1332b:	89 c7                	mov    %eax,%edi
   1332d:	e8 e4 50 ff ff       	callq  8416 <safe_mod_func_int16_t_s_s>
   13332:	0f bf d0             	movswl %ax,%edx
   13335:	8b 85 20 f9 ff ff    	mov    -0x6e0(%rbp),%eax
   1333b:	09 d0                	or     %edx,%eax
   1333d:	39 85 ac f8 ff ff    	cmp    %eax,-0x754(%rbp)
   13343:	0f 93 c0             	setae  %al
   13346:	0f b6 c0             	movzbl %al,%eax
   13349:	44 89 ee             	mov    %r13d,%esi
   1334c:	89 c7                	mov    %eax,%edi
   1334e:	e8 09 5a ff ff       	callq  8d5c <safe_mod_func_uint16_t_u_u>
   13353:	48 83 bd e0 f8 ff ff 	cmpq   $0x0,-0x720(%rbp)
   1335a:	00 
   1335b:	75 07                	jne    13364 <func_21+0x1d9>
   1335d:	ba 01 00 00 00       	mov    $0x1,%edx
   13362:	eb 05                	jmp    13369 <func_21+0x1de>
   13364:	ba 00 00 00 00       	mov    $0x0,%edx
   13369:	8b 85 a8 f8 ff ff    	mov    -0x758(%rbp),%eax
   1336f:	89 c6                	mov    %eax,%esi
   13371:	89 d7                	mov    %edx,%edi
   13373:	e8 87 53 ff ff       	callq  86ff <safe_div_func_int32_t_s_s>
   13378:	0f b6 15 21 fe 00 00 	movzbl 0xfe21(%rip),%edx        # 231a0 <g_595>
   1337f:	0f b6 d2             	movzbl %dl,%edx
   13382:	31 d0                	xor    %edx,%eax
   13384:	3d bc 00 00 00       	cmp    $0xbc,%eax
   13389:	0f 9f c0             	setg   %al
   1338c:	0f b6 c0             	movzbl %al,%eax
   1338f:	44 89 e6             	mov    %r12d,%esi
   13392:	89 c7                	mov    %eax,%edi
   13394:	e8 a4 59 ff ff       	callq  8d3d <safe_mul_func_uint16_t_u_u>
   13399:	89 c2                	mov    %eax,%edx
   1339b:	48 8b 85 e8 f8 ff ff 	mov    -0x718(%rbp),%rax
   133a2:	66 89 10             	mov    %dx,(%rax)
   133a5:	b8 01 00 00 00       	mov    $0x1,%eax
   133aa:	89 de                	mov    %ebx,%esi
   133ac:	89 c7                	mov    %eax,%edi
   133ae:	e8 05 5b ff ff       	callq  8eb8 <safe_add_func_uint32_t_u_u>
   133b3:	48 8b 15 46 17 01 00 	mov    0x11746(%rip),%rdx        # 24b00 <g_135>
   133ba:	48 8b 12             	mov    (%rdx),%rdx
   133bd:	8b 12                	mov    (%rdx),%edx
   133bf:	09 c2                	or     %eax,%edx
   133c1:	48 8b 05 38 17 01 00 	mov    0x11738(%rip),%rax        # 24b00 <g_135>
   133c8:	48 8b 00             	mov    (%rax),%rax
   133cb:	89 10                	mov    %edx,(%rax)
   133cd:	c7 05 dd fc 00 00 00 	movl   $0x0,0xfcdd(%rip)        # 230b4 <g_243>
   133d4:	00 00 00 
   133d7:	e9 c2 0c 00 00       	jmpq   1409e <func_21+0xf13>
   133dc:	c7 85 c0 f8 ff ff e7 	movl   $0x69683fe7,-0x740(%rbp)
   133e3:	3f 68 69 
   133e6:	48 8d 05 eb 22 01 00 	lea    0x122eb(%rip),%rax        # 256d8 <g_447+0x3d8>
   133ed:	48 89 85 d0 f8 ff ff 	mov    %rax,-0x730(%rbp)
   133f4:	48 c7 85 30 f9 ff ff 	movq   $0x0,-0x6d0(%rbp)
   133fb:	00 00 00 00 
   133ff:	48 8d 85 d0 f8 ff ff 	lea    -0x730(%rbp),%rax
   13406:	48 89 85 38 f9 ff ff 	mov    %rax,-0x6c8(%rbp)
   1340d:	48 c7 85 40 f9 ff ff 	movq   $0x0,-0x6c0(%rbp)
   13414:	00 00 00 00 
   13418:	48 8d 85 d0 f8 ff ff 	lea    -0x730(%rbp),%rax
   1341f:	48 89 85 48 f9 ff ff 	mov    %rax,-0x6b8(%rbp)
   13426:	48 c7 85 50 f9 ff ff 	movq   $0x0,-0x6b0(%rbp)
   1342d:	00 00 00 00 
   13431:	48 8d 85 d0 f8 ff ff 	lea    -0x730(%rbp),%rax
   13438:	48 89 85 58 f9 ff ff 	mov    %rax,-0x6a8(%rbp)
   1343f:	48 c7 85 60 f9 ff ff 	movq   $0x0,-0x6a0(%rbp)
   13446:	00 00 00 00 
   1344a:	48 8d 85 d0 f8 ff ff 	lea    -0x730(%rbp),%rax
   13451:	48 89 85 68 f9 ff ff 	mov    %rax,-0x698(%rbp)
   13458:	48 c7 85 70 f9 ff ff 	movq   $0x0,-0x690(%rbp)
   1345f:	00 00 00 00 
   13463:	48 8d 85 d0 f8 ff ff 	lea    -0x730(%rbp),%rax
   1346a:	48 89 85 78 f9 ff ff 	mov    %rax,-0x688(%rbp)
   13471:	48 8d 05 b8 fb 00 00 	lea    0xfbb8(%rip),%rax        # 23030 <g_46>
   13478:	48 89 85 00 f9 ff ff 	mov    %rax,-0x700(%rbp)
   1347f:	48 b8 6d 2e 6a fb cd 	movabs $0xaf6bd6cdfb6a2e6d,%rax
   13486:	d6 6b af 
   13489:	48 89 85 08 f9 ff ff 	mov    %rax,-0x6f8(%rbp)
   13490:	c6 05 9d fb 00 00 05 	movb   $0x5,0xfb9d(%rip)        # 23034 <g_55>
   13497:	e9 6f 0b 00 00       	jmpq   1400b <func_21+0xe80>
   1349c:	48 8d 05 81 fb 00 00 	lea    0xfb81(%rip),%rax        # 23024 <g_18>
   134a3:	48 89 85 d8 f8 ff ff 	mov    %rax,-0x728(%rbp)
   134aa:	48 8d 85 d8 f8 ff ff 	lea    -0x728(%rbp),%rax
   134b1:	48 89 85 80 f9 ff ff 	mov    %rax,-0x680(%rbp)
   134b8:	48 8d 85 d8 f8 ff ff 	lea    -0x728(%rbp),%rax
   134bf:	48 89 85 88 f9 ff ff 	mov    %rax,-0x678(%rbp)
   134c6:	48 8d 85 d8 f8 ff ff 	lea    -0x728(%rbp),%rax
   134cd:	48 89 85 90 f9 ff ff 	mov    %rax,-0x670(%rbp)
   134d4:	48 8d 85 d8 f8 ff ff 	lea    -0x728(%rbp),%rax
   134db:	48 89 85 98 f9 ff ff 	mov    %rax,-0x668(%rbp)
   134e2:	48 8d 85 d8 f8 ff ff 	lea    -0x728(%rbp),%rax
   134e9:	48 89 85 a0 f9 ff ff 	mov    %rax,-0x660(%rbp)
   134f0:	48 8d 85 d8 f8 ff ff 	lea    -0x728(%rbp),%rax
   134f7:	48 89 85 a8 f9 ff ff 	mov    %rax,-0x658(%rbp)
   134fe:	48 8d 85 d8 f8 ff ff 	lea    -0x728(%rbp),%rax
   13505:	48 89 85 b0 f9 ff ff 	mov    %rax,-0x650(%rbp)
   1350c:	48 8d 85 d8 f8 ff ff 	lea    -0x728(%rbp),%rax
   13513:	48 89 85 b8 f9 ff ff 	mov    %rax,-0x648(%rbp)
   1351a:	48 8d 85 d8 f8 ff ff 	lea    -0x728(%rbp),%rax
   13521:	48 89 85 c0 f9 ff ff 	mov    %rax,-0x640(%rbp)
   13528:	48 8d 85 d8 f8 ff ff 	lea    -0x728(%rbp),%rax
   1352f:	48 89 85 c8 f9 ff ff 	mov    %rax,-0x638(%rbp)
   13536:	48 8d 85 d8 f8 ff ff 	lea    -0x728(%rbp),%rax
   1353d:	48 89 85 d0 f9 ff ff 	mov    %rax,-0x630(%rbp)
   13544:	48 c7 85 d8 f9 ff ff 	movq   $0x0,-0x628(%rbp)
   1354b:	00 00 00 00 
   1354f:	48 c7 85 e0 f9 ff ff 	movq   $0x0,-0x620(%rbp)
   13556:	00 00 00 00 
   1355a:	48 8d 85 d8 f8 ff ff 	lea    -0x728(%rbp),%rax
   13561:	48 89 85 e8 f9 ff ff 	mov    %rax,-0x618(%rbp)
   13568:	48 c7 85 f0 f9 ff ff 	movq   $0x0,-0x610(%rbp)
   1356f:	00 00 00 00 
   13573:	48 8d 85 d8 f8 ff ff 	lea    -0x728(%rbp),%rax
   1357a:	48 89 85 f8 f9 ff ff 	mov    %rax,-0x608(%rbp)
   13581:	48 8d 85 d8 f8 ff ff 	lea    -0x728(%rbp),%rax
   13588:	48 89 85 00 fa ff ff 	mov    %rax,-0x600(%rbp)
   1358f:	48 8d 85 d8 f8 ff ff 	lea    -0x728(%rbp),%rax
   13596:	48 89 85 08 fa ff ff 	mov    %rax,-0x5f8(%rbp)
   1359d:	48 8d 85 d8 f8 ff ff 	lea    -0x728(%rbp),%rax
   135a4:	48 89 85 10 fa ff ff 	mov    %rax,-0x5f0(%rbp)
   135ab:	48 c7 85 18 fa ff ff 	movq   $0x0,-0x5e8(%rbp)
   135b2:	00 00 00 00 
   135b6:	48 8d 85 d8 f8 ff ff 	lea    -0x728(%rbp),%rax
   135bd:	48 89 85 20 fa ff ff 	mov    %rax,-0x5e0(%rbp)
   135c4:	48 c7 85 28 fa ff ff 	movq   $0x0,-0x5d8(%rbp)
   135cb:	00 00 00 00 
   135cf:	48 8d 85 d8 f8 ff ff 	lea    -0x728(%rbp),%rax
   135d6:	48 89 85 30 fa ff ff 	mov    %rax,-0x5d0(%rbp)
   135dd:	48 8d 85 d8 f8 ff ff 	lea    -0x728(%rbp),%rax
   135e4:	48 89 85 38 fa ff ff 	mov    %rax,-0x5c8(%rbp)
   135eb:	48 8d 85 d8 f8 ff ff 	lea    -0x728(%rbp),%rax
   135f2:	48 89 85 40 fa ff ff 	mov    %rax,-0x5c0(%rbp)
   135f9:	48 8d 85 d8 f8 ff ff 	lea    -0x728(%rbp),%rax
   13600:	48 89 85 48 fa ff ff 	mov    %rax,-0x5b8(%rbp)
   13607:	48 c7 85 50 fa ff ff 	movq   $0x0,-0x5b0(%rbp)
   1360e:	00 00 00 00 
   13612:	48 8d 85 d8 f8 ff ff 	lea    -0x728(%rbp),%rax
   13619:	48 89 85 58 fa ff ff 	mov    %rax,-0x5a8(%rbp)
   13620:	48 c7 85 60 fa ff ff 	movq   $0x0,-0x5a0(%rbp)
   13627:	00 00 00 00 
   1362b:	48 c7 85 68 fa ff ff 	movq   $0x0,-0x598(%rbp)
   13632:	00 00 00 00 
   13636:	48 8d 85 d8 f8 ff ff 	lea    -0x728(%rbp),%rax
   1363d:	48 89 85 70 fa ff ff 	mov    %rax,-0x590(%rbp)
   13644:	48 8d 85 d8 f8 ff ff 	lea    -0x728(%rbp),%rax
   1364b:	48 89 85 78 fa ff ff 	mov    %rax,-0x588(%rbp)
   13652:	48 8d 85 d8 f8 ff ff 	lea    -0x728(%rbp),%rax
   13659:	48 89 85 80 fa ff ff 	mov    %rax,-0x580(%rbp)
   13660:	48 8d 85 d8 f8 ff ff 	lea    -0x728(%rbp),%rax
   13667:	48 89 85 88 fa ff ff 	mov    %rax,-0x578(%rbp)
   1366e:	48 8d 85 d8 f8 ff ff 	lea    -0x728(%rbp),%rax
   13675:	48 89 85 90 fa ff ff 	mov    %rax,-0x570(%rbp)
   1367c:	48 8d 85 d8 f8 ff ff 	lea    -0x728(%rbp),%rax
   13683:	48 89 85 98 fa ff ff 	mov    %rax,-0x568(%rbp)
   1368a:	48 8d 85 d8 f8 ff ff 	lea    -0x728(%rbp),%rax
   13691:	48 89 85 a0 fa ff ff 	mov    %rax,-0x560(%rbp)
   13698:	48 8d 85 d8 f8 ff ff 	lea    -0x728(%rbp),%rax
   1369f:	48 89 85 a8 fa ff ff 	mov    %rax,-0x558(%rbp)
   136a6:	48 8d 85 d8 f8 ff ff 	lea    -0x728(%rbp),%rax
   136ad:	48 89 85 b0 fa ff ff 	mov    %rax,-0x550(%rbp)
   136b4:	48 8d 85 d8 f8 ff ff 	lea    -0x728(%rbp),%rax
   136bb:	48 89 85 b8 fa ff ff 	mov    %rax,-0x548(%rbp)
   136c2:	48 8d 85 d8 f8 ff ff 	lea    -0x728(%rbp),%rax
   136c9:	48 89 85 c0 fa ff ff 	mov    %rax,-0x540(%rbp)
   136d0:	48 c7 85 c8 fa ff ff 	movq   $0x0,-0x538(%rbp)
   136d7:	00 00 00 00 
   136db:	48 8d 85 d8 f8 ff ff 	lea    -0x728(%rbp),%rax
   136e2:	48 89 85 d0 fa ff ff 	mov    %rax,-0x530(%rbp)
   136e9:	48 8d 85 d8 f8 ff ff 	lea    -0x728(%rbp),%rax
   136f0:	48 89 85 d8 fa ff ff 	mov    %rax,-0x528(%rbp)
   136f7:	48 c7 85 e0 fa ff ff 	movq   $0x0,-0x520(%rbp)
   136fe:	00 00 00 00 
   13702:	48 8d 85 d8 f8 ff ff 	lea    -0x728(%rbp),%rax
   13709:	48 89 85 e8 fa ff ff 	mov    %rax,-0x518(%rbp)
   13710:	48 8d 85 d8 f8 ff ff 	lea    -0x728(%rbp),%rax
   13717:	48 89 85 f0 fa ff ff 	mov    %rax,-0x510(%rbp)
   1371e:	48 8d 85 d8 f8 ff ff 	lea    -0x728(%rbp),%rax
   13725:	48 89 85 f8 fa ff ff 	mov    %rax,-0x508(%rbp)
   1372c:	48 8d 85 d8 f8 ff ff 	lea    -0x728(%rbp),%rax
   13733:	48 89 85 00 fb ff ff 	mov    %rax,-0x500(%rbp)
   1373a:	48 c7 85 08 fb ff ff 	movq   $0x0,-0x4f8(%rbp)
   13741:	00 00 00 00 
   13745:	48 c7 85 10 fb ff ff 	movq   $0x0,-0x4f0(%rbp)
   1374c:	00 00 00 00 
   13750:	48 8d 85 d8 f8 ff ff 	lea    -0x728(%rbp),%rax
   13757:	48 89 85 18 fb ff ff 	mov    %rax,-0x4e8(%rbp)
   1375e:	48 8d 85 d8 f8 ff ff 	lea    -0x728(%rbp),%rax
   13765:	48 89 85 20 fb ff ff 	mov    %rax,-0x4e0(%rbp)
   1376c:	48 8d 85 d8 f8 ff ff 	lea    -0x728(%rbp),%rax
   13773:	48 89 85 28 fb ff ff 	mov    %rax,-0x4d8(%rbp)
   1377a:	48 8d 85 d8 f8 ff ff 	lea    -0x728(%rbp),%rax
   13781:	48 89 85 30 fb ff ff 	mov    %rax,-0x4d0(%rbp)
   13788:	48 8d 85 d8 f8 ff ff 	lea    -0x728(%rbp),%rax
   1378f:	48 89 85 38 fb ff ff 	mov    %rax,-0x4c8(%rbp)
   13796:	48 8d 85 d8 f8 ff ff 	lea    -0x728(%rbp),%rax
   1379d:	48 89 85 40 fb ff ff 	mov    %rax,-0x4c0(%rbp)
   137a4:	48 c7 85 48 fb ff ff 	movq   $0x0,-0x4b8(%rbp)
   137ab:	00 00 00 00 
   137af:	48 8d 85 d8 f8 ff ff 	lea    -0x728(%rbp),%rax
   137b6:	48 89 85 50 fb ff ff 	mov    %rax,-0x4b0(%rbp)
   137bd:	48 8d 85 d8 f8 ff ff 	lea    -0x728(%rbp),%rax
   137c4:	48 89 85 58 fb ff ff 	mov    %rax,-0x4a8(%rbp)
   137cb:	48 8d 85 d8 f8 ff ff 	lea    -0x728(%rbp),%rax
   137d2:	48 89 85 60 fb ff ff 	mov    %rax,-0x4a0(%rbp)
   137d9:	48 8d 85 d8 f8 ff ff 	lea    -0x728(%rbp),%rax
   137e0:	48 89 85 68 fb ff ff 	mov    %rax,-0x498(%rbp)
   137e7:	48 8d 85 d8 f8 ff ff 	lea    -0x728(%rbp),%rax
   137ee:	48 89 85 70 fb ff ff 	mov    %rax,-0x490(%rbp)
   137f5:	48 8d 85 d8 f8 ff ff 	lea    -0x728(%rbp),%rax
   137fc:	48 89 85 78 fb ff ff 	mov    %rax,-0x488(%rbp)
   13803:	48 8d 85 d8 f8 ff ff 	lea    -0x728(%rbp),%rax
   1380a:	48 89 85 80 fb ff ff 	mov    %rax,-0x480(%rbp)
   13811:	48 8d 85 d8 f8 ff ff 	lea    -0x728(%rbp),%rax
   13818:	48 89 85 88 fb ff ff 	mov    %rax,-0x478(%rbp)
   1381f:	48 c7 85 90 fb ff ff 	movq   $0x0,-0x470(%rbp)
   13826:	00 00 00 00 
   1382a:	48 c7 85 98 fb ff ff 	movq   $0x0,-0x468(%rbp)
   13831:	00 00 00 00 
   13835:	48 8d 85 d8 f8 ff ff 	lea    -0x728(%rbp),%rax
   1383c:	48 89 85 a0 fb ff ff 	mov    %rax,-0x460(%rbp)
   13843:	48 8d 85 d8 f8 ff ff 	lea    -0x728(%rbp),%rax
   1384a:	48 89 85 a8 fb ff ff 	mov    %rax,-0x458(%rbp)
   13851:	48 8d 85 d8 f8 ff ff 	lea    -0x728(%rbp),%rax
   13858:	48 89 85 b0 fb ff ff 	mov    %rax,-0x450(%rbp)
   1385f:	48 8d 85 d8 f8 ff ff 	lea    -0x728(%rbp),%rax
   13866:	48 89 85 b8 fb ff ff 	mov    %rax,-0x448(%rbp)
   1386d:	48 8d 85 d8 f8 ff ff 	lea    -0x728(%rbp),%rax
   13874:	48 89 85 c0 fb ff ff 	mov    %rax,-0x440(%rbp)
   1387b:	48 8d 85 d8 f8 ff ff 	lea    -0x728(%rbp),%rax
   13882:	48 89 85 c8 fb ff ff 	mov    %rax,-0x438(%rbp)
   13889:	48 8d 85 d8 f8 ff ff 	lea    -0x728(%rbp),%rax
   13890:	48 89 85 d0 fb ff ff 	mov    %rax,-0x430(%rbp)
   13897:	48 8d 85 d8 f8 ff ff 	lea    -0x728(%rbp),%rax
   1389e:	48 89 85 d8 fb ff ff 	mov    %rax,-0x428(%rbp)
   138a5:	48 8d 85 d8 f8 ff ff 	lea    -0x728(%rbp),%rax
   138ac:	48 89 85 e0 fb ff ff 	mov    %rax,-0x420(%rbp)
   138b3:	48 8d 85 d8 f8 ff ff 	lea    -0x728(%rbp),%rax
   138ba:	48 89 85 e8 fb ff ff 	mov    %rax,-0x418(%rbp)
   138c1:	48 8d 85 d8 f8 ff ff 	lea    -0x728(%rbp),%rax
   138c8:	48 89 85 f0 fb ff ff 	mov    %rax,-0x410(%rbp)
   138cf:	48 8d 85 d8 f8 ff ff 	lea    -0x728(%rbp),%rax
   138d6:	48 89 85 f8 fb ff ff 	mov    %rax,-0x408(%rbp)
   138dd:	48 8d 85 d8 f8 ff ff 	lea    -0x728(%rbp),%rax
   138e4:	48 89 85 00 fc ff ff 	mov    %rax,-0x400(%rbp)
   138eb:	48 8d 85 d8 f8 ff ff 	lea    -0x728(%rbp),%rax
   138f2:	48 89 85 08 fc ff ff 	mov    %rax,-0x3f8(%rbp)
   138f9:	48 8d 85 d8 f8 ff ff 	lea    -0x728(%rbp),%rax
   13900:	48 89 85 10 fc ff ff 	mov    %rax,-0x3f0(%rbp)
   13907:	48 8d 85 d8 f8 ff ff 	lea    -0x728(%rbp),%rax
   1390e:	48 89 85 18 fc ff ff 	mov    %rax,-0x3e8(%rbp)
   13915:	48 8d 85 d8 f8 ff ff 	lea    -0x728(%rbp),%rax
   1391c:	48 89 85 20 fc ff ff 	mov    %rax,-0x3e0(%rbp)
   13923:	48 8d 85 d8 f8 ff ff 	lea    -0x728(%rbp),%rax
   1392a:	48 89 85 28 fc ff ff 	mov    %rax,-0x3d8(%rbp)
   13931:	48 c7 85 30 fc ff ff 	movq   $0x0,-0x3d0(%rbp)
   13938:	00 00 00 00 
   1393c:	48 8d 85 d8 f8 ff ff 	lea    -0x728(%rbp),%rax
   13943:	48 89 85 38 fc ff ff 	mov    %rax,-0x3c8(%rbp)
   1394a:	48 8d 85 d8 f8 ff ff 	lea    -0x728(%rbp),%rax
   13951:	48 89 85 40 fc ff ff 	mov    %rax,-0x3c0(%rbp)
   13958:	48 8d 85 d8 f8 ff ff 	lea    -0x728(%rbp),%rax
   1395f:	48 89 85 48 fc ff ff 	mov    %rax,-0x3b8(%rbp)
   13966:	48 8d 85 d8 f8 ff ff 	lea    -0x728(%rbp),%rax
   1396d:	48 89 85 50 fc ff ff 	mov    %rax,-0x3b0(%rbp)
   13974:	48 8d 85 d8 f8 ff ff 	lea    -0x728(%rbp),%rax
   1397b:	48 89 85 58 fc ff ff 	mov    %rax,-0x3a8(%rbp)
   13982:	48 c7 85 60 fc ff ff 	movq   $0x0,-0x3a0(%rbp)
   13989:	00 00 00 00 
   1398d:	48 8d 85 d8 f8 ff ff 	lea    -0x728(%rbp),%rax
   13994:	48 89 85 68 fc ff ff 	mov    %rax,-0x398(%rbp)
   1399b:	48 c7 85 70 fc ff ff 	movq   $0x0,-0x390(%rbp)
   139a2:	00 00 00 00 
   139a6:	48 8d 85 d8 f8 ff ff 	lea    -0x728(%rbp),%rax
   139ad:	48 89 85 78 fc ff ff 	mov    %rax,-0x388(%rbp)
   139b4:	48 8d 85 d8 f8 ff ff 	lea    -0x728(%rbp),%rax
   139bb:	48 89 85 80 fc ff ff 	mov    %rax,-0x380(%rbp)
   139c2:	48 8d 85 d8 f8 ff ff 	lea    -0x728(%rbp),%rax
   139c9:	48 89 85 88 fc ff ff 	mov    %rax,-0x378(%rbp)
   139d0:	48 8d 85 d8 f8 ff ff 	lea    -0x728(%rbp),%rax
   139d7:	48 89 85 90 fc ff ff 	mov    %rax,-0x370(%rbp)
   139de:	48 8d 85 d8 f8 ff ff 	lea    -0x728(%rbp),%rax
   139e5:	48 89 85 98 fc ff ff 	mov    %rax,-0x368(%rbp)
   139ec:	48 c7 85 a0 fc ff ff 	movq   $0x0,-0x360(%rbp)
   139f3:	00 00 00 00 
   139f7:	48 8d 85 d8 f8 ff ff 	lea    -0x728(%rbp),%rax
   139fe:	48 89 85 a8 fc ff ff 	mov    %rax,-0x358(%rbp)
   13a05:	48 8d 85 d8 f8 ff ff 	lea    -0x728(%rbp),%rax
   13a0c:	48 89 85 b0 fc ff ff 	mov    %rax,-0x350(%rbp)
   13a13:	48 c7 85 b8 fc ff ff 	movq   $0x0,-0x348(%rbp)
   13a1a:	00 00 00 00 
   13a1e:	48 8d 85 d8 f8 ff ff 	lea    -0x728(%rbp),%rax
   13a25:	48 89 85 c0 fc ff ff 	mov    %rax,-0x340(%rbp)
   13a2c:	48 8d 85 d8 f8 ff ff 	lea    -0x728(%rbp),%rax
   13a33:	48 89 85 c8 fc ff ff 	mov    %rax,-0x338(%rbp)
   13a3a:	48 8d 85 d8 f8 ff ff 	lea    -0x728(%rbp),%rax
   13a41:	48 89 85 d0 fc ff ff 	mov    %rax,-0x330(%rbp)
   13a48:	48 8d 85 d8 f8 ff ff 	lea    -0x728(%rbp),%rax
   13a4f:	48 89 85 d8 fc ff ff 	mov    %rax,-0x328(%rbp)
   13a56:	48 8d 85 d8 f8 ff ff 	lea    -0x728(%rbp),%rax
   13a5d:	48 89 85 e0 fc ff ff 	mov    %rax,-0x320(%rbp)
   13a64:	48 8d 85 d8 f8 ff ff 	lea    -0x728(%rbp),%rax
   13a6b:	48 89 85 e8 fc ff ff 	mov    %rax,-0x318(%rbp)
   13a72:	48 8d 85 d8 f8 ff ff 	lea    -0x728(%rbp),%rax
   13a79:	48 89 85 f0 fc ff ff 	mov    %rax,-0x310(%rbp)
   13a80:	48 8d 85 d8 f8 ff ff 	lea    -0x728(%rbp),%rax
   13a87:	48 89 85 f8 fc ff ff 	mov    %rax,-0x308(%rbp)
   13a8e:	48 8d 85 d8 f8 ff ff 	lea    -0x728(%rbp),%rax
   13a95:	48 89 85 00 fd ff ff 	mov    %rax,-0x300(%rbp)
   13a9c:	48 8d 85 d8 f8 ff ff 	lea    -0x728(%rbp),%rax
   13aa3:	48 89 85 08 fd ff ff 	mov    %rax,-0x2f8(%rbp)
   13aaa:	48 8d 85 d8 f8 ff ff 	lea    -0x728(%rbp),%rax
   13ab1:	48 89 85 10 fd ff ff 	mov    %rax,-0x2f0(%rbp)
   13ab8:	48 8d 85 d8 f8 ff ff 	lea    -0x728(%rbp),%rax
   13abf:	48 89 85 18 fd ff ff 	mov    %rax,-0x2e8(%rbp)
   13ac6:	48 8d 85 d8 f8 ff ff 	lea    -0x728(%rbp),%rax
   13acd:	48 89 85 20 fd ff ff 	mov    %rax,-0x2e0(%rbp)
   13ad4:	48 8d 85 d8 f8 ff ff 	lea    -0x728(%rbp),%rax
   13adb:	48 89 85 28 fd ff ff 	mov    %rax,-0x2d8(%rbp)
   13ae2:	48 8d 85 d8 f8 ff ff 	lea    -0x728(%rbp),%rax
   13ae9:	48 89 85 30 fd ff ff 	mov    %rax,-0x2d0(%rbp)
   13af0:	48 8d 85 d8 f8 ff ff 	lea    -0x728(%rbp),%rax
   13af7:	48 89 85 38 fd ff ff 	mov    %rax,-0x2c8(%rbp)
   13afe:	48 8d 85 d8 f8 ff ff 	lea    -0x728(%rbp),%rax
   13b05:	48 89 85 40 fd ff ff 	mov    %rax,-0x2c0(%rbp)
   13b0c:	48 8d 85 d8 f8 ff ff 	lea    -0x728(%rbp),%rax
   13b13:	48 89 85 48 fd ff ff 	mov    %rax,-0x2b8(%rbp)
   13b1a:	48 8d 85 d8 f8 ff ff 	lea    -0x728(%rbp),%rax
   13b21:	48 89 85 50 fd ff ff 	mov    %rax,-0x2b0(%rbp)
   13b28:	48 8d 85 d8 f8 ff ff 	lea    -0x728(%rbp),%rax
   13b2f:	48 89 85 58 fd ff ff 	mov    %rax,-0x2a8(%rbp)
   13b36:	48 8d 85 d8 f8 ff ff 	lea    -0x728(%rbp),%rax
   13b3d:	48 89 85 60 fd ff ff 	mov    %rax,-0x2a0(%rbp)
   13b44:	48 8d 85 d8 f8 ff ff 	lea    -0x728(%rbp),%rax
   13b4b:	48 89 85 68 fd ff ff 	mov    %rax,-0x298(%rbp)
   13b52:	48 8d 85 d8 f8 ff ff 	lea    -0x728(%rbp),%rax
   13b59:	48 89 85 70 fd ff ff 	mov    %rax,-0x290(%rbp)
   13b60:	48 c7 85 78 fd ff ff 	movq   $0x0,-0x288(%rbp)
   13b67:	00 00 00 00 
   13b6b:	48 8d 85 d8 f8 ff ff 	lea    -0x728(%rbp),%rax
   13b72:	48 89 85 80 fd ff ff 	mov    %rax,-0x280(%rbp)
   13b79:	48 8d 85 d8 f8 ff ff 	lea    -0x728(%rbp),%rax
   13b80:	48 89 85 88 fd ff ff 	mov    %rax,-0x278(%rbp)
   13b87:	48 c7 85 90 fd ff ff 	movq   $0x0,-0x270(%rbp)
   13b8e:	00 00 00 00 
   13b92:	48 8d 85 d8 f8 ff ff 	lea    -0x728(%rbp),%rax
   13b99:	48 89 85 98 fd ff ff 	mov    %rax,-0x268(%rbp)
   13ba0:	48 c7 85 a0 fd ff ff 	movq   $0x0,-0x260(%rbp)
   13ba7:	00 00 00 00 
   13bab:	48 8d 85 d8 f8 ff ff 	lea    -0x728(%rbp),%rax
   13bb2:	48 89 85 a8 fd ff ff 	mov    %rax,-0x258(%rbp)
   13bb9:	48 8d 85 d8 f8 ff ff 	lea    -0x728(%rbp),%rax
   13bc0:	48 89 85 b0 fd ff ff 	mov    %rax,-0x250(%rbp)
   13bc7:	48 8d 85 d8 f8 ff ff 	lea    -0x728(%rbp),%rax
   13bce:	48 89 85 b8 fd ff ff 	mov    %rax,-0x248(%rbp)
   13bd5:	48 c7 85 c0 fd ff ff 	movq   $0x0,-0x240(%rbp)
   13bdc:	00 00 00 00 
   13be0:	48 8d 85 d8 f8 ff ff 	lea    -0x728(%rbp),%rax
   13be7:	48 89 85 c8 fd ff ff 	mov    %rax,-0x238(%rbp)
   13bee:	48 c7 85 d0 fd ff ff 	movq   $0x0,-0x230(%rbp)
   13bf5:	00 00 00 00 
   13bf9:	48 8d 85 d8 f8 ff ff 	lea    -0x728(%rbp),%rax
   13c00:	48 89 85 d8 fd ff ff 	mov    %rax,-0x228(%rbp)
   13c07:	48 8d 85 d8 f8 ff ff 	lea    -0x728(%rbp),%rax
   13c0e:	48 89 85 e0 fd ff ff 	mov    %rax,-0x220(%rbp)
   13c15:	48 c7 85 e8 fd ff ff 	movq   $0x0,-0x218(%rbp)
   13c1c:	00 00 00 00 
   13c20:	48 8d 85 d8 f8 ff ff 	lea    -0x728(%rbp),%rax
   13c27:	48 89 85 f0 fd ff ff 	mov    %rax,-0x210(%rbp)
   13c2e:	48 8d 85 d8 f8 ff ff 	lea    -0x728(%rbp),%rax
   13c35:	48 89 85 f8 fd ff ff 	mov    %rax,-0x208(%rbp)
   13c3c:	48 8d 85 d8 f8 ff ff 	lea    -0x728(%rbp),%rax
   13c43:	48 89 85 00 fe ff ff 	mov    %rax,-0x200(%rbp)
   13c4a:	48 8d 85 d8 f8 ff ff 	lea    -0x728(%rbp),%rax
   13c51:	48 89 85 08 fe ff ff 	mov    %rax,-0x1f8(%rbp)
   13c58:	48 8d 85 d8 f8 ff ff 	lea    -0x728(%rbp),%rax
   13c5f:	48 89 85 10 fe ff ff 	mov    %rax,-0x1f0(%rbp)
   13c66:	48 8d 85 d8 f8 ff ff 	lea    -0x728(%rbp),%rax
   13c6d:	48 89 85 18 fe ff ff 	mov    %rax,-0x1e8(%rbp)
   13c74:	48 8d 85 d8 f8 ff ff 	lea    -0x728(%rbp),%rax
   13c7b:	48 89 85 20 fe ff ff 	mov    %rax,-0x1e0(%rbp)
   13c82:	48 8d 85 d8 f8 ff ff 	lea    -0x728(%rbp),%rax
   13c89:	48 89 85 28 fe ff ff 	mov    %rax,-0x1d8(%rbp)
   13c90:	48 8d 85 d8 f8 ff ff 	lea    -0x728(%rbp),%rax
   13c97:	48 89 85 30 fe ff ff 	mov    %rax,-0x1d0(%rbp)
   13c9e:	48 8d 85 d8 f8 ff ff 	lea    -0x728(%rbp),%rax
   13ca5:	48 89 85 38 fe ff ff 	mov    %rax,-0x1c8(%rbp)
   13cac:	48 8d 85 d8 f8 ff ff 	lea    -0x728(%rbp),%rax
   13cb3:	48 89 85 40 fe ff ff 	mov    %rax,-0x1c0(%rbp)
   13cba:	48 8d 85 d8 f8 ff ff 	lea    -0x728(%rbp),%rax
   13cc1:	48 89 85 48 fe ff ff 	mov    %rax,-0x1b8(%rbp)
   13cc8:	48 8d 85 d8 f8 ff ff 	lea    -0x728(%rbp),%rax
   13ccf:	48 89 85 50 fe ff ff 	mov    %rax,-0x1b0(%rbp)
   13cd6:	48 8d 85 d8 f8 ff ff 	lea    -0x728(%rbp),%rax
   13cdd:	48 89 85 58 fe ff ff 	mov    %rax,-0x1a8(%rbp)
   13ce4:	48 8d 85 d8 f8 ff ff 	lea    -0x728(%rbp),%rax
   13ceb:	48 89 85 60 fe ff ff 	mov    %rax,-0x1a0(%rbp)
   13cf2:	48 8d 85 d8 f8 ff ff 	lea    -0x728(%rbp),%rax
   13cf9:	48 89 85 68 fe ff ff 	mov    %rax,-0x198(%rbp)
   13d00:	48 8d 85 d8 f8 ff ff 	lea    -0x728(%rbp),%rax
   13d07:	48 89 85 70 fe ff ff 	mov    %rax,-0x190(%rbp)
   13d0e:	48 8d 85 d8 f8 ff ff 	lea    -0x728(%rbp),%rax
   13d15:	48 89 85 78 fe ff ff 	mov    %rax,-0x188(%rbp)
   13d1c:	48 8d 85 d8 f8 ff ff 	lea    -0x728(%rbp),%rax
   13d23:	48 89 85 80 fe ff ff 	mov    %rax,-0x180(%rbp)
   13d2a:	48 8d 85 d8 f8 ff ff 	lea    -0x728(%rbp),%rax
   13d31:	48 89 85 88 fe ff ff 	mov    %rax,-0x178(%rbp)
   13d38:	48 8d 85 d8 f8 ff ff 	lea    -0x728(%rbp),%rax
   13d3f:	48 89 85 90 fe ff ff 	mov    %rax,-0x170(%rbp)
   13d46:	48 8d 85 d8 f8 ff ff 	lea    -0x728(%rbp),%rax
   13d4d:	48 89 85 98 fe ff ff 	mov    %rax,-0x168(%rbp)
   13d54:	48 8d 85 d8 f8 ff ff 	lea    -0x728(%rbp),%rax
   13d5b:	48 89 85 a0 fe ff ff 	mov    %rax,-0x160(%rbp)
   13d62:	48 c7 85 a8 fe ff ff 	movq   $0x0,-0x158(%rbp)
   13d69:	00 00 00 00 
   13d6d:	48 8d 85 d8 f8 ff ff 	lea    -0x728(%rbp),%rax
   13d74:	48 89 85 b0 fe ff ff 	mov    %rax,-0x150(%rbp)
   13d7b:	48 8d 85 d8 f8 ff ff 	lea    -0x728(%rbp),%rax
   13d82:	48 89 85 b8 fe ff ff 	mov    %rax,-0x148(%rbp)
   13d89:	48 c7 85 c0 fe ff ff 	movq   $0x0,-0x140(%rbp)
   13d90:	00 00 00 00 
   13d94:	48 8d 85 d8 f8 ff ff 	lea    -0x728(%rbp),%rax
   13d9b:	48 89 85 c8 fe ff ff 	mov    %rax,-0x138(%rbp)
   13da2:	48 8d 85 d8 f8 ff ff 	lea    -0x728(%rbp),%rax
   13da9:	48 89 85 d0 fe ff ff 	mov    %rax,-0x130(%rbp)
   13db0:	48 8d 85 d8 f8 ff ff 	lea    -0x728(%rbp),%rax
   13db7:	48 89 85 d8 fe ff ff 	mov    %rax,-0x128(%rbp)
   13dbe:	48 8d 85 d8 f8 ff ff 	lea    -0x728(%rbp),%rax
   13dc5:	48 89 85 e0 fe ff ff 	mov    %rax,-0x120(%rbp)
   13dcc:	48 8d 85 d8 f8 ff ff 	lea    -0x728(%rbp),%rax
   13dd3:	48 89 85 e8 fe ff ff 	mov    %rax,-0x118(%rbp)
   13dda:	48 c7 85 f0 fe ff ff 	movq   $0x0,-0x110(%rbp)
   13de1:	00 00 00 00 
   13de5:	48 8d 85 d8 f8 ff ff 	lea    -0x728(%rbp),%rax
   13dec:	48 89 85 f8 fe ff ff 	mov    %rax,-0x108(%rbp)
   13df3:	48 c7 85 00 ff ff ff 	movq   $0x0,-0x100(%rbp)
   13dfa:	00 00 00 00 
   13dfe:	48 8d 85 d8 f8 ff ff 	lea    -0x728(%rbp),%rax
   13e05:	48 89 85 08 ff ff ff 	mov    %rax,-0xf8(%rbp)
   13e0c:	48 8d 85 d8 f8 ff ff 	lea    -0x728(%rbp),%rax
   13e13:	48 89 85 10 ff ff ff 	mov    %rax,-0xf0(%rbp)
   13e1a:	48 8d 85 d8 f8 ff ff 	lea    -0x728(%rbp),%rax
   13e21:	48 89 85 18 ff ff ff 	mov    %rax,-0xe8(%rbp)
   13e28:	48 8d 85 d8 f8 ff ff 	lea    -0x728(%rbp),%rax
   13e2f:	48 89 85 20 ff ff ff 	mov    %rax,-0xe0(%rbp)
   13e36:	48 8d 85 d8 f8 ff ff 	lea    -0x728(%rbp),%rax
   13e3d:	48 89 85 28 ff ff ff 	mov    %rax,-0xd8(%rbp)
   13e44:	48 c7 85 30 ff ff ff 	movq   $0x0,-0xd0(%rbp)
   13e4b:	00 00 00 00 
   13e4f:	48 8d 85 d8 f8 ff ff 	lea    -0x728(%rbp),%rax
   13e56:	48 89 85 38 ff ff ff 	mov    %rax,-0xc8(%rbp)
   13e5d:	48 8d 85 d8 f8 ff ff 	lea    -0x728(%rbp),%rax
   13e64:	48 89 85 40 ff ff ff 	mov    %rax,-0xc0(%rbp)
   13e6b:	48 8d 85 d8 f8 ff ff 	lea    -0x728(%rbp),%rax
   13e72:	48 89 85 48 ff ff ff 	mov    %rax,-0xb8(%rbp)
   13e79:	48 8d 85 d8 f8 ff ff 	lea    -0x728(%rbp),%rax
   13e80:	48 89 85 50 ff ff ff 	mov    %rax,-0xb0(%rbp)
   13e87:	48 8d 85 d8 f8 ff ff 	lea    -0x728(%rbp),%rax
   13e8e:	48 89 85 58 ff ff ff 	mov    %rax,-0xa8(%rbp)
   13e95:	48 8d 85 d8 f8 ff ff 	lea    -0x728(%rbp),%rax
   13e9c:	48 89 85 60 ff ff ff 	mov    %rax,-0xa0(%rbp)
   13ea3:	48 8d 85 d8 f8 ff ff 	lea    -0x728(%rbp),%rax
   13eaa:	48 89 85 68 ff ff ff 	mov    %rax,-0x98(%rbp)
   13eb1:	48 8d 85 d8 f8 ff ff 	lea    -0x728(%rbp),%rax
   13eb8:	48 89 85 70 ff ff ff 	mov    %rax,-0x90(%rbp)
   13ebf:	48 8d 85 d8 f8 ff ff 	lea    -0x728(%rbp),%rax
   13ec6:	48 89 85 78 ff ff ff 	mov    %rax,-0x88(%rbp)
   13ecd:	48 8d 85 d8 f8 ff ff 	lea    -0x728(%rbp),%rax
   13ed4:	48 89 45 80          	mov    %rax,-0x80(%rbp)
   13ed8:	48 8d 85 d8 f8 ff ff 	lea    -0x728(%rbp),%rax
   13edf:	48 89 45 88          	mov    %rax,-0x78(%rbp)
   13ee3:	48 8d 85 d8 f8 ff ff 	lea    -0x728(%rbp),%rax
   13eea:	48 89 45 90          	mov    %rax,-0x70(%rbp)
   13eee:	48 8d 85 d8 f8 ff ff 	lea    -0x728(%rbp),%rax
   13ef5:	48 89 45 98          	mov    %rax,-0x68(%rbp)
   13ef9:	48 8d 85 d8 f8 ff ff 	lea    -0x728(%rbp),%rax
   13f00:	48 89 45 a0          	mov    %rax,-0x60(%rbp)
   13f04:	48 8d 85 d8 f8 ff ff 	lea    -0x728(%rbp),%rax
   13f0b:	48 89 45 a8          	mov    %rax,-0x58(%rbp)
   13f0f:	48 8d 85 d8 f8 ff ff 	lea    -0x728(%rbp),%rax
   13f16:	48 89 45 b0          	mov    %rax,-0x50(%rbp)
   13f1a:	48 8d 85 d8 f8 ff ff 	lea    -0x728(%rbp),%rax
   13f21:	48 89 45 b8          	mov    %rax,-0x48(%rbp)
   13f25:	48 8d 85 20 f9 ff ff 	lea    -0x6e0(%rbp),%rax
   13f2c:	48 83 c0 08          	add    $0x8,%rax
   13f30:	48 89 85 f0 f8 ff ff 	mov    %rax,-0x710(%rbp)
   13f37:	83 bd c0 f8 ff ff 00 	cmpl   $0x0,-0x740(%rbp)
   13f3e:	0f 85 b6 00 00 00    	jne    13ffa <func_21+0xe6f>
   13f44:	48 8b 85 d8 f8 ff ff 	mov    -0x728(%rbp),%rax
   13f4b:	8b 00                	mov    (%rax),%eax
   13f4d:	89 c2                	mov    %eax,%edx
   13f4f:	48 8b 85 70 f9 ff ff 	mov    -0x690(%rbp),%rax
   13f56:	48 85 c0             	test   %rax,%rax
   13f59:	0f 95 c0             	setne  %al
   13f5c:	0f b6 c0             	movzbl %al,%eax
   13f5f:	89 d6                	mov    %edx,%esi
   13f61:	89 c7                	mov    %eax,%edi
   13f63:	e8 12 4f ff ff       	callq  8e7a <safe_rshift_func_uint16_t_u_u>
   13f68:	48 8b 85 d8 f8 ff ff 	mov    -0x728(%rbp),%rax
   13f6f:	8b 00                	mov    (%rax),%eax
   13f71:	89 c3                	mov    %eax,%ebx
   13f73:	8b 85 ac f8 ff ff    	mov    -0x754(%rbp),%eax
   13f79:	be ff ff ff ff       	mov    $0xffffffff,%esi
   13f7e:	89 c7                	mov    %eax,%edi
   13f80:	e8 47 47 ff ff       	callq  86cc <safe_mod_func_int32_t_s_s>
   13f85:	0f b7 c0             	movzwl %ax,%eax
   13f88:	89 c6                	mov    %eax,%esi
   13f8a:	bf f9 ff 00 00       	mov    $0xfff9,%edi
   13f8f:	e8 fa 4d ff ff       	callq  8d8e <safe_div_func_uint16_t_u_u>
   13f94:	48 8b 85 d8 f8 ff ff 	mov    -0x728(%rbp),%rax
   13f9b:	8b 10                	mov    (%rax),%edx
   13f9d:	48 8b 85 d8 f8 ff ff 	mov    -0x728(%rbp),%rax
   13fa4:	8b 00                	mov    (%rax),%eax
   13fa6:	89 85 bc f8 ff ff    	mov    %eax,-0x744(%rbp)
   13fac:	8b 85 bc f8 ff ff    	mov    -0x744(%rbp),%eax
   13fb2:	48 63 c8             	movslq %eax,%rcx
   13fb5:	0f b7 85 b6 f8 ff ff 	movzwl -0x74a(%rbp),%eax
   13fbc:	83 c8 01             	or     $0x1,%eax
   13fbf:	0f b7 c0             	movzwl %ax,%eax
   13fc2:	48 39 c1             	cmp    %rax,%rcx
   13fc5:	0f 94 c0             	sete   %al
   13fc8:	0f b6 c0             	movzbl %al,%eax
   13fcb:	09 d0                	or     %edx,%eax
   13fcd:	39 85 ac f8 ff ff    	cmp    %eax,-0x754(%rbp)
   13fd3:	0f 96 c0             	setbe  %al
   13fd6:	0f b6 c0             	movzbl %al,%eax
   13fd9:	89 de                	mov    %ebx,%esi
   13fdb:	89 c7                	mov    %eax,%edi
   13fdd:	e8 6a 4c ff ff       	callq  8c4c <safe_lshift_func_uint8_t_u_u>
   13fe2:	b8 4b cf be ea       	mov    $0xeabecf4b,%eax
   13fe7:	89 c2                	mov    %eax,%edx
   13fe9:	0f b6 05 30 f4 00 00 	movzbl 0xf430(%rip),%eax        # 23420 <g_1465>
   13ff0:	09 d0                	or     %edx,%eax
   13ff2:	88 05 28 f4 00 00    	mov    %al,0xf428(%rip)        # 23420 <g_1465>
   13ff8:	eb 01                	jmp    13ffb <func_21+0xe70>
   13ffa:	90                   	nop
   13ffb:	0f b6 05 32 f0 00 00 	movzbl 0xf032(%rip),%eax        # 23034 <g_55>
   14002:	83 e8 01             	sub    $0x1,%eax
   14005:	88 05 29 f0 00 00    	mov    %al,0xf029(%rip)        # 23034 <g_55>
   1400b:	0f b6 05 22 f0 00 00 	movzbl 0xf022(%rip),%eax        # 23034 <g_55>
   14012:	84 c0                	test   %al,%al
   14014:	0f 89 82 f4 ff ff    	jns    1349c <func_21+0x311>
   1401a:	48 83 bd 00 f9 ff ff 	cmpq   $0x0,-0x700(%rbp)
   14021:	00 
   14022:	0f 95 c2             	setne  %dl
   14025:	48 8b 05 dc 1a 01 00 	mov    0x11adc(%rip),%rax        # 25b08 <g_1230>
   1402c:	0f b6 d2             	movzbl %dl,%edx
   1402f:	89 10                	mov    %edx,(%rax)
   14031:	c6 05 08 26 01 00 00 	movb   $0x0,0x12608(%rip)        # 26640 <g_497>
   14038:	eb 3d                	jmp    14077 <func_21+0xeec>
   1403a:	48 c7 85 10 f9 ff ff 	movq   $0x0,-0x6f0(%rbp)
   14041:	00 00 00 00 
   14045:	c7 85 c4 f8 ff ff ff 	movl   $0xffffffff,-0x73c(%rbp)
   1404c:	ff ff ff 
   1404f:	c6 85 b5 f8 ff ff 01 	movb   $0x1,-0x74b(%rbp)
   14056:	48 8b 05 83 1f 01 00 	mov    0x11f83(%rip),%rax        # 25fe0 <g_1468>
   1405d:	48 8d 15 4c 12 01 00 	lea    0x1124c(%rip),%rdx        # 252b0 <g_432>
   14064:	48 89 10             	mov    %rdx,(%rax)
   14067:	0f b6 05 d2 25 01 00 	movzbl 0x125d2(%rip),%eax        # 26640 <g_497>
   1406e:	83 c0 01             	add    $0x1,%eax
   14071:	88 05 c9 25 01 00    	mov    %al,0x125c9(%rip)        # 26640 <g_497>
   14077:	0f b6 05 c2 25 01 00 	movzbl 0x125c2(%rip),%eax        # 26640 <g_497>
   1407e:	3c 05                	cmp    $0x5,%al
   14080:	76 b8                	jbe    1403a <func_21+0xeaf>
   14082:	48 8b 85 00 f9 ff ff 	mov    -0x700(%rbp),%rax
   14089:	8b 00                	mov    (%rax),%eax
   1408b:	85 c0                	test   %eax,%eax
   1408d:	75 20                	jne    140af <func_21+0xf24>
   1408f:	8b 05 1f f0 00 00    	mov    0xf01f(%rip),%eax        # 230b4 <g_243>
   14095:	83 c0 01             	add    $0x1,%eax
   14098:	89 05 16 f0 00 00    	mov    %eax,0xf016(%rip)        # 230b4 <g_243>
   1409e:	8b 05 10 f0 00 00    	mov    0xf010(%rip),%eax        # 230b4 <g_243>
   140a4:	83 f8 15             	cmp    $0x15,%eax
   140a7:	0f 87 2f f3 ff ff    	ja     133dc <func_21+0x251>
   140ad:	eb 01                	jmp    140b0 <func_21+0xf25>
   140af:	90                   	nop
   140b0:	48 8b 05 21 1f 01 00 	mov    0x11f21(%rip),%rax        # 25fd8 <g_1469>
   140b7:	48 8b 00             	mov    (%rax),%rax
   140ba:	48 8b 4d c8          	mov    -0x38(%rbp),%rcx
   140be:	64 48 33 0c 25 28 00 	xor    %fs:0x28,%rcx
   140c5:	00 00 
   140c7:	74 05                	je     140ce <func_21+0xf43>
   140c9:	e8 a2 3f ff ff       	callq  8070 <__stack_chk_fail@plt>
   140ce:	48 81 c4 38 07 00 00 	add    $0x738,%rsp
   140d5:	5b                   	pop    %rbx
   140d6:	41 5c                	pop    %r12
   140d8:	41 5d                	pop    %r13
   140da:	41 5e                	pop    %r14
   140dc:	41 5f                	pop    %r15
   140de:	5d                   	pop    %rbp
   140df:	c3                   	retq   

00000000000140e0 <func_28>:
   140e0:	f3 0f 1e fa          	endbr64 
   140e4:	55                   	push   %rbp
   140e5:	48 89 e5             	mov    %rsp,%rbp
   140e8:	48 81 ec 30 01 00 00 	sub    $0x130,%rsp
   140ef:	89 bd dc fe ff ff    	mov    %edi,-0x124(%rbp)
   140f5:	64 48 8b 04 25 28 00 	mov    %fs:0x28,%rax
   140fc:	00 00 
   140fe:	48 89 45 f8          	mov    %rax,-0x8(%rbp)
   14102:	31 c0                	xor    %eax,%eax
   14104:	48 ba c7 a2 52 24 52 	movabs $0xd69376522452a2c7,%rdx
   1410b:	76 93 d6 
   1410e:	48 89 95 f0 fe ff ff 	mov    %rdx,-0x110(%rbp)
   14115:	48 b8 98 05 1b d9 64 	movabs $0x2e428464d91b0598,%rax
   1411c:	84 42 2e 
   1411f:	48 89 85 f8 fe ff ff 	mov    %rax,-0x108(%rbp)
   14126:	48 b9 e5 5f e3 ef d3 	movabs $0xd5b481d3efe35fe5,%rcx
   1412d:	81 b4 d5 
   14130:	48 89 8d 00 ff ff ff 	mov    %rcx,-0x100(%rbp)
   14137:	48 c7 85 08 ff ff ff 	movq   $0xffffffffffffffff,-0xf8(%rbp)
   1413e:	ff ff ff ff 
   14142:	48 89 8d 10 ff ff ff 	mov    %rcx,-0xf0(%rbp)
   14149:	48 89 85 18 ff ff ff 	mov    %rax,-0xe8(%rbp)
   14150:	48 89 95 20 ff ff ff 	mov    %rdx,-0xe0(%rbp)
   14157:	48 89 95 28 ff ff ff 	mov    %rdx,-0xd8(%rbp)
   1415e:	48 89 85 30 ff ff ff 	mov    %rax,-0xd0(%rbp)
   14165:	48 c7 85 38 ff ff ff 	movq   $0xffffffffffffffff,-0xc8(%rbp)
   1416c:	ff ff ff ff 
   14170:	48 c7 85 40 ff ff ff 	movq   $0x7,-0xc0(%rbp)
   14177:	07 00 00 00 
   1417b:	48 c7 85 48 ff ff ff 	movq   $0x7,-0xb8(%rbp)
   14182:	07 00 00 00 
   14186:	48 c7 85 50 ff ff ff 	movq   $0xffffffffffffffff,-0xb0(%rbp)
   1418d:	ff ff ff ff 
   14191:	48 89 85 58 ff ff ff 	mov    %rax,-0xa8(%rbp)
   14198:	48 be 63 71 32 35 fc 	movabs $0xd47030fc35327163,%rsi
   1419f:	30 70 d4 
   141a2:	48 89 b5 60 ff ff ff 	mov    %rsi,-0xa0(%rbp)
   141a9:	48 89 85 68 ff ff ff 	mov    %rax,-0x98(%rbp)
   141b0:	48 c7 85 70 ff ff ff 	movq   $0xffffffffffffffff,-0x90(%rbp)
   141b7:	ff ff ff ff 
   141bb:	48 89 85 78 ff ff ff 	mov    %rax,-0x88(%rbp)
   141c2:	48 89 75 80          	mov    %rsi,-0x80(%rbp)
   141c6:	48 89 45 88          	mov    %rax,-0x78(%rbp)
   141ca:	48 c7 45 90 ff ff ff 	movq   $0xffffffffffffffff,-0x70(%rbp)
   141d1:	ff 
   141d2:	48 c7 45 98 07 00 00 	movq   $0x7,-0x68(%rbp)
   141d9:	00 
   141da:	48 c7 45 a0 07 00 00 	movq   $0x7,-0x60(%rbp)
   141e1:	00 
   141e2:	48 c7 45 a8 ff ff ff 	movq   $0xffffffffffffffff,-0x58(%rbp)
   141e9:	ff 
   141ea:	48 89 45 b0          	mov    %rax,-0x50(%rbp)
   141ee:	48 89 55 b8          	mov    %rdx,-0x48(%rbp)
   141f2:	48 89 55 c0          	mov    %rdx,-0x40(%rbp)
   141f6:	48 89 45 c8          	mov    %rax,-0x38(%rbp)
   141fa:	48 89 4d d0          	mov    %rcx,-0x30(%rbp)
   141fe:	48 c7 45 d8 ff ff ff 	movq   $0xffffffffffffffff,-0x28(%rbp)
   14205:	ff 
   14206:	48 89 4d e0          	mov    %rcx,-0x20(%rbp)
   1420a:	48 89 45 e8          	mov    %rax,-0x18(%rbp)
   1420e:	48 8d 05 0f ee 00 00 	lea    0xee0f(%rip),%rax        # 23024 <g_18>
   14215:	48 89 85 e8 fe ff ff 	mov    %rax,-0x118(%rbp)
   1421c:	48 8b 05 f5 f1 00 00 	mov    0xf1f5(%rip),%rax        # 23418 <g_1415>
   14223:	48 8b 7d f8          	mov    -0x8(%rbp),%rdi
   14227:	64 48 33 3c 25 28 00 	xor    %fs:0x28,%rdi
   1422e:	00 00 
   14230:	74 05                	je     14237 <func_28+0x157>
   14232:	e8 39 3e ff ff       	callq  8070 <__stack_chk_fail@plt>
   14237:	c9                   	leaveq 
   14238:	c3                   	retq   

0000000000014239 <func_32>:
   14239:	f3 0f 1e fa          	endbr64 
   1423d:	55                   	push   %rbp
   1423e:	48 89 e5             	mov    %rsp,%rbp
   14241:	41 57                	push   %r15
   14243:	41 56                	push   %r14
   14245:	41 55                	push   %r13
   14247:	41 54                	push   %r12
   14249:	53                   	push   %rbx
   1424a:	48 81 ec 00 10 00 00 	sub    $0x1000,%rsp
   14251:	48 83 0c 24 00       	orq    $0x0,(%rsp)
   14256:	48 81 ec 28 0a 00 00 	sub    $0xa28,%rsp
   1425d:	48 89 bd c8 e5 ff ff 	mov    %rdi,-0x1a38(%rbp)
   14264:	48 89 b5 c0 e5 ff ff 	mov    %rsi,-0x1a40(%rbp)
   1426b:	64 48 8b 04 25 28 00 	mov    %fs:0x28,%rax
   14272:	00 00 
   14274:	48 89 45 c8          	mov    %rax,-0x38(%rbp)
   14278:	31 c0                	xor    %eax,%eax
   1427a:	66 c7 85 da e5 ff ff 	movw   $0xc7a5,-0x1a26(%rbp)
   14281:	a5 c7 
   14283:	c7 85 ec e5 ff ff ff 	movl   $0xffffffff,-0x1a14(%rbp)
   1428a:	ff ff ff 
   1428d:	48 c7 85 a0 ea ff ff 	movq   $0x0,-0x1560(%rbp)
   14294:	00 00 00 00 
   14298:	48 c7 85 a8 ea ff ff 	movq   $0x0,-0x1558(%rbp)
   1429f:	00 00 00 00 
   142a3:	48 c7 85 b0 ea ff ff 	movq   $0x0,-0x1550(%rbp)
   142aa:	00 00 00 00 
   142ae:	48 c7 85 b8 ea ff ff 	movq   $0x0,-0x1548(%rbp)
   142b5:	00 00 00 00 
   142b9:	48 c7 85 c0 ea ff ff 	movq   $0x0,-0x1540(%rbp)
   142c0:	00 00 00 00 
   142c4:	48 c7 85 68 e7 ff ff 	movq   $0x0,-0x1898(%rbp)
   142cb:	00 00 00 00 
   142cf:	48 8d 05 1a 08 01 00 	lea    0x1081a(%rip),%rax        # 24af0 <g_101>
   142d6:	48 89 85 f8 e6 ff ff 	mov    %rax,-0x1908(%rbp)
   142dd:	c7 85 f0 e5 ff ff 09 	movl   $0x9,-0x1a10(%rbp)
   142e4:	00 00 00 
   142e7:	c7 85 f4 e5 ff ff 00 	movl   $0x0,-0x1a0c(%rbp)
   142ee:	00 00 00 
   142f1:	c7 85 70 ea ff ff 01 	movl   $0x1,-0x1590(%rbp)
   142f8:	00 00 00 
   142fb:	c7 85 74 ea ff ff 01 	movl   $0x1,-0x158c(%rbp)
   14302:	00 00 00 
   14305:	c7 85 78 ea ff ff ff 	movl   $0xffffffff,-0x1588(%rbp)
   1430c:	ff ff ff 
   1430f:	c7 85 7c ea ff ff 01 	movl   $0x1,-0x1584(%rbp)
   14316:	00 00 00 
   14319:	c7 85 80 ea ff ff 01 	movl   $0x1,-0x1580(%rbp)
   14320:	00 00 00 
   14323:	c7 85 84 ea ff ff ff 	movl   $0xffffffff,-0x157c(%rbp)
   1432a:	ff ff ff 
   1432d:	c7 85 88 ea ff ff 01 	movl   $0x1,-0x1578(%rbp)
   14334:	00 00 00 
   14337:	c7 85 8c ea ff ff 01 	movl   $0x1,-0x1574(%rbp)
   1433e:	00 00 00 
   14341:	c7 85 90 ea ff ff ff 	movl   $0xffffffff,-0x1570(%rbp)
   14348:	ff ff ff 
   1434b:	48 8d 05 ee ef 00 00 	lea    0xefee(%rip),%rax        # 23340 <g_856>
   14352:	48 89 85 00 e7 ff ff 	mov    %rax,-0x1900(%rbp)
   14359:	48 8d 85 f4 e5 ff ff 	lea    -0x1a0c(%rbp),%rax
   14360:	48 89 85 10 ed ff ff 	mov    %rax,-0x12f0(%rbp)
   14367:	48 8d 85 70 ea ff ff 	lea    -0x1590(%rbp),%rax
   1436e:	48 83 c0 18          	add    $0x18,%rax
   14372:	48 89 85 18 ed ff ff 	mov    %rax,-0x12e8(%rbp)
   14379:	48 8d 85 70 ea ff ff 	lea    -0x1590(%rbp),%rax
   14380:	48 83 c0 18          	add    $0x18,%rax
   14384:	48 89 85 20 ed ff ff 	mov    %rax,-0x12e0(%rbp)
   1438b:	48 8d 85 f4 e5 ff ff 	lea    -0x1a0c(%rbp),%rax
   14392:	48 89 85 28 ed ff ff 	mov    %rax,-0x12d8(%rbp)
   14399:	48 c7 85 30 ed ff ff 	movq   $0x0,-0x12d0(%rbp)
   143a0:	00 00 00 00 
   143a4:	48 8d 85 f4 e5 ff ff 	lea    -0x1a0c(%rbp),%rax
   143ab:	48 89 85 38 ed ff ff 	mov    %rax,-0x12c8(%rbp)
   143b2:	48 8d 85 70 ea ff ff 	lea    -0x1590(%rbp),%rax
   143b9:	48 83 c0 18          	add    $0x18,%rax
   143bd:	48 89 85 40 ed ff ff 	mov    %rax,-0x12c0(%rbp)
   143c4:	48 8d 85 70 ea ff ff 	lea    -0x1590(%rbp),%rax
   143cb:	48 83 c0 18          	add    $0x18,%rax
   143cf:	48 89 85 48 ed ff ff 	mov    %rax,-0x12b8(%rbp)
   143d6:	48 8d 85 70 ea ff ff 	lea    -0x1590(%rbp),%rax
   143dd:	48 83 c0 18          	add    $0x18,%rax
   143e1:	48 89 85 50 ed ff ff 	mov    %rax,-0x12b0(%rbp)
   143e8:	48 8d 85 70 ea ff ff 	lea    -0x1590(%rbp),%rax
   143ef:	48 83 c0 18          	add    $0x18,%rax
   143f3:	48 89 85 58 ed ff ff 	mov    %rax,-0x12a8(%rbp)
   143fa:	48 8d 85 f0 e5 ff ff 	lea    -0x1a10(%rbp),%rax
   14401:	48 89 85 60 ed ff ff 	mov    %rax,-0x12a0(%rbp)
   14408:	48 8d 85 70 ea ff ff 	lea    -0x1590(%rbp),%rax
   1440f:	48 83 c0 18          	add    $0x18,%rax
   14413:	48 89 85 68 ed ff ff 	mov    %rax,-0x1298(%rbp)
   1441a:	48 8d 85 70 ea ff ff 	lea    -0x1590(%rbp),%rax
   14421:	48 83 c0 18          	add    $0x18,%rax
   14425:	48 89 85 70 ed ff ff 	mov    %rax,-0x1290(%rbp)
   1442c:	48 8d 85 70 ea ff ff 	lea    -0x1590(%rbp),%rax
   14433:	48 83 c0 18          	add    $0x18,%rax
   14437:	48 89 85 78 ed ff ff 	mov    %rax,-0x1288(%rbp)
   1443e:	48 8d 05 eb eb 00 00 	lea    0xebeb(%rip),%rax        # 23030 <g_46>
   14445:	48 89 85 80 ed ff ff 	mov    %rax,-0x1280(%rbp)
   1444c:	48 8d 85 70 ea ff ff 	lea    -0x1590(%rbp),%rax
   14453:	48 83 c0 18          	add    $0x18,%rax
   14457:	48 89 85 88 ed ff ff 	mov    %rax,-0x1278(%rbp)
   1445e:	48 c7 85 90 ed ff ff 	movq   $0x0,-0x1270(%rbp)
   14465:	00 00 00 00 
   14469:	48 8d 85 70 ea ff ff 	lea    -0x1590(%rbp),%rax
   14470:	48 83 c0 18          	add    $0x18,%rax
   14474:	48 89 85 98 ed ff ff 	mov    %rax,-0x1268(%rbp)
   1447b:	48 8d 05 ae eb 00 00 	lea    0xebae(%rip),%rax        # 23030 <g_46>
   14482:	48 89 85 a0 ed ff ff 	mov    %rax,-0x1260(%rbp)
   14489:	48 8d 85 70 ea ff ff 	lea    -0x1590(%rbp),%rax
   14490:	48 83 c0 18          	add    $0x18,%rax
   14494:	48 89 85 a8 ed ff ff 	mov    %rax,-0x1258(%rbp)
   1449b:	48 8d 85 f4 e5 ff ff 	lea    -0x1a0c(%rbp),%rax
   144a2:	48 89 85 b0 ed ff ff 	mov    %rax,-0x1250(%rbp)
   144a9:	48 8d 85 f0 e5 ff ff 	lea    -0x1a10(%rbp),%rax
   144b0:	48 89 85 b8 ed ff ff 	mov    %rax,-0x1248(%rbp)
   144b7:	48 8d 85 70 ea ff ff 	lea    -0x1590(%rbp),%rax
   144be:	48 83 c0 18          	add    $0x18,%rax
   144c2:	48 89 85 c0 ed ff ff 	mov    %rax,-0x1240(%rbp)
   144c9:	48 8d 85 f0 e5 ff ff 	lea    -0x1a10(%rbp),%rax
   144d0:	48 89 85 c8 ed ff ff 	mov    %rax,-0x1238(%rbp)
   144d7:	48 c7 85 d0 ed ff ff 	movq   $0x0,-0x1230(%rbp)
   144de:	00 00 00 00 
   144e2:	48 c7 85 d8 ed ff ff 	movq   $0x0,-0x1228(%rbp)
   144e9:	00 00 00 00 
   144ed:	48 8d 85 f0 e5 ff ff 	lea    -0x1a10(%rbp),%rax
   144f4:	48 89 85 e0 ed ff ff 	mov    %rax,-0x1220(%rbp)
   144fb:	48 8d 85 70 ea ff ff 	lea    -0x1590(%rbp),%rax
   14502:	48 83 c0 18          	add    $0x18,%rax
   14506:	48 89 85 e8 ed ff ff 	mov    %rax,-0x1218(%rbp)
   1450d:	48 8d 85 f4 e5 ff ff 	lea    -0x1a0c(%rbp),%rax
   14514:	48 89 85 f0 ed ff ff 	mov    %rax,-0x1210(%rbp)
   1451b:	48 8d 05 0e eb 00 00 	lea    0xeb0e(%rip),%rax        # 23030 <g_46>
   14522:	48 89 85 f8 ed ff ff 	mov    %rax,-0x1208(%rbp)
   14529:	48 c7 85 00 ee ff ff 	movq   $0x0,-0x1200(%rbp)
   14530:	00 00 00 00 
   14534:	48 c7 85 08 ee ff ff 	movq   $0x0,-0x11f8(%rbp)
   1453b:	00 00 00 00 
   1453f:	48 8d 05 ea ea 00 00 	lea    0xeaea(%rip),%rax        # 23030 <g_46>
   14546:	48 89 85 10 ee ff ff 	mov    %rax,-0x11f0(%rbp)
   1454d:	48 8d 85 f4 e5 ff ff 	lea    -0x1a0c(%rbp),%rax
   14554:	48 89 85 18 ee ff ff 	mov    %rax,-0x11e8(%rbp)
   1455b:	48 8d 05 ce ea 00 00 	lea    0xeace(%rip),%rax        # 23030 <g_46>
   14562:	48 89 85 20 ee ff ff 	mov    %rax,-0x11e0(%rbp)
   14569:	48 8d 05 58 ee 00 00 	lea    0xee58(%rip),%rax        # 233c8 <g_1079>
   14570:	48 89 85 08 e7 ff ff 	mov    %rax,-0x18f8(%rbp)
   14577:	c6 85 d0 e5 ff ff f6 	movb   $0xf6,-0x1a30(%rbp)
   1457e:	c7 85 f8 e5 ff ff 00 	movl   $0x0,-0x1a08(%rbp)
   14585:	00 00 00 
   14588:	66 c7 85 de e5 ff ff 	movw   $0x1195,-0x1a22(%rbp)
   1458f:	95 11 
   14591:	48 8d 05 70 fd 00 00 	lea    0xfd70(%rip),%rax        # 24308 <g_87>
   14598:	48 89 85 60 e7 ff ff 	mov    %rax,-0x18a0(%rbp)
   1459f:	c6 85 d2 e5 ff ff fa 	movb   $0xfa,-0x1a2e(%rbp)
   145a6:	c6 85 d3 e5 ff ff 00 	movb   $0x0,-0x1a2d(%rbp)
   145ad:	c6 85 d4 e5 ff ff cb 	movb   $0xcb,-0x1a2c(%rbp)
   145b4:	c7 85 70 e6 ff ff 8c 	movl   $0x4464ff8c,-0x1990(%rbp)
   145bb:	ff 64 44 
   145be:	48 c7 85 70 e7 ff ff 	movq   $0x0,-0x1890(%rbp)
   145c5:	00 00 00 00 
   145c9:	48 8d 05 78 20 01 00 	lea    0x12078(%rip),%rax        # 26648 <g_504>
   145d0:	48 89 85 10 e7 ff ff 	mov    %rax,-0x18f0(%rbp)
   145d7:	48 8d 05 3a 19 01 00 	lea    0x1193a(%rip),%rax        # 25f18 <g_1268+0x3d8>
   145de:	48 89 85 18 e7 ff ff 	mov    %rax,-0x18e8(%rbp)
   145e5:	48 8d 85 ec e5 ff ff 	lea    -0x1a14(%rbp),%rax
   145ec:	48 89 85 78 e7 ff ff 	mov    %rax,-0x1888(%rbp)
   145f3:	48 8d 05 2a ea 00 00 	lea    0xea2a(%rip),%rax        # 23024 <g_18>
   145fa:	48 89 85 80 e7 ff ff 	mov    %rax,-0x1880(%rbp)
   14601:	48 8d 85 f4 e5 ff ff 	lea    -0x1a0c(%rbp),%rax
   14608:	48 89 85 88 e7 ff ff 	mov    %rax,-0x1878(%rbp)
   1460f:	48 c7 85 90 e7 ff ff 	movq   $0x0,-0x1870(%rbp)
   14616:	00 00 00 00 
   1461a:	c7 85 58 e6 ff ff 00 	movl   $0x0,-0x19a8(%rbp)
   14621:	00 00 00 
   14624:	eb 4c                	jmp    14672 <func_32+0x439>
   14626:	c7 85 5c e6 ff ff 00 	movl   $0x0,-0x19a4(%rbp)
   1462d:	00 00 00 
   14630:	eb 30                	jmp    14662 <func_32+0x429>
   14632:	8b 85 5c e6 ff ff    	mov    -0x19a4(%rbp),%eax
   14638:	48 98                	cltq   
   1463a:	8b 95 58 e6 ff ff    	mov    -0x19a8(%rbp),%edx
   14640:	48 63 d2             	movslq %edx,%rdx
   14643:	48 01 d2             	add    %rdx,%rdx
   14646:	48 01 d0             	add    %rdx,%rax
   14649:	48 bb 42 de f0 b1 37 	movabs $0x45ac6037b1f0de42,%rbx
   14650:	60 ac 45 
   14653:	48 89 9c c5 90 eb ff 	mov    %rbx,-0x1470(%rbp,%rax,8)
   1465a:	ff 
   1465b:	83 85 5c e6 ff ff 01 	addl   $0x1,-0x19a4(%rbp)
   14662:	83 bd 5c e6 ff ff 01 	cmpl   $0x1,-0x19a4(%rbp)
   14669:	7e c7                	jle    14632 <func_32+0x3f9>
   1466b:	83 85 58 e6 ff ff 01 	addl   $0x1,-0x19a8(%rbp)
   14672:	83 bd 58 e6 ff ff 09 	cmpl   $0x9,-0x19a8(%rbp)
   14679:	7e ab                	jle    14626 <func_32+0x3ed>
   1467b:	c7 85 58 e6 ff ff 00 	movl   $0x0,-0x19a8(%rbp)
   14682:	00 00 00 
   14685:	eb 14                	jmp    1469b <func_32+0x462>
   14687:	8b 85 58 e6 ff ff    	mov    -0x19a8(%rbp),%eax
   1468d:	48 98                	cltq   
   1468f:	c6 44 05 bf 53       	movb   $0x53,-0x41(%rbp,%rax,1)
   14694:	83 85 58 e6 ff ff 01 	addl   $0x1,-0x19a8(%rbp)
   1469b:	83 bd 58 e6 ff ff 08 	cmpl   $0x8,-0x19a8(%rbp)
   146a2:	7e e3                	jle    14687 <func_32+0x44e>
   146a4:	c7 85 58 e6 ff ff 00 	movl   $0x0,-0x19a8(%rbp)
   146ab:	00 00 00 
   146ae:	eb 19                	jmp    146c9 <func_32+0x490>
   146b0:	8b 85 58 e6 ff ff    	mov    -0x19a8(%rbp),%eax
   146b6:	48 98                	cltq   
   146b8:	66 c7 84 45 30 ea ff 	movw   $0x9b71,-0x15d0(%rbp,%rax,2)
   146bf:	ff 71 9b 
   146c2:	83 85 58 e6 ff ff 01 	addl   $0x1,-0x19a8(%rbp)
   146c9:	83 bd 58 e6 ff ff 02 	cmpl   $0x2,-0x19a8(%rbp)
   146d0:	7e de                	jle    146b0 <func_32+0x477>
   146d2:	c6 05 0f ea 00 00 00 	movb   $0x0,0xea0f(%rip)        # 230e8 <g_261>
   146d9:	90                   	nop
   146da:	0f b6 05 07 ea 00 00 	movzbl 0xea07(%rip),%eax        # 230e8 <g_261>
   146e1:	3c eb                	cmp    $0xeb,%al
   146e3:	0f 85 5b 59 00 00    	jne    1a044 <func_32+0x5e0b>
   146e9:	48 c7 85 58 e7 ff ff 	movq   $0xfffffffffffffff9,-0x18a8(%rbp)
   146f0:	f9 ff ff ff 
   146f4:	48 8d 05 83 e9 00 00 	lea    0xe983(%rip),%rax        # 2307e <g_158+0x1e>
   146fb:	48 89 85 98 e7 ff ff 	mov    %rax,-0x1868(%rbp)
   14702:	48 8d 05 37 1f 01 00 	lea    0x11f37(%rip),%rax        # 26640 <g_497>
   14709:	48 89 85 a0 e7 ff ff 	mov    %rax,-0x1860(%rbp)
   14710:	48 c7 85 a8 e7 ff ff 	movq   $0xfffffffffffffffa,-0x1858(%rbp)
   14717:	fa ff ff ff 
   1471b:	c7 85 fc e5 ff ff 65 	movl   $0x3de25465,-0x1a04(%rbp)
   14722:	54 e2 3d 
   14725:	c7 85 00 e6 ff ff ff 	movl   $0xffffffff,-0x1a00(%rbp)
   1472c:	ff ff ff 
   1472f:	48 8d 05 6a ec 00 00 	lea    0xec6a(%rip),%rax        # 233a0 <g_861>
   14736:	48 89 85 20 e7 ff ff 	mov    %rax,-0x18e0(%rbp)
   1473d:	c7 85 04 e6 ff ff 28 	movl   $0x994bbd28,-0x19fc(%rbp)
   14744:	bd 4b 99 
   14747:	c7 85 08 e6 ff ff d7 	movl   $0x3259dfd7,-0x19f8(%rbp)
   1474e:	df 59 32 
   14751:	c7 85 0c e6 ff ff 01 	movl   $0x1,-0x19f4(%rbp)
   14758:	00 00 00 
   1475b:	c7 85 10 e6 ff ff 00 	movl   $0x0,-0x19f0(%rbp)
   14762:	00 00 00 
   14765:	c7 85 14 e6 ff ff f8 	movl   $0xd1fe62f8,-0x19ec(%rbp)
   1476c:	62 fe d1 
   1476f:	48 8d 85 da e5 ff ff 	lea    -0x1a26(%rbp),%rax
   14776:	48 89 85 28 e7 ff ff 	mov    %rax,-0x18d8(%rbp)
   1477d:	66 c7 85 e0 e5 ff ff 	movw   $0xfffb,-0x1a20(%rbp)
   14784:	fb ff 
   14786:	c6 85 d5 e5 ff ff c5 	movb   $0xc5,-0x1a2b(%rbp)
   1478d:	48 8d 85 e0 f1 ff ff 	lea    -0xe20(%rbp),%rax
   14794:	48 8d 15 65 f5 00 00 	lea    0xf565(%rip),%rdx        # 23d00 <g_2398+0x848>
   1479b:	b9 bd 00 00 00       	mov    $0xbd,%ecx
   147a0:	48 89 c7             	mov    %rax,%rdi
   147a3:	48 89 d6             	mov    %rdx,%rsi
   147a6:	f3 48 a5             	rep movsq %ds:(%rsi),%es:(%rdi)
   147a9:	48 c7 85 30 e7 ff ff 	movq   $0x0,-0x18d0(%rbp)
   147b0:	00 00 00 00 
   147b4:	48 8d 05 75 1e 01 00 	lea    0x11e75(%rip),%rax        # 26630 <g_251>
   147bb:	48 89 85 b0 e7 ff ff 	mov    %rax,-0x1850(%rbp)
   147c2:	48 8d 05 3f fb 00 00 	lea    0xfb3f(%rip),%rax        # 24308 <g_87>
   147c9:	48 89 85 b8 e7 ff ff 	mov    %rax,-0x1848(%rbp)
   147d0:	48 8d 85 08 e7 ff ff 	lea    -0x18f8(%rbp),%rax
   147d7:	48 89 85 c0 e7 ff ff 	mov    %rax,-0x1840(%rbp)
   147de:	48 8d 05 53 1e 01 00 	lea    0x11e53(%rip),%rax        # 26638 <g_448>
   147e5:	48 89 85 c8 e7 ff ff 	mov    %rax,-0x1838(%rbp)
   147ec:	c7 85 74 e6 ff ff 02 	movl   $0x2,-0x198c(%rbp)
   147f3:	00 00 00 
   147f6:	66 c7 85 e2 e5 ff ff 	movw   $0x492b,-0x1a1e(%rbp)
   147fd:	2b 49 
   147ff:	48 8d 85 f8 e6 ff ff 	lea    -0x1908(%rbp),%rax
   14806:	48 89 85 d0 e7 ff ff 	mov    %rax,-0x1830(%rbp)
   1480d:	48 8d 85 f4 e5 ff ff 	lea    -0x1a0c(%rbp),%rax
   14814:	48 89 85 d8 e7 ff ff 	mov    %rax,-0x1828(%rbp)
   1481b:	48 8d 85 70 ea ff ff 	lea    -0x1590(%rbp),%rax
   14822:	48 83 c0 18          	add    $0x18,%rax
   14826:	48 89 85 e0 e7 ff ff 	mov    %rax,-0x1820(%rbp)
   1482d:	48 8d 05 f0 e7 00 00 	lea    0xe7f0(%rip),%rax        # 23024 <g_18>
   14834:	48 89 85 e8 e7 ff ff 	mov    %rax,-0x1818(%rbp)
   1483b:	48 8d 85 f8 e5 ff ff 	lea    -0x1a08(%rbp),%rax
   14842:	48 89 85 f0 e7 ff ff 	mov    %rax,-0x1810(%rbp)
   14849:	48 8d 05 64 e8 00 00 	lea    0xe864(%rip),%rax        # 230b4 <g_243>
   14850:	48 89 85 f8 e7 ff ff 	mov    %rax,-0x1808(%rbp)
   14857:	48 c7 85 00 e8 ff ff 	movq   $0x0,-0x1800(%rbp)
   1485e:	00 00 00 00 
   14862:	48 8d 05 8f 06 01 00 	lea    0x1068f(%rip),%rax        # 24ef8 <g_193+0x3d8>
   14869:	48 89 85 08 e8 ff ff 	mov    %rax,-0x17f8(%rbp)
   14870:	48 c7 85 10 e8 ff ff 	movq   $0x0,-0x17f0(%rbp)
   14877:	00 00 00 00 
   1487b:	c7 85 54 e6 ff ff 00 	movl   $0x0,-0x19ac(%rbp)
   14882:	00 00 00 
   14885:	eb 1a                	jmp    148a1 <func_32+0x668>
   14887:	8b 85 54 e6 ff ff    	mov    -0x19ac(%rbp),%eax
   1488d:	48 98                	cltq   
   1488f:	c7 84 85 50 ea ff ff 	movl   $0xd24d4c40,-0x15b0(%rbp,%rax,4)
   14896:	40 4c 4d d2 
   1489a:	83 85 54 e6 ff ff 01 	addl   $0x1,-0x19ac(%rbp)
   148a1:	83 bd 54 e6 ff ff 04 	cmpl   $0x4,-0x19ac(%rbp)
   148a8:	7e dd                	jle    14887 <func_32+0x64e>
   148aa:	c7 85 54 e6 ff ff 00 	movl   $0x0,-0x19ac(%rbp)
   148b1:	00 00 00 
   148b4:	eb 19                	jmp    148cf <func_32+0x696>
   148b6:	8b 85 54 e6 ff ff    	mov    -0x19ac(%rbp),%eax
   148bc:	48 98                	cltq   
   148be:	66 c7 84 45 2e ea ff 	movw   $0xfffe,-0x15d2(%rbp,%rax,2)
   148c5:	ff fe ff 
   148c8:	83 85 54 e6 ff ff 01 	addl   $0x1,-0x19ac(%rbp)
   148cf:	83 bd 54 e6 ff ff 00 	cmpl   $0x0,-0x19ac(%rbp)
   148d6:	7e de                	jle    148b6 <func_32+0x67d>
   148d8:	c7 85 54 e6 ff ff 00 	movl   $0x0,-0x19ac(%rbp)
   148df:	00 00 00 
   148e2:	eb 1e                	jmp    14902 <func_32+0x6c9>
   148e4:	8b 85 54 e6 ff ff    	mov    -0x19ac(%rbp),%eax
   148ea:	48 98                	cltq   
   148ec:	48 8d 15 41 e7 00 00 	lea    0xe741(%rip),%rdx        # 23034 <g_55>
   148f3:	48 89 94 c5 00 eb ff 	mov    %rdx,-0x1500(%rbp,%rax,8)
   148fa:	ff 
   148fb:	83 85 54 e6 ff ff 01 	addl   $0x1,-0x19ac(%rbp)
   14902:	83 bd 54 e6 ff ff 07 	cmpl   $0x7,-0x19ac(%rbp)
   14909:	7e d9                	jle    148e4 <func_32+0x6ab>
   1490b:	0f b7 85 da e5 ff ff 	movzwl -0x1a26(%rbp),%eax
   14912:	0f b7 d8             	movzwl %ax,%ebx
   14915:	48 8b 85 58 e7 ff ff 	mov    -0x18a8(%rbp),%rax
   1491c:	41 89 c7             	mov    %eax,%r15d
   1491f:	0f b7 85 da e5 ff ff 	movzwl -0x1a26(%rbp),%eax
   14926:	44 0f b6 e0          	movzbl %al,%r12d
   1492a:	48 83 bd 58 e7 ff ff 	cmpq   $0x0,-0x18a8(%rbp)
   14931:	00 
   14932:	0f 95 c0             	setne  %al
   14935:	0f b6 d0             	movzbl %al,%edx
   14938:	48 8b 85 58 e7 ff ff 	mov    -0x18a8(%rbp),%rax
   1493f:	0f b6 c0             	movzbl %al,%eax
   14942:	89 d6                	mov    %edx,%esi
   14944:	89 c7                	mov    %eax,%edi
   14946:	e8 ba 42 ff ff       	callq  8c05 <safe_lshift_func_uint8_t_u_s>
   1494b:	0f b6 c0             	movzbl %al,%eax
   1494e:	44 89 e6             	mov    %r12d,%esi
   14951:	89 c7                	mov    %eax,%edi
   14953:	e8 56 42 ff ff       	callq  8bae <safe_mod_func_uint8_t_u_u>
   14958:	0f b6 d0             	movzbl %al,%edx
   1495b:	48 8b 85 98 e7 ff ff 	mov    -0x1868(%rbp),%rax
   14962:	66 89 10             	mov    %dx,(%rax)
   14965:	48 8b 85 98 e7 ff ff 	mov    -0x1868(%rbp),%rax
   1496c:	0f b7 00             	movzwl (%rax),%eax
   1496f:	44 0f bf f0          	movswl %ax,%r14d
   14973:	48 8b 85 58 e7 ff ff 	mov    -0x18a8(%rbp),%rax
   1497a:	89 85 b8 e5 ff ff    	mov    %eax,-0x1a48(%rbp)
   14980:	0f b7 85 da e5 ff ff 	movzwl -0x1a26(%rbp),%eax
   14987:	44 0f b7 e0          	movzwl %ax,%r12d
   1498b:	0f b7 85 da e5 ff ff 	movzwl -0x1a26(%rbp),%eax
   14992:	44 0f b7 e8          	movzwl %ax,%r13d
   14996:	0f b7 05 93 1c 01 00 	movzwl 0x11c93(%rip),%eax        # 26630 <g_251>
   1499d:	0f b7 d0             	movzwl %ax,%edx
   149a0:	0f b7 85 da e5 ff ff 	movzwl -0x1a26(%rbp),%eax
   149a7:	0f b7 c0             	movzwl %ax,%eax
   149aa:	89 d6                	mov    %edx,%esi
   149ac:	89 c7                	mov    %eax,%edi
   149ae:	e8 8a 43 ff ff       	callq  8d3d <safe_mul_func_uint16_t_u_u>
   149b3:	0f b7 c0             	movzwl %ax,%eax
   149b6:	44 89 ee             	mov    %r13d,%esi
   149b9:	89 c7                	mov    %eax,%edi
   149bb:	e8 88 44 ff ff       	callq  8e48 <safe_rshift_func_uint16_t_u_s>
   149c0:	66 3d be 00          	cmp    $0xbe,%ax
   149c4:	0f 97 c0             	seta   %al
   149c7:	0f b6 c0             	movzbl %al,%eax
   149ca:	44 89 e6             	mov    %r12d,%esi
   149cd:	89 c7                	mov    %eax,%edi
   149cf:	e8 32 44 ff ff       	callq  8e06 <safe_lshift_func_uint16_t_u_u>
   149d4:	0f b7 85 da e5 ff ff 	movzwl -0x1a26(%rbp),%eax
   149db:	0f bf d0             	movswl %ax,%edx
   149de:	48 8b 85 58 e7 ff ff 	mov    -0x18a8(%rbp),%rax
   149e5:	98                   	cwtl   
   149e6:	89 d6                	mov    %edx,%esi
   149e8:	89 c7                	mov    %eax,%edi
   149ea:	e8 c4 39 ff ff       	callq  83b3 <safe_add_func_int16_t_s_s>
   149ef:	89 c2                	mov    %eax,%edx
   149f1:	48 8b 85 a0 e7 ff ff 	mov    -0x1860(%rbp),%rax
   149f8:	88 10                	mov    %dl,(%rax)
   149fa:	48 8b 85 a0 e7 ff ff 	mov    -0x1860(%rbp),%rax
   14a01:	0f b6 10             	movzbl (%rax),%edx
   14a04:	0f b6 05 85 e7 00 00 	movzbl 0xe785(%rip),%eax        # 23190 <g_590+0x10>
   14a0b:	38 c2                	cmp    %al,%dl
   14a0d:	0f 96 c0             	setbe  %al
   14a10:	0f b6 c0             	movzbl %al,%eax
   14a13:	8b b5 b8 e5 ff ff    	mov    -0x1a48(%rbp),%esi
   14a19:	89 c7                	mov    %eax,%edi
   14a1b:	e8 05 45 ff ff       	callq  8f25 <safe_div_func_uint32_t_u_u>
   14a20:	3d 4d 8c 54 78       	cmp    $0x78548c4d,%eax
   14a25:	0f 96 c0             	setbe  %al
   14a28:	0f b6 c0             	movzbl %al,%eax
   14a2b:	41 39 c6             	cmp    %eax,%r14d
   14a2e:	48 8b 05 83 08 01 00 	mov    0x10883(%rip),%rax        # 252b8 <g_443>
   14a35:	0f b7 00             	movzwl (%rax),%eax
   14a38:	0f b7 d0             	movzwl %ax,%edx
   14a3b:	8b 05 67 e7 00 00    	mov    0xe767(%rip),%eax        # 231a8 <g_635>
   14a41:	39 c2                	cmp    %eax,%edx
   14a43:	0f 9d c0             	setge  %al
   14a46:	0f b6 c0             	movzbl %al,%eax
   14a49:	be 50 9b 47 f8       	mov    $0xf8479b50,%esi
   14a4e:	89 c7                	mov    %eax,%edi
   14a50:	e8 61 3b ff ff       	callq  85b6 <safe_add_func_int32_t_s_s>
   14a55:	85 c0                	test   %eax,%eax
   14a57:	0f 95 c0             	setne  %al
   14a5a:	0f b6 c0             	movzbl %al,%eax
   14a5d:	89 c6                	mov    %eax,%esi
   14a5f:	bf 8f 57 00 00       	mov    $0x578f,%edi
   14a64:	e8 25 43 ff ff       	callq  8d8e <safe_div_func_uint16_t_u_u>
   14a69:	48 8b 85 a8 e7 ff ff 	mov    -0x1858(%rbp),%rax
   14a70:	0f b6 c0             	movzbl %al,%eax
   14a73:	83 e0 01             	and    $0x1,%eax
   14a76:	44 89 fe             	mov    %r15d,%esi
   14a79:	89 c7                	mov    %eax,%edi
   14a7b:	e8 0d 42 ff ff       	callq  8c8d <safe_rshift_func_uint8_t_u_s>
   14a80:	89 de                	mov    %ebx,%esi
   14a82:	bf ff ff 00 00       	mov    $0xffff,%edi
   14a87:	e8 7a 43 ff ff       	callq  8e06 <safe_lshift_func_uint16_t_u_u>
   14a8c:	0f b7 85 da e5 ff ff 	movzwl -0x1a26(%rbp),%eax
   14a93:	66 85 c0             	test   %ax,%ax
   14a96:	74 07                	je     14a9f <func_32+0x866>
   14a98:	b8 01 00 00 00       	mov    $0x1,%eax
   14a9d:	eb 05                	jmp    14aa4 <func_32+0x86b>
   14a9f:	b8 00 00 00 00       	mov    $0x0,%eax
   14aa4:	85 c0                	test   %eax,%eax
   14aa6:	0f 84 97 20 00 00    	je     16b43 <func_32+0x290a>
   14aac:	c7 85 80 e6 ff ff ff 	movl   $0xffffffff,-0x1980(%rbp)
   14ab3:	ff ff ff 
   14ab6:	c7 85 18 e6 ff ff f7 	movl   $0xfffffff7,-0x19e8(%rbp)
   14abd:	ff ff ff 
   14ac0:	48 8d 05 a1 01 01 00 	lea    0x101a1(%rip),%rax        # 24c68 <g_193+0x148>
   14ac7:	48 89 85 38 e7 ff ff 	mov    %rax,-0x18c8(%rbp)
   14ace:	48 8d 05 5b e5 00 00 	lea    0xe55b(%rip),%rax        # 23030 <g_46>
   14ad5:	48 89 85 38 e8 ff ff 	mov    %rax,-0x17c8(%rbp)
   14adc:	c7 85 84 e6 ff ff ff 	movl   $0xffffffff,-0x197c(%rbp)
   14ae3:	ff ff ff 
   14ae6:	c7 85 1c e6 ff ff ff 	movl   $0xffffffff,-0x19e4(%rbp)
   14aed:	ff ff ff 
   14af0:	c7 85 88 e6 ff ff 7e 	movl   $0xac87327e,-0x1978(%rbp)
   14af7:	32 87 ac 
   14afa:	c7 85 20 e6 ff ff ff 	movl   $0xffffffff,-0x19e0(%rbp)
   14b01:	ff ff ff 
   14b04:	c7 85 24 e6 ff ff 00 	movl   $0x0,-0x19dc(%rbp)
   14b0b:	00 00 00 
   14b0e:	c7 85 d0 ea ff ff 01 	movl   $0x1,-0x1530(%rbp)
   14b15:	00 00 00 
   14b18:	c7 85 d4 ea ff ff 02 	movl   $0x2,-0x152c(%rbp)
   14b1f:	00 00 00 
   14b22:	c7 85 d8 ea ff ff 01 	movl   $0x1,-0x1528(%rbp)
   14b29:	00 00 00 
   14b2c:	c7 85 dc ea ff ff 02 	movl   $0x2,-0x1524(%rbp)
   14b33:	00 00 00 
   14b36:	c7 85 e0 ea ff ff 01 	movl   $0x1,-0x1520(%rbp)
   14b3d:	00 00 00 
   14b40:	c7 85 e4 ea ff ff 02 	movl   $0x2,-0x151c(%rbp)
   14b47:	00 00 00 
   14b4a:	c7 85 e8 ea ff ff 01 	movl   $0x1,-0x1518(%rbp)
   14b51:	00 00 00 
   14b54:	c7 85 ec ea ff ff 02 	movl   $0x2,-0x1514(%rbp)
   14b5b:	00 00 00 
   14b5e:	c7 85 f0 ea ff ff 01 	movl   $0x1,-0x1510(%rbp)
   14b65:	00 00 00 
   14b68:	c7 85 f4 ea ff ff 02 	movl   $0x2,-0x150c(%rbp)
   14b6f:	00 00 00 
   14b72:	c7 85 8c e6 ff ff 01 	movl   $0x1,-0x1974(%rbp)
   14b79:	00 00 00 
   14b7c:	48 c7 85 40 e8 ff ff 	movq   $0x0,-0x17c0(%rbp)
   14b83:	00 00 00 00 
   14b87:	66 c7 85 dc e5 ff ff 	movw   $0xffff,-0x1a24(%rbp)
   14b8e:	ff ff 
   14b90:	c6 05 c9 e5 00 00 04 	movb   $0x4,0xe5c9(%rip)        # 23160 <g_556>
   14b97:	90                   	nop
   14b98:	0f b6 05 c1 e5 00 00 	movzbl 0xe5c1(%rip),%eax        # 23160 <g_556>
   14b9f:	84 c0                	test   %al,%al
   14ba1:	0f 8e 9a 06 00 00    	jle    15241 <func_32+0x1008>
   14ba7:	48 c7 85 40 e7 ff ff 	movq   $0x0,-0x18c0(%rbp)
   14bae:	00 00 00 00 
   14bb2:	48 8d 85 da e5 ff ff 	lea    -0x1a26(%rbp),%rax
   14bb9:	48 89 85 40 eb ff ff 	mov    %rax,-0x14c0(%rbp)
   14bc0:	48 8d 85 da e5 ff ff 	lea    -0x1a26(%rbp),%rax
   14bc7:	48 89 85 48 eb ff ff 	mov    %rax,-0x14b8(%rbp)
   14bce:	48 8d 85 da e5 ff ff 	lea    -0x1a26(%rbp),%rax
   14bd5:	48 89 85 50 eb ff ff 	mov    %rax,-0x14b0(%rbp)
   14bdc:	48 8d 85 da e5 ff ff 	lea    -0x1a26(%rbp),%rax
   14be3:	48 89 85 58 eb ff ff 	mov    %rax,-0x14a8(%rbp)
   14bea:	48 8d 85 da e5 ff ff 	lea    -0x1a26(%rbp),%rax
   14bf1:	48 89 85 60 eb ff ff 	mov    %rax,-0x14a0(%rbp)
   14bf8:	48 8d 85 da e5 ff ff 	lea    -0x1a26(%rbp),%rax
   14bff:	48 89 85 68 eb ff ff 	mov    %rax,-0x1498(%rbp)
   14c06:	48 8d 85 da e5 ff ff 	lea    -0x1a26(%rbp),%rax
   14c0d:	48 89 85 70 eb ff ff 	mov    %rax,-0x1490(%rbp)
   14c14:	48 8d 85 da e5 ff ff 	lea    -0x1a26(%rbp),%rax
   14c1b:	48 89 85 78 eb ff ff 	mov    %rax,-0x1488(%rbp)
   14c22:	48 8d 85 da e5 ff ff 	lea    -0x1a26(%rbp),%rax
   14c29:	48 89 85 80 eb ff ff 	mov    %rax,-0x1480(%rbp)
   14c30:	48 8d 85 50 ef ff ff 	lea    -0x10b0(%rbp),%rax
   14c37:	48 8d 15 82 9c 00 00 	lea    0x9c82(%rip),%rdx        # 1e8c0 <g_2423+0x810>
   14c3e:	b9 2d 00 00 00       	mov    $0x2d,%ecx
   14c43:	48 89 c7             	mov    %rax,%rdi
   14c46:	48 89 d6             	mov    %rdx,%rsi
   14c49:	f3 48 a5             	rep movsq %ds:(%rsi),%es:(%rdi)
   14c4c:	48 8d 05 e1 e3 00 00 	lea    0xe3e1(%rip),%rax        # 23034 <g_55>
   14c53:	48 89 85 c8 e9 ff ff 	mov    %rax,-0x1638(%rbp)
   14c5a:	48 8d 85 d0 f7 ff ff 	lea    -0x830(%rbp),%rax
   14c61:	48 8d 15 d8 9d 00 00 	lea    0x9dd8(%rip),%rdx        # 1ea40 <g_2423+0x990>
   14c68:	b9 48 00 00 00       	mov    $0x48,%ecx
   14c6d:	48 89 c7             	mov    %rax,%rdi
   14c70:	48 89 d6             	mov    %rdx,%rsi
   14c73:	f3 48 a5             	rep movsq %ds:(%rsi),%es:(%rdi)
   14c76:	48 8d 85 30 ee ff ff 	lea    -0x11d0(%rbp),%rax
   14c7d:	48 8d 15 fc 9f 00 00 	lea    0x9ffc(%rip),%rdx        # 1ec80 <g_2423+0xbd0>
   14c84:	b9 23 00 00 00       	mov    $0x23,%ecx
   14c89:	48 89 c7             	mov    %rax,%rdi
   14c8c:	48 89 d6             	mov    %rdx,%rsi
   14c8f:	f3 48 a5             	rep movsq %ds:(%rsi),%es:(%rdi)
   14c92:	c6 05 c3 e3 00 00 00 	movb   $0x0,0xe3c3(%rip)        # 2305c <g_131>
   14c99:	e9 26 01 00 00       	jmpq   14dc4 <func_32+0xb8b>
   14c9e:	48 8d 05 8b e3 00 00 	lea    0xe38b(%rip),%rax        # 23030 <g_46>
   14ca5:	48 89 85 18 ea ff ff 	mov    %rax,-0x15e8(%rbp)
   14cac:	c6 85 d9 e5 ff ff ff 	movb   $0xff,-0x1a27(%rbp)
   14cb3:	66 c7 85 da e5 ff ff 	movw   $0x0,-0x1a26(%rbp)
   14cba:	00 00 
   14cbc:	90                   	nop
   14cbd:	0f b7 85 da e5 ff ff 	movzwl -0x1a26(%rbp),%eax
   14cc4:	66 83 f8 01          	cmp    $0x1,%ax
   14cc8:	77 51                	ja     14d1b <func_32+0xae2>
   14cca:	48 c7 85 48 e7 ff ff 	movq   $0x0,-0x18b8(%rbp)
   14cd1:	00 00 00 00 
   14cd5:	48 8d 85 48 e7 ff ff 	lea    -0x18b8(%rbp),%rax
   14cdc:	48 89 85 20 ea ff ff 	mov    %rax,-0x15e0(%rbp)
   14ce3:	48 8b 05 16 fe 00 00 	mov    0xfe16(%rip),%rax        # 24b00 <g_135>
   14cea:	48 8b 95 48 e7 ff ff 	mov    -0x18b8(%rbp),%rdx
   14cf1:	48 89 10             	mov    %rdx,(%rax)
   14cf4:	48 8b 10             	mov    (%rax),%rdx
   14cf7:	48 8b 85 20 ea ff ff 	mov    -0x15e0(%rbp),%rax
   14cfe:	48 89 10             	mov    %rdx,(%rax)
   14d01:	48 8b 05 e8 0d 01 00 	mov    0x10de8(%rip),%rax        # 25af0 <g_760>
   14d08:	48 89 85 40 e7 ff ff 	mov    %rax,-0x18c0(%rbp)
   14d0f:	48 8b 05 e2 0d 01 00 	mov    0x10de2(%rip),%rax        # 25af8 <g_764>
   14d16:	e9 30 53 00 00       	jmpq   1a04b <func_32+0x5e12>
   14d1b:	be 80 69 00 00       	mov    $0x6980,%esi
   14d20:	bf 00 00 00 00       	mov    $0x0,%edi
   14d25:	e8 f5 3f ff ff       	callq  8d1f <safe_sub_func_uint16_t_u_u>
   14d2a:	83 bd 80 e6 ff ff 00 	cmpl   $0x0,-0x1980(%rbp)
   14d31:	74 07                	je     14d3a <func_32+0xb01>
   14d33:	b8 01 00 00 00       	mov    $0x1,%eax
   14d38:	eb 05                	jmp    14d3f <func_32+0xb06>
   14d3a:	b8 00 00 00 00       	mov    $0x0,%eax
   14d3f:	89 85 fc e5 ff ff    	mov    %eax,-0x1a04(%rbp)
   14d45:	48 8b 85 18 ea ff ff 	mov    -0x15e8(%rbp),%rax
   14d4c:	c7 00 00 00 00 00    	movl   $0x0,(%rax)
   14d52:	0f b6 05 03 e3 00 00 	movzbl 0xe303(%rip),%eax        # 2305c <g_131>
   14d59:	0f b6 c0             	movzbl %al,%eax
   14d5c:	0f b6 15 f9 e2 00 00 	movzbl 0xe2f9(%rip),%edx        # 2305c <g_131>
   14d63:	0f b6 d2             	movzbl %dl,%edx
   14d66:	83 c2 01             	add    $0x1,%edx
   14d69:	48 63 ca             	movslq %edx,%rcx
   14d6c:	48 63 d0             	movslq %eax,%rdx
   14d6f:	48 89 d0             	mov    %rdx,%rax
   14d72:	48 c1 e0 02          	shl    $0x2,%rax
   14d76:	48 01 d0             	add    %rdx,%rax
   14d79:	48 01 c8             	add    %rcx,%rax
   14d7c:	48 8d 14 00          	lea    (%rax,%rax,1),%rdx
   14d80:	48 8d 05 d9 e2 00 00 	lea    0xe2d9(%rip),%rax        # 23060 <g_158>
   14d87:	0f b7 04 02          	movzwl (%rdx,%rax,1),%eax
   14d8b:	66 85 c0             	test   %ax,%ax
   14d8e:	48 8b 05 7b f5 00 00 	mov    0xf57b(%rip),%rax        # 24310 <g_91>
   14d95:	8b 10                	mov    (%rax),%edx
   14d97:	8b 85 ec e5 ff ff    	mov    -0x1a14(%rbp),%eax
   14d9d:	31 d0                	xor    %edx,%eax
   14d9f:	89 85 ec e5 ff ff    	mov    %eax,-0x1a14(%rbp)
   14da5:	48 8b 05 4c fd 00 00 	mov    0xfd4c(%rip),%rax        # 24af8 <g_108>
   14dac:	8b 95 ec e5 ff ff    	mov    -0x1a14(%rbp),%edx
   14db2:	89 10                	mov    %edx,(%rax)
   14db4:	0f b6 05 a1 e2 00 00 	movzbl 0xe2a1(%rip),%eax        # 2305c <g_131>
   14dbb:	83 c0 01             	add    $0x1,%eax
   14dbe:	88 05 98 e2 00 00    	mov    %al,0xe298(%rip)        # 2305c <g_131>
   14dc4:	0f b6 05 91 e2 00 00 	movzbl 0xe291(%rip),%eax        # 2305c <g_131>
   14dcb:	3c 03                	cmp    $0x3,%al
   14dcd:	0f 86 cb fe ff ff    	jbe    14c9e <func_32+0xa65>
   14dd3:	48 8b 85 c0 e5 ff ff 	mov    -0x1a40(%rbp),%rax
   14dda:	0f b6 00             	movzbl (%rax),%eax
   14ddd:	84 c0                	test   %al,%al
   14ddf:	0f 84 23 01 00 00    	je     14f08 <func_32+0xccf>
   14de5:	8b 85 80 e6 ff ff    	mov    -0x1980(%rbp),%eax
   14deb:	0f be d8             	movsbl %al,%ebx
   14dee:	44 8b a5 80 e6 ff ff 	mov    -0x1980(%rbp),%r12d
   14df5:	c7 85 18 e6 ff ff ff 	movl   $0xffff,-0x19e8(%rbp)
   14dfc:	ff 00 00 
   14dff:	0f b6 05 92 e2 00 00 	movzbl 0xe292(%rip),%eax        # 23098 <g_184+0x8>
   14e06:	0f b7 05 71 e2 00 00 	movzwl 0xe271(%rip),%eax        # 2307e <g_158+0x1e>
   14e0d:	0f b6 c0             	movzbl %al,%eax
   14e10:	be ff 00 00 00       	mov    $0xff,%esi
   14e15:	89 c7                	mov    %eax,%edi
   14e17:	e8 77 3d ff ff       	callq  8b93 <safe_mul_func_uint8_t_u_u>
   14e1c:	0f b6 c0             	movzbl %al,%eax
   14e1f:	4c 89 e6             	mov    %r12,%rsi
   14e22:	48 89 c7             	mov    %rax,%rdi
   14e25:	e8 cd 3b ff ff       	callq  89f7 <safe_div_func_int64_t_s_s>
   14e2a:	89 85 fc e5 ff ff    	mov    %eax,-0x1a04(%rbp)
   14e30:	8b 85 18 e6 ff ff    	mov    -0x19e8(%rbp),%eax
   14e36:	4c 63 e0             	movslq %eax,%r12
   14e39:	0f b7 85 da e5 ff ff 	movzwl -0x1a26(%rbp),%eax
   14e40:	44 0f bf e8          	movswl %ax,%r13d
   14e44:	48 be 1d b2 97 44 1f 	movabs $0xe169891f4497b21d,%rsi
   14e4b:	89 69 e1 
   14e4e:	48 bf 57 ee f4 8d ea 	movabs $0x839c98ea8df4ee57,%rdi
   14e55:	98 9c 83 
   14e58:	e8 d1 41 ff ff       	callq  902e <safe_add_func_uint64_t_u_u>
   14e5d:	48 85 c0             	test   %rax,%rax
   14e60:	74 10                	je     14e72 <func_32+0xc39>
   14e62:	83 bd 80 e6 ff ff 00 	cmpl   $0x0,-0x1980(%rbp)
   14e69:	74 07                	je     14e72 <func_32+0xc39>
   14e6b:	b8 01 00 00 00       	mov    $0x1,%eax
   14e70:	eb 05                	jmp    14e77 <func_32+0xc3e>
   14e72:	b8 00 00 00 00       	mov    $0x0,%eax
   14e77:	98                   	cwtl   
   14e78:	44 89 ee             	mov    %r13d,%esi
   14e7b:	89 c7                	mov    %eax,%edi
   14e7d:	e8 73 35 ff ff       	callq  83f5 <safe_mul_func_int16_t_s_s>
   14e82:	66 85 c0             	test   %ax,%ax
   14e85:	0f 95 c0             	setne  %al
   14e88:	0f b6 c0             	movzbl %al,%eax
   14e8b:	89 85 ec e5 ff ff    	mov    %eax,-0x1a14(%rbp)
   14e91:	8b 85 ec e5 ff ff    	mov    -0x1a14(%rbp),%eax
   14e97:	0f b7 c0             	movzwl %ax,%eax
   14e9a:	be 04 00 00 00       	mov    $0x4,%esi
   14e9f:	89 c7                	mov    %eax,%edi
   14ea1:	e8 18 3f ff ff       	callq  8dbe <safe_lshift_func_uint16_t_u_s>
   14ea6:	0f b6 c0             	movzbl %al,%eax
   14ea9:	be 07 00 00 00       	mov    $0x7,%esi
   14eae:	89 c7                	mov    %eax,%edi
   14eb0:	e8 d8 3d ff ff       	callq  8c8d <safe_rshift_func_uint8_t_u_s>
   14eb5:	0f b6 d0             	movzbl %al,%edx
   14eb8:	48 8b 85 c0 e5 ff ff 	mov    -0x1a40(%rbp),%rax
   14ebf:	0f b6 00             	movzbl (%rax),%eax
   14ec2:	0f be c0             	movsbl %al,%eax
   14ec5:	39 c2                	cmp    %eax,%edx
   14ec7:	0f 9c c0             	setl   %al
   14eca:	0f b6 c0             	movzbl %al,%eax
   14ecd:	4c 89 e6             	mov    %r12,%rsi
   14ed0:	48 89 c7             	mov    %rax,%rdi
   14ed3:	e8 69 39 ff ff       	callq  8841 <safe_add_func_int64_t_s_s>
   14ed8:	89 c2                	mov    %eax,%edx
   14eda:	48 8b 85 c8 e9 ff ff 	mov    -0x1638(%rbp),%rax
   14ee1:	88 10                	mov    %dl,(%rax)
   14ee3:	48 8b 85 c8 e9 ff ff 	mov    -0x1638(%rbp),%rax
   14eea:	0f b6 00             	movzbl (%rax),%eax
   14eed:	0f be c0             	movsbl %al,%eax
   14ef0:	89 de                	mov    %ebx,%esi
   14ef2:	89 c7                	mov    %eax,%edi
   14ef4:	e8 db 32 ff ff       	callq  81d4 <safe_add_func_int8_t_s_s>
   14ef9:	0f be d0             	movsbl %al,%edx
   14efc:	0f b6 05 4d e2 00 00 	movzbl 0xe24d(%rip),%eax        # 23150 <g_481+0x30>
   14f03:	0f b6 c0             	movzbl %al,%eax
   14f06:	39 c2                	cmp    %eax,%edx
   14f08:	48 8b 85 f0 f9 ff ff 	mov    -0x610(%rbp),%rax
   14f0f:	48 85 c0             	test   %rax,%rax
   14f12:	0f 84 e0 01 00 00    	je     150f8 <func_32+0xebf>
   14f18:	48 8d 85 ec e5 ff ff 	lea    -0x1a14(%rbp),%rax
   14f1f:	48 89 85 e0 e9 ff ff 	mov    %rax,-0x1620(%rbp)
   14f26:	48 8d 85 18 e6 ff ff 	lea    -0x19e8(%rbp),%rax
   14f2d:	48 89 85 e8 e9 ff ff 	mov    %rax,-0x1618(%rbp)
   14f34:	48 8d 85 fc e5 ff ff 	lea    -0x1a04(%rbp),%rax
   14f3b:	48 89 85 f0 e9 ff ff 	mov    %rax,-0x1610(%rbp)
   14f42:	48 8d 85 ec e5 ff ff 	lea    -0x1a14(%rbp),%rax
   14f49:	48 89 85 f8 e9 ff ff 	mov    %rax,-0x1608(%rbp)
   14f50:	48 8d 85 fc e5 ff ff 	lea    -0x1a04(%rbp),%rax
   14f57:	48 89 85 00 ea ff ff 	mov    %rax,-0x1600(%rbp)
   14f5e:	48 8d 85 ec e5 ff ff 	lea    -0x1a14(%rbp),%rax
   14f65:	48 89 85 08 ea ff ff 	mov    %rax,-0x15f8(%rbp)
   14f6c:	48 8d 85 ec e5 ff ff 	lea    -0x1a14(%rbp),%rax
   14f73:	48 89 85 10 ea ff ff 	mov    %rax,-0x15f0(%rbp)
   14f7a:	48 8d 85 50 ef ff ff 	lea    -0x10b0(%rbp),%rax
   14f81:	48 05 44 01 00 00    	add    $0x144,%rax
   14f87:	48 89 85 30 ec ff ff 	mov    %rax,-0x13d0(%rbp)
   14f8e:	48 8d 85 50 ef ff ff 	lea    -0x10b0(%rbp),%rax
   14f95:	48 05 98 00 00 00    	add    $0x98,%rax
   14f9b:	48 89 85 38 ec ff ff 	mov    %rax,-0x13c8(%rbp)
   14fa2:	48 8d 85 50 ef ff ff 	lea    -0x10b0(%rbp),%rax
   14fa9:	48 05 44 01 00 00    	add    $0x144,%rax
   14faf:	48 89 85 40 ec ff ff 	mov    %rax,-0x13c0(%rbp)
   14fb6:	48 8d 85 50 ef ff ff 	lea    -0x10b0(%rbp),%rax
   14fbd:	48 05 98 00 00 00    	add    $0x98,%rax
   14fc3:	48 89 85 48 ec ff ff 	mov    %rax,-0x13b8(%rbp)
   14fca:	48 8d 85 50 ef ff ff 	lea    -0x10b0(%rbp),%rax
   14fd1:	48 05 44 01 00 00    	add    $0x144,%rax
   14fd7:	48 89 85 50 ec ff ff 	mov    %rax,-0x13b0(%rbp)
   14fde:	48 8d 85 50 ef ff ff 	lea    -0x10b0(%rbp),%rax
   14fe5:	48 05 98 00 00 00    	add    $0x98,%rax
   14feb:	48 89 85 58 ec ff ff 	mov    %rax,-0x13a8(%rbp)
   14ff2:	48 8d 85 50 ef ff ff 	lea    -0x10b0(%rbp),%rax
   14ff9:	48 05 44 01 00 00    	add    $0x144,%rax
   14fff:	48 89 85 60 ec ff ff 	mov    %rax,-0x13a0(%rbp)
   15006:	48 8d 85 50 ef ff ff 	lea    -0x10b0(%rbp),%rax
   1500d:	48 05 98 00 00 00    	add    $0x98,%rax
   15013:	48 89 85 68 ec ff ff 	mov    %rax,-0x1398(%rbp)
   1501a:	48 8d 85 50 ef ff ff 	lea    -0x10b0(%rbp),%rax
   15021:	48 05 44 01 00 00    	add    $0x144,%rax
   15027:	48 89 85 70 ec ff ff 	mov    %rax,-0x1390(%rbp)
   1502e:	48 8d 85 50 ef ff ff 	lea    -0x10b0(%rbp),%rax
   15035:	48 05 98 00 00 00    	add    $0x98,%rax
   1503b:	48 89 85 78 ec ff ff 	mov    %rax,-0x1388(%rbp)
   15042:	48 8d 85 50 ef ff ff 	lea    -0x10b0(%rbp),%rax
   15049:	48 05 44 01 00 00    	add    $0x144,%rax
   1504f:	48 89 85 80 ec ff ff 	mov    %rax,-0x1380(%rbp)
   15056:	48 8d 85 50 ef ff ff 	lea    -0x10b0(%rbp),%rax
   1505d:	48 05 98 00 00 00    	add    $0x98,%rax
   15063:	48 89 85 88 ec ff ff 	mov    %rax,-0x1378(%rbp)
   1506a:	48 8d 85 50 ef ff ff 	lea    -0x10b0(%rbp),%rax
   15071:	48 05 44 01 00 00    	add    $0x144,%rax
   15077:	48 89 85 90 ec ff ff 	mov    %rax,-0x1370(%rbp)
   1507e:	48 8d 85 50 ef ff ff 	lea    -0x10b0(%rbp),%rax
   15085:	48 05 98 00 00 00    	add    $0x98,%rax
   1508b:	48 89 85 98 ec ff ff 	mov    %rax,-0x1368(%rbp)
   15092:	48 8d 85 50 ef ff ff 	lea    -0x10b0(%rbp),%rax
   15099:	48 05 44 01 00 00    	add    $0x144,%rax
   1509f:	48 89 85 a0 ec ff ff 	mov    %rax,-0x1360(%rbp)
   150a6:	48 8d 85 50 ef ff ff 	lea    -0x10b0(%rbp),%rax
   150ad:	48 05 98 00 00 00    	add    $0x98,%rax
   150b3:	48 89 85 a8 ec ff ff 	mov    %rax,-0x1358(%rbp)
   150ba:	48 8d 85 50 ef ff ff 	lea    -0x10b0(%rbp),%rax
   150c1:	48 05 44 01 00 00    	add    $0x144,%rax
   150c7:	48 89 85 b0 ec ff ff 	mov    %rax,-0x1350(%rbp)
   150ce:	48 8d 85 50 ef ff ff 	lea    -0x10b0(%rbp),%rax
   150d5:	48 05 98 00 00 00    	add    $0x98,%rax
   150db:	48 89 85 b8 ec ff ff 	mov    %rax,-0x1348(%rbp)
   150e2:	0f b7 85 bc ee ff ff 	movzwl -0x1144(%rbp),%eax
   150e9:	83 e8 01             	sub    $0x1,%eax
   150ec:	66 89 85 bc ee ff ff 	mov    %ax,-0x1144(%rbp)
   150f3:	e9 3d 01 00 00       	jmpq   15235 <func_32+0xffc>
   150f8:	48 8d 85 38 e7 ff ff 	lea    -0x18c8(%rbp),%rax
   150ff:	48 89 85 d0 e9 ff ff 	mov    %rax,-0x1630(%rbp)
   15106:	c7 85 f4 e6 ff ff 0b 	movl   $0x5f84af0b,-0x190c(%rbp)
   1510d:	af 84 5f 
   15110:	c6 85 d8 e5 ff ff ea 	movb   $0xea,-0x1a28(%rbp)
   15117:	8b 95 00 e6 ff ff    	mov    -0x1a00(%rbp),%edx
   1511d:	8b 85 fc e5 ff ff    	mov    -0x1a04(%rbp),%eax
   15123:	21 d0                	and    %edx,%eax
   15125:	89 85 00 e6 ff ff    	mov    %eax,-0x1a00(%rbp)
   1512b:	0f b7 85 bc ee ff ff 	movzwl -0x1144(%rbp),%eax
   15132:	0f b7 d8             	movzwl %ax,%ebx
   15135:	48 8b 8d b0 ea ff ff 	mov    -0x1550(%rbp),%rcx
   1513c:	48 8b 95 38 e7 ff ff 	mov    -0x18c8(%rbp),%rdx
   15143:	48 8b 85 d0 e9 ff ff 	mov    -0x1630(%rbp),%rax
   1514a:	48 89 10             	mov    %rdx,(%rax)
   1514d:	48 8b 85 d0 e9 ff ff 	mov    -0x1630(%rbp),%rax
   15154:	48 8b 00             	mov    (%rax),%rax
   15157:	48 39 c1             	cmp    %rax,%rcx
   1515a:	0f be 85 d8 e5 ff ff 	movsbl -0x1a28(%rbp),%eax
   15161:	89 c6                	mov    %eax,%esi
   15163:	bf 01 00 00 00       	mov    $0x1,%edi
   15168:	e8 90 3d ff ff       	callq  8efd <safe_mod_func_uint32_t_u_u>
   1516d:	8b 95 18 e6 ff ff    	mov    -0x19e8(%rbp),%edx
   15173:	31 c2                	xor    %eax,%edx
   15175:	8b 85 f4 e6 ff ff    	mov    -0x190c(%rbp),%eax
   1517b:	39 c2                	cmp    %eax,%edx
   1517d:	0f 96 c0             	setbe  %al
   15180:	0f b6 c0             	movzbl %al,%eax
   15183:	48 89 c6             	mov    %rax,%rsi
   15186:	bf 00 00 00 00       	mov    $0x0,%edi
   1518b:	e8 9e 3e ff ff       	callq  902e <safe_add_func_uint64_t_u_u>
   15190:	0f be c0             	movsbl %al,%eax
   15193:	89 de                	mov    %ebx,%esi
   15195:	89 c7                	mov    %eax,%edi
   15197:	e8 05 31 ff ff       	callq  82a1 <safe_lshift_func_int8_t_s_s>
   1519c:	48 8b 85 c0 e5 ff ff 	mov    -0x1a40(%rbp),%rax
   151a3:	0f b6 00             	movzbl (%rax),%eax
   151a6:	0f be c0             	movsbl %al,%eax
   151a9:	be 7b 00 00 00       	mov    $0x7b,%esi
   151ae:	89 c7                	mov    %eax,%edi
   151b0:	e8 3d 30 ff ff       	callq  81f2 <safe_sub_func_int8_t_s_s>
   151b5:	0f be d0             	movsbl %al,%edx
   151b8:	8b 85 6c ef ff ff    	mov    -0x1094(%rbp),%eax
   151be:	31 d0                	xor    %edx,%eax
   151c0:	48 98                	cltq   
   151c2:	48 be 04 3d 18 d7 33 	movabs $0x72f8a933d7183d04,%rsi
   151c9:	a9 f8 72 
   151cc:	48 89 c7             	mov    %rax,%rdi
   151cf:	e8 ac 3e ff ff       	callq  9080 <safe_mod_func_uint64_t_u_u>
   151d4:	0f b6 c0             	movzbl %al,%eax
   151d7:	8b 95 f4 e6 ff ff    	mov    -0x190c(%rbp),%edx
   151dd:	89 d6                	mov    %edx,%esi
   151df:	89 c7                	mov    %eax,%edi
   151e1:	e8 a7 3a ff ff       	callq  8c8d <safe_rshift_func_uint8_t_u_s>
   151e6:	48 8b 15 0b f9 00 00 	mov    0xf90b(%rip),%rdx        # 24af8 <g_108>
   151ed:	8b 0a                	mov    (%rdx),%ecx
   151ef:	0f b6 d0             	movzbl %al,%edx
   151f2:	48 8b 05 ff f8 00 00 	mov    0xf8ff(%rip),%rax        # 24af8 <g_108>
   151f9:	09 ca                	or     %ecx,%edx
   151fb:	89 10                	mov    %edx,(%rax)
   151fd:	c6 85 d8 e5 ff ff 01 	movb   $0x1,-0x1a28(%rbp)
   15204:	80 bd d8 e5 ff ff 04 	cmpb   $0x4,-0x1a28(%rbp)
   1520b:	7f 28                	jg     15235 <func_32+0xffc>
   1520d:	48 8d 05 10 de 00 00 	lea    0xde10(%rip),%rax        # 23024 <g_18>
   15214:	48 89 85 d8 e9 ff ff 	mov    %rax,-0x1628(%rbp)
   1521b:	48 8b 05 de f0 00 00 	mov    0xf0de(%rip),%rax        # 24300 <g_45>
   15222:	8b 00                	mov    (%rax),%eax
   15224:	85 c0                	test   %eax,%eax
   15226:	75 0c                	jne    15234 <func_32+0xffb>
   15228:	48 8b 85 d8 e9 ff ff 	mov    -0x1628(%rbp),%rax
   1522f:	e9 17 4e 00 00       	jmpq   1a04b <func_32+0x5e12>
   15234:	90                   	nop
   15235:	48 8b 85 38 e8 ff ff 	mov    -0x17c8(%rbp),%rax
   1523c:	e9 0a 4e 00 00       	jmpq   1a04b <func_32+0x5e12>
   15241:	c6 05 18 df 00 00 ec 	movb   $0xec,0xdf18(%rip)        # 23160 <g_556>
   15248:	90                   	nop
   15249:	0f b6 05 10 df 00 00 	movzbl 0xdf10(%rip),%eax        # 23160 <g_556>
   15250:	3c e8                	cmp    $0xe8,%al
   15252:	7d 17                	jge    1526b <func_32+0x1032>
   15254:	48 c7 85 c0 e9 ff ff 	movq   $0x0,-0x1640(%rbp)
   1525b:	00 00 00 00 
   1525f:	48 8b 85 c0 e9 ff ff 	mov    -0x1640(%rbp),%rax
   15266:	e9 e0 4d 00 00       	jmpq   1a04b <func_32+0x5e12>
   1526b:	48 c7 05 d2 dd 00 00 	movq   $0x0,0xddd2(%rip)        # 23048 <g_88>
   15272:	00 00 00 00 
   15276:	e9 b2 18 00 00       	jmpq   16b2d <func_32+0x28f4>
   1527b:	c7 85 d4 e6 ff ff de 	movl   $0xbd187cde,-0x192c(%rbp)
   15282:	7c 18 bd 
   15285:	48 b8 08 2e 91 b9 34 	movabs $0xc5f78534b9912e08,%rax
   1528c:	85 f7 c5 
   1528f:	48 89 85 b8 e8 ff ff 	mov    %rax,-0x1748(%rbp)
   15296:	66 c7 85 e4 e5 ff ff 	movw   $0x7a30,-0x1a1c(%rbp)
   1529d:	30 7a 
   1529f:	c7 85 d8 e6 ff ff 79 	movl   $0x790d0379,-0x1928(%rbp)
   152a6:	03 0d 79 
   152a9:	c7 85 4c e6 ff ff 08 	movl   $0x8,-0x19b4(%rbp)
   152b0:	00 00 00 
   152b3:	48 8d 85 70 ea ff ff 	lea    -0x1590(%rbp),%rax
   152ba:	48 83 c0 18          	add    $0x18,%rax
   152be:	48 89 85 c0 e8 ff ff 	mov    %rax,-0x1740(%rbp)
   152c5:	c7 85 50 e6 ff ff 00 	movl   $0x0,-0x19b0(%rbp)
   152cc:	00 00 00 
   152cf:	eb 1a                	jmp    152eb <func_32+0x10b2>
   152d1:	8b 85 50 e6 ff ff    	mov    -0x19b0(%rbp),%eax
   152d7:	48 98                	cltq   
   152d9:	c7 84 85 40 ea ff ff 	movl   $0xe65be844,-0x15c0(%rbp,%rax,4)
   152e0:	44 e8 5b e6 
   152e4:	83 85 50 e6 ff ff 01 	addl   $0x1,-0x19b0(%rbp)
   152eb:	83 bd 50 e6 ff ff 03 	cmpl   $0x3,-0x19b0(%rbp)
   152f2:	7e dd                	jle    152d1 <func_32+0x1098>
   152f4:	c7 05 5a dd 00 00 00 	movl   $0x0,0xdd5a(%rip)        # 23058 <g_128>
   152fb:	00 00 00 
   152fe:	e9 28 09 00 00       	jmpq   15c2b <func_32+0x19f2>
   15303:	c6 85 d1 e5 ff ff 3c 	movb   $0x3c,-0x1a2f(%rbp)
   1530a:	48 8d 05 df f7 00 00 	lea    0xf7df(%rip),%rax        # 24af0 <g_101>
   15311:	48 89 85 c8 e8 ff ff 	mov    %rax,-0x1738(%rbp)
   15318:	48 8d 05 b9 03 01 00 	lea    0x103b9(%rip),%rax        # 256d8 <g_447+0x3d8>
   1531f:	48 89 85 d0 e8 ff ff 	mov    %rax,-0x1730(%rbp)
   15326:	48 8d 05 7b de 00 00 	lea    0xde7b(%rip),%rax        # 231a8 <g_635>
   1532d:	48 89 85 d8 e8 ff ff 	mov    %rax,-0x1728(%rbp)
   15334:	c7 85 28 e6 ff ff 61 	movl   $0x62b81b61,-0x19d8(%rbp)
   1533b:	1b b8 62 
   1533e:	c7 85 40 eb ff ff 67 	movl   $0xd2a47367,-0x14c0(%rbp)
   15345:	73 a4 d2 
   15348:	c7 85 44 eb ff ff f9 	movl   $0xfffffff9,-0x14bc(%rbp)
   1534f:	ff ff ff 
   15352:	c7 85 48 eb ff ff 67 	movl   $0xd2a47367,-0x14b8(%rbp)
   15359:	73 a4 d2 
   1535c:	c7 85 4c eb ff ff f9 	movl   $0xfffffff9,-0x14b4(%rbp)
   15363:	ff ff ff 
   15366:	c7 85 50 eb ff ff 67 	movl   $0xd2a47367,-0x14b0(%rbp)
   1536d:	73 a4 d2 
   15370:	c7 85 54 eb ff ff f9 	movl   $0xfffffff9,-0x14ac(%rbp)
   15377:	ff ff ff 
   1537a:	c7 85 58 eb ff ff 67 	movl   $0xd2a47367,-0x14a8(%rbp)
   15381:	73 a4 d2 
   15384:	c7 85 5c eb ff ff f9 	movl   $0xfffffff9,-0x14a4(%rbp)
   1538b:	ff ff ff 
   1538e:	c7 85 60 eb ff ff 67 	movl   $0xd2a47367,-0x14a0(%rbp)
   15395:	73 a4 d2 
   15398:	c7 85 dc e6 ff ff ff 	movl   $0xffffffff,-0x1924(%rbp)
   1539f:	ff ff ff 
   153a2:	48 8d 85 50 ea ff ff 	lea    -0x15b0(%rbp),%rax
   153a9:	48 89 85 e0 e8 ff ff 	mov    %rax,-0x1720(%rbp)
   153b0:	48 8d 85 50 ea ff ff 	lea    -0x15b0(%rbp),%rax
   153b7:	48 83 c0 04          	add    $0x4,%rax
   153bb:	48 89 85 50 ef ff ff 	mov    %rax,-0x10b0(%rbp)
   153c2:	48 8d 85 50 ea ff ff 	lea    -0x15b0(%rbp),%rax
   153c9:	48 83 c0 04          	add    $0x4,%rax
   153cd:	48 89 85 58 ef ff ff 	mov    %rax,-0x10a8(%rbp)
   153d4:	48 8d 85 50 ea ff ff 	lea    -0x15b0(%rbp),%rax
   153db:	48 83 c0 04          	add    $0x4,%rax
   153df:	48 89 85 60 ef ff ff 	mov    %rax,-0x10a0(%rbp)
   153e6:	48 8d 85 50 ea ff ff 	lea    -0x15b0(%rbp),%rax
   153ed:	48 83 c0 04          	add    $0x4,%rax
   153f1:	48 89 85 68 ef ff ff 	mov    %rax,-0x1098(%rbp)
   153f8:	48 8d 85 50 ea ff ff 	lea    -0x15b0(%rbp),%rax
   153ff:	48 83 c0 04          	add    $0x4,%rax
   15403:	48 89 85 70 ef ff ff 	mov    %rax,-0x1090(%rbp)
   1540a:	48 8d 85 50 ea ff ff 	lea    -0x15b0(%rbp),%rax
   15411:	48 83 c0 04          	add    $0x4,%rax
   15415:	48 89 85 78 ef ff ff 	mov    %rax,-0x1088(%rbp)
   1541c:	48 8d 85 50 ea ff ff 	lea    -0x15b0(%rbp),%rax
   15423:	48 83 c0 04          	add    $0x4,%rax
   15427:	48 89 85 80 ef ff ff 	mov    %rax,-0x1080(%rbp)
   1542e:	48 8d 85 50 ea ff ff 	lea    -0x15b0(%rbp),%rax
   15435:	48 83 c0 04          	add    $0x4,%rax
   15439:	48 89 85 88 ef ff ff 	mov    %rax,-0x1078(%rbp)
   15440:	c6 05 f9 11 01 00 00 	movb   $0x0,0x111f9(%rip)        # 26640 <g_497>
   15447:	e9 f1 05 00 00       	jmpq   15a3d <func_32+0x1804>
   1544c:	c7 85 e4 e6 ff ff 01 	movl   $0x1,-0x191c(%rbp)
   15453:	00 00 00 
   15456:	48 8d 85 00 e6 ff ff 	lea    -0x1a00(%rbp),%rax
   1545d:	48 89 85 50 e9 ff ff 	mov    %rax,-0x16b0(%rbp)
   15464:	48 8d 05 6d 02 01 00 	lea    0x1026d(%rip),%rax        # 256d8 <g_447+0x3d8>
   1546b:	48 89 85 40 e7 ff ff 	mov    %rax,-0x18c0(%rbp)
   15472:	48 8d 85 40 e7 ff ff 	lea    -0x18c0(%rbp),%rax
   15479:	48 89 85 58 e9 ff ff 	mov    %rax,-0x16a8(%rbp)
   15480:	48 8d 05 b9 de 00 00 	lea    0xdeb9(%rip),%rax        # 23340 <g_856>
   15487:	48 89 85 d0 f7 ff ff 	mov    %rax,-0x830(%rbp)
   1548e:	48 c7 85 d8 f7 ff ff 	movq   $0x0,-0x828(%rbp)
   15495:	00 00 00 00 
   15499:	48 8d 05 a0 de 00 00 	lea    0xdea0(%rip),%rax        # 23340 <g_856>
   154a0:	48 89 85 e0 f7 ff ff 	mov    %rax,-0x820(%rbp)
   154a7:	48 8d 05 92 de 00 00 	lea    0xde92(%rip),%rax        # 23340 <g_856>
   154ae:	48 89 85 e8 f7 ff ff 	mov    %rax,-0x818(%rbp)
   154b5:	48 c7 85 f0 f7 ff ff 	movq   $0x0,-0x810(%rbp)
   154bc:	00 00 00 00 
   154c0:	48 8d 05 79 de 00 00 	lea    0xde79(%rip),%rax        # 23340 <g_856>
   154c7:	48 89 85 f8 f7 ff ff 	mov    %rax,-0x808(%rbp)
   154ce:	48 8d 05 6b de 00 00 	lea    0xde6b(%rip),%rax        # 23340 <g_856>
   154d5:	48 89 85 00 f8 ff ff 	mov    %rax,-0x800(%rbp)
   154dc:	48 c7 85 08 f8 ff ff 	movq   $0x0,-0x7f8(%rbp)
   154e3:	00 00 00 00 
   154e7:	48 8d 05 52 de 00 00 	lea    0xde52(%rip),%rax        # 23340 <g_856>
   154ee:	48 89 85 10 f8 ff ff 	mov    %rax,-0x7f0(%rbp)
   154f5:	48 8d 05 44 de 00 00 	lea    0xde44(%rip),%rax        # 23340 <g_856>
   154fc:	48 89 85 18 f8 ff ff 	mov    %rax,-0x7e8(%rbp)
   15503:	48 c7 85 20 f8 ff ff 	movq   $0x0,-0x7e0(%rbp)
   1550a:	00 00 00 00 
   1550e:	48 c7 85 28 f8 ff ff 	movq   $0x0,-0x7d8(%rbp)
   15515:	00 00 00 00 
   15519:	48 c7 85 30 f8 ff ff 	movq   $0x0,-0x7d0(%rbp)
   15520:	00 00 00 00 
   15524:	48 c7 85 38 f8 ff ff 	movq   $0x0,-0x7c8(%rbp)
   1552b:	00 00 00 00 
   1552f:	48 c7 85 40 f8 ff ff 	movq   $0x0,-0x7c0(%rbp)
   15536:	00 00 00 00 
   1553a:	48 c7 85 48 f8 ff ff 	movq   $0x0,-0x7b8(%rbp)
   15541:	00 00 00 00 
   15545:	48 c7 85 50 f8 ff ff 	movq   $0x0,-0x7b0(%rbp)
   1554c:	00 00 00 00 
   15550:	48 c7 85 58 f8 ff ff 	movq   $0x0,-0x7a8(%rbp)
   15557:	00 00 00 00 
   1555b:	48 c7 85 60 f8 ff ff 	movq   $0x0,-0x7a0(%rbp)
   15562:	00 00 00 00 
   15566:	48 c7 85 68 f8 ff ff 	movq   $0x0,-0x798(%rbp)
   1556d:	00 00 00 00 
   15571:	66 c7 85 e8 e5 ff ff 	movw   $0x9bf7,-0x1a18(%rbp)
   15578:	f7 9b 
   1557a:	48 c7 85 60 e9 ff ff 	movq   $0x0,-0x16a0(%rbp)
   15581:	00 00 00 00 
   15585:	48 8d 05 a4 10 01 00 	lea    0x110a4(%rip),%rax        # 26630 <g_251>
   1558c:	48 89 85 68 e9 ff ff 	mov    %rax,-0x1698(%rbp)
   15593:	48 8d 05 26 db 00 00 	lea    0xdb26(%rip),%rax        # 230c0 <g_253>
   1559a:	48 89 85 70 e9 ff ff 	mov    %rax,-0x1690(%rbp)
   155a1:	48 c7 85 78 e9 ff ff 	movq   $0x0,-0x1688(%rbp)
   155a8:	00 00 00 00 
   155ac:	66 c7 85 36 ea ff ff 	movw   $0xb2eb,-0x15ca(%rbp)
   155b3:	eb b2 
   155b5:	66 c7 85 38 ea ff ff 	movw   $0xff9d,-0x15c8(%rbp)
   155bc:	9d ff 
   155be:	66 c7 85 3a ea ff ff 	movw   $0xb2eb,-0x15c6(%rbp)
   155c5:	eb b2 
   155c7:	66 c7 85 3c ea ff ff 	movw   $0xff9d,-0x15c4(%rbp)
   155ce:	9d ff 
   155d0:	66 c7 85 3e ea ff ff 	movw   $0xb2eb,-0x15c2(%rbp)
   155d7:	eb b2 
   155d9:	48 8d 85 36 ea ff ff 	lea    -0x15ca(%rbp),%rax
   155e0:	48 83 c0 04          	add    $0x4,%rax
   155e4:	48 89 85 48 e7 ff ff 	mov    %rax,-0x18b8(%rbp)
   155eb:	c6 85 d7 e5 ff ff 04 	movb   $0x4,-0x1a29(%rbp)
   155f2:	48 8d 45 bf          	lea    -0x41(%rbp),%rax
   155f6:	48 83 c0 06          	add    $0x6,%rax
   155fa:	48 89 85 80 e9 ff ff 	mov    %rax,-0x1680(%rbp)
   15601:	c7 85 40 e6 ff ff 00 	movl   $0x0,-0x19c0(%rbp)
   15608:	00 00 00 
   1560b:	eb 1e                	jmp    1562b <func_32+0x13f2>
   1560d:	8b 85 40 e6 ff ff    	mov    -0x19c0(%rbp),%eax
   15613:	48 98                	cltq   
   15615:	48 8d 15 e4 f4 00 00 	lea    0xf4e4(%rip),%rdx        # 24b00 <g_135>
   1561c:	48 89 94 c5 30 ee ff 	mov    %rdx,-0x11d0(%rbp,%rax,8)
   15623:	ff 
   15624:	83 85 40 e6 ff ff 01 	addl   $0x1,-0x19c0(%rbp)
   1562b:	83 bd 40 e6 ff ff 05 	cmpl   $0x5,-0x19c0(%rbp)
   15632:	7e d9                	jle    1560d <func_32+0x13d4>
   15634:	c7 85 40 e6 ff ff 00 	movl   $0x0,-0x19c0(%rbp)
   1563b:	00 00 00 
   1563e:	eb 1e                	jmp    1565e <func_32+0x1425>
   15640:	8b 85 40 e6 ff ff    	mov    -0x19c0(%rbp),%eax
   15646:	48 98                	cltq   
   15648:	48 8d 95 48 e7 ff ff 	lea    -0x18b8(%rbp),%rdx
   1564f:	48 89 94 c5 30 ec ff 	mov    %rdx,-0x13d0(%rbp,%rax,8)
   15656:	ff 
   15657:	83 85 40 e6 ff ff 01 	addl   $0x1,-0x19c0(%rbp)
   1565e:	83 bd 40 e6 ff ff 04 	cmpl   $0x4,-0x19c0(%rbp)
   15665:	7e d9                	jle    15640 <func_32+0x1407>
   15667:	0f b6 85 d1 e5 ff ff 	movzbl -0x1a2f(%rbp),%eax
   1566e:	83 c0 01             	add    $0x1,%eax
   15671:	88 85 d1 e5 ff ff    	mov    %al,-0x1a2f(%rbp)
   15677:	8b 85 48 ea ff ff    	mov    -0x15b8(%rbp),%eax
   1567d:	0f be d8             	movsbl %al,%ebx
   15680:	48 8b 05 81 f4 00 00 	mov    0xf481(%rip),%rax        # 24b08 <g_134>
   15687:	48 8b 00             	mov    (%rax),%rax
   1568a:	48 89 85 68 e7 ff ff 	mov    %rax,-0x1898(%rbp)
   15691:	48 8b 85 c8 e8 ff ff 	mov    -0x1738(%rbp),%rax
   15698:	48 89 05 c1 0f 01 00 	mov    %rax,0x10fc1(%rip)        # 26660 <g_843>
   1569f:	48 8b 05 ba 0f 01 00 	mov    0x10fba(%rip),%rax        # 26660 <g_843>
   156a6:	48 89 85 f8 e6 ff ff 	mov    %rax,-0x1908(%rbp)
   156ad:	48 8b 85 f8 e6 ff ff 	mov    -0x1908(%rbp),%rax
   156b4:	48 39 85 68 e7 ff ff 	cmp    %rax,-0x1898(%rbp)
   156bb:	0f 95 c0             	setne  %al
   156be:	0f b6 c0             	movzbl %al,%eax
   156c1:	be 00 00 00 00       	mov    $0x0,%esi
   156c6:	48 89 c7             	mov    %rax,%rdi
   156c9:	e8 e6 32 ff ff       	callq  89b4 <safe_mod_func_int64_t_s_s>
   156ce:	0f b7 15 5b 0f 01 00 	movzwl 0x10f5b(%rip),%edx        # 26630 <g_251>
   156d5:	48 8b 85 98 e7 ff ff 	mov    -0x1868(%rbp),%rax
   156dc:	66 89 10             	mov    %dx,(%rax)
   156df:	be 02 00 00 00       	mov    $0x2,%esi
   156e4:	bf 00 00 00 00       	mov    $0x0,%edi
   156e9:	e8 7e 2c ff ff       	callq  836c <safe_rshift_func_int8_t_s_u>
   156ee:	0f be d0             	movsbl %al,%edx
   156f1:	48 8b 05 b8 fb 00 00 	mov    0xfbb8(%rip),%rax        # 252b0 <g_432>
   156f8:	0f b6 00             	movzbl (%rax),%eax
   156fb:	0f be c0             	movsbl %al,%eax
   156fe:	89 d6                	mov    %edx,%esi
   15700:	89 c7                	mov    %eax,%edi
   15702:	e8 65 2c ff ff       	callq  836c <safe_rshift_func_int8_t_s_u>
   15707:	0f b6 05 52 da 00 00 	movzbl 0xda52(%rip),%eax        # 23160 <g_556>
   1570e:	48 0f be c0          	movsbq %al,%rax
   15712:	be 01 00 00 00       	mov    $0x1,%esi
   15717:	48 89 c7             	mov    %rax,%rdi
   1571a:	e8 2c 39 ff ff       	callq  904b <safe_sub_func_uint64_t_u_u>
   1571f:	c7 85 d4 e6 ff ff 77 	movl   $0x9d77,-0x192c(%rbp)
   15726:	9d 00 00 
   15729:	8b 85 d4 e6 ff ff    	mov    -0x192c(%rbp),%eax
   1572f:	89 c2                	mov    %eax,%edx
   15731:	48 8b 85 c0 eb ff ff 	mov    -0x1440(%rbp),%rax
   15738:	09 d0                	or     %edx,%eax
   1573a:	0f b7 c0             	movzwl %ax,%eax
   1573d:	be 4f f8 00 00       	mov    $0xf84f,%esi
   15742:	89 c7                	mov    %eax,%edi
   15744:	e8 b6 35 ff ff       	callq  8cff <safe_add_func_uint16_t_u_u>
   15749:	48 8b 95 40 e7 ff ff 	mov    -0x18c0(%rbp),%rdx
   15750:	48 8b 85 58 e9 ff ff 	mov    -0x16a8(%rbp),%rax
   15757:	48 89 10             	mov    %rdx,(%rax)
   1575a:	48 8b 85 58 e9 ff ff 	mov    -0x16a8(%rbp),%rax
   15761:	48 8b 00             	mov    (%rax),%rax
   15764:	48 39 85 d0 e8 ff ff 	cmp    %rax,-0x1730(%rbp)
   1576b:	0f 94 c0             	sete   %al
   1576e:	0f b6 d0             	movzbl %al,%edx
   15771:	8b 85 48 ea ff ff    	mov    -0x15b8(%rbp),%eax
   15777:	39 c2                	cmp    %eax,%edx
   15779:	0f 9f c0             	setg   %al
   1577c:	0f b6 d0             	movzbl %al,%edx
   1577f:	48 8b 85 c0 e5 ff ff 	mov    -0x1a40(%rbp),%rax
   15786:	0f b6 00             	movzbl (%rax),%eax
   15789:	0f be c0             	movsbl %al,%eax
   1578c:	39 c2                	cmp    %eax,%edx
   1578e:	0f 95 c0             	setne  %al
   15791:	0f b6 d0             	movzbl %al,%edx
   15794:	48 8b 85 68 e9 ff ff 	mov    -0x1698(%rbp),%rax
   1579b:	66 89 10             	mov    %dx,(%rax)
   1579e:	48 8b 85 68 e9 ff ff 	mov    -0x1698(%rbp),%rax
   157a5:	0f b7 10             	movzwl (%rax),%edx
   157a8:	48 8b 85 70 e9 ff ff 	mov    -0x1690(%rbp),%rax
   157af:	66 89 10             	mov    %dx,(%rax)
   157b2:	b8 00 00 00 00       	mov    $0x0,%eax
   157b7:	0f be c0             	movsbl %al,%eax
   157ba:	89 de                	mov    %ebx,%esi
   157bc:	89 c7                	mov    %eax,%edi
   157be:	e8 4f 2a ff ff       	callq  8212 <safe_mul_func_int8_t_s_s>
   157c3:	3c 06                	cmp    $0x6,%al
   157c5:	0f 97 c0             	seta   %al
   157c8:	0f b6 d0             	movzbl %al,%edx
   157cb:	8b 85 ec e5 ff ff    	mov    -0x1a14(%rbp),%eax
   157d1:	39 c2                	cmp    %eax,%edx
   157d3:	0f 9d c2             	setge  %dl
   157d6:	48 8b 05 1b f3 00 00 	mov    0xf31b(%rip),%rax        # 24af8 <g_108>
   157dd:	0f b6 d2             	movzbl %dl,%edx
   157e0:	89 10                	mov    %edx,(%rax)
   157e2:	48 8b 85 c0 e5 ff ff 	mov    -0x1a40(%rbp),%rax
   157e9:	0f b6 00             	movzbl (%rax),%eax
   157ec:	0f b6 d8             	movzbl %al,%ebx
   157ef:	0f b7 85 3a ea ff ff 	movzwl -0x15c6(%rbp),%eax
   157f6:	83 e8 01             	sub    $0x1,%eax
   157f9:	66 89 85 3a ea ff ff 	mov    %ax,-0x15c6(%rbp)
   15800:	0f b6 05 49 d9 00 00 	movzbl 0xd949(%rip),%eax        # 23150 <g_481+0x30>
   15807:	44 0f b6 e0          	movzbl %al,%r12d
   1580b:	48 8b 85 c0 e5 ff ff 	mov    -0x1a40(%rbp),%rax
   15812:	0f b6 00             	movzbl (%rax),%eax
   15815:	0f be c0             	movsbl %al,%eax
   15818:	be fb ff ff ff       	mov    $0xfffffffb,%esi
   1581d:	89 c7                	mov    %eax,%edi
   1581f:	e8 46 2a ff ff       	callq  826a <safe_div_func_int8_t_s_s>
   15824:	0f be d0             	movsbl %al,%edx
   15827:	48 8b 05 8a fa 00 00 	mov    0xfa8a(%rip),%rax        # 252b8 <g_443>
   1582e:	0f b7 00             	movzwl (%rax),%eax
   15831:	0f b7 c0             	movzwl %ax,%eax
   15834:	39 c2                	cmp    %eax,%edx
   15836:	0f 9c c0             	setl   %al
   15839:	0f b6 d0             	movzbl %al,%edx
   1583c:	48 8b 05 6d fa 00 00 	mov    0xfa6d(%rip),%rax        # 252b0 <g_432>
   15843:	0f b6 00             	movzbl (%rax),%eax
   15846:	0f be c0             	movsbl %al,%eax
   15849:	89 d6                	mov    %edx,%esi
   1584b:	89 c7                	mov    %eax,%edi
   1584d:	e8 4f 2a ff ff       	callq  82a1 <safe_lshift_func_int8_t_s_s>
   15852:	0f b6 c0             	movzbl %al,%eax
   15855:	be 01 00 00 00       	mov    $0x1,%esi
   1585a:	89 c7                	mov    %eax,%edi
   1585c:	e8 5d 34 ff ff       	callq  8cbe <safe_rshift_func_uint8_t_u_u>
   15861:	0f b6 c0             	movzbl %al,%eax
   15864:	44 89 e6             	mov    %r12d,%esi
   15867:	89 c7                	mov    %eax,%edi
   15869:	e8 45 2b ff ff       	callq  83b3 <safe_add_func_int16_t_s_s>
   1586e:	89 de                	mov    %ebx,%esi
   15870:	bf 00 00 00 00       	mov    $0x0,%edi
   15875:	e8 61 33 ff ff       	callq  8bdb <safe_div_func_uint8_t_u_u>
   1587a:	48 8b 85 c8 e5 ff ff 	mov    -0x1a38(%rbp),%rax
   15881:	48 8b 10             	mov    (%rax),%rdx
   15884:	48 8b 85 c8 e5 ff ff 	mov    -0x1a38(%rbp),%rax
   1588b:	48 89 10             	mov    %rdx,(%rax)
   1588e:	48 8b 85 c8 e5 ff ff 	mov    -0x1a38(%rbp),%rax
   15895:	48 8b 00             	mov    (%rax),%rax
   15898:	48 c7 c6 f9 ff ff ff 	mov    $0xfffffffffffffff9,%rsi
   1589f:	48 89 c7             	mov    %rax,%rdi
   158a2:	e8 0d 31 ff ff       	callq  89b4 <safe_mod_func_int64_t_s_s>
   158a7:	0f be c0             	movsbl %al,%eax
   158aa:	be 00 00 00 00       	mov    $0x0,%esi
   158af:	89 c7                	mov    %eax,%edi
   158b1:	e8 7f 2a ff ff       	callq  8335 <safe_rshift_func_int8_t_s_s>
   158b6:	0f be d8             	movsbl %al,%ebx
   158b9:	48 8b 85 38 e8 ff ff 	mov    -0x17c8(%rbp),%rax
   158c0:	8b 00                	mov    (%rax),%eax
   158c2:	0f b7 c0             	movzwl %ax,%eax
   158c5:	be 04 00 00 00       	mov    $0x4,%esi
   158ca:	89 c7                	mov    %eax,%edi
   158cc:	e8 ed 34 ff ff       	callq  8dbe <safe_lshift_func_uint16_t_u_s>
   158d1:	98                   	cwtl   
   158d2:	89 de                	mov    %ebx,%esi
   158d4:	89 c7                	mov    %eax,%edi
   158d6:	e8 06 2c ff ff       	callq  84e1 <safe_lshift_func_int16_t_s_u>
   158db:	48 8b 85 d8 e8 ff ff 	mov    -0x1728(%rbp),%rax
   158e2:	48 89 05 bf f9 00 00 	mov    %rax,0xf9bf(%rip)        # 252a8 <g_307>
   158e9:	48 8b 05 b8 f9 00 00 	mov    0xf9b8(%rip),%rax        # 252a8 <g_307>
   158f0:	48 8d 15 01 d8 00 00 	lea    0xd801(%rip),%rdx        # 230f8 <g_380>
   158f7:	48 39 d0             	cmp    %rdx,%rax
   158fa:	0f 95 c0             	setne  %al
   158fd:	0f b6 c0             	movzbl %al,%eax
   15900:	be 01 00 00 00       	mov    $0x1,%esi
   15905:	89 c7                	mov    %eax,%edi
   15907:	e8 c7 2a ff ff       	callq  83d3 <safe_sub_func_int16_t_s_s>
   1590c:	89 c2                	mov    %eax,%edx
   1590e:	48 8b 05 e3 f1 00 00 	mov    0xf1e3(%rip),%rax        # 24af8 <g_108>
   15915:	0f bf d2             	movswl %dx,%edx
   15918:	89 10                	mov    %edx,(%rax)
   1591a:	0f b6 05 87 da 00 00 	movzbl 0xda87(%rip),%eax        # 233a8 <g_937>
   15921:	0f b6 d8             	movzbl %al,%ebx
   15924:	48 8b 05 d5 e9 00 00 	mov    0xe9d5(%rip),%rax        # 24300 <g_45>
   1592b:	8b 00                	mov    (%rax),%eax
   1592d:	41 89 c5             	mov    %eax,%r13d
   15930:	48 8b 85 38 e8 ff ff 	mov    -0x17c8(%rbp),%rax
   15937:	44 8b 20             	mov    (%rax),%r12d
   1593a:	8b 05 e4 d6 00 00    	mov    0xd6e4(%rip),%eax        # 23024 <g_18>
   15940:	89 c6                	mov    %eax,%esi
   15942:	bf 00 00 00 00       	mov    $0x0,%edi
   15947:	e8 46 2b ff ff       	callq  8492 <safe_lshift_func_int16_t_s_s>
   1594c:	c7 85 fc e5 ff ff ff 	movl   $0xffffffff,-0x1a04(%rbp)
   15953:	ff ff ff 
   15956:	8b 95 fc e5 ff ff    	mov    -0x1a04(%rbp),%edx
   1595c:	48 8b 85 48 e7 ff ff 	mov    -0x18b8(%rbp),%rax
   15963:	66 89 10             	mov    %dx,(%rax)
   15966:	0f b7 00             	movzwl (%rax),%eax
   15969:	0f b7 d0             	movzwl %ax,%edx
   1596c:	8b 85 48 ea ff ff    	mov    -0x15b8(%rbp),%eax
   15972:	39 c2                	cmp    %eax,%edx
   15974:	0f 95 c2             	setne  %dl
   15977:	48 8b 05 2a f9 00 00 	mov    0xf92a(%rip),%rax        # 252a8 <g_307>
   1597e:	0f b6 d2             	movzbl %dl,%edx
   15981:	89 10                	mov    %edx,(%rax)
   15983:	8b 85 48 ea ff ff    	mov    -0x15b8(%rbp),%eax
   15989:	3d d6 44 eb 6b       	cmp    $0x6beb44d6,%eax
   1598e:	0f 94 c0             	sete   %al
   15991:	0f b6 c0             	movzbl %al,%eax
   15994:	be 03 00 00 00       	mov    $0x3,%esi
   15999:	89 c7                	mov    %eax,%edi
   1599b:	e8 13 2a ff ff       	callq  83b3 <safe_add_func_int16_t_s_s>
   159a0:	48 8b 85 a8 e7 ff ff 	mov    -0x1858(%rbp),%rax
   159a7:	0f bf d0             	movswl %ax,%edx
   159aa:	48 8b 05 87 d6 00 00 	mov    0xd687(%rip),%rax        # 23038 <g_84>
   159b1:	98                   	cwtl   
   159b2:	89 d6                	mov    %edx,%esi
   159b4:	89 c7                	mov    %eax,%edi
   159b6:	e8 3a 2a ff ff       	callq  83f5 <safe_mul_func_int16_t_s_s>
   159bb:	98                   	cwtl   
   159bc:	44 09 e0             	or     %r12d,%eax
   159bf:	44 89 ee             	mov    %r13d,%esi
   159c2:	89 c7                	mov    %eax,%edi
   159c4:	e8 07 35 ff ff       	callq  8ed0 <safe_sub_func_uint32_t_u_u>
   159c9:	48 89 de             	mov    %rbx,%rsi
   159cc:	bf 00 00 00 00       	mov    $0x0,%edi
   159d1:	e8 58 36 ff ff       	callq  902e <safe_add_func_uint64_t_u_u>
   159d6:	88 85 d7 e5 ff ff    	mov    %al,-0x1a29(%rbp)
   159dc:	0f b6 85 d7 e5 ff ff 	movzbl -0x1a29(%rbp),%eax
   159e3:	be 00 00 00 00       	mov    $0x0,%esi
   159e8:	89 c7                	mov    %eax,%edi
   159ea:	e8 74 2b ff ff       	callq  8563 <safe_rshift_func_int16_t_s_u>
   159ef:	89 c2                	mov    %eax,%edx
   159f1:	48 8b 85 80 e9 ff ff 	mov    -0x1680(%rbp),%rax
   159f8:	0f b6 00             	movzbl (%rax),%eax
   159fb:	21 c2                	and    %eax,%edx
   159fd:	48 8b 85 80 e9 ff ff 	mov    -0x1680(%rbp),%rax
   15a04:	88 10                	mov    %dl,(%rax)
   15a06:	48 8b 85 80 e9 ff ff 	mov    -0x1680(%rbp),%rax
   15a0d:	0f b6 00             	movzbl (%rax),%eax
   15a10:	0f be c0             	movsbl %al,%eax
   15a13:	89 85 4c ea ff ff    	mov    %eax,-0x15b4(%rbp)
   15a19:	8b 95 48 ea ff ff    	mov    -0x15b8(%rbp),%edx
   15a1f:	8b 85 58 ea ff ff    	mov    -0x15a8(%rbp),%eax
   15a25:	31 d0                	xor    %edx,%eax
   15a27:	89 85 58 ea ff ff    	mov    %eax,-0x15a8(%rbp)
   15a2d:	0f b6 05 0c 0c 01 00 	movzbl 0x10c0c(%rip),%eax        # 26640 <g_497>
   15a34:	83 c0 01             	add    $0x1,%eax
   15a37:	88 05 03 0c 01 00    	mov    %al,0x10c03(%rip)        # 26640 <g_497>
   15a3d:	0f b6 05 fc 0b 01 00 	movzbl 0x10bfc(%rip),%eax        # 26640 <g_497>
   15a44:	3c 01                	cmp    $0x1,%al
   15a46:	0f 86 00 fa ff ff    	jbe    1544c <func_32+0x1213>
   15a4c:	83 bd 8c e6 ff ff 00 	cmpl   $0x0,-0x1974(%rbp)
   15a53:	0f 84 cf 00 00 00    	je     15b28 <func_32+0x18ef>
   15a59:	48 c7 85 20 e9 ff ff 	movq   $0x1,-0x16e0(%rbp)
   15a60:	01 00 00 00 
   15a64:	48 8d 05 c5 d5 00 00 	lea    0xd5c5(%rip),%rax        # 23030 <g_46>
   15a6b:	48 89 85 28 e9 ff ff 	mov    %rax,-0x16d8(%rbp)
   15a72:	66 c7 85 e6 e5 ff ff 	movw   $0x5606,-0x1a1a(%rbp)
   15a79:	06 56 
   15a7b:	48 8d 85 1c e6 ff ff 	lea    -0x19e4(%rbp),%rax
   15a82:	48 89 85 30 e9 ff ff 	mov    %rax,-0x16d0(%rbp)
   15a89:	48 8d 85 24 e6 ff ff 	lea    -0x19dc(%rbp),%rax
   15a90:	48 89 85 38 e9 ff ff 	mov    %rax,-0x16c8(%rbp)
   15a97:	48 c7 85 40 e9 ff ff 	movq   $0x0,-0x16c0(%rbp)
   15a9e:	00 00 00 00 
   15aa2:	48 8d 85 20 e6 ff ff 	lea    -0x19e0(%rbp),%rax
   15aa9:	48 89 85 48 e9 ff ff 	mov    %rax,-0x16b8(%rbp)
   15ab0:	c7 85 44 e6 ff ff 00 	movl   $0x0,-0x19bc(%rbp)
   15ab7:	00 00 00 
   15aba:	eb 1e                	jmp    15ada <func_32+0x18a1>
   15abc:	8b 85 44 e6 ff ff    	mov    -0x19bc(%rbp),%eax
   15ac2:	48 98                	cltq   
   15ac4:	48 8d 95 24 e6 ff ff 	lea    -0x19dc(%rbp),%rdx
   15acb:	48 89 94 c5 d0 f7 ff 	mov    %rdx,-0x830(%rbp,%rax,8)
   15ad2:	ff 
   15ad3:	83 85 44 e6 ff ff 01 	addl   $0x1,-0x19bc(%rbp)
   15ada:	83 bd 44 e6 ff ff 05 	cmpl   $0x5,-0x19bc(%rbp)
   15ae1:	7e d9                	jle    15abc <func_32+0x1883>
   15ae3:	c7 85 44 e6 ff ff 00 	movl   $0x0,-0x19bc(%rbp)
   15aea:	00 00 00 
   15aed:	eb 1a                	jmp    15b09 <func_32+0x18d0>
   15aef:	8b 85 44 e6 ff ff    	mov    -0x19bc(%rbp),%eax
   15af5:	48 98                	cltq   
   15af7:	c7 84 85 30 ee ff ff 	movl   $0xaa91668c,-0x11d0(%rbp,%rax,4)
   15afe:	8c 66 91 aa 
   15b02:	83 85 44 e6 ff ff 01 	addl   $0x1,-0x19bc(%rbp)
   15b09:	83 bd 44 e6 ff ff 02 	cmpl   $0x2,-0x19bc(%rbp)
   15b10:	7e dd                	jle    15aef <func_32+0x18b6>
   15b12:	0f b7 85 2e ea ff ff 	movzwl -0x15d2(%rbp),%eax
   15b19:	83 e8 01             	sub    $0x1,%eax
   15b1c:	66 89 85 2e ea ff ff 	mov    %ax,-0x15d2(%rbp)
   15b23:	e9 ed 00 00 00       	jmpq   15c15 <func_32+0x19dc>
   15b28:	48 8d 85 40 ea ff ff 	lea    -0x15c0(%rbp),%rax
   15b2f:	48 83 c0 08          	add    $0x8,%rax
   15b33:	48 89 85 e8 e8 ff ff 	mov    %rax,-0x1718(%rbp)
   15b3a:	48 8d 85 fc e5 ff ff 	lea    -0x1a04(%rbp),%rax
   15b41:	48 89 85 f0 e8 ff ff 	mov    %rax,-0x1710(%rbp)
   15b48:	48 c7 85 f8 e8 ff ff 	movq   $0x0,-0x1708(%rbp)
   15b4f:	00 00 00 00 
   15b53:	48 8d 85 04 e6 ff ff 	lea    -0x19fc(%rbp),%rax
   15b5a:	48 89 85 00 e9 ff ff 	mov    %rax,-0x1700(%rbp)
   15b61:	48 c7 85 08 e9 ff ff 	movq   $0x0,-0x16f8(%rbp)
   15b68:	00 00 00 00 
   15b6c:	48 8d 05 bd d4 00 00 	lea    0xd4bd(%rip),%rax        # 23030 <g_46>
   15b73:	48 89 85 10 e9 ff ff 	mov    %rax,-0x16f0(%rbp)
   15b7a:	48 8d 85 28 e6 ff ff 	lea    -0x19d8(%rbp),%rax
   15b81:	48 89 85 18 e9 ff ff 	mov    %rax,-0x16e8(%rbp)
   15b88:	c7 85 e0 e6 ff ff 08 	movl   $0xd98e0f08,-0x1920(%rbp)
   15b8f:	0f 8e d9 
   15b92:	c6 85 d6 e5 ff ff 01 	movb   $0x1,-0x1a2a(%rbp)
   15b99:	c7 85 48 e6 ff ff 00 	movl   $0x0,-0x19b8(%rbp)
   15ba0:	00 00 00 
   15ba3:	eb 4a                	jmp    15bef <func_32+0x19b6>
   15ba5:	c7 85 3c e6 ff ff 00 	movl   $0x0,-0x19c4(%rbp)
   15bac:	00 00 00 
   15baf:	eb 2e                	jmp    15bdf <func_32+0x19a6>
   15bb1:	8b 85 3c e6 ff ff    	mov    -0x19c4(%rbp),%eax
   15bb7:	48 63 d0             	movslq %eax,%rdx
   15bba:	8b 85 48 e6 ff ff    	mov    -0x19b8(%rbp),%eax
   15bc0:	48 98                	cltq   
   15bc2:	48 01 d0             	add    %rdx,%rax
   15bc5:	48 8d 95 d0 ea ff ff 	lea    -0x1530(%rbp),%rdx
   15bcc:	48 83 c2 24          	add    $0x24,%rdx
   15bd0:	48 89 94 c5 d0 f7 ff 	mov    %rdx,-0x830(%rbp,%rax,8)
   15bd7:	ff 
   15bd8:	83 85 3c e6 ff ff 01 	addl   $0x1,-0x19c4(%rbp)
   15bdf:	83 bd 3c e6 ff ff 00 	cmpl   $0x0,-0x19c4(%rbp)
   15be6:	7e c9                	jle    15bb1 <func_32+0x1978>
   15be8:	83 85 48 e6 ff ff 01 	addl   $0x1,-0x19b8(%rbp)
   15bef:	83 bd 48 e6 ff ff 03 	cmpl   $0x3,-0x19b8(%rbp)
   15bf6:	7e ad                	jle    15ba5 <func_32+0x196c>
   15bf8:	0f b6 85 d6 e5 ff ff 	movzbl -0x1a2a(%rbp),%eax
   15bff:	83 e8 01             	sub    $0x1,%eax
   15c02:	88 85 d6 e5 ff ff    	mov    %al,-0x1a2a(%rbp)
   15c08:	48 8b 05 e9 ee 00 00 	mov    0xeee9(%rip),%rax        # 24af8 <g_108>
   15c0f:	8b 00                	mov    (%rax),%eax
   15c11:	85 c0                	test   %eax,%eax
   15c13:	75 25                	jne    15c3a <func_32+0x1a01>
   15c15:	83 ad 4c e6 ff ff 01 	subl   $0x1,-0x19b4(%rbp)
   15c1c:	8b 05 36 d4 00 00    	mov    0xd436(%rip),%eax        # 23058 <g_128>
   15c22:	83 c0 01             	add    $0x1,%eax
   15c25:	89 05 2d d4 00 00    	mov    %eax,0xd42d(%rip)        # 23058 <g_128>
   15c2b:	8b 05 27 d4 00 00    	mov    0xd427(%rip),%eax        # 23058 <g_128>
   15c31:	83 f8 01             	cmp    $0x1,%eax
   15c34:	0f 86 c9 f6 ff ff    	jbe    15303 <func_32+0x10ca>
   15c3a:	48 8b 85 38 e8 ff ff 	mov    -0x17c8(%rbp),%rax
   15c41:	8b 10                	mov    (%rax),%edx
   15c43:	48 8b 85 38 e8 ff ff 	mov    -0x17c8(%rbp),%rax
   15c4a:	89 10                	mov    %edx,(%rax)
   15c4c:	48 8b 85 28 e7 ff ff 	mov    -0x18d8(%rbp),%rax
   15c53:	0f b7 10             	movzwl (%rax),%edx
   15c56:	83 ea 01             	sub    $0x1,%edx
   15c59:	66 89 10             	mov    %dx,(%rax)
   15c5c:	0f b7 00             	movzwl (%rax),%eax
   15c5f:	0f b7 c0             	movzwl %ax,%eax
   15c62:	be 04 00 00 00       	mov    $0x4,%esi
   15c67:	89 c7                	mov    %eax,%edi
   15c69:	e8 50 31 ff ff       	callq  8dbe <safe_lshift_func_uint16_t_u_s>
   15c6e:	89 c2                	mov    %eax,%edx
   15c70:	48 8b 85 98 e7 ff ff 	mov    -0x1868(%rbp),%rax
   15c77:	66 89 10             	mov    %dx,(%rax)
   15c7a:	48 b8 6b ec a4 72 70 	movabs $0x9681017072a4ec6b,%rax
   15c81:	01 81 96 
   15c84:	48 89 85 88 e9 ff ff 	mov    %rax,-0x1678(%rbp)
   15c8b:	c7 85 e8 e6 ff ff e1 	movl   $0x461278e1,-0x1918(%rbp)
   15c92:	78 12 46 
   15c95:	c7 85 ec e6 ff ff 44 	movl   $0x7d6bfa44,-0x1914(%rbp)
   15c9c:	fa 6b 7d 
   15c9f:	48 c7 85 50 e7 ff ff 	movq   $0xffffffffffffffff,-0x18b0(%rbp)
   15ca6:	ff ff ff ff 
   15caa:	48 c7 85 58 e7 ff ff 	movq   $0x0,-0x18a8(%rbp)
   15cb1:	00 00 00 00 
   15cb5:	e9 14 02 00 00       	jmpq   15ece <func_32+0x1c95>
   15cba:	66 c7 85 ea e5 ff ff 	movw   $0xab4f,-0x1a16(%rbp)
   15cc1:	4f ab 
   15cc3:	c7 85 f0 e6 ff ff 7c 	movl   $0x17ce197c,-0x1910(%rbp)
   15cca:	19 ce 17 
   15ccd:	c7 85 34 e6 ff ff 00 	movl   $0x0,-0x19cc(%rbp)
   15cd4:	00 00 00 
   15cd7:	eb 6f                	jmp    15d48 <func_32+0x1b0f>
   15cd9:	c7 85 38 e6 ff ff 00 	movl   $0x0,-0x19c8(%rbp)
   15ce0:	00 00 00 
   15ce3:	eb 53                	jmp    15d38 <func_32+0x1aff>
   15ce5:	c7 85 2c e6 ff ff 00 	movl   $0x0,-0x19d4(%rbp)
   15cec:	00 00 00 
   15cef:	eb 37                	jmp    15d28 <func_32+0x1aef>
   15cf1:	8b 85 2c e6 ff ff    	mov    -0x19d4(%rbp),%eax
   15cf7:	48 63 c8             	movslq %eax,%rcx
   15cfa:	8b 85 38 e6 ff ff    	mov    -0x19c8(%rbp),%eax
   15d00:	48 63 d0             	movslq %eax,%rdx
   15d03:	8b 85 34 e6 ff ff    	mov    -0x19cc(%rbp),%eax
   15d09:	48 98                	cltq   
   15d0b:	48 01 ca             	add    %rcx,%rdx
   15d0e:	48 01 d0             	add    %rdx,%rax
   15d11:	48 8d 55 bf          	lea    -0x41(%rbp),%rdx
   15d15:	48 83 c2 05          	add    $0x5,%rdx
   15d19:	48 89 94 c5 50 ef ff 	mov    %rdx,-0x10b0(%rbp,%rax,8)
   15d20:	ff 
   15d21:	83 85 2c e6 ff ff 01 	addl   $0x1,-0x19d4(%rbp)
   15d28:	83 bd 2c e6 ff ff 00 	cmpl   $0x0,-0x19d4(%rbp)
   15d2f:	7e c0                	jle    15cf1 <func_32+0x1ab8>
   15d31:	83 85 38 e6 ff ff 01 	addl   $0x1,-0x19c8(%rbp)
   15d38:	83 bd 38 e6 ff ff 00 	cmpl   $0x0,-0x19c8(%rbp)
   15d3f:	7e a4                	jle    15ce5 <func_32+0x1aac>
   15d41:	83 85 34 e6 ff ff 01 	addl   $0x1,-0x19cc(%rbp)
   15d48:	83 bd 34 e6 ff ff 07 	cmpl   $0x7,-0x19cc(%rbp)
   15d4f:	7e 88                	jle    15cd9 <func_32+0x1aa0>
   15d51:	c7 85 34 e6 ff ff 00 	movl   $0x0,-0x19cc(%rbp)
   15d58:	00 00 00 
   15d5b:	eb 1a                	jmp    15d77 <func_32+0x1b3e>
   15d5d:	8b 85 34 e6 ff ff    	mov    -0x19cc(%rbp),%eax
   15d63:	48 98                	cltq   
   15d65:	c7 84 85 30 ee ff ff 	movl   $0x415f69c9,-0x11d0(%rbp,%rax,4)
   15d6c:	c9 69 5f 41 
   15d70:	83 85 34 e6 ff ff 01 	addl   $0x1,-0x19cc(%rbp)
   15d77:	83 bd 34 e6 ff ff 00 	cmpl   $0x0,-0x19cc(%rbp)
   15d7e:	7e dd                	jle    15d5d <func_32+0x1b24>
   15d80:	c7 85 34 e6 ff ff 00 	movl   $0x0,-0x19cc(%rbp)
   15d87:	00 00 00 
   15d8a:	eb 1e                	jmp    15daa <func_32+0x1b71>
   15d8c:	8b 85 34 e6 ff ff    	mov    -0x19cc(%rbp),%eax
   15d92:	48 98                	cltq   
   15d94:	48 8d 95 50 ea ff ff 	lea    -0x15b0(%rbp),%rdx
   15d9b:	48 89 94 c5 d0 f7 ff 	mov    %rdx,-0x830(%rbp,%rax,8)
   15da2:	ff 
   15da3:	83 85 34 e6 ff ff 01 	addl   $0x1,-0x19cc(%rbp)
   15daa:	83 bd 34 e6 ff ff 08 	cmpl   $0x8,-0x19cc(%rbp)
   15db1:	7e d9                	jle    15d8c <func_32+0x1b53>
   15db3:	48 83 bd c8 e5 ff ff 	cmpq   $0x0,-0x1a38(%rbp)
   15dba:	00 
   15dbb:	75 07                	jne    15dc4 <func_32+0x1b8b>
   15dbd:	b8 03 00 00 00       	mov    $0x3,%eax
   15dc2:	eb 05                	jmp    15dc9 <func_32+0x1b90>
   15dc4:	b8 02 00 00 00       	mov    $0x2,%eax
   15dc9:	be 00 00 00 00       	mov    $0x0,%esi
   15dce:	89 c7                	mov    %eax,%edi
   15dd0:	e8 55 27 ff ff       	callq  852a <safe_rshift_func_int16_t_s_s>
   15dd5:	66 85 c0             	test   %ax,%ax
   15dd8:	74 08                	je     15de2 <func_32+0x1ba9>
   15dda:	8b 85 10 e6 ff ff    	mov    -0x19f0(%rbp),%eax
   15de0:	85 c0                	test   %eax,%eax
   15de2:	be 7f 22 00 00       	mov    $0x227f,%esi
   15de7:	bf 00 00 00 00       	mov    $0x0,%edi
   15dec:	e8 c2 25 ff ff       	callq  83b3 <safe_add_func_int16_t_s_s>
   15df1:	89 c3                	mov    %eax,%ebx
   15df3:	8b 05 af d3 00 00    	mov    0xd3af(%rip),%eax        # 231a8 <g_635>
   15df9:	48 63 d0             	movslq %eax,%rdx
   15dfc:	48 0f bf 85 ea e5 ff 	movswq -0x1a16(%rbp),%rax
   15e03:	ff 
   15e04:	48 8b 0d a5 d5 00 00 	mov    0xd5a5(%rip),%rcx        # 233b0 <g_987>
   15e0b:	48 8d 8d f8 e6 ff ff 	lea    -0x1908(%rbp),%rcx
   15e12:	48 39 8d 40 e8 ff ff 	cmp    %rcx,-0x17c0(%rbp)
   15e19:	0f 94 c1             	sete   %cl
   15e1c:	0f b6 c9             	movzbl %cl,%ecx
   15e1f:	48 89 8d 88 e9 ff ff 	mov    %rcx,-0x1678(%rbp)
   15e26:	48 0b 85 88 e9 ff ff 	or     -0x1678(%rbp),%rax
   15e2d:	48 89 d6             	mov    %rdx,%rsi
   15e30:	48 89 c7             	mov    %rax,%rdi
   15e33:	e8 70 2a ff ff       	callq  88a8 <safe_sub_func_int64_t_s_s>
   15e38:	48 8b 95 c0 e8 ff ff 	mov    -0x1740(%rbp),%rdx
   15e3f:	8b 0a                	mov    (%rdx),%ecx
   15e41:	0f bf d3             	movswl %bx,%edx
   15e44:	09 d1                	or     %edx,%ecx
   15e46:	48 8b 95 c0 e8 ff ff 	mov    -0x1740(%rbp),%rdx
   15e4d:	89 0a                	mov    %ecx,(%rdx)
   15e4f:	48 8b 95 c0 e8 ff ff 	mov    -0x1740(%rbp),%rdx
   15e56:	8b 12                	mov    (%rdx),%edx
   15e58:	48 63 d2             	movslq %edx,%rdx
   15e5b:	48 21 c2             	and    %rax,%rdx
   15e5e:	48 8b 85 c8 e5 ff ff 	mov    -0x1a38(%rbp),%rax
   15e65:	48 bb 2d 77 e7 45 7c 	movabs $0xefdfa47c45e7772d,%rbx
   15e6c:	a4 df ef 
   15e6f:	48 89 18             	mov    %rbx,(%rax)
   15e72:	48 8b 85 c8 e5 ff ff 	mov    -0x1a38(%rbp),%rax
   15e79:	48 8b 00             	mov    (%rax),%rax
   15e7c:	48 89 d6             	mov    %rdx,%rsi
   15e7f:	48 89 c7             	mov    %rax,%rdi
   15e82:	e8 2d 2b ff ff       	callq  89b4 <safe_mod_func_int64_t_s_s>
   15e87:	89 85 e8 e6 ff ff    	mov    %eax,-0x1918(%rbp)
   15e8d:	8b 85 e8 e6 ff ff    	mov    -0x1918(%rbp),%eax
   15e93:	89 85 30 ee ff ff    	mov    %eax,-0x11d0(%rbp)
   15e99:	8b 85 30 ee ff ff    	mov    -0x11d0(%rbp),%eax
   15e9f:	0c 92                	or     $0x92,%al
   15ea1:	48 98                	cltq   
   15ea3:	09 85 f0 e6 ff ff    	or     %eax,-0x1910(%rbp)
   15ea9:	48 83 85 50 e7 ff ff 	addq   $0x1,-0x18b0(%rbp)
   15eb0:	01 
   15eb1:	48 8b 05 48 ec 00 00 	mov    0xec48(%rip),%rax        # 24b00 <g_135>
   15eb8:	48 8d 95 40 ea ff ff 	lea    -0x15c0(%rbp),%rdx
   15ebf:	48 83 c2 08          	add    $0x8,%rdx
   15ec3:	48 89 10             	mov    %rdx,(%rax)
   15ec6:	48 83 85 58 e7 ff ff 	addq   $0x1,-0x18a8(%rbp)
   15ecd:	01 
   15ece:	48 83 bd 58 e7 ff ff 	cmpq   $0x1,-0x18a8(%rbp)
   15ed5:	01 
   15ed6:	0f 8e de fd ff ff    	jle    15cba <func_32+0x1a81>
   15edc:	c7 85 14 e6 ff ff 01 	movl   $0x1,-0x19ec(%rbp)
   15ee3:	00 00 00 
   15ee6:	e9 22 0c 00 00       	jmpq   16b0d <func_32+0x28d4>
   15eeb:	48 b8 0c 30 4f cd 0e 	movabs $0x6202390ecd4f300c,%rax
   15ef2:	39 02 62 
   15ef5:	48 89 85 90 e9 ff ff 	mov    %rax,-0x1670(%rbp)
   15efc:	48 c7 85 98 e9 ff ff 	movq   $0x0,-0x1668(%rbp)
   15f03:	00 00 00 00 
   15f07:	48 8d 85 f4 e5 ff ff 	lea    -0x1a0c(%rbp),%rax
   15f0e:	48 89 85 a0 e9 ff ff 	mov    %rax,-0x1660(%rbp)
   15f15:	48 8d 85 24 e6 ff ff 	lea    -0x19dc(%rbp),%rax
   15f1c:	48 89 85 a8 e9 ff ff 	mov    %rax,-0x1658(%rbp)
   15f23:	48 8d 85 40 ea ff ff 	lea    -0x15c0(%rbp),%rax
   15f2a:	48 83 c0 08          	add    $0x8,%rax
   15f2e:	48 89 85 d0 f7 ff ff 	mov    %rax,-0x830(%rbp)
   15f35:	48 c7 85 d8 f7 ff ff 	movq   $0x0,-0x828(%rbp)
   15f3c:	00 00 00 00 
   15f40:	48 8d 85 40 ea ff ff 	lea    -0x15c0(%rbp),%rax
   15f47:	48 83 c0 0c          	add    $0xc,%rax
   15f4b:	48 89 85 e0 f7 ff ff 	mov    %rax,-0x820(%rbp)
   15f52:	48 8d 85 f4 e5 ff ff 	lea    -0x1a0c(%rbp),%rax
   15f59:	48 89 85 e8 f7 ff ff 	mov    %rax,-0x818(%rbp)
   15f60:	48 8d 85 40 ea ff ff 	lea    -0x15c0(%rbp),%rax
   15f67:	48 83 c0 08          	add    $0x8,%rax
   15f6b:	48 89 85 f0 f7 ff ff 	mov    %rax,-0x810(%rbp)
   15f72:	48 8d 85 fc e5 ff ff 	lea    -0x1a04(%rbp),%rax
   15f79:	48 89 85 f8 f7 ff ff 	mov    %rax,-0x808(%rbp)
   15f80:	48 c7 85 00 f8 ff ff 	movq   $0x0,-0x800(%rbp)
   15f87:	00 00 00 00 
   15f8b:	48 8d 85 fc e5 ff ff 	lea    -0x1a04(%rbp),%rax
   15f92:	48 89 85 08 f8 ff ff 	mov    %rax,-0x7f8(%rbp)
   15f99:	48 8d 85 40 ea ff ff 	lea    -0x15c0(%rbp),%rax
   15fa0:	48 83 c0 08          	add    $0x8,%rax
   15fa4:	48 89 85 10 f8 ff ff 	mov    %rax,-0x7f0(%rbp)
   15fab:	48 8d 85 f4 e5 ff ff 	lea    -0x1a0c(%rbp),%rax
   15fb2:	48 89 85 18 f8 ff ff 	mov    %rax,-0x7e8(%rbp)
   15fb9:	48 8d 85 40 ea ff ff 	lea    -0x15c0(%rbp),%rax
   15fc0:	48 83 c0 0c          	add    $0xc,%rax
   15fc4:	48 89 85 20 f8 ff ff 	mov    %rax,-0x7e0(%rbp)
   15fcb:	48 c7 85 28 f8 ff ff 	movq   $0x0,-0x7d8(%rbp)
   15fd2:	00 00 00 00 
   15fd6:	48 8d 85 40 ea ff ff 	lea    -0x15c0(%rbp),%rax
   15fdd:	48 83 c0 08          	add    $0x8,%rax
   15fe1:	48 89 85 30 f8 ff ff 	mov    %rax,-0x7d0(%rbp)
   15fe8:	48 8d 85 1c e6 ff ff 	lea    -0x19e4(%rbp),%rax
   15fef:	48 89 85 38 f8 ff ff 	mov    %rax,-0x7c8(%rbp)
   15ff6:	48 c7 85 40 f8 ff ff 	movq   $0x0,-0x7c0(%rbp)
   15ffd:	00 00 00 00 
   16001:	48 8d 85 1c e6 ff ff 	lea    -0x19e4(%rbp),%rax
   16008:	48 89 85 48 f8 ff ff 	mov    %rax,-0x7b8(%rbp)
   1600f:	48 8d 85 40 ea ff ff 	lea    -0x15c0(%rbp),%rax
   16016:	48 83 c0 08          	add    $0x8,%rax
   1601a:	48 89 85 50 f8 ff ff 	mov    %rax,-0x7b0(%rbp)
   16021:	48 c7 85 58 f8 ff ff 	movq   $0x0,-0x7a8(%rbp)
   16028:	00 00 00 00 
   1602c:	48 8d 85 40 ea ff ff 	lea    -0x15c0(%rbp),%rax
   16033:	48 83 c0 0c          	add    $0xc,%rax
   16037:	48 89 85 60 f8 ff ff 	mov    %rax,-0x7a0(%rbp)
   1603e:	48 8d 85 f4 e5 ff ff 	lea    -0x1a0c(%rbp),%rax
   16045:	48 89 85 68 f8 ff ff 	mov    %rax,-0x798(%rbp)
   1604c:	48 8d 85 40 ea ff ff 	lea    -0x15c0(%rbp),%rax
   16053:	48 83 c0 08          	add    $0x8,%rax
   16057:	48 89 85 70 f8 ff ff 	mov    %rax,-0x790(%rbp)
   1605e:	48 8d 85 fc e5 ff ff 	lea    -0x1a04(%rbp),%rax
   16065:	48 89 85 78 f8 ff ff 	mov    %rax,-0x788(%rbp)
   1606c:	48 c7 85 80 f8 ff ff 	movq   $0x0,-0x780(%rbp)
   16073:	00 00 00 00 
   16077:	48 8d 85 fc e5 ff ff 	lea    -0x1a04(%rbp),%rax
   1607e:	48 89 85 88 f8 ff ff 	mov    %rax,-0x778(%rbp)
   16085:	48 8d 85 40 ea ff ff 	lea    -0x15c0(%rbp),%rax
   1608c:	48 83 c0 08          	add    $0x8,%rax
   16090:	48 89 85 90 f8 ff ff 	mov    %rax,-0x770(%rbp)
   16097:	48 8d 85 f4 e5 ff ff 	lea    -0x1a0c(%rbp),%rax
   1609e:	48 89 85 98 f8 ff ff 	mov    %rax,-0x768(%rbp)
   160a5:	48 8d 85 40 ea ff ff 	lea    -0x15c0(%rbp),%rax
   160ac:	48 83 c0 0c          	add    $0xc,%rax
   160b0:	48 89 85 a0 f8 ff ff 	mov    %rax,-0x760(%rbp)
   160b7:	48 c7 85 a8 f8 ff ff 	movq   $0x0,-0x758(%rbp)
   160be:	00 00 00 00 
   160c2:	48 8d 85 40 ea ff ff 	lea    -0x15c0(%rbp),%rax
   160c9:	48 83 c0 08          	add    $0x8,%rax
   160cd:	48 89 85 b0 f8 ff ff 	mov    %rax,-0x750(%rbp)
   160d4:	48 8d 85 1c e6 ff ff 	lea    -0x19e4(%rbp),%rax
   160db:	48 89 85 b8 f8 ff ff 	mov    %rax,-0x748(%rbp)
   160e2:	48 c7 85 c0 f8 ff ff 	movq   $0x0,-0x740(%rbp)
   160e9:	00 00 00 00 
   160ed:	48 8d 85 1c e6 ff ff 	lea    -0x19e4(%rbp),%rax
   160f4:	48 89 85 c8 f8 ff ff 	mov    %rax,-0x738(%rbp)
   160fb:	48 8d 85 40 ea ff ff 	lea    -0x15c0(%rbp),%rax
   16102:	48 83 c0 08          	add    $0x8,%rax
   16106:	48 89 85 d0 f8 ff ff 	mov    %rax,-0x730(%rbp)
   1610d:	48 c7 85 d8 f8 ff ff 	movq   $0x0,-0x728(%rbp)
   16114:	00 00 00 00 
   16118:	48 8d 85 40 ea ff ff 	lea    -0x15c0(%rbp),%rax
   1611f:	48 83 c0 0c          	add    $0xc,%rax
   16123:	48 89 85 e0 f8 ff ff 	mov    %rax,-0x720(%rbp)
   1612a:	48 8d 85 f4 e5 ff ff 	lea    -0x1a0c(%rbp),%rax
   16131:	48 89 85 e8 f8 ff ff 	mov    %rax,-0x718(%rbp)
   16138:	48 8d 85 40 ea ff ff 	lea    -0x15c0(%rbp),%rax
   1613f:	48 83 c0 08          	add    $0x8,%rax
   16143:	48 89 85 f0 f8 ff ff 	mov    %rax,-0x710(%rbp)
   1614a:	48 8d 85 fc e5 ff ff 	lea    -0x1a04(%rbp),%rax
   16151:	48 89 85 f8 f8 ff ff 	mov    %rax,-0x708(%rbp)
   16158:	48 c7 85 00 f9 ff ff 	movq   $0x0,-0x700(%rbp)
   1615f:	00 00 00 00 
   16163:	48 8d 85 fc e5 ff ff 	lea    -0x1a04(%rbp),%rax
   1616a:	48 89 85 08 f9 ff ff 	mov    %rax,-0x6f8(%rbp)
   16171:	48 8d 85 40 ea ff ff 	lea    -0x15c0(%rbp),%rax
   16178:	48 83 c0 08          	add    $0x8,%rax
   1617c:	48 89 85 10 f9 ff ff 	mov    %rax,-0x6f0(%rbp)
   16183:	48 8d 85 f4 e5 ff ff 	lea    -0x1a0c(%rbp),%rax
   1618a:	48 89 85 18 f9 ff ff 	mov    %rax,-0x6e8(%rbp)
   16191:	48 8d 85 40 ea ff ff 	lea    -0x15c0(%rbp),%rax
   16198:	48 83 c0 0c          	add    $0xc,%rax
   1619c:	48 89 85 20 f9 ff ff 	mov    %rax,-0x6e0(%rbp)
   161a3:	48 c7 85 28 f9 ff ff 	movq   $0x0,-0x6d8(%rbp)
   161aa:	00 00 00 00 
   161ae:	48 8d 85 40 ea ff ff 	lea    -0x15c0(%rbp),%rax
   161b5:	48 83 c0 08          	add    $0x8,%rax
   161b9:	48 89 85 30 f9 ff ff 	mov    %rax,-0x6d0(%rbp)
   161c0:	48 8d 85 1c e6 ff ff 	lea    -0x19e4(%rbp),%rax
   161c7:	48 89 85 38 f9 ff ff 	mov    %rax,-0x6c8(%rbp)
   161ce:	48 c7 85 40 f9 ff ff 	movq   $0x0,-0x6c0(%rbp)
   161d5:	00 00 00 00 
   161d9:	48 8d 85 1c e6 ff ff 	lea    -0x19e4(%rbp),%rax
   161e0:	48 89 85 48 f9 ff ff 	mov    %rax,-0x6b8(%rbp)
   161e7:	48 8d 85 40 ea ff ff 	lea    -0x15c0(%rbp),%rax
   161ee:	48 83 c0 08          	add    $0x8,%rax
   161f2:	48 89 85 50 f9 ff ff 	mov    %rax,-0x6b0(%rbp)
   161f9:	48 c7 85 58 f9 ff ff 	movq   $0x0,-0x6a8(%rbp)
   16200:	00 00 00 00 
   16204:	48 8d 85 40 ea ff ff 	lea    -0x15c0(%rbp),%rax
   1620b:	48 83 c0 0c          	add    $0xc,%rax
   1620f:	48 89 85 60 f9 ff ff 	mov    %rax,-0x6a0(%rbp)
   16216:	48 8d 85 f4 e5 ff ff 	lea    -0x1a0c(%rbp),%rax
   1621d:	48 89 85 68 f9 ff ff 	mov    %rax,-0x698(%rbp)
   16224:	48 8d 85 40 ea ff ff 	lea    -0x15c0(%rbp),%rax
   1622b:	48 83 c0 08          	add    $0x8,%rax
   1622f:	48 89 85 70 f9 ff ff 	mov    %rax,-0x690(%rbp)
   16236:	48 8d 85 fc e5 ff ff 	lea    -0x1a04(%rbp),%rax
   1623d:	48 89 85 78 f9 ff ff 	mov    %rax,-0x688(%rbp)
   16244:	48 c7 85 80 f9 ff ff 	movq   $0x0,-0x680(%rbp)
   1624b:	00 00 00 00 
   1624f:	48 8d 85 fc e5 ff ff 	lea    -0x1a04(%rbp),%rax
   16256:	48 89 85 88 f9 ff ff 	mov    %rax,-0x678(%rbp)
   1625d:	48 8d 85 40 ea ff ff 	lea    -0x15c0(%rbp),%rax
   16264:	48 83 c0 08          	add    $0x8,%rax
   16268:	48 89 85 90 f9 ff ff 	mov    %rax,-0x670(%rbp)
   1626f:	48 8d 85 f4 e5 ff ff 	lea    -0x1a0c(%rbp),%rax
   16276:	48 89 85 98 f9 ff ff 	mov    %rax,-0x668(%rbp)
   1627d:	48 8d 85 40 ea ff ff 	lea    -0x15c0(%rbp),%rax
   16284:	48 83 c0 0c          	add    $0xc,%rax
   16288:	48 89 85 a0 f9 ff ff 	mov    %rax,-0x660(%rbp)
   1628f:	48 c7 85 a8 f9 ff ff 	movq   $0x0,-0x658(%rbp)
   16296:	00 00 00 00 
   1629a:	48 8d 85 40 ea ff ff 	lea    -0x15c0(%rbp),%rax
   162a1:	48 83 c0 08          	add    $0x8,%rax
   162a5:	48 89 85 b0 f9 ff ff 	mov    %rax,-0x650(%rbp)
   162ac:	48 8d 85 1c e6 ff ff 	lea    -0x19e4(%rbp),%rax
   162b3:	48 89 85 b8 f9 ff ff 	mov    %rax,-0x648(%rbp)
   162ba:	48 c7 85 c0 f9 ff ff 	movq   $0x0,-0x640(%rbp)
   162c1:	00 00 00 00 
   162c5:	48 8d 85 1c e6 ff ff 	lea    -0x19e4(%rbp),%rax
   162cc:	48 89 85 c8 f9 ff ff 	mov    %rax,-0x638(%rbp)
   162d3:	48 8d 85 40 ea ff ff 	lea    -0x15c0(%rbp),%rax
   162da:	48 83 c0 08          	add    $0x8,%rax
   162de:	48 89 85 d0 f9 ff ff 	mov    %rax,-0x630(%rbp)
   162e5:	48 c7 85 d8 f9 ff ff 	movq   $0x0,-0x628(%rbp)
   162ec:	00 00 00 00 
   162f0:	48 8d 85 40 ea ff ff 	lea    -0x15c0(%rbp),%rax
   162f7:	48 83 c0 0c          	add    $0xc,%rax
   162fb:	48 89 85 e0 f9 ff ff 	mov    %rax,-0x620(%rbp)
   16302:	48 8d 85 f4 e5 ff ff 	lea    -0x1a0c(%rbp),%rax
   16309:	48 89 85 e8 f9 ff ff 	mov    %rax,-0x618(%rbp)
   16310:	48 8d 85 40 ea ff ff 	lea    -0x15c0(%rbp),%rax
   16317:	48 83 c0 08          	add    $0x8,%rax
   1631b:	48 89 85 f0 f9 ff ff 	mov    %rax,-0x610(%rbp)
   16322:	48 8d 85 fc e5 ff ff 	lea    -0x1a04(%rbp),%rax
   16329:	48 89 85 f8 f9 ff ff 	mov    %rax,-0x608(%rbp)
   16330:	48 c7 85 00 fa ff ff 	movq   $0x0,-0x600(%rbp)
   16337:	00 00 00 00 
   1633b:	48 8d 85 fc e5 ff ff 	lea    -0x1a04(%rbp),%rax
   16342:	48 89 85 08 fa ff ff 	mov    %rax,-0x5f8(%rbp)
   16349:	48 8d 85 40 ea ff ff 	lea    -0x15c0(%rbp),%rax
   16350:	48 83 c0 08          	add    $0x8,%rax
   16354:	48 89 85 10 fa ff ff 	mov    %rax,-0x5f0(%rbp)
   1635b:	48 8d 85 f4 e5 ff ff 	lea    -0x1a0c(%rbp),%rax
   16362:	48 89 85 18 fa ff ff 	mov    %rax,-0x5e8(%rbp)
   16369:	48 8d 85 40 ea ff ff 	lea    -0x15c0(%rbp),%rax
   16370:	48 83 c0 0c          	add    $0xc,%rax
   16374:	48 89 85 20 fa ff ff 	mov    %rax,-0x5e0(%rbp)
   1637b:	48 c7 85 28 fa ff ff 	movq   $0x0,-0x5d8(%rbp)
   16382:	00 00 00 00 
   16386:	48 8d 85 40 ea ff ff 	lea    -0x15c0(%rbp),%rax
   1638d:	48 83 c0 08          	add    $0x8,%rax
   16391:	48 89 85 30 fa ff ff 	mov    %rax,-0x5d0(%rbp)
   16398:	48 8d 85 1c e6 ff ff 	lea    -0x19e4(%rbp),%rax
   1639f:	48 89 85 38 fa ff ff 	mov    %rax,-0x5c8(%rbp)
   163a6:	48 c7 85 40 fa ff ff 	movq   $0x0,-0x5c0(%rbp)
   163ad:	00 00 00 00 
   163b1:	48 8d 85 1c e6 ff ff 	lea    -0x19e4(%rbp),%rax
   163b8:	48 89 85 48 fa ff ff 	mov    %rax,-0x5b8(%rbp)
   163bf:	48 8d 85 40 ea ff ff 	lea    -0x15c0(%rbp),%rax
   163c6:	48 83 c0 08          	add    $0x8,%rax
   163ca:	48 89 85 50 fa ff ff 	mov    %rax,-0x5b0(%rbp)
   163d1:	48 c7 85 58 fa ff ff 	movq   $0x0,-0x5a8(%rbp)
   163d8:	00 00 00 00 
   163dc:	48 8d 85 40 ea ff ff 	lea    -0x15c0(%rbp),%rax
   163e3:	48 83 c0 0c          	add    $0xc,%rax
   163e7:	48 89 85 60 fa ff ff 	mov    %rax,-0x5a0(%rbp)
   163ee:	48 8d 85 f4 e5 ff ff 	lea    -0x1a0c(%rbp),%rax
   163f5:	48 89 85 68 fa ff ff 	mov    %rax,-0x598(%rbp)
   163fc:	48 8d 85 40 ea ff ff 	lea    -0x15c0(%rbp),%rax
   16403:	48 83 c0 08          	add    $0x8,%rax
   16407:	48 89 85 70 fa ff ff 	mov    %rax,-0x590(%rbp)
   1640e:	48 8d 85 fc e5 ff ff 	lea    -0x1a04(%rbp),%rax
   16415:	48 89 85 78 fa ff ff 	mov    %rax,-0x588(%rbp)
   1641c:	48 c7 85 80 fa ff ff 	movq   $0x0,-0x580(%rbp)
   16423:	00 00 00 00 
   16427:	48 8d 85 fc e5 ff ff 	lea    -0x1a04(%rbp),%rax
   1642e:	48 89 85 88 fa ff ff 	mov    %rax,-0x578(%rbp)
   16435:	48 8d 85 40 ea ff ff 	lea    -0x15c0(%rbp),%rax
   1643c:	48 83 c0 08          	add    $0x8,%rax
   16440:	48 89 85 90 fa ff ff 	mov    %rax,-0x570(%rbp)
   16447:	48 8d 85 f4 e5 ff ff 	lea    -0x1a0c(%rbp),%rax
   1644e:	48 89 85 98 fa ff ff 	mov    %rax,-0x568(%rbp)
   16455:	48 8d 85 40 ea ff ff 	lea    -0x15c0(%rbp),%rax
   1645c:	48 83 c0 0c          	add    $0xc,%rax
   16460:	48 89 85 a0 fa ff ff 	mov    %rax,-0x560(%rbp)
   16467:	48 c7 85 a8 fa ff ff 	movq   $0x0,-0x558(%rbp)
   1646e:	00 00 00 00 
   16472:	48 8d 85 40 ea ff ff 	lea    -0x15c0(%rbp),%rax
   16479:	48 83 c0 08          	add    $0x8,%rax
   1647d:	48 89 85 b0 fa ff ff 	mov    %rax,-0x550(%rbp)
   16484:	48 8d 85 1c e6 ff ff 	lea    -0x19e4(%rbp),%rax
   1648b:	48 89 85 b8 fa ff ff 	mov    %rax,-0x548(%rbp)
   16492:	48 c7 85 c0 fa ff ff 	movq   $0x0,-0x540(%rbp)
   16499:	00 00 00 00 
   1649d:	48 8d 85 1c e6 ff ff 	lea    -0x19e4(%rbp),%rax
   164a4:	48 89 85 c8 fa ff ff 	mov    %rax,-0x538(%rbp)
   164ab:	48 8d 85 40 ea ff ff 	lea    -0x15c0(%rbp),%rax
   164b2:	48 83 c0 08          	add    $0x8,%rax
   164b6:	48 89 85 d0 fa ff ff 	mov    %rax,-0x530(%rbp)
   164bd:	48 c7 85 d8 fa ff ff 	movq   $0x0,-0x528(%rbp)
   164c4:	00 00 00 00 
   164c8:	48 8d 85 40 ea ff ff 	lea    -0x15c0(%rbp),%rax
   164cf:	48 83 c0 0c          	add    $0xc,%rax
   164d3:	48 89 85 e0 fa ff ff 	mov    %rax,-0x520(%rbp)
   164da:	48 8d 85 f4 e5 ff ff 	lea    -0x1a0c(%rbp),%rax
   164e1:	48 89 85 e8 fa ff ff 	mov    %rax,-0x518(%rbp)
   164e8:	48 8d 85 40 ea ff ff 	lea    -0x15c0(%rbp),%rax
   164ef:	48 83 c0 08          	add    $0x8,%rax
   164f3:	48 89 85 f0 fa ff ff 	mov    %rax,-0x510(%rbp)
   164fa:	48 8d 85 fc e5 ff ff 	lea    -0x1a04(%rbp),%rax
   16501:	48 89 85 f8 fa ff ff 	mov    %rax,-0x508(%rbp)
   16508:	48 c7 85 00 fb ff ff 	movq   $0x0,-0x500(%rbp)
   1650f:	00 00 00 00 
   16513:	48 8d 85 fc e5 ff ff 	lea    -0x1a04(%rbp),%rax
   1651a:	48 89 85 08 fb ff ff 	mov    %rax,-0x4f8(%rbp)
   16521:	48 8d 85 40 ea ff ff 	lea    -0x15c0(%rbp),%rax
   16528:	48 83 c0 08          	add    $0x8,%rax
   1652c:	48 89 85 10 fb ff ff 	mov    %rax,-0x4f0(%rbp)
   16533:	48 8d 85 f4 e5 ff ff 	lea    -0x1a0c(%rbp),%rax
   1653a:	48 89 85 18 fb ff ff 	mov    %rax,-0x4e8(%rbp)
   16541:	48 8d 85 40 ea ff ff 	lea    -0x15c0(%rbp),%rax
   16548:	48 83 c0 0c          	add    $0xc,%rax
   1654c:	48 89 85 20 fb ff ff 	mov    %rax,-0x4e0(%rbp)
   16553:	48 c7 85 28 fb ff ff 	movq   $0x0,-0x4d8(%rbp)
   1655a:	00 00 00 00 
   1655e:	48 8d 85 40 ea ff ff 	lea    -0x15c0(%rbp),%rax
   16565:	48 83 c0 08          	add    $0x8,%rax
   16569:	48 89 85 30 fb ff ff 	mov    %rax,-0x4d0(%rbp)
   16570:	48 8d 85 1c e6 ff ff 	lea    -0x19e4(%rbp),%rax
   16577:	48 89 85 38 fb ff ff 	mov    %rax,-0x4c8(%rbp)
   1657e:	48 c7 85 40 fb ff ff 	movq   $0x0,-0x4c0(%rbp)
   16585:	00 00 00 00 
   16589:	48 8d 85 1c e6 ff ff 	lea    -0x19e4(%rbp),%rax
   16590:	48 89 85 48 fb ff ff 	mov    %rax,-0x4b8(%rbp)
   16597:	48 8d 85 40 ea ff ff 	lea    -0x15c0(%rbp),%rax
   1659e:	48 83 c0 08          	add    $0x8,%rax
   165a2:	48 89 85 50 fb ff ff 	mov    %rax,-0x4b0(%rbp)
   165a9:	48 c7 85 58 fb ff ff 	movq   $0x0,-0x4a8(%rbp)
   165b0:	00 00 00 00 
   165b4:	48 8d 85 40 ea ff ff 	lea    -0x15c0(%rbp),%rax
   165bb:	48 83 c0 0c          	add    $0xc,%rax
   165bf:	48 89 85 60 fb ff ff 	mov    %rax,-0x4a0(%rbp)
   165c6:	48 8d 85 f4 e5 ff ff 	lea    -0x1a0c(%rbp),%rax
   165cd:	48 89 85 68 fb ff ff 	mov    %rax,-0x498(%rbp)
   165d4:	48 8d 85 40 ea ff ff 	lea    -0x15c0(%rbp),%rax
   165db:	48 83 c0 08          	add    $0x8,%rax
   165df:	48 89 85 70 fb ff ff 	mov    %rax,-0x490(%rbp)
   165e6:	48 8d 85 fc e5 ff ff 	lea    -0x1a04(%rbp),%rax
   165ed:	48 89 85 78 fb ff ff 	mov    %rax,-0x488(%rbp)
   165f4:	48 c7 85 80 fb ff ff 	movq   $0x0,-0x480(%rbp)
   165fb:	00 00 00 00 
   165ff:	48 8d 85 fc e5 ff ff 	lea    -0x1a04(%rbp),%rax
   16606:	48 89 85 88 fb ff ff 	mov    %rax,-0x478(%rbp)
   1660d:	48 8d 85 40 ea ff ff 	lea    -0x15c0(%rbp),%rax
   16614:	48 83 c0 08          	add    $0x8,%rax
   16618:	48 89 85 90 fb ff ff 	mov    %rax,-0x470(%rbp)
   1661f:	48 8d 85 f4 e5 ff ff 	lea    -0x1a0c(%rbp),%rax
   16626:	48 89 85 98 fb ff ff 	mov    %rax,-0x468(%rbp)
   1662d:	48 8d 85 40 ea ff ff 	lea    -0x15c0(%rbp),%rax
   16634:	48 83 c0 0c          	add    $0xc,%rax
   16638:	48 89 85 a0 fb ff ff 	mov    %rax,-0x460(%rbp)
   1663f:	48 c7 85 a8 fb ff ff 	movq   $0x0,-0x458(%rbp)
   16646:	00 00 00 00 
   1664a:	48 8d 85 40 ea ff ff 	lea    -0x15c0(%rbp),%rax
   16651:	48 83 c0 08          	add    $0x8,%rax
   16655:	48 89 85 b0 fb ff ff 	mov    %rax,-0x450(%rbp)
   1665c:	48 8d 85 1c e6 ff ff 	lea    -0x19e4(%rbp),%rax
   16663:	48 89 85 b8 fb ff ff 	mov    %rax,-0x448(%rbp)
   1666a:	48 c7 85 c0 fb ff ff 	movq   $0x0,-0x440(%rbp)
   16671:	00 00 00 00 
   16675:	48 8d 85 1c e6 ff ff 	lea    -0x19e4(%rbp),%rax
   1667c:	48 89 85 c8 fb ff ff 	mov    %rax,-0x438(%rbp)
   16683:	48 8d 85 40 ea ff ff 	lea    -0x15c0(%rbp),%rax
   1668a:	48 83 c0 08          	add    $0x8,%rax
   1668e:	48 89 85 d0 fb ff ff 	mov    %rax,-0x430(%rbp)
   16695:	48 c7 85 d8 fb ff ff 	movq   $0x0,-0x428(%rbp)
   1669c:	00 00 00 00 
   166a0:	48 8d 85 40 ea ff ff 	lea    -0x15c0(%rbp),%rax
   166a7:	48 83 c0 0c          	add    $0xc,%rax
   166ab:	48 89 85 e0 fb ff ff 	mov    %rax,-0x420(%rbp)
   166b2:	48 8d 85 f4 e5 ff ff 	lea    -0x1a0c(%rbp),%rax
   166b9:	48 89 85 e8 fb ff ff 	mov    %rax,-0x418(%rbp)
   166c0:	48 8d 85 40 ea ff ff 	lea    -0x15c0(%rbp),%rax
   166c7:	48 83 c0 08          	add    $0x8,%rax
   166cb:	48 89 85 f0 fb ff ff 	mov    %rax,-0x410(%rbp)
   166d2:	48 8d 85 fc e5 ff ff 	lea    -0x1a04(%rbp),%rax
   166d9:	48 89 85 f8 fb ff ff 	mov    %rax,-0x408(%rbp)
   166e0:	48 c7 85 00 fc ff ff 	movq   $0x0,-0x400(%rbp)
   166e7:	00 00 00 00 
   166eb:	48 8d 85 fc e5 ff ff 	lea    -0x1a04(%rbp),%rax
   166f2:	48 89 85 08 fc ff ff 	mov    %rax,-0x3f8(%rbp)
   166f9:	48 8d 85 40 ea ff ff 	lea    -0x15c0(%rbp),%rax
   16700:	48 83 c0 08          	add    $0x8,%rax
   16704:	48 89 85 10 fc ff ff 	mov    %rax,-0x3f0(%rbp)
   1670b:	48 8d 85 f4 e5 ff ff 	lea    -0x1a0c(%rbp),%rax
   16712:	48 89 85 18 fc ff ff 	mov    %rax,-0x3e8(%rbp)
   16719:	48 8d 85 40 ea ff ff 	lea    -0x15c0(%rbp),%rax
   16720:	48 83 c0 0c          	add    $0xc,%rax
   16724:	48 89 85 20 fc ff ff 	mov    %rax,-0x3e0(%rbp)
   1672b:	48 c7 85 28 fc ff ff 	movq   $0x0,-0x3d8(%rbp)
   16732:	00 00 00 00 
   16736:	48 8d 85 40 ea ff ff 	lea    -0x15c0(%rbp),%rax
   1673d:	48 83 c0 08          	add    $0x8,%rax
   16741:	48 89 85 30 fc ff ff 	mov    %rax,-0x3d0(%rbp)
   16748:	48 8d 85 1c e6 ff ff 	lea    -0x19e4(%rbp),%rax
   1674f:	48 89 85 38 fc ff ff 	mov    %rax,-0x3c8(%rbp)
   16756:	48 c7 85 40 fc ff ff 	movq   $0x0,-0x3c0(%rbp)
   1675d:	00 00 00 00 
   16761:	48 8d 85 1c e6 ff ff 	lea    -0x19e4(%rbp),%rax
   16768:	48 89 85 48 fc ff ff 	mov    %rax,-0x3b8(%rbp)
   1676f:	48 8d 85 40 ea ff ff 	lea    -0x15c0(%rbp),%rax
   16776:	48 83 c0 08          	add    $0x8,%rax
   1677a:	48 89 85 50 fc ff ff 	mov    %rax,-0x3b0(%rbp)
   16781:	48 c7 85 58 fc ff ff 	movq   $0x0,-0x3a8(%rbp)
   16788:	00 00 00 00 
   1678c:	48 8d 85 40 ea ff ff 	lea    -0x15c0(%rbp),%rax
   16793:	48 83 c0 0c          	add    $0xc,%rax
   16797:	48 89 85 60 fc ff ff 	mov    %rax,-0x3a0(%rbp)
   1679e:	48 8d 85 f4 e5 ff ff 	lea    -0x1a0c(%rbp),%rax
   167a5:	48 89 85 68 fc ff ff 	mov    %rax,-0x398(%rbp)
   167ac:	48 8d 85 40 ea ff ff 	lea    -0x15c0(%rbp),%rax
   167b3:	48 83 c0 08          	add    $0x8,%rax
   167b7:	48 89 85 70 fc ff ff 	mov    %rax,-0x390(%rbp)
   167be:	48 8d 85 fc e5 ff ff 	lea    -0x1a04(%rbp),%rax
   167c5:	48 89 85 78 fc ff ff 	mov    %rax,-0x388(%rbp)
   167cc:	48 c7 85 80 fc ff ff 	movq   $0x0,-0x380(%rbp)
   167d3:	00 00 00 00 
   167d7:	48 8d 85 fc e5 ff ff 	lea    -0x1a04(%rbp),%rax
   167de:	48 89 85 88 fc ff ff 	mov    %rax,-0x378(%rbp)
   167e5:	48 8d 85 40 ea ff ff 	lea    -0x15c0(%rbp),%rax
   167ec:	48 83 c0 08          	add    $0x8,%rax
   167f0:	48 89 85 90 fc ff ff 	mov    %rax,-0x370(%rbp)
   167f7:	48 8d 85 f4 e5 ff ff 	lea    -0x1a0c(%rbp),%rax
   167fe:	48 89 85 98 fc ff ff 	mov    %rax,-0x368(%rbp)
   16805:	48 8d 85 40 ea ff ff 	lea    -0x15c0(%rbp),%rax
   1680c:	48 83 c0 0c          	add    $0xc,%rax
   16810:	48 89 85 a0 fc ff ff 	mov    %rax,-0x360(%rbp)
   16817:	48 c7 85 a8 fc ff ff 	movq   $0x0,-0x358(%rbp)
   1681e:	00 00 00 00 
   16822:	48 8d 85 40 ea ff ff 	lea    -0x15c0(%rbp),%rax
   16829:	48 83 c0 08          	add    $0x8,%rax
   1682d:	48 89 85 b0 fc ff ff 	mov    %rax,-0x350(%rbp)
   16834:	48 8d 85 1c e6 ff ff 	lea    -0x19e4(%rbp),%rax
   1683b:	48 89 85 b8 fc ff ff 	mov    %rax,-0x348(%rbp)
   16842:	48 c7 85 c0 fc ff ff 	movq   $0x0,-0x340(%rbp)
   16849:	00 00 00 00 
   1684d:	48 8d 85 1c e6 ff ff 	lea    -0x19e4(%rbp),%rax
   16854:	48 89 85 c8 fc ff ff 	mov    %rax,-0x338(%rbp)
   1685b:	48 8d 85 40 ea ff ff 	lea    -0x15c0(%rbp),%rax
   16862:	48 83 c0 08          	add    $0x8,%rax
   16866:	48 89 85 d0 fc ff ff 	mov    %rax,-0x330(%rbp)
   1686d:	48 c7 85 d8 fc ff ff 	movq   $0x0,-0x328(%rbp)
   16874:	00 00 00 00 
   16878:	48 8d 85 40 ea ff ff 	lea    -0x15c0(%rbp),%rax
   1687f:	48 83 c0 0c          	add    $0xc,%rax
   16883:	48 89 85 e0 fc ff ff 	mov    %rax,-0x320(%rbp)
   1688a:	48 8d 85 f4 e5 ff ff 	lea    -0x1a0c(%rbp),%rax
   16891:	48 89 85 e8 fc ff ff 	mov    %rax,-0x318(%rbp)
   16898:	48 8d 85 40 ea ff ff 	lea    -0x15c0(%rbp),%rax
   1689f:	48 83 c0 08          	add    $0x8,%rax
   168a3:	48 89 85 f0 fc ff ff 	mov    %rax,-0x310(%rbp)
   168aa:	48 8d 85 fc e5 ff ff 	lea    -0x1a04(%rbp),%rax
   168b1:	48 89 85 f8 fc ff ff 	mov    %rax,-0x308(%rbp)
   168b8:	48 c7 85 00 fd ff ff 	movq   $0x0,-0x300(%rbp)
   168bf:	00 00 00 00 
   168c3:	48 8d 85 fc e5 ff ff 	lea    -0x1a04(%rbp),%rax
   168ca:	48 89 85 08 fd ff ff 	mov    %rax,-0x2f8(%rbp)
   168d1:	48 8d 85 40 ea ff ff 	lea    -0x15c0(%rbp),%rax
   168d8:	48 83 c0 08          	add    $0x8,%rax
   168dc:	48 89 85 10 fd ff ff 	mov    %rax,-0x2f0(%rbp)
   168e3:	48 8d 85 f4 e5 ff ff 	lea    -0x1a0c(%rbp),%rax
   168ea:	48 89 85 18 fd ff ff 	mov    %rax,-0x2e8(%rbp)
   168f1:	48 8d 85 40 ea ff ff 	lea    -0x15c0(%rbp),%rax
   168f8:	48 83 c0 0c          	add    $0xc,%rax
   168fc:	48 89 85 20 fd ff ff 	mov    %rax,-0x2e0(%rbp)
   16903:	48 c7 85 28 fd ff ff 	movq   $0x0,-0x2d8(%rbp)
   1690a:	00 00 00 00 
   1690e:	48 8d 85 40 ea ff ff 	lea    -0x15c0(%rbp),%rax
   16915:	48 83 c0 08          	add    $0x8,%rax
   16919:	48 89 85 30 fd ff ff 	mov    %rax,-0x2d0(%rbp)
   16920:	48 8d 85 1c e6 ff ff 	lea    -0x19e4(%rbp),%rax
   16927:	48 89 85 38 fd ff ff 	mov    %rax,-0x2c8(%rbp)
   1692e:	48 c7 85 40 fd ff ff 	movq   $0x0,-0x2c0(%rbp)
   16935:	00 00 00 00 
   16939:	48 8d 85 1c e6 ff ff 	lea    -0x19e4(%rbp),%rax
   16940:	48 89 85 48 fd ff ff 	mov    %rax,-0x2b8(%rbp)
   16947:	48 8d 85 40 ea ff ff 	lea    -0x15c0(%rbp),%rax
   1694e:	48 83 c0 08          	add    $0x8,%rax
   16952:	48 89 85 50 fd ff ff 	mov    %rax,-0x2b0(%rbp)
   16959:	48 c7 85 58 fd ff ff 	movq   $0x0,-0x2a8(%rbp)
   16960:	00 00 00 00 
   16964:	48 8d 85 40 ea ff ff 	lea    -0x15c0(%rbp),%rax
   1696b:	48 83 c0 0c          	add    $0xc,%rax
   1696f:	48 89 85 60 fd ff ff 	mov    %rax,-0x2a0(%rbp)
   16976:	48 8d 85 f4 e5 ff ff 	lea    -0x1a0c(%rbp),%rax
   1697d:	48 89 85 68 fd ff ff 	mov    %rax,-0x298(%rbp)
   16984:	48 8d 05 50 c7 00 00 	lea    0xc750(%rip),%rax        # 230db <g_254+0xb>
   1698b:	48 89 85 b0 e9 ff ff 	mov    %rax,-0x1650(%rbp)
   16992:	0f b7 85 dc e5 ff ff 	movzwl -0x1a24(%rbp),%eax
   16999:	83 e8 01             	sub    $0x1,%eax
   1699c:	66 89 85 dc e5 ff ff 	mov    %ax,-0x1a24(%rbp)
   169a3:	0f b7 05 16 ca 00 00 	movzwl 0xca16(%rip),%eax        # 233c0 <g_1011>
   169aa:	83 c0 01             	add    $0x1,%eax
   169ad:	66 89 05 0c ca 00 00 	mov    %ax,0xca0c(%rip)        # 233c0 <g_1011>
   169b4:	c7 85 fc e5 ff ff 00 	movl   $0x0,-0x1a04(%rbp)
   169bb:	00 00 00 
   169be:	e9 29 01 00 00       	jmpq   16aec <func_32+0x28b3>
   169c3:	48 8d 05 3e d9 00 00 	lea    0xd93e(%rip),%rax        # 24308 <g_87>
   169ca:	48 89 85 b8 e9 ff ff 	mov    %rax,-0x1648(%rbp)
   169d1:	8b 85 14 e6 ff ff    	mov    -0x19ec(%rbp),%eax
   169d7:	83 c0 01             	add    $0x1,%eax
   169da:	48 98                	cltq   
   169dc:	48 8d 14 85 00 00 00 	lea    0x0(,%rax,4),%rdx
   169e3:	00 
   169e4:	48 8d 05 b5 c6 00 00 	lea    0xc6b5(%rip),%rax        # 230a0 <g_194>
   169eb:	8b 04 02             	mov    (%rdx,%rax,1),%eax
   169ee:	85 c0                	test   %eax,%eax
   169f0:	0f 85 07 01 00 00    	jne    16afd <func_32+0x28c4>
   169f6:	0f b7 05 7f c6 00 00 	movzwl 0xc67f(%rip),%eax        # 2307c <g_158+0x1c>
   169fd:	0f bf d0             	movswl %ax,%edx
   16a00:	48 8b 85 38 e8 ff ff 	mov    -0x17c8(%rbp),%rax
   16a07:	8b 00                	mov    (%rax),%eax
   16a09:	39 c2                	cmp    %eax,%edx
   16a0b:	0f 9e c0             	setle  %al
   16a0e:	0f b6 d0             	movzbl %al,%edx
   16a11:	48 8b 05 e0 f0 00 00 	mov    0xf0e0(%rip),%rax        # 25af8 <g_764>
   16a18:	8b 00                	mov    (%rax),%eax
   16a1a:	39 c2                	cmp    %eax,%edx
   16a1c:	0f 9e c0             	setle  %al
   16a1f:	0f b6 d8             	movzbl %al,%ebx
   16a22:	48 8b 05 8f e8 00 00 	mov    0xe88f(%rip),%rax        # 252b8 <g_443>
   16a29:	0f b7 00             	movzwl (%rax),%eax
   16a2c:	44 0f b7 e0          	movzwl %ax,%r12d
   16a30:	8b 05 0a c6 00 00    	mov    0xc60a(%rip),%eax        # 23040 <g_85>
   16a36:	0f be c0             	movsbl %al,%eax
   16a39:	89 c6                	mov    %eax,%esi
   16a3b:	bf 12 00 00 00       	mov    $0x12,%edi
   16a40:	e8 25 18 ff ff       	callq  826a <safe_div_func_int8_t_s_s>
   16a45:	0f be d0             	movsbl %al,%edx
   16a48:	48 8b 05 c1 d8 00 00 	mov    0xd8c1(%rip),%rax        # 24310 <g_91>
   16a4f:	8b 00                	mov    (%rax),%eax
   16a51:	f7 d0                	not    %eax
   16a53:	09 d0                	or     %edx,%eax
   16a55:	85 c0                	test   %eax,%eax
   16a57:	74 28                	je     16a81 <func_32+0x2848>
   16a59:	48 8b 85 c0 e5 ff ff 	mov    -0x1a40(%rbp),%rax
   16a60:	0f b6 00             	movzbl (%rax),%eax
   16a63:	0f be d0             	movsbl %al,%edx
   16a66:	48 8b 85 80 f5 ff ff 	mov    -0xa80(%rbp),%rax
   16a6d:	48 85 c0             	test   %rax,%rax
   16a70:	0f 94 c0             	sete   %al
   16a73:	0f b6 c0             	movzbl %al,%eax
   16a76:	39 c2                	cmp    %eax,%edx
   16a78:	75 07                	jne    16a81 <func_32+0x2848>
   16a7a:	b8 01 00 00 00       	mov    $0x1,%eax
   16a7f:	eb 05                	jmp    16a86 <func_32+0x284d>
   16a81:	b8 00 00 00 00       	mov    $0x0,%eax
   16a86:	98                   	cwtl   
   16a87:	44 89 e6             	mov    %r12d,%esi
   16a8a:	89 c7                	mov    %eax,%edi
   16a8c:	e8 50 1a ff ff       	callq  84e1 <safe_lshift_func_int16_t_s_u>
   16a91:	48 0f bf c0          	movswq %ax,%rax
   16a95:	48 89 de             	mov    %rbx,%rsi
   16a98:	48 89 c7             	mov    %rax,%rdi
   16a9b:	e8 ab 25 ff ff       	callq  904b <safe_sub_func_uint64_t_u_u>
   16aa0:	8b 85 14 e6 ff ff    	mov    -0x19ec(%rbp),%eax
   16aa6:	0f b7 c0             	movzwl %ax,%eax
   16aa9:	be 01 00 00 00       	mov    $0x1,%esi
   16aae:	89 c7                	mov    %eax,%edi
   16ab0:	e8 51 23 ff ff       	callq  8e06 <safe_lshift_func_uint16_t_u_u>
   16ab5:	48 8b 95 a0 e9 ff ff 	mov    -0x1660(%rbp),%rdx
   16abc:	8b 12                	mov    (%rdx),%edx
   16abe:	0f b7 c0             	movzwl %ax,%eax
   16ac1:	21 c2                	and    %eax,%edx
   16ac3:	48 8b 85 a0 e9 ff ff 	mov    -0x1660(%rbp),%rax
   16aca:	89 10                	mov    %edx,(%rax)
   16acc:	48 8b 95 00 e7 ff ff 	mov    -0x1900(%rbp),%rdx
   16ad3:	48 8b 85 b8 e9 ff ff 	mov    -0x1648(%rbp),%rax
   16ada:	48 89 10             	mov    %rdx,(%rax)
   16add:	8b 85 fc e5 ff ff    	mov    -0x1a04(%rbp),%eax
   16ae3:	83 c0 01             	add    $0x1,%eax
   16ae6:	89 85 fc e5 ff ff    	mov    %eax,-0x1a04(%rbp)
   16aec:	8b 85 fc e5 ff ff    	mov    -0x1a04(%rbp),%eax
   16af2:	83 f8 04             	cmp    $0x4,%eax
   16af5:	0f 8e c8 fe ff ff    	jle    169c3 <func_32+0x278a>
   16afb:	eb 01                	jmp    16afe <func_32+0x28c5>
   16afd:	90                   	nop
   16afe:	8b 85 14 e6 ff ff    	mov    -0x19ec(%rbp),%eax
   16b04:	83 e8 01             	sub    $0x1,%eax
   16b07:	89 85 14 e6 ff ff    	mov    %eax,-0x19ec(%rbp)
   16b0d:	8b 85 14 e6 ff ff    	mov    -0x19ec(%rbp),%eax
   16b13:	85 c0                	test   %eax,%eax
   16b15:	0f 89 d0 f3 ff ff    	jns    15eeb <func_32+0x1cb2>
   16b1b:	48 8b 05 26 c5 00 00 	mov    0xc526(%rip),%rax        # 23048 <g_88>
   16b22:	48 83 c0 01          	add    $0x1,%rax
   16b26:	48 89 05 1b c5 00 00 	mov    %rax,0xc51b(%rip)        # 23048 <g_88>
   16b2d:	48 8b 05 14 c5 00 00 	mov    0xc514(%rip),%rax        # 23048 <g_88>
   16b34:	48 83 f8 01          	cmp    $0x1,%rax
   16b38:	0f 86 3d e7 ff ff    	jbe    1527b <func_32+0x1042>
   16b3e:	e9 b2 02 00 00       	jmpq   16df5 <func_32+0x2bbc>
   16b43:	48 8d 45 bf          	lea    -0x41(%rbp),%rax
   16b47:	48 83 c0 05          	add    $0x5,%rax
   16b4b:	48 89 85 18 e8 ff ff 	mov    %rax,-0x17e8(%rbp)
   16b52:	c7 85 78 e6 ff ff 00 	movl   $0x0,-0x1988(%rbp)
   16b59:	00 00 00 
   16b5c:	48 b8 c9 7f 93 79 c0 	movabs $0x53f8cfc079937fc9,%rax
   16b63:	cf f8 53 
   16b66:	48 89 85 d0 f7 ff ff 	mov    %rax,-0x830(%rbp)
   16b6d:	48 89 85 d8 f7 ff ff 	mov    %rax,-0x828(%rbp)
   16b74:	48 89 85 e0 f7 ff ff 	mov    %rax,-0x820(%rbp)
   16b7b:	48 89 85 e8 f7 ff ff 	mov    %rax,-0x818(%rbp)
   16b82:	48 8d 05 a7 c4 00 00 	lea    0xc4a7(%rip),%rax        # 23030 <g_46>
   16b89:	48 89 85 20 e8 ff ff 	mov    %rax,-0x17e0(%rbp)
   16b90:	48 c7 85 28 e8 ff ff 	movq   $0x0,-0x17d8(%rbp)
   16b97:	00 00 00 00 
   16b9b:	c7 85 7c e6 ff ff c9 	movl   $0x34c9a3c9,-0x1984(%rbp)
   16ba2:	a3 c9 34 
   16ba5:	48 8d 85 f0 e5 ff ff 	lea    -0x1a10(%rbp),%rax
   16bac:	48 89 85 30 e8 ff ff 	mov    %rax,-0x17d0(%rbp)
   16bb3:	48 8b 05 7e c4 00 00 	mov    0xc47e(%rip),%rax        # 23038 <g_84>
   16bba:	0f b7 d8             	movzwl %ax,%ebx
   16bbd:	48 8b 85 d8 f7 ff ff 	mov    -0x828(%rbp),%rax
   16bc4:	48 89 85 b8 e5 ff ff 	mov    %rax,-0x1a48(%rbp)
   16bcb:	48 8b 85 c0 e5 ff ff 	mov    -0x1a40(%rbp),%rax
   16bd2:	0f b6 00             	movzbl (%rax),%eax
   16bd5:	44 0f b6 e0          	movzbl %al,%r12d
   16bd9:	4c 0f be ad d5 e5 ff 	movsbq -0x1a2b(%rbp),%r13
   16be0:	ff 
   16be1:	0f b6 05 f3 c4 00 00 	movzbl 0xc4f3(%rip),%eax        # 230db <g_254+0xb>
   16be8:	44 0f b6 f0          	movzbl %al,%r14d
   16bec:	83 bd 78 e6 ff ff 00 	cmpl   $0x0,-0x1988(%rbp)
   16bf3:	74 64                	je     16c59 <func_32+0x2a20>
   16bf5:	48 8b 85 d8 f7 ff ff 	mov    -0x828(%rbp),%rax
   16bfc:	89 85 b4 e5 ff ff    	mov    %eax,-0x1a4c(%rbp)
   16c02:	44 8b bd 78 e6 ff ff 	mov    -0x1988(%rbp),%r15d
   16c09:	48 8b 05 a0 e6 00 00 	mov    0xe6a0(%rip),%rax        # 252b0 <g_432>
   16c10:	0f b6 00             	movzbl (%rax),%eax
   16c13:	0f be c0             	movsbl %al,%eax
   16c16:	89 c6                	mov    %eax,%esi
   16c18:	bf 59 00 00 00       	mov    $0x59,%edi
   16c1d:	e8 f0 15 ff ff       	callq  8212 <safe_mul_func_int8_t_s_s>
   16c22:	0f be c0             	movsbl %al,%eax
   16c25:	44 89 fe             	mov    %r15d,%esi
   16c28:	89 c7                	mov    %eax,%edi
   16c2a:	e8 ce 22 ff ff       	callq  8efd <safe_mod_func_uint32_t_u_u>
   16c2f:	0f b7 c0             	movzwl %ax,%eax
   16c32:	be 05 00 00 00       	mov    $0x5,%esi
   16c37:	89 c7                	mov    %eax,%edi
   16c39:	e8 c8 21 ff ff       	callq  8e06 <safe_lshift_func_uint16_t_u_u>
   16c3e:	0f b7 c0             	movzwl %ax,%eax
   16c41:	8b b5 b4 e5 ff ff    	mov    -0x1a4c(%rbp),%esi
   16c47:	89 c7                	mov    %eax,%edi
   16c49:	e8 82 22 ff ff       	callq  8ed0 <safe_sub_func_uint32_t_u_u>
   16c4e:	85 c0                	test   %eax,%eax
   16c50:	74 07                	je     16c59 <func_32+0x2a20>
   16c52:	ba 01 00 00 00       	mov    $0x1,%edx
   16c57:	eb 05                	jmp    16c5e <func_32+0x2a25>
   16c59:	ba 00 00 00 00       	mov    $0x0,%edx
   16c5e:	8b 85 78 e6 ff ff    	mov    -0x1988(%rbp),%eax
   16c64:	89 c6                	mov    %eax,%esi
   16c66:	89 d7                	mov    %edx,%edi
   16c68:	e8 98 19 ff ff       	callq  8605 <safe_sub_func_int32_t_s_s>
   16c6d:	0f b6 c0             	movzbl %al,%eax
   16c70:	be f8 00 00 00       	mov    $0xf8,%esi
   16c75:	89 c7                	mov    %eax,%edi
   16c77:	e8 fc 1e ff ff       	callq  8b78 <safe_sub_func_uint8_t_u_u>
   16c7c:	0f b6 c0             	movzbl %al,%eax
   16c7f:	23 85 78 e6 ff ff    	and    -0x1988(%rbp),%eax
   16c85:	85 c0                	test   %eax,%eax
   16c87:	75 0a                	jne    16c93 <func_32+0x2a5a>
   16c89:	8b 85 14 e6 ff ff    	mov    -0x19ec(%rbp),%eax
   16c8f:	85 c0                	test   %eax,%eax
   16c91:	74 07                	je     16c9a <func_32+0x2a61>
   16c93:	b8 01 00 00 00       	mov    $0x1,%eax
   16c98:	eb 05                	jmp    16c9f <func_32+0x2a66>
   16c9a:	b8 00 00 00 00       	mov    $0x0,%eax
   16c9f:	0f b7 c0             	movzwl %ax,%eax
   16ca2:	44 89 f6             	mov    %r14d,%esi
   16ca5:	89 c7                	mov    %eax,%edi
   16ca7:	e8 73 20 ff ff       	callq  8d1f <safe_sub_func_uint16_t_u_u>
   16cac:	66 83 f8 07          	cmp    $0x7,%ax
   16cb0:	0f 94 c0             	sete   %al
   16cb3:	0f b6 d0             	movzbl %al,%edx
   16cb6:	8b 85 00 e6 ff ff    	mov    -0x1a00(%rbp),%eax
   16cbc:	0f be c0             	movsbl %al,%eax
   16cbf:	89 d6                	mov    %edx,%esi
   16cc1:	89 c7                	mov    %eax,%edi
   16cc3:	e8 a4 16 ff ff       	callq  836c <safe_rshift_func_int8_t_s_u>
   16cc8:	0f be d0             	movsbl %al,%edx
   16ccb:	8b 85 50 ea ff ff    	mov    -0x15b0(%rbp),%eax
   16cd1:	39 85 78 e6 ff ff    	cmp    %eax,-0x1988(%rbp)
   16cd7:	0f 9c c0             	setl   %al
   16cda:	0f b6 c0             	movzbl %al,%eax
   16cdd:	89 d6                	mov    %edx,%esi
   16cdf:	89 c7                	mov    %eax,%edi
   16ce1:	e8 0f 17 ff ff       	callq  83f5 <safe_mul_func_int16_t_s_s>
   16ce6:	48 0f bf c0          	movswq %ax,%rax
   16cea:	4c 89 ee             	mov    %r13,%rsi
   16ced:	48 89 c7             	mov    %rax,%rdi
   16cf0:	e8 8b 23 ff ff       	callq  9080 <safe_mod_func_uint64_t_u_u>
   16cf5:	be 01 00 00 00       	mov    $0x1,%esi
   16cfa:	bf 00 00 00 00       	mov    $0x0,%edi
   16cff:	e8 26 18 ff ff       	callq  852a <safe_rshift_func_int16_t_s_s>
   16d04:	0f b6 c0             	movzbl %al,%eax
   16d07:	44 89 e6             	mov    %r12d,%esi
   16d0a:	89 c7                	mov    %eax,%edi
   16d0c:	e8 67 1e ff ff       	callq  8b78 <safe_sub_func_uint8_t_u_u>
   16d11:	0f b6 d0             	movzbl %al,%edx
   16d14:	48 8b 85 98 e7 ff ff 	mov    -0x1868(%rbp),%rax
   16d1b:	66 89 10             	mov    %dx,(%rax)
   16d1e:	48 8b 85 e0 f7 ff ff 	mov    -0x820(%rbp),%rax
   16d25:	89 85 78 e6 ff ff    	mov    %eax,-0x1988(%rbp)
   16d2b:	48 8b 05 7e e5 00 00 	mov    0xe57e(%rip),%rax        # 252b0 <g_432>
   16d32:	0f b6 00             	movzbl (%rax),%eax
   16d35:	0f be c0             	movsbl %al,%eax
   16d38:	39 85 78 e6 ff ff    	cmp    %eax,-0x1988(%rbp)
   16d3e:	0f 9f c0             	setg   %al
   16d41:	0f b6 d0             	movzbl %al,%edx
   16d44:	48 8b 85 c0 e5 ff ff 	mov    -0x1a40(%rbp),%rax
   16d4b:	0f b6 08             	movzbl (%rax),%ecx
   16d4e:	48 8b 85 18 e8 ff ff 	mov    -0x17e8(%rbp),%rax
   16d55:	88 08                	mov    %cl,(%rax)
   16d57:	48 8b 85 18 e8 ff ff 	mov    -0x17e8(%rbp),%rax
   16d5e:	0f b6 00             	movzbl (%rax),%eax
   16d61:	0f be c0             	movsbl %al,%eax
   16d64:	89 d6                	mov    %edx,%esi
   16d66:	89 c7                	mov    %eax,%edi
   16d68:	e8 a5 14 ff ff       	callq  8212 <safe_mul_func_int8_t_s_s>
   16d6d:	0f be d0             	movsbl %al,%edx
   16d70:	0f b7 05 11 c3 00 00 	movzwl 0xc311(%rip),%eax        # 23088 <g_162>
   16d77:	0f b7 c0             	movzwl %ax,%eax
   16d7a:	09 d0                	or     %edx,%eax
   16d7c:	3d 13 a0 00 00       	cmp    $0xa013,%eax
   16d81:	0f 95 c0             	setne  %al
   16d84:	0f b6 c0             	movzbl %al,%eax
   16d87:	48 8b b5 b8 e5 ff ff 	mov    -0x1a48(%rbp),%rsi
   16d8e:	48 89 c7             	mov    %rax,%rdi
   16d91:	e8 98 22 ff ff       	callq  902e <safe_add_func_uint64_t_u_u>
   16d96:	be 2a bd d0 53       	mov    $0x53d0bd2a,%esi
   16d9b:	89 c7                	mov    %eax,%edi
   16d9d:	e8 83 21 ff ff       	callq  8f25 <safe_div_func_uint32_t_u_u>
   16da2:	0f b7 c0             	movzwl %ax,%eax
   16da5:	89 de                	mov    %ebx,%esi
   16da7:	89 c7                	mov    %eax,%edi
   16da9:	e8 e0 1f ff ff       	callq  8d8e <safe_div_func_uint16_t_u_u>
   16dae:	66 85 c0             	test   %ax,%ax
   16db1:	0f 95 c0             	setne  %al
   16db4:	0f b6 c0             	movzbl %al,%eax
   16db7:	89 c6                	mov    %eax,%esi
   16db9:	bf 38 f6 00 00       	mov    $0xf638,%edi
   16dbe:	e8 7a 1f ff ff       	callq  8d3d <safe_mul_func_uint16_t_u_u>
   16dc3:	48 8b 95 20 e8 ff ff 	mov    -0x17e0(%rbp),%rdx
   16dca:	8b 12                	mov    (%rdx),%edx
   16dcc:	0f b7 c0             	movzwl %ax,%eax
   16dcf:	09 c2                	or     %eax,%edx
   16dd1:	48 8b 85 20 e8 ff ff 	mov    -0x17e0(%rbp),%rax
   16dd8:	89 10                	mov    %edx,(%rax)
   16dda:	48 8b 85 20 e8 ff ff 	mov    -0x17e0(%rbp),%rax
   16de1:	8b 00                	mov    (%rax),%eax
   16de3:	21 85 7c e6 ff ff    	and    %eax,-0x1984(%rbp)
   16de9:	48 8b 85 30 e7 ff ff 	mov    -0x18d0(%rbp),%rax
   16df0:	e9 56 32 00 00       	jmpq   1a04b <func_32+0x5e12>
   16df5:	48 8b 85 c8 e7 ff ff 	mov    -0x1838(%rbp),%rax
   16dfc:	48 8d 95 20 e7 ff ff 	lea    -0x18e0(%rbp),%rdx
   16e03:	48 89 10             	mov    %rdx,(%rax)
   16e06:	48 8b 85 c8 e7 ff ff 	mov    -0x1838(%rbp),%rax
   16e0d:	48 8b 10             	mov    (%rax),%rdx
   16e10:	48 8d 85 00 e7 ff ff 	lea    -0x1900(%rbp),%rax
   16e17:	48 39 c2             	cmp    %rax,%rdx
   16e1a:	0f 94 c0             	sete   %al
   16e1d:	0f b6 d8             	movzbl %al,%ebx
   16e20:	48 8b 85 28 e7 ff ff 	mov    -0x18d8(%rbp),%rax
   16e27:	0f b7 10             	movzwl (%rax),%edx
   16e2a:	48 8b 85 28 e7 ff ff 	mov    -0x18d8(%rbp),%rax
   16e31:	83 e2 f7             	and    $0xfffffff7,%edx
   16e34:	66 89 10             	mov    %dx,(%rax)
   16e37:	0f b7 00             	movzwl (%rax),%eax
   16e3a:	44 0f b7 e0          	movzwl %ax,%r12d
   16e3e:	48 8b 05 73 e4 00 00 	mov    0xe473(%rip),%rax        # 252b8 <g_443>
   16e45:	0f b7 00             	movzwl (%rax),%eax
   16e48:	0f bf d0             	movswl %ax,%edx
   16e4b:	8b 85 fc e5 ff ff    	mov    -0x1a04(%rbp),%eax
   16e51:	66 89 05 24 c2 00 00 	mov    %ax,0xc224(%rip)        # 2307c <g_158+0x1c>
   16e58:	0f b7 0d 1d c2 00 00 	movzwl 0xc21d(%rip),%ecx        # 2307c <g_158+0x1c>
   16e5f:	48 8b 85 b0 e7 ff ff 	mov    -0x1850(%rbp),%rax
   16e66:	66 89 08             	mov    %cx,(%rax)
   16e69:	48 8b 85 b0 e7 ff ff 	mov    -0x1850(%rbp),%rax
   16e70:	0f b7 00             	movzwl (%rax),%eax
   16e73:	98                   	cwtl   
   16e74:	89 d6                	mov    %edx,%esi
   16e76:	89 c7                	mov    %eax,%edi
   16e78:	e8 d8 15 ff ff       	callq  8455 <safe_div_func_int16_t_s_s>
   16e7d:	98                   	cwtl   
   16e7e:	44 21 e0             	and    %r12d,%eax
   16e81:	89 85 14 e6 ff ff    	mov    %eax,-0x19ec(%rbp)
   16e87:	8b 8d 14 e6 ff ff    	mov    -0x19ec(%rbp),%ecx
   16e8d:	48 8b 95 20 e7 ff ff 	mov    -0x18e0(%rbp),%rdx
   16e94:	48 8b 85 b8 e7 ff ff 	mov    -0x1848(%rbp),%rax
   16e9b:	48 89 10             	mov    %rdx,(%rax)
   16e9e:	48 8b 85 b8 e7 ff ff 	mov    -0x1848(%rbp),%rax
   16ea5:	48 8b 30             	mov    (%rax),%rsi
   16ea8:	48 8b 95 08 e7 ff ff 	mov    -0x18f8(%rbp),%rdx
   16eaf:	48 8b 85 c0 e7 ff ff 	mov    -0x1840(%rbp),%rax
   16eb6:	48 89 10             	mov    %rdx,(%rax)
   16eb9:	48 8b 85 c0 e7 ff ff 	mov    -0x1840(%rbp),%rax
   16ec0:	48 8b 00             	mov    (%rax),%rax
   16ec3:	48 39 c6             	cmp    %rax,%rsi
   16ec6:	0f 94 c0             	sete   %al
   16ec9:	0f b6 c0             	movzbl %al,%eax
   16ecc:	39 c1                	cmp    %eax,%ecx
   16ece:	0f 9e c0             	setle  %al
   16ed1:	0f b6 c0             	movzbl %al,%eax
   16ed4:	48 89 de             	mov    %rbx,%rsi
   16ed7:	48 89 c7             	mov    %rax,%rdi
   16eda:	e8 4f 21 ff ff       	callq  902e <safe_add_func_uint64_t_u_u>
   16edf:	48 8b 05 ca e3 00 00 	mov    0xe3ca(%rip),%rax        # 252b0 <g_432>
   16ee6:	0f b6 10             	movzbl (%rax),%edx
   16ee9:	0f b6 05 70 c2 00 00 	movzbl 0xc270(%rip),%eax        # 23160 <g_556>
   16ef0:	21 d0                	and    %edx,%eax
   16ef2:	88 05 68 c2 00 00    	mov    %al,0xc268(%rip)        # 23160 <g_556>
   16ef8:	8b 85 74 e6 ff ff    	mov    -0x198c(%rbp),%eax
   16efe:	89 85 08 e6 ff ff    	mov    %eax,-0x19f8(%rbp)
   16f04:	8b 85 08 e6 ff ff    	mov    -0x19f8(%rbp),%eax
   16f0a:	85 c0                	test   %eax,%eax
   16f0c:	0f 84 d5 01 00 00    	je     170e7 <func_32+0x2eae>
   16f12:	c7 85 9c e6 ff ff 50 	movl   $0x58ad3c50,-0x1964(%rbp)
   16f19:	3c ad 58 
   16f1c:	c7 85 a0 e6 ff ff fd 	movl   $0xfffffffd,-0x1960(%rbp)
   16f23:	ff ff ff 
   16f26:	c7 85 48 e7 ff ff 14 	movl   $0x662c9a14,-0x18b8(%rbp)
   16f2d:	9a 2c 66 
   16f30:	48 8d 05 c9 db 00 00 	lea    0xdbc9(%rip),%rax        # 24b00 <g_135>
   16f37:	48 89 85 68 e8 ff ff 	mov    %rax,-0x1798(%rbp)
   16f3e:	0f b7 05 43 c1 00 00 	movzwl 0xc143(%rip),%eax        # 23088 <g_162>
   16f45:	0f b7 d0             	movzwl %ax,%edx
   16f48:	8b 85 9c e6 ff ff    	mov    -0x1964(%rbp),%eax
   16f4e:	48 89 d6             	mov    %rdx,%rsi
   16f51:	48 89 c7             	mov    %rax,%rdi
   16f54:	e8 56 21 ff ff       	callq  90af <safe_div_func_uint64_t_u_u>
   16f59:	49 89 c6             	mov    %rax,%r14
   16f5c:	0f b6 85 d0 e5 ff ff 	movzbl -0x1a30(%rbp),%eax
   16f63:	0f b6 d8             	movzbl %al,%ebx
   16f66:	48 8b 05 8b db 00 00 	mov    0xdb8b(%rip),%rax        # 24af8 <g_108>
   16f6d:	8b 00                	mov    (%rax),%eax
   16f6f:	85 c0                	test   %eax,%eax
   16f71:	0f 84 91 00 00 00    	je     17008 <func_32+0x2dcf>
   16f77:	8b 05 cb c0 00 00    	mov    0xc0cb(%rip),%eax        # 23048 <g_88>
   16f7d:	0f b6 c0             	movzbl %al,%eax
   16f80:	be c7 00 00 00       	mov    $0xc7,%esi
   16f85:	89 c7                	mov    %eax,%edi
   16f87:	e8 ec 1b ff ff       	callq  8b78 <safe_sub_func_uint8_t_u_u>
   16f8c:	84 c0                	test   %al,%al
   16f8e:	74 68                	je     16ff8 <func_32+0x2dbf>
   16f90:	0f b6 05 44 c1 00 00 	movzbl 0xc144(%rip),%eax        # 230db <g_254+0xb>
   16f97:	44 0f be e0          	movsbl %al,%r12d
   16f9b:	0f b6 05 46 c1 00 00 	movzbl 0xc146(%rip),%eax        # 230e8 <g_261>
   16fa2:	44 0f be e8          	movsbl %al,%r13d
   16fa6:	0f b6 05 eb c0 00 00 	movzbl 0xc0eb(%rip),%eax        # 23098 <g_184+0x8>
   16fad:	0f b6 c0             	movzbl %al,%eax
   16fb0:	89 c6                	mov    %eax,%esi
   16fb2:	bf 00 00 00 00       	mov    $0x0,%edi
   16fb7:	e8 b0 13 ff ff       	callq  836c <safe_rshift_func_int8_t_s_u>
   16fbc:	0f be c0             	movsbl %al,%eax
   16fbf:	89 c7                	mov    %eax,%edi
   16fc1:	e8 f9 11 ff ff       	callq  81bf <safe_unary_minus_func_int8_t_s>
   16fc6:	88 05 68 c0 00 00    	mov    %al,0xc068(%rip)        # 23034 <g_55>
   16fcc:	0f b6 05 61 c0 00 00 	movzbl 0xc061(%rip),%eax        # 23034 <g_55>
   16fd3:	0f be c0             	movsbl %al,%eax
   16fd6:	44 89 ee             	mov    %r13d,%esi
   16fd9:	89 c7                	mov    %eax,%edi
   16fdb:	e8 12 12 ff ff       	callq  81f2 <safe_sub_func_int8_t_s_s>
   16fe0:	0f be c0             	movsbl %al,%eax
   16fe3:	44 89 e6             	mov    %r12d,%esi
   16fe6:	89 c7                	mov    %eax,%edi
   16fe8:	e8 05 12 ff ff       	callq  81f2 <safe_sub_func_int8_t_s_s>
   16fed:	0f be d0             	movsbl %al,%edx
   16ff0:	8b 05 ba c0 00 00    	mov    0xc0ba(%rip),%eax        # 230b0 <g_194+0x10>
   16ff6:	39 c2                	cmp    %eax,%edx
   16ff8:	48 8b 85 68 e8 ff ff 	mov    -0x1798(%rbp),%rax
   16fff:	48 3b 85 d0 e7 ff ff 	cmp    -0x1830(%rbp),%rax
   17006:	75 0e                	jne    17016 <func_32+0x2ddd>
   17008:	48 8b 85 c0 e5 ff ff 	mov    -0x1a40(%rbp),%rax
   1700f:	0f b6 00             	movzbl (%rax),%eax
   17012:	84 c0                	test   %al,%al
   17014:	74 07                	je     1701d <func_32+0x2de4>
   17016:	b8 01 00 00 00       	mov    $0x1,%eax
   1701b:	eb 05                	jmp    17022 <func_32+0x2de9>
   1701d:	b8 00 00 00 00       	mov    $0x0,%eax
   17022:	0f be d0             	movsbl %al,%edx
   17025:	48 8b 05 84 e2 00 00 	mov    0xe284(%rip),%rax        # 252b0 <g_432>
   1702c:	0f b6 00             	movzbl (%rax),%eax
   1702f:	0f be c0             	movsbl %al,%eax
   17032:	89 d6                	mov    %edx,%esi
   17034:	89 c7                	mov    %eax,%edi
   17036:	e8 99 11 ff ff       	callq  81d4 <safe_add_func_int8_t_s_s>
   1703b:	0f b6 c0             	movzbl %al,%eax
   1703e:	89 de                	mov    %ebx,%esi
   17040:	89 c7                	mov    %eax,%edi
   17042:	e8 31 1b ff ff       	callq  8b78 <safe_sub_func_uint8_t_u_u>
   17047:	0f b6 05 52 c1 00 00 	movzbl 0xc152(%rip),%eax        # 231a0 <g_595>
   1704e:	0f b6 d0             	movzbl %al,%edx
   17051:	48 8b 05 e0 bf 00 00 	mov    0xbfe0(%rip),%rax        # 23038 <g_84>
   17058:	48 8d 48 01          	lea    0x1(%rax),%rcx
   1705c:	48 89 0d d5 bf 00 00 	mov    %rcx,0xbfd5(%rip)        # 23038 <g_84>
   17063:	48 89 d6             	mov    %rdx,%rsi
   17066:	48 89 c7             	mov    %rax,%rdi
   17069:	e8 41 20 ff ff       	callq  90af <safe_div_func_uint64_t_u_u>
   1706e:	0f b7 d0             	movzwl %ax,%edx
   17071:	0f b7 85 e2 e5 ff ff 	movzwl -0x1a1e(%rbp),%eax
   17078:	0f b7 c0             	movzwl %ax,%eax
   1707b:	89 d6                	mov    %edx,%esi
   1707d:	89 c7                	mov    %eax,%edi
   1707f:	e8 9b 1c ff ff       	callq  8d1f <safe_sub_func_uint16_t_u_u>
   17084:	0f b7 c0             	movzwl %ax,%eax
   17087:	49 39 c6             	cmp    %rax,%r14
   1708a:	0f 96 c0             	setbe  %al
   1708d:	0f b6 c0             	movzbl %al,%eax
   17090:	89 c2                	mov    %eax,%edx
   17092:	8b 85 f8 e5 ff ff    	mov    -0x1a08(%rbp),%eax
   17098:	09 d0                	or     %edx,%eax
   1709a:	89 85 f8 e5 ff ff    	mov    %eax,-0x1a08(%rbp)
   170a0:	48 8b 85 d0 e7 ff ff 	mov    -0x1830(%rbp),%rax
   170a7:	48 8b 00             	mov    (%rax),%rax
   170aa:	48 8d 95 48 e7 ff ff 	lea    -0x18b8(%rbp),%rdx
   170b1:	48 89 10             	mov    %rdx,(%rax)
   170b4:	48 8b 05 45 da 00 00 	mov    0xda45(%rip),%rax        # 24b00 <g_135>
   170bb:	48 8b 10             	mov    (%rax),%rdx
   170be:	48 8b 05 3b da 00 00 	mov    0xda3b(%rip),%rax        # 24b00 <g_135>
   170c5:	48 8b 00             	mov    (%rax),%rax
   170c8:	8b 12                	mov    (%rdx),%edx
   170ca:	89 10                	mov    %edx,(%rax)
   170cc:	8b 08                	mov    (%rax),%ecx
   170ce:	48 8b 05 23 da 00 00 	mov    0xda23(%rip),%rax        # 24af8 <g_108>
   170d5:	8b 10                	mov    (%rax),%edx
   170d7:	48 8b 05 1a da 00 00 	mov    0xda1a(%rip),%rax        # 24af8 <g_108>
   170de:	21 ca                	and    %ecx,%edx
   170e0:	89 10                	mov    %edx,(%rax)
   170e2:	e9 15 06 00 00       	jmpq   176fc <func_32+0x34c3>
   170e7:	c7 85 90 e6 ff ff 5a 	movl   $0x8778035a,-0x1970(%rbp)
   170ee:	03 78 87 
   170f1:	48 8d 85 50 ea ff ff 	lea    -0x15b0(%rbp),%rax
   170f8:	48 83 c0 04          	add    $0x4,%rax
   170fc:	48 89 85 48 e8 ff ff 	mov    %rax,-0x17b8(%rbp)
   17103:	48 8d 05 1a bf 00 00 	lea    0xbf1a(%rip),%rax        # 23024 <g_18>
   1710a:	48 89 85 50 e8 ff ff 	mov    %rax,-0x17b0(%rbp)
   17111:	48 8d 85 50 ef ff ff 	lea    -0x10b0(%rbp),%rax
   17118:	48 8d 15 81 7c 00 00 	lea    0x7c81(%rip),%rdx        # 1eda0 <g_2423+0xcf0>
   1711f:	b9 1f 00 00 00       	mov    $0x1f,%ecx
   17124:	48 89 c7             	mov    %rax,%rdi
   17127:	48 89 d6             	mov    %rdx,%rsi
   1712a:	f3 48 a5             	rep movsq %ds:(%rsi),%es:(%rdi)
   1712d:	48 89 f2             	mov    %rsi,%rdx
   17130:	48 89 f8             	mov    %rdi,%rax
   17133:	8b 0a                	mov    (%rdx),%ecx
   17135:	89 08                	mov    %ecx,(%rax)
   17137:	48 8b 05 92 c2 00 00 	mov    0xc292(%rip),%rax        # 233d0 <g_1114>
   1713e:	48 8b 05 4b bf 00 00 	mov    0xbf4b(%rip),%rax        # 23090 <g_184>
   17145:	8b 85 90 e6 ff ff    	mov    -0x1970(%rbp),%eax
   1714b:	89 85 58 ea ff ff    	mov    %eax,-0x15a8(%rbp)
   17151:	48 8b 85 c8 e5 ff ff 	mov    -0x1a38(%rbp),%rax
   17158:	48 8b 10             	mov    (%rax),%rdx
   1715b:	48 8b 85 c8 e5 ff ff 	mov    -0x1a38(%rbp),%rax
   17162:	48 89 10             	mov    %rdx,(%rax)
   17165:	48 8b 85 c8 e5 ff ff 	mov    -0x1a38(%rbp),%rax
   1716c:	48 8b 00             	mov    (%rax),%rax
   1716f:	48 c7 c6 ff ff ff ff 	mov    $0xffffffffffffffff,%rsi
   17176:	48 89 c7             	mov    %rax,%rdi
   17179:	e8 79 18 ff ff       	callq  89f7 <safe_div_func_int64_t_s_s>
   1717e:	81 bd 90 e6 ff ff 36 	cmpl   $0x7936,-0x1970(%rbp)
   17185:	79 00 00 
   17188:	0f 97 c0             	seta   %al
   1718b:	89 c2                	mov    %eax,%edx
   1718d:	48 8b 85 a0 e7 ff ff 	mov    -0x1860(%rbp),%rax
   17194:	88 10                	mov    %dl,(%rax)
   17196:	48 8b 85 a0 e7 ff ff 	mov    -0x1860(%rbp),%rax
   1719d:	0f b6 00             	movzbl (%rax),%eax
   171a0:	0f be c0             	movsbl %al,%eax
   171a3:	89 c6                	mov    %eax,%esi
   171a5:	bf 64 00 00 00       	mov    $0x64,%edi
   171aa:	e8 63 10 ff ff       	callq  8212 <safe_mul_func_int8_t_s_s>
   171af:	0f be c0             	movsbl %al,%eax
   171b2:	89 85 04 e6 ff ff    	mov    %eax,-0x19fc(%rbp)
   171b8:	c6 05 a1 bf 00 00 00 	movb   $0x0,0xbfa1(%rip)        # 23160 <g_556>
   171bf:	90                   	nop
   171c0:	0f b6 05 99 bf 00 00 	movzbl 0xbf99(%rip),%eax        # 23160 <g_556>
   171c7:	3c e5                	cmp    $0xe5,%al
   171c9:	7c 7a                	jl     17245 <func_32+0x300c>
   171cb:	48 8d 85 10 e6 ff ff 	lea    -0x19f0(%rbp),%rax
   171d2:	48 89 85 60 e8 ff ff 	mov    %rax,-0x17a0(%rbp)
   171d9:	c7 85 30 e6 ff ff 00 	movl   $0x0,-0x19d0(%rbp)
   171e0:	00 00 00 
   171e3:	eb 1a                	jmp    171ff <func_32+0x2fc6>
   171e5:	8b 85 30 e6 ff ff    	mov    -0x19d0(%rbp),%eax
   171eb:	48 98                	cltq   
   171ed:	c7 84 85 d0 f7 ff ff 	movl   $0x1cf62465,-0x830(%rbp,%rax,4)
   171f4:	65 24 f6 1c 
   171f8:	83 85 30 e6 ff ff 01 	addl   $0x1,-0x19d0(%rbp)
   171ff:	83 bd 30 e6 ff ff 00 	cmpl   $0x0,-0x19d0(%rbp)
   17206:	7e dd                	jle    171e5 <func_32+0x2fac>
   17208:	48 8b 85 d0 e7 ff ff 	mov    -0x1830(%rbp),%rax
   1720f:	48 8b 00             	mov    (%rax),%rax
   17212:	48 8b 95 60 e8 ff ff 	mov    -0x17a0(%rbp),%rdx
   17219:	48 89 10             	mov    %rdx,(%rax)
   1721c:	48 8b 05 e5 d8 00 00 	mov    0xd8e5(%rip),%rax        # 24b08 <g_134>
   17223:	48 8b 00             	mov    (%rax),%rax
   17226:	48 8b 00             	mov    (%rax),%rax
   17229:	8b 10                	mov    (%rax),%edx
   1722b:	8b 85 d0 f7 ff ff    	mov    -0x830(%rbp),%eax
   17231:	09 d0                	or     %edx,%eax
   17233:	89 85 d0 f7 ff ff    	mov    %eax,-0x830(%rbp)
   17239:	48 8b 85 50 e8 ff ff 	mov    -0x17b0(%rbp),%rax
   17240:	e9 06 2e 00 00       	jmpq   1a04b <func_32+0x5e12>
   17245:	c7 85 f8 e5 ff ff 00 	movl   $0x0,-0x1a08(%rbp)
   1724c:	00 00 00 
   1724f:	e9 87 04 00 00       	jmpq   176db <func_32+0x34a2>
   17254:	c7 85 94 e6 ff ff c4 	movl   $0x1d506fc4,-0x196c(%rbp)
   1725b:	6f 50 1d 
   1725e:	48 8b 85 d8 e7 ff ff 	mov    -0x1828(%rbp),%rax
   17265:	c7 00 08 00 00 00    	movl   $0x8,(%rax)
   1726b:	c7 85 f0 e5 ff ff fe 	movl   $0xfffffffe,-0x1a10(%rbp)
   17272:	ff ff ff 
   17275:	e9 34 04 00 00       	jmpq   176ae <func_32+0x3475>
   1727a:	48 8d 05 33 be 00 00 	lea    0xbe33(%rip),%rax        # 230b4 <g_243>
   17281:	48 89 85 58 e8 ff ff 	mov    %rax,-0x17a8(%rbp)
   17288:	c7 85 98 e6 ff ff ff 	movl   $0xffffffff,-0x1968(%rbp)
   1728f:	ff ff ff 
   17292:	8b 85 98 e6 ff ff    	mov    -0x1968(%rbp),%eax
   17298:	0f be d8             	movsbl %al,%ebx
   1729b:	48 8b 85 48 e8 ff ff 	mov    -0x17b8(%rbp),%rax
   172a2:	44 8b 20             	mov    (%rax),%r12d
   172a5:	0f b6 05 fc c0 00 00 	movzbl 0xc0fc(%rip),%eax        # 233a8 <g_937>
   172ac:	0f b6 d0             	movzbl %al,%edx
   172af:	48 8b 85 58 e8 ff ff 	mov    -0x17a8(%rbp),%rax
   172b6:	89 10                	mov    %edx,(%rax)
   172b8:	48 8b 85 d8 e7 ff ff 	mov    -0x1828(%rbp),%rax
   172bf:	8b 10                	mov    (%rax),%edx
   172c1:	48 8b 85 d8 e7 ff ff 	mov    -0x1828(%rbp),%rax
   172c8:	89 10                	mov    %edx,(%rax)
   172ca:	48 8b 85 d8 e7 ff ff 	mov    -0x1828(%rbp),%rax
   172d1:	44 8b 30             	mov    (%rax),%r14d
   172d4:	48 8b 05 6d bd 00 00 	mov    0xbd6d(%rip),%rax        # 23048 <g_88>
   172db:	89 c2                	mov    %eax,%edx
   172dd:	48 8b 85 e0 e7 ff ff 	mov    -0x1820(%rbp),%rax
   172e4:	89 10                	mov    %edx,(%rax)
   172e6:	8b 85 98 e6 ff ff    	mov    -0x1968(%rbp),%eax
   172ec:	4c 63 e8             	movslq %eax,%r13
   172ef:	8b 85 98 e6 ff ff    	mov    -0x1968(%rbp),%eax
   172f5:	be ba 2c 64 4f       	mov    $0x4f642cba,%esi
   172fa:	89 c7                	mov    %eax,%edi
   172fc:	e8 fc 1b ff ff       	callq  8efd <safe_mod_func_uint32_t_u_u>
   17301:	89 c2                	mov    %eax,%edx
   17303:	48 8b 05 ae bd 00 00 	mov    0xbdae(%rip),%rax        # 230b8 <g_246>
   1730a:	48 39 c2             	cmp    %rax,%rdx
   1730d:	74 07                	je     17316 <func_32+0x30dd>
   1730f:	83 bd 98 e6 ff ff 00 	cmpl   $0x0,-0x1968(%rbp)
   17316:	48 8b 85 e0 e7 ff ff 	mov    -0x1820(%rbp),%rax
   1731d:	8b 10                	mov    (%rax),%edx
   1731f:	48 8b 85 50 e8 ff ff 	mov    -0x17b0(%rbp),%rax
   17326:	8b 00                	mov    (%rax),%eax
   17328:	0f b7 c0             	movzwl %ax,%eax
   1732b:	89 d6                	mov    %edx,%esi
   1732d:	89 c7                	mov    %eax,%edi
   1732f:	e8 8a 1a ff ff       	callq  8dbe <safe_lshift_func_uint16_t_u_s>
   17334:	0f b7 c0             	movzwl %ax,%eax
   17337:	4c 89 ee             	mov    %r13,%rsi
   1733a:	48 89 c7             	mov    %rax,%rdi
   1733d:	e8 ec 1c ff ff       	callq  902e <safe_add_func_uint64_t_u_u>
   17342:	0f b7 c0             	movzwl %ax,%eax
   17345:	8b 95 98 e6 ff ff    	mov    -0x1968(%rbp),%edx
   1734b:	89 d6                	mov    %edx,%esi
   1734d:	89 c7                	mov    %eax,%edi
   1734f:	e8 f4 1a ff ff       	callq  8e48 <safe_rshift_func_uint16_t_u_s>
   17354:	0f b7 c0             	movzwl %ax,%eax
   17357:	39 85 94 e6 ff ff    	cmp    %eax,-0x196c(%rbp)
   1735d:	0f 92 c0             	setb   %al
   17360:	0f b6 c0             	movzbl %al,%eax
   17363:	be 06 00 00 00       	mov    $0x6,%esi
   17368:	89 c7                	mov    %eax,%edi
   1736a:	e8 d9 1a ff ff       	callq  8e48 <safe_rshift_func_uint16_t_u_s>
   1736f:	0f b6 c0             	movzbl %al,%eax
   17372:	be d4 00 00 00       	mov    $0xd4,%esi
   17377:	89 c7                	mov    %eax,%edi
   17379:	e8 dc 17 ff ff       	callq  8b5a <safe_add_func_uint8_t_u_u>
   1737e:	0f b6 c0             	movzbl %al,%eax
   17381:	41 39 c6             	cmp    %eax,%r14d
   17384:	0f 95 c0             	setne  %al
   17387:	0f b6 c0             	movzbl %al,%eax
   1738a:	be 03 db ff ff       	mov    $0xffffdb03,%esi
   1738f:	89 c7                	mov    %eax,%edi
   17391:	e8 3d 10 ff ff       	callq  83d3 <safe_sub_func_int16_t_s_s>
   17396:	66 85 c0             	test   %ax,%ax
   17399:	75 0c                	jne    173a7 <func_32+0x316e>
   1739b:	48 8b 05 a6 bc 00 00 	mov    0xbca6(%rip),%rax        # 23048 <g_88>
   173a2:	48 85 c0             	test   %rax,%rax
   173a5:	74 07                	je     173ae <func_32+0x3175>
   173a7:	b8 01 00 00 00       	mov    $0x1,%eax
   173ac:	eb 05                	jmp    173b3 <func_32+0x317a>
   173ae:	b8 00 00 00 00       	mov    $0x0,%eax
   173b3:	0f b7 c0             	movzwl %ax,%eax
   173b6:	be 00 00 00 00       	mov    $0x0,%esi
   173bb:	89 c7                	mov    %eax,%edi
   173bd:	e8 3d 19 ff ff       	callq  8cff <safe_add_func_uint16_t_u_u>
   173c2:	0f b6 d0             	movzbl %al,%edx
   173c5:	8b 85 a4 ef ff ff    	mov    -0x105c(%rbp),%eax
   173cb:	89 c1                	mov    %eax,%ecx
   173cd:	48 8b 05 d4 e6 00 00 	mov    0xe6d4(%rip),%rax        # 25aa8 <g_503>
   173d4:	48 8b 00             	mov    (%rax),%rax
   173d7:	48 85 c0             	test   %rax,%rax
   173da:	0f 94 c0             	sete   %al
   173dd:	21 c8                	and    %ecx,%eax
   173df:	0f b6 c0             	movzbl %al,%eax
   173e2:	89 d6                	mov    %edx,%esi
   173e4:	89 c7                	mov    %eax,%edi
   173e6:	e8 a8 17 ff ff       	callq  8b93 <safe_mul_func_uint8_t_u_u>
   173eb:	0f b6 c0             	movzbl %al,%eax
   173ee:	8b 95 98 e6 ff ff    	mov    -0x1968(%rbp),%edx
   173f4:	21 d0                	and    %edx,%eax
   173f6:	0f b7 c0             	movzwl %ax,%eax
   173f9:	44 89 e6             	mov    %r12d,%esi
   173fc:	89 c7                	mov    %eax,%edi
   173fe:	e8 45 1a ff ff       	callq  8e48 <safe_rshift_func_uint16_t_u_s>
   17403:	48 8b 85 c0 e5 ff ff 	mov    -0x1a40(%rbp),%rax
   1740a:	0f b6 00             	movzbl (%rax),%eax
   1740d:	0f be c0             	movsbl %al,%eax
   17410:	89 de                	mov    %ebx,%esi
   17412:	89 c7                	mov    %eax,%edi
   17414:	e8 bb 0d ff ff       	callq  81d4 <safe_add_func_int8_t_s_s>
   17419:	8b 85 98 e6 ff ff    	mov    -0x1968(%rbp),%eax
   1741f:	0b 85 94 e6 ff ff    	or     -0x196c(%rbp),%eax
   17425:	89 c2                	mov    %eax,%edx
   17427:	48 8b 05 d2 ce 00 00 	mov    0xced2(%rip),%rax        # 24300 <g_45>
   1742e:	81 e2 2c 0d 00 00    	and    $0xd2c,%edx
   17434:	89 10                	mov    %edx,(%rax)
   17436:	66 c7 05 81 bc 00 00 	movw   $0x0,0xbc81(%rip)        # 230c0 <g_253>
   1743d:	00 00 
   1743f:	90                   	nop
   17440:	0f b7 05 79 bc 00 00 	movzwl 0xbc79(%rip),%eax        # 230c0 <g_253>
   17447:	66 83 f8 0a          	cmp    $0xa,%ax
   1744b:	0f 8e 45 02 00 00    	jle    17696 <func_32+0x345d>
   17451:	48 8d 05 b8 ce 00 00 	lea    0xceb8(%rip),%rax        # 24310 <g_91>
   17458:	48 89 85 d0 f7 ff ff 	mov    %rax,-0x830(%rbp)
   1745f:	48 8d 05 aa ce 00 00 	lea    0xceaa(%rip),%rax        # 24310 <g_91>
   17466:	48 89 85 d8 f7 ff ff 	mov    %rax,-0x828(%rbp)
   1746d:	48 8d 85 30 e7 ff ff 	lea    -0x18d0(%rbp),%rax
   17474:	48 89 85 e0 f7 ff ff 	mov    %rax,-0x820(%rbp)
   1747b:	48 8d 05 8e ce 00 00 	lea    0xce8e(%rip),%rax        # 24310 <g_91>
   17482:	48 89 85 e8 f7 ff ff 	mov    %rax,-0x818(%rbp)
   17489:	48 8d 05 80 ce 00 00 	lea    0xce80(%rip),%rax        # 24310 <g_91>
   17490:	48 89 85 f0 f7 ff ff 	mov    %rax,-0x810(%rbp)
   17497:	48 8d 85 30 e7 ff ff 	lea    -0x18d0(%rbp),%rax
   1749e:	48 89 85 f8 f7 ff ff 	mov    %rax,-0x808(%rbp)
   174a5:	48 8d 05 64 ce 00 00 	lea    0xce64(%rip),%rax        # 24310 <g_91>
   174ac:	48 89 85 00 f8 ff ff 	mov    %rax,-0x800(%rbp)
   174b3:	48 8d 05 56 ce 00 00 	lea    0xce56(%rip),%rax        # 24310 <g_91>
   174ba:	48 89 85 08 f8 ff ff 	mov    %rax,-0x7f8(%rbp)
   174c1:	48 8d 85 30 e7 ff ff 	lea    -0x18d0(%rbp),%rax
   174c8:	48 89 85 10 f8 ff ff 	mov    %rax,-0x7f0(%rbp)
   174cf:	48 8d 05 3a ce 00 00 	lea    0xce3a(%rip),%rax        # 24310 <g_91>
   174d6:	48 89 85 18 f8 ff ff 	mov    %rax,-0x7e8(%rbp)
   174dd:	48 8d 05 2c ce 00 00 	lea    0xce2c(%rip),%rax        # 24310 <g_91>
   174e4:	48 89 85 20 f8 ff ff 	mov    %rax,-0x7e0(%rbp)
   174eb:	48 8d 85 30 e7 ff ff 	lea    -0x18d0(%rbp),%rax
   174f2:	48 89 85 28 f8 ff ff 	mov    %rax,-0x7d8(%rbp)
   174f9:	48 8d 05 10 ce 00 00 	lea    0xce10(%rip),%rax        # 24310 <g_91>
   17500:	48 89 85 30 f8 ff ff 	mov    %rax,-0x7d0(%rbp)
   17507:	48 8d 05 02 ce 00 00 	lea    0xce02(%rip),%rax        # 24310 <g_91>
   1750e:	48 89 85 38 f8 ff ff 	mov    %rax,-0x7c8(%rbp)
   17515:	48 8d 85 30 e7 ff ff 	lea    -0x18d0(%rbp),%rax
   1751c:	48 89 85 40 f8 ff ff 	mov    %rax,-0x7c0(%rbp)
   17523:	48 8d 05 e6 cd 00 00 	lea    0xcde6(%rip),%rax        # 24310 <g_91>
   1752a:	48 89 85 48 f8 ff ff 	mov    %rax,-0x7b8(%rbp)
   17531:	48 8d 05 d8 cd 00 00 	lea    0xcdd8(%rip),%rax        # 24310 <g_91>
   17538:	48 89 85 50 f8 ff ff 	mov    %rax,-0x7b0(%rbp)
   1753f:	48 8d 85 30 e7 ff ff 	lea    -0x18d0(%rbp),%rax
   17546:	48 89 85 58 f8 ff ff 	mov    %rax,-0x7a8(%rbp)
   1754d:	48 8d 05 bc cd 00 00 	lea    0xcdbc(%rip),%rax        # 24310 <g_91>
   17554:	48 89 85 60 f8 ff ff 	mov    %rax,-0x7a0(%rbp)
   1755b:	48 8d 05 ae cd 00 00 	lea    0xcdae(%rip),%rax        # 24310 <g_91>
   17562:	48 89 85 68 f8 ff ff 	mov    %rax,-0x798(%rbp)
   17569:	48 8d 85 30 e7 ff ff 	lea    -0x18d0(%rbp),%rax
   17570:	48 89 85 70 f8 ff ff 	mov    %rax,-0x790(%rbp)
   17577:	48 8d 05 92 cd 00 00 	lea    0xcd92(%rip),%rax        # 24310 <g_91>
   1757e:	48 89 85 78 f8 ff ff 	mov    %rax,-0x788(%rbp)
   17585:	48 8d 05 84 cd 00 00 	lea    0xcd84(%rip),%rax        # 24310 <g_91>
   1758c:	48 89 85 80 f8 ff ff 	mov    %rax,-0x780(%rbp)
   17593:	48 8d 85 30 e7 ff ff 	lea    -0x18d0(%rbp),%rax
   1759a:	48 89 85 88 f8 ff ff 	mov    %rax,-0x778(%rbp)
   175a1:	48 8d 05 68 cd 00 00 	lea    0xcd68(%rip),%rax        # 24310 <g_91>
   175a8:	48 89 85 90 f8 ff ff 	mov    %rax,-0x770(%rbp)
   175af:	48 8d 05 5a cd 00 00 	lea    0xcd5a(%rip),%rax        # 24310 <g_91>
   175b6:	48 89 85 98 f8 ff ff 	mov    %rax,-0x768(%rbp)
   175bd:	48 8d 85 30 e7 ff ff 	lea    -0x18d0(%rbp),%rax
   175c4:	48 89 85 a0 f8 ff ff 	mov    %rax,-0x760(%rbp)
   175cb:	48 8d 05 3e cd 00 00 	lea    0xcd3e(%rip),%rax        # 24310 <g_91>
   175d2:	48 89 85 a8 f8 ff ff 	mov    %rax,-0x758(%rbp)
   175d9:	48 8d 05 30 cd 00 00 	lea    0xcd30(%rip),%rax        # 24310 <g_91>
   175e0:	48 89 85 b0 f8 ff ff 	mov    %rax,-0x750(%rbp)
   175e7:	48 8d 85 30 e7 ff ff 	lea    -0x18d0(%rbp),%rax
   175ee:	48 89 85 b8 f8 ff ff 	mov    %rax,-0x748(%rbp)
   175f5:	48 8d 05 14 cd 00 00 	lea    0xcd14(%rip),%rax        # 24310 <g_91>
   175fc:	48 89 85 c0 f8 ff ff 	mov    %rax,-0x740(%rbp)
   17603:	48 8d 05 06 cd 00 00 	lea    0xcd06(%rip),%rax        # 24310 <g_91>
   1760a:	48 89 85 c8 f8 ff ff 	mov    %rax,-0x738(%rbp)
   17611:	48 8d 85 30 e7 ff ff 	lea    -0x18d0(%rbp),%rax
   17618:	48 89 85 d0 f8 ff ff 	mov    %rax,-0x730(%rbp)
   1761f:	48 8d 05 ea cc 00 00 	lea    0xccea(%rip),%rax        # 24310 <g_91>
   17626:	48 89 85 d8 f8 ff ff 	mov    %rax,-0x728(%rbp)
   1762d:	48 8d 05 dc cc 00 00 	lea    0xccdc(%rip),%rax        # 24310 <g_91>
   17634:	48 89 85 e0 f8 ff ff 	mov    %rax,-0x720(%rbp)
   1763b:	48 8d 85 30 e7 ff ff 	lea    -0x18d0(%rbp),%rax
   17642:	48 89 85 e8 f8 ff ff 	mov    %rax,-0x718(%rbp)
   17649:	c7 85 60 e6 ff ff 00 	movl   $0x0,-0x19a0(%rbp)
   17650:	00 00 00 
   17653:	eb 1e                	jmp    17673 <func_32+0x343a>
   17655:	8b 85 60 e6 ff ff    	mov    -0x19a0(%rbp),%eax
   1765b:	48 98                	cltq   
   1765d:	48 8d 95 08 e6 ff ff 	lea    -0x19f8(%rbp),%rdx
   17664:	48 89 94 c5 30 ee ff 	mov    %rdx,-0x11d0(%rbp,%rax,8)
   1766b:	ff 
   1766c:	83 85 60 e6 ff ff 01 	addl   $0x1,-0x19a0(%rbp)
   17673:	83 bd 60 e6 ff ff 02 	cmpl   $0x2,-0x19a0(%rbp)
   1767a:	7e d9                	jle    17655 <func_32+0x341c>
   1767c:	48 8b 05 7d e4 00 00 	mov    0xe47d(%rip),%rax        # 25b00 <g_1162>
   17683:	48 89 05 76 cc 00 00 	mov    %rax,0xcc76(%rip)        # 24300 <g_45>
   1768a:	48 8b 85 58 e8 ff ff 	mov    -0x17a8(%rbp),%rax
   17691:	e9 b5 29 00 00       	jmpq   1a04b <func_32+0x5e12>
   17696:	8b 85 f0 e5 ff ff    	mov    -0x1a10(%rbp),%eax
   1769c:	be 09 00 00 00       	mov    $0x9,%esi
   176a1:	89 c7                	mov    %eax,%edi
   176a3:	e8 10 18 ff ff       	callq  8eb8 <safe_add_func_uint32_t_u_u>
   176a8:	89 85 f0 e5 ff ff    	mov    %eax,-0x1a10(%rbp)
   176ae:	8b 85 f0 e5 ff ff    	mov    -0x1a10(%rbp),%eax
   176b4:	83 f8 fe             	cmp    $0xfffffffe,%eax
   176b7:	0f 85 bd fb ff ff    	jne    1727a <func_32+0x3041>
   176bd:	8b 85 f8 e5 ff ff    	mov    -0x1a08(%rbp),%eax
   176c3:	0f b7 c0             	movzwl %ax,%eax
   176c6:	be 03 00 00 00       	mov    $0x3,%esi
   176cb:	89 c7                	mov    %eax,%edi
   176cd:	e8 2d 16 ff ff       	callq  8cff <safe_add_func_uint16_t_u_u>
   176d2:	0f b7 c0             	movzwl %ax,%eax
   176d5:	89 85 f8 e5 ff ff    	mov    %eax,-0x1a08(%rbp)
   176db:	8b 85 f8 e5 ff ff    	mov    -0x1a08(%rbp),%eax
   176e1:	83 f8 21             	cmp    $0x21,%eax
   176e4:	0f 86 6a fb ff ff    	jbe    17254 <func_32+0x301b>
   176ea:	48 8b 85 50 e8 ff ff 	mov    -0x17b0(%rbp),%rax
   176f1:	8b 10                	mov    (%rax),%edx
   176f3:	48 8b 85 48 e8 ff ff 	mov    -0x17b8(%rbp),%rax
   176fa:	89 10                	mov    %edx,(%rax)
   176fc:	c7 85 04 e6 ff ff 00 	movl   $0x0,-0x19fc(%rbp)
   17703:	00 00 00 
   17706:	e9 eb 10 00 00       	jmpq   187f6 <func_32+0x45bd>
   1770b:	48 8d 85 ec e5 ff ff 	lea    -0x1a14(%rbp),%rax
   17712:	48 89 85 a8 e8 ff ff 	mov    %rax,-0x1758(%rbp)
   17719:	48 c7 85 50 ef ff ff 	movq   $0x0,-0x10b0(%rbp)
   17720:	00 00 00 00 
   17724:	48 c7 85 58 ef ff ff 	movq   $0x0,-0x10a8(%rbp)
   1772b:	00 00 00 00 
   1772f:	48 c7 85 60 ef ff ff 	movq   $0x0,-0x10a0(%rbp)
   17736:	00 00 00 00 
   1773a:	48 c7 85 68 ef ff ff 	movq   $0x0,-0x1098(%rbp)
   17741:	00 00 00 00 
   17745:	48 c7 85 70 ef ff ff 	movq   $0x0,-0x1090(%rbp)
   1774c:	00 00 00 00 
   17750:	48 c7 85 78 ef ff ff 	movq   $0x0,-0x1088(%rbp)
   17757:	00 00 00 00 
   1775b:	8b 85 04 e6 ff ff    	mov    -0x19fc(%rbp),%eax
   17761:	8b 95 04 e6 ff ff    	mov    -0x19fc(%rbp),%edx
   17767:	83 c2 01             	add    $0x1,%edx
   1776a:	48 63 ca             	movslq %edx,%rcx
   1776d:	48 63 d0             	movslq %eax,%rdx
   17770:	48 89 d0             	mov    %rdx,%rax
   17773:	48 c1 e0 02          	shl    $0x2,%rax
   17777:	48 01 d0             	add    %rdx,%rax
   1777a:	48 01 c8             	add    %rcx,%rax
   1777d:	48 8d 14 00          	lea    (%rax,%rax,1),%rdx
   17781:	48 8d 05 d8 b8 00 00 	lea    0xb8d8(%rip),%rax        # 23060 <g_158>
   17788:	0f b7 04 02          	movzwl (%rdx,%rax,1),%eax
   1778c:	98                   	cwtl   
   1778d:	be 0e 00 00 00       	mov    $0xe,%esi
   17792:	89 c7                	mov    %eax,%edi
   17794:	e8 f9 0c ff ff       	callq  8492 <safe_lshift_func_int16_t_s_s>
   17799:	66 85 c0             	test   %ax,%ax
   1779c:	0f 84 30 0e 00 00    	je     185d2 <func_32+0x4399>
   177a2:	48 8d 05 87 b8 00 00 	lea    0xb887(%rip),%rax        # 23030 <g_46>
   177a9:	48 89 85 d0 f7 ff ff 	mov    %rax,-0x830(%rbp)
   177b0:	48 c7 85 d8 f7 ff ff 	movq   $0x0,-0x828(%rbp)
   177b7:	00 00 00 00 
   177bb:	48 c7 85 e0 f7 ff ff 	movq   $0x0,-0x820(%rbp)
   177c2:	00 00 00 00 
   177c6:	48 8d 85 14 e6 ff ff 	lea    -0x19ec(%rbp),%rax
   177cd:	48 89 85 e8 f7 ff ff 	mov    %rax,-0x818(%rbp)
   177d4:	48 8d 85 0c e6 ff ff 	lea    -0x19f4(%rbp),%rax
   177db:	48 89 85 f0 f7 ff ff 	mov    %rax,-0x810(%rbp)
   177e2:	48 8d 85 70 ea ff ff 	lea    -0x1590(%rbp),%rax
   177e9:	48 83 c0 18          	add    $0x18,%rax
   177ed:	48 89 85 f8 f7 ff ff 	mov    %rax,-0x808(%rbp)
   177f4:	48 8d 85 70 ea ff ff 	lea    -0x1590(%rbp),%rax
   177fb:	48 83 c0 20          	add    $0x20,%rax
   177ff:	48 89 85 00 f8 ff ff 	mov    %rax,-0x800(%rbp)
   17806:	48 8d 85 70 ea ff ff 	lea    -0x1590(%rbp),%rax
   1780d:	48 83 c0 18          	add    $0x18,%rax
   17811:	48 89 85 08 f8 ff ff 	mov    %rax,-0x7f8(%rbp)
   17818:	48 c7 85 10 f8 ff ff 	movq   $0x0,-0x7f0(%rbp)
   1781f:	00 00 00 00 
   17823:	48 8d 85 04 e6 ff ff 	lea    -0x19fc(%rbp),%rax
   1782a:	48 89 85 18 f8 ff ff 	mov    %rax,-0x7e8(%rbp)
   17831:	48 8d 05 ec b7 00 00 	lea    0xb7ec(%rip),%rax        # 23024 <g_18>
   17838:	48 89 85 20 f8 ff ff 	mov    %rax,-0x7e0(%rbp)
   1783f:	48 8d 85 0c e6 ff ff 	lea    -0x19f4(%rbp),%rax
   17846:	48 89 85 28 f8 ff ff 	mov    %rax,-0x7d8(%rbp)
   1784d:	48 8d 05 d0 b7 00 00 	lea    0xb7d0(%rip),%rax        # 23024 <g_18>
   17854:	48 89 85 30 f8 ff ff 	mov    %rax,-0x7d0(%rbp)
   1785b:	48 8d 85 14 e6 ff ff 	lea    -0x19ec(%rbp),%rax
   17862:	48 89 85 38 f8 ff ff 	mov    %rax,-0x7c8(%rbp)
   17869:	48 8d 85 50 ea ff ff 	lea    -0x15b0(%rbp),%rax
   17870:	48 89 85 40 f8 ff ff 	mov    %rax,-0x7c0(%rbp)
   17877:	48 8d 85 0c e6 ff ff 	lea    -0x19f4(%rbp),%rax
   1787e:	48 89 85 48 f8 ff ff 	mov    %rax,-0x7b8(%rbp)
   17885:	48 8d 85 04 e6 ff ff 	lea    -0x19fc(%rbp),%rax
   1788c:	48 89 85 50 f8 ff ff 	mov    %rax,-0x7b0(%rbp)
   17893:	48 8d 85 fc e5 ff ff 	lea    -0x1a04(%rbp),%rax
   1789a:	48 89 85 58 f8 ff ff 	mov    %rax,-0x7a8(%rbp)
   178a1:	48 8d 85 fc e5 ff ff 	lea    -0x1a04(%rbp),%rax
   178a8:	48 89 85 60 f8 ff ff 	mov    %rax,-0x7a0(%rbp)
   178af:	48 8d 85 0c e6 ff ff 	lea    -0x19f4(%rbp),%rax
   178b6:	48 89 85 68 f8 ff ff 	mov    %rax,-0x798(%rbp)
   178bd:	48 c7 85 70 f8 ff ff 	movq   $0x0,-0x790(%rbp)
   178c4:	00 00 00 00 
   178c8:	48 8d 85 14 e6 ff ff 	lea    -0x19ec(%rbp),%rax
   178cf:	48 89 85 78 f8 ff ff 	mov    %rax,-0x788(%rbp)
   178d6:	48 8d 85 70 ea ff ff 	lea    -0x1590(%rbp),%rax
   178dd:	48 83 c0 20          	add    $0x20,%rax
   178e1:	48 89 85 80 f8 ff ff 	mov    %rax,-0x780(%rbp)
   178e8:	48 8d 85 f0 e5 ff ff 	lea    -0x1a10(%rbp),%rax
   178ef:	48 89 85 88 f8 ff ff 	mov    %rax,-0x778(%rbp)
   178f6:	48 8d 85 04 e6 ff ff 	lea    -0x19fc(%rbp),%rax
   178fd:	48 89 85 90 f8 ff ff 	mov    %rax,-0x770(%rbp)
   17904:	48 c7 85 98 f8 ff ff 	movq   $0x0,-0x768(%rbp)
   1790b:	00 00 00 00 
   1790f:	48 8d 85 10 e6 ff ff 	lea    -0x19f0(%rbp),%rax
   17916:	48 89 85 a0 f8 ff ff 	mov    %rax,-0x760(%rbp)
   1791d:	48 8d 85 0c e6 ff ff 	lea    -0x19f4(%rbp),%rax
   17924:	48 89 85 a8 f8 ff ff 	mov    %rax,-0x758(%rbp)
   1792b:	48 8d 85 f4 e5 ff ff 	lea    -0x1a0c(%rbp),%rax
   17932:	48 89 85 b0 f8 ff ff 	mov    %rax,-0x750(%rbp)
   17939:	48 8d 85 50 ea ff ff 	lea    -0x15b0(%rbp),%rax
   17940:	48 89 85 b8 f8 ff ff 	mov    %rax,-0x748(%rbp)
   17947:	48 8d 85 0c e6 ff ff 	lea    -0x19f4(%rbp),%rax
   1794e:	48 89 85 c0 f8 ff ff 	mov    %rax,-0x740(%rbp)
   17955:	48 c7 85 c8 f8 ff ff 	movq   $0x0,-0x738(%rbp)
   1795c:	00 00 00 00 
   17960:	48 c7 85 d0 f8 ff ff 	movq   $0x0,-0x730(%rbp)
   17967:	00 00 00 00 
   1796b:	48 8d 85 10 e6 ff ff 	lea    -0x19f0(%rbp),%rax
   17972:	48 89 85 d8 f8 ff ff 	mov    %rax,-0x728(%rbp)
   17979:	48 c7 85 e0 f8 ff ff 	movq   $0x0,-0x720(%rbp)
   17980:	00 00 00 00 
   17984:	48 c7 85 e8 f8 ff ff 	movq   $0x0,-0x718(%rbp)
   1798b:	00 00 00 00 
   1798f:	48 8d 85 14 e6 ff ff 	lea    -0x19ec(%rbp),%rax
   17996:	48 89 85 f0 f8 ff ff 	mov    %rax,-0x710(%rbp)
   1799d:	48 c7 85 f8 f8 ff ff 	movq   $0x0,-0x708(%rbp)
   179a4:	00 00 00 00 
   179a8:	48 8d 85 70 ea ff ff 	lea    -0x1590(%rbp),%rax
   179af:	48 83 c0 18          	add    $0x18,%rax
   179b3:	48 89 85 00 f9 ff ff 	mov    %rax,-0x700(%rbp)
   179ba:	48 8d 85 f0 e5 ff ff 	lea    -0x1a10(%rbp),%rax
   179c1:	48 89 85 08 f9 ff ff 	mov    %rax,-0x6f8(%rbp)
   179c8:	48 8d 85 0c e6 ff ff 	lea    -0x19f4(%rbp),%rax
   179cf:	48 89 85 10 f9 ff ff 	mov    %rax,-0x6f0(%rbp)
   179d6:	48 8d 85 0c e6 ff ff 	lea    -0x19f4(%rbp),%rax
   179dd:	48 89 85 18 f9 ff ff 	mov    %rax,-0x6e8(%rbp)
   179e4:	48 8d 85 00 e6 ff ff 	lea    -0x1a00(%rbp),%rax
   179eb:	48 89 85 20 f9 ff ff 	mov    %rax,-0x6e0(%rbp)
   179f2:	48 8d 85 08 e6 ff ff 	lea    -0x19f8(%rbp),%rax
   179f9:	48 89 85 28 f9 ff ff 	mov    %rax,-0x6d8(%rbp)
   17a00:	48 8d 85 14 e6 ff ff 	lea    -0x19ec(%rbp),%rax
   17a07:	48 89 85 30 f9 ff ff 	mov    %rax,-0x6d0(%rbp)
   17a0e:	48 8d 85 70 ea ff ff 	lea    -0x1590(%rbp),%rax
   17a15:	48 83 c0 18          	add    $0x18,%rax
   17a19:	48 89 85 38 f9 ff ff 	mov    %rax,-0x6c8(%rbp)
   17a20:	48 c7 85 40 f9 ff ff 	movq   $0x0,-0x6c0(%rbp)
   17a27:	00 00 00 00 
   17a2b:	48 8d 05 f2 b5 00 00 	lea    0xb5f2(%rip),%rax        # 23024 <g_18>
   17a32:	48 89 85 48 f9 ff ff 	mov    %rax,-0x6b8(%rbp)
   17a39:	48 8d 85 f0 e5 ff ff 	lea    -0x1a10(%rbp),%rax
   17a40:	48 89 85 50 f9 ff ff 	mov    %rax,-0x6b0(%rbp)
   17a47:	48 8d 85 ec e5 ff ff 	lea    -0x1a14(%rbp),%rax
   17a4e:	48 89 85 58 f9 ff ff 	mov    %rax,-0x6a8(%rbp)
   17a55:	48 c7 85 60 f9 ff ff 	movq   $0x0,-0x6a0(%rbp)
   17a5c:	00 00 00 00 
   17a60:	48 8d 85 70 ea ff ff 	lea    -0x1590(%rbp),%rax
   17a67:	48 83 c0 18          	add    $0x18,%rax
   17a6b:	48 89 85 68 f9 ff ff 	mov    %rax,-0x698(%rbp)
   17a72:	48 8d 85 10 e6 ff ff 	lea    -0x19f0(%rbp),%rax
   17a79:	48 89 85 70 f9 ff ff 	mov    %rax,-0x690(%rbp)
   17a80:	48 8d 85 10 e6 ff ff 	lea    -0x19f0(%rbp),%rax
   17a87:	48 89 85 78 f9 ff ff 	mov    %rax,-0x688(%rbp)
   17a8e:	48 8d 85 70 ea ff ff 	lea    -0x1590(%rbp),%rax
   17a95:	48 83 c0 18          	add    $0x18,%rax
   17a99:	48 89 85 80 f9 ff ff 	mov    %rax,-0x680(%rbp)
   17aa0:	48 c7 85 88 f9 ff ff 	movq   $0x0,-0x678(%rbp)
   17aa7:	00 00 00 00 
   17aab:	48 c7 85 90 f9 ff ff 	movq   $0x0,-0x670(%rbp)
   17ab2:	00 00 00 00 
   17ab6:	48 8d 85 04 e6 ff ff 	lea    -0x19fc(%rbp),%rax
   17abd:	48 89 85 98 f9 ff ff 	mov    %rax,-0x668(%rbp)
   17ac4:	48 8d 05 59 b5 00 00 	lea    0xb559(%rip),%rax        # 23024 <g_18>
   17acb:	48 89 85 a0 f9 ff ff 	mov    %rax,-0x660(%rbp)
   17ad2:	48 8d 85 14 e6 ff ff 	lea    -0x19ec(%rbp),%rax
   17ad9:	48 89 85 a8 f9 ff ff 	mov    %rax,-0x658(%rbp)
   17ae0:	48 8d 85 70 ea ff ff 	lea    -0x1590(%rbp),%rax
   17ae7:	48 83 c0 20          	add    $0x20,%rax
   17aeb:	48 89 85 b0 f9 ff ff 	mov    %rax,-0x650(%rbp)
   17af2:	48 c7 85 b8 f9 ff ff 	movq   $0x0,-0x648(%rbp)
   17af9:	00 00 00 00 
   17afd:	48 8d 85 0c e6 ff ff 	lea    -0x19f4(%rbp),%rax
   17b04:	48 89 85 c0 f9 ff ff 	mov    %rax,-0x640(%rbp)
   17b0b:	48 c7 85 c8 f9 ff ff 	movq   $0x0,-0x638(%rbp)
   17b12:	00 00 00 00 
   17b16:	48 c7 85 d0 f9 ff ff 	movq   $0x0,-0x630(%rbp)
   17b1d:	00 00 00 00 
   17b21:	48 8d 85 14 e6 ff ff 	lea    -0x19ec(%rbp),%rax
   17b28:	48 89 85 d8 f9 ff ff 	mov    %rax,-0x628(%rbp)
   17b2f:	48 8d 85 70 ea ff ff 	lea    -0x1590(%rbp),%rax
   17b36:	48 83 c0 18          	add    $0x18,%rax
   17b3a:	48 89 85 e0 f9 ff ff 	mov    %rax,-0x620(%rbp)
   17b41:	48 c7 85 e8 f9 ff ff 	movq   $0x0,-0x618(%rbp)
   17b48:	00 00 00 00 
   17b4c:	48 8d 85 0c e6 ff ff 	lea    -0x19f4(%rbp),%rax
   17b53:	48 89 85 f0 f9 ff ff 	mov    %rax,-0x610(%rbp)
   17b5a:	48 8d 05 cf b4 00 00 	lea    0xb4cf(%rip),%rax        # 23030 <g_46>
   17b61:	48 89 85 f8 f9 ff ff 	mov    %rax,-0x608(%rbp)
   17b68:	48 8d 85 10 e6 ff ff 	lea    -0x19f0(%rbp),%rax
   17b6f:	48 89 85 00 fa ff ff 	mov    %rax,-0x600(%rbp)
   17b76:	48 8d 85 10 e6 ff ff 	lea    -0x19f0(%rbp),%rax
   17b7d:	48 89 85 08 fa ff ff 	mov    %rax,-0x5f8(%rbp)
   17b84:	48 c7 85 10 fa ff ff 	movq   $0x0,-0x5f0(%rbp)
   17b8b:	00 00 00 00 
   17b8f:	48 8d 85 14 e6 ff ff 	lea    -0x19ec(%rbp),%rax
   17b96:	48 89 85 18 fa ff ff 	mov    %rax,-0x5e8(%rbp)
   17b9d:	48 8d 85 08 e6 ff ff 	lea    -0x19f8(%rbp),%rax
   17ba4:	48 89 85 20 fa ff ff 	mov    %rax,-0x5e0(%rbp)
   17bab:	48 8d 85 70 ea ff ff 	lea    -0x1590(%rbp),%rax
   17bb2:	48 83 c0 04          	add    $0x4,%rax
   17bb6:	48 89 85 28 fa ff ff 	mov    %rax,-0x5d8(%rbp)
   17bbd:	48 8d 85 00 e6 ff ff 	lea    -0x1a00(%rbp),%rax
   17bc4:	48 89 85 30 fa ff ff 	mov    %rax,-0x5d0(%rbp)
   17bcb:	48 8d 05 52 b4 00 00 	lea    0xb452(%rip),%rax        # 23024 <g_18>
   17bd2:	48 89 85 38 fa ff ff 	mov    %rax,-0x5c8(%rbp)
   17bd9:	48 8d 85 70 ea ff ff 	lea    -0x1590(%rbp),%rax
   17be0:	48 83 c0 04          	add    $0x4,%rax
   17be4:	48 89 85 40 fa ff ff 	mov    %rax,-0x5c0(%rbp)
   17beb:	48 8d 05 32 b4 00 00 	lea    0xb432(%rip),%rax        # 23024 <g_18>
   17bf2:	48 89 85 48 fa ff ff 	mov    %rax,-0x5b8(%rbp)
   17bf9:	48 8d 85 08 e6 ff ff 	lea    -0x19f8(%rbp),%rax
   17c00:	48 89 85 50 fa ff ff 	mov    %rax,-0x5b0(%rbp)
   17c07:	48 8d 85 ec e5 ff ff 	lea    -0x1a14(%rbp),%rax
   17c0e:	48 89 85 58 fa ff ff 	mov    %rax,-0x5a8(%rbp)
   17c15:	48 8d 85 f4 e5 ff ff 	lea    -0x1a0c(%rbp),%rax
   17c1c:	48 89 85 60 fa ff ff 	mov    %rax,-0x5a0(%rbp)
   17c23:	48 8d 05 fa b3 00 00 	lea    0xb3fa(%rip),%rax        # 23024 <g_18>
   17c2a:	48 89 85 68 fa ff ff 	mov    %rax,-0x598(%rbp)
   17c31:	48 c7 85 70 fa ff ff 	movq   $0x0,-0x590(%rbp)
   17c38:	00 00 00 00 
   17c3c:	48 c7 85 78 fa ff ff 	movq   $0x0,-0x588(%rbp)
   17c43:	00 00 00 00 
   17c47:	48 c7 85 80 fa ff ff 	movq   $0x0,-0x580(%rbp)
   17c4e:	00 00 00 00 
   17c52:	48 8d 85 70 ea ff ff 	lea    -0x1590(%rbp),%rax
   17c59:	48 89 85 88 fa ff ff 	mov    %rax,-0x578(%rbp)
   17c60:	48 8d 85 00 e6 ff ff 	lea    -0x1a00(%rbp),%rax
   17c67:	48 89 85 90 fa ff ff 	mov    %rax,-0x570(%rbp)
   17c6e:	48 8d 85 ec e5 ff ff 	lea    -0x1a14(%rbp),%rax
   17c75:	48 89 85 98 fa ff ff 	mov    %rax,-0x568(%rbp)
   17c7c:	48 8d 05 ad b3 00 00 	lea    0xb3ad(%rip),%rax        # 23030 <g_46>
   17c83:	48 89 85 a0 fa ff ff 	mov    %rax,-0x560(%rbp)
   17c8a:	48 c7 85 a8 fa ff ff 	movq   $0x0,-0x558(%rbp)
   17c91:	00 00 00 00 
   17c95:	48 8d 85 04 e6 ff ff 	lea    -0x19fc(%rbp),%rax
   17c9c:	48 89 85 b0 fa ff ff 	mov    %rax,-0x550(%rbp)
   17ca3:	48 c7 85 b8 fa ff ff 	movq   $0x0,-0x548(%rbp)
   17caa:	00 00 00 00 
   17cae:	48 c7 85 c0 fa ff ff 	movq   $0x0,-0x540(%rbp)
   17cb5:	00 00 00 00 
   17cb9:	48 8d 85 04 e6 ff ff 	lea    -0x19fc(%rbp),%rax
   17cc0:	48 89 85 c8 fa ff ff 	mov    %rax,-0x538(%rbp)
   17cc7:	48 8d 85 10 e6 ff ff 	lea    -0x19f0(%rbp),%rax
   17cce:	48 89 85 d0 fa ff ff 	mov    %rax,-0x530(%rbp)
   17cd5:	48 8d 85 10 e6 ff ff 	lea    -0x19f0(%rbp),%rax
   17cdc:	48 89 85 d8 fa ff ff 	mov    %rax,-0x528(%rbp)
   17ce3:	48 8d 05 46 b3 00 00 	lea    0xb346(%rip),%rax        # 23030 <g_46>
   17cea:	48 89 85 e0 fa ff ff 	mov    %rax,-0x520(%rbp)
   17cf1:	48 8d 85 0c e6 ff ff 	lea    -0x19f4(%rbp),%rax
   17cf8:	48 89 85 e8 fa ff ff 	mov    %rax,-0x518(%rbp)
   17cff:	48 c7 85 f0 fa ff ff 	movq   $0x0,-0x510(%rbp)
   17d06:	00 00 00 00 
   17d0a:	48 8d 85 14 e6 ff ff 	lea    -0x19ec(%rbp),%rax
   17d11:	48 89 85 f8 fa ff ff 	mov    %rax,-0x508(%rbp)
   17d18:	48 8d 85 10 e6 ff ff 	lea    -0x19f0(%rbp),%rax
   17d1f:	48 89 85 00 fb ff ff 	mov    %rax,-0x500(%rbp)
   17d26:	48 8d 85 08 e6 ff ff 	lea    -0x19f8(%rbp),%rax
   17d2d:	48 89 85 08 fb ff ff 	mov    %rax,-0x4f8(%rbp)
   17d34:	48 8d 05 e9 b2 00 00 	lea    0xb2e9(%rip),%rax        # 23024 <g_18>
   17d3b:	48 89 85 10 fb ff ff 	mov    %rax,-0x4f0(%rbp)
   17d42:	48 8d 85 04 e6 ff ff 	lea    -0x19fc(%rbp),%rax
   17d49:	48 89 85 18 fb ff ff 	mov    %rax,-0x4e8(%rbp)
   17d50:	48 8d 85 0c e6 ff ff 	lea    -0x19f4(%rbp),%rax
   17d57:	48 89 85 20 fb ff ff 	mov    %rax,-0x4e0(%rbp)
   17d5e:	48 8d 85 08 e6 ff ff 	lea    -0x19f8(%rbp),%rax
   17d65:	48 89 85 28 fb ff ff 	mov    %rax,-0x4d8(%rbp)
   17d6c:	48 8d 05 bd b2 00 00 	lea    0xb2bd(%rip),%rax        # 23030 <g_46>
   17d73:	48 89 85 30 fb ff ff 	mov    %rax,-0x4d0(%rbp)
   17d7a:	48 8d 85 ec e5 ff ff 	lea    -0x1a14(%rbp),%rax
   17d81:	48 89 85 38 fb ff ff 	mov    %rax,-0x4c8(%rbp)
   17d88:	48 c7 85 40 fb ff ff 	movq   $0x0,-0x4c0(%rbp)
   17d8f:	00 00 00 00 
   17d93:	48 8d 85 04 e6 ff ff 	lea    -0x19fc(%rbp),%rax
   17d9a:	48 89 85 48 fb ff ff 	mov    %rax,-0x4b8(%rbp)
   17da1:	48 8d 85 70 ea ff ff 	lea    -0x1590(%rbp),%rax
   17da8:	48 89 85 50 fb ff ff 	mov    %rax,-0x4b0(%rbp)
   17daf:	48 8d 85 04 e6 ff ff 	lea    -0x19fc(%rbp),%rax
   17db6:	48 89 85 58 fb ff ff 	mov    %rax,-0x4a8(%rbp)
   17dbd:	48 c7 85 60 fb ff ff 	movq   $0x0,-0x4a0(%rbp)
   17dc4:	00 00 00 00 
   17dc8:	48 8d 85 04 e6 ff ff 	lea    -0x19fc(%rbp),%rax
   17dcf:	48 89 85 68 fb ff ff 	mov    %rax,-0x498(%rbp)
   17dd6:	48 c7 85 70 fb ff ff 	movq   $0x0,-0x490(%rbp)
   17ddd:	00 00 00 00 
   17de1:	48 8d 05 3c b2 00 00 	lea    0xb23c(%rip),%rax        # 23024 <g_18>
   17de8:	48 89 85 78 fb ff ff 	mov    %rax,-0x488(%rbp)
   17def:	48 8d 85 14 e6 ff ff 	lea    -0x19ec(%rbp),%rax
   17df6:	48 89 85 80 fb ff ff 	mov    %rax,-0x480(%rbp)
   17dfd:	48 8d 85 50 ea ff ff 	lea    -0x15b0(%rbp),%rax
   17e04:	48 89 85 88 fb ff ff 	mov    %rax,-0x478(%rbp)
   17e0b:	48 c7 85 90 fb ff ff 	movq   $0x0,-0x470(%rbp)
   17e12:	00 00 00 00 
   17e16:	48 8d 85 10 e6 ff ff 	lea    -0x19f0(%rbp),%rax
   17e1d:	48 89 85 98 fb ff ff 	mov    %rax,-0x468(%rbp)
   17e24:	48 8d 85 00 e6 ff ff 	lea    -0x1a00(%rbp),%rax
   17e2b:	48 89 85 a0 fb ff ff 	mov    %rax,-0x460(%rbp)
   17e32:	48 8d 85 50 ea ff ff 	lea    -0x15b0(%rbp),%rax
   17e39:	48 83 c0 0c          	add    $0xc,%rax
   17e3d:	48 89 85 a8 fb ff ff 	mov    %rax,-0x458(%rbp)
   17e44:	48 8d 85 0c e6 ff ff 	lea    -0x19f4(%rbp),%rax
   17e4b:	48 89 85 b0 fb ff ff 	mov    %rax,-0x450(%rbp)
   17e52:	48 8d 85 50 ea ff ff 	lea    -0x15b0(%rbp),%rax
   17e59:	48 83 c0 0c          	add    $0xc,%rax
   17e5d:	48 89 85 b8 fb ff ff 	mov    %rax,-0x448(%rbp)
   17e64:	48 8d 85 fc e5 ff ff 	lea    -0x1a04(%rbp),%rax
   17e6b:	48 89 85 c0 fb ff ff 	mov    %rax,-0x440(%rbp)
   17e72:	48 8d 85 70 ea ff ff 	lea    -0x1590(%rbp),%rax
   17e79:	48 83 c0 04          	add    $0x4,%rax
   17e7d:	48 89 85 c8 fb ff ff 	mov    %rax,-0x438(%rbp)
   17e84:	48 8d 85 70 ea ff ff 	lea    -0x1590(%rbp),%rax
   17e8b:	48 83 c0 04          	add    $0x4,%rax
   17e8f:	48 89 85 d0 fb ff ff 	mov    %rax,-0x430(%rbp)
   17e96:	48 8d 85 fc e5 ff ff 	lea    -0x1a04(%rbp),%rax
   17e9d:	48 89 85 d8 fb ff ff 	mov    %rax,-0x428(%rbp)
   17ea4:	48 8d 85 70 ea ff ff 	lea    -0x1590(%rbp),%rax
   17eab:	48 83 c0 18          	add    $0x18,%rax
   17eaf:	48 89 85 e0 fb ff ff 	mov    %rax,-0x420(%rbp)
   17eb6:	48 c7 85 e8 fb ff ff 	movq   $0x0,-0x418(%rbp)
   17ebd:	00 00 00 00 
   17ec1:	48 c7 85 f0 fb ff ff 	movq   $0x0,-0x410(%rbp)
   17ec8:	00 00 00 00 
   17ecc:	48 c7 85 f8 fb ff ff 	movq   $0x0,-0x408(%rbp)
   17ed3:	00 00 00 00 
   17ed7:	48 8d 85 08 e6 ff ff 	lea    -0x19f8(%rbp),%rax
   17ede:	48 89 85 00 fc ff ff 	mov    %rax,-0x400(%rbp)
   17ee5:	48 8d 85 50 ea ff ff 	lea    -0x15b0(%rbp),%rax
   17eec:	48 83 c0 0c          	add    $0xc,%rax
   17ef0:	48 89 85 08 fc ff ff 	mov    %rax,-0x3f8(%rbp)
   17ef7:	48 8d 85 10 e6 ff ff 	lea    -0x19f0(%rbp),%rax
   17efe:	48 89 85 10 fc ff ff 	mov    %rax,-0x3f0(%rbp)
   17f05:	48 8d 85 f0 e5 ff ff 	lea    -0x1a10(%rbp),%rax
   17f0c:	48 89 85 18 fc ff ff 	mov    %rax,-0x3e8(%rbp)
   17f13:	48 8d 85 14 e6 ff ff 	lea    -0x19ec(%rbp),%rax
   17f1a:	48 89 85 20 fc ff ff 	mov    %rax,-0x3e0(%rbp)
   17f21:	48 8d 85 0c e6 ff ff 	lea    -0x19f4(%rbp),%rax
   17f28:	48 89 85 28 fc ff ff 	mov    %rax,-0x3d8(%rbp)
   17f2f:	48 8d 85 f0 e5 ff ff 	lea    -0x1a10(%rbp),%rax
   17f36:	48 89 85 30 fc ff ff 	mov    %rax,-0x3d0(%rbp)
   17f3d:	48 8d 05 e0 b0 00 00 	lea    0xb0e0(%rip),%rax        # 23024 <g_18>
   17f44:	48 89 85 38 fc ff ff 	mov    %rax,-0x3c8(%rbp)
   17f4b:	48 8d 85 14 e6 ff ff 	lea    -0x19ec(%rbp),%rax
   17f52:	48 89 85 40 fc ff ff 	mov    %rax,-0x3c0(%rbp)
   17f59:	48 c7 85 48 fc ff ff 	movq   $0x0,-0x3b8(%rbp)
   17f60:	00 00 00 00 
   17f64:	48 8d 85 10 e6 ff ff 	lea    -0x19f0(%rbp),%rax
   17f6b:	48 89 85 50 fc ff ff 	mov    %rax,-0x3b0(%rbp)
   17f72:	48 8d 85 0c e6 ff ff 	lea    -0x19f4(%rbp),%rax
   17f79:	48 89 85 58 fc ff ff 	mov    %rax,-0x3a8(%rbp)
   17f80:	48 c7 85 60 fc ff ff 	movq   $0x0,-0x3a0(%rbp)
   17f87:	00 00 00 00 
   17f8b:	48 8d 85 04 e6 ff ff 	lea    -0x19fc(%rbp),%rax
   17f92:	48 89 85 68 fc ff ff 	mov    %rax,-0x398(%rbp)
   17f99:	48 8d 85 ec e5 ff ff 	lea    -0x1a14(%rbp),%rax
   17fa0:	48 89 85 70 fc ff ff 	mov    %rax,-0x390(%rbp)
   17fa7:	48 8d 85 08 e6 ff ff 	lea    -0x19f8(%rbp),%rax
   17fae:	48 89 85 78 fc ff ff 	mov    %rax,-0x388(%rbp)
   17fb5:	48 c7 85 80 fc ff ff 	movq   $0x0,-0x380(%rbp)
   17fbc:	00 00 00 00 
   17fc0:	48 8d 85 04 e6 ff ff 	lea    -0x19fc(%rbp),%rax
   17fc7:	48 89 85 88 fc ff ff 	mov    %rax,-0x378(%rbp)
   17fce:	48 8d 05 5b b0 00 00 	lea    0xb05b(%rip),%rax        # 23030 <g_46>
   17fd5:	48 89 85 90 fc ff ff 	mov    %rax,-0x370(%rbp)
   17fdc:	48 8d 85 50 ea ff ff 	lea    -0x15b0(%rbp),%rax
   17fe3:	48 83 c0 0c          	add    $0xc,%rax
   17fe7:	48 89 85 98 fc ff ff 	mov    %rax,-0x368(%rbp)
   17fee:	48 c7 85 a0 fc ff ff 	movq   $0x0,-0x360(%rbp)
   17ff5:	00 00 00 00 
   17ff9:	48 8d 85 0c e6 ff ff 	lea    -0x19f4(%rbp),%rax
   18000:	48 89 85 a8 fc ff ff 	mov    %rax,-0x358(%rbp)
   18007:	48 c7 85 b0 fc ff ff 	movq   $0x0,-0x350(%rbp)
   1800e:	00 00 00 00 
   18012:	48 8d 85 70 ea ff ff 	lea    -0x1590(%rbp),%rax
   18019:	48 83 c0 18          	add    $0x18,%rax
   1801d:	48 89 85 b8 fc ff ff 	mov    %rax,-0x348(%rbp)
   18024:	48 8d 85 70 ea ff ff 	lea    -0x1590(%rbp),%rax
   1802b:	48 83 c0 04          	add    $0x4,%rax
   1802f:	48 89 85 c0 fc ff ff 	mov    %rax,-0x340(%rbp)
   18036:	48 8d 85 0c e6 ff ff 	lea    -0x19f4(%rbp),%rax
   1803d:	48 89 85 c8 fc ff ff 	mov    %rax,-0x338(%rbp)
   18044:	48 8d 85 14 e6 ff ff 	lea    -0x19ec(%rbp),%rax
   1804b:	48 89 85 d0 fc ff ff 	mov    %rax,-0x330(%rbp)
   18052:	48 8d 85 08 e6 ff ff 	lea    -0x19f8(%rbp),%rax
   18059:	48 89 85 d8 fc ff ff 	mov    %rax,-0x328(%rbp)
   18060:	48 c7 85 e0 fc ff ff 	movq   $0x0,-0x320(%rbp)
   18067:	00 00 00 00 
   1806b:	48 c7 85 e8 fc ff ff 	movq   $0x0,-0x318(%rbp)
   18072:	00 00 00 00 
   18076:	48 8d 85 0c e6 ff ff 	lea    -0x19f4(%rbp),%rax
   1807d:	48 89 85 f0 fc ff ff 	mov    %rax,-0x310(%rbp)
   18084:	48 8d 05 a5 af 00 00 	lea    0xafa5(%rip),%rax        # 23030 <g_46>
   1808b:	48 89 85 f8 fc ff ff 	mov    %rax,-0x308(%rbp)
   18092:	48 8d 05 97 af 00 00 	lea    0xaf97(%rip),%rax        # 23030 <g_46>
   18099:	48 89 85 00 fd ff ff 	mov    %rax,-0x300(%rbp)
   180a0:	48 8d 85 04 e6 ff ff 	lea    -0x19fc(%rbp),%rax
   180a7:	48 89 85 08 fd ff ff 	mov    %rax,-0x2f8(%rbp)
   180ae:	48 8d 05 6f af 00 00 	lea    0xaf6f(%rip),%rax        # 23024 <g_18>
   180b5:	48 89 85 10 fd ff ff 	mov    %rax,-0x2f0(%rbp)
   180bc:	48 c7 85 18 fd ff ff 	movq   $0x0,-0x2e8(%rbp)
   180c3:	00 00 00 00 
   180c7:	48 c7 85 20 fd ff ff 	movq   $0x0,-0x2e0(%rbp)
   180ce:	00 00 00 00 
   180d2:	48 8d 85 08 e6 ff ff 	lea    -0x19f8(%rbp),%rax
   180d9:	48 89 85 28 fd ff ff 	mov    %rax,-0x2d8(%rbp)
   180e0:	48 c7 85 30 fd ff ff 	movq   $0x0,-0x2d0(%rbp)
   180e7:	00 00 00 00 
   180eb:	48 8d 85 04 e6 ff ff 	lea    -0x19fc(%rbp),%rax
   180f2:	48 89 85 38 fd ff ff 	mov    %rax,-0x2c8(%rbp)
   180f9:	48 8d 05 24 af 00 00 	lea    0xaf24(%rip),%rax        # 23024 <g_18>
   18100:	48 89 85 40 fd ff ff 	mov    %rax,-0x2c0(%rbp)
   18107:	48 8d 85 14 e6 ff ff 	lea    -0x19ec(%rbp),%rax
   1810e:	48 89 85 48 fd ff ff 	mov    %rax,-0x2b8(%rbp)
   18115:	48 8d 85 10 e6 ff ff 	lea    -0x19f0(%rbp),%rax
   1811c:	48 89 85 50 fd ff ff 	mov    %rax,-0x2b0(%rbp)
   18123:	48 8d 85 70 ea ff ff 	lea    -0x1590(%rbp),%rax
   1812a:	48 83 c0 18          	add    $0x18,%rax
   1812e:	48 89 85 58 fd ff ff 	mov    %rax,-0x2a8(%rbp)
   18135:	48 c7 85 60 fd ff ff 	movq   $0x0,-0x2a0(%rbp)
   1813c:	00 00 00 00 
   18140:	48 c7 85 68 fd ff ff 	movq   $0x0,-0x298(%rbp)
   18147:	00 00 00 00 
   1814b:	48 8d 85 f0 e5 ff ff 	lea    -0x1a10(%rbp),%rax
   18152:	48 89 85 70 fd ff ff 	mov    %rax,-0x290(%rbp)
   18159:	48 8d 85 10 e6 ff ff 	lea    -0x19f0(%rbp),%rax
   18160:	48 89 85 78 fd ff ff 	mov    %rax,-0x288(%rbp)
   18167:	48 8d 85 00 e6 ff ff 	lea    -0x1a00(%rbp),%rax
   1816e:	48 89 85 80 fd ff ff 	mov    %rax,-0x280(%rbp)
   18175:	48 c7 85 88 fd ff ff 	movq   $0x0,-0x278(%rbp)
   1817c:	00 00 00 00 
   18180:	48 8d 05 9d ae 00 00 	lea    0xae9d(%rip),%rax        # 23024 <g_18>
   18187:	48 89 85 90 fd ff ff 	mov    %rax,-0x270(%rbp)
   1818e:	48 8d 85 50 ea ff ff 	lea    -0x15b0(%rbp),%rax
   18195:	48 89 85 98 fd ff ff 	mov    %rax,-0x268(%rbp)
   1819c:	48 8d 05 8d ae 00 00 	lea    0xae8d(%rip),%rax        # 23030 <g_46>
   181a3:	48 89 85 a0 fd ff ff 	mov    %rax,-0x260(%rbp)
   181aa:	48 8d 85 fc e5 ff ff 	lea    -0x1a04(%rbp),%rax
   181b1:	48 89 85 a8 fd ff ff 	mov    %rax,-0x258(%rbp)
   181b8:	48 8d 05 71 ae 00 00 	lea    0xae71(%rip),%rax        # 23030 <g_46>
   181bf:	48 89 85 b0 fd ff ff 	mov    %rax,-0x250(%rbp)
   181c6:	48 8d 85 70 ea ff ff 	lea    -0x1590(%rbp),%rax
   181cd:	48 83 c0 20          	add    $0x20,%rax
   181d1:	48 89 85 b8 fd ff ff 	mov    %rax,-0x248(%rbp)
   181d8:	48 8d 05 45 ae 00 00 	lea    0xae45(%rip),%rax        # 23024 <g_18>
   181df:	48 89 85 c0 fd ff ff 	mov    %rax,-0x240(%rbp)
   181e6:	48 8d 85 ec e5 ff ff 	lea    -0x1a14(%rbp),%rax
   181ed:	48 89 85 c8 fd ff ff 	mov    %rax,-0x238(%rbp)
   181f4:	48 8d 85 70 ea ff ff 	lea    -0x1590(%rbp),%rax
   181fb:	48 83 c0 18          	add    $0x18,%rax
   181ff:	48 89 85 d0 fd ff ff 	mov    %rax,-0x230(%rbp)
   18206:	48 8d 85 70 ea ff ff 	lea    -0x1590(%rbp),%rax
   1820d:	48 83 c0 04          	add    $0x4,%rax
   18211:	48 89 85 d8 fd ff ff 	mov    %rax,-0x228(%rbp)
   18218:	48 c7 85 e0 fd ff ff 	movq   $0x0,-0x220(%rbp)
   1821f:	00 00 00 00 
   18223:	48 8d 05 fa ad 00 00 	lea    0xadfa(%rip),%rax        # 23024 <g_18>
   1822a:	48 89 85 e8 fd ff ff 	mov    %rax,-0x218(%rbp)
   18231:	48 8d 85 0c e6 ff ff 	lea    -0x19f4(%rbp),%rax
   18238:	48 89 85 f0 fd ff ff 	mov    %rax,-0x210(%rbp)
   1823f:	48 8d 85 f0 e5 ff ff 	lea    -0x1a10(%rbp),%rax
   18246:	48 89 85 f8 fd ff ff 	mov    %rax,-0x208(%rbp)
   1824d:	48 8d 85 04 e6 ff ff 	lea    -0x19fc(%rbp),%rax
   18254:	48 89 85 00 fe ff ff 	mov    %rax,-0x200(%rbp)
   1825b:	48 8d 85 70 ea ff ff 	lea    -0x1590(%rbp),%rax
   18262:	48 83 c0 04          	add    $0x4,%rax
   18266:	48 89 85 08 fe ff ff 	mov    %rax,-0x1f8(%rbp)
   1826d:	48 8d 85 04 e6 ff ff 	lea    -0x19fc(%rbp),%rax
   18274:	48 89 85 10 fe ff ff 	mov    %rax,-0x1f0(%rbp)
   1827b:	48 8d 85 f0 e5 ff ff 	lea    -0x1a10(%rbp),%rax
   18282:	48 89 85 18 fe ff ff 	mov    %rax,-0x1e8(%rbp)
   18289:	48 8d 85 0c e6 ff ff 	lea    -0x19f4(%rbp),%rax
   18290:	48 89 85 20 fe ff ff 	mov    %rax,-0x1e0(%rbp)
   18297:	48 8d 05 92 ad 00 00 	lea    0xad92(%rip),%rax        # 23030 <g_46>
   1829e:	48 89 85 28 fe ff ff 	mov    %rax,-0x1d8(%rbp)
   182a5:	48 c7 85 30 fe ff ff 	movq   $0x0,-0x1d0(%rbp)
   182ac:	00 00 00 00 
   182b0:	48 8d 85 fc e5 ff ff 	lea    -0x1a04(%rbp),%rax
   182b7:	48 89 85 38 fe ff ff 	mov    %rax,-0x1c8(%rbp)
   182be:	48 c7 85 40 fe ff ff 	movq   $0x0,-0x1c0(%rbp)
   182c5:	00 00 00 00 
   182c9:	48 8d 85 10 e6 ff ff 	lea    -0x19f0(%rbp),%rax
   182d0:	48 89 85 48 fe ff ff 	mov    %rax,-0x1b8(%rbp)
   182d7:	48 8d 85 50 ea ff ff 	lea    -0x15b0(%rbp),%rax
   182de:	48 89 85 50 fe ff ff 	mov    %rax,-0x1b0(%rbp)
   182e5:	48 8d 85 70 ea ff ff 	lea    -0x1590(%rbp),%rax
   182ec:	48 83 c0 04          	add    $0x4,%rax
   182f0:	48 89 85 58 fe ff ff 	mov    %rax,-0x1a8(%rbp)
   182f7:	48 8d 85 14 e6 ff ff 	lea    -0x19ec(%rbp),%rax
   182fe:	48 89 85 60 fe ff ff 	mov    %rax,-0x1a0(%rbp)
   18305:	48 8d 85 10 e6 ff ff 	lea    -0x19f0(%rbp),%rax
   1830c:	48 89 85 68 fe ff ff 	mov    %rax,-0x198(%rbp)
   18313:	48 c7 85 70 fe ff ff 	movq   $0x0,-0x190(%rbp)
   1831a:	00 00 00 00 
   1831e:	48 8d 85 ec e5 ff ff 	lea    -0x1a14(%rbp),%rax
   18325:	48 89 85 78 fe ff ff 	mov    %rax,-0x188(%rbp)
   1832c:	48 8d 85 f0 e5 ff ff 	lea    -0x1a10(%rbp),%rax
   18333:	48 89 85 80 fe ff ff 	mov    %rax,-0x180(%rbp)
   1833a:	48 8d 85 04 e6 ff ff 	lea    -0x19fc(%rbp),%rax
   18341:	48 89 85 88 fe ff ff 	mov    %rax,-0x178(%rbp)
   18348:	48 8d 85 0c e6 ff ff 	lea    -0x19f4(%rbp),%rax
   1834f:	48 89 85 90 fe ff ff 	mov    %rax,-0x170(%rbp)
   18356:	48 8d 05 c7 ac 00 00 	lea    0xacc7(%rip),%rax        # 23024 <g_18>
   1835d:	48 89 85 98 fe ff ff 	mov    %rax,-0x168(%rbp)
   18364:	48 c7 85 a0 fe ff ff 	movq   $0x0,-0x160(%rbp)
   1836b:	00 00 00 00 
   1836f:	48 8d 85 fc e5 ff ff 	lea    -0x1a04(%rbp),%rax
   18376:	48 89 85 a8 fe ff ff 	mov    %rax,-0x158(%rbp)
   1837d:	48 8d 85 50 ea ff ff 	lea    -0x15b0(%rbp),%rax
   18384:	48 83 c0 0c          	add    $0xc,%rax
   18388:	48 89 85 b0 fe ff ff 	mov    %rax,-0x150(%rbp)
   1838f:	48 8d 85 70 ea ff ff 	lea    -0x1590(%rbp),%rax
   18396:	48 83 c0 18          	add    $0x18,%rax
   1839a:	48 89 85 b8 fe ff ff 	mov    %rax,-0x148(%rbp)
   183a1:	48 c7 85 c0 fe ff ff 	movq   $0x0,-0x140(%rbp)
   183a8:	00 00 00 00 
   183ac:	48 8d 85 0c e6 ff ff 	lea    -0x19f4(%rbp),%rax
   183b3:	48 89 85 c8 fe ff ff 	mov    %rax,-0x138(%rbp)
   183ba:	48 8d 85 08 e6 ff ff 	lea    -0x19f8(%rbp),%rax
   183c1:	48 89 85 d0 fe ff ff 	mov    %rax,-0x130(%rbp)
   183c8:	48 c7 85 d8 fe ff ff 	movq   $0x0,-0x128(%rbp)
   183cf:	00 00 00 00 
   183d3:	48 8d 85 04 e6 ff ff 	lea    -0x19fc(%rbp),%rax
   183da:	48 89 85 e0 fe ff ff 	mov    %rax,-0x120(%rbp)
   183e1:	48 8d 05 48 ac 00 00 	lea    0xac48(%rip),%rax        # 23030 <g_46>
   183e8:	48 89 85 e8 fe ff ff 	mov    %rax,-0x118(%rbp)
   183ef:	48 8d 85 50 ea ff ff 	lea    -0x15b0(%rbp),%rax
   183f6:	48 83 c0 0c          	add    $0xc,%rax
   183fa:	48 89 85 f0 fe ff ff 	mov    %rax,-0x110(%rbp)
   18401:	48 8d 85 14 e6 ff ff 	lea    -0x19ec(%rbp),%rax
   18408:	48 89 85 f8 fe ff ff 	mov    %rax,-0x108(%rbp)
   1840f:	48 8d 05 1a ac 00 00 	lea    0xac1a(%rip),%rax        # 23030 <g_46>
   18416:	48 89 85 00 ff ff ff 	mov    %rax,-0x100(%rbp)
   1841d:	48 8d 85 00 e6 ff ff 	lea    -0x1a00(%rbp),%rax
   18424:	48 89 85 08 ff ff ff 	mov    %rax,-0xf8(%rbp)
   1842b:	48 c7 85 10 ff ff ff 	movq   $0x0,-0xf0(%rbp)
   18432:	00 00 00 00 
   18436:	48 8d 85 ec e5 ff ff 	lea    -0x1a14(%rbp),%rax
   1843d:	48 89 85 18 ff ff ff 	mov    %rax,-0xe8(%rbp)
   18444:	48 8d 05 e5 ab 00 00 	lea    0xabe5(%rip),%rax        # 23030 <g_46>
   1844b:	48 89 85 20 ff ff ff 	mov    %rax,-0xe0(%rbp)
   18452:	48 c7 85 28 ff ff ff 	movq   $0x0,-0xd8(%rbp)
   18459:	00 00 00 00 
   1845d:	48 c7 85 30 ff ff ff 	movq   $0x0,-0xd0(%rbp)
   18464:	00 00 00 00 
   18468:	48 8d 05 c1 ab 00 00 	lea    0xabc1(%rip),%rax        # 23030 <g_46>
   1846f:	48 89 85 38 ff ff ff 	mov    %rax,-0xc8(%rbp)
   18476:	48 8d 85 70 ea ff ff 	lea    -0x1590(%rbp),%rax
   1847d:	48 83 c0 04          	add    $0x4,%rax
   18481:	48 89 85 40 ff ff ff 	mov    %rax,-0xc0(%rbp)
   18488:	48 8d 85 fc e5 ff ff 	lea    -0x1a04(%rbp),%rax
   1848f:	48 89 85 48 ff ff ff 	mov    %rax,-0xb8(%rbp)
   18496:	48 8d 05 87 ab 00 00 	lea    0xab87(%rip),%rax        # 23024 <g_18>
   1849d:	48 89 85 50 ff ff ff 	mov    %rax,-0xb0(%rbp)
   184a4:	48 8d 85 08 e6 ff ff 	lea    -0x19f8(%rbp),%rax
   184ab:	48 89 85 58 ff ff ff 	mov    %rax,-0xa8(%rbp)
   184b2:	48 8d 85 ec e5 ff ff 	lea    -0x1a14(%rbp),%rax
   184b9:	48 89 85 60 ff ff ff 	mov    %rax,-0xa0(%rbp)
   184c0:	48 8d 85 04 e6 ff ff 	lea    -0x19fc(%rbp),%rax
   184c7:	48 89 85 68 ff ff ff 	mov    %rax,-0x98(%rbp)
   184ce:	48 c7 85 70 ff ff ff 	movq   $0x0,-0x90(%rbp)
   184d5:	00 00 00 00 
   184d9:	48 8d 05 44 ab 00 00 	lea    0xab44(%rip),%rax        # 23024 <g_18>
   184e0:	48 89 85 78 ff ff ff 	mov    %rax,-0x88(%rbp)
   184e7:	48 8d 85 70 ea ff ff 	lea    -0x1590(%rbp),%rax
   184ee:	48 83 c0 18          	add    $0x18,%rax
   184f2:	48 89 45 80          	mov    %rax,-0x80(%rbp)
   184f6:	48 8d 85 70 ea ff ff 	lea    -0x1590(%rbp),%rax
   184fd:	48 83 c0 18          	add    $0x18,%rax
   18501:	48 89 45 88          	mov    %rax,-0x78(%rbp)
   18505:	48 8d 05 24 ab 00 00 	lea    0xab24(%rip),%rax        # 23030 <g_46>
   1850c:	48 89 45 90          	mov    %rax,-0x70(%rbp)
   18510:	48 8d 85 10 e6 ff ff 	lea    -0x19f0(%rbp),%rax
   18517:	48 89 45 98          	mov    %rax,-0x68(%rbp)
   1851b:	48 c7 45 a0 00 00 00 	movq   $0x0,-0x60(%rbp)
   18522:	00 
   18523:	48 8d 85 08 e6 ff ff 	lea    -0x19f8(%rbp),%rax
   1852a:	48 89 45 a8          	mov    %rax,-0x58(%rbp)
   1852e:	48 c7 05 b7 ab 00 00 	movq   $0x0,0xabb7(%rip)        # 230f0 <g_344>
   18535:	00 00 00 00 
   18539:	90                   	nop
   1853a:	48 8b 05 af ab 00 00 	mov    0xabaf(%rip),%rax        # 230f0 <g_344>
   18541:	48 83 f8 2c          	cmp    $0x2c,%rax
   18545:	75 1e                	jne    18565 <func_32+0x432c>
   18547:	48 8d 85 70 ea ff ff 	lea    -0x1590(%rbp),%rax
   1854e:	48 83 c0 18          	add    $0x18,%rax
   18552:	48 89 85 b0 e8 ff ff 	mov    %rax,-0x1750(%rbp)
   18559:	48 8b 85 e8 e7 ff ff 	mov    -0x1818(%rbp),%rax
   18560:	e9 e6 1a 00 00       	jmpq   1a04b <func_32+0x5e12>
   18565:	66 83 85 de e5 ff ff 	addw   $0x1,-0x1a22(%rbp)
   1856c:	01 
   1856d:	48 8b 85 c8 e7 ff ff 	mov    -0x1838(%rbp),%rax
   18574:	48 8d 95 08 e7 ff ff 	lea    -0x18f8(%rbp),%rdx
   1857b:	48 89 10             	mov    %rdx,(%rax)
   1857e:	48 8b 85 c8 e7 ff ff 	mov    -0x1838(%rbp),%rax
   18585:	48 8b 00             	mov    (%rax),%rax
   18588:	48 89 85 60 e7 ff ff 	mov    %rax,-0x18a0(%rbp)
   1858f:	48 8b 85 c8 e5 ff ff 	mov    -0x1a38(%rbp),%rax
   18596:	48 8b 00             	mov    (%rax),%rax
   18599:	48 89 c2             	mov    %rax,%rdx
   1859c:	48 8b 85 a8 e8 ff ff 	mov    -0x1758(%rbp),%rax
   185a3:	8b 00                	mov    (%rax),%eax
   185a5:	48 98                	cltq   
   185a7:	48 89 d6             	mov    %rdx,%rsi
   185aa:	48 89 c7             	mov    %rax,%rdi
   185ad:	e8 ce 0a ff ff       	callq  9080 <safe_mod_func_uint64_t_u_u>
   185b2:	48 85 c0             	test   %rax,%rax
   185b5:	0f 94 c0             	sete   %al
   185b8:	0f b6 c0             	movzbl %al,%eax
   185bb:	f7 d0                	not    %eax
   185bd:	89 c2                	mov    %eax,%edx
   185bf:	8b 05 13 ae 00 00    	mov    0xae13(%rip),%eax        # 233d8 <g_1182>
   185c5:	09 d0                	or     %edx,%eax
   185c7:	89 05 0b ae 00 00    	mov    %eax,0xae0b(%rip)        # 233d8 <g_1182>
   185cd:	e9 15 02 00 00       	jmpq   187e7 <func_32+0x45ae>
   185d2:	c7 85 cc e6 ff ff 00 	movl   $0x0,-0x1934(%rbp)
   185d9:	00 00 00 
   185dc:	48 c7 85 d0 f7 ff ff 	movq   $0x0,-0x830(%rbp)
   185e3:	00 00 00 00 
   185e7:	48 c7 85 d8 f7 ff ff 	movq   $0x0,-0x828(%rbp)
   185ee:	00 00 00 00 
   185f2:	48 8d 05 af ad 00 00 	lea    0xadaf(%rip),%rax        # 233a8 <g_937>
   185f9:	48 89 85 e0 f7 ff ff 	mov    %rax,-0x820(%rbp)
   18600:	48 c7 85 e8 f7 ff ff 	movq   $0x0,-0x818(%rbp)
   18607:	00 00 00 00 
   1860b:	48 c7 85 f0 f7 ff ff 	movq   $0x0,-0x810(%rbp)
   18612:	00 00 00 00 
   18616:	48 8d 05 8b ad 00 00 	lea    0xad8b(%rip),%rax        # 233a8 <g_937>
   1861d:	48 89 85 f8 f7 ff ff 	mov    %rax,-0x808(%rbp)
   18624:	48 c7 85 00 f8 ff ff 	movq   $0x0,-0x800(%rbp)
   1862b:	00 00 00 00 
   1862f:	48 c7 85 08 f8 ff ff 	movq   $0x0,-0x7f8(%rbp)
   18636:	00 00 00 00 
   1863a:	48 c7 85 10 f8 ff ff 	movq   $0x0,-0x7f0(%rbp)
   18641:	00 00 00 00 
   18645:	48 c7 85 18 f8 ff ff 	movq   $0x0,-0x7e8(%rbp)
   1864c:	00 00 00 00 
   18650:	48 c7 85 20 f8 ff ff 	movq   $0x0,-0x7e0(%rbp)
   18657:	00 00 00 00 
   1865b:	48 c7 85 28 f8 ff ff 	movq   $0x0,-0x7d8(%rbp)
   18662:	00 00 00 00 
   18666:	48 8d 05 3b ad 00 00 	lea    0xad3b(%rip),%rax        # 233a8 <g_937>
   1866d:	48 89 85 30 f8 ff ff 	mov    %rax,-0x7d0(%rbp)
   18674:	48 c7 85 38 f8 ff ff 	movq   $0x0,-0x7c8(%rbp)
   1867b:	00 00 00 00 
   1867f:	48 8d 85 d0 e5 ff ff 	lea    -0x1a30(%rbp),%rax
   18686:	48 89 85 40 f8 ff ff 	mov    %rax,-0x7c0(%rbp)
   1868d:	c7 85 d0 e6 ff ff e5 	movl   $0xb469a4e5,-0x1930(%rbp)
   18694:	a4 69 b4 
   18697:	0f b6 05 b2 aa 00 00 	movzbl 0xaab2(%rip),%eax        # 23150 <g_481+0x30>
   1869e:	0f be d0             	movsbl %al,%edx
   186a1:	8b 05 35 ad 00 00    	mov    0xad35(%rip),%eax        # 233dc <g_1183>
   186a7:	09 d0                	or     %edx,%eax
   186a9:	89 05 2d ad 00 00    	mov    %eax,0xad2d(%rip)        # 233dc <g_1183>
   186af:	8b 15 27 ad 00 00    	mov    0xad27(%rip),%edx        # 233dc <g_1183>
   186b5:	8b 85 cc e6 ff ff    	mov    -0x1934(%rbp),%eax
   186bb:	21 d0                	and    %edx,%eax
   186bd:	89 85 cc e6 ff ff    	mov    %eax,-0x1934(%rbp)
   186c3:	be 0d 00 00 00       	mov    $0xd,%esi
   186c8:	bf 73 35 00 00       	mov    $0x3573,%edi
   186cd:	e8 c0 fd fe ff       	callq  8492 <safe_lshift_func_int16_t_s_s>
   186d2:	66 85 c0             	test   %ax,%ax
   186d5:	0f 84 e1 00 00 00    	je     187bc <func_32+0x4583>
   186db:	48 8b 15 fe a9 00 00 	mov    0xa9fe(%rip),%rdx        # 230e0 <g_256>
   186e2:	48 8b 85 e8 e7 ff ff 	mov    -0x1818(%rbp),%rax
   186e9:	8b 30                	mov    (%rax),%esi
   186eb:	8b 05 bb a9 00 00    	mov    0xa9bb(%rip),%eax        # 230ac <g_194+0xc>
   186f1:	89 c1                	mov    %eax,%ecx
   186f3:	48 8b 85 a0 e7 ff ff 	mov    -0x1860(%rbp),%rax
   186fa:	88 08                	mov    %cl,(%rax)
   186fc:	48 8b 85 a0 e7 ff ff 	mov    -0x1860(%rbp),%rax
   18703:	0f b6 00             	movzbl (%rax),%eax
   18706:	0f b6 c8             	movzbl %al,%ecx
   18709:	48 8b 85 e0 e7 ff ff 	mov    -0x1820(%rbp),%rax
   18710:	8b 38                	mov    (%rax),%edi
   18712:	48 8b 85 c8 e7 ff ff 	mov    -0x1838(%rbp),%rax
   18719:	48 8b 00             	mov    (%rax),%rax
   1871c:	48 85 c0             	test   %rax,%rax
   1871f:	0f 94 c0             	sete   %al
   18722:	0f b6 c0             	movzbl %al,%eax
   18725:	09 c7                	or     %eax,%edi
   18727:	48 8b 85 e0 e7 ff ff 	mov    -0x1820(%rbp),%rax
   1872e:	89 38                	mov    %edi,(%rax)
   18730:	48 8b 85 e0 e7 ff ff 	mov    -0x1820(%rbp),%rax
   18737:	8b 00                	mov    (%rax),%eax
   18739:	83 f8 ff             	cmp    $0xffffffff,%eax
   1873c:	0f 94 c0             	sete   %al
   1873f:	0f b6 c0             	movzbl %al,%eax
   18742:	21 c1                	and    %eax,%ecx
   18744:	48 8b 05 6d a9 00 00 	mov    0xa96d(%rip),%rax        # 230b8 <g_246>
   1874b:	48 83 f8 f6          	cmp    $0xfffffffffffffff6,%rax
   1874f:	0f 96 c0             	setbe  %al
   18752:	0f b6 c0             	movzbl %al,%eax
   18755:	39 c1                	cmp    %eax,%ecx
   18757:	0f 95 c0             	setne  %al
   1875a:	0f b6 c8             	movzbl %al,%ecx
   1875d:	48 8b 85 98 e7 ff ff 	mov    -0x1868(%rbp),%rax
   18764:	66 89 08             	mov    %cx,(%rax)
   18767:	48 8b 85 98 e7 ff ff 	mov    -0x1868(%rbp),%rax
   1876e:	0f b7 00             	movzwl (%rax),%eax
   18771:	0f bf c8             	movswl %ax,%ecx
   18774:	0f b6 05 e2 a8 00 00 	movzbl 0xa8e2(%rip),%eax        # 2305d <g_150>
   1877b:	0f b6 c0             	movzbl %al,%eax
   1877e:	39 c1                	cmp    %eax,%ecx
   18780:	0f 94 c0             	sete   %al
   18783:	0f b6 c0             	movzbl %al,%eax
   18786:	39 c6                	cmp    %eax,%esi
   18788:	0f 94 c0             	sete   %al
   1878b:	0f b6 c0             	movzbl %al,%eax
   1878e:	89 85 d0 e6 ff ff    	mov    %eax,-0x1930(%rbp)
   18794:	8b 85 d0 e6 ff ff    	mov    -0x1930(%rbp),%eax
   1879a:	f7 d0                	not    %eax
   1879c:	48 98                	cltq   
   1879e:	48 89 d6             	mov    %rdx,%rsi
   187a1:	48 89 c7             	mov    %rax,%rdi
   187a4:	e8 ff 00 ff ff       	callq  88a8 <safe_sub_func_int64_t_s_s>
   187a9:	0f b7 05 80 de 00 00 	movzwl 0xde80(%rip),%eax        # 26630 <g_251>
   187b0:	66 85 c0             	test   %ax,%ax
   187b3:	74 07                	je     187bc <func_32+0x4583>
   187b5:	b8 01 00 00 00       	mov    $0x1,%eax
   187ba:	eb 05                	jmp    187c1 <func_32+0x4588>
   187bc:	b8 00 00 00 00       	mov    $0x0,%eax
   187c1:	48 98                	cltq   
   187c3:	48 89 05 6e a8 00 00 	mov    %rax,0xa86e(%rip)        # 23038 <g_84>
   187ca:	48 8b 85 e0 e7 ff ff 	mov    -0x1820(%rbp),%rax
   187d1:	8b 10                	mov    (%rax),%edx
   187d3:	48 8b 85 a8 e8 ff ff 	mov    -0x1758(%rbp),%rax
   187da:	8b 00                	mov    (%rax),%eax
   187dc:	09 c2                	or     %eax,%edx
   187de:	48 8b 85 a8 e8 ff ff 	mov    -0x1758(%rbp),%rax
   187e5:	89 10                	mov    %edx,(%rax)
   187e7:	8b 85 04 e6 ff ff    	mov    -0x19fc(%rbp),%eax
   187ed:	83 c0 01             	add    $0x1,%eax
   187f0:	89 85 04 e6 ff ff    	mov    %eax,-0x19fc(%rbp)
   187f6:	8b 85 04 e6 ff ff    	mov    -0x19fc(%rbp),%eax
   187fc:	83 f8 03             	cmp    $0x3,%eax
   187ff:	0f 8e 06 ef ff ff    	jle    1770b <func_32+0x34d2>
   18805:	48 8b 05 a4 ca 00 00 	mov    0xcaa4(%rip),%rax        # 252b0 <g_432>
   1880c:	0f b6 00             	movzbl (%rax),%eax
   1880f:	0f be d8             	movsbl %al,%ebx
   18812:	48 8b 85 d8 e7 ff ff 	mov    -0x1828(%rbp),%rax
   18819:	8b 00                	mov    (%rax),%eax
   1881b:	98                   	cwtl   
   1881c:	be 00 00 00 00       	mov    $0x0,%esi
   18821:	89 c7                	mov    %eax,%edi
   18823:	e8 8b fb fe ff       	callq  83b3 <safe_add_func_int16_t_s_s>
   18828:	8b 05 26 a8 00 00    	mov    0xa826(%rip),%eax        # 23054 <g_123>
   1882e:	44 0f bf e0          	movswl %ax,%r12d
   18832:	48 8b 05 77 ca 00 00 	mov    0xca77(%rip),%rax        # 252b0 <g_432>
   18839:	0f b6 00             	movzbl (%rax),%eax
   1883c:	44 0f be e8          	movsbl %al,%r13d
   18840:	0f b6 05 a1 a8 00 00 	movzbl 0xa8a1(%rip),%eax        # 230e8 <g_261>
   18847:	4c 0f be f0          	movsbq %al,%r14
   1884b:	48 8b 85 e8 e7 ff ff 	mov    -0x1818(%rbp),%rax
   18852:	44 8b 38             	mov    (%rax),%r15d
   18855:	48 8b 85 e8 e7 ff ff 	mov    -0x1818(%rbp),%rax
   1885c:	8b 00                	mov    (%rax),%eax
   1885e:	98                   	cwtl   
   1885f:	89 85 b8 e5 ff ff    	mov    %eax,-0x1a48(%rbp)
   18865:	be 05 00 00 00       	mov    $0x5,%esi
   1886a:	bf 00 00 00 00       	mov    $0x0,%edi
   1886f:	e8 d4 05 ff ff       	callq  8e48 <safe_rshift_func_uint16_t_u_s>
   18874:	0f b7 d0             	movzwl %ax,%edx
   18877:	48 8b 85 e8 e7 ff ff 	mov    -0x1818(%rbp),%rax
   1887e:	8b 00                	mov    (%rax),%eax
   18880:	48 98                	cltq   
   18882:	48 89 d6             	mov    %rdx,%rsi
   18885:	48 89 c7             	mov    %rax,%rdi
   18888:	e8 be 07 ff ff       	callq  904b <safe_sub_func_uint64_t_u_u>
   1888d:	0f be 8d d3 e5 ff ff 	movsbl -0x1a2d(%rbp),%ecx
   18894:	89 8d b4 e5 ff ff    	mov    %ecx,-0x1a4c(%rbp)
   1889a:	48 8b 85 e0 e7 ff ff 	mov    -0x1820(%rbp),%rax
   188a1:	8b 00                	mov    (%rax),%eax
   188a3:	0f b6 d0             	movzbl %al,%edx
   188a6:	48 8b 85 e0 e7 ff ff 	mov    -0x1820(%rbp),%rax
   188ad:	8b 00                	mov    (%rax),%eax
   188af:	0f b6 8d d2 e5 ff ff 	movzbl -0x1a2e(%rbp),%ecx
   188b6:	f7 d1                	not    %ecx
   188b8:	39 c8                	cmp    %ecx,%eax
   188ba:	0f 9c c0             	setl   %al
   188bd:	0f b6 c0             	movzbl %al,%eax
   188c0:	89 d6                	mov    %edx,%esi
   188c2:	89 c7                	mov    %eax,%edi
   188c4:	e8 ca 02 ff ff       	callq  8b93 <safe_mul_func_uint8_t_u_u>
   188c9:	8b b5 b4 e5 ff ff    	mov    -0x1a4c(%rbp),%esi
   188cf:	bf 01 00 00 00       	mov    $0x1,%edi
   188d4:	e8 7c fb fe ff       	callq  8455 <safe_div_func_int16_t_s_s>
   188d9:	48 8b 05 d8 aa 00 00 	mov    0xaad8(%rip),%rax        # 233b8 <g_999>
   188e0:	98                   	cwtl   
   188e1:	8b b5 b8 e5 ff ff    	mov    -0x1a48(%rbp),%esi
   188e7:	89 c7                	mov    %eax,%edi
   188e9:	e8 07 fb fe ff       	callq  83f5 <safe_mul_func_int16_t_s_s>
   188ee:	0f b7 d0             	movzwl %ax,%edx
   188f1:	48 8b 85 e0 e7 ff ff 	mov    -0x1820(%rbp),%rax
   188f8:	8b 00                	mov    (%rax),%eax
   188fa:	0f b7 c0             	movzwl %ax,%eax
   188fd:	89 d6                	mov    %edx,%esi
   188ff:	89 c7                	mov    %eax,%edi
   18901:	e8 f9 03 ff ff       	callq  8cff <safe_add_func_uint16_t_u_u>
   18906:	0f b7 d0             	movzwl %ax,%edx
   18909:	48 8b 85 e0 e7 ff ff 	mov    -0x1820(%rbp),%rax
   18910:	8b 00                	mov    (%rax),%eax
   18912:	09 d0                	or     %edx,%eax
   18914:	89 c2                	mov    %eax,%edx
   18916:	48 8b 85 f0 e7 ff ff 	mov    -0x1810(%rbp),%rax
   1891d:	89 10                	mov    %edx,(%rax)
   1891f:	48 8b 85 f0 e7 ff ff 	mov    -0x1810(%rbp),%rax
   18926:	8b 10                	mov    (%rax),%edx
   18928:	48 8b 85 f8 e7 ff ff 	mov    -0x1808(%rbp),%rax
   1892f:	89 10                	mov    %edx,(%rax)
   18931:	be 8b 00 00 00       	mov    $0x8b,%esi
   18936:	bf b7 00 00 00       	mov    $0xb7,%edi
   1893b:	e8 38 02 ff ff       	callq  8b78 <safe_sub_func_uint8_t_u_u>
   18940:	48 8b 05 b1 c1 00 00 	mov    0xc1b1(%rip),%rax        # 24af8 <g_108>
   18947:	8b 00                	mov    (%rax),%eax
   18949:	44 89 fe             	mov    %r15d,%esi
   1894c:	89 c7                	mov    %eax,%edi
   1894e:	e8 b2 fc fe ff       	callq  8605 <safe_sub_func_int32_t_s_s>
   18953:	48 8b 85 e0 e7 ff ff 	mov    -0x1820(%rbp),%rax
   1895a:	8b 00                	mov    (%rax),%eax
   1895c:	83 c8 01             	or     $0x1,%eax
   1895f:	89 c2                	mov    %eax,%edx
   18961:	0f be 85 d4 e5 ff ff 	movsbl -0x1a2c(%rbp),%eax
   18968:	39 c2                	cmp    %eax,%edx
   1896a:	0f 9e c0             	setle  %al
   1896d:	0f b6 d0             	movzbl %al,%edx
   18970:	48 8b 85 d8 e7 ff ff 	mov    -0x1828(%rbp),%rax
   18977:	8b 00                	mov    (%rax),%eax
   18979:	09 d0                	or     %edx,%eax
   1897b:	48 98                	cltq   
   1897d:	4c 89 f6             	mov    %r14,%rsi
   18980:	48 89 c7             	mov    %rax,%rdi
   18983:	e8 f8 06 ff ff       	callq  9080 <safe_mod_func_uint64_t_u_u>
   18988:	0f b6 c0             	movzbl %al,%eax
   1898b:	44 89 ee             	mov    %r13d,%esi
   1898e:	89 c7                	mov    %eax,%edi
   18990:	e8 f8 02 ff ff       	callq  8c8d <safe_rshift_func_uint8_t_u_s>
   18995:	0f b6 c0             	movzbl %al,%eax
   18998:	39 85 70 e6 ff ff    	cmp    %eax,-0x1990(%rbp)
   1899e:	0f 92 c0             	setb   %al
   189a1:	0f b6 c0             	movzbl %al,%eax
   189a4:	44 89 e6             	mov    %r12d,%esi
   189a7:	89 c7                	mov    %eax,%edi
   189a9:	e8 68 fa fe ff       	callq  8416 <safe_mod_func_int16_t_s_s>
   189ae:	66 85 c0             	test   %ax,%ax
   189b1:	74 0b                	je     189be <func_32+0x4785>
   189b3:	48 8b 05 46 b9 00 00 	mov    0xb946(%rip),%rax        # 24300 <g_45>
   189ba:	8b 00                	mov    (%rax),%eax
   189bc:	85 c0                	test   %eax,%eax
   189be:	0f b7 05 2b a7 00 00 	movzwl 0xa72b(%rip),%eax        # 230f0 <g_344>
   189c5:	66 85 c0             	test   %ax,%ax
   189c8:	74 0c                	je     189d6 <func_32+0x479d>
   189ca:	48 8b 85 c0 e5 ff ff 	mov    -0x1a40(%rbp),%rax
   189d1:	0f b6 00             	movzbl (%rax),%eax
   189d4:	84 c0                	test   %al,%al
   189d6:	48 8b 85 60 e7 ff ff 	mov    -0x18a0(%rbp),%rax
   189dd:	48 8b 00             	mov    (%rax),%rax
   189e0:	48 85 c0             	test   %rax,%rax
   189e3:	0f 94 c0             	sete   %al
   189e6:	0f b6 d0             	movzbl %al,%edx
   189e9:	0f b7 05 40 dc 00 00 	movzwl 0xdc40(%rip),%eax        # 26630 <g_251>
   189f0:	98                   	cwtl   
   189f1:	39 c2                	cmp    %eax,%edx
   189f3:	0f 9d c0             	setge  %al
   189f6:	0f b6 c0             	movzbl %al,%eax
   189f9:	89 de                	mov    %ebx,%esi
   189fb:	89 c7                	mov    %eax,%edi
   189fd:	e8 9f f8 fe ff       	callq  82a1 <safe_lshift_func_int8_t_s_s>
   18a02:	84 c0                	test   %al,%al
   18a04:	0f 84 a3 00 00 00    	je     18aad <func_32+0x4874>
   18a0a:	c7 85 64 e6 ff ff 00 	movl   $0x0,-0x199c(%rbp)
   18a11:	00 00 00 
   18a14:	eb 1b                	jmp    18a31 <func_32+0x47f8>
   18a16:	8b 85 64 e6 ff ff    	mov    -0x199c(%rbp),%eax
   18a1c:	48 98                	cltq   
   18a1e:	48 c7 84 c5 d0 f7 ff 	movq   $0x0,-0x830(%rbp,%rax,8)
   18a25:	ff 00 00 00 00 
   18a2a:	83 85 64 e6 ff ff 01 	addl   $0x1,-0x199c(%rbp)
   18a31:	83 bd 64 e6 ff ff 01 	cmpl   $0x1,-0x199c(%rbp)
   18a38:	7e dc                	jle    18a16 <func_32+0x47dd>
   18a3a:	48 c7 05 9b a6 00 00 	movq   $0x0,0xa69b(%rip)        # 230e0 <g_256>
   18a41:	00 00 00 00 
   18a45:	eb 42                	jmp    18a89 <func_32+0x4850>
   18a47:	48 8b 05 62 c8 00 00 	mov    0xc862(%rip),%rax        # 252b0 <g_432>
   18a4e:	0f b6 00             	movzbl (%rax),%eax
   18a51:	0f be d0             	movsbl %al,%edx
   18a54:	48 8b 85 d8 e7 ff ff 	mov    -0x1828(%rbp),%rax
   18a5b:	8b 00                	mov    (%rax),%eax
   18a5d:	39 c2                	cmp    %eax,%edx
   18a5f:	0f 95 c0             	setne  %al
   18a62:	0f b6 d0             	movzbl %al,%edx
   18a65:	48 8b 85 d8 e7 ff ff 	mov    -0x1828(%rbp),%rax
   18a6c:	89 10                	mov    %edx,(%rax)
   18a6e:	48 8b 05 6b a6 00 00 	mov    0xa66b(%rip),%rax        # 230e0 <g_256>
   18a75:	be 01 00 00 00       	mov    $0x1,%esi
   18a7a:	48 89 c7             	mov    %rax,%rdi
   18a7d:	e8 ac 05 ff ff       	callq  902e <safe_add_func_uint64_t_u_u>
   18a82:	48 89 05 57 a6 00 00 	mov    %rax,0xa657(%rip)        # 230e0 <g_256>
   18a89:	48 8b 05 50 a6 00 00 	mov    0xa650(%rip),%rax        # 230e0 <g_256>
   18a90:	48 83 f8 1d          	cmp    $0x1d,%rax
   18a94:	7e b1                	jle    18a47 <func_32+0x480e>
   18a96:	48 c7 85 00 e8 ff ff 	movq   $0x0,-0x1800(%rbp)
   18a9d:	00 00 00 00 
   18aa1:	48 8b 05 60 d0 00 00 	mov    0xd060(%rip),%rax        # 25b08 <g_1230>
   18aa8:	e9 9e 15 00 00       	jmpq   1a04b <func_32+0x5e12>
   18aad:	48 8d 85 10 e7 ff ff 	lea    -0x18f0(%rbp),%rax
   18ab4:	48 89 85 70 e8 ff ff 	mov    %rax,-0x1790(%rbp)
   18abb:	48 8d 85 30 ee ff ff 	lea    -0x11d0(%rbp),%rax
   18ac2:	48 8d 15 d7 63 00 00 	lea    0x63d7(%rip),%rdx        # 1eea0 <g_2423+0xdf0>
   18ac9:	b9 23 00 00 00       	mov    $0x23,%ecx
   18ace:	48 89 c7             	mov    %rax,%rdi
   18ad1:	48 89 d6             	mov    %rdx,%rsi
   18ad4:	f3 48 a5             	rep movsq %ds:(%rsi),%es:(%rdi)
   18ad7:	48 8d 05 c2 c1 00 00 	lea    0xc1c2(%rip),%rax        # 24ca0 <g_193+0x180>
   18ade:	48 89 85 40 e7 ff ff 	mov    %rax,-0x18c0(%rbp)
   18ae5:	48 8d 85 40 e7 ff ff 	lea    -0x18c0(%rbp),%rax
   18aec:	48 89 85 78 e8 ff ff 	mov    %rax,-0x1788(%rbp)
   18af3:	48 8d 05 56 d4 00 00 	lea    0xd456(%rip),%rax        # 25f50 <g_1287>
   18afa:	48 89 85 48 e7 ff ff 	mov    %rax,-0x18b8(%rbp)
   18b01:	48 8d 85 0c e6 ff ff 	lea    -0x19f4(%rbp),%rax
   18b08:	48 89 85 30 ec ff ff 	mov    %rax,-0x13d0(%rbp)
   18b0f:	48 c7 85 38 ec ff ff 	movq   $0x0,-0x13c8(%rbp)
   18b16:	00 00 00 00 
   18b1a:	48 8d 85 0c e6 ff ff 	lea    -0x19f4(%rbp),%rax
   18b21:	48 89 85 40 ec ff ff 	mov    %rax,-0x13c0(%rbp)
   18b28:	48 c7 85 48 ec ff ff 	movq   $0x0,-0x13b8(%rbp)
   18b2f:	00 00 00 00 
   18b33:	48 c7 85 50 ec ff ff 	movq   $0x0,-0x13b0(%rbp)
   18b3a:	00 00 00 00 
   18b3e:	48 8d 85 0c e6 ff ff 	lea    -0x19f4(%rbp),%rax
   18b45:	48 89 85 58 ec ff ff 	mov    %rax,-0x13a8(%rbp)
   18b4c:	48 c7 85 60 ec ff ff 	movq   $0x0,-0x13a0(%rbp)
   18b53:	00 00 00 00 
   18b57:	48 8d 85 0c e6 ff ff 	lea    -0x19f4(%rbp),%rax
   18b5e:	48 89 85 68 ec ff ff 	mov    %rax,-0x1398(%rbp)
   18b65:	48 c7 85 70 ec ff ff 	movq   $0x0,-0x1390(%rbp)
   18b6c:	00 00 00 00 
   18b70:	48 8d 85 0c e6 ff ff 	lea    -0x19f4(%rbp),%rax
   18b77:	48 89 85 78 ec ff ff 	mov    %rax,-0x1388(%rbp)
   18b7e:	48 c7 85 80 ec ff ff 	movq   $0x0,-0x1380(%rbp)
   18b85:	00 00 00 00 
   18b89:	48 c7 85 88 ec ff ff 	movq   $0x0,-0x1378(%rbp)
   18b90:	00 00 00 00 
   18b94:	48 8d 85 0c e6 ff ff 	lea    -0x19f4(%rbp),%rax
   18b9b:	48 89 85 90 ec ff ff 	mov    %rax,-0x1370(%rbp)
   18ba2:	48 c7 85 98 ec ff ff 	movq   $0x0,-0x1368(%rbp)
   18ba9:	00 00 00 00 
   18bad:	48 8d 85 0c e6 ff ff 	lea    -0x19f4(%rbp),%rax
   18bb4:	48 89 85 a0 ec ff ff 	mov    %rax,-0x1360(%rbp)
   18bbb:	48 c7 85 a8 ec ff ff 	movq   $0x0,-0x1358(%rbp)
   18bc2:	00 00 00 00 
   18bc6:	48 c7 85 b0 ec ff ff 	movq   $0x0,-0x1350(%rbp)
   18bcd:	00 00 00 00 
   18bd1:	48 8d 85 0c e6 ff ff 	lea    -0x19f4(%rbp),%rax
   18bd8:	48 89 85 b8 ec ff ff 	mov    %rax,-0x1348(%rbp)
   18bdf:	48 8d 85 14 e6 ff ff 	lea    -0x19ec(%rbp),%rax
   18be6:	48 89 85 c0 ec ff ff 	mov    %rax,-0x1340(%rbp)
   18bed:	48 c7 85 c8 ec ff ff 	movq   $0x0,-0x1338(%rbp)
   18bf4:	00 00 00 00 
   18bf8:	48 8d 85 50 ea ff ff 	lea    -0x15b0(%rbp),%rax
   18bff:	48 83 c0 04          	add    $0x4,%rax
   18c03:	48 89 85 d0 ec ff ff 	mov    %rax,-0x1330(%rbp)
   18c0a:	48 c7 85 d8 ec ff ff 	movq   $0x0,-0x1328(%rbp)
   18c11:	00 00 00 00 
   18c15:	48 8d 85 14 e6 ff ff 	lea    -0x19ec(%rbp),%rax
   18c1c:	48 89 85 e0 ec ff ff 	mov    %rax,-0x1320(%rbp)
   18c23:	48 8d 85 14 e6 ff ff 	lea    -0x19ec(%rbp),%rax
   18c2a:	48 89 85 e8 ec ff ff 	mov    %rax,-0x1318(%rbp)
   18c31:	48 c7 85 f0 ec ff ff 	movq   $0x0,-0x1310(%rbp)
   18c38:	00 00 00 00 
   18c3c:	48 8d 85 50 ea ff ff 	lea    -0x15b0(%rbp),%rax
   18c43:	48 83 c0 04          	add    $0x4,%rax
   18c47:	48 89 85 f8 ec ff ff 	mov    %rax,-0x1308(%rbp)
   18c4e:	48 c7 85 00 ed ff ff 	movq   $0x0,-0x1300(%rbp)
   18c55:	00 00 00 00 
   18c59:	48 c7 05 8c a4 00 00 	movq   $0x0,0xa48c(%rip)        # 230f0 <g_344>
   18c60:	00 00 00 00 
   18c64:	e9 57 0a 00 00       	jmpq   196c0 <func_32+0x5487>
   18c69:	48 c7 85 d0 f7 ff ff 	movq   $0x0,-0x830(%rbp)
   18c70:	00 00 00 00 
   18c74:	48 8d 85 70 ea ff ff 	lea    -0x1590(%rbp),%rax
   18c7b:	48 83 c0 18          	add    $0x18,%rax
   18c7f:	48 89 85 d8 f7 ff ff 	mov    %rax,-0x828(%rbp)
   18c86:	48 8d 85 08 e6 ff ff 	lea    -0x19f8(%rbp),%rax
   18c8d:	48 89 85 e0 f7 ff ff 	mov    %rax,-0x820(%rbp)
   18c94:	48 c7 85 e8 f7 ff ff 	movq   $0x0,-0x818(%rbp)
   18c9b:	00 00 00 00 
   18c9f:	48 8d 05 8a a3 00 00 	lea    0xa38a(%rip),%rax        # 23030 <g_46>
   18ca6:	48 89 85 f0 f7 ff ff 	mov    %rax,-0x810(%rbp)
   18cad:	48 8d 85 0c e6 ff ff 	lea    -0x19f4(%rbp),%rax
   18cb4:	48 89 85 f8 f7 ff ff 	mov    %rax,-0x808(%rbp)
   18cbb:	48 8d 85 08 e6 ff ff 	lea    -0x19f8(%rbp),%rax
   18cc2:	48 89 85 00 f8 ff ff 	mov    %rax,-0x800(%rbp)
   18cc9:	48 8d 85 08 e6 ff ff 	lea    -0x19f8(%rbp),%rax
   18cd0:	48 89 85 08 f8 ff ff 	mov    %rax,-0x7f8(%rbp)
   18cd7:	48 8d 85 0c e6 ff ff 	lea    -0x19f4(%rbp),%rax
   18cde:	48 89 85 10 f8 ff ff 	mov    %rax,-0x7f0(%rbp)
   18ce5:	48 8d 85 50 ea ff ff 	lea    -0x15b0(%rbp),%rax
   18cec:	48 89 85 18 f8 ff ff 	mov    %rax,-0x7e8(%rbp)
   18cf3:	48 8d 85 70 ea ff ff 	lea    -0x1590(%rbp),%rax
   18cfa:	48 83 c0 18          	add    $0x18,%rax
   18cfe:	48 89 85 20 f8 ff ff 	mov    %rax,-0x7e0(%rbp)
   18d05:	48 8d 85 70 ea ff ff 	lea    -0x1590(%rbp),%rax
   18d0c:	48 83 c0 10          	add    $0x10,%rax
   18d10:	48 89 85 28 f8 ff ff 	mov    %rax,-0x7d8(%rbp)
   18d17:	48 8d 85 14 e6 ff ff 	lea    -0x19ec(%rbp),%rax
   18d1e:	48 89 85 30 f8 ff ff 	mov    %rax,-0x7d0(%rbp)
   18d25:	48 c7 85 38 f8 ff ff 	movq   $0x0,-0x7c8(%rbp)
   18d2c:	00 00 00 00 
   18d30:	48 c7 85 40 f8 ff ff 	movq   $0x0,-0x7c0(%rbp)
   18d37:	00 00 00 00 
   18d3b:	48 8d 85 10 e6 ff ff 	lea    -0x19f0(%rbp),%rax
   18d42:	48 89 85 48 f8 ff ff 	mov    %rax,-0x7b8(%rbp)
   18d49:	48 8d 85 08 e6 ff ff 	lea    -0x19f8(%rbp),%rax
   18d50:	48 89 85 50 f8 ff ff 	mov    %rax,-0x7b0(%rbp)
   18d57:	48 c7 85 58 f8 ff ff 	movq   $0x0,-0x7a8(%rbp)
   18d5e:	00 00 00 00 
   18d62:	48 8d 85 fc e5 ff ff 	lea    -0x1a04(%rbp),%rax
   18d69:	48 89 85 60 f8 ff ff 	mov    %rax,-0x7a0(%rbp)
   18d70:	48 8d 85 10 e6 ff ff 	lea    -0x19f0(%rbp),%rax
   18d77:	48 89 85 68 f8 ff ff 	mov    %rax,-0x798(%rbp)
   18d7e:	48 8d 85 ec e5 ff ff 	lea    -0x1a14(%rbp),%rax
   18d85:	48 89 85 70 f8 ff ff 	mov    %rax,-0x790(%rbp)
   18d8c:	48 c7 85 78 f8 ff ff 	movq   $0x0,-0x788(%rbp)
   18d93:	00 00 00 00 
   18d97:	48 8d 05 86 a2 00 00 	lea    0xa286(%rip),%rax        # 23024 <g_18>
   18d9e:	48 89 85 80 f8 ff ff 	mov    %rax,-0x780(%rbp)
   18da5:	48 c7 85 88 f8 ff ff 	movq   $0x0,-0x778(%rbp)
   18dac:	00 00 00 00 
   18db0:	48 8d 85 08 e6 ff ff 	lea    -0x19f8(%rbp),%rax
   18db7:	48 89 85 90 f8 ff ff 	mov    %rax,-0x770(%rbp)
   18dbe:	48 8d 85 00 e6 ff ff 	lea    -0x1a00(%rbp),%rax
   18dc5:	48 89 85 98 f8 ff ff 	mov    %rax,-0x768(%rbp)
   18dcc:	48 c7 85 a0 f8 ff ff 	movq   $0x0,-0x760(%rbp)
   18dd3:	00 00 00 00 
   18dd7:	48 8d 05 52 a2 00 00 	lea    0xa252(%rip),%rax        # 23030 <g_46>
   18dde:	48 89 85 a8 f8 ff ff 	mov    %rax,-0x758(%rbp)
   18de5:	48 8d 85 0c e6 ff ff 	lea    -0x19f4(%rbp),%rax
   18dec:	48 89 85 b0 f8 ff ff 	mov    %rax,-0x750(%rbp)
   18df3:	48 8d 85 08 e6 ff ff 	lea    -0x19f8(%rbp),%rax
   18dfa:	48 89 85 b8 f8 ff ff 	mov    %rax,-0x748(%rbp)
   18e01:	48 8d 85 70 ea ff ff 	lea    -0x1590(%rbp),%rax
   18e08:	48 83 c0 0c          	add    $0xc,%rax
   18e0c:	48 89 85 c0 f8 ff ff 	mov    %rax,-0x740(%rbp)
   18e13:	48 c7 85 c8 f8 ff ff 	movq   $0x0,-0x738(%rbp)
   18e1a:	00 00 00 00 
   18e1e:	48 8d 85 10 e6 ff ff 	lea    -0x19f0(%rbp),%rax
   18e25:	48 89 85 d0 f8 ff ff 	mov    %rax,-0x730(%rbp)
   18e2c:	48 c7 85 d8 f8 ff ff 	movq   $0x0,-0x728(%rbp)
   18e33:	00 00 00 00 
   18e37:	48 c7 85 e0 f8 ff ff 	movq   $0x0,-0x720(%rbp)
   18e3e:	00 00 00 00 
   18e42:	48 8d 05 e7 a1 00 00 	lea    0xa1e7(%rip),%rax        # 23030 <g_46>
   18e49:	48 89 85 e8 f8 ff ff 	mov    %rax,-0x718(%rbp)
   18e50:	48 8d 05 cd a1 00 00 	lea    0xa1cd(%rip),%rax        # 23024 <g_18>
   18e57:	48 89 85 f0 f8 ff ff 	mov    %rax,-0x710(%rbp)
   18e5e:	48 c7 85 f8 f8 ff ff 	movq   $0x0,-0x708(%rbp)
   18e65:	00 00 00 00 
   18e69:	48 c7 85 00 f9 ff ff 	movq   $0x0,-0x700(%rbp)
   18e70:	00 00 00 00 
   18e74:	48 c7 85 08 f9 ff ff 	movq   $0x0,-0x6f8(%rbp)
   18e7b:	00 00 00 00 
   18e7f:	48 8d 85 ec e5 ff ff 	lea    -0x1a14(%rbp),%rax
   18e86:	48 89 85 10 f9 ff ff 	mov    %rax,-0x6f0(%rbp)
   18e8d:	48 c7 85 18 f9 ff ff 	movq   $0x0,-0x6e8(%rbp)
   18e94:	00 00 00 00 
   18e98:	48 8d 05 91 a1 00 00 	lea    0xa191(%rip),%rax        # 23030 <g_46>
   18e9f:	48 89 85 20 f9 ff ff 	mov    %rax,-0x6e0(%rbp)
   18ea6:	48 8d 85 70 ea ff ff 	lea    -0x1590(%rbp),%rax
   18ead:	48 83 c0 18          	add    $0x18,%rax
   18eb1:	48 89 85 28 f9 ff ff 	mov    %rax,-0x6d8(%rbp)
   18eb8:	48 8d 85 fc e5 ff ff 	lea    -0x1a04(%rbp),%rax
   18ebf:	48 89 85 30 f9 ff ff 	mov    %rax,-0x6d0(%rbp)
   18ec6:	48 c7 85 38 f9 ff ff 	movq   $0x0,-0x6c8(%rbp)
   18ecd:	00 00 00 00 
   18ed1:	48 8d 85 fc e5 ff ff 	lea    -0x1a04(%rbp),%rax
   18ed8:	48 89 85 40 f9 ff ff 	mov    %rax,-0x6c0(%rbp)
   18edf:	48 8d 05 4a a1 00 00 	lea    0xa14a(%rip),%rax        # 23030 <g_46>
   18ee6:	48 89 85 48 f9 ff ff 	mov    %rax,-0x6b8(%rbp)
   18eed:	48 8d 85 fc e5 ff ff 	lea    -0x1a04(%rbp),%rax
   18ef4:	48 89 85 50 f9 ff ff 	mov    %rax,-0x6b0(%rbp)
   18efb:	48 c7 85 58 f9 ff ff 	movq   $0x0,-0x6a8(%rbp)
   18f02:	00 00 00 00 
   18f06:	48 8d 85 08 e6 ff ff 	lea    -0x19f8(%rbp),%rax
   18f0d:	48 89 85 60 f9 ff ff 	mov    %rax,-0x6a0(%rbp)
   18f14:	48 c7 85 68 f9 ff ff 	movq   $0x0,-0x698(%rbp)
   18f1b:	00 00 00 00 
   18f1f:	48 8d 85 f0 e5 ff ff 	lea    -0x1a10(%rbp),%rax
   18f26:	48 89 85 70 f9 ff ff 	mov    %rax,-0x690(%rbp)
   18f2d:	48 8d 85 70 ea ff ff 	lea    -0x1590(%rbp),%rax
   18f34:	48 83 c0 18          	add    $0x18,%rax
   18f38:	48 89 85 78 f9 ff ff 	mov    %rax,-0x688(%rbp)
   18f3f:	48 8d 85 14 e6 ff ff 	lea    -0x19ec(%rbp),%rax
   18f46:	48 89 85 80 f9 ff ff 	mov    %rax,-0x680(%rbp)
   18f4d:	48 8d 85 0c e6 ff ff 	lea    -0x19f4(%rbp),%rax
   18f54:	48 89 85 88 f9 ff ff 	mov    %rax,-0x678(%rbp)
   18f5b:	48 8d 85 70 ea ff ff 	lea    -0x1590(%rbp),%rax
   18f62:	48 83 c0 18          	add    $0x18,%rax
   18f66:	48 89 85 90 f9 ff ff 	mov    %rax,-0x670(%rbp)
   18f6d:	48 8d 85 f0 e5 ff ff 	lea    -0x1a10(%rbp),%rax
   18f74:	48 89 85 98 f9 ff ff 	mov    %rax,-0x668(%rbp)
   18f7b:	48 8d 85 00 e6 ff ff 	lea    -0x1a00(%rbp),%rax
   18f82:	48 89 85 a0 f9 ff ff 	mov    %rax,-0x660(%rbp)
   18f89:	48 8d 05 94 a0 00 00 	lea    0xa094(%rip),%rax        # 23024 <g_18>
   18f90:	48 89 85 a8 f9 ff ff 	mov    %rax,-0x658(%rbp)
   18f97:	48 c7 85 b0 f9 ff ff 	movq   $0x0,-0x650(%rbp)
   18f9e:	00 00 00 00 
   18fa2:	48 8d 85 04 e6 ff ff 	lea    -0x19fc(%rbp),%rax
   18fa9:	48 89 85 b8 f9 ff ff 	mov    %rax,-0x648(%rbp)
   18fb0:	48 c7 85 c0 f9 ff ff 	movq   $0x0,-0x640(%rbp)
   18fb7:	00 00 00 00 
   18fbb:	48 c7 85 c8 f9 ff ff 	movq   $0x0,-0x638(%rbp)
   18fc2:	00 00 00 00 
   18fc6:	48 8d 85 14 e6 ff ff 	lea    -0x19ec(%rbp),%rax
   18fcd:	48 89 85 d0 f9 ff ff 	mov    %rax,-0x630(%rbp)
   18fd4:	48 c7 85 d8 f9 ff ff 	movq   $0x0,-0x628(%rbp)
   18fdb:	00 00 00 00 
   18fdf:	48 8d 85 00 e6 ff ff 	lea    -0x1a00(%rbp),%rax
   18fe6:	48 89 85 e0 f9 ff ff 	mov    %rax,-0x620(%rbp)
   18fed:	48 8d 85 fc e5 ff ff 	lea    -0x1a04(%rbp),%rax
   18ff4:	48 89 85 e8 f9 ff ff 	mov    %rax,-0x618(%rbp)
   18ffb:	48 8d 05 22 a0 00 00 	lea    0xa022(%rip),%rax        # 23024 <g_18>
   19002:	48 89 85 f0 f9 ff ff 	mov    %rax,-0x610(%rbp)
   19009:	48 c7 85 f8 f9 ff ff 	movq   $0x0,-0x608(%rbp)
   19010:	00 00 00 00 
   19014:	48 8d 85 14 e6 ff ff 	lea    -0x19ec(%rbp),%rax
   1901b:	48 89 85 00 fa ff ff 	mov    %rax,-0x600(%rbp)
   19022:	48 c7 85 08 fa ff ff 	movq   $0x0,-0x5f8(%rbp)
   19029:	00 00 00 00 
   1902d:	48 8d 85 50 ea ff ff 	lea    -0x15b0(%rbp),%rax
   19034:	48 83 c0 10          	add    $0x10,%rax
   19038:	48 89 85 10 fa ff ff 	mov    %rax,-0x5f0(%rbp)
   1903f:	48 8d 05 de 9f 00 00 	lea    0x9fde(%rip),%rax        # 23024 <g_18>
   19046:	48 89 85 18 fa ff ff 	mov    %rax,-0x5e8(%rbp)
   1904d:	48 8d 85 fc e5 ff ff 	lea    -0x1a04(%rbp),%rax
   19054:	48 89 85 20 fa ff ff 	mov    %rax,-0x5e0(%rbp)
   1905b:	48 8d 85 70 ea ff ff 	lea    -0x1590(%rbp),%rax
   19062:	48 83 c0 18          	add    $0x18,%rax
   19066:	48 89 85 28 fa ff ff 	mov    %rax,-0x5d8(%rbp)
   1906d:	48 c7 85 30 fa ff ff 	movq   $0x0,-0x5d0(%rbp)
   19074:	00 00 00 00 
   19078:	48 c7 85 38 fa ff ff 	movq   $0x0,-0x5c8(%rbp)
   1907f:	00 00 00 00 
   19083:	48 8d 05 a6 9f 00 00 	lea    0x9fa6(%rip),%rax        # 23030 <g_46>
   1908a:	48 89 85 40 fa ff ff 	mov    %rax,-0x5c0(%rbp)
   19091:	48 c7 85 48 fa ff ff 	movq   $0x0,-0x5b8(%rbp)
   19098:	00 00 00 00 
   1909c:	48 8d 05 81 9f 00 00 	lea    0x9f81(%rip),%rax        # 23024 <g_18>
   190a3:	48 89 85 50 fa ff ff 	mov    %rax,-0x5b0(%rbp)
   190aa:	48 8d 85 08 e6 ff ff 	lea    -0x19f8(%rbp),%rax
   190b1:	48 89 85 58 fa ff ff 	mov    %rax,-0x5a8(%rbp)
   190b8:	48 8d 85 08 e6 ff ff 	lea    -0x19f8(%rbp),%rax
   190bf:	48 89 85 60 fa ff ff 	mov    %rax,-0x5a0(%rbp)
   190c6:	48 c7 85 68 fa ff ff 	movq   $0x0,-0x598(%rbp)
   190cd:	00 00 00 00 
   190d1:	48 c7 85 70 fa ff ff 	movq   $0x0,-0x590(%rbp)
   190d8:	00 00 00 00 
   190dc:	48 8d 05 4d 9f 00 00 	lea    0x9f4d(%rip),%rax        # 23030 <g_46>
   190e3:	48 89 85 78 fa ff ff 	mov    %rax,-0x588(%rbp)
   190ea:	48 8d 85 08 e6 ff ff 	lea    -0x19f8(%rbp),%rax
   190f1:	48 89 85 80 fa ff ff 	mov    %rax,-0x580(%rbp)
   190f8:	48 8d 85 00 e6 ff ff 	lea    -0x1a00(%rbp),%rax
   190ff:	48 89 85 88 fa ff ff 	mov    %rax,-0x578(%rbp)
   19106:	48 8d 85 00 e6 ff ff 	lea    -0x1a00(%rbp),%rax
   1910d:	48 89 85 90 fa ff ff 	mov    %rax,-0x570(%rbp)
   19114:	48 8d 85 08 e6 ff ff 	lea    -0x19f8(%rbp),%rax
   1911b:	48 89 85 98 fa ff ff 	mov    %rax,-0x568(%rbp)
   19122:	48 8d 85 70 ea ff ff 	lea    -0x1590(%rbp),%rax
   19129:	48 89 85 a0 fa ff ff 	mov    %rax,-0x560(%rbp)
   19130:	48 8d 85 f0 e5 ff ff 	lea    -0x1a10(%rbp),%rax
   19137:	48 89 85 a8 fa ff ff 	mov    %rax,-0x558(%rbp)
   1913e:	48 c7 85 b0 fa ff ff 	movq   $0x0,-0x550(%rbp)
   19145:	00 00 00 00 
   19149:	48 8d 85 f4 e5 ff ff 	lea    -0x1a0c(%rbp),%rax
   19150:	48 89 85 b8 fa ff ff 	mov    %rax,-0x548(%rbp)
   19157:	48 8d 85 08 e6 ff ff 	lea    -0x19f8(%rbp),%rax
   1915e:	48 89 85 c0 fa ff ff 	mov    %rax,-0x540(%rbp)
   19165:	48 8d 85 08 e6 ff ff 	lea    -0x19f8(%rbp),%rax
   1916c:	48 89 85 c8 fa ff ff 	mov    %rax,-0x538(%rbp)
   19173:	48 8d 85 04 e6 ff ff 	lea    -0x19fc(%rbp),%rax
   1917a:	48 89 85 d0 fa ff ff 	mov    %rax,-0x530(%rbp)
   19181:	48 8d 85 0c e6 ff ff 	lea    -0x19f4(%rbp),%rax
   19188:	48 89 85 d8 fa ff ff 	mov    %rax,-0x528(%rbp)
   1918f:	48 c7 85 e0 fa ff ff 	movq   $0x0,-0x520(%rbp)
   19196:	00 00 00 00 
   1919a:	48 8d 85 08 e6 ff ff 	lea    -0x19f8(%rbp),%rax
   191a1:	48 89 85 e8 fa ff ff 	mov    %rax,-0x518(%rbp)
   191a8:	48 8d 85 ec e5 ff ff 	lea    -0x1a14(%rbp),%rax
   191af:	48 89 85 f0 fa ff ff 	mov    %rax,-0x510(%rbp)
   191b6:	48 c7 85 f8 fa ff ff 	movq   $0x0,-0x508(%rbp)
   191bd:	00 00 00 00 
   191c1:	48 8d 85 f0 e5 ff ff 	lea    -0x1a10(%rbp),%rax
   191c8:	48 89 85 00 fb ff ff 	mov    %rax,-0x500(%rbp)
   191cf:	48 8d 85 70 ea ff ff 	lea    -0x1590(%rbp),%rax
   191d6:	48 83 c0 18          	add    $0x18,%rax
   191da:	48 89 85 08 fb ff ff 	mov    %rax,-0x4f8(%rbp)
   191e1:	48 8d 85 fc e5 ff ff 	lea    -0x1a04(%rbp),%rax
   191e8:	48 89 85 10 fb ff ff 	mov    %rax,-0x4f0(%rbp)
   191ef:	48 8d 85 00 e6 ff ff 	lea    -0x1a00(%rbp),%rax
   191f6:	48 89 85 18 fb ff ff 	mov    %rax,-0x4e8(%rbp)
   191fd:	48 8d 05 2c 9e 00 00 	lea    0x9e2c(%rip),%rax        # 23030 <g_46>
   19204:	48 89 85 20 fb ff ff 	mov    %rax,-0x4e0(%rbp)
   1920b:	48 8d 85 10 e6 ff ff 	lea    -0x19f0(%rbp),%rax
   19212:	48 89 85 28 fb ff ff 	mov    %rax,-0x4d8(%rbp)
   19219:	48 8d 05 04 9e 00 00 	lea    0x9e04(%rip),%rax        # 23024 <g_18>
   19220:	48 89 85 30 fb ff ff 	mov    %rax,-0x4d0(%rbp)
   19227:	48 8d 05 f6 9d 00 00 	lea    0x9df6(%rip),%rax        # 23024 <g_18>
   1922e:	48 89 85 38 fb ff ff 	mov    %rax,-0x4c8(%rbp)
   19235:	48 8d 85 70 ea ff ff 	lea    -0x1590(%rbp),%rax
   1923c:	48 83 c0 08          	add    $0x8,%rax
   19240:	48 89 85 40 fb ff ff 	mov    %rax,-0x4c0(%rbp)
   19247:	48 8d 85 70 ea ff ff 	lea    -0x1590(%rbp),%rax
   1924e:	48 83 c0 18          	add    $0x18,%rax
   19252:	48 89 85 48 fb ff ff 	mov    %rax,-0x4b8(%rbp)
   19259:	48 8d 85 14 e6 ff ff 	lea    -0x19ec(%rbp),%rax
   19260:	48 89 85 50 fb ff ff 	mov    %rax,-0x4b0(%rbp)
   19267:	48 c7 85 58 fb ff ff 	movq   $0x0,-0x4a8(%rbp)
   1926e:	00 00 00 00 
   19272:	48 8d 85 08 e6 ff ff 	lea    -0x19f8(%rbp),%rax
   19279:	48 89 85 60 fb ff ff 	mov    %rax,-0x4a0(%rbp)
   19280:	48 8d 05 a9 9d 00 00 	lea    0x9da9(%rip),%rax        # 23030 <g_46>
   19287:	48 89 85 68 fb ff ff 	mov    %rax,-0x498(%rbp)
   1928e:	48 8d 05 9b 9d 00 00 	lea    0x9d9b(%rip),%rax        # 23030 <g_46>
   19295:	48 89 85 70 fb ff ff 	mov    %rax,-0x490(%rbp)
   1929c:	48 8d 85 10 e6 ff ff 	lea    -0x19f0(%rbp),%rax
   192a3:	48 89 85 78 fb ff ff 	mov    %rax,-0x488(%rbp)
   192aa:	48 8d 85 fc e5 ff ff 	lea    -0x1a04(%rbp),%rax
   192b1:	48 89 85 80 fb ff ff 	mov    %rax,-0x480(%rbp)
   192b8:	48 8d 85 70 ea ff ff 	lea    -0x1590(%rbp),%rax
   192bf:	48 83 c0 18          	add    $0x18,%rax
   192c3:	48 89 85 88 fb ff ff 	mov    %rax,-0x478(%rbp)
   192ca:	48 8d 85 10 e6 ff ff 	lea    -0x19f0(%rbp),%rax
   192d1:	48 89 85 90 fb ff ff 	mov    %rax,-0x470(%rbp)
   192d8:	48 8d 85 08 e6 ff ff 	lea    -0x19f8(%rbp),%rax
   192df:	48 89 85 98 fb ff ff 	mov    %rax,-0x468(%rbp)
   192e6:	48 8d 85 08 e6 ff ff 	lea    -0x19f8(%rbp),%rax
   192ed:	48 89 85 a0 fb ff ff 	mov    %rax,-0x460(%rbp)
   192f4:	48 8d 85 14 e6 ff ff 	lea    -0x19ec(%rbp),%rax
   192fb:	48 89 85 a8 fb ff ff 	mov    %rax,-0x458(%rbp)
   19302:	48 8d 85 f0 e5 ff ff 	lea    -0x1a10(%rbp),%rax
   19309:	48 89 85 b0 fb ff ff 	mov    %rax,-0x450(%rbp)
   19310:	48 8d 05 0d 9d 00 00 	lea    0x9d0d(%rip),%rax        # 23024 <g_18>
   19317:	48 89 85 b8 fb ff ff 	mov    %rax,-0x448(%rbp)
   1931e:	48 c7 85 c0 fb ff ff 	movq   $0x0,-0x440(%rbp)
   19325:	00 00 00 00 
   19329:	48 8d 85 0c e6 ff ff 	lea    -0x19f4(%rbp),%rax
   19330:	48 89 85 c8 fb ff ff 	mov    %rax,-0x438(%rbp)
   19337:	48 8d 85 14 e6 ff ff 	lea    -0x19ec(%rbp),%rax
   1933e:	48 89 85 d0 fb ff ff 	mov    %rax,-0x430(%rbp)
   19345:	48 8d 85 0c e6 ff ff 	lea    -0x19f4(%rbp),%rax
   1934c:	48 89 85 d8 fb ff ff 	mov    %rax,-0x428(%rbp)
   19353:	48 c7 85 e0 fb ff ff 	movq   $0x0,-0x420(%rbp)
   1935a:	00 00 00 00 
   1935e:	48 c7 85 e8 fb ff ff 	movq   $0x0,-0x418(%rbp)
   19365:	00 00 00 00 
   19369:	48 8d 85 04 e6 ff ff 	lea    -0x19fc(%rbp),%rax
   19370:	48 89 85 f0 fb ff ff 	mov    %rax,-0x410(%rbp)
   19377:	48 c7 85 f8 fb ff ff 	movq   $0x0,-0x408(%rbp)
   1937e:	00 00 00 00 
   19382:	48 c7 85 00 fc ff ff 	movq   $0x0,-0x400(%rbp)
   19389:	00 00 00 00 
   1938d:	48 c7 85 08 fc ff ff 	movq   $0x0,-0x3f8(%rbp)
   19394:	00 00 00 00 
   19398:	48 8d 85 10 e6 ff ff 	lea    -0x19f0(%rbp),%rax
   1939f:	48 89 85 10 fc ff ff 	mov    %rax,-0x3f0(%rbp)
   193a6:	48 c7 85 18 fc ff ff 	movq   $0x0,-0x3e8(%rbp)
   193ad:	00 00 00 00 
   193b1:	48 8d 85 04 e6 ff ff 	lea    -0x19fc(%rbp),%rax
   193b8:	48 89 85 20 fc ff ff 	mov    %rax,-0x3e0(%rbp)
   193bf:	48 c7 85 28 fc ff ff 	movq   $0x0,-0x3d8(%rbp)
   193c6:	00 00 00 00 
   193ca:	48 8d 05 5f 9c 00 00 	lea    0x9c5f(%rip),%rax        # 23030 <g_46>
   193d1:	48 89 85 30 fc ff ff 	mov    %rax,-0x3d0(%rbp)
   193d8:	48 8d 85 04 e6 ff ff 	lea    -0x19fc(%rbp),%rax
   193df:	48 89 85 38 fc ff ff 	mov    %rax,-0x3c8(%rbp)
   193e6:	48 8d 85 50 ea ff ff 	lea    -0x15b0(%rbp),%rax
   193ed:	48 83 c0 10          	add    $0x10,%rax
   193f1:	48 89 85 40 fc ff ff 	mov    %rax,-0x3c0(%rbp)
   193f8:	48 8d 85 f4 e5 ff ff 	lea    -0x1a0c(%rbp),%rax
   193ff:	48 89 85 48 fc ff ff 	mov    %rax,-0x3b8(%rbp)
   19406:	48 8d 85 00 e6 ff ff 	lea    -0x1a00(%rbp),%rax
   1940d:	48 89 85 50 fc ff ff 	mov    %rax,-0x3b0(%rbp)
   19414:	48 8d 05 15 9c 00 00 	lea    0x9c15(%rip),%rax        # 23030 <g_46>
   1941b:	48 89 85 58 fc ff ff 	mov    %rax,-0x3a8(%rbp)
   19422:	48 8d 85 10 e6 ff ff 	lea    -0x19f0(%rbp),%rax
   19429:	48 89 85 60 fc ff ff 	mov    %rax,-0x3a0(%rbp)
   19430:	48 8d 05 f9 9b 00 00 	lea    0x9bf9(%rip),%rax        # 23030 <g_46>
   19437:	48 89 85 68 fc ff ff 	mov    %rax,-0x398(%rbp)
   1943e:	48 c7 85 70 fc ff ff 	movq   $0x0,-0x390(%rbp)
   19445:	00 00 00 00 
   19449:	48 8d 85 04 e6 ff ff 	lea    -0x19fc(%rbp),%rax
   19450:	48 89 85 78 fc ff ff 	mov    %rax,-0x388(%rbp)
   19457:	48 c7 85 80 fc ff ff 	movq   $0x0,-0x380(%rbp)
   1945e:	00 00 00 00 
   19462:	48 c7 85 88 fc ff ff 	movq   $0x0,-0x378(%rbp)
   19469:	00 00 00 00 
   1946d:	48 8d 05 bc 9b 00 00 	lea    0x9bbc(%rip),%rax        # 23030 <g_46>
   19474:	48 89 85 90 fc ff ff 	mov    %rax,-0x370(%rbp)
   1947b:	48 c7 85 98 fc ff ff 	movq   $0x0,-0x368(%rbp)
   19482:	00 00 00 00 
   19486:	48 8d 85 70 ea ff ff 	lea    -0x1590(%rbp),%rax
   1948d:	48 83 c0 18          	add    $0x18,%rax
   19491:	48 89 85 a0 fc ff ff 	mov    %rax,-0x360(%rbp)
   19498:	48 c7 85 a8 fc ff ff 	movq   $0x0,-0x358(%rbp)
   1949f:	00 00 00 00 
   194a3:	48 c7 85 b0 fc ff ff 	movq   $0x0,-0x350(%rbp)
   194aa:	00 00 00 00 
   194ae:	48 8d 05 6f 9b 00 00 	lea    0x9b6f(%rip),%rax        # 23024 <g_18>
   194b5:	48 89 85 b8 fc ff ff 	mov    %rax,-0x348(%rbp)
   194bc:	48 8d 85 50 ea ff ff 	lea    -0x15b0(%rbp),%rax
   194c3:	48 89 85 c0 fc ff ff 	mov    %rax,-0x340(%rbp)
   194ca:	48 8d 05 53 9b 00 00 	lea    0x9b53(%rip),%rax        # 23024 <g_18>
   194d1:	48 89 85 c8 fc ff ff 	mov    %rax,-0x338(%rbp)
   194d8:	48 c7 85 d0 fc ff ff 	movq   $0x0,-0x330(%rbp)
   194df:	00 00 00 00 
   194e3:	48 8d 85 08 e6 ff ff 	lea    -0x19f8(%rbp),%rax
   194ea:	48 89 85 d8 fc ff ff 	mov    %rax,-0x328(%rbp)
   194f1:	48 8d 85 70 ea ff ff 	lea    -0x1590(%rbp),%rax
   194f8:	48 83 c0 18          	add    $0x18,%rax
   194fc:	48 89 85 e0 fc ff ff 	mov    %rax,-0x320(%rbp)
   19503:	48 c7 85 e8 fc ff ff 	movq   $0x0,-0x318(%rbp)
   1950a:	00 00 00 00 
   1950e:	48 c7 85 f0 fc ff ff 	movq   $0x0,-0x310(%rbp)
   19515:	00 00 00 00 
   19519:	48 8d 85 14 e6 ff ff 	lea    -0x19ec(%rbp),%rax
   19520:	48 89 85 f8 fc ff ff 	mov    %rax,-0x308(%rbp)
   19527:	48 8d 05 02 9b 00 00 	lea    0x9b02(%rip),%rax        # 23030 <g_46>
   1952e:	48 89 85 00 fd ff ff 	mov    %rax,-0x300(%rbp)
   19535:	48 8d 05 e8 9a 00 00 	lea    0x9ae8(%rip),%rax        # 23024 <g_18>
   1953c:	48 89 85 08 fd ff ff 	mov    %rax,-0x2f8(%rbp)
   19543:	48 c7 85 10 fd ff ff 	movq   $0x0,-0x2f0(%rbp)
   1954a:	00 00 00 00 
   1954e:	48 c7 85 18 fd ff ff 	movq   $0x0,-0x2e8(%rbp)
   19555:	00 00 00 00 
   19559:	48 8d 85 04 e6 ff ff 	lea    -0x19fc(%rbp),%rax
   19560:	48 89 85 20 fd ff ff 	mov    %rax,-0x2e0(%rbp)
   19567:	48 8d 85 70 ea ff ff 	lea    -0x1590(%rbp),%rax
   1956e:	48 83 c0 18          	add    $0x18,%rax
   19572:	48 89 85 28 fd ff ff 	mov    %rax,-0x2d8(%rbp)
   19579:	48 8d 85 04 e6 ff ff 	lea    -0x19fc(%rbp),%rax
   19580:	48 89 85 30 fd ff ff 	mov    %rax,-0x2d0(%rbp)
   19587:	48 8d 05 96 9a 00 00 	lea    0x9a96(%rip),%rax        # 23024 <g_18>
   1958e:	48 89 85 38 fd ff ff 	mov    %rax,-0x2c8(%rbp)
   19595:	48 8d 85 70 ea ff ff 	lea    -0x1590(%rbp),%rax
   1959c:	48 83 c0 18          	add    $0x18,%rax
   195a0:	48 89 85 40 fd ff ff 	mov    %rax,-0x2c0(%rbp)
   195a7:	48 8d 85 08 e6 ff ff 	lea    -0x19f8(%rbp),%rax
   195ae:	48 89 85 48 fd ff ff 	mov    %rax,-0x2b8(%rbp)
   195b5:	48 8d 05 74 9a 00 00 	lea    0x9a74(%rip),%rax        # 23030 <g_46>
   195bc:	48 89 85 50 fd ff ff 	mov    %rax,-0x2b0(%rbp)
   195c3:	48 c7 85 58 fd ff ff 	movq   $0x0,-0x2a8(%rbp)
   195ca:	00 00 00 00 
   195ce:	48 8d 85 f0 e5 ff ff 	lea    -0x1a10(%rbp),%rax
   195d5:	48 89 85 60 fd ff ff 	mov    %rax,-0x2a0(%rbp)
   195dc:	48 8d 05 41 9a 00 00 	lea    0x9a41(%rip),%rax        # 23024 <g_18>
   195e3:	48 89 85 68 fd ff ff 	mov    %rax,-0x298(%rbp)
   195ea:	48 8b 85 d8 e7 ff ff 	mov    -0x1828(%rbp),%rax
   195f1:	8b 00                	mov    (%rax),%eax
   195f3:	35 8e 6d 48 26       	xor    $0x26486d8e,%eax
   195f8:	89 c2                	mov    %eax,%edx
   195fa:	48 8b 85 d8 e7 ff ff 	mov    -0x1828(%rbp),%rax
   19601:	89 10                	mov    %edx,(%rax)
   19603:	48 c7 05 2a 9a 00 00 	movq   $0x0,0x9a2a(%rip)        # 23038 <g_84>
   1960a:	00 00 00 00 
   1960e:	e9 8a 00 00 00       	jmpq   1969d <func_32+0x5464>
   19613:	48 8d 85 50 ef ff ff 	lea    -0x10b0(%rbp),%rax
   1961a:	48 8d 15 9f 59 00 00 	lea    0x599f(%rip),%rdx        # 1efc0 <g_2423+0xf10>
   19621:	b9 51 00 00 00       	mov    $0x51,%ecx
   19626:	48 89 c7             	mov    %rax,%rdi
   19629:	48 89 d6             	mov    %rdx,%rsi
   1962c:	f3 48 a5             	rep movsq %ds:(%rsi),%es:(%rdi)
   1962f:	48 8d 85 04 e6 ff ff 	lea    -0x19fc(%rbp),%rax
   19636:	48 89 85 a0 e8 ff ff 	mov    %rax,-0x1760(%rbp)
   1963d:	c7 05 95 9d 00 00 01 	movl   $0x1,0x9d95(%rip)        # 233dc <g_1183>
   19644:	00 00 00 
   19647:	eb 37                	jmp    19680 <func_32+0x5447>
   19649:	48 8b 85 e0 e7 ff ff 	mov    -0x1820(%rbp),%rax
   19650:	8b 10                	mov    (%rax),%edx
   19652:	8b 85 50 f0 ff ff    	mov    -0xfb0(%rbp),%eax
   19658:	21 c2                	and    %eax,%edx
   1965a:	48 8b 85 e0 e7 ff ff 	mov    -0x1820(%rbp),%rax
   19661:	89 10                	mov    %edx,(%rax)
   19663:	48 8b 85 08 f8 ff ff 	mov    -0x7f8(%rbp),%rax
   1966a:	48 89 85 a0 e8 ff ff 	mov    %rax,-0x1760(%rbp)
   19671:	8b 05 65 9d 00 00    	mov    0x9d65(%rip),%eax        # 233dc <g_1183>
   19677:	83 c0 01             	add    $0x1,%eax
   1967a:	89 05 5c 9d 00 00    	mov    %eax,0x9d5c(%rip)        # 233dc <g_1183>
   19680:	8b 05 56 9d 00 00    	mov    0x9d56(%rip),%eax        # 233dc <g_1183>
   19686:	83 f8 04             	cmp    $0x4,%eax
   19689:	76 be                	jbe    19649 <func_32+0x5410>
   1968b:	48 8b 05 a6 99 00 00 	mov    0x99a6(%rip),%rax        # 23038 <g_84>
   19692:	48 83 c0 01          	add    $0x1,%rax
   19696:	48 89 05 9b 99 00 00 	mov    %rax,0x999b(%rip)        # 23038 <g_84>
   1969d:	48 8b 05 94 99 00 00 	mov    0x9994(%rip),%rax        # 23038 <g_84>
   196a4:	48 83 f8 01          	cmp    $0x1,%rax
   196a8:	0f 86 65 ff ff ff    	jbe    19613 <func_32+0x53da>
   196ae:	48 8b 05 3b 9a 00 00 	mov    0x9a3b(%rip),%rax        # 230f0 <g_344>
   196b5:	48 83 c0 01          	add    $0x1,%rax
   196b9:	48 89 05 30 9a 00 00 	mov    %rax,0x9a30(%rip)        # 230f0 <g_344>
   196c0:	48 8b 05 29 9a 00 00 	mov    0x9a29(%rip),%rax        # 230f0 <g_344>
   196c7:	48 83 f8 01          	cmp    $0x1,%rax
   196cb:	0f 86 98 f5 ff ff    	jbe    18c69 <func_32+0x4a30>
   196d1:	48 8b 85 d8 e7 ff ff 	mov    -0x1828(%rbp),%rax
   196d8:	8b 08                	mov    (%rax),%ecx
   196da:	48 8b 95 10 e7 ff ff 	mov    -0x18f0(%rbp),%rdx
   196e1:	48 8b 85 70 e8 ff ff 	mov    -0x1790(%rbp),%rax
   196e8:	48 89 10             	mov    %rdx,(%rax)
   196eb:	48 8b 85 70 e8 ff ff 	mov    -0x1790(%rbp),%rax
   196f2:	48 8b 00             	mov    (%rax),%rax
   196f5:	48 39 85 70 e7 ff ff 	cmp    %rax,-0x1890(%rbp)
   196fc:	0f 94 c0             	sete   %al
   196ff:	0f b6 c0             	movzbl %al,%eax
   19702:	39 c1                	cmp    %eax,%ecx
   19704:	48 8b 85 78 e8 ff ff 	mov    -0x1788(%rbp),%rax
   1970b:	48 89 05 06 c4 00 00 	mov    %rax,0xc406(%rip)        # 25b18 <g_1240>
   19712:	48 8b 05 ff c3 00 00 	mov    0xc3ff(%rip),%rax        # 25b18 <g_1240>
   19719:	48 85 c0             	test   %rax,%rax
   1971c:	0f 85 72 03 00 00    	jne    19a94 <func_32+0x585b>
   19722:	48 8d 05 b7 9c 00 00 	lea    0x9cb7(%rip),%rax        # 233e0 <g_1243>
   19729:	48 89 85 88 e8 ff ff 	mov    %rax,-0x1778(%rbp)
   19730:	c7 85 a8 e6 ff ff ff 	movl   $0xffffffff,-0x1958(%rbp)
   19737:	ff ff ff 
   1973a:	c7 85 ac e6 ff ff ff 	movl   $0xffffffff,-0x1954(%rbp)
   19741:	ff ff ff 
   19744:	48 b8 bf b9 e4 e1 f7 	movabs $0x12ef8ef7e1e4b9bf,%rax
   1974b:	8e ef 12 
   1974e:	48 89 85 90 e8 ff ff 	mov    %rax,-0x1770(%rbp)
   19755:	c7 85 68 e6 ff ff 00 	movl   $0x0,-0x1998(%rbp)
   1975c:	00 00 00 
   1975f:	eb 50                	jmp    197b1 <func_32+0x5578>
   19761:	c7 85 6c e6 ff ff 00 	movl   $0x0,-0x1994(%rbp)
   19768:	00 00 00 
   1976b:	eb 34                	jmp    197a1 <func_32+0x5568>
   1976d:	8b 85 6c e6 ff ff    	mov    -0x1994(%rbp),%eax
   19773:	48 63 c8             	movslq %eax,%rcx
   19776:	8b 85 68 e6 ff ff    	mov    -0x1998(%rbp),%eax
   1977c:	48 63 d0             	movslq %eax,%rdx
   1977f:	48 89 d0             	mov    %rdx,%rax
   19782:	48 01 c0             	add    %rax,%rax
   19785:	48 01 d0             	add    %rdx,%rax
   19788:	48 01 c8             	add    %rcx,%rax
   1978b:	48 8d 15 ae c7 00 00 	lea    0xc7ae(%rip),%rdx        # 25f40 <g_1267>
   19792:	48 89 94 c5 d0 f7 ff 	mov    %rdx,-0x830(%rbp,%rax,8)
   19799:	ff 
   1979a:	83 85 6c e6 ff ff 01 	addl   $0x1,-0x1994(%rbp)
   197a1:	83 bd 6c e6 ff ff 02 	cmpl   $0x2,-0x1994(%rbp)
   197a8:	7e c3                	jle    1976d <func_32+0x5534>
   197aa:	83 85 68 e6 ff ff 01 	addl   $0x1,-0x1998(%rbp)
   197b1:	83 bd 68 e6 ff ff 05 	cmpl   $0x5,-0x1998(%rbp)
   197b8:	7e a7                	jle    19761 <func_32+0x5528>
   197ba:	48 8b 05 57 c3 00 00 	mov    0xc357(%rip),%rax        # 25b18 <g_1240>
   197c1:	48 8b 00             	mov    (%rax),%rax
   197c4:	48 39 85 08 e8 ff ff 	cmp    %rax,-0x17f8(%rbp)
   197cb:	0f 84 54 01 00 00    	je     19925 <func_32+0x56ec>
   197d1:	48 8d 05 d0 99 00 00 	lea    0x99d0(%rip),%rax        # 231a8 <g_635>
   197d8:	48 89 85 98 e8 ff ff 	mov    %rax,-0x1768(%rbp)
   197df:	c7 85 b0 e6 ff ff ba 	movl   $0x4410eeba,-0x1950(%rbp)
   197e6:	ee 10 44 
   197e9:	0f b6 05 60 99 00 00 	movzbl 0x9960(%rip),%eax        # 23150 <g_481+0x30>
   197f0:	0f b6 d8             	movzbl %al,%ebx
   197f3:	48 8b 85 98 e8 ff ff 	mov    -0x1768(%rbp),%rax
   197fa:	c7 00 07 00 00 00    	movl   $0x7,(%rax)
   19800:	48 8b 85 c8 e5 ff ff 	mov    -0x1a38(%rbp),%rax
   19807:	48 8b 00             	mov    (%rax),%rax
   1980a:	48 83 f8 04          	cmp    $0x4,%rax
   1980e:	0f 9f c0             	setg   %al
   19811:	0f b6 c0             	movzbl %al,%eax
   19814:	89 c6                	mov    %eax,%esi
   19816:	bf fa ff ff ff       	mov    $0xfffffffa,%edi
   1981b:	e8 ce ea fe ff       	callq  82ee <safe_lshift_func_int8_t_s_u>
   19820:	48 8d 05 b9 9b 00 00 	lea    0x9bb9(%rip),%rax        # 233e0 <g_1243>
   19827:	44 8b 20             	mov    (%rax),%r12d
   1982a:	48 8b 85 c0 e5 ff ff 	mov    -0x1a40(%rbp),%rax
   19831:	0f b6 00             	movzbl (%rax),%eax
   19834:	0f be d0             	movsbl %al,%edx
   19837:	48 c7 85 88 e8 ff ff 	movq   $0x0,-0x1778(%rbp)
   1983e:	00 00 00 00 
   19842:	48 83 bd 88 e8 ff ff 	cmpq   $0x0,-0x1778(%rbp)
   19849:	00 
   1984a:	0f 94 c0             	sete   %al
   1984d:	0f b6 c0             	movzbl %al,%eax
   19850:	39 85 b0 e6 ff ff    	cmp    %eax,-0x1950(%rbp)
   19856:	0f 94 c0             	sete   %al
   19859:	0f b6 c0             	movzbl %al,%eax
   1985c:	89 d6                	mov    %edx,%esi
   1985e:	89 c7                	mov    %eax,%edi
   19860:	e8 05 ea fe ff       	callq  826a <safe_div_func_int8_t_s_s>
   19865:	0f be c0             	movsbl %al,%eax
   19868:	be 00 00 00 00       	mov    $0x0,%esi
   1986d:	89 c7                	mov    %eax,%edi
   1986f:	e8 42 ed fe ff       	callq  85b6 <safe_add_func_int32_t_s_s>
   19874:	f7 d0                	not    %eax
   19876:	0f b6 c0             	movzbl %al,%eax
   19879:	89 c7                	mov    %eax,%edi
   1987b:	e8 c5 f2 fe ff       	callq  8b45 <safe_unary_minus_func_uint8_t_u>
   19880:	0f b6 c0             	movzbl %al,%eax
   19883:	39 85 b0 e6 ff ff    	cmp    %eax,-0x1950(%rbp)
   19889:	0f 95 c0             	setne  %al
   1988c:	0f b6 d0             	movzbl %al,%edx
   1988f:	8b 05 33 9b 00 00    	mov    0x9b33(%rip),%eax        # 233c8 <g_1079>
   19895:	39 c2                	cmp    %eax,%edx
   19897:	be a1 ff ff ff       	mov    $0xffffffa1,%esi
   1989c:	bf 07 00 00 00       	mov    $0x7,%edi
   198a1:	e8 8b e9 fe ff       	callq  8231 <safe_mod_func_int8_t_s_s>
   198a6:	0f be c0             	movsbl %al,%eax
   198a9:	39 85 b0 e6 ff ff    	cmp    %eax,-0x1950(%rbp)
   198af:	0f 9c c0             	setl   %al
   198b2:	0f b6 c0             	movzbl %al,%eax
   198b5:	be 07 00 00 00       	mov    $0x7,%esi
   198ba:	89 c7                	mov    %eax,%edi
   198bc:	e8 51 e9 fe ff       	callq  8212 <safe_mul_func_int8_t_s_s>
   198c1:	0f be c0             	movsbl %al,%eax
   198c4:	44 89 e6             	mov    %r12d,%esi
   198c7:	89 c7                	mov    %eax,%edi
   198c9:	e8 57 f6 fe ff       	callq  8f25 <safe_div_func_uint32_t_u_u>
   198ce:	89 c2                	mov    %eax,%edx
   198d0:	8b 85 f4 ee ff ff    	mov    -0x110c(%rbp),%eax
   198d6:	48 98                	cltq   
   198d8:	48 89 d6             	mov    %rdx,%rsi
   198db:	48 89 c7             	mov    %rax,%rdi
   198de:	e8 9d f7 fe ff       	callq  9080 <safe_mod_func_uint64_t_u_u>
   198e3:	48 89 c2             	mov    %rax,%rdx
   198e6:	48 8b 85 28 e7 ff ff 	mov    -0x18d8(%rbp),%rax
   198ed:	66 89 10             	mov    %dx,(%rax)
   198f0:	0f b7 00             	movzwl (%rax),%eax
   198f3:	0f b7 c0             	movzwl %ax,%eax
   198f6:	89 de                	mov    %ebx,%esi
   198f8:	89 c7                	mov    %eax,%edi
   198fa:	e8 bf f4 fe ff       	callq  8dbe <safe_lshift_func_uint16_t_u_s>
   198ff:	66 85 c0             	test   %ax,%ax
   19902:	75 0a                	jne    1990e <func_32+0x56d5>
   19904:	8b 05 9e 98 00 00    	mov    0x989e(%rip),%eax        # 231a8 <g_635>
   1990a:	85 c0                	test   %eax,%eax
   1990c:	74 07                	je     19915 <func_32+0x56dc>
   1990e:	ba 01 00 00 00       	mov    $0x1,%edx
   19913:	eb 05                	jmp    1991a <func_32+0x56e1>
   19915:	ba 00 00 00 00       	mov    $0x0,%edx
   1991a:	48 8b 05 d7 b1 00 00 	mov    0xb1d7(%rip),%rax        # 24af8 <g_108>
   19921:	89 10                	mov    %edx,(%rax)
   19923:	eb 12                	jmp    19937 <func_32+0x56fe>
   19925:	48 8b 85 e8 e7 ff ff 	mov    -0x1818(%rbp),%rax
   1992c:	8b 10                	mov    (%rax),%edx
   1992e:	48 8b 85 d8 e7 ff ff 	mov    -0x1828(%rbp),%rax
   19935:	89 10                	mov    %edx,(%rax)
   19937:	48 8b 05 02 c6 00 00 	mov    0xc602(%rip),%rax        # 25f40 <g_1267>
   1993e:	48 89 85 18 e7 ff ff 	mov    %rax,-0x18e8(%rbp)
   19945:	48 8b 85 18 e7 ff ff 	mov    -0x18e8(%rbp),%rax
   1994c:	48 89 05 ed c5 00 00 	mov    %rax,0xc5ed(%rip)        # 25f40 <g_1267>
   19953:	48 8b 05 e6 c5 00 00 	mov    0xc5e6(%rip),%rax        # 25f40 <g_1267>
   1995a:	48 85 c0             	test   %rax,%rax
   1995d:	0f 84 0d 01 00 00    	je     19a70 <func_32+0x5837>
   19963:	c7 85 b4 e6 ff ff be 	movl   $0xfd450be,-0x194c(%rbp)
   1996a:	50 d4 0f 
   1996d:	c7 85 b8 e6 ff ff 09 	movl   $0x9,-0x1948(%rbp)
   19974:	00 00 00 
   19977:	c7 85 50 ef ff ff e4 	movl   $0x85d57fe4,-0x10b0(%rbp)
   1997e:	7f d5 85 
   19981:	c7 85 54 ef ff ff e4 	movl   $0x85d57fe4,-0x10ac(%rbp)
   19988:	7f d5 85 
   1998b:	c7 85 58 ef ff ff e4 	movl   $0x85d57fe4,-0x10a8(%rbp)
   19992:	7f d5 85 
   19995:	c7 85 5c ef ff ff e4 	movl   $0x85d57fe4,-0x10a4(%rbp)
   1999c:	7f d5 85 
   1999f:	c7 85 60 ef ff ff e4 	movl   $0x85d57fe4,-0x10a0(%rbp)
   199a6:	7f d5 85 
   199a9:	c7 85 64 ef ff ff e4 	movl   $0x85d57fe4,-0x109c(%rbp)
   199b0:	7f d5 85 
   199b3:	c7 85 68 ef ff ff e4 	movl   $0x85d57fe4,-0x1098(%rbp)
   199ba:	7f d5 85 
   199bd:	48 8b 05 34 b1 00 00 	mov    0xb134(%rip),%rax        # 24af8 <g_108>
   199c4:	48 8b 95 d8 e7 ff ff 	mov    -0x1828(%rbp),%rdx
   199cb:	8b 12                	mov    (%rdx),%edx
   199cd:	89 10                	mov    %edx,(%rax)
   199cf:	83 bd a8 e6 ff ff 00 	cmpl   $0x0,-0x1958(%rbp)
   199d6:	74 47                	je     19a1f <func_32+0x57e6>
   199d8:	c7 85 bc e6 ff ff 00 	movl   $0x0,-0x1944(%rbp)
   199df:	00 00 00 
   199e2:	c7 85 c0 e6 ff ff 24 	movl   $0xcbbd124,-0x1940(%rbp)
   199e9:	d1 bb 0c 
   199ec:	c7 85 c4 e6 ff ff 16 	movl   $0xe5b97a16,-0x193c(%rbp)
   199f3:	7a b9 e5 
   199f6:	c7 85 c8 e6 ff ff bc 	movl   $0xb82559bc,-0x1938(%rbp)
   199fd:	59 25 b8 
   19a00:	83 85 bc e6 ff ff 01 	addl   $0x1,-0x1944(%rbp)
   19a07:	48 83 ad 90 e8 ff ff 	subq   $0x1,-0x1770(%rbp)
   19a0e:	01 
   19a0f:	48 8b 05 42 c5 00 00 	mov    0xc542(%rip),%rax        # 25f58 <g_1286>
   19a16:	48 89 85 48 e7 ff ff 	mov    %rax,-0x18b8(%rbp)
   19a1d:	eb 62                	jmp    19a81 <func_32+0x5848>
   19a1f:	48 8b 85 d8 e7 ff ff 	mov    -0x1828(%rbp),%rax
   19a26:	8b 00                	mov    (%rax),%eax
   19a28:	23 85 b4 e6 ff ff    	and    -0x194c(%rbp),%eax
   19a2e:	89 c2                	mov    %eax,%edx
   19a30:	48 8b 85 d8 e7 ff ff 	mov    -0x1828(%rbp),%rax
   19a37:	89 10                	mov    %edx,(%rax)
   19a39:	48 8b 85 90 e8 ff ff 	mov    -0x1770(%rbp),%rax
   19a40:	89 85 58 ef ff ff    	mov    %eax,-0x10a8(%rbp)
   19a46:	48 8b 85 e0 e7 ff ff 	mov    -0x1820(%rbp),%rax
   19a4d:	8b 00                	mov    (%rax),%eax
   19a4f:	85 c0                	test   %eax,%eax
   19a51:	0f 85 ec 05 00 00    	jne    1a043 <func_32+0x5e0a>
   19a57:	48 8b 85 e0 e7 ff ff 	mov    -0x1820(%rbp),%rax
   19a5e:	8b 00                	mov    (%rax),%eax
   19a60:	83 e0 f8             	and    $0xfffffff8,%eax
   19a63:	89 c2                	mov    %eax,%edx
   19a65:	48 8b 85 e0 e7 ff ff 	mov    -0x1820(%rbp),%rax
   19a6c:	89 10                	mov    %edx,(%rax)
   19a6e:	eb 11                	jmp    19a81 <func_32+0x5848>
   19a70:	0f b7 85 34 ea ff ff 	movzwl -0x15cc(%rbp),%eax
   19a77:	83 c0 01             	add    $0x1,%eax
   19a7a:	66 89 85 34 ea ff ff 	mov    %ax,-0x15cc(%rbp)
   19a81:	8b 85 44 ee ff ff    	mov    -0x11bc(%rbp),%eax
   19a87:	85 c0                	test   %eax,%eax
   19a89:	0f 84 ab 05 00 00    	je     1a03a <func_32+0x5e01>
   19a8f:	e9 b0 05 00 00       	jmpq   1a044 <func_32+0x5e0b>
   19a94:	48 8d 85 18 e7 ff ff 	lea    -0x18e8(%rbp),%rax
   19a9b:	48 89 85 d0 f7 ff ff 	mov    %rax,-0x830(%rbp)
   19aa2:	48 8d 05 97 c4 00 00 	lea    0xc497(%rip),%rax        # 25f40 <g_1267>
   19aa9:	48 89 85 d8 f7 ff ff 	mov    %rax,-0x828(%rbp)
   19ab0:	48 8d 05 89 c4 00 00 	lea    0xc489(%rip),%rax        # 25f40 <g_1267>
   19ab7:	48 89 85 e0 f7 ff ff 	mov    %rax,-0x820(%rbp)
   19abe:	48 8d 85 18 e7 ff ff 	lea    -0x18e8(%rbp),%rax
   19ac5:	48 89 85 e8 f7 ff ff 	mov    %rax,-0x818(%rbp)
   19acc:	48 8d 05 6d c4 00 00 	lea    0xc46d(%rip),%rax        # 25f40 <g_1267>
   19ad3:	48 89 85 f0 f7 ff ff 	mov    %rax,-0x810(%rbp)
   19ada:	48 8d 05 5f c4 00 00 	lea    0xc45f(%rip),%rax        # 25f40 <g_1267>
   19ae1:	48 89 85 f8 f7 ff ff 	mov    %rax,-0x808(%rbp)
   19ae8:	48 8d 05 51 c4 00 00 	lea    0xc451(%rip),%rax        # 25f40 <g_1267>
   19aef:	48 89 85 00 f8 ff ff 	mov    %rax,-0x800(%rbp)
   19af6:	48 8d 05 43 c4 00 00 	lea    0xc443(%rip),%rax        # 25f40 <g_1267>
   19afd:	48 89 85 08 f8 ff ff 	mov    %rax,-0x7f8(%rbp)
   19b04:	48 8d 05 35 c4 00 00 	lea    0xc435(%rip),%rax        # 25f40 <g_1267>
   19b0b:	48 89 85 10 f8 ff ff 	mov    %rax,-0x7f0(%rbp)
   19b12:	48 8d 85 18 e7 ff ff 	lea    -0x18e8(%rbp),%rax
   19b19:	48 89 85 18 f8 ff ff 	mov    %rax,-0x7e8(%rbp)
   19b20:	48 8d 05 19 c4 00 00 	lea    0xc419(%rip),%rax        # 25f40 <g_1267>
   19b27:	48 89 85 20 f8 ff ff 	mov    %rax,-0x7e0(%rbp)
   19b2e:	48 8d 05 0b c4 00 00 	lea    0xc40b(%rip),%rax        # 25f40 <g_1267>
   19b35:	48 89 85 28 f8 ff ff 	mov    %rax,-0x7d8(%rbp)
   19b3c:	48 8d 85 18 e7 ff ff 	lea    -0x18e8(%rbp),%rax
   19b43:	48 89 85 30 f8 ff ff 	mov    %rax,-0x7d0(%rbp)
   19b4a:	48 8d 05 ef c3 00 00 	lea    0xc3ef(%rip),%rax        # 25f40 <g_1267>
   19b51:	48 89 85 38 f8 ff ff 	mov    %rax,-0x7c8(%rbp)
   19b58:	48 8d 05 e1 c3 00 00 	lea    0xc3e1(%rip),%rax        # 25f40 <g_1267>
   19b5f:	48 89 85 40 f8 ff ff 	mov    %rax,-0x7c0(%rbp)
   19b66:	48 8d 85 18 e7 ff ff 	lea    -0x18e8(%rbp),%rax
   19b6d:	48 89 85 48 f8 ff ff 	mov    %rax,-0x7b8(%rbp)
   19b74:	48 8d 85 18 e7 ff ff 	lea    -0x18e8(%rbp),%rax
   19b7b:	48 89 85 50 f8 ff ff 	mov    %rax,-0x7b0(%rbp)
   19b82:	48 c7 85 58 f8 ff ff 	movq   $0x0,-0x7a8(%rbp)
   19b89:	00 00 00 00 
   19b8d:	48 8d 85 18 e7 ff ff 	lea    -0x18e8(%rbp),%rax
   19b94:	48 89 85 60 f8 ff ff 	mov    %rax,-0x7a0(%rbp)
   19b9b:	48 8d 85 18 e7 ff ff 	lea    -0x18e8(%rbp),%rax
   19ba2:	48 89 85 68 f8 ff ff 	mov    %rax,-0x798(%rbp)
   19ba9:	48 8d 05 90 c3 00 00 	lea    0xc390(%rip),%rax        # 25f40 <g_1267>
   19bb0:	48 89 85 70 f8 ff ff 	mov    %rax,-0x790(%rbp)
   19bb7:	48 8d 05 82 c3 00 00 	lea    0xc382(%rip),%rax        # 25f40 <g_1267>
   19bbe:	48 89 85 78 f8 ff ff 	mov    %rax,-0x788(%rbp)
   19bc5:	48 8d 85 18 e7 ff ff 	lea    -0x18e8(%rbp),%rax
   19bcc:	48 89 85 80 f8 ff ff 	mov    %rax,-0x780(%rbp)
   19bd3:	48 8d 05 66 c3 00 00 	lea    0xc366(%rip),%rax        # 25f40 <g_1267>
   19bda:	48 89 85 88 f8 ff ff 	mov    %rax,-0x778(%rbp)
   19be1:	48 8d 05 58 c3 00 00 	lea    0xc358(%rip),%rax        # 25f40 <g_1267>
   19be8:	48 89 85 90 f8 ff ff 	mov    %rax,-0x770(%rbp)
   19bef:	48 8d 85 18 e7 ff ff 	lea    -0x18e8(%rbp),%rax
   19bf6:	48 89 85 98 f8 ff ff 	mov    %rax,-0x768(%rbp)
   19bfd:	48 8d 05 3c c3 00 00 	lea    0xc33c(%rip),%rax        # 25f40 <g_1267>
   19c04:	48 89 85 a0 f8 ff ff 	mov    %rax,-0x760(%rbp)
   19c0b:	48 8d 05 2e c3 00 00 	lea    0xc32e(%rip),%rax        # 25f40 <g_1267>
   19c12:	48 89 85 a8 f8 ff ff 	mov    %rax,-0x758(%rbp)
   19c19:	48 8d 05 20 c3 00 00 	lea    0xc320(%rip),%rax        # 25f40 <g_1267>
   19c20:	48 89 85 b0 f8 ff ff 	mov    %rax,-0x750(%rbp)
   19c27:	48 8d 05 12 c3 00 00 	lea    0xc312(%rip),%rax        # 25f40 <g_1267>
   19c2e:	48 89 85 b8 f8 ff ff 	mov    %rax,-0x748(%rbp)
   19c35:	48 8d 05 04 c3 00 00 	lea    0xc304(%rip),%rax        # 25f40 <g_1267>
   19c3c:	48 89 85 c0 f8 ff ff 	mov    %rax,-0x740(%rbp)
   19c43:	48 8d 85 18 e7 ff ff 	lea    -0x18e8(%rbp),%rax
   19c4a:	48 89 85 c8 f8 ff ff 	mov    %rax,-0x738(%rbp)
   19c51:	48 8d 05 e8 c2 00 00 	lea    0xc2e8(%rip),%rax        # 25f40 <g_1267>
   19c58:	48 89 85 d0 f8 ff ff 	mov    %rax,-0x730(%rbp)
   19c5f:	48 8d 05 da c2 00 00 	lea    0xc2da(%rip),%rax        # 25f40 <g_1267>
   19c66:	48 89 85 d8 f8 ff ff 	mov    %rax,-0x728(%rbp)
   19c6d:	48 8d 85 18 e7 ff ff 	lea    -0x18e8(%rbp),%rax
   19c74:	48 89 85 e0 f8 ff ff 	mov    %rax,-0x720(%rbp)
   19c7b:	48 8d 05 be c2 00 00 	lea    0xc2be(%rip),%rax        # 25f40 <g_1267>
   19c82:	48 89 85 e8 f8 ff ff 	mov    %rax,-0x718(%rbp)
   19c89:	48 8d 05 b0 c2 00 00 	lea    0xc2b0(%rip),%rax        # 25f40 <g_1267>
   19c90:	48 89 85 f0 f8 ff ff 	mov    %rax,-0x710(%rbp)
   19c97:	48 8d 85 18 e7 ff ff 	lea    -0x18e8(%rbp),%rax
   19c9e:	48 89 85 f8 f8 ff ff 	mov    %rax,-0x708(%rbp)
   19ca5:	48 8d 85 18 e7 ff ff 	lea    -0x18e8(%rbp),%rax
   19cac:	48 89 85 00 f9 ff ff 	mov    %rax,-0x700(%rbp)
   19cb3:	48 c7 85 08 f9 ff ff 	movq   $0x0,-0x6f8(%rbp)
   19cba:	00 00 00 00 
   19cbe:	48 8d 85 18 e7 ff ff 	lea    -0x18e8(%rbp),%rax
   19cc5:	48 89 85 10 f9 ff ff 	mov    %rax,-0x6f0(%rbp)
   19ccc:	48 8d 85 18 e7 ff ff 	lea    -0x18e8(%rbp),%rax
   19cd3:	48 89 85 18 f9 ff ff 	mov    %rax,-0x6e8(%rbp)
   19cda:	48 8d 05 5f c2 00 00 	lea    0xc25f(%rip),%rax        # 25f40 <g_1267>
   19ce1:	48 89 85 20 f9 ff ff 	mov    %rax,-0x6e0(%rbp)
   19ce8:	48 8d 05 51 c2 00 00 	lea    0xc251(%rip),%rax        # 25f40 <g_1267>
   19cef:	48 89 85 28 f9 ff ff 	mov    %rax,-0x6d8(%rbp)
   19cf6:	48 8d 85 18 e7 ff ff 	lea    -0x18e8(%rbp),%rax
   19cfd:	48 89 85 30 f9 ff ff 	mov    %rax,-0x6d0(%rbp)
   19d04:	48 8d 05 35 c2 00 00 	lea    0xc235(%rip),%rax        # 25f40 <g_1267>
   19d0b:	48 89 85 38 f9 ff ff 	mov    %rax,-0x6c8(%rbp)
   19d12:	48 8d 05 27 c2 00 00 	lea    0xc227(%rip),%rax        # 25f40 <g_1267>
   19d19:	48 89 85 40 f9 ff ff 	mov    %rax,-0x6c0(%rbp)
   19d20:	48 8d 85 18 e7 ff ff 	lea    -0x18e8(%rbp),%rax
   19d27:	48 89 85 48 f9 ff ff 	mov    %rax,-0x6b8(%rbp)
   19d2e:	48 8d 05 0b c2 00 00 	lea    0xc20b(%rip),%rax        # 25f40 <g_1267>
   19d35:	48 89 85 50 f9 ff ff 	mov    %rax,-0x6b0(%rbp)
   19d3c:	48 8d 05 fd c1 00 00 	lea    0xc1fd(%rip),%rax        # 25f40 <g_1267>
   19d43:	48 89 85 58 f9 ff ff 	mov    %rax,-0x6a8(%rbp)
   19d4a:	48 8d 05 ef c1 00 00 	lea    0xc1ef(%rip),%rax        # 25f40 <g_1267>
   19d51:	48 89 85 60 f9 ff ff 	mov    %rax,-0x6a0(%rbp)
   19d58:	48 8d 05 e1 c1 00 00 	lea    0xc1e1(%rip),%rax        # 25f40 <g_1267>
   19d5f:	48 89 85 68 f9 ff ff 	mov    %rax,-0x698(%rbp)
   19d66:	48 8d 05 d3 c1 00 00 	lea    0xc1d3(%rip),%rax        # 25f40 <g_1267>
   19d6d:	48 89 85 70 f9 ff ff 	mov    %rax,-0x690(%rbp)
   19d74:	48 8d 85 18 e7 ff ff 	lea    -0x18e8(%rbp),%rax
   19d7b:	48 89 85 78 f9 ff ff 	mov    %rax,-0x688(%rbp)
   19d82:	48 8d 05 b7 c1 00 00 	lea    0xc1b7(%rip),%rax        # 25f40 <g_1267>
   19d89:	48 89 85 80 f9 ff ff 	mov    %rax,-0x680(%rbp)
   19d90:	48 8d 05 a9 c1 00 00 	lea    0xc1a9(%rip),%rax        # 25f40 <g_1267>
   19d97:	48 89 85 88 f9 ff ff 	mov    %rax,-0x678(%rbp)
   19d9e:	48 8d 85 18 e7 ff ff 	lea    -0x18e8(%rbp),%rax
   19da5:	48 89 85 90 f9 ff ff 	mov    %rax,-0x670(%rbp)
   19dac:	48 8d 05 8d c1 00 00 	lea    0xc18d(%rip),%rax        # 25f40 <g_1267>
   19db3:	48 89 85 98 f9 ff ff 	mov    %rax,-0x668(%rbp)
   19dba:	48 8d 05 7f c1 00 00 	lea    0xc17f(%rip),%rax        # 25f40 <g_1267>
   19dc1:	48 89 85 a0 f9 ff ff 	mov    %rax,-0x660(%rbp)
   19dc8:	48 8d 85 18 e7 ff ff 	lea    -0x18e8(%rbp),%rax
   19dcf:	48 89 85 a8 f9 ff ff 	mov    %rax,-0x658(%rbp)
   19dd6:	48 8d 85 18 e7 ff ff 	lea    -0x18e8(%rbp),%rax
   19ddd:	48 89 85 b0 f9 ff ff 	mov    %rax,-0x650(%rbp)
   19de4:	48 c7 85 b8 f9 ff ff 	movq   $0x0,-0x648(%rbp)
   19deb:	00 00 00 00 
   19def:	48 8d 85 18 e7 ff ff 	lea    -0x18e8(%rbp),%rax
   19df6:	48 89 85 c0 f9 ff ff 	mov    %rax,-0x640(%rbp)
   19dfd:	48 8d 85 18 e7 ff ff 	lea    -0x18e8(%rbp),%rax
   19e04:	48 89 85 c8 f9 ff ff 	mov    %rax,-0x638(%rbp)
   19e0b:	48 8d 05 2e c1 00 00 	lea    0xc12e(%rip),%rax        # 25f40 <g_1267>
   19e12:	48 89 85 d0 f9 ff ff 	mov    %rax,-0x630(%rbp)
   19e19:	48 8d 05 20 c1 00 00 	lea    0xc120(%rip),%rax        # 25f40 <g_1267>
   19e20:	48 89 85 d8 f9 ff ff 	mov    %rax,-0x628(%rbp)
   19e27:	48 8d 85 18 e7 ff ff 	lea    -0x18e8(%rbp),%rax
   19e2e:	48 89 85 e0 f9 ff ff 	mov    %rax,-0x620(%rbp)
   19e35:	48 8d 05 04 c1 00 00 	lea    0xc104(%rip),%rax        # 25f40 <g_1267>
   19e3c:	48 89 85 e8 f9 ff ff 	mov    %rax,-0x618(%rbp)
   19e43:	48 8d 05 f6 c0 00 00 	lea    0xc0f6(%rip),%rax        # 25f40 <g_1267>
   19e4a:	48 89 85 f0 f9 ff ff 	mov    %rax,-0x610(%rbp)
   19e51:	48 8d 85 18 e7 ff ff 	lea    -0x18e8(%rbp),%rax
   19e58:	48 89 85 f8 f9 ff ff 	mov    %rax,-0x608(%rbp)
   19e5f:	48 8d 05 da c0 00 00 	lea    0xc0da(%rip),%rax        # 25f40 <g_1267>
   19e66:	48 89 85 00 fa ff ff 	mov    %rax,-0x600(%rbp)
   19e6d:	48 8d 05 cc c0 00 00 	lea    0xc0cc(%rip),%rax        # 25f40 <g_1267>
   19e74:	48 89 85 08 fa ff ff 	mov    %rax,-0x5f8(%rbp)
   19e7b:	48 8d 05 be c0 00 00 	lea    0xc0be(%rip),%rax        # 25f40 <g_1267>
   19e82:	48 89 85 10 fa ff ff 	mov    %rax,-0x5f0(%rbp)
   19e89:	48 8d 05 b0 c0 00 00 	lea    0xc0b0(%rip),%rax        # 25f40 <g_1267>
   19e90:	48 89 85 18 fa ff ff 	mov    %rax,-0x5e8(%rbp)
   19e97:	48 8d 05 a2 c0 00 00 	lea    0xc0a2(%rip),%rax        # 25f40 <g_1267>
   19e9e:	48 89 85 20 fa ff ff 	mov    %rax,-0x5e0(%rbp)
   19ea5:	48 8d 85 18 e7 ff ff 	lea    -0x18e8(%rbp),%rax
   19eac:	48 89 85 28 fa ff ff 	mov    %rax,-0x5d8(%rbp)
   19eb3:	48 8d 05 86 c0 00 00 	lea    0xc086(%rip),%rax        # 25f40 <g_1267>
   19eba:	48 89 85 30 fa ff ff 	mov    %rax,-0x5d0(%rbp)
   19ec1:	48 8d 05 78 c0 00 00 	lea    0xc078(%rip),%rax        # 25f40 <g_1267>
   19ec8:	48 89 85 38 fa ff ff 	mov    %rax,-0x5c8(%rbp)
   19ecf:	48 8d 85 18 e7 ff ff 	lea    -0x18e8(%rbp),%rax
   19ed6:	48 89 85 40 fa ff ff 	mov    %rax,-0x5c0(%rbp)
   19edd:	48 8d 05 5c c0 00 00 	lea    0xc05c(%rip),%rax        # 25f40 <g_1267>
   19ee4:	48 89 85 48 fa ff ff 	mov    %rax,-0x5b8(%rbp)
   19eeb:	48 8d 05 4e c0 00 00 	lea    0xc04e(%rip),%rax        # 25f40 <g_1267>
   19ef2:	48 89 85 50 fa ff ff 	mov    %rax,-0x5b0(%rbp)
   19ef9:	48 8d 85 18 e7 ff ff 	lea    -0x18e8(%rbp),%rax
   19f00:	48 89 85 58 fa ff ff 	mov    %rax,-0x5a8(%rbp)
   19f07:	48 8d 85 18 e7 ff ff 	lea    -0x18e8(%rbp),%rax
   19f0e:	48 89 85 60 fa ff ff 	mov    %rax,-0x5a0(%rbp)
   19f15:	48 c7 85 68 fa ff ff 	movq   $0x0,-0x598(%rbp)
   19f1c:	00 00 00 00 
   19f20:	48 8d 85 18 e7 ff ff 	lea    -0x18e8(%rbp),%rax
   19f27:	48 89 85 70 fa ff ff 	mov    %rax,-0x590(%rbp)
   19f2e:	48 8d 85 18 e7 ff ff 	lea    -0x18e8(%rbp),%rax
   19f35:	48 89 85 78 fa ff ff 	mov    %rax,-0x588(%rbp)
   19f3c:	48 8d 05 fd bf 00 00 	lea    0xbffd(%rip),%rax        # 25f40 <g_1267>
   19f43:	48 89 85 80 fa ff ff 	mov    %rax,-0x580(%rbp)
   19f4a:	48 8d 05 ef bf 00 00 	lea    0xbfef(%rip),%rax        # 25f40 <g_1267>
   19f51:	48 89 85 88 fa ff ff 	mov    %rax,-0x578(%rbp)
   19f58:	48 8d 85 18 e7 ff ff 	lea    -0x18e8(%rbp),%rax
   19f5f:	48 89 85 90 fa ff ff 	mov    %rax,-0x570(%rbp)
   19f66:	48 8d 05 d3 bf 00 00 	lea    0xbfd3(%rip),%rax        # 25f40 <g_1267>
   19f6d:	48 89 85 98 fa ff ff 	mov    %rax,-0x568(%rbp)
   19f74:	48 8d 05 c5 bf 00 00 	lea    0xbfc5(%rip),%rax        # 25f40 <g_1267>
   19f7b:	48 89 85 a0 fa ff ff 	mov    %rax,-0x560(%rbp)
   19f82:	48 8d 85 18 e7 ff ff 	lea    -0x18e8(%rbp),%rax
   19f89:	48 89 85 a8 fa ff ff 	mov    %rax,-0x558(%rbp)
   19f90:	48 8d 05 a9 bf 00 00 	lea    0xbfa9(%rip),%rax        # 25f40 <g_1267>
   19f97:	48 89 85 b0 fa ff ff 	mov    %rax,-0x550(%rbp)
   19f9e:	48 8d 05 9b bf 00 00 	lea    0xbf9b(%rip),%rax        # 25f40 <g_1267>
   19fa5:	48 89 85 b8 fa ff ff 	mov    %rax,-0x548(%rbp)
   19fac:	48 8d 05 8d bf 00 00 	lea    0xbf8d(%rip),%rax        # 25f40 <g_1267>
   19fb3:	48 89 85 c0 fa ff ff 	mov    %rax,-0x540(%rbp)
   19fba:	48 8d 05 7f bf 00 00 	lea    0xbf7f(%rip),%rax        # 25f40 <g_1267>
   19fc1:	48 89 85 c8 fa ff ff 	mov    %rax,-0x538(%rbp)
   19fc8:	48 8d 85 d0 f7 ff ff 	lea    -0x830(%rbp),%rax
   19fcf:	48 05 e0 01 00 00    	add    $0x1e0,%rax
   19fd5:	48 89 85 80 e8 ff ff 	mov    %rax,-0x1780(%rbp)
   19fdc:	c7 85 a4 e6 ff ff 1c 	movl   $0xdd660b1c,-0x195c(%rbp)
   19fe3:	0b 66 dd 
   19fe6:	48 8b 85 80 e8 ff ff 	mov    -0x1780(%rbp),%rax
   19fed:	48 8d 15 4c bf 00 00 	lea    0xbf4c(%rip),%rdx        # 25f40 <g_1267>
   19ff4:	48 89 10             	mov    %rdx,(%rax)
   19ff7:	48 8b 85 48 e7 ff ff 	mov    -0x18b8(%rbp),%rax
   19ffe:	48 8b 00             	mov    (%rax),%rax
   1a001:	48 8d 15 38 bf 00 00 	lea    0xbf38(%rip),%rdx        # 25f40 <g_1267>
   1a008:	48 39 d0             	cmp    %rdx,%rax
   1a00b:	0f 95 c0             	setne  %al
   1a00e:	0f b6 c0             	movzbl %al,%eax
   1a011:	89 85 a4 e6 ff ff    	mov    %eax,-0x195c(%rbp)
   1a017:	8b 95 a4 e6 ff ff    	mov    -0x195c(%rbp),%edx
   1a01d:	48 8b 85 d8 e7 ff ff 	mov    -0x1828(%rbp),%rax
   1a024:	8b 00                	mov    (%rax),%eax
   1a026:	21 c2                	and    %eax,%edx
   1a028:	48 8b 85 d8 e7 ff ff 	mov    -0x1828(%rbp),%rax
   1a02f:	89 10                	mov    %edx,(%rax)
   1a031:	48 8b 85 10 e8 ff ff 	mov    -0x17f0(%rbp),%rax
   1a038:	eb 11                	jmp    1a04b <func_32+0x5e12>
   1a03a:	48 8b 85 80 e7 ff ff 	mov    -0x1880(%rbp),%rax
   1a041:	eb 08                	jmp    1a04b <func_32+0x5e12>
   1a043:	90                   	nop
   1a044:	48 8b 85 90 e7 ff ff 	mov    -0x1870(%rbp),%rax
   1a04b:	48 8b 5d c8          	mov    -0x38(%rbp),%rbx
   1a04f:	64 48 33 1c 25 28 00 	xor    %fs:0x28,%rbx
   1a056:	00 00 
   1a058:	74 05                	je     1a05f <func_32+0x5e26>
   1a05a:	e8 11 e0 fe ff       	callq  8070 <__stack_chk_fail@plt>
   1a05f:	48 81 c4 28 1a 00 00 	add    $0x1a28,%rsp
   1a066:	5b                   	pop    %rbx
   1a067:	41 5c                	pop    %r12
   1a069:	41 5d                	pop    %r13
   1a06b:	41 5e                	pop    %r14
   1a06d:	41 5f                	pop    %r15
   1a06f:	5d                   	pop    %rbp
   1a070:	c3                   	retq   

000000000001a071 <func_35>:
   1a071:	f3 0f 1e fa          	endbr64 
   1a075:	55                   	push   %rbp
   1a076:	48 89 e5             	mov    %rsp,%rbp
   1a079:	41 57                	push   %r15
   1a07b:	41 56                	push   %r14
   1a07d:	41 55                	push   %r13
   1a07f:	41 54                	push   %r12
   1a081:	53                   	push   %rbx
   1a082:	48 81 ec 00 10 00 00 	sub    $0x1000,%rsp
   1a089:	48 83 0c 24 00       	orq    $0x0,(%rsp)
   1a08e:	48 81 ec e8 02 00 00 	sub    $0x2e8,%rsp
   1a095:	48 89 bd 08 ed ff ff 	mov    %rdi,-0x12f8(%rbp)
   1a09c:	48 89 b5 00 ed ff ff 	mov    %rsi,-0x1300(%rbp)
   1a0a3:	64 48 8b 04 25 28 00 	mov    %fs:0x28,%rax
   1a0aa:	00 00 
   1a0ac:	48 89 45 c8          	mov    %rax,-0x38(%rbp)
   1a0b0:	31 c0                	xor    %eax,%eax
   1a0b2:	c7 85 b8 ed ff ff fc 	movl   $0xfffffffc,-0x1248(%rbp)
   1a0b9:	ff ff ff 
   1a0bc:	c7 85 2c ed ff ff 34 	movl   $0xe3cec334,-0x12d4(%rbp)
   1a0c3:	c3 ce e3 
   1a0c6:	c7 85 30 ed ff ff 73 	movl   $0x4a151973,-0x12d0(%rbp)
   1a0cd:	19 15 4a 
   1a0d0:	48 8d 05 86 8f 00 00 	lea    0x8f86(%rip),%rax        # 2305d <g_150>
   1a0d7:	48 89 85 18 ef ff ff 	mov    %rax,-0x10e8(%rbp)
   1a0de:	48 8d 05 73 8f 00 00 	lea    0x8f73(%rip),%rax        # 23058 <g_128>
   1a0e5:	48 89 85 d8 ed ff ff 	mov    %rax,-0x1228(%rbp)
   1a0ec:	48 8d 85 d8 ed ff ff 	lea    -0x1228(%rbp),%rax
   1a0f3:	48 89 85 20 f2 ff ff 	mov    %rax,-0xde0(%rbp)
   1a0fa:	48 8d 85 d8 ed ff ff 	lea    -0x1228(%rbp),%rax
   1a101:	48 89 85 28 f2 ff ff 	mov    %rax,-0xdd8(%rbp)
   1a108:	48 8d 85 d8 ed ff ff 	lea    -0x1228(%rbp),%rax
   1a10f:	48 89 85 30 f2 ff ff 	mov    %rax,-0xdd0(%rbp)
   1a116:	48 8d 85 d8 ed ff ff 	lea    -0x1228(%rbp),%rax
   1a11d:	48 89 85 38 f2 ff ff 	mov    %rax,-0xdc8(%rbp)
   1a124:	48 8d 85 d8 ed ff ff 	lea    -0x1228(%rbp),%rax
   1a12b:	48 89 85 40 f2 ff ff 	mov    %rax,-0xdc0(%rbp)
   1a132:	48 8d 85 d8 ed ff ff 	lea    -0x1228(%rbp),%rax
   1a139:	48 89 85 48 f2 ff ff 	mov    %rax,-0xdb8(%rbp)
   1a140:	48 8d 85 d8 ed ff ff 	lea    -0x1228(%rbp),%rax
   1a147:	48 89 85 50 f2 ff ff 	mov    %rax,-0xdb0(%rbp)
   1a14e:	48 8d 85 d8 ed ff ff 	lea    -0x1228(%rbp),%rax
   1a155:	48 89 85 58 f2 ff ff 	mov    %rax,-0xda8(%rbp)
   1a15c:	48 c7 85 60 f2 ff ff 	movq   $0x0,-0xda0(%rbp)
   1a163:	00 00 00 00 
   1a167:	48 8d 85 d8 ed ff ff 	lea    -0x1228(%rbp),%rax
   1a16e:	48 89 85 68 f2 ff ff 	mov    %rax,-0xd98(%rbp)
   1a175:	48 c7 85 70 f2 ff ff 	movq   $0x0,-0xd90(%rbp)
   1a17c:	00 00 00 00 
   1a180:	48 8d 85 d8 ed ff ff 	lea    -0x1228(%rbp),%rax
   1a187:	48 89 85 78 f2 ff ff 	mov    %rax,-0xd88(%rbp)
   1a18e:	48 8d 85 d8 ed ff ff 	lea    -0x1228(%rbp),%rax
   1a195:	48 89 85 80 f2 ff ff 	mov    %rax,-0xd80(%rbp)
   1a19c:	48 c7 85 88 f2 ff ff 	movq   $0x0,-0xd78(%rbp)
   1a1a3:	00 00 00 00 
   1a1a7:	48 8d 85 d8 ed ff ff 	lea    -0x1228(%rbp),%rax
   1a1ae:	48 89 85 90 f2 ff ff 	mov    %rax,-0xd70(%rbp)
   1a1b5:	48 c7 85 98 f2 ff ff 	movq   $0x0,-0xd68(%rbp)
   1a1bc:	00 00 00 00 
   1a1c0:	48 8d 85 d8 ed ff ff 	lea    -0x1228(%rbp),%rax
   1a1c7:	48 89 85 a0 f2 ff ff 	mov    %rax,-0xd60(%rbp)
   1a1ce:	48 8d 85 d8 ed ff ff 	lea    -0x1228(%rbp),%rax
   1a1d5:	48 89 85 a8 f2 ff ff 	mov    %rax,-0xd58(%rbp)
   1a1dc:	48 8d 85 d8 ed ff ff 	lea    -0x1228(%rbp),%rax
   1a1e3:	48 89 85 b0 f2 ff ff 	mov    %rax,-0xd50(%rbp)
   1a1ea:	48 8d 85 d8 ed ff ff 	lea    -0x1228(%rbp),%rax
   1a1f1:	48 89 85 b8 f2 ff ff 	mov    %rax,-0xd48(%rbp)
   1a1f8:	48 8d 85 d8 ed ff ff 	lea    -0x1228(%rbp),%rax
   1a1ff:	48 89 85 c0 f2 ff ff 	mov    %rax,-0xd40(%rbp)
   1a206:	48 8d 85 d8 ed ff ff 	lea    -0x1228(%rbp),%rax
   1a20d:	48 89 85 c8 f2 ff ff 	mov    %rax,-0xd38(%rbp)
   1a214:	48 8d 85 d8 ed ff ff 	lea    -0x1228(%rbp),%rax
   1a21b:	48 89 85 d0 f2 ff ff 	mov    %rax,-0xd30(%rbp)
   1a222:	48 8d 85 d8 ed ff ff 	lea    -0x1228(%rbp),%rax
   1a229:	48 89 85 d8 f2 ff ff 	mov    %rax,-0xd28(%rbp)
   1a230:	48 8d 85 d8 ed ff ff 	lea    -0x1228(%rbp),%rax
   1a237:	48 89 85 e0 f2 ff ff 	mov    %rax,-0xd20(%rbp)
   1a23e:	48 8d 85 d8 ed ff ff 	lea    -0x1228(%rbp),%rax
   1a245:	48 89 85 e8 f2 ff ff 	mov    %rax,-0xd18(%rbp)
   1a24c:	48 8d 85 d8 ed ff ff 	lea    -0x1228(%rbp),%rax
   1a253:	48 89 85 f0 f2 ff ff 	mov    %rax,-0xd10(%rbp)
   1a25a:	48 8d 85 d8 ed ff ff 	lea    -0x1228(%rbp),%rax
   1a261:	48 89 85 f8 f2 ff ff 	mov    %rax,-0xd08(%rbp)
   1a268:	48 8d 85 d8 ed ff ff 	lea    -0x1228(%rbp),%rax
   1a26f:	48 89 85 00 f3 ff ff 	mov    %rax,-0xd00(%rbp)
   1a276:	48 8d 85 d8 ed ff ff 	lea    -0x1228(%rbp),%rax
   1a27d:	48 89 85 08 f3 ff ff 	mov    %rax,-0xcf8(%rbp)
   1a284:	48 8d 85 d8 ed ff ff 	lea    -0x1228(%rbp),%rax
   1a28b:	48 89 85 10 f3 ff ff 	mov    %rax,-0xcf0(%rbp)
   1a292:	48 8d 85 d8 ed ff ff 	lea    -0x1228(%rbp),%rax
   1a299:	48 89 85 18 f3 ff ff 	mov    %rax,-0xce8(%rbp)
   1a2a0:	48 8d 85 d8 ed ff ff 	lea    -0x1228(%rbp),%rax
   1a2a7:	48 89 85 20 f3 ff ff 	mov    %rax,-0xce0(%rbp)
   1a2ae:	48 c7 85 28 f3 ff ff 	movq   $0x0,-0xcd8(%rbp)
   1a2b5:	00 00 00 00 
   1a2b9:	48 c7 85 30 f3 ff ff 	movq   $0x0,-0xcd0(%rbp)
   1a2c0:	00 00 00 00 
   1a2c4:	48 8d 85 d8 ed ff ff 	lea    -0x1228(%rbp),%rax
   1a2cb:	48 89 85 38 f3 ff ff 	mov    %rax,-0xcc8(%rbp)
   1a2d2:	48 8d 85 d8 ed ff ff 	lea    -0x1228(%rbp),%rax
   1a2d9:	48 89 85 40 f3 ff ff 	mov    %rax,-0xcc0(%rbp)
   1a2e0:	48 8d 85 d8 ed ff ff 	lea    -0x1228(%rbp),%rax
   1a2e7:	48 89 85 48 f3 ff ff 	mov    %rax,-0xcb8(%rbp)
   1a2ee:	48 c7 85 50 f3 ff ff 	movq   $0x0,-0xcb0(%rbp)
   1a2f5:	00 00 00 00 
   1a2f9:	48 c7 85 58 f3 ff ff 	movq   $0x0,-0xca8(%rbp)
   1a300:	00 00 00 00 
   1a304:	48 c7 85 60 f3 ff ff 	movq   $0x0,-0xca0(%rbp)
   1a30b:	00 00 00 00 
   1a30f:	48 8d 85 d8 ed ff ff 	lea    -0x1228(%rbp),%rax
   1a316:	48 89 85 68 f3 ff ff 	mov    %rax,-0xc98(%rbp)
   1a31d:	48 8d 85 d8 ed ff ff 	lea    -0x1228(%rbp),%rax
   1a324:	48 89 85 70 f3 ff ff 	mov    %rax,-0xc90(%rbp)
   1a32b:	48 8d 85 d8 ed ff ff 	lea    -0x1228(%rbp),%rax
   1a332:	48 89 85 78 f3 ff ff 	mov    %rax,-0xc88(%rbp)
   1a339:	48 8d 85 d8 ed ff ff 	lea    -0x1228(%rbp),%rax
   1a340:	48 89 85 80 f3 ff ff 	mov    %rax,-0xc80(%rbp)
   1a347:	48 c7 85 88 f3 ff ff 	movq   $0x0,-0xc78(%rbp)
   1a34e:	00 00 00 00 
   1a352:	48 8d 85 d8 ed ff ff 	lea    -0x1228(%rbp),%rax
   1a359:	48 89 85 90 f3 ff ff 	mov    %rax,-0xc70(%rbp)
   1a360:	48 8d 85 d8 ed ff ff 	lea    -0x1228(%rbp),%rax
   1a367:	48 89 85 98 f3 ff ff 	mov    %rax,-0xc68(%rbp)
   1a36e:	48 8d 85 d8 ed ff ff 	lea    -0x1228(%rbp),%rax
   1a375:	48 89 85 a0 f3 ff ff 	mov    %rax,-0xc60(%rbp)
   1a37c:	48 8d 85 d8 ed ff ff 	lea    -0x1228(%rbp),%rax
   1a383:	48 89 85 a8 f3 ff ff 	mov    %rax,-0xc58(%rbp)
   1a38a:	48 8d 85 d8 ed ff ff 	lea    -0x1228(%rbp),%rax
   1a391:	48 89 85 b0 f3 ff ff 	mov    %rax,-0xc50(%rbp)
   1a398:	48 c7 85 b8 f3 ff ff 	movq   $0x0,-0xc48(%rbp)
   1a39f:	00 00 00 00 
   1a3a3:	48 c7 85 c0 f3 ff ff 	movq   $0x0,-0xc40(%rbp)
   1a3aa:	00 00 00 00 
   1a3ae:	48 8d 85 d8 ed ff ff 	lea    -0x1228(%rbp),%rax
   1a3b5:	48 89 85 c8 f3 ff ff 	mov    %rax,-0xc38(%rbp)
   1a3bc:	48 8d 85 d8 ed ff ff 	lea    -0x1228(%rbp),%rax
   1a3c3:	48 89 85 d0 f3 ff ff 	mov    %rax,-0xc30(%rbp)
   1a3ca:	48 8d 85 d8 ed ff ff 	lea    -0x1228(%rbp),%rax
   1a3d1:	48 89 85 d8 f3 ff ff 	mov    %rax,-0xc28(%rbp)
   1a3d8:	48 8d 85 d8 ed ff ff 	lea    -0x1228(%rbp),%rax
   1a3df:	48 89 85 e0 f3 ff ff 	mov    %rax,-0xc20(%rbp)
   1a3e6:	48 c7 85 e8 f3 ff ff 	movq   $0x0,-0xc18(%rbp)
   1a3ed:	00 00 00 00 
   1a3f1:	48 8d 85 d8 ed ff ff 	lea    -0x1228(%rbp),%rax
   1a3f8:	48 89 85 f0 f3 ff ff 	mov    %rax,-0xc10(%rbp)
   1a3ff:	48 c7 85 f8 f3 ff ff 	movq   $0x0,-0xc08(%rbp)
   1a406:	00 00 00 00 
   1a40a:	48 8d 85 d8 ed ff ff 	lea    -0x1228(%rbp),%rax
   1a411:	48 89 85 00 f4 ff ff 	mov    %rax,-0xc00(%rbp)
   1a418:	48 8d 85 d8 ed ff ff 	lea    -0x1228(%rbp),%rax
   1a41f:	48 89 85 08 f4 ff ff 	mov    %rax,-0xbf8(%rbp)
   1a426:	48 c7 85 10 f4 ff ff 	movq   $0x0,-0xbf0(%rbp)
   1a42d:	00 00 00 00 
   1a431:	48 8d 85 d8 ed ff ff 	lea    -0x1228(%rbp),%rax
   1a438:	48 89 85 18 f4 ff ff 	mov    %rax,-0xbe8(%rbp)
   1a43f:	48 8d 05 38 8c 00 00 	lea    0x8c38(%rip),%rax        # 2307e <g_158+0x1e>
   1a446:	48 89 85 f8 ee ff ff 	mov    %rax,-0x1108(%rbp)
   1a44d:	48 8d 05 b4 9e 00 00 	lea    0x9eb4(%rip),%rax        # 24308 <g_87>
   1a454:	48 89 85 e0 ed ff ff 	mov    %rax,-0x1220(%rbp)
   1a45b:	48 c7 85 e8 ed ff ff 	movq   $0x1,-0x1218(%rbp)
   1a462:	01 00 00 00 
   1a466:	48 8d 05 93 a6 00 00 	lea    0xa693(%rip),%rax        # 24b00 <g_135>
   1a46d:	48 89 85 00 ef ff ff 	mov    %rax,-0x1100(%rbp)
   1a474:	48 8d 05 85 a6 00 00 	lea    0xa685(%rip),%rax        # 24b00 <g_135>
   1a47b:	48 89 85 08 ef ff ff 	mov    %rax,-0x10f8(%rbp)
   1a482:	c6 85 1b ed ff ff fd 	movb   $0xfd,-0x12e5(%rbp)
   1a489:	48 8d 85 60 f0 ff ff 	lea    -0xfa0(%rbp),%rax
   1a490:	48 8d 15 c9 4d 00 00 	lea    0x4dc9(%rip),%rdx        # 1f260 <g_2423+0x11b0>
   1a497:	b9 38 00 00 00       	mov    $0x38,%ecx
   1a49c:	48 89 c7             	mov    %rax,%rdi
   1a49f:	48 89 d6             	mov    %rdx,%rsi
   1a4a2:	f3 48 a5             	rep movsq %ds:(%rsi),%es:(%rdi)
   1a4a5:	48 c7 85 10 ef ff ff 	movq   $0xffffffffffffffff,-0x10f0(%rbp)
   1a4ac:	ff ff ff ff 
   1a4b0:	c7 85 b0 ed ff ff f6 	movl   $0xfffffff6,-0x1250(%rbp)
   1a4b7:	ff ff ff 
   1a4ba:	c6 85 1f ed ff ff 5a 	movb   $0x5a,-0x12e1(%rbp)
   1a4c1:	66 c7 85 20 ed ff ff 	movw   $0x235f,-0x12e0(%rbp)
   1a4c8:	5f 23 
   1a4ca:	c6 85 1c ed ff ff 12 	movb   $0x12,-0x12e4(%rbp)
   1a4d1:	c6 85 1d ed ff ff 06 	movb   $0x6,-0x12e3(%rbp)
   1a4d8:	c7 85 b4 ed ff ff 00 	movl   $0x0,-0x124c(%rbp)
   1a4df:	00 00 00 
   1a4e2:	eb 1e                	jmp    1a502 <func_35+0x491>
   1a4e4:	8b 85 b4 ed ff ff    	mov    -0x124c(%rbp),%eax
   1a4ea:	48 98                	cltq   
   1a4ec:	48 8d 15 45 c1 00 00 	lea    0xc145(%rip),%rdx        # 26638 <g_448>
   1a4f3:	48 89 94 c5 10 f0 ff 	mov    %rdx,-0xff0(%rbp,%rax,8)
   1a4fa:	ff 
   1a4fb:	83 85 b4 ed ff ff 01 	addl   $0x1,-0x124c(%rbp)
   1a502:	83 bd b4 ed ff ff 08 	cmpl   $0x8,-0x124c(%rbp)
   1a509:	7e d9                	jle    1a4e4 <func_35+0x473>
   1a50b:	c7 85 b4 ed ff ff 00 	movl   $0x0,-0x124c(%rbp)
   1a512:	00 00 00 
   1a515:	eb 14                	jmp    1a52b <func_35+0x4ba>
   1a517:	8b 85 b4 ed ff ff    	mov    -0x124c(%rbp),%eax
   1a51d:	48 98                	cltq   
   1a51f:	c6 44 05 bf 7d       	movb   $0x7d,-0x41(%rbp,%rax,1)
   1a524:	83 85 b4 ed ff ff 01 	addl   $0x1,-0x124c(%rbp)
   1a52b:	83 bd b4 ed ff ff 08 	cmpl   $0x8,-0x124c(%rbp)
   1a532:	7e e3                	jle    1a517 <func_35+0x4a6>
   1a534:	48 c7 05 e9 8a 00 00 	movq   $0x0,0x8ae9(%rip)        # 23028 <g_31>
   1a53b:	00 00 00 00 
   1a53f:	e9 f9 00 00 00       	jmpq   1a63d <func_35+0x5cc>
   1a544:	48 8d 05 e9 8a 00 00 	lea    0x8ae9(%rip),%rax        # 23034 <g_55>
   1a54b:	48 89 85 20 ef ff ff 	mov    %rax,-0x10e0(%rbp)
   1a552:	c7 85 bc ed ff ff 00 	movl   $0x0,-0x1244(%rbp)
   1a559:	00 00 00 
   1a55c:	eb 1e                	jmp    1a57c <func_35+0x50b>
   1a55e:	8b 85 bc ed ff ff    	mov    -0x1244(%rbp),%eax
   1a564:	48 98                	cltq   
   1a566:	48 8d 15 c3 8a 00 00 	lea    0x8ac3(%rip),%rdx        # 23030 <g_46>
   1a56d:	48 89 94 c5 20 f4 ff 	mov    %rdx,-0xbe0(%rbp,%rax,8)
   1a574:	ff 
   1a575:	83 85 bc ed ff ff 01 	addl   $0x1,-0x1244(%rbp)
   1a57c:	83 bd bc ed ff ff 01 	cmpl   $0x1,-0x1244(%rbp)
   1a583:	7e d9                	jle    1a55e <func_35+0x4ed>
   1a585:	48 c7 85 08 ed ff ff 	movq   $0x0,-0x12f8(%rbp)
   1a58c:	00 00 00 00 
   1a590:	eb 79                	jmp    1a60b <func_35+0x59a>
   1a592:	48 c7 85 28 ef ff ff 	movq   $0x0,-0x10d8(%rbp)
   1a599:	00 00 00 00 
   1a59d:	48 c7 85 30 ef ff ff 	movq   $0x0,-0x10d0(%rbp)
   1a5a4:	00 00 00 00 
   1a5a8:	c7 85 cc ed ff ff c0 	movl   $0xa37c3ac0,-0x1234(%rbp)
   1a5af:	3a 7c a3 
   1a5b2:	c7 85 d0 ed ff ff 04 	movl   $0x4,-0x1230(%rbp)
   1a5b9:	00 00 00 
   1a5bc:	c7 85 d4 ed ff ff 2b 	movl   $0x2ad6262b,-0x122c(%rbp)
   1a5c3:	26 d6 2a 
   1a5c6:	c7 85 c0 ed ff ff 00 	movl   $0x0,-0x1240(%rbp)
   1a5cd:	00 00 00 
   1a5d0:	eb 1e                	jmp    1a5f0 <func_35+0x57f>
   1a5d2:	8b 85 c0 ed ff ff    	mov    -0x1240(%rbp),%eax
   1a5d8:	48 98                	cltq   
   1a5da:	48 8d 15 53 8a 00 00 	lea    0x8a53(%rip),%rdx        # 23034 <g_55>
   1a5e1:	48 89 94 c5 e0 f7 ff 	mov    %rdx,-0x820(%rbp,%rax,8)
   1a5e8:	ff 
   1a5e9:	83 85 c0 ed ff ff 01 	addl   $0x1,-0x1240(%rbp)
   1a5f0:	83 bd c0 ed ff ff 04 	cmpl   $0x4,-0x1240(%rbp)
   1a5f7:	7e d9                	jle    1a5d2 <func_35+0x561>
   1a5f9:	48 8b 85 08 ed ff ff 	mov    -0x12f8(%rbp),%rax
   1a600:	48 83 c0 01          	add    $0x1,%rax
   1a604:	48 89 85 08 ed ff ff 	mov    %rax,-0x12f8(%rbp)
   1a60b:	48 8b 85 08 ed ff ff 	mov    -0x12f8(%rbp),%rax
   1a612:	48 83 f8 0d          	cmp    $0xd,%rax
   1a616:	0f 8e 76 ff ff ff    	jle    1a592 <func_35+0x521>
   1a61c:	48 8b 05 05 8a 00 00 	mov    0x8a05(%rip),%rax        # 23028 <g_31>
   1a623:	0f be c0             	movsbl %al,%eax
   1a626:	be 06 00 00 00       	mov    $0x6,%esi
   1a62b:	89 c7                	mov    %eax,%edi
   1a62d:	e8 c0 db fe ff       	callq  81f2 <safe_sub_func_int8_t_s_s>
   1a632:	48 0f be c0          	movsbq %al,%rax
   1a636:	48 89 05 eb 89 00 00 	mov    %rax,0x89eb(%rip)        # 23028 <g_31>
   1a63d:	48 8b 05 e4 89 00 00 	mov    0x89e4(%rip),%rax        # 23028 <g_31>
   1a644:	48 83 f8 eb          	cmp    $0xffffffffffffffeb,%rax
   1a648:	0f 8d f6 fe ff ff    	jge    1a544 <func_35+0x4d3>
   1a64e:	48 8b 85 08 ed ff ff 	mov    -0x12f8(%rbp),%rax
   1a655:	0f b6 d8             	movzbl %al,%ebx
   1a658:	8b 85 30 ed ff ff    	mov    -0x12d0(%rbp),%eax
   1a65e:	89 c2                	mov    %eax,%edx
   1a660:	8b 05 da 89 00 00    	mov    0x89da(%rip),%eax        # 23040 <g_85>
   1a666:	39 c2                	cmp    %eax,%edx
   1a668:	0f 93 c0             	setae  %al
   1a66b:	0f b6 c0             	movzbl %al,%eax
   1a66e:	89 c6                	mov    %eax,%esi
   1a670:	bf f7 00 00 00       	mov    $0xf7,%edi
   1a675:	e8 19 e5 fe ff       	callq  8b93 <safe_mul_func_uint8_t_u_u>
   1a67a:	84 c0                	test   %al,%al
   1a67c:	74 13                	je     1a691 <func_35+0x620>
   1a67e:	48 8b 85 08 ed ff ff 	mov    -0x12f8(%rbp),%rax
   1a685:	48 85 c0             	test   %rax,%rax
   1a688:	74 07                	je     1a691 <func_35+0x620>
   1a68a:	b8 01 00 00 00       	mov    $0x1,%eax
   1a68f:	eb 05                	jmp    1a696 <func_35+0x625>
   1a691:	b8 00 00 00 00       	mov    $0x0,%eax
   1a696:	89 c2                	mov    %eax,%edx
   1a698:	48 8b 85 18 ef ff ff 	mov    -0x10e8(%rbp),%rax
   1a69f:	88 10                	mov    %dl,(%rax)
   1a6a1:	48 8b 85 18 ef ff ff 	mov    -0x10e8(%rbp),%rax
   1a6a8:	0f b6 00             	movzbl (%rax),%eax
   1a6ab:	0f b6 c0             	movzbl %al,%eax
   1a6ae:	89 de                	mov    %ebx,%esi
   1a6b0:	89 c7                	mov    %eax,%edi
   1a6b2:	e8 dc e4 fe ff       	callq  8b93 <safe_mul_func_uint8_t_u_u>
   1a6b7:	0f b6 d8             	movzbl %al,%ebx
   1a6ba:	8b 85 2c ed ff ff    	mov    -0x12d4(%rbp),%eax
   1a6c0:	44 0f b7 e0          	movzwl %ax,%r12d
   1a6c4:	48 8b 85 08 ed ff ff 	mov    -0x12f8(%rbp),%rax
   1a6cb:	98                   	cwtl   
   1a6cc:	be 09 00 00 00       	mov    $0x9,%esi
   1a6d1:	89 c7                	mov    %eax,%edi
   1a6d3:	e8 8b de fe ff       	callq  8563 <safe_rshift_func_int16_t_s_u>
   1a6d8:	0f b7 c0             	movzwl %ax,%eax
   1a6db:	44 89 e6             	mov    %r12d,%esi
   1a6de:	89 c7                	mov    %eax,%edi
   1a6e0:	e8 77 e6 fe ff       	callq  8d5c <safe_mod_func_uint16_t_u_u>
   1a6e5:	0f b7 d0             	movzwl %ax,%edx
   1a6e8:	48 8b 85 08 ed ff ff 	mov    -0x12f8(%rbp),%rax
   1a6ef:	48 39 c2             	cmp    %rax,%rdx
   1a6f2:	0f 9f c0             	setg   %al
   1a6f5:	0f b6 d0             	movzbl %al,%edx
   1a6f8:	48 8b 85 00 ed ff ff 	mov    -0x1300(%rbp),%rax
   1a6ff:	48 85 c0             	test   %rax,%rax
   1a702:	0f 95 c0             	setne  %al
   1a705:	0f b6 c0             	movzbl %al,%eax
   1a708:	89 d6                	mov    %edx,%esi
   1a70a:	89 c7                	mov    %eax,%edi
   1a70c:	e8 01 db fe ff       	callq  8212 <safe_mul_func_int8_t_s_s>
   1a711:	0f b6 c0             	movzbl %al,%eax
   1a714:	89 de                	mov    %ebx,%esi
   1a716:	89 c7                	mov    %eax,%edi
   1a718:	e8 91 e4 fe ff       	callq  8bae <safe_mod_func_uint8_t_u_u>
   1a71d:	89 c2                	mov    %eax,%edx
   1a71f:	48 8b 05 da a3 00 00 	mov    0xa3da(%rip),%rax        # 24b00 <g_135>
   1a726:	48 8b 00             	mov    (%rax),%rax
   1a729:	0f b6 d2             	movzbl %dl,%edx
   1a72c:	89 10                	mov    %edx,(%rax)
   1a72e:	8b 85 30 ed ff ff    	mov    -0x12d0(%rbp),%eax
   1a734:	85 c0                	test   %eax,%eax
   1a736:	75 07                	jne    1a73f <func_35+0x6ce>
   1a738:	83 bd b8 ed ff ff 00 	cmpl   $0x0,-0x1248(%rbp)
   1a73f:	48 8b 05 ca 9b 00 00 	mov    0x9bca(%rip),%rax        # 24310 <g_91>
   1a746:	8b 00                	mov    (%rax),%eax
   1a748:	89 c3                	mov    %eax,%ebx
   1a74a:	48 8b 05 47 89 00 00 	mov    0x8947(%rip),%rax        # 23098 <g_184+0x8>
   1a751:	48 c7 05 44 a5 00 00 	movq   $0x0,0xa544(%rip)        # 24ca0 <g_193+0x180>
   1a758:	00 00 00 00 
   1a75c:	48 8b 05 3d a5 00 00 	mov    0xa53d(%rip),%rax        # 24ca0 <g_193+0x180>
   1a763:	48 85 c0             	test   %rax,%rax
   1a766:	0f 94 c0             	sete   %al
   1a769:	0f b6 d0             	movzbl %al,%edx
   1a76c:	0f b7 05 0b 89 00 00 	movzwl 0x890b(%rip),%eax        # 2307e <g_158+0x1e>
   1a773:	98                   	cwtl   
   1a774:	89 d6                	mov    %edx,%esi
   1a776:	89 c7                	mov    %eax,%edi
   1a778:	e8 64 dd fe ff       	callq  84e1 <safe_lshift_func_int16_t_s_u>
   1a77d:	66 85 c0             	test   %ax,%ax
   1a780:	75 0c                	jne    1a78e <func_35+0x71d>
   1a782:	48 8b 85 08 ed ff ff 	mov    -0x12f8(%rbp),%rax
   1a789:	48 85 c0             	test   %rax,%rax
   1a78c:	74 07                	je     1a795 <func_35+0x724>
   1a78e:	b8 01 00 00 00       	mov    $0x1,%eax
   1a793:	eb 05                	jmp    1a79a <func_35+0x729>
   1a795:	b8 00 00 00 00       	mov    $0x0,%eax
   1a79a:	0f b6 c0             	movzbl %al,%eax
   1a79d:	be 05 00 00 00       	mov    $0x5,%esi
   1a7a2:	89 c7                	mov    %eax,%edi
   1a7a4:	e8 15 e5 fe ff       	callq  8cbe <safe_rshift_func_uint8_t_u_u>
   1a7a9:	0f b6 15 ac 88 00 00 	movzbl 0x88ac(%rip),%edx        # 2305c <g_131>
   1a7b0:	38 d0                	cmp    %dl,%al
   1a7b2:	0f 96 c0             	setbe  %al
   1a7b5:	0f b6 d0             	movzbl %al,%edx
   1a7b8:	8b 85 30 ed ff ff    	mov    -0x12d0(%rbp),%eax
   1a7be:	39 c2                	cmp    %eax,%edx
   1a7c0:	0f 9c c0             	setl   %al
   1a7c3:	0f b6 d0             	movzbl %al,%edx
   1a7c6:	8b 85 2c ed ff ff    	mov    -0x12d4(%rbp),%eax
   1a7cc:	83 c8 ca             	or     $0xffffffca,%eax
   1a7cf:	0f be c0             	movsbl %al,%eax
   1a7d2:	89 d6                	mov    %edx,%esi
   1a7d4:	89 c7                	mov    %eax,%edi
   1a7d6:	e8 c6 da fe ff       	callq  82a1 <safe_lshift_func_int8_t_s_s>
   1a7db:	66 0f be d0          	movsbw %al,%dx
   1a7df:	48 8b 85 f8 ee ff ff 	mov    -0x1108(%rbp),%rax
   1a7e6:	66 89 10             	mov    %dx,(%rax)
   1a7e9:	48 8b 85 f8 ee ff ff 	mov    -0x1108(%rbp),%rax
   1a7f0:	0f b7 00             	movzwl (%rax),%eax
   1a7f3:	66 83 f8 ff          	cmp    $0xffff,%ax
   1a7f7:	0f 95 c0             	setne  %al
   1a7fa:	0f b6 d0             	movzbl %al,%edx
   1a7fd:	8b 05 55 88 00 00    	mov    0x8855(%rip),%eax        # 23058 <g_128>
   1a803:	39 c2                	cmp    %eax,%edx
   1a805:	0f 96 c0             	setbe  %al
   1a808:	0f b6 c0             	movzbl %al,%eax
   1a80b:	89 de                	mov    %ebx,%esi
   1a80d:	89 c7                	mov    %eax,%edi
   1a80f:	e8 11 e7 fe ff       	callq  8f25 <safe_div_func_uint32_t_u_u>
   1a814:	85 c0                	test   %eax,%eax
   1a816:	74 13                	je     1a82b <func_35+0x7ba>
   1a818:	83 bd b8 ed ff ff 00 	cmpl   $0x0,-0x1248(%rbp)
   1a81f:	74 0a                	je     1a82b <func_35+0x7ba>
   1a821:	0f b7 05 20 88 00 00 	movzwl 0x8820(%rip),%eax        # 23048 <g_88>
   1a828:	66 85 c0             	test   %ax,%ax
   1a82b:	8b 85 30 ed ff ff    	mov    -0x12d0(%rbp),%eax
   1a831:	c1 e8 1f             	shr    $0x1f,%eax
   1a834:	0f b6 d0             	movzbl %al,%edx
   1a837:	48 8b 85 08 ed ff ff 	mov    -0x12f8(%rbp),%rax
   1a83e:	48 89 d1             	mov    %rdx,%rcx
   1a841:	48 21 c1             	and    %rax,%rcx
   1a844:	48 8b 05 a5 a2 00 00 	mov    0xa2a5(%rip),%rax        # 24af0 <g_101>
   1a84b:	8b 10                	mov    (%rax),%edx
   1a84d:	48 8b 05 9c a2 00 00 	mov    0xa29c(%rip),%rax        # 24af0 <g_101>
   1a854:	21 ca                	and    %ecx,%edx
   1a856:	89 10                	mov    %edx,(%rax)
   1a858:	48 c7 85 f0 ee ff ff 	movq   $0x0,-0x1110(%rbp)
   1a85f:	00 00 00 00 
   1a863:	c7 85 34 ed ff ff 3c 	movl   $0x5309283c,-0x12cc(%rbp)
   1a86a:	28 09 53 
   1a86d:	c7 85 38 ed ff ff f9 	movl   $0xfffffff9,-0x12c8(%rbp)
   1a874:	ff ff ff 
   1a877:	c7 85 3c ed ff ff 09 	movl   $0x9,-0x12c4(%rbp)
   1a87e:	00 00 00 
   1a881:	c7 85 40 ed ff ff 9a 	movl   $0xd34cae9a,-0x12c0(%rbp)
   1a888:	ae 4c d3 
   1a88b:	c7 85 44 ed ff ff ff 	movl   $0xffffffff,-0x12bc(%rbp)
   1a892:	ff ff ff 
   1a895:	48 8d 85 20 f4 ff ff 	lea    -0xbe0(%rbp),%rax
   1a89c:	48 8d 15 7d 4b 00 00 	lea    0x4b7d(%rip),%rdx        # 1f420 <g_2423+0x1370>
   1a8a3:	b9 78 00 00 00       	mov    $0x78,%ecx
   1a8a8:	48 89 c7             	mov    %rax,%rdi
   1a8ab:	48 89 d6             	mov    %rdx,%rsi
   1a8ae:	f3 48 a5             	rep movsq %ds:(%rsi),%es:(%rdi)
   1a8b1:	48 8d 85 1b ed ff ff 	lea    -0x12e5(%rbp),%rax
   1a8b8:	48 89 85 e0 ee ff ff 	mov    %rax,-0x1120(%rbp)
   1a8bf:	48 c7 85 e8 ee ff ff 	movq   $0x0,-0x1118(%rbp)
   1a8c6:	00 00 00 00 
   1a8ca:	48 c7 85 d0 ef ff ff 	movq   $0x0,-0x1030(%rbp)
   1a8d1:	00 00 00 00 
   1a8d5:	48 c7 85 d8 ef ff ff 	movq   $0x0,-0x1028(%rbp)
   1a8dc:	00 00 00 00 
   1a8e0:	48 c7 85 e0 ef ff ff 	movq   $0x0,-0x1020(%rbp)
   1a8e7:	00 00 00 00 
   1a8eb:	48 c7 85 e8 ef ff ff 	movq   $0x0,-0x1018(%rbp)
   1a8f2:	00 00 00 00 
   1a8f6:	48 c7 85 f0 ef ff ff 	movq   $0x0,-0x1010(%rbp)
   1a8fd:	00 00 00 00 
   1a901:	48 c7 85 f8 ef ff ff 	movq   $0x0,-0x1008(%rbp)
   1a908:	00 00 00 00 
   1a90c:	48 c7 85 00 f0 ff ff 	movq   $0x0,-0x1000(%rbp)
   1a913:	00 00 00 00 
   1a917:	48 c7 85 08 f0 ff ff 	movq   $0x0,-0xff8(%rbp)
   1a91e:	00 00 00 00 
   1a922:	c7 85 a8 ed ff ff bb 	movl   $0x8f6345bb,-0x1258(%rbp)
   1a929:	45 63 8f 
   1a92c:	c7 85 ac ed ff ff 00 	movl   $0x0,-0x1254(%rbp)
   1a933:	00 00 00 
   1a936:	eb 1b                	jmp    1a953 <func_35+0x8e2>
   1a938:	8b 85 ac ed ff ff    	mov    -0x1254(%rbp),%eax
   1a93e:	48 98                	cltq   
   1a940:	48 c7 84 c5 50 ef ff 	movq   $0x0,-0x10b0(%rbp,%rax,8)
   1a947:	ff 00 00 00 00 
   1a94c:	83 85 ac ed ff ff 01 	addl   $0x1,-0x1254(%rbp)
   1a953:	83 bd ac ed ff ff 02 	cmpl   $0x2,-0x1254(%rbp)
   1a95a:	7e dc                	jle    1a938 <func_35+0x8c7>
   1a95c:	c7 85 ac ed ff ff 00 	movl   $0x0,-0x1254(%rbp)
   1a963:	00 00 00 
   1a966:	eb 49                	jmp    1a9b1 <func_35+0x940>
   1a968:	c7 85 c4 ed ff ff 00 	movl   $0x0,-0x123c(%rbp)
   1a96f:	00 00 00 
   1a972:	eb 2d                	jmp    1a9a1 <func_35+0x930>
   1a974:	8b 85 c4 ed ff ff    	mov    -0x123c(%rbp),%eax
   1a97a:	48 98                	cltq   
   1a97c:	8b 95 ac ed ff ff    	mov    -0x1254(%rbp),%edx
   1a982:	48 63 d2             	movslq %edx,%rdx
   1a985:	48 01 d2             	add    %rdx,%rdx
   1a988:	48 01 d0             	add    %rdx,%rax
   1a98b:	48 8d 15 f6 86 00 00 	lea    0x86f6(%rip),%rdx        # 23088 <g_162>
   1a992:	48 89 94 c5 40 ef ff 	mov    %rdx,-0x10c0(%rbp,%rax,8)
   1a999:	ff 
   1a99a:	83 85 c4 ed ff ff 01 	addl   $0x1,-0x123c(%rbp)
   1a9a1:	83 bd c4 ed ff ff 01 	cmpl   $0x1,-0x123c(%rbp)
   1a9a8:	7e ca                	jle    1a974 <func_35+0x903>
   1a9aa:	83 85 ac ed ff ff 01 	addl   $0x1,-0x1254(%rbp)
   1a9b1:	83 bd ac ed ff ff 00 	cmpl   $0x0,-0x1254(%rbp)
   1a9b8:	7e ae                	jle    1a968 <func_35+0x8f7>
   1a9ba:	66 c7 05 fd 86 00 00 	movw   $0x4,0x86fd(%rip)        # 230c0 <g_253>
   1a9c1:	04 00 
   1a9c3:	e9 17 10 00 00       	jmpq   1b9df <func_35+0x196e>
   1a9c8:	48 8d 05 69 86 00 00 	lea    0x8669(%rip),%rax        # 23038 <g_84>
   1a9cf:	48 89 85 f0 ed ff ff 	mov    %rax,-0x1210(%rbp)
   1a9d6:	48 8d 85 f0 ed ff ff 	lea    -0x1210(%rbp),%rax
   1a9dd:	48 89 85 18 ee ff ff 	mov    %rax,-0x11e8(%rbp)
   1a9e4:	c7 85 48 ed ff ff 57 	movl   $0x82f09057,-0x12b8(%rbp)
   1a9eb:	90 f0 82 
   1a9ee:	c7 85 4c ed ff ff a7 	movl   $0xab4121a7,-0x12b4(%rbp)
   1a9f5:	21 41 ab 
   1a9f8:	c7 85 50 ed ff ff ff 	movl   $0xffffffff,-0x12b0(%rbp)
   1a9ff:	ff ff ff 
   1aa02:	c7 85 64 ed ff ff 6b 	movl   $0xee04306b,-0x129c(%rbp)
   1aa09:	30 04 ee 
   1aa0c:	c7 85 54 ed ff ff c8 	movl   $0x1ec8c7c8,-0x12ac(%rbp)
   1aa13:	c7 c8 1e 
   1aa16:	c7 85 58 ed ff ff f7 	movl   $0xfffffff7,-0x12a8(%rbp)
   1aa1d:	ff ff ff 
   1aa20:	c7 85 5c ed ff ff b4 	movl   $0x8e21dfb4,-0x12a4(%rbp)
   1aa27:	df 21 8e 
   1aa2a:	c7 85 60 ed ff ff 3c 	movl   $0x27079a3c,-0x12a0(%rbp)
   1aa31:	9a 07 27 
   1aa34:	c7 85 68 ed ff ff 01 	movl   $0x3f287101,-0x1298(%rbp)
   1aa3b:	71 28 3f 
   1aa3e:	66 c7 85 22 ed ff ff 	movw   $0x1,-0x12de(%rbp)
   1aa45:	01 00 
   1aa47:	48 8d 05 ba 98 00 00 	lea    0x98ba(%rip),%rax        # 24308 <g_87>
   1aa4e:	48 89 85 20 ee ff ff 	mov    %rax,-0x11e0(%rbp)
   1aa55:	66 c7 85 24 ed ff ff 	movw   $0x0,-0x12dc(%rbp)
   1aa5c:	00 00 
   1aa5e:	48 8d 05 2b ac 00 00 	lea    0xac2b(%rip),%rax        # 25690 <g_447+0x390>
   1aa65:	48 89 85 90 ef ff ff 	mov    %rax,-0x1070(%rbp)
   1aa6c:	48 8d 05 1d ac 00 00 	lea    0xac1d(%rip),%rax        # 25690 <g_447+0x390>
   1aa73:	48 89 85 98 ef ff ff 	mov    %rax,-0x1068(%rbp)
   1aa7a:	48 8d 05 0f ac 00 00 	lea    0xac0f(%rip),%rax        # 25690 <g_447+0x390>
   1aa81:	48 89 85 a0 ef ff ff 	mov    %rax,-0x1060(%rbp)
   1aa88:	48 8d 05 01 ac 00 00 	lea    0xac01(%rip),%rax        # 25690 <g_447+0x390>
   1aa8f:	48 89 85 a8 ef ff ff 	mov    %rax,-0x1058(%rbp)
   1aa96:	48 8d 05 f3 ab 00 00 	lea    0xabf3(%rip),%rax        # 25690 <g_447+0x390>
   1aa9d:	48 89 85 b0 ef ff ff 	mov    %rax,-0x1050(%rbp)
   1aaa4:	48 8d 05 e5 ab 00 00 	lea    0xabe5(%rip),%rax        # 25690 <g_447+0x390>
   1aaab:	48 89 85 b8 ef ff ff 	mov    %rax,-0x1048(%rbp)
   1aab2:	48 8d 05 d7 ab 00 00 	lea    0xabd7(%rip),%rax        # 25690 <g_447+0x390>
   1aab9:	48 89 85 c0 ef ff ff 	mov    %rax,-0x1040(%rbp)
   1aac0:	48 c7 85 28 ee ff ff 	movq   $0x0,-0x11d8(%rbp)
   1aac7:	00 00 00 00 
   1aacb:	48 8d 85 48 ed ff ff 	lea    -0x12b8(%rbp),%rax
   1aad2:	48 89 85 00 ee ff ff 	mov    %rax,-0x1200(%rbp)
   1aad9:	48 c7 85 08 ee ff ff 	movq   $0x0,-0x11f8(%rbp)
   1aae0:	00 00 00 00 
   1aae4:	48 8d 85 60 f0 ff ff 	lea    -0xfa0(%rbp),%rax
   1aaeb:	48 05 74 01 00 00    	add    $0x174,%rax
   1aaf1:	48 89 85 10 ee ff ff 	mov    %rax,-0x11f0(%rbp)
   1aaf8:	48 8d 85 4c ed ff ff 	lea    -0x12b4(%rbp),%rax
   1aaff:	48 89 85 f8 ed ff ff 	mov    %rax,-0x1208(%rbp)
   1ab06:	48 8d 85 70 ef ff ff 	lea    -0x1090(%rbp),%rax
   1ab0d:	48 83 c0 14          	add    $0x14,%rax
   1ab11:	48 89 85 e0 f7 ff ff 	mov    %rax,-0x820(%rbp)
   1ab18:	48 8d 85 70 ef ff ff 	lea    -0x1090(%rbp),%rax
   1ab1f:	48 83 c0 0c          	add    $0xc,%rax
   1ab23:	48 89 85 e8 f7 ff ff 	mov    %rax,-0x818(%rbp)
   1ab2a:	48 8d 85 50 ed ff ff 	lea    -0x12b0(%rbp),%rax
   1ab31:	48 89 85 f0 f7 ff ff 	mov    %rax,-0x810(%rbp)
   1ab38:	48 8d 85 50 ed ff ff 	lea    -0x12b0(%rbp),%rax
   1ab3f:	48 89 85 f8 f7 ff ff 	mov    %rax,-0x808(%rbp)
   1ab46:	48 8d 85 70 ef ff ff 	lea    -0x1090(%rbp),%rax
   1ab4d:	48 89 85 00 f8 ff ff 	mov    %rax,-0x800(%rbp)
   1ab54:	48 8d 85 40 ed ff ff 	lea    -0x12c0(%rbp),%rax
   1ab5b:	48 89 85 08 f8 ff ff 	mov    %rax,-0x7f8(%rbp)
   1ab62:	48 8d 85 60 f0 ff ff 	lea    -0xfa0(%rbp),%rax
   1ab69:	48 05 c8 00 00 00    	add    $0xc8,%rax
   1ab6f:	48 89 85 10 f8 ff ff 	mov    %rax,-0x7f0(%rbp)
   1ab76:	48 8d 85 20 f4 ff ff 	lea    -0xbe0(%rbp),%rax
   1ab7d:	48 05 80 02 00 00    	add    $0x280,%rax
   1ab83:	48 89 85 18 f8 ff ff 	mov    %rax,-0x7e8(%rbp)
   1ab8a:	48 8d 85 20 f4 ff ff 	lea    -0xbe0(%rbp),%rax
   1ab91:	48 05 80 02 00 00    	add    $0x280,%rax
   1ab97:	48 89 85 20 f8 ff ff 	mov    %rax,-0x7e0(%rbp)
   1ab9e:	48 8d 85 60 f0 ff ff 	lea    -0xfa0(%rbp),%rax
   1aba5:	48 05 c8 00 00 00    	add    $0xc8,%rax
   1abab:	48 89 85 28 f8 ff ff 	mov    %rax,-0x7d8(%rbp)
   1abb2:	48 8d 85 70 ef ff ff 	lea    -0x1090(%rbp),%rax
   1abb9:	48 83 c0 10          	add    $0x10,%rax
   1abbd:	48 89 85 30 f8 ff ff 	mov    %rax,-0x7d0(%rbp)
   1abc4:	48 8d 85 20 f4 ff ff 	lea    -0xbe0(%rbp),%rax
   1abcb:	48 05 68 02 00 00    	add    $0x268,%rax
   1abd1:	48 89 85 38 f8 ff ff 	mov    %rax,-0x7c8(%rbp)
   1abd8:	48 c7 85 40 f8 ff ff 	movq   $0x0,-0x7c0(%rbp)
   1abdf:	00 00 00 00 
   1abe3:	48 c7 85 48 f8 ff ff 	movq   $0x0,-0x7b8(%rbp)
   1abea:	00 00 00 00 
   1abee:	48 8d 85 4c ed ff ff 	lea    -0x12b4(%rbp),%rax
   1abf5:	48 89 85 50 f8 ff ff 	mov    %rax,-0x7b0(%rbp)
   1abfc:	48 8d 85 34 ed ff ff 	lea    -0x12cc(%rbp),%rax
   1ac03:	48 89 85 58 f8 ff ff 	mov    %rax,-0x7a8(%rbp)
   1ac0a:	48 8d 85 5c ed ff ff 	lea    -0x12a4(%rbp),%rax
   1ac11:	48 89 85 60 f8 ff ff 	mov    %rax,-0x7a0(%rbp)
   1ac18:	48 8d 85 70 ef ff ff 	lea    -0x1090(%rbp),%rax
   1ac1f:	48 83 c0 10          	add    $0x10,%rax
   1ac23:	48 89 85 68 f8 ff ff 	mov    %rax,-0x798(%rbp)
   1ac2a:	48 c7 85 70 f8 ff ff 	movq   $0x0,-0x790(%rbp)
   1ac31:	00 00 00 00 
   1ac35:	48 8d 85 60 f0 ff ff 	lea    -0xfa0(%rbp),%rax
   1ac3c:	48 05 84 00 00 00    	add    $0x84,%rax
   1ac42:	48 89 85 78 f8 ff ff 	mov    %rax,-0x788(%rbp)
   1ac49:	48 8d 85 50 ed ff ff 	lea    -0x12b0(%rbp),%rax
   1ac50:	48 89 85 80 f8 ff ff 	mov    %rax,-0x780(%rbp)
   1ac57:	48 8d 85 58 ed ff ff 	lea    -0x12a8(%rbp),%rax
   1ac5e:	48 89 85 88 f8 ff ff 	mov    %rax,-0x778(%rbp)
   1ac65:	48 8d 05 b8 83 00 00 	lea    0x83b8(%rip),%rax        # 23024 <g_18>
   1ac6c:	48 89 85 90 f8 ff ff 	mov    %rax,-0x770(%rbp)
   1ac73:	48 8d 85 70 ef ff ff 	lea    -0x1090(%rbp),%rax
   1ac7a:	48 83 c0 14          	add    $0x14,%rax
   1ac7e:	48 89 85 98 f8 ff ff 	mov    %rax,-0x768(%rbp)
   1ac85:	48 8d 85 50 ed ff ff 	lea    -0x12b0(%rbp),%rax
   1ac8c:	48 89 85 a0 f8 ff ff 	mov    %rax,-0x760(%rbp)
   1ac93:	48 8d 85 34 ed ff ff 	lea    -0x12cc(%rbp),%rax
   1ac9a:	48 89 85 a8 f8 ff ff 	mov    %rax,-0x758(%rbp)
   1aca1:	48 8d 85 44 ed ff ff 	lea    -0x12bc(%rbp),%rax
   1aca8:	48 89 85 b0 f8 ff ff 	mov    %rax,-0x750(%rbp)
   1acaf:	48 c7 85 b8 f8 ff ff 	movq   $0x0,-0x748(%rbp)
   1acb6:	00 00 00 00 
   1acba:	48 8d 85 40 ed ff ff 	lea    -0x12c0(%rbp),%rax
   1acc1:	48 89 85 c0 f8 ff ff 	mov    %rax,-0x740(%rbp)
   1acc8:	48 8d 05 61 83 00 00 	lea    0x8361(%rip),%rax        # 23030 <g_46>
   1accf:	48 89 85 c8 f8 ff ff 	mov    %rax,-0x738(%rbp)
   1acd6:	48 8d 85 70 ef ff ff 	lea    -0x1090(%rbp),%rax
   1acdd:	48 83 c0 10          	add    $0x10,%rax
   1ace1:	48 89 85 d0 f8 ff ff 	mov    %rax,-0x730(%rbp)
   1ace8:	48 8d 85 40 ed ff ff 	lea    -0x12c0(%rbp),%rax
   1acef:	48 89 85 d8 f8 ff ff 	mov    %rax,-0x728(%rbp)
   1acf6:	48 8d 85 40 ed ff ff 	lea    -0x12c0(%rbp),%rax
   1acfd:	48 89 85 e0 f8 ff ff 	mov    %rax,-0x720(%rbp)
   1ad04:	48 8d 85 70 ef ff ff 	lea    -0x1090(%rbp),%rax
   1ad0b:	48 83 c0 10          	add    $0x10,%rax
   1ad0f:	48 89 85 e8 f8 ff ff 	mov    %rax,-0x718(%rbp)
   1ad16:	48 c7 85 f0 f8 ff ff 	movq   $0x0,-0x710(%rbp)
   1ad1d:	00 00 00 00 
   1ad21:	48 8d 85 40 ed ff ff 	lea    -0x12c0(%rbp),%rax
   1ad28:	48 89 85 f8 f8 ff ff 	mov    %rax,-0x708(%rbp)
   1ad2f:	48 c7 85 00 f9 ff ff 	movq   $0x0,-0x700(%rbp)
   1ad36:	00 00 00 00 
   1ad3a:	48 8d 85 44 ed ff ff 	lea    -0x12bc(%rbp),%rax
   1ad41:	48 89 85 08 f9 ff ff 	mov    %rax,-0x6f8(%rbp)
   1ad48:	48 8d 85 34 ed ff ff 	lea    -0x12cc(%rbp),%rax
   1ad4f:	48 89 85 10 f9 ff ff 	mov    %rax,-0x6f0(%rbp)
   1ad56:	48 8d 85 54 ed ff ff 	lea    -0x12ac(%rbp),%rax
   1ad5d:	48 89 85 18 f9 ff ff 	mov    %rax,-0x6e8(%rbp)
   1ad64:	48 8d 85 70 ef ff ff 	lea    -0x1090(%rbp),%rax
   1ad6b:	48 83 c0 14          	add    $0x14,%rax
   1ad6f:	48 89 85 20 f9 ff ff 	mov    %rax,-0x6e0(%rbp)
   1ad76:	48 8d 05 a7 82 00 00 	lea    0x82a7(%rip),%rax        # 23024 <g_18>
   1ad7d:	48 89 85 28 f9 ff ff 	mov    %rax,-0x6d8(%rbp)
   1ad84:	48 8d 85 58 ed ff ff 	lea    -0x12a8(%rbp),%rax
   1ad8b:	48 89 85 30 f9 ff ff 	mov    %rax,-0x6d0(%rbp)
   1ad92:	48 8d 85 50 ed ff ff 	lea    -0x12b0(%rbp),%rax
   1ad99:	48 89 85 38 f9 ff ff 	mov    %rax,-0x6c8(%rbp)
   1ada0:	48 8d 85 60 f0 ff ff 	lea    -0xfa0(%rbp),%rax
   1ada7:	48 05 74 01 00 00    	add    $0x174,%rax
   1adad:	48 89 85 40 f9 ff ff 	mov    %rax,-0x6c0(%rbp)
   1adb4:	48 c7 85 48 f9 ff ff 	movq   $0x0,-0x6b8(%rbp)
   1adbb:	00 00 00 00 
   1adbf:	48 8d 85 70 ef ff ff 	lea    -0x1090(%rbp),%rax
   1adc6:	48 83 c0 10          	add    $0x10,%rax
   1adca:	48 89 85 50 f9 ff ff 	mov    %rax,-0x6b0(%rbp)
   1add1:	48 8d 85 5c ed ff ff 	lea    -0x12a4(%rbp),%rax
   1add8:	48 89 85 58 f9 ff ff 	mov    %rax,-0x6a8(%rbp)
   1addf:	48 8d 85 34 ed ff ff 	lea    -0x12cc(%rbp),%rax
   1ade6:	48 89 85 60 f9 ff ff 	mov    %rax,-0x6a0(%rbp)
   1aded:	48 8d 85 3c ed ff ff 	lea    -0x12c4(%rbp),%rax
   1adf4:	48 89 85 68 f9 ff ff 	mov    %rax,-0x698(%rbp)
   1adfb:	48 c7 85 70 f9 ff ff 	movq   $0x0,-0x690(%rbp)
   1ae02:	00 00 00 00 
   1ae06:	48 c7 85 78 f9 ff ff 	movq   $0x0,-0x688(%rbp)
   1ae0d:	00 00 00 00 
   1ae11:	48 8d 85 20 f4 ff ff 	lea    -0xbe0(%rbp),%rax
   1ae18:	48 05 68 02 00 00    	add    $0x268,%rax
   1ae1e:	48 89 85 80 f9 ff ff 	mov    %rax,-0x680(%rbp)
   1ae25:	48 8d 85 70 ef ff ff 	lea    -0x1090(%rbp),%rax
   1ae2c:	48 83 c0 10          	add    $0x10,%rax
   1ae30:	48 89 85 88 f9 ff ff 	mov    %rax,-0x678(%rbp)
   1ae37:	48 8d 85 20 f4 ff ff 	lea    -0xbe0(%rbp),%rax
   1ae3e:	48 05 68 02 00 00    	add    $0x268,%rax
   1ae44:	48 89 85 90 f9 ff ff 	mov    %rax,-0x670(%rbp)
   1ae4b:	48 8d 85 20 f4 ff ff 	lea    -0xbe0(%rbp),%rax
   1ae52:	48 05 80 02 00 00    	add    $0x280,%rax
   1ae58:	48 89 85 98 f9 ff ff 	mov    %rax,-0x668(%rbp)
   1ae5f:	48 8d 85 20 f4 ff ff 	lea    -0xbe0(%rbp),%rax
   1ae66:	48 05 80 02 00 00    	add    $0x280,%rax
   1ae6c:	48 89 85 a0 f9 ff ff 	mov    %rax,-0x660(%rbp)
   1ae73:	48 8d 85 60 f0 ff ff 	lea    -0xfa0(%rbp),%rax
   1ae7a:	48 05 c8 00 00 00    	add    $0xc8,%rax
   1ae80:	48 89 85 a8 f9 ff ff 	mov    %rax,-0x658(%rbp)
   1ae87:	48 8d 85 40 ed ff ff 	lea    -0x12c0(%rbp),%rax
   1ae8e:	48 89 85 b0 f9 ff ff 	mov    %rax,-0x650(%rbp)
   1ae95:	48 8d 85 70 ef ff ff 	lea    -0x1090(%rbp),%rax
   1ae9c:	48 83 c0 10          	add    $0x10,%rax
   1aea0:	48 89 85 b8 f9 ff ff 	mov    %rax,-0x648(%rbp)
   1aea7:	48 8d 85 50 ed ff ff 	lea    -0x12b0(%rbp),%rax
   1aeae:	48 89 85 c0 f9 ff ff 	mov    %rax,-0x640(%rbp)
   1aeb5:	48 8d 85 50 ed ff ff 	lea    -0x12b0(%rbp),%rax
   1aebc:	48 89 85 c8 f9 ff ff 	mov    %rax,-0x638(%rbp)
   1aec3:	48 8d 85 70 ef ff ff 	lea    -0x1090(%rbp),%rax
   1aeca:	48 83 c0 0c          	add    $0xc,%rax
   1aece:	48 89 85 d0 f9 ff ff 	mov    %rax,-0x630(%rbp)
   1aed5:	48 8d 85 70 ef ff ff 	lea    -0x1090(%rbp),%rax
   1aedc:	48 83 c0 14          	add    $0x14,%rax
   1aee0:	48 89 85 d8 f9 ff ff 	mov    %rax,-0x628(%rbp)
   1aee7:	48 8d 85 70 ef ff ff 	lea    -0x1090(%rbp),%rax
   1aeee:	48 83 c0 10          	add    $0x10,%rax
   1aef2:	48 89 85 e0 f9 ff ff 	mov    %rax,-0x620(%rbp)
   1aef9:	48 c7 85 e8 f9 ff ff 	movq   $0x0,-0x618(%rbp)
   1af00:	00 00 00 00 
   1af04:	48 8d 85 58 ed ff ff 	lea    -0x12a8(%rbp),%rax
   1af0b:	48 89 85 f0 f9 ff ff 	mov    %rax,-0x610(%rbp)
   1af12:	48 8d 85 40 ed ff ff 	lea    -0x12c0(%rbp),%rax
   1af19:	48 89 85 f8 f9 ff ff 	mov    %rax,-0x608(%rbp)
   1af20:	48 c7 85 00 fa ff ff 	movq   $0x0,-0x600(%rbp)
   1af27:	00 00 00 00 
   1af2b:	48 8d 85 60 ed ff ff 	lea    -0x12a0(%rbp),%rax
   1af32:	48 89 85 08 fa ff ff 	mov    %rax,-0x5f8(%rbp)
   1af39:	48 c7 85 10 fa ff ff 	movq   $0x0,-0x5f0(%rbp)
   1af40:	00 00 00 00 
   1af44:	48 8d 85 50 ed ff ff 	lea    -0x12b0(%rbp),%rax
   1af4b:	48 89 85 18 fa ff ff 	mov    %rax,-0x5e8(%rbp)
   1af52:	48 8d 85 70 ef ff ff 	lea    -0x1090(%rbp),%rax
   1af59:	48 83 c0 08          	add    $0x8,%rax
   1af5d:	48 89 85 20 fa ff ff 	mov    %rax,-0x5e0(%rbp)
   1af64:	48 c7 85 28 fa ff ff 	movq   $0x0,-0x5d8(%rbp)
   1af6b:	00 00 00 00 
   1af6f:	48 8d 85 58 ed ff ff 	lea    -0x12a8(%rbp),%rax
   1af76:	48 89 85 30 fa ff ff 	mov    %rax,-0x5d0(%rbp)
   1af7d:	48 8d 85 54 ed ff ff 	lea    -0x12ac(%rbp),%rax
   1af84:	48 89 85 38 fa ff ff 	mov    %rax,-0x5c8(%rbp)
   1af8b:	48 8d 85 20 f4 ff ff 	lea    -0xbe0(%rbp),%rax
   1af92:	48 05 80 02 00 00    	add    $0x280,%rax
   1af98:	48 89 85 40 fa ff ff 	mov    %rax,-0x5c0(%rbp)
   1af9f:	48 c7 85 48 fa ff ff 	movq   $0x0,-0x5b8(%rbp)
   1afa6:	00 00 00 00 
   1afaa:	48 8d 85 20 f4 ff ff 	lea    -0xbe0(%rbp),%rax
   1afb1:	48 05 80 02 00 00    	add    $0x280,%rax
   1afb7:	48 89 85 50 fa ff ff 	mov    %rax,-0x5b0(%rbp)
   1afbe:	48 8d 85 54 ed ff ff 	lea    -0x12ac(%rbp),%rax
   1afc5:	48 89 85 58 fa ff ff 	mov    %rax,-0x5a8(%rbp)
   1afcc:	48 8d 85 4c ed ff ff 	lea    -0x12b4(%rbp),%rax
   1afd3:	48 89 85 60 fa ff ff 	mov    %rax,-0x5a0(%rbp)
   1afda:	48 c7 85 68 fa ff ff 	movq   $0x0,-0x598(%rbp)
   1afe1:	00 00 00 00 
   1afe5:	48 8d 85 60 ed ff ff 	lea    -0x12a0(%rbp),%rax
   1afec:	48 89 85 70 fa ff ff 	mov    %rax,-0x590(%rbp)
   1aff3:	48 8d 85 50 ed ff ff 	lea    -0x12b0(%rbp),%rax
   1affa:	48 89 85 78 fa ff ff 	mov    %rax,-0x588(%rbp)
   1b001:	48 8d 05 28 80 00 00 	lea    0x8028(%rip),%rax        # 23030 <g_46>
   1b008:	48 89 85 80 fa ff ff 	mov    %rax,-0x580(%rbp)
   1b00f:	48 8d 05 1a 80 00 00 	lea    0x801a(%rip),%rax        # 23030 <g_46>
   1b016:	48 89 85 88 fa ff ff 	mov    %rax,-0x578(%rbp)
   1b01d:	48 8d 85 70 ef ff ff 	lea    -0x1090(%rbp),%rax
   1b024:	48 83 c0 10          	add    $0x10,%rax
   1b028:	48 89 85 90 fa ff ff 	mov    %rax,-0x570(%rbp)
   1b02f:	48 8d 85 34 ed ff ff 	lea    -0x12cc(%rbp),%rax
   1b036:	48 89 85 98 fa ff ff 	mov    %rax,-0x568(%rbp)
   1b03d:	48 c7 85 a0 fa ff ff 	movq   $0x0,-0x560(%rbp)
   1b044:	00 00 00 00 
   1b048:	48 c7 85 a8 fa ff ff 	movq   $0x0,-0x558(%rbp)
   1b04f:	00 00 00 00 
   1b053:	48 8d 85 60 ed ff ff 	lea    -0x12a0(%rbp),%rax
   1b05a:	48 89 85 b0 fa ff ff 	mov    %rax,-0x550(%rbp)
   1b061:	48 8d 05 bc 7f 00 00 	lea    0x7fbc(%rip),%rax        # 23024 <g_18>
   1b068:	48 89 85 b8 fa ff ff 	mov    %rax,-0x548(%rbp)
   1b06f:	48 8d 85 70 ef ff ff 	lea    -0x1090(%rbp),%rax
   1b076:	48 89 85 c0 fa ff ff 	mov    %rax,-0x540(%rbp)
   1b07d:	48 c7 85 c8 fa ff ff 	movq   $0x0,-0x538(%rbp)
   1b084:	00 00 00 00 
   1b088:	48 8d 05 a1 7f 00 00 	lea    0x7fa1(%rip),%rax        # 23030 <g_46>
   1b08f:	48 89 85 d0 fa ff ff 	mov    %rax,-0x530(%rbp)
   1b096:	48 8d 85 60 ed ff ff 	lea    -0x12a0(%rbp),%rax
   1b09d:	48 89 85 d8 fa ff ff 	mov    %rax,-0x528(%rbp)
   1b0a4:	48 c7 85 e0 fa ff ff 	movq   $0x0,-0x520(%rbp)
   1b0ab:	00 00 00 00 
   1b0af:	48 8d 05 7a 7f 00 00 	lea    0x7f7a(%rip),%rax        # 23030 <g_46>
   1b0b6:	48 89 85 e8 fa ff ff 	mov    %rax,-0x518(%rbp)
   1b0bd:	48 8d 85 54 ed ff ff 	lea    -0x12ac(%rbp),%rax
   1b0c4:	48 89 85 f0 fa ff ff 	mov    %rax,-0x510(%rbp)
   1b0cb:	48 8d 85 54 ed ff ff 	lea    -0x12ac(%rbp),%rax
   1b0d2:	48 89 85 f8 fa ff ff 	mov    %rax,-0x508(%rbp)
   1b0d9:	48 8d 05 50 7f 00 00 	lea    0x7f50(%rip),%rax        # 23030 <g_46>
   1b0e0:	48 89 85 00 fb ff ff 	mov    %rax,-0x500(%rbp)
   1b0e7:	48 8d 85 40 ed ff ff 	lea    -0x12c0(%rbp),%rax
   1b0ee:	48 89 85 08 fb ff ff 	mov    %rax,-0x4f8(%rbp)
   1b0f5:	48 8d 05 34 7f 00 00 	lea    0x7f34(%rip),%rax        # 23030 <g_46>
   1b0fc:	48 89 85 10 fb ff ff 	mov    %rax,-0x4f0(%rbp)
   1b103:	48 8d 85 4c ed ff ff 	lea    -0x12b4(%rbp),%rax
   1b10a:	48 89 85 18 fb ff ff 	mov    %rax,-0x4e8(%rbp)
   1b111:	48 8d 85 58 ed ff ff 	lea    -0x12a8(%rbp),%rax
   1b118:	48 89 85 20 fb ff ff 	mov    %rax,-0x4e0(%rbp)
   1b11f:	48 8d 85 40 ed ff ff 	lea    -0x12c0(%rbp),%rax
   1b126:	48 89 85 28 fb ff ff 	mov    %rax,-0x4d8(%rbp)
   1b12d:	48 8d 85 44 ed ff ff 	lea    -0x12bc(%rbp),%rax
   1b134:	48 89 85 30 fb ff ff 	mov    %rax,-0x4d0(%rbp)
   1b13b:	48 8d 05 ee 7e 00 00 	lea    0x7eee(%rip),%rax        # 23030 <g_46>
   1b142:	48 89 85 38 fb ff ff 	mov    %rax,-0x4c8(%rbp)
   1b149:	48 8d 05 e0 7e 00 00 	lea    0x7ee0(%rip),%rax        # 23030 <g_46>
   1b150:	48 89 85 40 fb ff ff 	mov    %rax,-0x4c0(%rbp)
   1b157:	48 8d 85 60 ed ff ff 	lea    -0x12a0(%rbp),%rax
   1b15e:	48 89 85 48 fb ff ff 	mov    %rax,-0x4b8(%rbp)
   1b165:	48 8d 85 40 ed ff ff 	lea    -0x12c0(%rbp),%rax
   1b16c:	48 89 85 50 fb ff ff 	mov    %rax,-0x4b0(%rbp)
   1b173:	48 8d 85 58 ed ff ff 	lea    -0x12a8(%rbp),%rax
   1b17a:	48 89 85 58 fb ff ff 	mov    %rax,-0x4a8(%rbp)
   1b181:	48 8d 85 60 f0 ff ff 	lea    -0xfa0(%rbp),%rax
   1b188:	48 05 74 01 00 00    	add    $0x174,%rax
   1b18e:	48 89 85 60 fb ff ff 	mov    %rax,-0x4a0(%rbp)
   1b195:	48 8d 85 60 ed ff ff 	lea    -0x12a0(%rbp),%rax
   1b19c:	48 89 85 68 fb ff ff 	mov    %rax,-0x498(%rbp)
   1b1a3:	48 8d 85 70 ef ff ff 	lea    -0x1090(%rbp),%rax
   1b1aa:	48 83 c0 10          	add    $0x10,%rax
   1b1ae:	48 89 85 70 fb ff ff 	mov    %rax,-0x490(%rbp)
   1b1b5:	48 8d 85 70 ef ff ff 	lea    -0x1090(%rbp),%rax
   1b1bc:	48 83 c0 14          	add    $0x14,%rax
   1b1c0:	48 89 85 78 fb ff ff 	mov    %rax,-0x488(%rbp)
   1b1c7:	48 8d 85 5c ed ff ff 	lea    -0x12a4(%rbp),%rax
   1b1ce:	48 89 85 80 fb ff ff 	mov    %rax,-0x480(%rbp)
   1b1d5:	48 8d 05 54 7e 00 00 	lea    0x7e54(%rip),%rax        # 23030 <g_46>
   1b1dc:	48 89 85 88 fb ff ff 	mov    %rax,-0x478(%rbp)
   1b1e3:	48 8d 85 60 ed ff ff 	lea    -0x12a0(%rbp),%rax
   1b1ea:	48 89 85 90 fb ff ff 	mov    %rax,-0x470(%rbp)
   1b1f1:	48 8d 85 70 ef ff ff 	lea    -0x1090(%rbp),%rax
   1b1f8:	48 83 c0 10          	add    $0x10,%rax
   1b1fc:	48 89 85 98 fb ff ff 	mov    %rax,-0x468(%rbp)
   1b203:	48 8d 85 20 f4 ff ff 	lea    -0xbe0(%rbp),%rax
   1b20a:	48 05 20 01 00 00    	add    $0x120,%rax
   1b210:	48 89 85 a0 fb ff ff 	mov    %rax,-0x460(%rbp)
   1b217:	48 8d 85 20 f4 ff ff 	lea    -0xbe0(%rbp),%rax
   1b21e:	48 05 68 02 00 00    	add    $0x268,%rax
   1b224:	48 89 85 a8 fb ff ff 	mov    %rax,-0x458(%rbp)
   1b22b:	48 8d 05 fe 7d 00 00 	lea    0x7dfe(%rip),%rax        # 23030 <g_46>
   1b232:	48 89 85 b0 fb ff ff 	mov    %rax,-0x450(%rbp)
   1b239:	48 8d 05 f0 7d 00 00 	lea    0x7df0(%rip),%rax        # 23030 <g_46>
   1b240:	48 89 85 b8 fb ff ff 	mov    %rax,-0x448(%rbp)
   1b247:	48 8d 85 20 f4 ff ff 	lea    -0xbe0(%rbp),%rax
   1b24e:	48 05 68 02 00 00    	add    $0x268,%rax
   1b254:	48 89 85 c0 fb ff ff 	mov    %rax,-0x440(%rbp)
   1b25b:	48 c7 85 c8 fb ff ff 	movq   $0x0,-0x438(%rbp)
   1b262:	00 00 00 00 
   1b266:	48 8d 85 60 f0 ff ff 	lea    -0xfa0(%rbp),%rax
   1b26d:	48 05 c8 00 00 00    	add    $0xc8,%rax
   1b273:	48 89 85 d0 fb ff ff 	mov    %rax,-0x430(%rbp)
   1b27a:	48 8d 05 af 7d 00 00 	lea    0x7daf(%rip),%rax        # 23030 <g_46>
   1b281:	48 89 85 d8 fb ff ff 	mov    %rax,-0x428(%rbp)
   1b288:	48 8d 85 40 ed ff ff 	lea    -0x12c0(%rbp),%rax
   1b28f:	48 89 85 e0 fb ff ff 	mov    %rax,-0x420(%rbp)
   1b296:	48 8d 85 3c ed ff ff 	lea    -0x12c4(%rbp),%rax
   1b29d:	48 89 85 e8 fb ff ff 	mov    %rax,-0x418(%rbp)
   1b2a4:	48 8d 05 79 7d 00 00 	lea    0x7d79(%rip),%rax        # 23024 <g_18>
   1b2ab:	48 89 85 f0 fb ff ff 	mov    %rax,-0x410(%rbp)
   1b2b2:	48 8d 85 70 ef ff ff 	lea    -0x1090(%rbp),%rax
   1b2b9:	48 83 c0 0c          	add    $0xc,%rax
   1b2bd:	48 89 85 f8 fb ff ff 	mov    %rax,-0x408(%rbp)
   1b2c4:	48 8d 85 70 ef ff ff 	lea    -0x1090(%rbp),%rax
   1b2cb:	48 89 85 00 fc ff ff 	mov    %rax,-0x400(%rbp)
   1b2d2:	48 8d 85 40 ed ff ff 	lea    -0x12c0(%rbp),%rax
   1b2d9:	48 89 85 08 fc ff ff 	mov    %rax,-0x3f8(%rbp)
   1b2e0:	48 8d 85 60 f0 ff ff 	lea    -0xfa0(%rbp),%rax
   1b2e7:	48 05 74 01 00 00    	add    $0x174,%rax
   1b2ed:	48 89 85 10 fc ff ff 	mov    %rax,-0x3f0(%rbp)
   1b2f4:	48 8d 05 35 7d 00 00 	lea    0x7d35(%rip),%rax        # 23030 <g_46>
   1b2fb:	48 89 85 18 fc ff ff 	mov    %rax,-0x3e8(%rbp)
   1b302:	48 8d 85 40 ed ff ff 	lea    -0x12c0(%rbp),%rax
   1b309:	48 89 85 20 fc ff ff 	mov    %rax,-0x3e0(%rbp)
   1b310:	48 8d 85 34 ed ff ff 	lea    -0x12cc(%rbp),%rax
   1b317:	48 89 85 28 fc ff ff 	mov    %rax,-0x3d8(%rbp)
   1b31e:	48 8d 85 70 ef ff ff 	lea    -0x1090(%rbp),%rax
   1b325:	48 83 c0 14          	add    $0x14,%rax
   1b329:	48 89 85 30 fc ff ff 	mov    %rax,-0x3d0(%rbp)
   1b330:	48 8d 85 54 ed ff ff 	lea    -0x12ac(%rbp),%rax
   1b337:	48 89 85 38 fc ff ff 	mov    %rax,-0x3c8(%rbp)
   1b33e:	48 8d 05 df 7c 00 00 	lea    0x7cdf(%rip),%rax        # 23024 <g_18>
   1b345:	48 89 85 40 fc ff ff 	mov    %rax,-0x3c0(%rbp)
   1b34c:	48 8d 85 70 ef ff ff 	lea    -0x1090(%rbp),%rax
   1b353:	48 83 c0 08          	add    $0x8,%rax
   1b357:	48 89 85 48 fc ff ff 	mov    %rax,-0x3b8(%rbp)
   1b35e:	48 8d 85 60 ed ff ff 	lea    -0x12a0(%rbp),%rax
   1b365:	48 89 85 50 fc ff ff 	mov    %rax,-0x3b0(%rbp)
   1b36c:	48 8d 85 20 f4 ff ff 	lea    -0xbe0(%rbp),%rax
   1b373:	48 05 20 01 00 00    	add    $0x120,%rax
   1b379:	48 89 85 58 fc ff ff 	mov    %rax,-0x3a8(%rbp)
   1b380:	48 c7 85 60 fc ff ff 	movq   $0x0,-0x3a0(%rbp)
   1b387:	00 00 00 00 
   1b38b:	48 c7 85 68 fc ff ff 	movq   $0x0,-0x398(%rbp)
   1b392:	00 00 00 00 
   1b396:	48 c7 85 70 fc ff ff 	movq   $0x0,-0x390(%rbp)
   1b39d:	00 00 00 00 
   1b3a1:	48 c7 85 78 fc ff ff 	movq   $0x0,-0x388(%rbp)
   1b3a8:	00 00 00 00 
   1b3ac:	48 c7 85 80 fc ff ff 	movq   $0x0,-0x380(%rbp)
   1b3b3:	00 00 00 00 
   1b3b7:	48 8d 05 72 7c 00 00 	lea    0x7c72(%rip),%rax        # 23030 <g_46>
   1b3be:	48 89 85 88 fc ff ff 	mov    %rax,-0x378(%rbp)
   1b3c5:	48 8d 85 20 f4 ff ff 	lea    -0xbe0(%rbp),%rax
   1b3cc:	48 05 20 01 00 00    	add    $0x120,%rax
   1b3d2:	48 89 85 90 fc ff ff 	mov    %rax,-0x370(%rbp)
   1b3d9:	48 8d 85 60 ed ff ff 	lea    -0x12a0(%rbp),%rax
   1b3e0:	48 89 85 98 fc ff ff 	mov    %rax,-0x368(%rbp)
   1b3e7:	48 8d 85 70 ef ff ff 	lea    -0x1090(%rbp),%rax
   1b3ee:	48 83 c0 08          	add    $0x8,%rax
   1b3f2:	48 89 85 a0 fc ff ff 	mov    %rax,-0x360(%rbp)
   1b3f9:	48 8d 05 24 7c 00 00 	lea    0x7c24(%rip),%rax        # 23024 <g_18>
   1b400:	48 89 85 a8 fc ff ff 	mov    %rax,-0x358(%rbp)
   1b407:	48 8d 85 50 ed ff ff 	lea    -0x12b0(%rbp),%rax
   1b40e:	48 89 85 b0 fc ff ff 	mov    %rax,-0x350(%rbp)
   1b415:	48 8d 85 70 ef ff ff 	lea    -0x1090(%rbp),%rax
   1b41c:	48 83 c0 14          	add    $0x14,%rax
   1b420:	48 89 85 b8 fc ff ff 	mov    %rax,-0x348(%rbp)
   1b427:	48 8d 85 34 ed ff ff 	lea    -0x12cc(%rbp),%rax
   1b42e:	48 89 85 c0 fc ff ff 	mov    %rax,-0x340(%rbp)
   1b435:	48 8d 85 40 ed ff ff 	lea    -0x12c0(%rbp),%rax
   1b43c:	48 89 85 c8 fc ff ff 	mov    %rax,-0x338(%rbp)
   1b443:	48 8d 05 e6 7b 00 00 	lea    0x7be6(%rip),%rax        # 23030 <g_46>
   1b44a:	48 89 85 d0 fc ff ff 	mov    %rax,-0x330(%rbp)
   1b451:	48 8d 85 60 f0 ff ff 	lea    -0xfa0(%rbp),%rax
   1b458:	48 05 84 00 00 00    	add    $0x84,%rax
   1b45e:	48 89 85 d8 fc ff ff 	mov    %rax,-0x328(%rbp)
   1b465:	48 8d 85 40 ed ff ff 	lea    -0x12c0(%rbp),%rax
   1b46c:	48 89 85 e0 fc ff ff 	mov    %rax,-0x320(%rbp)
   1b473:	48 8d 85 70 ef ff ff 	lea    -0x1090(%rbp),%rax
   1b47a:	48 89 85 e8 fc ff ff 	mov    %rax,-0x318(%rbp)
   1b481:	48 8d 05 9c 7b 00 00 	lea    0x7b9c(%rip),%rax        # 23024 <g_18>
   1b488:	48 89 85 f0 fc ff ff 	mov    %rax,-0x310(%rbp)
   1b48f:	48 8d 85 50 ed ff ff 	lea    -0x12b0(%rbp),%rax
   1b496:	48 89 85 f8 fc ff ff 	mov    %rax,-0x308(%rbp)
   1b49d:	48 8d 85 60 f0 ff ff 	lea    -0xfa0(%rbp),%rax
   1b4a4:	48 05 74 01 00 00    	add    $0x174,%rax
   1b4aa:	48 89 85 00 fd ff ff 	mov    %rax,-0x300(%rbp)
   1b4b1:	48 8d 85 5c ed ff ff 	lea    -0x12a4(%rbp),%rax
   1b4b8:	48 89 85 08 fd ff ff 	mov    %rax,-0x2f8(%rbp)
   1b4bf:	48 c7 85 10 fd ff ff 	movq   $0x0,-0x2f0(%rbp)
   1b4c6:	00 00 00 00 
   1b4ca:	48 8d 85 58 ed ff ff 	lea    -0x12a8(%rbp),%rax
   1b4d1:	48 89 85 18 fd ff ff 	mov    %rax,-0x2e8(%rbp)
   1b4d8:	48 c7 85 20 fd ff ff 	movq   $0x0,-0x2e0(%rbp)
   1b4df:	00 00 00 00 
   1b4e3:	48 8d 85 58 ed ff ff 	lea    -0x12a8(%rbp),%rax
   1b4ea:	48 89 85 28 fd ff ff 	mov    %rax,-0x2d8(%rbp)
   1b4f1:	48 8d 85 4c ed ff ff 	lea    -0x12b4(%rbp),%rax
   1b4f8:	48 89 85 30 fd ff ff 	mov    %rax,-0x2d0(%rbp)
   1b4ff:	48 8d 85 4c ed ff ff 	lea    -0x12b4(%rbp),%rax
   1b506:	48 89 85 38 fd ff ff 	mov    %rax,-0x2c8(%rbp)
   1b50d:	48 8d 85 60 f0 ff ff 	lea    -0xfa0(%rbp),%rax
   1b514:	48 05 74 01 00 00    	add    $0x174,%rax
   1b51a:	48 89 85 40 fd ff ff 	mov    %rax,-0x2c0(%rbp)
   1b521:	48 8d 05 08 7b 00 00 	lea    0x7b08(%rip),%rax        # 23030 <g_46>
   1b528:	48 89 85 48 fd ff ff 	mov    %rax,-0x2b8(%rbp)
   1b52f:	48 8d 85 20 f4 ff ff 	lea    -0xbe0(%rbp),%rax
   1b536:	48 05 20 01 00 00    	add    $0x120,%rax
   1b53c:	48 89 85 50 fd ff ff 	mov    %rax,-0x2b0(%rbp)
   1b543:	48 c7 85 58 fd ff ff 	movq   $0x0,-0x2a8(%rbp)
   1b54a:	00 00 00 00 
   1b54e:	48 8d 85 44 ed ff ff 	lea    -0x12bc(%rbp),%rax
   1b555:	48 89 85 60 fd ff ff 	mov    %rax,-0x2a0(%rbp)
   1b55c:	48 8d 85 34 ed ff ff 	lea    -0x12cc(%rbp),%rax
   1b563:	48 89 85 68 fd ff ff 	mov    %rax,-0x298(%rbp)
   1b56a:	48 8d 85 54 ed ff ff 	lea    -0x12ac(%rbp),%rax
   1b571:	48 89 85 70 fd ff ff 	mov    %rax,-0x290(%rbp)
   1b578:	48 c7 85 78 fd ff ff 	movq   $0x0,-0x288(%rbp)
   1b57f:	00 00 00 00 
   1b583:	48 8d 85 4c ed ff ff 	lea    -0x12b4(%rbp),%rax
   1b58a:	48 89 85 80 fd ff ff 	mov    %rax,-0x280(%rbp)
   1b591:	48 8d 85 70 ef ff ff 	lea    -0x1090(%rbp),%rax
   1b598:	48 83 c0 14          	add    $0x14,%rax
   1b59c:	48 89 85 88 fd ff ff 	mov    %rax,-0x278(%rbp)
   1b5a3:	48 8d 85 20 f4 ff ff 	lea    -0xbe0(%rbp),%rax
   1b5aa:	48 05 68 02 00 00    	add    $0x268,%rax
   1b5b0:	48 89 85 90 fd ff ff 	mov    %rax,-0x270(%rbp)
   1b5b7:	48 8d 85 20 f4 ff ff 	lea    -0xbe0(%rbp),%rax
   1b5be:	48 05 c8 01 00 00    	add    $0x1c8,%rax
   1b5c4:	48 89 85 98 fd ff ff 	mov    %rax,-0x268(%rbp)
   1b5cb:	48 8d 85 60 ed ff ff 	lea    -0x12a0(%rbp),%rax
   1b5d2:	48 89 85 a0 fd ff ff 	mov    %rax,-0x260(%rbp)
   1b5d9:	48 c7 85 a8 fd ff ff 	movq   $0x0,-0x258(%rbp)
   1b5e0:	00 00 00 00 
   1b5e4:	48 8d 85 44 ed ff ff 	lea    -0x12bc(%rbp),%rax
   1b5eb:	48 89 85 b0 fd ff ff 	mov    %rax,-0x250(%rbp)
   1b5f2:	48 8d 85 40 ed ff ff 	lea    -0x12c0(%rbp),%rax
   1b5f9:	48 89 85 b8 fd ff ff 	mov    %rax,-0x248(%rbp)
   1b600:	48 8d 85 5c ed ff ff 	lea    -0x12a4(%rbp),%rax
   1b607:	48 89 85 c0 fd ff ff 	mov    %rax,-0x240(%rbp)
   1b60e:	48 8d 85 60 f0 ff ff 	lea    -0xfa0(%rbp),%rax
   1b615:	48 05 c8 00 00 00    	add    $0xc8,%rax
   1b61b:	48 89 85 c8 fd ff ff 	mov    %rax,-0x238(%rbp)
   1b622:	48 8d 85 50 ed ff ff 	lea    -0x12b0(%rbp),%rax
   1b629:	48 89 85 d0 fd ff ff 	mov    %rax,-0x230(%rbp)
   1b630:	48 8d 85 4c ed ff ff 	lea    -0x12b4(%rbp),%rax
   1b637:	48 89 85 d8 fd ff ff 	mov    %rax,-0x228(%rbp)
   1b63e:	48 8d 85 20 f4 ff ff 	lea    -0xbe0(%rbp),%rax
   1b645:	48 05 c8 01 00 00    	add    $0x1c8,%rax
   1b64b:	48 89 85 e0 fd ff ff 	mov    %rax,-0x220(%rbp)
   1b652:	48 8d 85 4c ed ff ff 	lea    -0x12b4(%rbp),%rax
   1b659:	48 89 85 e8 fd ff ff 	mov    %rax,-0x218(%rbp)
   1b660:	48 8d 85 50 ed ff ff 	lea    -0x12b0(%rbp),%rax
   1b667:	48 89 85 f0 fd ff ff 	mov    %rax,-0x210(%rbp)
   1b66e:	48 8d 05 bb 79 00 00 	lea    0x79bb(%rip),%rax        # 23030 <g_46>
   1b675:	48 89 85 f8 fd ff ff 	mov    %rax,-0x208(%rbp)
   1b67c:	48 c7 85 00 fe ff ff 	movq   $0x0,-0x200(%rbp)
   1b683:	00 00 00 00 
   1b687:	48 8d 85 54 ed ff ff 	lea    -0x12ac(%rbp),%rax
   1b68e:	48 89 85 08 fe ff ff 	mov    %rax,-0x1f8(%rbp)
   1b695:	48 c7 85 10 fe ff ff 	movq   $0x0,-0x1f0(%rbp)
   1b69c:	00 00 00 00 
   1b6a0:	48 8d 85 3c ed ff ff 	lea    -0x12c4(%rbp),%rax
   1b6a7:	48 89 85 18 fe ff ff 	mov    %rax,-0x1e8(%rbp)
   1b6ae:	48 8d 85 40 ed ff ff 	lea    -0x12c0(%rbp),%rax
   1b6b5:	48 89 85 20 fe ff ff 	mov    %rax,-0x1e0(%rbp)
   1b6bc:	48 8d 85 20 f4 ff ff 	lea    -0xbe0(%rbp),%rax
   1b6c3:	48 05 20 01 00 00    	add    $0x120,%rax
   1b6c9:	48 89 85 28 fe ff ff 	mov    %rax,-0x1d8(%rbp)
   1b6d0:	48 8d 85 50 ed ff ff 	lea    -0x12b0(%rbp),%rax
   1b6d7:	48 89 85 30 fe ff ff 	mov    %rax,-0x1d0(%rbp)
   1b6de:	48 8d 85 4c ed ff ff 	lea    -0x12b4(%rbp),%rax
   1b6e5:	48 89 85 38 fe ff ff 	mov    %rax,-0x1c8(%rbp)
   1b6ec:	48 8d 85 20 f4 ff ff 	lea    -0xbe0(%rbp),%rax
   1b6f3:	48 05 c8 01 00 00    	add    $0x1c8,%rax
   1b6f9:	48 89 85 40 fe ff ff 	mov    %rax,-0x1c0(%rbp)
   1b700:	48 8d 85 54 ed ff ff 	lea    -0x12ac(%rbp),%rax
   1b707:	48 89 85 48 fe ff ff 	mov    %rax,-0x1b8(%rbp)
   1b70e:	48 8d 85 60 ed ff ff 	lea    -0x12a0(%rbp),%rax
   1b715:	48 89 85 50 fe ff ff 	mov    %rax,-0x1b0(%rbp)
   1b71c:	48 8d 85 40 ed ff ff 	lea    -0x12c0(%rbp),%rax
   1b723:	48 89 85 58 fe ff ff 	mov    %rax,-0x1a8(%rbp)
   1b72a:	48 c7 85 60 fe ff ff 	movq   $0x0,-0x1a0(%rbp)
   1b731:	00 00 00 00 
   1b735:	48 8d 85 3c ed ff ff 	lea    -0x12c4(%rbp),%rax
   1b73c:	48 89 85 68 fe ff ff 	mov    %rax,-0x198(%rbp)
   1b743:	48 8d 85 60 ed ff ff 	lea    -0x12a0(%rbp),%rax
   1b74a:	48 89 85 70 fe ff ff 	mov    %rax,-0x190(%rbp)
   1b751:	48 8d 85 4c ed ff ff 	lea    -0x12b4(%rbp),%rax
   1b758:	48 89 85 78 fe ff ff 	mov    %rax,-0x188(%rbp)
   1b75f:	48 8d 85 40 ed ff ff 	lea    -0x12c0(%rbp),%rax
   1b766:	48 89 85 80 fe ff ff 	mov    %rax,-0x180(%rbp)
   1b76d:	48 8d 85 50 ed ff ff 	lea    -0x12b0(%rbp),%rax
   1b774:	48 89 85 88 fe ff ff 	mov    %rax,-0x178(%rbp)
   1b77b:	48 8d 85 50 ed ff ff 	lea    -0x12b0(%rbp),%rax
   1b782:	48 89 85 90 fe ff ff 	mov    %rax,-0x170(%rbp)
   1b789:	48 8d 85 3c ed ff ff 	lea    -0x12c4(%rbp),%rax
   1b790:	48 89 85 98 fe ff ff 	mov    %rax,-0x168(%rbp)
   1b797:	48 8d 85 40 ed ff ff 	lea    -0x12c0(%rbp),%rax
   1b79e:	48 89 85 a0 fe ff ff 	mov    %rax,-0x160(%rbp)
   1b7a5:	48 8d 85 3c ed ff ff 	lea    -0x12c4(%rbp),%rax
   1b7ac:	48 89 85 a8 fe ff ff 	mov    %rax,-0x158(%rbp)
   1b7b3:	48 8d 05 76 78 00 00 	lea    0x7876(%rip),%rax        # 23030 <g_46>
   1b7ba:	48 89 85 b0 fe ff ff 	mov    %rax,-0x150(%rbp)
   1b7c1:	48 8d 85 60 f0 ff ff 	lea    -0xfa0(%rbp),%rax
   1b7c8:	48 05 c8 00 00 00    	add    $0xc8,%rax
   1b7ce:	48 89 85 b8 fe ff ff 	mov    %rax,-0x148(%rbp)
   1b7d5:	48 8d 85 70 ef ff ff 	lea    -0x1090(%rbp),%rax
   1b7dc:	48 83 c0 0c          	add    $0xc,%rax
   1b7e0:	48 89 85 c0 fe ff ff 	mov    %rax,-0x140(%rbp)
   1b7e7:	48 8d 85 58 ed ff ff 	lea    -0x12a8(%rbp),%rax
   1b7ee:	48 89 85 c8 fe ff ff 	mov    %rax,-0x138(%rbp)
   1b7f5:	48 8d 85 70 ef ff ff 	lea    -0x1090(%rbp),%rax
   1b7fc:	48 83 c0 08          	add    $0x8,%rax
   1b800:	48 89 85 d0 fe ff ff 	mov    %rax,-0x130(%rbp)
   1b807:	48 8d 85 40 ed ff ff 	lea    -0x12c0(%rbp),%rax
   1b80e:	48 89 85 d8 fe ff ff 	mov    %rax,-0x128(%rbp)
   1b815:	48 8d 85 60 ed ff ff 	lea    -0x12a0(%rbp),%rax
   1b81c:	48 89 85 e0 fe ff ff 	mov    %rax,-0x120(%rbp)
   1b823:	48 8d 85 40 ed ff ff 	lea    -0x12c0(%rbp),%rax
   1b82a:	48 89 85 e8 fe ff ff 	mov    %rax,-0x118(%rbp)
   1b831:	48 8d 85 60 f0 ff ff 	lea    -0xfa0(%rbp),%rax
   1b838:	48 05 c8 00 00 00    	add    $0xc8,%rax
   1b83e:	48 89 85 f0 fe ff ff 	mov    %rax,-0x110(%rbp)
   1b845:	48 8d 85 70 ef ff ff 	lea    -0x1090(%rbp),%rax
   1b84c:	48 83 c0 14          	add    $0x14,%rax
   1b850:	48 89 85 f8 fe ff ff 	mov    %rax,-0x108(%rbp)
   1b857:	48 8d 85 54 ed ff ff 	lea    -0x12ac(%rbp),%rax
   1b85e:	48 89 85 00 ff ff ff 	mov    %rax,-0x100(%rbp)
   1b865:	48 c7 85 08 ff ff ff 	movq   $0x0,-0xf8(%rbp)
   1b86c:	00 00 00 00 
   1b870:	48 8d 85 50 ed ff ff 	lea    -0x12b0(%rbp),%rax
   1b877:	48 89 85 10 ff ff ff 	mov    %rax,-0xf0(%rbp)
   1b87e:	48 8d 05 9f 77 00 00 	lea    0x779f(%rip),%rax        # 23024 <g_18>
   1b885:	48 89 85 18 ff ff ff 	mov    %rax,-0xe8(%rbp)
   1b88c:	48 8d 85 70 ef ff ff 	lea    -0x1090(%rbp),%rax
   1b893:	48 83 c0 08          	add    $0x8,%rax
   1b897:	48 89 85 20 ff ff ff 	mov    %rax,-0xe0(%rbp)
   1b89e:	48 8d 85 60 ed ff ff 	lea    -0x12a0(%rbp),%rax
   1b8a5:	48 89 85 28 ff ff ff 	mov    %rax,-0xd8(%rbp)
   1b8ac:	48 8d 85 20 f4 ff ff 	lea    -0xbe0(%rbp),%rax
   1b8b3:	48 05 20 01 00 00    	add    $0x120,%rax
   1b8b9:	48 89 85 30 ff ff ff 	mov    %rax,-0xd0(%rbp)
   1b8c0:	48 8d 85 20 f4 ff ff 	lea    -0xbe0(%rbp),%rax
   1b8c7:	48 05 80 02 00 00    	add    $0x280,%rax
   1b8cd:	48 89 85 38 ff ff ff 	mov    %rax,-0xc8(%rbp)
   1b8d4:	48 8d 85 58 ed ff ff 	lea    -0x12a8(%rbp),%rax
   1b8db:	48 89 85 40 ff ff ff 	mov    %rax,-0xc0(%rbp)
   1b8e2:	48 8d 85 3c ed ff ff 	lea    -0x12c4(%rbp),%rax
   1b8e9:	48 89 85 48 ff ff ff 	mov    %rax,-0xb8(%rbp)
   1b8f0:	48 8d 85 3c ed ff ff 	lea    -0x12c4(%rbp),%rax
   1b8f7:	48 89 85 50 ff ff ff 	mov    %rax,-0xb0(%rbp)
   1b8fe:	48 8d 85 58 ed ff ff 	lea    -0x12a8(%rbp),%rax
   1b905:	48 89 85 58 ff ff ff 	mov    %rax,-0xa8(%rbp)
   1b90c:	48 8d 85 3c ed ff ff 	lea    -0x12c4(%rbp),%rax
   1b913:	48 89 85 60 ff ff ff 	mov    %rax,-0xa0(%rbp)
   1b91a:	48 8d 85 60 f0 ff ff 	lea    -0xfa0(%rbp),%rax
   1b921:	48 05 74 01 00 00    	add    $0x174,%rax
   1b927:	48 89 85 68 ff ff ff 	mov    %rax,-0x98(%rbp)
   1b92e:	48 8d 85 40 ed ff ff 	lea    -0x12c0(%rbp),%rax
   1b935:	48 89 85 70 ff ff ff 	mov    %rax,-0x90(%rbp)
   1b93c:	48 8d 85 70 ef ff ff 	lea    -0x1090(%rbp),%rax
   1b943:	48 83 c0 0c          	add    $0xc,%rax
   1b947:	48 89 85 78 ff ff ff 	mov    %rax,-0x88(%rbp)
   1b94e:	48 8d 85 60 f0 ff ff 	lea    -0xfa0(%rbp),%rax
   1b955:	48 05 74 01 00 00    	add    $0x174,%rax
   1b95b:	48 89 45 80          	mov    %rax,-0x80(%rbp)
   1b95f:	48 8d 85 60 ed ff ff 	lea    -0x12a0(%rbp),%rax
   1b966:	48 89 45 88          	mov    %rax,-0x78(%rbp)
   1b96a:	48 8d 85 34 ed ff ff 	lea    -0x12cc(%rbp),%rax
   1b971:	48 89 45 90          	mov    %rax,-0x70(%rbp)
   1b975:	48 8d 85 40 ed ff ff 	lea    -0x12c0(%rbp),%rax
   1b97c:	48 89 45 98          	mov    %rax,-0x68(%rbp)
   1b980:	48 8d 85 40 ed ff ff 	lea    -0x12c0(%rbp),%rax
   1b987:	48 89 45 a0          	mov    %rax,-0x60(%rbp)
   1b98b:	48 8d 05 9e 76 00 00 	lea    0x769e(%rip),%rax        # 23030 <g_46>
   1b992:	48 89 45 a8          	mov    %rax,-0x58(%rbp)
   1b996:	66 c7 85 2a ed ff ff 	movw   $0xfffc,-0x12d6(%rbp)
   1b99d:	fc ff 
   1b99f:	c7 85 c8 ed ff ff 00 	movl   $0x0,-0x1238(%rbp)
   1b9a6:	00 00 00 
   1b9a9:	eb 1a                	jmp    1b9c5 <func_35+0x1954>
   1b9ab:	8b 85 c8 ed ff ff    	mov    -0x1238(%rbp),%eax
   1b9b1:	48 98                	cltq   
   1b9b3:	c7 84 85 70 ef ff ff 	movl   $0x1898e194,-0x1090(%rbp,%rax,4)
   1b9ba:	94 e1 98 18 
   1b9be:	83 85 c8 ed ff ff 01 	addl   $0x1,-0x1238(%rbp)
   1b9c5:	83 bd c8 ed ff ff 05 	cmpl   $0x5,-0x1238(%rbp)
   1b9cc:	7e dd                	jle    1b9ab <func_35+0x193a>
   1b9ce:	0f b7 05 eb 76 00 00 	movzwl 0x76eb(%rip),%eax        # 230c0 <g_253>
   1b9d5:	83 c0 01             	add    $0x1,%eax
   1b9d8:	66 89 05 e1 76 00 00 	mov    %ax,0x76e1(%rip)        # 230c0 <g_253>
   1b9df:	0f b7 05 da 76 00 00 	movzwl 0x76da(%rip),%eax        # 230c0 <g_253>
   1b9e6:	66 83 f8 06          	cmp    $0x6,%ax
   1b9ea:	0f 8e d8 ef ff ff    	jle    1a9c8 <func_35+0x957>
   1b9f0:	66 c7 05 37 ac 00 00 	movw   $0x0,0xac37(%rip)        # 26630 <g_251>
   1b9f7:	00 00 
   1b9f9:	e9 8b 0a 00 00       	jmpq   1c489 <func_35+0x2418>
   1b9fe:	48 8d 85 44 ed ff ff 	lea    -0x12bc(%rbp),%rax
   1ba05:	48 89 85 d0 ee ff ff 	mov    %rax,-0x1130(%rbp)
   1ba0c:	c7 85 a0 ed ff ff 0c 	movl   $0x3e9c240c,-0x1260(%rbp)
   1ba13:	24 9c 3e 
   1ba16:	c7 85 a4 ed ff ff fe 	movl   $0xfffffffe,-0x125c(%rbp)
   1ba1d:	ff ff ff 
   1ba20:	c7 85 90 ef ff ff 88 	movl   $0x89b51f88,-0x1070(%rbp)
   1ba27:	1f b5 89 
   1ba2a:	c7 85 94 ef ff ff 88 	movl   $0x89b51f88,-0x106c(%rbp)
   1ba31:	1f b5 89 
   1ba34:	c7 85 98 ef ff ff 88 	movl   $0x89b51f88,-0x1068(%rbp)
   1ba3b:	1f b5 89 
   1ba3e:	c7 85 9c ef ff ff 88 	movl   $0x89b51f88,-0x1064(%rbp)
   1ba45:	1f b5 89 
   1ba48:	c7 85 a0 ef ff ff 88 	movl   $0x89b51f88,-0x1060(%rbp)
   1ba4f:	1f b5 89 
   1ba52:	c7 85 a4 ef ff ff 88 	movl   $0x89b51f88,-0x105c(%rbp)
   1ba59:	1f b5 89 
   1ba5c:	c7 85 a8 ef ff ff 88 	movl   $0x89b51f88,-0x1058(%rbp)
   1ba63:	1f b5 89 
   1ba66:	48 8d 85 20 ed ff ff 	lea    -0x12e0(%rbp),%rax
   1ba6d:	48 89 85 d8 ee ff ff 	mov    %rax,-0x1128(%rbp)
   1ba74:	c7 85 9c ed ff ff ff 	movl   $0xffffffff,-0x1264(%rbp)
   1ba7b:	ff ff ff 
   1ba7e:	48 8d 05 1b 98 00 00 	lea    0x981b(%rip),%rax        # 252a0 <g_206>
   1ba85:	48 89 85 c0 ee ff ff 	mov    %rax,-0x1140(%rbp)
   1ba8c:	48 8d 85 1c ed ff ff 	lea    -0x12e4(%rbp),%rax
   1ba93:	48 89 85 c8 ee ff ff 	mov    %rax,-0x1138(%rbp)
   1ba9a:	c7 85 78 ed ff ff 00 	movl   $0x0,-0x1288(%rbp)
   1baa1:	00 00 00 
   1baa4:	eb 25                	jmp    1bacb <func_35+0x1a5a>
   1baa6:	8b 85 78 ed ff ff    	mov    -0x1288(%rbp),%eax
   1baac:	48 98                	cltq   
   1baae:	48 8d 95 60 f0 ff ff 	lea    -0xfa0(%rbp),%rdx
   1bab5:	48 81 c2 74 01 00 00 	add    $0x174,%rdx
   1babc:	48 89 94 c5 70 ef ff 	mov    %rdx,-0x1090(%rbp,%rax,8)
   1bac3:	ff 
   1bac4:	83 85 78 ed ff ff 01 	addl   $0x1,-0x1288(%rbp)
   1bacb:	83 bd 78 ed ff ff 01 	cmpl   $0x1,-0x1288(%rbp)
   1bad2:	7e d2                	jle    1baa6 <func_35+0x1a35>
   1bad4:	48 8d 85 38 ed ff ff 	lea    -0x12c8(%rbp),%rax
   1badb:	48 89 85 d0 ee ff ff 	mov    %rax,-0x1130(%rbp)
   1bae2:	48 8b 85 00 ef ff ff 	mov    -0x1100(%rbp),%rax
   1bae9:	48 8b 00             	mov    (%rax),%rax
   1baec:	48 8b 95 d0 ee ff ff 	mov    -0x1130(%rbp),%rdx
   1baf3:	48 89 10             	mov    %rdx,(%rax)
   1baf6:	c6 05 37 75 00 00 00 	movb   $0x0,0x7537(%rip)        # 23034 <g_55>
   1bafd:	e9 27 04 00 00       	jmpq   1bf29 <func_35+0x1eb8>
   1bb02:	c7 85 80 ed ff ff d3 	movl   $0xf0ba4dd3,-0x1280(%rbp)
   1bb09:	4d ba f0 
   1bb0c:	c7 85 f0 ed ff ff 8a 	movl   $0x44bce58a,-0x1210(%rbp)
   1bb13:	e5 bc 44 
   1bb16:	c7 85 84 ed ff ff 08 	movl   $0x8,-0x127c(%rbp)
   1bb1d:	00 00 00 
   1bb20:	c7 85 88 ed ff ff 00 	movl   $0x0,-0x1278(%rbp)
   1bb27:	00 00 00 
   1bb2a:	c7 85 8c ed ff ff ff 	movl   $0xffffffff,-0x1274(%rbp)
   1bb31:	ff ff ff 
   1bb34:	c7 85 90 ed ff ff d6 	movl   $0x5afc48d6,-0x1270(%rbp)
   1bb3b:	48 fc 5a 
   1bb3e:	c7 85 94 ed ff ff bd 	movl   $0xb4ed4bbd,-0x126c(%rbp)
   1bb45:	4b ed b4 
   1bb48:	48 b8 4e 1b 3c ae 8a 	movabs $0x4bda738aae3c1b4e,%rax
   1bb4f:	73 da 4b 
   1bb52:	48 89 85 90 ee ff ff 	mov    %rax,-0x1170(%rbp)
   1bb59:	c7 85 74 ed ff ff 00 	movl   $0x0,-0x128c(%rbp)
   1bb60:	00 00 00 
   1bb63:	eb 42                	jmp    1bba7 <func_35+0x1b36>
   1bb65:	c7 85 70 ed ff ff 00 	movl   $0x0,-0x1290(%rbp)
   1bb6c:	00 00 00 
   1bb6f:	eb 26                	jmp    1bb97 <func_35+0x1b26>
   1bb71:	8b 85 70 ed ff ff    	mov    -0x1290(%rbp),%eax
   1bb77:	48 63 d0             	movslq %eax,%rdx
   1bb7a:	8b 85 74 ed ff ff    	mov    -0x128c(%rbp),%eax
   1bb80:	48 98                	cltq   
   1bb82:	48 01 d0             	add    %rdx,%rax
   1bb85:	c7 84 85 3c ef ff ff 	movl   $0x0,-0x10c4(%rbp,%rax,4)
   1bb8c:	00 00 00 00 
   1bb90:	83 85 70 ed ff ff 01 	addl   $0x1,-0x1290(%rbp)
   1bb97:	83 bd 70 ed ff ff 00 	cmpl   $0x0,-0x1290(%rbp)
   1bb9e:	7e d1                	jle    1bb71 <func_35+0x1b00>
   1bba0:	83 85 74 ed ff ff 01 	addl   $0x1,-0x128c(%rbp)
   1bba7:	83 bd 74 ed ff ff 00 	cmpl   $0x0,-0x128c(%rbp)
   1bbae:	7e b5                	jle    1bb65 <func_35+0x1af4>
   1bbb0:	48 8b 05 41 8f 00 00 	mov    0x8f41(%rip),%rax        # 24af8 <g_108>
   1bbb7:	8b 95 80 ed ff ff    	mov    -0x1280(%rbp),%edx
   1bbbd:	89 10                	mov    %edx,(%rax)
   1bbbf:	c7 85 40 ed ff ff 01 	movl   $0x1,-0x12c0(%rbp)
   1bbc6:	00 00 00 
   1bbc9:	e9 0f 01 00 00       	jmpq   1bcdd <func_35+0x1c6c>
   1bbce:	48 c7 85 88 ee ff ff 	movq   $0x0,-0x1178(%rbp)
   1bbd5:	00 00 00 00 
   1bbd9:	48 8d 85 60 f0 ff ff 	lea    -0xfa0(%rbp),%rax
   1bbe0:	48 05 b8 01 00 00    	add    $0x1b8,%rax
   1bbe6:	48 89 85 30 ee ff ff 	mov    %rax,-0x11d0(%rbp)
   1bbed:	48 c7 85 38 ee ff ff 	movq   $0x0,-0x11c8(%rbp)
   1bbf4:	00 00 00 00 
   1bbf8:	48 8d 85 3c ed ff ff 	lea    -0x12c4(%rbp),%rax
   1bbff:	48 89 85 40 ee ff ff 	mov    %rax,-0x11c0(%rbp)
   1bc06:	48 8d 85 20 f4 ff ff 	lea    -0xbe0(%rbp),%rax
   1bc0d:	48 05 00 01 00 00    	add    $0x100,%rax
   1bc13:	48 89 85 48 ee ff ff 	mov    %rax,-0x11b8(%rbp)
   1bc1a:	48 c7 85 50 ee ff ff 	movq   $0x0,-0x11b0(%rbp)
   1bc21:	00 00 00 00 
   1bc25:	48 8d 85 34 ed ff ff 	lea    -0x12cc(%rbp),%rax
   1bc2c:	48 89 85 58 ee ff ff 	mov    %rax,-0x11a8(%rbp)
   1bc33:	48 8d 85 44 ed ff ff 	lea    -0x12bc(%rbp),%rax
   1bc3a:	48 89 85 60 ee ff ff 	mov    %rax,-0x11a0(%rbp)
   1bc41:	48 8d 85 f0 ed ff ff 	lea    -0x1210(%rbp),%rax
   1bc48:	48 89 85 68 ee ff ff 	mov    %rax,-0x1198(%rbp)
   1bc4f:	48 8d 85 20 f4 ff ff 	lea    -0xbe0(%rbp),%rax
   1bc56:	48 05 20 01 00 00    	add    $0x120,%rax
   1bc5c:	48 89 85 70 ee ff ff 	mov    %rax,-0x1190(%rbp)
   1bc63:	48 8d 85 60 f0 ff ff 	lea    -0xfa0(%rbp),%rax
   1bc6a:	48 05 74 01 00 00    	add    $0x174,%rax
   1bc70:	48 89 85 78 ee ff ff 	mov    %rax,-0x1188(%rbp)
   1bc77:	c7 85 6c ed ff ff 03 	movl   $0x3,-0x1294(%rbp)
   1bc7e:	00 00 00 
   1bc81:	48 8d 85 38 ed ff ff 	lea    -0x12c8(%rbp),%rax
   1bc88:	48 89 85 80 ee ff ff 	mov    %rax,-0x1180(%rbp)
   1bc8f:	48 8d 85 38 ed ff ff 	lea    -0x12c8(%rbp),%rax
   1bc96:	48 89 85 e0 f7 ff ff 	mov    %rax,-0x820(%rbp)
   1bc9d:	48 8d 85 38 ed ff ff 	lea    -0x12c8(%rbp),%rax
   1bca4:	48 89 85 e8 f7 ff ff 	mov    %rax,-0x818(%rbp)
   1bcab:	48 8d 85 38 ed ff ff 	lea    -0x12c8(%rbp),%rax
   1bcb2:	48 89 85 f0 f7 ff ff 	mov    %rax,-0x810(%rbp)
   1bcb9:	48 8d 85 38 ed ff ff 	lea    -0x12c8(%rbp),%rax
   1bcc0:	48 89 85 f8 f7 ff ff 	mov    %rax,-0x808(%rbp)
   1bcc7:	80 ad 1d ed ff ff 01 	subb   $0x1,-0x12e3(%rbp)
   1bcce:	8b 85 40 ed ff ff    	mov    -0x12c0(%rbp),%eax
   1bcd4:	83 c0 01             	add    $0x1,%eax
   1bcd7:	89 85 40 ed ff ff    	mov    %eax,-0x12c0(%rbp)
   1bcdd:	8b 85 40 ed ff ff    	mov    -0x12c0(%rbp),%eax
   1bce3:	83 f8 04             	cmp    $0x4,%eax
   1bce6:	0f 8e e2 fe ff ff    	jle    1bbce <func_35+0x1b5d>
   1bcec:	c7 85 f0 ed ff ff 00 	movl   $0x0,-0x1210(%rbp)
   1bcf3:	00 00 00 
   1bcf6:	e9 0f 02 00 00       	jmpq   1bf0a <func_35+0x1e99>
   1bcfb:	48 8d 85 3c ed ff ff 	lea    -0x12c4(%rbp),%rax
   1bd02:	48 89 85 a0 ee ff ff 	mov    %rax,-0x1160(%rbp)
   1bd09:	48 8d 85 20 f4 ff ff 	lea    -0xbe0(%rbp),%rax
   1bd10:	48 05 ac 00 00 00    	add    $0xac,%rax
   1bd16:	48 89 85 a8 ee ff ff 	mov    %rax,-0x1158(%rbp)
   1bd1d:	48 8d 05 0c 73 00 00 	lea    0x730c(%rip),%rax        # 23030 <g_46>
   1bd24:	48 89 85 e0 f7 ff ff 	mov    %rax,-0x820(%rbp)
   1bd2b:	48 8d 05 f2 72 00 00 	lea    0x72f2(%rip),%rax        # 23024 <g_18>
   1bd32:	48 89 85 e8 f7 ff ff 	mov    %rax,-0x818(%rbp)
   1bd39:	48 8d 05 e4 72 00 00 	lea    0x72e4(%rip),%rax        # 23024 <g_18>
   1bd40:	48 89 85 f0 f7 ff ff 	mov    %rax,-0x810(%rbp)
   1bd47:	48 8d 05 e2 72 00 00 	lea    0x72e2(%rip),%rax        # 23030 <g_46>
   1bd4e:	48 89 85 f8 f7 ff ff 	mov    %rax,-0x808(%rbp)
   1bd55:	48 8d 05 c8 72 00 00 	lea    0x72c8(%rip),%rax        # 23024 <g_18>
   1bd5c:	48 89 85 00 f8 ff ff 	mov    %rax,-0x800(%rbp)
   1bd63:	48 8d 05 c6 72 00 00 	lea    0x72c6(%rip),%rax        # 23030 <g_46>
   1bd6a:	48 89 85 08 f8 ff ff 	mov    %rax,-0x7f8(%rbp)
   1bd71:	48 8d 05 b8 72 00 00 	lea    0x72b8(%rip),%rax        # 23030 <g_46>
   1bd78:	48 89 85 10 f8 ff ff 	mov    %rax,-0x7f0(%rbp)
   1bd7f:	48 8d 85 34 ed ff ff 	lea    -0x12cc(%rbp),%rax
   1bd86:	48 89 85 18 f8 ff ff 	mov    %rax,-0x7e8(%rbp)
   1bd8d:	48 8d 05 9c 72 00 00 	lea    0x729c(%rip),%rax        # 23030 <g_46>
   1bd94:	48 89 85 20 f8 ff ff 	mov    %rax,-0x7e0(%rbp)
   1bd9b:	48 8d 05 8e 72 00 00 	lea    0x728e(%rip),%rax        # 23030 <g_46>
   1bda2:	48 89 85 28 f8 ff ff 	mov    %rax,-0x7d8(%rbp)
   1bda9:	48 8d 05 74 72 00 00 	lea    0x7274(%rip),%rax        # 23024 <g_18>
   1bdb0:	48 89 85 30 f8 ff ff 	mov    %rax,-0x7d0(%rbp)
   1bdb7:	48 8d 05 72 72 00 00 	lea    0x7272(%rip),%rax        # 23030 <g_46>
   1bdbe:	48 89 85 38 f8 ff ff 	mov    %rax,-0x7c8(%rbp)
   1bdc5:	48 8d 05 58 72 00 00 	lea    0x7258(%rip),%rax        # 23024 <g_18>
   1bdcc:	48 89 85 40 f8 ff ff 	mov    %rax,-0x7c0(%rbp)
   1bdd3:	48 8d 05 4a 72 00 00 	lea    0x724a(%rip),%rax        # 23024 <g_18>
   1bdda:	48 89 85 48 f8 ff ff 	mov    %rax,-0x7b8(%rbp)
   1bde1:	48 8d 05 48 72 00 00 	lea    0x7248(%rip),%rax        # 23030 <g_46>
   1bde8:	48 89 85 50 f8 ff ff 	mov    %rax,-0x7b0(%rbp)
   1bdef:	48 8d 05 3a 72 00 00 	lea    0x723a(%rip),%rax        # 23030 <g_46>
   1bdf6:	48 89 85 58 f8 ff ff 	mov    %rax,-0x7a8(%rbp)
   1bdfd:	48 8d 05 20 72 00 00 	lea    0x7220(%rip),%rax        # 23024 <g_18>
   1be04:	48 89 85 60 f8 ff ff 	mov    %rax,-0x7a0(%rbp)
   1be0b:	48 8d 05 12 72 00 00 	lea    0x7212(%rip),%rax        # 23024 <g_18>
   1be12:	48 89 85 68 f8 ff ff 	mov    %rax,-0x798(%rbp)
   1be19:	48 8d 05 10 72 00 00 	lea    0x7210(%rip),%rax        # 23030 <g_46>
   1be20:	48 89 85 70 f8 ff ff 	mov    %rax,-0x790(%rbp)
   1be27:	48 8d 05 f6 71 00 00 	lea    0x71f6(%rip),%rax        # 23024 <g_18>
   1be2e:	48 89 85 78 f8 ff ff 	mov    %rax,-0x788(%rbp)
   1be35:	48 8d 05 f4 71 00 00 	lea    0x71f4(%rip),%rax        # 23030 <g_46>
   1be3c:	48 89 85 80 f8 ff ff 	mov    %rax,-0x780(%rbp)
   1be43:	48 8d 05 e6 71 00 00 	lea    0x71e6(%rip),%rax        # 23030 <g_46>
   1be4a:	48 89 85 88 f8 ff ff 	mov    %rax,-0x778(%rbp)
   1be51:	48 8d 85 34 ed ff ff 	lea    -0x12cc(%rbp),%rax
   1be58:	48 89 85 90 f8 ff ff 	mov    %rax,-0x770(%rbp)
   1be5f:	48 8d 05 ca 71 00 00 	lea    0x71ca(%rip),%rax        # 23030 <g_46>
   1be66:	48 89 85 98 f8 ff ff 	mov    %rax,-0x768(%rbp)
   1be6d:	48 8d 05 bc 71 00 00 	lea    0x71bc(%rip),%rax        # 23030 <g_46>
   1be74:	48 89 85 a0 f8 ff ff 	mov    %rax,-0x760(%rbp)
   1be7b:	c6 85 1e ed ff ff 78 	movb   $0x78,-0x12e2(%rbp)
   1be82:	48 83 ad 90 ee ff ff 	subq   $0x1,-0x1170(%rbp)
   1be89:	01 
   1be8a:	48 8b 85 e0 ed ff ff 	mov    -0x1220(%rbp),%rax
   1be91:	48 c7 00 00 00 00 00 	movq   $0x0,(%rax)
   1be98:	c7 05 8e 71 00 00 00 	movl   $0x0,0x718e(%rip)        # 23030 <g_46>
   1be9f:	00 00 00 
   1bea2:	eb 49                	jmp    1beed <func_35+0x1e7c>
   1bea4:	66 c7 85 26 ed ff ff 	movw   $0x1,-0x12da(%rbp)
   1beab:	01 00 
   1bead:	48 8d 85 34 ed ff ff 	lea    -0x12cc(%rbp),%rax
   1beb4:	48 89 85 98 ee ff ff 	mov    %rax,-0x1168(%rbp)
   1bebb:	66 83 85 26 ed ff ff 	addw   $0x1,-0x12da(%rbp)
   1bec2:	01 
   1bec3:	48 8b 85 98 ee ff ff 	mov    -0x1168(%rbp),%rax
   1beca:	48 89 85 00 ed ff ff 	mov    %rax,-0x1300(%rbp)
   1bed1:	48 8b 05 28 84 00 00 	mov    0x8428(%rip),%rax        # 24300 <g_45>
   1bed8:	8b 00                	mov    (%rax),%eax
   1beda:	85 c0                	test   %eax,%eax
   1bedc:	75 1c                	jne    1befa <func_35+0x1e89>
   1bede:	8b 05 4c 71 00 00    	mov    0x714c(%rip),%eax        # 23030 <g_46>
   1bee4:	83 c0 01             	add    $0x1,%eax
   1bee7:	89 05 43 71 00 00    	mov    %eax,0x7143(%rip)        # 23030 <g_46>
   1beed:	8b 05 3d 71 00 00    	mov    0x713d(%rip),%eax        # 23030 <g_46>
   1bef3:	83 f8 04             	cmp    $0x4,%eax
   1bef6:	7e ac                	jle    1bea4 <func_35+0x1e33>
   1bef8:	eb 01                	jmp    1befb <func_35+0x1e8a>
   1befa:	90                   	nop
   1befb:	8b 85 f0 ed ff ff    	mov    -0x1210(%rbp),%eax
   1bf01:	83 c0 01             	add    $0x1,%eax
   1bf04:	89 85 f0 ed ff ff    	mov    %eax,-0x1210(%rbp)
   1bf0a:	8b 85 f0 ed ff ff    	mov    -0x1210(%rbp),%eax
   1bf10:	83 f8 04             	cmp    $0x4,%eax
   1bf13:	0f 8e e2 fd ff ff    	jle    1bcfb <func_35+0x1c8a>
   1bf19:	0f b6 05 14 71 00 00 	movzbl 0x7114(%rip),%eax        # 23034 <g_55>
   1bf20:	83 c0 01             	add    $0x1,%eax
   1bf23:	88 05 0b 71 00 00    	mov    %al,0x710b(%rip)        # 23034 <g_55>
   1bf29:	0f b6 05 04 71 00 00 	movzbl 0x7104(%rip),%eax        # 23034 <g_55>
   1bf30:	3c 01                	cmp    $0x1,%al
   1bf32:	0f 8e ca fb ff ff    	jle    1bb02 <func_35+0x1a91>
   1bf38:	48 8b 05 b9 8b 00 00 	mov    0x8bb9(%rip),%rax        # 24af8 <g_108>
   1bf3f:	8b 00                	mov    (%rax),%eax
   1bf41:	89 c2                	mov    %eax,%edx
   1bf43:	8b 85 a8 ed ff ff    	mov    -0x1258(%rbp),%eax
   1bf49:	89 d6                	mov    %edx,%esi
   1bf4b:	89 c7                	mov    %eax,%edi
   1bf4d:	e8 ab cf fe ff       	callq  8efd <safe_mod_func_uint32_t_u_u>
   1bf52:	48 8b 85 00 ed ff ff 	mov    -0x1300(%rbp),%rax
   1bf59:	48 89 05 40 8d 00 00 	mov    %rax,0x8d40(%rip)        # 24ca0 <g_193+0x180>
   1bf60:	48 8b 05 39 8d 00 00 	mov    0x8d39(%rip),%rax        # 24ca0 <g_193+0x180>
   1bf67:	48 85 c0             	test   %rax,%rax
   1bf6a:	75 13                	jne    1bf7f <func_35+0x1f0e>
   1bf6c:	48 8b 85 08 ed ff ff 	mov    -0x12f8(%rbp),%rax
   1bf73:	48 85 c0             	test   %rax,%rax
   1bf76:	74 07                	je     1bf7f <func_35+0x1f0e>
   1bf78:	b8 01 00 00 00       	mov    $0x1,%eax
   1bf7d:	eb 05                	jmp    1bf84 <func_35+0x1f13>
   1bf7f:	b8 00 00 00 00       	mov    $0x0,%eax
   1bf84:	89 c2                	mov    %eax,%edx
   1bf86:	48 8b 85 f8 ee ff ff 	mov    -0x1108(%rbp),%rax
   1bf8d:	66 89 10             	mov    %dx,(%rax)
   1bf90:	48 8b 85 f8 ee ff ff 	mov    -0x1108(%rbp),%rax
   1bf97:	0f b7 10             	movzwl (%rax),%edx
   1bf9a:	48 8b 85 d8 ee ff ff 	mov    -0x1128(%rbp),%rax
   1bfa1:	66 89 10             	mov    %dx,(%rax)
   1bfa4:	48 8b 85 d8 ee ff ff 	mov    -0x1128(%rbp),%rax
   1bfab:	0f b7 00             	movzwl (%rax),%eax
   1bfae:	66 85 c0             	test   %ax,%ax
   1bfb1:	74 07                	je     1bfba <func_35+0x1f49>
   1bfb3:	ba 01 00 00 00       	mov    $0x1,%edx
   1bfb8:	eb 05                	jmp    1bfbf <func_35+0x1f4e>
   1bfba:	ba 00 00 00 00       	mov    $0x0,%edx
   1bfbf:	48 8b 05 3a 83 00 00 	mov    0x833a(%rip),%rax        # 24300 <g_45>
   1bfc6:	89 10                	mov    %edx,(%rax)
   1bfc8:	48 8b 85 00 ed ff ff 	mov    -0x1300(%rbp),%rax
   1bfcf:	8b 10                	mov    (%rax),%edx
   1bfd1:	48 8b 85 08 ed ff ff 	mov    -0x12f8(%rbp),%rax
   1bfd8:	48 85 c0             	test   %rax,%rax
   1bfdb:	0f 9e c0             	setle  %al
   1bfde:	0f b6 c0             	movzbl %al,%eax
   1bfe1:	39 c2                	cmp    %eax,%edx
   1bfe3:	0f 95 c0             	setne  %al
   1bfe6:	0f b6 d0             	movzbl %al,%edx
   1bfe9:	8b 85 0c f7 ff ff    	mov    -0x8f4(%rbp),%eax
   1bfef:	09 d0                	or     %edx,%eax
   1bff1:	89 85 0c f7 ff ff    	mov    %eax,-0x8f4(%rbp)
   1bff7:	48 8b 05 0a 8b 00 00 	mov    0x8b0a(%rip),%rax        # 24b08 <g_134>
   1bffe:	48 8b 00             	mov    (%rax),%rax
   1c001:	48 8b 00             	mov    (%rax),%rax
   1c004:	48 89 85 00 ed ff ff 	mov    %rax,-0x1300(%rbp)
   1c00b:	48 c7 05 ca 70 00 00 	movq   $0x0,0x70ca(%rip)        # 230e0 <g_256>
   1c012:	00 00 00 00 
   1c016:	e9 4c 04 00 00       	jmpq   1c467 <func_35+0x23f6>
   1c01b:	48 8d 05 e6 82 00 00 	lea    0x82e6(%rip),%rax        # 24308 <g_87>
   1c022:	48 89 85 b8 ee ff ff 	mov    %rax,-0x1148(%rbp)
   1c029:	c7 05 81 70 00 00 00 	movl   $0x0,0x7081(%rip)        # 230b4 <g_243>
   1c030:	00 00 00 
   1c033:	eb 6c                	jmp    1c0a1 <func_35+0x2030>
   1c035:	c7 85 7c ed ff ff 00 	movl   $0x0,-0x1284(%rbp)
   1c03c:	00 00 00 
   1c03f:	eb 19                	jmp    1c05a <func_35+0x1fe9>
   1c041:	8b 85 7c ed ff ff    	mov    -0x1284(%rbp),%eax
   1c047:	48 98                	cltq   
   1c049:	66 c7 84 45 e0 f7 ff 	movw   $0x0,-0x820(%rbp,%rax,2)
   1c050:	ff 00 00 
   1c053:	83 85 7c ed ff ff 01 	addl   $0x1,-0x1284(%rbp)
   1c05a:	83 bd 7c ed ff ff 00 	cmpl   $0x0,-0x1284(%rbp)
   1c061:	7e de                	jle    1c041 <func_35+0x1fd0>
   1c063:	0f b7 85 e0 f7 ff ff 	movzwl -0x820(%rbp),%eax
   1c06a:	83 c0 01             	add    $0x1,%eax
   1c06d:	66 89 85 e0 f7 ff ff 	mov    %ax,-0x820(%rbp)
   1c074:	48 8b 15 85 8a 00 00 	mov    0x8a85(%rip),%rdx        # 24b00 <g_135>
   1c07b:	48 8b 05 7e 8a 00 00 	mov    0x8a7e(%rip),%rax        # 24b00 <g_135>
   1c082:	48 8b 12             	mov    (%rdx),%rdx
   1c085:	48 89 10             	mov    %rdx,(%rax)
   1c088:	48 8b 00             	mov    (%rax),%rax
   1c08b:	48 89 85 00 ed ff ff 	mov    %rax,-0x1300(%rbp)
   1c092:	8b 05 1c 70 00 00    	mov    0x701c(%rip),%eax        # 230b4 <g_243>
   1c098:	83 c0 01             	add    $0x1,%eax
   1c09b:	89 05 13 70 00 00    	mov    %eax,0x7013(%rip)        # 230b4 <g_243>
   1c0a1:	8b 05 0d 70 00 00    	mov    0x700d(%rip),%eax        # 230b4 <g_243>
   1c0a7:	83 f8 07             	cmp    $0x7,%eax
   1c0aa:	76 89                	jbe    1c035 <func_35+0x1fc4>
   1c0ac:	48 8b 05 f5 99 00 00 	mov    0x99f5(%rip),%rax        # 25aa8 <g_503>
   1c0b3:	48 8d 85 50 ef ff ff 	lea    -0x10b0(%rbp),%rax
   1c0ba:	48 89 85 b8 ee ff ff 	mov    %rax,-0x1148(%rbp)
   1c0c1:	48 8b 85 b8 ee ff ff 	mov    -0x1148(%rbp),%rax
   1c0c8:	48 3b 85 c0 ee ff ff 	cmp    -0x1140(%rbp),%rax
   1c0cf:	0f 95 c0             	setne  %al
   1c0d2:	0f b6 d0             	movzbl %al,%edx
   1c0d5:	8b 85 3c ed ff ff    	mov    -0x12c4(%rbp),%eax
   1c0db:	09 d0                	or     %edx,%eax
   1c0dd:	89 85 3c ed ff ff    	mov    %eax,-0x12c4(%rbp)
   1c0e3:	c7 85 40 ed ff ff 00 	movl   $0x0,-0x12c0(%rbp)
   1c0ea:	00 00 00 
   1c0ed:	e9 54 03 00 00       	jmpq   1c446 <func_35+0x23d5>
   1c0f2:	66 c7 85 28 ed ff ff 	movw   $0x5ae8,-0x12d8(%rbp)
   1c0f9:	e8 5a 
   1c0fb:	c7 85 e0 f7 ff ff 07 	movl   $0x7,-0x820(%rbp)
   1c102:	00 00 00 
   1c105:	c7 85 e4 f7 ff ff bf 	movl   $0x6c1512bf,-0x81c(%rbp)
   1c10c:	12 15 6c 
   1c10f:	c7 85 e8 f7 ff ff 62 	movl   $0x4a348c62,-0x818(%rbp)
   1c116:	8c 34 4a 
   1c119:	c7 85 ec f7 ff ff bf 	movl   $0x6c1512bf,-0x814(%rbp)
   1c120:	12 15 6c 
   1c123:	c7 85 f0 f7 ff ff 07 	movl   $0x7,-0x810(%rbp)
   1c12a:	00 00 00 
   1c12d:	c7 85 f4 f7 ff ff 62 	movl   $0x4a348c62,-0x80c(%rbp)
   1c134:	8c 34 4a 
   1c137:	c7 85 f8 f7 ff ff fa 	movl   $0x7b4cafa,-0x808(%rbp)
   1c13e:	ca b4 07 
   1c141:	c7 85 fc f7 ff ff fa 	movl   $0x7b4cafa,-0x804(%rbp)
   1c148:	ca b4 07 
   1c14b:	c7 85 00 f8 ff ff fa 	movl   $0x7b4cafa,-0x800(%rbp)
   1c152:	ca b4 07 
   1c155:	c7 85 04 f8 ff ff 62 	movl   $0x4a348c62,-0x7fc(%rbp)
   1c15c:	8c 34 4a 
   1c15f:	c7 85 08 f8 ff ff 07 	movl   $0x7,-0x7f8(%rbp)
   1c166:	00 00 00 
   1c169:	c7 85 0c f8 ff ff bf 	movl   $0x6c1512bf,-0x7f4(%rbp)
   1c170:	12 15 6c 
   1c173:	c7 85 98 ed ff ff 8c 	movl   $0xd6294b8c,-0x1268(%rbp)
   1c17a:	4b 29 d6 
   1c17d:	8b 05 c5 6e 00 00    	mov    0x6ec5(%rip),%eax        # 23048 <g_88>
   1c183:	66 89 05 f4 6e 00 00 	mov    %ax,0x6ef4(%rip)        # 2307e <g_158+0x1e>
   1c18a:	0f b7 05 ed 6e 00 00 	movzwl 0x6eed(%rip),%eax        # 2307e <g_158+0x1e>
   1c191:	0f bf d8             	movswl %ax,%ebx
   1c194:	48 8b 85 00 ed ff ff 	mov    -0x1300(%rbp),%rax
   1c19b:	8b 00                	mov    (%rax),%eax
   1c19d:	41 89 c7             	mov    %eax,%r15d
   1c1a0:	48 8b 85 08 ed ff ff 	mov    -0x12f8(%rbp),%rax
   1c1a7:	89 85 fc ec ff ff    	mov    %eax,-0x1304(%rbp)
   1c1ad:	0f b7 05 0c 6f 00 00 	movzwl 0x6f0c(%rip),%eax        # 230c0 <g_253>
   1c1b4:	44 0f bf e0          	movswl %ax,%r12d
   1c1b8:	48 8b 85 08 ed ff ff 	mov    -0x12f8(%rbp),%rax
   1c1bf:	89 c2                	mov    %eax,%edx
   1c1c1:	48 8b 05 48 81 00 00 	mov    0x8148(%rip),%rax        # 24310 <g_91>
   1c1c8:	8b 00                	mov    (%rax),%eax
   1c1ca:	89 d6                	mov    %edx,%esi
   1c1cc:	89 c7                	mov    %eax,%edi
   1c1ce:	e8 32 c4 fe ff       	callq  8605 <safe_sub_func_int32_t_s_s>
   1c1d3:	85 c0                	test   %eax,%eax
   1c1d5:	0f 94 c0             	sete   %al
   1c1d8:	0f b6 d0             	movzbl %al,%edx
   1c1db:	48 8b 8d 08 ed ff ff 	mov    -0x12f8(%rbp),%rcx
   1c1e2:	48 8b 05 c7 90 00 00 	mov    0x90c7(%rip),%rax        # 252b0 <g_432>
   1c1e9:	88 08                	mov    %cl,(%rax)
   1c1eb:	0f b6 00             	movzbl (%rax),%eax
   1c1ee:	0f be c0             	movsbl %al,%eax
   1c1f1:	31 d0                	xor    %edx,%eax
   1c1f3:	4c 63 e8             	movslq %eax,%r13
   1c1f6:	0f b6 05 da 6e 00 00 	movzbl 0x6eda(%rip),%eax        # 230d7 <g_254+0x7>
   1c1fd:	44 0f b6 f0          	movzbl %al,%r14d
   1c201:	48 8b 85 00 ed ff ff 	mov    -0x1300(%rbp),%rax
   1c208:	8b 00                	mov    (%rax),%eax
   1c20a:	89 c6                	mov    %eax,%esi
   1c20c:	bf 33 c7 9d 4a       	mov    $0x4a9dc733,%edi
   1c211:	e8 0f cd fe ff       	callq  8f25 <safe_div_func_uint32_t_u_u>
   1c216:	89 c2                	mov    %eax,%edx
   1c218:	48 8b 85 08 ed ff ff 	mov    -0x12f8(%rbp),%rax
   1c21f:	48 89 d6             	mov    %rdx,%rsi
   1c222:	48 89 c7             	mov    %rax,%rdi
   1c225:	e8 7e c6 fe ff       	callq  88a8 <safe_sub_func_int64_t_s_s>
   1c22a:	4c 21 f0             	and    %r14,%rax
   1c22d:	49 39 c5             	cmp    %rax,%r13
   1c230:	0f 9c c0             	setl   %al
   1c233:	0f b6 c0             	movzbl %al,%eax
   1c236:	44 09 e0             	or     %r12d,%eax
   1c239:	48 98                	cltq   
   1c23b:	48 be c0 24 a7 18 73 	movabs $0xdf7bb97318a724c0,%rsi
   1c242:	b9 7b df 
   1c245:	48 89 c7             	mov    %rax,%rdi
   1c248:	e8 fe cd fe ff       	callq  904b <safe_sub_func_uint64_t_u_u>
   1c24d:	0f bf 85 28 ed ff ff 	movswl -0x12d8(%rbp),%eax
   1c254:	8b b5 fc ec ff ff    	mov    -0x1304(%rbp),%esi
   1c25a:	89 c7                	mov    %eax,%edi
   1c25c:	e8 9e c4 fe ff       	callq  86ff <safe_div_func_int32_t_s_s>
   1c261:	44 89 fe             	mov    %r15d,%esi
   1c264:	89 c7                	mov    %eax,%edi
   1c266:	e8 92 cc fe ff       	callq  8efd <safe_mod_func_uint32_t_u_u>
   1c26b:	39 c3                	cmp    %eax,%ebx
   1c26d:	0f 94 c0             	sete   %al
   1c270:	0f b6 d0             	movzbl %al,%edx
   1c273:	8b 85 40 f5 ff ff    	mov    -0xac0(%rbp),%eax
   1c279:	21 d0                	and    %edx,%eax
   1c27b:	89 85 40 f5 ff ff    	mov    %eax,-0xac0(%rbp)
   1c281:	8b 85 40 f5 ff ff    	mov    -0xac0(%rbp),%eax
   1c287:	98                   	cwtl   
   1c288:	be fe 00 00 00       	mov    $0xfe,%esi
   1c28d:	89 c7                	mov    %eax,%edi
   1c28f:	e8 3f c1 fe ff       	callq  83d3 <safe_sub_func_int16_t_s_s>
   1c294:	89 c2                	mov    %eax,%edx
   1c296:	48 8b 85 00 ed ff ff 	mov    -0x1300(%rbp),%rax
   1c29d:	0f bf d2             	movswl %dx,%edx
   1c2a0:	89 10                	mov    %edx,(%rax)
   1c2a2:	8b 00                	mov    (%rax),%eax
   1c2a4:	85 c0                	test   %eax,%eax
   1c2a6:	74 12                	je     1c2ba <func_35+0x2249>
   1c2a8:	48 8b 05 49 88 00 00 	mov    0x8849(%rip),%rax        # 24af8 <g_108>
   1c2af:	c7 00 29 31 42 8b    	movl   $0x8b423129,(%rax)
   1c2b5:	e9 83 01 00 00       	jmpq   1c43d <func_35+0x23cc>
   1c2ba:	48 8d 05 c7 6d 00 00 	lea    0x6dc7(%rip),%rax        # 23088 <g_162>
   1c2c1:	48 89 85 b0 ee ff ff 	mov    %rax,-0x1150(%rbp)
   1c2c8:	0f b6 05 8d 6d 00 00 	movzbl 0x6d8d(%rip),%eax        # 2305c <g_131>
   1c2cf:	0f b6 d8             	movzbl %al,%ebx
   1c2d2:	8b 85 f0 f7 ff ff    	mov    -0x810(%rbp),%eax
   1c2d8:	0f be c0             	movsbl %al,%eax
   1c2db:	be 04 00 00 00       	mov    $0x4,%esi
   1c2e0:	89 c7                	mov    %eax,%edi
   1c2e2:	e8 85 c0 fe ff       	callq  836c <safe_rshift_func_int8_t_s_u>
   1c2e7:	0f b7 05 5a 6d 00 00 	movzwl 0x6d5a(%rip),%eax        # 23048 <g_88>
   1c2ee:	0f b7 d0             	movzwl %ax,%edx
   1c2f1:	48 8b 85 08 ed ff ff 	mov    -0x12f8(%rbp),%rax
   1c2f8:	48 39 c2             	cmp    %rax,%rdx
   1c2fb:	0f 9f c0             	setg   %al
   1c2fe:	0f b6 f0             	movzbl %al,%esi
   1c301:	0f b7 05 28 a3 00 00 	movzwl 0xa328(%rip),%eax        # 26630 <g_251>
   1c308:	98                   	cwtl   
   1c309:	48 63 d0             	movslq %eax,%rdx
   1c30c:	48 8d 0c 95 00 00 00 	lea    0x0(,%rdx,4),%rcx
   1c313:	00 
   1c314:	48 8d 15 85 6d 00 00 	lea    0x6d85(%rip),%rdx        # 230a0 <g_194>
   1c31b:	8b 14 11             	mov    (%rcx,%rdx,1),%edx
   1c31e:	8d 4a 01             	lea    0x1(%rdx),%ecx
   1c321:	48 98                	cltq   
   1c323:	48 8d 3c 85 00 00 00 	lea    0x0(,%rax,4),%rdi
   1c32a:	00 
   1c32b:	48 8d 05 6e 6d 00 00 	lea    0x6d6e(%rip),%rax        # 230a0 <g_194>
   1c332:	89 0c 07             	mov    %ecx,(%rdi,%rax,1)
   1c335:	48 8b 85 d8 ed ff ff 	mov    -0x1228(%rbp),%rax
   1c33c:	89 10                	mov    %edx,(%rax)
   1c33e:	8b 10                	mov    (%rax),%edx
   1c340:	48 8b 85 48 ef ff ff 	mov    -0x10b8(%rbp),%rax
   1c347:	48 39 85 b0 ee ff ff 	cmp    %rax,-0x1150(%rbp)
   1c34e:	0f 95 c0             	setne  %al
   1c351:	0f b6 c0             	movzbl %al,%eax
   1c354:	39 c2                	cmp    %eax,%edx
   1c356:	0f 96 c0             	setbe  %al
   1c359:	0f b6 c8             	movzbl %al,%ecx
   1c35c:	48 8b 85 08 ef ff ff 	mov    -0x10f8(%rbp),%rax
   1c363:	48 8b 00             	mov    (%rax),%rax
   1c366:	48 8b 00             	mov    (%rax),%rax
   1c369:	8b 00                	mov    (%rax),%eax
   1c36b:	0f be c0             	movsbl %al,%eax
   1c36e:	48 89 f2             	mov    %rsi,%rdx
   1c371:	89 ce                	mov    %ecx,%esi
   1c373:	89 c7                	mov    %eax,%edi
   1c375:	e8 94 01 00 00       	callq  1c50e <func_62>
   1c37a:	48 8d 95 08 ed ff ff 	lea    -0x12f8(%rbp),%rdx
   1c381:	48 39 d0             	cmp    %rdx,%rax
   1c384:	0f 95 c0             	setne  %al
   1c387:	0f b6 d0             	movzbl %al,%edx
   1c38a:	48 8b 85 d0 ee ff ff 	mov    -0x1130(%rbp),%rax
   1c391:	8b 00                	mov    (%rax),%eax
   1c393:	39 c2                	cmp    %eax,%edx
   1c395:	0f b6 05 98 6c 00 00 	movzbl 0x6c98(%rip),%eax        # 23034 <g_55>
   1c39c:	83 c8 01             	or     $0x1,%eax
   1c39f:	0f be c0             	movsbl %al,%eax
   1c3a2:	be 25 ad 67 db       	mov    $0xdb67ad25,%esi
   1c3a7:	89 c7                	mov    %eax,%edi
   1c3a9:	e8 4f cb fe ff       	callq  8efd <safe_mod_func_uint32_t_u_u>
   1c3ae:	0f b6 15 8b a2 00 00 	movzbl 0xa28b(%rip),%edx        # 26640 <g_497>
   1c3b5:	0f b6 d2             	movzbl %dl,%edx
   1c3b8:	39 d0                	cmp    %edx,%eax
   1c3ba:	0f 95 c0             	setne  %al
   1c3bd:	0f b6 d0             	movzbl %al,%edx
   1c3c0:	48 8b 85 08 ed ff ff 	mov    -0x12f8(%rbp),%rax
   1c3c7:	48 21 c2             	and    %rax,%rdx
   1c3ca:	b8 66 5b 31 bc       	mov    $0xbc315b66,%eax
   1c3cf:	48 39 c2             	cmp    %rax,%rdx
   1c3d2:	0f 9f c0             	setg   %al
   1c3d5:	0f b6 c0             	movzbl %al,%eax
   1c3d8:	89 de                	mov    %ebx,%esi
   1c3da:	89 c7                	mov    %eax,%edi
   1c3dc:	e8 14 c0 fe ff       	callq  83f5 <safe_mul_func_int16_t_s_s>
   1c3e1:	0f b7 d8             	movzwl %ax,%ebx
   1c3e4:	8b 85 f0 f7 ff ff    	mov    -0x810(%rbp),%eax
   1c3ea:	48 98                	cltq   
   1c3ec:	48 89 c7             	mov    %rax,%rdi
   1c3ef:	e8 25 cc fe ff       	callq  9019 <safe_unary_minus_func_uint64_t_u>
   1c3f4:	0f b7 c0             	movzwl %ax,%eax
   1c3f7:	89 de                	mov    %ebx,%esi
   1c3f9:	89 c7                	mov    %eax,%edi
   1c3fb:	e8 3d c9 fe ff       	callq  8d3d <safe_mul_func_uint16_t_u_u>
   1c400:	48 8b 85 08 ef ff ff 	mov    -0x10f8(%rbp),%rax
   1c407:	48 8b 00             	mov    (%rax),%rax
   1c40a:	48 8b 00             	mov    (%rax),%rax
   1c40d:	c7 00 00 00 00 00    	movl   $0x0,(%rax)
   1c413:	48 8b 85 d0 ee ff ff 	mov    -0x1130(%rbp),%rax
   1c41a:	8b 95 98 ed ff ff    	mov    -0x1268(%rbp),%edx
   1c420:	89 10                	mov    %edx,(%rax)
   1c422:	66 83 bd 28 ed ff ff 	cmpw   $0x0,-0x12d8(%rbp)
   1c429:	00 
   1c42a:	74 11                	je     1c43d <func_35+0x23cc>
   1c42c:	8b 85 40 ed ff ff    	mov    -0x12c0(%rbp),%eax
   1c432:	83 c0 01             	add    $0x1,%eax
   1c435:	89 85 40 ed ff ff    	mov    %eax,-0x12c0(%rbp)
   1c43b:	eb 09                	jmp    1c446 <func_35+0x23d5>
   1c43d:	48 8d 05 1c 6d 00 00 	lea    0x6d1c(%rip),%rax        # 23160 <g_556>
   1c444:	eb 5b                	jmp    1c4a1 <func_35+0x2430>
   1c446:	8b 85 40 ed ff ff    	mov    -0x12c0(%rbp),%eax
   1c44c:	83 f8 04             	cmp    $0x4,%eax
   1c44f:	0f 8e 9d fc ff ff    	jle    1c0f2 <func_35+0x2081>
   1c455:	48 8b 05 84 6c 00 00 	mov    0x6c84(%rip),%rax        # 230e0 <g_256>
   1c45c:	48 83 c0 01          	add    $0x1,%rax
   1c460:	48 89 05 79 6c 00 00 	mov    %rax,0x6c79(%rip)        # 230e0 <g_256>
   1c467:	48 8b 05 72 6c 00 00 	mov    0x6c72(%rip),%rax        # 230e0 <g_256>
   1c46e:	48 83 f8 01          	cmp    $0x1,%rax
   1c472:	0f 8e a3 fb ff ff    	jle    1c01b <func_35+0x1faa>
   1c478:	0f b7 05 b1 a1 00 00 	movzwl 0xa1b1(%rip),%eax        # 26630 <g_251>
   1c47f:	83 c0 01             	add    $0x1,%eax
   1c482:	66 89 05 a7 a1 00 00 	mov    %ax,0xa1a7(%rip)        # 26630 <g_251>
   1c489:	0f b7 05 a0 a1 00 00 	movzwl 0xa1a0(%rip),%eax        # 26630 <g_251>
   1c490:	66 83 f8 04          	cmp    $0x4,%ax
   1c494:	0f 8e 64 f5 ff ff    	jle    1b9fe <func_35+0x198d>
   1c49a:	48 8d 05 93 6b 00 00 	lea    0x6b93(%rip),%rax        # 23034 <g_55>
   1c4a1:	48 8b 5d c8          	mov    -0x38(%rbp),%rbx
   1c4a5:	64 48 33 1c 25 28 00 	xor    %fs:0x28,%rbx
   1c4ac:	00 00 
   1c4ae:	74 05                	je     1c4b5 <func_35+0x2444>
   1c4b0:	e8 bb bb fe ff       	callq  8070 <__stack_chk_fail@plt>
   1c4b5:	48 81 c4 e8 12 00 00 	add    $0x12e8,%rsp
   1c4bc:	5b                   	pop    %rbx
   1c4bd:	41 5c                	pop    %r12
   1c4bf:	41 5d                	pop    %r13
   1c4c1:	41 5e                	pop    %r14
   1c4c3:	41 5f                	pop    %r15
   1c4c5:	5d                   	pop    %rbp
   1c4c6:	c3                   	retq   

000000000001c4c7 <func_48>:
   1c4c7:	f3 0f 1e fa          	endbr64 
   1c4cb:	55                   	push   %rbp
   1c4cc:	48 89 e5             	mov    %rsp,%rbp
   1c4cf:	48 89 7d f8          	mov    %rdi,-0x8(%rbp)
   1c4d3:	89 f0                	mov    %esi,%eax
   1c4d5:	48 89 55 e8          	mov    %rdx,-0x18(%rbp)
   1c4d9:	89 4d f0             	mov    %ecx,-0x10(%rbp)
   1c4dc:	88 45 f4             	mov    %al,-0xc(%rbp)
   1c4df:	48 8b 05 2a 7e 00 00 	mov    0x7e2a(%rip),%rax        # 24310 <g_91>
   1c4e6:	8b 00                	mov    (%rax),%eax
   1c4e8:	5d                   	pop    %rbp
   1c4e9:	c3                   	retq   

000000000001c4ea <func_56>:
   1c4ea:	f3 0f 1e fa          	endbr64 
   1c4ee:	55                   	push   %rbp
   1c4ef:	48 89 e5             	mov    %rsp,%rbp
   1c4f2:	89 7d fc             	mov    %edi,-0x4(%rbp)
   1c4f5:	48 89 75 f0          	mov    %rsi,-0x10(%rbp)
   1c4f9:	48 89 55 e8          	mov    %rdx,-0x18(%rbp)
   1c4fd:	48 89 4d e0          	mov    %rcx,-0x20(%rbp)
   1c501:	44 89 45 f8          	mov    %r8d,-0x8(%rbp)
   1c505:	48 8b 05 2c 6b 00 00 	mov    0x6b2c(%rip),%rax        # 23038 <g_84>
   1c50c:	5d                   	pop    %rbp
   1c50d:	c3                   	retq   

000000000001c50e <func_62>:
   1c50e:	f3 0f 1e fa          	endbr64 
   1c512:	55                   	push   %rbp
   1c513:	48 89 e5             	mov    %rsp,%rbp
   1c516:	89 f8                	mov    %edi,%eax
   1c518:	89 75 d8             	mov    %esi,-0x28(%rbp)
   1c51b:	48 89 55 d0          	mov    %rdx,-0x30(%rbp)
   1c51f:	88 45 dc             	mov    %al,-0x24(%rbp)
   1c522:	48 c7 45 e8 00 00 00 	movq   $0x0,-0x18(%rbp)
   1c529:	00 
   1c52a:	48 8d 05 ff 6a 00 00 	lea    0x6aff(%rip),%rax        # 23030 <g_46>
   1c531:	48 89 45 f0          	mov    %rax,-0x10(%rbp)
   1c535:	48 c7 45 f8 00 00 00 	movq   $0x0,-0x8(%rbp)
   1c53c:	00 
   1c53d:	48 c7 05 c0 7d 00 00 	movq   $0x0,0x7dc0(%rip)        # 24308 <g_87>
   1c544:	00 00 00 00 
   1c548:	c7 45 d8 fa ff ff ff 	movl   $0xfffffffa,-0x28(%rbp)
   1c54f:	83 7d d8 12          	cmpl   $0x12,-0x28(%rbp)
   1c553:	76 09                	jbe    1c55e <func_62+0x50>
   1c555:	48 8d 05 cc 6a 00 00 	lea    0x6acc(%rip),%rax        # 23028 <g_31>
   1c55c:	eb 07                	jmp    1c565 <func_62+0x57>
   1c55e:	48 8d 05 c3 6a 00 00 	lea    0x6ac3(%rip),%rax        # 23028 <g_31>
   1c565:	5d                   	pop    %rbp
   1c566:	c3                   	retq   

000000000001c567 <main>:
   1c567:	f3 0f 1e fa          	endbr64 
   1c56b:	55                   	push   %rbp
   1c56c:	48 89 e5             	mov    %rsp,%rbp
   1c56f:	48 83 ec 20          	sub    $0x20,%rsp
   1c573:	89 7d ec             	mov    %edi,-0x14(%rbp)
   1c576:	48 89 75 e0          	mov    %rsi,-0x20(%rbp)
   1c57a:	c7 45 fc 00 00 00 00 	movl   $0x0,-0x4(%rbp)
   1c581:	83 7d ec 02          	cmpl   $0x2,-0x14(%rbp)
   1c585:	75 25                	jne    1c5ac <main+0x45>
   1c587:	48 8b 45 e0          	mov    -0x20(%rbp),%rax
   1c58b:	48 83 c0 08          	add    $0x8,%rax
   1c58f:	48 8b 00             	mov    (%rax),%rax
   1c592:	48 8d 35 47 32 00 00 	lea    0x3247(%rip),%rsi        # 1f7e0 <g_2423+0x1730>
   1c599:	48 89 c7             	mov    %rax,%rdi
   1c59c:	e8 ef ba fe ff       	callq  8090 <strcmp@plt>
   1c5a1:	85 c0                	test   %eax,%eax
   1c5a3:	75 07                	jne    1c5ac <main+0x45>
   1c5a5:	c7 45 fc 01 00 00 00 	movl   $0x1,-0x4(%rbp)
   1c5ac:	e8 d8 bb fe ff       	callq  8189 <platform_main_begin>
   1c5b1:	e8 e2 cf fe ff       	callq  9598 <crc32_gentab>
   1c5b6:	e8 fa d1 fe ff       	callq  97b5 <func_1>
   1c5bb:	8b 05 63 6a 00 00    	mov    0x6a63(%rip),%eax        # 23024 <g_18>
   1c5c1:	48 98                	cltq   
   1c5c3:	8b 55 fc             	mov    -0x4(%rbp),%edx
   1c5c6:	48 8d 35 15 32 00 00 	lea    0x3215(%rip),%rsi        # 1f7e2 <g_2423+0x1732>
   1c5cd:	48 89 c7             	mov    %rax,%rdi
   1c5d0:	e8 1e d1 fe ff       	callq  96f3 <transparent_crc>
   1c5d5:	48 8b 05 4c 6a 00 00 	mov    0x6a4c(%rip),%rax        # 23028 <g_31>
   1c5dc:	48 89 c1             	mov    %rax,%rcx
   1c5df:	8b 45 fc             	mov    -0x4(%rbp),%eax
   1c5e2:	89 c2                	mov    %eax,%edx
   1c5e4:	48 8d 35 fc 31 00 00 	lea    0x31fc(%rip),%rsi        # 1f7e7 <g_2423+0x1737>
   1c5eb:	48 89 cf             	mov    %rcx,%rdi
   1c5ee:	e8 00 d1 fe ff       	callq  96f3 <transparent_crc>
   1c5f3:	8b 05 37 6a 00 00    	mov    0x6a37(%rip),%eax        # 23030 <g_46>
   1c5f9:	48 98                	cltq   
   1c5fb:	8b 55 fc             	mov    -0x4(%rbp),%edx
   1c5fe:	48 8d 35 e7 31 00 00 	lea    0x31e7(%rip),%rsi        # 1f7ec <g_2423+0x173c>
   1c605:	48 89 c7             	mov    %rax,%rdi
   1c608:	e8 e6 d0 fe ff       	callq  96f3 <transparent_crc>
   1c60d:	0f b6 05 20 6a 00 00 	movzbl 0x6a20(%rip),%eax        # 23034 <g_55>
   1c614:	48 0f be c0          	movsbq %al,%rax
   1c618:	8b 55 fc             	mov    -0x4(%rbp),%edx
   1c61b:	48 8d 35 cf 31 00 00 	lea    0x31cf(%rip),%rsi        # 1f7f1 <g_2423+0x1741>
   1c622:	48 89 c7             	mov    %rax,%rdi
   1c625:	e8 c9 d0 fe ff       	callq  96f3 <transparent_crc>
   1c62a:	48 8b 05 07 6a 00 00 	mov    0x6a07(%rip),%rax        # 23038 <g_84>
   1c631:	8b 55 fc             	mov    -0x4(%rbp),%edx
   1c634:	48 8d 35 bb 31 00 00 	lea    0x31bb(%rip),%rsi        # 1f7f6 <g_2423+0x1746>
   1c63b:	48 89 c7             	mov    %rax,%rdi
   1c63e:	e8 b0 d0 fe ff       	callq  96f3 <transparent_crc>
   1c643:	8b 05 f7 69 00 00    	mov    0x69f7(%rip),%eax        # 23040 <g_85>
   1c649:	89 c1                	mov    %eax,%ecx
   1c64b:	8b 45 fc             	mov    -0x4(%rbp),%eax
   1c64e:	89 c2                	mov    %eax,%edx
   1c650:	48 8d 35 a4 31 00 00 	lea    0x31a4(%rip),%rsi        # 1f7fb <g_2423+0x174b>
   1c657:	48 89 cf             	mov    %rcx,%rdi
   1c65a:	e8 94 d0 fe ff       	callq  96f3 <transparent_crc>
   1c65f:	8b 05 e3 69 00 00    	mov    0x69e3(%rip),%eax        # 23048 <g_88>
   1c665:	48 98                	cltq   
   1c667:	8b 55 fc             	mov    -0x4(%rbp),%edx
   1c66a:	48 8d 35 8f 31 00 00 	lea    0x318f(%rip),%rsi        # 1f800 <g_2423+0x1750>
   1c671:	48 89 c7             	mov    %rax,%rdi
   1c674:	e8 7a d0 fe ff       	callq  96f3 <transparent_crc>
   1c679:	0f b7 05 c8 69 00 00 	movzwl 0x69c8(%rip),%eax        # 23048 <g_88>
   1c680:	0f b7 c0             	movzwl %ax,%eax
   1c683:	8b 55 fc             	mov    -0x4(%rbp),%edx
   1c686:	48 8d 35 7b 31 00 00 	lea    0x317b(%rip),%rsi        # 1f808 <g_2423+0x1758>
   1c68d:	48 89 c7             	mov    %rax,%rdi
   1c690:	e8 5e d0 fe ff       	callq  96f3 <transparent_crc>
   1c695:	8b 05 ad 69 00 00    	mov    0x69ad(%rip),%eax        # 23048 <g_88>
   1c69b:	89 c1                	mov    %eax,%ecx
   1c69d:	8b 45 fc             	mov    -0x4(%rbp),%eax
   1c6a0:	89 c2                	mov    %eax,%edx
   1c6a2:	48 8d 35 67 31 00 00 	lea    0x3167(%rip),%rsi        # 1f810 <g_2423+0x1760>
   1c6a9:	48 89 cf             	mov    %rcx,%rdi
   1c6ac:	e8 42 d0 fe ff       	callq  96f3 <transparent_crc>
   1c6b1:	8b 05 99 69 00 00    	mov    0x6999(%rip),%eax        # 23050 <g_109>
   1c6b7:	48 98                	cltq   
   1c6b9:	8b 55 fc             	mov    -0x4(%rbp),%edx
   1c6bc:	48 8d 35 55 31 00 00 	lea    0x3155(%rip),%rsi        # 1f818 <g_2423+0x1768>
   1c6c3:	48 89 c7             	mov    %rax,%rdi
   1c6c6:	e8 28 d0 fe ff       	callq  96f3 <transparent_crc>
   1c6cb:	8b 05 83 69 00 00    	mov    0x6983(%rip),%eax        # 23054 <g_123>
   1c6d1:	48 98                	cltq   
   1c6d3:	8b 55 fc             	mov    -0x4(%rbp),%edx
   1c6d6:	48 8d 35 41 31 00 00 	lea    0x3141(%rip),%rsi        # 1f81e <g_2423+0x176e>
   1c6dd:	48 89 c7             	mov    %rax,%rdi
   1c6e0:	e8 0e d0 fe ff       	callq  96f3 <transparent_crc>
   1c6e5:	8b 05 6d 69 00 00    	mov    0x696d(%rip),%eax        # 23058 <g_128>
   1c6eb:	89 c1                	mov    %eax,%ecx
   1c6ed:	8b 45 fc             	mov    -0x4(%rbp),%eax
   1c6f0:	89 c2                	mov    %eax,%edx
   1c6f2:	48 8d 35 2b 31 00 00 	lea    0x312b(%rip),%rsi        # 1f824 <g_2423+0x1774>
   1c6f9:	48 89 cf             	mov    %rcx,%rdi
   1c6fc:	e8 f2 cf fe ff       	callq  96f3 <transparent_crc>
   1c701:	0f b6 05 54 69 00 00 	movzbl 0x6954(%rip),%eax        # 2305c <g_131>
   1c708:	0f b6 c0             	movzbl %al,%eax
   1c70b:	8b 55 fc             	mov    -0x4(%rbp),%edx
   1c70e:	48 8d 35 15 31 00 00 	lea    0x3115(%rip),%rsi        # 1f82a <g_2423+0x177a>
   1c715:	48 89 c7             	mov    %rax,%rdi
   1c718:	e8 d6 cf fe ff       	callq  96f3 <transparent_crc>
   1c71d:	0f b6 05 39 69 00 00 	movzbl 0x6939(%rip),%eax        # 2305d <g_150>
   1c724:	0f b6 c0             	movzbl %al,%eax
   1c727:	8b 55 fc             	mov    -0x4(%rbp),%edx
   1c72a:	48 8d 35 ff 30 00 00 	lea    0x30ff(%rip),%rsi        # 1f830 <g_2423+0x1780>
   1c731:	48 89 c7             	mov    %rax,%rdi
   1c734:	e8 ba cf fe ff       	callq  96f3 <transparent_crc>
   1c739:	c7 45 f0 00 00 00 00 	movl   $0x0,-0x10(%rbp)
   1c740:	eb 74                	jmp    1c7b6 <main+0x24f>
   1c742:	c7 45 f4 00 00 00 00 	movl   $0x0,-0xc(%rbp)
   1c749:	eb 61                	jmp    1c7ac <main+0x245>
   1c74b:	8b 45 f4             	mov    -0xc(%rbp),%eax
   1c74e:	48 63 c8             	movslq %eax,%rcx
   1c751:	8b 45 f0             	mov    -0x10(%rbp),%eax
   1c754:	48 63 d0             	movslq %eax,%rdx
   1c757:	48 89 d0             	mov    %rdx,%rax
   1c75a:	48 c1 e0 02          	shl    $0x2,%rax
   1c75e:	48 01 d0             	add    %rdx,%rax
   1c761:	48 01 c8             	add    %rcx,%rax
   1c764:	48 8d 14 00          	lea    (%rax,%rax,1),%rdx
   1c768:	48 8d 05 f1 68 00 00 	lea    0x68f1(%rip),%rax        # 23060 <g_158>
   1c76f:	0f b7 04 02          	movzwl (%rdx,%rax,1),%eax
   1c773:	48 0f bf c0          	movswq %ax,%rax
   1c777:	8b 55 fc             	mov    -0x4(%rbp),%edx
   1c77a:	48 8d 35 b5 30 00 00 	lea    0x30b5(%rip),%rsi        # 1f836 <g_2423+0x1786>
   1c781:	48 89 c7             	mov    %rax,%rdi
   1c784:	e8 6a cf fe ff       	callq  96f3 <transparent_crc>
   1c789:	83 7d fc 00          	cmpl   $0x0,-0x4(%rbp)
   1c78d:	74 19                	je     1c7a8 <main+0x241>
   1c78f:	8b 55 f4             	mov    -0xc(%rbp),%edx
   1c792:	8b 45 f0             	mov    -0x10(%rbp),%eax
   1c795:	89 c6                	mov    %eax,%esi
   1c797:	48 8d 3d a4 30 00 00 	lea    0x30a4(%rip),%rdi        # 1f842 <g_2423+0x1792>
   1c79e:	b8 00 00 00 00       	mov    $0x0,%eax
   1c7a3:	e8 d8 b8 fe ff       	callq  8080 <printf@plt>
   1c7a8:	83 45 f4 01          	addl   $0x1,-0xc(%rbp)
   1c7ac:	83 7d f4 04          	cmpl   $0x4,-0xc(%rbp)
   1c7b0:	7e 99                	jle    1c74b <main+0x1e4>
   1c7b2:	83 45 f0 01          	addl   $0x1,-0x10(%rbp)
   1c7b6:	83 7d f0 03          	cmpl   $0x3,-0x10(%rbp)
   1c7ba:	7e 86                	jle    1c742 <main+0x1db>
   1c7bc:	0f b7 05 c5 68 00 00 	movzwl 0x68c5(%rip),%eax        # 23088 <g_162>
   1c7c3:	0f b7 c0             	movzwl %ax,%eax
   1c7c6:	8b 55 fc             	mov    -0x4(%rbp),%edx
   1c7c9:	48 8d 35 84 30 00 00 	lea    0x3084(%rip),%rsi        # 1f854 <g_2423+0x17a4>
   1c7d0:	48 89 c7             	mov    %rax,%rdi
   1c7d3:	e8 1b cf fe ff       	callq  96f3 <transparent_crc>
   1c7d8:	c7 45 f0 00 00 00 00 	movl   $0x0,-0x10(%rbp)
   1c7df:	eb 7b                	jmp    1c85c <main+0x2f5>
   1c7e1:	8b 45 f0             	mov    -0x10(%rbp),%eax
   1c7e4:	48 98                	cltq   
   1c7e6:	48 8d 14 c5 00 00 00 	lea    0x0(,%rax,8),%rdx
   1c7ed:	00 
   1c7ee:	48 8d 05 9b 68 00 00 	lea    0x689b(%rip),%rax        # 23090 <g_184>
   1c7f5:	0f b6 04 02          	movzbl (%rdx,%rax,1),%eax
   1c7f9:	0f b6 c0             	movzbl %al,%eax
   1c7fc:	8b 55 fc             	mov    -0x4(%rbp),%edx
   1c7ff:	48 8d 35 54 30 00 00 	lea    0x3054(%rip),%rsi        # 1f85a <g_2423+0x17aa>
   1c806:	48 89 c7             	mov    %rax,%rdi
   1c809:	e8 e5 ce fe ff       	callq  96f3 <transparent_crc>
   1c80e:	8b 45 f0             	mov    -0x10(%rbp),%eax
   1c811:	48 98                	cltq   
   1c813:	48 8d 14 c5 00 00 00 	lea    0x0(,%rax,8),%rdx
   1c81a:	00 
   1c81b:	48 8d 05 6e 68 00 00 	lea    0x686e(%rip),%rax        # 23090 <g_184>
   1c822:	0f b6 04 02          	movzbl (%rdx,%rax,1),%eax
   1c826:	48 0f be c0          	movsbq %al,%rax
   1c82a:	8b 55 fc             	mov    -0x4(%rbp),%edx
   1c82d:	48 8d 35 32 30 00 00 	lea    0x3032(%rip),%rsi        # 1f866 <g_2423+0x17b6>
   1c834:	48 89 c7             	mov    %rax,%rdi
   1c837:	e8 b7 ce fe ff       	callq  96f3 <transparent_crc>
   1c83c:	83 7d fc 00          	cmpl   $0x0,-0x4(%rbp)
   1c840:	74 16                	je     1c858 <main+0x2f1>
   1c842:	8b 45 f0             	mov    -0x10(%rbp),%eax
   1c845:	89 c6                	mov    %eax,%esi
   1c847:	48 8d 3d 24 30 00 00 	lea    0x3024(%rip),%rdi        # 1f872 <g_2423+0x17c2>
   1c84e:	b8 00 00 00 00       	mov    $0x0,%eax
   1c853:	e8 28 b8 fe ff       	callq  8080 <printf@plt>
   1c858:	83 45 f0 01          	addl   $0x1,-0x10(%rbp)
   1c85c:	83 7d f0 01          	cmpl   $0x1,-0x10(%rbp)
   1c860:	0f 8e 7b ff ff ff    	jle    1c7e1 <main+0x27a>
   1c866:	c7 45 f0 00 00 00 00 	movl   $0x0,-0x10(%rbp)
   1c86d:	eb 4d                	jmp    1c8bc <main+0x355>
   1c86f:	8b 45 f0             	mov    -0x10(%rbp),%eax
   1c872:	48 98                	cltq   
   1c874:	48 8d 14 85 00 00 00 	lea    0x0(,%rax,4),%rdx
   1c87b:	00 
   1c87c:	48 8d 05 1d 68 00 00 	lea    0x681d(%rip),%rax        # 230a0 <g_194>
   1c883:	8b 04 02             	mov    (%rdx,%rax,1),%eax
   1c886:	89 c1                	mov    %eax,%ecx
   1c888:	8b 45 fc             	mov    -0x4(%rbp),%eax
   1c88b:	89 c2                	mov    %eax,%edx
   1c88d:	48 8d 35 ec 2f 00 00 	lea    0x2fec(%rip),%rsi        # 1f880 <g_2423+0x17d0>
   1c894:	48 89 cf             	mov    %rcx,%rdi
   1c897:	e8 57 ce fe ff       	callq  96f3 <transparent_crc>
   1c89c:	83 7d fc 00          	cmpl   $0x0,-0x4(%rbp)
   1c8a0:	74 16                	je     1c8b8 <main+0x351>
   1c8a2:	8b 45 f0             	mov    -0x10(%rbp),%eax
   1c8a5:	89 c6                	mov    %eax,%esi
   1c8a7:	48 8d 3d c4 2f 00 00 	lea    0x2fc4(%rip),%rdi        # 1f872 <g_2423+0x17c2>
   1c8ae:	b8 00 00 00 00       	mov    $0x0,%eax
   1c8b3:	e8 c8 b7 fe ff       	callq  8080 <printf@plt>
   1c8b8:	83 45 f0 01          	addl   $0x1,-0x10(%rbp)
   1c8bc:	83 7d f0 04          	cmpl   $0x4,-0x10(%rbp)
   1c8c0:	7e ad                	jle    1c86f <main+0x308>
   1c8c2:	8b 05 ec 67 00 00    	mov    0x67ec(%rip),%eax        # 230b4 <g_243>
   1c8c8:	89 c1                	mov    %eax,%ecx
   1c8ca:	8b 45 fc             	mov    -0x4(%rbp),%eax
   1c8cd:	89 c2                	mov    %eax,%edx
   1c8cf:	48 8d 35 b3 2f 00 00 	lea    0x2fb3(%rip),%rsi        # 1f889 <g_2423+0x17d9>
   1c8d6:	48 89 cf             	mov    %rcx,%rdi
   1c8d9:	e8 15 ce fe ff       	callq  96f3 <transparent_crc>
   1c8de:	48 8b 05 d3 67 00 00 	mov    0x67d3(%rip),%rax        # 230b8 <g_246>
   1c8e5:	48 89 c1             	mov    %rax,%rcx
   1c8e8:	8b 45 fc             	mov    -0x4(%rbp),%eax
   1c8eb:	89 c2                	mov    %eax,%edx
   1c8ed:	48 8d 35 9b 2f 00 00 	lea    0x2f9b(%rip),%rsi        # 1f88f <g_2423+0x17df>
   1c8f4:	48 89 cf             	mov    %rcx,%rdi
   1c8f7:	e8 f7 cd fe ff       	callq  96f3 <transparent_crc>
   1c8fc:	0f b7 05 2d 9d 00 00 	movzwl 0x9d2d(%rip),%eax        # 26630 <g_251>
   1c903:	48 0f bf c0          	movswq %ax,%rax
   1c907:	8b 55 fc             	mov    -0x4(%rbp),%edx
   1c90a:	48 8d 35 84 2f 00 00 	lea    0x2f84(%rip),%rsi        # 1f895 <g_2423+0x17e5>
   1c911:	48 89 c7             	mov    %rax,%rdi
   1c914:	e8 da cd fe ff       	callq  96f3 <transparent_crc>
   1c919:	0f b7 05 a0 67 00 00 	movzwl 0x67a0(%rip),%eax        # 230c0 <g_253>
   1c920:	48 0f bf c0          	movswq %ax,%rax
   1c924:	8b 55 fc             	mov    -0x4(%rbp),%edx
   1c927:	48 8d 35 6d 2f 00 00 	lea    0x2f6d(%rip),%rsi        # 1f89b <g_2423+0x17eb>
   1c92e:	48 89 c7             	mov    %rax,%rdi
   1c931:	e8 bd cd fe ff       	callq  96f3 <transparent_crc>
   1c936:	c7 45 f0 00 00 00 00 	movl   $0x0,-0x10(%rbp)
   1c93d:	e9 8c 00 00 00       	jmpq   1c9ce <main+0x467>
   1c942:	c7 45 f4 00 00 00 00 	movl   $0x0,-0xc(%rbp)
   1c949:	eb 79                	jmp    1c9c4 <main+0x45d>
   1c94b:	c7 45 f8 00 00 00 00 	movl   $0x0,-0x8(%rbp)
   1c952:	eb 66                	jmp    1c9ba <main+0x453>
   1c954:	8b 45 f8             	mov    -0x8(%rbp),%eax
   1c957:	48 98                	cltq   
   1c959:	8b 55 f0             	mov    -0x10(%rbp),%edx
   1c95c:	48 63 ca             	movslq %edx,%rcx
   1c95f:	8b 55 f4             	mov    -0xc(%rbp),%edx
   1c962:	48 63 d2             	movslq %edx,%rdx
   1c965:	48 c1 e1 02          	shl    $0x2,%rcx
   1c969:	48 01 ca             	add    %rcx,%rdx
   1c96c:	48 01 d2             	add    %rdx,%rdx
   1c96f:	48 01 c2             	add    %rax,%rdx
   1c972:	48 8d 05 57 67 00 00 	lea    0x6757(%rip),%rax        # 230d0 <g_254>
   1c979:	48 01 d0             	add    %rdx,%rax
   1c97c:	0f b6 00             	movzbl (%rax),%eax
   1c97f:	0f b6 c0             	movzbl %al,%eax
   1c982:	8b 55 fc             	mov    -0x4(%rbp),%edx
   1c985:	48 8d 35 15 2f 00 00 	lea    0x2f15(%rip),%rsi        # 1f8a1 <g_2423+0x17f1>
   1c98c:	48 89 c7             	mov    %rax,%rdi
   1c98f:	e8 5f cd fe ff       	callq  96f3 <transparent_crc>
   1c994:	83 7d fc 00          	cmpl   $0x0,-0x4(%rbp)
   1c998:	74 1c                	je     1c9b6 <main+0x44f>
   1c99a:	8b 4d f8             	mov    -0x8(%rbp),%ecx
   1c99d:	8b 55 f4             	mov    -0xc(%rbp),%edx
   1c9a0:	8b 45 f0             	mov    -0x10(%rbp),%eax
   1c9a3:	89 c6                	mov    %eax,%esi
   1c9a5:	48 8d 3d 04 2f 00 00 	lea    0x2f04(%rip),%rdi        # 1f8b0 <g_2423+0x1800>
   1c9ac:	b8 00 00 00 00       	mov    $0x0,%eax
   1c9b1:	e8 ca b6 fe ff       	callq  8080 <printf@plt>
   1c9b6:	83 45 f8 01          	addl   $0x1,-0x8(%rbp)
   1c9ba:	83 7d f8 01          	cmpl   $0x1,-0x8(%rbp)
   1c9be:	7e 94                	jle    1c954 <main+0x3ed>
   1c9c0:	83 45 f4 01          	addl   $0x1,-0xc(%rbp)
   1c9c4:	83 7d f4 03          	cmpl   $0x3,-0xc(%rbp)
   1c9c8:	7e 81                	jle    1c94b <main+0x3e4>
   1c9ca:	83 45 f0 01          	addl   $0x1,-0x10(%rbp)
   1c9ce:	83 7d f0 01          	cmpl   $0x1,-0x10(%rbp)
   1c9d2:	0f 8e 6a ff ff ff    	jle    1c942 <main+0x3db>
   1c9d8:	48 8b 05 01 67 00 00 	mov    0x6701(%rip),%rax        # 230e0 <g_256>
   1c9df:	48 89 c1             	mov    %rax,%rcx
   1c9e2:	8b 45 fc             	mov    -0x4(%rbp),%eax
   1c9e5:	89 c2                	mov    %eax,%edx
   1c9e7:	48 8d 35 d8 2e 00 00 	lea    0x2ed8(%rip),%rsi        # 1f8c6 <g_2423+0x1816>
   1c9ee:	48 89 cf             	mov    %rcx,%rdi
   1c9f1:	e8 fd cc fe ff       	callq  96f3 <transparent_crc>
   1c9f6:	0f b6 05 eb 66 00 00 	movzbl 0x66eb(%rip),%eax        # 230e8 <g_261>
   1c9fd:	48 0f be c0          	movsbq %al,%rax
   1ca01:	8b 55 fc             	mov    -0x4(%rbp),%edx
   1ca04:	48 8d 35 c1 2e 00 00 	lea    0x2ec1(%rip),%rsi        # 1f8cc <g_2423+0x181c>
   1ca0b:	48 89 c7             	mov    %rax,%rdi
   1ca0e:	e8 e0 cc fe ff       	callq  96f3 <transparent_crc>
   1ca13:	8b 05 d7 66 00 00    	mov    0x66d7(%rip),%eax        # 230f0 <g_344>
   1ca19:	48 98                	cltq   
   1ca1b:	8b 55 fc             	mov    -0x4(%rbp),%edx
   1ca1e:	48 8d 35 ad 2e 00 00 	lea    0x2ead(%rip),%rsi        # 1f8d2 <g_2423+0x1822>
   1ca25:	48 89 c7             	mov    %rax,%rdi
   1ca28:	e8 c6 cc fe ff       	callq  96f3 <transparent_crc>
   1ca2d:	0f b7 05 bc 66 00 00 	movzwl 0x66bc(%rip),%eax        # 230f0 <g_344>
   1ca34:	0f b7 c0             	movzwl %ax,%eax
   1ca37:	8b 55 fc             	mov    -0x4(%rbp),%edx
   1ca3a:	48 8d 35 9a 2e 00 00 	lea    0x2e9a(%rip),%rsi        # 1f8db <g_2423+0x182b>
   1ca41:	48 89 c7             	mov    %rax,%rdi
   1ca44:	e8 aa cc fe ff       	callq  96f3 <transparent_crc>
   1ca49:	8b 05 a1 66 00 00    	mov    0x66a1(%rip),%eax        # 230f0 <g_344>
   1ca4f:	89 c1                	mov    %eax,%ecx
   1ca51:	8b 45 fc             	mov    -0x4(%rbp),%eax
   1ca54:	89 c2                	mov    %eax,%edx
   1ca56:	48 8d 35 87 2e 00 00 	lea    0x2e87(%rip),%rsi        # 1f8e4 <g_2423+0x1834>
   1ca5d:	48 89 cf             	mov    %rcx,%rdi
   1ca60:	e8 8e cc fe ff       	callq  96f3 <transparent_crc>
   1ca65:	8b 05 8d 66 00 00    	mov    0x668d(%rip),%eax        # 230f8 <g_380>
   1ca6b:	48 98                	cltq   
   1ca6d:	8b 55 fc             	mov    -0x4(%rbp),%edx
   1ca70:	48 8d 35 76 2e 00 00 	lea    0x2e76(%rip),%rsi        # 1f8ed <g_2423+0x183d>
   1ca77:	48 89 c7             	mov    %rax,%rdi
   1ca7a:	e8 74 cc fe ff       	callq  96f3 <transparent_crc>
   1ca7f:	8b 05 77 66 00 00    	mov    0x6677(%rip),%eax        # 230fc <g_382>
   1ca85:	48 98                	cltq   
   1ca87:	8b 55 fc             	mov    -0x4(%rbp),%edx
   1ca8a:	48 8d 35 62 2e 00 00 	lea    0x2e62(%rip),%rsi        # 1f8f3 <g_2423+0x1843>
   1ca91:	48 89 c7             	mov    %rax,%rdi
   1ca94:	e8 5a cc fe ff       	callq  96f3 <transparent_crc>
   1ca99:	8b 05 61 66 00 00    	mov    0x6661(%rip),%eax        # 23100 <g_398>
   1ca9f:	89 c1                	mov    %eax,%ecx
   1caa1:	8b 45 fc             	mov    -0x4(%rbp),%eax
   1caa4:	89 c2                	mov    %eax,%edx
   1caa6:	48 8d 35 4c 2e 00 00 	lea    0x2e4c(%rip),%rsi        # 1f8f9 <g_2423+0x1849>
   1caad:	48 89 cf             	mov    %rcx,%rdi
   1cab0:	e8 3e cc fe ff       	callq  96f3 <transparent_crc>
   1cab5:	0f b6 05 4c 66 00 00 	movzbl 0x664c(%rip),%eax        # 23108 <g_451>
   1cabc:	0f b6 c0             	movzbl %al,%eax
   1cabf:	8b 55 fc             	mov    -0x4(%rbp),%edx
   1cac2:	48 8d 35 36 2e 00 00 	lea    0x2e36(%rip),%rsi        # 1f8ff <g_2423+0x184f>
   1cac9:	48 89 c7             	mov    %rax,%rdi
   1cacc:	e8 22 cc fe ff       	callq  96f3 <transparent_crc>
   1cad1:	0f b6 05 30 66 00 00 	movzbl 0x6630(%rip),%eax        # 23108 <g_451>
   1cad8:	48 0f be c0          	movsbq %al,%rax
   1cadc:	8b 55 fc             	mov    -0x4(%rbp),%edx
   1cadf:	48 8d 35 22 2e 00 00 	lea    0x2e22(%rip),%rsi        # 1f908 <g_2423+0x1858>
   1cae6:	48 89 c7             	mov    %rax,%rdi
   1cae9:	e8 05 cc fe ff       	callq  96f3 <transparent_crc>
   1caee:	c7 45 f0 00 00 00 00 	movl   $0x0,-0x10(%rbp)
   1caf5:	eb 7b                	jmp    1cb72 <main+0x60b>
   1caf7:	8b 45 f0             	mov    -0x10(%rbp),%eax
   1cafa:	48 98                	cltq   
   1cafc:	48 8d 14 c5 00 00 00 	lea    0x0(,%rax,8),%rdx
   1cb03:	00 
   1cb04:	48 8d 05 15 66 00 00 	lea    0x6615(%rip),%rax        # 23120 <g_481>
   1cb0b:	0f b6 04 02          	movzbl (%rdx,%rax,1),%eax
   1cb0f:	0f b6 c0             	movzbl %al,%eax
   1cb12:	8b 55 fc             	mov    -0x4(%rbp),%edx
   1cb15:	48 8d 35 f5 2d 00 00 	lea    0x2df5(%rip),%rsi        # 1f911 <g_2423+0x1861>
   1cb1c:	48 89 c7             	mov    %rax,%rdi
   1cb1f:	e8 cf cb fe ff       	callq  96f3 <transparent_crc>
   1cb24:	8b 45 f0             	mov    -0x10(%rbp),%eax
   1cb27:	48 98                	cltq   
   1cb29:	48 8d 14 c5 00 00 00 	lea    0x0(,%rax,8),%rdx
   1cb30:	00 
   1cb31:	48 8d 05 e8 65 00 00 	lea    0x65e8(%rip),%rax        # 23120 <g_481>
   1cb38:	0f b6 04 02          	movzbl (%rdx,%rax,1),%eax
   1cb3c:	48 0f be c0          	movsbq %al,%rax
   1cb40:	8b 55 fc             	mov    -0x4(%rbp),%edx
   1cb43:	48 8d 35 d3 2d 00 00 	lea    0x2dd3(%rip),%rsi        # 1f91d <g_2423+0x186d>
   1cb4a:	48 89 c7             	mov    %rax,%rdi
   1cb4d:	e8 a1 cb fe ff       	callq  96f3 <transparent_crc>
   1cb52:	83 7d fc 00          	cmpl   $0x0,-0x4(%rbp)
   1cb56:	74 16                	je     1cb6e <main+0x607>
   1cb58:	8b 45 f0             	mov    -0x10(%rbp),%eax
   1cb5b:	89 c6                	mov    %eax,%esi
   1cb5d:	48 8d 3d 0e 2d 00 00 	lea    0x2d0e(%rip),%rdi        # 1f872 <g_2423+0x17c2>
   1cb64:	b8 00 00 00 00       	mov    $0x0,%eax
   1cb69:	e8 12 b5 fe ff       	callq  8080 <printf@plt>
   1cb6e:	83 45 f0 01          	addl   $0x1,-0x10(%rbp)
   1cb72:	83 7d f0 07          	cmpl   $0x7,-0x10(%rbp)
   1cb76:	0f 8e 7b ff ff ff    	jle    1caf7 <main+0x590>
   1cb7c:	0f b6 05 bd 9a 00 00 	movzbl 0x9abd(%rip),%eax        # 26640 <g_497>
   1cb83:	0f b6 c0             	movzbl %al,%eax
   1cb86:	8b 55 fc             	mov    -0x4(%rbp),%edx
   1cb89:	48 8d 35 99 2d 00 00 	lea    0x2d99(%rip),%rsi        # 1f929 <g_2423+0x1879>
   1cb90:	48 89 c7             	mov    %rax,%rdi
   1cb93:	e8 5b cb fe ff       	callq  96f3 <transparent_crc>
   1cb98:	0f b6 05 c1 65 00 00 	movzbl 0x65c1(%rip),%eax        # 23160 <g_556>
   1cb9f:	48 0f be c0          	movsbq %al,%rax
   1cba3:	8b 55 fc             	mov    -0x4(%rbp),%edx
   1cba6:	48 8d 35 82 2d 00 00 	lea    0x2d82(%rip),%rsi        # 1f92f <g_2423+0x187f>
   1cbad:	48 89 c7             	mov    %rax,%rdi
   1cbb0:	e8 3e cb fe ff       	callq  96f3 <transparent_crc>
   1cbb5:	c7 45 f0 00 00 00 00 	movl   $0x0,-0x10(%rbp)
   1cbbc:	eb 7b                	jmp    1cc39 <main+0x6d2>
   1cbbe:	8b 45 f0             	mov    -0x10(%rbp),%eax
   1cbc1:	48 98                	cltq   
   1cbc3:	48 8d 14 c5 00 00 00 	lea    0x0(,%rax,8),%rdx
   1cbca:	00 
   1cbcb:	48 8d 05 ae 65 00 00 	lea    0x65ae(%rip),%rax        # 23180 <g_590>
   1cbd2:	0f b6 04 02          	movzbl (%rdx,%rax,1),%eax
   1cbd6:	0f b6 c0             	movzbl %al,%eax
   1cbd9:	8b 55 fc             	mov    -0x4(%rbp),%edx
   1cbdc:	48 8d 35 52 2d 00 00 	lea    0x2d52(%rip),%rsi        # 1f935 <g_2423+0x1885>
   1cbe3:	48 89 c7             	mov    %rax,%rdi
   1cbe6:	e8 08 cb fe ff       	callq  96f3 <transparent_crc>
   1cbeb:	8b 45 f0             	mov    -0x10(%rbp),%eax
   1cbee:	48 98                	cltq   
   1cbf0:	48 8d 14 c5 00 00 00 	lea    0x0(,%rax,8),%rdx
   1cbf7:	00 
   1cbf8:	48 8d 05 81 65 00 00 	lea    0x6581(%rip),%rax        # 23180 <g_590>
   1cbff:	0f b6 04 02          	movzbl (%rdx,%rax,1),%eax
   1cc03:	48 0f be c0          	movsbq %al,%rax
   1cc07:	8b 55 fc             	mov    -0x4(%rbp),%edx
   1cc0a:	48 8d 35 30 2d 00 00 	lea    0x2d30(%rip),%rsi        # 1f941 <g_2423+0x1891>
   1cc11:	48 89 c7             	mov    %rax,%rdi
   1cc14:	e8 da ca fe ff       	callq  96f3 <transparent_crc>
   1cc19:	83 7d fc 00          	cmpl   $0x0,-0x4(%rbp)
   1cc1d:	74 16                	je     1cc35 <main+0x6ce>
   1cc1f:	8b 45 f0             	mov    -0x10(%rbp),%eax
   1cc22:	89 c6                	mov    %eax,%esi
   1cc24:	48 8d 3d 47 2c 00 00 	lea    0x2c47(%rip),%rdi        # 1f872 <g_2423+0x17c2>
   1cc2b:	b8 00 00 00 00       	mov    $0x0,%eax
   1cc30:	e8 4b b4 fe ff       	callq  8080 <printf@plt>
   1cc35:	83 45 f0 01          	addl   $0x1,-0x10(%rbp)
   1cc39:	83 7d f0 03          	cmpl   $0x3,-0x10(%rbp)
   1cc3d:	0f 8e 7b ff ff ff    	jle    1cbbe <main+0x657>
   1cc43:	0f b6 05 56 65 00 00 	movzbl 0x6556(%rip),%eax        # 231a0 <g_595>
   1cc4a:	0f b6 c0             	movzbl %al,%eax
   1cc4d:	8b 55 fc             	mov    -0x4(%rbp),%edx
   1cc50:	48 8d 35 f6 2c 00 00 	lea    0x2cf6(%rip),%rsi        # 1f94d <g_2423+0x189d>
   1cc57:	48 89 c7             	mov    %rax,%rdi
   1cc5a:	e8 94 ca fe ff       	callq  96f3 <transparent_crc>
   1cc5f:	0f b6 05 3a 65 00 00 	movzbl 0x653a(%rip),%eax        # 231a0 <g_595>
   1cc66:	48 0f be c0          	movsbq %al,%rax
   1cc6a:	8b 55 fc             	mov    -0x4(%rbp),%edx
   1cc6d:	48 8d 35 e2 2c 00 00 	lea    0x2ce2(%rip),%rsi        # 1f956 <g_2423+0x18a6>
   1cc74:	48 89 c7             	mov    %rax,%rdi
   1cc77:	e8 77 ca fe ff       	callq  96f3 <transparent_crc>
   1cc7c:	8b 05 26 65 00 00    	mov    0x6526(%rip),%eax        # 231a8 <g_635>
   1cc82:	48 98                	cltq   
   1cc84:	8b 55 fc             	mov    -0x4(%rbp),%edx
   1cc87:	48 8d 35 d1 2c 00 00 	lea    0x2cd1(%rip),%rsi        # 1f95f <g_2423+0x18af>
   1cc8e:	48 89 c7             	mov    %rax,%rdi
   1cc91:	e8 5d ca fe ff       	callq  96f3 <transparent_crc>
   1cc96:	c7 45 f0 00 00 00 00 	movl   $0x0,-0x10(%rbp)
   1cc9d:	e9 48 01 00 00       	jmpq   1cdea <main+0x883>
   1cca2:	c7 45 f4 00 00 00 00 	movl   $0x0,-0xc(%rbp)
   1cca9:	e9 2e 01 00 00       	jmpq   1cddc <main+0x875>
   1ccae:	c7 45 f8 00 00 00 00 	movl   $0x0,-0x8(%rbp)
   1ccb5:	e9 14 01 00 00       	jmpq   1cdce <main+0x867>
   1ccba:	8b 45 f8             	mov    -0x8(%rbp),%eax
   1ccbd:	48 63 c8             	movslq %eax,%rcx
   1ccc0:	8b 45 f0             	mov    -0x10(%rbp),%eax
   1ccc3:	48 63 d0             	movslq %eax,%rdx
   1ccc6:	8b 45 f4             	mov    -0xc(%rbp),%eax
   1ccc9:	48 63 f0             	movslq %eax,%rsi
   1cccc:	48 89 d0             	mov    %rdx,%rax
   1cccf:	48 01 c0             	add    %rax,%rax
   1ccd2:	48 01 d0             	add    %rdx,%rax
   1ccd5:	48 01 c0             	add    %rax,%rax
   1ccd8:	48 01 f0             	add    %rsi,%rax
   1ccdb:	48 c1 e0 02          	shl    $0x2,%rax
   1ccdf:	48 01 c8             	add    %rcx,%rax
   1cce2:	48 8d 14 c5 00 00 00 	lea    0x0(,%rax,8),%rdx
   1cce9:	00 
   1ccea:	48 8d 05 cf 64 00 00 	lea    0x64cf(%rip),%rax        # 231c0 <g_855>
   1ccf1:	8b 04 02             	mov    (%rdx,%rax,1),%eax
   1ccf4:	48 98                	cltq   
   1ccf6:	8b 55 fc             	mov    -0x4(%rbp),%edx
   1ccf9:	48 8d 35 65 2c 00 00 	lea    0x2c65(%rip),%rsi        # 1f965 <g_2423+0x18b5>
   1cd00:	48 89 c7             	mov    %rax,%rdi
   1cd03:	e8 eb c9 fe ff       	callq  96f3 <transparent_crc>
   1cd08:	8b 45 f8             	mov    -0x8(%rbp),%eax
   1cd0b:	48 63 c8             	movslq %eax,%rcx
   1cd0e:	8b 45 f0             	mov    -0x10(%rbp),%eax
   1cd11:	48 63 d0             	movslq %eax,%rdx
   1cd14:	8b 45 f4             	mov    -0xc(%rbp),%eax
   1cd17:	48 63 f0             	movslq %eax,%rsi
   1cd1a:	48 89 d0             	mov    %rdx,%rax
   1cd1d:	48 01 c0             	add    %rax,%rax
   1cd20:	48 01 d0             	add    %rdx,%rax
   1cd23:	48 01 c0             	add    %rax,%rax
   1cd26:	48 01 f0             	add    %rsi,%rax
   1cd29:	48 c1 e0 02          	shl    $0x2,%rax
   1cd2d:	48 01 c8             	add    %rcx,%rax
   1cd30:	48 8d 14 c5 00 00 00 	lea    0x0(,%rax,8),%rdx
   1cd37:	00 
   1cd38:	48 8d 05 81 64 00 00 	lea    0x6481(%rip),%rax        # 231c0 <g_855>
   1cd3f:	0f b7 04 02          	movzwl (%rdx,%rax,1),%eax
   1cd43:	0f b7 c0             	movzwl %ax,%eax
   1cd46:	8b 55 fc             	mov    -0x4(%rbp),%edx
   1cd49:	48 8d 35 27 2c 00 00 	lea    0x2c27(%rip),%rsi        # 1f977 <g_2423+0x18c7>
   1cd50:	48 89 c7             	mov    %rax,%rdi
   1cd53:	e8 9b c9 fe ff       	callq  96f3 <transparent_crc>
   1cd58:	8b 45 f8             	mov    -0x8(%rbp),%eax
   1cd5b:	48 63 c8             	movslq %eax,%rcx
   1cd5e:	8b 45 f0             	mov    -0x10(%rbp),%eax
   1cd61:	48 63 d0             	movslq %eax,%rdx
   1cd64:	8b 45 f4             	mov    -0xc(%rbp),%eax
   1cd67:	48 63 f0             	movslq %eax,%rsi
   1cd6a:	48 89 d0             	mov    %rdx,%rax
   1cd6d:	48 01 c0             	add    %rax,%rax
   1cd70:	48 01 d0             	add    %rdx,%rax
   1cd73:	48 01 c0             	add    %rax,%rax
   1cd76:	48 01 f0             	add    %rsi,%rax
   1cd79:	48 c1 e0 02          	shl    $0x2,%rax
   1cd7d:	48 01 c8             	add    %rcx,%rax
   1cd80:	48 8d 14 c5 00 00 00 	lea    0x0(,%rax,8),%rdx
   1cd87:	00 
   1cd88:	48 8d 05 31 64 00 00 	lea    0x6431(%rip),%rax        # 231c0 <g_855>
   1cd8f:	8b 04 02             	mov    (%rdx,%rax,1),%eax
   1cd92:	89 c1                	mov    %eax,%ecx
   1cd94:	8b 45 fc             	mov    -0x4(%rbp),%eax
   1cd97:	89 c2                	mov    %eax,%edx
   1cd99:	48 8d 35 e9 2b 00 00 	lea    0x2be9(%rip),%rsi        # 1f989 <g_2423+0x18d9>
   1cda0:	48 89 cf             	mov    %rcx,%rdi
   1cda3:	e8 4b c9 fe ff       	callq  96f3 <transparent_crc>
   1cda8:	83 7d fc 00          	cmpl   $0x0,-0x4(%rbp)
   1cdac:	74 1c                	je     1cdca <main+0x863>
   1cdae:	8b 4d f8             	mov    -0x8(%rbp),%ecx
   1cdb1:	8b 55 f4             	mov    -0xc(%rbp),%edx
   1cdb4:	8b 45 f0             	mov    -0x10(%rbp),%eax
   1cdb7:	89 c6                	mov    %eax,%esi
   1cdb9:	48 8d 3d f0 2a 00 00 	lea    0x2af0(%rip),%rdi        # 1f8b0 <g_2423+0x1800>
   1cdc0:	b8 00 00 00 00       	mov    $0x0,%eax
   1cdc5:	e8 b6 b2 fe ff       	callq  8080 <printf@plt>
   1cdca:	83 45 f8 01          	addl   $0x1,-0x8(%rbp)
   1cdce:	83 7d f8 03          	cmpl   $0x3,-0x8(%rbp)
   1cdd2:	0f 8e e2 fe ff ff    	jle    1ccba <main+0x753>
   1cdd8:	83 45 f4 01          	addl   $0x1,-0xc(%rbp)
   1cddc:	83 7d f4 05          	cmpl   $0x5,-0xc(%rbp)
   1cde0:	0f 8e c8 fe ff ff    	jle    1ccae <main+0x747>
   1cde6:	83 45 f0 01          	addl   $0x1,-0x10(%rbp)
   1cdea:	83 7d f0 01          	cmpl   $0x1,-0x10(%rbp)
   1cdee:	0f 8e ae fe ff ff    	jle    1cca2 <main+0x73b>
   1cdf4:	8b 05 46 65 00 00    	mov    0x6546(%rip),%eax        # 23340 <g_856>
   1cdfa:	48 98                	cltq   
   1cdfc:	8b 55 fc             	mov    -0x4(%rbp),%edx
   1cdff:	48 8d 35 95 2b 00 00 	lea    0x2b95(%rip),%rsi        # 1f99b <g_2423+0x18eb>
   1ce06:	48 89 c7             	mov    %rax,%rdi
   1ce09:	e8 e5 c8 fe ff       	callq  96f3 <transparent_crc>
   1ce0e:	0f b7 05 2b 65 00 00 	movzwl 0x652b(%rip),%eax        # 23340 <g_856>
   1ce15:	0f b7 c0             	movzwl %ax,%eax
   1ce18:	8b 55 fc             	mov    -0x4(%rbp),%edx
   1ce1b:	48 8d 35 82 2b 00 00 	lea    0x2b82(%rip),%rsi        # 1f9a4 <g_2423+0x18f4>
   1ce22:	48 89 c7             	mov    %rax,%rdi
   1ce25:	e8 c9 c8 fe ff       	callq  96f3 <transparent_crc>
   1ce2a:	8b 05 10 65 00 00    	mov    0x6510(%rip),%eax        # 23340 <g_856>
   1ce30:	89 c1                	mov    %eax,%ecx
   1ce32:	8b 45 fc             	mov    -0x4(%rbp),%eax
   1ce35:	89 c2                	mov    %eax,%edx
   1ce37:	48 8d 35 6f 2b 00 00 	lea    0x2b6f(%rip),%rsi        # 1f9ad <g_2423+0x18fd>
   1ce3e:	48 89 cf             	mov    %rcx,%rdi
   1ce41:	e8 ad c8 fe ff       	callq  96f3 <transparent_crc>
   1ce46:	c7 45 f0 00 00 00 00 	movl   $0x0,-0x10(%rbp)
   1ce4d:	e9 a5 00 00 00       	jmpq   1cef7 <main+0x990>
   1ce52:	8b 45 f0             	mov    -0x10(%rbp),%eax
   1ce55:	48 98                	cltq   
   1ce57:	48 8d 14 c5 00 00 00 	lea    0x0(,%rax,8),%rdx
   1ce5e:	00 
   1ce5f:	48 8d 05 fa 64 00 00 	lea    0x64fa(%rip),%rax        # 23360 <g_857>
   1ce66:	8b 04 02             	mov    (%rdx,%rax,1),%eax
   1ce69:	48 98                	cltq   
   1ce6b:	8b 55 fc             	mov    -0x4(%rbp),%edx
   1ce6e:	48 8d 35 41 2b 00 00 	lea    0x2b41(%rip),%rsi        # 1f9b6 <g_2423+0x1906>
   1ce75:	48 89 c7             	mov    %rax,%rdi
   1ce78:	e8 76 c8 fe ff       	callq  96f3 <transparent_crc>
   1ce7d:	8b 45 f0             	mov    -0x10(%rbp),%eax
   1ce80:	48 98                	cltq   
   1ce82:	48 8d 14 c5 00 00 00 	lea    0x0(,%rax,8),%rdx
   1ce89:	00 
   1ce8a:	48 8d 05 cf 64 00 00 	lea    0x64cf(%rip),%rax        # 23360 <g_857>
   1ce91:	0f b7 04 02          	movzwl (%rdx,%rax,1),%eax
   1ce95:	0f b7 c0             	movzwl %ax,%eax
   1ce98:	8b 55 fc             	mov    -0x4(%rbp),%edx
   1ce9b:	48 8d 35 20 2b 00 00 	lea    0x2b20(%rip),%rsi        # 1f9c2 <g_2423+0x1912>
   1cea2:	48 89 c7             	mov    %rax,%rdi
   1cea5:	e8 49 c8 fe ff       	callq  96f3 <transparent_crc>
   1ceaa:	8b 45 f0             	mov    -0x10(%rbp),%eax
   1cead:	48 98                	cltq   
   1ceaf:	48 8d 14 c5 00 00 00 	lea    0x0(,%rax,8),%rdx
   1ceb6:	00 
   1ceb7:	48 8d 05 a2 64 00 00 	lea    0x64a2(%rip),%rax        # 23360 <g_857>
   1cebe:	8b 04 02             	mov    (%rdx,%rax,1),%eax
   1cec1:	89 c1                	mov    %eax,%ecx
   1cec3:	8b 45 fc             	mov    -0x4(%rbp),%eax
   1cec6:	89 c2                	mov    %eax,%edx
   1cec8:	48 8d 35 ff 2a 00 00 	lea    0x2aff(%rip),%rsi        # 1f9ce <g_2423+0x191e>
   1cecf:	48 89 cf             	mov    %rcx,%rdi
   1ced2:	e8 1c c8 fe ff       	callq  96f3 <transparent_crc>
   1ced7:	83 7d fc 00          	cmpl   $0x0,-0x4(%rbp)
   1cedb:	74 16                	je     1cef3 <main+0x98c>
   1cedd:	8b 45 f0             	mov    -0x10(%rbp),%eax
   1cee0:	89 c6                	mov    %eax,%esi
   1cee2:	48 8d 3d 89 29 00 00 	lea    0x2989(%rip),%rdi        # 1f872 <g_2423+0x17c2>
   1cee9:	b8 00 00 00 00       	mov    $0x0,%eax
   1ceee:	e8 8d b1 fe ff       	callq  8080 <printf@plt>
   1cef3:	83 45 f0 01          	addl   $0x1,-0x10(%rbp)
   1cef7:	83 7d f0 07          	cmpl   $0x7,-0x10(%rbp)
   1cefb:	0f 8e 51 ff ff ff    	jle    1ce52 <main+0x8eb>
   1cf01:	8b 05 61 97 00 00    	mov    0x9761(%rip),%eax        # 26668 <g_858>
   1cf07:	48 98                	cltq   
   1cf09:	8b 55 fc             	mov    -0x4(%rbp),%edx
   1cf0c:	48 8d 35 c7 2a 00 00 	lea    0x2ac7(%rip),%rsi        # 1f9da <g_2423+0x192a>
   1cf13:	48 89 c7             	mov    %rax,%rdi
   1cf16:	e8 d8 c7 fe ff       	callq  96f3 <transparent_crc>
   1cf1b:	0f b7 05 46 97 00 00 	movzwl 0x9746(%rip),%eax        # 26668 <g_858>
   1cf22:	0f b7 c0             	movzwl %ax,%eax
   1cf25:	8b 55 fc             	mov    -0x4(%rbp),%edx
   1cf28:	48 8d 35 b4 2a 00 00 	lea    0x2ab4(%rip),%rsi        # 1f9e3 <g_2423+0x1933>
   1cf2f:	48 89 c7             	mov    %rax,%rdi
   1cf32:	e8 bc c7 fe ff       	callq  96f3 <transparent_crc>
   1cf37:	8b 05 2b 97 00 00    	mov    0x972b(%rip),%eax        # 26668 <g_858>
   1cf3d:	89 c1                	mov    %eax,%ecx
   1cf3f:	8b 45 fc             	mov    -0x4(%rbp),%eax
   1cf42:	89 c2                	mov    %eax,%edx
   1cf44:	48 8d 35 a1 2a 00 00 	lea    0x2aa1(%rip),%rsi        # 1f9ec <g_2423+0x193c>
   1cf4b:	48 89 cf             	mov    %rcx,%rdi
   1cf4e:	e8 a0 c7 fe ff       	callq  96f3 <transparent_crc>
   1cf53:	8b 05 47 64 00 00    	mov    0x6447(%rip),%eax        # 233a0 <g_861>
   1cf59:	48 98                	cltq   
   1cf5b:	8b 55 fc             	mov    -0x4(%rbp),%edx
   1cf5e:	48 8d 35 90 2a 00 00 	lea    0x2a90(%rip),%rsi        # 1f9f5 <g_2423+0x1945>
   1cf65:	48 89 c7             	mov    %rax,%rdi
   1cf68:	e8 86 c7 fe ff       	callq  96f3 <transparent_crc>
   1cf6d:	0f b7 05 2c 64 00 00 	movzwl 0x642c(%rip),%eax        # 233a0 <g_861>
   1cf74:	0f b7 c0             	movzwl %ax,%eax
   1cf77:	8b 55 fc             	mov    -0x4(%rbp),%edx
   1cf7a:	48 8d 35 7d 2a 00 00 	lea    0x2a7d(%rip),%rsi        # 1f9fe <g_2423+0x194e>
   1cf81:	48 89 c7             	mov    %rax,%rdi
   1cf84:	e8 6a c7 fe ff       	callq  96f3 <transparent_crc>
   1cf89:	8b 05 11 64 00 00    	mov    0x6411(%rip),%eax        # 233a0 <g_861>
   1cf8f:	89 c1                	mov    %eax,%ecx
   1cf91:	8b 45 fc             	mov    -0x4(%rbp),%eax
   1cf94:	89 c2                	mov    %eax,%edx
   1cf96:	48 8d 35 6a 2a 00 00 	lea    0x2a6a(%rip),%rsi        # 1fa07 <g_2423+0x1957>
   1cf9d:	48 89 cf             	mov    %rcx,%rdi
   1cfa0:	e8 4e c7 fe ff       	callq  96f3 <transparent_crc>
   1cfa5:	0f b6 05 fc 63 00 00 	movzbl 0x63fc(%rip),%eax        # 233a8 <g_937>
   1cfac:	0f b6 c0             	movzbl %al,%eax
   1cfaf:	8b 55 fc             	mov    -0x4(%rbp),%edx
   1cfb2:	48 8d 35 57 2a 00 00 	lea    0x2a57(%rip),%rsi        # 1fa10 <g_2423+0x1960>
   1cfb9:	48 89 c7             	mov    %rax,%rdi
   1cfbc:	e8 32 c7 fe ff       	callq  96f3 <transparent_crc>
   1cfc1:	8b 05 e9 63 00 00    	mov    0x63e9(%rip),%eax        # 233b0 <g_987>
   1cfc7:	48 98                	cltq   
   1cfc9:	8b 55 fc             	mov    -0x4(%rbp),%edx
   1cfcc:	48 8d 35 43 2a 00 00 	lea    0x2a43(%rip),%rsi        # 1fa16 <g_2423+0x1966>
   1cfd3:	48 89 c7             	mov    %rax,%rdi
   1cfd6:	e8 18 c7 fe ff       	callq  96f3 <transparent_crc>
   1cfdb:	0f b7 05 ce 63 00 00 	movzwl 0x63ce(%rip),%eax        # 233b0 <g_987>
   1cfe2:	0f b7 c0             	movzwl %ax,%eax
   1cfe5:	8b 55 fc             	mov    -0x4(%rbp),%edx
   1cfe8:	48 8d 35 30 2a 00 00 	lea    0x2a30(%rip),%rsi        # 1fa1f <g_2423+0x196f>
   1cfef:	48 89 c7             	mov    %rax,%rdi
   1cff2:	e8 fc c6 fe ff       	callq  96f3 <transparent_crc>
   1cff7:	8b 05 b3 63 00 00    	mov    0x63b3(%rip),%eax        # 233b0 <g_987>
   1cffd:	89 c1                	mov    %eax,%ecx
   1cfff:	8b 45 fc             	mov    -0x4(%rbp),%eax
   1d002:	89 c2                	mov    %eax,%edx
   1d004:	48 8d 35 1d 2a 00 00 	lea    0x2a1d(%rip),%rsi        # 1fa28 <g_2423+0x1978>
   1d00b:	48 89 cf             	mov    %rcx,%rdi
   1d00e:	e8 e0 c6 fe ff       	callq  96f3 <transparent_crc>
   1d013:	48 8b 05 9e 63 00 00 	mov    0x639e(%rip),%rax        # 233b8 <g_999>
   1d01a:	48 89 c1             	mov    %rax,%rcx
   1d01d:	8b 45 fc             	mov    -0x4(%rbp),%eax
   1d020:	89 c2                	mov    %eax,%edx
   1d022:	48 8d 35 08 2a 00 00 	lea    0x2a08(%rip),%rsi        # 1fa31 <g_2423+0x1981>
   1d029:	48 89 cf             	mov    %rcx,%rdi
   1d02c:	e8 c2 c6 fe ff       	callq  96f3 <transparent_crc>
   1d031:	0f b7 05 88 63 00 00 	movzwl 0x6388(%rip),%eax        # 233c0 <g_1011>
   1d038:	0f b7 c0             	movzwl %ax,%eax
   1d03b:	8b 55 fc             	mov    -0x4(%rbp),%edx
   1d03e:	48 8d 35 f2 29 00 00 	lea    0x29f2(%rip),%rsi        # 1fa37 <g_2423+0x1987>
   1d045:	48 89 c7             	mov    %rax,%rdi
   1d048:	e8 a6 c6 fe ff       	callq  96f3 <transparent_crc>
   1d04d:	8b 05 75 63 00 00    	mov    0x6375(%rip),%eax        # 233c8 <g_1079>
   1d053:	48 98                	cltq   
   1d055:	8b 55 fc             	mov    -0x4(%rbp),%edx
   1d058:	48 8d 35 df 29 00 00 	lea    0x29df(%rip),%rsi        # 1fa3e <g_2423+0x198e>
   1d05f:	48 89 c7             	mov    %rax,%rdi
   1d062:	e8 8c c6 fe ff       	callq  96f3 <transparent_crc>
   1d067:	0f b7 05 5a 63 00 00 	movzwl 0x635a(%rip),%eax        # 233c8 <g_1079>
   1d06e:	0f b7 c0             	movzwl %ax,%eax
   1d071:	8b 55 fc             	mov    -0x4(%rbp),%edx
   1d074:	48 8d 35 cd 29 00 00 	lea    0x29cd(%rip),%rsi        # 1fa48 <g_2423+0x1998>
   1d07b:	48 89 c7             	mov    %rax,%rdi
   1d07e:	e8 70 c6 fe ff       	callq  96f3 <transparent_crc>
   1d083:	8b 05 3f 63 00 00    	mov    0x633f(%rip),%eax        # 233c8 <g_1079>
   1d089:	89 c1                	mov    %eax,%ecx
   1d08b:	8b 45 fc             	mov    -0x4(%rbp),%eax
   1d08e:	89 c2                	mov    %eax,%edx
   1d090:	48 8d 35 bb 29 00 00 	lea    0x29bb(%rip),%rsi        # 1fa52 <g_2423+0x19a2>
   1d097:	48 89 cf             	mov    %rcx,%rdi
   1d09a:	e8 54 c6 fe ff       	callq  96f3 <transparent_crc>
   1d09f:	48 8b 05 22 63 00 00 	mov    0x6322(%rip),%rax        # 233c8 <g_1079>
   1d0a6:	8b 55 fc             	mov    -0x4(%rbp),%edx
   1d0a9:	48 8d 35 ac 29 00 00 	lea    0x29ac(%rip),%rsi        # 1fa5c <g_2423+0x19ac>
   1d0b0:	48 89 c7             	mov    %rax,%rdi
   1d0b3:	e8 3b c6 fe ff       	callq  96f3 <transparent_crc>
   1d0b8:	8b 05 12 63 00 00    	mov    0x6312(%rip),%eax        # 233d0 <g_1114>
   1d0be:	48 98                	cltq   
   1d0c0:	8b 55 fc             	mov    -0x4(%rbp),%edx
   1d0c3:	48 8d 35 9c 29 00 00 	lea    0x299c(%rip),%rsi        # 1fa66 <g_2423+0x19b6>
   1d0ca:	48 89 c7             	mov    %rax,%rdi
   1d0cd:	e8 21 c6 fe ff       	callq  96f3 <transparent_crc>
   1d0d2:	0f b7 05 f7 62 00 00 	movzwl 0x62f7(%rip),%eax        # 233d0 <g_1114>
   1d0d9:	0f b7 c0             	movzwl %ax,%eax
   1d0dc:	8b 55 fc             	mov    -0x4(%rbp),%edx
   1d0df:	48 8d 35 8a 29 00 00 	lea    0x298a(%rip),%rsi        # 1fa70 <g_2423+0x19c0>
   1d0e6:	48 89 c7             	mov    %rax,%rdi
   1d0e9:	e8 05 c6 fe ff       	callq  96f3 <transparent_crc>
   1d0ee:	8b 05 dc 62 00 00    	mov    0x62dc(%rip),%eax        # 233d0 <g_1114>
   1d0f4:	89 c1                	mov    %eax,%ecx
   1d0f6:	8b 45 fc             	mov    -0x4(%rbp),%eax
   1d0f9:	89 c2                	mov    %eax,%edx
   1d0fb:	48 8d 35 78 29 00 00 	lea    0x2978(%rip),%rsi        # 1fa7a <g_2423+0x19ca>
   1d102:	48 89 cf             	mov    %rcx,%rdi
   1d105:	e8 e9 c5 fe ff       	callq  96f3 <transparent_crc>
   1d10a:	8b 05 c8 62 00 00    	mov    0x62c8(%rip),%eax        # 233d8 <g_1182>
   1d110:	89 c1                	mov    %eax,%ecx
   1d112:	8b 45 fc             	mov    -0x4(%rbp),%eax
   1d115:	89 c2                	mov    %eax,%edx
   1d117:	48 8d 35 66 29 00 00 	lea    0x2966(%rip),%rsi        # 1fa84 <g_2423+0x19d4>
   1d11e:	48 89 cf             	mov    %rcx,%rdi
   1d121:	e8 cd c5 fe ff       	callq  96f3 <transparent_crc>
   1d126:	8b 05 b0 62 00 00    	mov    0x62b0(%rip),%eax        # 233dc <g_1183>
   1d12c:	89 c1                	mov    %eax,%ecx
   1d12e:	8b 45 fc             	mov    -0x4(%rbp),%eax
   1d131:	89 c2                	mov    %eax,%edx
   1d133:	48 8d 35 51 29 00 00 	lea    0x2951(%rip),%rsi        # 1fa8b <g_2423+0x19db>
   1d13a:	48 89 cf             	mov    %rcx,%rdi
   1d13d:	e8 b1 c5 fe ff       	callq  96f3 <transparent_crc>
   1d142:	c7 45 f0 00 00 00 00 	movl   $0x0,-0x10(%rbp)
   1d149:	eb 4d                	jmp    1d198 <main+0xc31>
   1d14b:	8b 45 f0             	mov    -0x10(%rbp),%eax
   1d14e:	48 98                	cltq   
   1d150:	48 8d 14 85 00 00 00 	lea    0x0(,%rax,4),%rdx
   1d157:	00 
   1d158:	48 8d 05 81 62 00 00 	lea    0x6281(%rip),%rax        # 233e0 <g_1243>
   1d15f:	8b 04 02             	mov    (%rdx,%rax,1),%eax
   1d162:	89 c1                	mov    %eax,%ecx
   1d164:	8b 45 fc             	mov    -0x4(%rbp),%eax
   1d167:	89 c2                	mov    %eax,%edx
   1d169:	48 8d 35 22 29 00 00 	lea    0x2922(%rip),%rsi        # 1fa92 <g_2423+0x19e2>
   1d170:	48 89 cf             	mov    %rcx,%rdi
   1d173:	e8 7b c5 fe ff       	callq  96f3 <transparent_crc>
   1d178:	83 7d fc 00          	cmpl   $0x0,-0x4(%rbp)
   1d17c:	74 16                	je     1d194 <main+0xc2d>
   1d17e:	8b 45 f0             	mov    -0x10(%rbp),%eax
   1d181:	89 c6                	mov    %eax,%esi
   1d183:	48 8d 3d e8 26 00 00 	lea    0x26e8(%rip),%rdi        # 1f872 <g_2423+0x17c2>
   1d18a:	b8 00 00 00 00       	mov    $0x0,%eax
   1d18f:	e8 ec ae fe ff       	callq  8080 <printf@plt>
   1d194:	83 45 f0 01          	addl   $0x1,-0x10(%rbp)
   1d198:	83 7d f0 08          	cmpl   $0x8,-0x10(%rbp)
   1d19c:	7e ad                	jle    1d14b <main+0xbe4>
   1d19e:	0f b6 05 63 62 00 00 	movzbl 0x6263(%rip),%eax        # 23408 <g_1244>
   1d1a5:	0f b6 c0             	movzbl %al,%eax
   1d1a8:	8b 55 fc             	mov    -0x4(%rbp),%edx
   1d1ab:	48 8d 35 ea 28 00 00 	lea    0x28ea(%rip),%rsi        # 1fa9c <g_2423+0x19ec>
   1d1b2:	48 89 c7             	mov    %rax,%rdi
   1d1b5:	e8 39 c5 fe ff       	callq  96f3 <transparent_crc>
   1d1ba:	0f b6 05 47 62 00 00 	movzbl 0x6247(%rip),%eax        # 23408 <g_1244>
   1d1c1:	48 0f be c0          	movsbq %al,%rax
   1d1c5:	8b 55 fc             	mov    -0x4(%rbp),%edx
   1d1c8:	48 8d 35 d7 28 00 00 	lea    0x28d7(%rip),%rsi        # 1faa6 <g_2423+0x19f6>
   1d1cf:	48 89 c7             	mov    %rax,%rdi
   1d1d2:	e8 1c c5 fe ff       	callq  96f3 <transparent_crc>
   1d1d7:	8b 05 33 62 00 00    	mov    0x6233(%rip),%eax        # 23410 <g_1406>
   1d1dd:	89 c1                	mov    %eax,%ecx
   1d1df:	8b 45 fc             	mov    -0x4(%rbp),%eax
   1d1e2:	89 c2                	mov    %eax,%edx
   1d1e4:	48 8d 35 c5 28 00 00 	lea    0x28c5(%rip),%rsi        # 1fab0 <g_2423+0x1a00>
   1d1eb:	48 89 cf             	mov    %rcx,%rdi
   1d1ee:	e8 00 c5 fe ff       	callq  96f3 <transparent_crc>
   1d1f3:	48 8b 05 1e 62 00 00 	mov    0x621e(%rip),%rax        # 23418 <g_1415>
   1d1fa:	8b 55 fc             	mov    -0x4(%rbp),%edx
   1d1fd:	48 8d 35 b3 28 00 00 	lea    0x28b3(%rip),%rsi        # 1fab7 <g_2423+0x1a07>
   1d204:	48 89 c7             	mov    %rax,%rdi
   1d207:	e8 e7 c4 fe ff       	callq  96f3 <transparent_crc>
   1d20c:	0f b6 05 6d 94 00 00 	movzbl 0x946d(%rip),%eax        # 26680 <g_1459>
   1d213:	0f b6 c0             	movzbl %al,%eax
   1d216:	8b 55 fc             	mov    -0x4(%rbp),%edx
   1d219:	48 8d 35 9e 28 00 00 	lea    0x289e(%rip),%rsi        # 1fabe <g_2423+0x1a0e>
   1d220:	48 89 c7             	mov    %rax,%rdi
   1d223:	e8 cb c4 fe ff       	callq  96f3 <transparent_crc>
   1d228:	0f b6 05 51 94 00 00 	movzbl 0x9451(%rip),%eax        # 26680 <g_1459>
   1d22f:	48 0f be c0          	movsbq %al,%rax
   1d233:	8b 55 fc             	mov    -0x4(%rbp),%edx
   1d236:	48 8d 35 8b 28 00 00 	lea    0x288b(%rip),%rsi        # 1fac8 <g_2423+0x1a18>
   1d23d:	48 89 c7             	mov    %rax,%rdi
   1d240:	e8 ae c4 fe ff       	callq  96f3 <transparent_crc>
   1d245:	0f b6 05 d4 61 00 00 	movzbl 0x61d4(%rip),%eax        # 23420 <g_1465>
   1d24c:	0f b6 c0             	movzbl %al,%eax
   1d24f:	8b 55 fc             	mov    -0x4(%rbp),%edx
   1d252:	48 8d 35 79 28 00 00 	lea    0x2879(%rip),%rsi        # 1fad2 <g_2423+0x1a22>
   1d259:	48 89 c7             	mov    %rax,%rdi
   1d25c:	e8 92 c4 fe ff       	callq  96f3 <transparent_crc>
   1d261:	0f b6 05 20 94 00 00 	movzbl 0x9420(%rip),%eax        # 26688 <g_1478>
   1d268:	48 0f be c0          	movsbq %al,%rax
   1d26c:	8b 55 fc             	mov    -0x4(%rbp),%edx
   1d26f:	48 8d 35 63 28 00 00 	lea    0x2863(%rip),%rsi        # 1fad9 <g_2423+0x1a29>
   1d276:	48 89 c7             	mov    %rax,%rdi
   1d279:	e8 75 c4 fe ff       	callq  96f3 <transparent_crc>
   1d27e:	c7 45 f0 00 00 00 00 	movl   $0x0,-0x10(%rbp)
   1d285:	eb 7b                	jmp    1d302 <main+0xd9b>
   1d287:	8b 45 f0             	mov    -0x10(%rbp),%eax
   1d28a:	48 98                	cltq   
   1d28c:	48 8d 14 c5 00 00 00 	lea    0x0(,%rax,8),%rdx
   1d293:	00 
   1d294:	48 8d 05 95 61 00 00 	lea    0x6195(%rip),%rax        # 23430 <g_1491>
   1d29b:	0f b6 04 02          	movzbl (%rdx,%rax,1),%eax
   1d29f:	0f b6 c0             	movzbl %al,%eax
   1d2a2:	8b 55 fc             	mov    -0x4(%rbp),%edx
   1d2a5:	48 8d 35 34 28 00 00 	lea    0x2834(%rip),%rsi        # 1fae0 <g_2423+0x1a30>
   1d2ac:	48 89 c7             	mov    %rax,%rdi
   1d2af:	e8 3f c4 fe ff       	callq  96f3 <transparent_crc>
   1d2b4:	8b 45 f0             	mov    -0x10(%rbp),%eax
   1d2b7:	48 98                	cltq   
   1d2b9:	48 8d 14 c5 00 00 00 	lea    0x0(,%rax,8),%rdx
   1d2c0:	00 
   1d2c1:	48 8d 05 68 61 00 00 	lea    0x6168(%rip),%rax        # 23430 <g_1491>
   1d2c8:	0f b6 04 02          	movzbl (%rdx,%rax,1),%eax
   1d2cc:	48 0f be c0          	movsbq %al,%rax
   1d2d0:	8b 55 fc             	mov    -0x4(%rbp),%edx
   1d2d3:	48 8d 35 13 28 00 00 	lea    0x2813(%rip),%rsi        # 1faed <g_2423+0x1a3d>
   1d2da:	48 89 c7             	mov    %rax,%rdi
   1d2dd:	e8 11 c4 fe ff       	callq  96f3 <transparent_crc>
   1d2e2:	83 7d fc 00          	cmpl   $0x0,-0x4(%rbp)
   1d2e6:	74 16                	je     1d2fe <main+0xd97>
   1d2e8:	8b 45 f0             	mov    -0x10(%rbp),%eax
   1d2eb:	89 c6                	mov    %eax,%esi
   1d2ed:	48 8d 3d 7e 25 00 00 	lea    0x257e(%rip),%rdi        # 1f872 <g_2423+0x17c2>
   1d2f4:	b8 00 00 00 00       	mov    $0x0,%eax
   1d2f9:	e8 82 ad fe ff       	callq  8080 <printf@plt>
   1d2fe:	83 45 f0 01          	addl   $0x1,-0x10(%rbp)
   1d302:	83 7d f0 01          	cmpl   $0x1,-0x10(%rbp)
   1d306:	0f 8e 7b ff ff ff    	jle    1d287 <main+0xd20>
   1d30c:	b8 1b 31 23 17       	mov    $0x1723311b,%eax
   1d311:	48 98                	cltq   
   1d313:	8b 55 fc             	mov    -0x4(%rbp),%edx
   1d316:	48 8d 35 dd 27 00 00 	lea    0x27dd(%rip),%rsi        # 1fafa <g_2423+0x1a4a>
   1d31d:	48 89 c7             	mov    %rax,%rdi
   1d320:	e8 ce c3 fe ff       	callq  96f3 <transparent_crc>
   1d325:	8b 05 15 61 00 00    	mov    0x6115(%rip),%eax        # 23440 <g_1527>
   1d32b:	48 98                	cltq   
   1d32d:	8b 55 fc             	mov    -0x4(%rbp),%edx
   1d330:	48 8d 35 ca 27 00 00 	lea    0x27ca(%rip),%rsi        # 1fb01 <g_2423+0x1a51>
   1d337:	48 89 c7             	mov    %rax,%rdi
   1d33a:	e8 b4 c3 fe ff       	callq  96f3 <transparent_crc>
   1d33f:	0f b7 05 fa 60 00 00 	movzwl 0x60fa(%rip),%eax        # 23440 <g_1527>
   1d346:	0f b7 c0             	movzwl %ax,%eax
   1d349:	8b 55 fc             	mov    -0x4(%rbp),%edx
   1d34c:	48 8d 35 b8 27 00 00 	lea    0x27b8(%rip),%rsi        # 1fb0b <g_2423+0x1a5b>
   1d353:	48 89 c7             	mov    %rax,%rdi
   1d356:	e8 98 c3 fe ff       	callq  96f3 <transparent_crc>
   1d35b:	8b 05 df 60 00 00    	mov    0x60df(%rip),%eax        # 23440 <g_1527>
   1d361:	89 c1                	mov    %eax,%ecx
   1d363:	8b 45 fc             	mov    -0x4(%rbp),%eax
   1d366:	89 c2                	mov    %eax,%edx
   1d368:	48 8d 35 a6 27 00 00 	lea    0x27a6(%rip),%rsi        # 1fb15 <g_2423+0x1a65>
   1d36f:	48 89 cf             	mov    %rcx,%rdi
   1d372:	e8 7c c3 fe ff       	callq  96f3 <transparent_crc>
   1d377:	0f b6 05 ca 60 00 00 	movzbl 0x60ca(%rip),%eax        # 23448 <g_1528>
   1d37e:	0f b6 c0             	movzbl %al,%eax
   1d381:	8b 55 fc             	mov    -0x4(%rbp),%edx
   1d384:	48 8d 35 94 27 00 00 	lea    0x2794(%rip),%rsi        # 1fb1f <g_2423+0x1a6f>
   1d38b:	48 89 c7             	mov    %rax,%rdi
   1d38e:	e8 60 c3 fe ff       	callq  96f3 <transparent_crc>
   1d393:	0f b6 05 ae 60 00 00 	movzbl 0x60ae(%rip),%eax        # 23448 <g_1528>
   1d39a:	48 0f be c0          	movsbq %al,%rax
   1d39e:	8b 55 fc             	mov    -0x4(%rbp),%edx
   1d3a1:	48 8d 35 81 27 00 00 	lea    0x2781(%rip),%rsi        # 1fb29 <g_2423+0x1a79>
   1d3a8:	48 89 c7             	mov    %rax,%rdi
   1d3ab:	e8 43 c3 fe ff       	callq  96f3 <transparent_crc>
   1d3b0:	0f b6 05 99 60 00 00 	movzbl 0x6099(%rip),%eax        # 23450 <g_1930>
   1d3b7:	0f b6 c0             	movzbl %al,%eax
   1d3ba:	8b 55 fc             	mov    -0x4(%rbp),%edx
   1d3bd:	48 8d 35 6f 27 00 00 	lea    0x276f(%rip),%rsi        # 1fb33 <g_2423+0x1a83>
   1d3c4:	48 89 c7             	mov    %rax,%rdi
   1d3c7:	e8 27 c3 fe ff       	callq  96f3 <transparent_crc>
   1d3cc:	0f b6 05 7d 60 00 00 	movzbl 0x607d(%rip),%eax        # 23450 <g_1930>
   1d3d3:	48 0f be c0          	movsbq %al,%rax
   1d3d7:	8b 55 fc             	mov    -0x4(%rbp),%edx
   1d3da:	48 8d 35 5c 27 00 00 	lea    0x275c(%rip),%rsi        # 1fb3d <g_2423+0x1a8d>
   1d3e1:	48 89 c7             	mov    %rax,%rdi
   1d3e4:	e8 0a c3 fe ff       	callq  96f3 <transparent_crc>
   1d3e9:	c7 45 f0 00 00 00 00 	movl   $0x0,-0x10(%rbp)
   1d3f0:	eb 7b                	jmp    1d46d <main+0xf06>
   1d3f2:	8b 45 f0             	mov    -0x10(%rbp),%eax
   1d3f5:	48 98                	cltq   
   1d3f7:	48 8d 14 c5 00 00 00 	lea    0x0(,%rax,8),%rdx
   1d3fe:	00 
   1d3ff:	48 8d 05 5a 60 00 00 	lea    0x605a(%rip),%rax        # 23460 <g_1935>
   1d406:	0f b6 04 02          	movzbl (%rdx,%rax,1),%eax
   1d40a:	0f b6 c0             	movzbl %al,%eax
   1d40d:	8b 55 fc             	mov    -0x4(%rbp),%edx
   1d410:	48 8d 35 30 27 00 00 	lea    0x2730(%rip),%rsi        # 1fb47 <g_2423+0x1a97>
   1d417:	48 89 c7             	mov    %rax,%rdi
   1d41a:	e8 d4 c2 fe ff       	callq  96f3 <transparent_crc>
   1d41f:	8b 45 f0             	mov    -0x10(%rbp),%eax
   1d422:	48 98                	cltq   
   1d424:	48 8d 14 c5 00 00 00 	lea    0x0(,%rax,8),%rdx
   1d42b:	00 
   1d42c:	48 8d 05 2d 60 00 00 	lea    0x602d(%rip),%rax        # 23460 <g_1935>
   1d433:	0f b6 04 02          	movzbl (%rdx,%rax,1),%eax
   1d437:	48 0f be c0          	movsbq %al,%rax
   1d43b:	8b 55 fc             	mov    -0x4(%rbp),%edx
   1d43e:	48 8d 35 0f 27 00 00 	lea    0x270f(%rip),%rsi        # 1fb54 <g_2423+0x1aa4>
   1d445:	48 89 c7             	mov    %rax,%rdi
   1d448:	e8 a6 c2 fe ff       	callq  96f3 <transparent_crc>
   1d44d:	83 7d fc 00          	cmpl   $0x0,-0x4(%rbp)
   1d451:	74 16                	je     1d469 <main+0xf02>
   1d453:	8b 45 f0             	mov    -0x10(%rbp),%eax
   1d456:	89 c6                	mov    %eax,%esi
   1d458:	48 8d 3d 13 24 00 00 	lea    0x2413(%rip),%rdi        # 1f872 <g_2423+0x17c2>
   1d45f:	b8 00 00 00 00       	mov    $0x0,%eax
   1d464:	e8 17 ac fe ff       	callq  8080 <printf@plt>
   1d469:	83 45 f0 01          	addl   $0x1,-0x10(%rbp)
   1d46d:	83 7d f0 05          	cmpl   $0x5,-0x10(%rbp)
   1d471:	0f 8e 7b ff ff ff    	jle    1d3f2 <main+0xe8b>
   1d477:	8b 05 13 60 00 00    	mov    0x6013(%rip),%eax        # 23490 <g_1947>
   1d47d:	89 c1                	mov    %eax,%ecx
   1d47f:	8b 45 fc             	mov    -0x4(%rbp),%eax
   1d482:	89 c2                	mov    %eax,%edx
   1d484:	48 8d 35 d6 26 00 00 	lea    0x26d6(%rip),%rsi        # 1fb61 <g_2423+0x1ab1>
   1d48b:	48 89 cf             	mov    %rcx,%rdi
   1d48e:	e8 60 c2 fe ff       	callq  96f3 <transparent_crc>
   1d493:	0f b6 05 0e 92 00 00 	movzbl 0x920e(%rip),%eax        # 266a8 <g_1962>
   1d49a:	0f b6 c0             	movzbl %al,%eax
   1d49d:	8b 55 fc             	mov    -0x4(%rbp),%edx
   1d4a0:	48 8d 35 c1 26 00 00 	lea    0x26c1(%rip),%rsi        # 1fb68 <g_2423+0x1ab8>
   1d4a7:	48 89 c7             	mov    %rax,%rdi
   1d4aa:	e8 44 c2 fe ff       	callq  96f3 <transparent_crc>
   1d4af:	0f b6 05 f2 91 00 00 	movzbl 0x91f2(%rip),%eax        # 266a8 <g_1962>
   1d4b6:	48 0f be c0          	movsbq %al,%rax
   1d4ba:	8b 55 fc             	mov    -0x4(%rbp),%edx
   1d4bd:	48 8d 35 ae 26 00 00 	lea    0x26ae(%rip),%rsi        # 1fb72 <g_2423+0x1ac2>
   1d4c4:	48 89 c7             	mov    %rax,%rdi
   1d4c7:	e8 27 c2 fe ff       	callq  96f3 <transparent_crc>
   1d4cc:	0f b6 05 c1 5f 00 00 	movzbl 0x5fc1(%rip),%eax        # 23494 <g_1981>
   1d4d3:	0f b6 c0             	movzbl %al,%eax
   1d4d6:	8b 55 fc             	mov    -0x4(%rbp),%edx
   1d4d9:	48 8d 35 9c 26 00 00 	lea    0x269c(%rip),%rsi        # 1fb7c <g_2423+0x1acc>
   1d4e0:	48 89 c7             	mov    %rax,%rdi
   1d4e3:	e8 0b c2 fe ff       	callq  96f3 <transparent_crc>
   1d4e8:	0f b7 05 a7 5f 00 00 	movzwl 0x5fa7(%rip),%eax        # 23496 <g_1988>
   1d4ef:	48 0f bf c0          	movswq %ax,%rax
   1d4f3:	8b 55 fc             	mov    -0x4(%rbp),%edx
   1d4f6:	48 8d 35 86 26 00 00 	lea    0x2686(%rip),%rsi        # 1fb83 <g_2423+0x1ad3>
   1d4fd:	48 89 c7             	mov    %rax,%rdi
   1d500:	e8 ee c1 fe ff       	callq  96f3 <transparent_crc>
   1d505:	b8 9e ff ff ff       	mov    $0xffffff9e,%eax
   1d50a:	48 0f be c0          	movsbq %al,%rax
   1d50e:	8b 55 fc             	mov    -0x4(%rbp),%edx
   1d511:	48 8d 35 72 26 00 00 	lea    0x2672(%rip),%rsi        # 1fb8a <g_2423+0x1ada>
   1d518:	48 89 c7             	mov    %rax,%rdi
   1d51b:	e8 d3 c1 fe ff       	callq  96f3 <transparent_crc>
   1d520:	8b 05 72 5f 00 00    	mov    0x5f72(%rip),%eax        # 23498 <g_2168>
   1d526:	48 98                	cltq   
   1d528:	8b 55 fc             	mov    -0x4(%rbp),%edx
   1d52b:	48 8d 35 5f 26 00 00 	lea    0x265f(%rip),%rsi        # 1fb91 <g_2423+0x1ae1>
   1d532:	48 89 c7             	mov    %rax,%rdi
   1d535:	e8 b9 c1 fe ff       	callq  96f3 <transparent_crc>
   1d53a:	0f b7 05 57 5f 00 00 	movzwl 0x5f57(%rip),%eax        # 23498 <g_2168>
   1d541:	0f b7 c0             	movzwl %ax,%eax
   1d544:	8b 55 fc             	mov    -0x4(%rbp),%edx
   1d547:	48 8d 35 4d 26 00 00 	lea    0x264d(%rip),%rsi        # 1fb9b <g_2423+0x1aeb>
   1d54e:	48 89 c7             	mov    %rax,%rdi
   1d551:	e8 9d c1 fe ff       	callq  96f3 <transparent_crc>
   1d556:	8b 05 3c 5f 00 00    	mov    0x5f3c(%rip),%eax        # 23498 <g_2168>
   1d55c:	89 c1                	mov    %eax,%ecx
   1d55e:	8b 45 fc             	mov    -0x4(%rbp),%eax
   1d561:	89 c2                	mov    %eax,%edx
   1d563:	48 8d 35 3b 26 00 00 	lea    0x263b(%rip),%rsi        # 1fba5 <g_2423+0x1af5>
   1d56a:	48 89 cf             	mov    %rcx,%rdi
   1d56d:	e8 81 c1 fe ff       	callq  96f3 <transparent_crc>
   1d572:	8b 05 28 5f 00 00    	mov    0x5f28(%rip),%eax        # 234a0 <g_2173>
   1d578:	48 98                	cltq   
   1d57a:	8b 55 fc             	mov    -0x4(%rbp),%edx
   1d57d:	48 8d 35 2b 26 00 00 	lea    0x262b(%rip),%rsi        # 1fbaf <g_2423+0x1aff>
   1d584:	48 89 c7             	mov    %rax,%rdi
   1d587:	e8 67 c1 fe ff       	callq  96f3 <transparent_crc>
   1d58c:	0f b7 05 0d 5f 00 00 	movzwl 0x5f0d(%rip),%eax        # 234a0 <g_2173>
   1d593:	0f b7 c0             	movzwl %ax,%eax
   1d596:	8b 55 fc             	mov    -0x4(%rbp),%edx
   1d599:	48 8d 35 19 26 00 00 	lea    0x2619(%rip),%rsi        # 1fbb9 <g_2423+0x1b09>
   1d5a0:	48 89 c7             	mov    %rax,%rdi
   1d5a3:	e8 4b c1 fe ff       	callq  96f3 <transparent_crc>
   1d5a8:	8b 05 f2 5e 00 00    	mov    0x5ef2(%rip),%eax        # 234a0 <g_2173>
   1d5ae:	89 c1                	mov    %eax,%ecx
   1d5b0:	8b 45 fc             	mov    -0x4(%rbp),%eax
   1d5b3:	89 c2                	mov    %eax,%edx
   1d5b5:	48 8d 35 07 26 00 00 	lea    0x2607(%rip),%rsi        # 1fbc3 <g_2423+0x1b13>
   1d5bc:	48 89 cf             	mov    %rcx,%rdi
   1d5bf:	e8 2f c1 fe ff       	callq  96f3 <transparent_crc>
   1d5c4:	b8 ce ff ff ff       	mov    $0xffffffce,%eax
   1d5c9:	0f b6 c0             	movzbl %al,%eax
   1d5cc:	8b 55 fc             	mov    -0x4(%rbp),%edx
   1d5cf:	48 8d 35 f7 25 00 00 	lea    0x25f7(%rip),%rsi        # 1fbcd <g_2423+0x1b1d>
   1d5d6:	48 89 c7             	mov    %rax,%rdi
   1d5d9:	e8 15 c1 fe ff       	callq  96f3 <transparent_crc>
   1d5de:	0f b6 05 7b 0a 00 00 	movzbl 0xa7b(%rip),%eax        # 1e060 <g_2179>
   1d5e5:	48 0f be c0          	movsbq %al,%rax
   1d5e9:	8b 55 fc             	mov    -0x4(%rbp),%edx
   1d5ec:	48 8d 35 e4 25 00 00 	lea    0x25e4(%rip),%rsi        # 1fbd7 <g_2423+0x1b27>
   1d5f3:	48 89 c7             	mov    %rax,%rdi
   1d5f6:	e8 f8 c0 fe ff       	callq  96f3 <transparent_crc>
   1d5fb:	b8 01 00 00 00       	mov    $0x1,%eax
   1d600:	0f b6 c0             	movzbl %al,%eax
   1d603:	8b 55 fc             	mov    -0x4(%rbp),%edx
   1d606:	48 8d 35 d4 25 00 00 	lea    0x25d4(%rip),%rsi        # 1fbe1 <g_2423+0x1b31>
   1d60d:	48 89 c7             	mov    %rax,%rdi
   1d610:	e8 de c0 fe ff       	callq  96f3 <transparent_crc>
   1d615:	0f b6 05 4c 0a 00 00 	movzbl 0xa4c(%rip),%eax        # 1e068 <g_2182>
   1d61c:	48 0f be c0          	movsbq %al,%rax
   1d620:	8b 55 fc             	mov    -0x4(%rbp),%edx
   1d623:	48 8d 35 c1 25 00 00 	lea    0x25c1(%rip),%rsi        # 1fbeb <g_2423+0x1b3b>
   1d62a:	48 89 c7             	mov    %rax,%rdi
   1d62d:	e8 c1 c0 fe ff       	callq  96f3 <transparent_crc>
   1d632:	c7 45 f0 00 00 00 00 	movl   $0x0,-0x10(%rbp)
   1d639:	e9 a5 00 00 00       	jmpq   1d6e3 <main+0x117c>
   1d63e:	8b 45 f0             	mov    -0x10(%rbp),%eax
   1d641:	48 98                	cltq   
   1d643:	48 8d 14 c5 00 00 00 	lea    0x0(,%rax,8),%rdx
   1d64a:	00 
   1d64b:	48 8d 05 2e 0a 00 00 	lea    0xa2e(%rip),%rax        # 1e080 <g_2184>
   1d652:	8b 04 02             	mov    (%rdx,%rax,1),%eax
   1d655:	48 98                	cltq   
   1d657:	8b 55 fc             	mov    -0x4(%rbp),%edx
   1d65a:	48 8d 35 94 25 00 00 	lea    0x2594(%rip),%rsi        # 1fbf5 <g_2423+0x1b45>
   1d661:	48 89 c7             	mov    %rax,%rdi
   1d664:	e8 8a c0 fe ff       	callq  96f3 <transparent_crc>
   1d669:	8b 45 f0             	mov    -0x10(%rbp),%eax
   1d66c:	48 98                	cltq   
   1d66e:	48 8d 14 c5 00 00 00 	lea    0x0(,%rax,8),%rdx
   1d675:	00 
   1d676:	48 8d 05 03 0a 00 00 	lea    0xa03(%rip),%rax        # 1e080 <g_2184>
   1d67d:	0f b7 04 02          	movzwl (%rdx,%rax,1),%eax
   1d681:	0f b7 c0             	movzwl %ax,%eax
   1d684:	8b 55 fc             	mov    -0x4(%rbp),%edx
   1d687:	48 8d 35 74 25 00 00 	lea    0x2574(%rip),%rsi        # 1fc02 <g_2423+0x1b52>
   1d68e:	48 89 c7             	mov    %rax,%rdi
   1d691:	e8 5d c0 fe ff       	callq  96f3 <transparent_crc>
   1d696:	8b 45 f0             	mov    -0x10(%rbp),%eax
   1d699:	48 98                	cltq   
   1d69b:	48 8d 14 c5 00 00 00 	lea    0x0(,%rax,8),%rdx
   1d6a2:	00 
   1d6a3:	48 8d 05 d6 09 00 00 	lea    0x9d6(%rip),%rax        # 1e080 <g_2184>
   1d6aa:	8b 04 02             	mov    (%rdx,%rax,1),%eax
   1d6ad:	89 c1                	mov    %eax,%ecx
   1d6af:	8b 45 fc             	mov    -0x4(%rbp),%eax
   1d6b2:	89 c2                	mov    %eax,%edx
   1d6b4:	48 8d 35 54 25 00 00 	lea    0x2554(%rip),%rsi        # 1fc0f <g_2423+0x1b5f>
   1d6bb:	48 89 cf             	mov    %rcx,%rdi
   1d6be:	e8 30 c0 fe ff       	callq  96f3 <transparent_crc>
   1d6c3:	83 7d fc 00          	cmpl   $0x0,-0x4(%rbp)
   1d6c7:	74 16                	je     1d6df <main+0x1178>
   1d6c9:	8b 45 f0             	mov    -0x10(%rbp),%eax
   1d6cc:	89 c6                	mov    %eax,%esi
   1d6ce:	48 8d 3d 9d 21 00 00 	lea    0x219d(%rip),%rdi        # 1f872 <g_2423+0x17c2>
   1d6d5:	b8 00 00 00 00       	mov    $0x0,%eax
   1d6da:	e8 a1 a9 fe ff       	callq  8080 <printf@plt>
   1d6df:	83 45 f0 01          	addl   $0x1,-0x10(%rbp)
   1d6e3:	83 7d f0 05          	cmpl   $0x5,-0x10(%rbp)
   1d6e7:	0f 8e 51 ff ff ff    	jle    1d63e <main+0x10d7>
   1d6ed:	8b 05 b5 5d 00 00    	mov    0x5db5(%rip),%eax        # 234a8 <g_2229>
   1d6f3:	48 98                	cltq   
   1d6f5:	8b 55 fc             	mov    -0x4(%rbp),%edx
   1d6f8:	48 8d 35 1d 25 00 00 	lea    0x251d(%rip),%rsi        # 1fc1c <g_2423+0x1b6c>
   1d6ff:	48 89 c7             	mov    %rax,%rdi
   1d702:	e8 ec bf fe ff       	callq  96f3 <transparent_crc>
   1d707:	0f b6 05 9e 5d 00 00 	movzbl 0x5d9e(%rip),%eax        # 234ac <g_2301>
   1d70e:	0f b6 c0             	movzbl %al,%eax
   1d711:	8b 55 fc             	mov    -0x4(%rbp),%edx
   1d714:	48 8d 35 08 25 00 00 	lea    0x2508(%rip),%rsi        # 1fc23 <g_2423+0x1b73>
   1d71b:	48 89 c7             	mov    %rax,%rdi
   1d71e:	e8 d0 bf fe ff       	callq  96f3 <transparent_crc>
   1d723:	8b 05 87 5d 00 00    	mov    0x5d87(%rip),%eax        # 234b0 <g_2313>
   1d729:	48 98                	cltq   
   1d72b:	8b 55 fc             	mov    -0x4(%rbp),%edx
   1d72e:	48 8d 35 f5 24 00 00 	lea    0x24f5(%rip),%rsi        # 1fc2a <g_2423+0x1b7a>
   1d735:	48 89 c7             	mov    %rax,%rdi
   1d738:	e8 b6 bf fe ff       	callq  96f3 <transparent_crc>
   1d73d:	0f b7 05 6c 5d 00 00 	movzwl 0x5d6c(%rip),%eax        # 234b0 <g_2313>
   1d744:	0f b7 c0             	movzwl %ax,%eax
   1d747:	8b 55 fc             	mov    -0x4(%rbp),%edx
   1d74a:	48 8d 35 e3 24 00 00 	lea    0x24e3(%rip),%rsi        # 1fc34 <g_2423+0x1b84>
   1d751:	48 89 c7             	mov    %rax,%rdi
   1d754:	e8 9a bf fe ff       	callq  96f3 <transparent_crc>
   1d759:	8b 05 51 5d 00 00    	mov    0x5d51(%rip),%eax        # 234b0 <g_2313>
   1d75f:	89 c1                	mov    %eax,%ecx
   1d761:	8b 45 fc             	mov    -0x4(%rbp),%eax
   1d764:	89 c2                	mov    %eax,%edx
   1d766:	48 8d 35 d1 24 00 00 	lea    0x24d1(%rip),%rsi        # 1fc3e <g_2423+0x1b8e>
   1d76d:	48 89 cf             	mov    %rcx,%rdi
   1d770:	e8 7e bf fe ff       	callq  96f3 <transparent_crc>
   1d775:	0f b6 05 3c 5d 00 00 	movzbl 0x5d3c(%rip),%eax        # 234b8 <g_2398>
   1d77c:	0f b6 c0             	movzbl %al,%eax
   1d77f:	8b 55 fc             	mov    -0x4(%rbp),%edx
   1d782:	48 8d 35 bf 24 00 00 	lea    0x24bf(%rip),%rsi        # 1fc48 <g_2423+0x1b98>
   1d789:	48 89 c7             	mov    %rax,%rdi
   1d78c:	e8 62 bf fe ff       	callq  96f3 <transparent_crc>
   1d791:	0f b6 05 20 5d 00 00 	movzbl 0x5d20(%rip),%eax        # 234b8 <g_2398>
   1d798:	48 0f be c0          	movsbq %al,%rax
   1d79c:	8b 55 fc             	mov    -0x4(%rbp),%edx
   1d79f:	48 8d 35 ac 24 00 00 	lea    0x24ac(%rip),%rsi        # 1fc52 <g_2423+0x1ba2>
   1d7a6:	48 89 c7             	mov    %rax,%rdi
   1d7a9:	e8 45 bf fe ff       	callq  96f3 <transparent_crc>
   1d7ae:	b8 0e 68 c1 b6       	mov    $0xb6c1680e,%eax
   1d7b3:	89 c1                	mov    %eax,%ecx
   1d7b5:	8b 45 fc             	mov    -0x4(%rbp),%eax
   1d7b8:	89 c2                	mov    %eax,%edx
   1d7ba:	48 8d 35 9b 24 00 00 	lea    0x249b(%rip),%rsi        # 1fc5c <g_2423+0x1bac>
   1d7c1:	48 89 cf             	mov    %rcx,%rdi
   1d7c4:	e8 2a bf fe ff       	callq  96f3 <transparent_crc>
   1d7c9:	8b 05 51 58 00 00    	mov    0x5851(%rip),%eax        # 23020 <crc32_context>
   1d7cf:	f7 d0                	not    %eax
   1d7d1:	89 c2                	mov    %eax,%edx
   1d7d3:	8b 45 fc             	mov    -0x4(%rbp),%eax
   1d7d6:	89 c6                	mov    %eax,%esi
   1d7d8:	89 d7                	mov    %edx,%edi
   1d7da:	e8 b5 a9 fe ff       	callq  8194 <platform_main_end>
   1d7df:	b8 00 00 00 00       	mov    $0x0,%eax
   1d7e4:	c9                   	leaveq 
   1d7e5:	c3                   	retq   
   1d7e6:	66 2e 0f 1f 84 00 00 	nopw   %cs:0x0(%rax,%rax,1)
   1d7ed:	00 00 00 

000000000001d7f0 <__libc_csu_init>:
   1d7f0:	f3 0f 1e fa          	endbr64 
   1d7f4:	41 57                	push   %r15
   1d7f6:	4c 8d 3d 9b 55 00 00 	lea    0x559b(%rip),%r15        # 22d98 <__frame_dummy_init_array_entry>
   1d7fd:	41 56                	push   %r14
   1d7ff:	49 89 d6             	mov    %rdx,%r14
   1d802:	41 55                	push   %r13
   1d804:	49 89 f5             	mov    %rsi,%r13
   1d807:	41 54                	push   %r12
   1d809:	41 89 fc             	mov    %edi,%r12d
   1d80c:	55                   	push   %rbp
   1d80d:	48 8d 2d 8c 55 00 00 	lea    0x558c(%rip),%rbp        # 22da0 <__do_global_dtors_aux_fini_array_entry>
   1d814:	53                   	push   %rbx
   1d815:	4c 29 fd             	sub    %r15,%rbp
   1d818:	48 83 ec 08          	sub    $0x8,%rsp
   1d81c:	e8 df a7 fe ff       	callq  8000 <_init>
   1d821:	48 c1 fd 03          	sar    $0x3,%rbp
   1d825:	74 1f                	je     1d846 <__libc_csu_init+0x56>
   1d827:	31 db                	xor    %ebx,%ebx
   1d829:	0f 1f 80 00 00 00 00 	nopl   0x0(%rax)
   1d830:	4c 89 f2             	mov    %r14,%rdx
   1d833:	4c 89 ee             	mov    %r13,%rsi
   1d836:	44 89 e7             	mov    %r12d,%edi
   1d839:	41 ff 14 df          	callq  *(%r15,%rbx,8)
   1d83d:	48 83 c3 01          	add    $0x1,%rbx
   1d841:	48 39 dd             	cmp    %rbx,%rbp
   1d844:	75 ea                	jne    1d830 <__libc_csu_init+0x40>
   1d846:	48 83 c4 08          	add    $0x8,%rsp
   1d84a:	5b                   	pop    %rbx
   1d84b:	5d                   	pop    %rbp
   1d84c:	41 5c                	pop    %r12
   1d84e:	41 5d                	pop    %r13
   1d850:	41 5e                	pop    %r14
   1d852:	41 5f                	pop    %r15
   1d854:	c3                   	retq   
   1d855:	66 66 2e 0f 1f 84 00 	data16 nopw %cs:0x0(%rax,%rax,1)
   1d85c:	00 00 00 00 

000000000001d860 <__libc_csu_fini>:
   1d860:	f3 0f 1e fa          	endbr64 
   1d864:	c3                   	retq   
