


Disassembly of section .text:

00000000000050a0 <_start>:
    50a0:	f3 0f 1e fa          	endbr64 
    50a4:	31 ed                	xor    %ebp,%ebp
    50a6:	49 89 d1             	mov    %rdx,%r9
    50a9:	5e                   	pop    %rsi
    50aa:	48 89 e2             	mov    %rsp,%rdx
    50ad:	48 83 e4 f0          	and    $0xfffffffffffffff0,%rsp
    50b1:	50                   	push   %rax
    50b2:	54                   	push   %rsp
    50b3:	4c 8d 05 26 9f 00 00 	lea    0x9f26(%rip),%r8        # efe0 <__libc_csu_fini>
    50ba:	48 8d 0d af 9e 00 00 	lea    0x9eaf(%rip),%rcx        # ef70 <__libc_csu_init>
    50c1:	48 8d 3d b8 91 00 00 	lea    0x91b8(%rip),%rdi        # e280 <main>
    50c8:	ff 15 fa de 00 00    	callq  *0xdefa(%rip)        # 12fc8 <__libc_start_main@GLIBC_2.2.5>
    50ce:	f4                   	hlt    
    50cf:	90                   	nop

00000000000050d0 <deregister_tm_clones>:
    50d0:	48 8d 3d 51 fc 00 00 	lea    0xfc51(%rip),%rdi        # 14d28 <__TMC_END__>
    50d7:	48 8d 05 4a fc 00 00 	lea    0xfc4a(%rip),%rax        # 14d28 <__TMC_END__>
    50de:	48 39 f8             	cmp    %rdi,%rax
    50e1:	74 15                	je     50f8 <deregister_tm_clones+0x28>
    50e3:	48 8b 05 d6 de 00 00 	mov    0xded6(%rip),%rax        # 12fc0 <_ITM_deregisterTMCloneTable>
    50ea:	48 85 c0             	test   %rax,%rax
    50ed:	74 09                	je     50f8 <deregister_tm_clones+0x28>
    50ef:	ff e0                	jmpq   *%rax
    50f1:	0f 1f 80 00 00 00 00 	nopl   0x0(%rax)
    50f8:	c3                   	retq   
    50f9:	0f 1f 80 00 00 00 00 	nopl   0x0(%rax)

0000000000005100 <register_tm_clones>:
    5100:	48 8d 3d 21 fc 00 00 	lea    0xfc21(%rip),%rdi        # 14d28 <__TMC_END__>
    5107:	48 8d 35 1a fc 00 00 	lea    0xfc1a(%rip),%rsi        # 14d28 <__TMC_END__>
    510e:	48 29 fe             	sub    %rdi,%rsi
    5111:	48 89 f0             	mov    %rsi,%rax
    5114:	48 c1 ee 3f          	shr    $0x3f,%rsi
    5118:	48 c1 f8 03          	sar    $0x3,%rax
    511c:	48 01 c6             	add    %rax,%rsi
    511f:	48 d1 fe             	sar    %rsi
    5122:	74 14                	je     5138 <register_tm_clones+0x38>
    5124:	48 8b 05 ad de 00 00 	mov    0xdead(%rip),%rax        # 12fd8 <_ITM_registerTMCloneTable>
    512b:	48 85 c0             	test   %rax,%rax
    512e:	74 08                	je     5138 <register_tm_clones+0x38>
    5130:	ff e0                	jmpq   *%rax
    5132:	66 0f 1f 44 00 00    	nopw   0x0(%rax,%rax,1)
    5138:	c3                   	retq   
    5139:	0f 1f 80 00 00 00 00 	nopl   0x0(%rax)

0000000000005140 <__do_global_dtors_aux>:
    5140:	f3 0f 1e fa          	endbr64 
    5144:	80 3d f5 fb 00 00 00 	cmpb   $0x0,0xfbf5(%rip)        # 14d40 <completed.8061>
    514b:	75 2b                	jne    5178 <__do_global_dtors_aux+0x38>
    514d:	55                   	push   %rbp
    514e:	48 83 3d 8a de 00 00 	cmpq   $0x0,0xde8a(%rip)        # 12fe0 <__cxa_finalize@GLIBC_2.2.5>
    5155:	00 
    5156:	48 89 e5             	mov    %rsp,%rbp
    5159:	74 0c                	je     5167 <__do_global_dtors_aux+0x27>
    515b:	48 8b 3d a6 de 00 00 	mov    0xdea6(%rip),%rdi        # 13008 <__dso_handle>
    5162:	e8 f9 fe ff ff       	callq  5060 <__cxa_finalize@plt>
    5167:	e8 64 ff ff ff       	callq  50d0 <deregister_tm_clones>
    516c:	c6 05 cd fb 00 00 01 	movb   $0x1,0xfbcd(%rip)        # 14d40 <completed.8061>
    5173:	5d                   	pop    %rbp
    5174:	c3                   	retq   
    5175:	0f 1f 00             	nopl   (%rax)
    5178:	c3                   	retq   
    5179:	0f 1f 80 00 00 00 00 	nopl   0x0(%rax)

0000000000005180 <frame_dummy>:
    5180:	f3 0f 1e fa          	endbr64 
    5184:	e9 77 ff ff ff       	jmpq   5100 <register_tm_clones>

0000000000005189 <platform_main_begin>:
    5189:	f3 0f 1e fa          	endbr64 
    518d:	55                   	push   %rbp
    518e:	48 89 e5             	mov    %rsp,%rbp
    5191:	90                   	nop
    5192:	5d                   	pop    %rbp
    5193:	c3                   	retq   

0000000000005194 <platform_main_end>:
    5194:	f3 0f 1e fa          	endbr64 
    5198:	55                   	push   %rbp
    5199:	48 89 e5             	mov    %rsp,%rbp
    519c:	48 83 ec 10          	sub    $0x10,%rsp
    51a0:	89 7d fc             	mov    %edi,-0x4(%rbp)
    51a3:	89 75 f8             	mov    %esi,-0x8(%rbp)
    51a6:	8b 45 fc             	mov    -0x4(%rbp),%eax
    51a9:	89 c6                	mov    %eax,%esi
    51ab:	48 8d 3d 6e 9e 00 00 	lea    0x9e6e(%rip),%rdi        # f020 <_IO_stdin_used+0x20>
    51b2:	b8 00 00 00 00       	mov    $0x0,%eax
    51b7:	e8 c4 fe ff ff       	callq  5080 <printf@plt>
    51bc:	90                   	nop
    51bd:	c9                   	leaveq 
    51be:	c3                   	retq   

00000000000051bf <safe_unary_minus_func_int8_t_s>:
    51bf:	f3 0f 1e fa          	endbr64 
    51c3:	55                   	push   %rbp
    51c4:	48 89 e5             	mov    %rsp,%rbp
    51c7:	89 f8                	mov    %edi,%eax
    51c9:	88 45 fc             	mov    %al,-0x4(%rbp)
    51cc:	0f b6 45 fc          	movzbl -0x4(%rbp),%eax
    51d0:	f7 d8                	neg    %eax
    51d2:	5d                   	pop    %rbp
    51d3:	c3                   	retq   

00000000000051d4 <safe_add_func_int8_t_s_s>:
    51d4:	f3 0f 1e fa          	endbr64 
    51d8:	55                   	push   %rbp
    51d9:	48 89 e5             	mov    %rsp,%rbp
    51dc:	89 fa                	mov    %edi,%edx
    51de:	89 f0                	mov    %esi,%eax
    51e0:	88 55 fc             	mov    %dl,-0x4(%rbp)
    51e3:	88 45 f8             	mov    %al,-0x8(%rbp)
    51e6:	0f b6 55 fc          	movzbl -0x4(%rbp),%edx
    51ea:	0f b6 45 f8          	movzbl -0x8(%rbp),%eax
    51ee:	01 d0                	add    %edx,%eax
    51f0:	5d                   	pop    %rbp
    51f1:	c3                   	retq   

00000000000051f2 <safe_sub_func_int8_t_s_s>:
    51f2:	f3 0f 1e fa          	endbr64 
    51f6:	55                   	push   %rbp
    51f7:	48 89 e5             	mov    %rsp,%rbp
    51fa:	89 fa                	mov    %edi,%edx
    51fc:	89 f0                	mov    %esi,%eax
    51fe:	88 55 fc             	mov    %dl,-0x4(%rbp)
    5201:	88 45 f8             	mov    %al,-0x8(%rbp)
    5204:	0f b6 55 fc          	movzbl -0x4(%rbp),%edx
    5208:	0f b6 45 f8          	movzbl -0x8(%rbp),%eax
    520c:	29 c2                	sub    %eax,%edx
    520e:	89 d0                	mov    %edx,%eax
    5210:	5d                   	pop    %rbp
    5211:	c3                   	retq   

0000000000005212 <safe_mul_func_int8_t_s_s>:
    5212:	f3 0f 1e fa          	endbr64 
    5216:	55                   	push   %rbp
    5217:	48 89 e5             	mov    %rsp,%rbp
    521a:	89 fa                	mov    %edi,%edx
    521c:	89 f0                	mov    %esi,%eax
    521e:	88 55 fc             	mov    %dl,-0x4(%rbp)
    5221:	88 45 f8             	mov    %al,-0x8(%rbp)
    5224:	0f b6 45 fc          	movzbl -0x4(%rbp),%eax
    5228:	0f b6 55 f8          	movzbl -0x8(%rbp),%edx
    522c:	0f af c2             	imul   %edx,%eax
    522f:	5d                   	pop    %rbp
    5230:	c3                   	retq   

0000000000005231 <safe_mod_func_int8_t_s_s>:
    5231:	f3 0f 1e fa          	endbr64 
    5235:	55                   	push   %rbp
    5236:	48 89 e5             	mov    %rsp,%rbp
    5239:	89 fa                	mov    %edi,%edx
    523b:	89 f0                	mov    %esi,%eax
    523d:	88 55 fc             	mov    %dl,-0x4(%rbp)
    5240:	88 45 f8             	mov    %al,-0x8(%rbp)
    5243:	80 7d f8 00          	cmpb   $0x0,-0x8(%rbp)
    5247:	74 1b                	je     5264 <safe_mod_func_int8_t_s_s+0x33>
    5249:	80 7d fc 80          	cmpb   $0x80,-0x4(%rbp)
    524d:	75 06                	jne    5255 <safe_mod_func_int8_t_s_s+0x24>
    524f:	80 7d f8 ff          	cmpb   $0xff,-0x8(%rbp)
    5253:	74 0f                	je     5264 <safe_mod_func_int8_t_s_s+0x33>
    5255:	0f be 45 fc          	movsbl -0x4(%rbp),%eax
    5259:	0f be 4d f8          	movsbl -0x8(%rbp),%ecx
    525d:	99                   	cltd   
    525e:	f7 f9                	idiv   %ecx
    5260:	89 d0                	mov    %edx,%eax
    5262:	eb 04                	jmp    5268 <safe_mod_func_int8_t_s_s+0x37>
    5264:	0f b6 45 fc          	movzbl -0x4(%rbp),%eax
    5268:	5d                   	pop    %rbp
    5269:	c3                   	retq   

000000000000526a <safe_div_func_int8_t_s_s>:
    526a:	f3 0f 1e fa          	endbr64 
    526e:	55                   	push   %rbp
    526f:	48 89 e5             	mov    %rsp,%rbp
    5272:	89 fa                	mov    %edi,%edx
    5274:	89 f0                	mov    %esi,%eax
    5276:	88 55 fc             	mov    %dl,-0x4(%rbp)
    5279:	88 45 f8             	mov    %al,-0x8(%rbp)
    527c:	80 7d f8 00          	cmpb   $0x0,-0x8(%rbp)
    5280:	74 19                	je     529b <safe_div_func_int8_t_s_s+0x31>
    5282:	80 7d fc 80          	cmpb   $0x80,-0x4(%rbp)
    5286:	75 06                	jne    528e <safe_div_func_int8_t_s_s+0x24>
    5288:	80 7d f8 ff          	cmpb   $0xff,-0x8(%rbp)
    528c:	74 0d                	je     529b <safe_div_func_int8_t_s_s+0x31>
    528e:	0f be 45 fc          	movsbl -0x4(%rbp),%eax
    5292:	0f be 4d f8          	movsbl -0x8(%rbp),%ecx
    5296:	99                   	cltd   
    5297:	f7 f9                	idiv   %ecx
    5299:	eb 04                	jmp    529f <safe_div_func_int8_t_s_s+0x35>
    529b:	0f b6 45 fc          	movzbl -0x4(%rbp),%eax
    529f:	5d                   	pop    %rbp
    52a0:	c3                   	retq   

00000000000052a1 <safe_lshift_func_int8_t_s_s>:
    52a1:	f3 0f 1e fa          	endbr64 
    52a5:	55                   	push   %rbp
    52a6:	48 89 e5             	mov    %rsp,%rbp
    52a9:	89 f8                	mov    %edi,%eax
    52ab:	89 75 f8             	mov    %esi,-0x8(%rbp)
    52ae:	88 45 fc             	mov    %al,-0x4(%rbp)
    52b1:	80 7d fc 00          	cmpb   $0x0,-0x4(%rbp)
    52b5:	78 31                	js     52e8 <safe_lshift_func_int8_t_s_s+0x47>
    52b7:	83 7d f8 00          	cmpl   $0x0,-0x8(%rbp)
    52bb:	78 2b                	js     52e8 <safe_lshift_func_int8_t_s_s+0x47>
    52bd:	83 7d f8 1f          	cmpl   $0x1f,-0x8(%rbp)
    52c1:	7f 25                	jg     52e8 <safe_lshift_func_int8_t_s_s+0x47>
    52c3:	0f be 55 fc          	movsbl -0x4(%rbp),%edx
    52c7:	8b 45 f8             	mov    -0x8(%rbp),%eax
    52ca:	be 7f 00 00 00       	mov    $0x7f,%esi
    52cf:	89 c1                	mov    %eax,%ecx
    52d1:	d3 fe                	sar    %cl,%esi
    52d3:	89 f0                	mov    %esi,%eax
    52d5:	39 c2                	cmp    %eax,%edx
    52d7:	7f 0f                	jg     52e8 <safe_lshift_func_int8_t_s_s+0x47>
    52d9:	0f be 55 fc          	movsbl -0x4(%rbp),%edx
    52dd:	8b 45 f8             	mov    -0x8(%rbp),%eax
    52e0:	89 c1                	mov    %eax,%ecx
    52e2:	d3 e2                	shl    %cl,%edx
    52e4:	89 d0                	mov    %edx,%eax
    52e6:	eb 04                	jmp    52ec <safe_lshift_func_int8_t_s_s+0x4b>
    52e8:	0f b6 45 fc          	movzbl -0x4(%rbp),%eax
    52ec:	5d                   	pop    %rbp
    52ed:	c3                   	retq   

00000000000052ee <safe_lshift_func_int8_t_s_u>:
    52ee:	f3 0f 1e fa          	endbr64 
    52f2:	55                   	push   %rbp
    52f3:	48 89 e5             	mov    %rsp,%rbp
    52f6:	89 f8                	mov    %edi,%eax
    52f8:	89 75 f8             	mov    %esi,-0x8(%rbp)
    52fb:	88 45 fc             	mov    %al,-0x4(%rbp)
    52fe:	80 7d fc 00          	cmpb   $0x0,-0x4(%rbp)
    5302:	78 2b                	js     532f <safe_lshift_func_int8_t_s_u+0x41>
    5304:	83 7d f8 1f          	cmpl   $0x1f,-0x8(%rbp)
    5308:	77 25                	ja     532f <safe_lshift_func_int8_t_s_u+0x41>
    530a:	0f be 55 fc          	movsbl -0x4(%rbp),%edx
    530e:	8b 45 f8             	mov    -0x8(%rbp),%eax
    5311:	be 7f 00 00 00       	mov    $0x7f,%esi
    5316:	89 c1                	mov    %eax,%ecx
    5318:	d3 fe                	sar    %cl,%esi
    531a:	89 f0                	mov    %esi,%eax
    531c:	39 c2                	cmp    %eax,%edx
    531e:	7f 0f                	jg     532f <safe_lshift_func_int8_t_s_u+0x41>
    5320:	0f be 55 fc          	movsbl -0x4(%rbp),%edx
    5324:	8b 45 f8             	mov    -0x8(%rbp),%eax
    5327:	89 c1                	mov    %eax,%ecx
    5329:	d3 e2                	shl    %cl,%edx
    532b:	89 d0                	mov    %edx,%eax
    532d:	eb 04                	jmp    5333 <safe_lshift_func_int8_t_s_u+0x45>
    532f:	0f b6 45 fc          	movzbl -0x4(%rbp),%eax
    5333:	5d                   	pop    %rbp
    5334:	c3                   	retq   

0000000000005335 <safe_rshift_func_int8_t_s_s>:
    5335:	f3 0f 1e fa          	endbr64 
    5339:	55                   	push   %rbp
    533a:	48 89 e5             	mov    %rsp,%rbp
    533d:	89 f8                	mov    %edi,%eax
    533f:	89 75 f8             	mov    %esi,-0x8(%rbp)
    5342:	88 45 fc             	mov    %al,-0x4(%rbp)
    5345:	80 7d fc 00          	cmpb   $0x0,-0x4(%rbp)
    5349:	78 1b                	js     5366 <safe_rshift_func_int8_t_s_s+0x31>
    534b:	83 7d f8 00          	cmpl   $0x0,-0x8(%rbp)
    534f:	78 15                	js     5366 <safe_rshift_func_int8_t_s_s+0x31>
    5351:	83 7d f8 1f          	cmpl   $0x1f,-0x8(%rbp)
    5355:	7f 0f                	jg     5366 <safe_rshift_func_int8_t_s_s+0x31>
    5357:	0f be 55 fc          	movsbl -0x4(%rbp),%edx
    535b:	8b 45 f8             	mov    -0x8(%rbp),%eax
    535e:	89 c1                	mov    %eax,%ecx
    5360:	d3 fa                	sar    %cl,%edx
    5362:	89 d0                	mov    %edx,%eax
    5364:	eb 04                	jmp    536a <safe_rshift_func_int8_t_s_s+0x35>
    5366:	0f b6 45 fc          	movzbl -0x4(%rbp),%eax
    536a:	5d                   	pop    %rbp
    536b:	c3                   	retq   

000000000000536c <safe_rshift_func_int8_t_s_u>:
    536c:	f3 0f 1e fa          	endbr64 
    5370:	55                   	push   %rbp
    5371:	48 89 e5             	mov    %rsp,%rbp
    5374:	89 f8                	mov    %edi,%eax
    5376:	89 75 f8             	mov    %esi,-0x8(%rbp)
    5379:	88 45 fc             	mov    %al,-0x4(%rbp)
    537c:	80 7d fc 00          	cmpb   $0x0,-0x4(%rbp)
    5380:	78 15                	js     5397 <safe_rshift_func_int8_t_s_u+0x2b>
    5382:	83 7d f8 1f          	cmpl   $0x1f,-0x8(%rbp)
    5386:	77 0f                	ja     5397 <safe_rshift_func_int8_t_s_u+0x2b>
    5388:	0f be 55 fc          	movsbl -0x4(%rbp),%edx
    538c:	8b 45 f8             	mov    -0x8(%rbp),%eax
    538f:	89 c1                	mov    %eax,%ecx
    5391:	d3 fa                	sar    %cl,%edx
    5393:	89 d0                	mov    %edx,%eax
    5395:	eb 04                	jmp    539b <safe_rshift_func_int8_t_s_u+0x2f>
    5397:	0f b6 45 fc          	movzbl -0x4(%rbp),%eax
    539b:	5d                   	pop    %rbp
    539c:	c3                   	retq   

000000000000539d <safe_unary_minus_func_int16_t_s>:
    539d:	f3 0f 1e fa          	endbr64 
    53a1:	55                   	push   %rbp
    53a2:	48 89 e5             	mov    %rsp,%rbp
    53a5:	89 f8                	mov    %edi,%eax
    53a7:	66 89 45 fc          	mov    %ax,-0x4(%rbp)
    53ab:	0f b7 45 fc          	movzwl -0x4(%rbp),%eax
    53af:	f7 d8                	neg    %eax
    53b1:	5d                   	pop    %rbp
    53b2:	c3                   	retq   

00000000000053b3 <safe_add_func_int16_t_s_s>:
    53b3:	f3 0f 1e fa          	endbr64 
    53b7:	55                   	push   %rbp
    53b8:	48 89 e5             	mov    %rsp,%rbp
    53bb:	89 fa                	mov    %edi,%edx
    53bd:	89 f0                	mov    %esi,%eax
    53bf:	66 89 55 fc          	mov    %dx,-0x4(%rbp)
    53c3:	66 89 45 f8          	mov    %ax,-0x8(%rbp)
    53c7:	0f b7 55 fc          	movzwl -0x4(%rbp),%edx
    53cb:	0f b7 45 f8          	movzwl -0x8(%rbp),%eax
    53cf:	01 d0                	add    %edx,%eax
    53d1:	5d                   	pop    %rbp
    53d2:	c3                   	retq   

00000000000053d3 <safe_sub_func_int16_t_s_s>:
    53d3:	f3 0f 1e fa          	endbr64 
    53d7:	55                   	push   %rbp
    53d8:	48 89 e5             	mov    %rsp,%rbp
    53db:	89 fa                	mov    %edi,%edx
    53dd:	89 f0                	mov    %esi,%eax
    53df:	66 89 55 fc          	mov    %dx,-0x4(%rbp)
    53e3:	66 89 45 f8          	mov    %ax,-0x8(%rbp)
    53e7:	0f b7 55 fc          	movzwl -0x4(%rbp),%edx
    53eb:	0f b7 45 f8          	movzwl -0x8(%rbp),%eax
    53ef:	29 c2                	sub    %eax,%edx
    53f1:	89 d0                	mov    %edx,%eax
    53f3:	5d                   	pop    %rbp
    53f4:	c3                   	retq   

00000000000053f5 <safe_mul_func_int16_t_s_s>:
    53f5:	f3 0f 1e fa          	endbr64 
    53f9:	55                   	push   %rbp
    53fa:	48 89 e5             	mov    %rsp,%rbp
    53fd:	89 fa                	mov    %edi,%edx
    53ff:	89 f0                	mov    %esi,%eax
    5401:	66 89 55 fc          	mov    %dx,-0x4(%rbp)
    5405:	66 89 45 f8          	mov    %ax,-0x8(%rbp)
    5409:	0f b7 55 fc          	movzwl -0x4(%rbp),%edx
    540d:	0f b7 45 f8          	movzwl -0x8(%rbp),%eax
    5411:	0f af c2             	imul   %edx,%eax
    5414:	5d                   	pop    %rbp
    5415:	c3                   	retq   

0000000000005416 <safe_mod_func_int16_t_s_s>:
    5416:	f3 0f 1e fa          	endbr64 
    541a:	55                   	push   %rbp
    541b:	48 89 e5             	mov    %rsp,%rbp
    541e:	89 fa                	mov    %edi,%edx
    5420:	89 f0                	mov    %esi,%eax
    5422:	66 89 55 fc          	mov    %dx,-0x4(%rbp)
    5426:	66 89 45 f8          	mov    %ax,-0x8(%rbp)
    542a:	66 83 7d f8 00       	cmpw   $0x0,-0x8(%rbp)
    542f:	74 1e                	je     544f <safe_mod_func_int16_t_s_s+0x39>
    5431:	66 81 7d fc 00 80    	cmpw   $0x8000,-0x4(%rbp)
    5437:	75 07                	jne    5440 <safe_mod_func_int16_t_s_s+0x2a>
    5439:	66 83 7d f8 ff       	cmpw   $0xffff,-0x8(%rbp)
    543e:	74 0f                	je     544f <safe_mod_func_int16_t_s_s+0x39>
    5440:	0f bf 45 fc          	movswl -0x4(%rbp),%eax
    5444:	0f bf 4d f8          	movswl -0x8(%rbp),%ecx
    5448:	99                   	cltd   
    5449:	f7 f9                	idiv   %ecx
    544b:	89 d0                	mov    %edx,%eax
    544d:	eb 04                	jmp    5453 <safe_mod_func_int16_t_s_s+0x3d>
    544f:	0f b7 45 fc          	movzwl -0x4(%rbp),%eax
    5453:	5d                   	pop    %rbp
    5454:	c3                   	retq   

0000000000005455 <safe_div_func_int16_t_s_s>:
    5455:	f3 0f 1e fa          	endbr64 
    5459:	55                   	push   %rbp
    545a:	48 89 e5             	mov    %rsp,%rbp
    545d:	89 fa                	mov    %edi,%edx
    545f:	89 f0                	mov    %esi,%eax
    5461:	66 89 55 fc          	mov    %dx,-0x4(%rbp)
    5465:	66 89 45 f8          	mov    %ax,-0x8(%rbp)
    5469:	66 83 7d f8 00       	cmpw   $0x0,-0x8(%rbp)
    546e:	74 1c                	je     548c <safe_div_func_int16_t_s_s+0x37>
    5470:	66 81 7d fc 00 80    	cmpw   $0x8000,-0x4(%rbp)
    5476:	75 07                	jne    547f <safe_div_func_int16_t_s_s+0x2a>
    5478:	66 83 7d f8 ff       	cmpw   $0xffff,-0x8(%rbp)
    547d:	74 0d                	je     548c <safe_div_func_int16_t_s_s+0x37>
    547f:	0f bf 45 fc          	movswl -0x4(%rbp),%eax
    5483:	0f bf 4d f8          	movswl -0x8(%rbp),%ecx
    5487:	99                   	cltd   
    5488:	f7 f9                	idiv   %ecx
    548a:	eb 04                	jmp    5490 <safe_div_func_int16_t_s_s+0x3b>
    548c:	0f b7 45 fc          	movzwl -0x4(%rbp),%eax
    5490:	5d                   	pop    %rbp
    5491:	c3                   	retq   

0000000000005492 <safe_lshift_func_int16_t_s_s>:
    5492:	f3 0f 1e fa          	endbr64 
    5496:	55                   	push   %rbp
    5497:	48 89 e5             	mov    %rsp,%rbp
    549a:	89 f8                	mov    %edi,%eax
    549c:	89 75 f8             	mov    %esi,-0x8(%rbp)
    549f:	66 89 45 fc          	mov    %ax,-0x4(%rbp)
    54a3:	66 83 7d fc 00       	cmpw   $0x0,-0x4(%rbp)
    54a8:	78 31                	js     54db <safe_lshift_func_int16_t_s_s+0x49>
    54aa:	83 7d f8 00          	cmpl   $0x0,-0x8(%rbp)
    54ae:	78 2b                	js     54db <safe_lshift_func_int16_t_s_s+0x49>
    54b0:	83 7d f8 1f          	cmpl   $0x1f,-0x8(%rbp)
    54b4:	7f 25                	jg     54db <safe_lshift_func_int16_t_s_s+0x49>
    54b6:	0f bf 55 fc          	movswl -0x4(%rbp),%edx
    54ba:	8b 45 f8             	mov    -0x8(%rbp),%eax
    54bd:	be ff 7f 00 00       	mov    $0x7fff,%esi
    54c2:	89 c1                	mov    %eax,%ecx
    54c4:	d3 fe                	sar    %cl,%esi
    54c6:	89 f0                	mov    %esi,%eax
    54c8:	39 c2                	cmp    %eax,%edx
    54ca:	7f 0f                	jg     54db <safe_lshift_func_int16_t_s_s+0x49>
    54cc:	0f bf 55 fc          	movswl -0x4(%rbp),%edx
    54d0:	8b 45 f8             	mov    -0x8(%rbp),%eax
    54d3:	89 c1                	mov    %eax,%ecx
    54d5:	d3 e2                	shl    %cl,%edx
    54d7:	89 d0                	mov    %edx,%eax
    54d9:	eb 04                	jmp    54df <safe_lshift_func_int16_t_s_s+0x4d>
    54db:	0f b7 45 fc          	movzwl -0x4(%rbp),%eax
    54df:	5d                   	pop    %rbp
    54e0:	c3                   	retq   

00000000000054e1 <safe_lshift_func_int16_t_s_u>:
    54e1:	f3 0f 1e fa          	endbr64 
    54e5:	55                   	push   %rbp
    54e6:	48 89 e5             	mov    %rsp,%rbp
    54e9:	89 f8                	mov    %edi,%eax
    54eb:	89 75 f8             	mov    %esi,-0x8(%rbp)
    54ee:	66 89 45 fc          	mov    %ax,-0x4(%rbp)
    54f2:	66 83 7d fc 00       	cmpw   $0x0,-0x4(%rbp)
    54f7:	78 2b                	js     5524 <safe_lshift_func_int16_t_s_u+0x43>
    54f9:	83 7d f8 1f          	cmpl   $0x1f,-0x8(%rbp)
    54fd:	77 25                	ja     5524 <safe_lshift_func_int16_t_s_u+0x43>
    54ff:	0f bf 55 fc          	movswl -0x4(%rbp),%edx
    5503:	8b 45 f8             	mov    -0x8(%rbp),%eax
    5506:	be ff 7f 00 00       	mov    $0x7fff,%esi
    550b:	89 c1                	mov    %eax,%ecx
    550d:	d3 fe                	sar    %cl,%esi
    550f:	89 f0                	mov    %esi,%eax
    5511:	39 c2                	cmp    %eax,%edx
    5513:	7f 0f                	jg     5524 <safe_lshift_func_int16_t_s_u+0x43>
    5515:	0f bf 55 fc          	movswl -0x4(%rbp),%edx
    5519:	8b 45 f8             	mov    -0x8(%rbp),%eax
    551c:	89 c1                	mov    %eax,%ecx
    551e:	d3 e2                	shl    %cl,%edx
    5520:	89 d0                	mov    %edx,%eax
    5522:	eb 04                	jmp    5528 <safe_lshift_func_int16_t_s_u+0x47>
    5524:	0f b7 45 fc          	movzwl -0x4(%rbp),%eax
    5528:	5d                   	pop    %rbp
    5529:	c3                   	retq   

000000000000552a <safe_rshift_func_int16_t_s_s>:
    552a:	f3 0f 1e fa          	endbr64 
    552e:	55                   	push   %rbp
    552f:	48 89 e5             	mov    %rsp,%rbp
    5532:	89 f8                	mov    %edi,%eax
    5534:	89 75 f8             	mov    %esi,-0x8(%rbp)
    5537:	66 89 45 fc          	mov    %ax,-0x4(%rbp)
    553b:	66 83 7d fc 00       	cmpw   $0x0,-0x4(%rbp)
    5540:	78 1b                	js     555d <safe_rshift_func_int16_t_s_s+0x33>
    5542:	83 7d f8 00          	cmpl   $0x0,-0x8(%rbp)
    5546:	78 15                	js     555d <safe_rshift_func_int16_t_s_s+0x33>
    5548:	83 7d f8 1f          	cmpl   $0x1f,-0x8(%rbp)
    554c:	7f 0f                	jg     555d <safe_rshift_func_int16_t_s_s+0x33>
    554e:	0f bf 55 fc          	movswl -0x4(%rbp),%edx
    5552:	8b 45 f8             	mov    -0x8(%rbp),%eax
    5555:	89 c1                	mov    %eax,%ecx
    5557:	d3 fa                	sar    %cl,%edx
    5559:	89 d0                	mov    %edx,%eax
    555b:	eb 04                	jmp    5561 <safe_rshift_func_int16_t_s_s+0x37>
    555d:	0f b7 45 fc          	movzwl -0x4(%rbp),%eax
    5561:	5d                   	pop    %rbp
    5562:	c3                   	retq   

0000000000005563 <safe_rshift_func_int16_t_s_u>:
    5563:	f3 0f 1e fa          	endbr64 
    5567:	55                   	push   %rbp
    5568:	48 89 e5             	mov    %rsp,%rbp
    556b:	89 f8                	mov    %edi,%eax
    556d:	89 75 f8             	mov    %esi,-0x8(%rbp)
    5570:	66 89 45 fc          	mov    %ax,-0x4(%rbp)
    5574:	66 83 7d fc 00       	cmpw   $0x0,-0x4(%rbp)
    5579:	78 15                	js     5590 <safe_rshift_func_int16_t_s_u+0x2d>
    557b:	83 7d f8 1f          	cmpl   $0x1f,-0x8(%rbp)
    557f:	77 0f                	ja     5590 <safe_rshift_func_int16_t_s_u+0x2d>
    5581:	0f bf 55 fc          	movswl -0x4(%rbp),%edx
    5585:	8b 45 f8             	mov    -0x8(%rbp),%eax
    5588:	89 c1                	mov    %eax,%ecx
    558a:	d3 fa                	sar    %cl,%edx
    558c:	89 d0                	mov    %edx,%eax
    558e:	eb 04                	jmp    5594 <safe_rshift_func_int16_t_s_u+0x31>
    5590:	0f b7 45 fc          	movzwl -0x4(%rbp),%eax
    5594:	5d                   	pop    %rbp
    5595:	c3                   	retq   

0000000000005596 <safe_unary_minus_func_int32_t_s>:
    5596:	f3 0f 1e fa          	endbr64 
    559a:	55                   	push   %rbp
    559b:	48 89 e5             	mov    %rsp,%rbp
    559e:	89 7d fc             	mov    %edi,-0x4(%rbp)
    55a1:	81 7d fc 00 00 00 80 	cmpl   $0x80000000,-0x4(%rbp)
    55a8:	74 07                	je     55b1 <safe_unary_minus_func_int32_t_s+0x1b>
    55aa:	8b 45 fc             	mov    -0x4(%rbp),%eax
    55ad:	f7 d8                	neg    %eax
    55af:	eb 03                	jmp    55b4 <safe_unary_minus_func_int32_t_s+0x1e>
    55b1:	8b 45 fc             	mov    -0x4(%rbp),%eax
    55b4:	5d                   	pop    %rbp
    55b5:	c3                   	retq   

00000000000055b6 <safe_add_func_int32_t_s_s>:
    55b6:	f3 0f 1e fa          	endbr64 
    55ba:	55                   	push   %rbp
    55bb:	48 89 e5             	mov    %rsp,%rbp
    55be:	89 7d fc             	mov    %edi,-0x4(%rbp)
    55c1:	89 75 f8             	mov    %esi,-0x8(%rbp)
    55c4:	83 7d fc 00          	cmpl   $0x0,-0x4(%rbp)
    55c8:	7e 13                	jle    55dd <safe_add_func_int32_t_s_s+0x27>
    55ca:	83 7d f8 00          	cmpl   $0x0,-0x8(%rbp)
    55ce:	7e 0d                	jle    55dd <safe_add_func_int32_t_s_s+0x27>
    55d0:	b8 ff ff ff 7f       	mov    $0x7fffffff,%eax
    55d5:	2b 45 f8             	sub    -0x8(%rbp),%eax
    55d8:	39 45 fc             	cmp    %eax,-0x4(%rbp)
    55db:	7f 23                	jg     5600 <safe_add_func_int32_t_s_s+0x4a>
    55dd:	83 7d fc 00          	cmpl   $0x0,-0x4(%rbp)
    55e1:	79 13                	jns    55f6 <safe_add_func_int32_t_s_s+0x40>
    55e3:	83 7d f8 00          	cmpl   $0x0,-0x8(%rbp)
    55e7:	79 0d                	jns    55f6 <safe_add_func_int32_t_s_s+0x40>
    55e9:	b8 00 00 00 80       	mov    $0x80000000,%eax
    55ee:	2b 45 f8             	sub    -0x8(%rbp),%eax
    55f1:	39 45 fc             	cmp    %eax,-0x4(%rbp)
    55f4:	7c 0a                	jl     5600 <safe_add_func_int32_t_s_s+0x4a>
    55f6:	8b 55 fc             	mov    -0x4(%rbp),%edx
    55f9:	8b 45 f8             	mov    -0x8(%rbp),%eax
    55fc:	01 d0                	add    %edx,%eax
    55fe:	eb 03                	jmp    5603 <safe_add_func_int32_t_s_s+0x4d>
    5600:	8b 45 fc             	mov    -0x4(%rbp),%eax
    5603:	5d                   	pop    %rbp
    5604:	c3                   	retq   

0000000000005605 <safe_sub_func_int32_t_s_s>:
    5605:	f3 0f 1e fa          	endbr64 
    5609:	55                   	push   %rbp
    560a:	48 89 e5             	mov    %rsp,%rbp
    560d:	89 7d fc             	mov    %edi,-0x4(%rbp)
    5610:	89 75 f8             	mov    %esi,-0x8(%rbp)
    5613:	8b 45 fc             	mov    -0x4(%rbp),%eax
    5616:	33 45 f8             	xor    -0x8(%rbp),%eax
    5619:	89 c2                	mov    %eax,%edx
    561b:	8b 45 fc             	mov    -0x4(%rbp),%eax
    561e:	33 45 f8             	xor    -0x8(%rbp),%eax
    5621:	25 00 00 00 80       	and    $0x80000000,%eax
    5626:	33 45 fc             	xor    -0x4(%rbp),%eax
    5629:	2b 45 f8             	sub    -0x8(%rbp),%eax
    562c:	33 45 f8             	xor    -0x8(%rbp),%eax
    562f:	21 d0                	and    %edx,%eax
    5631:	85 c0                	test   %eax,%eax
    5633:	78 08                	js     563d <safe_sub_func_int32_t_s_s+0x38>
    5635:	8b 45 fc             	mov    -0x4(%rbp),%eax
    5638:	2b 45 f8             	sub    -0x8(%rbp),%eax
    563b:	eb 03                	jmp    5640 <safe_sub_func_int32_t_s_s+0x3b>
    563d:	8b 45 fc             	mov    -0x4(%rbp),%eax
    5640:	5d                   	pop    %rbp
    5641:	c3                   	retq   

0000000000005642 <safe_mul_func_int32_t_s_s>:
    5642:	f3 0f 1e fa          	endbr64 
    5646:	55                   	push   %rbp
    5647:	48 89 e5             	mov    %rsp,%rbp
    564a:	89 7d fc             	mov    %edi,-0x4(%rbp)
    564d:	89 75 f8             	mov    %esi,-0x8(%rbp)
    5650:	83 7d fc 00          	cmpl   $0x0,-0x4(%rbp)
    5654:	7e 14                	jle    566a <safe_mul_func_int32_t_s_s+0x28>
    5656:	83 7d f8 00          	cmpl   $0x0,-0x8(%rbp)
    565a:	7e 0e                	jle    566a <safe_mul_func_int32_t_s_s+0x28>
    565c:	b8 ff ff ff 7f       	mov    $0x7fffffff,%eax
    5661:	99                   	cltd   
    5662:	f7 7d f8             	idivl  -0x8(%rbp)
    5665:	39 45 fc             	cmp    %eax,-0x4(%rbp)
    5668:	7f 5d                	jg     56c7 <safe_mul_func_int32_t_s_s+0x85>
    566a:	83 7d fc 00          	cmpl   $0x0,-0x4(%rbp)
    566e:	7e 14                	jle    5684 <safe_mul_func_int32_t_s_s+0x42>
    5670:	83 7d f8 00          	cmpl   $0x0,-0x8(%rbp)
    5674:	7f 0e                	jg     5684 <safe_mul_func_int32_t_s_s+0x42>
    5676:	b8 00 00 00 80       	mov    $0x80000000,%eax
    567b:	99                   	cltd   
    567c:	f7 7d fc             	idivl  -0x4(%rbp)
    567f:	39 45 f8             	cmp    %eax,-0x8(%rbp)
    5682:	7c 43                	jl     56c7 <safe_mul_func_int32_t_s_s+0x85>
    5684:	83 7d fc 00          	cmpl   $0x0,-0x4(%rbp)
    5688:	7f 14                	jg     569e <safe_mul_func_int32_t_s_s+0x5c>
    568a:	83 7d f8 00          	cmpl   $0x0,-0x8(%rbp)
    568e:	7e 0e                	jle    569e <safe_mul_func_int32_t_s_s+0x5c>
    5690:	b8 00 00 00 80       	mov    $0x80000000,%eax
    5695:	99                   	cltd   
    5696:	f7 7d f8             	idivl  -0x8(%rbp)
    5699:	39 45 fc             	cmp    %eax,-0x4(%rbp)
    569c:	7c 29                	jl     56c7 <safe_mul_func_int32_t_s_s+0x85>
    569e:	83 7d fc 00          	cmpl   $0x0,-0x4(%rbp)
    56a2:	7f 1a                	jg     56be <safe_mul_func_int32_t_s_s+0x7c>
    56a4:	83 7d f8 00          	cmpl   $0x0,-0x8(%rbp)
    56a8:	7f 14                	jg     56be <safe_mul_func_int32_t_s_s+0x7c>
    56aa:	83 7d fc 00          	cmpl   $0x0,-0x4(%rbp)
    56ae:	74 0e                	je     56be <safe_mul_func_int32_t_s_s+0x7c>
    56b0:	b8 ff ff ff 7f       	mov    $0x7fffffff,%eax
    56b5:	99                   	cltd   
    56b6:	f7 7d fc             	idivl  -0x4(%rbp)
    56b9:	39 45 f8             	cmp    %eax,-0x8(%rbp)
    56bc:	7c 09                	jl     56c7 <safe_mul_func_int32_t_s_s+0x85>
    56be:	8b 45 fc             	mov    -0x4(%rbp),%eax
    56c1:	0f af 45 f8          	imul   -0x8(%rbp),%eax
    56c5:	eb 03                	jmp    56ca <safe_mul_func_int32_t_s_s+0x88>
    56c7:	8b 45 fc             	mov    -0x4(%rbp),%eax
    56ca:	5d                   	pop    %rbp
    56cb:	c3                   	retq   

00000000000056cc <safe_mod_func_int32_t_s_s>:
    56cc:	f3 0f 1e fa          	endbr64 
    56d0:	55                   	push   %rbp
    56d1:	48 89 e5             	mov    %rsp,%rbp
    56d4:	89 7d fc             	mov    %edi,-0x4(%rbp)
    56d7:	89 75 f8             	mov    %esi,-0x8(%rbp)
    56da:	83 7d f8 00          	cmpl   $0x0,-0x8(%rbp)
    56de:	74 1a                	je     56fa <safe_mod_func_int32_t_s_s+0x2e>
    56e0:	81 7d fc 00 00 00 80 	cmpl   $0x80000000,-0x4(%rbp)
    56e7:	75 06                	jne    56ef <safe_mod_func_int32_t_s_s+0x23>
    56e9:	83 7d f8 ff          	cmpl   $0xffffffff,-0x8(%rbp)
    56ed:	74 0b                	je     56fa <safe_mod_func_int32_t_s_s+0x2e>
    56ef:	8b 45 fc             	mov    -0x4(%rbp),%eax
    56f2:	99                   	cltd   
    56f3:	f7 7d f8             	idivl  -0x8(%rbp)
    56f6:	89 d0                	mov    %edx,%eax
    56f8:	eb 03                	jmp    56fd <safe_mod_func_int32_t_s_s+0x31>
    56fa:	8b 45 fc             	mov    -0x4(%rbp),%eax
    56fd:	5d                   	pop    %rbp
    56fe:	c3                   	retq   

00000000000056ff <safe_div_func_int32_t_s_s>:
    56ff:	f3 0f 1e fa          	endbr64 
    5703:	55                   	push   %rbp
    5704:	48 89 e5             	mov    %rsp,%rbp
    5707:	89 7d fc             	mov    %edi,-0x4(%rbp)
    570a:	89 75 f8             	mov    %esi,-0x8(%rbp)
    570d:	83 7d f8 00          	cmpl   $0x0,-0x8(%rbp)
    5711:	74 18                	je     572b <safe_div_func_int32_t_s_s+0x2c>
    5713:	81 7d fc 00 00 00 80 	cmpl   $0x80000000,-0x4(%rbp)
    571a:	75 06                	jne    5722 <safe_div_func_int32_t_s_s+0x23>
    571c:	83 7d f8 ff          	cmpl   $0xffffffff,-0x8(%rbp)
    5720:	74 09                	je     572b <safe_div_func_int32_t_s_s+0x2c>
    5722:	8b 45 fc             	mov    -0x4(%rbp),%eax
    5725:	99                   	cltd   
    5726:	f7 7d f8             	idivl  -0x8(%rbp)
    5729:	eb 03                	jmp    572e <safe_div_func_int32_t_s_s+0x2f>
    572b:	8b 45 fc             	mov    -0x4(%rbp),%eax
    572e:	5d                   	pop    %rbp
    572f:	c3                   	retq   

0000000000005730 <safe_lshift_func_int32_t_s_s>:
    5730:	f3 0f 1e fa          	endbr64 
    5734:	55                   	push   %rbp
    5735:	48 89 e5             	mov    %rsp,%rbp
    5738:	89 7d fc             	mov    %edi,-0x4(%rbp)
    573b:	89 75 f8             	mov    %esi,-0x8(%rbp)
    573e:	83 7d fc 00          	cmpl   $0x0,-0x4(%rbp)
    5742:	78 2d                	js     5771 <safe_lshift_func_int32_t_s_s+0x41>
    5744:	83 7d f8 00          	cmpl   $0x0,-0x8(%rbp)
    5748:	78 27                	js     5771 <safe_lshift_func_int32_t_s_s+0x41>
    574a:	83 7d f8 1f          	cmpl   $0x1f,-0x8(%rbp)
    574e:	7f 21                	jg     5771 <safe_lshift_func_int32_t_s_s+0x41>
    5750:	8b 45 f8             	mov    -0x8(%rbp),%eax
    5753:	ba ff ff ff 7f       	mov    $0x7fffffff,%edx
    5758:	89 c1                	mov    %eax,%ecx
    575a:	d3 fa                	sar    %cl,%edx
    575c:	89 d0                	mov    %edx,%eax
    575e:	39 45 fc             	cmp    %eax,-0x4(%rbp)
    5761:	7f 0e                	jg     5771 <safe_lshift_func_int32_t_s_s+0x41>
    5763:	8b 45 f8             	mov    -0x8(%rbp),%eax
    5766:	8b 55 fc             	mov    -0x4(%rbp),%edx
    5769:	89 c1                	mov    %eax,%ecx
    576b:	d3 e2                	shl    %cl,%edx
    576d:	89 d0                	mov    %edx,%eax
    576f:	eb 03                	jmp    5774 <safe_lshift_func_int32_t_s_s+0x44>
    5771:	8b 45 fc             	mov    -0x4(%rbp),%eax
    5774:	5d                   	pop    %rbp
    5775:	c3                   	retq   

0000000000005776 <safe_lshift_func_int32_t_s_u>:
    5776:	f3 0f 1e fa          	endbr64 
    577a:	55                   	push   %rbp
    577b:	48 89 e5             	mov    %rsp,%rbp
    577e:	89 7d fc             	mov    %edi,-0x4(%rbp)
    5781:	89 75 f8             	mov    %esi,-0x8(%rbp)
    5784:	83 7d fc 00          	cmpl   $0x0,-0x4(%rbp)
    5788:	78 27                	js     57b1 <safe_lshift_func_int32_t_s_u+0x3b>
    578a:	83 7d f8 1f          	cmpl   $0x1f,-0x8(%rbp)
    578e:	77 21                	ja     57b1 <safe_lshift_func_int32_t_s_u+0x3b>
    5790:	8b 45 f8             	mov    -0x8(%rbp),%eax
    5793:	ba ff ff ff 7f       	mov    $0x7fffffff,%edx
    5798:	89 c1                	mov    %eax,%ecx
    579a:	d3 fa                	sar    %cl,%edx
    579c:	89 d0                	mov    %edx,%eax
    579e:	39 45 fc             	cmp    %eax,-0x4(%rbp)
    57a1:	7f 0e                	jg     57b1 <safe_lshift_func_int32_t_s_u+0x3b>
    57a3:	8b 45 f8             	mov    -0x8(%rbp),%eax
    57a6:	8b 55 fc             	mov    -0x4(%rbp),%edx
    57a9:	89 c1                	mov    %eax,%ecx
    57ab:	d3 e2                	shl    %cl,%edx
    57ad:	89 d0                	mov    %edx,%eax
    57af:	eb 03                	jmp    57b4 <safe_lshift_func_int32_t_s_u+0x3e>
    57b1:	8b 45 fc             	mov    -0x4(%rbp),%eax
    57b4:	5d                   	pop    %rbp
    57b5:	c3                   	retq   

00000000000057b6 <safe_rshift_func_int32_t_s_s>:
    57b6:	f3 0f 1e fa          	endbr64 
    57ba:	55                   	push   %rbp
    57bb:	48 89 e5             	mov    %rsp,%rbp
    57be:	89 7d fc             	mov    %edi,-0x4(%rbp)
    57c1:	89 75 f8             	mov    %esi,-0x8(%rbp)
    57c4:	83 7d fc 00          	cmpl   $0x0,-0x4(%rbp)
    57c8:	78 1a                	js     57e4 <safe_rshift_func_int32_t_s_s+0x2e>
    57ca:	83 7d f8 00          	cmpl   $0x0,-0x8(%rbp)
    57ce:	78 14                	js     57e4 <safe_rshift_func_int32_t_s_s+0x2e>
    57d0:	83 7d f8 1f          	cmpl   $0x1f,-0x8(%rbp)
    57d4:	7f 0e                	jg     57e4 <safe_rshift_func_int32_t_s_s+0x2e>
    57d6:	8b 45 f8             	mov    -0x8(%rbp),%eax
    57d9:	8b 55 fc             	mov    -0x4(%rbp),%edx
    57dc:	89 c1                	mov    %eax,%ecx
    57de:	d3 fa                	sar    %cl,%edx
    57e0:	89 d0                	mov    %edx,%eax
    57e2:	eb 03                	jmp    57e7 <safe_rshift_func_int32_t_s_s+0x31>
    57e4:	8b 45 fc             	mov    -0x4(%rbp),%eax
    57e7:	5d                   	pop    %rbp
    57e8:	c3                   	retq   

00000000000057e9 <safe_rshift_func_int32_t_s_u>:
    57e9:	f3 0f 1e fa          	endbr64 
    57ed:	55                   	push   %rbp
    57ee:	48 89 e5             	mov    %rsp,%rbp
    57f1:	89 7d fc             	mov    %edi,-0x4(%rbp)
    57f4:	89 75 f8             	mov    %esi,-0x8(%rbp)
    57f7:	83 7d fc 00          	cmpl   $0x0,-0x4(%rbp)
    57fb:	78 14                	js     5811 <safe_rshift_func_int32_t_s_u+0x28>
    57fd:	83 7d f8 1f          	cmpl   $0x1f,-0x8(%rbp)
    5801:	77 0e                	ja     5811 <safe_rshift_func_int32_t_s_u+0x28>
    5803:	8b 45 f8             	mov    -0x8(%rbp),%eax
    5806:	8b 55 fc             	mov    -0x4(%rbp),%edx
    5809:	89 c1                	mov    %eax,%ecx
    580b:	d3 fa                	sar    %cl,%edx
    580d:	89 d0                	mov    %edx,%eax
    580f:	eb 03                	jmp    5814 <safe_rshift_func_int32_t_s_u+0x2b>
    5811:	8b 45 fc             	mov    -0x4(%rbp),%eax
    5814:	5d                   	pop    %rbp
    5815:	c3                   	retq   

0000000000005816 <safe_unary_minus_func_int64_t_s>:
    5816:	f3 0f 1e fa          	endbr64 
    581a:	55                   	push   %rbp
    581b:	48 89 e5             	mov    %rsp,%rbp
    581e:	48 89 7d f8          	mov    %rdi,-0x8(%rbp)
    5822:	48 b8 00 00 00 00 00 	movabs $0x8000000000000000,%rax
    5829:	00 00 80 
    582c:	48 39 45 f8          	cmp    %rax,-0x8(%rbp)
    5830:	74 09                	je     583b <safe_unary_minus_func_int64_t_s+0x25>
    5832:	48 8b 45 f8          	mov    -0x8(%rbp),%rax
    5836:	48 f7 d8             	neg    %rax
    5839:	eb 04                	jmp    583f <safe_unary_minus_func_int64_t_s+0x29>
    583b:	48 8b 45 f8          	mov    -0x8(%rbp),%rax
    583f:	5d                   	pop    %rbp
    5840:	c3                   	retq   

0000000000005841 <safe_add_func_int64_t_s_s>:
    5841:	f3 0f 1e fa          	endbr64 
    5845:	55                   	push   %rbp
    5846:	48 89 e5             	mov    %rsp,%rbp
    5849:	48 89 7d f8          	mov    %rdi,-0x8(%rbp)
    584d:	48 89 75 f0          	mov    %rsi,-0x10(%rbp)
    5851:	48 83 7d f8 00       	cmpq   $0x0,-0x8(%rbp)
    5856:	7e 1b                	jle    5873 <safe_add_func_int64_t_s_s+0x32>
    5858:	48 83 7d f0 00       	cmpq   $0x0,-0x10(%rbp)
    585d:	7e 14                	jle    5873 <safe_add_func_int64_t_s_s+0x32>
    585f:	48 b8 ff ff ff ff ff 	movabs $0x7fffffffffffffff,%rax
    5866:	ff ff 7f 
    5869:	48 2b 45 f0          	sub    -0x10(%rbp),%rax
    586d:	48 39 45 f8          	cmp    %rax,-0x8(%rbp)
    5871:	7f 2f                	jg     58a2 <safe_add_func_int64_t_s_s+0x61>
    5873:	48 83 7d f8 00       	cmpq   $0x0,-0x8(%rbp)
    5878:	79 1b                	jns    5895 <safe_add_func_int64_t_s_s+0x54>
    587a:	48 83 7d f0 00       	cmpq   $0x0,-0x10(%rbp)
    587f:	79 14                	jns    5895 <safe_add_func_int64_t_s_s+0x54>
    5881:	48 b8 00 00 00 00 00 	movabs $0x8000000000000000,%rax
    5888:	00 00 80 
    588b:	48 2b 45 f0          	sub    -0x10(%rbp),%rax
    588f:	48 39 45 f8          	cmp    %rax,-0x8(%rbp)
    5893:	7c 0d                	jl     58a2 <safe_add_func_int64_t_s_s+0x61>
    5895:	48 8b 55 f8          	mov    -0x8(%rbp),%rdx
    5899:	48 8b 45 f0          	mov    -0x10(%rbp),%rax
    589d:	48 01 d0             	add    %rdx,%rax
    58a0:	eb 04                	jmp    58a6 <safe_add_func_int64_t_s_s+0x65>
    58a2:	48 8b 45 f8          	mov    -0x8(%rbp),%rax
    58a6:	5d                   	pop    %rbp
    58a7:	c3                   	retq   

00000000000058a8 <safe_sub_func_int64_t_s_s>:
    58a8:	f3 0f 1e fa          	endbr64 
    58ac:	55                   	push   %rbp
    58ad:	48 89 e5             	mov    %rsp,%rbp
    58b0:	48 89 7d f8          	mov    %rdi,-0x8(%rbp)
    58b4:	48 89 75 f0          	mov    %rsi,-0x10(%rbp)
    58b8:	48 8b 45 f8          	mov    -0x8(%rbp),%rax
    58bc:	48 33 45 f0          	xor    -0x10(%rbp),%rax
    58c0:	48 89 c2             	mov    %rax,%rdx
    58c3:	48 8b 45 f8          	mov    -0x8(%rbp),%rax
    58c7:	48 33 45 f0          	xor    -0x10(%rbp),%rax
    58cb:	48 b9 00 00 00 00 00 	movabs $0x8000000000000000,%rcx
    58d2:	00 00 80 
    58d5:	48 21 c8             	and    %rcx,%rax
    58d8:	48 33 45 f8          	xor    -0x8(%rbp),%rax
    58dc:	48 2b 45 f0          	sub    -0x10(%rbp),%rax
    58e0:	48 33 45 f0          	xor    -0x10(%rbp),%rax
    58e4:	48 21 d0             	and    %rdx,%rax
    58e7:	48 85 c0             	test   %rax,%rax
    58ea:	78 0a                	js     58f6 <safe_sub_func_int64_t_s_s+0x4e>
    58ec:	48 8b 45 f8          	mov    -0x8(%rbp),%rax
    58f0:	48 2b 45 f0          	sub    -0x10(%rbp),%rax
    58f4:	eb 04                	jmp    58fa <safe_sub_func_int64_t_s_s+0x52>
    58f6:	48 8b 45 f8          	mov    -0x8(%rbp),%rax
    58fa:	5d                   	pop    %rbp
    58fb:	c3                   	retq   

00000000000058fc <safe_mul_func_int64_t_s_s>:
    58fc:	f3 0f 1e fa          	endbr64 
    5900:	55                   	push   %rbp
    5901:	48 89 e5             	mov    %rsp,%rbp
    5904:	48 89 7d f8          	mov    %rdi,-0x8(%rbp)
    5908:	48 89 75 f0          	mov    %rsi,-0x10(%rbp)
    590c:	48 83 7d f8 00       	cmpq   $0x0,-0x8(%rbp)
    5911:	7e 1d                	jle    5930 <safe_mul_func_int64_t_s_s+0x34>
    5913:	48 83 7d f0 00       	cmpq   $0x0,-0x10(%rbp)
    5918:	7e 16                	jle    5930 <safe_mul_func_int64_t_s_s+0x34>
    591a:	48 b8 ff ff ff ff ff 	movabs $0x7fffffffffffffff,%rax
    5921:	ff ff 7f 
    5924:	48 99                	cqto   
    5926:	48 f7 7d f0          	idivq  -0x10(%rbp)
    592a:	48 39 45 f8          	cmp    %rax,-0x8(%rbp)
    592e:	7f 7e                	jg     59ae <safe_mul_func_int64_t_s_s+0xb2>
    5930:	48 83 7d f8 00       	cmpq   $0x0,-0x8(%rbp)
    5935:	7e 1d                	jle    5954 <safe_mul_func_int64_t_s_s+0x58>
    5937:	48 83 7d f0 00       	cmpq   $0x0,-0x10(%rbp)
    593c:	7f 16                	jg     5954 <safe_mul_func_int64_t_s_s+0x58>
    593e:	48 b8 00 00 00 00 00 	movabs $0x8000000000000000,%rax
    5945:	00 00 80 
    5948:	48 99                	cqto   
    594a:	48 f7 7d f8          	idivq  -0x8(%rbp)
    594e:	48 39 45 f0          	cmp    %rax,-0x10(%rbp)
    5952:	7c 5a                	jl     59ae <safe_mul_func_int64_t_s_s+0xb2>
    5954:	48 83 7d f8 00       	cmpq   $0x0,-0x8(%rbp)
    5959:	7f 1d                	jg     5978 <safe_mul_func_int64_t_s_s+0x7c>
    595b:	48 83 7d f0 00       	cmpq   $0x0,-0x10(%rbp)
    5960:	7e 16                	jle    5978 <safe_mul_func_int64_t_s_s+0x7c>
    5962:	48 b8 00 00 00 00 00 	movabs $0x8000000000000000,%rax
    5969:	00 00 80 
    596c:	48 99                	cqto   
    596e:	48 f7 7d f0          	idivq  -0x10(%rbp)
    5972:	48 39 45 f8          	cmp    %rax,-0x8(%rbp)
    5976:	7c 36                	jl     59ae <safe_mul_func_int64_t_s_s+0xb2>
    5978:	48 83 7d f8 00       	cmpq   $0x0,-0x8(%rbp)
    597d:	7f 24                	jg     59a3 <safe_mul_func_int64_t_s_s+0xa7>
    597f:	48 83 7d f0 00       	cmpq   $0x0,-0x10(%rbp)
    5984:	7f 1d                	jg     59a3 <safe_mul_func_int64_t_s_s+0xa7>
    5986:	48 83 7d f8 00       	cmpq   $0x0,-0x8(%rbp)
    598b:	74 16                	je     59a3 <safe_mul_func_int64_t_s_s+0xa7>
    598d:	48 b8 ff ff ff ff ff 	movabs $0x7fffffffffffffff,%rax
    5994:	ff ff 7f 
    5997:	48 99                	cqto   
    5999:	48 f7 7d f8          	idivq  -0x8(%rbp)
    599d:	48 39 45 f0          	cmp    %rax,-0x10(%rbp)
    59a1:	7c 0b                	jl     59ae <safe_mul_func_int64_t_s_s+0xb2>
    59a3:	48 8b 45 f8          	mov    -0x8(%rbp),%rax
    59a7:	48 0f af 45 f0       	imul   -0x10(%rbp),%rax
    59ac:	eb 04                	jmp    59b2 <safe_mul_func_int64_t_s_s+0xb6>
    59ae:	48 8b 45 f8          	mov    -0x8(%rbp),%rax
    59b2:	5d                   	pop    %rbp
    59b3:	c3                   	retq   

00000000000059b4 <safe_mod_func_int64_t_s_s>:
    59b4:	f3 0f 1e fa          	endbr64 
    59b8:	55                   	push   %rbp
    59b9:	48 89 e5             	mov    %rsp,%rbp
    59bc:	48 89 7d f8          	mov    %rdi,-0x8(%rbp)
    59c0:	48 89 75 f0          	mov    %rsi,-0x10(%rbp)
    59c4:	48 83 7d f0 00       	cmpq   $0x0,-0x10(%rbp)
    59c9:	74 26                	je     59f1 <safe_mod_func_int64_t_s_s+0x3d>
    59cb:	48 b8 00 00 00 00 00 	movabs $0x8000000000000000,%rax
    59d2:	00 00 80 
    59d5:	48 39 45 f8          	cmp    %rax,-0x8(%rbp)
    59d9:	75 07                	jne    59e2 <safe_mod_func_int64_t_s_s+0x2e>
    59db:	48 83 7d f0 ff       	cmpq   $0xffffffffffffffff,-0x10(%rbp)
    59e0:	74 0f                	je     59f1 <safe_mod_func_int64_t_s_s+0x3d>
    59e2:	48 8b 45 f8          	mov    -0x8(%rbp),%rax
    59e6:	48 99                	cqto   
    59e8:	48 f7 7d f0          	idivq  -0x10(%rbp)
    59ec:	48 89 d0             	mov    %rdx,%rax
    59ef:	eb 04                	jmp    59f5 <safe_mod_func_int64_t_s_s+0x41>
    59f1:	48 8b 45 f8          	mov    -0x8(%rbp),%rax
    59f5:	5d                   	pop    %rbp
    59f6:	c3                   	retq   

00000000000059f7 <safe_div_func_int64_t_s_s>:
    59f7:	f3 0f 1e fa          	endbr64 
    59fb:	55                   	push   %rbp
    59fc:	48 89 e5             	mov    %rsp,%rbp
    59ff:	48 89 7d f8          	mov    %rdi,-0x8(%rbp)
    5a03:	48 89 75 f0          	mov    %rsi,-0x10(%rbp)
    5a07:	48 83 7d f0 00       	cmpq   $0x0,-0x10(%rbp)
    5a0c:	74 23                	je     5a31 <safe_div_func_int64_t_s_s+0x3a>
    5a0e:	48 b8 00 00 00 00 00 	movabs $0x8000000000000000,%rax
    5a15:	00 00 80 
    5a18:	48 39 45 f8          	cmp    %rax,-0x8(%rbp)
    5a1c:	75 07                	jne    5a25 <safe_div_func_int64_t_s_s+0x2e>
    5a1e:	48 83 7d f0 ff       	cmpq   $0xffffffffffffffff,-0x10(%rbp)
    5a23:	74 0c                	je     5a31 <safe_div_func_int64_t_s_s+0x3a>
    5a25:	48 8b 45 f8          	mov    -0x8(%rbp),%rax
    5a29:	48 99                	cqto   
    5a2b:	48 f7 7d f0          	idivq  -0x10(%rbp)
    5a2f:	eb 04                	jmp    5a35 <safe_div_func_int64_t_s_s+0x3e>
    5a31:	48 8b 45 f8          	mov    -0x8(%rbp),%rax
    5a35:	5d                   	pop    %rbp
    5a36:	c3                   	retq   

0000000000005a37 <safe_lshift_func_int64_t_s_s>:
    5a37:	f3 0f 1e fa          	endbr64 
    5a3b:	55                   	push   %rbp
    5a3c:	48 89 e5             	mov    %rsp,%rbp
    5a3f:	48 89 7d f8          	mov    %rdi,-0x8(%rbp)
    5a43:	89 75 f4             	mov    %esi,-0xc(%rbp)
    5a46:	48 83 7d f8 00       	cmpq   $0x0,-0x8(%rbp)
    5a4b:	78 38                	js     5a85 <safe_lshift_func_int64_t_s_s+0x4e>
    5a4d:	83 7d f4 00          	cmpl   $0x0,-0xc(%rbp)
    5a51:	78 32                	js     5a85 <safe_lshift_func_int64_t_s_s+0x4e>
    5a53:	83 7d f4 1f          	cmpl   $0x1f,-0xc(%rbp)
    5a57:	7f 2c                	jg     5a85 <safe_lshift_func_int64_t_s_s+0x4e>
    5a59:	8b 45 f4             	mov    -0xc(%rbp),%eax
    5a5c:	48 ba ff ff ff ff ff 	movabs $0x7fffffffffffffff,%rdx
    5a63:	ff ff 7f 
    5a66:	89 c1                	mov    %eax,%ecx
    5a68:	48 d3 fa             	sar    %cl,%rdx
    5a6b:	48 89 d0             	mov    %rdx,%rax
    5a6e:	48 39 45 f8          	cmp    %rax,-0x8(%rbp)
    5a72:	7f 11                	jg     5a85 <safe_lshift_func_int64_t_s_s+0x4e>
    5a74:	8b 45 f4             	mov    -0xc(%rbp),%eax
    5a77:	48 8b 55 f8          	mov    -0x8(%rbp),%rdx
    5a7b:	89 c1                	mov    %eax,%ecx
    5a7d:	48 d3 e2             	shl    %cl,%rdx
    5a80:	48 89 d0             	mov    %rdx,%rax
    5a83:	eb 04                	jmp    5a89 <safe_lshift_func_int64_t_s_s+0x52>
    5a85:	48 8b 45 f8          	mov    -0x8(%rbp),%rax
    5a89:	5d                   	pop    %rbp
    5a8a:	c3                   	retq   

0000000000005a8b <safe_lshift_func_int64_t_s_u>:
    5a8b:	f3 0f 1e fa          	endbr64 
    5a8f:	55                   	push   %rbp
    5a90:	48 89 e5             	mov    %rsp,%rbp
    5a93:	48 89 7d f8          	mov    %rdi,-0x8(%rbp)
    5a97:	89 75 f4             	mov    %esi,-0xc(%rbp)
    5a9a:	48 83 7d f8 00       	cmpq   $0x0,-0x8(%rbp)
    5a9f:	78 32                	js     5ad3 <safe_lshift_func_int64_t_s_u+0x48>
    5aa1:	83 7d f4 1f          	cmpl   $0x1f,-0xc(%rbp)
    5aa5:	77 2c                	ja     5ad3 <safe_lshift_func_int64_t_s_u+0x48>
    5aa7:	8b 45 f4             	mov    -0xc(%rbp),%eax
    5aaa:	48 ba ff ff ff ff ff 	movabs $0x7fffffffffffffff,%rdx
    5ab1:	ff ff 7f 
    5ab4:	89 c1                	mov    %eax,%ecx
    5ab6:	48 d3 fa             	sar    %cl,%rdx
    5ab9:	48 89 d0             	mov    %rdx,%rax
    5abc:	48 39 45 f8          	cmp    %rax,-0x8(%rbp)
    5ac0:	7f 11                	jg     5ad3 <safe_lshift_func_int64_t_s_u+0x48>
    5ac2:	8b 45 f4             	mov    -0xc(%rbp),%eax
    5ac5:	48 8b 55 f8          	mov    -0x8(%rbp),%rdx
    5ac9:	89 c1                	mov    %eax,%ecx
    5acb:	48 d3 e2             	shl    %cl,%rdx
    5ace:	48 89 d0             	mov    %rdx,%rax
    5ad1:	eb 04                	jmp    5ad7 <safe_lshift_func_int64_t_s_u+0x4c>
    5ad3:	48 8b 45 f8          	mov    -0x8(%rbp),%rax
    5ad7:	5d                   	pop    %rbp
    5ad8:	c3                   	retq   

0000000000005ad9 <safe_rshift_func_int64_t_s_s>:
    5ad9:	f3 0f 1e fa          	endbr64 
    5add:	55                   	push   %rbp
    5ade:	48 89 e5             	mov    %rsp,%rbp
    5ae1:	48 89 7d f8          	mov    %rdi,-0x8(%rbp)
    5ae5:	89 75 f4             	mov    %esi,-0xc(%rbp)
    5ae8:	48 83 7d f8 00       	cmpq   $0x0,-0x8(%rbp)
    5aed:	78 1d                	js     5b0c <safe_rshift_func_int64_t_s_s+0x33>
    5aef:	83 7d f4 00          	cmpl   $0x0,-0xc(%rbp)
    5af3:	78 17                	js     5b0c <safe_rshift_func_int64_t_s_s+0x33>
    5af5:	83 7d f4 1f          	cmpl   $0x1f,-0xc(%rbp)
    5af9:	7f 11                	jg     5b0c <safe_rshift_func_int64_t_s_s+0x33>
    5afb:	8b 45 f4             	mov    -0xc(%rbp),%eax
    5afe:	48 8b 55 f8          	mov    -0x8(%rbp),%rdx
    5b02:	89 c1                	mov    %eax,%ecx
    5b04:	48 d3 fa             	sar    %cl,%rdx
    5b07:	48 89 d0             	mov    %rdx,%rax
    5b0a:	eb 04                	jmp    5b10 <safe_rshift_func_int64_t_s_s+0x37>
    5b0c:	48 8b 45 f8          	mov    -0x8(%rbp),%rax
    5b10:	5d                   	pop    %rbp
    5b11:	c3                   	retq   

0000000000005b12 <safe_rshift_func_int64_t_s_u>:
    5b12:	f3 0f 1e fa          	endbr64 
    5b16:	55                   	push   %rbp
    5b17:	48 89 e5             	mov    %rsp,%rbp
    5b1a:	48 89 7d f8          	mov    %rdi,-0x8(%rbp)
    5b1e:	89 75 f4             	mov    %esi,-0xc(%rbp)
    5b21:	48 83 7d f8 00       	cmpq   $0x0,-0x8(%rbp)
    5b26:	78 17                	js     5b3f <safe_rshift_func_int64_t_s_u+0x2d>
    5b28:	83 7d f4 1f          	cmpl   $0x1f,-0xc(%rbp)
    5b2c:	77 11                	ja     5b3f <safe_rshift_func_int64_t_s_u+0x2d>
    5b2e:	8b 45 f4             	mov    -0xc(%rbp),%eax
    5b31:	48 8b 55 f8          	mov    -0x8(%rbp),%rdx
    5b35:	89 c1                	mov    %eax,%ecx
    5b37:	48 d3 fa             	sar    %cl,%rdx
    5b3a:	48 89 d0             	mov    %rdx,%rax
    5b3d:	eb 04                	jmp    5b43 <safe_rshift_func_int64_t_s_u+0x31>
    5b3f:	48 8b 45 f8          	mov    -0x8(%rbp),%rax
    5b43:	5d                   	pop    %rbp
    5b44:	c3                   	retq   

0000000000005b45 <safe_unary_minus_func_uint8_t_u>:
    5b45:	f3 0f 1e fa          	endbr64 
    5b49:	55                   	push   %rbp
    5b4a:	48 89 e5             	mov    %rsp,%rbp
    5b4d:	89 f8                	mov    %edi,%eax
    5b4f:	88 45 fc             	mov    %al,-0x4(%rbp)
    5b52:	0f b6 45 fc          	movzbl -0x4(%rbp),%eax
    5b56:	f7 d8                	neg    %eax
    5b58:	5d                   	pop    %rbp
    5b59:	c3                   	retq   

0000000000005b5a <safe_add_func_uint8_t_u_u>:
    5b5a:	f3 0f 1e fa          	endbr64 
    5b5e:	55                   	push   %rbp
    5b5f:	48 89 e5             	mov    %rsp,%rbp
    5b62:	89 fa                	mov    %edi,%edx
    5b64:	89 f0                	mov    %esi,%eax
    5b66:	88 55 fc             	mov    %dl,-0x4(%rbp)
    5b69:	88 45 f8             	mov    %al,-0x8(%rbp)
    5b6c:	0f b6 55 fc          	movzbl -0x4(%rbp),%edx
    5b70:	0f b6 45 f8          	movzbl -0x8(%rbp),%eax
    5b74:	01 d0                	add    %edx,%eax
    5b76:	5d                   	pop    %rbp
    5b77:	c3                   	retq   

0000000000005b78 <safe_sub_func_uint8_t_u_u>:
    5b78:	f3 0f 1e fa          	endbr64 
    5b7c:	55                   	push   %rbp
    5b7d:	48 89 e5             	mov    %rsp,%rbp
    5b80:	89 fa                	mov    %edi,%edx
    5b82:	89 f0                	mov    %esi,%eax
    5b84:	88 55 fc             	mov    %dl,-0x4(%rbp)
    5b87:	88 45 f8             	mov    %al,-0x8(%rbp)
    5b8a:	0f b6 45 fc          	movzbl -0x4(%rbp),%eax
    5b8e:	2a 45 f8             	sub    -0x8(%rbp),%al
    5b91:	5d                   	pop    %rbp
    5b92:	c3                   	retq   

0000000000005b93 <safe_mul_func_uint8_t_u_u>:
    5b93:	f3 0f 1e fa          	endbr64 
    5b97:	55                   	push   %rbp
    5b98:	48 89 e5             	mov    %rsp,%rbp
    5b9b:	89 fa                	mov    %edi,%edx
    5b9d:	89 f0                	mov    %esi,%eax
    5b9f:	88 55 fc             	mov    %dl,-0x4(%rbp)
    5ba2:	88 45 f8             	mov    %al,-0x8(%rbp)
    5ba5:	0f b6 45 fc          	movzbl -0x4(%rbp),%eax
    5ba9:	f6 65 f8             	mulb   -0x8(%rbp)
    5bac:	5d                   	pop    %rbp
    5bad:	c3                   	retq   

0000000000005bae <safe_mod_func_uint8_t_u_u>:
    5bae:	f3 0f 1e fa          	endbr64 
    5bb2:	55                   	push   %rbp
    5bb3:	48 89 e5             	mov    %rsp,%rbp
    5bb6:	89 fa                	mov    %edi,%edx
    5bb8:	89 f0                	mov    %esi,%eax
    5bba:	88 55 fc             	mov    %dl,-0x4(%rbp)
    5bbd:	88 45 f8             	mov    %al,-0x8(%rbp)
    5bc0:	80 7d f8 00          	cmpb   $0x0,-0x8(%rbp)
    5bc4:	74 0f                	je     5bd5 <safe_mod_func_uint8_t_u_u+0x27>
    5bc6:	0f b6 45 fc          	movzbl -0x4(%rbp),%eax
    5bca:	0f b6 c0             	movzbl %al,%eax
    5bcd:	f6 75 f8             	divb   -0x8(%rbp)
    5bd0:	0f b6 c4             	movzbl %ah,%eax
    5bd3:	eb 04                	jmp    5bd9 <safe_mod_func_uint8_t_u_u+0x2b>
    5bd5:	0f b6 45 fc          	movzbl -0x4(%rbp),%eax
    5bd9:	5d                   	pop    %rbp
    5bda:	c3                   	retq   

0000000000005bdb <safe_div_func_uint8_t_u_u>:
    5bdb:	f3 0f 1e fa          	endbr64 
    5bdf:	55                   	push   %rbp
    5be0:	48 89 e5             	mov    %rsp,%rbp
    5be3:	89 fa                	mov    %edi,%edx
    5be5:	89 f0                	mov    %esi,%eax
    5be7:	88 55 fc             	mov    %dl,-0x4(%rbp)
    5bea:	88 45 f8             	mov    %al,-0x8(%rbp)
    5bed:	80 7d f8 00          	cmpb   $0x0,-0x8(%rbp)
    5bf1:	74 0c                	je     5bff <safe_div_func_uint8_t_u_u+0x24>
    5bf3:	0f b6 45 fc          	movzbl -0x4(%rbp),%eax
    5bf7:	0f b6 c0             	movzbl %al,%eax
    5bfa:	f6 75 f8             	divb   -0x8(%rbp)
    5bfd:	eb 04                	jmp    5c03 <safe_div_func_uint8_t_u_u+0x28>
    5bff:	0f b6 45 fc          	movzbl -0x4(%rbp),%eax
    5c03:	5d                   	pop    %rbp
    5c04:	c3                   	retq   

0000000000005c05 <safe_lshift_func_uint8_t_u_s>:
    5c05:	f3 0f 1e fa          	endbr64 
    5c09:	55                   	push   %rbp
    5c0a:	48 89 e5             	mov    %rsp,%rbp
    5c0d:	89 f8                	mov    %edi,%eax
    5c0f:	89 75 f8             	mov    %esi,-0x8(%rbp)
    5c12:	88 45 fc             	mov    %al,-0x4(%rbp)
    5c15:	83 7d f8 00          	cmpl   $0x0,-0x8(%rbp)
    5c19:	78 2b                	js     5c46 <safe_lshift_func_uint8_t_u_s+0x41>
    5c1b:	83 7d f8 1f          	cmpl   $0x1f,-0x8(%rbp)
    5c1f:	7f 25                	jg     5c46 <safe_lshift_func_uint8_t_u_s+0x41>
    5c21:	0f b6 55 fc          	movzbl -0x4(%rbp),%edx
    5c25:	8b 45 f8             	mov    -0x8(%rbp),%eax
    5c28:	be ff 00 00 00       	mov    $0xff,%esi
    5c2d:	89 c1                	mov    %eax,%ecx
    5c2f:	d3 fe                	sar    %cl,%esi
    5c31:	89 f0                	mov    %esi,%eax
    5c33:	39 c2                	cmp    %eax,%edx
    5c35:	7f 0f                	jg     5c46 <safe_lshift_func_uint8_t_u_s+0x41>
    5c37:	0f b6 55 fc          	movzbl -0x4(%rbp),%edx
    5c3b:	8b 45 f8             	mov    -0x8(%rbp),%eax
    5c3e:	89 c1                	mov    %eax,%ecx
    5c40:	d3 e2                	shl    %cl,%edx
    5c42:	89 d0                	mov    %edx,%eax
    5c44:	eb 04                	jmp    5c4a <safe_lshift_func_uint8_t_u_s+0x45>
    5c46:	0f b6 45 fc          	movzbl -0x4(%rbp),%eax
    5c4a:	5d                   	pop    %rbp
    5c4b:	c3                   	retq   

0000000000005c4c <safe_lshift_func_uint8_t_u_u>:
    5c4c:	f3 0f 1e fa          	endbr64 
    5c50:	55                   	push   %rbp
    5c51:	48 89 e5             	mov    %rsp,%rbp
    5c54:	89 f8                	mov    %edi,%eax
    5c56:	89 75 f8             	mov    %esi,-0x8(%rbp)
    5c59:	88 45 fc             	mov    %al,-0x4(%rbp)
    5c5c:	83 7d f8 1f          	cmpl   $0x1f,-0x8(%rbp)
    5c60:	77 25                	ja     5c87 <safe_lshift_func_uint8_t_u_u+0x3b>
    5c62:	0f b6 55 fc          	movzbl -0x4(%rbp),%edx
    5c66:	8b 45 f8             	mov    -0x8(%rbp),%eax
    5c69:	be ff 00 00 00       	mov    $0xff,%esi
    5c6e:	89 c1                	mov    %eax,%ecx
    5c70:	d3 fe                	sar    %cl,%esi
    5c72:	89 f0                	mov    %esi,%eax
    5c74:	39 c2                	cmp    %eax,%edx
    5c76:	7f 0f                	jg     5c87 <safe_lshift_func_uint8_t_u_u+0x3b>
    5c78:	0f b6 55 fc          	movzbl -0x4(%rbp),%edx
    5c7c:	8b 45 f8             	mov    -0x8(%rbp),%eax
    5c7f:	89 c1                	mov    %eax,%ecx
    5c81:	d3 e2                	shl    %cl,%edx
    5c83:	89 d0                	mov    %edx,%eax
    5c85:	eb 04                	jmp    5c8b <safe_lshift_func_uint8_t_u_u+0x3f>
    5c87:	0f b6 45 fc          	movzbl -0x4(%rbp),%eax
    5c8b:	5d                   	pop    %rbp
    5c8c:	c3                   	retq   

0000000000005c8d <safe_rshift_func_uint8_t_u_s>:
    5c8d:	f3 0f 1e fa          	endbr64 
    5c91:	55                   	push   %rbp
    5c92:	48 89 e5             	mov    %rsp,%rbp
    5c95:	89 f8                	mov    %edi,%eax
    5c97:	89 75 f8             	mov    %esi,-0x8(%rbp)
    5c9a:	88 45 fc             	mov    %al,-0x4(%rbp)
    5c9d:	83 7d f8 00          	cmpl   $0x0,-0x8(%rbp)
    5ca1:	78 15                	js     5cb8 <safe_rshift_func_uint8_t_u_s+0x2b>
    5ca3:	83 7d f8 1f          	cmpl   $0x1f,-0x8(%rbp)
    5ca7:	7f 0f                	jg     5cb8 <safe_rshift_func_uint8_t_u_s+0x2b>
    5ca9:	0f b6 55 fc          	movzbl -0x4(%rbp),%edx
    5cad:	8b 45 f8             	mov    -0x8(%rbp),%eax
    5cb0:	89 c1                	mov    %eax,%ecx
    5cb2:	d3 fa                	sar    %cl,%edx
    5cb4:	89 d0                	mov    %edx,%eax
    5cb6:	eb 04                	jmp    5cbc <safe_rshift_func_uint8_t_u_s+0x2f>
    5cb8:	0f b6 45 fc          	movzbl -0x4(%rbp),%eax
    5cbc:	5d                   	pop    %rbp
    5cbd:	c3                   	retq   

0000000000005cbe <safe_rshift_func_uint8_t_u_u>:
    5cbe:	f3 0f 1e fa          	endbr64 
    5cc2:	55                   	push   %rbp
    5cc3:	48 89 e5             	mov    %rsp,%rbp
    5cc6:	89 f8                	mov    %edi,%eax
    5cc8:	89 75 f8             	mov    %esi,-0x8(%rbp)
    5ccb:	88 45 fc             	mov    %al,-0x4(%rbp)
    5cce:	83 7d f8 1f          	cmpl   $0x1f,-0x8(%rbp)
    5cd2:	77 0f                	ja     5ce3 <safe_rshift_func_uint8_t_u_u+0x25>
    5cd4:	0f b6 55 fc          	movzbl -0x4(%rbp),%edx
    5cd8:	8b 45 f8             	mov    -0x8(%rbp),%eax
    5cdb:	89 c1                	mov    %eax,%ecx
    5cdd:	d3 fa                	sar    %cl,%edx
    5cdf:	89 d0                	mov    %edx,%eax
    5ce1:	eb 04                	jmp    5ce7 <safe_rshift_func_uint8_t_u_u+0x29>
    5ce3:	0f b6 45 fc          	movzbl -0x4(%rbp),%eax
    5ce7:	5d                   	pop    %rbp
    5ce8:	c3                   	retq   

0000000000005ce9 <safe_unary_minus_func_uint16_t_u>:
    5ce9:	f3 0f 1e fa          	endbr64 
    5ced:	55                   	push   %rbp
    5cee:	48 89 e5             	mov    %rsp,%rbp
    5cf1:	89 f8                	mov    %edi,%eax
    5cf3:	66 89 45 fc          	mov    %ax,-0x4(%rbp)
    5cf7:	0f b7 45 fc          	movzwl -0x4(%rbp),%eax
    5cfb:	f7 d8                	neg    %eax
    5cfd:	5d                   	pop    %rbp
    5cfe:	c3                   	retq   

0000000000005cff <safe_add_func_uint16_t_u_u>:
    5cff:	f3 0f 1e fa          	endbr64 
    5d03:	55                   	push   %rbp
    5d04:	48 89 e5             	mov    %rsp,%rbp
    5d07:	89 fa                	mov    %edi,%edx
    5d09:	89 f0                	mov    %esi,%eax
    5d0b:	66 89 55 fc          	mov    %dx,-0x4(%rbp)
    5d0f:	66 89 45 f8          	mov    %ax,-0x8(%rbp)
    5d13:	0f b7 55 fc          	movzwl -0x4(%rbp),%edx
    5d17:	0f b7 45 f8          	movzwl -0x8(%rbp),%eax
    5d1b:	01 d0                	add    %edx,%eax
    5d1d:	5d                   	pop    %rbp
    5d1e:	c3                   	retq   

0000000000005d1f <safe_sub_func_uint16_t_u_u>:
    5d1f:	f3 0f 1e fa          	endbr64 
    5d23:	55                   	push   %rbp
    5d24:	48 89 e5             	mov    %rsp,%rbp
    5d27:	89 fa                	mov    %edi,%edx
    5d29:	89 f0                	mov    %esi,%eax
    5d2b:	66 89 55 fc          	mov    %dx,-0x4(%rbp)
    5d2f:	66 89 45 f8          	mov    %ax,-0x8(%rbp)
    5d33:	0f b7 45 fc          	movzwl -0x4(%rbp),%eax
    5d37:	66 2b 45 f8          	sub    -0x8(%rbp),%ax
    5d3b:	5d                   	pop    %rbp
    5d3c:	c3                   	retq   

0000000000005d3d <safe_mul_func_uint16_t_u_u>:
    5d3d:	f3 0f 1e fa          	endbr64 
    5d41:	55                   	push   %rbp
    5d42:	48 89 e5             	mov    %rsp,%rbp
    5d45:	89 fa                	mov    %edi,%edx
    5d47:	89 f0                	mov    %esi,%eax
    5d49:	66 89 55 fc          	mov    %dx,-0x4(%rbp)
    5d4d:	66 89 45 f8          	mov    %ax,-0x8(%rbp)
    5d51:	0f b7 45 fc          	movzwl -0x4(%rbp),%eax
    5d55:	66 0f af 45 f8       	imul   -0x8(%rbp),%ax
    5d5a:	5d                   	pop    %rbp
    5d5b:	c3                   	retq   

0000000000005d5c <safe_mod_func_uint16_t_u_u>:
    5d5c:	f3 0f 1e fa          	endbr64 
    5d60:	55                   	push   %rbp
    5d61:	48 89 e5             	mov    %rsp,%rbp
    5d64:	89 fa                	mov    %edi,%edx
    5d66:	89 f0                	mov    %esi,%eax
    5d68:	66 89 55 fc          	mov    %dx,-0x4(%rbp)
    5d6c:	66 89 45 f8          	mov    %ax,-0x8(%rbp)
    5d70:	66 83 7d f8 00       	cmpw   $0x0,-0x8(%rbp)
    5d75:	74 11                	je     5d88 <safe_mod_func_uint16_t_u_u+0x2c>
    5d77:	0f b7 45 fc          	movzwl -0x4(%rbp),%eax
    5d7b:	ba 00 00 00 00       	mov    $0x0,%edx
    5d80:	66 f7 75 f8          	divw   -0x8(%rbp)
    5d84:	89 d0                	mov    %edx,%eax
    5d86:	eb 04                	jmp    5d8c <safe_mod_func_uint16_t_u_u+0x30>
    5d88:	0f b7 45 fc          	movzwl -0x4(%rbp),%eax
    5d8c:	5d                   	pop    %rbp
    5d8d:	c3                   	retq   

0000000000005d8e <safe_div_func_uint16_t_u_u>:
    5d8e:	f3 0f 1e fa          	endbr64 
    5d92:	55                   	push   %rbp
    5d93:	48 89 e5             	mov    %rsp,%rbp
    5d96:	89 fa                	mov    %edi,%edx
    5d98:	89 f0                	mov    %esi,%eax
    5d9a:	66 89 55 fc          	mov    %dx,-0x4(%rbp)
    5d9e:	66 89 45 f8          	mov    %ax,-0x8(%rbp)
    5da2:	66 83 7d f8 00       	cmpw   $0x0,-0x8(%rbp)
    5da7:	74 0f                	je     5db8 <safe_div_func_uint16_t_u_u+0x2a>
    5da9:	0f b7 45 fc          	movzwl -0x4(%rbp),%eax
    5dad:	ba 00 00 00 00       	mov    $0x0,%edx
    5db2:	66 f7 75 f8          	divw   -0x8(%rbp)
    5db6:	eb 04                	jmp    5dbc <safe_div_func_uint16_t_u_u+0x2e>
    5db8:	0f b7 45 fc          	movzwl -0x4(%rbp),%eax
    5dbc:	5d                   	pop    %rbp
    5dbd:	c3                   	retq   

0000000000005dbe <safe_lshift_func_uint16_t_u_s>:
    5dbe:	f3 0f 1e fa          	endbr64 
    5dc2:	55                   	push   %rbp
    5dc3:	48 89 e5             	mov    %rsp,%rbp
    5dc6:	89 f8                	mov    %edi,%eax
    5dc8:	89 75 f8             	mov    %esi,-0x8(%rbp)
    5dcb:	66 89 45 fc          	mov    %ax,-0x4(%rbp)
    5dcf:	83 7d f8 00          	cmpl   $0x0,-0x8(%rbp)
    5dd3:	78 2b                	js     5e00 <safe_lshift_func_uint16_t_u_s+0x42>
    5dd5:	83 7d f8 1f          	cmpl   $0x1f,-0x8(%rbp)
    5dd9:	7f 25                	jg     5e00 <safe_lshift_func_uint16_t_u_s+0x42>
    5ddb:	0f b7 55 fc          	movzwl -0x4(%rbp),%edx
    5ddf:	8b 45 f8             	mov    -0x8(%rbp),%eax
    5de2:	be ff ff 00 00       	mov    $0xffff,%esi
    5de7:	89 c1                	mov    %eax,%ecx
    5de9:	d3 fe                	sar    %cl,%esi
    5deb:	89 f0                	mov    %esi,%eax
    5ded:	39 c2                	cmp    %eax,%edx
    5def:	7f 0f                	jg     5e00 <safe_lshift_func_uint16_t_u_s+0x42>
    5df1:	0f b7 55 fc          	movzwl -0x4(%rbp),%edx
    5df5:	8b 45 f8             	mov    -0x8(%rbp),%eax
    5df8:	89 c1                	mov    %eax,%ecx
    5dfa:	d3 e2                	shl    %cl,%edx
    5dfc:	89 d0                	mov    %edx,%eax
    5dfe:	eb 04                	jmp    5e04 <safe_lshift_func_uint16_t_u_s+0x46>
    5e00:	0f b7 45 fc          	movzwl -0x4(%rbp),%eax
    5e04:	5d                   	pop    %rbp
    5e05:	c3                   	retq   

0000000000005e06 <safe_lshift_func_uint16_t_u_u>:
    5e06:	f3 0f 1e fa          	endbr64 
    5e0a:	55                   	push   %rbp
    5e0b:	48 89 e5             	mov    %rsp,%rbp
    5e0e:	89 f8                	mov    %edi,%eax
    5e10:	89 75 f8             	mov    %esi,-0x8(%rbp)
    5e13:	66 89 45 fc          	mov    %ax,-0x4(%rbp)
    5e17:	83 7d f8 1f          	cmpl   $0x1f,-0x8(%rbp)
    5e1b:	77 25                	ja     5e42 <safe_lshift_func_uint16_t_u_u+0x3c>
    5e1d:	0f b7 55 fc          	movzwl -0x4(%rbp),%edx
    5e21:	8b 45 f8             	mov    -0x8(%rbp),%eax
    5e24:	be ff ff 00 00       	mov    $0xffff,%esi
    5e29:	89 c1                	mov    %eax,%ecx
    5e2b:	d3 fe                	sar    %cl,%esi
    5e2d:	89 f0                	mov    %esi,%eax
    5e2f:	39 c2                	cmp    %eax,%edx
    5e31:	7f 0f                	jg     5e42 <safe_lshift_func_uint16_t_u_u+0x3c>
    5e33:	0f b7 55 fc          	movzwl -0x4(%rbp),%edx
    5e37:	8b 45 f8             	mov    -0x8(%rbp),%eax
    5e3a:	89 c1                	mov    %eax,%ecx
    5e3c:	d3 e2                	shl    %cl,%edx
    5e3e:	89 d0                	mov    %edx,%eax
    5e40:	eb 04                	jmp    5e46 <safe_lshift_func_uint16_t_u_u+0x40>
    5e42:	0f b7 45 fc          	movzwl -0x4(%rbp),%eax
    5e46:	5d                   	pop    %rbp
    5e47:	c3                   	retq   

0000000000005e48 <safe_rshift_func_uint16_t_u_s>:
    5e48:	f3 0f 1e fa          	endbr64 
    5e4c:	55                   	push   %rbp
    5e4d:	48 89 e5             	mov    %rsp,%rbp
    5e50:	89 f8                	mov    %edi,%eax
    5e52:	89 75 f8             	mov    %esi,-0x8(%rbp)
    5e55:	66 89 45 fc          	mov    %ax,-0x4(%rbp)
    5e59:	83 7d f8 00          	cmpl   $0x0,-0x8(%rbp)
    5e5d:	78 15                	js     5e74 <safe_rshift_func_uint16_t_u_s+0x2c>
    5e5f:	83 7d f8 1f          	cmpl   $0x1f,-0x8(%rbp)
    5e63:	7f 0f                	jg     5e74 <safe_rshift_func_uint16_t_u_s+0x2c>
    5e65:	0f b7 55 fc          	movzwl -0x4(%rbp),%edx
    5e69:	8b 45 f8             	mov    -0x8(%rbp),%eax
    5e6c:	89 c1                	mov    %eax,%ecx
    5e6e:	d3 fa                	sar    %cl,%edx
    5e70:	89 d0                	mov    %edx,%eax
    5e72:	eb 04                	jmp    5e78 <safe_rshift_func_uint16_t_u_s+0x30>
    5e74:	0f b7 45 fc          	movzwl -0x4(%rbp),%eax
    5e78:	5d                   	pop    %rbp
    5e79:	c3                   	retq   

0000000000005e7a <safe_rshift_func_uint16_t_u_u>:
    5e7a:	f3 0f 1e fa          	endbr64 
    5e7e:	55                   	push   %rbp
    5e7f:	48 89 e5             	mov    %rsp,%rbp
    5e82:	89 f8                	mov    %edi,%eax
    5e84:	89 75 f8             	mov    %esi,-0x8(%rbp)
    5e87:	66 89 45 fc          	mov    %ax,-0x4(%rbp)
    5e8b:	83 7d f8 1f          	cmpl   $0x1f,-0x8(%rbp)
    5e8f:	77 0f                	ja     5ea0 <safe_rshift_func_uint16_t_u_u+0x26>
    5e91:	0f b7 55 fc          	movzwl -0x4(%rbp),%edx
    5e95:	8b 45 f8             	mov    -0x8(%rbp),%eax
    5e98:	89 c1                	mov    %eax,%ecx
    5e9a:	d3 fa                	sar    %cl,%edx
    5e9c:	89 d0                	mov    %edx,%eax
    5e9e:	eb 04                	jmp    5ea4 <safe_rshift_func_uint16_t_u_u+0x2a>
    5ea0:	0f b7 45 fc          	movzwl -0x4(%rbp),%eax
    5ea4:	5d                   	pop    %rbp
    5ea5:	c3                   	retq   

0000000000005ea6 <safe_unary_minus_func_uint32_t_u>:
    5ea6:	f3 0f 1e fa          	endbr64 
    5eaa:	55                   	push   %rbp
    5eab:	48 89 e5             	mov    %rsp,%rbp
    5eae:	89 7d fc             	mov    %edi,-0x4(%rbp)
    5eb1:	8b 45 fc             	mov    -0x4(%rbp),%eax
    5eb4:	f7 d8                	neg    %eax
    5eb6:	5d                   	pop    %rbp
    5eb7:	c3                   	retq   

0000000000005eb8 <safe_add_func_uint32_t_u_u>:
    5eb8:	f3 0f 1e fa          	endbr64 
    5ebc:	55                   	push   %rbp
    5ebd:	48 89 e5             	mov    %rsp,%rbp
    5ec0:	89 7d fc             	mov    %edi,-0x4(%rbp)
    5ec3:	89 75 f8             	mov    %esi,-0x8(%rbp)
    5ec6:	8b 55 fc             	mov    -0x4(%rbp),%edx
    5ec9:	8b 45 f8             	mov    -0x8(%rbp),%eax
    5ecc:	01 d0                	add    %edx,%eax
    5ece:	5d                   	pop    %rbp
    5ecf:	c3                   	retq   

0000000000005ed0 <safe_sub_func_uint32_t_u_u>:
    5ed0:	f3 0f 1e fa          	endbr64 
    5ed4:	55                   	push   %rbp
    5ed5:	48 89 e5             	mov    %rsp,%rbp
    5ed8:	89 7d fc             	mov    %edi,-0x4(%rbp)
    5edb:	89 75 f8             	mov    %esi,-0x8(%rbp)
    5ede:	8b 45 fc             	mov    -0x4(%rbp),%eax
    5ee1:	2b 45 f8             	sub    -0x8(%rbp),%eax
    5ee4:	5d                   	pop    %rbp
    5ee5:	c3                   	retq   

0000000000005ee6 <safe_mul_func_uint32_t_u_u>:
    5ee6:	f3 0f 1e fa          	endbr64 
    5eea:	55                   	push   %rbp
    5eeb:	48 89 e5             	mov    %rsp,%rbp
    5eee:	89 7d fc             	mov    %edi,-0x4(%rbp)
    5ef1:	89 75 f8             	mov    %esi,-0x8(%rbp)
    5ef4:	8b 45 fc             	mov    -0x4(%rbp),%eax
    5ef7:	0f af 45 f8          	imul   -0x8(%rbp),%eax
    5efb:	5d                   	pop    %rbp
    5efc:	c3                   	retq   

0000000000005efd <safe_mod_func_uint32_t_u_u>:
    5efd:	f3 0f 1e fa          	endbr64 
    5f01:	55                   	push   %rbp
    5f02:	48 89 e5             	mov    %rsp,%rbp
    5f05:	89 7d fc             	mov    %edi,-0x4(%rbp)
    5f08:	89 75 f8             	mov    %esi,-0x8(%rbp)
    5f0b:	83 7d f8 00          	cmpl   $0x0,-0x8(%rbp)
    5f0f:	74 0f                	je     5f20 <safe_mod_func_uint32_t_u_u+0x23>
    5f11:	8b 45 fc             	mov    -0x4(%rbp),%eax
    5f14:	ba 00 00 00 00       	mov    $0x0,%edx
    5f19:	f7 75 f8             	divl   -0x8(%rbp)
    5f1c:	89 d0                	mov    %edx,%eax
    5f1e:	eb 03                	jmp    5f23 <safe_mod_func_uint32_t_u_u+0x26>
    5f20:	8b 45 fc             	mov    -0x4(%rbp),%eax
    5f23:	5d                   	pop    %rbp
    5f24:	c3                   	retq   

0000000000005f25 <safe_div_func_uint32_t_u_u>:
    5f25:	f3 0f 1e fa          	endbr64 
    5f29:	55                   	push   %rbp
    5f2a:	48 89 e5             	mov    %rsp,%rbp
    5f2d:	89 7d fc             	mov    %edi,-0x4(%rbp)
    5f30:	89 75 f8             	mov    %esi,-0x8(%rbp)
    5f33:	83 7d f8 00          	cmpl   $0x0,-0x8(%rbp)
    5f37:	74 0d                	je     5f46 <safe_div_func_uint32_t_u_u+0x21>
    5f39:	8b 45 fc             	mov    -0x4(%rbp),%eax
    5f3c:	ba 00 00 00 00       	mov    $0x0,%edx
    5f41:	f7 75 f8             	divl   -0x8(%rbp)
    5f44:	eb 03                	jmp    5f49 <safe_div_func_uint32_t_u_u+0x24>
    5f46:	8b 45 fc             	mov    -0x4(%rbp),%eax
    5f49:	5d                   	pop    %rbp
    5f4a:	c3                   	retq   

0000000000005f4b <safe_lshift_func_uint32_t_u_s>:
    5f4b:	f3 0f 1e fa          	endbr64 
    5f4f:	55                   	push   %rbp
    5f50:	48 89 e5             	mov    %rsp,%rbp
    5f53:	89 7d fc             	mov    %edi,-0x4(%rbp)
    5f56:	89 75 f8             	mov    %esi,-0x8(%rbp)
    5f59:	83 7d f8 00          	cmpl   $0x0,-0x8(%rbp)
    5f5d:	78 27                	js     5f86 <safe_lshift_func_uint32_t_u_s+0x3b>
    5f5f:	83 7d f8 1f          	cmpl   $0x1f,-0x8(%rbp)
    5f63:	7f 21                	jg     5f86 <safe_lshift_func_uint32_t_u_s+0x3b>
    5f65:	8b 45 f8             	mov    -0x8(%rbp),%eax
    5f68:	ba ff ff ff ff       	mov    $0xffffffff,%edx
    5f6d:	89 c1                	mov    %eax,%ecx
    5f6f:	d3 ea                	shr    %cl,%edx
    5f71:	89 d0                	mov    %edx,%eax
    5f73:	39 45 fc             	cmp    %eax,-0x4(%rbp)
    5f76:	77 0e                	ja     5f86 <safe_lshift_func_uint32_t_u_s+0x3b>
    5f78:	8b 45 f8             	mov    -0x8(%rbp),%eax
    5f7b:	8b 55 fc             	mov    -0x4(%rbp),%edx
    5f7e:	89 c1                	mov    %eax,%ecx
    5f80:	d3 e2                	shl    %cl,%edx
    5f82:	89 d0                	mov    %edx,%eax
    5f84:	eb 03                	jmp    5f89 <safe_lshift_func_uint32_t_u_s+0x3e>
    5f86:	8b 45 fc             	mov    -0x4(%rbp),%eax
    5f89:	5d                   	pop    %rbp
    5f8a:	c3                   	retq   

0000000000005f8b <safe_lshift_func_uint32_t_u_u>:
    5f8b:	f3 0f 1e fa          	endbr64 
    5f8f:	55                   	push   %rbp
    5f90:	48 89 e5             	mov    %rsp,%rbp
    5f93:	89 7d fc             	mov    %edi,-0x4(%rbp)
    5f96:	89 75 f8             	mov    %esi,-0x8(%rbp)
    5f99:	83 7d f8 1f          	cmpl   $0x1f,-0x8(%rbp)
    5f9d:	77 21                	ja     5fc0 <safe_lshift_func_uint32_t_u_u+0x35>
    5f9f:	8b 45 f8             	mov    -0x8(%rbp),%eax
    5fa2:	ba ff ff ff ff       	mov    $0xffffffff,%edx
    5fa7:	89 c1                	mov    %eax,%ecx
    5fa9:	d3 ea                	shr    %cl,%edx
    5fab:	89 d0                	mov    %edx,%eax
    5fad:	39 45 fc             	cmp    %eax,-0x4(%rbp)
    5fb0:	77 0e                	ja     5fc0 <safe_lshift_func_uint32_t_u_u+0x35>
    5fb2:	8b 45 f8             	mov    -0x8(%rbp),%eax
    5fb5:	8b 55 fc             	mov    -0x4(%rbp),%edx
    5fb8:	89 c1                	mov    %eax,%ecx
    5fba:	d3 e2                	shl    %cl,%edx
    5fbc:	89 d0                	mov    %edx,%eax
    5fbe:	eb 03                	jmp    5fc3 <safe_lshift_func_uint32_t_u_u+0x38>
    5fc0:	8b 45 fc             	mov    -0x4(%rbp),%eax
    5fc3:	5d                   	pop    %rbp
    5fc4:	c3                   	retq   

0000000000005fc5 <safe_rshift_func_uint32_t_u_s>:
    5fc5:	f3 0f 1e fa          	endbr64 
    5fc9:	55                   	push   %rbp
    5fca:	48 89 e5             	mov    %rsp,%rbp
    5fcd:	89 7d fc             	mov    %edi,-0x4(%rbp)
    5fd0:	89 75 f8             	mov    %esi,-0x8(%rbp)
    5fd3:	83 7d f8 00          	cmpl   $0x0,-0x8(%rbp)
    5fd7:	78 14                	js     5fed <safe_rshift_func_uint32_t_u_s+0x28>
    5fd9:	83 7d f8 1f          	cmpl   $0x1f,-0x8(%rbp)
    5fdd:	7f 0e                	jg     5fed <safe_rshift_func_uint32_t_u_s+0x28>
    5fdf:	8b 45 f8             	mov    -0x8(%rbp),%eax
    5fe2:	8b 55 fc             	mov    -0x4(%rbp),%edx
    5fe5:	89 c1                	mov    %eax,%ecx
    5fe7:	d3 ea                	shr    %cl,%edx
    5fe9:	89 d0                	mov    %edx,%eax
    5feb:	eb 03                	jmp    5ff0 <safe_rshift_func_uint32_t_u_s+0x2b>
    5fed:	8b 45 fc             	mov    -0x4(%rbp),%eax
    5ff0:	5d                   	pop    %rbp
    5ff1:	c3                   	retq   

0000000000005ff2 <safe_rshift_func_uint32_t_u_u>:
    5ff2:	f3 0f 1e fa          	endbr64 
    5ff6:	55                   	push   %rbp
    5ff7:	48 89 e5             	mov    %rsp,%rbp
    5ffa:	89 7d fc             	mov    %edi,-0x4(%rbp)
    5ffd:	89 75 f8             	mov    %esi,-0x8(%rbp)
    6000:	83 7d f8 1f          	cmpl   $0x1f,-0x8(%rbp)
    6004:	77 0e                	ja     6014 <safe_rshift_func_uint32_t_u_u+0x22>
    6006:	8b 45 f8             	mov    -0x8(%rbp),%eax
    6009:	8b 55 fc             	mov    -0x4(%rbp),%edx
    600c:	89 c1                	mov    %eax,%ecx
    600e:	d3 ea                	shr    %cl,%edx
    6010:	89 d0                	mov    %edx,%eax
    6012:	eb 03                	jmp    6017 <safe_rshift_func_uint32_t_u_u+0x25>
    6014:	8b 45 fc             	mov    -0x4(%rbp),%eax
    6017:	5d                   	pop    %rbp
    6018:	c3                   	retq   

0000000000006019 <safe_unary_minus_func_uint64_t_u>:
    6019:	f3 0f 1e fa          	endbr64 
    601d:	55                   	push   %rbp
    601e:	48 89 e5             	mov    %rsp,%rbp
    6021:	48 89 7d f8          	mov    %rdi,-0x8(%rbp)
    6025:	48 8b 45 f8          	mov    -0x8(%rbp),%rax
    6029:	48 f7 d8             	neg    %rax
    602c:	5d                   	pop    %rbp
    602d:	c3                   	retq   

000000000000602e <safe_add_func_uint64_t_u_u>:
    602e:	f3 0f 1e fa          	endbr64 
    6032:	55                   	push   %rbp
    6033:	48 89 e5             	mov    %rsp,%rbp
    6036:	48 89 7d f8          	mov    %rdi,-0x8(%rbp)
    603a:	48 89 75 f0          	mov    %rsi,-0x10(%rbp)
    603e:	48 8b 55 f8          	mov    -0x8(%rbp),%rdx
    6042:	48 8b 45 f0          	mov    -0x10(%rbp),%rax
    6046:	48 01 d0             	add    %rdx,%rax
    6049:	5d                   	pop    %rbp
    604a:	c3                   	retq   

000000000000604b <safe_sub_func_uint64_t_u_u>:
    604b:	f3 0f 1e fa          	endbr64 
    604f:	55                   	push   %rbp
    6050:	48 89 e5             	mov    %rsp,%rbp
    6053:	48 89 7d f8          	mov    %rdi,-0x8(%rbp)
    6057:	48 89 75 f0          	mov    %rsi,-0x10(%rbp)
    605b:	48 8b 45 f8          	mov    -0x8(%rbp),%rax
    605f:	48 2b 45 f0          	sub    -0x10(%rbp),%rax
    6063:	5d                   	pop    %rbp
    6064:	c3                   	retq   

0000000000006065 <safe_mul_func_uint64_t_u_u>:
    6065:	f3 0f 1e fa          	endbr64 
    6069:	55                   	push   %rbp
    606a:	48 89 e5             	mov    %rsp,%rbp
    606d:	48 89 7d f8          	mov    %rdi,-0x8(%rbp)
    6071:	48 89 75 f0          	mov    %rsi,-0x10(%rbp)
    6075:	48 8b 45 f8          	mov    -0x8(%rbp),%rax
    6079:	48 0f af 45 f0       	imul   -0x10(%rbp),%rax
    607e:	5d                   	pop    %rbp
    607f:	c3                   	retq   

0000000000006080 <safe_mod_func_uint64_t_u_u>:
    6080:	f3 0f 1e fa          	endbr64 
    6084:	55                   	push   %rbp
    6085:	48 89 e5             	mov    %rsp,%rbp
    6088:	48 89 7d f8          	mov    %rdi,-0x8(%rbp)
    608c:	48 89 75 f0          	mov    %rsi,-0x10(%rbp)
    6090:	48 83 7d f0 00       	cmpq   $0x0,-0x10(%rbp)
    6095:	74 12                	je     60a9 <safe_mod_func_uint64_t_u_u+0x29>
    6097:	48 8b 45 f8          	mov    -0x8(%rbp),%rax
    609b:	ba 00 00 00 00       	mov    $0x0,%edx
    60a0:	48 f7 75 f0          	divq   -0x10(%rbp)
    60a4:	48 89 d0             	mov    %rdx,%rax
    60a7:	eb 04                	jmp    60ad <safe_mod_func_uint64_t_u_u+0x2d>
    60a9:	48 8b 45 f8          	mov    -0x8(%rbp),%rax
    60ad:	5d                   	pop    %rbp
    60ae:	c3                   	retq   

00000000000060af <safe_div_func_uint64_t_u_u>:
    60af:	f3 0f 1e fa          	endbr64 
    60b3:	55                   	push   %rbp
    60b4:	48 89 e5             	mov    %rsp,%rbp
    60b7:	48 89 7d f8          	mov    %rdi,-0x8(%rbp)
    60bb:	48 89 75 f0          	mov    %rsi,-0x10(%rbp)
    60bf:	48 83 7d f0 00       	cmpq   $0x0,-0x10(%rbp)
    60c4:	74 0f                	je     60d5 <safe_div_func_uint64_t_u_u+0x26>
    60c6:	48 8b 45 f8          	mov    -0x8(%rbp),%rax
    60ca:	ba 00 00 00 00       	mov    $0x0,%edx
    60cf:	48 f7 75 f0          	divq   -0x10(%rbp)
    60d3:	eb 04                	jmp    60d9 <safe_div_func_uint64_t_u_u+0x2a>
    60d5:	48 8b 45 f8          	mov    -0x8(%rbp),%rax
    60d9:	5d                   	pop    %rbp
    60da:	c3                   	retq   

00000000000060db <safe_lshift_func_uint64_t_u_s>:
    60db:	f3 0f 1e fa          	endbr64 
    60df:	55                   	push   %rbp
    60e0:	48 89 e5             	mov    %rsp,%rbp
    60e3:	48 89 7d f8          	mov    %rdi,-0x8(%rbp)
    60e7:	89 75 f4             	mov    %esi,-0xc(%rbp)
    60ea:	83 7d f4 00          	cmpl   $0x0,-0xc(%rbp)
    60ee:	78 2f                	js     611f <safe_lshift_func_uint64_t_u_s+0x44>
    60f0:	83 7d f4 1f          	cmpl   $0x1f,-0xc(%rbp)
    60f4:	7f 29                	jg     611f <safe_lshift_func_uint64_t_u_s+0x44>
    60f6:	8b 45 f4             	mov    -0xc(%rbp),%eax
    60f9:	48 c7 c2 ff ff ff ff 	mov    $0xffffffffffffffff,%rdx
    6100:	89 c1                	mov    %eax,%ecx
    6102:	48 d3 ea             	shr    %cl,%rdx
    6105:	48 89 d0             	mov    %rdx,%rax
    6108:	48 39 45 f8          	cmp    %rax,-0x8(%rbp)
    610c:	77 11                	ja     611f <safe_lshift_func_uint64_t_u_s+0x44>
    610e:	8b 45 f4             	mov    -0xc(%rbp),%eax
    6111:	48 8b 55 f8          	mov    -0x8(%rbp),%rdx
    6115:	89 c1                	mov    %eax,%ecx
    6117:	48 d3 e2             	shl    %cl,%rdx
    611a:	48 89 d0             	mov    %rdx,%rax
    611d:	eb 04                	jmp    6123 <safe_lshift_func_uint64_t_u_s+0x48>
    611f:	48 8b 45 f8          	mov    -0x8(%rbp),%rax
    6123:	5d                   	pop    %rbp
    6124:	c3                   	retq   

0000000000006125 <safe_lshift_func_uint64_t_u_u>:
    6125:	f3 0f 1e fa          	endbr64 
    6129:	55                   	push   %rbp
    612a:	48 89 e5             	mov    %rsp,%rbp
    612d:	48 89 7d f8          	mov    %rdi,-0x8(%rbp)
    6131:	89 75 f4             	mov    %esi,-0xc(%rbp)
    6134:	83 7d f4 1f          	cmpl   $0x1f,-0xc(%rbp)
    6138:	77 29                	ja     6163 <safe_lshift_func_uint64_t_u_u+0x3e>
    613a:	8b 45 f4             	mov    -0xc(%rbp),%eax
    613d:	48 c7 c2 ff ff ff ff 	mov    $0xffffffffffffffff,%rdx
    6144:	89 c1                	mov    %eax,%ecx
    6146:	48 d3 ea             	shr    %cl,%rdx
    6149:	48 89 d0             	mov    %rdx,%rax
    614c:	48 39 45 f8          	cmp    %rax,-0x8(%rbp)
    6150:	77 11                	ja     6163 <safe_lshift_func_uint64_t_u_u+0x3e>
    6152:	8b 45 f4             	mov    -0xc(%rbp),%eax
    6155:	48 8b 55 f8          	mov    -0x8(%rbp),%rdx
    6159:	89 c1                	mov    %eax,%ecx
    615b:	48 d3 e2             	shl    %cl,%rdx
    615e:	48 89 d0             	mov    %rdx,%rax
    6161:	eb 04                	jmp    6167 <safe_lshift_func_uint64_t_u_u+0x42>
    6163:	48 8b 45 f8          	mov    -0x8(%rbp),%rax
    6167:	5d                   	pop    %rbp
    6168:	c3                   	retq   

0000000000006169 <safe_rshift_func_uint64_t_u_s>:
    6169:	f3 0f 1e fa          	endbr64 
    616d:	55                   	push   %rbp
    616e:	48 89 e5             	mov    %rsp,%rbp
    6171:	48 89 7d f8          	mov    %rdi,-0x8(%rbp)
    6175:	89 75 f4             	mov    %esi,-0xc(%rbp)
    6178:	83 7d f4 00          	cmpl   $0x0,-0xc(%rbp)
    617c:	78 17                	js     6195 <safe_rshift_func_uint64_t_u_s+0x2c>
    617e:	83 7d f4 1f          	cmpl   $0x1f,-0xc(%rbp)
    6182:	7f 11                	jg     6195 <safe_rshift_func_uint64_t_u_s+0x2c>
    6184:	8b 45 f4             	mov    -0xc(%rbp),%eax
    6187:	48 8b 55 f8          	mov    -0x8(%rbp),%rdx
    618b:	89 c1                	mov    %eax,%ecx
    618d:	48 d3 ea             	shr    %cl,%rdx
    6190:	48 89 d0             	mov    %rdx,%rax
    6193:	eb 04                	jmp    6199 <safe_rshift_func_uint64_t_u_s+0x30>
    6195:	48 8b 45 f8          	mov    -0x8(%rbp),%rax
    6199:	5d                   	pop    %rbp
    619a:	c3                   	retq   

000000000000619b <safe_rshift_func_uint64_t_u_u>:
    619b:	f3 0f 1e fa          	endbr64 
    619f:	55                   	push   %rbp
    61a0:	48 89 e5             	mov    %rsp,%rbp
    61a3:	48 89 7d f8          	mov    %rdi,-0x8(%rbp)
    61a7:	89 75 f4             	mov    %esi,-0xc(%rbp)
    61aa:	83 7d f4 1f          	cmpl   $0x1f,-0xc(%rbp)
    61ae:	77 11                	ja     61c1 <safe_rshift_func_uint64_t_u_u+0x26>
    61b0:	8b 45 f4             	mov    -0xc(%rbp),%eax
    61b3:	48 8b 55 f8          	mov    -0x8(%rbp),%rdx
    61b7:	89 c1                	mov    %eax,%ecx
    61b9:	48 d3 ea             	shr    %cl,%rdx
    61bc:	48 89 d0             	mov    %rdx,%rax
    61bf:	eb 04                	jmp    61c5 <safe_rshift_func_uint64_t_u_u+0x2a>
    61c1:	48 8b 45 f8          	mov    -0x8(%rbp),%rax
    61c5:	5d                   	pop    %rbp
    61c6:	c3                   	retq   

00000000000061c7 <safe_add_func_float_f_f>:
    61c7:	f3 0f 1e fa          	endbr64 
    61cb:	55                   	push   %rbp
    61cc:	48 89 e5             	mov    %rsp,%rbp
    61cf:	f3 0f 11 45 fc       	movss  %xmm0,-0x4(%rbp)
    61d4:	f3 0f 11 4d f8       	movss  %xmm1,-0x8(%rbp)
    61d9:	f3 0f 10 4d fc       	movss  -0x4(%rbp),%xmm1
    61de:	f3 0f 10 05 c2 a2 00 	movss  0xa2c2(%rip),%xmm0        # 104a8 <l_596.4644+0x18>
    61e5:	00 
    61e6:	f3 0f 59 c8          	mulss  %xmm0,%xmm1
    61ea:	f3 0f 10 55 f8       	movss  -0x8(%rbp),%xmm2
    61ef:	f3 0f 10 05 b1 a2 00 	movss  0xa2b1(%rip),%xmm0        # 104a8 <l_596.4644+0x18>
    61f6:	00 
    61f7:	f3 0f 59 c2          	mulss  %xmm2,%xmm0
    61fb:	f3 0f 58 c1          	addss  %xmm1,%xmm0
    61ff:	f3 0f 10 0d a9 a2 00 	movss  0xa2a9(%rip),%xmm1        # 104b0 <l_596.4644+0x20>
    6206:	00 
    6207:	0f 54 c1             	andps  %xmm1,%xmm0
    620a:	0f 2f 05 af a2 00 00 	comiss 0xa2af(%rip),%xmm0        # 104c0 <l_596.4644+0x30>
    6211:	76 07                	jbe    621a <safe_add_func_float_f_f+0x53>
    6213:	f3 0f 10 45 fc       	movss  -0x4(%rbp),%xmm0
    6218:	eb 0a                	jmp    6224 <safe_add_func_float_f_f+0x5d>
    621a:	f3 0f 10 45 fc       	movss  -0x4(%rbp),%xmm0
    621f:	f3 0f 58 45 f8       	addss  -0x8(%rbp),%xmm0
    6224:	5d                   	pop    %rbp
    6225:	c3                   	retq   

0000000000006226 <safe_sub_func_float_f_f>:
    6226:	f3 0f 1e fa          	endbr64 
    622a:	55                   	push   %rbp
    622b:	48 89 e5             	mov    %rsp,%rbp
    622e:	f3 0f 11 45 fc       	movss  %xmm0,-0x4(%rbp)
    6233:	f3 0f 11 4d f8       	movss  %xmm1,-0x8(%rbp)
    6238:	f3 0f 10 4d fc       	movss  -0x4(%rbp),%xmm1
    623d:	f3 0f 10 05 63 a2 00 	movss  0xa263(%rip),%xmm0        # 104a8 <l_596.4644+0x18>
    6244:	00 
    6245:	f3 0f 59 c1          	mulss  %xmm1,%xmm0
    6249:	f3 0f 10 55 f8       	movss  -0x8(%rbp),%xmm2
    624e:	f3 0f 10 0d 52 a2 00 	movss  0xa252(%rip),%xmm1        # 104a8 <l_596.4644+0x18>
    6255:	00 
    6256:	f3 0f 59 ca          	mulss  %xmm2,%xmm1
    625a:	f3 0f 5c c1          	subss  %xmm1,%xmm0
    625e:	f3 0f 10 0d 4a a2 00 	movss  0xa24a(%rip),%xmm1        # 104b0 <l_596.4644+0x20>
    6265:	00 
    6266:	0f 54 c1             	andps  %xmm1,%xmm0
    6269:	0f 2f 05 50 a2 00 00 	comiss 0xa250(%rip),%xmm0        # 104c0 <l_596.4644+0x30>
    6270:	76 07                	jbe    6279 <safe_sub_func_float_f_f+0x53>
    6272:	f3 0f 10 45 fc       	movss  -0x4(%rbp),%xmm0
    6277:	eb 0a                	jmp    6283 <safe_sub_func_float_f_f+0x5d>
    6279:	f3 0f 10 45 fc       	movss  -0x4(%rbp),%xmm0
    627e:	f3 0f 5c 45 f8       	subss  -0x8(%rbp),%xmm0
    6283:	5d                   	pop    %rbp
    6284:	c3                   	retq   

0000000000006285 <safe_mul_func_float_f_f>:
    6285:	f3 0f 1e fa          	endbr64 
    6289:	55                   	push   %rbp
    628a:	48 89 e5             	mov    %rsp,%rbp
    628d:	f3 0f 11 45 fc       	movss  %xmm0,-0x4(%rbp)
    6292:	f3 0f 11 4d f8       	movss  %xmm1,-0x8(%rbp)
    6297:	f3 0f 10 4d fc       	movss  -0x4(%rbp),%xmm1
    629c:	f3 0f 10 05 20 a2 00 	movss  0xa220(%rip),%xmm0        # 104c4 <l_596.4644+0x34>
    62a3:	00 
    62a4:	f3 0f 59 c8          	mulss  %xmm0,%xmm1
    62a8:	f3 0f 10 55 f8       	movss  -0x8(%rbp),%xmm2
    62ad:	f3 0f 10 05 13 a2 00 	movss  0xa213(%rip),%xmm0        # 104c8 <l_596.4644+0x38>
    62b4:	00 
    62b5:	f3 0f 59 c2          	mulss  %xmm2,%xmm0
    62b9:	f3 0f 59 c1          	mulss  %xmm1,%xmm0
    62bd:	f3 0f 10 0d eb a1 00 	movss  0xa1eb(%rip),%xmm1        # 104b0 <l_596.4644+0x20>
    62c4:	00 
    62c5:	0f 54 c1             	andps  %xmm1,%xmm0
    62c8:	0f 2f 05 fd a1 00 00 	comiss 0xa1fd(%rip),%xmm0        # 104cc <l_596.4644+0x3c>
    62cf:	76 07                	jbe    62d8 <safe_mul_func_float_f_f+0x53>
    62d1:	f3 0f 10 45 fc       	movss  -0x4(%rbp),%xmm0
    62d6:	eb 0a                	jmp    62e2 <safe_mul_func_float_f_f+0x5d>
    62d8:	f3 0f 10 45 fc       	movss  -0x4(%rbp),%xmm0
    62dd:	f3 0f 59 45 f8       	mulss  -0x8(%rbp),%xmm0
    62e2:	5d                   	pop    %rbp
    62e3:	c3                   	retq   

00000000000062e4 <safe_div_func_float_f_f>:
    62e4:	f3 0f 1e fa          	endbr64 
    62e8:	55                   	push   %rbp
    62e9:	48 89 e5             	mov    %rsp,%rbp
    62ec:	f3 0f 11 45 fc       	movss  %xmm0,-0x4(%rbp)
    62f1:	f3 0f 11 4d f8       	movss  %xmm1,-0x8(%rbp)
    62f6:	f3 0f 10 45 f8       	movss  -0x8(%rbp),%xmm0
    62fb:	f3 0f 10 0d ad a1 00 	movss  0xa1ad(%rip),%xmm1        # 104b0 <l_596.4644+0x20>
    6302:	00 
    6303:	0f 54 c8             	andps  %xmm0,%xmm1
    6306:	f3 0f 10 05 c2 a1 00 	movss  0xa1c2(%rip),%xmm0        # 104d0 <l_596.4644+0x40>
    630d:	00 
    630e:	0f 2f c1             	comiss %xmm1,%xmm0
    6311:	0f 97 c0             	seta   %al
    6314:	83 f0 01             	xor    $0x1,%eax
    6317:	84 c0                	test   %al,%al
    6319:	75 56                	jne    6371 <safe_div_func_float_f_f+0x8d>
    631b:	66 0f ef c0          	pxor   %xmm0,%xmm0
    631f:	0f 2e 45 f8          	ucomiss -0x8(%rbp),%xmm0
    6323:	7a 0a                	jp     632f <safe_div_func_float_f_f+0x4b>
    6325:	66 0f ef c0          	pxor   %xmm0,%xmm0
    6329:	0f 2e 45 f8          	ucomiss -0x8(%rbp),%xmm0
    632d:	74 4e                	je     637d <safe_div_func_float_f_f+0x99>
    632f:	f3 0f 10 4d fc       	movss  -0x4(%rbp),%xmm1
    6334:	f3 0f 10 05 98 a1 00 	movss  0xa198(%rip),%xmm0        # 104d4 <l_596.4644+0x44>
    633b:	00 
    633c:	f3 0f 59 c1          	mulss  %xmm1,%xmm0
    6340:	f3 0f 10 55 f8       	movss  -0x8(%rbp),%xmm2
    6345:	f3 0f 10 0d 8b a1 00 	movss  0xa18b(%rip),%xmm1        # 104d8 <l_596.4644+0x48>
    634c:	00 
    634d:	f3 0f 59 ca          	mulss  %xmm2,%xmm1
    6351:	f3 0f 5e c1          	divss  %xmm1,%xmm0
    6355:	f3 0f 10 0d 53 a1 00 	movss  0xa153(%rip),%xmm1        # 104b0 <l_596.4644+0x20>
    635c:	00 
    635d:	0f 54 c1             	andps  %xmm1,%xmm0
    6360:	0f 2f 05 75 a1 00 00 	comiss 0xa175(%rip),%xmm0        # 104dc <l_596.4644+0x4c>
    6367:	0f 97 c0             	seta   %al
    636a:	83 f0 01             	xor    $0x1,%eax
    636d:	84 c0                	test   %al,%al
    636f:	74 0c                	je     637d <safe_div_func_float_f_f+0x99>
    6371:	f3 0f 10 45 fc       	movss  -0x4(%rbp),%xmm0
    6376:	f3 0f 5e 45 f8       	divss  -0x8(%rbp),%xmm0
    637b:	eb 05                	jmp    6382 <safe_div_func_float_f_f+0x9e>
    637d:	f3 0f 10 45 fc       	movss  -0x4(%rbp),%xmm0
    6382:	5d                   	pop    %rbp
    6383:	c3                   	retq   

0000000000006384 <safe_add_func_double_f_f>:
    6384:	f3 0f 1e fa          	endbr64 
    6388:	55                   	push   %rbp
    6389:	48 89 e5             	mov    %rsp,%rbp
    638c:	f2 0f 11 45 f8       	movsd  %xmm0,-0x8(%rbp)
    6391:	f2 0f 11 4d f0       	movsd  %xmm1,-0x10(%rbp)
    6396:	f2 0f 10 4d f8       	movsd  -0x8(%rbp),%xmm1
    639b:	f2 0f 10 05 3d a1 00 	movsd  0xa13d(%rip),%xmm0        # 104e0 <l_596.4644+0x50>
    63a2:	00 
    63a3:	f2 0f 59 c8          	mulsd  %xmm0,%xmm1
    63a7:	f2 0f 10 55 f0       	movsd  -0x10(%rbp),%xmm2
    63ac:	f2 0f 10 05 2c a1 00 	movsd  0xa12c(%rip),%xmm0        # 104e0 <l_596.4644+0x50>
    63b3:	00 
    63b4:	f2 0f 59 c2          	mulsd  %xmm2,%xmm0
    63b8:	f2 0f 58 c1          	addsd  %xmm1,%xmm0
    63bc:	f3 0f 7e 0d 2c a1 00 	movq   0xa12c(%rip),%xmm1        # 104f0 <l_596.4644+0x60>
    63c3:	00 
    63c4:	66 0f 54 c1          	andpd  %xmm1,%xmm0
    63c8:	66 0f 2f 05 30 a1 00 	comisd 0xa130(%rip),%xmm0        # 10500 <l_596.4644+0x70>
    63cf:	00 
    63d0:	76 07                	jbe    63d9 <safe_add_func_double_f_f+0x55>
    63d2:	f2 0f 10 45 f8       	movsd  -0x8(%rbp),%xmm0
    63d7:	eb 0a                	jmp    63e3 <safe_add_func_double_f_f+0x5f>
    63d9:	f2 0f 10 45 f8       	movsd  -0x8(%rbp),%xmm0
    63de:	f2 0f 58 45 f0       	addsd  -0x10(%rbp),%xmm0
    63e3:	5d                   	pop    %rbp
    63e4:	c3                   	retq   

00000000000063e5 <safe_sub_func_double_f_f>:
    63e5:	f3 0f 1e fa          	endbr64 
    63e9:	55                   	push   %rbp
    63ea:	48 89 e5             	mov    %rsp,%rbp
    63ed:	f2 0f 11 45 f8       	movsd  %xmm0,-0x8(%rbp)
    63f2:	f2 0f 11 4d f0       	movsd  %xmm1,-0x10(%rbp)
    63f7:	f2 0f 10 4d f8       	movsd  -0x8(%rbp),%xmm1
    63fc:	f2 0f 10 05 dc a0 00 	movsd  0xa0dc(%rip),%xmm0        # 104e0 <l_596.4644+0x50>
    6403:	00 
    6404:	f2 0f 59 c1          	mulsd  %xmm1,%xmm0
    6408:	f2 0f 10 55 f0       	movsd  -0x10(%rbp),%xmm2
    640d:	f2 0f 10 0d cb a0 00 	movsd  0xa0cb(%rip),%xmm1        # 104e0 <l_596.4644+0x50>
    6414:	00 
    6415:	f2 0f 59 ca          	mulsd  %xmm2,%xmm1
    6419:	f2 0f 5c c1          	subsd  %xmm1,%xmm0
    641d:	f3 0f 7e 0d cb a0 00 	movq   0xa0cb(%rip),%xmm1        # 104f0 <l_596.4644+0x60>
    6424:	00 
    6425:	66 0f 54 c1          	andpd  %xmm1,%xmm0
    6429:	66 0f 2f 05 cf a0 00 	comisd 0xa0cf(%rip),%xmm0        # 10500 <l_596.4644+0x70>
    6430:	00 
    6431:	76 07                	jbe    643a <safe_sub_func_double_f_f+0x55>
    6433:	f2 0f 10 45 f8       	movsd  -0x8(%rbp),%xmm0
    6438:	eb 0a                	jmp    6444 <safe_sub_func_double_f_f+0x5f>
    643a:	f2 0f 10 45 f8       	movsd  -0x8(%rbp),%xmm0
    643f:	f2 0f 5c 45 f0       	subsd  -0x10(%rbp),%xmm0
    6444:	5d                   	pop    %rbp
    6445:	c3                   	retq   

0000000000006446 <safe_mul_func_double_f_f>:
    6446:	f3 0f 1e fa          	endbr64 
    644a:	55                   	push   %rbp
    644b:	48 89 e5             	mov    %rsp,%rbp
    644e:	f2 0f 11 45 f8       	movsd  %xmm0,-0x8(%rbp)
    6453:	f2 0f 11 4d f0       	movsd  %xmm1,-0x10(%rbp)
    6458:	f2 0f 10 4d f8       	movsd  -0x8(%rbp),%xmm1
    645d:	f2 0f 10 05 a3 a0 00 	movsd  0xa0a3(%rip),%xmm0        # 10508 <l_596.4644+0x78>
    6464:	00 
    6465:	f2 0f 59 c8          	mulsd  %xmm0,%xmm1
    6469:	f2 0f 10 55 f0       	movsd  -0x10(%rbp),%xmm2
    646e:	f2 0f 10 05 9a a0 00 	movsd  0xa09a(%rip),%xmm0        # 10510 <l_596.4644+0x80>
    6475:	00 
    6476:	f2 0f 59 c2          	mulsd  %xmm2,%xmm0
    647a:	f2 0f 59 c1          	mulsd  %xmm1,%xmm0
    647e:	f3 0f 7e 0d 6a a0 00 	movq   0xa06a(%rip),%xmm1        # 104f0 <l_596.4644+0x60>
    6485:	00 
    6486:	66 0f 54 c1          	andpd  %xmm1,%xmm0
    648a:	66 0f 2f 05 86 a0 00 	comisd 0xa086(%rip),%xmm0        # 10518 <l_596.4644+0x88>
    6491:	00 
    6492:	76 07                	jbe    649b <safe_mul_func_double_f_f+0x55>
    6494:	f2 0f 10 45 f8       	movsd  -0x8(%rbp),%xmm0
    6499:	eb 0a                	jmp    64a5 <safe_mul_func_double_f_f+0x5f>
    649b:	f2 0f 10 45 f8       	movsd  -0x8(%rbp),%xmm0
    64a0:	f2 0f 59 45 f0       	mulsd  -0x10(%rbp),%xmm0
    64a5:	5d                   	pop    %rbp
    64a6:	c3                   	retq   

00000000000064a7 <safe_div_func_double_f_f>:
    64a7:	f3 0f 1e fa          	endbr64 
    64ab:	55                   	push   %rbp
    64ac:	48 89 e5             	mov    %rsp,%rbp
    64af:	f2 0f 11 45 f8       	movsd  %xmm0,-0x8(%rbp)
    64b4:	f2 0f 11 4d f0       	movsd  %xmm1,-0x10(%rbp)
    64b9:	f2 0f 10 45 f0       	movsd  -0x10(%rbp),%xmm0
    64be:	f3 0f 7e 0d 2a a0 00 	movq   0xa02a(%rip),%xmm1        # 104f0 <l_596.4644+0x60>
    64c5:	00 
    64c6:	66 0f 54 c8          	andpd  %xmm0,%xmm1
    64ca:	f2 0f 10 05 4e a0 00 	movsd  0xa04e(%rip),%xmm0        # 10520 <l_596.4644+0x90>
    64d1:	00 
    64d2:	66 0f 2f c1          	comisd %xmm1,%xmm0
    64d6:	0f 97 c0             	seta   %al
    64d9:	83 f0 01             	xor    $0x1,%eax
    64dc:	84 c0                	test   %al,%al
    64de:	75 5a                	jne    653a <safe_div_func_double_f_f+0x93>
    64e0:	66 0f ef c0          	pxor   %xmm0,%xmm0
    64e4:	66 0f 2e 45 f0       	ucomisd -0x10(%rbp),%xmm0
    64e9:	7a 0b                	jp     64f6 <safe_div_func_double_f_f+0x4f>
    64eb:	66 0f ef c0          	pxor   %xmm0,%xmm0
    64ef:	66 0f 2e 45 f0       	ucomisd -0x10(%rbp),%xmm0
    64f4:	74 50                	je     6546 <safe_div_func_double_f_f+0x9f>
    64f6:	f2 0f 10 4d f8       	movsd  -0x8(%rbp),%xmm1
    64fb:	f2 0f 10 05 25 a0 00 	movsd  0xa025(%rip),%xmm0        # 10528 <l_596.4644+0x98>
    6502:	00 
    6503:	f2 0f 59 c1          	mulsd  %xmm1,%xmm0
    6507:	f2 0f 10 55 f0       	movsd  -0x10(%rbp),%xmm2
    650c:	f2 0f 10 0d 1c a0 00 	movsd  0xa01c(%rip),%xmm1        # 10530 <l_596.4644+0xa0>
    6513:	00 
    6514:	f2 0f 59 ca          	mulsd  %xmm2,%xmm1
    6518:	f2 0f 5e c1          	divsd  %xmm1,%xmm0
    651c:	f3 0f 7e 0d cc 9f 00 	movq   0x9fcc(%rip),%xmm1        # 104f0 <l_596.4644+0x60>
    6523:	00 
    6524:	66 0f 54 c1          	andpd  %xmm1,%xmm0
    6528:	66 0f 2f 05 08 a0 00 	comisd 0xa008(%rip),%xmm0        # 10538 <l_596.4644+0xa8>
    652f:	00 
    6530:	0f 97 c0             	seta   %al
    6533:	83 f0 01             	xor    $0x1,%eax
    6536:	84 c0                	test   %al,%al
    6538:	74 0c                	je     6546 <safe_div_func_double_f_f+0x9f>
    653a:	f2 0f 10 45 f8       	movsd  -0x8(%rbp),%xmm0
    653f:	f2 0f 5e 45 f0       	divsd  -0x10(%rbp),%xmm0
    6544:	eb 05                	jmp    654b <safe_div_func_double_f_f+0xa4>
    6546:	f2 0f 10 45 f8       	movsd  -0x8(%rbp),%xmm0
    654b:	5d                   	pop    %rbp
    654c:	c3                   	retq   

000000000000654d <safe_convert_func_float_to_int32_t>:
    654d:	f3 0f 1e fa          	endbr64 
    6551:	55                   	push   %rbp
    6552:	48 89 e5             	mov    %rsp,%rbp
    6555:	f3 0f 11 45 fc       	movss  %xmm0,-0x4(%rbp)
    655a:	f3 0f 10 05 de 9f 00 	movss  0x9fde(%rip),%xmm0        # 10540 <l_596.4644+0xb0>
    6561:	00 
    6562:	0f 2f 45 fc          	comiss -0x4(%rbp),%xmm0
    6566:	0f 93 c0             	setae  %al
    6569:	83 f0 01             	xor    $0x1,%eax
    656c:	84 c0                	test   %al,%al
    656e:	74 21                	je     6591 <safe_convert_func_float_to_int32_t+0x44>
    6570:	f3 0f 10 45 fc       	movss  -0x4(%rbp),%xmm0
    6575:	0f 2f 05 c8 9f 00 00 	comiss 0x9fc8(%rip),%xmm0        # 10544 <l_596.4644+0xb4>
    657c:	0f 93 c0             	setae  %al
    657f:	83 f0 01             	xor    $0x1,%eax
    6582:	84 c0                	test   %al,%al
    6584:	74 0b                	je     6591 <safe_convert_func_float_to_int32_t+0x44>
    6586:	f3 0f 10 45 fc       	movss  -0x4(%rbp),%xmm0
    658b:	f3 0f 2c c0          	cvttss2si %xmm0,%eax
    658f:	eb 05                	jmp    6596 <safe_convert_func_float_to_int32_t+0x49>
    6591:	b8 ff ff ff 7f       	mov    $0x7fffffff,%eax
    6596:	5d                   	pop    %rbp
    6597:	c3                   	retq   

0000000000006598 <crc32_gentab>:
    6598:	f3 0f 1e fa          	endbr64 
    659c:	55                   	push   %rbp
    659d:	48 89 e5             	mov    %rsp,%rbp
    65a0:	c7 45 fc 20 83 b8 ed 	movl   $0xedb88320,-0x4(%rbp)
    65a7:	c7 45 f4 00 00 00 00 	movl   $0x0,-0xc(%rbp)
    65ae:	eb 51                	jmp    6601 <crc32_gentab+0x69>
    65b0:	8b 45 f4             	mov    -0xc(%rbp),%eax
    65b3:	89 45 f0             	mov    %eax,-0x10(%rbp)
    65b6:	c7 45 f8 08 00 00 00 	movl   $0x8,-0x8(%rbp)
    65bd:	eb 1e                	jmp    65dd <crc32_gentab+0x45>
    65bf:	8b 45 f0             	mov    -0x10(%rbp),%eax
    65c2:	83 e0 01             	and    $0x1,%eax
    65c5:	85 c0                	test   %eax,%eax
    65c7:	74 0d                	je     65d6 <crc32_gentab+0x3e>
    65c9:	8b 45 f0             	mov    -0x10(%rbp),%eax
    65cc:	d1 e8                	shr    %eax
    65ce:	33 45 fc             	xor    -0x4(%rbp),%eax
    65d1:	89 45 f0             	mov    %eax,-0x10(%rbp)
    65d4:	eb 03                	jmp    65d9 <crc32_gentab+0x41>
    65d6:	d1 6d f0             	shrl   -0x10(%rbp)
    65d9:	83 6d f8 01          	subl   $0x1,-0x8(%rbp)
    65dd:	83 7d f8 00          	cmpl   $0x0,-0x8(%rbp)
    65e1:	7f dc                	jg     65bf <crc32_gentab+0x27>
    65e3:	8b 45 f4             	mov    -0xc(%rbp),%eax
    65e6:	48 98                	cltq   
    65e8:	48 8d 0c 85 00 00 00 	lea    0x0(,%rax,4),%rcx
    65ef:	00 
    65f0:	48 8d 15 69 e7 00 00 	lea    0xe769(%rip),%rdx        # 14d60 <crc32_tab>
    65f7:	8b 45 f0             	mov    -0x10(%rbp),%eax
    65fa:	89 04 11             	mov    %eax,(%rcx,%rdx,1)
    65fd:	83 45 f4 01          	addl   $0x1,-0xc(%rbp)
    6601:	81 7d f4 ff 00 00 00 	cmpl   $0xff,-0xc(%rbp)
    6608:	7e a6                	jle    65b0 <crc32_gentab+0x18>
    660a:	90                   	nop
    660b:	90                   	nop
    660c:	5d                   	pop    %rbp
    660d:	c3                   	retq   

000000000000660e <crc32_byte>:
    660e:	f3 0f 1e fa          	endbr64 
    6612:	55                   	push   %rbp
    6613:	48 89 e5             	mov    %rsp,%rbp
    6616:	89 f8                	mov    %edi,%eax
    6618:	88 45 fc             	mov    %al,-0x4(%rbp)
    661b:	8b 05 ff c9 00 00    	mov    0xc9ff(%rip),%eax        # 13020 <crc32_context>
    6621:	c1 e8 08             	shr    $0x8,%eax
    6624:	89 c1                	mov    %eax,%ecx
    6626:	0f b6 55 fc          	movzbl -0x4(%rbp),%edx
    662a:	8b 05 f0 c9 00 00    	mov    0xc9f0(%rip),%eax        # 13020 <crc32_context>
    6630:	31 d0                	xor    %edx,%eax
    6632:	0f b6 c0             	movzbl %al,%eax
    6635:	89 c0                	mov    %eax,%eax
    6637:	48 8d 14 85 00 00 00 	lea    0x0(,%rax,4),%rdx
    663e:	00 
    663f:	48 8d 05 1a e7 00 00 	lea    0xe71a(%rip),%rax        # 14d60 <crc32_tab>
    6646:	8b 04 02             	mov    (%rdx,%rax,1),%eax
    6649:	31 c8                	xor    %ecx,%eax
    664b:	89 05 cf c9 00 00    	mov    %eax,0xc9cf(%rip)        # 13020 <crc32_context>
    6651:	90                   	nop
    6652:	5d                   	pop    %rbp
    6653:	c3                   	retq   

0000000000006654 <crc32_8bytes>:
    6654:	f3 0f 1e fa          	endbr64 
    6658:	55                   	push   %rbp
    6659:	48 89 e5             	mov    %rsp,%rbp
    665c:	48 83 ec 08          	sub    $0x8,%rsp
    6660:	48 89 7d f8          	mov    %rdi,-0x8(%rbp)
    6664:	48 8b 45 f8          	mov    -0x8(%rbp),%rax
    6668:	0f b6 c0             	movzbl %al,%eax
    666b:	89 c7                	mov    %eax,%edi
    666d:	e8 9c ff ff ff       	callq  660e <crc32_byte>
    6672:	48 8b 45 f8          	mov    -0x8(%rbp),%rax
    6676:	48 c1 e8 08          	shr    $0x8,%rax
    667a:	0f b6 c0             	movzbl %al,%eax
    667d:	89 c7                	mov    %eax,%edi
    667f:	e8 8a ff ff ff       	callq  660e <crc32_byte>
    6684:	48 8b 45 f8          	mov    -0x8(%rbp),%rax
    6688:	48 c1 e8 10          	shr    $0x10,%rax
    668c:	0f b6 c0             	movzbl %al,%eax
    668f:	89 c7                	mov    %eax,%edi
    6691:	e8 78 ff ff ff       	callq  660e <crc32_byte>
    6696:	48 8b 45 f8          	mov    -0x8(%rbp),%rax
    669a:	48 c1 e8 18          	shr    $0x18,%rax
    669e:	0f b6 c0             	movzbl %al,%eax
    66a1:	89 c7                	mov    %eax,%edi
    66a3:	e8 66 ff ff ff       	callq  660e <crc32_byte>
    66a8:	48 8b 45 f8          	mov    -0x8(%rbp),%rax
    66ac:	48 c1 e8 20          	shr    $0x20,%rax
    66b0:	0f b6 c0             	movzbl %al,%eax
    66b3:	89 c7                	mov    %eax,%edi
    66b5:	e8 54 ff ff ff       	callq  660e <crc32_byte>
    66ba:	48 8b 45 f8          	mov    -0x8(%rbp),%rax
    66be:	48 c1 e8 28          	shr    $0x28,%rax
    66c2:	0f b6 c0             	movzbl %al,%eax
    66c5:	89 c7                	mov    %eax,%edi
    66c7:	e8 42 ff ff ff       	callq  660e <crc32_byte>
    66cc:	48 8b 45 f8          	mov    -0x8(%rbp),%rax
    66d0:	48 c1 e8 30          	shr    $0x30,%rax
    66d4:	0f b6 c0             	movzbl %al,%eax
    66d7:	89 c7                	mov    %eax,%edi
    66d9:	e8 30 ff ff ff       	callq  660e <crc32_byte>
    66de:	48 8b 45 f8          	mov    -0x8(%rbp),%rax
    66e2:	48 c1 e8 38          	shr    $0x38,%rax
    66e6:	0f b6 c0             	movzbl %al,%eax
    66e9:	89 c7                	mov    %eax,%edi
    66eb:	e8 1e ff ff ff       	callq  660e <crc32_byte>
    66f0:	90                   	nop
    66f1:	c9                   	leaveq 
    66f2:	c3                   	retq   

00000000000066f3 <transparent_crc>:
    66f3:	f3 0f 1e fa          	endbr64 
    66f7:	55                   	push   %rbp
    66f8:	48 89 e5             	mov    %rsp,%rbp
    66fb:	48 83 ec 20          	sub    $0x20,%rsp
    66ff:	48 89 7d f8          	mov    %rdi,-0x8(%rbp)
    6703:	48 89 75 f0          	mov    %rsi,-0x10(%rbp)
    6707:	89 55 ec             	mov    %edx,-0x14(%rbp)
    670a:	48 8b 45 f8          	mov    -0x8(%rbp),%rax
    670e:	48 89 c7             	mov    %rax,%rdi
    6711:	e8 3e ff ff ff       	callq  6654 <crc32_8bytes>
    6716:	83 7d ec 00          	cmpl   $0x0,-0x14(%rbp)
    671a:	74 22                	je     673e <transparent_crc+0x4b>
    671c:	8b 05 fe c8 00 00    	mov    0xc8fe(%rip),%eax        # 13020 <crc32_context>
    6722:	f7 d0                	not    %eax
    6724:	89 c2                	mov    %eax,%edx
    6726:	48 8b 45 f0          	mov    -0x10(%rbp),%rax
    672a:	48 89 c6             	mov    %rax,%rsi
    672d:	48 8d 3d fc 88 00 00 	lea    0x88fc(%rip),%rdi        # f030 <_IO_stdin_used+0x30>
    6734:	b8 00 00 00 00       	mov    $0x0,%eax
    6739:	e8 42 e9 ff ff       	callq  5080 <printf@plt>
    673e:	90                   	nop
    673f:	c9                   	leaveq 
    6740:	c3                   	retq   

0000000000006741 <transparent_crc_bytes>:
    6741:	f3 0f 1e fa          	endbr64 
    6745:	55                   	push   %rbp
    6746:	48 89 e5             	mov    %rsp,%rbp
    6749:	48 83 ec 30          	sub    $0x30,%rsp
    674d:	48 89 7d e8          	mov    %rdi,-0x18(%rbp)
    6751:	89 75 e4             	mov    %esi,-0x1c(%rbp)
    6754:	48 89 55 d8          	mov    %rdx,-0x28(%rbp)
    6758:	89 4d e0             	mov    %ecx,-0x20(%rbp)
    675b:	c7 45 fc 00 00 00 00 	movl   $0x0,-0x4(%rbp)
    6762:	eb 1e                	jmp    6782 <transparent_crc_bytes+0x41>
    6764:	8b 45 fc             	mov    -0x4(%rbp),%eax
    6767:	48 63 d0             	movslq %eax,%rdx
    676a:	48 8b 45 e8          	mov    -0x18(%rbp),%rax
    676e:	48 01 d0             	add    %rdx,%rax
    6771:	0f b6 00             	movzbl (%rax),%eax
    6774:	0f b6 c0             	movzbl %al,%eax
    6777:	89 c7                	mov    %eax,%edi
    6779:	e8 90 fe ff ff       	callq  660e <crc32_byte>
    677e:	83 45 fc 01          	addl   $0x1,-0x4(%rbp)
    6782:	8b 45 fc             	mov    -0x4(%rbp),%eax
    6785:	3b 45 e4             	cmp    -0x1c(%rbp),%eax
    6788:	7c da                	jl     6764 <transparent_crc_bytes+0x23>
    678a:	83 7d e0 00          	cmpl   $0x0,-0x20(%rbp)
    678e:	74 22                	je     67b2 <transparent_crc_bytes+0x71>
    6790:	8b 05 8a c8 00 00    	mov    0xc88a(%rip),%eax        # 13020 <crc32_context>
    6796:	f7 d0                	not    %eax
    6798:	89 c2                	mov    %eax,%edx
    679a:	48 8b 45 d8          	mov    -0x28(%rbp),%rax
    679e:	48 89 c6             	mov    %rax,%rsi
    67a1:	48 8d 3d 88 88 00 00 	lea    0x8888(%rip),%rdi        # f030 <_IO_stdin_used+0x30>
    67a8:	b8 00 00 00 00       	mov    $0x0,%eax
    67ad:	e8 ce e8 ff ff       	callq  5080 <printf@plt>
    67b2:	90                   	nop
    67b3:	c9                   	leaveq 
    67b4:	c3                   	retq   

00000000000067b5 <func_1>:
    67b5:	f3 0f 1e fa          	endbr64 
    67b9:	55                   	push   %rbp
    67ba:	48 89 e5             	mov    %rsp,%rbp
    67bd:	53                   	push   %rbx
    67be:	48 83 ec 38          	sub    $0x38,%rsp
    67c2:	64 48 8b 04 25 28 00 	mov    %fs:0x28,%rax
    67c9:	00 00 
    67cb:	48 89 45 e8          	mov    %rax,-0x18(%rbp)
    67cf:	31 c0                	xor    %eax,%eax
    67d1:	66 c7 45 ca 51 cb    	movw   $0xcb51,-0x36(%rbp)
    67d7:	c7 45 cc 00 00 00 00 	movl   $0x0,-0x34(%rbp)
    67de:	eb 10                	jmp    67f0 <func_1+0x3b>
    67e0:	8b 45 cc             	mov    -0x34(%rbp),%eax
    67e3:	48 98                	cltq   
    67e5:	66 c7 44 45 d0 01 00 	movw   $0x1,-0x30(%rbp,%rax,2)
    67ec:	83 45 cc 01          	addl   $0x1,-0x34(%rbp)
    67f0:	83 7d cc 07          	cmpl   $0x7,-0x34(%rbp)
    67f4:	7e ea                	jle    67e0 <func_1+0x2b>
    67f6:	0f b7 45 ca          	movzwl -0x36(%rbp),%eax
    67fa:	0f be d0             	movsbl %al,%edx
    67fd:	0f b7 4d ca          	movzwl -0x36(%rbp),%ecx
    6801:	0f b7 45 ca          	movzwl -0x36(%rbp),%eax
    6805:	48 8b 1d d4 dd 00 00 	mov    0xddd4(%rip),%rbx        # 145e0 <g_474>
    680c:	89 ce                	mov    %ecx,%esi
    680e:	89 c7                	mov    %eax,%edi
    6810:	e8 22 00 00 00       	callq  6837 <func_2>
    6815:	89 03                	mov    %eax,(%rbx)
    6817:	0f b7 45 d6          	movzwl -0x2a(%rbp),%eax
    681b:	98                   	cwtl   
    681c:	48 8b 75 e8          	mov    -0x18(%rbp),%rsi
    6820:	64 48 33 34 25 28 00 	xor    %fs:0x28,%rsi
    6827:	00 00 
    6829:	74 05                	je     6830 <func_1+0x7b>
    682b:	e8 40 e8 ff ff       	callq  5070 <__stack_chk_fail@plt>
    6830:	48 83 c4 38          	add    $0x38,%rsp
    6834:	5b                   	pop    %rbx
    6835:	5d                   	pop    %rbp
    6836:	c3                   	retq   

0000000000006837 <func_2>:
    6837:	f3 0f 1e fa          	endbr64 
    683b:	55                   	push   %rbp
    683c:	48 89 e5             	mov    %rsp,%rbp
    683f:	48 83 ec 50          	sub    $0x50,%rsp
    6843:	89 7d bc             	mov    %edi,-0x44(%rbp)
    6846:	89 75 b8             	mov    %esi,-0x48(%rbp)
    6849:	89 d0                	mov    %edx,%eax
    684b:	88 45 b4             	mov    %al,-0x4c(%rbp)
    684e:	64 48 8b 04 25 28 00 	mov    %fs:0x28,%rax
    6855:	00 00 
    6857:	48 89 45 f8          	mov    %rax,-0x8(%rbp)
    685b:	31 c0                	xor    %eax,%eax
    685d:	48 8d 05 c0 c7 00 00 	lea    0xc7c0(%rip),%rax        # 13024 <g_10>
    6864:	48 89 45 c0          	mov    %rax,-0x40(%rbp)
    6868:	48 8d 05 b5 c7 00 00 	lea    0xc7b5(%rip),%rax        # 13024 <g_10>
    686f:	48 89 45 c8          	mov    %rax,-0x38(%rbp)
    6873:	48 8d 05 aa c7 00 00 	lea    0xc7aa(%rip),%rax        # 13024 <g_10>
    687a:	48 89 45 d0          	mov    %rax,-0x30(%rbp)
    687e:	48 8d 05 9f c7 00 00 	lea    0xc79f(%rip),%rax        # 13024 <g_10>
    6885:	48 89 45 d8          	mov    %rax,-0x28(%rbp)
    6889:	48 8d 05 94 c7 00 00 	lea    0xc794(%rip),%rax        # 13024 <g_10>
    6890:	48 89 45 e0          	mov    %rax,-0x20(%rbp)
    6894:	48 8d 05 89 c7 00 00 	lea    0xc789(%rip),%rax        # 13024 <g_10>
    689b:	48 89 45 e8          	mov    %rax,-0x18(%rbp)
    689f:	48 8b 45 c0          	mov    -0x40(%rbp),%rax
    68a3:	48 89 c7             	mov    %rax,%rdi
    68a6:	e8 1d 00 00 00       	callq  68c8 <func_7>
    68ab:	48 89 45 e0          	mov    %rax,-0x20(%rbp)
    68af:	8b 45 bc             	mov    -0x44(%rbp),%eax
    68b2:	48 8b 4d f8          	mov    -0x8(%rbp),%rcx
    68b6:	64 48 33 0c 25 28 00 	xor    %fs:0x28,%rcx
    68bd:	00 00 
    68bf:	74 05                	je     68c6 <func_2+0x8f>
    68c1:	e8 aa e7 ff ff       	callq  5070 <__stack_chk_fail@plt>
    68c6:	c9                   	leaveq 
    68c7:	c3                   	retq   

00000000000068c8 <func_7>:
    68c8:	f3 0f 1e fa          	endbr64 
    68cc:	55                   	push   %rbp
    68cd:	48 89 e5             	mov    %rsp,%rbp
    68d0:	41 57                	push   %r15
    68d2:	41 56                	push   %r14
    68d4:	41 55                	push   %r13
    68d6:	41 54                	push   %r12
    68d8:	53                   	push   %rbx
    68d9:	48 81 ec 38 08 00 00 	sub    $0x838,%rsp
    68e0:	48 89 bd b8 f7 ff ff 	mov    %rdi,-0x848(%rbp)
    68e7:	64 48 8b 04 25 28 00 	mov    %fs:0x28,%rax
    68ee:	00 00 
    68f0:	48 89 45 c8          	mov    %rax,-0x38(%rbp)
    68f4:	31 c0                	xor    %eax,%eax
    68f6:	48 c7 85 40 f8 ff ff 	movq   $0xfffffffffffffffb,-0x7c0(%rbp)
    68fd:	fb ff ff ff 
    6901:	48 8d 05 1c c7 00 00 	lea    0xc71c(%rip),%rax        # 13024 <g_10>
    6908:	48 89 85 f8 f7 ff ff 	mov    %rax,-0x808(%rbp)
    690f:	48 c7 85 48 f8 ff ff 	movq   $0x0,-0x7b8(%rbp)
    6916:	00 00 00 00 
    691a:	48 8d 05 d7 c7 00 00 	lea    0xc7d7(%rip),%rax        # 130f8 <g_74>
    6921:	48 89 85 50 f8 ff ff 	mov    %rax,-0x7b0(%rbp)
    6928:	48 8d 05 b5 c9 00 00 	lea    0xc9b5(%rip),%rax        # 132e4 <g_467>
    692f:	48 89 85 00 f8 ff ff 	mov    %rax,-0x800(%rbp)
    6936:	48 8d 85 00 f8 ff ff 	lea    -0x800(%rbp),%rax
    693d:	48 89 85 08 f8 ff ff 	mov    %rax,-0x7f8(%rbp)
    6944:	48 8d 85 08 f8 ff ff 	lea    -0x7f8(%rbp),%rax
    694b:	48 89 85 10 f8 ff ff 	mov    %rax,-0x7f0(%rbp)
    6952:	48 8d 85 10 f8 ff ff 	lea    -0x7f0(%rbp),%rax
    6959:	48 89 85 58 f8 ff ff 	mov    %rax,-0x7a8(%rbp)
    6960:	c7 85 d8 f7 ff ff b3 	movl   $0xba0e45b3,-0x828(%rbp)
    6967:	45 0e ba 
    696a:	48 8d 05 67 dc 00 00 	lea    0xdc67(%rip),%rax        # 145d8 <g_382>
    6971:	48 89 85 60 f8 ff ff 	mov    %rax,-0x7a0(%rbp)
    6978:	c7 85 dc f7 ff ff 01 	movl   $0x1,-0x824(%rbp)
    697f:	00 00 00 
    6982:	c7 85 e0 f7 ff ff 4d 	movl   $0x522e5a4d,-0x820(%rbp)
    6989:	5a 2e 52 
    698c:	48 c7 85 68 f8 ff ff 	movq   $0x0,-0x798(%rbp)
    6993:	00 00 00 00 
    6997:	48 8d 05 ca e7 00 00 	lea    0xe7ca(%rip),%rax        # 15168 <g_133>
    699e:	48 89 85 18 f8 ff ff 	mov    %rax,-0x7e8(%rbp)
    69a5:	c7 85 e4 f7 ff ff 00 	movl   $0x0,-0x81c(%rbp)
    69ac:	00 00 00 
    69af:	48 c7 85 20 f8 ff ff 	movq   $0x0,-0x7e0(%rbp)
    69b6:	00 00 00 00 
    69ba:	48 8d 85 20 f8 ff ff 	lea    -0x7e0(%rbp),%rax
    69c1:	48 89 85 28 f8 ff ff 	mov    %rax,-0x7d8(%rbp)
    69c8:	48 c7 85 70 f8 ff ff 	movq   $0x0,-0x790(%rbp)
    69cf:	00 00 00 00 
    69d3:	48 c7 85 78 f8 ff ff 	movq   $0x0,-0x788(%rbp)
    69da:	00 00 00 00 
    69de:	48 8d 05 9b e1 00 00 	lea    0xe19b(%rip),%rax        # 14b80 <g_1593+0x20>
    69e5:	48 89 85 30 f8 ff ff 	mov    %rax,-0x7d0(%rbp)
    69ec:	48 8d 85 30 f8 ff ff 	lea    -0x7d0(%rbp),%rax
    69f3:	48 89 85 80 f8 ff ff 	mov    %rax,-0x780(%rbp)
    69fa:	48 c7 85 88 f8 ff ff 	movq   $0x3,-0x778(%rbp)
    6a01:	03 00 00 00 
    6a05:	c7 85 e8 f7 ff ff c9 	movl   $0x260f9ac9,-0x818(%rbp)
    6a0c:	9a 0f 26 
    6a0f:	48 c7 85 90 f8 ff ff 	movq   $0x0,-0x770(%rbp)
    6a16:	00 00 00 00 
    6a1a:	48 8d 05 67 de 00 00 	lea    0xde67(%rip),%rax        # 14888 <g_803>
    6a21:	48 89 85 98 f8 ff ff 	mov    %rax,-0x768(%rbp)
    6a28:	c7 85 c4 f7 ff ff 00 	movl   $0x0,-0x83c(%rbp)
    6a2f:	00 00 00 
    6a32:	eb 1b                	jmp    6a4f <func_7+0x187>
    6a34:	8b 85 c4 f7 ff ff    	mov    -0x83c(%rbp),%eax
    6a3a:	48 98                	cltq   
    6a3c:	48 c7 84 c5 f0 f8 ff 	movq   $0x0,-0x710(%rbp,%rax,8)
    6a43:	ff 00 00 00 00 
    6a48:	83 85 c4 f7 ff ff 01 	addl   $0x1,-0x83c(%rbp)
    6a4f:	83 bd c4 f7 ff ff 00 	cmpl   $0x0,-0x83c(%rbp)
    6a56:	7e dc                	jle    6a34 <func_7+0x16c>
    6a58:	c7 85 c4 f7 ff ff 00 	movl   $0x0,-0x83c(%rbp)
    6a5f:	00 00 00 
    6a62:	eb 1a                	jmp    6a7e <func_7+0x1b6>
    6a64:	8b 85 c4 f7 ff ff    	mov    -0x83c(%rbp),%eax
    6a6a:	48 98                	cltq   
    6a6c:	c7 84 85 ec f8 ff ff 	movl   $0xccfc6d3a,-0x714(%rbp,%rax,4)
    6a73:	3a 6d fc cc 
    6a77:	83 85 c4 f7 ff ff 01 	addl   $0x1,-0x83c(%rbp)
    6a7e:	83 bd c4 f7 ff ff 00 	cmpl   $0x0,-0x83c(%rbp)
    6a85:	7e dd                	jle    6a64 <func_7+0x19c>
    6a87:	c7 05 93 c5 00 00 07 	movl   $0x7,0xc593(%rip)        # 13024 <g_10>
    6a8e:	00 00 00 
    6a91:	e9 c0 09 00 00       	jmpq   7456 <func_7+0xb8e>
    6a96:	48 8d 05 af c5 00 00 	lea    0xc5af(%rip),%rax        # 1304c <g_29+0xc>
    6a9d:	48 89 85 38 f8 ff ff 	mov    %rax,-0x7c8(%rbp)
    6aa4:	48 8d 05 29 c6 00 00 	lea    0xc629(%rip),%rax        # 130d4 <g_31+0x14>
    6aab:	48 89 85 b8 f8 ff ff 	mov    %rax,-0x748(%rbp)
    6ab2:	48 8d 05 33 c6 00 00 	lea    0xc633(%rip),%rax        # 130ec <g_47+0x4>
    6ab9:	48 89 85 c0 f8 ff ff 	mov    %rax,-0x740(%rbp)
    6ac0:	48 8d 05 2d c6 00 00 	lea    0xc62d(%rip),%rax        # 130f4 <g_56>
    6ac7:	48 89 85 c8 f8 ff ff 	mov    %rax,-0x738(%rbp)
    6ace:	48 8d 05 e3 da 00 00 	lea    0xdae3(%rip),%rax        # 145b8 <g_256>
    6ad5:	48 89 85 60 fb ff ff 	mov    %rax,-0x4a0(%rbp)
    6adc:	48 8d 85 38 f8 ff ff 	lea    -0x7c8(%rbp),%rax
    6ae3:	48 89 85 68 fb ff ff 	mov    %rax,-0x498(%rbp)
    6aea:	48 8d 85 f8 f7 ff ff 	lea    -0x808(%rbp),%rax
    6af1:	48 89 85 70 fb ff ff 	mov    %rax,-0x490(%rbp)
    6af8:	48 8d 85 f8 f7 ff ff 	lea    -0x808(%rbp),%rax
    6aff:	48 89 85 78 fb ff ff 	mov    %rax,-0x488(%rbp)
    6b06:	48 8d 85 f8 f7 ff ff 	lea    -0x808(%rbp),%rax
    6b0d:	48 89 85 80 fb ff ff 	mov    %rax,-0x480(%rbp)
    6b14:	48 8d 85 f8 f7 ff ff 	lea    -0x808(%rbp),%rax
    6b1b:	48 89 85 88 fb ff ff 	mov    %rax,-0x478(%rbp)
    6b22:	48 8d 85 f8 f7 ff ff 	lea    -0x808(%rbp),%rax
    6b29:	48 89 85 90 fb ff ff 	mov    %rax,-0x470(%rbp)
    6b30:	48 8d 85 38 f8 ff ff 	lea    -0x7c8(%rbp),%rax
    6b37:	48 89 85 98 fb ff ff 	mov    %rax,-0x468(%rbp)
    6b3e:	48 8d 05 73 da 00 00 	lea    0xda73(%rip),%rax        # 145b8 <g_256>
    6b45:	48 89 85 a0 fb ff ff 	mov    %rax,-0x460(%rbp)
    6b4c:	48 8d 85 f8 f7 ff ff 	lea    -0x808(%rbp),%rax
    6b53:	48 89 85 a8 fb ff ff 	mov    %rax,-0x458(%rbp)
    6b5a:	48 8d 85 f8 f7 ff ff 	lea    -0x808(%rbp),%rax
    6b61:	48 89 85 b0 fb ff ff 	mov    %rax,-0x450(%rbp)
    6b68:	48 8d 05 49 da 00 00 	lea    0xda49(%rip),%rax        # 145b8 <g_256>
    6b6f:	48 89 85 b8 fb ff ff 	mov    %rax,-0x448(%rbp)
    6b76:	48 8d 85 f8 f7 ff ff 	lea    -0x808(%rbp),%rax
    6b7d:	48 89 85 c0 fb ff ff 	mov    %rax,-0x440(%rbp)
    6b84:	48 8d 85 38 f8 ff ff 	lea    -0x7c8(%rbp),%rax
    6b8b:	48 89 85 c8 fb ff ff 	mov    %rax,-0x438(%rbp)
    6b92:	48 8d 85 f8 f7 ff ff 	lea    -0x808(%rbp),%rax
    6b99:	48 89 85 d0 fb ff ff 	mov    %rax,-0x430(%rbp)
    6ba0:	48 8d 05 11 da 00 00 	lea    0xda11(%rip),%rax        # 145b8 <g_256>
    6ba7:	48 89 85 d8 fb ff ff 	mov    %rax,-0x428(%rbp)
    6bae:	48 8d 85 f8 f7 ff ff 	lea    -0x808(%rbp),%rax
    6bb5:	48 89 85 e0 fb ff ff 	mov    %rax,-0x420(%rbp)
    6bbc:	48 8d 85 f8 f7 ff ff 	lea    -0x808(%rbp),%rax
    6bc3:	48 89 85 e8 fb ff ff 	mov    %rax,-0x418(%rbp)
    6bca:	48 8d 05 e7 d9 00 00 	lea    0xd9e7(%rip),%rax        # 145b8 <g_256>
    6bd1:	48 89 85 f0 fb ff ff 	mov    %rax,-0x410(%rbp)
    6bd8:	48 8d 85 38 f8 ff ff 	lea    -0x7c8(%rbp),%rax
    6bdf:	48 89 85 f8 fb ff ff 	mov    %rax,-0x408(%rbp)
    6be6:	48 8d 85 f8 f7 ff ff 	lea    -0x808(%rbp),%rax
    6bed:	48 89 85 00 fc ff ff 	mov    %rax,-0x400(%rbp)
    6bf4:	48 8d 85 f8 f7 ff ff 	lea    -0x808(%rbp),%rax
    6bfb:	48 89 85 08 fc ff ff 	mov    %rax,-0x3f8(%rbp)
    6c02:	48 8d 85 f8 f7 ff ff 	lea    -0x808(%rbp),%rax
    6c09:	48 89 85 10 fc ff ff 	mov    %rax,-0x3f0(%rbp)
    6c10:	48 8d 85 f8 f7 ff ff 	lea    -0x808(%rbp),%rax
    6c17:	48 89 85 18 fc ff ff 	mov    %rax,-0x3e8(%rbp)
    6c1e:	48 8d 85 f8 f7 ff ff 	lea    -0x808(%rbp),%rax
    6c25:	48 89 85 20 fc ff ff 	mov    %rax,-0x3e0(%rbp)
    6c2c:	48 8d 85 38 f8 ff ff 	lea    -0x7c8(%rbp),%rax
    6c33:	48 89 85 28 fc ff ff 	mov    %rax,-0x3d8(%rbp)
    6c3a:	48 8d 05 77 d9 00 00 	lea    0xd977(%rip),%rax        # 145b8 <g_256>
    6c41:	48 89 85 30 fc ff ff 	mov    %rax,-0x3d0(%rbp)
    6c48:	48 8d 85 f8 f7 ff ff 	lea    -0x808(%rbp),%rax
    6c4f:	48 89 85 38 fc ff ff 	mov    %rax,-0x3c8(%rbp)
    6c56:	48 8d 85 f8 f7 ff ff 	lea    -0x808(%rbp),%rax
    6c5d:	48 89 85 40 fc ff ff 	mov    %rax,-0x3c0(%rbp)
    6c64:	48 8d 05 4d d9 00 00 	lea    0xd94d(%rip),%rax        # 145b8 <g_256>
    6c6b:	48 89 85 48 fc ff ff 	mov    %rax,-0x3b8(%rbp)
    6c72:	48 8d 85 f8 f7 ff ff 	lea    -0x808(%rbp),%rax
    6c79:	48 89 85 50 fc ff ff 	mov    %rax,-0x3b0(%rbp)
    6c80:	48 8d 85 38 f8 ff ff 	lea    -0x7c8(%rbp),%rax
    6c87:	48 89 85 58 fc ff ff 	mov    %rax,-0x3a8(%rbp)
    6c8e:	48 8d 85 f8 f7 ff ff 	lea    -0x808(%rbp),%rax
    6c95:	48 89 85 60 fc ff ff 	mov    %rax,-0x3a0(%rbp)
    6c9c:	48 8d 05 15 d9 00 00 	lea    0xd915(%rip),%rax        # 145b8 <g_256>
    6ca3:	48 89 85 68 fc ff ff 	mov    %rax,-0x398(%rbp)
    6caa:	48 8d 85 f8 f7 ff ff 	lea    -0x808(%rbp),%rax
    6cb1:	48 89 85 70 fc ff ff 	mov    %rax,-0x390(%rbp)
    6cb8:	48 8d 85 f8 f7 ff ff 	lea    -0x808(%rbp),%rax
    6cbf:	48 89 85 78 fc ff ff 	mov    %rax,-0x388(%rbp)
    6cc6:	48 8d 05 eb d8 00 00 	lea    0xd8eb(%rip),%rax        # 145b8 <g_256>
    6ccd:	48 89 85 80 fc ff ff 	mov    %rax,-0x380(%rbp)
    6cd4:	48 8d 85 38 f8 ff ff 	lea    -0x7c8(%rbp),%rax
    6cdb:	48 89 85 88 fc ff ff 	mov    %rax,-0x378(%rbp)
    6ce2:	48 8d 85 f8 f7 ff ff 	lea    -0x808(%rbp),%rax
    6ce9:	48 89 85 90 fc ff ff 	mov    %rax,-0x370(%rbp)
    6cf0:	48 8d 85 f8 f7 ff ff 	lea    -0x808(%rbp),%rax
    6cf7:	48 89 85 98 fc ff ff 	mov    %rax,-0x368(%rbp)
    6cfe:	48 8d 85 f8 f7 ff ff 	lea    -0x808(%rbp),%rax
    6d05:	48 89 85 a0 fc ff ff 	mov    %rax,-0x360(%rbp)
    6d0c:	48 8d 85 f8 f7 ff ff 	lea    -0x808(%rbp),%rax
    6d13:	48 89 85 a8 fc ff ff 	mov    %rax,-0x358(%rbp)
    6d1a:	48 8d 85 f8 f7 ff ff 	lea    -0x808(%rbp),%rax
    6d21:	48 89 85 b0 fc ff ff 	mov    %rax,-0x350(%rbp)
    6d28:	48 8d 85 38 f8 ff ff 	lea    -0x7c8(%rbp),%rax
    6d2f:	48 89 85 b8 fc ff ff 	mov    %rax,-0x348(%rbp)
    6d36:	48 8d 05 7b d8 00 00 	lea    0xd87b(%rip),%rax        # 145b8 <g_256>
    6d3d:	48 89 85 c0 fc ff ff 	mov    %rax,-0x340(%rbp)
    6d44:	48 8d 85 f8 f7 ff ff 	lea    -0x808(%rbp),%rax
    6d4b:	48 89 85 c8 fc ff ff 	mov    %rax,-0x338(%rbp)
    6d52:	48 8d 85 f8 f7 ff ff 	lea    -0x808(%rbp),%rax
    6d59:	48 89 85 d0 fc ff ff 	mov    %rax,-0x330(%rbp)
    6d60:	48 8d 05 51 d8 00 00 	lea    0xd851(%rip),%rax        # 145b8 <g_256>
    6d67:	48 89 85 d8 fc ff ff 	mov    %rax,-0x328(%rbp)
    6d6e:	48 8d 85 f8 f7 ff ff 	lea    -0x808(%rbp),%rax
    6d75:	48 89 85 e0 fc ff ff 	mov    %rax,-0x320(%rbp)
    6d7c:	48 8d 85 38 f8 ff ff 	lea    -0x7c8(%rbp),%rax
    6d83:	48 89 85 e8 fc ff ff 	mov    %rax,-0x318(%rbp)
    6d8a:	48 8d 85 f8 f7 ff ff 	lea    -0x808(%rbp),%rax
    6d91:	48 89 85 f0 fc ff ff 	mov    %rax,-0x310(%rbp)
    6d98:	48 8d 05 19 d8 00 00 	lea    0xd819(%rip),%rax        # 145b8 <g_256>
    6d9f:	48 89 85 f8 fc ff ff 	mov    %rax,-0x308(%rbp)
    6da6:	48 8d 85 f8 f7 ff ff 	lea    -0x808(%rbp),%rax
    6dad:	48 89 85 00 fd ff ff 	mov    %rax,-0x300(%rbp)
    6db4:	48 8d 85 f8 f7 ff ff 	lea    -0x808(%rbp),%rax
    6dbb:	48 89 85 08 fd ff ff 	mov    %rax,-0x2f8(%rbp)
    6dc2:	48 8d 05 ef d7 00 00 	lea    0xd7ef(%rip),%rax        # 145b8 <g_256>
    6dc9:	48 89 85 10 fd ff ff 	mov    %rax,-0x2f0(%rbp)
    6dd0:	48 8d 85 38 f8 ff ff 	lea    -0x7c8(%rbp),%rax
    6dd7:	48 89 85 18 fd ff ff 	mov    %rax,-0x2e8(%rbp)
    6dde:	48 8d 85 f8 f7 ff ff 	lea    -0x808(%rbp),%rax
    6de5:	48 89 85 20 fd ff ff 	mov    %rax,-0x2e0(%rbp)
    6dec:	48 8d 85 f8 f7 ff ff 	lea    -0x808(%rbp),%rax
    6df3:	48 89 85 28 fd ff ff 	mov    %rax,-0x2d8(%rbp)
    6dfa:	48 8d 85 f8 f7 ff ff 	lea    -0x808(%rbp),%rax
    6e01:	48 89 85 30 fd ff ff 	mov    %rax,-0x2d0(%rbp)
    6e08:	48 8d 85 f8 f7 ff ff 	lea    -0x808(%rbp),%rax
    6e0f:	48 89 85 38 fd ff ff 	mov    %rax,-0x2c8(%rbp)
    6e16:	48 8d 85 f8 f7 ff ff 	lea    -0x808(%rbp),%rax
    6e1d:	48 89 85 40 fd ff ff 	mov    %rax,-0x2c0(%rbp)
    6e24:	48 8d 85 38 f8 ff ff 	lea    -0x7c8(%rbp),%rax
    6e2b:	48 89 85 48 fd ff ff 	mov    %rax,-0x2b8(%rbp)
    6e32:	48 8d 05 7f d7 00 00 	lea    0xd77f(%rip),%rax        # 145b8 <g_256>
    6e39:	48 89 85 50 fd ff ff 	mov    %rax,-0x2b0(%rbp)
    6e40:	48 8d 85 f8 f7 ff ff 	lea    -0x808(%rbp),%rax
    6e47:	48 89 85 58 fd ff ff 	mov    %rax,-0x2a8(%rbp)
    6e4e:	48 8d 85 f8 f7 ff ff 	lea    -0x808(%rbp),%rax
    6e55:	48 89 85 60 fd ff ff 	mov    %rax,-0x2a0(%rbp)
    6e5c:	48 8d 05 55 d7 00 00 	lea    0xd755(%rip),%rax        # 145b8 <g_256>
    6e63:	48 89 85 68 fd ff ff 	mov    %rax,-0x298(%rbp)
    6e6a:	48 8d 85 f8 f7 ff ff 	lea    -0x808(%rbp),%rax
    6e71:	48 89 85 70 fd ff ff 	mov    %rax,-0x290(%rbp)
    6e78:	48 8d 85 38 f8 ff ff 	lea    -0x7c8(%rbp),%rax
    6e7f:	48 89 85 78 fd ff ff 	mov    %rax,-0x288(%rbp)
    6e86:	48 8d 85 f8 f7 ff ff 	lea    -0x808(%rbp),%rax
    6e8d:	48 89 85 80 fd ff ff 	mov    %rax,-0x280(%rbp)
    6e94:	48 8d 05 1d d7 00 00 	lea    0xd71d(%rip),%rax        # 145b8 <g_256>
    6e9b:	48 89 85 88 fd ff ff 	mov    %rax,-0x278(%rbp)
    6ea2:	48 8d 85 f8 f7 ff ff 	lea    -0x808(%rbp),%rax
    6ea9:	48 89 85 90 fd ff ff 	mov    %rax,-0x270(%rbp)
    6eb0:	48 8d 85 f8 f7 ff ff 	lea    -0x808(%rbp),%rax
    6eb7:	48 89 85 98 fd ff ff 	mov    %rax,-0x268(%rbp)
    6ebe:	48 8d 05 f3 d6 00 00 	lea    0xd6f3(%rip),%rax        # 145b8 <g_256>
    6ec5:	48 89 85 a0 fd ff ff 	mov    %rax,-0x260(%rbp)
    6ecc:	48 8d 85 38 f8 ff ff 	lea    -0x7c8(%rbp),%rax
    6ed3:	48 89 85 a8 fd ff ff 	mov    %rax,-0x258(%rbp)
    6eda:	48 8d 85 f8 f7 ff ff 	lea    -0x808(%rbp),%rax
    6ee1:	48 89 85 b0 fd ff ff 	mov    %rax,-0x250(%rbp)
    6ee8:	48 8d 85 f8 f7 ff ff 	lea    -0x808(%rbp),%rax
    6eef:	48 89 85 b8 fd ff ff 	mov    %rax,-0x248(%rbp)
    6ef6:	48 8d 85 f8 f7 ff ff 	lea    -0x808(%rbp),%rax
    6efd:	48 89 85 c0 fd ff ff 	mov    %rax,-0x240(%rbp)
    6f04:	48 8d 85 f8 f7 ff ff 	lea    -0x808(%rbp),%rax
    6f0b:	48 89 85 c8 fd ff ff 	mov    %rax,-0x238(%rbp)
    6f12:	48 8d 85 f8 f7 ff ff 	lea    -0x808(%rbp),%rax
    6f19:	48 89 85 d0 fd ff ff 	mov    %rax,-0x230(%rbp)
    6f20:	48 8d 85 f8 f7 ff ff 	lea    -0x808(%rbp),%rax
    6f27:	48 89 85 d8 fd ff ff 	mov    %rax,-0x228(%rbp)
    6f2e:	48 8d 85 38 f8 ff ff 	lea    -0x7c8(%rbp),%rax
    6f35:	48 89 85 e0 fd ff ff 	mov    %rax,-0x220(%rbp)
    6f3c:	48 8d 05 75 d6 00 00 	lea    0xd675(%rip),%rax        # 145b8 <g_256>
    6f43:	48 89 85 e8 fd ff ff 	mov    %rax,-0x218(%rbp)
    6f4a:	48 c7 85 f0 fd ff ff 	movq   $0x0,-0x210(%rbp)
    6f51:	00 00 00 00 
    6f55:	48 8d 85 38 f8 ff ff 	lea    -0x7c8(%rbp),%rax
    6f5c:	48 89 85 f8 fd ff ff 	mov    %rax,-0x208(%rbp)
    6f63:	48 8d 05 4e d6 00 00 	lea    0xd64e(%rip),%rax        # 145b8 <g_256>
    6f6a:	48 89 85 00 fe ff ff 	mov    %rax,-0x200(%rbp)
    6f71:	48 8d 85 f8 f7 ff ff 	lea    -0x808(%rbp),%rax
    6f78:	48 89 85 08 fe ff ff 	mov    %rax,-0x1f8(%rbp)
    6f7f:	48 8d 05 32 d6 00 00 	lea    0xd632(%rip),%rax        # 145b8 <g_256>
    6f86:	48 89 85 10 fe ff ff 	mov    %rax,-0x1f0(%rbp)
    6f8d:	48 8d 85 38 f8 ff ff 	lea    -0x7c8(%rbp),%rax
    6f94:	48 89 85 18 fe ff ff 	mov    %rax,-0x1e8(%rbp)
    6f9b:	48 c7 85 20 fe ff ff 	movq   $0x0,-0x1e0(%rbp)
    6fa2:	00 00 00 00 
    6fa6:	48 8d 05 0b d6 00 00 	lea    0xd60b(%rip),%rax        # 145b8 <g_256>
    6fad:	48 89 85 28 fe ff ff 	mov    %rax,-0x1d8(%rbp)
    6fb4:	48 8d 85 38 f8 ff ff 	lea    -0x7c8(%rbp),%rax
    6fbb:	48 89 85 30 fe ff ff 	mov    %rax,-0x1d0(%rbp)
    6fc2:	48 8d 85 f8 f7 ff ff 	lea    -0x808(%rbp),%rax
    6fc9:	48 89 85 38 fe ff ff 	mov    %rax,-0x1c8(%rbp)
    6fd0:	48 8d 85 f8 f7 ff ff 	lea    -0x808(%rbp),%rax
    6fd7:	48 89 85 40 fe ff ff 	mov    %rax,-0x1c0(%rbp)
    6fde:	48 8d 85 f8 f7 ff ff 	lea    -0x808(%rbp),%rax
    6fe5:	48 89 85 48 fe ff ff 	mov    %rax,-0x1b8(%rbp)
    6fec:	48 c7 85 50 fe ff ff 	movq   $0x0,-0x1b0(%rbp)
    6ff3:	00 00 00 00 
    6ff7:	48 8d 85 f8 f7 ff ff 	lea    -0x808(%rbp),%rax
    6ffe:	48 89 85 58 fe ff ff 	mov    %rax,-0x1a8(%rbp)
    7005:	48 8d 85 f8 f7 ff ff 	lea    -0x808(%rbp),%rax
    700c:	48 89 85 60 fe ff ff 	mov    %rax,-0x1a0(%rbp)
    7013:	48 8d 85 f8 f7 ff ff 	lea    -0x808(%rbp),%rax
    701a:	48 89 85 68 fe ff ff 	mov    %rax,-0x198(%rbp)
    7021:	48 8d 85 38 f8 ff ff 	lea    -0x7c8(%rbp),%rax
    7028:	48 89 85 70 fe ff ff 	mov    %rax,-0x190(%rbp)
    702f:	48 8d 05 82 d5 00 00 	lea    0xd582(%rip),%rax        # 145b8 <g_256>
    7036:	48 89 85 78 fe ff ff 	mov    %rax,-0x188(%rbp)
    703d:	48 c7 85 80 fe ff ff 	movq   $0x0,-0x180(%rbp)
    7044:	00 00 00 00 
    7048:	48 8d 85 38 f8 ff ff 	lea    -0x7c8(%rbp),%rax
    704f:	48 89 85 88 fe ff ff 	mov    %rax,-0x178(%rbp)
    7056:	48 8d 05 5b d5 00 00 	lea    0xd55b(%rip),%rax        # 145b8 <g_256>
    705d:	48 89 85 90 fe ff ff 	mov    %rax,-0x170(%rbp)
    7064:	48 8d 85 f8 f7 ff ff 	lea    -0x808(%rbp),%rax
    706b:	48 89 85 98 fe ff ff 	mov    %rax,-0x168(%rbp)
    7072:	48 8d 05 3f d5 00 00 	lea    0xd53f(%rip),%rax        # 145b8 <g_256>
    7079:	48 89 85 a0 fe ff ff 	mov    %rax,-0x160(%rbp)
    7080:	48 8d 85 38 f8 ff ff 	lea    -0x7c8(%rbp),%rax
    7087:	48 89 85 a8 fe ff ff 	mov    %rax,-0x158(%rbp)
    708e:	48 c7 85 b0 fe ff ff 	movq   $0x0,-0x150(%rbp)
    7095:	00 00 00 00 
    7099:	48 8d 05 18 d5 00 00 	lea    0xd518(%rip),%rax        # 145b8 <g_256>
    70a0:	48 89 85 b8 fe ff ff 	mov    %rax,-0x148(%rbp)
    70a7:	48 8d 85 38 f8 ff ff 	lea    -0x7c8(%rbp),%rax
    70ae:	48 89 85 c0 fe ff ff 	mov    %rax,-0x140(%rbp)
    70b5:	48 8d 85 f8 f7 ff ff 	lea    -0x808(%rbp),%rax
    70bc:	48 89 85 c8 fe ff ff 	mov    %rax,-0x138(%rbp)
    70c3:	48 8d 85 f8 f7 ff ff 	lea    -0x808(%rbp),%rax
    70ca:	48 89 85 d0 fe ff ff 	mov    %rax,-0x130(%rbp)
    70d1:	48 8d 85 f8 f7 ff ff 	lea    -0x808(%rbp),%rax
    70d8:	48 89 85 d8 fe ff ff 	mov    %rax,-0x128(%rbp)
    70df:	48 c7 85 e0 fe ff ff 	movq   $0x0,-0x120(%rbp)
    70e6:	00 00 00 00 
    70ea:	48 8d 85 f8 f7 ff ff 	lea    -0x808(%rbp),%rax
    70f1:	48 89 85 e8 fe ff ff 	mov    %rax,-0x118(%rbp)
    70f8:	48 8d 85 f8 f7 ff ff 	lea    -0x808(%rbp),%rax
    70ff:	48 89 85 f0 fe ff ff 	mov    %rax,-0x110(%rbp)
    7106:	48 8d 85 f8 f7 ff ff 	lea    -0x808(%rbp),%rax
    710d:	48 89 85 f8 fe ff ff 	mov    %rax,-0x108(%rbp)
    7114:	48 8d 85 38 f8 ff ff 	lea    -0x7c8(%rbp),%rax
    711b:	48 89 85 00 ff ff ff 	mov    %rax,-0x100(%rbp)
    7122:	48 8d 05 8f d4 00 00 	lea    0xd48f(%rip),%rax        # 145b8 <g_256>
    7129:	48 89 85 08 ff ff ff 	mov    %rax,-0xf8(%rbp)
    7130:	48 c7 85 10 ff ff ff 	movq   $0x0,-0xf0(%rbp)
    7137:	00 00 00 00 
    713b:	48 8d 85 38 f8 ff ff 	lea    -0x7c8(%rbp),%rax
    7142:	48 89 85 18 ff ff ff 	mov    %rax,-0xe8(%rbp)
    7149:	48 8d 05 68 d4 00 00 	lea    0xd468(%rip),%rax        # 145b8 <g_256>
    7150:	48 89 85 20 ff ff ff 	mov    %rax,-0xe0(%rbp)
    7157:	48 8d 85 f8 f7 ff ff 	lea    -0x808(%rbp),%rax
    715e:	48 89 85 28 ff ff ff 	mov    %rax,-0xd8(%rbp)
    7165:	48 8d 05 4c d4 00 00 	lea    0xd44c(%rip),%rax        # 145b8 <g_256>
    716c:	48 89 85 30 ff ff ff 	mov    %rax,-0xd0(%rbp)
    7173:	48 8d 85 38 f8 ff ff 	lea    -0x7c8(%rbp),%rax
    717a:	48 89 85 38 ff ff ff 	mov    %rax,-0xc8(%rbp)
    7181:	48 c7 85 40 ff ff ff 	movq   $0x0,-0xc0(%rbp)
    7188:	00 00 00 00 
    718c:	48 8d 05 25 d4 00 00 	lea    0xd425(%rip),%rax        # 145b8 <g_256>
    7193:	48 89 85 48 ff ff ff 	mov    %rax,-0xb8(%rbp)
    719a:	48 8d 85 38 f8 ff ff 	lea    -0x7c8(%rbp),%rax
    71a1:	48 89 85 50 ff ff ff 	mov    %rax,-0xb0(%rbp)
    71a8:	48 8d 85 f8 f7 ff ff 	lea    -0x808(%rbp),%rax
    71af:	48 89 85 58 ff ff ff 	mov    %rax,-0xa8(%rbp)
    71b6:	48 8d 85 f8 f7 ff ff 	lea    -0x808(%rbp),%rax
    71bd:	48 89 85 60 ff ff ff 	mov    %rax,-0xa0(%rbp)
    71c4:	48 8d 85 f8 f7 ff ff 	lea    -0x808(%rbp),%rax
    71cb:	48 89 85 68 ff ff ff 	mov    %rax,-0x98(%rbp)
    71d2:	48 c7 85 70 ff ff ff 	movq   $0x0,-0x90(%rbp)
    71d9:	00 00 00 00 
    71dd:	48 8d 85 f8 f7 ff ff 	lea    -0x808(%rbp),%rax
    71e4:	48 89 85 78 ff ff ff 	mov    %rax,-0x88(%rbp)
    71eb:	48 8d 85 f8 f7 ff ff 	lea    -0x808(%rbp),%rax
    71f2:	48 89 45 80          	mov    %rax,-0x80(%rbp)
    71f6:	48 8d 85 f8 f7 ff ff 	lea    -0x808(%rbp),%rax
    71fd:	48 89 45 88          	mov    %rax,-0x78(%rbp)
    7201:	48 8d 85 38 f8 ff ff 	lea    -0x7c8(%rbp),%rax
    7208:	48 89 45 90          	mov    %rax,-0x70(%rbp)
    720c:	48 8d 05 a5 d3 00 00 	lea    0xd3a5(%rip),%rax        # 145b8 <g_256>
    7213:	48 89 45 98          	mov    %rax,-0x68(%rbp)
    7217:	48 c7 45 a0 00 00 00 	movq   $0x0,-0x60(%rbp)
    721e:	00 
    721f:	48 8d 85 38 f8 ff ff 	lea    -0x7c8(%rbp),%rax
    7226:	48 89 45 a8          	mov    %rax,-0x58(%rbp)
    722a:	48 8d 05 87 d3 00 00 	lea    0xd387(%rip),%rax        # 145b8 <g_256>
    7231:	48 89 45 b0          	mov    %rax,-0x50(%rbp)
    7235:	48 8d 85 f8 f7 ff ff 	lea    -0x808(%rbp),%rax
    723c:	48 89 45 b8          	mov    %rax,-0x48(%rbp)
    7240:	48 8d 85 e0 f9 ff ff 	lea    -0x620(%rbp),%rax
    7247:	48 8d 15 52 c3 00 00 	lea    0xc352(%rip),%rdx        # 135a0 <g_1833+0x10>
    724e:	b9 30 00 00 00       	mov    $0x30,%ecx
    7253:	48 89 c7             	mov    %rax,%rdi
    7256:	48 89 d6             	mov    %rdx,%rsi
    7259:	f3 48 a5             	rep movsq %ds:(%rsi),%es:(%rdi)
    725c:	48 8d 85 f8 f8 ff ff 	lea    -0x708(%rbp),%rax
    7263:	48 89 85 d0 f8 ff ff 	mov    %rax,-0x730(%rbp)
    726a:	c7 85 f4 f7 ff ff 9e 	movl   $0x37a1e09e,-0x80c(%rbp)
    7271:	e0 a1 37 
    7274:	48 8d 05 09 bf 00 00 	lea    0xbf09(%rip),%rax        # 13184 <g_148>
    727b:	48 89 85 d8 f8 ff ff 	mov    %rax,-0x728(%rbp)
    7282:	c6 85 c2 f7 ff ff fc 	movb   $0xfc,-0x83e(%rbp)
    7289:	c6 85 c3 f7 ff ff 09 	movb   $0x9,-0x83d(%rbp)
    7290:	48 8d 85 28 f8 ff ff 	lea    -0x7d8(%rbp),%rax
    7297:	48 89 85 e0 f8 ff ff 	mov    %rax,-0x720(%rbp)
    729e:	48 c7 85 00 f9 ff ff 	movq   $0x0,-0x700(%rbp)
    72a5:	00 00 00 00 
    72a9:	48 8d 85 18 f8 ff ff 	lea    -0x7e8(%rbp),%rax
    72b0:	48 89 85 08 f9 ff ff 	mov    %rax,-0x6f8(%rbp)
    72b7:	48 8d 85 18 f8 ff ff 	lea    -0x7e8(%rbp),%rax
    72be:	48 89 85 10 f9 ff ff 	mov    %rax,-0x6f0(%rbp)
    72c5:	48 8d 85 18 f8 ff ff 	lea    -0x7e8(%rbp),%rax
    72cc:	48 89 85 18 f9 ff ff 	mov    %rax,-0x6e8(%rbp)
    72d3:	48 c7 85 20 f9 ff ff 	movq   $0x0,-0x6e0(%rbp)
    72da:	00 00 00 00 
    72de:	48 8d 85 18 f8 ff ff 	lea    -0x7e8(%rbp),%rax
    72e5:	48 89 85 28 f9 ff ff 	mov    %rax,-0x6d8(%rbp)
    72ec:	48 8d 85 18 f8 ff ff 	lea    -0x7e8(%rbp),%rax
    72f3:	48 89 85 30 f9 ff ff 	mov    %rax,-0x6d0(%rbp)
    72fa:	48 8d 85 18 f8 ff ff 	lea    -0x7e8(%rbp),%rax
    7301:	48 89 85 38 f9 ff ff 	mov    %rax,-0x6c8(%rbp)
    7308:	48 8d 85 18 f8 ff ff 	lea    -0x7e8(%rbp),%rax
    730f:	48 89 85 40 f9 ff ff 	mov    %rax,-0x6c0(%rbp)
    7316:	48 8d 85 18 f8 ff ff 	lea    -0x7e8(%rbp),%rax
    731d:	48 89 85 48 f9 ff ff 	mov    %rax,-0x6b8(%rbp)
    7324:	48 8d 85 18 f8 ff ff 	lea    -0x7e8(%rbp),%rax
    732b:	48 89 85 50 f9 ff ff 	mov    %rax,-0x6b0(%rbp)
    7332:	48 8d 85 18 f8 ff ff 	lea    -0x7e8(%rbp),%rax
    7339:	48 89 85 58 f9 ff ff 	mov    %rax,-0x6a8(%rbp)
    7340:	48 c7 85 60 f9 ff ff 	movq   $0x0,-0x6a0(%rbp)
    7347:	00 00 00 00 
    734b:	48 8d 85 18 f8 ff ff 	lea    -0x7e8(%rbp),%rax
    7352:	48 89 85 68 f9 ff ff 	mov    %rax,-0x698(%rbp)
    7359:	48 8d 85 18 f8 ff ff 	lea    -0x7e8(%rbp),%rax
    7360:	48 89 85 70 f9 ff ff 	mov    %rax,-0x690(%rbp)
    7367:	48 8d 85 18 f8 ff ff 	lea    -0x7e8(%rbp),%rax
    736e:	48 89 85 78 f9 ff ff 	mov    %rax,-0x688(%rbp)
    7375:	48 c7 85 80 f9 ff ff 	movq   $0x0,-0x680(%rbp)
    737c:	00 00 00 00 
    7380:	48 8d 85 18 f8 ff ff 	lea    -0x7e8(%rbp),%rax
    7387:	48 89 85 88 f9 ff ff 	mov    %rax,-0x678(%rbp)
    738e:	48 8d 85 18 f8 ff ff 	lea    -0x7e8(%rbp),%rax
    7395:	48 89 85 90 f9 ff ff 	mov    %rax,-0x670(%rbp)
    739c:	48 8d 85 18 f8 ff ff 	lea    -0x7e8(%rbp),%rax
    73a3:	48 89 85 98 f9 ff ff 	mov    %rax,-0x668(%rbp)
    73aa:	48 8d 85 18 f8 ff ff 	lea    -0x7e8(%rbp),%rax
    73b1:	48 89 85 a0 f9 ff ff 	mov    %rax,-0x660(%rbp)
    73b8:	48 8d 85 18 f8 ff ff 	lea    -0x7e8(%rbp),%rax
    73bf:	48 89 85 a8 f9 ff ff 	mov    %rax,-0x658(%rbp)
    73c6:	48 8d 85 18 f8 ff ff 	lea    -0x7e8(%rbp),%rax
    73cd:	48 89 85 b0 f9 ff ff 	mov    %rax,-0x650(%rbp)
    73d4:	48 8d 85 18 f8 ff ff 	lea    -0x7e8(%rbp),%rax
    73db:	48 89 85 b8 f9 ff ff 	mov    %rax,-0x648(%rbp)
    73e2:	48 c7 85 c0 f9 ff ff 	movq   $0x0,-0x640(%rbp)
    73e9:	00 00 00 00 
    73ed:	48 8d 85 18 f8 ff ff 	lea    -0x7e8(%rbp),%rax
    73f4:	48 89 85 c8 f9 ff ff 	mov    %rax,-0x638(%rbp)
    73fb:	48 8d 85 18 f8 ff ff 	lea    -0x7e8(%rbp),%rax
    7402:	48 89 85 d0 f9 ff ff 	mov    %rax,-0x630(%rbp)
    7409:	48 8d 85 18 f8 ff ff 	lea    -0x7e8(%rbp),%rax
    7410:	48 89 85 d8 f9 ff ff 	mov    %rax,-0x628(%rbp)
    7417:	c7 85 c8 f7 ff ff 00 	movl   $0x0,-0x838(%rbp)
    741e:	00 00 00 
    7421:	eb 1b                	jmp    743e <func_7+0xb76>
    7423:	8b 85 c8 f7 ff ff    	mov    -0x838(%rbp),%eax
    7429:	48 98                	cltq   
    742b:	48 c7 84 c5 f8 f8 ff 	movq   $0x0,-0x708(%rbp,%rax,8)
    7432:	ff 00 00 00 00 
    7437:	83 85 c8 f7 ff ff 01 	addl   $0x1,-0x838(%rbp)
    743e:	83 bd c8 f7 ff ff 00 	cmpl   $0x0,-0x838(%rbp)
    7445:	7e dc                	jle    7423 <func_7+0xb5b>
    7447:	8b 05 d7 bb 00 00    	mov    0xbbd7(%rip),%eax        # 13024 <g_10>
    744d:	83 e8 01             	sub    $0x1,%eax
    7450:	89 05 ce bb 00 00    	mov    %eax,0xbbce(%rip)        # 13024 <g_10>
    7456:	8b 05 c8 bb 00 00    	mov    0xbbc8(%rip),%eax        # 13024 <g_10>
    745c:	83 f8 e2             	cmp    $0xffffffe2,%eax
    745f:	0f 8d 31 f6 ff ff    	jge    6a96 <func_7+0x1ce>
    7465:	90                   	nop
    7466:	48 8b 85 f8 f7 ff ff 	mov    -0x808(%rbp),%rax
    746d:	8b 00                	mov    (%rax),%eax
    746f:	41 89 c4             	mov    %eax,%r12d
    7472:	48 8b 85 50 f8 ff ff 	mov    -0x7b0(%rbp),%rax
    7479:	8b 00                	mov    (%rax),%eax
    747b:	0f bf d8             	movswl %ax,%ebx
    747e:	48 8b 05 ab d4 00 00 	mov    0xd4ab(%rip),%rax        # 14930 <g_1254>
    7485:	48 8b 00             	mov    (%rax),%rax
    7488:	8b 10                	mov    (%rax),%edx
    748a:	48 8b 85 50 f8 ff ff 	mov    -0x7b0(%rbp),%rax
    7491:	8b 00                	mov    (%rax),%eax
    7493:	31 d0                	xor    %edx,%eax
    7495:	48 98                	cltq   
    7497:	48 be d9 37 d3 90 8a 	movabs $0x1af8ee8a90d337d9,%rsi
    749e:	ee f8 1a 
    74a1:	48 89 c7             	mov    %rax,%rdi
    74a4:	e8 a2 eb ff ff       	callq  604b <safe_sub_func_uint64_t_u_u>
    74a9:	0f be c0             	movsbl %al,%eax
    74ac:	be 69 00 00 00       	mov    $0x69,%esi
    74b1:	89 c7                	mov    %eax,%edi
    74b3:	e8 b2 dd ff ff       	callq  526a <safe_div_func_int8_t_s_s>
    74b8:	89 c2                	mov    %eax,%edx
    74ba:	8b 85 e8 f7 ff ff    	mov    -0x818(%rbp),%eax
    74c0:	31 d0                	xor    %edx,%eax
    74c2:	0f b6 c0             	movzbl %al,%eax
    74c5:	be 04 00 00 00       	mov    $0x4,%esi
    74ca:	89 c7                	mov    %eax,%edi
    74cc:	e8 34 e7 ff ff       	callq  5c05 <safe_lshift_func_uint8_t_u_s>
    74d1:	48 83 bd 90 f8 ff ff 	cmpq   $0x0,-0x770(%rbp)
    74d8:	00 
    74d9:	0f 94 c0             	sete   %al
    74dc:	0f b6 c0             	movzbl %al,%eax
    74df:	89 de                	mov    %ebx,%esi
    74e1:	89 c7                	mov    %eax,%edi
    74e3:	e8 cb de ff ff       	callq  53b3 <safe_add_func_int16_t_s_s>
    74e8:	83 c8 09             	or     $0x9,%eax
    74eb:	89 c2                	mov    %eax,%edx
    74ed:	0f b6 05 94 c0 00 00 	movzbl 0xc094(%rip),%eax        # 13588 <g_1784>
    74f4:	66 98                	cbtw   
    74f6:	66 39 c2             	cmp    %ax,%dx
    74f9:	0f 95 c0             	setne  %al
    74fc:	0f b6 d8             	movzbl %al,%ebx
    74ff:	48 be eb f1 49 c8 09 	movabs $0xf49d2709c849f1eb,%rsi
    7506:	27 9d f4 
    7509:	48 bf f8 ca 36 c7 a0 	movabs $0xa42b0da0c736caf8,%rdi
    7510:	0d 2b a4 
    7513:	e8 df e4 ff ff       	callq  59f7 <safe_div_func_int64_t_s_s>
    7518:	48 8b 85 88 f8 ff ff 	mov    -0x778(%rbp),%rax
    751f:	89 c6                	mov    %eax,%esi
    7521:	bf f6 ff ff ff       	mov    $0xfffffff6,%edi
    7526:	e8 d2 e9 ff ff       	callq  5efd <safe_mod_func_uint32_t_u_u>
    752b:	89 c0                	mov    %eax,%eax
    752d:	48 89 de             	mov    %rbx,%rsi
    7530:	48 89 c7             	mov    %rax,%rdi
    7533:	e8 70 e3 ff ff       	callq  58a8 <safe_sub_func_int64_t_s_s>
    7538:	44 89 e6             	mov    %r12d,%esi
    753b:	89 c7                	mov    %eax,%edi
    753d:	e8 76 e9 ff ff       	callq  5eb8 <safe_add_func_uint32_t_u_u>
    7542:	48 8b 15 8f d0 00 00 	mov    0xd08f(%rip),%rdx        # 145d8 <g_382>
    7549:	48 8b 12             	mov    (%rdx),%rdx
    754c:	0f b7 12             	movzwl (%rdx),%edx
    754f:	0f bf d2             	movswl %dx,%edx
    7552:	21 d0                	and    %edx,%eax
    7554:	89 c2                	mov    %eax,%edx
    7556:	48 8b 85 50 f8 ff ff 	mov    -0x7b0(%rbp),%rax
    755d:	89 10                	mov    %edx,(%rax)
    755f:	48 8b 05 52 d0 00 00 	mov    0xd052(%rip),%rax        # 145b8 <g_256>
    7566:	48 8b 95 50 f8 ff ff 	mov    -0x7b0(%rbp),%rdx
    756d:	8b 12                	mov    (%rdx),%edx
    756f:	89 10                	mov    %edx,(%rax)
    7571:	66 c7 05 8a bb 00 00 	movw   $0x0,0xbb8a(%rip)        # 13104 <g_103>
    7578:	00 00 
    757a:	e9 de 04 00 00       	jmpq   7a5d <func_7+0x1195>
    757f:	c7 85 60 fb ff ff 01 	movl   $0x1,-0x4a0(%rbp)
    7586:	00 00 00 
    7589:	c7 85 64 fb ff ff 01 	movl   $0x1,-0x49c(%rbp)
    7590:	00 00 00 
    7593:	c7 85 68 fb ff ff 01 	movl   $0x1,-0x498(%rbp)
    759a:	00 00 00 
    759d:	c7 85 6c fb ff ff 01 	movl   $0x1,-0x494(%rbp)
    75a4:	00 00 00 
    75a7:	c7 85 70 fb ff ff 01 	movl   $0x1,-0x490(%rbp)
    75ae:	00 00 00 
    75b1:	c7 85 74 fb ff ff 01 	movl   $0x1,-0x48c(%rbp)
    75b8:	00 00 00 
    75bb:	c7 85 78 fb ff ff 01 	movl   $0x1,-0x488(%rbp)
    75c2:	00 00 00 
    75c5:	c7 85 7c fb ff ff 01 	movl   $0x1,-0x484(%rbp)
    75cc:	00 00 00 
    75cf:	c7 85 80 fb ff ff 01 	movl   $0x1,-0x480(%rbp)
    75d6:	00 00 00 
    75d9:	c7 85 84 fb ff ff 01 	movl   $0x1,-0x47c(%rbp)
    75e0:	00 00 00 
    75e3:	c7 85 ec f7 ff ff 35 	movl   $0xca1ca935,-0x814(%rbp)
    75ea:	a9 1c ca 
    75ed:	48 8d 05 84 d5 00 00 	lea    0xd584(%rip),%rax        # 14b78 <g_1593+0x18>
    75f4:	48 89 85 a0 f8 ff ff 	mov    %rax,-0x760(%rbp)
    75fb:	c7 85 cc f7 ff ff 00 	movl   $0x0,-0x834(%rbp)
    7602:	00 00 00 
    7605:	eb 4b                	jmp    7652 <func_7+0xd8a>
    7607:	c7 85 d0 f7 ff ff 00 	movl   $0x0,-0x830(%rbp)
    760e:	00 00 00 
    7611:	eb 2f                	jmp    7642 <func_7+0xd7a>
    7613:	8b 85 d0 f7 ff ff    	mov    -0x830(%rbp),%eax
    7619:	48 98                	cltq   
    761b:	8b 95 cc f7 ff ff    	mov    -0x834(%rbp),%edx
    7621:	48 63 d2             	movslq %edx,%rdx
    7624:	48 c1 e2 02          	shl    $0x2,%rdx
    7628:	48 8d 5d d0          	lea    -0x30(%rbp),%rbx
    762c:	48 01 da             	add    %rbx,%rdx
    762f:	48 01 d0             	add    %rdx,%rax
    7632:	48 2d f0 05 00 00    	sub    $0x5f0,%rax
    7638:	c6 00 f7             	movb   $0xf7,(%rax)
    763b:	83 85 d0 f7 ff ff 01 	addl   $0x1,-0x830(%rbp)
    7642:	83 bd d0 f7 ff ff 03 	cmpl   $0x3,-0x830(%rbp)
    7649:	7e c8                	jle    7613 <func_7+0xd4b>
    764b:	83 85 cc f7 ff ff 01 	addl   $0x1,-0x834(%rbp)
    7652:	83 bd cc f7 ff ff 02 	cmpl   $0x2,-0x834(%rbp)
    7659:	7e ac                	jle    7607 <func_7+0xd3f>
    765b:	c7 05 97 ba 00 00 00 	movl   $0x0,0xba97(%rip)        # 130fc <g_75>
    7662:	00 00 00 
    7665:	e9 97 03 00 00       	jmpq   7a01 <func_7+0x1139>
    766a:	c7 85 f0 f7 ff ff 01 	movl   $0x1,-0x810(%rbp)
    7671:	00 00 00 
    7674:	c7 05 0a bb 00 00 00 	movl   $0x0,0xbb0a(%rip)        # 13188 <g_149>
    767b:	00 00 00 
    767e:	90                   	nop
    767f:	8b 05 03 bb 00 00    	mov    0xbb03(%rip),%eax        # 13188 <g_149>
    7685:	83 f8 02             	cmp    $0x2,%eax
    7688:	0f 87 b0 02 00 00    	ja     793e <func_7+0x1076>
    768e:	48 8d 05 77 ba 00 00 	lea    0xba77(%rip),%rax        # 1310c <g_132>
    7695:	48 89 85 a8 f8 ff ff 	mov    %rax,-0x758(%rbp)
    769c:	48 b8 30 3d b7 65 d2 	movabs $0x19d8d9d265b73d30,%rax
    76a3:	d9 d8 19 
    76a6:	48 89 85 b0 f8 ff ff 	mov    %rax,-0x750(%rbp)
    76ad:	c7 85 d4 f7 ff ff 00 	movl   $0x0,-0x82c(%rbp)
    76b4:	00 00 00 
    76b7:	eb 14                	jmp    76cd <func_7+0xe05>
    76b9:	8b 85 d4 f7 ff ff    	mov    -0x82c(%rbp),%eax
    76bf:	48 98                	cltq   
    76c1:	c6 44 05 c4 3c       	movb   $0x3c,-0x3c(%rbp,%rax,1)
    76c6:	83 85 d4 f7 ff ff 01 	addl   $0x1,-0x82c(%rbp)
    76cd:	83 bd d4 f7 ff ff 03 	cmpl   $0x3,-0x82c(%rbp)
    76d4:	7e e3                	jle    76b9 <func_7+0xdf1>
    76d6:	8b 05 14 bb 00 00    	mov    0xbb14(%rip),%eax        # 131f0 <g_278>
    76dc:	0f b7 05 21 ba 00 00 	movzwl 0xba21(%rip),%eax        # 13104 <g_103>
    76e3:	44 0f b7 e0          	movzwl %ax,%r12d
    76e7:	0f b6 85 ea f9 ff ff 	movzbl -0x616(%rbp),%eax
    76ee:	44 0f b6 e8          	movzbl %al,%r13d
    76f2:	0f b6 85 ea f9 ff ff 	movzbl -0x616(%rbp),%eax
    76f9:	44 0f b6 f0          	movzbl %al,%r14d
    76fd:	0f b6 45 c5          	movzbl -0x3b(%rbp),%eax
    7701:	0f b6 c0             	movzbl %al,%eax
    7704:	89 85 b4 f7 ff ff    	mov    %eax,-0x84c(%rbp)
    770a:	44 8b bd f0 f7 ff ff 	mov    -0x810(%rbp),%r15d
    7711:	0f b6 85 ea f9 ff ff 	movzbl -0x616(%rbp),%eax
    7718:	0f be c8             	movsbl %al,%ecx
    771b:	89 8d b0 f7 ff ff    	mov    %ecx,-0x850(%rbp)
    7721:	8b 05 d9 bc 00 00    	mov    0xbcd9(%rip),%eax        # 13400 <g_499+0x100>
    7727:	0f be f8             	movsbl %al,%edi
    772a:	89 bd ac f7 ff ff    	mov    %edi,-0x854(%rbp)
    7730:	be 02 00 00 00       	mov    $0x2,%esi
    7735:	bf 00 00 00 00       	mov    $0x0,%edi
    773a:	e8 af db ff ff       	callq  52ee <safe_lshift_func_int8_t_s_u>
    773f:	0f be c0             	movsbl %al,%eax
    7742:	89 c6                	mov    %eax,%esi
    7744:	bf c7 c8 c4 37       	mov    $0x37c4c8c7,%edi
    7749:	e8 b7 de ff ff       	callq  5605 <safe_sub_func_int32_t_s_s>
    774e:	0f be c0             	movsbl %al,%eax
    7751:	48 8b 95 10 f8 ff ff 	mov    -0x7f0(%rbp),%rdx
    7758:	48 8b 12             	mov    (%rdx),%rdx
    775b:	48 8b 1a             	mov    (%rdx),%rbx
    775e:	8b b5 ac f7 ff ff    	mov    -0x854(%rbp),%esi
    7764:	89 c7                	mov    %eax,%edi
    7766:	e8 c6 da ff ff       	callq  5231 <safe_mod_func_int8_t_s_s>
    776b:	88 03                	mov    %al,(%rbx)
    776d:	0f b6 03             	movzbl (%rbx),%eax
    7770:	0f be c0             	movsbl %al,%eax
    7773:	8b b5 b0 f7 ff ff    	mov    -0x850(%rbp),%esi
    7779:	89 c7                	mov    %eax,%edi
    777b:	e8 72 da ff ff       	callq  51f2 <safe_sub_func_int8_t_s_s>
    7780:	48 0f be c0          	movsbq %al,%rax
    7784:	48 c7 c6 ff ff ff ff 	mov    $0xffffffffffffffff,%rsi
    778b:	48 89 c7             	mov    %rax,%rdi
    778e:	e8 15 e1 ff ff       	callq  58a8 <safe_sub_func_int64_t_s_s>
    7793:	8b 85 f0 f7 ff ff    	mov    -0x810(%rbp),%eax
    7799:	0f be c0             	movsbl %al,%eax
    779c:	be ab ff ff ff       	mov    $0xffffffab,%esi
    77a1:	89 c7                	mov    %eax,%edi
    77a3:	e8 4a da ff ff       	callq  51f2 <safe_sub_func_int8_t_s_s>
    77a8:	0f be d8             	movsbl %al,%ebx
    77ab:	48 8b 85 a8 f8 ff ff 	mov    -0x758(%rbp),%rax
    77b2:	0f b6 00             	movzbl (%rax),%eax
    77b5:	8d 50 01             	lea    0x1(%rax),%edx
    77b8:	48 8b 85 a8 f8 ff ff 	mov    -0x758(%rbp),%rax
    77bf:	88 10                	mov    %dl,(%rax)
    77c1:	48 8b 85 a8 f8 ff ff 	mov    -0x758(%rbp),%rax
    77c8:	0f b6 00             	movzbl (%rax),%eax
    77cb:	0f b6 c0             	movzbl %al,%eax
    77ce:	89 c6                	mov    %eax,%esi
    77d0:	bf 86 00 00 00       	mov    $0x86,%edi
    77d5:	e8 b9 e3 ff ff       	callq  5b93 <safe_mul_func_uint8_t_u_u>
    77da:	0f be c0             	movsbl %al,%eax
    77dd:	89 de                	mov    %ebx,%esi
    77df:	89 c7                	mov    %eax,%edi
    77e1:	e8 4f db ff ff       	callq  5335 <safe_rshift_func_int8_t_s_s>
    77e6:	48 0f be c0          	movsbq %al,%rax
    77ea:	48 89 c6             	mov    %rax,%rsi
    77ed:	bf 00 00 00 00       	mov    $0x0,%edi
    77f2:	e8 54 e8 ff ff       	callq  604b <safe_sub_func_uint64_t_u_u>
    77f7:	be 9a fa 10 f1       	mov    $0xf110fa9a,%esi
    77fc:	89 c7                	mov    %eax,%edi
    77fe:	e8 cd e6 ff ff       	callq  5ed0 <safe_sub_func_uint32_t_u_u>
    7803:	44 89 fe             	mov    %r15d,%esi
    7806:	89 c7                	mov    %eax,%edi
    7808:	e8 c3 e6 ff ff       	callq  5ed0 <safe_sub_func_uint32_t_u_u>
    780d:	39 85 b4 f7 ff ff    	cmp    %eax,-0x84c(%rbp)
    7813:	76 07                	jbe    781c <func_7+0xf54>
    7815:	b8 3b 00 00 00       	mov    $0x3b,%eax
    781a:	eb 05                	jmp    7821 <func_7+0xf59>
    781c:	b8 3a 00 00 00       	mov    $0x3a,%eax
    7821:	be 0e 00 00 00       	mov    $0xe,%esi
    7826:	89 c7                	mov    %eax,%edi
    7828:	e8 36 dd ff ff       	callq  5563 <safe_rshift_func_int16_t_s_u>
    782d:	66 85 c0             	test   %ax,%ax
    7830:	0f 94 c0             	sete   %al
    7833:	0f b6 c0             	movzbl %al,%eax
    7836:	44 89 f6             	mov    %r14d,%esi
    7839:	89 c7                	mov    %eax,%edi
    783b:	e8 fd e4 ff ff       	callq  5d3d <safe_mul_func_uint16_t_u_u>
    7840:	0f b7 c0             	movzwl %ax,%eax
    7843:	f7 d0                	not    %eax
    7845:	0b 85 f0 f7 ff ff    	or     -0x810(%rbp),%eax
    784b:	3d fe ff 00 00       	cmp    $0xfffe,%eax
    7850:	0f 95 c0             	setne  %al
    7853:	0f b6 d0             	movzbl %al,%edx
    7856:	8b 05 2c b9 00 00    	mov    0xb92c(%rip),%eax        # 13188 <g_149>
    785c:	89 c0                	mov    %eax,%eax
    785e:	48 8d 0c 85 00 00 00 	lea    0x0(,%rax,4),%rcx
    7865:	00 
    7866:	48 8d 05 f3 bb 00 00 	lea    0xbbf3(%rip),%rax        # 13460 <g_595>
    786d:	8b 04 01             	mov    (%rcx,%rax,1),%eax
    7870:	8b 35 12 b9 00 00    	mov    0xb912(%rip),%esi        # 13188 <g_149>
    7876:	89 d1                	mov    %edx,%ecx
    7878:	09 c1                	or     %eax,%ecx
    787a:	89 f0                	mov    %esi,%eax
    787c:	48 8d 14 85 00 00 00 	lea    0x0(,%rax,4),%rdx
    7883:	00 
    7884:	48 8d 05 d5 bb 00 00 	lea    0xbbd5(%rip),%rax        # 13460 <g_595>
    788b:	89 0c 02             	mov    %ecx,(%rdx,%rax,1)
    788e:	89 f0                	mov    %esi,%eax
    7890:	48 8d 14 85 00 00 00 	lea    0x0(,%rax,4),%rdx
    7897:	00 
    7898:	48 8d 05 c1 bb 00 00 	lea    0xbbc1(%rip),%rax        # 13460 <g_595>
    789f:	8b 04 02             	mov    (%rdx,%rax,1),%eax
    78a2:	39 85 f0 f7 ff ff    	cmp    %eax,-0x810(%rbp)
    78a8:	0f 95 c0             	setne  %al
    78ab:	0f b6 d0             	movzbl %al,%edx
    78ae:	48 8b 05 9b bc 00 00 	mov    0xbc9b(%rip),%rax        # 13550 <g_1361>
    78b5:	48 39 c2             	cmp    %rax,%rdx
    78b8:	75 0b                	jne    78c5 <func_7+0xffd>
    78ba:	0f b6 85 ea f9 ff ff 	movzbl -0x616(%rbp),%eax
    78c1:	84 c0                	test   %al,%al
    78c3:	74 07                	je     78cc <func_7+0x1004>
    78c5:	b8 01 00 00 00       	mov    $0x1,%eax
    78ca:	eb 05                	jmp    78d1 <func_7+0x1009>
    78cc:	b8 00 00 00 00       	mov    $0x0,%eax
    78d1:	0f b7 c0             	movzwl %ax,%eax
    78d4:	44 89 ee             	mov    %r13d,%esi
    78d7:	89 c7                	mov    %eax,%edi
    78d9:	e8 5f e4 ff ff       	callq  5d3d <safe_mul_func_uint16_t_u_u>
    78de:	0f b7 d0             	movzwl %ax,%edx
    78e1:	48 8b 05 58 d0 00 00 	mov    0xd058(%rip),%rax        # 14940 <g_1274>
    78e8:	48 8b 00             	mov    (%rax),%rax
    78eb:	48 8b 00             	mov    (%rax),%rax
    78ee:	48 8b 00             	mov    (%rax),%rax
    78f1:	0f b7 00             	movzwl (%rax),%eax
    78f4:	98                   	cwtl   
    78f5:	39 c2                	cmp    %eax,%edx
    78f7:	0f 94 c0             	sete   %al
    78fa:	0f b6 c0             	movzbl %al,%eax
    78fd:	44 89 e6             	mov    %r12d,%esi
    7900:	89 c7                	mov    %eax,%edi
    7902:	e8 9a d9 ff ff       	callq  52a1 <safe_lshift_func_int8_t_s_s>
    7907:	48 8b 8d b0 f8 ff ff 	mov    -0x750(%rbp),%rcx
    790e:	48 8b 05 a3 cc 00 00 	mov    0xcca3(%rip),%rax        # 145b8 <g_256>
    7915:	8b 10                	mov    (%rax),%edx
    7917:	48 8b 05 9a cc 00 00 	mov    0xcc9a(%rip),%rax        # 145b8 <g_256>
    791e:	09 ca                	or     %ecx,%edx
    7920:	89 10                	mov    %edx,(%rax)
    7922:	48 8b 85 f8 f7 ff ff 	mov    -0x808(%rbp),%rax
    7929:	c7 00 f6 ff ff ff    	movl   $0xfffffff6,(%rax)
    792f:	48 8b 05 8a cc 00 00 	mov    0xcc8a(%rip),%rax        # 145c0 <g_255>
    7936:	48 8b 00             	mov    (%rax),%rax
    7939:	e9 37 01 00 00       	jmpq   7a75 <func_7+0x11ad>
    793e:	c7 05 98 b8 00 00 02 	movl   $0x2,0xb898(%rip)        # 131e0 <g_240>
    7945:	00 00 00 
    7948:	e9 96 00 00 00       	jmpq   79e3 <func_7+0x111b>
    794d:	48 8b 05 e4 cf 00 00 	mov    0xcfe4(%rip),%rax        # 14938 <g_1261>
    7954:	48 8b 00             	mov    (%rax),%rax
    7957:	8b 00                	mov    (%rax),%eax
    7959:	85 c0                	test   %eax,%eax
    795b:	74 6a                	je     79c7 <func_7+0x10ff>
    795d:	48 8b 15 6c cc 00 00 	mov    0xcc6c(%rip),%rdx        # 145d0 <g_383>
    7964:	48 8b 05 65 cc 00 00 	mov    0xcc65(%rip),%rax        # 145d0 <g_383>
    796b:	0f b7 12             	movzwl (%rdx),%edx
    796e:	66 89 10             	mov    %dx,(%rax)
    7971:	0f b7 00             	movzwl (%rax),%eax
    7974:	98                   	cwtl   
    7975:	89 c6                	mov    %eax,%esi
    7977:	bf 41 da ff ff       	mov    $0xffffda41,%edi
    797c:	e8 74 da ff ff       	callq  53f5 <safe_mul_func_int16_t_s_s>
    7981:	98                   	cwtl   
    7982:	89 85 60 fb ff ff    	mov    %eax,-0x4a0(%rbp)
    7988:	8b 05 4a b8 00 00    	mov    0xb84a(%rip),%eax        # 131d8 <g_207>
    798e:	85 c0                	test   %eax,%eax
    7990:	74 05                	je     7997 <func_7+0x10cf>
    7992:	e9 cf fa ff ff       	jmpq   7466 <func_7+0xb9e>
    7997:	48 8b 05 f2 bb 00 00 	mov    0xbbf2(%rip),%rax        # 13590 <g_1833>
    799e:	48 85 c0             	test   %rax,%rax
    79a1:	75 30                	jne    79d3 <func_7+0x110b>
    79a3:	8b 05 53 b7 00 00    	mov    0xb753(%rip),%eax        # 130fc <g_75>
    79a9:	89 c0                	mov    %eax,%eax
    79ab:	48 8d 14 c5 00 00 00 	lea    0x0(,%rax,8),%rdx
    79b2:	00 
    79b3:	48 8d 05 a6 d1 00 00 	lea    0xd1a6(%rip),%rax        # 14b60 <g_1593>
    79ba:	48 8b 04 02          	mov    (%rdx,%rax,1),%rax
    79be:	48 89 85 b8 f7 ff ff 	mov    %rax,-0x848(%rbp)
    79c5:	eb 0d                	jmp    79d4 <func_7+0x110c>
    79c7:	48 8b 85 b8 f7 ff ff 	mov    -0x848(%rbp),%rax
    79ce:	e9 a2 00 00 00       	jmpq   7a75 <func_7+0x11ad>
    79d3:	90                   	nop
    79d4:	8b 05 06 b8 00 00    	mov    0xb806(%rip),%eax        # 131e0 <g_240>
    79da:	83 c0 01             	add    $0x1,%eax
    79dd:	89 05 fd b7 00 00    	mov    %eax,0xb7fd(%rip)        # 131e0 <g_240>
    79e3:	8b 05 f7 b7 00 00    	mov    0xb7f7(%rip),%eax        # 131e0 <g_240>
    79e9:	83 f8 07             	cmp    $0x7,%eax
    79ec:	0f 8e 5b ff ff ff    	jle    794d <func_7+0x1085>
    79f2:	8b 05 04 b7 00 00    	mov    0xb704(%rip),%eax        # 130fc <g_75>
    79f8:	83 c0 01             	add    $0x1,%eax
    79fb:	89 05 fb b6 00 00    	mov    %eax,0xb6fb(%rip)        # 130fc <g_75>
    7a01:	8b 05 f5 b6 00 00    	mov    0xb6f5(%rip),%eax        # 130fc <g_75>
    7a07:	83 f8 07             	cmp    $0x7,%eax
    7a0a:	0f 86 5a fc ff ff    	jbe    766a <func_7+0xda2>
    7a10:	0f b7 05 ed b6 00 00 	movzwl 0xb6ed(%rip),%eax        # 13104 <g_103>
    7a17:	0f b7 c0             	movzwl %ax,%eax
    7a1a:	83 c0 04             	add    $0x4,%eax
    7a1d:	48 98                	cltq   
    7a1f:	48 8d 14 c5 00 00 00 	lea    0x0(,%rax,8),%rdx
    7a26:	00 
    7a27:	48 8d 05 32 d1 00 00 	lea    0xd132(%rip),%rax        # 14b60 <g_1593>
    7a2e:	48 8b 14 02          	mov    (%rdx,%rax,1),%rdx
    7a32:	8b 85 ec f7 ff ff    	mov    -0x814(%rbp),%eax
    7a38:	48 89 d6             	mov    %rdx,%rsi
    7a3b:	89 c7                	mov    %eax,%edi
    7a3d:	e8 ea 14 00 00       	callq  8f2c <func_43>
    7a42:	48 8b 95 a0 f8 ff ff 	mov    -0x760(%rbp),%rdx
    7a49:	48 89 02             	mov    %rax,(%rdx)
    7a4c:	0f b7 05 b1 b6 00 00 	movzwl 0xb6b1(%rip),%eax        # 13104 <g_103>
    7a53:	83 c0 01             	add    $0x1,%eax
    7a56:	66 89 05 a7 b6 00 00 	mov    %ax,0xb6a7(%rip)        # 13104 <g_103>
    7a5d:	0f b7 05 a0 b6 00 00 	movzwl 0xb6a0(%rip),%eax        # 13104 <g_103>
    7a64:	66 83 f8 02          	cmp    $0x2,%ax
    7a68:	0f 86 11 fb ff ff    	jbe    757f <func_7+0xcb7>
    7a6e:	48 8b 85 b8 f7 ff ff 	mov    -0x848(%rbp),%rax
    7a75:	48 8b 5d c8          	mov    -0x38(%rbp),%rbx
    7a79:	64 48 33 1c 25 28 00 	xor    %fs:0x28,%rbx
    7a80:	00 00 
    7a82:	74 05                	je     7a89 <func_7+0x11c1>
    7a84:	e8 e7 d5 ff ff       	callq  5070 <__stack_chk_fail@plt>
    7a89:	48 81 c4 38 08 00 00 	add    $0x838,%rsp
    7a90:	5b                   	pop    %rbx
    7a91:	41 5c                	pop    %r12
    7a93:	41 5d                	pop    %r13
    7a95:	41 5e                	pop    %r14
    7a97:	41 5f                	pop    %r15
    7a99:	5d                   	pop    %rbp
    7a9a:	c3                   	retq   

0000000000007a9b <func_16>:
    7a9b:	f3 0f 1e fa          	endbr64 
    7a9f:	55                   	push   %rbp
    7aa0:	48 89 e5             	mov    %rsp,%rbp
    7aa3:	41 57                	push   %r15
    7aa5:	41 56                	push   %r14
    7aa7:	41 55                	push   %r13
    7aa9:	41 54                	push   %r12
    7aab:	53                   	push   %rbx
    7aac:	48 83 ec 78          	sub    $0x78,%rsp
    7ab0:	89 bd 7c ff ff ff    	mov    %edi,-0x84(%rbp)
    7ab6:	48 89 b5 70 ff ff ff 	mov    %rsi,-0x90(%rbp)
    7abd:	64 48 8b 04 25 28 00 	mov    %fs:0x28,%rax
    7ac4:	00 00 
    7ac6:	48 89 45 c8          	mov    %rax,-0x38(%rbp)
    7aca:	31 c0                	xor    %eax,%eax
    7acc:	c7 45 8c 0e e9 89 2e 	movl   $0x2e89e90e,-0x74(%rbp)
    7ad3:	48 8d 05 be cd 00 00 	lea    0xcdbe(%rip),%rax        # 14898 <g_816>
    7ada:	48 89 45 98          	mov    %rax,-0x68(%rbp)
    7ade:	48 8d 05 ff b7 00 00 	lea    0xb7ff(%rip),%rax        # 132e4 <g_467>
    7ae5:	48 89 45 a0          	mov    %rax,-0x60(%rbp)
    7ae9:	48 c7 45 90 00 00 00 	movq   $0x0,-0x70(%rbp)
    7af0:	00 
    7af1:	48 8d 45 90          	lea    -0x70(%rbp),%rax
    7af5:	48 89 45 a8          	mov    %rax,-0x58(%rbp)
    7af9:	48 8d 05 f4 b5 00 00 	lea    0xb5f4(%rip),%rax        # 130f4 <g_56>
    7b00:	48 89 45 b0          	mov    %rax,-0x50(%rbp)
    7b04:	48 8d 05 c9 b5 00 00 	lea    0xb5c9(%rip),%rax        # 130d4 <g_31+0x14>
    7b0b:	48 89 45 b8          	mov    %rax,-0x48(%rbp)
    7b0f:	48 8d 05 a2 ca 00 00 	lea    0xcaa2(%rip),%rax        # 145b8 <g_256>
    7b16:	48 89 45 c0          	mov    %rax,-0x40(%rbp)
    7b1a:	8b 85 7c ff ff ff    	mov    -0x84(%rbp),%eax
    7b20:	48 63 d8             	movslq %eax,%rbx
    7b23:	8b 85 7c ff ff ff    	mov    -0x84(%rbp),%eax
    7b29:	44 0f be e0          	movsbl %al,%r12d
    7b2d:	48 8b 05 9c ca 00 00 	mov    0xca9c(%rip),%rax        # 145d0 <g_383>
    7b34:	0f b7 00             	movzwl (%rax),%eax
    7b37:	44 0f bf e8          	movswl %ax,%r13d
    7b3b:	48 8d 05 96 ca 00 00 	lea    0xca96(%rip),%rax        # 145d8 <g_382>
    7b42:	48 8b 00             	mov    (%rax),%rax
    7b45:	48 8b 00             	mov    (%rax),%rax
    7b48:	0f b7 00             	movzwl (%rax),%eax
    7b4b:	44 0f bf f0          	movswl %ax,%r14d
    7b4f:	8b 85 7c ff ff ff    	mov    -0x84(%rbp),%eax
    7b55:	4c 63 f8             	movslq %eax,%r15
    7b58:	8b 85 7c ff ff ff    	mov    -0x84(%rbp),%eax
    7b5e:	98                   	cwtl   
    7b5f:	89 85 78 ff ff ff    	mov    %eax,-0x88(%rbp)
    7b65:	8b 45 8c             	mov    -0x74(%rbp),%eax
    7b68:	48 63 c8             	movslq %eax,%rcx
    7b6b:	48 89 8d 68 ff ff ff 	mov    %rcx,-0x98(%rbp)
    7b72:	48 8b 45 98          	mov    -0x68(%rbp),%rax
    7b76:	48 89 05 d3 cd 00 00 	mov    %rax,0xcdd3(%rip)        # 14950 <g_1382>
    7b7d:	be 01 00 00 00       	mov    $0x1,%esi
    7b82:	bf 00 00 00 00       	mov    $0x0,%edi
    7b87:	e8 02 e2 ff ff       	callq  5d8e <safe_div_func_uint16_t_u_u>
    7b8c:	89 c2                	mov    %eax,%edx
    7b8e:	48 8b 45 a0          	mov    -0x60(%rbp),%rax
    7b92:	0f b6 00             	movzbl (%rax),%eax
    7b95:	09 c2                	or     %eax,%edx
    7b97:	48 8b 45 a0          	mov    -0x60(%rbp),%rax
    7b9b:	88 10                	mov    %dl,(%rax)
    7b9d:	48 8b 45 a0          	mov    -0x60(%rbp),%rax
    7ba1:	0f b6 00             	movzbl (%rax),%eax
    7ba4:	0f be d0             	movsbl %al,%edx
    7ba7:	8b 85 7c ff ff ff    	mov    -0x84(%rbp),%eax
    7bad:	0f be c0             	movsbl %al,%eax
    7bb0:	89 d6                	mov    %edx,%esi
    7bb2:	89 c7                	mov    %eax,%edi
    7bb4:	e8 1b d6 ff ff       	callq  51d4 <safe_add_func_int8_t_s_s>
    7bb9:	48 0f be c0          	movsbq %al,%rax
    7bbd:	80 cc b8             	or     $0xb8,%ah
    7bc0:	48 39 85 68 ff ff ff 	cmp    %rax,-0x98(%rbp)
    7bc7:	83 7d 8c 00          	cmpl   $0x0,-0x74(%rbp)
    7bcb:	0f 9f c0             	setg   %al
    7bce:	0f b6 c0             	movzbl %al,%eax
    7bd1:	8b b5 78 ff ff ff    	mov    -0x88(%rbp),%esi
    7bd7:	89 c7                	mov    %eax,%edi
    7bd9:	e8 38 d8 ff ff       	callq  5416 <safe_mod_func_int16_t_s_s>
    7bde:	0f b6 d0             	movzbl %al,%edx
    7be1:	8b 85 7c ff ff ff    	mov    -0x84(%rbp),%eax
    7be7:	0f b6 c0             	movzbl %al,%eax
    7bea:	89 d6                	mov    %edx,%esi
    7bec:	89 c7                	mov    %eax,%edi
    7bee:	e8 85 df ff ff       	callq  5b78 <safe_sub_func_uint8_t_u_u>
    7bf3:	0f b6 c0             	movzbl %al,%eax
    7bf6:	39 45 8c             	cmp    %eax,-0x74(%rbp)
    7bf9:	0f 9d c0             	setge  %al
    7bfc:	0f b6 c0             	movzbl %al,%eax
    7bff:	4c 89 fe             	mov    %r15,%rsi
    7c02:	48 89 c7             	mov    %rax,%rdi
    7c05:	e8 76 e4 ff ff       	callq  6080 <safe_mod_func_uint64_t_u_u>
    7c0a:	98                   	cwtl   
    7c0b:	44 89 f6             	mov    %r14d,%esi
    7c0e:	89 c7                	mov    %eax,%edi
    7c10:	e8 15 d9 ff ff       	callq  552a <safe_rshift_func_int16_t_s_s>
    7c15:	44 89 ee             	mov    %r13d,%esi
    7c18:	bf 01 00 00 00       	mov    $0x1,%edi
    7c1d:	e8 70 d8 ff ff       	callq  5492 <safe_lshift_func_int16_t_s_s>
    7c22:	66 85 c0             	test   %ax,%ax
    7c25:	74 07                	je     7c2e <func_16+0x193>
    7c27:	ba 01 00 00 00       	mov    $0x1,%edx
    7c2c:	eb 05                	jmp    7c33 <func_16+0x198>
    7c2e:	ba 00 00 00 00       	mov    $0x0,%edx
    7c33:	48 8b 05 7e c9 00 00 	mov    0xc97e(%rip),%rax        # 145b8 <g_256>
    7c3a:	89 10                	mov    %edx,(%rax)
    7c3c:	8b 00                	mov    (%rax),%eax
    7c3e:	89 c2                	mov    %eax,%edx
    7c40:	8b 45 8c             	mov    -0x74(%rbp),%eax
    7c43:	21 d0                	and    %edx,%eax
    7c45:	0f be c0             	movsbl %al,%eax
    7c48:	44 89 e6             	mov    %r12d,%esi
    7c4b:	89 c7                	mov    %eax,%edi
    7c4d:	e8 82 d5 ff ff       	callq  51d4 <safe_add_func_int8_t_s_s>
    7c52:	48 83 7d a8 00       	cmpq   $0x0,-0x58(%rbp)
    7c57:	0f 95 c0             	setne  %al
    7c5a:	0f b6 c0             	movzbl %al,%eax
    7c5d:	48 89 de             	mov    %rbx,%rsi
    7c60:	48 89 c7             	mov    %rax,%rdi
    7c63:	e8 e3 e3 ff ff       	callq  604b <safe_sub_func_uint64_t_u_u>
    7c68:	48 83 f8 01          	cmp    $0x1,%rax
    7c6c:	0f 96 c0             	setbe  %al
    7c6f:	89 c2                	mov    %eax,%edx
    7c71:	48 8b 45 b0          	mov    -0x50(%rbp),%rax
    7c75:	88 10                	mov    %dl,(%rax)
    7c77:	48 8b 55 b8          	mov    -0x48(%rbp),%rdx
    7c7b:	48 8b 45 b8          	mov    -0x48(%rbp),%rax
    7c7f:	48 89 d6             	mov    %rdx,%rsi
    7c82:	48 89 c7             	mov    %rax,%rdi
    7c85:	e8 38 00 00 00       	callq  7cc2 <func_32>
    7c8a:	48 89 45 b8          	mov    %rax,-0x48(%rbp)
    7c8e:	48 8b 45 c0          	mov    -0x40(%rbp),%rax
    7c92:	48 8b 55 b8          	mov    -0x48(%rbp),%rdx
    7c96:	48 89 10             	mov    %rdx,(%rax)
    7c99:	8b 85 7c ff ff ff    	mov    -0x84(%rbp),%eax
    7c9f:	48 8b 5d c8          	mov    -0x38(%rbp),%rbx
    7ca3:	64 48 33 1c 25 28 00 	xor    %fs:0x28,%rbx
    7caa:	00 00 
    7cac:	74 05                	je     7cb3 <func_16+0x218>
    7cae:	e8 bd d3 ff ff       	callq  5070 <__stack_chk_fail@plt>
    7cb3:	48 83 c4 78          	add    $0x78,%rsp
    7cb7:	5b                   	pop    %rbx
    7cb8:	41 5c                	pop    %r12
    7cba:	41 5d                	pop    %r13
    7cbc:	41 5e                	pop    %r14
    7cbe:	41 5f                	pop    %r15
    7cc0:	5d                   	pop    %rbp
    7cc1:	c3                   	retq   

0000000000007cc2 <func_32>:
    7cc2:	f3 0f 1e fa          	endbr64 
    7cc6:	55                   	push   %rbp
    7cc7:	48 89 e5             	mov    %rsp,%rbp
    7cca:	48 83 ec 60          	sub    $0x60,%rsp
    7cce:	48 89 7d a8          	mov    %rdi,-0x58(%rbp)
    7cd2:	48 89 75 a0          	mov    %rsi,-0x60(%rbp)
    7cd6:	64 48 8b 04 25 28 00 	mov    %fs:0x28,%rax
    7cdd:	00 00 
    7cdf:	48 89 45 f8          	mov    %rax,-0x8(%rbp)
    7ce3:	31 c0                	xor    %eax,%eax
    7ce5:	c6 45 bf 02          	movb   $0x2,-0x41(%rbp)
    7ce9:	48 c7 45 c0 00 00 00 	movq   $0x0,-0x40(%rbp)
    7cf0:	00 
    7cf1:	c7 05 01 b4 00 00 00 	movl   $0x0,0xb401(%rip)        # 130fc <g_75>
    7cf8:	00 00 00 
    7cfb:	eb 7b                	jmp    7d78 <func_32+0xb6>
    7cfd:	48 8d 05 84 d4 00 00 	lea    0xd484(%rip),%rax        # 15188 <g_579>
    7d04:	48 89 45 d0          	mov    %rax,-0x30(%rbp)
    7d08:	48 8d 05 79 d4 00 00 	lea    0xd479(%rip),%rax        # 15188 <g_579>
    7d0f:	48 89 45 d8          	mov    %rax,-0x28(%rbp)
    7d13:	48 8d 05 6e d4 00 00 	lea    0xd46e(%rip),%rax        # 15188 <g_579>
    7d1a:	48 89 45 e0          	mov    %rax,-0x20(%rbp)
    7d1e:	48 8d 05 63 d4 00 00 	lea    0xd463(%rip),%rax        # 15188 <g_579>
    7d25:	48 89 45 e8          	mov    %rax,-0x18(%rbp)
    7d29:	48 8d 05 58 d4 00 00 	lea    0xd458(%rip),%rax        # 15188 <g_579>
    7d30:	48 89 45 c8          	mov    %rax,-0x38(%rbp)
    7d34:	48 8b 05 5d cb 00 00 	mov    0xcb5d(%rip),%rax        # 14898 <g_816>
    7d3b:	48 8b 00             	mov    (%rax),%rax
    7d3e:	48 8b 55 d0          	mov    -0x30(%rbp),%rdx
    7d42:	48 89 55 c8          	mov    %rdx,-0x38(%rbp)
    7d46:	48 39 45 c8          	cmp    %rax,-0x38(%rbp)
    7d4a:	0f 95 c2             	setne  %dl
    7d4d:	48 8b 05 64 c8 00 00 	mov    0xc864(%rip),%rax        # 145b8 <g_256>
    7d54:	0f b6 d2             	movzbl %dl,%edx
    7d57:	89 10                	mov    %edx,(%rax)
    7d59:	80 7d bf 00          	cmpb   $0x0,-0x41(%rbp)
    7d5d:	8b 05 99 b3 00 00    	mov    0xb399(%rip),%eax        # 130fc <g_75>
    7d63:	89 c0                	mov    %eax,%eax
    7d65:	be 05 00 00 00       	mov    $0x5,%esi
    7d6a:	48 89 c7             	mov    %rax,%rdi
    7d6d:	e8 cf da ff ff       	callq  5841 <safe_add_func_int64_t_s_s>
    7d72:	89 05 84 b3 00 00    	mov    %eax,0xb384(%rip)        # 130fc <g_75>
    7d78:	8b 05 7e b3 00 00    	mov    0xb37e(%rip),%eax        # 130fc <g_75>
    7d7e:	83 f8 38             	cmp    $0x38,%eax
    7d81:	0f 87 76 ff ff ff    	ja     7cfd <func_32+0x3b>
    7d87:	48 8b 45 c0          	mov    -0x40(%rbp),%rax
    7d8b:	48 8b 4d f8          	mov    -0x8(%rbp),%rcx
    7d8f:	64 48 33 0c 25 28 00 	xor    %fs:0x28,%rcx
    7d96:	00 00 
    7d98:	74 05                	je     7d9f <func_32+0xdd>
    7d9a:	e8 d1 d2 ff ff       	callq  5070 <__stack_chk_fail@plt>
    7d9f:	c9                   	leaveq 
    7da0:	c3                   	retq   

0000000000007da1 <func_35>:
    7da1:	f3 0f 1e fa          	endbr64 
    7da5:	55                   	push   %rbp
    7da6:	48 89 e5             	mov    %rsp,%rbp
    7da9:	41 56                	push   %r14
    7dab:	41 55                	push   %r13
    7dad:	41 54                	push   %r12
    7daf:	53                   	push   %rbx
    7db0:	48 81 ec f0 0e 00 00 	sub    $0xef0,%rsp
    7db7:	48 89 bd f8 f0 ff ff 	mov    %rdi,-0xf08(%rbp)
    7dbe:	48 89 b5 f0 f0 ff ff 	mov    %rsi,-0xf10(%rbp)
    7dc5:	64 48 8b 04 25 28 00 	mov    %fs:0x28,%rax
    7dcc:	00 00 
    7dce:	48 89 45 d8          	mov    %rax,-0x28(%rbp)
    7dd2:	31 c0                	xor    %eax,%eax
    7dd4:	c7 85 18 f1 ff ff cf 	movl   $0x31383acf,-0xee8(%rbp)
    7ddb:	3a 38 31 
    7dde:	48 8d 85 d0 f8 ff ff 	lea    -0x730(%rbp),%rax
    7de5:	48 8d 15 34 b9 00 00 	lea    0xb934(%rip),%rdx        # 13720 <g_1833+0x190>
    7dec:	b9 e0 00 00 00       	mov    $0xe0,%ecx
    7df1:	48 89 c7             	mov    %rax,%rdi
    7df4:	48 89 d6             	mov    %rdx,%rsi
    7df7:	f3 48 a5             	rep movsq %ds:(%rsi),%es:(%rdi)
    7dfa:	c6 85 01 f1 ff ff ff 	movb   $0xff,-0xeff(%rbp)
    7e01:	48 8d 05 4c 72 00 00 	lea    0x724c(%rip),%rax        # f054 <g_264>
    7e08:	48 89 85 30 f1 ff ff 	mov    %rax,-0xed0(%rbp)
    7e0f:	48 8d 85 30 f1 ff ff 	lea    -0xed0(%rbp),%rax
    7e16:	48 89 85 38 f1 ff ff 	mov    %rax,-0xec8(%rbp)
    7e1d:	48 8d 85 38 f1 ff ff 	lea    -0xec8(%rbp),%rax
    7e24:	48 89 85 68 f1 ff ff 	mov    %rax,-0xe98(%rbp)
    7e2b:	48 8d 05 be c7 00 00 	lea    0xc7be(%rip),%rax        # 145f0 <g_495>
    7e32:	48 89 85 70 f1 ff ff 	mov    %rax,-0xe90(%rbp)
    7e39:	48 8d 05 10 c8 00 00 	lea    0xc810(%rip),%rax        # 14650 <g_638+0x10>
    7e40:	48 89 85 78 f1 ff ff 	mov    %rax,-0xe88(%rbp)
    7e47:	c6 85 00 f1 ff ff 00 	movb   $0x0,-0xf00(%rbp)
    7e4e:	c7 85 50 f2 ff ff ff 	movl   $0xffffffff,-0xdb0(%rbp)
    7e55:	ff ff ff 
    7e58:	c7 85 54 f2 ff ff 01 	movl   $0x1,-0xdac(%rbp)
    7e5f:	00 00 00 
    7e62:	c7 85 58 f2 ff ff ff 	movl   $0xffffffff,-0xda8(%rbp)
    7e69:	ff ff ff 
    7e6c:	c7 85 5c f2 ff ff 01 	movl   $0x1,-0xda4(%rbp)
    7e73:	00 00 00 
    7e76:	c7 85 60 f2 ff ff ff 	movl   $0xffffffff,-0xda0(%rbp)
    7e7d:	ff ff ff 
    7e80:	c7 85 64 f2 ff ff 01 	movl   $0x1,-0xd9c(%rbp)
    7e87:	00 00 00 
    7e8a:	c7 85 68 f2 ff ff ff 	movl   $0xffffffff,-0xd98(%rbp)
    7e91:	ff ff ff 
    7e94:	48 8d 05 ed c9 00 00 	lea    0xc9ed(%rip),%rax        # 14888 <g_803>
    7e9b:	48 89 85 80 f1 ff ff 	mov    %rax,-0xe80(%rbp)
    7ea2:	48 8d 05 ef c9 00 00 	lea    0xc9ef(%rip),%rax        # 14898 <g_816>
    7ea9:	48 89 85 88 f1 ff ff 	mov    %rax,-0xe78(%rbp)
    7eb0:	48 c7 85 90 f1 ff ff 	movq   $0x0,-0xe70(%rbp)
    7eb7:	00 00 00 00 
    7ebb:	48 8d 85 00 f6 ff ff 	lea    -0xa00(%rbp),%rax
    7ec2:	48 8d 15 97 71 00 00 	lea    0x7197(%rip),%rdx        # f060 <g_634+0x8>
    7ec9:	b9 5a 00 00 00       	mov    $0x5a,%ecx
    7ece:	48 89 c7             	mov    %rax,%rdi
    7ed1:	48 89 d6             	mov    %rdx,%rsi
    7ed4:	f3 48 a5             	rep movsq %ds:(%rsi),%es:(%rdi)
    7ed7:	c7 85 04 f1 ff ff 00 	movl   $0x0,-0xefc(%rbp)
    7ede:	00 00 00 
    7ee1:	eb 1e                	jmp    7f01 <func_35+0x160>
    7ee3:	8b 85 04 f1 ff ff    	mov    -0xefc(%rbp),%eax
    7ee9:	48 98                	cltq   
    7eeb:	48 8d 15 8e d2 00 00 	lea    0xd28e(%rip),%rdx        # 15180 <g_345>
    7ef2:	48 89 94 c5 90 f2 ff 	mov    %rdx,-0xd70(%rbp,%rax,8)
    7ef9:	ff 
    7efa:	83 85 04 f1 ff ff 01 	addl   $0x1,-0xefc(%rbp)
    7f01:	83 bd 04 f1 ff ff 05 	cmpl   $0x5,-0xefc(%rbp)
    7f08:	7e d9                	jle    7ee3 <func_35+0x142>
    7f0a:	c7 85 04 f1 ff ff 00 	movl   $0x0,-0xefc(%rbp)
    7f11:	00 00 00 
    7f14:	eb 1a                	jmp    7f30 <func_35+0x18f>
    7f16:	8b 85 04 f1 ff ff    	mov    -0xefc(%rbp),%eax
    7f1c:	48 98                	cltq   
    7f1e:	c7 84 85 70 f2 ff ff 	movl   $0x1,-0xd90(%rbp,%rax,4)
    7f25:	01 00 00 00 
    7f29:	83 85 04 f1 ff ff 01 	addl   $0x1,-0xefc(%rbp)
    7f30:	83 bd 04 f1 ff ff 06 	cmpl   $0x6,-0xefc(%rbp)
    7f37:	7e dd                	jle    7f16 <func_35+0x175>
    7f39:	48 8b 85 70 f1 ff ff 	mov    -0xe90(%rbp),%rax
    7f40:	48 8d 15 a1 c6 00 00 	lea    0xc6a1(%rip),%rdx        # 145e8 <g_496>
    7f47:	48 89 10             	mov    %rdx,(%rax)
    7f4a:	83 bd 18 f1 ff ff 00 	cmpl   $0x0,-0xee8(%rbp)
    7f51:	0f 95 c0             	setne  %al
    7f54:	20 85 01 f1 ff ff    	and    %al,-0xeff(%rbp)
    7f5a:	48 0f be 95 01 f1 ff 	movsbq -0xeff(%rbp),%rdx
    7f61:	ff 
    7f62:	8b 85 18 f1 ff ff    	mov    -0xee8(%rbp),%eax
    7f68:	48 98                	cltq   
    7f6a:	48 89 d6             	mov    %rdx,%rsi
    7f6d:	48 89 c7             	mov    %rax,%rdi
    7f70:	e8 0b e1 ff ff       	callq  6080 <safe_mod_func_uint64_t_u_u>
    7f75:	48 8b 8d 38 f1 ff ff 	mov    -0xec8(%rbp),%rcx
    7f7c:	48 8b 95 68 f1 ff ff 	mov    -0xe98(%rbp),%rdx
    7f83:	48 89 0a             	mov    %rcx,(%rdx)
    7f86:	48 8b 95 68 f1 ff ff 	mov    -0xe98(%rbp),%rdx
    7f8d:	48 8b 12             	mov    (%rdx),%rdx
    7f90:	48 8d 0d 51 c6 00 00 	lea    0xc651(%rip),%rcx        # 145e8 <g_496>
    7f97:	48 39 ca             	cmp    %rcx,%rdx
    7f9a:	0f 95 c2             	setne  %dl
    7f9d:	0f b6 d2             	movzbl %dl,%edx
    7fa0:	48 39 d0             	cmp    %rdx,%rax
    7fa3:	0f 92 c0             	setb   %al
    7fa6:	44 0f b6 f0          	movzbl %al,%r14d
    7faa:	0f b6 85 00 f1 ff ff 	movzbl -0xf00(%rbp),%eax
    7fb1:	0f be d8             	movsbl %al,%ebx
    7fb4:	0f b6 85 00 f1 ff ff 	movzbl -0xf00(%rbp),%eax
    7fbb:	44 0f be e0          	movsbl %al,%r12d
    7fbf:	8b 85 18 f1 ff ff    	mov    -0xee8(%rbp),%eax
    7fc5:	4c 63 e8             	movslq %eax,%r13
    7fc8:	48 8d 05 69 c6 00 00 	lea    0xc669(%rip),%rax        # 14638 <g_613>
    7fcf:	48 39 85 78 f1 ff ff 	cmp    %rax,-0xe88(%rbp)
    7fd6:	0f 95 c0             	setne  %al
    7fd9:	0f b6 c0             	movzbl %al,%eax
    7fdc:	be 0d d7 00 00       	mov    $0xd70d,%esi
    7fe1:	89 c7                	mov    %eax,%edi
    7fe3:	e8 55 dd ff ff       	callq  5d3d <safe_mul_func_uint16_t_u_u>
    7fe8:	0f b7 c0             	movzwl %ax,%eax
    7feb:	4c 89 ee             	mov    %r13,%rsi
    7fee:	48 89 c7             	mov    %rax,%rdi
    7ff1:	e8 8a e0 ff ff       	callq  6080 <safe_mod_func_uint64_t_u_u>
    7ff6:	48 8b 05 d3 c5 00 00 	mov    0xc5d3(%rip),%rax        # 145d0 <g_383>
    7ffd:	66 c7 00 01 00       	movw   $0x1,(%rax)
    8002:	0f b7 00             	movzwl (%rax),%eax
    8005:	98                   	cwtl   
    8006:	44 89 e6             	mov    %r12d,%esi
    8009:	89 c7                	mov    %eax,%edi
    800b:	e8 a3 d3 ff ff       	callq  53b3 <safe_add_func_int16_t_s_s>
    8010:	0f bf d0             	movswl %ax,%edx
    8013:	8b 85 18 f1 ff ff    	mov    -0xee8(%rbp),%eax
    8019:	89 d6                	mov    %edx,%esi
    801b:	89 c7                	mov    %eax,%edi
    801d:	e8 ae de ff ff       	callq  5ed0 <safe_sub_func_uint32_t_u_u>
    8022:	89 c2                	mov    %eax,%edx
    8024:	0f b6 85 00 f1 ff ff 	movzbl -0xf00(%rbp),%eax
    802b:	31 d0                	xor    %edx,%eax
    802d:	0f be c0             	movsbl %al,%eax
    8030:	89 de                	mov    %ebx,%esi
    8032:	89 c7                	mov    %eax,%edi
    8034:	e8 d9 d1 ff ff       	callq  5212 <safe_mul_func_int8_t_s_s>
    8039:	0f be c0             	movsbl %al,%eax
    803c:	89 85 58 f2 ff ff    	mov    %eax,-0xda8(%rbp)
    8042:	8b 85 58 f2 ff ff    	mov    -0xda8(%rbp),%eax
    8048:	85 c0                	test   %eax,%eax
    804a:	74 07                	je     8053 <func_35+0x2b2>
    804c:	b8 01 00 00 00       	mov    $0x1,%eax
    8051:	eb 05                	jmp    8058 <func_35+0x2b7>
    8053:	b8 00 00 00 00       	mov    $0x0,%eax
    8058:	48 98                	cltq   
    805a:	48 f7 d0             	not    %rax
    805d:	49 39 c6             	cmp    %rax,%r14
    8060:	0f 82 ad 0a 00 00    	jb     8b13 <func_35+0xd72>
    8066:	48 c7 85 d0 f1 ff ff 	movq   $0x0,-0xe30(%rbp)
    806d:	00 00 00 00 
    8071:	c6 85 03 f1 ff ff 05 	movb   $0x5,-0xefd(%rbp)
    8078:	66 c7 85 36 f2 ff ff 	movw   $0xbf7,-0xdca(%rbp)
    807f:	f7 0b 
    8081:	66 c7 85 38 f2 ff ff 	movw   $0x4,-0xdc8(%rbp)
    8088:	04 00 
    808a:	66 c7 85 3a f2 ff ff 	movw   $0xbf7,-0xdc6(%rbp)
    8091:	f7 0b 
    8093:	66 c7 85 3c f2 ff ff 	movw   $0x4,-0xdc4(%rbp)
    809a:	04 00 
    809c:	66 c7 85 3e f2 ff ff 	movw   $0xbf7,-0xdc2(%rbp)
    80a3:	f7 0b 
    80a5:	c6 05 60 b0 00 00 00 	movb   $0x0,0xb060(%rip)        # 1310c <g_132>
    80ac:	e9 4e 0a 00 00       	jmpq   8aff <func_35+0xd5e>
    80b1:	c7 85 08 f1 ff ff 00 	movl   $0x0,-0xef8(%rbp)
    80b8:	00 00 00 
    80bb:	c7 85 1c f1 ff ff bc 	movl   $0x21de2fbc,-0xee4(%rbp)
    80c2:	2f de 21 
    80c5:	48 c7 85 40 f1 ff ff 	movq   $0x0,-0xec0(%rbp)
    80cc:	00 00 00 00 
    80d0:	48 8d 05 91 d0 00 00 	lea    0xd091(%rip),%rax        # 15168 <g_133>
    80d7:	48 89 85 c0 f2 ff ff 	mov    %rax,-0xd40(%rbp)
    80de:	48 8d 05 83 d0 00 00 	lea    0xd083(%rip),%rax        # 15168 <g_133>
    80e5:	48 89 85 c8 f2 ff ff 	mov    %rax,-0xd38(%rbp)
    80ec:	48 8d 05 75 d0 00 00 	lea    0xd075(%rip),%rax        # 15168 <g_133>
    80f3:	48 89 85 d0 f2 ff ff 	mov    %rax,-0xd30(%rbp)
    80fa:	48 8d 05 67 d0 00 00 	lea    0xd067(%rip),%rax        # 15168 <g_133>
    8101:	48 89 85 d8 f2 ff ff 	mov    %rax,-0xd28(%rbp)
    8108:	48 8d 05 59 d0 00 00 	lea    0xd059(%rip),%rax        # 15168 <g_133>
    810f:	48 89 85 e0 f2 ff ff 	mov    %rax,-0xd20(%rbp)
    8116:	48 8d 05 4b d0 00 00 	lea    0xd04b(%rip),%rax        # 15168 <g_133>
    811d:	48 89 85 e8 f2 ff ff 	mov    %rax,-0xd18(%rbp)
    8124:	48 8d 05 3d d0 00 00 	lea    0xd03d(%rip),%rax        # 15168 <g_133>
    812b:	48 89 85 f0 f2 ff ff 	mov    %rax,-0xd10(%rbp)
    8132:	48 8d 85 c0 f2 ff ff 	lea    -0xd40(%rbp),%rax
    8139:	48 83 c0 18          	add    $0x18,%rax
    813d:	48 89 85 48 f1 ff ff 	mov    %rax,-0xeb8(%rbp)
    8144:	48 8d 85 48 f1 ff ff 	lea    -0xeb8(%rbp),%rax
    814b:	48 89 85 d8 f1 ff ff 	mov    %rax,-0xe28(%rbp)
    8152:	c7 85 0c f1 ff ff 00 	movl   $0x0,-0xef4(%rbp)
    8159:	00 00 00 
    815c:	eb 19                	jmp    8177 <func_35+0x3d6>
    815e:	8b 85 0c f1 ff ff    	mov    -0xef4(%rbp),%eax
    8164:	48 98                	cltq   
    8166:	66 c7 84 45 40 f2 ff 	movw   $0x7127,-0xdc0(%rbp,%rax,2)
    816d:	ff 27 71 
    8170:	83 85 0c f1 ff ff 01 	addl   $0x1,-0xef4(%rbp)
    8177:	83 bd 0c f1 ff ff 07 	cmpl   $0x7,-0xef4(%rbp)
    817e:	7e de                	jle    815e <func_35+0x3bd>
    8180:	0f b7 85 4e f2 ff ff 	movzwl -0xdb2(%rbp),%eax
    8187:	98                   	cwtl   
    8188:	89 85 08 f1 ff ff    	mov    %eax,-0xef8(%rbp)
    818e:	c7 05 64 af 00 00 f4 	movl   $0xfffffff4,0xaf64(%rip)        # 130fc <g_75>
    8195:	ff ff ff 
    8198:	e9 f9 08 00 00       	jmpq   8a96 <func_35+0xcf5>
    819d:	48 c7 85 e0 f1 ff ff 	movq   $0x2,-0xe20(%rbp)
    81a4:	02 00 00 00 
    81a8:	48 8d 05 29 c4 00 00 	lea    0xc429(%rip),%rax        # 145d8 <g_382>
    81af:	48 89 85 50 f1 ff ff 	mov    %rax,-0xeb0(%rbp)
    81b6:	48 8d 85 50 f1 ff ff 	lea    -0xeb0(%rbp),%rax
    81bd:	48 89 85 00 f3 ff ff 	mov    %rax,-0xd00(%rbp)
    81c4:	48 8d 85 50 f1 ff ff 	lea    -0xeb0(%rbp),%rax
    81cb:	48 89 85 08 f3 ff ff 	mov    %rax,-0xcf8(%rbp)
    81d2:	48 8d 85 50 f1 ff ff 	lea    -0xeb0(%rbp),%rax
    81d9:	48 89 85 10 f3 ff ff 	mov    %rax,-0xcf0(%rbp)
    81e0:	48 8d 85 50 f1 ff ff 	lea    -0xeb0(%rbp),%rax
    81e7:	48 89 85 18 f3 ff ff 	mov    %rax,-0xce8(%rbp)
    81ee:	48 8d 85 50 f1 ff ff 	lea    -0xeb0(%rbp),%rax
    81f5:	48 89 85 20 f3 ff ff 	mov    %rax,-0xce0(%rbp)
    81fc:	48 8d 85 50 f1 ff ff 	lea    -0xeb0(%rbp),%rax
    8203:	48 89 85 28 f3 ff ff 	mov    %rax,-0xcd8(%rbp)
    820a:	48 8d 85 50 f1 ff ff 	lea    -0xeb0(%rbp),%rax
    8211:	48 89 85 30 f3 ff ff 	mov    %rax,-0xcd0(%rbp)
    8218:	48 c7 85 58 f1 ff ff 	movq   $0x0,-0xea8(%rbp)
    821f:	00 00 00 00 
    8223:	48 8d 85 58 f1 ff ff 	lea    -0xea8(%rbp),%rax
    822a:	48 89 85 40 f3 ff ff 	mov    %rax,-0xcc0(%rbp)
    8231:	48 8d 85 58 f1 ff ff 	lea    -0xea8(%rbp),%rax
    8238:	48 89 85 48 f3 ff ff 	mov    %rax,-0xcb8(%rbp)
    823f:	48 8d 85 58 f1 ff ff 	lea    -0xea8(%rbp),%rax
    8246:	48 89 85 50 f3 ff ff 	mov    %rax,-0xcb0(%rbp)
    824d:	48 8d 85 58 f1 ff ff 	lea    -0xea8(%rbp),%rax
    8254:	48 89 85 58 f3 ff ff 	mov    %rax,-0xca8(%rbp)
    825b:	48 8d 85 58 f1 ff ff 	lea    -0xea8(%rbp),%rax
    8262:	48 89 85 60 f3 ff ff 	mov    %rax,-0xca0(%rbp)
    8269:	48 8d 85 58 f1 ff ff 	lea    -0xea8(%rbp),%rax
    8270:	48 89 85 68 f3 ff ff 	mov    %rax,-0xc98(%rbp)
    8277:	48 8d 85 58 f1 ff ff 	lea    -0xea8(%rbp),%rax
    827e:	48 89 85 70 f3 ff ff 	mov    %rax,-0xc90(%rbp)
    8285:	48 8d 85 58 f1 ff ff 	lea    -0xea8(%rbp),%rax
    828c:	48 89 85 78 f3 ff ff 	mov    %rax,-0xc88(%rbp)
    8293:	48 8d 85 58 f1 ff ff 	lea    -0xea8(%rbp),%rax
    829a:	48 89 85 80 f3 ff ff 	mov    %rax,-0xc80(%rbp)
    82a1:	48 c7 85 e8 f1 ff ff 	movq   $0x0,-0xe18(%rbp)
    82a8:	00 00 00 00 
    82ac:	c7 85 20 f1 ff ff 6b 	movl   $0x3ab14d6b,-0xee0(%rbp)
    82b3:	4d b1 3a 
    82b6:	48 c7 85 f0 f1 ff ff 	movq   $0x0,-0xe10(%rbp)
    82bd:	00 00 00 00 
    82c1:	c7 85 08 f1 ff ff fb 	movl   $0xfffffffb,-0xef8(%rbp)
    82c8:	ff ff ff 
    82cb:	e9 d5 00 00 00       	jmpq   83a5 <func_35+0x604>
    82d0:	c7 85 2c f1 ff ff b1 	movl   $0xb99a9bb1,-0xed4(%rbp)
    82d7:	9b 9a b9 
    82da:	48 8d 05 3b af 00 00 	lea    0xaf3b(%rip),%rax        # 1321c <g_421>
    82e1:	48 89 85 20 f4 ff ff 	mov    %rax,-0xbe0(%rbp)
    82e8:	48 8d 05 2d af 00 00 	lea    0xaf2d(%rip),%rax        # 1321c <g_421>
    82ef:	48 89 85 28 f4 ff ff 	mov    %rax,-0xbd8(%rbp)
    82f6:	48 8d 05 1f af 00 00 	lea    0xaf1f(%rip),%rax        # 1321c <g_421>
    82fd:	48 89 85 30 f4 ff ff 	mov    %rax,-0xbd0(%rbp)
    8304:	48 8d 05 11 af 00 00 	lea    0xaf11(%rip),%rax        # 1321c <g_421>
    830b:	48 89 85 38 f4 ff ff 	mov    %rax,-0xbc8(%rbp)
    8312:	48 8d 05 03 af 00 00 	lea    0xaf03(%rip),%rax        # 1321c <g_421>
    8319:	48 89 85 40 f4 ff ff 	mov    %rax,-0xbc0(%rbp)
    8320:	48 8d 05 f5 ae 00 00 	lea    0xaef5(%rip),%rax        # 1321c <g_421>
    8327:	48 89 85 48 f4 ff ff 	mov    %rax,-0xbb8(%rbp)
    832e:	48 8d 05 e7 ae 00 00 	lea    0xaee7(%rip),%rax        # 1321c <g_421>
    8335:	48 89 85 50 f4 ff ff 	mov    %rax,-0xbb0(%rbp)
    833c:	48 8d 05 d9 ae 00 00 	lea    0xaed9(%rip),%rax        # 1321c <g_421>
    8343:	48 89 85 58 f4 ff ff 	mov    %rax,-0xba8(%rbp)
    834a:	48 8d 05 cb ae 00 00 	lea    0xaecb(%rip),%rax        # 1321c <g_421>
    8351:	48 89 85 60 f4 ff ff 	mov    %rax,-0xba0(%rbp)
    8358:	48 8d 05 bd ae 00 00 	lea    0xaebd(%rip),%rax        # 1321c <g_421>
    835f:	48 89 85 68 f4 ff ff 	mov    %rax,-0xb98(%rbp)
    8366:	48 8d 05 af ae 00 00 	lea    0xaeaf(%rip),%rax        # 1321c <g_421>
    836d:	48 89 85 70 f4 ff ff 	mov    %rax,-0xb90(%rbp)
    8374:	48 8d 05 a1 ae 00 00 	lea    0xaea1(%rip),%rax        # 1321c <g_421>
    837b:	48 89 85 78 f4 ff ff 	mov    %rax,-0xb88(%rbp)
    8382:	48 8d 05 5f af 00 00 	lea    0xaf5f(%rip),%rax        # 132e8 <g_469>
    8389:	48 89 85 20 f2 ff ff 	mov    %rax,-0xde0(%rbp)
    8390:	48 8d 05 41 ae 00 00 	lea    0xae41(%rip),%rax        # 131d8 <g_207>
    8397:	48 89 85 28 f2 ff ff 	mov    %rax,-0xdd8(%rbp)
    839e:	83 85 08 f1 ff ff 01 	addl   $0x1,-0xef8(%rbp)
    83a5:	83 bd 08 f1 ff ff 13 	cmpl   $0x13,-0xef8(%rbp)
    83ac:	0f 8f 1e ff ff ff    	jg     82d0 <func_35+0x52f>
    83b2:	48 8b 85 e0 f1 ff ff 	mov    -0xe20(%rbp),%rax
    83b9:	0f bf d8             	movswl %ax,%ebx
    83bc:	48 8d 05 e5 cd 00 00 	lea    0xcde5(%rip),%rax        # 151a8 <g_717>
    83c3:	48 39 85 80 f1 ff ff 	cmp    %rax,-0xe80(%rbp)
    83ca:	0f 94 c0             	sete   %al
    83cd:	44 0f b6 e0          	movzbl %al,%r12d
    83d1:	0f be 95 03 f1 ff ff 	movsbl -0xefd(%rbp),%edx
    83d8:	0f b6 05 ad ad 00 00 	movzbl 0xadad(%rip),%eax        # 1318c <g_154>
    83df:	0f b6 c0             	movzbl %al,%eax
    83e2:	89 d6                	mov    %edx,%esi
    83e4:	89 c7                	mov    %eax,%edi
    83e6:	e8 a2 d8 ff ff       	callq  5c8d <safe_rshift_func_uint8_t_u_s>
    83eb:	0f b6 c0             	movzbl %al,%eax
    83ee:	44 89 e6             	mov    %r12d,%esi
    83f1:	89 c7                	mov    %eax,%edi
    83f3:	e8 9b d7 ff ff       	callq  5b93 <safe_mul_func_uint8_t_u_u>
    83f8:	0f b6 c0             	movzbl %al,%eax
    83fb:	f7 d0                	not    %eax
    83fd:	98                   	cwtl   
    83fe:	be 02 00 00 00       	mov    $0x2,%esi
    8403:	89 c7                	mov    %eax,%edi
    8405:	e8 20 d1 ff ff       	callq  552a <safe_rshift_func_int16_t_s_s>
    840a:	48 8b 95 28 f3 ff ff 	mov    -0xcd8(%rbp),%rdx
    8411:	48 8b 05 28 c5 00 00 	mov    0xc528(%rip),%rax        # 14940 <g_1274>
    8418:	48 39 c2             	cmp    %rax,%rdx
    841b:	0f 95 c0             	setne  %al
    841e:	0f b6 d0             	movzbl %al,%edx
    8421:	0f b7 85 38 f2 ff ff 	movzwl -0xdc8(%rbp),%eax
    8428:	0f b7 c0             	movzwl %ax,%eax
    842b:	09 d0                	or     %edx,%eax
    842d:	85 c0                	test   %eax,%eax
    842f:	74 07                	je     8438 <func_35+0x697>
    8431:	b8 01 00 00 00       	mov    $0x1,%eax
    8436:	eb 05                	jmp    843d <func_35+0x69c>
    8438:	b8 00 00 00 00       	mov    $0x0,%eax
    843d:	98                   	cwtl   
    843e:	89 de                	mov    %ebx,%esi
    8440:	89 c7                	mov    %eax,%edi
    8442:	e8 0e d0 ff ff       	callq  5455 <safe_div_func_int16_t_s_s>
    8447:	48 0f bf c0          	movswq %ax,%rax
    844b:	48 ba 92 29 57 da 7f 	movabs $0x5a19807fda572992,%rdx
    8452:	80 19 5a 
    8455:	48 21 d0             	and    %rdx,%rax
    8458:	48 85 c0             	test   %rax,%rax
    845b:	0f 84 a7 05 00 00    	je     8a08 <func_35+0xc67>
    8461:	48 8d 05 18 cd 00 00 	lea    0xcd18(%rip),%rax        # 15180 <g_345>
    8468:	48 89 85 60 f1 ff ff 	mov    %rax,-0xea0(%rbp)
    846f:	48 8d 85 60 f1 ff ff 	lea    -0xea0(%rbp),%rax
    8476:	48 89 85 f8 f1 ff ff 	mov    %rax,-0xe08(%rbp)
    847d:	c7 85 24 f1 ff ff e4 	movl   $0x9e3a3de4,-0xedc(%rbp)
    8484:	3d 3a 9e 
    8487:	66 c7 85 90 f3 ff ff 	movw   $0xa5c7,-0xc70(%rbp)
    848e:	c7 a5 
    8490:	66 c7 85 92 f3 ff ff 	movw   $0x1d0f,-0xc6e(%rbp)
    8497:	0f 1d 
    8499:	66 c7 85 94 f3 ff ff 	movw   $0xbd5d,-0xc6c(%rbp)
    84a0:	5d bd 
    84a2:	66 c7 85 96 f3 ff ff 	movw   $0xfffe,-0xc6a(%rbp)
    84a9:	fe ff 
    84ab:	66 c7 85 98 f3 ff ff 	movw   $0xbd5d,-0xc68(%rbp)
    84b2:	5d bd 
    84b4:	66 c7 85 9a f3 ff ff 	movw   $0x1d0f,-0xc66(%rbp)
    84bb:	0f 1d 
    84bd:	66 c7 85 9c f3 ff ff 	movw   $0xa5c7,-0xc64(%rbp)
    84c4:	c7 a5 
    84c6:	66 c7 85 9e f3 ff ff 	movw   $0x8,-0xc62(%rbp)
    84cd:	08 00 
    84cf:	66 c7 85 a0 f3 ff ff 	movw   $0xbd5d,-0xc60(%rbp)
    84d6:	5d bd 
    84d8:	66 c7 85 a2 f3 ff ff 	movw   $0x882d,-0xc5e(%rbp)
    84df:	2d 88 
    84e1:	66 c7 85 a4 f3 ff ff 	movw   $0xbd5d,-0xc5c(%rbp)
    84e8:	5d bd 
    84ea:	66 c7 85 a6 f3 ff ff 	movw   $0x8,-0xc5a(%rbp)
    84f1:	08 00 
    84f3:	66 c7 85 a8 f3 ff ff 	movw   $0xa5c7,-0xc58(%rbp)
    84fa:	c7 a5 
    84fc:	66 c7 85 aa f3 ff ff 	movw   $0x1d0f,-0xc56(%rbp)
    8503:	0f 1d 
    8505:	66 c7 85 ac f3 ff ff 	movw   $0xbd5d,-0xc54(%rbp)
    850c:	5d bd 
    850e:	66 c7 85 ae f3 ff ff 	movw   $0xfffe,-0xc52(%rbp)
    8515:	fe ff 
    8517:	66 c7 85 b0 f3 ff ff 	movw   $0xbd5d,-0xc50(%rbp)
    851e:	5d bd 
    8520:	66 c7 85 b2 f3 ff ff 	movw   $0x1d0f,-0xc4e(%rbp)
    8527:	0f 1d 
    8529:	66 c7 85 b4 f3 ff ff 	movw   $0xa5c7,-0xc4c(%rbp)
    8530:	c7 a5 
    8532:	66 c7 85 b6 f3 ff ff 	movw   $0x8,-0xc4a(%rbp)
    8539:	08 00 
    853b:	66 c7 85 b8 f3 ff ff 	movw   $0xbd5d,-0xc48(%rbp)
    8542:	5d bd 
    8544:	66 c7 85 ba f3 ff ff 	movw   $0x882d,-0xc46(%rbp)
    854b:	2d 88 
    854d:	66 c7 85 bc f3 ff ff 	movw   $0xbd5d,-0xc44(%rbp)
    8554:	5d bd 
    8556:	66 c7 85 be f3 ff ff 	movw   $0x8,-0xc42(%rbp)
    855d:	08 00 
    855f:	66 c7 85 c0 f3 ff ff 	movw   $0xa5c7,-0xc40(%rbp)
    8566:	c7 a5 
    8568:	66 c7 85 c2 f3 ff ff 	movw   $0x1d0f,-0xc3e(%rbp)
    856f:	0f 1d 
    8571:	66 c7 85 c4 f3 ff ff 	movw   $0xbd5d,-0xc3c(%rbp)
    8578:	5d bd 
    857a:	66 c7 85 c6 f3 ff ff 	movw   $0xfffe,-0xc3a(%rbp)
    8581:	fe ff 
    8583:	66 c7 85 c8 f3 ff ff 	movw   $0xbd5d,-0xc38(%rbp)
    858a:	5d bd 
    858c:	66 c7 85 ca f3 ff ff 	movw   $0x1d0f,-0xc36(%rbp)
    8593:	0f 1d 
    8595:	66 c7 85 cc f3 ff ff 	movw   $0xa5c7,-0xc34(%rbp)
    859c:	c7 a5 
    859e:	66 c7 85 ce f3 ff ff 	movw   $0x8,-0xc32(%rbp)
    85a5:	08 00 
    85a7:	66 c7 85 d0 f3 ff ff 	movw   $0xa5c7,-0xc30(%rbp)
    85ae:	c7 a5 
    85b0:	66 c7 85 d2 f3 ff ff 	movw   $0xfffd,-0xc2e(%rbp)
    85b7:	fd ff 
    85b9:	66 c7 85 d4 f3 ff ff 	movw   $0xa5c7,-0xc2c(%rbp)
    85c0:	c7 a5 
    85c2:	66 c7 85 d6 f3 ff ff 	movw   $0xfffe,-0xc2a(%rbp)
    85c9:	fe ff 
    85cb:	66 c7 85 d8 f3 ff ff 	movw   $0x5,-0xc28(%rbp)
    85d2:	05 00 
    85d4:	66 c7 85 da f3 ff ff 	movw   $0x882d,-0xc26(%rbp)
    85db:	2d 88 
    85dd:	66 c7 85 dc f3 ff ff 	movw   $0xa5c7,-0xc24(%rbp)
    85e4:	c7 a5 
    85e6:	66 c7 85 de f3 ff ff 	movw   $0xffff,-0xc22(%rbp)
    85ed:	ff ff 
    85ef:	66 c7 85 e0 f3 ff ff 	movw   $0xa5c7,-0xc20(%rbp)
    85f6:	c7 a5 
    85f8:	66 c7 85 e2 f3 ff ff 	movw   $0x882d,-0xc1e(%rbp)
    85ff:	2d 88 
    8601:	66 c7 85 e4 f3 ff ff 	movw   $0x5,-0xc1c(%rbp)
    8608:	05 00 
    860a:	66 c7 85 e6 f3 ff ff 	movw   $0xfffe,-0xc1a(%rbp)
    8611:	fe ff 
    8613:	66 c7 85 e8 f3 ff ff 	movw   $0xa5c7,-0xc18(%rbp)
    861a:	c7 a5 
    861c:	66 c7 85 ea f3 ff ff 	movw   $0xfffd,-0xc16(%rbp)
    8623:	fd ff 
    8625:	66 c7 85 ec f3 ff ff 	movw   $0xa5c7,-0xc14(%rbp)
    862c:	c7 a5 
    862e:	66 c7 85 ee f3 ff ff 	movw   $0xfffe,-0xc12(%rbp)
    8635:	fe ff 
    8637:	66 c7 85 f0 f3 ff ff 	movw   $0x5,-0xc10(%rbp)
    863e:	05 00 
    8640:	66 c7 85 f2 f3 ff ff 	movw   $0x882d,-0xc0e(%rbp)
    8647:	2d 88 
    8649:	66 c7 85 f4 f3 ff ff 	movw   $0xa5c7,-0xc0c(%rbp)
    8650:	c7 a5 
    8652:	66 c7 85 f6 f3 ff ff 	movw   $0xffff,-0xc0a(%rbp)
    8659:	ff ff 
    865b:	66 c7 85 f8 f3 ff ff 	movw   $0xa5c7,-0xc08(%rbp)
    8662:	c7 a5 
    8664:	66 c7 85 fa f3 ff ff 	movw   $0x882d,-0xc06(%rbp)
    866b:	2d 88 
    866d:	66 c7 85 fc f3 ff ff 	movw   $0x5,-0xc04(%rbp)
    8674:	05 00 
    8676:	66 c7 85 fe f3 ff ff 	movw   $0xfffe,-0xc02(%rbp)
    867d:	fe ff 
    867f:	66 c7 85 00 f4 ff ff 	movw   $0xa5c7,-0xc00(%rbp)
    8686:	c7 a5 
    8688:	66 c7 85 02 f4 ff ff 	movw   $0xfffd,-0xbfe(%rbp)
    868f:	fd ff 
    8691:	66 c7 85 04 f4 ff ff 	movw   $0xa5c7,-0xbfc(%rbp)
    8698:	c7 a5 
    869a:	66 c7 85 06 f4 ff ff 	movw   $0xfffe,-0xbfa(%rbp)
    86a1:	fe ff 
    86a3:	66 c7 85 08 f4 ff ff 	movw   $0x5,-0xbf8(%rbp)
    86aa:	05 00 
    86ac:	66 c7 85 0a f4 ff ff 	movw   $0x882d,-0xbf6(%rbp)
    86b3:	2d 88 
    86b5:	66 c7 85 0c f4 ff ff 	movw   $0xa5c7,-0xbf4(%rbp)
    86bc:	c7 a5 
    86be:	66 c7 85 0e f4 ff ff 	movw   $0xffff,-0xbf2(%rbp)
    86c5:	ff ff 
    86c7:	66 c7 85 10 f4 ff ff 	movw   $0xa5c7,-0xbf0(%rbp)
    86ce:	c7 a5 
    86d0:	66 c7 85 12 f4 ff ff 	movw   $0x882d,-0xbee(%rbp)
    86d7:	2d 88 
    86d9:	66 c7 85 14 f4 ff ff 	movw   $0x5,-0xbec(%rbp)
    86e0:	05 00 
    86e2:	66 c7 85 16 f4 ff ff 	movw   $0xfffe,-0xbea(%rbp)
    86e9:	fe ff 
    86eb:	66 c7 85 18 f4 ff ff 	movw   $0xa5c7,-0xbe8(%rbp)
    86f2:	c7 a5 
    86f4:	66 c7 85 1a f4 ff ff 	movw   $0xfffd,-0xbe6(%rbp)
    86fb:	fd ff 
    86fd:	48 8d 05 8c ca 00 00 	lea    0xca8c(%rip),%rax        # 15190 <g_612>
    8704:	48 89 85 00 f2 ff ff 	mov    %rax,-0xe00(%rbp)
    870b:	83 bd 24 f1 ff ff 00 	cmpl   $0x0,-0xedc(%rbp)
    8712:	0f 9e c0             	setle  %al
    8715:	0f b6 c0             	movzbl %al,%eax
    8718:	48 8b 95 e0 f1 ff ff 	mov    -0xe20(%rbp),%rdx
    871f:	48 89 d6             	mov    %rdx,%rsi
    8722:	48 89 c7             	mov    %rax,%rdi
    8725:	e8 56 d9 ff ff       	callq  6080 <safe_mod_func_uint64_t_u_u>
    872a:	48 ba f8 11 22 31 ff 	movabs $0xffffffff312211f8,%rdx
    8731:	ff ff ff 
    8734:	48 39 d0             	cmp    %rdx,%rax
    8737:	0f 84 bc 02 00 00    	je     89f9 <func_35+0xc58>
    873d:	48 c7 85 08 f2 ff ff 	movq   $0x0,-0xdf8(%rbp)
    8744:	00 00 00 00 
    8748:	48 8d 85 40 f1 ff ff 	lea    -0xec0(%rbp),%rax
    874f:	48 89 85 10 f2 ff ff 	mov    %rax,-0xdf0(%rbp)
    8756:	c7 85 28 f1 ff ff 02 	movl   $0x2,-0xed8(%rbp)
    875d:	00 00 00 
    8760:	48 8d 85 90 f3 ff ff 	lea    -0xc70(%rbp),%rax
    8767:	48 83 c0 54          	add    $0x54,%rax
    876b:	48 89 85 18 f2 ff ff 	mov    %rax,-0xde8(%rbp)
    8772:	c7 85 10 f1 ff ff 00 	movl   $0x0,-0xef0(%rbp)
    8779:	00 00 00 
    877c:	eb 54                	jmp    87d2 <func_35+0xa31>
    877e:	c7 85 14 f1 ff ff 00 	movl   $0x0,-0xeec(%rbp)
    8785:	00 00 00 
    8788:	eb 38                	jmp    87c2 <func_35+0xa21>
    878a:	8b 85 14 f1 ff ff    	mov    -0xeec(%rbp),%eax
    8790:	48 63 c8             	movslq %eax,%rcx
    8793:	8b 85 10 f1 ff ff    	mov    -0xef0(%rbp),%eax
    8799:	48 63 d0             	movslq %eax,%rdx
    879c:	48 89 d0             	mov    %rdx,%rax
    879f:	48 c1 e0 02          	shl    $0x2,%rax
    87a3:	48 01 d0             	add    %rdx,%rax
    87a6:	48 01 c0             	add    %rax,%rax
    87a9:	48 01 c8             	add    %rcx,%rax
    87ac:	48 8d 15 8d ac 00 00 	lea    0xac8d(%rip),%rdx        # 13440 <g_501>
    87b3:	48 89 94 c5 20 f4 ff 	mov    %rdx,-0xbe0(%rbp,%rax,8)
    87ba:	ff 
    87bb:	83 85 14 f1 ff ff 01 	addl   $0x1,-0xeec(%rbp)
    87c2:	83 bd 14 f1 ff ff 09 	cmpl   $0x9,-0xeec(%rbp)
    87c9:	7e bf                	jle    878a <func_35+0x9e9>
    87cb:	83 85 10 f1 ff ff 01 	addl   $0x1,-0xef0(%rbp)
    87d2:	83 bd 10 f1 ff ff 05 	cmpl   $0x5,-0xef0(%rbp)
    87d9:	7e a3                	jle    877e <func_35+0x9dd>
    87db:	48 8b 1d 56 ad 00 00 	mov    0xad56(%rip),%rbx        # 13538 <g_1129>
    87e2:	48 8d 43 ff          	lea    -0x1(%rbx),%rax
    87e6:	48 89 05 4b ad 00 00 	mov    %rax,0xad4b(%rip)        # 13538 <g_1129>
    87ed:	48 8b 05 bc bd 00 00 	mov    0xbdbc(%rip),%rax        # 145b0 <g_162>
    87f4:	8b 00                	mov    (%rax),%eax
    87f6:	44 8b a5 1c f1 ff ff 	mov    -0xee4(%rbp),%r12d
    87fd:	48 8b 85 68 f3 ff ff 	mov    -0xc98(%rbp),%rax
    8804:	48 85 c0             	test   %rax,%rax
    8807:	0f 94 c0             	sete   %al
    880a:	0f b6 f0             	movzbl %al,%esi
    880d:	48 8b 05 d4 bd 00 00 	mov    0xbdd4(%rip),%rax        # 145e8 <g_496>
    8814:	0f b7 10             	movzwl (%rax),%edx
    8817:	8d 4a ff             	lea    -0x1(%rdx),%ecx
    881a:	66 89 08             	mov    %cx,(%rax)
    881d:	0f b7 c2             	movzwl %dx,%eax
    8820:	39 c6                	cmp    %eax,%esi
    8822:	48 8b 95 40 f1 ff ff 	mov    -0xec0(%rbp),%rdx
    8829:	48 8b 85 10 f2 ff ff 	mov    -0xdf0(%rbp),%rax
    8830:	48 89 10             	mov    %rdx,(%rax)
    8833:	48 8b 85 10 f2 ff ff 	mov    -0xdf0(%rbp),%rax
    883a:	48 8b 00             	mov    (%rax),%rax
    883d:	48 39 85 e8 f1 ff ff 	cmp    %rax,-0xe18(%rbp)
    8844:	8b 85 08 f1 ff ff    	mov    -0xef8(%rbp),%eax
    884a:	4c 63 e8             	movslq %eax,%r13
    884d:	48 8b 85 80 f1 ff ff 	mov    -0xe80(%rbp),%rax
    8854:	48 8b 00             	mov    (%rax),%rax
    8857:	48 8b 00             	mov    (%rax),%rax
    885a:	48 85 c0             	test   %rax,%rax
    885d:	0f 94 c0             	sete   %al
    8860:	0f b6 c0             	movzbl %al,%eax
    8863:	39 85 08 f1 ff ff    	cmp    %eax,-0xef8(%rbp)
    8869:	0f 9d c0             	setge  %al
    886c:	0f b6 c0             	movzbl %al,%eax
    886f:	be ff ff 00 00       	mov    $0xffff,%esi
    8874:	89 c7                	mov    %eax,%edi
    8876:	e8 84 d4 ff ff       	callq  5cff <safe_add_func_uint16_t_u_u>
    887b:	4c 89 ee             	mov    %r13,%rsi
    887e:	bf 00 00 00 00       	mov    $0x0,%edi
    8883:	e8 c3 d7 ff ff       	callq  604b <safe_sub_func_uint64_t_u_u>
    8888:	0f b7 c0             	movzwl %ax,%eax
    888b:	be 0b 00 00 00       	mov    $0xb,%esi
    8890:	89 c7                	mov    %eax,%edi
    8892:	e8 b1 d5 ff ff       	callq  5e48 <safe_rshift_func_uint16_t_u_s>
    8897:	48 8b 85 f0 f0 ff ff 	mov    -0xf10(%rbp),%rax
    889e:	8b 00                	mov    (%rax),%eax
    88a0:	83 f8 01             	cmp    $0x1,%eax
    88a3:	0f 9f c0             	setg   %al
    88a6:	0f b6 c0             	movzbl %al,%eax
    88a9:	4c 89 e6             	mov    %r12,%rsi
    88ac:	48 89 c7             	mov    %rax,%rdi
    88af:	e8 fb d7 ff ff       	callq  60af <safe_div_func_uint64_t_u_u>
    88b4:	f7 d0                	not    %eax
    88b6:	0f be c0             	movsbl %al,%eax
    88b9:	be 09 00 00 00       	mov    $0x9,%esi
    88be:	89 c7                	mov    %eax,%edi
    88c0:	e8 a5 c9 ff ff       	callq  526a <safe_div_func_int8_t_s_s>
    88c5:	0f be c0             	movsbl %al,%eax
    88c8:	89 85 08 f1 ff ff    	mov    %eax,-0xef8(%rbp)
    88ce:	0f b7 85 e4 f3 ff ff 	movzwl -0xc1c(%rbp),%eax
    88d5:	66 85 c0             	test   %ax,%ax
    88d8:	74 0a                	je     88e4 <func_35+0xb43>
    88da:	0f b7 85 e4 f3 ff ff 	movzwl -0xc1c(%rbp),%eax
    88e1:	66 85 c0             	test   %ax,%ax
    88e4:	8b 85 20 f1 ff ff    	mov    -0xee0(%rbp),%eax
    88ea:	48 98                	cltq   
    88ec:	48 be cd a3 6b f6 b6 	movabs $0x76c51b6f66ba3cd,%rsi
    88f3:	51 6c 07 
    88f6:	48 89 c7             	mov    %rax,%rdi
    88f9:	e8 b6 d0 ff ff       	callq  59b4 <safe_mod_func_int64_t_s_s>
    88fe:	48 39 c3             	cmp    %rax,%rbx
    8901:	0f 92 c0             	setb   %al
    8904:	0f b6 c8             	movzbl %al,%ecx
    8907:	48 8b 05 aa bc 00 00 	mov    0xbcaa(%rip),%rax        # 145b8 <g_256>
    890e:	8b 10                	mov    (%rax),%edx
    8910:	48 8b 05 a1 bc 00 00 	mov    0xbca1(%rip),%rax        # 145b8 <g_256>
    8917:	31 ca                	xor    %ecx,%edx
    8919:	89 10                	mov    %edx,(%rax)
    891b:	83 bd 08 f1 ff ff 00 	cmpl   $0x0,-0xef8(%rbp)
    8922:	0f 85 7d 01 00 00    	jne    8aa5 <func_35+0xd04>
    8928:	8b 9d 28 f1 ff ff    	mov    -0xed8(%rbp),%ebx
    892e:	8b 05 f0 a6 00 00    	mov    0xa6f0(%rip),%eax        # 13024 <g_10>
    8934:	41 89 c4             	mov    %eax,%r12d
    8937:	c6 05 02 ab 00 00 01 	movb   $0x1,0xab02(%rip)        # 13440 <g_501>
    893e:	48 8b 05 5b bc 00 00 	mov    0xbc5b(%rip),%rax        # 145a0 <g_153>
    8945:	0f b6 00             	movzbl (%rax),%eax
    8948:	48 8b 85 78 f1 ff ff 	mov    -0xe88(%rbp),%rax
    894f:	48 8b 95 00 f2 ff ff 	mov    -0xe00(%rbp),%rdx
    8956:	48 89 10             	mov    %rdx,(%rax)
    8959:	48 8b 85 78 f1 ff ff 	mov    -0xe88(%rbp),%rax
    8960:	48 8b 00             	mov    (%rax),%rax
    8963:	48 39 85 d8 f1 ff ff 	cmp    %rax,-0xe28(%rbp)
    896a:	0f 94 c0             	sete   %al
    896d:	0f b6 d0             	movzbl %al,%edx
    8970:	48 8b 05 59 bc 00 00 	mov    0xbc59(%rip),%rax        # 145d0 <g_383>
    8977:	0f b7 00             	movzwl (%rax),%eax
    897a:	98                   	cwtl   
    897b:	89 d6                	mov    %edx,%esi
    897d:	89 c7                	mov    %eax,%edi
    897f:	e8 df cb ff ff       	callq  5563 <safe_rshift_func_int16_t_s_u>
    8984:	0f bf d0             	movswl %ax,%edx
    8987:	8b 05 93 7a 00 00    	mov    0x7a93(%rip),%eax        # 10420 <l_1250.4310>
    898d:	39 c2                	cmp    %eax,%edx
    898f:	0f 9f c0             	setg   %al
    8992:	0f b6 d0             	movzbl %al,%edx
    8995:	48 8b 85 18 f2 ff ff 	mov    -0xde8(%rbp),%rax
    899c:	66 89 10             	mov    %dx,(%rax)
    899f:	48 8b 85 18 f2 ff ff 	mov    -0xde8(%rbp),%rax
    89a6:	0f b7 00             	movzwl (%rax),%eax
    89a9:	0f b7 d0             	movzwl %ax,%edx
    89ac:	48 8b 05 35 bc 00 00 	mov    0xbc35(%rip),%rax        # 145e8 <g_496>
    89b3:	0f b7 00             	movzwl (%rax),%eax
    89b6:	0f b7 c0             	movzwl %ax,%eax
    89b9:	89 d6                	mov    %edx,%esi
    89bb:	89 c7                	mov    %eax,%edi
    89bd:	e8 5d d3 ff ff       	callq  5d1f <safe_sub_func_uint16_t_u_u>
    89c2:	48 8b 05 1f bc 00 00 	mov    0xbc1f(%rip),%rax        # 145e8 <g_496>
    89c9:	66 c7 00 ff ff       	movw   $0xffff,(%rax)
    89ce:	0f b7 00             	movzwl (%rax),%eax
    89d1:	66 3d 40 44          	cmp    $0x4440,%ax
    89d5:	48 8b 95 f0 f0 ff ff 	mov    -0xf10(%rbp),%rdx
    89dc:	48 8b 85 f0 f1 ff ff 	mov    -0xe10(%rbp),%rax
    89e3:	89 d9                	mov    %ebx,%ecx
    89e5:	44 89 e6             	mov    %r12d,%esi
    89e8:	48 89 c7             	mov    %rax,%rdi
    89eb:	e8 9c 03 00 00       	callq  8d8c <func_38>
    89f0:	48 89 85 f0 f1 ff ff 	mov    %rax,-0xe10(%rbp)
    89f7:	eb 6c                	jmp    8a65 <func_35+0xcc4>
    89f9:	48 8b 05 38 bf 00 00 	mov    0xbf38(%rip),%rax        # 14938 <g_1261>
    8a00:	48 8b 00             	mov    (%rax),%rax
    8a03:	e9 60 03 00 00       	jmpq   8d68 <func_35+0xfc7>
    8a08:	c7 05 f6 a6 00 00 00 	movl   $0x0,0xa6f6(%rip)        # 13108 <g_120>
    8a0f:	00 00 00 
    8a12:	eb 47                	jmp    8a5b <func_35+0xcba>
    8a14:	48 8d 85 20 f4 ff ff 	lea    -0xbe0(%rbp),%rax
    8a1b:	48 8d 15 1e 69 00 00 	lea    0x691e(%rip),%rdx        # f340 <g_634+0x2e8>
    8a22:	b9 36 00 00 00       	mov    $0x36,%ecx
    8a27:	48 89 c7             	mov    %rax,%rdi
    8a2a:	48 89 d6             	mov    %rdx,%rsi
    8a2d:	f3 48 a5             	rep movsq %ds:(%rsi),%es:(%rdi)
    8a30:	48 8b 95 c0 f5 ff ff 	mov    -0xa40(%rbp),%rdx
    8a37:	48 8b 85 f8 f0 ff ff 	mov    -0xf08(%rbp),%rax
    8a3e:	8b 00                	mov    (%rax),%eax
    8a40:	48 98                	cltq   
    8a42:	48 21 d0             	and    %rdx,%rax
    8a45:	48 89 85 c0 f5 ff ff 	mov    %rax,-0xa40(%rbp)
    8a4c:	8b 05 b6 a6 00 00    	mov    0xa6b6(%rip),%eax        # 13108 <g_120>
    8a52:	83 c0 01             	add    $0x1,%eax
    8a55:	89 05 ad a6 00 00    	mov    %eax,0xa6ad(%rip)        # 13108 <g_120>
    8a5b:	8b 05 a7 a6 00 00    	mov    0xa6a7(%rip),%eax        # 13108 <g_120>
    8a61:	85 c0                	test   %eax,%eax
    8a63:	74 af                	je     8a14 <func_35+0xc73>
    8a65:	48 8b 05 74 bb 00 00 	mov    0xbb74(%rip),%rax        # 145e0 <g_474>
    8a6c:	8b 08                	mov    (%rax),%ecx
    8a6e:	48 8b 95 f8 f0 ff ff 	mov    -0xf08(%rbp),%rdx
    8a75:	8b 12                	mov    (%rdx),%edx
    8a77:	21 ca                	and    %ecx,%edx
    8a79:	89 10                	mov    %edx,(%rax)
    8a7b:	8b 05 7b a6 00 00    	mov    0xa67b(%rip),%eax        # 130fc <g_75>
    8a81:	89 c0                	mov    %eax,%eax
    8a83:	be 02 00 00 00       	mov    $0x2,%esi
    8a88:	48 89 c7             	mov    %rax,%rdi
    8a8b:	e8 b1 cd ff ff       	callq  5841 <safe_add_func_int64_t_s_s>
    8a90:	89 05 66 a6 00 00    	mov    %eax,0xa666(%rip)        # 130fc <g_75>
    8a96:	8b 05 60 a6 00 00    	mov    0xa660(%rip),%eax        # 130fc <g_75>
    8a9c:	83 f8 22             	cmp    $0x22,%eax
    8a9f:	0f 85 f8 f6 ff ff    	jne    819d <func_35+0x3fc>
    8aa5:	48 8b 15 0c bb 00 00 	mov    0xbb0c(%rip),%rdx        # 145b8 <g_256>
    8aac:	48 8b 05 05 bb 00 00 	mov    0xbb05(%rip),%rax        # 145b8 <g_256>
    8ab3:	8b 12                	mov    (%rdx),%edx
    8ab5:	89 10                	mov    %edx,(%rax)
    8ab7:	48 8b 05 72 be 00 00 	mov    0xbe72(%rip),%rax        # 14930 <g_1254>
    8abe:	48 8b 00             	mov    (%rax),%rax
    8ac1:	8b 00                	mov    (%rax),%eax
    8ac3:	85 c0                	test   %eax,%eax
    8ac5:	75 0a                	jne    8ad1 <func_35+0xd30>
    8ac7:	8b 05 5f 79 00 00    	mov    0x795f(%rip),%eax        # 1042c <l_1250.4310+0xc>
    8acd:	85 c0                	test   %eax,%eax
    8acf:	74 07                	je     8ad8 <func_35+0xd37>
    8ad1:	b8 01 00 00 00       	mov    $0x1,%eax
    8ad6:	eb 05                	jmp    8add <func_35+0xd3c>
    8ad8:	b8 00 00 00 00       	mov    $0x0,%eax
    8add:	31 85 08 f1 ff ff    	xor    %eax,-0xef8(%rbp)
    8ae3:	0f b6 05 22 a6 00 00 	movzbl 0xa622(%rip),%eax        # 1310c <g_132>
    8aea:	0f b6 c0             	movzbl %al,%eax
    8aed:	be 01 00 00 00       	mov    $0x1,%esi
    8af2:	89 c7                	mov    %eax,%edi
    8af4:	e8 06 d2 ff ff       	callq  5cff <safe_add_func_uint16_t_u_u>
    8af9:	88 05 0d a6 00 00    	mov    %al,0xa60d(%rip)        # 1310c <g_132>
    8aff:	0f b6 05 06 a6 00 00 	movzbl 0xa606(%rip),%eax        # 1310c <g_132>
    8b06:	3c 1b                	cmp    $0x1b,%al
    8b08:	0f 84 a3 f5 ff ff    	je     80b1 <func_35+0x310>
    8b0e:	e9 43 02 00 00       	jmpq   8d56 <func_35+0xfb5>
    8b13:	c6 85 02 f1 ff ff 01 	movb   $0x1,-0xefe(%rbp)
    8b1a:	48 8d 85 50 f2 ff ff 	lea    -0xdb0(%rbp),%rax
    8b21:	48 83 c0 08          	add    $0x8,%rax
    8b25:	48 89 85 60 f1 ff ff 	mov    %rax,-0xea0(%rbp)
    8b2c:	48 8d 85 60 f1 ff ff 	lea    -0xea0(%rbp),%rax
    8b33:	48 89 85 98 f1 ff ff 	mov    %rax,-0xe68(%rbp)
    8b3a:	48 c7 85 a0 f1 ff ff 	movq   $0x0,-0xe60(%rbp)
    8b41:	00 00 00 00 
    8b45:	48 8d 05 a8 a5 00 00 	lea    0xa5a8(%rip),%rax        # 130f4 <g_56>
    8b4c:	48 89 85 a8 f1 ff ff 	mov    %rax,-0xe58(%rbp)
    8b53:	48 8d 85 00 f1 ff ff 	lea    -0xf00(%rbp),%rax
    8b5a:	48 89 85 b0 f1 ff ff 	mov    %rax,-0xe50(%rbp)
    8b61:	48 c7 85 b8 f1 ff ff 	movq   $0x0,-0xe48(%rbp)
    8b68:	00 00 00 00 
    8b6c:	48 8d 05 79 a5 00 00 	lea    0xa579(%rip),%rax        # 130ec <g_47+0x4>
    8b73:	48 89 85 c0 f1 ff ff 	mov    %rax,-0xe40(%rbp)
    8b7a:	48 8d 05 9b a6 00 00 	lea    0xa69b(%rip),%rax        # 1321c <g_421>
    8b81:	48 89 85 c8 f1 ff ff 	mov    %rax,-0xe38(%rbp)
    8b88:	48 8b 9d 60 f1 ff ff 	mov    -0xea0(%rbp),%rbx
    8b8f:	8b 85 70 f2 ff ff    	mov    -0xd90(%rbp),%eax
    8b95:	41 89 c5             	mov    %eax,%r13d
    8b98:	48 8b 05 49 ba 00 00 	mov    0xba49(%rip),%rax        # 145e8 <g_496>
    8b9f:	44 0f b7 20          	movzwl (%rax),%r12d
    8ba3:	0f b6 85 02 f1 ff ff 	movzbl -0xefe(%rbp),%eax
    8baa:	89 c6                	mov    %eax,%esi
    8bac:	bf fd 00 00 00       	mov    $0xfd,%edi
    8bb1:	e8 25 d0 ff ff       	callq  5bdb <safe_div_func_uint8_t_u_u>
    8bb6:	0f b6 c0             	movzbl %al,%eax
    8bb9:	66 41 39 c4          	cmp    %ax,%r12w
    8bbd:	0f 94 c0             	sete   %al
    8bc0:	0f b6 c0             	movzbl %al,%eax
    8bc3:	be 38 c1 00 00       	mov    $0xc138,%esi
    8bc8:	89 c7                	mov    %eax,%edi
    8bca:	e8 50 d1 ff ff       	callq  5d1f <safe_sub_func_uint16_t_u_u>
    8bcf:	98                   	cwtl   
    8bd0:	be 09 00 00 00       	mov    $0x9,%esi
    8bd5:	89 c7                	mov    %eax,%edi
    8bd7:	e8 87 c9 ff ff       	callq  5563 <safe_rshift_func_int16_t_s_u>
    8bdc:	48 83 bd 88 f1 ff ff 	cmpq   $0x0,-0xe78(%rbp)
    8be3:	00 
    8be4:	0f 94 c0             	sete   %al
    8be7:	0f b6 c0             	movzbl %al,%eax
    8bea:	44 89 ee             	mov    %r13d,%esi
    8bed:	89 c7                	mov    %eax,%edi
    8bef:	e8 c2 c9 ff ff       	callq  55b6 <safe_add_func_int32_t_s_s>
    8bf4:	85 c0                	test   %eax,%eax
    8bf6:	75 1b                	jne    8c13 <func_35+0xe72>
    8bf8:	48 8b 05 f1 b9 00 00 	mov    0xb9f1(%rip),%rax        # 145f0 <g_495>
    8bff:	48 8b 00             	mov    (%rax),%rax
    8c02:	0f b7 00             	movzwl (%rax),%eax
    8c05:	66 85 c0             	test   %ax,%ax
    8c08:	75 09                	jne    8c13 <func_35+0xe72>
    8c0a:	80 bd 02 f1 ff ff 00 	cmpb   $0x0,-0xefe(%rbp)
    8c11:	74 07                	je     8c1a <func_35+0xe79>
    8c13:	ba 01 00 00 00       	mov    $0x1,%edx
    8c18:	eb 05                	jmp    8c1f <func_35+0xe7e>
    8c1a:	ba 00 00 00 00       	mov    $0x0,%edx
    8c1f:	0f b6 85 02 f1 ff ff 	movzbl -0xefe(%rbp),%eax
    8c26:	39 c2                	cmp    %eax,%edx
    8c28:	0f 9d c0             	setge  %al
    8c2b:	0f b6 c0             	movzbl %al,%eax
    8c2e:	48 89 de             	mov    %rbx,%rsi
    8c31:	89 c7                	mov    %eax,%edi
    8c33:	e8 f4 02 00 00       	callq  8f2c <func_43>
    8c38:	48 89 85 60 f1 ff ff 	mov    %rax,-0xea0(%rbp)
    8c3f:	48 8b 85 90 f8 ff ff 	mov    -0x770(%rbp),%rax
    8c46:	0f bf d8             	movswl %ax,%ebx
    8c49:	48 8b 85 a8 f1 ff ff 	mov    -0xe58(%rbp),%rax
    8c50:	0f b6 00             	movzbl (%rax),%eax
    8c53:	48 83 bd 90 f1 ff ff 	cmpq   $0x0,-0xe70(%rbp)
    8c5a:	00 
    8c5b:	0f 94 c2             	sete   %dl
    8c5e:	09 c2                	or     %eax,%edx
    8c60:	48 8b 85 a8 f1 ff ff 	mov    -0xe58(%rbp),%rax
    8c67:	88 10                	mov    %dl,(%rax)
    8c69:	48 8b 85 60 f1 ff ff 	mov    -0xea0(%rbp),%rax
    8c70:	8b 00                	mov    (%rax),%eax
    8c72:	0f b7 d0             	movzwl %ax,%edx
    8c75:	48 8b 05 24 b9 00 00 	mov    0xb924(%rip),%rax        # 145a0 <g_153>
    8c7c:	0f b6 08             	movzbl (%rax),%ecx
    8c7f:	48 8b 85 b0 f1 ff ff 	mov    -0xe50(%rbp),%rax
    8c86:	0f b6 00             	movzbl (%rax),%eax
    8c89:	21 c1                	and    %eax,%ecx
    8c8b:	48 8b 85 b0 f1 ff ff 	mov    -0xe50(%rbp),%rax
    8c92:	88 08                	mov    %cl,(%rax)
    8c94:	48 8b 85 b0 f1 ff ff 	mov    -0xe50(%rbp),%rax
    8c9b:	0f b6 00             	movzbl (%rax),%eax
    8c9e:	0f be c8             	movsbl %al,%ecx
    8ca1:	8b 05 55 a4 00 00    	mov    0xa455(%rip),%eax        # 130fc <g_75>
    8ca7:	39 c1                	cmp    %eax,%ecx
    8ca9:	77 13                	ja     8cbe <func_35+0xf1d>
    8cab:	48 8b 85 90 f8 ff ff 	mov    -0x770(%rbp),%rax
    8cb2:	48 85 c0             	test   %rax,%rax
    8cb5:	74 07                	je     8cbe <func_35+0xf1d>
    8cb7:	b8 01 00 00 00       	mov    $0x1,%eax
    8cbc:	eb 05                	jmp    8cc3 <func_35+0xf22>
    8cbe:	b8 00 00 00 00       	mov    $0x0,%eax
    8cc3:	0f b7 c0             	movzwl %ax,%eax
    8cc6:	89 d6                	mov    %edx,%esi
    8cc8:	89 c7                	mov    %eax,%edi
    8cca:	e8 50 d0 ff ff       	callq  5d1f <safe_sub_func_uint16_t_u_u>
    8ccf:	ba 34 3c 63 cc       	mov    $0xcc633c34,%edx
    8cd4:	48 8b 85 c0 f1 ff ff 	mov    -0xe40(%rbp),%rax
    8cdb:	8b 00                	mov    (%rax),%eax
    8cdd:	89 c1                	mov    %eax,%ecx
    8cdf:	89 d0                	mov    %edx,%eax
    8ce1:	09 c8                	or     %ecx,%eax
    8ce3:	89 c2                	mov    %eax,%edx
    8ce5:	48 8b 85 c0 f1 ff ff 	mov    -0xe40(%rbp),%rax
    8cec:	89 10                	mov    %edx,(%rax)
    8cee:	48 8b 85 c0 f1 ff ff 	mov    -0xe40(%rbp),%rax
    8cf5:	8b 00                	mov    (%rax),%eax
    8cf7:	85 c0                	test   %eax,%eax
    8cf9:	75 0e                	jne    8d09 <func_35+0xf68>
    8cfb:	48 8b 85 98 f1 ff ff 	mov    -0xe68(%rbp),%rax
    8d02:	48 8b 00             	mov    (%rax),%rax
    8d05:	8b 00                	mov    (%rax),%eax
    8d07:	85 c0                	test   %eax,%eax
    8d09:	48 8d 05 c8 b8 00 00 	lea    0xb8c8(%rip),%rax        # 145d8 <g_382>
    8d10:	48 8b 00             	mov    (%rax),%rax
    8d13:	48 8b 00             	mov    (%rax),%rax
    8d16:	0f b7 10             	movzwl (%rax),%edx
    8d19:	48 8b 85 60 f1 ff ff 	mov    -0xea0(%rbp),%rax
    8d20:	8b 00                	mov    (%rax),%eax
    8d22:	48 98                	cltq   
    8d24:	48 83 f8 fa          	cmp    $0xfffffffffffffffa,%rax
    8d28:	0f 96 c0             	setbe  %al
    8d2b:	0f b6 c0             	movzbl %al,%eax
    8d2e:	09 d0                	or     %edx,%eax
    8d30:	98                   	cwtl   
    8d31:	89 de                	mov    %ebx,%esi
    8d33:	89 c7                	mov    %eax,%edi
    8d35:	e8 1b c7 ff ff       	callq  5455 <safe_div_func_int16_t_s_s>
    8d3a:	89 c2                	mov    %eax,%edx
    8d3c:	48 8b 05 75 b8 00 00 	mov    0xb875(%rip),%rax        # 145b8 <g_256>
    8d43:	0f bf d2             	movswl %dx,%edx
    8d46:	89 10                	mov    %edx,(%rax)
    8d48:	48 8d 05 a9 a4 00 00 	lea    0xa4a9(%rip),%rax        # 131f8 <g_416>
    8d4f:	48 89 85 c8 f1 ff ff 	mov    %rax,-0xe38(%rbp)
    8d56:	48 c7 05 e7 bb 00 00 	movq   $0x0,0xbbe7(%rip)        # 14948 <g_1350>
    8d5d:	00 00 00 00 
    8d61:	48 8b 85 f0 f0 ff ff 	mov    -0xf10(%rbp),%rax
    8d68:	48 8b 5d d8          	mov    -0x28(%rbp),%rbx
    8d6c:	64 48 33 1c 25 28 00 	xor    %fs:0x28,%rbx
    8d73:	00 00 
    8d75:	74 05                	je     8d7c <func_35+0xfdb>
    8d77:	e8 f4 c2 ff ff       	callq  5070 <__stack_chk_fail@plt>
    8d7c:	48 81 c4 f0 0e 00 00 	add    $0xef0,%rsp
    8d83:	5b                   	pop    %rbx
    8d84:	41 5c                	pop    %r12
    8d86:	41 5d                	pop    %r13
    8d88:	41 5e                	pop    %r14
    8d8a:	5d                   	pop    %rbp
    8d8b:	c3                   	retq   

0000000000008d8c <func_38>:
    8d8c:	f3 0f 1e fa          	endbr64 
    8d90:	55                   	push   %rbp
    8d91:	48 89 e5             	mov    %rsp,%rbp
    8d94:	48 81 ec b0 00 00 00 	sub    $0xb0,%rsp
    8d9b:	48 89 bd 68 ff ff ff 	mov    %rdi,-0x98(%rbp)
    8da2:	89 b5 64 ff ff ff    	mov    %esi,-0x9c(%rbp)
    8da8:	48 89 95 58 ff ff ff 	mov    %rdx,-0xa8(%rbp)
    8daf:	89 8d 60 ff ff ff    	mov    %ecx,-0xa0(%rbp)
    8db5:	64 48 8b 04 25 28 00 	mov    %fs:0x28,%rax
    8dbc:	00 00 
    8dbe:	48 89 45 f8          	mov    %rax,-0x8(%rbp)
    8dc2:	31 c0                	xor    %eax,%eax
    8dc4:	c7 85 78 ff ff ff 01 	movl   $0x1,-0x88(%rbp)
    8dcb:	00 00 00 
    8dce:	c7 85 7c ff ff ff fe 	movl   $0xfffffffe,-0x84(%rbp)
    8dd5:	ff ff ff 
    8dd8:	c7 45 80 e7 3f 3b 27 	movl   $0x273b3fe7,-0x80(%rbp)
    8ddf:	c7 45 84 ff ff ff ff 	movl   $0xffffffff,-0x7c(%rbp)
    8de6:	c7 45 88 af f1 5f 42 	movl   $0x425ff1af,-0x78(%rbp)
    8ded:	c7 45 b0 e1 bc e9 70 	movl   $0x70e9bce1,-0x50(%rbp)
    8df4:	c7 45 b4 e1 bc e9 70 	movl   $0x70e9bce1,-0x4c(%rbp)
    8dfb:	c7 45 b8 e1 bc e9 70 	movl   $0x70e9bce1,-0x48(%rbp)
    8e02:	c7 45 bc e1 bc e9 70 	movl   $0x70e9bce1,-0x44(%rbp)
    8e09:	c7 45 c0 e1 bc e9 70 	movl   $0x70e9bce1,-0x40(%rbp)
    8e10:	c7 45 c4 e1 bc e9 70 	movl   $0x70e9bce1,-0x3c(%rbp)
    8e17:	c7 45 c8 e1 bc e9 70 	movl   $0x70e9bce1,-0x38(%rbp)
    8e1e:	c7 45 cc e1 bc e9 70 	movl   $0x70e9bce1,-0x34(%rbp)
    8e25:	c6 85 71 ff ff ff 01 	movb   $0x1,-0x8f(%rbp)
    8e2c:	c7 85 74 ff ff ff 00 	movl   $0x0,-0x8c(%rbp)
    8e33:	00 00 00 
    8e36:	eb 16                	jmp    8e4e <func_38+0xc2>
    8e38:	8b 85 74 ff ff ff    	mov    -0x8c(%rbp),%eax
    8e3e:	48 98                	cltq   
    8e40:	66 c7 44 45 aa 74 41 	movw   $0x4174,-0x56(%rbp,%rax,2)
    8e47:	83 85 74 ff ff ff 01 	addl   $0x1,-0x8c(%rbp)
    8e4e:	83 bd 74 ff ff ff 02 	cmpl   $0x2,-0x8c(%rbp)
    8e55:	7e e1                	jle    8e38 <func_38+0xac>
    8e57:	0f b7 45 ae          	movzwl -0x52(%rbp),%eax
    8e5b:	83 c0 01             	add    $0x1,%eax
    8e5e:	66 89 45 ae          	mov    %ax,-0x52(%rbp)
    8e62:	c7 85 60 ff ff ff f7 	movl   $0xfffffff7,-0xa0(%rbp)
    8e69:	ff ff ff 
    8e6c:	e9 91 00 00 00       	jmpq   8f02 <func_38+0x176>
    8e71:	66 c7 85 72 ff ff ff 	movw   $0x1,-0x8e(%rbp)
    8e78:	01 00 
    8e7a:	48 8d 05 a3 a1 00 00 	lea    0xa1a3(%rip),%rax        # 13024 <g_10>
    8e81:	48 89 45 98          	mov    %rax,-0x68(%rbp)
    8e85:	48 8d 05 98 a1 00 00 	lea    0xa198(%rip),%rax        # 13024 <g_10>
    8e8c:	48 89 45 a0          	mov    %rax,-0x60(%rbp)
    8e90:	c7 45 8c 09 00 00 00 	movl   $0x9,-0x74(%rbp)
    8e97:	c7 45 90 01 00 00 00 	movl   $0x1,-0x70(%rbp)
    8e9e:	c7 45 d0 6b f4 ce 80 	movl   $0x80cef46b,-0x30(%rbp)
    8ea5:	c7 45 d4 00 00 00 00 	movl   $0x0,-0x2c(%rbp)
    8eac:	c7 45 d8 6b f4 ce 80 	movl   $0x80cef46b,-0x28(%rbp)
    8eb3:	c7 45 dc 6b f4 ce 80 	movl   $0x80cef46b,-0x24(%rbp)
    8eba:	c7 45 e0 00 00 00 00 	movl   $0x0,-0x20(%rbp)
    8ec1:	c7 45 e4 6b f4 ce 80 	movl   $0x80cef46b,-0x1c(%rbp)
    8ec8:	c7 45 e8 6b f4 ce 80 	movl   $0x80cef46b,-0x18(%rbp)
    8ecf:	c7 45 ec 00 00 00 00 	movl   $0x0,-0x14(%rbp)
    8ed6:	c7 45 f0 6b f4 ce 80 	movl   $0x80cef46b,-0x10(%rbp)
    8edd:	c7 45 94 f9 ff ff ff 	movl   $0xfffffff9,-0x6c(%rbp)
    8ee4:	8b 85 60 ff ff ff    	mov    -0xa0(%rbp),%eax
    8eea:	0f b7 c0             	movzwl %ax,%eax
    8eed:	be 06 00 00 00       	mov    $0x6,%esi
    8ef2:	89 c7                	mov    %eax,%edi
    8ef4:	e8 06 ce ff ff       	callq  5cff <safe_add_func_uint16_t_u_u>
    8ef9:	0f b7 c0             	movzwl %ax,%eax
    8efc:	89 85 60 ff ff ff    	mov    %eax,-0xa0(%rbp)
    8f02:	83 bd 60 ff ff ff 1a 	cmpl   $0x1a,-0xa0(%rbp)
    8f09:	0f 86 62 ff ff ff    	jbe    8e71 <func_38+0xe5>
    8f0f:	48 8b 85 58 ff ff ff 	mov    -0xa8(%rbp),%rax
    8f16:	48 8b 55 f8          	mov    -0x8(%rbp),%rdx
    8f1a:	64 48 33 14 25 28 00 	xor    %fs:0x28,%rdx
    8f21:	00 00 
    8f23:	74 05                	je     8f2a <func_38+0x19e>
    8f25:	e8 46 c1 ff ff       	callq  5070 <__stack_chk_fail@plt>
    8f2a:	c9                   	leaveq 
    8f2b:	c3                   	retq   

0000000000008f2c <func_43>:
    8f2c:	f3 0f 1e fa          	endbr64 
    8f30:	55                   	push   %rbp
    8f31:	48 89 e5             	mov    %rsp,%rbp
    8f34:	48 83 ec 30          	sub    $0x30,%rsp
    8f38:	89 7d dc             	mov    %edi,-0x24(%rbp)
    8f3b:	48 89 75 d0          	mov    %rsi,-0x30(%rbp)
    8f3f:	64 48 8b 04 25 28 00 	mov    %fs:0x28,%rax
    8f46:	00 00 
    8f48:	48 89 45 f8          	mov    %rax,-0x8(%rbp)
    8f4c:	31 c0                	xor    %eax,%eax
    8f4e:	48 8d 05 cf a0 00 00 	lea    0xa0cf(%rip),%rax        # 13024 <g_10>
    8f55:	48 89 45 e0          	mov    %rax,-0x20(%rbp)
    8f59:	48 8d 45 e0          	lea    -0x20(%rbp),%rax
    8f5d:	48 89 45 e8          	mov    %rax,-0x18(%rbp)
    8f61:	48 8d 05 bc a0 00 00 	lea    0xa0bc(%rip),%rax        # 13024 <g_10>
    8f68:	48 89 45 f0          	mov    %rax,-0x10(%rbp)
    8f6c:	48 8b 45 e8          	mov    -0x18(%rbp),%rax
    8f70:	48 c7 00 00 00 00 00 	movq   $0x0,(%rax)
    8f77:	48 8b 45 f0          	mov    -0x10(%rbp),%rax
    8f7b:	48 8b 55 f8          	mov    -0x8(%rbp),%rdx
    8f7f:	64 48 33 14 25 28 00 	xor    %fs:0x28,%rdx
    8f86:	00 00 
    8f88:	74 05                	je     8f8f <func_43+0x63>
    8f8a:	e8 e1 c0 ff ff       	callq  5070 <__stack_chk_fail@plt>
    8f8f:	c9                   	leaveq 
    8f90:	c3                   	retq   

0000000000008f91 <func_71>:
    8f91:	f3 0f 1e fa          	endbr64 
    8f95:	55                   	push   %rbp
    8f96:	48 89 e5             	mov    %rsp,%rbp
    8f99:	48 83 ec 60          	sub    $0x60,%rsp
    8f9d:	48 89 7d a8          	mov    %rdi,-0x58(%rbp)
    8fa1:	64 48 8b 04 25 28 00 	mov    %fs:0x28,%rax
    8fa8:	00 00 
    8faa:	48 89 45 f8          	mov    %rax,-0x8(%rbp)
    8fae:	31 c0                	xor    %eax,%eax
    8fb0:	c7 45 bc 00 00 00 00 	movl   $0x0,-0x44(%rbp)
    8fb7:	eb 15                	jmp    8fce <func_71+0x3d>
    8fb9:	8b 45 bc             	mov    -0x44(%rbp),%eax
    8fbc:	48 98                	cltq   
    8fbe:	48 8d 15 33 a1 00 00 	lea    0xa133(%rip),%rdx        # 130f8 <g_74>
    8fc5:	48 89 54 c5 c0       	mov    %rdx,-0x40(%rbp,%rax,8)
    8fca:	83 45 bc 01          	addl   $0x1,-0x44(%rbp)
    8fce:	83 7d bc 06          	cmpl   $0x6,-0x44(%rbp)
    8fd2:	7e e5                	jle    8fb9 <func_71+0x28>
    8fd4:	8b 05 22 a1 00 00    	mov    0xa122(%rip),%eax        # 130fc <g_75>
    8fda:	83 e8 01             	sub    $0x1,%eax
    8fdd:	89 05 19 a1 00 00    	mov    %eax,0xa119(%rip)        # 130fc <g_75>
    8fe3:	8b 05 13 a1 00 00    	mov    0xa113(%rip),%eax        # 130fc <g_75>
    8fe9:	89 c0                	mov    %eax,%eax
    8feb:	48 8b 4d f8          	mov    -0x8(%rbp),%rcx
    8fef:	64 48 33 0c 25 28 00 	xor    %fs:0x28,%rcx
    8ff6:	00 00 
    8ff8:	74 05                	je     8fff <func_71+0x6e>
    8ffa:	e8 71 c0 ff ff       	callq  5070 <__stack_chk_fail@plt>
    8fff:	c9                   	leaveq 
    9000:	c3                   	retq   

0000000000009001 <func_86>:
    9001:	f3 0f 1e fa          	endbr64 
    9005:	55                   	push   %rbp
    9006:	48 89 e5             	mov    %rsp,%rbp
    9009:	41 57                	push   %r15
    900b:	41 56                	push   %r14
    900d:	41 55                	push   %r13
    900f:	41 54                	push   %r12
    9011:	53                   	push   %rbx
    9012:	48 81 ec 00 10 00 00 	sub    $0x1000,%rsp
    9019:	48 83 0c 24 00       	orq    $0x0,(%rsp)
    901e:	48 81 ec 00 10 00 00 	sub    $0x1000,%rsp
    9025:	48 83 0c 24 00       	orq    $0x0,(%rsp)
    902a:	48 81 ec d8 00 00 00 	sub    $0xd8,%rsp
    9031:	48 89 bd 28 df ff ff 	mov    %rdi,-0x20d8(%rbp)
    9038:	48 89 b5 20 df ff ff 	mov    %rsi,-0x20e0(%rbp)
    903f:	89 d0                	mov    %edx,%eax
    9041:	88 85 1c df ff ff    	mov    %al,-0x20e4(%rbp)
    9047:	64 48 8b 04 25 28 00 	mov    %fs:0x28,%rax
    904e:	00 00 
    9050:	48 89 45 c8          	mov    %rax,-0x38(%rbp)
    9054:	31 c0                	xor    %eax,%eax
    9056:	c7 85 74 df ff ff 4a 	movl   $0xc926164a,-0x208c(%rbp)
    905d:	16 26 c9 
    9060:	48 c7 85 08 e1 ff ff 	movq   $0x0,-0x1ef8(%rbp)
    9067:	00 00 00 00 
    906b:	c7 85 54 df ff ff 4e 	movl   $0x28206e4e,-0x20ac(%rbp)
    9072:	6e 20 28 
    9075:	c7 85 58 df ff ff 4b 	movl   $0xf418cc4b,-0x20a8(%rbp)
    907c:	cc 18 f4 
    907f:	c7 85 5c df ff ff 49 	movl   $0x81a4cd49,-0x20a4(%rbp)
    9086:	cd a4 81 
    9089:	c7 85 60 df ff ff d7 	movl   $0x227e61d7,-0x20a0(%rbp)
    9090:	61 7e 22 
    9093:	c7 85 e8 df ff ff d2 	movl   $0x6eb741d2,-0x2018(%rbp)
    909a:	41 b7 6e 
    909d:	66 c7 85 3a df ff ff 	movw   $0x25c,-0x20c6(%rbp)
    90a4:	5c 02 
    90a6:	48 8d 05 d7 a0 00 00 	lea    0xa0d7(%rip),%rax        # 13184 <g_148>
    90ad:	48 89 85 80 e0 ff ff 	mov    %rax,-0x1f80(%rbp)
    90b4:	48 8d 05 51 a0 00 00 	lea    0xa051(%rip),%rax        # 1310c <g_132>
    90bb:	48 89 85 10 e1 ff ff 	mov    %rax,-0x1ef0(%rbp)
    90c2:	48 8d 05 07 a1 00 00 	lea    0xa107(%rip),%rax        # 131d0 <g_206>
    90c9:	48 89 85 18 e1 ff ff 	mov    %rax,-0x1ee8(%rbp)
    90d0:	66 c7 85 3c df ff ff 	movw   $0x6,-0x20c4(%rbp)
    90d7:	06 00 
    90d9:	66 c7 85 42 df ff ff 	movw   $0x3cea,-0x20be(%rbp)
    90e0:	ea 3c 
    90e2:	c6 85 33 df ff ff 8a 	movb   $0x8a,-0x20cd(%rbp)
    90e9:	c7 85 64 df ff ff 00 	movl   $0x0,-0x209c(%rbp)
    90f0:	00 00 00 
    90f3:	c7 85 68 df ff ff ff 	movl   $0xffffffff,-0x2098(%rbp)
    90fa:	ff ff ff 
    90fd:	48 8d 05 8c c0 00 00 	lea    0xc08c(%rip),%rax        # 15190 <g_612>
    9104:	48 89 85 88 e0 ff ff 	mov    %rax,-0x1f78(%rbp)
    910b:	c7 85 78 df ff ff fb 	movl   $0xfffffffb,-0x2088(%rbp)
    9112:	ff ff ff 
    9115:	48 8d 05 9c b4 00 00 	lea    0xb49c(%rip),%rax        # 145b8 <g_256>
    911c:	48 89 85 90 e0 ff ff 	mov    %rax,-0x1f70(%rbp)
    9123:	48 8d 85 90 e0 ff ff 	lea    -0x1f70(%rbp),%rax
    912a:	48 89 85 20 e4 ff ff 	mov    %rax,-0x1be0(%rbp)
    9131:	48 8d 85 90 e0 ff ff 	lea    -0x1f70(%rbp),%rax
    9138:	48 89 85 28 e4 ff ff 	mov    %rax,-0x1bd8(%rbp)
    913f:	48 8d 85 90 e0 ff ff 	lea    -0x1f70(%rbp),%rax
    9146:	48 89 85 30 e4 ff ff 	mov    %rax,-0x1bd0(%rbp)
    914d:	48 8d 85 90 e0 ff ff 	lea    -0x1f70(%rbp),%rax
    9154:	48 89 85 38 e4 ff ff 	mov    %rax,-0x1bc8(%rbp)
    915b:	48 8d 85 90 e0 ff ff 	lea    -0x1f70(%rbp),%rax
    9162:	48 89 85 40 e4 ff ff 	mov    %rax,-0x1bc0(%rbp)
    9169:	48 8d 85 90 e0 ff ff 	lea    -0x1f70(%rbp),%rax
    9170:	48 89 85 48 e4 ff ff 	mov    %rax,-0x1bb8(%rbp)
    9177:	48 8d 85 20 e4 ff ff 	lea    -0x1be0(%rbp),%rax
    917e:	48 83 c0 10          	add    $0x10,%rax
    9182:	48 89 85 20 e1 ff ff 	mov    %rax,-0x1ee0(%rbp)
    9189:	48 8d 05 68 b4 00 00 	lea    0xb468(%rip),%rax        # 145f8 <g_578>
    9190:	48 89 85 98 e0 ff ff 	mov    %rax,-0x1f68(%rbp)
    9197:	48 8d 85 98 e0 ff ff 	lea    -0x1f68(%rbp),%rax
    919e:	48 89 85 a0 e0 ff ff 	mov    %rax,-0x1f60(%rbp)
    91a5:	48 8d 85 a0 e0 ff ff 	lea    -0x1f60(%rbp),%rax
    91ac:	48 89 85 28 e1 ff ff 	mov    %rax,-0x1ed8(%rbp)
    91b3:	48 8d 05 e6 b6 00 00 	lea    0xb6e6(%rip),%rax        # 148a0 <g_815>
    91ba:	48 89 85 30 e1 ff ff 	mov    %rax,-0x1ed0(%rbp)
    91c1:	c6 85 36 df ff ff c8 	movb   $0xc8,-0x20ca(%rbp)
    91c8:	66 c7 85 44 df ff ff 	movw   $0x6d81,-0x20bc(%rbp)
    91cf:	81 6d 
    91d1:	c7 85 ec df ff ff 00 	movl   $0x0,-0x2014(%rbp)
    91d8:	00 00 00 
    91db:	48 c7 85 38 e1 ff ff 	movq   $0x0,-0x1ec8(%rbp)
    91e2:	00 00 00 00 
    91e6:	48 8d 05 bb b4 00 00 	lea    0xb4bb(%rip),%rax        # 146a8 <g_805+0x8>
    91ed:	48 89 85 e0 e4 ff ff 	mov    %rax,-0x1b20(%rbp)
    91f4:	48 8d 85 90 e0 ff ff 	lea    -0x1f70(%rbp),%rax
    91fb:	48 89 85 e8 e4 ff ff 	mov    %rax,-0x1b18(%rbp)
    9202:	48 8d 05 9f b4 00 00 	lea    0xb49f(%rip),%rax        # 146a8 <g_805+0x8>
    9209:	48 89 85 f0 e4 ff ff 	mov    %rax,-0x1b10(%rbp)
    9210:	48 8d 85 90 e0 ff ff 	lea    -0x1f70(%rbp),%rax
    9217:	48 89 85 f8 e4 ff ff 	mov    %rax,-0x1b08(%rbp)
    921e:	48 8d 05 83 b4 00 00 	lea    0xb483(%rip),%rax        # 146a8 <g_805+0x8>
    9225:	48 89 85 00 e5 ff ff 	mov    %rax,-0x1b00(%rbp)
    922c:	48 8d 85 90 e0 ff ff 	lea    -0x1f70(%rbp),%rax
    9233:	48 89 85 08 e5 ff ff 	mov    %rax,-0x1af8(%rbp)
    923a:	48 8d 05 67 b4 00 00 	lea    0xb467(%rip),%rax        # 146a8 <g_805+0x8>
    9241:	48 89 85 10 e5 ff ff 	mov    %rax,-0x1af0(%rbp)
    9248:	48 8d 85 90 e0 ff ff 	lea    -0x1f70(%rbp),%rax
    924f:	48 89 85 18 e5 ff ff 	mov    %rax,-0x1ae8(%rbp)
    9256:	48 8d 05 4b b4 00 00 	lea    0xb44b(%rip),%rax        # 146a8 <g_805+0x8>
    925d:	48 89 85 20 e5 ff ff 	mov    %rax,-0x1ae0(%rbp)
    9264:	48 8d 85 90 e0 ff ff 	lea    -0x1f70(%rbp),%rax
    926b:	48 89 85 28 e5 ff ff 	mov    %rax,-0x1ad8(%rbp)
    9272:	48 8d 85 e0 e4 ff ff 	lea    -0x1b20(%rbp),%rax
    9279:	48 83 c0 40          	add    $0x40,%rax
    927d:	48 89 85 40 e1 ff ff 	mov    %rax,-0x1ec0(%rbp)
    9284:	66 c7 85 46 df ff ff 	movw   $0xe97b,-0x20ba(%rbp)
    928b:	7b e9 
    928d:	48 8d 05 3c b3 00 00 	lea    0xb33c(%rip),%rax        # 145d0 <g_383>
    9294:	48 89 85 48 e1 ff ff 	mov    %rax,-0x1eb8(%rbp)
    929b:	c7 85 f0 df ff ff 64 	movl   $0xbfda6764,-0x2010(%rbp)
    92a2:	67 da bf 
    92a5:	c7 85 7c df ff ff 00 	movl   $0x0,-0x2084(%rbp)
    92ac:	00 00 00 
    92af:	e9 87 00 00 00       	jmpq   933b <func_86+0x33a>
    92b4:	c7 85 80 df ff ff 00 	movl   $0x0,-0x2080(%rbp)
    92bb:	00 00 00 
    92be:	eb 6b                	jmp    932b <func_86+0x32a>
    92c0:	c7 85 84 df ff ff 00 	movl   $0x0,-0x207c(%rbp)
    92c7:	00 00 00 
    92ca:	eb 4f                	jmp    931b <func_86+0x31a>
    92cc:	8b 85 84 df ff ff    	mov    -0x207c(%rbp),%eax
    92d2:	48 63 f0             	movslq %eax,%rsi
    92d5:	8b 85 7c df ff ff    	mov    -0x2084(%rbp),%eax
    92db:	48 63 d0             	movslq %eax,%rdx
    92de:	8b 85 80 df ff ff    	mov    -0x2080(%rbp),%eax
    92e4:	48 63 c8             	movslq %eax,%rcx
    92e7:	48 89 d0             	mov    %rdx,%rax
    92ea:	48 c1 e0 02          	shl    $0x2,%rax
    92ee:	48 01 d0             	add    %rdx,%rax
    92f1:	48 01 c0             	add    %rax,%rax
    92f4:	48 89 ca             	mov    %rcx,%rdx
    92f7:	48 c1 e2 02          	shl    $0x2,%rdx
    92fb:	48 01 ca             	add    %rcx,%rdx
    92fe:	48 01 d0             	add    %rdx,%rax
    9301:	48 8d 14 30          	lea    (%rax,%rsi,1),%rdx
    9305:	48 8d 85 80 e0 ff ff 	lea    -0x1f80(%rbp),%rax
    930c:	48 89 84 d5 90 e4 ff 	mov    %rax,-0x1b70(%rbp,%rdx,8)
    9313:	ff 
    9314:	83 85 84 df ff ff 01 	addl   $0x1,-0x207c(%rbp)
    931b:	83 bd 84 df ff ff 04 	cmpl   $0x4,-0x207c(%rbp)
    9322:	7e a8                	jle    92cc <func_86+0x2cb>
    9324:	83 85 80 df ff ff 01 	addl   $0x1,-0x2080(%rbp)
    932b:	83 bd 80 df ff ff 01 	cmpl   $0x1,-0x2080(%rbp)
    9332:	7e 8c                	jle    92c0 <func_86+0x2bf>
    9334:	83 85 7c df ff ff 01 	addl   $0x1,-0x2084(%rbp)
    933b:	83 bd 7c df ff ff 00 	cmpl   $0x0,-0x2084(%rbp)
    9342:	0f 8e 6c ff ff ff    	jle    92b4 <func_86+0x2b3>
    9348:	c7 85 7c df ff ff 00 	movl   $0x0,-0x2084(%rbp)
    934f:	00 00 00 
    9352:	eb 14                	jmp    9368 <func_86+0x367>
    9354:	8b 85 7c df ff ff    	mov    -0x2084(%rbp),%eax
    935a:	48 98                	cltq   
    935c:	c6 44 05 c1 ff       	movb   $0xff,-0x3f(%rbp,%rax,1)
    9361:	83 85 7c df ff ff 01 	addl   $0x1,-0x2084(%rbp)
    9368:	83 bd 7c df ff ff 02 	cmpl   $0x2,-0x2084(%rbp)
    936f:	7e e3                	jle    9354 <func_86+0x353>
    9371:	c7 85 7c df ff ff 00 	movl   $0x0,-0x2084(%rbp)
    9378:	00 00 00 
    937b:	eb 1a                	jmp    9397 <func_86+0x396>
    937d:	8b 85 7c df ff ff    	mov    -0x2084(%rbp),%eax
    9383:	48 98                	cltq   
    9385:	c7 84 85 c4 e3 ff ff 	movl   $0x21fc1a6a,-0x1c3c(%rbp,%rax,4)
    938c:	6a 1a fc 21 
    9390:	83 85 7c df ff ff 01 	addl   $0x1,-0x2084(%rbp)
    9397:	83 bd 7c df ff ff 01 	cmpl   $0x1,-0x2084(%rbp)
    939e:	7e dd                	jle    937d <func_86+0x37c>
    93a0:	c6 05 4d 9d 00 00 00 	movb   $0x0,0x9d4d(%rip)        # 130f4 <g_56>
    93a7:	e9 ef 04 00 00       	jmpq   989b <func_86+0x89a>
    93ac:	c6 85 34 df ff ff 35 	movb   $0x35,-0x20cc(%rbp)
    93b3:	48 8d 05 52 9d 00 00 	lea    0x9d52(%rip),%rax        # 1310c <g_132>
    93ba:	48 89 85 68 e3 ff ff 	mov    %rax,-0x1c98(%rbp)
    93c1:	48 8d 05 44 9d 00 00 	lea    0x9d44(%rip),%rax        # 1310c <g_132>
    93c8:	48 89 85 70 e3 ff ff 	mov    %rax,-0x1c90(%rbp)
    93cf:	c7 85 70 f0 ff ff ff 	movl   $0xffffffff,-0xf90(%rbp)
    93d6:	ff ff ff 
    93d9:	c7 85 74 f0 ff ff c1 	movl   $0x25e9bbc1,-0xf8c(%rbp)
    93e0:	bb e9 25 
    93e3:	c7 85 78 f0 ff ff a3 	movl   $0xf9bfdda3,-0xf88(%rbp)
    93ea:	dd bf f9 
    93ed:	c7 85 7c f0 ff ff a3 	movl   $0xf9bfdda3,-0xf84(%rbp)
    93f4:	dd bf f9 
    93f7:	c7 85 80 f0 ff ff 06 	movl   $0x6,-0xf80(%rbp)
    93fe:	00 00 00 
    9401:	c7 85 84 f0 ff ff 06 	movl   $0x6,-0xf7c(%rbp)
    9408:	00 00 00 
    940b:	c7 85 88 f0 ff ff dc 	movl   $0xfc5922dc,-0xf78(%rbp)
    9412:	22 59 fc 
    9415:	c7 85 8c f0 ff ff c1 	movl   $0x25e9bbc1,-0xf74(%rbp)
    941c:	bb e9 25 
    941f:	c7 85 90 f0 ff ff c1 	movl   $0x25e9bbc1,-0xf70(%rbp)
    9426:	bb e9 25 
    9429:	c7 85 94 f0 ff ff ff 	movl   $0xffffffff,-0xf6c(%rbp)
    9430:	ff ff ff 
    9433:	c7 85 98 f0 ff ff dc 	movl   $0xfc5922dc,-0xf68(%rbp)
    943a:	22 59 fc 
    943d:	c7 85 9c f0 ff ff ff 	movl   $0xffffffff,-0xf64(%rbp)
    9444:	ff ff ff 
    9447:	c7 85 a0 f0 ff ff 06 	movl   $0x6,-0xf60(%rbp)
    944e:	00 00 00 
    9451:	c7 85 a4 f0 ff ff ff 	movl   $0xffffffff,-0xf5c(%rbp)
    9458:	ff ff ff 
    945b:	c7 85 a8 f0 ff ff a3 	movl   $0xf9bfdda3,-0xf58(%rbp)
    9462:	dd bf f9 
    9465:	c7 85 ac f0 ff ff dc 	movl   $0xfc5922dc,-0xf54(%rbp)
    946c:	22 59 fc 
    946f:	c7 85 b0 f0 ff ff ff 	movl   $0xffffffff,-0xf50(%rbp)
    9476:	ff ff ff 
    9479:	c7 85 b4 f0 ff ff ff 	movl   $0xffffffff,-0xf4c(%rbp)
    9480:	ff ff ff 
    9483:	c7 85 b8 f0 ff ff c1 	movl   $0x25e9bbc1,-0xf48(%rbp)
    948a:	bb e9 25 
    948d:	c7 85 bc f0 ff ff ff 	movl   $0xffffffff,-0xf44(%rbp)
    9494:	ff ff ff 
    9497:	c7 85 c0 f0 ff ff c1 	movl   $0x25e9bbc1,-0xf40(%rbp)
    949e:	bb e9 25 
    94a1:	c7 85 c4 f0 ff ff ff 	movl   $0xffffffff,-0xf3c(%rbp)
    94a8:	ff ff ff 
    94ab:	c7 85 c8 f0 ff ff ff 	movl   $0xffffffff,-0xf38(%rbp)
    94b2:	ff ff ff 
    94b5:	c7 85 cc f0 ff ff a3 	movl   $0xf9bfdda3,-0xf34(%rbp)
    94bc:	dd bf f9 
    94bf:	c7 85 d0 f0 ff ff c1 	movl   $0x25e9bbc1,-0xf30(%rbp)
    94c6:	bb e9 25 
    94c9:	c7 85 d4 f0 ff ff ff 	movl   $0xffffffff,-0xf2c(%rbp)
    94d0:	ff ff ff 
    94d3:	c7 85 d8 f0 ff ff c1 	movl   $0x25e9bbc1,-0xf28(%rbp)
    94da:	bb e9 25 
    94dd:	c7 85 dc f0 ff ff dc 	movl   $0xfc5922dc,-0xf24(%rbp)
    94e4:	22 59 fc 
    94e7:	c7 85 e0 f0 ff ff ff 	movl   $0xffffffff,-0xf20(%rbp)
    94ee:	ff ff ff 
    94f1:	c7 85 e4 f0 ff ff a3 	movl   $0xf9bfdda3,-0xf1c(%rbp)
    94f8:	dd bf f9 
    94fb:	c7 85 e8 f0 ff ff dc 	movl   $0xfc5922dc,-0xf18(%rbp)
    9502:	22 59 fc 
    9505:	c7 85 ec f0 ff ff dc 	movl   $0xfc5922dc,-0xf14(%rbp)
    950c:	22 59 fc 
    950f:	48 8d 05 c8 9c 00 00 	lea    0x9cc8(%rip),%rax        # 131de <g_234>
    9516:	48 89 85 78 e3 ff ff 	mov    %rax,-0x1c88(%rbp)
    951d:	c7 85 f0 e8 ff ff 01 	movl   $0x1,-0x1710(%rbp)
    9524:	00 00 00 
    9527:	c7 85 f4 e8 ff ff 01 	movl   $0x1,-0x170c(%rbp)
    952e:	00 00 00 
    9531:	c7 85 f8 e8 ff ff 01 	movl   $0x1,-0x1708(%rbp)
    9538:	00 00 00 
    953b:	c7 85 fc e8 ff ff 01 	movl   $0x1,-0x1704(%rbp)
    9542:	00 00 00 
    9545:	c7 85 00 e9 ff ff 01 	movl   $0x1,-0x1700(%rbp)
    954c:	00 00 00 
    954f:	c7 85 04 e9 ff ff 01 	movl   $0x1,-0x16fc(%rbp)
    9556:	00 00 00 
    9559:	c7 85 08 e9 ff ff 01 	movl   $0x1,-0x16f8(%rbp)
    9560:	00 00 00 
    9563:	48 c7 85 80 e3 ff ff 	movq   $0x0,-0x1c80(%rbp)
    956a:	00 00 00 00 
    956e:	48 c7 85 88 e3 ff ff 	movq   $0x0,-0x1c78(%rbp)
    9575:	00 00 00 00 
    9579:	48 8d 05 6c 9c 00 00 	lea    0x9c6c(%rip),%rax        # 131ec <g_274+0x4>
    9580:	48 89 85 90 e3 ff ff 	mov    %rax,-0x1c70(%rbp)
    9587:	c7 85 88 df ff ff 00 	movl   $0x0,-0x2078(%rbp)
    958e:	00 00 00 
    9591:	eb 1a                	jmp    95ad <func_86+0x5ac>
    9593:	8b 85 88 df ff ff    	mov    -0x2078(%rbp),%eax
    9599:	48 98                	cltq   
    959b:	c7 84 85 30 e5 ff ff 	movl   $0x0,-0x1ad0(%rbp,%rax,4)
    95a2:	00 00 00 00 
    95a6:	83 85 88 df ff ff 01 	addl   $0x1,-0x2078(%rbp)
    95ad:	83 bd 88 df ff ff 02 	cmpl   $0x2,-0x2078(%rbp)
    95b4:	7e dd                	jle    9593 <func_86+0x592>
    95b6:	c6 85 1c df ff ff 00 	movb   $0x0,-0x20e4(%rbp)
    95bd:	e9 bc 02 00 00       	jmpq   987e <func_86+0x87d>
    95c2:	c7 85 7c e0 ff ff a4 	movl   $0xd18043a4,-0x1f84(%rbp)
    95c9:	43 80 d1 
    95cc:	c7 85 8c df ff ff 00 	movl   $0x0,-0x2074(%rbp)
    95d3:	00 00 00 
    95d6:	eb 6e                	jmp    9646 <func_86+0x645>
    95d8:	c7 85 90 df ff ff 00 	movl   $0x0,-0x2070(%rbp)
    95df:	00 00 00 
    95e2:	eb 52                	jmp    9636 <func_86+0x635>
    95e4:	c7 85 94 df ff ff 00 	movl   $0x0,-0x206c(%rbp)
    95eb:	00 00 00 
    95ee:	eb 36                	jmp    9626 <func_86+0x625>
    95f0:	8b 85 94 df ff ff    	mov    -0x206c(%rbp),%eax
    95f6:	48 63 d0             	movslq %eax,%rdx
    95f9:	8b 85 90 df ff ff    	mov    -0x2070(%rbp),%eax
    95ff:	48 98                	cltq   
    9601:	8b 8d 8c df ff ff    	mov    -0x2074(%rbp),%ecx
    9607:	48 63 c9             	movslq %ecx,%rcx
    960a:	48 01 c9             	add    %rcx,%rcx
    960d:	48 01 ca             	add    %rcx,%rdx
    9610:	48 01 d0             	add    %rdx,%rax
    9613:	48 c7 84 c5 f0 f7 ff 	movq   $0x0,-0x810(%rbp,%rax,8)
    961a:	ff 00 00 00 00 
    961f:	83 85 94 df ff ff 01 	addl   $0x1,-0x206c(%rbp)
    9626:	83 bd 94 df ff ff 00 	cmpl   $0x0,-0x206c(%rbp)
    962d:	7e c1                	jle    95f0 <func_86+0x5ef>
    962f:	83 85 90 df ff ff 01 	addl   $0x1,-0x2070(%rbp)
    9636:	83 bd 90 df ff ff 01 	cmpl   $0x1,-0x2070(%rbp)
    963d:	7e a5                	jle    95e4 <func_86+0x5e3>
    963f:	83 85 8c df ff ff 01 	addl   $0x1,-0x2074(%rbp)
    9646:	83 bd 8c df ff ff 07 	cmpl   $0x7,-0x2074(%rbp)
    964d:	7e 89                	jle    95d8 <func_86+0x5d7>
    964f:	c7 05 a3 9a 00 00 ea 	movl   $0xffffffea,0x9aa3(%rip)        # 130fc <g_75>
    9656:	ff ff ff 
    9659:	90                   	nop
    965a:	8b 05 9c 9a 00 00    	mov    0x9a9c(%rip),%eax        # 130fc <g_75>
    9660:	83 f8 39             	cmp    $0x39,%eax
    9663:	75 0b                	jne    9670 <func_86+0x66f>
    9665:	8b 05 81 9a 00 00    	mov    0x9a81(%rip),%eax        # 130ec <g_47+0x4>
    966b:	e9 ea 4b 00 00       	jmpq   e25a <func_86+0x5259>
    9670:	0f b6 05 7d 9a 00 00 	movzbl 0x9a7d(%rip),%eax        # 130f4 <g_56>
    9677:	84 c0                	test   %al,%al
    9679:	0f 84 d3 01 00 00    	je     9852 <func_86+0x851>
    967f:	48 8d 05 72 9a 00 00 	lea    0x9a72(%rip),%rax        # 130f8 <g_74>
    9686:	48 89 85 e0 e0 ff ff 	mov    %rax,-0x1f20(%rbp)
    968d:	48 8d 85 e0 e0 ff ff 	lea    -0x1f20(%rbp),%rax
    9694:	48 89 85 98 e3 ff ff 	mov    %rax,-0x1c68(%rbp)
    969b:	c7 05 57 9a 00 00 03 	movl   $0x3,0x9a57(%rip)        # 130fc <g_75>
    96a2:	00 00 00 
    96a5:	90                   	nop
    96a6:	8b 05 50 9a 00 00    	mov    0x9a50(%rip),%eax        # 130fc <g_75>
    96ac:	83 f8 26             	cmp    $0x26,%eax
    96af:	74 0b                	je     96bc <func_86+0x6bb>
    96b1:	8b 85 7c e0 ff ff    	mov    -0x1f84(%rbp),%eax
    96b7:	e9 9e 4b 00 00       	jmpq   e25a <func_86+0x5259>
    96bc:	8b 85 74 df ff ff    	mov    -0x208c(%rbp),%eax
    96c2:	89 c2                	mov    %eax,%edx
    96c4:	0f b7 05 39 9a 00 00 	movzwl 0x9a39(%rip),%eax        # 13104 <g_103>
    96cb:	21 d0                	and    %edx,%eax
    96cd:	66 89 05 30 9a 00 00 	mov    %ax,0x9a30(%rip)        # 13104 <g_103>
    96d4:	c7 85 74 df ff ff 00 	movl   $0x0,-0x208c(%rbp)
    96db:	00 00 00 
    96de:	e9 60 01 00 00       	jmpq   9843 <func_86+0x842>
    96e3:	c7 85 98 df ff ff ef 	movl   $0x23c0f0ef,-0x2068(%rbp)
    96ea:	f0 c0 23 
    96ed:	48 8d 85 f0 f7 ff ff 	lea    -0x810(%rbp),%rax
    96f4:	48 83 c0 08          	add    $0x8,%rax
    96f8:	48 89 85 a0 e3 ff ff 	mov    %rax,-0x1c60(%rbp)
    96ff:	48 8d 05 06 9a 00 00 	lea    0x9a06(%rip),%rax        # 1310c <g_132>
    9706:	48 89 85 a8 e3 ff ff 	mov    %rax,-0x1c58(%rbp)
    970d:	c7 05 e5 99 00 00 00 	movl   $0x0,0x99e5(%rip)        # 130fc <g_75>
    9714:	00 00 00 
    9717:	e9 84 00 00 00       	jmpq   97a0 <func_86+0x79f>
    971c:	48 c7 85 b0 e3 ff ff 	movq   $0x0,-0x1c50(%rbp)
    9723:	00 00 00 00 
    9727:	48 c7 85 b8 e3 ff ff 	movq   $0x0,-0x1c48(%rbp)
    972e:	00 00 00 00 
    9732:	be 0e 00 00 00       	mov    $0xe,%esi
    9737:	bf cb d7 00 00       	mov    $0xd7cb,%edi
    973c:	e8 07 c7 ff ff       	callq  5e48 <safe_rshift_func_uint16_t_u_s>
    9741:	be 01 00 00 00       	mov    $0x1,%esi
    9746:	bf 00 00 00 00       	mov    $0x0,%edi
    974b:	e8 b5 be ff ff       	callq  5605 <safe_sub_func_int32_t_s_s>
    9750:	0f be c0             	movsbl %al,%eax
    9753:	be 5a 00 00 00       	mov    $0x5a,%esi
    9758:	89 c7                	mov    %eax,%edi
    975a:	e8 0b bb ff ff       	callq  526a <safe_div_func_int8_t_s_s>
    975f:	0f b6 85 1c df ff ff 	movzbl -0x20e4(%rbp),%eax
    9766:	be 07 00 00 00       	mov    $0x7,%esi
    976b:	89 c7                	mov    %eax,%edi
    976d:	e8 94 c6 ff ff       	callq  5e06 <safe_lshift_func_uint16_t_u_u>
    9772:	0f b7 d0             	movzwl %ax,%edx
    9775:	8b 05 8d 99 00 00    	mov    0x998d(%rip),%eax        # 13108 <g_120>
    977b:	31 d0                	xor    %edx,%eax
    977d:	89 05 85 99 00 00    	mov    %eax,0x9985(%rip)        # 13108 <g_120>
    9783:	80 b5 34 df ff ff 03 	xorb   $0x3,-0x20cc(%rbp)
    978a:	83 ad 98 df ff ff 01 	subl   $0x1,-0x2068(%rbp)
    9791:	8b 05 65 99 00 00    	mov    0x9965(%rip),%eax        # 130fc <g_75>
    9797:	83 c0 01             	add    $0x1,%eax
    979a:	89 05 5c 99 00 00    	mov    %eax,0x995c(%rip)        # 130fc <g_75>
    97a0:	8b 05 56 99 00 00    	mov    0x9956(%rip),%eax        # 130fc <g_75>
    97a6:	83 f8 14             	cmp    $0x14,%eax
    97a9:	0f 87 6d ff ff ff    	ja     971c <func_86+0x71b>
    97af:	0f b6 05 3e 99 00 00 	movzbl 0x993e(%rip),%eax        # 130f4 <g_56>
    97b6:	0f be d0             	movsbl %al,%edx
    97b9:	0f b7 05 44 99 00 00 	movzwl 0x9944(%rip),%eax        # 13104 <g_103>
    97c0:	89 c1                	mov    %eax,%ecx
    97c2:	48 8b 85 a8 e3 ff ff 	mov    -0x1c58(%rbp),%rax
    97c9:	88 08                	mov    %cl,(%rax)
    97cb:	48 8b 85 a8 e3 ff ff 	mov    -0x1c58(%rbp),%rax
    97d2:	0f b6 00             	movzbl (%rax),%eax
    97d5:	38 85 1c df ff ff    	cmp    %al,-0x20e4(%rbp)
    97db:	0f 96 c0             	setbe  %al
    97de:	0f b6 c0             	movzbl %al,%eax
    97e1:	39 c2                	cmp    %eax,%edx
    97e3:	0f 95 c0             	setne  %al
    97e6:	0f b6 c0             	movzbl %al,%eax
    97e9:	48 8b 8d 28 f8 ff ff 	mov    -0x7d8(%rbp),%rcx
    97f0:	48 8b 95 a0 e3 ff ff 	mov    -0x1c60(%rbp),%rdx
    97f7:	48 89 0a             	mov    %rcx,(%rdx)
    97fa:	48 8b 95 a0 e3 ff ff 	mov    -0x1c60(%rbp),%rdx
    9801:	48 8b 12             	mov    (%rdx),%rdx
    9804:	48 39 95 08 e1 ff ff 	cmp    %rdx,-0x1ef8(%rbp)
    980b:	75 07                	jne    9814 <func_86+0x813>
    980d:	ba ea 00 00 00       	mov    $0xea,%edx
    9812:	eb 05                	jmp    9819 <func_86+0x818>
    9814:	ba eb 00 00 00       	mov    $0xeb,%edx
    9819:	48 89 c6             	mov    %rax,%rsi
    981c:	48 89 d7             	mov    %rdx,%rdi
    981f:	e8 0a c8 ff ff       	callq  602e <safe_add_func_uint64_t_u_u>
    9824:	48 89 05 3d b9 00 00 	mov    %rax,0xb93d(%rip)        # 15168 <g_133>
    982b:	8b 85 74 df ff ff    	mov    -0x208c(%rbp),%eax
    9831:	be 04 00 00 00       	mov    $0x4,%esi
    9836:	89 c7                	mov    %eax,%edi
    9838:	e8 79 bd ff ff       	callq  55b6 <safe_add_func_int32_t_s_s>
    983d:	89 85 74 df ff ff    	mov    %eax,-0x208c(%rbp)
    9843:	83 bd 74 df ff ff 02 	cmpl   $0x2,-0x208c(%rbp)
    984a:	0f 8f 93 fe ff ff    	jg     96e3 <func_86+0x6e2>
    9850:	eb 10                	jmp    9862 <func_86+0x861>
    9852:	0f b6 05 f1 98 00 00 	movzbl 0x98f1(%rip),%eax        # 1314a <g_134+0x2a>
    9859:	83 c0 01             	add    $0x1,%eax
    985c:	88 05 e8 98 00 00    	mov    %al,0x98e8(%rip)        # 1314a <g_134+0x2a>
    9862:	0f b6 85 1c df ff ff 	movzbl -0x20e4(%rbp),%eax
    9869:	0f be c0             	movsbl %al,%eax
    986c:	be 04 00 00 00       	mov    $0x4,%esi
    9871:	89 c7                	mov    %eax,%edi
    9873:	e8 5c b9 ff ff       	callq  51d4 <safe_add_func_int8_t_s_s>
    9878:	88 85 1c df ff ff    	mov    %al,-0x20e4(%rbp)
    987e:	80 bd 1c df ff ff 22 	cmpb   $0x22,-0x20e4(%rbp)
    9885:	0f 86 37 fd ff ff    	jbe    95c2 <func_86+0x5c1>
    988b:	0f b6 05 62 98 00 00 	movzbl 0x9862(%rip),%eax        # 130f4 <g_56>
    9892:	83 e8 01             	sub    $0x1,%eax
    9895:	88 05 59 98 00 00    	mov    %al,0x9859(%rip)        # 130f4 <g_56>
    989b:	0f b6 05 52 98 00 00 	movzbl 0x9852(%rip),%eax        # 130f4 <g_56>
    98a2:	3c ef                	cmp    $0xef,%al
    98a4:	0f 8c 02 fb ff ff    	jl     93ac <func_86+0x3ab>
    98aa:	b8 c5 45 00 00       	mov    $0x45c5,%eax
    98af:	0f b7 d8             	movzwl %ax,%ebx
    98b2:	8b 85 e8 df ff ff    	mov    -0x2018(%rbp),%eax
    98b8:	89 c2                	mov    %eax,%edx
    98ba:	48 8b 85 10 e1 ff ff 	mov    -0x1ef0(%rbp),%rax
    98c1:	88 10                	mov    %dl,(%rax)
    98c3:	48 8b 85 10 e1 ff ff 	mov    -0x1ef0(%rbp),%rax
    98ca:	0f b6 00             	movzbl (%rax),%eax
    98cd:	84 c0                	test   %al,%al
    98cf:	0f 84 e8 00 00 00    	je     99bd <func_86+0x9bc>
    98d5:	0f b7 85 3c df ff ff 	movzwl -0x20c4(%rbp),%eax
    98dc:	89 c2                	mov    %eax,%edx
    98de:	0f b6 05 27 98 00 00 	movzbl 0x9827(%rip),%eax        # 1310c <g_132>
    98e5:	09 d0                	or     %edx,%eax
    98e7:	44 0f be e0          	movsbl %al,%r12d
    98eb:	8b 15 fb 98 00 00    	mov    0x98fb(%rip),%edx        # 131ec <g_274+0x4>
    98f1:	48 8b 85 18 e1 ff ff 	mov    -0x1ee8(%rbp),%rax
    98f8:	48 8b 00             	mov    (%rax),%rax
    98fb:	89 d2                	mov    %edx,%edx
    98fd:	48 21 c2             	and    %rax,%rdx
    9900:	48 8b 85 18 e1 ff ff 	mov    -0x1ee8(%rbp),%rax
    9907:	48 89 10             	mov    %rdx,(%rax)
    990a:	48 8b 85 18 e1 ff ff 	mov    -0x1ee8(%rbp),%rax
    9911:	48 8b 00             	mov    (%rax),%rax
    9914:	be 00 00 00 00       	mov    $0x0,%esi
    9919:	48 89 c7             	mov    %rax,%rdi
    991c:	e8 2a c7 ff ff       	callq  604b <safe_sub_func_uint64_t_u_u>
    9921:	0f be c0             	movsbl %al,%eax
    9924:	44 89 e6             	mov    %r12d,%esi
    9927:	89 c7                	mov    %eax,%edi
    9929:	e8 a6 b8 ff ff       	callq  51d4 <safe_add_func_int8_t_s_s>
    992e:	84 c0                	test   %al,%al
    9930:	75 27                	jne    9959 <func_86+0x958>
    9932:	0f b6 85 1c df ff ff 	movzbl -0x20e4(%rbp),%eax
    9939:	48 ba d2 a1 cf 4b f1 	movabs $0x33f771f14bcfa1d2,%rdx
    9940:	71 f7 33 
    9943:	48 09 c2             	or     %rax,%rdx
    9946:	48 8b 05 53 ac 00 00 	mov    0xac53(%rip),%rax        # 145a0 <g_153>
    994d:	0f b6 00             	movzbl (%rax),%eax
    9950:	48 0f be c0          	movsbq %al,%rax
    9954:	48 39 c2             	cmp    %rax,%rdx
    9957:	75 07                	jne    9960 <func_86+0x95f>
    9959:	b8 01 00 00 00       	mov    $0x1,%eax
    995e:	eb 05                	jmp    9965 <func_86+0x964>
    9960:	b8 00 00 00 00       	mov    $0x0,%eax
    9965:	0f be d0             	movsbl %al,%edx
    9968:	8b 85 e8 df ff ff    	mov    -0x2018(%rbp),%eax
    996e:	0f be c0             	movsbl %al,%eax
    9971:	89 d6                	mov    %edx,%esi
    9973:	89 c7                	mov    %eax,%edi
    9975:	e8 78 b8 ff ff       	callq  51f2 <safe_sub_func_int8_t_s_s>
    997a:	66 98                	cbtw   
    997c:	0f b7 15 81 97 00 00 	movzwl 0x9781(%rip),%edx        # 13104 <g_103>
    9983:	09 d0                	or     %edx,%eax
    9985:	66 89 05 78 97 00 00 	mov    %ax,0x9778(%rip)        # 13104 <g_103>
    998c:	0f b7 05 71 97 00 00 	movzwl 0x9771(%rip),%eax        # 13104 <g_103>
    9993:	66 85 c0             	test   %ax,%ax
    9996:	74 07                	je     999f <func_86+0x99e>
    9998:	b8 01 00 00 00       	mov    $0x1,%eax
    999d:	eb 05                	jmp    99a4 <func_86+0x9a3>
    999f:	b8 00 00 00 00       	mov    $0x0,%eax
    99a4:	98                   	cwtl   
    99a5:	89 c6                	mov    %eax,%esi
    99a7:	bf 00 00 00 00       	mov    $0x0,%edi
    99ac:	e8 22 ba ff ff       	callq  53d3 <safe_sub_func_int16_t_s_s>
    99b1:	66 85 c0             	test   %ax,%ax
    99b4:	74 07                	je     99bd <func_86+0x9bc>
    99b6:	b8 01 00 00 00       	mov    $0x1,%eax
    99bb:	eb 05                	jmp    99c2 <func_86+0x9c1>
    99bd:	b8 00 00 00 00       	mov    $0x0,%eax
    99c2:	0f be c0             	movsbl %al,%eax
    99c5:	89 de                	mov    %ebx,%esi
    99c7:	89 c7                	mov    %eax,%edi
    99c9:	e8 d3 b8 ff ff       	callq  52a1 <safe_lshift_func_int8_t_s_s>
    99ce:	0f be d0             	movsbl %al,%edx
    99d1:	0f b7 85 3a df ff ff 	movzwl -0x20c6(%rbp),%eax
    99d8:	0f b7 c0             	movzwl %ax,%eax
    99db:	39 c2                	cmp    %eax,%edx
    99dd:	7e 14                	jle    99f3 <func_86+0x9f2>
    99df:	c6 85 39 df ff ff 00 	movb   $0x0,-0x20c7(%rbp)
    99e6:	66 0f be 85 39 df ff 	movsbw -0x20c7(%rbp),%ax
    99ed:	ff 
    99ee:	e9 67 48 00 00       	jmpq   e25a <func_86+0x5259>
    99f3:	66 c7 85 48 df ff ff 	movw   $0xab23,-0x20b8(%rbp)
    99fa:	23 ab 
    99fc:	48 c7 85 50 e1 ff ff 	movq   $0x0,-0x1eb0(%rbp)
    9a03:	00 00 00 00 
    9a07:	66 c7 85 4a df ff ff 	movw   $0x0,-0x20b6(%rbp)
    9a0e:	00 00 
    9a10:	48 c7 85 b8 e0 ff ff 	movq   $0x0,-0x1f48(%rbp)
    9a17:	00 00 00 00 
    9a1b:	c7 85 f4 df ff ff 18 	movl   $0xeffa7618,-0x200c(%rbp)
    9a22:	76 fa ef 
    9a25:	48 c7 85 58 e1 ff ff 	movq   $0x1,-0x1ea8(%rbp)
    9a2c:	01 00 00 00 
    9a30:	c7 85 70 df ff ff 56 	movl   $0xca0d7456,-0x2090(%rbp)
    9a37:	74 0d ca 
    9a3a:	c7 85 a8 e0 ff ff ff 	movl   $0xffffffff,-0x1f58(%rbp)
    9a41:	ff ff ff 
    9a44:	c7 85 b0 e0 ff ff 0c 	movl   $0xdc4bac0c,-0x1f50(%rbp)
    9a4b:	ac 4b dc 
    9a4e:	c7 85 f8 df ff ff 01 	movl   $0x1,-0x2008(%rbp)
    9a55:	00 00 00 
    9a58:	c7 85 9c df ff ff ff 	movl   $0xffffffff,-0x2064(%rbp)
    9a5f:	ff ff ff 
    9a62:	66 c7 85 4c df ff ff 	movw   $0x3,-0x20b4(%rbp)
    9a69:	03 00 
    9a6b:	c7 85 f0 e8 ff ff 85 	movl   $0x59d26785,-0x1710(%rbp)
    9a72:	67 d2 59 
    9a75:	c7 85 f4 e8 ff ff 04 	movl   $0x5c88f004,-0x170c(%rbp)
    9a7c:	f0 88 5c 
    9a7f:	c7 85 f8 e8 ff ff 85 	movl   $0x59d26785,-0x1708(%rbp)
    9a86:	67 d2 59 
    9a89:	c7 85 fc e8 ff ff 04 	movl   $0x5c88f004,-0x1704(%rbp)
    9a90:	f0 88 5c 
    9a93:	c7 85 00 e9 ff ff 85 	movl   $0x59d26785,-0x1700(%rbp)
    9a9a:	67 d2 59 
    9a9d:	c7 85 04 e9 ff ff 04 	movl   $0x5c88f004,-0x16fc(%rbp)
    9aa4:	f0 88 5c 
    9aa7:	c7 85 08 e9 ff ff 85 	movl   $0x59d26785,-0x16f8(%rbp)
    9aae:	67 d2 59 
    9ab1:	48 b8 04 4c 6a a8 3f 	movabs $0xd6b5343fa86a4c04,%rax
    9ab8:	34 b5 d6 
    9abb:	48 89 85 60 e1 ff ff 	mov    %rax,-0x1ea0(%rbp)
    9ac2:	48 8d 05 23 97 00 00 	lea    0x9723(%rip),%rax        # 131ec <g_274+0x4>
    9ac9:	48 89 85 68 e1 ff ff 	mov    %rax,-0x1e98(%rbp)
    9ad0:	0f be 9d 33 df ff ff 	movsbl -0x20cd(%rbp),%ebx
    9ad7:	44 0f b6 a5 1c df ff 	movzbl -0x20e4(%rbp),%r12d
    9ade:	ff 
    9adf:	8b 05 17 96 00 00    	mov    0x9617(%rip),%eax        # 130fc <g_75>
    9ae5:	89 c0                	mov    %eax,%eax
    9ae7:	48 89 85 10 df ff ff 	mov    %rax,-0x20f0(%rbp)
    9aee:	8b 05 0c 96 00 00    	mov    0x960c(%rip),%eax        # 13100 <g_90>
    9af4:	85 c0                	test   %eax,%eax
    9af6:	0f 85 01 01 00 00    	jne    9bfd <func_86+0xbfc>
    9afc:	0f b7 85 3a df ff ff 	movzwl -0x20c6(%rbp),%eax
    9b03:	44 0f b7 e8          	movzwl %ax,%r13d
    9b07:	8b 05 e7 96 00 00    	mov    0x96e7(%rip),%eax        # 131f4 <g_371>
    9b0d:	44 0f b7 bd 48 df ff 	movzwl -0x20b8(%rbp),%r15d
    9b14:	ff 
    9b15:	8b 85 5c df ff ff    	mov    -0x20a4(%rbp),%eax
    9b1b:	89 85 08 df ff ff    	mov    %eax,-0x20f8(%rbp)
    9b21:	44 0f b7 b5 48 df ff 	movzwl -0x20b8(%rbp),%r14d
    9b28:	ff 
    9b29:	8b 05 45 b6 00 00    	mov    0xb645(%rip),%eax        # 15174 <g_203>
    9b2f:	85 c0                	test   %eax,%eax
    9b31:	0f 95 c0             	setne  %al
    9b34:	0f b6 c0             	movzbl %al,%eax
    9b37:	be 01 00 00 00       	mov    $0x1,%esi
    9b3c:	89 c7                	mov    %eax,%edi
    9b3e:	e8 8d c3 ff ff       	callq  5ed0 <safe_sub_func_uint32_t_u_u>
    9b43:	48 8b 05 8e aa 00 00 	mov    0xaa8e(%rip),%rax        # 145d8 <g_382>
    9b4a:	48 39 85 50 e1 ff ff 	cmp    %rax,-0x1eb0(%rbp)
    9b51:	0f 94 c0             	sete   %al
    9b54:	0f b6 c0             	movzbl %al,%eax
    9b57:	be 03 00 00 00       	mov    $0x3,%esi
    9b5c:	89 c7                	mov    %eax,%edi
    9b5e:	e8 a2 c0 ff ff       	callq  5c05 <safe_lshift_func_uint8_t_u_s>
    9b63:	0f b6 c0             	movzbl %al,%eax
    9b66:	be ff ff ff ff       	mov    $0xffffffff,%esi
    9b6b:	89 c7                	mov    %eax,%edi
    9b6d:	e8 93 ba ff ff       	callq  5605 <safe_sub_func_int32_t_s_s>
    9b72:	98                   	cwtl   
    9b73:	be 00 00 00 00       	mov    $0x0,%esi
    9b78:	89 c7                	mov    %eax,%edi
    9b7a:	e8 ab b9 ff ff       	callq  552a <safe_rshift_func_int16_t_s_s>
    9b7f:	0f bf d0             	movswl %ax,%edx
    9b82:	48 8b 85 28 df ff ff 	mov    -0x20d8(%rbp),%rax
    9b89:	8b 00                	mov    (%rax),%eax
    9b8b:	39 c2                	cmp    %eax,%edx
    9b8d:	0f 9c c0             	setl   %al
    9b90:	0f b6 c0             	movzbl %al,%eax
    9b93:	4c 89 f6             	mov    %r14,%rsi
    9b96:	48 89 c7             	mov    %rax,%rdi
    9b99:	e8 0a bd ff ff       	callq  58a8 <safe_sub_func_int64_t_s_s>
    9b9e:	48 85 c0             	test   %rax,%rax
    9ba1:	75 09                	jne    9bac <func_86+0xbab>
    9ba3:	80 bd 1c df ff ff 00 	cmpb   $0x0,-0x20e4(%rbp)
    9baa:	74 07                	je     9bb3 <func_86+0xbb2>
    9bac:	ba 01 00 00 00       	mov    $0x1,%edx
    9bb1:	eb 05                	jmp    9bb8 <func_86+0xbb7>
    9bb3:	ba 00 00 00 00       	mov    $0x0,%edx
    9bb8:	0f bf 85 4a df ff ff 	movswl -0x20b6(%rbp),%eax
    9bbf:	09 d0                	or     %edx,%eax
    9bc1:	8b b5 08 df ff ff    	mov    -0x20f8(%rbp),%esi
    9bc7:	89 c7                	mov    %eax,%edi
    9bc9:	e8 57 c3 ff ff       	callq  5f25 <safe_div_func_uint32_t_u_u>
    9bce:	44 09 f8             	or     %r15d,%eax
    9bd1:	85 c0                	test   %eax,%eax
    9bd3:	74 11                	je     9be6 <func_86+0xbe5>
    9bd5:	8b 85 60 df ff ff    	mov    -0x20a0(%rbp),%eax
    9bdb:	85 c0                	test   %eax,%eax
    9bdd:	74 07                	je     9be6 <func_86+0xbe5>
    9bdf:	b8 01 00 00 00       	mov    $0x1,%eax
    9be4:	eb 05                	jmp    9beb <func_86+0xbea>
    9be6:	b8 00 00 00 00       	mov    $0x0,%eax
    9beb:	0f b7 c0             	movzwl %ax,%eax
    9bee:	44 89 ee             	mov    %r13d,%esi
    9bf1:	89 c7                	mov    %eax,%edi
    9bf3:	e8 64 c1 ff ff       	callq  5d5c <safe_mod_func_uint16_t_u_u>
    9bf8:	66 85 c0             	test   %ax,%ax
    9bfb:	74 07                	je     9c04 <func_86+0xc03>
    9bfd:	b8 01 00 00 00       	mov    $0x1,%eax
    9c02:	eb 05                	jmp    9c09 <func_86+0xc08>
    9c04:	b8 00 00 00 00       	mov    $0x0,%eax
    9c09:	be 42 d7 b6 14       	mov    $0x14b6d742,%esi
    9c0e:	89 c7                	mov    %eax,%edi
    9c10:	e8 b7 ba ff ff       	callq  56cc <safe_mod_func_int32_t_s_s>
    9c15:	48 98                	cltq   
    9c17:	48 8b b5 10 df ff ff 	mov    -0x20f0(%rbp),%rsi
    9c1e:	48 89 c7             	mov    %rax,%rdi
    9c21:	e8 82 bc ff ff       	callq  58a8 <safe_sub_func_int64_t_s_s>
    9c26:	8b 95 74 df ff ff    	mov    -0x208c(%rbp),%edx
    9c2c:	48 63 d2             	movslq %edx,%rdx
    9c2f:	48 39 d0             	cmp    %rdx,%rax
    9c32:	0f 94 c0             	sete   %al
    9c35:	0f b6 d0             	movzbl %al,%edx
    9c38:	0f b7 85 48 df ff ff 	movzwl -0x20b8(%rbp),%eax
    9c3f:	39 c2                	cmp    %eax,%edx
    9c41:	0f 9c c0             	setl   %al
    9c44:	0f b6 c0             	movzbl %al,%eax
    9c47:	44 89 e6             	mov    %r12d,%esi
    9c4a:	89 c7                	mov    %eax,%edi
    9c4c:	e8 a4 b7 ff ff       	callq  53f5 <safe_mul_func_int16_t_s_s>
    9c51:	80 bd 1c df ff ff 00 	cmpb   $0x0,-0x20e4(%rbp)
    9c58:	75 0a                	jne    9c64 <func_86+0xc63>
    9c5a:	8b 05 8c 94 00 00    	mov    0x948c(%rip),%eax        # 130ec <g_47+0x4>
    9c60:	85 c0                	test   %eax,%eax
    9c62:	74 07                	je     9c6b <func_86+0xc6a>
    9c64:	ba 01 00 00 00       	mov    $0x1,%edx
    9c69:	eb 05                	jmp    9c70 <func_86+0xc6f>
    9c6b:	ba 00 00 00 00       	mov    $0x0,%edx
    9c70:	48 8b 05 41 a9 00 00 	mov    0xa941(%rip),%rax        # 145b8 <g_256>
    9c77:	89 10                	mov    %edx,(%rax)
    9c79:	8b 00                	mov    (%rax),%eax
    9c7b:	66 89 85 42 df ff ff 	mov    %ax,-0x20be(%rbp)
    9c82:	0f bf 95 42 df ff ff 	movswl -0x20be(%rbp),%edx
    9c89:	48 8b 85 28 df ff ff 	mov    -0x20d8(%rbp),%rax
    9c90:	8b 00                	mov    (%rax),%eax
    9c92:	39 c2                	cmp    %eax,%edx
    9c94:	0f 95 c0             	setne  %al
    9c97:	0f b6 c0             	movzbl %al,%eax
    9c9a:	89 de                	mov    %ebx,%esi
    9c9c:	89 c7                	mov    %eax,%edi
    9c9e:	e8 4f b5 ff ff       	callq  51f2 <safe_sub_func_int8_t_s_s>
    9ca3:	84 c0                	test   %al,%al
    9ca5:	0f 84 be 07 00 00    	je     a469 <func_86+0x1468>
    9cab:	c7 85 d8 e0 ff ff 4f 	movl   $0xa6b0394f,-0x1f28(%rbp)
    9cb2:	39 b0 a6 
    9cb5:	c7 85 e0 e0 ff ff 6d 	movl   $0x6165db6d,-0x1f20(%rbp)
    9cbc:	db 65 61 
    9cbf:	c7 85 08 e0 ff ff cc 	movl   $0xcf65c6cc,-0x1ff8(%rbp)
    9cc6:	c6 65 cf 
    9cc9:	48 8d 05 48 95 00 00 	lea    0x9548(%rip),%rax        # 13218 <g_419>
    9cd0:	48 89 85 70 f0 ff ff 	mov    %rax,-0xf90(%rbp)
    9cd7:	48 8d 05 3a 95 00 00 	lea    0x953a(%rip),%rax        # 13218 <g_419>
    9cde:	48 89 85 78 f0 ff ff 	mov    %rax,-0xf88(%rbp)
    9ce5:	48 8d 05 2c 95 00 00 	lea    0x952c(%rip),%rax        # 13218 <g_419>
    9cec:	48 89 85 80 f0 ff ff 	mov    %rax,-0xf80(%rbp)
    9cf3:	48 8d 05 1e 95 00 00 	lea    0x951e(%rip),%rax        # 13218 <g_419>
    9cfa:	48 89 85 88 f0 ff ff 	mov    %rax,-0xf78(%rbp)
    9d01:	48 c7 05 5c b4 00 00 	movq   $0xc,0xb45c(%rip)        # 15168 <g_133>
    9d08:	0c 00 00 00 
    9d0c:	e9 88 05 00 00       	jmpq   a299 <func_86+0x1298>
    9d11:	66 c7 85 40 df ff ff 	movw   $0xfff6,-0x20c0(%rbp)
    9d18:	f6 ff 
    9d1a:	48 8d 05 d7 94 00 00 	lea    0x94d7(%rip),%rax        # 131f8 <g_416>
    9d21:	48 89 85 08 e2 ff ff 	mov    %rax,-0x1df8(%rbp)
    9d28:	48 8d 05 ed 94 00 00 	lea    0x94ed(%rip),%rax        # 1321c <g_421>
    9d2f:	48 89 85 10 e2 ff ff 	mov    %rax,-0x1df0(%rbp)
    9d36:	48 8d 05 a3 94 00 00 	lea    0x94a3(%rip),%rax        # 131e0 <g_240>
    9d3d:	48 89 85 18 e2 ff ff 	mov    %rax,-0x1de8(%rbp)
    9d44:	48 8d 85 e0 e0 ff ff 	lea    -0x1f20(%rbp),%rax
    9d4b:	48 89 85 20 e2 ff ff 	mov    %rax,-0x1de0(%rbp)
    9d52:	48 8d 05 7f 94 00 00 	lea    0x947f(%rip),%rax        # 131d8 <g_207>
    9d59:	48 89 85 28 e2 ff ff 	mov    %rax,-0x1dd8(%rbp)
    9d60:	48 8d 85 e0 e0 ff ff 	lea    -0x1f20(%rbp),%rax
    9d67:	48 89 85 30 e2 ff ff 	mov    %rax,-0x1dd0(%rbp)
    9d6e:	c7 85 0c e0 ff ff 01 	movl   $0x1,-0x1ff4(%rbp)
    9d75:	00 00 00 
    9d78:	48 8d 85 60 df ff ff 	lea    -0x20a0(%rbp),%rax
    9d7f:	48 89 85 38 e2 ff ff 	mov    %rax,-0x1dc8(%rbp)
    9d86:	c7 85 a0 df ff ff 00 	movl   $0x0,-0x2060(%rbp)
    9d8d:	00 00 00 
    9d90:	eb 1e                	jmp    9db0 <func_86+0xdaf>
    9d92:	8b 85 a0 df ff ff    	mov    -0x2060(%rbp),%eax
    9d98:	48 98                	cltq   
    9d9a:	48 8d 95 54 df ff ff 	lea    -0x20ac(%rbp),%rdx
    9da1:	48 89 94 c5 30 e5 ff 	mov    %rdx,-0x1ad0(%rbp,%rax,8)
    9da8:	ff 
    9da9:	83 85 a0 df ff ff 01 	addl   $0x1,-0x2060(%rbp)
    9db0:	83 bd a0 df ff ff 01 	cmpl   $0x1,-0x2060(%rbp)
    9db7:	7e d9                	jle    9d92 <func_86+0xd91>
    9db9:	c7 05 1d 94 00 00 1d 	movl   $0x1d,0x941d(%rip)        # 131e0 <g_240>
    9dc0:	00 00 00 
    9dc3:	e9 7a 03 00 00       	jmpq   a142 <func_86+0x1141>
    9dc8:	48 8d 85 54 df ff ff 	lea    -0x20ac(%rbp),%rax
    9dcf:	48 89 85 40 e2 ff ff 	mov    %rax,-0x1dc0(%rbp)
    9dd6:	48 c7 85 48 e2 ff ff 	movq   $0x0,-0x1db8(%rbp)
    9ddd:	00 00 00 00 
    9de1:	48 8d 85 54 df ff ff 	lea    -0x20ac(%rbp),%rax
    9de8:	48 89 85 50 e2 ff ff 	mov    %rax,-0x1db0(%rbp)
    9def:	48 8d 85 5c df ff ff 	lea    -0x20a4(%rbp),%rax
    9df6:	48 89 85 58 e2 ff ff 	mov    %rax,-0x1da8(%rbp)
    9dfd:	48 c7 85 60 e2 ff ff 	movq   $0x0,-0x1da0(%rbp)
    9e04:	00 00 00 00 
    9e08:	48 8d 85 5c df ff ff 	lea    -0x20a4(%rbp),%rax
    9e0f:	48 89 85 68 e2 ff ff 	mov    %rax,-0x1d98(%rbp)
    9e16:	48 c7 85 70 e2 ff ff 	movq   $0x0,-0x1d90(%rbp)
    9e1d:	00 00 00 00 
    9e21:	48 c7 85 78 e2 ff ff 	movq   $0x0,-0x1d88(%rbp)
    9e28:	00 00 00 00 
    9e2c:	48 c7 85 80 e2 ff ff 	movq   $0x0,-0x1d80(%rbp)
    9e33:	00 00 00 00 
    9e37:	48 8d 85 54 df ff ff 	lea    -0x20ac(%rbp),%rax
    9e3e:	48 89 85 f0 f7 ff ff 	mov    %rax,-0x810(%rbp)
    9e45:	48 8d 85 5c df ff ff 	lea    -0x20a4(%rbp),%rax
    9e4c:	48 89 85 f8 f7 ff ff 	mov    %rax,-0x808(%rbp)
    9e53:	48 8d 85 54 df ff ff 	lea    -0x20ac(%rbp),%rax
    9e5a:	48 89 85 00 f8 ff ff 	mov    %rax,-0x800(%rbp)
    9e61:	48 8d 05 70 93 00 00 	lea    0x9370(%rip),%rax        # 131d8 <g_207>
    9e68:	48 89 85 08 f8 ff ff 	mov    %rax,-0x7f8(%rbp)
    9e6f:	48 8d 85 5c df ff ff 	lea    -0x20a4(%rbp),%rax
    9e76:	48 89 85 10 f8 ff ff 	mov    %rax,-0x7f0(%rbp)
    9e7d:	48 8d 05 74 92 00 00 	lea    0x9274(%rip),%rax        # 130f8 <g_74>
    9e84:	48 89 85 18 f8 ff ff 	mov    %rax,-0x7e8(%rbp)
    9e8b:	48 8d 05 66 92 00 00 	lea    0x9266(%rip),%rax        # 130f8 <g_74>
    9e92:	48 89 85 20 f8 ff ff 	mov    %rax,-0x7e0(%rbp)
    9e99:	48 8d 85 5c df ff ff 	lea    -0x20a4(%rbp),%rax
    9ea0:	48 89 85 28 f8 ff ff 	mov    %rax,-0x7d8(%rbp)
    9ea7:	48 8d 05 2a 93 00 00 	lea    0x932a(%rip),%rax        # 131d8 <g_207>
    9eae:	48 89 85 30 f8 ff ff 	mov    %rax,-0x7d0(%rbp)
    9eb5:	48 8d 85 54 df ff ff 	lea    -0x20ac(%rbp),%rax
    9ebc:	48 89 85 38 f8 ff ff 	mov    %rax,-0x7c8(%rbp)
    9ec3:	48 8d 85 5c df ff ff 	lea    -0x20a4(%rbp),%rax
    9eca:	48 89 85 40 f8 ff ff 	mov    %rax,-0x7c0(%rbp)
    9ed1:	48 8d 85 54 df ff ff 	lea    -0x20ac(%rbp),%rax
    9ed8:	48 89 85 48 f8 ff ff 	mov    %rax,-0x7b8(%rbp)
    9edf:	48 8d 05 f2 92 00 00 	lea    0x92f2(%rip),%rax        # 131d8 <g_207>
    9ee6:	48 89 85 50 f8 ff ff 	mov    %rax,-0x7b0(%rbp)
    9eed:	48 8d 85 5c df ff ff 	lea    -0x20a4(%rbp),%rax
    9ef4:	48 89 85 58 f8 ff ff 	mov    %rax,-0x7a8(%rbp)
    9efb:	48 8d 05 f6 91 00 00 	lea    0x91f6(%rip),%rax        # 130f8 <g_74>
    9f02:	48 89 85 60 f8 ff ff 	mov    %rax,-0x7a0(%rbp)
    9f09:	48 8d 05 e8 91 00 00 	lea    0x91e8(%rip),%rax        # 130f8 <g_74>
    9f10:	48 89 85 68 f8 ff ff 	mov    %rax,-0x798(%rbp)
    9f17:	48 8d 85 5c df ff ff 	lea    -0x20a4(%rbp),%rax
    9f1e:	48 89 85 70 f8 ff ff 	mov    %rax,-0x790(%rbp)
    9f25:	48 8d 05 ac 92 00 00 	lea    0x92ac(%rip),%rax        # 131d8 <g_207>
    9f2c:	48 89 85 78 f8 ff ff 	mov    %rax,-0x788(%rbp)
    9f33:	48 8d 85 54 df ff ff 	lea    -0x20ac(%rbp),%rax
    9f3a:	48 89 85 80 f8 ff ff 	mov    %rax,-0x780(%rbp)
    9f41:	48 8d 85 5c df ff ff 	lea    -0x20a4(%rbp),%rax
    9f48:	48 89 85 88 f8 ff ff 	mov    %rax,-0x778(%rbp)
    9f4f:	48 8d 85 54 df ff ff 	lea    -0x20ac(%rbp),%rax
    9f56:	48 89 85 90 f8 ff ff 	mov    %rax,-0x770(%rbp)
    9f5d:	48 8d 05 74 92 00 00 	lea    0x9274(%rip),%rax        # 131d8 <g_207>
    9f64:	48 89 85 98 f8 ff ff 	mov    %rax,-0x768(%rbp)
    9f6b:	48 8d 85 5c df ff ff 	lea    -0x20a4(%rbp),%rax
    9f72:	48 89 85 a0 f8 ff ff 	mov    %rax,-0x760(%rbp)
    9f79:	48 8d 05 78 91 00 00 	lea    0x9178(%rip),%rax        # 130f8 <g_74>
    9f80:	48 89 85 a8 f8 ff ff 	mov    %rax,-0x758(%rbp)
    9f87:	48 8d 05 6a 91 00 00 	lea    0x916a(%rip),%rax        # 130f8 <g_74>
    9f8e:	48 89 85 b0 f8 ff ff 	mov    %rax,-0x750(%rbp)
    9f95:	48 8d 85 5c df ff ff 	lea    -0x20a4(%rbp),%rax
    9f9c:	48 89 85 b8 f8 ff ff 	mov    %rax,-0x748(%rbp)
    9fa3:	48 8d 05 2e 92 00 00 	lea    0x922e(%rip),%rax        # 131d8 <g_207>
    9faa:	48 89 85 c0 f8 ff ff 	mov    %rax,-0x740(%rbp)
    9fb1:	48 8d 85 54 df ff ff 	lea    -0x20ac(%rbp),%rax
    9fb8:	48 89 85 c8 f8 ff ff 	mov    %rax,-0x738(%rbp)
    9fbf:	48 8d 85 5c df ff ff 	lea    -0x20a4(%rbp),%rax
    9fc6:	48 89 85 d0 f8 ff ff 	mov    %rax,-0x730(%rbp)
    9fcd:	48 8d 85 54 df ff ff 	lea    -0x20ac(%rbp),%rax
    9fd4:	48 89 85 d8 f8 ff ff 	mov    %rax,-0x728(%rbp)
    9fdb:	48 8d 05 f6 91 00 00 	lea    0x91f6(%rip),%rax        # 131d8 <g_207>
    9fe2:	48 89 85 e0 f8 ff ff 	mov    %rax,-0x720(%rbp)
    9fe9:	48 8d 85 5c df ff ff 	lea    -0x20a4(%rbp),%rax
    9ff0:	48 89 85 e8 f8 ff ff 	mov    %rax,-0x718(%rbp)
    9ff7:	48 8d 05 fa 90 00 00 	lea    0x90fa(%rip),%rax        # 130f8 <g_74>
    9ffe:	48 89 85 f0 f8 ff ff 	mov    %rax,-0x710(%rbp)
    a005:	48 8d 05 ec 90 00 00 	lea    0x90ec(%rip),%rax        # 130f8 <g_74>
    a00c:	48 89 85 f8 f8 ff ff 	mov    %rax,-0x708(%rbp)
    a013:	48 8d 85 5c df ff ff 	lea    -0x20a4(%rbp),%rax
    a01a:	48 89 85 00 f9 ff ff 	mov    %rax,-0x700(%rbp)
    a021:	48 8d 05 b0 91 00 00 	lea    0x91b0(%rip),%rax        # 131d8 <g_207>
    a028:	48 89 85 08 f9 ff ff 	mov    %rax,-0x6f8(%rbp)
    a02f:	48 8d 85 54 df ff ff 	lea    -0x20ac(%rbp),%rax
    a036:	48 89 85 10 f9 ff ff 	mov    %rax,-0x6f0(%rbp)
    a03d:	48 8d 85 5c df ff ff 	lea    -0x20a4(%rbp),%rax
    a044:	48 89 85 18 f9 ff ff 	mov    %rax,-0x6e8(%rbp)
    a04b:	48 8d 85 54 df ff ff 	lea    -0x20ac(%rbp),%rax
    a052:	48 89 85 20 f9 ff ff 	mov    %rax,-0x6e0(%rbp)
    a059:	48 8d 05 78 91 00 00 	lea    0x9178(%rip),%rax        # 131d8 <g_207>
    a060:	48 89 85 28 f9 ff ff 	mov    %rax,-0x6d8(%rbp)
    a067:	48 8d 85 5c df ff ff 	lea    -0x20a4(%rbp),%rax
    a06e:	48 89 85 30 f9 ff ff 	mov    %rax,-0x6d0(%rbp)
    a075:	48 8d 05 7c 90 00 00 	lea    0x907c(%rip),%rax        # 130f8 <g_74>
    a07c:	48 89 85 38 f9 ff ff 	mov    %rax,-0x6c8(%rbp)
    a083:	48 8d 05 6e 90 00 00 	lea    0x906e(%rip),%rax        # 130f8 <g_74>
    a08a:	48 89 85 40 f9 ff ff 	mov    %rax,-0x6c0(%rbp)
    a091:	48 8d 85 5c df ff ff 	lea    -0x20a4(%rbp),%rax
    a098:	48 89 85 48 f9 ff ff 	mov    %rax,-0x6b8(%rbp)
    a09f:	48 8d 05 32 91 00 00 	lea    0x9132(%rip),%rax        # 131d8 <g_207>
    a0a6:	48 89 85 50 f9 ff ff 	mov    %rax,-0x6b0(%rbp)
    a0ad:	48 8d 85 54 df ff ff 	lea    -0x20ac(%rbp),%rax
    a0b4:	48 89 85 58 f9 ff ff 	mov    %rax,-0x6a8(%rbp)
    a0bb:	48 8d 85 5c df ff ff 	lea    -0x20a4(%rbp),%rax
    a0c2:	48 89 85 60 f9 ff ff 	mov    %rax,-0x6a0(%rbp)
    a0c9:	48 8d 85 54 df ff ff 	lea    -0x20ac(%rbp),%rax
    a0d0:	48 89 85 68 f9 ff ff 	mov    %rax,-0x698(%rbp)
    a0d7:	48 8d 05 fa 90 00 00 	lea    0x90fa(%rip),%rax        # 131d8 <g_207>
    a0de:	48 89 85 70 f9 ff ff 	mov    %rax,-0x690(%rbp)
    a0e5:	48 8d 85 5c df ff ff 	lea    -0x20a4(%rbp),%rax
    a0ec:	48 89 85 78 f9 ff ff 	mov    %rax,-0x688(%rbp)
    a0f3:	48 8d 05 fe 8f 00 00 	lea    0x8ffe(%rip),%rax        # 130f8 <g_74>
    a0fa:	48 89 85 80 f9 ff ff 	mov    %rax,-0x680(%rbp)
    a101:	48 8d 05 f0 8f 00 00 	lea    0x8ff0(%rip),%rax        # 130f8 <g_74>
    a108:	48 89 85 88 f9 ff ff 	mov    %rax,-0x678(%rbp)
    a10f:	48 8d 85 5c df ff ff 	lea    -0x20a4(%rbp),%rax
    a116:	48 89 85 90 f9 ff ff 	mov    %rax,-0x670(%rbp)
    a11d:	48 8d 05 b4 90 00 00 	lea    0x90b4(%rip),%rax        # 131d8 <g_207>
    a124:	48 89 85 98 f9 ff ff 	mov    %rax,-0x668(%rbp)
    a12b:	66 83 85 40 df ff ff 	addw   $0x1,-0x20c0(%rbp)
    a132:	01 
    a133:	8b 05 a7 90 00 00    	mov    0x90a7(%rip),%eax        # 131e0 <g_240>
    a139:	83 e8 01             	sub    $0x1,%eax
    a13c:	89 05 9e 90 00 00    	mov    %eax,0x909e(%rip)        # 131e0 <g_240>
    a142:	8b 05 98 90 00 00    	mov    0x9098(%rip),%eax        # 131e0 <g_240>
    a148:	83 f8 01             	cmp    $0x1,%eax
    a14b:	0f 85 77 fc ff ff    	jne    9dc8 <func_86+0xdc7>
    a151:	48 8b 85 80 f0 ff ff 	mov    -0xf80(%rbp),%rax
    a158:	48 89 85 10 e2 ff ff 	mov    %rax,-0x1df0(%rbp)
    a15f:	48 8b 05 6a a4 00 00 	mov    0xa46a(%rip),%rax        # 145d0 <g_383>
    a166:	0f b7 00             	movzwl (%rax),%eax
    a169:	0f bf d8             	movswl %ax,%ebx
    a16c:	8b 05 7a 8f 00 00    	mov    0x8f7a(%rip),%eax        # 130ec <g_47+0x4>
    a172:	44 0f be e0          	movsbl %al,%r12d
    a176:	44 8b ad 08 e0 ff ff 	mov    -0x1ff8(%rbp),%r13d
    a17d:	8b 85 54 df ff ff    	mov    -0x20ac(%rbp),%eax
    a183:	89 c2                	mov    %eax,%edx
    a185:	8b 05 7d 8f 00 00    	mov    0x8f7d(%rip),%eax        # 13108 <g_120>
    a18b:	0f b7 c0             	movzwl %ax,%eax
    a18e:	89 d6                	mov    %edx,%esi
    a190:	89 c7                	mov    %eax,%edi
    a192:	e8 6f bc ff ff       	callq  5e06 <safe_lshift_func_uint16_t_u_u>
    a197:	48 8d 05 3a 90 00 00 	lea    0x903a(%rip),%rax        # 131d8 <g_207>
    a19e:	48 39 85 28 df ff ff 	cmp    %rax,-0x20d8(%rbp)
    a1a5:	0f 94 c0             	sete   %al
    a1a8:	0f b6 c0             	movzbl %al,%eax
    a1ab:	48 be 44 24 ec 45 2f 	movabs $0x53eb9e2f45ec2444,%rsi
    a1b2:	9e eb 53 
    a1b5:	48 89 c7             	mov    %rax,%rdi
    a1b8:	e8 8e be ff ff       	callq  604b <safe_sub_func_uint64_t_u_u>
    a1bd:	44 89 ee             	mov    %r13d,%esi
    a1c0:	89 c7                	mov    %eax,%edi
    a1c2:	e8 f1 bc ff ff       	callq  5eb8 <safe_add_func_uint32_t_u_u>
    a1c7:	0f be c0             	movsbl %al,%eax
    a1ca:	44 89 e6             	mov    %r12d,%esi
    a1cd:	89 c7                	mov    %eax,%edi
    a1cf:	e8 3e b0 ff ff       	callq  5212 <safe_mul_func_int8_t_s_s>
    a1d4:	48 0f be d0          	movsbq %al,%rdx
    a1d8:	48 83 bd 10 e2 ff ff 	cmpq   $0x0,-0x1df0(%rbp)
    a1df:	00 
    a1e0:	0f 94 c0             	sete   %al
    a1e3:	0f b6 c0             	movzbl %al,%eax
    a1e6:	48 89 d6             	mov    %rdx,%rsi
    a1e9:	48 89 c7             	mov    %rax,%rdi
    a1ec:	e8 06 b8 ff ff       	callq  59f7 <safe_div_func_int64_t_s_s>
    a1f1:	98                   	cwtl   
    a1f2:	be 08 00 00 00       	mov    $0x8,%esi
    a1f7:	89 c7                	mov    %eax,%edi
    a1f9:	e8 94 b2 ff ff       	callq  5492 <safe_lshift_func_int16_t_s_s>
    a1fe:	89 de                	mov    %ebx,%esi
    a200:	bf 00 00 00 00       	mov    $0x0,%edi
    a205:	e8 c9 b1 ff ff       	callq  53d3 <safe_sub_func_int16_t_s_s>
    a20a:	0f b6 85 1c df ff ff 	movzbl -0x20e4(%rbp),%eax
    a211:	48 39 85 58 e1 ff ff 	cmp    %rax,-0x1ea8(%rbp)
    a218:	0f 9f c2             	setg   %dl
    a21b:	48 8b 05 96 a3 00 00 	mov    0xa396(%rip),%rax        # 145b8 <g_256>
    a222:	0f b6 d2             	movzbl %dl,%edx
    a225:	89 10                	mov    %edx,(%rax)
    a227:	8b 00                	mov    (%rax),%eax
    a229:	89 85 5c df ff ff    	mov    %eax,-0x20a4(%rbp)
    a22f:	8b 8d 5c df ff ff    	mov    -0x20a4(%rbp),%ecx
    a235:	48 8b 15 84 8f 00 00 	mov    0x8f84(%rip),%rdx        # 131c0 <g_168+0x10>
    a23c:	48 8b 85 18 e2 ff ff 	mov    -0x1de8(%rbp),%rax
    a243:	8b 00                	mov    (%rax),%eax
    a245:	09 c1                	or     %eax,%ecx
    a247:	48 8b 85 18 e2 ff ff 	mov    -0x1de8(%rbp),%rax
    a24e:	89 08                	mov    %ecx,(%rax)
    a250:	48 8b 85 18 e2 ff ff 	mov    -0x1de8(%rbp),%rax
    a257:	8b 00                	mov    (%rax),%eax
    a259:	48 98                	cltq   
    a25b:	48 21 c2             	and    %rax,%rdx
    a25e:	48 8b 85 20 e2 ff ff 	mov    -0x1de0(%rbp),%rax
    a265:	8b 00                	mov    (%rax),%eax
    a267:	89 c1                	mov    %eax,%ecx
    a269:	89 d0                	mov    %edx,%eax
    a26b:	31 c8                	xor    %ecx,%eax
    a26d:	89 c2                	mov    %eax,%edx
    a26f:	48 8b 85 20 e2 ff ff 	mov    -0x1de0(%rbp),%rax
    a276:	89 10                	mov    %edx,(%rax)
    a278:	8b 05 0e 90 00 00    	mov    0x900e(%rip),%eax        # 1328c <g_447+0x6c>
    a27e:	83 c0 01             	add    $0x1,%eax
    a281:	89 05 05 90 00 00    	mov    %eax,0x9005(%rip)        # 1328c <g_447+0x6c>
    a287:	48 8b 05 da ae 00 00 	mov    0xaeda(%rip),%rax        # 15168 <g_133>
    a28e:	48 83 e8 01          	sub    $0x1,%rax
    a292:	48 89 05 cf ae 00 00 	mov    %rax,0xaecf(%rip)        # 15168 <g_133>
    a299:	48 8b 05 c8 ae 00 00 	mov    0xaec8(%rip),%rax        # 15168 <g_133>
    a2a0:	48 85 c0             	test   %rax,%rax
    a2a3:	0f 8f 68 fa ff ff    	jg     9d11 <func_86+0xd10>
    a2a9:	66 c7 85 3a df ff ff 	movw   $0x3,-0x20c6(%rbp)
    a2b0:	03 00 
    a2b2:	e9 9c 01 00 00       	jmpq   a453 <func_86+0x1452>
    a2b7:	48 8d 85 b8 e0 ff ff 	lea    -0x1f48(%rbp),%rax
    a2be:	48 89 85 b0 e1 ff ff 	mov    %rax,-0x1e50(%rbp)
    a2c5:	48 8d 85 58 df ff ff 	lea    -0x20a8(%rbp),%rax
    a2cc:	48 89 85 b8 e1 ff ff 	mov    %rax,-0x1e48(%rbp)
    a2d3:	48 8d 85 b0 e0 ff ff 	lea    -0x1f50(%rbp),%rax
    a2da:	48 89 85 c0 e1 ff ff 	mov    %rax,-0x1e40(%rbp)
    a2e1:	48 8d 85 d8 e0 ff ff 	lea    -0x1f28(%rbp),%rax
    a2e8:	48 89 85 c8 e1 ff ff 	mov    %rax,-0x1e38(%rbp)
    a2ef:	48 8d 85 a8 e0 ff ff 	lea    -0x1f58(%rbp),%rax
    a2f6:	48 89 85 d0 e1 ff ff 	mov    %rax,-0x1e30(%rbp)
    a2fd:	48 8d 85 70 df ff ff 	lea    -0x2090(%rbp),%rax
    a304:	48 89 85 d8 e1 ff ff 	mov    %rax,-0x1e28(%rbp)
    a30b:	48 8d 85 54 df ff ff 	lea    -0x20ac(%rbp),%rax
    a312:	48 89 85 e0 e1 ff ff 	mov    %rax,-0x1e20(%rbp)
    a319:	48 8d 05 b8 8e 00 00 	lea    0x8eb8(%rip),%rax        # 131d8 <g_207>
    a320:	48 89 85 e8 e1 ff ff 	mov    %rax,-0x1e18(%rbp)
    a327:	48 8d 85 5c df ff ff 	lea    -0x20a4(%rbp),%rax
    a32e:	48 89 85 f0 e1 ff ff 	mov    %rax,-0x1e10(%rbp)
    a335:	48 8d 85 d8 e0 ff ff 	lea    -0x1f28(%rbp),%rax
    a33c:	48 89 85 f8 e1 ff ff 	mov    %rax,-0x1e08(%rbp)
    a343:	48 8d 85 54 df ff ff 	lea    -0x20ac(%rbp),%rax
    a34a:	48 89 85 00 e2 ff ff 	mov    %rax,-0x1e00(%rbp)
    a351:	c7 85 a4 df ff ff 00 	movl   $0x0,-0x205c(%rbp)
    a358:	00 00 00 
    a35b:	eb 1e                	jmp    a37b <func_86+0x137a>
    a35d:	8b 85 a4 df ff ff    	mov    -0x205c(%rbp),%eax
    a363:	48 98                	cltq   
    a365:	48 8d 95 d8 e0 ff ff 	lea    -0x1f28(%rbp),%rdx
    a36c:	48 89 94 c5 f0 f7 ff 	mov    %rdx,-0x810(%rbp,%rax,8)
    a373:	ff 
    a374:	83 85 a4 df ff ff 01 	addl   $0x1,-0x205c(%rbp)
    a37b:	83 bd a4 df ff ff 03 	cmpl   $0x3,-0x205c(%rbp)
    a382:	7e d9                	jle    a35d <func_86+0x135c>
    a384:	48 8b 85 b0 e1 ff ff 	mov    -0x1e50(%rbp),%rax
    a38b:	48 8b 95 28 df ff ff 	mov    -0x20d8(%rbp),%rdx
    a392:	48 89 10             	mov    %rdx,(%rax)
    a395:	8b 05 51 8f 00 00    	mov    0x8f51(%rip),%eax        # 132ec <g_471>
    a39b:	83 c0 01             	add    $0x1,%eax
    a39e:	89 05 48 8f 00 00    	mov    %eax,0x8f48(%rip)        # 132ec <g_471>
    a3a4:	c7 05 da 8d 00 00 00 	movl   $0x0,0x8dda(%rip)        # 13188 <g_149>
    a3ab:	00 00 00 
    a3ae:	eb 69                	jmp    a419 <func_86+0x1418>
    a3b0:	c7 85 d8 e0 ff ff 00 	movl   $0x0,-0x1f28(%rbp)
    a3b7:	00 00 00 
    a3ba:	eb 43                	jmp    a3ff <func_86+0x13fe>
    a3bc:	8b 0d c6 8d 00 00    	mov    0x8dc6(%rip),%ecx        # 13188 <g_149>
    a3c2:	8b 85 d8 e0 ff ff    	mov    -0x1f28(%rbp),%eax
    a3c8:	48 63 d0             	movslq %eax,%rdx
    a3cb:	89 c9                	mov    %ecx,%ecx
    a3cd:	48 89 c8             	mov    %rcx,%rax
    a3d0:	48 c1 e0 03          	shl    $0x3,%rax
    a3d4:	48 29 c8             	sub    %rcx,%rax
    a3d7:	48 01 d0             	add    %rdx,%rax
    a3da:	48 8d 14 85 00 00 00 	lea    0x0(,%rax,4),%rdx
    a3e1:	00 
    a3e2:	48 8d 05 37 8e 00 00 	lea    0x8e37(%rip),%rax        # 13220 <g_447>
    a3e9:	c7 04 02 1e dd 06 e9 	movl   $0xe906dd1e,(%rdx,%rax,1)
    a3f0:	8b 85 d8 e0 ff ff    	mov    -0x1f28(%rbp),%eax
    a3f6:	83 c0 01             	add    $0x1,%eax
    a3f9:	89 85 d8 e0 ff ff    	mov    %eax,-0x1f28(%rbp)
    a3ff:	8b 85 d8 e0 ff ff    	mov    -0x1f28(%rbp),%eax
    a405:	83 f8 06             	cmp    $0x6,%eax
    a408:	7e b2                	jle    a3bc <func_86+0x13bb>
    a40a:	8b 05 78 8d 00 00    	mov    0x8d78(%rip),%eax        # 13188 <g_149>
    a410:	83 c0 01             	add    $0x1,%eax
    a413:	89 05 6f 8d 00 00    	mov    %eax,0x8d6f(%rip)        # 13188 <g_149>
    a419:	8b 05 69 8d 00 00    	mov    0x8d69(%rip),%eax        # 13188 <g_149>
    a41f:	83 f8 06             	cmp    $0x6,%eax
    a422:	76 8c                	jbe    a3b0 <func_86+0x13af>
    a424:	48 8b 05 85 a1 00 00 	mov    0xa185(%rip),%rax        # 145b0 <g_162>
    a42b:	8b 00                	mov    (%rax),%eax
    a42d:	85 c0                	test   %eax,%eax
    a42f:	0f 85 83 05 00 00    	jne    a9b8 <func_86+0x19b7>
    a435:	0f b7 85 3a df ff ff 	movzwl -0x20c6(%rbp),%eax
    a43c:	0f b7 c0             	movzwl %ax,%eax
    a43f:	be 02 00 00 00       	mov    $0x2,%esi
    a444:	48 89 c7             	mov    %rax,%rdi
    a447:	e8 e2 bb ff ff       	callq  602e <safe_add_func_uint64_t_u_u>
    a44c:	66 89 85 3a df ff ff 	mov    %ax,-0x20c6(%rbp)
    a453:	0f b7 85 3a df ff ff 	movzwl -0x20c6(%rbp),%eax
    a45a:	66 83 f8 1c          	cmp    $0x1c,%ax
    a45e:	0f 84 53 fe ff ff    	je     a2b7 <func_86+0x12b6>
    a464:	e9 50 05 00 00       	jmpq   a9b9 <func_86+0x19b8>
    a469:	c7 85 fc df ff ff 7a 	movl   $0xd366db7a,-0x2004(%rbp)
    a470:	db 66 d3 
    a473:	48 b8 79 c4 ff 0e 12 	movabs $0x71a5fc120effc479,%rax
    a47a:	fc a5 71 
    a47d:	48 89 85 c0 e0 ff ff 	mov    %rax,-0x1f40(%rbp)
    a484:	48 8d 05 fd ac 00 00 	lea    0xacfd(%rip),%rax        # 15188 <g_579>
    a48b:	48 89 85 70 e1 ff ff 	mov    %rax,-0x1e90(%rbp)
    a492:	c7 85 9c df ff ff 00 	movl   $0x0,-0x2064(%rbp)
    a499:	00 00 00 
    a49c:	e9 08 05 00 00       	jmpq   a9a9 <func_86+0x19a8>
    a4a1:	48 c7 85 78 e1 ff ff 	movq   $0x0,-0x1e88(%rbp)
    a4a8:	00 00 00 00 
    a4ac:	48 8d 05 05 a1 00 00 	lea    0xa105(%rip),%rax        # 145b8 <g_256>
    a4b3:	48 89 85 c8 e0 ff ff 	mov    %rax,-0x1f38(%rbp)
    a4ba:	48 8d 85 c8 e0 ff ff 	lea    -0x1f38(%rbp),%rax
    a4c1:	48 89 85 80 e1 ff ff 	mov    %rax,-0x1e80(%rbp)
    a4c8:	48 8d 05 2d 8c 00 00 	lea    0x8c2d(%rip),%rax        # 130fc <g_75>
    a4cf:	48 89 85 d0 e0 ff ff 	mov    %rax,-0x1f30(%rbp)
    a4d6:	48 8d 85 d0 e0 ff ff 	lea    -0x1f30(%rbp),%rax
    a4dd:	48 89 85 88 e1 ff ff 	mov    %rax,-0x1e78(%rbp)
    a4e4:	48 8d 05 55 8f 00 00 	lea    0x8f55(%rip),%rax        # 13440 <g_501>
    a4eb:	48 89 85 90 e1 ff ff 	mov    %rax,-0x1e70(%rbp)
    a4f2:	48 8d 85 3a df ff ff 	lea    -0x20c6(%rbp),%rax
    a4f9:	48 89 85 98 e1 ff ff 	mov    %rax,-0x1e68(%rbp)
    a500:	48 8d 05 f1 8b 00 00 	lea    0x8bf1(%rip),%rax        # 130f8 <g_74>
    a507:	48 89 85 f0 f7 ff ff 	mov    %rax,-0x810(%rbp)
    a50e:	48 8d 85 64 df ff ff 	lea    -0x209c(%rbp),%rax
    a515:	48 89 85 f8 f7 ff ff 	mov    %rax,-0x808(%rbp)
    a51c:	48 8d 85 64 df ff ff 	lea    -0x209c(%rbp),%rax
    a523:	48 89 85 00 f8 ff ff 	mov    %rax,-0x800(%rbp)
    a52a:	48 8d 05 c7 8b 00 00 	lea    0x8bc7(%rip),%rax        # 130f8 <g_74>
    a531:	48 89 85 08 f8 ff ff 	mov    %rax,-0x7f8(%rbp)
    a538:	48 c7 85 10 f8 ff ff 	movq   $0x0,-0x7f0(%rbp)
    a53f:	00 00 00 00 
    a543:	48 8d 05 ae 8b 00 00 	lea    0x8bae(%rip),%rax        # 130f8 <g_74>
    a54a:	48 89 85 18 f8 ff ff 	mov    %rax,-0x7e8(%rbp)
    a551:	48 8d 85 64 df ff ff 	lea    -0x209c(%rbp),%rax
    a558:	48 89 85 20 f8 ff ff 	mov    %rax,-0x7e0(%rbp)
    a55f:	48 8d 85 64 df ff ff 	lea    -0x209c(%rbp),%rax
    a566:	48 89 85 28 f8 ff ff 	mov    %rax,-0x7d8(%rbp)
    a56d:	48 8d 05 84 8b 00 00 	lea    0x8b84(%rip),%rax        # 130f8 <g_74>
    a574:	48 89 85 30 f8 ff ff 	mov    %rax,-0x7d0(%rbp)
    a57b:	48 c7 85 38 f8 ff ff 	movq   $0x0,-0x7c8(%rbp)
    a582:	00 00 00 00 
    a586:	48 8d 05 6b 8b 00 00 	lea    0x8b6b(%rip),%rax        # 130f8 <g_74>
    a58d:	48 89 85 40 f8 ff ff 	mov    %rax,-0x7c0(%rbp)
    a594:	48 8d 85 64 df ff ff 	lea    -0x209c(%rbp),%rax
    a59b:	48 89 85 48 f8 ff ff 	mov    %rax,-0x7b8(%rbp)
    a5a2:	48 8d 85 64 df ff ff 	lea    -0x209c(%rbp),%rax
    a5a9:	48 89 85 50 f8 ff ff 	mov    %rax,-0x7b0(%rbp)
    a5b0:	48 8d 05 41 8b 00 00 	lea    0x8b41(%rip),%rax        # 130f8 <g_74>
    a5b7:	48 89 85 58 f8 ff ff 	mov    %rax,-0x7a8(%rbp)
    a5be:	48 c7 85 60 f8 ff ff 	movq   $0x0,-0x7a0(%rbp)
    a5c5:	00 00 00 00 
    a5c9:	48 8d 05 28 8b 00 00 	lea    0x8b28(%rip),%rax        # 130f8 <g_74>
    a5d0:	48 89 85 68 f8 ff ff 	mov    %rax,-0x798(%rbp)
    a5d7:	48 8d 85 64 df ff ff 	lea    -0x209c(%rbp),%rax
    a5de:	48 89 85 70 f8 ff ff 	mov    %rax,-0x790(%rbp)
    a5e5:	48 8d 85 64 df ff ff 	lea    -0x209c(%rbp),%rax
    a5ec:	48 89 85 78 f8 ff ff 	mov    %rax,-0x788(%rbp)
    a5f3:	48 8d 05 fe 8a 00 00 	lea    0x8afe(%rip),%rax        # 130f8 <g_74>
    a5fa:	48 89 85 80 f8 ff ff 	mov    %rax,-0x780(%rbp)
    a601:	48 c7 85 88 f8 ff ff 	movq   $0x0,-0x778(%rbp)
    a608:	00 00 00 00 
    a60c:	48 8d 05 e5 8a 00 00 	lea    0x8ae5(%rip),%rax        # 130f8 <g_74>
    a613:	48 89 85 90 f8 ff ff 	mov    %rax,-0x770(%rbp)
    a61a:	48 8d 85 64 df ff ff 	lea    -0x209c(%rbp),%rax
    a621:	48 89 85 98 f8 ff ff 	mov    %rax,-0x768(%rbp)
    a628:	48 8d 85 64 df ff ff 	lea    -0x209c(%rbp),%rax
    a62f:	48 89 85 a0 f8 ff ff 	mov    %rax,-0x760(%rbp)
    a636:	48 8d 05 bb 8a 00 00 	lea    0x8abb(%rip),%rax        # 130f8 <g_74>
    a63d:	48 89 85 a8 f8 ff ff 	mov    %rax,-0x758(%rbp)
    a644:	48 c7 85 b0 f8 ff ff 	movq   $0x0,-0x750(%rbp)
    a64b:	00 00 00 00 
    a64f:	48 8d 05 a2 8a 00 00 	lea    0x8aa2(%rip),%rax        # 130f8 <g_74>
    a656:	48 89 85 b8 f8 ff ff 	mov    %rax,-0x748(%rbp)
    a65d:	48 8d 85 64 df ff ff 	lea    -0x209c(%rbp),%rax
    a664:	48 89 85 c0 f8 ff ff 	mov    %rax,-0x740(%rbp)
    a66b:	48 8d 85 64 df ff ff 	lea    -0x209c(%rbp),%rax
    a672:	48 89 85 c8 f8 ff ff 	mov    %rax,-0x738(%rbp)
    a679:	48 8d 05 78 8a 00 00 	lea    0x8a78(%rip),%rax        # 130f8 <g_74>
    a680:	48 89 85 d0 f8 ff ff 	mov    %rax,-0x730(%rbp)
    a687:	48 c7 85 d8 f8 ff ff 	movq   $0x0,-0x728(%rbp)
    a68e:	00 00 00 00 
    a692:	48 8d 05 5f 8a 00 00 	lea    0x8a5f(%rip),%rax        # 130f8 <g_74>
    a699:	48 89 85 e0 f8 ff ff 	mov    %rax,-0x720(%rbp)
    a6a0:	48 8d 85 64 df ff ff 	lea    -0x209c(%rbp),%rax
    a6a7:	48 89 85 e8 f8 ff ff 	mov    %rax,-0x718(%rbp)
    a6ae:	48 8d 85 64 df ff ff 	lea    -0x209c(%rbp),%rax
    a6b5:	48 89 85 f0 f8 ff ff 	mov    %rax,-0x710(%rbp)
    a6bc:	48 8d 05 35 8a 00 00 	lea    0x8a35(%rip),%rax        # 130f8 <g_74>
    a6c3:	48 89 85 f8 f8 ff ff 	mov    %rax,-0x708(%rbp)
    a6ca:	48 c7 85 00 f9 ff ff 	movq   $0x0,-0x700(%rbp)
    a6d1:	00 00 00 00 
    a6d5:	66 c7 85 4e df ff ff 	movw   $0xffff,-0x20b2(%rbp)
    a6dc:	ff ff 
    a6de:	48 8d 05 27 8b 00 00 	lea    0x8b27(%rip),%rax        # 1320c <g_418+0xc>
    a6e5:	48 89 85 d8 e0 ff ff 	mov    %rax,-0x1f28(%rbp)
    a6ec:	48 8d 85 d8 e0 ff ff 	lea    -0x1f28(%rbp),%rax
    a6f3:	48 89 85 e0 e0 ff ff 	mov    %rax,-0x1f20(%rbp)
    a6fa:	48 8d 85 e0 e0 ff ff 	lea    -0x1f20(%rbp),%rax
    a701:	48 89 85 a0 e1 ff ff 	mov    %rax,-0x1e60(%rbp)
    a708:	c7 85 a8 df ff ff 00 	movl   $0x0,-0x2058(%rbp)
    a70f:	00 00 00 
    a712:	eb 1e                	jmp    a732 <func_86+0x1731>
    a714:	8b 85 a8 df ff ff    	mov    -0x2058(%rbp),%eax
    a71a:	48 98                	cltq   
    a71c:	48 8d 95 c0 e0 ff ff 	lea    -0x1f40(%rbp),%rdx
    a723:	48 89 94 c5 70 f0 ff 	mov    %rdx,-0xf90(%rbp,%rax,8)
    a72a:	ff 
    a72b:	83 85 a8 df ff ff 01 	addl   $0x1,-0x2058(%rbp)
    a732:	83 bd a8 df ff ff 07 	cmpl   $0x7,-0x2058(%rbp)
    a739:	7e d9                	jle    a714 <func_86+0x1713>
    a73b:	48 c7 05 22 aa 00 00 	movq   $0x0,0xaa22(%rip)        # 15168 <g_133>
    a742:	00 00 00 00 
    a746:	eb 1e                	jmp    a766 <func_86+0x1765>
    a748:	48 8b 05 19 aa 00 00 	mov    0xaa19(%rip),%rax        # 15168 <g_133>
    a74f:	c6 44 05 c1 1f       	movb   $0x1f,-0x3f(%rbp,%rax,1)
    a754:	48 8b 05 0d aa 00 00 	mov    0xaa0d(%rip),%rax        # 15168 <g_133>
    a75b:	48 83 c0 01          	add    $0x1,%rax
    a75f:	48 89 05 02 aa 00 00 	mov    %rax,0xaa02(%rip)        # 15168 <g_133>
    a766:	48 8b 05 fb a9 00 00 	mov    0xa9fb(%rip),%rax        # 15168 <g_133>
    a76d:	48 83 f8 02          	cmp    $0x2,%rax
    a771:	7e d5                	jle    a748 <func_86+0x1747>
    a773:	48 8b 05 66 9e 00 00 	mov    0x9e66(%rip),%rax        # 145e0 <g_474>
    a77a:	48 89 05 5f 9e 00 00 	mov    %rax,0x9e5f(%rip)        # 145e0 <g_474>
    a781:	0f b7 05 54 8a 00 00 	movzwl 0x8a54(%rip),%eax        # 131dc <g_232>
    a788:	48 0f bf d8          	movswq %ax,%rbx
    a78c:	8b 85 fc df ff ff    	mov    -0x2004(%rbp),%eax
    a792:	0f b6 d0             	movzbl %al,%edx
    a795:	0f b7 05 68 89 00 00 	movzwl 0x8968(%rip),%eax        # 13104 <g_103>
    a79c:	0f b6 c0             	movzbl %al,%eax
    a79f:	89 d6                	mov    %edx,%esi
    a7a1:	89 c7                	mov    %eax,%edi
    a7a3:	e8 06 b4 ff ff       	callq  5bae <safe_mod_func_uint8_t_u_u>
    a7a8:	84 c0                	test   %al,%al
    a7aa:	0f 85 91 00 00 00    	jne    a841 <func_86+0x1840>
    a7b0:	44 0f b6 a5 1c df ff 	movzbl -0x20e4(%rbp),%r12d
    a7b7:	ff 
    a7b8:	44 0f b6 ad 1c df ff 	movzbl -0x20e4(%rbp),%r13d
    a7bf:	ff 
    a7c0:	0f b6 85 1c df ff ff 	movzbl -0x20e4(%rbp),%eax
    a7c7:	be 01 00 00 00       	mov    $0x1,%esi
    a7cc:	89 c7                	mov    %eax,%edi
    a7ce:	e8 eb b4 ff ff       	callq  5cbe <safe_rshift_func_uint8_t_u_u>
    a7d3:	22 85 1c df ff ff    	and    -0x20e4(%rbp),%al
    a7d9:	0f b6 d0             	movzbl %al,%edx
    a7dc:	48 8b 05 ed 9d 00 00 	mov    0x9ded(%rip),%rax        # 145d0 <g_383>
    a7e3:	0f b7 00             	movzwl (%rax),%eax
    a7e6:	98                   	cwtl   
    a7e7:	39 c2                	cmp    %eax,%edx
    a7e9:	0f 9f c0             	setg   %al
    a7ec:	0f b6 c0             	movzbl %al,%eax
    a7ef:	89 85 60 df ff ff    	mov    %eax,-0x20a0(%rbp)
    a7f5:	8b 85 60 df ff ff    	mov    -0x20a0(%rbp),%eax
    a7fb:	98                   	cwtl   
    a7fc:	be ed 37 00 00       	mov    $0x37ed,%esi
    a801:	89 c7                	mov    %eax,%edi
    a803:	e8 ed ab ff ff       	callq  53f5 <safe_mul_func_int16_t_s_s>
    a808:	0f b6 c0             	movzbl %al,%eax
    a80b:	44 89 ee             	mov    %r13d,%esi
    a80e:	89 c7                	mov    %eax,%edi
    a810:	e8 37 b4 ff ff       	callq  5c4c <safe_lshift_func_uint8_t_u_u>
    a815:	0f b6 c0             	movzbl %al,%eax
    a818:	44 89 e6             	mov    %r12d,%esi
    a81b:	89 c7                	mov    %eax,%edi
    a81d:	e8 3a b5 ff ff       	callq  5d5c <safe_mod_func_uint16_t_u_u>
    a822:	48 8b 05 87 9d 00 00 	mov    0x9d87(%rip),%rax        # 145b0 <g_162>
    a829:	8b 00                	mov    (%rax),%eax
    a82b:	be 00 00 00 00       	mov    $0x0,%esi
    a830:	89 c7                	mov    %eax,%edi
    a832:	e8 f5 e6 ff ff       	callq  8f2c <func_43>
    a837:	48 8b 95 88 e1 ff ff 	mov    -0x1e78(%rbp),%rdx
    a83e:	48 89 02             	mov    %rax,(%rdx)
    a841:	48 8b 85 28 df ff ff 	mov    -0x20d8(%rbp),%rax
    a848:	8b 00                	mov    (%rax),%eax
    a84a:	85 c0                	test   %eax,%eax
    a84c:	74 07                	je     a855 <func_86+0x1854>
    a84e:	b8 01 00 00 00       	mov    $0x1,%eax
    a853:	eb 05                	jmp    a85a <func_86+0x1859>
    a855:	b8 00 00 00 00       	mov    $0x0,%eax
    a85a:	88 05 ac 88 00 00    	mov    %al,0x88ac(%rip)        # 1310c <g_132>
    a860:	0f b6 15 a5 88 00 00 	movzbl 0x88a5(%rip),%edx        # 1310c <g_132>
    a867:	48 8b 85 90 e1 ff ff 	mov    -0x1e70(%rbp),%rax
    a86e:	88 10                	mov    %dl,(%rax)
    a870:	48 8b 85 90 e1 ff ff 	mov    -0x1e70(%rbp),%rax
    a877:	0f b6 00             	movzbl (%rax),%eax
    a87a:	0f be d0             	movsbl %al,%edx
    a87d:	8b 85 9c df ff ff    	mov    -0x2064(%rbp),%eax
    a883:	48 98                	cltq   
    a885:	0f b6 44 05 c1       	movzbl -0x3f(%rbp,%rax,1),%eax
    a88a:	0f be c0             	movsbl %al,%eax
    a88d:	89 d6                	mov    %edx,%esi
    a88f:	89 c7                	mov    %eax,%edi
    a891:	e8 7c a9 ff ff       	callq  5212 <safe_mul_func_int8_t_s_s>
    a896:	48 8b 85 80 e1 ff ff 	mov    -0x1e80(%rbp),%rax
    a89d:	48 8d 15 14 9d 00 00 	lea    0x9d14(%rip),%rdx        # 145b8 <g_256>
    a8a4:	48 89 10             	mov    %rdx,(%rax)
    a8a7:	48 8b 85 80 e1 ff ff 	mov    -0x1e80(%rbp),%rax
    a8ae:	48 8b 00             	mov    (%rax),%rax
    a8b1:	48 8d 15 00 9d 00 00 	lea    0x9d00(%rip),%rdx        # 145b8 <g_256>
    a8b8:	48 39 d0             	cmp    %rdx,%rax
    a8bb:	0f 95 c0             	setne  %al
    a8be:	0f b6 c0             	movzbl %al,%eax
    a8c1:	48 89 de             	mov    %rbx,%rsi
    a8c4:	48 89 c7             	mov    %rax,%rdi
    a8c7:	e8 62 b7 ff ff       	callq  602e <safe_add_func_uint64_t_u_u>
    a8cc:	8b 85 fc df ff ff    	mov    -0x2004(%rbp),%eax
    a8d2:	c1 e8 1f             	shr    $0x1f,%eax
    a8d5:	0f b6 d0             	movzbl %al,%edx
    a8d8:	48 8b 85 98 e1 ff ff 	mov    -0x1e68(%rbp),%rax
    a8df:	0f b7 00             	movzwl (%rax),%eax
    a8e2:	89 c1                	mov    %eax,%ecx
    a8e4:	89 d0                	mov    %edx,%eax
    a8e6:	31 c8                	xor    %ecx,%eax
    a8e8:	89 c2                	mov    %eax,%edx
    a8ea:	48 8b 85 98 e1 ff ff 	mov    -0x1e68(%rbp),%rax
    a8f1:	66 89 10             	mov    %dx,(%rax)
    a8f4:	48 8b 85 98 e1 ff ff 	mov    -0x1e68(%rbp),%rax
    a8fb:	0f b7 00             	movzwl (%rax),%eax
    a8fe:	0f b7 c0             	movzwl %ax,%eax
    a901:	be 05 00 00 00       	mov    $0x5,%esi
    a906:	89 c7                	mov    %eax,%edi
    a908:	e8 f9 b4 ff ff       	callq  5e06 <safe_lshift_func_uint16_t_u_u>
    a90d:	0f b7 d0             	movzwl %ax,%edx
    a910:	48 8b 05 b9 88 00 00 	mov    0x88b9(%rip),%rax        # 131d0 <g_206>
    a917:	48 39 c2             	cmp    %rax,%rdx
    a91a:	0f 97 c0             	seta   %al
    a91d:	0f b6 d0             	movzbl %al,%edx
    a920:	48 8b 85 c0 e0 ff ff 	mov    -0x1f40(%rbp),%rax
    a927:	48 21 c2             	and    %rax,%rdx
    a92a:	0f b6 85 1c df ff ff 	movzbl -0x20e4(%rbp),%eax
    a931:	48 21 d0             	and    %rdx,%rax
    a934:	89 c2                	mov    %eax,%edx
    a936:	8b 05 a4 88 00 00    	mov    0x88a4(%rip),%eax        # 131e0 <g_240>
    a93c:	31 d0                	xor    %edx,%eax
    a93e:	89 05 9c 88 00 00    	mov    %eax,0x889c(%rip)        # 131e0 <g_240>
    a944:	48 8b 05 65 9c 00 00 	mov    0x9c65(%rip),%rax        # 145b0 <g_162>
    a94b:	8b 15 8f 88 00 00    	mov    0x888f(%rip),%edx        # 131e0 <g_240>
    a951:	89 10                	mov    %edx,(%rax)
    a953:	c7 05 ab 87 00 00 00 	movl   $0x0,0x87ab(%rip)        # 13108 <g_120>
    a95a:	00 00 00 
    a95d:	eb 38                	jmp    a997 <func_86+0x1996>
    a95f:	c7 85 00 e0 ff ff 01 	movl   $0x1,-0x2000(%rbp)
    a966:	00 00 00 
    a969:	48 8d 05 8c 87 00 00 	lea    0x878c(%rip),%rax        # 130fc <g_75>
    a970:	48 89 85 a8 e1 ff ff 	mov    %rax,-0x1e58(%rbp)
    a977:	c7 85 04 e0 ff ff ff 	movl   $0xffffffff,-0x1ffc(%rbp)
    a97e:	ff ff ff 
    a981:	c6 85 37 df ff ff fa 	movb   $0xfa,-0x20c9(%rbp)
    a988:	8b 05 7a 87 00 00    	mov    0x877a(%rip),%eax        # 13108 <g_120>
    a98e:	83 c0 01             	add    $0x1,%eax
    a991:	89 05 71 87 00 00    	mov    %eax,0x8771(%rip)        # 13108 <g_120>
    a997:	8b 05 6b 87 00 00    	mov    0x876b(%rip),%eax        # 13108 <g_120>
    a99d:	83 f8 03             	cmp    $0x3,%eax
    a9a0:	76 bd                	jbe    a95f <func_86+0x195e>
    a9a2:	83 85 9c df ff ff 01 	addl   $0x1,-0x2064(%rbp)
    a9a9:	83 bd 9c df ff ff 02 	cmpl   $0x2,-0x2064(%rbp)
    a9b0:	0f 8e eb fa ff ff    	jle    a4a1 <func_86+0x14a0>
    a9b6:	eb 01                	jmp    a9b9 <func_86+0x19b8>
    a9b8:	90                   	nop
    a9b9:	c6 85 1c df ff ff ee 	movb   $0xee,-0x20e4(%rbp)
    a9c0:	eb 41                	jmp    aa03 <func_86+0x1a02>
    a9c2:	0f b6 85 1c df ff ff 	movzbl -0x20e4(%rbp),%eax
    a9c9:	48 89 c6             	mov    %rax,%rsi
    a9cc:	bf 00 00 00 00       	mov    $0x0,%edi
    a9d1:	e8 75 b6 ff ff       	callq  604b <safe_sub_func_uint64_t_u_u>
    a9d6:	48 8b 15 db 9b 00 00 	mov    0x9bdb(%rip),%rdx        # 145b8 <g_256>
    a9dd:	8b 12                	mov    (%rdx),%edx
    a9df:	21 c2                	and    %eax,%edx
    a9e1:	48 8b 05 d0 9b 00 00 	mov    0x9bd0(%rip),%rax        # 145b8 <g_256>
    a9e8:	89 10                	mov    %edx,(%rax)
    a9ea:	0f b6 85 1c df ff ff 	movzbl -0x20e4(%rbp),%eax
    a9f1:	be 06 00 00 00       	mov    $0x6,%esi
    a9f6:	89 c7                	mov    %eax,%edi
    a9f8:	e8 bb b4 ff ff       	callq  5eb8 <safe_add_func_uint32_t_u_u>
    a9fd:	88 85 1c df ff ff    	mov    %al,-0x20e4(%rbp)
    aa03:	80 bd 1c df ff ff 2e 	cmpb   $0x2e,-0x20e4(%rbp)
    aa0a:	76 b6                	jbe    a9c2 <func_86+0x19c1>
    aa0c:	c7 05 c2 87 00 00 e7 	movl   $0xffffffe7,0x87c2(%rip)        # 131d8 <g_207>
    aa13:	ff ff ff 
    aa16:	e9 26 38 00 00       	jmpq   e241 <func_86+0x5240>
    aa1b:	48 8d 05 46 a7 00 00 	lea    0xa746(%rip),%rax        # 15168 <g_133>
    aa22:	48 89 85 a8 e0 ff ff 	mov    %rax,-0x1f58(%rbp)
    aa29:	48 8d 85 a8 e0 ff ff 	lea    -0x1f58(%rbp),%rax
    aa30:	48 89 85 f0 e3 ff ff 	mov    %rax,-0x1c10(%rbp)
    aa37:	48 8d 85 a8 e0 ff ff 	lea    -0x1f58(%rbp),%rax
    aa3e:	48 89 85 f8 e3 ff ff 	mov    %rax,-0x1c08(%rbp)
    aa45:	48 8d 85 54 df ff ff 	lea    -0x20ac(%rbp),%rax
    aa4c:	48 89 85 00 e4 ff ff 	mov    %rax,-0x1c00(%rbp)
    aa53:	48 8d 85 54 df ff ff 	lea    -0x20ac(%rbp),%rax
    aa5a:	48 89 85 08 e4 ff ff 	mov    %rax,-0x1bf8(%rbp)
    aa61:	48 8d 85 54 df ff ff 	lea    -0x20ac(%rbp),%rax
    aa68:	48 89 85 10 e4 ff ff 	mov    %rax,-0x1bf0(%rbp)
    aa6f:	48 8d 85 54 df ff ff 	lea    -0x20ac(%rbp),%rax
    aa76:	48 89 85 18 e4 ff ff 	mov    %rax,-0x1be8(%rbp)
    aa7d:	48 8d 85 00 e4 ff ff 	lea    -0x1c00(%rbp),%rax
    aa84:	48 89 85 b0 e0 ff ff 	mov    %rax,-0x1f50(%rbp)
    aa8b:	48 8d 85 b0 e0 ff ff 	lea    -0x1f50(%rbp),%rax
    aa92:	48 89 85 b8 e0 ff ff 	mov    %rax,-0x1f48(%rbp)
    aa99:	c7 85 6c df ff ff 87 	movl   $0xd9813287,-0x2094(%rbp)
    aaa0:	32 81 d9 
    aaa3:	c7 85 10 e0 ff ff ff 	movl   $0xffffffff,-0x1ff0(%rbp)
    aaaa:	ff ff ff 
    aaad:	48 8d 05 40 86 00 00 	lea    0x8640(%rip),%rax        # 130f4 <g_56>
    aab4:	48 89 85 88 e2 ff ff 	mov    %rax,-0x1d78(%rbp)
    aabb:	66 c7 85 3e df ff ff 	movw   $0xffff,-0x20c2(%rbp)
    aac2:	ff ff 
    aac4:	c7 85 ac df ff ff 01 	movl   $0x1,-0x2054(%rbp)
    aacb:	00 00 00 
    aace:	c7 85 b0 df ff ff 00 	movl   $0x0,-0x2050(%rbp)
    aad5:	00 00 00 
    aad8:	c7 85 b4 df ff ff 53 	movl   $0x9e7c4a53,-0x204c(%rbp)
    aadf:	4a 7c 9e 
    aae2:	c7 85 14 e0 ff ff 25 	movl   $0xc7f46d25,-0x1fec(%rbp)
    aae9:	6d f4 c7 
    aaec:	c7 85 18 e0 ff ff 59 	movl   $0xaf2e559,-0x1fe8(%rbp)
    aaf3:	e5 f2 0a 
    aaf6:	66 c7 85 50 df ff ff 	movw   $0x1576,-0x20b0(%rbp)
    aafd:	76 15 
    aaff:	c7 85 70 df ff ff a3 	movl   $0xecc303a3,-0x2090(%rbp)
    ab06:	03 c3 ec 
    ab09:	48 8d 85 f0 e8 ff ff 	lea    -0x1710(%rbp),%rax
    ab10:	48 8d 15 e9 49 00 00 	lea    0x49e9(%rip),%rdx        # f500 <g_634+0x4a8>
    ab17:	b9 f0 00 00 00       	mov    $0xf0,%ecx
    ab1c:	48 89 c7             	mov    %rax,%rdi
    ab1f:	48 89 d6             	mov    %rdx,%rsi
    ab22:	f3 48 a5             	rep movsq %ds:(%rsi),%es:(%rdi)
    ab25:	48 8d 85 70 f0 ff ff 	lea    -0xf90(%rbp),%rax
    ab2c:	48 8d 15 ed 92 00 00 	lea    0x92ed(%rip),%rdx        # 13e20 <g_1833+0x890>
    ab33:	b9 f0 00 00 00       	mov    $0xf0,%ecx
    ab38:	48 89 c7             	mov    %rax,%rdi
    ab3b:	48 89 d6             	mov    %rdx,%rsi
    ab3e:	f3 48 a5             	rep movsq %ds:(%rsi),%es:(%rdi)
    ab41:	c6 85 32 df ff ff 00 	movb   $0x0,-0x20ce(%rbp)
    ab48:	48 8d 05 f9 9a 00 00 	lea    0x9af9(%rip),%rax        # 14648 <g_638+0x8>
    ab4f:	48 89 85 90 e2 ff ff 	mov    %rax,-0x1d70(%rbp)
    ab56:	48 c7 85 98 e2 ff ff 	movq   $0x0,-0x1d68(%rbp)
    ab5d:	00 00 00 00 
    ab61:	48 c7 85 a0 e2 ff ff 	movq   $0x0,-0x1d60(%rbp)
    ab68:	00 00 00 00 
    ab6c:	c7 85 b8 df ff ff 00 	movl   $0x0,-0x2048(%rbp)
    ab73:	00 00 00 
    ab76:	eb 4c                	jmp    abc4 <func_86+0x1bc3>
    ab78:	c7 85 bc df ff ff 00 	movl   $0x0,-0x2044(%rbp)
    ab7f:	00 00 00 
    ab82:	eb 30                	jmp    abb4 <func_86+0x1bb3>
    ab84:	8b 85 bc df ff ff    	mov    -0x2044(%rbp),%eax
    ab8a:	48 63 c8             	movslq %eax,%rcx
    ab8d:	8b 85 b8 df ff ff    	mov    -0x2048(%rbp),%eax
    ab93:	48 63 d0             	movslq %eax,%rdx
    ab96:	48 89 d0             	mov    %rdx,%rax
    ab99:	48 01 c0             	add    %rax,%rax
    ab9c:	48 01 d0             	add    %rdx,%rax
    ab9f:	48 01 c8             	add    %rcx,%rax
    aba2:	c7 84 85 e4 e3 ff ff 	movl   $0x5,-0x1c1c(%rbp,%rax,4)
    aba9:	05 00 00 00 
    abad:	83 85 bc df ff ff 01 	addl   $0x1,-0x2044(%rbp)
    abb4:	83 bd bc df ff ff 02 	cmpl   $0x2,-0x2044(%rbp)
    abbb:	7e c7                	jle    ab84 <func_86+0x1b83>
    abbd:	83 85 b8 df ff ff 01 	addl   $0x1,-0x2048(%rbp)
    abc4:	83 bd b8 df ff ff 00 	cmpl   $0x0,-0x2048(%rbp)
    abcb:	7e ab                	jle    ab78 <func_86+0x1b77>
    abcd:	c7 85 b8 df ff ff 00 	movl   $0x0,-0x2048(%rbp)
    abd4:	00 00 00 
    abd7:	eb 1a                	jmp    abf3 <func_86+0x1bf2>
    abd9:	8b 85 b8 df ff ff    	mov    -0x2048(%rbp),%eax
    abdf:	48 98                	cltq   
    abe1:	c7 84 85 cc e3 ff ff 	movl   $0xd0eb1292,-0x1c34(%rbp,%rax,4)
    abe8:	92 12 eb d0 
    abec:	83 85 b8 df ff ff 01 	addl   $0x1,-0x2048(%rbp)
    abf3:	83 bd b8 df ff ff 01 	cmpl   $0x1,-0x2048(%rbp)
    abfa:	7e dd                	jle    abd9 <func_86+0x1bd8>
    abfc:	48 8b 05 c5 99 00 00 	mov    0x99c5(%rip),%rax        # 145c8 <g_286>
    ac03:	48 8b 00             	mov    (%rax),%rax
    ac06:	8b 00                	mov    (%rax),%eax
    ac08:	85 c0                	test   %eax,%eax
    ac0a:	0f 84 7b 1e 00 00    	je     ca8b <func_86+0x3a8a>
    ac10:	c7 45 c4 ff ff ff ff 	movl   $0xffffffff,-0x3c(%rbp)
    ac17:	48 8d 05 5a 88 00 00 	lea    0x885a(%rip),%rax        # 13478 <g_595+0x18>
    ac1e:	48 89 85 e8 e0 ff ff 	mov    %rax,-0x1f18(%rbp)
    ac25:	48 8d 05 cc 85 00 00 	lea    0x85cc(%rip),%rax        # 131f8 <g_416>
    ac2c:	48 89 85 a8 e2 ff ff 	mov    %rax,-0x1d58(%rbp)
    ac33:	c7 85 1c e0 ff ff 04 	movl   $0x4,-0x1fe4(%rbp)
    ac3a:	00 00 00 
    ac3d:	c7 85 20 e0 ff ff fc 	movl   $0xfffffffc,-0x1fe0(%rbp)
    ac44:	ff ff ff 
    ac47:	c7 85 24 e0 ff ff 08 	movl   $0x8,-0x1fdc(%rbp)
    ac4e:	00 00 00 
    ac51:	c7 85 28 e0 ff ff fa 	movl   $0xfffffffa,-0x1fd8(%rbp)
    ac58:	ff ff ff 
    ac5b:	c7 85 2c e0 ff ff c0 	movl   $0x4240ccc0,-0x1fd4(%rbp)
    ac62:	cc 40 42 
    ac65:	c7 85 30 e0 ff ff 85 	movl   $0x4e20a385,-0x1fd0(%rbp)
    ac6c:	a3 20 4e 
    ac6f:	c7 85 34 e0 ff ff 83 	movl   $0x274d7983,-0x1fcc(%rbp)
    ac76:	79 4d 27 
    ac79:	c6 85 d0 e0 ff ff 01 	movb   $0x1,-0x1f30(%rbp)
    ac80:	48 8d 85 90 e0 ff ff 	lea    -0x1f70(%rbp),%rax
    ac87:	48 89 85 b0 e2 ff ff 	mov    %rax,-0x1d50(%rbp)
    ac8e:	c7 85 5c df ff ff 00 	movl   $0x0,-0x20a4(%rbp)
    ac95:	00 00 00 
    ac98:	e9 05 03 00 00       	jmpq   afa2 <func_86+0x1fa1>
    ac9d:	c7 85 c0 df ff ff 01 	movl   $0x1,-0x2040(%rbp)
    aca4:	00 00 00 
    aca7:	c7 05 d7 84 00 00 00 	movl   $0x0,0x84d7(%rip)        # 13188 <g_149>
    acae:	00 00 00 
    acb1:	eb 29                	jmp    acdc <func_86+0x1cdb>
    acb3:	48 8b 05 7e 99 00 00 	mov    0x997e(%rip),%rax        # 14638 <g_613>
    acba:	48 8b 95 f8 e3 ff ff 	mov    -0x1c08(%rbp),%rdx
    acc1:	48 89 10             	mov    %rdx,(%rax)
    acc4:	8b 05 be 84 00 00    	mov    0x84be(%rip),%eax        # 13188 <g_149>
    acca:	be 08 00 00 00       	mov    $0x8,%esi
    accf:	89 c7                	mov    %eax,%edi
    acd1:	e8 e2 b1 ff ff       	callq  5eb8 <safe_add_func_uint32_t_u_u>
    acd6:	89 05 ac 84 00 00    	mov    %eax,0x84ac(%rip)        # 13188 <g_149>
    acdc:	8b 05 a6 84 00 00    	mov    0x84a6(%rip),%eax        # 13188 <g_149>
    ace2:	83 f8 2a             	cmp    $0x2a,%eax
    ace5:	76 cc                	jbe    acb3 <func_86+0x1cb2>
    ace7:	c6 85 33 df ff ff 00 	movb   $0x0,-0x20cd(%rbp)
    acee:	e9 89 02 00 00       	jmpq   af7c <func_86+0x1f7b>
    acf3:	48 8d 85 68 df ff ff 	lea    -0x2098(%rbp),%rax
    acfa:	48 89 85 e0 e0 ff ff 	mov    %rax,-0x1f20(%rbp)
    ad01:	48 8d 05 b0 98 00 00 	lea    0x98b0(%rip),%rax        # 145b8 <g_256>
    ad08:	48 89 85 f0 f7 ff ff 	mov    %rax,-0x810(%rbp)
    ad0f:	48 8d 05 a2 98 00 00 	lea    0x98a2(%rip),%rax        # 145b8 <g_256>
    ad16:	48 89 85 f8 f7 ff ff 	mov    %rax,-0x808(%rbp)
    ad1d:	48 8d 05 94 98 00 00 	lea    0x9894(%rip),%rax        # 145b8 <g_256>
    ad24:	48 89 85 00 f8 ff ff 	mov    %rax,-0x800(%rbp)
    ad2b:	48 8d 05 86 98 00 00 	lea    0x9886(%rip),%rax        # 145b8 <g_256>
    ad32:	48 89 85 08 f8 ff ff 	mov    %rax,-0x7f8(%rbp)
    ad39:	48 8d 05 78 98 00 00 	lea    0x9878(%rip),%rax        # 145b8 <g_256>
    ad40:	48 89 85 10 f8 ff ff 	mov    %rax,-0x7f0(%rbp)
    ad47:	48 8d 85 e0 e0 ff ff 	lea    -0x1f20(%rbp),%rax
    ad4e:	48 89 85 18 f8 ff ff 	mov    %rax,-0x7e8(%rbp)
    ad55:	48 c7 85 20 f8 ff ff 	movq   $0x0,-0x7e0(%rbp)
    ad5c:	00 00 00 00 
    ad60:	48 c7 85 28 f8 ff ff 	movq   $0x0,-0x7d8(%rbp)
    ad67:	00 00 00 00 
    ad6b:	48 8d 85 e0 e0 ff ff 	lea    -0x1f20(%rbp),%rax
    ad72:	48 89 85 30 f8 ff ff 	mov    %rax,-0x7d0(%rbp)
    ad79:	48 8d 85 e0 e0 ff ff 	lea    -0x1f20(%rbp),%rax
    ad80:	48 89 85 38 f8 ff ff 	mov    %rax,-0x7c8(%rbp)
    ad87:	48 8d 85 e0 e0 ff ff 	lea    -0x1f20(%rbp),%rax
    ad8e:	48 89 85 40 f8 ff ff 	mov    %rax,-0x7c0(%rbp)
    ad95:	48 8d 05 1c 98 00 00 	lea    0x981c(%rip),%rax        # 145b8 <g_256>
    ad9c:	48 89 85 48 f8 ff ff 	mov    %rax,-0x7b8(%rbp)
    ada3:	48 8d 85 e0 e0 ff ff 	lea    -0x1f20(%rbp),%rax
    adaa:	48 89 85 50 f8 ff ff 	mov    %rax,-0x7b0(%rbp)
    adb1:	48 8d 05 00 98 00 00 	lea    0x9800(%rip),%rax        # 145b8 <g_256>
    adb8:	48 89 85 58 f8 ff ff 	mov    %rax,-0x7a8(%rbp)
    adbf:	48 8d 85 e0 e0 ff ff 	lea    -0x1f20(%rbp),%rax
    adc6:	48 89 85 60 f8 ff ff 	mov    %rax,-0x7a0(%rbp)
    adcd:	48 8d 85 e0 e0 ff ff 	lea    -0x1f20(%rbp),%rax
    add4:	48 89 85 68 f8 ff ff 	mov    %rax,-0x798(%rbp)
    addb:	48 8d 85 e0 e0 ff ff 	lea    -0x1f20(%rbp),%rax
    ade2:	48 89 85 70 f8 ff ff 	mov    %rax,-0x790(%rbp)
    ade9:	48 c7 85 78 f8 ff ff 	movq   $0x0,-0x788(%rbp)
    adf0:	00 00 00 00 
    adf4:	48 c7 85 80 f8 ff ff 	movq   $0x0,-0x780(%rbp)
    adfb:	00 00 00 00 
    adff:	48 8d 85 e0 e0 ff ff 	lea    -0x1f20(%rbp),%rax
    ae06:	48 89 85 88 f8 ff ff 	mov    %rax,-0x778(%rbp)
    ae0d:	48 8d 85 f0 f7 ff ff 	lea    -0x810(%rbp),%rax
    ae14:	48 83 c0 28          	add    $0x28,%rax
    ae18:	48 89 85 60 e3 ff ff 	mov    %rax,-0x1ca0(%rbp)
    ae1f:	8b 9d 64 df ff ff    	mov    -0x209c(%rbp),%ebx
    ae25:	0f be 85 33 df ff ff 	movsbl -0x20cd(%rbp),%eax
    ae2c:	48 98                	cltq   
    ae2e:	48 8d 14 c5 00 00 00 	lea    0x0(,%rax,8),%rdx
    ae35:	00 
    ae36:	48 8d 05 73 83 00 00 	lea    0x8373(%rip),%rax        # 131b0 <g_168>
    ae3d:	48 8b 04 02          	mov    (%rdx,%rax,1),%rax
    ae41:	48 8b 85 b8 e0 ff ff 	mov    -0x1f48(%rbp),%rax
    ae48:	48 8b 00             	mov    (%rax),%rax
    ae4b:	48 8b 00             	mov    (%rax),%rax
    ae4e:	8b 00                	mov    (%rax),%eax
    ae50:	85 c0                	test   %eax,%eax
    ae52:	75 4f                	jne    aea3 <func_86+0x1ea2>
    ae54:	be 00 00 00 00       	mov    $0x0,%esi
    ae59:	bf 9c 5d 00 00       	mov    $0x5d9c,%edi
    ae5e:	e8 9c ae ff ff       	callq  5cff <safe_add_func_uint16_t_u_u>
    ae63:	48 8b 05 fe a2 00 00 	mov    0xa2fe(%rip),%rax        # 15168 <g_133>
    ae6a:	48 83 c8 01          	or     $0x1,%rax
    ae6e:	48 89 c2             	mov    %rax,%rdx
    ae71:	48 8b 85 e0 e0 ff ff 	mov    -0x1f20(%rbp),%rax
    ae78:	8b 00                	mov    (%rax),%eax
    ae7a:	89 c1                	mov    %eax,%ecx
    ae7c:	89 d0                	mov    %edx,%eax
    ae7e:	09 c1                	or     %eax,%ecx
    ae80:	89 ca                	mov    %ecx,%edx
    ae82:	48 8b 85 e0 e0 ff ff 	mov    -0x1f20(%rbp),%rax
    ae89:	89 10                	mov    %edx,(%rax)
    ae8b:	8b 00                	mov    (%rax),%eax
    ae8d:	85 c0                	test   %eax,%eax
    ae8f:	75 12                	jne    aea3 <func_86+0x1ea2>
    ae91:	48 8b 05 58 97 00 00 	mov    0x9758(%rip),%rax        # 145f0 <g_495>
    ae98:	48 8b 00             	mov    (%rax),%rax
    ae9b:	0f b7 00             	movzwl (%rax),%eax
    ae9e:	66 85 c0             	test   %ax,%ax
    aea1:	74 07                	je     aeaa <func_86+0x1ea9>
    aea3:	ba 01 00 00 00       	mov    $0x1,%edx
    aea8:	eb 05                	jmp    aeaf <func_86+0x1eae>
    aeaa:	ba 00 00 00 00       	mov    $0x0,%edx
    aeaf:	8b 05 c3 85 00 00    	mov    0x85c3(%rip),%eax        # 13478 <g_595+0x18>
    aeb5:	21 d0                	and    %edx,%eax
    aeb7:	89 05 bb 85 00 00    	mov    %eax,0x85bb(%rip)        # 13478 <g_595+0x18>
    aebd:	8b 15 b5 85 00 00    	mov    0x85b5(%rip),%edx        # 13478 <g_595+0x18>
    aec3:	0f b6 85 1c df ff ff 	movzbl -0x20e4(%rbp),%eax
    aeca:	09 d0                	or     %edx,%eax
    aecc:	31 85 c0 df ff ff    	xor    %eax,-0x2040(%rbp)
    aed2:	8b 85 c0 df ff ff    	mov    -0x2040(%rbp),%eax
    aed8:	89 c6                	mov    %eax,%esi
    aeda:	bf 00 00 00 00       	mov    $0x0,%edi
    aedf:	e8 e8 a7 ff ff       	callq  56cc <safe_mod_func_int32_t_s_s>
    aee4:	85 c0                	test   %eax,%eax
    aee6:	74 06                	je     aeee <func_86+0x1eed>
    aee8:	0f b6 45 c4          	movzbl -0x3c(%rbp),%eax
    aeec:	84 c0                	test   %al,%al
    aeee:	0f be 85 33 df ff ff 	movsbl -0x20cd(%rbp),%eax
    aef5:	48 98                	cltq   
    aef7:	48 8d 14 c5 00 00 00 	lea    0x0(,%rax,8),%rdx
    aefe:	00 
    aeff:	48 8d 05 aa 82 00 00 	lea    0x82aa(%rip),%rax        # 131b0 <g_168>
    af06:	48 8b 14 02          	mov    (%rdx,%rax,1),%rdx
    af0a:	0f b6 45 c7          	movzbl -0x39(%rbp),%eax
    af0e:	0f be c8             	movsbl %al,%ecx
    af11:	48 8b 85 b8 e0 ff ff 	mov    -0x1f48(%rbp),%rax
    af18:	48 39 85 60 e3 ff ff 	cmp    %rax,-0x1ca0(%rbp)
    af1f:	0f 94 c0             	sete   %al
    af22:	0f b6 c0             	movzbl %al,%eax
    af25:	31 c8                	xor    %ecx,%eax
    af27:	48 98                	cltq   
    af29:	48 21 d0             	and    %rdx,%rax
    af2c:	48 85 c0             	test   %rax,%rax
    af2f:	8b 05 b7 81 00 00    	mov    0x81b7(%rip),%eax        # 130ec <g_47+0x4>
    af35:	85 c0                	test   %eax,%eax
    af37:	74 11                	je     af4a <func_86+0x1f49>
    af39:	8b 05 c9 81 00 00    	mov    0x81c9(%rip),%eax        # 13108 <g_120>
    af3f:	85 c0                	test   %eax,%eax
    af41:	74 07                	je     af4a <func_86+0x1f49>
    af43:	b8 01 00 00 00       	mov    $0x1,%eax
    af48:	eb 05                	jmp    af4f <func_86+0x1f4e>
    af4a:	b8 00 00 00 00       	mov    $0x0,%eax
    af4f:	0f b7 c0             	movzwl %ax,%eax
    af52:	89 de                	mov    %ebx,%esi
    af54:	89 c7                	mov    %eax,%edi
    af56:	e8 ed ae ff ff       	callq  5e48 <safe_rshift_func_uint16_t_u_s>
    af5b:	0f b7 d0             	movzwl %ax,%edx
    af5e:	8b 05 84 83 00 00    	mov    0x8384(%rip),%eax        # 132e8 <g_469>
    af64:	21 d0                	and    %edx,%eax
    af66:	89 05 7c 83 00 00    	mov    %eax,0x837c(%rip)        # 132e8 <g_469>
    af6c:	0f b6 85 33 df ff ff 	movzbl -0x20cd(%rbp),%eax
    af73:	83 c0 01             	add    $0x1,%eax
    af76:	88 85 33 df ff ff    	mov    %al,-0x20cd(%rbp)
    af7c:	80 bd 33 df ff ff 02 	cmpb   $0x2,-0x20cd(%rbp)
    af83:	0f 8e 6a fd ff ff    	jle    acf3 <func_86+0x1cf2>
    af89:	c7 85 6c df ff ff 00 	movl   $0x0,-0x2094(%rbp)
    af90:	00 00 00 
    af93:	8b 85 5c df ff ff    	mov    -0x20a4(%rbp),%eax
    af99:	83 e8 01             	sub    $0x1,%eax
    af9c:	89 85 5c df ff ff    	mov    %eax,-0x20a4(%rbp)
    afa2:	8b 85 5c df ff ff    	mov    -0x20a4(%rbp),%eax
    afa8:	83 f8 f0             	cmp    $0xfffffff0,%eax
    afab:	0f 8d ec fc ff ff    	jge    ac9d <func_86+0x1c9c>
    afb1:	48 8b 85 88 e0 ff ff 	mov    -0x1f78(%rbp),%rax
    afb8:	48 85 c0             	test   %rax,%rax
    afbb:	0f 95 c0             	setne  %al
    afbe:	0f b6 c0             	movzbl %al,%eax
    afc1:	48 8b 1d 00 96 00 00 	mov    0x9600(%rip),%rbx        # 145c8 <g_286>
    afc8:	48 8d 95 6c df ff ff 	lea    -0x2094(%rbp),%rdx
    afcf:	48 89 d6             	mov    %rdx,%rsi
    afd2:	89 c7                	mov    %eax,%edi
    afd4:	e8 53 df ff ff       	callq  8f2c <func_43>
    afd9:	48 89 03             	mov    %rax,(%rbx)
    afdc:	c6 05 11 81 00 00 00 	movb   $0x0,0x8111(%rip)        # 130f4 <g_56>
    afe3:	e9 92 1a 00 00       	jmpq   ca7a <func_86+0x3a79>
    afe8:	c7 85 60 e0 ff ff 35 	movl   $0x9edd9335,-0x1fa0(%rbp)
    afef:	93 dd 9e 
    aff2:	48 8d 05 6f a1 00 00 	lea    0xa16f(%rip),%rax        # 15168 <g_133>
    aff9:	48 89 85 f0 e2 ff ff 	mov    %rax,-0x1d10(%rbp)
    b000:	c7 85 64 e0 ff ff 01 	movl   $0x1,-0x1f9c(%rbp)
    b007:	00 00 00 
    b00a:	48 8d 85 30 e5 ff ff 	lea    -0x1ad0(%rbp),%rax
    b011:	48 8d 15 68 4c 00 00 	lea    0x4c68(%rip),%rdx        # fc80 <g_634+0xc28>
    b018:	b9 78 00 00 00       	mov    $0x78,%ecx
    b01d:	48 89 c7             	mov    %rax,%rdi
    b020:	48 89 d6             	mov    %rdx,%rsi
    b023:	f3 48 a5             	rep movsq %ds:(%rsi),%es:(%rdi)
    b026:	c7 85 68 e0 ff ff 06 	movl   $0x6,-0x1f98(%rbp)
    b02d:	00 00 00 
    b030:	c7 85 c4 df ff ff 00 	movl   $0x0,-0x203c(%rbp)
    b037:	00 00 00 
    b03a:	eb 45                	jmp    b081 <func_86+0x2080>
    b03c:	c7 85 c8 df ff ff 00 	movl   $0x0,-0x2038(%rbp)
    b043:	00 00 00 
    b046:	eb 29                	jmp    b071 <func_86+0x2070>
    b048:	8b 85 c8 df ff ff    	mov    -0x2038(%rbp),%eax
    b04e:	48 98                	cltq   
    b050:	8b 95 c4 df ff ff    	mov    -0x203c(%rbp),%edx
    b056:	48 63 d2             	movslq %edx,%rdx
    b059:	48 c1 e2 02          	shl    $0x2,%rdx
    b05d:	48 01 d0             	add    %rdx,%rax
    b060:	66 c7 84 45 50 e4 ff 	movw   $0xc524,-0x1bb0(%rbp,%rax,2)
    b067:	ff 24 c5 
    b06a:	83 85 c8 df ff ff 01 	addl   $0x1,-0x2038(%rbp)
    b071:	83 bd c8 df ff ff 03 	cmpl   $0x3,-0x2038(%rbp)
    b078:	7e ce                	jle    b048 <func_86+0x2047>
    b07a:	83 85 c4 df ff ff 01 	addl   $0x1,-0x203c(%rbp)
    b081:	83 bd c4 df ff ff 06 	cmpl   $0x6,-0x203c(%rbp)
    b088:	7e b2                	jle    b03c <func_86+0x203b>
    b08a:	c7 05 68 80 00 00 02 	movl   $0x2,0x8068(%rip)        # 130fc <g_75>
    b091:	00 00 00 
    b094:	e9 b5 05 00 00       	jmpq   b64e <func_86+0x264d>
    b099:	48 8d 05 b8 3f 00 00 	lea    0x3fb8(%rip),%rax        # f058 <g_634>
    b0a0:	48 89 85 38 e3 ff ff 	mov    %rax,-0x1cc8(%rbp)
    b0a7:	48 8d 05 c6 83 00 00 	lea    0x83c6(%rip),%rax        # 13474 <g_595+0x14>
    b0ae:	48 89 85 d8 e0 ff ff 	mov    %rax,-0x1f28(%rbp)
    b0b5:	48 c7 85 e0 e0 ff ff 	movq   $0x0,-0x1f20(%rbp)
    b0bc:	00 00 00 00 
    b0c0:	48 8d 85 e0 e0 ff ff 	lea    -0x1f20(%rbp),%rax
    b0c7:	48 89 85 40 e3 ff ff 	mov    %rax,-0x1cc0(%rbp)
    b0ce:	48 8d 85 d8 e0 ff ff 	lea    -0x1f28(%rbp),%rax
    b0d5:	48 89 85 48 e3 ff ff 	mov    %rax,-0x1cb8(%rbp)
    b0dc:	0f b6 05 11 80 00 00 	movzbl 0x8011(%rip),%eax        # 130f4 <g_56>
    b0e3:	0f be c0             	movsbl %al,%eax
    b0e6:	48 98                	cltq   
    b0e8:	48 8d 14 c5 00 00 00 	lea    0x0(,%rax,8),%rdx
    b0ef:	00 
    b0f0:	48 8d 05 b9 80 00 00 	lea    0x80b9(%rip),%rax        # 131b0 <g_168>
    b0f7:	48 8b 04 02          	mov    (%rdx,%rax,1),%rax
    b0fb:	48 8d 35 de 80 00 00 	lea    0x80de(%rip),%rsi        # 131e0 <g_240>
    b102:	89 c7                	mov    %eax,%edi
    b104:	e8 23 de ff ff       	callq  8f2c <func_43>
    b109:	48 89 85 38 e3 ff ff 	mov    %rax,-0x1cc8(%rbp)
    b110:	48 8b 85 38 e3 ff ff 	mov    -0x1cc8(%rbp),%rax
    b117:	48 89 85 e8 e0 ff ff 	mov    %rax,-0x1f18(%rbp)
    b11e:	66 c7 85 3c df ff ff 	movw   $0x0,-0x20c4(%rbp)
    b125:	00 00 
    b127:	eb 22                	jmp    b14b <func_86+0x214a>
    b129:	48 8b 05 60 95 00 00 	mov    0x9560(%rip),%rax        # 14690 <g_637>
    b130:	48 8d 15 59 a0 00 00 	lea    0xa059(%rip),%rdx        # 15190 <g_612>
    b137:	48 89 10             	mov    %rdx,(%rax)
    b13a:	0f b7 85 3c df ff ff 	movzwl -0x20c4(%rbp),%eax
    b141:	83 c0 01             	add    $0x1,%eax
    b144:	66 89 85 3c df ff ff 	mov    %ax,-0x20c4(%rbp)
    b14b:	0f b7 85 3c df ff ff 	movzwl -0x20c4(%rbp),%eax
    b152:	66 83 f8 03          	cmp    $0x3,%ax
    b156:	76 d1                	jbe    b129 <func_86+0x2128>
    b158:	0f b6 05 95 7f 00 00 	movzbl 0x7f95(%rip),%eax        # 130f4 <g_56>
    b15f:	0f be c0             	movsbl %al,%eax
    b162:	8d 50 05             	lea    0x5(%rax),%edx
    b165:	8b 05 91 7f 00 00    	mov    0x7f91(%rip),%eax        # 130fc <g_75>
    b16b:	83 c0 02             	add    $0x2,%eax
    b16e:	89 c1                	mov    %eax,%ecx
    b170:	48 63 d2             	movslq %edx,%rdx
    b173:	48 89 d0             	mov    %rdx,%rax
    b176:	48 c1 e0 02          	shl    $0x2,%rax
    b17a:	48 01 d0             	add    %rdx,%rax
    b17d:	48 01 c0             	add    %rax,%rax
    b180:	48 01 c8             	add    %rcx,%rax
    b183:	48 8d 14 85 00 00 00 	lea    0x0(,%rax,4),%rdx
    b18a:	00 
    b18b:	48 8d 05 6e 81 00 00 	lea    0x816e(%rip),%rax        # 13300 <g_499>
    b192:	8b 04 02             	mov    (%rdx,%rax,1),%eax
    b195:	41 89 c7             	mov    %eax,%r15d
    b198:	0f b6 9d 1c df ff ff 	movzbl -0x20e4(%rbp),%ebx
    b19f:	48 8b 05 42 94 00 00 	mov    0x9442(%rip),%rax        # 145e8 <g_496>
    b1a6:	0f b7 00             	movzwl (%rax),%eax
    b1a9:	44 0f bf e0          	movswl %ax,%r12d
    b1ad:	48 8b 85 b8 e0 ff ff 	mov    -0x1f48(%rbp),%rax
    b1b4:	48 8b 00             	mov    (%rax),%rax
    b1b7:	48 8b 00             	mov    (%rax),%rax
    b1ba:	8b 00                	mov    (%rax),%eax
    b1bc:	44 0f be e8          	movsbl %al,%r13d
    b1c0:	0f b6 95 1c df ff ff 	movzbl -0x20e4(%rbp),%edx
    b1c7:	48 8b 85 d8 e0 ff ff 	mov    -0x1f28(%rbp),%rax
    b1ce:	c7 00 01 00 00 00    	movl   $0x1,(%rax)
    b1d4:	b8 01 00 00 00       	mov    $0x1,%eax
    b1d9:	39 d0                	cmp    %edx,%eax
    b1db:	0f 9d c0             	setge  %al
    b1de:	0f b6 d0             	movzbl %al,%edx
    b1e1:	48 8b 85 18 e1 ff ff 	mov    -0x1ee8(%rbp),%rax
    b1e8:	48 89 10             	mov    %rdx,(%rax)
    b1eb:	48 8b 85 18 e1 ff ff 	mov    -0x1ee8(%rbp),%rax
    b1f2:	4c 8b 30             	mov    (%rax),%r14
    b1f5:	48 8b 85 40 e3 ff ff 	mov    -0x1cc0(%rbp),%rax
    b1fc:	48 8d 15 4d 94 00 00 	lea    0x944d(%rip),%rdx        # 14650 <g_638+0x10>
    b203:	48 89 10             	mov    %rdx,(%rax)
    b206:	48 8b 85 40 e3 ff ff 	mov    -0x1cc0(%rbp),%rax
    b20d:	48 8b 10             	mov    (%rax),%rdx
    b210:	48 8d 85 88 e0 ff ff 	lea    -0x1f78(%rbp),%rax
    b217:	48 39 c2             	cmp    %rax,%rdx
    b21a:	0f 94 c0             	sete   %al
    b21d:	0f b6 c0             	movzbl %al,%eax
    b220:	be 27 00 00 00       	mov    $0x27,%esi
    b225:	89 c7                	mov    %eax,%edi
    b227:	e8 2e a9 ff ff       	callq  5b5a <safe_add_func_uint8_t_u_u>
    b22c:	0f b6 d0             	movzbl %al,%edx
    b22f:	48 8b 05 82 93 00 00 	mov    0x9382(%rip),%rax        # 145b8 <g_256>
    b236:	8b 00                	mov    (%rax),%eax
    b238:	39 c2                	cmp    %eax,%edx
    b23a:	0f 9d c0             	setge  %al
    b23d:	0f b6 c0             	movzbl %al,%eax
    b240:	49 39 c6             	cmp    %rax,%r14
    b243:	0f 95 c0             	setne  %al
    b246:	0f b6 c0             	movzbl %al,%eax
    b249:	be 93 9b 00 00       	mov    $0x9b93,%esi
    b24e:	89 c7                	mov    %eax,%edi
    b250:	e8 ca aa ff ff       	callq  5d1f <safe_sub_func_uint16_t_u_u>
    b255:	0f be c0             	movsbl %al,%eax
    b258:	44 89 ee             	mov    %r13d,%esi
    b25b:	89 c7                	mov    %eax,%edi
    b25d:	e8 b0 9f ff ff       	callq  5212 <safe_mul_func_int8_t_s_s>
    b262:	0f be c0             	movsbl %al,%eax
    b265:	44 89 e6             	mov    %r12d,%esi
    b268:	89 c7                	mov    %eax,%edi
    b26a:	e8 a7 a1 ff ff       	callq  5416 <safe_mod_func_int16_t_s_s>
    b26f:	0f bf d0             	movswl %ax,%edx
    b272:	0f b6 85 1c df ff ff 	movzbl -0x20e4(%rbp),%eax
    b279:	21 d0                	and    %edx,%eax
    b27b:	48 98                	cltq   
    b27d:	48 89 de             	mov    %rbx,%rsi
    b280:	48 89 c7             	mov    %rax,%rdi
    b283:	e8 c3 ad ff ff       	callq  604b <safe_sub_func_uint64_t_u_u>
    b288:	48 83 f8 01          	cmp    $0x1,%rax
    b28c:	0f 95 c0             	setne  %al
    b28f:	0f b6 c0             	movzbl %al,%eax
    b292:	44 89 fa             	mov    %r15d,%edx
    b295:	31 c2                	xor    %eax,%edx
    b297:	48 8b 05 3a 93 00 00 	mov    0x933a(%rip),%rax        # 145d8 <g_382>
    b29e:	48 8b 00             	mov    (%rax),%rax
    b2a1:	66 89 10             	mov    %dx,(%rax)
    b2a4:	0f b7 00             	movzwl (%rax),%eax
    b2a7:	98                   	cwtl   
    b2a8:	89 85 6c df ff ff    	mov    %eax,-0x2094(%rbp)
    b2ae:	48 8b 85 48 e3 ff ff 	mov    -0x1cb8(%rbp),%rax
    b2b5:	48 8b 95 28 df ff ff 	mov    -0x20d8(%rbp),%rdx
    b2bc:	48 89 10             	mov    %rdx,(%rax)
    b2bf:	c7 85 58 df ff ff 07 	movl   $0x7,-0x20a8(%rbp)
    b2c6:	00 00 00 
    b2c9:	e9 63 03 00 00       	jmpq   b631 <func_86+0x2630>
    b2ce:	c7 85 78 e0 ff ff 00 	movl   $0x0,-0x1f88(%rbp)
    b2d5:	00 00 00 
    b2d8:	48 8d 05 01 7f 00 00 	lea    0x7f01(%rip),%rax        # 131e0 <g_240>
    b2df:	48 89 85 50 e3 ff ff 	mov    %rax,-0x1cb0(%rbp)
    b2e6:	48 8d 85 3a df ff ff 	lea    -0x20c6(%rbp),%rax
    b2ed:	48 89 85 58 e3 ff ff 	mov    %rax,-0x1ca8(%rbp)
    b2f4:	8b 85 68 df ff ff    	mov    -0x2098(%rbp),%eax
    b2fa:	85 c0                	test   %eax,%eax
    b2fc:	0f 94 c0             	sete   %al
    b2ff:	0f b6 c0             	movzbl %al,%eax
    b302:	39 85 78 e0 ff ff    	cmp    %eax,-0x1f88(%rbp)
    b308:	74 14                	je     b31e <func_86+0x231d>
    b30a:	48 8b 85 38 e3 ff ff 	mov    -0x1cc8(%rbp),%rax
    b311:	8b 00                	mov    (%rax),%eax
    b313:	85 c0                	test   %eax,%eax
    b315:	74 07                	je     b31e <func_86+0x231d>
    b317:	b8 01 00 00 00       	mov    $0x1,%eax
    b31c:	eb 05                	jmp    b323 <func_86+0x2322>
    b31e:	b8 00 00 00 00       	mov    $0x0,%eax
    b323:	48 63 d8             	movslq %eax,%rbx
    b326:	8b 05 c4 7d 00 00    	mov    0x7dc4(%rip),%eax        # 130f0 <g_47+0x8>
    b32c:	41 89 c4             	mov    %eax,%r12d
    b32f:	48 8b 85 e8 e0 ff ff 	mov    -0x1f18(%rbp),%rax
    b336:	8b 00                	mov    (%rax),%eax
    b338:	41 89 c5             	mov    %eax,%r13d
    b33b:	0f b7 05 9c 7e 00 00 	movzwl 0x7e9c(%rip),%eax        # 131de <g_234>
    b342:	0f b6 d0             	movzbl %al,%edx
    b345:	0f b6 8d 1c df ff ff 	movzbl -0x20e4(%rbp),%ecx
    b34c:	48 8b 05 6d 92 00 00 	mov    0x926d(%rip),%rax        # 145c0 <g_255>
    b353:	48 8b 00             	mov    (%rax),%rax
    b356:	8b 00                	mov    (%rax),%eax
    b358:	39 c1                	cmp    %eax,%ecx
    b35a:	0f 9d c0             	setge  %al
    b35d:	0f b6 f0             	movzbl %al,%esi
    b360:	0f b6 bd 1c df ff ff 	movzbl -0x20e4(%rbp),%edi
    b367:	48 8b 85 e8 e0 ff ff 	mov    -0x1f18(%rbp),%rax
    b36e:	8b 08                	mov    (%rax),%ecx
    b370:	48 8b 85 50 e3 ff ff 	mov    -0x1cb0(%rbp),%rax
    b377:	89 08                	mov    %ecx,(%rax)
    b379:	48 8b 85 50 e3 ff ff 	mov    -0x1cb0(%rbp),%rax
    b380:	8b 00                	mov    (%rax),%eax
    b382:	31 f8                	xor    %edi,%eax
    b384:	89 f1                	mov    %esi,%ecx
    b386:	09 c1                	or     %eax,%ecx
    b388:	0f b6 85 1c df ff ff 	movzbl -0x20e4(%rbp),%eax
    b38f:	09 c8                	or     %ecx,%eax
    b391:	85 c0                	test   %eax,%eax
    b393:	0f 9e c0             	setle  %al
    b396:	0f b6 c0             	movzbl %al,%eax
    b399:	89 d6                	mov    %edx,%esi
    b39b:	89 c7                	mov    %eax,%edi
    b39d:	e8 f1 a7 ff ff       	callq  5b93 <safe_mul_func_uint8_t_u_u>
    b3a2:	48 8b 85 50 e3 ff ff 	mov    -0x1cb0(%rbp),%rax
    b3a9:	8b 10                	mov    (%rax),%edx
    b3ab:	8b 85 64 df ff ff    	mov    -0x209c(%rbp),%eax
    b3b1:	09 d0                	or     %edx,%eax
    b3b3:	89 85 64 df ff ff    	mov    %eax,-0x209c(%rbp)
    b3b9:	8b 85 64 df ff ff    	mov    -0x209c(%rbp),%eax
    b3bf:	44 89 ee             	mov    %r13d,%esi
    b3c2:	89 c7                	mov    %eax,%edi
    b3c4:	e8 34 ab ff ff       	callq  5efd <safe_mod_func_uint32_t_u_u>
    b3c9:	89 c0                	mov    %eax,%eax
    b3cb:	4c 89 e6             	mov    %r12,%rsi
    b3ce:	48 89 c7             	mov    %rax,%rdi
    b3d1:	e8 de a5 ff ff       	callq  59b4 <safe_mod_func_int64_t_s_s>
    b3d6:	48 31 c3             	xor    %rax,%rbx
    b3d9:	48 89 da             	mov    %rbx,%rdx
    b3dc:	8b 05 96 80 00 00    	mov    0x8096(%rip),%eax        # 13478 <g_595+0x18>
    b3e2:	21 d0                	and    %edx,%eax
    b3e4:	89 05 8e 80 00 00    	mov    %eax,0x808e(%rip)        # 13478 <g_595+0x18>
    b3ea:	48 8b 85 d8 e0 ff ff 	mov    -0x1f28(%rbp),%rax
    b3f1:	8b 00                	mov    (%rax),%eax
    b3f3:	89 85 10 df ff ff    	mov    %eax,-0x20f0(%rbp)
    b3f9:	48 8b 05 d8 91 00 00 	mov    0x91d8(%rip),%rax        # 145d8 <g_382>
    b400:	48 8b 00             	mov    (%rax),%rax
    b403:	0f b7 00             	movzwl (%rax),%eax
    b406:	0f bf d8             	movswl %ax,%ebx
    b409:	48 8b 85 28 df ff ff 	mov    -0x20d8(%rbp),%rax
    b410:	8b 00                	mov    (%rax),%eax
    b412:	89 85 08 df ff ff    	mov    %eax,-0x20f8(%rbp)
    b418:	44 0f b6 a5 1c df ff 	movzbl -0x20e4(%rbp),%r12d
    b41f:	ff 
    b420:	48 8b 05 a9 91 00 00 	mov    0x91a9(%rip),%rax        # 145d0 <g_383>
    b427:	0f b7 00             	movzwl (%rax),%eax
    b42a:	44 0f b7 e8          	movzwl %ax,%r13d
    b42e:	44 0f b6 b5 1c df ff 	movzbl -0x20e4(%rbp),%r14d
    b435:	ff 
    b436:	48 8b 05 b3 91 00 00 	mov    0x91b3(%rip),%rax        # 145f0 <g_495>
    b43d:	48 8b 00             	mov    (%rax),%rax
    b440:	0f b7 00             	movzwl (%rax),%eax
    b443:	44 0f b7 f8          	movzwl %ax,%r15d
    b447:	80 bd 1c df ff ff 00 	cmpb   $0x0,-0x20e4(%rbp)
    b44e:	75 10                	jne    b460 <func_86+0x245f>
    b450:	48 8b 05 69 91 00 00 	mov    0x9169(%rip),%rax        # 145c0 <g_255>
    b457:	48 8b 00             	mov    (%rax),%rax
    b45a:	8b 00                	mov    (%rax),%eax
    b45c:	85 c0                	test   %eax,%eax
    b45e:	74 07                	je     b467 <func_86+0x2466>
    b460:	ba 01 00 00 00       	mov    $0x1,%edx
    b465:	eb 05                	jmp    b46c <func_86+0x246b>
    b467:	ba 00 00 00 00       	mov    $0x0,%edx
    b46c:	48 8b 85 50 e3 ff ff 	mov    -0x1cb0(%rbp),%rax
    b473:	89 10                	mov    %edx,(%rax)
    b475:	48 8b 85 50 e3 ff ff 	mov    -0x1cb0(%rbp),%rax
    b47c:	8b 00                	mov    (%rax),%eax
    b47e:	89 c7                	mov    %eax,%edi
    b480:	e8 11 a1 ff ff       	callq  5596 <safe_unary_minus_func_int32_t_s>
    b485:	48 98                	cltq   
    b487:	48 ba 3d 53 28 7a 86 	movabs $0xd349bc867a28533d,%rdx
    b48e:	bc 49 d3 
    b491:	48 21 d0             	and    %rdx,%rax
    b494:	48 83 f8 25          	cmp    $0x25,%rax
    b498:	0f 94 c0             	sete   %al
    b49b:	0f b6 c0             	movzbl %al,%eax
    b49e:	89 85 60 e0 ff ff    	mov    %eax,-0x1fa0(%rbp)
    b4a4:	0f b6 85 1c df ff ff 	movzbl -0x20e4(%rbp),%eax
    b4ab:	48 89 c7             	mov    %rax,%rdi
    b4ae:	e8 63 a3 ff ff       	callq  5816 <safe_unary_minus_func_int64_t_s>
    b4b3:	89 c2                	mov    %eax,%edx
    b4b5:	48 8b 85 10 e1 ff ff 	mov    -0x1ef0(%rbp),%rax
    b4bc:	88 10                	mov    %dl,(%rax)
    b4be:	be 00 00 00 00       	mov    $0x0,%esi
    b4c3:	bf 01 00 00 00       	mov    $0x1,%edi
    b4c8:	e8 5d a0 ff ff       	callq  552a <safe_rshift_func_int16_t_s_s>
    b4cd:	0f b7 c0             	movzwl %ax,%eax
    b4d0:	44 89 fe             	mov    %r15d,%esi
    b4d3:	89 c7                	mov    %eax,%edi
    b4d5:	e8 63 a8 ff ff       	callq  5d3d <safe_mul_func_uint16_t_u_u>
    b4da:	0f b7 d0             	movzwl %ax,%edx
    b4dd:	0f bf 8d 42 df ff ff 	movswl -0x20be(%rbp),%ecx
    b4e4:	8b 85 5c df ff ff    	mov    -0x20a4(%rbp),%eax
    b4ea:	39 c1                	cmp    %eax,%ecx
    b4ec:	0f 9c c0             	setl   %al
    b4ef:	0f b6 c0             	movzbl %al,%eax
    b4f2:	89 d6                	mov    %edx,%esi
    b4f4:	89 c7                	mov    %eax,%edi
    b4f6:	e8 04 a2 ff ff       	callq  56ff <safe_div_func_int32_t_s_s>
    b4fb:	89 c2                	mov    %eax,%edx
    b4fd:	48 8b 05 e4 90 00 00 	mov    0x90e4(%rip),%rax        # 145e8 <g_496>
    b504:	66 89 10             	mov    %dx,(%rax)
    b507:	0f b7 10             	movzwl (%rax),%edx
    b50a:	48 8b 85 58 e3 ff ff 	mov    -0x1ca8(%rbp),%rax
    b511:	0f b7 00             	movzwl (%rax),%eax
    b514:	31 c2                	xor    %eax,%edx
    b516:	48 8b 85 58 e3 ff ff 	mov    -0x1ca8(%rbp),%rax
    b51d:	66 89 10             	mov    %dx,(%rax)
    b520:	48 8b 85 58 e3 ff ff 	mov    -0x1ca8(%rbp),%rax
    b527:	0f b7 00             	movzwl (%rax),%eax
    b52a:	0f b7 c0             	movzwl %ax,%eax
    b52d:	44 89 f6             	mov    %r14d,%esi
    b530:	89 c7                	mov    %eax,%edi
    b532:	e8 87 a8 ff ff       	callq  5dbe <safe_lshift_func_uint16_t_u_s>
    b537:	0f b7 c0             	movzwl %ax,%eax
    b53a:	44 89 ee             	mov    %r13d,%esi
    b53d:	89 c7                	mov    %eax,%edi
    b53f:	e8 bb a7 ff ff       	callq  5cff <safe_add_func_uint16_t_u_u>
    b544:	0f b7 c0             	movzwl %ax,%eax
    b547:	f7 d0                	not    %eax
    b549:	48 98                	cltq   
    b54b:	4c 89 e6             	mov    %r12,%rsi
    b54e:	48 89 c7             	mov    %rax,%rdi
    b551:	e8 2a ab ff ff       	callq  6080 <safe_mod_func_uint64_t_u_u>
    b556:	c7 85 60 df ff ff 00 	movl   $0x0,-0x20a0(%rbp)
    b55d:	00 00 00 
    b560:	48 8b 85 e8 e0 ff ff 	mov    -0x1f18(%rbp),%rax
    b567:	8b 00                	mov    (%rax),%eax
    b569:	8b b5 08 df ff ff    	mov    -0x20f8(%rbp),%esi
    b56f:	89 c7                	mov    %eax,%edi
    b571:	e8 5a a9 ff ff       	callq  5ed0 <safe_sub_func_uint32_t_u_u>
    b576:	0f be c0             	movsbl %al,%eax
    b579:	be 00 00 00 00       	mov    $0x0,%esi
    b57e:	89 c7                	mov    %eax,%edi
    b580:	e8 1c 9d ff ff       	callq  52a1 <safe_lshift_func_int8_t_s_s>
    b585:	be 07 00 00 00       	mov    $0x7,%esi
    b58a:	bf 01 00 00 00       	mov    $0x1,%edi
    b58f:	e8 b4 a8 ff ff       	callq  5e48 <safe_rshift_func_uint16_t_u_s>
    b594:	0f b7 c0             	movzwl %ax,%eax
    b597:	89 de                	mov    %ebx,%esi
    b599:	89 c7                	mov    %eax,%edi
    b59b:	e8 a8 a8 ff ff       	callq  5e48 <safe_rshift_func_uint16_t_u_s>
    b5a0:	0f b7 c0             	movzwl %ax,%eax
    b5a3:	0b 85 10 df ff ff    	or     -0x20f0(%rbp),%eax
    b5a9:	be 03 00 00 00       	mov    $0x3,%esi
    b5ae:	89 c7                	mov    %eax,%edi
    b5b0:	e8 1b a9 ff ff       	callq  5ed0 <safe_sub_func_uint32_t_u_u>
    b5b5:	0f b6 95 1c df ff ff 	movzbl -0x20e4(%rbp),%edx
    b5bc:	0f b6 0d 31 7b 00 00 	movzbl 0x7b31(%rip),%ecx        # 130f4 <g_56>
    b5c3:	0f be c9             	movsbl %cl,%ecx
    b5c6:	8d 79 02             	lea    0x2(%rcx),%edi
    b5c9:	8b 8d 58 df ff ff    	mov    -0x20a8(%rbp),%ecx
    b5cf:	8d 71 02             	lea    0x2(%rcx),%esi
    b5d2:	09 d0                	or     %edx,%eax
    b5d4:	89 c1                	mov    %eax,%ecx
    b5d6:	48 63 f6             	movslq %esi,%rsi
    b5d9:	48 63 d7             	movslq %edi,%rdx
    b5dc:	48 89 d0             	mov    %rdx,%rax
    b5df:	48 c1 e0 02          	shl    $0x2,%rax
    b5e3:	48 01 d0             	add    %rdx,%rax
    b5e6:	48 01 c0             	add    %rax,%rax
    b5e9:	48 01 f0             	add    %rsi,%rax
    b5ec:	48 8d 14 85 00 00 00 	lea    0x0(,%rax,4),%rdx
    b5f3:	00 
    b5f4:	48 8d 05 05 7d 00 00 	lea    0x7d05(%rip),%rax        # 13300 <g_499>
    b5fb:	89 0c 02             	mov    %ecx,(%rdx,%rax,1)
    b5fe:	48 c7 85 a8 e2 ff ff 	movq   $0x0,-0x1d58(%rbp)
    b605:	00 00 00 00 
    b609:	48 8b 85 50 e3 ff ff 	mov    -0x1cb0(%rbp),%rax
    b610:	8b 00                	mov    (%rax),%eax
    b612:	25 95 69 5b fe       	and    $0xfe5b6995,%eax
    b617:	89 c2                	mov    %eax,%edx
    b619:	48 8b 85 50 e3 ff ff 	mov    -0x1cb0(%rbp),%rax
    b620:	89 10                	mov    %edx,(%rax)
    b622:	8b 85 58 df ff ff    	mov    -0x20a8(%rbp),%eax
    b628:	83 e8 01             	sub    $0x1,%eax
    b62b:	89 85 58 df ff ff    	mov    %eax,-0x20a8(%rbp)
    b631:	8b 85 58 df ff ff    	mov    -0x20a8(%rbp),%eax
    b637:	85 c0                	test   %eax,%eax
    b639:	0f 8f 8f fc ff ff    	jg     b2ce <func_86+0x22cd>
    b63f:	8b 05 b7 7a 00 00    	mov    0x7ab7(%rip),%eax        # 130fc <g_75>
    b645:	83 c0 01             	add    $0x1,%eax
    b648:	89 05 ae 7a 00 00    	mov    %eax,0x7aae(%rip)        # 130fc <g_75>
    b64e:	8b 05 a8 7a 00 00    	mov    0x7aa8(%rip),%eax        # 130fc <g_75>
    b654:	83 f8 07             	cmp    $0x7,%eax
    b657:	0f 86 3c fa ff ff    	jbe    b099 <func_86+0x2098>
    b65d:	c7 05 21 7b 00 00 1d 	movl   $0x1d,0x7b21(%rip)        # 13188 <g_149>
    b664:	00 00 00 
    b667:	e9 ec 13 00 00       	jmpq   ca58 <func_86+0x3a57>
    b66c:	48 8d 05 09 7e 00 00 	lea    0x7e09(%rip),%rax        # 1347c <g_595+0x1c>
    b673:	48 89 85 f0 e0 ff ff 	mov    %rax,-0x1f10(%rbp)
    b67a:	c7 85 d8 e0 ff ff 7e 	movl   $0x1786727e,-0x1f28(%rbp)
    b681:	72 86 17 
    b684:	c7 85 6c e0 ff ff ff 	movl   $0xffffffff,-0x1f94(%rbp)
    b68b:	ff ff ff 
    b68e:	c6 85 35 df ff ff ff 	movb   $0xff,-0x20cb(%rbp)
    b695:	48 c7 85 f8 e2 ff ff 	movq   $0x0,-0x1d08(%rbp)
    b69c:	00 00 00 00 
    b6a0:	c7 85 cc df ff ff 00 	movl   $0x0,-0x2034(%rbp)
    b6a7:	00 00 00 
    b6aa:	eb 1a                	jmp    b6c6 <func_86+0x26c5>
    b6ac:	8b 85 cc df ff ff    	mov    -0x2034(%rbp),%eax
    b6b2:	48 98                	cltq   
    b6b4:	c7 84 85 dc e3 ff ff 	movl   $0x8c632541,-0x1c24(%rbp,%rax,4)
    b6bb:	41 25 63 8c 
    b6bf:	83 85 cc df ff ff 01 	addl   $0x1,-0x2034(%rbp)
    b6c6:	83 bd cc df ff ff 00 	cmpl   $0x0,-0x2034(%rbp)
    b6cd:	7e dd                	jle    b6ac <func_86+0x26ab>
    b6cf:	48 83 bd f0 e2 ff ff 	cmpq   $0x0,-0x1d10(%rbp)
    b6d6:	00 
    b6d7:	0f 84 17 01 00 00    	je     b7f4 <func_86+0x27f3>
    b6dd:	48 8d 05 bc 9a 00 00 	lea    0x9abc(%rip),%rax        # 151a0 <g_700>
    b6e4:	48 89 85 18 e3 ff ff 	mov    %rax,-0x1ce8(%rbp)
    b6eb:	48 8d 85 64 df ff ff 	lea    -0x209c(%rbp),%rax
    b6f2:	48 89 85 20 e3 ff ff 	mov    %rax,-0x1ce0(%rbp)
    b6f9:	48 8b 15 a0 9a 00 00 	mov    0x9aa0(%rip),%rdx        # 151a0 <g_700>
    b700:	48 8b 85 18 e3 ff ff 	mov    -0x1ce8(%rbp),%rax
    b707:	48 89 10             	mov    %rdx,(%rax)
    b70a:	48 8b 05 9f 8e 00 00 	mov    0x8e9f(%rip),%rax        # 145b0 <g_162>
    b711:	8b 18                	mov    (%rax),%ebx
    b713:	48 83 bd 10 e1 ff ff 	cmpq   $0x0,-0x1ef0(%rbp)
    b71a:	00 
    b71b:	41 0f 95 c6          	setne  %r14b
    b71f:	8b 85 74 df ff ff    	mov    -0x208c(%rbp),%eax
    b725:	4c 63 e0             	movslq %eax,%r12
    b728:	48 8b 05 b9 8e 00 00 	mov    0x8eb9(%rip),%rax        # 145e8 <g_496>
    b72f:	0f b7 00             	movzwl (%rax),%eax
    b732:	44 0f bf e8          	movswl %ax,%r13d
    b736:	8b 85 64 e0 ff ff    	mov    -0x1f9c(%rbp),%eax
    b73c:	89 c6                	mov    %eax,%esi
    b73e:	bf 02 00 00 00       	mov    $0x2,%edi
    b743:	e8 59 9b ff ff       	callq  52a1 <safe_lshift_func_int8_t_s_s>
    b748:	48 8b 85 28 df ff ff 	mov    -0x20d8(%rbp),%rax
    b74f:	8b 00                	mov    (%rax),%eax
    b751:	98                   	cwtl   
    b752:	83 e0 01             	and    $0x1,%eax
    b755:	44 89 ee             	mov    %r13d,%esi
    b758:	89 c7                	mov    %eax,%edi
    b75a:	e8 f6 9c ff ff       	callq  5455 <safe_div_func_int16_t_s_s>
    b75f:	0f b7 95 3e df ff ff 	movzwl -0x20c2(%rbp),%edx
    b766:	09 d0                	or     %edx,%eax
    b768:	66 89 85 3e df ff ff 	mov    %ax,-0x20c2(%rbp)
    b76f:	4c 89 e6             	mov    %r12,%rsi
    b772:	bf 01 00 00 00       	mov    $0x1,%edi
    b777:	e8 33 a9 ff ff       	callq  60af <safe_div_func_uint64_t_u_u>
    b77c:	be 2b 00 00 00       	mov    $0x2b,%esi
    b781:	bf 01 00 00 00       	mov    $0x1,%edi
    b786:	e8 87 9a ff ff       	callq  5212 <safe_mul_func_int8_t_s_s>
    b78b:	0f be d0             	movsbl %al,%edx
    b78e:	8b 85 58 df ff ff    	mov    -0x20a8(%rbp),%eax
    b794:	39 c2                	cmp    %eax,%edx
    b796:	0f 9c c0             	setl   %al
    b799:	44 31 f0             	xor    %r14d,%eax
    b79c:	0f b6 c0             	movzbl %al,%eax
    b79f:	89 de                	mov    %ebx,%esi
    b7a1:	89 c7                	mov    %eax,%edi
    b7a3:	e8 5d 9e ff ff       	callq  5605 <safe_sub_func_int32_t_s_s>
    b7a8:	48 8b 95 28 df ff ff 	mov    -0x20d8(%rbp),%rdx
    b7af:	8b 12                	mov    (%rdx),%edx
    b7b1:	39 d0                	cmp    %edx,%eax
    b7b3:	0f 9d c0             	setge  %al
    b7b6:	0f b6 d0             	movzbl %al,%edx
    b7b9:	48 8b 85 20 e3 ff ff 	mov    -0x1ce0(%rbp),%rax
    b7c0:	8b 00                	mov    (%rax),%eax
    b7c2:	09 c2                	or     %eax,%edx
    b7c4:	48 8b 85 20 e3 ff ff 	mov    -0x1ce0(%rbp),%rax
    b7cb:	89 10                	mov    %edx,(%rax)
    b7cd:	48 8b 05 ec 8d 00 00 	mov    0x8dec(%rip),%rax        # 145c0 <g_255>
    b7d4:	48 8b 00             	mov    (%rax),%rax
    b7d7:	48 89 85 f0 e0 ff ff 	mov    %rax,-0x1f10(%rbp)
    b7de:	48 8b 85 e8 e0 ff ff 	mov    -0x1f18(%rbp),%rax
    b7e5:	8b 00                	mov    (%rax),%eax
    b7e7:	85 c0                	test   %eax,%eax
    b7e9:	0f 84 25 0e 00 00    	je     c614 <func_86+0x3613>
    b7ef:	e9 76 12 00 00       	jmpq   ca6a <func_86+0x3a69>
    b7f4:	48 8d 05 ad 99 00 00 	lea    0x99ad(%rip),%rax        # 151a8 <g_717>
    b7fb:	48 89 85 00 e3 ff ff 	mov    %rax,-0x1d00(%rbp)
    b802:	48 8d 85 b8 e0 ff ff 	lea    -0x1f48(%rbp),%rax
    b809:	48 89 85 e0 e0 ff ff 	mov    %rax,-0x1f20(%rbp)
    b810:	48 8d 85 e0 e0 ff ff 	lea    -0x1f20(%rbp),%rax
    b817:	48 89 85 08 e3 ff ff 	mov    %rax,-0x1cf8(%rbp)
    b81e:	48 8d 05 c3 7a 00 00 	lea    0x7ac3(%rip),%rax        # 132e8 <g_469>
    b825:	48 89 85 10 e3 ff ff 	mov    %rax,-0x1cf0(%rbp)
    b82c:	48 8d 05 f1 77 00 00 	lea    0x77f1(%rip),%rax        # 13024 <g_10>
    b833:	48 89 85 f0 f7 ff ff 	mov    %rax,-0x810(%rbp)
    b83a:	48 c7 85 f8 f7 ff ff 	movq   $0x0,-0x808(%rbp)
    b841:	00 00 00 00 
    b845:	48 8d 05 d8 77 00 00 	lea    0x77d8(%rip),%rax        # 13024 <g_10>
    b84c:	48 89 85 00 f8 ff ff 	mov    %rax,-0x800(%rbp)
    b853:	48 8d 85 54 df ff ff 	lea    -0x20ac(%rbp),%rax
    b85a:	48 89 85 08 f8 ff ff 	mov    %rax,-0x7f8(%rbp)
    b861:	48 8d 05 70 79 00 00 	lea    0x7970(%rip),%rax        # 131d8 <g_207>
    b868:	48 89 85 10 f8 ff ff 	mov    %rax,-0x7f0(%rbp)
    b86f:	48 8d 05 fe 7b 00 00 	lea    0x7bfe(%rip),%rax        # 13474 <g_595+0x14>
    b876:	48 89 85 18 f8 ff ff 	mov    %rax,-0x7e8(%rbp)
    b87d:	48 8d 85 54 df ff ff 	lea    -0x20ac(%rbp),%rax
    b884:	48 89 85 20 f8 ff ff 	mov    %rax,-0x7e0(%rbp)
    b88b:	48 8d 85 5c df ff ff 	lea    -0x20a4(%rbp),%rax
    b892:	48 89 85 28 f8 ff ff 	mov    %rax,-0x7d8(%rbp)
    b899:	48 8d 85 54 df ff ff 	lea    -0x20ac(%rbp),%rax
    b8a0:	48 89 85 30 f8 ff ff 	mov    %rax,-0x7d0(%rbp)
    b8a7:	48 8d 05 c6 7b 00 00 	lea    0x7bc6(%rip),%rax        # 13474 <g_595+0x14>
    b8ae:	48 89 85 38 f8 ff ff 	mov    %rax,-0x7c8(%rbp)
    b8b5:	48 8d 85 58 df ff ff 	lea    -0x20a8(%rbp),%rax
    b8bc:	48 89 85 40 f8 ff ff 	mov    %rax,-0x7c0(%rbp)
    b8c3:	48 8d 85 5c df ff ff 	lea    -0x20a4(%rbp),%rax
    b8ca:	48 89 85 48 f8 ff ff 	mov    %rax,-0x7b8(%rbp)
    b8d1:	48 8d 85 64 df ff ff 	lea    -0x209c(%rbp),%rax
    b8d8:	48 89 85 50 f8 ff ff 	mov    %rax,-0x7b0(%rbp)
    b8df:	48 8d 85 5c df ff ff 	lea    -0x20a4(%rbp),%rax
    b8e6:	48 89 85 58 f8 ff ff 	mov    %rax,-0x7a8(%rbp)
    b8ed:	48 8d 85 64 df ff ff 	lea    -0x209c(%rbp),%rax
    b8f4:	48 89 85 60 f8 ff ff 	mov    %rax,-0x7a0(%rbp)
    b8fb:	48 8d 85 6c df ff ff 	lea    -0x2094(%rbp),%rax
    b902:	48 89 85 68 f8 ff ff 	mov    %rax,-0x798(%rbp)
    b909:	48 8d 85 6c df ff ff 	lea    -0x2094(%rbp),%rax
    b910:	48 89 85 70 f8 ff ff 	mov    %rax,-0x790(%rbp)
    b917:	48 8d 85 5c df ff ff 	lea    -0x20a4(%rbp),%rax
    b91e:	48 89 85 78 f8 ff ff 	mov    %rax,-0x788(%rbp)
    b925:	48 c7 85 80 f8 ff ff 	movq   $0x0,-0x780(%rbp)
    b92c:	00 00 00 00 
    b930:	48 8d 85 6c df ff ff 	lea    -0x2094(%rbp),%rax
    b937:	48 89 85 88 f8 ff ff 	mov    %rax,-0x778(%rbp)
    b93e:	48 8d 05 9b 78 00 00 	lea    0x789b(%rip),%rax        # 131e0 <g_240>
    b945:	48 89 85 90 f8 ff ff 	mov    %rax,-0x770(%rbp)
    b94c:	48 8d 05 8d 78 00 00 	lea    0x788d(%rip),%rax        # 131e0 <g_240>
    b953:	48 89 85 98 f8 ff ff 	mov    %rax,-0x768(%rbp)
    b95a:	48 8d 05 c3 76 00 00 	lea    0x76c3(%rip),%rax        # 13024 <g_10>
    b961:	48 89 85 a0 f8 ff ff 	mov    %rax,-0x760(%rbp)
    b968:	48 8d 85 5c df ff ff 	lea    -0x20a4(%rbp),%rax
    b96f:	48 89 85 a8 f8 ff ff 	mov    %rax,-0x758(%rbp)
    b976:	48 8d 05 5b 78 00 00 	lea    0x785b(%rip),%rax        # 131d8 <g_207>
    b97d:	48 89 85 b0 f8 ff ff 	mov    %rax,-0x750(%rbp)
    b984:	48 8d 85 54 df ff ff 	lea    -0x20ac(%rbp),%rax
    b98b:	48 89 85 b8 f8 ff ff 	mov    %rax,-0x748(%rbp)
    b992:	48 c7 85 c0 f8 ff ff 	movq   $0x0,-0x740(%rbp)
    b999:	00 00 00 00 
    b99d:	48 8d 05 3c 78 00 00 	lea    0x783c(%rip),%rax        # 131e0 <g_240>
    b9a4:	48 89 85 c8 f8 ff ff 	mov    %rax,-0x738(%rbp)
    b9ab:	48 8d 85 54 df ff ff 	lea    -0x20ac(%rbp),%rax
    b9b2:	48 89 85 d0 f8 ff ff 	mov    %rax,-0x730(%rbp)
    b9b9:	48 8d 05 b4 7a 00 00 	lea    0x7ab4(%rip),%rax        # 13474 <g_595+0x14>
    b9c0:	48 89 85 d8 f8 ff ff 	mov    %rax,-0x728(%rbp)
    b9c7:	48 8d 85 64 df ff ff 	lea    -0x209c(%rbp),%rax
    b9ce:	48 89 85 e0 f8 ff ff 	mov    %rax,-0x720(%rbp)
    b9d5:	48 8d 05 04 78 00 00 	lea    0x7804(%rip),%rax        # 131e0 <g_240>
    b9dc:	48 89 85 e8 f8 ff ff 	mov    %rax,-0x718(%rbp)
    b9e3:	48 8d 05 3a 76 00 00 	lea    0x763a(%rip),%rax        # 13024 <g_10>
    b9ea:	48 89 85 f0 f8 ff ff 	mov    %rax,-0x710(%rbp)
    b9f1:	48 8d 85 68 df ff ff 	lea    -0x2098(%rbp),%rax
    b9f8:	48 89 85 f8 f8 ff ff 	mov    %rax,-0x708(%rbp)
    b9ff:	48 8d 05 d2 77 00 00 	lea    0x77d2(%rip),%rax        # 131d8 <g_207>
    ba06:	48 89 85 00 f9 ff ff 	mov    %rax,-0x700(%rbp)
    ba0d:	48 8d 05 d4 78 00 00 	lea    0x78d4(%rip),%rax        # 132e8 <g_469>
    ba14:	48 89 85 08 f9 ff ff 	mov    %rax,-0x6f8(%rbp)
    ba1b:	48 8d 85 6c df ff ff 	lea    -0x2094(%rbp),%rax
    ba22:	48 89 85 10 f9 ff ff 	mov    %rax,-0x6f0(%rbp)
    ba29:	48 8d 85 64 df ff ff 	lea    -0x209c(%rbp),%rax
    ba30:	48 89 85 18 f9 ff ff 	mov    %rax,-0x6e8(%rbp)
    ba37:	48 8d 05 a2 77 00 00 	lea    0x77a2(%rip),%rax        # 131e0 <g_240>
    ba3e:	48 89 85 20 f9 ff ff 	mov    %rax,-0x6e0(%rbp)
    ba45:	48 8d 85 68 df ff ff 	lea    -0x2098(%rbp),%rax
    ba4c:	48 89 85 28 f9 ff ff 	mov    %rax,-0x6d8(%rbp)
    ba53:	48 8d 85 60 df ff ff 	lea    -0x20a0(%rbp),%rax
    ba5a:	48 89 85 30 f9 ff ff 	mov    %rax,-0x6d0(%rbp)
    ba61:	48 8d 85 5c df ff ff 	lea    -0x20a4(%rbp),%rax
    ba68:	48 89 85 38 f9 ff ff 	mov    %rax,-0x6c8(%rbp)
    ba6f:	48 8d 05 62 77 00 00 	lea    0x7762(%rip),%rax        # 131d8 <g_207>
    ba76:	48 89 85 40 f9 ff ff 	mov    %rax,-0x6c0(%rbp)
    ba7d:	48 8d 85 5c df ff ff 	lea    -0x20a4(%rbp),%rax
    ba84:	48 89 85 48 f9 ff ff 	mov    %rax,-0x6b8(%rbp)
    ba8b:	48 8d 85 60 df ff ff 	lea    -0x20a0(%rbp),%rax
    ba92:	48 89 85 50 f9 ff ff 	mov    %rax,-0x6b0(%rbp)
    ba99:	48 8d 05 48 78 00 00 	lea    0x7848(%rip),%rax        # 132e8 <g_469>
    baa0:	48 89 85 58 f9 ff ff 	mov    %rax,-0x6a8(%rbp)
    baa7:	48 8d 85 54 df ff ff 	lea    -0x20ac(%rbp),%rax
    baae:	48 89 85 60 f9 ff ff 	mov    %rax,-0x6a0(%rbp)
    bab5:	48 8d 85 58 df ff ff 	lea    -0x20a8(%rbp),%rax
    babc:	48 89 85 68 f9 ff ff 	mov    %rax,-0x698(%rbp)
    bac3:	48 8d 05 aa 79 00 00 	lea    0x79aa(%rip),%rax        # 13474 <g_595+0x14>
    baca:	48 89 85 70 f9 ff ff 	mov    %rax,-0x690(%rbp)
    bad1:	48 8d 85 6c df ff ff 	lea    -0x2094(%rbp),%rax
    bad8:	48 89 85 78 f9 ff ff 	mov    %rax,-0x688(%rbp)
    badf:	48 8d 85 64 df ff ff 	lea    -0x209c(%rbp),%rax
    bae6:	48 89 85 80 f9 ff ff 	mov    %rax,-0x680(%rbp)
    baed:	48 c7 85 88 f9 ff ff 	movq   $0x0,-0x678(%rbp)
    baf4:	00 00 00 00 
    baf8:	48 8d 05 d9 76 00 00 	lea    0x76d9(%rip),%rax        # 131d8 <g_207>
    baff:	48 89 85 90 f9 ff ff 	mov    %rax,-0x670(%rbp)
    bb06:	48 8d 85 5c df ff ff 	lea    -0x20a4(%rbp),%rax
    bb0d:	48 89 85 98 f9 ff ff 	mov    %rax,-0x668(%rbp)
    bb14:	48 8d 85 60 df ff ff 	lea    -0x20a0(%rbp),%rax
    bb1b:	48 89 85 a0 f9 ff ff 	mov    %rax,-0x660(%rbp)
    bb22:	48 8d 85 54 df ff ff 	lea    -0x20ac(%rbp),%rax
    bb29:	48 89 85 a8 f9 ff ff 	mov    %rax,-0x658(%rbp)
    bb30:	48 8d 05 b1 77 00 00 	lea    0x77b1(%rip),%rax        # 132e8 <g_469>
    bb37:	48 89 85 b0 f9 ff ff 	mov    %rax,-0x650(%rbp)
    bb3e:	48 8d 85 64 df ff ff 	lea    -0x209c(%rbp),%rax
    bb45:	48 89 85 b8 f9 ff ff 	mov    %rax,-0x648(%rbp)
    bb4c:	48 8d 85 54 df ff ff 	lea    -0x20ac(%rbp),%rax
    bb53:	48 89 85 c0 f9 ff ff 	mov    %rax,-0x640(%rbp)
    bb5a:	48 8d 85 6c df ff ff 	lea    -0x2094(%rbp),%rax
    bb61:	48 89 85 c8 f9 ff ff 	mov    %rax,-0x638(%rbp)
    bb68:	48 8d 05 71 76 00 00 	lea    0x7671(%rip),%rax        # 131e0 <g_240>
    bb6f:	48 89 85 d0 f9 ff ff 	mov    %rax,-0x630(%rbp)
    bb76:	48 8d 85 5c df ff ff 	lea    -0x20a4(%rbp),%rax
    bb7d:	48 89 85 d8 f9 ff ff 	mov    %rax,-0x628(%rbp)
    bb84:	48 8d 85 64 df ff ff 	lea    -0x209c(%rbp),%rax
    bb8b:	48 89 85 e0 f9 ff ff 	mov    %rax,-0x620(%rbp)
    bb92:	48 8d 85 54 df ff ff 	lea    -0x20ac(%rbp),%rax
    bb99:	48 89 85 e8 f9 ff ff 	mov    %rax,-0x618(%rbp)
    bba0:	48 8d 85 60 df ff ff 	lea    -0x20a0(%rbp),%rax
    bba7:	48 89 85 f0 f9 ff ff 	mov    %rax,-0x610(%rbp)
    bbae:	48 8d 85 6c df ff ff 	lea    -0x2094(%rbp),%rax
    bbb5:	48 89 85 f8 f9 ff ff 	mov    %rax,-0x608(%rbp)
    bbbc:	48 8d 85 64 df ff ff 	lea    -0x209c(%rbp),%rax
    bbc3:	48 89 85 00 fa ff ff 	mov    %rax,-0x600(%rbp)
    bbca:	48 8d 05 0f 76 00 00 	lea    0x760f(%rip),%rax        # 131e0 <g_240>
    bbd1:	48 89 85 08 fa ff ff 	mov    %rax,-0x5f8(%rbp)
    bbd8:	48 8d 85 68 df ff ff 	lea    -0x2098(%rbp),%rax
    bbdf:	48 89 85 10 fa ff ff 	mov    %rax,-0x5f0(%rbp)
    bbe6:	48 8d 85 68 df ff ff 	lea    -0x2098(%rbp),%rax
    bbed:	48 89 85 18 fa ff ff 	mov    %rax,-0x5e8(%rbp)
    bbf4:	48 8d 85 58 df ff ff 	lea    -0x20a8(%rbp),%rax
    bbfb:	48 89 85 20 fa ff ff 	mov    %rax,-0x5e0(%rbp)
    bc02:	48 c7 85 28 fa ff ff 	movq   $0x0,-0x5d8(%rbp)
    bc09:	00 00 00 00 
    bc0d:	48 8d 85 58 df ff ff 	lea    -0x20a8(%rbp),%rax
    bc14:	48 89 85 30 fa ff ff 	mov    %rax,-0x5d0(%rbp)
    bc1b:	48 8d 85 54 df ff ff 	lea    -0x20ac(%rbp),%rax
    bc22:	48 89 85 38 fa ff ff 	mov    %rax,-0x5c8(%rbp)
    bc29:	48 8d 05 a8 75 00 00 	lea    0x75a8(%rip),%rax        # 131d8 <g_207>
    bc30:	48 89 85 40 fa ff ff 	mov    %rax,-0x5c0(%rbp)
    bc37:	48 8d 05 36 78 00 00 	lea    0x7836(%rip),%rax        # 13474 <g_595+0x14>
    bc3e:	48 89 85 48 fa ff ff 	mov    %rax,-0x5b8(%rbp)
    bc45:	48 8d 85 54 df ff ff 	lea    -0x20ac(%rbp),%rax
    bc4c:	48 89 85 50 fa ff ff 	mov    %rax,-0x5b0(%rbp)
    bc53:	48 8d 85 5c df ff ff 	lea    -0x20a4(%rbp),%rax
    bc5a:	48 89 85 58 fa ff ff 	mov    %rax,-0x5a8(%rbp)
    bc61:	48 8d 85 54 df ff ff 	lea    -0x20ac(%rbp),%rax
    bc68:	48 89 85 60 fa ff ff 	mov    %rax,-0x5a0(%rbp)
    bc6f:	48 8d 85 54 df ff ff 	lea    -0x20ac(%rbp),%rax
    bc76:	48 89 85 68 fa ff ff 	mov    %rax,-0x598(%rbp)
    bc7d:	48 8d 85 60 df ff ff 	lea    -0x20a0(%rbp),%rax
    bc84:	48 89 85 70 fa ff ff 	mov    %rax,-0x590(%rbp)
    bc8b:	48 8d 05 4e 75 00 00 	lea    0x754e(%rip),%rax        # 131e0 <g_240>
    bc92:	48 89 85 78 fa ff ff 	mov    %rax,-0x588(%rbp)
    bc99:	48 c7 85 80 fa ff ff 	movq   $0x0,-0x580(%rbp)
    bca0:	00 00 00 00 
    bca4:	48 8d 85 54 df ff ff 	lea    -0x20ac(%rbp),%rax
    bcab:	48 89 85 88 fa ff ff 	mov    %rax,-0x578(%rbp)
    bcb2:	48 c7 85 90 fa ff ff 	movq   $0x0,-0x570(%rbp)
    bcb9:	00 00 00 00 
    bcbd:	48 8d 85 6c df ff ff 	lea    -0x2094(%rbp),%rax
    bcc4:	48 89 85 98 fa ff ff 	mov    %rax,-0x568(%rbp)
    bccb:	48 8d 05 16 76 00 00 	lea    0x7616(%rip),%rax        # 132e8 <g_469>
    bcd2:	48 89 85 a0 fa ff ff 	mov    %rax,-0x560(%rbp)
    bcd9:	48 8d 85 58 df ff ff 	lea    -0x20a8(%rbp),%rax
    bce0:	48 89 85 a8 fa ff ff 	mov    %rax,-0x558(%rbp)
    bce7:	48 8d 85 54 df ff ff 	lea    -0x20ac(%rbp),%rax
    bcee:	48 89 85 b0 fa ff ff 	mov    %rax,-0x550(%rbp)
    bcf5:	48 8d 85 54 df ff ff 	lea    -0x20ac(%rbp),%rax
    bcfc:	48 89 85 b8 fa ff ff 	mov    %rax,-0x548(%rbp)
    bd03:	48 8d 85 58 df ff ff 	lea    -0x20a8(%rbp),%rax
    bd0a:	48 89 85 c0 fa ff ff 	mov    %rax,-0x540(%rbp)
    bd11:	48 8d 85 5c df ff ff 	lea    -0x20a4(%rbp),%rax
    bd18:	48 89 85 c8 fa ff ff 	mov    %rax,-0x538(%rbp)
    bd1f:	48 c7 85 d0 fa ff ff 	movq   $0x0,-0x530(%rbp)
    bd26:	00 00 00 00 
    bd2a:	48 8d 05 af 74 00 00 	lea    0x74af(%rip),%rax        # 131e0 <g_240>
    bd31:	48 89 85 d8 fa ff ff 	mov    %rax,-0x528(%rbp)
    bd38:	48 8d 85 60 df ff ff 	lea    -0x20a0(%rbp),%rax
    bd3f:	48 89 85 e0 fa ff ff 	mov    %rax,-0x520(%rbp)
    bd46:	48 8d 05 9b 75 00 00 	lea    0x759b(%rip),%rax        # 132e8 <g_469>
    bd4d:	48 89 85 e8 fa ff ff 	mov    %rax,-0x518(%rbp)
    bd54:	48 8d 85 54 df ff ff 	lea    -0x20ac(%rbp),%rax
    bd5b:	48 89 85 f0 fa ff ff 	mov    %rax,-0x510(%rbp)
    bd62:	48 8d 85 5c df ff ff 	lea    -0x20a4(%rbp),%rax
    bd69:	48 89 85 f8 fa ff ff 	mov    %rax,-0x508(%rbp)
    bd70:	48 8d 85 5c df ff ff 	lea    -0x20a4(%rbp),%rax
    bd77:	48 89 85 00 fb ff ff 	mov    %rax,-0x500(%rbp)
    bd7e:	48 8d 85 54 df ff ff 	lea    -0x20ac(%rbp),%rax
    bd85:	48 89 85 08 fb ff ff 	mov    %rax,-0x4f8(%rbp)
    bd8c:	48 c7 85 10 fb ff ff 	movq   $0x0,-0x4f0(%rbp)
    bd93:	00 00 00 00 
    bd97:	48 8d 85 5c df ff ff 	lea    -0x20a4(%rbp),%rax
    bd9e:	48 89 85 18 fb ff ff 	mov    %rax,-0x4e8(%rbp)
    bda5:	48 8d 05 2c 74 00 00 	lea    0x742c(%rip),%rax        # 131d8 <g_207>
    bdac:	48 89 85 20 fb ff ff 	mov    %rax,-0x4e0(%rbp)
    bdb3:	48 c7 85 28 fb ff ff 	movq   $0x0,-0x4d8(%rbp)
    bdba:	00 00 00 00 
    bdbe:	48 8d 05 13 74 00 00 	lea    0x7413(%rip),%rax        # 131d8 <g_207>
    bdc5:	48 89 85 30 fb ff ff 	mov    %rax,-0x4d0(%rbp)
    bdcc:	48 8d 05 a1 76 00 00 	lea    0x76a1(%rip),%rax        # 13474 <g_595+0x14>
    bdd3:	48 89 85 38 fb ff ff 	mov    %rax,-0x4c8(%rbp)
    bdda:	48 8d 05 07 75 00 00 	lea    0x7507(%rip),%rax        # 132e8 <g_469>
    bde1:	48 89 85 40 fb ff ff 	mov    %rax,-0x4c0(%rbp)
    bde8:	48 c7 85 48 fb ff ff 	movq   $0x0,-0x4b8(%rbp)
    bdef:	00 00 00 00 
    bdf3:	48 8d 85 68 df ff ff 	lea    -0x2098(%rbp),%rax
    bdfa:	48 89 85 50 fb ff ff 	mov    %rax,-0x4b0(%rbp)
    be01:	48 8d 85 6c df ff ff 	lea    -0x2094(%rbp),%rax
    be08:	48 89 85 58 fb ff ff 	mov    %rax,-0x4a8(%rbp)
    be0f:	48 8d 05 0e 72 00 00 	lea    0x720e(%rip),%rax        # 13024 <g_10>
    be16:	48 89 85 60 fb ff ff 	mov    %rax,-0x4a0(%rbp)
    be1d:	48 8d 05 bc 73 00 00 	lea    0x73bc(%rip),%rax        # 131e0 <g_240>
    be24:	48 89 85 68 fb ff ff 	mov    %rax,-0x498(%rbp)
    be2b:	48 8d 85 64 df ff ff 	lea    -0x209c(%rbp),%rax
    be32:	48 89 85 70 fb ff ff 	mov    %rax,-0x490(%rbp)
    be39:	48 8d 05 a0 73 00 00 	lea    0x73a0(%rip),%rax        # 131e0 <g_240>
    be40:	48 89 85 78 fb ff ff 	mov    %rax,-0x488(%rbp)
    be47:	48 8d 05 d6 71 00 00 	lea    0x71d6(%rip),%rax        # 13024 <g_10>
    be4e:	48 89 85 80 fb ff ff 	mov    %rax,-0x480(%rbp)
    be55:	48 8d 05 18 76 00 00 	lea    0x7618(%rip),%rax        # 13474 <g_595+0x14>
    be5c:	48 89 85 88 fb ff ff 	mov    %rax,-0x478(%rbp)
    be63:	48 8d 05 7e 74 00 00 	lea    0x747e(%rip),%rax        # 132e8 <g_469>
    be6a:	48 89 85 90 fb ff ff 	mov    %rax,-0x470(%rbp)
    be71:	48 8d 05 70 74 00 00 	lea    0x7470(%rip),%rax        # 132e8 <g_469>
    be78:	48 89 85 98 fb ff ff 	mov    %rax,-0x468(%rbp)
    be7f:	48 8d 05 5a 73 00 00 	lea    0x735a(%rip),%rax        # 131e0 <g_240>
    be86:	48 89 85 a0 fb ff ff 	mov    %rax,-0x460(%rbp)
    be8d:	48 8d 85 6c df ff ff 	lea    -0x2094(%rbp),%rax
    be94:	48 89 85 a8 fb ff ff 	mov    %rax,-0x458(%rbp)
    be9b:	48 c7 85 b0 fb ff ff 	movq   $0x0,-0x450(%rbp)
    bea2:	00 00 00 00 
    bea6:	48 8d 05 4b 72 00 00 	lea    0x724b(%rip),%rax        # 130f8 <g_74>
    bead:	48 89 85 b8 fb ff ff 	mov    %rax,-0x448(%rbp)
    beb4:	48 8d 05 1d 73 00 00 	lea    0x731d(%rip),%rax        # 131d8 <g_207>
    bebb:	48 89 85 c0 fb ff ff 	mov    %rax,-0x440(%rbp)
    bec2:	48 8d 85 54 df ff ff 	lea    -0x20ac(%rbp),%rax
    bec9:	48 89 85 c8 fb ff ff 	mov    %rax,-0x438(%rbp)
    bed0:	48 8d 05 09 73 00 00 	lea    0x7309(%rip),%rax        # 131e0 <g_240>
    bed7:	48 89 85 d0 fb ff ff 	mov    %rax,-0x430(%rbp)
    bede:	48 8d 05 03 74 00 00 	lea    0x7403(%rip),%rax        # 132e8 <g_469>
    bee5:	48 89 85 d8 fb ff ff 	mov    %rax,-0x428(%rbp)
    beec:	48 c7 85 e0 fb ff ff 	movq   $0x0,-0x420(%rbp)
    bef3:	00 00 00 00 
    bef7:	48 c7 85 e8 fb ff ff 	movq   $0x0,-0x418(%rbp)
    befe:	00 00 00 00 
    bf02:	48 8d 05 df 73 00 00 	lea    0x73df(%rip),%rax        # 132e8 <g_469>
    bf09:	48 89 85 f0 fb ff ff 	mov    %rax,-0x410(%rbp)
    bf10:	48 8d 85 6c df ff ff 	lea    -0x2094(%rbp),%rax
    bf17:	48 89 85 f8 fb ff ff 	mov    %rax,-0x408(%rbp)
    bf1e:	48 8d 85 58 df ff ff 	lea    -0x20a8(%rbp),%rax
    bf25:	48 89 85 00 fc ff ff 	mov    %rax,-0x400(%rbp)
    bf2c:	48 8d 85 54 df ff ff 	lea    -0x20ac(%rbp),%rax
    bf33:	48 89 85 08 fc ff ff 	mov    %rax,-0x3f8(%rbp)
    bf3a:	48 8d 05 97 72 00 00 	lea    0x7297(%rip),%rax        # 131d8 <g_207>
    bf41:	48 89 85 10 fc ff ff 	mov    %rax,-0x3f0(%rbp)
    bf48:	48 8d 85 68 df ff ff 	lea    -0x2098(%rbp),%rax
    bf4f:	48 89 85 18 fc ff ff 	mov    %rax,-0x3e8(%rbp)
    bf56:	48 8d 05 c7 70 00 00 	lea    0x70c7(%rip),%rax        # 13024 <g_10>
    bf5d:	48 89 85 20 fc ff ff 	mov    %rax,-0x3e0(%rbp)
    bf64:	48 8d 85 6c df ff ff 	lea    -0x2094(%rbp),%rax
    bf6b:	48 89 85 28 fc ff ff 	mov    %rax,-0x3d8(%rbp)
    bf72:	48 8d 05 fb 74 00 00 	lea    0x74fb(%rip),%rax        # 13474 <g_595+0x14>
    bf79:	48 89 85 30 fc ff ff 	mov    %rax,-0x3d0(%rbp)
    bf80:	48 8d 85 5c df ff ff 	lea    -0x20a4(%rbp),%rax
    bf87:	48 89 85 38 fc ff ff 	mov    %rax,-0x3c8(%rbp)
    bf8e:	48 8d 85 58 df ff ff 	lea    -0x20a8(%rbp),%rax
    bf95:	48 89 85 40 fc ff ff 	mov    %rax,-0x3c0(%rbp)
    bf9c:	48 8d 85 6c df ff ff 	lea    -0x2094(%rbp),%rax
    bfa3:	48 89 85 48 fc ff ff 	mov    %rax,-0x3b8(%rbp)
    bfaa:	48 8d 85 60 df ff ff 	lea    -0x20a0(%rbp),%rax
    bfb1:	48 89 85 50 fc ff ff 	mov    %rax,-0x3b0(%rbp)
    bfb8:	48 8d 05 39 71 00 00 	lea    0x7139(%rip),%rax        # 130f8 <g_74>
    bfbf:	48 89 85 58 fc ff ff 	mov    %rax,-0x3a8(%rbp)
    bfc6:	48 8d 85 60 df ff ff 	lea    -0x20a0(%rbp),%rax
    bfcd:	48 89 85 60 fc ff ff 	mov    %rax,-0x3a0(%rbp)
    bfd4:	48 8d 85 68 df ff ff 	lea    -0x2098(%rbp),%rax
    bfdb:	48 89 85 68 fc ff ff 	mov    %rax,-0x398(%rbp)
    bfe2:	48 8d 05 ef 71 00 00 	lea    0x71ef(%rip),%rax        # 131d8 <g_207>
    bfe9:	48 89 85 70 fc ff ff 	mov    %rax,-0x390(%rbp)
    bff0:	48 8d 85 54 df ff ff 	lea    -0x20ac(%rbp),%rax
    bff7:	48 89 85 78 fc ff ff 	mov    %rax,-0x388(%rbp)
    bffe:	48 8d 85 64 df ff ff 	lea    -0x209c(%rbp),%rax
    c005:	48 89 85 80 fc ff ff 	mov    %rax,-0x380(%rbp)
    c00c:	48 8d 85 58 df ff ff 	lea    -0x20a8(%rbp),%rax
    c013:	48 89 85 88 fc ff ff 	mov    %rax,-0x378(%rbp)
    c01a:	48 8d 05 c7 72 00 00 	lea    0x72c7(%rip),%rax        # 132e8 <g_469>
    c021:	48 89 85 90 fc ff ff 	mov    %rax,-0x370(%rbp)
    c028:	48 8d 85 54 df ff ff 	lea    -0x20ac(%rbp),%rax
    c02f:	48 89 85 98 fc ff ff 	mov    %rax,-0x368(%rbp)
    c036:	48 c7 85 a0 fc ff ff 	movq   $0x0,-0x360(%rbp)
    c03d:	00 00 00 00 
    c041:	48 8d 05 98 71 00 00 	lea    0x7198(%rip),%rax        # 131e0 <g_240>
    c048:	48 89 85 a8 fc ff ff 	mov    %rax,-0x358(%rbp)
    c04f:	48 8d 85 60 df ff ff 	lea    -0x20a0(%rbp),%rax
    c056:	48 89 85 b0 fc ff ff 	mov    %rax,-0x350(%rbp)
    c05d:	48 8d 85 54 df ff ff 	lea    -0x20ac(%rbp),%rax
    c064:	48 89 85 b8 fc ff ff 	mov    %rax,-0x348(%rbp)
    c06b:	48 8d 85 60 df ff ff 	lea    -0x20a0(%rbp),%rax
    c072:	48 89 85 c0 fc ff ff 	mov    %rax,-0x340(%rbp)
    c079:	48 8d 85 6c df ff ff 	lea    -0x2094(%rbp),%rax
    c080:	48 89 85 c8 fc ff ff 	mov    %rax,-0x338(%rbp)
    c087:	48 8d 85 6c df ff ff 	lea    -0x2094(%rbp),%rax
    c08e:	48 89 85 d0 fc ff ff 	mov    %rax,-0x330(%rbp)
    c095:	48 8d 85 58 df ff ff 	lea    -0x20a8(%rbp),%rax
    c09c:	48 89 85 d8 fc ff ff 	mov    %rax,-0x328(%rbp)
    c0a3:	48 8d 05 36 71 00 00 	lea    0x7136(%rip),%rax        # 131e0 <g_240>
    c0aa:	48 89 85 e0 fc ff ff 	mov    %rax,-0x320(%rbp)
    c0b1:	48 8d 85 54 df ff ff 	lea    -0x20ac(%rbp),%rax
    c0b8:	48 89 85 e8 fc ff ff 	mov    %rax,-0x318(%rbp)
    c0bf:	48 8d 05 5e 6f 00 00 	lea    0x6f5e(%rip),%rax        # 13024 <g_10>
    c0c6:	48 89 85 f0 fc ff ff 	mov    %rax,-0x310(%rbp)
    c0cd:	48 8d 85 5c df ff ff 	lea    -0x20a4(%rbp),%rax
    c0d4:	48 89 85 f8 fc ff ff 	mov    %rax,-0x308(%rbp)
    c0db:	48 8d 85 60 df ff ff 	lea    -0x20a0(%rbp),%rax
    c0e2:	48 89 85 00 fd ff ff 	mov    %rax,-0x300(%rbp)
    c0e9:	48 8d 05 f0 70 00 00 	lea    0x70f0(%rip),%rax        # 131e0 <g_240>
    c0f0:	48 89 85 08 fd ff ff 	mov    %rax,-0x2f8(%rbp)
    c0f7:	48 c7 85 10 fd ff ff 	movq   $0x0,-0x2f0(%rbp)
    c0fe:	00 00 00 00 
    c102:	48 8d 05 df 71 00 00 	lea    0x71df(%rip),%rax        # 132e8 <g_469>
    c109:	48 89 85 18 fd ff ff 	mov    %rax,-0x2e8(%rbp)
    c110:	48 8d 05 c9 70 00 00 	lea    0x70c9(%rip),%rax        # 131e0 <g_240>
    c117:	48 89 85 20 fd ff ff 	mov    %rax,-0x2e0(%rbp)
    c11e:	48 8d 85 5c df ff ff 	lea    -0x20a4(%rbp),%rax
    c125:	48 89 85 28 fd ff ff 	mov    %rax,-0x2d8(%rbp)
    c12c:	48 8d 85 68 df ff ff 	lea    -0x2098(%rbp),%rax
    c133:	48 89 85 30 fd ff ff 	mov    %rax,-0x2d0(%rbp)
    c13a:	48 8d 85 54 df ff ff 	lea    -0x20ac(%rbp),%rax
    c141:	48 89 85 38 fd ff ff 	mov    %rax,-0x2c8(%rbp)
    c148:	48 8d 85 60 df ff ff 	lea    -0x20a0(%rbp),%rax
    c14f:	48 89 85 40 fd ff ff 	mov    %rax,-0x2c0(%rbp)
    c156:	48 8d 85 5c df ff ff 	lea    -0x20a4(%rbp),%rax
    c15d:	48 89 85 48 fd ff ff 	mov    %rax,-0x2b8(%rbp)
    c164:	48 8d 05 6d 70 00 00 	lea    0x706d(%rip),%rax        # 131d8 <g_207>
    c16b:	48 89 85 50 fd ff ff 	mov    %rax,-0x2b0(%rbp)
    c172:	48 c7 85 58 fd ff ff 	movq   $0x0,-0x2a8(%rbp)
    c179:	00 00 00 00 
    c17d:	48 8d 85 64 df ff ff 	lea    -0x209c(%rbp),%rax
    c184:	48 89 85 60 fd ff ff 	mov    %rax,-0x2a0(%rbp)
    c18b:	48 8d 05 e2 72 00 00 	lea    0x72e2(%rip),%rax        # 13474 <g_595+0x14>
    c192:	48 89 85 68 fd ff ff 	mov    %rax,-0x298(%rbp)
    c199:	48 8d 85 6c df ff ff 	lea    -0x2094(%rbp),%rax
    c1a0:	48 89 85 70 fd ff ff 	mov    %rax,-0x290(%rbp)
    c1a7:	48 c7 85 78 fd ff ff 	movq   $0x0,-0x288(%rbp)
    c1ae:	00 00 00 00 
    c1b2:	48 8d 85 5c df ff ff 	lea    -0x20a4(%rbp),%rax
    c1b9:	48 89 85 80 fd ff ff 	mov    %rax,-0x280(%rbp)
    c1c0:	48 8d 85 6c df ff ff 	lea    -0x2094(%rbp),%rax
    c1c7:	48 89 85 88 fd ff ff 	mov    %rax,-0x278(%rbp)
    c1ce:	48 8d 85 64 df ff ff 	lea    -0x209c(%rbp),%rax
    c1d5:	48 89 85 90 fd ff ff 	mov    %rax,-0x270(%rbp)
    c1dc:	48 8d 05 fd 6f 00 00 	lea    0x6ffd(%rip),%rax        # 131e0 <g_240>
    c1e3:	48 89 85 98 fd ff ff 	mov    %rax,-0x268(%rbp)
    c1ea:	48 8d 05 e7 6f 00 00 	lea    0x6fe7(%rip),%rax        # 131d8 <g_207>
    c1f1:	48 89 85 a0 fd ff ff 	mov    %rax,-0x260(%rbp)
    c1f8:	48 8d 05 e1 6f 00 00 	lea    0x6fe1(%rip),%rax        # 131e0 <g_240>
    c1ff:	48 89 85 a8 fd ff ff 	mov    %rax,-0x258(%rbp)
    c206:	48 8d 85 64 df ff ff 	lea    -0x209c(%rbp),%rax
    c20d:	48 89 85 b0 fd ff ff 	mov    %rax,-0x250(%rbp)
    c214:	48 8d 05 59 72 00 00 	lea    0x7259(%rip),%rax        # 13474 <g_595+0x14>
    c21b:	48 89 85 b8 fd ff ff 	mov    %rax,-0x248(%rbp)
    c222:	48 8d 85 64 df ff ff 	lea    -0x209c(%rbp),%rax
    c229:	48 89 85 c0 fd ff ff 	mov    %rax,-0x240(%rbp)
    c230:	48 8d 05 b1 70 00 00 	lea    0x70b1(%rip),%rax        # 132e8 <g_469>
    c237:	48 89 85 c8 fd ff ff 	mov    %rax,-0x238(%rbp)
    c23e:	48 8d 85 54 df ff ff 	lea    -0x20ac(%rbp),%rax
    c245:	48 89 85 d0 fd ff ff 	mov    %rax,-0x230(%rbp)
    c24c:	48 8d 85 6c df ff ff 	lea    -0x2094(%rbp),%rax
    c253:	48 89 85 d8 fd ff ff 	mov    %rax,-0x228(%rbp)
    c25a:	48 8d 85 60 df ff ff 	lea    -0x20a0(%rbp),%rax
    c261:	48 89 85 e0 fd ff ff 	mov    %rax,-0x220(%rbp)
    c268:	48 8d 05 89 6e 00 00 	lea    0x6e89(%rip),%rax        # 130f8 <g_74>
    c26f:	48 89 85 e8 fd ff ff 	mov    %rax,-0x218(%rbp)
    c276:	48 8d 85 64 df ff ff 	lea    -0x209c(%rbp),%rax
    c27d:	48 89 85 f0 fd ff ff 	mov    %rax,-0x210(%rbp)
    c284:	48 8d 85 54 df ff ff 	lea    -0x20ac(%rbp),%rax
    c28b:	48 89 85 f8 fd ff ff 	mov    %rax,-0x208(%rbp)
    c292:	48 8d 05 df 71 00 00 	lea    0x71df(%rip),%rax        # 13478 <g_595+0x18>
    c299:	48 89 85 00 fe ff ff 	mov    %rax,-0x200(%rbp)
    c2a0:	48 8d 05 41 70 00 00 	lea    0x7041(%rip),%rax        # 132e8 <g_469>
    c2a7:	48 89 85 08 fe ff ff 	mov    %rax,-0x1f8(%rbp)
    c2ae:	48 8d 05 bf 71 00 00 	lea    0x71bf(%rip),%rax        # 13474 <g_595+0x14>
    c2b5:	48 89 85 10 fe ff ff 	mov    %rax,-0x1f0(%rbp)
    c2bc:	48 c7 85 18 fe ff ff 	movq   $0x0,-0x1e8(%rbp)
    c2c3:	00 00 00 00 
    c2c7:	48 8d 85 64 df ff ff 	lea    -0x209c(%rbp),%rax
    c2ce:	48 89 85 20 fe ff ff 	mov    %rax,-0x1e0(%rbp)
    c2d5:	48 8d 85 6c df ff ff 	lea    -0x2094(%rbp),%rax
    c2dc:	48 89 85 28 fe ff ff 	mov    %rax,-0x1d8(%rbp)
    c2e3:	48 8d 05 3a 6d 00 00 	lea    0x6d3a(%rip),%rax        # 13024 <g_10>
    c2ea:	48 89 85 30 fe ff ff 	mov    %rax,-0x1d0(%rbp)
    c2f1:	48 8d 85 54 df ff ff 	lea    -0x20ac(%rbp),%rax
    c2f8:	48 89 85 38 fe ff ff 	mov    %rax,-0x1c8(%rbp)
    c2ff:	48 8d 05 d2 6e 00 00 	lea    0x6ed2(%rip),%rax        # 131d8 <g_207>
    c306:	48 89 85 40 fe ff ff 	mov    %rax,-0x1c0(%rbp)
    c30d:	48 8d 85 68 df ff ff 	lea    -0x2098(%rbp),%rax
    c314:	48 89 85 48 fe ff ff 	mov    %rax,-0x1b8(%rbp)
    c31b:	48 8d 85 64 df ff ff 	lea    -0x209c(%rbp),%rax
    c322:	48 89 85 50 fe ff ff 	mov    %rax,-0x1b0(%rbp)
    c329:	48 8d 85 6c df ff ff 	lea    -0x2094(%rbp),%rax
    c330:	48 89 85 58 fe ff ff 	mov    %rax,-0x1a8(%rbp)
    c337:	48 c7 85 60 fe ff ff 	movq   $0x0,-0x1a0(%rbp)
    c33e:	00 00 00 00 
    c342:	48 8d 85 5c df ff ff 	lea    -0x20a4(%rbp),%rax
    c349:	48 89 85 68 fe ff ff 	mov    %rax,-0x198(%rbp)
    c350:	48 8d 85 6c df ff ff 	lea    -0x2094(%rbp),%rax
    c357:	48 89 85 70 fe ff ff 	mov    %rax,-0x190(%rbp)
    c35e:	48 8d 85 6c df ff ff 	lea    -0x2094(%rbp),%rax
    c365:	48 89 85 78 fe ff ff 	mov    %rax,-0x188(%rbp)
    c36c:	48 c7 85 80 fe ff ff 	movq   $0x0,-0x180(%rbp)
    c373:	00 00 00 00 
    c377:	48 8d 05 7a 6d 00 00 	lea    0x6d7a(%rip),%rax        # 130f8 <g_74>
    c37e:	48 89 85 88 fe ff ff 	mov    %rax,-0x178(%rbp)
    c385:	48 c7 85 90 fe ff ff 	movq   $0x0,-0x170(%rbp)
    c38c:	00 00 00 00 
    c390:	48 8d 85 68 df ff ff 	lea    -0x2098(%rbp),%rax
    c397:	48 89 85 98 fe ff ff 	mov    %rax,-0x168(%rbp)
    c39e:	48 8d 85 64 df ff ff 	lea    -0x209c(%rbp),%rax
    c3a5:	48 89 85 a0 fe ff ff 	mov    %rax,-0x160(%rbp)
    c3ac:	48 8d 85 54 df ff ff 	lea    -0x20ac(%rbp),%rax
    c3b3:	48 89 85 a8 fe ff ff 	mov    %rax,-0x158(%rbp)
    c3ba:	48 8d 05 27 6f 00 00 	lea    0x6f27(%rip),%rax        # 132e8 <g_469>
    c3c1:	48 89 85 b0 fe ff ff 	mov    %rax,-0x150(%rbp)
    c3c8:	48 8d 85 58 df ff ff 	lea    -0x20a8(%rbp),%rax
    c3cf:	48 89 85 b8 fe ff ff 	mov    %rax,-0x148(%rbp)
    c3d6:	48 8d 85 64 df ff ff 	lea    -0x209c(%rbp),%rax
    c3dd:	48 89 85 c0 fe ff ff 	mov    %rax,-0x140(%rbp)
    c3e4:	48 8d 85 54 df ff ff 	lea    -0x20ac(%rbp),%rax
    c3eb:	48 89 85 c8 fe ff ff 	mov    %rax,-0x138(%rbp)
    c3f2:	48 8d 85 60 df ff ff 	lea    -0x20a0(%rbp),%rax
    c3f9:	48 89 85 d0 fe ff ff 	mov    %rax,-0x130(%rbp)
    c400:	48 8d 05 d9 6d 00 00 	lea    0x6dd9(%rip),%rax        # 131e0 <g_240>
    c407:	48 89 85 d8 fe ff ff 	mov    %rax,-0x128(%rbp)
    c40e:	48 c7 85 e0 fe ff ff 	movq   $0x0,-0x120(%rbp)
    c415:	00 00 00 00 
    c419:	48 8d 85 54 df ff ff 	lea    -0x20ac(%rbp),%rax
    c420:	48 89 85 e8 fe ff ff 	mov    %rax,-0x118(%rbp)
    c427:	48 c7 85 f0 fe ff ff 	movq   $0x0,-0x110(%rbp)
    c42e:	00 00 00 00 
    c432:	48 8d 85 6c df ff ff 	lea    -0x2094(%rbp),%rax
    c439:	48 89 85 f8 fe ff ff 	mov    %rax,-0x108(%rbp)
    c440:	48 8d 05 a1 6e 00 00 	lea    0x6ea1(%rip),%rax        # 132e8 <g_469>
    c447:	48 89 85 00 ff ff ff 	mov    %rax,-0x100(%rbp)
    c44e:	48 8d 85 58 df ff ff 	lea    -0x20a8(%rbp),%rax
    c455:	48 89 85 08 ff ff ff 	mov    %rax,-0xf8(%rbp)
    c45c:	48 8d 85 54 df ff ff 	lea    -0x20ac(%rbp),%rax
    c463:	48 89 85 10 ff ff ff 	mov    %rax,-0xf0(%rbp)
    c46a:	48 8d 85 54 df ff ff 	lea    -0x20ac(%rbp),%rax
    c471:	48 89 85 18 ff ff ff 	mov    %rax,-0xe8(%rbp)
    c478:	48 8d 85 58 df ff ff 	lea    -0x20a8(%rbp),%rax
    c47f:	48 89 85 20 ff ff ff 	mov    %rax,-0xe0(%rbp)
    c486:	48 8d 85 5c df ff ff 	lea    -0x20a4(%rbp),%rax
    c48d:	48 89 85 28 ff ff ff 	mov    %rax,-0xd8(%rbp)
    c494:	48 c7 85 30 ff ff ff 	movq   $0x0,-0xd0(%rbp)
    c49b:	00 00 00 00 
    c49f:	48 8d 05 3a 6d 00 00 	lea    0x6d3a(%rip),%rax        # 131e0 <g_240>
    c4a6:	48 89 85 38 ff ff ff 	mov    %rax,-0xc8(%rbp)
    c4ad:	48 8d 85 60 df ff ff 	lea    -0x20a0(%rbp),%rax
    c4b4:	48 89 85 40 ff ff ff 	mov    %rax,-0xc0(%rbp)
    c4bb:	48 8d 05 26 6e 00 00 	lea    0x6e26(%rip),%rax        # 132e8 <g_469>
    c4c2:	48 89 85 48 ff ff ff 	mov    %rax,-0xb8(%rbp)
    c4c9:	48 8d 85 54 df ff ff 	lea    -0x20ac(%rbp),%rax
    c4d0:	48 89 85 50 ff ff ff 	mov    %rax,-0xb0(%rbp)
    c4d7:	48 8d 85 5c df ff ff 	lea    -0x20a4(%rbp),%rax
    c4de:	48 89 85 58 ff ff ff 	mov    %rax,-0xa8(%rbp)
    c4e5:	48 8d 85 5c df ff ff 	lea    -0x20a4(%rbp),%rax
    c4ec:	48 89 85 60 ff ff ff 	mov    %rax,-0xa0(%rbp)
    c4f3:	48 8d 85 54 df ff ff 	lea    -0x20ac(%rbp),%rax
    c4fa:	48 89 85 68 ff ff ff 	mov    %rax,-0x98(%rbp)
    c501:	48 c7 85 70 ff ff ff 	movq   $0x0,-0x90(%rbp)
    c508:	00 00 00 00 
    c50c:	48 8d 85 5c df ff ff 	lea    -0x20a4(%rbp),%rax
    c513:	48 89 85 78 ff ff ff 	mov    %rax,-0x88(%rbp)
    c51a:	48 8d 05 b7 6c 00 00 	lea    0x6cb7(%rip),%rax        # 131d8 <g_207>
    c521:	48 89 45 80          	mov    %rax,-0x80(%rbp)
    c525:	48 c7 45 88 00 00 00 	movq   $0x0,-0x78(%rbp)
    c52c:	00 
    c52d:	48 8d 05 a4 6c 00 00 	lea    0x6ca4(%rip),%rax        # 131d8 <g_207>
    c534:	48 89 45 90          	mov    %rax,-0x70(%rbp)
    c538:	48 8d 05 35 6f 00 00 	lea    0x6f35(%rip),%rax        # 13474 <g_595+0x14>
    c53f:	48 89 45 98          	mov    %rax,-0x68(%rbp)
    c543:	48 8d 05 9e 6d 00 00 	lea    0x6d9e(%rip),%rax        # 132e8 <g_469>
    c54a:	48 89 45 a0          	mov    %rax,-0x60(%rbp)
    c54e:	48 c7 45 a8 00 00 00 	movq   $0x0,-0x58(%rbp)
    c555:	00 
    c556:	48 8d 85 68 df ff ff 	lea    -0x2098(%rbp),%rax
    c55d:	48 89 45 b0          	mov    %rax,-0x50(%rbp)
    c561:	48 8d 85 6c df ff ff 	lea    -0x2094(%rbp),%rax
    c568:	48 89 45 b8          	mov    %rax,-0x48(%rbp)
    c56c:	c7 85 d0 df ff ff 00 	movl   $0x0,-0x2030(%rbp)
    c573:	00 00 00 
    c576:	eb 51                	jmp    c5c9 <func_86+0x35c8>
    c578:	c7 85 d4 df ff ff 00 	movl   $0x0,-0x202c(%rbp)
    c57f:	00 00 00 
    c582:	eb 35                	jmp    c5b9 <func_86+0x35b8>
    c584:	8b 85 d4 df ff ff    	mov    -0x202c(%rbp),%eax
    c58a:	48 63 c8             	movslq %eax,%rcx
    c58d:	8b 85 d0 df ff ff    	mov    -0x2030(%rbp),%eax
    c593:	48 63 d0             	movslq %eax,%rdx
    c596:	48 89 d0             	mov    %rdx,%rax
    c599:	48 01 c0             	add    %rax,%rax
    c59c:	48 01 d0             	add    %rdx,%rax
    c59f:	48 8d 5d d0          	lea    -0x30(%rbp),%rbx
    c5a3:	48 01 d8             	add    %rbx,%rax
    c5a6:	48 01 c8             	add    %rcx,%rax
    c5a9:	48 2d fc 1b 00 00    	sub    $0x1bfc,%rax
    c5af:	c6 00 7b             	movb   $0x7b,(%rax)
    c5b2:	83 85 d4 df ff ff 01 	addl   $0x1,-0x202c(%rbp)
    c5b9:	83 bd d4 df ff ff 02 	cmpl   $0x2,-0x202c(%rbp)
    c5c0:	7e c2                	jle    c584 <func_86+0x3583>
    c5c2:	83 85 d0 df ff ff 01 	addl   $0x1,-0x2030(%rbp)
    c5c9:	83 bd d0 df ff ff 00 	cmpl   $0x0,-0x2030(%rbp)
    c5d0:	7e a6                	jle    c578 <func_86+0x3577>
    c5d2:	48 8b 15 cf 8b 00 00 	mov    0x8bcf(%rip),%rdx        # 151a8 <g_717>
    c5d9:	48 8b 85 00 e3 ff ff 	mov    -0x1d00(%rbp),%rax
    c5e0:	48 89 10             	mov    %rdx,(%rax)
    c5e3:	48 8b 85 00 e3 ff ff 	mov    -0x1d00(%rbp),%rax
    c5ea:	48 8b 10             	mov    (%rax),%rdx
    c5ed:	48 8b 85 08 e3 ff ff 	mov    -0x1cf8(%rbp),%rax
    c5f4:	48 89 10             	mov    %rdx,(%rax)
    c5f7:	83 ad 78 df ff ff 01 	subl   $0x1,-0x2088(%rbp)
    c5fe:	48 8b 05 c3 7f 00 00 	mov    0x7fc3(%rip),%rax        # 145c8 <g_286>
    c605:	48 8b 00             	mov    (%rax),%rax
    c608:	8b 00                	mov    (%rax),%eax
    c60a:	85 c0                	test   %eax,%eax
    c60c:	74 06                	je     c614 <func_86+0x3613>
    c60e:	90                   	nop
    c60f:	e9 56 04 00 00       	jmpq   ca6a <func_86+0x3a69>
    c614:	66 83 bd 42 df ff ff 	cmpw   $0x0,-0x20be(%rbp)
    c61b:	00 
    c61c:	0f 85 47 04 00 00    	jne    ca69 <func_86+0x3a68>
    c622:	c7 85 ac df ff ff 05 	movl   $0x5,-0x2054(%rbp)
    c629:	00 00 00 
    c62c:	e9 cc 03 00 00       	jmpq   c9fd <func_86+0x39fc>
    c631:	48 c7 85 28 e3 ff ff 	movq   $0x0,-0x1cd8(%rbp)
    c638:	00 00 00 00 
    c63c:	c7 85 70 e0 ff ff fd 	movl   $0xfffffffd,-0x1f90(%rbp)
    c643:	ff ff ff 
    c646:	c7 85 74 e0 ff ff c9 	movl   $0x4b1179c9,-0x1f8c(%rbp)
    c64d:	79 11 4b 
    c650:	48 8d 05 f1 6d 00 00 	lea    0x6df1(%rip),%rax        # 13448 <g_530>
    c657:	48 89 85 30 e3 ff ff 	mov    %rax,-0x1cd0(%rbp)
    c65e:	c7 85 d8 df ff ff 00 	movl   $0x0,-0x2028(%rbp)
    c665:	00 00 00 
    c668:	eb 1e                	jmp    c688 <func_86+0x3687>
    c66a:	8b 85 d8 df ff ff    	mov    -0x2028(%rbp),%eax
    c670:	48 98                	cltq   
    c672:	48 8d 95 d0 e0 ff ff 	lea    -0x1f30(%rbp),%rdx
    c679:	48 89 94 c5 f0 f7 ff 	mov    %rdx,-0x810(%rbp,%rax,8)
    c680:	ff 
    c681:	83 85 d8 df ff ff 01 	addl   $0x1,-0x2028(%rbp)
    c688:	83 bd d8 df ff ff 02 	cmpl   $0x2,-0x2028(%rbp)
    c68f:	7e d9                	jle    c66a <func_86+0x3669>
    c691:	0f b6 85 1c df ff ff 	movzbl -0x20e4(%rbp),%eax
    c698:	44 0f be e0          	movsbl %al,%r12d
    c69c:	48 8b 85 e8 e0 ff ff 	mov    -0x1f18(%rbp),%rax
    c6a3:	44 8b 28             	mov    (%rax),%r13d
    c6a6:	44 0f b6 b5 1c df ff 	movzbl -0x20e4(%rbp),%r14d
    c6ad:	ff 
    c6ae:	0f b7 05 27 6b 00 00 	movzwl 0x6b27(%rip),%eax        # 131dc <g_232>
    c6b5:	44 0f b6 f8          	movzbl %al,%r15d
    c6b9:	48 8b 05 e0 7e 00 00 	mov    0x7ee0(%rip),%rax        # 145a0 <g_153>
    c6c0:	0f b6 00             	movzbl (%rax),%eax
    c6c3:	84 c0                	test   %al,%al
    c6c5:	74 7c                	je     c743 <func_86+0x3742>
    c6c7:	8b 85 c8 e3 ff ff    	mov    -0x1c38(%rbp),%eax
    c6cd:	89 c0                	mov    %eax,%eax
    c6cf:	48 89 85 10 df ff ff 	mov    %rax,-0x20f0(%rbp)
    c6d6:	0f b6 85 d0 e0 ff ff 	movzbl -0x1f30(%rbp),%eax
    c6dd:	48 0f be d8          	movsbq %al,%rbx
    c6e1:	8b 05 11 6b 00 00    	mov    0x6b11(%rip),%eax        # 131f8 <g_416>
    c6e7:	89 c0                	mov    %eax,%eax
    c6e9:	48 89 c6             	mov    %rax,%rsi
    c6ec:	48 bf c0 d8 aa e0 a5 	movabs $0x4f9554a5e0aad8c0,%rdi
    c6f3:	54 95 4f 
    c6f6:	e8 85 99 ff ff       	callq  6080 <safe_mod_func_uint64_t_u_u>
    c6fb:	48 39 c3             	cmp    %rax,%rbx
    c6fe:	0f 97 c0             	seta   %al
    c701:	0f b6 c0             	movzbl %al,%eax
    c704:	be 6d 00 00 00       	mov    $0x6d,%esi
    c709:	89 c7                	mov    %eax,%edi
    c70b:	e8 68 94 ff ff       	callq  5b78 <safe_sub_func_uint8_t_u_u>
    c710:	66 83 bd 50 df ff ff 	cmpw   $0x0,-0x20b0(%rbp)
    c717:	00 
    c718:	0f 9f c0             	setg   %al
    c71b:	0f b6 c0             	movzbl %al,%eax
    c71e:	48 8b b5 10 df ff ff 	mov    -0x20f0(%rbp),%rsi
    c725:	48 89 c7             	mov    %rax,%rdi
    c728:	e8 01 99 ff ff       	callq  602e <safe_add_func_uint64_t_u_u>
    c72d:	48 3d f7 ff 00 00    	cmp    $0xfff7,%rax
    c733:	0f 96 c0             	setbe  %al
    c736:	0f b6 d0             	movzbl %al,%edx
    c739:	0f b6 85 1c df ff ff 	movzbl -0x20e4(%rbp),%eax
    c740:	48 39 c2             	cmp    %rax,%rdx
    c743:	48 8b 05 7e 7e 00 00 	mov    0x7e7e(%rip),%rax        # 145c8 <g_286>
    c74a:	48 8b 10             	mov    (%rax),%rdx
    c74d:	48 8b 85 f0 e0 ff ff 	mov    -0x1f10(%rbp),%rax
    c754:	8b 00                	mov    (%rax),%eax
    c756:	48 8b 1d 9b 7e 00 00 	mov    0x7e9b(%rip),%rbx        # 145f8 <g_578>
    c75d:	48 89 d6             	mov    %rdx,%rsi
    c760:	89 c7                	mov    %eax,%edi
    c762:	e8 c5 c7 ff ff       	callq  8f2c <func_43>
    c767:	48 89 03             	mov    %rax,(%rbx)
    c76a:	48 8b 03             	mov    (%rbx),%rax
    c76d:	48 39 85 28 df ff ff 	cmp    %rax,-0x20d8(%rbp)
    c774:	74 0d                	je     c783 <func_86+0x3782>
    c776:	48 8b 05 53 7e 00 00 	mov    0x7e53(%rip),%rax        # 145d0 <g_383>
    c77d:	0f b7 00             	movzwl (%rax),%eax
    c780:	66 85 c0             	test   %ax,%ax
    c783:	44 89 fe             	mov    %r15d,%esi
    c786:	bf 00 00 00 00       	mov    $0x0,%edi
    c78b:	e8 1e 94 ff ff       	callq  5bae <safe_mod_func_uint8_t_u_u>
    c790:	0f b6 c0             	movzbl %al,%eax
    c793:	4c 89 f6             	mov    %r14,%rsi
    c796:	48 89 c7             	mov    %rax,%rdi
    c799:	e8 16 92 ff ff       	callq  59b4 <safe_mod_func_int64_t_s_s>
    c79e:	48 83 bd 20 e1 ff ff 	cmpq   $0x0,-0x1ee0(%rbp)
    c7a5:	00 
    c7a6:	0f 94 c0             	sete   %al
    c7a9:	0f b6 c0             	movzbl %al,%eax
    c7ac:	44 89 ee             	mov    %r13d,%esi
    c7af:	89 c7                	mov    %eax,%edi
    c7b1:	e8 4f 94 ff ff       	callq  5c05 <safe_lshift_func_uint8_t_u_s>
    c7b6:	0f b6 c0             	movzbl %al,%eax
    c7b9:	89 85 18 e8 ff ff    	mov    %eax,-0x17e8(%rbp)
    c7bf:	8b 85 18 e8 ff ff    	mov    -0x17e8(%rbp),%eax
    c7c5:	0f be c0             	movsbl %al,%eax
    c7c8:	44 89 e6             	mov    %r12d,%esi
    c7cb:	89 c7                	mov    %eax,%edi
    c7cd:	e8 20 8a ff ff       	callq  51f2 <safe_sub_func_int8_t_s_s>
    c7d2:	0f be c0             	movsbl %al,%eax
    c7d5:	be 81 be 97 5d       	mov    $0x5d97be81,%esi
    c7da:	89 c7                	mov    %eax,%edi
    c7dc:	e8 1e 8f ff ff       	callq  56ff <safe_div_func_int32_t_s_s>
    c7e1:	89 c2                	mov    %eax,%edx
    c7e3:	8b 85 70 df ff ff    	mov    -0x2090(%rbp),%eax
    c7e9:	39 c2                	cmp    %eax,%edx
    c7eb:	0f 96 c0             	setbe  %al
    c7ee:	0f b6 c0             	movzbl %al,%eax
    c7f1:	89 85 20 e0 ff ff    	mov    %eax,-0x1fe0(%rbp)
    c7f7:	80 ad 35 df ff ff 01 	subb   $0x1,-0x20cb(%rbp)
    c7fe:	48 8b 85 f0 e0 ff ff 	mov    -0x1f10(%rbp),%rax
    c805:	8b 00                	mov    (%rax),%eax
    c807:	89 85 10 df ff ff    	mov    %eax,-0x20f0(%rbp)
    c80d:	48 8b 85 e8 e0 ff ff 	mov    -0x1f18(%rbp),%rax
    c814:	8b 00                	mov    (%rax),%eax
    c816:	0f b6 d8             	movzbl %al,%ebx
    c819:	48 8b 85 20 e1 ff ff 	mov    -0x1ee0(%rbp),%rax
    c820:	48 8b 95 b0 e2 ff ff 	mov    -0x1d50(%rbp),%rdx
    c827:	48 89 10             	mov    %rdx,(%rax)
    c82a:	48 8b 85 20 e1 ff ff 	mov    -0x1ee0(%rbp),%rax
    c831:	48 8b 00             	mov    (%rax),%rax
    c834:	48 39 85 b0 e2 ff ff 	cmp    %rax,-0x1d50(%rbp)
    c83b:	0f 95 c0             	setne  %al
    c83e:	44 0f b6 f8          	movzbl %al,%r15d
    c842:	48 8b 85 28 df ff ff 	mov    -0x20d8(%rbp),%rax
    c849:	44 8b 20             	mov    (%rax),%r12d
    c84c:	44 0f b6 ad 1c df ff 	movzbl -0x20e4(%rbp),%r13d
    c853:	ff 
    c854:	48 8b 85 f8 e2 ff ff 	mov    -0x1d08(%rbp),%rax
    c85b:	48 89 85 f8 f0 ff ff 	mov    %rax,-0xf08(%rbp)
    c862:	48 8b 85 f8 f0 ff ff 	mov    -0xf08(%rbp),%rax
    c869:	48 39 85 f0 e2 ff ff 	cmp    %rax,-0x1d10(%rbp)
    c870:	0f 94 c0             	sete   %al
    c873:	89 c2                	mov    %eax,%edx
    c875:	48 8b 85 90 e0 ff ff 	mov    -0x1f70(%rbp),%rax
    c87c:	48 8b 00             	mov    (%rax),%rax
    c87f:	8b 00                	mov    (%rax),%eax
    c881:	f7 d0                	not    %eax
    c883:	21 d0                	and    %edx,%eax
    c885:	0f b6 c0             	movzbl %al,%eax
    c888:	89 c6                	mov    %eax,%esi
    c88a:	bf 01 00 00 00       	mov    $0x1,%edi
    c88f:	e8 e4 92 ff ff       	callq  5b78 <safe_sub_func_uint8_t_u_u>
    c894:	0f b6 c0             	movzbl %al,%eax
    c897:	48 be 2b 5d 45 9e c4 	movabs $0xb3a69c49e455d2b,%rsi
    c89e:	69 3a 0b 
    c8a1:	48 89 c7             	mov    %rax,%rdi
    c8a4:	e8 85 97 ff ff       	callq  602e <safe_add_func_uint64_t_u_u>
    c8a9:	49 89 c6             	mov    %rax,%r14
    c8ac:	48 8b 05 dd 7f 00 00 	mov    0x7fdd(%rip),%rax        # 14890 <g_802>
    c8b3:	48 89 05 d6 7f 00 00 	mov    %rax,0x7fd6(%rip)        # 14890 <g_802>
    c8ba:	48 8b 05 cf 7f 00 00 	mov    0x7fcf(%rip),%rax        # 14890 <g_802>
    c8c1:	48 85 c0             	test   %rax,%rax
    c8c4:	0f 95 c0             	setne  %al
    c8c7:	0f b6 c0             	movzbl %al,%eax
    c8ca:	be 03 00 00 00       	mov    $0x3,%esi
    c8cf:	89 c7                	mov    %eax,%edi
    c8d1:	e8 1f 8b ff ff       	callq  53f5 <safe_mul_func_int16_t_s_s>
    c8d6:	48 0f bf c0          	movswq %ax,%rax
    c8da:	49 39 c6             	cmp    %rax,%r14
    c8dd:	0f 94 c0             	sete   %al
    c8e0:	0f b6 c0             	movzbl %al,%eax
    c8e3:	44 89 ee             	mov    %r13d,%esi
    c8e6:	89 c7                	mov    %eax,%edi
    c8e8:	e8 a6 92 ff ff       	callq  5b93 <safe_mul_func_uint8_t_u_u>
    c8ed:	38 85 1c df ff ff    	cmp    %al,-0x20e4(%rbp)
    c8f3:	0f 94 c0             	sete   %al
    c8f6:	0f b6 f0             	movzbl %al,%esi
    c8f9:	48 8b 85 18 e1 ff ff 	mov    -0x1ee8(%rbp),%rax
    c900:	48 8b 00             	mov    (%rax),%rax
    c903:	48 8d 48 ff          	lea    -0x1(%rax),%rcx
    c907:	48 8b 95 18 e1 ff ff 	mov    -0x1ee8(%rbp),%rdx
    c90e:	48 89 0a             	mov    %rcx,(%rdx)
    c911:	48 8b 95 30 e3 ff ff 	mov    -0x1cd0(%rbp),%rdx
    c918:	48 89 02             	mov    %rax,(%rdx)
    c91b:	48 8b 85 30 e3 ff ff 	mov    -0x1cd0(%rbp),%rax
    c922:	48 8b 10             	mov    (%rax),%rdx
    c925:	48 8b 85 f0 e2 ff ff 	mov    -0x1d10(%rbp),%rax
    c92c:	48 8b 08             	mov    (%rax),%rcx
    c92f:	48 63 c6             	movslq %esi,%rax
    c932:	48 31 c1             	xor    %rax,%rcx
    c935:	48 8b 85 f0 e2 ff ff 	mov    -0x1d10(%rbp),%rax
    c93c:	48 89 08             	mov    %rcx,(%rax)
    c93f:	48 8b 85 f0 e2 ff ff 	mov    -0x1d10(%rbp),%rax
    c946:	48 8b 00             	mov    (%rax),%rax
    c949:	48 39 c2             	cmp    %rax,%rdx
    c94c:	0f 97 c0             	seta   %al
    c94f:	0f b6 c0             	movzbl %al,%eax
    c952:	39 85 68 e0 ff ff    	cmp    %eax,-0x1f98(%rbp)
    c958:	75 10                	jne    c96a <func_86+0x3969>
    c95a:	48 8b 85 90 e0 ff ff 	mov    -0x1f70(%rbp),%rax
    c961:	48 8b 00             	mov    (%rax),%rax
    c964:	8b 00                	mov    (%rax),%eax
    c966:	85 c0                	test   %eax,%eax
    c968:	74 07                	je     c971 <func_86+0x3970>
    c96a:	b8 01 00 00 00       	mov    $0x1,%eax
    c96f:	eb 05                	jmp    c976 <func_86+0x3975>
    c971:	b8 00 00 00 00       	mov    $0x0,%eax
    c976:	44 89 e6             	mov    %r12d,%esi
    c979:	89 c7                	mov    %eax,%edi
    c97b:	e8 85 8c ff ff       	callq  5605 <safe_sub_func_int32_t_s_s>
    c980:	85 c0                	test   %eax,%eax
    c982:	75 0f                	jne    c993 <func_86+0x3992>
    c984:	48 8b 05 45 7c 00 00 	mov    0x7c45(%rip),%rax        # 145d0 <g_383>
    c98b:	0f b7 00             	movzwl (%rax),%eax
    c98e:	66 85 c0             	test   %ax,%ax
    c991:	74 07                	je     c99a <func_86+0x3999>
    c993:	b8 01 00 00 00       	mov    $0x1,%eax
    c998:	eb 05                	jmp    c99f <func_86+0x399e>
    c99a:	b8 00 00 00 00       	mov    $0x0,%eax
    c99f:	44 39 f8             	cmp    %r15d,%eax
    c9a2:	0f 9d c0             	setge  %al
    c9a5:	0f b6 c0             	movzbl %al,%eax
    c9a8:	89 de                	mov    %ebx,%esi
    c9aa:	89 c7                	mov    %eax,%edi
    c9ac:	e8 c7 91 ff ff       	callq  5b78 <safe_sub_func_uint8_t_u_u>
    c9b1:	0f b6 c0             	movzbl %al,%eax
    c9b4:	25 fb 00 00 00       	and    $0xfb,%eax
    c9b9:	8b b5 10 df ff ff    	mov    -0x20f0(%rbp),%esi
    c9bf:	89 c7                	mov    %eax,%edi
    c9c1:	e8 86 92 ff ff       	callq  5c4c <safe_lshift_func_uint8_t_u_u>
    c9c6:	0f b6 c0             	movzbl %al,%eax
    c9c9:	09 85 b0 df ff ff    	or     %eax,-0x2050(%rbp)
    c9cf:	48 8b 05 ea 7b 00 00 	mov    0x7bea(%rip),%rax        # 145c0 <g_255>
    c9d6:	48 8b 00             	mov    (%rax),%rax
    c9d9:	8b 00                	mov    (%rax),%eax
    c9db:	85 c0                	test   %eax,%eax
    c9dd:	75 2d                	jne    ca0c <func_86+0x3a0b>
    c9df:	8b 85 ac df ff ff    	mov    -0x2054(%rbp),%eax
    c9e5:	0f b7 c0             	movzwl %ax,%eax
    c9e8:	be 09 00 00 00       	mov    $0x9,%esi
    c9ed:	89 c7                	mov    %eax,%edi
    c9ef:	e8 2b 93 ff ff       	callq  5d1f <safe_sub_func_uint16_t_u_u>
    c9f4:	0f b7 c0             	movzwl %ax,%eax
    c9f7:	89 85 ac df ff ff    	mov    %eax,-0x2054(%rbp)
    c9fd:	83 bd ac df ff ff ff 	cmpl   $0xffffffff,-0x2054(%rbp)
    ca04:	0f 8c 27 fc ff ff    	jl     c631 <func_86+0x3630>
    ca0a:	eb 01                	jmp    ca0d <func_86+0x3a0c>
    ca0c:	90                   	nop
    ca0d:	48 8b 05 9c 7b 00 00 	mov    0x7b9c(%rip),%rax        # 145b0 <g_162>
    ca14:	8b 00                	mov    (%rax),%eax
    ca16:	89 85 dc e3 ff ff    	mov    %eax,-0x1c24(%rbp)
    ca1c:	8b 85 dc e3 ff ff    	mov    -0x1c24(%rbp),%eax
    ca22:	48 8b 95 b0 e2 ff ff 	mov    -0x1d50(%rbp),%rdx
    ca29:	48 8b 1a             	mov    (%rdx),%rbx
    ca2c:	48 8d 95 d8 e0 ff ff 	lea    -0x1f28(%rbp),%rdx
    ca33:	48 89 d6             	mov    %rdx,%rsi
    ca36:	89 c7                	mov    %eax,%edi
    ca38:	e8 ef c4 ff ff       	callq  8f2c <func_43>
    ca3d:	48 89 03             	mov    %rax,(%rbx)
    ca40:	8b 05 42 67 00 00    	mov    0x6742(%rip),%eax        # 13188 <g_149>
    ca46:	be 01 00 00 00       	mov    $0x1,%esi
    ca4b:	89 c7                	mov    %eax,%edi
    ca4d:	e8 7e 94 ff ff       	callq  5ed0 <safe_sub_func_uint32_t_u_u>
    ca52:	89 05 30 67 00 00    	mov    %eax,0x6730(%rip)        # 13188 <g_149>
    ca58:	8b 05 2a 67 00 00    	mov    0x672a(%rip),%eax        # 13188 <g_149>
    ca5e:	83 f8 01             	cmp    $0x1,%eax
    ca61:	0f 86 05 ec ff ff    	jbe    b66c <func_86+0x266b>
    ca67:	eb 01                	jmp    ca6a <func_86+0x3a69>
    ca69:	90                   	nop
    ca6a:	0f b6 05 83 66 00 00 	movzbl 0x6683(%rip),%eax        # 130f4 <g_56>
    ca71:	83 c0 01             	add    $0x1,%eax
    ca74:	88 05 7a 66 00 00    	mov    %al,0x667a(%rip)        # 130f4 <g_56>
    ca7a:	0f b6 05 73 66 00 00 	movzbl 0x6673(%rip),%eax        # 130f4 <g_56>
    ca81:	3c 02                	cmp    $0x2,%al
    ca83:	0f 8e 5f e5 ff ff    	jle    afe8 <func_86+0x1fe7>
    ca89:	eb 0f                	jmp    ca9a <func_86+0x3a99>
    ca8b:	48 8b 05 3e 7b 00 00 	mov    0x7b3e(%rip),%rax        # 145d0 <g_383>
    ca92:	0f b7 00             	movzwl (%rax),%eax
    ca95:	e9 c0 17 00 00       	jmpq   e25a <func_86+0x5259>
    ca9a:	48 8b 85 b8 e0 ff ff 	mov    -0x1f48(%rbp),%rax
    caa1:	48 8b 00             	mov    (%rax),%rax
    caa4:	48 8b 00             	mov    (%rax),%rax
    caa7:	8b 00                	mov    (%rax),%eax
    caa9:	85 c0                	test   %eax,%eax
    caab:	0f 85 a1 17 00 00    	jne    e252 <func_86+0x5251>
    cab1:	c6 85 33 df ff ff 00 	movb   $0x0,-0x20cd(%rbp)
    cab8:	e9 5c 17 00 00       	jmpq   e219 <func_86+0x5218>
    cabd:	c7 85 38 e0 ff ff d1 	movl   $0x375c0fd1,-0x1fc8(%rbp)
    cac4:	0f 5c 37 
    cac7:	48 8d 85 3e df ff ff 	lea    -0x20c2(%rbp),%rax
    cace:	48 89 85 b8 e2 ff ff 	mov    %rax,-0x1d48(%rbp)
    cad5:	c7 85 3c e0 ff ff db 	movl   $0x6a0e48db,-0x1fc4(%rbp)
    cadc:	48 0e 6a 
    cadf:	c6 85 38 df ff ff a9 	movb   $0xa9,-0x20c8(%rbp)
    cae6:	66 c7 85 52 df ff ff 	movw   $0x1,-0x20ae(%rbp)
    caed:	01 00 
    caef:	48 8d 85 6c df ff ff 	lea    -0x2094(%rbp),%rax
    caf6:	48 89 85 c0 e0 ff ff 	mov    %rax,-0x1f40(%rbp)
    cafd:	48 c7 85 f8 e0 ff ff 	movq   $0xfffffffffffffff7,-0x1f08(%rbp)
    cb04:	f7 ff ff ff 
    cb08:	48 c7 85 c0 e2 ff ff 	movq   $0x0,-0x1d40(%rbp)
    cb0f:	00 00 00 00 
    cb13:	48 8d 05 9e 7a 00 00 	lea    0x7a9e(%rip),%rax        # 145b8 <g_256>
    cb1a:	48 89 85 f0 f7 ff ff 	mov    %rax,-0x810(%rbp)
    cb21:	48 8d 05 90 7a 00 00 	lea    0x7a90(%rip),%rax        # 145b8 <g_256>
    cb28:	48 89 85 f8 f7 ff ff 	mov    %rax,-0x808(%rbp)
    cb2f:	48 8d 05 82 7a 00 00 	lea    0x7a82(%rip),%rax        # 145b8 <g_256>
    cb36:	48 89 85 00 f8 ff ff 	mov    %rax,-0x800(%rbp)
    cb3d:	48 c7 85 08 f8 ff ff 	movq   $0x0,-0x7f8(%rbp)
    cb44:	00 00 00 00 
    cb48:	48 8d 05 69 7a 00 00 	lea    0x7a69(%rip),%rax        # 145b8 <g_256>
    cb4f:	48 89 85 10 f8 ff ff 	mov    %rax,-0x7f0(%rbp)
    cb56:	48 8d 85 c0 e0 ff ff 	lea    -0x1f40(%rbp),%rax
    cb5d:	48 89 85 18 f8 ff ff 	mov    %rax,-0x7e8(%rbp)
    cb64:	48 8d 85 c0 e0 ff ff 	lea    -0x1f40(%rbp),%rax
    cb6b:	48 89 85 20 f8 ff ff 	mov    %rax,-0x7e0(%rbp)
    cb72:	48 8d 85 c0 e0 ff ff 	lea    -0x1f40(%rbp),%rax
    cb79:	48 89 85 28 f8 ff ff 	mov    %rax,-0x7d8(%rbp)
    cb80:	48 8d 85 c0 e0 ff ff 	lea    -0x1f40(%rbp),%rax
    cb87:	48 89 85 30 f8 ff ff 	mov    %rax,-0x7d0(%rbp)
    cb8e:	48 8d 85 c0 e0 ff ff 	lea    -0x1f40(%rbp),%rax
    cb95:	48 89 85 38 f8 ff ff 	mov    %rax,-0x7c8(%rbp)
    cb9c:	48 8d 85 c0 e0 ff ff 	lea    -0x1f40(%rbp),%rax
    cba3:	48 89 85 40 f8 ff ff 	mov    %rax,-0x7c0(%rbp)
    cbaa:	48 8d 85 c0 e0 ff ff 	lea    -0x1f40(%rbp),%rax
    cbb1:	48 89 85 48 f8 ff ff 	mov    %rax,-0x7b8(%rbp)
    cbb8:	48 8d 05 f9 79 00 00 	lea    0x79f9(%rip),%rax        # 145b8 <g_256>
    cbbf:	48 89 85 50 f8 ff ff 	mov    %rax,-0x7b0(%rbp)
    cbc6:	48 8d 05 eb 79 00 00 	lea    0x79eb(%rip),%rax        # 145b8 <g_256>
    cbcd:	48 89 85 58 f8 ff ff 	mov    %rax,-0x7a8(%rbp)
    cbd4:	48 8d 05 dd 79 00 00 	lea    0x79dd(%rip),%rax        # 145b8 <g_256>
    cbdb:	48 89 85 60 f8 ff ff 	mov    %rax,-0x7a0(%rbp)
    cbe2:	48 c7 85 68 f8 ff ff 	movq   $0x0,-0x798(%rbp)
    cbe9:	00 00 00 00 
    cbed:	48 8d 05 c4 79 00 00 	lea    0x79c4(%rip),%rax        # 145b8 <g_256>
    cbf4:	48 89 85 70 f8 ff ff 	mov    %rax,-0x790(%rbp)
    cbfb:	48 8d 05 b6 79 00 00 	lea    0x79b6(%rip),%rax        # 145b8 <g_256>
    cc02:	48 89 85 78 f8 ff ff 	mov    %rax,-0x788(%rbp)
    cc09:	48 c7 85 80 f8 ff ff 	movq   $0x0,-0x780(%rbp)
    cc10:	00 00 00 00 
    cc14:	48 8d 05 9d 79 00 00 	lea    0x799d(%rip),%rax        # 145b8 <g_256>
    cc1b:	48 89 85 88 f8 ff ff 	mov    %rax,-0x778(%rbp)
    cc22:	48 8d 05 8f 79 00 00 	lea    0x798f(%rip),%rax        # 145b8 <g_256>
    cc29:	48 89 85 90 f8 ff ff 	mov    %rax,-0x770(%rbp)
    cc30:	48 8d 85 c0 e0 ff ff 	lea    -0x1f40(%rbp),%rax
    cc37:	48 89 85 98 f8 ff ff 	mov    %rax,-0x768(%rbp)
    cc3e:	48 8d 85 c0 e0 ff ff 	lea    -0x1f40(%rbp),%rax
    cc45:	48 89 85 a0 f8 ff ff 	mov    %rax,-0x760(%rbp)
    cc4c:	48 8d 05 65 79 00 00 	lea    0x7965(%rip),%rax        # 145b8 <g_256>
    cc53:	48 89 85 a8 f8 ff ff 	mov    %rax,-0x758(%rbp)
    cc5a:	48 8d 85 c0 e0 ff ff 	lea    -0x1f40(%rbp),%rax
    cc61:	48 89 85 b0 f8 ff ff 	mov    %rax,-0x750(%rbp)
    cc68:	48 8d 05 49 79 00 00 	lea    0x7949(%rip),%rax        # 145b8 <g_256>
    cc6f:	48 89 85 b8 f8 ff ff 	mov    %rax,-0x748(%rbp)
    cc76:	48 8d 85 c0 e0 ff ff 	lea    -0x1f40(%rbp),%rax
    cc7d:	48 89 85 c0 f8 ff ff 	mov    %rax,-0x740(%rbp)
    cc84:	48 8d 05 2d 79 00 00 	lea    0x792d(%rip),%rax        # 145b8 <g_256>
    cc8b:	48 89 85 c8 f8 ff ff 	mov    %rax,-0x738(%rbp)
    cc92:	48 8d 85 c0 e0 ff ff 	lea    -0x1f40(%rbp),%rax
    cc99:	48 89 85 d0 f8 ff ff 	mov    %rax,-0x730(%rbp)
    cca0:	48 c7 85 d8 f8 ff ff 	movq   $0x0,-0x728(%rbp)
    cca7:	00 00 00 00 
    ccab:	48 8d 85 c0 e0 ff ff 	lea    -0x1f40(%rbp),%rax
    ccb2:	48 89 85 e0 f8 ff ff 	mov    %rax,-0x720(%rbp)
    ccb9:	48 8d 05 f8 78 00 00 	lea    0x78f8(%rip),%rax        # 145b8 <g_256>
    ccc0:	48 89 85 e8 f8 ff ff 	mov    %rax,-0x718(%rbp)
    ccc7:	48 8d 05 ea 78 00 00 	lea    0x78ea(%rip),%rax        # 145b8 <g_256>
    ccce:	48 89 85 f0 f8 ff ff 	mov    %rax,-0x710(%rbp)
    ccd5:	48 c7 85 f8 f8 ff ff 	movq   $0x0,-0x708(%rbp)
    ccdc:	00 00 00 00 
    cce0:	48 8d 05 d1 78 00 00 	lea    0x78d1(%rip),%rax        # 145b8 <g_256>
    cce7:	48 89 85 00 f9 ff ff 	mov    %rax,-0x700(%rbp)
    ccee:	48 c7 85 08 f9 ff ff 	movq   $0x0,-0x6f8(%rbp)
    ccf5:	00 00 00 00 
    ccf9:	48 c7 85 10 f9 ff ff 	movq   $0x0,-0x6f0(%rbp)
    cd00:	00 00 00 00 
    cd04:	48 c7 85 18 f9 ff ff 	movq   $0x0,-0x6e8(%rbp)
    cd0b:	00 00 00 00 
    cd0f:	48 8d 85 c0 e0 ff ff 	lea    -0x1f40(%rbp),%rax
    cd16:	48 89 85 20 f9 ff ff 	mov    %rax,-0x6e0(%rbp)
    cd1d:	48 8d 05 94 78 00 00 	lea    0x7894(%rip),%rax        # 145b8 <g_256>
    cd24:	48 89 85 28 f9 ff ff 	mov    %rax,-0x6d8(%rbp)
    cd2b:	48 8d 05 86 78 00 00 	lea    0x7886(%rip),%rax        # 145b8 <g_256>
    cd32:	48 89 85 30 f9 ff ff 	mov    %rax,-0x6d0(%rbp)
    cd39:	48 8d 85 c0 e0 ff ff 	lea    -0x1f40(%rbp),%rax
    cd40:	48 89 85 38 f9 ff ff 	mov    %rax,-0x6c8(%rbp)
    cd47:	48 8d 85 c0 e0 ff ff 	lea    -0x1f40(%rbp),%rax
    cd4e:	48 89 85 40 f9 ff ff 	mov    %rax,-0x6c0(%rbp)
    cd55:	48 8d 05 5c 78 00 00 	lea    0x785c(%rip),%rax        # 145b8 <g_256>
    cd5c:	48 89 85 48 f9 ff ff 	mov    %rax,-0x6b8(%rbp)
    cd63:	48 8d 85 c0 e0 ff ff 	lea    -0x1f40(%rbp),%rax
    cd6a:	48 89 85 50 f9 ff ff 	mov    %rax,-0x6b0(%rbp)
    cd71:	48 8d 85 c0 e0 ff ff 	lea    -0x1f40(%rbp),%rax
    cd78:	48 89 85 58 f9 ff ff 	mov    %rax,-0x6a8(%rbp)
    cd7f:	48 c7 85 60 f9 ff ff 	movq   $0x0,-0x6a0(%rbp)
    cd86:	00 00 00 00 
    cd8a:	48 8d 05 27 78 00 00 	lea    0x7827(%rip),%rax        # 145b8 <g_256>
    cd91:	48 89 85 68 f9 ff ff 	mov    %rax,-0x698(%rbp)
    cd98:	48 c7 85 70 f9 ff ff 	movq   $0x0,-0x690(%rbp)
    cd9f:	00 00 00 00 
    cda3:	48 8d 85 c0 e0 ff ff 	lea    -0x1f40(%rbp),%rax
    cdaa:	48 89 85 78 f9 ff ff 	mov    %rax,-0x688(%rbp)
    cdb1:	48 c7 85 80 f9 ff ff 	movq   $0x0,-0x680(%rbp)
    cdb8:	00 00 00 00 
    cdbc:	48 8d 85 c0 e0 ff ff 	lea    -0x1f40(%rbp),%rax
    cdc3:	48 89 85 88 f9 ff ff 	mov    %rax,-0x678(%rbp)
    cdca:	48 8d 05 e7 77 00 00 	lea    0x77e7(%rip),%rax        # 145b8 <g_256>
    cdd1:	48 89 85 90 f9 ff ff 	mov    %rax,-0x670(%rbp)
    cdd8:	48 8d 05 d9 77 00 00 	lea    0x77d9(%rip),%rax        # 145b8 <g_256>
    cddf:	48 89 85 98 f9 ff ff 	mov    %rax,-0x668(%rbp)
    cde6:	48 c7 85 a0 f9 ff ff 	movq   $0x0,-0x660(%rbp)
    cded:	00 00 00 00 
    cdf1:	48 8d 85 c0 e0 ff ff 	lea    -0x1f40(%rbp),%rax
    cdf8:	48 89 85 a8 f9 ff ff 	mov    %rax,-0x658(%rbp)
    cdff:	48 c7 85 b0 f9 ff ff 	movq   $0x0,-0x650(%rbp)
    ce06:	00 00 00 00 
    ce0a:	48 8d 05 a7 77 00 00 	lea    0x77a7(%rip),%rax        # 145b8 <g_256>
    ce11:	48 89 85 b8 f9 ff ff 	mov    %rax,-0x648(%rbp)
    ce18:	48 8d 85 c0 e0 ff ff 	lea    -0x1f40(%rbp),%rax
    ce1f:	48 89 85 c0 f9 ff ff 	mov    %rax,-0x640(%rbp)
    ce26:	48 8d 85 c0 e0 ff ff 	lea    -0x1f40(%rbp),%rax
    ce2d:	48 89 85 c8 f9 ff ff 	mov    %rax,-0x638(%rbp)
    ce34:	48 8d 05 7d 77 00 00 	lea    0x777d(%rip),%rax        # 145b8 <g_256>
    ce3b:	48 89 85 d0 f9 ff ff 	mov    %rax,-0x630(%rbp)
    ce42:	48 8d 05 6f 77 00 00 	lea    0x776f(%rip),%rax        # 145b8 <g_256>
    ce49:	48 89 85 d8 f9 ff ff 	mov    %rax,-0x628(%rbp)
    ce50:	48 8d 05 61 77 00 00 	lea    0x7761(%rip),%rax        # 145b8 <g_256>
    ce57:	48 89 85 e0 f9 ff ff 	mov    %rax,-0x620(%rbp)
    ce5e:	48 8d 85 c0 e0 ff ff 	lea    -0x1f40(%rbp),%rax
    ce65:	48 89 85 e8 f9 ff ff 	mov    %rax,-0x618(%rbp)
    ce6c:	48 c7 85 f0 f9 ff ff 	movq   $0x0,-0x610(%rbp)
    ce73:	00 00 00 00 
    ce77:	48 8d 05 3a 77 00 00 	lea    0x773a(%rip),%rax        # 145b8 <g_256>
    ce7e:	48 89 85 f8 f9 ff ff 	mov    %rax,-0x608(%rbp)
    ce85:	48 8d 85 c0 e0 ff ff 	lea    -0x1f40(%rbp),%rax
    ce8c:	48 89 85 00 fa ff ff 	mov    %rax,-0x600(%rbp)
    ce93:	48 c7 85 08 fa ff ff 	movq   $0x0,-0x5f8(%rbp)
    ce9a:	00 00 00 00 
    ce9e:	48 8d 05 13 77 00 00 	lea    0x7713(%rip),%rax        # 145b8 <g_256>
    cea5:	48 89 85 10 fa ff ff 	mov    %rax,-0x5f0(%rbp)
    ceac:	48 8d 85 c0 e0 ff ff 	lea    -0x1f40(%rbp),%rax
    ceb3:	48 89 85 18 fa ff ff 	mov    %rax,-0x5e8(%rbp)
    ceba:	48 c7 85 20 fa ff ff 	movq   $0x0,-0x5e0(%rbp)
    cec1:	00 00 00 00 
    cec5:	48 8d 85 c0 e0 ff ff 	lea    -0x1f40(%rbp),%rax
    cecc:	48 89 85 28 fa ff ff 	mov    %rax,-0x5d8(%rbp)
    ced3:	48 8d 85 c0 e0 ff ff 	lea    -0x1f40(%rbp),%rax
    ceda:	48 89 85 30 fa ff ff 	mov    %rax,-0x5d0(%rbp)
    cee1:	48 8d 85 c0 e0 ff ff 	lea    -0x1f40(%rbp),%rax
    cee8:	48 89 85 38 fa ff ff 	mov    %rax,-0x5c8(%rbp)
    ceef:	48 8d 85 c0 e0 ff ff 	lea    -0x1f40(%rbp),%rax
    cef6:	48 89 85 40 fa ff ff 	mov    %rax,-0x5c0(%rbp)
    cefd:	48 8d 05 b4 76 00 00 	lea    0x76b4(%rip),%rax        # 145b8 <g_256>
    cf04:	48 89 85 48 fa ff ff 	mov    %rax,-0x5b8(%rbp)
    cf0b:	48 8d 85 c0 e0 ff ff 	lea    -0x1f40(%rbp),%rax
    cf12:	48 89 85 50 fa ff ff 	mov    %rax,-0x5b0(%rbp)
    cf19:	48 c7 85 58 fa ff ff 	movq   $0x0,-0x5a8(%rbp)
    cf20:	00 00 00 00 
    cf24:	48 8d 85 c0 e0 ff ff 	lea    -0x1f40(%rbp),%rax
    cf2b:	48 89 85 60 fa ff ff 	mov    %rax,-0x5a0(%rbp)
    cf32:	48 8d 05 7f 76 00 00 	lea    0x767f(%rip),%rax        # 145b8 <g_256>
    cf39:	48 89 85 68 fa ff ff 	mov    %rax,-0x598(%rbp)
    cf40:	48 8d 05 71 76 00 00 	lea    0x7671(%rip),%rax        # 145b8 <g_256>
    cf47:	48 89 85 70 fa ff ff 	mov    %rax,-0x590(%rbp)
    cf4e:	48 8d 05 63 76 00 00 	lea    0x7663(%rip),%rax        # 145b8 <g_256>
    cf55:	48 89 85 78 fa ff ff 	mov    %rax,-0x588(%rbp)
    cf5c:	48 8d 05 55 76 00 00 	lea    0x7655(%rip),%rax        # 145b8 <g_256>
    cf63:	48 89 85 80 fa ff ff 	mov    %rax,-0x580(%rbp)
    cf6a:	48 8d 85 c0 e0 ff ff 	lea    -0x1f40(%rbp),%rax
    cf71:	48 89 85 88 fa ff ff 	mov    %rax,-0x578(%rbp)
    cf78:	48 8d 05 39 76 00 00 	lea    0x7639(%rip),%rax        # 145b8 <g_256>
    cf7f:	48 89 85 90 fa ff ff 	mov    %rax,-0x570(%rbp)
    cf86:	48 8d 85 c0 e0 ff ff 	lea    -0x1f40(%rbp),%rax
    cf8d:	48 89 85 98 fa ff ff 	mov    %rax,-0x568(%rbp)
    cf94:	48 8d 05 1d 76 00 00 	lea    0x761d(%rip),%rax        # 145b8 <g_256>
    cf9b:	48 89 85 a0 fa ff ff 	mov    %rax,-0x560(%rbp)
    cfa2:	48 8d 05 0f 76 00 00 	lea    0x760f(%rip),%rax        # 145b8 <g_256>
    cfa9:	48 89 85 a8 fa ff ff 	mov    %rax,-0x558(%rbp)
    cfb0:	48 8d 85 c0 e0 ff ff 	lea    -0x1f40(%rbp),%rax
    cfb7:	48 89 85 b0 fa ff ff 	mov    %rax,-0x550(%rbp)
    cfbe:	48 c7 85 b8 fa ff ff 	movq   $0x0,-0x548(%rbp)
    cfc5:	00 00 00 00 
    cfc9:	48 8d 05 e8 75 00 00 	lea    0x75e8(%rip),%rax        # 145b8 <g_256>
    cfd0:	48 89 85 c0 fa ff ff 	mov    %rax,-0x540(%rbp)
    cfd7:	48 8d 85 c0 e0 ff ff 	lea    -0x1f40(%rbp),%rax
    cfde:	48 89 85 c8 fa ff ff 	mov    %rax,-0x538(%rbp)
    cfe5:	48 8d 05 cc 75 00 00 	lea    0x75cc(%rip),%rax        # 145b8 <g_256>
    cfec:	48 89 85 d0 fa ff ff 	mov    %rax,-0x530(%rbp)
    cff3:	48 c7 85 d8 fa ff ff 	movq   $0x0,-0x528(%rbp)
    cffa:	00 00 00 00 
    cffe:	48 8d 85 c0 e0 ff ff 	lea    -0x1f40(%rbp),%rax
    d005:	48 89 85 e0 fa ff ff 	mov    %rax,-0x520(%rbp)
    d00c:	48 8d 05 a5 75 00 00 	lea    0x75a5(%rip),%rax        # 145b8 <g_256>
    d013:	48 89 85 e8 fa ff ff 	mov    %rax,-0x518(%rbp)
    d01a:	48 8d 05 97 75 00 00 	lea    0x7597(%rip),%rax        # 145b8 <g_256>
    d021:	48 89 85 f0 fa ff ff 	mov    %rax,-0x510(%rbp)
    d028:	48 8d 05 89 75 00 00 	lea    0x7589(%rip),%rax        # 145b8 <g_256>
    d02f:	48 89 85 f8 fa ff ff 	mov    %rax,-0x508(%rbp)
    d036:	48 c7 85 00 fb ff ff 	movq   $0x0,-0x500(%rbp)
    d03d:	00 00 00 00 
    d041:	48 8d 05 70 75 00 00 	lea    0x7570(%rip),%rax        # 145b8 <g_256>
    d048:	48 89 85 08 fb ff ff 	mov    %rax,-0x4f8(%rbp)
    d04f:	48 c7 85 10 fb ff ff 	movq   $0x0,-0x4f0(%rbp)
    d056:	00 00 00 00 
    d05a:	48 c7 85 18 fb ff ff 	movq   $0x0,-0x4e8(%rbp)
    d061:	00 00 00 00 
    d065:	48 8d 85 c0 e0 ff ff 	lea    -0x1f40(%rbp),%rax
    d06c:	48 89 85 20 fb ff ff 	mov    %rax,-0x4e0(%rbp)
    d073:	48 c7 85 28 fb ff ff 	movq   $0x0,-0x4d8(%rbp)
    d07a:	00 00 00 00 
    d07e:	48 8d 05 33 75 00 00 	lea    0x7533(%rip),%rax        # 145b8 <g_256>
    d085:	48 89 85 30 fb ff ff 	mov    %rax,-0x4d0(%rbp)
    d08c:	48 8d 05 25 75 00 00 	lea    0x7525(%rip),%rax        # 145b8 <g_256>
    d093:	48 89 85 38 fb ff ff 	mov    %rax,-0x4c8(%rbp)
    d09a:	48 8d 05 17 75 00 00 	lea    0x7517(%rip),%rax        # 145b8 <g_256>
    d0a1:	48 89 85 40 fb ff ff 	mov    %rax,-0x4c0(%rbp)
    d0a8:	48 c7 85 48 fb ff ff 	movq   $0x0,-0x4b8(%rbp)
    d0af:	00 00 00 00 
    d0b3:	48 8d 85 c0 e0 ff ff 	lea    -0x1f40(%rbp),%rax
    d0ba:	48 89 85 50 fb ff ff 	mov    %rax,-0x4b0(%rbp)
    d0c1:	48 8d 05 f0 74 00 00 	lea    0x74f0(%rip),%rax        # 145b8 <g_256>
    d0c8:	48 89 85 58 fb ff ff 	mov    %rax,-0x4a8(%rbp)
    d0cf:	48 8d 05 e2 74 00 00 	lea    0x74e2(%rip),%rax        # 145b8 <g_256>
    d0d6:	48 89 85 60 fb ff ff 	mov    %rax,-0x4a0(%rbp)
    d0dd:	48 8d 85 c0 e0 ff ff 	lea    -0x1f40(%rbp),%rax
    d0e4:	48 89 85 68 fb ff ff 	mov    %rax,-0x498(%rbp)
    d0eb:	48 8d 05 c6 74 00 00 	lea    0x74c6(%rip),%rax        # 145b8 <g_256>
    d0f2:	48 89 85 70 fb ff ff 	mov    %rax,-0x490(%rbp)
    d0f9:	48 8d 85 c0 e0 ff ff 	lea    -0x1f40(%rbp),%rax
    d100:	48 89 85 78 fb ff ff 	mov    %rax,-0x488(%rbp)
    d107:	48 8d 05 aa 74 00 00 	lea    0x74aa(%rip),%rax        # 145b8 <g_256>
    d10e:	48 89 85 80 fb ff ff 	mov    %rax,-0x480(%rbp)
    d115:	48 8d 85 c0 e0 ff ff 	lea    -0x1f40(%rbp),%rax
    d11c:	48 89 85 88 fb ff ff 	mov    %rax,-0x478(%rbp)
    d123:	48 8d 05 8e 74 00 00 	lea    0x748e(%rip),%rax        # 145b8 <g_256>
    d12a:	48 89 85 90 fb ff ff 	mov    %rax,-0x470(%rbp)
    d131:	48 8d 05 80 74 00 00 	lea    0x7480(%rip),%rax        # 145b8 <g_256>
    d138:	48 89 85 98 fb ff ff 	mov    %rax,-0x468(%rbp)
    d13f:	48 8d 85 c0 e0 ff ff 	lea    -0x1f40(%rbp),%rax
    d146:	48 89 85 a0 fb ff ff 	mov    %rax,-0x460(%rbp)
    d14d:	48 c7 85 a8 fb ff ff 	movq   $0x0,-0x458(%rbp)
    d154:	00 00 00 00 
    d158:	48 c7 85 b0 fb ff ff 	movq   $0x0,-0x450(%rbp)
    d15f:	00 00 00 00 
    d163:	48 c7 85 b8 fb ff ff 	movq   $0x0,-0x448(%rbp)
    d16a:	00 00 00 00 
    d16e:	48 8d 85 c0 e0 ff ff 	lea    -0x1f40(%rbp),%rax
    d175:	48 89 85 c0 fb ff ff 	mov    %rax,-0x440(%rbp)
    d17c:	48 8d 85 c0 e0 ff ff 	lea    -0x1f40(%rbp),%rax
    d183:	48 89 85 c8 fb ff ff 	mov    %rax,-0x438(%rbp)
    d18a:	48 8d 85 c0 e0 ff ff 	lea    -0x1f40(%rbp),%rax
    d191:	48 89 85 d0 fb ff ff 	mov    %rax,-0x430(%rbp)
    d198:	48 8d 85 c0 e0 ff ff 	lea    -0x1f40(%rbp),%rax
    d19f:	48 89 85 d8 fb ff ff 	mov    %rax,-0x428(%rbp)
    d1a6:	48 8d 05 0b 74 00 00 	lea    0x740b(%rip),%rax        # 145b8 <g_256>
    d1ad:	48 89 85 e0 fb ff ff 	mov    %rax,-0x420(%rbp)
    d1b4:	48 8d 85 c0 e0 ff ff 	lea    -0x1f40(%rbp),%rax
    d1bb:	48 89 85 e8 fb ff ff 	mov    %rax,-0x418(%rbp)
    d1c2:	48 8d 05 ef 73 00 00 	lea    0x73ef(%rip),%rax        # 145b8 <g_256>
    d1c9:	48 89 85 f0 fb ff ff 	mov    %rax,-0x410(%rbp)
    d1d0:	48 c7 85 f8 fb ff ff 	movq   $0x0,-0x408(%rbp)
    d1d7:	00 00 00 00 
    d1db:	48 8d 05 d6 73 00 00 	lea    0x73d6(%rip),%rax        # 145b8 <g_256>
    d1e2:	48 89 85 00 fc ff ff 	mov    %rax,-0x400(%rbp)
    d1e9:	48 8d 85 c0 e0 ff ff 	lea    -0x1f40(%rbp),%rax
    d1f0:	48 89 85 08 fc ff ff 	mov    %rax,-0x3f8(%rbp)
    d1f7:	48 c7 85 10 fc ff ff 	movq   $0x0,-0x3f0(%rbp)
    d1fe:	00 00 00 00 
    d202:	48 8d 85 c0 e0 ff ff 	lea    -0x1f40(%rbp),%rax
    d209:	48 89 85 18 fc ff ff 	mov    %rax,-0x3e8(%rbp)
    d210:	48 8d 05 a1 73 00 00 	lea    0x73a1(%rip),%rax        # 145b8 <g_256>
    d217:	48 89 85 20 fc ff ff 	mov    %rax,-0x3e0(%rbp)
    d21e:	48 c7 85 28 fc ff ff 	movq   $0x0,-0x3d8(%rbp)
    d225:	00 00 00 00 
    d229:	48 8d 05 88 73 00 00 	lea    0x7388(%rip),%rax        # 145b8 <g_256>
    d230:	48 89 85 30 fc ff ff 	mov    %rax,-0x3d0(%rbp)
    d237:	48 8d 85 c0 e0 ff ff 	lea    -0x1f40(%rbp),%rax
    d23e:	48 89 85 38 fc ff ff 	mov    %rax,-0x3c8(%rbp)
    d245:	48 8d 85 c0 e0 ff ff 	lea    -0x1f40(%rbp),%rax
    d24c:	48 89 85 40 fc ff ff 	mov    %rax,-0x3c0(%rbp)
    d253:	48 8d 05 5e 73 00 00 	lea    0x735e(%rip),%rax        # 145b8 <g_256>
    d25a:	48 89 85 48 fc ff ff 	mov    %rax,-0x3b8(%rbp)
    d261:	48 8d 85 c0 e0 ff ff 	lea    -0x1f40(%rbp),%rax
    d268:	48 89 85 50 fc ff ff 	mov    %rax,-0x3b0(%rbp)
    d26f:	48 8d 05 42 73 00 00 	lea    0x7342(%rip),%rax        # 145b8 <g_256>
    d276:	48 89 85 58 fc ff ff 	mov    %rax,-0x3a8(%rbp)
    d27d:	48 c7 85 60 fc ff ff 	movq   $0x0,-0x3a0(%rbp)
    d284:	00 00 00 00 
    d288:	48 8d 05 29 73 00 00 	lea    0x7329(%rip),%rax        # 145b8 <g_256>
    d28f:	48 89 85 68 fc ff ff 	mov    %rax,-0x398(%rbp)
    d296:	48 8d 05 1b 73 00 00 	lea    0x731b(%rip),%rax        # 145b8 <g_256>
    d29d:	48 89 85 70 fc ff ff 	mov    %rax,-0x390(%rbp)
    d2a4:	48 8d 05 0d 73 00 00 	lea    0x730d(%rip),%rax        # 145b8 <g_256>
    d2ab:	48 89 85 78 fc ff ff 	mov    %rax,-0x388(%rbp)
    d2b2:	48 8d 85 c0 e0 ff ff 	lea    -0x1f40(%rbp),%rax
    d2b9:	48 89 85 80 fc ff ff 	mov    %rax,-0x380(%rbp)
    d2c0:	48 8d 85 c0 e0 ff ff 	lea    -0x1f40(%rbp),%rax
    d2c7:	48 89 85 88 fc ff ff 	mov    %rax,-0x378(%rbp)
    d2ce:	48 c7 85 90 fc ff ff 	movq   $0x0,-0x370(%rbp)
    d2d5:	00 00 00 00 
    d2d9:	48 8d 05 d8 72 00 00 	lea    0x72d8(%rip),%rax        # 145b8 <g_256>
    d2e0:	48 89 85 98 fc ff ff 	mov    %rax,-0x368(%rbp)
    d2e7:	48 8d 05 ca 72 00 00 	lea    0x72ca(%rip),%rax        # 145b8 <g_256>
    d2ee:	48 89 85 a0 fc ff ff 	mov    %rax,-0x360(%rbp)
    d2f5:	48 8d 85 c0 e0 ff ff 	lea    -0x1f40(%rbp),%rax
    d2fc:	48 89 85 a8 fc ff ff 	mov    %rax,-0x358(%rbp)
    d303:	48 8d 85 c0 e0 ff ff 	lea    -0x1f40(%rbp),%rax
    d30a:	48 89 85 b0 fc ff ff 	mov    %rax,-0x350(%rbp)
    d311:	48 8d 05 a0 72 00 00 	lea    0x72a0(%rip),%rax        # 145b8 <g_256>
    d318:	48 89 85 b8 fc ff ff 	mov    %rax,-0x348(%rbp)
    d31f:	48 8d 85 c0 e0 ff ff 	lea    -0x1f40(%rbp),%rax
    d326:	48 89 85 c0 fc ff ff 	mov    %rax,-0x340(%rbp)
    d32d:	48 8d 05 84 72 00 00 	lea    0x7284(%rip),%rax        # 145b8 <g_256>
    d334:	48 89 85 c8 fc ff ff 	mov    %rax,-0x338(%rbp)
    d33b:	48 8d 85 c0 e0 ff ff 	lea    -0x1f40(%rbp),%rax
    d342:	48 89 85 d0 fc ff ff 	mov    %rax,-0x330(%rbp)
    d349:	48 8d 05 68 72 00 00 	lea    0x7268(%rip),%rax        # 145b8 <g_256>
    d350:	48 89 85 d8 fc ff ff 	mov    %rax,-0x328(%rbp)
    d357:	48 8d 85 c0 e0 ff ff 	lea    -0x1f40(%rbp),%rax
    d35e:	48 89 85 e0 fc ff ff 	mov    %rax,-0x320(%rbp)
    d365:	48 c7 85 e8 fc ff ff 	movq   $0x0,-0x318(%rbp)
    d36c:	00 00 00 00 
    d370:	48 8d 85 c0 e0 ff ff 	lea    -0x1f40(%rbp),%rax
    d377:	48 89 85 f0 fc ff ff 	mov    %rax,-0x310(%rbp)
    d37e:	48 8d 05 33 72 00 00 	lea    0x7233(%rip),%rax        # 145b8 <g_256>
    d385:	48 89 85 f8 fc ff ff 	mov    %rax,-0x308(%rbp)
    d38c:	48 8d 05 25 72 00 00 	lea    0x7225(%rip),%rax        # 145b8 <g_256>
    d393:	48 89 85 00 fd ff ff 	mov    %rax,-0x300(%rbp)
    d39a:	48 c7 85 08 fd ff ff 	movq   $0x0,-0x2f8(%rbp)
    d3a1:	00 00 00 00 
    d3a5:	48 8d 05 0c 72 00 00 	lea    0x720c(%rip),%rax        # 145b8 <g_256>
    d3ac:	48 89 85 10 fd ff ff 	mov    %rax,-0x2f0(%rbp)
    d3b3:	48 c7 85 18 fd ff ff 	movq   $0x0,-0x2e8(%rbp)
    d3ba:	00 00 00 00 
    d3be:	48 c7 85 20 fd ff ff 	movq   $0x0,-0x2e0(%rbp)
    d3c5:	00 00 00 00 
    d3c9:	48 c7 85 28 fd ff ff 	movq   $0x0,-0x2d8(%rbp)
    d3d0:	00 00 00 00 
    d3d4:	48 8d 85 c0 e0 ff ff 	lea    -0x1f40(%rbp),%rax
    d3db:	48 89 85 30 fd ff ff 	mov    %rax,-0x2d0(%rbp)
    d3e2:	48 8d 05 cf 71 00 00 	lea    0x71cf(%rip),%rax        # 145b8 <g_256>
    d3e9:	48 89 85 38 fd ff ff 	mov    %rax,-0x2c8(%rbp)
    d3f0:	48 8d 05 c1 71 00 00 	lea    0x71c1(%rip),%rax        # 145b8 <g_256>
    d3f7:	48 89 85 40 fd ff ff 	mov    %rax,-0x2c0(%rbp)
    d3fe:	48 8d 85 c0 e0 ff ff 	lea    -0x1f40(%rbp),%rax
    d405:	48 89 85 48 fd ff ff 	mov    %rax,-0x2b8(%rbp)
    d40c:	48 8d 85 c0 e0 ff ff 	lea    -0x1f40(%rbp),%rax
    d413:	48 89 85 50 fd ff ff 	mov    %rax,-0x2b0(%rbp)
    d41a:	48 8d 05 97 71 00 00 	lea    0x7197(%rip),%rax        # 145b8 <g_256>
    d421:	48 89 85 58 fd ff ff 	mov    %rax,-0x2a8(%rbp)
    d428:	48 8d 85 c0 e0 ff ff 	lea    -0x1f40(%rbp),%rax
    d42f:	48 89 85 60 fd ff ff 	mov    %rax,-0x2a0(%rbp)
    d436:	48 8d 85 c0 e0 ff ff 	lea    -0x1f40(%rbp),%rax
    d43d:	48 89 85 68 fd ff ff 	mov    %rax,-0x298(%rbp)
    d444:	48 c7 85 70 fd ff ff 	movq   $0x0,-0x290(%rbp)
    d44b:	00 00 00 00 
    d44f:	48 8d 05 62 71 00 00 	lea    0x7162(%rip),%rax        # 145b8 <g_256>
    d456:	48 89 85 78 fd ff ff 	mov    %rax,-0x288(%rbp)
    d45d:	48 c7 85 80 fd ff ff 	movq   $0x0,-0x280(%rbp)
    d464:	00 00 00 00 
    d468:	48 8d 85 c0 e0 ff ff 	lea    -0x1f40(%rbp),%rax
    d46f:	48 89 85 88 fd ff ff 	mov    %rax,-0x278(%rbp)
    d476:	48 c7 85 90 fd ff ff 	movq   $0x0,-0x270(%rbp)
    d47d:	00 00 00 00 
    d481:	48 8d 85 c0 e0 ff ff 	lea    -0x1f40(%rbp),%rax
    d488:	48 89 85 98 fd ff ff 	mov    %rax,-0x268(%rbp)
    d48f:	48 8d 05 22 71 00 00 	lea    0x7122(%rip),%rax        # 145b8 <g_256>
    d496:	48 89 85 a0 fd ff ff 	mov    %rax,-0x260(%rbp)
    d49d:	48 8d 05 14 71 00 00 	lea    0x7114(%rip),%rax        # 145b8 <g_256>
    d4a4:	48 89 85 a8 fd ff ff 	mov    %rax,-0x258(%rbp)
    d4ab:	48 c7 85 b0 fd ff ff 	movq   $0x0,-0x250(%rbp)
    d4b2:	00 00 00 00 
    d4b6:	48 8d 85 c0 e0 ff ff 	lea    -0x1f40(%rbp),%rax
    d4bd:	48 89 85 b8 fd ff ff 	mov    %rax,-0x248(%rbp)
    d4c4:	48 c7 85 c0 fd ff ff 	movq   $0x0,-0x240(%rbp)
    d4cb:	00 00 00 00 
    d4cf:	48 8d 05 e2 70 00 00 	lea    0x70e2(%rip),%rax        # 145b8 <g_256>
    d4d6:	48 89 85 c8 fd ff ff 	mov    %rax,-0x238(%rbp)
    d4dd:	48 8d 85 c0 e0 ff ff 	lea    -0x1f40(%rbp),%rax
    d4e4:	48 89 85 d0 fd ff ff 	mov    %rax,-0x230(%rbp)
    d4eb:	48 8d 85 c0 e0 ff ff 	lea    -0x1f40(%rbp),%rax
    d4f2:	48 89 85 d8 fd ff ff 	mov    %rax,-0x228(%rbp)
    d4f9:	48 8d 05 b8 70 00 00 	lea    0x70b8(%rip),%rax        # 145b8 <g_256>
    d500:	48 89 85 e0 fd ff ff 	mov    %rax,-0x220(%rbp)
    d507:	48 8d 05 aa 70 00 00 	lea    0x70aa(%rip),%rax        # 145b8 <g_256>
    d50e:	48 89 85 e8 fd ff ff 	mov    %rax,-0x218(%rbp)
    d515:	48 8d 05 9c 70 00 00 	lea    0x709c(%rip),%rax        # 145b8 <g_256>
    d51c:	48 89 85 f0 fd ff ff 	mov    %rax,-0x210(%rbp)
    d523:	48 8d 85 c0 e0 ff ff 	lea    -0x1f40(%rbp),%rax
    d52a:	48 89 85 f8 fd ff ff 	mov    %rax,-0x208(%rbp)
    d531:	48 c7 85 00 fe ff ff 	movq   $0x0,-0x200(%rbp)
    d538:	00 00 00 00 
    d53c:	48 8d 05 75 70 00 00 	lea    0x7075(%rip),%rax        # 145b8 <g_256>
    d543:	48 89 85 08 fe ff ff 	mov    %rax,-0x1f8(%rbp)
    d54a:	48 8d 85 c0 e0 ff ff 	lea    -0x1f40(%rbp),%rax
    d551:	48 89 85 10 fe ff ff 	mov    %rax,-0x1f0(%rbp)
    d558:	48 c7 85 18 fe ff ff 	movq   $0x0,-0x1e8(%rbp)
    d55f:	00 00 00 00 
    d563:	48 8d 05 4e 70 00 00 	lea    0x704e(%rip),%rax        # 145b8 <g_256>
    d56a:	48 89 85 20 fe ff ff 	mov    %rax,-0x1e0(%rbp)
    d571:	48 8d 85 c0 e0 ff ff 	lea    -0x1f40(%rbp),%rax
    d578:	48 89 85 28 fe ff ff 	mov    %rax,-0x1d8(%rbp)
    d57f:	48 c7 85 30 fe ff ff 	movq   $0x0,-0x1d0(%rbp)
    d586:	00 00 00 00 
    d58a:	48 8d 85 c0 e0 ff ff 	lea    -0x1f40(%rbp),%rax
    d591:	48 89 85 38 fe ff ff 	mov    %rax,-0x1c8(%rbp)
    d598:	48 8d 85 c0 e0 ff ff 	lea    -0x1f40(%rbp),%rax
    d59f:	48 89 85 40 fe ff ff 	mov    %rax,-0x1c0(%rbp)
    d5a6:	48 8d 85 c0 e0 ff ff 	lea    -0x1f40(%rbp),%rax
    d5ad:	48 89 85 48 fe ff ff 	mov    %rax,-0x1b8(%rbp)
    d5b4:	48 8d 85 c0 e0 ff ff 	lea    -0x1f40(%rbp),%rax
    d5bb:	48 89 85 50 fe ff ff 	mov    %rax,-0x1b0(%rbp)
    d5c2:	48 8d 05 ef 6f 00 00 	lea    0x6fef(%rip),%rax        # 145b8 <g_256>
    d5c9:	48 89 85 58 fe ff ff 	mov    %rax,-0x1a8(%rbp)
    d5d0:	48 8d 85 c0 e0 ff ff 	lea    -0x1f40(%rbp),%rax
    d5d7:	48 89 85 60 fe ff ff 	mov    %rax,-0x1a0(%rbp)
    d5de:	48 c7 85 68 fe ff ff 	movq   $0x0,-0x198(%rbp)
    d5e5:	00 00 00 00 
    d5e9:	48 8d 85 c0 e0 ff ff 	lea    -0x1f40(%rbp),%rax
    d5f0:	48 89 85 70 fe ff ff 	mov    %rax,-0x190(%rbp)
    d5f7:	48 8d 05 ba 6f 00 00 	lea    0x6fba(%rip),%rax        # 145b8 <g_256>
    d5fe:	48 89 85 78 fe ff ff 	mov    %rax,-0x188(%rbp)
    d605:	48 8d 05 ac 6f 00 00 	lea    0x6fac(%rip),%rax        # 145b8 <g_256>
    d60c:	48 89 85 80 fe ff ff 	mov    %rax,-0x180(%rbp)
    d613:	48 8d 05 9e 6f 00 00 	lea    0x6f9e(%rip),%rax        # 145b8 <g_256>
    d61a:	48 89 85 88 fe ff ff 	mov    %rax,-0x178(%rbp)
    d621:	48 8d 85 c0 e0 ff ff 	lea    -0x1f40(%rbp),%rax
    d628:	48 89 85 90 fe ff ff 	mov    %rax,-0x170(%rbp)
    d62f:	48 8d 05 82 6f 00 00 	lea    0x6f82(%rip),%rax        # 145b8 <g_256>
    d636:	48 89 85 98 fe ff ff 	mov    %rax,-0x168(%rbp)
    d63d:	48 8d 05 74 6f 00 00 	lea    0x6f74(%rip),%rax        # 145b8 <g_256>
    d644:	48 89 85 a0 fe ff ff 	mov    %rax,-0x160(%rbp)
    d64b:	48 c7 85 a8 fe ff ff 	movq   $0x0,-0x158(%rbp)
    d652:	00 00 00 00 
    d656:	48 8d 85 c0 e0 ff ff 	lea    -0x1f40(%rbp),%rax
    d65d:	48 89 85 b0 fe ff ff 	mov    %rax,-0x150(%rbp)
    d664:	48 8d 85 c0 e0 ff ff 	lea    -0x1f40(%rbp),%rax
    d66b:	48 89 85 b8 fe ff ff 	mov    %rax,-0x148(%rbp)
    d672:	48 c7 85 c0 fe ff ff 	movq   $0x0,-0x140(%rbp)
    d679:	00 00 00 00 
    d67d:	48 8d 05 34 6f 00 00 	lea    0x6f34(%rip),%rax        # 145b8 <g_256>
    d684:	48 89 85 c8 fe ff ff 	mov    %rax,-0x138(%rbp)
    d68b:	48 c7 85 d0 fe ff ff 	movq   $0x0,-0x130(%rbp)
    d692:	00 00 00 00 
    d696:	48 8d 85 c0 e0 ff ff 	lea    -0x1f40(%rbp),%rax
    d69d:	48 89 85 d8 fe ff ff 	mov    %rax,-0x128(%rbp)
    d6a4:	48 8d 05 0d 6f 00 00 	lea    0x6f0d(%rip),%rax        # 145b8 <g_256>
    d6ab:	48 89 85 e0 fe ff ff 	mov    %rax,-0x120(%rbp)
    d6b2:	48 8d 85 c0 e0 ff ff 	lea    -0x1f40(%rbp),%rax
    d6b9:	48 89 85 e8 fe ff ff 	mov    %rax,-0x118(%rbp)
    d6c0:	48 8d 05 f1 6e 00 00 	lea    0x6ef1(%rip),%rax        # 145b8 <g_256>
    d6c7:	48 89 85 f0 fe ff ff 	mov    %rax,-0x110(%rbp)
    d6ce:	48 8d 85 c0 e0 ff ff 	lea    -0x1f40(%rbp),%rax
    d6d5:	48 89 85 f8 fe ff ff 	mov    %rax,-0x108(%rbp)
    d6dc:	48 8d 85 c0 e0 ff ff 	lea    -0x1f40(%rbp),%rax
    d6e3:	48 89 85 00 ff ff ff 	mov    %rax,-0x100(%rbp)
    d6ea:	48 8d 05 c7 6e 00 00 	lea    0x6ec7(%rip),%rax        # 145b8 <g_256>
    d6f1:	48 89 85 08 ff ff ff 	mov    %rax,-0xf8(%rbp)
    d6f8:	48 c7 85 10 ff ff ff 	movq   $0x0,-0xf0(%rbp)
    d6ff:	00 00 00 00 
    d703:	48 8d 05 ae 6e 00 00 	lea    0x6eae(%rip),%rax        # 145b8 <g_256>
    d70a:	48 89 85 18 ff ff ff 	mov    %rax,-0xe8(%rbp)
    d711:	48 8d 85 c0 e0 ff ff 	lea    -0x1f40(%rbp),%rax
    d718:	48 89 85 20 ff ff ff 	mov    %rax,-0xe0(%rbp)
    d71f:	48 8d 85 c0 e0 ff ff 	lea    -0x1f40(%rbp),%rax
    d726:	48 89 85 28 ff ff ff 	mov    %rax,-0xd8(%rbp)
    d72d:	48 8d 05 84 6e 00 00 	lea    0x6e84(%rip),%rax        # 145b8 <g_256>
    d734:	48 89 85 30 ff ff ff 	mov    %rax,-0xd0(%rbp)
    d73b:	48 8d 85 c0 e0 ff ff 	lea    -0x1f40(%rbp),%rax
    d742:	48 89 85 38 ff ff ff 	mov    %rax,-0xc8(%rbp)
    d749:	48 8d 05 68 6e 00 00 	lea    0x6e68(%rip),%rax        # 145b8 <g_256>
    d750:	48 89 85 40 ff ff ff 	mov    %rax,-0xc0(%rbp)
    d757:	48 8d 85 c0 e0 ff ff 	lea    -0x1f40(%rbp),%rax
    d75e:	48 89 85 48 ff ff ff 	mov    %rax,-0xb8(%rbp)
    d765:	48 8d 85 c0 e0 ff ff 	lea    -0x1f40(%rbp),%rax
    d76c:	48 89 85 50 ff ff ff 	mov    %rax,-0xb0(%rbp)
    d773:	48 8d 05 3e 6e 00 00 	lea    0x6e3e(%rip),%rax        # 145b8 <g_256>
    d77a:	48 89 85 58 ff ff ff 	mov    %rax,-0xa8(%rbp)
    d781:	48 c7 85 60 ff ff ff 	movq   $0x0,-0xa0(%rbp)
    d788:	00 00 00 00 
    d78c:	48 8d 85 c0 e0 ff ff 	lea    -0x1f40(%rbp),%rax
    d793:	48 89 85 68 ff ff ff 	mov    %rax,-0x98(%rbp)
    d79a:	c7 85 dc df ff ff 00 	movl   $0x0,-0x2024(%rbp)
    d7a1:	00 00 00 
    d7a4:	eb 1a                	jmp    d7c0 <func_86+0x47bf>
    d7a6:	8b 85 dc df ff ff    	mov    -0x2024(%rbp),%eax
    d7ac:	48 98                	cltq   
    d7ae:	c7 84 85 d4 e3 ff ff 	movl   $0x0,-0x1c2c(%rbp,%rax,4)
    d7b5:	00 00 00 00 
    d7b9:	83 85 dc df ff ff 01 	addl   $0x1,-0x2024(%rbp)
    d7c0:	83 bd dc df ff ff 01 	cmpl   $0x1,-0x2024(%rbp)
    d7c7:	7e dd                	jle    d7a6 <func_86+0x47a5>
    d7c9:	c7 85 dc df ff ff 00 	movl   $0x0,-0x2024(%rbp)
    d7d0:	00 00 00 
    d7d3:	eb 19                	jmp    d7ee <func_86+0x47ed>
    d7d5:	8b 85 dc df ff ff    	mov    -0x2024(%rbp),%eax
    d7db:	48 98                	cltq   
    d7dd:	66 c7 84 45 dc e3 ff 	movw   $0xfecc,-0x1c24(%rbp,%rax,2)
    d7e4:	ff cc fe 
    d7e7:	83 85 dc df ff ff 01 	addl   $0x1,-0x2024(%rbp)
    d7ee:	83 bd dc df ff ff 03 	cmpl   $0x3,-0x2024(%rbp)
    d7f5:	7e de                	jle    d7d5 <func_86+0x47d4>
    d7f7:	c6 05 0e 59 00 00 00 	movb   $0x0,0x590e(%rip)        # 1310c <g_132>
    d7fe:	e9 f6 02 00 00       	jmpq   daf9 <func_86+0x4af8>
    d803:	c7 85 5c e0 ff ff 09 	movl   $0xb107f309,-0x1fa4(%rbp)
    d80a:	f3 07 b1 
    d80d:	48 8d 85 30 e5 ff ff 	lea    -0x1ad0(%rbp),%rax
    d814:	48 8d 15 25 28 00 00 	lea    0x2825(%rip),%rdx        # 10040 <g_634+0xfe8>
    d81b:	b9 28 00 00 00       	mov    $0x28,%ecx
    d820:	48 89 c7             	mov    %rax,%rdi
    d823:	48 89 d6             	mov    %rdx,%rsi
    d826:	f3 48 a5             	rep movsq %ds:(%rsi),%es:(%rdi)
    d829:	48 8b 1d 38 79 00 00 	mov    0x7938(%rip),%rbx        # 15168 <g_133>
    d830:	48 8b 05 99 70 00 00 	mov    0x7099(%rip),%rax        # 148d0 <g_814+0x10>
    d837:	48 89 85 30 e1 ff ff 	mov    %rax,-0x1ed0(%rbp)
    d83e:	44 0f b6 a5 1c df ff 	movzbl -0x20e4(%rbp),%r12d
    d845:	ff 
    d846:	48 8b 05 a3 6d 00 00 	mov    0x6da3(%rip),%rax        # 145f0 <g_495>
    d84d:	48 8b 00             	mov    (%rax),%rax
    d850:	0f b7 00             	movzwl (%rax),%eax
    d853:	44 0f bf e8          	movswl %ax,%r13d
    d857:	48 8b 85 b0 e0 ff ff 	mov    -0x1f50(%rbp),%rax
    d85e:	48 8b 00             	mov    (%rax),%rax
    d861:	8b 00                	mov    (%rax),%eax
    d863:	44 0f b6 f0          	movzbl %al,%r14d
    d867:	8b 85 38 e0 ff ff    	mov    -0x1fc8(%rbp),%eax
    d86d:	44 0f bf f8          	movswl %ax,%r15d
    d871:	0f b6 85 1c df ff ff 	movzbl -0x20e4(%rbp),%eax
    d878:	89 85 10 df ff ff    	mov    %eax,-0x20f0(%rbp)
    d87e:	8b 85 38 e0 ff ff    	mov    -0x1fc8(%rbp),%eax
    d884:	89 85 18 e0 ff ff    	mov    %eax,-0x1fe8(%rbp)
    d88a:	8b 85 18 e0 ff ff    	mov    -0x1fe8(%rbp),%eax
    d890:	48 98                	cltq   
    d892:	48 89 85 08 df ff ff 	mov    %rax,-0x20f8(%rbp)
    d899:	0f b6 95 1c df ff ff 	movzbl -0x20e4(%rbp),%edx
    d8a0:	48 8b 85 28 df ff ff 	mov    -0x20d8(%rbp),%rax
    d8a7:	8b 00                	mov    (%rax),%eax
    d8a9:	85 c0                	test   %eax,%eax
    d8ab:	0f 9e c0             	setle  %al
    d8ae:	0f b6 c0             	movzbl %al,%eax
    d8b1:	48 89 d6             	mov    %rdx,%rsi
    d8b4:	48 89 c7             	mov    %rax,%rdi
    d8b7:	e8 8f 87 ff ff       	callq  604b <safe_sub_func_uint64_t_u_u>
    d8bc:	48 39 85 08 df ff ff 	cmp    %rax,-0x20f8(%rbp)
    d8c3:	0f 97 c0             	seta   %al
    d8c6:	0f b6 d0             	movzbl %al,%edx
    d8c9:	48 8b 05 d0 6c 00 00 	mov    0x6cd0(%rip),%rax        # 145a0 <g_153>
    d8d0:	0f b6 00             	movzbl (%rax),%eax
    d8d3:	0f be c0             	movsbl %al,%eax
    d8d6:	39 c2                	cmp    %eax,%edx
    d8d8:	0f 9e c0             	setle  %al
    d8db:	0f b6 d0             	movzbl %al,%edx
    d8de:	0f b6 85 1c df ff ff 	movzbl -0x20e4(%rbp),%eax
    d8e5:	39 c2                	cmp    %eax,%edx
    d8e7:	74 07                	je     d8f0 <func_86+0x48ef>
    d8e9:	ba 01 00 00 00       	mov    $0x1,%edx
    d8ee:	eb 05                	jmp    d8f5 <func_86+0x48f4>
    d8f0:	ba 00 00 00 00       	mov    $0x0,%edx
    d8f5:	8b 05 f1 57 00 00    	mov    0x57f1(%rip),%eax        # 130ec <g_47+0x4>
    d8fb:	39 c2                	cmp    %eax,%edx
    d8fd:	0f 95 c0             	setne  %al
    d900:	0f b6 c0             	movzbl %al,%eax
    d903:	39 85 10 df ff ff    	cmp    %eax,-0x20f0(%rbp)
    d909:	0f 9e c0             	setle  %al
    d90c:	0f b6 d0             	movzbl %al,%edx
    d90f:	0f b6 85 1c df ff ff 	movzbl -0x20e4(%rbp),%eax
    d916:	39 c2                	cmp    %eax,%edx
    d918:	0f 9d c0             	setge  %al
    d91b:	0f b6 c0             	movzbl %al,%eax
    d91e:	44 89 fe             	mov    %r15d,%esi
    d921:	89 c7                	mov    %eax,%edi
    d923:	e8 cd 7a ff ff       	callq  53f5 <safe_mul_func_int16_t_s_s>
    d928:	0f b6 c0             	movzbl %al,%eax
    d92b:	44 89 f6             	mov    %r14d,%esi
    d92e:	89 c7                	mov    %eax,%edi
    d930:	e8 43 82 ff ff       	callq  5b78 <safe_sub_func_uint8_t_u_u>
    d935:	0f b6 c0             	movzbl %al,%eax
    d938:	44 89 ee             	mov    %r13d,%esi
    d93b:	89 c7                	mov    %eax,%edi
    d93d:	e8 d4 7a ff ff       	callq  5416 <safe_mod_func_int16_t_s_s>
    d942:	0f b7 c0             	movzwl %ax,%eax
    d945:	be 0b 00 00 00       	mov    $0xb,%esi
    d94a:	89 c7                	mov    %eax,%edi
    d94c:	e8 29 85 ff ff       	callq  5e7a <safe_rshift_func_uint16_t_u_u>
    d951:	98                   	cwtl   
    d952:	44 89 e6             	mov    %r12d,%esi
    d955:	89 c7                	mov    %eax,%edi
    d957:	e8 ce 7b ff ff       	callq  552a <safe_rshift_func_int16_t_s_s>
    d95c:	48 8b 05 8d 6c 00 00 	mov    0x6c8d(%rip),%rax        # 145f0 <g_495>
    d963:	48 8b 00             	mov    (%rax),%rax
    d966:	0f b7 10             	movzwl (%rax),%edx
    d969:	0f b6 85 1c df ff ff 	movzbl -0x20e4(%rbp),%eax
    d970:	66 39 c2             	cmp    %ax,%dx
    d973:	48 8b 85 28 df ff ff 	mov    -0x20d8(%rbp),%rax
    d97a:	8b 00                	mov    (%rax),%eax
    d97c:	c1 e8 1f             	shr    $0x1f,%eax
    d97f:	0f b6 c0             	movzbl %al,%eax
    d982:	48 89 de             	mov    %rbx,%rsi
    d985:	48 89 c7             	mov    %rax,%rdi
    d988:	e8 27 80 ff ff       	callq  59b4 <safe_mod_func_int64_t_s_s>
    d98d:	48 89 c2             	mov    %rax,%rdx
    d990:	48 8b 05 49 6c 00 00 	mov    0x6c49(%rip),%rax        # 145e0 <g_474>
    d997:	89 10                	mov    %edx,(%rax)
    d999:	0f b6 9d 1c df ff ff 	movzbl -0x20e4(%rbp),%ebx
    d9a0:	44 8b a5 a8 e5 ff ff 	mov    -0x1a58(%rbp),%r12d
    d9a7:	8b 05 db 5a 00 00    	mov    0x5adb(%rip),%eax        # 13488 <g_838>
    d9ad:	8b 95 38 e0 ff ff    	mov    -0x1fc8(%rbp),%edx
    d9b3:	48 8b 05 e6 6b 00 00 	mov    0x6be6(%rip),%rax        # 145a0 <g_153>
    d9ba:	0f b6 00             	movzbl (%rax),%eax
    d9bd:	0f be c0             	movsbl %al,%eax
    d9c0:	89 d6                	mov    %edx,%esi
    d9c2:	89 c7                	mov    %eax,%edi
    d9c4:	e8 6c 79 ff ff       	callq  5335 <safe_rshift_func_int8_t_s_s>
    d9c9:	84 c0                	test   %al,%al
    d9cb:	74 77                	je     da44 <func_86+0x4a43>
    d9cd:	48 8b 05 04 6c 00 00 	mov    0x6c04(%rip),%rax        # 145d8 <g_382>
    d9d4:	48 8b 00             	mov    (%rax),%rax
    d9d7:	0f b7 00             	movzwl (%rax),%eax
    d9da:	44 0f bf e8          	movswl %ax,%r13d
    d9de:	0f b6 85 1c df ff ff 	movzbl -0x20e4(%rbp),%eax
    d9e5:	44 0f be f0          	movsbl %al,%r14d
    d9e9:	8b 85 5c e0 ff ff    	mov    -0x1fa4(%rbp),%eax
    d9ef:	4c 63 f8             	movslq %eax,%r15
    d9f2:	0f b6 85 1c df ff ff 	movzbl -0x20e4(%rbp),%eax
    d9f9:	be fd d4 ff ff       	mov    $0xffffd4fd,%esi
    d9fe:	89 c7                	mov    %eax,%edi
    da00:	e8 50 7a ff ff       	callq  5455 <safe_div_func_int16_t_s_s>
    da05:	0f bf d0             	movswl %ax,%edx
    da08:	0f b6 85 1c df ff ff 	movzbl -0x20e4(%rbp),%eax
    da0f:	21 d0                	and    %edx,%eax
    da11:	48 98                	cltq   
    da13:	4c 89 fe             	mov    %r15,%rsi
    da16:	48 89 c7             	mov    %rax,%rdi
    da19:	e8 62 86 ff ff       	callq  6080 <safe_mod_func_uint64_t_u_u>
    da1e:	0f be c0             	movsbl %al,%eax
    da21:	44 89 f6             	mov    %r14d,%esi
    da24:	89 c7                	mov    %eax,%edi
    da26:	e8 c7 77 ff ff       	callq  51f2 <safe_sub_func_int8_t_s_s>
    da2b:	0f be c0             	movsbl %al,%eax
    da2e:	44 89 ee             	mov    %r13d,%esi
    da31:	89 c7                	mov    %eax,%edi
    da33:	e8 9b 79 ff ff       	callq  53d3 <safe_sub_func_int16_t_s_s>
    da38:	66 85 c0             	test   %ax,%ax
    da3b:	74 07                	je     da44 <func_86+0x4a43>
    da3d:	b8 01 00 00 00       	mov    $0x1,%eax
    da42:	eb 05                	jmp    da49 <func_86+0x4a48>
    da44:	b8 00 00 00 00       	mov    $0x0,%eax
    da49:	48 63 d0             	movslq %eax,%rdx
    da4c:	48 8b 85 a8 e0 ff ff 	mov    -0x1f58(%rbp),%rax
    da53:	0f b6 8d 1c df ff ff 	movzbl -0x20e4(%rbp),%ecx
    da5a:	48 89 08             	mov    %rcx,(%rax)
    da5d:	48 8b 00             	mov    (%rax),%rax
    da60:	48 89 d6             	mov    %rdx,%rsi
    da63:	48 89 c7             	mov    %rax,%rdi
    da66:	e8 8c 7f ff ff       	callq  59f7 <safe_div_func_int64_t_s_s>
    da6b:	83 bd 38 e0 ff ff 00 	cmpl   $0x0,-0x1fc8(%rbp)
    da72:	0f 95 c0             	setne  %al
    da75:	0f b6 c0             	movzbl %al,%eax
    da78:	89 85 5c e0 ff ff    	mov    %eax,-0x1fa4(%rbp)
    da7e:	8b 85 5c e0 ff ff    	mov    -0x1fa4(%rbp),%eax
    da84:	44 89 e6             	mov    %r12d,%esi
    da87:	89 c7                	mov    %eax,%edi
    da89:	e8 3e 7c ff ff       	callq  56cc <safe_mod_func_int32_t_s_s>
    da8e:	85 c0                	test   %eax,%eax
    da90:	75 19                	jne    daab <func_86+0x4aaa>
    da92:	48 8b 05 37 6b 00 00 	mov    0x6b37(%rip),%rax        # 145d0 <g_383>
    da99:	0f b7 00             	movzwl (%rax),%eax
    da9c:	66 85 c0             	test   %ax,%ax
    da9f:	75 0a                	jne    daab <func_86+0x4aaa>
    daa1:	8b 05 c9 59 00 00    	mov    0x59c9(%rip),%eax        # 13470 <g_595+0x10>
    daa7:	85 c0                	test   %eax,%eax
    daa9:	74 07                	je     dab2 <func_86+0x4ab1>
    daab:	b8 01 00 00 00       	mov    $0x1,%eax
    dab0:	eb 05                	jmp    dab7 <func_86+0x4ab6>
    dab2:	b8 00 00 00 00       	mov    $0x0,%eax
    dab7:	34 8e                	xor    $0x8e,%al
    dab9:	98                   	cwtl   
    daba:	89 de                	mov    %ebx,%esi
    dabc:	89 c7                	mov    %eax,%edi
    dabe:	e8 53 79 ff ff       	callq  5416 <safe_mod_func_int16_t_s_s>
    dac3:	98                   	cwtl   
    dac4:	48 8b 95 20 e1 ff ff 	mov    -0x1ee0(%rbp),%rdx
    dacb:	48 8b 12             	mov    (%rdx),%rdx
    dace:	48 8b 1a             	mov    (%rdx),%rbx
    dad1:	48 8d 95 30 e5 ff ff 	lea    -0x1ad0(%rbp),%rdx
    dad8:	48 83 c2 44          	add    $0x44,%rdx
    dadc:	48 89 d6             	mov    %rdx,%rsi
    dadf:	89 c7                	mov    %eax,%edi
    dae1:	e8 46 b4 ff ff       	callq  8f2c <func_43>
    dae6:	48 89 03             	mov    %rax,(%rbx)
    dae9:	0f b6 05 1c 56 00 00 	movzbl 0x561c(%rip),%eax        # 1310c <g_132>
    daf0:	83 c0 01             	add    $0x1,%eax
    daf3:	88 05 13 56 00 00    	mov    %al,0x5613(%rip)        # 1310c <g_132>
    daf9:	0f b6 05 0c 56 00 00 	movzbl 0x560c(%rip),%eax        # 1310c <g_132>
    db00:	3c 04                	cmp    $0x4,%al
    db02:	0f 86 fb fc ff ff    	jbe    d803 <func_86+0x4802>
    db08:	8b 05 7a 56 00 00    	mov    0x567a(%rip),%eax        # 13188 <g_149>
    db0e:	89 c0                	mov    %eax,%eax
    db10:	48 89 85 10 df ff ff 	mov    %rax,-0x20f0(%rbp)
    db17:	0f b6 9d 1c df ff ff 	movzbl -0x20e4(%rbp),%ebx
    db1e:	0f b6 85 32 df ff ff 	movzbl -0x20ce(%rbp),%eax
    db25:	4c 0f be e0          	movsbq %al,%r12
    db29:	8b 85 38 e0 ff ff    	mov    -0x1fc8(%rbp),%eax
    db2f:	48 89 85 08 df ff ff 	mov    %rax,-0x20f8(%rbp)
    db36:	44 8b ad 38 e0 ff ff 	mov    -0x1fc8(%rbp),%r13d
    db3d:	44 0f b6 b5 1c df ff 	movzbl -0x20e4(%rbp),%r14d
    db44:	ff 
    db45:	48 8b 85 90 e0 ff ff 	mov    -0x1f70(%rbp),%rax
    db4c:	48 8b 00             	mov    (%rax),%rax
    db4f:	44 8b 38             	mov    (%rax),%r15d
    db52:	8b 85 38 e0 ff ff    	mov    -0x1fc8(%rbp),%eax
    db58:	0f be c0             	movsbl %al,%eax
    db5b:	83 e0 66             	and    $0x66,%eax
    db5e:	89 c2                	mov    %eax,%edx
    db60:	48 83 bd 28 df ff ff 	cmpq   $0x0,-0x20d8(%rbp)
    db67:	00 
    db68:	0f 95 c0             	setne  %al
    db6b:	0f b6 c0             	movzbl %al,%eax
    db6e:	89 d6                	mov    %edx,%esi
    db70:	89 c7                	mov    %eax,%edi
    db72:	e8 f3 76 ff ff       	callq  526a <safe_div_func_int8_t_s_s>
    db77:	be 0d 00 00 00       	mov    $0xd,%esi
    db7c:	bf 00 00 00 00       	mov    $0x0,%edi
    db81:	e8 38 82 ff ff       	callq  5dbe <safe_lshift_func_uint16_t_u_s>
    db86:	89 c2                	mov    %eax,%edx
    db88:	48 8b 85 88 e2 ff ff 	mov    -0x1d78(%rbp),%rax
    db8f:	88 10                	mov    %dl,(%rax)
    db91:	48 8b 85 88 e2 ff ff 	mov    -0x1d78(%rbp),%rax
    db98:	0f b6 00             	movzbl (%rax),%eax
    db9b:	0f be c0             	movsbl %al,%eax
    db9e:	80 bd 1c df ff ff 00 	cmpb   $0x0,-0x20e4(%rbp)
    dba5:	75 09                	jne    dbb0 <func_86+0x4baf>
    dba7:	80 bd 1c df ff ff 00 	cmpb   $0x0,-0x20e4(%rbp)
    dbae:	74 07                	je     dbb7 <func_86+0x4bb6>
    dbb0:	ba 01 00 00 00       	mov    $0x1,%edx
    dbb5:	eb 05                	jmp    dbbc <func_86+0x4bbb>
    dbb7:	ba 00 00 00 00       	mov    $0x0,%edx
    dbbc:	39 c2                	cmp    %eax,%edx
    dbbe:	0f 94 c0             	sete   %al
    dbc1:	0f b6 d0             	movzbl %al,%edx
    dbc4:	48 8b 05 d5 69 00 00 	mov    0x69d5(%rip),%rax        # 145a0 <g_153>
    dbcb:	0f b6 00             	movzbl (%rax),%eax
    dbce:	0f be c0             	movsbl %al,%eax
    dbd1:	31 c2                	xor    %eax,%edx
    dbd3:	48 8b 85 a8 e0 ff ff 	mov    -0x1f58(%rbp),%rax
    dbda:	48 63 d2             	movslq %edx,%rdx
    dbdd:	48 89 10             	mov    %rdx,(%rax)
    dbe0:	0f b7 05 f5 55 00 00 	movzwl 0x55f5(%rip),%eax        # 131dc <g_232>
    dbe7:	66 85 c0             	test   %ax,%ax
    dbea:	75 07                	jne    dbf3 <func_86+0x4bf2>
    dbec:	ba 04 00 00 00       	mov    $0x4,%edx
    dbf1:	eb 05                	jmp    dbf8 <func_86+0x4bf7>
    dbf3:	ba 05 00 00 00       	mov    $0x5,%edx
    dbf8:	48 8b 05 f1 69 00 00 	mov    0x69f1(%rip),%rax        # 145f0 <g_495>
    dbff:	48 8b 00             	mov    (%rax),%rax
    dc02:	66 89 10             	mov    %dx,(%rax)
    dc05:	0f b7 00             	movzwl (%rax),%eax
    dc08:	0f b7 c0             	movzwl %ax,%eax
    dc0b:	44 89 fe             	mov    %r15d,%esi
    dc0e:	89 c7                	mov    %eax,%edi
    dc10:	e8 a9 81 ff ff       	callq  5dbe <safe_lshift_func_uint16_t_u_s>
    dc15:	0f b7 c0             	movzwl %ax,%eax
    dc18:	44 89 f6             	mov    %r14d,%esi
    dc1b:	89 c7                	mov    %eax,%edi
    dc1d:	e8 3a 81 ff ff       	callq  5d5c <safe_mod_func_uint16_t_u_u>
    dc22:	0f b7 c0             	movzwl %ax,%eax
    dc25:	44 89 ee             	mov    %r13d,%esi
    dc28:	89 c7                	mov    %eax,%edi
    dc2a:	e8 9d 7a ff ff       	callq  56cc <safe_mod_func_int32_t_s_s>
    dc2f:	83 e0 f9             	and    $0xfffffff9,%eax
    dc32:	48 98                	cltq   
    dc34:	48 39 85 08 df ff ff 	cmp    %rax,-0x20f8(%rbp)
    dc3b:	0f 9d c0             	setge  %al
    dc3e:	0f b6 c0             	movzbl %al,%eax
    dc41:	4c 89 e6             	mov    %r12,%rsi
    dc44:	48 89 c7             	mov    %rax,%rdi
    dc47:	e8 5c 7c ff ff       	callq  58a8 <safe_sub_func_int64_t_s_s>
    dc4c:	0f be c0             	movsbl %al,%eax
    dc4f:	be 01 00 00 00       	mov    $0x1,%esi
    dc54:	89 c7                	mov    %eax,%edi
    dc56:	e8 93 76 ff ff       	callq  52ee <safe_lshift_func_int8_t_s_u>
    dc5b:	0f be d0             	movsbl %al,%edx
    dc5e:	48 8b 85 28 df ff ff 	mov    -0x20d8(%rbp),%rax
    dc65:	8b 00                	mov    (%rax),%eax
    dc67:	89 d6                	mov    %edx,%esi
    dc69:	89 c7                	mov    %eax,%edi
    dc6b:	e8 46 79 ff ff       	callq  55b6 <safe_add_func_int32_t_s_s>
    dc70:	89 85 10 e0 ff ff    	mov    %eax,-0x1ff0(%rbp)
    dc76:	48 8b 85 b8 e2 ff ff 	mov    -0x1d48(%rbp),%rax
    dc7d:	66 c7 00 00 00       	movw   $0x0,(%rax)
    dc82:	48 8b 85 b8 e0 ff ff 	mov    -0x1f48(%rbp),%rax
    dc89:	48 8b 00             	mov    (%rax),%rax
    dc8c:	48 8b 00             	mov    (%rax),%rax
    dc8f:	8b 00                	mov    (%rax),%eax
    dc91:	f7 d0                	not    %eax
    dc93:	c1 e8 1f             	shr    $0x1f,%eax
    dc96:	0f b6 c0             	movzbl %al,%eax
    dc99:	48 89 de             	mov    %rbx,%rsi
    dc9c:	48 89 c7             	mov    %rax,%rdi
    dc9f:	e8 10 7d ff ff       	callq  59b4 <safe_mod_func_int64_t_s_s>
    dca4:	48 8b b5 10 df ff ff 	mov    -0x20f0(%rbp),%rsi
    dcab:	48 89 c7             	mov    %rax,%rdi
    dcae:	e8 98 83 ff ff       	callq  604b <safe_sub_func_uint64_t_u_u>
    dcb3:	b8 01 00 00 00       	mov    $0x1,%eax
    dcb8:	31 85 3c e0 ff ff    	xor    %eax,-0x1fc4(%rbp)
    dcbe:	c7 85 5c df ff ff e4 	movl   $0xffffffe4,-0x20a4(%rbp)
    dcc5:	ff ff ff 
    dcc8:	e9 20 04 00 00       	jmpq   e0ed <func_86+0x50ec>
    dccd:	48 c7 85 c8 e2 ff ff 	movq   $0xfffffffffffffff8,-0x1d38(%rbp)
    dcd4:	f8 ff ff ff 
    dcd8:	c7 85 44 e0 ff ff 02 	movl   $0x2,-0x1fbc(%rbp)
    dcdf:	00 00 00 
    dce2:	48 8d 05 13 54 00 00 	lea    0x5413(%rip),%rax        # 130fc <g_75>
    dce9:	48 89 85 d0 e2 ff ff 	mov    %rax,-0x1d30(%rbp)
    dcf0:	c7 85 48 e0 ff ff ff 	movl   $0xffffffff,-0x1fb8(%rbp)
    dcf7:	ff ff ff 
    dcfa:	c7 85 4c e0 ff ff ff 	movl   $0xffffffff,-0x1fb4(%rbp)
    dd01:	ff ff ff 
    dd04:	48 8d 85 32 df ff ff 	lea    -0x20ce(%rbp),%rax
    dd0b:	48 89 85 c8 e0 ff ff 	mov    %rax,-0x1f38(%rbp)
    dd12:	48 8d 85 c8 e0 ff ff 	lea    -0x1f38(%rbp),%rax
    dd19:	48 89 85 d8 e2 ff ff 	mov    %rax,-0x1d28(%rbp)
    dd20:	48 8d 85 f0 e8 ff ff 	lea    -0x1710(%rbp),%rax
    dd27:	48 05 a0 00 00 00    	add    $0xa0,%rax
    dd2d:	48 89 85 d0 e0 ff ff 	mov    %rax,-0x1f30(%rbp)
    dd34:	48 8d 85 d0 e0 ff ff 	lea    -0x1f30(%rbp),%rax
    dd3b:	48 89 85 d8 e0 ff ff 	mov    %rax,-0x1f28(%rbp)
    dd42:	48 8d 85 d8 e0 ff ff 	lea    -0x1f28(%rbp),%rax
    dd49:	48 89 85 e0 e0 ff ff 	mov    %rax,-0x1f20(%rbp)
    dd50:	48 8d 85 e0 e0 ff ff 	lea    -0x1f20(%rbp),%rax
    dd57:	48 89 85 e0 e2 ff ff 	mov    %rax,-0x1d20(%rbp)
    dd5e:	c7 85 50 e0 ff ff f7 	movl   $0xd4688f7,-0x1fb0(%rbp)
    dd65:	88 46 0d 
    dd68:	48 8d 05 d9 56 00 00 	lea    0x56d9(%rip),%rax        # 13448 <g_530>
    dd6f:	48 89 85 e8 e2 ff ff 	mov    %rax,-0x1d18(%rbp)
    dd76:	c7 85 54 e0 ff ff 0a 	movl   $0xdae6c80a,-0x1fac(%rbp)
    dd7d:	c8 e6 da 
    dd80:	c7 85 58 e0 ff ff 01 	movl   $0x1,-0x1fa8(%rbp)
    dd87:	00 00 00 
    dd8a:	48 c7 85 30 e5 ff ff 	movq   $0x0,-0x1ad0(%rbp)
    dd91:	00 00 00 00 
    dd95:	48 8d 85 e0 e4 ff ff 	lea    -0x1b20(%rbp),%rax
    dd9c:	48 83 c0 40          	add    $0x40,%rax
    dda0:	48 89 85 38 e5 ff ff 	mov    %rax,-0x1ac8(%rbp)
    dda7:	48 8d 85 e0 e4 ff ff 	lea    -0x1b20(%rbp),%rax
    ddae:	48 83 c0 40          	add    $0x40,%rax
    ddb2:	48 89 85 40 e5 ff ff 	mov    %rax,-0x1ac0(%rbp)
    ddb9:	48 8d 85 e0 e4 ff ff 	lea    -0x1b20(%rbp),%rax
    ddc0:	48 83 c0 40          	add    $0x40,%rax
    ddc4:	48 89 85 48 e5 ff ff 	mov    %rax,-0x1ab8(%rbp)
    ddcb:	48 8d 85 e0 e4 ff ff 	lea    -0x1b20(%rbp),%rax
    ddd2:	48 83 c0 40          	add    $0x40,%rax
    ddd6:	48 89 85 50 e5 ff ff 	mov    %rax,-0x1ab0(%rbp)
    dddd:	48 8d 85 e0 e4 ff ff 	lea    -0x1b20(%rbp),%rax
    dde4:	48 83 c0 40          	add    $0x40,%rax
    dde8:	48 89 85 58 e5 ff ff 	mov    %rax,-0x1aa8(%rbp)
    ddef:	48 c7 85 60 e5 ff ff 	movq   $0x0,-0x1aa0(%rbp)
    ddf6:	00 00 00 00 
    ddfa:	48 8d 85 e0 e4 ff ff 	lea    -0x1b20(%rbp),%rax
    de01:	48 83 c0 40          	add    $0x40,%rax
    de05:	48 89 85 68 e5 ff ff 	mov    %rax,-0x1a98(%rbp)
    de0c:	48 8d 85 e0 e4 ff ff 	lea    -0x1b20(%rbp),%rax
    de13:	48 83 c0 40          	add    $0x40,%rax
    de17:	48 89 85 70 e5 ff ff 	mov    %rax,-0x1a90(%rbp)
    de1e:	48 8d 85 e0 e4 ff ff 	lea    -0x1b20(%rbp),%rax
    de25:	48 83 c0 40          	add    $0x40,%rax
    de29:	48 89 85 78 e5 ff ff 	mov    %rax,-0x1a88(%rbp)
    de30:	48 8d 85 e0 e4 ff ff 	lea    -0x1b20(%rbp),%rax
    de37:	48 83 c0 40          	add    $0x40,%rax
    de3b:	48 89 85 80 e5 ff ff 	mov    %rax,-0x1a80(%rbp)
    de42:	48 c7 85 88 e5 ff ff 	movq   $0x0,-0x1a78(%rbp)
    de49:	00 00 00 00 
    de4d:	48 8d 85 e0 e4 ff ff 	lea    -0x1b20(%rbp),%rax
    de54:	48 83 c0 40          	add    $0x40,%rax
    de58:	48 89 85 90 e5 ff ff 	mov    %rax,-0x1a70(%rbp)
    de5f:	48 c7 85 98 e5 ff ff 	movq   $0x0,-0x1a68(%rbp)
    de66:	00 00 00 00 
    de6a:	48 c7 85 a0 e5 ff ff 	movq   $0x0,-0x1a60(%rbp)
    de71:	00 00 00 00 
    de75:	48 8d 85 e0 e4 ff ff 	lea    -0x1b20(%rbp),%rax
    de7c:	48 83 c0 40          	add    $0x40,%rax
    de80:	48 89 85 a8 e5 ff ff 	mov    %rax,-0x1a58(%rbp)
    de87:	48 8d 85 e0 e4 ff ff 	lea    -0x1b20(%rbp),%rax
    de8e:	48 83 c0 40          	add    $0x40,%rax
    de92:	48 89 85 b0 e5 ff ff 	mov    %rax,-0x1a50(%rbp)
    de99:	48 c7 85 b8 e5 ff ff 	movq   $0x0,-0x1a48(%rbp)
    dea0:	00 00 00 00 
    dea4:	48 8d 85 e0 e4 ff ff 	lea    -0x1b20(%rbp),%rax
    deab:	48 83 c0 40          	add    $0x40,%rax
    deaf:	48 89 85 c0 e5 ff ff 	mov    %rax,-0x1a40(%rbp)
    deb6:	48 c7 85 c8 e5 ff ff 	movq   $0x0,-0x1a38(%rbp)
    debd:	00 00 00 00 
    dec1:	48 c7 85 d0 e5 ff ff 	movq   $0x0,-0x1a30(%rbp)
    dec8:	00 00 00 00 
    decc:	48 8d 85 e0 e4 ff ff 	lea    -0x1b20(%rbp),%rax
    ded3:	48 83 c0 40          	add    $0x40,%rax
    ded7:	48 89 85 d8 e5 ff ff 	mov    %rax,-0x1a28(%rbp)
    dede:	48 8d 85 e0 e4 ff ff 	lea    -0x1b20(%rbp),%rax
    dee5:	48 83 c0 40          	add    $0x40,%rax
    dee9:	48 89 85 e0 e5 ff ff 	mov    %rax,-0x1a20(%rbp)
    def0:	48 8d 85 e0 e4 ff ff 	lea    -0x1b20(%rbp),%rax
    def7:	48 83 c0 40          	add    $0x40,%rax
    defb:	48 89 85 e8 e5 ff ff 	mov    %rax,-0x1a18(%rbp)
    df02:	48 8d 85 e0 e4 ff ff 	lea    -0x1b20(%rbp),%rax
    df09:	48 83 c0 40          	add    $0x40,%rax
    df0d:	48 89 85 f0 e5 ff ff 	mov    %rax,-0x1a10(%rbp)
    df14:	48 8d 85 e0 e4 ff ff 	lea    -0x1b20(%rbp),%rax
    df1b:	48 83 c0 40          	add    $0x40,%rax
    df1f:	48 89 85 f8 e5 ff ff 	mov    %rax,-0x1a08(%rbp)
    df26:	48 c7 85 00 e6 ff ff 	movq   $0x0,-0x1a00(%rbp)
    df2d:	00 00 00 00 
    df31:	48 8d 85 e0 e4 ff ff 	lea    -0x1b20(%rbp),%rax
    df38:	48 83 c0 40          	add    $0x40,%rax
    df3c:	48 89 85 08 e6 ff ff 	mov    %rax,-0x19f8(%rbp)
    df43:	48 8d 85 e0 e4 ff ff 	lea    -0x1b20(%rbp),%rax
    df4a:	48 83 c0 40          	add    $0x40,%rax
    df4e:	48 89 85 10 e6 ff ff 	mov    %rax,-0x19f0(%rbp)
    df55:	48 8d 85 e0 e4 ff ff 	lea    -0x1b20(%rbp),%rax
    df5c:	48 83 c0 40          	add    $0x40,%rax
    df60:	48 89 85 18 e6 ff ff 	mov    %rax,-0x19e8(%rbp)
    df67:	48 8d 85 e0 e4 ff ff 	lea    -0x1b20(%rbp),%rax
    df6e:	48 83 c0 40          	add    $0x40,%rax
    df72:	48 89 85 20 e6 ff ff 	mov    %rax,-0x19e0(%rbp)
    df79:	48 c7 85 28 e6 ff ff 	movq   $0x0,-0x19d8(%rbp)
    df80:	00 00 00 00 
    df84:	48 8d 85 e0 e4 ff ff 	lea    -0x1b20(%rbp),%rax
    df8b:	48 83 c0 40          	add    $0x40,%rax
    df8f:	48 89 85 30 e6 ff ff 	mov    %rax,-0x19d0(%rbp)
    df96:	48 c7 85 38 e6 ff ff 	movq   $0x0,-0x19c8(%rbp)
    df9d:	00 00 00 00 
    dfa1:	48 c7 85 40 e6 ff ff 	movq   $0x0,-0x19c0(%rbp)
    dfa8:	00 00 00 00 
    dfac:	48 8d 85 e0 e4 ff ff 	lea    -0x1b20(%rbp),%rax
    dfb3:	48 83 c0 40          	add    $0x40,%rax
    dfb7:	48 89 85 48 e6 ff ff 	mov    %rax,-0x19b8(%rbp)
    dfbe:	48 8d 85 e0 e4 ff ff 	lea    -0x1b20(%rbp),%rax
    dfc5:	48 83 c0 40          	add    $0x40,%rax
    dfc9:	48 89 85 50 e6 ff ff 	mov    %rax,-0x19b0(%rbp)
    dfd0:	48 c7 85 58 e6 ff ff 	movq   $0x0,-0x19a8(%rbp)
    dfd7:	00 00 00 00 
    dfdb:	48 8d 85 e0 e4 ff ff 	lea    -0x1b20(%rbp),%rax
    dfe2:	48 83 c0 40          	add    $0x40,%rax
    dfe6:	48 89 85 60 e6 ff ff 	mov    %rax,-0x19a0(%rbp)
    dfed:	48 c7 85 68 e6 ff ff 	movq   $0x0,-0x1998(%rbp)
    dff4:	00 00 00 00 
    dff8:	48 8d 05 b9 65 00 00 	lea    0x65b9(%rip),%rax        # 145b8 <g_256>
    dfff:	48 89 85 50 e4 ff ff 	mov    %rax,-0x1bb0(%rbp)
    e006:	48 8d 05 ab 65 00 00 	lea    0x65ab(%rip),%rax        # 145b8 <g_256>
    e00d:	48 89 85 58 e4 ff ff 	mov    %rax,-0x1ba8(%rbp)
    e014:	48 8d 05 9d 65 00 00 	lea    0x659d(%rip),%rax        # 145b8 <g_256>
    e01b:	48 89 85 60 e4 ff ff 	mov    %rax,-0x1ba0(%rbp)
    e022:	48 8d 85 c0 e0 ff ff 	lea    -0x1f40(%rbp),%rax
    e029:	48 89 85 68 e4 ff ff 	mov    %rax,-0x1b98(%rbp)
    e030:	48 8d 85 c0 e0 ff ff 	lea    -0x1f40(%rbp),%rax
    e037:	48 89 85 70 e4 ff ff 	mov    %rax,-0x1b90(%rbp)
    e03e:	48 8d 85 c0 e0 ff ff 	lea    -0x1f40(%rbp),%rax
    e045:	48 89 85 78 e4 ff ff 	mov    %rax,-0x1b88(%rbp)
    e04c:	48 c7 05 29 54 00 00 	movq   $0x0,0x5429(%rip)        # 13480 <g_798>
    e053:	00 00 00 00 
    e057:	eb 74                	jmp    e0cd <func_86+0x50cc>
    e059:	c7 85 e0 df ff ff 6f 	movl   $0x894f646f,-0x2020(%rbp)
    e060:	64 4f 89 
    e063:	c7 85 54 df ff ff 03 	movl   $0x3,-0x20ac(%rbp)
    e06a:	00 00 00 
    e06d:	eb 3e                	jmp    e0ad <func_86+0x50ac>
    e06f:	48 83 bd c8 e2 ff ff 	cmpq   $0x0,-0x1d38(%rbp)
    e076:	00 
    e077:	75 41                	jne    e0ba <func_86+0x50b9>
    e079:	83 ad e0 df ff ff 01 	subl   $0x1,-0x2020(%rbp)
    e080:	48 8b 85 28 df ff ff 	mov    -0x20d8(%rbp),%rax
    e087:	8b 00                	mov    (%rax),%eax
    e089:	88 85 36 df ff ff    	mov    %al,-0x20ca(%rbp)
    e08f:	8b 85 54 df ff ff    	mov    -0x20ac(%rbp),%eax
    e095:	0f b6 c0             	movzbl %al,%eax
    e098:	be 01 00 00 00       	mov    $0x1,%esi
    e09d:	89 c7                	mov    %eax,%edi
    e09f:	e8 d4 7a ff ff       	callq  5b78 <safe_sub_func_uint8_t_u_u>
    e0a4:	0f b6 c0             	movzbl %al,%eax
    e0a7:	89 85 54 df ff ff    	mov    %eax,-0x20ac(%rbp)
    e0ad:	8b 85 54 df ff ff    	mov    -0x20ac(%rbp),%eax
    e0b3:	83 f8 fe             	cmp    $0xfffffffe,%eax
    e0b6:	7d b7                	jge    e06f <func_86+0x506e>
    e0b8:	eb 01                	jmp    e0bb <func_86+0x50ba>
    e0ba:	90                   	nop
    e0bb:	48 8b 05 be 53 00 00 	mov    0x53be(%rip),%rax        # 13480 <g_798>
    e0c2:	48 83 c0 01          	add    $0x1,%rax
    e0c6:	48 89 05 b3 53 00 00 	mov    %rax,0x53b3(%rip)        # 13480 <g_798>
    e0cd:	48 8b 05 ac 53 00 00 	mov    0x53ac(%rip),%rax        # 13480 <g_798>
    e0d4:	48 83 f8 21          	cmp    $0x21,%rax
    e0d8:	0f 87 7b ff ff ff    	ja     e059 <func_86+0x5058>
    e0de:	8b 85 5c df ff ff    	mov    -0x20a4(%rbp),%eax
    e0e4:	83 c0 01             	add    $0x1,%eax
    e0e7:	89 85 5c df ff ff    	mov    %eax,-0x20a4(%rbp)
    e0ed:	8b 85 5c df ff ff    	mov    -0x20a4(%rbp),%eax
    e0f3:	83 f8 1b             	cmp    $0x1b,%eax
    e0f6:	0f 8f d1 fb ff ff    	jg     dccd <func_86+0x4ccc>
    e0fc:	c7 85 b4 df ff ff 00 	movl   $0x0,-0x204c(%rbp)
    e103:	00 00 00 
    e106:	e9 e5 00 00 00       	jmpq   e1f0 <func_86+0x51ef>
    e10b:	48 b8 2e ca 70 4d d3 	movabs $0x576f36d34d70ca2e,%rax
    e112:	36 6f 57 
    e115:	48 89 85 00 e1 ff ff 	mov    %rax,-0x1f00(%rbp)
    e11c:	66 c7 85 3e df ff ff 	movw   $0x0,-0x20c2(%rbp)
    e123:	00 00 
    e125:	e9 80 00 00 00       	jmpq   e1aa <func_86+0x51a9>
    e12a:	c7 85 e4 df ff ff 08 	movl   $0x8,-0x201c(%rbp)
    e131:	00 00 00 
    e134:	c7 85 40 e0 ff ff e1 	movl   $0x841408e1,-0x1fc0(%rbp)
    e13b:	08 14 84 
    e13e:	48 c7 85 f8 e0 ff ff 	movq   $0x0,-0x1f08(%rbp)
    e145:	00 00 00 00 
    e149:	eb 41                	jmp    e18c <func_86+0x518b>
    e14b:	0f b7 85 3e df ff ff 	movzwl -0x20c2(%rbp),%eax
    e152:	0f b7 c0             	movzwl %ax,%eax
    e155:	48 98                	cltq   
    e157:	8b 84 85 d4 e3 ff ff 	mov    -0x1c2c(%rbp,%rax,4),%eax
    e15e:	85 c0                	test   %eax,%eax
    e160:	75 36                	jne    e198 <func_86+0x5197>
    e162:	48 83 85 00 e1 ff ff 	addq   $0x1,-0x1f00(%rbp)
    e169:	01 
    e16a:	48 8b 15 3f 64 00 00 	mov    0x643f(%rip),%rdx        # 145b0 <g_162>
    e171:	48 8b 85 c0 e0 ff ff 	mov    -0x1f40(%rbp),%rax
    e178:	8b 12                	mov    (%rdx),%edx
    e17a:	89 10                	mov    %edx,(%rax)
    e17c:	8b 00                	mov    (%rax),%eax
    e17e:	21 85 e4 df ff ff    	and    %eax,-0x201c(%rbp)
    e184:	48 83 ad f8 e0 ff ff 	subq   $0x1,-0x1f08(%rbp)
    e18b:	01 
    e18c:	48 83 bd f8 e0 ff ff 	cmpq   $0x0,-0x1f08(%rbp)
    e193:	00 
    e194:	79 b5                	jns    e14b <func_86+0x514a>
    e196:	eb 01                	jmp    e199 <func_86+0x5198>
    e198:	90                   	nop
    e199:	0f b7 85 3e df ff ff 	movzwl -0x20c2(%rbp),%eax
    e1a0:	83 c0 01             	add    $0x1,%eax
    e1a3:	66 89 85 3e df ff ff 	mov    %ax,-0x20c2(%rbp)
    e1aa:	0f b7 85 3e df ff ff 	movzwl -0x20c2(%rbp),%eax
    e1b1:	66 83 f8 01          	cmp    $0x1,%ax
    e1b5:	0f 86 6f ff ff ff    	jbe    e12a <func_86+0x5129>
    e1bb:	48 8b 85 c0 e0 ff ff 	mov    -0x1f40(%rbp),%rax
    e1c2:	8b 00                	mov    (%rax),%eax
    e1c4:	89 c2                	mov    %eax,%edx
    e1c6:	48 8b 85 00 e1 ff ff 	mov    -0x1f00(%rbp),%rax
    e1cd:	31 c2                	xor    %eax,%edx
    e1cf:	48 8b 85 c0 e0 ff ff 	mov    -0x1f40(%rbp),%rax
    e1d6:	89 10                	mov    %edx,(%rax)
    e1d8:	8b 85 b4 df ff ff    	mov    -0x204c(%rbp),%eax
    e1de:	be 06 00 00 00       	mov    $0x6,%esi
    e1e3:	89 c7                	mov    %eax,%edi
    e1e5:	e8 e6 7c ff ff       	callq  5ed0 <safe_sub_func_uint32_t_u_u>
    e1ea:	89 85 b4 df ff ff    	mov    %eax,-0x204c(%rbp)
    e1f0:	83 bd b4 df ff ff e2 	cmpl   $0xffffffe2,-0x204c(%rbp)
    e1f7:	0f 8d 0e ff ff ff    	jge    e10b <func_86+0x510a>
    e1fd:	0f b6 85 33 df ff ff 	movzbl -0x20cd(%rbp),%eax
    e204:	0f b6 c0             	movzbl %al,%eax
    e207:	be 01 00 00 00       	mov    $0x1,%esi
    e20c:	89 c7                	mov    %eax,%edi
    e20e:	e8 47 79 ff ff       	callq  5b5a <safe_add_func_uint8_t_u_u>
    e213:	88 85 33 df ff ff    	mov    %al,-0x20cd(%rbp)
    e219:	80 bd 33 df ff ff 1d 	cmpb   $0x1d,-0x20cd(%rbp)
    e220:	0f 8e 97 e8 ff ff    	jle    cabd <func_86+0x3abc>
    e226:	8b 05 ac 4f 00 00    	mov    0x4fac(%rip),%eax        # 131d8 <g_207>
    e22c:	48 98                	cltq   
    e22e:	be 01 00 00 00       	mov    $0x1,%esi
    e233:	48 89 c7             	mov    %rax,%rdi
    e236:	e8 f3 7d ff ff       	callq  602e <safe_add_func_uint64_t_u_u>
    e23b:	89 05 97 4f 00 00    	mov    %eax,0x4f97(%rip)        # 131d8 <g_207>
    e241:	8b 05 91 4f 00 00    	mov    0x4f91(%rip),%eax        # 131d8 <g_207>
    e247:	83 f8 19             	cmp    $0x19,%eax
    e24a:	0f 8f cb c7 ff ff    	jg     aa1b <func_86+0x1a1a>
    e250:	eb 01                	jmp    e253 <func_86+0x5252>
    e252:	90                   	nop
    e253:	0f b6 85 1c df ff ff 	movzbl -0x20e4(%rbp),%eax
    e25a:	48 8b 5d c8          	mov    -0x38(%rbp),%rbx
    e25e:	64 48 33 1c 25 28 00 	xor    %fs:0x28,%rbx
    e265:	00 00 
    e267:	74 05                	je     e26e <func_86+0x526d>
    e269:	e8 02 6e ff ff       	callq  5070 <__stack_chk_fail@plt>
    e26e:	48 81 c4 d8 20 00 00 	add    $0x20d8,%rsp
    e275:	5b                   	pop    %rbx
    e276:	41 5c                	pop    %r12
    e278:	41 5d                	pop    %r13
    e27a:	41 5e                	pop    %r14
    e27c:	41 5f                	pop    %r15
    e27e:	5d                   	pop    %rbp
    e27f:	c3                   	retq   

000000000000e280 <main>:
    e280:	f3 0f 1e fa          	endbr64 
    e284:	55                   	push   %rbp
    e285:	48 89 e5             	mov    %rsp,%rbp
    e288:	48 83 ec 20          	sub    $0x20,%rsp
    e28c:	89 7d ec             	mov    %edi,-0x14(%rbp)
    e28f:	48 89 75 e0          	mov    %rsi,-0x20(%rbp)
    e293:	c7 45 fc 00 00 00 00 	movl   $0x0,-0x4(%rbp)
    e29a:	83 7d ec 02          	cmpl   $0x2,-0x14(%rbp)
    e29e:	75 25                	jne    e2c5 <main+0x45>
    e2a0:	48 8b 45 e0          	mov    -0x20(%rbp),%rax
    e2a4:	48 83 c0 08          	add    $0x8,%rax
    e2a8:	48 8b 00             	mov    (%rax),%rax
    e2ab:	48 8d 35 ce 1e 00 00 	lea    0x1ece(%rip),%rsi        # 10180 <g_634+0x1128>
    e2b2:	48 89 c7             	mov    %rax,%rdi
    e2b5:	e8 d6 6d ff ff       	callq  5090 <strcmp@plt>
    e2ba:	85 c0                	test   %eax,%eax
    e2bc:	75 07                	jne    e2c5 <main+0x45>
    e2be:	c7 45 fc 01 00 00 00 	movl   $0x1,-0x4(%rbp)
    e2c5:	e8 bf 6e ff ff       	callq  5189 <platform_main_begin>
    e2ca:	e8 c9 82 ff ff       	callq  6598 <crc32_gentab>
    e2cf:	e8 e1 84 ff ff       	callq  67b5 <func_1>
    e2d4:	8b 05 4a 4d 00 00    	mov    0x4d4a(%rip),%eax        # 13024 <g_10>
    e2da:	48 98                	cltq   
    e2dc:	8b 55 fc             	mov    -0x4(%rbp),%edx
    e2df:	48 8d 35 9c 1e 00 00 	lea    0x1e9c(%rip),%rsi        # 10182 <g_634+0x112a>
    e2e6:	48 89 c7             	mov    %rax,%rdi
    e2e9:	e8 05 84 ff ff       	callq  66f3 <transparent_crc>
    e2ee:	8b 05 34 4d 00 00    	mov    0x4d34(%rip),%eax        # 13028 <g_21>
    e2f4:	89 c1                	mov    %eax,%ecx
    e2f6:	8b 45 fc             	mov    -0x4(%rbp),%eax
    e2f9:	89 c2                	mov    %eax,%edx
    e2fb:	48 8d 35 85 1e 00 00 	lea    0x1e85(%rip),%rsi        # 10187 <g_634+0x112f>
    e302:	48 89 cf             	mov    %rcx,%rdi
    e305:	e8 e9 83 ff ff       	callq  66f3 <transparent_crc>
    e30a:	c7 45 f0 00 00 00 00 	movl   $0x0,-0x10(%rbp)
    e311:	eb 75                	jmp    e388 <main+0x108>
    e313:	c7 45 f4 00 00 00 00 	movl   $0x0,-0xc(%rbp)
    e31a:	eb 62                	jmp    e37e <main+0xfe>
    e31c:	8b 45 f4             	mov    -0xc(%rbp),%eax
    e31f:	48 63 c8             	movslq %eax,%rcx
    e322:	8b 45 f0             	mov    -0x10(%rbp),%eax
    e325:	48 63 d0             	movslq %eax,%rdx
    e328:	48 89 d0             	mov    %rdx,%rax
    e32b:	48 c1 e0 03          	shl    $0x3,%rax
    e32f:	48 29 d0             	sub    %rdx,%rax
    e332:	48 01 c8             	add    %rcx,%rax
    e335:	48 8d 14 85 00 00 00 	lea    0x0(,%rax,4),%rdx
    e33c:	00 
    e33d:	48 8d 05 fc 4c 00 00 	lea    0x4cfc(%rip),%rax        # 13040 <g_29>
    e344:	8b 04 02             	mov    (%rdx,%rax,1),%eax
    e347:	48 98                	cltq   
    e349:	8b 55 fc             	mov    -0x4(%rbp),%edx
    e34c:	48 8d 35 39 1e 00 00 	lea    0x1e39(%rip),%rsi        # 1018c <g_634+0x1134>
    e353:	48 89 c7             	mov    %rax,%rdi
    e356:	e8 98 83 ff ff       	callq  66f3 <transparent_crc>
    e35b:	83 7d fc 00          	cmpl   $0x0,-0x4(%rbp)
    e35f:	74 19                	je     e37a <main+0xfa>
    e361:	8b 55 f4             	mov    -0xc(%rbp),%edx
    e364:	8b 45 f0             	mov    -0x10(%rbp),%eax
    e367:	89 c6                	mov    %eax,%esi
    e369:	48 8d 3d 27 1e 00 00 	lea    0x1e27(%rip),%rdi        # 10197 <g_634+0x113f>
    e370:	b8 00 00 00 00       	mov    $0x0,%eax
    e375:	e8 06 6d ff ff       	callq  5080 <printf@plt>
    e37a:	83 45 f4 01          	addl   $0x1,-0xc(%rbp)
    e37e:	83 7d f4 06          	cmpl   $0x6,-0xc(%rbp)
    e382:	7e 98                	jle    e31c <main+0x9c>
    e384:	83 45 f0 01          	addl   $0x1,-0x10(%rbp)
    e388:	83 7d f0 03          	cmpl   $0x3,-0x10(%rbp)
    e38c:	7e 85                	jle    e313 <main+0x93>
    e38e:	c7 45 f0 00 00 00 00 	movl   $0x0,-0x10(%rbp)
    e395:	e9 ac 00 00 00       	jmpq   e446 <main+0x1c6>
    e39a:	c7 45 f4 00 00 00 00 	movl   $0x0,-0xc(%rbp)
    e3a1:	e9 92 00 00 00       	jmpq   e438 <main+0x1b8>
    e3a6:	c7 45 f8 00 00 00 00 	movl   $0x0,-0x8(%rbp)
    e3ad:	eb 7b                	jmp    e42a <main+0x1aa>
    e3af:	8b 45 f8             	mov    -0x8(%rbp),%eax
    e3b2:	48 63 f0             	movslq %eax,%rsi
    e3b5:	8b 45 f0             	mov    -0x10(%rbp),%eax
    e3b8:	48 63 d0             	movslq %eax,%rdx
    e3bb:	8b 45 f4             	mov    -0xc(%rbp),%eax
    e3be:	48 63 c8             	movslq %eax,%rcx
    e3c1:	48 89 d0             	mov    %rdx,%rax
    e3c4:	48 c1 e0 02          	shl    $0x2,%rax
    e3c8:	48 01 d0             	add    %rdx,%rax
    e3cb:	48 01 c0             	add    %rax,%rax
    e3ce:	48 89 ca             	mov    %rcx,%rdx
    e3d1:	48 c1 e2 02          	shl    $0x2,%rdx
    e3d5:	48 01 ca             	add    %rcx,%rdx
    e3d8:	48 01 d0             	add    %rdx,%rax
    e3db:	48 01 f0             	add    %rsi,%rax
    e3de:	48 8d 14 85 00 00 00 	lea    0x0(,%rax,4),%rdx
    e3e5:	00 
    e3e6:	48 8d 05 d3 4c 00 00 	lea    0x4cd3(%rip),%rax        # 130c0 <g_31>
    e3ed:	8b 04 02             	mov    (%rdx,%rax,1),%eax
    e3f0:	48 98                	cltq   
    e3f2:	8b 55 fc             	mov    -0x4(%rbp),%edx
    e3f5:	48 8d 35 ad 1d 00 00 	lea    0x1dad(%rip),%rsi        # 101a9 <g_634+0x1151>
    e3fc:	48 89 c7             	mov    %rax,%rdi
    e3ff:	e8 ef 82 ff ff       	callq  66f3 <transparent_crc>
    e404:	83 7d fc 00          	cmpl   $0x0,-0x4(%rbp)
    e408:	74 1c                	je     e426 <main+0x1a6>
    e40a:	8b 4d f8             	mov    -0x8(%rbp),%ecx
    e40d:	8b 55 f4             	mov    -0xc(%rbp),%edx
    e410:	8b 45 f0             	mov    -0x10(%rbp),%eax
    e413:	89 c6                	mov    %eax,%esi
    e415:	48 8d 3d 9b 1d 00 00 	lea    0x1d9b(%rip),%rdi        # 101b7 <g_634+0x115f>
    e41c:	b8 00 00 00 00       	mov    $0x0,%eax
    e421:	e8 5a 6c ff ff       	callq  5080 <printf@plt>
    e426:	83 45 f8 01          	addl   $0x1,-0x8(%rbp)
    e42a:	83 7d f8 04          	cmpl   $0x4,-0x8(%rbp)
    e42e:	0f 8e 7b ff ff ff    	jle    e3af <main+0x12f>
    e434:	83 45 f4 01          	addl   $0x1,-0xc(%rbp)
    e438:	83 7d f4 01          	cmpl   $0x1,-0xc(%rbp)
    e43c:	0f 8e 64 ff ff ff    	jle    e3a6 <main+0x126>
    e442:	83 45 f0 01          	addl   $0x1,-0x10(%rbp)
    e446:	83 7d f0 00          	cmpl   $0x0,-0x10(%rbp)
    e44a:	0f 8e 4a ff ff ff    	jle    e39a <main+0x11a>
    e450:	c7 45 f0 00 00 00 00 	movl   $0x0,-0x10(%rbp)
    e457:	eb 4d                	jmp    e4a6 <main+0x226>
    e459:	8b 45 f0             	mov    -0x10(%rbp),%eax
    e45c:	48 98                	cltq   
    e45e:	48 8d 14 85 00 00 00 	lea    0x0(,%rax,4),%rdx
    e465:	00 
    e466:	48 8d 05 7b 4c 00 00 	lea    0x4c7b(%rip),%rax        # 130e8 <g_47>
    e46d:	8b 04 02             	mov    (%rdx,%rax,1),%eax
    e470:	89 c1                	mov    %eax,%ecx
    e472:	8b 45 fc             	mov    -0x4(%rbp),%eax
    e475:	89 c2                	mov    %eax,%edx
    e477:	48 8d 35 4f 1d 00 00 	lea    0x1d4f(%rip),%rsi        # 101cd <g_634+0x1175>
    e47e:	48 89 cf             	mov    %rcx,%rdi
    e481:	e8 6d 82 ff ff       	callq  66f3 <transparent_crc>
    e486:	83 7d fc 00          	cmpl   $0x0,-0x4(%rbp)
    e48a:	74 16                	je     e4a2 <main+0x222>
    e48c:	8b 45 f0             	mov    -0x10(%rbp),%eax
    e48f:	89 c6                	mov    %eax,%esi
    e491:	48 8d 3d 3d 1d 00 00 	lea    0x1d3d(%rip),%rdi        # 101d5 <g_634+0x117d>
    e498:	b8 00 00 00 00       	mov    $0x0,%eax
    e49d:	e8 de 6b ff ff       	callq  5080 <printf@plt>
    e4a2:	83 45 f0 01          	addl   $0x1,-0x10(%rbp)
    e4a6:	83 7d f0 02          	cmpl   $0x2,-0x10(%rbp)
    e4aa:	7e ad                	jle    e459 <main+0x1d9>
    e4ac:	0f b6 05 41 4c 00 00 	movzbl 0x4c41(%rip),%eax        # 130f4 <g_56>
    e4b3:	48 0f be c0          	movsbq %al,%rax
    e4b7:	8b 55 fc             	mov    -0x4(%rbp),%edx
    e4ba:	48 8d 35 22 1d 00 00 	lea    0x1d22(%rip),%rsi        # 101e3 <g_634+0x118b>
    e4c1:	48 89 c7             	mov    %rax,%rdi
    e4c4:	e8 2a 82 ff ff       	callq  66f3 <transparent_crc>
    e4c9:	8b 05 29 4c 00 00    	mov    0x4c29(%rip),%eax        # 130f8 <g_74>
    e4cf:	48 98                	cltq   
    e4d1:	8b 55 fc             	mov    -0x4(%rbp),%edx
    e4d4:	48 8d 35 0d 1d 00 00 	lea    0x1d0d(%rip),%rsi        # 101e8 <g_634+0x1190>
    e4db:	48 89 c7             	mov    %rax,%rdi
    e4de:	e8 10 82 ff ff       	callq  66f3 <transparent_crc>
    e4e3:	8b 05 13 4c 00 00    	mov    0x4c13(%rip),%eax        # 130fc <g_75>
    e4e9:	89 c1                	mov    %eax,%ecx
    e4eb:	8b 45 fc             	mov    -0x4(%rbp),%eax
    e4ee:	89 c2                	mov    %eax,%edx
    e4f0:	48 8d 35 f6 1c 00 00 	lea    0x1cf6(%rip),%rsi        # 101ed <g_634+0x1195>
    e4f7:	48 89 cf             	mov    %rcx,%rdi
    e4fa:	e8 f4 81 ff ff       	callq  66f3 <transparent_crc>
    e4ff:	8b 05 fb 4b 00 00    	mov    0x4bfb(%rip),%eax        # 13100 <g_90>
    e505:	89 c1                	mov    %eax,%ecx
    e507:	8b 45 fc             	mov    -0x4(%rbp),%eax
    e50a:	89 c2                	mov    %eax,%edx
    e50c:	48 8d 35 df 1c 00 00 	lea    0x1cdf(%rip),%rsi        # 101f2 <g_634+0x119a>
    e513:	48 89 cf             	mov    %rcx,%rdi
    e516:	e8 d8 81 ff ff       	callq  66f3 <transparent_crc>
    e51b:	0f b7 05 e2 4b 00 00 	movzwl 0x4be2(%rip),%eax        # 13104 <g_103>
    e522:	0f b7 c0             	movzwl %ax,%eax
    e525:	8b 55 fc             	mov    -0x4(%rbp),%edx
    e528:	48 8d 35 cb 1c 00 00 	lea    0x1ccb(%rip),%rsi        # 101fa <g_634+0x11a2>
    e52f:	48 89 c7             	mov    %rax,%rdi
    e532:	e8 bc 81 ff ff       	callq  66f3 <transparent_crc>
    e537:	8b 05 cb 4b 00 00    	mov    0x4bcb(%rip),%eax        # 13108 <g_120>
    e53d:	89 c1                	mov    %eax,%ecx
    e53f:	8b 45 fc             	mov    -0x4(%rbp),%eax
    e542:	89 c2                	mov    %eax,%edx
    e544:	48 8d 35 b5 1c 00 00 	lea    0x1cb5(%rip),%rsi        # 10200 <g_634+0x11a8>
    e54b:	48 89 cf             	mov    %rcx,%rdi
    e54e:	e8 a0 81 ff ff       	callq  66f3 <transparent_crc>
    e553:	0f b6 05 b2 4b 00 00 	movzbl 0x4bb2(%rip),%eax        # 1310c <g_132>
    e55a:	0f b6 c0             	movzbl %al,%eax
    e55d:	8b 55 fc             	mov    -0x4(%rbp),%edx
    e560:	48 8d 35 9f 1c 00 00 	lea    0x1c9f(%rip),%rsi        # 10206 <g_634+0x11ae>
    e567:	48 89 c7             	mov    %rax,%rdi
    e56a:	e8 84 81 ff ff       	callq  66f3 <transparent_crc>
    e56f:	48 8b 05 f2 6b 00 00 	mov    0x6bf2(%rip),%rax        # 15168 <g_133>
    e576:	48 89 c1             	mov    %rax,%rcx
    e579:	8b 45 fc             	mov    -0x4(%rbp),%eax
    e57c:	89 c2                	mov    %eax,%edx
    e57e:	48 8d 35 87 1c 00 00 	lea    0x1c87(%rip),%rsi        # 1020c <g_634+0x11b4>
    e585:	48 89 cf             	mov    %rcx,%rdi
    e588:	e8 66 81 ff ff       	callq  66f3 <transparent_crc>
    e58d:	c7 45 f0 00 00 00 00 	movl   $0x0,-0x10(%rbp)
    e594:	e9 9c 00 00 00       	jmpq   e635 <main+0x3b5>
    e599:	c7 45 f4 00 00 00 00 	movl   $0x0,-0xc(%rbp)
    e5a0:	e9 82 00 00 00       	jmpq   e627 <main+0x3a7>
    e5a5:	c7 45 f8 00 00 00 00 	movl   $0x0,-0x8(%rbp)
    e5ac:	eb 6f                	jmp    e61d <main+0x39d>
    e5ae:	8b 45 f8             	mov    -0x8(%rbp),%eax
    e5b1:	48 63 c8             	movslq %eax,%rcx
    e5b4:	8b 45 f0             	mov    -0x10(%rbp),%eax
    e5b7:	48 63 d0             	movslq %eax,%rdx
    e5ba:	8b 45 f4             	mov    -0xc(%rbp),%eax
    e5bd:	48 63 f0             	movslq %eax,%rsi
    e5c0:	48 89 d0             	mov    %rdx,%rax
    e5c3:	48 c1 e0 02          	shl    $0x2,%rax
    e5c7:	48 01 d0             	add    %rdx,%rax
    e5ca:	48 01 f0             	add    %rsi,%rax
    e5cd:	48 c1 e0 02          	shl    $0x2,%rax
    e5d1:	48 8d 14 08          	lea    (%rax,%rcx,1),%rdx
    e5d5:	48 8d 05 44 4b 00 00 	lea    0x4b44(%rip),%rax        # 13120 <g_134>
    e5dc:	48 01 d0             	add    %rdx,%rax
    e5df:	0f b6 00             	movzbl (%rax),%eax
    e5e2:	0f b6 c0             	movzbl %al,%eax
    e5e5:	8b 55 fc             	mov    -0x4(%rbp),%edx
    e5e8:	48 8d 35 23 1c 00 00 	lea    0x1c23(%rip),%rsi        # 10212 <g_634+0x11ba>
    e5ef:	48 89 c7             	mov    %rax,%rdi
    e5f2:	e8 fc 80 ff ff       	callq  66f3 <transparent_crc>
    e5f7:	83 7d fc 00          	cmpl   $0x0,-0x4(%rbp)
    e5fb:	74 1c                	je     e619 <main+0x399>
    e5fd:	8b 4d f8             	mov    -0x8(%rbp),%ecx
    e600:	8b 55 f4             	mov    -0xc(%rbp),%edx
    e603:	8b 45 f0             	mov    -0x10(%rbp),%eax
    e606:	89 c6                	mov    %eax,%esi
    e608:	48 8d 3d a8 1b 00 00 	lea    0x1ba8(%rip),%rdi        # 101b7 <g_634+0x115f>
    e60f:	b8 00 00 00 00       	mov    $0x0,%eax
    e614:	e8 67 6a ff ff       	callq  5080 <printf@plt>
    e619:	83 45 f8 01          	addl   $0x1,-0x8(%rbp)
    e61d:	83 7d f8 03          	cmpl   $0x3,-0x8(%rbp)
    e621:	7e 8b                	jle    e5ae <main+0x32e>
    e623:	83 45 f4 01          	addl   $0x1,-0xc(%rbp)
    e627:	83 7d f4 04          	cmpl   $0x4,-0xc(%rbp)
    e62b:	0f 8e 74 ff ff ff    	jle    e5a5 <main+0x325>
    e631:	83 45 f0 01          	addl   $0x1,-0x10(%rbp)
    e635:	83 7d f0 04          	cmpl   $0x4,-0x10(%rbp)
    e639:	0f 8e 5a ff ff ff    	jle    e599 <main+0x319>
    e63f:	8b 05 3f 4b 00 00    	mov    0x4b3f(%rip),%eax        # 13184 <g_148>
    e645:	89 c1                	mov    %eax,%ecx
    e647:	8b 45 fc             	mov    -0x4(%rbp),%eax
    e64a:	89 c2                	mov    %eax,%edx
    e64c:	48 8d 35 ce 1b 00 00 	lea    0x1bce(%rip),%rsi        # 10221 <g_634+0x11c9>
    e653:	48 89 cf             	mov    %rcx,%rdi
    e656:	e8 98 80 ff ff       	callq  66f3 <transparent_crc>
    e65b:	8b 05 27 4b 00 00    	mov    0x4b27(%rip),%eax        # 13188 <g_149>
    e661:	89 c1                	mov    %eax,%ecx
    e663:	8b 45 fc             	mov    -0x4(%rbp),%eax
    e666:	89 c2                	mov    %eax,%edx
    e668:	48 8d 35 bb 1b 00 00 	lea    0x1bbb(%rip),%rsi        # 1022a <g_634+0x11d2>
    e66f:	48 89 cf             	mov    %rcx,%rdi
    e672:	e8 7c 80 ff ff       	callq  66f3 <transparent_crc>
    e677:	0f b6 05 0e 4b 00 00 	movzbl 0x4b0e(%rip),%eax        # 1318c <g_154>
    e67e:	48 0f be c0          	movsbq %al,%rax
    e682:	8b 55 fc             	mov    -0x4(%rbp),%edx
    e685:	48 8d 35 a4 1b 00 00 	lea    0x1ba4(%rip),%rsi        # 10230 <g_634+0x11d8>
    e68c:	48 89 c7             	mov    %rax,%rdi
    e68f:	e8 5f 80 ff ff       	callq  66f3 <transparent_crc>
    e694:	48 8b 05 f5 4a 00 00 	mov    0x4af5(%rip),%rax        # 13190 <g_157>
    e69b:	8b 55 fc             	mov    -0x4(%rbp),%edx
    e69e:	48 8d 35 91 1b 00 00 	lea    0x1b91(%rip),%rsi        # 10236 <g_634+0x11de>
    e6a5:	48 89 c7             	mov    %rax,%rdi
    e6a8:	e8 46 80 ff ff       	callq  66f3 <transparent_crc>
    e6ad:	8b 05 e5 4a 00 00    	mov    0x4ae5(%rip),%eax        # 13198 <g_163>
    e6b3:	48 98                	cltq   
    e6b5:	8b 55 fc             	mov    -0x4(%rbp),%edx
    e6b8:	48 8d 35 7d 1b 00 00 	lea    0x1b7d(%rip),%rsi        # 1023c <g_634+0x11e4>
    e6bf:	48 89 c7             	mov    %rax,%rdi
    e6c2:	e8 2c 80 ff ff       	callq  66f3 <transparent_crc>
    e6c7:	48 8b 05 d2 4a 00 00 	mov    0x4ad2(%rip),%rax        # 131a0 <g_167>
    e6ce:	48 89 c1             	mov    %rax,%rcx
    e6d1:	8b 45 fc             	mov    -0x4(%rbp),%eax
    e6d4:	89 c2                	mov    %eax,%edx
    e6d6:	48 8d 35 65 1b 00 00 	lea    0x1b65(%rip),%rsi        # 10242 <g_634+0x11ea>
    e6dd:	48 89 cf             	mov    %rcx,%rdi
    e6e0:	e8 0e 80 ff ff       	callq  66f3 <transparent_crc>
    e6e5:	c7 45 f0 00 00 00 00 	movl   $0x0,-0x10(%rbp)
    e6ec:	eb 4a                	jmp    e738 <main+0x4b8>
    e6ee:	8b 45 f0             	mov    -0x10(%rbp),%eax
    e6f1:	48 98                	cltq   
    e6f3:	48 8d 14 c5 00 00 00 	lea    0x0(,%rax,8),%rdx
    e6fa:	00 
    e6fb:	48 8d 05 ae 4a 00 00 	lea    0x4aae(%rip),%rax        # 131b0 <g_168>
    e702:	48 8b 04 02          	mov    (%rdx,%rax,1),%rax
    e706:	8b 55 fc             	mov    -0x4(%rbp),%edx
    e709:	48 8d 35 38 1b 00 00 	lea    0x1b38(%rip),%rsi        # 10248 <g_634+0x11f0>
    e710:	48 89 c7             	mov    %rax,%rdi
    e713:	e8 db 7f ff ff       	callq  66f3 <transparent_crc>
    e718:	83 7d fc 00          	cmpl   $0x0,-0x4(%rbp)
    e71c:	74 16                	je     e734 <main+0x4b4>
    e71e:	8b 45 f0             	mov    -0x10(%rbp),%eax
    e721:	89 c6                	mov    %eax,%esi
    e723:	48 8d 3d ab 1a 00 00 	lea    0x1aab(%rip),%rdi        # 101d5 <g_634+0x117d>
    e72a:	b8 00 00 00 00       	mov    $0x0,%eax
    e72f:	e8 4c 69 ff ff       	callq  5080 <printf@plt>
    e734:	83 45 f0 01          	addl   $0x1,-0x10(%rbp)
    e738:	83 7d f0 02          	cmpl   $0x2,-0x10(%rbp)
    e73c:	7e b0                	jle    e6ee <main+0x46e>
    e73e:	0f b6 05 83 4a 00 00 	movzbl 0x4a83(%rip),%eax        # 131c8 <g_178>
    e745:	48 0f be c0          	movsbq %al,%rax
    e749:	8b 55 fc             	mov    -0x4(%rbp),%edx
    e74c:	48 8d 35 fe 1a 00 00 	lea    0x1afe(%rip),%rsi        # 10251 <g_634+0x11f9>
    e753:	48 89 c7             	mov    %rax,%rdi
    e756:	e8 98 7f ff ff       	callq  66f3 <transparent_crc>
    e75b:	0f b6 05 0e 6a 00 00 	movzbl 0x6a0e(%rip),%eax        # 15170 <g_180>
    e762:	0f b6 c0             	movzbl %al,%eax
    e765:	8b 55 fc             	mov    -0x4(%rbp),%edx
    e768:	48 8d 35 e8 1a 00 00 	lea    0x1ae8(%rip),%rsi        # 10257 <g_634+0x11ff>
    e76f:	48 89 c7             	mov    %rax,%rdi
    e772:	e8 7c 7f ff ff       	callq  66f3 <transparent_crc>
    e777:	8b 05 f7 69 00 00    	mov    0x69f7(%rip),%eax        # 15174 <g_203>
    e77d:	89 c1                	mov    %eax,%ecx
    e77f:	8b 45 fc             	mov    -0x4(%rbp),%eax
    e782:	89 c2                	mov    %eax,%edx
    e784:	48 8d 35 d2 1a 00 00 	lea    0x1ad2(%rip),%rsi        # 1025d <g_634+0x1205>
    e78b:	48 89 cf             	mov    %rcx,%rdi
    e78e:	e8 60 7f ff ff       	callq  66f3 <transparent_crc>
    e793:	48 8b 05 36 4a 00 00 	mov    0x4a36(%rip),%rax        # 131d0 <g_206>
    e79a:	8b 55 fc             	mov    -0x4(%rbp),%edx
    e79d:	48 8d 35 bf 1a 00 00 	lea    0x1abf(%rip),%rsi        # 10263 <g_634+0x120b>
    e7a4:	48 89 c7             	mov    %rax,%rdi
    e7a7:	e8 47 7f ff ff       	callq  66f3 <transparent_crc>
    e7ac:	8b 05 26 4a 00 00    	mov    0x4a26(%rip),%eax        # 131d8 <g_207>
    e7b2:	48 98                	cltq   
    e7b4:	8b 55 fc             	mov    -0x4(%rbp),%edx
    e7b7:	48 8d 35 ab 1a 00 00 	lea    0x1aab(%rip),%rsi        # 10269 <g_634+0x1211>
    e7be:	48 89 c7             	mov    %rax,%rdi
    e7c1:	e8 2d 7f ff ff       	callq  66f3 <transparent_crc>
    e7c6:	0f b7 05 0f 4a 00 00 	movzwl 0x4a0f(%rip),%eax        # 131dc <g_232>
    e7cd:	48 0f bf c0          	movswq %ax,%rax
    e7d1:	8b 55 fc             	mov    -0x4(%rbp),%edx
    e7d4:	48 8d 35 94 1a 00 00 	lea    0x1a94(%rip),%rsi        # 1026f <g_634+0x1217>
    e7db:	48 89 c7             	mov    %rax,%rdi
    e7de:	e8 10 7f ff ff       	callq  66f3 <transparent_crc>
    e7e3:	0f b7 05 f4 49 00 00 	movzwl 0x49f4(%rip),%eax        # 131de <g_234>
    e7ea:	48 0f bf c0          	movswq %ax,%rax
    e7ee:	8b 55 fc             	mov    -0x4(%rbp),%edx
    e7f1:	48 8d 35 7d 1a 00 00 	lea    0x1a7d(%rip),%rsi        # 10275 <g_634+0x121d>
    e7f8:	48 89 c7             	mov    %rax,%rdi
    e7fb:	e8 f3 7e ff ff       	callq  66f3 <transparent_crc>
    e800:	8b 05 da 49 00 00    	mov    0x49da(%rip),%eax        # 131e0 <g_240>
    e806:	48 98                	cltq   
    e808:	8b 55 fc             	mov    -0x4(%rbp),%edx
    e80b:	48 8d 35 69 1a 00 00 	lea    0x1a69(%rip),%rsi        # 1027b <g_634+0x1223>
    e812:	48 89 c7             	mov    %rax,%rdi
    e815:	e8 d9 7e ff ff       	callq  66f3 <transparent_crc>
    e81a:	b8 c5 45 00 00       	mov    $0x45c5,%eax
    e81f:	0f b7 c0             	movzwl %ax,%eax
    e822:	8b 55 fc             	mov    -0x4(%rbp),%edx
    e825:	48 8d 35 55 1a 00 00 	lea    0x1a55(%rip),%rsi        # 10281 <g_634+0x1229>
    e82c:	48 89 c7             	mov    %rax,%rdi
    e82f:	e8 bf 7e ff ff       	callq  66f3 <transparent_crc>
    e834:	c7 45 f0 00 00 00 00 	movl   $0x0,-0x10(%rbp)
    e83b:	eb 4d                	jmp    e88a <main+0x60a>
    e83d:	8b 45 f0             	mov    -0x10(%rbp),%eax
    e840:	48 98                	cltq   
    e842:	48 8d 14 85 00 00 00 	lea    0x0(,%rax,4),%rdx
    e849:	00 
    e84a:	48 8d 05 97 49 00 00 	lea    0x4997(%rip),%rax        # 131e8 <g_274>
    e851:	8b 04 02             	mov    (%rdx,%rax,1),%eax
    e854:	89 c1                	mov    %eax,%ecx
    e856:	8b 45 fc             	mov    -0x4(%rbp),%eax
    e859:	89 c2                	mov    %eax,%edx
    e85b:	48 8d 35 25 1a 00 00 	lea    0x1a25(%rip),%rsi        # 10287 <g_634+0x122f>
    e862:	48 89 cf             	mov    %rcx,%rdi
    e865:	e8 89 7e ff ff       	callq  66f3 <transparent_crc>
    e86a:	83 7d fc 00          	cmpl   $0x0,-0x4(%rbp)
    e86e:	74 16                	je     e886 <main+0x606>
    e870:	8b 45 f0             	mov    -0x10(%rbp),%eax
    e873:	89 c6                	mov    %eax,%esi
    e875:	48 8d 3d 59 19 00 00 	lea    0x1959(%rip),%rdi        # 101d5 <g_634+0x117d>
    e87c:	b8 00 00 00 00       	mov    $0x0,%eax
    e881:	e8 fa 67 ff ff       	callq  5080 <printf@plt>
    e886:	83 45 f0 01          	addl   $0x1,-0x10(%rbp)
    e88a:	83 7d f0 01          	cmpl   $0x1,-0x10(%rbp)
    e88e:	7e ad                	jle    e83d <main+0x5bd>
    e890:	8b 05 5a 49 00 00    	mov    0x495a(%rip),%eax        # 131f0 <g_278>
    e896:	89 c1                	mov    %eax,%ecx
    e898:	8b 45 fc             	mov    -0x4(%rbp),%eax
    e89b:	89 c2                	mov    %eax,%edx
    e89d:	48 8d 35 ef 19 00 00 	lea    0x19ef(%rip),%rsi        # 10293 <g_634+0x123b>
    e8a4:	48 89 cf             	mov    %rcx,%rdi
    e8a7:	e8 47 7e ff ff       	callq  66f3 <transparent_crc>
    e8ac:	8b 05 42 49 00 00    	mov    0x4942(%rip),%eax        # 131f4 <g_371>
    e8b2:	89 c1                	mov    %eax,%ecx
    e8b4:	8b 45 fc             	mov    -0x4(%rbp),%eax
    e8b7:	89 c2                	mov    %eax,%edx
    e8b9:	48 8d 35 dc 19 00 00 	lea    0x19dc(%rip),%rsi        # 1029c <g_634+0x1244>
    e8c0:	48 89 cf             	mov    %rcx,%rdi
    e8c3:	e8 2b 7e ff ff       	callq  66f3 <transparent_crc>
    e8c8:	8b 05 2a 49 00 00    	mov    0x492a(%rip),%eax        # 131f8 <g_416>
    e8ce:	89 c1                	mov    %eax,%ecx
    e8d0:	8b 45 fc             	mov    -0x4(%rbp),%eax
    e8d3:	89 c2                	mov    %eax,%edx
    e8d5:	48 8d 35 c9 19 00 00 	lea    0x19c9(%rip),%rsi        # 102a5 <g_634+0x124d>
    e8dc:	48 89 cf             	mov    %rcx,%rdi
    e8df:	e8 0f 7e ff ff       	callq  66f3 <transparent_crc>
    e8e4:	c7 45 f0 00 00 00 00 	movl   $0x0,-0x10(%rbp)
    e8eb:	eb 6c                	jmp    e959 <main+0x6d9>
    e8ed:	c7 45 f4 00 00 00 00 	movl   $0x0,-0xc(%rbp)
    e8f4:	eb 59                	jmp    e94f <main+0x6cf>
    e8f6:	8b 45 f4             	mov    -0xc(%rbp),%eax
    e8f9:	48 63 d0             	movslq %eax,%rdx
    e8fc:	8b 45 f0             	mov    -0x10(%rbp),%eax
    e8ff:	48 98                	cltq   
    e901:	48 01 d0             	add    %rdx,%rax
    e904:	48 8d 14 85 00 00 00 	lea    0x0(,%rax,4),%rdx
    e90b:	00 
    e90c:	48 8d 05 ed 48 00 00 	lea    0x48ed(%rip),%rax        # 13200 <g_418>
    e913:	8b 04 02             	mov    (%rdx,%rax,1),%eax
    e916:	89 c1                	mov    %eax,%ecx
    e918:	8b 45 fc             	mov    -0x4(%rbp),%eax
    e91b:	89 c2                	mov    %eax,%edx
    e91d:	48 8d 35 8a 19 00 00 	lea    0x198a(%rip),%rsi        # 102ae <g_634+0x1256>
    e924:	48 89 cf             	mov    %rcx,%rdi
    e927:	e8 c7 7d ff ff       	callq  66f3 <transparent_crc>
    e92c:	83 7d fc 00          	cmpl   $0x0,-0x4(%rbp)
    e930:	74 19                	je     e94b <main+0x6cb>
    e932:	8b 55 f4             	mov    -0xc(%rbp),%edx
    e935:	8b 45 f0             	mov    -0x10(%rbp),%eax
    e938:	89 c6                	mov    %eax,%esi
    e93a:	48 8d 3d 56 18 00 00 	lea    0x1856(%rip),%rdi        # 10197 <g_634+0x113f>
    e941:	b8 00 00 00 00       	mov    $0x0,%eax
    e946:	e8 35 67 ff ff       	callq  5080 <printf@plt>
    e94b:	83 45 f4 01          	addl   $0x1,-0xc(%rbp)
    e94f:	83 7d f4 00          	cmpl   $0x0,-0xc(%rbp)
    e953:	7e a1                	jle    e8f6 <main+0x676>
    e955:	83 45 f0 01          	addl   $0x1,-0x10(%rbp)
    e959:	83 7d f0 05          	cmpl   $0x5,-0x10(%rbp)
    e95d:	7e 8e                	jle    e8ed <main+0x66d>
    e95f:	8b 05 b3 48 00 00    	mov    0x48b3(%rip),%eax        # 13218 <g_419>
    e965:	89 c1                	mov    %eax,%ecx
    e967:	8b 45 fc             	mov    -0x4(%rbp),%eax
    e96a:	89 c2                	mov    %eax,%edx
    e96c:	48 8d 35 4a 19 00 00 	lea    0x194a(%rip),%rsi        # 102bd <g_634+0x1265>
    e973:	48 89 cf             	mov    %rcx,%rdi
    e976:	e8 78 7d ff ff       	callq  66f3 <transparent_crc>
    e97b:	8b 05 9b 48 00 00    	mov    0x489b(%rip),%eax        # 1321c <g_421>
    e981:	89 c1                	mov    %eax,%ecx
    e983:	8b 45 fc             	mov    -0x4(%rbp),%eax
    e986:	89 c2                	mov    %eax,%edx
    e988:	48 8d 35 37 19 00 00 	lea    0x1937(%rip),%rsi        # 102c6 <g_634+0x126e>
    e98f:	48 89 cf             	mov    %rcx,%rdi
    e992:	e8 5c 7d ff ff       	callq  66f3 <transparent_crc>
    e997:	c7 45 f0 00 00 00 00 	movl   $0x0,-0x10(%rbp)
    e99e:	eb 77                	jmp    ea17 <main+0x797>
    e9a0:	c7 45 f4 00 00 00 00 	movl   $0x0,-0xc(%rbp)
    e9a7:	eb 64                	jmp    ea0d <main+0x78d>
    e9a9:	8b 45 f4             	mov    -0xc(%rbp),%eax
    e9ac:	48 63 c8             	movslq %eax,%rcx
    e9af:	8b 45 f0             	mov    -0x10(%rbp),%eax
    e9b2:	48 63 d0             	movslq %eax,%rdx
    e9b5:	48 89 d0             	mov    %rdx,%rax
    e9b8:	48 c1 e0 03          	shl    $0x3,%rax
    e9bc:	48 29 d0             	sub    %rdx,%rax
    e9bf:	48 01 c8             	add    %rcx,%rax
    e9c2:	48 8d 14 85 00 00 00 	lea    0x0(,%rax,4),%rdx
    e9c9:	00 
    e9ca:	48 8d 05 4f 48 00 00 	lea    0x484f(%rip),%rax        # 13220 <g_447>
    e9d1:	8b 04 02             	mov    (%rdx,%rax,1),%eax
    e9d4:	89 c1                	mov    %eax,%ecx
    e9d6:	8b 45 fc             	mov    -0x4(%rbp),%eax
    e9d9:	89 c2                	mov    %eax,%edx
    e9db:	48 8d 35 ed 18 00 00 	lea    0x18ed(%rip),%rsi        # 102cf <g_634+0x1277>
    e9e2:	48 89 cf             	mov    %rcx,%rdi
    e9e5:	e8 09 7d ff ff       	callq  66f3 <transparent_crc>
    e9ea:	83 7d fc 00          	cmpl   $0x0,-0x4(%rbp)
    e9ee:	74 19                	je     ea09 <main+0x789>
    e9f0:	8b 55 f4             	mov    -0xc(%rbp),%edx
    e9f3:	8b 45 f0             	mov    -0x10(%rbp),%eax
    e9f6:	89 c6                	mov    %eax,%esi
    e9f8:	48 8d 3d 98 17 00 00 	lea    0x1798(%rip),%rdi        # 10197 <g_634+0x113f>
    e9ff:	b8 00 00 00 00       	mov    $0x0,%eax
    ea04:	e8 77 66 ff ff       	callq  5080 <printf@plt>
    ea09:	83 45 f4 01          	addl   $0x1,-0xc(%rbp)
    ea0d:	83 7d f4 06          	cmpl   $0x6,-0xc(%rbp)
    ea11:	7e 96                	jle    e9a9 <main+0x729>
    ea13:	83 45 f0 01          	addl   $0x1,-0x10(%rbp)
    ea17:	83 7d f0 06          	cmpl   $0x6,-0x10(%rbp)
    ea1b:	7e 83                	jle    e9a0 <main+0x720>
    ea1d:	0f b6 05 c0 48 00 00 	movzbl 0x48c0(%rip),%eax        # 132e4 <g_467>
    ea24:	48 0f be c0          	movsbq %al,%rax
    ea28:	8b 55 fc             	mov    -0x4(%rbp),%edx
    ea2b:	48 8d 35 a9 18 00 00 	lea    0x18a9(%rip),%rsi        # 102db <g_634+0x1283>
    ea32:	48 89 c7             	mov    %rax,%rdi
    ea35:	e8 b9 7c ff ff       	callq  66f3 <transparent_crc>
    ea3a:	8b 05 a8 48 00 00    	mov    0x48a8(%rip),%eax        # 132e8 <g_469>
    ea40:	48 98                	cltq   
    ea42:	8b 55 fc             	mov    -0x4(%rbp),%edx
    ea45:	48 8d 35 95 18 00 00 	lea    0x1895(%rip),%rsi        # 102e1 <g_634+0x1289>
    ea4c:	48 89 c7             	mov    %rax,%rdi
    ea4f:	e8 9f 7c ff ff       	callq  66f3 <transparent_crc>
    ea54:	8b 05 92 48 00 00    	mov    0x4892(%rip),%eax        # 132ec <g_471>
    ea5a:	89 c1                	mov    %eax,%ecx
    ea5c:	8b 45 fc             	mov    -0x4(%rbp),%eax
    ea5f:	89 c2                	mov    %eax,%edx
    ea61:	48 8d 35 7f 18 00 00 	lea    0x187f(%rip),%rsi        # 102e7 <g_634+0x128f>
    ea68:	48 89 cf             	mov    %rcx,%rdi
    ea6b:	e8 83 7c ff ff       	callq  66f3 <transparent_crc>
    ea70:	c7 45 f0 00 00 00 00 	movl   $0x0,-0x10(%rbp)
    ea77:	eb 7a                	jmp    eaf3 <main+0x873>
    ea79:	c7 45 f4 00 00 00 00 	movl   $0x0,-0xc(%rbp)
    ea80:	eb 67                	jmp    eae9 <main+0x869>
    ea82:	8b 45 f4             	mov    -0xc(%rbp),%eax
    ea85:	48 63 c8             	movslq %eax,%rcx
    ea88:	8b 45 f0             	mov    -0x10(%rbp),%eax
    ea8b:	48 63 d0             	movslq %eax,%rdx
    ea8e:	48 89 d0             	mov    %rdx,%rax
    ea91:	48 c1 e0 02          	shl    $0x2,%rax
    ea95:	48 01 d0             	add    %rdx,%rax
    ea98:	48 01 c0             	add    %rax,%rax
    ea9b:	48 01 c8             	add    %rcx,%rax
    ea9e:	48 8d 14 85 00 00 00 	lea    0x0(,%rax,4),%rdx
    eaa5:	00 
    eaa6:	48 8d 05 53 48 00 00 	lea    0x4853(%rip),%rax        # 13300 <g_499>
    eaad:	8b 04 02             	mov    (%rdx,%rax,1),%eax
    eab0:	89 c1                	mov    %eax,%ecx
    eab2:	8b 45 fc             	mov    -0x4(%rbp),%eax
    eab5:	89 c2                	mov    %eax,%edx
    eab7:	48 8d 35 2f 18 00 00 	lea    0x182f(%rip),%rsi        # 102ed <g_634+0x1295>
    eabe:	48 89 cf             	mov    %rcx,%rdi
    eac1:	e8 2d 7c ff ff       	callq  66f3 <transparent_crc>
    eac6:	83 7d fc 00          	cmpl   $0x0,-0x4(%rbp)
    eaca:	74 19                	je     eae5 <main+0x865>
    eacc:	8b 55 f4             	mov    -0xc(%rbp),%edx
    eacf:	8b 45 f0             	mov    -0x10(%rbp),%eax
    ead2:	89 c6                	mov    %eax,%esi
    ead4:	48 8d 3d bc 16 00 00 	lea    0x16bc(%rip),%rdi        # 10197 <g_634+0x113f>
    eadb:	b8 00 00 00 00       	mov    $0x0,%eax
    eae0:	e8 9b 65 ff ff       	callq  5080 <printf@plt>
    eae5:	83 45 f4 01          	addl   $0x1,-0xc(%rbp)
    eae9:	83 7d f4 09          	cmpl   $0x9,-0xc(%rbp)
    eaed:	7e 93                	jle    ea82 <main+0x802>
    eaef:	83 45 f0 01          	addl   $0x1,-0x10(%rbp)
    eaf3:	83 7d f0 07          	cmpl   $0x7,-0x10(%rbp)
    eaf7:	7e 80                	jle    ea79 <main+0x7f9>
    eaf9:	0f b6 05 40 49 00 00 	movzbl 0x4940(%rip),%eax        # 13440 <g_501>
    eb00:	0f b6 c0             	movzbl %al,%eax
    eb03:	8b 55 fc             	mov    -0x4(%rbp),%edx
    eb06:	48 8d 35 ec 17 00 00 	lea    0x17ec(%rip),%rsi        # 102f9 <g_634+0x12a1>
    eb0d:	48 89 c7             	mov    %rax,%rdi
    eb10:	e8 de 7b ff ff       	callq  66f3 <transparent_crc>
    eb15:	48 8b 05 2c 49 00 00 	mov    0x492c(%rip),%rax        # 13448 <g_530>
    eb1c:	8b 55 fc             	mov    -0x4(%rbp),%edx
    eb1f:	48 8d 35 d9 17 00 00 	lea    0x17d9(%rip),%rsi        # 102ff <g_634+0x12a7>
    eb26:	48 89 c7             	mov    %rax,%rdi
    eb29:	e8 c5 7b ff ff       	callq  66f3 <transparent_crc>
    eb2e:	c7 45 f0 00 00 00 00 	movl   $0x0,-0x10(%rbp)
    eb35:	eb 4b                	jmp    eb82 <main+0x902>
    eb37:	8b 45 f0             	mov    -0x10(%rbp),%eax
    eb3a:	48 98                	cltq   
    eb3c:	48 8d 14 85 00 00 00 	lea    0x0(,%rax,4),%rdx
    eb43:	00 
    eb44:	48 8d 05 15 49 00 00 	lea    0x4915(%rip),%rax        # 13460 <g_595>
    eb4b:	8b 04 02             	mov    (%rdx,%rax,1),%eax
    eb4e:	48 98                	cltq   
    eb50:	8b 55 fc             	mov    -0x4(%rbp),%edx
    eb53:	48 8d 35 ab 17 00 00 	lea    0x17ab(%rip),%rsi        # 10305 <g_634+0x12ad>
    eb5a:	48 89 c7             	mov    %rax,%rdi
    eb5d:	e8 91 7b ff ff       	callq  66f3 <transparent_crc>
    eb62:	83 7d fc 00          	cmpl   $0x0,-0x4(%rbp)
    eb66:	74 16                	je     eb7e <main+0x8fe>
    eb68:	8b 45 f0             	mov    -0x10(%rbp),%eax
    eb6b:	89 c6                	mov    %eax,%esi
    eb6d:	48 8d 3d 61 16 00 00 	lea    0x1661(%rip),%rdi        # 101d5 <g_634+0x117d>
    eb74:	b8 00 00 00 00       	mov    $0x0,%eax
    eb79:	e8 02 65 ff ff       	callq  5080 <printf@plt>
    eb7e:	83 45 f0 01          	addl   $0x1,-0x10(%rbp)
    eb82:	83 7d f0 07          	cmpl   $0x7,-0x10(%rbp)
    eb86:	7e af                	jle    eb37 <main+0x8b7>
    eb88:	b8 06 00 00 00       	mov    $0x6,%eax
    eb8d:	48 98                	cltq   
    eb8f:	8b 55 fc             	mov    -0x4(%rbp),%edx
    eb92:	48 8d 35 75 17 00 00 	lea    0x1775(%rip),%rsi        # 1030e <g_634+0x12b6>
    eb99:	48 89 c7             	mov    %rax,%rdi
    eb9c:	e8 52 7b ff ff       	callq  66f3 <transparent_crc>
    eba1:	48 8b 05 d8 48 00 00 	mov    0x48d8(%rip),%rax        # 13480 <g_798>
    eba8:	8b 55 fc             	mov    -0x4(%rbp),%edx
    ebab:	48 8d 35 62 17 00 00 	lea    0x1762(%rip),%rsi        # 10314 <g_634+0x12bc>
    ebb2:	48 89 c7             	mov    %rax,%rdi
    ebb5:	e8 39 7b ff ff       	callq  66f3 <transparent_crc>
    ebba:	8b 05 c8 48 00 00    	mov    0x48c8(%rip),%eax        # 13488 <g_838>
    ebc0:	89 c1                	mov    %eax,%ecx
    ebc2:	8b 45 fc             	mov    -0x4(%rbp),%eax
    ebc5:	89 c2                	mov    %eax,%edx
    ebc7:	48 8d 35 4c 17 00 00 	lea    0x174c(%rip),%rsi        # 1031a <g_634+0x12c2>
    ebce:	48 89 cf             	mov    %rcx,%rdi
    ebd1:	e8 1d 7b ff ff       	callq  66f3 <transparent_crc>
    ebd6:	8b 05 b0 48 00 00    	mov    0x48b0(%rip),%eax        # 1348c <g_928>
    ebdc:	89 c1                	mov    %eax,%ecx
    ebde:	8b 45 fc             	mov    -0x4(%rbp),%eax
    ebe1:	89 c2                	mov    %eax,%edx
    ebe3:	48 8d 35 39 17 00 00 	lea    0x1739(%rip),%rsi        # 10323 <g_634+0x12cb>
    ebea:	48 89 cf             	mov    %rcx,%rdi
    ebed:	e8 01 7b ff ff       	callq  66f3 <transparent_crc>
    ebf2:	8b 05 98 48 00 00    	mov    0x4898(%rip),%eax        # 13490 <g_937>
    ebf8:	89 c1                	mov    %eax,%ecx
    ebfa:	8b 45 fc             	mov    -0x4(%rbp),%eax
    ebfd:	89 c2                	mov    %eax,%edx
    ebff:	48 8d 35 26 17 00 00 	lea    0x1726(%rip),%rsi        # 1032c <g_634+0x12d4>
    ec06:	48 89 cf             	mov    %rcx,%rdi
    ec09:	e8 e5 7a ff ff       	callq  66f3 <transparent_crc>
    ec0e:	c7 45 f0 00 00 00 00 	movl   $0x0,-0x10(%rbp)
    ec15:	eb 79                	jmp    ec90 <main+0xa10>
    ec17:	c7 45 f4 00 00 00 00 	movl   $0x0,-0xc(%rbp)
    ec1e:	eb 66                	jmp    ec86 <main+0xa06>
    ec20:	8b 45 f4             	mov    -0xc(%rbp),%eax
    ec23:	48 63 c8             	movslq %eax,%rcx
    ec26:	8b 45 f0             	mov    -0x10(%rbp),%eax
    ec29:	48 63 d0             	movslq %eax,%rdx
    ec2c:	48 89 d0             	mov    %rdx,%rax
    ec2f:	48 01 c0             	add    %rax,%rax
    ec32:	48 01 d0             	add    %rdx,%rax
    ec35:	48 01 c0             	add    %rax,%rax
    ec38:	48 01 c8             	add    %rcx,%rax
    ec3b:	48 8d 14 85 00 00 00 	lea    0x0(,%rax,4),%rdx
    ec42:	00 
    ec43:	48 8d 05 56 48 00 00 	lea    0x4856(%rip),%rax        # 134a0 <g_1001>
    ec4a:	8b 04 02             	mov    (%rdx,%rax,1),%eax
    ec4d:	89 c1                	mov    %eax,%ecx
    ec4f:	8b 45 fc             	mov    -0x4(%rbp),%eax
    ec52:	89 c2                	mov    %eax,%edx
    ec54:	48 8d 35 da 16 00 00 	lea    0x16da(%rip),%rsi        # 10335 <g_634+0x12dd>
    ec5b:	48 89 cf             	mov    %rcx,%rdi
    ec5e:	e8 90 7a ff ff       	callq  66f3 <transparent_crc>
    ec63:	83 7d fc 00          	cmpl   $0x0,-0x4(%rbp)
    ec67:	74 19                	je     ec82 <main+0xa02>
    ec69:	8b 55 f4             	mov    -0xc(%rbp),%edx
    ec6c:	8b 45 f0             	mov    -0x10(%rbp),%eax
    ec6f:	89 c6                	mov    %eax,%esi
    ec71:	48 8d 3d 1f 15 00 00 	lea    0x151f(%rip),%rdi        # 10197 <g_634+0x113f>
    ec78:	b8 00 00 00 00       	mov    $0x0,%eax
    ec7d:	e8 fe 63 ff ff       	callq  5080 <printf@plt>
    ec82:	83 45 f4 01          	addl   $0x1,-0xc(%rbp)
    ec86:	83 7d f4 05          	cmpl   $0x5,-0xc(%rbp)
    ec8a:	7e 94                	jle    ec20 <main+0x9a0>
    ec8c:	83 45 f0 01          	addl   $0x1,-0x10(%rbp)
    ec90:	83 7d f0 05          	cmpl   $0x5,-0x10(%rbp)
    ec94:	7e 81                	jle    ec17 <main+0x997>
    ec96:	8b 05 94 48 00 00    	mov    0x4894(%rip),%eax        # 13530 <g_1099>
    ec9c:	89 c1                	mov    %eax,%ecx
    ec9e:	8b 45 fc             	mov    -0x4(%rbp),%eax
    eca1:	89 c2                	mov    %eax,%edx
    eca3:	48 8d 35 9b 16 00 00 	lea    0x169b(%rip),%rsi        # 10345 <g_634+0x12ed>
    ecaa:	48 89 cf             	mov    %rcx,%rdi
    ecad:	e8 41 7a ff ff       	callq  66f3 <transparent_crc>
    ecb2:	8b 05 7c 48 00 00    	mov    0x487c(%rip),%eax        # 13534 <g_1100>
    ecb8:	89 c1                	mov    %eax,%ecx
    ecba:	8b 45 fc             	mov    -0x4(%rbp),%eax
    ecbd:	89 c2                	mov    %eax,%edx
    ecbf:	48 8d 35 89 16 00 00 	lea    0x1689(%rip),%rsi        # 1034f <g_634+0x12f7>
    ecc6:	48 89 cf             	mov    %rcx,%rdi
    ecc9:	e8 25 7a ff ff       	callq  66f3 <transparent_crc>
    ecce:	48 8b 05 63 48 00 00 	mov    0x4863(%rip),%rax        # 13538 <g_1129>
    ecd5:	8b 55 fc             	mov    -0x4(%rbp),%edx
    ecd8:	48 8d 35 7a 16 00 00 	lea    0x167a(%rip),%rsi        # 10359 <g_634+0x1301>
    ecdf:	48 89 c7             	mov    %rax,%rdi
    ece2:	e8 0c 7a ff ff       	callq  66f3 <transparent_crc>
    ece7:	0f b7 05 52 48 00 00 	movzwl 0x4852(%rip),%eax        # 13540 <g_1152>
    ecee:	48 0f bf c0          	movswq %ax,%rax
    ecf2:	8b 55 fc             	mov    -0x4(%rbp),%edx
    ecf5:	48 8d 35 64 16 00 00 	lea    0x1664(%rip),%rsi        # 10360 <g_634+0x1308>
    ecfc:	48 89 c7             	mov    %rax,%rdi
    ecff:	e8 ef 79 ff ff       	callq  66f3 <transparent_crc>
    ed04:	8b 05 3a 48 00 00    	mov    0x483a(%rip),%eax        # 13544 <g_1232>
    ed0a:	89 c1                	mov    %eax,%ecx
    ed0c:	8b 45 fc             	mov    -0x4(%rbp),%eax
    ed0f:	89 c2                	mov    %eax,%edx
    ed11:	48 8d 35 4f 16 00 00 	lea    0x164f(%rip),%rsi        # 10367 <g_634+0x130f>
    ed18:	48 89 cf             	mov    %rcx,%rdi
    ed1b:	e8 d3 79 ff ff       	callq  66f3 <transparent_crc>
    ed20:	8b 05 22 48 00 00    	mov    0x4822(%rip),%eax        # 13548 <g_1258>
    ed26:	89 c1                	mov    %eax,%ecx
    ed28:	8b 45 fc             	mov    -0x4(%rbp),%eax
    ed2b:	89 c2                	mov    %eax,%edx
    ed2d:	48 8d 35 3d 16 00 00 	lea    0x163d(%rip),%rsi        # 10371 <g_634+0x1319>
    ed34:	48 89 cf             	mov    %rcx,%rdi
    ed37:	e8 b7 79 ff ff       	callq  66f3 <transparent_crc>
    ed3c:	48 8b 05 0d 48 00 00 	mov    0x480d(%rip),%rax        # 13550 <g_1361>
    ed43:	8b 55 fc             	mov    -0x4(%rbp),%edx
    ed46:	48 8d 35 2e 16 00 00 	lea    0x162e(%rip),%rsi        # 1037b <g_634+0x1323>
    ed4d:	48 89 c7             	mov    %rax,%rdi
    ed50:	e8 9e 79 ff ff       	callq  66f3 <transparent_crc>
    ed55:	8b 05 6d 64 00 00    	mov    0x646d(%rip),%eax        # 151c8 <g_1514>
    ed5b:	89 c1                	mov    %eax,%ecx
    ed5d:	8b 45 fc             	mov    -0x4(%rbp),%eax
    ed60:	89 c2                	mov    %eax,%edx
    ed62:	48 8d 35 19 16 00 00 	lea    0x1619(%rip),%rsi        # 10382 <g_634+0x132a>
    ed69:	48 89 cf             	mov    %rcx,%rdi
    ed6c:	e8 82 79 ff ff       	callq  66f3 <transparent_crc>
    ed71:	8b 05 55 64 00 00    	mov    0x6455(%rip),%eax        # 151cc <g_1527>
    ed77:	89 c1                	mov    %eax,%ecx
    ed79:	8b 45 fc             	mov    -0x4(%rbp),%eax
    ed7c:	89 c2                	mov    %eax,%edx
    ed7e:	48 8d 35 07 16 00 00 	lea    0x1607(%rip),%rsi        # 1038c <g_634+0x1334>
    ed85:	48 89 cf             	mov    %rcx,%rdi
    ed88:	e8 66 79 ff ff       	callq  66f3 <transparent_crc>
    ed8d:	0f b6 05 c4 47 00 00 	movzbl 0x47c4(%rip),%eax        # 13558 <g_1548>
    ed94:	0f b6 c0             	movzbl %al,%eax
    ed97:	8b 55 fc             	mov    -0x4(%rbp),%edx
    ed9a:	48 8d 35 f5 15 00 00 	lea    0x15f5(%rip),%rsi        # 10396 <g_634+0x133e>
    eda1:	48 89 c7             	mov    %rax,%rdi
    eda4:	e8 4a 79 ff ff       	callq  66f3 <transparent_crc>
    eda9:	8b 05 ad 47 00 00    	mov    0x47ad(%rip),%eax        # 1355c <g_1599>
    edaf:	89 c1                	mov    %eax,%ecx
    edb1:	8b 45 fc             	mov    -0x4(%rbp),%eax
    edb4:	89 c2                	mov    %eax,%edx
    edb6:	48 8d 35 e0 15 00 00 	lea    0x15e0(%rip),%rsi        # 1039d <g_634+0x1345>
    edbd:	48 89 cf             	mov    %rcx,%rdi
    edc0:	e8 2e 79 ff ff       	callq  66f3 <transparent_crc>
    edc5:	8b 05 95 47 00 00    	mov    0x4795(%rip),%eax        # 13560 <g_1600>
    edcb:	89 c1                	mov    %eax,%ecx
    edcd:	8b 45 fc             	mov    -0x4(%rbp),%eax
    edd0:	89 c2                	mov    %eax,%edx
    edd2:	48 8d 35 ce 15 00 00 	lea    0x15ce(%rip),%rsi        # 103a7 <g_634+0x134f>
    edd9:	48 89 cf             	mov    %rcx,%rdi
    eddc:	e8 12 79 ff ff       	callq  66f3 <transparent_crc>
    ede1:	8b 05 7d 47 00 00    	mov    0x477d(%rip),%eax        # 13564 <g_1601>
    ede7:	89 c1                	mov    %eax,%ecx
    ede9:	8b 45 fc             	mov    -0x4(%rbp),%eax
    edec:	89 c2                	mov    %eax,%edx
    edee:	48 8d 35 bc 15 00 00 	lea    0x15bc(%rip),%rsi        # 103b1 <g_634+0x1359>
    edf5:	48 89 cf             	mov    %rcx,%rdi
    edf8:	e8 f6 78 ff ff       	callq  66f3 <transparent_crc>
    edfd:	8b 05 65 47 00 00    	mov    0x4765(%rip),%eax        # 13568 <g_1602>
    ee03:	89 c1                	mov    %eax,%ecx
    ee05:	8b 45 fc             	mov    -0x4(%rbp),%eax
    ee08:	89 c2                	mov    %eax,%edx
    ee0a:	48 8d 35 aa 15 00 00 	lea    0x15aa(%rip),%rsi        # 103bb <g_634+0x1363>
    ee11:	48 89 cf             	mov    %rcx,%rdi
    ee14:	e8 da 78 ff ff       	callq  66f3 <transparent_crc>
    ee19:	8b 05 4d 47 00 00    	mov    0x474d(%rip),%eax        # 1356c <g_1603>
    ee1f:	89 c1                	mov    %eax,%ecx
    ee21:	8b 45 fc             	mov    -0x4(%rbp),%eax
    ee24:	89 c2                	mov    %eax,%edx
    ee26:	48 8d 35 98 15 00 00 	lea    0x1598(%rip),%rsi        # 103c5 <g_634+0x136d>
    ee2d:	48 89 cf             	mov    %rcx,%rdi
    ee30:	e8 be 78 ff ff       	callq  66f3 <transparent_crc>
    ee35:	8b 05 35 47 00 00    	mov    0x4735(%rip),%eax        # 13570 <g_1604>
    ee3b:	89 c1                	mov    %eax,%ecx
    ee3d:	8b 45 fc             	mov    -0x4(%rbp),%eax
    ee40:	89 c2                	mov    %eax,%edx
    ee42:	48 8d 35 86 15 00 00 	lea    0x1586(%rip),%rsi        # 103cf <g_634+0x1377>
    ee49:	48 89 cf             	mov    %rcx,%rdi
    ee4c:	e8 a2 78 ff ff       	callq  66f3 <transparent_crc>
    ee51:	8b 05 1d 47 00 00    	mov    0x471d(%rip),%eax        # 13574 <g_1605>
    ee57:	89 c1                	mov    %eax,%ecx
    ee59:	8b 45 fc             	mov    -0x4(%rbp),%eax
    ee5c:	89 c2                	mov    %eax,%edx
    ee5e:	48 8d 35 74 15 00 00 	lea    0x1574(%rip),%rsi        # 103d9 <g_634+0x1381>
    ee65:	48 89 cf             	mov    %rcx,%rdi
    ee68:	e8 86 78 ff ff       	callq  66f3 <transparent_crc>
    ee6d:	8b 05 05 47 00 00    	mov    0x4705(%rip),%eax        # 13578 <g_1606>
    ee73:	89 c1                	mov    %eax,%ecx
    ee75:	8b 45 fc             	mov    -0x4(%rbp),%eax
    ee78:	89 c2                	mov    %eax,%edx
    ee7a:	48 8d 35 62 15 00 00 	lea    0x1562(%rip),%rsi        # 103e3 <g_634+0x138b>
    ee81:	48 89 cf             	mov    %rcx,%rdi
    ee84:	e8 6a 78 ff ff       	callq  66f3 <transparent_crc>
    ee89:	8b 05 41 63 00 00    	mov    0x6341(%rip),%eax        # 151d0 <g_1608>
    ee8f:	89 c1                	mov    %eax,%ecx
    ee91:	8b 45 fc             	mov    -0x4(%rbp),%eax
    ee94:	89 c2                	mov    %eax,%edx
    ee96:	48 8d 35 50 15 00 00 	lea    0x1550(%rip),%rsi        # 103ed <g_634+0x1395>
    ee9d:	48 89 cf             	mov    %rcx,%rdi
    eea0:	e8 4e 78 ff ff       	callq  66f3 <transparent_crc>
    eea5:	c7 45 f0 00 00 00 00 	movl   $0x0,-0x10(%rbp)
    eeac:	eb 49                	jmp    eef7 <main+0xc77>
    eeae:	8b 45 f0             	mov    -0x10(%rbp),%eax
    eeb1:	48 98                	cltq   
    eeb3:	48 8d 14 00          	lea    (%rax,%rax,1),%rdx
    eeb7:	48 8d 05 c2 46 00 00 	lea    0x46c2(%rip),%rax        # 13580 <g_1724>
    eebe:	0f b7 04 02          	movzwl (%rdx,%rax,1),%eax
    eec2:	0f b7 c0             	movzwl %ax,%eax
    eec5:	8b 55 fc             	mov    -0x4(%rbp),%edx
    eec8:	48 8d 35 28 15 00 00 	lea    0x1528(%rip),%rsi        # 103f7 <g_634+0x139f>
    eecf:	48 89 c7             	mov    %rax,%rdi
    eed2:	e8 1c 78 ff ff       	callq  66f3 <transparent_crc>
    eed7:	83 7d fc 00          	cmpl   $0x0,-0x4(%rbp)
    eedb:	74 16                	je     eef3 <main+0xc73>
    eedd:	8b 45 f0             	mov    -0x10(%rbp),%eax
    eee0:	89 c6                	mov    %eax,%esi
    eee2:	48 8d 3d ec 12 00 00 	lea    0x12ec(%rip),%rdi        # 101d5 <g_634+0x117d>
    eee9:	b8 00 00 00 00       	mov    $0x0,%eax
    eeee:	e8 8d 61 ff ff       	callq  5080 <printf@plt>
    eef3:	83 45 f0 01          	addl   $0x1,-0x10(%rbp)
    eef7:	83 7d f0 03          	cmpl   $0x3,-0x10(%rbp)
    eefb:	7e b1                	jle    eeae <main+0xc2e>
    eefd:	0f b6 05 84 46 00 00 	movzbl 0x4684(%rip),%eax        # 13588 <g_1784>
    ef04:	48 0f be c0          	movsbq %al,%rax
    ef08:	8b 55 fc             	mov    -0x4(%rbp),%edx
    ef0b:	48 8d 35 ef 14 00 00 	lea    0x14ef(%rip),%rsi        # 10401 <g_634+0x13a9>
    ef12:	48 89 c7             	mov    %rax,%rdi
    ef15:	e8 d9 77 ff ff       	callq  66f3 <transparent_crc>
    ef1a:	8b 05 6c 46 00 00    	mov    0x466c(%rip),%eax        # 1358c <g_1818>
    ef20:	89 c1                	mov    %eax,%ecx
    ef22:	8b 45 fc             	mov    -0x4(%rbp),%eax
    ef25:	89 c2                	mov    %eax,%edx
    ef27:	48 8d 35 da 14 00 00 	lea    0x14da(%rip),%rsi        # 10408 <g_634+0x13b0>
    ef2e:	48 89 cf             	mov    %rcx,%rdi
    ef31:	e8 bd 77 ff ff       	callq  66f3 <transparent_crc>
    ef36:	48 8b 05 53 46 00 00 	mov    0x4653(%rip),%rax        # 13590 <g_1833>
    ef3d:	8b 55 fc             	mov    -0x4(%rbp),%edx
    ef40:	48 8d 35 cb 14 00 00 	lea    0x14cb(%rip),%rsi        # 10412 <g_634+0x13ba>
    ef47:	48 89 c7             	mov    %rax,%rdi
    ef4a:	e8 a4 77 ff ff       	callq  66f3 <transparent_crc>
    ef4f:	8b 05 cb 40 00 00    	mov    0x40cb(%rip),%eax        # 13020 <crc32_context>
    ef55:	f7 d0                	not    %eax
    ef57:	89 c2                	mov    %eax,%edx
    ef59:	8b 45 fc             	mov    -0x4(%rbp),%eax
    ef5c:	89 c6                	mov    %eax,%esi
    ef5e:	89 d7                	mov    %edx,%edi
    ef60:	e8 2f 62 ff ff       	callq  5194 <platform_main_end>
    ef65:	b8 00 00 00 00       	mov    $0x0,%eax
    ef6a:	c9                   	leaveq 
    ef6b:	c3                   	retq   
    ef6c:	0f 1f 40 00          	nopl   0x0(%rax)

000000000000ef70 <__libc_csu_init>:
    ef70:	f3 0f 1e fa          	endbr64 
    ef74:	41 57                	push   %r15
    ef76:	4c 8d 3d 73 3c 00 00 	lea    0x3c73(%rip),%r15        # 12bf0 <__frame_dummy_init_array_entry>
    ef7d:	41 56                	push   %r14
    ef7f:	49 89 d6             	mov    %rdx,%r14
    ef82:	41 55                	push   %r13
    ef84:	49 89 f5             	mov    %rsi,%r13
    ef87:	41 54                	push   %r12
    ef89:	41 89 fc             	mov    %edi,%r12d
    ef8c:	55                   	push   %rbp
    ef8d:	48 8d 2d 64 3c 00 00 	lea    0x3c64(%rip),%rbp        # 12bf8 <__do_global_dtors_aux_fini_array_entry>
    ef94:	53                   	push   %rbx
    ef95:	4c 29 fd             	sub    %r15,%rbp
    ef98:	48 83 ec 08          	sub    $0x8,%rsp
    ef9c:	e8 5f 60 ff ff       	callq  5000 <_init>
    efa1:	48 c1 fd 03          	sar    $0x3,%rbp
    efa5:	74 1f                	je     efc6 <__libc_csu_init+0x56>
    efa7:	31 db                	xor    %ebx,%ebx
    efa9:	0f 1f 80 00 00 00 00 	nopl   0x0(%rax)
    efb0:	4c 89 f2             	mov    %r14,%rdx
    efb3:	4c 89 ee             	mov    %r13,%rsi
    efb6:	44 89 e7             	mov    %r12d,%edi
    efb9:	41 ff 14 df          	callq  *(%r15,%rbx,8)
    efbd:	48 83 c3 01          	add    $0x1,%rbx
    efc1:	48 39 dd             	cmp    %rbx,%rbp
    efc4:	75 ea                	jne    efb0 <__libc_csu_init+0x40>
    efc6:	48 83 c4 08          	add    $0x8,%rsp
    efca:	5b                   	pop    %rbx
    efcb:	5d                   	pop    %rbp
    efcc:	41 5c                	pop    %r12
    efce:	41 5d                	pop    %r13
    efd0:	41 5e                	pop    %r14
    efd2:	41 5f                	pop    %r15
    efd4:	c3                   	retq   
    efd5:	66 66 2e 0f 1f 84 00 	data16 nopw %cs:0x0(%rax,%rax,1)
    efdc:	00 00 00 00 

000000000000efe0 <__libc_csu_fini>:
    efe0:	f3 0f 1e fa          	endbr64 
    efe4:	c3                   	retq   
