


Disassembly of section .text:

00000000000060a0 <_start>:
    60a0:	f3 0f 1e fa          	endbr64 
    60a4:	31 ed                	xor    %ebp,%ebp
    60a6:	49 89 d1             	mov    %rdx,%r9
    60a9:	5e                   	pop    %rsi
    60aa:	48 89 e2             	mov    %rsp,%rdx
    60ad:	48 83 e4 f0          	and    $0xfffffffffffffff0,%rsp
    60b1:	50                   	push   %rax
    60b2:	54                   	push   %rsp
    60b3:	4c 8d 05 96 e8 00 00 	lea    0xe896(%rip),%r8        # 14950 <__libc_csu_fini>
    60ba:	48 8d 0d 1f e8 00 00 	lea    0xe81f(%rip),%rcx        # 148e0 <__libc_csu_init>
    60c1:	48 8d 3d 3b ca 00 00 	lea    0xca3b(%rip),%rdi        # 12b03 <main>
    60c8:	ff 15 02 3f 01 00    	callq  *0x13f02(%rip)        # 19fd0 <__libc_start_main@GLIBC_2.2.5>
    60ce:	f4                   	hlt    
    60cf:	90                   	nop

00000000000060d0 <deregister_tm_clones>:
    60d0:	48 8d 3d 51 66 01 00 	lea    0x16651(%rip),%rdi        # 1c728 <__TMC_END__>
    60d7:	48 8d 05 4a 66 01 00 	lea    0x1664a(%rip),%rax        # 1c728 <__TMC_END__>
    60de:	48 39 f8             	cmp    %rdi,%rax
    60e1:	74 15                	je     60f8 <deregister_tm_clones+0x28>
    60e3:	48 8b 05 de 3e 01 00 	mov    0x13ede(%rip),%rax        # 19fc8 <_ITM_deregisterTMCloneTable>
    60ea:	48 85 c0             	test   %rax,%rax
    60ed:	74 09                	je     60f8 <deregister_tm_clones+0x28>
    60ef:	ff e0                	jmpq   *%rax
    60f1:	0f 1f 80 00 00 00 00 	nopl   0x0(%rax)
    60f8:	c3                   	retq   
    60f9:	0f 1f 80 00 00 00 00 	nopl   0x0(%rax)

0000000000006100 <register_tm_clones>:
    6100:	48 8d 3d 21 66 01 00 	lea    0x16621(%rip),%rdi        # 1c728 <__TMC_END__>
    6107:	48 8d 35 1a 66 01 00 	lea    0x1661a(%rip),%rsi        # 1c728 <__TMC_END__>
    610e:	48 29 fe             	sub    %rdi,%rsi
    6111:	48 89 f0             	mov    %rsi,%rax
    6114:	48 c1 ee 3f          	shr    $0x3f,%rsi
    6118:	48 c1 f8 03          	sar    $0x3,%rax
    611c:	48 01 c6             	add    %rax,%rsi
    611f:	48 d1 fe             	sar    %rsi
    6122:	74 14                	je     6138 <register_tm_clones+0x38>
    6124:	48 8b 05 b5 3e 01 00 	mov    0x13eb5(%rip),%rax        # 19fe0 <_ITM_registerTMCloneTable>
    612b:	48 85 c0             	test   %rax,%rax
    612e:	74 08                	je     6138 <register_tm_clones+0x38>
    6130:	ff e0                	jmpq   *%rax
    6132:	66 0f 1f 44 00 00    	nopw   0x0(%rax,%rax,1)
    6138:	c3                   	retq   
    6139:	0f 1f 80 00 00 00 00 	nopl   0x0(%rax)

0000000000006140 <__do_global_dtors_aux>:
    6140:	f3 0f 1e fa          	endbr64 
    6144:	80 3d f5 65 01 00 00 	cmpb   $0x0,0x165f5(%rip)        # 1c740 <completed.8061>
    614b:	75 2b                	jne    6178 <__do_global_dtors_aux+0x38>
    614d:	55                   	push   %rbp
    614e:	48 83 3d 92 3e 01 00 	cmpq   $0x0,0x13e92(%rip)        # 19fe8 <__cxa_finalize@GLIBC_2.2.5>
    6155:	00 
    6156:	48 89 e5             	mov    %rsp,%rbp
    6159:	74 0c                	je     6167 <__do_global_dtors_aux+0x27>
    615b:	48 8b 3d a6 3e 01 00 	mov    0x13ea6(%rip),%rdi        # 1a008 <__dso_handle>
    6162:	e8 f9 fe ff ff       	callq  6060 <__cxa_finalize@plt>
    6167:	e8 64 ff ff ff       	callq  60d0 <deregister_tm_clones>
    616c:	c6 05 cd 65 01 00 01 	movb   $0x1,0x165cd(%rip)        # 1c740 <completed.8061>
    6173:	5d                   	pop    %rbp
    6174:	c3                   	retq   
    6175:	0f 1f 00             	nopl   (%rax)
    6178:	c3                   	retq   
    6179:	0f 1f 80 00 00 00 00 	nopl   0x0(%rax)

0000000000006180 <frame_dummy>:
    6180:	f3 0f 1e fa          	endbr64 
    6184:	e9 77 ff ff ff       	jmpq   6100 <register_tm_clones>

0000000000006189 <platform_main_begin>:
    6189:	f3 0f 1e fa          	endbr64 
    618d:	55                   	push   %rbp
    618e:	48 89 e5             	mov    %rsp,%rbp
    6191:	90                   	nop
    6192:	5d                   	pop    %rbp
    6193:	c3                   	retq   

0000000000006194 <platform_main_end>:
    6194:	f3 0f 1e fa          	endbr64 
    6198:	55                   	push   %rbp
    6199:	48 89 e5             	mov    %rsp,%rbp
    619c:	48 83 ec 10          	sub    $0x10,%rsp
    61a0:	89 7d fc             	mov    %edi,-0x4(%rbp)
    61a3:	89 75 f8             	mov    %esi,-0x8(%rbp)
    61a6:	8b 45 fc             	mov    -0x4(%rbp),%eax
    61a9:	89 c6                	mov    %eax,%esi
    61ab:	48 8d 3d 6e ee 00 00 	lea    0xee6e(%rip),%rdi        # 15020 <_IO_stdin_used+0x20>
    61b2:	b8 00 00 00 00       	mov    $0x0,%eax
    61b7:	e8 c4 fe ff ff       	callq  6080 <printf@plt>
    61bc:	90                   	nop
    61bd:	c9                   	leaveq 
    61be:	c3                   	retq   

00000000000061bf <safe_unary_minus_func_int8_t_s>:
    61bf:	f3 0f 1e fa          	endbr64 
    61c3:	55                   	push   %rbp
    61c4:	48 89 e5             	mov    %rsp,%rbp
    61c7:	89 f8                	mov    %edi,%eax
    61c9:	88 45 fc             	mov    %al,-0x4(%rbp)
    61cc:	0f b6 45 fc          	movzbl -0x4(%rbp),%eax
    61d0:	f7 d8                	neg    %eax
    61d2:	5d                   	pop    %rbp
    61d3:	c3                   	retq   

00000000000061d4 <safe_add_func_int8_t_s_s>:
    61d4:	f3 0f 1e fa          	endbr64 
    61d8:	55                   	push   %rbp
    61d9:	48 89 e5             	mov    %rsp,%rbp
    61dc:	89 fa                	mov    %edi,%edx
    61de:	89 f0                	mov    %esi,%eax
    61e0:	88 55 fc             	mov    %dl,-0x4(%rbp)
    61e3:	88 45 f8             	mov    %al,-0x8(%rbp)
    61e6:	0f b6 55 fc          	movzbl -0x4(%rbp),%edx
    61ea:	0f b6 45 f8          	movzbl -0x8(%rbp),%eax
    61ee:	01 d0                	add    %edx,%eax
    61f0:	5d                   	pop    %rbp
    61f1:	c3                   	retq   

00000000000061f2 <safe_sub_func_int8_t_s_s>:
    61f2:	f3 0f 1e fa          	endbr64 
    61f6:	55                   	push   %rbp
    61f7:	48 89 e5             	mov    %rsp,%rbp
    61fa:	89 fa                	mov    %edi,%edx
    61fc:	89 f0                	mov    %esi,%eax
    61fe:	88 55 fc             	mov    %dl,-0x4(%rbp)
    6201:	88 45 f8             	mov    %al,-0x8(%rbp)
    6204:	0f b6 55 fc          	movzbl -0x4(%rbp),%edx
    6208:	0f b6 45 f8          	movzbl -0x8(%rbp),%eax
    620c:	29 c2                	sub    %eax,%edx
    620e:	89 d0                	mov    %edx,%eax
    6210:	5d                   	pop    %rbp
    6211:	c3                   	retq   

0000000000006212 <safe_mul_func_int8_t_s_s>:
    6212:	f3 0f 1e fa          	endbr64 
    6216:	55                   	push   %rbp
    6217:	48 89 e5             	mov    %rsp,%rbp
    621a:	89 fa                	mov    %edi,%edx
    621c:	89 f0                	mov    %esi,%eax
    621e:	88 55 fc             	mov    %dl,-0x4(%rbp)
    6221:	88 45 f8             	mov    %al,-0x8(%rbp)
    6224:	0f b6 45 fc          	movzbl -0x4(%rbp),%eax
    6228:	0f b6 55 f8          	movzbl -0x8(%rbp),%edx
    622c:	0f af c2             	imul   %edx,%eax
    622f:	5d                   	pop    %rbp
    6230:	c3                   	retq   

0000000000006231 <safe_mod_func_int8_t_s_s>:
    6231:	f3 0f 1e fa          	endbr64 
    6235:	55                   	push   %rbp
    6236:	48 89 e5             	mov    %rsp,%rbp
    6239:	89 fa                	mov    %edi,%edx
    623b:	89 f0                	mov    %esi,%eax
    623d:	88 55 fc             	mov    %dl,-0x4(%rbp)
    6240:	88 45 f8             	mov    %al,-0x8(%rbp)
    6243:	80 7d f8 00          	cmpb   $0x0,-0x8(%rbp)
    6247:	74 1b                	je     6264 <safe_mod_func_int8_t_s_s+0x33>
    6249:	80 7d fc 80          	cmpb   $0x80,-0x4(%rbp)
    624d:	75 06                	jne    6255 <safe_mod_func_int8_t_s_s+0x24>
    624f:	80 7d f8 ff          	cmpb   $0xff,-0x8(%rbp)
    6253:	74 0f                	je     6264 <safe_mod_func_int8_t_s_s+0x33>
    6255:	0f be 45 fc          	movsbl -0x4(%rbp),%eax
    6259:	0f be 4d f8          	movsbl -0x8(%rbp),%ecx
    625d:	99                   	cltd   
    625e:	f7 f9                	idiv   %ecx
    6260:	89 d0                	mov    %edx,%eax
    6262:	eb 04                	jmp    6268 <safe_mod_func_int8_t_s_s+0x37>
    6264:	0f b6 45 fc          	movzbl -0x4(%rbp),%eax
    6268:	5d                   	pop    %rbp
    6269:	c3                   	retq   

000000000000626a <safe_div_func_int8_t_s_s>:
    626a:	f3 0f 1e fa          	endbr64 
    626e:	55                   	push   %rbp
    626f:	48 89 e5             	mov    %rsp,%rbp
    6272:	89 fa                	mov    %edi,%edx
    6274:	89 f0                	mov    %esi,%eax
    6276:	88 55 fc             	mov    %dl,-0x4(%rbp)
    6279:	88 45 f8             	mov    %al,-0x8(%rbp)
    627c:	80 7d f8 00          	cmpb   $0x0,-0x8(%rbp)
    6280:	74 19                	je     629b <safe_div_func_int8_t_s_s+0x31>
    6282:	80 7d fc 80          	cmpb   $0x80,-0x4(%rbp)
    6286:	75 06                	jne    628e <safe_div_func_int8_t_s_s+0x24>
    6288:	80 7d f8 ff          	cmpb   $0xff,-0x8(%rbp)
    628c:	74 0d                	je     629b <safe_div_func_int8_t_s_s+0x31>
    628e:	0f be 45 fc          	movsbl -0x4(%rbp),%eax
    6292:	0f be 4d f8          	movsbl -0x8(%rbp),%ecx
    6296:	99                   	cltd   
    6297:	f7 f9                	idiv   %ecx
    6299:	eb 04                	jmp    629f <safe_div_func_int8_t_s_s+0x35>
    629b:	0f b6 45 fc          	movzbl -0x4(%rbp),%eax
    629f:	5d                   	pop    %rbp
    62a0:	c3                   	retq   

00000000000062a1 <safe_lshift_func_int8_t_s_s>:
    62a1:	f3 0f 1e fa          	endbr64 
    62a5:	55                   	push   %rbp
    62a6:	48 89 e5             	mov    %rsp,%rbp
    62a9:	89 f8                	mov    %edi,%eax
    62ab:	89 75 f8             	mov    %esi,-0x8(%rbp)
    62ae:	88 45 fc             	mov    %al,-0x4(%rbp)
    62b1:	80 7d fc 00          	cmpb   $0x0,-0x4(%rbp)
    62b5:	78 31                	js     62e8 <safe_lshift_func_int8_t_s_s+0x47>
    62b7:	83 7d f8 00          	cmpl   $0x0,-0x8(%rbp)
    62bb:	78 2b                	js     62e8 <safe_lshift_func_int8_t_s_s+0x47>
    62bd:	83 7d f8 1f          	cmpl   $0x1f,-0x8(%rbp)
    62c1:	7f 25                	jg     62e8 <safe_lshift_func_int8_t_s_s+0x47>
    62c3:	0f be 55 fc          	movsbl -0x4(%rbp),%edx
    62c7:	8b 45 f8             	mov    -0x8(%rbp),%eax
    62ca:	be 7f 00 00 00       	mov    $0x7f,%esi
    62cf:	89 c1                	mov    %eax,%ecx
    62d1:	d3 fe                	sar    %cl,%esi
    62d3:	89 f0                	mov    %esi,%eax
    62d5:	39 c2                	cmp    %eax,%edx
    62d7:	7f 0f                	jg     62e8 <safe_lshift_func_int8_t_s_s+0x47>
    62d9:	0f be 55 fc          	movsbl -0x4(%rbp),%edx
    62dd:	8b 45 f8             	mov    -0x8(%rbp),%eax
    62e0:	89 c1                	mov    %eax,%ecx
    62e2:	d3 e2                	shl    %cl,%edx
    62e4:	89 d0                	mov    %edx,%eax
    62e6:	eb 04                	jmp    62ec <safe_lshift_func_int8_t_s_s+0x4b>
    62e8:	0f b6 45 fc          	movzbl -0x4(%rbp),%eax
    62ec:	5d                   	pop    %rbp
    62ed:	c3                   	retq   

00000000000062ee <safe_lshift_func_int8_t_s_u>:
    62ee:	f3 0f 1e fa          	endbr64 
    62f2:	55                   	push   %rbp
    62f3:	48 89 e5             	mov    %rsp,%rbp
    62f6:	89 f8                	mov    %edi,%eax
    62f8:	89 75 f8             	mov    %esi,-0x8(%rbp)
    62fb:	88 45 fc             	mov    %al,-0x4(%rbp)
    62fe:	80 7d fc 00          	cmpb   $0x0,-0x4(%rbp)
    6302:	78 2b                	js     632f <safe_lshift_func_int8_t_s_u+0x41>
    6304:	83 7d f8 1f          	cmpl   $0x1f,-0x8(%rbp)
    6308:	77 25                	ja     632f <safe_lshift_func_int8_t_s_u+0x41>
    630a:	0f be 55 fc          	movsbl -0x4(%rbp),%edx
    630e:	8b 45 f8             	mov    -0x8(%rbp),%eax
    6311:	be 7f 00 00 00       	mov    $0x7f,%esi
    6316:	89 c1                	mov    %eax,%ecx
    6318:	d3 fe                	sar    %cl,%esi
    631a:	89 f0                	mov    %esi,%eax
    631c:	39 c2                	cmp    %eax,%edx
    631e:	7f 0f                	jg     632f <safe_lshift_func_int8_t_s_u+0x41>
    6320:	0f be 55 fc          	movsbl -0x4(%rbp),%edx
    6324:	8b 45 f8             	mov    -0x8(%rbp),%eax
    6327:	89 c1                	mov    %eax,%ecx
    6329:	d3 e2                	shl    %cl,%edx
    632b:	89 d0                	mov    %edx,%eax
    632d:	eb 04                	jmp    6333 <safe_lshift_func_int8_t_s_u+0x45>
    632f:	0f b6 45 fc          	movzbl -0x4(%rbp),%eax
    6333:	5d                   	pop    %rbp
    6334:	c3                   	retq   

0000000000006335 <safe_rshift_func_int8_t_s_s>:
    6335:	f3 0f 1e fa          	endbr64 
    6339:	55                   	push   %rbp
    633a:	48 89 e5             	mov    %rsp,%rbp
    633d:	89 f8                	mov    %edi,%eax
    633f:	89 75 f8             	mov    %esi,-0x8(%rbp)
    6342:	88 45 fc             	mov    %al,-0x4(%rbp)
    6345:	80 7d fc 00          	cmpb   $0x0,-0x4(%rbp)
    6349:	78 1b                	js     6366 <safe_rshift_func_int8_t_s_s+0x31>
    634b:	83 7d f8 00          	cmpl   $0x0,-0x8(%rbp)
    634f:	78 15                	js     6366 <safe_rshift_func_int8_t_s_s+0x31>
    6351:	83 7d f8 1f          	cmpl   $0x1f,-0x8(%rbp)
    6355:	7f 0f                	jg     6366 <safe_rshift_func_int8_t_s_s+0x31>
    6357:	0f be 55 fc          	movsbl -0x4(%rbp),%edx
    635b:	8b 45 f8             	mov    -0x8(%rbp),%eax
    635e:	89 c1                	mov    %eax,%ecx
    6360:	d3 fa                	sar    %cl,%edx
    6362:	89 d0                	mov    %edx,%eax
    6364:	eb 04                	jmp    636a <safe_rshift_func_int8_t_s_s+0x35>
    6366:	0f b6 45 fc          	movzbl -0x4(%rbp),%eax
    636a:	5d                   	pop    %rbp
    636b:	c3                   	retq   

000000000000636c <safe_rshift_func_int8_t_s_u>:
    636c:	f3 0f 1e fa          	endbr64 
    6370:	55                   	push   %rbp
    6371:	48 89 e5             	mov    %rsp,%rbp
    6374:	89 f8                	mov    %edi,%eax
    6376:	89 75 f8             	mov    %esi,-0x8(%rbp)
    6379:	88 45 fc             	mov    %al,-0x4(%rbp)
    637c:	80 7d fc 00          	cmpb   $0x0,-0x4(%rbp)
    6380:	78 15                	js     6397 <safe_rshift_func_int8_t_s_u+0x2b>
    6382:	83 7d f8 1f          	cmpl   $0x1f,-0x8(%rbp)
    6386:	77 0f                	ja     6397 <safe_rshift_func_int8_t_s_u+0x2b>
    6388:	0f be 55 fc          	movsbl -0x4(%rbp),%edx
    638c:	8b 45 f8             	mov    -0x8(%rbp),%eax
    638f:	89 c1                	mov    %eax,%ecx
    6391:	d3 fa                	sar    %cl,%edx
    6393:	89 d0                	mov    %edx,%eax
    6395:	eb 04                	jmp    639b <safe_rshift_func_int8_t_s_u+0x2f>
    6397:	0f b6 45 fc          	movzbl -0x4(%rbp),%eax
    639b:	5d                   	pop    %rbp
    639c:	c3                   	retq   

000000000000639d <safe_unary_minus_func_int16_t_s>:
    639d:	f3 0f 1e fa          	endbr64 
    63a1:	55                   	push   %rbp
    63a2:	48 89 e5             	mov    %rsp,%rbp
    63a5:	89 f8                	mov    %edi,%eax
    63a7:	66 89 45 fc          	mov    %ax,-0x4(%rbp)
    63ab:	0f b7 45 fc          	movzwl -0x4(%rbp),%eax
    63af:	f7 d8                	neg    %eax
    63b1:	5d                   	pop    %rbp
    63b2:	c3                   	retq   

00000000000063b3 <safe_add_func_int16_t_s_s>:
    63b3:	f3 0f 1e fa          	endbr64 
    63b7:	55                   	push   %rbp
    63b8:	48 89 e5             	mov    %rsp,%rbp
    63bb:	89 fa                	mov    %edi,%edx
    63bd:	89 f0                	mov    %esi,%eax
    63bf:	66 89 55 fc          	mov    %dx,-0x4(%rbp)
    63c3:	66 89 45 f8          	mov    %ax,-0x8(%rbp)
    63c7:	0f b7 55 fc          	movzwl -0x4(%rbp),%edx
    63cb:	0f b7 45 f8          	movzwl -0x8(%rbp),%eax
    63cf:	01 d0                	add    %edx,%eax
    63d1:	5d                   	pop    %rbp
    63d2:	c3                   	retq   

00000000000063d3 <safe_sub_func_int16_t_s_s>:
    63d3:	f3 0f 1e fa          	endbr64 
    63d7:	55                   	push   %rbp
    63d8:	48 89 e5             	mov    %rsp,%rbp
    63db:	89 fa                	mov    %edi,%edx
    63dd:	89 f0                	mov    %esi,%eax
    63df:	66 89 55 fc          	mov    %dx,-0x4(%rbp)
    63e3:	66 89 45 f8          	mov    %ax,-0x8(%rbp)
    63e7:	0f b7 55 fc          	movzwl -0x4(%rbp),%edx
    63eb:	0f b7 45 f8          	movzwl -0x8(%rbp),%eax
    63ef:	29 c2                	sub    %eax,%edx
    63f1:	89 d0                	mov    %edx,%eax
    63f3:	5d                   	pop    %rbp
    63f4:	c3                   	retq   

00000000000063f5 <safe_mul_func_int16_t_s_s>:
    63f5:	f3 0f 1e fa          	endbr64 
    63f9:	55                   	push   %rbp
    63fa:	48 89 e5             	mov    %rsp,%rbp
    63fd:	89 fa                	mov    %edi,%edx
    63ff:	89 f0                	mov    %esi,%eax
    6401:	66 89 55 fc          	mov    %dx,-0x4(%rbp)
    6405:	66 89 45 f8          	mov    %ax,-0x8(%rbp)
    6409:	0f b7 55 fc          	movzwl -0x4(%rbp),%edx
    640d:	0f b7 45 f8          	movzwl -0x8(%rbp),%eax
    6411:	0f af c2             	imul   %edx,%eax
    6414:	5d                   	pop    %rbp
    6415:	c3                   	retq   

0000000000006416 <safe_mod_func_int16_t_s_s>:
    6416:	f3 0f 1e fa          	endbr64 
    641a:	55                   	push   %rbp
    641b:	48 89 e5             	mov    %rsp,%rbp
    641e:	89 fa                	mov    %edi,%edx
    6420:	89 f0                	mov    %esi,%eax
    6422:	66 89 55 fc          	mov    %dx,-0x4(%rbp)
    6426:	66 89 45 f8          	mov    %ax,-0x8(%rbp)
    642a:	66 83 7d f8 00       	cmpw   $0x0,-0x8(%rbp)
    642f:	74 1e                	je     644f <safe_mod_func_int16_t_s_s+0x39>
    6431:	66 81 7d fc 00 80    	cmpw   $0x8000,-0x4(%rbp)
    6437:	75 07                	jne    6440 <safe_mod_func_int16_t_s_s+0x2a>
    6439:	66 83 7d f8 ff       	cmpw   $0xffff,-0x8(%rbp)
    643e:	74 0f                	je     644f <safe_mod_func_int16_t_s_s+0x39>
    6440:	0f bf 45 fc          	movswl -0x4(%rbp),%eax
    6444:	0f bf 4d f8          	movswl -0x8(%rbp),%ecx
    6448:	99                   	cltd   
    6449:	f7 f9                	idiv   %ecx
    644b:	89 d0                	mov    %edx,%eax
    644d:	eb 04                	jmp    6453 <safe_mod_func_int16_t_s_s+0x3d>
    644f:	0f b7 45 fc          	movzwl -0x4(%rbp),%eax
    6453:	5d                   	pop    %rbp
    6454:	c3                   	retq   

0000000000006455 <safe_div_func_int16_t_s_s>:
    6455:	f3 0f 1e fa          	endbr64 
    6459:	55                   	push   %rbp
    645a:	48 89 e5             	mov    %rsp,%rbp
    645d:	89 fa                	mov    %edi,%edx
    645f:	89 f0                	mov    %esi,%eax
    6461:	66 89 55 fc          	mov    %dx,-0x4(%rbp)
    6465:	66 89 45 f8          	mov    %ax,-0x8(%rbp)
    6469:	66 83 7d f8 00       	cmpw   $0x0,-0x8(%rbp)
    646e:	74 1c                	je     648c <safe_div_func_int16_t_s_s+0x37>
    6470:	66 81 7d fc 00 80    	cmpw   $0x8000,-0x4(%rbp)
    6476:	75 07                	jne    647f <safe_div_func_int16_t_s_s+0x2a>
    6478:	66 83 7d f8 ff       	cmpw   $0xffff,-0x8(%rbp)
    647d:	74 0d                	je     648c <safe_div_func_int16_t_s_s+0x37>
    647f:	0f bf 45 fc          	movswl -0x4(%rbp),%eax
    6483:	0f bf 4d f8          	movswl -0x8(%rbp),%ecx
    6487:	99                   	cltd   
    6488:	f7 f9                	idiv   %ecx
    648a:	eb 04                	jmp    6490 <safe_div_func_int16_t_s_s+0x3b>
    648c:	0f b7 45 fc          	movzwl -0x4(%rbp),%eax
    6490:	5d                   	pop    %rbp
    6491:	c3                   	retq   

0000000000006492 <safe_lshift_func_int16_t_s_s>:
    6492:	f3 0f 1e fa          	endbr64 
    6496:	55                   	push   %rbp
    6497:	48 89 e5             	mov    %rsp,%rbp
    649a:	89 f8                	mov    %edi,%eax
    649c:	89 75 f8             	mov    %esi,-0x8(%rbp)
    649f:	66 89 45 fc          	mov    %ax,-0x4(%rbp)
    64a3:	66 83 7d fc 00       	cmpw   $0x0,-0x4(%rbp)
    64a8:	78 31                	js     64db <safe_lshift_func_int16_t_s_s+0x49>
    64aa:	83 7d f8 00          	cmpl   $0x0,-0x8(%rbp)
    64ae:	78 2b                	js     64db <safe_lshift_func_int16_t_s_s+0x49>
    64b0:	83 7d f8 1f          	cmpl   $0x1f,-0x8(%rbp)
    64b4:	7f 25                	jg     64db <safe_lshift_func_int16_t_s_s+0x49>
    64b6:	0f bf 55 fc          	movswl -0x4(%rbp),%edx
    64ba:	8b 45 f8             	mov    -0x8(%rbp),%eax
    64bd:	be ff 7f 00 00       	mov    $0x7fff,%esi
    64c2:	89 c1                	mov    %eax,%ecx
    64c4:	d3 fe                	sar    %cl,%esi
    64c6:	89 f0                	mov    %esi,%eax
    64c8:	39 c2                	cmp    %eax,%edx
    64ca:	7f 0f                	jg     64db <safe_lshift_func_int16_t_s_s+0x49>
    64cc:	0f bf 55 fc          	movswl -0x4(%rbp),%edx
    64d0:	8b 45 f8             	mov    -0x8(%rbp),%eax
    64d3:	89 c1                	mov    %eax,%ecx
    64d5:	d3 e2                	shl    %cl,%edx
    64d7:	89 d0                	mov    %edx,%eax
    64d9:	eb 04                	jmp    64df <safe_lshift_func_int16_t_s_s+0x4d>
    64db:	0f b7 45 fc          	movzwl -0x4(%rbp),%eax
    64df:	5d                   	pop    %rbp
    64e0:	c3                   	retq   

00000000000064e1 <safe_lshift_func_int16_t_s_u>:
    64e1:	f3 0f 1e fa          	endbr64 
    64e5:	55                   	push   %rbp
    64e6:	48 89 e5             	mov    %rsp,%rbp
    64e9:	89 f8                	mov    %edi,%eax
    64eb:	89 75 f8             	mov    %esi,-0x8(%rbp)
    64ee:	66 89 45 fc          	mov    %ax,-0x4(%rbp)
    64f2:	66 83 7d fc 00       	cmpw   $0x0,-0x4(%rbp)
    64f7:	78 2b                	js     6524 <safe_lshift_func_int16_t_s_u+0x43>
    64f9:	83 7d f8 1f          	cmpl   $0x1f,-0x8(%rbp)
    64fd:	77 25                	ja     6524 <safe_lshift_func_int16_t_s_u+0x43>
    64ff:	0f bf 55 fc          	movswl -0x4(%rbp),%edx
    6503:	8b 45 f8             	mov    -0x8(%rbp),%eax
    6506:	be ff 7f 00 00       	mov    $0x7fff,%esi
    650b:	89 c1                	mov    %eax,%ecx
    650d:	d3 fe                	sar    %cl,%esi
    650f:	89 f0                	mov    %esi,%eax
    6511:	39 c2                	cmp    %eax,%edx
    6513:	7f 0f                	jg     6524 <safe_lshift_func_int16_t_s_u+0x43>
    6515:	0f bf 55 fc          	movswl -0x4(%rbp),%edx
    6519:	8b 45 f8             	mov    -0x8(%rbp),%eax
    651c:	89 c1                	mov    %eax,%ecx
    651e:	d3 e2                	shl    %cl,%edx
    6520:	89 d0                	mov    %edx,%eax
    6522:	eb 04                	jmp    6528 <safe_lshift_func_int16_t_s_u+0x47>
    6524:	0f b7 45 fc          	movzwl -0x4(%rbp),%eax
    6528:	5d                   	pop    %rbp
    6529:	c3                   	retq   

000000000000652a <safe_rshift_func_int16_t_s_s>:
    652a:	f3 0f 1e fa          	endbr64 
    652e:	55                   	push   %rbp
    652f:	48 89 e5             	mov    %rsp,%rbp
    6532:	89 f8                	mov    %edi,%eax
    6534:	89 75 f8             	mov    %esi,-0x8(%rbp)
    6537:	66 89 45 fc          	mov    %ax,-0x4(%rbp)
    653b:	66 83 7d fc 00       	cmpw   $0x0,-0x4(%rbp)
    6540:	78 1b                	js     655d <safe_rshift_func_int16_t_s_s+0x33>
    6542:	83 7d f8 00          	cmpl   $0x0,-0x8(%rbp)
    6546:	78 15                	js     655d <safe_rshift_func_int16_t_s_s+0x33>
    6548:	83 7d f8 1f          	cmpl   $0x1f,-0x8(%rbp)
    654c:	7f 0f                	jg     655d <safe_rshift_func_int16_t_s_s+0x33>
    654e:	0f bf 55 fc          	movswl -0x4(%rbp),%edx
    6552:	8b 45 f8             	mov    -0x8(%rbp),%eax
    6555:	89 c1                	mov    %eax,%ecx
    6557:	d3 fa                	sar    %cl,%edx
    6559:	89 d0                	mov    %edx,%eax
    655b:	eb 04                	jmp    6561 <safe_rshift_func_int16_t_s_s+0x37>
    655d:	0f b7 45 fc          	movzwl -0x4(%rbp),%eax
    6561:	5d                   	pop    %rbp
    6562:	c3                   	retq   

0000000000006563 <safe_rshift_func_int16_t_s_u>:
    6563:	f3 0f 1e fa          	endbr64 
    6567:	55                   	push   %rbp
    6568:	48 89 e5             	mov    %rsp,%rbp
    656b:	89 f8                	mov    %edi,%eax
    656d:	89 75 f8             	mov    %esi,-0x8(%rbp)
    6570:	66 89 45 fc          	mov    %ax,-0x4(%rbp)
    6574:	66 83 7d fc 00       	cmpw   $0x0,-0x4(%rbp)
    6579:	78 15                	js     6590 <safe_rshift_func_int16_t_s_u+0x2d>
    657b:	83 7d f8 1f          	cmpl   $0x1f,-0x8(%rbp)
    657f:	77 0f                	ja     6590 <safe_rshift_func_int16_t_s_u+0x2d>
    6581:	0f bf 55 fc          	movswl -0x4(%rbp),%edx
    6585:	8b 45 f8             	mov    -0x8(%rbp),%eax
    6588:	89 c1                	mov    %eax,%ecx
    658a:	d3 fa                	sar    %cl,%edx
    658c:	89 d0                	mov    %edx,%eax
    658e:	eb 04                	jmp    6594 <safe_rshift_func_int16_t_s_u+0x31>
    6590:	0f b7 45 fc          	movzwl -0x4(%rbp),%eax
    6594:	5d                   	pop    %rbp
    6595:	c3                   	retq   

0000000000006596 <safe_unary_minus_func_int32_t_s>:
    6596:	f3 0f 1e fa          	endbr64 
    659a:	55                   	push   %rbp
    659b:	48 89 e5             	mov    %rsp,%rbp
    659e:	89 7d fc             	mov    %edi,-0x4(%rbp)
    65a1:	81 7d fc 00 00 00 80 	cmpl   $0x80000000,-0x4(%rbp)
    65a8:	74 07                	je     65b1 <safe_unary_minus_func_int32_t_s+0x1b>
    65aa:	8b 45 fc             	mov    -0x4(%rbp),%eax
    65ad:	f7 d8                	neg    %eax
    65af:	eb 03                	jmp    65b4 <safe_unary_minus_func_int32_t_s+0x1e>
    65b1:	8b 45 fc             	mov    -0x4(%rbp),%eax
    65b4:	5d                   	pop    %rbp
    65b5:	c3                   	retq   

00000000000065b6 <safe_add_func_int32_t_s_s>:
    65b6:	f3 0f 1e fa          	endbr64 
    65ba:	55                   	push   %rbp
    65bb:	48 89 e5             	mov    %rsp,%rbp
    65be:	89 7d fc             	mov    %edi,-0x4(%rbp)
    65c1:	89 75 f8             	mov    %esi,-0x8(%rbp)
    65c4:	83 7d fc 00          	cmpl   $0x0,-0x4(%rbp)
    65c8:	7e 13                	jle    65dd <safe_add_func_int32_t_s_s+0x27>
    65ca:	83 7d f8 00          	cmpl   $0x0,-0x8(%rbp)
    65ce:	7e 0d                	jle    65dd <safe_add_func_int32_t_s_s+0x27>
    65d0:	b8 ff ff ff 7f       	mov    $0x7fffffff,%eax
    65d5:	2b 45 f8             	sub    -0x8(%rbp),%eax
    65d8:	39 45 fc             	cmp    %eax,-0x4(%rbp)
    65db:	7f 23                	jg     6600 <safe_add_func_int32_t_s_s+0x4a>
    65dd:	83 7d fc 00          	cmpl   $0x0,-0x4(%rbp)
    65e1:	79 13                	jns    65f6 <safe_add_func_int32_t_s_s+0x40>
    65e3:	83 7d f8 00          	cmpl   $0x0,-0x8(%rbp)
    65e7:	79 0d                	jns    65f6 <safe_add_func_int32_t_s_s+0x40>
    65e9:	b8 00 00 00 80       	mov    $0x80000000,%eax
    65ee:	2b 45 f8             	sub    -0x8(%rbp),%eax
    65f1:	39 45 fc             	cmp    %eax,-0x4(%rbp)
    65f4:	7c 0a                	jl     6600 <safe_add_func_int32_t_s_s+0x4a>
    65f6:	8b 55 fc             	mov    -0x4(%rbp),%edx
    65f9:	8b 45 f8             	mov    -0x8(%rbp),%eax
    65fc:	01 d0                	add    %edx,%eax
    65fe:	eb 03                	jmp    6603 <safe_add_func_int32_t_s_s+0x4d>
    6600:	8b 45 fc             	mov    -0x4(%rbp),%eax
    6603:	5d                   	pop    %rbp
    6604:	c3                   	retq   

0000000000006605 <safe_sub_func_int32_t_s_s>:
    6605:	f3 0f 1e fa          	endbr64 
    6609:	55                   	push   %rbp
    660a:	48 89 e5             	mov    %rsp,%rbp
    660d:	89 7d fc             	mov    %edi,-0x4(%rbp)
    6610:	89 75 f8             	mov    %esi,-0x8(%rbp)
    6613:	8b 45 fc             	mov    -0x4(%rbp),%eax
    6616:	33 45 f8             	xor    -0x8(%rbp),%eax
    6619:	89 c2                	mov    %eax,%edx
    661b:	8b 45 fc             	mov    -0x4(%rbp),%eax
    661e:	33 45 f8             	xor    -0x8(%rbp),%eax
    6621:	25 00 00 00 80       	and    $0x80000000,%eax
    6626:	33 45 fc             	xor    -0x4(%rbp),%eax
    6629:	2b 45 f8             	sub    -0x8(%rbp),%eax
    662c:	33 45 f8             	xor    -0x8(%rbp),%eax
    662f:	21 d0                	and    %edx,%eax
    6631:	85 c0                	test   %eax,%eax
    6633:	78 08                	js     663d <safe_sub_func_int32_t_s_s+0x38>
    6635:	8b 45 fc             	mov    -0x4(%rbp),%eax
    6638:	2b 45 f8             	sub    -0x8(%rbp),%eax
    663b:	eb 03                	jmp    6640 <safe_sub_func_int32_t_s_s+0x3b>
    663d:	8b 45 fc             	mov    -0x4(%rbp),%eax
    6640:	5d                   	pop    %rbp
    6641:	c3                   	retq   

0000000000006642 <safe_mul_func_int32_t_s_s>:
    6642:	f3 0f 1e fa          	endbr64 
    6646:	55                   	push   %rbp
    6647:	48 89 e5             	mov    %rsp,%rbp
    664a:	89 7d fc             	mov    %edi,-0x4(%rbp)
    664d:	89 75 f8             	mov    %esi,-0x8(%rbp)
    6650:	83 7d fc 00          	cmpl   $0x0,-0x4(%rbp)
    6654:	7e 14                	jle    666a <safe_mul_func_int32_t_s_s+0x28>
    6656:	83 7d f8 00          	cmpl   $0x0,-0x8(%rbp)
    665a:	7e 0e                	jle    666a <safe_mul_func_int32_t_s_s+0x28>
    665c:	b8 ff ff ff 7f       	mov    $0x7fffffff,%eax
    6661:	99                   	cltd   
    6662:	f7 7d f8             	idivl  -0x8(%rbp)
    6665:	39 45 fc             	cmp    %eax,-0x4(%rbp)
    6668:	7f 5d                	jg     66c7 <safe_mul_func_int32_t_s_s+0x85>
    666a:	83 7d fc 00          	cmpl   $0x0,-0x4(%rbp)
    666e:	7e 14                	jle    6684 <safe_mul_func_int32_t_s_s+0x42>
    6670:	83 7d f8 00          	cmpl   $0x0,-0x8(%rbp)
    6674:	7f 0e                	jg     6684 <safe_mul_func_int32_t_s_s+0x42>
    6676:	b8 00 00 00 80       	mov    $0x80000000,%eax
    667b:	99                   	cltd   
    667c:	f7 7d fc             	idivl  -0x4(%rbp)
    667f:	39 45 f8             	cmp    %eax,-0x8(%rbp)
    6682:	7c 43                	jl     66c7 <safe_mul_func_int32_t_s_s+0x85>
    6684:	83 7d fc 00          	cmpl   $0x0,-0x4(%rbp)
    6688:	7f 14                	jg     669e <safe_mul_func_int32_t_s_s+0x5c>
    668a:	83 7d f8 00          	cmpl   $0x0,-0x8(%rbp)
    668e:	7e 0e                	jle    669e <safe_mul_func_int32_t_s_s+0x5c>
    6690:	b8 00 00 00 80       	mov    $0x80000000,%eax
    6695:	99                   	cltd   
    6696:	f7 7d f8             	idivl  -0x8(%rbp)
    6699:	39 45 fc             	cmp    %eax,-0x4(%rbp)
    669c:	7c 29                	jl     66c7 <safe_mul_func_int32_t_s_s+0x85>
    669e:	83 7d fc 00          	cmpl   $0x0,-0x4(%rbp)
    66a2:	7f 1a                	jg     66be <safe_mul_func_int32_t_s_s+0x7c>
    66a4:	83 7d f8 00          	cmpl   $0x0,-0x8(%rbp)
    66a8:	7f 14                	jg     66be <safe_mul_func_int32_t_s_s+0x7c>
    66aa:	83 7d fc 00          	cmpl   $0x0,-0x4(%rbp)
    66ae:	74 0e                	je     66be <safe_mul_func_int32_t_s_s+0x7c>
    66b0:	b8 ff ff ff 7f       	mov    $0x7fffffff,%eax
    66b5:	99                   	cltd   
    66b6:	f7 7d fc             	idivl  -0x4(%rbp)
    66b9:	39 45 f8             	cmp    %eax,-0x8(%rbp)
    66bc:	7c 09                	jl     66c7 <safe_mul_func_int32_t_s_s+0x85>
    66be:	8b 45 fc             	mov    -0x4(%rbp),%eax
    66c1:	0f af 45 f8          	imul   -0x8(%rbp),%eax
    66c5:	eb 03                	jmp    66ca <safe_mul_func_int32_t_s_s+0x88>
    66c7:	8b 45 fc             	mov    -0x4(%rbp),%eax
    66ca:	5d                   	pop    %rbp
    66cb:	c3                   	retq   

00000000000066cc <safe_mod_func_int32_t_s_s>:
    66cc:	f3 0f 1e fa          	endbr64 
    66d0:	55                   	push   %rbp
    66d1:	48 89 e5             	mov    %rsp,%rbp
    66d4:	89 7d fc             	mov    %edi,-0x4(%rbp)
    66d7:	89 75 f8             	mov    %esi,-0x8(%rbp)
    66da:	83 7d f8 00          	cmpl   $0x0,-0x8(%rbp)
    66de:	74 1a                	je     66fa <safe_mod_func_int32_t_s_s+0x2e>
    66e0:	81 7d fc 00 00 00 80 	cmpl   $0x80000000,-0x4(%rbp)
    66e7:	75 06                	jne    66ef <safe_mod_func_int32_t_s_s+0x23>
    66e9:	83 7d f8 ff          	cmpl   $0xffffffff,-0x8(%rbp)
    66ed:	74 0b                	je     66fa <safe_mod_func_int32_t_s_s+0x2e>
    66ef:	8b 45 fc             	mov    -0x4(%rbp),%eax
    66f2:	99                   	cltd   
    66f3:	f7 7d f8             	idivl  -0x8(%rbp)
    66f6:	89 d0                	mov    %edx,%eax
    66f8:	eb 03                	jmp    66fd <safe_mod_func_int32_t_s_s+0x31>
    66fa:	8b 45 fc             	mov    -0x4(%rbp),%eax
    66fd:	5d                   	pop    %rbp
    66fe:	c3                   	retq   

00000000000066ff <safe_div_func_int32_t_s_s>:
    66ff:	f3 0f 1e fa          	endbr64 
    6703:	55                   	push   %rbp
    6704:	48 89 e5             	mov    %rsp,%rbp
    6707:	89 7d fc             	mov    %edi,-0x4(%rbp)
    670a:	89 75 f8             	mov    %esi,-0x8(%rbp)
    670d:	83 7d f8 00          	cmpl   $0x0,-0x8(%rbp)
    6711:	74 18                	je     672b <safe_div_func_int32_t_s_s+0x2c>
    6713:	81 7d fc 00 00 00 80 	cmpl   $0x80000000,-0x4(%rbp)
    671a:	75 06                	jne    6722 <safe_div_func_int32_t_s_s+0x23>
    671c:	83 7d f8 ff          	cmpl   $0xffffffff,-0x8(%rbp)
    6720:	74 09                	je     672b <safe_div_func_int32_t_s_s+0x2c>
    6722:	8b 45 fc             	mov    -0x4(%rbp),%eax
    6725:	99                   	cltd   
    6726:	f7 7d f8             	idivl  -0x8(%rbp)
    6729:	eb 03                	jmp    672e <safe_div_func_int32_t_s_s+0x2f>
    672b:	8b 45 fc             	mov    -0x4(%rbp),%eax
    672e:	5d                   	pop    %rbp
    672f:	c3                   	retq   

0000000000006730 <safe_lshift_func_int32_t_s_s>:
    6730:	f3 0f 1e fa          	endbr64 
    6734:	55                   	push   %rbp
    6735:	48 89 e5             	mov    %rsp,%rbp
    6738:	89 7d fc             	mov    %edi,-0x4(%rbp)
    673b:	89 75 f8             	mov    %esi,-0x8(%rbp)
    673e:	83 7d fc 00          	cmpl   $0x0,-0x4(%rbp)
    6742:	78 2d                	js     6771 <safe_lshift_func_int32_t_s_s+0x41>
    6744:	83 7d f8 00          	cmpl   $0x0,-0x8(%rbp)
    6748:	78 27                	js     6771 <safe_lshift_func_int32_t_s_s+0x41>
    674a:	83 7d f8 1f          	cmpl   $0x1f,-0x8(%rbp)
    674e:	7f 21                	jg     6771 <safe_lshift_func_int32_t_s_s+0x41>
    6750:	8b 45 f8             	mov    -0x8(%rbp),%eax
    6753:	ba ff ff ff 7f       	mov    $0x7fffffff,%edx
    6758:	89 c1                	mov    %eax,%ecx
    675a:	d3 fa                	sar    %cl,%edx
    675c:	89 d0                	mov    %edx,%eax
    675e:	39 45 fc             	cmp    %eax,-0x4(%rbp)
    6761:	7f 0e                	jg     6771 <safe_lshift_func_int32_t_s_s+0x41>
    6763:	8b 45 f8             	mov    -0x8(%rbp),%eax
    6766:	8b 55 fc             	mov    -0x4(%rbp),%edx
    6769:	89 c1                	mov    %eax,%ecx
    676b:	d3 e2                	shl    %cl,%edx
    676d:	89 d0                	mov    %edx,%eax
    676f:	eb 03                	jmp    6774 <safe_lshift_func_int32_t_s_s+0x44>
    6771:	8b 45 fc             	mov    -0x4(%rbp),%eax
    6774:	5d                   	pop    %rbp
    6775:	c3                   	retq   

0000000000006776 <safe_lshift_func_int32_t_s_u>:
    6776:	f3 0f 1e fa          	endbr64 
    677a:	55                   	push   %rbp
    677b:	48 89 e5             	mov    %rsp,%rbp
    677e:	89 7d fc             	mov    %edi,-0x4(%rbp)
    6781:	89 75 f8             	mov    %esi,-0x8(%rbp)
    6784:	83 7d fc 00          	cmpl   $0x0,-0x4(%rbp)
    6788:	78 27                	js     67b1 <safe_lshift_func_int32_t_s_u+0x3b>
    678a:	83 7d f8 1f          	cmpl   $0x1f,-0x8(%rbp)
    678e:	77 21                	ja     67b1 <safe_lshift_func_int32_t_s_u+0x3b>
    6790:	8b 45 f8             	mov    -0x8(%rbp),%eax
    6793:	ba ff ff ff 7f       	mov    $0x7fffffff,%edx
    6798:	89 c1                	mov    %eax,%ecx
    679a:	d3 fa                	sar    %cl,%edx
    679c:	89 d0                	mov    %edx,%eax
    679e:	39 45 fc             	cmp    %eax,-0x4(%rbp)
    67a1:	7f 0e                	jg     67b1 <safe_lshift_func_int32_t_s_u+0x3b>
    67a3:	8b 45 f8             	mov    -0x8(%rbp),%eax
    67a6:	8b 55 fc             	mov    -0x4(%rbp),%edx
    67a9:	89 c1                	mov    %eax,%ecx
    67ab:	d3 e2                	shl    %cl,%edx
    67ad:	89 d0                	mov    %edx,%eax
    67af:	eb 03                	jmp    67b4 <safe_lshift_func_int32_t_s_u+0x3e>
    67b1:	8b 45 fc             	mov    -0x4(%rbp),%eax
    67b4:	5d                   	pop    %rbp
    67b5:	c3                   	retq   

00000000000067b6 <safe_rshift_func_int32_t_s_s>:
    67b6:	f3 0f 1e fa          	endbr64 
    67ba:	55                   	push   %rbp
    67bb:	48 89 e5             	mov    %rsp,%rbp
    67be:	89 7d fc             	mov    %edi,-0x4(%rbp)
    67c1:	89 75 f8             	mov    %esi,-0x8(%rbp)
    67c4:	83 7d fc 00          	cmpl   $0x0,-0x4(%rbp)
    67c8:	78 1a                	js     67e4 <safe_rshift_func_int32_t_s_s+0x2e>
    67ca:	83 7d f8 00          	cmpl   $0x0,-0x8(%rbp)
    67ce:	78 14                	js     67e4 <safe_rshift_func_int32_t_s_s+0x2e>
    67d0:	83 7d f8 1f          	cmpl   $0x1f,-0x8(%rbp)
    67d4:	7f 0e                	jg     67e4 <safe_rshift_func_int32_t_s_s+0x2e>
    67d6:	8b 45 f8             	mov    -0x8(%rbp),%eax
    67d9:	8b 55 fc             	mov    -0x4(%rbp),%edx
    67dc:	89 c1                	mov    %eax,%ecx
    67de:	d3 fa                	sar    %cl,%edx
    67e0:	89 d0                	mov    %edx,%eax
    67e2:	eb 03                	jmp    67e7 <safe_rshift_func_int32_t_s_s+0x31>
    67e4:	8b 45 fc             	mov    -0x4(%rbp),%eax
    67e7:	5d                   	pop    %rbp
    67e8:	c3                   	retq   

00000000000067e9 <safe_rshift_func_int32_t_s_u>:
    67e9:	f3 0f 1e fa          	endbr64 
    67ed:	55                   	push   %rbp
    67ee:	48 89 e5             	mov    %rsp,%rbp
    67f1:	89 7d fc             	mov    %edi,-0x4(%rbp)
    67f4:	89 75 f8             	mov    %esi,-0x8(%rbp)
    67f7:	83 7d fc 00          	cmpl   $0x0,-0x4(%rbp)
    67fb:	78 14                	js     6811 <safe_rshift_func_int32_t_s_u+0x28>
    67fd:	83 7d f8 1f          	cmpl   $0x1f,-0x8(%rbp)
    6801:	77 0e                	ja     6811 <safe_rshift_func_int32_t_s_u+0x28>
    6803:	8b 45 f8             	mov    -0x8(%rbp),%eax
    6806:	8b 55 fc             	mov    -0x4(%rbp),%edx
    6809:	89 c1                	mov    %eax,%ecx
    680b:	d3 fa                	sar    %cl,%edx
    680d:	89 d0                	mov    %edx,%eax
    680f:	eb 03                	jmp    6814 <safe_rshift_func_int32_t_s_u+0x2b>
    6811:	8b 45 fc             	mov    -0x4(%rbp),%eax
    6814:	5d                   	pop    %rbp
    6815:	c3                   	retq   

0000000000006816 <safe_unary_minus_func_int64_t_s>:
    6816:	f3 0f 1e fa          	endbr64 
    681a:	55                   	push   %rbp
    681b:	48 89 e5             	mov    %rsp,%rbp
    681e:	48 89 7d f8          	mov    %rdi,-0x8(%rbp)
    6822:	48 b8 00 00 00 00 00 	movabs $0x8000000000000000,%rax
    6829:	00 00 80 
    682c:	48 39 45 f8          	cmp    %rax,-0x8(%rbp)
    6830:	74 09                	je     683b <safe_unary_minus_func_int64_t_s+0x25>
    6832:	48 8b 45 f8          	mov    -0x8(%rbp),%rax
    6836:	48 f7 d8             	neg    %rax
    6839:	eb 04                	jmp    683f <safe_unary_minus_func_int64_t_s+0x29>
    683b:	48 8b 45 f8          	mov    -0x8(%rbp),%rax
    683f:	5d                   	pop    %rbp
    6840:	c3                   	retq   

0000000000006841 <safe_add_func_int64_t_s_s>:
    6841:	f3 0f 1e fa          	endbr64 
    6845:	55                   	push   %rbp
    6846:	48 89 e5             	mov    %rsp,%rbp
    6849:	48 89 7d f8          	mov    %rdi,-0x8(%rbp)
    684d:	48 89 75 f0          	mov    %rsi,-0x10(%rbp)
    6851:	48 83 7d f8 00       	cmpq   $0x0,-0x8(%rbp)
    6856:	7e 1b                	jle    6873 <safe_add_func_int64_t_s_s+0x32>
    6858:	48 83 7d f0 00       	cmpq   $0x0,-0x10(%rbp)
    685d:	7e 14                	jle    6873 <safe_add_func_int64_t_s_s+0x32>
    685f:	48 b8 ff ff ff ff ff 	movabs $0x7fffffffffffffff,%rax
    6866:	ff ff 7f 
    6869:	48 2b 45 f0          	sub    -0x10(%rbp),%rax
    686d:	48 39 45 f8          	cmp    %rax,-0x8(%rbp)
    6871:	7f 2f                	jg     68a2 <safe_add_func_int64_t_s_s+0x61>
    6873:	48 83 7d f8 00       	cmpq   $0x0,-0x8(%rbp)
    6878:	79 1b                	jns    6895 <safe_add_func_int64_t_s_s+0x54>
    687a:	48 83 7d f0 00       	cmpq   $0x0,-0x10(%rbp)
    687f:	79 14                	jns    6895 <safe_add_func_int64_t_s_s+0x54>
    6881:	48 b8 00 00 00 00 00 	movabs $0x8000000000000000,%rax
    6888:	00 00 80 
    688b:	48 2b 45 f0          	sub    -0x10(%rbp),%rax
    688f:	48 39 45 f8          	cmp    %rax,-0x8(%rbp)
    6893:	7c 0d                	jl     68a2 <safe_add_func_int64_t_s_s+0x61>
    6895:	48 8b 55 f8          	mov    -0x8(%rbp),%rdx
    6899:	48 8b 45 f0          	mov    -0x10(%rbp),%rax
    689d:	48 01 d0             	add    %rdx,%rax
    68a0:	eb 04                	jmp    68a6 <safe_add_func_int64_t_s_s+0x65>
    68a2:	48 8b 45 f8          	mov    -0x8(%rbp),%rax
    68a6:	5d                   	pop    %rbp
    68a7:	c3                   	retq   

00000000000068a8 <safe_sub_func_int64_t_s_s>:
    68a8:	f3 0f 1e fa          	endbr64 
    68ac:	55                   	push   %rbp
    68ad:	48 89 e5             	mov    %rsp,%rbp
    68b0:	48 89 7d f8          	mov    %rdi,-0x8(%rbp)
    68b4:	48 89 75 f0          	mov    %rsi,-0x10(%rbp)
    68b8:	48 8b 45 f8          	mov    -0x8(%rbp),%rax
    68bc:	48 33 45 f0          	xor    -0x10(%rbp),%rax
    68c0:	48 89 c2             	mov    %rax,%rdx
    68c3:	48 8b 45 f8          	mov    -0x8(%rbp),%rax
    68c7:	48 33 45 f0          	xor    -0x10(%rbp),%rax
    68cb:	48 b9 00 00 00 00 00 	movabs $0x8000000000000000,%rcx
    68d2:	00 00 80 
    68d5:	48 21 c8             	and    %rcx,%rax
    68d8:	48 33 45 f8          	xor    -0x8(%rbp),%rax
    68dc:	48 2b 45 f0          	sub    -0x10(%rbp),%rax
    68e0:	48 33 45 f0          	xor    -0x10(%rbp),%rax
    68e4:	48 21 d0             	and    %rdx,%rax
    68e7:	48 85 c0             	test   %rax,%rax
    68ea:	78 0a                	js     68f6 <safe_sub_func_int64_t_s_s+0x4e>
    68ec:	48 8b 45 f8          	mov    -0x8(%rbp),%rax
    68f0:	48 2b 45 f0          	sub    -0x10(%rbp),%rax
    68f4:	eb 04                	jmp    68fa <safe_sub_func_int64_t_s_s+0x52>
    68f6:	48 8b 45 f8          	mov    -0x8(%rbp),%rax
    68fa:	5d                   	pop    %rbp
    68fb:	c3                   	retq   

00000000000068fc <safe_mul_func_int64_t_s_s>:
    68fc:	f3 0f 1e fa          	endbr64 
    6900:	55                   	push   %rbp
    6901:	48 89 e5             	mov    %rsp,%rbp
    6904:	48 89 7d f8          	mov    %rdi,-0x8(%rbp)
    6908:	48 89 75 f0          	mov    %rsi,-0x10(%rbp)
    690c:	48 83 7d f8 00       	cmpq   $0x0,-0x8(%rbp)
    6911:	7e 1d                	jle    6930 <safe_mul_func_int64_t_s_s+0x34>
    6913:	48 83 7d f0 00       	cmpq   $0x0,-0x10(%rbp)
    6918:	7e 16                	jle    6930 <safe_mul_func_int64_t_s_s+0x34>
    691a:	48 b8 ff ff ff ff ff 	movabs $0x7fffffffffffffff,%rax
    6921:	ff ff 7f 
    6924:	48 99                	cqto   
    6926:	48 f7 7d f0          	idivq  -0x10(%rbp)
    692a:	48 39 45 f8          	cmp    %rax,-0x8(%rbp)
    692e:	7f 7e                	jg     69ae <safe_mul_func_int64_t_s_s+0xb2>
    6930:	48 83 7d f8 00       	cmpq   $0x0,-0x8(%rbp)
    6935:	7e 1d                	jle    6954 <safe_mul_func_int64_t_s_s+0x58>
    6937:	48 83 7d f0 00       	cmpq   $0x0,-0x10(%rbp)
    693c:	7f 16                	jg     6954 <safe_mul_func_int64_t_s_s+0x58>
    693e:	48 b8 00 00 00 00 00 	movabs $0x8000000000000000,%rax
    6945:	00 00 80 
    6948:	48 99                	cqto   
    694a:	48 f7 7d f8          	idivq  -0x8(%rbp)
    694e:	48 39 45 f0          	cmp    %rax,-0x10(%rbp)
    6952:	7c 5a                	jl     69ae <safe_mul_func_int64_t_s_s+0xb2>
    6954:	48 83 7d f8 00       	cmpq   $0x0,-0x8(%rbp)
    6959:	7f 1d                	jg     6978 <safe_mul_func_int64_t_s_s+0x7c>
    695b:	48 83 7d f0 00       	cmpq   $0x0,-0x10(%rbp)
    6960:	7e 16                	jle    6978 <safe_mul_func_int64_t_s_s+0x7c>
    6962:	48 b8 00 00 00 00 00 	movabs $0x8000000000000000,%rax
    6969:	00 00 80 
    696c:	48 99                	cqto   
    696e:	48 f7 7d f0          	idivq  -0x10(%rbp)
    6972:	48 39 45 f8          	cmp    %rax,-0x8(%rbp)
    6976:	7c 36                	jl     69ae <safe_mul_func_int64_t_s_s+0xb2>
    6978:	48 83 7d f8 00       	cmpq   $0x0,-0x8(%rbp)
    697d:	7f 24                	jg     69a3 <safe_mul_func_int64_t_s_s+0xa7>
    697f:	48 83 7d f0 00       	cmpq   $0x0,-0x10(%rbp)
    6984:	7f 1d                	jg     69a3 <safe_mul_func_int64_t_s_s+0xa7>
    6986:	48 83 7d f8 00       	cmpq   $0x0,-0x8(%rbp)
    698b:	74 16                	je     69a3 <safe_mul_func_int64_t_s_s+0xa7>
    698d:	48 b8 ff ff ff ff ff 	movabs $0x7fffffffffffffff,%rax
    6994:	ff ff 7f 
    6997:	48 99                	cqto   
    6999:	48 f7 7d f8          	idivq  -0x8(%rbp)
    699d:	48 39 45 f0          	cmp    %rax,-0x10(%rbp)
    69a1:	7c 0b                	jl     69ae <safe_mul_func_int64_t_s_s+0xb2>
    69a3:	48 8b 45 f8          	mov    -0x8(%rbp),%rax
    69a7:	48 0f af 45 f0       	imul   -0x10(%rbp),%rax
    69ac:	eb 04                	jmp    69b2 <safe_mul_func_int64_t_s_s+0xb6>
    69ae:	48 8b 45 f8          	mov    -0x8(%rbp),%rax
    69b2:	5d                   	pop    %rbp
    69b3:	c3                   	retq   

00000000000069b4 <safe_mod_func_int64_t_s_s>:
    69b4:	f3 0f 1e fa          	endbr64 
    69b8:	55                   	push   %rbp
    69b9:	48 89 e5             	mov    %rsp,%rbp
    69bc:	48 89 7d f8          	mov    %rdi,-0x8(%rbp)
    69c0:	48 89 75 f0          	mov    %rsi,-0x10(%rbp)
    69c4:	48 83 7d f0 00       	cmpq   $0x0,-0x10(%rbp)
    69c9:	74 26                	je     69f1 <safe_mod_func_int64_t_s_s+0x3d>
    69cb:	48 b8 00 00 00 00 00 	movabs $0x8000000000000000,%rax
    69d2:	00 00 80 
    69d5:	48 39 45 f8          	cmp    %rax,-0x8(%rbp)
    69d9:	75 07                	jne    69e2 <safe_mod_func_int64_t_s_s+0x2e>
    69db:	48 83 7d f0 ff       	cmpq   $0xffffffffffffffff,-0x10(%rbp)
    69e0:	74 0f                	je     69f1 <safe_mod_func_int64_t_s_s+0x3d>
    69e2:	48 8b 45 f8          	mov    -0x8(%rbp),%rax
    69e6:	48 99                	cqto   
    69e8:	48 f7 7d f0          	idivq  -0x10(%rbp)
    69ec:	48 89 d0             	mov    %rdx,%rax
    69ef:	eb 04                	jmp    69f5 <safe_mod_func_int64_t_s_s+0x41>
    69f1:	48 8b 45 f8          	mov    -0x8(%rbp),%rax
    69f5:	5d                   	pop    %rbp
    69f6:	c3                   	retq   

00000000000069f7 <safe_div_func_int64_t_s_s>:
    69f7:	f3 0f 1e fa          	endbr64 
    69fb:	55                   	push   %rbp
    69fc:	48 89 e5             	mov    %rsp,%rbp
    69ff:	48 89 7d f8          	mov    %rdi,-0x8(%rbp)
    6a03:	48 89 75 f0          	mov    %rsi,-0x10(%rbp)
    6a07:	48 83 7d f0 00       	cmpq   $0x0,-0x10(%rbp)
    6a0c:	74 23                	je     6a31 <safe_div_func_int64_t_s_s+0x3a>
    6a0e:	48 b8 00 00 00 00 00 	movabs $0x8000000000000000,%rax
    6a15:	00 00 80 
    6a18:	48 39 45 f8          	cmp    %rax,-0x8(%rbp)
    6a1c:	75 07                	jne    6a25 <safe_div_func_int64_t_s_s+0x2e>
    6a1e:	48 83 7d f0 ff       	cmpq   $0xffffffffffffffff,-0x10(%rbp)
    6a23:	74 0c                	je     6a31 <safe_div_func_int64_t_s_s+0x3a>
    6a25:	48 8b 45 f8          	mov    -0x8(%rbp),%rax
    6a29:	48 99                	cqto   
    6a2b:	48 f7 7d f0          	idivq  -0x10(%rbp)
    6a2f:	eb 04                	jmp    6a35 <safe_div_func_int64_t_s_s+0x3e>
    6a31:	48 8b 45 f8          	mov    -0x8(%rbp),%rax
    6a35:	5d                   	pop    %rbp
    6a36:	c3                   	retq   

0000000000006a37 <safe_lshift_func_int64_t_s_s>:
    6a37:	f3 0f 1e fa          	endbr64 
    6a3b:	55                   	push   %rbp
    6a3c:	48 89 e5             	mov    %rsp,%rbp
    6a3f:	48 89 7d f8          	mov    %rdi,-0x8(%rbp)
    6a43:	89 75 f4             	mov    %esi,-0xc(%rbp)
    6a46:	48 83 7d f8 00       	cmpq   $0x0,-0x8(%rbp)
    6a4b:	78 38                	js     6a85 <safe_lshift_func_int64_t_s_s+0x4e>
    6a4d:	83 7d f4 00          	cmpl   $0x0,-0xc(%rbp)
    6a51:	78 32                	js     6a85 <safe_lshift_func_int64_t_s_s+0x4e>
    6a53:	83 7d f4 1f          	cmpl   $0x1f,-0xc(%rbp)
    6a57:	7f 2c                	jg     6a85 <safe_lshift_func_int64_t_s_s+0x4e>
    6a59:	8b 45 f4             	mov    -0xc(%rbp),%eax
    6a5c:	48 ba ff ff ff ff ff 	movabs $0x7fffffffffffffff,%rdx
    6a63:	ff ff 7f 
    6a66:	89 c1                	mov    %eax,%ecx
    6a68:	48 d3 fa             	sar    %cl,%rdx
    6a6b:	48 89 d0             	mov    %rdx,%rax
    6a6e:	48 39 45 f8          	cmp    %rax,-0x8(%rbp)
    6a72:	7f 11                	jg     6a85 <safe_lshift_func_int64_t_s_s+0x4e>
    6a74:	8b 45 f4             	mov    -0xc(%rbp),%eax
    6a77:	48 8b 55 f8          	mov    -0x8(%rbp),%rdx
    6a7b:	89 c1                	mov    %eax,%ecx
    6a7d:	48 d3 e2             	shl    %cl,%rdx
    6a80:	48 89 d0             	mov    %rdx,%rax
    6a83:	eb 04                	jmp    6a89 <safe_lshift_func_int64_t_s_s+0x52>
    6a85:	48 8b 45 f8          	mov    -0x8(%rbp),%rax
    6a89:	5d                   	pop    %rbp
    6a8a:	c3                   	retq   

0000000000006a8b <safe_lshift_func_int64_t_s_u>:
    6a8b:	f3 0f 1e fa          	endbr64 
    6a8f:	55                   	push   %rbp
    6a90:	48 89 e5             	mov    %rsp,%rbp
    6a93:	48 89 7d f8          	mov    %rdi,-0x8(%rbp)
    6a97:	89 75 f4             	mov    %esi,-0xc(%rbp)
    6a9a:	48 83 7d f8 00       	cmpq   $0x0,-0x8(%rbp)
    6a9f:	78 32                	js     6ad3 <safe_lshift_func_int64_t_s_u+0x48>
    6aa1:	83 7d f4 1f          	cmpl   $0x1f,-0xc(%rbp)
    6aa5:	77 2c                	ja     6ad3 <safe_lshift_func_int64_t_s_u+0x48>
    6aa7:	8b 45 f4             	mov    -0xc(%rbp),%eax
    6aaa:	48 ba ff ff ff ff ff 	movabs $0x7fffffffffffffff,%rdx
    6ab1:	ff ff 7f 
    6ab4:	89 c1                	mov    %eax,%ecx
    6ab6:	48 d3 fa             	sar    %cl,%rdx
    6ab9:	48 89 d0             	mov    %rdx,%rax
    6abc:	48 39 45 f8          	cmp    %rax,-0x8(%rbp)
    6ac0:	7f 11                	jg     6ad3 <safe_lshift_func_int64_t_s_u+0x48>
    6ac2:	8b 45 f4             	mov    -0xc(%rbp),%eax
    6ac5:	48 8b 55 f8          	mov    -0x8(%rbp),%rdx
    6ac9:	89 c1                	mov    %eax,%ecx
    6acb:	48 d3 e2             	shl    %cl,%rdx
    6ace:	48 89 d0             	mov    %rdx,%rax
    6ad1:	eb 04                	jmp    6ad7 <safe_lshift_func_int64_t_s_u+0x4c>
    6ad3:	48 8b 45 f8          	mov    -0x8(%rbp),%rax
    6ad7:	5d                   	pop    %rbp
    6ad8:	c3                   	retq   

0000000000006ad9 <safe_rshift_func_int64_t_s_s>:
    6ad9:	f3 0f 1e fa          	endbr64 
    6add:	55                   	push   %rbp
    6ade:	48 89 e5             	mov    %rsp,%rbp
    6ae1:	48 89 7d f8          	mov    %rdi,-0x8(%rbp)
    6ae5:	89 75 f4             	mov    %esi,-0xc(%rbp)
    6ae8:	48 83 7d f8 00       	cmpq   $0x0,-0x8(%rbp)
    6aed:	78 1d                	js     6b0c <safe_rshift_func_int64_t_s_s+0x33>
    6aef:	83 7d f4 00          	cmpl   $0x0,-0xc(%rbp)
    6af3:	78 17                	js     6b0c <safe_rshift_func_int64_t_s_s+0x33>
    6af5:	83 7d f4 1f          	cmpl   $0x1f,-0xc(%rbp)
    6af9:	7f 11                	jg     6b0c <safe_rshift_func_int64_t_s_s+0x33>
    6afb:	8b 45 f4             	mov    -0xc(%rbp),%eax
    6afe:	48 8b 55 f8          	mov    -0x8(%rbp),%rdx
    6b02:	89 c1                	mov    %eax,%ecx
    6b04:	48 d3 fa             	sar    %cl,%rdx
    6b07:	48 89 d0             	mov    %rdx,%rax
    6b0a:	eb 04                	jmp    6b10 <safe_rshift_func_int64_t_s_s+0x37>
    6b0c:	48 8b 45 f8          	mov    -0x8(%rbp),%rax
    6b10:	5d                   	pop    %rbp
    6b11:	c3                   	retq   

0000000000006b12 <safe_rshift_func_int64_t_s_u>:
    6b12:	f3 0f 1e fa          	endbr64 
    6b16:	55                   	push   %rbp
    6b17:	48 89 e5             	mov    %rsp,%rbp
    6b1a:	48 89 7d f8          	mov    %rdi,-0x8(%rbp)
    6b1e:	89 75 f4             	mov    %esi,-0xc(%rbp)
    6b21:	48 83 7d f8 00       	cmpq   $0x0,-0x8(%rbp)
    6b26:	78 17                	js     6b3f <safe_rshift_func_int64_t_s_u+0x2d>
    6b28:	83 7d f4 1f          	cmpl   $0x1f,-0xc(%rbp)
    6b2c:	77 11                	ja     6b3f <safe_rshift_func_int64_t_s_u+0x2d>
    6b2e:	8b 45 f4             	mov    -0xc(%rbp),%eax
    6b31:	48 8b 55 f8          	mov    -0x8(%rbp),%rdx
    6b35:	89 c1                	mov    %eax,%ecx
    6b37:	48 d3 fa             	sar    %cl,%rdx
    6b3a:	48 89 d0             	mov    %rdx,%rax
    6b3d:	eb 04                	jmp    6b43 <safe_rshift_func_int64_t_s_u+0x31>
    6b3f:	48 8b 45 f8          	mov    -0x8(%rbp),%rax
    6b43:	5d                   	pop    %rbp
    6b44:	c3                   	retq   

0000000000006b45 <safe_unary_minus_func_uint8_t_u>:
    6b45:	f3 0f 1e fa          	endbr64 
    6b49:	55                   	push   %rbp
    6b4a:	48 89 e5             	mov    %rsp,%rbp
    6b4d:	89 f8                	mov    %edi,%eax
    6b4f:	88 45 fc             	mov    %al,-0x4(%rbp)
    6b52:	0f b6 45 fc          	movzbl -0x4(%rbp),%eax
    6b56:	f7 d8                	neg    %eax
    6b58:	5d                   	pop    %rbp
    6b59:	c3                   	retq   

0000000000006b5a <safe_add_func_uint8_t_u_u>:
    6b5a:	f3 0f 1e fa          	endbr64 
    6b5e:	55                   	push   %rbp
    6b5f:	48 89 e5             	mov    %rsp,%rbp
    6b62:	89 fa                	mov    %edi,%edx
    6b64:	89 f0                	mov    %esi,%eax
    6b66:	88 55 fc             	mov    %dl,-0x4(%rbp)
    6b69:	88 45 f8             	mov    %al,-0x8(%rbp)
    6b6c:	0f b6 55 fc          	movzbl -0x4(%rbp),%edx
    6b70:	0f b6 45 f8          	movzbl -0x8(%rbp),%eax
    6b74:	01 d0                	add    %edx,%eax
    6b76:	5d                   	pop    %rbp
    6b77:	c3                   	retq   

0000000000006b78 <safe_sub_func_uint8_t_u_u>:
    6b78:	f3 0f 1e fa          	endbr64 
    6b7c:	55                   	push   %rbp
    6b7d:	48 89 e5             	mov    %rsp,%rbp
    6b80:	89 fa                	mov    %edi,%edx
    6b82:	89 f0                	mov    %esi,%eax
    6b84:	88 55 fc             	mov    %dl,-0x4(%rbp)
    6b87:	88 45 f8             	mov    %al,-0x8(%rbp)
    6b8a:	0f b6 45 fc          	movzbl -0x4(%rbp),%eax
    6b8e:	2a 45 f8             	sub    -0x8(%rbp),%al
    6b91:	5d                   	pop    %rbp
    6b92:	c3                   	retq   

0000000000006b93 <safe_mul_func_uint8_t_u_u>:
    6b93:	f3 0f 1e fa          	endbr64 
    6b97:	55                   	push   %rbp
    6b98:	48 89 e5             	mov    %rsp,%rbp
    6b9b:	89 fa                	mov    %edi,%edx
    6b9d:	89 f0                	mov    %esi,%eax
    6b9f:	88 55 fc             	mov    %dl,-0x4(%rbp)
    6ba2:	88 45 f8             	mov    %al,-0x8(%rbp)
    6ba5:	0f b6 45 fc          	movzbl -0x4(%rbp),%eax
    6ba9:	f6 65 f8             	mulb   -0x8(%rbp)
    6bac:	5d                   	pop    %rbp
    6bad:	c3                   	retq   

0000000000006bae <safe_mod_func_uint8_t_u_u>:
    6bae:	f3 0f 1e fa          	endbr64 
    6bb2:	55                   	push   %rbp
    6bb3:	48 89 e5             	mov    %rsp,%rbp
    6bb6:	89 fa                	mov    %edi,%edx
    6bb8:	89 f0                	mov    %esi,%eax
    6bba:	88 55 fc             	mov    %dl,-0x4(%rbp)
    6bbd:	88 45 f8             	mov    %al,-0x8(%rbp)
    6bc0:	80 7d f8 00          	cmpb   $0x0,-0x8(%rbp)
    6bc4:	74 0f                	je     6bd5 <safe_mod_func_uint8_t_u_u+0x27>
    6bc6:	0f b6 45 fc          	movzbl -0x4(%rbp),%eax
    6bca:	0f b6 c0             	movzbl %al,%eax
    6bcd:	f6 75 f8             	divb   -0x8(%rbp)
    6bd0:	0f b6 c4             	movzbl %ah,%eax
    6bd3:	eb 04                	jmp    6bd9 <safe_mod_func_uint8_t_u_u+0x2b>
    6bd5:	0f b6 45 fc          	movzbl -0x4(%rbp),%eax
    6bd9:	5d                   	pop    %rbp
    6bda:	c3                   	retq   

0000000000006bdb <safe_div_func_uint8_t_u_u>:
    6bdb:	f3 0f 1e fa          	endbr64 
    6bdf:	55                   	push   %rbp
    6be0:	48 89 e5             	mov    %rsp,%rbp
    6be3:	89 fa                	mov    %edi,%edx
    6be5:	89 f0                	mov    %esi,%eax
    6be7:	88 55 fc             	mov    %dl,-0x4(%rbp)
    6bea:	88 45 f8             	mov    %al,-0x8(%rbp)
    6bed:	80 7d f8 00          	cmpb   $0x0,-0x8(%rbp)
    6bf1:	74 0c                	je     6bff <safe_div_func_uint8_t_u_u+0x24>
    6bf3:	0f b6 45 fc          	movzbl -0x4(%rbp),%eax
    6bf7:	0f b6 c0             	movzbl %al,%eax
    6bfa:	f6 75 f8             	divb   -0x8(%rbp)
    6bfd:	eb 04                	jmp    6c03 <safe_div_func_uint8_t_u_u+0x28>
    6bff:	0f b6 45 fc          	movzbl -0x4(%rbp),%eax
    6c03:	5d                   	pop    %rbp
    6c04:	c3                   	retq   

0000000000006c05 <safe_lshift_func_uint8_t_u_s>:
    6c05:	f3 0f 1e fa          	endbr64 
    6c09:	55                   	push   %rbp
    6c0a:	48 89 e5             	mov    %rsp,%rbp
    6c0d:	89 f8                	mov    %edi,%eax
    6c0f:	89 75 f8             	mov    %esi,-0x8(%rbp)
    6c12:	88 45 fc             	mov    %al,-0x4(%rbp)
    6c15:	83 7d f8 00          	cmpl   $0x0,-0x8(%rbp)
    6c19:	78 2b                	js     6c46 <safe_lshift_func_uint8_t_u_s+0x41>
    6c1b:	83 7d f8 1f          	cmpl   $0x1f,-0x8(%rbp)
    6c1f:	7f 25                	jg     6c46 <safe_lshift_func_uint8_t_u_s+0x41>
    6c21:	0f b6 55 fc          	movzbl -0x4(%rbp),%edx
    6c25:	8b 45 f8             	mov    -0x8(%rbp),%eax
    6c28:	be ff 00 00 00       	mov    $0xff,%esi
    6c2d:	89 c1                	mov    %eax,%ecx
    6c2f:	d3 fe                	sar    %cl,%esi
    6c31:	89 f0                	mov    %esi,%eax
    6c33:	39 c2                	cmp    %eax,%edx
    6c35:	7f 0f                	jg     6c46 <safe_lshift_func_uint8_t_u_s+0x41>
    6c37:	0f b6 55 fc          	movzbl -0x4(%rbp),%edx
    6c3b:	8b 45 f8             	mov    -0x8(%rbp),%eax
    6c3e:	89 c1                	mov    %eax,%ecx
    6c40:	d3 e2                	shl    %cl,%edx
    6c42:	89 d0                	mov    %edx,%eax
    6c44:	eb 04                	jmp    6c4a <safe_lshift_func_uint8_t_u_s+0x45>
    6c46:	0f b6 45 fc          	movzbl -0x4(%rbp),%eax
    6c4a:	5d                   	pop    %rbp
    6c4b:	c3                   	retq   

0000000000006c4c <safe_lshift_func_uint8_t_u_u>:
    6c4c:	f3 0f 1e fa          	endbr64 
    6c50:	55                   	push   %rbp
    6c51:	48 89 e5             	mov    %rsp,%rbp
    6c54:	89 f8                	mov    %edi,%eax
    6c56:	89 75 f8             	mov    %esi,-0x8(%rbp)
    6c59:	88 45 fc             	mov    %al,-0x4(%rbp)
    6c5c:	83 7d f8 1f          	cmpl   $0x1f,-0x8(%rbp)
    6c60:	77 25                	ja     6c87 <safe_lshift_func_uint8_t_u_u+0x3b>
    6c62:	0f b6 55 fc          	movzbl -0x4(%rbp),%edx
    6c66:	8b 45 f8             	mov    -0x8(%rbp),%eax
    6c69:	be ff 00 00 00       	mov    $0xff,%esi
    6c6e:	89 c1                	mov    %eax,%ecx
    6c70:	d3 fe                	sar    %cl,%esi
    6c72:	89 f0                	mov    %esi,%eax
    6c74:	39 c2                	cmp    %eax,%edx
    6c76:	7f 0f                	jg     6c87 <safe_lshift_func_uint8_t_u_u+0x3b>
    6c78:	0f b6 55 fc          	movzbl -0x4(%rbp),%edx
    6c7c:	8b 45 f8             	mov    -0x8(%rbp),%eax
    6c7f:	89 c1                	mov    %eax,%ecx
    6c81:	d3 e2                	shl    %cl,%edx
    6c83:	89 d0                	mov    %edx,%eax
    6c85:	eb 04                	jmp    6c8b <safe_lshift_func_uint8_t_u_u+0x3f>
    6c87:	0f b6 45 fc          	movzbl -0x4(%rbp),%eax
    6c8b:	5d                   	pop    %rbp
    6c8c:	c3                   	retq   

0000000000006c8d <safe_rshift_func_uint8_t_u_s>:
    6c8d:	f3 0f 1e fa          	endbr64 
    6c91:	55                   	push   %rbp
    6c92:	48 89 e5             	mov    %rsp,%rbp
    6c95:	89 f8                	mov    %edi,%eax
    6c97:	89 75 f8             	mov    %esi,-0x8(%rbp)
    6c9a:	88 45 fc             	mov    %al,-0x4(%rbp)
    6c9d:	83 7d f8 00          	cmpl   $0x0,-0x8(%rbp)
    6ca1:	78 15                	js     6cb8 <safe_rshift_func_uint8_t_u_s+0x2b>
    6ca3:	83 7d f8 1f          	cmpl   $0x1f,-0x8(%rbp)
    6ca7:	7f 0f                	jg     6cb8 <safe_rshift_func_uint8_t_u_s+0x2b>
    6ca9:	0f b6 55 fc          	movzbl -0x4(%rbp),%edx
    6cad:	8b 45 f8             	mov    -0x8(%rbp),%eax
    6cb0:	89 c1                	mov    %eax,%ecx
    6cb2:	d3 fa                	sar    %cl,%edx
    6cb4:	89 d0                	mov    %edx,%eax
    6cb6:	eb 04                	jmp    6cbc <safe_rshift_func_uint8_t_u_s+0x2f>
    6cb8:	0f b6 45 fc          	movzbl -0x4(%rbp),%eax
    6cbc:	5d                   	pop    %rbp
    6cbd:	c3                   	retq   

0000000000006cbe <safe_rshift_func_uint8_t_u_u>:
    6cbe:	f3 0f 1e fa          	endbr64 
    6cc2:	55                   	push   %rbp
    6cc3:	48 89 e5             	mov    %rsp,%rbp
    6cc6:	89 f8                	mov    %edi,%eax
    6cc8:	89 75 f8             	mov    %esi,-0x8(%rbp)
    6ccb:	88 45 fc             	mov    %al,-0x4(%rbp)
    6cce:	83 7d f8 1f          	cmpl   $0x1f,-0x8(%rbp)
    6cd2:	77 0f                	ja     6ce3 <safe_rshift_func_uint8_t_u_u+0x25>
    6cd4:	0f b6 55 fc          	movzbl -0x4(%rbp),%edx
    6cd8:	8b 45 f8             	mov    -0x8(%rbp),%eax
    6cdb:	89 c1                	mov    %eax,%ecx
    6cdd:	d3 fa                	sar    %cl,%edx
    6cdf:	89 d0                	mov    %edx,%eax
    6ce1:	eb 04                	jmp    6ce7 <safe_rshift_func_uint8_t_u_u+0x29>
    6ce3:	0f b6 45 fc          	movzbl -0x4(%rbp),%eax
    6ce7:	5d                   	pop    %rbp
    6ce8:	c3                   	retq   

0000000000006ce9 <safe_unary_minus_func_uint16_t_u>:
    6ce9:	f3 0f 1e fa          	endbr64 
    6ced:	55                   	push   %rbp
    6cee:	48 89 e5             	mov    %rsp,%rbp
    6cf1:	89 f8                	mov    %edi,%eax
    6cf3:	66 89 45 fc          	mov    %ax,-0x4(%rbp)
    6cf7:	0f b7 45 fc          	movzwl -0x4(%rbp),%eax
    6cfb:	f7 d8                	neg    %eax
    6cfd:	5d                   	pop    %rbp
    6cfe:	c3                   	retq   

0000000000006cff <safe_add_func_uint16_t_u_u>:
    6cff:	f3 0f 1e fa          	endbr64 
    6d03:	55                   	push   %rbp
    6d04:	48 89 e5             	mov    %rsp,%rbp
    6d07:	89 fa                	mov    %edi,%edx
    6d09:	89 f0                	mov    %esi,%eax
    6d0b:	66 89 55 fc          	mov    %dx,-0x4(%rbp)
    6d0f:	66 89 45 f8          	mov    %ax,-0x8(%rbp)
    6d13:	0f b7 55 fc          	movzwl -0x4(%rbp),%edx
    6d17:	0f b7 45 f8          	movzwl -0x8(%rbp),%eax
    6d1b:	01 d0                	add    %edx,%eax
    6d1d:	5d                   	pop    %rbp
    6d1e:	c3                   	retq   

0000000000006d1f <safe_sub_func_uint16_t_u_u>:
    6d1f:	f3 0f 1e fa          	endbr64 
    6d23:	55                   	push   %rbp
    6d24:	48 89 e5             	mov    %rsp,%rbp
    6d27:	89 fa                	mov    %edi,%edx
    6d29:	89 f0                	mov    %esi,%eax
    6d2b:	66 89 55 fc          	mov    %dx,-0x4(%rbp)
    6d2f:	66 89 45 f8          	mov    %ax,-0x8(%rbp)
    6d33:	0f b7 45 fc          	movzwl -0x4(%rbp),%eax
    6d37:	66 2b 45 f8          	sub    -0x8(%rbp),%ax
    6d3b:	5d                   	pop    %rbp
    6d3c:	c3                   	retq   

0000000000006d3d <safe_mul_func_uint16_t_u_u>:
    6d3d:	f3 0f 1e fa          	endbr64 
    6d41:	55                   	push   %rbp
    6d42:	48 89 e5             	mov    %rsp,%rbp
    6d45:	89 fa                	mov    %edi,%edx
    6d47:	89 f0                	mov    %esi,%eax
    6d49:	66 89 55 fc          	mov    %dx,-0x4(%rbp)
    6d4d:	66 89 45 f8          	mov    %ax,-0x8(%rbp)
    6d51:	0f b7 45 fc          	movzwl -0x4(%rbp),%eax
    6d55:	66 0f af 45 f8       	imul   -0x8(%rbp),%ax
    6d5a:	5d                   	pop    %rbp
    6d5b:	c3                   	retq   

0000000000006d5c <safe_mod_func_uint16_t_u_u>:
    6d5c:	f3 0f 1e fa          	endbr64 
    6d60:	55                   	push   %rbp
    6d61:	48 89 e5             	mov    %rsp,%rbp
    6d64:	89 fa                	mov    %edi,%edx
    6d66:	89 f0                	mov    %esi,%eax
    6d68:	66 89 55 fc          	mov    %dx,-0x4(%rbp)
    6d6c:	66 89 45 f8          	mov    %ax,-0x8(%rbp)
    6d70:	66 83 7d f8 00       	cmpw   $0x0,-0x8(%rbp)
    6d75:	74 11                	je     6d88 <safe_mod_func_uint16_t_u_u+0x2c>
    6d77:	0f b7 45 fc          	movzwl -0x4(%rbp),%eax
    6d7b:	ba 00 00 00 00       	mov    $0x0,%edx
    6d80:	66 f7 75 f8          	divw   -0x8(%rbp)
    6d84:	89 d0                	mov    %edx,%eax
    6d86:	eb 04                	jmp    6d8c <safe_mod_func_uint16_t_u_u+0x30>
    6d88:	0f b7 45 fc          	movzwl -0x4(%rbp),%eax
    6d8c:	5d                   	pop    %rbp
    6d8d:	c3                   	retq   

0000000000006d8e <safe_div_func_uint16_t_u_u>:
    6d8e:	f3 0f 1e fa          	endbr64 
    6d92:	55                   	push   %rbp
    6d93:	48 89 e5             	mov    %rsp,%rbp
    6d96:	89 fa                	mov    %edi,%edx
    6d98:	89 f0                	mov    %esi,%eax
    6d9a:	66 89 55 fc          	mov    %dx,-0x4(%rbp)
    6d9e:	66 89 45 f8          	mov    %ax,-0x8(%rbp)
    6da2:	66 83 7d f8 00       	cmpw   $0x0,-0x8(%rbp)
    6da7:	74 0f                	je     6db8 <safe_div_func_uint16_t_u_u+0x2a>
    6da9:	0f b7 45 fc          	movzwl -0x4(%rbp),%eax
    6dad:	ba 00 00 00 00       	mov    $0x0,%edx
    6db2:	66 f7 75 f8          	divw   -0x8(%rbp)
    6db6:	eb 04                	jmp    6dbc <safe_div_func_uint16_t_u_u+0x2e>
    6db8:	0f b7 45 fc          	movzwl -0x4(%rbp),%eax
    6dbc:	5d                   	pop    %rbp
    6dbd:	c3                   	retq   

0000000000006dbe <safe_lshift_func_uint16_t_u_s>:
    6dbe:	f3 0f 1e fa          	endbr64 
    6dc2:	55                   	push   %rbp
    6dc3:	48 89 e5             	mov    %rsp,%rbp
    6dc6:	89 f8                	mov    %edi,%eax
    6dc8:	89 75 f8             	mov    %esi,-0x8(%rbp)
    6dcb:	66 89 45 fc          	mov    %ax,-0x4(%rbp)
    6dcf:	83 7d f8 00          	cmpl   $0x0,-0x8(%rbp)
    6dd3:	78 2b                	js     6e00 <safe_lshift_func_uint16_t_u_s+0x42>
    6dd5:	83 7d f8 1f          	cmpl   $0x1f,-0x8(%rbp)
    6dd9:	7f 25                	jg     6e00 <safe_lshift_func_uint16_t_u_s+0x42>
    6ddb:	0f b7 55 fc          	movzwl -0x4(%rbp),%edx
    6ddf:	8b 45 f8             	mov    -0x8(%rbp),%eax
    6de2:	be ff ff 00 00       	mov    $0xffff,%esi
    6de7:	89 c1                	mov    %eax,%ecx
    6de9:	d3 fe                	sar    %cl,%esi
    6deb:	89 f0                	mov    %esi,%eax
    6ded:	39 c2                	cmp    %eax,%edx
    6def:	7f 0f                	jg     6e00 <safe_lshift_func_uint16_t_u_s+0x42>
    6df1:	0f b7 55 fc          	movzwl -0x4(%rbp),%edx
    6df5:	8b 45 f8             	mov    -0x8(%rbp),%eax
    6df8:	89 c1                	mov    %eax,%ecx
    6dfa:	d3 e2                	shl    %cl,%edx
    6dfc:	89 d0                	mov    %edx,%eax
    6dfe:	eb 04                	jmp    6e04 <safe_lshift_func_uint16_t_u_s+0x46>
    6e00:	0f b7 45 fc          	movzwl -0x4(%rbp),%eax
    6e04:	5d                   	pop    %rbp
    6e05:	c3                   	retq   

0000000000006e06 <safe_lshift_func_uint16_t_u_u>:
    6e06:	f3 0f 1e fa          	endbr64 
    6e0a:	55                   	push   %rbp
    6e0b:	48 89 e5             	mov    %rsp,%rbp
    6e0e:	89 f8                	mov    %edi,%eax
    6e10:	89 75 f8             	mov    %esi,-0x8(%rbp)
    6e13:	66 89 45 fc          	mov    %ax,-0x4(%rbp)
    6e17:	83 7d f8 1f          	cmpl   $0x1f,-0x8(%rbp)
    6e1b:	77 25                	ja     6e42 <safe_lshift_func_uint16_t_u_u+0x3c>
    6e1d:	0f b7 55 fc          	movzwl -0x4(%rbp),%edx
    6e21:	8b 45 f8             	mov    -0x8(%rbp),%eax
    6e24:	be ff ff 00 00       	mov    $0xffff,%esi
    6e29:	89 c1                	mov    %eax,%ecx
    6e2b:	d3 fe                	sar    %cl,%esi
    6e2d:	89 f0                	mov    %esi,%eax
    6e2f:	39 c2                	cmp    %eax,%edx
    6e31:	7f 0f                	jg     6e42 <safe_lshift_func_uint16_t_u_u+0x3c>
    6e33:	0f b7 55 fc          	movzwl -0x4(%rbp),%edx
    6e37:	8b 45 f8             	mov    -0x8(%rbp),%eax
    6e3a:	89 c1                	mov    %eax,%ecx
    6e3c:	d3 e2                	shl    %cl,%edx
    6e3e:	89 d0                	mov    %edx,%eax
    6e40:	eb 04                	jmp    6e46 <safe_lshift_func_uint16_t_u_u+0x40>
    6e42:	0f b7 45 fc          	movzwl -0x4(%rbp),%eax
    6e46:	5d                   	pop    %rbp
    6e47:	c3                   	retq   

0000000000006e48 <safe_rshift_func_uint16_t_u_s>:
    6e48:	f3 0f 1e fa          	endbr64 
    6e4c:	55                   	push   %rbp
    6e4d:	48 89 e5             	mov    %rsp,%rbp
    6e50:	89 f8                	mov    %edi,%eax
    6e52:	89 75 f8             	mov    %esi,-0x8(%rbp)
    6e55:	66 89 45 fc          	mov    %ax,-0x4(%rbp)
    6e59:	83 7d f8 00          	cmpl   $0x0,-0x8(%rbp)
    6e5d:	78 15                	js     6e74 <safe_rshift_func_uint16_t_u_s+0x2c>
    6e5f:	83 7d f8 1f          	cmpl   $0x1f,-0x8(%rbp)
    6e63:	7f 0f                	jg     6e74 <safe_rshift_func_uint16_t_u_s+0x2c>
    6e65:	0f b7 55 fc          	movzwl -0x4(%rbp),%edx
    6e69:	8b 45 f8             	mov    -0x8(%rbp),%eax
    6e6c:	89 c1                	mov    %eax,%ecx
    6e6e:	d3 fa                	sar    %cl,%edx
    6e70:	89 d0                	mov    %edx,%eax
    6e72:	eb 04                	jmp    6e78 <safe_rshift_func_uint16_t_u_s+0x30>
    6e74:	0f b7 45 fc          	movzwl -0x4(%rbp),%eax
    6e78:	5d                   	pop    %rbp
    6e79:	c3                   	retq   

0000000000006e7a <safe_rshift_func_uint16_t_u_u>:
    6e7a:	f3 0f 1e fa          	endbr64 
    6e7e:	55                   	push   %rbp
    6e7f:	48 89 e5             	mov    %rsp,%rbp
    6e82:	89 f8                	mov    %edi,%eax
    6e84:	89 75 f8             	mov    %esi,-0x8(%rbp)
    6e87:	66 89 45 fc          	mov    %ax,-0x4(%rbp)
    6e8b:	83 7d f8 1f          	cmpl   $0x1f,-0x8(%rbp)
    6e8f:	77 0f                	ja     6ea0 <safe_rshift_func_uint16_t_u_u+0x26>
    6e91:	0f b7 55 fc          	movzwl -0x4(%rbp),%edx
    6e95:	8b 45 f8             	mov    -0x8(%rbp),%eax
    6e98:	89 c1                	mov    %eax,%ecx
    6e9a:	d3 fa                	sar    %cl,%edx
    6e9c:	89 d0                	mov    %edx,%eax
    6e9e:	eb 04                	jmp    6ea4 <safe_rshift_func_uint16_t_u_u+0x2a>
    6ea0:	0f b7 45 fc          	movzwl -0x4(%rbp),%eax
    6ea4:	5d                   	pop    %rbp
    6ea5:	c3                   	retq   

0000000000006ea6 <safe_unary_minus_func_uint32_t_u>:
    6ea6:	f3 0f 1e fa          	endbr64 
    6eaa:	55                   	push   %rbp
    6eab:	48 89 e5             	mov    %rsp,%rbp
    6eae:	89 7d fc             	mov    %edi,-0x4(%rbp)
    6eb1:	8b 45 fc             	mov    -0x4(%rbp),%eax
    6eb4:	f7 d8                	neg    %eax
    6eb6:	5d                   	pop    %rbp
    6eb7:	c3                   	retq   

0000000000006eb8 <safe_add_func_uint32_t_u_u>:
    6eb8:	f3 0f 1e fa          	endbr64 
    6ebc:	55                   	push   %rbp
    6ebd:	48 89 e5             	mov    %rsp,%rbp
    6ec0:	89 7d fc             	mov    %edi,-0x4(%rbp)
    6ec3:	89 75 f8             	mov    %esi,-0x8(%rbp)
    6ec6:	8b 55 fc             	mov    -0x4(%rbp),%edx
    6ec9:	8b 45 f8             	mov    -0x8(%rbp),%eax
    6ecc:	01 d0                	add    %edx,%eax
    6ece:	5d                   	pop    %rbp
    6ecf:	c3                   	retq   

0000000000006ed0 <safe_sub_func_uint32_t_u_u>:
    6ed0:	f3 0f 1e fa          	endbr64 
    6ed4:	55                   	push   %rbp
    6ed5:	48 89 e5             	mov    %rsp,%rbp
    6ed8:	89 7d fc             	mov    %edi,-0x4(%rbp)
    6edb:	89 75 f8             	mov    %esi,-0x8(%rbp)
    6ede:	8b 45 fc             	mov    -0x4(%rbp),%eax
    6ee1:	2b 45 f8             	sub    -0x8(%rbp),%eax
    6ee4:	5d                   	pop    %rbp
    6ee5:	c3                   	retq   

0000000000006ee6 <safe_mul_func_uint32_t_u_u>:
    6ee6:	f3 0f 1e fa          	endbr64 
    6eea:	55                   	push   %rbp
    6eeb:	48 89 e5             	mov    %rsp,%rbp
    6eee:	89 7d fc             	mov    %edi,-0x4(%rbp)
    6ef1:	89 75 f8             	mov    %esi,-0x8(%rbp)
    6ef4:	8b 45 fc             	mov    -0x4(%rbp),%eax
    6ef7:	0f af 45 f8          	imul   -0x8(%rbp),%eax
    6efb:	5d                   	pop    %rbp
    6efc:	c3                   	retq   

0000000000006efd <safe_mod_func_uint32_t_u_u>:
    6efd:	f3 0f 1e fa          	endbr64 
    6f01:	55                   	push   %rbp
    6f02:	48 89 e5             	mov    %rsp,%rbp
    6f05:	89 7d fc             	mov    %edi,-0x4(%rbp)
    6f08:	89 75 f8             	mov    %esi,-0x8(%rbp)
    6f0b:	83 7d f8 00          	cmpl   $0x0,-0x8(%rbp)
    6f0f:	74 0f                	je     6f20 <safe_mod_func_uint32_t_u_u+0x23>
    6f11:	8b 45 fc             	mov    -0x4(%rbp),%eax
    6f14:	ba 00 00 00 00       	mov    $0x0,%edx
    6f19:	f7 75 f8             	divl   -0x8(%rbp)
    6f1c:	89 d0                	mov    %edx,%eax
    6f1e:	eb 03                	jmp    6f23 <safe_mod_func_uint32_t_u_u+0x26>
    6f20:	8b 45 fc             	mov    -0x4(%rbp),%eax
    6f23:	5d                   	pop    %rbp
    6f24:	c3                   	retq   

0000000000006f25 <safe_div_func_uint32_t_u_u>:
    6f25:	f3 0f 1e fa          	endbr64 
    6f29:	55                   	push   %rbp
    6f2a:	48 89 e5             	mov    %rsp,%rbp
    6f2d:	89 7d fc             	mov    %edi,-0x4(%rbp)
    6f30:	89 75 f8             	mov    %esi,-0x8(%rbp)
    6f33:	83 7d f8 00          	cmpl   $0x0,-0x8(%rbp)
    6f37:	74 0d                	je     6f46 <safe_div_func_uint32_t_u_u+0x21>
    6f39:	8b 45 fc             	mov    -0x4(%rbp),%eax
    6f3c:	ba 00 00 00 00       	mov    $0x0,%edx
    6f41:	f7 75 f8             	divl   -0x8(%rbp)
    6f44:	eb 03                	jmp    6f49 <safe_div_func_uint32_t_u_u+0x24>
    6f46:	8b 45 fc             	mov    -0x4(%rbp),%eax
    6f49:	5d                   	pop    %rbp
    6f4a:	c3                   	retq   

0000000000006f4b <safe_lshift_func_uint32_t_u_s>:
    6f4b:	f3 0f 1e fa          	endbr64 
    6f4f:	55                   	push   %rbp
    6f50:	48 89 e5             	mov    %rsp,%rbp
    6f53:	89 7d fc             	mov    %edi,-0x4(%rbp)
    6f56:	89 75 f8             	mov    %esi,-0x8(%rbp)
    6f59:	83 7d f8 00          	cmpl   $0x0,-0x8(%rbp)
    6f5d:	78 27                	js     6f86 <safe_lshift_func_uint32_t_u_s+0x3b>
    6f5f:	83 7d f8 1f          	cmpl   $0x1f,-0x8(%rbp)
    6f63:	7f 21                	jg     6f86 <safe_lshift_func_uint32_t_u_s+0x3b>
    6f65:	8b 45 f8             	mov    -0x8(%rbp),%eax
    6f68:	ba ff ff ff ff       	mov    $0xffffffff,%edx
    6f6d:	89 c1                	mov    %eax,%ecx
    6f6f:	d3 ea                	shr    %cl,%edx
    6f71:	89 d0                	mov    %edx,%eax
    6f73:	39 45 fc             	cmp    %eax,-0x4(%rbp)
    6f76:	77 0e                	ja     6f86 <safe_lshift_func_uint32_t_u_s+0x3b>
    6f78:	8b 45 f8             	mov    -0x8(%rbp),%eax
    6f7b:	8b 55 fc             	mov    -0x4(%rbp),%edx
    6f7e:	89 c1                	mov    %eax,%ecx
    6f80:	d3 e2                	shl    %cl,%edx
    6f82:	89 d0                	mov    %edx,%eax
    6f84:	eb 03                	jmp    6f89 <safe_lshift_func_uint32_t_u_s+0x3e>
    6f86:	8b 45 fc             	mov    -0x4(%rbp),%eax
    6f89:	5d                   	pop    %rbp
    6f8a:	c3                   	retq   

0000000000006f8b <safe_lshift_func_uint32_t_u_u>:
    6f8b:	f3 0f 1e fa          	endbr64 
    6f8f:	55                   	push   %rbp
    6f90:	48 89 e5             	mov    %rsp,%rbp
    6f93:	89 7d fc             	mov    %edi,-0x4(%rbp)
    6f96:	89 75 f8             	mov    %esi,-0x8(%rbp)
    6f99:	83 7d f8 1f          	cmpl   $0x1f,-0x8(%rbp)
    6f9d:	77 21                	ja     6fc0 <safe_lshift_func_uint32_t_u_u+0x35>
    6f9f:	8b 45 f8             	mov    -0x8(%rbp),%eax
    6fa2:	ba ff ff ff ff       	mov    $0xffffffff,%edx
    6fa7:	89 c1                	mov    %eax,%ecx
    6fa9:	d3 ea                	shr    %cl,%edx
    6fab:	89 d0                	mov    %edx,%eax
    6fad:	39 45 fc             	cmp    %eax,-0x4(%rbp)
    6fb0:	77 0e                	ja     6fc0 <safe_lshift_func_uint32_t_u_u+0x35>
    6fb2:	8b 45 f8             	mov    -0x8(%rbp),%eax
    6fb5:	8b 55 fc             	mov    -0x4(%rbp),%edx
    6fb8:	89 c1                	mov    %eax,%ecx
    6fba:	d3 e2                	shl    %cl,%edx
    6fbc:	89 d0                	mov    %edx,%eax
    6fbe:	eb 03                	jmp    6fc3 <safe_lshift_func_uint32_t_u_u+0x38>
    6fc0:	8b 45 fc             	mov    -0x4(%rbp),%eax
    6fc3:	5d                   	pop    %rbp
    6fc4:	c3                   	retq   

0000000000006fc5 <safe_rshift_func_uint32_t_u_s>:
    6fc5:	f3 0f 1e fa          	endbr64 
    6fc9:	55                   	push   %rbp
    6fca:	48 89 e5             	mov    %rsp,%rbp
    6fcd:	89 7d fc             	mov    %edi,-0x4(%rbp)
    6fd0:	89 75 f8             	mov    %esi,-0x8(%rbp)
    6fd3:	83 7d f8 00          	cmpl   $0x0,-0x8(%rbp)
    6fd7:	78 14                	js     6fed <safe_rshift_func_uint32_t_u_s+0x28>
    6fd9:	83 7d f8 1f          	cmpl   $0x1f,-0x8(%rbp)
    6fdd:	7f 0e                	jg     6fed <safe_rshift_func_uint32_t_u_s+0x28>
    6fdf:	8b 45 f8             	mov    -0x8(%rbp),%eax
    6fe2:	8b 55 fc             	mov    -0x4(%rbp),%edx
    6fe5:	89 c1                	mov    %eax,%ecx
    6fe7:	d3 ea                	shr    %cl,%edx
    6fe9:	89 d0                	mov    %edx,%eax
    6feb:	eb 03                	jmp    6ff0 <safe_rshift_func_uint32_t_u_s+0x2b>
    6fed:	8b 45 fc             	mov    -0x4(%rbp),%eax
    6ff0:	5d                   	pop    %rbp
    6ff1:	c3                   	retq   

0000000000006ff2 <safe_rshift_func_uint32_t_u_u>:
    6ff2:	f3 0f 1e fa          	endbr64 
    6ff6:	55                   	push   %rbp
    6ff7:	48 89 e5             	mov    %rsp,%rbp
    6ffa:	89 7d fc             	mov    %edi,-0x4(%rbp)
    6ffd:	89 75 f8             	mov    %esi,-0x8(%rbp)
    7000:	83 7d f8 1f          	cmpl   $0x1f,-0x8(%rbp)
    7004:	77 0e                	ja     7014 <safe_rshift_func_uint32_t_u_u+0x22>
    7006:	8b 45 f8             	mov    -0x8(%rbp),%eax
    7009:	8b 55 fc             	mov    -0x4(%rbp),%edx
    700c:	89 c1                	mov    %eax,%ecx
    700e:	d3 ea                	shr    %cl,%edx
    7010:	89 d0                	mov    %edx,%eax
    7012:	eb 03                	jmp    7017 <safe_rshift_func_uint32_t_u_u+0x25>
    7014:	8b 45 fc             	mov    -0x4(%rbp),%eax
    7017:	5d                   	pop    %rbp
    7018:	c3                   	retq   

0000000000007019 <safe_unary_minus_func_uint64_t_u>:
    7019:	f3 0f 1e fa          	endbr64 
    701d:	55                   	push   %rbp
    701e:	48 89 e5             	mov    %rsp,%rbp
    7021:	48 89 7d f8          	mov    %rdi,-0x8(%rbp)
    7025:	48 8b 45 f8          	mov    -0x8(%rbp),%rax
    7029:	48 f7 d8             	neg    %rax
    702c:	5d                   	pop    %rbp
    702d:	c3                   	retq   

000000000000702e <safe_add_func_uint64_t_u_u>:
    702e:	f3 0f 1e fa          	endbr64 
    7032:	55                   	push   %rbp
    7033:	48 89 e5             	mov    %rsp,%rbp
    7036:	48 89 7d f8          	mov    %rdi,-0x8(%rbp)
    703a:	48 89 75 f0          	mov    %rsi,-0x10(%rbp)
    703e:	48 8b 55 f8          	mov    -0x8(%rbp),%rdx
    7042:	48 8b 45 f0          	mov    -0x10(%rbp),%rax
    7046:	48 01 d0             	add    %rdx,%rax
    7049:	5d                   	pop    %rbp
    704a:	c3                   	retq   

000000000000704b <safe_sub_func_uint64_t_u_u>:
    704b:	f3 0f 1e fa          	endbr64 
    704f:	55                   	push   %rbp
    7050:	48 89 e5             	mov    %rsp,%rbp
    7053:	48 89 7d f8          	mov    %rdi,-0x8(%rbp)
    7057:	48 89 75 f0          	mov    %rsi,-0x10(%rbp)
    705b:	48 8b 45 f8          	mov    -0x8(%rbp),%rax
    705f:	48 2b 45 f0          	sub    -0x10(%rbp),%rax
    7063:	5d                   	pop    %rbp
    7064:	c3                   	retq   

0000000000007065 <safe_mul_func_uint64_t_u_u>:
    7065:	f3 0f 1e fa          	endbr64 
    7069:	55                   	push   %rbp
    706a:	48 89 e5             	mov    %rsp,%rbp
    706d:	48 89 7d f8          	mov    %rdi,-0x8(%rbp)
    7071:	48 89 75 f0          	mov    %rsi,-0x10(%rbp)
    7075:	48 8b 45 f8          	mov    -0x8(%rbp),%rax
    7079:	48 0f af 45 f0       	imul   -0x10(%rbp),%rax
    707e:	5d                   	pop    %rbp
    707f:	c3                   	retq   

0000000000007080 <safe_mod_func_uint64_t_u_u>:
    7080:	f3 0f 1e fa          	endbr64 
    7084:	55                   	push   %rbp
    7085:	48 89 e5             	mov    %rsp,%rbp
    7088:	48 89 7d f8          	mov    %rdi,-0x8(%rbp)
    708c:	48 89 75 f0          	mov    %rsi,-0x10(%rbp)
    7090:	48 83 7d f0 00       	cmpq   $0x0,-0x10(%rbp)
    7095:	74 12                	je     70a9 <safe_mod_func_uint64_t_u_u+0x29>
    7097:	48 8b 45 f8          	mov    -0x8(%rbp),%rax
    709b:	ba 00 00 00 00       	mov    $0x0,%edx
    70a0:	48 f7 75 f0          	divq   -0x10(%rbp)
    70a4:	48 89 d0             	mov    %rdx,%rax
    70a7:	eb 04                	jmp    70ad <safe_mod_func_uint64_t_u_u+0x2d>
    70a9:	48 8b 45 f8          	mov    -0x8(%rbp),%rax
    70ad:	5d                   	pop    %rbp
    70ae:	c3                   	retq   

00000000000070af <safe_div_func_uint64_t_u_u>:
    70af:	f3 0f 1e fa          	endbr64 
    70b3:	55                   	push   %rbp
    70b4:	48 89 e5             	mov    %rsp,%rbp
    70b7:	48 89 7d f8          	mov    %rdi,-0x8(%rbp)
    70bb:	48 89 75 f0          	mov    %rsi,-0x10(%rbp)
    70bf:	48 83 7d f0 00       	cmpq   $0x0,-0x10(%rbp)
    70c4:	74 0f                	je     70d5 <safe_div_func_uint64_t_u_u+0x26>
    70c6:	48 8b 45 f8          	mov    -0x8(%rbp),%rax
    70ca:	ba 00 00 00 00       	mov    $0x0,%edx
    70cf:	48 f7 75 f0          	divq   -0x10(%rbp)
    70d3:	eb 04                	jmp    70d9 <safe_div_func_uint64_t_u_u+0x2a>
    70d5:	48 8b 45 f8          	mov    -0x8(%rbp),%rax
    70d9:	5d                   	pop    %rbp
    70da:	c3                   	retq   

00000000000070db <safe_lshift_func_uint64_t_u_s>:
    70db:	f3 0f 1e fa          	endbr64 
    70df:	55                   	push   %rbp
    70e0:	48 89 e5             	mov    %rsp,%rbp
    70e3:	48 89 7d f8          	mov    %rdi,-0x8(%rbp)
    70e7:	89 75 f4             	mov    %esi,-0xc(%rbp)
    70ea:	83 7d f4 00          	cmpl   $0x0,-0xc(%rbp)
    70ee:	78 2f                	js     711f <safe_lshift_func_uint64_t_u_s+0x44>
    70f0:	83 7d f4 1f          	cmpl   $0x1f,-0xc(%rbp)
    70f4:	7f 29                	jg     711f <safe_lshift_func_uint64_t_u_s+0x44>
    70f6:	8b 45 f4             	mov    -0xc(%rbp),%eax
    70f9:	48 c7 c2 ff ff ff ff 	mov    $0xffffffffffffffff,%rdx
    7100:	89 c1                	mov    %eax,%ecx
    7102:	48 d3 ea             	shr    %cl,%rdx
    7105:	48 89 d0             	mov    %rdx,%rax
    7108:	48 39 45 f8          	cmp    %rax,-0x8(%rbp)
    710c:	77 11                	ja     711f <safe_lshift_func_uint64_t_u_s+0x44>
    710e:	8b 45 f4             	mov    -0xc(%rbp),%eax
    7111:	48 8b 55 f8          	mov    -0x8(%rbp),%rdx
    7115:	89 c1                	mov    %eax,%ecx
    7117:	48 d3 e2             	shl    %cl,%rdx
    711a:	48 89 d0             	mov    %rdx,%rax
    711d:	eb 04                	jmp    7123 <safe_lshift_func_uint64_t_u_s+0x48>
    711f:	48 8b 45 f8          	mov    -0x8(%rbp),%rax
    7123:	5d                   	pop    %rbp
    7124:	c3                   	retq   

0000000000007125 <safe_lshift_func_uint64_t_u_u>:
    7125:	f3 0f 1e fa          	endbr64 
    7129:	55                   	push   %rbp
    712a:	48 89 e5             	mov    %rsp,%rbp
    712d:	48 89 7d f8          	mov    %rdi,-0x8(%rbp)
    7131:	89 75 f4             	mov    %esi,-0xc(%rbp)
    7134:	83 7d f4 1f          	cmpl   $0x1f,-0xc(%rbp)
    7138:	77 29                	ja     7163 <safe_lshift_func_uint64_t_u_u+0x3e>
    713a:	8b 45 f4             	mov    -0xc(%rbp),%eax
    713d:	48 c7 c2 ff ff ff ff 	mov    $0xffffffffffffffff,%rdx
    7144:	89 c1                	mov    %eax,%ecx
    7146:	48 d3 ea             	shr    %cl,%rdx
    7149:	48 89 d0             	mov    %rdx,%rax
    714c:	48 39 45 f8          	cmp    %rax,-0x8(%rbp)
    7150:	77 11                	ja     7163 <safe_lshift_func_uint64_t_u_u+0x3e>
    7152:	8b 45 f4             	mov    -0xc(%rbp),%eax
    7155:	48 8b 55 f8          	mov    -0x8(%rbp),%rdx
    7159:	89 c1                	mov    %eax,%ecx
    715b:	48 d3 e2             	shl    %cl,%rdx
    715e:	48 89 d0             	mov    %rdx,%rax
    7161:	eb 04                	jmp    7167 <safe_lshift_func_uint64_t_u_u+0x42>
    7163:	48 8b 45 f8          	mov    -0x8(%rbp),%rax
    7167:	5d                   	pop    %rbp
    7168:	c3                   	retq   

0000000000007169 <safe_rshift_func_uint64_t_u_s>:
    7169:	f3 0f 1e fa          	endbr64 
    716d:	55                   	push   %rbp
    716e:	48 89 e5             	mov    %rsp,%rbp
    7171:	48 89 7d f8          	mov    %rdi,-0x8(%rbp)
    7175:	89 75 f4             	mov    %esi,-0xc(%rbp)
    7178:	83 7d f4 00          	cmpl   $0x0,-0xc(%rbp)
    717c:	78 17                	js     7195 <safe_rshift_func_uint64_t_u_s+0x2c>
    717e:	83 7d f4 1f          	cmpl   $0x1f,-0xc(%rbp)
    7182:	7f 11                	jg     7195 <safe_rshift_func_uint64_t_u_s+0x2c>
    7184:	8b 45 f4             	mov    -0xc(%rbp),%eax
    7187:	48 8b 55 f8          	mov    -0x8(%rbp),%rdx
    718b:	89 c1                	mov    %eax,%ecx
    718d:	48 d3 ea             	shr    %cl,%rdx
    7190:	48 89 d0             	mov    %rdx,%rax
    7193:	eb 04                	jmp    7199 <safe_rshift_func_uint64_t_u_s+0x30>
    7195:	48 8b 45 f8          	mov    -0x8(%rbp),%rax
    7199:	5d                   	pop    %rbp
    719a:	c3                   	retq   

000000000000719b <safe_rshift_func_uint64_t_u_u>:
    719b:	f3 0f 1e fa          	endbr64 
    719f:	55                   	push   %rbp
    71a0:	48 89 e5             	mov    %rsp,%rbp
    71a3:	48 89 7d f8          	mov    %rdi,-0x8(%rbp)
    71a7:	89 75 f4             	mov    %esi,-0xc(%rbp)
    71aa:	83 7d f4 1f          	cmpl   $0x1f,-0xc(%rbp)
    71ae:	77 11                	ja     71c1 <safe_rshift_func_uint64_t_u_u+0x26>
    71b0:	8b 45 f4             	mov    -0xc(%rbp),%eax
    71b3:	48 8b 55 f8          	mov    -0x8(%rbp),%rdx
    71b7:	89 c1                	mov    %eax,%ecx
    71b9:	48 d3 ea             	shr    %cl,%rdx
    71bc:	48 89 d0             	mov    %rdx,%rax
    71bf:	eb 04                	jmp    71c5 <safe_rshift_func_uint64_t_u_u+0x2a>
    71c1:	48 8b 45 f8          	mov    -0x8(%rbp),%rax
    71c5:	5d                   	pop    %rbp
    71c6:	c3                   	retq   

00000000000071c7 <safe_add_func_float_f_f>:
    71c7:	f3 0f 1e fa          	endbr64 
    71cb:	55                   	push   %rbp
    71cc:	48 89 e5             	mov    %rsp,%rbp
    71cf:	f3 0f 11 45 fc       	movss  %xmm0,-0x4(%rbp)
    71d4:	f3 0f 11 4d f8       	movss  %xmm1,-0x8(%rbp)
    71d9:	f3 0f 10 4d fc       	movss  -0x4(%rbp),%xmm1
    71de:	f3 0f 10 05 16 f9 00 	movss  0xf916(%rip),%xmm0        # 16afc <l_1004.4820+0xc>
    71e5:	00 
    71e6:	f3 0f 59 c8          	mulss  %xmm0,%xmm1
    71ea:	f3 0f 10 55 f8       	movss  -0x8(%rbp),%xmm2
    71ef:	f3 0f 10 05 05 f9 00 	movss  0xf905(%rip),%xmm0        # 16afc <l_1004.4820+0xc>
    71f6:	00 
    71f7:	f3 0f 59 c2          	mulss  %xmm2,%xmm0
    71fb:	f3 0f 58 c1          	addss  %xmm1,%xmm0
    71ff:	f3 0f 10 0d f9 f8 00 	movss  0xf8f9(%rip),%xmm1        # 16b00 <l_1004.4820+0x10>
    7206:	00 
    7207:	0f 54 c1             	andps  %xmm1,%xmm0
    720a:	0f 2f 05 ff f8 00 00 	comiss 0xf8ff(%rip),%xmm0        # 16b10 <l_1004.4820+0x20>
    7211:	76 07                	jbe    721a <safe_add_func_float_f_f+0x53>
    7213:	f3 0f 10 45 fc       	movss  -0x4(%rbp),%xmm0
    7218:	eb 0a                	jmp    7224 <safe_add_func_float_f_f+0x5d>
    721a:	f3 0f 10 45 fc       	movss  -0x4(%rbp),%xmm0
    721f:	f3 0f 58 45 f8       	addss  -0x8(%rbp),%xmm0
    7224:	5d                   	pop    %rbp
    7225:	c3                   	retq   

0000000000007226 <safe_sub_func_float_f_f>:
    7226:	f3 0f 1e fa          	endbr64 
    722a:	55                   	push   %rbp
    722b:	48 89 e5             	mov    %rsp,%rbp
    722e:	f3 0f 11 45 fc       	movss  %xmm0,-0x4(%rbp)
    7233:	f3 0f 11 4d f8       	movss  %xmm1,-0x8(%rbp)
    7238:	f3 0f 10 4d fc       	movss  -0x4(%rbp),%xmm1
    723d:	f3 0f 10 05 b7 f8 00 	movss  0xf8b7(%rip),%xmm0        # 16afc <l_1004.4820+0xc>
    7244:	00 
    7245:	f3 0f 59 c1          	mulss  %xmm1,%xmm0
    7249:	f3 0f 10 55 f8       	movss  -0x8(%rbp),%xmm2
    724e:	f3 0f 10 0d a6 f8 00 	movss  0xf8a6(%rip),%xmm1        # 16afc <l_1004.4820+0xc>
    7255:	00 
    7256:	f3 0f 59 ca          	mulss  %xmm2,%xmm1
    725a:	f3 0f 5c c1          	subss  %xmm1,%xmm0
    725e:	f3 0f 10 0d 9a f8 00 	movss  0xf89a(%rip),%xmm1        # 16b00 <l_1004.4820+0x10>
    7265:	00 
    7266:	0f 54 c1             	andps  %xmm1,%xmm0
    7269:	0f 2f 05 a0 f8 00 00 	comiss 0xf8a0(%rip),%xmm0        # 16b10 <l_1004.4820+0x20>
    7270:	76 07                	jbe    7279 <safe_sub_func_float_f_f+0x53>
    7272:	f3 0f 10 45 fc       	movss  -0x4(%rbp),%xmm0
    7277:	eb 0a                	jmp    7283 <safe_sub_func_float_f_f+0x5d>
    7279:	f3 0f 10 45 fc       	movss  -0x4(%rbp),%xmm0
    727e:	f3 0f 5c 45 f8       	subss  -0x8(%rbp),%xmm0
    7283:	5d                   	pop    %rbp
    7284:	c3                   	retq   

0000000000007285 <safe_mul_func_float_f_f>:
    7285:	f3 0f 1e fa          	endbr64 
    7289:	55                   	push   %rbp
    728a:	48 89 e5             	mov    %rsp,%rbp
    728d:	f3 0f 11 45 fc       	movss  %xmm0,-0x4(%rbp)
    7292:	f3 0f 11 4d f8       	movss  %xmm1,-0x8(%rbp)
    7297:	f3 0f 10 4d fc       	movss  -0x4(%rbp),%xmm1
    729c:	f3 0f 10 05 70 f8 00 	movss  0xf870(%rip),%xmm0        # 16b14 <l_1004.4820+0x24>
    72a3:	00 
    72a4:	f3 0f 59 c8          	mulss  %xmm0,%xmm1
    72a8:	f3 0f 10 55 f8       	movss  -0x8(%rbp),%xmm2
    72ad:	f3 0f 10 05 63 f8 00 	movss  0xf863(%rip),%xmm0        # 16b18 <l_1004.4820+0x28>
    72b4:	00 
    72b5:	f3 0f 59 c2          	mulss  %xmm2,%xmm0
    72b9:	f3 0f 59 c1          	mulss  %xmm1,%xmm0
    72bd:	f3 0f 10 0d 3b f8 00 	movss  0xf83b(%rip),%xmm1        # 16b00 <l_1004.4820+0x10>
    72c4:	00 
    72c5:	0f 54 c1             	andps  %xmm1,%xmm0
    72c8:	0f 2f 05 4d f8 00 00 	comiss 0xf84d(%rip),%xmm0        # 16b1c <l_1004.4820+0x2c>
    72cf:	76 07                	jbe    72d8 <safe_mul_func_float_f_f+0x53>
    72d1:	f3 0f 10 45 fc       	movss  -0x4(%rbp),%xmm0
    72d6:	eb 0a                	jmp    72e2 <safe_mul_func_float_f_f+0x5d>
    72d8:	f3 0f 10 45 fc       	movss  -0x4(%rbp),%xmm0
    72dd:	f3 0f 59 45 f8       	mulss  -0x8(%rbp),%xmm0
    72e2:	5d                   	pop    %rbp
    72e3:	c3                   	retq   

00000000000072e4 <safe_div_func_float_f_f>:
    72e4:	f3 0f 1e fa          	endbr64 
    72e8:	55                   	push   %rbp
    72e9:	48 89 e5             	mov    %rsp,%rbp
    72ec:	f3 0f 11 45 fc       	movss  %xmm0,-0x4(%rbp)
    72f1:	f3 0f 11 4d f8       	movss  %xmm1,-0x8(%rbp)
    72f6:	f3 0f 10 45 f8       	movss  -0x8(%rbp),%xmm0
    72fb:	f3 0f 10 0d fd f7 00 	movss  0xf7fd(%rip),%xmm1        # 16b00 <l_1004.4820+0x10>
    7302:	00 
    7303:	0f 54 c8             	andps  %xmm0,%xmm1
    7306:	f3 0f 10 05 12 f8 00 	movss  0xf812(%rip),%xmm0        # 16b20 <l_1004.4820+0x30>
    730d:	00 
    730e:	0f 2f c1             	comiss %xmm1,%xmm0
    7311:	0f 97 c0             	seta   %al
    7314:	83 f0 01             	xor    $0x1,%eax
    7317:	84 c0                	test   %al,%al
    7319:	75 56                	jne    7371 <safe_div_func_float_f_f+0x8d>
    731b:	66 0f ef c0          	pxor   %xmm0,%xmm0
    731f:	0f 2e 45 f8          	ucomiss -0x8(%rbp),%xmm0
    7323:	7a 0a                	jp     732f <safe_div_func_float_f_f+0x4b>
    7325:	66 0f ef c0          	pxor   %xmm0,%xmm0
    7329:	0f 2e 45 f8          	ucomiss -0x8(%rbp),%xmm0
    732d:	74 4e                	je     737d <safe_div_func_float_f_f+0x99>
    732f:	f3 0f 10 4d fc       	movss  -0x4(%rbp),%xmm1
    7334:	f3 0f 10 05 e8 f7 00 	movss  0xf7e8(%rip),%xmm0        # 16b24 <l_1004.4820+0x34>
    733b:	00 
    733c:	f3 0f 59 c1          	mulss  %xmm1,%xmm0
    7340:	f3 0f 10 55 f8       	movss  -0x8(%rbp),%xmm2
    7345:	f3 0f 10 0d db f7 00 	movss  0xf7db(%rip),%xmm1        # 16b28 <l_1004.4820+0x38>
    734c:	00 
    734d:	f3 0f 59 ca          	mulss  %xmm2,%xmm1
    7351:	f3 0f 5e c1          	divss  %xmm1,%xmm0
    7355:	f3 0f 10 0d a3 f7 00 	movss  0xf7a3(%rip),%xmm1        # 16b00 <l_1004.4820+0x10>
    735c:	00 
    735d:	0f 54 c1             	andps  %xmm1,%xmm0
    7360:	0f 2f 05 c5 f7 00 00 	comiss 0xf7c5(%rip),%xmm0        # 16b2c <l_1004.4820+0x3c>
    7367:	0f 97 c0             	seta   %al
    736a:	83 f0 01             	xor    $0x1,%eax
    736d:	84 c0                	test   %al,%al
    736f:	74 0c                	je     737d <safe_div_func_float_f_f+0x99>
    7371:	f3 0f 10 45 fc       	movss  -0x4(%rbp),%xmm0
    7376:	f3 0f 5e 45 f8       	divss  -0x8(%rbp),%xmm0
    737b:	eb 05                	jmp    7382 <safe_div_func_float_f_f+0x9e>
    737d:	f3 0f 10 45 fc       	movss  -0x4(%rbp),%xmm0
    7382:	5d                   	pop    %rbp
    7383:	c3                   	retq   

0000000000007384 <safe_add_func_double_f_f>:
    7384:	f3 0f 1e fa          	endbr64 
    7388:	55                   	push   %rbp
    7389:	48 89 e5             	mov    %rsp,%rbp
    738c:	f2 0f 11 45 f8       	movsd  %xmm0,-0x8(%rbp)
    7391:	f2 0f 11 4d f0       	movsd  %xmm1,-0x10(%rbp)
    7396:	f2 0f 10 4d f8       	movsd  -0x8(%rbp),%xmm1
    739b:	f2 0f 10 05 8d f7 00 	movsd  0xf78d(%rip),%xmm0        # 16b30 <l_1004.4820+0x40>
    73a2:	00 
    73a3:	f2 0f 59 c8          	mulsd  %xmm0,%xmm1
    73a7:	f2 0f 10 55 f0       	movsd  -0x10(%rbp),%xmm2
    73ac:	f2 0f 10 05 7c f7 00 	movsd  0xf77c(%rip),%xmm0        # 16b30 <l_1004.4820+0x40>
    73b3:	00 
    73b4:	f2 0f 59 c2          	mulsd  %xmm2,%xmm0
    73b8:	f2 0f 58 c1          	addsd  %xmm1,%xmm0
    73bc:	f3 0f 7e 0d 7c f7 00 	movq   0xf77c(%rip),%xmm1        # 16b40 <l_1004.4820+0x50>
    73c3:	00 
    73c4:	66 0f 54 c1          	andpd  %xmm1,%xmm0
    73c8:	66 0f 2f 05 80 f7 00 	comisd 0xf780(%rip),%xmm0        # 16b50 <l_1004.4820+0x60>
    73cf:	00 
    73d0:	76 07                	jbe    73d9 <safe_add_func_double_f_f+0x55>
    73d2:	f2 0f 10 45 f8       	movsd  -0x8(%rbp),%xmm0
    73d7:	eb 0a                	jmp    73e3 <safe_add_func_double_f_f+0x5f>
    73d9:	f2 0f 10 45 f8       	movsd  -0x8(%rbp),%xmm0
    73de:	f2 0f 58 45 f0       	addsd  -0x10(%rbp),%xmm0
    73e3:	5d                   	pop    %rbp
    73e4:	c3                   	retq   

00000000000073e5 <safe_sub_func_double_f_f>:
    73e5:	f3 0f 1e fa          	endbr64 
    73e9:	55                   	push   %rbp
    73ea:	48 89 e5             	mov    %rsp,%rbp
    73ed:	f2 0f 11 45 f8       	movsd  %xmm0,-0x8(%rbp)
    73f2:	f2 0f 11 4d f0       	movsd  %xmm1,-0x10(%rbp)
    73f7:	f2 0f 10 4d f8       	movsd  -0x8(%rbp),%xmm1
    73fc:	f2 0f 10 05 2c f7 00 	movsd  0xf72c(%rip),%xmm0        # 16b30 <l_1004.4820+0x40>
    7403:	00 
    7404:	f2 0f 59 c1          	mulsd  %xmm1,%xmm0
    7408:	f2 0f 10 55 f0       	movsd  -0x10(%rbp),%xmm2
    740d:	f2 0f 10 0d 1b f7 00 	movsd  0xf71b(%rip),%xmm1        # 16b30 <l_1004.4820+0x40>
    7414:	00 
    7415:	f2 0f 59 ca          	mulsd  %xmm2,%xmm1
    7419:	f2 0f 5c c1          	subsd  %xmm1,%xmm0
    741d:	f3 0f 7e 0d 1b f7 00 	movq   0xf71b(%rip),%xmm1        # 16b40 <l_1004.4820+0x50>
    7424:	00 
    7425:	66 0f 54 c1          	andpd  %xmm1,%xmm0
    7429:	66 0f 2f 05 1f f7 00 	comisd 0xf71f(%rip),%xmm0        # 16b50 <l_1004.4820+0x60>
    7430:	00 
    7431:	76 07                	jbe    743a <safe_sub_func_double_f_f+0x55>
    7433:	f2 0f 10 45 f8       	movsd  -0x8(%rbp),%xmm0
    7438:	eb 0a                	jmp    7444 <safe_sub_func_double_f_f+0x5f>
    743a:	f2 0f 10 45 f8       	movsd  -0x8(%rbp),%xmm0
    743f:	f2 0f 5c 45 f0       	subsd  -0x10(%rbp),%xmm0
    7444:	5d                   	pop    %rbp
    7445:	c3                   	retq   

0000000000007446 <safe_mul_func_double_f_f>:
    7446:	f3 0f 1e fa          	endbr64 
    744a:	55                   	push   %rbp
    744b:	48 89 e5             	mov    %rsp,%rbp
    744e:	f2 0f 11 45 f8       	movsd  %xmm0,-0x8(%rbp)
    7453:	f2 0f 11 4d f0       	movsd  %xmm1,-0x10(%rbp)
    7458:	f2 0f 10 4d f8       	movsd  -0x8(%rbp),%xmm1
    745d:	f2 0f 10 05 f3 f6 00 	movsd  0xf6f3(%rip),%xmm0        # 16b58 <l_1004.4820+0x68>
    7464:	00 
    7465:	f2 0f 59 c8          	mulsd  %xmm0,%xmm1
    7469:	f2 0f 10 55 f0       	movsd  -0x10(%rbp),%xmm2
    746e:	f2 0f 10 05 ea f6 00 	movsd  0xf6ea(%rip),%xmm0        # 16b60 <l_1004.4820+0x70>
    7475:	00 
    7476:	f2 0f 59 c2          	mulsd  %xmm2,%xmm0
    747a:	f2 0f 59 c1          	mulsd  %xmm1,%xmm0
    747e:	f3 0f 7e 0d ba f6 00 	movq   0xf6ba(%rip),%xmm1        # 16b40 <l_1004.4820+0x50>
    7485:	00 
    7486:	66 0f 54 c1          	andpd  %xmm1,%xmm0
    748a:	66 0f 2f 05 d6 f6 00 	comisd 0xf6d6(%rip),%xmm0        # 16b68 <l_1004.4820+0x78>
    7491:	00 
    7492:	76 07                	jbe    749b <safe_mul_func_double_f_f+0x55>
    7494:	f2 0f 10 45 f8       	movsd  -0x8(%rbp),%xmm0
    7499:	eb 0a                	jmp    74a5 <safe_mul_func_double_f_f+0x5f>
    749b:	f2 0f 10 45 f8       	movsd  -0x8(%rbp),%xmm0
    74a0:	f2 0f 59 45 f0       	mulsd  -0x10(%rbp),%xmm0
    74a5:	5d                   	pop    %rbp
    74a6:	c3                   	retq   

00000000000074a7 <safe_div_func_double_f_f>:
    74a7:	f3 0f 1e fa          	endbr64 
    74ab:	55                   	push   %rbp
    74ac:	48 89 e5             	mov    %rsp,%rbp
    74af:	f2 0f 11 45 f8       	movsd  %xmm0,-0x8(%rbp)
    74b4:	f2 0f 11 4d f0       	movsd  %xmm1,-0x10(%rbp)
    74b9:	f2 0f 10 45 f0       	movsd  -0x10(%rbp),%xmm0
    74be:	f3 0f 7e 0d 7a f6 00 	movq   0xf67a(%rip),%xmm1        # 16b40 <l_1004.4820+0x50>
    74c5:	00 
    74c6:	66 0f 54 c8          	andpd  %xmm0,%xmm1
    74ca:	f2 0f 10 05 9e f6 00 	movsd  0xf69e(%rip),%xmm0        # 16b70 <l_1004.4820+0x80>
    74d1:	00 
    74d2:	66 0f 2f c1          	comisd %xmm1,%xmm0
    74d6:	0f 97 c0             	seta   %al
    74d9:	83 f0 01             	xor    $0x1,%eax
    74dc:	84 c0                	test   %al,%al
    74de:	75 5a                	jne    753a <safe_div_func_double_f_f+0x93>
    74e0:	66 0f ef c0          	pxor   %xmm0,%xmm0
    74e4:	66 0f 2e 45 f0       	ucomisd -0x10(%rbp),%xmm0
    74e9:	7a 0b                	jp     74f6 <safe_div_func_double_f_f+0x4f>
    74eb:	66 0f ef c0          	pxor   %xmm0,%xmm0
    74ef:	66 0f 2e 45 f0       	ucomisd -0x10(%rbp),%xmm0
    74f4:	74 50                	je     7546 <safe_div_func_double_f_f+0x9f>
    74f6:	f2 0f 10 4d f8       	movsd  -0x8(%rbp),%xmm1
    74fb:	f2 0f 10 05 75 f6 00 	movsd  0xf675(%rip),%xmm0        # 16b78 <l_1004.4820+0x88>
    7502:	00 
    7503:	f2 0f 59 c1          	mulsd  %xmm1,%xmm0
    7507:	f2 0f 10 55 f0       	movsd  -0x10(%rbp),%xmm2
    750c:	f2 0f 10 0d 6c f6 00 	movsd  0xf66c(%rip),%xmm1        # 16b80 <l_1004.4820+0x90>
    7513:	00 
    7514:	f2 0f 59 ca          	mulsd  %xmm2,%xmm1
    7518:	f2 0f 5e c1          	divsd  %xmm1,%xmm0
    751c:	f3 0f 7e 0d 1c f6 00 	movq   0xf61c(%rip),%xmm1        # 16b40 <l_1004.4820+0x50>
    7523:	00 
    7524:	66 0f 54 c1          	andpd  %xmm1,%xmm0
    7528:	66 0f 2f 05 58 f6 00 	comisd 0xf658(%rip),%xmm0        # 16b88 <l_1004.4820+0x98>
    752f:	00 
    7530:	0f 97 c0             	seta   %al
    7533:	83 f0 01             	xor    $0x1,%eax
    7536:	84 c0                	test   %al,%al
    7538:	74 0c                	je     7546 <safe_div_func_double_f_f+0x9f>
    753a:	f2 0f 10 45 f8       	movsd  -0x8(%rbp),%xmm0
    753f:	f2 0f 5e 45 f0       	divsd  -0x10(%rbp),%xmm0
    7544:	eb 05                	jmp    754b <safe_div_func_double_f_f+0xa4>
    7546:	f2 0f 10 45 f8       	movsd  -0x8(%rbp),%xmm0
    754b:	5d                   	pop    %rbp
    754c:	c3                   	retq   

000000000000754d <safe_convert_func_float_to_int32_t>:
    754d:	f3 0f 1e fa          	endbr64 
    7551:	55                   	push   %rbp
    7552:	48 89 e5             	mov    %rsp,%rbp
    7555:	f3 0f 11 45 fc       	movss  %xmm0,-0x4(%rbp)
    755a:	f3 0f 10 05 2e f6 00 	movss  0xf62e(%rip),%xmm0        # 16b90 <l_1004.4820+0xa0>
    7561:	00 
    7562:	0f 2f 45 fc          	comiss -0x4(%rbp),%xmm0
    7566:	0f 93 c0             	setae  %al
    7569:	83 f0 01             	xor    $0x1,%eax
    756c:	84 c0                	test   %al,%al
    756e:	74 21                	je     7591 <safe_convert_func_float_to_int32_t+0x44>
    7570:	f3 0f 10 45 fc       	movss  -0x4(%rbp),%xmm0
    7575:	0f 2f 05 18 f6 00 00 	comiss 0xf618(%rip),%xmm0        # 16b94 <l_1004.4820+0xa4>
    757c:	0f 93 c0             	setae  %al
    757f:	83 f0 01             	xor    $0x1,%eax
    7582:	84 c0                	test   %al,%al
    7584:	74 0b                	je     7591 <safe_convert_func_float_to_int32_t+0x44>
    7586:	f3 0f 10 45 fc       	movss  -0x4(%rbp),%xmm0
    758b:	f3 0f 2c c0          	cvttss2si %xmm0,%eax
    758f:	eb 05                	jmp    7596 <safe_convert_func_float_to_int32_t+0x49>
    7591:	b8 ff ff ff 7f       	mov    $0x7fffffff,%eax
    7596:	5d                   	pop    %rbp
    7597:	c3                   	retq   

0000000000007598 <crc32_gentab>:
    7598:	f3 0f 1e fa          	endbr64 
    759c:	55                   	push   %rbp
    759d:	48 89 e5             	mov    %rsp,%rbp
    75a0:	c7 45 fc 20 83 b8 ed 	movl   $0xedb88320,-0x4(%rbp)
    75a7:	c7 45 f4 00 00 00 00 	movl   $0x0,-0xc(%rbp)
    75ae:	eb 51                	jmp    7601 <crc32_gentab+0x69>
    75b0:	8b 45 f4             	mov    -0xc(%rbp),%eax
    75b3:	89 45 f0             	mov    %eax,-0x10(%rbp)
    75b6:	c7 45 f8 08 00 00 00 	movl   $0x8,-0x8(%rbp)
    75bd:	eb 1e                	jmp    75dd <crc32_gentab+0x45>
    75bf:	8b 45 f0             	mov    -0x10(%rbp),%eax
    75c2:	83 e0 01             	and    $0x1,%eax
    75c5:	85 c0                	test   %eax,%eax
    75c7:	74 0d                	je     75d6 <crc32_gentab+0x3e>
    75c9:	8b 45 f0             	mov    -0x10(%rbp),%eax
    75cc:	d1 e8                	shr    %eax
    75ce:	33 45 fc             	xor    -0x4(%rbp),%eax
    75d1:	89 45 f0             	mov    %eax,-0x10(%rbp)
    75d4:	eb 03                	jmp    75d9 <crc32_gentab+0x41>
    75d6:	d1 6d f0             	shrl   -0x10(%rbp)
    75d9:	83 6d f8 01          	subl   $0x1,-0x8(%rbp)
    75dd:	83 7d f8 00          	cmpl   $0x0,-0x8(%rbp)
    75e1:	7f dc                	jg     75bf <crc32_gentab+0x27>
    75e3:	8b 45 f4             	mov    -0xc(%rbp),%eax
    75e6:	48 98                	cltq   
    75e8:	48 8d 0c 85 00 00 00 	lea    0x0(,%rax,4),%rcx
    75ef:	00 
    75f0:	48 8d 15 69 51 01 00 	lea    0x15169(%rip),%rdx        # 1c760 <crc32_tab>
    75f7:	8b 45 f0             	mov    -0x10(%rbp),%eax
    75fa:	89 04 11             	mov    %eax,(%rcx,%rdx,1)
    75fd:	83 45 f4 01          	addl   $0x1,-0xc(%rbp)
    7601:	81 7d f4 ff 00 00 00 	cmpl   $0xff,-0xc(%rbp)
    7608:	7e a6                	jle    75b0 <crc32_gentab+0x18>
    760a:	90                   	nop
    760b:	90                   	nop
    760c:	5d                   	pop    %rbp
    760d:	c3                   	retq   

000000000000760e <crc32_byte>:
    760e:	f3 0f 1e fa          	endbr64 
    7612:	55                   	push   %rbp
    7613:	48 89 e5             	mov    %rsp,%rbp
    7616:	89 f8                	mov    %edi,%eax
    7618:	88 45 fc             	mov    %al,-0x4(%rbp)
    761b:	8b 05 ff 29 01 00    	mov    0x129ff(%rip),%eax        # 1a020 <crc32_context>
    7621:	c1 e8 08             	shr    $0x8,%eax
    7624:	89 c1                	mov    %eax,%ecx
    7626:	0f b6 55 fc          	movzbl -0x4(%rbp),%edx
    762a:	8b 05 f0 29 01 00    	mov    0x129f0(%rip),%eax        # 1a020 <crc32_context>
    7630:	31 d0                	xor    %edx,%eax
    7632:	0f b6 c0             	movzbl %al,%eax
    7635:	89 c0                	mov    %eax,%eax
    7637:	48 8d 14 85 00 00 00 	lea    0x0(,%rax,4),%rdx
    763e:	00 
    763f:	48 8d 05 1a 51 01 00 	lea    0x1511a(%rip),%rax        # 1c760 <crc32_tab>
    7646:	8b 04 02             	mov    (%rdx,%rax,1),%eax
    7649:	31 c8                	xor    %ecx,%eax
    764b:	89 05 cf 29 01 00    	mov    %eax,0x129cf(%rip)        # 1a020 <crc32_context>
    7651:	90                   	nop
    7652:	5d                   	pop    %rbp
    7653:	c3                   	retq   

0000000000007654 <crc32_8bytes>:
    7654:	f3 0f 1e fa          	endbr64 
    7658:	55                   	push   %rbp
    7659:	48 89 e5             	mov    %rsp,%rbp
    765c:	48 83 ec 08          	sub    $0x8,%rsp
    7660:	48 89 7d f8          	mov    %rdi,-0x8(%rbp)
    7664:	48 8b 45 f8          	mov    -0x8(%rbp),%rax
    7668:	0f b6 c0             	movzbl %al,%eax
    766b:	89 c7                	mov    %eax,%edi
    766d:	e8 9c ff ff ff       	callq  760e <crc32_byte>
    7672:	48 8b 45 f8          	mov    -0x8(%rbp),%rax
    7676:	48 c1 e8 08          	shr    $0x8,%rax
    767a:	0f b6 c0             	movzbl %al,%eax
    767d:	89 c7                	mov    %eax,%edi
    767f:	e8 8a ff ff ff       	callq  760e <crc32_byte>
    7684:	48 8b 45 f8          	mov    -0x8(%rbp),%rax
    7688:	48 c1 e8 10          	shr    $0x10,%rax
    768c:	0f b6 c0             	movzbl %al,%eax
    768f:	89 c7                	mov    %eax,%edi
    7691:	e8 78 ff ff ff       	callq  760e <crc32_byte>
    7696:	48 8b 45 f8          	mov    -0x8(%rbp),%rax
    769a:	48 c1 e8 18          	shr    $0x18,%rax
    769e:	0f b6 c0             	movzbl %al,%eax
    76a1:	89 c7                	mov    %eax,%edi
    76a3:	e8 66 ff ff ff       	callq  760e <crc32_byte>
    76a8:	48 8b 45 f8          	mov    -0x8(%rbp),%rax
    76ac:	48 c1 e8 20          	shr    $0x20,%rax
    76b0:	0f b6 c0             	movzbl %al,%eax
    76b3:	89 c7                	mov    %eax,%edi
    76b5:	e8 54 ff ff ff       	callq  760e <crc32_byte>
    76ba:	48 8b 45 f8          	mov    -0x8(%rbp),%rax
    76be:	48 c1 e8 28          	shr    $0x28,%rax
    76c2:	0f b6 c0             	movzbl %al,%eax
    76c5:	89 c7                	mov    %eax,%edi
    76c7:	e8 42 ff ff ff       	callq  760e <crc32_byte>
    76cc:	48 8b 45 f8          	mov    -0x8(%rbp),%rax
    76d0:	48 c1 e8 30          	shr    $0x30,%rax
    76d4:	0f b6 c0             	movzbl %al,%eax
    76d7:	89 c7                	mov    %eax,%edi
    76d9:	e8 30 ff ff ff       	callq  760e <crc32_byte>
    76de:	48 8b 45 f8          	mov    -0x8(%rbp),%rax
    76e2:	48 c1 e8 38          	shr    $0x38,%rax
    76e6:	0f b6 c0             	movzbl %al,%eax
    76e9:	89 c7                	mov    %eax,%edi
    76eb:	e8 1e ff ff ff       	callq  760e <crc32_byte>
    76f0:	90                   	nop
    76f1:	c9                   	leaveq 
    76f2:	c3                   	retq   

00000000000076f3 <transparent_crc>:
    76f3:	f3 0f 1e fa          	endbr64 
    76f7:	55                   	push   %rbp
    76f8:	48 89 e5             	mov    %rsp,%rbp
    76fb:	48 83 ec 20          	sub    $0x20,%rsp
    76ff:	48 89 7d f8          	mov    %rdi,-0x8(%rbp)
    7703:	48 89 75 f0          	mov    %rsi,-0x10(%rbp)
    7707:	89 55 ec             	mov    %edx,-0x14(%rbp)
    770a:	48 8b 45 f8          	mov    -0x8(%rbp),%rax
    770e:	48 89 c7             	mov    %rax,%rdi
    7711:	e8 3e ff ff ff       	callq  7654 <crc32_8bytes>
    7716:	83 7d ec 00          	cmpl   $0x0,-0x14(%rbp)
    771a:	74 22                	je     773e <transparent_crc+0x4b>
    771c:	8b 05 fe 28 01 00    	mov    0x128fe(%rip),%eax        # 1a020 <crc32_context>
    7722:	f7 d0                	not    %eax
    7724:	89 c2                	mov    %eax,%edx
    7726:	48 8b 45 f0          	mov    -0x10(%rbp),%rax
    772a:	48 89 c6             	mov    %rax,%rsi
    772d:	48 8d 3d fc d8 00 00 	lea    0xd8fc(%rip),%rdi        # 15030 <_IO_stdin_used+0x30>
    7734:	b8 00 00 00 00       	mov    $0x0,%eax
    7739:	e8 42 e9 ff ff       	callq  6080 <printf@plt>
    773e:	90                   	nop
    773f:	c9                   	leaveq 
    7740:	c3                   	retq   

0000000000007741 <transparent_crc_bytes>:
    7741:	f3 0f 1e fa          	endbr64 
    7745:	55                   	push   %rbp
    7746:	48 89 e5             	mov    %rsp,%rbp
    7749:	48 83 ec 30          	sub    $0x30,%rsp
    774d:	48 89 7d e8          	mov    %rdi,-0x18(%rbp)
    7751:	89 75 e4             	mov    %esi,-0x1c(%rbp)
    7754:	48 89 55 d8          	mov    %rdx,-0x28(%rbp)
    7758:	89 4d e0             	mov    %ecx,-0x20(%rbp)
    775b:	c7 45 fc 00 00 00 00 	movl   $0x0,-0x4(%rbp)
    7762:	eb 1e                	jmp    7782 <transparent_crc_bytes+0x41>
    7764:	8b 45 fc             	mov    -0x4(%rbp),%eax
    7767:	48 63 d0             	movslq %eax,%rdx
    776a:	48 8b 45 e8          	mov    -0x18(%rbp),%rax
    776e:	48 01 d0             	add    %rdx,%rax
    7771:	0f b6 00             	movzbl (%rax),%eax
    7774:	0f b6 c0             	movzbl %al,%eax
    7777:	89 c7                	mov    %eax,%edi
    7779:	e8 90 fe ff ff       	callq  760e <crc32_byte>
    777e:	83 45 fc 01          	addl   $0x1,-0x4(%rbp)
    7782:	8b 45 fc             	mov    -0x4(%rbp),%eax
    7785:	3b 45 e4             	cmp    -0x1c(%rbp),%eax
    7788:	7c da                	jl     7764 <transparent_crc_bytes+0x23>
    778a:	83 7d e0 00          	cmpl   $0x0,-0x20(%rbp)
    778e:	74 22                	je     77b2 <transparent_crc_bytes+0x71>
    7790:	8b 05 8a 28 01 00    	mov    0x1288a(%rip),%eax        # 1a020 <crc32_context>
    7796:	f7 d0                	not    %eax
    7798:	89 c2                	mov    %eax,%edx
    779a:	48 8b 45 d8          	mov    -0x28(%rbp),%rax
    779e:	48 89 c6             	mov    %rax,%rsi
    77a1:	48 8d 3d 88 d8 00 00 	lea    0xd888(%rip),%rdi        # 15030 <_IO_stdin_used+0x30>
    77a8:	b8 00 00 00 00       	mov    $0x0,%eax
    77ad:	e8 ce e8 ff ff       	callq  6080 <printf@plt>
    77b2:	90                   	nop
    77b3:	c9                   	leaveq 
    77b4:	c3                   	retq   

00000000000077b5 <func_1>:
    77b5:	f3 0f 1e fa          	endbr64 
    77b9:	55                   	push   %rbp
    77ba:	48 89 e5             	mov    %rsp,%rbp
    77bd:	41 57                	push   %r15
    77bf:	41 56                	push   %r14
    77c1:	41 55                	push   %r13
    77c3:	41 54                	push   %r12
    77c5:	53                   	push   %rbx
    77c6:	48 81 ec 00 10 00 00 	sub    $0x1000,%rsp
    77cd:	48 83 0c 24 00       	orq    $0x0,(%rsp)
    77d2:	48 81 ec 88 0d 00 00 	sub    $0xd88,%rsp
    77d9:	64 48 8b 04 25 28 00 	mov    %fs:0x28,%rax
    77e0:	00 00 
    77e2:	48 89 45 c8          	mov    %rax,-0x38(%rbp)
    77e6:	31 c0                	xor    %eax,%eax
    77e8:	c7 85 78 e2 ff ff 05 	movl   $0x5,-0x1d88(%rbp)
    77ef:	00 00 00 
    77f2:	66 c7 85 6c e2 ff ff 	movw   $0x5,-0x1d94(%rbp)
    77f9:	05 00 
    77fb:	48 c7 85 40 e3 ff ff 	movq   $0x0,-0x1cc0(%rbp)
    7802:	00 00 00 00 
    7806:	c7 85 7c e2 ff ff 42 	movl   $0x93cc2542,-0x1d84(%rbp)
    780d:	25 cc 93 
    7810:	48 8d 05 11 28 01 00 	lea    0x12811(%rip),%rax        # 1a028 <g_29>
    7817:	48 89 85 48 e3 ff ff 	mov    %rax,-0x1cb8(%rbp)
    781e:	c7 85 80 e2 ff ff 00 	movl   $0x0,-0x1d80(%rbp)
    7825:	00 00 00 
    7828:	48 b8 15 57 a4 b5 40 	movabs $0x46448f40b5a45715,%rax
    782f:	8f 44 46 
    7832:	48 89 85 50 e3 ff ff 	mov    %rax,-0x1cb0(%rbp)
    7839:	c7 85 bc e2 ff ff c7 	movl   $0x4d586dc7,-0x1d44(%rbp)
    7840:	6d 58 4d 
    7843:	48 8d 05 f6 39 01 00 	lea    0x139f6(%rip),%rax        # 1b240 <g_92>
    784a:	48 89 85 58 e3 ff ff 	mov    %rax,-0x1ca8(%rbp)
    7851:	48 c7 85 00 e3 ff ff 	movq   $0x0,-0x1d00(%rbp)
    7858:	00 00 00 00 
    785c:	c7 85 c0 e2 ff ff 08 	movl   $0x8,-0x1d40(%rbp)
    7863:	00 00 00 
    7866:	c7 85 84 e2 ff ff 4a 	movl   $0x75e64c4a,-0x1d7c(%rbp)
    786d:	4c e6 75 
    7870:	c7 85 c4 e2 ff ff f6 	movl   $0xfffffff6,-0x1d3c(%rbp)
    7877:	ff ff ff 
    787a:	48 c7 85 08 e3 ff ff 	movq   $0x0,-0x1cf8(%rbp)
    7881:	00 00 00 00 
    7885:	c6 85 65 e2 ff ff 9c 	movb   $0x9c,-0x1d9b(%rbp)
    788c:	48 c7 85 60 e3 ff ff 	movq   $0x0,-0x1ca0(%rbp)
    7893:	00 00 00 00 
    7897:	48 8d 85 08 e3 ff ff 	lea    -0x1cf8(%rbp),%rax
    789e:	48 89 85 10 e3 ff ff 	mov    %rax,-0x1cf0(%rbp)
    78a5:	48 b8 f6 f6 f6 f6 f6 	movabs $0xf6f6f6f6f6f6f6f6,%rax
    78ac:	f6 f6 f6 
    78af:	48 89 45 c0          	mov    %rax,-0x40(%rbp)
    78b3:	66 c7 85 6e e2 ff ff 	movw   $0xc46b,-0x1d92(%rbp)
    78ba:	6b c4 
    78bc:	48 b8 a5 bf b3 9d 1a 	movabs $0x8c608f1a9db3bfa5,%rax
    78c3:	8f 60 8c 
    78c6:	48 89 85 68 e3 ff ff 	mov    %rax,-0x1c98(%rbp)
    78cd:	48 8d 05 a8 34 01 00 	lea    0x134a8(%rip),%rax        # 1ad7c <g_1823>
    78d4:	48 89 85 70 e3 ff ff 	mov    %rax,-0x1c90(%rbp)
    78db:	c7 85 88 e2 ff ff 00 	movl   $0x0,-0x1d78(%rbp)
    78e2:	00 00 00 
    78e5:	48 8d 05 58 27 01 00 	lea    0x12758(%rip),%rax        # 1a044 <g_104>
    78ec:	48 89 85 b0 ea ff ff 	mov    %rax,-0x1550(%rbp)
    78f3:	48 8d 85 80 e2 ff ff 	lea    -0x1d80(%rbp),%rax
    78fa:	48 89 85 b8 ea ff ff 	mov    %rax,-0x1548(%rbp)
    7901:	48 8d 05 3c 27 01 00 	lea    0x1273c(%rip),%rax        # 1a044 <g_104>
    7908:	48 89 85 c0 ea ff ff 	mov    %rax,-0x1540(%rbp)
    790f:	48 c7 85 c8 ea ff ff 	movq   $0x0,-0x1538(%rbp)
    7916:	00 00 00 00 
    791a:	48 c7 85 d0 ea ff ff 	movq   $0x0,-0x1530(%rbp)
    7921:	00 00 00 00 
    7925:	48 8d 05 18 27 01 00 	lea    0x12718(%rip),%rax        # 1a044 <g_104>
    792c:	48 89 85 d8 ea ff ff 	mov    %rax,-0x1528(%rbp)
    7933:	48 8d 85 7c e2 ff ff 	lea    -0x1d84(%rbp),%rax
    793a:	48 89 85 e0 ea ff ff 	mov    %rax,-0x1520(%rbp)
    7941:	48 8d 05 fc 26 01 00 	lea    0x126fc(%rip),%rax        # 1a044 <g_104>
    7948:	48 89 85 e8 ea ff ff 	mov    %rax,-0x1518(%rbp)
    794f:	48 8d 05 ee 26 01 00 	lea    0x126ee(%rip),%rax        # 1a044 <g_104>
    7956:	48 89 85 f0 ea ff ff 	mov    %rax,-0x1510(%rbp)
    795d:	48 c7 85 f8 ea ff ff 	movq   $0x0,-0x1508(%rbp)
    7964:	00 00 00 00 
    7968:	48 8d 05 d5 26 01 00 	lea    0x126d5(%rip),%rax        # 1a044 <g_104>
    796f:	48 89 85 00 eb ff ff 	mov    %rax,-0x1500(%rbp)
    7976:	48 8d 85 84 e2 ff ff 	lea    -0x1d7c(%rbp),%rax
    797d:	48 89 85 08 eb ff ff 	mov    %rax,-0x14f8(%rbp)
    7984:	48 8d 85 84 e2 ff ff 	lea    -0x1d7c(%rbp),%rax
    798b:	48 89 85 10 eb ff ff 	mov    %rax,-0x14f0(%rbp)
    7992:	48 c7 85 18 eb ff ff 	movq   $0x0,-0x14e8(%rbp)
    7999:	00 00 00 00 
    799d:	48 8d 85 80 e2 ff ff 	lea    -0x1d80(%rbp),%rax
    79a4:	48 89 85 20 eb ff ff 	mov    %rax,-0x14e0(%rbp)
    79ab:	48 c7 85 28 eb ff ff 	movq   $0x0,-0x14d8(%rbp)
    79b2:	00 00 00 00 
    79b6:	48 c7 85 30 eb ff ff 	movq   $0x0,-0x14d0(%rbp)
    79bd:	00 00 00 00 
    79c1:	48 c7 85 38 eb ff ff 	movq   $0x0,-0x14c8(%rbp)
    79c8:	00 00 00 00 
    79cc:	48 c7 85 40 eb ff ff 	movq   $0x0,-0x14c0(%rbp)
    79d3:	00 00 00 00 
    79d7:	48 8d 85 88 e2 ff ff 	lea    -0x1d78(%rbp),%rax
    79de:	48 89 85 48 eb ff ff 	mov    %rax,-0x14b8(%rbp)
    79e5:	48 8d 85 84 e2 ff ff 	lea    -0x1d7c(%rbp),%rax
    79ec:	48 89 85 50 eb ff ff 	mov    %rax,-0x14b0(%rbp)
    79f3:	48 8d 85 84 e2 ff ff 	lea    -0x1d7c(%rbp),%rax
    79fa:	48 89 85 58 eb ff ff 	mov    %rax,-0x14a8(%rbp)
    7a01:	48 8d 05 3c 26 01 00 	lea    0x1263c(%rip),%rax        # 1a044 <g_104>
    7a08:	48 89 85 60 eb ff ff 	mov    %rax,-0x14a0(%rbp)
    7a0f:	48 c7 85 68 eb ff ff 	movq   $0x0,-0x1498(%rbp)
    7a16:	00 00 00 00 
    7a1a:	48 8d 85 88 e2 ff ff 	lea    -0x1d78(%rbp),%rax
    7a21:	48 89 85 70 eb ff ff 	mov    %rax,-0x1490(%rbp)
    7a28:	48 8d 05 4d 33 01 00 	lea    0x1334d(%rip),%rax        # 1ad7c <g_1823>
    7a2f:	48 89 85 78 eb ff ff 	mov    %rax,-0x1488(%rbp)
    7a36:	48 8d 05 07 26 01 00 	lea    0x12607(%rip),%rax        # 1a044 <g_104>
    7a3d:	48 89 85 80 eb ff ff 	mov    %rax,-0x1480(%rbp)
    7a44:	48 8d 05 f9 25 01 00 	lea    0x125f9(%rip),%rax        # 1a044 <g_104>
    7a4b:	48 89 85 88 eb ff ff 	mov    %rax,-0x1478(%rbp)
    7a52:	48 c7 85 90 eb ff ff 	movq   $0x0,-0x1470(%rbp)
    7a59:	00 00 00 00 
    7a5d:	48 c7 85 98 eb ff ff 	movq   $0x0,-0x1468(%rbp)
    7a64:	00 00 00 00 
    7a68:	48 8d 85 88 e2 ff ff 	lea    -0x1d78(%rbp),%rax
    7a6f:	48 89 85 a0 eb ff ff 	mov    %rax,-0x1460(%rbp)
    7a76:	48 c7 85 a8 eb ff ff 	movq   $0x0,-0x1458(%rbp)
    7a7d:	00 00 00 00 
    7a81:	48 8d 05 f4 32 01 00 	lea    0x132f4(%rip),%rax        # 1ad7c <g_1823>
    7a88:	48 89 85 b0 eb ff ff 	mov    %rax,-0x1450(%rbp)
    7a8f:	48 8d 85 84 e2 ff ff 	lea    -0x1d7c(%rbp),%rax
    7a96:	48 89 85 b8 eb ff ff 	mov    %rax,-0x1448(%rbp)
    7a9d:	48 8d 05 d8 32 01 00 	lea    0x132d8(%rip),%rax        # 1ad7c <g_1823>
    7aa4:	48 89 85 c0 eb ff ff 	mov    %rax,-0x1440(%rbp)
    7aab:	48 8d 85 84 e2 ff ff 	lea    -0x1d7c(%rbp),%rax
    7ab2:	48 89 85 c8 eb ff ff 	mov    %rax,-0x1438(%rbp)
    7ab9:	48 c7 85 d0 eb ff ff 	movq   $0x0,-0x1430(%rbp)
    7ac0:	00 00 00 00 
    7ac4:	48 8d 05 b1 32 01 00 	lea    0x132b1(%rip),%rax        # 1ad7c <g_1823>
    7acb:	48 89 85 d8 eb ff ff 	mov    %rax,-0x1428(%rbp)
    7ad2:	48 8d 05 a3 32 01 00 	lea    0x132a3(%rip),%rax        # 1ad7c <g_1823>
    7ad9:	48 89 85 e0 eb ff ff 	mov    %rax,-0x1420(%rbp)
    7ae0:	48 c7 85 e8 eb ff ff 	movq   $0x0,-0x1418(%rbp)
    7ae7:	00 00 00 00 
    7aeb:	48 8d 05 8a 32 01 00 	lea    0x1328a(%rip),%rax        # 1ad7c <g_1823>
    7af2:	48 89 85 f0 eb ff ff 	mov    %rax,-0x1410(%rbp)
    7af9:	48 8d 85 88 e2 ff ff 	lea    -0x1d78(%rbp),%rax
    7b00:	48 89 85 f8 eb ff ff 	mov    %rax,-0x1408(%rbp)
    7b07:	48 8d 85 84 e2 ff ff 	lea    -0x1d7c(%rbp),%rax
    7b0e:	48 89 85 00 ec ff ff 	mov    %rax,-0x1400(%rbp)
    7b15:	48 8d 85 88 e2 ff ff 	lea    -0x1d78(%rbp),%rax
    7b1c:	48 89 85 08 ec ff ff 	mov    %rax,-0x13f8(%rbp)
    7b23:	48 8d 05 52 32 01 00 	lea    0x13252(%rip),%rax        # 1ad7c <g_1823>
    7b2a:	48 89 85 10 ec ff ff 	mov    %rax,-0x13f0(%rbp)
    7b31:	48 c7 85 18 ec ff ff 	movq   $0x0,-0x13e8(%rbp)
    7b38:	00 00 00 00 
    7b3c:	48 8d 85 84 e2 ff ff 	lea    -0x1d7c(%rbp),%rax
    7b43:	48 89 85 20 ec ff ff 	mov    %rax,-0x13e0(%rbp)
    7b4a:	48 8d 05 2b 32 01 00 	lea    0x1322b(%rip),%rax        # 1ad7c <g_1823>
    7b51:	48 89 85 28 ec ff ff 	mov    %rax,-0x13d8(%rbp)
    7b58:	48 8d 85 7c e2 ff ff 	lea    -0x1d84(%rbp),%rax
    7b5f:	48 89 85 30 ec ff ff 	mov    %rax,-0x13d0(%rbp)
    7b66:	48 8d 85 7c e2 ff ff 	lea    -0x1d84(%rbp),%rax
    7b6d:	48 89 85 38 ec ff ff 	mov    %rax,-0x13c8(%rbp)
    7b74:	48 8d 05 c9 24 01 00 	lea    0x124c9(%rip),%rax        # 1a044 <g_104>
    7b7b:	48 89 85 40 ec ff ff 	mov    %rax,-0x13c0(%rbp)
    7b82:	48 c7 85 48 ec ff ff 	movq   $0x0,-0x13b8(%rbp)
    7b89:	00 00 00 00 
    7b8d:	48 8d 85 84 e2 ff ff 	lea    -0x1d7c(%rbp),%rax
    7b94:	48 89 85 50 ec ff ff 	mov    %rax,-0x13b0(%rbp)
    7b9b:	48 8d 05 da 31 01 00 	lea    0x131da(%rip),%rax        # 1ad7c <g_1823>
    7ba2:	48 89 85 58 ec ff ff 	mov    %rax,-0x13a8(%rbp)
    7ba9:	48 8d 05 94 24 01 00 	lea    0x12494(%rip),%rax        # 1a044 <g_104>
    7bb0:	48 89 85 60 ec ff ff 	mov    %rax,-0x13a0(%rbp)
    7bb7:	48 8d 85 88 e2 ff ff 	lea    -0x1d78(%rbp),%rax
    7bbe:	48 89 85 68 ec ff ff 	mov    %rax,-0x1398(%rbp)
    7bc5:	48 8d 85 84 e2 ff ff 	lea    -0x1d7c(%rbp),%rax
    7bcc:	48 89 85 70 ec ff ff 	mov    %rax,-0x1390(%rbp)
    7bd3:	48 8d 85 84 e2 ff ff 	lea    -0x1d7c(%rbp),%rax
    7bda:	48 89 85 78 ec ff ff 	mov    %rax,-0x1388(%rbp)
    7be1:	48 8d 05 94 31 01 00 	lea    0x13194(%rip),%rax        # 1ad7c <g_1823>
    7be8:	48 89 85 80 ec ff ff 	mov    %rax,-0x1380(%rbp)
    7bef:	48 8d 85 7c e2 ff ff 	lea    -0x1d84(%rbp),%rax
    7bf6:	48 89 85 88 ec ff ff 	mov    %rax,-0x1378(%rbp)
    7bfd:	48 8d 85 80 e2 ff ff 	lea    -0x1d80(%rbp),%rax
    7c04:	48 89 85 90 ec ff ff 	mov    %rax,-0x1370(%rbp)
    7c0b:	48 8d 05 6a 31 01 00 	lea    0x1316a(%rip),%rax        # 1ad7c <g_1823>
    7c12:	48 89 85 98 ec ff ff 	mov    %rax,-0x1368(%rbp)
    7c19:	48 8d 85 80 e2 ff ff 	lea    -0x1d80(%rbp),%rax
    7c20:	48 89 85 a0 ec ff ff 	mov    %rax,-0x1360(%rbp)
    7c27:	48 8d 85 88 e2 ff ff 	lea    -0x1d78(%rbp),%rax
    7c2e:	48 89 85 a8 ec ff ff 	mov    %rax,-0x1358(%rbp)
    7c35:	48 8d 05 40 31 01 00 	lea    0x13140(%rip),%rax        # 1ad7c <g_1823>
    7c3c:	48 89 85 b0 ec ff ff 	mov    %rax,-0x1350(%rbp)
    7c43:	48 8d 05 fa 23 01 00 	lea    0x123fa(%rip),%rax        # 1a044 <g_104>
    7c4a:	48 89 85 b8 ec ff ff 	mov    %rax,-0x1348(%rbp)
    7c51:	48 8d 05 ec 23 01 00 	lea    0x123ec(%rip),%rax        # 1a044 <g_104>
    7c58:	48 89 85 c0 ec ff ff 	mov    %rax,-0x1340(%rbp)
    7c5f:	48 c7 85 c8 ec ff ff 	movq   $0x0,-0x1338(%rbp)
    7c66:	00 00 00 00 
    7c6a:	48 8d 05 d3 23 01 00 	lea    0x123d3(%rip),%rax        # 1a044 <g_104>
    7c71:	48 89 85 d0 ec ff ff 	mov    %rax,-0x1330(%rbp)
    7c78:	48 8d 05 fd 30 01 00 	lea    0x130fd(%rip),%rax        # 1ad7c <g_1823>
    7c7f:	48 89 85 d8 ec ff ff 	mov    %rax,-0x1328(%rbp)
    7c86:	48 c7 85 e0 ec ff ff 	movq   $0x0,-0x1320(%rbp)
    7c8d:	00 00 00 00 
    7c91:	48 c7 85 e8 ec ff ff 	movq   $0x0,-0x1318(%rbp)
    7c98:	00 00 00 00 
    7c9c:	48 8d 85 7c e2 ff ff 	lea    -0x1d84(%rbp),%rax
    7ca3:	48 89 85 f0 ec ff ff 	mov    %rax,-0x1310(%rbp)
    7caa:	48 8d 05 cb 30 01 00 	lea    0x130cb(%rip),%rax        # 1ad7c <g_1823>
    7cb1:	48 89 85 f8 ec ff ff 	mov    %rax,-0x1308(%rbp)
    7cb8:	48 8d 05 85 23 01 00 	lea    0x12385(%rip),%rax        # 1a044 <g_104>
    7cbf:	48 89 85 00 ed ff ff 	mov    %rax,-0x1300(%rbp)
    7cc6:	48 8d 05 af 30 01 00 	lea    0x130af(%rip),%rax        # 1ad7c <g_1823>
    7ccd:	48 89 85 08 ed ff ff 	mov    %rax,-0x12f8(%rbp)
    7cd4:	48 8d 05 69 23 01 00 	lea    0x12369(%rip),%rax        # 1a044 <g_104>
    7cdb:	48 89 85 10 ed ff ff 	mov    %rax,-0x12f0(%rbp)
    7ce2:	48 8d 05 5b 23 01 00 	lea    0x1235b(%rip),%rax        # 1a044 <g_104>
    7ce9:	48 89 85 18 ed ff ff 	mov    %rax,-0x12e8(%rbp)
    7cf0:	48 8d 85 84 e2 ff ff 	lea    -0x1d7c(%rbp),%rax
    7cf7:	48 89 85 20 ed ff ff 	mov    %rax,-0x12e0(%rbp)
    7cfe:	48 8d 85 88 e2 ff ff 	lea    -0x1d78(%rbp),%rax
    7d05:	48 89 85 28 ed ff ff 	mov    %rax,-0x12d8(%rbp)
    7d0c:	48 8d 85 80 e2 ff ff 	lea    -0x1d80(%rbp),%rax
    7d13:	48 89 85 30 ed ff ff 	mov    %rax,-0x12d0(%rbp)
    7d1a:	48 8d 85 7c e2 ff ff 	lea    -0x1d84(%rbp),%rax
    7d21:	48 89 85 38 ed ff ff 	mov    %rax,-0x12c8(%rbp)
    7d28:	48 c7 85 40 ed ff ff 	movq   $0x0,-0x12c0(%rbp)
    7d2f:	00 00 00 00 
    7d33:	48 8d 85 7c e2 ff ff 	lea    -0x1d84(%rbp),%rax
    7d3a:	48 89 85 48 ed ff ff 	mov    %rax,-0x12b8(%rbp)
    7d41:	48 c7 85 50 ed ff ff 	movq   $0x0,-0x12b0(%rbp)
    7d48:	00 00 00 00 
    7d4c:	48 c7 85 58 ed ff ff 	movq   $0x0,-0x12a8(%rbp)
    7d53:	00 00 00 00 
    7d57:	48 8d 85 84 e2 ff ff 	lea    -0x1d7c(%rbp),%rax
    7d5e:	48 89 85 60 ed ff ff 	mov    %rax,-0x12a0(%rbp)
    7d65:	48 8d 05 d8 22 01 00 	lea    0x122d8(%rip),%rax        # 1a044 <g_104>
    7d6c:	48 89 85 68 ed ff ff 	mov    %rax,-0x1298(%rbp)
    7d73:	48 8d 05 ca 22 01 00 	lea    0x122ca(%rip),%rax        # 1a044 <g_104>
    7d7a:	48 89 85 70 ed ff ff 	mov    %rax,-0x1290(%rbp)
    7d81:	48 8d 05 f4 2f 01 00 	lea    0x12ff4(%rip),%rax        # 1ad7c <g_1823>
    7d88:	48 89 85 78 ed ff ff 	mov    %rax,-0x1288(%rbp)
    7d8f:	48 8d 85 84 e2 ff ff 	lea    -0x1d7c(%rbp),%rax
    7d96:	48 89 85 80 ed ff ff 	mov    %rax,-0x1280(%rbp)
    7d9d:	48 8d 85 80 e2 ff ff 	lea    -0x1d80(%rbp),%rax
    7da4:	48 89 85 88 ed ff ff 	mov    %rax,-0x1278(%rbp)
    7dab:	48 c7 85 90 ed ff ff 	movq   $0x0,-0x1270(%rbp)
    7db2:	00 00 00 00 
    7db6:	48 c7 85 98 ed ff ff 	movq   $0x0,-0x1268(%rbp)
    7dbd:	00 00 00 00 
    7dc1:	48 8d 05 b4 2f 01 00 	lea    0x12fb4(%rip),%rax        # 1ad7c <g_1823>
    7dc8:	48 89 85 a0 ed ff ff 	mov    %rax,-0x1260(%rbp)
    7dcf:	48 c7 85 a8 ed ff ff 	movq   $0x0,-0x1258(%rbp)
    7dd6:	00 00 00 00 
    7dda:	48 8d 85 84 e2 ff ff 	lea    -0x1d7c(%rbp),%rax
    7de1:	48 89 85 b0 ed ff ff 	mov    %rax,-0x1250(%rbp)
    7de8:	48 8d 05 8d 2f 01 00 	lea    0x12f8d(%rip),%rax        # 1ad7c <g_1823>
    7def:	48 89 85 b8 ed ff ff 	mov    %rax,-0x1248(%rbp)
    7df6:	48 8d 85 7c e2 ff ff 	lea    -0x1d84(%rbp),%rax
    7dfd:	48 89 85 c0 ed ff ff 	mov    %rax,-0x1240(%rbp)
    7e04:	48 c7 85 c8 ed ff ff 	movq   $0x0,-0x1238(%rbp)
    7e0b:	00 00 00 00 
    7e0f:	48 c7 85 d0 ed ff ff 	movq   $0x0,-0x1230(%rbp)
    7e16:	00 00 00 00 
    7e1a:	48 8d 05 5b 2f 01 00 	lea    0x12f5b(%rip),%rax        # 1ad7c <g_1823>
    7e21:	48 89 85 d8 ed ff ff 	mov    %rax,-0x1228(%rbp)
    7e28:	48 8d 85 80 e2 ff ff 	lea    -0x1d80(%rbp),%rax
    7e2f:	48 89 85 e0 ed ff ff 	mov    %rax,-0x1220(%rbp)
    7e36:	48 8d 85 84 e2 ff ff 	lea    -0x1d7c(%rbp),%rax
    7e3d:	48 89 85 e8 ed ff ff 	mov    %rax,-0x1218(%rbp)
    7e44:	48 8d 05 f9 21 01 00 	lea    0x121f9(%rip),%rax        # 1a044 <g_104>
    7e4b:	48 89 85 f0 ed ff ff 	mov    %rax,-0x1210(%rbp)
    7e52:	48 c7 85 f8 ed ff ff 	movq   $0x0,-0x1208(%rbp)
    7e59:	00 00 00 00 
    7e5d:	48 c7 85 00 ee ff ff 	movq   $0x0,-0x1200(%rbp)
    7e64:	00 00 00 00 
    7e68:	48 c7 85 08 ee ff ff 	movq   $0x0,-0x11f8(%rbp)
    7e6f:	00 00 00 00 
    7e73:	48 8d 85 7c e2 ff ff 	lea    -0x1d84(%rbp),%rax
    7e7a:	48 89 85 10 ee ff ff 	mov    %rax,-0x11f0(%rbp)
    7e81:	48 8d 05 bc 21 01 00 	lea    0x121bc(%rip),%rax        # 1a044 <g_104>
    7e88:	48 89 85 18 ee ff ff 	mov    %rax,-0x11e8(%rbp)
    7e8f:	48 8d 85 7c e2 ff ff 	lea    -0x1d84(%rbp),%rax
    7e96:	48 89 85 20 ee ff ff 	mov    %rax,-0x11e0(%rbp)
    7e9d:	48 c7 85 28 ee ff ff 	movq   $0x0,-0x11d8(%rbp)
    7ea4:	00 00 00 00 
    7ea8:	48 8d 05 cd 2e 01 00 	lea    0x12ecd(%rip),%rax        # 1ad7c <g_1823>
    7eaf:	48 89 85 30 ee ff ff 	mov    %rax,-0x11d0(%rbp)
    7eb6:	48 8d 05 87 21 01 00 	lea    0x12187(%rip),%rax        # 1a044 <g_104>
    7ebd:	48 89 85 38 ee ff ff 	mov    %rax,-0x11c8(%rbp)
    7ec4:	48 8d 85 88 e2 ff ff 	lea    -0x1d78(%rbp),%rax
    7ecb:	48 89 85 40 ee ff ff 	mov    %rax,-0x11c0(%rbp)
    7ed2:	48 8d 85 7c e2 ff ff 	lea    -0x1d84(%rbp),%rax
    7ed9:	48 89 85 48 ee ff ff 	mov    %rax,-0x11b8(%rbp)
    7ee0:	48 c7 85 50 ee ff ff 	movq   $0x0,-0x11b0(%rbp)
    7ee7:	00 00 00 00 
    7eeb:	48 c7 85 58 ee ff ff 	movq   $0x0,-0x11a8(%rbp)
    7ef2:	00 00 00 00 
    7ef6:	48 8d 05 7f 2e 01 00 	lea    0x12e7f(%rip),%rax        # 1ad7c <g_1823>
    7efd:	48 89 85 60 ee ff ff 	mov    %rax,-0x11a0(%rbp)
    7f04:	48 8d 85 7c e2 ff ff 	lea    -0x1d84(%rbp),%rax
    7f0b:	48 89 85 68 ee ff ff 	mov    %rax,-0x1198(%rbp)
    7f12:	48 8d 85 80 e2 ff ff 	lea    -0x1d80(%rbp),%rax
    7f19:	48 89 85 70 ee ff ff 	mov    %rax,-0x1190(%rbp)
    7f20:	48 8d 05 1d 21 01 00 	lea    0x1211d(%rip),%rax        # 1a044 <g_104>
    7f27:	48 89 85 78 ee ff ff 	mov    %rax,-0x1188(%rbp)
    7f2e:	48 8d 05 0f 21 01 00 	lea    0x1210f(%rip),%rax        # 1a044 <g_104>
    7f35:	48 89 85 80 ee ff ff 	mov    %rax,-0x1180(%rbp)
    7f3c:	48 8d 05 39 2e 01 00 	lea    0x12e39(%rip),%rax        # 1ad7c <g_1823>
    7f43:	48 89 85 88 ee ff ff 	mov    %rax,-0x1178(%rbp)
    7f4a:	48 c7 85 90 ee ff ff 	movq   $0x0,-0x1170(%rbp)
    7f51:	00 00 00 00 
    7f55:	48 8d 85 88 e2 ff ff 	lea    -0x1d78(%rbp),%rax
    7f5c:	48 89 85 98 ee ff ff 	mov    %rax,-0x1168(%rbp)
    7f63:	48 8d 85 84 e2 ff ff 	lea    -0x1d7c(%rbp),%rax
    7f6a:	48 89 85 a0 ee ff ff 	mov    %rax,-0x1160(%rbp)
    7f71:	48 8d 85 84 e2 ff ff 	lea    -0x1d7c(%rbp),%rax
    7f78:	48 89 85 a8 ee ff ff 	mov    %rax,-0x1158(%rbp)
    7f7f:	48 8d 05 f6 2d 01 00 	lea    0x12df6(%rip),%rax        # 1ad7c <g_1823>
    7f86:	48 89 85 b0 ee ff ff 	mov    %rax,-0x1150(%rbp)
    7f8d:	48 c7 85 b8 ee ff ff 	movq   $0x0,-0x1148(%rbp)
    7f94:	00 00 00 00 
    7f98:	48 c7 85 c0 ee ff ff 	movq   $0x0,-0x1140(%rbp)
    7f9f:	00 00 00 00 
    7fa3:	48 8d 85 7c e2 ff ff 	lea    -0x1d84(%rbp),%rax
    7faa:	48 89 85 c8 ee ff ff 	mov    %rax,-0x1138(%rbp)
    7fb1:	48 8d 85 80 e2 ff ff 	lea    -0x1d80(%rbp),%rax
    7fb8:	48 89 85 d0 ee ff ff 	mov    %rax,-0x1130(%rbp)
    7fbf:	48 8d 05 b6 2d 01 00 	lea    0x12db6(%rip),%rax        # 1ad7c <g_1823>
    7fc6:	48 89 85 d8 ee ff ff 	mov    %rax,-0x1128(%rbp)
    7fcd:	48 8d 85 84 e2 ff ff 	lea    -0x1d7c(%rbp),%rax
    7fd4:	48 89 85 e0 ee ff ff 	mov    %rax,-0x1120(%rbp)
    7fdb:	48 8d 05 62 20 01 00 	lea    0x12062(%rip),%rax        # 1a044 <g_104>
    7fe2:	48 89 85 e8 ee ff ff 	mov    %rax,-0x1118(%rbp)
    7fe9:	48 8d 05 8c 2d 01 00 	lea    0x12d8c(%rip),%rax        # 1ad7c <g_1823>
    7ff0:	48 89 85 f0 ee ff ff 	mov    %rax,-0x1110(%rbp)
    7ff7:	48 8d 85 7c e2 ff ff 	lea    -0x1d84(%rbp),%rax
    7ffe:	48 89 85 f8 ee ff ff 	mov    %rax,-0x1108(%rbp)
    8005:	48 8d 85 88 e2 ff ff 	lea    -0x1d78(%rbp),%rax
    800c:	48 89 85 00 ef ff ff 	mov    %rax,-0x1100(%rbp)
    8013:	48 8d 85 80 e2 ff ff 	lea    -0x1d80(%rbp),%rax
    801a:	48 89 85 08 ef ff ff 	mov    %rax,-0x10f8(%rbp)
    8021:	48 8d 85 84 e2 ff ff 	lea    -0x1d7c(%rbp),%rax
    8028:	48 89 85 10 ef ff ff 	mov    %rax,-0x10f0(%rbp)
    802f:	48 8d 85 7c e2 ff ff 	lea    -0x1d84(%rbp),%rax
    8036:	48 89 85 18 ef ff ff 	mov    %rax,-0x10e8(%rbp)
    803d:	48 8d 85 7c e2 ff ff 	lea    -0x1d84(%rbp),%rax
    8044:	48 89 85 20 ef ff ff 	mov    %rax,-0x10e0(%rbp)
    804b:	48 8d 85 7c e2 ff ff 	lea    -0x1d84(%rbp),%rax
    8052:	48 89 85 28 ef ff ff 	mov    %rax,-0x10d8(%rbp)
    8059:	48 8d 85 7c e2 ff ff 	lea    -0x1d84(%rbp),%rax
    8060:	48 89 85 30 ef ff ff 	mov    %rax,-0x10d0(%rbp)
    8067:	48 8d 85 80 e2 ff ff 	lea    -0x1d80(%rbp),%rax
    806e:	48 89 85 38 ef ff ff 	mov    %rax,-0x10c8(%rbp)
    8075:	48 8d 05 00 2d 01 00 	lea    0x12d00(%rip),%rax        # 1ad7c <g_1823>
    807c:	48 89 85 40 ef ff ff 	mov    %rax,-0x10c0(%rbp)
    8083:	48 8d 85 88 e2 ff ff 	lea    -0x1d78(%rbp),%rax
    808a:	48 89 85 48 ef ff ff 	mov    %rax,-0x10b8(%rbp)
    8091:	48 c7 85 50 ef ff ff 	movq   $0x0,-0x10b0(%rbp)
    8098:	00 00 00 00 
    809c:	48 8d 85 88 e2 ff ff 	lea    -0x1d78(%rbp),%rax
    80a3:	48 89 85 58 ef ff ff 	mov    %rax,-0x10a8(%rbp)
    80aa:	48 8d 85 80 e2 ff ff 	lea    -0x1d80(%rbp),%rax
    80b1:	48 89 85 60 ef ff ff 	mov    %rax,-0x10a0(%rbp)
    80b8:	48 c7 85 68 ef ff ff 	movq   $0x0,-0x1098(%rbp)
    80bf:	00 00 00 00 
    80c3:	48 8d 05 7a 1f 01 00 	lea    0x11f7a(%rip),%rax        # 1a044 <g_104>
    80ca:	48 89 85 70 ef ff ff 	mov    %rax,-0x1090(%rbp)
    80d1:	48 8d 85 7c e2 ff ff 	lea    -0x1d84(%rbp),%rax
    80d8:	48 89 85 78 ef ff ff 	mov    %rax,-0x1088(%rbp)
    80df:	48 8d 85 7c e2 ff ff 	lea    -0x1d84(%rbp),%rax
    80e6:	48 89 85 80 ef ff ff 	mov    %rax,-0x1080(%rbp)
    80ed:	48 8d 85 7c e2 ff ff 	lea    -0x1d84(%rbp),%rax
    80f4:	48 89 85 88 ef ff ff 	mov    %rax,-0x1078(%rbp)
    80fb:	48 8d 85 84 e2 ff ff 	lea    -0x1d7c(%rbp),%rax
    8102:	48 89 85 90 ef ff ff 	mov    %rax,-0x1070(%rbp)
    8109:	48 8d 85 7c e2 ff ff 	lea    -0x1d84(%rbp),%rax
    8110:	48 89 85 98 ef ff ff 	mov    %rax,-0x1068(%rbp)
    8117:	48 c7 85 a0 ef ff ff 	movq   $0x0,-0x1060(%rbp)
    811e:	00 00 00 00 
    8122:	48 8d 85 7c e2 ff ff 	lea    -0x1d84(%rbp),%rax
    8129:	48 89 85 a8 ef ff ff 	mov    %rax,-0x1058(%rbp)
    8130:	48 8d 05 45 2c 01 00 	lea    0x12c45(%rip),%rax        # 1ad7c <g_1823>
    8137:	48 89 85 b0 ef ff ff 	mov    %rax,-0x1050(%rbp)
    813e:	48 8d 05 ff 1e 01 00 	lea    0x11eff(%rip),%rax        # 1a044 <g_104>
    8145:	48 89 85 b8 ef ff ff 	mov    %rax,-0x1048(%rbp)
    814c:	48 8d 85 84 e2 ff ff 	lea    -0x1d7c(%rbp),%rax
    8153:	48 89 85 c0 ef ff ff 	mov    %rax,-0x1040(%rbp)
    815a:	48 8d 85 80 e2 ff ff 	lea    -0x1d80(%rbp),%rax
    8161:	48 89 85 c8 ef ff ff 	mov    %rax,-0x1038(%rbp)
    8168:	48 8d 85 7c e2 ff ff 	lea    -0x1d84(%rbp),%rax
    816f:	48 89 85 d0 ef ff ff 	mov    %rax,-0x1030(%rbp)
    8176:	48 8d 85 7c e2 ff ff 	lea    -0x1d84(%rbp),%rax
    817d:	48 89 85 d8 ef ff ff 	mov    %rax,-0x1028(%rbp)
    8184:	48 c7 85 e0 ef ff ff 	movq   $0x0,-0x1020(%rbp)
    818b:	00 00 00 00 
    818f:	48 c7 85 e8 ef ff ff 	movq   $0x0,-0x1018(%rbp)
    8196:	00 00 00 00 
    819a:	48 8d 85 80 e2 ff ff 	lea    -0x1d80(%rbp),%rax
    81a1:	48 89 85 f0 ef ff ff 	mov    %rax,-0x1010(%rbp)
    81a8:	48 8d 05 95 1e 01 00 	lea    0x11e95(%rip),%rax        # 1a044 <g_104>
    81af:	48 89 85 f8 ef ff ff 	mov    %rax,-0x1008(%rbp)
    81b6:	48 8d 05 87 1e 01 00 	lea    0x11e87(%rip),%rax        # 1a044 <g_104>
    81bd:	48 89 85 00 f0 ff ff 	mov    %rax,-0x1000(%rbp)
    81c4:	48 8d 85 88 e2 ff ff 	lea    -0x1d78(%rbp),%rax
    81cb:	48 89 85 08 f0 ff ff 	mov    %rax,-0xff8(%rbp)
    81d2:	48 c7 85 10 f0 ff ff 	movq   $0x0,-0xff0(%rbp)
    81d9:	00 00 00 00 
    81dd:	48 8d 05 98 2b 01 00 	lea    0x12b98(%rip),%rax        # 1ad7c <g_1823>
    81e4:	48 89 85 18 f0 ff ff 	mov    %rax,-0xfe8(%rbp)
    81eb:	48 8d 85 7c e2 ff ff 	lea    -0x1d84(%rbp),%rax
    81f2:	48 89 85 20 f0 ff ff 	mov    %rax,-0xfe0(%rbp)
    81f9:	48 8d 85 88 e2 ff ff 	lea    -0x1d78(%rbp),%rax
    8200:	48 89 85 28 f0 ff ff 	mov    %rax,-0xfd8(%rbp)
    8207:	48 8d 85 7c e2 ff ff 	lea    -0x1d84(%rbp),%rax
    820e:	48 89 85 30 f0 ff ff 	mov    %rax,-0xfd0(%rbp)
    8215:	48 8d 85 7c e2 ff ff 	lea    -0x1d84(%rbp),%rax
    821c:	48 89 85 38 f0 ff ff 	mov    %rax,-0xfc8(%rbp)
    8223:	48 8d 05 52 2b 01 00 	lea    0x12b52(%rip),%rax        # 1ad7c <g_1823>
    822a:	48 89 85 40 f0 ff ff 	mov    %rax,-0xfc0(%rbp)
    8231:	48 c7 85 48 f0 ff ff 	movq   $0x0,-0xfb8(%rbp)
    8238:	00 00 00 00 
    823c:	48 8d 85 88 e2 ff ff 	lea    -0x1d78(%rbp),%rax
    8243:	48 89 85 50 f0 ff ff 	mov    %rax,-0xfb0(%rbp)
    824a:	48 8d 05 2b 2b 01 00 	lea    0x12b2b(%rip),%rax        # 1ad7c <g_1823>
    8251:	48 89 85 58 f0 ff ff 	mov    %rax,-0xfa8(%rbp)
    8258:	48 c7 85 60 f0 ff ff 	movq   $0x0,-0xfa0(%rbp)
    825f:	00 00 00 00 
    8263:	48 8d 05 da 1d 01 00 	lea    0x11dda(%rip),%rax        # 1a044 <g_104>
    826a:	48 89 85 68 f0 ff ff 	mov    %rax,-0xf98(%rbp)
    8271:	48 8d 05 04 2b 01 00 	lea    0x12b04(%rip),%rax        # 1ad7c <g_1823>
    8278:	48 89 85 70 f0 ff ff 	mov    %rax,-0xf90(%rbp)
    827f:	48 c7 85 78 f0 ff ff 	movq   $0x0,-0xf88(%rbp)
    8286:	00 00 00 00 
    828a:	48 8d 85 80 e2 ff ff 	lea    -0x1d80(%rbp),%rax
    8291:	48 89 85 80 f0 ff ff 	mov    %rax,-0xf80(%rbp)
    8298:	48 8d 85 88 e2 ff ff 	lea    -0x1d78(%rbp),%rax
    829f:	48 89 85 88 f0 ff ff 	mov    %rax,-0xf78(%rbp)
    82a6:	48 8d 05 97 1d 01 00 	lea    0x11d97(%rip),%rax        # 1a044 <g_104>
    82ad:	48 89 85 90 f0 ff ff 	mov    %rax,-0xf70(%rbp)
    82b4:	48 c7 85 98 f0 ff ff 	movq   $0x0,-0xf68(%rbp)
    82bb:	00 00 00 00 
    82bf:	48 c7 85 a0 f0 ff ff 	movq   $0x0,-0xf60(%rbp)
    82c6:	00 00 00 00 
    82ca:	48 c7 85 a8 f0 ff ff 	movq   $0x0,-0xf58(%rbp)
    82d1:	00 00 00 00 
    82d5:	48 8d 85 84 e2 ff ff 	lea    -0x1d7c(%rbp),%rax
    82dc:	48 89 85 b0 f0 ff ff 	mov    %rax,-0xf50(%rbp)
    82e3:	48 8d 05 5a 1d 01 00 	lea    0x11d5a(%rip),%rax        # 1a044 <g_104>
    82ea:	48 89 85 b8 f0 ff ff 	mov    %rax,-0xf48(%rbp)
    82f1:	48 8d 05 84 2a 01 00 	lea    0x12a84(%rip),%rax        # 1ad7c <g_1823>
    82f8:	48 89 85 c0 f0 ff ff 	mov    %rax,-0xf40(%rbp)
    82ff:	48 8d 05 76 2a 01 00 	lea    0x12a76(%rip),%rax        # 1ad7c <g_1823>
    8306:	48 89 85 c8 f0 ff ff 	mov    %rax,-0xf38(%rbp)
    830d:	48 c7 85 d0 f0 ff ff 	movq   $0x0,-0xf30(%rbp)
    8314:	00 00 00 00 
    8318:	48 c7 85 d8 f0 ff ff 	movq   $0x0,-0xf28(%rbp)
    831f:	00 00 00 00 
    8323:	48 8d 85 80 e2 ff ff 	lea    -0x1d80(%rbp),%rax
    832a:	48 89 85 e0 f0 ff ff 	mov    %rax,-0xf20(%rbp)
    8331:	48 8d 85 80 e2 ff ff 	lea    -0x1d80(%rbp),%rax
    8338:	48 89 85 e8 f0 ff ff 	mov    %rax,-0xf18(%rbp)
    833f:	48 8d 85 84 e2 ff ff 	lea    -0x1d7c(%rbp),%rax
    8346:	48 89 85 f0 f0 ff ff 	mov    %rax,-0xf10(%rbp)
    834d:	48 c7 85 f8 f0 ff ff 	movq   $0x0,-0xf08(%rbp)
    8354:	00 00 00 00 
    8358:	48 8d 05 1d 2a 01 00 	lea    0x12a1d(%rip),%rax        # 1ad7c <g_1823>
    835f:	48 89 85 00 f1 ff ff 	mov    %rax,-0xf00(%rbp)
    8366:	48 c7 85 08 f1 ff ff 	movq   $0x0,-0xef8(%rbp)
    836d:	00 00 00 00 
    8371:	48 8d 85 88 e2 ff ff 	lea    -0x1d78(%rbp),%rax
    8378:	48 89 85 10 f1 ff ff 	mov    %rax,-0xef0(%rbp)
    837f:	48 8d 85 7c e2 ff ff 	lea    -0x1d84(%rbp),%rax
    8386:	48 89 85 18 f1 ff ff 	mov    %rax,-0xee8(%rbp)
    838d:	48 8d 85 84 e2 ff ff 	lea    -0x1d7c(%rbp),%rax
    8394:	48 89 85 20 f1 ff ff 	mov    %rax,-0xee0(%rbp)
    839b:	48 c7 85 28 f1 ff ff 	movq   $0x0,-0xed8(%rbp)
    83a2:	00 00 00 00 
    83a6:	48 8d 85 7c e2 ff ff 	lea    -0x1d84(%rbp),%rax
    83ad:	48 89 85 30 f1 ff ff 	mov    %rax,-0xed0(%rbp)
    83b4:	48 c7 85 38 f1 ff ff 	movq   $0x0,-0xec8(%rbp)
    83bb:	00 00 00 00 
    83bf:	c6 85 66 e2 ff ff 00 	movb   $0x0,-0x1d9a(%rbp)
    83c6:	48 8d 05 33 48 01 00 	lea    0x14833(%rip),%rax        # 1cc00 <g_2072>
    83cd:	48 89 85 78 e3 ff ff 	mov    %rax,-0x1c88(%rbp)
    83d4:	48 c7 85 80 e3 ff ff 	movq   $0x0,-0x1c80(%rbp)
    83db:	00 00 00 00 
    83df:	c6 85 67 e2 ff ff 00 	movb   $0x0,-0x1d99(%rbp)
    83e6:	48 8d 05 db 1c 01 00 	lea    0x11cdb(%rip),%rax        # 1a0c8 <g_333>
    83ed:	48 89 85 18 e3 ff ff 	mov    %rax,-0x1ce8(%rbp)
    83f4:	48 8d 85 18 e3 ff ff 	lea    -0x1ce8(%rbp),%rax
    83fb:	48 89 85 b0 e5 ff ff 	mov    %rax,-0x1a50(%rbp)
    8402:	48 8d 85 18 e3 ff ff 	lea    -0x1ce8(%rbp),%rax
    8409:	48 89 85 b8 e5 ff ff 	mov    %rax,-0x1a48(%rbp)
    8410:	48 8d 85 18 e3 ff ff 	lea    -0x1ce8(%rbp),%rax
    8417:	48 89 85 c0 e5 ff ff 	mov    %rax,-0x1a40(%rbp)
    841e:	48 8d 85 18 e3 ff ff 	lea    -0x1ce8(%rbp),%rax
    8425:	48 89 85 c8 e5 ff ff 	mov    %rax,-0x1a38(%rbp)
    842c:	48 8d 85 18 e3 ff ff 	lea    -0x1ce8(%rbp),%rax
    8433:	48 89 85 d0 e5 ff ff 	mov    %rax,-0x1a30(%rbp)
    843a:	48 8d 85 18 e3 ff ff 	lea    -0x1ce8(%rbp),%rax
    8441:	48 89 85 d8 e5 ff ff 	mov    %rax,-0x1a28(%rbp)
    8448:	48 8d 85 18 e3 ff ff 	lea    -0x1ce8(%rbp),%rax
    844f:	48 89 85 e0 e5 ff ff 	mov    %rax,-0x1a20(%rbp)
    8456:	48 8d 85 18 e3 ff ff 	lea    -0x1ce8(%rbp),%rax
    845d:	48 89 85 e8 e5 ff ff 	mov    %rax,-0x1a18(%rbp)
    8464:	48 c7 85 f0 e5 ff ff 	movq   $0x0,-0x1a10(%rbp)
    846b:	00 00 00 00 
    846f:	48 8d 85 18 e3 ff ff 	lea    -0x1ce8(%rbp),%rax
    8476:	48 89 85 f8 e5 ff ff 	mov    %rax,-0x1a08(%rbp)
    847d:	48 c7 85 00 e6 ff ff 	movq   $0x0,-0x1a00(%rbp)
    8484:	00 00 00 00 
    8488:	48 8d 85 18 e3 ff ff 	lea    -0x1ce8(%rbp),%rax
    848f:	48 89 85 08 e6 ff ff 	mov    %rax,-0x19f8(%rbp)
    8496:	48 8d 85 18 e3 ff ff 	lea    -0x1ce8(%rbp),%rax
    849d:	48 89 85 10 e6 ff ff 	mov    %rax,-0x19f0(%rbp)
    84a4:	48 8d 85 18 e3 ff ff 	lea    -0x1ce8(%rbp),%rax
    84ab:	48 89 85 18 e6 ff ff 	mov    %rax,-0x19e8(%rbp)
    84b2:	48 8d 85 18 e3 ff ff 	lea    -0x1ce8(%rbp),%rax
    84b9:	48 89 85 20 e6 ff ff 	mov    %rax,-0x19e0(%rbp)
    84c0:	48 8d 85 18 e3 ff ff 	lea    -0x1ce8(%rbp),%rax
    84c7:	48 89 85 28 e6 ff ff 	mov    %rax,-0x19d8(%rbp)
    84ce:	48 8d 85 18 e3 ff ff 	lea    -0x1ce8(%rbp),%rax
    84d5:	48 89 85 30 e6 ff ff 	mov    %rax,-0x19d0(%rbp)
    84dc:	48 8d 85 18 e3 ff ff 	lea    -0x1ce8(%rbp),%rax
    84e3:	48 89 85 38 e6 ff ff 	mov    %rax,-0x19c8(%rbp)
    84ea:	48 8d 85 18 e3 ff ff 	lea    -0x1ce8(%rbp),%rax
    84f1:	48 89 85 40 e6 ff ff 	mov    %rax,-0x19c0(%rbp)
    84f8:	48 8d 85 18 e3 ff ff 	lea    -0x1ce8(%rbp),%rax
    84ff:	48 89 85 48 e6 ff ff 	mov    %rax,-0x19b8(%rbp)
    8506:	48 8d 85 18 e3 ff ff 	lea    -0x1ce8(%rbp),%rax
    850d:	48 89 85 50 e6 ff ff 	mov    %rax,-0x19b0(%rbp)
    8514:	48 8d 85 18 e3 ff ff 	lea    -0x1ce8(%rbp),%rax
    851b:	48 89 85 58 e6 ff ff 	mov    %rax,-0x19a8(%rbp)
    8522:	48 8d 85 18 e3 ff ff 	lea    -0x1ce8(%rbp),%rax
    8529:	48 89 85 60 e6 ff ff 	mov    %rax,-0x19a0(%rbp)
    8530:	48 8d 85 18 e3 ff ff 	lea    -0x1ce8(%rbp),%rax
    8537:	48 89 85 68 e6 ff ff 	mov    %rax,-0x1998(%rbp)
    853e:	48 8d 85 18 e3 ff ff 	lea    -0x1ce8(%rbp),%rax
    8545:	48 89 85 70 e6 ff ff 	mov    %rax,-0x1990(%rbp)
    854c:	48 8d 85 18 e3 ff ff 	lea    -0x1ce8(%rbp),%rax
    8553:	48 89 85 78 e6 ff ff 	mov    %rax,-0x1988(%rbp)
    855a:	48 8d 85 18 e3 ff ff 	lea    -0x1ce8(%rbp),%rax
    8561:	48 89 85 80 e6 ff ff 	mov    %rax,-0x1980(%rbp)
    8568:	48 8d 85 18 e3 ff ff 	lea    -0x1ce8(%rbp),%rax
    856f:	48 89 85 88 e6 ff ff 	mov    %rax,-0x1978(%rbp)
    8576:	48 8d 85 18 e3 ff ff 	lea    -0x1ce8(%rbp),%rax
    857d:	48 89 85 90 e6 ff ff 	mov    %rax,-0x1970(%rbp)
    8584:	48 8d 85 18 e3 ff ff 	lea    -0x1ce8(%rbp),%rax
    858b:	48 89 85 98 e6 ff ff 	mov    %rax,-0x1968(%rbp)
    8592:	48 8d 85 18 e3 ff ff 	lea    -0x1ce8(%rbp),%rax
    8599:	48 89 85 a0 e6 ff ff 	mov    %rax,-0x1960(%rbp)
    85a0:	48 8d 85 18 e3 ff ff 	lea    -0x1ce8(%rbp),%rax
    85a7:	48 89 85 a8 e6 ff ff 	mov    %rax,-0x1958(%rbp)
    85ae:	48 8d 85 18 e3 ff ff 	lea    -0x1ce8(%rbp),%rax
    85b5:	48 89 85 b0 e6 ff ff 	mov    %rax,-0x1950(%rbp)
    85bc:	48 8d 85 18 e3 ff ff 	lea    -0x1ce8(%rbp),%rax
    85c3:	48 89 85 b8 e6 ff ff 	mov    %rax,-0x1948(%rbp)
    85ca:	48 8d 85 18 e3 ff ff 	lea    -0x1ce8(%rbp),%rax
    85d1:	48 89 85 c0 e6 ff ff 	mov    %rax,-0x1940(%rbp)
    85d8:	48 8d 85 18 e3 ff ff 	lea    -0x1ce8(%rbp),%rax
    85df:	48 89 85 c8 e6 ff ff 	mov    %rax,-0x1938(%rbp)
    85e6:	48 c7 85 d0 e6 ff ff 	movq   $0x0,-0x1930(%rbp)
    85ed:	00 00 00 00 
    85f1:	48 8d 85 18 e3 ff ff 	lea    -0x1ce8(%rbp),%rax
    85f8:	48 89 85 d8 e6 ff ff 	mov    %rax,-0x1928(%rbp)
    85ff:	48 c7 85 e0 e6 ff ff 	movq   $0x0,-0x1920(%rbp)
    8606:	00 00 00 00 
    860a:	48 8d 85 18 e3 ff ff 	lea    -0x1ce8(%rbp),%rax
    8611:	48 89 85 e8 e6 ff ff 	mov    %rax,-0x1918(%rbp)
    8618:	48 8d 85 18 e3 ff ff 	lea    -0x1ce8(%rbp),%rax
    861f:	48 89 85 f0 e6 ff ff 	mov    %rax,-0x1910(%rbp)
    8626:	48 8d 85 18 e3 ff ff 	lea    -0x1ce8(%rbp),%rax
    862d:	48 89 85 f8 e6 ff ff 	mov    %rax,-0x1908(%rbp)
    8634:	48 8d 85 18 e3 ff ff 	lea    -0x1ce8(%rbp),%rax
    863b:	48 89 85 00 e7 ff ff 	mov    %rax,-0x1900(%rbp)
    8642:	48 8d 85 18 e3 ff ff 	lea    -0x1ce8(%rbp),%rax
    8649:	48 89 85 08 e7 ff ff 	mov    %rax,-0x18f8(%rbp)
    8650:	48 8d 85 18 e3 ff ff 	lea    -0x1ce8(%rbp),%rax
    8657:	48 89 85 10 e7 ff ff 	mov    %rax,-0x18f0(%rbp)
    865e:	48 8d 85 18 e3 ff ff 	lea    -0x1ce8(%rbp),%rax
    8665:	48 89 85 18 e7 ff ff 	mov    %rax,-0x18e8(%rbp)
    866c:	48 8d 85 18 e3 ff ff 	lea    -0x1ce8(%rbp),%rax
    8673:	48 89 85 20 e7 ff ff 	mov    %rax,-0x18e0(%rbp)
    867a:	48 8d 85 18 e3 ff ff 	lea    -0x1ce8(%rbp),%rax
    8681:	48 89 85 28 e7 ff ff 	mov    %rax,-0x18d8(%rbp)
    8688:	48 8d 85 18 e3 ff ff 	lea    -0x1ce8(%rbp),%rax
    868f:	48 89 85 30 e7 ff ff 	mov    %rax,-0x18d0(%rbp)
    8696:	48 8d 85 18 e3 ff ff 	lea    -0x1ce8(%rbp),%rax
    869d:	48 89 85 38 e7 ff ff 	mov    %rax,-0x18c8(%rbp)
    86a4:	48 8d 85 18 e3 ff ff 	lea    -0x1ce8(%rbp),%rax
    86ab:	48 89 85 40 e7 ff ff 	mov    %rax,-0x18c0(%rbp)
    86b2:	48 8d 85 18 e3 ff ff 	lea    -0x1ce8(%rbp),%rax
    86b9:	48 89 85 48 e7 ff ff 	mov    %rax,-0x18b8(%rbp)
    86c0:	48 8d 85 18 e3 ff ff 	lea    -0x1ce8(%rbp),%rax
    86c7:	48 89 85 50 e7 ff ff 	mov    %rax,-0x18b0(%rbp)
    86ce:	48 8d 85 18 e3 ff ff 	lea    -0x1ce8(%rbp),%rax
    86d5:	48 89 85 58 e7 ff ff 	mov    %rax,-0x18a8(%rbp)
    86dc:	48 c7 85 60 e7 ff ff 	movq   $0x0,-0x18a0(%rbp)
    86e3:	00 00 00 00 
    86e7:	48 8d 85 18 e3 ff ff 	lea    -0x1ce8(%rbp),%rax
    86ee:	48 89 85 68 e7 ff ff 	mov    %rax,-0x1898(%rbp)
    86f5:	48 c7 85 70 e7 ff ff 	movq   $0x0,-0x1890(%rbp)
    86fc:	00 00 00 00 
    8700:	48 8d 85 18 e3 ff ff 	lea    -0x1ce8(%rbp),%rax
    8707:	48 89 85 78 e7 ff ff 	mov    %rax,-0x1888(%rbp)
    870e:	48 8d 85 18 e3 ff ff 	lea    -0x1ce8(%rbp),%rax
    8715:	48 89 85 80 e7 ff ff 	mov    %rax,-0x1880(%rbp)
    871c:	48 8d 85 18 e3 ff ff 	lea    -0x1ce8(%rbp),%rax
    8723:	48 89 85 88 e7 ff ff 	mov    %rax,-0x1878(%rbp)
    872a:	48 8d 85 18 e3 ff ff 	lea    -0x1ce8(%rbp),%rax
    8731:	48 89 85 90 e7 ff ff 	mov    %rax,-0x1870(%rbp)
    8738:	48 8d 85 18 e3 ff ff 	lea    -0x1ce8(%rbp),%rax
    873f:	48 89 85 98 e7 ff ff 	mov    %rax,-0x1868(%rbp)
    8746:	48 8d 85 18 e3 ff ff 	lea    -0x1ce8(%rbp),%rax
    874d:	48 89 85 a0 e7 ff ff 	mov    %rax,-0x1860(%rbp)
    8754:	48 8d 85 18 e3 ff ff 	lea    -0x1ce8(%rbp),%rax
    875b:	48 89 85 a8 e7 ff ff 	mov    %rax,-0x1858(%rbp)
    8762:	48 8d 85 18 e3 ff ff 	lea    -0x1ce8(%rbp),%rax
    8769:	48 89 85 b0 e7 ff ff 	mov    %rax,-0x1850(%rbp)
    8770:	48 8d 85 18 e3 ff ff 	lea    -0x1ce8(%rbp),%rax
    8777:	48 89 85 b8 e7 ff ff 	mov    %rax,-0x1848(%rbp)
    877e:	48 8d 85 18 e3 ff ff 	lea    -0x1ce8(%rbp),%rax
    8785:	48 89 85 c0 e7 ff ff 	mov    %rax,-0x1840(%rbp)
    878c:	48 8d 85 18 e3 ff ff 	lea    -0x1ce8(%rbp),%rax
    8793:	48 89 85 c8 e7 ff ff 	mov    %rax,-0x1838(%rbp)
    879a:	48 8d 85 18 e3 ff ff 	lea    -0x1ce8(%rbp),%rax
    87a1:	48 89 85 d0 e7 ff ff 	mov    %rax,-0x1830(%rbp)
    87a8:	48 8d 85 18 e3 ff ff 	lea    -0x1ce8(%rbp),%rax
    87af:	48 89 85 d8 e7 ff ff 	mov    %rax,-0x1828(%rbp)
    87b6:	48 8d 85 18 e3 ff ff 	lea    -0x1ce8(%rbp),%rax
    87bd:	48 89 85 e0 e7 ff ff 	mov    %rax,-0x1820(%rbp)
    87c4:	48 8d 85 18 e3 ff ff 	lea    -0x1ce8(%rbp),%rax
    87cb:	48 89 85 e8 e7 ff ff 	mov    %rax,-0x1818(%rbp)
    87d2:	48 8d 85 18 e3 ff ff 	lea    -0x1ce8(%rbp),%rax
    87d9:	48 89 85 f0 e7 ff ff 	mov    %rax,-0x1810(%rbp)
    87e0:	48 8d 85 18 e3 ff ff 	lea    -0x1ce8(%rbp),%rax
    87e7:	48 89 85 f8 e7 ff ff 	mov    %rax,-0x1808(%rbp)
    87ee:	48 8d 85 18 e3 ff ff 	lea    -0x1ce8(%rbp),%rax
    87f5:	48 89 85 00 e8 ff ff 	mov    %rax,-0x1800(%rbp)
    87fc:	48 8d 85 18 e3 ff ff 	lea    -0x1ce8(%rbp),%rax
    8803:	48 89 85 08 e8 ff ff 	mov    %rax,-0x17f8(%rbp)
    880a:	48 8d 85 18 e3 ff ff 	lea    -0x1ce8(%rbp),%rax
    8811:	48 89 85 10 e8 ff ff 	mov    %rax,-0x17f0(%rbp)
    8818:	48 8d 85 18 e3 ff ff 	lea    -0x1ce8(%rbp),%rax
    881f:	48 89 85 18 e8 ff ff 	mov    %rax,-0x17e8(%rbp)
    8826:	48 8d 85 18 e3 ff ff 	lea    -0x1ce8(%rbp),%rax
    882d:	48 89 85 20 e8 ff ff 	mov    %rax,-0x17e0(%rbp)
    8834:	48 8d 85 18 e3 ff ff 	lea    -0x1ce8(%rbp),%rax
    883b:	48 89 85 28 e8 ff ff 	mov    %rax,-0x17d8(%rbp)
    8842:	48 8d 85 18 e3 ff ff 	lea    -0x1ce8(%rbp),%rax
    8849:	48 89 85 30 e8 ff ff 	mov    %rax,-0x17d0(%rbp)
    8850:	48 8d 85 18 e3 ff ff 	lea    -0x1ce8(%rbp),%rax
    8857:	48 89 85 38 e8 ff ff 	mov    %rax,-0x17c8(%rbp)
    885e:	48 8d 85 18 e3 ff ff 	lea    -0x1ce8(%rbp),%rax
    8865:	48 89 85 40 e8 ff ff 	mov    %rax,-0x17c0(%rbp)
    886c:	48 8d 85 18 e3 ff ff 	lea    -0x1ce8(%rbp),%rax
    8873:	48 89 85 48 e8 ff ff 	mov    %rax,-0x17b8(%rbp)
    887a:	48 8d 85 18 e3 ff ff 	lea    -0x1ce8(%rbp),%rax
    8881:	48 89 85 50 e8 ff ff 	mov    %rax,-0x17b0(%rbp)
    8888:	48 8d 85 18 e3 ff ff 	lea    -0x1ce8(%rbp),%rax
    888f:	48 89 85 58 e8 ff ff 	mov    %rax,-0x17a8(%rbp)
    8896:	48 8d 85 18 e3 ff ff 	lea    -0x1ce8(%rbp),%rax
    889d:	48 89 85 60 e8 ff ff 	mov    %rax,-0x17a0(%rbp)
    88a4:	48 8d 85 18 e3 ff ff 	lea    -0x1ce8(%rbp),%rax
    88ab:	48 89 85 68 e8 ff ff 	mov    %rax,-0x1798(%rbp)
    88b2:	48 8d 85 18 e3 ff ff 	lea    -0x1ce8(%rbp),%rax
    88b9:	48 89 85 70 e8 ff ff 	mov    %rax,-0x1790(%rbp)
    88c0:	48 c7 85 78 e8 ff ff 	movq   $0x0,-0x1788(%rbp)
    88c7:	00 00 00 00 
    88cb:	48 8d 85 18 e3 ff ff 	lea    -0x1ce8(%rbp),%rax
    88d2:	48 89 85 80 e8 ff ff 	mov    %rax,-0x1780(%rbp)
    88d9:	48 8d 85 18 e3 ff ff 	lea    -0x1ce8(%rbp),%rax
    88e0:	48 89 85 88 e8 ff ff 	mov    %rax,-0x1778(%rbp)
    88e7:	48 8d 85 18 e3 ff ff 	lea    -0x1ce8(%rbp),%rax
    88ee:	48 89 85 90 e8 ff ff 	mov    %rax,-0x1770(%rbp)
    88f5:	48 8d 85 18 e3 ff ff 	lea    -0x1ce8(%rbp),%rax
    88fc:	48 89 85 98 e8 ff ff 	mov    %rax,-0x1768(%rbp)
    8903:	48 8d 85 18 e3 ff ff 	lea    -0x1ce8(%rbp),%rax
    890a:	48 89 85 a0 e8 ff ff 	mov    %rax,-0x1760(%rbp)
    8911:	48 c7 85 a8 e8 ff ff 	movq   $0x0,-0x1758(%rbp)
    8918:	00 00 00 00 
    891c:	48 8d 85 18 e3 ff ff 	lea    -0x1ce8(%rbp),%rax
    8923:	48 89 85 b0 e8 ff ff 	mov    %rax,-0x1750(%rbp)
    892a:	48 8d 85 18 e3 ff ff 	lea    -0x1ce8(%rbp),%rax
    8931:	48 89 85 b8 e8 ff ff 	mov    %rax,-0x1748(%rbp)
    8938:	48 8d 85 18 e3 ff ff 	lea    -0x1ce8(%rbp),%rax
    893f:	48 89 85 c0 e8 ff ff 	mov    %rax,-0x1740(%rbp)
    8946:	48 8d 85 18 e3 ff ff 	lea    -0x1ce8(%rbp),%rax
    894d:	48 89 85 c8 e8 ff ff 	mov    %rax,-0x1738(%rbp)
    8954:	48 8d 85 18 e3 ff ff 	lea    -0x1ce8(%rbp),%rax
    895b:	48 89 85 d0 e8 ff ff 	mov    %rax,-0x1730(%rbp)
    8962:	48 8d 85 18 e3 ff ff 	lea    -0x1ce8(%rbp),%rax
    8969:	48 89 85 d8 e8 ff ff 	mov    %rax,-0x1728(%rbp)
    8970:	48 8d 85 18 e3 ff ff 	lea    -0x1ce8(%rbp),%rax
    8977:	48 89 85 e0 e8 ff ff 	mov    %rax,-0x1720(%rbp)
    897e:	48 8d 85 18 e3 ff ff 	lea    -0x1ce8(%rbp),%rax
    8985:	48 89 85 e8 e8 ff ff 	mov    %rax,-0x1718(%rbp)
    898c:	48 8d 85 18 e3 ff ff 	lea    -0x1ce8(%rbp),%rax
    8993:	48 89 85 f0 e8 ff ff 	mov    %rax,-0x1710(%rbp)
    899a:	48 8d 85 18 e3 ff ff 	lea    -0x1ce8(%rbp),%rax
    89a1:	48 89 85 f8 e8 ff ff 	mov    %rax,-0x1708(%rbp)
    89a8:	48 8d 85 18 e3 ff ff 	lea    -0x1ce8(%rbp),%rax
    89af:	48 89 85 00 e9 ff ff 	mov    %rax,-0x1700(%rbp)
    89b6:	48 8d 85 18 e3 ff ff 	lea    -0x1ce8(%rbp),%rax
    89bd:	48 89 85 08 e9 ff ff 	mov    %rax,-0x16f8(%rbp)
    89c4:	48 8d 85 18 e3 ff ff 	lea    -0x1ce8(%rbp),%rax
    89cb:	48 89 85 10 e9 ff ff 	mov    %rax,-0x16f0(%rbp)
    89d2:	48 8d 85 18 e3 ff ff 	lea    -0x1ce8(%rbp),%rax
    89d9:	48 89 85 18 e9 ff ff 	mov    %rax,-0x16e8(%rbp)
    89e0:	48 8d 85 18 e3 ff ff 	lea    -0x1ce8(%rbp),%rax
    89e7:	48 89 85 20 e9 ff ff 	mov    %rax,-0x16e0(%rbp)
    89ee:	48 8d 85 18 e3 ff ff 	lea    -0x1ce8(%rbp),%rax
    89f5:	48 89 85 28 e9 ff ff 	mov    %rax,-0x16d8(%rbp)
    89fc:	48 8d 85 18 e3 ff ff 	lea    -0x1ce8(%rbp),%rax
    8a03:	48 89 85 30 e9 ff ff 	mov    %rax,-0x16d0(%rbp)
    8a0a:	48 8d 85 18 e3 ff ff 	lea    -0x1ce8(%rbp),%rax
    8a11:	48 89 85 38 e9 ff ff 	mov    %rax,-0x16c8(%rbp)
    8a18:	48 8d 85 18 e3 ff ff 	lea    -0x1ce8(%rbp),%rax
    8a1f:	48 89 85 40 e9 ff ff 	mov    %rax,-0x16c0(%rbp)
    8a26:	48 8d 85 18 e3 ff ff 	lea    -0x1ce8(%rbp),%rax
    8a2d:	48 89 85 48 e9 ff ff 	mov    %rax,-0x16b8(%rbp)
    8a34:	48 8d 85 18 e3 ff ff 	lea    -0x1ce8(%rbp),%rax
    8a3b:	48 89 85 50 e9 ff ff 	mov    %rax,-0x16b0(%rbp)
    8a42:	48 8d 85 18 e3 ff ff 	lea    -0x1ce8(%rbp),%rax
    8a49:	48 89 85 58 e9 ff ff 	mov    %rax,-0x16a8(%rbp)
    8a50:	48 8d 85 18 e3 ff ff 	lea    -0x1ce8(%rbp),%rax
    8a57:	48 89 85 60 e9 ff ff 	mov    %rax,-0x16a0(%rbp)
    8a5e:	48 8d 85 18 e3 ff ff 	lea    -0x1ce8(%rbp),%rax
    8a65:	48 89 85 68 e9 ff ff 	mov    %rax,-0x1698(%rbp)
    8a6c:	48 8d 85 18 e3 ff ff 	lea    -0x1ce8(%rbp),%rax
    8a73:	48 89 85 70 e9 ff ff 	mov    %rax,-0x1690(%rbp)
    8a7a:	48 8d 85 18 e3 ff ff 	lea    -0x1ce8(%rbp),%rax
    8a81:	48 89 85 78 e9 ff ff 	mov    %rax,-0x1688(%rbp)
    8a88:	48 8d 85 18 e3 ff ff 	lea    -0x1ce8(%rbp),%rax
    8a8f:	48 89 85 80 e9 ff ff 	mov    %rax,-0x1680(%rbp)
    8a96:	48 8d 85 18 e3 ff ff 	lea    -0x1ce8(%rbp),%rax
    8a9d:	48 89 85 88 e9 ff ff 	mov    %rax,-0x1678(%rbp)
    8aa4:	48 8d 85 18 e3 ff ff 	lea    -0x1ce8(%rbp),%rax
    8aab:	48 89 85 90 e9 ff ff 	mov    %rax,-0x1670(%rbp)
    8ab2:	48 8d 85 18 e3 ff ff 	lea    -0x1ce8(%rbp),%rax
    8ab9:	48 89 85 98 e9 ff ff 	mov    %rax,-0x1668(%rbp)
    8ac0:	48 8d 85 18 e3 ff ff 	lea    -0x1ce8(%rbp),%rax
    8ac7:	48 89 85 a0 e9 ff ff 	mov    %rax,-0x1660(%rbp)
    8ace:	48 8d 85 18 e3 ff ff 	lea    -0x1ce8(%rbp),%rax
    8ad5:	48 89 85 a8 e9 ff ff 	mov    %rax,-0x1658(%rbp)
    8adc:	48 8d 85 18 e3 ff ff 	lea    -0x1ce8(%rbp),%rax
    8ae3:	48 89 85 b0 e9 ff ff 	mov    %rax,-0x1650(%rbp)
    8aea:	48 8d 85 18 e3 ff ff 	lea    -0x1ce8(%rbp),%rax
    8af1:	48 89 85 b8 e9 ff ff 	mov    %rax,-0x1648(%rbp)
    8af8:	48 8d 85 18 e3 ff ff 	lea    -0x1ce8(%rbp),%rax
    8aff:	48 89 85 c0 e9 ff ff 	mov    %rax,-0x1640(%rbp)
    8b06:	48 8d 85 18 e3 ff ff 	lea    -0x1ce8(%rbp),%rax
    8b0d:	48 89 85 c8 e9 ff ff 	mov    %rax,-0x1638(%rbp)
    8b14:	48 8d 85 18 e3 ff ff 	lea    -0x1ce8(%rbp),%rax
    8b1b:	48 89 85 d0 e9 ff ff 	mov    %rax,-0x1630(%rbp)
    8b22:	48 8d 85 18 e3 ff ff 	lea    -0x1ce8(%rbp),%rax
    8b29:	48 89 85 d8 e9 ff ff 	mov    %rax,-0x1628(%rbp)
    8b30:	48 8d 85 18 e3 ff ff 	lea    -0x1ce8(%rbp),%rax
    8b37:	48 89 85 e0 e9 ff ff 	mov    %rax,-0x1620(%rbp)
    8b3e:	48 c7 85 e8 e9 ff ff 	movq   $0x0,-0x1618(%rbp)
    8b45:	00 00 00 00 
    8b49:	48 8d 85 18 e3 ff ff 	lea    -0x1ce8(%rbp),%rax
    8b50:	48 89 85 f0 e9 ff ff 	mov    %rax,-0x1610(%rbp)
    8b57:	48 8d 85 18 e3 ff ff 	lea    -0x1ce8(%rbp),%rax
    8b5e:	48 89 85 f8 e9 ff ff 	mov    %rax,-0x1608(%rbp)
    8b65:	48 8d 85 18 e3 ff ff 	lea    -0x1ce8(%rbp),%rax
    8b6c:	48 89 85 00 ea ff ff 	mov    %rax,-0x1600(%rbp)
    8b73:	48 8d 85 18 e3 ff ff 	lea    -0x1ce8(%rbp),%rax
    8b7a:	48 89 85 08 ea ff ff 	mov    %rax,-0x15f8(%rbp)
    8b81:	48 8d 85 18 e3 ff ff 	lea    -0x1ce8(%rbp),%rax
    8b88:	48 89 85 10 ea ff ff 	mov    %rax,-0x15f0(%rbp)
    8b8f:	48 c7 85 18 ea ff ff 	movq   $0x0,-0x15e8(%rbp)
    8b96:	00 00 00 00 
    8b9a:	48 8d 85 18 e3 ff ff 	lea    -0x1ce8(%rbp),%rax
    8ba1:	48 89 85 20 ea ff ff 	mov    %rax,-0x15e0(%rbp)
    8ba8:	48 8d 85 18 e3 ff ff 	lea    -0x1ce8(%rbp),%rax
    8baf:	48 89 85 28 ea ff ff 	mov    %rax,-0x15d8(%rbp)
    8bb6:	48 8d 85 18 e3 ff ff 	lea    -0x1ce8(%rbp),%rax
    8bbd:	48 89 85 30 ea ff ff 	mov    %rax,-0x15d0(%rbp)
    8bc4:	48 8d 85 18 e3 ff ff 	lea    -0x1ce8(%rbp),%rax
    8bcb:	48 89 85 38 ea ff ff 	mov    %rax,-0x15c8(%rbp)
    8bd2:	48 8d 85 18 e3 ff ff 	lea    -0x1ce8(%rbp),%rax
    8bd9:	48 89 85 40 ea ff ff 	mov    %rax,-0x15c0(%rbp)
    8be0:	48 8d 85 18 e3 ff ff 	lea    -0x1ce8(%rbp),%rax
    8be7:	48 89 85 48 ea ff ff 	mov    %rax,-0x15b8(%rbp)
    8bee:	48 8d 85 18 e3 ff ff 	lea    -0x1ce8(%rbp),%rax
    8bf5:	48 89 85 50 ea ff ff 	mov    %rax,-0x15b0(%rbp)
    8bfc:	48 8d 85 18 e3 ff ff 	lea    -0x1ce8(%rbp),%rax
    8c03:	48 89 85 58 ea ff ff 	mov    %rax,-0x15a8(%rbp)
    8c0a:	48 8d 85 18 e3 ff ff 	lea    -0x1ce8(%rbp),%rax
    8c11:	48 89 85 60 ea ff ff 	mov    %rax,-0x15a0(%rbp)
    8c18:	48 8d 85 18 e3 ff ff 	lea    -0x1ce8(%rbp),%rax
    8c1f:	48 89 85 68 ea ff ff 	mov    %rax,-0x1598(%rbp)
    8c26:	48 8d 85 18 e3 ff ff 	lea    -0x1ce8(%rbp),%rax
    8c2d:	48 89 85 70 ea ff ff 	mov    %rax,-0x1590(%rbp)
    8c34:	48 8d 85 18 e3 ff ff 	lea    -0x1ce8(%rbp),%rax
    8c3b:	48 89 85 78 ea ff ff 	mov    %rax,-0x1588(%rbp)
    8c42:	48 8d 85 18 e3 ff ff 	lea    -0x1ce8(%rbp),%rax
    8c49:	48 89 85 80 ea ff ff 	mov    %rax,-0x1580(%rbp)
    8c50:	48 8d 85 18 e3 ff ff 	lea    -0x1ce8(%rbp),%rax
    8c57:	48 89 85 88 ea ff ff 	mov    %rax,-0x1578(%rbp)
    8c5e:	48 8d 85 18 e3 ff ff 	lea    -0x1ce8(%rbp),%rax
    8c65:	48 89 85 90 ea ff ff 	mov    %rax,-0x1570(%rbp)
    8c6c:	48 8d 85 18 e3 ff ff 	lea    -0x1ce8(%rbp),%rax
    8c73:	48 89 85 98 ea ff ff 	mov    %rax,-0x1568(%rbp)
    8c7a:	48 8d 85 18 e3 ff ff 	lea    -0x1ce8(%rbp),%rax
    8c81:	48 89 85 a0 ea ff ff 	mov    %rax,-0x1560(%rbp)
    8c88:	48 8d 85 18 e3 ff ff 	lea    -0x1ce8(%rbp),%rax
    8c8f:	48 89 85 a8 ea ff ff 	mov    %rax,-0x1558(%rbp)
    8c96:	48 8d 85 b0 e5 ff ff 	lea    -0x1a50(%rbp),%rax
    8c9d:	48 05 40 04 00 00    	add    $0x440,%rax
    8ca3:	48 89 85 20 e3 ff ff 	mov    %rax,-0x1ce0(%rbp)
    8caa:	48 8d 85 20 e3 ff ff 	lea    -0x1ce0(%rbp),%rax
    8cb1:	48 89 85 28 e3 ff ff 	mov    %rax,-0x1cd8(%rbp)
    8cb8:	c7 85 94 e2 ff ff 00 	movl   $0x0,-0x1d6c(%rbp)
    8cbf:	00 00 00 
    8cc2:	eb 1b                	jmp    8cdf <func_1+0x152a>
    8cc4:	8b 85 94 e2 ff ff    	mov    -0x1d6c(%rbp),%eax
    8cca:	48 98                	cltq   
    8ccc:	48 c7 84 c5 c0 e4 ff 	movq   $0x0,-0x1b40(%rbp,%rax,8)
    8cd3:	ff 00 00 00 00 
    8cd8:	83 85 94 e2 ff ff 01 	addl   $0x1,-0x1d6c(%rbp)
    8cdf:	83 bd 94 e2 ff ff 02 	cmpl   $0x2,-0x1d6c(%rbp)
    8ce6:	7e dc                	jle    8cc4 <func_1+0x150f>
    8ce8:	c7 85 94 e2 ff ff 00 	movl   $0x0,-0x1d6c(%rbp)
    8cef:	00 00 00 
    8cf2:	eb 1e                	jmp    8d12 <func_1+0x155d>
    8cf4:	8b 85 94 e2 ff ff    	mov    -0x1d6c(%rbp),%eax
    8cfa:	48 98                	cltq   
    8cfc:	48 8d 95 28 e3 ff ff 	lea    -0x1cd8(%rbp),%rdx
    8d03:	48 89 94 c5 a0 e4 ff 	mov    %rdx,-0x1b60(%rbp,%rax,8)
    8d0a:	ff 
    8d0b:	83 85 94 e2 ff ff 01 	addl   $0x1,-0x1d6c(%rbp)
    8d12:	83 bd 94 e2 ff ff 01 	cmpl   $0x1,-0x1d6c(%rbp)
    8d19:	7e d9                	jle    8cf4 <func_1+0x153f>
    8d1b:	c7 85 94 e2 ff ff 00 	movl   $0x0,-0x1d6c(%rbp)
    8d22:	00 00 00 
    8d25:	eb 19                	jmp    8d40 <func_1+0x158b>
    8d27:	8b 85 94 e2 ff ff    	mov    -0x1d6c(%rbp),%eax
    8d2d:	48 98                	cltq   
    8d2f:	66 c7 84 45 9c e4 ff 	movw   $0xf2ab,-0x1b64(%rbp,%rax,2)
    8d36:	ff ab f2 
    8d39:	83 85 94 e2 ff ff 01 	addl   $0x1,-0x1d6c(%rbp)
    8d40:	83 bd 94 e2 ff ff 01 	cmpl   $0x1,-0x1d6c(%rbp)
    8d47:	7e de                	jle    8d27 <func_1+0x1572>
    8d49:	8b 85 78 e2 ff ff    	mov    -0x1d88(%rbp),%eax
    8d4f:	48 98                	cltq   
    8d51:	8b 15 cd 12 01 00    	mov    0x112cd(%rip),%edx        # 1a024 <g_10>
    8d57:	89 d2                	mov    %edx,%edx
    8d59:	48 89 c6             	mov    %rax,%rsi
    8d5c:	48 89 d7             	mov    %rdx,%rdi
    8d5f:	e8 be 2a 00 00       	callq  b822 <func_7>
    8d64:	41 89 c7             	mov    %eax,%r15d
    8d67:	8b 85 78 e2 ff ff    	mov    -0x1d88(%rbp),%eax
    8d6d:	89 85 5c e2 ff ff    	mov    %eax,-0x1da4(%rbp)
    8d73:	b8 73 0f 00 00       	mov    $0xf73,%eax
    8d78:	89 c3                	mov    %eax,%ebx
    8d7a:	48 89 9d 50 e2 ff ff 	mov    %rbx,-0x1db0(%rbp)
    8d81:	44 8b ad bc e2 ff ff 	mov    -0x1d44(%rbp),%r13d
    8d88:	0f b6 05 0a 1c 01 00 	movzbl 0x11c0a(%rip),%eax        # 1a999 <g_772+0x9>
    8d8f:	83 e0 01             	and    $0x1,%eax
    8d92:	44 0f b6 e0          	movzbl %al,%r12d
    8d96:	0f b7 05 cf 1c 01 00 	movzwl 0x11ccf(%rip),%eax        # 1aa6c <g_1452+0x4>
    8d9d:	0f bf d8             	movswl %ax,%ebx
    8da0:	8b 85 78 e2 ff ff    	mov    -0x1d88(%rbp),%eax
    8da6:	4c 63 f0             	movslq %eax,%r14
    8da9:	8b 85 80 e2 ff ff    	mov    -0x1d80(%rbp),%eax
    8daf:	89 c1                	mov    %eax,%ecx
    8db1:	48 8b 85 48 e3 ff ff 	mov    -0x1cb8(%rbp),%rax
    8db8:	8b 00                	mov    (%rax),%eax
    8dba:	8d 50 01             	lea    0x1(%rax),%edx
    8dbd:	48 8b 85 48 e3 ff ff 	mov    -0x1cb8(%rbp),%rax
    8dc4:	89 10                	mov    %edx,(%rax)
    8dc6:	48 8b 85 48 e3 ff ff 	mov    -0x1cb8(%rbp),%rax
    8dcd:	8b 00                	mov    (%rax),%eax
    8dcf:	89 ce                	mov    %ecx,%esi
    8dd1:	89 c7                	mov    %eax,%edi
    8dd3:	e8 e0 e0 ff ff       	callq  6eb8 <safe_add_func_uint32_t_u_u>
    8dd8:	8b 05 46 12 01 00    	mov    0x11246(%rip),%eax        # 1a024 <g_10>
    8dde:	88 05 48 12 01 00    	mov    %al,0x11248(%rip)        # 1a02c <g_33>
    8de4:	0f b6 05 41 12 01 00 	movzbl 0x11241(%rip),%eax        # 1a02c <g_33>
    8deb:	0f b6 c0             	movzbl %al,%eax
    8dee:	89 c7                	mov    %eax,%edi
    8df0:	e8 4b 2b 00 00       	callq  b940 <func_22>
    8df5:	0f b6 c0             	movzbl %al,%eax
    8df8:	8b 15 b2 12 01 00    	mov    0x112b2(%rip),%edx        # 1a0b0 <g_209>
    8dfe:	81 e2 ff ff ff 01    	and    $0x1ffffff,%edx
    8e04:	39 d0                	cmp    %edx,%eax
    8e06:	0f 9e c0             	setle  %al
    8e09:	0f b6 c0             	movzbl %al,%eax
    8e0c:	4c 89 f6             	mov    %r14,%rsi
    8e0f:	48 89 c7             	mov    %rax,%rdi
    8e12:	e8 0b 2a 00 00       	callq  b822 <func_7>
    8e17:	89 c0                	mov    %eax,%eax
    8e19:	48 39 85 50 e3 ff ff 	cmp    %rax,-0x1cb0(%rbp)
    8e20:	0f 9f c0             	setg   %al
    8e23:	0f b6 c0             	movzbl %al,%eax
    8e26:	4c 8b 85 50 e2 ff ff 	mov    -0x1db0(%rbp),%r8
    8e2d:	44 89 e9             	mov    %r13d,%ecx
    8e30:	4c 89 e2             	mov    %r12,%rdx
    8e33:	89 de                	mov    %ebx,%esi
    8e35:	89 c7                	mov    %eax,%edi
    8e37:	e8 61 2a 00 00       	callq  b89d <func_16>
    8e3c:	48 89 c2             	mov    %rax,%rdx
    8e3f:	48 8b 85 50 e3 ff ff 	mov    -0x1cb0(%rbp),%rax
    8e46:	48 89 c6             	mov    %rax,%rsi
    8e49:	48 89 d7             	mov    %rdx,%rdi
    8e4c:	e8 d1 29 00 00       	callq  b822 <func_7>
    8e51:	89 c2                	mov    %eax,%edx
    8e53:	0f b7 85 6c e2 ff ff 	movzwl -0x1d94(%rbp),%eax
    8e5a:	48 89 d6             	mov    %rdx,%rsi
    8e5d:	48 89 c7             	mov    %rax,%rdi
    8e60:	e8 bd 29 00 00       	callq  b822 <func_7>
    8e65:	8b b5 5c e2 ff ff    	mov    -0x1da4(%rbp),%esi
    8e6b:	89 c7                	mov    %eax,%edi
    8e6d:	e8 cc 29 00 00       	callq  b83e <func_12>
    8e72:	41 39 c7             	cmp    %eax,%r15d
    8e75:	0f 92 c0             	setb   %al
    8e78:	0f b6 c0             	movzbl %al,%eax
    8e7b:	48 be 76 5e 65 55 c3 	movabs $0xa11f16c355655e76,%rsi
    8e82:	16 1f a1 
    8e85:	48 89 c7             	mov    %rax,%rdi
    8e88:	e8 22 e2 ff ff       	callq  70af <safe_div_func_uint64_t_u_u>
    8e8d:	8b 95 80 e2 ff ff    	mov    -0x1d80(%rbp),%edx
    8e93:	48 63 d2             	movslq %edx,%rdx
    8e96:	48 39 d0             	cmp    %rdx,%rax
    8e99:	0f 92 c0             	setb   %al
    8e9c:	0f b6 d0             	movzbl %al,%edx
    8e9f:	8b 85 78 e2 ff ff    	mov    -0x1d88(%rbp),%eax
    8ea5:	39 c2                	cmp    %eax,%edx
    8ea7:	0f 94 c0             	sete   %al
    8eaa:	0f b6 d0             	movzbl %al,%edx
    8ead:	8b 85 78 e2 ff ff    	mov    -0x1d88(%rbp),%eax
    8eb3:	0f b7 c0             	movzwl %ax,%eax
    8eb6:	89 d6                	mov    %edx,%esi
    8eb8:	89 c7                	mov    %eax,%edi
    8eba:	e8 40 de ff ff       	callq  6cff <safe_add_func_uint16_t_u_u>
    8ebf:	66 85 c0             	test   %ax,%ax
    8ec2:	0f 84 e2 19 00 00    	je     a8aa <func_1+0x30f5>
    8ec8:	48 8d 05 79 23 01 00 	lea    0x12379(%rip),%rax        # 1b248 <g_92+0x8>
    8ecf:	48 89 85 d8 e3 ff ff 	mov    %rax,-0x1c28(%rbp)
    8ed6:	48 8d 85 00 e5 ff ff 	lea    -0x1b00(%rbp),%rax
    8edd:	48 83 c0 08          	add    $0x8,%rax
    8ee1:	48 89 85 40 f1 ff ff 	mov    %rax,-0xec0(%rbp)
    8ee8:	48 c7 85 48 f1 ff ff 	movq   $0x0,-0xeb8(%rbp)
    8eef:	00 00 00 00 
    8ef3:	48 8d 85 00 e5 ff ff 	lea    -0x1b00(%rbp),%rax
    8efa:	48 83 c0 08          	add    $0x8,%rax
    8efe:	48 89 85 50 f1 ff ff 	mov    %rax,-0xeb0(%rbp)
    8f05:	48 c7 85 58 f1 ff ff 	movq   $0x0,-0xea8(%rbp)
    8f0c:	00 00 00 00 
    8f10:	48 c7 85 60 f1 ff ff 	movq   $0x0,-0xea0(%rbp)
    8f17:	00 00 00 00 
    8f1b:	48 8d 85 00 e5 ff ff 	lea    -0x1b00(%rbp),%rax
    8f22:	48 83 c0 08          	add    $0x8,%rax
    8f26:	48 89 85 68 f1 ff ff 	mov    %rax,-0xe98(%rbp)
    8f2d:	48 8d 85 00 e5 ff ff 	lea    -0x1b00(%rbp),%rax
    8f34:	48 83 c0 08          	add    $0x8,%rax
    8f38:	48 89 85 70 f1 ff ff 	mov    %rax,-0xe90(%rbp)
    8f3f:	48 c7 85 78 f1 ff ff 	movq   $0x0,-0xe88(%rbp)
    8f46:	00 00 00 00 
    8f4a:	48 8d 85 00 e5 ff ff 	lea    -0x1b00(%rbp),%rax
    8f51:	48 89 85 80 f1 ff ff 	mov    %rax,-0xe80(%rbp)
    8f58:	48 c7 85 88 f1 ff ff 	movq   $0x0,-0xe78(%rbp)
    8f5f:	00 00 00 00 
    8f63:	48 8d 85 00 e5 ff ff 	lea    -0x1b00(%rbp),%rax
    8f6a:	48 83 c0 08          	add    $0x8,%rax
    8f6e:	48 89 85 90 f1 ff ff 	mov    %rax,-0xe70(%rbp)
    8f75:	48 8d 85 00 e5 ff ff 	lea    -0x1b00(%rbp),%rax
    8f7c:	48 83 c0 08          	add    $0x8,%rax
    8f80:	48 89 85 98 f1 ff ff 	mov    %rax,-0xe68(%rbp)
    8f87:	48 8d 85 00 e5 ff ff 	lea    -0x1b00(%rbp),%rax
    8f8e:	48 89 85 a0 f1 ff ff 	mov    %rax,-0xe60(%rbp)
    8f95:	48 8d 85 00 e5 ff ff 	lea    -0x1b00(%rbp),%rax
    8f9c:	48 83 c0 08          	add    $0x8,%rax
    8fa0:	48 89 85 a8 f1 ff ff 	mov    %rax,-0xe58(%rbp)
    8fa7:	48 8d 85 00 e5 ff ff 	lea    -0x1b00(%rbp),%rax
    8fae:	48 83 c0 08          	add    $0x8,%rax
    8fb2:	48 89 85 b0 f1 ff ff 	mov    %rax,-0xe50(%rbp)
    8fb9:	48 8d 85 00 e5 ff ff 	lea    -0x1b00(%rbp),%rax
    8fc0:	48 89 85 b8 f1 ff ff 	mov    %rax,-0xe48(%rbp)
    8fc7:	48 8d 85 00 e5 ff ff 	lea    -0x1b00(%rbp),%rax
    8fce:	48 83 c0 08          	add    $0x8,%rax
    8fd2:	48 89 85 c0 f1 ff ff 	mov    %rax,-0xe40(%rbp)
    8fd9:	48 8d 85 00 e5 ff ff 	lea    -0x1b00(%rbp),%rax
    8fe0:	48 83 c0 08          	add    $0x8,%rax
    8fe4:	48 89 85 c8 f1 ff ff 	mov    %rax,-0xe38(%rbp)
    8feb:	48 8d 85 00 e5 ff ff 	lea    -0x1b00(%rbp),%rax
    8ff2:	48 83 c0 08          	add    $0x8,%rax
    8ff6:	48 89 85 d0 f1 ff ff 	mov    %rax,-0xe30(%rbp)
    8ffd:	48 8d 85 00 e5 ff ff 	lea    -0x1b00(%rbp),%rax
    9004:	48 83 c0 08          	add    $0x8,%rax
    9008:	48 89 85 d8 f1 ff ff 	mov    %rax,-0xe28(%rbp)
    900f:	48 8d 85 00 e5 ff ff 	lea    -0x1b00(%rbp),%rax
    9016:	48 83 c0 10          	add    $0x10,%rax
    901a:	48 89 85 e0 f1 ff ff 	mov    %rax,-0xe20(%rbp)
    9021:	48 c7 85 e8 f1 ff ff 	movq   $0x0,-0xe18(%rbp)
    9028:	00 00 00 00 
    902c:	48 c7 85 f0 f1 ff ff 	movq   $0x0,-0xe10(%rbp)
    9033:	00 00 00 00 
    9037:	48 c7 85 f8 f1 ff ff 	movq   $0x0,-0xe08(%rbp)
    903e:	00 00 00 00 
    9042:	48 8d 85 00 e5 ff ff 	lea    -0x1b00(%rbp),%rax
    9049:	48 83 c0 08          	add    $0x8,%rax
    904d:	48 89 85 00 f2 ff ff 	mov    %rax,-0xe00(%rbp)
    9054:	48 8d 85 00 e5 ff ff 	lea    -0x1b00(%rbp),%rax
    905b:	48 83 c0 08          	add    $0x8,%rax
    905f:	48 89 85 08 f2 ff ff 	mov    %rax,-0xdf8(%rbp)
    9066:	48 8d 85 00 e5 ff ff 	lea    -0x1b00(%rbp),%rax
    906d:	48 83 c0 08          	add    $0x8,%rax
    9071:	48 89 85 10 f2 ff ff 	mov    %rax,-0xdf0(%rbp)
    9078:	48 c7 85 18 f2 ff ff 	movq   $0x0,-0xde8(%rbp)
    907f:	00 00 00 00 
    9083:	48 8d 85 00 e5 ff ff 	lea    -0x1b00(%rbp),%rax
    908a:	48 89 85 20 f2 ff ff 	mov    %rax,-0xde0(%rbp)
    9091:	48 c7 85 28 f2 ff ff 	movq   $0x0,-0xdd8(%rbp)
    9098:	00 00 00 00 
    909c:	48 8d 85 00 e5 ff ff 	lea    -0x1b00(%rbp),%rax
    90a3:	48 89 85 30 f2 ff ff 	mov    %rax,-0xdd0(%rbp)
    90aa:	48 8d 85 00 e5 ff ff 	lea    -0x1b00(%rbp),%rax
    90b1:	48 83 c0 08          	add    $0x8,%rax
    90b5:	48 89 85 38 f2 ff ff 	mov    %rax,-0xdc8(%rbp)
    90bc:	48 8d 85 00 e5 ff ff 	lea    -0x1b00(%rbp),%rax
    90c3:	48 89 85 40 f2 ff ff 	mov    %rax,-0xdc0(%rbp)
    90ca:	48 8d 85 00 e5 ff ff 	lea    -0x1b00(%rbp),%rax
    90d1:	48 83 c0 08          	add    $0x8,%rax
    90d5:	48 89 85 48 f2 ff ff 	mov    %rax,-0xdb8(%rbp)
    90dc:	48 8d 85 00 e5 ff ff 	lea    -0x1b00(%rbp),%rax
    90e3:	48 83 c0 08          	add    $0x8,%rax
    90e7:	48 89 85 50 f2 ff ff 	mov    %rax,-0xdb0(%rbp)
    90ee:	48 8d 85 00 e5 ff ff 	lea    -0x1b00(%rbp),%rax
    90f5:	48 89 85 58 f2 ff ff 	mov    %rax,-0xda8(%rbp)
    90fc:	48 c7 85 60 f2 ff ff 	movq   $0x0,-0xda0(%rbp)
    9103:	00 00 00 00 
    9107:	48 8d 85 00 e5 ff ff 	lea    -0x1b00(%rbp),%rax
    910e:	48 83 c0 08          	add    $0x8,%rax
    9112:	48 89 85 68 f2 ff ff 	mov    %rax,-0xd98(%rbp)
    9119:	48 c7 85 70 f2 ff ff 	movq   $0x0,-0xd90(%rbp)
    9120:	00 00 00 00 
    9124:	48 8d 85 00 e5 ff ff 	lea    -0x1b00(%rbp),%rax
    912b:	48 83 c0 08          	add    $0x8,%rax
    912f:	48 89 85 78 f2 ff ff 	mov    %rax,-0xd88(%rbp)
    9136:	48 8d 85 00 e5 ff ff 	lea    -0x1b00(%rbp),%rax
    913d:	48 83 c0 08          	add    $0x8,%rax
    9141:	48 89 85 80 f2 ff ff 	mov    %rax,-0xd80(%rbp)
    9148:	48 c7 85 88 f2 ff ff 	movq   $0x0,-0xd78(%rbp)
    914f:	00 00 00 00 
    9153:	48 8d 85 00 e5 ff ff 	lea    -0x1b00(%rbp),%rax
    915a:	48 83 c0 08          	add    $0x8,%rax
    915e:	48 89 85 90 f2 ff ff 	mov    %rax,-0xd70(%rbp)
    9165:	48 c7 85 98 f2 ff ff 	movq   $0x0,-0xd68(%rbp)
    916c:	00 00 00 00 
    9170:	48 c7 85 a0 f2 ff ff 	movq   $0x0,-0xd60(%rbp)
    9177:	00 00 00 00 
    917b:	48 8d 85 00 e5 ff ff 	lea    -0x1b00(%rbp),%rax
    9182:	48 83 c0 08          	add    $0x8,%rax
    9186:	48 89 85 a8 f2 ff ff 	mov    %rax,-0xd58(%rbp)
    918d:	48 8d 85 00 e5 ff ff 	lea    -0x1b00(%rbp),%rax
    9194:	48 83 c0 08          	add    $0x8,%rax
    9198:	48 89 85 b0 f2 ff ff 	mov    %rax,-0xd50(%rbp)
    919f:	48 c7 85 b8 f2 ff ff 	movq   $0x0,-0xd48(%rbp)
    91a6:	00 00 00 00 
    91aa:	48 8d 85 00 e5 ff ff 	lea    -0x1b00(%rbp),%rax
    91b1:	48 89 85 c0 f2 ff ff 	mov    %rax,-0xd40(%rbp)
    91b8:	48 c7 85 c8 f2 ff ff 	movq   $0x0,-0xd38(%rbp)
    91bf:	00 00 00 00 
    91c3:	48 8d 85 00 e5 ff ff 	lea    -0x1b00(%rbp),%rax
    91ca:	48 83 c0 08          	add    $0x8,%rax
    91ce:	48 89 85 d0 f2 ff ff 	mov    %rax,-0xd30(%rbp)
    91d5:	48 8d 85 00 e5 ff ff 	lea    -0x1b00(%rbp),%rax
    91dc:	48 83 c0 08          	add    $0x8,%rax
    91e0:	48 89 85 d8 f2 ff ff 	mov    %rax,-0xd28(%rbp)
    91e7:	48 8d 85 00 e5 ff ff 	lea    -0x1b00(%rbp),%rax
    91ee:	48 89 85 e0 f2 ff ff 	mov    %rax,-0xd20(%rbp)
    91f5:	48 8d 85 00 e5 ff ff 	lea    -0x1b00(%rbp),%rax
    91fc:	48 83 c0 08          	add    $0x8,%rax
    9200:	48 89 85 e8 f2 ff ff 	mov    %rax,-0xd18(%rbp)
    9207:	48 8d 85 00 e5 ff ff 	lea    -0x1b00(%rbp),%rax
    920e:	48 83 c0 08          	add    $0x8,%rax
    9212:	48 89 85 f0 f2 ff ff 	mov    %rax,-0xd10(%rbp)
    9219:	48 8d 85 00 e5 ff ff 	lea    -0x1b00(%rbp),%rax
    9220:	48 89 85 f8 f2 ff ff 	mov    %rax,-0xd08(%rbp)
    9227:	48 8d 85 00 e5 ff ff 	lea    -0x1b00(%rbp),%rax
    922e:	48 83 c0 08          	add    $0x8,%rax
    9232:	48 89 85 00 f3 ff ff 	mov    %rax,-0xd00(%rbp)
    9239:	48 8d 85 00 e5 ff ff 	lea    -0x1b00(%rbp),%rax
    9240:	48 83 c0 08          	add    $0x8,%rax
    9244:	48 89 85 08 f3 ff ff 	mov    %rax,-0xcf8(%rbp)
    924b:	48 8d 85 00 e5 ff ff 	lea    -0x1b00(%rbp),%rax
    9252:	48 83 c0 08          	add    $0x8,%rax
    9256:	48 89 85 10 f3 ff ff 	mov    %rax,-0xcf0(%rbp)
    925d:	48 8d 85 00 e5 ff ff 	lea    -0x1b00(%rbp),%rax
    9264:	48 83 c0 08          	add    $0x8,%rax
    9268:	48 89 85 18 f3 ff ff 	mov    %rax,-0xce8(%rbp)
    926f:	48 8d 85 00 e5 ff ff 	lea    -0x1b00(%rbp),%rax
    9276:	48 83 c0 10          	add    $0x10,%rax
    927a:	48 89 85 20 f3 ff ff 	mov    %rax,-0xce0(%rbp)
    9281:	48 c7 85 28 f3 ff ff 	movq   $0x0,-0xcd8(%rbp)
    9288:	00 00 00 00 
    928c:	48 c7 85 30 f3 ff ff 	movq   $0x0,-0xcd0(%rbp)
    9293:	00 00 00 00 
    9297:	48 c7 85 38 f3 ff ff 	movq   $0x0,-0xcc8(%rbp)
    929e:	00 00 00 00 
    92a2:	48 8d 85 00 e5 ff ff 	lea    -0x1b00(%rbp),%rax
    92a9:	48 83 c0 08          	add    $0x8,%rax
    92ad:	48 89 85 40 f3 ff ff 	mov    %rax,-0xcc0(%rbp)
    92b4:	48 8d 85 00 e5 ff ff 	lea    -0x1b00(%rbp),%rax
    92bb:	48 83 c0 08          	add    $0x8,%rax
    92bf:	48 89 85 48 f3 ff ff 	mov    %rax,-0xcb8(%rbp)
    92c6:	48 8d 85 00 e5 ff ff 	lea    -0x1b00(%rbp),%rax
    92cd:	48 83 c0 08          	add    $0x8,%rax
    92d1:	48 89 85 50 f3 ff ff 	mov    %rax,-0xcb0(%rbp)
    92d8:	48 c7 85 58 f3 ff ff 	movq   $0x0,-0xca8(%rbp)
    92df:	00 00 00 00 
    92e3:	48 8d 85 00 e5 ff ff 	lea    -0x1b00(%rbp),%rax
    92ea:	48 89 85 60 f3 ff ff 	mov    %rax,-0xca0(%rbp)
    92f1:	48 c7 85 68 f3 ff ff 	movq   $0x0,-0xc98(%rbp)
    92f8:	00 00 00 00 
    92fc:	48 8d 85 00 e5 ff ff 	lea    -0x1b00(%rbp),%rax
    9303:	48 89 85 70 f3 ff ff 	mov    %rax,-0xc90(%rbp)
    930a:	48 8d 85 00 e5 ff ff 	lea    -0x1b00(%rbp),%rax
    9311:	48 83 c0 08          	add    $0x8,%rax
    9315:	48 89 85 78 f3 ff ff 	mov    %rax,-0xc88(%rbp)
    931c:	48 8d 85 00 e5 ff ff 	lea    -0x1b00(%rbp),%rax
    9323:	48 89 85 80 f3 ff ff 	mov    %rax,-0xc80(%rbp)
    932a:	48 8d 85 00 e5 ff ff 	lea    -0x1b00(%rbp),%rax
    9331:	48 83 c0 08          	add    $0x8,%rax
    9335:	48 89 85 88 f3 ff ff 	mov    %rax,-0xc78(%rbp)
    933c:	48 8d 85 00 e5 ff ff 	lea    -0x1b00(%rbp),%rax
    9343:	48 83 c0 08          	add    $0x8,%rax
    9347:	48 89 85 90 f3 ff ff 	mov    %rax,-0xc70(%rbp)
    934e:	48 8d 85 00 e5 ff ff 	lea    -0x1b00(%rbp),%rax
    9355:	48 89 85 98 f3 ff ff 	mov    %rax,-0xc68(%rbp)
    935c:	48 c7 85 a0 f3 ff ff 	movq   $0x0,-0xc60(%rbp)
    9363:	00 00 00 00 
    9367:	48 8d 85 00 e5 ff ff 	lea    -0x1b00(%rbp),%rax
    936e:	48 83 c0 08          	add    $0x8,%rax
    9372:	48 89 85 a8 f3 ff ff 	mov    %rax,-0xc58(%rbp)
    9379:	48 c7 85 b0 f3 ff ff 	movq   $0x0,-0xc50(%rbp)
    9380:	00 00 00 00 
    9384:	48 8d 85 00 e5 ff ff 	lea    -0x1b00(%rbp),%rax
    938b:	48 83 c0 08          	add    $0x8,%rax
    938f:	48 89 85 b8 f3 ff ff 	mov    %rax,-0xc48(%rbp)
    9396:	48 8d 85 00 e5 ff ff 	lea    -0x1b00(%rbp),%rax
    939d:	48 83 c0 08          	add    $0x8,%rax
    93a1:	48 89 85 c0 f3 ff ff 	mov    %rax,-0xc40(%rbp)
    93a8:	48 c7 85 c8 f3 ff ff 	movq   $0x0,-0xc38(%rbp)
    93af:	00 00 00 00 
    93b3:	48 8d 85 00 e5 ff ff 	lea    -0x1b00(%rbp),%rax
    93ba:	48 83 c0 08          	add    $0x8,%rax
    93be:	48 89 85 d0 f3 ff ff 	mov    %rax,-0xc30(%rbp)
    93c5:	48 c7 85 d8 f3 ff ff 	movq   $0x0,-0xc28(%rbp)
    93cc:	00 00 00 00 
    93d0:	48 c7 85 e0 f3 ff ff 	movq   $0x0,-0xc20(%rbp)
    93d7:	00 00 00 00 
    93db:	48 8d 85 00 e5 ff ff 	lea    -0x1b00(%rbp),%rax
    93e2:	48 83 c0 08          	add    $0x8,%rax
    93e6:	48 89 85 e8 f3 ff ff 	mov    %rax,-0xc18(%rbp)
    93ed:	48 8d 85 00 e5 ff ff 	lea    -0x1b00(%rbp),%rax
    93f4:	48 83 c0 08          	add    $0x8,%rax
    93f8:	48 89 85 f0 f3 ff ff 	mov    %rax,-0xc10(%rbp)
    93ff:	48 c7 85 f8 f3 ff ff 	movq   $0x0,-0xc08(%rbp)
    9406:	00 00 00 00 
    940a:	48 8d 85 00 e5 ff ff 	lea    -0x1b00(%rbp),%rax
    9411:	48 89 85 00 f4 ff ff 	mov    %rax,-0xc00(%rbp)
    9418:	48 c7 85 08 f4 ff ff 	movq   $0x0,-0xbf8(%rbp)
    941f:	00 00 00 00 
    9423:	48 8d 85 00 e5 ff ff 	lea    -0x1b00(%rbp),%rax
    942a:	48 83 c0 08          	add    $0x8,%rax
    942e:	48 89 85 10 f4 ff ff 	mov    %rax,-0xbf0(%rbp)
    9435:	48 8d 85 00 e5 ff ff 	lea    -0x1b00(%rbp),%rax
    943c:	48 83 c0 08          	add    $0x8,%rax
    9440:	48 89 85 18 f4 ff ff 	mov    %rax,-0xbe8(%rbp)
    9447:	48 8d 85 00 e5 ff ff 	lea    -0x1b00(%rbp),%rax
    944e:	48 89 85 20 f4 ff ff 	mov    %rax,-0xbe0(%rbp)
    9455:	48 8d 85 00 e5 ff ff 	lea    -0x1b00(%rbp),%rax
    945c:	48 83 c0 08          	add    $0x8,%rax
    9460:	48 89 85 28 f4 ff ff 	mov    %rax,-0xbd8(%rbp)
    9467:	48 8d 85 00 e5 ff ff 	lea    -0x1b00(%rbp),%rax
    946e:	48 83 c0 08          	add    $0x8,%rax
    9472:	48 89 85 30 f4 ff ff 	mov    %rax,-0xbd0(%rbp)
    9479:	48 8d 85 00 e5 ff ff 	lea    -0x1b00(%rbp),%rax
    9480:	48 89 85 38 f4 ff ff 	mov    %rax,-0xbc8(%rbp)
    9487:	48 8d 85 00 e5 ff ff 	lea    -0x1b00(%rbp),%rax
    948e:	48 83 c0 08          	add    $0x8,%rax
    9492:	48 89 85 40 f4 ff ff 	mov    %rax,-0xbc0(%rbp)
    9499:	48 8d 85 00 e5 ff ff 	lea    -0x1b00(%rbp),%rax
    94a0:	48 83 c0 08          	add    $0x8,%rax
    94a4:	48 89 85 48 f4 ff ff 	mov    %rax,-0xbb8(%rbp)
    94ab:	48 8d 85 00 e5 ff ff 	lea    -0x1b00(%rbp),%rax
    94b2:	48 83 c0 08          	add    $0x8,%rax
    94b6:	48 89 85 50 f4 ff ff 	mov    %rax,-0xbb0(%rbp)
    94bd:	48 8d 85 00 e5 ff ff 	lea    -0x1b00(%rbp),%rax
    94c4:	48 83 c0 08          	add    $0x8,%rax
    94c8:	48 89 85 58 f4 ff ff 	mov    %rax,-0xba8(%rbp)
    94cf:	48 8d 85 00 e5 ff ff 	lea    -0x1b00(%rbp),%rax
    94d6:	48 83 c0 10          	add    $0x10,%rax
    94da:	48 89 85 60 f4 ff ff 	mov    %rax,-0xba0(%rbp)
    94e1:	48 c7 85 68 f4 ff ff 	movq   $0x0,-0xb98(%rbp)
    94e8:	00 00 00 00 
    94ec:	48 8d 85 00 e5 ff ff 	lea    -0x1b00(%rbp),%rax
    94f3:	48 83 c0 08          	add    $0x8,%rax
    94f7:	48 89 85 70 f4 ff ff 	mov    %rax,-0xb90(%rbp)
    94fe:	48 8d 85 00 e5 ff ff 	lea    -0x1b00(%rbp),%rax
    9505:	48 83 c0 08          	add    $0x8,%rax
    9509:	48 89 85 78 f4 ff ff 	mov    %rax,-0xb88(%rbp)
    9510:	48 8d 85 00 e5 ff ff 	lea    -0x1b00(%rbp),%rax
    9517:	48 83 c0 08          	add    $0x8,%rax
    951b:	48 89 85 80 f4 ff ff 	mov    %rax,-0xb80(%rbp)
    9522:	48 8d 85 00 e5 ff ff 	lea    -0x1b00(%rbp),%rax
    9529:	48 83 c0 08          	add    $0x8,%rax
    952d:	48 89 85 88 f4 ff ff 	mov    %rax,-0xb78(%rbp)
    9534:	48 8d 85 00 e5 ff ff 	lea    -0x1b00(%rbp),%rax
    953b:	48 83 c0 08          	add    $0x8,%rax
    953f:	48 89 85 90 f4 ff ff 	mov    %rax,-0xb70(%rbp)
    9546:	48 8d 85 00 e5 ff ff 	lea    -0x1b00(%rbp),%rax
    954d:	48 83 c0 08          	add    $0x8,%rax
    9551:	48 89 85 98 f4 ff ff 	mov    %rax,-0xb68(%rbp)
    9558:	48 8d 85 00 e5 ff ff 	lea    -0x1b00(%rbp),%rax
    955f:	48 83 c0 10          	add    $0x10,%rax
    9563:	48 89 85 a0 f4 ff ff 	mov    %rax,-0xb60(%rbp)
    956a:	48 8d 85 00 e5 ff ff 	lea    -0x1b00(%rbp),%rax
    9571:	48 83 c0 08          	add    $0x8,%rax
    9575:	48 89 85 a8 f4 ff ff 	mov    %rax,-0xb58(%rbp)
    957c:	48 c7 85 b0 f4 ff ff 	movq   $0x0,-0xb50(%rbp)
    9583:	00 00 00 00 
    9587:	48 8d 85 00 e5 ff ff 	lea    -0x1b00(%rbp),%rax
    958e:	48 89 85 b8 f4 ff ff 	mov    %rax,-0xb48(%rbp)
    9595:	48 c7 85 c0 f4 ff ff 	movq   $0x0,-0xb40(%rbp)
    959c:	00 00 00 00 
    95a0:	48 8d 85 00 e5 ff ff 	lea    -0x1b00(%rbp),%rax
    95a7:	48 89 85 c8 f4 ff ff 	mov    %rax,-0xb38(%rbp)
    95ae:	48 8d 85 00 e5 ff ff 	lea    -0x1b00(%rbp),%rax
    95b5:	48 83 c0 08          	add    $0x8,%rax
    95b9:	48 89 85 d0 f4 ff ff 	mov    %rax,-0xb30(%rbp)
    95c0:	48 c7 85 d8 f4 ff ff 	movq   $0x0,-0xb28(%rbp)
    95c7:	00 00 00 00 
    95cb:	48 8d 85 00 e5 ff ff 	lea    -0x1b00(%rbp),%rax
    95d2:	48 83 c0 10          	add    $0x10,%rax
    95d6:	48 89 85 e0 f4 ff ff 	mov    %rax,-0xb20(%rbp)
    95dd:	48 8d 85 00 e5 ff ff 	lea    -0x1b00(%rbp),%rax
    95e4:	48 89 85 e8 f4 ff ff 	mov    %rax,-0xb18(%rbp)
    95eb:	48 8d 85 00 e5 ff ff 	lea    -0x1b00(%rbp),%rax
    95f2:	48 83 c0 08          	add    $0x8,%rax
    95f6:	48 89 85 f0 f4 ff ff 	mov    %rax,-0xb10(%rbp)
    95fd:	48 8d 85 00 e5 ff ff 	lea    -0x1b00(%rbp),%rax
    9604:	48 89 85 f8 f4 ff ff 	mov    %rax,-0xb08(%rbp)
    960b:	48 8d 85 00 e5 ff ff 	lea    -0x1b00(%rbp),%rax
    9612:	48 89 85 00 f5 ff ff 	mov    %rax,-0xb00(%rbp)
    9619:	48 8d 85 00 e5 ff ff 	lea    -0x1b00(%rbp),%rax
    9620:	48 83 c0 08          	add    $0x8,%rax
    9624:	48 89 85 08 f5 ff ff 	mov    %rax,-0xaf8(%rbp)
    962b:	48 8d 85 00 e5 ff ff 	lea    -0x1b00(%rbp),%rax
    9632:	48 83 c0 08          	add    $0x8,%rax
    9636:	48 89 85 10 f5 ff ff 	mov    %rax,-0xaf0(%rbp)
    963d:	48 8d 85 00 e5 ff ff 	lea    -0x1b00(%rbp),%rax
    9644:	48 83 c0 08          	add    $0x8,%rax
    9648:	48 89 85 18 f5 ff ff 	mov    %rax,-0xae8(%rbp)
    964f:	48 8d 85 00 e5 ff ff 	lea    -0x1b00(%rbp),%rax
    9656:	48 83 c0 10          	add    $0x10,%rax
    965a:	48 89 85 20 f5 ff ff 	mov    %rax,-0xae0(%rbp)
    9661:	48 8d 85 00 e5 ff ff 	lea    -0x1b00(%rbp),%rax
    9668:	48 83 c0 08          	add    $0x8,%rax
    966c:	48 89 85 28 f5 ff ff 	mov    %rax,-0xad8(%rbp)
    9673:	48 8d 85 00 e5 ff ff 	lea    -0x1b00(%rbp),%rax
    967a:	48 89 85 30 f5 ff ff 	mov    %rax,-0xad0(%rbp)
    9681:	48 8d 85 00 e5 ff ff 	lea    -0x1b00(%rbp),%rax
    9688:	48 83 c0 08          	add    $0x8,%rax
    968c:	48 89 85 38 f5 ff ff 	mov    %rax,-0xac8(%rbp)
    9693:	48 c7 85 40 f5 ff ff 	movq   $0x0,-0xac0(%rbp)
    969a:	00 00 00 00 
    969e:	48 8d 85 00 e5 ff ff 	lea    -0x1b00(%rbp),%rax
    96a5:	48 83 c0 08          	add    $0x8,%rax
    96a9:	48 89 85 48 f5 ff ff 	mov    %rax,-0xab8(%rbp)
    96b0:	48 8d 85 00 e5 ff ff 	lea    -0x1b00(%rbp),%rax
    96b7:	48 83 c0 08          	add    $0x8,%rax
    96bb:	48 89 85 50 f5 ff ff 	mov    %rax,-0xab0(%rbp)
    96c2:	48 8d 85 00 e5 ff ff 	lea    -0x1b00(%rbp),%rax
    96c9:	48 89 85 58 f5 ff ff 	mov    %rax,-0xaa8(%rbp)
    96d0:	48 8d 85 00 e5 ff ff 	lea    -0x1b00(%rbp),%rax
    96d7:	48 83 c0 10          	add    $0x10,%rax
    96db:	48 89 85 60 f5 ff ff 	mov    %rax,-0xaa0(%rbp)
    96e2:	48 8d 85 00 e5 ff ff 	lea    -0x1b00(%rbp),%rax
    96e9:	48 89 85 68 f5 ff ff 	mov    %rax,-0xa98(%rbp)
    96f0:	48 8d 85 00 e5 ff ff 	lea    -0x1b00(%rbp),%rax
    96f7:	48 89 85 70 f5 ff ff 	mov    %rax,-0xa90(%rbp)
    96fe:	48 c7 85 78 f5 ff ff 	movq   $0x0,-0xa88(%rbp)
    9705:	00 00 00 00 
    9709:	48 8d 85 00 e5 ff ff 	lea    -0x1b00(%rbp),%rax
    9710:	48 83 c0 08          	add    $0x8,%rax
    9714:	48 89 85 80 f5 ff ff 	mov    %rax,-0xa80(%rbp)
    971b:	48 8d 85 00 e5 ff ff 	lea    -0x1b00(%rbp),%rax
    9722:	48 89 85 88 f5 ff ff 	mov    %rax,-0xa78(%rbp)
    9729:	48 8d 85 00 e5 ff ff 	lea    -0x1b00(%rbp),%rax
    9730:	48 83 c0 08          	add    $0x8,%rax
    9734:	48 89 85 90 f5 ff ff 	mov    %rax,-0xa70(%rbp)
    973b:	48 8d 85 00 e5 ff ff 	lea    -0x1b00(%rbp),%rax
    9742:	48 89 85 98 f5 ff ff 	mov    %rax,-0xa68(%rbp)
    9749:	48 8d 85 00 e5 ff ff 	lea    -0x1b00(%rbp),%rax
    9750:	48 89 85 a0 f5 ff ff 	mov    %rax,-0xa60(%rbp)
    9757:	48 8d 85 00 e5 ff ff 	lea    -0x1b00(%rbp),%rax
    975e:	48 83 c0 08          	add    $0x8,%rax
    9762:	48 89 85 a8 f5 ff ff 	mov    %rax,-0xa58(%rbp)
    9769:	48 8d 85 00 e5 ff ff 	lea    -0x1b00(%rbp),%rax
    9770:	48 83 c0 08          	add    $0x8,%rax
    9774:	48 89 85 b0 f5 ff ff 	mov    %rax,-0xa50(%rbp)
    977b:	48 8d 85 00 e5 ff ff 	lea    -0x1b00(%rbp),%rax
    9782:	48 83 c0 08          	add    $0x8,%rax
    9786:	48 89 85 b8 f5 ff ff 	mov    %rax,-0xa48(%rbp)
    978d:	48 8d 85 00 e5 ff ff 	lea    -0x1b00(%rbp),%rax
    9794:	48 83 c0 08          	add    $0x8,%rax
    9798:	48 89 85 c0 f5 ff ff 	mov    %rax,-0xa40(%rbp)
    979f:	48 8d 85 00 e5 ff ff 	lea    -0x1b00(%rbp),%rax
    97a6:	48 83 c0 08          	add    $0x8,%rax
    97aa:	48 89 85 c8 f5 ff ff 	mov    %rax,-0xa38(%rbp)
    97b1:	48 8d 85 00 e5 ff ff 	lea    -0x1b00(%rbp),%rax
    97b8:	48 83 c0 08          	add    $0x8,%rax
    97bc:	48 89 85 d0 f5 ff ff 	mov    %rax,-0xa30(%rbp)
    97c3:	48 8d 85 00 e5 ff ff 	lea    -0x1b00(%rbp),%rax
    97ca:	48 83 c0 08          	add    $0x8,%rax
    97ce:	48 89 85 d8 f5 ff ff 	mov    %rax,-0xa28(%rbp)
    97d5:	48 8d 85 00 e5 ff ff 	lea    -0x1b00(%rbp),%rax
    97dc:	48 83 c0 10          	add    $0x10,%rax
    97e0:	48 89 85 e0 f5 ff ff 	mov    %rax,-0xa20(%rbp)
    97e7:	48 8d 85 00 e5 ff ff 	lea    -0x1b00(%rbp),%rax
    97ee:	48 83 c0 08          	add    $0x8,%rax
    97f2:	48 89 85 e8 f5 ff ff 	mov    %rax,-0xa18(%rbp)
    97f9:	48 c7 85 f0 f5 ff ff 	movq   $0x0,-0xa10(%rbp)
    9800:	00 00 00 00 
    9804:	48 8d 85 00 e5 ff ff 	lea    -0x1b00(%rbp),%rax
    980b:	48 89 85 f8 f5 ff ff 	mov    %rax,-0xa08(%rbp)
    9812:	48 c7 85 00 f6 ff ff 	movq   $0x0,-0xa00(%rbp)
    9819:	00 00 00 00 
    981d:	48 8d 85 00 e5 ff ff 	lea    -0x1b00(%rbp),%rax
    9824:	48 89 85 08 f6 ff ff 	mov    %rax,-0x9f8(%rbp)
    982b:	48 8d 85 00 e5 ff ff 	lea    -0x1b00(%rbp),%rax
    9832:	48 83 c0 08          	add    $0x8,%rax
    9836:	48 89 85 10 f6 ff ff 	mov    %rax,-0x9f0(%rbp)
    983d:	48 c7 85 18 f6 ff ff 	movq   $0x0,-0x9e8(%rbp)
    9844:	00 00 00 00 
    9848:	48 8d 85 00 e5 ff ff 	lea    -0x1b00(%rbp),%rax
    984f:	48 83 c0 10          	add    $0x10,%rax
    9853:	48 89 85 20 f6 ff ff 	mov    %rax,-0x9e0(%rbp)
    985a:	48 8d 85 00 e5 ff ff 	lea    -0x1b00(%rbp),%rax
    9861:	48 89 85 28 f6 ff ff 	mov    %rax,-0x9d8(%rbp)
    9868:	48 8d 85 00 e5 ff ff 	lea    -0x1b00(%rbp),%rax
    986f:	48 83 c0 08          	add    $0x8,%rax
    9873:	48 89 85 30 f6 ff ff 	mov    %rax,-0x9d0(%rbp)
    987a:	48 8d 85 00 e5 ff ff 	lea    -0x1b00(%rbp),%rax
    9881:	48 89 85 38 f6 ff ff 	mov    %rax,-0x9c8(%rbp)
    9888:	48 8d 85 00 e5 ff ff 	lea    -0x1b00(%rbp),%rax
    988f:	48 89 85 40 f6 ff ff 	mov    %rax,-0x9c0(%rbp)
    9896:	48 8d 85 00 e5 ff ff 	lea    -0x1b00(%rbp),%rax
    989d:	48 83 c0 08          	add    $0x8,%rax
    98a1:	48 89 85 48 f6 ff ff 	mov    %rax,-0x9b8(%rbp)
    98a8:	48 8d 85 00 e5 ff ff 	lea    -0x1b00(%rbp),%rax
    98af:	48 83 c0 08          	add    $0x8,%rax
    98b3:	48 89 85 50 f6 ff ff 	mov    %rax,-0x9b0(%rbp)
    98ba:	48 8d 85 00 e5 ff ff 	lea    -0x1b00(%rbp),%rax
    98c1:	48 83 c0 08          	add    $0x8,%rax
    98c5:	48 89 85 58 f6 ff ff 	mov    %rax,-0x9a8(%rbp)
    98cc:	48 8d 85 00 e5 ff ff 	lea    -0x1b00(%rbp),%rax
    98d3:	48 83 c0 10          	add    $0x10,%rax
    98d7:	48 89 85 60 f6 ff ff 	mov    %rax,-0x9a0(%rbp)
    98de:	48 8d 85 00 e5 ff ff 	lea    -0x1b00(%rbp),%rax
    98e5:	48 83 c0 08          	add    $0x8,%rax
    98e9:	48 89 85 68 f6 ff ff 	mov    %rax,-0x998(%rbp)
    98f0:	48 8d 85 00 e5 ff ff 	lea    -0x1b00(%rbp),%rax
    98f7:	48 89 85 70 f6 ff ff 	mov    %rax,-0x990(%rbp)
    98fe:	48 8d 85 00 e5 ff ff 	lea    -0x1b00(%rbp),%rax
    9905:	48 83 c0 08          	add    $0x8,%rax
    9909:	48 89 85 78 f6 ff ff 	mov    %rax,-0x988(%rbp)
    9910:	48 c7 85 80 f6 ff ff 	movq   $0x0,-0x980(%rbp)
    9917:	00 00 00 00 
    991b:	48 8d 85 00 e5 ff ff 	lea    -0x1b00(%rbp),%rax
    9922:	48 83 c0 08          	add    $0x8,%rax
    9926:	48 89 85 88 f6 ff ff 	mov    %rax,-0x978(%rbp)
    992d:	48 8d 85 00 e5 ff ff 	lea    -0x1b00(%rbp),%rax
    9934:	48 83 c0 08          	add    $0x8,%rax
    9938:	48 89 85 90 f6 ff ff 	mov    %rax,-0x970(%rbp)
    993f:	48 8d 85 00 e5 ff ff 	lea    -0x1b00(%rbp),%rax
    9946:	48 89 85 98 f6 ff ff 	mov    %rax,-0x968(%rbp)
    994d:	48 8d 85 00 e5 ff ff 	lea    -0x1b00(%rbp),%rax
    9954:	48 83 c0 10          	add    $0x10,%rax
    9958:	48 89 85 a0 f6 ff ff 	mov    %rax,-0x960(%rbp)
    995f:	48 8d 85 00 e5 ff ff 	lea    -0x1b00(%rbp),%rax
    9966:	48 89 85 a8 f6 ff ff 	mov    %rax,-0x958(%rbp)
    996d:	48 8d 85 00 e5 ff ff 	lea    -0x1b00(%rbp),%rax
    9974:	48 89 85 b0 f6 ff ff 	mov    %rax,-0x950(%rbp)
    997b:	48 c7 85 b8 f6 ff ff 	movq   $0x0,-0x948(%rbp)
    9982:	00 00 00 00 
    9986:	48 8d 85 00 e5 ff ff 	lea    -0x1b00(%rbp),%rax
    998d:	48 83 c0 08          	add    $0x8,%rax
    9991:	48 89 85 c0 f6 ff ff 	mov    %rax,-0x940(%rbp)
    9998:	48 8d 85 00 e5 ff ff 	lea    -0x1b00(%rbp),%rax
    999f:	48 89 85 c8 f6 ff ff 	mov    %rax,-0x938(%rbp)
    99a6:	48 8d 85 00 e5 ff ff 	lea    -0x1b00(%rbp),%rax
    99ad:	48 83 c0 08          	add    $0x8,%rax
    99b1:	48 89 85 d0 f6 ff ff 	mov    %rax,-0x930(%rbp)
    99b8:	48 8d 85 00 e5 ff ff 	lea    -0x1b00(%rbp),%rax
    99bf:	48 89 85 d8 f6 ff ff 	mov    %rax,-0x928(%rbp)
    99c6:	48 8d 85 00 e5 ff ff 	lea    -0x1b00(%rbp),%rax
    99cd:	48 89 85 e0 f6 ff ff 	mov    %rax,-0x920(%rbp)
    99d4:	48 8d 85 00 e5 ff ff 	lea    -0x1b00(%rbp),%rax
    99db:	48 83 c0 08          	add    $0x8,%rax
    99df:	48 89 85 e8 f6 ff ff 	mov    %rax,-0x918(%rbp)
    99e6:	48 8d 85 00 e5 ff ff 	lea    -0x1b00(%rbp),%rax
    99ed:	48 83 c0 08          	add    $0x8,%rax
    99f1:	48 89 85 f0 f6 ff ff 	mov    %rax,-0x910(%rbp)
    99f8:	48 8d 85 00 e5 ff ff 	lea    -0x1b00(%rbp),%rax
    99ff:	48 83 c0 08          	add    $0x8,%rax
    9a03:	48 89 85 f8 f6 ff ff 	mov    %rax,-0x908(%rbp)
    9a0a:	48 8d 85 00 e5 ff ff 	lea    -0x1b00(%rbp),%rax
    9a11:	48 83 c0 08          	add    $0x8,%rax
    9a15:	48 89 85 00 f7 ff ff 	mov    %rax,-0x900(%rbp)
    9a1c:	48 8d 85 00 e5 ff ff 	lea    -0x1b00(%rbp),%rax
    9a23:	48 83 c0 08          	add    $0x8,%rax
    9a27:	48 89 85 08 f7 ff ff 	mov    %rax,-0x8f8(%rbp)
    9a2e:	48 8d 85 00 e5 ff ff 	lea    -0x1b00(%rbp),%rax
    9a35:	48 83 c0 08          	add    $0x8,%rax
    9a39:	48 89 85 10 f7 ff ff 	mov    %rax,-0x8f0(%rbp)
    9a40:	48 8d 85 00 e5 ff ff 	lea    -0x1b00(%rbp),%rax
    9a47:	48 83 c0 08          	add    $0x8,%rax
    9a4b:	48 89 85 18 f7 ff ff 	mov    %rax,-0x8e8(%rbp)
    9a52:	48 8d 85 00 e5 ff ff 	lea    -0x1b00(%rbp),%rax
    9a59:	48 83 c0 10          	add    $0x10,%rax
    9a5d:	48 89 85 20 f7 ff ff 	mov    %rax,-0x8e0(%rbp)
    9a64:	48 8d 85 00 e5 ff ff 	lea    -0x1b00(%rbp),%rax
    9a6b:	48 83 c0 08          	add    $0x8,%rax
    9a6f:	48 89 85 28 f7 ff ff 	mov    %rax,-0x8d8(%rbp)
    9a76:	48 c7 85 30 f7 ff ff 	movq   $0x0,-0x8d0(%rbp)
    9a7d:	00 00 00 00 
    9a81:	48 8d 85 00 e5 ff ff 	lea    -0x1b00(%rbp),%rax
    9a88:	48 89 85 38 f7 ff ff 	mov    %rax,-0x8c8(%rbp)
    9a8f:	48 c7 85 40 f7 ff ff 	movq   $0x0,-0x8c0(%rbp)
    9a96:	00 00 00 00 
    9a9a:	48 8d 85 00 e5 ff ff 	lea    -0x1b00(%rbp),%rax
    9aa1:	48 89 85 48 f7 ff ff 	mov    %rax,-0x8b8(%rbp)
    9aa8:	48 8d 85 00 e5 ff ff 	lea    -0x1b00(%rbp),%rax
    9aaf:	48 83 c0 08          	add    $0x8,%rax
    9ab3:	48 89 85 50 f7 ff ff 	mov    %rax,-0x8b0(%rbp)
    9aba:	48 c7 85 58 f7 ff ff 	movq   $0x0,-0x8a8(%rbp)
    9ac1:	00 00 00 00 
    9ac5:	48 8d 85 00 e5 ff ff 	lea    -0x1b00(%rbp),%rax
    9acc:	48 83 c0 10          	add    $0x10,%rax
    9ad0:	48 89 85 60 f7 ff ff 	mov    %rax,-0x8a0(%rbp)
    9ad7:	48 8d 85 00 e5 ff ff 	lea    -0x1b00(%rbp),%rax
    9ade:	48 89 85 68 f7 ff ff 	mov    %rax,-0x898(%rbp)
    9ae5:	48 8d 85 00 e5 ff ff 	lea    -0x1b00(%rbp),%rax
    9aec:	48 83 c0 08          	add    $0x8,%rax
    9af0:	48 89 85 70 f7 ff ff 	mov    %rax,-0x890(%rbp)
    9af7:	48 8d 85 00 e5 ff ff 	lea    -0x1b00(%rbp),%rax
    9afe:	48 89 85 78 f7 ff ff 	mov    %rax,-0x888(%rbp)
    9b05:	48 8d 85 00 e5 ff ff 	lea    -0x1b00(%rbp),%rax
    9b0c:	48 89 85 80 f7 ff ff 	mov    %rax,-0x880(%rbp)
    9b13:	48 8d 85 00 e5 ff ff 	lea    -0x1b00(%rbp),%rax
    9b1a:	48 83 c0 08          	add    $0x8,%rax
    9b1e:	48 89 85 88 f7 ff ff 	mov    %rax,-0x878(%rbp)
    9b25:	48 8d 85 00 e5 ff ff 	lea    -0x1b00(%rbp),%rax
    9b2c:	48 83 c0 08          	add    $0x8,%rax
    9b30:	48 89 85 90 f7 ff ff 	mov    %rax,-0x870(%rbp)
    9b37:	48 8d 85 00 e5 ff ff 	lea    -0x1b00(%rbp),%rax
    9b3e:	48 83 c0 08          	add    $0x8,%rax
    9b42:	48 89 85 98 f7 ff ff 	mov    %rax,-0x868(%rbp)
    9b49:	48 8d 85 00 e5 ff ff 	lea    -0x1b00(%rbp),%rax
    9b50:	48 83 c0 10          	add    $0x10,%rax
    9b54:	48 89 85 a0 f7 ff ff 	mov    %rax,-0x860(%rbp)
    9b5b:	48 8d 85 00 e5 ff ff 	lea    -0x1b00(%rbp),%rax
    9b62:	48 83 c0 08          	add    $0x8,%rax
    9b66:	48 89 85 a8 f7 ff ff 	mov    %rax,-0x858(%rbp)
    9b6d:	48 8d 85 00 e5 ff ff 	lea    -0x1b00(%rbp),%rax
    9b74:	48 89 85 b0 f7 ff ff 	mov    %rax,-0x850(%rbp)
    9b7b:	48 8d 85 00 e5 ff ff 	lea    -0x1b00(%rbp),%rax
    9b82:	48 83 c0 08          	add    $0x8,%rax
    9b86:	48 89 85 b8 f7 ff ff 	mov    %rax,-0x848(%rbp)
    9b8d:	48 c7 85 c0 f7 ff ff 	movq   $0x0,-0x840(%rbp)
    9b94:	00 00 00 00 
    9b98:	48 8d 85 00 e5 ff ff 	lea    -0x1b00(%rbp),%rax
    9b9f:	48 83 c0 08          	add    $0x8,%rax
    9ba3:	48 89 85 c8 f7 ff ff 	mov    %rax,-0x838(%rbp)
    9baa:	48 8d 85 00 e5 ff ff 	lea    -0x1b00(%rbp),%rax
    9bb1:	48 83 c0 08          	add    $0x8,%rax
    9bb5:	48 89 85 d0 f7 ff ff 	mov    %rax,-0x830(%rbp)
    9bbc:	48 8d 85 00 e5 ff ff 	lea    -0x1b00(%rbp),%rax
    9bc3:	48 89 85 d8 f7 ff ff 	mov    %rax,-0x828(%rbp)
    9bca:	48 8d 85 00 e5 ff ff 	lea    -0x1b00(%rbp),%rax
    9bd1:	48 83 c0 10          	add    $0x10,%rax
    9bd5:	48 89 85 e0 f7 ff ff 	mov    %rax,-0x820(%rbp)
    9bdc:	48 8d 85 00 e5 ff ff 	lea    -0x1b00(%rbp),%rax
    9be3:	48 89 85 e8 f7 ff ff 	mov    %rax,-0x818(%rbp)
    9bea:	48 8d 85 00 e5 ff ff 	lea    -0x1b00(%rbp),%rax
    9bf1:	48 89 85 f0 f7 ff ff 	mov    %rax,-0x810(%rbp)
    9bf8:	48 c7 85 f8 f7 ff ff 	movq   $0x0,-0x808(%rbp)
    9bff:	00 00 00 00 
    9c03:	48 8d 85 00 e5 ff ff 	lea    -0x1b00(%rbp),%rax
    9c0a:	48 83 c0 08          	add    $0x8,%rax
    9c0e:	48 89 85 00 f8 ff ff 	mov    %rax,-0x800(%rbp)
    9c15:	48 8d 85 00 e5 ff ff 	lea    -0x1b00(%rbp),%rax
    9c1c:	48 89 85 08 f8 ff ff 	mov    %rax,-0x7f8(%rbp)
    9c23:	48 8d 85 00 e5 ff ff 	lea    -0x1b00(%rbp),%rax
    9c2a:	48 83 c0 08          	add    $0x8,%rax
    9c2e:	48 89 85 10 f8 ff ff 	mov    %rax,-0x7f0(%rbp)
    9c35:	48 8d 85 00 e5 ff ff 	lea    -0x1b00(%rbp),%rax
    9c3c:	48 89 85 18 f8 ff ff 	mov    %rax,-0x7e8(%rbp)
    9c43:	48 8d 85 00 e5 ff ff 	lea    -0x1b00(%rbp),%rax
    9c4a:	48 89 85 20 f8 ff ff 	mov    %rax,-0x7e0(%rbp)
    9c51:	48 8d 85 00 e5 ff ff 	lea    -0x1b00(%rbp),%rax
    9c58:	48 83 c0 08          	add    $0x8,%rax
    9c5c:	48 89 85 28 f8 ff ff 	mov    %rax,-0x7d8(%rbp)
    9c63:	48 8d 85 00 e5 ff ff 	lea    -0x1b00(%rbp),%rax
    9c6a:	48 83 c0 08          	add    $0x8,%rax
    9c6e:	48 89 85 30 f8 ff ff 	mov    %rax,-0x7d0(%rbp)
    9c75:	48 8d 85 00 e5 ff ff 	lea    -0x1b00(%rbp),%rax
    9c7c:	48 83 c0 08          	add    $0x8,%rax
    9c80:	48 89 85 38 f8 ff ff 	mov    %rax,-0x7c8(%rbp)
    9c87:	c7 85 90 e2 ff ff 97 	movl   $0xe4f8cd97,-0x1d70(%rbp)
    9c8e:	cd f8 e4 
    9c91:	48 8d 05 e0 03 01 00 	lea    0x103e0(%rip),%rax        # 1a078 <g_154+0x18>
    9c98:	48 89 85 e0 e3 ff ff 	mov    %rax,-0x1c20(%rbp)
    9c9f:	48 8d 05 86 03 01 00 	lea    0x10386(%rip),%rax        # 1a02c <g_33>
    9ca6:	48 89 85 e8 e3 ff ff 	mov    %rax,-0x1c18(%rbp)
    9cad:	48 8d 05 b8 0d 01 00 	lea    0x10db8(%rip),%rax        # 1aa6c <g_1452+0x4>
    9cb4:	48 89 85 30 e3 ff ff 	mov    %rax,-0x1cd0(%rbp)
    9cbb:	c7 85 98 e2 ff ff aa 	movl   $0xfb15a1aa,-0x1d68(%rbp)
    9cc2:	a1 15 fb 
    9cc5:	c7 85 9c e2 ff ff 00 	movl   $0x0,-0x1d64(%rbp)
    9ccc:	00 00 00 
    9ccf:	eb 1b                	jmp    9cec <func_1+0x2537>
    9cd1:	8b 85 9c e2 ff ff    	mov    -0x1d64(%rbp),%eax
    9cd7:	48 98                	cltq   
    9cd9:	48 c7 84 c5 00 e5 ff 	movq   $0x0,-0x1b00(%rbp,%rax,8)
    9ce0:	ff 00 00 00 00 
    9ce5:	83 85 9c e2 ff ff 01 	addl   $0x1,-0x1d64(%rbp)
    9cec:	83 bd 9c e2 ff ff 03 	cmpl   $0x3,-0x1d64(%rbp)
    9cf3:	7e dc                	jle    9cd1 <func_1+0x251c>
    9cf5:	8b 85 90 e2 ff ff    	mov    -0x1d70(%rbp),%eax
    9cfb:	0f bf d8             	movswl %ax,%ebx
    9cfe:	8b 85 90 e2 ff ff    	mov    -0x1d70(%rbp),%eax
    9d04:	48 98                	cltq   
    9d06:	48 89 c6             	mov    %rax,%rsi
    9d09:	48 c7 c7 ff ff ff ff 	mov    $0xffffffffffffffff,%rdi
    9d10:	e8 2c cb ff ff       	callq  6841 <safe_add_func_int64_t_s_s>
    9d15:	89 c2                	mov    %eax,%edx
    9d17:	48 8b 85 30 e3 ff ff 	mov    -0x1cd0(%rbp),%rax
    9d1e:	83 e2 f7             	and    $0xfffffff7,%edx
    9d21:	66 89 10             	mov    %dx,(%rax)
    9d24:	0f b7 00             	movzwl (%rax),%eax
    9d27:	98                   	cwtl   
    9d28:	89 de                	mov    %ebx,%esi
    9d2a:	89 c7                	mov    %eax,%edi
    9d2c:	e8 24 c7 ff ff       	callq  6455 <safe_div_func_int16_t_s_s>
    9d31:	89 c2                	mov    %eax,%edx
    9d33:	48 8b 05 46 1f 01 00 	mov    0x11f46(%rip),%rax        # 1bc80 <g_1349>
    9d3a:	0f bf d2             	movswl %dx,%edx
    9d3d:	89 10                	mov    %edx,(%rax)
    9d3f:	8b 00                	mov    (%rax),%eax
    9d41:	85 c0                	test   %eax,%eax
    9d43:	74 4d                	je     9d92 <func_1+0x25dd>
    9d45:	90                   	nop
    9d46:	66 c7 85 6c e2 ff ff 	movw   $0x0,-0x1d94(%rbp)
    9d4d:	00 00 
    9d4f:	eb 2c                	jmp    9d7d <func_1+0x25c8>
    9d51:	c7 85 d8 e2 ff ff 92 	movl   $0x1e026892,-0x1d28(%rbp)
    9d58:	68 02 1e 
    9d5b:	48 8b 05 1e 1f 01 00 	mov    0x11f1e(%rip),%rax        # 1bc80 <g_1349>
    9d62:	8b 00                	mov    (%rax),%eax
    9d64:	23 85 d8 e2 ff ff    	and    -0x1d28(%rbp),%eax
    9d6a:	89 c2                	mov    %eax,%edx
    9d6c:	48 8b 05 0d 1f 01 00 	mov    0x11f0d(%rip),%rax        # 1bc80 <g_1349>
    9d73:	89 10                	mov    %edx,(%rax)
    9d75:	66 83 85 6c e2 ff ff 	addw   $0x1,-0x1d94(%rbp)
    9d7c:	01 
    9d7d:	66 83 bd 6c e2 ff ff 	cmpw   $0x7,-0x1d94(%rbp)
    9d84:	07 
    9d85:	75 ca                	jne    9d51 <func_1+0x259c>
    9d87:	8b 85 90 e2 ff ff    	mov    -0x1d70(%rbp),%eax
    9d8d:	e9 6a 1a 00 00       	jmpq   b7fc <func_1+0x4047>
    9d92:	66 c7 85 72 e2 ff ff 	movw   $0x3,-0x1d8e(%rbp)
    9d99:	03 00 
    9d9b:	48 8d 05 de 0f 01 00 	lea    0x10fde(%rip),%rax        # 1ad80 <g_1907>
    9da2:	48 89 85 f0 e3 ff ff 	mov    %rax,-0x1c10(%rbp)
    9da9:	48 8d 05 88 02 01 00 	lea    0x10288(%rip),%rax        # 1a038 <g_93>
    9db0:	48 89 85 f8 e3 ff ff 	mov    %rax,-0x1c08(%rbp)
    9db7:	48 8d 05 22 15 01 00 	lea    0x11522(%rip),%rax        # 1b2e0 <g_223>
    9dbe:	48 89 85 00 e4 ff ff 	mov    %rax,-0x1c00(%rbp)
    9dc5:	c7 85 20 e5 ff ff fb 	movl   $0xef1f63fb,-0x1ae0(%rbp)
    9dcc:	63 1f ef 
    9dcf:	c7 85 24 e5 ff ff fb 	movl   $0xef1f63fb,-0x1adc(%rbp)
    9dd6:	63 1f ef 
    9dd9:	c7 85 28 e5 ff ff fb 	movl   $0xef1f63fb,-0x1ad8(%rbp)
    9de0:	63 1f ef 
    9de3:	c7 85 2c e5 ff ff fb 	movl   $0xef1f63fb,-0x1ad4(%rbp)
    9dea:	63 1f ef 
    9ded:	c7 85 30 e5 ff ff fb 	movl   $0xef1f63fb,-0x1ad0(%rbp)
    9df4:	63 1f ef 
    9df7:	c7 85 34 e5 ff ff fb 	movl   $0xef1f63fb,-0x1acc(%rbp)
    9dfe:	63 1f ef 
    9e01:	c7 85 38 e5 ff ff fb 	movl   $0xef1f63fb,-0x1ac8(%rbp)
    9e08:	63 1f ef 
    9e0b:	c7 85 3c e5 ff ff fb 	movl   $0xef1f63fb,-0x1ac4(%rbp)
    9e12:	63 1f ef 
    9e15:	66 c7 05 2e 02 01 00 	movw   $0x4,0x1022e(%rip)        # 1a04c <g_148>
    9e1c:	04 00 
    9e1e:	e9 89 04 00 00       	jmpq   a2ac <func_1+0x2af7>
    9e23:	48 8d 05 6e 02 01 00 	lea    0x1026e(%rip),%rax        # 1a098 <g_197>
    9e2a:	48 89 85 10 e4 ff ff 	mov    %rax,-0x1bf0(%rbp)
    9e31:	48 8d 85 30 e3 ff ff 	lea    -0x1cd0(%rbp),%rax
    9e38:	48 89 85 38 e3 ff ff 	mov    %rax,-0x1cc8(%rbp)
    9e3f:	48 8d 85 38 e3 ff ff 	lea    -0x1cc8(%rbp),%rax
    9e46:	48 89 85 18 e4 ff ff 	mov    %rax,-0x1be8(%rbp)
    9e4d:	48 c7 85 40 f8 ff ff 	movq   $0x0,-0x7c0(%rbp)
    9e54:	00 00 00 00 
    9e58:	48 8d 85 30 e3 ff ff 	lea    -0x1cd0(%rbp),%rax
    9e5f:	48 89 85 48 f8 ff ff 	mov    %rax,-0x7b8(%rbp)
    9e66:	48 8d 85 00 e3 ff ff 	lea    -0x1d00(%rbp),%rax
    9e6d:	48 89 85 50 f8 ff ff 	mov    %rax,-0x7b0(%rbp)
    9e74:	48 8d 85 30 e3 ff ff 	lea    -0x1cd0(%rbp),%rax
    9e7b:	48 89 85 58 f8 ff ff 	mov    %rax,-0x7a8(%rbp)
    9e82:	48 c7 85 60 f8 ff ff 	movq   $0x0,-0x7a0(%rbp)
    9e89:	00 00 00 00 
    9e8d:	48 8d 85 00 e3 ff ff 	lea    -0x1d00(%rbp),%rax
    9e94:	48 89 85 68 f8 ff ff 	mov    %rax,-0x798(%rbp)
    9e9b:	48 8d 85 30 e3 ff ff 	lea    -0x1cd0(%rbp),%rax
    9ea2:	48 89 85 70 f8 ff ff 	mov    %rax,-0x790(%rbp)
    9ea9:	48 8d 85 30 e3 ff ff 	lea    -0x1cd0(%rbp),%rax
    9eb0:	48 89 85 78 f8 ff ff 	mov    %rax,-0x788(%rbp)
    9eb7:	48 8d 85 00 e3 ff ff 	lea    -0x1d00(%rbp),%rax
    9ebe:	48 89 85 80 f8 ff ff 	mov    %rax,-0x780(%rbp)
    9ec5:	48 8d 85 00 e3 ff ff 	lea    -0x1d00(%rbp),%rax
    9ecc:	48 89 85 88 f8 ff ff 	mov    %rax,-0x778(%rbp)
    9ed3:	48 8d 85 00 e3 ff ff 	lea    -0x1d00(%rbp),%rax
    9eda:	48 89 85 90 f8 ff ff 	mov    %rax,-0x770(%rbp)
    9ee1:	48 8d 85 00 e3 ff ff 	lea    -0x1d00(%rbp),%rax
    9ee8:	48 89 85 98 f8 ff ff 	mov    %rax,-0x768(%rbp)
    9eef:	48 c7 85 a0 f8 ff ff 	movq   $0x0,-0x760(%rbp)
    9ef6:	00 00 00 00 
    9efa:	48 8d 85 00 e3 ff ff 	lea    -0x1d00(%rbp),%rax
    9f01:	48 89 85 a8 f8 ff ff 	mov    %rax,-0x758(%rbp)
    9f08:	48 8d 85 00 e3 ff ff 	lea    -0x1d00(%rbp),%rax
    9f0f:	48 89 85 b0 f8 ff ff 	mov    %rax,-0x750(%rbp)
    9f16:	48 c7 85 b8 f8 ff ff 	movq   $0x0,-0x748(%rbp)
    9f1d:	00 00 00 00 
    9f21:	48 c7 85 c0 f8 ff ff 	movq   $0x0,-0x740(%rbp)
    9f28:	00 00 00 00 
    9f2c:	48 8d 85 00 e3 ff ff 	lea    -0x1d00(%rbp),%rax
    9f33:	48 89 85 c8 f8 ff ff 	mov    %rax,-0x738(%rbp)
    9f3a:	48 8d 85 00 e3 ff ff 	lea    -0x1d00(%rbp),%rax
    9f41:	48 89 85 d0 f8 ff ff 	mov    %rax,-0x730(%rbp)
    9f48:	48 c7 85 d8 f8 ff ff 	movq   $0x0,-0x728(%rbp)
    9f4f:	00 00 00 00 
    9f53:	48 8d 85 00 e3 ff ff 	lea    -0x1d00(%rbp),%rax
    9f5a:	48 89 85 e0 f8 ff ff 	mov    %rax,-0x720(%rbp)
    9f61:	48 8d 85 00 e3 ff ff 	lea    -0x1d00(%rbp),%rax
    9f68:	48 89 85 e8 f8 ff ff 	mov    %rax,-0x718(%rbp)
    9f6f:	48 8d 85 00 e3 ff ff 	lea    -0x1d00(%rbp),%rax
    9f76:	48 89 85 f0 f8 ff ff 	mov    %rax,-0x710(%rbp)
    9f7d:	48 8d 85 00 e3 ff ff 	lea    -0x1d00(%rbp),%rax
    9f84:	48 89 85 f8 f8 ff ff 	mov    %rax,-0x708(%rbp)
    9f8b:	48 8d 85 30 e3 ff ff 	lea    -0x1cd0(%rbp),%rax
    9f92:	48 89 85 00 f9 ff ff 	mov    %rax,-0x700(%rbp)
    9f99:	48 8d 85 30 e3 ff ff 	lea    -0x1cd0(%rbp),%rax
    9fa0:	48 89 85 08 f9 ff ff 	mov    %rax,-0x6f8(%rbp)
    9fa7:	48 8d 85 00 e3 ff ff 	lea    -0x1d00(%rbp),%rax
    9fae:	48 89 85 10 f9 ff ff 	mov    %rax,-0x6f0(%rbp)
    9fb5:	48 c7 85 18 f9 ff ff 	movq   $0x0,-0x6e8(%rbp)
    9fbc:	00 00 00 00 
    9fc0:	48 8d 85 30 e3 ff ff 	lea    -0x1cd0(%rbp),%rax
    9fc7:	48 89 85 20 f9 ff ff 	mov    %rax,-0x6e0(%rbp)
    9fce:	48 8d 85 00 e3 ff ff 	lea    -0x1d00(%rbp),%rax
    9fd5:	48 89 85 28 f9 ff ff 	mov    %rax,-0x6d8(%rbp)
    9fdc:	48 8d 85 30 e3 ff ff 	lea    -0x1cd0(%rbp),%rax
    9fe3:	48 89 85 30 f9 ff ff 	mov    %rax,-0x6d0(%rbp)
    9fea:	48 c7 85 38 f9 ff ff 	movq   $0x0,-0x6c8(%rbp)
    9ff1:	00 00 00 00 
    9ff5:	48 8d 85 00 e3 ff ff 	lea    -0x1d00(%rbp),%rax
    9ffc:	48 89 85 40 f9 ff ff 	mov    %rax,-0x6c0(%rbp)
    a003:	48 8d 85 30 e3 ff ff 	lea    -0x1cd0(%rbp),%rax
    a00a:	48 89 85 48 f9 ff ff 	mov    %rax,-0x6b8(%rbp)
    a011:	48 8d 85 30 e3 ff ff 	lea    -0x1cd0(%rbp),%rax
    a018:	48 89 85 50 f9 ff ff 	mov    %rax,-0x6b0(%rbp)
    a01f:	48 8d 85 00 e3 ff ff 	lea    -0x1d00(%rbp),%rax
    a026:	48 89 85 58 f9 ff ff 	mov    %rax,-0x6a8(%rbp)
    a02d:	48 8d 85 00 e3 ff ff 	lea    -0x1d00(%rbp),%rax
    a034:	48 89 85 60 f9 ff ff 	mov    %rax,-0x6a0(%rbp)
    a03b:	48 8d 85 00 e3 ff ff 	lea    -0x1d00(%rbp),%rax
    a042:	48 89 85 68 f9 ff ff 	mov    %rax,-0x698(%rbp)
    a049:	48 8d 85 00 e3 ff ff 	lea    -0x1d00(%rbp),%rax
    a050:	48 89 85 70 f9 ff ff 	mov    %rax,-0x690(%rbp)
    a057:	48 c7 85 78 f9 ff ff 	movq   $0x0,-0x688(%rbp)
    a05e:	00 00 00 00 
    a062:	48 8d 85 00 e3 ff ff 	lea    -0x1d00(%rbp),%rax
    a069:	48 89 85 80 f9 ff ff 	mov    %rax,-0x680(%rbp)
    a070:	48 8d 85 00 e3 ff ff 	lea    -0x1d00(%rbp),%rax
    a077:	48 89 85 88 f9 ff ff 	mov    %rax,-0x678(%rbp)
    a07e:	48 c7 85 90 f9 ff ff 	movq   $0x0,-0x670(%rbp)
    a085:	00 00 00 00 
    a089:	48 c7 85 98 f9 ff ff 	movq   $0x0,-0x668(%rbp)
    a090:	00 00 00 00 
    a094:	48 8d 85 00 e3 ff ff 	lea    -0x1d00(%rbp),%rax
    a09b:	48 89 85 a0 f9 ff ff 	mov    %rax,-0x660(%rbp)
    a0a2:	48 8d 85 00 e3 ff ff 	lea    -0x1d00(%rbp),%rax
    a0a9:	48 89 85 a8 f9 ff ff 	mov    %rax,-0x658(%rbp)
    a0b0:	48 c7 85 b0 f9 ff ff 	movq   $0x0,-0x650(%rbp)
    a0b7:	00 00 00 00 
    a0bb:	48 8d 85 00 e3 ff ff 	lea    -0x1d00(%rbp),%rax
    a0c2:	48 89 85 b8 f9 ff ff 	mov    %rax,-0x648(%rbp)
    a0c9:	48 8d 85 00 e3 ff ff 	lea    -0x1d00(%rbp),%rax
    a0d0:	48 89 85 c0 f9 ff ff 	mov    %rax,-0x640(%rbp)
    a0d7:	48 8d 85 00 e3 ff ff 	lea    -0x1d00(%rbp),%rax
    a0de:	48 89 85 c8 f9 ff ff 	mov    %rax,-0x638(%rbp)
    a0e5:	48 8d 85 00 e3 ff ff 	lea    -0x1d00(%rbp),%rax
    a0ec:	48 89 85 d0 f9 ff ff 	mov    %rax,-0x630(%rbp)
    a0f3:	48 8d 85 30 e3 ff ff 	lea    -0x1cd0(%rbp),%rax
    a0fa:	48 89 85 d8 f9 ff ff 	mov    %rax,-0x628(%rbp)
    a101:	48 8d 85 30 e3 ff ff 	lea    -0x1cd0(%rbp),%rax
    a108:	48 89 85 e0 f9 ff ff 	mov    %rax,-0x620(%rbp)
    a10f:	48 8d 85 00 e3 ff ff 	lea    -0x1d00(%rbp),%rax
    a116:	48 89 85 e8 f9 ff ff 	mov    %rax,-0x618(%rbp)
    a11d:	48 c7 85 f0 f9 ff ff 	movq   $0x0,-0x610(%rbp)
    a124:	00 00 00 00 
    a128:	48 8d 85 30 e3 ff ff 	lea    -0x1cd0(%rbp),%rax
    a12f:	48 89 85 f8 f9 ff ff 	mov    %rax,-0x608(%rbp)
    a136:	48 8d 85 00 e3 ff ff 	lea    -0x1d00(%rbp),%rax
    a13d:	48 89 85 00 fa ff ff 	mov    %rax,-0x600(%rbp)
    a144:	48 8d 85 30 e3 ff ff 	lea    -0x1cd0(%rbp),%rax
    a14b:	48 89 85 08 fa ff ff 	mov    %rax,-0x5f8(%rbp)
    a152:	48 c7 85 10 fa ff ff 	movq   $0x0,-0x5f0(%rbp)
    a159:	00 00 00 00 
    a15d:	48 8d 85 00 e3 ff ff 	lea    -0x1d00(%rbp),%rax
    a164:	48 89 85 18 fa ff ff 	mov    %rax,-0x5e8(%rbp)
    a16b:	48 8d 85 90 e2 ff ff 	lea    -0x1d70(%rbp),%rax
    a172:	48 89 85 60 e5 ff ff 	mov    %rax,-0x1aa0(%rbp)
    a179:	48 8d 85 90 e2 ff ff 	lea    -0x1d70(%rbp),%rax
    a180:	48 89 85 68 e5 ff ff 	mov    %rax,-0x1a98(%rbp)
    a187:	48 8d 85 90 e2 ff ff 	lea    -0x1d70(%rbp),%rax
    a18e:	48 89 85 70 e5 ff ff 	mov    %rax,-0x1a90(%rbp)
    a195:	48 8d 85 90 e2 ff ff 	lea    -0x1d70(%rbp),%rax
    a19c:	48 89 85 78 e5 ff ff 	mov    %rax,-0x1a88(%rbp)
    a1a3:	48 8d 85 90 e2 ff ff 	lea    -0x1d70(%rbp),%rax
    a1aa:	48 89 85 80 e5 ff ff 	mov    %rax,-0x1a80(%rbp)
    a1b1:	48 8d 85 90 e2 ff ff 	lea    -0x1d70(%rbp),%rax
    a1b8:	48 89 85 88 e5 ff ff 	mov    %rax,-0x1a78(%rbp)
    a1bf:	0f b7 05 86 fe 00 00 	movzwl 0xfe86(%rip),%eax        # 1a04c <g_148>
    a1c6:	98                   	cwtl   
    a1c7:	48 98                	cltq   
    a1c9:	48 8d 15 9a 07 01 00 	lea    0x1079a(%rip),%rdx        # 1a96a <g_627>
    a1d0:	0f b6 04 10          	movzbl (%rax,%rdx,1),%eax
    a1d4:	84 c0                	test   %al,%al
    a1d6:	0f 85 96 00 00 00    	jne    a272 <func_1+0x2abd>
    a1dc:	48 8d 05 c5 fe 00 00 	lea    0xfec5(%rip),%rax        # 1a0a8 <g_205>
    a1e3:	48 89 85 10 e4 ff ff 	mov    %rax,-0x1bf0(%rbp)
    a1ea:	48 8d 05 af 07 01 00 	lea    0x107af(%rip),%rax        # 1a9a0 <g_796>
    a1f1:	48 39 85 10 e4 ff ff 	cmp    %rax,-0x1bf0(%rbp)
    a1f8:	0f 95 c2             	setne  %dl
    a1fb:	48 8b 05 7e 1a 01 00 	mov    0x11a7e(%rip),%rax        # 1bc80 <g_1349>
    a202:	0f b6 d2             	movzbl %dl,%edx
    a205:	89 10                	mov    %edx,(%rax)
    a207:	48 8b 05 92 22 01 00 	mov    0x12292(%rip),%rax        # 1c4a0 <g_1822>
    a20e:	c7 00 00 00 00 00    	movl   $0x0,(%rax)
    a214:	8b 18                	mov    (%rax),%ebx
    a216:	48 8b 05 cb 1a 01 00 	mov    0x11acb(%rip),%rax        # 1bce8 <g_1524>
    a21d:	0f b7 00             	movzwl (%rax),%eax
    a220:	0f b7 d0             	movzwl %ax,%edx
    a223:	48 c7 05 22 23 01 00 	movq   $0x0,0x12322(%rip)        # 1c550 <g_2150>
    a22a:	00 00 00 00 
    a22e:	48 8b 85 00 e3 ff ff 	mov    -0x1d00(%rbp),%rax
    a235:	48 89 05 44 23 01 00 	mov    %rax,0x12344(%rip)        # 1c580 <g_2153+0x20>
    a23c:	48 8b 85 18 e4 ff ff 	mov    -0x1be8(%rbp),%rax
    a243:	48 c7 00 00 00 00 00 	movq   $0x0,(%rax)
    a24a:	48 8b 85 18 e4 ff ff 	mov    -0x1be8(%rbp),%rax
    a251:	48 8b 08             	mov    (%rax),%rcx
    a254:	48 8d 85 00 e3 ff ff 	lea    -0x1d00(%rbp),%rax
    a25b:	48 39 c1             	cmp    %rax,%rcx
    a25e:	0f 94 c0             	sete   %al
    a261:	0f b6 c0             	movzbl %al,%eax
    a264:	89 d6                	mov    %edx,%esi
    a266:	89 c7                	mov    %eax,%edi
    a268:	e8 d0 ca ff ff       	callq  6d3d <safe_mul_func_uint16_t_u_u>
    a26d:	0f b7 c0             	movzwl %ax,%eax
    a270:	39 c3                	cmp    %eax,%ebx
    a272:	c7 85 7c e2 ff ff 01 	movl   $0x1,-0x1d84(%rbp)
    a279:	00 00 00 
    a27c:	8b 85 90 e2 ff ff    	mov    -0x1d70(%rbp),%eax
    a282:	85 c0                	test   %eax,%eax
    a284:	74 05                	je     a28b <func_1+0x2ad6>
    a286:	e9 8a fb ff ff       	jmpq   9e15 <func_1+0x2660>
    a28b:	48 8b 05 ee 19 01 00 	mov    0x119ee(%rip),%rax        # 1bc80 <g_1349>
    a292:	0f b7 95 72 e2 ff ff 	movzwl -0x1d8e(%rbp),%edx
    a299:	89 10                	mov    %edx,(%rax)
    a29b:	0f b7 05 aa fd 00 00 	movzwl 0xfdaa(%rip),%eax        # 1a04c <g_148>
    a2a2:	83 e8 01             	sub    $0x1,%eax
    a2a5:	66 89 05 a0 fd 00 00 	mov    %ax,0xfda0(%rip)        # 1a04c <g_148>
    a2ac:	0f b7 05 99 fd 00 00 	movzwl 0xfd99(%rip),%eax        # 1a04c <g_148>
    a2b3:	66 85 c0             	test   %ax,%ax
    a2b6:	0f 89 67 fb ff ff    	jns    9e23 <func_1+0x266e>
    a2bc:	48 8b 85 d8 e3 ff ff 	mov    -0x1c28(%rbp),%rax
    a2c3:	48 8b 00             	mov    (%rax),%rax
    a2c6:	48 39 85 f8 e3 ff ff 	cmp    %rax,-0x1c08(%rbp)
    a2cd:	0f 94 c0             	sete   %al
    a2d0:	0f b6 d0             	movzbl %al,%edx
    a2d3:	48 8b 8d f0 e3 ff ff 	mov    -0x1c10(%rbp),%rcx
    a2da:	48 8b 85 40 e3 ff ff 	mov    -0x1cc0(%rbp),%rax
    a2e1:	48 89 ce             	mov    %rcx,%rsi
    a2e4:	48 89 c7             	mov    %rax,%rdi
    a2e7:	e8 cf 7c 00 00       	callq  11fbb <func_63>
    a2ec:	48 8b 95 00 e4 ff ff 	mov    -0x1c00(%rbp),%rdx
    a2f3:	48 89 02             	mov    %rax,(%rdx)
    a2f6:	48 8b 05 83 19 01 00 	mov    0x11983(%rip),%rax        # 1bc80 <g_1349>
    a2fd:	8b 10                	mov    (%rax),%edx
    a2ff:	48 8b 05 da 19 01 00 	mov    0x119da(%rip),%rax        # 1bce0 <g_1499>
    a306:	48 8b 00             	mov    (%rax),%rax
    a309:	0f b6 00             	movzbl (%rax),%eax
    a30c:	0f be c8             	movsbl %al,%ecx
    a30f:	8b 05 2a 08 01 00    	mov    0x1082a(%rip),%eax        # 1ab3f <g_1559+0x9f>
    a315:	39 c1                	cmp    %eax,%ecx
    a317:	0f 97 c0             	seta   %al
    a31a:	0f b6 c0             	movzbl %al,%eax
    a31d:	39 c2                	cmp    %eax,%edx
    a31f:	0f 95 c0             	setne  %al
    a322:	0f b6 d8             	movzbl %al,%ebx
    a325:	48 8b 05 cc 0f 01 00 	mov    0x10fcc(%rip),%rax        # 1b2f8 <g_336>
    a32c:	48 8b 00             	mov    (%rax),%rax
    a32f:	0f b6 00             	movzbl (%rax),%eax
    a332:	0f b6 c0             	movzbl %al,%eax
    a335:	be 02 00 00 00       	mov    $0x2,%esi
    a33a:	89 c7                	mov    %eax,%edi
    a33c:	e8 c4 c8 ff ff       	callq  6c05 <safe_lshift_func_uint8_t_u_s>
    a341:	0f b6 c0             	movzbl %al,%eax
    a344:	89 de                	mov    %ebx,%esi
    a346:	89 c7                	mov    %eax,%edi
    a348:	e8 ff c8 ff ff       	callq  6c4c <safe_lshift_func_uint8_t_u_u>
    a34d:	0f b6 d0             	movzbl %al,%edx
    a350:	0f b6 05 21 fd 00 00 	movzbl 0xfd21(%rip),%eax        # 1a078 <g_154+0x18>
    a357:	83 c0 01             	add    $0x1,%eax
    a35a:	88 05 18 fd 00 00    	mov    %al,0xfd18(%rip)        # 1a078 <g_154+0x18>
    a360:	0f b6 05 11 fd 00 00 	movzbl 0xfd11(%rip),%eax        # 1a078 <g_154+0x18>
    a367:	0f b6 c0             	movzbl %al,%eax
    a36a:	89 d6                	mov    %edx,%esi
    a36c:	89 c7                	mov    %eax,%edi
    a36e:	e8 d9 c8 ff ff       	callq  6c4c <safe_lshift_func_uint8_t_u_u>
    a373:	84 c0                	test   %al,%al
    a375:	74 10                	je     a387 <func_1+0x2bd2>
    a377:	83 bd bc e2 ff ff 00 	cmpl   $0x0,-0x1d44(%rbp)
    a37e:	74 07                	je     a387 <func_1+0x2bd2>
    a380:	ba 01 00 00 00       	mov    $0x1,%edx
    a385:	eb 05                	jmp    a38c <func_1+0x2bd7>
    a387:	ba 00 00 00 00       	mov    $0x0,%edx
    a38c:	8b 85 28 e5 ff ff    	mov    -0x1ad8(%rbp),%eax
    a392:	31 d0                	xor    %edx,%eax
    a394:	89 85 28 e5 ff ff    	mov    %eax,-0x1ad8(%rbp)
    a39a:	c7 05 a0 fc 00 00 00 	movl   $0x0,0xfca0(%rip)        # 1a044 <g_104>
    a3a1:	00 00 00 
    a3a4:	e9 a9 01 00 00       	jmpq   a552 <func_1+0x2d9d>
    a3a9:	c7 85 a0 e2 ff ff 00 	movl   $0x0,-0x1d60(%rbp)
    a3b0:	00 00 00 
    a3b3:	eb 21                	jmp    a3d6 <func_1+0x2c21>
    a3b5:	8b 85 a0 e2 ff ff    	mov    -0x1d60(%rbp),%eax
    a3bb:	48 98                	cltq   
    a3bd:	48 bb 7d 10 13 8f 00 	movabs $0x865d2f008f13107d,%rbx
    a3c4:	2f 5d 86 
    a3c7:	48 89 9c c5 60 e5 ff 	mov    %rbx,-0x1aa0(%rbp,%rax,8)
    a3ce:	ff 
    a3cf:	83 85 a0 e2 ff ff 01 	addl   $0x1,-0x1d60(%rbp)
    a3d6:	83 bd a0 e2 ff ff 02 	cmpl   $0x2,-0x1d60(%rbp)
    a3dd:	7e d6                	jle    a3b5 <func_1+0x2c00>
    a3df:	c7 85 a0 e2 ff ff 00 	movl   $0x0,-0x1d60(%rbp)
    a3e6:	00 00 00 
    a3e9:	eb 54                	jmp    a43f <func_1+0x2c8a>
    a3eb:	c7 85 a4 e2 ff ff 00 	movl   $0x0,-0x1d5c(%rbp)
    a3f2:	00 00 00 
    a3f5:	eb 38                	jmp    a42f <func_1+0x2c7a>
    a3f7:	8b 85 a4 e2 ff ff    	mov    -0x1d5c(%rbp),%eax
    a3fd:	48 63 c8             	movslq %eax,%rcx
    a400:	8b 85 a0 e2 ff ff    	mov    -0x1d60(%rbp),%eax
    a406:	48 63 d0             	movslq %eax,%rdx
    a409:	48 89 d0             	mov    %rdx,%rax
    a40c:	48 c1 e0 02          	shl    $0x2,%rax
    a410:	48 01 d0             	add    %rdx,%rax
    a413:	48 01 c0             	add    %rax,%rax
    a416:	48 01 c8             	add    %rcx,%rax
    a419:	48 8d 15 e0 0e 01 00 	lea    0x10ee0(%rip),%rdx        # 1b300 <g_405>
    a420:	48 89 94 c5 40 f8 ff 	mov    %rdx,-0x7c0(%rbp,%rax,8)
    a427:	ff 
    a428:	83 85 a4 e2 ff ff 01 	addl   $0x1,-0x1d5c(%rbp)
    a42f:	83 bd a4 e2 ff ff 09 	cmpl   $0x9,-0x1d5c(%rbp)
    a436:	7e bf                	jle    a3f7 <func_1+0x2c42>
    a438:	83 85 a0 e2 ff ff 01 	addl   $0x1,-0x1d60(%rbp)
    a43f:	83 bd a0 e2 ff ff 00 	cmpl   $0x0,-0x1d60(%rbp)
    a446:	7e a3                	jle    a3eb <func_1+0x2c36>
    a448:	83 bd bc e2 ff ff 00 	cmpl   $0x0,-0x1d44(%rbp)
    a44f:	0f 85 f1 f8 ff ff    	jne    9d46 <func_1+0x2591>
    a455:	c7 05 c5 fb 00 00 17 	movl   $0x17,0xfbc5(%rip)        # 1a024 <g_10>
    a45c:	00 00 00 
    a45f:	e9 c1 00 00 00       	jmpq   a525 <func_1+0x2d70>
    a464:	c7 85 d4 e2 ff ff 00 	movl   $0x0,-0x1d2c(%rbp)
    a46b:	00 00 00 
    a46e:	48 8b 85 60 e5 ff ff 	mov    -0x1aa0(%rbp),%rax
    a475:	48 83 e8 01          	sub    $0x1,%rax
    a479:	48 89 85 60 e5 ff ff 	mov    %rax,-0x1aa0(%rbp)
    a480:	48 8b 85 48 f8 ff ff 	mov    -0x7b8(%rbp),%rax
    a487:	48 89 05 12 21 01 00 	mov    %rax,0x12112(%rip)        # 1c5a0 <g_2179>
    a48e:	48 c7 05 97 fb 00 00 	movq   $0x1c,0xfb97(%rip)        # 1a030 <g_91>
    a495:	1c 00 00 00 
    a499:	90                   	nop
    a49a:	48 8b 05 8f fb 00 00 	mov    0xfb8f(%rip),%rax        # 1a030 <g_91>
    a4a1:	48 83 f8 02          	cmp    $0x2,%rax
    a4a5:	7f 63                	jg     a50a <func_1+0x2d55>
    a4a7:	48 b8 4c 10 e0 9e e0 	movabs $0x40a15be09ee0104c,%rax
    a4ae:	5b a1 40 
    a4b1:	48 89 85 08 e4 ff ff 	mov    %rax,-0x1bf8(%rbp)
    a4b8:	48 8b 85 00 e4 ff ff 	mov    -0x1c00(%rbp),%rax
    a4bf:	48 8d 95 90 e2 ff ff 	lea    -0x1d70(%rbp),%rdx
    a4c6:	48 89 10             	mov    %rdx,(%rax)
    a4c9:	8b 85 7c e2 ff ff    	mov    -0x1d84(%rbp),%eax
    a4cf:	33 85 d4 e2 ff ff    	xor    -0x1d2c(%rbp),%eax
    a4d5:	89 85 7c e2 ff ff    	mov    %eax,-0x1d84(%rbp)
    a4db:	48 8b 85 00 e4 ff ff 	mov    -0x1c00(%rbp),%rax
    a4e2:	48 8b 00             	mov    (%rax),%rax
    a4e5:	8b 10                	mov    (%rax),%edx
    a4e7:	48 8b 85 08 e4 ff ff 	mov    -0x1bf8(%rbp),%rax
    a4ee:	89 c1                	mov    %eax,%ecx
    a4f0:	48 8b 85 00 e4 ff ff 	mov    -0x1c00(%rbp),%rax
    a4f7:	48 8b 00             	mov    (%rax),%rax
    a4fa:	31 ca                	xor    %ecx,%edx
    a4fc:	89 10                	mov    %edx,(%rax)
    a4fe:	48 8b 85 68 e5 ff ff 	mov    -0x1a98(%rbp),%rax
    a505:	e9 f2 12 00 00       	jmpq   b7fc <func_1+0x4047>
    a50a:	8b 05 14 fb 00 00    	mov    0xfb14(%rip),%eax        # 1a024 <g_10>
    a510:	89 c0                	mov    %eax,%eax
    a512:	be 03 00 00 00       	mov    $0x3,%esi
    a517:	48 89 c7             	mov    %rax,%rdi
    a51a:	e8 89 c3 ff ff       	callq  68a8 <safe_sub_func_int64_t_s_s>
    a51f:	89 05 ff fa 00 00    	mov    %eax,0xfaff(%rip)        # 1a024 <g_10>
    a525:	8b 05 f9 fa 00 00    	mov    0xfaf9(%rip),%eax        # 1a024 <g_10>
    a52b:	83 f8 0c             	cmp    $0xc,%eax
    a52e:	0f 86 30 ff ff ff    	jbe    a464 <func_1+0x2caf>
    a534:	8b 05 0a fb 00 00    	mov    0xfb0a(%rip),%eax        # 1a044 <g_104>
    a53a:	0f b6 c0             	movzbl %al,%eax
    a53d:	be 06 00 00 00       	mov    $0x6,%esi
    a542:	89 c7                	mov    %eax,%edi
    a544:	e8 11 c6 ff ff       	callq  6b5a <safe_add_func_uint8_t_u_u>
    a549:	0f b6 c0             	movzbl %al,%eax
    a54c:	89 05 f2 fa 00 00    	mov    %eax,0xfaf2(%rip)        # 1a044 <g_104>
    a552:	8b 05 ec fa 00 00    	mov    0xfaec(%rip),%eax        # 1a044 <g_104>
    a558:	83 f8 0c             	cmp    $0xc,%eax
    a55b:	0f 8e 48 fe ff ff    	jle    a3a9 <func_1+0x2bf4>
    a561:	c7 85 80 e2 ff ff 00 	movl   $0x0,-0x1d80(%rbp)
    a568:	00 00 00 
    a56b:	e9 07 02 00 00       	jmpq   a777 <func_1+0x2fc2>
    a570:	c7 85 d0 e2 ff ff fb 	movl   $0x7db642fb,-0x1d30(%rbp)
    a577:	42 b6 7d 
    a57a:	c6 85 69 e2 ff ff 23 	movb   $0x23,-0x1d97(%rbp)
    a581:	48 8d 85 40 f8 ff ff 	lea    -0x7c0(%rbp),%rax
    a588:	48 8d 15 f1 aa 00 00 	lea    0xaaf1(%rip),%rdx        # 15080 <g_1623+0x28>
    a58f:	b9 f0 00 00 00       	mov    $0xf0,%ecx
    a594:	48 89 c7             	mov    %rax,%rdi
    a597:	48 89 d6             	mov    %rdx,%rsi
    a59a:	f3 48 a5             	rep movsq %ds:(%rsi),%es:(%rdi)
    a59d:	c7 85 60 e5 ff ff 1a 	movl   $0x7994f1a,-0x1aa0(%rbp)
    a5a4:	4f 99 07 
    a5a7:	c7 85 64 e5 ff ff 1a 	movl   $0x7994f1a,-0x1a9c(%rbp)
    a5ae:	4f 99 07 
    a5b1:	c7 85 68 e5 ff ff 1a 	movl   $0x7994f1a,-0x1a98(%rbp)
    a5b8:	4f 99 07 
    a5bb:	c7 85 6c e5 ff ff 1a 	movl   $0x7994f1a,-0x1a94(%rbp)
    a5c2:	4f 99 07 
    a5c5:	c7 85 70 e5 ff ff 1a 	movl   $0x7994f1a,-0x1a90(%rbp)
    a5cc:	4f 99 07 
    a5cf:	c7 85 74 e5 ff ff 1a 	movl   $0x7994f1a,-0x1a8c(%rbp)
    a5d6:	4f 99 07 
    a5d9:	8b 85 68 e5 ff ff    	mov    -0x1a98(%rbp),%eax
    a5df:	41 89 c5             	mov    %eax,%r13d
    a5e2:	8b 9d 78 e2 ff ff    	mov    -0x1d88(%rbp),%ebx
    a5e8:	8b 05 c2 fa 00 00    	mov    0xfac2(%rip),%eax        # 1a0b0 <g_209>
    a5ee:	25 ff ff ff 01       	and    $0x1ffffff,%eax
    a5f3:	41 89 c6             	mov    %eax,%r14d
    a5f6:	8b 85 6c e5 ff ff    	mov    -0x1a94(%rbp),%eax
    a5fc:	41 89 c7             	mov    %eax,%r15d
    a5ff:	8b 85 90 e2 ff ff    	mov    -0x1d70(%rbp),%eax
    a605:	0f be c0             	movsbl %al,%eax
    a608:	be 01 00 00 00       	mov    $0x1,%esi
    a60d:	89 c7                	mov    %eax,%edi
    a60f:	e8 58 bd ff ff       	callq  636c <safe_rshift_func_int8_t_s_u>
    a614:	84 c0                	test   %al,%al
    a616:	0f 84 b1 00 00 00    	je     a6cd <func_1+0x2f18>
    a61c:	8b 85 90 e2 ff ff    	mov    -0x1d70(%rbp),%eax
    a622:	0f be d0             	movsbl %al,%edx
    a625:	8b 85 80 e2 ff ff    	mov    -0x1d80(%rbp),%eax
    a62b:	0f be c0             	movsbl %al,%eax
    a62e:	89 d6                	mov    %edx,%esi
    a630:	89 c7                	mov    %eax,%edi
    a632:	e8 db bb ff ff       	callq  6212 <safe_mul_func_int8_t_s_s>
    a637:	44 0f be e0          	movsbl %al,%r12d
    a63b:	48 8b 05 ae 0c 01 00 	mov    0x10cae(%rip),%rax        # 1b2f0 <g_337>
    a642:	0f b6 00             	movzbl (%rax),%eax
    a645:	0f b6 c0             	movzbl %al,%eax
    a648:	89 c6                	mov    %eax,%esi
    a64a:	bf d7 00 00 00       	mov    $0xd7,%edi
    a64f:	e8 06 c5 ff ff       	callq  6b5a <safe_add_func_uint8_t_u_u>
    a654:	0f b6 c0             	movzbl %al,%eax
    a657:	41 39 c4             	cmp    %eax,%r12d
    a65a:	0f 9d c0             	setge  %al
    a65d:	0f b6 c0             	movzbl %al,%eax
    a660:	be 00 3f 00 00       	mov    $0x3f00,%esi
    a665:	89 c7                	mov    %eax,%edi
    a667:	e8 d1 c6 ff ff       	callq  6d3d <safe_mul_func_uint16_t_u_u>
    a66c:	0f b7 c0             	movzwl %ax,%eax
    a66f:	48 8b 95 50 fd ff ff 	mov    -0x2b0(%rbp),%rdx
    a676:	31 d0                	xor    %edx,%eax
    a678:	89 c2                	mov    %eax,%edx
    a67a:	0f b6 85 69 e2 ff ff 	movzbl -0x1d97(%rbp),%eax
    a681:	89 d6                	mov    %edx,%esi
    a683:	89 c7                	mov    %eax,%edi
    a685:	e8 34 c7 ff ff       	callq  6dbe <safe_lshift_func_uint16_t_u_s>
    a68a:	48 8b 95 50 fd ff ff 	mov    -0x2b0(%rbp),%rdx
    a691:	48 8b 05 48 0c 01 00 	mov    0x10c48(%rip),%rax        # 1b2e0 <g_223>
    a698:	89 10                	mov    %edx,(%rax)
    a69a:	8b 00                	mov    (%rax),%eax
    a69c:	89 c2                	mov    %eax,%edx
    a69e:	8b 85 74 e5 ff ff    	mov    -0x1a8c(%rbp),%eax
    a6a4:	09 d0                	or     %edx,%eax
    a6a6:	89 c0                	mov    %eax,%eax
    a6a8:	48 be 70 9f 77 71 f6 	movabs $0xdf7f3cf671779f70,%rsi
    a6af:	3c 7f df 
    a6b2:	48 89 c7             	mov    %rax,%rdi
    a6b5:	e8 ee c1 ff ff       	callq  68a8 <safe_sub_func_int64_t_s_s>
    a6ba:	48 8b 05 27 c4 00 00 	mov    0xc427(%rip),%rax        # 16ae8 <l_2215.4287+0x28>
    a6c1:	48 85 c0             	test   %rax,%rax
    a6c4:	74 07                	je     a6cd <func_1+0x2f18>
    a6c6:	b8 01 00 00 00       	mov    $0x1,%eax
    a6cb:	eb 05                	jmp    a6d2 <func_1+0x2f1d>
    a6cd:	b8 00 00 00 00       	mov    $0x0,%eax
    a6d2:	48 98                	cltq   
    a6d4:	4c 89 fe             	mov    %r15,%rsi
    a6d7:	48 89 c7             	mov    %rax,%rdi
    a6da:	e8 6c c9 ff ff       	callq  704b <safe_sub_func_uint64_t_u_u>
    a6df:	4c 89 f6             	mov    %r14,%rsi
    a6e2:	48 89 c7             	mov    %rax,%rdi
    a6e5:	e8 0d c3 ff ff       	callq  69f7 <safe_div_func_int64_t_s_s>
    a6ea:	98                   	cwtl   
    a6eb:	89 de                	mov    %ebx,%esi
    a6ed:	89 c7                	mov    %eax,%edi
    a6ef:	e8 9e bd ff ff       	callq  6492 <safe_lshift_func_int16_t_s_s>
    a6f4:	98                   	cwtl   
    a6f5:	be 07 00 00 00       	mov    $0x7,%esi
    a6fa:	89 c7                	mov    %eax,%edi
    a6fc:	e8 91 bd ff ff       	callq  6492 <safe_lshift_func_int16_t_s_s>
    a701:	48 0f bf c0          	movswq %ax,%rax
    a705:	4c 89 ee             	mov    %r13,%rsi
    a708:	48 89 c7             	mov    %rax,%rdi
    a70b:	e8 1e c9 ff ff       	callq  702e <safe_add_func_uint64_t_u_u>
    a710:	48 ba e9 62 2c 84 39 	movabs $0x57326239842c62e9,%rdx
    a717:	62 32 57 
    a71a:	48 39 d0             	cmp    %rdx,%rax
    a71d:	0f 94 c0             	sete   %al
    a720:	0f b6 d0             	movzbl %al,%edx
    a723:	8b 85 74 e5 ff ff    	mov    -0x1a8c(%rbp),%eax
    a729:	09 c2                	or     %eax,%edx
    a72b:	8b 85 c0 e2 ff ff    	mov    -0x1d40(%rbp),%eax
    a731:	39 c2                	cmp    %eax,%edx
    a733:	0f 94 c0             	sete   %al
    a736:	0f b6 c0             	movzbl %al,%eax
    a739:	89 c6                	mov    %eax,%esi
    a73b:	bf 01 00 00 00       	mov    $0x1,%edi
    a740:	e8 f8 c5 ff ff       	callq  6d3d <safe_mul_func_uint16_t_u_u>
    a745:	48 8b 05 34 15 01 00 	mov    0x11534(%rip),%rax        # 1bc80 <g_1349>
    a74c:	8b 95 7c e2 ff ff    	mov    -0x1d84(%rbp),%edx
    a752:	89 10                	mov    %edx,(%rax)
    a754:	8b 00                	mov    (%rax),%eax
    a756:	21 85 98 e2 ff ff    	and    %eax,-0x1d68(%rbp)
    a75c:	8b 85 80 e2 ff ff    	mov    -0x1d80(%rbp),%eax
    a762:	48 98                	cltq   
    a764:	be 03 00 00 00       	mov    $0x3,%esi
    a769:	48 89 c7             	mov    %rax,%rdi
    a76c:	e8 bd c8 ff ff       	callq  702e <safe_add_func_uint64_t_u_u>
    a771:	89 85 80 e2 ff ff    	mov    %eax,-0x1d80(%rbp)
    a777:	8b 85 80 e2 ff ff    	mov    -0x1d80(%rbp),%eax
    a77d:	83 f8 1a             	cmp    $0x1a,%eax
    a780:	0f 84 ea fd ff ff    	je     a570 <func_1+0x2dbb>
    a786:	48 8b 05 f3 14 01 00 	mov    0x114f3(%rip),%rax        # 1bc80 <g_1349>
    a78d:	c7 00 dc 01 95 a5    	movl   $0xa59501dc,(%rax)
    a793:	8b 85 c4 e2 ff ff    	mov    -0x1d3c(%rbp),%eax
    a799:	0f bf d8             	movswl %ax,%ebx
    a79c:	48 83 bd 50 e3 ff ff 	cmpq   $0x0,-0x1cb0(%rbp)
    a7a3:	00 
    a7a4:	0f 84 de 00 00 00    	je     a888 <func_1+0x30d3>
    a7aa:	8b 85 78 e2 ff ff    	mov    -0x1d88(%rbp),%eax
    a7b0:	41 89 c4             	mov    %eax,%r12d
    a7b3:	8b 85 78 e2 ff ff    	mov    -0x1d88(%rbp),%eax
    a7b9:	0f bf d0             	movswl %ax,%edx
    a7bc:	8b 85 c0 e2 ff ff    	mov    -0x1d40(%rbp),%eax
    a7c2:	98                   	cwtl   
    a7c3:	89 d6                	mov    %edx,%esi
    a7c5:	89 c7                	mov    %eax,%edi
    a7c7:	e8 29 bc ff ff       	callq  63f5 <safe_mul_func_int16_t_s_s>
    a7cc:	48 0f bf c0          	movswq %ax,%rax
    a7d0:	48 be 62 72 14 34 84 	movabs $0x32f52b8434147262,%rsi
    a7d7:	2b f5 32 
    a7da:	48 89 c7             	mov    %rax,%rdi
    a7dd:	e8 9e c8 ff ff       	callq  7080 <safe_mod_func_uint64_t_u_u>
    a7e2:	48 89 c2             	mov    %rax,%rdx
    a7e5:	48 8b 05 54 1d 01 00 	mov    0x11d54(%rip),%rax        # 1c540 <g_1982>
    a7ec:	48 8b 00             	mov    (%rax),%rax
    a7ef:	48 8b 00             	mov    (%rax),%rax
    a7f2:	48 89 d6             	mov    %rdx,%rsi
    a7f5:	48 89 c7             	mov    %rax,%rdi
    a7f8:	e8 31 c8 ff ff       	callq  702e <safe_add_func_uint64_t_u_u>
    a7fd:	0f b6 c0             	movzbl %al,%eax
    a800:	44 89 e6             	mov    %r12d,%esi
    a803:	89 c7                	mov    %eax,%edi
    a805:	e8 42 c4 ff ff       	callq  6c4c <safe_lshift_func_uint8_t_u_u>
    a80a:	8b 85 84 e2 ff ff    	mov    -0x1d7c(%rbp),%eax
    a810:	85 c0                	test   %eax,%eax
    a812:	8b 85 80 e2 ff ff    	mov    -0x1d80(%rbp),%eax
    a818:	89 85 80 e2 ff ff    	mov    %eax,-0x1d80(%rbp)
    a81e:	8b 85 80 e2 ff ff    	mov    -0x1d80(%rbp),%eax
    a824:	89 c2                	mov    %eax,%edx
    a826:	8b 85 90 e2 ff ff    	mov    -0x1d70(%rbp),%eax
    a82c:	0f b7 c0             	movzwl %ax,%eax
    a82f:	89 d6                	mov    %edx,%esi
    a831:	89 c7                	mov    %eax,%edi
    a833:	e8 ce c5 ff ff       	callq  6e06 <safe_lshift_func_uint16_t_u_u>
    a838:	0f b7 c0             	movzwl %ax,%eax
    a83b:	48 89 c6             	mov    %rax,%rsi
    a83e:	48 c7 c7 ff ff ff ff 	mov    $0xffffffffffffffff,%rdi
    a845:	e8 ad c1 ff ff       	callq  69f7 <safe_div_func_int64_t_s_s>
    a84a:	be 02 00 00 00       	mov    $0x2,%esi
    a84f:	bf 01 00 00 00       	mov    $0x1,%edi
    a854:	e8 65 c4 ff ff       	callq  6cbe <safe_rshift_func_uint8_t_u_u>
    a859:	84 c0                	test   %al,%al
    a85b:	0f 95 c0             	setne  %al
    a85e:	0f b6 c0             	movzbl %al,%eax
    a861:	48 98                	cltq   
    a863:	48 39 85 50 e3 ff ff 	cmp    %rax,-0x1cb0(%rbp)
    a86a:	0f 9e c0             	setle  %al
    a86d:	0f b6 c0             	movzbl %al,%eax
    a870:	be 06 00 00 00       	mov    $0x6,%esi
    a875:	89 c7                	mov    %eax,%edi
    a877:	e8 83 c4 ff ff       	callq  6cff <safe_add_func_uint16_t_u_u>
    a87c:	66 85 c0             	test   %ax,%ax
    a87f:	74 07                	je     a888 <func_1+0x30d3>
    a881:	b8 01 00 00 00       	mov    $0x1,%eax
    a886:	eb 05                	jmp    a88d <func_1+0x30d8>
    a888:	b8 00 00 00 00       	mov    $0x0,%eax
    a88d:	98                   	cwtl   
    a88e:	89 de                	mov    %ebx,%esi
    a890:	89 c7                	mov    %eax,%edi
    a892:	e8 5e bb ff ff       	callq  63f5 <safe_mul_func_int16_t_s_s>
    a897:	89 c2                	mov    %eax,%edx
    a899:	48 8b 05 40 0a 01 00 	mov    0x10a40(%rip),%rax        # 1b2e0 <g_223>
    a8a0:	0f bf d2             	movswl %dx,%edx
    a8a3:	89 10                	mov    %edx,(%rax)
    a8a5:	e9 9b 06 00 00       	jmpq   af45 <func_1+0x3790>
    a8aa:	66 c7 85 70 e2 ff ff 	movw   $0xffff,-0x1d90(%rbp)
    a8b1:	ff ff 
    a8b3:	c7 85 8c e2 ff ff 08 	movl   $0x8,-0x1d74(%rbp)
    a8ba:	00 00 00 
    a8bd:	c7 85 c8 e2 ff ff ac 	movl   $0xb97092ac,-0x1d38(%rbp)
    a8c4:	92 70 b9 
    a8c7:	48 8d 05 da f7 00 00 	lea    0xf7da(%rip),%rax        # 1a0a8 <g_205>
    a8ce:	48 89 85 30 e3 ff ff 	mov    %rax,-0x1cd0(%rbp)
    a8d5:	48 c7 85 88 e3 ff ff 	movq   $0x0,-0x1c78(%rbp)
    a8dc:	00 00 00 00 
    a8e0:	48 8d 05 f9 09 01 00 	lea    0x109f9(%rip),%rax        # 1b2e0 <g_223>
    a8e7:	48 89 85 90 e3 ff ff 	mov    %rax,-0x1c70(%rbp)
    a8ee:	c7 85 a8 e2 ff ff 00 	movl   $0x0,-0x1d58(%rbp)
    a8f5:	00 00 00 
    a8f8:	eb 46                	jmp    a940 <func_1+0x318b>
    a8fa:	c7 85 ac e2 ff ff 00 	movl   $0x0,-0x1d54(%rbp)
    a901:	00 00 00 
    a904:	eb 2a                	jmp    a930 <func_1+0x317b>
    a906:	8b 85 ac e2 ff ff    	mov    -0x1d54(%rbp),%eax
    a90c:	48 63 d0             	movslq %eax,%rdx
    a90f:	8b 85 a8 e2 ff ff    	mov    -0x1d58(%rbp),%eax
    a915:	48 98                	cltq   
    a917:	48 01 c2             	add    %rax,%rdx
    a91a:	48 8d 85 30 e3 ff ff 	lea    -0x1cd0(%rbp),%rax
    a921:	48 89 84 d5 b0 e4 ff 	mov    %rax,-0x1b50(%rbp,%rdx,8)
    a928:	ff 
    a929:	83 85 ac e2 ff ff 01 	addl   $0x1,-0x1d54(%rbp)
    a930:	83 bd ac e2 ff ff 00 	cmpl   $0x0,-0x1d54(%rbp)
    a937:	7e cd                	jle    a906 <func_1+0x3151>
    a939:	83 85 a8 e2 ff ff 01 	addl   $0x1,-0x1d58(%rbp)
    a940:	83 bd a8 e2 ff ff 01 	cmpl   $0x1,-0x1d58(%rbp)
    a947:	7e b1                	jle    a8fa <func_1+0x3145>
    a949:	c7 85 a8 e2 ff ff 00 	movl   $0x0,-0x1d58(%rbp)
    a950:	00 00 00 
    a953:	eb 1e                	jmp    a973 <func_1+0x31be>
    a955:	8b 85 a8 e2 ff ff    	mov    -0x1d58(%rbp),%eax
    a95b:	48 98                	cltq   
    a95d:	48 8d 15 2c 09 01 00 	lea    0x1092c(%rip),%rdx        # 1b290 <g_111+0x30>
    a964:	48 89 94 c5 e0 e4 ff 	mov    %rdx,-0x1b20(%rbp,%rax,8)
    a96b:	ff 
    a96c:	83 85 a8 e2 ff ff 01 	addl   $0x1,-0x1d58(%rbp)
    a973:	83 bd a8 e2 ff ff 03 	cmpl   $0x3,-0x1d58(%rbp)
    a97a:	7e d9                	jle    a955 <func_1+0x31a0>
    a97c:	48 8b 05 35 09 01 00 	mov    0x10935(%rip),%rax        # 1b2b8 <g_117>
    a983:	48 8b 10             	mov    (%rax),%rdx
    a986:	48 8b 05 13 1c 01 00 	mov    0x11c13(%rip),%rax        # 1c5a0 <g_2179>
    a98d:	48 8b 00             	mov    (%rax),%rax
    a990:	8b 12                	mov    (%rdx),%edx
    a992:	89 10                	mov    %edx,(%rax)
    a994:	48 8b 05 e5 12 01 00 	mov    0x112e5(%rip),%rax        # 1bc80 <g_1349>
    a99b:	8b 95 c0 e2 ff ff    	mov    -0x1d40(%rbp),%edx
    a9a1:	89 10                	mov    %edx,(%rax)
    a9a3:	c7 05 b8 03 01 00 00 	movl   $0x0,0x103b8(%rip)        # 1ad65 <g_1743+0x5>
    a9aa:	00 00 00 
    a9ad:	e9 73 05 00 00       	jmpq   af25 <func_1+0x3770>
    a9b2:	48 8d 05 af 12 01 00 	lea    0x112af(%rip),%rax        # 1bc68 <g_1301>
    a9b9:	48 89 85 20 e5 ff ff 	mov    %rax,-0x1ae0(%rbp)
    a9c0:	48 8d 05 a1 12 01 00 	lea    0x112a1(%rip),%rax        # 1bc68 <g_1301>
    a9c7:	48 89 85 28 e5 ff ff 	mov    %rax,-0x1ad8(%rbp)
    a9ce:	48 8d 05 93 12 01 00 	lea    0x11293(%rip),%rax        # 1bc68 <g_1301>
    a9d5:	48 89 85 30 e5 ff ff 	mov    %rax,-0x1ad0(%rbp)
    a9dc:	48 8d 05 85 12 01 00 	lea    0x11285(%rip),%rax        # 1bc68 <g_1301>
    a9e3:	48 89 85 38 e5 ff ff 	mov    %rax,-0x1ac8(%rbp)
    a9ea:	48 8d 05 77 12 01 00 	lea    0x11277(%rip),%rax        # 1bc68 <g_1301>
    a9f1:	48 89 85 40 e5 ff ff 	mov    %rax,-0x1ac0(%rbp)
    a9f8:	48 8d 05 69 12 01 00 	lea    0x11269(%rip),%rax        # 1bc68 <g_1301>
    a9ff:	48 89 85 48 e5 ff ff 	mov    %rax,-0x1ab8(%rbp)
    aa06:	48 8d 05 5b 12 01 00 	lea    0x1125b(%rip),%rax        # 1bc68 <g_1301>
    aa0d:	48 89 85 50 e5 ff ff 	mov    %rax,-0x1ab0(%rbp)
    aa14:	c7 85 60 e5 ff ff a5 	movl   $0x92614ea5,-0x1aa0(%rbp)
    aa1b:	4e 61 92 
    aa1e:	c7 85 64 e5 ff ff f8 	movl   $0xfffffff8,-0x1a9c(%rbp)
    aa25:	ff ff ff 
    aa28:	c7 85 68 e5 ff ff 52 	movl   $0x3662ab52,-0x1a98(%rbp)
    aa2f:	ab 62 36 
    aa32:	c7 85 6c e5 ff ff f8 	movl   $0xfffffff8,-0x1a94(%rbp)
    aa39:	ff ff ff 
    aa3c:	c7 85 70 e5 ff ff a5 	movl   $0x92614ea5,-0x1a90(%rbp)
    aa43:	4e 61 92 
    aa46:	c7 85 74 e5 ff ff f8 	movl   $0xfffffff8,-0x1a8c(%rbp)
    aa4d:	ff ff ff 
    aa50:	c7 85 78 e5 ff ff 52 	movl   $0x3662ab52,-0x1a88(%rbp)
    aa57:	ab 62 36 
    aa5a:	c7 85 7c e5 ff ff f8 	movl   $0xfffffff8,-0x1a84(%rbp)
    aa61:	ff ff ff 
    aa64:	c7 85 80 e5 ff ff a5 	movl   $0x92614ea5,-0x1a80(%rbp)
    aa6b:	4e 61 92 
    aa6e:	c7 85 84 e5 ff ff f8 	movl   $0xfffffff8,-0x1a7c(%rbp)
    aa75:	ff ff ff 
    aa78:	c7 85 88 e5 ff ff 52 	movl   $0x3662ab52,-0x1a78(%rbp)
    aa7f:	ab 62 36 
    aa82:	c7 85 8c e5 ff ff f8 	movl   $0xfffffff8,-0x1a74(%rbp)
    aa89:	ff ff ff 
    aa8c:	c7 85 90 e5 ff ff a5 	movl   $0x92614ea5,-0x1a70(%rbp)
    aa93:	4e 61 92 
    aa96:	c7 85 94 e5 ff ff f8 	movl   $0xfffffff8,-0x1a6c(%rbp)
    aa9d:	ff ff ff 
    aaa0:	c7 85 98 e5 ff ff 52 	movl   $0x3662ab52,-0x1a68(%rbp)
    aaa7:	ab 62 36 
    aaaa:	c7 85 9c e5 ff ff f8 	movl   $0xfffffff8,-0x1a64(%rbp)
    aab1:	ff ff ff 
    aab4:	c7 85 a0 e5 ff ff a5 	movl   $0x92614ea5,-0x1a60(%rbp)
    aabb:	4e 61 92 
    aabe:	c7 85 a4 e5 ff ff f8 	movl   $0xfffffff8,-0x1a5c(%rbp)
    aac5:	ff ff ff 
    aac8:	c7 85 a8 e5 ff ff 52 	movl   $0x3662ab52,-0x1a58(%rbp)
    aacf:	ab 62 36 
    aad2:	c7 85 ac e5 ff ff f8 	movl   $0xfffffff8,-0x1a54(%rbp)
    aad9:	ff ff ff 
    aadc:	c6 85 68 e2 ff ff f8 	movb   $0xf8,-0x1d98(%rbp)
    aae3:	c7 85 40 f1 ff ff ff 	movl   $0xffffffff,-0xec0(%rbp)
    aaea:	ff ff ff 
    aaed:	c7 85 44 f1 ff ff f2 	movl   $0x3ccef7f2,-0xebc(%rbp)
    aaf4:	f7 ce 3c 
    aaf7:	c7 85 48 f1 ff ff f2 	movl   $0x3ccef7f2,-0xeb8(%rbp)
    aafe:	f7 ce 3c 
    ab01:	c7 85 4c f1 ff ff ff 	movl   $0xffffffff,-0xeb4(%rbp)
    ab08:	ff ff ff 
    ab0b:	c7 85 50 f1 ff ff f6 	movl   $0xfffffff6,-0xeb0(%rbp)
    ab12:	ff ff ff 
    ab15:	c7 85 54 f1 ff ff ff 	movl   $0xffffffff,-0xeac(%rbp)
    ab1c:	ff ff ff 
    ab1f:	c7 85 58 f1 ff ff f2 	movl   $0x3ccef7f2,-0xea8(%rbp)
    ab26:	f7 ce 3c 
    ab29:	c7 85 5c f1 ff ff f2 	movl   $0x3ccef7f2,-0xea4(%rbp)
    ab30:	f7 ce 3c 
    ab33:	c7 85 60 f1 ff ff ff 	movl   $0xffffffff,-0xea0(%rbp)
    ab3a:	ff ff ff 
    ab3d:	c7 85 64 f1 ff ff f6 	movl   $0xfffffff6,-0xe9c(%rbp)
    ab44:	ff ff ff 
    ab47:	c7 85 68 f1 ff ff ff 	movl   $0xffffffff,-0xe98(%rbp)
    ab4e:	ff ff ff 
    ab51:	c7 85 6c f1 ff ff f2 	movl   $0x3ccef7f2,-0xe94(%rbp)
    ab58:	f7 ce 3c 
    ab5b:	c7 85 70 f1 ff ff f2 	movl   $0x3ccef7f2,-0xe90(%rbp)
    ab62:	f7 ce 3c 
    ab65:	c7 85 74 f1 ff ff ff 	movl   $0xffffffff,-0xe8c(%rbp)
    ab6c:	ff ff ff 
    ab6f:	c7 85 78 f1 ff ff f6 	movl   $0xfffffff6,-0xe88(%rbp)
    ab76:	ff ff ff 
    ab79:	c7 85 7c f1 ff ff ff 	movl   $0xffffffff,-0xe84(%rbp)
    ab80:	ff ff ff 
    ab83:	c7 85 80 f1 ff ff f2 	movl   $0x3ccef7f2,-0xe80(%rbp)
    ab8a:	f7 ce 3c 
    ab8d:	c7 85 84 f1 ff ff f2 	movl   $0x3ccef7f2,-0xe7c(%rbp)
    ab94:	f7 ce 3c 
    ab97:	c7 85 88 f1 ff ff ff 	movl   $0xffffffff,-0xe78(%rbp)
    ab9e:	ff ff ff 
    aba1:	c7 85 8c f1 ff ff f6 	movl   $0xfffffff6,-0xe74(%rbp)
    aba8:	ff ff ff 
    abab:	c7 85 90 f1 ff ff ff 	movl   $0xffffffff,-0xe70(%rbp)
    abb2:	ff ff ff 
    abb5:	c7 85 94 f1 ff ff f2 	movl   $0x3ccef7f2,-0xe6c(%rbp)
    abbc:	f7 ce 3c 
    abbf:	c7 85 98 f1 ff ff f2 	movl   $0x3ccef7f2,-0xe68(%rbp)
    abc6:	f7 ce 3c 
    abc9:	c7 85 9c f1 ff ff ff 	movl   $0xffffffff,-0xe64(%rbp)
    abd0:	ff ff ff 
    abd3:	c7 85 a0 f1 ff ff f6 	movl   $0xfffffff6,-0xe60(%rbp)
    abda:	ff ff ff 
    abdd:	c7 85 a4 f1 ff ff ff 	movl   $0xffffffff,-0xe5c(%rbp)
    abe4:	ff ff ff 
    abe7:	c7 85 a8 f1 ff ff f2 	movl   $0x3ccef7f2,-0xe58(%rbp)
    abee:	f7 ce 3c 
    abf1:	c7 85 ac f1 ff ff f2 	movl   $0x3ccef7f2,-0xe54(%rbp)
    abf8:	f7 ce 3c 
    abfb:	c7 85 b0 f1 ff ff ff 	movl   $0xffffffff,-0xe50(%rbp)
    ac02:	ff ff ff 
    ac05:	c7 85 b4 f1 ff ff f6 	movl   $0xfffffff6,-0xe4c(%rbp)
    ac0c:	ff ff ff 
    ac0f:	c7 85 b8 f1 ff ff ff 	movl   $0xffffffff,-0xe48(%rbp)
    ac16:	ff ff ff 
    ac19:	c7 85 bc f1 ff ff f2 	movl   $0x3ccef7f2,-0xe44(%rbp)
    ac20:	f7 ce 3c 
    ac23:	c7 85 c0 f1 ff ff f2 	movl   $0x3ccef7f2,-0xe40(%rbp)
    ac2a:	f7 ce 3c 
    ac2d:	c7 85 c4 f1 ff ff ff 	movl   $0xffffffff,-0xe3c(%rbp)
    ac34:	ff ff ff 
    ac37:	c7 85 c8 f1 ff ff f6 	movl   $0xfffffff6,-0xe38(%rbp)
    ac3e:	ff ff ff 
    ac41:	c7 85 cc f1 ff ff ff 	movl   $0xffffffff,-0xe34(%rbp)
    ac48:	ff ff ff 
    ac4b:	c7 85 d0 f1 ff ff f2 	movl   $0x3ccef7f2,-0xe30(%rbp)
    ac52:	f7 ce 3c 
    ac55:	c7 85 d4 f1 ff ff f2 	movl   $0x3ccef7f2,-0xe2c(%rbp)
    ac5c:	f7 ce 3c 
    ac5f:	c7 85 d8 f1 ff ff ff 	movl   $0xffffffff,-0xe28(%rbp)
    ac66:	ff ff ff 
    ac69:	c7 85 dc f1 ff ff f6 	movl   $0xfffffff6,-0xe24(%rbp)
    ac70:	ff ff ff 
    ac73:	48 8b 85 58 e3 ff ff 	mov    -0x1ca8(%rbp),%rax
    ac7a:	48 8b 00             	mov    (%rax),%rax
    ac7d:	48 c7 00 01 00 00 00 	movq   $0x1,(%rax)
    ac84:	be 0c 00 00 00       	mov    $0xc,%esi
    ac89:	bf 8a 2c 00 00       	mov    $0x2c8a,%edi
    ac8e:	e8 b5 c1 ff ff       	callq  6e48 <safe_rshift_func_uint16_t_u_s>
    ac93:	0f b7 d8             	movzwl %ax,%ebx
    ac96:	48 8b 05 43 10 01 00 	mov    0x11043(%rip),%rax        # 1bce0 <g_1499>
    ac9d:	48 8b 00             	mov    (%rax),%rax
    aca0:	0f b6 00             	movzbl (%rax),%eax
    aca3:	0f be d0             	movsbl %al,%edx
    aca6:	48 8b 05 43 06 01 00 	mov    0x10643(%rip),%rax        # 1b2f0 <g_337>
    acad:	0f b6 00             	movzbl (%rax),%eax
    acb0:	83 c8 0f             	or     $0xf,%eax
    acb3:	0f be c0             	movsbl %al,%eax
    acb6:	89 d6                	mov    %edx,%esi
    acb8:	89 c7                	mov    %eax,%edi
    acba:	e8 15 b5 ff ff       	callq  61d4 <safe_add_func_int8_t_s_s>
    acbf:	84 c0                	test   %al,%al
    acc1:	74 10                	je     acd3 <func_1+0x351e>
    acc3:	80 bd 68 e2 ff ff 00 	cmpb   $0x0,-0x1d98(%rbp)
    acca:	74 07                	je     acd3 <func_1+0x351e>
    accc:	b8 01 00 00 00       	mov    $0x1,%eax
    acd1:	eb 05                	jmp    acd8 <func_1+0x3523>
    acd3:	b8 00 00 00 00       	mov    $0x0,%eax
    acd8:	89 c2                	mov    %eax,%edx
    acda:	0f b7 85 70 e2 ff ff 	movzwl -0x1d90(%rbp),%eax
    ace1:	21 d0                	and    %edx,%eax
    ace3:	66 89 85 70 e2 ff ff 	mov    %ax,-0x1d90(%rbp)
    acea:	be 05 00 00 00       	mov    $0x5,%esi
    acef:	bf 00 00 00 00       	mov    $0x0,%edi
    acf4:	e8 a8 b5 ff ff       	callq  62a1 <safe_lshift_func_int8_t_s_s>
    acf9:	0f be c0             	movsbl %al,%eax
    acfc:	39 c3                	cmp    %eax,%ebx
    acfe:	7d 0c                	jge    ad0c <func_1+0x3557>
    ad00:	48 8b 05 e9 05 01 00 	mov    0x105e9(%rip),%rax        # 1b2f0 <g_337>
    ad07:	0f b6 00             	movzbl (%rax),%eax
    ad0a:	84 c0                	test   %al,%al
    ad0c:	8b 85 80 e2 ff ff    	mov    -0x1d80(%rbp),%eax
    ad12:	0b 85 c8 e2 ff ff    	or     -0x1d38(%rbp),%eax
    ad18:	39 85 c4 e2 ff ff    	cmp    %eax,-0x1d3c(%rbp)
    ad1e:	74 0c                	je     ad2c <func_1+0x3577>
    ad20:	0f be 85 68 e2 ff ff 	movsbl -0x1d98(%rbp),%eax
    ad27:	e9 d0 0a 00 00       	jmpq   b7fc <func_1+0x4047>
    ad2c:	48 c7 85 98 e3 ff ff 	movq   $0x5,-0x1c68(%rbp)
    ad33:	05 00 00 00 
    ad37:	c7 85 cc e2 ff ff f8 	movl   $0xfffffff8,-0x1d34(%rbp)
    ad3e:	ff ff ff 
    ad41:	48 8d 85 7c e2 ff ff 	lea    -0x1d84(%rbp),%rax
    ad48:	48 89 85 a0 e3 ff ff 	mov    %rax,-0x1c60(%rbp)
    ad4f:	48 8d 85 7c e2 ff ff 	lea    -0x1d84(%rbp),%rax
    ad56:	48 89 85 a8 e3 ff ff 	mov    %rax,-0x1c58(%rbp)
    ad5d:	c7 85 90 e2 ff ff ff 	movl   $0xffffffff,-0x1d70(%rbp)
    ad64:	ff ff ff 
    ad67:	48 c7 85 b0 e3 ff ff 	movq   $0x0,-0x1c50(%rbp)
    ad6e:	00 00 00 00 
    ad72:	48 8d 85 80 e2 ff ff 	lea    -0x1d80(%rbp),%rax
    ad79:	48 89 85 b8 e3 ff ff 	mov    %rax,-0x1c48(%rbp)
    ad80:	48 8d 85 60 e5 ff ff 	lea    -0x1aa0(%rbp),%rax
    ad87:	48 83 c0 44          	add    $0x44,%rax
    ad8b:	48 89 85 c0 e3 ff ff 	mov    %rax,-0x1c40(%rbp)
    ad92:	48 8d 85 90 e2 ff ff 	lea    -0x1d70(%rbp),%rax
    ad99:	48 89 85 00 e5 ff ff 	mov    %rax,-0x1b00(%rbp)
    ada0:	48 8d 85 90 e2 ff ff 	lea    -0x1d70(%rbp),%rax
    ada7:	48 89 85 08 e5 ff ff 	mov    %rax,-0x1af8(%rbp)
    adae:	48 8d 85 90 e2 ff ff 	lea    -0x1d70(%rbp),%rax
    adb5:	48 89 85 10 e5 ff ff 	mov    %rax,-0x1af0(%rbp)
    adbc:	48 8d 85 90 e2 ff ff 	lea    -0x1d70(%rbp),%rax
    adc3:	48 89 85 18 e5 ff ff 	mov    %rax,-0x1ae8(%rbp)
    adca:	c7 05 6c f2 00 00 18 	movl   $0x18,0xf26c(%rip)        # 1a040 <g_101>
    add1:	00 00 00 
    add4:	e9 1b 01 00 00       	jmpq   aef4 <func_1+0x373f>
    add9:	48 8d 85 40 f8 ff ff 	lea    -0x7c0(%rbp),%rax
    ade0:	48 8d 15 19 aa 00 00 	lea    0xaa19(%rip),%rdx        # 15800 <g_1623+0x7a8>
    ade7:	b9 28 00 00 00       	mov    $0x28,%ecx
    adec:	48 89 c7             	mov    %rax,%rdi
    adef:	48 89 d6             	mov    %rdx,%rsi
    adf2:	f3 48 a5             	rep movsq %ds:(%rsi),%es:(%rdi)
    adf5:	48 8d 85 40 f8 ff ff 	lea    -0x7c0(%rbp),%rax
    adfc:	48 05 a4 00 00 00    	add    $0xa4,%rax
    ae02:	48 89 85 c8 e3 ff ff 	mov    %rax,-0x1c38(%rbp)
    ae09:	48 8d 05 70 0d 01 00 	lea    0x10d70(%rip),%rax        # 1bb80 <g_466+0x1e0>
    ae10:	48 89 85 38 e3 ff ff 	mov    %rax,-0x1cc8(%rbp)
    ae17:	48 8d 85 38 e3 ff ff 	lea    -0x1cc8(%rbp),%rax
    ae1e:	48 89 85 d0 e3 ff ff 	mov    %rax,-0x1c30(%rbp)
    ae25:	8b 85 44 f1 ff ff    	mov    -0xebc(%rbp),%eax
    ae2b:	83 c0 01             	add    $0x1,%eax
    ae2e:	89 85 44 f1 ff ff    	mov    %eax,-0xebc(%rbp)
    ae34:	8b 85 c0 e2 ff ff    	mov    -0x1d40(%rbp),%eax
    ae3a:	0f b6 d0             	movzbl %al,%edx
    ae3d:	48 8b 05 14 0e 01 00 	mov    0x10e14(%rip),%rax        # 1bc58 <g_1219>
    ae44:	0f b7 00             	movzwl (%rax),%eax
    ae47:	48 8b 85 d0 e3 ff ff 	mov    -0x1c30(%rbp),%rax
    ae4e:	48 c7 00 00 00 00 00 	movq   $0x0,(%rax)
    ae55:	48 8b 85 d0 e3 ff ff 	mov    -0x1c30(%rbp),%rax
    ae5c:	48 8b 00             	mov    (%rax),%rax
    ae5f:	48 85 c0             	test   %rax,%rax
    ae62:	0f 94 c0             	sete   %al
    ae65:	0f b6 c8             	movzbl %al,%ecx
    ae68:	8b 05 96 fa 00 00    	mov    0xfa96(%rip),%eax        # 1a904 <g_400+0xe4>
    ae6e:	c1 e0 0e             	shl    $0xe,%eax
    ae71:	c1 f8 17             	sar    $0x17,%eax
    ae74:	48 0f bf c0          	movswq %ax,%rax
    ae78:	48 39 c1             	cmp    %rax,%rcx
    ae7b:	7d 0d                	jge    ae8a <func_1+0x36d5>
    ae7d:	48 8b 85 c8 e3 ff ff 	mov    -0x1c38(%rbp),%rax
    ae84:	8b 00                	mov    (%rax),%eax
    ae86:	85 c0                	test   %eax,%eax
    ae88:	74 07                	je     ae91 <func_1+0x36dc>
    ae8a:	b8 01 00 00 00       	mov    $0x1,%eax
    ae8f:	eb 05                	jmp    ae96 <func_1+0x36e1>
    ae91:	b8 00 00 00 00       	mov    $0x0,%eax
    ae96:	85 c0                	test   %eax,%eax
    ae98:	0f 9e c0             	setle  %al
    ae9b:	0f b6 c8             	movzbl %al,%ecx
    ae9e:	48 8b 85 c8 e3 ff ff 	mov    -0x1c38(%rbp),%rax
    aea5:	8b 00                	mov    (%rax),%eax
    aea7:	39 c1                	cmp    %eax,%ecx
    aea9:	0f 9d c0             	setge  %al
    aeac:	0f b6 c0             	movzbl %al,%eax
    aeaf:	89 d6                	mov    %edx,%esi
    aeb1:	89 c7                	mov    %eax,%edi
    aeb3:	e8 a2 bc ff ff       	callq  6b5a <safe_add_func_uint8_t_u_u>
    aeb8:	48 8b 95 98 e3 ff ff 	mov    -0x1c68(%rbp),%rdx
    aebf:	48 8b 05 ba 0d 01 00 	mov    0x10dba(%rip),%rax        # 1bc80 <g_1349>
    aec6:	8b 00                	mov    (%rax),%eax
    aec8:	89 c1                	mov    %eax,%ecx
    aeca:	89 d0                	mov    %edx,%eax
    aecc:	21 c1                	and    %eax,%ecx
    aece:	89 ca                	mov    %ecx,%edx
    aed0:	48 8b 05 a9 0d 01 00 	mov    0x10da9(%rip),%rax        # 1bc80 <g_1349>
    aed7:	89 10                	mov    %edx,(%rax)
    aed9:	8b 05 61 f1 00 00    	mov    0xf161(%rip),%eax        # 1a040 <g_101>
    aedf:	89 c0                	mov    %eax,%eax
    aee1:	be 02 00 00 00       	mov    $0x2,%esi
    aee6:	48 89 c7             	mov    %rax,%rdi
    aee9:	e8 53 b9 ff ff       	callq  6841 <safe_add_func_int64_t_s_s>
    aeee:	89 05 4c f1 00 00    	mov    %eax,0xf14c(%rip)        # 1a040 <g_101>
    aef4:	8b 05 46 f1 00 00    	mov    0xf146(%rip),%eax        # 1a040 <g_101>
    aefa:	83 f8 19             	cmp    $0x19,%eax
    aefd:	0f 87 d6 fe ff ff    	ja     add9 <func_1+0x3624>
    af03:	80 85 65 e2 ff ff 01 	addb   $0x1,-0x1d9b(%rbp)
    af0a:	8b 05 55 fe 00 00    	mov    0xfe55(%rip),%eax        # 1ad65 <g_1743+0x5>
    af10:	89 c0                	mov    %eax,%eax
    af12:	be 01 00 00 00       	mov    $0x1,%esi
    af17:	48 89 c7             	mov    %rax,%rdi
    af1a:	e8 0f c1 ff ff       	callq  702e <safe_add_func_uint64_t_u_u>
    af1f:	89 05 40 fe 00 00    	mov    %eax,0xfe40(%rip)        # 1ad65 <g_1743+0x5>
    af25:	8b 05 3a fe 00 00    	mov    0xfe3a(%rip),%eax        # 1ad65 <g_1743+0x5>
    af2b:	83 f8 38             	cmp    $0x38,%eax
    af2e:	0f 86 7e fa ff ff    	jbe    a9b2 <func_1+0x31fd>
    af34:	48 8b 85 90 e3 ff ff 	mov    -0x1c70(%rbp),%rax
    af3b:	48 8d 95 8c e2 ff ff 	lea    -0x1d74(%rbp),%rdx
    af42:	48 89 10             	mov    %rdx,(%rax)
    af45:	0f b6 45 c7          	movzbl -0x39(%rbp),%eax
    af49:	0f b6 d8             	movzbl %al,%ebx
    af4c:	48 8b 05 2d 15 01 00 	mov    0x1152d(%rip),%rax        # 1c480 <g_1544>
    af53:	44 8b 20             	mov    (%rax),%r12d
    af56:	48 8b 85 10 e3 ff ff 	mov    -0x1cf0(%rbp),%rax
    af5d:	48 8d 15 6c 03 01 00 	lea    0x1036c(%rip),%rdx        # 1b2d0 <g_211>
    af64:	48 89 10             	mov    %rdx,(%rax)
    af67:	48 8b 05 ba 03 01 00 	mov    0x103ba(%rip),%rax        # 1b328 <g_415>
    af6e:	48 8b 00             	mov    (%rax),%rax
    af71:	48 8b 00             	mov    (%rax),%rax
    af74:	48 8b 00             	mov    (%rax),%rax
    af77:	48 89 c7             	mov    %rax,%rdi
    af7a:	e8 97 b8 ff ff       	callq  6816 <safe_unary_minus_func_int64_t_s>
    af7f:	8b 85 78 e2 ff ff    	mov    -0x1d88(%rbp),%eax
    af85:	0f b7 d0             	movzwl %ax,%edx
    af88:	8b 85 c0 e2 ff ff    	mov    -0x1d40(%rbp),%eax
    af8e:	0f b7 c0             	movzwl %ax,%eax
    af91:	89 d6                	mov    %edx,%esi
    af93:	89 c7                	mov    %eax,%edi
    af95:	e8 a3 bd ff ff       	callq  6d3d <safe_mul_func_uint16_t_u_u>
    af9a:	98                   	cwtl   
    af9b:	be 0a 00 00 00       	mov    $0xa,%esi
    afa0:	89 c7                	mov    %eax,%edi
    afa2:	e8 3a b5 ff ff       	callq  64e1 <safe_lshift_func_int16_t_s_u>
    afa7:	98                   	cwtl   
    afa8:	be 01 00 00 00       	mov    $0x1,%esi
    afad:	89 c7                	mov    %eax,%edi
    afaf:	e8 1c bf ff ff       	callq  6ed0 <safe_sub_func_uint32_t_u_u>
    afb4:	89 85 7c e2 ff ff    	mov    %eax,-0x1d84(%rbp)
    afba:	8b 85 7c e2 ff ff    	mov    -0x1d84(%rbp),%eax
    afc0:	0f b7 c0             	movzwl %ax,%eax
    afc3:	be 00 00 00 00       	mov    $0x0,%esi
    afc8:	89 c7                	mov    %eax,%edi
    afca:	e8 50 bd ff ff       	callq  6d1f <safe_sub_func_uint16_t_u_u>
    afcf:	66 85 c0             	test   %ax,%ax
    afd2:	74 07                	je     afdb <func_1+0x3826>
    afd4:	b8 01 00 00 00       	mov    $0x1,%eax
    afd9:	eb 05                	jmp    afe0 <func_1+0x382b>
    afdb:	b8 00 00 00 00       	mov    $0x0,%eax
    afe0:	41 39 c4             	cmp    %eax,%r12d
    afe3:	0f 96 c0             	setbe  %al
    afe6:	0f b6 c0             	movzbl %al,%eax
    afe9:	89 de                	mov    %ebx,%esi
    afeb:	89 c7                	mov    %eax,%edi
    afed:	e8 4b bd ff ff       	callq  6d3d <safe_mul_func_uint16_t_u_u>
    aff2:	66 39 85 6c e2 ff ff 	cmp    %ax,-0x1d94(%rbp)
    aff9:	0f 94 c2             	sete   %dl
    affc:	48 8b 05 7d 0c 01 00 	mov    0x10c7d(%rip),%rax        # 1bc80 <g_1349>
    b003:	0f b6 d2             	movzbl %dl,%edx
    b006:	89 10                	mov    %edx,(%rax)
    b008:	8b 00                	mov    (%rax),%eax
    b00a:	85 c0                	test   %eax,%eax
    b00c:	0f 84 8a 00 00 00    	je     b09c <func_1+0x38e7>
    b012:	48 8d 85 40 f8 ff ff 	lea    -0x7c0(%rbp),%rax
    b019:	48 8d 15 20 a9 00 00 	lea    0xa920(%rip),%rdx        # 15940 <g_1623+0x8e8>
    b020:	b9 34 00 00 00       	mov    $0x34,%ecx
    b025:	48 89 c7             	mov    %rax,%rdi
    b028:	48 89 d6             	mov    %rdx,%rsi
    b02b:	f3 48 a5             	rep movsq %ds:(%rsi),%es:(%rdi)
    b02e:	48 89 f2             	mov    %rsi,%rdx
    b031:	48 89 f8             	mov    %rdi,%rax
    b034:	8b 0a                	mov    (%rdx),%ecx
    b036:	89 08                	mov    %ecx,(%rax)
    b038:	48 8d 05 05 f0 00 00 	lea    0xf005(%rip),%rax        # 1a044 <g_104>
    b03f:	48 89 85 30 e4 ff ff 	mov    %rax,-0x1bd0(%rbp)
    b046:	48 8d 85 7c e2 ff ff 	lea    -0x1d84(%rbp),%rax
    b04d:	48 89 85 38 e4 ff ff 	mov    %rax,-0x1bc8(%rbp)
    b054:	c7 85 b0 e2 ff ff 00 	movl   $0x0,-0x1d50(%rbp)
    b05b:	00 00 00 
    b05e:	eb 1e                	jmp    b07e <func_1+0x38c9>
    b060:	8b 85 b0 e2 ff ff    	mov    -0x1d50(%rbp),%eax
    b066:	48 98                	cltq   
    b068:	48 8d 95 80 e2 ff ff 	lea    -0x1d80(%rbp),%rdx
    b06f:	48 89 94 c5 40 f1 ff 	mov    %rdx,-0xec0(%rbp,%rax,8)
    b076:	ff 
    b077:	83 85 b0 e2 ff ff 01 	addl   $0x1,-0x1d50(%rbp)
    b07e:	83 bd b0 e2 ff ff 06 	cmpl   $0x6,-0x1d50(%rbp)
    b085:	7e d9                	jle    b060 <func_1+0x38ab>
    b087:	0f b6 05 c5 fd 00 00 	movzbl 0xfdc5(%rip),%eax        # 1ae53 <g_2315>
    b08e:	83 e8 01             	sub    $0x1,%eax
    b091:	88 05 bc fd 00 00    	mov    %al,0xfdbc(%rip)        # 1ae53 <g_2315>
    b097:	e9 f0 01 00 00       	jmpq   b28c <func_1+0x3ad7>
    b09c:	c7 85 40 f1 ff ff 01 	movl   $0x1,-0xec0(%rbp)
    b0a3:	00 00 00 
    b0a6:	c7 85 44 f1 ff ff 01 	movl   $0x1,-0xebc(%rbp)
    b0ad:	00 00 00 
    b0b0:	c7 85 48 f1 ff ff 01 	movl   $0x1,-0xeb8(%rbp)
    b0b7:	00 00 00 
    b0ba:	c7 85 4c f1 ff ff 01 	movl   $0x1,-0xeb4(%rbp)
    b0c1:	00 00 00 
    b0c4:	c7 85 50 f1 ff ff 01 	movl   $0x1,-0xeb0(%rbp)
    b0cb:	00 00 00 
    b0ce:	c7 85 54 f1 ff ff 01 	movl   $0x1,-0xeac(%rbp)
    b0d5:	00 00 00 
    b0d8:	c7 85 dc e2 ff ff 30 	movl   $0xfc11c930,-0x1d24(%rbp)
    b0df:	c9 11 fc 
    b0e2:	48 8d 05 85 f9 00 00 	lea    0xf985(%rip),%rax        # 1aa6e <g_1452+0x6>
    b0e9:	48 89 85 20 e4 ff ff 	mov    %rax,-0x1be0(%rbp)
    b0f0:	c7 85 e0 e2 ff ff 01 	movl   $0x1,-0x1d20(%rbp)
    b0f7:	00 00 00 
    b0fa:	48 c7 85 28 e4 ff ff 	movq   $0x0,-0x1bd8(%rbp)
    b101:	00 00 00 00 
    b105:	c7 85 b4 e2 ff ff 00 	movl   $0x0,-0x1d4c(%rbp)
    b10c:	00 00 00 
    b10f:	eb 1b                	jmp    b12c <func_1+0x3977>
    b111:	8b 85 b4 e2 ff ff    	mov    -0x1d4c(%rbp),%eax
    b117:	48 98                	cltq   
    b119:	48 c7 84 c5 40 f8 ff 	movq   $0x0,-0x7c0(%rbp,%rax,8)
    b120:	ff 00 00 00 00 
    b125:	83 85 b4 e2 ff ff 01 	addl   $0x1,-0x1d4c(%rbp)
    b12c:	83 bd b4 e2 ff ff 02 	cmpl   $0x2,-0x1d4c(%rbp)
    b133:	7e dc                	jle    b111 <func_1+0x395c>
    b135:	48 8b 05 ac 0b 01 00 	mov    0x10bac(%rip),%rax        # 1bce8 <g_1524>
    b13c:	0f b7 00             	movzwl (%rax),%eax
    b13f:	0f bf d8             	movswl %ax,%ebx
    b142:	0f b7 85 6e e2 ff ff 	movzwl -0x1d92(%rbp),%eax
    b149:	0f b6 d0             	movzbl %al,%edx
    b14c:	8b 85 7c e2 ff ff    	mov    -0x1d84(%rbp),%eax
    b152:	85 c0                	test   %eax,%eax
    b154:	75 51                	jne    b1a7 <func_1+0x39f2>
    b156:	8b 85 54 f1 ff ff    	mov    -0xeac(%rbp),%eax
    b15c:	8b 8d 80 e2 ff ff    	mov    -0x1d80(%rbp),%ecx
    b162:	83 f9 01             	cmp    $0x1,%ecx
    b165:	7e 09                	jle    b170 <func_1+0x39bb>
    b167:	83 bd c0 e2 ff ff 00 	cmpl   $0x0,-0x1d40(%rbp)
    b16e:	74 07                	je     b177 <func_1+0x39c2>
    b170:	b9 01 00 00 00       	mov    $0x1,%ecx
    b175:	eb 05                	jmp    b17c <func_1+0x39c7>
    b177:	b9 00 00 00 00       	mov    $0x0,%ecx
    b17c:	39 c8                	cmp    %ecx,%eax
    b17e:	0f 96 c0             	setbe  %al
    b181:	0f b6 c8             	movzbl %al,%ecx
    b184:	8b 85 54 f1 ff ff    	mov    -0xeac(%rbp),%eax
    b18a:	31 c1                	xor    %eax,%ecx
    b18c:	48 8b 05 ed 0a 01 00 	mov    0x10aed(%rip),%rax        # 1bc80 <g_1349>
    b193:	89 08                	mov    %ecx,(%rax)
    b195:	8b 00                	mov    (%rax),%eax
    b197:	89 85 84 e2 ff ff    	mov    %eax,-0x1d7c(%rbp)
    b19d:	8b 85 84 e2 ff ff    	mov    -0x1d7c(%rbp),%eax
    b1a3:	85 c0                	test   %eax,%eax
    b1a5:	74 07                	je     b1ae <func_1+0x39f9>
    b1a7:	b9 01 00 00 00       	mov    $0x1,%ecx
    b1ac:	eb 05                	jmp    b1b3 <func_1+0x39fe>
    b1ae:	b9 00 00 00 00       	mov    $0x0,%ecx
    b1b3:	48 8b 85 58 e3 ff ff 	mov    -0x1ca8(%rbp),%rax
    b1ba:	48 8b 00             	mov    (%rax),%rax
    b1bd:	48 63 c9             	movslq %ecx,%rcx
    b1c0:	48 89 08             	mov    %rcx,(%rax)
    b1c3:	89 d6                	mov    %edx,%esi
    b1c5:	bf 00 00 00 00       	mov    $0x0,%edi
    b1ca:	e8 8b b9 ff ff       	callq  6b5a <safe_add_func_uint8_t_u_u>
    b1cf:	48 8b 15 22 01 01 00 	mov    0x10122(%rip),%rdx        # 1b2f8 <g_336>
    b1d6:	48 8b 12             	mov    (%rdx),%rdx
    b1d9:	0f b6 12             	movzbl (%rdx),%edx
    b1dc:	21 d0                	and    %edx,%eax
    b1de:	44 0f b6 e0          	movzbl %al,%r12d
    b1e2:	81 a5 dc e2 ff ff 2c 	andl   $0xe12c,-0x1d24(%rbp)
    b1e9:	e1 00 00 
    b1ec:	8b 85 dc e2 ff ff    	mov    -0x1d24(%rbp),%eax
    b1f2:	0f b7 c0             	movzwl %ax,%eax
    b1f5:	8b 95 54 f1 ff ff    	mov    -0xeac(%rbp),%edx
    b1fb:	0f b7 d2             	movzwl %dx,%edx
    b1fe:	83 e2 09             	and    $0x9,%edx
    b201:	89 c6                	mov    %eax,%esi
    b203:	89 d7                	mov    %edx,%edi
    b205:	e8 33 bb ff ff       	callq  6d3d <safe_mul_func_uint16_t_u_u>
    b20a:	0f b7 c0             	movzwl %ax,%eax
    b20d:	44 89 e6             	mov    %r12d,%esi
    b210:	89 c7                	mov    %eax,%edi
    b212:	e8 a7 bb ff ff       	callq  6dbe <safe_lshift_func_uint16_t_u_s>
    b217:	98                   	cwtl   
    b218:	be 84 4b 00 00       	mov    $0x4b84,%esi
    b21d:	89 c7                	mov    %eax,%edi
    b21f:	e8 8f b1 ff ff       	callq  63b3 <safe_add_func_int16_t_s_s>
    b224:	66 3d a3 00          	cmp    $0xa3,%ax
    b228:	0f 95 c0             	setne  %al
    b22b:	0f b6 c0             	movzbl %al,%eax
    b22e:	48 39 85 68 e3 ff ff 	cmp    %rax,-0x1c98(%rbp)
    b235:	0f 9d c0             	setge  %al
    b238:	0f b6 d0             	movzbl %al,%edx
    b23b:	48 8b 85 20 e4 ff ff 	mov    -0x1be0(%rbp),%rax
    b242:	0f b7 00             	movzwl (%rax),%eax
    b245:	09 c2                	or     %eax,%edx
    b247:	48 8b 85 20 e4 ff ff 	mov    -0x1be0(%rbp),%rax
    b24e:	66 89 10             	mov    %dx,(%rax)
    b251:	be 04 00 00 00       	mov    $0x4,%esi
    b256:	bf 01 00 00 00       	mov    $0x1,%edi
    b25b:	e8 5e bb ff ff       	callq  6dbe <safe_lshift_func_uint16_t_u_s>
    b260:	98                   	cwtl   
    b261:	89 de                	mov    %ebx,%esi
    b263:	89 c7                	mov    %eax,%edi
    b265:	e8 8b b1 ff ff       	callq  63f5 <safe_mul_func_int16_t_s_s>
    b26a:	48 0f bf d0          	movswq %ax,%rdx
    b26e:	8b 85 80 e2 ff ff    	mov    -0x1d80(%rbp),%eax
    b274:	48 98                	cltq   
    b276:	48 89 d6             	mov    %rdx,%rsi
    b279:	48 89 c7             	mov    %rax,%rdi
    b27c:	e8 33 b7 ff ff       	callq  69b4 <safe_mod_func_int64_t_s_s>
    b281:	48 c7 85 28 e4 ff ff 	movq   $0x0,-0x1bd8(%rbp)
    b288:	00 00 00 00 
    b28c:	0f b7 05 c1 fb 00 00 	movzwl 0xfbc1(%rip),%eax        # 1ae54 <g_2345>
    b293:	83 e8 01             	sub    $0x1,%eax
    b296:	66 89 05 b7 fb 00 00 	mov    %ax,0xfbb7(%rip)        # 1ae54 <g_2345>
    b29d:	66 c7 85 6e e2 ff ff 	movw   $0x4,-0x1d92(%rbp)
    b2a4:	04 00 
    b2a6:	e9 3b 05 00 00       	jmpq   b7e6 <func_1+0x4031>
    b2ab:	c6 85 6a e2 ff ff 61 	movb   $0x61,-0x1d96(%rbp)
    b2b2:	48 8d 05 47 19 01 00 	lea    0x11947(%rip),%rax        # 1cc00 <g_2072>
    b2b9:	48 89 85 30 e3 ff ff 	mov    %rax,-0x1cd0(%rbp)
    b2c0:	48 8d 85 30 e3 ff ff 	lea    -0x1cd0(%rbp),%rax
    b2c7:	48 89 85 40 e4 ff ff 	mov    %rax,-0x1bc0(%rbp)
    b2ce:	c7 85 e4 e2 ff ff 08 	movl   $0x8,-0x1d1c(%rbp)
    b2d5:	00 00 00 
    b2d8:	c7 85 e8 e2 ff ff 88 	movl   $0xdb076588,-0x1d18(%rbp)
    b2df:	65 07 db 
    b2e2:	48 c7 85 48 e4 ff ff 	movq   $0xffffffffffffffff,-0x1bb8(%rbp)
    b2e9:	ff ff ff ff 
    b2ed:	c7 85 b8 e2 ff ff cb 	movl   $0xcf944fcb,-0x1d48(%rbp)
    b2f4:	4f 94 cf 
    b2f7:	48 8d 05 aa 12 01 00 	lea    0x112aa(%rip),%rax        # 1c5a8 <g_2396>
    b2fe:	48 89 85 38 e3 ff ff 	mov    %rax,-0x1cc8(%rbp)
    b305:	48 c7 85 40 f8 ff ff 	movq   $0x0,-0x7c0(%rbp)
    b30c:	00 00 00 00 
    b310:	48 8d 85 38 e3 ff ff 	lea    -0x1cc8(%rbp),%rax
    b317:	48 89 85 48 f8 ff ff 	mov    %rax,-0x7b8(%rbp)
    b31e:	48 c7 85 50 f8 ff ff 	movq   $0x0,-0x7b0(%rbp)
    b325:	00 00 00 00 
    b329:	48 8d 85 38 e3 ff ff 	lea    -0x1cc8(%rbp),%rax
    b330:	48 89 85 58 f8 ff ff 	mov    %rax,-0x7a8(%rbp)
    b337:	48 c7 85 60 f8 ff ff 	movq   $0x0,-0x7a0(%rbp)
    b33e:	00 00 00 00 
    b342:	48 8d 85 38 e3 ff ff 	lea    -0x1cc8(%rbp),%rax
    b349:	48 89 85 68 f8 ff ff 	mov    %rax,-0x798(%rbp)
    b350:	48 c7 85 70 f8 ff ff 	movq   $0x0,-0x790(%rbp)
    b357:	00 00 00 00 
    b35b:	48 8d 85 38 e3 ff ff 	lea    -0x1cc8(%rbp),%rax
    b362:	48 89 85 78 f8 ff ff 	mov    %rax,-0x788(%rbp)
    b369:	48 c7 85 80 f8 ff ff 	movq   $0x0,-0x780(%rbp)
    b370:	00 00 00 00 
    b374:	66 c7 85 74 e2 ff ff 	movw   $0x1,-0x1d8c(%rbp)
    b37b:	01 00 
    b37d:	c6 85 6b e2 ff ff f5 	movb   $0xf5,-0x1d95(%rbp)
    b384:	0f be 9d 6a e2 ff ff 	movsbl -0x1d96(%rbp),%ebx
    b38b:	48 8b 85 40 e4 ff ff 	mov    -0x1bc0(%rbp),%rax
    b392:	48 8d 15 67 18 01 00 	lea    0x11867(%rip),%rdx        # 1cc00 <g_2072>
    b399:	48 89 10             	mov    %rdx,(%rax)
    b39c:	48 8d 05 5d 18 01 00 	lea    0x1185d(%rip),%rax        # 1cc00 <g_2072>
    b3a3:	48 39 85 78 e3 ff ff 	cmp    %rax,-0x1c88(%rbp)
    b3aa:	0f 95 c0             	setne  %al
    b3ad:	44 0f b6 e0          	movzbl %al,%r12d
    b3b1:	48 8b 05 28 09 01 00 	mov    0x10928(%rip),%rax        # 1bce0 <g_1499>
    b3b8:	48 8b 00             	mov    (%rax),%rax
    b3bb:	0f b6 00             	movzbl (%rax),%eax
    b3be:	0f be c0             	movsbl %al,%eax
    b3c1:	be 01 00 00 00       	mov    $0x1,%esi
    b3c6:	89 c7                	mov    %eax,%edi
    b3c8:	e8 21 af ff ff       	callq  62ee <safe_lshift_func_int8_t_s_u>
    b3cd:	0f be c0             	movsbl %al,%eax
    b3d0:	be 32 68 00 00       	mov    $0x6832,%esi
    b3d5:	89 c7                	mov    %eax,%edi
    b3d7:	e8 19 b0 ff ff       	callq  63f5 <safe_mul_func_int16_t_s_s>
    b3dc:	98                   	cwtl   
    b3dd:	41 39 c4             	cmp    %eax,%r12d
    b3e0:	0f 95 c0             	setne  %al
    b3e3:	0f b6 c0             	movzbl %al,%eax
    b3e6:	89 c6                	mov    %eax,%esi
    b3e8:	bf 00 f3 fc 22       	mov    $0x22fcf300,%edi
    b3ed:	e8 f4 ba ff ff       	callq  6ee6 <safe_mul_func_uint32_t_u_u>
    b3f2:	be 00 00 00 00       	mov    $0x0,%esi
    b3f7:	bf 00 00 00 00       	mov    $0x0,%edi
    b3fc:	e8 64 bc ff ff       	callq  7065 <safe_mul_func_uint64_t_u_u>
    b401:	89 de                	mov    %ebx,%esi
    b403:	89 c7                	mov    %eax,%edi
    b405:	e8 c6 ba ff ff       	callq  6ed0 <safe_sub_func_uint32_t_u_u>
    b40a:	89 c6                	mov    %eax,%esi
    b40c:	bf 01 00 00 00       	mov    $0x1,%edi
    b411:	e8 64 ba ff ff       	callq  6e7a <safe_rshift_func_uint16_t_u_u>
    b416:	0f b7 c0             	movzwl %ax,%eax
    b419:	39 85 e4 e2 ff ff    	cmp    %eax,-0x1d1c(%rbp)
    b41f:	0f 92 c0             	setb   %al
    b422:	0f b6 c0             	movzbl %al,%eax
    b425:	89 85 e8 e2 ff ff    	mov    %eax,-0x1d18(%rbp)
    b42b:	48 8b 85 70 e3 ff ff 	mov    -0x1c90(%rbp),%rax
    b432:	8b 00                	mov    (%rax),%eax
    b434:	85 c0                	test   %eax,%eax
    b436:	0f 84 8b 03 00 00    	je     b7c7 <func_1+0x4012>
    b43c:	48 83 bd 48 e4 ff ff 	cmpq   $0x0,-0x1bb8(%rbp)
    b443:	00 
    b444:	0f 84 7d 03 00 00    	je     b7c7 <func_1+0x4012>
    b44a:	66 c7 85 76 e2 ff ff 	movw   $0xefad,-0x1d8a(%rbp)
    b451:	ad ef 
    b453:	48 c7 85 50 e4 ff ff 	movq   $0x0,-0x1bb0(%rbp)
    b45a:	00 00 00 00 
    b45e:	c7 85 ec e2 ff ff 04 	movl   $0x4,-0x1d14(%rbp)
    b465:	00 00 00 
    b468:	48 8d 05 c9 0b 01 00 	lea    0x10bc9(%rip),%rax        # 1c038 <g_1523+0x338>
    b46f:	48 89 85 58 e4 ff ff 	mov    %rax,-0x1ba8(%rbp)
    b476:	c7 85 f0 e2 ff ff 96 	movl   $0x6fbfcb96,-0x1d10(%rbp)
    b47d:	cb bf 6f 
    b480:	48 c7 85 60 e4 ff ff 	movq   $0x0,-0x1ba0(%rbp)
    b487:	00 00 00 00 
    b48b:	c7 05 b3 eb 00 00 00 	movl   $0x0,0xebb3(%rip)        # 1a048 <g_112>
    b492:	00 00 00 
    b495:	e9 55 01 00 00       	jmpq   b5ef <func_1+0x3e3a>
    b49a:	48 8d 85 30 e3 ff ff 	lea    -0x1cd0(%rbp),%rax
    b4a1:	48 89 85 68 e4 ff ff 	mov    %rax,-0x1b98(%rbp)
    b4a8:	48 c7 85 70 e4 ff ff 	movq   $0x0,-0x1b90(%rbp)
    b4af:	00 00 00 00 
    b4b3:	48 c7 85 78 e4 ff ff 	movq   $0x0,-0x1b88(%rbp)
    b4ba:	00 00 00 00 
    b4be:	48 8d 05 d3 eb 00 00 	lea    0xebd3(%rip),%rax        # 1a098 <g_197>
    b4c5:	48 89 85 80 e4 ff ff 	mov    %rax,-0x1b80(%rbp)
    b4cc:	48 8d 05 0d 08 01 00 	lea    0x1080d(%rip),%rax        # 1bce0 <g_1499>
    b4d3:	48 89 85 88 e4 ff ff 	mov    %rax,-0x1b78(%rbp)
    b4da:	c7 85 f4 e2 ff ff a0 	movl   $0x3f1017a0,-0x1d0c(%rbp)
    b4e1:	17 10 3f 
    b4e4:	c7 85 f8 e2 ff ff ff 	movl   $0xffffffff,-0x1d08(%rbp)
    b4eb:	ff ff ff 
    b4ee:	48 8b 85 70 e3 ff ff 	mov    -0x1c90(%rbp),%rax
    b4f5:	8b 00                	mov    (%rax),%eax
    b4f7:	09 85 b8 e2 ff ff    	or     %eax,-0x1d48(%rbp)
    b4fd:	8b 85 b8 e2 ff ff    	mov    -0x1d48(%rbp),%eax
    b503:	0f b7 d8             	movzwl %ax,%ebx
    b506:	48 8b 85 80 e4 ff ff 	mov    -0x1b80(%rbp),%rax
    b50d:	48 8b 00             	mov    (%rax),%rax
    b510:	48 8d 50 ff          	lea    -0x1(%rax),%rdx
    b514:	48 8b 85 80 e4 ff ff 	mov    -0x1b80(%rbp),%rax
    b51b:	48 89 10             	mov    %rdx,(%rax)
    b51e:	48 8b 85 80 e4 ff ff 	mov    -0x1b80(%rbp),%rax
    b525:	48 8b 10             	mov    (%rax),%rdx
    b528:	48 8b 05 69 0f 01 00 	mov    0x10f69(%rip),%rax        # 1c498 <g_1648>
    b52f:	48 8b 00             	mov    (%rax),%rax
    b532:	48 8b 00             	mov    (%rax),%rax
    b535:	48 8b 05 dc 16 01 00 	mov    0x116dc(%rip),%rax        # 1cc18 <g_2378>
    b53c:	48 39 85 68 e4 ff ff 	cmp    %rax,-0x1b98(%rbp)
    b543:	0f 94 c0             	sete   %al
    b546:	0f b6 c0             	movzbl %al,%eax
    b549:	48 89 d6             	mov    %rdx,%rsi
    b54c:	48 89 c7             	mov    %rax,%rdi
    b54f:	e8 5b bb ff ff       	callq  70af <safe_div_func_uint64_t_u_u>
    b554:	48 89 c2             	mov    %rax,%rdx
    b557:	48 8b 05 8a 07 01 00 	mov    0x1078a(%rip),%rax        # 1bce8 <g_1524>
    b55e:	66 89 10             	mov    %dx,(%rax)
    b561:	48 8b 85 88 e4 ff ff 	mov    -0x1b78(%rbp),%rax
    b568:	48 c7 00 00 00 00 00 	movq   $0x0,(%rax)
    b56f:	81 bd f4 e2 ff ff b5 	cmpl   $0xa9b5,-0x1d0c(%rbp)
    b576:	a9 00 00 
    b579:	0f 9e c0             	setle  %al
    b57c:	0f b6 c0             	movzbl %al,%eax
    b57f:	89 de                	mov    %ebx,%esi
    b581:	89 c7                	mov    %eax,%edi
    b583:	e8 97 b7 ff ff       	callq  6d1f <safe_sub_func_uint16_t_u_u>
    b588:	0f b7 d0             	movzwl %ax,%edx
    b58b:	48 8b 85 70 e3 ff ff 	mov    -0x1c90(%rbp),%rax
    b592:	8b 00                	mov    (%rax),%eax
    b594:	21 d0                	and    %edx,%eax
    b596:	31 85 f8 e2 ff ff    	xor    %eax,-0x1d08(%rbp)
    b59c:	48 c7 05 f1 ea 00 00 	movq   $0xfffffffffffffff1,0xeaf1(%rip)        # 1a098 <g_197>
    b5a3:	f1 ff ff ff 
    b5a7:	eb 2a                	jmp    b5d3 <func_1+0x3e1e>
    b5a9:	c7 85 fc e2 ff ff f7 	movl   $0xfffffff7,-0x1d04(%rbp)
    b5b0:	ff ff ff 
    b5b3:	48 8d 05 ee 0f 01 00 	lea    0x10fee(%rip),%rax        # 1c5a8 <g_2396>
    b5ba:	48 89 85 90 e4 ff ff 	mov    %rax,-0x1b70(%rbp)
    b5c1:	48 8b 05 d0 ea 00 00 	mov    0xead0(%rip),%rax        # 1a098 <g_197>
    b5c8:	48 83 c0 01          	add    $0x1,%rax
    b5cc:	48 89 05 c5 ea 00 00 	mov    %rax,0xeac5(%rip)        # 1a098 <g_197>
    b5d3:	48 8b 05 be ea 00 00 	mov    0xeabe(%rip),%rax        # 1a098 <g_197>
    b5da:	48 83 f8 28          	cmp    $0x28,%rax
    b5de:	75 c9                	jne    b5a9 <func_1+0x3df4>
    b5e0:	8b 05 62 ea 00 00    	mov    0xea62(%rip),%eax        # 1a048 <g_112>
    b5e6:	83 e8 01             	sub    $0x1,%eax
    b5e9:	89 05 59 ea 00 00    	mov    %eax,0xea59(%rip)        # 1a048 <g_112>
    b5ef:	8b 05 53 ea 00 00    	mov    0xea53(%rip),%eax        # 1a048 <g_112>
    b5f5:	83 f8 e6             	cmp    $0xffffffe6,%eax
    b5f8:	0f 85 9c fe ff ff    	jne    b49a <func_1+0x3ce5>
    b5fe:	48 8b 85 70 e3 ff ff 	mov    -0x1c90(%rbp),%rax
    b605:	8b 18                	mov    (%rax),%ebx
    b607:	48 8b 85 58 e4 ff ff 	mov    -0x1ba8(%rbp),%rax
    b60e:	48 8d 15 ab fc 00 00 	lea    0xfcab(%rip),%rdx        # 1b2c0 <g_138>
    b615:	48 89 10             	mov    %rdx,(%rax)
    b618:	48 8b 85 48 e4 ff ff 	mov    -0x1bb8(%rbp),%rax
    b61f:	41 89 c6             	mov    %eax,%r14d
    b622:	44 0f b6 a5 6b e2 ff 	movzbl -0x1d95(%rbp),%r12d
    b629:	ff 
    b62a:	0f b7 85 76 e2 ff ff 	movzwl -0x1d8a(%rbp),%eax
    b631:	44 0f bf e8          	movswl %ax,%r13d
    b635:	8b 85 b8 e2 ff ff    	mov    -0x1d48(%rbp),%eax
    b63b:	0f b6 d0             	movzbl %al,%edx
    b63e:	8b 05 71 ea 00 00    	mov    0xea71(%rip),%eax        # 1a0b5 <g_209+0x5>
    b644:	0f b6 c0             	movzbl %al,%eax
    b647:	89 d6                	mov    %edx,%esi
    b649:	89 c7                	mov    %eax,%edi
    b64b:	e8 8b b5 ff ff       	callq  6bdb <safe_div_func_uint8_t_u_u>
    b650:	b8 01 00 00 00       	mov    $0x1,%eax
    b655:	98                   	cwtl   
    b656:	44 89 ee             	mov    %r13d,%esi
    b659:	89 c7                	mov    %eax,%edi
    b65b:	e8 73 ad ff ff       	callq  63d3 <safe_sub_func_int16_t_s_s>
    b660:	48 0f bf d0          	movswq %ax,%rdx
    b664:	48 8d 05 ed f7 00 00 	lea    0xf7ed(%rip),%rax        # 1ae58 <g_2415>
    b66b:	48 0f bf 8d 74 e2 ff 	movswq -0x1d8c(%rbp),%rcx
    b672:	ff 
    b673:	48 89 08             	mov    %rcx,(%rax)
    b676:	48 8b 00             	mov    (%rax),%rax
    b679:	48 89 d6             	mov    %rdx,%rsi
    b67c:	48 89 c7             	mov    %rax,%rdi
    b67f:	e8 bd b1 ff ff       	callq  6841 <safe_add_func_int64_t_s_s>
    b684:	8b 85 f0 e2 ff ff    	mov    -0x1d10(%rbp),%eax
    b68a:	c1 e8 1f             	shr    $0x1f,%eax
    b68d:	0f b6 c0             	movzbl %al,%eax
    b690:	44 89 e6             	mov    %r12d,%esi
    b693:	89 c7                	mov    %eax,%edi
    b695:	e8 f4 b6 ff ff       	callq  6d8e <safe_div_func_uint16_t_u_u>
    b69a:	0f b7 c0             	movzwl %ax,%eax
    b69d:	44 89 f6             	mov    %r14d,%esi
    b6a0:	89 c7                	mov    %eax,%edi
    b6a2:	e8 17 b7 ff ff       	callq  6dbe <safe_lshift_func_uint16_t_u_s>
    b6a7:	0f b7 c0             	movzwl %ax,%eax
    b6aa:	be cb 7f a5 05       	mov    $0x5a57fcb,%esi
    b6af:	89 c7                	mov    %eax,%edi
    b6b1:	e8 16 b0 ff ff       	callq  66cc <safe_mod_func_int32_t_s_s>
    b6b6:	3d a7 0c ff ff       	cmp    $0xffff0ca7,%eax
    b6bb:	0f 94 c0             	sete   %al
    b6be:	0f b6 d0             	movzbl %al,%edx
    b6c1:	0f b6 05 f1 e9 00 00 	movzbl 0xe9f1(%rip),%eax        # 1a0b9 <g_209+0x9>
    b6c8:	83 e0 01             	and    $0x1,%eax
    b6cb:	0f b6 c0             	movzbl %al,%eax
    b6ce:	21 d0                	and    %edx,%eax
    b6d0:	48 98                	cltq   
    b6d2:	48 be 56 e9 4d 7c c4 	movabs $0xde121ec47c4de956,%rsi
    b6d9:	1e 12 de 
    b6dc:	48 89 c7             	mov    %rax,%rdi
    b6df:	e8 5d b1 ff ff       	callq  6841 <safe_add_func_int64_t_s_s>
    b6e4:	89 c2                	mov    %eax,%edx
    b6e6:	48 8b 05 93 05 01 00 	mov    0x10593(%rip),%rax        # 1bc80 <g_1349>
    b6ed:	8b 00                	mov    (%rax),%eax
    b6ef:	89 d6                	mov    %edx,%esi
    b6f1:	89 c7                	mov    %eax,%edi
    b6f3:	e8 be ae ff ff       	callq  65b6 <safe_add_func_int32_t_s_s>
    b6f8:	48 8b 05 59 05 01 00 	mov    0x10559(%rip),%rax        # 1bc58 <g_1219>
    b6ff:	0f b7 00             	movzwl (%rax),%eax
    b702:	98                   	cwtl   
    b703:	be 8e f9 ff ff       	mov    $0xfffff98e,%esi
    b708:	89 c7                	mov    %eax,%edi
    b70a:	e8 46 ad ff ff       	callq  6455 <safe_div_func_int16_t_s_s>
    b70f:	48 0f bf c0          	movswq %ax,%rax
    b713:	48 be ba a4 9d cb cf 	movabs $0xaf6f4ccfcb9da4ba,%rsi
    b71a:	4c 6f af 
    b71d:	48 89 c7             	mov    %rax,%rdi
    b720:	e8 d2 b2 ff ff       	callq  69f7 <safe_div_func_int64_t_s_s>
    b725:	98                   	cwtl   
    b726:	89 de                	mov    %ebx,%esi
    b728:	89 c7                	mov    %eax,%edi
    b72a:	e8 fb ad ff ff       	callq  652a <safe_rshift_func_int16_t_s_s>
    b72f:	0f bf d0             	movswl %ax,%edx
    b732:	48 8b 05 af 05 01 00 	mov    0x105af(%rip),%rax        # 1bce8 <g_1524>
    b739:	0f b7 00             	movzwl (%rax),%eax
    b73c:	0f b7 c0             	movzwl %ax,%eax
    b73f:	39 c2                	cmp    %eax,%edx
    b741:	75 0e                	jne    b751 <func_1+0x3f9c>
    b743:	48 8b 05 a6 fb 00 00 	mov    0xfba6(%rip),%rax        # 1b2f0 <g_337>
    b74a:	0f b6 00             	movzbl (%rax),%eax
    b74d:	84 c0                	test   %al,%al
    b74f:	74 07                	je     b758 <func_1+0x3fa3>
    b751:	b8 01 00 00 00       	mov    $0x1,%eax
    b756:	eb 05                	jmp    b75d <func_1+0x3fa8>
    b758:	b8 00 00 00 00       	mov    $0x0,%eax
    b75d:	0f b7 c0             	movzwl %ax,%eax
    b760:	be 00 00 00 00       	mov    $0x0,%esi
    b765:	89 c7                	mov    %eax,%edi
    b767:	e8 93 b5 ff ff       	callq  6cff <safe_add_func_uint16_t_u_u>
    b76c:	0f b6 c0             	movzbl %al,%eax
    b76f:	be 4a 00 00 00       	mov    $0x4a,%esi
    b774:	89 c7                	mov    %eax,%edi
    b776:	e8 18 b4 ff ff       	callq  6b93 <safe_mul_func_uint8_t_u_u>
    b77b:	0f b6 c0             	movzbl %al,%eax
    b77e:	f7 d0                	not    %eax
    b780:	89 c2                	mov    %eax,%edx
    b782:	0f b6 85 67 e2 ff ff 	movzbl -0x1d99(%rbp),%eax
    b789:	39 c2                	cmp    %eax,%edx
    b78b:	0f 9e c0             	setle  %al
    b78e:	0f b6 d0             	movzbl %al,%edx
    b791:	48 8b 85 70 e3 ff ff 	mov    -0x1c90(%rbp),%rax
    b798:	89 10                	mov    %edx,(%rax)
    b79a:	48 8b 85 70 e3 ff ff 	mov    -0x1c90(%rbp),%rax
    b7a1:	8b 00                	mov    (%rax),%eax
    b7a3:	89 85 b8 e2 ff ff    	mov    %eax,-0x1d48(%rbp)
    b7a9:	48 8d 05 c0 04 01 00 	lea    0x104c0(%rip),%rax        # 1bc70 <g_1308>
    b7b0:	48 89 05 29 05 01 00 	mov    %rax,0x10529(%rip)        # 1bce0 <g_1499>
    b7b7:	48 8b 85 60 e4 ff ff 	mov    -0x1ba0(%rbp),%rax
    b7be:	48 89 85 a0 e4 ff ff 	mov    %rax,-0x1b60(%rbp)
    b7c5:	eb 0e                	jmp    b7d5 <func_1+0x4020>
    b7c7:	48 8b 05 9a 16 01 00 	mov    0x1169a(%rip),%rax        # 1ce68 <g_2502>
    b7ce:	48 89 05 93 16 01 00 	mov    %rax,0x11693(%rip)        # 1ce68 <g_2502>
    b7d5:	0f b7 85 6e e2 ff ff 	movzwl -0x1d92(%rbp),%eax
    b7dc:	83 c0 01             	add    $0x1,%eax
    b7df:	66 89 85 6e e2 ff ff 	mov    %ax,-0x1d92(%rbp)
    b7e6:	66 83 bd 6e e2 ff ff 	cmpw   $0x15,-0x1d92(%rbp)
    b7ed:	15 
    b7ee:	0f 85 b7 fa ff ff    	jne    b2ab <func_1+0x3af6>
    b7f4:	0f b7 85 9c e4 ff ff 	movzwl -0x1b64(%rbp),%eax
    b7fb:	98                   	cwtl   
    b7fc:	48 8b 5d c8          	mov    -0x38(%rbp),%rbx
    b800:	64 48 33 1c 25 28 00 	xor    %fs:0x28,%rbx
    b807:	00 00 
    b809:	74 05                	je     b810 <func_1+0x405b>
    b80b:	e8 60 a8 ff ff       	callq  6070 <__stack_chk_fail@plt>
    b810:	48 81 c4 88 1d 00 00 	add    $0x1d88,%rsp
    b817:	5b                   	pop    %rbx
    b818:	41 5c                	pop    %r12
    b81a:	41 5d                	pop    %r13
    b81c:	41 5e                	pop    %r14
    b81e:	41 5f                	pop    %r15
    b820:	5d                   	pop    %rbp
    b821:	c3                   	retq   

000000000000b822 <func_7>:
    b822:	f3 0f 1e fa          	endbr64 
    b826:	55                   	push   %rbp
    b827:	48 89 e5             	mov    %rsp,%rbp
    b82a:	48 89 7d e8          	mov    %rdi,-0x18(%rbp)
    b82e:	48 89 75 e0          	mov    %rsi,-0x20(%rbp)
    b832:	c7 45 fc 2f 31 6c 22 	movl   $0x226c312f,-0x4(%rbp)
    b839:	8b 45 fc             	mov    -0x4(%rbp),%eax
    b83c:	5d                   	pop    %rbp
    b83d:	c3                   	retq   

000000000000b83e <func_12>:
    b83e:	f3 0f 1e fa          	endbr64 
    b842:	55                   	push   %rbp
    b843:	48 89 e5             	mov    %rsp,%rbp
    b846:	89 7d ec             	mov    %edi,-0x14(%rbp)
    b849:	89 75 e8             	mov    %esi,-0x18(%rbp)
    b84c:	c7 45 f4 da 69 44 27 	movl   $0x274469da,-0xc(%rbp)
    b853:	48 c7 05 da e7 00 00 	movq   $0x13,0xe7da(%rip)        # 1a038 <g_93>
    b85a:	13 00 00 00 
    b85e:	eb 2b                	jmp    b88b <func_12+0x4d>
    b860:	48 8d 05 15 f5 00 00 	lea    0xf515(%rip),%rax        # 1ad7c <g_1823>
    b867:	48 89 45 f8          	mov    %rax,-0x8(%rbp)
    b86b:	48 8b 05 d6 0c 01 00 	mov    0x10cd6(%rip),%rax        # 1c548 <g_2116>
    b872:	48 8b 55 f8          	mov    -0x8(%rbp),%rdx
    b876:	48 89 10             	mov    %rdx,(%rax)
    b879:	48 8b 05 b8 e7 00 00 	mov    0xe7b8(%rip),%rax        # 1a038 <g_93>
    b880:	48 83 e8 01          	sub    $0x1,%rax
    b884:	48 89 05 ad e7 00 00 	mov    %rax,0xe7ad(%rip)        # 1a038 <g_93>
    b88b:	48 8b 05 a6 e7 00 00 	mov    0xe7a6(%rip),%rax        # 1a038 <g_93>
    b892:	48 83 f8 0a          	cmp    $0xa,%rax
    b896:	7f c8                	jg     b860 <func_12+0x22>
    b898:	8b 45 f4             	mov    -0xc(%rbp),%eax
    b89b:	5d                   	pop    %rbp
    b89c:	c3                   	retq   

000000000000b89d <func_16>:
    b89d:	f3 0f 1e fa          	endbr64 
    b8a1:	55                   	push   %rbp
    b8a2:	48 89 e5             	mov    %rsp,%rbp
    b8a5:	41 54                	push   %r12
    b8a7:	53                   	push   %rbx
    b8a8:	48 83 ec 30          	sub    $0x30,%rsp
    b8ac:	89 f8                	mov    %edi,%eax
    b8ae:	89 75 d8             	mov    %esi,-0x28(%rbp)
    b8b1:	48 89 55 d0          	mov    %rdx,-0x30(%rbp)
    b8b5:	89 4d cc             	mov    %ecx,-0x34(%rbp)
    b8b8:	4c 89 45 c0          	mov    %r8,-0x40(%rbp)
    b8bc:	88 45 dc             	mov    %al,-0x24(%rbp)
    b8bf:	c6 45 e7 08          	movb   $0x8,-0x19(%rbp)
    b8c3:	48 8d 05 a4 f1 00 00 	lea    0xf1a4(%rip),%rax        # 1aa6e <g_1452+0x6>
    b8ca:	48 89 45 e8          	mov    %rax,-0x18(%rbp)
    b8ce:	48 8b 05 c3 e7 00 00 	mov    0xe7c3(%rip),%rax        # 1a098 <g_197>
    b8d5:	0f b7 d8             	movzwl %ax,%ebx
    b8d8:	8b 05 52 f5 00 00    	mov    0xf552(%rip),%eax        # 1ae30 <g_2107>
    b8de:	8b 45 cc             	mov    -0x34(%rbp),%eax
    b8e1:	4c 63 e0             	movslq %eax,%r12
    b8e4:	0f b6 45 e7          	movzbl -0x19(%rbp),%eax
    b8e8:	39 45 d8             	cmp    %eax,-0x28(%rbp)
    b8eb:	0f 94 c0             	sete   %al
    b8ee:	0f b6 c0             	movzbl %al,%eax
    b8f1:	be 07 00 00 00       	mov    $0x7,%esi
    b8f6:	89 c7                	mov    %eax,%edi
    b8f8:	e8 4f b3 ff ff       	callq  6c4c <safe_lshift_func_uint8_t_u_u>
    b8fd:	0a 45 e7             	or     -0x19(%rbp),%al
    b900:	0f b6 c0             	movzbl %al,%eax
    b903:	4c 89 e6             	mov    %r12,%rsi
    b906:	48 89 c7             	mov    %rax,%rdi
    b909:	e8 3d b7 ff ff       	callq  704b <safe_sub_func_uint64_t_u_u>
    b90e:	89 de                	mov    %ebx,%esi
    b910:	bf 01 00 00 00       	mov    $0x1,%edi
    b915:	e8 23 b4 ff ff       	callq  6d3d <safe_mul_func_uint16_t_u_u>
    b91a:	b9 01 00 00 00       	mov    $0x1,%ecx
    b91f:	48 8b 05 5a 03 01 00 	mov    0x1035a(%rip),%rax        # 1bc80 <g_1349>
    b926:	8b 10                	mov    (%rax),%edx
    b928:	48 8b 05 51 03 01 00 	mov    0x10351(%rip),%rax        # 1bc80 <g_1349>
    b92f:	31 ca                	xor    %ecx,%edx
    b931:	89 10                	mov    %edx,(%rax)
    b933:	0f b6 45 e7          	movzbl -0x19(%rbp),%eax
    b937:	48 83 c4 30          	add    $0x30,%rsp
    b93b:	5b                   	pop    %rbx
    b93c:	41 5c                	pop    %r12
    b93e:	5d                   	pop    %rbp
    b93f:	c3                   	retq   

000000000000b940 <func_22>:
    b940:	f3 0f 1e fa          	endbr64 
    b944:	55                   	push   %rbp
    b945:	48 89 e5             	mov    %rsp,%rbp
    b948:	41 57                	push   %r15
    b94a:	41 56                	push   %r14
    b94c:	41 55                	push   %r13
    b94e:	41 54                	push   %r12
    b950:	53                   	push   %rbx
    b951:	48 81 ec 18 05 00 00 	sub    $0x518,%rsp
    b958:	89 f8                	mov    %edi,%eax
    b95a:	66 89 85 dc fa ff ff 	mov    %ax,-0x524(%rbp)
    b961:	64 48 8b 04 25 28 00 	mov    %fs:0x28,%rax
    b968:	00 00 
    b96a:	48 89 45 c8          	mov    %rax,-0x38(%rbp)
    b96e:	31 c0                	xor    %eax,%eax
    b970:	c7 85 00 fb ff ff 00 	movl   $0x0,-0x500(%rbp)
    b977:	00 00 00 
    b97a:	48 8d 05 ad e6 00 00 	lea    0xe6ad(%rip),%rax        # 1a02e <g_69>
    b981:	48 89 85 b0 fc ff ff 	mov    %rax,-0x350(%rbp)
    b988:	48 c7 85 b8 fc ff ff 	movq   $0x0,-0x348(%rbp)
    b98f:	00 00 00 00 
    b993:	48 8d 05 94 e6 00 00 	lea    0xe694(%rip),%rax        # 1a02e <g_69>
    b99a:	48 89 85 c0 fc ff ff 	mov    %rax,-0x340(%rbp)
    b9a1:	48 c7 85 c8 fc ff ff 	movq   $0x0,-0x338(%rbp)
    b9a8:	00 00 00 00 
    b9ac:	48 8d 05 7b e6 00 00 	lea    0xe67b(%rip),%rax        # 1a02e <g_69>
    b9b3:	48 89 85 d0 fc ff ff 	mov    %rax,-0x330(%rbp)
    b9ba:	48 c7 85 d8 fc ff ff 	movq   $0x0,-0x328(%rbp)
    b9c1:	00 00 00 00 
    b9c5:	48 8d 05 62 e6 00 00 	lea    0xe662(%rip),%rax        # 1a02e <g_69>
    b9cc:	48 89 85 e0 fc ff ff 	mov    %rax,-0x320(%rbp)
    b9d3:	48 c7 85 e8 fc ff ff 	movq   $0x0,-0x318(%rbp)
    b9da:	00 00 00 00 
    b9de:	48 8d 05 49 e6 00 00 	lea    0xe649(%rip),%rax        # 1a02e <g_69>
    b9e5:	48 89 85 f0 fc ff ff 	mov    %rax,-0x310(%rbp)
    b9ec:	48 c7 85 f8 fc ff ff 	movq   $0x0,-0x308(%rbp)
    b9f3:	00 00 00 00 
    b9f7:	48 8d 05 30 e6 00 00 	lea    0xe630(%rip),%rax        # 1a02e <g_69>
    b9fe:	48 89 85 00 fd ff ff 	mov    %rax,-0x300(%rbp)
    ba05:	48 c7 85 08 fd ff ff 	movq   $0x0,-0x2f8(%rbp)
    ba0c:	00 00 00 00 
    ba10:	c7 85 04 fb ff ff 02 	movl   $0x2,-0x4fc(%rbp)
    ba17:	00 00 00 
    ba1a:	c7 85 08 fb ff ff 41 	movl   $0xfe2d5841,-0x4f8(%rbp)
    ba21:	58 2d fe 
    ba24:	c7 85 f4 fa ff ff 00 	movl   $0x0,-0x50c(%rbp)
    ba2b:	00 00 00 
    ba2e:	c7 85 0c fb ff ff 9e 	movl   $0x36c8609e,-0x4f4(%rbp)
    ba35:	60 c8 36 
    ba38:	c7 85 f8 fa ff ff 81 	movl   $0x1ebc8481,-0x508(%rbp)
    ba3f:	84 bc 1e 
    ba42:	c7 85 10 fb ff ff 01 	movl   $0x1,-0x4f0(%rbp)
    ba49:	00 00 00 
    ba4c:	66 c7 85 ee fa ff ff 	movw   $0x6603,-0x512(%rbp)
    ba53:	03 66 
    ba55:	48 8d 05 24 0a 01 00 	lea    0x10a24(%rip),%rax        # 1c480 <g_1544>
    ba5c:	48 89 85 60 fc ff ff 	mov    %rax,-0x3a0(%rbp)
    ba63:	48 8d 05 16 0a 01 00 	lea    0x10a16(%rip),%rax        # 1c480 <g_1544>
    ba6a:	48 89 85 68 fc ff ff 	mov    %rax,-0x398(%rbp)
    ba71:	48 8d 05 08 0a 01 00 	lea    0x10a08(%rip),%rax        # 1c480 <g_1544>
    ba78:	48 89 85 70 fc ff ff 	mov    %rax,-0x390(%rbp)
    ba7f:	48 8d 05 fa 09 01 00 	lea    0x109fa(%rip),%rax        # 1c480 <g_1544>
    ba86:	48 89 85 78 fc ff ff 	mov    %rax,-0x388(%rbp)
    ba8d:	48 8d 05 ec 09 01 00 	lea    0x109ec(%rip),%rax        # 1c480 <g_1544>
    ba94:	48 89 85 80 fc ff ff 	mov    %rax,-0x380(%rbp)
    ba9b:	48 8d 05 de 09 01 00 	lea    0x109de(%rip),%rax        # 1c480 <g_1544>
    baa2:	48 89 85 88 fc ff ff 	mov    %rax,-0x378(%rbp)
    baa9:	48 8d 05 d0 09 01 00 	lea    0x109d0(%rip),%rax        # 1c480 <g_1544>
    bab0:	48 89 85 90 fc ff ff 	mov    %rax,-0x370(%rbp)
    bab7:	48 8d 05 c2 09 01 00 	lea    0x109c2(%rip),%rax        # 1c480 <g_1544>
    babe:	48 89 85 98 fc ff ff 	mov    %rax,-0x368(%rbp)
    bac5:	48 8d 05 b4 09 01 00 	lea    0x109b4(%rip),%rax        # 1c480 <g_1544>
    bacc:	48 89 85 a0 fc ff ff 	mov    %rax,-0x360(%rbp)
    bad3:	48 8d 05 a6 09 01 00 	lea    0x109a6(%rip),%rax        # 1c480 <g_1544>
    bada:	48 89 85 a8 fc ff ff 	mov    %rax,-0x358(%rbp)
    bae1:	48 8d 05 dc e5 00 00 	lea    0xe5dc(%rip),%rax        # 1a0c4 <g_322+0x4>
    bae8:	48 89 85 38 fb ff ff 	mov    %rax,-0x4c8(%rbp)
    baef:	48 8d 05 92 10 01 00 	lea    0x11092(%rip),%rax        # 1cb88 <g_324>
    baf6:	48 89 85 40 fb ff ff 	mov    %rax,-0x4c0(%rbp)
    bafd:	48 8d 85 e0 fb ff ff 	lea    -0x420(%rbp),%rax
    bb04:	48 83 c0 20          	add    $0x20,%rax
    bb08:	48 89 85 a8 fb ff ff 	mov    %rax,-0x458(%rbp)
    bb0f:	48 8d 85 a8 fb ff ff 	lea    -0x458(%rbp),%rax
    bb16:	48 89 85 20 fc ff ff 	mov    %rax,-0x3e0(%rbp)
    bb1d:	48 8d 85 a8 fb ff ff 	lea    -0x458(%rbp),%rax
    bb24:	48 89 85 28 fc ff ff 	mov    %rax,-0x3d8(%rbp)
    bb2b:	48 8d 85 a8 fb ff ff 	lea    -0x458(%rbp),%rax
    bb32:	48 89 85 30 fc ff ff 	mov    %rax,-0x3d0(%rbp)
    bb39:	48 8d 85 a8 fb ff ff 	lea    -0x458(%rbp),%rax
    bb40:	48 89 85 38 fc ff ff 	mov    %rax,-0x3c8(%rbp)
    bb47:	48 8d 85 a8 fb ff ff 	lea    -0x458(%rbp),%rax
    bb4e:	48 89 85 40 fc ff ff 	mov    %rax,-0x3c0(%rbp)
    bb55:	48 8d 85 a8 fb ff ff 	lea    -0x458(%rbp),%rax
    bb5c:	48 89 85 48 fc ff ff 	mov    %rax,-0x3b8(%rbp)
    bb63:	48 8d 85 a8 fb ff ff 	lea    -0x458(%rbp),%rax
    bb6a:	48 89 85 50 fc ff ff 	mov    %rax,-0x3b0(%rbp)
    bb71:	48 8d 85 a8 fb ff ff 	lea    -0x458(%rbp),%rax
    bb78:	48 89 85 58 fc ff ff 	mov    %rax,-0x3a8(%rbp)
    bb7f:	48 8d 85 20 fc ff ff 	lea    -0x3e0(%rbp),%rax
    bb86:	48 83 c0 30          	add    $0x30,%rax
    bb8a:	48 89 85 48 fb ff ff 	mov    %rax,-0x4b8(%rbp)
    bb91:	48 8d 05 d8 ee 00 00 	lea    0xeed8(%rip),%rax        # 1aa70 <g_1452+0x8>
    bb98:	48 89 85 20 fb ff ff 	mov    %rax,-0x4e0(%rbp)
    bb9f:	48 8d 85 20 fb ff ff 	lea    -0x4e0(%rbp),%rax
    bba6:	48 89 85 28 fb ff ff 	mov    %rax,-0x4d8(%rbp)
    bbad:	48 8d 85 28 fb ff ff 	lea    -0x4d8(%rbp),%rax
    bbb4:	48 89 85 10 fd ff ff 	mov    %rax,-0x2f0(%rbp)
    bbbb:	48 8d 85 28 fb ff ff 	lea    -0x4d8(%rbp),%rax
    bbc2:	48 89 85 18 fd ff ff 	mov    %rax,-0x2e8(%rbp)
    bbc9:	48 8d 85 28 fb ff ff 	lea    -0x4d8(%rbp),%rax
    bbd0:	48 89 85 20 fd ff ff 	mov    %rax,-0x2e0(%rbp)
    bbd7:	48 c7 85 28 fd ff ff 	movq   $0x0,-0x2d8(%rbp)
    bbde:	00 00 00 00 
    bbe2:	48 8d 85 28 fb ff ff 	lea    -0x4d8(%rbp),%rax
    bbe9:	48 89 85 30 fd ff ff 	mov    %rax,-0x2d0(%rbp)
    bbf0:	48 8d 85 28 fb ff ff 	lea    -0x4d8(%rbp),%rax
    bbf7:	48 89 85 38 fd ff ff 	mov    %rax,-0x2c8(%rbp)
    bbfe:	48 8d 85 28 fb ff ff 	lea    -0x4d8(%rbp),%rax
    bc05:	48 89 85 40 fd ff ff 	mov    %rax,-0x2c0(%rbp)
    bc0c:	48 8d 85 28 fb ff ff 	lea    -0x4d8(%rbp),%rax
    bc13:	48 89 85 48 fd ff ff 	mov    %rax,-0x2b8(%rbp)
    bc1a:	48 c7 85 50 fd ff ff 	movq   $0x0,-0x2b0(%rbp)
    bc21:	00 00 00 00 
    bc25:	48 8d 85 28 fb ff ff 	lea    -0x4d8(%rbp),%rax
    bc2c:	48 89 85 58 fd ff ff 	mov    %rax,-0x2a8(%rbp)
    bc33:	48 8d 85 28 fb ff ff 	lea    -0x4d8(%rbp),%rax
    bc3a:	48 89 85 60 fd ff ff 	mov    %rax,-0x2a0(%rbp)
    bc41:	48 8d 85 28 fb ff ff 	lea    -0x4d8(%rbp),%rax
    bc48:	48 89 85 68 fd ff ff 	mov    %rax,-0x298(%rbp)
    bc4f:	48 c7 85 70 fd ff ff 	movq   $0x0,-0x290(%rbp)
    bc56:	00 00 00 00 
    bc5a:	48 8d 85 28 fb ff ff 	lea    -0x4d8(%rbp),%rax
    bc61:	48 89 85 78 fd ff ff 	mov    %rax,-0x288(%rbp)
    bc68:	48 c7 85 80 fd ff ff 	movq   $0x0,-0x280(%rbp)
    bc6f:	00 00 00 00 
    bc73:	48 8d 85 28 fb ff ff 	lea    -0x4d8(%rbp),%rax
    bc7a:	48 89 85 88 fd ff ff 	mov    %rax,-0x278(%rbp)
    bc81:	48 8d 85 28 fb ff ff 	lea    -0x4d8(%rbp),%rax
    bc88:	48 89 85 30 fb ff ff 	mov    %rax,-0x4d0(%rbp)
    bc8f:	48 8d 85 30 fb ff ff 	lea    -0x4d0(%rbp),%rax
    bc96:	48 89 85 90 fd ff ff 	mov    %rax,-0x270(%rbp)
    bc9d:	48 8d 85 30 fb ff ff 	lea    -0x4d0(%rbp),%rax
    bca4:	48 89 85 98 fd ff ff 	mov    %rax,-0x268(%rbp)
    bcab:	48 8d 85 30 fb ff ff 	lea    -0x4d0(%rbp),%rax
    bcb2:	48 89 85 a0 fd ff ff 	mov    %rax,-0x260(%rbp)
    bcb9:	48 8d 85 30 fb ff ff 	lea    -0x4d0(%rbp),%rax
    bcc0:	48 89 85 a8 fd ff ff 	mov    %rax,-0x258(%rbp)
    bcc7:	48 8d 85 30 fb ff ff 	lea    -0x4d0(%rbp),%rax
    bcce:	48 89 85 b0 fd ff ff 	mov    %rax,-0x250(%rbp)
    bcd5:	48 8d 85 30 fb ff ff 	lea    -0x4d0(%rbp),%rax
    bcdc:	48 89 85 b8 fd ff ff 	mov    %rax,-0x248(%rbp)
    bce3:	48 8d 85 30 fb ff ff 	lea    -0x4d0(%rbp),%rax
    bcea:	48 89 85 c0 fd ff ff 	mov    %rax,-0x240(%rbp)
    bcf1:	48 8d 85 30 fb ff ff 	lea    -0x4d0(%rbp),%rax
    bcf8:	48 89 85 c8 fd ff ff 	mov    %rax,-0x238(%rbp)
    bcff:	48 8d 85 10 fd ff ff 	lea    -0x2f0(%rbp),%rax
    bd06:	48 83 c0 60          	add    $0x60,%rax
    bd0a:	48 89 85 d0 fd ff ff 	mov    %rax,-0x230(%rbp)
    bd11:	48 8d 85 30 fb ff ff 	lea    -0x4d0(%rbp),%rax
    bd18:	48 89 85 d8 fd ff ff 	mov    %rax,-0x228(%rbp)
    bd1f:	48 8d 85 10 fd ff ff 	lea    -0x2f0(%rbp),%rax
    bd26:	48 83 c0 78          	add    $0x78,%rax
    bd2a:	48 89 85 e0 fd ff ff 	mov    %rax,-0x220(%rbp)
    bd31:	48 8d 85 30 fb ff ff 	lea    -0x4d0(%rbp),%rax
    bd38:	48 89 85 e8 fd ff ff 	mov    %rax,-0x218(%rbp)
    bd3f:	48 8d 85 10 fd ff ff 	lea    -0x2f0(%rbp),%rax
    bd46:	48 83 c0 60          	add    $0x60,%rax
    bd4a:	48 89 85 f0 fd ff ff 	mov    %rax,-0x210(%rbp)
    bd51:	48 8d 85 30 fb ff ff 	lea    -0x4d0(%rbp),%rax
    bd58:	48 89 85 f8 fd ff ff 	mov    %rax,-0x208(%rbp)
    bd5f:	48 8d 85 10 fd ff ff 	lea    -0x2f0(%rbp),%rax
    bd66:	48 83 c0 60          	add    $0x60,%rax
    bd6a:	48 89 85 00 fe ff ff 	mov    %rax,-0x200(%rbp)
    bd71:	48 8d 85 30 fb ff ff 	lea    -0x4d0(%rbp),%rax
    bd78:	48 89 85 08 fe ff ff 	mov    %rax,-0x1f8(%rbp)
    bd7f:	48 8d 85 10 fd ff ff 	lea    -0x2f0(%rbp),%rax
    bd86:	48 83 c0 60          	add    $0x60,%rax
    bd8a:	48 89 85 10 fe ff ff 	mov    %rax,-0x1f0(%rbp)
    bd91:	48 8d 85 10 fd ff ff 	lea    -0x2f0(%rbp),%rax
    bd98:	48 83 c0 60          	add    $0x60,%rax
    bd9c:	48 89 85 18 fe ff ff 	mov    %rax,-0x1e8(%rbp)
    bda3:	48 8d 85 30 fb ff ff 	lea    -0x4d0(%rbp),%rax
    bdaa:	48 89 85 20 fe ff ff 	mov    %rax,-0x1e0(%rbp)
    bdb1:	48 8d 85 10 fd ff ff 	lea    -0x2f0(%rbp),%rax
    bdb8:	48 83 c0 60          	add    $0x60,%rax
    bdbc:	48 89 85 28 fe ff ff 	mov    %rax,-0x1d8(%rbp)
    bdc3:	48 8d 85 10 fd ff ff 	lea    -0x2f0(%rbp),%rax
    bdca:	48 83 c0 60          	add    $0x60,%rax
    bdce:	48 89 85 30 fe ff ff 	mov    %rax,-0x1d0(%rbp)
    bdd5:	48 8d 85 30 fb ff ff 	lea    -0x4d0(%rbp),%rax
    bddc:	48 89 85 38 fe ff ff 	mov    %rax,-0x1c8(%rbp)
    bde3:	48 8d 85 10 fd ff ff 	lea    -0x2f0(%rbp),%rax
    bdea:	48 83 c0 78          	add    $0x78,%rax
    bdee:	48 89 85 40 fe ff ff 	mov    %rax,-0x1c0(%rbp)
    bdf5:	48 8d 85 30 fb ff ff 	lea    -0x4d0(%rbp),%rax
    bdfc:	48 89 85 48 fe ff ff 	mov    %rax,-0x1b8(%rbp)
    be03:	48 8d 85 10 fd ff ff 	lea    -0x2f0(%rbp),%rax
    be0a:	48 83 c0 78          	add    $0x78,%rax
    be0e:	48 89 85 50 fe ff ff 	mov    %rax,-0x1b0(%rbp)
    be15:	48 8d 85 30 fb ff ff 	lea    -0x4d0(%rbp),%rax
    be1c:	48 89 85 58 fe ff ff 	mov    %rax,-0x1a8(%rbp)
    be23:	48 8d 85 30 fb ff ff 	lea    -0x4d0(%rbp),%rax
    be2a:	48 89 85 60 fe ff ff 	mov    %rax,-0x1a0(%rbp)
    be31:	48 8d 85 30 fb ff ff 	lea    -0x4d0(%rbp),%rax
    be38:	48 89 85 68 fe ff ff 	mov    %rax,-0x198(%rbp)
    be3f:	48 8d 85 30 fb ff ff 	lea    -0x4d0(%rbp),%rax
    be46:	48 89 85 70 fe ff ff 	mov    %rax,-0x190(%rbp)
    be4d:	48 8d 85 10 fd ff ff 	lea    -0x2f0(%rbp),%rax
    be54:	48 83 c0 60          	add    $0x60,%rax
    be58:	48 89 85 78 fe ff ff 	mov    %rax,-0x188(%rbp)
    be5f:	48 8d 85 10 fd ff ff 	lea    -0x2f0(%rbp),%rax
    be66:	48 83 c0 60          	add    $0x60,%rax
    be6a:	48 89 85 80 fe ff ff 	mov    %rax,-0x180(%rbp)
    be71:	48 8d 85 30 fb ff ff 	lea    -0x4d0(%rbp),%rax
    be78:	48 89 85 88 fe ff ff 	mov    %rax,-0x178(%rbp)
    be7f:	48 8d 85 10 fd ff ff 	lea    -0x2f0(%rbp),%rax
    be86:	48 83 c0 60          	add    $0x60,%rax
    be8a:	48 89 85 90 fe ff ff 	mov    %rax,-0x170(%rbp)
    be91:	48 8d 85 10 fd ff ff 	lea    -0x2f0(%rbp),%rax
    be98:	48 83 c0 60          	add    $0x60,%rax
    be9c:	48 89 85 98 fe ff ff 	mov    %rax,-0x168(%rbp)
    bea3:	48 8d 85 30 fb ff ff 	lea    -0x4d0(%rbp),%rax
    beaa:	48 89 85 a0 fe ff ff 	mov    %rax,-0x160(%rbp)
    beb1:	48 8d 85 30 fb ff ff 	lea    -0x4d0(%rbp),%rax
    beb8:	48 89 85 a8 fe ff ff 	mov    %rax,-0x158(%rbp)
    bebf:	48 8d 85 10 fd ff ff 	lea    -0x2f0(%rbp),%rax
    bec6:	48 83 c0 78          	add    $0x78,%rax
    beca:	48 89 85 b0 fe ff ff 	mov    %rax,-0x150(%rbp)
    bed1:	48 8d 85 30 fb ff ff 	lea    -0x4d0(%rbp),%rax
    bed8:	48 89 85 b8 fe ff ff 	mov    %rax,-0x148(%rbp)
    bedf:	48 8d 85 10 fd ff ff 	lea    -0x2f0(%rbp),%rax
    bee6:	48 83 c0 60          	add    $0x60,%rax
    beea:	48 89 85 c0 fe ff ff 	mov    %rax,-0x140(%rbp)
    bef1:	48 8d 85 30 fb ff ff 	lea    -0x4d0(%rbp),%rax
    bef8:	48 89 85 c8 fe ff ff 	mov    %rax,-0x138(%rbp)
    beff:	48 8d 85 10 fd ff ff 	lea    -0x2f0(%rbp),%rax
    bf06:	48 83 c0 60          	add    $0x60,%rax
    bf0a:	48 89 85 d0 fe ff ff 	mov    %rax,-0x130(%rbp)
    bf11:	48 8d 85 30 fb ff ff 	lea    -0x4d0(%rbp),%rax
    bf18:	48 89 85 d8 fe ff ff 	mov    %rax,-0x128(%rbp)
    bf1f:	48 8d 85 30 fb ff ff 	lea    -0x4d0(%rbp),%rax
    bf26:	48 89 85 e0 fe ff ff 	mov    %rax,-0x120(%rbp)
    bf2d:	48 8d 85 30 fb ff ff 	lea    -0x4d0(%rbp),%rax
    bf34:	48 89 85 e8 fe ff ff 	mov    %rax,-0x118(%rbp)
    bf3b:	48 8d 85 30 fb ff ff 	lea    -0x4d0(%rbp),%rax
    bf42:	48 89 85 f0 fe ff ff 	mov    %rax,-0x110(%rbp)
    bf49:	48 8d 85 30 fb ff ff 	lea    -0x4d0(%rbp),%rax
    bf50:	48 89 85 f8 fe ff ff 	mov    %rax,-0x108(%rbp)
    bf57:	48 8d 85 30 fb ff ff 	lea    -0x4d0(%rbp),%rax
    bf5e:	48 89 85 00 ff ff ff 	mov    %rax,-0x100(%rbp)
    bf65:	48 8d 85 30 fb ff ff 	lea    -0x4d0(%rbp),%rax
    bf6c:	48 89 85 08 ff ff ff 	mov    %rax,-0xf8(%rbp)
    bf73:	48 8d 85 30 fb ff ff 	lea    -0x4d0(%rbp),%rax
    bf7a:	48 89 85 10 ff ff ff 	mov    %rax,-0xf0(%rbp)
    bf81:	48 8d 85 30 fb ff ff 	lea    -0x4d0(%rbp),%rax
    bf88:	48 89 85 18 ff ff ff 	mov    %rax,-0xe8(%rbp)
    bf8f:	48 8d 85 10 fd ff ff 	lea    -0x2f0(%rbp),%rax
    bf96:	48 83 c0 60          	add    $0x60,%rax
    bf9a:	48 89 85 20 ff ff ff 	mov    %rax,-0xe0(%rbp)
    bfa1:	48 8d 85 30 fb ff ff 	lea    -0x4d0(%rbp),%rax
    bfa8:	48 89 85 28 ff ff ff 	mov    %rax,-0xd8(%rbp)
    bfaf:	48 8d 85 10 fd ff ff 	lea    -0x2f0(%rbp),%rax
    bfb6:	48 83 c0 78          	add    $0x78,%rax
    bfba:	48 89 85 30 ff ff ff 	mov    %rax,-0xd0(%rbp)
    bfc1:	48 8d 85 30 fb ff ff 	lea    -0x4d0(%rbp),%rax
    bfc8:	48 89 85 38 ff ff ff 	mov    %rax,-0xc8(%rbp)
    bfcf:	48 8d 85 10 fd ff ff 	lea    -0x2f0(%rbp),%rax
    bfd6:	48 83 c0 60          	add    $0x60,%rax
    bfda:	48 89 85 40 ff ff ff 	mov    %rax,-0xc0(%rbp)
    bfe1:	48 8d 85 30 fb ff ff 	lea    -0x4d0(%rbp),%rax
    bfe8:	48 89 85 48 ff ff ff 	mov    %rax,-0xb8(%rbp)
    bfef:	48 8d 85 10 fd ff ff 	lea    -0x2f0(%rbp),%rax
    bff6:	48 83 c0 60          	add    $0x60,%rax
    bffa:	48 89 85 50 ff ff ff 	mov    %rax,-0xb0(%rbp)
    c001:	48 8d 85 30 fb ff ff 	lea    -0x4d0(%rbp),%rax
    c008:	48 89 85 58 ff ff ff 	mov    %rax,-0xa8(%rbp)
    c00f:	48 8d 85 10 fd ff ff 	lea    -0x2f0(%rbp),%rax
    c016:	48 83 c0 60          	add    $0x60,%rax
    c01a:	48 89 85 60 ff ff ff 	mov    %rax,-0xa0(%rbp)
    c021:	48 8d 85 10 fd ff ff 	lea    -0x2f0(%rbp),%rax
    c028:	48 83 c0 60          	add    $0x60,%rax
    c02c:	48 89 85 68 ff ff ff 	mov    %rax,-0x98(%rbp)
    c033:	48 8d 85 30 fb ff ff 	lea    -0x4d0(%rbp),%rax
    c03a:	48 89 85 70 ff ff ff 	mov    %rax,-0x90(%rbp)
    c041:	48 8d 85 10 fd ff ff 	lea    -0x2f0(%rbp),%rax
    c048:	48 83 c0 60          	add    $0x60,%rax
    c04c:	48 89 85 78 ff ff ff 	mov    %rax,-0x88(%rbp)
    c053:	48 8d 85 10 fd ff ff 	lea    -0x2f0(%rbp),%rax
    c05a:	48 83 c0 60          	add    $0x60,%rax
    c05e:	48 89 45 80          	mov    %rax,-0x80(%rbp)
    c062:	48 8d 85 30 fb ff ff 	lea    -0x4d0(%rbp),%rax
    c069:	48 89 45 88          	mov    %rax,-0x78(%rbp)
    c06d:	48 8d 85 10 fd ff ff 	lea    -0x2f0(%rbp),%rax
    c074:	48 83 c0 78          	add    $0x78,%rax
    c078:	48 89 45 90          	mov    %rax,-0x70(%rbp)
    c07c:	48 8d 85 10 fd ff ff 	lea    -0x2f0(%rbp),%rax
    c083:	48 83 c0 60          	add    $0x60,%rax
    c087:	48 89 45 98          	mov    %rax,-0x68(%rbp)
    c08b:	48 8d 85 10 fd ff ff 	lea    -0x2f0(%rbp),%rax
    c092:	48 83 c0 78          	add    $0x78,%rax
    c096:	48 89 45 a0          	mov    %rax,-0x60(%rbp)
    c09a:	48 8d 85 30 fb ff ff 	lea    -0x4d0(%rbp),%rax
    c0a1:	48 89 45 a8          	mov    %rax,-0x58(%rbp)
    c0a5:	48 8d 85 30 fb ff ff 	lea    -0x4d0(%rbp),%rax
    c0ac:	48 89 45 b0          	mov    %rax,-0x50(%rbp)
    c0b0:	48 8d 85 30 fb ff ff 	lea    -0x4d0(%rbp),%rax
    c0b7:	48 89 45 b8          	mov    %rax,-0x48(%rbp)
    c0bb:	48 8d 05 d6 df 00 00 	lea    0xdfd6(%rip),%rax        # 1a098 <g_197>
    c0c2:	48 89 85 50 fb ff ff 	mov    %rax,-0x4b0(%rbp)
    c0c9:	66 c7 85 f0 fa ff ff 	movw   $0xfff7,-0x510(%rbp)
    c0d0:	f7 ff 
    c0d2:	c7 85 14 fb ff ff f9 	movl   $0xfffffff9,-0x4ec(%rbp)
    c0d9:	ff ff ff 
    c0dc:	c7 85 fc fa ff ff 00 	movl   $0x0,-0x504(%rbp)
    c0e3:	00 00 00 
    c0e6:	eb 1e                	jmp    c106 <func_22+0x7c6>
    c0e8:	8b 85 fc fa ff ff    	mov    -0x504(%rbp),%eax
    c0ee:	48 98                	cltq   
    c0f0:	48 8d 15 31 df 00 00 	lea    0xdf31(%rip),%rdx        # 1a028 <g_29>
    c0f7:	48 89 94 c5 a0 fb ff 	mov    %rdx,-0x460(%rbp,%rax,8)
    c0fe:	ff 
    c0ff:	83 85 fc fa ff ff 01 	addl   $0x1,-0x504(%rbp)
    c106:	83 bd fc fa ff ff 00 	cmpl   $0x0,-0x504(%rbp)
    c10d:	7e d9                	jle    c0e8 <func_22+0x7a8>
    c10f:	c7 85 fc fa ff ff 00 	movl   $0x0,-0x504(%rbp)
    c116:	00 00 00 
    c119:	eb 1b                	jmp    c136 <func_22+0x7f6>
    c11b:	8b 85 fc fa ff ff    	mov    -0x504(%rbp),%eax
    c121:	48 98                	cltq   
    c123:	48 c7 84 c5 e0 fb ff 	movq   $0x0,-0x420(%rbp,%rax,8)
    c12a:	ff 00 00 00 00 
    c12f:	83 85 fc fa ff ff 01 	addl   $0x1,-0x504(%rbp)
    c136:	83 bd fc fa ff ff 07 	cmpl   $0x7,-0x504(%rbp)
    c13d:	7e dc                	jle    c11b <func_22+0x7db>
    c13f:	0f b6 05 23 ec 00 00 	movzbl 0xec23(%rip),%eax        # 1ad69 <g_1743+0x9>
    c146:	83 e0 01             	and    $0x1,%eax
    c149:	0f b6 d8             	movzbl %al,%ebx
    c14c:	0f b7 85 ee fa ff ff 	movzwl -0x512(%rbp),%eax
    c153:	44 0f be f0          	movsbl %al,%r14d
    c157:	8b 85 04 fb ff ff    	mov    -0x4fc(%rbp),%eax
    c15d:	44 0f b7 e8          	movzwl %ax,%r13d
    c161:	44 0f b7 a5 ee fa ff 	movzwl -0x512(%rbp),%r12d
    c168:	ff 
    c169:	44 8b bd 0c fb ff ff 	mov    -0x4f4(%rbp),%r15d
    c170:	0f bf 85 dc fa ff ff 	movswl -0x524(%rbp),%eax
    c177:	89 85 d8 fa ff ff    	mov    %eax,-0x528(%rbp)
    c17d:	0f b7 8d ee fa ff ff 	movzwl -0x512(%rbp),%ecx
    c184:	48 89 8d d0 fa ff ff 	mov    %rcx,-0x530(%rbp)
    c18b:	8b 85 10 fb ff ff    	mov    -0x4f0(%rbp),%eax
    c191:	48 63 f0             	movslq %eax,%rsi
    c194:	48 89 b5 c8 fa ff ff 	mov    %rsi,-0x538(%rbp)
    c19b:	0f bf bd dc fa ff ff 	movswl -0x524(%rbp),%edi
    c1a2:	89 bd c0 fa ff ff    	mov    %edi,-0x540(%rbp)
    c1a8:	8b 05 76 de 00 00    	mov    0xde76(%rip),%eax        # 1a024 <g_10>
    c1ae:	0f b6 d0             	movzbl %al,%edx
    c1b1:	0f b7 05 76 de 00 00 	movzwl 0xde76(%rip),%eax        # 1a02e <g_69>
    c1b8:	83 e8 01             	sub    $0x1,%eax
    c1bb:	66 89 05 6c de 00 00 	mov    %ax,0xde6c(%rip)        # 1a02e <g_69>
    c1c2:	48 8b 85 a0 fb ff ff 	mov    -0x460(%rbp),%rax
    c1c9:	48 89 c6             	mov    %rax,%rsi
    c1cc:	48 8d 3d 55 de 00 00 	lea    0xde55(%rip),%rdi        # 1a028 <g_29>
    c1d3:	e8 e3 5d 00 00       	callq  11fbb <func_63>
    c1d8:	48 89 c2             	mov    %rax,%rdx
    c1db:	48 8b 8d a0 fb ff ff 	mov    -0x460(%rbp),%rcx
    c1e2:	48 8b 85 a0 fb ff ff 	mov    -0x460(%rbp),%rax
    c1e9:	48 89 ce             	mov    %rcx,%rsi
    c1ec:	48 89 c7             	mov    %rax,%rdi
    c1ef:	e8 5b 45 00 00       	callq  1074f <func_59>
    c1f4:	8b b5 c0 fa ff ff    	mov    -0x540(%rbp),%esi
    c1fa:	89 c7                	mov    %eax,%edi
    c1fc:	e8 04 a4 ff ff       	callq  6605 <safe_sub_func_int32_t_s_s>
    c201:	0f be f0             	movsbl %al,%esi
    c204:	48 8b 85 a0 fb ff ff 	mov    -0x460(%rbp),%rax
    c20b:	48 8b 15 fe f0 00 00 	mov    0xf0fe(%rip),%rdx        # 1b310 <g_403>
    c212:	48 8b 3a             	mov    (%rdx),%rdi
    c215:	48 89 bd c0 fa ff ff 	mov    %rdi,-0x540(%rbp)
    c21c:	44 8b 85 d8 fa ff ff 	mov    -0x528(%rbp),%r8d
    c223:	48 8b 8d d0 fa ff ff 	mov    -0x530(%rbp),%rcx
    c22a:	48 8b 95 c8 fa ff ff 	mov    -0x538(%rbp),%rdx
    c231:	48 89 c7             	mov    %rax,%rdi
    c234:	e8 6e 2c 00 00       	callq  eea7 <func_51>
    c239:	48 8b bd c0 fa ff ff 	mov    -0x540(%rbp),%rdi
    c240:	48 89 07             	mov    %rax,(%rdi)
    c243:	48 c7 85 38 fb ff ff 	movq   $0x0,-0x4c8(%rbp)
    c24a:	00 00 00 00 
    c24e:	48 8b 85 40 fb ff ff 	mov    -0x4c0(%rbp),%rax
    c255:	c6 00 c2             	movb   $0xc2,(%rax)
    c258:	48 8b 85 40 fb ff ff 	mov    -0x4c0(%rbp),%rax
    c25f:	0f b6 00             	movzbl (%rax),%eax
    c262:	66 98                	cbtw   
    c264:	f7 d0                	not    %eax
    c266:	98                   	cwtl   
    c267:	be 0b 00 00 00       	mov    $0xb,%esi
    c26c:	89 c7                	mov    %eax,%edi
    c26e:	e8 6e a2 ff ff       	callq  64e1 <safe_lshift_func_int16_t_s_u>
    c273:	98                   	cwtl   
    c274:	44 89 fe             	mov    %r15d,%esi
    c277:	89 c7                	mov    %eax,%edi
    c279:	e8 7f ac ff ff       	callq  6efd <safe_mod_func_uint32_t_u_u>
    c27e:	3d 79 ff ff ff       	cmp    $0xffffff79,%eax
    c283:	75 09                	jne    c28e <func_22+0x94e>
    c285:	83 bd 10 fb ff ff 00 	cmpl   $0x0,-0x4f0(%rbp)
    c28c:	74 07                	je     c295 <func_22+0x955>
    c28e:	b8 01 00 00 00       	mov    $0x1,%eax
    c293:	eb 05                	jmp    c29a <func_22+0x95a>
    c295:	b8 00 00 00 00       	mov    $0x0,%eax
    c29a:	3d dc 00 00 00       	cmp    $0xdc,%eax
    c29f:	7e 0a                	jle    c2ab <func_22+0x96b>
    c2a1:	66 83 bd dc fa ff ff 	cmpw   $0x0,-0x524(%rbp)
    c2a8:	00 
    c2a9:	75 07                	jne    c2b2 <func_22+0x972>
    c2ab:	83 bd 00 fb ff ff 00 	cmpl   $0x0,-0x500(%rbp)
    c2b2:	90                   	nop
    c2b3:	48 8b 95 a0 fb ff ff 	mov    -0x460(%rbp),%rdx
    c2ba:	48 8b 05 8f f9 00 00 	mov    0xf98f(%rip),%rax        # 1bc50 <g_938>
    c2c1:	48 8b 00             	mov    (%rax),%rax
    c2c4:	48 8b 00             	mov    (%rax),%rax
    c2c7:	48 8b 00             	mov    (%rax),%rax
    c2ca:	48 8b 00             	mov    (%rax),%rax
    c2cd:	48 39 c2             	cmp    %rax,%rdx
    c2d0:	0f 95 c0             	setne  %al
    c2d3:	0f b6 c0             	movzbl %al,%eax
    c2d6:	4c 8d 05 9b e6 00 00 	lea    0xe69b(%rip),%r8        # 1a978 <g_668>
    c2dd:	44 89 f1             	mov    %r14d,%ecx
    c2e0:	44 89 ea             	mov    %r13d,%edx
    c2e3:	44 89 e6             	mov    %r12d,%esi
    c2e6:	89 c7                	mov    %eax,%edi
    c2e8:	e8 db 2a 00 00       	callq  edc8 <func_39>
    c2ed:	48 89 c1             	mov    %rax,%rcx
    c2f0:	48 8b 85 a0 fb ff ff 	mov    -0x460(%rbp),%rax
    c2f7:	4c 8b 25 82 f9 00 00 	mov    0xf982(%rip),%r12        # 1bc80 <g_1349>
    c2fe:	48 89 da             	mov    %rbx,%rdx
    c301:	48 89 ce             	mov    %rcx,%rsi
    c304:	48 89 c7             	mov    %rax,%rdi
    c307:	e8 c9 02 00 00       	callq  c5d5 <func_34>
    c30c:	41 89 04 24          	mov    %eax,(%r12)
    c310:	48 c7 05 e5 08 01 00 	movq   $0x0,0x108e5(%rip)        # 1cc00 <g_2072>
    c317:	00 00 00 00 
    c31b:	8b 85 f8 fa ff ff    	mov    -0x508(%rbp),%eax
    c321:	85 c0                	test   %eax,%eax
    c323:	0f b7 9d ee fa ff ff 	movzwl -0x512(%rbp),%ebx
    c32a:	8b 85 0c fb ff ff    	mov    -0x4f4(%rbp),%eax
    c330:	48 98                	cltq   
    c332:	48 89 c7             	mov    %rax,%rdi
    c335:	e8 dc a4 ff ff       	callq  6816 <safe_unary_minus_func_int64_t_s>
    c33a:	48 85 c0             	test   %rax,%rax
    c33d:	0f 85 ae 00 00 00    	jne    c3f1 <func_22+0xab1>
    c343:	48 8b 05 96 f9 00 00 	mov    0xf996(%rip),%rax        # 1bce0 <g_1499>
    c34a:	48 8b 00             	mov    (%rax),%rax
    c34d:	0f b6 00             	movzbl (%rax),%eax
    c350:	44 0f be e0          	movsbl %al,%r12d
    c354:	0f bf 95 dc fa ff ff 	movswl -0x524(%rbp),%edx
    c35b:	8b 85 f4 fa ff ff    	mov    -0x50c(%rbp),%eax
    c361:	85 c0                	test   %eax,%eax
    c363:	75 09                	jne    c36e <func_22+0xa2e>
    c365:	83 bd 00 fb ff ff 00 	cmpl   $0x0,-0x500(%rbp)
    c36c:	74 07                	je     c375 <func_22+0xa35>
    c36e:	b8 01 00 00 00       	mov    $0x1,%eax
    c373:	eb 05                	jmp    c37a <func_22+0xa3a>
    c375:	b8 00 00 00 00       	mov    $0x0,%eax
    c37a:	89 c1                	mov    %eax,%ecx
    c37c:	8b 85 04 fb ff ff    	mov    -0x4fc(%rbp),%eax
    c382:	21 c8                	and    %ecx,%eax
    c384:	98                   	cwtl   
    c385:	89 d6                	mov    %edx,%esi
    c387:	89 c7                	mov    %eax,%edi
    c389:	e8 45 a0 ff ff       	callq  63d3 <safe_sub_func_int16_t_s_s>
    c38e:	48 0f bf c0          	movswq %ax,%rax
    c392:	48 be 54 81 9f 73 82 	movabs $0x714c482739f8154,%rsi
    c399:	c4 14 07 
    c39c:	48 89 c7             	mov    %rax,%rdi
    c39f:	e8 a7 ac ff ff       	callq  704b <safe_sub_func_uint64_t_u_u>
    c3a4:	48 8b 05 d5 f8 00 00 	mov    0xf8d5(%rip),%rax        # 1bc80 <g_1349>
    c3ab:	c7 00 01 00 00 00    	movl   $0x1,(%rax)
    c3b1:	8b 10                	mov    (%rax),%edx
    c3b3:	0f bf 85 dc fa ff ff 	movswl -0x524(%rbp),%eax
    c3ba:	39 c2                	cmp    %eax,%edx
    c3bc:	0f 95 c0             	setne  %al
    c3bf:	0f b6 c0             	movzbl %al,%eax
    c3c2:	44 89 e6             	mov    %r12d,%esi
    c3c5:	89 c7                	mov    %eax,%edi
    c3c7:	e8 c1 a8 ff ff       	callq  6c8d <safe_rshift_func_uint8_t_u_s>
    c3cc:	0f b6 c0             	movzbl %al,%eax
    c3cf:	39 85 00 fb ff ff    	cmp    %eax,-0x500(%rbp)
    c3d5:	0f 94 c0             	sete   %al
    c3d8:	0f b6 d0             	movzbl %al,%edx
    c3db:	8b 85 0c fb ff ff    	mov    -0x4f4(%rbp),%eax
    c3e1:	0f be c0             	movsbl %al,%eax
    c3e4:	89 d6                	mov    %edx,%esi
    c3e6:	89 c7                	mov    %eax,%edi
    c3e8:	e8 25 9e ff ff       	callq  6212 <safe_mul_func_int8_t_s_s>
    c3ed:	84 c0                	test   %al,%al
    c3ef:	74 07                	je     c3f8 <func_22+0xab8>
    c3f1:	b8 01 00 00 00       	mov    $0x1,%eax
    c3f6:	eb 05                	jmp    c3fd <func_22+0xabd>
    c3f8:	b8 00 00 00 00       	mov    $0x0,%eax
    c3fd:	0f b7 c0             	movzwl %ax,%eax
    c400:	89 de                	mov    %ebx,%esi
    c402:	89 c7                	mov    %eax,%edi
    c404:	e8 34 a9 ff ff       	callq  6d3d <safe_mul_func_uint16_t_u_u>
    c409:	48 8b 95 50 fb ff ff 	mov    -0x4b0(%rbp),%rdx
    c410:	48 8b 12             	mov    (%rdx),%rdx
    c413:	0f b7 c0             	movzwl %ax,%eax
    c416:	48 31 c2             	xor    %rax,%rdx
    c419:	48 8b 85 50 fb ff ff 	mov    -0x4b0(%rbp),%rax
    c420:	48 89 10             	mov    %rdx,(%rax)
    c423:	48 8b 85 50 fb ff ff 	mov    -0x4b0(%rbp),%rax
    c42a:	48 8b 10             	mov    (%rax),%rdx
    c42d:	48 0f bf 85 dc fa ff 	movswq -0x524(%rbp),%rax
    c434:	ff 
    c435:	48 39 c2             	cmp    %rax,%rdx
    c438:	0f 92 c0             	setb   %al
    c43b:	0f b6 c0             	movzbl %al,%eax
    c43e:	66 23 85 dc fa ff ff 	and    -0x524(%rbp),%ax
    c445:	98                   	cwtl   
    c446:	be fa ff ff ff       	mov    $0xfffffffa,%esi
    c44b:	89 c7                	mov    %eax,%edi
    c44d:	e8 81 9f ff ff       	callq  63d3 <safe_sub_func_int16_t_s_s>
    c452:	48 8b 05 9f 07 01 00 	mov    0x1079f(%rip),%rax        # 1cbf8 <g_2060>
    c459:	48 89 85 48 fb ff ff 	mov    %rax,-0x4b8(%rbp)
    c460:	48 8d 85 20 fc ff ff 	lea    -0x3e0(%rbp),%rax
    c467:	48 83 c0 30          	add    $0x30,%rax
    c46b:	48 39 85 48 fb ff ff 	cmp    %rax,-0x4b8(%rbp)
    c472:	0f 95 c0             	setne  %al
    c475:	0f b6 c0             	movzbl %al,%eax
    c478:	39 85 0c fb ff ff    	cmp    %eax,-0x4f4(%rbp)
    c47e:	7d 07                	jge    c487 <func_22+0xb47>
    c480:	b8 29 48 7b f8       	mov    $0xf87b4829,%eax
    c485:	eb 05                	jmp    c48c <func_22+0xb4c>
    c487:	b8 28 48 7b f8       	mov    $0xf87b4828,%eax
    c48c:	89 85 04 fb ff ff    	mov    %eax,-0x4fc(%rbp)
    c492:	c7 85 0c fb ff ff 00 	movl   $0x0,-0x4f4(%rbp)
    c499:	00 00 00 
    c49c:	83 bd 0c fb ff ff 02 	cmpl   $0x2,-0x4f4(%rbp)
    c4a3:	0f 8f fc 00 00 00    	jg     c5a5 <func_22+0xc65>
    c4a9:	48 c7 85 58 fb ff ff 	movq   $0x1,-0x4a8(%rbp)
    c4b0:	01 00 00 00 
    c4b4:	c7 85 18 fb ff ff d8 	movl   $0x2e8d1dd8,-0x4e8(%rbp)
    c4bb:	1d 8d 2e 
    c4be:	48 8d 05 7f db 00 00 	lea    0xdb7f(%rip),%rax        # 1a044 <g_104>
    c4c5:	48 89 85 60 fb ff ff 	mov    %rax,-0x4a0(%rbp)
    c4cc:	48 8d 85 f4 fa ff ff 	lea    -0x50c(%rbp),%rax
    c4d3:	48 89 85 68 fb ff ff 	mov    %rax,-0x498(%rbp)
    c4da:	48 8d 85 f8 fa ff ff 	lea    -0x508(%rbp),%rax
    c4e1:	48 89 85 70 fb ff ff 	mov    %rax,-0x490(%rbp)
    c4e8:	48 c7 85 78 fb ff ff 	movq   $0x0,-0x488(%rbp)
    c4ef:	00 00 00 00 
    c4f3:	48 8d 85 f8 fa ff ff 	lea    -0x508(%rbp),%rax
    c4fa:	48 89 85 80 fb ff ff 	mov    %rax,-0x480(%rbp)
    c501:	48 8d 05 74 e8 00 00 	lea    0xe874(%rip),%rax        # 1ad7c <g_1823>
    c508:	48 89 85 88 fb ff ff 	mov    %rax,-0x478(%rbp)
    c50f:	48 8d 85 f8 fa ff ff 	lea    -0x508(%rbp),%rax
    c516:	48 89 85 90 fb ff ff 	mov    %rax,-0x470(%rbp)
    c51d:	48 8d 05 58 e8 00 00 	lea    0xe858(%rip),%rax        # 1ad7c <g_1823>
    c524:	48 89 85 98 fb ff ff 	mov    %rax,-0x468(%rbp)
    c52b:	48 8d 05 12 db 00 00 	lea    0xdb12(%rip),%rax        # 1a044 <g_104>
    c532:	48 89 85 b0 fb ff ff 	mov    %rax,-0x450(%rbp)
    c539:	48 8d 85 f4 fa ff ff 	lea    -0x50c(%rbp),%rax
    c540:	48 89 85 b8 fb ff ff 	mov    %rax,-0x448(%rbp)
    c547:	48 8d 85 f4 fa ff ff 	lea    -0x50c(%rbp),%rax
    c54e:	48 89 85 c0 fb ff ff 	mov    %rax,-0x440(%rbp)
    c555:	48 8d 05 e8 da 00 00 	lea    0xdae8(%rip),%rax        # 1a044 <g_104>
    c55c:	48 89 85 c8 fb ff ff 	mov    %rax,-0x438(%rbp)
    c563:	48 8d 85 f4 fa ff ff 	lea    -0x50c(%rbp),%rax
    c56a:	48 89 85 d0 fb ff ff 	mov    %rax,-0x430(%rbp)
    c571:	48 8d 85 f4 fa ff ff 	lea    -0x50c(%rbp),%rax
    c578:	48 89 85 d8 fb ff ff 	mov    %rax,-0x428(%rbp)
    c57f:	66 c7 85 f2 fa ff ff 	movw   $0x1,-0x50e(%rbp)
    c586:	01 00 
    c588:	c7 85 1c fb ff ff ff 	movl   $0xffffffff,-0x4e4(%rbp)
    c58f:	ff ff ff 
    c592:	83 85 1c fb ff ff 01 	addl   $0x1,-0x4e4(%rbp)
    c599:	48 8b 05 50 ed 00 00 	mov    0xed50(%rip),%rax        # 1b2f0 <g_337>
    c5a0:	0f b6 00             	movzbl (%rax),%eax
    c5a3:	eb 0a                	jmp    c5af <func_22+0xc6f>
    c5a5:	48 8b 05 44 ed 00 00 	mov    0xed44(%rip),%rax        # 1b2f0 <g_337>
    c5ac:	0f b6 00             	movzbl (%rax),%eax
    c5af:	48 8b 5d c8          	mov    -0x38(%rbp),%rbx
    c5b3:	64 48 33 1c 25 28 00 	xor    %fs:0x28,%rbx
    c5ba:	00 00 
    c5bc:	74 05                	je     c5c3 <func_22+0xc83>
    c5be:	e8 ad 9a ff ff       	callq  6070 <__stack_chk_fail@plt>
    c5c3:	48 81 c4 18 05 00 00 	add    $0x518,%rsp
    c5ca:	5b                   	pop    %rbx
    c5cb:	41 5c                	pop    %r12
    c5cd:	41 5d                	pop    %r13
    c5cf:	41 5e                	pop    %r14
    c5d1:	41 5f                	pop    %r15
    c5d3:	5d                   	pop    %rbp
    c5d4:	c3                   	retq   

000000000000c5d5 <func_34>:
    c5d5:	f3 0f 1e fa          	endbr64 
    c5d9:	55                   	push   %rbp
    c5da:	48 89 e5             	mov    %rsp,%rbp
    c5dd:	41 57                	push   %r15
    c5df:	41 56                	push   %r14
    c5e1:	41 55                	push   %r13
    c5e3:	41 54                	push   %r12
    c5e5:	53                   	push   %rbx
    c5e6:	48 81 ec b8 0d 00 00 	sub    $0xdb8,%rsp
    c5ed:	48 89 bd 38 f2 ff ff 	mov    %rdi,-0xdc8(%rbp)
    c5f4:	48 89 b5 30 f2 ff ff 	mov    %rsi,-0xdd0(%rbp)
    c5fb:	48 89 95 28 f2 ff ff 	mov    %rdx,-0xdd8(%rbp)
    c602:	64 48 8b 04 25 28 00 	mov    %fs:0x28,%rax
    c609:	00 00 
    c60b:	48 89 45 c8          	mov    %rax,-0x38(%rbp)
    c60f:	31 c0                	xor    %eax,%eax
    c611:	48 8d 05 b8 ec 00 00 	lea    0xecb8(%rip),%rax        # 1b2d0 <g_211>
    c618:	48 89 85 90 f3 ff ff 	mov    %rax,-0xc70(%rbp)
    c61f:	c7 85 50 f2 ff ff 01 	movl   $0x1,-0xdb0(%rbp)
    c626:	00 00 00 
    c629:	c7 85 54 f2 ff ff 3e 	movl   $0x748ca3e,-0xdac(%rbp)
    c630:	ca 48 07 
    c633:	c7 85 58 f2 ff ff c0 	movl   $0x56f76ec0,-0xda8(%rbp)
    c63a:	6e f7 56 
    c63d:	c7 85 5c f2 ff ff ff 	movl   $0xffffffff,-0xda4(%rbp)
    c644:	ff ff ff 
    c647:	c7 85 60 f2 ff ff 01 	movl   $0x1,-0xda0(%rbp)
    c64e:	00 00 00 
    c651:	48 8d 05 70 ee 00 00 	lea    0xee70(%rip),%rax        # 1b4c8 <g_467+0x128>
    c658:	48 89 85 28 f3 ff ff 	mov    %rax,-0xcd8(%rbp)
    c65f:	c7 85 64 f2 ff ff 02 	movl   $0x2,-0xd9c(%rbp)
    c666:	00 00 00 
    c669:	c7 85 68 f2 ff ff 6d 	movl   $0x2fae316d,-0xd98(%rbp)
    c670:	31 ae 2f 
    c673:	c7 85 6c f2 ff ff 09 	movl   $0x9,-0xd94(%rbp)
    c67a:	00 00 00 
    c67d:	66 c7 85 a0 f5 ff ff 	movw   $0xd959,-0xa60(%rbp)
    c684:	59 d9 
    c686:	66 c7 85 a2 f5 ff ff 	movw   $0xd959,-0xa5e(%rbp)
    c68d:	59 d9 
    c68f:	66 c7 85 a4 f5 ff ff 	movw   $0xd959,-0xa5c(%rbp)
    c696:	59 d9 
    c698:	66 c7 85 a6 f5 ff ff 	movw   $0xd959,-0xa5a(%rbp)
    c69f:	59 d9 
    c6a1:	66 c7 85 a8 f5 ff ff 	movw   $0xd959,-0xa58(%rbp)
    c6a8:	59 d9 
    c6aa:	66 c7 85 aa f5 ff ff 	movw   $0xd959,-0xa56(%rbp)
    c6b1:	59 d9 
    c6b3:	66 c7 85 ac f5 ff ff 	movw   $0xd959,-0xa54(%rbp)
    c6ba:	59 d9 
    c6bc:	66 c7 85 ae f5 ff ff 	movw   $0xd959,-0xa52(%rbp)
    c6c3:	59 d9 
    c6c5:	66 c7 85 b0 f5 ff ff 	movw   $0xd959,-0xa50(%rbp)
    c6cc:	59 d9 
    c6ce:	66 c7 85 b2 f5 ff ff 	movw   $0xd959,-0xa4e(%rbp)
    c6d5:	59 d9 
    c6d7:	66 c7 85 b4 f5 ff ff 	movw   $0xd959,-0xa4c(%rbp)
    c6de:	59 d9 
    c6e0:	66 c7 85 b6 f5 ff ff 	movw   $0xd959,-0xa4a(%rbp)
    c6e7:	59 d9 
    c6e9:	66 c7 85 b8 f5 ff ff 	movw   $0xd959,-0xa48(%rbp)
    c6f0:	59 d9 
    c6f2:	66 c7 85 ba f5 ff ff 	movw   $0xd959,-0xa46(%rbp)
    c6f9:	59 d9 
    c6fb:	66 c7 85 bc f5 ff ff 	movw   $0xd959,-0xa44(%rbp)
    c702:	59 d9 
    c704:	66 c7 85 be f5 ff ff 	movw   $0xd959,-0xa42(%rbp)
    c70b:	59 d9 
    c70d:	66 c7 85 c0 f5 ff ff 	movw   $0xd959,-0xa40(%rbp)
    c714:	59 d9 
    c716:	66 c7 85 c2 f5 ff ff 	movw   $0xd959,-0xa3e(%rbp)
    c71d:	59 d9 
    c71f:	66 c7 85 c4 f5 ff ff 	movw   $0xd959,-0xa3c(%rbp)
    c726:	59 d9 
    c728:	66 c7 85 c6 f5 ff ff 	movw   $0xd959,-0xa3a(%rbp)
    c72f:	59 d9 
    c731:	66 c7 85 c8 f5 ff ff 	movw   $0xd959,-0xa38(%rbp)
    c738:	59 d9 
    c73a:	66 c7 85 ca f5 ff ff 	movw   $0xd959,-0xa36(%rbp)
    c741:	59 d9 
    c743:	66 c7 85 cc f5 ff ff 	movw   $0xd959,-0xa34(%rbp)
    c74a:	59 d9 
    c74c:	66 c7 85 ce f5 ff ff 	movw   $0xd959,-0xa32(%rbp)
    c753:	59 d9 
    c755:	66 c7 85 d0 f5 ff ff 	movw   $0xd959,-0xa30(%rbp)
    c75c:	59 d9 
    c75e:	66 c7 85 d2 f5 ff ff 	movw   $0xd959,-0xa2e(%rbp)
    c765:	59 d9 
    c767:	66 c7 85 d4 f5 ff ff 	movw   $0xd959,-0xa2c(%rbp)
    c76e:	59 d9 
    c770:	66 c7 85 d6 f5 ff ff 	movw   $0xd959,-0xa2a(%rbp)
    c777:	59 d9 
    c779:	66 c7 85 d8 f5 ff ff 	movw   $0xd959,-0xa28(%rbp)
    c780:	59 d9 
    c782:	66 c7 85 da f5 ff ff 	movw   $0xd959,-0xa26(%rbp)
    c789:	59 d9 
    c78b:	66 c7 85 dc f5 ff ff 	movw   $0xd959,-0xa24(%rbp)
    c792:	59 d9 
    c794:	66 c7 85 de f5 ff ff 	movw   $0xd959,-0xa22(%rbp)
    c79b:	59 d9 
    c79d:	66 c7 85 e0 f5 ff ff 	movw   $0xd959,-0xa20(%rbp)
    c7a4:	59 d9 
    c7a6:	66 c7 85 e2 f5 ff ff 	movw   $0xd959,-0xa1e(%rbp)
    c7ad:	59 d9 
    c7af:	66 c7 85 e4 f5 ff ff 	movw   $0xd959,-0xa1c(%rbp)
    c7b6:	59 d9 
    c7b8:	66 c7 85 e6 f5 ff ff 	movw   $0xd959,-0xa1a(%rbp)
    c7bf:	59 d9 
    c7c1:	66 c7 85 e8 f5 ff ff 	movw   $0xd959,-0xa18(%rbp)
    c7c8:	59 d9 
    c7ca:	66 c7 85 ea f5 ff ff 	movw   $0xd959,-0xa16(%rbp)
    c7d1:	59 d9 
    c7d3:	66 c7 85 ec f5 ff ff 	movw   $0xd959,-0xa14(%rbp)
    c7da:	59 d9 
    c7dc:	66 c7 85 ee f5 ff ff 	movw   $0xd959,-0xa12(%rbp)
    c7e3:	59 d9 
    c7e5:	66 c7 85 f0 f5 ff ff 	movw   $0xd959,-0xa10(%rbp)
    c7ec:	59 d9 
    c7ee:	66 c7 85 f2 f5 ff ff 	movw   $0xd959,-0xa0e(%rbp)
    c7f5:	59 d9 
    c7f7:	66 c7 85 f4 f5 ff ff 	movw   $0xd959,-0xa0c(%rbp)
    c7fe:	59 d9 
    c800:	66 c7 85 f6 f5 ff ff 	movw   $0xd959,-0xa0a(%rbp)
    c807:	59 d9 
    c809:	66 c7 85 f8 f5 ff ff 	movw   $0xd959,-0xa08(%rbp)
    c810:	59 d9 
    c812:	66 c7 85 fa f5 ff ff 	movw   $0xd959,-0xa06(%rbp)
    c819:	59 d9 
    c81b:	66 c7 85 fc f5 ff ff 	movw   $0xd959,-0xa04(%rbp)
    c822:	59 d9 
    c824:	66 c7 85 fe f5 ff ff 	movw   $0xd959,-0xa02(%rbp)
    c82b:	59 d9 
    c82d:	66 c7 85 00 f6 ff ff 	movw   $0xd959,-0xa00(%rbp)
    c834:	59 d9 
    c836:	66 c7 85 02 f6 ff ff 	movw   $0xd959,-0x9fe(%rbp)
    c83d:	59 d9 
    c83f:	48 8d 05 7a d8 00 00 	lea    0xd87a(%rip),%rax        # 1a0c0 <g_322>
    c846:	48 89 85 98 f3 ff ff 	mov    %rax,-0xc68(%rbp)
    c84d:	48 8d 05 2c e5 00 00 	lea    0xe52c(%rip),%rax        # 1ad80 <g_1907>
    c854:	48 89 85 30 f3 ff ff 	mov    %rax,-0xcd0(%rbp)
    c85b:	48 8d 85 30 f3 ff ff 	lea    -0xcd0(%rbp),%rax
    c862:	48 89 85 38 f3 ff ff 	mov    %rax,-0xcc8(%rbp)
    c869:	48 8d 85 38 f3 ff ff 	lea    -0xcc8(%rbp),%rax
    c870:	48 89 85 40 f3 ff ff 	mov    %rax,-0xcc0(%rbp)
    c877:	48 8d 85 40 f3 ff ff 	lea    -0xcc0(%rbp),%rax
    c87e:	48 89 85 48 f3 ff ff 	mov    %rax,-0xcb8(%rbp)
    c885:	66 c7 85 4a f2 ff ff 	movw   $0x6da1,-0xdb6(%rbp)
    c88c:	a1 6d 
    c88e:	48 c7 85 a0 f3 ff ff 	movq   $0x0,-0xc60(%rbp)
    c895:	00 00 00 00 
    c899:	66 c7 85 4c f2 ff ff 	movw   $0x1959,-0xdb4(%rbp)
    c8a0:	59 19 
    c8a2:	c7 85 84 f2 ff ff 00 	movl   $0x0,-0xd7c(%rbp)
    c8a9:	00 00 00 
    c8ac:	eb 1e                	jmp    c8cc <func_34+0x2f7>
    c8ae:	8b 85 84 f2 ff ff    	mov    -0xd7c(%rbp),%eax
    c8b4:	48 98                	cltq   
    c8b6:	48 8d 95 48 f3 ff ff 	lea    -0xcb8(%rbp),%rdx
    c8bd:	48 89 94 c5 a0 f4 ff 	mov    %rdx,-0xb60(%rbp,%rax,8)
    c8c4:	ff 
    c8c5:	83 85 84 f2 ff ff 01 	addl   $0x1,-0xd7c(%rbp)
    c8cc:	83 bd 84 f2 ff ff 06 	cmpl   $0x6,-0xd7c(%rbp)
    c8d3:	7e d9                	jle    c8ae <func_34+0x2d9>
    c8d5:	48 8b 05 bc fb 00 00 	mov    0xfbbc(%rip),%rax        # 1c498 <g_1648>
    c8dc:	48 8b 95 90 f3 ff ff 	mov    -0xc70(%rbp),%rdx
    c8e3:	48 89 10             	mov    %rdx,(%rax)
    c8e6:	48 8b 85 28 f2 ff ff 	mov    -0xdd8(%rbp),%rax
    c8ed:	0f b6 c0             	movzbl %al,%eax
    c8f0:	89 c7                	mov    %eax,%edi
    c8f2:	e8 4e a2 ff ff       	callq  6b45 <safe_unary_minus_func_uint8_t_u>
    c8f7:	ba 00 00 00 00       	mov    $0x0,%edx
    c8fc:	8b 85 50 f2 ff ff    	mov    -0xdb0(%rbp),%eax
    c902:	21 d0                	and    %edx,%eax
    c904:	89 85 50 f2 ff ff    	mov    %eax,-0xdb0(%rbp)
    c90a:	8b 8d 50 f2 ff ff    	mov    -0xdb0(%rbp),%ecx
    c910:	48 8b 05 69 f3 00 00 	mov    0xf369(%rip),%rax        # 1bc80 <g_1349>
    c917:	8b 10                	mov    (%rax),%edx
    c919:	48 8b 05 60 f3 00 00 	mov    0xf360(%rip),%rax        # 1bc80 <g_1349>
    c920:	21 ca                	and    %ecx,%edx
    c922:	89 10                	mov    %edx,(%rax)
    c924:	c7 05 37 e4 00 00 00 	movl   $0x0,0xe437(%rip)        # 1ad65 <g_1743+0x5>
    c92b:	00 00 00 
    c92e:	e9 15 24 00 00       	jmpq   ed48 <func_34+0x2773>
    c933:	c7 85 70 f2 ff ff f6 	movl   $0xfffffff6,-0xd90(%rbp)
    c93a:	ff ff ff 
    c93d:	48 8d 05 00 d7 00 00 	lea    0xd700(%rip),%rax        # 1a044 <g_104>
    c944:	48 89 85 50 f3 ff ff 	mov    %rax,-0xcb0(%rbp)
    c94b:	48 8d 85 50 f2 ff ff 	lea    -0xdb0(%rbp),%rax
    c952:	48 89 85 a8 f3 ff ff 	mov    %rax,-0xc58(%rbp)
    c959:	48 8d 85 50 f2 ff ff 	lea    -0xdb0(%rbp),%rax
    c960:	48 89 85 b0 f3 ff ff 	mov    %rax,-0xc50(%rbp)
    c967:	c6 85 49 f2 ff ff 00 	movb   $0x0,-0xdb7(%rbp)
    c96e:	c7 85 94 f2 ff ff af 	movl   $0xb6df99af,-0xd6c(%rbp)
    c975:	99 df b6 
    c978:	c7 85 10 f4 ff ff ff 	movl   $0xffffffff,-0xbf0(%rbp)
    c97f:	ff ff ff 
    c982:	c7 85 14 f4 ff ff ff 	movl   $0xffffffff,-0xbec(%rbp)
    c989:	ff ff ff 
    c98c:	c7 85 18 f4 ff ff ff 	movl   $0xffffffff,-0xbe8(%rbp)
    c993:	ff ff ff 
    c996:	c7 85 1c f4 ff ff ff 	movl   $0xffffffff,-0xbe4(%rbp)
    c99d:	ff ff ff 
    c9a0:	48 8d 05 be d6 00 00 	lea    0xd6be(%rip),%rax        # 1a065 <g_154+0x5>
    c9a7:	48 89 85 20 f5 ff ff 	mov    %rax,-0xae0(%rbp)
    c9ae:	48 8d 05 b4 d6 00 00 	lea    0xd6b4(%rip),%rax        # 1a069 <g_154+0x9>
    c9b5:	48 89 85 28 f5 ff ff 	mov    %rax,-0xad8(%rbp)
    c9bc:	48 8d 05 a2 d6 00 00 	lea    0xd6a2(%rip),%rax        # 1a065 <g_154+0x5>
    c9c3:	48 89 85 30 f5 ff ff 	mov    %rax,-0xad0(%rbp)
    c9ca:	48 8d 05 98 d6 00 00 	lea    0xd698(%rip),%rax        # 1a069 <g_154+0x9>
    c9d1:	48 89 85 38 f5 ff ff 	mov    %rax,-0xac8(%rbp)
    c9d8:	48 8d 05 86 d6 00 00 	lea    0xd686(%rip),%rax        # 1a065 <g_154+0x5>
    c9df:	48 89 85 40 f5 ff ff 	mov    %rax,-0xac0(%rbp)
    c9e6:	48 8d 05 7c d6 00 00 	lea    0xd67c(%rip),%rax        # 1a069 <g_154+0x9>
    c9ed:	48 89 85 48 f5 ff ff 	mov    %rax,-0xab8(%rbp)
    c9f4:	48 8d 05 6a d6 00 00 	lea    0xd66a(%rip),%rax        # 1a065 <g_154+0x5>
    c9fb:	48 89 85 50 f5 ff ff 	mov    %rax,-0xab0(%rbp)
    ca02:	48 8d 05 60 d6 00 00 	lea    0xd660(%rip),%rax        # 1a069 <g_154+0x9>
    ca09:	48 89 85 58 f5 ff ff 	mov    %rax,-0xaa8(%rbp)
    ca10:	48 8d 05 e9 e8 00 00 	lea    0xe8e9(%rip),%rax        # 1b300 <g_405>
    ca17:	48 89 85 58 f3 ff ff 	mov    %rax,-0xca8(%rbp)
    ca1e:	48 8d 85 58 f3 ff ff 	lea    -0xca8(%rbp),%rax
    ca25:	48 89 85 60 f3 ff ff 	mov    %rax,-0xca0(%rbp)
    ca2c:	48 8d 85 70 f4 ff ff 	lea    -0xb90(%rbp),%rax
    ca33:	48 83 c0 18          	add    $0x18,%rax
    ca37:	48 89 85 b8 f3 ff ff 	mov    %rax,-0xc48(%rbp)
    ca3e:	48 8d 05 3b e3 00 00 	lea    0xe33b(%rip),%rax        # 1ad80 <g_1907>
    ca45:	48 89 85 68 f3 ff ff 	mov    %rax,-0xc98(%rbp)
    ca4c:	48 8d 85 68 f3 ff ff 	lea    -0xc98(%rbp),%rax
    ca53:	48 89 85 70 f3 ff ff 	mov    %rax,-0xc90(%rbp)
    ca5a:	48 8d 85 70 f3 ff ff 	lea    -0xc90(%rbp),%rax
    ca61:	48 89 85 78 f3 ff ff 	mov    %rax,-0xc88(%rbp)
    ca68:	48 8d 85 78 f3 ff ff 	lea    -0xc88(%rbp),%rax
    ca6f:	48 89 85 80 f3 ff ff 	mov    %rax,-0xc80(%rbp)
    ca76:	48 8d 85 80 f3 ff ff 	lea    -0xc80(%rbp),%rax
    ca7d:	48 89 85 c0 f3 ff ff 	mov    %rax,-0xc40(%rbp)
    ca84:	48 8d 05 ad d5 00 00 	lea    0xd5ad(%rip),%rax        # 1a038 <g_93>
    ca8b:	48 89 85 e0 f4 ff ff 	mov    %rax,-0xb20(%rbp)
    ca92:	48 8d 05 97 d5 00 00 	lea    0xd597(%rip),%rax        # 1a030 <g_91>
    ca99:	48 89 85 e8 f4 ff ff 	mov    %rax,-0xb18(%rbp)
    caa0:	48 8d 05 91 d5 00 00 	lea    0xd591(%rip),%rax        # 1a038 <g_93>
    caa7:	48 89 85 f0 f4 ff ff 	mov    %rax,-0xb10(%rbp)
    caae:	48 8d 05 7b d5 00 00 	lea    0xd57b(%rip),%rax        # 1a030 <g_91>
    cab5:	48 89 85 f8 f4 ff ff 	mov    %rax,-0xb08(%rbp)
    cabc:	48 8d 05 75 d5 00 00 	lea    0xd575(%rip),%rax        # 1a038 <g_93>
    cac3:	48 89 85 00 f5 ff ff 	mov    %rax,-0xb00(%rbp)
    caca:	48 8d 05 5f d5 00 00 	lea    0xd55f(%rip),%rax        # 1a030 <g_91>
    cad1:	48 89 85 08 f5 ff ff 	mov    %rax,-0xaf8(%rbp)
    cad8:	48 8d 05 59 d5 00 00 	lea    0xd559(%rip),%rax        # 1a038 <g_93>
    cadf:	48 89 85 10 f5 ff ff 	mov    %rax,-0xaf0(%rbp)
    cae6:	48 c7 85 c8 f3 ff ff 	movq   $0x0,-0xc38(%rbp)
    caed:	00 00 00 00 
    caf1:	c7 85 74 f2 ff ff 44 	movl   $0xe8535944,-0xd8c(%rbp)
    caf8:	59 53 e8 
    cafb:	c6 85 48 f2 ff ff 89 	movb   $0x89,-0xdb8(%rbp)
    cb02:	c7 85 80 f2 ff ff 00 	movl   $0x0,-0xd80(%rbp)
    cb09:	00 00 00 
    cb0c:	eb 1b                	jmp    cb29 <func_34+0x554>
    cb0e:	8b 85 80 f2 ff ff    	mov    -0xd80(%rbp),%eax
    cb14:	48 98                	cltq   
    cb16:	48 c7 84 c5 40 f4 ff 	movq   $0x0,-0xbc0(%rbp,%rax,8)
    cb1d:	ff 00 00 00 00 
    cb22:	83 85 80 f2 ff ff 01 	addl   $0x1,-0xd80(%rbp)
    cb29:	83 bd 80 f2 ff ff 04 	cmpl   $0x4,-0xd80(%rbp)
    cb30:	7e dc                	jle    cb0e <func_34+0x539>
    cb32:	c7 85 80 f2 ff ff 00 	movl   $0x0,-0xd80(%rbp)
    cb39:	00 00 00 
    cb3c:	eb 1e                	jmp    cb5c <func_34+0x587>
    cb3e:	8b 85 80 f2 ff ff    	mov    -0xd80(%rbp),%eax
    cb44:	48 98                	cltq   
    cb46:	48 8d 95 60 f3 ff ff 	lea    -0xca0(%rbp),%rdx
    cb4d:	48 89 94 c5 70 f4 ff 	mov    %rdx,-0xb90(%rbp,%rax,8)
    cb54:	ff 
    cb55:	83 85 80 f2 ff ff 01 	addl   $0x1,-0xd80(%rbp)
    cb5c:	83 bd 80 f2 ff ff 04 	cmpl   $0x4,-0xd80(%rbp)
    cb63:	7e d9                	jle    cb3e <func_34+0x569>
    cb65:	83 85 94 f2 ff ff 01 	addl   $0x1,-0xd6c(%rbp)
    cb6c:	48 c7 05 21 d5 00 00 	movq   $0x0,0xd521(%rip)        # 1a098 <g_197>
    cb73:	00 00 00 00 
    cb77:	e9 66 03 00 00       	jmpq   cee2 <func_34+0x90d>
    cb7c:	48 8d 05 15 eb 00 00 	lea    0xeb15(%rip),%rax        # 1b698 <g_467+0x2f8>
    cb83:	48 89 85 08 f4 ff ff 	mov    %rax,-0xbf8(%rbp)
    cb8a:	c7 85 88 f2 ff ff b8 	movl   $0x38d705b8,-0xd78(%rbp)
    cb91:	05 d7 38 
    cb94:	c7 85 c4 f2 ff ff 00 	movl   $0x0,-0xd3c(%rbp)
    cb9b:	00 00 00 
    cb9e:	c7 85 c8 f2 ff ff cd 	movl   $0xcee917cd,-0xd38(%rbp)
    cba5:	17 e9 ce 
    cba8:	c7 85 cc f2 ff ff fc 	movl   $0xfffffffc,-0xd34(%rbp)
    cbaf:	ff ff ff 
    cbb2:	c7 85 d0 f2 ff ff 01 	movl   $0x1,-0xd30(%rbp)
    cbb9:	00 00 00 
    cbbc:	c7 85 d4 f2 ff ff ff 	movl   $0xffffffff,-0xd2c(%rbp)
    cbc3:	ff ff ff 
    cbc6:	c7 85 d8 f2 ff ff ff 	movl   $0xffffffff,-0xd28(%rbp)
    cbcd:	ff ff ff 
    cbd0:	c7 85 dc f2 ff ff 05 	movl   $0x5,-0xd24(%rbp)
    cbd7:	00 00 00 
    cbda:	c7 85 e0 f2 ff ff fb 	movl   $0xfffffffb,-0xd20(%rbp)
    cbe1:	ff ff ff 
    cbe4:	c7 85 e4 f2 ff ff 01 	movl   $0x1,-0xd1c(%rbp)
    cbeb:	00 00 00 
    cbee:	c7 85 e8 f2 ff ff fe 	movl   $0xfffffffe,-0xd18(%rbp)
    cbf5:	ff ff ff 
    cbf8:	c7 85 ec f2 ff ff 04 	movl   $0x4,-0xd14(%rbp)
    cbff:	00 00 00 
    cc02:	c7 85 f0 f2 ff ff f9 	movl   $0xfffffff9,-0xd10(%rbp)
    cc09:	ff ff ff 
    cc0c:	c7 85 f4 f2 ff ff 64 	movl   $0x231b6a64,-0xd0c(%rbp)
    cc13:	6a 1b 23 
    cc16:	c7 85 f8 f2 ff ff a1 	movl   $0x416be8a1,-0xd08(%rbp)
    cc1d:	e8 6b 41 
    cc20:	c7 85 fc f2 ff ff 01 	movl   $0x1,-0xd04(%rbp)
    cc27:	00 00 00 
    cc2a:	c7 05 14 d4 00 00 00 	movl   $0x0,0xd414(%rip)        # 1a048 <g_112>
    cc31:	00 00 00 
    cc34:	e9 90 01 00 00       	jmpq   cdc9 <func_34+0x7f4>
    cc39:	48 8d 85 28 f3 ff ff 	lea    -0xcd8(%rbp),%rax
    cc40:	48 89 85 b0 f6 ff ff 	mov    %rax,-0x950(%rbp)
    cc47:	48 8d 85 28 f3 ff ff 	lea    -0xcd8(%rbp),%rax
    cc4e:	48 89 85 b8 f6 ff ff 	mov    %rax,-0x948(%rbp)
    cc55:	48 8d 85 28 f3 ff ff 	lea    -0xcd8(%rbp),%rax
    cc5c:	48 89 85 c0 f6 ff ff 	mov    %rax,-0x940(%rbp)
    cc63:	48 8d 85 28 f3 ff ff 	lea    -0xcd8(%rbp),%rax
    cc6a:	48 89 85 c8 f6 ff ff 	mov    %rax,-0x938(%rbp)
    cc71:	48 8d 85 28 f3 ff ff 	lea    -0xcd8(%rbp),%rax
    cc78:	48 89 85 d0 f6 ff ff 	mov    %rax,-0x930(%rbp)
    cc7f:	48 8d 85 28 f3 ff ff 	lea    -0xcd8(%rbp),%rax
    cc86:	48 89 85 d8 f6 ff ff 	mov    %rax,-0x928(%rbp)
    cc8d:	48 8d 85 28 f3 ff ff 	lea    -0xcd8(%rbp),%rax
    cc94:	48 89 85 e0 f6 ff ff 	mov    %rax,-0x920(%rbp)
    cc9b:	c7 85 08 f3 ff ff f6 	movl   $0xfffffff6,-0xcf8(%rbp)
    cca2:	ff ff ff 
    cca5:	c7 85 0c f3 ff ff ba 	movl   $0x2bd179ba,-0xcf4(%rbp)
    ccac:	79 d1 2b 
    ccaf:	c7 85 10 f3 ff ff 00 	movl   $0x0,-0xcf0(%rbp)
    ccb6:	00 00 00 
    ccb9:	c7 85 14 f3 ff ff 00 	movl   $0x0,-0xcec(%rbp)
    ccc0:	00 00 00 
    ccc3:	48 8d 85 f0 f7 ff ff 	lea    -0x810(%rbp),%rax
    ccca:	48 8d 15 2f 8e 00 00 	lea    0x8e2f(%rip),%rdx        # 15b00 <g_1623+0xaa8>
    ccd1:	b9 36 00 00 00       	mov    $0x36,%ecx
    ccd6:	48 89 c7             	mov    %rax,%rdi
    ccd9:	48 89 d6             	mov    %rdx,%rsi
    ccdc:	f3 48 a5             	rep movsq %ds:(%rsi),%es:(%rdi)
    ccdf:	48 8b 85 28 f3 ff ff 	mov    -0xcd8(%rbp),%rax
    cce6:	48 89 85 08 f4 ff ff 	mov    %rax,-0xbf8(%rbp)
    cced:	66 c7 05 7e dc 00 00 	movw   $0x0,0xdc7e(%rip)        # 1a974 <g_660>
    ccf4:	00 00 
    ccf6:	e9 90 00 00 00       	jmpq   cd8b <func_34+0x7b6>
    ccfb:	c7 85 18 f3 ff ff a5 	movl   $0xac0488a5,-0xce8(%rbp)
    cd02:	88 04 ac 
    cd05:	c7 85 1c f3 ff ff ff 	movl   $0xffffffff,-0xce4(%rbp)
    cd0c:	ff ff ff 
    cd0f:	c7 85 20 f3 ff ff 46 	movl   $0x9a336e46,-0xce0(%rbp)
    cd16:	6e 33 9a 
    cd19:	c7 85 24 f3 ff ff 27 	movl   $0xbbd43b27,-0xcdc(%rbp)
    cd20:	3b d4 bb 
    cd23:	c7 85 10 f6 ff ff ac 	movl   $0xd91b6aac,-0x9f0(%rbp)
    cd2a:	6a 1b d9 
    cd2d:	c7 85 14 f6 ff ff eb 	movl   $0xa1c7b5eb,-0x9ec(%rbp)
    cd34:	b5 c7 a1 
    cd37:	c7 85 18 f6 ff ff ac 	movl   $0xd91b6aac,-0x9e8(%rbp)
    cd3e:	6a 1b d9 
    cd41:	c7 85 1c f6 ff ff eb 	movl   $0xa1c7b5eb,-0x9e4(%rbp)
    cd48:	b5 c7 a1 
    cd4b:	c7 85 20 f6 ff ff ac 	movl   $0xd91b6aac,-0x9e0(%rbp)
    cd52:	6a 1b d9 
    cd55:	0f b7 85 b4 f5 ff ff 	movzwl -0xa4c(%rbp),%eax
    cd5c:	83 c0 01             	add    $0x1,%eax
    cd5f:	66 89 85 b4 f5 ff ff 	mov    %ax,-0xa4c(%rbp)
    cd66:	48 8b 05 2b d3 00 00 	mov    0xd32b(%rip),%rax        # 1a098 <g_197>
    cd6d:	48 8d 15 f6 db 00 00 	lea    0xdbf6(%rip),%rdx        # 1a96a <g_627>
    cd74:	0f b6 04 10          	movzbl (%rax,%rdx,1),%eax
    cd78:	84 c0                	test   %al,%al
    cd7a:	0f b7 05 f3 db 00 00 	movzwl 0xdbf3(%rip),%eax        # 1a974 <g_660>
    cd81:	83 c0 01             	add    $0x1,%eax
    cd84:	66 89 05 e9 db 00 00 	mov    %ax,0xdbe9(%rip)        # 1a974 <g_660>
    cd8b:	0f b7 05 e2 db 00 00 	movzwl 0xdbe2(%rip),%eax        # 1a974 <g_660>
    cd92:	66 85 c0             	test   %ax,%ax
    cd95:	0f 84 60 ff ff ff    	je     ccfb <func_34+0x726>
    cd9b:	c7 85 10 f3 ff ff 02 	movl   $0x2,-0xcf0(%rbp)
    cda2:	00 00 00 
    cda5:	83 bd 10 f3 ff ff 00 	cmpl   $0x0,-0xcf0(%rbp)
    cdac:	78 0c                	js     cdba <func_34+0x7e5>
    cdae:	48 8b 85 28 f2 ff ff 	mov    -0xdd8(%rbp),%rax
    cdb5:	e9 e8 1f 00 00       	jmpq   eda2 <func_34+0x27cd>
    cdba:	8b 05 88 d2 00 00    	mov    0xd288(%rip),%eax        # 1a048 <g_112>
    cdc0:	83 c0 01             	add    $0x1,%eax
    cdc3:	89 05 7f d2 00 00    	mov    %eax,0xd27f(%rip)        # 1a048 <g_112>
    cdc9:	8b 05 79 d2 00 00    	mov    0xd279(%rip),%eax        # 1a048 <g_112>
    cdcf:	85 c0                	test   %eax,%eax
    cdd1:	0f 8e 62 fe ff ff    	jle    cc39 <func_34+0x664>
    cdd7:	48 8b 85 b0 f3 ff ff 	mov    -0xc50(%rbp),%rax
    cdde:	8b 10                	mov    (%rax),%edx
    cde0:	48 8b 05 c1 c7 00 00 	mov    0xc7c1(%rip),%rax        # 195a8 <l_1875.4494+0x28>
    cde7:	48 8d 0d 8a ee 00 00 	lea    0xee8a(%rip),%rcx        # 1bc78 <g_1308+0x8>
    cdee:	48 39 c8             	cmp    %rcx,%rax
    cdf1:	0f 94 c0             	sete   %al
    cdf4:	0f b6 c0             	movzbl %al,%eax
    cdf7:	09 c2                	or     %eax,%edx
    cdf9:	48 8b 85 a8 f3 ff ff 	mov    -0xc58(%rbp),%rax
    ce00:	89 10                	mov    %edx,(%rax)
    ce02:	66 c7 05 41 d2 00 00 	movw   $0x0,0xd241(%rip)        # 1a04c <g_148>
    ce09:	00 00 
    ce0b:	e9 af 00 00 00       	jmpq   cebf <func_34+0x8ea>
    ce10:	c7 85 88 f2 ff ff 02 	movl   $0x2,-0xd78(%rbp)
    ce17:	00 00 00 
    ce1a:	eb 78                	jmp    ce94 <func_34+0x8bf>
    ce1c:	c7 85 00 f3 ff ff 8c 	movl   $0x6d2a1f8c,-0xd00(%rbp)
    ce23:	1f 2a 6d 
    ce26:	c7 85 04 f3 ff ff 08 	movl   $0x8,-0xcfc(%rbp)
    ce2d:	00 00 00 
    ce30:	83 ad 00 f3 ff ff 01 	subl   $0x1,-0xd00(%rbp)
    ce37:	c7 85 70 f2 ff ff 00 	movl   $0x0,-0xd90(%rbp)
    ce3e:	00 00 00 
    ce41:	90                   	nop
    ce42:	8b 85 70 f2 ff ff    	mov    -0xd90(%rbp),%eax
    ce48:	83 f8 02             	cmp    $0x2,%eax
    ce4b:	7f 40                	jg     ce8d <func_34+0x8b8>
    ce4d:	48 8b 05 9c e4 00 00 	mov    0xe49c(%rip),%rax        # 1b2f0 <g_337>
    ce54:	0f b6 00             	movzbl (%rax),%eax
    ce57:	8b 05 08 df 00 00    	mov    0xdf08(%rip),%eax        # 1ad65 <g_1743+0x5>
    ce5d:	83 c0 01             	add    $0x1,%eax
    ce60:	89 c0                	mov    %eax,%eax
    ce62:	48 8b 84 c5 40 f4 ff 	mov    -0xbc0(%rbp,%rax,8),%rax
    ce69:	ff 
    ce6a:	48 85 c0             	test   %rax,%rax
    ce6d:	74 07                	je     ce76 <func_34+0x8a1>
    ce6f:	b8 61 df fb 70       	mov    $0x70fbdf61,%eax
    ce74:	eb 05                	jmp    ce7b <func_34+0x8a6>
    ce76:	b8 60 df fb 70       	mov    $0x70fbdf60,%eax
    ce7b:	89 85 04 f3 ff ff    	mov    %eax,-0xcfc(%rbp)
    ce81:	48 8b 85 28 f2 ff ff 	mov    -0xdd8(%rbp),%rax
    ce88:	e9 15 1f 00 00       	jmpq   eda2 <func_34+0x27cd>
    ce8d:	83 ad 88 f2 ff ff 01 	subl   $0x1,-0xd78(%rbp)
    ce94:	83 bd 88 f2 ff ff 00 	cmpl   $0x0,-0xd78(%rbp)
    ce9b:	0f 89 7b ff ff ff    	jns    ce1c <func_34+0x847>
    cea1:	48 8b 05 d8 ed 00 00 	mov    0xedd8(%rip),%rax        # 1bc80 <g_1349>
    cea8:	c7 00 10 bd 21 6c    	movl   $0x6c21bd10,(%rax)
    ceae:	0f b7 05 97 d1 00 00 	movzwl 0xd197(%rip),%eax        # 1a04c <g_148>
    ceb5:	83 c0 01             	add    $0x1,%eax
    ceb8:	66 89 05 8d d1 00 00 	mov    %ax,0xd18d(%rip)        # 1a04c <g_148>
    cebf:	0f b7 05 86 d1 00 00 	movzwl 0xd186(%rip),%eax        # 1a04c <g_148>
    cec6:	66 83 f8 04          	cmp    $0x4,%ax
    ceca:	0f 8e 40 ff ff ff    	jle    ce10 <func_34+0x83b>
    ced0:	48 8b 05 c1 d1 00 00 	mov    0xd1c1(%rip),%rax        # 1a098 <g_197>
    ced7:	48 83 c0 01          	add    $0x1,%rax
    cedb:	48 89 05 b6 d1 00 00 	mov    %rax,0xd1b6(%rip)        # 1a098 <g_197>
    cee2:	48 8b 05 af d1 00 00 	mov    0xd1af(%rip),%rax        # 1a098 <g_197>
    cee9:	48 83 f8 02          	cmp    $0x2,%rax
    ceed:	0f 86 89 fc ff ff    	jbe    cb7c <func_34+0x5a7>
    cef3:	8b 85 5c f2 ff ff    	mov    -0xda4(%rbp),%eax
    cef9:	44 0f be e0          	movsbl %al,%r12d
    cefd:	48 8b 85 28 f2 ff ff 	mov    -0xdd8(%rbp),%rax
    cf04:	0f b7 d8             	movzwl %ax,%ebx
    cf07:	48 8b 85 a8 f3 ff ff 	mov    -0xc58(%rbp),%rax
    cf0e:	8b 00                	mov    (%rax),%eax
    cf10:	83 e0 01             	and    $0x1,%eax
    cf13:	89 c2                	mov    %eax,%edx
    cf15:	48 8b 85 a8 f3 ff ff 	mov    -0xc58(%rbp),%rax
    cf1c:	89 10                	mov    %edx,(%rax)
    cf1e:	48 8b 85 a8 f3 ff ff 	mov    -0xc58(%rbp),%rax
    cf25:	8b 00                	mov    (%rax),%eax
    cf27:	0f be c0             	movsbl %al,%eax
    cf2a:	be 03 00 00 00       	mov    $0x3,%esi
    cf2f:	89 c7                	mov    %eax,%edi
    cf31:	e8 ff 93 ff ff       	callq  6335 <safe_rshift_func_int8_t_s_s>
    cf36:	89 c2                	mov    %eax,%edx
    cf38:	48 8b 85 50 f3 ff ff 	mov    -0xcb0(%rbp),%rax
    cf3f:	0f be d2             	movsbl %dl,%edx
    cf42:	89 10                	mov    %edx,(%rax)
    cf44:	8b 00                	mov    (%rax),%eax
    cf46:	89 85 24 f2 ff ff    	mov    %eax,-0xddc(%rbp)
    cf4c:	44 8b 2d 12 de 00 00 	mov    0xde12(%rip),%r13d        # 1ad65 <g_1743+0x5>
    cf53:	48 8b 05 6e e3 00 00 	mov    0xe36e(%rip),%rax        # 1b2c8 <g_137>
    cf5a:	48 8b 00             	mov    (%rax),%rax
    cf5d:	0f b7 00             	movzwl (%rax),%eax
    cf60:	44 0f bf f0          	movswl %ax,%r14d
    cf64:	0f b6 05 09 de 00 00 	movzbl 0xde09(%rip),%eax        # 1ad74 <g_1808+0x4>
    cf6b:	01 c0                	add    %eax,%eax
    cf6d:	c0 f8 04             	sar    $0x4,%al
    cf70:	4c 0f be f8          	movsbq %al,%r15
    cf74:	8b 85 54 f2 ff ff    	mov    -0xdac(%rbp),%eax
    cf7a:	48 63 d0             	movslq %eax,%rdx
    cf7d:	8b 85 6c f2 ff ff    	mov    -0xd94(%rbp),%eax
    cf83:	89 85 6c f2 ff ff    	mov    %eax,-0xd94(%rbp)
    cf89:	0f b6 05 bb da 00 00 	movzbl 0xdabb(%rip),%eax        # 1aa4b <g_1292+0x4b>
    cf90:	83 e0 01             	and    $0x1,%eax
    cf93:	0f b6 c0             	movzbl %al,%eax
    cf96:	48 39 85 28 f2 ff ff 	cmp    %rax,-0xdd8(%rbp)
    cf9d:	0f 94 c0             	sete   %al
    cfa0:	0f b6 f0             	movzbl %al,%esi
    cfa3:	48 8b 05 36 ed 00 00 	mov    0xed36(%rip),%rax        # 1bce0 <g_1499>
    cfaa:	48 8b 00             	mov    (%rax),%rax
    cfad:	0f b6 08             	movzbl (%rax),%ecx
    cfb0:	48 8b 05 29 ed 00 00 	mov    0xed29(%rip),%rax        # 1bce0 <g_1499>
    cfb7:	48 8b 00             	mov    (%rax),%rax
    cfba:	21 f1                	and    %esi,%ecx
    cfbc:	88 08                	mov    %cl,(%rax)
    cfbe:	0f b6 00             	movzbl (%rax),%eax
    cfc1:	48 0f be c0          	movsbq %al,%rax
    cfc5:	48 39 85 28 f2 ff ff 	cmp    %rax,-0xdd8(%rbp)
    cfcc:	0f 97 c0             	seta   %al
    cfcf:	0f b6 c0             	movzbl %al,%eax
    cfd2:	48 89 d6             	mov    %rdx,%rsi
    cfd5:	48 89 c7             	mov    %rax,%rdi
    cfd8:	e8 51 a0 ff ff       	callq  702e <safe_add_func_uint64_t_u_u>
    cfdd:	4c 89 fe             	mov    %r15,%rsi
    cfe0:	48 89 c7             	mov    %rax,%rdi
    cfe3:	e8 cc 99 ff ff       	callq  69b4 <safe_mod_func_int64_t_s_s>
    cfe8:	48 89 c2             	mov    %rax,%rdx
    cfeb:	8b 85 54 f2 ff ff    	mov    -0xdac(%rbp),%eax
    cff1:	48 98                	cltq   
    cff3:	48 89 d6             	mov    %rdx,%rsi
    cff6:	48 89 c7             	mov    %rax,%rdi
    cff9:	e8 aa 98 ff ff       	callq  68a8 <safe_sub_func_int64_t_s_s>
    cffe:	48 3d fe ff 00 00    	cmp    $0xfffe,%rax
    d004:	0f 96 c0             	setbe  %al
    d007:	0f b6 c0             	movzbl %al,%eax
    d00a:	44 89 f6             	mov    %r14d,%esi
    d00d:	89 c7                	mov    %eax,%edi
    d00f:	e8 e1 93 ff ff       	callq  63f5 <safe_mul_func_int16_t_s_s>
    d014:	0f bf d0             	movswl %ax,%edx
    d017:	8b 85 60 f2 ff ff    	mov    -0xda0(%rbp),%eax
    d01d:	09 d0                	or     %edx,%eax
    d01f:	89 85 60 f2 ff ff    	mov    %eax,-0xda0(%rbp)
    d025:	8b 85 60 f2 ff ff    	mov    -0xda0(%rbp),%eax
    d02b:	0f b6 c0             	movzbl %al,%eax
    d02e:	be ff 00 00 00       	mov    $0xff,%esi
    d033:	89 c7                	mov    %eax,%edi
    d035:	e8 a1 9b ff ff       	callq  6bdb <safe_div_func_uint8_t_u_u>
    d03a:	0f b7 05 87 d0 00 00 	movzwl 0xd087(%rip),%eax        # 1a0c8 <g_333>
    d041:	0f bf d0             	movswl %ax,%edx
    d044:	8b 85 5c f2 ff ff    	mov    -0xda4(%rbp),%eax
    d04a:	39 c2                	cmp    %eax,%edx
    d04c:	0f 95 c0             	setne  %al
    d04f:	0f b6 c0             	movzbl %al,%eax
    d052:	48 23 85 28 f2 ff ff 	and    -0xdd8(%rbp),%rax
    d059:	48 89 c2             	mov    %rax,%rdx
    d05c:	8b 05 a2 d8 00 00    	mov    0xd8a2(%rip),%eax        # 1a904 <g_400+0xe4>
    d062:	c1 e0 0e             	shl    $0xe,%eax
    d065:	c1 f8 17             	sar    $0x17,%eax
    d068:	48 0f bf c0          	movswq %ax,%rax
    d06c:	48 39 c2             	cmp    %rax,%rdx
    d06f:	0f 94 c0             	sete   %al
    d072:	0f b6 c0             	movzbl %al,%eax
    d075:	44 89 ee             	mov    %r13d,%esi
    d078:	89 c7                	mov    %eax,%edi
    d07a:	e8 6f 92 ff ff       	callq  62ee <safe_lshift_func_int8_t_s_u>
    d07f:	0f be c0             	movsbl %al,%eax
    d082:	39 85 24 f2 ff ff    	cmp    %eax,-0xddc(%rbp)
    d088:	0f 9f c0             	setg   %al
    d08b:	0f b6 f0             	movzbl %al,%esi
    d08e:	48 8b 05 5b e2 00 00 	mov    0xe25b(%rip),%rax        # 1b2f0 <g_337>
    d095:	0f b6 00             	movzbl (%rax),%eax
    d098:	0f b6 c0             	movzbl %al,%eax
    d09b:	4c 8b 2d 06 f4 00 00 	mov    0xf406(%rip),%r13        # 1c4a8 <g_1897>
    d0a2:	48 8b 95 98 f3 ff ff 	mov    -0xc68(%rbp),%rdx
    d0a9:	49 89 d0             	mov    %rdx,%r8
    d0ac:	44 89 e1             	mov    %r12d,%ecx
    d0af:	89 da                	mov    %ebx,%edx
    d0b1:	89 c7                	mov    %eax,%edi
    d0b3:	e8 10 1d 00 00       	callq  edc8 <func_39>
    d0b8:	49 89 45 00          	mov    %rax,0x0(%r13)
    d0bc:	48 8b 85 b8 f3 ff ff 	mov    -0xc48(%rbp),%rax
    d0c3:	48 89 85 d0 f4 ff ff 	mov    %rax,-0xb30(%rbp)
    d0ca:	48 8b 95 d0 f4 ff ff 	mov    -0xb30(%rbp),%rdx
    d0d1:	48 8b 85 c0 f3 ff ff 	mov    -0xc40(%rbp),%rax
    d0d8:	48 89 05 51 f4 00 00 	mov    %rax,0xf451(%rip)        # 1c530 <g_1913>
    d0df:	48 8b 05 4a f4 00 00 	mov    0xf44a(%rip),%rax        # 1c530 <g_1913>
    d0e6:	48 39 c2             	cmp    %rax,%rdx
    d0e9:	0f 94 c0             	sete   %al
    d0ec:	0f b6 d0             	movzbl %al,%edx
    d0ef:	48 8b 05 f2 eb 00 00 	mov    0xebf2(%rip),%rax        # 1bce8 <g_1524>
    d0f6:	0f b7 00             	movzwl (%rax),%eax
    d0f9:	0f b7 c0             	movzwl %ax,%eax
    d0fc:	39 c2                	cmp    %eax,%edx
    d0fe:	0f 94 c0             	sete   %al
    d101:	44 0f b6 e8          	movzbl %al,%r13d
    d105:	48 8b 85 50 f3 ff ff 	mov    -0xcb0(%rbp),%rax
    d10c:	c7 00 d0 00 00 00    	movl   $0xd0,(%rax)
    d112:	8b 10                	mov    (%rax),%edx
    d114:	48 8b 05 d5 e1 00 00 	mov    0xe1d5(%rip),%rax        # 1b2f0 <g_337>
    d11b:	0f b6 00             	movzbl (%rax),%eax
    d11e:	0f b6 c0             	movzbl %al,%eax
    d121:	89 d6                	mov    %edx,%esi
    d123:	89 c7                	mov    %eax,%edi
    d125:	e8 db 9a ff ff       	callq  6c05 <safe_lshift_func_uint8_t_u_s>
    d12a:	0f b6 c0             	movzbl %al,%eax
    d12d:	89 85 68 f2 ff ff    	mov    %eax,-0xd98(%rbp)
    d133:	8b 85 68 f2 ff ff    	mov    -0xd98(%rbp),%eax
    d139:	48 98                	cltq   
    d13b:	48 39 85 28 f2 ff ff 	cmp    %rax,-0xdd8(%rbp)
    d142:	0f 83 cb 00 00 00    	jae    d213 <func_34+0xc3e>
    d148:	48 8b 05 31 f3 00 00 	mov    0xf331(%rip),%rax        # 1c480 <g_1544>
    d14f:	8b 18                	mov    (%rax),%ebx
    d151:	48 8b 85 28 f2 ff ff 	mov    -0xdd8(%rbp),%rax
    d158:	44 0f b6 e0          	movzbl %al,%r12d
    d15c:	8b 85 58 f2 ff ff    	mov    -0xda8(%rbp),%eax
    d162:	48 98                	cltq   
    d164:	48 39 85 28 f2 ff ff 	cmp    %rax,-0xdd8(%rbp)
    d16b:	0f 97 c0             	seta   %al
    d16e:	44 0f b6 f0          	movzbl %al,%r14d
    d172:	0f b7 05 f5 d8 00 00 	movzwl 0xd8f5(%rip),%eax        # 1aa6e <g_1452+0x6>
    d179:	48 0f bf c0          	movswq %ax,%rax
    d17d:	48 89 c6             	mov    %rax,%rsi
    d180:	48 bf 4e cd ec a2 12 	movabs $0x90d4e612a2eccd4e,%rdi
    d187:	e6 d4 90 
    d18a:	e8 68 98 ff ff       	callq  69f7 <safe_div_func_int64_t_s_s>
    d18f:	48 89 c2             	mov    %rax,%rdx
    d192:	0f b6 05 cb db 00 00 	movzbl 0xdbcb(%rip),%eax        # 1ad64 <g_1743+0x4>
    d199:	01 c0                	add    %eax,%eax
    d19b:	c0 f8 04             	sar    $0x4,%al
    d19e:	48 0f be c0          	movsbq %al,%rax
    d1a2:	48 31 d0             	xor    %rdx,%rax
    d1a5:	49 39 c6             	cmp    %rax,%r14
    d1a8:	0f 95 c0             	setne  %al
    d1ab:	0f b6 c0             	movzbl %al,%eax
    d1ae:	44 89 e6             	mov    %r12d,%esi
    d1b1:	89 c7                	mov    %eax,%edi
    d1b3:	e8 c0 99 ff ff       	callq  6b78 <safe_sub_func_uint8_t_u_u>
    d1b8:	0f b6 d0             	movzbl %al,%edx
    d1bb:	48 8b 05 06 f3 00 00 	mov    0xf306(%rip),%rax        # 1c4c8 <g_1916>
    d1c2:	48 8b 00             	mov    (%rax),%rax
    d1c5:	8b 00                	mov    (%rax),%eax
    d1c7:	39 c2                	cmp    %eax,%edx
    d1c9:	0f 95 c0             	setne  %al
    d1cc:	0f b6 d0             	movzbl %al,%edx
    d1cf:	8b 85 60 f2 ff ff    	mov    -0xda0(%rbp),%eax
    d1d5:	39 c2                	cmp    %eax,%edx
    d1d7:	0f 9f c0             	setg   %al
    d1da:	0f b6 d0             	movzbl %al,%edx
    d1dd:	48 8b 05 9c f2 00 00 	mov    0xf29c(%rip),%rax        # 1c480 <g_1544>
    d1e4:	8b 00                	mov    (%rax),%eax
    d1e6:	31 d0                	xor    %edx,%eax
    d1e8:	89 c0                	mov    %eax,%eax
    d1ea:	48 39 85 28 f2 ff ff 	cmp    %rax,-0xdd8(%rbp)
    d1f1:	0f 97 c0             	seta   %al
    d1f4:	0f b6 c0             	movzbl %al,%eax
    d1f7:	89 de                	mov    %ebx,%esi
    d1f9:	89 c7                	mov    %eax,%edi
    d1fb:	e8 25 9d ff ff       	callq  6f25 <safe_div_func_uint32_t_u_u>
    d200:	85 c0                	test   %eax,%eax
    d202:	74 08                	je     d20c <func_34+0xc37>
    d204:	48 83 bd 28 f2 ff ff 	cmpq   $0x0,-0xdd8(%rbp)
    d20b:	00 
    d20c:	b8 01 00 00 00       	mov    $0x1,%eax
    d211:	eb 05                	jmp    d218 <func_34+0xc43>
    d213:	b8 00 00 00 00       	mov    $0x0,%eax
    d218:	44 39 e8             	cmp    %r13d,%eax
    d21b:	0f 8e 84 02 00 00    	jle    d4a5 <func_34+0xed0>
    d221:	c7 85 98 f2 ff ff 06 	movl   $0x6,-0xd68(%rbp)
    d228:	00 00 00 
    d22b:	48 8d 85 58 f2 ff ff 	lea    -0xda8(%rbp),%rax
    d232:	48 89 85 f0 f7 ff ff 	mov    %rax,-0x810(%rbp)
    d239:	48 8d 85 74 f2 ff ff 	lea    -0xd8c(%rbp),%rax
    d240:	48 89 85 f8 f7 ff ff 	mov    %rax,-0x808(%rbp)
    d247:	48 8d 85 74 f2 ff ff 	lea    -0xd8c(%rbp),%rax
    d24e:	48 89 85 00 f8 ff ff 	mov    %rax,-0x800(%rbp)
    d255:	48 8d 85 58 f2 ff ff 	lea    -0xda8(%rbp),%rax
    d25c:	48 89 85 08 f8 ff ff 	mov    %rax,-0x7f8(%rbp)
    d263:	48 8d 85 74 f2 ff ff 	lea    -0xd8c(%rbp),%rax
    d26a:	48 89 85 10 f8 ff ff 	mov    %rax,-0x7f0(%rbp)
    d271:	48 8d 85 74 f2 ff ff 	lea    -0xd8c(%rbp),%rax
    d278:	48 89 85 18 f8 ff ff 	mov    %rax,-0x7e8(%rbp)
    d27f:	48 8d 85 58 f2 ff ff 	lea    -0xda8(%rbp),%rax
    d286:	48 89 85 20 f8 ff ff 	mov    %rax,-0x7e0(%rbp)
    d28d:	48 8d 85 74 f2 ff ff 	lea    -0xd8c(%rbp),%rax
    d294:	48 89 85 28 f8 ff ff 	mov    %rax,-0x7d8(%rbp)
    d29b:	48 8d 85 74 f2 ff ff 	lea    -0xd8c(%rbp),%rax
    d2a2:	48 89 85 30 f8 ff ff 	mov    %rax,-0x7d0(%rbp)
    d2a9:	44 8b a5 6c f2 ff ff 	mov    -0xd94(%rbp),%r12d
    d2b0:	b8 73 0f 00 00       	mov    $0xf73,%eax
    d2b5:	41 89 c6             	mov    %eax,%r14d
    d2b8:	48 8b 85 50 f3 ff ff 	mov    -0xcb0(%rbp),%rax
    d2bf:	8b 00                	mov    (%rax),%eax
    d2c1:	48 63 d8             	movslq %eax,%rbx
    d2c4:	48 8b 05 95 e9 00 00 	mov    0xe995(%rip),%rax        # 1bc60 <g_1218>
    d2cb:	48 8b 00             	mov    (%rax),%rax
    d2ce:	0f b7 00             	movzwl (%rax),%eax
    d2d1:	98                   	cwtl   
    d2d2:	48 8b 95 28 f2 ff ff 	mov    -0xdd8(%rbp),%rdx
    d2d9:	09 c2                	or     %eax,%edx
    d2db:	48 8b 85 38 f2 ff ff 	mov    -0xdc8(%rbp),%rax
    d2e2:	89 10                	mov    %edx,(%rax)
    d2e4:	48 8b 85 38 f2 ff ff 	mov    -0xdc8(%rbp),%rax
    d2eb:	44 8b 28             	mov    (%rax),%r13d
    d2ee:	48 8b 85 28 f2 ff ff 	mov    -0xdd8(%rbp),%rax
    d2f5:	41 89 c7             	mov    %eax,%r15d
    d2f8:	48 8b 05 a9 cd 00 00 	mov    0xcda9(%rip),%rax        # 1a0a8 <g_205>
    d2ff:	0f b6 c0             	movzbl %al,%eax
    d302:	be 07 00 00 00       	mov    $0x7,%esi
    d307:	89 c7                	mov    %eax,%edi
    d309:	e8 b0 99 ff ff       	callq  6cbe <safe_rshift_func_uint8_t_u_u>
    d30e:	0f b6 c0             	movzbl %al,%eax
    d311:	48 89 c7             	mov    %rax,%rdi
    d314:	e8 fd 94 ff ff       	callq  6816 <safe_unary_minus_func_int64_t_s>
    d319:	98                   	cwtl   
    d31a:	be 02 00 00 00       	mov    $0x2,%esi
    d31f:	89 c7                	mov    %eax,%edi
    d321:	e8 04 92 ff ff       	callq  652a <safe_rshift_func_int16_t_s_s>
    d326:	48 0f bf c0          	movswq %ax,%rax
    d32a:	48 c7 c6 f6 ff ff ff 	mov    $0xfffffffffffffff6,%rsi
    d331:	48 89 c7             	mov    %rax,%rdi
    d334:	e8 12 9d ff ff       	callq  704b <safe_sub_func_uint64_t_u_u>
    d339:	48 8b 85 c8 f3 ff ff 	mov    -0xc38(%rbp),%rax
    d340:	0f b7 c0             	movzwl %ax,%eax
    d343:	be 06 00 00 00       	mov    $0x6,%esi
    d348:	89 c7                	mov    %eax,%edi
    d34a:	e8 6f 9a ff ff       	callq  6dbe <safe_lshift_func_uint16_t_u_s>
    d34f:	48 8b 05 4a f8 00 00 	mov    0xf84a(%rip),%rax        # 1cba0 <g_1525>
    d356:	48 8b 00             	mov    (%rax),%rax
    d359:	66 c7 00 00 00       	movw   $0x0,(%rax)
    d35e:	0f b7 00             	movzwl (%rax),%eax
    d361:	66 85 c0             	test   %ax,%ax
    d364:	75 0c                	jne    d372 <func_34+0xd9d>
    d366:	0f b7 05 5b da 00 00 	movzwl 0xda5b(%rip),%eax        # 1adc8 <g_1957+0x28>
    d36d:	66 85 c0             	test   %ax,%ax
    d370:	74 07                	je     d379 <func_34+0xda4>
    d372:	b8 01 00 00 00       	mov    $0x1,%eax
    d377:	eb 05                	jmp    d37e <func_34+0xda9>
    d379:	b8 00 00 00 00       	mov    $0x0,%eax
    d37e:	3b 85 98 f2 ff ff    	cmp    -0xd68(%rbp),%eax
    d384:	0f 9e c0             	setle  %al
    d387:	0f b6 d0             	movzbl %al,%edx
    d38a:	8b 05 00 da 00 00    	mov    0xda00(%rip),%eax        # 1ad90 <g_1935+0x8>
    d390:	c1 e0 0e             	shl    $0xe,%eax
    d393:	c1 f8 17             	sar    $0x17,%eax
    d396:	98                   	cwtl   
    d397:	21 d0                	and    %edx,%eax
    d399:	89 c6                	mov    %eax,%esi
    d39b:	bf 00 00 00 00       	mov    $0x0,%edi
    d3a0:	e8 ed 90 ff ff       	callq  6492 <safe_lshift_func_int16_t_s_s>
    d3a5:	98                   	cwtl   
    d3a6:	44 89 fe             	mov    %r15d,%esi
    d3a9:	89 c7                	mov    %eax,%edi
    d3ab:	e8 55 92 ff ff       	callq  6605 <safe_sub_func_int32_t_s_s>
    d3b0:	41 39 c5             	cmp    %eax,%r13d
    d3b3:	0f 93 c0             	setae  %al
    d3b6:	0f b6 c0             	movzbl %al,%eax
    d3b9:	48 89 de             	mov    %rbx,%rsi
    d3bc:	48 89 c7             	mov    %rax,%rdi
    d3bf:	e8 e4 94 ff ff       	callq  68a8 <safe_sub_func_int64_t_s_s>
    d3c4:	98                   	cwtl   
    d3c5:	be 08 00 00 00       	mov    $0x8,%esi
    d3ca:	89 c7                	mov    %eax,%edi
    d3cc:	e8 92 91 ff ff       	callq  6563 <safe_rshift_func_int16_t_s_u>
    d3d1:	48 0f bf c0          	movswq %ax,%rax
    d3d5:	48 23 85 28 f2 ff ff 	and    -0xdd8(%rbp),%rax
    d3dc:	48 83 f8 f5          	cmp    $0xfffffffffffffff5,%rax
    d3e0:	0f 97 c0             	seta   %al
    d3e3:	0f b6 c0             	movzbl %al,%eax
    d3e6:	44 89 f6             	mov    %r14d,%esi
    d3e9:	89 c7                	mov    %eax,%edi
    d3eb:	e8 ce 98 ff ff       	callq  6cbe <safe_rshift_func_uint8_t_u_u>
    d3f0:	48 8b 05 e9 e8 00 00 	mov    0xe8e9(%rip),%rax        # 1bce0 <g_1499>
    d3f7:	48 8b 18             	mov    (%rax),%rbx
    d3fa:	44 89 e6             	mov    %r12d,%esi
    d3fd:	bf 33 00 00 00       	mov    $0x33,%edi
    d402:	e8 2e 8f ff ff       	callq  6335 <safe_rshift_func_int8_t_s_s>
    d407:	88 03                	mov    %al,(%rbx)
    d409:	0f b6 03             	movzbl (%rbx),%eax
    d40c:	0f be c0             	movsbl %al,%eax
    d40f:	be 03 00 00 00       	mov    $0x3,%esi
    d414:	89 c7                	mov    %eax,%edi
    d416:	e8 1a 8f ff ff       	callq  6335 <safe_rshift_func_int8_t_s_s>
    d41b:	84 c0                	test   %al,%al
    d41d:	75 0a                	jne    d429 <func_34+0xe54>
    d41f:	48 83 bd 28 f2 ff ff 	cmpq   $0x0,-0xdd8(%rbp)
    d426:	00 
    d427:	74 07                	je     d430 <func_34+0xe5b>
    d429:	b8 01 00 00 00       	mov    $0x1,%eax
    d42e:	eb 05                	jmp    d435 <func_34+0xe60>
    d430:	b8 00 00 00 00       	mov    $0x0,%eax
    d435:	0f be c0             	movsbl %al,%eax
    d438:	be f7 ff ff ff       	mov    $0xfffffff7,%esi
    d43d:	89 c7                	mov    %eax,%edi
    d43f:	e8 ae 8d ff ff       	callq  61f2 <safe_sub_func_int8_t_s_s>
    d444:	0f be d0             	movsbl %al,%edx
    d447:	48 8b 85 b0 f3 ff ff 	mov    -0xc50(%rbp),%rax
    d44e:	89 10                	mov    %edx,(%rax)
    d450:	48 8b 85 30 f2 ff ff 	mov    -0xdd0(%rbp),%rax
    d457:	48 89 85 08 f8 ff ff 	mov    %rax,-0x7f8(%rbp)
    d45e:	48 c7 05 c7 cb 00 00 	movq   $0x0,0xcbc7(%rip)        # 1a030 <g_91>
    d465:	00 00 00 00 
    d469:	eb 28                	jmp    d493 <func_34+0xebe>
    d46b:	48 8b 05 be cb 00 00 	mov    0xcbbe(%rip),%rax        # 1a030 <g_91>
    d472:	48 8d 95 48 f3 ff ff 	lea    -0xcb8(%rbp),%rdx
    d479:	48 89 94 c5 a0 f4 ff 	mov    %rdx,-0xb60(%rbp,%rax,8)
    d480:	ff 
    d481:	48 8b 05 a8 cb 00 00 	mov    0xcba8(%rip),%rax        # 1a030 <g_91>
    d488:	48 83 c0 01          	add    $0x1,%rax
    d48c:	48 89 05 9d cb 00 00 	mov    %rax,0xcb9d(%rip)        # 1a030 <g_91>
    d493:	48 8b 05 96 cb 00 00 	mov    0xcb96(%rip),%rax        # 1a030 <g_91>
    d49a:	48 83 f8 06          	cmp    $0x6,%rax
    d49e:	7e cb                	jle    d46b <func_34+0xe96>
    d4a0:	e9 aa 00 00 00       	jmpq   d54f <func_34+0xf7a>
    d4a5:	48 8d 85 f0 f7 ff ff 	lea    -0x810(%rbp),%rax
    d4ac:	48 8d 15 0d 88 00 00 	lea    0x880d(%rip),%rdx        # 15cc0 <g_1623+0xc68>
    d4b3:	b9 69 00 00 00       	mov    $0x69,%ecx
    d4b8:	48 89 c7             	mov    %rax,%rdi
    d4bb:	48 89 d6             	mov    %rdx,%rsi
    d4be:	f3 48 a5             	rep movsq %ds:(%rsi),%es:(%rdi)
    d4c1:	0f b6 05 83 d5 00 00 	movzbl 0xd583(%rip),%eax        # 1aa4b <g_1292+0x4b>
    d4c8:	83 e0 01             	and    $0x1,%eax
    d4cb:	0f b6 d0             	movzbl %al,%edx
    d4ce:	c7 85 dc fa ff ff 7b 	movl   $0x7b,-0x524(%rbp)
    d4d5:	00 00 00 
    d4d8:	48 8b 05 09 e8 00 00 	mov    0xe809(%rip),%rax        # 1bce8 <g_1524>
    d4df:	0f b7 00             	movzwl (%rax),%eax
    d4e2:	66 83 f8 01          	cmp    $0x1,%ax
    d4e6:	0f 94 c0             	sete   %al
    d4e9:	89 c1                	mov    %eax,%ecx
    d4eb:	48 8b 85 a8 f3 ff ff 	mov    -0xc58(%rbp),%rax
    d4f2:	8b 00                	mov    (%rax),%eax
    d4f4:	83 f8 01             	cmp    $0x1,%eax
    d4f7:	0f 9f c0             	setg   %al
    d4fa:	31 c8                	xor    %ecx,%eax
    d4fc:	0f b6 c0             	movzbl %al,%eax
    d4ff:	89 d6                	mov    %edx,%esi
    d501:	89 c7                	mov    %eax,%edi
    d503:	e8 52 96 ff ff       	callq  6b5a <safe_add_func_uint8_t_u_u>
    d508:	48 8b 05 11 de 00 00 	mov    0xde11(%rip),%rax        # 1b320 <g_416>
    d50f:	48 8b 00             	mov    (%rax),%rax
    d512:	48 8b 00             	mov    (%rax),%rax
    d515:	be 01 00 00 00       	mov    $0x1,%esi
    d51a:	48 89 c7             	mov    %rax,%rdi
    d51d:	e8 86 93 ff ff       	callq  68a8 <safe_sub_func_int64_t_s_s>
    d522:	48 89 c2             	mov    %rax,%rdx
    d525:	0f b6 05 60 d8 00 00 	movzbl 0xd860(%rip),%eax        # 1ad8c <g_1935+0x4>
    d52c:	01 c0                	add    %eax,%eax
    d52e:	c0 f8 04             	sar    $0x4,%al
    d531:	48 0f be c0          	movsbq %al,%rax
    d535:	48 31 c2             	xor    %rax,%rdx
    d538:	8b 85 50 f2 ff ff    	mov    -0xdb0(%rbp),%eax
    d53e:	48 98                	cltq   
    d540:	48 39 c2             	cmp    %rax,%rdx
    d543:	0f 9c c0             	setl   %al
    d546:	0f b6 c0             	movzbl %al,%eax
    d549:	89 85 6c f2 ff ff    	mov    %eax,-0xd94(%rbp)
    d54f:	48 c7 05 d6 ca 00 00 	movq   $0x0,0xcad6(%rip)        # 1a030 <g_91>
    d556:	00 00 00 00 
    d55a:	90                   	nop
    d55b:	48 8b 05 ce ca 00 00 	mov    0xcace(%rip),%rax        # 1a030 <g_91>
    d562:	48 85 c0             	test   %rax,%rax
    d565:	0f 8f ce 17 00 00    	jg     ed39 <func_34+0x2764>
    d56b:	c7 85 78 f2 ff ff ff 	movl   $0xffffffff,-0xd88(%rbp)
    d572:	ff ff ff 
    d575:	c7 85 9c f2 ff ff 68 	movl   $0x6e2a3268,-0xd64(%rbp)
    d57c:	32 2a 6e 
    d57f:	48 b8 92 71 c2 ea 28 	movabs $0x9c655728eac27192,%rax
    d586:	57 65 9c 
    d589:	48 89 85 88 f3 ff ff 	mov    %rax,-0xc78(%rbp)
    d590:	c7 85 a0 f2 ff ff 77 	movl   $0x9fab0277,-0xd60(%rbp)
    d597:	02 ab 9f 
    d59a:	c7 85 8c f2 ff ff 00 	movl   $0x0,-0xd74(%rbp)
    d5a1:	00 00 00 
    d5a4:	eb 1a                	jmp    d5c0 <func_34+0xfeb>
    d5a6:	8b 85 8c f2 ff ff    	mov    -0xd74(%rbp),%eax
    d5ac:	48 98                	cltq   
    d5ae:	c7 84 85 20 f4 ff ff 	movl   $0xfffffff8,-0xbe0(%rbp,%rax,4)
    d5b5:	f8 ff ff ff 
    d5b9:	83 85 8c f2 ff ff 01 	addl   $0x1,-0xd74(%rbp)
    d5c0:	83 bd 8c f2 ff ff 06 	cmpl   $0x6,-0xd74(%rbp)
    d5c7:	7e dd                	jle    d5a6 <func_34+0xfd1>
    d5c9:	c7 85 8c f2 ff ff 00 	movl   $0x0,-0xd74(%rbp)
    d5d0:	00 00 00 
    d5d3:	eb 1e                	jmp    d5f3 <func_34+0x101e>
    d5d5:	8b 85 8c f2 ff ff    	mov    -0xd74(%rbp),%eax
    d5db:	48 98                	cltq   
    d5dd:	48 8d 15 54 ca 00 00 	lea    0xca54(%rip),%rdx        # 1a038 <g_93>
    d5e4:	48 89 94 c5 60 f5 ff 	mov    %rdx,-0xaa0(%rbp,%rax,8)
    d5eb:	ff 
    d5ec:	83 85 8c f2 ff ff 01 	addl   $0x1,-0xd74(%rbp)
    d5f3:	83 bd 8c f2 ff ff 07 	cmpl   $0x7,-0xd74(%rbp)
    d5fa:	7e d9                	jle    d5d5 <func_34+0x1000>
    d5fc:	c6 05 85 f5 00 00 02 	movb   $0x2,0xf585(%rip)        # 1cb88 <g_324>
    d603:	e9 6b 13 00 00       	jmpq   e973 <func_34+0x239e>
    d608:	48 8d 05 66 d7 00 00 	lea    0xd766(%rip),%rax        # 1ad75 <g_1808+0x5>
    d60f:	48 89 85 d0 f3 ff ff 	mov    %rax,-0xc30(%rbp)
    d616:	48 b8 39 df cf 39 73 	movabs $0xd2fd477339cfdf39,%rax
    d61d:	47 fd d2 
    d620:	48 89 85 d8 f3 ff ff 	mov    %rax,-0xc28(%rbp)
    d627:	c7 85 7c f2 ff ff 09 	movl   $0x9,-0xd84(%rbp)
    d62e:	00 00 00 
    d631:	c7 85 a4 f2 ff ff 00 	movl   $0x0,-0xd5c(%rbp)
    d638:	00 00 00 
    d63b:	c7 85 a8 f2 ff ff fb 	movl   $0xfffffffb,-0xd58(%rbp)
    d642:	ff ff ff 
    d645:	48 8d 85 b0 f6 ff ff 	lea    -0x950(%rbp),%rax
    d64c:	48 8d 15 cd 89 00 00 	lea    0x89cd(%rip),%rdx        # 16020 <g_1623+0xfc8>
    d653:	b9 28 00 00 00       	mov    $0x28,%ecx
    d658:	48 89 c7             	mov    %rax,%rdi
    d65b:	48 89 d6             	mov    %rdx,%rsi
    d65e:	f3 48 a5             	rep movsq %ds:(%rsi),%es:(%rdi)
    d661:	8b 05 29 d3 00 00    	mov    0xd329(%rip),%eax        # 1a990 <g_772>
    d667:	25 ff ff ff 01       	and    $0x1ffffff,%eax
    d66c:	0f be d8             	movsbl %al,%ebx
    d66f:	48 8b 85 28 f2 ff ff 	mov    -0xdd8(%rbp),%rax
    d676:	44 0f bf e0          	movswl %ax,%r12d
    d67a:	48 8b 85 d0 f3 ff ff 	mov    -0xc30(%rbp),%rax
    d681:	8b 00                	mov    (%rax),%eax
    d683:	35 65 c3 64 ab       	xor    $0xab64c365,%eax
    d688:	89 c2                	mov    %eax,%edx
    d68a:	48 8b 85 d0 f3 ff ff 	mov    -0xc30(%rbp),%rax
    d691:	89 10                	mov    %edx,(%rax)
    d693:	48 8b 05 06 f5 00 00 	mov    0xf506(%rip),%rax        # 1cba0 <g_1525>
    d69a:	48 8d 95 4a f2 ff ff 	lea    -0xdb6(%rbp),%rdx
    d6a1:	48 89 10             	mov    %rdx,(%rax)
    d6a4:	48 8b 10             	mov    (%rax),%rdx
    d6a7:	48 8d 85 4a f2 ff ff 	lea    -0xdb6(%rbp),%rax
    d6ae:	48 39 c2             	cmp    %rax,%rdx
    d6b1:	0f 95 c0             	setne  %al
    d6b4:	0f b6 c0             	movzbl %al,%eax
    d6b7:	48 be 07 8a dd b8 82 	movabs $0xf9f1d782b8dd8a07,%rsi
    d6be:	d7 f1 f9 
    d6c1:	48 89 c7             	mov    %rax,%rdi
    d6c4:	e8 82 99 ff ff       	callq  704b <safe_sub_func_uint64_t_u_u>
    d6c9:	be 07 00 00 00       	mov    $0x7,%esi
    d6ce:	48 89 c7             	mov    %rax,%rdi
    d6d1:	e8 d2 91 ff ff       	callq  68a8 <safe_sub_func_int64_t_s_s>
    d6d6:	48 8b 05 13 dc 00 00 	mov    0xdc13(%rip),%rax        # 1b2f0 <g_337>
    d6dd:	0f b6 00             	movzbl (%rax),%eax
    d6e0:	48 81 bd 28 f2 ff ff 	cmpq   $0x18df5784,-0xdd8(%rbp)
    d6e7:	84 57 df 18 
    d6eb:	44 89 e6             	mov    %r12d,%esi
    d6ee:	bf 00 00 00 00       	mov    $0x0,%edi
    d6f3:	e8 bb 8c ff ff       	callq  63b3 <safe_add_func_int16_t_s_s>
    d6f8:	0f bf d0             	movswl %ax,%edx
    d6fb:	8b 85 78 f2 ff ff    	mov    -0xd88(%rbp),%eax
    d701:	39 c2                	cmp    %eax,%edx
    d703:	75 11                	jne    d716 <func_34+0x1141>
    d705:	48 8b 05 d4 e5 00 00 	mov    0xe5d4(%rip),%rax        # 1bce0 <g_1499>
    d70c:	48 8b 00             	mov    (%rax),%rax
    d70f:	0f b6 00             	movzbl (%rax),%eax
    d712:	84 c0                	test   %al,%al
    d714:	74 07                	je     d71d <func_34+0x1148>
    d716:	b8 01 00 00 00       	mov    $0x1,%eax
    d71b:	eb 05                	jmp    d722 <func_34+0x114d>
    d71d:	b8 00 00 00 00       	mov    $0x0,%eax
    d722:	98                   	cwtl   
    d723:	89 c7                	mov    %eax,%edi
    d725:	e8 73 8c ff ff       	callq  639d <safe_unary_minus_func_int16_t_s>
    d72a:	48 83 bd 28 f2 ff ff 	cmpq   $0x0,-0xdd8(%rbp)
    d731:	00 
    d732:	75 0a                	jne    d73e <func_34+0x1169>
    d734:	48 83 bd 28 f2 ff ff 	cmpq   $0x0,-0xdd8(%rbp)
    d73b:	00 
    d73c:	74 07                	je     d745 <func_34+0x1170>
    d73e:	b8 01 00 00 00       	mov    $0x1,%eax
    d743:	eb 05                	jmp    d74a <func_34+0x1175>
    d745:	b8 00 00 00 00       	mov    $0x0,%eax
    d74a:	83 f8 01             	cmp    $0x1,%eax
    d74d:	48 8b 05 ec ed 00 00 	mov    0xedec(%rip),%rax        # 1c540 <g_1982>
    d754:	48 39 85 a0 f3 ff ff 	cmp    %rax,-0xc60(%rbp)
    d75b:	0f 94 c0             	sete   %al
    d75e:	0f b6 d0             	movzbl %al,%edx
    d761:	8b 85 34 f4 ff ff    	mov    -0xbcc(%rbp),%eax
    d767:	21 d0                	and    %edx,%eax
    d769:	89 85 34 f4 ff ff    	mov    %eax,-0xbcc(%rbp)
    d76f:	8b 85 34 f4 ff ff    	mov    -0xbcc(%rbp),%eax
    d775:	0f be c0             	movsbl %al,%eax
    d778:	89 de                	mov    %ebx,%esi
    d77a:	89 c7                	mov    %eax,%edi
    d77c:	e8 91 8a ff ff       	callq  6212 <safe_mul_func_int8_t_s_s>
    d781:	66 98                	cbtw   
    d783:	0f b7 c0             	movzwl %ax,%eax
    d786:	89 c6                	mov    %eax,%esi
    d788:	bf fa ff 00 00       	mov    $0xfffa,%edi
    d78d:	e8 6d 95 ff ff       	callq  6cff <safe_add_func_uint16_t_u_u>
    d792:	66 85 c0             	test   %ax,%ax
    d795:	74 41                	je     d7d8 <func_34+0x1203>
    d797:	48 c7 85 e8 f3 ff ff 	movq   $0xffffffffffffffff,-0xc18(%rbp)
    d79e:	ff ff ff ff 
    d7a2:	c7 85 b0 f2 ff ff ff 	movl   $0xffffffff,-0xd50(%rbp)
    d7a9:	ff ff ff 
    d7ac:	48 83 bd 28 f2 ff ff 	cmpq   $0x0,-0xdd8(%rbp)
    d7b3:	00 
    d7b4:	0f 85 ca 11 00 00    	jne    e984 <func_34+0x23af>
    d7ba:	48 8b 85 e8 f3 ff ff 	mov    -0xc18(%rbp),%rax
    d7c1:	89 85 7c f2 ff ff    	mov    %eax,-0xd84(%rbp)
    d7c7:	8b 85 7c f2 ff ff    	mov    -0xd84(%rbp),%eax
    d7cd:	89 85 b0 f2 ff ff    	mov    %eax,-0xd50(%rbp)
    d7d3:	e9 5d 11 00 00       	jmpq   e935 <func_34+0x2360>
    d7d8:	48 8d 85 64 f2 ff ff 	lea    -0xd9c(%rbp),%rax
    d7df:	48 89 85 f0 f7 ff ff 	mov    %rax,-0x810(%rbp)
    d7e6:	48 8d 05 8f d5 00 00 	lea    0xd58f(%rip),%rax        # 1ad7c <g_1823>
    d7ed:	48 89 85 f8 f7 ff ff 	mov    %rax,-0x808(%rbp)
    d7f4:	48 c7 85 00 f8 ff ff 	movq   $0x0,-0x800(%rbp)
    d7fb:	00 00 00 00 
    d7ff:	48 8d 05 76 d5 00 00 	lea    0xd576(%rip),%rax        # 1ad7c <g_1823>
    d806:	48 89 85 08 f8 ff ff 	mov    %rax,-0x7f8(%rbp)
    d80d:	48 8d 85 64 f2 ff ff 	lea    -0xd9c(%rbp),%rax
    d814:	48 89 85 10 f8 ff ff 	mov    %rax,-0x7f0(%rbp)
    d81b:	48 8d 05 5a d5 00 00 	lea    0xd55a(%rip),%rax        # 1ad7c <g_1823>
    d822:	48 89 85 18 f8 ff ff 	mov    %rax,-0x7e8(%rbp)
    d829:	48 8d 05 4c d5 00 00 	lea    0xd54c(%rip),%rax        # 1ad7c <g_1823>
    d830:	48 89 85 20 f8 ff ff 	mov    %rax,-0x7e0(%rbp)
    d837:	48 c7 85 28 f8 ff ff 	movq   $0x0,-0x7d8(%rbp)
    d83e:	00 00 00 00 
    d842:	48 8d 85 78 f2 ff ff 	lea    -0xd88(%rbp),%rax
    d849:	48 89 85 30 f8 ff ff 	mov    %rax,-0x7d0(%rbp)
    d850:	48 8d 85 58 f2 ff ff 	lea    -0xda8(%rbp),%rax
    d857:	48 89 85 38 f8 ff ff 	mov    %rax,-0x7c8(%rbp)
    d85e:	48 8d 85 64 f2 ff ff 	lea    -0xd9c(%rbp),%rax
    d865:	48 89 85 40 f8 ff ff 	mov    %rax,-0x7c0(%rbp)
    d86c:	48 8d 05 d1 c7 00 00 	lea    0xc7d1(%rip),%rax        # 1a044 <g_104>
    d873:	48 89 85 48 f8 ff ff 	mov    %rax,-0x7b8(%rbp)
    d87a:	48 8d 85 78 f2 ff ff 	lea    -0xd88(%rbp),%rax
    d881:	48 89 85 50 f8 ff ff 	mov    %rax,-0x7b0(%rbp)
    d888:	48 8d 85 20 f4 ff ff 	lea    -0xbe0(%rbp),%rax
    d88f:	48 83 c0 0c          	add    $0xc,%rax
    d893:	48 89 85 58 f8 ff ff 	mov    %rax,-0x7a8(%rbp)
    d89a:	48 8d 85 70 f2 ff ff 	lea    -0xd90(%rbp),%rax
    d8a1:	48 89 85 60 f8 ff ff 	mov    %rax,-0x7a0(%rbp)
    d8a8:	48 8d 85 60 f2 ff ff 	lea    -0xda0(%rbp),%rax
    d8af:	48 89 85 68 f8 ff ff 	mov    %rax,-0x798(%rbp)
    d8b6:	48 c7 85 70 f8 ff ff 	movq   $0x0,-0x790(%rbp)
    d8bd:	00 00 00 00 
    d8c1:	48 8d 85 64 f2 ff ff 	lea    -0xd9c(%rbp),%rax
    d8c8:	48 89 85 78 f8 ff ff 	mov    %rax,-0x788(%rbp)
    d8cf:	48 8d 05 a6 d4 00 00 	lea    0xd4a6(%rip),%rax        # 1ad7c <g_1823>
    d8d6:	48 89 85 80 f8 ff ff 	mov    %rax,-0x780(%rbp)
    d8dd:	48 8d 85 58 f2 ff ff 	lea    -0xda8(%rbp),%rax
    d8e4:	48 89 85 88 f8 ff ff 	mov    %rax,-0x778(%rbp)
    d8eb:	48 8d 85 70 f2 ff ff 	lea    -0xd90(%rbp),%rax
    d8f2:	48 89 85 90 f8 ff ff 	mov    %rax,-0x770(%rbp)
    d8f9:	48 8d 85 20 f4 ff ff 	lea    -0xbe0(%rbp),%rax
    d900:	48 83 c0 0c          	add    $0xc,%rax
    d904:	48 89 85 98 f8 ff ff 	mov    %rax,-0x768(%rbp)
    d90b:	48 8d 85 5c f2 ff ff 	lea    -0xda4(%rbp),%rax
    d912:	48 89 85 a0 f8 ff ff 	mov    %rax,-0x760(%rbp)
    d919:	48 c7 85 a8 f8 ff ff 	movq   $0x0,-0x758(%rbp)
    d920:	00 00 00 00 
    d924:	48 8d 85 64 f2 ff ff 	lea    -0xd9c(%rbp),%rax
    d92b:	48 89 85 b0 f8 ff ff 	mov    %rax,-0x750(%rbp)
    d932:	48 8d 85 58 f2 ff ff 	lea    -0xda8(%rbp),%rax
    d939:	48 89 85 b8 f8 ff ff 	mov    %rax,-0x748(%rbp)
    d940:	48 c7 85 c0 f8 ff ff 	movq   $0x0,-0x740(%rbp)
    d947:	00 00 00 00 
    d94b:	48 8d 85 70 f2 ff ff 	lea    -0xd90(%rbp),%rax
    d952:	48 89 85 c8 f8 ff ff 	mov    %rax,-0x738(%rbp)
    d959:	48 8d 85 5c f2 ff ff 	lea    -0xda4(%rbp),%rax
    d960:	48 89 85 d0 f8 ff ff 	mov    %rax,-0x730(%rbp)
    d967:	48 8d 85 20 f4 ff ff 	lea    -0xbe0(%rbp),%rax
    d96e:	48 83 c0 14          	add    $0x14,%rax
    d972:	48 89 85 d8 f8 ff ff 	mov    %rax,-0x728(%rbp)
    d979:	48 8d 85 54 f2 ff ff 	lea    -0xdac(%rbp),%rax
    d980:	48 89 85 e0 f8 ff ff 	mov    %rax,-0x720(%rbp)
    d987:	48 8d 85 64 f2 ff ff 	lea    -0xd9c(%rbp),%rax
    d98e:	48 89 85 e8 f8 ff ff 	mov    %rax,-0x718(%rbp)
    d995:	48 8d 05 e0 d3 00 00 	lea    0xd3e0(%rip),%rax        # 1ad7c <g_1823>
    d99c:	48 89 85 f0 f8 ff ff 	mov    %rax,-0x710(%rbp)
    d9a3:	48 8d 85 6c f2 ff ff 	lea    -0xd94(%rbp),%rax
    d9aa:	48 89 85 f8 f8 ff ff 	mov    %rax,-0x708(%rbp)
    d9b1:	48 8d 85 7c f2 ff ff 	lea    -0xd84(%rbp),%rax
    d9b8:	48 89 85 00 f9 ff ff 	mov    %rax,-0x700(%rbp)
    d9bf:	48 8d 85 7c f2 ff ff 	lea    -0xd84(%rbp),%rax
    d9c6:	48 89 85 08 f9 ff ff 	mov    %rax,-0x6f8(%rbp)
    d9cd:	48 8d 85 5c f2 ff ff 	lea    -0xda4(%rbp),%rax
    d9d4:	48 89 85 10 f9 ff ff 	mov    %rax,-0x6f0(%rbp)
    d9db:	48 8d 85 60 f2 ff ff 	lea    -0xda0(%rbp),%rax
    d9e2:	48 89 85 18 f9 ff ff 	mov    %rax,-0x6e8(%rbp)
    d9e9:	48 c7 85 20 f9 ff ff 	movq   $0x0,-0x6e0(%rbp)
    d9f0:	00 00 00 00 
    d9f4:	48 8d 85 50 f2 ff ff 	lea    -0xdb0(%rbp),%rax
    d9fb:	48 89 85 28 f9 ff ff 	mov    %rax,-0x6d8(%rbp)
    da02:	48 8d 05 3b c6 00 00 	lea    0xc63b(%rip),%rax        # 1a044 <g_104>
    da09:	48 89 85 30 f9 ff ff 	mov    %rax,-0x6d0(%rbp)
    da10:	48 c7 85 38 f9 ff ff 	movq   $0x0,-0x6c8(%rbp)
    da17:	00 00 00 00 
    da1b:	48 c7 85 40 f9 ff ff 	movq   $0x0,-0x6c0(%rbp)
    da22:	00 00 00 00 
    da26:	48 8d 85 58 f2 ff ff 	lea    -0xda8(%rbp),%rax
    da2d:	48 89 85 48 f9 ff ff 	mov    %rax,-0x6b8(%rbp)
    da34:	48 8d 85 74 f2 ff ff 	lea    -0xd8c(%rbp),%rax
    da3b:	48 89 85 50 f9 ff ff 	mov    %rax,-0x6b0(%rbp)
    da42:	48 c7 85 58 f9 ff ff 	movq   $0x0,-0x6a8(%rbp)
    da49:	00 00 00 00 
    da4d:	48 8d 85 64 f2 ff ff 	lea    -0xd9c(%rbp),%rax
    da54:	48 89 85 60 f9 ff ff 	mov    %rax,-0x6a0(%rbp)
    da5b:	48 8d 85 5c f2 ff ff 	lea    -0xda4(%rbp),%rax
    da62:	48 89 85 68 f9 ff ff 	mov    %rax,-0x698(%rbp)
    da69:	48 8d 85 7c f2 ff ff 	lea    -0xd84(%rbp),%rax
    da70:	48 89 85 70 f9 ff ff 	mov    %rax,-0x690(%rbp)
    da77:	48 8d 05 fe d2 00 00 	lea    0xd2fe(%rip),%rax        # 1ad7c <g_1823>
    da7e:	48 89 85 78 f9 ff ff 	mov    %rax,-0x688(%rbp)
    da85:	48 8d 05 b8 c5 00 00 	lea    0xc5b8(%rip),%rax        # 1a044 <g_104>
    da8c:	48 89 85 80 f9 ff ff 	mov    %rax,-0x680(%rbp)
    da93:	48 c7 85 88 f9 ff ff 	movq   $0x0,-0x678(%rbp)
    da9a:	00 00 00 00 
    da9e:	48 8d 85 7c f2 ff ff 	lea    -0xd84(%rbp),%rax
    daa5:	48 89 85 90 f9 ff ff 	mov    %rax,-0x670(%rbp)
    daac:	48 8d 85 60 f2 ff ff 	lea    -0xda0(%rbp),%rax
    dab3:	48 89 85 98 f9 ff ff 	mov    %rax,-0x668(%rbp)
    daba:	48 c7 85 a0 f9 ff ff 	movq   $0x0,-0x660(%rbp)
    dac1:	00 00 00 00 
    dac5:	48 8d 85 7c f2 ff ff 	lea    -0xd84(%rbp),%rax
    dacc:	48 89 85 a8 f9 ff ff 	mov    %rax,-0x658(%rbp)
    dad3:	48 8d 85 58 f2 ff ff 	lea    -0xda8(%rbp),%rax
    dada:	48 89 85 b0 f9 ff ff 	mov    %rax,-0x650(%rbp)
    dae1:	48 8d 85 20 f4 ff ff 	lea    -0xbe0(%rbp),%rax
    dae8:	48 83 c0 14          	add    $0x14,%rax
    daec:	48 89 85 b8 f9 ff ff 	mov    %rax,-0x648(%rbp)
    daf3:	48 8d 85 20 f4 ff ff 	lea    -0xbe0(%rbp),%rax
    dafa:	48 89 85 c0 f9 ff ff 	mov    %rax,-0x640(%rbp)
    db01:	48 c7 85 c8 f9 ff ff 	movq   $0x0,-0x638(%rbp)
    db08:	00 00 00 00 
    db0c:	48 8d 85 54 f2 ff ff 	lea    -0xdac(%rbp),%rax
    db13:	48 89 85 d0 f9 ff ff 	mov    %rax,-0x630(%rbp)
    db1a:	48 8d 85 64 f2 ff ff 	lea    -0xd9c(%rbp),%rax
    db21:	48 89 85 d8 f9 ff ff 	mov    %rax,-0x628(%rbp)
    db28:	48 8d 85 54 f2 ff ff 	lea    -0xdac(%rbp),%rax
    db2f:	48 89 85 e0 f9 ff ff 	mov    %rax,-0x620(%rbp)
    db36:	48 8d 05 3f d2 00 00 	lea    0xd23f(%rip),%rax        # 1ad7c <g_1823>
    db3d:	48 89 85 e8 f9 ff ff 	mov    %rax,-0x618(%rbp)
    db44:	48 8d 85 54 f2 ff ff 	lea    -0xdac(%rbp),%rax
    db4b:	48 89 85 f0 f9 ff ff 	mov    %rax,-0x610(%rbp)
    db52:	48 8d 85 58 f2 ff ff 	lea    -0xda8(%rbp),%rax
    db59:	48 89 85 f8 f9 ff ff 	mov    %rax,-0x608(%rbp)
    db60:	48 8d 85 58 f2 ff ff 	lea    -0xda8(%rbp),%rax
    db67:	48 89 85 00 fa ff ff 	mov    %rax,-0x600(%rbp)
    db6e:	48 8d 85 60 f2 ff ff 	lea    -0xda0(%rbp),%rax
    db75:	48 89 85 08 fa ff ff 	mov    %rax,-0x5f8(%rbp)
    db7c:	48 8d 85 5c f2 ff ff 	lea    -0xda4(%rbp),%rax
    db83:	48 89 85 10 fa ff ff 	mov    %rax,-0x5f0(%rbp)
    db8a:	48 8d 85 20 f4 ff ff 	lea    -0xbe0(%rbp),%rax
    db91:	48 89 85 18 fa ff ff 	mov    %rax,-0x5e8(%rbp)
    db98:	48 8d 85 70 f2 ff ff 	lea    -0xd90(%rbp),%rax
    db9f:	48 89 85 20 fa ff ff 	mov    %rax,-0x5e0(%rbp)
    dba6:	48 8d 85 70 f2 ff ff 	lea    -0xd90(%rbp),%rax
    dbad:	48 89 85 28 fa ff ff 	mov    %rax,-0x5d8(%rbp)
    dbb4:	48 8d 85 78 f2 ff ff 	lea    -0xd88(%rbp),%rax
    dbbb:	48 89 85 30 fa ff ff 	mov    %rax,-0x5d0(%rbp)
    dbc2:	48 8d 85 7c f2 ff ff 	lea    -0xd84(%rbp),%rax
    dbc9:	48 89 85 38 fa ff ff 	mov    %rax,-0x5c8(%rbp)
    dbd0:	48 8d 85 6c f2 ff ff 	lea    -0xd94(%rbp),%rax
    dbd7:	48 89 85 40 fa ff ff 	mov    %rax,-0x5c0(%rbp)
    dbde:	48 8d 85 60 f2 ff ff 	lea    -0xda0(%rbp),%rax
    dbe5:	48 89 85 48 fa ff ff 	mov    %rax,-0x5b8(%rbp)
    dbec:	48 8d 85 20 f4 ff ff 	lea    -0xbe0(%rbp),%rax
    dbf3:	48 89 85 50 fa ff ff 	mov    %rax,-0x5b0(%rbp)
    dbfa:	48 c7 85 58 fa ff ff 	movq   $0x0,-0x5a8(%rbp)
    dc01:	00 00 00 00 
    dc05:	48 8d 85 20 f4 ff ff 	lea    -0xbe0(%rbp),%rax
    dc0c:	48 83 c0 14          	add    $0x14,%rax
    dc10:	48 89 85 60 fa ff ff 	mov    %rax,-0x5a0(%rbp)
    dc17:	48 8d 85 78 f2 ff ff 	lea    -0xd88(%rbp),%rax
    dc1e:	48 89 85 68 fa ff ff 	mov    %rax,-0x598(%rbp)
    dc25:	48 8d 85 64 f2 ff ff 	lea    -0xd9c(%rbp),%rax
    dc2c:	48 89 85 70 fa ff ff 	mov    %rax,-0x590(%rbp)
    dc33:	48 8d 85 70 f2 ff ff 	lea    -0xd90(%rbp),%rax
    dc3a:	48 89 85 78 fa ff ff 	mov    %rax,-0x588(%rbp)
    dc41:	48 8d 85 50 f2 ff ff 	lea    -0xdb0(%rbp),%rax
    dc48:	48 89 85 80 fa ff ff 	mov    %rax,-0x580(%rbp)
    dc4f:	48 8d 85 20 f4 ff ff 	lea    -0xbe0(%rbp),%rax
    dc56:	48 83 c0 0c          	add    $0xc,%rax
    dc5a:	48 89 85 88 fa ff ff 	mov    %rax,-0x578(%rbp)
    dc61:	48 8d 85 70 f2 ff ff 	lea    -0xd90(%rbp),%rax
    dc68:	48 89 85 90 fa ff ff 	mov    %rax,-0x570(%rbp)
    dc6f:	48 8d 05 06 d1 00 00 	lea    0xd106(%rip),%rax        # 1ad7c <g_1823>
    dc76:	48 89 85 98 fa ff ff 	mov    %rax,-0x568(%rbp)
    dc7d:	48 8d 85 58 f2 ff ff 	lea    -0xda8(%rbp),%rax
    dc84:	48 89 85 a0 fa ff ff 	mov    %rax,-0x560(%rbp)
    dc8b:	48 c7 85 a8 fa ff ff 	movq   $0x0,-0x558(%rbp)
    dc92:	00 00 00 00 
    dc96:	48 8d 85 70 f2 ff ff 	lea    -0xd90(%rbp),%rax
    dc9d:	48 89 85 b0 fa ff ff 	mov    %rax,-0x550(%rbp)
    dca4:	48 8d 85 5c f2 ff ff 	lea    -0xda4(%rbp),%rax
    dcab:	48 89 85 b8 fa ff ff 	mov    %rax,-0x548(%rbp)
    dcb2:	48 8d 85 64 f2 ff ff 	lea    -0xd9c(%rbp),%rax
    dcb9:	48 89 85 c0 fa ff ff 	mov    %rax,-0x540(%rbp)
    dcc0:	48 8d 85 64 f2 ff ff 	lea    -0xd9c(%rbp),%rax
    dcc7:	48 89 85 c8 fa ff ff 	mov    %rax,-0x538(%rbp)
    dcce:	48 8d 85 20 f4 ff ff 	lea    -0xbe0(%rbp),%rax
    dcd5:	48 83 c0 14          	add    $0x14,%rax
    dcd9:	48 89 85 d0 fa ff ff 	mov    %rax,-0x530(%rbp)
    dce0:	48 c7 85 d8 fa ff ff 	movq   $0x0,-0x528(%rbp)
    dce7:	00 00 00 00 
    dceb:	48 8d 85 78 f2 ff ff 	lea    -0xd88(%rbp),%rax
    dcf2:	48 89 85 e0 fa ff ff 	mov    %rax,-0x520(%rbp)
    dcf9:	48 c7 85 e8 fa ff ff 	movq   $0x0,-0x518(%rbp)
    dd00:	00 00 00 00 
    dd04:	48 8d 85 58 f2 ff ff 	lea    -0xda8(%rbp),%rax
    dd0b:	48 89 85 f0 fa ff ff 	mov    %rax,-0x510(%rbp)
    dd12:	48 c7 85 f8 fa ff ff 	movq   $0x0,-0x508(%rbp)
    dd19:	00 00 00 00 
    dd1d:	48 8d 85 70 f2 ff ff 	lea    -0xd90(%rbp),%rax
    dd24:	48 89 85 00 fb ff ff 	mov    %rax,-0x500(%rbp)
    dd2b:	48 8d 85 58 f2 ff ff 	lea    -0xda8(%rbp),%rax
    dd32:	48 89 85 08 fb ff ff 	mov    %rax,-0x4f8(%rbp)
    dd39:	48 8d 85 50 f2 ff ff 	lea    -0xdb0(%rbp),%rax
    dd40:	48 89 85 10 fb ff ff 	mov    %rax,-0x4f0(%rbp)
    dd47:	48 c7 85 18 fb ff ff 	movq   $0x0,-0x4e8(%rbp)
    dd4e:	00 00 00 00 
    dd52:	48 8d 85 6c f2 ff ff 	lea    -0xd94(%rbp),%rax
    dd59:	48 89 85 20 fb ff ff 	mov    %rax,-0x4e0(%rbp)
    dd60:	48 8d 85 58 f2 ff ff 	lea    -0xda8(%rbp),%rax
    dd67:	48 89 85 28 fb ff ff 	mov    %rax,-0x4d8(%rbp)
    dd6e:	48 8d 85 60 f2 ff ff 	lea    -0xda0(%rbp),%rax
    dd75:	48 89 85 30 fb ff ff 	mov    %rax,-0x4d0(%rbp)
    dd7c:	48 8d 85 20 f4 ff ff 	lea    -0xbe0(%rbp),%rax
    dd83:	48 83 c0 18          	add    $0x18,%rax
    dd87:	48 89 85 38 fb ff ff 	mov    %rax,-0x4c8(%rbp)
    dd8e:	48 8d 85 64 f2 ff ff 	lea    -0xd9c(%rbp),%rax
    dd95:	48 89 85 40 fb ff ff 	mov    %rax,-0x4c0(%rbp)
    dd9c:	48 c7 85 48 fb ff ff 	movq   $0x0,-0x4b8(%rbp)
    dda3:	00 00 00 00 
    dda7:	48 8d 85 50 f2 ff ff 	lea    -0xdb0(%rbp),%rax
    ddae:	48 89 85 50 fb ff ff 	mov    %rax,-0x4b0(%rbp)
    ddb5:	48 8d 85 7c f2 ff ff 	lea    -0xd84(%rbp),%rax
    ddbc:	48 89 85 58 fb ff ff 	mov    %rax,-0x4a8(%rbp)
    ddc3:	48 8d 85 20 f4 ff ff 	lea    -0xbe0(%rbp),%rax
    ddca:	48 83 c0 18          	add    $0x18,%rax
    ddce:	48 89 85 60 fb ff ff 	mov    %rax,-0x4a0(%rbp)
    ddd5:	48 c7 85 68 fb ff ff 	movq   $0x0,-0x498(%rbp)
    dddc:	00 00 00 00 
    dde0:	48 8d 85 6c f2 ff ff 	lea    -0xd94(%rbp),%rax
    dde7:	48 89 85 70 fb ff ff 	mov    %rax,-0x490(%rbp)
    ddee:	48 8d 85 64 f2 ff ff 	lea    -0xd9c(%rbp),%rax
    ddf5:	48 89 85 78 fb ff ff 	mov    %rax,-0x488(%rbp)
    ddfc:	48 8d 85 20 f4 ff ff 	lea    -0xbe0(%rbp),%rax
    de03:	48 83 c0 14          	add    $0x14,%rax
    de07:	48 89 85 80 fb ff ff 	mov    %rax,-0x480(%rbp)
    de0e:	48 8d 85 20 f4 ff ff 	lea    -0xbe0(%rbp),%rax
    de15:	48 83 c0 14          	add    $0x14,%rax
    de19:	48 89 85 88 fb ff ff 	mov    %rax,-0x478(%rbp)
    de20:	48 8d 85 5c f2 ff ff 	lea    -0xda4(%rbp),%rax
    de27:	48 89 85 90 fb ff ff 	mov    %rax,-0x470(%rbp)
    de2e:	48 c7 85 98 fb ff ff 	movq   $0x0,-0x468(%rbp)
    de35:	00 00 00 00 
    de39:	48 8d 85 20 f4 ff ff 	lea    -0xbe0(%rbp),%rax
    de40:	48 83 c0 18          	add    $0x18,%rax
    de44:	48 89 85 a0 fb ff ff 	mov    %rax,-0x460(%rbp)
    de4b:	48 8d 05 2a cf 00 00 	lea    0xcf2a(%rip),%rax        # 1ad7c <g_1823>
    de52:	48 89 85 a8 fb ff ff 	mov    %rax,-0x458(%rbp)
    de59:	48 8d 05 e4 c1 00 00 	lea    0xc1e4(%rip),%rax        # 1a044 <g_104>
    de60:	48 89 85 b0 fb ff ff 	mov    %rax,-0x450(%rbp)
    de67:	48 8d 85 64 f2 ff ff 	lea    -0xd9c(%rbp),%rax
    de6e:	48 89 85 b8 fb ff ff 	mov    %rax,-0x448(%rbp)
    de75:	48 8d 85 20 f4 ff ff 	lea    -0xbe0(%rbp),%rax
    de7c:	48 83 c0 14          	add    $0x14,%rax
    de80:	48 89 85 c0 fb ff ff 	mov    %rax,-0x440(%rbp)
    de87:	48 8d 85 70 f2 ff ff 	lea    -0xd90(%rbp),%rax
    de8e:	48 89 85 c8 fb ff ff 	mov    %rax,-0x438(%rbp)
    de95:	48 8d 85 20 f4 ff ff 	lea    -0xbe0(%rbp),%rax
    de9c:	48 83 c0 14          	add    $0x14,%rax
    dea0:	48 89 85 d0 fb ff ff 	mov    %rax,-0x430(%rbp)
    dea7:	48 c7 85 d8 fb ff ff 	movq   $0x0,-0x428(%rbp)
    deae:	00 00 00 00 
    deb2:	48 c7 85 e0 fb ff ff 	movq   $0x0,-0x420(%rbp)
    deb9:	00 00 00 00 
    debd:	48 c7 85 e8 fb ff ff 	movq   $0x0,-0x418(%rbp)
    dec4:	00 00 00 00 
    dec8:	48 c7 85 f0 fb ff ff 	movq   $0x0,-0x410(%rbp)
    decf:	00 00 00 00 
    ded3:	48 8d 85 64 f2 ff ff 	lea    -0xd9c(%rbp),%rax
    deda:	48 89 85 f8 fb ff ff 	mov    %rax,-0x408(%rbp)
    dee1:	48 c7 85 00 fc ff ff 	movq   $0x0,-0x400(%rbp)
    dee8:	00 00 00 00 
    deec:	48 8d 85 20 f4 ff ff 	lea    -0xbe0(%rbp),%rax
    def3:	48 83 c0 0c          	add    $0xc,%rax
    def7:	48 89 85 08 fc ff ff 	mov    %rax,-0x3f8(%rbp)
    defe:	48 8d 85 50 f2 ff ff 	lea    -0xdb0(%rbp),%rax
    df05:	48 89 85 10 fc ff ff 	mov    %rax,-0x3f0(%rbp)
    df0c:	48 8d 85 6c f2 ff ff 	lea    -0xd94(%rbp),%rax
    df13:	48 89 85 18 fc ff ff 	mov    %rax,-0x3e8(%rbp)
    df1a:	48 8d 85 78 f2 ff ff 	lea    -0xd88(%rbp),%rax
    df21:	48 89 85 20 fc ff ff 	mov    %rax,-0x3e0(%rbp)
    df28:	48 8d 85 5c f2 ff ff 	lea    -0xda4(%rbp),%rax
    df2f:	48 89 85 28 fc ff ff 	mov    %rax,-0x3d8(%rbp)
    df36:	48 c7 85 30 fc ff ff 	movq   $0x0,-0x3d0(%rbp)
    df3d:	00 00 00 00 
    df41:	48 c7 85 38 fc ff ff 	movq   $0x0,-0x3c8(%rbp)
    df48:	00 00 00 00 
    df4c:	48 8d 85 7c f2 ff ff 	lea    -0xd84(%rbp),%rax
    df53:	48 89 85 40 fc ff ff 	mov    %rax,-0x3c0(%rbp)
    df5a:	48 8d 85 20 f4 ff ff 	lea    -0xbe0(%rbp),%rax
    df61:	48 83 c0 18          	add    $0x18,%rax
    df65:	48 89 85 48 fc ff ff 	mov    %rax,-0x3b8(%rbp)
    df6c:	48 8d 85 74 f2 ff ff 	lea    -0xd8c(%rbp),%rax
    df73:	48 89 85 50 fc ff ff 	mov    %rax,-0x3b0(%rbp)
    df7a:	48 8d 05 c3 c0 00 00 	lea    0xc0c3(%rip),%rax        # 1a044 <g_104>
    df81:	48 89 85 58 fc ff ff 	mov    %rax,-0x3a8(%rbp)
    df88:	48 8d 85 78 f2 ff ff 	lea    -0xd88(%rbp),%rax
    df8f:	48 89 85 60 fc ff ff 	mov    %rax,-0x3a0(%rbp)
    df96:	48 8d 85 6c f2 ff ff 	lea    -0xd94(%rbp),%rax
    df9d:	48 89 85 68 fc ff ff 	mov    %rax,-0x398(%rbp)
    dfa4:	48 8d 85 54 f2 ff ff 	lea    -0xdac(%rbp),%rax
    dfab:	48 89 85 70 fc ff ff 	mov    %rax,-0x390(%rbp)
    dfb2:	48 8d 85 58 f2 ff ff 	lea    -0xda8(%rbp),%rax
    dfb9:	48 89 85 78 fc ff ff 	mov    %rax,-0x388(%rbp)
    dfc0:	48 8d 05 b5 cd 00 00 	lea    0xcdb5(%rip),%rax        # 1ad7c <g_1823>
    dfc7:	48 89 85 80 fc ff ff 	mov    %rax,-0x380(%rbp)
    dfce:	48 8d 85 60 f2 ff ff 	lea    -0xda0(%rbp),%rax
    dfd5:	48 89 85 88 fc ff ff 	mov    %rax,-0x378(%rbp)
    dfdc:	48 c7 85 90 fc ff ff 	movq   $0x0,-0x370(%rbp)
    dfe3:	00 00 00 00 
    dfe7:	48 c7 85 98 fc ff ff 	movq   $0x0,-0x368(%rbp)
    dfee:	00 00 00 00 
    dff2:	48 8d 85 20 f4 ff ff 	lea    -0xbe0(%rbp),%rax
    dff9:	48 89 85 a0 fc ff ff 	mov    %rax,-0x360(%rbp)
    e000:	48 8d 05 75 cd 00 00 	lea    0xcd75(%rip),%rax        # 1ad7c <g_1823>
    e007:	48 89 85 a8 fc ff ff 	mov    %rax,-0x358(%rbp)
    e00e:	48 8d 85 54 f2 ff ff 	lea    -0xdac(%rbp),%rax
    e015:	48 89 85 b0 fc ff ff 	mov    %rax,-0x350(%rbp)
    e01c:	48 8d 85 70 f2 ff ff 	lea    -0xd90(%rbp),%rax
    e023:	48 89 85 b8 fc ff ff 	mov    %rax,-0x348(%rbp)
    e02a:	48 8d 85 74 f2 ff ff 	lea    -0xd8c(%rbp),%rax
    e031:	48 89 85 c0 fc ff ff 	mov    %rax,-0x340(%rbp)
    e038:	48 c7 85 c8 fc ff ff 	movq   $0x0,-0x338(%rbp)
    e03f:	00 00 00 00 
    e043:	48 8d 85 20 f4 ff ff 	lea    -0xbe0(%rbp),%rax
    e04a:	48 83 c0 18          	add    $0x18,%rax
    e04e:	48 89 85 d0 fc ff ff 	mov    %rax,-0x330(%rbp)
    e055:	48 8d 85 20 f4 ff ff 	lea    -0xbe0(%rbp),%rax
    e05c:	48 83 c0 14          	add    $0x14,%rax
    e060:	48 89 85 d8 fc ff ff 	mov    %rax,-0x328(%rbp)
    e067:	48 8d 85 20 f4 ff ff 	lea    -0xbe0(%rbp),%rax
    e06e:	48 83 c0 18          	add    $0x18,%rax
    e072:	48 89 85 e0 fc ff ff 	mov    %rax,-0x320(%rbp)
    e079:	48 c7 85 e8 fc ff ff 	movq   $0x0,-0x318(%rbp)
    e080:	00 00 00 00 
    e084:	48 8d 85 78 f2 ff ff 	lea    -0xd88(%rbp),%rax
    e08b:	48 89 85 f0 fc ff ff 	mov    %rax,-0x310(%rbp)
    e092:	48 8d 85 58 f2 ff ff 	lea    -0xda8(%rbp),%rax
    e099:	48 89 85 f8 fc ff ff 	mov    %rax,-0x308(%rbp)
    e0a0:	48 8d 85 7c f2 ff ff 	lea    -0xd84(%rbp),%rax
    e0a7:	48 89 85 00 fd ff ff 	mov    %rax,-0x300(%rbp)
    e0ae:	48 8d 85 64 f2 ff ff 	lea    -0xd9c(%rbp),%rax
    e0b5:	48 89 85 08 fd ff ff 	mov    %rax,-0x2f8(%rbp)
    e0bc:	48 8d 05 81 bf 00 00 	lea    0xbf81(%rip),%rax        # 1a044 <g_104>
    e0c3:	48 89 85 10 fd ff ff 	mov    %rax,-0x2f0(%rbp)
    e0ca:	48 8d 85 7c f2 ff ff 	lea    -0xd84(%rbp),%rax
    e0d1:	48 89 85 18 fd ff ff 	mov    %rax,-0x2e8(%rbp)
    e0d8:	48 8d 85 60 f2 ff ff 	lea    -0xda0(%rbp),%rax
    e0df:	48 89 85 20 fd ff ff 	mov    %rax,-0x2e0(%rbp)
    e0e6:	48 8d 85 5c f2 ff ff 	lea    -0xda4(%rbp),%rax
    e0ed:	48 89 85 28 fd ff ff 	mov    %rax,-0x2d8(%rbp)
    e0f4:	48 8d 85 50 f2 ff ff 	lea    -0xdb0(%rbp),%rax
    e0fb:	48 89 85 30 fd ff ff 	mov    %rax,-0x2d0(%rbp)
    e102:	48 8d 85 60 f2 ff ff 	lea    -0xda0(%rbp),%rax
    e109:	48 89 85 38 fd ff ff 	mov    %rax,-0x2c8(%rbp)
    e110:	48 8d 05 2d bf 00 00 	lea    0xbf2d(%rip),%rax        # 1a044 <g_104>
    e117:	48 89 85 40 fd ff ff 	mov    %rax,-0x2c0(%rbp)
    e11e:	48 8d 85 20 f4 ff ff 	lea    -0xbe0(%rbp),%rax
    e125:	48 83 c0 0c          	add    $0xc,%rax
    e129:	48 89 85 48 fd ff ff 	mov    %rax,-0x2b8(%rbp)
    e130:	48 c7 85 50 fd ff ff 	movq   $0x0,-0x2b0(%rbp)
    e137:	00 00 00 00 
    e13b:	48 8d 85 58 f2 ff ff 	lea    -0xda8(%rbp),%rax
    e142:	48 89 85 58 fd ff ff 	mov    %rax,-0x2a8(%rbp)
    e149:	48 8d 05 f4 be 00 00 	lea    0xbef4(%rip),%rax        # 1a044 <g_104>
    e150:	48 89 85 60 fd ff ff 	mov    %rax,-0x2a0(%rbp)
    e157:	48 8d 85 58 f2 ff ff 	lea    -0xda8(%rbp),%rax
    e15e:	48 89 85 68 fd ff ff 	mov    %rax,-0x298(%rbp)
    e165:	48 8d 85 50 f2 ff ff 	lea    -0xdb0(%rbp),%rax
    e16c:	48 89 85 70 fd ff ff 	mov    %rax,-0x290(%rbp)
    e173:	48 8d 85 60 f2 ff ff 	lea    -0xda0(%rbp),%rax
    e17a:	48 89 85 78 fd ff ff 	mov    %rax,-0x288(%rbp)
    e181:	48 8d 85 70 f2 ff ff 	lea    -0xd90(%rbp),%rax
    e188:	48 89 85 80 fd ff ff 	mov    %rax,-0x280(%rbp)
    e18f:	48 c7 85 88 fd ff ff 	movq   $0x0,-0x278(%rbp)
    e196:	00 00 00 00 
    e19a:	48 8d 05 a3 be 00 00 	lea    0xbea3(%rip),%rax        # 1a044 <g_104>
    e1a1:	48 89 85 90 fd ff ff 	mov    %rax,-0x270(%rbp)
    e1a8:	48 8d 85 50 f2 ff ff 	lea    -0xdb0(%rbp),%rax
    e1af:	48 89 85 98 fd ff ff 	mov    %rax,-0x268(%rbp)
    e1b6:	48 8d 05 bf cb 00 00 	lea    0xcbbf(%rip),%rax        # 1ad7c <g_1823>
    e1bd:	48 89 85 a0 fd ff ff 	mov    %rax,-0x260(%rbp)
    e1c4:	48 c7 85 a8 fd ff ff 	movq   $0x0,-0x258(%rbp)
    e1cb:	00 00 00 00 
    e1cf:	48 8d 85 74 f2 ff ff 	lea    -0xd8c(%rbp),%rax
    e1d6:	48 89 85 b0 fd ff ff 	mov    %rax,-0x250(%rbp)
    e1dd:	48 8d 85 50 f2 ff ff 	lea    -0xdb0(%rbp),%rax
    e1e4:	48 89 85 b8 fd ff ff 	mov    %rax,-0x248(%rbp)
    e1eb:	48 8d 85 70 f2 ff ff 	lea    -0xd90(%rbp),%rax
    e1f2:	48 89 85 c0 fd ff ff 	mov    %rax,-0x240(%rbp)
    e1f9:	48 8d 05 7c cb 00 00 	lea    0xcb7c(%rip),%rax        # 1ad7c <g_1823>
    e200:	48 89 85 c8 fd ff ff 	mov    %rax,-0x238(%rbp)
    e207:	48 8d 05 6e cb 00 00 	lea    0xcb6e(%rip),%rax        # 1ad7c <g_1823>
    e20e:	48 89 85 d0 fd ff ff 	mov    %rax,-0x230(%rbp)
    e215:	48 8d 85 70 f2 ff ff 	lea    -0xd90(%rbp),%rax
    e21c:	48 89 85 d8 fd ff ff 	mov    %rax,-0x228(%rbp)
    e223:	48 8d 85 70 f2 ff ff 	lea    -0xd90(%rbp),%rax
    e22a:	48 89 85 e0 fd ff ff 	mov    %rax,-0x220(%rbp)
    e231:	48 8d 85 68 f2 ff ff 	lea    -0xd98(%rbp),%rax
    e238:	48 89 85 e8 fd ff ff 	mov    %rax,-0x218(%rbp)
    e23f:	48 8d 85 74 f2 ff ff 	lea    -0xd8c(%rbp),%rax
    e246:	48 89 85 f0 fd ff ff 	mov    %rax,-0x210(%rbp)
    e24d:	48 8d 05 28 cb 00 00 	lea    0xcb28(%rip),%rax        # 1ad7c <g_1823>
    e254:	48 89 85 f8 fd ff ff 	mov    %rax,-0x208(%rbp)
    e25b:	48 8d 85 74 f2 ff ff 	lea    -0xd8c(%rbp),%rax
    e262:	48 89 85 00 fe ff ff 	mov    %rax,-0x200(%rbp)
    e269:	48 8d 85 20 f4 ff ff 	lea    -0xbe0(%rbp),%rax
    e270:	48 89 85 08 fe ff ff 	mov    %rax,-0x1f8(%rbp)
    e277:	48 8d 85 20 f4 ff ff 	lea    -0xbe0(%rbp),%rax
    e27e:	48 83 c0 14          	add    $0x14,%rax
    e282:	48 89 85 10 fe ff ff 	mov    %rax,-0x1f0(%rbp)
    e289:	48 8d 85 58 f2 ff ff 	lea    -0xda8(%rbp),%rax
    e290:	48 89 85 18 fe ff ff 	mov    %rax,-0x1e8(%rbp)
    e297:	48 8d 85 7c f2 ff ff 	lea    -0xd84(%rbp),%rax
    e29e:	48 89 85 20 fe ff ff 	mov    %rax,-0x1e0(%rbp)
    e2a5:	48 c7 85 28 fe ff ff 	movq   $0x0,-0x1d8(%rbp)
    e2ac:	00 00 00 00 
    e2b0:	48 8d 05 c5 ca 00 00 	lea    0xcac5(%rip),%rax        # 1ad7c <g_1823>
    e2b7:	48 89 85 30 fe ff ff 	mov    %rax,-0x1d0(%rbp)
    e2be:	48 8d 85 60 f2 ff ff 	lea    -0xda0(%rbp),%rax
    e2c5:	48 89 85 38 fe ff ff 	mov    %rax,-0x1c8(%rbp)
    e2cc:	48 8d 85 20 f4 ff ff 	lea    -0xbe0(%rbp),%rax
    e2d3:	48 83 c0 14          	add    $0x14,%rax
    e2d7:	48 89 85 40 fe ff ff 	mov    %rax,-0x1c0(%rbp)
    e2de:	48 8d 85 64 f2 ff ff 	lea    -0xd9c(%rbp),%rax
    e2e5:	48 89 85 48 fe ff ff 	mov    %rax,-0x1b8(%rbp)
    e2ec:	48 8d 85 5c f2 ff ff 	lea    -0xda4(%rbp),%rax
    e2f3:	48 89 85 50 fe ff ff 	mov    %rax,-0x1b0(%rbp)
    e2fa:	48 8d 85 20 f4 ff ff 	lea    -0xbe0(%rbp),%rax
    e301:	48 89 85 58 fe ff ff 	mov    %rax,-0x1a8(%rbp)
    e308:	48 8d 85 64 f2 ff ff 	lea    -0xd9c(%rbp),%rax
    e30f:	48 89 85 60 fe ff ff 	mov    %rax,-0x1a0(%rbp)
    e316:	48 8d 85 70 f2 ff ff 	lea    -0xd90(%rbp),%rax
    e31d:	48 89 85 68 fe ff ff 	mov    %rax,-0x198(%rbp)
    e324:	48 8d 85 58 f2 ff ff 	lea    -0xda8(%rbp),%rax
    e32b:	48 89 85 70 fe ff ff 	mov    %rax,-0x190(%rbp)
    e332:	48 8d 85 58 f2 ff ff 	lea    -0xda8(%rbp),%rax
    e339:	48 89 85 78 fe ff ff 	mov    %rax,-0x188(%rbp)
    e340:	48 8d 85 70 f2 ff ff 	lea    -0xd90(%rbp),%rax
    e347:	48 89 85 80 fe ff ff 	mov    %rax,-0x180(%rbp)
    e34e:	48 8d 85 50 f2 ff ff 	lea    -0xdb0(%rbp),%rax
    e355:	48 89 85 88 fe ff ff 	mov    %rax,-0x178(%rbp)
    e35c:	48 8d 85 78 f2 ff ff 	lea    -0xd88(%rbp),%rax
    e363:	48 89 85 90 fe ff ff 	mov    %rax,-0x170(%rbp)
    e36a:	48 c7 85 98 fe ff ff 	movq   $0x0,-0x168(%rbp)
    e371:	00 00 00 00 
    e375:	48 8d 85 20 f4 ff ff 	lea    -0xbe0(%rbp),%rax
    e37c:	48 83 c0 18          	add    $0x18,%rax
    e380:	48 89 85 a0 fe ff ff 	mov    %rax,-0x160(%rbp)
    e387:	48 8d 85 20 f4 ff ff 	lea    -0xbe0(%rbp),%rax
    e38e:	48 83 c0 18          	add    $0x18,%rax
    e392:	48 89 85 a8 fe ff ff 	mov    %rax,-0x158(%rbp)
    e399:	48 c7 85 b0 fe ff ff 	movq   $0x0,-0x150(%rbp)
    e3a0:	00 00 00 00 
    e3a4:	48 8d 05 d1 c9 00 00 	lea    0xc9d1(%rip),%rax        # 1ad7c <g_1823>
    e3ab:	48 89 85 b8 fe ff ff 	mov    %rax,-0x148(%rbp)
    e3b2:	48 8d 85 5c f2 ff ff 	lea    -0xda4(%rbp),%rax
    e3b9:	48 89 85 c0 fe ff ff 	mov    %rax,-0x140(%rbp)
    e3c0:	48 8d 05 b5 c9 00 00 	lea    0xc9b5(%rip),%rax        # 1ad7c <g_1823>
    e3c7:	48 89 85 c8 fe ff ff 	mov    %rax,-0x138(%rbp)
    e3ce:	48 8d 05 a7 c9 00 00 	lea    0xc9a7(%rip),%rax        # 1ad7c <g_1823>
    e3d5:	48 89 85 d0 fe ff ff 	mov    %rax,-0x130(%rbp)
    e3dc:	48 8d 85 70 f2 ff ff 	lea    -0xd90(%rbp),%rax
    e3e3:	48 89 85 d8 fe ff ff 	mov    %rax,-0x128(%rbp)
    e3ea:	48 8d 05 53 bc 00 00 	lea    0xbc53(%rip),%rax        # 1a044 <g_104>
    e3f1:	48 89 85 e0 fe ff ff 	mov    %rax,-0x120(%rbp)
    e3f8:	48 8d 85 68 f2 ff ff 	lea    -0xd98(%rbp),%rax
    e3ff:	48 89 85 e8 fe ff ff 	mov    %rax,-0x118(%rbp)
    e406:	48 8d 85 78 f2 ff ff 	lea    -0xd88(%rbp),%rax
    e40d:	48 89 85 f0 fe ff ff 	mov    %rax,-0x110(%rbp)
    e414:	48 8d 85 60 f2 ff ff 	lea    -0xda0(%rbp),%rax
    e41b:	48 89 85 f8 fe ff ff 	mov    %rax,-0x108(%rbp)
    e422:	48 8d 85 20 f4 ff ff 	lea    -0xbe0(%rbp),%rax
    e429:	48 83 c0 14          	add    $0x14,%rax
    e42d:	48 89 85 00 ff ff ff 	mov    %rax,-0x100(%rbp)
    e434:	48 c7 85 08 ff ff ff 	movq   $0x0,-0xf8(%rbp)
    e43b:	00 00 00 00 
    e43f:	48 8d 85 78 f2 ff ff 	lea    -0xd88(%rbp),%rax
    e446:	48 89 85 10 ff ff ff 	mov    %rax,-0xf0(%rbp)
    e44d:	48 8d 85 60 f2 ff ff 	lea    -0xda0(%rbp),%rax
    e454:	48 89 85 18 ff ff ff 	mov    %rax,-0xe8(%rbp)
    e45b:	48 8d 05 e2 bb 00 00 	lea    0xbbe2(%rip),%rax        # 1a044 <g_104>
    e462:	48 89 85 20 ff ff ff 	mov    %rax,-0xe0(%rbp)
    e469:	48 c7 85 28 ff ff ff 	movq   $0x0,-0xd8(%rbp)
    e470:	00 00 00 00 
    e474:	48 8d 85 64 f2 ff ff 	lea    -0xd9c(%rbp),%rax
    e47b:	48 89 85 30 ff ff ff 	mov    %rax,-0xd0(%rbp)
    e482:	48 8d 85 6c f2 ff ff 	lea    -0xd94(%rbp),%rax
    e489:	48 89 85 38 ff ff ff 	mov    %rax,-0xc8(%rbp)
    e490:	48 8d 85 54 f2 ff ff 	lea    -0xdac(%rbp),%rax
    e497:	48 89 85 40 ff ff ff 	mov    %rax,-0xc0(%rbp)
    e49e:	48 8d 85 78 f2 ff ff 	lea    -0xd88(%rbp),%rax
    e4a5:	48 89 85 48 ff ff ff 	mov    %rax,-0xb8(%rbp)
    e4ac:	48 8d 85 20 f4 ff ff 	lea    -0xbe0(%rbp),%rax
    e4b3:	48 83 c0 14          	add    $0x14,%rax
    e4b7:	48 89 85 50 ff ff ff 	mov    %rax,-0xb0(%rbp)
    e4be:	48 c7 85 58 ff ff ff 	movq   $0x0,-0xa8(%rbp)
    e4c5:	00 00 00 00 
    e4c9:	48 8d 85 20 f4 ff ff 	lea    -0xbe0(%rbp),%rax
    e4d0:	48 89 85 60 ff ff ff 	mov    %rax,-0xa0(%rbp)
    e4d7:	48 8d 85 60 f2 ff ff 	lea    -0xda0(%rbp),%rax
    e4de:	48 89 85 68 ff ff ff 	mov    %rax,-0x98(%rbp)
    e4e5:	48 8d 85 5c f2 ff ff 	lea    -0xda4(%rbp),%rax
    e4ec:	48 89 85 70 ff ff ff 	mov    %rax,-0x90(%rbp)
    e4f3:	48 8d 85 70 f2 ff ff 	lea    -0xd90(%rbp),%rax
    e4fa:	48 89 85 78 ff ff ff 	mov    %rax,-0x88(%rbp)
    e501:	48 8d 85 7c f2 ff ff 	lea    -0xd84(%rbp),%rax
    e508:	48 89 45 80          	mov    %rax,-0x80(%rbp)
    e50c:	48 8d 85 58 f2 ff ff 	lea    -0xda8(%rbp),%rax
    e513:	48 89 45 88          	mov    %rax,-0x78(%rbp)
    e517:	48 8d 85 20 f4 ff ff 	lea    -0xbe0(%rbp),%rax
    e51e:	48 83 c0 14          	add    $0x14,%rax
    e522:	48 89 45 90          	mov    %rax,-0x70(%rbp)
    e526:	48 8d 85 74 f2 ff ff 	lea    -0xd8c(%rbp),%rax
    e52d:	48 89 45 98          	mov    %rax,-0x68(%rbp)
    e531:	48 c7 45 a0 00 00 00 	movq   $0x0,-0x60(%rbp)
    e538:	00 
    e539:	48 8d 85 5c f2 ff ff 	lea    -0xda4(%rbp),%rax
    e540:	48 89 45 a8          	mov    %rax,-0x58(%rbp)
    e544:	48 c7 45 b0 00 00 00 	movq   $0x0,-0x50(%rbp)
    e54b:	00 
    e54c:	48 c7 45 b8 00 00 00 	movq   $0x0,-0x48(%rbp)
    e553:	00 
    e554:	48 8d 85 f0 f7 ff ff 	lea    -0x810(%rbp),%rax
    e55b:	48 05 60 07 00 00    	add    $0x760,%rax
    e561:	48 89 85 e0 f3 ff ff 	mov    %rax,-0xc20(%rbp)
    e568:	c7 85 ac f2 ff ff 99 	movl   $0x2fc54599,-0xd54(%rbp)
    e56f:	45 c5 2f 
    e572:	0f b6 05 0f e6 00 00 	movzbl 0xe60f(%rip),%eax        # 1cb88 <g_324>
    e579:	0f be c0             	movsbl %al,%eax
    e57c:	48 98                	cltq   
    e57e:	48 8d 14 c5 00 00 00 	lea    0x0(,%rax,8),%rdx
    e585:	00 
    e586:	48 8d 05 23 df 00 00 	lea    0xdf23(%rip),%rax        # 1c4b0 <g_1917>
    e58d:	48 8b 14 02          	mov    (%rdx,%rax,1),%rdx
    e591:	48 8b 85 e0 f3 ff ff 	mov    -0xc20(%rbp),%rax
    e598:	48 89 10             	mov    %rdx,(%rax)
    e59b:	83 bd 9c f2 ff ff 00 	cmpl   $0x0,-0xd64(%rbp)
    e5a2:	74 23                	je     e5c7 <func_34+0x1ff2>
    e5a4:	48 8b 05 8d df 00 00 	mov    0xdf8d(%rip),%rax        # 1c538 <g_1983>
    e5ab:	48 8b 00             	mov    (%rax),%rax
    e5ae:	be 01 00 00 00       	mov    $0x1,%esi
    e5b3:	48 89 c7             	mov    %rax,%rdi
    e5b6:	e8 90 8a ff ff       	callq  704b <safe_sub_func_uint64_t_u_u>
    e5bb:	48 85 c0             	test   %rax,%rax
    e5be:	74 07                	je     e5c7 <func_34+0x1ff2>
    e5c0:	b8 01 00 00 00       	mov    $0x1,%eax
    e5c5:	eb 05                	jmp    e5cc <func_34+0x1ff7>
    e5c7:	b8 00 00 00 00       	mov    $0x0,%eax
    e5cc:	31 85 ac f2 ff ff    	xor    %eax,-0xd54(%rbp)
    e5d2:	83 bd ac f2 ff ff 00 	cmpl   $0x0,-0xd54(%rbp)
    e5d9:	74 0c                	je     e5e7 <func_34+0x2012>
    e5db:	48 8b 85 28 f2 ff ff 	mov    -0xdd8(%rbp),%rax
    e5e2:	e9 bb 07 00 00       	jmpq   eda2 <func_34+0x27cd>
    e5e7:	66 c7 85 4e f2 ff ff 	movw   $0x0,-0xdb2(%rbp)
    e5ee:	00 00 
    e5f0:	66 c7 85 10 f6 ff ff 	movw   $0x1fe,-0x9f0(%rbp)
    e5f7:	fe 01 
    e5f9:	c6 85 12 f6 ff ff d4 	movb   $0xd4,-0x9ee(%rbp)
    e600:	66 c7 85 13 f6 ff ff 	movw   $0x96e8,-0x9ed(%rbp)
    e607:	e8 96 
    e609:	c6 85 15 f6 ff ff 96 	movb   $0x96,-0x9eb(%rbp)
    e610:	66 c7 85 16 f6 ff ff 	movw   $0x883,-0x9ea(%rbp)
    e617:	83 08 
    e619:	c6 85 18 f6 ff ff e8 	movb   $0xe8,-0x9e8(%rbp)
    e620:	66 c7 85 19 f6 ff ff 	movw   $0xd425,-0x9e7(%rbp)
    e627:	25 d4 
    e629:	c6 85 1b f6 ff ff fb 	movb   $0xfb,-0x9e5(%rbp)
    e630:	66 c7 85 1c f6 ff ff 	movw   $0x1b,-0x9e4(%rbp)
    e637:	1b 00 
    e639:	c6 85 1e f6 ff ff 01 	movb   $0x1,-0x9e2(%rbp)
    e640:	66 c7 85 1f f6 ff ff 	movw   $0xfb39,-0x9e1(%rbp)
    e647:	39 fb 
    e649:	c6 85 21 f6 ff ff ff 	movb   $0xff,-0x9df(%rbp)
    e650:	66 c7 85 22 f6 ff ff 	movw   $0x3e,-0x9de(%rbp)
    e657:	3e 00 
    e659:	c6 85 24 f6 ff ff fa 	movb   $0xfa,-0x9dc(%rbp)
    e660:	66 c7 85 25 f6 ff ff 	movw   $0xd407,-0x9db(%rbp)
    e667:	07 d4 
    e669:	c6 85 27 f6 ff ff ff 	movb   $0xff,-0x9d9(%rbp)
    e670:	66 c7 85 28 f6 ff ff 	movw   $0x801,-0x9d8(%rbp)
    e677:	01 08 
    e679:	c6 85 2a f6 ff ff fd 	movb   $0xfd,-0x9d6(%rbp)
    e680:	66 c7 85 2b f6 ff ff 	movw   $0x96fa,-0x9d5(%rbp)
    e687:	fa 96 
    e689:	c6 85 2d f6 ff ff 00 	movb   $0x0,-0x9d3(%rbp)
    e690:	66 c7 85 2e f6 ff ff 	movw   $0x1c0,-0x9d2(%rbp)
    e697:	c0 01 
    e699:	c6 85 30 f6 ff ff 71 	movb   $0x71,-0x9d0(%rbp)
    e6a0:	66 c7 85 31 f6 ff ff 	movw   $0xc1ff,-0x9cf(%rbp)
    e6a7:	ff c1 
    e6a9:	c6 85 33 f6 ff ff 83 	movb   $0x83,-0x9cd(%rbp)
    e6b0:	66 c7 85 34 f6 ff ff 	movw   $0x5cfb,-0x9cc(%rbp)
    e6b7:	fb 5c 
    e6b9:	c6 85 36 f6 ff ff c1 	movb   $0xc1,-0x9ca(%rbp)
    e6c0:	66 c7 85 37 f6 ff ff 	movw   $0x108,-0x9c9(%rbp)
    e6c7:	08 01 
    e6c9:	c6 85 39 f6 ff ff c4 	movb   $0xc4,-0x9c7(%rbp)
    e6d0:	66 c7 85 3a f6 ff ff 	movw   $0xf7ec,-0x9c6(%rbp)
    e6d7:	ec f7 
    e6d9:	c6 85 3c f6 ff ff 5c 	movb   $0x5c,-0x9c4(%rbp)
    e6e0:	66 c7 85 3d f6 ff ff 	movw   $0xf601,-0x9c3(%rbp)
    e6e7:	01 f6 
    e6e9:	c6 85 3f f6 ff ff f7 	movb   $0xf7,-0x9c1(%rbp)
    e6f0:	66 c7 85 40 f6 ff ff 	movw   $0xfe01,-0x9c0(%rbp)
    e6f7:	01 fe 
    e6f9:	c6 85 42 f6 ff ff 08 	movb   $0x8,-0x9be(%rbp)
    e700:	66 c7 85 43 f6 ff ff 	movw   $0xffec,-0x9bd(%rbp)
    e707:	ec ff 
    e709:	c6 85 45 f6 ff ff fd 	movb   $0xfd,-0x9bb(%rbp)
    e710:	66 c7 85 46 f6 ff ff 	movw   $0xff08,-0x9ba(%rbp)
    e717:	08 ff 
    e719:	c6 85 48 f6 ff ff 77 	movb   $0x77,-0x9b8(%rbp)
    e720:	66 c7 85 49 f6 ff ff 	movw   $0x1bfb,-0x9b7(%rbp)
    e727:	fb 1b 
    e729:	c6 85 4b f6 ff ff 01 	movb   $0x1,-0x9b5(%rbp)
    e730:	66 c7 85 4c f6 ff ff 	movw   $0xffff,-0x9b4(%rbp)
    e737:	ff ff 
    e739:	c6 85 4e f6 ff ff 07 	movb   $0x7,-0x9b2(%rbp)
    e740:	66 c7 85 4f f6 ff ff 	movw   $0x1c0,-0x9b1(%rbp)
    e747:	c0 01 
    e749:	c6 85 51 f6 ff ff ec 	movb   $0xec,-0x9af(%rbp)
    e750:	66 c7 85 52 f6 ff ff 	movw   $0xfafa,-0x9ae(%rbp)
    e757:	fa fa 
    e759:	c6 85 54 f6 ff ff 01 	movb   $0x1,-0x9ac(%rbp)
    e760:	66 c7 85 55 f6 ff ff 	movw   $0x901,-0x9ab(%rbp)
    e767:	01 09 
    e769:	c6 85 57 f6 ff ff 00 	movb   $0x0,-0x9a9(%rbp)
    e770:	66 c7 85 58 f6 ff ff 	movw   $0xfc07,-0x9a8(%rbp)
    e777:	07 fc 
    e779:	c6 85 5a f6 ff ff fd 	movb   $0xfd,-0x9a6(%rbp)
    e780:	66 c7 85 5b f6 ff ff 	movw   $0xfd3e,-0x9a5(%rbp)
    e787:	3e fd 
    e789:	c6 85 5d f6 ff ff 03 	movb   $0x3,-0x9a3(%rbp)
    e790:	66 c7 85 5e f6 ff ff 	movw   $0x739,-0x9a2(%rbp)
    e797:	39 07 
    e799:	c6 85 60 f6 ff ff fd 	movb   $0xfd,-0x9a0(%rbp)
    e7a0:	66 c7 85 61 f6 ff ff 	movw   $0xf81b,-0x99f(%rbp)
    e7a7:	1b f8 
    e7a9:	c6 85 63 f6 ff ff 00 	movb   $0x0,-0x99d(%rbp)
    e7b0:	66 c7 85 64 f6 ff ff 	movw   $0x125,-0x99c(%rbp)
    e7b7:	25 01 
    e7b9:	c6 85 66 f6 ff ff 01 	movb   $0x1,-0x99a(%rbp)
    e7c0:	66 c7 85 67 f6 ff ff 	movw   $0xbb83,-0x999(%rbp)
    e7c7:	83 bb 
    e7c9:	c6 85 69 f6 ff ff ec 	movb   $0xec,-0x997(%rbp)
    e7d0:	66 c7 85 6a f6 ff ff 	movw   $0xfbe8,-0x996(%rbp)
    e7d7:	e8 fb 
    e7d9:	c6 85 6c f6 ff ff 07 	movb   $0x7,-0x994(%rbp)
    e7e0:	66 c7 85 6d f6 ff ff 	movw   $0xecfe,-0x993(%rbp)
    e7e7:	fe ec 
    e7e9:	c6 85 6f f6 ff ff 01 	movb   $0x1,-0x991(%rbp)
    e7f0:	66 c7 85 70 f6 ff ff 	movw   $0xff71,-0x990(%rbp)
    e7f7:	71 ff 
    e7f9:	c6 85 72 f6 ff ff 77 	movb   $0x77,-0x98e(%rbp)
    e800:	66 c7 85 73 f6 ff ff 	movw   $0x39d4,-0x98d(%rbp)
    e807:	d4 39 
    e809:	c6 85 75 f6 ff ff fd 	movb   $0xfd,-0x98b(%rbp)
    e810:	66 c7 85 76 f6 ff ff 	movw   $0xfdd2,-0x98a(%rbp)
    e817:	d2 fd 
    e819:	c6 85 78 f6 ff ff 08 	movb   $0x8,-0x988(%rbp)
    e820:	66 c7 85 79 f6 ff ff 	movw   $0xfbff,-0x987(%rbp)
    e827:	ff fb 
    e829:	c6 85 7b f6 ff ff f7 	movb   $0xf7,-0x985(%rbp)
    e830:	66 c7 85 7c f6 ff ff 	movw   $0xfbf8,-0x984(%rbp)
    e837:	f8 fb 
    e839:	c6 85 7e f6 ff ff 5c 	movb   $0x5c,-0x982(%rbp)
    e840:	66 c7 85 7f f6 ff ff 	movw   $0xfd77,-0x981(%rbp)
    e847:	77 fd 
    e849:	c6 85 81 f6 ff ff c4 	movb   $0xc4,-0x97f(%rbp)
    e850:	66 c7 85 82 f6 ff ff 	movw   $0x391b,-0x97e(%rbp)
    e857:	1b 39 
    e859:	c6 85 84 f6 ff ff c1 	movb   $0xc1,-0x97c(%rbp)
    e860:	66 c7 85 85 f6 ff ff 	movw   $0xff00,-0x97b(%rbp)
    e867:	00 ff 
    e869:	c6 85 87 f6 ff ff 83 	movb   $0x83,-0x979(%rbp)
    e870:	66 c7 85 88 f6 ff ff 	movw   $0xec00,-0x978(%rbp)
    e877:	00 ec 
    e879:	c6 85 8a f6 ff ff 71 	movb   $0x71,-0x976(%rbp)
    e880:	66 c7 85 8b f6 ff ff 	movw   $0xfbb7,-0x975(%rbp)
    e887:	b7 fb 
    e889:	c6 85 8d f6 ff ff 00 	movb   $0x0,-0x973(%rbp)
    e890:	66 c7 85 8e f6 ff ff 	movw   $0x1fd,-0x972(%rbp)
    e897:	fd 01 
    e899:	c6 85 90 f6 ff ff fd 	movb   $0xfd,-0x970(%rbp)
    e8a0:	66 c7 85 91 f6 ff ff 	movw   $0xfc01,-0x96f(%rbp)
    e8a7:	01 fc 
    e8a9:	c6 85 93 f6 ff ff ff 	movb   $0xff,-0x96d(%rbp)
    e8b0:	66 c7 85 94 f6 ff ff 	movw   $0x4ec1,-0x96c(%rbp)
    e8b7:	c1 4e 
    e8b9:	c6 85 96 f6 ff ff 01 	movb   $0x1,-0x96a(%rbp)
    e8c0:	66 c7 85 97 f6 ff ff 	movw   $0xf7c0,-0x969(%rbp)
    e8c7:	c0 f7 
    e8c9:	c6 85 99 f6 ff ff 25 	movb   $0x25,-0x967(%rbp)
    e8d0:	66 c7 85 9a f6 ff ff 	movw   $0xfd3e,-0x966(%rbp)
    e8d7:	3e fd 
    e8d9:	c6 85 9c f6 ff ff ff 	movb   $0xff,-0x964(%rbp)
    e8e0:	66 c7 85 9d f6 ff ff 	movw   $0x8c0,-0x963(%rbp)
    e8e7:	c0 08 
    e8e9:	c6 85 9f f6 ff ff fe 	movb   $0xfe,-0x961(%rbp)
    e8f0:	66 c7 85 a0 f6 ff ff 	movw   $0xc0c1,-0x960(%rbp)
    e8f7:	c1 c0 
    e8f9:	c6 85 a2 f6 ff ff 07 	movb   $0x7,-0x95e(%rbp)
    e900:	66 c7 85 a3 f6 ff ff 	movw   $0x101,-0x95d(%rbp)
    e907:	01 01 
    e909:	c6 85 a5 f6 ff ff e8 	movb   $0xe8,-0x95b(%rbp)
    e910:	48 83 bd 28 f2 ff ff 	cmpq   $0x0,-0xdd8(%rbp)
    e917:	00 
    e918:	75 6d                	jne    e987 <func_34+0x23b2>
    e91a:	80 ad 48 f2 ff ff 01 	subb   $0x1,-0xdb8(%rbp)
    e921:	48 83 bd d8 f3 ff ff 	cmpq   $0x0,-0xc28(%rbp)
    e928:	00 
    e929:	75 34                	jne    e95f <func_34+0x238a>
    e92b:	48 83 bd 28 f2 ff ff 	cmpq   $0x0,-0xdd8(%rbp)
    e932:	00 
    e933:	75 2d                	jne    e962 <func_34+0x238d>
    e935:	48 83 85 88 f3 ff ff 	addq   $0x1,-0xc78(%rbp)
    e93c:	01 
    e93d:	48 8b 05 ac c9 00 00 	mov    0xc9ac(%rip),%rax        # 1b2f0 <g_337>
    e944:	0f b6 00             	movzbl (%rax),%eax
    e947:	83 f0 0f             	xor    $0xf,%eax
    e94a:	0f b6 c0             	movzbl %al,%eax
    e94d:	89 c2                	mov    %eax,%edx
    e94f:	8b 85 78 f2 ff ff    	mov    -0xd88(%rbp),%eax
    e955:	21 d0                	and    %edx,%eax
    e957:	89 85 78 f2 ff ff    	mov    %eax,-0xd88(%rbp)
    e95d:	eb 04                	jmp    e963 <func_34+0x238e>
    e95f:	90                   	nop
    e960:	eb 01                	jmp    e963 <func_34+0x238e>
    e962:	90                   	nop
    e963:	0f b6 05 1e e2 00 00 	movzbl 0xe21e(%rip),%eax        # 1cb88 <g_324>
    e96a:	83 e8 01             	sub    $0x1,%eax
    e96d:	88 05 15 e2 00 00    	mov    %al,0xe215(%rip)        # 1cb88 <g_324>
    e973:	0f b6 05 0e e2 00 00 	movzbl 0xe20e(%rip),%eax        # 1cb88 <g_324>
    e97a:	84 c0                	test   %al,%al
    e97c:	0f 89 86 ec ff ff    	jns    d608 <func_34+0x1033>
    e982:	eb 04                	jmp    e988 <func_34+0x23b3>
    e984:	90                   	nop
    e985:	eb 01                	jmp    e988 <func_34+0x23b3>
    e987:	90                   	nop
    e988:	48 8b 05 b1 db 00 00 	mov    0xdbb1(%rip),%rax        # 1c540 <g_1982>
    e98f:	48 8b 00             	mov    (%rax),%rax
    e992:	48 8b 00             	mov    (%rax),%rax
    e995:	8b 05 89 b6 00 00    	mov    0xb689(%rip),%eax        # 1a024 <g_10>
    e99b:	0f be d8             	movsbl %al,%ebx
    e99e:	0f b7 85 b4 f5 ff ff 	movzwl -0xa4c(%rbp),%eax
    e9a5:	0f b7 d0             	movzwl %ax,%edx
    e9a8:	48 8b 85 28 f2 ff ff 	mov    -0xdd8(%rbp),%rax
    e9af:	0f be c0             	movsbl %al,%eax
    e9b2:	89 d6                	mov    %edx,%esi
    e9b4:	89 c7                	mov    %eax,%edi
    e9b6:	e8 33 79 ff ff       	callq  62ee <safe_lshift_func_int8_t_s_u>
    e9bb:	84 c0                	test   %al,%al
    e9bd:	75 0c                	jne    e9cb <func_34+0x23f6>
    e9bf:	0f b7 85 d4 f5 ff ff 	movzwl -0xa2c(%rbp),%eax
    e9c6:	66 85 c0             	test   %ax,%ax
    e9c9:	74 07                	je     e9d2 <func_34+0x23fd>
    e9cb:	b8 01 00 00 00       	mov    $0x1,%eax
    e9d0:	eb 05                	jmp    e9d7 <func_34+0x2402>
    e9d2:	b8 00 00 00 00       	mov    $0x0,%eax
    e9d7:	44 0f be e0          	movsbl %al,%r12d
    e9db:	48 8b 05 46 c9 00 00 	mov    0xc946(%rip),%rax        # 1b328 <g_415>
    e9e2:	48 8b 00             	mov    (%rax),%rax
    e9e5:	48 8b 95 00 f5 ff ff 	mov    -0xb00(%rbp),%rdx
    e9ec:	48 89 10             	mov    %rdx,(%rax)
    e9ef:	8b 85 78 f2 ff ff    	mov    -0xd88(%rbp),%eax
    e9f5:	41 89 c5             	mov    %eax,%r13d
    e9f8:	8b 85 9c f2 ff ff    	mov    -0xd64(%rbp),%eax
    e9fe:	0f be d0             	movsbl %al,%edx
    ea01:	48 8b 85 28 f2 ff ff 	mov    -0xdd8(%rbp),%rax
    ea08:	0f be c0             	movsbl %al,%eax
    ea0b:	89 d6                	mov    %edx,%esi
    ea0d:	89 c7                	mov    %eax,%edi
    ea0f:	e8 de 77 ff ff       	callq  61f2 <safe_sub_func_int8_t_s_s>
    ea14:	0f b6 d0             	movzbl %al,%edx
    ea17:	8b 05 43 c3 00 00    	mov    0xc343(%rip),%eax        # 1ad60 <g_1743>
    ea1d:	25 ff ff ff 01       	and    $0x1ffffff,%eax
    ea22:	0f b6 c0             	movzbl %al,%eax
    ea25:	89 d6                	mov    %edx,%esi
    ea27:	89 c7                	mov    %eax,%edi
    ea29:	e8 2c 81 ff ff       	callq  6b5a <safe_add_func_uint8_t_u_u>
    ea2e:	0f be c0             	movsbl %al,%eax
    ea31:	44 89 ee             	mov    %r13d,%esi
    ea34:	89 c7                	mov    %eax,%edi
    ea36:	e8 31 79 ff ff       	callq  636c <safe_rshift_func_int8_t_s_u>
    ea3b:	0f be c0             	movsbl %al,%eax
    ea3e:	44 89 e6             	mov    %r12d,%esi
    ea41:	89 c7                	mov    %eax,%edi
    ea43:	e8 ca 77 ff ff       	callq  6212 <safe_mul_func_int8_t_s_s>
    ea48:	0f be c0             	movsbl %al,%eax
    ea4b:	89 de                	mov    %ebx,%esi
    ea4d:	89 c7                	mov    %eax,%edi
    ea4f:	e8 9e 77 ff ff       	callq  61f2 <safe_sub_func_int8_t_s_s>
    ea54:	81 bd a0 f2 ff ff 4b 	cmpl   $0x8098464b,-0xd60(%rbp)
    ea5b:	46 98 80 
    ea5e:	0f 96 c0             	setbe  %al
    ea61:	0f b6 d0             	movzbl %al,%edx
    ea64:	8b 85 54 f2 ff ff    	mov    -0xdac(%rbp),%eax
    ea6a:	0f b6 c0             	movzbl %al,%eax
    ea6d:	89 d6                	mov    %edx,%esi
    ea6f:	89 c7                	mov    %eax,%edi
    ea71:	e8 1d 81 ff ff       	callq  6b93 <safe_mul_func_uint8_t_u_u>
    ea76:	be 00 00 00 00       	mov    $0x0,%esi
    ea7b:	bf ea 62 00 00       	mov    $0x62ea,%edi
    ea80:	e8 5c 7a ff ff       	callq  64e1 <safe_lshift_func_int16_t_s_u>
    ea85:	48 83 bd 28 f2 ff ff 	cmpq   $0x0,-0xdd8(%rbp)
    ea8c:	00 
    ea8d:	0f 84 1e 01 00 00    	je     ebb1 <func_34+0x25dc>
    ea93:	48 b8 4d db 51 6c b0 	movabs $0x21e335b06c51db4d,%rax
    ea9a:	35 e3 21 
    ea9d:	48 89 85 f8 f3 ff ff 	mov    %rax,-0xc08(%rbp)
    eaa4:	c7 85 c0 f2 ff ff 34 	movl   $0xde172b34,-0xd40(%rbp)
    eaab:	2b 17 de 
    eaae:	0f b6 05 4b be 00 00 	movzbl 0xbe4b(%rip),%eax        # 1a900 <g_400+0xe0>
    eab5:	01 c0                	add    %eax,%eax
    eab7:	c0 f8 04             	sar    $0x4,%al
    eaba:	0f b6 d8             	movzbl %al,%ebx
    eabd:	8b 85 50 f2 ff ff    	mov    -0xdb0(%rbp),%eax
    eac3:	44 0f b7 e0          	movzwl %ax,%r12d
    eac7:	48 8b 05 b2 d1 00 00 	mov    0xd1b2(%rip),%rax        # 1bc80 <g_1349>
    eace:	44 8b 28             	mov    (%rax),%r13d
    ead1:	0f b6 05 91 c2 00 00 	movzbl 0xc291(%rip),%eax        # 1ad69 <g_1743+0x9>
    ead8:	83 e0 01             	and    $0x1,%eax
    eadb:	44 0f b6 f0          	movzbl %al,%r14d
    eadf:	48 8b 05 52 da 00 00 	mov    0xda52(%rip),%rax        # 1c538 <g_1983>
    eae6:	4c 8b 38             	mov    (%rax),%r15
    eae9:	be 00 00 00 00       	mov    $0x0,%esi
    eaee:	bf 38 00 00 00       	mov    $0x38,%edi
    eaf3:	e8 1a 77 ff ff       	callq  6212 <safe_mul_func_int8_t_s_s>
    eaf8:	48 0f be c0          	movsbq %al,%rax
    eafc:	48 89 c6             	mov    %rax,%rsi
    eaff:	bf 01 00 00 00       	mov    $0x1,%edi
    eb04:	e8 a6 85 ff ff       	callq  70af <safe_div_func_uint64_t_u_u>
    eb09:	48 85 c0             	test   %rax,%rax
    eb0c:	74 13                	je     eb21 <func_34+0x254c>
    eb0e:	48 8b 05 13 da 00 00 	mov    0xda13(%rip),%rax        # 1c528 <g_1914>
    eb15:	48 8b 00             	mov    (%rax),%rax
    eb18:	48 8b 00             	mov    (%rax),%rax
    eb1b:	48 8b 00             	mov    (%rax),%rax
    eb1e:	48 85 c0             	test   %rax,%rax
    eb21:	be 04 00 00 00       	mov    $0x4,%esi
    eb26:	bf 8a 9c ff ff       	mov    $0xffff9c8a,%edi
    eb2b:	e8 62 79 ff ff       	callq  6492 <safe_lshift_func_int16_t_s_s>
    eb30:	f7 d0                	not    %eax
    eb32:	0f b7 c0             	movzwl %ax,%eax
    eb35:	be 00 00 00 00       	mov    $0x0,%esi
    eb3a:	89 c7                	mov    %eax,%edi
    eb3c:	e8 fc 81 ff ff       	callq  6d3d <safe_mul_func_uint16_t_u_u>
    eb41:	0f b7 c0             	movzwl %ax,%eax
    eb44:	49 39 c7             	cmp    %rax,%r15
    eb47:	0f 93 c0             	setae  %al
    eb4a:	0f b6 c0             	movzbl %al,%eax
    eb4d:	44 89 f6             	mov    %r14d,%esi
    eb50:	89 c7                	mov    %eax,%edi
    eb52:	e8 d3 79 ff ff       	callq  652a <safe_rshift_func_int16_t_s_s>
    eb57:	98                   	cwtl   
    eb58:	44 89 ee             	mov    %r13d,%esi
    eb5b:	89 c7                	mov    %eax,%edi
    eb5d:	e8 9d 7b ff ff       	callq  66ff <safe_div_func_int32_t_s_s>
    eb62:	89 c2                	mov    %eax,%edx
    eb64:	48 8b 05 7d d1 00 00 	mov    0xd17d(%rip),%rax        # 1bce8 <g_1524>
    eb6b:	66 89 10             	mov    %dx,(%rax)
    eb6e:	0f b7 00             	movzwl (%rax),%eax
    eb71:	0f b7 c0             	movzwl %ax,%eax
    eb74:	44 89 e6             	mov    %r12d,%esi
    eb77:	89 c7                	mov    %eax,%edi
    eb79:	e8 bf 81 ff ff       	callq  6d3d <safe_mul_func_uint16_t_u_u>
    eb7e:	0f b6 c0             	movzbl %al,%eax
    eb81:	89 de                	mov    %ebx,%esi
    eb83:	89 c7                	mov    %eax,%edi
    eb85:	e8 d0 7f ff ff       	callq  6b5a <safe_add_func_uint8_t_u_u>
    eb8a:	0f b6 c0             	movzbl %al,%eax
    eb8d:	48 09 85 f8 f3 ff ff 	or     %rax,-0xc08(%rbp)
    eb94:	48 8b 05 e5 d0 00 00 	mov    0xd0e5(%rip),%rax        # 1bc80 <g_1349>
    eb9b:	48 8b 95 28 f2 ff ff 	mov    -0xdd8(%rbp),%rdx
    eba2:	89 10                	mov    %edx,(%rax)
    eba4:	8b 00                	mov    (%rax),%eax
    eba6:	89 85 c0 f2 ff ff    	mov    %eax,-0xd40(%rbp)
    ebac:	e9 f2 00 00 00       	jmpq   eca3 <func_34+0x26ce>
    ebb1:	c7 85 b4 f2 ff ff fc 	movl   $0xfffffffc,-0xd4c(%rbp)
    ebb8:	ff ff ff 
    ebbb:	c7 85 b8 f2 ff ff de 	movl   $0x3f4cf5de,-0xd48(%rbp)
    ebc2:	f5 4c 3f 
    ebc5:	c7 85 bc f2 ff ff 95 	movl   $0x2e88b695,-0xd44(%rbp)
    ebcc:	b6 88 2e 
    ebcf:	c7 85 f0 f7 ff ff 20 	movl   $0xba663e20,-0x810(%rbp)
    ebd6:	3e 66 ba 
    ebd9:	c7 85 f4 f7 ff ff 20 	movl   $0xba663e20,-0x80c(%rbp)
    ebe0:	3e 66 ba 
    ebe3:	c7 85 f8 f7 ff ff 20 	movl   $0xba663e20,-0x808(%rbp)
    ebea:	3e 66 ba 
    ebed:	c7 85 fc f7 ff ff 96 	movl   $0x2594e696,-0x804(%rbp)
    ebf4:	e6 94 25 
    ebf7:	c7 85 00 f8 ff ff 96 	movl   $0x2594e696,-0x800(%rbp)
    ebfe:	e6 94 25 
    ec01:	c7 85 04 f8 ff ff 96 	movl   $0x2594e696,-0x7fc(%rbp)
    ec08:	e6 94 25 
    ec0b:	c7 85 90 f2 ff ff 00 	movl   $0x0,-0xd70(%rbp)
    ec12:	00 00 00 
    ec15:	eb 1a                	jmp    ec31 <func_34+0x265c>
    ec17:	8b 85 90 f2 ff ff    	mov    -0xd70(%rbp),%eax
    ec1d:	48 98                	cltq   
    ec1f:	c7 84 85 b0 f6 ff ff 	movl   $0x0,-0x950(%rbp,%rax,4)
    ec26:	00 00 00 00 
    ec2a:	83 85 90 f2 ff ff 01 	addl   $0x1,-0xd70(%rbp)
    ec31:	83 bd 90 f2 ff ff 01 	cmpl   $0x1,-0xd70(%rbp)
    ec38:	7e dd                	jle    ec17 <func_34+0x2642>
    ec3a:	8b 85 f4 f7 ff ff    	mov    -0x80c(%rbp),%eax
    ec40:	83 e8 01             	sub    $0x1,%eax
    ec43:	89 85 f4 f7 ff ff    	mov    %eax,-0x80c(%rbp)
    ec49:	c7 85 74 f2 ff ff 04 	movl   $0x4,-0xd8c(%rbp)
    ec50:	00 00 00 
    ec53:	eb 41                	jmp    ec96 <func_34+0x26c1>
    ec55:	48 8d 05 84 c6 00 00 	lea    0xc684(%rip),%rax        # 1b2e0 <g_223>
    ec5c:	48 89 85 f0 f3 ff ff 	mov    %rax,-0xc10(%rbp)
    ec63:	8b 85 74 f2 ff ff    	mov    -0xd8c(%rbp),%eax
    ec69:	48 98                	cltq   
    ec6b:	48 8b 94 c5 40 f4 ff 	mov    -0xbc0(%rbp,%rax,8),%rdx
    ec72:	ff 
    ec73:	48 8b 85 f0 f3 ff ff 	mov    -0xc10(%rbp),%rax
    ec7a:	48 89 10             	mov    %rdx,(%rax)
    ec7d:	48 83 bd 28 f2 ff ff 	cmpq   $0x0,-0xdd8(%rbp)
    ec84:	00 
    ec85:	75 1b                	jne    eca2 <func_34+0x26cd>
    ec87:	8b 85 74 f2 ff ff    	mov    -0xd8c(%rbp),%eax
    ec8d:	83 e8 01             	sub    $0x1,%eax
    ec90:	89 85 74 f2 ff ff    	mov    %eax,-0xd8c(%rbp)
    ec96:	8b 85 74 f2 ff ff    	mov    -0xd8c(%rbp),%eax
    ec9c:	85 c0                	test   %eax,%eax
    ec9e:	79 b5                	jns    ec55 <func_34+0x2680>
    eca0:	eb 01                	jmp    eca3 <func_34+0x26ce>
    eca2:	90                   	nop
    eca3:	c7 85 9c f2 ff ff 00 	movl   $0x0,-0xd64(%rbp)
    ecaa:	00 00 00 
    ecad:	83 bd 9c f2 ff ff 00 	cmpl   $0x0,-0xd64(%rbp)
    ecb4:	75 7b                	jne    ed31 <func_34+0x275c>
    ecb6:	48 c7 85 00 f4 ff ff 	movq   $0x1,-0xc00(%rbp)
    ecbd:	01 00 00 00 
    ecc1:	48 8b 85 00 f4 ff ff 	mov    -0xc00(%rbp),%rax
    ecc8:	0f be d8             	movsbl %al,%ebx
    eccb:	be 0d 00 00 00       	mov    $0xd,%esi
    ecd0:	bf 14 8f ff ff       	mov    $0xffff8f14,%edi
    ecd5:	e8 b8 77 ff ff       	callq  6492 <safe_lshift_func_int16_t_s_s>
    ecda:	89 c2                	mov    %eax,%edx
    ecdc:	48 8b 05 fd cf 00 00 	mov    0xcffd(%rip),%rax        # 1bce0 <g_1499>
    ece3:	48 8b 00             	mov    (%rax),%rax
    ece6:	0f b6 08             	movzbl (%rax),%ecx
    ece9:	48 8b 05 f0 cf 00 00 	mov    0xcff0(%rip),%rax        # 1bce0 <g_1499>
    ecf0:	48 8b 00             	mov    (%rax),%rax
    ecf3:	09 ca                	or     %ecx,%edx
    ecf5:	88 10                	mov    %dl,(%rax)
    ecf7:	0f b6 00             	movzbl (%rax),%eax
    ecfa:	0f be c0             	movsbl %al,%eax
    ecfd:	89 de                	mov    %ebx,%esi
    ecff:	89 c7                	mov    %eax,%edi
    ed01:	e8 0c 75 ff ff       	callq  6212 <safe_mul_func_int8_t_s_s>
    ed06:	48 0f be c0          	movsbq %al,%rax
    ed0a:	25 c4 00 00 00       	and    $0xc4,%eax
    ed0f:	48 89 c2             	mov    %rax,%rdx
    ed12:	48 8b 85 a8 f3 ff ff 	mov    -0xc58(%rbp),%rax
    ed19:	8b 00                	mov    (%rax),%eax
    ed1b:	21 c2                	and    %eax,%edx
    ed1d:	48 8b 85 a8 f3 ff ff 	mov    -0xc58(%rbp),%rax
    ed24:	89 10                	mov    %edx,(%rax)
    ed26:	48 8b 05 73 d7 00 00 	mov    0xd773(%rip),%rax        # 1c4a0 <g_1822>
    ed2d:	8b 00                	mov    (%rax),%eax
    ed2f:	eb 71                	jmp    eda2 <func_34+0x27cd>
    ed31:	8b 85 9c f2 ff ff    	mov    -0xd64(%rbp),%eax
    ed37:	eb 69                	jmp    eda2 <func_34+0x27cd>
    ed39:	8b 05 26 c0 00 00    	mov    0xc026(%rip),%eax        # 1ad65 <g_1743+0x5>
    ed3f:	83 c0 01             	add    $0x1,%eax
    ed42:	89 05 1d c0 00 00    	mov    %eax,0xc01d(%rip)        # 1ad65 <g_1743+0x5>
    ed48:	8b 05 17 c0 00 00    	mov    0xc017(%rip),%eax        # 1ad65 <g_1743+0x5>
    ed4e:	85 c0                	test   %eax,%eax
    ed50:	0f 84 dd db ff ff    	je     c933 <func_34+0x35e>
    ed56:	48 c7 05 3f bc 00 00 	movq   $0x3,0xbc3f(%rip)        # 1a9a0 <g_796>
    ed5d:	03 00 00 00 
    ed61:	eb 2b                	jmp    ed8e <func_34+0x27b9>
    ed63:	48 8b 85 28 f2 ff ff 	mov    -0xdd8(%rbp),%rax
    ed6a:	89 c2                	mov    %eax,%edx
    ed6c:	0f b7 85 4c f2 ff ff 	movzwl -0xdb4(%rbp),%eax
    ed73:	31 d0                	xor    %edx,%eax
    ed75:	66 89 85 4c f2 ff ff 	mov    %ax,-0xdb4(%rbp)
    ed7c:	48 8b 05 1d bc 00 00 	mov    0xbc1d(%rip),%rax        # 1a9a0 <g_796>
    ed83:	48 83 c0 01          	add    $0x1,%rax
    ed87:	48 89 05 12 bc 00 00 	mov    %rax,0xbc12(%rip)        # 1a9a0 <g_796>
    ed8e:	48 8b 05 0b bc 00 00 	mov    0xbc0b(%rip),%rax        # 1a9a0 <g_796>
    ed95:	48 83 f8 20          	cmp    $0x20,%rax
    ed99:	75 c8                	jne    ed63 <func_34+0x278e>
    ed9b:	48 8b 85 28 f2 ff ff 	mov    -0xdd8(%rbp),%rax
    eda2:	48 8b 5d c8          	mov    -0x38(%rbp),%rbx
    eda6:	64 48 33 1c 25 28 00 	xor    %fs:0x28,%rbx
    edad:	00 00 
    edaf:	74 05                	je     edb6 <func_34+0x27e1>
    edb1:	e8 ba 72 ff ff       	callq  6070 <__stack_chk_fail@plt>
    edb6:	48 81 c4 b8 0d 00 00 	add    $0xdb8,%rsp
    edbd:	5b                   	pop    %rbx
    edbe:	41 5c                	pop    %r12
    edc0:	41 5d                	pop    %r13
    edc2:	41 5e                	pop    %r14
    edc4:	41 5f                	pop    %r15
    edc6:	5d                   	pop    %rbp
    edc7:	c3                   	retq   

000000000000edc8 <func_39>:
    edc8:	f3 0f 1e fa          	endbr64 
    edcc:	55                   	push   %rbp
    edcd:	48 89 e5             	mov    %rsp,%rbp
    edd0:	48 83 ec 60          	sub    $0x60,%rsp
    edd4:	89 75 b8             	mov    %esi,-0x48(%rbp)
    edd7:	89 d0                	mov    %edx,%eax
    edd9:	89 ca                	mov    %ecx,%edx
    eddb:	4c 89 45 a8          	mov    %r8,-0x58(%rbp)
    eddf:	89 f9                	mov    %edi,%ecx
    ede1:	88 4d bc             	mov    %cl,-0x44(%rbp)
    ede4:	66 89 45 b4          	mov    %ax,-0x4c(%rbp)
    ede8:	89 d0                	mov    %edx,%eax
    edea:	88 45 b0             	mov    %al,-0x50(%rbp)
    eded:	64 48 8b 04 25 28 00 	mov    %fs:0x28,%rax
    edf4:	00 00 
    edf6:	48 89 45 f8          	mov    %rax,-0x8(%rbp)
    edfa:	31 c0                	xor    %eax,%eax
    edfc:	c7 45 c8 02 00 00 00 	movl   $0x2,-0x38(%rbp)
    ee03:	48 8d 05 06 c5 00 00 	lea    0xc506(%rip),%rax        # 1b310 <g_403>
    ee0a:	48 89 45 d8          	mov    %rax,-0x28(%rbp)
    ee0e:	48 8d 05 55 bc 00 00 	lea    0xbc55(%rip),%rax        # 1aa6a <g_1452+0x2>
    ee15:	48 89 45 e0          	mov    %rax,-0x20(%rbp)
    ee19:	c7 45 cc 01 00 00 00 	movl   $0x1,-0x34(%rbp)
    ee20:	48 c7 45 e8 00 00 00 	movq   $0x0,-0x18(%rbp)
    ee27:	00 
    ee28:	48 c7 45 d0 00 00 00 	movq   $0x0,-0x30(%rbp)
    ee2f:	00 
    ee30:	48 8d 45 d0          	lea    -0x30(%rbp),%rax
    ee34:	48 89 45 f0          	mov    %rax,-0x10(%rbp)
    ee38:	8b 45 c8             	mov    -0x38(%rbp),%eax
    ee3b:	0f b6 d0             	movzbl %al,%edx
    ee3e:	48 8b 05 cb c4 00 00 	mov    0xc4cb(%rip),%rax        # 1b310 <g_403>
    ee45:	48 8b 00             	mov    (%rax),%rax
    ee48:	48 8b 08             	mov    (%rax),%rcx
    ee4b:	48 8b 45 d8          	mov    -0x28(%rbp),%rax
    ee4f:	48 8b 00             	mov    (%rax),%rax
    ee52:	48 8b 00             	mov    (%rax),%rax
    ee55:	48 8b 00             	mov    (%rax),%rax
    ee58:	48 89 ce             	mov    %rcx,%rsi
    ee5b:	48 89 c7             	mov    %rax,%rdi
    ee5e:	e8 58 31 00 00       	callq  11fbb <func_63>
    ee63:	48 8b 55 f0          	mov    -0x10(%rbp),%rdx
    ee67:	48 89 02             	mov    %rax,(%rdx)
    ee6a:	48 8b 45 f0          	mov    -0x10(%rbp),%rax
    ee6e:	48 8b 00             	mov    (%rax),%rax
    ee71:	48 85 c0             	test   %rax,%rax
    ee74:	0f 95 c0             	setne  %al
    ee77:	0f b6 c8             	movzbl %al,%ecx
    ee7a:	48 8b 05 1f d6 00 00 	mov    0xd61f(%rip),%rax        # 1c4a0 <g_1822>
    ee81:	8b 10                	mov    (%rax),%edx
    ee83:	09 ca                	or     %ecx,%edx
    ee85:	89 10                	mov    %edx,(%rax)
    ee87:	48 8b 05 7a c4 00 00 	mov    0xc47a(%rip),%rax        # 1b308 <g_404>
    ee8e:	48 8b 00             	mov    (%rax),%rax
    ee91:	48 8b 75 f8          	mov    -0x8(%rbp),%rsi
    ee95:	64 48 33 34 25 28 00 	xor    %fs:0x28,%rsi
    ee9c:	00 00 
    ee9e:	74 05                	je     eea5 <func_39+0xdd>
    eea0:	e8 cb 71 ff ff       	callq  6070 <__stack_chk_fail@plt>
    eea5:	c9                   	leaveq 
    eea6:	c3                   	retq   

000000000000eea7 <func_51>:
    eea7:	f3 0f 1e fa          	endbr64 
    eeab:	55                   	push   %rbp
    eeac:	48 89 e5             	mov    %rsp,%rbp
    eeaf:	41 57                	push   %r15
    eeb1:	41 56                	push   %r14
    eeb3:	41 55                	push   %r13
    eeb5:	41 54                	push   %r12
    eeb7:	53                   	push   %rbx
    eeb8:	48 81 ec 08 0d 00 00 	sub    $0xd08,%rsp
    eebf:	48 89 bd f8 f2 ff ff 	mov    %rdi,-0xd08(%rbp)
    eec6:	89 f0                	mov    %esi,%eax
    eec8:	48 89 95 e8 f2 ff ff 	mov    %rdx,-0xd18(%rbp)
    eecf:	48 89 8d e0 f2 ff ff 	mov    %rcx,-0xd20(%rbp)
    eed6:	44 89 85 f0 f2 ff ff 	mov    %r8d,-0xd10(%rbp)
    eedd:	88 85 f4 f2 ff ff    	mov    %al,-0xd0c(%rbp)
    eee3:	64 48 8b 04 25 28 00 	mov    %fs:0x28,%rax
    eeea:	00 00 
    eeec:	48 89 45 c8          	mov    %rax,-0x38(%rbp)
    eef0:	31 c0                	xor    %eax,%eax
    eef2:	48 c7 85 00 f5 ff ff 	movq   $0x0,-0xb00(%rbp)
    eef9:	00 00 00 00 
    eefd:	48 8d 05 c0 b1 00 00 	lea    0xb1c0(%rip),%rax        # 1a0c4 <g_322+0x4>
    ef04:	48 89 85 08 f5 ff ff 	mov    %rax,-0xaf8(%rbp)
    ef0b:	48 8d 05 b2 b1 00 00 	lea    0xb1b2(%rip),%rax        # 1a0c4 <g_322+0x4>
    ef12:	48 89 85 10 f5 ff ff 	mov    %rax,-0xaf0(%rbp)
    ef19:	48 c7 85 18 f5 ff ff 	movq   $0x0,-0xae8(%rbp)
    ef20:	00 00 00 00 
    ef24:	48 8d 05 99 b1 00 00 	lea    0xb199(%rip),%rax        # 1a0c4 <g_322+0x4>
    ef2b:	48 89 85 20 f5 ff ff 	mov    %rax,-0xae0(%rbp)
    ef32:	48 8d 05 8b b1 00 00 	lea    0xb18b(%rip),%rax        # 1a0c4 <g_322+0x4>
    ef39:	48 89 85 28 f5 ff ff 	mov    %rax,-0xad8(%rbp)
    ef40:	48 c7 85 30 f5 ff ff 	movq   $0x0,-0xad0(%rbp)
    ef47:	00 00 00 00 
    ef4b:	48 8d 05 72 b1 00 00 	lea    0xb172(%rip),%rax        # 1a0c4 <g_322+0x4>
    ef52:	48 89 85 38 f5 ff ff 	mov    %rax,-0xac8(%rbp)
    ef59:	48 8d 05 64 b1 00 00 	lea    0xb164(%rip),%rax        # 1a0c4 <g_322+0x4>
    ef60:	48 89 85 40 f5 ff ff 	mov    %rax,-0xac0(%rbp)
    ef67:	48 8d 05 d6 b0 00 00 	lea    0xb0d6(%rip),%rax        # 1a044 <g_104>
    ef6e:	48 89 85 c0 f4 ff ff 	mov    %rax,-0xb40(%rbp)
    ef75:	48 8d 05 c8 b0 00 00 	lea    0xb0c8(%rip),%rax        # 1a044 <g_104>
    ef7c:	48 89 85 c8 f4 ff ff 	mov    %rax,-0xb38(%rbp)
    ef83:	48 8d 05 ba b0 00 00 	lea    0xb0ba(%rip),%rax        # 1a044 <g_104>
    ef8a:	48 89 85 d0 f4 ff ff 	mov    %rax,-0xb30(%rbp)
    ef91:	48 8d 05 ac b0 00 00 	lea    0xb0ac(%rip),%rax        # 1a044 <g_104>
    ef98:	48 89 85 d8 f4 ff ff 	mov    %rax,-0xb28(%rbp)
    ef9f:	48 8d 05 9e b0 00 00 	lea    0xb09e(%rip),%rax        # 1a044 <g_104>
    efa6:	48 89 85 e0 f4 ff ff 	mov    %rax,-0xb20(%rbp)
    efad:	48 8d 05 90 b0 00 00 	lea    0xb090(%rip),%rax        # 1a044 <g_104>
    efb4:	48 89 85 e8 f4 ff ff 	mov    %rax,-0xb18(%rbp)
    efbb:	48 8d 05 82 b0 00 00 	lea    0xb082(%rip),%rax        # 1a044 <g_104>
    efc2:	48 89 85 f0 f4 ff ff 	mov    %rax,-0xb10(%rbp)
    efc9:	48 8d 05 74 b0 00 00 	lea    0xb074(%rip),%rax        # 1a044 <g_104>
    efd0:	48 89 85 f8 f4 ff ff 	mov    %rax,-0xb08(%rbp)
    efd7:	48 c7 85 a8 f3 ff ff 	movq   $0x1,-0xc58(%rbp)
    efde:	01 00 00 00 
    efe2:	48 c7 85 b0 f3 ff ff 	movq   $0x0,-0xc50(%rbp)
    efe9:	00 00 00 00 
    efed:	48 8d 05 84 cc 00 00 	lea    0xcc84(%rip),%rax        # 1bc78 <g_1308+0x8>
    eff4:	48 89 85 68 f3 ff ff 	mov    %rax,-0xc98(%rbp)
    effb:	48 8d 05 6e cc 00 00 	lea    0xcc6e(%rip),%rax        # 1bc70 <g_1308>
    f002:	48 89 85 70 f3 ff ff 	mov    %rax,-0xc90(%rbp)
    f009:	48 c7 85 90 fb ff ff 	movq   $0x0,-0x470(%rbp)
    f010:	00 00 00 00 
    f014:	48 c7 85 98 fb ff ff 	movq   $0x0,-0x468(%rbp)
    f01b:	00 00 00 00 
    f01f:	48 c7 85 a0 fb ff ff 	movq   $0x0,-0x460(%rbp)
    f026:	00 00 00 00 
    f02a:	48 c7 85 a8 fb ff ff 	movq   $0x0,-0x458(%rbp)
    f031:	00 00 00 00 
    f035:	48 8d 85 68 f3 ff ff 	lea    -0xc98(%rbp),%rax
    f03c:	48 89 85 b0 fb ff ff 	mov    %rax,-0x450(%rbp)
    f043:	48 8d 85 70 f3 ff ff 	lea    -0xc90(%rbp),%rax
    f04a:	48 89 85 b8 fb ff ff 	mov    %rax,-0x448(%rbp)
    f051:	48 8d 85 70 f3 ff ff 	lea    -0xc90(%rbp),%rax
    f058:	48 89 85 c0 fb ff ff 	mov    %rax,-0x440(%rbp)
    f05f:	48 c7 85 c8 fb ff ff 	movq   $0x0,-0x438(%rbp)
    f066:	00 00 00 00 
    f06a:	48 8d 85 70 f3 ff ff 	lea    -0xc90(%rbp),%rax
    f071:	48 89 85 d0 fb ff ff 	mov    %rax,-0x430(%rbp)
    f078:	48 8d 85 68 f3 ff ff 	lea    -0xc98(%rbp),%rax
    f07f:	48 89 85 d8 fb ff ff 	mov    %rax,-0x428(%rbp)
    f086:	48 c7 85 e0 fb ff ff 	movq   $0x0,-0x420(%rbp)
    f08d:	00 00 00 00 
    f091:	48 8d 85 68 f3 ff ff 	lea    -0xc98(%rbp),%rax
    f098:	48 89 85 e8 fb ff ff 	mov    %rax,-0x418(%rbp)
    f09f:	48 c7 85 f0 fb ff ff 	movq   $0x0,-0x410(%rbp)
    f0a6:	00 00 00 00 
    f0aa:	48 8d 85 70 f3 ff ff 	lea    -0xc90(%rbp),%rax
    f0b1:	48 89 85 f8 fb ff ff 	mov    %rax,-0x408(%rbp)
    f0b8:	48 8d 85 70 f3 ff ff 	lea    -0xc90(%rbp),%rax
    f0bf:	48 89 85 00 fc ff ff 	mov    %rax,-0x400(%rbp)
    f0c6:	48 c7 85 08 fc ff ff 	movq   $0x0,-0x3f8(%rbp)
    f0cd:	00 00 00 00 
    f0d1:	48 8d 85 68 f3 ff ff 	lea    -0xc98(%rbp),%rax
    f0d8:	48 89 85 10 fc ff ff 	mov    %rax,-0x3f0(%rbp)
    f0df:	48 8d 85 70 f3 ff ff 	lea    -0xc90(%rbp),%rax
    f0e6:	48 89 85 18 fc ff ff 	mov    %rax,-0x3e8(%rbp)
    f0ed:	48 8d 85 68 f3 ff ff 	lea    -0xc98(%rbp),%rax
    f0f4:	48 89 85 20 fc ff ff 	mov    %rax,-0x3e0(%rbp)
    f0fb:	48 c7 85 28 fc ff ff 	movq   $0x0,-0x3d8(%rbp)
    f102:	00 00 00 00 
    f106:	48 c7 85 30 fc ff ff 	movq   $0x0,-0x3d0(%rbp)
    f10d:	00 00 00 00 
    f111:	48 c7 85 38 fc ff ff 	movq   $0x0,-0x3c8(%rbp)
    f118:	00 00 00 00 
    f11c:	48 c7 85 40 fc ff ff 	movq   $0x0,-0x3c0(%rbp)
    f123:	00 00 00 00 
    f127:	48 8d 85 68 f3 ff ff 	lea    -0xc98(%rbp),%rax
    f12e:	48 89 85 48 fc ff ff 	mov    %rax,-0x3b8(%rbp)
    f135:	48 c7 85 50 fc ff ff 	movq   $0x0,-0x3b0(%rbp)
    f13c:	00 00 00 00 
    f140:	48 8d 85 68 f3 ff ff 	lea    -0xc98(%rbp),%rax
    f147:	48 89 85 58 fc ff ff 	mov    %rax,-0x3a8(%rbp)
    f14e:	48 8d 85 68 f3 ff ff 	lea    -0xc98(%rbp),%rax
    f155:	48 89 85 60 fc ff ff 	mov    %rax,-0x3a0(%rbp)
    f15c:	48 8d 85 68 f3 ff ff 	lea    -0xc98(%rbp),%rax
    f163:	48 89 85 68 fc ff ff 	mov    %rax,-0x398(%rbp)
    f16a:	48 c7 85 70 fc ff ff 	movq   $0x0,-0x390(%rbp)
    f171:	00 00 00 00 
    f175:	48 8d 85 68 f3 ff ff 	lea    -0xc98(%rbp),%rax
    f17c:	48 89 85 78 fc ff ff 	mov    %rax,-0x388(%rbp)
    f183:	48 8d 85 70 f3 ff ff 	lea    -0xc90(%rbp),%rax
    f18a:	48 89 85 80 fc ff ff 	mov    %rax,-0x380(%rbp)
    f191:	48 c7 85 88 fc ff ff 	movq   $0x0,-0x378(%rbp)
    f198:	00 00 00 00 
    f19c:	48 8d 85 70 f3 ff ff 	lea    -0xc90(%rbp),%rax
    f1a3:	48 89 85 90 fc ff ff 	mov    %rax,-0x370(%rbp)
    f1aa:	48 c7 85 98 fc ff ff 	movq   $0x0,-0x368(%rbp)
    f1b1:	00 00 00 00 
    f1b5:	48 8d 85 68 f3 ff ff 	lea    -0xc98(%rbp),%rax
    f1bc:	48 89 85 a0 fc ff ff 	mov    %rax,-0x360(%rbp)
    f1c3:	48 8d 85 68 f3 ff ff 	lea    -0xc98(%rbp),%rax
    f1ca:	48 89 85 a8 fc ff ff 	mov    %rax,-0x358(%rbp)
    f1d1:	48 c7 85 b0 fc ff ff 	movq   $0x0,-0x350(%rbp)
    f1d8:	00 00 00 00 
    f1dc:	48 8d 85 70 f3 ff ff 	lea    -0xc90(%rbp),%rax
    f1e3:	48 89 85 b8 fc ff ff 	mov    %rax,-0x348(%rbp)
    f1ea:	48 8d 85 68 f3 ff ff 	lea    -0xc98(%rbp),%rax
    f1f1:	48 89 85 c0 fc ff ff 	mov    %rax,-0x340(%rbp)
    f1f8:	48 8d 85 68 f3 ff ff 	lea    -0xc98(%rbp),%rax
    f1ff:	48 89 85 c8 fc ff ff 	mov    %rax,-0x338(%rbp)
    f206:	48 c7 85 d0 fc ff ff 	movq   $0x0,-0x330(%rbp)
    f20d:	00 00 00 00 
    f211:	48 8d 85 68 f3 ff ff 	lea    -0xc98(%rbp),%rax
    f218:	48 89 85 d8 fc ff ff 	mov    %rax,-0x328(%rbp)
    f21f:	48 c7 85 e0 fc ff ff 	movq   $0x0,-0x320(%rbp)
    f226:	00 00 00 00 
    f22a:	48 c7 85 e8 fc ff ff 	movq   $0x0,-0x318(%rbp)
    f231:	00 00 00 00 
    f235:	48 c7 85 f0 fc ff ff 	movq   $0x0,-0x310(%rbp)
    f23c:	00 00 00 00 
    f240:	48 c7 85 f8 fc ff ff 	movq   $0x0,-0x308(%rbp)
    f247:	00 00 00 00 
    f24b:	48 8d 85 68 f3 ff ff 	lea    -0xc98(%rbp),%rax
    f252:	48 89 85 00 fd ff ff 	mov    %rax,-0x300(%rbp)
    f259:	48 8d 85 70 f3 ff ff 	lea    -0xc90(%rbp),%rax
    f260:	48 89 85 08 fd ff ff 	mov    %rax,-0x2f8(%rbp)
    f267:	48 8d 85 70 f3 ff ff 	lea    -0xc90(%rbp),%rax
    f26e:	48 89 85 10 fd ff ff 	mov    %rax,-0x2f0(%rbp)
    f275:	48 c7 85 18 fd ff ff 	movq   $0x0,-0x2e8(%rbp)
    f27c:	00 00 00 00 
    f280:	48 8d 85 70 f3 ff ff 	lea    -0xc90(%rbp),%rax
    f287:	48 89 85 20 fd ff ff 	mov    %rax,-0x2e0(%rbp)
    f28e:	48 8d 85 68 f3 ff ff 	lea    -0xc98(%rbp),%rax
    f295:	48 89 85 28 fd ff ff 	mov    %rax,-0x2d8(%rbp)
    f29c:	48 c7 85 30 fd ff ff 	movq   $0x0,-0x2d0(%rbp)
    f2a3:	00 00 00 00 
    f2a7:	48 8d 85 68 f3 ff ff 	lea    -0xc98(%rbp),%rax
    f2ae:	48 89 85 38 fd ff ff 	mov    %rax,-0x2c8(%rbp)
    f2b5:	48 c7 85 40 fd ff ff 	movq   $0x0,-0x2c0(%rbp)
    f2bc:	00 00 00 00 
    f2c0:	48 8d 85 70 f3 ff ff 	lea    -0xc90(%rbp),%rax
    f2c7:	48 89 85 48 fd ff ff 	mov    %rax,-0x2b8(%rbp)
    f2ce:	48 8d 85 70 f3 ff ff 	lea    -0xc90(%rbp),%rax
    f2d5:	48 89 85 50 fd ff ff 	mov    %rax,-0x2b0(%rbp)
    f2dc:	48 c7 85 58 fd ff ff 	movq   $0x0,-0x2a8(%rbp)
    f2e3:	00 00 00 00 
    f2e7:	48 8d 85 68 f3 ff ff 	lea    -0xc98(%rbp),%rax
    f2ee:	48 89 85 60 fd ff ff 	mov    %rax,-0x2a0(%rbp)
    f2f5:	48 8d 85 70 f3 ff ff 	lea    -0xc90(%rbp),%rax
    f2fc:	48 89 85 68 fd ff ff 	mov    %rax,-0x298(%rbp)
    f303:	48 8d 85 68 f3 ff ff 	lea    -0xc98(%rbp),%rax
    f30a:	48 89 85 70 fd ff ff 	mov    %rax,-0x290(%rbp)
    f311:	48 c7 85 78 fd ff ff 	movq   $0x0,-0x288(%rbp)
    f318:	00 00 00 00 
    f31c:	48 c7 85 80 fd ff ff 	movq   $0x0,-0x280(%rbp)
    f323:	00 00 00 00 
    f327:	48 c7 85 88 fd ff ff 	movq   $0x0,-0x278(%rbp)
    f32e:	00 00 00 00 
    f332:	48 c7 85 90 fd ff ff 	movq   $0x0,-0x270(%rbp)
    f339:	00 00 00 00 
    f33d:	48 8d 85 68 f3 ff ff 	lea    -0xc98(%rbp),%rax
    f344:	48 89 85 98 fd ff ff 	mov    %rax,-0x268(%rbp)
    f34b:	48 c7 85 a0 fd ff ff 	movq   $0x0,-0x260(%rbp)
    f352:	00 00 00 00 
    f356:	48 8d 85 68 f3 ff ff 	lea    -0xc98(%rbp),%rax
    f35d:	48 89 85 a8 fd ff ff 	mov    %rax,-0x258(%rbp)
    f364:	48 8d 85 68 f3 ff ff 	lea    -0xc98(%rbp),%rax
    f36b:	48 89 85 b0 fd ff ff 	mov    %rax,-0x250(%rbp)
    f372:	48 8d 85 68 f3 ff ff 	lea    -0xc98(%rbp),%rax
    f379:	48 89 85 b8 fd ff ff 	mov    %rax,-0x248(%rbp)
    f380:	48 c7 85 c0 fd ff ff 	movq   $0x0,-0x240(%rbp)
    f387:	00 00 00 00 
    f38b:	48 8d 85 68 f3 ff ff 	lea    -0xc98(%rbp),%rax
    f392:	48 89 85 c8 fd ff ff 	mov    %rax,-0x238(%rbp)
    f399:	48 8d 85 70 f3 ff ff 	lea    -0xc90(%rbp),%rax
    f3a0:	48 89 85 d0 fd ff ff 	mov    %rax,-0x230(%rbp)
    f3a7:	48 c7 85 d8 fd ff ff 	movq   $0x0,-0x228(%rbp)
    f3ae:	00 00 00 00 
    f3b2:	48 8d 85 70 f3 ff ff 	lea    -0xc90(%rbp),%rax
    f3b9:	48 89 85 e0 fd ff ff 	mov    %rax,-0x220(%rbp)
    f3c0:	48 c7 85 e8 fd ff ff 	movq   $0x0,-0x218(%rbp)
    f3c7:	00 00 00 00 
    f3cb:	48 8d 85 68 f3 ff ff 	lea    -0xc98(%rbp),%rax
    f3d2:	48 89 85 f0 fd ff ff 	mov    %rax,-0x210(%rbp)
    f3d9:	48 8d 85 68 f3 ff ff 	lea    -0xc98(%rbp),%rax
    f3e0:	48 89 85 f8 fd ff ff 	mov    %rax,-0x208(%rbp)
    f3e7:	48 c7 85 00 fe ff ff 	movq   $0x0,-0x200(%rbp)
    f3ee:	00 00 00 00 
    f3f2:	48 8d 85 70 f3 ff ff 	lea    -0xc90(%rbp),%rax
    f3f9:	48 89 85 08 fe ff ff 	mov    %rax,-0x1f8(%rbp)
    f400:	48 8d 85 68 f3 ff ff 	lea    -0xc98(%rbp),%rax
    f407:	48 89 85 10 fe ff ff 	mov    %rax,-0x1f0(%rbp)
    f40e:	48 8d 85 68 f3 ff ff 	lea    -0xc98(%rbp),%rax
    f415:	48 89 85 18 fe ff ff 	mov    %rax,-0x1e8(%rbp)
    f41c:	48 c7 85 20 fe ff ff 	movq   $0x0,-0x1e0(%rbp)
    f423:	00 00 00 00 
    f427:	48 8d 85 68 f3 ff ff 	lea    -0xc98(%rbp),%rax
    f42e:	48 89 85 28 fe ff ff 	mov    %rax,-0x1d8(%rbp)
    f435:	48 c7 85 30 fe ff ff 	movq   $0x0,-0x1d0(%rbp)
    f43c:	00 00 00 00 
    f440:	48 c7 85 38 fe ff ff 	movq   $0x0,-0x1c8(%rbp)
    f447:	00 00 00 00 
    f44b:	48 c7 85 40 fe ff ff 	movq   $0x0,-0x1c0(%rbp)
    f452:	00 00 00 00 
    f456:	48 c7 85 48 fe ff ff 	movq   $0x0,-0x1b8(%rbp)
    f45d:	00 00 00 00 
    f461:	48 8d 85 68 f3 ff ff 	lea    -0xc98(%rbp),%rax
    f468:	48 89 85 50 fe ff ff 	mov    %rax,-0x1b0(%rbp)
    f46f:	48 8d 85 70 f3 ff ff 	lea    -0xc90(%rbp),%rax
    f476:	48 89 85 58 fe ff ff 	mov    %rax,-0x1a8(%rbp)
    f47d:	48 8d 85 70 f3 ff ff 	lea    -0xc90(%rbp),%rax
    f484:	48 89 85 60 fe ff ff 	mov    %rax,-0x1a0(%rbp)
    f48b:	48 c7 85 68 fe ff ff 	movq   $0x0,-0x198(%rbp)
    f492:	00 00 00 00 
    f496:	48 8d 85 70 f3 ff ff 	lea    -0xc90(%rbp),%rax
    f49d:	48 89 85 70 fe ff ff 	mov    %rax,-0x190(%rbp)
    f4a4:	48 8d 85 68 f3 ff ff 	lea    -0xc98(%rbp),%rax
    f4ab:	48 89 85 78 fe ff ff 	mov    %rax,-0x188(%rbp)
    f4b2:	48 c7 85 80 fe ff ff 	movq   $0x0,-0x180(%rbp)
    f4b9:	00 00 00 00 
    f4bd:	48 8d 85 68 f3 ff ff 	lea    -0xc98(%rbp),%rax
    f4c4:	48 89 85 88 fe ff ff 	mov    %rax,-0x178(%rbp)
    f4cb:	48 c7 85 90 fe ff ff 	movq   $0x0,-0x170(%rbp)
    f4d2:	00 00 00 00 
    f4d6:	48 8d 85 70 f3 ff ff 	lea    -0xc90(%rbp),%rax
    f4dd:	48 89 85 98 fe ff ff 	mov    %rax,-0x168(%rbp)
    f4e4:	48 8d 85 70 f3 ff ff 	lea    -0xc90(%rbp),%rax
    f4eb:	48 89 85 a0 fe ff ff 	mov    %rax,-0x160(%rbp)
    f4f2:	48 c7 85 a8 fe ff ff 	movq   $0x0,-0x158(%rbp)
    f4f9:	00 00 00 00 
    f4fd:	48 8d 85 68 f3 ff ff 	lea    -0xc98(%rbp),%rax
    f504:	48 89 85 b0 fe ff ff 	mov    %rax,-0x150(%rbp)
    f50b:	48 8d 85 70 f3 ff ff 	lea    -0xc90(%rbp),%rax
    f512:	48 89 85 b8 fe ff ff 	mov    %rax,-0x148(%rbp)
    f519:	48 8d 85 68 f3 ff ff 	lea    -0xc98(%rbp),%rax
    f520:	48 89 85 c0 fe ff ff 	mov    %rax,-0x140(%rbp)
    f527:	48 c7 85 c8 fe ff ff 	movq   $0x0,-0x138(%rbp)
    f52e:	00 00 00 00 
    f532:	48 c7 85 d0 fe ff ff 	movq   $0x0,-0x130(%rbp)
    f539:	00 00 00 00 
    f53d:	48 c7 85 d8 fe ff ff 	movq   $0x0,-0x128(%rbp)
    f544:	00 00 00 00 
    f548:	48 c7 85 e0 fe ff ff 	movq   $0x0,-0x120(%rbp)
    f54f:	00 00 00 00 
    f553:	48 8d 85 68 f3 ff ff 	lea    -0xc98(%rbp),%rax
    f55a:	48 89 85 e8 fe ff ff 	mov    %rax,-0x118(%rbp)
    f561:	48 c7 85 f0 fe ff ff 	movq   $0x0,-0x110(%rbp)
    f568:	00 00 00 00 
    f56c:	48 8d 85 68 f3 ff ff 	lea    -0xc98(%rbp),%rax
    f573:	48 89 85 f8 fe ff ff 	mov    %rax,-0x108(%rbp)
    f57a:	48 8d 85 68 f3 ff ff 	lea    -0xc98(%rbp),%rax
    f581:	48 89 85 00 ff ff ff 	mov    %rax,-0x100(%rbp)
    f588:	48 8d 85 68 f3 ff ff 	lea    -0xc98(%rbp),%rax
    f58f:	48 89 85 08 ff ff ff 	mov    %rax,-0xf8(%rbp)
    f596:	48 c7 85 10 ff ff ff 	movq   $0x0,-0xf0(%rbp)
    f59d:	00 00 00 00 
    f5a1:	48 8d 85 68 f3 ff ff 	lea    -0xc98(%rbp),%rax
    f5a8:	48 89 85 18 ff ff ff 	mov    %rax,-0xe8(%rbp)
    f5af:	48 8d 85 70 f3 ff ff 	lea    -0xc90(%rbp),%rax
    f5b6:	48 89 85 20 ff ff ff 	mov    %rax,-0xe0(%rbp)
    f5bd:	48 c7 85 28 ff ff ff 	movq   $0x0,-0xd8(%rbp)
    f5c4:	00 00 00 00 
    f5c8:	48 8d 85 70 f3 ff ff 	lea    -0xc90(%rbp),%rax
    f5cf:	48 89 85 30 ff ff ff 	mov    %rax,-0xd0(%rbp)
    f5d6:	48 c7 85 38 ff ff ff 	movq   $0x0,-0xc8(%rbp)
    f5dd:	00 00 00 00 
    f5e1:	48 8d 85 68 f3 ff ff 	lea    -0xc98(%rbp),%rax
    f5e8:	48 89 85 40 ff ff ff 	mov    %rax,-0xc0(%rbp)
    f5ef:	48 8d 85 68 f3 ff ff 	lea    -0xc98(%rbp),%rax
    f5f6:	48 89 85 48 ff ff ff 	mov    %rax,-0xb8(%rbp)
    f5fd:	48 c7 85 50 ff ff ff 	movq   $0x0,-0xb0(%rbp)
    f604:	00 00 00 00 
    f608:	48 8d 85 70 f3 ff ff 	lea    -0xc90(%rbp),%rax
    f60f:	48 89 85 58 ff ff ff 	mov    %rax,-0xa8(%rbp)
    f616:	48 8d 85 68 f3 ff ff 	lea    -0xc98(%rbp),%rax
    f61d:	48 89 85 60 ff ff ff 	mov    %rax,-0xa0(%rbp)
    f624:	48 8d 85 68 f3 ff ff 	lea    -0xc98(%rbp),%rax
    f62b:	48 89 85 68 ff ff ff 	mov    %rax,-0x98(%rbp)
    f632:	48 c7 85 70 ff ff ff 	movq   $0x0,-0x90(%rbp)
    f639:	00 00 00 00 
    f63d:	48 8d 85 68 f3 ff ff 	lea    -0xc98(%rbp),%rax
    f644:	48 89 85 78 ff ff ff 	mov    %rax,-0x88(%rbp)
    f64b:	48 c7 45 80 00 00 00 	movq   $0x0,-0x80(%rbp)
    f652:	00 
    f653:	48 c7 45 88 00 00 00 	movq   $0x0,-0x78(%rbp)
    f65a:	00 
    f65b:	48 c7 45 90 00 00 00 	movq   $0x0,-0x70(%rbp)
    f662:	00 
    f663:	48 c7 45 98 00 00 00 	movq   $0x0,-0x68(%rbp)
    f66a:	00 
    f66b:	48 8d 85 68 f3 ff ff 	lea    -0xc98(%rbp),%rax
    f672:	48 89 45 a0          	mov    %rax,-0x60(%rbp)
    f676:	48 8d 85 70 f3 ff ff 	lea    -0xc90(%rbp),%rax
    f67d:	48 89 45 a8          	mov    %rax,-0x58(%rbp)
    f681:	48 8d 85 70 f3 ff ff 	lea    -0xc90(%rbp),%rax
    f688:	48 89 45 b0          	mov    %rax,-0x50(%rbp)
    f68c:	48 c7 45 b8 00 00 00 	movq   $0x0,-0x48(%rbp)
    f693:	00 
    f694:	48 8d 85 70 f3 ff ff 	lea    -0xc90(%rbp),%rax
    f69b:	48 89 45 c0          	mov    %rax,-0x40(%rbp)
    f69f:	48 8d 05 1a bc 00 00 	lea    0xbc1a(%rip),%rax        # 1b2c0 <g_138>
    f6a6:	48 89 85 78 f3 ff ff 	mov    %rax,-0xc88(%rbp)
    f6ad:	48 c7 85 a0 f7 ff ff 	movq   $0x0,-0x860(%rbp)
    f6b4:	00 00 00 00 
    f6b8:	48 8d 85 78 f3 ff ff 	lea    -0xc88(%rbp),%rax
    f6bf:	48 89 85 a8 f7 ff ff 	mov    %rax,-0x858(%rbp)
    f6c6:	48 8d 05 fb bb 00 00 	lea    0xbbfb(%rip),%rax        # 1b2c8 <g_137>
    f6cd:	48 89 85 b0 f7 ff ff 	mov    %rax,-0x850(%rbp)
    f6d4:	48 8d 85 78 f3 ff ff 	lea    -0xc88(%rbp),%rax
    f6db:	48 89 85 b8 f7 ff ff 	mov    %rax,-0x848(%rbp)
    f6e2:	48 8d 05 df bb 00 00 	lea    0xbbdf(%rip),%rax        # 1b2c8 <g_137>
    f6e9:	48 89 85 c0 f7 ff ff 	mov    %rax,-0x840(%rbp)
    f6f0:	48 8d 85 78 f3 ff ff 	lea    -0xc88(%rbp),%rax
    f6f7:	48 89 85 c8 f7 ff ff 	mov    %rax,-0x838(%rbp)
    f6fe:	48 8d 05 c3 bb 00 00 	lea    0xbbc3(%rip),%rax        # 1b2c8 <g_137>
    f705:	48 89 85 d0 f7 ff ff 	mov    %rax,-0x830(%rbp)
    f70c:	48 8d 85 78 f3 ff ff 	lea    -0xc88(%rbp),%rax
    f713:	48 89 85 d8 f7 ff ff 	mov    %rax,-0x828(%rbp)
    f71a:	48 8d 85 78 f3 ff ff 	lea    -0xc88(%rbp),%rax
    f721:	48 89 85 e0 f7 ff ff 	mov    %rax,-0x820(%rbp)
    f728:	48 8d 85 78 f3 ff ff 	lea    -0xc88(%rbp),%rax
    f72f:	48 89 85 e8 f7 ff ff 	mov    %rax,-0x818(%rbp)
    f736:	48 8d 85 78 f3 ff ff 	lea    -0xc88(%rbp),%rax
    f73d:	48 89 85 f0 f7 ff ff 	mov    %rax,-0x810(%rbp)
    f744:	48 c7 85 f8 f7 ff ff 	movq   $0x0,-0x808(%rbp)
    f74b:	00 00 00 00 
    f74f:	48 8d 05 72 bb 00 00 	lea    0xbb72(%rip),%rax        # 1b2c8 <g_137>
    f756:	48 89 85 00 f8 ff ff 	mov    %rax,-0x800(%rbp)
    f75d:	48 8d 85 78 f3 ff ff 	lea    -0xc88(%rbp),%rax
    f764:	48 89 85 08 f8 ff ff 	mov    %rax,-0x7f8(%rbp)
    f76b:	48 c7 85 10 f8 ff ff 	movq   $0x0,-0x7f0(%rbp)
    f772:	00 00 00 00 
    f776:	48 8d 05 4b bb 00 00 	lea    0xbb4b(%rip),%rax        # 1b2c8 <g_137>
    f77d:	48 89 85 18 f8 ff ff 	mov    %rax,-0x7e8(%rbp)
    f784:	48 8d 85 78 f3 ff ff 	lea    -0xc88(%rbp),%rax
    f78b:	48 89 85 20 f8 ff ff 	mov    %rax,-0x7e0(%rbp)
    f792:	48 8d 05 2f bb 00 00 	lea    0xbb2f(%rip),%rax        # 1b2c8 <g_137>
    f799:	48 89 85 28 f8 ff ff 	mov    %rax,-0x7d8(%rbp)
    f7a0:	48 8d 85 78 f3 ff ff 	lea    -0xc88(%rbp),%rax
    f7a7:	48 89 85 30 f8 ff ff 	mov    %rax,-0x7d0(%rbp)
    f7ae:	48 8d 85 78 f3 ff ff 	lea    -0xc88(%rbp),%rax
    f7b5:	48 89 85 38 f8 ff ff 	mov    %rax,-0x7c8(%rbp)
    f7bc:	48 8d 85 78 f3 ff ff 	lea    -0xc88(%rbp),%rax
    f7c3:	48 89 85 40 f8 ff ff 	mov    %rax,-0x7c0(%rbp)
    f7ca:	48 8d 85 78 f3 ff ff 	lea    -0xc88(%rbp),%rax
    f7d1:	48 89 85 48 f8 ff ff 	mov    %rax,-0x7b8(%rbp)
    f7d8:	48 c7 85 50 f8 ff ff 	movq   $0x0,-0x7b0(%rbp)
    f7df:	00 00 00 00 
    f7e3:	48 8d 85 78 f3 ff ff 	lea    -0xc88(%rbp),%rax
    f7ea:	48 89 85 58 f8 ff ff 	mov    %rax,-0x7a8(%rbp)
    f7f1:	48 8d 05 d0 ba 00 00 	lea    0xbad0(%rip),%rax        # 1b2c8 <g_137>
    f7f8:	48 89 85 60 f8 ff ff 	mov    %rax,-0x7a0(%rbp)
    f7ff:	48 8d 85 78 f3 ff ff 	lea    -0xc88(%rbp),%rax
    f806:	48 89 85 68 f8 ff ff 	mov    %rax,-0x798(%rbp)
    f80d:	48 8d 85 78 f3 ff ff 	lea    -0xc88(%rbp),%rax
    f814:	48 89 85 70 f8 ff ff 	mov    %rax,-0x790(%rbp)
    f81b:	48 8d 85 78 f3 ff ff 	lea    -0xc88(%rbp),%rax
    f822:	48 89 85 78 f8 ff ff 	mov    %rax,-0x788(%rbp)
    f829:	48 8d 05 98 ba 00 00 	lea    0xba98(%rip),%rax        # 1b2c8 <g_137>
    f830:	48 89 85 80 f8 ff ff 	mov    %rax,-0x780(%rbp)
    f837:	48 c7 85 88 f8 ff ff 	movq   $0x0,-0x778(%rbp)
    f83e:	00 00 00 00 
    f842:	48 8d 05 7f ba 00 00 	lea    0xba7f(%rip),%rax        # 1b2c8 <g_137>
    f849:	48 89 85 90 f8 ff ff 	mov    %rax,-0x770(%rbp)
    f850:	48 8d 85 78 f3 ff ff 	lea    -0xc88(%rbp),%rax
    f857:	48 89 85 98 f8 ff ff 	mov    %rax,-0x768(%rbp)
    f85e:	48 c7 85 a0 f8 ff ff 	movq   $0x0,-0x760(%rbp)
    f865:	00 00 00 00 
    f869:	48 c7 85 a8 f8 ff ff 	movq   $0x0,-0x758(%rbp)
    f870:	00 00 00 00 
    f874:	48 c7 85 b0 f8 ff ff 	movq   $0x0,-0x750(%rbp)
    f87b:	00 00 00 00 
    f87f:	48 8d 85 78 f3 ff ff 	lea    -0xc88(%rbp),%rax
    f886:	48 89 85 b8 f8 ff ff 	mov    %rax,-0x748(%rbp)
    f88d:	48 c7 85 c0 f8 ff ff 	movq   $0x0,-0x740(%rbp)
    f894:	00 00 00 00 
    f898:	48 8d 85 78 f3 ff ff 	lea    -0xc88(%rbp),%rax
    f89f:	48 89 85 c8 f8 ff ff 	mov    %rax,-0x738(%rbp)
    f8a6:	48 8d 05 1b ba 00 00 	lea    0xba1b(%rip),%rax        # 1b2c8 <g_137>
    f8ad:	48 89 85 d0 f8 ff ff 	mov    %rax,-0x730(%rbp)
    f8b4:	48 8d 85 78 f3 ff ff 	lea    -0xc88(%rbp),%rax
    f8bb:	48 89 85 d8 f8 ff ff 	mov    %rax,-0x728(%rbp)
    f8c2:	48 8d 85 78 f3 ff ff 	lea    -0xc88(%rbp),%rax
    f8c9:	48 89 85 e0 f8 ff ff 	mov    %rax,-0x720(%rbp)
    f8d0:	48 8d 85 78 f3 ff ff 	lea    -0xc88(%rbp),%rax
    f8d7:	48 89 85 e8 f8 ff ff 	mov    %rax,-0x718(%rbp)
    f8de:	48 8d 05 e3 b9 00 00 	lea    0xb9e3(%rip),%rax        # 1b2c8 <g_137>
    f8e5:	48 89 85 f0 f8 ff ff 	mov    %rax,-0x710(%rbp)
    f8ec:	48 8d 85 78 f3 ff ff 	lea    -0xc88(%rbp),%rax
    f8f3:	48 89 85 f8 f8 ff ff 	mov    %rax,-0x708(%rbp)
    f8fa:	48 8d 05 c7 b9 00 00 	lea    0xb9c7(%rip),%rax        # 1b2c8 <g_137>
    f901:	48 89 85 00 f9 ff ff 	mov    %rax,-0x700(%rbp)
    f908:	48 8d 05 b9 b9 00 00 	lea    0xb9b9(%rip),%rax        # 1b2c8 <g_137>
    f90f:	48 89 85 08 f9 ff ff 	mov    %rax,-0x6f8(%rbp)
    f916:	48 8d 05 ab b9 00 00 	lea    0xb9ab(%rip),%rax        # 1b2c8 <g_137>
    f91d:	48 89 85 10 f9 ff ff 	mov    %rax,-0x6f0(%rbp)
    f924:	48 8d 05 9d b9 00 00 	lea    0xb99d(%rip),%rax        # 1b2c8 <g_137>
    f92b:	48 89 85 18 f9 ff ff 	mov    %rax,-0x6e8(%rbp)
    f932:	48 8d 85 78 f3 ff ff 	lea    -0xc88(%rbp),%rax
    f939:	48 89 85 20 f9 ff ff 	mov    %rax,-0x6e0(%rbp)
    f940:	48 8d 85 78 f3 ff ff 	lea    -0xc88(%rbp),%rax
    f947:	48 89 85 28 f9 ff ff 	mov    %rax,-0x6d8(%rbp)
    f94e:	48 8d 05 73 b9 00 00 	lea    0xb973(%rip),%rax        # 1b2c8 <g_137>
    f955:	48 89 85 30 f9 ff ff 	mov    %rax,-0x6d0(%rbp)
    f95c:	48 c7 85 38 f9 ff ff 	movq   $0x0,-0x6c8(%rbp)
    f963:	00 00 00 00 
    f967:	48 c7 85 40 f9 ff ff 	movq   $0x0,-0x6c0(%rbp)
    f96e:	00 00 00 00 
    f972:	48 8d 05 4f b9 00 00 	lea    0xb94f(%rip),%rax        # 1b2c8 <g_137>
    f979:	48 89 85 48 f9 ff ff 	mov    %rax,-0x6b8(%rbp)
    f980:	48 c7 85 50 f9 ff ff 	movq   $0x0,-0x6b0(%rbp)
    f987:	00 00 00 00 
    f98b:	48 c7 85 58 f9 ff ff 	movq   $0x0,-0x6a8(%rbp)
    f992:	00 00 00 00 
    f996:	48 8d 05 e7 b0 00 00 	lea    0xb0e7(%rip),%rax        # 1aa84 <g_1529>
    f99d:	48 89 85 80 f3 ff ff 	mov    %rax,-0xc80(%rbp)
    f9a4:	48 8d 85 80 f3 ff ff 	lea    -0xc80(%rbp),%rax
    f9ab:	48 89 85 88 f3 ff ff 	mov    %rax,-0xc78(%rbp)
    f9b2:	48 8d 85 88 f3 ff ff 	lea    -0xc78(%rbp),%rax
    f9b9:	48 89 85 b8 f3 ff ff 	mov    %rax,-0xc48(%rbp)
    f9c0:	c7 85 08 f3 ff ff de 	movl   $0xebfbc4de,-0xcf8(%rbp)
    f9c7:	c4 fb eb 
    f9ca:	48 b8 74 5c d8 3d 57 	movabs $0xc4dc7e573dd85c74,%rax
    f9d1:	7e dc c4 
    f9d4:	48 89 85 c0 f3 ff ff 	mov    %rax,-0xc40(%rbp)
    f9db:	66 c7 85 04 f3 ff ff 	movw   $0xfffe,-0xcfc(%rbp)
    f9e2:	fe ff 
    f9e4:	c7 85 24 f3 ff ff 0d 	movl   $0xf89d3e0d,-0xcdc(%rbp)
    f9eb:	3e 9d f8 
    f9ee:	66 c7 85 22 f4 ff ff 	movw   $0x595e,-0xbde(%rbp)
    f9f5:	5e 59 
    f9f7:	66 c7 85 24 f4 ff ff 	movw   $0x0,-0xbdc(%rbp)
    f9fe:	00 00 
    fa00:	66 c7 85 26 f4 ff ff 	movw   $0x595e,-0xbda(%rbp)
    fa07:	5e 59 
    fa09:	66 c7 85 28 f4 ff ff 	movw   $0x595e,-0xbd8(%rbp)
    fa10:	5e 59 
    fa12:	66 c7 85 2a f4 ff ff 	movw   $0x0,-0xbd6(%rbp)
    fa19:	00 00 
    fa1b:	66 c7 85 2c f4 ff ff 	movw   $0x595e,-0xbd4(%rbp)
    fa22:	5e 59 
    fa24:	66 c7 85 2e f4 ff ff 	movw   $0x595e,-0xbd2(%rbp)
    fa2b:	5e 59 
    fa2d:	48 8d 05 3c b3 00 00 	lea    0xb33c(%rip),%rax        # 1ad70 <g_1808>
    fa34:	48 89 85 90 f3 ff ff 	mov    %rax,-0xc70(%rbp)
    fa3b:	48 8d 85 90 f3 ff ff 	lea    -0xc70(%rbp),%rax
    fa42:	48 89 85 c8 f3 ff ff 	mov    %rax,-0xc38(%rbp)
    fa49:	c7 85 0c f3 ff ff 00 	movl   $0x0,-0xcf4(%rbp)
    fa50:	00 00 00 
    fa53:	eb 1e                	jmp    fa73 <func_51+0xbcc>
    fa55:	8b 85 0c f3 ff ff    	mov    -0xcf4(%rbp),%eax
    fa5b:	48 98                	cltq   
    fa5d:	48 8d 15 1c c2 00 00 	lea    0xc21c(%rip),%rdx        # 1bc80 <g_1349>
    fa64:	48 89 94 c5 30 f4 ff 	mov    %rdx,-0xbd0(%rbp,%rax,8)
    fa6b:	ff 
    fa6c:	83 85 0c f3 ff ff 01 	addl   $0x1,-0xcf4(%rbp)
    fa73:	83 bd 0c f3 ff ff 01 	cmpl   $0x1,-0xcf4(%rbp)
    fa7a:	7e d9                	jle    fa55 <func_51+0xbae>
    fa7c:	c7 85 0c f3 ff ff 00 	movl   $0x0,-0xcf4(%rbp)
    fa83:	00 00 00 
    fa86:	eb 46                	jmp    face <func_51+0xc27>
    fa88:	c7 85 10 f3 ff ff 00 	movl   $0x0,-0xcf0(%rbp)
    fa8f:	00 00 00 
    fa92:	eb 2a                	jmp    fabe <func_51+0xc17>
    fa94:	8b 85 10 f3 ff ff    	mov    -0xcf0(%rbp),%eax
    fa9a:	48 98                	cltq   
    fa9c:	8b 95 0c f3 ff ff    	mov    -0xcf4(%rbp),%edx
    faa2:	48 63 d2             	movslq %edx,%rdx
    faa5:	48 c1 e2 02          	shl    $0x2,%rdx
    faa9:	48 01 d0             	add    %rdx,%rax
    faac:	c7 84 85 70 f4 ff ff 	movl   $0x1,-0xb90(%rbp,%rax,4)
    fab3:	01 00 00 00 
    fab7:	83 85 10 f3 ff ff 01 	addl   $0x1,-0xcf0(%rbp)
    fabe:	83 bd 10 f3 ff ff 03 	cmpl   $0x3,-0xcf0(%rbp)
    fac5:	7e cd                	jle    fa94 <func_51+0xbed>
    fac7:	83 85 0c f3 ff ff 01 	addl   $0x1,-0xcf4(%rbp)
    face:	83 bd 0c f3 ff ff 01 	cmpl   $0x1,-0xcf4(%rbp)
    fad5:	7e b1                	jle    fa88 <func_51+0xbe1>
    fad7:	48 8b 8d 30 f5 ff ff 	mov    -0xad0(%rbp),%rcx
    fade:	48 8b 05 23 b8 00 00 	mov    0xb823(%rip),%rax        # 1b308 <g_404>
    fae5:	48 8b 00             	mov    (%rax),%rax
    fae8:	ba 01 00 00 00       	mov    $0x1,%edx
    faed:	48 89 ce             	mov    %rcx,%rsi
    faf0:	48 89 c7             	mov    %rax,%rdi
    faf3:	e8 c3 24 00 00       	callq  11fbb <func_63>
    faf8:	48 89 85 c0 f4 ff ff 	mov    %rax,-0xb40(%rbp)
    faff:	c7 05 67 ae 00 00 1d 	movl   $0x1d,0xae67(%rip)        # 1a970 <g_649>
    fb06:	00 00 00 
    fb09:	e9 cb 00 00 00       	jmpq   fbd9 <func_51+0xd32>
    fb0e:	48 b8 27 8c 26 70 81 	movabs $0xeaa0f48170268c27,%rax
    fb15:	f4 a0 ea 
    fb18:	48 89 85 18 f4 ff ff 	mov    %rax,-0xbe8(%rbp)
    fb1f:	c7 85 50 f3 ff ff 09 	movl   $0x9,-0xcb0(%rbp)
    fb26:	00 00 00 
    fb29:	c7 85 54 f3 ff ff 00 	movl   $0x0,-0xcac(%rbp)
    fb30:	00 00 00 
    fb33:	c7 85 58 f3 ff ff 3e 	movl   $0x75c1533e,-0xca8(%rbp)
    fb3a:	53 c1 75 
    fb3d:	c7 85 5c f3 ff ff fa 	movl   $0xfffffffa,-0xca4(%rbp)
    fb44:	ff ff ff 
    fb47:	c6 85 03 f3 ff ff 56 	movb   $0x56,-0xcfd(%rbp)
    fb4e:	c7 85 60 f3 ff ff 00 	movl   $0x0,-0xca0(%rbp)
    fb55:	00 00 00 
    fb58:	c7 85 60 f9 ff ff 00 	movl   $0x0,-0x6a0(%rbp)
    fb5f:	00 00 00 
    fb62:	c7 85 64 f9 ff ff 00 	movl   $0x0,-0x69c(%rbp)
    fb69:	00 00 00 
    fb6c:	c7 85 68 f9 ff ff 00 	movl   $0x0,-0x698(%rbp)
    fb73:	00 00 00 
    fb76:	c7 85 6c f9 ff ff 00 	movl   $0x0,-0x694(%rbp)
    fb7d:	00 00 00 
    fb80:	c7 85 70 f9 ff ff 00 	movl   $0x0,-0x690(%rbp)
    fb87:	00 00 00 
    fb8a:	c7 85 64 f3 ff ff 02 	movl   $0x2,-0xc9c(%rbp)
    fb91:	00 00 00 
    fb94:	c7 85 14 f3 ff ff 00 	movl   $0x0,-0xcec(%rbp)
    fb9b:	00 00 00 
    fb9e:	eb 1a                	jmp    fbba <func_51+0xd13>
    fba0:	8b 85 14 f3 ff ff    	mov    -0xcec(%rbp),%eax
    fba6:	48 98                	cltq   
    fba8:	c7 84 85 80 f6 ff ff 	movl   $0xc9e14526,-0x980(%rbp,%rax,4)
    fbaf:	26 45 e1 c9 
    fbb3:	83 85 14 f3 ff ff 01 	addl   $0x1,-0xcec(%rbp)
    fbba:	83 bd 14 f3 ff ff 03 	cmpl   $0x3,-0xcec(%rbp)
    fbc1:	7e dd                	jle    fba0 <func_51+0xcf9>
    fbc3:	83 85 64 f3 ff ff 01 	addl   $0x1,-0xc9c(%rbp)
    fbca:	8b 05 a0 ad 00 00    	mov    0xada0(%rip),%eax        # 1a970 <g_649>
    fbd0:	83 e8 01             	sub    $0x1,%eax
    fbd3:	89 05 97 ad 00 00    	mov    %eax,0xad97(%rip)        # 1a970 <g_649>
    fbd9:	8b 05 91 ad 00 00    	mov    0xad91(%rip),%eax        # 1a970 <g_649>
    fbdf:	83 f8 0e             	cmp    $0xe,%eax
    fbe2:	0f 84 26 ff ff ff    	je     fb0e <func_51+0xc67>
    fbe8:	48 8b 85 68 f3 ff ff 	mov    -0xc98(%rbp),%rax
    fbef:	48 89 05 ea c0 00 00 	mov    %rax,0xc0ea(%rip)        # 1bce0 <g_1499>
    fbf6:	8b 9d 08 f3 ff ff    	mov    -0xcf8(%rbp),%ebx
    fbfc:	48 8b 05 3d ae 00 00 	mov    0xae3d(%rip),%rax        # 1aa40 <g_1292+0x40>
    fc03:	48 c1 e8 10          	shr    $0x10,%rax
    fc07:	25 ff ff ff 01       	and    $0x1ffffff,%eax
    fc0c:	89 85 dc f2 ff ff    	mov    %eax,-0xd24(%rbp)
    fc12:	48 8b 85 f8 f2 ff ff 	mov    -0xd08(%rbp),%rax
    fc19:	44 8b 30             	mov    (%rax),%r14d
    fc1c:	48 8b 05 c5 c0 00 00 	mov    0xc0c5(%rip),%rax        # 1bce8 <g_1524>
    fc23:	0f b7 00             	movzwl (%rax),%eax
    fc26:	44 0f bf e0          	movswl %ax,%r12d
    fc2a:	8b 85 f0 f2 ff ff    	mov    -0xd10(%rbp),%eax
    fc30:	44 0f bf e8          	movswl %ax,%r13d
    fc34:	48 8b 05 8d b6 00 00 	mov    0xb68d(%rip),%rax        # 1b2c8 <g_137>
    fc3b:	48 8b 00             	mov    (%rax),%rax
    fc3e:	0f b7 10             	movzwl (%rax),%edx
    fc41:	83 ea 01             	sub    $0x1,%edx
    fc44:	66 89 10             	mov    %dx,(%rax)
    fc47:	44 0f b7 38          	movzwl (%rax),%r15d
    fc4b:	48 8b 05 a6 b6 00 00 	mov    0xb6a6(%rip),%rax        # 1b2f8 <g_336>
    fc52:	48 8b 85 78 f3 ff ff 	mov    -0xc88(%rbp),%rax
    fc59:	48 89 05 d8 c3 00 00 	mov    %rax,0xc3d8(%rip)        # 1c038 <g_1523+0x338>
    fc60:	48 8b 05 d1 c3 00 00 	mov    0xc3d1(%rip),%rax        # 1c038 <g_1523+0x338>
    fc67:	48 89 05 32 cf 00 00 	mov    %rax,0xcf32(%rip)        # 1cba0 <g_1525>
    fc6e:	48 8b 15 2b cf 00 00 	mov    0xcf2b(%rip),%rdx        # 1cba0 <g_1525>
    fc75:	48 8b 85 b8 f3 ff ff 	mov    -0xc48(%rbp),%rax
    fc7c:	48 8d 0d 65 c0 00 00 	lea    0xc065(%rip),%rcx        # 1bce8 <g_1524>
    fc83:	48 89 08             	mov    %rcx,(%rax)
    fc86:	48 8b 85 b8 f3 ff ff 	mov    -0xc48(%rbp),%rax
    fc8d:	48 8b 00             	mov    (%rax),%rax
    fc90:	48 39 c2             	cmp    %rax,%rdx
    fc93:	0f 95 c0             	setne  %al
    fc96:	0f b6 c0             	movzbl %al,%eax
    fc99:	be 07 00 00 00       	mov    $0x7,%esi
    fc9e:	89 c7                	mov    %eax,%edi
    fca0:	e8 fc 65 ff ff       	callq  62a1 <safe_lshift_func_int8_t_s_s>
    fca5:	be 01 00 00 00       	mov    $0x1,%esi
    fcaa:	bf a8 00 00 00       	mov    $0xa8,%edi
    fcaf:	e8 0a 70 ff ff       	callq  6cbe <safe_rshift_func_uint8_t_u_u>
    fcb4:	0f b6 c0             	movzbl %al,%eax
    fcb7:	66 41 39 c7          	cmp    %ax,%r15w
    fcbb:	0f 97 c0             	seta   %al
    fcbe:	0f b6 c0             	movzbl %al,%eax
    fcc1:	44 89 ee             	mov    %r13d,%esi
    fcc4:	89 c7                	mov    %eax,%edi
    fcc6:	e8 4b 67 ff ff       	callq  6416 <safe_mod_func_int16_t_s_s>
    fccb:	0f be c0             	movsbl %al,%eax
    fcce:	be a7 ff ff ff       	mov    $0xffffffa7,%esi
    fcd3:	89 c7                	mov    %eax,%edi
    fcd5:	e8 57 65 ff ff       	callq  6231 <safe_mod_func_int8_t_s_s>
    fcda:	48 8b 85 e0 f2 ff ff 	mov    -0xd20(%rbp),%rax
    fce1:	83 e0 fe             	and    $0xfffffffe,%eax
    fce4:	98                   	cwtl   
    fce5:	44 89 e6             	mov    %r12d,%esi
    fce8:	89 c7                	mov    %eax,%edi
    fcea:	e8 06 67 ff ff       	callq  63f5 <safe_mul_func_int16_t_s_s>
    fcef:	98                   	cwtl   
    fcf0:	41 39 c6             	cmp    %eax,%r14d
    fcf3:	0f 97 c0             	seta   %al
    fcf6:	0f b6 c0             	movzbl %al,%eax
    fcf9:	8b b5 dc f2 ff ff    	mov    -0xd24(%rbp),%esi
    fcff:	89 c7                	mov    %eax,%edi
    fd01:	e8 8c 67 ff ff       	callq  6492 <safe_lshift_func_int16_t_s_s>
    fd06:	0f be c0             	movsbl %al,%eax
    fd09:	be 00 00 00 00       	mov    $0x0,%esi
    fd0e:	89 c7                	mov    %eax,%edi
    fd10:	e8 20 66 ff ff       	callq  6335 <safe_rshift_func_int8_t_s_s>
    fd15:	0f be c0             	movsbl %al,%eax
    fd18:	89 de                	mov    %ebx,%esi
    fd1a:	89 c7                	mov    %eax,%edi
    fd1c:	e8 14 66 ff ff       	callq  6335 <safe_rshift_func_int8_t_s_s>
    fd21:	48 0f be c0          	movsbq %al,%rax
    fd25:	48 0b 85 e8 f2 ff ff 	or     -0xd18(%rbp),%rax
    fd2c:	48 85 c0             	test   %rax,%rax
    fd2f:	0f 84 ce 01 00 00    	je     ff03 <func_51+0x105c>
    fd35:	66 c7 85 06 f3 ff ff 	movw   $0x615a,-0xcfa(%rbp)
    fd3c:	5a 61 
    fd3e:	48 8d 85 08 f3 ff ff 	lea    -0xcf8(%rbp),%rax
    fd45:	48 89 85 08 f4 ff ff 	mov    %rax,-0xbf8(%rbp)
    fd4c:	48 8b 05 fd be 00 00 	mov    0xbefd(%rip),%rax        # 1bc50 <g_938>
    fd53:	48 8b 00             	mov    (%rax),%rax
    fd56:	48 8b 00             	mov    (%rax),%rax
    fd59:	48 8b 00             	mov    (%rax),%rax
    fd5c:	48 8b 00             	mov    (%rax),%rax
    fd5f:	8b 10                	mov    (%rax),%edx
    fd61:	8b 85 f0 f2 ff ff    	mov    -0xd10(%rbp),%eax
    fd67:	21 d0                	and    %edx,%eax
    fd69:	89 c2                	mov    %eax,%edx
    fd6b:	0f b7 85 06 f3 ff ff 	movzwl -0xcfa(%rbp),%eax
    fd72:	31 d0                	xor    %edx,%eax
    fd74:	66 89 85 06 f3 ff ff 	mov    %ax,-0xcfa(%rbp)
    fd7b:	48 c7 85 08 f4 ff ff 	movq   $0x0,-0xbf8(%rbp)
    fd82:	00 00 00 00 
    fd86:	48 c7 85 e0 f2 ff ff 	movq   $0xffffffffffffffff,-0xd20(%rbp)
    fd8d:	ff ff ff ff 
    fd91:	e9 5a 01 00 00       	jmpq   fef0 <func_51+0x1049>
    fd96:	48 8d 05 2b a3 00 00 	lea    0xa32b(%rip),%rax        # 1a0c8 <g_333>
    fd9d:	48 89 85 10 f4 ff ff 	mov    %rax,-0xbf0(%rbp)
    fda4:	c7 85 48 f3 ff ff 71 	movl   $0x3f16eb71,-0xcb8(%rbp)
    fdab:	eb 16 3f 
    fdae:	c6 85 02 f3 ff ff 3a 	movb   $0x3a,-0xcfe(%rbp)
    fdb5:	c7 85 4c f3 ff ff f7 	movl   $0xfffffff7,-0xcb4(%rbp)
    fdbc:	ff ff ff 
    fdbf:	c7 85 18 f3 ff ff 00 	movl   $0x0,-0xce8(%rbp)
    fdc6:	00 00 00 
    fdc9:	eb 53                	jmp    fe1e <func_51+0xf77>
    fdcb:	c7 85 1c f3 ff ff 00 	movl   $0x0,-0xce4(%rbp)
    fdd2:	00 00 00 
    fdd5:	eb 37                	jmp    fe0e <func_51+0xf67>
    fdd7:	8b 85 1c f3 ff ff    	mov    -0xce4(%rbp),%eax
    fddd:	48 63 c8             	movslq %eax,%rcx
    fde0:	8b 85 18 f3 ff ff    	mov    -0xce8(%rbp),%eax
    fde6:	48 63 d0             	movslq %eax,%rdx
    fde9:	48 89 d0             	mov    %rdx,%rax
    fdec:	48 01 c0             	add    %rax,%rax
    fdef:	48 01 d0             	add    %rdx,%rax
    fdf2:	48 01 c0             	add    %rax,%rax
    fdf5:	48 01 c8             	add    %rcx,%rax
    fdf8:	48 8d 15 79 a2 00 00 	lea    0xa279(%rip),%rdx        # 1a078 <g_154+0x18>
    fdff:	48 89 94 c5 60 f9 ff 	mov    %rdx,-0x6a0(%rbp,%rax,8)
    fe06:	ff 
    fe07:	83 85 1c f3 ff ff 01 	addl   $0x1,-0xce4(%rbp)
    fe0e:	83 bd 1c f3 ff ff 05 	cmpl   $0x5,-0xce4(%rbp)
    fe15:	7e c0                	jle    fdd7 <func_51+0xf30>
    fe17:	83 85 18 f3 ff ff 01 	addl   $0x1,-0xce8(%rbp)
    fe1e:	83 bd 18 f3 ff ff 00 	cmpl   $0x0,-0xce8(%rbp)
    fe25:	7e a4                	jle    fdcb <func_51+0xf24>
    fe27:	48 8b 85 10 f4 ff ff 	mov    -0xbf0(%rbp),%rax
    fe2e:	66 c7 00 60 e8       	movw   $0xe860,(%rax)
    fe33:	be 08 00 00 00       	mov    $0x8,%esi
    fe38:	bf 60 e8 ff ff       	mov    $0xffffe860,%edi
    fe3d:	e8 e8 66 ff ff       	callq  652a <safe_rshift_func_int16_t_s_s>
    fe42:	0f bf d0             	movswl %ax,%edx
    fe45:	48 0f be 8d f4 f2 ff 	movsbq -0xd0c(%rbp),%rcx
    fe4c:	ff 
    fe4d:	48 8b 05 54 a2 00 00 	mov    0xa254(%rip),%rax        # 1a0a8 <g_205>
    fe54:	48 09 c1             	or     %rax,%rcx
    fe57:	48 8b 85 e0 f2 ff ff 	mov    -0xd20(%rbp),%rax
    fe5e:	48 39 c1             	cmp    %rax,%rcx
    fe61:	0f 97 c0             	seta   %al
    fe64:	0f b6 c8             	movzbl %al,%ecx
    fe67:	48 8b 85 f8 f2 ff ff 	mov    -0xd08(%rbp),%rax
    fe6e:	8b 00                	mov    (%rax),%eax
    fe70:	39 c1                	cmp    %eax,%ecx
    fe72:	0f 97 c0             	seta   %al
    fe75:	0f b6 c0             	movzbl %al,%eax
    fe78:	21 d0                	and    %edx,%eax
    fe7a:	89 85 48 f3 ff ff    	mov    %eax,-0xcb8(%rbp)
    fe80:	0f b6 85 02 f3 ff ff 	movzbl -0xcfe(%rbp),%eax
    fe87:	23 85 48 f3 ff ff    	and    -0xcb8(%rbp),%eax
    fe8d:	89 c3                	mov    %eax,%ebx
    fe8f:	48 8b 05 9a bd 00 00 	mov    0xbd9a(%rip),%rax        # 1bc30 <g_558>
    fe96:	48 8b 05 73 b4 00 00 	mov    0xb473(%rip),%rax        # 1b310 <g_403>
    fe9d:	48 8b 00             	mov    (%rax),%rax
    fea0:	48 8b 00             	mov    (%rax),%rax
    fea3:	48 89 05 d6 c5 00 00 	mov    %rax,0xc5d6(%rip)        # 1c480 <g_1544>
    feaa:	8b 85 78 f4 ff ff    	mov    -0xb88(%rbp),%eax
    feb0:	89 c2                	mov    %eax,%edx
    feb2:	8b 85 f0 f2 ff ff    	mov    -0xd10(%rbp),%eax
    feb8:	0f be c0             	movsbl %al,%eax
    febb:	89 d6                	mov    %edx,%esi
    febd:	89 c7                	mov    %eax,%edi
    febf:	e8 dd 63 ff ff       	callq  62a1 <safe_lshift_func_int8_t_s_s>
    fec4:	0f be c0             	movsbl %al,%eax
    fec7:	89 de                	mov    %ebx,%esi
    fec9:	89 c7                	mov    %eax,%edi
    fecb:	e8 1e 64 ff ff       	callq  62ee <safe_lshift_func_int8_t_s_u>
    fed0:	0f be c0             	movsbl %al,%eax
    fed3:	09 85 4c f3 ff ff    	or     %eax,-0xcb4(%rbp)
    fed9:	48 8b 05 a0 bd 00 00 	mov    0xbda0(%rip),%rax        # 1bc80 <g_1349>
    fee0:	8b 95 f0 f2 ff ff    	mov    -0xd10(%rbp),%edx
    fee6:	89 10                	mov    %edx,(%rax)
    fee8:	48 83 ad e0 f2 ff ff 	subq   $0x1,-0xd20(%rbp)
    feef:	01 
    fef0:	48 83 bd e0 f2 ff ff 	cmpq   $0xfffffffffffffffe,-0xd20(%rbp)
    fef7:	fe 
    fef8:	0f 8d 98 fe ff ff    	jge    fd96 <func_51+0xeef>
    fefe:	e9 1f 08 00 00       	jmpq   10722 <func_51+0x187b>
    ff03:	48 c7 85 d0 f3 ff ff 	movq   $0x7,-0xc30(%rbp)
    ff0a:	07 00 00 00 
    ff0e:	48 8d 05 6b bd 00 00 	lea    0xbd6b(%rip),%rax        # 1bc80 <g_1349>
    ff15:	48 89 85 d8 f3 ff ff 	mov    %rax,-0xc28(%rbp)
    ff1c:	48 8d 05 61 ab 00 00 	lea    0xab61(%rip),%rax        # 1aa84 <g_1529>
    ff23:	48 89 85 98 f3 ff ff 	mov    %rax,-0xc68(%rbp)
    ff2a:	48 8d 85 98 f3 ff ff 	lea    -0xc68(%rbp),%rax
    ff31:	48 89 85 60 f9 ff ff 	mov    %rax,-0x6a0(%rbp)
    ff38:	48 8d 85 98 f3 ff ff 	lea    -0xc68(%rbp),%rax
    ff3f:	48 89 85 68 f9 ff ff 	mov    %rax,-0x698(%rbp)
    ff46:	48 8d 85 98 f3 ff ff 	lea    -0xc68(%rbp),%rax
    ff4d:	48 89 85 70 f9 ff ff 	mov    %rax,-0x690(%rbp)
    ff54:	48 8d 85 98 f3 ff ff 	lea    -0xc68(%rbp),%rax
    ff5b:	48 89 85 78 f9 ff ff 	mov    %rax,-0x688(%rbp)
    ff62:	48 8d 85 98 f3 ff ff 	lea    -0xc68(%rbp),%rax
    ff69:	48 89 85 80 f9 ff ff 	mov    %rax,-0x680(%rbp)
    ff70:	48 8d 85 98 f3 ff ff 	lea    -0xc68(%rbp),%rax
    ff77:	48 89 85 88 f9 ff ff 	mov    %rax,-0x678(%rbp)
    ff7e:	48 8d 85 98 f3 ff ff 	lea    -0xc68(%rbp),%rax
    ff85:	48 89 85 90 f9 ff ff 	mov    %rax,-0x670(%rbp)
    ff8c:	48 8d 85 98 f3 ff ff 	lea    -0xc68(%rbp),%rax
    ff93:	48 89 85 98 f9 ff ff 	mov    %rax,-0x668(%rbp)
    ff9a:	48 8d 85 98 f3 ff ff 	lea    -0xc68(%rbp),%rax
    ffa1:	48 89 85 a0 f9 ff ff 	mov    %rax,-0x660(%rbp)
    ffa8:	48 8d 85 98 f3 ff ff 	lea    -0xc68(%rbp),%rax
    ffaf:	48 89 85 a8 f9 ff ff 	mov    %rax,-0x658(%rbp)
    ffb6:	48 c7 85 b0 f9 ff ff 	movq   $0x0,-0x650(%rbp)
    ffbd:	00 00 00 00 
    ffc1:	48 8d 85 98 f3 ff ff 	lea    -0xc68(%rbp),%rax
    ffc8:	48 89 85 b8 f9 ff ff 	mov    %rax,-0x648(%rbp)
    ffcf:	48 8d 85 98 f3 ff ff 	lea    -0xc68(%rbp),%rax
    ffd6:	48 89 85 c0 f9 ff ff 	mov    %rax,-0x640(%rbp)
    ffdd:	48 c7 85 c8 f9 ff ff 	movq   $0x0,-0x638(%rbp)
    ffe4:	00 00 00 00 
    ffe8:	48 8d 85 98 f3 ff ff 	lea    -0xc68(%rbp),%rax
    ffef:	48 89 85 d0 f9 ff ff 	mov    %rax,-0x630(%rbp)
    fff6:	48 8d 85 98 f3 ff ff 	lea    -0xc68(%rbp),%rax
    fffd:	48 89 85 d8 f9 ff ff 	mov    %rax,-0x628(%rbp)
   10004:	48 c7 85 e0 f9 ff ff 	movq   $0x0,-0x620(%rbp)
   1000b:	00 00 00 00 
   1000f:	48 8d 85 98 f3 ff ff 	lea    -0xc68(%rbp),%rax
   10016:	48 89 85 e8 f9 ff ff 	mov    %rax,-0x618(%rbp)
   1001d:	48 8d 85 98 f3 ff ff 	lea    -0xc68(%rbp),%rax
   10024:	48 89 85 f0 f9 ff ff 	mov    %rax,-0x610(%rbp)
   1002b:	48 8d 85 98 f3 ff ff 	lea    -0xc68(%rbp),%rax
   10032:	48 89 85 f8 f9 ff ff 	mov    %rax,-0x608(%rbp)
   10039:	48 8d 85 98 f3 ff ff 	lea    -0xc68(%rbp),%rax
   10040:	48 89 85 00 fa ff ff 	mov    %rax,-0x600(%rbp)
   10047:	48 8d 85 98 f3 ff ff 	lea    -0xc68(%rbp),%rax
   1004e:	48 89 85 08 fa ff ff 	mov    %rax,-0x5f8(%rbp)
   10055:	48 8d 85 98 f3 ff ff 	lea    -0xc68(%rbp),%rax
   1005c:	48 89 85 10 fa ff ff 	mov    %rax,-0x5f0(%rbp)
   10063:	48 8d 85 98 f3 ff ff 	lea    -0xc68(%rbp),%rax
   1006a:	48 89 85 18 fa ff ff 	mov    %rax,-0x5e8(%rbp)
   10071:	48 8d 85 98 f3 ff ff 	lea    -0xc68(%rbp),%rax
   10078:	48 89 85 20 fa ff ff 	mov    %rax,-0x5e0(%rbp)
   1007f:	48 8d 85 98 f3 ff ff 	lea    -0xc68(%rbp),%rax
   10086:	48 89 85 28 fa ff ff 	mov    %rax,-0x5d8(%rbp)
   1008d:	48 8d 85 98 f3 ff ff 	lea    -0xc68(%rbp),%rax
   10094:	48 89 85 30 fa ff ff 	mov    %rax,-0x5d0(%rbp)
   1009b:	48 8d 85 98 f3 ff ff 	lea    -0xc68(%rbp),%rax
   100a2:	48 89 85 38 fa ff ff 	mov    %rax,-0x5c8(%rbp)
   100a9:	48 8d 85 98 f3 ff ff 	lea    -0xc68(%rbp),%rax
   100b0:	48 89 85 40 fa ff ff 	mov    %rax,-0x5c0(%rbp)
   100b7:	48 8d 85 98 f3 ff ff 	lea    -0xc68(%rbp),%rax
   100be:	48 89 85 48 fa ff ff 	mov    %rax,-0x5b8(%rbp)
   100c5:	48 8d 85 98 f3 ff ff 	lea    -0xc68(%rbp),%rax
   100cc:	48 89 85 50 fa ff ff 	mov    %rax,-0x5b0(%rbp)
   100d3:	48 8d 85 98 f3 ff ff 	lea    -0xc68(%rbp),%rax
   100da:	48 89 85 58 fa ff ff 	mov    %rax,-0x5a8(%rbp)
   100e1:	48 c7 85 60 fa ff ff 	movq   $0x0,-0x5a0(%rbp)
   100e8:	00 00 00 00 
   100ec:	48 8d 85 98 f3 ff ff 	lea    -0xc68(%rbp),%rax
   100f3:	48 89 85 68 fa ff ff 	mov    %rax,-0x598(%rbp)
   100fa:	48 8d 85 98 f3 ff ff 	lea    -0xc68(%rbp),%rax
   10101:	48 89 85 70 fa ff ff 	mov    %rax,-0x590(%rbp)
   10108:	48 8d 85 98 f3 ff ff 	lea    -0xc68(%rbp),%rax
   1010f:	48 89 85 78 fa ff ff 	mov    %rax,-0x588(%rbp)
   10116:	48 8d 85 98 f3 ff ff 	lea    -0xc68(%rbp),%rax
   1011d:	48 89 85 80 fa ff ff 	mov    %rax,-0x580(%rbp)
   10124:	48 8d 85 98 f3 ff ff 	lea    -0xc68(%rbp),%rax
   1012b:	48 89 85 88 fa ff ff 	mov    %rax,-0x578(%rbp)
   10132:	48 8d 85 98 f3 ff ff 	lea    -0xc68(%rbp),%rax
   10139:	48 89 85 90 fa ff ff 	mov    %rax,-0x570(%rbp)
   10140:	48 8d 85 98 f3 ff ff 	lea    -0xc68(%rbp),%rax
   10147:	48 89 85 98 fa ff ff 	mov    %rax,-0x568(%rbp)
   1014e:	48 8d 85 98 f3 ff ff 	lea    -0xc68(%rbp),%rax
   10155:	48 89 85 a0 fa ff ff 	mov    %rax,-0x560(%rbp)
   1015c:	48 8d 85 98 f3 ff ff 	lea    -0xc68(%rbp),%rax
   10163:	48 89 85 a8 fa ff ff 	mov    %rax,-0x558(%rbp)
   1016a:	48 8d 85 98 f3 ff ff 	lea    -0xc68(%rbp),%rax
   10171:	48 89 85 b0 fa ff ff 	mov    %rax,-0x550(%rbp)
   10178:	48 8d 85 98 f3 ff ff 	lea    -0xc68(%rbp),%rax
   1017f:	48 89 85 b8 fa ff ff 	mov    %rax,-0x548(%rbp)
   10186:	48 8d 85 98 f3 ff ff 	lea    -0xc68(%rbp),%rax
   1018d:	48 89 85 c0 fa ff ff 	mov    %rax,-0x540(%rbp)
   10194:	48 8d 85 98 f3 ff ff 	lea    -0xc68(%rbp),%rax
   1019b:	48 89 85 c8 fa ff ff 	mov    %rax,-0x538(%rbp)
   101a2:	48 8d 85 98 f3 ff ff 	lea    -0xc68(%rbp),%rax
   101a9:	48 89 85 d0 fa ff ff 	mov    %rax,-0x530(%rbp)
   101b0:	48 c7 85 d8 fa ff ff 	movq   $0x0,-0x528(%rbp)
   101b7:	00 00 00 00 
   101bb:	48 c7 85 e0 fa ff ff 	movq   $0x0,-0x520(%rbp)
   101c2:	00 00 00 00 
   101c6:	48 8d 85 98 f3 ff ff 	lea    -0xc68(%rbp),%rax
   101cd:	48 89 85 e8 fa ff ff 	mov    %rax,-0x518(%rbp)
   101d4:	48 8d 85 98 f3 ff ff 	lea    -0xc68(%rbp),%rax
   101db:	48 89 85 f0 fa ff ff 	mov    %rax,-0x510(%rbp)
   101e2:	48 8d 85 98 f3 ff ff 	lea    -0xc68(%rbp),%rax
   101e9:	48 89 85 f8 fa ff ff 	mov    %rax,-0x508(%rbp)
   101f0:	48 8d 85 98 f3 ff ff 	lea    -0xc68(%rbp),%rax
   101f7:	48 89 85 00 fb ff ff 	mov    %rax,-0x500(%rbp)
   101fe:	48 8d 85 98 f3 ff ff 	lea    -0xc68(%rbp),%rax
   10205:	48 89 85 08 fb ff ff 	mov    %rax,-0x4f8(%rbp)
   1020c:	48 c7 85 10 fb ff ff 	movq   $0x0,-0x4f0(%rbp)
   10213:	00 00 00 00 
   10217:	48 8d 85 98 f3 ff ff 	lea    -0xc68(%rbp),%rax
   1021e:	48 89 85 18 fb ff ff 	mov    %rax,-0x4e8(%rbp)
   10225:	48 8d 85 98 f3 ff ff 	lea    -0xc68(%rbp),%rax
   1022c:	48 89 85 20 fb ff ff 	mov    %rax,-0x4e0(%rbp)
   10233:	48 c7 85 28 fb ff ff 	movq   $0x0,-0x4d8(%rbp)
   1023a:	00 00 00 00 
   1023e:	48 8d 85 98 f3 ff ff 	lea    -0xc68(%rbp),%rax
   10245:	48 89 85 30 fb ff ff 	mov    %rax,-0x4d0(%rbp)
   1024c:	48 8d 85 98 f3 ff ff 	lea    -0xc68(%rbp),%rax
   10253:	48 89 85 38 fb ff ff 	mov    %rax,-0x4c8(%rbp)
   1025a:	48 8d 85 98 f3 ff ff 	lea    -0xc68(%rbp),%rax
   10261:	48 89 85 40 fb ff ff 	mov    %rax,-0x4c0(%rbp)
   10268:	48 8d 85 98 f3 ff ff 	lea    -0xc68(%rbp),%rax
   1026f:	48 89 85 48 fb ff ff 	mov    %rax,-0x4b8(%rbp)
   10276:	48 c7 85 50 fb ff ff 	movq   $0x0,-0x4b0(%rbp)
   1027d:	00 00 00 00 
   10281:	48 8d 85 98 f3 ff ff 	lea    -0xc68(%rbp),%rax
   10288:	48 89 85 58 fb ff ff 	mov    %rax,-0x4a8(%rbp)
   1028f:	48 8d 85 98 f3 ff ff 	lea    -0xc68(%rbp),%rax
   10296:	48 89 85 60 fb ff ff 	mov    %rax,-0x4a0(%rbp)
   1029d:	48 8d 85 98 f3 ff ff 	lea    -0xc68(%rbp),%rax
   102a4:	48 89 85 68 fb ff ff 	mov    %rax,-0x498(%rbp)
   102ab:	48 c7 85 70 fb ff ff 	movq   $0x0,-0x490(%rbp)
   102b2:	00 00 00 00 
   102b6:	48 8d 85 98 f3 ff ff 	lea    -0xc68(%rbp),%rax
   102bd:	48 89 85 78 fb ff ff 	mov    %rax,-0x488(%rbp)
   102c4:	48 8d 85 98 f3 ff ff 	lea    -0xc68(%rbp),%rax
   102cb:	48 89 85 80 fb ff ff 	mov    %rax,-0x480(%rbp)
   102d2:	48 8d 85 98 f3 ff ff 	lea    -0xc68(%rbp),%rax
   102d9:	48 89 85 88 fb ff ff 	mov    %rax,-0x478(%rbp)
   102e0:	c7 85 28 f3 ff ff c7 	movl   $0x44afc0c7,-0xcd8(%rbp)
   102e7:	c0 af 44 
   102ea:	c7 85 2c f3 ff ff c7 	movl   $0xdb8ba2c7,-0xcd4(%rbp)
   102f1:	a2 8b db 
   102f4:	48 8d 85 80 f6 ff ff 	lea    -0x980(%rbp),%rax
   102fb:	48 8d 15 5e 5e 00 00 	lea    0x5e5e(%rip),%rdx        # 16160 <g_1623+0x1108>
   10302:	b9 23 00 00 00       	mov    $0x23,%ecx
   10307:	48 89 c7             	mov    %rax,%rdi
   1030a:	48 89 d6             	mov    %rdx,%rsi
   1030d:	f3 48 a5             	rep movsq %ds:(%rsi),%es:(%rdi)
   10310:	48 8d 05 89 9d 00 00 	lea    0x9d89(%rip),%rax        # 1a0a0 <g_199>
   10317:	48 89 85 a0 f3 ff ff 	mov    %rax,-0xc60(%rbp)
   1031e:	48 8d 85 a0 f3 ff ff 	lea    -0xc60(%rbp),%rax
   10325:	48 89 85 90 f4 ff ff 	mov    %rax,-0xb70(%rbp)
   1032c:	48 c7 85 98 f4 ff ff 	movq   $0x0,-0xb68(%rbp)
   10333:	00 00 00 00 
   10337:	48 8d 85 a0 f3 ff ff 	lea    -0xc60(%rbp),%rax
   1033e:	48 89 85 a0 f4 ff ff 	mov    %rax,-0xb60(%rbp)
   10345:	48 c7 85 a8 f4 ff ff 	movq   $0x0,-0xb58(%rbp)
   1034c:	00 00 00 00 
   10350:	48 8d 85 a0 f3 ff ff 	lea    -0xc60(%rbp),%rax
   10357:	48 89 85 b0 f4 ff ff 	mov    %rax,-0xb50(%rbp)
   1035e:	c7 85 a0 f5 ff ff bf 	movl   $0xd1fe55bf,-0xa60(%rbp)
   10365:	55 fe d1 
   10368:	c7 85 a4 f5 ff ff 5a 	movl   $0x7afa365a,-0xa5c(%rbp)
   1036f:	36 fa 7a 
   10372:	c7 85 a8 f5 ff ff 5a 	movl   $0x7afa365a,-0xa58(%rbp)
   10379:	36 fa 7a 
   1037c:	c7 85 ac f5 ff ff bf 	movl   $0xd1fe55bf,-0xa54(%rbp)
   10383:	55 fe d1 
   10386:	c7 85 b0 f5 ff ff 8c 	movl   $0xb4a3858c,-0xa50(%rbp)
   1038d:	85 a3 b4 
   10390:	c7 85 b4 f5 ff ff bf 	movl   $0xd1fe55bf,-0xa4c(%rbp)
   10397:	55 fe d1 
   1039a:	c7 85 b8 f5 ff ff 5a 	movl   $0x7afa365a,-0xa48(%rbp)
   103a1:	36 fa 7a 
   103a4:	c7 85 bc f5 ff ff 5a 	movl   $0x7afa365a,-0xa44(%rbp)
   103ab:	36 fa 7a 
   103ae:	c7 85 c0 f5 ff ff 5a 	movl   $0x7afa365a,-0xa40(%rbp)
   103b5:	36 fa 7a 
   103b8:	c7 85 c4 f5 ff ff 8c 	movl   $0xb4a3858c,-0xa3c(%rbp)
   103bf:	85 a3 b4 
   103c2:	c7 85 c8 f5 ff ff 03 	movl   $0x3,-0xa38(%rbp)
   103c9:	00 00 00 
   103cc:	c7 85 cc f5 ff ff 03 	movl   $0x3,-0xa34(%rbp)
   103d3:	00 00 00 
   103d6:	c7 85 d0 f5 ff ff 8c 	movl   $0xb4a3858c,-0xa30(%rbp)
   103dd:	85 a3 b4 
   103e0:	c7 85 d4 f5 ff ff 5a 	movl   $0x7afa365a,-0xa2c(%rbp)
   103e7:	36 fa 7a 
   103ea:	c7 85 d8 f5 ff ff 8c 	movl   $0xb4a3858c,-0xa28(%rbp)
   103f1:	85 a3 b4 
   103f4:	c7 85 dc f5 ff ff 03 	movl   $0x3,-0xa24(%rbp)
   103fb:	00 00 00 
   103fe:	c7 85 e0 f5 ff ff bf 	movl   $0xd1fe55bf,-0xa20(%rbp)
   10405:	55 fe d1 
   10408:	c7 85 e4 f5 ff ff 8c 	movl   $0xb4a3858c,-0xa1c(%rbp)
   1040f:	85 a3 b4 
   10412:	c7 85 e8 f5 ff ff bf 	movl   $0xd1fe55bf,-0xa18(%rbp)
   10419:	55 fe d1 
   1041c:	c7 85 ec f5 ff ff 5a 	movl   $0x7afa365a,-0xa14(%rbp)
   10423:	36 fa 7a 
   10426:	c7 85 f0 f5 ff ff 5a 	movl   $0x7afa365a,-0xa10(%rbp)
   1042d:	36 fa 7a 
   10430:	c7 85 f4 f5 ff ff bf 	movl   $0xd1fe55bf,-0xa0c(%rbp)
   10437:	55 fe d1 
   1043a:	c7 85 f8 f5 ff ff 8c 	movl   $0xb4a3858c,-0xa08(%rbp)
   10441:	85 a3 b4 
   10444:	c7 85 fc f5 ff ff bf 	movl   $0xd1fe55bf,-0xa04(%rbp)
   1044b:	55 fe d1 
   1044e:	c7 85 30 f3 ff ff 01 	movl   $0x1,-0xcd0(%rbp)
   10455:	00 00 00 
   10458:	c7 85 34 f3 ff ff 7b 	movl   $0xdc1a9c7b,-0xccc(%rbp)
   1045f:	9c 1a dc 
   10462:	48 8d 05 67 ae 00 00 	lea    0xae67(%rip),%rax        # 1b2d0 <g_211>
   10469:	48 89 85 e0 f3 ff ff 	mov    %rax,-0xc20(%rbp)
   10470:	48 c7 85 e8 f3 ff ff 	movq   $0x0,-0xc18(%rbp)
   10477:	00 00 00 00 
   1047b:	48 c7 85 50 f5 ff ff 	movq   $0x0,-0xab0(%rbp)
   10482:	00 00 00 00 
   10486:	48 c7 85 58 f5 ff ff 	movq   $0x0,-0xaa8(%rbp)
   1048d:	00 00 00 00 
   10491:	48 c7 85 60 f5 ff ff 	movq   $0x0,-0xaa0(%rbp)
   10498:	00 00 00 00 
   1049c:	48 c7 85 68 f5 ff ff 	movq   $0x0,-0xa98(%rbp)
   104a3:	00 00 00 00 
   104a7:	48 c7 85 70 f5 ff ff 	movq   $0x0,-0xa90(%rbp)
   104ae:	00 00 00 00 
   104b2:	48 c7 85 78 f5 ff ff 	movq   $0x0,-0xa88(%rbp)
   104b9:	00 00 00 00 
   104bd:	48 c7 85 80 f5 ff ff 	movq   $0x0,-0xa80(%rbp)
   104c4:	00 00 00 00 
   104c8:	48 c7 85 88 f5 ff ff 	movq   $0x0,-0xa78(%rbp)
   104cf:	00 00 00 00 
   104d3:	48 c7 85 90 f5 ff ff 	movq   $0x0,-0xa70(%rbp)
   104da:	00 00 00 00 
   104de:	48 c7 85 98 f5 ff ff 	movq   $0x0,-0xa68(%rbp)
   104e5:	00 00 00 00 
   104e9:	66 c7 05 82 a4 00 00 	movw   $0x0,0xa482(%rip)        # 1a974 <g_660>
   104f0:	00 00 
   104f2:	e9 e4 01 00 00       	jmpq   106db <func_51+0x1834>
   104f7:	48 c7 85 f0 f3 ff ff 	movq   $0x0,-0xc10(%rbp)
   104fe:	00 00 00 00 
   10502:	c7 85 38 f3 ff ff fb 	movl   $0xfffffffb,-0xcc8(%rbp)
   10509:	ff ff ff 
   1050c:	48 c7 85 f8 f3 ff ff 	movq   $0x0,-0xc08(%rbp)
   10513:	00 00 00 00 
   10517:	c7 85 3c f3 ff ff 02 	movl   $0x970ccd02,-0xcc4(%rbp)
   1051e:	cd 0c 97 
   10521:	c7 85 40 f3 ff ff fe 	movl   $0xfffffffe,-0xcc0(%rbp)
   10528:	ff ff ff 
   1052b:	c7 85 00 f6 ff ff 1c 	movl   $0x7f78891c,-0xa00(%rbp)
   10532:	89 78 7f 
   10535:	c7 85 04 f6 ff ff 02 	movl   $0x2,-0x9fc(%rbp)
   1053c:	00 00 00 
   1053f:	c7 85 08 f6 ff ff 02 	movl   $0x2,-0x9f8(%rbp)
   10546:	00 00 00 
   10549:	c7 85 0c f6 ff ff 1c 	movl   $0x7f78891c,-0x9f4(%rbp)
   10550:	89 78 7f 
   10553:	c7 85 10 f6 ff ff 02 	movl   $0x2,-0x9f0(%rbp)
   1055a:	00 00 00 
   1055d:	c7 85 14 f6 ff ff 02 	movl   $0x2,-0x9ec(%rbp)
   10564:	00 00 00 
   10567:	c7 85 18 f6 ff ff 1c 	movl   $0x7f78891c,-0x9e8(%rbp)
   1056e:	89 78 7f 
   10571:	c7 85 1c f6 ff ff 02 	movl   $0x2,-0x9e4(%rbp)
   10578:	00 00 00 
   1057b:	c7 85 20 f6 ff ff 02 	movl   $0x2,-0x9e0(%rbp)
   10582:	00 00 00 
   10585:	c7 85 24 f6 ff ff 1c 	movl   $0x7f78891c,-0x9dc(%rbp)
   1058c:	89 78 7f 
   1058f:	c7 85 28 f6 ff ff 02 	movl   $0x2,-0x9d8(%rbp)
   10596:	00 00 00 
   10599:	c7 85 2c f6 ff ff 02 	movl   $0x2,-0x9d4(%rbp)
   105a0:	00 00 00 
   105a3:	c7 85 30 f6 ff ff 1c 	movl   $0x7f78891c,-0x9d0(%rbp)
   105aa:	89 78 7f 
   105ad:	c7 85 34 f6 ff ff 02 	movl   $0x2,-0x9cc(%rbp)
   105b4:	00 00 00 
   105b7:	c7 85 38 f6 ff ff 02 	movl   $0x2,-0x9c8(%rbp)
   105be:	00 00 00 
   105c1:	c7 85 3c f6 ff ff 1c 	movl   $0x7f78891c,-0x9c4(%rbp)
   105c8:	89 78 7f 
   105cb:	c7 85 40 f6 ff ff 02 	movl   $0x2,-0x9c0(%rbp)
   105d2:	00 00 00 
   105d5:	c7 85 44 f6 ff ff 02 	movl   $0x2,-0x9bc(%rbp)
   105dc:	00 00 00 
   105df:	c7 85 48 f6 ff ff 1c 	movl   $0x7f78891c,-0x9b8(%rbp)
   105e6:	89 78 7f 
   105e9:	c7 85 4c f6 ff ff 02 	movl   $0x2,-0x9b4(%rbp)
   105f0:	00 00 00 
   105f3:	c7 85 50 f6 ff ff 02 	movl   $0x2,-0x9b0(%rbp)
   105fa:	00 00 00 
   105fd:	c7 85 54 f6 ff ff 1c 	movl   $0x7f78891c,-0x9ac(%rbp)
   10604:	89 78 7f 
   10607:	c7 85 58 f6 ff ff 02 	movl   $0x2,-0x9a8(%rbp)
   1060e:	00 00 00 
   10611:	c7 85 5c f6 ff ff 02 	movl   $0x2,-0x9a4(%rbp)
   10618:	00 00 00 
   1061b:	c7 85 60 f6 ff ff 1c 	movl   $0x7f78891c,-0x9a0(%rbp)
   10622:	89 78 7f 
   10625:	c7 85 64 f6 ff ff 02 	movl   $0x2,-0x99c(%rbp)
   1062c:	00 00 00 
   1062f:	c7 85 68 f6 ff ff 02 	movl   $0x2,-0x998(%rbp)
   10636:	00 00 00 
   10639:	c7 85 6c f6 ff ff 1c 	movl   $0x7f78891c,-0x994(%rbp)
   10640:	89 78 7f 
   10643:	c7 85 70 f6 ff ff 02 	movl   $0x2,-0x990(%rbp)
   1064a:	00 00 00 
   1064d:	c7 85 74 f6 ff ff 02 	movl   $0x2,-0x98c(%rbp)
   10654:	00 00 00 
   10657:	48 c7 85 00 f4 ff ff 	movq   $0x0,-0xc00(%rbp)
   1065e:	00 00 00 00 
   10662:	c7 85 44 f3 ff ff ff 	movl   $0xffffffff,-0xcbc(%rbp)
   10669:	ff ff ff 
   1066c:	c7 85 20 f3 ff ff 00 	movl   $0x0,-0xce0(%rbp)
   10673:	00 00 00 
   10676:	eb 1a                	jmp    10692 <func_51+0x17eb>
   10678:	8b 85 20 f3 ff ff    	mov    -0xce0(%rbp),%eax
   1067e:	48 98                	cltq   
   10680:	c7 84 85 40 f4 ff ff 	movl   $0x4847b306,-0xbc0(%rbp,%rax,4)
   10687:	06 b3 47 48 
   1068b:	83 85 20 f3 ff ff 01 	addl   $0x1,-0xce0(%rbp)
   10692:	83 bd 20 f3 ff ff 03 	cmpl   $0x3,-0xce0(%rbp)
   10699:	7e dd                	jle    10678 <func_51+0x17d1>
   1069b:	c7 85 20 f3 ff ff 00 	movl   $0x0,-0xce0(%rbp)
   106a2:	00 00 00 
   106a5:	eb 1a                	jmp    106c1 <func_51+0x181a>
   106a7:	8b 85 20 f3 ff ff    	mov    -0xce0(%rbp),%eax
   106ad:	48 98                	cltq   
   106af:	c7 84 85 50 f4 ff ff 	movl   $0x866b0b77,-0xbb0(%rbp,%rax,4)
   106b6:	77 0b 6b 86 
   106ba:	83 85 20 f3 ff ff 01 	addl   $0x1,-0xce0(%rbp)
   106c1:	83 bd 20 f3 ff ff 05 	cmpl   $0x5,-0xce0(%rbp)
   106c8:	7e dd                	jle    106a7 <func_51+0x1800>
   106ca:	0f b7 05 a3 a2 00 00 	movzwl 0xa2a3(%rip),%eax        # 1a974 <g_660>
   106d1:	83 c0 01             	add    $0x1,%eax
   106d4:	66 89 05 99 a2 00 00 	mov    %ax,0xa299(%rip)        # 1a974 <g_660>
   106db:	0f b7 05 92 a2 00 00 	movzwl 0xa292(%rip),%eax        # 1a974 <g_660>
   106e2:	66 83 f8 02          	cmp    $0x2,%ax
   106e6:	0f 86 0b fe ff ff    	jbe    104f7 <func_51+0x1650>
   106ec:	48 8b 85 e0 f3 ff ff 	mov    -0xc20(%rbp),%rax
   106f3:	48 89 85 c8 f3 ff ff 	mov    %rax,-0xc38(%rbp)
   106fa:	48 83 bd c8 f3 ff ff 	cmpq   $0x0,-0xc38(%rbp)
   10701:	00 
   10702:	0f 94 c0             	sete   %al
   10705:	0f b6 c8             	movzbl %al,%ecx
   10708:	48 8b 85 d8 f3 ff ff 	mov    -0xc28(%rbp),%rax
   1070f:	48 8b 00             	mov    (%rax),%rax
   10712:	8b 10                	mov    (%rax),%edx
   10714:	48 8b 85 d8 f3 ff ff 	mov    -0xc28(%rbp),%rax
   1071b:	48 8b 00             	mov    (%rax),%rax
   1071e:	31 ca                	xor    %ecx,%edx
   10720:	89 10                	mov    %edx,(%rax)
   10722:	48 8b 85 30 f5 ff ff 	mov    -0xad0(%rbp),%rax
   10729:	48 8b 5d c8          	mov    -0x38(%rbp),%rbx
   1072d:	64 48 33 1c 25 28 00 	xor    %fs:0x28,%rbx
   10734:	00 00 
   10736:	74 05                	je     1073d <func_51+0x1896>
   10738:	e8 33 59 ff ff       	callq  6070 <__stack_chk_fail@plt>
   1073d:	48 81 c4 08 0d 00 00 	add    $0xd08,%rsp
   10744:	5b                   	pop    %rbx
   10745:	41 5c                	pop    %r12
   10747:	41 5d                	pop    %r13
   10749:	41 5e                	pop    %r14
   1074b:	41 5f                	pop    %r15
   1074d:	5d                   	pop    %rbp
   1074e:	c3                   	retq   

000000000001074f <func_59>:
   1074f:	f3 0f 1e fa          	endbr64 
   10753:	55                   	push   %rbp
   10754:	48 89 e5             	mov    %rsp,%rbp
   10757:	41 57                	push   %r15
   10759:	41 56                	push   %r14
   1075b:	41 55                	push   %r13
   1075d:	41 54                	push   %r12
   1075f:	53                   	push   %rbx
   10760:	48 81 ec 88 0d 00 00 	sub    $0xd88,%rsp
   10767:	48 89 bd 68 f2 ff ff 	mov    %rdi,-0xd98(%rbp)
   1076e:	48 89 b5 60 f2 ff ff 	mov    %rsi,-0xda0(%rbp)
   10775:	48 89 95 58 f2 ff ff 	mov    %rdx,-0xda8(%rbp)
   1077c:	64 48 8b 04 25 28 00 	mov    %fs:0x28,%rax
   10783:	00 00 
   10785:	48 89 45 c8          	mov    %rax,-0x38(%rbp)
   10789:	31 c0                	xor    %eax,%eax
   1078b:	48 b8 8e ec cf e4 e9 	movabs $0x966f9de9e4cfec8e,%rax
   10792:	9d 6f 96 
   10795:	48 89 85 20 f3 ff ff 	mov    %rax,-0xce0(%rbp)
   1079c:	c7 85 88 f2 ff ff 1f 	movl   $0x514311f,-0xd78(%rbp)
   107a3:	31 14 05 
   107a6:	c7 85 a4 f2 ff ff b8 	movl   $0x1e1200b8,-0xd5c(%rbp)
   107ad:	00 12 1e 
   107b0:	c7 85 8c f2 ff ff 00 	movl   $0x0,-0xd74(%rbp)
   107b7:	00 00 00 
   107ba:	c7 85 60 f4 ff ff 00 	movl   $0x0,-0xba0(%rbp)
   107c1:	00 00 00 
   107c4:	c7 85 64 f4 ff ff 00 	movl   $0x0,-0xb9c(%rbp)
   107cb:	00 00 00 
   107ce:	c7 85 68 f4 ff ff 00 	movl   $0x0,-0xb98(%rbp)
   107d5:	00 00 00 
   107d8:	c7 85 6c f4 ff ff 00 	movl   $0x0,-0xb94(%rbp)
   107df:	00 00 00 
   107e2:	c7 85 70 f4 ff ff 00 	movl   $0x0,-0xb90(%rbp)
   107e9:	00 00 00 
   107ec:	48 8d 05 cd 98 00 00 	lea    0x98cd(%rip),%rax        # 1a0c0 <g_322>
   107f3:	48 89 85 50 f3 ff ff 	mov    %rax,-0xcb0(%rbp)
   107fa:	c7 85 a8 f2 ff ff 01 	movl   $0x1,-0xd58(%rbp)
   10801:	00 00 00 
   10804:	48 8d 05 8d 98 00 00 	lea    0x988d(%rip),%rax        # 1a098 <g_197>
   1080b:	48 89 85 58 f3 ff ff 	mov    %rax,-0xca8(%rbp)
   10812:	48 8d 05 b7 aa 00 00 	lea    0xaab7(%rip),%rax        # 1b2d0 <g_211>
   10819:	48 89 85 28 f3 ff ff 	mov    %rax,-0xcd8(%rbp)
   10820:	c7 85 ac f2 ff ff 81 	movl   $0xb339c681,-0xd54(%rbp)
   10827:	c6 39 b3 
   1082a:	c7 85 b0 f2 ff ff 04 	movl   $0x4,-0xd50(%rbp)
   10831:	00 00 00 
   10834:	c7 85 b4 f2 ff ff d9 	movl   $0xe928bcd9,-0xd4c(%rbp)
   1083b:	bc 28 e9 
   1083e:	c6 85 7e f2 ff ff 36 	movb   $0x36,-0xd82(%rbp)
   10845:	48 8d 05 24 b4 00 00 	lea    0xb424(%rip),%rax        # 1bc70 <g_1308>
   1084c:	48 89 85 60 f3 ff ff 	mov    %rax,-0xca0(%rbp)
   10853:	48 b8 2e d0 42 18 2f 	movabs $0x7f6c1f2f1842d02e,%rax
   1085a:	1f 6c 7f 
   1085d:	48 89 85 68 f3 ff ff 	mov    %rax,-0xc98(%rbp)
   10864:	48 8d 05 9d aa 00 00 	lea    0xaa9d(%rip),%rax        # 1b308 <g_404>
   1086b:	48 89 85 70 f3 ff ff 	mov    %rax,-0xc90(%rbp)
   10872:	c7 85 b8 f2 ff ff f8 	movl   $0xfffffff8,-0xd48(%rbp)
   10879:	ff ff ff 
   1087c:	48 8d 05 e5 b3 00 00 	lea    0xb3e5(%rip),%rax        # 1bc68 <g_1301>
   10883:	48 89 85 78 f3 ff ff 	mov    %rax,-0xc88(%rbp)
   1088a:	66 c7 85 82 f2 ff ff 	movw   $0xfffd,-0xd7e(%rbp)
   10891:	fd ff 
   10893:	c7 85 bc f2 ff ff ff 	movl   $0xffffffff,-0xd44(%rbp)
   1089a:	ff ff ff 
   1089d:	48 8b 85 20 f3 ff ff 	mov    -0xce0(%rbp),%rax
   108a4:	0f b6 d8             	movzbl %al,%ebx
   108a7:	48 8b 05 62 aa 00 00 	mov    0xaa62(%rip),%rax        # 1b310 <g_403>
   108ae:	48 8b 00             	mov    (%rax),%rax
   108b1:	48 8b 00             	mov    (%rax),%rax
   108b4:	8b 00                	mov    (%rax),%eax
   108b6:	3d 75 17 a1 62       	cmp    $0x62a11775,%eax
   108bb:	0f 96 c0             	setbe  %al
   108be:	41 89 c5             	mov    %eax,%r13d
   108c1:	48 8b 85 20 f3 ff ff 	mov    -0xce0(%rbp),%rax
   108c8:	0f b7 d0             	movzwl %ax,%edx
   108cb:	48 8b 85 20 f3 ff ff 	mov    -0xce0(%rbp),%rax
   108d2:	0f b7 c0             	movzwl %ax,%eax
   108d5:	89 d6                	mov    %edx,%esi
   108d7:	89 c7                	mov    %eax,%edi
   108d9:	e8 5f 64 ff ff       	callq  6d3d <safe_mul_func_uint16_t_u_u>
   108de:	0f b7 d0             	movzwl %ax,%edx
   108e1:	48 8b 8d 20 f3 ff ff 	mov    -0xce0(%rbp),%rcx
   108e8:	48 8b 05 f1 a9 00 00 	mov    0xa9f1(%rip),%rax        # 1b2e0 <g_223>
   108ef:	89 08                	mov    %ecx,(%rax)
   108f1:	8b 00                	mov    (%rax),%eax
   108f3:	85 c0                	test   %eax,%eax
   108f5:	74 17                	je     1090e <func_59+0x1bf>
   108f7:	48 8b 05 ba a9 00 00 	mov    0xa9ba(%rip),%rax        # 1b2b8 <g_117>
   108fe:	48 8b 00             	mov    (%rax),%rax
   10901:	8b 00                	mov    (%rax),%eax
   10903:	85 c0                	test   %eax,%eax
   10905:	74 07                	je     1090e <func_59+0x1bf>
   10907:	b8 01 00 00 00       	mov    $0x1,%eax
   1090c:	eb 05                	jmp    10913 <func_59+0x1c4>
   1090e:	b8 00 00 00 00       	mov    $0x0,%eax
   10913:	48 63 c8             	movslq %eax,%rcx
   10916:	48 8b 85 20 f3 ff ff 	mov    -0xce0(%rbp),%rax
   1091d:	48 39 c1             	cmp    %rax,%rcx
   10920:	0f 9c c0             	setl   %al
   10923:	0f b6 c0             	movzbl %al,%eax
   10926:	39 c2                	cmp    %eax,%edx
   10928:	41 0f 9c c4          	setl   %r12b
   1092c:	0f b6 05 cd 9f 00 00 	movzbl 0x9fcd(%rip),%eax        # 1a900 <g_400+0xe0>
   10933:	01 c0                	add    %eax,%eax
   10935:	c0 f8 04             	sar    $0x4,%al
   10938:	0f be d0             	movsbl %al,%edx
   1093b:	48 8b 85 20 f3 ff ff 	mov    -0xce0(%rbp),%rax
   10942:	0f b6 c0             	movzbl %al,%eax
   10945:	89 d6                	mov    %edx,%esi
   10947:	89 c7                	mov    %eax,%edi
   10949:	e8 fe 62 ff ff       	callq  6c4c <safe_lshift_func_uint8_t_u_u>
   1094e:	0f b6 d0             	movzbl %al,%edx
   10951:	48 8b 05 b0 a9 00 00 	mov    0xa9b0(%rip),%rax        # 1b308 <g_404>
   10958:	48 8b 00             	mov    (%rax),%rax
   1095b:	8b 00                	mov    (%rax),%eax
   1095d:	09 c2                	or     %eax,%edx
   1095f:	8b 05 4b 97 00 00    	mov    0x974b(%rip),%eax        # 1a0b0 <g_209>
   10965:	25 ff ff ff 01       	and    $0x1ffffff,%eax
   1096a:	39 c2                	cmp    %eax,%edx
   1096c:	0f 96 c0             	setbe  %al
   1096f:	44 31 e0             	xor    %r12d,%eax
   10972:	44 31 e8             	xor    %r13d,%eax
   10975:	0f b6 c0             	movzbl %al,%eax
   10978:	89 de                	mov    %ebx,%esi
   1097a:	89 c7                	mov    %eax,%edi
   1097c:	e8 12 62 ff ff       	callq  6b93 <safe_mul_func_uint8_t_u_u>
   10981:	48 8b 05 90 a9 00 00 	mov    0xa990(%rip),%rax        # 1b318 <g_417>
   10988:	48 8b 00             	mov    (%rax),%rax
   1098b:	48 89 c6             	mov    %rax,%rsi
   1098e:	bf 00 00 00 00       	mov    $0x0,%edi
   10993:	e8 a9 5e ff ff       	callq  6841 <safe_add_func_int64_t_s_s>
   10998:	48 85 c0             	test   %rax,%rax
   1099b:	0f 84 73 0f 00 00    	je     11914 <func_59+0x11c5>
   109a1:	c7 85 e0 f2 ff ff 7d 	movl   $0x5466227d,-0xd20(%rbp)
   109a8:	22 66 54 
   109ab:	c7 85 e4 f2 ff ff ff 	movl   $0xffffffff,-0xd1c(%rbp)
   109b2:	ff ff ff 
   109b5:	c7 85 9c f2 ff ff d1 	movl   $0x2062fed1,-0xd64(%rbp)
   109bc:	fe 62 20 
   109bf:	c7 85 a0 f2 ff ff dc 	movl   $0x27ab60dc,-0xd60(%rbp)
   109c6:	60 ab 27 
   109c9:	c7 85 e8 f2 ff ff 3e 	movl   $0xa5c6a23e,-0xd18(%rbp)
   109d0:	a2 c6 a5 
   109d3:	c7 85 ec f2 ff ff 00 	movl   $0x0,-0xd14(%rbp)
   109da:	00 00 00 
   109dd:	48 c7 85 00 f4 ff ff 	movq   $0x0,-0xc00(%rbp)
   109e4:	00 00 00 00 
   109e8:	c7 85 f0 f2 ff ff 00 	movl   $0x0,-0xd10(%rbp)
   109ef:	00 00 00 
   109f2:	c7 85 f4 f2 ff ff 04 	movl   $0x4,-0xd0c(%rbp)
   109f9:	00 00 00 
   109fc:	c7 85 a0 f4 ff ff 07 	movl   $0x7804a507,-0xb60(%rbp)
   10a03:	a5 04 78 
   10a06:	c7 85 a4 f4 ff ff 07 	movl   $0x7804a507,-0xb5c(%rbp)
   10a0d:	a5 04 78 
   10a10:	c7 85 a8 f4 ff ff 00 	movl   $0x0,-0xb58(%rbp)
   10a17:	00 00 00 
   10a1a:	c7 85 ac f4 ff ff 07 	movl   $0x7804a507,-0xb54(%rbp)
   10a21:	a5 04 78 
   10a24:	c7 85 b0 f4 ff ff 07 	movl   $0x7804a507,-0xb50(%rbp)
   10a2b:	a5 04 78 
   10a2e:	c7 85 b4 f4 ff ff 00 	movl   $0x0,-0xb4c(%rbp)
   10a35:	00 00 00 
   10a38:	c7 85 b8 f4 ff ff 07 	movl   $0x7804a507,-0xb48(%rbp)
   10a3f:	a5 04 78 
   10a42:	c7 85 bc f4 ff ff 07 	movl   $0x7804a507,-0xb44(%rbp)
   10a49:	a5 04 78 
   10a4c:	c7 85 c0 f4 ff ff 00 	movl   $0x0,-0xb40(%rbp)
   10a53:	00 00 00 
   10a56:	48 8d 05 d3 95 00 00 	lea    0x95d3(%rip),%rax        # 1a030 <g_91>
   10a5d:	48 89 85 08 f4 ff ff 	mov    %rax,-0xbf8(%rbp)
   10a64:	48 b8 fd fd 00 fd fd 	movabs $0xfdfd00fdfd00fdfd,%rax
   10a6b:	00 fd fd 
   10a6e:	48 89 45 c0          	mov    %rax,-0x40(%rbp)
   10a72:	c6 85 7d f2 ff ff 01 	movb   $0x1,-0xd83(%rbp)
   10a79:	c6 85 80 f2 ff ff 60 	movb   $0x60,-0xd80(%rbp)
   10a80:	c6 85 81 f2 ff ff 01 	movb   $0x1,-0xd7f(%rbp)
   10a87:	c7 85 98 f2 ff ff 00 	movl   $0x0,-0xd68(%rbp)
   10a8e:	00 00 00 
   10a91:	eb 14                	jmp    10aa7 <func_59+0x358>
   10a93:	8b 85 98 f2 ff ff    	mov    -0xd68(%rbp),%eax
   10a99:	48 98                	cltq   
   10a9b:	c6 44 05 b7 5f       	movb   $0x5f,-0x49(%rbp,%rax,1)
   10aa0:	83 85 98 f2 ff ff 01 	addl   $0x1,-0xd68(%rbp)
   10aa7:	83 bd 98 f2 ff ff 02 	cmpl   $0x2,-0xd68(%rbp)
   10aae:	7e e3                	jle    10a93 <func_59+0x344>
   10ab0:	0f b6 05 dd 9e 00 00 	movzbl 0x9edd(%rip),%eax        # 1a994 <g_772+0x4>
   10ab7:	01 c0                	add    %eax,%eax
   10ab9:	c0 f8 04             	sar    $0x4,%al
   10abc:	0f be c0             	movsbl %al,%eax
   10abf:	39 85 e0 f2 ff ff    	cmp    %eax,-0xd20(%rbp)
   10ac5:	0f 84 81 00 00 00    	je     10b4c <func_59+0x3fd>
   10acb:	48 8b 85 20 f3 ff ff 	mov    -0xce0(%rbp),%rax
   10ad2:	89 c3                	mov    %eax,%ebx
   10ad4:	48 8b 85 20 f3 ff ff 	mov    -0xce0(%rbp),%rax
   10adb:	89 c1                	mov    %eax,%ecx
   10add:	48 8b 05 c4 96 00 00 	mov    0x96c4(%rip),%rax        # 1a1a8 <g_378+0xc8>
   10ae4:	48 c1 e8 39          	shr    $0x39,%rax
   10ae8:	48 89 c2             	mov    %rax,%rdx
   10aeb:	48 8b 05 be 96 00 00 	mov    0x96be(%rip),%rax        # 1a1b0 <g_378+0xd0>
   10af2:	83 e0 03             	and    $0x3,%eax
   10af5:	48 c1 e0 07          	shl    $0x7,%rax
   10af9:	48 09 d0             	or     %rdx,%rax
   10afc:	48 c1 e0 37          	shl    $0x37,%rax
   10b00:	48 c1 f8 37          	sar    $0x37,%rax
   10b04:	98                   	cwtl   
   10b05:	89 ce                	mov    %ecx,%esi
   10b07:	89 c7                	mov    %eax,%edi
   10b09:	e8 1c 5a ff ff       	callq  652a <safe_rshift_func_int16_t_s_s>
   10b0e:	0f be c0             	movsbl %al,%eax
   10b11:	89 de                	mov    %ebx,%esi
   10b13:	89 c7                	mov    %eax,%edi
   10b15:	e8 1b 58 ff ff       	callq  6335 <safe_rshift_func_int8_t_s_s>
   10b1a:	48 0f be d0          	movsbq %al,%rdx
   10b1e:	48 8b 05 03 a8 00 00 	mov    0xa803(%rip),%rax        # 1b328 <g_415>
   10b25:	48 8b 00             	mov    (%rax),%rax
   10b28:	48 8b 00             	mov    (%rax),%rax
   10b2b:	48 8b 00             	mov    (%rax),%rax
   10b2e:	48 89 d6             	mov    %rdx,%rsi
   10b31:	48 89 c7             	mov    %rax,%rdi
   10b34:	e8 be 5e ff ff       	callq  69f7 <safe_div_func_int64_t_s_s>
   10b39:	0f be c0             	movsbl %al,%eax
   10b3c:	89 c6                	mov    %eax,%esi
   10b3e:	bf 01 00 00 00       	mov    $0x1,%edi
   10b43:	e8 ca 56 ff ff       	callq  6212 <safe_mul_func_int8_t_s_s>
   10b48:	84 c0                	test   %al,%al
   10b4a:	74 07                	je     10b53 <func_59+0x404>
   10b4c:	b8 01 00 00 00       	mov    $0x1,%eax
   10b51:	eb 05                	jmp    10b58 <func_59+0x409>
   10b53:	b8 00 00 00 00       	mov    $0x0,%eax
   10b58:	0f b7 d0             	movzwl %ax,%edx
   10b5b:	8b 85 e0 f2 ff ff    	mov    -0xd20(%rbp),%eax
   10b61:	0f b7 c0             	movzwl %ax,%eax
   10b64:	89 d6                	mov    %edx,%esi
   10b66:	89 c7                	mov    %eax,%edi
   10b68:	e8 b2 61 ff ff       	callq  6d1f <safe_sub_func_uint16_t_u_u>
   10b6d:	48 8d 85 8c f2 ff ff 	lea    -0xd74(%rbp),%rax
   10b74:	48 89 85 50 f5 ff ff 	mov    %rax,-0xab0(%rbp)
   10b7b:	48 c7 85 58 f5 ff ff 	movq   $0x0,-0xaa8(%rbp)
   10b82:	00 00 00 00 
   10b86:	48 8d 85 8c f2 ff ff 	lea    -0xd74(%rbp),%rax
   10b8d:	48 89 85 60 f5 ff ff 	mov    %rax,-0xaa0(%rbp)
   10b94:	48 c7 85 68 f5 ff ff 	movq   $0x0,-0xa98(%rbp)
   10b9b:	00 00 00 00 
   10b9f:	48 8d 85 8c f2 ff ff 	lea    -0xd74(%rbp),%rax
   10ba6:	48 89 85 70 f5 ff ff 	mov    %rax,-0xa90(%rbp)
   10bad:	48 c7 85 78 f5 ff ff 	movq   $0x0,-0xa88(%rbp)
   10bb4:	00 00 00 00 
   10bb8:	48 8d 85 8c f2 ff ff 	lea    -0xd74(%rbp),%rax
   10bbf:	48 89 85 80 f5 ff ff 	mov    %rax,-0xa80(%rbp)
   10bc6:	48 c7 85 88 f5 ff ff 	movq   $0x0,-0xa78(%rbp)
   10bcd:	00 00 00 00 
   10bd1:	48 8d 85 8c f2 ff ff 	lea    -0xd74(%rbp),%rax
   10bd8:	48 89 85 90 f5 ff ff 	mov    %rax,-0xa70(%rbp)
   10bdf:	48 c7 85 98 f5 ff ff 	movq   $0x0,-0xa68(%rbp)
   10be6:	00 00 00 00 
   10bea:	66 c7 85 84 f2 ff ff 	movw   $0xfff7,-0xd7c(%rbp)
   10bf1:	f7 ff 
   10bf3:	48 8d 05 76 9d 00 00 	lea    0x9d76(%rip),%rax        # 1a970 <g_649>
   10bfa:	48 89 85 10 f4 ff ff 	mov    %rax,-0xbf0(%rbp)
   10c01:	48 8d 85 30 f8 ff ff 	lea    -0x7d0(%rbp),%rax
   10c08:	48 8d 15 71 a2 00 00 	lea    0xa271(%rip),%rdx        # 1ae80 <g_2461+0x10>
   10c0f:	b9 48 00 00 00       	mov    $0x48,%ecx
   10c14:	48 89 c7             	mov    %rax,%rdi
   10c17:	48 89 d6             	mov    %rdx,%rsi
   10c1a:	f3 48 a5             	rep movsq %ds:(%rsi),%es:(%rdi)
   10c1d:	c7 85 90 f2 ff ff 01 	movl   $0x1,-0xd70(%rbp)
   10c24:	00 00 00 
   10c27:	48 8d 05 7a 94 00 00 	lea    0x947a(%rip),%rax        # 1a0a8 <g_205>
   10c2e:	48 89 85 30 f3 ff ff 	mov    %rax,-0xcd0(%rbp)
   10c35:	48 8d 85 30 f3 ff ff 	lea    -0xcd0(%rbp),%rax
   10c3c:	48 89 85 10 f6 ff ff 	mov    %rax,-0x9f0(%rbp)
   10c43:	48 c7 85 18 f6 ff ff 	movq   $0x0,-0x9e8(%rbp)
   10c4a:	00 00 00 00 
   10c4e:	48 8d 85 30 f3 ff ff 	lea    -0xcd0(%rbp),%rax
   10c55:	48 89 85 20 f6 ff ff 	mov    %rax,-0x9e0(%rbp)
   10c5c:	48 8d 85 30 f3 ff ff 	lea    -0xcd0(%rbp),%rax
   10c63:	48 89 85 28 f6 ff ff 	mov    %rax,-0x9d8(%rbp)
   10c6a:	48 c7 85 30 f6 ff ff 	movq   $0x0,-0x9d0(%rbp)
   10c71:	00 00 00 00 
   10c75:	48 c7 85 38 f6 ff ff 	movq   $0x0,-0x9c8(%rbp)
   10c7c:	00 00 00 00 
   10c80:	48 c7 85 40 f6 ff ff 	movq   $0x0,-0x9c0(%rbp)
   10c87:	00 00 00 00 
   10c8b:	48 8d 85 30 f3 ff ff 	lea    -0xcd0(%rbp),%rax
   10c92:	48 89 85 48 f6 ff ff 	mov    %rax,-0x9b8(%rbp)
   10c99:	48 8d 85 30 f3 ff ff 	lea    -0xcd0(%rbp),%rax
   10ca0:	48 89 85 50 f6 ff ff 	mov    %rax,-0x9b0(%rbp)
   10ca7:	48 c7 85 58 f6 ff ff 	movq   $0x0,-0x9a8(%rbp)
   10cae:	00 00 00 00 
   10cb2:	48 8d 85 30 f3 ff ff 	lea    -0xcd0(%rbp),%rax
   10cb9:	48 89 85 60 f6 ff ff 	mov    %rax,-0x9a0(%rbp)
   10cc0:	48 c7 85 68 f6 ff ff 	movq   $0x0,-0x998(%rbp)
   10cc7:	00 00 00 00 
   10ccb:	48 8d 85 30 f3 ff ff 	lea    -0xcd0(%rbp),%rax
   10cd2:	48 89 85 70 f6 ff ff 	mov    %rax,-0x990(%rbp)
   10cd9:	48 8d 85 30 f3 ff ff 	lea    -0xcd0(%rbp),%rax
   10ce0:	48 89 85 78 f6 ff ff 	mov    %rax,-0x988(%rbp)
   10ce7:	48 c7 85 80 f6 ff ff 	movq   $0x0,-0x980(%rbp)
   10cee:	00 00 00 00 
   10cf2:	48 c7 85 88 f6 ff ff 	movq   $0x0,-0x978(%rbp)
   10cf9:	00 00 00 00 
   10cfd:	48 c7 85 90 f6 ff ff 	movq   $0x0,-0x970(%rbp)
   10d04:	00 00 00 00 
   10d08:	48 8d 85 30 f3 ff ff 	lea    -0xcd0(%rbp),%rax
   10d0f:	48 89 85 98 f6 ff ff 	mov    %rax,-0x968(%rbp)
   10d16:	48 8d 85 30 f3 ff ff 	lea    -0xcd0(%rbp),%rax
   10d1d:	48 89 85 a0 f6 ff ff 	mov    %rax,-0x960(%rbp)
   10d24:	48 c7 85 a8 f6 ff ff 	movq   $0x0,-0x958(%rbp)
   10d2b:	00 00 00 00 
   10d2f:	48 c7 85 18 f4 ff ff 	movq   $0x3,-0xbe8(%rbp)
   10d36:	03 00 00 00 
   10d3a:	66 83 ad 84 f2 ff ff 	subw   $0x1,-0xd7c(%rbp)
   10d41:	01 
   10d42:	48 8b 85 10 f4 ff ff 	mov    -0xbf0(%rbp),%rax
   10d49:	8b 10                	mov    (%rax),%edx
   10d4b:	8b 85 60 f4 ff ff    	mov    -0xba0(%rbp),%eax
   10d51:	09 c2                	or     %eax,%edx
   10d53:	48 8b 85 10 f4 ff ff 	mov    -0xbf0(%rbp),%rax
   10d5a:	89 10                	mov    %edx,(%rax)
   10d5c:	8b 05 62 9c 00 00    	mov    0x9c62(%rip),%eax        # 1a9c4 <g_877+0x4>
   10d62:	0f bf d8             	movswl %ax,%ebx
   10d65:	8b 05 0d 9c 00 00    	mov    0x9c0d(%rip),%eax        # 1a978 <g_668>
   10d6b:	41 89 c5             	mov    %eax,%r13d
   10d6e:	8b 85 88 f2 ff ff    	mov    -0xd78(%rbp),%eax
   10d74:	48 98                	cltq   
   10d76:	48 be e4 44 d2 73 00 	movabs $0x6bf5e70073d244e4,%rsi
   10d7d:	e7 f5 6b 
   10d80:	48 89 c7             	mov    %rax,%rdi
   10d83:	e8 b9 5a ff ff       	callq  6841 <safe_add_func_int64_t_s_s>
   10d88:	48 89 c2             	mov    %rax,%rdx
   10d8b:	48 b8 0d dd 2c 5b 17 	movabs $0xbe74d7175b2cdd0d,%rax
   10d92:	d7 74 be 
   10d95:	48 39 c2             	cmp    %rax,%rdx
   10d98:	77 07                	ja     10da1 <func_59+0x652>
   10d9a:	b8 fa ff ff ff       	mov    $0xfffffffa,%eax
   10d9f:	eb 05                	jmp    10da6 <func_59+0x657>
   10da1:	b8 fb ff ff ff       	mov    $0xfffffffb,%eax
   10da6:	be 0c 00 00 00       	mov    $0xc,%esi
   10dab:	89 c7                	mov    %eax,%edi
   10dad:	e8 b1 57 ff ff       	callq  6563 <safe_rshift_func_int16_t_s_u>
   10db2:	44 0f b6 e0          	movzbl %al,%r12d
   10db6:	48 8b 85 20 f3 ff ff 	mov    -0xce0(%rbp),%rax
   10dbd:	41 89 c6             	mov    %eax,%r14d
   10dc0:	8b 85 a8 f2 ff ff    	mov    -0xd58(%rbp),%eax
   10dc6:	89 85 8c f2 ff ff    	mov    %eax,-0xd74(%rbp)
   10dcc:	8b 85 8c f2 ff ff    	mov    -0xd74(%rbp),%eax
   10dd2:	48 63 d0             	movslq %eax,%rdx
   10dd5:	48 8d 85 20 f3 ff ff 	lea    -0xce0(%rbp),%rax
   10ddc:	48 89 85 08 f4 ff ff 	mov    %rax,-0xbf8(%rbp)
   10de3:	48 8d 85 20 f3 ff ff 	lea    -0xce0(%rbp),%rax
   10dea:	48 39 85 08 f4 ff ff 	cmp    %rax,-0xbf8(%rbp)
   10df1:	0f 95 c0             	setne  %al
   10df4:	0f b6 c0             	movzbl %al,%eax
   10df7:	48 89 d6             	mov    %rdx,%rsi
   10dfa:	48 89 c7             	mov    %rax,%rdi
   10dfd:	e8 7e 62 ff ff       	callq  7080 <safe_mod_func_uint64_t_u_u>
   10e02:	98                   	cwtl   
   10e03:	44 89 f6             	mov    %r14d,%esi
   10e06:	89 c7                	mov    %eax,%edi
   10e08:	e8 1d 57 ff ff       	callq  652a <safe_rshift_func_int16_t_s_s>
   10e0d:	0f b6 c0             	movzbl %al,%eax
   10e10:	44 89 e6             	mov    %r12d,%esi
   10e13:	89 c7                	mov    %eax,%edi
   10e15:	e8 79 5d ff ff       	callq  6b93 <safe_mul_func_uint8_t_u_u>
   10e1a:	0f b6 c0             	movzbl %al,%eax
   10e1d:	4c 89 ee             	mov    %r13,%rsi
   10e20:	48 89 c7             	mov    %rax,%rdi
   10e23:	e8 cf 5b ff ff       	callq  69f7 <safe_div_func_int64_t_s_s>
   10e28:	98                   	cwtl   
   10e29:	89 de                	mov    %ebx,%esi
   10e2b:	89 c7                	mov    %eax,%edi
   10e2d:	e8 a1 55 ff ff       	callq  63d3 <safe_sub_func_int16_t_s_s>
   10e32:	98                   	cwtl   
   10e33:	89 c7                	mov    %eax,%edi
   10e35:	e8 6c 60 ff ff       	callq  6ea6 <safe_unary_minus_func_uint32_t_u>
   10e3a:	48 8b 85 60 f2 ff ff 	mov    -0xda0(%rbp),%rax
   10e41:	48 89 85 98 f5 ff ff 	mov    %rax,-0xa68(%rbp)
   10e48:	c7 05 ee 91 00 00 00 	movl   $0x0,0x91ee(%rip)        # 1a040 <g_101>
   10e4f:	00 00 00 
   10e52:	e9 ed 09 00 00       	jmpq   11844 <func_59+0x10f5>
   10e57:	48 c7 85 20 f4 ff ff 	movq   $0x0,-0xbe0(%rbp)
   10e5e:	00 00 00 00 
   10e62:	48 8d 05 57 92 00 00 	lea    0x9257(%rip),%rax        # 1a0c0 <g_322>
   10e69:	48 89 85 28 f4 ff ff 	mov    %rax,-0xbd8(%rbp)
   10e70:	48 8d 05 01 9b 00 00 	lea    0x9b01(%rip),%rax        # 1a978 <g_668>
   10e77:	48 89 85 38 f3 ff ff 	mov    %rax,-0xcc8(%rbp)
   10e7e:	48 8d 85 38 f3 ff ff 	lea    -0xcc8(%rbp),%rax
   10e85:	48 89 85 b0 f6 ff ff 	mov    %rax,-0x950(%rbp)
   10e8c:	48 8d 85 38 f3 ff ff 	lea    -0xcc8(%rbp),%rax
   10e93:	48 89 85 b8 f6 ff ff 	mov    %rax,-0x948(%rbp)
   10e9a:	48 8d 85 38 f3 ff ff 	lea    -0xcc8(%rbp),%rax
   10ea1:	48 89 85 c0 f6 ff ff 	mov    %rax,-0x940(%rbp)
   10ea8:	48 8d 85 38 f3 ff ff 	lea    -0xcc8(%rbp),%rax
   10eaf:	48 89 85 c8 f6 ff ff 	mov    %rax,-0x938(%rbp)
   10eb6:	48 8d 85 38 f3 ff ff 	lea    -0xcc8(%rbp),%rax
   10ebd:	48 89 85 d0 f6 ff ff 	mov    %rax,-0x930(%rbp)
   10ec4:	48 8d 85 38 f3 ff ff 	lea    -0xcc8(%rbp),%rax
   10ecb:	48 89 85 d8 f6 ff ff 	mov    %rax,-0x928(%rbp)
   10ed2:	48 8d 85 38 f3 ff ff 	lea    -0xcc8(%rbp),%rax
   10ed9:	48 89 85 e0 f6 ff ff 	mov    %rax,-0x920(%rbp)
   10ee0:	48 8d 85 38 f3 ff ff 	lea    -0xcc8(%rbp),%rax
   10ee7:	48 89 85 e8 f6 ff ff 	mov    %rax,-0x918(%rbp)
   10eee:	48 8d 85 38 f3 ff ff 	lea    -0xcc8(%rbp),%rax
   10ef5:	48 89 85 f0 f6 ff ff 	mov    %rax,-0x910(%rbp)
   10efc:	48 8d 85 38 f3 ff ff 	lea    -0xcc8(%rbp),%rax
   10f03:	48 89 85 f8 f6 ff ff 	mov    %rax,-0x908(%rbp)
   10f0a:	48 8d 85 38 f3 ff ff 	lea    -0xcc8(%rbp),%rax
   10f11:	48 89 85 00 f7 ff ff 	mov    %rax,-0x900(%rbp)
   10f18:	48 8d 85 38 f3 ff ff 	lea    -0xcc8(%rbp),%rax
   10f1f:	48 89 85 08 f7 ff ff 	mov    %rax,-0x8f8(%rbp)
   10f26:	48 8d 85 38 f3 ff ff 	lea    -0xcc8(%rbp),%rax
   10f2d:	48 89 85 10 f7 ff ff 	mov    %rax,-0x8f0(%rbp)
   10f34:	48 8d 85 38 f3 ff ff 	lea    -0xcc8(%rbp),%rax
   10f3b:	48 89 85 18 f7 ff ff 	mov    %rax,-0x8e8(%rbp)
   10f42:	48 8d 85 38 f3 ff ff 	lea    -0xcc8(%rbp),%rax
   10f49:	48 89 85 20 f7 ff ff 	mov    %rax,-0x8e0(%rbp)
   10f50:	48 8d 85 38 f3 ff ff 	lea    -0xcc8(%rbp),%rax
   10f57:	48 89 85 28 f7 ff ff 	mov    %rax,-0x8d8(%rbp)
   10f5e:	48 8d 85 38 f3 ff ff 	lea    -0xcc8(%rbp),%rax
   10f65:	48 89 85 30 f7 ff ff 	mov    %rax,-0x8d0(%rbp)
   10f6c:	48 8d 85 38 f3 ff ff 	lea    -0xcc8(%rbp),%rax
   10f73:	48 89 85 38 f7 ff ff 	mov    %rax,-0x8c8(%rbp)
   10f7a:	48 8d 85 38 f3 ff ff 	lea    -0xcc8(%rbp),%rax
   10f81:	48 89 85 40 f7 ff ff 	mov    %rax,-0x8c0(%rbp)
   10f88:	48 8d 85 38 f3 ff ff 	lea    -0xcc8(%rbp),%rax
   10f8f:	48 89 85 48 f7 ff ff 	mov    %rax,-0x8b8(%rbp)
   10f96:	48 8d 85 b0 f6 ff ff 	lea    -0x950(%rbp),%rax
   10f9d:	48 83 c0 28          	add    $0x28,%rax
   10fa1:	48 89 85 40 f3 ff ff 	mov    %rax,-0xcc0(%rbp)
   10fa8:	48 8d 85 40 f3 ff ff 	lea    -0xcc0(%rbp),%rax
   10faf:	48 89 85 00 f5 ff ff 	mov    %rax,-0xb00(%rbp)
   10fb6:	48 8d 85 40 f3 ff ff 	lea    -0xcc0(%rbp),%rax
   10fbd:	48 89 85 08 f5 ff ff 	mov    %rax,-0xaf8(%rbp)
   10fc4:	48 8d 85 40 f3 ff ff 	lea    -0xcc0(%rbp),%rax
   10fcb:	48 89 85 10 f5 ff ff 	mov    %rax,-0xaf0(%rbp)
   10fd2:	48 8d 85 40 f3 ff ff 	lea    -0xcc0(%rbp),%rax
   10fd9:	48 89 85 18 f5 ff ff 	mov    %rax,-0xae8(%rbp)
   10fe0:	48 8d 85 40 f3 ff ff 	lea    -0xcc0(%rbp),%rax
   10fe7:	48 89 85 20 f5 ff ff 	mov    %rax,-0xae0(%rbp)
   10fee:	48 8d 85 40 f3 ff ff 	lea    -0xcc0(%rbp),%rax
   10ff5:	48 89 85 28 f5 ff ff 	mov    %rax,-0xad8(%rbp)
   10ffc:	48 8d 85 40 f3 ff ff 	lea    -0xcc0(%rbp),%rax
   11003:	48 89 85 30 f5 ff ff 	mov    %rax,-0xad0(%rbp)
   1100a:	48 8d 85 40 f3 ff ff 	lea    -0xcc0(%rbp),%rax
   11011:	48 89 85 38 f5 ff ff 	mov    %rax,-0xac8(%rbp)
   11018:	48 8d 85 40 f3 ff ff 	lea    -0xcc0(%rbp),%rax
   1101f:	48 89 85 40 f5 ff ff 	mov    %rax,-0xac0(%rbp)
   11026:	c7 85 f8 f2 ff ff f1 	movl   $0x98c209f1,-0xd08(%rbp)
   1102d:	09 c2 98 
   11030:	c7 85 fc f2 ff ff fe 	movl   $0xfffffffe,-0xd04(%rbp)
   11037:	ff ff ff 
   1103a:	c7 85 00 f3 ff ff bd 	movl   $0xea9dcfbd,-0xd00(%rbp)
   11041:	cf 9d ea 
   11044:	c7 85 04 f3 ff ff 00 	movl   $0x0,-0xcfc(%rbp)
   1104b:	00 00 00 
   1104e:	c7 85 08 f3 ff ff 2f 	movl   $0xcbdb3e2f,-0xcf8(%rbp)
   11055:	3e db cb 
   11058:	c7 85 0c f3 ff ff ca 	movl   $0xf7e2d3ca,-0xcf4(%rbp)
   1105f:	d3 e2 f7 
   11062:	c7 85 a0 f5 ff ff ca 	movl   $0x714ed0ca,-0xa60(%rbp)
   11069:	d0 4e 71 
   1106c:	c7 85 a4 f5 ff ff 71 	movl   $0xa2128271,-0xa5c(%rbp)
   11073:	82 12 a2 
   11076:	c7 85 a8 f5 ff ff 71 	movl   $0xa2128271,-0xa58(%rbp)
   1107d:	82 12 a2 
   11080:	c7 85 ac f5 ff ff ca 	movl   $0x714ed0ca,-0xa54(%rbp)
   11087:	d0 4e 71 
   1108a:	c7 85 b0 f5 ff ff 71 	movl   $0xa2128271,-0xa50(%rbp)
   11091:	82 12 a2 
   11094:	c7 85 b4 f5 ff ff 71 	movl   $0xa2128271,-0xa4c(%rbp)
   1109b:	82 12 a2 
   1109e:	c7 85 b8 f5 ff ff ca 	movl   $0x714ed0ca,-0xa48(%rbp)
   110a5:	d0 4e 71 
   110a8:	c7 85 bc f5 ff ff ac 	movl   $0x694ea1ac,-0xa44(%rbp)
   110af:	a1 4e 69 
   110b2:	c7 85 c0 f5 ff ff fa 	movl   $0xfffffffa,-0xa40(%rbp)
   110b9:	ff ff ff 
   110bc:	c7 85 c4 f5 ff ff ac 	movl   $0x694ea1ac,-0xa3c(%rbp)
   110c3:	a1 4e 69 
   110c6:	c7 85 c8 f5 ff ff ac 	movl   $0x694ea1ac,-0xa38(%rbp)
   110cd:	a1 4e 69 
   110d0:	c7 85 cc f5 ff ff fa 	movl   $0xfffffffa,-0xa34(%rbp)
   110d7:	ff ff ff 
   110da:	c7 85 d0 f5 ff ff ac 	movl   $0x694ea1ac,-0xa30(%rbp)
   110e1:	a1 4e 69 
   110e4:	c7 85 d4 f5 ff ff ac 	movl   $0x694ea1ac,-0xa2c(%rbp)
   110eb:	a1 4e 69 
   110ee:	c7 85 d8 f5 ff ff ca 	movl   $0x714ed0ca,-0xa28(%rbp)
   110f5:	d0 4e 71 
   110f8:	c7 85 dc f5 ff ff ca 	movl   $0x714ed0ca,-0xa24(%rbp)
   110ff:	d0 4e 71 
   11102:	c7 85 e0 f5 ff ff 00 	movl   $0x0,-0xa20(%rbp)
   11109:	00 00 00 
   1110c:	c7 85 e4 f5 ff ff ca 	movl   $0x714ed0ca,-0xa1c(%rbp)
   11113:	d0 4e 71 
   11116:	c7 85 e8 f5 ff ff ca 	movl   $0x714ed0ca,-0xa18(%rbp)
   1111d:	d0 4e 71 
   11120:	c7 85 ec f5 ff ff 00 	movl   $0x0,-0xa14(%rbp)
   11127:	00 00 00 
   1112a:	c7 85 f0 f5 ff ff ca 	movl   $0x714ed0ca,-0xa10(%rbp)
   11131:	d0 4e 71 
   11134:	c7 85 f4 f5 ff ff fa 	movl   $0xfffffffa,-0xa0c(%rbp)
   1113b:	ff ff ff 
   1113e:	c7 85 f8 f5 ff ff ac 	movl   $0x694ea1ac,-0xa08(%rbp)
   11145:	a1 4e 69 
   11148:	c7 85 fc f5 ff ff ac 	movl   $0x694ea1ac,-0xa04(%rbp)
   1114f:	a1 4e 69 
   11152:	c7 85 00 f6 ff ff fa 	movl   $0xfffffffa,-0xa00(%rbp)
   11159:	ff ff ff 
   1115c:	c7 85 04 f6 ff ff ac 	movl   $0x694ea1ac,-0x9fc(%rbp)
   11163:	a1 4e 69 
   11166:	c7 85 08 f6 ff ff ac 	movl   $0x694ea1ac,-0x9f8(%rbp)
   1116d:	a1 4e 69 
   11170:	c7 85 0c f6 ff ff fa 	movl   $0xfffffffa,-0x9f4(%rbp)
   11177:	ff ff ff 
   1117a:	48 8b 85 20 f4 ff ff 	mov    -0xbe0(%rbp),%rax
   11181:	48 89 85 28 f4 ff ff 	mov    %rax,-0xbd8(%rbp)
   11188:	48 83 bd 28 f4 ff ff 	cmpq   $0x0,-0xbd8(%rbp)
   1118f:	00 
   11190:	0f 95 c0             	setne  %al
   11193:	0f b6 c8             	movzbl %al,%ecx
   11196:	48 8b 05 43 a1 00 00 	mov    0xa143(%rip),%rax        # 1b2e0 <g_223>
   1119d:	8b 10                	mov    (%rax),%edx
   1119f:	48 8b 05 3a a1 00 00 	mov    0xa13a(%rip),%rax        # 1b2e0 <g_223>
   111a6:	09 ca                	or     %ecx,%edx
   111a8:	89 10                	mov    %edx,(%rax)
   111aa:	c7 05 90 8e 00 00 00 	movl   $0x0,0x8e90(%rip)        # 1a044 <g_104>
   111b1:	00 00 00 
   111b4:	e9 ea 01 00 00       	jmpq   113a3 <func_59+0xc54>
   111b9:	48 8d 05 b8 8e 00 00 	lea    0x8eb8(%rip),%rax        # 1a078 <g_154+0x18>
   111c0:	48 89 85 30 f4 ff ff 	mov    %rax,-0xbd0(%rbp)
   111c7:	48 c7 85 38 f4 ff ff 	movq   $0x0,-0xbc8(%rbp)
   111ce:	00 00 00 00 
   111d2:	48 8d 85 00 f5 ff ff 	lea    -0xb00(%rbp),%rax
   111d9:	48 83 c0 10          	add    $0x10,%rax
   111dd:	48 89 85 40 f4 ff ff 	mov    %rax,-0xbc0(%rbp)
   111e4:	c7 85 10 f3 ff ff 49 	movl   $0xfce01b49,-0xcf0(%rbp)
   111eb:	1b e0 fc 
   111ee:	48 8d 05 7f 97 00 00 	lea    0x977f(%rip),%rax        # 1a974 <g_660>
   111f5:	48 89 85 48 f4 ff ff 	mov    %rax,-0xbb8(%rbp)
   111fc:	48 8d 05 45 aa 00 00 	lea    0xaa45(%rip),%rax        # 1bc48 <g_939>
   11203:	48 89 85 48 f3 ff ff 	mov    %rax,-0xcb8(%rbp)
   1120a:	48 8b 05 b7 a0 00 00 	mov    0xa0b7(%rip),%rax        # 1b2c8 <g_137>
   11211:	48 8b 00             	mov    (%rax),%rax
   11214:	0f b7 00             	movzwl (%rax),%eax
   11217:	0f b7 d8             	movzwl %ax,%ebx
   1121a:	0f b6 05 0b 8e 00 00 	movzbl 0x8e0b(%rip),%eax        # 1a02c <g_33>
   11221:	84 c0                	test   %al,%al
   11223:	75 1a                	jne    1123f <func_59+0xaf0>
   11225:	8b 85 10 f3 ff ff    	mov    -0xcf0(%rbp),%eax
   1122b:	0f be c0             	movsbl %al,%eax
   1122e:	8b 95 10 f3 ff ff    	mov    -0xcf0(%rbp),%edx
   11234:	89 d6                	mov    %edx,%esi
   11236:	89 c7                	mov    %eax,%edi
   11238:	e8 64 50 ff ff       	callq  62a1 <safe_lshift_func_int8_t_s_s>
   1123d:	84 c0                	test   %al,%al
   1123f:	8b 85 60 f4 ff ff    	mov    -0xba0(%rbp),%eax
   11245:	85 c0                	test   %eax,%eax
   11247:	0f 9f c0             	setg   %al
   1124a:	0f b6 d0             	movzbl %al,%edx
   1124d:	48 8b 85 48 f4 ff ff 	mov    -0xbb8(%rbp),%rax
   11254:	0f b7 00             	movzwl (%rax),%eax
   11257:	89 c1                	mov    %eax,%ecx
   11259:	89 d0                	mov    %edx,%eax
   1125b:	21 c8                	and    %ecx,%eax
   1125d:	89 c2                	mov    %eax,%edx
   1125f:	48 8b 85 48 f4 ff ff 	mov    -0xbb8(%rbp),%rax
   11266:	66 89 10             	mov    %dx,(%rax)
   11269:	48 8b 85 48 f4 ff ff 	mov    -0xbb8(%rbp),%rax
   11270:	0f b7 00             	movzwl (%rax),%eax
   11273:	0f b7 c0             	movzwl %ax,%eax
   11276:	89 de                	mov    %ebx,%esi
   11278:	89 c7                	mov    %eax,%edi
   1127a:	e8 80 5a ff ff       	callq  6cff <safe_add_func_uint16_t_u_u>
   1127f:	0f b6 d0             	movzbl %al,%edx
   11282:	8b 8d 68 f4 ff ff    	mov    -0xb98(%rbp),%ecx
   11288:	0f b7 05 9f 8d 00 00 	movzwl 0x8d9f(%rip),%eax        # 1a02e <g_69>
   1128f:	0f b7 c0             	movzwl %ax,%eax
   11292:	39 c1                	cmp    %eax,%ecx
   11294:	0f 9d c0             	setge  %al
   11297:	0f b6 c0             	movzbl %al,%eax
   1129a:	89 d6                	mov    %edx,%esi
   1129c:	89 c7                	mov    %eax,%edi
   1129e:	e8 f0 58 ff ff       	callq  6b93 <safe_mul_func_uint8_t_u_u>
   112a3:	0f be c0             	movsbl %al,%eax
   112a6:	be 2c 00 00 00       	mov    $0x2c,%esi
   112ab:	89 c7                	mov    %eax,%edi
   112ad:	e8 60 4f ff ff       	callq  6212 <safe_mul_func_int8_t_s_s>
   112b2:	48 8b 05 ef 8d 00 00 	mov    0x8def(%rip),%rax        # 1a0a8 <g_205>
   112b9:	48 85 c0             	test   %rax,%rax
   112bc:	74 07                	je     112c5 <func_59+0xb76>
   112be:	b8 01 00 00 00       	mov    $0x1,%eax
   112c3:	eb 05                	jmp    112ca <func_59+0xb7b>
   112c5:	b8 00 00 00 00       	mov    $0x0,%eax
   112ca:	3b 85 a8 f2 ff ff    	cmp    -0xd58(%rbp),%eax
   112d0:	7f 18                	jg     112ea <func_59+0xb9b>
   112d2:	48 8b 05 1f a0 00 00 	mov    0xa01f(%rip),%rax        # 1b2f8 <g_336>
   112d9:	48 8b 00             	mov    (%rax),%rax
   112dc:	0f b6 00             	movzbl (%rax),%eax
   112df:	84 c0                	test   %al,%al
   112e1:	74 07                	je     112ea <func_59+0xb9b>
   112e3:	b8 01 00 00 00       	mov    $0x1,%eax
   112e8:	eb 05                	jmp    112ef <func_59+0xba0>
   112ea:	b8 00 00 00 00       	mov    $0x0,%eax
   112ef:	98                   	cwtl   
   112f0:	be ff ff ff ff       	mov    $0xffffffff,%esi
   112f5:	89 c7                	mov    %eax,%edi
   112f7:	e8 1a 51 ff ff       	callq  6416 <safe_mod_func_int16_t_s_s>
   112fc:	98                   	cwtl   
   112fd:	89 c6                	mov    %eax,%esi
   112ff:	bf 06 00 00 00       	mov    $0x6,%edi
   11304:	e8 b5 5a ff ff       	callq  6dbe <safe_lshift_func_uint16_t_u_s>
   11309:	48 8b 85 30 f4 ff ff 	mov    -0xbd0(%rbp),%rax
   11310:	0f b6 00             	movzbl (%rax),%eax
   11313:	8d 50 01             	lea    0x1(%rax),%edx
   11316:	48 8b 85 30 f4 ff ff 	mov    -0xbd0(%rbp),%rax
   1131d:	88 10                	mov    %dl,(%rax)
   1131f:	48 8b 85 30 f4 ff ff 	mov    -0xbd0(%rbp),%rax
   11326:	0f b6 00             	movzbl (%rax),%eax
   11329:	0f b6 c8             	movzbl %al,%ecx
   1132c:	48 8b 95 00 f5 ff ff 	mov    -0xb00(%rbp),%rdx
   11333:	48 8b 85 40 f4 ff ff 	mov    -0xbc0(%rbp),%rax
   1133a:	48 89 10             	mov    %rdx,(%rax)
   1133d:	48 8b 85 40 f4 ff ff 	mov    -0xbc0(%rbp),%rax
   11344:	48 8b 00             	mov    (%rax),%rax
   11347:	48 85 c0             	test   %rax,%rax
   1134a:	0f 94 c0             	sete   %al
   1134d:	0f b6 c0             	movzbl %al,%eax
   11350:	39 c1                	cmp    %eax,%ecx
   11352:	0f 94 c0             	sete   %al
   11355:	0f b6 c0             	movzbl %al,%eax
   11358:	be 05 00 00 00       	mov    $0x5,%esi
   1135d:	89 c7                	mov    %eax,%edi
   1135f:	e8 29 59 ff ff       	callq  6c8d <safe_rshift_func_uint8_t_u_s>
   11364:	0f b6 c0             	movzbl %al,%eax
   11367:	8b 95 f8 f2 ff ff    	mov    -0xd08(%rbp),%edx
   1136d:	89 d6                	mov    %edx,%esi
   1136f:	89 c7                	mov    %eax,%edi
   11371:	e8 89 53 ff ff       	callq  66ff <safe_div_func_int32_t_s_s>
   11376:	21 85 9c f2 ff ff    	and    %eax,-0xd64(%rbp)
   1137c:	8b 85 88 f2 ff ff    	mov    -0xd78(%rbp),%eax
   11382:	85 c0                	test   %eax,%eax
   11384:	75 2e                	jne    113b4 <func_59+0xc65>
   11386:	48 8b 05 c3 a8 00 00 	mov    0xa8c3(%rip),%rax        # 1bc50 <g_938>
   1138d:	48 89 85 48 f3 ff ff 	mov    %rax,-0xcb8(%rbp)
   11394:	8b 05 aa 8c 00 00    	mov    0x8caa(%rip),%eax        # 1a044 <g_104>
   1139a:	83 c0 01             	add    $0x1,%eax
   1139d:	89 05 a1 8c 00 00    	mov    %eax,0x8ca1(%rip)        # 1a044 <g_104>
   113a3:	8b 05 9b 8c 00 00    	mov    0x8c9b(%rip),%eax        # 1a044 <g_104>
   113a9:	83 f8 02             	cmp    $0x2,%eax
   113ac:	0f 8e 07 fe ff ff    	jle    111b9 <func_59+0xa6a>
   113b2:	eb 01                	jmp    113b5 <func_59+0xc66>
   113b4:	90                   	nop
   113b5:	c7 85 9c f2 ff ff 00 	movl   $0x0,-0xd64(%rbp)
   113bc:	00 00 00 
   113bf:	e9 61 04 00 00       	jmpq   11825 <func_59+0x10d6>
   113c4:	c7 45 ba c3 c3 c3 c3 	movl   $0xc3c3c3c3,-0x46(%rbp)
   113cb:	66 c7 45 be c3 c3    	movw   $0xc3c3,-0x42(%rbp)
   113d1:	48 8d 05 a0 8c 00 00 	lea    0x8ca0(%rip),%rax        # 1a078 <g_154+0x18>
   113d8:	48 89 85 50 f4 ff ff 	mov    %rax,-0xbb0(%rbp)
   113df:	48 8d 45 c0          	lea    -0x40(%rbp),%rax
   113e3:	48 83 c0 07          	add    $0x7,%rax
   113e7:	48 89 85 58 f4 ff ff 	mov    %rax,-0xba8(%rbp)
   113ee:	48 8d 05 57 8c 00 00 	lea    0x8c57(%rip),%rax        # 1a04c <g_148>
   113f5:	48 89 85 50 f7 ff ff 	mov    %rax,-0x8b0(%rbp)
   113fc:	48 c7 85 58 f7 ff ff 	movq   $0x0,-0x8a8(%rbp)
   11403:	00 00 00 00 
   11407:	48 8d 05 3e 8c 00 00 	lea    0x8c3e(%rip),%rax        # 1a04c <g_148>
   1140e:	48 89 85 60 f7 ff ff 	mov    %rax,-0x8a0(%rbp)
   11415:	48 8d 05 30 8c 00 00 	lea    0x8c30(%rip),%rax        # 1a04c <g_148>
   1141c:	48 89 85 68 f7 ff ff 	mov    %rax,-0x898(%rbp)
   11423:	48 c7 85 70 f7 ff ff 	movq   $0x0,-0x890(%rbp)
   1142a:	00 00 00 00 
   1142e:	48 c7 85 78 f7 ff ff 	movq   $0x0,-0x888(%rbp)
   11435:	00 00 00 00 
   11439:	48 8d 05 0c 8c 00 00 	lea    0x8c0c(%rip),%rax        # 1a04c <g_148>
   11440:	48 89 85 80 f7 ff ff 	mov    %rax,-0x880(%rbp)
   11447:	48 c7 85 88 f7 ff ff 	movq   $0x0,-0x878(%rbp)
   1144e:	00 00 00 00 
   11452:	48 c7 85 90 f7 ff ff 	movq   $0x0,-0x870(%rbp)
   11459:	00 00 00 00 
   1145d:	48 8d 05 e8 8b 00 00 	lea    0x8be8(%rip),%rax        # 1a04c <g_148>
   11464:	48 89 85 98 f7 ff ff 	mov    %rax,-0x868(%rbp)
   1146b:	48 8d 05 da 8b 00 00 	lea    0x8bda(%rip),%rax        # 1a04c <g_148>
   11472:	48 89 85 a0 f7 ff ff 	mov    %rax,-0x860(%rbp)
   11479:	48 c7 85 a8 f7 ff ff 	movq   $0x0,-0x858(%rbp)
   11480:	00 00 00 00 
   11484:	48 8d 05 c1 8b 00 00 	lea    0x8bc1(%rip),%rax        # 1a04c <g_148>
   1148b:	48 89 85 b0 f7 ff ff 	mov    %rax,-0x850(%rbp)
   11492:	48 c7 85 b8 f7 ff ff 	movq   $0x0,-0x848(%rbp)
   11499:	00 00 00 00 
   1149d:	48 8d 05 a8 8b 00 00 	lea    0x8ba8(%rip),%rax        # 1a04c <g_148>
   114a4:	48 89 85 c0 f7 ff ff 	mov    %rax,-0x840(%rbp)
   114ab:	48 8d 05 9a 8b 00 00 	lea    0x8b9a(%rip),%rax        # 1a04c <g_148>
   114b2:	48 89 85 c8 f7 ff ff 	mov    %rax,-0x838(%rbp)
   114b9:	48 8d 05 8c 8b 00 00 	lea    0x8b8c(%rip),%rax        # 1a04c <g_148>
   114c0:	48 89 85 d0 f7 ff ff 	mov    %rax,-0x830(%rbp)
   114c7:	48 8d 05 7e 8b 00 00 	lea    0x8b7e(%rip),%rax        # 1a04c <g_148>
   114ce:	48 89 85 d8 f7 ff ff 	mov    %rax,-0x828(%rbp)
   114d5:	48 c7 85 e0 f7 ff ff 	movq   $0x0,-0x820(%rbp)
   114dc:	00 00 00 00 
   114e0:	48 8d 05 65 8b 00 00 	lea    0x8b65(%rip),%rax        # 1a04c <g_148>
   114e7:	48 89 85 e8 f7 ff ff 	mov    %rax,-0x818(%rbp)
   114ee:	48 8d 05 57 8b 00 00 	lea    0x8b57(%rip),%rax        # 1a04c <g_148>
   114f5:	48 89 85 f0 f7 ff ff 	mov    %rax,-0x810(%rbp)
   114fc:	48 8d 05 49 8b 00 00 	lea    0x8b49(%rip),%rax        # 1a04c <g_148>
   11503:	48 89 85 f8 f7 ff ff 	mov    %rax,-0x808(%rbp)
   1150a:	48 8d 05 3b 8b 00 00 	lea    0x8b3b(%rip),%rax        # 1a04c <g_148>
   11511:	48 89 85 00 f8 ff ff 	mov    %rax,-0x800(%rbp)
   11518:	48 8d 05 2d 8b 00 00 	lea    0x8b2d(%rip),%rax        # 1a04c <g_148>
   1151f:	48 89 85 08 f8 ff ff 	mov    %rax,-0x7f8(%rbp)
   11526:	48 8d 05 1f 8b 00 00 	lea    0x8b1f(%rip),%rax        # 1a04c <g_148>
   1152d:	48 89 85 10 f8 ff ff 	mov    %rax,-0x7f0(%rbp)
   11534:	48 8d 05 11 8b 00 00 	lea    0x8b11(%rip),%rax        # 1a04c <g_148>
   1153b:	48 89 85 18 f8 ff ff 	mov    %rax,-0x7e8(%rbp)
   11542:	48 8d 05 03 8b 00 00 	lea    0x8b03(%rip),%rax        # 1a04c <g_148>
   11549:	48 89 85 20 f8 ff ff 	mov    %rax,-0x7e0(%rbp)
   11550:	48 8d 05 f5 8a 00 00 	lea    0x8af5(%rip),%rax        # 1a04c <g_148>
   11557:	48 89 85 28 f8 ff ff 	mov    %rax,-0x7d8(%rbp)
   1155e:	c7 85 14 f3 ff ff 0f 	movl   $0x6166400f,-0xcec(%rbp)
   11565:	40 66 61 
   11568:	c7 85 d0 f4 ff ff f5 	movl   $0x4880ccf5,-0xb30(%rbp)
   1156f:	cc 80 48 
   11572:	c7 85 d4 f4 ff ff 09 	movl   $0xc6ce6d09,-0xb2c(%rbp)
   11579:	6d ce c6 
   1157c:	c7 85 d8 f4 ff ff ff 	movl   $0xffffffff,-0xb28(%rbp)
   11583:	ff ff ff 
   11586:	c7 85 dc f4 ff ff 09 	movl   $0xc6ce6d09,-0xb24(%rbp)
   1158d:	6d ce c6 
   11590:	c7 85 e0 f4 ff ff f5 	movl   $0x4880ccf5,-0xb20(%rbp)
   11597:	cc 80 48 
   1159a:	c7 85 e4 f4 ff ff f5 	movl   $0x4880ccf5,-0xb1c(%rbp)
   115a1:	cc 80 48 
   115a4:	c7 85 e8 f4 ff ff 09 	movl   $0xc6ce6d09,-0xb18(%rbp)
   115ab:	6d ce c6 
   115ae:	c7 85 ec f4 ff ff ff 	movl   $0xffffffff,-0xb14(%rbp)
   115b5:	ff ff ff 
   115b8:	c7 85 f0 f4 ff ff 09 	movl   $0xc6ce6d09,-0xb10(%rbp)
   115bf:	6d ce c6 
   115c2:	c7 85 f4 f4 ff ff f5 	movl   $0x4880ccf5,-0xb0c(%rbp)
   115c9:	cc 80 48 
   115cc:	c7 05 bf 93 00 00 00 	movl   $0x0,0x93bf(%rip)        # 1a995 <g_772+0x5>
   115d3:	00 00 00 
   115d6:	eb 25                	jmp    115fd <func_59+0xeae>
   115d8:	48 8b 05 01 9d 00 00 	mov    0x9d01(%rip),%rax        # 1b2e0 <g_223>
   115df:	8b 00                	mov    (%rax),%eax
   115e1:	09 85 a0 f2 ff ff    	or     %eax,-0xd60(%rbp)
   115e7:	83 85 90 f2 ff ff 01 	addl   $0x1,-0xd70(%rbp)
   115ee:	8b 05 a1 93 00 00    	mov    0x93a1(%rip),%eax        # 1a995 <g_772+0x5>
   115f4:	83 c0 01             	add    $0x1,%eax
   115f7:	89 05 98 93 00 00    	mov    %eax,0x9398(%rip)        # 1a995 <g_772+0x5>
   115fd:	8b 05 92 93 00 00    	mov    0x9392(%rip),%eax        # 1a995 <g_772+0x5>
   11603:	83 f8 02             	cmp    $0x2,%eax
   11606:	76 d0                	jbe    115d8 <func_59+0xe89>
   11608:	48 8b 05 39 a6 00 00 	mov    0xa639(%rip),%rax        # 1bc48 <g_939>
   1160f:	48 8b 00             	mov    (%rax),%rax
   11612:	48 8b 00             	mov    (%rax),%rax
   11615:	48 8b 00             	mov    (%rax),%rax
   11618:	8b 18                	mov    (%rax),%ebx
   1161a:	48 83 bd 68 f2 ff ff 	cmpq   $0x0,-0xd98(%rbp)
   11621:	00 
   11622:	0f 95 c0             	setne  %al
   11625:	44 0f b6 f8          	movzbl %al,%r15d
   11629:	8b 85 f8 f2 ff ff    	mov    -0xd08(%rbp),%eax
   1162f:	44 0f be e0          	movsbl %al,%r12d
   11633:	0f b6 45 bf          	movzbl -0x41(%rbp),%eax
   11637:	0f b6 c0             	movzbl %al,%eax
   1163a:	89 85 54 f2 ff ff    	mov    %eax,-0xdac(%rbp)
   11640:	8b 85 f8 f2 ff ff    	mov    -0xd08(%rbp),%eax
   11646:	4c 63 e8             	movslq %eax,%r13
   11649:	0f b6 05 38 b5 00 00 	movzbl 0xb538(%rip),%eax        # 1cb88 <g_324>
   11650:	44 0f be f0          	movsbl %al,%r14d
   11654:	8b 85 60 f4 ff ff    	mov    -0xba0(%rbp),%eax
   1165a:	48 98                	cltq   
   1165c:	48 c7 c6 ff ff ff ff 	mov    $0xffffffffffffffff,%rsi
   11663:	48 89 c7             	mov    %rax,%rdi
   11666:	e8 8c 53 ff ff       	callq  69f7 <safe_div_func_int64_t_s_s>
   1166b:	8b 85 70 f4 ff ff    	mov    -0xb90(%rbp),%eax
   11671:	89 c2                	mov    %eax,%edx
   11673:	48 8b 85 50 f4 ff ff 	mov    -0xbb0(%rbp),%rax
   1167a:	88 10                	mov    %dl,(%rax)
   1167c:	48 be f6 f2 ae 20 9e 	movabs $0x7864ae9e20aef2f6,%rsi
   11683:	ae 64 78 
   11686:	bf 01 00 00 00       	mov    $0x1,%edi
   1168b:	e8 1f 5a ff ff       	callq  70af <safe_div_func_uint64_t_u_u>
   11690:	0f be c0             	movsbl %al,%eax
   11693:	44 89 f6             	mov    %r14d,%esi
   11696:	89 c7                	mov    %eax,%edi
   11698:	e8 98 4c ff ff       	callq  6335 <safe_rshift_func_int8_t_s_s>
   1169d:	48 0f be c0          	movsbq %al,%rax
   116a1:	4c 89 ee             	mov    %r13,%rsi
   116a4:	48 89 c7             	mov    %rax,%rdi
   116a7:	e8 08 53 ff ff       	callq  69b4 <safe_mod_func_int64_t_s_s>
   116ac:	0f b6 55 c2          	movzbl -0x3e(%rbp),%edx
   116b0:	48 0f be d2          	movsbq %dl,%rdx
   116b4:	48 39 d0             	cmp    %rdx,%rax
   116b7:	0f 9e c0             	setle  %al
   116ba:	0f b6 c0             	movzbl %al,%eax
   116bd:	39 85 54 f2 ff ff    	cmp    %eax,-0xdac(%rbp)
   116c3:	0f 9e c0             	setle  %al
   116c6:	44 0f b6 e8          	movzbl %al,%r13d
   116ca:	48 8b 05 df 89 00 00 	mov    0x89df(%rip),%rax        # 1a0b0 <g_209>
   116d1:	48 c1 e0 1d          	shl    $0x1d,%rax
   116d5:	48 c1 f8 36          	sar    $0x36,%rax
   116d9:	0f b7 d0             	movzwl %ax,%edx
   116dc:	0f b6 45 be          	movzbl -0x42(%rbp),%eax
   116e0:	0f b6 c0             	movzbl %al,%eax
   116e3:	89 d6                	mov    %edx,%esi
   116e5:	89 c7                	mov    %eax,%edi
   116e7:	e8 70 56 ff ff       	callq  6d5c <safe_mod_func_uint16_t_u_u>
   116ec:	66 85 c0             	test   %ax,%ax
   116ef:	0f 95 c0             	setne  %al
   116f2:	0f b6 c0             	movzbl %al,%eax
   116f5:	44 89 ee             	mov    %r13d,%esi
   116f8:	89 c7                	mov    %eax,%edi
   116fa:	e8 20 56 ff ff       	callq  6d1f <safe_sub_func_uint16_t_u_u>
   116ff:	89 c2                	mov    %eax,%edx
   11701:	48 8b 85 58 f4 ff ff 	mov    -0xba8(%rbp),%rax
   11708:	88 10                	mov    %dl,(%rax)
   1170a:	48 8b 85 58 f4 ff ff 	mov    -0xba8(%rbp),%rax
   11711:	0f b6 00             	movzbl (%rax),%eax
   11714:	0f be c0             	movsbl %al,%eax
   11717:	44 89 e6             	mov    %r12d,%esi
   1171a:	89 c7                	mov    %eax,%edi
   1171c:	e8 f1 4a ff ff       	callq  6212 <safe_mul_func_int8_t_s_s>
   11721:	0f be c0             	movsbl %al,%eax
   11724:	41 39 c7             	cmp    %eax,%r15d
   11727:	0f 9e c2             	setle  %dl
   1172a:	48 8b 05 af 9b 00 00 	mov    0x9baf(%rip),%rax        # 1b2e0 <g_223>
   11731:	0f b6 d2             	movzbl %dl,%edx
   11734:	89 10                	mov    %edx,(%rax)
   11736:	8b 00                	mov    (%rax),%eax
   11738:	3d a4 e8 6c 3f       	cmp    $0x3f6ce8a4,%eax
   1173d:	0f 95 c0             	setne  %al
   11740:	0f b6 c0             	movzbl %al,%eax
   11743:	89 de                	mov    %ebx,%esi
   11745:	89 c7                	mov    %eax,%edi
   11747:	e8 b1 57 ff ff       	callq  6efd <safe_mod_func_uint32_t_u_u>
   1174c:	89 c0                	mov    %eax,%eax
   1174e:	25 b8 0c 00 00       	and    $0xcb8,%eax
   11753:	48 89 c6             	mov    %rax,%rsi
   11756:	48 bf d9 89 1d 26 49 	movabs $0xc688c949261d89d9,%rdi
   1175d:	c9 88 c6 
   11760:	e8 4f 52 ff ff       	callq  69b4 <safe_mod_func_int64_t_s_s>
   11765:	89 c2                	mov    %eax,%edx
   11767:	0f b7 05 de 88 00 00 	movzwl 0x88de(%rip),%eax        # 1a04c <g_148>
   1176e:	09 d0                	or     %edx,%eax
   11770:	66 89 05 d5 88 00 00 	mov    %ax,0x88d5(%rip)        # 1a04c <g_148>
   11777:	0f b7 05 ce 88 00 00 	movzwl 0x88ce(%rip),%eax        # 1a04c <g_148>
   1177e:	98                   	cwtl   
   1177f:	09 85 a4 f2 ff ff    	or     %eax,-0xd5c(%rbp)
   11785:	83 bd a4 f2 ff ff 00 	cmpl   $0x0,-0xd5c(%rbp)
   1178c:	75 26                	jne    117b4 <func_59+0x1065>
   1178e:	c7 85 1c f3 ff ff 8b 	movl   $0xf1a4988b,-0xce4(%rbp)
   11795:	98 a4 f1 
   11798:	83 ad 1c f3 ff ff 01 	subl   $0x1,-0xce4(%rbp)
   1179f:	83 bd f8 f2 ff ff 00 	cmpl   $0x0,-0xd08(%rbp)
   117a6:	0f 85 88 00 00 00    	jne    11834 <func_59+0x10e5>
   117ac:	0f b6 45 bf          	movzbl -0x41(%rbp),%eax
   117b0:	84 c0                	test   %al,%al
   117b2:	eb 6a                	jmp    1181e <func_59+0x10cf>
   117b4:	66 c7 85 86 f2 ff ff 	movw   $0xfff9,-0xd7a(%rbp)
   117bb:	f9 ff 
   117bd:	c7 85 18 f3 ff ff 23 	movl   $0xb009c023,-0xce8(%rbp)
   117c4:	c0 09 b0 
   117c7:	c7 85 80 f4 ff ff ff 	movl   $0xffffffff,-0xb80(%rbp)
   117ce:	ff ff ff 
   117d1:	c7 85 84 f4 ff ff ff 	movl   $0xffffffff,-0xb7c(%rbp)
   117d8:	ff ff ff 
   117db:	c7 85 88 f4 ff ff ff 	movl   $0xffffffff,-0xb78(%rbp)
   117e2:	ff ff ff 
   117e5:	c7 85 8c f4 ff ff ff 	movl   $0xffffffff,-0xb74(%rbp)
   117ec:	ff ff ff 
   117ef:	c7 85 90 f4 ff ff ff 	movl   $0xffffffff,-0xb70(%rbp)
   117f6:	ff ff ff 
   117f9:	80 ad 7d f2 ff ff 01 	subb   $0x1,-0xd83(%rbp)
   11800:	0f b7 05 dd 91 00 00 	movzwl 0x91dd(%rip),%eax        # 1a9e4 <g_989>
   11807:	83 e8 01             	sub    $0x1,%eax
   1180a:	66 89 05 d3 91 00 00 	mov    %ax,0x91d3(%rip)        # 1a9e4 <g_989>
   11811:	0f b6 45 bd          	movzbl -0x43(%rbp),%eax
   11815:	0f b6 c0             	movzbl %al,%eax
   11818:	89 85 04 f3 ff ff    	mov    %eax,-0xcfc(%rbp)
   1181e:	83 85 9c f2 ff ff 01 	addl   $0x1,-0xd64(%rbp)
   11825:	83 bd 9c f2 ff ff 02 	cmpl   $0x2,-0xd64(%rbp)
   1182c:	0f 8e 92 fb ff ff    	jle    113c4 <func_59+0xc75>
   11832:	eb 01                	jmp    11835 <func_59+0x10e6>
   11834:	90                   	nop
   11835:	8b 05 05 88 00 00    	mov    0x8805(%rip),%eax        # 1a040 <g_101>
   1183b:	83 c0 01             	add    $0x1,%eax
   1183e:	89 05 fc 87 00 00    	mov    %eax,0x87fc(%rip)        # 1a040 <g_101>
   11844:	8b 05 f6 87 00 00    	mov    0x87f6(%rip),%eax        # 1a040 <g_101>
   1184a:	83 f8 02             	cmp    $0x2,%eax
   1184d:	0f 86 04 f6 ff ff    	jbe    10e57 <func_59+0x708>
   11853:	48 c7 85 58 f3 ff ff 	movq   $0x0,-0xca8(%rbp)
   1185a:	00 00 00 00 
   1185e:	48 8b 85 30 f3 ff ff 	mov    -0xcd0(%rbp),%rax
   11865:	8b 95 a4 f2 ff ff    	mov    -0xd5c(%rbp),%edx
   1186b:	48 63 d2             	movslq %edx,%rdx
   1186e:	48 89 10             	mov    %rdx,(%rax)
   11871:	48 8b 00             	mov    (%rax),%rax
   11874:	41 89 c4             	mov    %eax,%r12d
   11877:	0f b6 05 74 52 00 00 	movzbl 0x5274(%rip),%eax        # 16af2 <l_1004.4820+0x2>
   1187e:	0f be d8             	movsbl %al,%ebx
   11881:	8b 85 70 f4 ff ff    	mov    -0xb90(%rbp),%eax
   11887:	0f bf d0             	movswl %ax,%edx
   1188a:	8b 85 60 f4 ff ff    	mov    -0xba0(%rbp),%eax
   11890:	85 c0                	test   %eax,%eax
   11892:	0f 94 c0             	sete   %al
   11895:	0f b6 c0             	movzbl %al,%eax
   11898:	89 d6                	mov    %edx,%esi
   1189a:	89 c7                	mov    %eax,%edi
   1189c:	e8 b4 4b ff ff       	callq  6455 <safe_div_func_int16_t_s_s>
   118a1:	0f be c0             	movsbl %al,%eax
   118a4:	89 de                	mov    %ebx,%esi
   118a6:	89 c7                	mov    %eax,%edi
   118a8:	e8 84 49 ff ff       	callq  6231 <safe_mod_func_int8_t_s_s>
   118ad:	84 c0                	test   %al,%al
   118af:	0f 95 c0             	setne  %al
   118b2:	0f b6 c0             	movzbl %al,%eax
   118b5:	44 89 e2             	mov    %r12d,%edx
   118b8:	31 c2                	xor    %eax,%edx
   118ba:	48 8b 05 37 9a 00 00 	mov    0x9a37(%rip),%rax        # 1b2f8 <g_336>
   118c1:	48 8b 00             	mov    (%rax),%rax
   118c4:	0f b6 00             	movzbl (%rax),%eax
   118c7:	0f b6 c0             	movzbl %al,%eax
   118ca:	21 d0                	and    %edx,%eax
   118cc:	0f bf d0             	movswl %ax,%edx
   118cf:	48 8b 85 28 f3 ff ff 	mov    -0xcd8(%rbp),%rax
   118d6:	48 85 c0             	test   %rax,%rax
   118d9:	0f 95 c0             	setne  %al
   118dc:	0f b6 c0             	movzbl %al,%eax
   118df:	89 d6                	mov    %edx,%esi
   118e1:	89 c7                	mov    %eax,%edi
   118e3:	e8 6d 4b ff ff       	callq  6455 <safe_div_func_int16_t_s_s>
   118e8:	98                   	cwtl   
   118e9:	ba ea 04 a9 67       	mov    $0x67a904ea,%edx
   118ee:	21 d0                	and    %edx,%eax
   118f0:	85 c0                	test   %eax,%eax
   118f2:	75 10                	jne    11904 <func_59+0x11b5>
   118f4:	48 8b 05 25 9a 00 00 	mov    0x9a25(%rip),%rax        # 1b320 <g_416>
   118fb:	48 8b 00             	mov    (%rax),%rax
   118fe:	48 8b 00             	mov    (%rax),%rax
   11901:	48 85 c0             	test   %rax,%rax
   11904:	b8 01 00 00 00       	mov    $0x1,%eax
   11909:	30 85 81 f2 ff ff    	xor    %al,-0xd7f(%rbp)
   1190f:	e9 85 05 00 00       	jmpq   11e99 <func_59+0x174a>
   11914:	c7 85 c0 f2 ff ff 6e 	movl   $0x79765a6e,-0xd40(%rbp)
   1191b:	5a 76 79 
   1191e:	48 8d 05 9b 87 00 00 	lea    0x879b(%rip),%rax        # 1a0c0 <g_322>
   11925:	48 89 85 80 f3 ff ff 	mov    %rax,-0xc80(%rbp)
   1192c:	c7 85 c4 f2 ff ff 07 	movl   $0x7,-0xd3c(%rbp)
   11933:	00 00 00 
   11936:	c7 85 38 f3 ff ff 0e 	movl   $0xf50eb50e,-0xcc8(%rbp)
   1193d:	b5 0e f5 
   11940:	c7 85 c8 f2 ff ff f7 	movl   $0xfffffff7,-0xd38(%rbp)
   11947:	ff ff ff 
   1194a:	48 8d 05 8f 99 00 00 	lea    0x998f(%rip),%rax        # 1b2e0 <g_223>
   11951:	48 89 85 88 f3 ff ff 	mov    %rax,-0xc78(%rbp)
   11958:	48 8d 85 38 f3 ff ff 	lea    -0xcc8(%rbp),%rax
   1195f:	48 89 85 50 f7 ff ff 	mov    %rax,-0x8b0(%rbp)
   11966:	48 8d 85 38 f3 ff ff 	lea    -0xcc8(%rbp),%rax
   1196d:	48 89 85 58 f7 ff ff 	mov    %rax,-0x8a8(%rbp)
   11974:	48 c7 85 60 f7 ff ff 	movq   $0x0,-0x8a0(%rbp)
   1197b:	00 00 00 00 
   1197f:	48 8d 85 38 f3 ff ff 	lea    -0xcc8(%rbp),%rax
   11986:	48 89 85 68 f7 ff ff 	mov    %rax,-0x898(%rbp)
   1198d:	48 8d 85 38 f3 ff ff 	lea    -0xcc8(%rbp),%rax
   11994:	48 89 85 70 f7 ff ff 	mov    %rax,-0x890(%rbp)
   1199b:	48 c7 85 78 f7 ff ff 	movq   $0x0,-0x888(%rbp)
   119a2:	00 00 00 00 
   119a6:	48 8d 85 38 f3 ff ff 	lea    -0xcc8(%rbp),%rax
   119ad:	48 89 85 80 f7 ff ff 	mov    %rax,-0x880(%rbp)
   119b4:	48 8d 85 38 f3 ff ff 	lea    -0xcc8(%rbp),%rax
   119bb:	48 89 85 88 f7 ff ff 	mov    %rax,-0x878(%rbp)
   119c2:	48 c7 85 90 f3 ff ff 	movq   $0x0,-0xc70(%rbp)
   119c9:	00 00 00 00 
   119cd:	48 8d 05 fc 98 00 00 	lea    0x98fc(%rip),%rax        # 1b2d0 <g_211>
   119d4:	48 89 85 40 f3 ff ff 	mov    %rax,-0xcc0(%rbp)
   119db:	48 c7 85 98 f3 ff ff 	movq   $0x0,-0xc68(%rbp)
   119e2:	00 00 00 00 
   119e6:	48 8d 05 ab 86 00 00 	lea    0x86ab(%rip),%rax        # 1a098 <g_197>
   119ed:	48 89 85 48 f3 ff ff 	mov    %rax,-0xcb8(%rbp)
   119f4:	48 8d 85 48 f3 ff ff 	lea    -0xcb8(%rbp),%rax
   119fb:	48 89 85 a0 f3 ff ff 	mov    %rax,-0xc60(%rbp)
   11a02:	c7 85 cc f2 ff ff 01 	movl   $0x1,-0xd34(%rbp)
   11a09:	00 00 00 
   11a0c:	c7 85 94 f2 ff ff 00 	movl   $0x0,-0xd6c(%rbp)
   11a13:	00 00 00 
   11a16:	eb 19                	jmp    11a31 <func_59+0x12e2>
   11a18:	8b 85 94 f2 ff ff    	mov    -0xd6c(%rbp),%eax
   11a1e:	48 98                	cltq   
   11a20:	66 c7 84 45 10 f6 ff 	movw   $0xffff,-0x9f0(%rbp,%rax,2)
   11a27:	ff ff ff 
   11a2a:	83 85 94 f2 ff ff 01 	addl   $0x1,-0xd6c(%rbp)
   11a31:	83 bd 94 f2 ff ff 01 	cmpl   $0x1,-0xd6c(%rbp)
   11a38:	7e de                	jle    11a18 <func_59+0x12c9>
   11a3a:	83 bd c0 f2 ff ff 00 	cmpl   $0x0,-0xd40(%rbp)
   11a41:	74 7d                	je     11ac0 <func_59+0x1371>
   11a43:	48 8d 85 30 f8 ff ff 	lea    -0x7d0(%rbp),%rax
   11a4a:	48 8d 15 6f 96 00 00 	lea    0x966f(%rip),%rdx        # 1b0c0 <g_2461+0x250>
   11a51:	b9 2d 00 00 00       	mov    $0x2d,%ecx
   11a56:	48 89 c7             	mov    %rax,%rdi
   11a59:	48 89 d6             	mov    %rdx,%rsi
   11a5c:	f3 48 a5             	rep movsq %ds:(%rsi),%es:(%rdi)
   11a5f:	0f b6 05 8d 50 00 00 	movzbl 0x508d(%rip),%eax        # 16af3 <l_1004.4820+0x3>
   11a66:	0f be d0             	movsbl %al,%edx
   11a69:	8b 85 8c f2 ff ff    	mov    -0xd74(%rbp),%eax
   11a6f:	31 d0                	xor    %edx,%eax
   11a71:	89 85 8c f2 ff ff    	mov    %eax,-0xd74(%rbp)
   11a77:	b9 00 00 00 00       	mov    $0x0,%ecx
   11a7c:	48 8b 05 5d 98 00 00 	mov    0x985d(%rip),%rax        # 1b2e0 <g_223>
   11a83:	8b 10                	mov    (%rax),%edx
   11a85:	48 8b 05 54 98 00 00 	mov    0x9854(%rip),%rax        # 1b2e0 <g_223>
   11a8c:	31 ca                	xor    %ecx,%edx
   11a8e:	89 10                	mov    %edx,(%rax)
   11a90:	48 8b 85 88 f3 ff ff 	mov    -0xc78(%rbp),%rax
   11a97:	48 8d 95 8c f2 ff ff 	lea    -0xd74(%rbp),%rdx
   11a9e:	48 89 10             	mov    %rdx,(%rax)
   11aa1:	48 8b 85 88 f3 ff ff 	mov    -0xc78(%rbp),%rax
   11aa8:	48 8b 00             	mov    (%rax),%rax
   11aab:	48 89 85 80 f7 ff ff 	mov    %rax,-0x880(%rbp)
   11ab2:	66 c7 05 73 85 00 00 	movw   $0xffed,0x8573(%rip)        # 1a02e <g_69>
   11ab9:	ed ff 
   11abb:	e9 c8 03 00 00       	jmpq   11e88 <func_59+0x1739>
   11ac0:	48 b8 1d a5 66 3b 4b 	movabs $0x9b4b074b3b66a51d,%rax
   11ac7:	07 4b 9b 
   11aca:	48 89 85 a8 f3 ff ff 	mov    %rax,-0xc58(%rbp)
   11ad1:	48 8d 05 e8 97 00 00 	lea    0x97e8(%rip),%rax        # 1b2c0 <g_138>
   11ad8:	48 89 85 b0 f3 ff ff 	mov    %rax,-0xc50(%rbp)
   11adf:	48 c7 85 b8 f3 ff ff 	movq   $0x0,-0xc48(%rbp)
   11ae6:	00 00 00 00 
   11aea:	48 8d 05 5b 85 00 00 	lea    0x855b(%rip),%rax        # 1a04c <g_148>
   11af1:	48 89 85 b0 f6 ff ff 	mov    %rax,-0x950(%rbp)
   11af8:	48 8d 05 4d 85 00 00 	lea    0x854d(%rip),%rax        # 1a04c <g_148>
   11aff:	48 89 85 b8 f6 ff ff 	mov    %rax,-0x948(%rbp)
   11b06:	48 8d 05 3f 85 00 00 	lea    0x853f(%rip),%rax        # 1a04c <g_148>
   11b0d:	48 89 85 c0 f6 ff ff 	mov    %rax,-0x940(%rbp)
   11b14:	48 8d 05 31 85 00 00 	lea    0x8531(%rip),%rax        # 1a04c <g_148>
   11b1b:	48 89 85 c8 f6 ff ff 	mov    %rax,-0x938(%rbp)
   11b22:	48 8d 05 b7 97 00 00 	lea    0x97b7(%rip),%rax        # 1b2e0 <g_223>
   11b29:	48 89 85 c0 f3 ff ff 	mov    %rax,-0xc40(%rbp)
   11b30:	48 8d 05 59 8e 00 00 	lea    0x8e59(%rip),%rax        # 1a990 <g_772>
   11b37:	48 89 85 30 f8 ff ff 	mov    %rax,-0x7d0(%rbp)
   11b3e:	48 8d 05 4b 8e 00 00 	lea    0x8e4b(%rip),%rax        # 1a990 <g_772>
   11b45:	48 89 85 38 f8 ff ff 	mov    %rax,-0x7c8(%rbp)
   11b4c:	48 8d 05 3d 8e 00 00 	lea    0x8e3d(%rip),%rax        # 1a990 <g_772>
   11b53:	48 89 85 40 f8 ff ff 	mov    %rax,-0x7c0(%rbp)
   11b5a:	48 8d 05 2f 8e 00 00 	lea    0x8e2f(%rip),%rax        # 1a990 <g_772>
   11b61:	48 89 85 48 f8 ff ff 	mov    %rax,-0x7b8(%rbp)
   11b68:	48 8d 05 21 8e 00 00 	lea    0x8e21(%rip),%rax        # 1a990 <g_772>
   11b6f:	48 89 85 50 f8 ff ff 	mov    %rax,-0x7b0(%rbp)
   11b76:	48 8d 05 13 8e 00 00 	lea    0x8e13(%rip),%rax        # 1a990 <g_772>
   11b7d:	48 89 85 58 f8 ff ff 	mov    %rax,-0x7a8(%rbp)
   11b84:	48 8d 05 05 8e 00 00 	lea    0x8e05(%rip),%rax        # 1a990 <g_772>
   11b8b:	48 89 85 60 f8 ff ff 	mov    %rax,-0x7a0(%rbp)
   11b92:	48 8d 05 f7 8d 00 00 	lea    0x8df7(%rip),%rax        # 1a990 <g_772>
   11b99:	48 89 85 68 f8 ff ff 	mov    %rax,-0x798(%rbp)
   11ba0:	48 8d 05 e9 8d 00 00 	lea    0x8de9(%rip),%rax        # 1a990 <g_772>
   11ba7:	48 89 85 70 f8 ff ff 	mov    %rax,-0x790(%rbp)
   11bae:	48 8d 05 db 8d 00 00 	lea    0x8ddb(%rip),%rax        # 1a990 <g_772>
   11bb5:	48 89 85 78 f8 ff ff 	mov    %rax,-0x788(%rbp)
   11bbc:	48 8d 85 28 f3 ff ff 	lea    -0xcd8(%rbp),%rax
   11bc3:	48 89 85 c8 f3 ff ff 	mov    %rax,-0xc38(%rbp)
   11bca:	48 8d 05 a7 8d 00 00 	lea    0x8da7(%rip),%rax        # 1a978 <g_668>
   11bd1:	48 89 85 d0 f3 ff ff 	mov    %rax,-0xc30(%rbp)
   11bd8:	48 8b 85 a8 f3 ff ff 	mov    -0xc58(%rbp),%rax
   11bdf:	0f b6 d8             	movzbl %al,%ebx
   11be2:	8b 95 c4 f2 ff ff    	mov    -0xd3c(%rbp),%edx
   11be8:	8b 85 8c f2 ff ff    	mov    -0xd74(%rbp),%eax
   11bee:	48 63 c8             	movslq %eax,%rcx
   11bf1:	48 8b 05 20 97 00 00 	mov    0x9720(%rip),%rax        # 1b318 <g_417>
   11bf8:	48 8b 00             	mov    (%rax),%rax
   11bfb:	48 09 c8             	or     %rcx,%rax
   11bfe:	48 39 c2             	cmp    %rax,%rdx
   11c01:	0f 9f c2             	setg   %dl
   11c04:	48 8b 05 bd 96 00 00 	mov    0x96bd(%rip),%rax        # 1b2c8 <g_137>
   11c0b:	48 8b 00             	mov    (%rax),%rax
   11c0e:	0f b6 d2             	movzbl %dl,%edx
   11c11:	66 89 10             	mov    %dx,(%rax)
   11c14:	0f b7 00             	movzwl (%rax),%eax
   11c17:	0f b7 d0             	movzwl %ax,%edx
   11c1a:	8b 85 38 f3 ff ff    	mov    -0xcc8(%rbp),%eax
   11c20:	31 d0                	xor    %edx,%eax
   11c22:	89 85 38 f3 ff ff    	mov    %eax,-0xcc8(%rbp)
   11c28:	48 8b 85 a8 f3 ff ff 	mov    -0xc58(%rbp),%rax
   11c2f:	0f b6 c0             	movzbl %al,%eax
   11c32:	be 27 00 00 00       	mov    $0x27,%esi
   11c37:	89 c7                	mov    %eax,%edi
   11c39:	e8 55 4f ff ff       	callq  6b93 <safe_mul_func_uint8_t_u_u>
   11c3e:	0f b6 c0             	movzbl %al,%eax
   11c41:	be ff ff 00 00       	mov    $0xffff,%esi
   11c46:	89 c7                	mov    %eax,%edi
   11c48:	e8 d2 50 ff ff       	callq  6d1f <safe_sub_func_uint16_t_u_u>
   11c4d:	48 83 bd b0 f3 ff ff 	cmpq   $0x0,-0xc50(%rbp)
   11c54:	00 
   11c55:	0f 94 c0             	sete   %al
   11c58:	0f b6 c0             	movzbl %al,%eax
   11c5b:	48 be d0 23 4e df ea 	movabs $0xa3864feadf4e23d0,%rsi
   11c62:	4f 86 a3 
   11c65:	48 89 c7             	mov    %rax,%rdi
   11c68:	e8 8a 4d ff ff       	callq  69f7 <safe_div_func_int64_t_s_s>
   11c6d:	49 89 c4             	mov    %rax,%r12
   11c70:	48 8b 05 c9 9f 00 00 	mov    0x9fc9(%rip),%rax        # 1bc40 <g_940>
   11c77:	48 8b 00             	mov    (%rax),%rax
   11c7a:	48 8b 00             	mov    (%rax),%rax
   11c7d:	48 8b 95 58 f2 ff ff 	mov    -0xda8(%rbp),%rdx
   11c84:	8b 12                	mov    (%rdx),%edx
   11c86:	89 10                	mov    %edx,(%rax)
   11c88:	8b 10                	mov    (%rax),%edx
   11c8a:	48 8b 85 50 f3 ff ff 	mov    -0xcb0(%rbp),%rax
   11c91:	89 10                	mov    %edx,(%rax)
   11c93:	be 0d 00 00 00       	mov    $0xd,%esi
   11c98:	bf 01 00 00 00       	mov    $0x1,%edi
   11c9d:	e8 64 51 ff ff       	callq  6e06 <safe_lshift_func_uint16_t_u_u>
   11ca2:	44 89 e0             	mov    %r12d,%eax
   11ca5:	09 85 c8 f2 ff ff    	or     %eax,-0xd38(%rbp)
   11cab:	48 8b 05 56 96 00 00 	mov    0x9656(%rip),%rax        # 1b308 <g_404>
   11cb2:	48 8b 08             	mov    (%rax),%rcx
   11cb5:	48 8b 85 80 f3 ff ff 	mov    -0xc80(%rbp),%rax
   11cbc:	89 da                	mov    %ebx,%edx
   11cbe:	48 89 ce             	mov    %rcx,%rsi
   11cc1:	48 89 c7             	mov    %rax,%rdi
   11cc4:	e8 f2 02 00 00       	callq  11fbb <func_63>
   11cc9:	48 8b 95 c0 f3 ff ff 	mov    -0xc40(%rbp),%rdx
   11cd0:	48 89 02             	mov    %rax,(%rdx)
   11cd3:	48 8b 05 16 96 00 00 	mov    0x9616(%rip),%rax        # 1b2f0 <g_337>
   11cda:	0f b6 00             	movzbl (%rax),%eax
   11cdd:	44 0f b6 e0          	movzbl %al,%r12d
   11ce1:	48 8b 15 20 96 00 00 	mov    0x9620(%rip),%rdx        # 1b308 <g_404>
   11ce8:	48 8b 05 21 96 00 00 	mov    0x9621(%rip),%rax        # 1b310 <g_403>
   11cef:	48 8b 00             	mov    (%rax),%rax
   11cf2:	48 8b 12             	mov    (%rdx),%rdx
   11cf5:	48 89 10             	mov    %rdx,(%rax)
   11cf8:	48 8b 18             	mov    (%rax),%rbx
   11cfb:	48 8b 85 28 f3 ff ff 	mov    -0xcd8(%rbp),%rax
   11d02:	48 8b 95 68 f8 ff ff 	mov    -0x798(%rbp),%rdx
   11d09:	48 89 10             	mov    %rdx,(%rax)
   11d0c:	48 8b 00             	mov    (%rax),%rax
   11d0f:	48 85 c0             	test   %rax,%rax
   11d12:	75 0f                	jne    11d23 <func_59+0x15d4>
   11d14:	48 8b 05 a5 95 00 00 	mov    0x95a5(%rip),%rax        # 1b2c0 <g_138>
   11d1b:	0f b7 00             	movzwl (%rax),%eax
   11d1e:	66 85 c0             	test   %ax,%ax
   11d21:	74 07                	je     11d2a <func_59+0x15db>
   11d23:	ba 01 00 00 00       	mov    $0x1,%edx
   11d28:	eb 05                	jmp    11d2f <func_59+0x15e0>
   11d2a:	ba 00 00 00 00       	mov    $0x0,%edx
   11d2f:	48 83 bd c8 f3 ff ff 	cmpq   $0x0,-0xc38(%rbp)
   11d36:	00 
   11d37:	0f 94 c0             	sete   %al
   11d3a:	0f b6 c0             	movzbl %al,%eax
   11d3d:	39 c2                	cmp    %eax,%edx
   11d3f:	0f 9c c0             	setl   %al
   11d42:	0f b6 c0             	movzbl %al,%eax
   11d45:	be 01 00 00 00       	mov    $0x1,%esi
   11d4a:	89 c7                	mov    %eax,%edi
   11d4c:	e8 9d 45 ff ff       	callq  62ee <safe_lshift_func_int8_t_s_u>
   11d51:	48 8b 85 d0 f3 ff ff 	mov    -0xc30(%rbp),%rax
   11d58:	44 89 e2             	mov    %r12d,%edx
   11d5b:	48 89 de             	mov    %rbx,%rsi
   11d5e:	48 89 c7             	mov    %rax,%rdi
   11d61:	e8 55 02 00 00       	callq  11fbb <func_63>
   11d66:	48 8b 95 c0 f3 ff ff 	mov    -0xc40(%rbp),%rdx
   11d6d:	48 89 02             	mov    %rax,(%rdx)
   11d70:	8b 85 70 f4 ff ff    	mov    -0xb90(%rbp),%eax
   11d76:	e9 1a 02 00 00       	jmpq   11f95 <func_59+0x1846>
   11d7b:	48 8d 05 e5 82 00 00 	lea    0x82e5(%rip),%rax        # 1a067 <g_154+0x7>
   11d82:	48 89 85 d8 f3 ff ff 	mov    %rax,-0xc28(%rbp)
   11d89:	c7 85 d0 f2 ff ff 07 	movl   $0x9e5fc207,-0xd30(%rbp)
   11d90:	c2 5f 9e 
   11d93:	c7 85 d4 f2 ff ff cc 	movl   $0xab904bcc,-0xd2c(%rbp)
   11d9a:	4b 90 ab 
   11d9d:	c7 85 d8 f2 ff ff 05 	movl   $0x5,-0xd28(%rbp)
   11da4:	00 00 00 
   11da7:	c7 85 b0 f6 ff ff 05 	movl   $0x5,-0x950(%rbp)
   11dae:	00 00 00 
   11db1:	c7 85 b4 f6 ff ff 05 	movl   $0x5,-0x94c(%rbp)
   11db8:	00 00 00 
   11dbb:	c7 85 b8 f6 ff ff 05 	movl   $0x5,-0x948(%rbp)
   11dc2:	00 00 00 
   11dc5:	c7 85 bc f6 ff ff 05 	movl   $0x5,-0x944(%rbp)
   11dcc:	00 00 00 
   11dcf:	c7 85 c0 f6 ff ff 05 	movl   $0x5,-0x940(%rbp)
   11dd6:	00 00 00 
   11dd9:	c7 85 c4 f6 ff ff 05 	movl   $0x5,-0x93c(%rbp)
   11de0:	00 00 00 
   11de3:	c7 85 c8 f6 ff ff 05 	movl   $0x5,-0x938(%rbp)
   11dea:	00 00 00 
   11ded:	c7 85 cc f6 ff ff 05 	movl   $0x5,-0x934(%rbp)
   11df4:	00 00 00 
   11df7:	c7 85 d0 f6 ff ff 05 	movl   $0x5,-0x930(%rbp)
   11dfe:	00 00 00 
   11e01:	c7 85 d4 f6 ff ff 05 	movl   $0x5,-0x92c(%rbp)
   11e08:	00 00 00 
   11e0b:	c7 85 dc f2 ff ff 91 	movl   $0x13dd3191,-0xd24(%rbp)
   11e12:	31 dd 13 
   11e15:	48 c7 85 e0 f3 ff ff 	movq   $0x0,-0xc20(%rbp)
   11e1c:	00 00 00 00 
   11e20:	48 c7 85 e8 f3 ff ff 	movq   $0x0,-0xc18(%rbp)
   11e27:	00 00 00 00 
   11e2b:	48 8d 05 d6 94 00 00 	lea    0x94d6(%rip),%rax        # 1b308 <g_404>
   11e32:	48 89 85 f0 f3 ff ff 	mov    %rax,-0xc10(%rbp)
   11e39:	c6 85 7f f2 ff ff 00 	movb   $0x0,-0xd81(%rbp)
   11e40:	48 8d 85 40 f3 ff ff 	lea    -0xcc0(%rbp),%rax
   11e47:	48 89 85 f8 f3 ff ff 	mov    %rax,-0xc08(%rbp)
   11e4e:	48 8d 85 30 f8 ff ff 	lea    -0x7d0(%rbp),%rax
   11e55:	48 8d 15 24 44 00 00 	lea    0x4424(%rip),%rdx        # 16280 <g_1623+0x1228>
   11e5c:	b9 23 00 00 00       	mov    $0x23,%ecx
   11e61:	48 89 c7             	mov    %rax,%rdi
   11e64:	48 89 d6             	mov    %rdx,%rsi
   11e67:	f3 48 a5             	rep movsq %ds:(%rsi),%es:(%rdi)
   11e6a:	0f b7 05 bd 81 00 00 	movzwl 0x81bd(%rip),%eax        # 1a02e <g_69>
   11e71:	0f b7 c0             	movzwl %ax,%eax
   11e74:	be 03 00 00 00       	mov    $0x3,%esi
   11e79:	48 89 c7             	mov    %rax,%rdi
   11e7c:	e8 ad 51 ff ff       	callq  702e <safe_add_func_uint64_t_u_u>
   11e81:	66 89 05 a6 81 00 00 	mov    %ax,0x81a6(%rip)        # 1a02e <g_69>
   11e88:	0f b7 05 9f 81 00 00 	movzwl 0x819f(%rip),%eax        # 1a02e <g_69>
   11e8f:	66 83 f8 05          	cmp    $0x5,%ax
   11e93:	0f 85 e2 fe ff ff    	jne    11d7b <func_59+0x162c>
   11e99:	8b 9d 8c f2 ff ff    	mov    -0xd74(%rbp),%ebx
   11e9f:	8b 85 68 f4 ff ff    	mov    -0xb98(%rbp),%eax
   11ea5:	85 c0                	test   %eax,%eax
   11ea7:	74 45                	je     11eee <func_59+0x179f>
   11ea9:	48 8b 05 48 8a 00 00 	mov    0x8a48(%rip),%rax        # 1a8f8 <g_400+0xd8>
   11eb0:	48 c1 e8 39          	shr    $0x39,%rax
   11eb4:	48 89 c2             	mov    %rax,%rdx
   11eb7:	48 8b 05 42 8a 00 00 	mov    0x8a42(%rip),%rax        # 1a900 <g_400+0xe0>
   11ebe:	83 e0 07             	and    $0x7,%eax
   11ec1:	48 c1 e0 07          	shl    $0x7,%rax
   11ec5:	48 09 d0             	or     %rdx,%rax
   11ec8:	48 c1 e0 36          	shl    $0x36,%rax
   11ecc:	48 c1 f8 36          	sar    $0x36,%rax
   11ed0:	98                   	cwtl   
   11ed1:	33 85 b0 f2 ff ff    	xor    -0xd50(%rbp),%eax
   11ed7:	48 98                	cltq   
   11ed9:	48 be 41 d6 81 b6 5d 	movabs $0xe9c25e5db681d641,%rsi
   11ee0:	5e c2 e9 
   11ee3:	48 89 c7             	mov    %rax,%rdi
   11ee6:	e8 bd 49 ff ff       	callq  68a8 <safe_sub_func_int64_t_s_s>
   11eeb:	48 85 c0             	test   %rax,%rax
   11eee:	8b 85 bc f2 ff ff    	mov    -0xd44(%rbp),%eax
   11ef4:	0f b7 d0             	movzwl %ax,%edx
   11ef7:	48 8b 05 ca 93 00 00 	mov    0x93ca(%rip),%rax        # 1b2c8 <g_137>
   11efe:	48 8b 00             	mov    (%rax),%rax
   11f01:	0f b7 00             	movzwl (%rax),%eax
   11f04:	0f b7 c0             	movzwl %ax,%eax
   11f07:	89 d6                	mov    %edx,%esi
   11f09:	89 c7                	mov    %eax,%edi
   11f0b:	e8 ef 4d ff ff       	callq  6cff <safe_add_func_uint16_t_u_u>
   11f10:	48 8b 05 e1 93 00 00 	mov    0x93e1(%rip),%rax        # 1b2f8 <g_336>
   11f17:	48 8b 00             	mov    (%rax),%rax
   11f1a:	0f b6 00             	movzbl (%rax),%eax
   11f1d:	0f b6 c0             	movzbl %al,%eax
   11f20:	39 85 b4 f2 ff ff    	cmp    %eax,-0xd4c(%rbp)
   11f26:	0f 97 c0             	seta   %al
   11f29:	0f b6 d0             	movzbl %al,%edx
   11f2c:	0f be 85 7e f2 ff ff 	movsbl -0xd82(%rbp),%eax
   11f33:	89 d6                	mov    %edx,%esi
   11f35:	89 c7                	mov    %eax,%edi
   11f37:	e8 f9 43 ff ff       	callq  6335 <safe_rshift_func_int8_t_s_s>
   11f3c:	48 8b 05 b5 93 00 00 	mov    0x93b5(%rip),%rax        # 1b2f8 <g_336>
   11f43:	48 8b 00             	mov    (%rax),%rax
   11f46:	0f b6 00             	movzbl (%rax),%eax
   11f49:	0f b6 c0             	movzbl %al,%eax
   11f4c:	89 de                	mov    %ebx,%esi
   11f4e:	89 c7                	mov    %eax,%edi
   11f50:	e8 b0 4c ff ff       	callq  6c05 <safe_lshift_func_uint8_t_u_s>
   11f55:	ba 01 00 00 00       	mov    $0x1,%edx
   11f5a:	0f b6 05 97 4b 00 00 	movzbl 0x4b97(%rip),%eax        # 16af8 <l_1004.4820+0x8>
   11f61:	0f be c0             	movsbl %al,%eax
   11f64:	39 c2                	cmp    %eax,%edx
   11f66:	0f 9f c0             	setg   %al
   11f69:	0f b6 d0             	movzbl %al,%edx
   11f6c:	0f b7 85 82 f2 ff ff 	movzwl -0xd7e(%rbp),%eax
   11f73:	39 c2                	cmp    %eax,%edx
   11f75:	0f 95 c0             	setne  %al
   11f78:	0f b6 c8             	movzbl %al,%ecx
   11f7b:	48 8b 05 fe 9c 00 00 	mov    0x9cfe(%rip),%rax        # 1bc80 <g_1349>
   11f82:	8b 10                	mov    (%rax),%edx
   11f84:	48 8b 05 f5 9c 00 00 	mov    0x9cf5(%rip),%rax        # 1bc80 <g_1349>
   11f8b:	21 ca                	and    %ecx,%edx
   11f8d:	89 10                	mov    %edx,(%rax)
   11f8f:	8b 85 a8 f2 ff ff    	mov    -0xd58(%rbp),%eax
   11f95:	48 8b 5d c8          	mov    -0x38(%rbp),%rbx
   11f99:	64 48 33 1c 25 28 00 	xor    %fs:0x28,%rbx
   11fa0:	00 00 
   11fa2:	74 05                	je     11fa9 <func_59+0x185a>
   11fa4:	e8 c7 40 ff ff       	callq  6070 <__stack_chk_fail@plt>
   11fa9:	48 81 c4 88 0d 00 00 	add    $0xd88,%rsp
   11fb0:	5b                   	pop    %rbx
   11fb1:	41 5c                	pop    %r12
   11fb3:	41 5d                	pop    %r13
   11fb5:	41 5e                	pop    %r14
   11fb7:	41 5f                	pop    %r15
   11fb9:	5d                   	pop    %rbp
   11fba:	c3                   	retq   

0000000000011fbb <func_63>:
   11fbb:	f3 0f 1e fa          	endbr64 
   11fbf:	55                   	push   %rbp
   11fc0:	48 89 e5             	mov    %rsp,%rbp
   11fc3:	41 55                	push   %r13
   11fc5:	41 54                	push   %r12
   11fc7:	53                   	push   %rbx
   11fc8:	48 81 ec 08 07 00 00 	sub    $0x708,%rsp
   11fcf:	48 89 bd f8 f8 ff ff 	mov    %rdi,-0x708(%rbp)
   11fd6:	48 89 b5 f0 f8 ff ff 	mov    %rsi,-0x710(%rbp)
   11fdd:	89 d0                	mov    %edx,%eax
   11fdf:	88 85 ec f8 ff ff    	mov    %al,-0x714(%rbp)
   11fe5:	64 48 8b 04 25 28 00 	mov    %fs:0x28,%rax
   11fec:	00 00 
   11fee:	48 89 45 d8          	mov    %rax,-0x28(%rbp)
   11ff2:	31 c0                	xor    %eax,%eax
   11ff4:	c7 85 10 f9 ff ff fd 	movl   $0xfffffffd,-0x6f0(%rbp)
   11ffb:	ff ff ff 
   11ffe:	48 8d 05 2b 80 00 00 	lea    0x802b(%rip),%rax        # 1a030 <g_91>
   12005:	48 89 85 40 f9 ff ff 	mov    %rax,-0x6c0(%rbp)
   1200c:	48 c7 85 48 f9 ff ff 	movq   $0x0,-0x6b8(%rbp)
   12013:	00 00 00 00 
   12017:	48 c7 85 50 f9 ff ff 	movq   $0x0,-0x6b0(%rbp)
   1201e:	00 00 00 00 
   12022:	c7 85 04 f9 ff ff 01 	movl   $0x1,-0x6fc(%rbp)
   12029:	00 00 00 
   1202c:	48 c7 85 20 f9 ff ff 	movq   $0x0,-0x6e0(%rbp)
   12033:	00 00 00 00 
   12037:	48 8d 05 ea 7f 00 00 	lea    0x7fea(%rip),%rax        # 1a028 <g_29>
   1203e:	48 89 85 28 f9 ff ff 	mov    %rax,-0x6d8(%rbp)
   12045:	48 8d 85 28 f9 ff ff 	lea    -0x6d8(%rbp),%rax
   1204c:	48 89 85 58 f9 ff ff 	mov    %rax,-0x6a8(%rbp)
   12053:	c7 85 08 f9 ff ff 07 	movl   $0x7,-0x6f8(%rbp)
   1205a:	00 00 00 
   1205d:	48 8d 85 08 f9 ff ff 	lea    -0x6f8(%rbp),%rax
   12064:	48 89 85 50 fa ff ff 	mov    %rax,-0x5b0(%rbp)
   1206b:	48 c7 85 58 fa ff ff 	movq   $0x0,-0x5a8(%rbp)
   12072:	00 00 00 00 
   12076:	48 8d 85 08 f9 ff ff 	lea    -0x6f8(%rbp),%rax
   1207d:	48 89 85 60 fa ff ff 	mov    %rax,-0x5a0(%rbp)
   12084:	48 8d 85 08 f9 ff ff 	lea    -0x6f8(%rbp),%rax
   1208b:	48 89 85 68 fa ff ff 	mov    %rax,-0x598(%rbp)
   12092:	48 c7 85 70 fa ff ff 	movq   $0x0,-0x590(%rbp)
   12099:	00 00 00 00 
   1209d:	48 8d 85 08 f9 ff ff 	lea    -0x6f8(%rbp),%rax
   120a4:	48 89 85 78 fa ff ff 	mov    %rax,-0x588(%rbp)
   120ab:	48 8d 85 08 f9 ff ff 	lea    -0x6f8(%rbp),%rax
   120b2:	48 89 85 80 fa ff ff 	mov    %rax,-0x580(%rbp)
   120b9:	48 c7 85 88 fa ff ff 	movq   $0x0,-0x578(%rbp)
   120c0:	00 00 00 00 
   120c4:	48 8d 85 08 f9 ff ff 	lea    -0x6f8(%rbp),%rax
   120cb:	48 89 85 90 fa ff ff 	mov    %rax,-0x570(%rbp)
   120d2:	48 c7 85 60 f9 ff ff 	movq   $0x0,-0x6a0(%rbp)
   120d9:	00 00 00 00 
   120dd:	c7 85 14 f9 ff ff 2b 	movl   $0xa975422b,-0x6ec(%rbp)
   120e4:	42 75 a9 
   120e7:	48 8d 85 20 f9 ff ff 	lea    -0x6e0(%rbp),%rax
   120ee:	48 89 85 68 f9 ff ff 	mov    %rax,-0x698(%rbp)
   120f5:	66 c7 85 02 f9 ff ff 	movw   $0x0,-0x6fe(%rbp)
   120fc:	00 00 
   120fe:	48 8d 05 3f 7f 00 00 	lea    0x7f3f(%rip),%rax        # 1a044 <g_104>
   12105:	48 89 85 70 f9 ff ff 	mov    %rax,-0x690(%rbp)
   1210c:	c6 85 00 f9 ff ff ce 	movb   $0xce,-0x700(%rbp)
   12113:	c6 85 01 f9 ff ff fc 	movb   $0xfc,-0x6ff(%rbp)
   1211a:	48 8d 05 ff 91 00 00 	lea    0x91ff(%rip),%rax        # 1b320 <g_416>
   12121:	48 89 85 10 fa ff ff 	mov    %rax,-0x5f0(%rbp)
   12128:	48 8d 05 f1 91 00 00 	lea    0x91f1(%rip),%rax        # 1b320 <g_416>
   1212f:	48 89 85 18 fa ff ff 	mov    %rax,-0x5e8(%rbp)
   12136:	48 8d 05 e3 91 00 00 	lea    0x91e3(%rip),%rax        # 1b320 <g_416>
   1213d:	48 89 85 20 fa ff ff 	mov    %rax,-0x5e0(%rbp)
   12144:	48 8d 05 d5 91 00 00 	lea    0x91d5(%rip),%rax        # 1b320 <g_416>
   1214b:	48 89 85 28 fa ff ff 	mov    %rax,-0x5d8(%rbp)
   12152:	48 8d 05 c7 91 00 00 	lea    0x91c7(%rip),%rax        # 1b320 <g_416>
   12159:	48 89 85 30 fa ff ff 	mov    %rax,-0x5d0(%rbp)
   12160:	48 8d 05 b9 91 00 00 	lea    0x91b9(%rip),%rax        # 1b320 <g_416>
   12167:	48 89 85 38 fa ff ff 	mov    %rax,-0x5c8(%rbp)
   1216e:	48 8d 05 ab 91 00 00 	lea    0x91ab(%rip),%rax        # 1b320 <g_416>
   12175:	48 89 85 40 fa ff ff 	mov    %rax,-0x5c0(%rbp)
   1217c:	48 8d 05 9d 91 00 00 	lea    0x919d(%rip),%rax        # 1b320 <g_416>
   12183:	48 89 85 48 fa ff ff 	mov    %rax,-0x5b8(%rbp)
   1218a:	48 8d 05 1f 7f 00 00 	lea    0x7f1f(%rip),%rax        # 1a0b0 <g_209>
   12191:	48 89 85 78 f9 ff ff 	mov    %rax,-0x688(%rbp)
   12198:	48 c7 85 80 f9 ff ff 	movq   $0xfffffffffffffffe,-0x680(%rbp)
   1219f:	fe ff ff ff 
   121a3:	c7 85 18 f9 ff ff 05 	movl   $0x5,-0x6e8(%rbp)
   121aa:	00 00 00 
   121ad:	48 8d 85 a0 fa ff ff 	lea    -0x560(%rbp),%rax
   121b4:	48 8d 15 e5 41 00 00 	lea    0x41e5(%rip),%rdx        # 163a0 <g_1623+0x1348>
   121bb:	b9 1f 00 00 00       	mov    $0x1f,%ecx
   121c0:	48 89 c7             	mov    %rax,%rdi
   121c3:	48 89 d6             	mov    %rdx,%rsi
   121c6:	f3 48 a5             	rep movsq %ds:(%rsi),%es:(%rdi)
   121c9:	48 89 f2             	mov    %rsi,%rdx
   121cc:	48 89 f8             	mov    %rdi,%rax
   121cf:	8b 0a                	mov    (%rdx),%ecx
   121d1:	89 08                	mov    %ecx,(%rax)
   121d3:	48 8d 40 04          	lea    0x4(%rax),%rax
   121d7:	48 8d 52 04          	lea    0x4(%rdx),%rdx
   121db:	48 8d 05 4a 7e 00 00 	lea    0x7e4a(%rip),%rax        # 1a02c <g_33>
   121e2:	48 89 85 30 f9 ff ff 	mov    %rax,-0x6d0(%rbp)
   121e9:	48 8d 85 30 f9 ff ff 	lea    -0x6d0(%rbp),%rax
   121f0:	48 89 85 a0 fb ff ff 	mov    %rax,-0x460(%rbp)
   121f7:	48 8d 85 30 f9 ff ff 	lea    -0x6d0(%rbp),%rax
   121fe:	48 89 85 a8 fb ff ff 	mov    %rax,-0x458(%rbp)
   12205:	48 8d 85 30 f9 ff ff 	lea    -0x6d0(%rbp),%rax
   1220c:	48 89 85 b0 fb ff ff 	mov    %rax,-0x450(%rbp)
   12213:	48 8d 85 30 f9 ff ff 	lea    -0x6d0(%rbp),%rax
   1221a:	48 89 85 b8 fb ff ff 	mov    %rax,-0x448(%rbp)
   12221:	48 8d 85 30 f9 ff ff 	lea    -0x6d0(%rbp),%rax
   12228:	48 89 85 c0 fb ff ff 	mov    %rax,-0x440(%rbp)
   1222f:	48 8d 85 30 f9 ff ff 	lea    -0x6d0(%rbp),%rax
   12236:	48 89 85 c8 fb ff ff 	mov    %rax,-0x438(%rbp)
   1223d:	48 8d 85 30 f9 ff ff 	lea    -0x6d0(%rbp),%rax
   12244:	48 89 85 d0 fb ff ff 	mov    %rax,-0x430(%rbp)
   1224b:	48 8d 85 30 f9 ff ff 	lea    -0x6d0(%rbp),%rax
   12252:	48 89 85 d8 fb ff ff 	mov    %rax,-0x428(%rbp)
   12259:	48 8d 85 30 f9 ff ff 	lea    -0x6d0(%rbp),%rax
   12260:	48 89 85 e0 fb ff ff 	mov    %rax,-0x420(%rbp)
   12267:	48 8d 85 30 f9 ff ff 	lea    -0x6d0(%rbp),%rax
   1226e:	48 89 85 e8 fb ff ff 	mov    %rax,-0x418(%rbp)
   12275:	48 8d 85 30 f9 ff ff 	lea    -0x6d0(%rbp),%rax
   1227c:	48 89 85 f0 fb ff ff 	mov    %rax,-0x410(%rbp)
   12283:	48 c7 85 f8 fb ff ff 	movq   $0x0,-0x408(%rbp)
   1228a:	00 00 00 00 
   1228e:	48 8d 85 30 f9 ff ff 	lea    -0x6d0(%rbp),%rax
   12295:	48 89 85 00 fc ff ff 	mov    %rax,-0x400(%rbp)
   1229c:	48 8d 85 30 f9 ff ff 	lea    -0x6d0(%rbp),%rax
   122a3:	48 89 85 08 fc ff ff 	mov    %rax,-0x3f8(%rbp)
   122aa:	48 8d 85 30 f9 ff ff 	lea    -0x6d0(%rbp),%rax
   122b1:	48 89 85 10 fc ff ff 	mov    %rax,-0x3f0(%rbp)
   122b8:	48 8d 85 30 f9 ff ff 	lea    -0x6d0(%rbp),%rax
   122bf:	48 89 85 18 fc ff ff 	mov    %rax,-0x3e8(%rbp)
   122c6:	48 c7 85 20 fc ff ff 	movq   $0x0,-0x3e0(%rbp)
   122cd:	00 00 00 00 
   122d1:	48 c7 85 28 fc ff ff 	movq   $0x0,-0x3d8(%rbp)
   122d8:	00 00 00 00 
   122dc:	48 8d 85 30 f9 ff ff 	lea    -0x6d0(%rbp),%rax
   122e3:	48 89 85 30 fc ff ff 	mov    %rax,-0x3d0(%rbp)
   122ea:	48 8d 85 30 f9 ff ff 	lea    -0x6d0(%rbp),%rax
   122f1:	48 89 85 38 fc ff ff 	mov    %rax,-0x3c8(%rbp)
   122f8:	48 8d 85 30 f9 ff ff 	lea    -0x6d0(%rbp),%rax
   122ff:	48 89 85 40 fc ff ff 	mov    %rax,-0x3c0(%rbp)
   12306:	48 c7 85 48 fc ff ff 	movq   $0x0,-0x3b8(%rbp)
   1230d:	00 00 00 00 
   12311:	48 8d 85 30 f9 ff ff 	lea    -0x6d0(%rbp),%rax
   12318:	48 89 85 50 fc ff ff 	mov    %rax,-0x3b0(%rbp)
   1231f:	48 8d 85 30 f9 ff ff 	lea    -0x6d0(%rbp),%rax
   12326:	48 89 85 58 fc ff ff 	mov    %rax,-0x3a8(%rbp)
   1232d:	48 8d 85 30 f9 ff ff 	lea    -0x6d0(%rbp),%rax
   12334:	48 89 85 60 fc ff ff 	mov    %rax,-0x3a0(%rbp)
   1233b:	48 8d 85 30 f9 ff ff 	lea    -0x6d0(%rbp),%rax
   12342:	48 89 85 68 fc ff ff 	mov    %rax,-0x398(%rbp)
   12349:	48 8d 85 30 f9 ff ff 	lea    -0x6d0(%rbp),%rax
   12350:	48 89 85 70 fc ff ff 	mov    %rax,-0x390(%rbp)
   12357:	48 8d 85 30 f9 ff ff 	lea    -0x6d0(%rbp),%rax
   1235e:	48 89 85 78 fc ff ff 	mov    %rax,-0x388(%rbp)
   12365:	48 c7 85 80 fc ff ff 	movq   $0x0,-0x380(%rbp)
   1236c:	00 00 00 00 
   12370:	48 8d 85 30 f9 ff ff 	lea    -0x6d0(%rbp),%rax
   12377:	48 89 85 88 fc ff ff 	mov    %rax,-0x378(%rbp)
   1237e:	48 8d 85 30 f9 ff ff 	lea    -0x6d0(%rbp),%rax
   12385:	48 89 85 90 fc ff ff 	mov    %rax,-0x370(%rbp)
   1238c:	48 8d 85 30 f9 ff ff 	lea    -0x6d0(%rbp),%rax
   12393:	48 89 85 98 fc ff ff 	mov    %rax,-0x368(%rbp)
   1239a:	48 c7 85 a0 fc ff ff 	movq   $0x0,-0x360(%rbp)
   123a1:	00 00 00 00 
   123a5:	48 8d 85 30 f9 ff ff 	lea    -0x6d0(%rbp),%rax
   123ac:	48 89 85 a8 fc ff ff 	mov    %rax,-0x358(%rbp)
   123b3:	48 8d 85 30 f9 ff ff 	lea    -0x6d0(%rbp),%rax
   123ba:	48 89 85 b0 fc ff ff 	mov    %rax,-0x350(%rbp)
   123c1:	48 8d 85 30 f9 ff ff 	lea    -0x6d0(%rbp),%rax
   123c8:	48 89 85 b8 fc ff ff 	mov    %rax,-0x348(%rbp)
   123cf:	48 c7 85 c0 fc ff ff 	movq   $0x0,-0x340(%rbp)
   123d6:	00 00 00 00 
   123da:	48 c7 85 c8 fc ff ff 	movq   $0x0,-0x338(%rbp)
   123e1:	00 00 00 00 
   123e5:	48 8d 85 30 f9 ff ff 	lea    -0x6d0(%rbp),%rax
   123ec:	48 89 85 d0 fc ff ff 	mov    %rax,-0x330(%rbp)
   123f3:	48 8d 85 30 f9 ff ff 	lea    -0x6d0(%rbp),%rax
   123fa:	48 89 85 d8 fc ff ff 	mov    %rax,-0x328(%rbp)
   12401:	48 8d 85 30 f9 ff ff 	lea    -0x6d0(%rbp),%rax
   12408:	48 89 85 e0 fc ff ff 	mov    %rax,-0x320(%rbp)
   1240f:	48 c7 85 e8 fc ff ff 	movq   $0x0,-0x318(%rbp)
   12416:	00 00 00 00 
   1241a:	48 8d 85 30 f9 ff ff 	lea    -0x6d0(%rbp),%rax
   12421:	48 89 85 f0 fc ff ff 	mov    %rax,-0x310(%rbp)
   12428:	48 8d 85 30 f9 ff ff 	lea    -0x6d0(%rbp),%rax
   1242f:	48 89 85 f8 fc ff ff 	mov    %rax,-0x308(%rbp)
   12436:	48 8d 85 30 f9 ff ff 	lea    -0x6d0(%rbp),%rax
   1243d:	48 89 85 00 fd ff ff 	mov    %rax,-0x300(%rbp)
   12444:	48 c7 85 08 fd ff ff 	movq   $0x0,-0x2f8(%rbp)
   1244b:	00 00 00 00 
   1244f:	48 8d 85 30 f9 ff ff 	lea    -0x6d0(%rbp),%rax
   12456:	48 89 85 10 fd ff ff 	mov    %rax,-0x2f0(%rbp)
   1245d:	48 c7 85 18 fd ff ff 	movq   $0x0,-0x2e8(%rbp)
   12464:	00 00 00 00 
   12468:	48 8d 85 30 f9 ff ff 	lea    -0x6d0(%rbp),%rax
   1246f:	48 89 85 20 fd ff ff 	mov    %rax,-0x2e0(%rbp)
   12476:	48 8d 85 30 f9 ff ff 	lea    -0x6d0(%rbp),%rax
   1247d:	48 89 85 28 fd ff ff 	mov    %rax,-0x2d8(%rbp)
   12484:	48 c7 85 30 fd ff ff 	movq   $0x0,-0x2d0(%rbp)
   1248b:	00 00 00 00 
   1248f:	48 8d 85 30 f9 ff ff 	lea    -0x6d0(%rbp),%rax
   12496:	48 89 85 38 fd ff ff 	mov    %rax,-0x2c8(%rbp)
   1249d:	48 c7 85 40 fd ff ff 	movq   $0x0,-0x2c0(%rbp)
   124a4:	00 00 00 00 
   124a8:	48 8d 85 30 f9 ff ff 	lea    -0x6d0(%rbp),%rax
   124af:	48 89 85 48 fd ff ff 	mov    %rax,-0x2b8(%rbp)
   124b6:	48 8d 85 30 f9 ff ff 	lea    -0x6d0(%rbp),%rax
   124bd:	48 89 85 50 fd ff ff 	mov    %rax,-0x2b0(%rbp)
   124c4:	48 c7 85 58 fd ff ff 	movq   $0x0,-0x2a8(%rbp)
   124cb:	00 00 00 00 
   124cf:	48 8d 85 30 f9 ff ff 	lea    -0x6d0(%rbp),%rax
   124d6:	48 89 85 60 fd ff ff 	mov    %rax,-0x2a0(%rbp)
   124dd:	48 8d 85 30 f9 ff ff 	lea    -0x6d0(%rbp),%rax
   124e4:	48 89 85 68 fd ff ff 	mov    %rax,-0x298(%rbp)
   124eb:	48 c7 85 70 fd ff ff 	movq   $0x0,-0x290(%rbp)
   124f2:	00 00 00 00 
   124f6:	48 8d 85 30 f9 ff ff 	lea    -0x6d0(%rbp),%rax
   124fd:	48 89 85 78 fd ff ff 	mov    %rax,-0x288(%rbp)
   12504:	48 8d 85 30 f9 ff ff 	lea    -0x6d0(%rbp),%rax
   1250b:	48 89 85 80 fd ff ff 	mov    %rax,-0x280(%rbp)
   12512:	48 8d 85 30 f9 ff ff 	lea    -0x6d0(%rbp),%rax
   12519:	48 89 85 88 fd ff ff 	mov    %rax,-0x278(%rbp)
   12520:	48 c7 85 90 fd ff ff 	movq   $0x0,-0x270(%rbp)
   12527:	00 00 00 00 
   1252b:	48 8d 85 30 f9 ff ff 	lea    -0x6d0(%rbp),%rax
   12532:	48 89 85 98 fd ff ff 	mov    %rax,-0x268(%rbp)
   12539:	48 8d 85 30 f9 ff ff 	lea    -0x6d0(%rbp),%rax
   12540:	48 89 85 a0 fd ff ff 	mov    %rax,-0x260(%rbp)
   12547:	48 8d 85 30 f9 ff ff 	lea    -0x6d0(%rbp),%rax
   1254e:	48 89 85 a8 fd ff ff 	mov    %rax,-0x258(%rbp)
   12555:	48 8d 85 30 f9 ff ff 	lea    -0x6d0(%rbp),%rax
   1255c:	48 89 85 b0 fd ff ff 	mov    %rax,-0x250(%rbp)
   12563:	48 c7 85 b8 fd ff ff 	movq   $0x0,-0x248(%rbp)
   1256a:	00 00 00 00 
   1256e:	48 8d 85 30 f9 ff ff 	lea    -0x6d0(%rbp),%rax
   12575:	48 89 85 c0 fd ff ff 	mov    %rax,-0x240(%rbp)
   1257c:	48 8d 85 30 f9 ff ff 	lea    -0x6d0(%rbp),%rax
   12583:	48 89 85 c8 fd ff ff 	mov    %rax,-0x238(%rbp)
   1258a:	48 c7 85 d0 fd ff ff 	movq   $0x0,-0x230(%rbp)
   12591:	00 00 00 00 
   12595:	48 8d 85 30 f9 ff ff 	lea    -0x6d0(%rbp),%rax
   1259c:	48 89 85 d8 fd ff ff 	mov    %rax,-0x228(%rbp)
   125a3:	48 8d 85 30 f9 ff ff 	lea    -0x6d0(%rbp),%rax
   125aa:	48 89 85 e0 fd ff ff 	mov    %rax,-0x220(%rbp)
   125b1:	48 8d 85 30 f9 ff ff 	lea    -0x6d0(%rbp),%rax
   125b8:	48 89 85 e8 fd ff ff 	mov    %rax,-0x218(%rbp)
   125bf:	48 8d 85 30 f9 ff ff 	lea    -0x6d0(%rbp),%rax
   125c6:	48 89 85 f0 fd ff ff 	mov    %rax,-0x210(%rbp)
   125cd:	48 8d 85 30 f9 ff ff 	lea    -0x6d0(%rbp),%rax
   125d4:	48 89 85 f8 fd ff ff 	mov    %rax,-0x208(%rbp)
   125db:	48 c7 85 00 fe ff ff 	movq   $0x0,-0x200(%rbp)
   125e2:	00 00 00 00 
   125e6:	48 c7 85 08 fe ff ff 	movq   $0x0,-0x1f8(%rbp)
   125ed:	00 00 00 00 
   125f1:	48 8d 85 30 f9 ff ff 	lea    -0x6d0(%rbp),%rax
   125f8:	48 89 85 10 fe ff ff 	mov    %rax,-0x1f0(%rbp)
   125ff:	48 8d 85 30 f9 ff ff 	lea    -0x6d0(%rbp),%rax
   12606:	48 89 85 18 fe ff ff 	mov    %rax,-0x1e8(%rbp)
   1260d:	48 8d 85 30 f9 ff ff 	lea    -0x6d0(%rbp),%rax
   12614:	48 89 85 20 fe ff ff 	mov    %rax,-0x1e0(%rbp)
   1261b:	48 8d 85 30 f9 ff ff 	lea    -0x6d0(%rbp),%rax
   12622:	48 89 85 28 fe ff ff 	mov    %rax,-0x1d8(%rbp)
   12629:	48 c7 85 30 fe ff ff 	movq   $0x0,-0x1d0(%rbp)
   12630:	00 00 00 00 
   12634:	48 8d 85 30 f9 ff ff 	lea    -0x6d0(%rbp),%rax
   1263b:	48 89 85 38 fe ff ff 	mov    %rax,-0x1c8(%rbp)
   12642:	48 c7 85 40 fe ff ff 	movq   $0x0,-0x1c0(%rbp)
   12649:	00 00 00 00 
   1264d:	48 c7 85 48 fe ff ff 	movq   $0x0,-0x1b8(%rbp)
   12654:	00 00 00 00 
   12658:	48 8d 85 30 f9 ff ff 	lea    -0x6d0(%rbp),%rax
   1265f:	48 89 85 50 fe ff ff 	mov    %rax,-0x1b0(%rbp)
   12666:	48 8d 85 30 f9 ff ff 	lea    -0x6d0(%rbp),%rax
   1266d:	48 89 85 58 fe ff ff 	mov    %rax,-0x1a8(%rbp)
   12674:	48 c7 85 60 fe ff ff 	movq   $0x0,-0x1a0(%rbp)
   1267b:	00 00 00 00 
   1267f:	48 c7 85 68 fe ff ff 	movq   $0x0,-0x198(%rbp)
   12686:	00 00 00 00 
   1268a:	48 8d 85 30 f9 ff ff 	lea    -0x6d0(%rbp),%rax
   12691:	48 89 85 70 fe ff ff 	mov    %rax,-0x190(%rbp)
   12698:	48 c7 85 78 fe ff ff 	movq   $0x0,-0x188(%rbp)
   1269f:	00 00 00 00 
   126a3:	48 8d 85 30 f9 ff ff 	lea    -0x6d0(%rbp),%rax
   126aa:	48 89 85 80 fe ff ff 	mov    %rax,-0x180(%rbp)
   126b1:	48 8d 85 30 f9 ff ff 	lea    -0x6d0(%rbp),%rax
   126b8:	48 89 85 88 fe ff ff 	mov    %rax,-0x178(%rbp)
   126bf:	48 8d 85 30 f9 ff ff 	lea    -0x6d0(%rbp),%rax
   126c6:	48 89 85 90 fe ff ff 	mov    %rax,-0x170(%rbp)
   126cd:	48 8d 85 30 f9 ff ff 	lea    -0x6d0(%rbp),%rax
   126d4:	48 89 85 98 fe ff ff 	mov    %rax,-0x168(%rbp)
   126db:	48 c7 85 a0 fe ff ff 	movq   $0x0,-0x160(%rbp)
   126e2:	00 00 00 00 
   126e6:	48 c7 85 a8 fe ff ff 	movq   $0x0,-0x158(%rbp)
   126ed:	00 00 00 00 
   126f1:	48 c7 85 b0 fe ff ff 	movq   $0x0,-0x150(%rbp)
   126f8:	00 00 00 00 
   126fc:	48 8d 85 30 f9 ff ff 	lea    -0x6d0(%rbp),%rax
   12703:	48 89 85 b8 fe ff ff 	mov    %rax,-0x148(%rbp)
   1270a:	48 c7 85 c0 fe ff ff 	movq   $0x0,-0x140(%rbp)
   12711:	00 00 00 00 
   12715:	48 8d 85 30 f9 ff ff 	lea    -0x6d0(%rbp),%rax
   1271c:	48 89 85 c8 fe ff ff 	mov    %rax,-0x138(%rbp)
   12723:	48 8d 85 30 f9 ff ff 	lea    -0x6d0(%rbp),%rax
   1272a:	48 89 85 d0 fe ff ff 	mov    %rax,-0x130(%rbp)
   12731:	48 8d 85 30 f9 ff ff 	lea    -0x6d0(%rbp),%rax
   12738:	48 89 85 d8 fe ff ff 	mov    %rax,-0x128(%rbp)
   1273f:	48 8d 85 30 f9 ff ff 	lea    -0x6d0(%rbp),%rax
   12746:	48 89 85 e0 fe ff ff 	mov    %rax,-0x120(%rbp)
   1274d:	48 c7 85 e8 fe ff ff 	movq   $0x0,-0x118(%rbp)
   12754:	00 00 00 00 
   12758:	48 8d 85 30 f9 ff ff 	lea    -0x6d0(%rbp),%rax
   1275f:	48 89 85 f0 fe ff ff 	mov    %rax,-0x110(%rbp)
   12766:	48 8d 85 30 f9 ff ff 	lea    -0x6d0(%rbp),%rax
   1276d:	48 89 85 f8 fe ff ff 	mov    %rax,-0x108(%rbp)
   12774:	48 c7 85 00 ff ff ff 	movq   $0x0,-0x100(%rbp)
   1277b:	00 00 00 00 
   1277f:	48 8d 85 30 f9 ff ff 	lea    -0x6d0(%rbp),%rax
   12786:	48 89 85 08 ff ff ff 	mov    %rax,-0xf8(%rbp)
   1278d:	48 c7 85 10 ff ff ff 	movq   $0x0,-0xf0(%rbp)
   12794:	00 00 00 00 
   12798:	48 8d 85 30 f9 ff ff 	lea    -0x6d0(%rbp),%rax
   1279f:	48 89 85 18 ff ff ff 	mov    %rax,-0xe8(%rbp)
   127a6:	48 8d 85 30 f9 ff ff 	lea    -0x6d0(%rbp),%rax
   127ad:	48 89 85 20 ff ff ff 	mov    %rax,-0xe0(%rbp)
   127b4:	48 8d 85 30 f9 ff ff 	lea    -0x6d0(%rbp),%rax
   127bb:	48 89 85 28 ff ff ff 	mov    %rax,-0xd8(%rbp)
   127c2:	48 c7 85 30 ff ff ff 	movq   $0x0,-0xd0(%rbp)
   127c9:	00 00 00 00 
   127cd:	48 8d 85 30 f9 ff ff 	lea    -0x6d0(%rbp),%rax
   127d4:	48 89 85 38 ff ff ff 	mov    %rax,-0xc8(%rbp)
   127db:	48 c7 85 40 ff ff ff 	movq   $0x0,-0xc0(%rbp)
   127e2:	00 00 00 00 
   127e6:	48 8d 85 30 f9 ff ff 	lea    -0x6d0(%rbp),%rax
   127ed:	48 89 85 48 ff ff ff 	mov    %rax,-0xb8(%rbp)
   127f4:	48 8d 85 30 f9 ff ff 	lea    -0x6d0(%rbp),%rax
   127fb:	48 89 85 50 ff ff ff 	mov    %rax,-0xb0(%rbp)
   12802:	48 c7 85 58 ff ff ff 	movq   $0x0,-0xa8(%rbp)
   12809:	00 00 00 00 
   1280d:	48 8d 85 30 f9 ff ff 	lea    -0x6d0(%rbp),%rax
   12814:	48 89 85 60 ff ff ff 	mov    %rax,-0xa0(%rbp)
   1281b:	48 c7 85 68 ff ff ff 	movq   $0x0,-0x98(%rbp)
   12822:	00 00 00 00 
   12826:	48 8d 85 30 f9 ff ff 	lea    -0x6d0(%rbp),%rax
   1282d:	48 89 85 70 ff ff ff 	mov    %rax,-0x90(%rbp)
   12834:	48 8d 85 30 f9 ff ff 	lea    -0x6d0(%rbp),%rax
   1283b:	48 89 85 78 ff ff ff 	mov    %rax,-0x88(%rbp)
   12842:	48 8d 85 30 f9 ff ff 	lea    -0x6d0(%rbp),%rax
   12849:	48 89 45 80          	mov    %rax,-0x80(%rbp)
   1284d:	48 8d 85 30 f9 ff ff 	lea    -0x6d0(%rbp),%rax
   12854:	48 89 45 88          	mov    %rax,-0x78(%rbp)
   12858:	48 8d 85 30 f9 ff ff 	lea    -0x6d0(%rbp),%rax
   1285f:	48 89 45 90          	mov    %rax,-0x70(%rbp)
   12863:	48 c7 45 98 00 00 00 	movq   $0x0,-0x68(%rbp)
   1286a:	00 
   1286b:	48 8d 85 30 f9 ff ff 	lea    -0x6d0(%rbp),%rax
   12872:	48 89 45 a0          	mov    %rax,-0x60(%rbp)
   12876:	48 8d 85 30 f9 ff ff 	lea    -0x6d0(%rbp),%rax
   1287d:	48 89 45 a8          	mov    %rax,-0x58(%rbp)
   12881:	48 8d 85 30 f9 ff ff 	lea    -0x6d0(%rbp),%rax
   12888:	48 89 45 b0          	mov    %rax,-0x50(%rbp)
   1288c:	48 8d 85 30 f9 ff ff 	lea    -0x6d0(%rbp),%rax
   12893:	48 89 45 b8          	mov    %rax,-0x48(%rbp)
   12897:	48 8d 85 30 f9 ff ff 	lea    -0x6d0(%rbp),%rax
   1289e:	48 89 45 c0          	mov    %rax,-0x40(%rbp)
   128a2:	48 8d 85 30 f9 ff ff 	lea    -0x6d0(%rbp),%rax
   128a9:	48 89 45 c8          	mov    %rax,-0x38(%rbp)
   128ad:	48 8d 85 30 f9 ff ff 	lea    -0x6d0(%rbp),%rax
   128b4:	48 89 45 d0          	mov    %rax,-0x30(%rbp)
   128b8:	c7 85 1c f9 ff ff 00 	movl   $0x0,-0x6e4(%rbp)
   128bf:	00 00 00 
   128c2:	48 c7 85 88 f9 ff ff 	movq   $0x1,-0x678(%rbp)
   128c9:	01 00 00 00 
   128cd:	48 b8 b2 4e 16 83 ca 	movabs $0xb0e03aca83164eb2,%rax
   128d4:	3a e0 b0 
   128d7:	48 89 85 90 f9 ff ff 	mov    %rax,-0x670(%rbp)
   128de:	48 c7 85 98 f9 ff ff 	movq   $0x1,-0x668(%rbp)
   128e5:	01 00 00 00 
   128e9:	48 c7 85 a0 f9 ff ff 	movq   $0x0,-0x660(%rbp)
   128f0:	00 00 00 00 
   128f4:	48 8d 05 d5 89 00 00 	lea    0x89d5(%rip),%rax        # 1b2d0 <g_211>
   128fb:	48 89 85 38 f9 ff ff 	mov    %rax,-0x6c8(%rbp)
   12902:	48 8d 85 38 f9 ff ff 	lea    -0x6c8(%rbp),%rax
   12909:	48 89 85 a8 f9 ff ff 	mov    %rax,-0x658(%rbp)
   12910:	c7 85 0c f9 ff ff 00 	movl   $0x0,-0x6f4(%rbp)
   12917:	00 00 00 
   1291a:	eb 1e                	jmp    1293a <func_63+0x97f>
   1291c:	8b 85 0c f9 ff ff    	mov    -0x6f4(%rbp),%eax
   12922:	48 98                	cltq   
   12924:	48 8d 15 0d 77 00 00 	lea    0x770d(%rip),%rdx        # 1a038 <g_93>
   1292b:	48 89 94 c5 d0 f9 ff 	mov    %rdx,-0x630(%rbp,%rax,8)
   12932:	ff 
   12933:	83 85 0c f9 ff ff 01 	addl   $0x1,-0x6f4(%rbp)
   1293a:	83 bd 0c f9 ff ff 06 	cmpl   $0x6,-0x6f4(%rbp)
   12941:	7e d9                	jle    1291c <func_63+0x961>
   12943:	c7 85 0c f9 ff ff 00 	movl   $0x0,-0x6f4(%rbp)
   1294a:	00 00 00 
   1294d:	eb 1e                	jmp    1296d <func_63+0x9b2>
   1294f:	8b 85 0c f9 ff ff    	mov    -0x6f4(%rbp),%eax
   12955:	48 98                	cltq   
   12957:	48 8d 95 04 f9 ff ff 	lea    -0x6fc(%rbp),%rdx
   1295e:	48 89 94 c5 b0 f9 ff 	mov    %rdx,-0x650(%rbp,%rax,8)
   12965:	ff 
   12966:	83 85 0c f9 ff ff 01 	addl   $0x1,-0x6f4(%rbp)
   1296d:	83 bd 0c f9 ff ff 02 	cmpl   $0x2,-0x6f4(%rbp)
   12974:	7e d9                	jle    1294f <func_63+0x994>
   12976:	0f b6 9d ec f8 ff ff 	movzbl -0x714(%rbp),%ebx
   1297d:	8b 85 10 f9 ff ff    	mov    -0x6f0(%rbp),%eax
   12983:	44 0f bf e0          	movswl %ax,%r12d
   12987:	48 8b 05 ba 88 00 00 	mov    0x88ba(%rip),%rax        # 1b248 <g_92+0x8>
   1298e:	48 89 85 00 fa ff ff 	mov    %rax,-0x600(%rbp)
   12995:	48 8b 85 00 fa ff ff 	mov    -0x600(%rbp),%rax
   1299c:	48 85 c0             	test   %rax,%rax
   1299f:	0f 95 c0             	setne  %al
   129a2:	44 0f b6 e8          	movzbl %al,%r13d
   129a6:	8b 05 78 76 00 00    	mov    0x7678(%rip),%eax        # 1a024 <g_10>
   129ac:	89 c2                	mov    %eax,%edx
   129ae:	48 8b 85 40 f9 ff ff 	mov    -0x6c0(%rbp),%rax
   129b5:	48 c7 00 ff ff ff ff 	movq   $0xffffffffffffffff,(%rax)
   129bc:	48 8b 85 40 f9 ff ff 	mov    -0x6c0(%rbp),%rax
   129c3:	48 8b 00             	mov    (%rax),%rax
   129c6:	48 89 d6             	mov    %rdx,%rsi
   129c9:	48 89 c7             	mov    %rax,%rdi
   129cc:	e8 e3 3f ff ff       	callq  69b4 <safe_mod_func_int64_t_s_s>
   129d1:	0f b6 c0             	movzbl %al,%eax
   129d4:	be 56 00 00 00       	mov    $0x56,%esi
   129d9:	89 c7                	mov    %eax,%edi
   129db:	e8 ce 41 ff ff       	callq  6bae <safe_mod_func_uint8_t_u_u>
   129e0:	0f b6 c0             	movzbl %al,%eax
   129e3:	44 89 ee             	mov    %r13d,%esi
   129e6:	89 c7                	mov    %eax,%edi
   129e8:	e8 18 3c ff ff       	callq  6605 <safe_sub_func_int32_t_s_s>
   129ed:	98                   	cwtl   
   129ee:	44 89 e6             	mov    %r12d,%esi
   129f1:	89 c7                	mov    %eax,%edi
   129f3:	e8 fd 39 ff ff       	callq  63f5 <safe_mul_func_int16_t_s_s>
   129f8:	0f b6 c0             	movzbl %al,%eax
   129fb:	25 fb 00 00 00       	and    $0xfb,%eax
   12a00:	89 de                	mov    %ebx,%esi
   12a02:	89 c7                	mov    %eax,%edi
   12a04:	e8 84 42 ff ff       	callq  6c8d <safe_rshift_func_uint8_t_u_s>
   12a09:	84 c0                	test   %al,%al
   12a0b:	75 07                	jne    12a14 <func_63+0xa59>
   12a0d:	83 bd 10 f9 ff ff 00 	cmpl   $0x0,-0x6f0(%rbp)
   12a14:	48 8b 05 15 76 00 00 	mov    0x7615(%rip),%rax        # 1a030 <g_91>
   12a1b:	48 ba 53 4d 48 6c f1 	movabs $0x697289f16c484d53,%rdx
   12a22:	89 72 69 
   12a25:	48 39 d0             	cmp    %rdx,%rax
   12a28:	0f 9f c0             	setg   %al
   12a2b:	0f b6 d0             	movzbl %al,%edx
   12a2e:	0f b6 85 ec f8 ff ff 	movzbl -0x714(%rbp),%eax
   12a35:	39 c2                	cmp    %eax,%edx
   12a37:	0f 9f c0             	setg   %al
   12a3a:	0f b6 c0             	movzbl %al,%eax
   12a3d:	89 85 04 f9 ff ff    	mov    %eax,-0x6fc(%rbp)
   12a43:	48 8b 85 58 f9 ff ff 	mov    -0x6a8(%rbp),%rax
   12a4a:	48 8b 95 f0 f8 ff ff 	mov    -0x710(%rbp),%rdx
   12a51:	48 89 10             	mov    %rdx,(%rax)
   12a54:	48 8b 85 58 f9 ff ff 	mov    -0x6a8(%rbp),%rax
   12a5b:	48 8b 00             	mov    (%rax),%rax
   12a5e:	48 85 c0             	test   %rax,%rax
   12a61:	0f 94 c0             	sete   %al
   12a64:	0f b6 c0             	movzbl %al,%eax
   12a67:	be 00 00 00 00       	mov    $0x0,%esi
   12a6c:	89 c7                	mov    %eax,%edi
   12a6e:	e8 92 41 ff ff       	callq  6c05 <safe_lshift_func_uint8_t_u_s>
   12a73:	b8 00 00 00 00       	mov    $0x0,%eax
   12a78:	89 c2                	mov    %eax,%edx
   12a7a:	8b 05 c0 75 00 00    	mov    0x75c0(%rip),%eax        # 1a040 <g_101>
   12a80:	09 d0                	or     %edx,%eax
   12a82:	89 05 b8 75 00 00    	mov    %eax,0x75b8(%rip)        # 1a040 <g_101>
   12a88:	8b 05 b2 75 00 00    	mov    0x75b2(%rip),%eax        # 1a040 <g_101>
   12a8e:	8b 95 08 f9 ff ff    	mov    -0x6f8(%rbp),%edx
   12a94:	39 d0                	cmp    %edx,%eax
   12a96:	0f 96 c0             	setbe  %al
   12a99:	0f b6 c0             	movzbl %al,%eax
   12a9c:	89 c2                	mov    %eax,%edx
   12a9e:	0f b7 05 89 75 00 00 	movzwl 0x7589(%rip),%eax        # 1a02e <g_69>
   12aa5:	0f b7 c0             	movzwl %ax,%eax
   12aa8:	39 c2                	cmp    %eax,%edx
   12aaa:	7c 0b                	jl     12ab7 <func_63+0xafc>
   12aac:	0f b6 05 79 75 00 00 	movzbl 0x7579(%rip),%eax        # 1a02c <g_33>
   12ab3:	84 c0                	test   %al,%al
   12ab5:	74 10                	je     12ac7 <func_63+0xb0c>
   12ab7:	83 bd 10 f9 ff ff 00 	cmpl   $0x0,-0x6f0(%rbp)
   12abe:	74 07                	je     12ac7 <func_63+0xb0c>
   12ac0:	ba 01 00 00 00       	mov    $0x1,%edx
   12ac5:	eb 05                	jmp    12acc <func_63+0xb11>
   12ac7:	ba 00 00 00 00       	mov    $0x0,%edx
   12acc:	8b 05 72 75 00 00    	mov    0x7572(%rip),%eax        # 1a044 <g_104>
   12ad2:	09 d0                	or     %edx,%eax
   12ad4:	89 05 6a 75 00 00    	mov    %eax,0x756a(%rip)        # 1a044 <g_104>
   12ada:	48 8b 85 f0 f8 ff ff 	mov    -0x710(%rbp),%rax
   12ae1:	48 8b 5d d8          	mov    -0x28(%rbp),%rbx
   12ae5:	64 48 33 1c 25 28 00 	xor    %fs:0x28,%rbx
   12aec:	00 00 
   12aee:	74 05                	je     12af5 <func_63+0xb3a>
   12af0:	e8 7b 35 ff ff       	callq  6070 <__stack_chk_fail@plt>
   12af5:	48 81 c4 08 07 00 00 	add    $0x708,%rsp
   12afc:	5b                   	pop    %rbx
   12afd:	41 5c                	pop    %r12
   12aff:	41 5d                	pop    %r13
   12b01:	5d                   	pop    %rbp
   12b02:	c3                   	retq   

0000000000012b03 <main>:
   12b03:	f3 0f 1e fa          	endbr64 
   12b07:	55                   	push   %rbp
   12b08:	48 89 e5             	mov    %rsp,%rbp
   12b0b:	48 83 ec 20          	sub    $0x20,%rsp
   12b0f:	89 7d ec             	mov    %edi,-0x14(%rbp)
   12b12:	48 89 75 e0          	mov    %rsi,-0x20(%rbp)
   12b16:	c7 45 fc 00 00 00 00 	movl   $0x0,-0x4(%rbp)
   12b1d:	83 7d ec 02          	cmpl   $0x2,-0x14(%rbp)
   12b21:	75 25                	jne    12b48 <main+0x45>
   12b23:	48 8b 45 e0          	mov    -0x20(%rbp),%rax
   12b27:	48 83 c0 08          	add    $0x8,%rax
   12b2b:	48 8b 00             	mov    (%rax),%rax
   12b2e:	48 8d 35 67 39 00 00 	lea    0x3967(%rip),%rsi        # 1649c <g_1623+0x1444>
   12b35:	48 89 c7             	mov    %rax,%rdi
   12b38:	e8 53 35 ff ff       	callq  6090 <strcmp@plt>
   12b3d:	85 c0                	test   %eax,%eax
   12b3f:	75 07                	jne    12b48 <main+0x45>
   12b41:	c7 45 fc 01 00 00 00 	movl   $0x1,-0x4(%rbp)
   12b48:	e8 3c 36 ff ff       	callq  6189 <platform_main_begin>
   12b4d:	e8 46 4a ff ff       	callq  7598 <crc32_gentab>
   12b52:	e8 5e 4c ff ff       	callq  77b5 <func_1>
   12b57:	8b 05 c7 74 00 00    	mov    0x74c7(%rip),%eax        # 1a024 <g_10>
   12b5d:	89 c1                	mov    %eax,%ecx
   12b5f:	8b 45 fc             	mov    -0x4(%rbp),%eax
   12b62:	89 c2                	mov    %eax,%edx
   12b64:	48 8d 35 33 39 00 00 	lea    0x3933(%rip),%rsi        # 1649e <g_1623+0x1446>
   12b6b:	48 89 cf             	mov    %rcx,%rdi
   12b6e:	e8 80 4b ff ff       	callq  76f3 <transparent_crc>
   12b73:	8b 05 af 74 00 00    	mov    0x74af(%rip),%eax        # 1a028 <g_29>
   12b79:	89 c1                	mov    %eax,%ecx
   12b7b:	8b 45 fc             	mov    -0x4(%rbp),%eax
   12b7e:	89 c2                	mov    %eax,%edx
   12b80:	48 8d 35 1c 39 00 00 	lea    0x391c(%rip),%rsi        # 164a3 <g_1623+0x144b>
   12b87:	48 89 cf             	mov    %rcx,%rdi
   12b8a:	e8 64 4b ff ff       	callq  76f3 <transparent_crc>
   12b8f:	0f b6 05 96 74 00 00 	movzbl 0x7496(%rip),%eax        # 1a02c <g_33>
   12b96:	0f b6 c0             	movzbl %al,%eax
   12b99:	8b 55 fc             	mov    -0x4(%rbp),%edx
   12b9c:	48 8d 35 05 39 00 00 	lea    0x3905(%rip),%rsi        # 164a8 <g_1623+0x1450>
   12ba3:	48 89 c7             	mov    %rax,%rdi
   12ba6:	e8 48 4b ff ff       	callq  76f3 <transparent_crc>
   12bab:	0f b7 05 7c 74 00 00 	movzwl 0x747c(%rip),%eax        # 1a02e <g_69>
   12bb2:	0f b7 c0             	movzwl %ax,%eax
   12bb5:	8b 55 fc             	mov    -0x4(%rbp),%edx
   12bb8:	48 8d 35 ee 38 00 00 	lea    0x38ee(%rip),%rsi        # 164ad <g_1623+0x1455>
   12bbf:	48 89 c7             	mov    %rax,%rdi
   12bc2:	e8 2c 4b ff ff       	callq  76f3 <transparent_crc>
   12bc7:	48 8b 05 62 74 00 00 	mov    0x7462(%rip),%rax        # 1a030 <g_91>
   12bce:	48 89 c1             	mov    %rax,%rcx
   12bd1:	8b 45 fc             	mov    -0x4(%rbp),%eax
   12bd4:	89 c2                	mov    %eax,%edx
   12bd6:	48 8d 35 d5 38 00 00 	lea    0x38d5(%rip),%rsi        # 164b2 <g_1623+0x145a>
   12bdd:	48 89 cf             	mov    %rcx,%rdi
   12be0:	e8 0e 4b ff ff       	callq  76f3 <transparent_crc>
   12be5:	48 8b 05 4c 74 00 00 	mov    0x744c(%rip),%rax        # 1a038 <g_93>
   12bec:	48 89 c1             	mov    %rax,%rcx
   12bef:	8b 45 fc             	mov    -0x4(%rbp),%eax
   12bf2:	89 c2                	mov    %eax,%edx
   12bf4:	48 8d 35 bc 38 00 00 	lea    0x38bc(%rip),%rsi        # 164b7 <g_1623+0x145f>
   12bfb:	48 89 cf             	mov    %rcx,%rdi
   12bfe:	e8 f0 4a ff ff       	callq  76f3 <transparent_crc>
   12c03:	8b 05 37 74 00 00    	mov    0x7437(%rip),%eax        # 1a040 <g_101>
   12c09:	89 c1                	mov    %eax,%ecx
   12c0b:	8b 45 fc             	mov    -0x4(%rbp),%eax
   12c0e:	89 c2                	mov    %eax,%edx
   12c10:	48 8d 35 a5 38 00 00 	lea    0x38a5(%rip),%rsi        # 164bc <g_1623+0x1464>
   12c17:	48 89 cf             	mov    %rcx,%rdi
   12c1a:	e8 d4 4a ff ff       	callq  76f3 <transparent_crc>
   12c1f:	8b 05 1f 74 00 00    	mov    0x741f(%rip),%eax        # 1a044 <g_104>
   12c25:	48 98                	cltq   
   12c27:	8b 55 fc             	mov    -0x4(%rbp),%edx
   12c2a:	48 8d 35 91 38 00 00 	lea    0x3891(%rip),%rsi        # 164c2 <g_1623+0x146a>
   12c31:	48 89 c7             	mov    %rax,%rdi
   12c34:	e8 ba 4a ff ff       	callq  76f3 <transparent_crc>
   12c39:	8b 05 09 74 00 00    	mov    0x7409(%rip),%eax        # 1a048 <g_112>
   12c3f:	48 98                	cltq   
   12c41:	8b 55 fc             	mov    -0x4(%rbp),%edx
   12c44:	48 8d 35 7d 38 00 00 	lea    0x387d(%rip),%rsi        # 164c8 <g_1623+0x1470>
   12c4b:	48 89 c7             	mov    %rax,%rdi
   12c4e:	e8 a0 4a ff ff       	callq  76f3 <transparent_crc>
   12c53:	8b 05 0f 9f 00 00    	mov    0x9f0f(%rip),%eax        # 1cb68 <g_119>
   12c59:	89 c1                	mov    %eax,%ecx
   12c5b:	8b 45 fc             	mov    -0x4(%rbp),%eax
   12c5e:	89 c2                	mov    %eax,%edx
   12c60:	48 8d 35 67 38 00 00 	lea    0x3867(%rip),%rsi        # 164ce <g_1623+0x1476>
   12c67:	48 89 cf             	mov    %rcx,%rdi
   12c6a:	e8 84 4a ff ff       	callq  76f3 <transparent_crc>
   12c6f:	0f b7 05 d6 73 00 00 	movzwl 0x73d6(%rip),%eax        # 1a04c <g_148>
   12c76:	48 0f bf c0          	movswq %ax,%rax
   12c7a:	8b 55 fc             	mov    -0x4(%rbp),%edx
   12c7d:	48 8d 35 50 38 00 00 	lea    0x3850(%rip),%rsi        # 164d4 <g_1623+0x147c>
   12c84:	48 89 c7             	mov    %rax,%rdi
   12c87:	e8 67 4a ff ff       	callq  76f3 <transparent_crc>
   12c8c:	c7 45 f0 00 00 00 00 	movl   $0x0,-0x10(%rbp)
   12c93:	e9 9b 00 00 00       	jmpq   12d33 <main+0x230>
   12c98:	c7 45 f4 00 00 00 00 	movl   $0x0,-0xc(%rbp)
   12c9f:	e9 81 00 00 00       	jmpq   12d25 <main+0x222>
   12ca4:	c7 45 f8 00 00 00 00 	movl   $0x0,-0x8(%rbp)
   12cab:	eb 6e                	jmp    12d1b <main+0x218>
   12cad:	8b 45 f8             	mov    -0x8(%rbp),%eax
   12cb0:	48 63 c8             	movslq %eax,%rcx
   12cb3:	8b 45 f0             	mov    -0x10(%rbp),%eax
   12cb6:	48 63 d0             	movslq %eax,%rdx
   12cb9:	8b 45 f4             	mov    -0xc(%rbp),%eax
   12cbc:	48 63 f0             	movslq %eax,%rsi
   12cbf:	48 89 d0             	mov    %rdx,%rax
   12cc2:	48 c1 e0 02          	shl    $0x2,%rax
   12cc6:	48 01 d0             	add    %rdx,%rax
   12cc9:	48 01 f0             	add    %rsi,%rax
   12ccc:	48 01 c0             	add    %rax,%rax
   12ccf:	48 8d 14 08          	lea    (%rax,%rcx,1),%rdx
   12cd3:	48 8d 05 86 73 00 00 	lea    0x7386(%rip),%rax        # 1a060 <g_154>
   12cda:	48 01 d0             	add    %rdx,%rax
   12cdd:	0f b6 00             	movzbl (%rax),%eax
   12ce0:	0f b6 c0             	movzbl %al,%eax
   12ce3:	8b 55 fc             	mov    -0x4(%rbp),%edx
   12ce6:	48 8d 35 ed 37 00 00 	lea    0x37ed(%rip),%rsi        # 164da <g_1623+0x1482>
   12ced:	48 89 c7             	mov    %rax,%rdi
   12cf0:	e8 fe 49 ff ff       	callq  76f3 <transparent_crc>
   12cf5:	83 7d fc 00          	cmpl   $0x0,-0x4(%rbp)
   12cf9:	74 1c                	je     12d17 <main+0x214>
   12cfb:	8b 4d f8             	mov    -0x8(%rbp),%ecx
   12cfe:	8b 55 f4             	mov    -0xc(%rbp),%edx
   12d01:	8b 45 f0             	mov    -0x10(%rbp),%eax
   12d04:	89 c6                	mov    %eax,%esi
   12d06:	48 8d 3d dc 37 00 00 	lea    0x37dc(%rip),%rdi        # 164e9 <g_1623+0x1491>
   12d0d:	b8 00 00 00 00       	mov    $0x0,%eax
   12d12:	e8 69 33 ff ff       	callq  6080 <printf@plt>
   12d17:	83 45 f8 01          	addl   $0x1,-0x8(%rbp)
   12d1b:	83 7d f8 01          	cmpl   $0x1,-0x8(%rbp)
   12d1f:	7e 8c                	jle    12cad <main+0x1aa>
   12d21:	83 45 f4 01          	addl   $0x1,-0xc(%rbp)
   12d25:	83 7d f4 04          	cmpl   $0x4,-0xc(%rbp)
   12d29:	0f 8e 75 ff ff ff    	jle    12ca4 <main+0x1a1>
   12d2f:	83 45 f0 01          	addl   $0x1,-0x10(%rbp)
   12d33:	83 7d f0 04          	cmpl   $0x4,-0x10(%rbp)
   12d37:	0f 8e 5b ff ff ff    	jle    12c98 <main+0x195>
   12d3d:	48 8b 05 54 73 00 00 	mov    0x7354(%rip),%rax        # 1a098 <g_197>
   12d44:	8b 55 fc             	mov    -0x4(%rbp),%edx
   12d47:	48 8d 35 b1 37 00 00 	lea    0x37b1(%rip),%rsi        # 164ff <g_1623+0x14a7>
   12d4e:	48 89 c7             	mov    %rax,%rdi
   12d51:	e8 9d 49 ff ff       	callq  76f3 <transparent_crc>
   12d56:	0f b6 05 43 73 00 00 	movzbl 0x7343(%rip),%eax        # 1a0a0 <g_199>
   12d5d:	48 0f be c0          	movsbq %al,%rax
   12d61:	8b 55 fc             	mov    -0x4(%rbp),%edx
   12d64:	48 8d 35 9a 37 00 00 	lea    0x379a(%rip),%rsi        # 16505 <g_1623+0x14ad>
   12d6b:	48 89 c7             	mov    %rax,%rdi
   12d6e:	e8 80 49 ff ff       	callq  76f3 <transparent_crc>
   12d73:	48 8b 05 2e 73 00 00 	mov    0x732e(%rip),%rax        # 1a0a8 <g_205>
   12d7a:	8b 55 fc             	mov    -0x4(%rbp),%edx
   12d7d:	48 8d 35 87 37 00 00 	lea    0x3787(%rip),%rsi        # 1650b <g_1623+0x14b3>
   12d84:	48 89 c7             	mov    %rax,%rdi
   12d87:	e8 67 49 ff ff       	callq  76f3 <transparent_crc>
   12d8c:	8b 05 1e 73 00 00    	mov    0x731e(%rip),%eax        # 1a0b0 <g_209>
   12d92:	25 ff ff ff 01       	and    $0x1ffffff,%eax
   12d97:	89 c1                	mov    %eax,%ecx
   12d99:	8b 45 fc             	mov    -0x4(%rbp),%eax
   12d9c:	89 c2                	mov    %eax,%edx
   12d9e:	48 8d 35 6c 37 00 00 	lea    0x376c(%rip),%rsi        # 16511 <g_1623+0x14b9>
   12da5:	48 89 cf             	mov    %rcx,%rdi
   12da8:	e8 46 49 ff ff       	callq  76f3 <transparent_crc>
   12dad:	48 8b 05 fc 72 00 00 	mov    0x72fc(%rip),%rax        # 1a0b0 <g_209>
   12db4:	48 c1 e0 1d          	shl    $0x1d,%rax
   12db8:	48 c1 f8 36          	sar    $0x36,%rax
   12dbc:	48 0f bf c0          	movswq %ax,%rax
   12dc0:	8b 55 fc             	mov    -0x4(%rbp),%edx
   12dc3:	48 8d 35 50 37 00 00 	lea    0x3750(%rip),%rsi        # 1651a <g_1623+0x14c2>
   12dca:	48 89 c7             	mov    %rax,%rdi
   12dcd:	e8 21 49 ff ff       	callq  76f3 <transparent_crc>
   12dd2:	0f b6 05 db 72 00 00 	movzbl 0x72db(%rip),%eax        # 1a0b4 <g_209+0x4>
   12dd9:	01 c0                	add    %eax,%eax
   12ddb:	c0 f8 04             	sar    $0x4,%al
   12dde:	48 0f be c0          	movsbq %al,%rax
   12de2:	8b 55 fc             	mov    -0x4(%rbp),%edx
   12de5:	48 8d 35 37 37 00 00 	lea    0x3737(%rip),%rsi        # 16523 <g_1623+0x14cb>
   12dec:	48 89 c7             	mov    %rax,%rdi
   12def:	e8 ff 48 ff ff       	callq  76f3 <transparent_crc>
   12df4:	8b 05 bb 72 00 00    	mov    0x72bb(%rip),%eax        # 1a0b5 <g_209+0x5>
   12dfa:	89 c1                	mov    %eax,%ecx
   12dfc:	8b 45 fc             	mov    -0x4(%rbp),%eax
   12dff:	89 c2                	mov    %eax,%edx
   12e01:	48 8d 35 24 37 00 00 	lea    0x3724(%rip),%rsi        # 1652c <g_1623+0x14d4>
   12e08:	48 89 cf             	mov    %rcx,%rdi
   12e0b:	e8 e3 48 ff ff       	callq  76f3 <transparent_crc>
   12e10:	0f b6 05 a2 72 00 00 	movzbl 0x72a2(%rip),%eax        # 1a0b9 <g_209+0x9>
   12e17:	83 e0 01             	and    $0x1,%eax
   12e1a:	0f b6 c0             	movzbl %al,%eax
   12e1d:	8b 55 fc             	mov    -0x4(%rbp),%edx
   12e20:	48 8d 35 0e 37 00 00 	lea    0x370e(%rip),%rsi        # 16535 <g_1623+0x14dd>
   12e27:	48 89 c7             	mov    %rax,%rdi
   12e2a:	e8 c4 48 ff ff       	callq  76f3 <transparent_crc>
   12e2f:	8b 05 83 72 00 00    	mov    0x7283(%rip),%eax        # 1a0b8 <g_209+0x8>
   12e35:	c1 e0 0e             	shl    $0xe,%eax
   12e38:	c1 f8 17             	sar    $0x17,%eax
   12e3b:	48 0f bf c0          	movswq %ax,%rax
   12e3f:	8b 55 fc             	mov    -0x4(%rbp),%edx
   12e42:	48 8d 35 f5 36 00 00 	lea    0x36f5(%rip),%rsi        # 1653e <g_1623+0x14e6>
   12e49:	48 89 c7             	mov    %rax,%rdi
   12e4c:	e8 a2 48 ff ff       	callq  76f3 <transparent_crc>
   12e51:	c7 45 f0 00 00 00 00 	movl   $0x0,-0x10(%rbp)
   12e58:	eb 4d                	jmp    12ea7 <main+0x3a4>
   12e5a:	8b 45 f0             	mov    -0x10(%rbp),%eax
   12e5d:	48 98                	cltq   
   12e5f:	48 8d 14 85 00 00 00 	lea    0x0(,%rax,4),%rdx
   12e66:	00 
   12e67:	48 8d 05 52 72 00 00 	lea    0x7252(%rip),%rax        # 1a0c0 <g_322>
   12e6e:	8b 04 02             	mov    (%rdx,%rax,1),%eax
   12e71:	89 c1                	mov    %eax,%ecx
   12e73:	8b 45 fc             	mov    -0x4(%rbp),%eax
   12e76:	89 c2                	mov    %eax,%edx
   12e78:	48 8d 35 c8 36 00 00 	lea    0x36c8(%rip),%rsi        # 16547 <g_1623+0x14ef>
   12e7f:	48 89 cf             	mov    %rcx,%rdi
   12e82:	e8 6c 48 ff ff       	callq  76f3 <transparent_crc>
   12e87:	83 7d fc 00          	cmpl   $0x0,-0x4(%rbp)
   12e8b:	74 16                	je     12ea3 <main+0x3a0>
   12e8d:	8b 45 f0             	mov    -0x10(%rbp),%eax
   12e90:	89 c6                	mov    %eax,%esi
   12e92:	48 8d 3d b7 36 00 00 	lea    0x36b7(%rip),%rdi        # 16550 <g_1623+0x14f8>
   12e99:	b8 00 00 00 00       	mov    $0x0,%eax
   12e9e:	e8 dd 31 ff ff       	callq  6080 <printf@plt>
   12ea3:	83 45 f0 01          	addl   $0x1,-0x10(%rbp)
   12ea7:	83 7d f0 01          	cmpl   $0x1,-0x10(%rbp)
   12eab:	7e ad                	jle    12e5a <main+0x357>
   12ead:	0f b6 05 d4 9c 00 00 	movzbl 0x9cd4(%rip),%eax        # 1cb88 <g_324>
   12eb4:	48 0f be c0          	movsbq %al,%rax
   12eb8:	8b 55 fc             	mov    -0x4(%rbp),%edx
   12ebb:	48 8d 35 9c 36 00 00 	lea    0x369c(%rip),%rsi        # 1655e <g_1623+0x1506>
   12ec2:	48 89 c7             	mov    %rax,%rdi
   12ec5:	e8 29 48 ff ff       	callq  76f3 <transparent_crc>
   12eca:	0f b7 05 f7 71 00 00 	movzwl 0x71f7(%rip),%eax        # 1a0c8 <g_333>
   12ed1:	48 0f bf c0          	movswq %ax,%rax
   12ed5:	8b 55 fc             	mov    -0x4(%rbp),%edx
   12ed8:	48 8d 35 85 36 00 00 	lea    0x3685(%rip),%rsi        # 16564 <g_1623+0x150c>
   12edf:	48 89 c7             	mov    %rax,%rdi
   12ee2:	e8 0c 48 ff ff       	callq  76f3 <transparent_crc>
   12ee7:	0f b6 05 dc 71 00 00 	movzbl 0x71dc(%rip),%eax        # 1a0ca <g_338>
   12eee:	0f b6 c0             	movzbl %al,%eax
   12ef1:	8b 55 fc             	mov    -0x4(%rbp),%edx
   12ef4:	48 8d 35 6f 36 00 00 	lea    0x366f(%rip),%rsi        # 1656a <g_1623+0x1512>
   12efb:	48 89 c7             	mov    %rax,%rdi
   12efe:	e8 f0 47 ff ff       	callq  76f3 <transparent_crc>
   12f03:	c7 45 f0 00 00 00 00 	movl   $0x0,-0x10(%rbp)
   12f0a:	e9 59 03 00 00       	jmpq   13268 <main+0x765>
   12f0f:	c7 45 f4 00 00 00 00 	movl   $0x0,-0xc(%rbp)
   12f16:	e9 3f 03 00 00       	jmpq   1325a <main+0x757>
   12f1b:	c7 45 f8 00 00 00 00 	movl   $0x0,-0x8(%rbp)
   12f22:	e9 25 03 00 00       	jmpq   1324c <main+0x749>
   12f27:	8b 45 f8             	mov    -0x8(%rbp),%eax
   12f2a:	48 98                	cltq   
   12f2c:	8b 55 f4             	mov    -0xc(%rbp),%edx
   12f2f:	48 63 ca             	movslq %edx,%rcx
   12f32:	8b 55 f0             	mov    -0x10(%rbp),%edx
   12f35:	48 63 f2             	movslq %edx,%rsi
   12f38:	48 89 c2             	mov    %rax,%rdx
   12f3b:	48 c1 e2 02          	shl    $0x2,%rdx
   12f3f:	48 01 c2             	add    %rax,%rdx
   12f42:	48 01 d2             	add    %rdx,%rdx
   12f45:	48 01 c2             	add    %rax,%rdx
   12f48:	48 89 c8             	mov    %rcx,%rax
   12f4b:	48 c1 e0 02          	shl    $0x2,%rax
   12f4f:	48 01 c8             	add    %rcx,%rax
   12f52:	48 01 c0             	add    %rax,%rax
   12f55:	48 01 c8             	add    %rcx,%rax
   12f58:	48 c1 e0 02          	shl    $0x2,%rax
   12f5c:	48 01 c2             	add    %rax,%rdx
   12f5f:	48 89 f0             	mov    %rsi,%rax
   12f62:	48 c1 e0 05          	shl    $0x5,%rax
   12f66:	48 01 f0             	add    %rsi,%rax
   12f69:	48 c1 e0 03          	shl    $0x3,%rax
   12f6d:	48 01 c2             	add    %rax,%rdx
   12f70:	48 8d 05 69 71 00 00 	lea    0x7169(%rip),%rax        # 1a0e0 <g_378>
   12f77:	48 01 d0             	add    %rdx,%rax
   12f7a:	0f b6 10             	movzbl (%rax),%edx
   12f7d:	0f b6 d2             	movzbl %dl,%edx
   12f80:	0f b6 48 01          	movzbl 0x1(%rax),%ecx
   12f84:	0f b6 c9             	movzbl %cl,%ecx
   12f87:	48 c1 e1 08          	shl    $0x8,%rcx
   12f8b:	48 09 d1             	or     %rdx,%rcx
   12f8e:	0f b6 50 02          	movzbl 0x2(%rax),%edx
   12f92:	0f b6 d2             	movzbl %dl,%edx
   12f95:	48 c1 e2 10          	shl    $0x10,%rdx
   12f99:	48 09 ca             	or     %rcx,%rdx
   12f9c:	0f b6 40 03          	movzbl 0x3(%rax),%eax
   12fa0:	0f b6 c0             	movzbl %al,%eax
   12fa3:	83 e0 01             	and    $0x1,%eax
   12fa6:	48 c1 e0 18          	shl    $0x18,%rax
   12faa:	48 09 d0             	or     %rdx,%rax
   12fad:	89 c1                	mov    %eax,%ecx
   12faf:	8b 45 fc             	mov    -0x4(%rbp),%eax
   12fb2:	89 c2                	mov    %eax,%edx
   12fb4:	48 8d 35 b5 35 00 00 	lea    0x35b5(%rip),%rsi        # 16570 <g_1623+0x1518>
   12fbb:	48 89 cf             	mov    %rcx,%rdi
   12fbe:	e8 30 47 ff ff       	callq  76f3 <transparent_crc>
   12fc3:	8b 45 f8             	mov    -0x8(%rbp),%eax
   12fc6:	48 98                	cltq   
   12fc8:	8b 55 f4             	mov    -0xc(%rbp),%edx
   12fcb:	48 63 ca             	movslq %edx,%rcx
   12fce:	8b 55 f0             	mov    -0x10(%rbp),%edx
   12fd1:	48 63 f2             	movslq %edx,%rsi
   12fd4:	48 89 c2             	mov    %rax,%rdx
   12fd7:	48 c1 e2 02          	shl    $0x2,%rdx
   12fdb:	48 01 c2             	add    %rax,%rdx
   12fde:	48 01 d2             	add    %rdx,%rdx
   12fe1:	48 01 c2             	add    %rax,%rdx
   12fe4:	48 89 c8             	mov    %rcx,%rax
   12fe7:	48 c1 e0 02          	shl    $0x2,%rax
   12feb:	48 01 c8             	add    %rcx,%rax
   12fee:	48 01 c0             	add    %rax,%rax
   12ff1:	48 01 c8             	add    %rcx,%rax
   12ff4:	48 c1 e0 02          	shl    $0x2,%rax
   12ff8:	48 01 c2             	add    %rax,%rdx
   12ffb:	48 89 f0             	mov    %rsi,%rax
   12ffe:	48 c1 e0 05          	shl    $0x5,%rax
   13002:	48 01 f0             	add    %rsi,%rax
   13005:	48 c1 e0 03          	shl    $0x3,%rax
   13009:	48 01 c2             	add    %rax,%rdx
   1300c:	48 8d 05 cd 70 00 00 	lea    0x70cd(%rip),%rax        # 1a0e0 <g_378>
   13013:	48 01 d0             	add    %rdx,%rax
   13016:	0f b6 50 03          	movzbl 0x3(%rax),%edx
   1301a:	d0 ea                	shr    %dl
   1301c:	0f b6 d2             	movzbl %dl,%edx
   1301f:	0f b6 40 04          	movzbl 0x4(%rax),%eax
   13023:	0f b6 c0             	movzbl %al,%eax
   13026:	83 e0 07             	and    $0x7,%eax
   13029:	48 c1 e0 07          	shl    $0x7,%rax
   1302d:	48 09 d0             	or     %rdx,%rax
   13030:	48 c1 e0 36          	shl    $0x36,%rax
   13034:	48 c1 f8 36          	sar    $0x36,%rax
   13038:	48 0f bf c0          	movswq %ax,%rax
   1303c:	8b 55 fc             	mov    -0x4(%rbp),%edx
   1303f:	48 8d 35 3c 35 00 00 	lea    0x353c(%rip),%rsi        # 16582 <g_1623+0x152a>
   13046:	48 89 c7             	mov    %rax,%rdi
   13049:	e8 a5 46 ff ff       	callq  76f3 <transparent_crc>
   1304e:	8b 45 f8             	mov    -0x8(%rbp),%eax
   13051:	48 98                	cltq   
   13053:	8b 55 f4             	mov    -0xc(%rbp),%edx
   13056:	48 63 ca             	movslq %edx,%rcx
   13059:	8b 55 f0             	mov    -0x10(%rbp),%edx
   1305c:	48 63 f2             	movslq %edx,%rsi
   1305f:	48 89 c2             	mov    %rax,%rdx
   13062:	48 c1 e2 02          	shl    $0x2,%rdx
   13066:	48 01 c2             	add    %rax,%rdx
   13069:	48 01 d2             	add    %rdx,%rdx
   1306c:	48 01 c2             	add    %rax,%rdx
   1306f:	48 89 c8             	mov    %rcx,%rax
   13072:	48 c1 e0 02          	shl    $0x2,%rax
   13076:	48 01 c8             	add    %rcx,%rax
   13079:	48 01 c0             	add    %rax,%rax
   1307c:	48 01 c8             	add    %rcx,%rax
   1307f:	48 c1 e0 02          	shl    $0x2,%rax
   13083:	48 01 c2             	add    %rax,%rdx
   13086:	48 89 f0             	mov    %rsi,%rax
   13089:	48 c1 e0 05          	shl    $0x5,%rax
   1308d:	48 01 f0             	add    %rsi,%rax
   13090:	48 c1 e0 03          	shl    $0x3,%rax
   13094:	48 01 c2             	add    %rax,%rdx
   13097:	48 8d 05 42 70 00 00 	lea    0x7042(%rip),%rax        # 1a0e0 <g_378>
   1309e:	48 01 d0             	add    %rdx,%rax
   130a1:	0f b6 40 04          	movzbl 0x4(%rax),%eax
   130a5:	01 c0                	add    %eax,%eax
   130a7:	c0 f8 04             	sar    $0x4,%al
   130aa:	48 0f be c0          	movsbq %al,%rax
   130ae:	8b 55 fc             	mov    -0x4(%rbp),%edx
   130b1:	48 8d 35 dc 34 00 00 	lea    0x34dc(%rip),%rsi        # 16594 <g_1623+0x153c>
   130b8:	48 89 c7             	mov    %rax,%rdi
   130bb:	e8 33 46 ff ff       	callq  76f3 <transparent_crc>
   130c0:	8b 45 f8             	mov    -0x8(%rbp),%eax
   130c3:	48 98                	cltq   
   130c5:	8b 55 f4             	mov    -0xc(%rbp),%edx
   130c8:	48 63 ca             	movslq %edx,%rcx
   130cb:	8b 55 f0             	mov    -0x10(%rbp),%edx
   130ce:	48 63 f2             	movslq %edx,%rsi
   130d1:	48 89 c2             	mov    %rax,%rdx
   130d4:	48 c1 e2 02          	shl    $0x2,%rdx
   130d8:	48 01 c2             	add    %rax,%rdx
   130db:	48 01 d2             	add    %rdx,%rdx
   130de:	48 01 c2             	add    %rax,%rdx
   130e1:	48 89 c8             	mov    %rcx,%rax
   130e4:	48 c1 e0 02          	shl    $0x2,%rax
   130e8:	48 01 c8             	add    %rcx,%rax
   130eb:	48 01 c0             	add    %rax,%rax
   130ee:	48 01 c8             	add    %rcx,%rax
   130f1:	48 c1 e0 02          	shl    $0x2,%rax
   130f5:	48 01 c2             	add    %rax,%rdx
   130f8:	48 89 f0             	mov    %rsi,%rax
   130fb:	48 c1 e0 05          	shl    $0x5,%rax
   130ff:	48 01 f0             	add    %rsi,%rax
   13102:	48 c1 e0 03          	shl    $0x3,%rax
   13106:	48 01 c2             	add    %rax,%rdx
   13109:	48 8d 05 d0 6f 00 00 	lea    0x6fd0(%rip),%rax        # 1a0e0 <g_378>
   13110:	48 01 d0             	add    %rdx,%rax
   13113:	8b 40 05             	mov    0x5(%rax),%eax
   13116:	89 c1                	mov    %eax,%ecx
   13118:	8b 45 fc             	mov    -0x4(%rbp),%eax
   1311b:	89 c2                	mov    %eax,%edx
   1311d:	48 8d 35 82 34 00 00 	lea    0x3482(%rip),%rsi        # 165a6 <g_1623+0x154e>
   13124:	48 89 cf             	mov    %rcx,%rdi
   13127:	e8 c7 45 ff ff       	callq  76f3 <transparent_crc>
   1312c:	8b 45 f8             	mov    -0x8(%rbp),%eax
   1312f:	48 98                	cltq   
   13131:	8b 55 f4             	mov    -0xc(%rbp),%edx
   13134:	48 63 ca             	movslq %edx,%rcx
   13137:	8b 55 f0             	mov    -0x10(%rbp),%edx
   1313a:	48 63 f2             	movslq %edx,%rsi
   1313d:	48 89 c2             	mov    %rax,%rdx
   13140:	48 c1 e2 02          	shl    $0x2,%rdx
   13144:	48 01 c2             	add    %rax,%rdx
   13147:	48 01 d2             	add    %rdx,%rdx
   1314a:	48 01 c2             	add    %rax,%rdx
   1314d:	48 89 c8             	mov    %rcx,%rax
   13150:	48 c1 e0 02          	shl    $0x2,%rax
   13154:	48 01 c8             	add    %rcx,%rax
   13157:	48 01 c0             	add    %rax,%rax
   1315a:	48 01 c8             	add    %rcx,%rax
   1315d:	48 c1 e0 02          	shl    $0x2,%rax
   13161:	48 01 c2             	add    %rax,%rdx
   13164:	48 89 f0             	mov    %rsi,%rax
   13167:	48 c1 e0 05          	shl    $0x5,%rax
   1316b:	48 01 f0             	add    %rsi,%rax
   1316e:	48 c1 e0 03          	shl    $0x3,%rax
   13172:	48 01 c2             	add    %rax,%rdx
   13175:	48 8d 05 64 6f 00 00 	lea    0x6f64(%rip),%rax        # 1a0e0 <g_378>
   1317c:	48 01 d0             	add    %rdx,%rax
   1317f:	0f b6 40 09          	movzbl 0x9(%rax),%eax
   13183:	83 e0 01             	and    $0x1,%eax
   13186:	0f b6 c0             	movzbl %al,%eax
   13189:	8b 55 fc             	mov    -0x4(%rbp),%edx
   1318c:	48 8d 35 25 34 00 00 	lea    0x3425(%rip),%rsi        # 165b8 <g_1623+0x1560>
   13193:	48 89 c7             	mov    %rax,%rdi
   13196:	e8 58 45 ff ff       	callq  76f3 <transparent_crc>
   1319b:	8b 45 f8             	mov    -0x8(%rbp),%eax
   1319e:	48 98                	cltq   
   131a0:	8b 55 f4             	mov    -0xc(%rbp),%edx
   131a3:	48 63 ca             	movslq %edx,%rcx
   131a6:	8b 55 f0             	mov    -0x10(%rbp),%edx
   131a9:	48 63 f2             	movslq %edx,%rsi
   131ac:	48 89 c2             	mov    %rax,%rdx
   131af:	48 c1 e2 02          	shl    $0x2,%rdx
   131b3:	48 01 c2             	add    %rax,%rdx
   131b6:	48 01 d2             	add    %rdx,%rdx
   131b9:	48 01 c2             	add    %rax,%rdx
   131bc:	48 89 c8             	mov    %rcx,%rax
   131bf:	48 c1 e0 02          	shl    $0x2,%rax
   131c3:	48 01 c8             	add    %rcx,%rax
   131c6:	48 01 c0             	add    %rax,%rax
   131c9:	48 01 c8             	add    %rcx,%rax
   131cc:	48 c1 e0 02          	shl    $0x2,%rax
   131d0:	48 01 c2             	add    %rax,%rdx
   131d3:	48 89 f0             	mov    %rsi,%rax
   131d6:	48 c1 e0 05          	shl    $0x5,%rax
   131da:	48 01 f0             	add    %rsi,%rax
   131dd:	48 c1 e0 03          	shl    $0x3,%rax
   131e1:	48 01 c2             	add    %rax,%rdx
   131e4:	48 8d 05 f5 6e 00 00 	lea    0x6ef5(%rip),%rax        # 1a0e0 <g_378>
   131eb:	48 01 d0             	add    %rdx,%rax
   131ee:	0f b6 50 09          	movzbl 0x9(%rax),%edx
   131f2:	d0 ea                	shr    %dl
   131f4:	0f b6 d2             	movzbl %dl,%edx
   131f7:	0f b6 40 0a          	movzbl 0xa(%rax),%eax
   131fb:	0f b6 c0             	movzbl %al,%eax
   131fe:	83 e0 03             	and    $0x3,%eax
   13201:	48 c1 e0 07          	shl    $0x7,%rax
   13205:	48 09 d0             	or     %rdx,%rax
   13208:	48 c1 e0 37          	shl    $0x37,%rax
   1320c:	48 c1 f8 37          	sar    $0x37,%rax
   13210:	48 0f bf c0          	movswq %ax,%rax
   13214:	8b 55 fc             	mov    -0x4(%rbp),%edx
   13217:	48 8d 35 ac 33 00 00 	lea    0x33ac(%rip),%rsi        # 165ca <g_1623+0x1572>
   1321e:	48 89 c7             	mov    %rax,%rdi
   13221:	e8 cd 44 ff ff       	callq  76f3 <transparent_crc>
   13226:	83 7d fc 00          	cmpl   $0x0,-0x4(%rbp)
   1322a:	74 1c                	je     13248 <main+0x745>
   1322c:	8b 4d f8             	mov    -0x8(%rbp),%ecx
   1322f:	8b 55 f4             	mov    -0xc(%rbp),%edx
   13232:	8b 45 f0             	mov    -0x10(%rbp),%eax
   13235:	89 c6                	mov    %eax,%esi
   13237:	48 8d 3d ab 32 00 00 	lea    0x32ab(%rip),%rdi        # 164e9 <g_1623+0x1491>
   1323e:	b8 00 00 00 00       	mov    $0x0,%eax
   13243:	e8 38 2e ff ff       	callq  6080 <printf@plt>
   13248:	83 45 f8 01          	addl   $0x1,-0x8(%rbp)
   1324c:	83 7d f8 03          	cmpl   $0x3,-0x8(%rbp)
   13250:	0f 8e d1 fc ff ff    	jle    12f27 <main+0x424>
   13256:	83 45 f4 01          	addl   $0x1,-0xc(%rbp)
   1325a:	83 7d f4 05          	cmpl   $0x5,-0xc(%rbp)
   1325e:	0f 8e b7 fc ff ff    	jle    12f1b <main+0x418>
   13264:	83 45 f0 01          	addl   $0x1,-0x10(%rbp)
   13268:	83 7d f0 06          	cmpl   $0x6,-0x10(%rbp)
   1326c:	0f 8e 9d fc ff ff    	jle    12f0f <main+0x40c>
   13272:	c7 45 f0 00 00 00 00 	movl   $0x0,-0x10(%rbp)
   13279:	e9 cd 02 00 00       	jmpq   1354b <main+0xa48>
   1327e:	c7 45 f4 00 00 00 00 	movl   $0x0,-0xc(%rbp)
   13285:	e9 b3 02 00 00       	jmpq   1353d <main+0xa3a>
   1328a:	8b 45 f4             	mov    -0xc(%rbp),%eax
   1328d:	48 98                	cltq   
   1328f:	8b 55 f0             	mov    -0x10(%rbp),%edx
   13292:	48 63 ca             	movslq %edx,%rcx
   13295:	48 89 c2             	mov    %rax,%rdx
   13298:	48 c1 e2 02          	shl    $0x2,%rdx
   1329c:	48 01 c2             	add    %rax,%rdx
   1329f:	48 01 d2             	add    %rdx,%rdx
   132a2:	48 01 c2             	add    %rax,%rdx
   132a5:	48 89 c8             	mov    %rcx,%rax
   132a8:	48 c1 e0 02          	shl    $0x2,%rax
   132ac:	48 01 c8             	add    %rcx,%rax
   132af:	48 01 c0             	add    %rax,%rax
   132b2:	48 01 c8             	add    %rcx,%rax
   132b5:	48 8d 0c 85 00 00 00 	lea    0x0(,%rax,4),%rcx
   132bc:	00 
   132bd:	48 01 c8             	add    %rcx,%rax
   132c0:	48 01 c2             	add    %rax,%rdx
   132c3:	48 8d 05 56 75 00 00 	lea    0x7556(%rip),%rax        # 1a820 <g_400>
   132ca:	48 01 d0             	add    %rdx,%rax
   132cd:	0f b6 10             	movzbl (%rax),%edx
   132d0:	0f b6 48 01          	movzbl 0x1(%rax),%ecx
   132d4:	48 c1 e1 08          	shl    $0x8,%rcx
   132d8:	48 09 d1             	or     %rdx,%rcx
   132db:	0f b6 50 02          	movzbl 0x2(%rax),%edx
   132df:	48 c1 e2 10          	shl    $0x10,%rdx
   132e3:	48 09 ca             	or     %rcx,%rdx
   132e6:	0f b6 40 03          	movzbl 0x3(%rax),%eax
   132ea:	83 e0 01             	and    $0x1,%eax
   132ed:	48 c1 e0 18          	shl    $0x18,%rax
   132f1:	48 09 d0             	or     %rdx,%rax
   132f4:	89 c1                	mov    %eax,%ecx
   132f6:	8b 45 fc             	mov    -0x4(%rbp),%eax
   132f9:	89 c2                	mov    %eax,%edx
   132fb:	48 8d 35 da 32 00 00 	lea    0x32da(%rip),%rsi        # 165dc <g_1623+0x1584>
   13302:	48 89 cf             	mov    %rcx,%rdi
   13305:	e8 e9 43 ff ff       	callq  76f3 <transparent_crc>
   1330a:	8b 45 f4             	mov    -0xc(%rbp),%eax
   1330d:	48 98                	cltq   
   1330f:	8b 55 f0             	mov    -0x10(%rbp),%edx
   13312:	48 63 ca             	movslq %edx,%rcx
   13315:	48 89 c2             	mov    %rax,%rdx
   13318:	48 c1 e2 02          	shl    $0x2,%rdx
   1331c:	48 01 c2             	add    %rax,%rdx
   1331f:	48 01 d2             	add    %rdx,%rdx
   13322:	48 01 c2             	add    %rax,%rdx
   13325:	48 89 c8             	mov    %rcx,%rax
   13328:	48 c1 e0 02          	shl    $0x2,%rax
   1332c:	48 01 c8             	add    %rcx,%rax
   1332f:	48 01 c0             	add    %rax,%rax
   13332:	48 01 c8             	add    %rcx,%rax
   13335:	48 8d 0c 85 00 00 00 	lea    0x0(,%rax,4),%rcx
   1333c:	00 
   1333d:	48 01 c8             	add    %rcx,%rax
   13340:	48 01 c2             	add    %rax,%rdx
   13343:	48 8d 05 d6 74 00 00 	lea    0x74d6(%rip),%rax        # 1a820 <g_400>
   1334a:	48 01 d0             	add    %rdx,%rax
   1334d:	0f b6 50 03          	movzbl 0x3(%rax),%edx
   13351:	d0 ea                	shr    %dl
   13353:	0f b6 d2             	movzbl %dl,%edx
   13356:	0f b6 40 04          	movzbl 0x4(%rax),%eax
   1335a:	0f b6 c0             	movzbl %al,%eax
   1335d:	83 e0 07             	and    $0x7,%eax
   13360:	48 c1 e0 07          	shl    $0x7,%rax
   13364:	48 09 d0             	or     %rdx,%rax
   13367:	48 c1 e0 36          	shl    $0x36,%rax
   1336b:	48 c1 f8 36          	sar    $0x36,%rax
   1336f:	48 0f bf c0          	movswq %ax,%rax
   13373:	8b 55 fc             	mov    -0x4(%rbp),%edx
   13376:	48 8d 35 6e 32 00 00 	lea    0x326e(%rip),%rsi        # 165eb <g_1623+0x1593>
   1337d:	48 89 c7             	mov    %rax,%rdi
   13380:	e8 6e 43 ff ff       	callq  76f3 <transparent_crc>
   13385:	8b 45 f4             	mov    -0xc(%rbp),%eax
   13388:	48 98                	cltq   
   1338a:	8b 55 f0             	mov    -0x10(%rbp),%edx
   1338d:	48 63 ca             	movslq %edx,%rcx
   13390:	48 89 c2             	mov    %rax,%rdx
   13393:	48 c1 e2 02          	shl    $0x2,%rdx
   13397:	48 01 c2             	add    %rax,%rdx
   1339a:	48 01 d2             	add    %rdx,%rdx
   1339d:	48 01 c2             	add    %rax,%rdx
   133a0:	48 89 c8             	mov    %rcx,%rax
   133a3:	48 c1 e0 02          	shl    $0x2,%rax
   133a7:	48 01 c8             	add    %rcx,%rax
   133aa:	48 01 c0             	add    %rax,%rax
   133ad:	48 01 c8             	add    %rcx,%rax
   133b0:	48 8d 0c 85 00 00 00 	lea    0x0(,%rax,4),%rcx
   133b7:	00 
   133b8:	48 01 c8             	add    %rcx,%rax
   133bb:	48 01 c2             	add    %rax,%rdx
   133be:	48 8d 05 5b 74 00 00 	lea    0x745b(%rip),%rax        # 1a820 <g_400>
   133c5:	48 01 d0             	add    %rdx,%rax
   133c8:	0f b6 40 04          	movzbl 0x4(%rax),%eax
   133cc:	01 c0                	add    %eax,%eax
   133ce:	c0 f8 04             	sar    $0x4,%al
   133d1:	48 0f be c0          	movsbq %al,%rax
   133d5:	8b 55 fc             	mov    -0x4(%rbp),%edx
   133d8:	48 8d 35 1b 32 00 00 	lea    0x321b(%rip),%rsi        # 165fa <g_1623+0x15a2>
   133df:	48 89 c7             	mov    %rax,%rdi
   133e2:	e8 0c 43 ff ff       	callq  76f3 <transparent_crc>
   133e7:	8b 45 f4             	mov    -0xc(%rbp),%eax
   133ea:	48 98                	cltq   
   133ec:	8b 55 f0             	mov    -0x10(%rbp),%edx
   133ef:	48 63 ca             	movslq %edx,%rcx
   133f2:	48 89 c2             	mov    %rax,%rdx
   133f5:	48 c1 e2 02          	shl    $0x2,%rdx
   133f9:	48 01 c2             	add    %rax,%rdx
   133fc:	48 01 d2             	add    %rdx,%rdx
   133ff:	48 01 c2             	add    %rax,%rdx
   13402:	48 89 c8             	mov    %rcx,%rax
   13405:	48 c1 e0 02          	shl    $0x2,%rax
   13409:	48 01 c8             	add    %rcx,%rax
   1340c:	48 01 c0             	add    %rax,%rax
   1340f:	48 01 c8             	add    %rcx,%rax
   13412:	48 8d 0c 85 00 00 00 	lea    0x0(,%rax,4),%rcx
   13419:	00 
   1341a:	48 01 c8             	add    %rcx,%rax
   1341d:	48 01 c2             	add    %rax,%rdx
   13420:	48 8d 05 f9 73 00 00 	lea    0x73f9(%rip),%rax        # 1a820 <g_400>
   13427:	48 01 d0             	add    %rdx,%rax
   1342a:	8b 40 05             	mov    0x5(%rax),%eax
   1342d:	89 c1                	mov    %eax,%ecx
   1342f:	8b 45 fc             	mov    -0x4(%rbp),%eax
   13432:	89 c2                	mov    %eax,%edx
   13434:	48 8d 35 ce 31 00 00 	lea    0x31ce(%rip),%rsi        # 16609 <g_1623+0x15b1>
   1343b:	48 89 cf             	mov    %rcx,%rdi
   1343e:	e8 b0 42 ff ff       	callq  76f3 <transparent_crc>
   13443:	8b 45 f4             	mov    -0xc(%rbp),%eax
   13446:	48 98                	cltq   
   13448:	8b 55 f0             	mov    -0x10(%rbp),%edx
   1344b:	48 63 ca             	movslq %edx,%rcx
   1344e:	48 89 c2             	mov    %rax,%rdx
   13451:	48 c1 e2 02          	shl    $0x2,%rdx
   13455:	48 01 c2             	add    %rax,%rdx
   13458:	48 01 d2             	add    %rdx,%rdx
   1345b:	48 01 c2             	add    %rax,%rdx
   1345e:	48 89 c8             	mov    %rcx,%rax
   13461:	48 c1 e0 02          	shl    $0x2,%rax
   13465:	48 01 c8             	add    %rcx,%rax
   13468:	48 01 c0             	add    %rax,%rax
   1346b:	48 01 c8             	add    %rcx,%rax
   1346e:	48 8d 0c 85 00 00 00 	lea    0x0(,%rax,4),%rcx
   13475:	00 
   13476:	48 01 c8             	add    %rcx,%rax
   13479:	48 01 c2             	add    %rax,%rdx
   1347c:	48 8d 05 9d 73 00 00 	lea    0x739d(%rip),%rax        # 1a820 <g_400>
   13483:	48 01 d0             	add    %rdx,%rax
   13486:	0f b6 40 09          	movzbl 0x9(%rax),%eax
   1348a:	83 e0 01             	and    $0x1,%eax
   1348d:	0f b6 c0             	movzbl %al,%eax
   13490:	8b 55 fc             	mov    -0x4(%rbp),%edx
   13493:	48 8d 35 7e 31 00 00 	lea    0x317e(%rip),%rsi        # 16618 <g_1623+0x15c0>
   1349a:	48 89 c7             	mov    %rax,%rdi
   1349d:	e8 51 42 ff ff       	callq  76f3 <transparent_crc>
   134a2:	8b 45 f4             	mov    -0xc(%rbp),%eax
   134a5:	48 98                	cltq   
   134a7:	8b 55 f0             	mov    -0x10(%rbp),%edx
   134aa:	48 63 ca             	movslq %edx,%rcx
   134ad:	48 89 c2             	mov    %rax,%rdx
   134b0:	48 c1 e2 02          	shl    $0x2,%rdx
   134b4:	48 01 c2             	add    %rax,%rdx
   134b7:	48 01 d2             	add    %rdx,%rdx
   134ba:	48 01 c2             	add    %rax,%rdx
   134bd:	48 89 c8             	mov    %rcx,%rax
   134c0:	48 c1 e0 02          	shl    $0x2,%rax
   134c4:	48 01 c8             	add    %rcx,%rax
   134c7:	48 01 c0             	add    %rax,%rax
   134ca:	48 01 c8             	add    %rcx,%rax
   134cd:	48 8d 0c 85 00 00 00 	lea    0x0(,%rax,4),%rcx
   134d4:	00 
   134d5:	48 01 c8             	add    %rcx,%rax
   134d8:	48 01 c2             	add    %rax,%rdx
   134db:	48 8d 05 3e 73 00 00 	lea    0x733e(%rip),%rax        # 1a820 <g_400>
   134e2:	48 01 d0             	add    %rdx,%rax
   134e5:	0f b6 50 09          	movzbl 0x9(%rax),%edx
   134e9:	d0 ea                	shr    %dl
   134eb:	0f b6 d2             	movzbl %dl,%edx
   134ee:	0f b6 40 0a          	movzbl 0xa(%rax),%eax
   134f2:	83 e0 03             	and    $0x3,%eax
   134f5:	48 c1 e0 07          	shl    $0x7,%rax
   134f9:	48 09 d0             	or     %rdx,%rax
   134fc:	48 c1 e0 37          	shl    $0x37,%rax
   13500:	48 c1 f8 37          	sar    $0x37,%rax
   13504:	48 0f bf c0          	movswq %ax,%rax
   13508:	8b 55 fc             	mov    -0x4(%rbp),%edx
   1350b:	48 8d 35 15 31 00 00 	lea    0x3115(%rip),%rsi        # 16627 <g_1623+0x15cf>
   13512:	48 89 c7             	mov    %rax,%rdi
   13515:	e8 d9 41 ff ff       	callq  76f3 <transparent_crc>
   1351a:	83 7d fc 00          	cmpl   $0x0,-0x4(%rbp)
   1351e:	74 19                	je     13539 <main+0xa36>
   13520:	8b 55 f4             	mov    -0xc(%rbp),%edx
   13523:	8b 45 f0             	mov    -0x10(%rbp),%eax
   13526:	89 c6                	mov    %eax,%esi
   13528:	48 8d 3d 07 31 00 00 	lea    0x3107(%rip),%rdi        # 16636 <g_1623+0x15de>
   1352f:	b8 00 00 00 00       	mov    $0x0,%eax
   13534:	e8 47 2b ff ff       	callq  6080 <printf@plt>
   13539:	83 45 f4 01          	addl   $0x1,-0xc(%rbp)
   1353d:	83 7d f4 04          	cmpl   $0x4,-0xc(%rbp)
   13541:	0f 8e 43 fd ff ff    	jle    1328a <main+0x787>
   13547:	83 45 f0 01          	addl   $0x1,-0x10(%rbp)
   1354b:	83 7d f0 05          	cmpl   $0x5,-0x10(%rbp)
   1354f:	0f 8e 29 fd ff ff    	jle    1327e <main+0x77b>
   13555:	c7 45 f0 00 00 00 00 	movl   $0x0,-0x10(%rbp)
   1355c:	eb 46                	jmp    135a4 <main+0xaa1>
   1355e:	8b 45 f0             	mov    -0x10(%rbp),%eax
   13561:	48 98                	cltq   
   13563:	48 8d 15 00 74 00 00 	lea    0x7400(%rip),%rdx        # 1a96a <g_627>
   1356a:	0f b6 04 10          	movzbl (%rax,%rdx,1),%eax
   1356e:	48 0f be c0          	movsbq %al,%rax
   13572:	8b 55 fc             	mov    -0x4(%rbp),%edx
   13575:	48 8d 35 cc 30 00 00 	lea    0x30cc(%rip),%rsi        # 16648 <g_1623+0x15f0>
   1357c:	48 89 c7             	mov    %rax,%rdi
   1357f:	e8 6f 41 ff ff       	callq  76f3 <transparent_crc>
   13584:	83 7d fc 00          	cmpl   $0x0,-0x4(%rbp)
   13588:	74 16                	je     135a0 <main+0xa9d>
   1358a:	8b 45 f0             	mov    -0x10(%rbp),%eax
   1358d:	89 c6                	mov    %eax,%esi
   1358f:	48 8d 3d ba 2f 00 00 	lea    0x2fba(%rip),%rdi        # 16550 <g_1623+0x14f8>
   13596:	b8 00 00 00 00       	mov    $0x0,%eax
   1359b:	e8 e0 2a ff ff       	callq  6080 <printf@plt>
   135a0:	83 45 f0 01          	addl   $0x1,-0x10(%rbp)
   135a4:	83 7d f0 04          	cmpl   $0x4,-0x10(%rbp)
   135a8:	7e b4                	jle    1355e <main+0xa5b>
   135aa:	8b 05 c0 73 00 00    	mov    0x73c0(%rip),%eax        # 1a970 <g_649>
   135b0:	48 98                	cltq   
   135b2:	8b 55 fc             	mov    -0x4(%rbp),%edx
   135b5:	48 8d 35 95 30 00 00 	lea    0x3095(%rip),%rsi        # 16651 <g_1623+0x15f9>
   135bc:	48 89 c7             	mov    %rax,%rdi
   135bf:	e8 2f 41 ff ff       	callq  76f3 <transparent_crc>
   135c4:	0f b7 05 a9 73 00 00 	movzwl 0x73a9(%rip),%eax        # 1a974 <g_660>
   135cb:	0f b7 c0             	movzwl %ax,%eax
   135ce:	8b 55 fc             	mov    -0x4(%rbp),%edx
   135d1:	48 8d 35 7f 30 00 00 	lea    0x307f(%rip),%rsi        # 16657 <g_1623+0x15ff>
   135d8:	48 89 c7             	mov    %rax,%rdi
   135db:	e8 13 41 ff ff       	callq  76f3 <transparent_crc>
   135e0:	8b 05 92 73 00 00    	mov    0x7392(%rip),%eax        # 1a978 <g_668>
   135e6:	89 c1                	mov    %eax,%ecx
   135e8:	8b 45 fc             	mov    -0x4(%rbp),%eax
   135eb:	89 c2                	mov    %eax,%edx
   135ed:	48 8d 35 69 30 00 00 	lea    0x3069(%rip),%rsi        # 1665d <g_1623+0x1605>
   135f4:	48 89 cf             	mov    %rcx,%rdi
   135f7:	e8 f7 40 ff ff       	callq  76f3 <transparent_crc>
   135fc:	b8 ea 04 a9 67       	mov    $0x67a904ea,%eax
   13601:	89 c1                	mov    %eax,%ecx
   13603:	8b 45 fc             	mov    -0x4(%rbp),%eax
   13606:	89 c2                	mov    %eax,%edx
   13608:	48 8d 35 54 30 00 00 	lea    0x3054(%rip),%rsi        # 16663 <g_1623+0x160b>
   1360f:	48 89 cf             	mov    %rcx,%rdi
   13612:	e8 dc 40 ff ff       	callq  76f3 <transparent_crc>
   13617:	8b 05 5f 73 00 00    	mov    0x735f(%rip),%eax        # 1a97c <g_723>
   1361d:	89 c1                	mov    %eax,%ecx
   1361f:	8b 45 fc             	mov    -0x4(%rbp),%eax
   13622:	89 c2                	mov    %eax,%edx
   13624:	48 8d 35 3e 30 00 00 	lea    0x303e(%rip),%rsi        # 16669 <g_1623+0x1611>
   1362b:	48 89 cf             	mov    %rcx,%rdi
   1362e:	e8 c0 40 ff ff       	callq  76f3 <transparent_crc>
   13633:	48 8b 05 46 73 00 00 	mov    0x7346(%rip),%rax        # 1a980 <g_736>
   1363a:	25 ff ff ff 01       	and    $0x1ffffff,%eax
   1363f:	89 c1                	mov    %eax,%ecx
   13641:	8b 45 fc             	mov    -0x4(%rbp),%eax
   13644:	89 c2                	mov    %eax,%edx
   13646:	48 8d 35 22 30 00 00 	lea    0x3022(%rip),%rsi        # 1666f <g_1623+0x1617>
   1364d:	48 89 cf             	mov    %rcx,%rdi
   13650:	e8 9e 40 ff ff       	callq  76f3 <transparent_crc>
   13655:	48 8b 05 24 73 00 00 	mov    0x7324(%rip),%rax        # 1a980 <g_736>
   1365c:	48 c1 e0 1d          	shl    $0x1d,%rax
   13660:	48 c1 f8 36          	sar    $0x36,%rax
   13664:	48 0f bf c0          	movswq %ax,%rax
   13668:	8b 55 fc             	mov    -0x4(%rbp),%edx
   1366b:	48 8d 35 06 30 00 00 	lea    0x3006(%rip),%rsi        # 16678 <g_1623+0x1620>
   13672:	48 89 c7             	mov    %rax,%rdi
   13675:	e8 79 40 ff ff       	callq  76f3 <transparent_crc>
   1367a:	48 8b 05 ff 72 00 00 	mov    0x72ff(%rip),%rax        # 1a980 <g_736>
   13681:	48 c1 e0 19          	shl    $0x19,%rax
   13685:	48 c1 f8 3c          	sar    $0x3c,%rax
   13689:	48 0f be c0          	movsbq %al,%rax
   1368d:	8b 55 fc             	mov    -0x4(%rbp),%edx
   13690:	48 8d 35 ea 2f 00 00 	lea    0x2fea(%rip),%rsi        # 16681 <g_1623+0x1629>
   13697:	48 89 c7             	mov    %rax,%rdi
   1369a:	e8 54 40 ff ff       	callq  76f3 <transparent_crc>
   1369f:	8b 05 e0 72 00 00    	mov    0x72e0(%rip),%eax        # 1a985 <g_736+0x5>
   136a5:	89 c1                	mov    %eax,%ecx
   136a7:	8b 45 fc             	mov    -0x4(%rbp),%eax
   136aa:	89 c2                	mov    %eax,%edx
   136ac:	48 8d 35 d7 2f 00 00 	lea    0x2fd7(%rip),%rsi        # 1668a <g_1623+0x1632>
   136b3:	48 89 cf             	mov    %rcx,%rdi
   136b6:	e8 38 40 ff ff       	callq  76f3 <transparent_crc>
   136bb:	48 8b 05 c6 72 00 00 	mov    0x72c6(%rip),%rax        # 1a988 <g_736+0x8>
   136c2:	48 c1 e8 08          	shr    $0x8,%rax
   136c6:	83 e0 01             	and    $0x1,%eax
   136c9:	0f b6 c0             	movzbl %al,%eax
   136cc:	8b 55 fc             	mov    -0x4(%rbp),%edx
   136cf:	48 8d 35 bd 2f 00 00 	lea    0x2fbd(%rip),%rsi        # 16693 <g_1623+0x163b>
   136d6:	48 89 c7             	mov    %rax,%rdi
   136d9:	e8 15 40 ff ff       	callq  76f3 <transparent_crc>
   136de:	48 8b 05 a3 72 00 00 	mov    0x72a3(%rip),%rax        # 1a988 <g_736+0x8>
   136e5:	c1 e0 0e             	shl    $0xe,%eax
   136e8:	c1 f8 17             	sar    $0x17,%eax
   136eb:	48 0f bf c0          	movswq %ax,%rax
   136ef:	8b 55 fc             	mov    -0x4(%rbp),%edx
   136f2:	48 8d 35 a3 2f 00 00 	lea    0x2fa3(%rip),%rsi        # 1669c <g_1623+0x1644>
   136f9:	48 89 c7             	mov    %rax,%rdi
   136fc:	e8 f2 3f ff ff       	callq  76f3 <transparent_crc>
   13701:	8b 05 89 72 00 00    	mov    0x7289(%rip),%eax        # 1a990 <g_772>
   13707:	25 ff ff ff 01       	and    $0x1ffffff,%eax
   1370c:	89 c1                	mov    %eax,%ecx
   1370e:	8b 45 fc             	mov    -0x4(%rbp),%eax
   13711:	89 c2                	mov    %eax,%edx
   13713:	48 8d 35 8b 2f 00 00 	lea    0x2f8b(%rip),%rsi        # 166a5 <g_1623+0x164d>
   1371a:	48 89 cf             	mov    %rcx,%rdi
   1371d:	e8 d1 3f ff ff       	callq  76f3 <transparent_crc>
   13722:	48 8b 05 67 72 00 00 	mov    0x7267(%rip),%rax        # 1a990 <g_772>
   13729:	48 c1 e0 1d          	shl    $0x1d,%rax
   1372d:	48 c1 f8 36          	sar    $0x36,%rax
   13731:	48 0f bf c0          	movswq %ax,%rax
   13735:	8b 55 fc             	mov    -0x4(%rbp),%edx
   13738:	48 8d 35 6f 2f 00 00 	lea    0x2f6f(%rip),%rsi        # 166ae <g_1623+0x1656>
   1373f:	48 89 c7             	mov    %rax,%rdi
   13742:	e8 ac 3f ff ff       	callq  76f3 <transparent_crc>
   13747:	0f b6 05 46 72 00 00 	movzbl 0x7246(%rip),%eax        # 1a994 <g_772+0x4>
   1374e:	01 c0                	add    %eax,%eax
   13750:	c0 f8 04             	sar    $0x4,%al
   13753:	48 0f be c0          	movsbq %al,%rax
   13757:	8b 55 fc             	mov    -0x4(%rbp),%edx
   1375a:	48 8d 35 56 2f 00 00 	lea    0x2f56(%rip),%rsi        # 166b7 <g_1623+0x165f>
   13761:	48 89 c7             	mov    %rax,%rdi
   13764:	e8 8a 3f ff ff       	callq  76f3 <transparent_crc>
   13769:	8b 05 26 72 00 00    	mov    0x7226(%rip),%eax        # 1a995 <g_772+0x5>
   1376f:	89 c1                	mov    %eax,%ecx
   13771:	8b 45 fc             	mov    -0x4(%rbp),%eax
   13774:	89 c2                	mov    %eax,%edx
   13776:	48 8d 35 43 2f 00 00 	lea    0x2f43(%rip),%rsi        # 166c0 <g_1623+0x1668>
   1377d:	48 89 cf             	mov    %rcx,%rdi
   13780:	e8 6e 3f ff ff       	callq  76f3 <transparent_crc>
   13785:	0f b6 05 0d 72 00 00 	movzbl 0x720d(%rip),%eax        # 1a999 <g_772+0x9>
   1378c:	83 e0 01             	and    $0x1,%eax
   1378f:	0f b6 c0             	movzbl %al,%eax
   13792:	8b 55 fc             	mov    -0x4(%rbp),%edx
   13795:	48 8d 35 2d 2f 00 00 	lea    0x2f2d(%rip),%rsi        # 166c9 <g_1623+0x1671>
   1379c:	48 89 c7             	mov    %rax,%rdi
   1379f:	e8 4f 3f ff ff       	callq  76f3 <transparent_crc>
   137a4:	8b 05 ee 71 00 00    	mov    0x71ee(%rip),%eax        # 1a998 <g_772+0x8>
   137aa:	c1 e0 0e             	shl    $0xe,%eax
   137ad:	c1 f8 17             	sar    $0x17,%eax
   137b0:	48 0f bf c0          	movswq %ax,%rax
   137b4:	8b 55 fc             	mov    -0x4(%rbp),%edx
   137b7:	48 8d 35 14 2f 00 00 	lea    0x2f14(%rip),%rsi        # 166d2 <g_1623+0x167a>
   137be:	48 89 c7             	mov    %rax,%rdi
   137c1:	e8 2d 3f ff ff       	callq  76f3 <transparent_crc>
   137c6:	48 8b 05 d3 71 00 00 	mov    0x71d3(%rip),%rax        # 1a9a0 <g_796>
   137cd:	8b 55 fc             	mov    -0x4(%rbp),%edx
   137d0:	48 8d 35 04 2f 00 00 	lea    0x2f04(%rip),%rsi        # 166db <g_1623+0x1683>
   137d7:	48 89 c7             	mov    %rax,%rdi
   137da:	e8 14 3f ff ff       	callq  76f3 <transparent_crc>
   137df:	c7 45 f0 00 00 00 00 	movl   $0x0,-0x10(%rbp)
   137e6:	eb 76                	jmp    1385e <main+0xd5b>
   137e8:	c7 45 f4 00 00 00 00 	movl   $0x0,-0xc(%rbp)
   137ef:	eb 63                	jmp    13854 <main+0xd51>
   137f1:	8b 45 f4             	mov    -0xc(%rbp),%eax
   137f4:	48 63 c8             	movslq %eax,%rcx
   137f7:	8b 45 f0             	mov    -0x10(%rbp),%eax
   137fa:	48 63 d0             	movslq %eax,%rdx
   137fd:	48 89 d0             	mov    %rdx,%rax
   13800:	48 01 c0             	add    %rax,%rax
   13803:	48 01 d0             	add    %rdx,%rax
   13806:	48 01 c8             	add    %rcx,%rax
   13809:	48 8d 14 85 00 00 00 	lea    0x0(,%rax,4),%rdx
   13810:	00 
   13811:	48 8d 05 a8 71 00 00 	lea    0x71a8(%rip),%rax        # 1a9c0 <g_877>
   13818:	8b 04 02             	mov    (%rdx,%rax,1),%eax
   1381b:	89 c1                	mov    %eax,%ecx
   1381d:	8b 45 fc             	mov    -0x4(%rbp),%eax
   13820:	89 c2                	mov    %eax,%edx
   13822:	48 8d 35 b8 2e 00 00 	lea    0x2eb8(%rip),%rsi        # 166e1 <g_1623+0x1689>
   13829:	48 89 cf             	mov    %rcx,%rdi
   1382c:	e8 c2 3e ff ff       	callq  76f3 <transparent_crc>
   13831:	83 7d fc 00          	cmpl   $0x0,-0x4(%rbp)
   13835:	74 19                	je     13850 <main+0xd4d>
   13837:	8b 55 f4             	mov    -0xc(%rbp),%edx
   1383a:	8b 45 f0             	mov    -0x10(%rbp),%eax
   1383d:	89 c6                	mov    %eax,%esi
   1383f:	48 8d 3d f0 2d 00 00 	lea    0x2df0(%rip),%rdi        # 16636 <g_1623+0x15de>
   13846:	b8 00 00 00 00       	mov    $0x0,%eax
   1384b:	e8 30 28 ff ff       	callq  6080 <printf@plt>
   13850:	83 45 f4 01          	addl   $0x1,-0xc(%rbp)
   13854:	83 7d f4 02          	cmpl   $0x2,-0xc(%rbp)
   13858:	7e 97                	jle    137f1 <main+0xcee>
   1385a:	83 45 f0 01          	addl   $0x1,-0x10(%rbp)
   1385e:	83 7d f0 02          	cmpl   $0x2,-0x10(%rbp)
   13862:	7e 84                	jle    137e8 <main+0xce5>
   13864:	0f b7 05 79 71 00 00 	movzwl 0x7179(%rip),%eax        # 1a9e4 <g_989>
   1386b:	0f b7 c0             	movzwl %ax,%eax
   1386e:	8b 55 fc             	mov    -0x4(%rbp),%edx
   13871:	48 8d 35 75 2e 00 00 	lea    0x2e75(%rip),%rsi        # 166ed <g_1623+0x1695>
   13878:	48 89 c7             	mov    %rax,%rdi
   1387b:	e8 73 3e ff ff       	callq  76f3 <transparent_crc>
   13880:	0f b7 05 5f 71 00 00 	movzwl 0x715f(%rip),%eax        # 1a9e6 <g_1220>
   13887:	48 0f bf c0          	movswq %ax,%rax
   1388b:	8b 55 fc             	mov    -0x4(%rbp),%edx
   1388e:	48 8d 35 5e 2e 00 00 	lea    0x2e5e(%rip),%rsi        # 166f3 <g_1623+0x169b>
   13895:	48 89 c7             	mov    %rax,%rdi
   13898:	e8 56 3e ff ff       	callq  76f3 <transparent_crc>
   1389d:	48 8b 05 44 71 00 00 	mov    0x7144(%rip),%rax        # 1a9e8 <g_1243>
   138a4:	8b 55 fc             	mov    -0x4(%rbp),%edx
   138a7:	48 8d 35 4c 2e 00 00 	lea    0x2e4c(%rip),%rsi        # 166fa <g_1623+0x16a2>
   138ae:	48 89 c7             	mov    %rax,%rdi
   138b1:	e8 3d 3e ff ff       	callq  76f3 <transparent_crc>
   138b6:	c7 45 f0 00 00 00 00 	movl   $0x0,-0x10(%rbp)
   138bd:	e9 d7 01 00 00       	jmpq   13a99 <main+0xf96>
   138c2:	8b 45 f0             	mov    -0x10(%rbp),%eax
   138c5:	48 63 d0             	movslq %eax,%rdx
   138c8:	48 89 d0             	mov    %rdx,%rax
   138cb:	48 c1 e0 02          	shl    $0x2,%rax
   138cf:	48 01 d0             	add    %rdx,%rax
   138d2:	48 01 c0             	add    %rax,%rax
   138d5:	48 01 c2             	add    %rax,%rdx
   138d8:	48 8d 05 21 71 00 00 	lea    0x7121(%rip),%rax        # 1aa00 <g_1292>
   138df:	0f b6 0c 02          	movzbl (%rdx,%rax,1),%ecx
   138e3:	0f b6 74 02 01       	movzbl 0x1(%rdx,%rax,1),%esi
   138e8:	48 c1 e6 08          	shl    $0x8,%rsi
   138ec:	48 09 ce             	or     %rcx,%rsi
   138ef:	0f b6 4c 02 02       	movzbl 0x2(%rdx,%rax,1),%ecx
   138f4:	48 c1 e1 10          	shl    $0x10,%rcx
   138f8:	48 09 f1             	or     %rsi,%rcx
   138fb:	0f b6 44 02 03       	movzbl 0x3(%rdx,%rax,1),%eax
   13900:	83 e0 01             	and    $0x1,%eax
   13903:	48 c1 e0 18          	shl    $0x18,%rax
   13907:	48 09 c8             	or     %rcx,%rax
   1390a:	89 c1                	mov    %eax,%ecx
   1390c:	8b 45 fc             	mov    -0x4(%rbp),%eax
   1390f:	89 c2                	mov    %eax,%edx
   13911:	48 8d 35 e9 2d 00 00 	lea    0x2de9(%rip),%rsi        # 16701 <g_1623+0x16a9>
   13918:	48 89 cf             	mov    %rcx,%rdi
   1391b:	e8 d3 3d ff ff       	callq  76f3 <transparent_crc>
   13920:	8b 45 f0             	mov    -0x10(%rbp),%eax
   13923:	48 63 d0             	movslq %eax,%rdx
   13926:	48 89 d0             	mov    %rdx,%rax
   13929:	48 c1 e0 02          	shl    $0x2,%rax
   1392d:	48 01 d0             	add    %rdx,%rax
   13930:	48 01 c0             	add    %rax,%rax
   13933:	48 01 c2             	add    %rax,%rdx
   13936:	48 8d 05 c3 70 00 00 	lea    0x70c3(%rip),%rax        # 1aa00 <g_1292>
   1393d:	0f b6 4c 02 03       	movzbl 0x3(%rdx,%rax,1),%ecx
   13942:	d0 e9                	shr    %cl
   13944:	0f b6 c9             	movzbl %cl,%ecx
   13947:	0f b6 44 02 04       	movzbl 0x4(%rdx,%rax,1),%eax
   1394c:	0f b6 c0             	movzbl %al,%eax
   1394f:	83 e0 07             	and    $0x7,%eax
   13952:	48 c1 e0 07          	shl    $0x7,%rax
   13956:	48 09 c8             	or     %rcx,%rax
   13959:	48 c1 e0 36          	shl    $0x36,%rax
   1395d:	48 c1 f8 36          	sar    $0x36,%rax
   13961:	48 0f bf c0          	movswq %ax,%rax
   13965:	8b 55 fc             	mov    -0x4(%rbp),%edx
   13968:	48 8d 35 9f 2d 00 00 	lea    0x2d9f(%rip),%rsi        # 1670e <g_1623+0x16b6>
   1396f:	48 89 c7             	mov    %rax,%rdi
   13972:	e8 7c 3d ff ff       	callq  76f3 <transparent_crc>
   13977:	8b 45 f0             	mov    -0x10(%rbp),%eax
   1397a:	48 63 d0             	movslq %eax,%rdx
   1397d:	48 89 d0             	mov    %rdx,%rax
   13980:	48 c1 e0 02          	shl    $0x2,%rax
   13984:	48 01 d0             	add    %rdx,%rax
   13987:	48 01 c0             	add    %rax,%rax
   1398a:	48 01 c2             	add    %rax,%rdx
   1398d:	48 8d 05 6c 70 00 00 	lea    0x706c(%rip),%rax        # 1aa00 <g_1292>
   13994:	0f b6 44 02 04       	movzbl 0x4(%rdx,%rax,1),%eax
   13999:	01 c0                	add    %eax,%eax
   1399b:	c0 f8 04             	sar    $0x4,%al
   1399e:	48 0f be c0          	movsbq %al,%rax
   139a2:	8b 55 fc             	mov    -0x4(%rbp),%edx
   139a5:	48 8d 35 6f 2d 00 00 	lea    0x2d6f(%rip),%rsi        # 1671b <g_1623+0x16c3>
   139ac:	48 89 c7             	mov    %rax,%rdi
   139af:	e8 3f 3d ff ff       	callq  76f3 <transparent_crc>
   139b4:	8b 45 f0             	mov    -0x10(%rbp),%eax
   139b7:	48 63 d0             	movslq %eax,%rdx
   139ba:	48 89 d0             	mov    %rdx,%rax
   139bd:	48 c1 e0 02          	shl    $0x2,%rax
   139c1:	48 01 d0             	add    %rdx,%rax
   139c4:	48 01 c0             	add    %rax,%rax
   139c7:	48 01 c2             	add    %rax,%rdx
   139ca:	48 8d 05 2f 70 00 00 	lea    0x702f(%rip),%rax        # 1aa00 <g_1292>
   139d1:	8b 44 02 05          	mov    0x5(%rdx,%rax,1),%eax
   139d5:	89 c1                	mov    %eax,%ecx
   139d7:	8b 45 fc             	mov    -0x4(%rbp),%eax
   139da:	89 c2                	mov    %eax,%edx
   139dc:	48 8d 35 45 2d 00 00 	lea    0x2d45(%rip),%rsi        # 16728 <g_1623+0x16d0>
   139e3:	48 89 cf             	mov    %rcx,%rdi
   139e6:	e8 08 3d ff ff       	callq  76f3 <transparent_crc>
   139eb:	8b 45 f0             	mov    -0x10(%rbp),%eax
   139ee:	48 63 d0             	movslq %eax,%rdx
   139f1:	48 89 d0             	mov    %rdx,%rax
   139f4:	48 c1 e0 02          	shl    $0x2,%rax
   139f8:	48 01 d0             	add    %rdx,%rax
   139fb:	48 01 c0             	add    %rax,%rax
   139fe:	48 01 c2             	add    %rax,%rdx
   13a01:	48 8d 05 f8 6f 00 00 	lea    0x6ff8(%rip),%rax        # 1aa00 <g_1292>
   13a08:	0f b6 44 02 09       	movzbl 0x9(%rdx,%rax,1),%eax
   13a0d:	83 e0 01             	and    $0x1,%eax
   13a10:	0f b6 c0             	movzbl %al,%eax
   13a13:	8b 55 fc             	mov    -0x4(%rbp),%edx
   13a16:	48 8d 35 18 2d 00 00 	lea    0x2d18(%rip),%rsi        # 16735 <g_1623+0x16dd>
   13a1d:	48 89 c7             	mov    %rax,%rdi
   13a20:	e8 ce 3c ff ff       	callq  76f3 <transparent_crc>
   13a25:	8b 45 f0             	mov    -0x10(%rbp),%eax
   13a28:	48 63 d0             	movslq %eax,%rdx
   13a2b:	48 89 d0             	mov    %rdx,%rax
   13a2e:	48 c1 e0 02          	shl    $0x2,%rax
   13a32:	48 01 d0             	add    %rdx,%rax
   13a35:	48 01 c0             	add    %rax,%rax
   13a38:	48 01 c2             	add    %rax,%rdx
   13a3b:	48 8d 05 be 6f 00 00 	lea    0x6fbe(%rip),%rax        # 1aa00 <g_1292>
   13a42:	0f b6 4c 02 09       	movzbl 0x9(%rdx,%rax,1),%ecx
   13a47:	d0 e9                	shr    %cl
   13a49:	0f b6 c9             	movzbl %cl,%ecx
   13a4c:	0f b6 44 02 0a       	movzbl 0xa(%rdx,%rax,1),%eax
   13a51:	83 e0 03             	and    $0x3,%eax
   13a54:	48 c1 e0 07          	shl    $0x7,%rax
   13a58:	48 09 c8             	or     %rcx,%rax
   13a5b:	48 c1 e0 37          	shl    $0x37,%rax
   13a5f:	48 c1 f8 37          	sar    $0x37,%rax
   13a63:	48 0f bf c0          	movswq %ax,%rax
   13a67:	8b 55 fc             	mov    -0x4(%rbp),%edx
   13a6a:	48 8d 35 d1 2c 00 00 	lea    0x2cd1(%rip),%rsi        # 16742 <g_1623+0x16ea>
   13a71:	48 89 c7             	mov    %rax,%rdi
   13a74:	e8 7a 3c ff ff       	callq  76f3 <transparent_crc>
   13a79:	83 7d fc 00          	cmpl   $0x0,-0x4(%rbp)
   13a7d:	74 16                	je     13a95 <main+0xf92>
   13a7f:	8b 45 f0             	mov    -0x10(%rbp),%eax
   13a82:	89 c6                	mov    %eax,%esi
   13a84:	48 8d 3d c5 2a 00 00 	lea    0x2ac5(%rip),%rdi        # 16550 <g_1623+0x14f8>
   13a8b:	b8 00 00 00 00       	mov    $0x0,%eax
   13a90:	e8 eb 25 ff ff       	callq  6080 <printf@plt>
   13a95:	83 45 f0 01          	addl   $0x1,-0x10(%rbp)
   13a99:	83 7d f0 07          	cmpl   $0x7,-0x10(%rbp)
   13a9d:	0f 8e 1f fe ff ff    	jle    138c2 <main+0xdbf>
   13aa3:	48 8b 05 ae 6f 00 00 	mov    0x6fae(%rip),%rax        # 1aa58 <g_1299>
   13aaa:	25 ff ff ff 01       	and    $0x1ffffff,%eax
   13aaf:	89 c1                	mov    %eax,%ecx
   13ab1:	8b 45 fc             	mov    -0x4(%rbp),%eax
   13ab4:	89 c2                	mov    %eax,%edx
   13ab6:	48 8d 35 92 2c 00 00 	lea    0x2c92(%rip),%rsi        # 1674f <g_1623+0x16f7>
   13abd:	48 89 cf             	mov    %rcx,%rdi
   13ac0:	e8 2e 3c ff ff       	callq  76f3 <transparent_crc>
   13ac5:	48 8b 05 8c 6f 00 00 	mov    0x6f8c(%rip),%rax        # 1aa58 <g_1299>
   13acc:	48 c1 e0 1d          	shl    $0x1d,%rax
   13ad0:	48 c1 f8 36          	sar    $0x36,%rax
   13ad4:	48 0f bf c0          	movswq %ax,%rax
   13ad8:	8b 55 fc             	mov    -0x4(%rbp),%edx
   13adb:	48 8d 35 77 2c 00 00 	lea    0x2c77(%rip),%rsi        # 16759 <g_1623+0x1701>
   13ae2:	48 89 c7             	mov    %rax,%rdi
   13ae5:	e8 09 3c ff ff       	callq  76f3 <transparent_crc>
   13aea:	48 8b 05 67 6f 00 00 	mov    0x6f67(%rip),%rax        # 1aa58 <g_1299>
   13af1:	48 c1 e0 19          	shl    $0x19,%rax
   13af5:	48 c1 f8 3c          	sar    $0x3c,%rax
   13af9:	48 0f be c0          	movsbq %al,%rax
   13afd:	8b 55 fc             	mov    -0x4(%rbp),%edx
   13b00:	48 8d 35 5c 2c 00 00 	lea    0x2c5c(%rip),%rsi        # 16763 <g_1623+0x170b>
   13b07:	48 89 c7             	mov    %rax,%rdi
   13b0a:	e8 e4 3b ff ff       	callq  76f3 <transparent_crc>
   13b0f:	8b 05 48 6f 00 00    	mov    0x6f48(%rip),%eax        # 1aa5d <g_1299+0x5>
   13b15:	89 c1                	mov    %eax,%ecx
   13b17:	8b 45 fc             	mov    -0x4(%rbp),%eax
   13b1a:	89 c2                	mov    %eax,%edx
   13b1c:	48 8d 35 4a 2c 00 00 	lea    0x2c4a(%rip),%rsi        # 1676d <g_1623+0x1715>
   13b23:	48 89 cf             	mov    %rcx,%rdi
   13b26:	e8 c8 3b ff ff       	callq  76f3 <transparent_crc>
   13b2b:	48 8b 05 2e 6f 00 00 	mov    0x6f2e(%rip),%rax        # 1aa60 <g_1299+0x8>
   13b32:	48 c1 e8 08          	shr    $0x8,%rax
   13b36:	83 e0 01             	and    $0x1,%eax
   13b39:	0f b6 c0             	movzbl %al,%eax
   13b3c:	8b 55 fc             	mov    -0x4(%rbp),%edx
   13b3f:	48 8d 35 31 2c 00 00 	lea    0x2c31(%rip),%rsi        # 16777 <g_1623+0x171f>
   13b46:	48 89 c7             	mov    %rax,%rdi
   13b49:	e8 a5 3b ff ff       	callq  76f3 <transparent_crc>
   13b4e:	48 8b 05 0b 6f 00 00 	mov    0x6f0b(%rip),%rax        # 1aa60 <g_1299+0x8>
   13b55:	c1 e0 0e             	shl    $0xe,%eax
   13b58:	c1 f8 17             	sar    $0x17,%eax
   13b5b:	48 0f bf c0          	movswq %ax,%rax
   13b5f:	8b 55 fc             	mov    -0x4(%rbp),%edx
   13b62:	48 8d 35 18 2c 00 00 	lea    0x2c18(%rip),%rsi        # 16781 <g_1623+0x1729>
   13b69:	48 89 c7             	mov    %rax,%rdi
   13b6c:	e8 82 3b ff ff       	callq  76f3 <transparent_crc>
   13b71:	c7 45 f0 00 00 00 00 	movl   $0x0,-0x10(%rbp)
   13b78:	eb 69                	jmp    13be3 <main+0x10e0>
   13b7a:	c7 45 f4 00 00 00 00 	movl   $0x0,-0xc(%rbp)
   13b81:	eb 56                	jmp    13bd9 <main+0x10d6>
   13b83:	8b 45 f4             	mov    -0xc(%rbp),%eax
   13b86:	48 63 d0             	movslq %eax,%rdx
   13b89:	8b 45 f0             	mov    -0x10(%rbp),%eax
   13b8c:	48 98                	cltq   
   13b8e:	48 01 d0             	add    %rdx,%rax
   13b91:	48 8d 14 00          	lea    (%rax,%rax,1),%rdx
   13b95:	48 8d 05 cc 6e 00 00 	lea    0x6ecc(%rip),%rax        # 1aa68 <g_1452>
   13b9c:	0f b7 04 02          	movzwl (%rdx,%rax,1),%eax
   13ba0:	48 0f bf c0          	movswq %ax,%rax
   13ba4:	8b 55 fc             	mov    -0x4(%rbp),%edx
   13ba7:	48 8d 35 dd 2b 00 00 	lea    0x2bdd(%rip),%rsi        # 1678b <g_1623+0x1733>
   13bae:	48 89 c7             	mov    %rax,%rdi
   13bb1:	e8 3d 3b ff ff       	callq  76f3 <transparent_crc>
   13bb6:	83 7d fc 00          	cmpl   $0x0,-0x4(%rbp)
   13bba:	74 19                	je     13bd5 <main+0x10d2>
   13bbc:	8b 55 f4             	mov    -0xc(%rbp),%edx
   13bbf:	8b 45 f0             	mov    -0x10(%rbp),%eax
   13bc2:	89 c6                	mov    %eax,%esi
   13bc4:	48 8d 3d 6b 2a 00 00 	lea    0x2a6b(%rip),%rdi        # 16636 <g_1623+0x15de>
   13bcb:	b8 00 00 00 00       	mov    $0x0,%eax
   13bd0:	e8 ab 24 ff ff       	callq  6080 <printf@plt>
   13bd5:	83 45 f4 01          	addl   $0x1,-0xc(%rbp)
   13bd9:	83 7d f4 00          	cmpl   $0x0,-0xc(%rbp)
   13bdd:	7e a4                	jle    13b83 <main+0x1080>
   13bdf:	83 45 f0 01          	addl   $0x1,-0x10(%rbp)
   13be3:	83 7d f0 05          	cmpl   $0x5,-0x10(%rbp)
   13be7:	7e 91                	jle    13b7a <main+0x1077>
   13be9:	48 8b 05 88 6e 00 00 	mov    0x6e88(%rip),%rax        # 1aa78 <g_1477>
   13bf0:	25 ff ff ff 01       	and    $0x1ffffff,%eax
   13bf5:	89 c1                	mov    %eax,%ecx
   13bf7:	8b 45 fc             	mov    -0x4(%rbp),%eax
   13bfa:	89 c2                	mov    %eax,%edx
   13bfc:	48 8d 35 95 2b 00 00 	lea    0x2b95(%rip),%rsi        # 16798 <g_1623+0x1740>
   13c03:	48 89 cf             	mov    %rcx,%rdi
   13c06:	e8 e8 3a ff ff       	callq  76f3 <transparent_crc>
   13c0b:	48 8b 05 66 6e 00 00 	mov    0x6e66(%rip),%rax        # 1aa78 <g_1477>
   13c12:	48 c1 e0 1d          	shl    $0x1d,%rax
   13c16:	48 c1 f8 36          	sar    $0x36,%rax
   13c1a:	48 0f bf c0          	movswq %ax,%rax
   13c1e:	8b 55 fc             	mov    -0x4(%rbp),%edx
   13c21:	48 8d 35 7a 2b 00 00 	lea    0x2b7a(%rip),%rsi        # 167a2 <g_1623+0x174a>
   13c28:	48 89 c7             	mov    %rax,%rdi
   13c2b:	e8 c3 3a ff ff       	callq  76f3 <transparent_crc>
   13c30:	48 8b 05 41 6e 00 00 	mov    0x6e41(%rip),%rax        # 1aa78 <g_1477>
   13c37:	48 c1 e0 19          	shl    $0x19,%rax
   13c3b:	48 c1 f8 3c          	sar    $0x3c,%rax
   13c3f:	48 0f be c0          	movsbq %al,%rax
   13c43:	8b 55 fc             	mov    -0x4(%rbp),%edx
   13c46:	48 8d 35 5f 2b 00 00 	lea    0x2b5f(%rip),%rsi        # 167ac <g_1623+0x1754>
   13c4d:	48 89 c7             	mov    %rax,%rdi
   13c50:	e8 9e 3a ff ff       	callq  76f3 <transparent_crc>
   13c55:	8b 05 22 6e 00 00    	mov    0x6e22(%rip),%eax        # 1aa7d <g_1477+0x5>
   13c5b:	89 c1                	mov    %eax,%ecx
   13c5d:	8b 45 fc             	mov    -0x4(%rbp),%eax
   13c60:	89 c2                	mov    %eax,%edx
   13c62:	48 8d 35 4d 2b 00 00 	lea    0x2b4d(%rip),%rsi        # 167b6 <g_1623+0x175e>
   13c69:	48 89 cf             	mov    %rcx,%rdi
   13c6c:	e8 82 3a ff ff       	callq  76f3 <transparent_crc>
   13c71:	48 8b 05 08 6e 00 00 	mov    0x6e08(%rip),%rax        # 1aa80 <g_1477+0x8>
   13c78:	48 c1 e8 08          	shr    $0x8,%rax
   13c7c:	83 e0 01             	and    $0x1,%eax
   13c7f:	0f b6 c0             	movzbl %al,%eax
   13c82:	8b 55 fc             	mov    -0x4(%rbp),%edx
   13c85:	48 8d 35 34 2b 00 00 	lea    0x2b34(%rip),%rsi        # 167c0 <g_1623+0x1768>
   13c8c:	48 89 c7             	mov    %rax,%rdi
   13c8f:	e8 5f 3a ff ff       	callq  76f3 <transparent_crc>
   13c94:	48 8b 05 e5 6d 00 00 	mov    0x6de5(%rip),%rax        # 1aa80 <g_1477+0x8>
   13c9b:	c1 e0 0e             	shl    $0xe,%eax
   13c9e:	c1 f8 17             	sar    $0x17,%eax
   13ca1:	48 0f bf c0          	movswq %ax,%rax
   13ca5:	8b 55 fc             	mov    -0x4(%rbp),%edx
   13ca8:	48 8d 35 1b 2b 00 00 	lea    0x2b1b(%rip),%rsi        # 167ca <g_1623+0x1772>
   13caf:	48 89 c7             	mov    %rax,%rdi
   13cb2:	e8 3c 3a ff ff       	callq  76f3 <transparent_crc>
   13cb7:	0f b7 05 c6 6d 00 00 	movzwl 0x6dc6(%rip),%eax        # 1aa84 <g_1529>
   13cbe:	0f b7 c0             	movzwl %ax,%eax
   13cc1:	8b 55 fc             	mov    -0x4(%rbp),%edx
   13cc4:	48 8d 35 09 2b 00 00 	lea    0x2b09(%rip),%rsi        # 167d4 <g_1623+0x177c>
   13ccb:	48 89 c7             	mov    %rax,%rdi
   13cce:	e8 20 3a ff ff       	callq  76f3 <transparent_crc>
   13cd3:	c7 45 f0 00 00 00 00 	movl   $0x0,-0x10(%rbp)
   13cda:	e9 b5 02 00 00       	jmpq   13f94 <main+0x1491>
   13cdf:	c7 45 f4 00 00 00 00 	movl   $0x0,-0xc(%rbp)
   13ce6:	e9 9b 02 00 00       	jmpq   13f86 <main+0x1483>
   13ceb:	8b 45 f4             	mov    -0xc(%rbp),%eax
   13cee:	48 98                	cltq   
   13cf0:	8b 55 f0             	mov    -0x10(%rbp),%edx
   13cf3:	48 63 ca             	movslq %edx,%rcx
   13cf6:	48 89 c2             	mov    %rax,%rdx
   13cf9:	48 c1 e2 02          	shl    $0x2,%rdx
   13cfd:	48 01 c2             	add    %rax,%rdx
   13d00:	48 01 d2             	add    %rdx,%rdx
   13d03:	48 01 c2             	add    %rax,%rdx
   13d06:	48 89 c8             	mov    %rcx,%rax
   13d09:	48 c1 e0 03          	shl    $0x3,%rax
   13d0d:	48 01 c8             	add    %rcx,%rax
   13d10:	48 01 c0             	add    %rax,%rax
   13d13:	48 01 c8             	add    %rcx,%rax
   13d16:	48 c1 e0 02          	shl    $0x2,%rax
   13d1a:	48 01 c8             	add    %rcx,%rax
   13d1d:	48 01 c2             	add    %rax,%rdx
   13d20:	48 8d 05 79 6d 00 00 	lea    0x6d79(%rip),%rax        # 1aaa0 <g_1559>
   13d27:	48 01 d0             	add    %rdx,%rax
   13d2a:	0f b6 10             	movzbl (%rax),%edx
   13d2d:	0f b6 48 01          	movzbl 0x1(%rax),%ecx
   13d31:	48 c1 e1 08          	shl    $0x8,%rcx
   13d35:	48 09 d1             	or     %rdx,%rcx
   13d38:	0f b6 50 02          	movzbl 0x2(%rax),%edx
   13d3c:	48 c1 e2 10          	shl    $0x10,%rdx
   13d40:	48 09 ca             	or     %rcx,%rdx
   13d43:	0f b6 40 03          	movzbl 0x3(%rax),%eax
   13d47:	83 e0 01             	and    $0x1,%eax
   13d4a:	48 c1 e0 18          	shl    $0x18,%rax
   13d4e:	48 09 d0             	or     %rdx,%rax
   13d51:	89 c1                	mov    %eax,%ecx
   13d53:	8b 45 fc             	mov    -0x4(%rbp),%eax
   13d56:	89 c2                	mov    %eax,%edx
   13d58:	48 8d 35 7c 2a 00 00 	lea    0x2a7c(%rip),%rsi        # 167db <g_1623+0x1783>
   13d5f:	48 89 cf             	mov    %rcx,%rdi
   13d62:	e8 8c 39 ff ff       	callq  76f3 <transparent_crc>
   13d67:	8b 45 f4             	mov    -0xc(%rbp),%eax
   13d6a:	48 98                	cltq   
   13d6c:	8b 55 f0             	mov    -0x10(%rbp),%edx
   13d6f:	48 63 ca             	movslq %edx,%rcx
   13d72:	48 89 c2             	mov    %rax,%rdx
   13d75:	48 c1 e2 02          	shl    $0x2,%rdx
   13d79:	48 01 c2             	add    %rax,%rdx
   13d7c:	48 01 d2             	add    %rdx,%rdx
   13d7f:	48 01 c2             	add    %rax,%rdx
   13d82:	48 89 c8             	mov    %rcx,%rax
   13d85:	48 c1 e0 03          	shl    $0x3,%rax
   13d89:	48 01 c8             	add    %rcx,%rax
   13d8c:	48 01 c0             	add    %rax,%rax
   13d8f:	48 01 c8             	add    %rcx,%rax
   13d92:	48 c1 e0 02          	shl    $0x2,%rax
   13d96:	48 01 c8             	add    %rcx,%rax
   13d99:	48 01 c2             	add    %rax,%rdx
   13d9c:	48 8d 05 fd 6c 00 00 	lea    0x6cfd(%rip),%rax        # 1aaa0 <g_1559>
   13da3:	48 01 d0             	add    %rdx,%rax
   13da6:	0f b6 50 03          	movzbl 0x3(%rax),%edx
   13daa:	d0 ea                	shr    %dl
   13dac:	0f b6 d2             	movzbl %dl,%edx
   13daf:	0f b6 40 04          	movzbl 0x4(%rax),%eax
   13db3:	0f b6 c0             	movzbl %al,%eax
   13db6:	83 e0 07             	and    $0x7,%eax
   13db9:	48 c1 e0 07          	shl    $0x7,%rax
   13dbd:	48 09 d0             	or     %rdx,%rax
   13dc0:	48 c1 e0 36          	shl    $0x36,%rax
   13dc4:	48 c1 f8 36          	sar    $0x36,%rax
   13dc8:	48 0f bf c0          	movswq %ax,%rax
   13dcc:	8b 55 fc             	mov    -0x4(%rbp),%edx
   13dcf:	48 8d 35 15 2a 00 00 	lea    0x2a15(%rip),%rsi        # 167eb <g_1623+0x1793>
   13dd6:	48 89 c7             	mov    %rax,%rdi
   13dd9:	e8 15 39 ff ff       	callq  76f3 <transparent_crc>
   13dde:	8b 45 f4             	mov    -0xc(%rbp),%eax
   13de1:	48 98                	cltq   
   13de3:	8b 55 f0             	mov    -0x10(%rbp),%edx
   13de6:	48 63 ca             	movslq %edx,%rcx
   13de9:	48 89 c2             	mov    %rax,%rdx
   13dec:	48 c1 e2 02          	shl    $0x2,%rdx
   13df0:	48 01 c2             	add    %rax,%rdx
   13df3:	48 01 d2             	add    %rdx,%rdx
   13df6:	48 01 c2             	add    %rax,%rdx
   13df9:	48 89 c8             	mov    %rcx,%rax
   13dfc:	48 c1 e0 03          	shl    $0x3,%rax
   13e00:	48 01 c8             	add    %rcx,%rax
   13e03:	48 01 c0             	add    %rax,%rax
   13e06:	48 01 c8             	add    %rcx,%rax
   13e09:	48 c1 e0 02          	shl    $0x2,%rax
   13e0d:	48 01 c8             	add    %rcx,%rax
   13e10:	48 01 c2             	add    %rax,%rdx
   13e13:	48 8d 05 86 6c 00 00 	lea    0x6c86(%rip),%rax        # 1aaa0 <g_1559>
   13e1a:	48 01 d0             	add    %rdx,%rax
   13e1d:	0f b6 40 04          	movzbl 0x4(%rax),%eax
   13e21:	01 c0                	add    %eax,%eax
   13e23:	c0 f8 04             	sar    $0x4,%al
   13e26:	48 0f be c0          	movsbq %al,%rax
   13e2a:	8b 55 fc             	mov    -0x4(%rbp),%edx
   13e2d:	48 8d 35 c7 29 00 00 	lea    0x29c7(%rip),%rsi        # 167fb <g_1623+0x17a3>
   13e34:	48 89 c7             	mov    %rax,%rdi
   13e37:	e8 b7 38 ff ff       	callq  76f3 <transparent_crc>
   13e3c:	8b 45 f4             	mov    -0xc(%rbp),%eax
   13e3f:	48 98                	cltq   
   13e41:	8b 55 f0             	mov    -0x10(%rbp),%edx
   13e44:	48 63 ca             	movslq %edx,%rcx
   13e47:	48 89 c2             	mov    %rax,%rdx
   13e4a:	48 c1 e2 02          	shl    $0x2,%rdx
   13e4e:	48 01 c2             	add    %rax,%rdx
   13e51:	48 01 d2             	add    %rdx,%rdx
   13e54:	48 01 c2             	add    %rax,%rdx
   13e57:	48 89 c8             	mov    %rcx,%rax
   13e5a:	48 c1 e0 03          	shl    $0x3,%rax
   13e5e:	48 01 c8             	add    %rcx,%rax
   13e61:	48 01 c0             	add    %rax,%rax
   13e64:	48 01 c8             	add    %rcx,%rax
   13e67:	48 c1 e0 02          	shl    $0x2,%rax
   13e6b:	48 01 c8             	add    %rcx,%rax
   13e6e:	48 01 c2             	add    %rax,%rdx
   13e71:	48 8d 05 28 6c 00 00 	lea    0x6c28(%rip),%rax        # 1aaa0 <g_1559>
   13e78:	48 01 d0             	add    %rdx,%rax
   13e7b:	8b 40 05             	mov    0x5(%rax),%eax
   13e7e:	89 c1                	mov    %eax,%ecx
   13e80:	8b 45 fc             	mov    -0x4(%rbp),%eax
   13e83:	89 c2                	mov    %eax,%edx
   13e85:	48 8d 35 7f 29 00 00 	lea    0x297f(%rip),%rsi        # 1680b <g_1623+0x17b3>
   13e8c:	48 89 cf             	mov    %rcx,%rdi
   13e8f:	e8 5f 38 ff ff       	callq  76f3 <transparent_crc>
   13e94:	8b 45 f4             	mov    -0xc(%rbp),%eax
   13e97:	48 98                	cltq   
   13e99:	8b 55 f0             	mov    -0x10(%rbp),%edx
   13e9c:	48 63 ca             	movslq %edx,%rcx
   13e9f:	48 89 c2             	mov    %rax,%rdx
   13ea2:	48 c1 e2 02          	shl    $0x2,%rdx
   13ea6:	48 01 c2             	add    %rax,%rdx
   13ea9:	48 01 d2             	add    %rdx,%rdx
   13eac:	48 01 c2             	add    %rax,%rdx
   13eaf:	48 89 c8             	mov    %rcx,%rax
   13eb2:	48 c1 e0 03          	shl    $0x3,%rax
   13eb6:	48 01 c8             	add    %rcx,%rax
   13eb9:	48 01 c0             	add    %rax,%rax
   13ebc:	48 01 c8             	add    %rcx,%rax
   13ebf:	48 c1 e0 02          	shl    $0x2,%rax
   13ec3:	48 01 c8             	add    %rcx,%rax
   13ec6:	48 01 c2             	add    %rax,%rdx
   13ec9:	48 8d 05 d0 6b 00 00 	lea    0x6bd0(%rip),%rax        # 1aaa0 <g_1559>
   13ed0:	48 01 d0             	add    %rdx,%rax
   13ed3:	0f b6 40 09          	movzbl 0x9(%rax),%eax
   13ed7:	83 e0 01             	and    $0x1,%eax
   13eda:	0f b6 c0             	movzbl %al,%eax
   13edd:	8b 55 fc             	mov    -0x4(%rbp),%edx
   13ee0:	48 8d 35 34 29 00 00 	lea    0x2934(%rip),%rsi        # 1681b <g_1623+0x17c3>
   13ee7:	48 89 c7             	mov    %rax,%rdi
   13eea:	e8 04 38 ff ff       	callq  76f3 <transparent_crc>
   13eef:	8b 45 f4             	mov    -0xc(%rbp),%eax
   13ef2:	48 98                	cltq   
   13ef4:	8b 55 f0             	mov    -0x10(%rbp),%edx
   13ef7:	48 63 ca             	movslq %edx,%rcx
   13efa:	48 89 c2             	mov    %rax,%rdx
   13efd:	48 c1 e2 02          	shl    $0x2,%rdx
   13f01:	48 01 c2             	add    %rax,%rdx
   13f04:	48 01 d2             	add    %rdx,%rdx
   13f07:	48 01 c2             	add    %rax,%rdx
   13f0a:	48 89 c8             	mov    %rcx,%rax
   13f0d:	48 c1 e0 03          	shl    $0x3,%rax
   13f11:	48 01 c8             	add    %rcx,%rax
   13f14:	48 01 c0             	add    %rax,%rax
   13f17:	48 01 c8             	add    %rcx,%rax
   13f1a:	48 c1 e0 02          	shl    $0x2,%rax
   13f1e:	48 01 c8             	add    %rcx,%rax
   13f21:	48 01 c2             	add    %rax,%rdx
   13f24:	48 8d 05 75 6b 00 00 	lea    0x6b75(%rip),%rax        # 1aaa0 <g_1559>
   13f2b:	48 01 d0             	add    %rdx,%rax
   13f2e:	0f b6 50 09          	movzbl 0x9(%rax),%edx
   13f32:	d0 ea                	shr    %dl
   13f34:	0f b6 d2             	movzbl %dl,%edx
   13f37:	0f b6 40 0a          	movzbl 0xa(%rax),%eax
   13f3b:	83 e0 03             	and    $0x3,%eax
   13f3e:	48 c1 e0 07          	shl    $0x7,%rax
   13f42:	48 09 d0             	or     %rdx,%rax
   13f45:	48 c1 e0 37          	shl    $0x37,%rax
   13f49:	48 c1 f8 37          	sar    $0x37,%rax
   13f4d:	48 0f bf c0          	movswq %ax,%rax
   13f51:	8b 55 fc             	mov    -0x4(%rbp),%edx
   13f54:	48 8d 35 d0 28 00 00 	lea    0x28d0(%rip),%rsi        # 1682b <g_1623+0x17d3>
   13f5b:	48 89 c7             	mov    %rax,%rdi
   13f5e:	e8 90 37 ff ff       	callq  76f3 <transparent_crc>
   13f63:	83 7d fc 00          	cmpl   $0x0,-0x4(%rbp)
   13f67:	74 19                	je     13f82 <main+0x147f>
   13f69:	8b 55 f4             	mov    -0xc(%rbp),%edx
   13f6c:	8b 45 f0             	mov    -0x10(%rbp),%eax
   13f6f:	89 c6                	mov    %eax,%esi
   13f71:	48 8d 3d be 26 00 00 	lea    0x26be(%rip),%rdi        # 16636 <g_1623+0x15de>
   13f78:	b8 00 00 00 00       	mov    $0x0,%eax
   13f7d:	e8 fe 20 ff ff       	callq  6080 <printf@plt>
   13f82:	83 45 f4 01          	addl   $0x1,-0xc(%rbp)
   13f86:	83 7d f4 06          	cmpl   $0x6,-0xc(%rbp)
   13f8a:	0f 8e 5b fd ff ff    	jle    13ceb <main+0x11e8>
   13f90:	83 45 f0 01          	addl   $0x1,-0x10(%rbp)
   13f94:	83 7d f0 07          	cmpl   $0x7,-0x10(%rbp)
   13f98:	0f 8e 41 fd ff ff    	jle    13cdf <main+0x11dc>
   13f9e:	c7 45 f0 00 00 00 00 	movl   $0x0,-0x10(%rbp)
   13fa5:	eb 78                	jmp    1401f <main+0x151c>
   13fa7:	c7 45 f4 00 00 00 00 	movl   $0x0,-0xc(%rbp)
   13fae:	eb 65                	jmp    14015 <main+0x1512>
   13fb0:	8b 45 f4             	mov    -0xc(%rbp),%eax
   13fb3:	48 63 c8             	movslq %eax,%rcx
   13fb6:	8b 45 f0             	mov    -0x10(%rbp),%eax
   13fb9:	48 63 d0             	movslq %eax,%rdx
   13fbc:	48 89 d0             	mov    %rdx,%rax
   13fbf:	48 c1 e0 02          	shl    $0x2,%rax
   13fc3:	48 01 d0             	add    %rdx,%rax
   13fc6:	48 01 c0             	add    %rax,%rax
   13fc9:	48 01 c8             	add    %rcx,%rax
   13fcc:	48 8d 14 85 00 00 00 	lea    0x0(,%rax,4),%rdx
   13fd3:	00 
   13fd4:	48 8d 05 45 6d 00 00 	lea    0x6d45(%rip),%rax        # 1ad20 <g_1583>
   13fdb:	8b 04 02             	mov    (%rdx,%rax,1),%eax
   13fde:	48 98                	cltq   
   13fe0:	8b 55 fc             	mov    -0x4(%rbp),%edx
   13fe3:	48 8d 35 51 28 00 00 	lea    0x2851(%rip),%rsi        # 1683b <g_1623+0x17e3>
   13fea:	48 89 c7             	mov    %rax,%rdi
   13fed:	e8 01 37 ff ff       	callq  76f3 <transparent_crc>
   13ff2:	83 7d fc 00          	cmpl   $0x0,-0x4(%rbp)
   13ff6:	74 19                	je     14011 <main+0x150e>
   13ff8:	8b 55 f4             	mov    -0xc(%rbp),%edx
   13ffb:	8b 45 f0             	mov    -0x10(%rbp),%eax
   13ffe:	89 c6                	mov    %eax,%esi
   14000:	48 8d 3d 2f 26 00 00 	lea    0x262f(%rip),%rdi        # 16636 <g_1623+0x15de>
   14007:	b8 00 00 00 00       	mov    $0x0,%eax
   1400c:	e8 6f 20 ff ff       	callq  6080 <printf@plt>
   14011:	83 45 f4 01          	addl   $0x1,-0xc(%rbp)
   14015:	83 7d f4 09          	cmpl   $0x9,-0xc(%rbp)
   14019:	7e 95                	jle    13fb0 <main+0x14ad>
   1401b:	83 45 f0 01          	addl   $0x1,-0x10(%rbp)
   1401f:	83 7d f0 00          	cmpl   $0x0,-0x10(%rbp)
   14023:	7e 82                	jle    13fa7 <main+0x14a4>
   14025:	b8 73 0f 00 00       	mov    $0xf73,%eax
   1402a:	89 c1                	mov    %eax,%ecx
   1402c:	8b 45 fc             	mov    -0x4(%rbp),%eax
   1402f:	89 c2                	mov    %eax,%edx
   14031:	48 8d 35 10 28 00 00 	lea    0x2810(%rip),%rsi        # 16848 <g_1623+0x17f0>
   14038:	48 89 cf             	mov    %rcx,%rdi
   1403b:	e8 b3 36 ff ff       	callq  76f3 <transparent_crc>
   14040:	48 8b 05 11 10 00 00 	mov    0x1011(%rip),%rax        # 15058 <g_1623>
   14047:	48 c1 e0 1d          	shl    $0x1d,%rax
   1404b:	48 c1 f8 36          	sar    $0x36,%rax
   1404f:	48 0f bf c0          	movswq %ax,%rax
   14053:	8b 55 fc             	mov    -0x4(%rbp),%edx
   14056:	48 8d 35 f5 27 00 00 	lea    0x27f5(%rip),%rsi        # 16852 <g_1623+0x17fa>
   1405d:	48 89 c7             	mov    %rax,%rdi
   14060:	e8 8e 36 ff ff       	callq  76f3 <transparent_crc>
   14065:	b8 fe ff ff ff       	mov    $0xfffffffe,%eax
   1406a:	48 0f be c0          	movsbq %al,%rax
   1406e:	8b 55 fc             	mov    -0x4(%rbp),%edx
   14071:	48 8d 35 e4 27 00 00 	lea    0x27e4(%rip),%rsi        # 1685c <g_1623+0x1804>
   14078:	48 89 c7             	mov    %rax,%rdi
   1407b:	e8 73 36 ff ff       	callq  76f3 <transparent_crc>
   14080:	b8 00 00 00 00       	mov    $0x0,%eax
   14085:	89 c1                	mov    %eax,%ecx
   14087:	8b 45 fc             	mov    -0x4(%rbp),%eax
   1408a:	89 c2                	mov    %eax,%edx
   1408c:	48 8d 35 d3 27 00 00 	lea    0x27d3(%rip),%rsi        # 16866 <g_1623+0x180e>
   14093:	48 89 cf             	mov    %rcx,%rdi
   14096:	e8 58 36 ff ff       	callq  76f3 <transparent_crc>
   1409b:	b8 00 00 00 00       	mov    $0x0,%eax
   140a0:	0f b6 c0             	movzbl %al,%eax
   140a3:	8b 55 fc             	mov    -0x4(%rbp),%edx
   140a6:	48 8d 35 c3 27 00 00 	lea    0x27c3(%rip),%rsi        # 16870 <g_1623+0x1818>
   140ad:	48 89 c7             	mov    %rax,%rdi
   140b0:	e8 3e 36 ff ff       	callq  76f3 <transparent_crc>
   140b5:	b8 01 00 00 00       	mov    $0x1,%eax
   140ba:	48 0f bf c0          	movswq %ax,%rax
   140be:	8b 55 fc             	mov    -0x4(%rbp),%edx
   140c1:	48 8d 35 b2 27 00 00 	lea    0x27b2(%rip),%rsi        # 1687a <g_1623+0x1822>
   140c8:	48 89 c7             	mov    %rax,%rdi
   140cb:	e8 23 36 ff ff       	callq  76f3 <transparent_crc>
   140d0:	0f b7 05 71 6c 00 00 	movzwl 0x6c71(%rip),%eax        # 1ad48 <g_1687>
   140d7:	48 0f bf c0          	movswq %ax,%rax
   140db:	8b 55 fc             	mov    -0x4(%rbp),%edx
   140de:	48 8d 35 9f 27 00 00 	lea    0x279f(%rip),%rsi        # 16884 <g_1623+0x182c>
   140e5:	48 89 c7             	mov    %rax,%rdi
   140e8:	e8 06 36 ff ff       	callq  76f3 <transparent_crc>
   140ed:	48 8b 05 5c 6c 00 00 	mov    0x6c5c(%rip),%rax        # 1ad50 <g_1713>
   140f4:	25 ff ff ff 01       	and    $0x1ffffff,%eax
   140f9:	89 c1                	mov    %eax,%ecx
   140fb:	8b 45 fc             	mov    -0x4(%rbp),%eax
   140fe:	89 c2                	mov    %eax,%edx
   14100:	48 8d 35 84 27 00 00 	lea    0x2784(%rip),%rsi        # 1688b <g_1623+0x1833>
   14107:	48 89 cf             	mov    %rcx,%rdi
   1410a:	e8 e4 35 ff ff       	callq  76f3 <transparent_crc>
   1410f:	48 8b 05 3a 6c 00 00 	mov    0x6c3a(%rip),%rax        # 1ad50 <g_1713>
   14116:	48 c1 e0 1d          	shl    $0x1d,%rax
   1411a:	48 c1 f8 36          	sar    $0x36,%rax
   1411e:	48 0f bf c0          	movswq %ax,%rax
   14122:	8b 55 fc             	mov    -0x4(%rbp),%edx
   14125:	48 8d 35 69 27 00 00 	lea    0x2769(%rip),%rsi        # 16895 <g_1623+0x183d>
   1412c:	48 89 c7             	mov    %rax,%rdi
   1412f:	e8 bf 35 ff ff       	callq  76f3 <transparent_crc>
   14134:	48 8b 05 15 6c 00 00 	mov    0x6c15(%rip),%rax        # 1ad50 <g_1713>
   1413b:	48 c1 e0 19          	shl    $0x19,%rax
   1413f:	48 c1 f8 3c          	sar    $0x3c,%rax
   14143:	48 0f be c0          	movsbq %al,%rax
   14147:	8b 55 fc             	mov    -0x4(%rbp),%edx
   1414a:	48 8d 35 4e 27 00 00 	lea    0x274e(%rip),%rsi        # 1689f <g_1623+0x1847>
   14151:	48 89 c7             	mov    %rax,%rdi
   14154:	e8 9a 35 ff ff       	callq  76f3 <transparent_crc>
   14159:	8b 05 f6 6b 00 00    	mov    0x6bf6(%rip),%eax        # 1ad55 <g_1713+0x5>
   1415f:	89 c1                	mov    %eax,%ecx
   14161:	8b 45 fc             	mov    -0x4(%rbp),%eax
   14164:	89 c2                	mov    %eax,%edx
   14166:	48 8d 35 3c 27 00 00 	lea    0x273c(%rip),%rsi        # 168a9 <g_1623+0x1851>
   1416d:	48 89 cf             	mov    %rcx,%rdi
   14170:	e8 7e 35 ff ff       	callq  76f3 <transparent_crc>
   14175:	48 8b 05 dc 6b 00 00 	mov    0x6bdc(%rip),%rax        # 1ad58 <g_1713+0x8>
   1417c:	48 c1 e8 08          	shr    $0x8,%rax
   14180:	83 e0 01             	and    $0x1,%eax
   14183:	0f b6 c0             	movzbl %al,%eax
   14186:	8b 55 fc             	mov    -0x4(%rbp),%edx
   14189:	48 8d 35 23 27 00 00 	lea    0x2723(%rip),%rsi        # 168b3 <g_1623+0x185b>
   14190:	48 89 c7             	mov    %rax,%rdi
   14193:	e8 5b 35 ff ff       	callq  76f3 <transparent_crc>
   14198:	48 8b 05 b9 6b 00 00 	mov    0x6bb9(%rip),%rax        # 1ad58 <g_1713+0x8>
   1419f:	c1 e0 0e             	shl    $0xe,%eax
   141a2:	c1 f8 17             	sar    $0x17,%eax
   141a5:	48 0f bf c0          	movswq %ax,%rax
   141a9:	8b 55 fc             	mov    -0x4(%rbp),%edx
   141ac:	48 8d 35 0a 27 00 00 	lea    0x270a(%rip),%rsi        # 168bd <g_1623+0x1865>
   141b3:	48 89 c7             	mov    %rax,%rdi
   141b6:	e8 38 35 ff ff       	callq  76f3 <transparent_crc>
   141bb:	8b 05 9f 6b 00 00    	mov    0x6b9f(%rip),%eax        # 1ad60 <g_1743>
   141c1:	25 ff ff ff 01       	and    $0x1ffffff,%eax
   141c6:	89 c1                	mov    %eax,%ecx
   141c8:	8b 45 fc             	mov    -0x4(%rbp),%eax
   141cb:	89 c2                	mov    %eax,%edx
   141cd:	48 8d 35 f3 26 00 00 	lea    0x26f3(%rip),%rsi        # 168c7 <g_1623+0x186f>
   141d4:	48 89 cf             	mov    %rcx,%rdi
   141d7:	e8 17 35 ff ff       	callq  76f3 <transparent_crc>
   141dc:	48 8b 05 7d 6b 00 00 	mov    0x6b7d(%rip),%rax        # 1ad60 <g_1743>
   141e3:	48 c1 e0 1d          	shl    $0x1d,%rax
   141e7:	48 c1 f8 36          	sar    $0x36,%rax
   141eb:	48 0f bf c0          	movswq %ax,%rax
   141ef:	8b 55 fc             	mov    -0x4(%rbp),%edx
   141f2:	48 8d 35 d8 26 00 00 	lea    0x26d8(%rip),%rsi        # 168d1 <g_1623+0x1879>
   141f9:	48 89 c7             	mov    %rax,%rdi
   141fc:	e8 f2 34 ff ff       	callq  76f3 <transparent_crc>
   14201:	0f b6 05 5c 6b 00 00 	movzbl 0x6b5c(%rip),%eax        # 1ad64 <g_1743+0x4>
   14208:	01 c0                	add    %eax,%eax
   1420a:	c0 f8 04             	sar    $0x4,%al
   1420d:	48 0f be c0          	movsbq %al,%rax
   14211:	8b 55 fc             	mov    -0x4(%rbp),%edx
   14214:	48 8d 35 c0 26 00 00 	lea    0x26c0(%rip),%rsi        # 168db <g_1623+0x1883>
   1421b:	48 89 c7             	mov    %rax,%rdi
   1421e:	e8 d0 34 ff ff       	callq  76f3 <transparent_crc>
   14223:	8b 05 3c 6b 00 00    	mov    0x6b3c(%rip),%eax        # 1ad65 <g_1743+0x5>
   14229:	89 c1                	mov    %eax,%ecx
   1422b:	8b 45 fc             	mov    -0x4(%rbp),%eax
   1422e:	89 c2                	mov    %eax,%edx
   14230:	48 8d 35 ae 26 00 00 	lea    0x26ae(%rip),%rsi        # 168e5 <g_1623+0x188d>
   14237:	48 89 cf             	mov    %rcx,%rdi
   1423a:	e8 b4 34 ff ff       	callq  76f3 <transparent_crc>
   1423f:	0f b6 05 23 6b 00 00 	movzbl 0x6b23(%rip),%eax        # 1ad69 <g_1743+0x9>
   14246:	83 e0 01             	and    $0x1,%eax
   14249:	0f b6 c0             	movzbl %al,%eax
   1424c:	8b 55 fc             	mov    -0x4(%rbp),%edx
   1424f:	48 8d 35 99 26 00 00 	lea    0x2699(%rip),%rsi        # 168ef <g_1623+0x1897>
   14256:	48 89 c7             	mov    %rax,%rdi
   14259:	e8 95 34 ff ff       	callq  76f3 <transparent_crc>
   1425e:	8b 05 04 6b 00 00    	mov    0x6b04(%rip),%eax        # 1ad68 <g_1743+0x8>
   14264:	c1 e0 0e             	shl    $0xe,%eax
   14267:	c1 f8 17             	sar    $0x17,%eax
   1426a:	48 0f bf c0          	movswq %ax,%rax
   1426e:	8b 55 fc             	mov    -0x4(%rbp),%edx
   14271:	48 8d 35 81 26 00 00 	lea    0x2681(%rip),%rsi        # 168f9 <g_1623+0x18a1>
   14278:	48 89 c7             	mov    %rax,%rdi
   1427b:	e8 73 34 ff ff       	callq  76f3 <transparent_crc>
   14280:	8b 05 ea 6a 00 00    	mov    0x6aea(%rip),%eax        # 1ad70 <g_1808>
   14286:	25 ff ff ff 01       	and    $0x1ffffff,%eax
   1428b:	89 c1                	mov    %eax,%ecx
   1428d:	8b 45 fc             	mov    -0x4(%rbp),%eax
   14290:	89 c2                	mov    %eax,%edx
   14292:	48 8d 35 6a 26 00 00 	lea    0x266a(%rip),%rsi        # 16903 <g_1623+0x18ab>
   14299:	48 89 cf             	mov    %rcx,%rdi
   1429c:	e8 52 34 ff ff       	callq  76f3 <transparent_crc>
   142a1:	48 8b 05 c8 6a 00 00 	mov    0x6ac8(%rip),%rax        # 1ad70 <g_1808>
   142a8:	48 c1 e0 1d          	shl    $0x1d,%rax
   142ac:	48 c1 f8 36          	sar    $0x36,%rax
   142b0:	48 0f bf c0          	movswq %ax,%rax
   142b4:	8b 55 fc             	mov    -0x4(%rbp),%edx
   142b7:	48 8d 35 4f 26 00 00 	lea    0x264f(%rip),%rsi        # 1690d <g_1623+0x18b5>
   142be:	48 89 c7             	mov    %rax,%rdi
   142c1:	e8 2d 34 ff ff       	callq  76f3 <transparent_crc>
   142c6:	0f b6 05 a7 6a 00 00 	movzbl 0x6aa7(%rip),%eax        # 1ad74 <g_1808+0x4>
   142cd:	01 c0                	add    %eax,%eax
   142cf:	c0 f8 04             	sar    $0x4,%al
   142d2:	48 0f be c0          	movsbq %al,%rax
   142d6:	8b 55 fc             	mov    -0x4(%rbp),%edx
   142d9:	48 8d 35 37 26 00 00 	lea    0x2637(%rip),%rsi        # 16917 <g_1623+0x18bf>
   142e0:	48 89 c7             	mov    %rax,%rdi
   142e3:	e8 0b 34 ff ff       	callq  76f3 <transparent_crc>
   142e8:	8b 05 87 6a 00 00    	mov    0x6a87(%rip),%eax        # 1ad75 <g_1808+0x5>
   142ee:	89 c1                	mov    %eax,%ecx
   142f0:	8b 45 fc             	mov    -0x4(%rbp),%eax
   142f3:	89 c2                	mov    %eax,%edx
   142f5:	48 8d 35 25 26 00 00 	lea    0x2625(%rip),%rsi        # 16921 <g_1623+0x18c9>
   142fc:	48 89 cf             	mov    %rcx,%rdi
   142ff:	e8 ef 33 ff ff       	callq  76f3 <transparent_crc>
   14304:	0f b6 05 6e 6a 00 00 	movzbl 0x6a6e(%rip),%eax        # 1ad79 <g_1808+0x9>
   1430b:	83 e0 01             	and    $0x1,%eax
   1430e:	0f b6 c0             	movzbl %al,%eax
   14311:	8b 55 fc             	mov    -0x4(%rbp),%edx
   14314:	48 8d 35 10 26 00 00 	lea    0x2610(%rip),%rsi        # 1692b <g_1623+0x18d3>
   1431b:	48 89 c7             	mov    %rax,%rdi
   1431e:	e8 d0 33 ff ff       	callq  76f3 <transparent_crc>
   14323:	8b 05 4f 6a 00 00    	mov    0x6a4f(%rip),%eax        # 1ad78 <g_1808+0x8>
   14329:	c1 e0 0e             	shl    $0xe,%eax
   1432c:	c1 f8 17             	sar    $0x17,%eax
   1432f:	48 0f bf c0          	movswq %ax,%rax
   14333:	8b 55 fc             	mov    -0x4(%rbp),%edx
   14336:	48 8d 35 f8 25 00 00 	lea    0x25f8(%rip),%rsi        # 16935 <g_1623+0x18dd>
   1433d:	48 89 c7             	mov    %rax,%rdi
   14340:	e8 ae 33 ff ff       	callq  76f3 <transparent_crc>
   14345:	8b 05 31 6a 00 00    	mov    0x6a31(%rip),%eax        # 1ad7c <g_1823>
   1434b:	48 98                	cltq   
   1434d:	8b 55 fc             	mov    -0x4(%rbp),%edx
   14350:	48 8d 35 e8 25 00 00 	lea    0x25e8(%rip),%rsi        # 1693f <g_1623+0x18e7>
   14357:	48 89 c7             	mov    %rax,%rdi
   1435a:	e8 94 33 ff ff       	callq  76f3 <transparent_crc>
   1435f:	8b 05 1b 6a 00 00    	mov    0x6a1b(%rip),%eax        # 1ad80 <g_1907>
   14365:	89 c1                	mov    %eax,%ecx
   14367:	8b 45 fc             	mov    -0x4(%rbp),%eax
   1436a:	89 c2                	mov    %eax,%edx
   1436c:	48 8d 35 d3 25 00 00 	lea    0x25d3(%rip),%rsi        # 16946 <g_1623+0x18ee>
   14373:	48 89 cf             	mov    %rcx,%rdi
   14376:	e8 78 33 ff ff       	callq  76f3 <transparent_crc>
   1437b:	8b 05 07 6a 00 00    	mov    0x6a07(%rip),%eax        # 1ad88 <g_1935>
   14381:	25 ff ff ff 01       	and    $0x1ffffff,%eax
   14386:	89 c1                	mov    %eax,%ecx
   14388:	8b 45 fc             	mov    -0x4(%rbp),%eax
   1438b:	89 c2                	mov    %eax,%edx
   1438d:	48 8d 35 b9 25 00 00 	lea    0x25b9(%rip),%rsi        # 1694d <g_1623+0x18f5>
   14394:	48 89 cf             	mov    %rcx,%rdi
   14397:	e8 57 33 ff ff       	callq  76f3 <transparent_crc>
   1439c:	48 8b 05 e5 69 00 00 	mov    0x69e5(%rip),%rax        # 1ad88 <g_1935>
   143a3:	48 c1 e0 1d          	shl    $0x1d,%rax
   143a7:	48 c1 f8 36          	sar    $0x36,%rax
   143ab:	48 0f bf c0          	movswq %ax,%rax
   143af:	8b 55 fc             	mov    -0x4(%rbp),%edx
   143b2:	48 8d 35 9e 25 00 00 	lea    0x259e(%rip),%rsi        # 16957 <g_1623+0x18ff>
   143b9:	48 89 c7             	mov    %rax,%rdi
   143bc:	e8 32 33 ff ff       	callq  76f3 <transparent_crc>
   143c1:	0f b6 05 c4 69 00 00 	movzbl 0x69c4(%rip),%eax        # 1ad8c <g_1935+0x4>
   143c8:	01 c0                	add    %eax,%eax
   143ca:	c0 f8 04             	sar    $0x4,%al
   143cd:	48 0f be c0          	movsbq %al,%rax
   143d1:	8b 55 fc             	mov    -0x4(%rbp),%edx
   143d4:	48 8d 35 86 25 00 00 	lea    0x2586(%rip),%rsi        # 16961 <g_1623+0x1909>
   143db:	48 89 c7             	mov    %rax,%rdi
   143de:	e8 10 33 ff ff       	callq  76f3 <transparent_crc>
   143e3:	8b 05 a4 69 00 00    	mov    0x69a4(%rip),%eax        # 1ad8d <g_1935+0x5>
   143e9:	89 c1                	mov    %eax,%ecx
   143eb:	8b 45 fc             	mov    -0x4(%rbp),%eax
   143ee:	89 c2                	mov    %eax,%edx
   143f0:	48 8d 35 74 25 00 00 	lea    0x2574(%rip),%rsi        # 1696b <g_1623+0x1913>
   143f7:	48 89 cf             	mov    %rcx,%rdi
   143fa:	e8 f4 32 ff ff       	callq  76f3 <transparent_crc>
   143ff:	0f b6 05 8b 69 00 00 	movzbl 0x698b(%rip),%eax        # 1ad91 <g_1935+0x9>
   14406:	83 e0 01             	and    $0x1,%eax
   14409:	0f b6 c0             	movzbl %al,%eax
   1440c:	8b 55 fc             	mov    -0x4(%rbp),%edx
   1440f:	48 8d 35 5f 25 00 00 	lea    0x255f(%rip),%rsi        # 16975 <g_1623+0x191d>
   14416:	48 89 c7             	mov    %rax,%rdi
   14419:	e8 d5 32 ff ff       	callq  76f3 <transparent_crc>
   1441e:	8b 05 6c 69 00 00    	mov    0x696c(%rip),%eax        # 1ad90 <g_1935+0x8>
   14424:	c1 e0 0e             	shl    $0xe,%eax
   14427:	c1 f8 17             	sar    $0x17,%eax
   1442a:	48 0f bf c0          	movswq %ax,%rax
   1442e:	8b 55 fc             	mov    -0x4(%rbp),%edx
   14431:	48 8d 35 47 25 00 00 	lea    0x2547(%rip),%rsi        # 1697f <g_1623+0x1927>
   14438:	48 89 c7             	mov    %rax,%rdi
   1443b:	e8 b3 32 ff ff       	callq  76f3 <transparent_crc>
   14440:	c7 45 f0 00 00 00 00 	movl   $0x0,-0x10(%rbp)
   14447:	e9 a4 00 00 00       	jmpq   144f0 <main+0x19ed>
   1444c:	c7 45 f4 00 00 00 00 	movl   $0x0,-0xc(%rbp)
   14453:	e9 8a 00 00 00       	jmpq   144e2 <main+0x19df>
   14458:	c7 45 f8 00 00 00 00 	movl   $0x0,-0x8(%rbp)
   1445f:	eb 77                	jmp    144d8 <main+0x19d5>
   14461:	8b 45 f8             	mov    -0x8(%rbp),%eax
   14464:	48 63 f0             	movslq %eax,%rsi
   14467:	8b 45 f0             	mov    -0x10(%rbp),%eax
   1446a:	48 63 d0             	movslq %eax,%rdx
   1446d:	8b 45 f4             	mov    -0xc(%rbp),%eax
   14470:	48 63 c8             	movslq %eax,%rcx
   14473:	48 89 d0             	mov    %rdx,%rax
   14476:	48 01 c0             	add    %rax,%rax
   14479:	48 01 d0             	add    %rdx,%rax
   1447c:	48 01 c0             	add    %rax,%rax
   1447f:	48 89 ca             	mov    %rcx,%rdx
   14482:	48 01 d2             	add    %rdx,%rdx
   14485:	48 01 ca             	add    %rcx,%rdx
   14488:	48 01 d0             	add    %rdx,%rax
   1448b:	48 01 f0             	add    %rsi,%rax
   1448e:	48 8d 14 00          	lea    (%rax,%rax,1),%rdx
   14492:	48 8d 05 07 69 00 00 	lea    0x6907(%rip),%rax        # 1ada0 <g_1957>
   14499:	0f b7 04 02          	movzwl (%rdx,%rax,1),%eax
   1449d:	0f b7 c0             	movzwl %ax,%eax
   144a0:	8b 55 fc             	mov    -0x4(%rbp),%edx
   144a3:	48 8d 35 df 24 00 00 	lea    0x24df(%rip),%rsi        # 16989 <g_1623+0x1931>
   144aa:	48 89 c7             	mov    %rax,%rdi
   144ad:	e8 41 32 ff ff       	callq  76f3 <transparent_crc>
   144b2:	83 7d fc 00          	cmpl   $0x0,-0x4(%rbp)
   144b6:	74 1c                	je     144d4 <main+0x19d1>
   144b8:	8b 4d f8             	mov    -0x8(%rbp),%ecx
   144bb:	8b 55 f4             	mov    -0xc(%rbp),%edx
   144be:	8b 45 f0             	mov    -0x10(%rbp),%eax
   144c1:	89 c6                	mov    %eax,%esi
   144c3:	48 8d 3d 1f 20 00 00 	lea    0x201f(%rip),%rdi        # 164e9 <g_1623+0x1491>
   144ca:	b8 00 00 00 00       	mov    $0x0,%eax
   144cf:	e8 ac 1b ff ff       	callq  6080 <printf@plt>
   144d4:	83 45 f8 01          	addl   $0x1,-0x8(%rbp)
   144d8:	83 7d f8 02          	cmpl   $0x2,-0x8(%rbp)
   144dc:	7e 83                	jle    14461 <main+0x195e>
   144de:	83 45 f4 01          	addl   $0x1,-0xc(%rbp)
   144e2:	83 7d f4 01          	cmpl   $0x1,-0xc(%rbp)
   144e6:	0f 8e 6c ff ff ff    	jle    14458 <main+0x1955>
   144ec:	83 45 f0 01          	addl   $0x1,-0x10(%rbp)
   144f0:	83 7d f0 09          	cmpl   $0x9,-0x10(%rbp)
   144f4:	0f 8e 52 ff ff ff    	jle    1444c <main+0x1949>
   144fa:	48 8b 05 17 69 00 00 	mov    0x6917(%rip),%rax        # 1ae18 <g_1965>
   14501:	25 ff ff ff 01       	and    $0x1ffffff,%eax
   14506:	89 c1                	mov    %eax,%ecx
   14508:	8b 45 fc             	mov    -0x4(%rbp),%eax
   1450b:	89 c2                	mov    %eax,%edx
   1450d:	48 8d 35 85 24 00 00 	lea    0x2485(%rip),%rsi        # 16999 <g_1623+0x1941>
   14514:	48 89 cf             	mov    %rcx,%rdi
   14517:	e8 d7 31 ff ff       	callq  76f3 <transparent_crc>
   1451c:	48 8b 05 f5 68 00 00 	mov    0x68f5(%rip),%rax        # 1ae18 <g_1965>
   14523:	48 c1 e0 1d          	shl    $0x1d,%rax
   14527:	48 c1 f8 36          	sar    $0x36,%rax
   1452b:	48 0f bf c0          	movswq %ax,%rax
   1452f:	8b 55 fc             	mov    -0x4(%rbp),%edx
   14532:	48 8d 35 6a 24 00 00 	lea    0x246a(%rip),%rsi        # 169a3 <g_1623+0x194b>
   14539:	48 89 c7             	mov    %rax,%rdi
   1453c:	e8 b2 31 ff ff       	callq  76f3 <transparent_crc>
   14541:	48 8b 05 d0 68 00 00 	mov    0x68d0(%rip),%rax        # 1ae18 <g_1965>
   14548:	48 c1 e0 19          	shl    $0x19,%rax
   1454c:	48 c1 f8 3c          	sar    $0x3c,%rax
   14550:	48 0f be c0          	movsbq %al,%rax
   14554:	8b 55 fc             	mov    -0x4(%rbp),%edx
   14557:	48 8d 35 4f 24 00 00 	lea    0x244f(%rip),%rsi        # 169ad <g_1623+0x1955>
   1455e:	48 89 c7             	mov    %rax,%rdi
   14561:	e8 8d 31 ff ff       	callq  76f3 <transparent_crc>
   14566:	8b 05 b1 68 00 00    	mov    0x68b1(%rip),%eax        # 1ae1d <g_1965+0x5>
   1456c:	89 c1                	mov    %eax,%ecx
   1456e:	8b 45 fc             	mov    -0x4(%rbp),%eax
   14571:	89 c2                	mov    %eax,%edx
   14573:	48 8d 35 3d 24 00 00 	lea    0x243d(%rip),%rsi        # 169b7 <g_1623+0x195f>
   1457a:	48 89 cf             	mov    %rcx,%rdi
   1457d:	e8 71 31 ff ff       	callq  76f3 <transparent_crc>
   14582:	48 8b 05 97 68 00 00 	mov    0x6897(%rip),%rax        # 1ae20 <g_1965+0x8>
   14589:	48 c1 e8 08          	shr    $0x8,%rax
   1458d:	83 e0 01             	and    $0x1,%eax
   14590:	0f b6 c0             	movzbl %al,%eax
   14593:	8b 55 fc             	mov    -0x4(%rbp),%edx
   14596:	48 8d 35 24 24 00 00 	lea    0x2424(%rip),%rsi        # 169c1 <g_1623+0x1969>
   1459d:	48 89 c7             	mov    %rax,%rdi
   145a0:	e8 4e 31 ff ff       	callq  76f3 <transparent_crc>
   145a5:	48 8b 05 74 68 00 00 	mov    0x6874(%rip),%rax        # 1ae20 <g_1965+0x8>
   145ac:	c1 e0 0e             	shl    $0xe,%eax
   145af:	c1 f8 17             	sar    $0x17,%eax
   145b2:	48 0f bf c0          	movswq %ax,%rax
   145b6:	8b 55 fc             	mov    -0x4(%rbp),%edx
   145b9:	48 8d 35 0b 24 00 00 	lea    0x240b(%rip),%rsi        # 169cb <g_1623+0x1973>
   145c0:	48 89 c7             	mov    %rax,%rdi
   145c3:	e8 2b 31 ff ff       	callq  76f3 <transparent_crc>
   145c8:	48 8b 05 59 68 00 00 	mov    0x6859(%rip),%rax        # 1ae28 <g_1984>
   145cf:	8b 55 fc             	mov    -0x4(%rbp),%edx
   145d2:	48 8d 35 fc 23 00 00 	lea    0x23fc(%rip),%rsi        # 169d5 <g_1623+0x197d>
   145d9:	48 89 c7             	mov    %rax,%rdi
   145dc:	e8 12 31 ff ff       	callq  76f3 <transparent_crc>
   145e1:	8b 05 49 68 00 00    	mov    0x6849(%rip),%eax        # 1ae30 <g_2107>
   145e7:	89 c1                	mov    %eax,%ecx
   145e9:	8b 45 fc             	mov    -0x4(%rbp),%eax
   145ec:	89 c2                	mov    %eax,%edx
   145ee:	48 8d 35 e7 23 00 00 	lea    0x23e7(%rip),%rsi        # 169dc <g_1623+0x1984>
   145f5:	48 89 cf             	mov    %rcx,%rdi
   145f8:	e8 f6 30 ff ff       	callq  76f3 <transparent_crc>
   145fd:	48 8b 05 34 68 00 00 	mov    0x6834(%rip),%rax        # 1ae38 <g_2186>
   14604:	25 ff ff ff 01       	and    $0x1ffffff,%eax
   14609:	89 c1                	mov    %eax,%ecx
   1460b:	8b 45 fc             	mov    -0x4(%rbp),%eax
   1460e:	89 c2                	mov    %eax,%edx
   14610:	48 8d 35 cc 23 00 00 	lea    0x23cc(%rip),%rsi        # 169e3 <g_1623+0x198b>
   14617:	48 89 cf             	mov    %rcx,%rdi
   1461a:	e8 d4 30 ff ff       	callq  76f3 <transparent_crc>
   1461f:	48 8b 05 12 68 00 00 	mov    0x6812(%rip),%rax        # 1ae38 <g_2186>
   14626:	48 c1 e0 1d          	shl    $0x1d,%rax
   1462a:	48 c1 f8 36          	sar    $0x36,%rax
   1462e:	48 0f bf c0          	movswq %ax,%rax
   14632:	8b 55 fc             	mov    -0x4(%rbp),%edx
   14635:	48 8d 35 b1 23 00 00 	lea    0x23b1(%rip),%rsi        # 169ed <g_1623+0x1995>
   1463c:	48 89 c7             	mov    %rax,%rdi
   1463f:	e8 af 30 ff ff       	callq  76f3 <transparent_crc>
   14644:	48 8b 05 ed 67 00 00 	mov    0x67ed(%rip),%rax        # 1ae38 <g_2186>
   1464b:	48 c1 e0 19          	shl    $0x19,%rax
   1464f:	48 c1 f8 3c          	sar    $0x3c,%rax
   14653:	48 0f be c0          	movsbq %al,%rax
   14657:	8b 55 fc             	mov    -0x4(%rbp),%edx
   1465a:	48 8d 35 96 23 00 00 	lea    0x2396(%rip),%rsi        # 169f7 <g_1623+0x199f>
   14661:	48 89 c7             	mov    %rax,%rdi
   14664:	e8 8a 30 ff ff       	callq  76f3 <transparent_crc>
   14669:	8b 05 ce 67 00 00    	mov    0x67ce(%rip),%eax        # 1ae3d <g_2186+0x5>
   1466f:	89 c1                	mov    %eax,%ecx
   14671:	8b 45 fc             	mov    -0x4(%rbp),%eax
   14674:	89 c2                	mov    %eax,%edx
   14676:	48 8d 35 84 23 00 00 	lea    0x2384(%rip),%rsi        # 16a01 <g_1623+0x19a9>
   1467d:	48 89 cf             	mov    %rcx,%rdi
   14680:	e8 6e 30 ff ff       	callq  76f3 <transparent_crc>
   14685:	48 8b 05 b4 67 00 00 	mov    0x67b4(%rip),%rax        # 1ae40 <g_2186+0x8>
   1468c:	48 c1 e8 08          	shr    $0x8,%rax
   14690:	83 e0 01             	and    $0x1,%eax
   14693:	0f b6 c0             	movzbl %al,%eax
   14696:	8b 55 fc             	mov    -0x4(%rbp),%edx
   14699:	48 8d 35 6b 23 00 00 	lea    0x236b(%rip),%rsi        # 16a0b <g_1623+0x19b3>
   146a0:	48 89 c7             	mov    %rax,%rdi
   146a3:	e8 4b 30 ff ff       	callq  76f3 <transparent_crc>
   146a8:	48 8b 05 91 67 00 00 	mov    0x6791(%rip),%rax        # 1ae40 <g_2186+0x8>
   146af:	c1 e0 0e             	shl    $0xe,%eax
   146b2:	c1 f8 17             	sar    $0x17,%eax
   146b5:	48 0f bf c0          	movswq %ax,%rax
   146b9:	8b 55 fc             	mov    -0x4(%rbp),%edx
   146bc:	48 8d 35 52 23 00 00 	lea    0x2352(%rip),%rsi        # 16a15 <g_1623+0x19bd>
   146c3:	48 89 c7             	mov    %rax,%rdi
   146c6:	e8 28 30 ff ff       	callq  76f3 <transparent_crc>
   146cb:	48 8b 05 76 67 00 00 	mov    0x6776(%rip),%rax        # 1ae48 <g_2286>
   146d2:	25 ff ff ff 01       	and    $0x1ffffff,%eax
   146d7:	89 c1                	mov    %eax,%ecx
   146d9:	8b 45 fc             	mov    -0x4(%rbp),%eax
   146dc:	89 c2                	mov    %eax,%edx
   146de:	48 8d 35 3a 23 00 00 	lea    0x233a(%rip),%rsi        # 16a1f <g_1623+0x19c7>
   146e5:	48 89 cf             	mov    %rcx,%rdi
   146e8:	e8 06 30 ff ff       	callq  76f3 <transparent_crc>
   146ed:	48 8b 05 54 67 00 00 	mov    0x6754(%rip),%rax        # 1ae48 <g_2286>
   146f4:	48 c1 e0 1d          	shl    $0x1d,%rax
   146f8:	48 c1 f8 36          	sar    $0x36,%rax
   146fc:	48 0f bf c0          	movswq %ax,%rax
   14700:	8b 55 fc             	mov    -0x4(%rbp),%edx
   14703:	48 8d 35 1f 23 00 00 	lea    0x231f(%rip),%rsi        # 16a29 <g_1623+0x19d1>
   1470a:	48 89 c7             	mov    %rax,%rdi
   1470d:	e8 e1 2f ff ff       	callq  76f3 <transparent_crc>
   14712:	48 8b 05 2f 67 00 00 	mov    0x672f(%rip),%rax        # 1ae48 <g_2286>
   14719:	48 c1 e0 19          	shl    $0x19,%rax
   1471d:	48 c1 f8 3c          	sar    $0x3c,%rax
   14721:	48 0f be c0          	movsbq %al,%rax
   14725:	8b 55 fc             	mov    -0x4(%rbp),%edx
   14728:	48 8d 35 04 23 00 00 	lea    0x2304(%rip),%rsi        # 16a33 <g_1623+0x19db>
   1472f:	48 89 c7             	mov    %rax,%rdi
   14732:	e8 bc 2f ff ff       	callq  76f3 <transparent_crc>
   14737:	8b 05 10 67 00 00    	mov    0x6710(%rip),%eax        # 1ae4d <g_2286+0x5>
   1473d:	89 c1                	mov    %eax,%ecx
   1473f:	8b 45 fc             	mov    -0x4(%rbp),%eax
   14742:	89 c2                	mov    %eax,%edx
   14744:	48 8d 35 f2 22 00 00 	lea    0x22f2(%rip),%rsi        # 16a3d <g_1623+0x19e5>
   1474b:	48 89 cf             	mov    %rcx,%rdi
   1474e:	e8 a0 2f ff ff       	callq  76f3 <transparent_crc>
   14753:	48 8b 05 f6 66 00 00 	mov    0x66f6(%rip),%rax        # 1ae50 <g_2286+0x8>
   1475a:	48 c1 e8 08          	shr    $0x8,%rax
   1475e:	83 e0 01             	and    $0x1,%eax
   14761:	0f b6 c0             	movzbl %al,%eax
   14764:	8b 55 fc             	mov    -0x4(%rbp),%edx
   14767:	48 8d 35 d9 22 00 00 	lea    0x22d9(%rip),%rsi        # 16a47 <g_1623+0x19ef>
   1476e:	48 89 c7             	mov    %rax,%rdi
   14771:	e8 7d 2f ff ff       	callq  76f3 <transparent_crc>
   14776:	48 8b 05 d3 66 00 00 	mov    0x66d3(%rip),%rax        # 1ae50 <g_2286+0x8>
   1477d:	c1 e0 0e             	shl    $0xe,%eax
   14780:	c1 f8 17             	sar    $0x17,%eax
   14783:	48 0f bf c0          	movswq %ax,%rax
   14787:	8b 55 fc             	mov    -0x4(%rbp),%edx
   1478a:	48 8d 35 c0 22 00 00 	lea    0x22c0(%rip),%rsi        # 16a51 <g_1623+0x19f9>
   14791:	48 89 c7             	mov    %rax,%rdi
   14794:	e8 5a 2f ff ff       	callq  76f3 <transparent_crc>
   14799:	0f b6 05 b3 66 00 00 	movzbl 0x66b3(%rip),%eax        # 1ae53 <g_2315>
   147a0:	0f b6 c0             	movzbl %al,%eax
   147a3:	8b 55 fc             	mov    -0x4(%rbp),%edx
   147a6:	48 8d 35 ae 22 00 00 	lea    0x22ae(%rip),%rsi        # 16a5b <g_1623+0x1a03>
   147ad:	48 89 c7             	mov    %rax,%rdi
   147b0:	e8 3e 2f ff ff       	callq  76f3 <transparent_crc>
   147b5:	0f b7 05 98 66 00 00 	movzwl 0x6698(%rip),%eax        # 1ae54 <g_2345>
   147bc:	0f b7 c0             	movzwl %ax,%eax
   147bf:	8b 55 fc             	mov    -0x4(%rbp),%edx
   147c2:	48 8d 35 99 22 00 00 	lea    0x2299(%rip),%rsi        # 16a62 <g_1623+0x1a0a>
   147c9:	48 89 c7             	mov    %rax,%rdi
   147cc:	e8 22 2f ff ff       	callq  76f3 <transparent_crc>
   147d1:	48 8b 05 80 66 00 00 	mov    0x6680(%rip),%rax        # 1ae58 <g_2415>
   147d8:	48 89 c1             	mov    %rax,%rcx
   147db:	8b 45 fc             	mov    -0x4(%rbp),%eax
   147de:	89 c2                	mov    %eax,%edx
   147e0:	48 8d 35 82 22 00 00 	lea    0x2282(%rip),%rsi        # 16a69 <g_1623+0x1a11>
   147e7:	48 89 cf             	mov    %rcx,%rdi
   147ea:	e8 04 2f ff ff       	callq  76f3 <transparent_crc>
   147ef:	48 8b 05 6a 66 00 00 	mov    0x666a(%rip),%rax        # 1ae60 <g_2426>
   147f6:	25 ff ff ff 01       	and    $0x1ffffff,%eax
   147fb:	89 c1                	mov    %eax,%ecx
   147fd:	8b 45 fc             	mov    -0x4(%rbp),%eax
   14800:	89 c2                	mov    %eax,%edx
   14802:	48 8d 35 67 22 00 00 	lea    0x2267(%rip),%rsi        # 16a70 <g_1623+0x1a18>
   14809:	48 89 cf             	mov    %rcx,%rdi
   1480c:	e8 e2 2e ff ff       	callq  76f3 <transparent_crc>
   14811:	48 8b 05 48 66 00 00 	mov    0x6648(%rip),%rax        # 1ae60 <g_2426>
   14818:	48 c1 e0 1d          	shl    $0x1d,%rax
   1481c:	48 c1 f8 36          	sar    $0x36,%rax
   14820:	48 0f bf c0          	movswq %ax,%rax
   14824:	8b 55 fc             	mov    -0x4(%rbp),%edx
   14827:	48 8d 35 4c 22 00 00 	lea    0x224c(%rip),%rsi        # 16a7a <g_1623+0x1a22>
   1482e:	48 89 c7             	mov    %rax,%rdi
   14831:	e8 bd 2e ff ff       	callq  76f3 <transparent_crc>
   14836:	48 8b 05 23 66 00 00 	mov    0x6623(%rip),%rax        # 1ae60 <g_2426>
   1483d:	48 c1 e0 19          	shl    $0x19,%rax
   14841:	48 c1 f8 3c          	sar    $0x3c,%rax
   14845:	48 0f be c0          	movsbq %al,%rax
   14849:	8b 55 fc             	mov    -0x4(%rbp),%edx
   1484c:	48 8d 35 31 22 00 00 	lea    0x2231(%rip),%rsi        # 16a84 <g_1623+0x1a2c>
   14853:	48 89 c7             	mov    %rax,%rdi
   14856:	e8 98 2e ff ff       	callq  76f3 <transparent_crc>
   1485b:	8b 05 04 66 00 00    	mov    0x6604(%rip),%eax        # 1ae65 <g_2426+0x5>
   14861:	89 c1                	mov    %eax,%ecx
   14863:	8b 45 fc             	mov    -0x4(%rbp),%eax
   14866:	89 c2                	mov    %eax,%edx
   14868:	48 8d 35 1f 22 00 00 	lea    0x221f(%rip),%rsi        # 16a8e <g_1623+0x1a36>
   1486f:	48 89 cf             	mov    %rcx,%rdi
   14872:	e8 7c 2e ff ff       	callq  76f3 <transparent_crc>
   14877:	48 8b 05 ea 65 00 00 	mov    0x65ea(%rip),%rax        # 1ae68 <g_2426+0x8>
   1487e:	48 c1 e8 08          	shr    $0x8,%rax
   14882:	83 e0 01             	and    $0x1,%eax
   14885:	0f b6 c0             	movzbl %al,%eax
   14888:	8b 55 fc             	mov    -0x4(%rbp),%edx
   1488b:	48 8d 35 06 22 00 00 	lea    0x2206(%rip),%rsi        # 16a98 <g_1623+0x1a40>
   14892:	48 89 c7             	mov    %rax,%rdi
   14895:	e8 59 2e ff ff       	callq  76f3 <transparent_crc>
   1489a:	48 8b 05 c7 65 00 00 	mov    0x65c7(%rip),%rax        # 1ae68 <g_2426+0x8>
   148a1:	c1 e0 0e             	shl    $0xe,%eax
   148a4:	c1 f8 17             	sar    $0x17,%eax
   148a7:	48 0f bf c0          	movswq %ax,%rax
   148ab:	8b 55 fc             	mov    -0x4(%rbp),%edx
   148ae:	48 8d 35 ed 21 00 00 	lea    0x21ed(%rip),%rsi        # 16aa2 <g_1623+0x1a4a>
   148b5:	48 89 c7             	mov    %rax,%rdi
   148b8:	e8 36 2e ff ff       	callq  76f3 <transparent_crc>
   148bd:	8b 05 5d 57 00 00    	mov    0x575d(%rip),%eax        # 1a020 <crc32_context>
   148c3:	f7 d0                	not    %eax
   148c5:	89 c2                	mov    %eax,%edx
   148c7:	8b 45 fc             	mov    -0x4(%rbp),%eax
   148ca:	89 c6                	mov    %eax,%esi
   148cc:	89 d7                	mov    %edx,%edi
   148ce:	e8 c1 18 ff ff       	callq  6194 <platform_main_end>
   148d3:	b8 00 00 00 00       	mov    $0x0,%eax
   148d8:	c9                   	leaveq 
   148d9:	c3                   	retq   
   148da:	66 0f 1f 44 00 00    	nopw   0x0(%rax,%rax,1)

00000000000148e0 <__libc_csu_init>:
   148e0:	f3 0f 1e fa          	endbr64 
   148e4:	41 57                	push   %r15
   148e6:	4c 8d 3d 63 4c 00 00 	lea    0x4c63(%rip),%r15        # 19550 <__frame_dummy_init_array_entry>
   148ed:	41 56                	push   %r14
   148ef:	49 89 d6             	mov    %rdx,%r14
   148f2:	41 55                	push   %r13
   148f4:	49 89 f5             	mov    %rsi,%r13
   148f7:	41 54                	push   %r12
   148f9:	41 89 fc             	mov    %edi,%r12d
   148fc:	55                   	push   %rbp
   148fd:	48 8d 2d 54 4c 00 00 	lea    0x4c54(%rip),%rbp        # 19558 <__do_global_dtors_aux_fini_array_entry>
   14904:	53                   	push   %rbx
   14905:	4c 29 fd             	sub    %r15,%rbp
   14908:	48 83 ec 08          	sub    $0x8,%rsp
   1490c:	e8 ef 16 ff ff       	callq  6000 <_init>
   14911:	48 c1 fd 03          	sar    $0x3,%rbp
   14915:	74 1f                	je     14936 <__libc_csu_init+0x56>
   14917:	31 db                	xor    %ebx,%ebx
   14919:	0f 1f 80 00 00 00 00 	nopl   0x0(%rax)
   14920:	4c 89 f2             	mov    %r14,%rdx
   14923:	4c 89 ee             	mov    %r13,%rsi
   14926:	44 89 e7             	mov    %r12d,%edi
   14929:	41 ff 14 df          	callq  *(%r15,%rbx,8)
   1492d:	48 83 c3 01          	add    $0x1,%rbx
   14931:	48 39 dd             	cmp    %rbx,%rbp
   14934:	75 ea                	jne    14920 <__libc_csu_init+0x40>
   14936:	48 83 c4 08          	add    $0x8,%rsp
   1493a:	5b                   	pop    %rbx
   1493b:	5d                   	pop    %rbp
   1493c:	41 5c                	pop    %r12
   1493e:	41 5d                	pop    %r13
   14940:	41 5e                	pop    %r14
   14942:	41 5f                	pop    %r15
   14944:	c3                   	retq   
   14945:	66 66 2e 0f 1f 84 00 	data16 nopw %cs:0x0(%rax,%rax,1)
   1494c:	00 00 00 00 

0000000000014950 <__libc_csu_fini>:
   14950:	f3 0f 1e fa          	endbr64 
   14954:	c3                   	retq   
