


Disassembly of section .text:

000000000000a0a0 <_start>:
    a0a0:	f3 0f 1e fa          	endbr64 
    a0a4:	31 ed                	xor    %ebp,%ebp
    a0a6:	49 89 d1             	mov    %rdx,%r9
    a0a9:	5e                   	pop    %rsi
    a0aa:	48 89 e2             	mov    %rsp,%rdx
    a0ad:	48 83 e4 f0          	and    $0xfffffffffffffff0,%rsp
    a0b1:	50                   	push   %rax
    a0b2:	54                   	push   %rsp
    a0b3:	4c 8d 05 16 e4 00 00 	lea    0xe416(%rip),%r8        # 184d0 <__libc_csu_fini>
    a0ba:	48 8d 0d 9f e3 00 00 	lea    0xe39f(%rip),%rcx        # 18460 <__libc_csu_init>
    a0c1:	48 8d 3d 70 d6 00 00 	lea    0xd670(%rip),%rdi        # 17738 <main>
    a0c8:	ff 15 0a 2f 01 00    	callq  *0x12f0a(%rip)        # 1cfd8 <__libc_start_main@GLIBC_2.2.5>
    a0ce:	f4                   	hlt    
    a0cf:	90                   	nop

000000000000a0d0 <deregister_tm_clones>:
    a0d0:	48 8d 3d 89 6e 01 00 	lea    0x16e89(%rip),%rdi        # 20f60 <__TMC_END__>
    a0d7:	48 8d 05 82 6e 01 00 	lea    0x16e82(%rip),%rax        # 20f60 <__TMC_END__>
    a0de:	48 39 f8             	cmp    %rdi,%rax
    a0e1:	74 15                	je     a0f8 <deregister_tm_clones+0x28>
    a0e3:	48 8b 05 e6 2e 01 00 	mov    0x12ee6(%rip),%rax        # 1cfd0 <_ITM_deregisterTMCloneTable>
    a0ea:	48 85 c0             	test   %rax,%rax
    a0ed:	74 09                	je     a0f8 <deregister_tm_clones+0x28>
    a0ef:	ff e0                	jmpq   *%rax
    a0f1:	0f 1f 80 00 00 00 00 	nopl   0x0(%rax)
    a0f8:	c3                   	retq   
    a0f9:	0f 1f 80 00 00 00 00 	nopl   0x0(%rax)

000000000000a100 <register_tm_clones>:
    a100:	48 8d 3d 59 6e 01 00 	lea    0x16e59(%rip),%rdi        # 20f60 <__TMC_END__>
    a107:	48 8d 35 52 6e 01 00 	lea    0x16e52(%rip),%rsi        # 20f60 <__TMC_END__>
    a10e:	48 29 fe             	sub    %rdi,%rsi
    a111:	48 89 f0             	mov    %rsi,%rax
    a114:	48 c1 ee 3f          	shr    $0x3f,%rsi
    a118:	48 c1 f8 03          	sar    $0x3,%rax
    a11c:	48 01 c6             	add    %rax,%rsi
    a11f:	48 d1 fe             	sar    %rsi
    a122:	74 14                	je     a138 <register_tm_clones+0x38>
    a124:	48 8b 05 bd 2e 01 00 	mov    0x12ebd(%rip),%rax        # 1cfe8 <_ITM_registerTMCloneTable>
    a12b:	48 85 c0             	test   %rax,%rax
    a12e:	74 08                	je     a138 <register_tm_clones+0x38>
    a130:	ff e0                	jmpq   *%rax
    a132:	66 0f 1f 44 00 00    	nopw   0x0(%rax,%rax,1)
    a138:	c3                   	retq   
    a139:	0f 1f 80 00 00 00 00 	nopl   0x0(%rax)

000000000000a140 <__do_global_dtors_aux>:
    a140:	f3 0f 1e fa          	endbr64 
    a144:	80 3d 15 6e 01 00 00 	cmpb   $0x0,0x16e15(%rip)        # 20f60 <__TMC_END__>
    a14b:	75 2b                	jne    a178 <__do_global_dtors_aux+0x38>
    a14d:	55                   	push   %rbp
    a14e:	48 83 3d 9a 2e 01 00 	cmpq   $0x0,0x12e9a(%rip)        # 1cff0 <__cxa_finalize@GLIBC_2.2.5>
    a155:	00 
    a156:	48 89 e5             	mov    %rsp,%rbp
    a159:	74 0c                	je     a167 <__do_global_dtors_aux+0x27>
    a15b:	48 8b 3d a6 2e 01 00 	mov    0x12ea6(%rip),%rdi        # 1d008 <__dso_handle>
    a162:	e8 f9 fe ff ff       	callq  a060 <__cxa_finalize@plt>
    a167:	e8 64 ff ff ff       	callq  a0d0 <deregister_tm_clones>
    a16c:	c6 05 ed 6d 01 00 01 	movb   $0x1,0x16ded(%rip)        # 20f60 <__TMC_END__>
    a173:	5d                   	pop    %rbp
    a174:	c3                   	retq   
    a175:	0f 1f 00             	nopl   (%rax)
    a178:	c3                   	retq   
    a179:	0f 1f 80 00 00 00 00 	nopl   0x0(%rax)

000000000000a180 <frame_dummy>:
    a180:	f3 0f 1e fa          	endbr64 
    a184:	e9 77 ff ff ff       	jmpq   a100 <register_tm_clones>

000000000000a189 <platform_main_begin>:
    a189:	f3 0f 1e fa          	endbr64 
    a18d:	55                   	push   %rbp
    a18e:	48 89 e5             	mov    %rsp,%rbp
    a191:	90                   	nop
    a192:	5d                   	pop    %rbp
    a193:	c3                   	retq   

000000000000a194 <platform_main_end>:
    a194:	f3 0f 1e fa          	endbr64 
    a198:	55                   	push   %rbp
    a199:	48 89 e5             	mov    %rsp,%rbp
    a19c:	48 83 ec 10          	sub    $0x10,%rsp
    a1a0:	89 7d fc             	mov    %edi,-0x4(%rbp)
    a1a3:	89 75 f8             	mov    %esi,-0x8(%rbp)
    a1a6:	8b 45 fc             	mov    -0x4(%rbp),%eax
    a1a9:	89 c6                	mov    %eax,%esi
    a1ab:	48 8d 3d 6e ee 00 00 	lea    0xee6e(%rip),%rdi        # 19020 <_IO_stdin_used+0x20>
    a1b2:	b8 00 00 00 00       	mov    $0x0,%eax
    a1b7:	e8 c4 fe ff ff       	callq  a080 <printf@plt>
    a1bc:	90                   	nop
    a1bd:	c9                   	leaveq 
    a1be:	c3                   	retq   

000000000000a1bf <safe_unary_minus_func_int8_t_s>:
    a1bf:	f3 0f 1e fa          	endbr64 
    a1c3:	55                   	push   %rbp
    a1c4:	48 89 e5             	mov    %rsp,%rbp
    a1c7:	89 f8                	mov    %edi,%eax
    a1c9:	88 45 fc             	mov    %al,-0x4(%rbp)
    a1cc:	0f b6 45 fc          	movzbl -0x4(%rbp),%eax
    a1d0:	f7 d8                	neg    %eax
    a1d2:	5d                   	pop    %rbp
    a1d3:	c3                   	retq   

000000000000a1d4 <safe_add_func_int8_t_s_s>:
    a1d4:	f3 0f 1e fa          	endbr64 
    a1d8:	55                   	push   %rbp
    a1d9:	48 89 e5             	mov    %rsp,%rbp
    a1dc:	89 fa                	mov    %edi,%edx
    a1de:	89 f0                	mov    %esi,%eax
    a1e0:	88 55 fc             	mov    %dl,-0x4(%rbp)
    a1e3:	88 45 f8             	mov    %al,-0x8(%rbp)
    a1e6:	0f b6 55 fc          	movzbl -0x4(%rbp),%edx
    a1ea:	0f b6 45 f8          	movzbl -0x8(%rbp),%eax
    a1ee:	01 d0                	add    %edx,%eax
    a1f0:	5d                   	pop    %rbp
    a1f1:	c3                   	retq   

000000000000a1f2 <safe_sub_func_int8_t_s_s>:
    a1f2:	f3 0f 1e fa          	endbr64 
    a1f6:	55                   	push   %rbp
    a1f7:	48 89 e5             	mov    %rsp,%rbp
    a1fa:	89 fa                	mov    %edi,%edx
    a1fc:	89 f0                	mov    %esi,%eax
    a1fe:	88 55 fc             	mov    %dl,-0x4(%rbp)
    a201:	88 45 f8             	mov    %al,-0x8(%rbp)
    a204:	0f b6 55 fc          	movzbl -0x4(%rbp),%edx
    a208:	0f b6 45 f8          	movzbl -0x8(%rbp),%eax
    a20c:	29 c2                	sub    %eax,%edx
    a20e:	89 d0                	mov    %edx,%eax
    a210:	5d                   	pop    %rbp
    a211:	c3                   	retq   

000000000000a212 <safe_mul_func_int8_t_s_s>:
    a212:	f3 0f 1e fa          	endbr64 
    a216:	55                   	push   %rbp
    a217:	48 89 e5             	mov    %rsp,%rbp
    a21a:	89 fa                	mov    %edi,%edx
    a21c:	89 f0                	mov    %esi,%eax
    a21e:	88 55 fc             	mov    %dl,-0x4(%rbp)
    a221:	88 45 f8             	mov    %al,-0x8(%rbp)
    a224:	0f b6 45 fc          	movzbl -0x4(%rbp),%eax
    a228:	0f b6 55 f8          	movzbl -0x8(%rbp),%edx
    a22c:	0f af c2             	imul   %edx,%eax
    a22f:	5d                   	pop    %rbp
    a230:	c3                   	retq   

000000000000a231 <safe_mod_func_int8_t_s_s>:
    a231:	f3 0f 1e fa          	endbr64 
    a235:	55                   	push   %rbp
    a236:	48 89 e5             	mov    %rsp,%rbp
    a239:	89 fa                	mov    %edi,%edx
    a23b:	89 f0                	mov    %esi,%eax
    a23d:	88 55 fc             	mov    %dl,-0x4(%rbp)
    a240:	88 45 f8             	mov    %al,-0x8(%rbp)
    a243:	80 7d f8 00          	cmpb   $0x0,-0x8(%rbp)
    a247:	74 1b                	je     a264 <safe_mod_func_int8_t_s_s+0x33>
    a249:	80 7d fc 80          	cmpb   $0x80,-0x4(%rbp)
    a24d:	75 06                	jne    a255 <safe_mod_func_int8_t_s_s+0x24>
    a24f:	80 7d f8 ff          	cmpb   $0xff,-0x8(%rbp)
    a253:	74 0f                	je     a264 <safe_mod_func_int8_t_s_s+0x33>
    a255:	0f be 45 fc          	movsbl -0x4(%rbp),%eax
    a259:	0f be 4d f8          	movsbl -0x8(%rbp),%ecx
    a25d:	99                   	cltd   
    a25e:	f7 f9                	idiv   %ecx
    a260:	89 d0                	mov    %edx,%eax
    a262:	eb 04                	jmp    a268 <safe_mod_func_int8_t_s_s+0x37>
    a264:	0f b6 45 fc          	movzbl -0x4(%rbp),%eax
    a268:	5d                   	pop    %rbp
    a269:	c3                   	retq   

000000000000a26a <safe_div_func_int8_t_s_s>:
    a26a:	f3 0f 1e fa          	endbr64 
    a26e:	55                   	push   %rbp
    a26f:	48 89 e5             	mov    %rsp,%rbp
    a272:	89 fa                	mov    %edi,%edx
    a274:	89 f0                	mov    %esi,%eax
    a276:	88 55 fc             	mov    %dl,-0x4(%rbp)
    a279:	88 45 f8             	mov    %al,-0x8(%rbp)
    a27c:	80 7d f8 00          	cmpb   $0x0,-0x8(%rbp)
    a280:	74 19                	je     a29b <safe_div_func_int8_t_s_s+0x31>
    a282:	80 7d fc 80          	cmpb   $0x80,-0x4(%rbp)
    a286:	75 06                	jne    a28e <safe_div_func_int8_t_s_s+0x24>
    a288:	80 7d f8 ff          	cmpb   $0xff,-0x8(%rbp)
    a28c:	74 0d                	je     a29b <safe_div_func_int8_t_s_s+0x31>
    a28e:	0f be 45 fc          	movsbl -0x4(%rbp),%eax
    a292:	0f be 4d f8          	movsbl -0x8(%rbp),%ecx
    a296:	99                   	cltd   
    a297:	f7 f9                	idiv   %ecx
    a299:	eb 04                	jmp    a29f <safe_div_func_int8_t_s_s+0x35>
    a29b:	0f b6 45 fc          	movzbl -0x4(%rbp),%eax
    a29f:	5d                   	pop    %rbp
    a2a0:	c3                   	retq   

000000000000a2a1 <safe_lshift_func_int8_t_s_s>:
    a2a1:	f3 0f 1e fa          	endbr64 
    a2a5:	55                   	push   %rbp
    a2a6:	48 89 e5             	mov    %rsp,%rbp
    a2a9:	89 f8                	mov    %edi,%eax
    a2ab:	89 75 f8             	mov    %esi,-0x8(%rbp)
    a2ae:	88 45 fc             	mov    %al,-0x4(%rbp)
    a2b1:	80 7d fc 00          	cmpb   $0x0,-0x4(%rbp)
    a2b5:	78 31                	js     a2e8 <safe_lshift_func_int8_t_s_s+0x47>
    a2b7:	83 7d f8 00          	cmpl   $0x0,-0x8(%rbp)
    a2bb:	78 2b                	js     a2e8 <safe_lshift_func_int8_t_s_s+0x47>
    a2bd:	83 7d f8 1f          	cmpl   $0x1f,-0x8(%rbp)
    a2c1:	7f 25                	jg     a2e8 <safe_lshift_func_int8_t_s_s+0x47>
    a2c3:	0f be 55 fc          	movsbl -0x4(%rbp),%edx
    a2c7:	8b 45 f8             	mov    -0x8(%rbp),%eax
    a2ca:	be 7f 00 00 00       	mov    $0x7f,%esi
    a2cf:	89 c1                	mov    %eax,%ecx
    a2d1:	d3 fe                	sar    %cl,%esi
    a2d3:	89 f0                	mov    %esi,%eax
    a2d5:	39 c2                	cmp    %eax,%edx
    a2d7:	7f 0f                	jg     a2e8 <safe_lshift_func_int8_t_s_s+0x47>
    a2d9:	0f be 55 fc          	movsbl -0x4(%rbp),%edx
    a2dd:	8b 45 f8             	mov    -0x8(%rbp),%eax
    a2e0:	89 c1                	mov    %eax,%ecx
    a2e2:	d3 e2                	shl    %cl,%edx
    a2e4:	89 d0                	mov    %edx,%eax
    a2e6:	eb 04                	jmp    a2ec <safe_lshift_func_int8_t_s_s+0x4b>
    a2e8:	0f b6 45 fc          	movzbl -0x4(%rbp),%eax
    a2ec:	5d                   	pop    %rbp
    a2ed:	c3                   	retq   

000000000000a2ee <safe_lshift_func_int8_t_s_u>:
    a2ee:	f3 0f 1e fa          	endbr64 
    a2f2:	55                   	push   %rbp
    a2f3:	48 89 e5             	mov    %rsp,%rbp
    a2f6:	89 f8                	mov    %edi,%eax
    a2f8:	89 75 f8             	mov    %esi,-0x8(%rbp)
    a2fb:	88 45 fc             	mov    %al,-0x4(%rbp)
    a2fe:	80 7d fc 00          	cmpb   $0x0,-0x4(%rbp)
    a302:	78 2b                	js     a32f <safe_lshift_func_int8_t_s_u+0x41>
    a304:	83 7d f8 1f          	cmpl   $0x1f,-0x8(%rbp)
    a308:	77 25                	ja     a32f <safe_lshift_func_int8_t_s_u+0x41>
    a30a:	0f be 55 fc          	movsbl -0x4(%rbp),%edx
    a30e:	8b 45 f8             	mov    -0x8(%rbp),%eax
    a311:	be 7f 00 00 00       	mov    $0x7f,%esi
    a316:	89 c1                	mov    %eax,%ecx
    a318:	d3 fe                	sar    %cl,%esi
    a31a:	89 f0                	mov    %esi,%eax
    a31c:	39 c2                	cmp    %eax,%edx
    a31e:	7f 0f                	jg     a32f <safe_lshift_func_int8_t_s_u+0x41>
    a320:	0f be 55 fc          	movsbl -0x4(%rbp),%edx
    a324:	8b 45 f8             	mov    -0x8(%rbp),%eax
    a327:	89 c1                	mov    %eax,%ecx
    a329:	d3 e2                	shl    %cl,%edx
    a32b:	89 d0                	mov    %edx,%eax
    a32d:	eb 04                	jmp    a333 <safe_lshift_func_int8_t_s_u+0x45>
    a32f:	0f b6 45 fc          	movzbl -0x4(%rbp),%eax
    a333:	5d                   	pop    %rbp
    a334:	c3                   	retq   

000000000000a335 <safe_rshift_func_int8_t_s_s>:
    a335:	f3 0f 1e fa          	endbr64 
    a339:	55                   	push   %rbp
    a33a:	48 89 e5             	mov    %rsp,%rbp
    a33d:	89 f8                	mov    %edi,%eax
    a33f:	89 75 f8             	mov    %esi,-0x8(%rbp)
    a342:	88 45 fc             	mov    %al,-0x4(%rbp)
    a345:	80 7d fc 00          	cmpb   $0x0,-0x4(%rbp)
    a349:	78 1b                	js     a366 <safe_rshift_func_int8_t_s_s+0x31>
    a34b:	83 7d f8 00          	cmpl   $0x0,-0x8(%rbp)
    a34f:	78 15                	js     a366 <safe_rshift_func_int8_t_s_s+0x31>
    a351:	83 7d f8 1f          	cmpl   $0x1f,-0x8(%rbp)
    a355:	7f 0f                	jg     a366 <safe_rshift_func_int8_t_s_s+0x31>
    a357:	0f be 55 fc          	movsbl -0x4(%rbp),%edx
    a35b:	8b 45 f8             	mov    -0x8(%rbp),%eax
    a35e:	89 c1                	mov    %eax,%ecx
    a360:	d3 fa                	sar    %cl,%edx
    a362:	89 d0                	mov    %edx,%eax
    a364:	eb 04                	jmp    a36a <safe_rshift_func_int8_t_s_s+0x35>
    a366:	0f b6 45 fc          	movzbl -0x4(%rbp),%eax
    a36a:	5d                   	pop    %rbp
    a36b:	c3                   	retq   

000000000000a36c <safe_rshift_func_int8_t_s_u>:
    a36c:	f3 0f 1e fa          	endbr64 
    a370:	55                   	push   %rbp
    a371:	48 89 e5             	mov    %rsp,%rbp
    a374:	89 f8                	mov    %edi,%eax
    a376:	89 75 f8             	mov    %esi,-0x8(%rbp)
    a379:	88 45 fc             	mov    %al,-0x4(%rbp)
    a37c:	80 7d fc 00          	cmpb   $0x0,-0x4(%rbp)
    a380:	78 15                	js     a397 <safe_rshift_func_int8_t_s_u+0x2b>
    a382:	83 7d f8 1f          	cmpl   $0x1f,-0x8(%rbp)
    a386:	77 0f                	ja     a397 <safe_rshift_func_int8_t_s_u+0x2b>
    a388:	0f be 55 fc          	movsbl -0x4(%rbp),%edx
    a38c:	8b 45 f8             	mov    -0x8(%rbp),%eax
    a38f:	89 c1                	mov    %eax,%ecx
    a391:	d3 fa                	sar    %cl,%edx
    a393:	89 d0                	mov    %edx,%eax
    a395:	eb 04                	jmp    a39b <safe_rshift_func_int8_t_s_u+0x2f>
    a397:	0f b6 45 fc          	movzbl -0x4(%rbp),%eax
    a39b:	5d                   	pop    %rbp
    a39c:	c3                   	retq   

000000000000a39d <safe_unary_minus_func_int16_t_s>:
    a39d:	f3 0f 1e fa          	endbr64 
    a3a1:	55                   	push   %rbp
    a3a2:	48 89 e5             	mov    %rsp,%rbp
    a3a5:	89 f8                	mov    %edi,%eax
    a3a7:	66 89 45 fc          	mov    %ax,-0x4(%rbp)
    a3ab:	0f b7 45 fc          	movzwl -0x4(%rbp),%eax
    a3af:	f7 d8                	neg    %eax
    a3b1:	5d                   	pop    %rbp
    a3b2:	c3                   	retq   

000000000000a3b3 <safe_add_func_int16_t_s_s>:
    a3b3:	f3 0f 1e fa          	endbr64 
    a3b7:	55                   	push   %rbp
    a3b8:	48 89 e5             	mov    %rsp,%rbp
    a3bb:	89 fa                	mov    %edi,%edx
    a3bd:	89 f0                	mov    %esi,%eax
    a3bf:	66 89 55 fc          	mov    %dx,-0x4(%rbp)
    a3c3:	66 89 45 f8          	mov    %ax,-0x8(%rbp)
    a3c7:	0f b7 55 fc          	movzwl -0x4(%rbp),%edx
    a3cb:	0f b7 45 f8          	movzwl -0x8(%rbp),%eax
    a3cf:	01 d0                	add    %edx,%eax
    a3d1:	5d                   	pop    %rbp
    a3d2:	c3                   	retq   

000000000000a3d3 <safe_sub_func_int16_t_s_s>:
    a3d3:	f3 0f 1e fa          	endbr64 
    a3d7:	55                   	push   %rbp
    a3d8:	48 89 e5             	mov    %rsp,%rbp
    a3db:	89 fa                	mov    %edi,%edx
    a3dd:	89 f0                	mov    %esi,%eax
    a3df:	66 89 55 fc          	mov    %dx,-0x4(%rbp)
    a3e3:	66 89 45 f8          	mov    %ax,-0x8(%rbp)
    a3e7:	0f b7 55 fc          	movzwl -0x4(%rbp),%edx
    a3eb:	0f b7 45 f8          	movzwl -0x8(%rbp),%eax
    a3ef:	29 c2                	sub    %eax,%edx
    a3f1:	89 d0                	mov    %edx,%eax
    a3f3:	5d                   	pop    %rbp
    a3f4:	c3                   	retq   

000000000000a3f5 <safe_mul_func_int16_t_s_s>:
    a3f5:	f3 0f 1e fa          	endbr64 
    a3f9:	55                   	push   %rbp
    a3fa:	48 89 e5             	mov    %rsp,%rbp
    a3fd:	89 fa                	mov    %edi,%edx
    a3ff:	89 f0                	mov    %esi,%eax
    a401:	66 89 55 fc          	mov    %dx,-0x4(%rbp)
    a405:	66 89 45 f8          	mov    %ax,-0x8(%rbp)
    a409:	0f b7 55 fc          	movzwl -0x4(%rbp),%edx
    a40d:	0f b7 45 f8          	movzwl -0x8(%rbp),%eax
    a411:	0f af c2             	imul   %edx,%eax
    a414:	5d                   	pop    %rbp
    a415:	c3                   	retq   

000000000000a416 <safe_mod_func_int16_t_s_s>:
    a416:	f3 0f 1e fa          	endbr64 
    a41a:	55                   	push   %rbp
    a41b:	48 89 e5             	mov    %rsp,%rbp
    a41e:	89 fa                	mov    %edi,%edx
    a420:	89 f0                	mov    %esi,%eax
    a422:	66 89 55 fc          	mov    %dx,-0x4(%rbp)
    a426:	66 89 45 f8          	mov    %ax,-0x8(%rbp)
    a42a:	66 83 7d f8 00       	cmpw   $0x0,-0x8(%rbp)
    a42f:	74 1e                	je     a44f <safe_mod_func_int16_t_s_s+0x39>
    a431:	66 81 7d fc 00 80    	cmpw   $0x8000,-0x4(%rbp)
    a437:	75 07                	jne    a440 <safe_mod_func_int16_t_s_s+0x2a>
    a439:	66 83 7d f8 ff       	cmpw   $0xffff,-0x8(%rbp)
    a43e:	74 0f                	je     a44f <safe_mod_func_int16_t_s_s+0x39>
    a440:	0f bf 45 fc          	movswl -0x4(%rbp),%eax
    a444:	0f bf 4d f8          	movswl -0x8(%rbp),%ecx
    a448:	99                   	cltd   
    a449:	f7 f9                	idiv   %ecx
    a44b:	89 d0                	mov    %edx,%eax
    a44d:	eb 04                	jmp    a453 <safe_mod_func_int16_t_s_s+0x3d>
    a44f:	0f b7 45 fc          	movzwl -0x4(%rbp),%eax
    a453:	5d                   	pop    %rbp
    a454:	c3                   	retq   

000000000000a455 <safe_div_func_int16_t_s_s>:
    a455:	f3 0f 1e fa          	endbr64 
    a459:	55                   	push   %rbp
    a45a:	48 89 e5             	mov    %rsp,%rbp
    a45d:	89 fa                	mov    %edi,%edx
    a45f:	89 f0                	mov    %esi,%eax
    a461:	66 89 55 fc          	mov    %dx,-0x4(%rbp)
    a465:	66 89 45 f8          	mov    %ax,-0x8(%rbp)
    a469:	66 83 7d f8 00       	cmpw   $0x0,-0x8(%rbp)
    a46e:	74 1c                	je     a48c <safe_div_func_int16_t_s_s+0x37>
    a470:	66 81 7d fc 00 80    	cmpw   $0x8000,-0x4(%rbp)
    a476:	75 07                	jne    a47f <safe_div_func_int16_t_s_s+0x2a>
    a478:	66 83 7d f8 ff       	cmpw   $0xffff,-0x8(%rbp)
    a47d:	74 0d                	je     a48c <safe_div_func_int16_t_s_s+0x37>
    a47f:	0f bf 45 fc          	movswl -0x4(%rbp),%eax
    a483:	0f bf 4d f8          	movswl -0x8(%rbp),%ecx
    a487:	99                   	cltd   
    a488:	f7 f9                	idiv   %ecx
    a48a:	eb 04                	jmp    a490 <safe_div_func_int16_t_s_s+0x3b>
    a48c:	0f b7 45 fc          	movzwl -0x4(%rbp),%eax
    a490:	5d                   	pop    %rbp
    a491:	c3                   	retq   

000000000000a492 <safe_lshift_func_int16_t_s_s>:
    a492:	f3 0f 1e fa          	endbr64 
    a496:	55                   	push   %rbp
    a497:	48 89 e5             	mov    %rsp,%rbp
    a49a:	89 f8                	mov    %edi,%eax
    a49c:	89 75 f8             	mov    %esi,-0x8(%rbp)
    a49f:	66 89 45 fc          	mov    %ax,-0x4(%rbp)
    a4a3:	66 83 7d fc 00       	cmpw   $0x0,-0x4(%rbp)
    a4a8:	78 31                	js     a4db <safe_lshift_func_int16_t_s_s+0x49>
    a4aa:	83 7d f8 00          	cmpl   $0x0,-0x8(%rbp)
    a4ae:	78 2b                	js     a4db <safe_lshift_func_int16_t_s_s+0x49>
    a4b0:	83 7d f8 1f          	cmpl   $0x1f,-0x8(%rbp)
    a4b4:	7f 25                	jg     a4db <safe_lshift_func_int16_t_s_s+0x49>
    a4b6:	0f bf 55 fc          	movswl -0x4(%rbp),%edx
    a4ba:	8b 45 f8             	mov    -0x8(%rbp),%eax
    a4bd:	be ff 7f 00 00       	mov    $0x7fff,%esi
    a4c2:	89 c1                	mov    %eax,%ecx
    a4c4:	d3 fe                	sar    %cl,%esi
    a4c6:	89 f0                	mov    %esi,%eax
    a4c8:	39 c2                	cmp    %eax,%edx
    a4ca:	7f 0f                	jg     a4db <safe_lshift_func_int16_t_s_s+0x49>
    a4cc:	0f bf 55 fc          	movswl -0x4(%rbp),%edx
    a4d0:	8b 45 f8             	mov    -0x8(%rbp),%eax
    a4d3:	89 c1                	mov    %eax,%ecx
    a4d5:	d3 e2                	shl    %cl,%edx
    a4d7:	89 d0                	mov    %edx,%eax
    a4d9:	eb 04                	jmp    a4df <safe_lshift_func_int16_t_s_s+0x4d>
    a4db:	0f b7 45 fc          	movzwl -0x4(%rbp),%eax
    a4df:	5d                   	pop    %rbp
    a4e0:	c3                   	retq   

000000000000a4e1 <safe_lshift_func_int16_t_s_u>:
    a4e1:	f3 0f 1e fa          	endbr64 
    a4e5:	55                   	push   %rbp
    a4e6:	48 89 e5             	mov    %rsp,%rbp
    a4e9:	89 f8                	mov    %edi,%eax
    a4eb:	89 75 f8             	mov    %esi,-0x8(%rbp)
    a4ee:	66 89 45 fc          	mov    %ax,-0x4(%rbp)
    a4f2:	66 83 7d fc 00       	cmpw   $0x0,-0x4(%rbp)
    a4f7:	78 2b                	js     a524 <safe_lshift_func_int16_t_s_u+0x43>
    a4f9:	83 7d f8 1f          	cmpl   $0x1f,-0x8(%rbp)
    a4fd:	77 25                	ja     a524 <safe_lshift_func_int16_t_s_u+0x43>
    a4ff:	0f bf 55 fc          	movswl -0x4(%rbp),%edx
    a503:	8b 45 f8             	mov    -0x8(%rbp),%eax
    a506:	be ff 7f 00 00       	mov    $0x7fff,%esi
    a50b:	89 c1                	mov    %eax,%ecx
    a50d:	d3 fe                	sar    %cl,%esi
    a50f:	89 f0                	mov    %esi,%eax
    a511:	39 c2                	cmp    %eax,%edx
    a513:	7f 0f                	jg     a524 <safe_lshift_func_int16_t_s_u+0x43>
    a515:	0f bf 55 fc          	movswl -0x4(%rbp),%edx
    a519:	8b 45 f8             	mov    -0x8(%rbp),%eax
    a51c:	89 c1                	mov    %eax,%ecx
    a51e:	d3 e2                	shl    %cl,%edx
    a520:	89 d0                	mov    %edx,%eax
    a522:	eb 04                	jmp    a528 <safe_lshift_func_int16_t_s_u+0x47>
    a524:	0f b7 45 fc          	movzwl -0x4(%rbp),%eax
    a528:	5d                   	pop    %rbp
    a529:	c3                   	retq   

000000000000a52a <safe_rshift_func_int16_t_s_s>:
    a52a:	f3 0f 1e fa          	endbr64 
    a52e:	55                   	push   %rbp
    a52f:	48 89 e5             	mov    %rsp,%rbp
    a532:	89 f8                	mov    %edi,%eax
    a534:	89 75 f8             	mov    %esi,-0x8(%rbp)
    a537:	66 89 45 fc          	mov    %ax,-0x4(%rbp)
    a53b:	66 83 7d fc 00       	cmpw   $0x0,-0x4(%rbp)
    a540:	78 1b                	js     a55d <safe_rshift_func_int16_t_s_s+0x33>
    a542:	83 7d f8 00          	cmpl   $0x0,-0x8(%rbp)
    a546:	78 15                	js     a55d <safe_rshift_func_int16_t_s_s+0x33>
    a548:	83 7d f8 1f          	cmpl   $0x1f,-0x8(%rbp)
    a54c:	7f 0f                	jg     a55d <safe_rshift_func_int16_t_s_s+0x33>
    a54e:	0f bf 55 fc          	movswl -0x4(%rbp),%edx
    a552:	8b 45 f8             	mov    -0x8(%rbp),%eax
    a555:	89 c1                	mov    %eax,%ecx
    a557:	d3 fa                	sar    %cl,%edx
    a559:	89 d0                	mov    %edx,%eax
    a55b:	eb 04                	jmp    a561 <safe_rshift_func_int16_t_s_s+0x37>
    a55d:	0f b7 45 fc          	movzwl -0x4(%rbp),%eax
    a561:	5d                   	pop    %rbp
    a562:	c3                   	retq   

000000000000a563 <safe_rshift_func_int16_t_s_u>:
    a563:	f3 0f 1e fa          	endbr64 
    a567:	55                   	push   %rbp
    a568:	48 89 e5             	mov    %rsp,%rbp
    a56b:	89 f8                	mov    %edi,%eax
    a56d:	89 75 f8             	mov    %esi,-0x8(%rbp)
    a570:	66 89 45 fc          	mov    %ax,-0x4(%rbp)
    a574:	66 83 7d fc 00       	cmpw   $0x0,-0x4(%rbp)
    a579:	78 15                	js     a590 <safe_rshift_func_int16_t_s_u+0x2d>
    a57b:	83 7d f8 1f          	cmpl   $0x1f,-0x8(%rbp)
    a57f:	77 0f                	ja     a590 <safe_rshift_func_int16_t_s_u+0x2d>
    a581:	0f bf 55 fc          	movswl -0x4(%rbp),%edx
    a585:	8b 45 f8             	mov    -0x8(%rbp),%eax
    a588:	89 c1                	mov    %eax,%ecx
    a58a:	d3 fa                	sar    %cl,%edx
    a58c:	89 d0                	mov    %edx,%eax
    a58e:	eb 04                	jmp    a594 <safe_rshift_func_int16_t_s_u+0x31>
    a590:	0f b7 45 fc          	movzwl -0x4(%rbp),%eax
    a594:	5d                   	pop    %rbp
    a595:	c3                   	retq   

000000000000a596 <safe_unary_minus_func_int32_t_s>:
    a596:	f3 0f 1e fa          	endbr64 
    a59a:	55                   	push   %rbp
    a59b:	48 89 e5             	mov    %rsp,%rbp
    a59e:	89 7d fc             	mov    %edi,-0x4(%rbp)
    a5a1:	81 7d fc 00 00 00 80 	cmpl   $0x80000000,-0x4(%rbp)
    a5a8:	74 07                	je     a5b1 <safe_unary_minus_func_int32_t_s+0x1b>
    a5aa:	8b 45 fc             	mov    -0x4(%rbp),%eax
    a5ad:	f7 d8                	neg    %eax
    a5af:	eb 03                	jmp    a5b4 <safe_unary_minus_func_int32_t_s+0x1e>
    a5b1:	8b 45 fc             	mov    -0x4(%rbp),%eax
    a5b4:	5d                   	pop    %rbp
    a5b5:	c3                   	retq   

000000000000a5b6 <safe_add_func_int32_t_s_s>:
    a5b6:	f3 0f 1e fa          	endbr64 
    a5ba:	55                   	push   %rbp
    a5bb:	48 89 e5             	mov    %rsp,%rbp
    a5be:	89 7d fc             	mov    %edi,-0x4(%rbp)
    a5c1:	89 75 f8             	mov    %esi,-0x8(%rbp)
    a5c4:	83 7d fc 00          	cmpl   $0x0,-0x4(%rbp)
    a5c8:	7e 13                	jle    a5dd <safe_add_func_int32_t_s_s+0x27>
    a5ca:	83 7d f8 00          	cmpl   $0x0,-0x8(%rbp)
    a5ce:	7e 0d                	jle    a5dd <safe_add_func_int32_t_s_s+0x27>
    a5d0:	b8 ff ff ff 7f       	mov    $0x7fffffff,%eax
    a5d5:	2b 45 f8             	sub    -0x8(%rbp),%eax
    a5d8:	39 45 fc             	cmp    %eax,-0x4(%rbp)
    a5db:	7f 23                	jg     a600 <safe_add_func_int32_t_s_s+0x4a>
    a5dd:	83 7d fc 00          	cmpl   $0x0,-0x4(%rbp)
    a5e1:	79 13                	jns    a5f6 <safe_add_func_int32_t_s_s+0x40>
    a5e3:	83 7d f8 00          	cmpl   $0x0,-0x8(%rbp)
    a5e7:	79 0d                	jns    a5f6 <safe_add_func_int32_t_s_s+0x40>
    a5e9:	b8 00 00 00 80       	mov    $0x80000000,%eax
    a5ee:	2b 45 f8             	sub    -0x8(%rbp),%eax
    a5f1:	39 45 fc             	cmp    %eax,-0x4(%rbp)
    a5f4:	7c 0a                	jl     a600 <safe_add_func_int32_t_s_s+0x4a>
    a5f6:	8b 55 fc             	mov    -0x4(%rbp),%edx
    a5f9:	8b 45 f8             	mov    -0x8(%rbp),%eax
    a5fc:	01 d0                	add    %edx,%eax
    a5fe:	eb 03                	jmp    a603 <safe_add_func_int32_t_s_s+0x4d>
    a600:	8b 45 fc             	mov    -0x4(%rbp),%eax
    a603:	5d                   	pop    %rbp
    a604:	c3                   	retq   

000000000000a605 <safe_sub_func_int32_t_s_s>:
    a605:	f3 0f 1e fa          	endbr64 
    a609:	55                   	push   %rbp
    a60a:	48 89 e5             	mov    %rsp,%rbp
    a60d:	89 7d fc             	mov    %edi,-0x4(%rbp)
    a610:	89 75 f8             	mov    %esi,-0x8(%rbp)
    a613:	8b 45 fc             	mov    -0x4(%rbp),%eax
    a616:	33 45 f8             	xor    -0x8(%rbp),%eax
    a619:	89 c2                	mov    %eax,%edx
    a61b:	8b 45 fc             	mov    -0x4(%rbp),%eax
    a61e:	33 45 f8             	xor    -0x8(%rbp),%eax
    a621:	25 00 00 00 80       	and    $0x80000000,%eax
    a626:	33 45 fc             	xor    -0x4(%rbp),%eax
    a629:	2b 45 f8             	sub    -0x8(%rbp),%eax
    a62c:	33 45 f8             	xor    -0x8(%rbp),%eax
    a62f:	21 d0                	and    %edx,%eax
    a631:	85 c0                	test   %eax,%eax
    a633:	78 08                	js     a63d <safe_sub_func_int32_t_s_s+0x38>
    a635:	8b 45 fc             	mov    -0x4(%rbp),%eax
    a638:	2b 45 f8             	sub    -0x8(%rbp),%eax
    a63b:	eb 03                	jmp    a640 <safe_sub_func_int32_t_s_s+0x3b>
    a63d:	8b 45 fc             	mov    -0x4(%rbp),%eax
    a640:	5d                   	pop    %rbp
    a641:	c3                   	retq   

000000000000a642 <safe_mul_func_int32_t_s_s>:
    a642:	f3 0f 1e fa          	endbr64 
    a646:	55                   	push   %rbp
    a647:	48 89 e5             	mov    %rsp,%rbp
    a64a:	89 7d fc             	mov    %edi,-0x4(%rbp)
    a64d:	89 75 f8             	mov    %esi,-0x8(%rbp)
    a650:	83 7d fc 00          	cmpl   $0x0,-0x4(%rbp)
    a654:	7e 14                	jle    a66a <safe_mul_func_int32_t_s_s+0x28>
    a656:	83 7d f8 00          	cmpl   $0x0,-0x8(%rbp)
    a65a:	7e 0e                	jle    a66a <safe_mul_func_int32_t_s_s+0x28>
    a65c:	b8 ff ff ff 7f       	mov    $0x7fffffff,%eax
    a661:	99                   	cltd   
    a662:	f7 7d f8             	idivl  -0x8(%rbp)
    a665:	39 45 fc             	cmp    %eax,-0x4(%rbp)
    a668:	7f 5d                	jg     a6c7 <safe_mul_func_int32_t_s_s+0x85>
    a66a:	83 7d fc 00          	cmpl   $0x0,-0x4(%rbp)
    a66e:	7e 14                	jle    a684 <safe_mul_func_int32_t_s_s+0x42>
    a670:	83 7d f8 00          	cmpl   $0x0,-0x8(%rbp)
    a674:	7f 0e                	jg     a684 <safe_mul_func_int32_t_s_s+0x42>
    a676:	b8 00 00 00 80       	mov    $0x80000000,%eax
    a67b:	99                   	cltd   
    a67c:	f7 7d fc             	idivl  -0x4(%rbp)
    a67f:	39 45 f8             	cmp    %eax,-0x8(%rbp)
    a682:	7c 43                	jl     a6c7 <safe_mul_func_int32_t_s_s+0x85>
    a684:	83 7d fc 00          	cmpl   $0x0,-0x4(%rbp)
    a688:	7f 14                	jg     a69e <safe_mul_func_int32_t_s_s+0x5c>
    a68a:	83 7d f8 00          	cmpl   $0x0,-0x8(%rbp)
    a68e:	7e 0e                	jle    a69e <safe_mul_func_int32_t_s_s+0x5c>
    a690:	b8 00 00 00 80       	mov    $0x80000000,%eax
    a695:	99                   	cltd   
    a696:	f7 7d f8             	idivl  -0x8(%rbp)
    a699:	39 45 fc             	cmp    %eax,-0x4(%rbp)
    a69c:	7c 29                	jl     a6c7 <safe_mul_func_int32_t_s_s+0x85>
    a69e:	83 7d fc 00          	cmpl   $0x0,-0x4(%rbp)
    a6a2:	7f 1a                	jg     a6be <safe_mul_func_int32_t_s_s+0x7c>
    a6a4:	83 7d f8 00          	cmpl   $0x0,-0x8(%rbp)
    a6a8:	7f 14                	jg     a6be <safe_mul_func_int32_t_s_s+0x7c>
    a6aa:	83 7d fc 00          	cmpl   $0x0,-0x4(%rbp)
    a6ae:	74 0e                	je     a6be <safe_mul_func_int32_t_s_s+0x7c>
    a6b0:	b8 ff ff ff 7f       	mov    $0x7fffffff,%eax
    a6b5:	99                   	cltd   
    a6b6:	f7 7d fc             	idivl  -0x4(%rbp)
    a6b9:	39 45 f8             	cmp    %eax,-0x8(%rbp)
    a6bc:	7c 09                	jl     a6c7 <safe_mul_func_int32_t_s_s+0x85>
    a6be:	8b 45 fc             	mov    -0x4(%rbp),%eax
    a6c1:	0f af 45 f8          	imul   -0x8(%rbp),%eax
    a6c5:	eb 03                	jmp    a6ca <safe_mul_func_int32_t_s_s+0x88>
    a6c7:	8b 45 fc             	mov    -0x4(%rbp),%eax
    a6ca:	5d                   	pop    %rbp
    a6cb:	c3                   	retq   

000000000000a6cc <safe_mod_func_int32_t_s_s>:
    a6cc:	f3 0f 1e fa          	endbr64 
    a6d0:	55                   	push   %rbp
    a6d1:	48 89 e5             	mov    %rsp,%rbp
    a6d4:	89 7d fc             	mov    %edi,-0x4(%rbp)
    a6d7:	89 75 f8             	mov    %esi,-0x8(%rbp)
    a6da:	83 7d f8 00          	cmpl   $0x0,-0x8(%rbp)
    a6de:	74 1a                	je     a6fa <safe_mod_func_int32_t_s_s+0x2e>
    a6e0:	81 7d fc 00 00 00 80 	cmpl   $0x80000000,-0x4(%rbp)
    a6e7:	75 06                	jne    a6ef <safe_mod_func_int32_t_s_s+0x23>
    a6e9:	83 7d f8 ff          	cmpl   $0xffffffff,-0x8(%rbp)
    a6ed:	74 0b                	je     a6fa <safe_mod_func_int32_t_s_s+0x2e>
    a6ef:	8b 45 fc             	mov    -0x4(%rbp),%eax
    a6f2:	99                   	cltd   
    a6f3:	f7 7d f8             	idivl  -0x8(%rbp)
    a6f6:	89 d0                	mov    %edx,%eax
    a6f8:	eb 03                	jmp    a6fd <safe_mod_func_int32_t_s_s+0x31>
    a6fa:	8b 45 fc             	mov    -0x4(%rbp),%eax
    a6fd:	5d                   	pop    %rbp
    a6fe:	c3                   	retq   

000000000000a6ff <safe_div_func_int32_t_s_s>:
    a6ff:	f3 0f 1e fa          	endbr64 
    a703:	55                   	push   %rbp
    a704:	48 89 e5             	mov    %rsp,%rbp
    a707:	89 7d fc             	mov    %edi,-0x4(%rbp)
    a70a:	89 75 f8             	mov    %esi,-0x8(%rbp)
    a70d:	83 7d f8 00          	cmpl   $0x0,-0x8(%rbp)
    a711:	74 18                	je     a72b <safe_div_func_int32_t_s_s+0x2c>
    a713:	81 7d fc 00 00 00 80 	cmpl   $0x80000000,-0x4(%rbp)
    a71a:	75 06                	jne    a722 <safe_div_func_int32_t_s_s+0x23>
    a71c:	83 7d f8 ff          	cmpl   $0xffffffff,-0x8(%rbp)
    a720:	74 09                	je     a72b <safe_div_func_int32_t_s_s+0x2c>
    a722:	8b 45 fc             	mov    -0x4(%rbp),%eax
    a725:	99                   	cltd   
    a726:	f7 7d f8             	idivl  -0x8(%rbp)
    a729:	eb 03                	jmp    a72e <safe_div_func_int32_t_s_s+0x2f>
    a72b:	8b 45 fc             	mov    -0x4(%rbp),%eax
    a72e:	5d                   	pop    %rbp
    a72f:	c3                   	retq   

000000000000a730 <safe_lshift_func_int32_t_s_s>:
    a730:	f3 0f 1e fa          	endbr64 
    a734:	55                   	push   %rbp
    a735:	48 89 e5             	mov    %rsp,%rbp
    a738:	89 7d fc             	mov    %edi,-0x4(%rbp)
    a73b:	89 75 f8             	mov    %esi,-0x8(%rbp)
    a73e:	83 7d fc 00          	cmpl   $0x0,-0x4(%rbp)
    a742:	78 2d                	js     a771 <safe_lshift_func_int32_t_s_s+0x41>
    a744:	83 7d f8 00          	cmpl   $0x0,-0x8(%rbp)
    a748:	78 27                	js     a771 <safe_lshift_func_int32_t_s_s+0x41>
    a74a:	83 7d f8 1f          	cmpl   $0x1f,-0x8(%rbp)
    a74e:	7f 21                	jg     a771 <safe_lshift_func_int32_t_s_s+0x41>
    a750:	8b 45 f8             	mov    -0x8(%rbp),%eax
    a753:	ba ff ff ff 7f       	mov    $0x7fffffff,%edx
    a758:	89 c1                	mov    %eax,%ecx
    a75a:	d3 fa                	sar    %cl,%edx
    a75c:	89 d0                	mov    %edx,%eax
    a75e:	39 45 fc             	cmp    %eax,-0x4(%rbp)
    a761:	7f 0e                	jg     a771 <safe_lshift_func_int32_t_s_s+0x41>
    a763:	8b 45 f8             	mov    -0x8(%rbp),%eax
    a766:	8b 55 fc             	mov    -0x4(%rbp),%edx
    a769:	89 c1                	mov    %eax,%ecx
    a76b:	d3 e2                	shl    %cl,%edx
    a76d:	89 d0                	mov    %edx,%eax
    a76f:	eb 03                	jmp    a774 <safe_lshift_func_int32_t_s_s+0x44>
    a771:	8b 45 fc             	mov    -0x4(%rbp),%eax
    a774:	5d                   	pop    %rbp
    a775:	c3                   	retq   

000000000000a776 <safe_lshift_func_int32_t_s_u>:
    a776:	f3 0f 1e fa          	endbr64 
    a77a:	55                   	push   %rbp
    a77b:	48 89 e5             	mov    %rsp,%rbp
    a77e:	89 7d fc             	mov    %edi,-0x4(%rbp)
    a781:	89 75 f8             	mov    %esi,-0x8(%rbp)
    a784:	83 7d fc 00          	cmpl   $0x0,-0x4(%rbp)
    a788:	78 27                	js     a7b1 <safe_lshift_func_int32_t_s_u+0x3b>
    a78a:	83 7d f8 1f          	cmpl   $0x1f,-0x8(%rbp)
    a78e:	77 21                	ja     a7b1 <safe_lshift_func_int32_t_s_u+0x3b>
    a790:	8b 45 f8             	mov    -0x8(%rbp),%eax
    a793:	ba ff ff ff 7f       	mov    $0x7fffffff,%edx
    a798:	89 c1                	mov    %eax,%ecx
    a79a:	d3 fa                	sar    %cl,%edx
    a79c:	89 d0                	mov    %edx,%eax
    a79e:	39 45 fc             	cmp    %eax,-0x4(%rbp)
    a7a1:	7f 0e                	jg     a7b1 <safe_lshift_func_int32_t_s_u+0x3b>
    a7a3:	8b 45 f8             	mov    -0x8(%rbp),%eax
    a7a6:	8b 55 fc             	mov    -0x4(%rbp),%edx
    a7a9:	89 c1                	mov    %eax,%ecx
    a7ab:	d3 e2                	shl    %cl,%edx
    a7ad:	89 d0                	mov    %edx,%eax
    a7af:	eb 03                	jmp    a7b4 <safe_lshift_func_int32_t_s_u+0x3e>
    a7b1:	8b 45 fc             	mov    -0x4(%rbp),%eax
    a7b4:	5d                   	pop    %rbp
    a7b5:	c3                   	retq   

000000000000a7b6 <safe_rshift_func_int32_t_s_s>:
    a7b6:	f3 0f 1e fa          	endbr64 
    a7ba:	55                   	push   %rbp
    a7bb:	48 89 e5             	mov    %rsp,%rbp
    a7be:	89 7d fc             	mov    %edi,-0x4(%rbp)
    a7c1:	89 75 f8             	mov    %esi,-0x8(%rbp)
    a7c4:	83 7d fc 00          	cmpl   $0x0,-0x4(%rbp)
    a7c8:	78 1a                	js     a7e4 <safe_rshift_func_int32_t_s_s+0x2e>
    a7ca:	83 7d f8 00          	cmpl   $0x0,-0x8(%rbp)
    a7ce:	78 14                	js     a7e4 <safe_rshift_func_int32_t_s_s+0x2e>
    a7d0:	83 7d f8 1f          	cmpl   $0x1f,-0x8(%rbp)
    a7d4:	7f 0e                	jg     a7e4 <safe_rshift_func_int32_t_s_s+0x2e>
    a7d6:	8b 45 f8             	mov    -0x8(%rbp),%eax
    a7d9:	8b 55 fc             	mov    -0x4(%rbp),%edx
    a7dc:	89 c1                	mov    %eax,%ecx
    a7de:	d3 fa                	sar    %cl,%edx
    a7e0:	89 d0                	mov    %edx,%eax
    a7e2:	eb 03                	jmp    a7e7 <safe_rshift_func_int32_t_s_s+0x31>
    a7e4:	8b 45 fc             	mov    -0x4(%rbp),%eax
    a7e7:	5d                   	pop    %rbp
    a7e8:	c3                   	retq   

000000000000a7e9 <safe_rshift_func_int32_t_s_u>:
    a7e9:	f3 0f 1e fa          	endbr64 
    a7ed:	55                   	push   %rbp
    a7ee:	48 89 e5             	mov    %rsp,%rbp
    a7f1:	89 7d fc             	mov    %edi,-0x4(%rbp)
    a7f4:	89 75 f8             	mov    %esi,-0x8(%rbp)
    a7f7:	83 7d fc 00          	cmpl   $0x0,-0x4(%rbp)
    a7fb:	78 14                	js     a811 <safe_rshift_func_int32_t_s_u+0x28>
    a7fd:	83 7d f8 1f          	cmpl   $0x1f,-0x8(%rbp)
    a801:	77 0e                	ja     a811 <safe_rshift_func_int32_t_s_u+0x28>
    a803:	8b 45 f8             	mov    -0x8(%rbp),%eax
    a806:	8b 55 fc             	mov    -0x4(%rbp),%edx
    a809:	89 c1                	mov    %eax,%ecx
    a80b:	d3 fa                	sar    %cl,%edx
    a80d:	89 d0                	mov    %edx,%eax
    a80f:	eb 03                	jmp    a814 <safe_rshift_func_int32_t_s_u+0x2b>
    a811:	8b 45 fc             	mov    -0x4(%rbp),%eax
    a814:	5d                   	pop    %rbp
    a815:	c3                   	retq   

000000000000a816 <safe_unary_minus_func_int64_t_s>:
    a816:	f3 0f 1e fa          	endbr64 
    a81a:	55                   	push   %rbp
    a81b:	48 89 e5             	mov    %rsp,%rbp
    a81e:	48 89 7d f8          	mov    %rdi,-0x8(%rbp)
    a822:	48 b8 00 00 00 00 00 	movabs $0x8000000000000000,%rax
    a829:	00 00 80 
    a82c:	48 39 45 f8          	cmp    %rax,-0x8(%rbp)
    a830:	74 09                	je     a83b <safe_unary_minus_func_int64_t_s+0x25>
    a832:	48 8b 45 f8          	mov    -0x8(%rbp),%rax
    a836:	48 f7 d8             	neg    %rax
    a839:	eb 04                	jmp    a83f <safe_unary_minus_func_int64_t_s+0x29>
    a83b:	48 8b 45 f8          	mov    -0x8(%rbp),%rax
    a83f:	5d                   	pop    %rbp
    a840:	c3                   	retq   

000000000000a841 <safe_add_func_int64_t_s_s>:
    a841:	f3 0f 1e fa          	endbr64 
    a845:	55                   	push   %rbp
    a846:	48 89 e5             	mov    %rsp,%rbp
    a849:	48 89 7d f8          	mov    %rdi,-0x8(%rbp)
    a84d:	48 89 75 f0          	mov    %rsi,-0x10(%rbp)
    a851:	48 83 7d f8 00       	cmpq   $0x0,-0x8(%rbp)
    a856:	7e 1b                	jle    a873 <safe_add_func_int64_t_s_s+0x32>
    a858:	48 83 7d f0 00       	cmpq   $0x0,-0x10(%rbp)
    a85d:	7e 14                	jle    a873 <safe_add_func_int64_t_s_s+0x32>
    a85f:	48 b8 ff ff ff ff ff 	movabs $0x7fffffffffffffff,%rax
    a866:	ff ff 7f 
    a869:	48 2b 45 f0          	sub    -0x10(%rbp),%rax
    a86d:	48 39 45 f8          	cmp    %rax,-0x8(%rbp)
    a871:	7f 2f                	jg     a8a2 <safe_add_func_int64_t_s_s+0x61>
    a873:	48 83 7d f8 00       	cmpq   $0x0,-0x8(%rbp)
    a878:	79 1b                	jns    a895 <safe_add_func_int64_t_s_s+0x54>
    a87a:	48 83 7d f0 00       	cmpq   $0x0,-0x10(%rbp)
    a87f:	79 14                	jns    a895 <safe_add_func_int64_t_s_s+0x54>
    a881:	48 b8 00 00 00 00 00 	movabs $0x8000000000000000,%rax
    a888:	00 00 80 
    a88b:	48 2b 45 f0          	sub    -0x10(%rbp),%rax
    a88f:	48 39 45 f8          	cmp    %rax,-0x8(%rbp)
    a893:	7c 0d                	jl     a8a2 <safe_add_func_int64_t_s_s+0x61>
    a895:	48 8b 55 f8          	mov    -0x8(%rbp),%rdx
    a899:	48 8b 45 f0          	mov    -0x10(%rbp),%rax
    a89d:	48 01 d0             	add    %rdx,%rax
    a8a0:	eb 04                	jmp    a8a6 <safe_add_func_int64_t_s_s+0x65>
    a8a2:	48 8b 45 f8          	mov    -0x8(%rbp),%rax
    a8a6:	5d                   	pop    %rbp
    a8a7:	c3                   	retq   

000000000000a8a8 <safe_sub_func_int64_t_s_s>:
    a8a8:	f3 0f 1e fa          	endbr64 
    a8ac:	55                   	push   %rbp
    a8ad:	48 89 e5             	mov    %rsp,%rbp
    a8b0:	48 89 7d f8          	mov    %rdi,-0x8(%rbp)
    a8b4:	48 89 75 f0          	mov    %rsi,-0x10(%rbp)
    a8b8:	48 8b 45 f8          	mov    -0x8(%rbp),%rax
    a8bc:	48 33 45 f0          	xor    -0x10(%rbp),%rax
    a8c0:	48 89 c2             	mov    %rax,%rdx
    a8c3:	48 8b 45 f8          	mov    -0x8(%rbp),%rax
    a8c7:	48 33 45 f0          	xor    -0x10(%rbp),%rax
    a8cb:	48 b9 00 00 00 00 00 	movabs $0x8000000000000000,%rcx
    a8d2:	00 00 80 
    a8d5:	48 21 c8             	and    %rcx,%rax
    a8d8:	48 33 45 f8          	xor    -0x8(%rbp),%rax
    a8dc:	48 2b 45 f0          	sub    -0x10(%rbp),%rax
    a8e0:	48 33 45 f0          	xor    -0x10(%rbp),%rax
    a8e4:	48 21 d0             	and    %rdx,%rax
    a8e7:	48 85 c0             	test   %rax,%rax
    a8ea:	78 0a                	js     a8f6 <safe_sub_func_int64_t_s_s+0x4e>
    a8ec:	48 8b 45 f8          	mov    -0x8(%rbp),%rax
    a8f0:	48 2b 45 f0          	sub    -0x10(%rbp),%rax
    a8f4:	eb 04                	jmp    a8fa <safe_sub_func_int64_t_s_s+0x52>
    a8f6:	48 8b 45 f8          	mov    -0x8(%rbp),%rax
    a8fa:	5d                   	pop    %rbp
    a8fb:	c3                   	retq   

000000000000a8fc <safe_mul_func_int64_t_s_s>:
    a8fc:	f3 0f 1e fa          	endbr64 
    a900:	55                   	push   %rbp
    a901:	48 89 e5             	mov    %rsp,%rbp
    a904:	48 89 7d f8          	mov    %rdi,-0x8(%rbp)
    a908:	48 89 75 f0          	mov    %rsi,-0x10(%rbp)
    a90c:	48 83 7d f8 00       	cmpq   $0x0,-0x8(%rbp)
    a911:	7e 1d                	jle    a930 <safe_mul_func_int64_t_s_s+0x34>
    a913:	48 83 7d f0 00       	cmpq   $0x0,-0x10(%rbp)
    a918:	7e 16                	jle    a930 <safe_mul_func_int64_t_s_s+0x34>
    a91a:	48 b8 ff ff ff ff ff 	movabs $0x7fffffffffffffff,%rax
    a921:	ff ff 7f 
    a924:	48 99                	cqto   
    a926:	48 f7 7d f0          	idivq  -0x10(%rbp)
    a92a:	48 39 45 f8          	cmp    %rax,-0x8(%rbp)
    a92e:	7f 7e                	jg     a9ae <safe_mul_func_int64_t_s_s+0xb2>
    a930:	48 83 7d f8 00       	cmpq   $0x0,-0x8(%rbp)
    a935:	7e 1d                	jle    a954 <safe_mul_func_int64_t_s_s+0x58>
    a937:	48 83 7d f0 00       	cmpq   $0x0,-0x10(%rbp)
    a93c:	7f 16                	jg     a954 <safe_mul_func_int64_t_s_s+0x58>
    a93e:	48 b8 00 00 00 00 00 	movabs $0x8000000000000000,%rax
    a945:	00 00 80 
    a948:	48 99                	cqto   
    a94a:	48 f7 7d f8          	idivq  -0x8(%rbp)
    a94e:	48 39 45 f0          	cmp    %rax,-0x10(%rbp)
    a952:	7c 5a                	jl     a9ae <safe_mul_func_int64_t_s_s+0xb2>
    a954:	48 83 7d f8 00       	cmpq   $0x0,-0x8(%rbp)
    a959:	7f 1d                	jg     a978 <safe_mul_func_int64_t_s_s+0x7c>
    a95b:	48 83 7d f0 00       	cmpq   $0x0,-0x10(%rbp)
    a960:	7e 16                	jle    a978 <safe_mul_func_int64_t_s_s+0x7c>
    a962:	48 b8 00 00 00 00 00 	movabs $0x8000000000000000,%rax
    a969:	00 00 80 
    a96c:	48 99                	cqto   
    a96e:	48 f7 7d f0          	idivq  -0x10(%rbp)
    a972:	48 39 45 f8          	cmp    %rax,-0x8(%rbp)
    a976:	7c 36                	jl     a9ae <safe_mul_func_int64_t_s_s+0xb2>
    a978:	48 83 7d f8 00       	cmpq   $0x0,-0x8(%rbp)
    a97d:	7f 24                	jg     a9a3 <safe_mul_func_int64_t_s_s+0xa7>
    a97f:	48 83 7d f0 00       	cmpq   $0x0,-0x10(%rbp)
    a984:	7f 1d                	jg     a9a3 <safe_mul_func_int64_t_s_s+0xa7>
    a986:	48 83 7d f8 00       	cmpq   $0x0,-0x8(%rbp)
    a98b:	74 16                	je     a9a3 <safe_mul_func_int64_t_s_s+0xa7>
    a98d:	48 b8 ff ff ff ff ff 	movabs $0x7fffffffffffffff,%rax
    a994:	ff ff 7f 
    a997:	48 99                	cqto   
    a999:	48 f7 7d f8          	idivq  -0x8(%rbp)
    a99d:	48 39 45 f0          	cmp    %rax,-0x10(%rbp)
    a9a1:	7c 0b                	jl     a9ae <safe_mul_func_int64_t_s_s+0xb2>
    a9a3:	48 8b 45 f8          	mov    -0x8(%rbp),%rax
    a9a7:	48 0f af 45 f0       	imul   -0x10(%rbp),%rax
    a9ac:	eb 04                	jmp    a9b2 <safe_mul_func_int64_t_s_s+0xb6>
    a9ae:	48 8b 45 f8          	mov    -0x8(%rbp),%rax
    a9b2:	5d                   	pop    %rbp
    a9b3:	c3                   	retq   

000000000000a9b4 <safe_mod_func_int64_t_s_s>:
    a9b4:	f3 0f 1e fa          	endbr64 
    a9b8:	55                   	push   %rbp
    a9b9:	48 89 e5             	mov    %rsp,%rbp
    a9bc:	48 89 7d f8          	mov    %rdi,-0x8(%rbp)
    a9c0:	48 89 75 f0          	mov    %rsi,-0x10(%rbp)
    a9c4:	48 83 7d f0 00       	cmpq   $0x0,-0x10(%rbp)
    a9c9:	74 26                	je     a9f1 <safe_mod_func_int64_t_s_s+0x3d>
    a9cb:	48 b8 00 00 00 00 00 	movabs $0x8000000000000000,%rax
    a9d2:	00 00 80 
    a9d5:	48 39 45 f8          	cmp    %rax,-0x8(%rbp)
    a9d9:	75 07                	jne    a9e2 <safe_mod_func_int64_t_s_s+0x2e>
    a9db:	48 83 7d f0 ff       	cmpq   $0xffffffffffffffff,-0x10(%rbp)
    a9e0:	74 0f                	je     a9f1 <safe_mod_func_int64_t_s_s+0x3d>
    a9e2:	48 8b 45 f8          	mov    -0x8(%rbp),%rax
    a9e6:	48 99                	cqto   
    a9e8:	48 f7 7d f0          	idivq  -0x10(%rbp)
    a9ec:	48 89 d0             	mov    %rdx,%rax
    a9ef:	eb 04                	jmp    a9f5 <safe_mod_func_int64_t_s_s+0x41>
    a9f1:	48 8b 45 f8          	mov    -0x8(%rbp),%rax
    a9f5:	5d                   	pop    %rbp
    a9f6:	c3                   	retq   

000000000000a9f7 <safe_div_func_int64_t_s_s>:
    a9f7:	f3 0f 1e fa          	endbr64 
    a9fb:	55                   	push   %rbp
    a9fc:	48 89 e5             	mov    %rsp,%rbp
    a9ff:	48 89 7d f8          	mov    %rdi,-0x8(%rbp)
    aa03:	48 89 75 f0          	mov    %rsi,-0x10(%rbp)
    aa07:	48 83 7d f0 00       	cmpq   $0x0,-0x10(%rbp)
    aa0c:	74 23                	je     aa31 <safe_div_func_int64_t_s_s+0x3a>
    aa0e:	48 b8 00 00 00 00 00 	movabs $0x8000000000000000,%rax
    aa15:	00 00 80 
    aa18:	48 39 45 f8          	cmp    %rax,-0x8(%rbp)
    aa1c:	75 07                	jne    aa25 <safe_div_func_int64_t_s_s+0x2e>
    aa1e:	48 83 7d f0 ff       	cmpq   $0xffffffffffffffff,-0x10(%rbp)
    aa23:	74 0c                	je     aa31 <safe_div_func_int64_t_s_s+0x3a>
    aa25:	48 8b 45 f8          	mov    -0x8(%rbp),%rax
    aa29:	48 99                	cqto   
    aa2b:	48 f7 7d f0          	idivq  -0x10(%rbp)
    aa2f:	eb 04                	jmp    aa35 <safe_div_func_int64_t_s_s+0x3e>
    aa31:	48 8b 45 f8          	mov    -0x8(%rbp),%rax
    aa35:	5d                   	pop    %rbp
    aa36:	c3                   	retq   

000000000000aa37 <safe_lshift_func_int64_t_s_s>:
    aa37:	f3 0f 1e fa          	endbr64 
    aa3b:	55                   	push   %rbp
    aa3c:	48 89 e5             	mov    %rsp,%rbp
    aa3f:	48 89 7d f8          	mov    %rdi,-0x8(%rbp)
    aa43:	89 75 f4             	mov    %esi,-0xc(%rbp)
    aa46:	48 83 7d f8 00       	cmpq   $0x0,-0x8(%rbp)
    aa4b:	78 38                	js     aa85 <safe_lshift_func_int64_t_s_s+0x4e>
    aa4d:	83 7d f4 00          	cmpl   $0x0,-0xc(%rbp)
    aa51:	78 32                	js     aa85 <safe_lshift_func_int64_t_s_s+0x4e>
    aa53:	83 7d f4 1f          	cmpl   $0x1f,-0xc(%rbp)
    aa57:	7f 2c                	jg     aa85 <safe_lshift_func_int64_t_s_s+0x4e>
    aa59:	8b 45 f4             	mov    -0xc(%rbp),%eax
    aa5c:	48 ba ff ff ff ff ff 	movabs $0x7fffffffffffffff,%rdx
    aa63:	ff ff 7f 
    aa66:	89 c1                	mov    %eax,%ecx
    aa68:	48 d3 fa             	sar    %cl,%rdx
    aa6b:	48 89 d0             	mov    %rdx,%rax
    aa6e:	48 39 45 f8          	cmp    %rax,-0x8(%rbp)
    aa72:	7f 11                	jg     aa85 <safe_lshift_func_int64_t_s_s+0x4e>
    aa74:	8b 45 f4             	mov    -0xc(%rbp),%eax
    aa77:	48 8b 55 f8          	mov    -0x8(%rbp),%rdx
    aa7b:	89 c1                	mov    %eax,%ecx
    aa7d:	48 d3 e2             	shl    %cl,%rdx
    aa80:	48 89 d0             	mov    %rdx,%rax
    aa83:	eb 04                	jmp    aa89 <safe_lshift_func_int64_t_s_s+0x52>
    aa85:	48 8b 45 f8          	mov    -0x8(%rbp),%rax
    aa89:	5d                   	pop    %rbp
    aa8a:	c3                   	retq   

000000000000aa8b <safe_lshift_func_int64_t_s_u>:
    aa8b:	f3 0f 1e fa          	endbr64 
    aa8f:	55                   	push   %rbp
    aa90:	48 89 e5             	mov    %rsp,%rbp
    aa93:	48 89 7d f8          	mov    %rdi,-0x8(%rbp)
    aa97:	89 75 f4             	mov    %esi,-0xc(%rbp)
    aa9a:	48 83 7d f8 00       	cmpq   $0x0,-0x8(%rbp)
    aa9f:	78 32                	js     aad3 <safe_lshift_func_int64_t_s_u+0x48>
    aaa1:	83 7d f4 1f          	cmpl   $0x1f,-0xc(%rbp)
    aaa5:	77 2c                	ja     aad3 <safe_lshift_func_int64_t_s_u+0x48>
    aaa7:	8b 45 f4             	mov    -0xc(%rbp),%eax
    aaaa:	48 ba ff ff ff ff ff 	movabs $0x7fffffffffffffff,%rdx
    aab1:	ff ff 7f 
    aab4:	89 c1                	mov    %eax,%ecx
    aab6:	48 d3 fa             	sar    %cl,%rdx
    aab9:	48 89 d0             	mov    %rdx,%rax
    aabc:	48 39 45 f8          	cmp    %rax,-0x8(%rbp)
    aac0:	7f 11                	jg     aad3 <safe_lshift_func_int64_t_s_u+0x48>
    aac2:	8b 45 f4             	mov    -0xc(%rbp),%eax
    aac5:	48 8b 55 f8          	mov    -0x8(%rbp),%rdx
    aac9:	89 c1                	mov    %eax,%ecx
    aacb:	48 d3 e2             	shl    %cl,%rdx
    aace:	48 89 d0             	mov    %rdx,%rax
    aad1:	eb 04                	jmp    aad7 <safe_lshift_func_int64_t_s_u+0x4c>
    aad3:	48 8b 45 f8          	mov    -0x8(%rbp),%rax
    aad7:	5d                   	pop    %rbp
    aad8:	c3                   	retq   

000000000000aad9 <safe_rshift_func_int64_t_s_s>:
    aad9:	f3 0f 1e fa          	endbr64 
    aadd:	55                   	push   %rbp
    aade:	48 89 e5             	mov    %rsp,%rbp
    aae1:	48 89 7d f8          	mov    %rdi,-0x8(%rbp)
    aae5:	89 75 f4             	mov    %esi,-0xc(%rbp)
    aae8:	48 83 7d f8 00       	cmpq   $0x0,-0x8(%rbp)
    aaed:	78 1d                	js     ab0c <safe_rshift_func_int64_t_s_s+0x33>
    aaef:	83 7d f4 00          	cmpl   $0x0,-0xc(%rbp)
    aaf3:	78 17                	js     ab0c <safe_rshift_func_int64_t_s_s+0x33>
    aaf5:	83 7d f4 1f          	cmpl   $0x1f,-0xc(%rbp)
    aaf9:	7f 11                	jg     ab0c <safe_rshift_func_int64_t_s_s+0x33>
    aafb:	8b 45 f4             	mov    -0xc(%rbp),%eax
    aafe:	48 8b 55 f8          	mov    -0x8(%rbp),%rdx
    ab02:	89 c1                	mov    %eax,%ecx
    ab04:	48 d3 fa             	sar    %cl,%rdx
    ab07:	48 89 d0             	mov    %rdx,%rax
    ab0a:	eb 04                	jmp    ab10 <safe_rshift_func_int64_t_s_s+0x37>
    ab0c:	48 8b 45 f8          	mov    -0x8(%rbp),%rax
    ab10:	5d                   	pop    %rbp
    ab11:	c3                   	retq   

000000000000ab12 <safe_rshift_func_int64_t_s_u>:
    ab12:	f3 0f 1e fa          	endbr64 
    ab16:	55                   	push   %rbp
    ab17:	48 89 e5             	mov    %rsp,%rbp
    ab1a:	48 89 7d f8          	mov    %rdi,-0x8(%rbp)
    ab1e:	89 75 f4             	mov    %esi,-0xc(%rbp)
    ab21:	48 83 7d f8 00       	cmpq   $0x0,-0x8(%rbp)
    ab26:	78 17                	js     ab3f <safe_rshift_func_int64_t_s_u+0x2d>
    ab28:	83 7d f4 1f          	cmpl   $0x1f,-0xc(%rbp)
    ab2c:	77 11                	ja     ab3f <safe_rshift_func_int64_t_s_u+0x2d>
    ab2e:	8b 45 f4             	mov    -0xc(%rbp),%eax
    ab31:	48 8b 55 f8          	mov    -0x8(%rbp),%rdx
    ab35:	89 c1                	mov    %eax,%ecx
    ab37:	48 d3 fa             	sar    %cl,%rdx
    ab3a:	48 89 d0             	mov    %rdx,%rax
    ab3d:	eb 04                	jmp    ab43 <safe_rshift_func_int64_t_s_u+0x31>
    ab3f:	48 8b 45 f8          	mov    -0x8(%rbp),%rax
    ab43:	5d                   	pop    %rbp
    ab44:	c3                   	retq   

000000000000ab45 <safe_unary_minus_func_uint8_t_u>:
    ab45:	f3 0f 1e fa          	endbr64 
    ab49:	55                   	push   %rbp
    ab4a:	48 89 e5             	mov    %rsp,%rbp
    ab4d:	89 f8                	mov    %edi,%eax
    ab4f:	88 45 fc             	mov    %al,-0x4(%rbp)
    ab52:	0f b6 45 fc          	movzbl -0x4(%rbp),%eax
    ab56:	f7 d8                	neg    %eax
    ab58:	5d                   	pop    %rbp
    ab59:	c3                   	retq   

000000000000ab5a <safe_add_func_uint8_t_u_u>:
    ab5a:	f3 0f 1e fa          	endbr64 
    ab5e:	55                   	push   %rbp
    ab5f:	48 89 e5             	mov    %rsp,%rbp
    ab62:	89 fa                	mov    %edi,%edx
    ab64:	89 f0                	mov    %esi,%eax
    ab66:	88 55 fc             	mov    %dl,-0x4(%rbp)
    ab69:	88 45 f8             	mov    %al,-0x8(%rbp)
    ab6c:	0f b6 55 fc          	movzbl -0x4(%rbp),%edx
    ab70:	0f b6 45 f8          	movzbl -0x8(%rbp),%eax
    ab74:	01 d0                	add    %edx,%eax
    ab76:	5d                   	pop    %rbp
    ab77:	c3                   	retq   

000000000000ab78 <safe_sub_func_uint8_t_u_u>:
    ab78:	f3 0f 1e fa          	endbr64 
    ab7c:	55                   	push   %rbp
    ab7d:	48 89 e5             	mov    %rsp,%rbp
    ab80:	89 fa                	mov    %edi,%edx
    ab82:	89 f0                	mov    %esi,%eax
    ab84:	88 55 fc             	mov    %dl,-0x4(%rbp)
    ab87:	88 45 f8             	mov    %al,-0x8(%rbp)
    ab8a:	0f b6 45 fc          	movzbl -0x4(%rbp),%eax
    ab8e:	2a 45 f8             	sub    -0x8(%rbp),%al
    ab91:	5d                   	pop    %rbp
    ab92:	c3                   	retq   

000000000000ab93 <safe_mul_func_uint8_t_u_u>:
    ab93:	f3 0f 1e fa          	endbr64 
    ab97:	55                   	push   %rbp
    ab98:	48 89 e5             	mov    %rsp,%rbp
    ab9b:	89 fa                	mov    %edi,%edx
    ab9d:	89 f0                	mov    %esi,%eax
    ab9f:	88 55 fc             	mov    %dl,-0x4(%rbp)
    aba2:	88 45 f8             	mov    %al,-0x8(%rbp)
    aba5:	0f b6 45 fc          	movzbl -0x4(%rbp),%eax
    aba9:	f6 65 f8             	mulb   -0x8(%rbp)
    abac:	5d                   	pop    %rbp
    abad:	c3                   	retq   

000000000000abae <safe_mod_func_uint8_t_u_u>:
    abae:	f3 0f 1e fa          	endbr64 
    abb2:	55                   	push   %rbp
    abb3:	48 89 e5             	mov    %rsp,%rbp
    abb6:	89 fa                	mov    %edi,%edx
    abb8:	89 f0                	mov    %esi,%eax
    abba:	88 55 fc             	mov    %dl,-0x4(%rbp)
    abbd:	88 45 f8             	mov    %al,-0x8(%rbp)
    abc0:	80 7d f8 00          	cmpb   $0x0,-0x8(%rbp)
    abc4:	74 0f                	je     abd5 <safe_mod_func_uint8_t_u_u+0x27>
    abc6:	0f b6 45 fc          	movzbl -0x4(%rbp),%eax
    abca:	0f b6 c0             	movzbl %al,%eax
    abcd:	f6 75 f8             	divb   -0x8(%rbp)
    abd0:	0f b6 c4             	movzbl %ah,%eax
    abd3:	eb 04                	jmp    abd9 <safe_mod_func_uint8_t_u_u+0x2b>
    abd5:	0f b6 45 fc          	movzbl -0x4(%rbp),%eax
    abd9:	5d                   	pop    %rbp
    abda:	c3                   	retq   

000000000000abdb <safe_div_func_uint8_t_u_u>:
    abdb:	f3 0f 1e fa          	endbr64 
    abdf:	55                   	push   %rbp
    abe0:	48 89 e5             	mov    %rsp,%rbp
    abe3:	89 fa                	mov    %edi,%edx
    abe5:	89 f0                	mov    %esi,%eax
    abe7:	88 55 fc             	mov    %dl,-0x4(%rbp)
    abea:	88 45 f8             	mov    %al,-0x8(%rbp)
    abed:	80 7d f8 00          	cmpb   $0x0,-0x8(%rbp)
    abf1:	74 0c                	je     abff <safe_div_func_uint8_t_u_u+0x24>
    abf3:	0f b6 45 fc          	movzbl -0x4(%rbp),%eax
    abf7:	0f b6 c0             	movzbl %al,%eax
    abfa:	f6 75 f8             	divb   -0x8(%rbp)
    abfd:	eb 04                	jmp    ac03 <safe_div_func_uint8_t_u_u+0x28>
    abff:	0f b6 45 fc          	movzbl -0x4(%rbp),%eax
    ac03:	5d                   	pop    %rbp
    ac04:	c3                   	retq   

000000000000ac05 <safe_lshift_func_uint8_t_u_s>:
    ac05:	f3 0f 1e fa          	endbr64 
    ac09:	55                   	push   %rbp
    ac0a:	48 89 e5             	mov    %rsp,%rbp
    ac0d:	89 f8                	mov    %edi,%eax
    ac0f:	89 75 f8             	mov    %esi,-0x8(%rbp)
    ac12:	88 45 fc             	mov    %al,-0x4(%rbp)
    ac15:	83 7d f8 00          	cmpl   $0x0,-0x8(%rbp)
    ac19:	78 2b                	js     ac46 <safe_lshift_func_uint8_t_u_s+0x41>
    ac1b:	83 7d f8 1f          	cmpl   $0x1f,-0x8(%rbp)
    ac1f:	7f 25                	jg     ac46 <safe_lshift_func_uint8_t_u_s+0x41>
    ac21:	0f b6 55 fc          	movzbl -0x4(%rbp),%edx
    ac25:	8b 45 f8             	mov    -0x8(%rbp),%eax
    ac28:	be ff 00 00 00       	mov    $0xff,%esi
    ac2d:	89 c1                	mov    %eax,%ecx
    ac2f:	d3 fe                	sar    %cl,%esi
    ac31:	89 f0                	mov    %esi,%eax
    ac33:	39 c2                	cmp    %eax,%edx
    ac35:	7f 0f                	jg     ac46 <safe_lshift_func_uint8_t_u_s+0x41>
    ac37:	0f b6 55 fc          	movzbl -0x4(%rbp),%edx
    ac3b:	8b 45 f8             	mov    -0x8(%rbp),%eax
    ac3e:	89 c1                	mov    %eax,%ecx
    ac40:	d3 e2                	shl    %cl,%edx
    ac42:	89 d0                	mov    %edx,%eax
    ac44:	eb 04                	jmp    ac4a <safe_lshift_func_uint8_t_u_s+0x45>
    ac46:	0f b6 45 fc          	movzbl -0x4(%rbp),%eax
    ac4a:	5d                   	pop    %rbp
    ac4b:	c3                   	retq   

000000000000ac4c <safe_lshift_func_uint8_t_u_u>:
    ac4c:	f3 0f 1e fa          	endbr64 
    ac50:	55                   	push   %rbp
    ac51:	48 89 e5             	mov    %rsp,%rbp
    ac54:	89 f8                	mov    %edi,%eax
    ac56:	89 75 f8             	mov    %esi,-0x8(%rbp)
    ac59:	88 45 fc             	mov    %al,-0x4(%rbp)
    ac5c:	83 7d f8 1f          	cmpl   $0x1f,-0x8(%rbp)
    ac60:	77 25                	ja     ac87 <safe_lshift_func_uint8_t_u_u+0x3b>
    ac62:	0f b6 55 fc          	movzbl -0x4(%rbp),%edx
    ac66:	8b 45 f8             	mov    -0x8(%rbp),%eax
    ac69:	be ff 00 00 00       	mov    $0xff,%esi
    ac6e:	89 c1                	mov    %eax,%ecx
    ac70:	d3 fe                	sar    %cl,%esi
    ac72:	89 f0                	mov    %esi,%eax
    ac74:	39 c2                	cmp    %eax,%edx
    ac76:	7f 0f                	jg     ac87 <safe_lshift_func_uint8_t_u_u+0x3b>
    ac78:	0f b6 55 fc          	movzbl -0x4(%rbp),%edx
    ac7c:	8b 45 f8             	mov    -0x8(%rbp),%eax
    ac7f:	89 c1                	mov    %eax,%ecx
    ac81:	d3 e2                	shl    %cl,%edx
    ac83:	89 d0                	mov    %edx,%eax
    ac85:	eb 04                	jmp    ac8b <safe_lshift_func_uint8_t_u_u+0x3f>
    ac87:	0f b6 45 fc          	movzbl -0x4(%rbp),%eax
    ac8b:	5d                   	pop    %rbp
    ac8c:	c3                   	retq   

000000000000ac8d <safe_rshift_func_uint8_t_u_s>:
    ac8d:	f3 0f 1e fa          	endbr64 
    ac91:	55                   	push   %rbp
    ac92:	48 89 e5             	mov    %rsp,%rbp
    ac95:	89 f8                	mov    %edi,%eax
    ac97:	89 75 f8             	mov    %esi,-0x8(%rbp)
    ac9a:	88 45 fc             	mov    %al,-0x4(%rbp)
    ac9d:	83 7d f8 00          	cmpl   $0x0,-0x8(%rbp)
    aca1:	78 15                	js     acb8 <safe_rshift_func_uint8_t_u_s+0x2b>
    aca3:	83 7d f8 1f          	cmpl   $0x1f,-0x8(%rbp)
    aca7:	7f 0f                	jg     acb8 <safe_rshift_func_uint8_t_u_s+0x2b>
    aca9:	0f b6 55 fc          	movzbl -0x4(%rbp),%edx
    acad:	8b 45 f8             	mov    -0x8(%rbp),%eax
    acb0:	89 c1                	mov    %eax,%ecx
    acb2:	d3 fa                	sar    %cl,%edx
    acb4:	89 d0                	mov    %edx,%eax
    acb6:	eb 04                	jmp    acbc <safe_rshift_func_uint8_t_u_s+0x2f>
    acb8:	0f b6 45 fc          	movzbl -0x4(%rbp),%eax
    acbc:	5d                   	pop    %rbp
    acbd:	c3                   	retq   

000000000000acbe <safe_rshift_func_uint8_t_u_u>:
    acbe:	f3 0f 1e fa          	endbr64 
    acc2:	55                   	push   %rbp
    acc3:	48 89 e5             	mov    %rsp,%rbp
    acc6:	89 f8                	mov    %edi,%eax
    acc8:	89 75 f8             	mov    %esi,-0x8(%rbp)
    accb:	88 45 fc             	mov    %al,-0x4(%rbp)
    acce:	83 7d f8 1f          	cmpl   $0x1f,-0x8(%rbp)
    acd2:	77 0f                	ja     ace3 <safe_rshift_func_uint8_t_u_u+0x25>
    acd4:	0f b6 55 fc          	movzbl -0x4(%rbp),%edx
    acd8:	8b 45 f8             	mov    -0x8(%rbp),%eax
    acdb:	89 c1                	mov    %eax,%ecx
    acdd:	d3 fa                	sar    %cl,%edx
    acdf:	89 d0                	mov    %edx,%eax
    ace1:	eb 04                	jmp    ace7 <safe_rshift_func_uint8_t_u_u+0x29>
    ace3:	0f b6 45 fc          	movzbl -0x4(%rbp),%eax
    ace7:	5d                   	pop    %rbp
    ace8:	c3                   	retq   

000000000000ace9 <safe_unary_minus_func_uint16_t_u>:
    ace9:	f3 0f 1e fa          	endbr64 
    aced:	55                   	push   %rbp
    acee:	48 89 e5             	mov    %rsp,%rbp
    acf1:	89 f8                	mov    %edi,%eax
    acf3:	66 89 45 fc          	mov    %ax,-0x4(%rbp)
    acf7:	0f b7 45 fc          	movzwl -0x4(%rbp),%eax
    acfb:	f7 d8                	neg    %eax
    acfd:	5d                   	pop    %rbp
    acfe:	c3                   	retq   

000000000000acff <safe_add_func_uint16_t_u_u>:
    acff:	f3 0f 1e fa          	endbr64 
    ad03:	55                   	push   %rbp
    ad04:	48 89 e5             	mov    %rsp,%rbp
    ad07:	89 fa                	mov    %edi,%edx
    ad09:	89 f0                	mov    %esi,%eax
    ad0b:	66 89 55 fc          	mov    %dx,-0x4(%rbp)
    ad0f:	66 89 45 f8          	mov    %ax,-0x8(%rbp)
    ad13:	0f b7 55 fc          	movzwl -0x4(%rbp),%edx
    ad17:	0f b7 45 f8          	movzwl -0x8(%rbp),%eax
    ad1b:	01 d0                	add    %edx,%eax
    ad1d:	5d                   	pop    %rbp
    ad1e:	c3                   	retq   

000000000000ad1f <safe_sub_func_uint16_t_u_u>:
    ad1f:	f3 0f 1e fa          	endbr64 
    ad23:	55                   	push   %rbp
    ad24:	48 89 e5             	mov    %rsp,%rbp
    ad27:	89 fa                	mov    %edi,%edx
    ad29:	89 f0                	mov    %esi,%eax
    ad2b:	66 89 55 fc          	mov    %dx,-0x4(%rbp)
    ad2f:	66 89 45 f8          	mov    %ax,-0x8(%rbp)
    ad33:	0f b7 45 fc          	movzwl -0x4(%rbp),%eax
    ad37:	66 2b 45 f8          	sub    -0x8(%rbp),%ax
    ad3b:	5d                   	pop    %rbp
    ad3c:	c3                   	retq   

000000000000ad3d <safe_mul_func_uint16_t_u_u>:
    ad3d:	f3 0f 1e fa          	endbr64 
    ad41:	55                   	push   %rbp
    ad42:	48 89 e5             	mov    %rsp,%rbp
    ad45:	89 fa                	mov    %edi,%edx
    ad47:	89 f0                	mov    %esi,%eax
    ad49:	66 89 55 fc          	mov    %dx,-0x4(%rbp)
    ad4d:	66 89 45 f8          	mov    %ax,-0x8(%rbp)
    ad51:	0f b7 45 fc          	movzwl -0x4(%rbp),%eax
    ad55:	66 0f af 45 f8       	imul   -0x8(%rbp),%ax
    ad5a:	5d                   	pop    %rbp
    ad5b:	c3                   	retq   

000000000000ad5c <safe_mod_func_uint16_t_u_u>:
    ad5c:	f3 0f 1e fa          	endbr64 
    ad60:	55                   	push   %rbp
    ad61:	48 89 e5             	mov    %rsp,%rbp
    ad64:	89 fa                	mov    %edi,%edx
    ad66:	89 f0                	mov    %esi,%eax
    ad68:	66 89 55 fc          	mov    %dx,-0x4(%rbp)
    ad6c:	66 89 45 f8          	mov    %ax,-0x8(%rbp)
    ad70:	66 83 7d f8 00       	cmpw   $0x0,-0x8(%rbp)
    ad75:	74 11                	je     ad88 <safe_mod_func_uint16_t_u_u+0x2c>
    ad77:	0f b7 45 fc          	movzwl -0x4(%rbp),%eax
    ad7b:	ba 00 00 00 00       	mov    $0x0,%edx
    ad80:	66 f7 75 f8          	divw   -0x8(%rbp)
    ad84:	89 d0                	mov    %edx,%eax
    ad86:	eb 04                	jmp    ad8c <safe_mod_func_uint16_t_u_u+0x30>
    ad88:	0f b7 45 fc          	movzwl -0x4(%rbp),%eax
    ad8c:	5d                   	pop    %rbp
    ad8d:	c3                   	retq   

000000000000ad8e <safe_div_func_uint16_t_u_u>:
    ad8e:	f3 0f 1e fa          	endbr64 
    ad92:	55                   	push   %rbp
    ad93:	48 89 e5             	mov    %rsp,%rbp
    ad96:	89 fa                	mov    %edi,%edx
    ad98:	89 f0                	mov    %esi,%eax
    ad9a:	66 89 55 fc          	mov    %dx,-0x4(%rbp)
    ad9e:	66 89 45 f8          	mov    %ax,-0x8(%rbp)
    ada2:	66 83 7d f8 00       	cmpw   $0x0,-0x8(%rbp)
    ada7:	74 0f                	je     adb8 <safe_div_func_uint16_t_u_u+0x2a>
    ada9:	0f b7 45 fc          	movzwl -0x4(%rbp),%eax
    adad:	ba 00 00 00 00       	mov    $0x0,%edx
    adb2:	66 f7 75 f8          	divw   -0x8(%rbp)
    adb6:	eb 04                	jmp    adbc <safe_div_func_uint16_t_u_u+0x2e>
    adb8:	0f b7 45 fc          	movzwl -0x4(%rbp),%eax
    adbc:	5d                   	pop    %rbp
    adbd:	c3                   	retq   

000000000000adbe <safe_lshift_func_uint16_t_u_s>:
    adbe:	f3 0f 1e fa          	endbr64 
    adc2:	55                   	push   %rbp
    adc3:	48 89 e5             	mov    %rsp,%rbp
    adc6:	89 f8                	mov    %edi,%eax
    adc8:	89 75 f8             	mov    %esi,-0x8(%rbp)
    adcb:	66 89 45 fc          	mov    %ax,-0x4(%rbp)
    adcf:	83 7d f8 00          	cmpl   $0x0,-0x8(%rbp)
    add3:	78 2b                	js     ae00 <safe_lshift_func_uint16_t_u_s+0x42>
    add5:	83 7d f8 1f          	cmpl   $0x1f,-0x8(%rbp)
    add9:	7f 25                	jg     ae00 <safe_lshift_func_uint16_t_u_s+0x42>
    addb:	0f b7 55 fc          	movzwl -0x4(%rbp),%edx
    addf:	8b 45 f8             	mov    -0x8(%rbp),%eax
    ade2:	be ff ff 00 00       	mov    $0xffff,%esi
    ade7:	89 c1                	mov    %eax,%ecx
    ade9:	d3 fe                	sar    %cl,%esi
    adeb:	89 f0                	mov    %esi,%eax
    aded:	39 c2                	cmp    %eax,%edx
    adef:	7f 0f                	jg     ae00 <safe_lshift_func_uint16_t_u_s+0x42>
    adf1:	0f b7 55 fc          	movzwl -0x4(%rbp),%edx
    adf5:	8b 45 f8             	mov    -0x8(%rbp),%eax
    adf8:	89 c1                	mov    %eax,%ecx
    adfa:	d3 e2                	shl    %cl,%edx
    adfc:	89 d0                	mov    %edx,%eax
    adfe:	eb 04                	jmp    ae04 <safe_lshift_func_uint16_t_u_s+0x46>
    ae00:	0f b7 45 fc          	movzwl -0x4(%rbp),%eax
    ae04:	5d                   	pop    %rbp
    ae05:	c3                   	retq   

000000000000ae06 <safe_lshift_func_uint16_t_u_u>:
    ae06:	f3 0f 1e fa          	endbr64 
    ae0a:	55                   	push   %rbp
    ae0b:	48 89 e5             	mov    %rsp,%rbp
    ae0e:	89 f8                	mov    %edi,%eax
    ae10:	89 75 f8             	mov    %esi,-0x8(%rbp)
    ae13:	66 89 45 fc          	mov    %ax,-0x4(%rbp)
    ae17:	83 7d f8 1f          	cmpl   $0x1f,-0x8(%rbp)
    ae1b:	77 25                	ja     ae42 <safe_lshift_func_uint16_t_u_u+0x3c>
    ae1d:	0f b7 55 fc          	movzwl -0x4(%rbp),%edx
    ae21:	8b 45 f8             	mov    -0x8(%rbp),%eax
    ae24:	be ff ff 00 00       	mov    $0xffff,%esi
    ae29:	89 c1                	mov    %eax,%ecx
    ae2b:	d3 fe                	sar    %cl,%esi
    ae2d:	89 f0                	mov    %esi,%eax
    ae2f:	39 c2                	cmp    %eax,%edx
    ae31:	7f 0f                	jg     ae42 <safe_lshift_func_uint16_t_u_u+0x3c>
    ae33:	0f b7 55 fc          	movzwl -0x4(%rbp),%edx
    ae37:	8b 45 f8             	mov    -0x8(%rbp),%eax
    ae3a:	89 c1                	mov    %eax,%ecx
    ae3c:	d3 e2                	shl    %cl,%edx
    ae3e:	89 d0                	mov    %edx,%eax
    ae40:	eb 04                	jmp    ae46 <safe_lshift_func_uint16_t_u_u+0x40>
    ae42:	0f b7 45 fc          	movzwl -0x4(%rbp),%eax
    ae46:	5d                   	pop    %rbp
    ae47:	c3                   	retq   

000000000000ae48 <safe_rshift_func_uint16_t_u_s>:
    ae48:	f3 0f 1e fa          	endbr64 
    ae4c:	55                   	push   %rbp
    ae4d:	48 89 e5             	mov    %rsp,%rbp
    ae50:	89 f8                	mov    %edi,%eax
    ae52:	89 75 f8             	mov    %esi,-0x8(%rbp)
    ae55:	66 89 45 fc          	mov    %ax,-0x4(%rbp)
    ae59:	83 7d f8 00          	cmpl   $0x0,-0x8(%rbp)
    ae5d:	78 15                	js     ae74 <safe_rshift_func_uint16_t_u_s+0x2c>
    ae5f:	83 7d f8 1f          	cmpl   $0x1f,-0x8(%rbp)
    ae63:	7f 0f                	jg     ae74 <safe_rshift_func_uint16_t_u_s+0x2c>
    ae65:	0f b7 55 fc          	movzwl -0x4(%rbp),%edx
    ae69:	8b 45 f8             	mov    -0x8(%rbp),%eax
    ae6c:	89 c1                	mov    %eax,%ecx
    ae6e:	d3 fa                	sar    %cl,%edx
    ae70:	89 d0                	mov    %edx,%eax
    ae72:	eb 04                	jmp    ae78 <safe_rshift_func_uint16_t_u_s+0x30>
    ae74:	0f b7 45 fc          	movzwl -0x4(%rbp),%eax
    ae78:	5d                   	pop    %rbp
    ae79:	c3                   	retq   

000000000000ae7a <safe_rshift_func_uint16_t_u_u>:
    ae7a:	f3 0f 1e fa          	endbr64 
    ae7e:	55                   	push   %rbp
    ae7f:	48 89 e5             	mov    %rsp,%rbp
    ae82:	89 f8                	mov    %edi,%eax
    ae84:	89 75 f8             	mov    %esi,-0x8(%rbp)
    ae87:	66 89 45 fc          	mov    %ax,-0x4(%rbp)
    ae8b:	83 7d f8 1f          	cmpl   $0x1f,-0x8(%rbp)
    ae8f:	77 0f                	ja     aea0 <safe_rshift_func_uint16_t_u_u+0x26>
    ae91:	0f b7 55 fc          	movzwl -0x4(%rbp),%edx
    ae95:	8b 45 f8             	mov    -0x8(%rbp),%eax
    ae98:	89 c1                	mov    %eax,%ecx
    ae9a:	d3 fa                	sar    %cl,%edx
    ae9c:	89 d0                	mov    %edx,%eax
    ae9e:	eb 04                	jmp    aea4 <safe_rshift_func_uint16_t_u_u+0x2a>
    aea0:	0f b7 45 fc          	movzwl -0x4(%rbp),%eax
    aea4:	5d                   	pop    %rbp
    aea5:	c3                   	retq   

000000000000aea6 <safe_unary_minus_func_uint32_t_u>:
    aea6:	f3 0f 1e fa          	endbr64 
    aeaa:	55                   	push   %rbp
    aeab:	48 89 e5             	mov    %rsp,%rbp
    aeae:	89 7d fc             	mov    %edi,-0x4(%rbp)
    aeb1:	8b 45 fc             	mov    -0x4(%rbp),%eax
    aeb4:	f7 d8                	neg    %eax
    aeb6:	5d                   	pop    %rbp
    aeb7:	c3                   	retq   

000000000000aeb8 <safe_add_func_uint32_t_u_u>:
    aeb8:	f3 0f 1e fa          	endbr64 
    aebc:	55                   	push   %rbp
    aebd:	48 89 e5             	mov    %rsp,%rbp
    aec0:	89 7d fc             	mov    %edi,-0x4(%rbp)
    aec3:	89 75 f8             	mov    %esi,-0x8(%rbp)
    aec6:	8b 55 fc             	mov    -0x4(%rbp),%edx
    aec9:	8b 45 f8             	mov    -0x8(%rbp),%eax
    aecc:	01 d0                	add    %edx,%eax
    aece:	5d                   	pop    %rbp
    aecf:	c3                   	retq   

000000000000aed0 <safe_sub_func_uint32_t_u_u>:
    aed0:	f3 0f 1e fa          	endbr64 
    aed4:	55                   	push   %rbp
    aed5:	48 89 e5             	mov    %rsp,%rbp
    aed8:	89 7d fc             	mov    %edi,-0x4(%rbp)
    aedb:	89 75 f8             	mov    %esi,-0x8(%rbp)
    aede:	8b 45 fc             	mov    -0x4(%rbp),%eax
    aee1:	2b 45 f8             	sub    -0x8(%rbp),%eax
    aee4:	5d                   	pop    %rbp
    aee5:	c3                   	retq   

000000000000aee6 <safe_mul_func_uint32_t_u_u>:
    aee6:	f3 0f 1e fa          	endbr64 
    aeea:	55                   	push   %rbp
    aeeb:	48 89 e5             	mov    %rsp,%rbp
    aeee:	89 7d fc             	mov    %edi,-0x4(%rbp)
    aef1:	89 75 f8             	mov    %esi,-0x8(%rbp)
    aef4:	8b 45 fc             	mov    -0x4(%rbp),%eax
    aef7:	0f af 45 f8          	imul   -0x8(%rbp),%eax
    aefb:	5d                   	pop    %rbp
    aefc:	c3                   	retq   

000000000000aefd <safe_mod_func_uint32_t_u_u>:
    aefd:	f3 0f 1e fa          	endbr64 
    af01:	55                   	push   %rbp
    af02:	48 89 e5             	mov    %rsp,%rbp
    af05:	89 7d fc             	mov    %edi,-0x4(%rbp)
    af08:	89 75 f8             	mov    %esi,-0x8(%rbp)
    af0b:	83 7d f8 00          	cmpl   $0x0,-0x8(%rbp)
    af0f:	74 0f                	je     af20 <safe_mod_func_uint32_t_u_u+0x23>
    af11:	8b 45 fc             	mov    -0x4(%rbp),%eax
    af14:	ba 00 00 00 00       	mov    $0x0,%edx
    af19:	f7 75 f8             	divl   -0x8(%rbp)
    af1c:	89 d0                	mov    %edx,%eax
    af1e:	eb 03                	jmp    af23 <safe_mod_func_uint32_t_u_u+0x26>
    af20:	8b 45 fc             	mov    -0x4(%rbp),%eax
    af23:	5d                   	pop    %rbp
    af24:	c3                   	retq   

000000000000af25 <safe_div_func_uint32_t_u_u>:
    af25:	f3 0f 1e fa          	endbr64 
    af29:	55                   	push   %rbp
    af2a:	48 89 e5             	mov    %rsp,%rbp
    af2d:	89 7d fc             	mov    %edi,-0x4(%rbp)
    af30:	89 75 f8             	mov    %esi,-0x8(%rbp)
    af33:	83 7d f8 00          	cmpl   $0x0,-0x8(%rbp)
    af37:	74 0d                	je     af46 <safe_div_func_uint32_t_u_u+0x21>
    af39:	8b 45 fc             	mov    -0x4(%rbp),%eax
    af3c:	ba 00 00 00 00       	mov    $0x0,%edx
    af41:	f7 75 f8             	divl   -0x8(%rbp)
    af44:	eb 03                	jmp    af49 <safe_div_func_uint32_t_u_u+0x24>
    af46:	8b 45 fc             	mov    -0x4(%rbp),%eax
    af49:	5d                   	pop    %rbp
    af4a:	c3                   	retq   

000000000000af4b <safe_lshift_func_uint32_t_u_s>:
    af4b:	f3 0f 1e fa          	endbr64 
    af4f:	55                   	push   %rbp
    af50:	48 89 e5             	mov    %rsp,%rbp
    af53:	89 7d fc             	mov    %edi,-0x4(%rbp)
    af56:	89 75 f8             	mov    %esi,-0x8(%rbp)
    af59:	83 7d f8 00          	cmpl   $0x0,-0x8(%rbp)
    af5d:	78 27                	js     af86 <safe_lshift_func_uint32_t_u_s+0x3b>
    af5f:	83 7d f8 1f          	cmpl   $0x1f,-0x8(%rbp)
    af63:	7f 21                	jg     af86 <safe_lshift_func_uint32_t_u_s+0x3b>
    af65:	8b 45 f8             	mov    -0x8(%rbp),%eax
    af68:	ba ff ff ff ff       	mov    $0xffffffff,%edx
    af6d:	89 c1                	mov    %eax,%ecx
    af6f:	d3 ea                	shr    %cl,%edx
    af71:	89 d0                	mov    %edx,%eax
    af73:	39 45 fc             	cmp    %eax,-0x4(%rbp)
    af76:	77 0e                	ja     af86 <safe_lshift_func_uint32_t_u_s+0x3b>
    af78:	8b 45 f8             	mov    -0x8(%rbp),%eax
    af7b:	8b 55 fc             	mov    -0x4(%rbp),%edx
    af7e:	89 c1                	mov    %eax,%ecx
    af80:	d3 e2                	shl    %cl,%edx
    af82:	89 d0                	mov    %edx,%eax
    af84:	eb 03                	jmp    af89 <safe_lshift_func_uint32_t_u_s+0x3e>
    af86:	8b 45 fc             	mov    -0x4(%rbp),%eax
    af89:	5d                   	pop    %rbp
    af8a:	c3                   	retq   

000000000000af8b <safe_lshift_func_uint32_t_u_u>:
    af8b:	f3 0f 1e fa          	endbr64 
    af8f:	55                   	push   %rbp
    af90:	48 89 e5             	mov    %rsp,%rbp
    af93:	89 7d fc             	mov    %edi,-0x4(%rbp)
    af96:	89 75 f8             	mov    %esi,-0x8(%rbp)
    af99:	83 7d f8 1f          	cmpl   $0x1f,-0x8(%rbp)
    af9d:	77 21                	ja     afc0 <safe_lshift_func_uint32_t_u_u+0x35>
    af9f:	8b 45 f8             	mov    -0x8(%rbp),%eax
    afa2:	ba ff ff ff ff       	mov    $0xffffffff,%edx
    afa7:	89 c1                	mov    %eax,%ecx
    afa9:	d3 ea                	shr    %cl,%edx
    afab:	89 d0                	mov    %edx,%eax
    afad:	39 45 fc             	cmp    %eax,-0x4(%rbp)
    afb0:	77 0e                	ja     afc0 <safe_lshift_func_uint32_t_u_u+0x35>
    afb2:	8b 45 f8             	mov    -0x8(%rbp),%eax
    afb5:	8b 55 fc             	mov    -0x4(%rbp),%edx
    afb8:	89 c1                	mov    %eax,%ecx
    afba:	d3 e2                	shl    %cl,%edx
    afbc:	89 d0                	mov    %edx,%eax
    afbe:	eb 03                	jmp    afc3 <safe_lshift_func_uint32_t_u_u+0x38>
    afc0:	8b 45 fc             	mov    -0x4(%rbp),%eax
    afc3:	5d                   	pop    %rbp
    afc4:	c3                   	retq   

000000000000afc5 <safe_rshift_func_uint32_t_u_s>:
    afc5:	f3 0f 1e fa          	endbr64 
    afc9:	55                   	push   %rbp
    afca:	48 89 e5             	mov    %rsp,%rbp
    afcd:	89 7d fc             	mov    %edi,-0x4(%rbp)
    afd0:	89 75 f8             	mov    %esi,-0x8(%rbp)
    afd3:	83 7d f8 00          	cmpl   $0x0,-0x8(%rbp)
    afd7:	78 14                	js     afed <safe_rshift_func_uint32_t_u_s+0x28>
    afd9:	83 7d f8 1f          	cmpl   $0x1f,-0x8(%rbp)
    afdd:	7f 0e                	jg     afed <safe_rshift_func_uint32_t_u_s+0x28>
    afdf:	8b 45 f8             	mov    -0x8(%rbp),%eax
    afe2:	8b 55 fc             	mov    -0x4(%rbp),%edx
    afe5:	89 c1                	mov    %eax,%ecx
    afe7:	d3 ea                	shr    %cl,%edx
    afe9:	89 d0                	mov    %edx,%eax
    afeb:	eb 03                	jmp    aff0 <safe_rshift_func_uint32_t_u_s+0x2b>
    afed:	8b 45 fc             	mov    -0x4(%rbp),%eax
    aff0:	5d                   	pop    %rbp
    aff1:	c3                   	retq   

000000000000aff2 <safe_rshift_func_uint32_t_u_u>:
    aff2:	f3 0f 1e fa          	endbr64 
    aff6:	55                   	push   %rbp
    aff7:	48 89 e5             	mov    %rsp,%rbp
    affa:	89 7d fc             	mov    %edi,-0x4(%rbp)
    affd:	89 75 f8             	mov    %esi,-0x8(%rbp)
    b000:	83 7d f8 1f          	cmpl   $0x1f,-0x8(%rbp)
    b004:	77 0e                	ja     b014 <safe_rshift_func_uint32_t_u_u+0x22>
    b006:	8b 45 f8             	mov    -0x8(%rbp),%eax
    b009:	8b 55 fc             	mov    -0x4(%rbp),%edx
    b00c:	89 c1                	mov    %eax,%ecx
    b00e:	d3 ea                	shr    %cl,%edx
    b010:	89 d0                	mov    %edx,%eax
    b012:	eb 03                	jmp    b017 <safe_rshift_func_uint32_t_u_u+0x25>
    b014:	8b 45 fc             	mov    -0x4(%rbp),%eax
    b017:	5d                   	pop    %rbp
    b018:	c3                   	retq   

000000000000b019 <safe_unary_minus_func_uint64_t_u>:
    b019:	f3 0f 1e fa          	endbr64 
    b01d:	55                   	push   %rbp
    b01e:	48 89 e5             	mov    %rsp,%rbp
    b021:	48 89 7d f8          	mov    %rdi,-0x8(%rbp)
    b025:	48 8b 45 f8          	mov    -0x8(%rbp),%rax
    b029:	48 f7 d8             	neg    %rax
    b02c:	5d                   	pop    %rbp
    b02d:	c3                   	retq   

000000000000b02e <safe_add_func_uint64_t_u_u>:
    b02e:	f3 0f 1e fa          	endbr64 
    b032:	55                   	push   %rbp
    b033:	48 89 e5             	mov    %rsp,%rbp
    b036:	48 89 7d f8          	mov    %rdi,-0x8(%rbp)
    b03a:	48 89 75 f0          	mov    %rsi,-0x10(%rbp)
    b03e:	48 8b 55 f8          	mov    -0x8(%rbp),%rdx
    b042:	48 8b 45 f0          	mov    -0x10(%rbp),%rax
    b046:	48 01 d0             	add    %rdx,%rax
    b049:	5d                   	pop    %rbp
    b04a:	c3                   	retq   

000000000000b04b <safe_sub_func_uint64_t_u_u>:
    b04b:	f3 0f 1e fa          	endbr64 
    b04f:	55                   	push   %rbp
    b050:	48 89 e5             	mov    %rsp,%rbp
    b053:	48 89 7d f8          	mov    %rdi,-0x8(%rbp)
    b057:	48 89 75 f0          	mov    %rsi,-0x10(%rbp)
    b05b:	48 8b 45 f8          	mov    -0x8(%rbp),%rax
    b05f:	48 2b 45 f0          	sub    -0x10(%rbp),%rax
    b063:	5d                   	pop    %rbp
    b064:	c3                   	retq   

000000000000b065 <safe_mul_func_uint64_t_u_u>:
    b065:	f3 0f 1e fa          	endbr64 
    b069:	55                   	push   %rbp
    b06a:	48 89 e5             	mov    %rsp,%rbp
    b06d:	48 89 7d f8          	mov    %rdi,-0x8(%rbp)
    b071:	48 89 75 f0          	mov    %rsi,-0x10(%rbp)
    b075:	48 8b 45 f8          	mov    -0x8(%rbp),%rax
    b079:	48 0f af 45 f0       	imul   -0x10(%rbp),%rax
    b07e:	5d                   	pop    %rbp
    b07f:	c3                   	retq   

000000000000b080 <safe_mod_func_uint64_t_u_u>:
    b080:	f3 0f 1e fa          	endbr64 
    b084:	55                   	push   %rbp
    b085:	48 89 e5             	mov    %rsp,%rbp
    b088:	48 89 7d f8          	mov    %rdi,-0x8(%rbp)
    b08c:	48 89 75 f0          	mov    %rsi,-0x10(%rbp)
    b090:	48 83 7d f0 00       	cmpq   $0x0,-0x10(%rbp)
    b095:	74 12                	je     b0a9 <safe_mod_func_uint64_t_u_u+0x29>
    b097:	48 8b 45 f8          	mov    -0x8(%rbp),%rax
    b09b:	ba 00 00 00 00       	mov    $0x0,%edx
    b0a0:	48 f7 75 f0          	divq   -0x10(%rbp)
    b0a4:	48 89 d0             	mov    %rdx,%rax
    b0a7:	eb 04                	jmp    b0ad <safe_mod_func_uint64_t_u_u+0x2d>
    b0a9:	48 8b 45 f8          	mov    -0x8(%rbp),%rax
    b0ad:	5d                   	pop    %rbp
    b0ae:	c3                   	retq   

000000000000b0af <safe_div_func_uint64_t_u_u>:
    b0af:	f3 0f 1e fa          	endbr64 
    b0b3:	55                   	push   %rbp
    b0b4:	48 89 e5             	mov    %rsp,%rbp
    b0b7:	48 89 7d f8          	mov    %rdi,-0x8(%rbp)
    b0bb:	48 89 75 f0          	mov    %rsi,-0x10(%rbp)
    b0bf:	48 83 7d f0 00       	cmpq   $0x0,-0x10(%rbp)
    b0c4:	74 0f                	je     b0d5 <safe_div_func_uint64_t_u_u+0x26>
    b0c6:	48 8b 45 f8          	mov    -0x8(%rbp),%rax
    b0ca:	ba 00 00 00 00       	mov    $0x0,%edx
    b0cf:	48 f7 75 f0          	divq   -0x10(%rbp)
    b0d3:	eb 04                	jmp    b0d9 <safe_div_func_uint64_t_u_u+0x2a>
    b0d5:	48 8b 45 f8          	mov    -0x8(%rbp),%rax
    b0d9:	5d                   	pop    %rbp
    b0da:	c3                   	retq   

000000000000b0db <safe_lshift_func_uint64_t_u_s>:
    b0db:	f3 0f 1e fa          	endbr64 
    b0df:	55                   	push   %rbp
    b0e0:	48 89 e5             	mov    %rsp,%rbp
    b0e3:	48 89 7d f8          	mov    %rdi,-0x8(%rbp)
    b0e7:	89 75 f4             	mov    %esi,-0xc(%rbp)
    b0ea:	83 7d f4 00          	cmpl   $0x0,-0xc(%rbp)
    b0ee:	78 2f                	js     b11f <safe_lshift_func_uint64_t_u_s+0x44>
    b0f0:	83 7d f4 1f          	cmpl   $0x1f,-0xc(%rbp)
    b0f4:	7f 29                	jg     b11f <safe_lshift_func_uint64_t_u_s+0x44>
    b0f6:	8b 45 f4             	mov    -0xc(%rbp),%eax
    b0f9:	48 c7 c2 ff ff ff ff 	mov    $0xffffffffffffffff,%rdx
    b100:	89 c1                	mov    %eax,%ecx
    b102:	48 d3 ea             	shr    %cl,%rdx
    b105:	48 89 d0             	mov    %rdx,%rax
    b108:	48 39 45 f8          	cmp    %rax,-0x8(%rbp)
    b10c:	77 11                	ja     b11f <safe_lshift_func_uint64_t_u_s+0x44>
    b10e:	8b 45 f4             	mov    -0xc(%rbp),%eax
    b111:	48 8b 55 f8          	mov    -0x8(%rbp),%rdx
    b115:	89 c1                	mov    %eax,%ecx
    b117:	48 d3 e2             	shl    %cl,%rdx
    b11a:	48 89 d0             	mov    %rdx,%rax
    b11d:	eb 04                	jmp    b123 <safe_lshift_func_uint64_t_u_s+0x48>
    b11f:	48 8b 45 f8          	mov    -0x8(%rbp),%rax
    b123:	5d                   	pop    %rbp
    b124:	c3                   	retq   

000000000000b125 <safe_lshift_func_uint64_t_u_u>:
    b125:	f3 0f 1e fa          	endbr64 
    b129:	55                   	push   %rbp
    b12a:	48 89 e5             	mov    %rsp,%rbp
    b12d:	48 89 7d f8          	mov    %rdi,-0x8(%rbp)
    b131:	89 75 f4             	mov    %esi,-0xc(%rbp)
    b134:	83 7d f4 1f          	cmpl   $0x1f,-0xc(%rbp)
    b138:	77 29                	ja     b163 <safe_lshift_func_uint64_t_u_u+0x3e>
    b13a:	8b 45 f4             	mov    -0xc(%rbp),%eax
    b13d:	48 c7 c2 ff ff ff ff 	mov    $0xffffffffffffffff,%rdx
    b144:	89 c1                	mov    %eax,%ecx
    b146:	48 d3 ea             	shr    %cl,%rdx
    b149:	48 89 d0             	mov    %rdx,%rax
    b14c:	48 39 45 f8          	cmp    %rax,-0x8(%rbp)
    b150:	77 11                	ja     b163 <safe_lshift_func_uint64_t_u_u+0x3e>
    b152:	8b 45 f4             	mov    -0xc(%rbp),%eax
    b155:	48 8b 55 f8          	mov    -0x8(%rbp),%rdx
    b159:	89 c1                	mov    %eax,%ecx
    b15b:	48 d3 e2             	shl    %cl,%rdx
    b15e:	48 89 d0             	mov    %rdx,%rax
    b161:	eb 04                	jmp    b167 <safe_lshift_func_uint64_t_u_u+0x42>
    b163:	48 8b 45 f8          	mov    -0x8(%rbp),%rax
    b167:	5d                   	pop    %rbp
    b168:	c3                   	retq   

000000000000b169 <safe_rshift_func_uint64_t_u_s>:
    b169:	f3 0f 1e fa          	endbr64 
    b16d:	55                   	push   %rbp
    b16e:	48 89 e5             	mov    %rsp,%rbp
    b171:	48 89 7d f8          	mov    %rdi,-0x8(%rbp)
    b175:	89 75 f4             	mov    %esi,-0xc(%rbp)
    b178:	83 7d f4 00          	cmpl   $0x0,-0xc(%rbp)
    b17c:	78 17                	js     b195 <safe_rshift_func_uint64_t_u_s+0x2c>
    b17e:	83 7d f4 1f          	cmpl   $0x1f,-0xc(%rbp)
    b182:	7f 11                	jg     b195 <safe_rshift_func_uint64_t_u_s+0x2c>
    b184:	8b 45 f4             	mov    -0xc(%rbp),%eax
    b187:	48 8b 55 f8          	mov    -0x8(%rbp),%rdx
    b18b:	89 c1                	mov    %eax,%ecx
    b18d:	48 d3 ea             	shr    %cl,%rdx
    b190:	48 89 d0             	mov    %rdx,%rax
    b193:	eb 04                	jmp    b199 <safe_rshift_func_uint64_t_u_s+0x30>
    b195:	48 8b 45 f8          	mov    -0x8(%rbp),%rax
    b199:	5d                   	pop    %rbp
    b19a:	c3                   	retq   

000000000000b19b <safe_rshift_func_uint64_t_u_u>:
    b19b:	f3 0f 1e fa          	endbr64 
    b19f:	55                   	push   %rbp
    b1a0:	48 89 e5             	mov    %rsp,%rbp
    b1a3:	48 89 7d f8          	mov    %rdi,-0x8(%rbp)
    b1a7:	89 75 f4             	mov    %esi,-0xc(%rbp)
    b1aa:	83 7d f4 1f          	cmpl   $0x1f,-0xc(%rbp)
    b1ae:	77 11                	ja     b1c1 <safe_rshift_func_uint64_t_u_u+0x26>
    b1b0:	8b 45 f4             	mov    -0xc(%rbp),%eax
    b1b3:	48 8b 55 f8          	mov    -0x8(%rbp),%rdx
    b1b7:	89 c1                	mov    %eax,%ecx
    b1b9:	48 d3 ea             	shr    %cl,%rdx
    b1bc:	48 89 d0             	mov    %rdx,%rax
    b1bf:	eb 04                	jmp    b1c5 <safe_rshift_func_uint64_t_u_u+0x2a>
    b1c1:	48 8b 45 f8          	mov    -0x8(%rbp),%rax
    b1c5:	5d                   	pop    %rbp
    b1c6:	c3                   	retq   

000000000000b1c7 <safe_add_func_float_f_f>:
    b1c7:	f3 0f 1e fa          	endbr64 
    b1cb:	55                   	push   %rbp
    b1cc:	48 89 e5             	mov    %rsp,%rbp
    b1cf:	f3 0f 11 45 fc       	movss  %xmm0,-0x4(%rbp)
    b1d4:	f3 0f 11 4d f8       	movss  %xmm1,-0x8(%rbp)
    b1d9:	f3 0f 10 4d fc       	movss  -0x4(%rbp),%xmm1
    b1de:	f3 0f 10 05 5a f4 00 	movss  0xf45a(%rip),%xmm0        # 1a640 <l_1176.4370+0x8>
    b1e5:	00 
    b1e6:	f3 0f 59 c8          	mulss  %xmm0,%xmm1
    b1ea:	f3 0f 10 55 f8       	movss  -0x8(%rbp),%xmm2
    b1ef:	f3 0f 10 05 49 f4 00 	movss  0xf449(%rip),%xmm0        # 1a640 <l_1176.4370+0x8>
    b1f6:	00 
    b1f7:	f3 0f 59 c2          	mulss  %xmm2,%xmm0
    b1fb:	f3 0f 58 c1          	addss  %xmm1,%xmm0
    b1ff:	f3 0f 10 0d 49 f4 00 	movss  0xf449(%rip),%xmm1        # 1a650 <l_1176.4370+0x18>
    b206:	00 
    b207:	0f 54 c1             	andps  %xmm1,%xmm0
    b20a:	0f 2f 05 4f f4 00 00 	comiss 0xf44f(%rip),%xmm0        # 1a660 <l_1176.4370+0x28>
    b211:	76 07                	jbe    b21a <safe_add_func_float_f_f+0x53>
    b213:	f3 0f 10 45 fc       	movss  -0x4(%rbp),%xmm0
    b218:	eb 0a                	jmp    b224 <safe_add_func_float_f_f+0x5d>
    b21a:	f3 0f 10 45 fc       	movss  -0x4(%rbp),%xmm0
    b21f:	f3 0f 58 45 f8       	addss  -0x8(%rbp),%xmm0
    b224:	5d                   	pop    %rbp
    b225:	c3                   	retq   

000000000000b226 <safe_sub_func_float_f_f>:
    b226:	f3 0f 1e fa          	endbr64 
    b22a:	55                   	push   %rbp
    b22b:	48 89 e5             	mov    %rsp,%rbp
    b22e:	f3 0f 11 45 fc       	movss  %xmm0,-0x4(%rbp)
    b233:	f3 0f 11 4d f8       	movss  %xmm1,-0x8(%rbp)
    b238:	f3 0f 10 4d fc       	movss  -0x4(%rbp),%xmm1
    b23d:	f3 0f 10 05 fb f3 00 	movss  0xf3fb(%rip),%xmm0        # 1a640 <l_1176.4370+0x8>
    b244:	00 
    b245:	f3 0f 59 c1          	mulss  %xmm1,%xmm0
    b249:	f3 0f 10 55 f8       	movss  -0x8(%rbp),%xmm2
    b24e:	f3 0f 10 0d ea f3 00 	movss  0xf3ea(%rip),%xmm1        # 1a640 <l_1176.4370+0x8>
    b255:	00 
    b256:	f3 0f 59 ca          	mulss  %xmm2,%xmm1
    b25a:	f3 0f 5c c1          	subss  %xmm1,%xmm0
    b25e:	f3 0f 10 0d ea f3 00 	movss  0xf3ea(%rip),%xmm1        # 1a650 <l_1176.4370+0x18>
    b265:	00 
    b266:	0f 54 c1             	andps  %xmm1,%xmm0
    b269:	0f 2f 05 f0 f3 00 00 	comiss 0xf3f0(%rip),%xmm0        # 1a660 <l_1176.4370+0x28>
    b270:	76 07                	jbe    b279 <safe_sub_func_float_f_f+0x53>
    b272:	f3 0f 10 45 fc       	movss  -0x4(%rbp),%xmm0
    b277:	eb 0a                	jmp    b283 <safe_sub_func_float_f_f+0x5d>
    b279:	f3 0f 10 45 fc       	movss  -0x4(%rbp),%xmm0
    b27e:	f3 0f 5c 45 f8       	subss  -0x8(%rbp),%xmm0
    b283:	5d                   	pop    %rbp
    b284:	c3                   	retq   

000000000000b285 <safe_mul_func_float_f_f>:
    b285:	f3 0f 1e fa          	endbr64 
    b289:	55                   	push   %rbp
    b28a:	48 89 e5             	mov    %rsp,%rbp
    b28d:	f3 0f 11 45 fc       	movss  %xmm0,-0x4(%rbp)
    b292:	f3 0f 11 4d f8       	movss  %xmm1,-0x8(%rbp)
    b297:	f3 0f 10 4d fc       	movss  -0x4(%rbp),%xmm1
    b29c:	f3 0f 10 05 c0 f3 00 	movss  0xf3c0(%rip),%xmm0        # 1a664 <l_1176.4370+0x2c>
    b2a3:	00 
    b2a4:	f3 0f 59 c8          	mulss  %xmm0,%xmm1
    b2a8:	f3 0f 10 55 f8       	movss  -0x8(%rbp),%xmm2
    b2ad:	f3 0f 10 05 b3 f3 00 	movss  0xf3b3(%rip),%xmm0        # 1a668 <l_1176.4370+0x30>
    b2b4:	00 
    b2b5:	f3 0f 59 c2          	mulss  %xmm2,%xmm0
    b2b9:	f3 0f 59 c1          	mulss  %xmm1,%xmm0
    b2bd:	f3 0f 10 0d 8b f3 00 	movss  0xf38b(%rip),%xmm1        # 1a650 <l_1176.4370+0x18>
    b2c4:	00 
    b2c5:	0f 54 c1             	andps  %xmm1,%xmm0
    b2c8:	0f 2f 05 9d f3 00 00 	comiss 0xf39d(%rip),%xmm0        # 1a66c <l_1176.4370+0x34>
    b2cf:	76 07                	jbe    b2d8 <safe_mul_func_float_f_f+0x53>
    b2d1:	f3 0f 10 45 fc       	movss  -0x4(%rbp),%xmm0
    b2d6:	eb 0a                	jmp    b2e2 <safe_mul_func_float_f_f+0x5d>
    b2d8:	f3 0f 10 45 fc       	movss  -0x4(%rbp),%xmm0
    b2dd:	f3 0f 59 45 f8       	mulss  -0x8(%rbp),%xmm0
    b2e2:	5d                   	pop    %rbp
    b2e3:	c3                   	retq   

000000000000b2e4 <safe_div_func_float_f_f>:
    b2e4:	f3 0f 1e fa          	endbr64 
    b2e8:	55                   	push   %rbp
    b2e9:	48 89 e5             	mov    %rsp,%rbp
    b2ec:	f3 0f 11 45 fc       	movss  %xmm0,-0x4(%rbp)
    b2f1:	f3 0f 11 4d f8       	movss  %xmm1,-0x8(%rbp)
    b2f6:	f3 0f 10 45 f8       	movss  -0x8(%rbp),%xmm0
    b2fb:	f3 0f 10 0d 4d f3 00 	movss  0xf34d(%rip),%xmm1        # 1a650 <l_1176.4370+0x18>
    b302:	00 
    b303:	0f 54 c8             	andps  %xmm0,%xmm1
    b306:	f3 0f 10 05 62 f3 00 	movss  0xf362(%rip),%xmm0        # 1a670 <l_1176.4370+0x38>
    b30d:	00 
    b30e:	0f 2f c1             	comiss %xmm1,%xmm0
    b311:	0f 97 c0             	seta   %al
    b314:	83 f0 01             	xor    $0x1,%eax
    b317:	84 c0                	test   %al,%al
    b319:	75 56                	jne    b371 <safe_div_func_float_f_f+0x8d>
    b31b:	66 0f ef c0          	pxor   %xmm0,%xmm0
    b31f:	0f 2e 45 f8          	ucomiss -0x8(%rbp),%xmm0
    b323:	7a 0a                	jp     b32f <safe_div_func_float_f_f+0x4b>
    b325:	66 0f ef c0          	pxor   %xmm0,%xmm0
    b329:	0f 2e 45 f8          	ucomiss -0x8(%rbp),%xmm0
    b32d:	74 4e                	je     b37d <safe_div_func_float_f_f+0x99>
    b32f:	f3 0f 10 4d fc       	movss  -0x4(%rbp),%xmm1
    b334:	f3 0f 10 05 38 f3 00 	movss  0xf338(%rip),%xmm0        # 1a674 <l_1176.4370+0x3c>
    b33b:	00 
    b33c:	f3 0f 59 c1          	mulss  %xmm1,%xmm0
    b340:	f3 0f 10 55 f8       	movss  -0x8(%rbp),%xmm2
    b345:	f3 0f 10 0d 2b f3 00 	movss  0xf32b(%rip),%xmm1        # 1a678 <l_1176.4370+0x40>
    b34c:	00 
    b34d:	f3 0f 59 ca          	mulss  %xmm2,%xmm1
    b351:	f3 0f 5e c1          	divss  %xmm1,%xmm0
    b355:	f3 0f 10 0d f3 f2 00 	movss  0xf2f3(%rip),%xmm1        # 1a650 <l_1176.4370+0x18>
    b35c:	00 
    b35d:	0f 54 c1             	andps  %xmm1,%xmm0
    b360:	0f 2f 05 15 f3 00 00 	comiss 0xf315(%rip),%xmm0        # 1a67c <l_1176.4370+0x44>
    b367:	0f 97 c0             	seta   %al
    b36a:	83 f0 01             	xor    $0x1,%eax
    b36d:	84 c0                	test   %al,%al
    b36f:	74 0c                	je     b37d <safe_div_func_float_f_f+0x99>
    b371:	f3 0f 10 45 fc       	movss  -0x4(%rbp),%xmm0
    b376:	f3 0f 5e 45 f8       	divss  -0x8(%rbp),%xmm0
    b37b:	eb 05                	jmp    b382 <safe_div_func_float_f_f+0x9e>
    b37d:	f3 0f 10 45 fc       	movss  -0x4(%rbp),%xmm0
    b382:	5d                   	pop    %rbp
    b383:	c3                   	retq   

000000000000b384 <safe_add_func_double_f_f>:
    b384:	f3 0f 1e fa          	endbr64 
    b388:	55                   	push   %rbp
    b389:	48 89 e5             	mov    %rsp,%rbp
    b38c:	f2 0f 11 45 f8       	movsd  %xmm0,-0x8(%rbp)
    b391:	f2 0f 11 4d f0       	movsd  %xmm1,-0x10(%rbp)
    b396:	f2 0f 10 4d f8       	movsd  -0x8(%rbp),%xmm1
    b39b:	f2 0f 10 05 dd f2 00 	movsd  0xf2dd(%rip),%xmm0        # 1a680 <l_1176.4370+0x48>
    b3a2:	00 
    b3a3:	f2 0f 59 c8          	mulsd  %xmm0,%xmm1
    b3a7:	f2 0f 10 55 f0       	movsd  -0x10(%rbp),%xmm2
    b3ac:	f2 0f 10 05 cc f2 00 	movsd  0xf2cc(%rip),%xmm0        # 1a680 <l_1176.4370+0x48>
    b3b3:	00 
    b3b4:	f2 0f 59 c2          	mulsd  %xmm2,%xmm0
    b3b8:	f2 0f 58 c1          	addsd  %xmm1,%xmm0
    b3bc:	f3 0f 7e 0d cc f2 00 	movq   0xf2cc(%rip),%xmm1        # 1a690 <l_1176.4370+0x58>
    b3c3:	00 
    b3c4:	66 0f 54 c1          	andpd  %xmm1,%xmm0
    b3c8:	66 0f 2f 05 d0 f2 00 	comisd 0xf2d0(%rip),%xmm0        # 1a6a0 <l_1176.4370+0x68>
    b3cf:	00 
    b3d0:	76 07                	jbe    b3d9 <safe_add_func_double_f_f+0x55>
    b3d2:	f2 0f 10 45 f8       	movsd  -0x8(%rbp),%xmm0
    b3d7:	eb 0a                	jmp    b3e3 <safe_add_func_double_f_f+0x5f>
    b3d9:	f2 0f 10 45 f8       	movsd  -0x8(%rbp),%xmm0
    b3de:	f2 0f 58 45 f0       	addsd  -0x10(%rbp),%xmm0
    b3e3:	5d                   	pop    %rbp
    b3e4:	c3                   	retq   

000000000000b3e5 <safe_sub_func_double_f_f>:
    b3e5:	f3 0f 1e fa          	endbr64 
    b3e9:	55                   	push   %rbp
    b3ea:	48 89 e5             	mov    %rsp,%rbp
    b3ed:	f2 0f 11 45 f8       	movsd  %xmm0,-0x8(%rbp)
    b3f2:	f2 0f 11 4d f0       	movsd  %xmm1,-0x10(%rbp)
    b3f7:	f2 0f 10 4d f8       	movsd  -0x8(%rbp),%xmm1
    b3fc:	f2 0f 10 05 7c f2 00 	movsd  0xf27c(%rip),%xmm0        # 1a680 <l_1176.4370+0x48>
    b403:	00 
    b404:	f2 0f 59 c1          	mulsd  %xmm1,%xmm0
    b408:	f2 0f 10 55 f0       	movsd  -0x10(%rbp),%xmm2
    b40d:	f2 0f 10 0d 6b f2 00 	movsd  0xf26b(%rip),%xmm1        # 1a680 <l_1176.4370+0x48>
    b414:	00 
    b415:	f2 0f 59 ca          	mulsd  %xmm2,%xmm1
    b419:	f2 0f 5c c1          	subsd  %xmm1,%xmm0
    b41d:	f3 0f 7e 0d 6b f2 00 	movq   0xf26b(%rip),%xmm1        # 1a690 <l_1176.4370+0x58>
    b424:	00 
    b425:	66 0f 54 c1          	andpd  %xmm1,%xmm0
    b429:	66 0f 2f 05 6f f2 00 	comisd 0xf26f(%rip),%xmm0        # 1a6a0 <l_1176.4370+0x68>
    b430:	00 
    b431:	76 07                	jbe    b43a <safe_sub_func_double_f_f+0x55>
    b433:	f2 0f 10 45 f8       	movsd  -0x8(%rbp),%xmm0
    b438:	eb 0a                	jmp    b444 <safe_sub_func_double_f_f+0x5f>
    b43a:	f2 0f 10 45 f8       	movsd  -0x8(%rbp),%xmm0
    b43f:	f2 0f 5c 45 f0       	subsd  -0x10(%rbp),%xmm0
    b444:	5d                   	pop    %rbp
    b445:	c3                   	retq   

000000000000b446 <safe_mul_func_double_f_f>:
    b446:	f3 0f 1e fa          	endbr64 
    b44a:	55                   	push   %rbp
    b44b:	48 89 e5             	mov    %rsp,%rbp
    b44e:	f2 0f 11 45 f8       	movsd  %xmm0,-0x8(%rbp)
    b453:	f2 0f 11 4d f0       	movsd  %xmm1,-0x10(%rbp)
    b458:	f2 0f 10 4d f8       	movsd  -0x8(%rbp),%xmm1
    b45d:	f2 0f 10 05 43 f2 00 	movsd  0xf243(%rip),%xmm0        # 1a6a8 <l_1176.4370+0x70>
    b464:	00 
    b465:	f2 0f 59 c8          	mulsd  %xmm0,%xmm1
    b469:	f2 0f 10 55 f0       	movsd  -0x10(%rbp),%xmm2
    b46e:	f2 0f 10 05 3a f2 00 	movsd  0xf23a(%rip),%xmm0        # 1a6b0 <l_1176.4370+0x78>
    b475:	00 
    b476:	f2 0f 59 c2          	mulsd  %xmm2,%xmm0
    b47a:	f2 0f 59 c1          	mulsd  %xmm1,%xmm0
    b47e:	f3 0f 7e 0d 0a f2 00 	movq   0xf20a(%rip),%xmm1        # 1a690 <l_1176.4370+0x58>
    b485:	00 
    b486:	66 0f 54 c1          	andpd  %xmm1,%xmm0
    b48a:	66 0f 2f 05 26 f2 00 	comisd 0xf226(%rip),%xmm0        # 1a6b8 <l_1176.4370+0x80>
    b491:	00 
    b492:	76 07                	jbe    b49b <safe_mul_func_double_f_f+0x55>
    b494:	f2 0f 10 45 f8       	movsd  -0x8(%rbp),%xmm0
    b499:	eb 0a                	jmp    b4a5 <safe_mul_func_double_f_f+0x5f>
    b49b:	f2 0f 10 45 f8       	movsd  -0x8(%rbp),%xmm0
    b4a0:	f2 0f 59 45 f0       	mulsd  -0x10(%rbp),%xmm0
    b4a5:	5d                   	pop    %rbp
    b4a6:	c3                   	retq   

000000000000b4a7 <safe_div_func_double_f_f>:
    b4a7:	f3 0f 1e fa          	endbr64 
    b4ab:	55                   	push   %rbp
    b4ac:	48 89 e5             	mov    %rsp,%rbp
    b4af:	f2 0f 11 45 f8       	movsd  %xmm0,-0x8(%rbp)
    b4b4:	f2 0f 11 4d f0       	movsd  %xmm1,-0x10(%rbp)
    b4b9:	f2 0f 10 45 f0       	movsd  -0x10(%rbp),%xmm0
    b4be:	f3 0f 7e 0d ca f1 00 	movq   0xf1ca(%rip),%xmm1        # 1a690 <l_1176.4370+0x58>
    b4c5:	00 
    b4c6:	66 0f 54 c8          	andpd  %xmm0,%xmm1
    b4ca:	f2 0f 10 05 ee f1 00 	movsd  0xf1ee(%rip),%xmm0        # 1a6c0 <l_1176.4370+0x88>
    b4d1:	00 
    b4d2:	66 0f 2f c1          	comisd %xmm1,%xmm0
    b4d6:	0f 97 c0             	seta   %al
    b4d9:	83 f0 01             	xor    $0x1,%eax
    b4dc:	84 c0                	test   %al,%al
    b4de:	75 5a                	jne    b53a <safe_div_func_double_f_f+0x93>
    b4e0:	66 0f ef c0          	pxor   %xmm0,%xmm0
    b4e4:	66 0f 2e 45 f0       	ucomisd -0x10(%rbp),%xmm0
    b4e9:	7a 0b                	jp     b4f6 <safe_div_func_double_f_f+0x4f>
    b4eb:	66 0f ef c0          	pxor   %xmm0,%xmm0
    b4ef:	66 0f 2e 45 f0       	ucomisd -0x10(%rbp),%xmm0
    b4f4:	74 50                	je     b546 <safe_div_func_double_f_f+0x9f>
    b4f6:	f2 0f 10 4d f8       	movsd  -0x8(%rbp),%xmm1
    b4fb:	f2 0f 10 05 c5 f1 00 	movsd  0xf1c5(%rip),%xmm0        # 1a6c8 <l_1176.4370+0x90>
    b502:	00 
    b503:	f2 0f 59 c1          	mulsd  %xmm1,%xmm0
    b507:	f2 0f 10 55 f0       	movsd  -0x10(%rbp),%xmm2
    b50c:	f2 0f 10 0d bc f1 00 	movsd  0xf1bc(%rip),%xmm1        # 1a6d0 <l_1176.4370+0x98>
    b513:	00 
    b514:	f2 0f 59 ca          	mulsd  %xmm2,%xmm1
    b518:	f2 0f 5e c1          	divsd  %xmm1,%xmm0
    b51c:	f3 0f 7e 0d 6c f1 00 	movq   0xf16c(%rip),%xmm1        # 1a690 <l_1176.4370+0x58>
    b523:	00 
    b524:	66 0f 54 c1          	andpd  %xmm1,%xmm0
    b528:	66 0f 2f 05 a8 f1 00 	comisd 0xf1a8(%rip),%xmm0        # 1a6d8 <l_1176.4370+0xa0>
    b52f:	00 
    b530:	0f 97 c0             	seta   %al
    b533:	83 f0 01             	xor    $0x1,%eax
    b536:	84 c0                	test   %al,%al
    b538:	74 0c                	je     b546 <safe_div_func_double_f_f+0x9f>
    b53a:	f2 0f 10 45 f8       	movsd  -0x8(%rbp),%xmm0
    b53f:	f2 0f 5e 45 f0       	divsd  -0x10(%rbp),%xmm0
    b544:	eb 05                	jmp    b54b <safe_div_func_double_f_f+0xa4>
    b546:	f2 0f 10 45 f8       	movsd  -0x8(%rbp),%xmm0
    b54b:	5d                   	pop    %rbp
    b54c:	c3                   	retq   

000000000000b54d <safe_convert_func_float_to_int32_t>:
    b54d:	f3 0f 1e fa          	endbr64 
    b551:	55                   	push   %rbp
    b552:	48 89 e5             	mov    %rsp,%rbp
    b555:	f3 0f 11 45 fc       	movss  %xmm0,-0x4(%rbp)
    b55a:	f3 0f 10 05 7e f1 00 	movss  0xf17e(%rip),%xmm0        # 1a6e0 <l_1176.4370+0xa8>
    b561:	00 
    b562:	0f 2f 45 fc          	comiss -0x4(%rbp),%xmm0
    b566:	0f 93 c0             	setae  %al
    b569:	83 f0 01             	xor    $0x1,%eax
    b56c:	84 c0                	test   %al,%al
    b56e:	74 21                	je     b591 <safe_convert_func_float_to_int32_t+0x44>
    b570:	f3 0f 10 45 fc       	movss  -0x4(%rbp),%xmm0
    b575:	0f 2f 05 68 f1 00 00 	comiss 0xf168(%rip),%xmm0        # 1a6e4 <l_1176.4370+0xac>
    b57c:	0f 93 c0             	setae  %al
    b57f:	83 f0 01             	xor    $0x1,%eax
    b582:	84 c0                	test   %al,%al
    b584:	74 0b                	je     b591 <safe_convert_func_float_to_int32_t+0x44>
    b586:	f3 0f 10 45 fc       	movss  -0x4(%rbp),%xmm0
    b58b:	f3 0f 2c c0          	cvttss2si %xmm0,%eax
    b58f:	eb 05                	jmp    b596 <safe_convert_func_float_to_int32_t+0x49>
    b591:	b8 ff ff ff 7f       	mov    $0x7fffffff,%eax
    b596:	5d                   	pop    %rbp
    b597:	c3                   	retq   

000000000000b598 <crc32_gentab>:
    b598:	f3 0f 1e fa          	endbr64 
    b59c:	55                   	push   %rbp
    b59d:	48 89 e5             	mov    %rsp,%rbp
    b5a0:	c7 45 fc 20 83 b8 ed 	movl   $0xedb88320,-0x4(%rbp)
    b5a7:	c7 45 f4 00 00 00 00 	movl   $0x0,-0xc(%rbp)
    b5ae:	eb 51                	jmp    b601 <crc32_gentab+0x69>
    b5b0:	8b 45 f4             	mov    -0xc(%rbp),%eax
    b5b3:	89 45 f0             	mov    %eax,-0x10(%rbp)
    b5b6:	c7 45 f8 08 00 00 00 	movl   $0x8,-0x8(%rbp)
    b5bd:	eb 1e                	jmp    b5dd <crc32_gentab+0x45>
    b5bf:	8b 45 f0             	mov    -0x10(%rbp),%eax
    b5c2:	83 e0 01             	and    $0x1,%eax
    b5c5:	85 c0                	test   %eax,%eax
    b5c7:	74 0d                	je     b5d6 <crc32_gentab+0x3e>
    b5c9:	8b 45 f0             	mov    -0x10(%rbp),%eax
    b5cc:	d1 e8                	shr    %eax
    b5ce:	33 45 fc             	xor    -0x4(%rbp),%eax
    b5d1:	89 45 f0             	mov    %eax,-0x10(%rbp)
    b5d4:	eb 03                	jmp    b5d9 <crc32_gentab+0x41>
    b5d6:	d1 6d f0             	shrl   -0x10(%rbp)
    b5d9:	83 6d f8 01          	subl   $0x1,-0x8(%rbp)
    b5dd:	83 7d f8 00          	cmpl   $0x0,-0x8(%rbp)
    b5e1:	7f dc                	jg     b5bf <crc32_gentab+0x27>
    b5e3:	8b 45 f4             	mov    -0xc(%rbp),%eax
    b5e6:	48 98                	cltq   
    b5e8:	48 8d 0c 85 00 00 00 	lea    0x0(,%rax,4),%rcx
    b5ef:	00 
    b5f0:	48 8d 15 89 59 01 00 	lea    0x15989(%rip),%rdx        # 20f80 <crc32_tab>
    b5f7:	8b 45 f0             	mov    -0x10(%rbp),%eax
    b5fa:	89 04 11             	mov    %eax,(%rcx,%rdx,1)
    b5fd:	83 45 f4 01          	addl   $0x1,-0xc(%rbp)
    b601:	81 7d f4 ff 00 00 00 	cmpl   $0xff,-0xc(%rbp)
    b608:	7e a6                	jle    b5b0 <crc32_gentab+0x18>
    b60a:	90                   	nop
    b60b:	90                   	nop
    b60c:	5d                   	pop    %rbp
    b60d:	c3                   	retq   

000000000000b60e <crc32_byte>:
    b60e:	f3 0f 1e fa          	endbr64 
    b612:	55                   	push   %rbp
    b613:	48 89 e5             	mov    %rsp,%rbp
    b616:	89 f8                	mov    %edi,%eax
    b618:	88 45 fc             	mov    %al,-0x4(%rbp)
    b61b:	8b 05 ff 19 01 00    	mov    0x119ff(%rip),%eax        # 1d020 <crc32_context>
    b621:	c1 e8 08             	shr    $0x8,%eax
    b624:	89 c1                	mov    %eax,%ecx
    b626:	0f b6 55 fc          	movzbl -0x4(%rbp),%edx
    b62a:	8b 05 f0 19 01 00    	mov    0x119f0(%rip),%eax        # 1d020 <crc32_context>
    b630:	31 d0                	xor    %edx,%eax
    b632:	0f b6 c0             	movzbl %al,%eax
    b635:	89 c0                	mov    %eax,%eax
    b637:	48 8d 14 85 00 00 00 	lea    0x0(,%rax,4),%rdx
    b63e:	00 
    b63f:	48 8d 05 3a 59 01 00 	lea    0x1593a(%rip),%rax        # 20f80 <crc32_tab>
    b646:	8b 04 02             	mov    (%rdx,%rax,1),%eax
    b649:	31 c8                	xor    %ecx,%eax
    b64b:	89 05 cf 19 01 00    	mov    %eax,0x119cf(%rip)        # 1d020 <crc32_context>
    b651:	90                   	nop
    b652:	5d                   	pop    %rbp
    b653:	c3                   	retq   

000000000000b654 <crc32_8bytes>:
    b654:	f3 0f 1e fa          	endbr64 
    b658:	55                   	push   %rbp
    b659:	48 89 e5             	mov    %rsp,%rbp
    b65c:	48 83 ec 08          	sub    $0x8,%rsp
    b660:	48 89 7d f8          	mov    %rdi,-0x8(%rbp)
    b664:	48 8b 45 f8          	mov    -0x8(%rbp),%rax
    b668:	0f b6 c0             	movzbl %al,%eax
    b66b:	89 c7                	mov    %eax,%edi
    b66d:	e8 9c ff ff ff       	callq  b60e <crc32_byte>
    b672:	48 8b 45 f8          	mov    -0x8(%rbp),%rax
    b676:	48 c1 e8 08          	shr    $0x8,%rax
    b67a:	0f b6 c0             	movzbl %al,%eax
    b67d:	89 c7                	mov    %eax,%edi
    b67f:	e8 8a ff ff ff       	callq  b60e <crc32_byte>
    b684:	48 8b 45 f8          	mov    -0x8(%rbp),%rax
    b688:	48 c1 e8 10          	shr    $0x10,%rax
    b68c:	0f b6 c0             	movzbl %al,%eax
    b68f:	89 c7                	mov    %eax,%edi
    b691:	e8 78 ff ff ff       	callq  b60e <crc32_byte>
    b696:	48 8b 45 f8          	mov    -0x8(%rbp),%rax
    b69a:	48 c1 e8 18          	shr    $0x18,%rax
    b69e:	0f b6 c0             	movzbl %al,%eax
    b6a1:	89 c7                	mov    %eax,%edi
    b6a3:	e8 66 ff ff ff       	callq  b60e <crc32_byte>
    b6a8:	48 8b 45 f8          	mov    -0x8(%rbp),%rax
    b6ac:	48 c1 e8 20          	shr    $0x20,%rax
    b6b0:	0f b6 c0             	movzbl %al,%eax
    b6b3:	89 c7                	mov    %eax,%edi
    b6b5:	e8 54 ff ff ff       	callq  b60e <crc32_byte>
    b6ba:	48 8b 45 f8          	mov    -0x8(%rbp),%rax
    b6be:	48 c1 e8 28          	shr    $0x28,%rax
    b6c2:	0f b6 c0             	movzbl %al,%eax
    b6c5:	89 c7                	mov    %eax,%edi
    b6c7:	e8 42 ff ff ff       	callq  b60e <crc32_byte>
    b6cc:	48 8b 45 f8          	mov    -0x8(%rbp),%rax
    b6d0:	48 c1 e8 30          	shr    $0x30,%rax
    b6d4:	0f b6 c0             	movzbl %al,%eax
    b6d7:	89 c7                	mov    %eax,%edi
    b6d9:	e8 30 ff ff ff       	callq  b60e <crc32_byte>
    b6de:	48 8b 45 f8          	mov    -0x8(%rbp),%rax
    b6e2:	48 c1 e8 38          	shr    $0x38,%rax
    b6e6:	0f b6 c0             	movzbl %al,%eax
    b6e9:	89 c7                	mov    %eax,%edi
    b6eb:	e8 1e ff ff ff       	callq  b60e <crc32_byte>
    b6f0:	90                   	nop
    b6f1:	c9                   	leaveq 
    b6f2:	c3                   	retq   

000000000000b6f3 <transparent_crc>:
    b6f3:	f3 0f 1e fa          	endbr64 
    b6f7:	55                   	push   %rbp
    b6f8:	48 89 e5             	mov    %rsp,%rbp
    b6fb:	48 83 ec 20          	sub    $0x20,%rsp
    b6ff:	48 89 7d f8          	mov    %rdi,-0x8(%rbp)
    b703:	48 89 75 f0          	mov    %rsi,-0x10(%rbp)
    b707:	89 55 ec             	mov    %edx,-0x14(%rbp)
    b70a:	48 8b 45 f8          	mov    -0x8(%rbp),%rax
    b70e:	48 89 c7             	mov    %rax,%rdi
    b711:	e8 3e ff ff ff       	callq  b654 <crc32_8bytes>
    b716:	83 7d ec 00          	cmpl   $0x0,-0x14(%rbp)
    b71a:	74 22                	je     b73e <transparent_crc+0x4b>
    b71c:	8b 05 fe 18 01 00    	mov    0x118fe(%rip),%eax        # 1d020 <crc32_context>
    b722:	f7 d0                	not    %eax
    b724:	89 c2                	mov    %eax,%edx
    b726:	48 8b 45 f0          	mov    -0x10(%rbp),%rax
    b72a:	48 89 c6             	mov    %rax,%rsi
    b72d:	48 8d 3d fc d8 00 00 	lea    0xd8fc(%rip),%rdi        # 19030 <_IO_stdin_used+0x30>
    b734:	b8 00 00 00 00       	mov    $0x0,%eax
    b739:	e8 42 e9 ff ff       	callq  a080 <printf@plt>
    b73e:	90                   	nop
    b73f:	c9                   	leaveq 
    b740:	c3                   	retq   

000000000000b741 <transparent_crc_bytes>:
    b741:	f3 0f 1e fa          	endbr64 
    b745:	55                   	push   %rbp
    b746:	48 89 e5             	mov    %rsp,%rbp
    b749:	48 83 ec 30          	sub    $0x30,%rsp
    b74d:	48 89 7d e8          	mov    %rdi,-0x18(%rbp)
    b751:	89 75 e4             	mov    %esi,-0x1c(%rbp)
    b754:	48 89 55 d8          	mov    %rdx,-0x28(%rbp)
    b758:	89 4d e0             	mov    %ecx,-0x20(%rbp)
    b75b:	c7 45 fc 00 00 00 00 	movl   $0x0,-0x4(%rbp)
    b762:	eb 1e                	jmp    b782 <transparent_crc_bytes+0x41>
    b764:	8b 45 fc             	mov    -0x4(%rbp),%eax
    b767:	48 63 d0             	movslq %eax,%rdx
    b76a:	48 8b 45 e8          	mov    -0x18(%rbp),%rax
    b76e:	48 01 d0             	add    %rdx,%rax
    b771:	0f b6 00             	movzbl (%rax),%eax
    b774:	0f b6 c0             	movzbl %al,%eax
    b777:	89 c7                	mov    %eax,%edi
    b779:	e8 90 fe ff ff       	callq  b60e <crc32_byte>
    b77e:	83 45 fc 01          	addl   $0x1,-0x4(%rbp)
    b782:	8b 45 fc             	mov    -0x4(%rbp),%eax
    b785:	3b 45 e4             	cmp    -0x1c(%rbp),%eax
    b788:	7c da                	jl     b764 <transparent_crc_bytes+0x23>
    b78a:	83 7d e0 00          	cmpl   $0x0,-0x20(%rbp)
    b78e:	74 22                	je     b7b2 <transparent_crc_bytes+0x71>
    b790:	8b 05 8a 18 01 00    	mov    0x1188a(%rip),%eax        # 1d020 <crc32_context>
    b796:	f7 d0                	not    %eax
    b798:	89 c2                	mov    %eax,%edx
    b79a:	48 8b 45 d8          	mov    -0x28(%rbp),%rax
    b79e:	48 89 c6             	mov    %rax,%rsi
    b7a1:	48 8d 3d 88 d8 00 00 	lea    0xd888(%rip),%rdi        # 19030 <_IO_stdin_used+0x30>
    b7a8:	b8 00 00 00 00       	mov    $0x0,%eax
    b7ad:	e8 ce e8 ff ff       	callq  a080 <printf@plt>
    b7b2:	90                   	nop
    b7b3:	c9                   	leaveq 
    b7b4:	c3                   	retq   

000000000000b7b5 <func_1>:
    b7b5:	f3 0f 1e fa          	endbr64 
    b7b9:	55                   	push   %rbp
    b7ba:	48 89 e5             	mov    %rsp,%rbp
    b7bd:	41 54                	push   %r12
    b7bf:	53                   	push   %rbx
    b7c0:	48 81 ec 00 10 00 00 	sub    $0x1000,%rsp
    b7c7:	48 83 0c 24 00       	orq    $0x0,(%rsp)
    b7cc:	48 81 ec 00 02 00 00 	sub    $0x200,%rsp
    b7d3:	64 48 8b 04 25 28 00 	mov    %fs:0x28,%rax
    b7da:	00 00 
    b7dc:	48 89 45 e8          	mov    %rax,-0x18(%rbp)
    b7e0:	31 c0                	xor    %eax,%eax
    b7e2:	48 c7 85 40 ee ff ff 	movq   $0x0,-0x11c0(%rbp)
    b7e9:	00 00 00 00 
    b7ed:	48 c7 85 48 ee ff ff 	movq   $0x0,-0x11b8(%rbp)
    b7f4:	00 00 00 00 
    b7f8:	48 8d 05 49 18 01 00 	lea    0x11849(%rip),%rax        # 1d048 <g_13>
    b7ff:	48 89 85 30 ee ff ff 	mov    %rax,-0x11d0(%rbp)
    b806:	48 8d 85 30 ee ff ff 	lea    -0x11d0(%rbp),%rax
    b80d:	48 89 85 00 f8 ff ff 	mov    %rax,-0x800(%rbp)
    b814:	48 8d 85 30 ee ff ff 	lea    -0x11d0(%rbp),%rax
    b81b:	48 89 85 08 f8 ff ff 	mov    %rax,-0x7f8(%rbp)
    b822:	48 8d 85 30 ee ff ff 	lea    -0x11d0(%rbp),%rax
    b829:	48 89 85 10 f8 ff ff 	mov    %rax,-0x7f0(%rbp)
    b830:	48 8d 85 30 ee ff ff 	lea    -0x11d0(%rbp),%rax
    b837:	48 89 85 18 f8 ff ff 	mov    %rax,-0x7e8(%rbp)
    b83e:	48 8d 85 30 ee ff ff 	lea    -0x11d0(%rbp),%rax
    b845:	48 89 85 20 f8 ff ff 	mov    %rax,-0x7e0(%rbp)
    b84c:	48 8d 85 30 ee ff ff 	lea    -0x11d0(%rbp),%rax
    b853:	48 89 85 28 f8 ff ff 	mov    %rax,-0x7d8(%rbp)
    b85a:	48 8d 85 30 ee ff ff 	lea    -0x11d0(%rbp),%rax
    b861:	48 89 85 30 f8 ff ff 	mov    %rax,-0x7d0(%rbp)
    b868:	48 8d 85 30 ee ff ff 	lea    -0x11d0(%rbp),%rax
    b86f:	48 89 85 38 f8 ff ff 	mov    %rax,-0x7c8(%rbp)
    b876:	48 8d 85 30 ee ff ff 	lea    -0x11d0(%rbp),%rax
    b87d:	48 89 85 40 f8 ff ff 	mov    %rax,-0x7c0(%rbp)
    b884:	48 8d 85 30 ee ff ff 	lea    -0x11d0(%rbp),%rax
    b88b:	48 89 85 48 f8 ff ff 	mov    %rax,-0x7b8(%rbp)
    b892:	48 c7 85 50 f8 ff ff 	movq   $0x0,-0x7b0(%rbp)
    b899:	00 00 00 00 
    b89d:	48 8d 85 30 ee ff ff 	lea    -0x11d0(%rbp),%rax
    b8a4:	48 89 85 58 f8 ff ff 	mov    %rax,-0x7a8(%rbp)
    b8ab:	48 8d 85 30 ee ff ff 	lea    -0x11d0(%rbp),%rax
    b8b2:	48 89 85 60 f8 ff ff 	mov    %rax,-0x7a0(%rbp)
    b8b9:	48 c7 85 68 f8 ff ff 	movq   $0x0,-0x798(%rbp)
    b8c0:	00 00 00 00 
    b8c4:	48 8d 85 30 ee ff ff 	lea    -0x11d0(%rbp),%rax
    b8cb:	48 89 85 70 f8 ff ff 	mov    %rax,-0x790(%rbp)
    b8d2:	48 c7 85 78 f8 ff ff 	movq   $0x0,-0x788(%rbp)
    b8d9:	00 00 00 00 
    b8dd:	48 8d 85 30 ee ff ff 	lea    -0x11d0(%rbp),%rax
    b8e4:	48 89 85 80 f8 ff ff 	mov    %rax,-0x780(%rbp)
    b8eb:	48 c7 85 88 f8 ff ff 	movq   $0x0,-0x778(%rbp)
    b8f2:	00 00 00 00 
    b8f6:	48 8d 85 30 ee ff ff 	lea    -0x11d0(%rbp),%rax
    b8fd:	48 89 85 90 f8 ff ff 	mov    %rax,-0x770(%rbp)
    b904:	48 8d 85 30 ee ff ff 	lea    -0x11d0(%rbp),%rax
    b90b:	48 89 85 98 f8 ff ff 	mov    %rax,-0x768(%rbp)
    b912:	48 c7 85 a0 f8 ff ff 	movq   $0x0,-0x760(%rbp)
    b919:	00 00 00 00 
    b91d:	48 8d 85 30 ee ff ff 	lea    -0x11d0(%rbp),%rax
    b924:	48 89 85 a8 f8 ff ff 	mov    %rax,-0x758(%rbp)
    b92b:	48 8d 85 30 ee ff ff 	lea    -0x11d0(%rbp),%rax
    b932:	48 89 85 b0 f8 ff ff 	mov    %rax,-0x750(%rbp)
    b939:	48 8d 85 30 ee ff ff 	lea    -0x11d0(%rbp),%rax
    b940:	48 89 85 b8 f8 ff ff 	mov    %rax,-0x748(%rbp)
    b947:	48 8d 85 30 ee ff ff 	lea    -0x11d0(%rbp),%rax
    b94e:	48 89 85 c0 f8 ff ff 	mov    %rax,-0x740(%rbp)
    b955:	48 8d 85 30 ee ff ff 	lea    -0x11d0(%rbp),%rax
    b95c:	48 89 85 c8 f8 ff ff 	mov    %rax,-0x738(%rbp)
    b963:	48 8d 85 30 ee ff ff 	lea    -0x11d0(%rbp),%rax
    b96a:	48 89 85 d0 f8 ff ff 	mov    %rax,-0x730(%rbp)
    b971:	48 8d 85 30 ee ff ff 	lea    -0x11d0(%rbp),%rax
    b978:	48 89 85 d8 f8 ff ff 	mov    %rax,-0x728(%rbp)
    b97f:	48 8d 85 30 ee ff ff 	lea    -0x11d0(%rbp),%rax
    b986:	48 89 85 e0 f8 ff ff 	mov    %rax,-0x720(%rbp)
    b98d:	48 8d 85 30 ee ff ff 	lea    -0x11d0(%rbp),%rax
    b994:	48 89 85 e8 f8 ff ff 	mov    %rax,-0x718(%rbp)
    b99b:	48 8d 85 30 ee ff ff 	lea    -0x11d0(%rbp),%rax
    b9a2:	48 89 85 f0 f8 ff ff 	mov    %rax,-0x710(%rbp)
    b9a9:	48 8d 85 30 ee ff ff 	lea    -0x11d0(%rbp),%rax
    b9b0:	48 89 85 f8 f8 ff ff 	mov    %rax,-0x708(%rbp)
    b9b7:	48 c7 85 00 f9 ff ff 	movq   $0x0,-0x700(%rbp)
    b9be:	00 00 00 00 
    b9c2:	48 8d 85 30 ee ff ff 	lea    -0x11d0(%rbp),%rax
    b9c9:	48 89 85 08 f9 ff ff 	mov    %rax,-0x6f8(%rbp)
    b9d0:	48 8d 85 30 ee ff ff 	lea    -0x11d0(%rbp),%rax
    b9d7:	48 89 85 10 f9 ff ff 	mov    %rax,-0x6f0(%rbp)
    b9de:	48 c7 85 18 f9 ff ff 	movq   $0x0,-0x6e8(%rbp)
    b9e5:	00 00 00 00 
    b9e9:	48 8d 85 30 ee ff ff 	lea    -0x11d0(%rbp),%rax
    b9f0:	48 89 85 20 f9 ff ff 	mov    %rax,-0x6e0(%rbp)
    b9f7:	48 8d 85 30 ee ff ff 	lea    -0x11d0(%rbp),%rax
    b9fe:	48 89 85 28 f9 ff ff 	mov    %rax,-0x6d8(%rbp)
    ba05:	48 8d 85 30 ee ff ff 	lea    -0x11d0(%rbp),%rax
    ba0c:	48 89 85 30 f9 ff ff 	mov    %rax,-0x6d0(%rbp)
    ba13:	48 c7 85 38 f9 ff ff 	movq   $0x0,-0x6c8(%rbp)
    ba1a:	00 00 00 00 
    ba1e:	48 8d 85 30 ee ff ff 	lea    -0x11d0(%rbp),%rax
    ba25:	48 89 85 40 f9 ff ff 	mov    %rax,-0x6c0(%rbp)
    ba2c:	48 8d 85 30 ee ff ff 	lea    -0x11d0(%rbp),%rax
    ba33:	48 89 85 48 f9 ff ff 	mov    %rax,-0x6b8(%rbp)
    ba3a:	48 c7 85 50 f9 ff ff 	movq   $0x0,-0x6b0(%rbp)
    ba41:	00 00 00 00 
    ba45:	48 8d 85 30 ee ff ff 	lea    -0x11d0(%rbp),%rax
    ba4c:	48 89 85 58 f9 ff ff 	mov    %rax,-0x6a8(%rbp)
    ba53:	48 8d 85 30 ee ff ff 	lea    -0x11d0(%rbp),%rax
    ba5a:	48 89 85 60 f9 ff ff 	mov    %rax,-0x6a0(%rbp)
    ba61:	48 8d 85 30 ee ff ff 	lea    -0x11d0(%rbp),%rax
    ba68:	48 89 85 68 f9 ff ff 	mov    %rax,-0x698(%rbp)
    ba6f:	48 8d 85 30 ee ff ff 	lea    -0x11d0(%rbp),%rax
    ba76:	48 89 85 70 f9 ff ff 	mov    %rax,-0x690(%rbp)
    ba7d:	48 8d 85 30 ee ff ff 	lea    -0x11d0(%rbp),%rax
    ba84:	48 89 85 78 f9 ff ff 	mov    %rax,-0x688(%rbp)
    ba8b:	48 8d 85 30 ee ff ff 	lea    -0x11d0(%rbp),%rax
    ba92:	48 89 85 80 f9 ff ff 	mov    %rax,-0x680(%rbp)
    ba99:	48 8d 85 30 ee ff ff 	lea    -0x11d0(%rbp),%rax
    baa0:	48 89 85 88 f9 ff ff 	mov    %rax,-0x678(%rbp)
    baa7:	48 8d 85 30 ee ff ff 	lea    -0x11d0(%rbp),%rax
    baae:	48 89 85 90 f9 ff ff 	mov    %rax,-0x670(%rbp)
    bab5:	48 8d 85 30 ee ff ff 	lea    -0x11d0(%rbp),%rax
    babc:	48 89 85 98 f9 ff ff 	mov    %rax,-0x668(%rbp)
    bac3:	48 8d 85 30 ee ff ff 	lea    -0x11d0(%rbp),%rax
    baca:	48 89 85 a0 f9 ff ff 	mov    %rax,-0x660(%rbp)
    bad1:	48 8d 85 30 ee ff ff 	lea    -0x11d0(%rbp),%rax
    bad8:	48 89 85 a8 f9 ff ff 	mov    %rax,-0x658(%rbp)
    badf:	48 c7 85 b0 f9 ff ff 	movq   $0x0,-0x650(%rbp)
    bae6:	00 00 00 00 
    baea:	48 8d 85 30 ee ff ff 	lea    -0x11d0(%rbp),%rax
    baf1:	48 89 85 b8 f9 ff ff 	mov    %rax,-0x648(%rbp)
    baf8:	48 8d 85 30 ee ff ff 	lea    -0x11d0(%rbp),%rax
    baff:	48 89 85 c0 f9 ff ff 	mov    %rax,-0x640(%rbp)
    bb06:	48 c7 85 c8 f9 ff ff 	movq   $0x0,-0x638(%rbp)
    bb0d:	00 00 00 00 
    bb11:	48 8d 85 30 ee ff ff 	lea    -0x11d0(%rbp),%rax
    bb18:	48 89 85 d0 f9 ff ff 	mov    %rax,-0x630(%rbp)
    bb1f:	48 c7 85 d8 f9 ff ff 	movq   $0x0,-0x628(%rbp)
    bb26:	00 00 00 00 
    bb2a:	48 8d 85 30 ee ff ff 	lea    -0x11d0(%rbp),%rax
    bb31:	48 89 85 e0 f9 ff ff 	mov    %rax,-0x620(%rbp)
    bb38:	48 c7 85 e8 f9 ff ff 	movq   $0x0,-0x618(%rbp)
    bb3f:	00 00 00 00 
    bb43:	48 8d 85 30 ee ff ff 	lea    -0x11d0(%rbp),%rax
    bb4a:	48 89 85 f0 f9 ff ff 	mov    %rax,-0x610(%rbp)
    bb51:	48 8d 85 30 ee ff ff 	lea    -0x11d0(%rbp),%rax
    bb58:	48 89 85 f8 f9 ff ff 	mov    %rax,-0x608(%rbp)
    bb5f:	48 c7 85 00 fa ff ff 	movq   $0x0,-0x600(%rbp)
    bb66:	00 00 00 00 
    bb6a:	48 8d 85 30 ee ff ff 	lea    -0x11d0(%rbp),%rax
    bb71:	48 89 85 08 fa ff ff 	mov    %rax,-0x5f8(%rbp)
    bb78:	48 8d 85 30 ee ff ff 	lea    -0x11d0(%rbp),%rax
    bb7f:	48 89 85 10 fa ff ff 	mov    %rax,-0x5f0(%rbp)
    bb86:	48 8d 85 30 ee ff ff 	lea    -0x11d0(%rbp),%rax
    bb8d:	48 89 85 18 fa ff ff 	mov    %rax,-0x5e8(%rbp)
    bb94:	48 8d 85 30 ee ff ff 	lea    -0x11d0(%rbp),%rax
    bb9b:	48 89 85 20 fa ff ff 	mov    %rax,-0x5e0(%rbp)
    bba2:	48 8d 85 30 ee ff ff 	lea    -0x11d0(%rbp),%rax
    bba9:	48 89 85 28 fa ff ff 	mov    %rax,-0x5d8(%rbp)
    bbb0:	48 8d 85 30 ee ff ff 	lea    -0x11d0(%rbp),%rax
    bbb7:	48 89 85 30 fa ff ff 	mov    %rax,-0x5d0(%rbp)
    bbbe:	48 8d 85 30 ee ff ff 	lea    -0x11d0(%rbp),%rax
    bbc5:	48 89 85 38 fa ff ff 	mov    %rax,-0x5c8(%rbp)
    bbcc:	48 8d 85 30 ee ff ff 	lea    -0x11d0(%rbp),%rax
    bbd3:	48 89 85 40 fa ff ff 	mov    %rax,-0x5c0(%rbp)
    bbda:	48 8d 85 30 ee ff ff 	lea    -0x11d0(%rbp),%rax
    bbe1:	48 89 85 48 fa ff ff 	mov    %rax,-0x5b8(%rbp)
    bbe8:	48 8d 85 30 ee ff ff 	lea    -0x11d0(%rbp),%rax
    bbef:	48 89 85 50 fa ff ff 	mov    %rax,-0x5b0(%rbp)
    bbf6:	48 8d 85 30 ee ff ff 	lea    -0x11d0(%rbp),%rax
    bbfd:	48 89 85 58 fa ff ff 	mov    %rax,-0x5a8(%rbp)
    bc04:	48 c7 85 60 fa ff ff 	movq   $0x0,-0x5a0(%rbp)
    bc0b:	00 00 00 00 
    bc0f:	48 8d 85 30 ee ff ff 	lea    -0x11d0(%rbp),%rax
    bc16:	48 89 85 68 fa ff ff 	mov    %rax,-0x598(%rbp)
    bc1d:	48 8d 85 30 ee ff ff 	lea    -0x11d0(%rbp),%rax
    bc24:	48 89 85 70 fa ff ff 	mov    %rax,-0x590(%rbp)
    bc2b:	48 c7 85 78 fa ff ff 	movq   $0x0,-0x588(%rbp)
    bc32:	00 00 00 00 
    bc36:	48 8d 85 30 ee ff ff 	lea    -0x11d0(%rbp),%rax
    bc3d:	48 89 85 80 fa ff ff 	mov    %rax,-0x580(%rbp)
    bc44:	48 8d 85 30 ee ff ff 	lea    -0x11d0(%rbp),%rax
    bc4b:	48 89 85 88 fa ff ff 	mov    %rax,-0x578(%rbp)
    bc52:	48 8d 85 30 ee ff ff 	lea    -0x11d0(%rbp),%rax
    bc59:	48 89 85 90 fa ff ff 	mov    %rax,-0x570(%rbp)
    bc60:	48 c7 85 98 fa ff ff 	movq   $0x0,-0x568(%rbp)
    bc67:	00 00 00 00 
    bc6b:	48 8d 85 30 ee ff ff 	lea    -0x11d0(%rbp),%rax
    bc72:	48 89 85 a0 fa ff ff 	mov    %rax,-0x560(%rbp)
    bc79:	48 8d 85 30 ee ff ff 	lea    -0x11d0(%rbp),%rax
    bc80:	48 89 85 a8 fa ff ff 	mov    %rax,-0x558(%rbp)
    bc87:	48 c7 85 b0 fa ff ff 	movq   $0x0,-0x550(%rbp)
    bc8e:	00 00 00 00 
    bc92:	48 8d 85 30 ee ff ff 	lea    -0x11d0(%rbp),%rax
    bc99:	48 89 85 b8 fa ff ff 	mov    %rax,-0x548(%rbp)
    bca0:	48 8d 85 30 ee ff ff 	lea    -0x11d0(%rbp),%rax
    bca7:	48 89 85 c0 fa ff ff 	mov    %rax,-0x540(%rbp)
    bcae:	48 8d 85 30 ee ff ff 	lea    -0x11d0(%rbp),%rax
    bcb5:	48 89 85 c8 fa ff ff 	mov    %rax,-0x538(%rbp)
    bcbc:	48 8d 85 30 ee ff ff 	lea    -0x11d0(%rbp),%rax
    bcc3:	48 89 85 d0 fa ff ff 	mov    %rax,-0x530(%rbp)
    bcca:	48 8d 85 30 ee ff ff 	lea    -0x11d0(%rbp),%rax
    bcd1:	48 89 85 d8 fa ff ff 	mov    %rax,-0x528(%rbp)
    bcd8:	48 8d 85 30 ee ff ff 	lea    -0x11d0(%rbp),%rax
    bcdf:	48 89 85 e0 fa ff ff 	mov    %rax,-0x520(%rbp)
    bce6:	48 8d 85 30 ee ff ff 	lea    -0x11d0(%rbp),%rax
    bced:	48 89 85 e8 fa ff ff 	mov    %rax,-0x518(%rbp)
    bcf4:	48 8d 85 30 ee ff ff 	lea    -0x11d0(%rbp),%rax
    bcfb:	48 89 85 f0 fa ff ff 	mov    %rax,-0x510(%rbp)
    bd02:	48 8d 85 30 ee ff ff 	lea    -0x11d0(%rbp),%rax
    bd09:	48 89 85 f8 fa ff ff 	mov    %rax,-0x508(%rbp)
    bd10:	48 8d 85 30 ee ff ff 	lea    -0x11d0(%rbp),%rax
    bd17:	48 89 85 00 fb ff ff 	mov    %rax,-0x500(%rbp)
    bd1e:	48 8d 85 30 ee ff ff 	lea    -0x11d0(%rbp),%rax
    bd25:	48 89 85 08 fb ff ff 	mov    %rax,-0x4f8(%rbp)
    bd2c:	48 c7 85 10 fb ff ff 	movq   $0x0,-0x4f0(%rbp)
    bd33:	00 00 00 00 
    bd37:	48 8d 85 30 ee ff ff 	lea    -0x11d0(%rbp),%rax
    bd3e:	48 89 85 18 fb ff ff 	mov    %rax,-0x4e8(%rbp)
    bd45:	48 8d 85 30 ee ff ff 	lea    -0x11d0(%rbp),%rax
    bd4c:	48 89 85 20 fb ff ff 	mov    %rax,-0x4e0(%rbp)
    bd53:	48 c7 85 28 fb ff ff 	movq   $0x0,-0x4d8(%rbp)
    bd5a:	00 00 00 00 
    bd5e:	48 8d 85 30 ee ff ff 	lea    -0x11d0(%rbp),%rax
    bd65:	48 89 85 30 fb ff ff 	mov    %rax,-0x4d0(%rbp)
    bd6c:	48 c7 85 38 fb ff ff 	movq   $0x0,-0x4c8(%rbp)
    bd73:	00 00 00 00 
    bd77:	48 8d 85 30 ee ff ff 	lea    -0x11d0(%rbp),%rax
    bd7e:	48 89 85 40 fb ff ff 	mov    %rax,-0x4c0(%rbp)
    bd85:	48 c7 85 48 fb ff ff 	movq   $0x0,-0x4b8(%rbp)
    bd8c:	00 00 00 00 
    bd90:	48 8d 85 30 ee ff ff 	lea    -0x11d0(%rbp),%rax
    bd97:	48 89 85 50 fb ff ff 	mov    %rax,-0x4b0(%rbp)
    bd9e:	48 8d 85 30 ee ff ff 	lea    -0x11d0(%rbp),%rax
    bda5:	48 89 85 58 fb ff ff 	mov    %rax,-0x4a8(%rbp)
    bdac:	48 c7 85 60 fb ff ff 	movq   $0x0,-0x4a0(%rbp)
    bdb3:	00 00 00 00 
    bdb7:	48 8d 85 30 ee ff ff 	lea    -0x11d0(%rbp),%rax
    bdbe:	48 89 85 68 fb ff ff 	mov    %rax,-0x498(%rbp)
    bdc5:	48 8d 85 30 ee ff ff 	lea    -0x11d0(%rbp),%rax
    bdcc:	48 89 85 70 fb ff ff 	mov    %rax,-0x490(%rbp)
    bdd3:	48 8d 85 30 ee ff ff 	lea    -0x11d0(%rbp),%rax
    bdda:	48 89 85 78 fb ff ff 	mov    %rax,-0x488(%rbp)
    bde1:	48 8d 85 30 ee ff ff 	lea    -0x11d0(%rbp),%rax
    bde8:	48 89 85 80 fb ff ff 	mov    %rax,-0x480(%rbp)
    bdef:	48 8d 85 30 ee ff ff 	lea    -0x11d0(%rbp),%rax
    bdf6:	48 89 85 88 fb ff ff 	mov    %rax,-0x478(%rbp)
    bdfd:	48 8d 85 30 ee ff ff 	lea    -0x11d0(%rbp),%rax
    be04:	48 89 85 90 fb ff ff 	mov    %rax,-0x470(%rbp)
    be0b:	48 8d 85 30 ee ff ff 	lea    -0x11d0(%rbp),%rax
    be12:	48 89 85 98 fb ff ff 	mov    %rax,-0x468(%rbp)
    be19:	48 8d 85 30 ee ff ff 	lea    -0x11d0(%rbp),%rax
    be20:	48 89 85 a0 fb ff ff 	mov    %rax,-0x460(%rbp)
    be27:	48 8d 85 30 ee ff ff 	lea    -0x11d0(%rbp),%rax
    be2e:	48 89 85 a8 fb ff ff 	mov    %rax,-0x458(%rbp)
    be35:	48 8d 85 30 ee ff ff 	lea    -0x11d0(%rbp),%rax
    be3c:	48 89 85 b0 fb ff ff 	mov    %rax,-0x450(%rbp)
    be43:	48 8d 85 30 ee ff ff 	lea    -0x11d0(%rbp),%rax
    be4a:	48 89 85 b8 fb ff ff 	mov    %rax,-0x448(%rbp)
    be51:	48 c7 85 c0 fb ff ff 	movq   $0x0,-0x440(%rbp)
    be58:	00 00 00 00 
    be5c:	48 8d 85 30 ee ff ff 	lea    -0x11d0(%rbp),%rax
    be63:	48 89 85 c8 fb ff ff 	mov    %rax,-0x438(%rbp)
    be6a:	48 8d 85 30 ee ff ff 	lea    -0x11d0(%rbp),%rax
    be71:	48 89 85 d0 fb ff ff 	mov    %rax,-0x430(%rbp)
    be78:	48 c7 85 d8 fb ff ff 	movq   $0x0,-0x428(%rbp)
    be7f:	00 00 00 00 
    be83:	48 8d 85 30 ee ff ff 	lea    -0x11d0(%rbp),%rax
    be8a:	48 89 85 e0 fb ff ff 	mov    %rax,-0x420(%rbp)
    be91:	48 8d 85 30 ee ff ff 	lea    -0x11d0(%rbp),%rax
    be98:	48 89 85 e8 fb ff ff 	mov    %rax,-0x418(%rbp)
    be9f:	48 8d 85 30 ee ff ff 	lea    -0x11d0(%rbp),%rax
    bea6:	48 89 85 f0 fb ff ff 	mov    %rax,-0x410(%rbp)
    bead:	48 c7 85 f8 fb ff ff 	movq   $0x0,-0x408(%rbp)
    beb4:	00 00 00 00 
    beb8:	48 8d 85 30 ee ff ff 	lea    -0x11d0(%rbp),%rax
    bebf:	48 89 85 00 fc ff ff 	mov    %rax,-0x400(%rbp)
    bec6:	48 8d 85 30 ee ff ff 	lea    -0x11d0(%rbp),%rax
    becd:	48 89 85 08 fc ff ff 	mov    %rax,-0x3f8(%rbp)
    bed4:	48 c7 85 10 fc ff ff 	movq   $0x0,-0x3f0(%rbp)
    bedb:	00 00 00 00 
    bedf:	48 8d 85 30 ee ff ff 	lea    -0x11d0(%rbp),%rax
    bee6:	48 89 85 18 fc ff ff 	mov    %rax,-0x3e8(%rbp)
    beed:	48 8d 85 30 ee ff ff 	lea    -0x11d0(%rbp),%rax
    bef4:	48 89 85 20 fc ff ff 	mov    %rax,-0x3e0(%rbp)
    befb:	48 8d 85 30 ee ff ff 	lea    -0x11d0(%rbp),%rax
    bf02:	48 89 85 28 fc ff ff 	mov    %rax,-0x3d8(%rbp)
    bf09:	48 8d 85 30 ee ff ff 	lea    -0x11d0(%rbp),%rax
    bf10:	48 89 85 30 fc ff ff 	mov    %rax,-0x3d0(%rbp)
    bf17:	48 8d 85 30 ee ff ff 	lea    -0x11d0(%rbp),%rax
    bf1e:	48 89 85 38 fc ff ff 	mov    %rax,-0x3c8(%rbp)
    bf25:	48 8d 85 30 ee ff ff 	lea    -0x11d0(%rbp),%rax
    bf2c:	48 89 85 40 fc ff ff 	mov    %rax,-0x3c0(%rbp)
    bf33:	48 8d 85 30 ee ff ff 	lea    -0x11d0(%rbp),%rax
    bf3a:	48 89 85 48 fc ff ff 	mov    %rax,-0x3b8(%rbp)
    bf41:	48 8d 85 30 ee ff ff 	lea    -0x11d0(%rbp),%rax
    bf48:	48 89 85 50 fc ff ff 	mov    %rax,-0x3b0(%rbp)
    bf4f:	48 8d 85 30 ee ff ff 	lea    -0x11d0(%rbp),%rax
    bf56:	48 89 85 58 fc ff ff 	mov    %rax,-0x3a8(%rbp)
    bf5d:	48 8d 85 30 ee ff ff 	lea    -0x11d0(%rbp),%rax
    bf64:	48 89 85 60 fc ff ff 	mov    %rax,-0x3a0(%rbp)
    bf6b:	48 8d 85 30 ee ff ff 	lea    -0x11d0(%rbp),%rax
    bf72:	48 89 85 68 fc ff ff 	mov    %rax,-0x398(%rbp)
    bf79:	48 c7 85 70 fc ff ff 	movq   $0x0,-0x390(%rbp)
    bf80:	00 00 00 00 
    bf84:	48 8d 85 30 ee ff ff 	lea    -0x11d0(%rbp),%rax
    bf8b:	48 89 85 78 fc ff ff 	mov    %rax,-0x388(%rbp)
    bf92:	48 8d 85 30 ee ff ff 	lea    -0x11d0(%rbp),%rax
    bf99:	48 89 85 80 fc ff ff 	mov    %rax,-0x380(%rbp)
    bfa0:	48 c7 85 88 fc ff ff 	movq   $0x0,-0x378(%rbp)
    bfa7:	00 00 00 00 
    bfab:	48 8d 85 30 ee ff ff 	lea    -0x11d0(%rbp),%rax
    bfb2:	48 89 85 90 fc ff ff 	mov    %rax,-0x370(%rbp)
    bfb9:	48 c7 85 98 fc ff ff 	movq   $0x0,-0x368(%rbp)
    bfc0:	00 00 00 00 
    bfc4:	48 8d 85 30 ee ff ff 	lea    -0x11d0(%rbp),%rax
    bfcb:	48 89 85 a0 fc ff ff 	mov    %rax,-0x360(%rbp)
    bfd2:	48 c7 85 a8 fc ff ff 	movq   $0x0,-0x358(%rbp)
    bfd9:	00 00 00 00 
    bfdd:	48 8d 85 30 ee ff ff 	lea    -0x11d0(%rbp),%rax
    bfe4:	48 89 85 b0 fc ff ff 	mov    %rax,-0x350(%rbp)
    bfeb:	48 8d 85 30 ee ff ff 	lea    -0x11d0(%rbp),%rax
    bff2:	48 89 85 b8 fc ff ff 	mov    %rax,-0x348(%rbp)
    bff9:	48 8d 85 30 ee ff ff 	lea    -0x11d0(%rbp),%rax
    c000:	48 89 85 c0 fc ff ff 	mov    %rax,-0x340(%rbp)
    c007:	48 8d 85 30 ee ff ff 	lea    -0x11d0(%rbp),%rax
    c00e:	48 89 85 c8 fc ff ff 	mov    %rax,-0x338(%rbp)
    c015:	48 8d 85 30 ee ff ff 	lea    -0x11d0(%rbp),%rax
    c01c:	48 89 85 d0 fc ff ff 	mov    %rax,-0x330(%rbp)
    c023:	48 8d 85 30 ee ff ff 	lea    -0x11d0(%rbp),%rax
    c02a:	48 89 85 d8 fc ff ff 	mov    %rax,-0x328(%rbp)
    c031:	48 8d 85 30 ee ff ff 	lea    -0x11d0(%rbp),%rax
    c038:	48 89 85 e0 fc ff ff 	mov    %rax,-0x320(%rbp)
    c03f:	48 c7 85 e8 fc ff ff 	movq   $0x0,-0x318(%rbp)
    c046:	00 00 00 00 
    c04a:	48 c7 85 f0 fc ff ff 	movq   $0x0,-0x310(%rbp)
    c051:	00 00 00 00 
    c055:	48 8d 85 30 ee ff ff 	lea    -0x11d0(%rbp),%rax
    c05c:	48 89 85 f8 fc ff ff 	mov    %rax,-0x308(%rbp)
    c063:	48 8d 85 30 ee ff ff 	lea    -0x11d0(%rbp),%rax
    c06a:	48 89 85 00 fd ff ff 	mov    %rax,-0x300(%rbp)
    c071:	48 8d 85 30 ee ff ff 	lea    -0x11d0(%rbp),%rax
    c078:	48 89 85 08 fd ff ff 	mov    %rax,-0x2f8(%rbp)
    c07f:	48 8d 85 30 ee ff ff 	lea    -0x11d0(%rbp),%rax
    c086:	48 89 85 10 fd ff ff 	mov    %rax,-0x2f0(%rbp)
    c08d:	48 8d 85 30 ee ff ff 	lea    -0x11d0(%rbp),%rax
    c094:	48 89 85 18 fd ff ff 	mov    %rax,-0x2e8(%rbp)
    c09b:	48 8d 85 30 ee ff ff 	lea    -0x11d0(%rbp),%rax
    c0a2:	48 89 85 20 fd ff ff 	mov    %rax,-0x2e0(%rbp)
    c0a9:	48 8d 85 30 ee ff ff 	lea    -0x11d0(%rbp),%rax
    c0b0:	48 89 85 28 fd ff ff 	mov    %rax,-0x2d8(%rbp)
    c0b7:	48 8d 85 30 ee ff ff 	lea    -0x11d0(%rbp),%rax
    c0be:	48 89 85 30 fd ff ff 	mov    %rax,-0x2d0(%rbp)
    c0c5:	48 c7 85 38 fd ff ff 	movq   $0x0,-0x2c8(%rbp)
    c0cc:	00 00 00 00 
    c0d0:	48 8d 85 30 ee ff ff 	lea    -0x11d0(%rbp),%rax
    c0d7:	48 89 85 40 fd ff ff 	mov    %rax,-0x2c0(%rbp)
    c0de:	48 8d 85 30 ee ff ff 	lea    -0x11d0(%rbp),%rax
    c0e5:	48 89 85 48 fd ff ff 	mov    %rax,-0x2b8(%rbp)
    c0ec:	48 8d 85 30 ee ff ff 	lea    -0x11d0(%rbp),%rax
    c0f3:	48 89 85 50 fd ff ff 	mov    %rax,-0x2b0(%rbp)
    c0fa:	48 c7 85 58 fd ff ff 	movq   $0x0,-0x2a8(%rbp)
    c101:	00 00 00 00 
    c105:	48 8d 85 30 ee ff ff 	lea    -0x11d0(%rbp),%rax
    c10c:	48 89 85 60 fd ff ff 	mov    %rax,-0x2a0(%rbp)
    c113:	48 8d 85 30 ee ff ff 	lea    -0x11d0(%rbp),%rax
    c11a:	48 89 85 68 fd ff ff 	mov    %rax,-0x298(%rbp)
    c121:	48 8d 85 30 ee ff ff 	lea    -0x11d0(%rbp),%rax
    c128:	48 89 85 70 fd ff ff 	mov    %rax,-0x290(%rbp)
    c12f:	48 8d 85 30 ee ff ff 	lea    -0x11d0(%rbp),%rax
    c136:	48 89 85 78 fd ff ff 	mov    %rax,-0x288(%rbp)
    c13d:	48 8d 85 30 ee ff ff 	lea    -0x11d0(%rbp),%rax
    c144:	48 89 85 80 fd ff ff 	mov    %rax,-0x280(%rbp)
    c14b:	48 8d 85 30 ee ff ff 	lea    -0x11d0(%rbp),%rax
    c152:	48 89 85 88 fd ff ff 	mov    %rax,-0x278(%rbp)
    c159:	48 8d 85 30 ee ff ff 	lea    -0x11d0(%rbp),%rax
    c160:	48 89 85 90 fd ff ff 	mov    %rax,-0x270(%rbp)
    c167:	48 8d 85 30 ee ff ff 	lea    -0x11d0(%rbp),%rax
    c16e:	48 89 85 98 fd ff ff 	mov    %rax,-0x268(%rbp)
    c175:	48 c7 85 a0 fd ff ff 	movq   $0x0,-0x260(%rbp)
    c17c:	00 00 00 00 
    c180:	48 c7 85 a8 fd ff ff 	movq   $0x0,-0x258(%rbp)
    c187:	00 00 00 00 
    c18b:	48 8d 85 30 ee ff ff 	lea    -0x11d0(%rbp),%rax
    c192:	48 89 85 b0 fd ff ff 	mov    %rax,-0x250(%rbp)
    c199:	48 8d 85 30 ee ff ff 	lea    -0x11d0(%rbp),%rax
    c1a0:	48 89 85 b8 fd ff ff 	mov    %rax,-0x248(%rbp)
    c1a7:	48 8d 85 30 ee ff ff 	lea    -0x11d0(%rbp),%rax
    c1ae:	48 89 85 c0 fd ff ff 	mov    %rax,-0x240(%rbp)
    c1b5:	48 8d 85 30 ee ff ff 	lea    -0x11d0(%rbp),%rax
    c1bc:	48 89 85 c8 fd ff ff 	mov    %rax,-0x238(%rbp)
    c1c3:	48 8d 85 30 ee ff ff 	lea    -0x11d0(%rbp),%rax
    c1ca:	48 89 85 d0 fd ff ff 	mov    %rax,-0x230(%rbp)
    c1d1:	48 8d 85 30 ee ff ff 	lea    -0x11d0(%rbp),%rax
    c1d8:	48 89 85 d8 fd ff ff 	mov    %rax,-0x228(%rbp)
    c1df:	48 8d 85 30 ee ff ff 	lea    -0x11d0(%rbp),%rax
    c1e6:	48 89 85 e0 fd ff ff 	mov    %rax,-0x220(%rbp)
    c1ed:	48 8d 85 30 ee ff ff 	lea    -0x11d0(%rbp),%rax
    c1f4:	48 89 85 e8 fd ff ff 	mov    %rax,-0x218(%rbp)
    c1fb:	48 8d 85 30 ee ff ff 	lea    -0x11d0(%rbp),%rax
    c202:	48 89 85 f0 fd ff ff 	mov    %rax,-0x210(%rbp)
    c209:	48 8d 85 30 ee ff ff 	lea    -0x11d0(%rbp),%rax
    c210:	48 89 85 f8 fd ff ff 	mov    %rax,-0x208(%rbp)
    c217:	48 8d 85 30 ee ff ff 	lea    -0x11d0(%rbp),%rax
    c21e:	48 89 85 00 fe ff ff 	mov    %rax,-0x200(%rbp)
    c225:	48 8d 85 30 ee ff ff 	lea    -0x11d0(%rbp),%rax
    c22c:	48 89 85 08 fe ff ff 	mov    %rax,-0x1f8(%rbp)
    c233:	48 8d 85 30 ee ff ff 	lea    -0x11d0(%rbp),%rax
    c23a:	48 89 85 10 fe ff ff 	mov    %rax,-0x1f0(%rbp)
    c241:	48 8d 85 30 ee ff ff 	lea    -0x11d0(%rbp),%rax
    c248:	48 89 85 18 fe ff ff 	mov    %rax,-0x1e8(%rbp)
    c24f:	48 8d 85 30 ee ff ff 	lea    -0x11d0(%rbp),%rax
    c256:	48 89 85 20 fe ff ff 	mov    %rax,-0x1e0(%rbp)
    c25d:	48 8d 85 30 ee ff ff 	lea    -0x11d0(%rbp),%rax
    c264:	48 89 85 28 fe ff ff 	mov    %rax,-0x1d8(%rbp)
    c26b:	48 8d 85 30 ee ff ff 	lea    -0x11d0(%rbp),%rax
    c272:	48 89 85 30 fe ff ff 	mov    %rax,-0x1d0(%rbp)
    c279:	48 8d 85 30 ee ff ff 	lea    -0x11d0(%rbp),%rax
    c280:	48 89 85 38 fe ff ff 	mov    %rax,-0x1c8(%rbp)
    c287:	48 8d 85 30 ee ff ff 	lea    -0x11d0(%rbp),%rax
    c28e:	48 89 85 40 fe ff ff 	mov    %rax,-0x1c0(%rbp)
    c295:	48 c7 85 48 fe ff ff 	movq   $0x0,-0x1b8(%rbp)
    c29c:	00 00 00 00 
    c2a0:	48 c7 85 50 fe ff ff 	movq   $0x0,-0x1b0(%rbp)
    c2a7:	00 00 00 00 
    c2ab:	48 8d 85 30 ee ff ff 	lea    -0x11d0(%rbp),%rax
    c2b2:	48 89 85 58 fe ff ff 	mov    %rax,-0x1a8(%rbp)
    c2b9:	48 8d 85 30 ee ff ff 	lea    -0x11d0(%rbp),%rax
    c2c0:	48 89 85 60 fe ff ff 	mov    %rax,-0x1a0(%rbp)
    c2c7:	48 8d 85 30 ee ff ff 	lea    -0x11d0(%rbp),%rax
    c2ce:	48 89 85 68 fe ff ff 	mov    %rax,-0x198(%rbp)
    c2d5:	48 8d 85 30 ee ff ff 	lea    -0x11d0(%rbp),%rax
    c2dc:	48 89 85 70 fe ff ff 	mov    %rax,-0x190(%rbp)
    c2e3:	48 8d 85 30 ee ff ff 	lea    -0x11d0(%rbp),%rax
    c2ea:	48 89 85 78 fe ff ff 	mov    %rax,-0x188(%rbp)
    c2f1:	48 8d 85 30 ee ff ff 	lea    -0x11d0(%rbp),%rax
    c2f8:	48 89 85 80 fe ff ff 	mov    %rax,-0x180(%rbp)
    c2ff:	48 8d 85 30 ee ff ff 	lea    -0x11d0(%rbp),%rax
    c306:	48 89 85 88 fe ff ff 	mov    %rax,-0x178(%rbp)
    c30d:	48 8d 85 30 ee ff ff 	lea    -0x11d0(%rbp),%rax
    c314:	48 89 85 90 fe ff ff 	mov    %rax,-0x170(%rbp)
    c31b:	48 c7 85 98 fe ff ff 	movq   $0x0,-0x168(%rbp)
    c322:	00 00 00 00 
    c326:	48 8d 85 30 ee ff ff 	lea    -0x11d0(%rbp),%rax
    c32d:	48 89 85 a0 fe ff ff 	mov    %rax,-0x160(%rbp)
    c334:	48 8d 85 30 ee ff ff 	lea    -0x11d0(%rbp),%rax
    c33b:	48 89 85 a8 fe ff ff 	mov    %rax,-0x158(%rbp)
    c342:	48 8d 85 30 ee ff ff 	lea    -0x11d0(%rbp),%rax
    c349:	48 89 85 b0 fe ff ff 	mov    %rax,-0x150(%rbp)
    c350:	48 c7 85 b8 fe ff ff 	movq   $0x0,-0x148(%rbp)
    c357:	00 00 00 00 
    c35b:	48 8d 85 30 ee ff ff 	lea    -0x11d0(%rbp),%rax
    c362:	48 89 85 c0 fe ff ff 	mov    %rax,-0x140(%rbp)
    c369:	48 8d 85 30 ee ff ff 	lea    -0x11d0(%rbp),%rax
    c370:	48 89 85 c8 fe ff ff 	mov    %rax,-0x138(%rbp)
    c377:	48 8d 85 30 ee ff ff 	lea    -0x11d0(%rbp),%rax
    c37e:	48 89 85 d0 fe ff ff 	mov    %rax,-0x130(%rbp)
    c385:	48 8d 85 30 ee ff ff 	lea    -0x11d0(%rbp),%rax
    c38c:	48 89 85 d8 fe ff ff 	mov    %rax,-0x128(%rbp)
    c393:	48 8d 85 30 ee ff ff 	lea    -0x11d0(%rbp),%rax
    c39a:	48 89 85 e0 fe ff ff 	mov    %rax,-0x120(%rbp)
    c3a1:	48 8d 85 30 ee ff ff 	lea    -0x11d0(%rbp),%rax
    c3a8:	48 89 85 e8 fe ff ff 	mov    %rax,-0x118(%rbp)
    c3af:	48 8d 85 30 ee ff ff 	lea    -0x11d0(%rbp),%rax
    c3b6:	48 89 85 f0 fe ff ff 	mov    %rax,-0x110(%rbp)
    c3bd:	48 8d 85 30 ee ff ff 	lea    -0x11d0(%rbp),%rax
    c3c4:	48 89 85 f8 fe ff ff 	mov    %rax,-0x108(%rbp)
    c3cb:	48 c7 85 00 ff ff ff 	movq   $0x0,-0x100(%rbp)
    c3d2:	00 00 00 00 
    c3d6:	48 c7 85 08 ff ff ff 	movq   $0x0,-0xf8(%rbp)
    c3dd:	00 00 00 00 
    c3e1:	48 8d 85 30 ee ff ff 	lea    -0x11d0(%rbp),%rax
    c3e8:	48 89 85 10 ff ff ff 	mov    %rax,-0xf0(%rbp)
    c3ef:	48 8d 85 30 ee ff ff 	lea    -0x11d0(%rbp),%rax
    c3f6:	48 89 85 18 ff ff ff 	mov    %rax,-0xe8(%rbp)
    c3fd:	48 8d 85 30 ee ff ff 	lea    -0x11d0(%rbp),%rax
    c404:	48 89 85 20 ff ff ff 	mov    %rax,-0xe0(%rbp)
    c40b:	48 8d 85 30 ee ff ff 	lea    -0x11d0(%rbp),%rax
    c412:	48 89 85 28 ff ff ff 	mov    %rax,-0xd8(%rbp)
    c419:	48 8d 85 30 ee ff ff 	lea    -0x11d0(%rbp),%rax
    c420:	48 89 85 30 ff ff ff 	mov    %rax,-0xd0(%rbp)
    c427:	48 8d 85 30 ee ff ff 	lea    -0x11d0(%rbp),%rax
    c42e:	48 89 85 38 ff ff ff 	mov    %rax,-0xc8(%rbp)
    c435:	48 8d 85 30 ee ff ff 	lea    -0x11d0(%rbp),%rax
    c43c:	48 89 85 40 ff ff ff 	mov    %rax,-0xc0(%rbp)
    c443:	48 8d 85 30 ee ff ff 	lea    -0x11d0(%rbp),%rax
    c44a:	48 89 85 48 ff ff ff 	mov    %rax,-0xb8(%rbp)
    c451:	48 8d 85 30 ee ff ff 	lea    -0x11d0(%rbp),%rax
    c458:	48 89 85 50 ff ff ff 	mov    %rax,-0xb0(%rbp)
    c45f:	48 8d 85 30 ee ff ff 	lea    -0x11d0(%rbp),%rax
    c466:	48 89 85 58 ff ff ff 	mov    %rax,-0xa8(%rbp)
    c46d:	48 8d 85 30 ee ff ff 	lea    -0x11d0(%rbp),%rax
    c474:	48 89 85 60 ff ff ff 	mov    %rax,-0xa0(%rbp)
    c47b:	48 8d 85 30 ee ff ff 	lea    -0x11d0(%rbp),%rax
    c482:	48 89 85 68 ff ff ff 	mov    %rax,-0x98(%rbp)
    c489:	48 8d 85 30 ee ff ff 	lea    -0x11d0(%rbp),%rax
    c490:	48 89 85 70 ff ff ff 	mov    %rax,-0x90(%rbp)
    c497:	48 8d 85 30 ee ff ff 	lea    -0x11d0(%rbp),%rax
    c49e:	48 89 85 78 ff ff ff 	mov    %rax,-0x88(%rbp)
    c4a5:	48 8d 85 30 ee ff ff 	lea    -0x11d0(%rbp),%rax
    c4ac:	48 89 45 80          	mov    %rax,-0x80(%rbp)
    c4b0:	48 8d 85 30 ee ff ff 	lea    -0x11d0(%rbp),%rax
    c4b7:	48 89 45 88          	mov    %rax,-0x78(%rbp)
    c4bb:	48 8d 85 30 ee ff ff 	lea    -0x11d0(%rbp),%rax
    c4c2:	48 89 45 90          	mov    %rax,-0x70(%rbp)
    c4c6:	48 8d 85 30 ee ff ff 	lea    -0x11d0(%rbp),%rax
    c4cd:	48 89 45 98          	mov    %rax,-0x68(%rbp)
    c4d1:	48 8d 85 30 ee ff ff 	lea    -0x11d0(%rbp),%rax
    c4d8:	48 89 45 a0          	mov    %rax,-0x60(%rbp)
    c4dc:	48 c7 45 a8 00 00 00 	movq   $0x0,-0x58(%rbp)
    c4e3:	00 
    c4e4:	48 c7 45 b0 00 00 00 	movq   $0x0,-0x50(%rbp)
    c4eb:	00 
    c4ec:	48 8d 85 30 ee ff ff 	lea    -0x11d0(%rbp),%rax
    c4f3:	48 89 45 b8          	mov    %rax,-0x48(%rbp)
    c4f7:	48 8d 85 30 ee ff ff 	lea    -0x11d0(%rbp),%rax
    c4fe:	48 89 45 c0          	mov    %rax,-0x40(%rbp)
    c502:	48 8d 85 30 ee ff ff 	lea    -0x11d0(%rbp),%rax
    c509:	48 89 45 c8          	mov    %rax,-0x38(%rbp)
    c50d:	48 8d 85 30 ee ff ff 	lea    -0x11d0(%rbp),%rax
    c514:	48 89 45 d0          	mov    %rax,-0x30(%rbp)
    c518:	48 8d 85 30 ee ff ff 	lea    -0x11d0(%rbp),%rax
    c51f:	48 89 45 d8          	mov    %rax,-0x28(%rbp)
    c523:	48 8d 85 00 f8 ff ff 	lea    -0x800(%rbp),%rax
    c52a:	48 05 08 01 00 00    	add    $0x108,%rax
    c530:	48 89 85 50 ee ff ff 	mov    %rax,-0x11b0(%rbp)
    c537:	48 b8 3b 95 32 b3 d3 	movabs $0xb4cd41d3b332953b,%rax
    c53e:	41 cd b4 
    c541:	48 89 85 58 ee ff ff 	mov    %rax,-0x11a8(%rbp)
    c548:	c7 85 fc ed ff ff 01 	movl   $0x1,-0x1204(%rbp)
    c54f:	00 00 00 
    c552:	48 8d 05 77 4e 01 00 	lea    0x14e77(%rip),%rax        # 213d0 <g_967>
    c559:	48 89 85 60 ee ff ff 	mov    %rax,-0x11a0(%rbp)
    c560:	48 8d 05 59 4e 01 00 	lea    0x14e59(%rip),%rax        # 213c0 <g_806>
    c567:	48 89 85 68 ee ff ff 	mov    %rax,-0x1198(%rbp)
    c56e:	48 8d 05 6b 49 01 00 	lea    0x1496b(%rip),%rax        # 20ee0 <g_1669+0x20>
    c575:	48 89 85 70 ee ff ff 	mov    %rax,-0x1190(%rbp)
    c57c:	48 8d 05 8d 10 01 00 	lea    0x1108d(%rip),%rax        # 1d610 <g_1795>
    c583:	48 89 85 78 ee ff ff 	mov    %rax,-0x1188(%rbp)
    c58a:	c6 85 f5 ed ff ff 07 	movb   $0x7,-0x120b(%rbp)
    c591:	48 c7 85 80 ee ff ff 	movq   $0x0,-0x1180(%rbp)
    c598:	00 00 00 00 
    c59c:	c7 85 00 ee ff ff 3d 	movl   $0x5e15b93d,-0x1200(%rbp)
    c5a3:	b9 15 5e 
    c5a6:	48 8d 85 f0 f0 ff ff 	lea    -0xf10(%rbp),%rax
    c5ad:	48 8d 15 cc ca 00 00 	lea    0xcacc(%rip),%rdx        # 19080 <g_1504+0x1c>
    c5b4:	b9 69 00 00 00       	mov    $0x69,%ecx
    c5b9:	48 89 c7             	mov    %rax,%rdi
    c5bc:	48 89 d6             	mov    %rdx,%rsi
    c5bf:	f3 48 a5             	rep movsq %ds:(%rsi),%es:(%rdi)
    c5c2:	48 c7 85 e0 ee ff ff 	movq   $0x0,-0x1120(%rbp)
    c5c9:	00 00 00 00 
    c5cd:	48 8d 85 fc ed ff ff 	lea    -0x1204(%rbp),%rax
    c5d4:	48 89 85 e8 ee ff ff 	mov    %rax,-0x1118(%rbp)
    c5db:	48 8d 05 4a 10 01 00 	lea    0x1104a(%rip),%rax        # 1d62c <g_1934>
    c5e2:	48 89 85 f0 ee ff ff 	mov    %rax,-0x1110(%rbp)
    c5e9:	48 8d 85 fc ed ff ff 	lea    -0x1204(%rbp),%rax
    c5f0:	48 89 85 f8 ee ff ff 	mov    %rax,-0x1108(%rbp)
    c5f7:	48 c7 85 00 ef ff ff 	movq   $0x0,-0x1100(%rbp)
    c5fe:	00 00 00 00 
    c602:	48 c7 85 08 ef ff ff 	movq   $0x0,-0x10f8(%rbp)
    c609:	00 00 00 00 
    c60d:	48 8d 85 fc ed ff ff 	lea    -0x1204(%rbp),%rax
    c614:	48 89 85 10 ef ff ff 	mov    %rax,-0x10f0(%rbp)
    c61b:	48 8d 05 0a 10 01 00 	lea    0x1100a(%rip),%rax        # 1d62c <g_1934>
    c622:	48 89 85 18 ef ff ff 	mov    %rax,-0x10e8(%rbp)
    c629:	48 8d 85 fc ed ff ff 	lea    -0x1204(%rbp),%rax
    c630:	48 89 85 20 ef ff ff 	mov    %rax,-0x10e0(%rbp)
    c637:	48 c7 85 28 ef ff ff 	movq   $0x0,-0x10d8(%rbp)
    c63e:	00 00 00 00 
    c642:	c6 85 f6 ed ff ff 01 	movb   $0x1,-0x120a(%rbp)
    c649:	c7 85 08 ee ff ff 01 	movl   $0x1,-0x11f8(%rbp)
    c650:	00 00 00 
    c653:	c7 85 0c ee ff ff 00 	movl   $0x0,-0x11f4(%rbp)
    c65a:	00 00 00 
    c65d:	c7 85 10 ee ff ff c0 	movl   $0xdc6bffc0,-0x11f0(%rbp)
    c664:	ff 6b dc 
    c667:	0f b6 15 c4 09 01 00 	movzbl 0x109c4(%rip),%edx        # 1d032 <g_2+0x2>
    c66e:	48 8b 05 3b 33 01 00 	mov    0x1333b(%rip),%rax        # 1f9b0 <g_9>
    c675:	0f b6 d2             	movzbl %dl,%edx
    c678:	89 10                	mov    %edx,(%rax)
    c67a:	48 8b 85 50 ee ff ff 	mov    -0x11b0(%rbp),%rax
    c681:	48 c7 00 00 00 00 00 	movq   $0x0,(%rax)
    c688:	b8 01 00 00 00       	mov    $0x1,%eax
    c68d:	44 0f be e0          	movsbl %al,%r12d
    c691:	8b 05 99 df 00 00    	mov    0xdf99(%rip),%eax        # 1a630 <l_1657.4188+0x10>
    c697:	0f b7 d8             	movzwl %ax,%ebx
    c69a:	0f b6 05 a7 09 01 00 	movzbl 0x109a7(%rip),%eax        # 1d048 <g_13>
    c6a1:	0f be c0             	movsbl %al,%eax
    c6a4:	89 c2                	mov    %eax,%edx
    c6a6:	48 8d 35 97 09 01 00 	lea    0x10997(%rip),%rsi        # 1d044 <g_7>
    c6ad:	bf 00 00 00 00       	mov    $0x0,%edi
    c6b2:	e8 5a 04 00 00       	callq  cb11 <func_23>
    c6b7:	48 8b 85 58 ee ff ff 	mov    -0x11a8(%rbp),%rax
    c6be:	48 f7 d0             	not    %rax
    c6c1:	48 c1 e8 3f          	shr    $0x3f,%rax
    c6c5:	0f b6 c0             	movzbl %al,%eax
    c6c8:	8b 15 76 09 01 00    	mov    0x10976(%rip),%edx        # 1d044 <g_7>
    c6ce:	89 d7                	mov    %edx,%edi
    c6d0:	8b 95 fc ed ff ff    	mov    -0x1204(%rbp),%edx
    c6d6:	45 89 e0             	mov    %r12d,%r8d
    c6d9:	89 d9                	mov    %ebx,%ecx
    c6db:	89 c6                	mov    %eax,%esi
    c6dd:	e8 f2 03 00 00       	callq  cad4 <func_17>
    c6e2:	48 8b 95 60 ee ff ff 	mov    -0x11a0(%rbp),%rdx
    c6e9:	48 89 02             	mov    %rax,(%rdx)
    c6ec:	48 8b 85 60 ee ff ff 	mov    -0x11a0(%rbp),%rax
    c6f3:	48 8b 10             	mov    (%rax),%rdx
    c6f6:	8b 05 48 09 01 00    	mov    0x10948(%rip),%eax        # 1d044 <g_7>
    c6fc:	48 8b 0d 35 3c 01 00 	mov    0x13c35(%rip),%rcx        # 20338 <g_1149>
    c703:	48 8b 19             	mov    (%rcx),%rbx
    c706:	48 89 d6             	mov    %rdx,%rsi
    c709:	89 c7                	mov    %eax,%edi
    c70b:	e8 c3 01 00 00       	callq  c8d3 <func_14>
    c710:	48 89 03             	mov    %rax,(%rbx)
    c713:	c7 05 4b 09 01 00 00 	movl   $0x0,0x1094b(%rip)        # 1d068 <g_76>
    c71a:	00 00 00 
    c71d:	e9 78 01 00 00       	jmpq   c89a <func_1+0x10e5>
    c722:	c7 85 14 ee ff ff 0f 	movl   $0xbdcb8d0f,-0x11ec(%rbp)
    c729:	8d cb bd 
    c72c:	c7 85 d0 ee ff ff 07 	movl   $0x56d8d707,-0x1130(%rbp)
    c733:	d7 d8 56 
    c736:	c7 85 d4 ee ff ff 07 	movl   $0x56d8d707,-0x112c(%rbp)
    c73d:	d7 d8 56 
    c740:	c7 85 d8 ee ff ff 07 	movl   $0x56d8d707,-0x1128(%rbp)
    c747:	d7 d8 56 
    c74a:	c7 85 dc ee ff ff 07 	movl   $0x56d8d707,-0x1124(%rbp)
    c751:	d7 d8 56 
    c754:	c7 85 18 ee ff ff 7c 	movl   $0x134f757c,-0x11e8(%rbp)
    c75b:	75 4f 13 
    c75e:	48 8d 05 47 0d 01 00 	lea    0x10d47(%rip),%rax        # 1d4ac <g_1722+0x4>
    c765:	48 89 85 38 ee ff ff 	mov    %rax,-0x11c8(%rbp)
    c76c:	48 8d 85 38 ee ff ff 	lea    -0x11c8(%rbp),%rax
    c773:	48 89 85 88 ee ff ff 	mov    %rax,-0x1178(%rbp)
    c77a:	c7 85 04 ee ff ff 01 	movl   $0x1,-0x11fc(%rbp)
    c781:	00 00 00 
    c784:	48 8d 05 b5 0c 01 00 	lea    0x10cb5(%rip),%rax        # 1d440 <g_955>
    c78b:	48 89 85 90 ee ff ff 	mov    %rax,-0x1170(%rbp)
    c792:	66 c7 85 f8 ed ff ff 	movw   $0x1e51,-0x1208(%rbp)
    c799:	51 1e 
    c79b:	48 8d 85 30 ef ff ff 	lea    -0x10d0(%rbp),%rax
    c7a2:	48 8d 15 b7 0e 01 00 	lea    0x10eb7(%rip),%rdx        # 1d660 <g_2043+0x20>
    c7a9:	b9 38 00 00 00       	mov    $0x38,%ecx
    c7ae:	48 89 c7             	mov    %rax,%rdi
    c7b1:	48 89 d6             	mov    %rdx,%rsi
    c7b4:	f3 48 a5             	rep movsq %ds:(%rsi),%es:(%rdi)
    c7b7:	48 c7 85 98 ee ff ff 	movq   $0x0,-0x1168(%rbp)
    c7be:	00 00 00 00 
    c7c2:	48 c7 85 a0 ee ff ff 	movq   $0x0,-0x1160(%rbp)
    c7c9:	00 00 00 00 
    c7cd:	48 c7 85 a8 ee ff ff 	movq   $0x0,-0x1158(%rbp)
    c7d4:	00 00 00 00 
    c7d8:	48 8d 05 89 37 01 00 	lea    0x13789(%rip),%rax        # 1ff68 <g_807+0x4c8>
    c7df:	48 89 85 b0 ee ff ff 	mov    %rax,-0x1150(%rbp)
    c7e6:	c6 85 f7 ed ff ff 09 	movb   $0x9,-0x1209(%rbp)
    c7ed:	c7 85 1c ee ff ff c9 	movl   $0x6333cac9,-0x11e4(%rbp)
    c7f4:	ca 33 63 
    c7f7:	c7 85 20 ee ff ff f9 	movl   $0xfffffff9,-0x11e0(%rbp)
    c7fe:	ff ff ff 
    c801:	48 8d 85 40 f4 ff ff 	lea    -0xbc0(%rbp),%rax
    c808:	48 8d 15 d1 cb 00 00 	lea    0xcbd1(%rip),%rdx        # 193e0 <g_1504+0x37c>
    c80f:	b9 78 00 00 00       	mov    $0x78,%ecx
    c814:	48 89 c7             	mov    %rax,%rdi
    c817:	48 89 d6             	mov    %rdx,%rsi
    c81a:	f3 48 a5             	rep movsq %ds:(%rsi),%es:(%rdi)
    c81d:	c7 85 24 ee ff ff 1d 	movl   $0xe48f11d,-0x11dc(%rbp)
    c824:	f1 48 0e 
    c827:	66 c7 85 fa ed ff ff 	movw   $0x39a7,-0x1206(%rbp)
    c82e:	a7 39 
    c830:	48 8d 05 f9 31 01 00 	lea    0x131f9(%rip),%rax        # 1fa30 <g_371>
    c837:	48 89 85 b8 ee ff ff 	mov    %rax,-0x1148(%rbp)
    c83e:	c7 85 28 ee ff ff 00 	movl   $0x0,-0x11d8(%rbp)
    c845:	00 00 00 
    c848:	48 8d 05 91 46 01 00 	lea    0x14691(%rip),%rax        # 20ee0 <g_1669+0x20>
    c84f:	48 89 85 c0 ee ff ff 	mov    %rax,-0x1140(%rbp)
    c856:	48 b8 e9 a0 87 55 c2 	movabs $0x4fb8f9c25587a0e9,%rax
    c85d:	f9 b8 4f 
    c860:	48 89 85 c8 ee ff ff 	mov    %rax,-0x1138(%rbp)
    c867:	c7 85 2c ee ff ff 9a 	movl   $0xabbad9a,-0x11d4(%rbp)
    c86e:	ad bb 0a 
    c871:	48 8b 05 38 31 01 00 	mov    0x13138(%rip),%rax        # 1f9b0 <g_9>
    c878:	8b 10                	mov    (%rax),%edx
    c87a:	83 e2 f9             	and    $0xfffffff9,%edx
    c87d:	89 10                	mov    %edx,(%rax)
    c87f:	8b 05 e3 07 01 00    	mov    0x107e3(%rip),%eax        # 1d068 <g_76>
    c885:	48 98                	cltq   
    c887:	be 03 00 00 00       	mov    $0x3,%esi
    c88c:	48 89 c7             	mov    %rax,%rdi
    c88f:	e8 9a e7 ff ff       	callq  b02e <safe_add_func_uint64_t_u_u>
    c894:	89 05 ce 07 01 00    	mov    %eax,0x107ce(%rip)        # 1d068 <g_76>
    c89a:	8b 05 c8 07 01 00    	mov    0x107c8(%rip),%eax        # 1d068 <g_76>
    c8a0:	83 f8 16             	cmp    $0x16,%eax
    c8a3:	0f 8e 79 fe ff ff    	jle    c722 <func_1+0xf6d>
    c8a9:	48 8b 05 78 3a 01 00 	mov    0x13a78(%rip),%rax        # 20328 <g_1082>
    c8b0:	48 8b 00             	mov    (%rax),%rax
    c8b3:	48 8b 5d e8          	mov    -0x18(%rbp),%rbx
    c8b7:	64 48 33 1c 25 28 00 	xor    %fs:0x28,%rbx
    c8be:	00 00 
    c8c0:	74 05                	je     c8c7 <func_1+0x1112>
    c8c2:	e8 a9 d7 ff ff       	callq  a070 <__stack_chk_fail@plt>
    c8c7:	48 81 c4 00 12 00 00 	add    $0x1200,%rsp
    c8ce:	5b                   	pop    %rbx
    c8cf:	41 5c                	pop    %r12
    c8d1:	5d                   	pop    %rbp
    c8d2:	c3                   	retq   

000000000000c8d3 <func_14>:
    c8d3:	f3 0f 1e fa          	endbr64 
    c8d7:	55                   	push   %rbp
    c8d8:	48 89 e5             	mov    %rsp,%rbp
    c8db:	41 57                	push   %r15
    c8dd:	41 56                	push   %r14
    c8df:	41 55                	push   %r13
    c8e1:	41 54                	push   %r12
    c8e3:	53                   	push   %rbx
    c8e4:	48 83 ec 68          	sub    $0x68,%rsp
    c8e8:	89 7d 8c             	mov    %edi,-0x74(%rbp)
    c8eb:	48 89 75 80          	mov    %rsi,-0x80(%rbp)
    c8ef:	64 48 8b 04 25 28 00 	mov    %fs:0x28,%rax
    c8f6:	00 00 
    c8f8:	48 89 45 c8          	mov    %rax,-0x38(%rbp)
    c8fc:	31 c0                	xor    %eax,%eax
    c8fe:	48 8d 05 f3 45 01 00 	lea    0x145f3(%rip),%rax        # 20ef8 <g_1668>
    c905:	48 89 45 98          	mov    %rax,-0x68(%rbp)
    c909:	48 8d 05 d0 45 01 00 	lea    0x145d0(%rip),%rax        # 20ee0 <g_1669+0x20>
    c910:	48 89 45 a0          	mov    %rax,-0x60(%rbp)
    c914:	48 8d 05 65 0b 01 00 	lea    0x10b65(%rip),%rax        # 1d480 <g_1378>
    c91b:	48 89 45 a8          	mov    %rax,-0x58(%rbp)
    c91f:	c7 45 90 ec ef f8 a4 	movl   $0xa4f8efec,-0x70(%rbp)
    c926:	48 8d 05 17 07 01 00 	lea    0x10717(%rip),%rax        # 1d044 <g_7>
    c92d:	48 89 45 b0          	mov    %rax,-0x50(%rbp)
    c931:	c7 45 94 00 00 00 00 	movl   $0x0,-0x6c(%rbp)
    c938:	eb 11                	jmp    c94b <func_14+0x78>
    c93a:	8b 45 94             	mov    -0x6c(%rbp),%eax
    c93d:	48 98                	cltq   
    c93f:	c7 44 85 bc 0b 6e c3 	movl   $0x7fc36e0b,-0x44(%rbp,%rax,4)
    c946:	7f 
    c947:	83 45 94 01          	addl   $0x1,-0x6c(%rbp)
    c94b:	83 7d 94 02          	cmpl   $0x2,-0x6c(%rbp)
    c94f:	7e e9                	jle    c93a <func_14+0x67>
    c951:	8b 45 c0             	mov    -0x40(%rbp),%eax
    c954:	89 45 88             	mov    %eax,-0x78(%rbp)
    c957:	8b 4d c0             	mov    -0x40(%rbp),%ecx
    c95a:	48 8b 15 97 45 01 00 	mov    0x14597(%rip),%rdx        # 20ef8 <g_1668>
    c961:	48 8b 45 98          	mov    -0x68(%rbp),%rax
    c965:	48 89 10             	mov    %rdx,(%rax)
    c968:	48 8b 45 98          	mov    -0x68(%rbp),%rax
    c96c:	48 8b 00             	mov    (%rax),%rax
    c96f:	48 39 45 a0          	cmp    %rax,-0x60(%rbp)
    c973:	0f 95 c0             	setne  %al
    c976:	0f b6 c0             	movzbl %al,%eax
    c979:	39 c1                	cmp    %eax,%ecx
    c97b:	0f 96 c0             	setbe  %al
    c97e:	0f b6 c0             	movzbl %al,%eax
    c981:	8b 55 c4             	mov    -0x3c(%rbp),%edx
    c984:	89 c6                	mov    %eax,%esi
    c986:	89 d7                	mov    %edx,%edi
    c988:	e8 78 dc ff ff       	callq  a605 <safe_sub_func_int32_t_s_s>
    c98d:	41 89 c6             	mov    %eax,%r14d
    c990:	8b 05 e2 06 01 00    	mov    0x106e2(%rip),%eax        # 1d078 <g_143>
    c996:	89 85 7c ff ff ff    	mov    %eax,-0x84(%rbp)
    c99c:	8b 45 8c             	mov    -0x74(%rbp),%eax
    c99f:	0f b6 d8             	movzbl %al,%ebx
    c9a2:	8b 4d 8c             	mov    -0x74(%rbp),%ecx
    c9a5:	89 8d 78 ff ff ff    	mov    %ecx,-0x88(%rbp)
    c9ab:	8b 45 8c             	mov    -0x74(%rbp),%eax
    c9ae:	44 0f b7 e8          	movzwl %ax,%r13d
    c9b2:	44 8b 25 b3 06 01 00 	mov    0x106b3(%rip),%r12d        # 1d06c <g_88>
    c9b9:	8b 45 8c             	mov    -0x74(%rbp),%eax
    c9bc:	35 0b f8 62 6e       	xor    $0x6e62f80b,%eax
    c9c1:	be 03 00 00 00       	mov    $0x3,%esi
    c9c6:	89 c7                	mov    %eax,%edi
    c9c8:	e8 30 e5 ff ff       	callq  aefd <safe_mod_func_uint32_t_u_u>
    c9cd:	89 c7                	mov    %eax,%edi
    c9cf:	48 8b 05 62 3a 01 00 	mov    0x13a62(%rip),%rax        # 20438 <g_1154>
    c9d6:	4c 8b 38             	mov    (%rax),%r15
    c9d9:	8b 45 90             	mov    -0x70(%rbp),%eax
    c9dc:	44 8b 85 78 ff ff ff 	mov    -0x88(%rbp),%r8d
    c9e3:	44 89 e9             	mov    %r13d,%ecx
    c9e6:	89 c2                	mov    %eax,%edx
    c9e8:	44 89 e6             	mov    %r12d,%esi
    c9eb:	e8 e4 00 00 00       	callq  cad4 <func_17>
    c9f0:	49 89 07             	mov    %rax,(%r15)
    c9f3:	be 79 68 00 00       	mov    $0x6879,%esi
    c9f8:	bf 01 00 00 00       	mov    $0x1,%edi
    c9fd:	e8 3b e3 ff ff       	callq  ad3d <safe_mul_func_uint16_t_u_u>
    ca02:	83 7d 8c 00          	cmpl   $0x0,-0x74(%rbp)
    ca06:	0f 95 c0             	setne  %al
    ca09:	0f b6 c0             	movzbl %al,%eax
    ca0c:	39 45 8c             	cmp    %eax,-0x74(%rbp)
    ca0f:	0f 9f c0             	setg   %al
    ca12:	0f b6 c0             	movzbl %al,%eax
    ca15:	89 de                	mov    %ebx,%esi
    ca17:	89 c7                	mov    %eax,%edi
    ca19:	e8 bd e1 ff ff       	callq  abdb <safe_div_func_uint8_t_u_u>
    ca1e:	0f b6 d0             	movzbl %al,%edx
    ca21:	0f b7 05 ea 06 01 00 	movzwl 0x106ea(%rip),%eax        # 1d112 <g_698>
    ca28:	48 0f bf c0          	movswq %ax,%rax
    ca2c:	48 89 d6             	mov    %rdx,%rsi
    ca2f:	48 89 c7             	mov    %rax,%rdi
    ca32:	e8 14 e6 ff ff       	callq  b04b <safe_sub_func_uint64_t_u_u>
    ca37:	48 89 c2             	mov    %rax,%rdx
    ca3a:	48 8b 05 37 30 01 00 	mov    0x13037(%rip),%rax        # 1fa78 <g_785>
    ca41:	48 8b 00             	mov    (%rax),%rax
    ca44:	48 8b 00             	mov    (%rax),%rax
    ca47:	88 10                	mov    %dl,(%rax)
    ca49:	0f b6 00             	movzbl (%rax),%eax
    ca4c:	0f be c0             	movsbl %al,%eax
    ca4f:	8b b5 7c ff ff ff    	mov    -0x84(%rbp),%esi
    ca55:	89 c7                	mov    %eax,%edi
    ca57:	e8 92 d8 ff ff       	callq  a2ee <safe_lshift_func_int8_t_s_u>
    ca5c:	84 c0                	test   %al,%al
    ca5e:	74 07                	je     ca67 <func_14+0x194>
    ca60:	b8 01 00 00 00       	mov    $0x1,%eax
    ca65:	eb 05                	jmp    ca6c <func_14+0x199>
    ca67:	b8 00 00 00 00       	mov    $0x0,%eax
    ca6c:	89 45 90             	mov    %eax,-0x70(%rbp)
    ca6f:	8b 45 90             	mov    -0x70(%rbp),%eax
    ca72:	48 98                	cltq   
    ca74:	48 be bf fc 5e 53 b3 	movabs $0x39f34fb3535efcbf,%rsi
    ca7b:	4f f3 39 
    ca7e:	48 89 c7             	mov    %rax,%rdi
    ca81:	e8 c5 e5 ff ff       	callq  b04b <safe_sub_func_uint64_t_u_u>
    ca86:	48 83 f8 5e          	cmp    $0x5e,%rax
    ca8a:	0f 96 c0             	setbe  %al
    ca8d:	0f b6 c0             	movzbl %al,%eax
    ca90:	41 39 c6             	cmp    %eax,%r14d
    ca93:	0f 9d c0             	setge  %al
    ca96:	0f b6 c0             	movzbl %al,%eax
    ca99:	8b 55 88             	mov    -0x78(%rbp),%edx
    ca9c:	31 c2                	xor    %eax,%edx
    ca9e:	48 8b 05 93 38 01 00 	mov    0x13893(%rip),%rax        # 20338 <g_1149>
    caa5:	48 8b 00             	mov    (%rax),%rax
    caa8:	48 8b 00             	mov    (%rax),%rax
    caab:	89 10                	mov    %edx,(%rax)
    caad:	48 8b 45 b0          	mov    -0x50(%rbp),%rax
    cab1:	48 8b 5d c8          	mov    -0x38(%rbp),%rbx
    cab5:	64 48 33 1c 25 28 00 	xor    %fs:0x28,%rbx
    cabc:	00 00 
    cabe:	74 05                	je     cac5 <func_14+0x1f2>
    cac0:	e8 ab d5 ff ff       	callq  a070 <__stack_chk_fail@plt>
    cac5:	48 83 c4 68          	add    $0x68,%rsp
    cac9:	5b                   	pop    %rbx
    caca:	41 5c                	pop    %r12
    cacc:	41 5d                	pop    %r13
    cace:	41 5e                	pop    %r14
    cad0:	41 5f                	pop    %r15
    cad2:	5d                   	pop    %rbp
    cad3:	c3                   	retq   

000000000000cad4 <func_17>:
    cad4:	f3 0f 1e fa          	endbr64 
    cad8:	55                   	push   %rbp
    cad9:	48 89 e5             	mov    %rsp,%rbp
    cadc:	89 7d ec             	mov    %edi,-0x14(%rbp)
    cadf:	89 75 e8             	mov    %esi,-0x18(%rbp)
    cae2:	89 55 e4             	mov    %edx,-0x1c(%rbp)
    cae5:	89 c8                	mov    %ecx,%eax
    cae7:	44 89 45 dc          	mov    %r8d,-0x24(%rbp)
    caeb:	66 89 45 e0          	mov    %ax,-0x20(%rbp)
    caef:	66 c7 45 f6 09 00    	movw   $0x9,-0xa(%rbp)
    caf5:	48 8d 05 74 09 01 00 	lea    0x10974(%rip),%rax        # 1d470 <g_1158>
    cafc:	48 89 45 f8          	mov    %rax,-0x8(%rbp)
    cb00:	0f b7 45 f6          	movzwl -0xa(%rbp),%eax
    cb04:	83 e8 01             	sub    $0x1,%eax
    cb07:	66 89 45 f6          	mov    %ax,-0xa(%rbp)
    cb0b:	48 8b 45 f8          	mov    -0x8(%rbp),%rax
    cb0f:	5d                   	pop    %rbp
    cb10:	c3                   	retq   

000000000000cb11 <func_23>:
    cb11:	f3 0f 1e fa          	endbr64 
    cb15:	55                   	push   %rbp
    cb16:	48 89 e5             	mov    %rsp,%rbp
    cb19:	41 57                	push   %r15
    cb1b:	41 56                	push   %r14
    cb1d:	41 55                	push   %r13
    cb1f:	41 54                	push   %r12
    cb21:	53                   	push   %rbx
    cb22:	48 81 ec 00 10 00 00 	sub    $0x1000,%rsp
    cb29:	48 83 0c 24 00       	orq    $0x0,(%rsp)
    cb2e:	48 81 ec 78 07 00 00 	sub    $0x778,%rsp
    cb35:	89 f8                	mov    %edi,%eax
    cb37:	48 89 b5 60 e8 ff ff 	mov    %rsi,-0x17a0(%rbp)
    cb3e:	66 89 85 6c e8 ff ff 	mov    %ax,-0x1794(%rbp)
    cb45:	89 d0                	mov    %edx,%eax
    cb47:	88 85 68 e8 ff ff    	mov    %al,-0x1798(%rbp)
    cb4d:	64 48 8b 04 25 28 00 	mov    %fs:0x28,%rax
    cb54:	00 00 
    cb56:	48 89 45 c8          	mov    %rax,-0x38(%rbp)
    cb5a:	31 c0                	xor    %eax,%eax
    cb5c:	66 c7 85 78 e8 ff ff 	movw   $0xfffc,-0x1788(%rbp)
    cb63:	fc ff 
    cb65:	48 8d 05 ec 04 01 00 	lea    0x104ec(%rip),%rax        # 1d058 <g_29+0x8>
    cb6c:	48 89 85 60 e9 ff ff 	mov    %rax,-0x16a0(%rbp)
    cb73:	48 8d 05 e2 04 01 00 	lea    0x104e2(%rip),%rax        # 1d05c <g_29+0xc>
    cb7a:	48 89 85 68 e9 ff ff 	mov    %rax,-0x1698(%rbp)
    cb81:	48 c7 85 70 e9 ff ff 	movq   $0x0,-0x1690(%rbp)
    cb88:	00 00 00 00 
    cb8c:	48 8d 05 c5 04 01 00 	lea    0x104c5(%rip),%rax        # 1d058 <g_29+0x8>
    cb93:	48 89 85 78 e9 ff ff 	mov    %rax,-0x1688(%rbp)
    cb9a:	48 8d 05 bf 04 01 00 	lea    0x104bf(%rip),%rax        # 1d060 <g_29+0x10>
    cba1:	48 89 85 80 e9 ff ff 	mov    %rax,-0x1680(%rbp)
    cba8:	48 c7 85 88 e9 ff ff 	movq   $0x0,-0x1678(%rbp)
    cbaf:	00 00 00 00 
    cbb3:	48 c7 85 90 e9 ff ff 	movq   $0x0,-0x1670(%rbp)
    cbba:	00 00 00 00 
    cbbe:	48 8d 05 8f 04 01 00 	lea    0x1048f(%rip),%rax        # 1d054 <g_29+0x4>
    cbc5:	48 89 85 98 e9 ff ff 	mov    %rax,-0x1668(%rbp)
    cbcc:	c7 85 88 e8 ff ff f8 	movl   $0xfffffff8,-0x1778(%rbp)
    cbd3:	ff ff ff 
    cbd6:	48 8d 05 7b 04 01 00 	lea    0x1047b(%rip),%rax        # 1d058 <g_29+0x8>
    cbdd:	48 89 85 a0 e9 ff ff 	mov    %rax,-0x1660(%rbp)
    cbe4:	48 8d 05 6d 04 01 00 	lea    0x1046d(%rip),%rax        # 1d058 <g_29+0x8>
    cbeb:	48 89 85 a8 e9 ff ff 	mov    %rax,-0x1658(%rbp)
    cbf2:	48 8d 05 5f 04 01 00 	lea    0x1045f(%rip),%rax        # 1d058 <g_29+0x8>
    cbf9:	48 89 85 80 f1 ff ff 	mov    %rax,-0xe80(%rbp)
    cc00:	48 8d 05 3d 04 01 00 	lea    0x1043d(%rip),%rax        # 1d044 <g_7>
    cc07:	48 89 85 88 f1 ff ff 	mov    %rax,-0xe78(%rbp)
    cc0e:	48 8d 05 47 04 01 00 	lea    0x10447(%rip),%rax        # 1d05c <g_29+0xc>
    cc15:	48 89 85 90 f1 ff ff 	mov    %rax,-0xe70(%rbp)
    cc1c:	48 8d 05 3d 04 01 00 	lea    0x1043d(%rip),%rax        # 1d060 <g_29+0x10>
    cc23:	48 89 85 98 f1 ff ff 	mov    %rax,-0xe68(%rbp)
    cc2a:	48 8d 05 2b 04 01 00 	lea    0x1042b(%rip),%rax        # 1d05c <g_29+0xc>
    cc31:	48 89 85 a0 f1 ff ff 	mov    %rax,-0xe60(%rbp)
    cc38:	48 8d 05 05 04 01 00 	lea    0x10405(%rip),%rax        # 1d044 <g_7>
    cc3f:	48 89 85 a8 f1 ff ff 	mov    %rax,-0xe58(%rbp)
    cc46:	48 8d 85 88 e8 ff ff 	lea    -0x1778(%rbp),%rax
    cc4d:	48 89 85 b0 f1 ff ff 	mov    %rax,-0xe50(%rbp)
    cc54:	48 8d 05 e9 03 01 00 	lea    0x103e9(%rip),%rax        # 1d044 <g_7>
    cc5b:	48 89 85 b8 f1 ff ff 	mov    %rax,-0xe48(%rbp)
    cc62:	48 8d 05 db 03 01 00 	lea    0x103db(%rip),%rax        # 1d044 <g_7>
    cc69:	48 89 85 c0 f1 ff ff 	mov    %rax,-0xe40(%rbp)
    cc70:	48 8d 05 cd 03 01 00 	lea    0x103cd(%rip),%rax        # 1d044 <g_7>
    cc77:	48 89 85 c8 f1 ff ff 	mov    %rax,-0xe38(%rbp)
    cc7e:	48 8d 05 cf 03 01 00 	lea    0x103cf(%rip),%rax        # 1d054 <g_29+0x4>
    cc85:	48 89 85 d0 f1 ff ff 	mov    %rax,-0xe30(%rbp)
    cc8c:	48 8d 05 b1 03 01 00 	lea    0x103b1(%rip),%rax        # 1d044 <g_7>
    cc93:	48 89 85 d8 f1 ff ff 	mov    %rax,-0xe28(%rbp)
    cc9a:	48 8d 85 88 e8 ff ff 	lea    -0x1778(%rbp),%rax
    cca1:	48 89 85 e0 f1 ff ff 	mov    %rax,-0xe20(%rbp)
    cca8:	48 8d 05 95 03 01 00 	lea    0x10395(%rip),%rax        # 1d044 <g_7>
    ccaf:	48 89 85 e8 f1 ff ff 	mov    %rax,-0xe18(%rbp)
    ccb6:	48 8d 85 88 e8 ff ff 	lea    -0x1778(%rbp),%rax
    ccbd:	48 89 85 f0 f1 ff ff 	mov    %rax,-0xe10(%rbp)
    ccc4:	48 8d 05 95 03 01 00 	lea    0x10395(%rip),%rax        # 1d060 <g_29+0x10>
    cccb:	48 89 85 f8 f1 ff ff 	mov    %rax,-0xe08(%rbp)
    ccd2:	48 8d 85 88 e8 ff ff 	lea    -0x1778(%rbp),%rax
    ccd9:	48 89 85 00 f2 ff ff 	mov    %rax,-0xe00(%rbp)
    cce0:	48 8d 05 5d 03 01 00 	lea    0x1035d(%rip),%rax        # 1d044 <g_7>
    cce7:	48 89 85 08 f2 ff ff 	mov    %rax,-0xdf8(%rbp)
    ccee:	48 8d 05 63 03 01 00 	lea    0x10363(%rip),%rax        # 1d058 <g_29+0x8>
    ccf5:	48 89 85 10 f2 ff ff 	mov    %rax,-0xdf0(%rbp)
    ccfc:	48 8d 05 55 03 01 00 	lea    0x10355(%rip),%rax        # 1d058 <g_29+0x8>
    cd03:	48 89 85 18 f2 ff ff 	mov    %rax,-0xde8(%rbp)
    cd0a:	48 8d 05 33 03 01 00 	lea    0x10333(%rip),%rax        # 1d044 <g_7>
    cd11:	48 89 85 20 f2 ff ff 	mov    %rax,-0xde0(%rbp)
    cd18:	48 8d 05 3d 03 01 00 	lea    0x1033d(%rip),%rax        # 1d05c <g_29+0xc>
    cd1f:	48 89 85 28 f2 ff ff 	mov    %rax,-0xdd8(%rbp)
    cd26:	48 8d 85 88 e8 ff ff 	lea    -0x1778(%rbp),%rax
    cd2d:	48 89 85 30 f2 ff ff 	mov    %rax,-0xdd0(%rbp)
    cd34:	48 8d 05 09 03 01 00 	lea    0x10309(%rip),%rax        # 1d044 <g_7>
    cd3b:	48 89 85 38 f2 ff ff 	mov    %rax,-0xdc8(%rbp)
    cd42:	48 8d 05 fb 02 01 00 	lea    0x102fb(%rip),%rax        # 1d044 <g_7>
    cd49:	48 89 85 40 f2 ff ff 	mov    %rax,-0xdc0(%rbp)
    cd50:	48 8d 05 ed 02 01 00 	lea    0x102ed(%rip),%rax        # 1d044 <g_7>
    cd57:	48 89 85 48 f2 ff ff 	mov    %rax,-0xdb8(%rbp)
    cd5e:	48 8d 05 f7 02 01 00 	lea    0x102f7(%rip),%rax        # 1d05c <g_29+0xc>
    cd65:	48 89 85 50 f2 ff ff 	mov    %rax,-0xdb0(%rbp)
    cd6c:	48 8d 05 e9 02 01 00 	lea    0x102e9(%rip),%rax        # 1d05c <g_29+0xc>
    cd73:	48 89 85 58 f2 ff ff 	mov    %rax,-0xda8(%rbp)
    cd7a:	48 8d 05 d3 02 01 00 	lea    0x102d3(%rip),%rax        # 1d054 <g_29+0x4>
    cd81:	48 89 85 60 f2 ff ff 	mov    %rax,-0xda0(%rbp)
    cd88:	48 8d 05 cd 02 01 00 	lea    0x102cd(%rip),%rax        # 1d05c <g_29+0xc>
    cd8f:	48 89 85 68 f2 ff ff 	mov    %rax,-0xd98(%rbp)
    cd96:	48 8d 05 bb 02 01 00 	lea    0x102bb(%rip),%rax        # 1d058 <g_29+0x8>
    cd9d:	48 89 85 70 f2 ff ff 	mov    %rax,-0xd90(%rbp)
    cda4:	48 8d 05 99 02 01 00 	lea    0x10299(%rip),%rax        # 1d044 <g_7>
    cdab:	48 89 85 78 f2 ff ff 	mov    %rax,-0xd88(%rbp)
    cdb2:	48 8d 05 a3 02 01 00 	lea    0x102a3(%rip),%rax        # 1d05c <g_29+0xc>
    cdb9:	48 89 85 80 f2 ff ff 	mov    %rax,-0xd80(%rbp)
    cdc0:	48 8d 05 99 02 01 00 	lea    0x10299(%rip),%rax        # 1d060 <g_29+0x10>
    cdc7:	48 89 85 88 f2 ff ff 	mov    %rax,-0xd78(%rbp)
    cdce:	48 8d 05 87 02 01 00 	lea    0x10287(%rip),%rax        # 1d05c <g_29+0xc>
    cdd5:	48 89 85 90 f2 ff ff 	mov    %rax,-0xd70(%rbp)
    cddc:	48 8d 05 61 02 01 00 	lea    0x10261(%rip),%rax        # 1d044 <g_7>
    cde3:	48 89 85 98 f2 ff ff 	mov    %rax,-0xd68(%rbp)
    cdea:	48 8d 85 88 e8 ff ff 	lea    -0x1778(%rbp),%rax
    cdf1:	48 89 85 a0 f2 ff ff 	mov    %rax,-0xd60(%rbp)
    cdf8:	48 8d 05 45 02 01 00 	lea    0x10245(%rip),%rax        # 1d044 <g_7>
    cdff:	48 89 85 a8 f2 ff ff 	mov    %rax,-0xd58(%rbp)
    ce06:	48 8d 05 37 02 01 00 	lea    0x10237(%rip),%rax        # 1d044 <g_7>
    ce0d:	48 89 85 b0 f2 ff ff 	mov    %rax,-0xd50(%rbp)
    ce14:	48 8d 05 29 02 01 00 	lea    0x10229(%rip),%rax        # 1d044 <g_7>
    ce1b:	48 89 85 b8 f2 ff ff 	mov    %rax,-0xd48(%rbp)
    ce22:	48 8d 05 2b 02 01 00 	lea    0x1022b(%rip),%rax        # 1d054 <g_29+0x4>
    ce29:	48 89 85 c0 f2 ff ff 	mov    %rax,-0xd40(%rbp)
    ce30:	48 8d 05 0d 02 01 00 	lea    0x1020d(%rip),%rax        # 1d044 <g_7>
    ce37:	48 89 85 c8 f2 ff ff 	mov    %rax,-0xd38(%rbp)
    ce3e:	48 8d 85 88 e8 ff ff 	lea    -0x1778(%rbp),%rax
    ce45:	48 89 85 d0 f2 ff ff 	mov    %rax,-0xd30(%rbp)
    ce4c:	48 8d 05 f1 01 01 00 	lea    0x101f1(%rip),%rax        # 1d044 <g_7>
    ce53:	48 89 85 d8 f2 ff ff 	mov    %rax,-0xd28(%rbp)
    ce5a:	48 8d 85 88 e8 ff ff 	lea    -0x1778(%rbp),%rax
    ce61:	48 89 85 e0 f2 ff ff 	mov    %rax,-0xd20(%rbp)
    ce68:	48 8d 05 f1 01 01 00 	lea    0x101f1(%rip),%rax        # 1d060 <g_29+0x10>
    ce6f:	48 89 85 e8 f2 ff ff 	mov    %rax,-0xd18(%rbp)
    ce76:	48 8d 85 88 e8 ff ff 	lea    -0x1778(%rbp),%rax
    ce7d:	48 89 85 f0 f2 ff ff 	mov    %rax,-0xd10(%rbp)
    ce84:	48 8d 05 b9 01 01 00 	lea    0x101b9(%rip),%rax        # 1d044 <g_7>
    ce8b:	48 89 85 f8 f2 ff ff 	mov    %rax,-0xd08(%rbp)
    ce92:	48 8d 05 bf 01 01 00 	lea    0x101bf(%rip),%rax        # 1d058 <g_29+0x8>
    ce99:	48 89 85 00 f3 ff ff 	mov    %rax,-0xd00(%rbp)
    cea0:	48 8d 05 b1 01 01 00 	lea    0x101b1(%rip),%rax        # 1d058 <g_29+0x8>
    cea7:	48 89 85 08 f3 ff ff 	mov    %rax,-0xcf8(%rbp)
    ceae:	48 8d 05 8f 01 01 00 	lea    0x1018f(%rip),%rax        # 1d044 <g_7>
    ceb5:	48 89 85 10 f3 ff ff 	mov    %rax,-0xcf0(%rbp)
    cebc:	48 8d 05 99 01 01 00 	lea    0x10199(%rip),%rax        # 1d05c <g_29+0xc>
    cec3:	48 89 85 18 f3 ff ff 	mov    %rax,-0xce8(%rbp)
    ceca:	48 8d 85 88 e8 ff ff 	lea    -0x1778(%rbp),%rax
    ced1:	48 89 85 20 f3 ff ff 	mov    %rax,-0xce0(%rbp)
    ced8:	48 8d 05 65 01 01 00 	lea    0x10165(%rip),%rax        # 1d044 <g_7>
    cedf:	48 89 85 28 f3 ff ff 	mov    %rax,-0xcd8(%rbp)
    cee6:	48 8d 05 57 01 01 00 	lea    0x10157(%rip),%rax        # 1d044 <g_7>
    ceed:	48 89 85 30 f3 ff ff 	mov    %rax,-0xcd0(%rbp)
    cef4:	48 8d 05 49 01 01 00 	lea    0x10149(%rip),%rax        # 1d044 <g_7>
    cefb:	48 89 85 38 f3 ff ff 	mov    %rax,-0xcc8(%rbp)
    cf02:	48 8d 05 53 01 01 00 	lea    0x10153(%rip),%rax        # 1d05c <g_29+0xc>
    cf09:	48 89 85 40 f3 ff ff 	mov    %rax,-0xcc0(%rbp)
    cf10:	48 8d 05 45 01 01 00 	lea    0x10145(%rip),%rax        # 1d05c <g_29+0xc>
    cf17:	48 89 85 48 f3 ff ff 	mov    %rax,-0xcb8(%rbp)
    cf1e:	48 8d 05 2f 01 01 00 	lea    0x1012f(%rip),%rax        # 1d054 <g_29+0x4>
    cf25:	48 89 85 50 f3 ff ff 	mov    %rax,-0xcb0(%rbp)
    cf2c:	48 8d 05 29 01 01 00 	lea    0x10129(%rip),%rax        # 1d05c <g_29+0xc>
    cf33:	48 89 85 58 f3 ff ff 	mov    %rax,-0xca8(%rbp)
    cf3a:	48 8d 05 17 01 01 00 	lea    0x10117(%rip),%rax        # 1d058 <g_29+0x8>
    cf41:	48 89 85 60 f3 ff ff 	mov    %rax,-0xca0(%rbp)
    cf48:	48 8d 05 f5 00 01 00 	lea    0x100f5(%rip),%rax        # 1d044 <g_7>
    cf4f:	48 89 85 68 f3 ff ff 	mov    %rax,-0xc98(%rbp)
    cf56:	48 8d 05 ff 00 01 00 	lea    0x100ff(%rip),%rax        # 1d05c <g_29+0xc>
    cf5d:	48 89 85 70 f3 ff ff 	mov    %rax,-0xc90(%rbp)
    cf64:	48 8d 05 f5 00 01 00 	lea    0x100f5(%rip),%rax        # 1d060 <g_29+0x10>
    cf6b:	48 89 85 78 f3 ff ff 	mov    %rax,-0xc88(%rbp)
    cf72:	48 8d 05 e3 00 01 00 	lea    0x100e3(%rip),%rax        # 1d05c <g_29+0xc>
    cf79:	48 89 85 80 f3 ff ff 	mov    %rax,-0xc80(%rbp)
    cf80:	48 8d 05 bd 00 01 00 	lea    0x100bd(%rip),%rax        # 1d044 <g_7>
    cf87:	48 89 85 88 f3 ff ff 	mov    %rax,-0xc78(%rbp)
    cf8e:	48 8d 85 88 e8 ff ff 	lea    -0x1778(%rbp),%rax
    cf95:	48 89 85 90 f3 ff ff 	mov    %rax,-0xc70(%rbp)
    cf9c:	48 8d 05 a1 00 01 00 	lea    0x100a1(%rip),%rax        # 1d044 <g_7>
    cfa3:	48 89 85 98 f3 ff ff 	mov    %rax,-0xc68(%rbp)
    cfaa:	48 8d 05 93 00 01 00 	lea    0x10093(%rip),%rax        # 1d044 <g_7>
    cfb1:	48 89 85 a0 f3 ff ff 	mov    %rax,-0xc60(%rbp)
    cfb8:	48 8d 05 85 00 01 00 	lea    0x10085(%rip),%rax        # 1d044 <g_7>
    cfbf:	48 89 85 a8 f3 ff ff 	mov    %rax,-0xc58(%rbp)
    cfc6:	48 8d 05 87 00 01 00 	lea    0x10087(%rip),%rax        # 1d054 <g_29+0x4>
    cfcd:	48 89 85 b0 f3 ff ff 	mov    %rax,-0xc50(%rbp)
    cfd4:	48 8d 05 69 00 01 00 	lea    0x10069(%rip),%rax        # 1d044 <g_7>
    cfdb:	48 89 85 b8 f3 ff ff 	mov    %rax,-0xc48(%rbp)
    cfe2:	48 8d 85 88 e8 ff ff 	lea    -0x1778(%rbp),%rax
    cfe9:	48 89 85 c0 f3 ff ff 	mov    %rax,-0xc40(%rbp)
    cff0:	48 8d 05 4d 00 01 00 	lea    0x1004d(%rip),%rax        # 1d044 <g_7>
    cff7:	48 89 85 c8 f3 ff ff 	mov    %rax,-0xc38(%rbp)
    cffe:	48 8d 85 88 e8 ff ff 	lea    -0x1778(%rbp),%rax
    d005:	48 89 85 d0 f3 ff ff 	mov    %rax,-0xc30(%rbp)
    d00c:	48 8d 05 4d 00 01 00 	lea    0x1004d(%rip),%rax        # 1d060 <g_29+0x10>
    d013:	48 89 85 d8 f3 ff ff 	mov    %rax,-0xc28(%rbp)
    d01a:	48 8d 85 88 e8 ff ff 	lea    -0x1778(%rbp),%rax
    d021:	48 89 85 e0 f3 ff ff 	mov    %rax,-0xc20(%rbp)
    d028:	48 8d 05 15 00 01 00 	lea    0x10015(%rip),%rax        # 1d044 <g_7>
    d02f:	48 89 85 e8 f3 ff ff 	mov    %rax,-0xc18(%rbp)
    d036:	48 8d 05 1b 00 01 00 	lea    0x1001b(%rip),%rax        # 1d058 <g_29+0x8>
    d03d:	48 89 85 f0 f3 ff ff 	mov    %rax,-0xc10(%rbp)
    d044:	48 8d 05 0d 00 01 00 	lea    0x1000d(%rip),%rax        # 1d058 <g_29+0x8>
    d04b:	48 89 85 f8 f3 ff ff 	mov    %rax,-0xc08(%rbp)
    d052:	48 8d 05 eb ff 00 00 	lea    0xffeb(%rip),%rax        # 1d044 <g_7>
    d059:	48 89 85 00 f4 ff ff 	mov    %rax,-0xc00(%rbp)
    d060:	48 8d 05 f5 ff 00 00 	lea    0xfff5(%rip),%rax        # 1d05c <g_29+0xc>
    d067:	48 89 85 08 f4 ff ff 	mov    %rax,-0xbf8(%rbp)
    d06e:	48 8d 85 88 e8 ff ff 	lea    -0x1778(%rbp),%rax
    d075:	48 89 85 10 f4 ff ff 	mov    %rax,-0xbf0(%rbp)
    d07c:	48 8d 05 c1 ff 00 00 	lea    0xffc1(%rip),%rax        # 1d044 <g_7>
    d083:	48 89 85 18 f4 ff ff 	mov    %rax,-0xbe8(%rbp)
    d08a:	48 8d 05 b3 ff 00 00 	lea    0xffb3(%rip),%rax        # 1d044 <g_7>
    d091:	48 89 85 20 f4 ff ff 	mov    %rax,-0xbe0(%rbp)
    d098:	48 8d 05 a5 ff 00 00 	lea    0xffa5(%rip),%rax        # 1d044 <g_7>
    d09f:	48 89 85 28 f4 ff ff 	mov    %rax,-0xbd8(%rbp)
    d0a6:	48 8d 05 af ff 00 00 	lea    0xffaf(%rip),%rax        # 1d05c <g_29+0xc>
    d0ad:	48 89 85 30 f4 ff ff 	mov    %rax,-0xbd0(%rbp)
    d0b4:	48 8d 05 a1 ff 00 00 	lea    0xffa1(%rip),%rax        # 1d05c <g_29+0xc>
    d0bb:	48 89 85 38 f4 ff ff 	mov    %rax,-0xbc8(%rbp)
    d0c2:	48 8d 05 8b ff 00 00 	lea    0xff8b(%rip),%rax        # 1d054 <g_29+0x4>
    d0c9:	48 89 85 40 f4 ff ff 	mov    %rax,-0xbc0(%rbp)
    d0d0:	48 8d 05 85 ff 00 00 	lea    0xff85(%rip),%rax        # 1d05c <g_29+0xc>
    d0d7:	48 89 85 48 f4 ff ff 	mov    %rax,-0xbb8(%rbp)
    d0de:	48 8d 05 73 ff 00 00 	lea    0xff73(%rip),%rax        # 1d058 <g_29+0x8>
    d0e5:	48 89 85 50 f4 ff ff 	mov    %rax,-0xbb0(%rbp)
    d0ec:	48 8d 05 51 ff 00 00 	lea    0xff51(%rip),%rax        # 1d044 <g_7>
    d0f3:	48 89 85 58 f4 ff ff 	mov    %rax,-0xba8(%rbp)
    d0fa:	48 8d 05 5b ff 00 00 	lea    0xff5b(%rip),%rax        # 1d05c <g_29+0xc>
    d101:	48 89 85 60 f4 ff ff 	mov    %rax,-0xba0(%rbp)
    d108:	48 8d 05 51 ff 00 00 	lea    0xff51(%rip),%rax        # 1d060 <g_29+0x10>
    d10f:	48 89 85 68 f4 ff ff 	mov    %rax,-0xb98(%rbp)
    d116:	48 8d 05 3f ff 00 00 	lea    0xff3f(%rip),%rax        # 1d05c <g_29+0xc>
    d11d:	48 89 85 70 f4 ff ff 	mov    %rax,-0xb90(%rbp)
    d124:	48 8d 05 19 ff 00 00 	lea    0xff19(%rip),%rax        # 1d044 <g_7>
    d12b:	48 89 85 78 f4 ff ff 	mov    %rax,-0xb88(%rbp)
    d132:	48 8d 85 88 e8 ff ff 	lea    -0x1778(%rbp),%rax
    d139:	48 89 85 80 f4 ff ff 	mov    %rax,-0xb80(%rbp)
    d140:	48 8d 05 fd fe 00 00 	lea    0xfefd(%rip),%rax        # 1d044 <g_7>
    d147:	48 89 85 88 f4 ff ff 	mov    %rax,-0xb78(%rbp)
    d14e:	48 8d 05 ef fe 00 00 	lea    0xfeef(%rip),%rax        # 1d044 <g_7>
    d155:	48 89 85 90 f4 ff ff 	mov    %rax,-0xb70(%rbp)
    d15c:	48 8d 05 e1 fe 00 00 	lea    0xfee1(%rip),%rax        # 1d044 <g_7>
    d163:	48 89 85 98 f4 ff ff 	mov    %rax,-0xb68(%rbp)
    d16a:	48 8d 05 e3 fe 00 00 	lea    0xfee3(%rip),%rax        # 1d054 <g_29+0x4>
    d171:	48 89 85 a0 f4 ff ff 	mov    %rax,-0xb60(%rbp)
    d178:	48 8d 05 c5 fe 00 00 	lea    0xfec5(%rip),%rax        # 1d044 <g_7>
    d17f:	48 89 85 a8 f4 ff ff 	mov    %rax,-0xb58(%rbp)
    d186:	48 8d 85 88 e8 ff ff 	lea    -0x1778(%rbp),%rax
    d18d:	48 89 85 b0 f4 ff ff 	mov    %rax,-0xb50(%rbp)
    d194:	48 8d 05 a9 fe 00 00 	lea    0xfea9(%rip),%rax        # 1d044 <g_7>
    d19b:	48 89 85 b8 f4 ff ff 	mov    %rax,-0xb48(%rbp)
    d1a2:	48 8d 85 88 e8 ff ff 	lea    -0x1778(%rbp),%rax
    d1a9:	48 89 85 c0 f4 ff ff 	mov    %rax,-0xb40(%rbp)
    d1b0:	48 8d 05 a9 fe 00 00 	lea    0xfea9(%rip),%rax        # 1d060 <g_29+0x10>
    d1b7:	48 89 85 c8 f4 ff ff 	mov    %rax,-0xb38(%rbp)
    d1be:	48 8d 85 88 e8 ff ff 	lea    -0x1778(%rbp),%rax
    d1c5:	48 89 85 d0 f4 ff ff 	mov    %rax,-0xb30(%rbp)
    d1cc:	48 8d 05 71 fe 00 00 	lea    0xfe71(%rip),%rax        # 1d044 <g_7>
    d1d3:	48 89 85 d8 f4 ff ff 	mov    %rax,-0xb28(%rbp)
    d1da:	48 8d 05 77 fe 00 00 	lea    0xfe77(%rip),%rax        # 1d058 <g_29+0x8>
    d1e1:	48 89 85 e0 f4 ff ff 	mov    %rax,-0xb20(%rbp)
    d1e8:	48 8d 05 69 fe 00 00 	lea    0xfe69(%rip),%rax        # 1d058 <g_29+0x8>
    d1ef:	48 89 85 e8 f4 ff ff 	mov    %rax,-0xb18(%rbp)
    d1f6:	48 8d 05 47 fe 00 00 	lea    0xfe47(%rip),%rax        # 1d044 <g_7>
    d1fd:	48 89 85 f0 f4 ff ff 	mov    %rax,-0xb10(%rbp)
    d204:	48 8d 05 51 fe 00 00 	lea    0xfe51(%rip),%rax        # 1d05c <g_29+0xc>
    d20b:	48 89 85 f8 f4 ff ff 	mov    %rax,-0xb08(%rbp)
    d212:	48 8d 85 88 e8 ff ff 	lea    -0x1778(%rbp),%rax
    d219:	48 89 85 00 f5 ff ff 	mov    %rax,-0xb00(%rbp)
    d220:	48 8d 05 1d fe 00 00 	lea    0xfe1d(%rip),%rax        # 1d044 <g_7>
    d227:	48 89 85 08 f5 ff ff 	mov    %rax,-0xaf8(%rbp)
    d22e:	48 8d 05 0f fe 00 00 	lea    0xfe0f(%rip),%rax        # 1d044 <g_7>
    d235:	48 89 85 10 f5 ff ff 	mov    %rax,-0xaf0(%rbp)
    d23c:	48 8d 05 01 fe 00 00 	lea    0xfe01(%rip),%rax        # 1d044 <g_7>
    d243:	48 89 85 18 f5 ff ff 	mov    %rax,-0xae8(%rbp)
    d24a:	48 8d 05 0b fe 00 00 	lea    0xfe0b(%rip),%rax        # 1d05c <g_29+0xc>
    d251:	48 89 85 20 f5 ff ff 	mov    %rax,-0xae0(%rbp)
    d258:	48 8d 05 fd fd 00 00 	lea    0xfdfd(%rip),%rax        # 1d05c <g_29+0xc>
    d25f:	48 89 85 28 f5 ff ff 	mov    %rax,-0xad8(%rbp)
    d266:	48 8d 05 e7 fd 00 00 	lea    0xfde7(%rip),%rax        # 1d054 <g_29+0x4>
    d26d:	48 89 85 30 f5 ff ff 	mov    %rax,-0xad0(%rbp)
    d274:	48 8d 05 e1 fd 00 00 	lea    0xfde1(%rip),%rax        # 1d05c <g_29+0xc>
    d27b:	48 89 85 38 f5 ff ff 	mov    %rax,-0xac8(%rbp)
    d282:	48 8d 05 cf fd 00 00 	lea    0xfdcf(%rip),%rax        # 1d058 <g_29+0x8>
    d289:	48 89 85 40 f5 ff ff 	mov    %rax,-0xac0(%rbp)
    d290:	48 8d 05 ad fd 00 00 	lea    0xfdad(%rip),%rax        # 1d044 <g_7>
    d297:	48 89 85 48 f5 ff ff 	mov    %rax,-0xab8(%rbp)
    d29e:	48 8d 05 b7 fd 00 00 	lea    0xfdb7(%rip),%rax        # 1d05c <g_29+0xc>
    d2a5:	48 89 85 50 f5 ff ff 	mov    %rax,-0xab0(%rbp)
    d2ac:	48 8d 05 ad fd 00 00 	lea    0xfdad(%rip),%rax        # 1d060 <g_29+0x10>
    d2b3:	48 89 85 58 f5 ff ff 	mov    %rax,-0xaa8(%rbp)
    d2ba:	48 8d 05 9b fd 00 00 	lea    0xfd9b(%rip),%rax        # 1d05c <g_29+0xc>
    d2c1:	48 89 85 60 f5 ff ff 	mov    %rax,-0xaa0(%rbp)
    d2c8:	48 8d 05 75 fd 00 00 	lea    0xfd75(%rip),%rax        # 1d044 <g_7>
    d2cf:	48 89 85 68 f5 ff ff 	mov    %rax,-0xa98(%rbp)
    d2d6:	48 8d 85 88 e8 ff ff 	lea    -0x1778(%rbp),%rax
    d2dd:	48 89 85 70 f5 ff ff 	mov    %rax,-0xa90(%rbp)
    d2e4:	48 8d 05 59 fd 00 00 	lea    0xfd59(%rip),%rax        # 1d044 <g_7>
    d2eb:	48 89 85 78 f5 ff ff 	mov    %rax,-0xa88(%rbp)
    d2f2:	48 8d 05 4b fd 00 00 	lea    0xfd4b(%rip),%rax        # 1d044 <g_7>
    d2f9:	48 89 85 80 f5 ff ff 	mov    %rax,-0xa80(%rbp)
    d300:	48 8d 05 3d fd 00 00 	lea    0xfd3d(%rip),%rax        # 1d044 <g_7>
    d307:	48 89 85 88 f5 ff ff 	mov    %rax,-0xa78(%rbp)
    d30e:	48 8d 05 3f fd 00 00 	lea    0xfd3f(%rip),%rax        # 1d054 <g_29+0x4>
    d315:	48 89 85 90 f5 ff ff 	mov    %rax,-0xa70(%rbp)
    d31c:	48 8d 05 21 fd 00 00 	lea    0xfd21(%rip),%rax        # 1d044 <g_7>
    d323:	48 89 85 98 f5 ff ff 	mov    %rax,-0xa68(%rbp)
    d32a:	48 8d 85 88 e8 ff ff 	lea    -0x1778(%rbp),%rax
    d331:	48 89 85 a0 f5 ff ff 	mov    %rax,-0xa60(%rbp)
    d338:	48 8d 05 05 fd 00 00 	lea    0xfd05(%rip),%rax        # 1d044 <g_7>
    d33f:	48 89 85 a8 f5 ff ff 	mov    %rax,-0xa58(%rbp)
    d346:	48 8d 85 88 e8 ff ff 	lea    -0x1778(%rbp),%rax
    d34d:	48 89 85 b0 f5 ff ff 	mov    %rax,-0xa50(%rbp)
    d354:	48 8d 05 05 fd 00 00 	lea    0xfd05(%rip),%rax        # 1d060 <g_29+0x10>
    d35b:	48 89 85 b8 f5 ff ff 	mov    %rax,-0xa48(%rbp)
    d362:	48 8d 85 88 e8 ff ff 	lea    -0x1778(%rbp),%rax
    d369:	48 89 85 c0 f5 ff ff 	mov    %rax,-0xa40(%rbp)
    d370:	48 8d 05 e5 fc 00 00 	lea    0xfce5(%rip),%rax        # 1d05c <g_29+0xc>
    d377:	48 89 85 c8 f5 ff ff 	mov    %rax,-0xa38(%rbp)
    d37e:	48 8d 05 bf fc 00 00 	lea    0xfcbf(%rip),%rax        # 1d044 <g_7>
    d385:	48 89 85 d0 f5 ff ff 	mov    %rax,-0xa30(%rbp)
    d38c:	48 8d 05 b1 fc 00 00 	lea    0xfcb1(%rip),%rax        # 1d044 <g_7>
    d393:	48 89 85 d8 f5 ff ff 	mov    %rax,-0xa28(%rbp)
    d39a:	48 8d 85 88 e8 ff ff 	lea    -0x1778(%rbp),%rax
    d3a1:	48 89 85 e0 f5 ff ff 	mov    %rax,-0xa20(%rbp)
    d3a8:	48 8d 05 95 fc 00 00 	lea    0xfc95(%rip),%rax        # 1d044 <g_7>
    d3af:	48 89 85 e8 f5 ff ff 	mov    %rax,-0xa18(%rbp)
    d3b6:	48 8d 85 88 e8 ff ff 	lea    -0x1778(%rbp),%rax
    d3bd:	48 89 85 f0 f5 ff ff 	mov    %rax,-0xa10(%rbp)
    d3c4:	48 8d 05 91 fc 00 00 	lea    0xfc91(%rip),%rax        # 1d05c <g_29+0xc>
    d3cb:	48 89 85 f8 f5 ff ff 	mov    %rax,-0xa08(%rbp)
    d3d2:	48 8d 85 88 e8 ff ff 	lea    -0x1778(%rbp),%rax
    d3d9:	48 89 85 00 f6 ff ff 	mov    %rax,-0xa00(%rbp)
    d3e0:	48 8d 05 71 fc 00 00 	lea    0xfc71(%rip),%rax        # 1d058 <g_29+0x8>
    d3e7:	48 89 85 08 f6 ff ff 	mov    %rax,-0x9f8(%rbp)
    d3ee:	48 8d 05 4f fc 00 00 	lea    0xfc4f(%rip),%rax        # 1d044 <g_7>
    d3f5:	48 89 85 10 f6 ff ff 	mov    %rax,-0x9f0(%rbp)
    d3fc:	48 8d 05 41 fc 00 00 	lea    0xfc41(%rip),%rax        # 1d044 <g_7>
    d403:	48 89 85 18 f6 ff ff 	mov    %rax,-0x9e8(%rbp)
    d40a:	48 8d 05 4b fc 00 00 	lea    0xfc4b(%rip),%rax        # 1d05c <g_29+0xc>
    d411:	48 89 85 20 f6 ff ff 	mov    %rax,-0x9e0(%rbp)
    d418:	48 8d 05 25 fc 00 00 	lea    0xfc25(%rip),%rax        # 1d044 <g_7>
    d41f:	48 89 85 28 f6 ff ff 	mov    %rax,-0x9d8(%rbp)
    d426:	48 8d 05 17 fc 00 00 	lea    0xfc17(%rip),%rax        # 1d044 <g_7>
    d42d:	48 89 85 30 f6 ff ff 	mov    %rax,-0x9d0(%rbp)
    d434:	48 8d 85 88 e8 ff ff 	lea    -0x1778(%rbp),%rax
    d43b:	48 89 85 38 f6 ff ff 	mov    %rax,-0x9c8(%rbp)
    d442:	48 8d 05 fb fb 00 00 	lea    0xfbfb(%rip),%rax        # 1d044 <g_7>
    d449:	48 89 85 40 f6 ff ff 	mov    %rax,-0x9c0(%rbp)
    d450:	48 8d 05 ed fb 00 00 	lea    0xfbed(%rip),%rax        # 1d044 <g_7>
    d457:	48 89 85 48 f6 ff ff 	mov    %rax,-0x9b8(%rbp)
    d45e:	48 8d 85 88 e8 ff ff 	lea    -0x1778(%rbp),%rax
    d465:	48 89 85 50 f6 ff ff 	mov    %rax,-0x9b0(%rbp)
    d46c:	48 8d 05 e9 fb 00 00 	lea    0xfbe9(%rip),%rax        # 1d05c <g_29+0xc>
    d473:	48 89 85 58 f6 ff ff 	mov    %rax,-0x9a8(%rbp)
    d47a:	48 8d 05 db fb 00 00 	lea    0xfbdb(%rip),%rax        # 1d05c <g_29+0xc>
    d481:	48 89 85 60 f6 ff ff 	mov    %rax,-0x9a0(%rbp)
    d488:	48 8d 85 88 e8 ff ff 	lea    -0x1778(%rbp),%rax
    d48f:	48 89 85 68 f6 ff ff 	mov    %rax,-0x998(%rbp)
    d496:	48 8d 85 88 e8 ff ff 	lea    -0x1778(%rbp),%rax
    d49d:	48 89 85 70 f6 ff ff 	mov    %rax,-0x990(%rbp)
    d4a4:	48 8d 05 b1 fb 00 00 	lea    0xfbb1(%rip),%rax        # 1d05c <g_29+0xc>
    d4ab:	48 89 85 78 f6 ff ff 	mov    %rax,-0x988(%rbp)
    d4b2:	48 8d 05 a3 fb 00 00 	lea    0xfba3(%rip),%rax        # 1d05c <g_29+0xc>
    d4b9:	48 89 85 80 f6 ff ff 	mov    %rax,-0x980(%rbp)
    d4c0:	48 8d 05 95 fb 00 00 	lea    0xfb95(%rip),%rax        # 1d05c <g_29+0xc>
    d4c7:	48 89 85 88 f6 ff ff 	mov    %rax,-0x978(%rbp)
    d4ce:	48 8d 05 87 fb 00 00 	lea    0xfb87(%rip),%rax        # 1d05c <g_29+0xc>
    d4d5:	48 89 85 90 f6 ff ff 	mov    %rax,-0x970(%rbp)
    d4dc:	48 8d 05 75 fb 00 00 	lea    0xfb75(%rip),%rax        # 1d058 <g_29+0x8>
    d4e3:	48 89 85 98 f6 ff ff 	mov    %rax,-0x968(%rbp)
    d4ea:	48 8d 05 6b fb 00 00 	lea    0xfb6b(%rip),%rax        # 1d05c <g_29+0xc>
    d4f1:	48 89 85 a0 f6 ff ff 	mov    %rax,-0x960(%rbp)
    d4f8:	48 8d 05 45 fb 00 00 	lea    0xfb45(%rip),%rax        # 1d044 <g_7>
    d4ff:	48 89 85 a8 f6 ff ff 	mov    %rax,-0x958(%rbp)
    d506:	48 8d 85 88 e8 ff ff 	lea    -0x1778(%rbp),%rax
    d50d:	48 89 85 b0 f6 ff ff 	mov    %rax,-0x950(%rbp)
    d514:	48 8d 05 41 fb 00 00 	lea    0xfb41(%rip),%rax        # 1d05c <g_29+0xc>
    d51b:	48 89 85 b8 f6 ff ff 	mov    %rax,-0x948(%rbp)
    d522:	48 8d 05 1b fb 00 00 	lea    0xfb1b(%rip),%rax        # 1d044 <g_7>
    d529:	48 89 85 c0 f6 ff ff 	mov    %rax,-0x940(%rbp)
    d530:	48 8d 05 0d fb 00 00 	lea    0xfb0d(%rip),%rax        # 1d044 <g_7>
    d537:	48 89 85 c8 f6 ff ff 	mov    %rax,-0x938(%rbp)
    d53e:	48 8d 85 88 e8 ff ff 	lea    -0x1778(%rbp),%rax
    d545:	48 89 85 d0 f6 ff ff 	mov    %rax,-0x930(%rbp)
    d54c:	48 8d 05 f1 fa 00 00 	lea    0xfaf1(%rip),%rax        # 1d044 <g_7>
    d553:	48 89 85 d8 f6 ff ff 	mov    %rax,-0x928(%rbp)
    d55a:	48 8d 85 88 e8 ff ff 	lea    -0x1778(%rbp),%rax
    d561:	48 89 85 e0 f6 ff ff 	mov    %rax,-0x920(%rbp)
    d568:	48 8d 05 ed fa 00 00 	lea    0xfaed(%rip),%rax        # 1d05c <g_29+0xc>
    d56f:	48 89 85 e8 f6 ff ff 	mov    %rax,-0x918(%rbp)
    d576:	48 8d 85 88 e8 ff ff 	lea    -0x1778(%rbp),%rax
    d57d:	48 89 85 f0 f6 ff ff 	mov    %rax,-0x910(%rbp)
    d584:	48 8d 05 cd fa 00 00 	lea    0xfacd(%rip),%rax        # 1d058 <g_29+0x8>
    d58b:	48 89 85 f8 f6 ff ff 	mov    %rax,-0x908(%rbp)
    d592:	48 8d 05 ab fa 00 00 	lea    0xfaab(%rip),%rax        # 1d044 <g_7>
    d599:	48 89 85 00 f7 ff ff 	mov    %rax,-0x900(%rbp)
    d5a0:	48 8d 05 9d fa 00 00 	lea    0xfa9d(%rip),%rax        # 1d044 <g_7>
    d5a7:	48 89 85 08 f7 ff ff 	mov    %rax,-0x8f8(%rbp)
    d5ae:	48 8d 05 a7 fa 00 00 	lea    0xfaa7(%rip),%rax        # 1d05c <g_29+0xc>
    d5b5:	48 89 85 10 f7 ff ff 	mov    %rax,-0x8f0(%rbp)
    d5bc:	48 8d 05 81 fa 00 00 	lea    0xfa81(%rip),%rax        # 1d044 <g_7>
    d5c3:	48 89 85 18 f7 ff ff 	mov    %rax,-0x8e8(%rbp)
    d5ca:	48 8d 05 73 fa 00 00 	lea    0xfa73(%rip),%rax        # 1d044 <g_7>
    d5d1:	48 89 85 20 f7 ff ff 	mov    %rax,-0x8e0(%rbp)
    d5d8:	48 8d 85 88 e8 ff ff 	lea    -0x1778(%rbp),%rax
    d5df:	48 89 85 28 f7 ff ff 	mov    %rax,-0x8d8(%rbp)
    d5e6:	48 8d 05 57 fa 00 00 	lea    0xfa57(%rip),%rax        # 1d044 <g_7>
    d5ed:	48 89 85 30 f7 ff ff 	mov    %rax,-0x8d0(%rbp)
    d5f4:	48 8d 05 49 fa 00 00 	lea    0xfa49(%rip),%rax        # 1d044 <g_7>
    d5fb:	48 89 85 38 f7 ff ff 	mov    %rax,-0x8c8(%rbp)
    d602:	48 8d 85 88 e8 ff ff 	lea    -0x1778(%rbp),%rax
    d609:	48 89 85 40 f7 ff ff 	mov    %rax,-0x8c0(%rbp)
    d610:	48 8d 05 45 fa 00 00 	lea    0xfa45(%rip),%rax        # 1d05c <g_29+0xc>
    d617:	48 89 85 48 f7 ff ff 	mov    %rax,-0x8b8(%rbp)
    d61e:	48 8d 05 37 fa 00 00 	lea    0xfa37(%rip),%rax        # 1d05c <g_29+0xc>
    d625:	48 89 85 50 f7 ff ff 	mov    %rax,-0x8b0(%rbp)
    d62c:	48 8d 85 88 e8 ff ff 	lea    -0x1778(%rbp),%rax
    d633:	48 89 85 58 f7 ff ff 	mov    %rax,-0x8a8(%rbp)
    d63a:	48 8d 85 88 e8 ff ff 	lea    -0x1778(%rbp),%rax
    d641:	48 89 85 60 f7 ff ff 	mov    %rax,-0x8a0(%rbp)
    d648:	48 8d 05 0d fa 00 00 	lea    0xfa0d(%rip),%rax        # 1d05c <g_29+0xc>
    d64f:	48 89 85 68 f7 ff ff 	mov    %rax,-0x898(%rbp)
    d656:	48 8d 05 ff f9 00 00 	lea    0xf9ff(%rip),%rax        # 1d05c <g_29+0xc>
    d65d:	48 89 85 70 f7 ff ff 	mov    %rax,-0x890(%rbp)
    d664:	48 8d 05 f1 f9 00 00 	lea    0xf9f1(%rip),%rax        # 1d05c <g_29+0xc>
    d66b:	48 89 85 78 f7 ff ff 	mov    %rax,-0x888(%rbp)
    d672:	48 8d 05 e3 f9 00 00 	lea    0xf9e3(%rip),%rax        # 1d05c <g_29+0xc>
    d679:	48 89 85 80 f7 ff ff 	mov    %rax,-0x880(%rbp)
    d680:	48 8d 05 d1 f9 00 00 	lea    0xf9d1(%rip),%rax        # 1d058 <g_29+0x8>
    d687:	48 89 85 88 f7 ff ff 	mov    %rax,-0x878(%rbp)
    d68e:	48 8d 05 c7 f9 00 00 	lea    0xf9c7(%rip),%rax        # 1d05c <g_29+0xc>
    d695:	48 89 85 90 f7 ff ff 	mov    %rax,-0x870(%rbp)
    d69c:	48 8d 05 a1 f9 00 00 	lea    0xf9a1(%rip),%rax        # 1d044 <g_7>
    d6a3:	48 89 85 98 f7 ff ff 	mov    %rax,-0x868(%rbp)
    d6aa:	48 8d 85 88 e8 ff ff 	lea    -0x1778(%rbp),%rax
    d6b1:	48 89 85 a0 f7 ff ff 	mov    %rax,-0x860(%rbp)
    d6b8:	48 8d 05 9d f9 00 00 	lea    0xf99d(%rip),%rax        # 1d05c <g_29+0xc>
    d6bf:	48 89 85 a8 f7 ff ff 	mov    %rax,-0x858(%rbp)
    d6c6:	48 8d 05 77 f9 00 00 	lea    0xf977(%rip),%rax        # 1d044 <g_7>
    d6cd:	48 89 85 b0 f7 ff ff 	mov    %rax,-0x850(%rbp)
    d6d4:	48 8d 05 69 f9 00 00 	lea    0xf969(%rip),%rax        # 1d044 <g_7>
    d6db:	48 89 85 b8 f7 ff ff 	mov    %rax,-0x848(%rbp)
    d6e2:	48 8d 85 88 e8 ff ff 	lea    -0x1778(%rbp),%rax
    d6e9:	48 89 85 c0 f7 ff ff 	mov    %rax,-0x840(%rbp)
    d6f0:	48 8d 05 4d f9 00 00 	lea    0xf94d(%rip),%rax        # 1d044 <g_7>
    d6f7:	48 89 85 c8 f7 ff ff 	mov    %rax,-0x838(%rbp)
    d6fe:	48 8d 85 88 e8 ff ff 	lea    -0x1778(%rbp),%rax
    d705:	48 89 85 d0 f7 ff ff 	mov    %rax,-0x830(%rbp)
    d70c:	48 8d 05 49 f9 00 00 	lea    0xf949(%rip),%rax        # 1d05c <g_29+0xc>
    d713:	48 89 85 d8 f7 ff ff 	mov    %rax,-0x828(%rbp)
    d71a:	48 8d 85 88 e8 ff ff 	lea    -0x1778(%rbp),%rax
    d721:	48 89 85 e0 f7 ff ff 	mov    %rax,-0x820(%rbp)
    d728:	48 8d 05 29 f9 00 00 	lea    0xf929(%rip),%rax        # 1d058 <g_29+0x8>
    d72f:	48 89 85 e8 f7 ff ff 	mov    %rax,-0x818(%rbp)
    d736:	48 8d 05 07 f9 00 00 	lea    0xf907(%rip),%rax        # 1d044 <g_7>
    d73d:	48 89 85 f0 f7 ff ff 	mov    %rax,-0x810(%rbp)
    d744:	48 8d 05 f9 f8 00 00 	lea    0xf8f9(%rip),%rax        # 1d044 <g_7>
    d74b:	48 89 85 f8 f7 ff ff 	mov    %rax,-0x808(%rbp)
    d752:	48 8d 05 03 f9 00 00 	lea    0xf903(%rip),%rax        # 1d05c <g_29+0xc>
    d759:	48 89 85 00 f8 ff ff 	mov    %rax,-0x800(%rbp)
    d760:	48 8d 05 dd f8 00 00 	lea    0xf8dd(%rip),%rax        # 1d044 <g_7>
    d767:	48 89 85 08 f8 ff ff 	mov    %rax,-0x7f8(%rbp)
    d76e:	c6 85 74 e8 ff ff 25 	movb   $0x25,-0x178c(%rbp)
    d775:	c6 85 73 e8 ff ff ff 	movb   $0xff,-0x178d(%rbp)
    d77c:	66 c7 85 7c e8 ff ff 	movw   $0xfff8,-0x1784(%rbp)
    d783:	f8 ff 
    d785:	66 c7 85 7a e8 ff ff 	movw   $0x4f4f,-0x1786(%rbp)
    d78c:	4f 4f 
    d78e:	66 c7 85 00 ec ff ff 	movw   $0x1f8,-0x1400(%rbp)
    d795:	f8 01 
    d797:	66 c7 85 02 ec ff ff 	movw   $0x2424,-0x13fe(%rbp)
    d79e:	24 24 
    d7a0:	66 c7 85 04 ec ff ff 	movw   $0x6b02,-0x13fc(%rbp)
    d7a7:	02 6b 
    d7a9:	66 c7 85 06 ec ff ff 	movw   $0x7401,-0x13fa(%rbp)
    d7b0:	01 74 
    d7b2:	66 c7 85 08 ec ff ff 	movw   $0xff00,-0x13f8(%rbp)
    d7b9:	00 ff 
    d7bb:	66 c7 85 0a ec ff ff 	movw   $0x6b,-0x13f6(%rbp)
    d7c2:	6b 00 
    d7c4:	66 c7 85 0c ec ff ff 	movw   $0xe7d4,-0x13f4(%rbp)
    d7cb:	d4 e7 
    d7cd:	66 c7 85 0e ec ff ff 	movw   $0xd4,-0x13f2(%rbp)
    d7d4:	d4 00 
    d7d6:	66 c7 85 10 ec ff ff 	movw   $0xff6b,-0x13f0(%rbp)
    d7dd:	6b ff 
    d7df:	66 c7 85 12 ec ff ff 	movw   $0x7400,-0x13ee(%rbp)
    d7e6:	00 74 
    d7e8:	66 c7 85 14 ec ff ff 	movw   $0x6b01,-0x13ec(%rbp)
    d7ef:	01 6b 
    d7f1:	66 c7 85 16 ec ff ff 	movw   $0x2402,-0x13ea(%rbp)
    d7f8:	02 24 
    d7fa:	66 c7 85 18 ec ff ff 	movw   $0x124,-0x13e8(%rbp)
    d801:	24 01 
    d803:	66 c7 85 1a ec ff ff 	movw   $0x9f8,-0x13e6(%rbp)
    d80a:	f8 09 
    d80c:	66 c7 85 1c ec ff ff 	movw   $0x1fd,-0x13e4(%rbp)
    d813:	fd 01 
    d815:	66 c7 85 1e ec ff ff 	movw   $0x7a0c,-0x13e2(%rbp)
    d81c:	0c 7a 
    d81e:	66 c7 85 20 ec ff ff 	movw   $0x7a74,-0x13e0(%rbp)
    d825:	74 7a 
    d827:	66 c7 85 22 ec ff ff 	movw   $0x10c,-0x13de(%rbp)
    d82e:	0c 01 
    d830:	66 c7 85 24 ec ff ff 	movw   $0x9fd,-0x13dc(%rbp)
    d837:	fd 09 
    d839:	66 c7 85 26 ec ff ff 	movw   $0x1f8,-0x13da(%rbp)
    d840:	f8 01 
    d842:	66 c7 85 28 ec ff ff 	movw   $0x2424,-0x13d8(%rbp)
    d849:	24 24 
    d84b:	66 c7 85 2a ec ff ff 	movw   $0x6b02,-0x13d6(%rbp)
    d852:	02 6b 
    d854:	66 c7 85 2c ec ff ff 	movw   $0x7401,-0x13d4(%rbp)
    d85b:	01 74 
    d85d:	66 c7 85 2e ec ff ff 	movw   $0xff00,-0x13d2(%rbp)
    d864:	00 ff 
    d866:	66 c7 85 30 ec ff ff 	movw   $0x6b,-0x13d0(%rbp)
    d86d:	6b 00 
    d86f:	66 c7 85 32 ec ff ff 	movw   $0xe7d4,-0x13ce(%rbp)
    d876:	d4 e7 
    d878:	66 c7 85 34 ec ff ff 	movw   $0xd4,-0x13cc(%rbp)
    d87f:	d4 00 
    d881:	66 c7 85 36 ec ff ff 	movw   $0xff6b,-0x13ca(%rbp)
    d888:	6b ff 
    d88a:	66 c7 85 38 ec ff ff 	movw   $0x7400,-0x13c8(%rbp)
    d891:	00 74 
    d893:	66 c7 85 3a ec ff ff 	movw   $0x6b01,-0x13c6(%rbp)
    d89a:	01 6b 
    d89c:	66 c7 85 3c ec ff ff 	movw   $0x2402,-0x13c4(%rbp)
    d8a3:	02 24 
    d8a5:	66 c7 85 3e ec ff ff 	movw   $0x124,-0x13c2(%rbp)
    d8ac:	24 01 
    d8ae:	66 c7 85 40 ec ff ff 	movw   $0x9f8,-0x13c0(%rbp)
    d8b5:	f8 09 
    d8b7:	66 c7 85 42 ec ff ff 	movw   $0x1fd,-0x13be(%rbp)
    d8be:	fd 01 
    d8c0:	66 c7 85 44 ec ff ff 	movw   $0x7a0c,-0x13bc(%rbp)
    d8c7:	0c 7a 
    d8c9:	66 c7 85 46 ec ff ff 	movw   $0x7a74,-0x13ba(%rbp)
    d8d0:	74 7a 
    d8d2:	66 c7 85 48 ec ff ff 	movw   $0x10c,-0x13b8(%rbp)
    d8d9:	0c 01 
    d8db:	66 c7 85 4a ec ff ff 	movw   $0x9fd,-0x13b6(%rbp)
    d8e2:	fd 09 
    d8e4:	66 c7 85 4c ec ff ff 	movw   $0x1f8,-0x13b4(%rbp)
    d8eb:	f8 01 
    d8ed:	66 c7 85 4e ec ff ff 	movw   $0x2424,-0x13b2(%rbp)
    d8f4:	24 24 
    d8f6:	66 c7 85 50 ec ff ff 	movw   $0x6b02,-0x13b0(%rbp)
    d8fd:	02 6b 
    d8ff:	66 c7 85 52 ec ff ff 	movw   $0x7401,-0x13ae(%rbp)
    d906:	01 74 
    d908:	66 c7 85 54 ec ff ff 	movw   $0xff00,-0x13ac(%rbp)
    d90f:	00 ff 
    d911:	66 c7 85 56 ec ff ff 	movw   $0x6b,-0x13aa(%rbp)
    d918:	6b 00 
    d91a:	66 c7 85 58 ec ff ff 	movw   $0xe7d4,-0x13a8(%rbp)
    d921:	d4 e7 
    d923:	66 c7 85 5a ec ff ff 	movw   $0xd4,-0x13a6(%rbp)
    d92a:	d4 00 
    d92c:	66 c7 85 5c ec ff ff 	movw   $0xff6b,-0x13a4(%rbp)
    d933:	6b ff 
    d935:	66 c7 85 5e ec ff ff 	movw   $0x7400,-0x13a2(%rbp)
    d93c:	00 74 
    d93e:	66 c7 85 60 ec ff ff 	movw   $0x6b01,-0x13a0(%rbp)
    d945:	01 6b 
    d947:	66 c7 85 62 ec ff ff 	movw   $0x2402,-0x139e(%rbp)
    d94e:	02 24 
    d950:	66 c7 85 64 ec ff ff 	movw   $0x124,-0x139c(%rbp)
    d957:	24 01 
    d959:	66 c7 85 66 ec ff ff 	movw   $0x9f8,-0x139a(%rbp)
    d960:	f8 09 
    d962:	66 c7 85 68 ec ff ff 	movw   $0x1fd,-0x1398(%rbp)
    d969:	fd 01 
    d96b:	66 c7 85 6a ec ff ff 	movw   $0x7a0c,-0x1396(%rbp)
    d972:	0c 7a 
    d974:	66 c7 85 6c ec ff ff 	movw   $0x7a74,-0x1394(%rbp)
    d97b:	74 7a 
    d97d:	66 c7 85 6e ec ff ff 	movw   $0x10c,-0x1392(%rbp)
    d984:	0c 01 
    d986:	66 c7 85 70 ec ff ff 	movw   $0x9fd,-0x1390(%rbp)
    d98d:	fd 09 
    d98f:	66 c7 85 72 ec ff ff 	movw   $0x1f8,-0x138e(%rbp)
    d996:	f8 01 
    d998:	66 c7 85 74 ec ff ff 	movw   $0xd424,-0x138c(%rbp)
    d99f:	24 d4 
    d9a1:	66 c7 85 76 ec ff ff 	movw   $0x7aff,-0x138a(%rbp)
    d9a8:	ff 7a 
    d9aa:	66 c7 85 78 ec ff ff 	movw   $0x102,-0x1388(%rbp)
    d9b1:	02 01 
    d9b3:	66 c7 85 7a ec ff ff 	movw   $0xad74,-0x1386(%rbp)
    d9ba:	74 ad 
    d9bc:	66 c7 85 7c ec ff ff 	movw   $0x747a,-0x1384(%rbp)
    d9c3:	7a 74 
    d9c5:	66 c7 85 7e ec ff ff 	movw   $0x1b1,-0x1382(%rbp)
    d9cc:	b1 01 
    d9ce:	66 c7 85 80 ec ff ff 	movw   $0x74b1,-0x1380(%rbp)
    d9d5:	b1 74 
    d9d7:	66 c7 85 82 ec ff ff 	movw   $0xad7a,-0x137e(%rbp)
    d9de:	7a ad 
    d9e0:	66 c7 85 84 ec ff ff 	movw   $0x174,-0x137c(%rbp)
    d9e7:	74 01 
    d9e9:	66 c7 85 86 ec ff ff 	movw   $0x7a02,-0x137a(%rbp)
    d9f0:	02 7a 
    d9f2:	66 c7 85 88 ec ff ff 	movw   $0xd4ff,-0x1378(%rbp)
    d9f9:	ff d4 
    d9fb:	66 c7 85 8a ec ff ff 	movw   $0x24d4,-0x1376(%rbp)
    da02:	d4 24 
    da04:	66 c7 85 8c ec ff ff 	movw   $0xe701,-0x1374(%rbp)
    da0b:	01 e7 
    da0d:	66 c7 85 8e ec ff ff 	movw   $0x263,-0x1372(%rbp)
    da14:	63 02 
    da16:	66 c7 85 90 ec ff ff 	movw   $0xfdf8,-0x1370(%rbp)
    da1d:	f8 fd 
    da1f:	66 c7 85 92 ec ff ff 	movw   $0xfd01,-0x136e(%rbp)
    da26:	01 fd 
    da28:	66 c7 85 94 ec ff ff 	movw   $0x2f8,-0x136c(%rbp)
    da2f:	f8 02 
    da31:	66 c7 85 96 ec ff ff 	movw   $0xe763,-0x136a(%rbp)
    da38:	63 e7 
    da3a:	66 c7 85 98 ec ff ff 	movw   $0x2401,-0x1368(%rbp)
    da41:	01 24 
    da43:	66 c7 85 9a ec ff ff 	movw   $0xd4d4,-0x1366(%rbp)
    da4a:	d4 d4 
    da4c:	66 c7 85 9c ec ff ff 	movw   $0x7aff,-0x1364(%rbp)
    da53:	ff 7a 
    da55:	66 c7 85 9e ec ff ff 	movw   $0x102,-0x1362(%rbp)
    da5c:	02 01 
    da5e:	66 c7 85 a0 ec ff ff 	movw   $0xad74,-0x1360(%rbp)
    da65:	74 ad 
    da67:	66 c7 85 a2 ec ff ff 	movw   $0x747a,-0x135e(%rbp)
    da6e:	7a 74 
    da70:	66 c7 85 a4 ec ff ff 	movw   $0x1b1,-0x135c(%rbp)
    da77:	b1 01 
    da79:	66 c7 85 a6 ec ff ff 	movw   $0x74b1,-0x135a(%rbp)
    da80:	b1 74 
    da82:	66 c7 85 a8 ec ff ff 	movw   $0xad7a,-0x1358(%rbp)
    da89:	7a ad 
    da8b:	66 c7 85 aa ec ff ff 	movw   $0x174,-0x1356(%rbp)
    da92:	74 01 
    da94:	66 c7 85 ac ec ff ff 	movw   $0x7a02,-0x1354(%rbp)
    da9b:	02 7a 
    da9d:	66 c7 85 ae ec ff ff 	movw   $0xd4ff,-0x1352(%rbp)
    daa4:	ff d4 
    daa6:	66 c7 85 b0 ec ff ff 	movw   $0x24d4,-0x1350(%rbp)
    daad:	d4 24 
    daaf:	66 c7 85 b2 ec ff ff 	movw   $0xe701,-0x134e(%rbp)
    dab6:	01 e7 
    dab8:	c7 85 c4 e8 ff ff 00 	movl   $0x0,-0x173c(%rbp)
    dabf:	00 00 00 
    dac2:	c7 85 8c e8 ff ff fe 	movl   $0xbcbafbfe,-0x1774(%rbp)
    dac9:	fb ba bc 
    dacc:	c7 85 90 e8 ff ff ff 	movl   $0xffffffff,-0x1770(%rbp)
    dad3:	ff ff ff 
    dad6:	48 8d 05 73 f9 00 00 	lea    0xf973(%rip),%rax        # 1d450 <g_998>
    dadd:	48 89 85 b0 e9 ff ff 	mov    %rax,-0x1650(%rbp)
    dae4:	c7 85 c8 e8 ff ff e2 	movl   $0x96887fe2,-0x1738(%rbp)
    daeb:	7f 88 96 
    daee:	48 c7 85 b8 e9 ff ff 	movq   $0x0,-0x1648(%rbp)
    daf5:	00 00 00 00 
    daf9:	c7 85 cc e8 ff ff cd 	movl   $0x25b013cd,-0x1734(%rbp)
    db00:	13 b0 25 
    db03:	48 c7 85 08 e9 ff ff 	movq   $0x0,-0x16f8(%rbp)
    db0a:	00 00 00 00 
    db0e:	48 8d 05 4b f9 00 00 	lea    0xf94b(%rip),%rax        # 1d460 <g_1083>
    db15:	48 89 85 c0 e9 ff ff 	mov    %rax,-0x1640(%rbp)
    db1c:	48 c7 85 c8 e9 ff ff 	movq   $0x0,-0x1638(%rbp)
    db23:	00 00 00 00 
    db27:	48 8d 85 7a e8 ff ff 	lea    -0x1786(%rbp),%rax
    db2e:	48 89 85 10 e9 ff ff 	mov    %rax,-0x16f0(%rbp)
    db35:	48 8d 85 10 e9 ff ff 	lea    -0x16f0(%rbp),%rax
    db3c:	48 89 85 d0 e9 ff ff 	mov    %rax,-0x1630(%rbp)
    db43:	48 8d 05 92 f5 00 00 	lea    0xf592(%rip),%rax        # 1d0dc <g_224>
    db4a:	48 89 85 d8 e9 ff ff 	mov    %rax,-0x1628(%rbp)
    db51:	48 8d 85 90 e8 ff ff 	lea    -0x1770(%rbp),%rax
    db58:	48 89 85 e0 e9 ff ff 	mov    %rax,-0x1620(%rbp)
    db5f:	48 c7 85 18 e9 ff ff 	movq   $0x0,-0x16e8(%rbp)
    db66:	00 00 00 00 
    db6a:	48 8d 85 18 e9 ff ff 	lea    -0x16e8(%rbp),%rax
    db71:	48 89 85 20 e9 ff ff 	mov    %rax,-0x16e0(%rbp)
    db78:	48 8d 05 e1 b4 00 00 	lea    0xb4e1(%rip),%rax        # 19060 <g_1232>
    db7f:	48 89 85 e8 e9 ff ff 	mov    %rax,-0x1618(%rbp)
    db86:	c7 45 b7 94 94 94 94 	movl   $0x94949494,-0x49(%rbp)
    db8d:	66 c7 45 bb 94 94    	movw   $0x9494,-0x45(%rbp)
    db93:	c6 45 bd 94          	movb   $0x94,-0x43(%rbp)
    db97:	48 8d 05 9a 28 01 00 	lea    0x1289a(%rip),%rax        # 20438 <g_1154>
    db9e:	48 89 85 f0 e9 ff ff 	mov    %rax,-0x1610(%rbp)
    dba5:	48 c7 85 f8 e9 ff ff 	movq   $0x0,-0x1608(%rbp)
    dbac:	00 00 00 00 
    dbb0:	48 c7 85 28 e9 ff ff 	movq   $0x0,-0x16d8(%rbp)
    dbb7:	00 00 00 00 
    dbbb:	48 8d 85 28 e9 ff ff 	lea    -0x16d8(%rbp),%rax
    dbc2:	48 89 85 00 ea ff ff 	mov    %rax,-0x1600(%rbp)
    dbc9:	66 c7 85 7e e8 ff ff 	movw   $0xf3a4,-0x1782(%rbp)
    dbd0:	a4 f3 
    dbd2:	c7 85 d0 e8 ff ff 72 	movl   $0xbc92b172,-0x1730(%rbp)
    dbd9:	b1 92 bc 
    dbdc:	48 8d 85 a0 ed ff ff 	lea    -0x1260(%rbp),%rax
    dbe3:	48 8d 15 36 fc 00 00 	lea    0xfc36(%rip),%rdx        # 1d820 <g_2043+0x1e0>
    dbea:	b9 3c 00 00 00       	mov    $0x3c,%ecx
    dbef:	48 89 c7             	mov    %rax,%rdi
    dbf2:	48 89 d6             	mov    %rdx,%rsi
    dbf5:	f3 48 a5             	rep movsq %ds:(%rsi),%es:(%rdi)
    dbf8:	c6 85 75 e8 ff ff 51 	movb   $0x51,-0x178b(%rbp)
    dbff:	66 c7 85 90 eb ff ff 	movw   $0x6,-0x1470(%rbp)
    dc06:	06 00 
    dc08:	66 c7 85 92 eb ff ff 	movw   $0xd412,-0x146e(%rbp)
    dc0f:	12 d4 
    dc11:	66 c7 85 94 eb ff ff 	movw   $0x6,-0x146c(%rbp)
    dc18:	06 00 
    dc1a:	66 c7 85 96 eb ff ff 	movw   $0x0,-0x146a(%rbp)
    dc21:	00 00 
    dc23:	66 c7 85 98 eb ff ff 	movw   $0x0,-0x1468(%rbp)
    dc2a:	00 00 
    dc2c:	66 c7 85 9a eb ff ff 	movw   $0xa454,-0x1466(%rbp)
    dc33:	54 a4 
    dc35:	66 c7 85 9c eb ff ff 	movw   $0x1f80,-0x1464(%rbp)
    dc3c:	80 1f 
    dc3e:	66 c7 85 9e eb ff ff 	movw   $0xd412,-0x1462(%rbp)
    dc45:	12 d4 
    dc47:	66 c7 85 a0 eb ff ff 	movw   $0x1f80,-0x1460(%rbp)
    dc4e:	80 1f 
    dc50:	66 c7 85 a2 eb ff ff 	movw   $0x0,-0x145e(%rbp)
    dc57:	00 00 
    dc59:	66 c7 85 a4 eb ff ff 	movw   $0xa454,-0x145c(%rbp)
    dc60:	54 a4 
    dc62:	66 c7 85 a6 eb ff ff 	movw   $0xa454,-0x145a(%rbp)
    dc69:	54 a4 
    dc6b:	66 c7 85 a8 eb ff ff 	movw   $0x6,-0x1458(%rbp)
    dc72:	06 00 
    dc74:	66 c7 85 aa eb ff ff 	movw   $0xd412,-0x1456(%rbp)
    dc7b:	12 d4 
    dc7d:	66 c7 85 ac eb ff ff 	movw   $0x6,-0x1454(%rbp)
    dc84:	06 00 
    dc86:	66 c7 85 ae eb ff ff 	movw   $0x0,-0x1452(%rbp)
    dc8d:	00 00 
    dc8f:	66 c7 85 b0 eb ff ff 	movw   $0x0,-0x1450(%rbp)
    dc96:	00 00 
    dc98:	66 c7 85 b2 eb ff ff 	movw   $0xa454,-0x144e(%rbp)
    dc9f:	54 a4 
    dca1:	66 c7 85 b4 eb ff ff 	movw   $0x1f80,-0x144c(%rbp)
    dca8:	80 1f 
    dcaa:	66 c7 85 b6 eb ff ff 	movw   $0xd412,-0x144a(%rbp)
    dcb1:	12 d4 
    dcb3:	66 c7 85 b8 eb ff ff 	movw   $0x1f80,-0x1448(%rbp)
    dcba:	80 1f 
    dcbc:	66 c7 85 ba eb ff ff 	movw   $0x0,-0x1446(%rbp)
    dcc3:	00 00 
    dcc5:	66 c7 85 bc eb ff ff 	movw   $0xa454,-0x1444(%rbp)
    dccc:	54 a4 
    dcce:	66 c7 85 be eb ff ff 	movw   $0xa454,-0x1442(%rbp)
    dcd5:	54 a4 
    dcd7:	c7 85 bc e8 ff ff 00 	movl   $0x0,-0x1744(%rbp)
    dcde:	00 00 00 
    dce1:	eb 1e                	jmp    dd01 <func_23+0x11f0>
    dce3:	8b 85 bc e8 ff ff    	mov    -0x1744(%rbp),%eax
    dce9:	48 98                	cltq   
    dceb:	48 8d 15 2e 2a 01 00 	lea    0x12a2e(%rip),%rdx        # 20720 <g_1551>
    dcf2:	48 89 94 c5 50 eb ff 	mov    %rdx,-0x14b0(%rbp,%rax,8)
    dcf9:	ff 
    dcfa:	83 85 bc e8 ff ff 01 	addl   $0x1,-0x1744(%rbp)
    dd01:	83 bd bc e8 ff ff 02 	cmpl   $0x2,-0x1744(%rbp)
    dd08:	7e d9                	jle    dce3 <func_23+0x11d2>
    dd0a:	0f b7 85 7a e8 ff ff 	movzwl -0x1786(%rbp),%eax
    dd11:	83 e8 01             	sub    $0x1,%eax
    dd14:	66 89 85 7a e8 ff ff 	mov    %ax,-0x1786(%rbp)
    dd1b:	66 c7 85 7c e8 ff ff 	movw   $0xffe5,-0x1784(%rbp)
    dd22:	e5 ff 
    dd24:	e9 4c 0a 00 00       	jmpq   e775 <func_23+0x1c64>
    dd29:	c7 85 40 e9 ff ff e6 	movl   $0x117623e6,-0x16c0(%rbp)
    dd30:	23 76 11 
    dd33:	48 8d 05 36 1d 01 00 	lea    0x11d36(%rip),%rax        # 1fa70 <g_786>
    dd3a:	48 89 85 98 ea ff ff 	mov    %rax,-0x1568(%rbp)
    dd41:	c7 85 48 e9 ff ff 80 	movl   $0x3b8d4f80,-0x16b8(%rbp)
    dd48:	4f 8d 3b 
    dd4b:	48 8d 05 26 f3 00 00 	lea    0xf326(%rip),%rax        # 1d078 <g_143>
    dd52:	48 89 85 80 ef ff ff 	mov    %rax,-0x1080(%rbp)
    dd59:	48 8d 05 18 f3 00 00 	lea    0xf318(%rip),%rax        # 1d078 <g_143>
    dd60:	48 89 85 88 ef ff ff 	mov    %rax,-0x1078(%rbp)
    dd67:	48 8d 05 0a f3 00 00 	lea    0xf30a(%rip),%rax        # 1d078 <g_143>
    dd6e:	48 89 85 90 ef ff ff 	mov    %rax,-0x1070(%rbp)
    dd75:	48 8d 05 fc f2 00 00 	lea    0xf2fc(%rip),%rax        # 1d078 <g_143>
    dd7c:	48 89 85 98 ef ff ff 	mov    %rax,-0x1068(%rbp)
    dd83:	48 8d 05 ee f2 00 00 	lea    0xf2ee(%rip),%rax        # 1d078 <g_143>
    dd8a:	48 89 85 a0 ef ff ff 	mov    %rax,-0x1060(%rbp)
    dd91:	48 8d 05 e0 f2 00 00 	lea    0xf2e0(%rip),%rax        # 1d078 <g_143>
    dd98:	48 89 85 a8 ef ff ff 	mov    %rax,-0x1058(%rbp)
    dd9f:	48 8d 05 d2 f2 00 00 	lea    0xf2d2(%rip),%rax        # 1d078 <g_143>
    dda6:	48 89 85 b0 ef ff ff 	mov    %rax,-0x1050(%rbp)
    ddad:	48 b8 da da da da da 	movabs $0xdadadadadadadada,%rax
    ddb4:	da da da 
    ddb7:	48 89 45 be          	mov    %rax,-0x42(%rbp)
    ddbb:	66 c7 45 c6 da da    	movw   $0xdada,-0x3a(%rbp)
    ddc1:	c7 85 c0 eb ff ff 6d 	movl   $0xb2f33d6d,-0x1440(%rbp)
    ddc8:	3d f3 b2 
    ddcb:	c7 85 c4 eb ff ff 6d 	movl   $0xb2f33d6d,-0x143c(%rbp)
    ddd2:	3d f3 b2 
    ddd5:	c7 85 c8 eb ff ff 6d 	movl   $0xb2f33d6d,-0x1438(%rbp)
    dddc:	3d f3 b2 
    dddf:	c7 85 cc eb ff ff 6d 	movl   $0xb2f33d6d,-0x1434(%rbp)
    dde6:	3d f3 b2 
    dde9:	c7 85 d0 eb ff ff 6d 	movl   $0xb2f33d6d,-0x1430(%rbp)
    ddf0:	3d f3 b2 
    ddf3:	c7 85 d4 eb ff ff 6d 	movl   $0xb2f33d6d,-0x142c(%rbp)
    ddfa:	3d f3 b2 
    ddfd:	c7 85 d8 eb ff ff 6d 	movl   $0xb2f33d6d,-0x1428(%rbp)
    de04:	3d f3 b2 
    de07:	c7 85 dc eb ff ff 6d 	movl   $0xb2f33d6d,-0x1424(%rbp)
    de0e:	3d f3 b2 
    de11:	c7 85 e0 eb ff ff 6d 	movl   $0xb2f33d6d,-0x1420(%rbp)
    de18:	3d f3 b2 
    de1b:	c7 85 e4 eb ff ff 6d 	movl   $0xb2f33d6d,-0x141c(%rbp)
    de22:	3d f3 b2 
    de25:	48 b8 e3 42 32 22 98 	movabs $0xaed6fb98223242e3,%rax
    de2c:	fb d6 ae 
    de2f:	48 89 85 a0 ea ff ff 	mov    %rax,-0x1560(%rbp)
    de36:	48 8d 05 6b 35 01 00 	lea    0x1356b(%rip),%rax        # 213a8 <g_372>
    de3d:	48 89 85 a8 ea ff ff 	mov    %rax,-0x1558(%rbp)
    de44:	c7 85 ec e8 ff ff 00 	movl   $0x0,-0x1714(%rbp)
    de4b:	00 00 00 
    de4e:	48 8d 85 73 e8 ff ff 	lea    -0x178d(%rbp),%rax
    de55:	48 89 85 b0 ea ff ff 	mov    %rax,-0x1550(%rbp)
    de5c:	c7 85 50 e9 ff ff 59 	movl   $0x8f50c959,-0x16b0(%rbp)
    de63:	c9 50 8f 
    de66:	48 c7 85 b8 ea ff ff 	movq   $0x0,-0x1548(%rbp)
    de6d:	00 00 00 00 
    de71:	48 8d 05 40 35 01 00 	lea    0x13540(%rip),%rax        # 213b8 <g_537>
    de78:	48 89 85 c0 ea ff ff 	mov    %rax,-0x1540(%rbp)
    de7f:	66 c7 85 78 e8 ff ff 	movw   $0x0,-0x1788(%rbp)
    de86:	00 00 
    de88:	eb 59                	jmp    dee3 <func_23+0x13d2>
    de8a:	48 8d 05 27 35 01 00 	lea    0x13527(%rip),%rax        # 213b8 <g_537>
    de91:	48 89 85 48 eb ff ff 	mov    %rax,-0x14b8(%rbp)
    de98:	c7 85 04 e9 ff ff f8 	movl   $0xfffffff8,-0x16fc(%rbp)
    de9f:	ff ff ff 
    dea2:	c7 85 c0 e8 ff ff 00 	movl   $0x0,-0x1740(%rbp)
    dea9:	00 00 00 
    deac:	eb 1b                	jmp    dec9 <func_23+0x13b8>
    deae:	8b 85 c0 e8 ff ff    	mov    -0x1740(%rbp),%eax
    deb4:	48 98                	cltq   
    deb6:	48 c7 84 c5 10 f8 ff 	movq   $0xfffffffffffffff8,-0x7f0(%rbp,%rax,8)
    debd:	ff f8 ff ff ff 
    dec2:	83 85 c0 e8 ff ff 01 	addl   $0x1,-0x1740(%rbp)
    dec9:	83 bd c0 e8 ff ff 03 	cmpl   $0x3,-0x1740(%rbp)
    ded0:	7e dc                	jle    deae <func_23+0x139d>
    ded2:	0f b7 85 78 e8 ff ff 	movzwl -0x1788(%rbp),%eax
    ded9:	83 c0 01             	add    $0x1,%eax
    dedc:	66 89 85 78 e8 ff ff 	mov    %ax,-0x1788(%rbp)
    dee3:	0f b7 85 78 e8 ff ff 	movzwl -0x1788(%rbp),%eax
    deea:	66 83 f8 06          	cmp    $0x6,%ax
    deee:	75 9a                	jne    de8a <func_23+0x1379>
    def0:	c7 85 40 e9 ff ff 00 	movl   $0x0,-0x16c0(%rbp)
    def7:	00 00 00 
    defa:	eb 31                	jmp    df2d <func_23+0x141c>
    defc:	8b 85 40 e9 ff ff    	mov    -0x16c0(%rbp),%eax
    df02:	89 c0                	mov    %eax,%eax
    df04:	48 8d 14 c5 00 00 00 	lea    0x0(,%rax,8),%rdx
    df0b:	00 
    df0c:	48 8d 05 2d 23 01 00 	lea    0x1232d(%rip),%rax        # 20240 <g_859>
    df13:	48 8d 0d 1e 23 01 00 	lea    0x1231e(%rip),%rcx        # 20238 <g_860>
    df1a:	48 89 0c 02          	mov    %rcx,(%rdx,%rax,1)
    df1e:	8b 85 40 e9 ff ff    	mov    -0x16c0(%rbp),%eax
    df24:	83 c0 01             	add    $0x1,%eax
    df27:	89 85 40 e9 ff ff    	mov    %eax,-0x16c0(%rbp)
    df2d:	8b 85 40 e9 ff ff    	mov    -0x16c0(%rbp),%eax
    df33:	83 f8 08             	cmp    $0x8,%eax
    df36:	76 c4                	jbe    defc <func_23+0x13eb>
    df38:	48 8b 85 98 ef ff ff 	mov    -0x1068(%rbp),%rax
    df3f:	48 39 85 60 e8 ff ff 	cmp    %rax,-0x17a0(%rbp)
    df46:	0f 95 c0             	setne  %al
    df49:	0f b6 c0             	movzbl %al,%eax
    df4c:	89 85 48 e9 ff ff    	mov    %eax,-0x16b8(%rbp)
    df52:	0f b6 85 68 e8 ff ff 	movzbl -0x1798(%rbp),%eax
    df59:	0f b6 d8             	movzbl %al,%ebx
    df5c:	48 83 bd 60 e8 ff ff 	cmpq   $0x0,-0x17a0(%rbp)
    df63:	00 
    df64:	75 0a                	jne    df70 <func_23+0x145f>
    df66:	8b 85 40 e9 ff ff    	mov    -0x16c0(%rbp),%eax
    df6c:	85 c0                	test   %eax,%eax
    df6e:	74 07                	je     df77 <func_23+0x1466>
    df70:	ba 01 00 00 00       	mov    $0x1,%edx
    df75:	eb 05                	jmp    df7c <func_23+0x146b>
    df77:	ba 00 00 00 00       	mov    $0x0,%edx
    df7c:	48 8b 85 98 e9 ff ff 	mov    -0x1668(%rbp),%rax
    df83:	8b 00                	mov    (%rax),%eax
    df85:	39 c2                	cmp    %eax,%edx
    df87:	0f 9f c0             	setg   %al
    df8a:	0f b6 c0             	movzbl %al,%eax
    df8d:	be 07 00 00 00       	mov    $0x7,%esi
    df92:	89 c7                	mov    %eax,%edi
    df94:	e8 25 cd ff ff       	callq  acbe <safe_rshift_func_uint8_t_u_u>
    df99:	0f b6 c0             	movzbl %al,%eax
    df9c:	89 de                	mov    %ebx,%esi
    df9e:	89 c7                	mov    %eax,%edi
    dfa0:	e8 d3 cb ff ff       	callq  ab78 <safe_sub_func_uint8_t_u_u>
    dfa5:	0f b6 d0             	movzbl %al,%edx
    dfa8:	48 8d 85 40 e9 ff ff 	lea    -0x16c0(%rbp),%rax
    dfaf:	48 39 85 60 e8 ff ff 	cmp    %rax,-0x17a0(%rbp)
    dfb6:	0f 95 c0             	setne  %al
    dfb9:	0f b6 c0             	movzbl %al,%eax
    dfbc:	21 d0                	and    %edx,%eax
    dfbe:	85 c0                	test   %eax,%eax
    dfc0:	0f 84 24 05 00 00    	je     e4ea <func_23+0x19d9>
    dfc6:	48 8d 05 4b f1 00 00 	lea    0xf14b(%rip),%rax        # 1d118 <g_756>
    dfcd:	48 89 85 f8 ea ff ff 	mov    %rax,-0x1508(%rbp)
    dfd4:	c7 85 fc e8 ff ff 01 	movl   $0x1,-0x1704(%rbp)
    dfdb:	00 00 00 
    dfde:	48 8d 05 2d f1 00 00 	lea    0xf12d(%rip),%rax        # 1d112 <g_698>
    dfe5:	48 89 85 00 eb ff ff 	mov    %rax,-0x1500(%rbp)
    dfec:	48 8d 85 78 e8 ff ff 	lea    -0x1788(%rbp),%rax
    dff3:	48 89 85 08 eb ff ff 	mov    %rax,-0x14f8(%rbp)
    dffa:	48 8d 05 99 33 01 00 	lea    0x13399(%rip),%rax        # 2139a <g_231>
    e001:	48 89 85 10 eb ff ff 	mov    %rax,-0x14f0(%rbp)
    e008:	48 c7 85 18 eb ff ff 	movq   $0x0,-0x14e8(%rbp)
    e00f:	00 00 00 00 
    e013:	48 8d 05 3e f4 00 00 	lea    0xf43e(%rip),%rax        # 1d458 <g_1003>
    e01a:	48 89 85 20 eb ff ff 	mov    %rax,-0x14e0(%rbp)
    e021:	48 8d 85 00 ec ff ff 	lea    -0x1400(%rbp),%rax
    e028:	48 05 b2 00 00 00    	add    $0xb2,%rax
    e02e:	48 89 85 28 eb ff ff 	mov    %rax,-0x14d8(%rbp)
    e035:	48 8d 85 48 e9 ff ff 	lea    -0x16b8(%rbp),%rax
    e03c:	48 89 85 30 eb ff ff 	mov    %rax,-0x14d0(%rbp)
    e043:	c7 85 70 eb ff ff f9 	movl   $0xfffffff9,-0x1490(%rbp)
    e04a:	ff ff ff 
    e04d:	c7 85 74 eb ff ff f9 	movl   $0xfffffff9,-0x148c(%rbp)
    e054:	ff ff ff 
    e057:	c7 85 78 eb ff ff f9 	movl   $0xfffffff9,-0x1488(%rbp)
    e05e:	ff ff ff 
    e061:	c7 85 7c eb ff ff f9 	movl   $0xfffffff9,-0x1484(%rbp)
    e068:	ff ff ff 
    e06b:	c7 85 80 eb ff ff f9 	movl   $0xfffffff9,-0x1480(%rbp)
    e072:	ff ff ff 
    e075:	c7 85 84 eb ff ff f9 	movl   $0xfffffff9,-0x147c(%rbp)
    e07c:	ff ff ff 
    e07f:	c7 85 88 eb ff ff f9 	movl   $0xfffffff9,-0x1478(%rbp)
    e086:	ff ff ff 
    e089:	48 c7 85 38 eb ff ff 	movq   $0xfffffffffffffffb,-0x14c8(%rbp)
    e090:	fb ff ff ff 
    e094:	c7 85 58 e9 ff ff f8 	movl   $0xfffffff8,-0x16a8(%rbp)
    e09b:	ff ff ff 
    e09e:	c7 85 10 f8 ff ff 00 	movl   $0x0,-0x7f0(%rbp)
    e0a5:	00 00 00 
    e0a8:	c7 85 14 f8 ff ff f8 	movl   $0xcf87e5f8,-0x7ec(%rbp)
    e0af:	e5 87 cf 
    e0b2:	c7 85 18 f8 ff ff a6 	movl   $0xb4b843a6,-0x7e8(%rbp)
    e0b9:	43 b8 b4 
    e0bc:	c7 85 1c f8 ff ff ff 	movl   $0xffffffff,-0x7e4(%rbp)
    e0c3:	ff ff ff 
    e0c6:	c7 85 20 f8 ff ff de 	movl   $0xa92c49de,-0x7e0(%rbp)
    e0cd:	49 2c a9 
    e0d0:	c7 85 24 f8 ff ff f8 	movl   $0xcf87e5f8,-0x7dc(%rbp)
    e0d7:	e5 87 cf 
    e0da:	c7 85 28 f8 ff ff d9 	movl   $0xb353e3d9,-0x7d8(%rbp)
    e0e1:	e3 53 b3 
    e0e4:	c7 85 2c f8 ff ff 91 	movl   $0x23828191,-0x7d4(%rbp)
    e0eb:	81 82 23 
    e0ee:	c7 85 30 f8 ff ff d9 	movl   $0xb353e3d9,-0x7d0(%rbp)
    e0f5:	e3 53 b3 
    e0f8:	c7 85 34 f8 ff ff c1 	movl   $0xc9f156c1,-0x7cc(%rbp)
    e0ff:	56 f1 c9 
    e102:	c7 85 38 f8 ff ff 49 	movl   $0x4f194149,-0x7c8(%rbp)
    e109:	41 19 4f 
    e10c:	c7 85 3c f8 ff ff fc 	movl   $0xfffffffc,-0x7c4(%rbp)
    e113:	ff ff ff 
    e116:	c7 85 40 f8 ff ff fc 	movl   $0xfffffffc,-0x7c0(%rbp)
    e11d:	ff ff ff 
    e120:	c7 85 44 f8 ff ff 49 	movl   $0x4f194149,-0x7bc(%rbp)
    e127:	41 19 4f 
    e12a:	c7 85 48 f8 ff ff c1 	movl   $0xc9f156c1,-0x7b8(%rbp)
    e131:	56 f1 c9 
    e134:	c7 85 4c f8 ff ff 49 	movl   $0x4f194149,-0x7b4(%rbp)
    e13b:	41 19 4f 
    e13e:	c7 85 50 f8 ff ff fc 	movl   $0xfffffffc,-0x7b0(%rbp)
    e145:	ff ff ff 
    e148:	c7 85 54 f8 ff ff fc 	movl   $0xfffffffc,-0x7ac(%rbp)
    e14f:	ff ff ff 
    e152:	c7 85 58 f8 ff ff de 	movl   $0xa92c49de,-0x7a8(%rbp)
    e159:	49 2c a9 
    e15c:	c7 85 5c f8 ff ff f8 	movl   $0xcf87e5f8,-0x7a4(%rbp)
    e163:	e5 87 cf 
    e166:	c7 85 60 f8 ff ff d9 	movl   $0xb353e3d9,-0x7a0(%rbp)
    e16d:	e3 53 b3 
    e170:	c7 85 64 f8 ff ff 91 	movl   $0x23828191,-0x79c(%rbp)
    e177:	81 82 23 
    e17a:	c7 85 68 f8 ff ff d9 	movl   $0xb353e3d9,-0x798(%rbp)
    e181:	e3 53 b3 
    e184:	c7 85 6c f8 ff ff f8 	movl   $0xcf87e5f8,-0x794(%rbp)
    e18b:	e5 87 cf 
    e18e:	c7 85 70 f8 ff ff de 	movl   $0xa92c49de,-0x790(%rbp)
    e195:	49 2c a9 
    e198:	c7 85 74 f8 ff ff ff 	movl   $0xffffffff,-0x78c(%rbp)
    e19f:	ff ff ff 
    e1a2:	c7 85 78 f8 ff ff f6 	movl   $0xfffffff6,-0x788(%rbp)
    e1a9:	ff ff ff 
    e1ac:	c7 85 7c f8 ff ff ce 	movl   $0x7ee905ce,-0x784(%rbp)
    e1b3:	05 e9 7e 
    e1b6:	c7 85 80 f8 ff ff 49 	movl   $0x4f194149,-0x780(%rbp)
    e1bd:	41 19 4f 
    e1c0:	c7 85 84 f8 ff ff ce 	movl   $0x7ee905ce,-0x77c(%rbp)
    e1c7:	05 e9 7e 
    e1ca:	c7 85 88 f8 ff ff c1 	movl   $0xc9f156c1,-0x778(%rbp)
    e1d1:	56 f1 c9 
    e1d4:	c7 85 8c f8 ff ff c1 	movl   $0xc9f156c1,-0x774(%rbp)
    e1db:	56 f1 c9 
    e1de:	c7 85 90 f8 ff ff ce 	movl   $0x7ee905ce,-0x770(%rbp)
    e1e5:	05 e9 7e 
    e1e8:	c7 85 94 f8 ff ff 49 	movl   $0x4f194149,-0x76c(%rbp)
    e1ef:	41 19 4f 
    e1f2:	c7 85 98 f8 ff ff ce 	movl   $0x7ee905ce,-0x768(%rbp)
    e1f9:	05 e9 7e 
    e1fc:	c7 85 9c f8 ff ff c1 	movl   $0xc9f156c1,-0x764(%rbp)
    e203:	56 f1 c9 
    e206:	c7 85 a0 f8 ff ff a6 	movl   $0xb4b843a6,-0x760(%rbp)
    e20d:	43 b8 b4 
    e210:	c7 85 a4 f8 ff ff ff 	movl   $0xffffffff,-0x75c(%rbp)
    e217:	ff ff ff 
    e21a:	c7 85 a8 f8 ff ff d9 	movl   $0xb353e3d9,-0x758(%rbp)
    e221:	e3 53 b3 
    e224:	c7 85 ac f8 ff ff 52 	movl   $0xa04b2e52,-0x754(%rbp)
    e22b:	2e 4b a0 
    e22e:	c7 85 b0 f8 ff ff 00 	movl   $0x0,-0x750(%rbp)
    e235:	00 00 00 
    e238:	c7 85 b4 f8 ff ff 52 	movl   $0xa04b2e52,-0x74c(%rbp)
    e23f:	2e 4b a0 
    e242:	c7 85 b8 f8 ff ff d9 	movl   $0xb353e3d9,-0x748(%rbp)
    e249:	e3 53 b3 
    e24c:	c7 85 bc f8 ff ff ff 	movl   $0xffffffff,-0x744(%rbp)
    e253:	ff ff ff 
    e256:	c7 85 c0 f8 ff ff a6 	movl   $0xb4b843a6,-0x740(%rbp)
    e25d:	43 b8 b4 
    e260:	66 c7 85 86 e8 ff ff 	movw   $0xffff,-0x177a(%rbp)
    e267:	ff ff 
    e269:	0f b6 45 be          	movzbl -0x42(%rbp),%eax
    e26d:	0f be d8             	movsbl %al,%ebx
    e270:	48 8b 85 80 e9 ff ff 	mov    -0x1680(%rbp),%rax
    e277:	8b 00                	mov    (%rax),%eax
    e279:	44 0f b6 e0          	movzbl %al,%r12d
    e27d:	48 8b 85 f8 ea ff ff 	mov    -0x1508(%rbp),%rax
    e284:	48 c7 00 00 00 00 00 	movq   $0x0,(%rax)
    e28b:	48 8b 85 f8 ea ff ff 	mov    -0x1508(%rbp),%rax
    e292:	4c 8b 38             	mov    (%rax),%r15
    e295:	0f b6 85 68 e8 ff ff 	movzbl -0x1798(%rbp),%eax
    e29c:	4c 0f be e8          	movsbq %al,%r13
    e2a0:	0f b6 85 68 e8 ff ff 	movzbl -0x1798(%rbp),%eax
    e2a7:	44 0f be f0          	movsbl %al,%r14d
    e2ab:	0f b7 05 e8 30 01 00 	movzwl 0x130e8(%rip),%eax        # 2139a <g_231>
    e2b2:	98                   	cwtl   
    e2b3:	89 c6                	mov    %eax,%esi
    e2b5:	bf 2b 00 00 00       	mov    $0x2b,%edi
    e2ba:	e8 ff c9 ff ff       	callq  acbe <safe_rshift_func_uint8_t_u_u>
    e2bf:	8b 85 fc e8 ff ff    	mov    -0x1704(%rbp),%eax
    e2c5:	89 c2                	mov    %eax,%edx
    e2c7:	48 8b 85 00 eb ff ff 	mov    -0x1500(%rbp),%rax
    e2ce:	66 89 10             	mov    %dx,(%rax)
    e2d1:	48 8b 85 00 eb ff ff 	mov    -0x1500(%rbp),%rax
    e2d8:	0f b7 10             	movzwl (%rax),%edx
    e2db:	0f b6 85 68 e8 ff ff 	movzbl -0x1798(%rbp),%eax
    e2e2:	66 98                	cbtw   
    e2e4:	66 39 c2             	cmp    %ax,%dx
    e2e7:	0f 95 c0             	setne  %al
    e2ea:	0f b6 c0             	movzbl %al,%eax
    e2ed:	be 05 00 00 00       	mov    $0x5,%esi
    e2f2:	89 c7                	mov    %eax,%edi
    e2f4:	e8 c5 ca ff ff       	callq  adbe <safe_lshift_func_uint16_t_u_s>
    e2f9:	48 8b 85 60 e8 ff ff 	mov    -0x17a0(%rbp),%rax
    e300:	8b 10                	mov    (%rax),%edx
    e302:	48 83 bd b0 e9 ff ff 	cmpq   $0x0,-0x1650(%rbp)
    e309:	00 
    e30a:	0f 95 c0             	setne  %al
    e30d:	0f b6 c8             	movzbl %al,%ecx
    e310:	8b 85 48 e9 ff ff    	mov    -0x16b8(%rbp),%eax
    e316:	39 c1                	cmp    %eax,%ecx
    e318:	0f 94 c0             	sete   %al
    e31b:	0f b6 c0             	movzbl %al,%eax
    e31e:	39 c2                	cmp    %eax,%edx
    e320:	0f 95 c0             	setne  %al
    e323:	0f b6 c0             	movzbl %al,%eax
    e326:	44 89 f6             	mov    %r14d,%esi
    e329:	89 c7                	mov    %eax,%edi
    e32b:	e8 71 bf ff ff       	callq  a2a1 <safe_lshift_func_int8_t_s_s>
    e330:	0f b6 85 68 e8 ff ff 	movzbl -0x1798(%rbp),%eax
    e337:	84 c0                	test   %al,%al
    e339:	0f 9f c0             	setg   %al
    e33c:	0f b6 c0             	movzbl %al,%eax
    e33f:	4c 89 ee             	mov    %r13,%rsi
    e342:	48 89 c7             	mov    %rax,%rdi
    e345:	e8 5e c5 ff ff       	callq  a8a8 <safe_sub_func_int64_t_s_s>
    e34a:	48 89 c2             	mov    %rax,%rdx
    e34d:	0f b7 85 6c e8 ff ff 	movzwl -0x1794(%rbp),%eax
    e354:	48 0f bf c0          	movswq %ax,%rax
    e358:	48 21 d0             	and    %rdx,%rax
    e35b:	48 83 f8 f7          	cmp    $0xfffffffffffffff7,%rax
    e35f:	0f 97 c0             	seta   %al
    e362:	0f b6 c0             	movzbl %al,%eax
    e365:	be 59 61 00 00       	mov    $0x6159,%esi
    e36a:	89 c7                	mov    %eax,%edi
    e36c:	e8 62 c0 ff ff       	callq  a3d3 <safe_sub_func_int16_t_s_s>
    e371:	48 0f bf c0          	movswq %ax,%rax
    e375:	49 39 c7             	cmp    %rax,%r15
    e378:	74 11                	je     e38b <func_23+0x187a>
    e37a:	8b 05 60 ed 00 00    	mov    0xed60(%rip),%eax        # 1d0e0 <g_394>
    e380:	85 c0                	test   %eax,%eax
    e382:	74 07                	je     e38b <func_23+0x187a>
    e384:	b8 01 00 00 00       	mov    $0x1,%eax
    e389:	eb 05                	jmp    e390 <func_23+0x187f>
    e38b:	b8 00 00 00 00       	mov    $0x0,%eax
    e390:	3d d8 8a 24 21       	cmp    $0x21248ad8,%eax
    e395:	0f 95 c0             	setne  %al
    e398:	0f b6 c0             	movzbl %al,%eax
    e39b:	44 89 e6             	mov    %r12d,%esi
    e39e:	89 c7                	mov    %eax,%edi
    e3a0:	e8 09 c8 ff ff       	callq  abae <safe_mod_func_uint8_t_u_u>
    e3a5:	0f b6 c0             	movzbl %al,%eax
    e3a8:	48 89 c7             	mov    %rax,%rdi
    e3ab:	e8 69 cc ff ff       	callq  b019 <safe_unary_minus_func_uint64_t_u>
    e3b0:	48 8b 95 08 eb ff ff 	mov    -0x14f8(%rbp),%rdx
    e3b7:	0f b7 12             	movzwl (%rdx),%edx
    e3ba:	21 d0                	and    %edx,%eax
    e3bc:	89 c2                	mov    %eax,%edx
    e3be:	48 8b 85 08 eb ff ff 	mov    -0x14f8(%rbp),%rax
    e3c5:	66 89 10             	mov    %dx,(%rax)
    e3c8:	48 8b 85 08 eb ff ff 	mov    -0x14f8(%rbp),%rax
    e3cf:	0f b7 00             	movzwl (%rax),%eax
    e3d2:	66 3d e3 48          	cmp    $0x48e3,%ax
    e3d6:	0f 9e c0             	setle  %al
    e3d9:	0f b6 c0             	movzbl %al,%eax
    e3dc:	48 c7 c6 ff ff ff ff 	mov    $0xffffffffffffffff,%rsi
    e3e3:	48 89 c7             	mov    %rax,%rdi
    e3e6:	e8 0c c6 ff ff       	callq  a9f7 <safe_div_func_int64_t_s_s>
    e3eb:	48 8b 85 10 eb ff ff 	mov    -0x14f0(%rbp),%rax
    e3f2:	66 c7 00 ff ff       	movw   $0xffff,(%rax)
    e3f7:	48 8b 85 10 eb ff ff 	mov    -0x14f0(%rbp),%rax
    e3fe:	0f b7 10             	movzwl (%rax),%edx
    e401:	48 8b 85 20 eb ff ff 	mov    -0x14e0(%rbp),%rax
    e408:	66 89 10             	mov    %dx,(%rax)
    e40b:	48 8b 85 30 eb ff ff 	mov    -0x14d0(%rbp),%rax
    e412:	c7 00 00 00 00 00    	movl   $0x0,(%rax)
    e418:	8b 85 fc e8 ff ff    	mov    -0x1704(%rbp),%eax
    e41e:	89 85 d8 eb ff ff    	mov    %eax,-0x1428(%rbp)
    e424:	8b 85 d8 eb ff ff    	mov    -0x1428(%rbp),%eax
    e42a:	0f be c0             	movsbl %al,%eax
    e42d:	89 de                	mov    %ebx,%esi
    e42f:	89 c7                	mov    %eax,%edi
    e431:	e8 34 be ff ff       	callq  a26a <safe_div_func_int8_t_s_s>
    e436:	8b 15 64 2f 01 00    	mov    0x12f64(%rip),%edx        # 213a0 <g_257>
    e43c:	83 bd fc e8 ff ff 01 	cmpl   $0x1,-0x1704(%rbp)
    e443:	0f 95 c0             	setne  %al
    e446:	0f b6 c0             	movzbl %al,%eax
    e449:	21 c2                	and    %eax,%edx
    e44b:	8b 85 70 eb ff ff    	mov    -0x1490(%rbp),%eax
    e451:	31 d0                	xor    %edx,%eax
    e453:	89 85 70 eb ff ff    	mov    %eax,-0x1490(%rbp)
    e459:	c7 05 8d ec 00 00 00 	movl   $0x0,0xec8d(%rip)        # 1d0f0 <g_448>
    e460:	00 00 00 
    e463:	eb 6d                	jmp    e4d2 <func_23+0x19c1>
    e465:	c7 85 00 e9 ff ff 01 	movl   $0x1,-0x1700(%rbp)
    e46c:	00 00 00 
    e46f:	48 8d 05 c5 eb 00 00 	lea    0xebc5(%rip),%rax        # 1d03b <g_2+0xb>
    e476:	48 89 85 c0 ec ff ff 	mov    %rax,-0x1340(%rbp)
    e47d:	48 8d 05 b7 eb 00 00 	lea    0xebb7(%rip),%rax        # 1d03b <g_2+0xb>
    e484:	48 89 85 c8 ec ff ff 	mov    %rax,-0x1338(%rbp)
    e48b:	48 8d 05 a9 eb 00 00 	lea    0xeba9(%rip),%rax        # 1d03b <g_2+0xb>
    e492:	48 89 85 d0 ec ff ff 	mov    %rax,-0x1330(%rbp)
    e499:	48 8d 05 9b eb 00 00 	lea    0xeb9b(%rip),%rax        # 1d03b <g_2+0xb>
    e4a0:	48 89 85 d8 ec ff ff 	mov    %rax,-0x1328(%rbp)
    e4a7:	48 8d 05 8d eb 00 00 	lea    0xeb8d(%rip),%rax        # 1d03b <g_2+0xb>
    e4ae:	48 89 85 e0 ec ff ff 	mov    %rax,-0x1320(%rbp)
    e4b5:	48 8d 85 90 e8 ff ff 	lea    -0x1770(%rbp),%rax
    e4bc:	48 89 85 40 eb ff ff 	mov    %rax,-0x14c0(%rbp)
    e4c3:	8b 05 27 ec 00 00    	mov    0xec27(%rip),%eax        # 1d0f0 <g_448>
    e4c9:	83 e8 01             	sub    $0x1,%eax
    e4cc:	89 05 1e ec 00 00    	mov    %eax,0xec1e(%rip)        # 1d0f0 <g_448>
    e4d2:	8b 05 18 ec 00 00    	mov    0xec18(%rip),%eax        # 1d0f0 <g_448>
    e4d8:	83 f8 fd             	cmp    $0xfffffffd,%eax
    e4db:	7c 88                	jl     e465 <func_23+0x1954>
    e4dd:	48 83 bd c8 e9 ff ff 	cmpq   $0x0,-0x1638(%rbp)
    e4e4:	00 
    e4e5:	e9 6f 02 00 00       	jmpq   e759 <func_23+0x1c48>
    e4ea:	48 b8 77 97 d4 17 ac 	movabs $0x7f5c4fac17d49777,%rax
    e4f1:	4f 5c 7f 
    e4f4:	48 89 85 58 e9 ff ff 	mov    %rax,-0x16a8(%rbp)
    e4fb:	48 8d 85 8c e8 ff ff 	lea    -0x1774(%rbp),%rax
    e502:	48 89 85 c8 ea ff ff 	mov    %rax,-0x1538(%rbp)
    e509:	66 c7 05 ee eb 00 00 	movw   $0xfff3,0xebee(%rip)        # 1d100 <g_546>
    e510:	f3 ff 
    e512:	e9 31 02 00 00       	jmpq   e748 <func_23+0x1c37>
    e517:	48 8d 05 32 15 01 00 	lea    0x11532(%rip),%rax        # 1fa50 <g_545>
    e51e:	48 89 85 d0 ea ff ff 	mov    %rax,-0x1530(%rbp)
    e525:	48 c7 85 d8 ea ff ff 	movq   $0x0,-0x1528(%rbp)
    e52c:	00 00 00 00 
    e530:	48 8d 85 10 f8 ff ff 	lea    -0x7f0(%rbp),%rax
    e537:	48 8d 15 c2 f4 00 00 	lea    0xf4c2(%rip),%rdx        # 1da00 <g_2043+0x3c0>
    e53e:	b9 3c 00 00 00       	mov    $0x3c,%ecx
    e543:	48 89 c7             	mov    %rax,%rdi
    e546:	48 89 d6             	mov    %rdx,%rsi
    e549:	f3 48 a5             	rep movsq %ds:(%rsi),%es:(%rdi)
    e54c:	c7 85 f0 e8 ff ff 08 	movl   $0x8,-0x1710(%rbp)
    e553:	00 00 00 
    e556:	48 8d 05 7f eb 00 00 	lea    0xeb7f(%rip),%rax        # 1d0dc <g_224>
    e55d:	48 89 85 e0 ea ff ff 	mov    %rax,-0x1520(%rbp)
    e564:	48 8d 05 ad eb 00 00 	lea    0xebad(%rip),%rax        # 1d118 <g_756>
    e56b:	48 89 85 e8 ea ff ff 	mov    %rax,-0x1518(%rbp)
    e572:	c7 85 f4 e8 ff ff dd 	movl   $0x7057dcdd,-0x170c(%rbp)
    e579:	dc 57 70 
    e57c:	48 8d 05 3d 2e 01 00 	lea    0x12e3d(%rip),%rax        # 213c0 <g_806>
    e583:	48 89 85 f0 ea ff ff 	mov    %rax,-0x1510(%rbp)
    e58a:	0f b7 85 6c e8 ff ff 	movzwl -0x1794(%rbp),%eax
    e591:	48 0f bf d0          	movswq %ax,%rdx
    e595:	48 8b 85 e8 ea ff ff 	mov    -0x1518(%rbp),%rax
    e59c:	48 c7 00 01 00 00 00 	movq   $0x1,(%rax)
    e5a3:	48 8b 85 e8 ea ff ff 	mov    -0x1518(%rbp),%rax
    e5aa:	48 8b 00             	mov    (%rax),%rax
    e5ad:	48 89 d6             	mov    %rdx,%rsi
    e5b0:	48 89 c7             	mov    %rax,%rdi
    e5b3:	e8 f7 ca ff ff       	callq  b0af <safe_div_func_uint64_t_u_u>
    e5b8:	89 c2                	mov    %eax,%edx
    e5ba:	0f b7 85 6c e8 ff ff 	movzwl -0x1794(%rbp),%eax
    e5c1:	0f be c0             	movsbl %al,%eax
    e5c4:	89 d6                	mov    %edx,%esi
    e5c6:	89 c7                	mov    %eax,%edi
    e5c8:	e8 9f bd ff ff       	callq  a36c <safe_rshift_func_int8_t_s_u>
    e5cd:	0f be c0             	movsbl %al,%eax
    e5d0:	89 85 f4 e8 ff ff    	mov    %eax,-0x170c(%rbp)
    e5d6:	c7 85 8c e8 ff ff 09 	movl   $0x9,-0x1774(%rbp)
    e5dd:	00 00 00 
    e5e0:	e9 43 01 00 00       	jmpq   e728 <func_23+0x1c17>
    e5e5:	c7 85 f8 e8 ff ff 9d 	movl   $0x4dd4009d,-0x1708(%rbp)
    e5ec:	00 d4 4d 
    e5ef:	c6 85 77 e8 ff ff fe 	movb   $0xfe,-0x1789(%rbp)
    e5f6:	80 ad 77 e8 ff ff 01 	subb   $0x1,-0x1789(%rbp)
    e5fd:	8b 85 8c e8 ff ff    	mov    -0x1774(%rbp),%eax
    e603:	48 98                	cltq   
    e605:	8b 9c 85 c0 eb ff ff 	mov    -0x1440(%rbp,%rax,4),%ebx
    e60c:	48 8b 85 58 e9 ff ff 	mov    -0x16a8(%rbp),%rax
    e613:	41 89 c4             	mov    %eax,%r12d
    e616:	48 8b 05 9b 2d 01 00 	mov    0x12d9b(%rip),%rax        # 213b8 <g_537>
    e61d:	49 89 c5             	mov    %rax,%r13
    e620:	8b 85 8c e8 ff ff    	mov    -0x1774(%rbp),%eax
    e626:	48 98                	cltq   
    e628:	8b 84 85 c0 eb ff ff 	mov    -0x1440(%rbp,%rax,4),%eax
    e62f:	85 c0                	test   %eax,%eax
    e631:	74 2b                	je     e65e <func_23+0x1b4d>
    e633:	be 01 00 00 00       	mov    $0x1,%esi
    e638:	48 bf 15 ae 5e 3c bb 	movabs $0x63db6dbb3c5eae15,%rdi
    e63f:	6d db 63 
    e642:	e8 e7 c9 ff ff       	callq  b02e <safe_add_func_uint64_t_u_u>
    e647:	0f b6 15 32 ea 00 00 	movzbl 0xea32(%rip),%edx        # 1d080 <g_178>
    e64e:	48 0f be d2          	movsbq %dl,%rdx
    e652:	48 39 d0             	cmp    %rdx,%rax
    e655:	74 07                	je     e65e <func_23+0x1b4d>
    e657:	b8 01 00 00 00       	mov    $0x1,%eax
    e65c:	eb 05                	jmp    e663 <func_23+0x1b52>
    e65e:	b8 00 00 00 00       	mov    $0x0,%eax
    e663:	66 89 05 2e 2d 01 00 	mov    %ax,0x12d2e(%rip)        # 21398 <g_101>
    e66a:	0f b7 05 27 2d 01 00 	movzwl 0x12d27(%rip),%eax        # 21398 <g_101>
    e671:	0f b7 c0             	movzwl %ax,%eax
    e674:	f7 d0                	not    %eax
    e676:	be e1 40 1d 0e       	mov    $0xe1d40e1,%esi
    e67b:	89 c7                	mov    %eax,%edi
    e67d:	e8 a3 c8 ff ff       	callq  af25 <safe_div_func_uint32_t_u_u>
    e682:	48 8d 05 67 13 01 00 	lea    0x11367(%rip),%rax        # 1f9f0 <g_195>
    e689:	48 39 85 f0 ea ff ff 	cmp    %rax,-0x1510(%rbp)
    e690:	0f 94 c0             	sete   %al
    e693:	0f b6 c0             	movzbl %al,%eax
    e696:	89 c6                	mov    %eax,%esi
    e698:	bf ff ff ff ff       	mov    $0xffffffff,%edi
    e69d:	e8 11 bd ff ff       	callq  a3b3 <safe_add_func_int16_t_s_s>
    e6a2:	48 0f bf c0          	movswq %ax,%rax
    e6a6:	4c 89 ee             	mov    %r13,%rsi
    e6a9:	48 89 c7             	mov    %rax,%rdi
    e6ac:	e8 7d c9 ff ff       	callq  b02e <safe_add_func_uint64_t_u_u>
    e6b1:	98                   	cwtl   
    e6b2:	44 89 e6             	mov    %r12d,%esi
    e6b5:	89 c7                	mov    %eax,%edi
    e6b7:	e8 25 be ff ff       	callq  a4e1 <safe_lshift_func_int16_t_s_u>
    e6bc:	0f be c0             	movsbl %al,%eax
    e6bf:	be 06 00 00 00       	mov    $0x6,%esi
    e6c4:	89 c7                	mov    %eax,%edi
    e6c6:	e8 6a bc ff ff       	callq  a335 <safe_rshift_func_int8_t_s_s>
    e6cb:	0f be d0             	movsbl %al,%edx
    e6ce:	8b 05 1c ea 00 00    	mov    0xea1c(%rip),%eax        # 1d0f0 <g_448>
    e6d4:	09 d0                	or     %edx,%eax
    e6d6:	85 c0                	test   %eax,%eax
    e6d8:	0f 9f c0             	setg   %al
    e6db:	0f b6 d0             	movzbl %al,%edx
    e6de:	48 8b 85 60 e8 ff ff 	mov    -0x17a0(%rbp),%rax
    e6e5:	8b 00                	mov    (%rax),%eax
    e6e7:	39 c2                	cmp    %eax,%edx
    e6e9:	0f 9c c0             	setl   %al
    e6ec:	0f b6 c0             	movzbl %al,%eax
    e6ef:	39 c3                	cmp    %eax,%ebx
    e6f1:	7f 12                	jg     e705 <func_23+0x1bf4>
    e6f3:	0f b6 85 68 e8 ff ff 	movzbl -0x1798(%rbp),%eax
    e6fa:	84 c0                	test   %al,%al
    e6fc:	74 07                	je     e705 <func_23+0x1bf4>
    e6fe:	ba 01 00 00 00       	mov    $0x1,%edx
    e703:	eb 05                	jmp    e70a <func_23+0x1bf9>
    e705:	ba 00 00 00 00       	mov    $0x0,%edx
    e70a:	48 8b 05 27 1d 01 00 	mov    0x11d27(%rip),%rax        # 20438 <g_1154>
    e711:	48 8b 00             	mov    (%rax),%rax
    e714:	48 8b 00             	mov    (%rax),%rax
    e717:	89 10                	mov    %edx,(%rax)
    e719:	8b 85 8c e8 ff ff    	mov    -0x1774(%rbp),%eax
    e71f:	83 e8 01             	sub    $0x1,%eax
    e722:	89 85 8c e8 ff ff    	mov    %eax,-0x1774(%rbp)
    e728:	8b 85 8c e8 ff ff    	mov    -0x1774(%rbp),%eax
    e72e:	83 f8 01             	cmp    $0x1,%eax
    e731:	0f 8f ae fe ff ff    	jg     e5e5 <func_23+0x1ad4>
    e737:	0f b7 05 c2 e9 00 00 	movzwl 0xe9c2(%rip),%eax        # 1d100 <g_546>
    e73e:	83 c0 01             	add    $0x1,%eax
    e741:	66 89 05 b8 e9 00 00 	mov    %ax,0xe9b8(%rip)        # 1d100 <g_546>
    e748:	0f b7 05 b1 e9 00 00 	movzwl 0xe9b1(%rip),%eax        # 1d100 <g_546>
    e74f:	66 83 f8 37          	cmp    $0x37,%ax
    e753:	0f 85 be fd ff ff    	jne    e517 <func_23+0x1a06>
    e759:	48 0f bf 85 7c e8 ff 	movswq -0x1784(%rbp),%rax
    e760:	ff 
    e761:	be 02 00 00 00       	mov    $0x2,%esi
    e766:	48 89 c7             	mov    %rax,%rdi
    e769:	e8 c0 c8 ff ff       	callq  b02e <safe_add_func_uint64_t_u_u>
    e76e:	66 89 85 7c e8 ff ff 	mov    %ax,-0x1784(%rbp)
    e775:	66 83 bd 7c e8 ff ff 	cmpw   $0x8,-0x1784(%rbp)
    e77c:	08 
    e77d:	0f 84 a6 f5 ff ff    	je     dd29 <func_23+0x1218>
    e783:	66 c7 05 84 e9 00 00 	movw   $0x0,0xe984(%rip)        # 1d110 <g_697>
    e78a:	00 00 
    e78c:	eb 65                	jmp    e7f3 <func_23+0x1ce2>
    e78e:	c7 85 58 e9 ff ff 83 	movl   $0xea3cff83,-0x16a8(%rbp)
    e795:	ff 3c ea 
    e798:	66 c7 05 71 e9 00 00 	movw   $0x1a,0xe971(%rip)        # 1d112 <g_698>
    e79f:	1a 00 
    e7a1:	90                   	nop
    e7a2:	0f b7 05 69 e9 00 00 	movzwl 0xe969(%rip),%eax        # 1d112 <g_698>
    e7a9:	66 83 f8 f9          	cmp    $0xfff9,%ax
    e7ad:	75 0b                	jne    e7ba <func_23+0x1ca9>
    e7af:	8b 85 58 e9 ff ff    	mov    -0x16a8(%rbp),%eax
    e7b5:	e9 34 25 00 00       	jmpq   10cee <func_23+0x41dd>
    e7ba:	48 8b 15 1f 12 01 00 	mov    0x1121f(%rip),%rdx        # 1f9e0 <g_170>
    e7c1:	48 8b 05 70 1c 01 00 	mov    0x11c70(%rip),%rax        # 20438 <g_1154>
    e7c8:	48 8b 00             	mov    (%rax),%rax
    e7cb:	48 8b 12             	mov    (%rdx),%rdx
    e7ce:	48 89 10             	mov    %rdx,(%rax)
    e7d1:	48 8b 05 78 1c 01 00 	mov    0x11c78(%rip),%rax        # 20450 <g_1210>
    e7d8:	48 8d 15 41 e9 00 00 	lea    0xe941(%rip),%rdx        # 1d120 <g_899>
    e7df:	48 89 10             	mov    %rdx,(%rax)
    e7e2:	0f b7 05 27 e9 00 00 	movzwl 0xe927(%rip),%eax        # 1d110 <g_697>
    e7e9:	83 c0 01             	add    $0x1,%eax
    e7ec:	66 89 05 1d e9 00 00 	mov    %ax,0xe91d(%rip)        # 1d110 <g_697>
    e7f3:	0f b7 05 16 e9 00 00 	movzwl 0xe916(%rip),%eax        # 1d110 <g_697>
    e7fa:	66 83 f8 26          	cmp    $0x26,%ax
    e7fe:	75 8e                	jne    e78e <func_23+0x1c7d>
    e800:	0f b6 45 ba          	movzbl -0x46(%rbp),%eax
    e804:	0f be d8             	movsbl %al,%ebx
    e807:	48 8b 05 42 1c 01 00 	mov    0x11c42(%rip),%rax        # 20450 <g_1210>
    e80e:	48 8b 00             	mov    (%rax),%rax
    e811:	48 8b 00             	mov    (%rax),%rax
    e814:	48 8b 85 d8 e9 ff ff 	mov    -0x1628(%rbp),%rax
    e81b:	c6 00 01             	movb   $0x1,(%rax)
    e81e:	48 8b 05 cb 11 01 00 	mov    0x111cb(%rip),%rax        # 1f9f0 <g_195>
    e825:	0f b7 00             	movzwl (%rax),%eax
    e828:	44 0f bf e0          	movswl %ax,%r12d
    e82c:	48 8b 85 e0 e9 ff ff 	mov    -0x1620(%rbp),%rax
    e833:	0f b6 00             	movzbl (%rax),%eax
    e836:	8d 48 ff             	lea    -0x1(%rax),%ecx
    e839:	48 8b 95 e0 e9 ff ff 	mov    -0x1620(%rbp),%rdx
    e840:	88 0a                	mov    %cl,(%rdx)
    e842:	0f b6 d0             	movzbl %al,%edx
    e845:	48 8b 85 20 e9 ff ff 	mov    -0x16e0(%rbp),%rax
    e84c:	48 85 c0             	test   %rax,%rax
    e84f:	0f 95 c0             	setne  %al
    e852:	0f b6 c0             	movzbl %al,%eax
    e855:	39 c2                	cmp    %eax,%edx
    e857:	0f 9c c0             	setl   %al
    e85a:	0f b6 c0             	movzbl %al,%eax
    e85d:	be 06 00 00 00       	mov    $0x6,%esi
    e862:	89 c7                	mov    %eax,%edi
    e864:	e8 c8 b9 ff ff       	callq  a231 <safe_mod_func_int8_t_s_s>
    e869:	0f be d0             	movsbl %al,%edx
    e86c:	0f b6 85 68 e8 ff ff 	movzbl -0x1798(%rbp),%eax
    e873:	0f be c0             	movsbl %al,%eax
    e876:	89 d6                	mov    %edx,%esi
    e878:	89 c7                	mov    %eax,%edi
    e87a:	e8 ed ba ff ff       	callq  a36c <safe_rshift_func_int8_t_s_u>
    e87f:	0f be c0             	movsbl %al,%eax
    e882:	44 89 e6             	mov    %r12d,%esi
    e885:	89 c7                	mov    %eax,%edi
    e887:	e8 8a bb ff ff       	callq  a416 <safe_mod_func_int16_t_s_s>
    e88c:	48 8b 85 a0 e9 ff ff 	mov    -0x1660(%rbp),%rax
    e893:	8b 00                	mov    (%rax),%eax
    e895:	c1 e8 1f             	shr    $0x1f,%eax
    e898:	0f b6 d0             	movzbl %al,%edx
    e89b:	48 8b 8d 10 e9 ff ff 	mov    -0x16f0(%rbp),%rcx
    e8a2:	48 8b 85 d0 e9 ff ff 	mov    -0x1630(%rbp),%rax
    e8a9:	48 89 08             	mov    %rcx,(%rax)
    e8ac:	48 8b 85 d0 e9 ff ff 	mov    -0x1630(%rbp),%rax
    e8b3:	48 8b 00             	mov    (%rax),%rax
    e8b6:	48 8d 0d 53 e8 00 00 	lea    0xe853(%rip),%rcx        # 1d110 <g_697>
    e8bd:	48 39 c8             	cmp    %rcx,%rax
    e8c0:	0f 95 c0             	setne  %al
    e8c3:	0f b6 c0             	movzbl %al,%eax
    e8c6:	89 d6                	mov    %edx,%esi
    e8c8:	89 c7                	mov    %eax,%edi
    e8ca:	e8 26 bb ff ff       	callq  a3f5 <safe_mul_func_int16_t_s_s>
    e8cf:	48 8d 85 00 ec ff ff 	lea    -0x1400(%rbp),%rax
    e8d6:	48 05 b2 00 00 00    	add    $0xb2,%rax
    e8dc:	48 89 85 e8 e9 ff ff 	mov    %rax,-0x1618(%rbp)
    e8e3:	48 8d 85 68 e8 ff ff 	lea    -0x1798(%rbp),%rax
    e8ea:	48 39 85 e8 e9 ff ff 	cmp    %rax,-0x1618(%rbp)
    e8f1:	48 8b 85 a8 e9 ff ff 	mov    -0x1658(%rbp),%rax
    e8f8:	8b 00                	mov    (%rax),%eax
    e8fa:	89 de                	mov    %ebx,%esi
    e8fc:	89 c7                	mov    %eax,%edi
    e8fe:	e8 02 bd ff ff       	callq  a605 <safe_sub_func_int32_t_s_s>
    e903:	48 8b 85 a0 e9 ff ff 	mov    -0x1660(%rbp),%rax
    e90a:	8b 00                	mov    (%rax),%eax
    e90c:	85 c0                	test   %eax,%eax
    e90e:	0f 84 fb 13 00 00    	je     fd0f <func_23+0x31fe>
    e914:	48 8d 85 08 e9 ff ff 	lea    -0x16f8(%rbp),%rax
    e91b:	48 89 85 30 e9 ff ff 	mov    %rax,-0x16d0(%rbp)
    e922:	c7 85 94 e8 ff ff 01 	movl   $0x1,-0x176c(%rbp)
    e929:	00 00 00 
    e92c:	c7 85 98 e8 ff ff 01 	movl   $0x1,-0x1768(%rbp)
    e933:	00 00 00 
    e936:	48 c7 85 38 e9 ff ff 	movq   $0x0,-0x16c8(%rbp)
    e93d:	00 00 00 00 
    e941:	c7 85 c4 e8 ff ff 12 	movl   $0x12,-0x173c(%rbp)
    e948:	00 00 00 
    e94b:	83 bd c4 e8 ff ff 0c 	cmpl   $0xc,-0x173c(%rbp)
    e952:	75 0b                	jne    e95f <func_23+0x1e4e>
    e954:	8b 85 90 e8 ff ff    	mov    -0x1770(%rbp),%eax
    e95a:	e9 8f 23 00 00       	jmpq   10cee <func_23+0x41dd>
    e95f:	90                   	nop
    e960:	0f b6 85 68 e8 ff ff 	movzbl -0x1798(%rbp),%eax
    e967:	0f be d0             	movsbl %al,%edx
    e96a:	48 8b 85 30 e9 ff ff 	mov    -0x16d0(%rbp),%rax
    e971:	48 85 c0             	test   %rax,%rax
    e974:	0f 95 c0             	setne  %al
    e977:	0f b6 c0             	movzbl %al,%eax
    e97a:	39 c2                	cmp    %eax,%edx
    e97c:	0f 8e 89 09 00 00    	jle    f30b <func_23+0x27fa>
    e982:	66 c7 85 84 e8 ff ff 	movw   $0x316b,-0x177c(%rbp)
    e989:	6b 31 
    e98b:	48 c7 85 c0 ec ff ff 	movq   $0x0,-0x1340(%rbp)
    e992:	00 00 00 00 
    e996:	48 8d 85 78 e8 ff ff 	lea    -0x1788(%rbp),%rax
    e99d:	48 89 85 c8 ec ff ff 	mov    %rax,-0x1338(%rbp)
    e9a4:	48 c7 85 d0 ec ff ff 	movq   $0x0,-0x1330(%rbp)
    e9ab:	00 00 00 00 
    e9af:	48 c7 85 d8 ec ff ff 	movq   $0x0,-0x1328(%rbp)
    e9b6:	00 00 00 00 
    e9ba:	48 8d 85 78 e8 ff ff 	lea    -0x1788(%rbp),%rax
    e9c1:	48 89 85 e0 ec ff ff 	mov    %rax,-0x1320(%rbp)
    e9c8:	48 c7 85 e8 ec ff ff 	movq   $0x0,-0x1318(%rbp)
    e9cf:	00 00 00 00 
    e9d3:	48 c7 85 f0 ec ff ff 	movq   $0x0,-0x1310(%rbp)
    e9da:	00 00 00 00 
    e9de:	c7 85 e4 e8 ff ff 00 	movl   $0x0,-0x171c(%rbp)
    e9e5:	00 00 00 
    e9e8:	48 8d 05 d1 29 01 00 	lea    0x129d1(%rip),%rax        # 213c0 <g_806>
    e9ef:	48 89 85 80 ef ff ff 	mov    %rax,-0x1080(%rbp)
    e9f6:	48 8d 05 c3 29 01 00 	lea    0x129c3(%rip),%rax        # 213c0 <g_806>
    e9fd:	48 89 85 88 ef ff ff 	mov    %rax,-0x1078(%rbp)
    ea04:	48 8d 05 b5 29 01 00 	lea    0x129b5(%rip),%rax        # 213c0 <g_806>
    ea0b:	48 89 85 90 ef ff ff 	mov    %rax,-0x1070(%rbp)
    ea12:	48 8d 05 a7 29 01 00 	lea    0x129a7(%rip),%rax        # 213c0 <g_806>
    ea19:	48 89 85 98 ef ff ff 	mov    %rax,-0x1068(%rbp)
    ea20:	48 8d 05 99 29 01 00 	lea    0x12999(%rip),%rax        # 213c0 <g_806>
    ea27:	48 89 85 a0 ef ff ff 	mov    %rax,-0x1060(%rbp)
    ea2e:	48 8d 05 8b 29 01 00 	lea    0x1298b(%rip),%rax        # 213c0 <g_806>
    ea35:	48 89 85 a8 ef ff ff 	mov    %rax,-0x1058(%rbp)
    ea3c:	48 8d 05 7d 29 01 00 	lea    0x1297d(%rip),%rax        # 213c0 <g_806>
    ea43:	48 89 85 b0 ef ff ff 	mov    %rax,-0x1050(%rbp)
    ea4a:	48 8d 05 6f 29 01 00 	lea    0x1296f(%rip),%rax        # 213c0 <g_806>
    ea51:	48 89 85 b8 ef ff ff 	mov    %rax,-0x1048(%rbp)
    ea58:	48 c7 85 10 f8 ff ff 	movq   $0x0,-0x7f0(%rbp)
    ea5f:	00 00 00 00 
    ea63:	48 8d 85 80 ef ff ff 	lea    -0x1080(%rbp),%rax
    ea6a:	48 89 85 18 f8 ff ff 	mov    %rax,-0x7e8(%rbp)
    ea71:	48 8d 85 80 ef ff ff 	lea    -0x1080(%rbp),%rax
    ea78:	48 89 85 20 f8 ff ff 	mov    %rax,-0x7e0(%rbp)
    ea7f:	48 8d 85 80 ef ff ff 	lea    -0x1080(%rbp),%rax
    ea86:	48 89 85 28 f8 ff ff 	mov    %rax,-0x7d8(%rbp)
    ea8d:	48 c7 85 30 f8 ff ff 	movq   $0x0,-0x7d0(%rbp)
    ea94:	00 00 00 00 
    ea98:	48 8d 85 80 ef ff ff 	lea    -0x1080(%rbp),%rax
    ea9f:	48 83 c0 30          	add    $0x30,%rax
    eaa3:	48 89 85 38 f8 ff ff 	mov    %rax,-0x7c8(%rbp)
    eaaa:	48 c7 85 40 f8 ff ff 	movq   $0x0,-0x7c0(%rbp)
    eab1:	00 00 00 00 
    eab5:	48 8d 85 80 ef ff ff 	lea    -0x1080(%rbp),%rax
    eabc:	48 83 c0 28          	add    $0x28,%rax
    eac0:	48 89 85 48 f8 ff ff 	mov    %rax,-0x7b8(%rbp)
    eac7:	48 8d 85 80 ef ff ff 	lea    -0x1080(%rbp),%rax
    eace:	48 89 85 50 f8 ff ff 	mov    %rax,-0x7b0(%rbp)
    ead5:	48 8d 85 80 ef ff ff 	lea    -0x1080(%rbp),%rax
    eadc:	48 83 c0 08          	add    $0x8,%rax
    eae0:	48 89 85 58 f8 ff ff 	mov    %rax,-0x7a8(%rbp)
    eae7:	48 c7 85 60 f8 ff ff 	movq   $0x0,-0x7a0(%rbp)
    eaee:	00 00 00 00 
    eaf2:	48 8d 85 80 ef ff ff 	lea    -0x1080(%rbp),%rax
    eaf9:	48 89 85 68 f8 ff ff 	mov    %rax,-0x798(%rbp)
    eb00:	48 c7 85 70 f8 ff ff 	movq   $0x0,-0x790(%rbp)
    eb07:	00 00 00 00 
    eb0b:	48 8d 85 80 ef ff ff 	lea    -0x1080(%rbp),%rax
    eb12:	48 89 85 78 f8 ff ff 	mov    %rax,-0x788(%rbp)
    eb19:	48 8d 85 80 ef ff ff 	lea    -0x1080(%rbp),%rax
    eb20:	48 89 85 80 f8 ff ff 	mov    %rax,-0x780(%rbp)
    eb27:	48 c7 85 88 f8 ff ff 	movq   $0x0,-0x778(%rbp)
    eb2e:	00 00 00 00 
    eb32:	48 8d 85 80 ef ff ff 	lea    -0x1080(%rbp),%rax
    eb39:	48 83 c0 38          	add    $0x38,%rax
    eb3d:	48 89 85 90 f8 ff ff 	mov    %rax,-0x770(%rbp)
    eb44:	48 8d 85 80 ef ff ff 	lea    -0x1080(%rbp),%rax
    eb4b:	48 83 c0 20          	add    $0x20,%rax
    eb4f:	48 89 85 98 f8 ff ff 	mov    %rax,-0x768(%rbp)
    eb56:	48 8d 85 80 ef ff ff 	lea    -0x1080(%rbp),%rax
    eb5d:	48 83 c0 08          	add    $0x8,%rax
    eb61:	48 89 85 a0 f8 ff ff 	mov    %rax,-0x760(%rbp)
    eb68:	48 8d 85 80 ef ff ff 	lea    -0x1080(%rbp),%rax
    eb6f:	48 89 85 a8 f8 ff ff 	mov    %rax,-0x758(%rbp)
    eb76:	48 8d 85 80 ef ff ff 	lea    -0x1080(%rbp),%rax
    eb7d:	48 89 85 b0 f8 ff ff 	mov    %rax,-0x750(%rbp)
    eb84:	48 8d 85 80 ef ff ff 	lea    -0x1080(%rbp),%rax
    eb8b:	48 83 c0 28          	add    $0x28,%rax
    eb8f:	48 89 85 b8 f8 ff ff 	mov    %rax,-0x748(%rbp)
    eb96:	48 c7 85 c0 f8 ff ff 	movq   $0x0,-0x740(%rbp)
    eb9d:	00 00 00 00 
    eba1:	48 8d 85 80 ef ff ff 	lea    -0x1080(%rbp),%rax
    eba8:	48 83 c0 10          	add    $0x10,%rax
    ebac:	48 89 85 c8 f8 ff ff 	mov    %rax,-0x738(%rbp)
    ebb3:	48 8d 85 80 ef ff ff 	lea    -0x1080(%rbp),%rax
    ebba:	48 83 c0 18          	add    $0x18,%rax
    ebbe:	48 89 85 d0 f8 ff ff 	mov    %rax,-0x730(%rbp)
    ebc5:	48 c7 85 d8 f8 ff ff 	movq   $0x0,-0x728(%rbp)
    ebcc:	00 00 00 00 
    ebd0:	48 8d 85 80 ef ff ff 	lea    -0x1080(%rbp),%rax
    ebd7:	48 83 c0 20          	add    $0x20,%rax
    ebdb:	48 89 85 e0 f8 ff ff 	mov    %rax,-0x720(%rbp)
    ebe2:	48 8d 85 80 ef ff ff 	lea    -0x1080(%rbp),%rax
    ebe9:	48 89 85 e8 f8 ff ff 	mov    %rax,-0x718(%rbp)
    ebf0:	48 c7 85 f0 f8 ff ff 	movq   $0x0,-0x710(%rbp)
    ebf7:	00 00 00 00 
    ebfb:	48 8d 85 80 ef ff ff 	lea    -0x1080(%rbp),%rax
    ec02:	48 89 85 f8 f8 ff ff 	mov    %rax,-0x708(%rbp)
    ec09:	48 c7 85 00 f9 ff ff 	movq   $0x0,-0x700(%rbp)
    ec10:	00 00 00 00 
    ec14:	48 c7 85 08 f9 ff ff 	movq   $0x0,-0x6f8(%rbp)
    ec1b:	00 00 00 00 
    ec1f:	48 8d 85 80 ef ff ff 	lea    -0x1080(%rbp),%rax
    ec26:	48 89 85 10 f9 ff ff 	mov    %rax,-0x6f0(%rbp)
    ec2d:	48 c7 85 18 f9 ff ff 	movq   $0x0,-0x6e8(%rbp)
    ec34:	00 00 00 00 
    ec38:	48 8d 85 80 ef ff ff 	lea    -0x1080(%rbp),%rax
    ec3f:	48 89 85 20 f9 ff ff 	mov    %rax,-0x6e0(%rbp)
    ec46:	48 8d 85 80 ef ff ff 	lea    -0x1080(%rbp),%rax
    ec4d:	48 89 85 28 f9 ff ff 	mov    %rax,-0x6d8(%rbp)
    ec54:	48 8d 85 80 ef ff ff 	lea    -0x1080(%rbp),%rax
    ec5b:	48 89 85 30 f9 ff ff 	mov    %rax,-0x6d0(%rbp)
    ec62:	48 8d 85 80 ef ff ff 	lea    -0x1080(%rbp),%rax
    ec69:	48 89 85 38 f9 ff ff 	mov    %rax,-0x6c8(%rbp)
    ec70:	48 8d 85 80 ef ff ff 	lea    -0x1080(%rbp),%rax
    ec77:	48 89 85 40 f9 ff ff 	mov    %rax,-0x6c0(%rbp)
    ec7e:	48 8d 85 80 ef ff ff 	lea    -0x1080(%rbp),%rax
    ec85:	48 89 85 48 f9 ff ff 	mov    %rax,-0x6b8(%rbp)
    ec8c:	48 8d 85 80 ef ff ff 	lea    -0x1080(%rbp),%rax
    ec93:	48 89 85 50 f9 ff ff 	mov    %rax,-0x6b0(%rbp)
    ec9a:	48 8d 85 80 ef ff ff 	lea    -0x1080(%rbp),%rax
    eca1:	48 89 85 58 f9 ff ff 	mov    %rax,-0x6a8(%rbp)
    eca8:	48 8d 85 80 ef ff ff 	lea    -0x1080(%rbp),%rax
    ecaf:	48 83 c0 30          	add    $0x30,%rax
    ecb3:	48 89 85 60 f9 ff ff 	mov    %rax,-0x6a0(%rbp)
    ecba:	48 8d 85 80 ef ff ff 	lea    -0x1080(%rbp),%rax
    ecc1:	48 83 c0 08          	add    $0x8,%rax
    ecc5:	48 89 85 68 f9 ff ff 	mov    %rax,-0x698(%rbp)
    eccc:	48 8d 85 80 ef ff ff 	lea    -0x1080(%rbp),%rax
    ecd3:	48 89 85 70 f9 ff ff 	mov    %rax,-0x690(%rbp)
    ecda:	48 c7 85 78 f9 ff ff 	movq   $0x0,-0x688(%rbp)
    ece1:	00 00 00 00 
    ece5:	48 8d 85 80 ef ff ff 	lea    -0x1080(%rbp),%rax
    ecec:	48 89 85 80 f9 ff ff 	mov    %rax,-0x680(%rbp)
    ecf3:	48 8d 85 80 ef ff ff 	lea    -0x1080(%rbp),%rax
    ecfa:	48 83 c0 08          	add    $0x8,%rax
    ecfe:	48 89 85 88 f9 ff ff 	mov    %rax,-0x678(%rbp)
    ed05:	48 8d 85 80 ef ff ff 	lea    -0x1080(%rbp),%rax
    ed0c:	48 89 85 90 f9 ff ff 	mov    %rax,-0x670(%rbp)
    ed13:	48 8d 85 80 ef ff ff 	lea    -0x1080(%rbp),%rax
    ed1a:	48 89 85 98 f9 ff ff 	mov    %rax,-0x668(%rbp)
    ed21:	48 8d 85 80 ef ff ff 	lea    -0x1080(%rbp),%rax
    ed28:	48 89 85 a0 f9 ff ff 	mov    %rax,-0x660(%rbp)
    ed2f:	48 c7 85 a8 f9 ff ff 	movq   $0x0,-0x658(%rbp)
    ed36:	00 00 00 00 
    ed3a:	48 8d 85 80 ef ff ff 	lea    -0x1080(%rbp),%rax
    ed41:	48 89 85 b0 f9 ff ff 	mov    %rax,-0x650(%rbp)
    ed48:	48 8d 85 80 ef ff ff 	lea    -0x1080(%rbp),%rax
    ed4f:	48 89 85 b8 f9 ff ff 	mov    %rax,-0x648(%rbp)
    ed56:	48 c7 85 c0 f9 ff ff 	movq   $0x0,-0x640(%rbp)
    ed5d:	00 00 00 00 
    ed61:	48 8d 85 80 ef ff ff 	lea    -0x1080(%rbp),%rax
    ed68:	48 89 85 c8 f9 ff ff 	mov    %rax,-0x638(%rbp)
    ed6f:	48 8d 85 80 ef ff ff 	lea    -0x1080(%rbp),%rax
    ed76:	48 83 c0 20          	add    $0x20,%rax
    ed7a:	48 89 85 d0 f9 ff ff 	mov    %rax,-0x630(%rbp)
    ed81:	48 8d 85 80 ef ff ff 	lea    -0x1080(%rbp),%rax
    ed88:	48 89 85 d8 f9 ff ff 	mov    %rax,-0x628(%rbp)
    ed8f:	48 c7 85 e0 f9 ff ff 	movq   $0x0,-0x620(%rbp)
    ed96:	00 00 00 00 
    ed9a:	48 8d 85 80 ef ff ff 	lea    -0x1080(%rbp),%rax
    eda1:	48 83 c0 08          	add    $0x8,%rax
    eda5:	48 89 85 e8 f9 ff ff 	mov    %rax,-0x618(%rbp)
    edac:	48 c7 85 f0 f9 ff ff 	movq   $0x0,-0x610(%rbp)
    edb3:	00 00 00 00 
    edb7:	48 8d 85 80 ef ff ff 	lea    -0x1080(%rbp),%rax
    edbe:	48 89 85 f8 f9 ff ff 	mov    %rax,-0x608(%rbp)
    edc5:	48 8d 85 80 ef ff ff 	lea    -0x1080(%rbp),%rax
    edcc:	48 83 c0 20          	add    $0x20,%rax
    edd0:	48 89 85 00 fa ff ff 	mov    %rax,-0x600(%rbp)
    edd7:	48 8d 85 80 ef ff ff 	lea    -0x1080(%rbp),%rax
    edde:	48 89 85 08 fa ff ff 	mov    %rax,-0x5f8(%rbp)
    ede5:	48 c7 85 10 fa ff ff 	movq   $0x0,-0x5f0(%rbp)
    edec:	00 00 00 00 
    edf0:	48 8d 85 80 ef ff ff 	lea    -0x1080(%rbp),%rax
    edf7:	48 89 85 18 fa ff ff 	mov    %rax,-0x5e8(%rbp)
    edfe:	48 c7 85 20 fa ff ff 	movq   $0x0,-0x5e0(%rbp)
    ee05:	00 00 00 00 
    ee09:	48 8d 85 80 ef ff ff 	lea    -0x1080(%rbp),%rax
    ee10:	48 89 85 28 fa ff ff 	mov    %rax,-0x5d8(%rbp)
    ee17:	48 8d 85 80 ef ff ff 	lea    -0x1080(%rbp),%rax
    ee1e:	48 83 c0 10          	add    $0x10,%rax
    ee22:	48 89 85 30 fa ff ff 	mov    %rax,-0x5d0(%rbp)
    ee29:	48 8d 85 80 ef ff ff 	lea    -0x1080(%rbp),%rax
    ee30:	48 83 c0 38          	add    $0x38,%rax
    ee34:	48 89 85 38 fa ff ff 	mov    %rax,-0x5c8(%rbp)
    ee3b:	48 c7 85 40 fa ff ff 	movq   $0x0,-0x5c0(%rbp)
    ee42:	00 00 00 00 
    ee46:	48 8d 85 80 ef ff ff 	lea    -0x1080(%rbp),%rax
    ee4d:	48 83 c0 08          	add    $0x8,%rax
    ee51:	48 89 85 48 fa ff ff 	mov    %rax,-0x5b8(%rbp)
    ee58:	48 8d 85 80 ef ff ff 	lea    -0x1080(%rbp),%rax
    ee5f:	48 89 85 50 fa ff ff 	mov    %rax,-0x5b0(%rbp)
    ee66:	48 8d 85 80 ef ff ff 	lea    -0x1080(%rbp),%rax
    ee6d:	48 83 c0 08          	add    $0x8,%rax
    ee71:	48 89 85 58 fa ff ff 	mov    %rax,-0x5a8(%rbp)
    ee78:	48 8d 85 80 ef ff ff 	lea    -0x1080(%rbp),%rax
    ee7f:	48 89 85 60 fa ff ff 	mov    %rax,-0x5a0(%rbp)
    ee86:	48 8d 85 80 ef ff ff 	lea    -0x1080(%rbp),%rax
    ee8d:	48 83 c0 08          	add    $0x8,%rax
    ee91:	48 89 85 68 fa ff ff 	mov    %rax,-0x598(%rbp)
    ee98:	48 8d 85 80 ef ff ff 	lea    -0x1080(%rbp),%rax
    ee9f:	48 89 85 70 fa ff ff 	mov    %rax,-0x590(%rbp)
    eea6:	48 8d 85 80 ef ff ff 	lea    -0x1080(%rbp),%rax
    eead:	48 83 c0 10          	add    $0x10,%rax
    eeb1:	48 89 85 78 fa ff ff 	mov    %rax,-0x588(%rbp)
    eeb8:	48 8d 85 80 ef ff ff 	lea    -0x1080(%rbp),%rax
    eebf:	48 89 85 80 fa ff ff 	mov    %rax,-0x580(%rbp)
    eec6:	48 8d 85 80 ef ff ff 	lea    -0x1080(%rbp),%rax
    eecd:	48 83 c0 10          	add    $0x10,%rax
    eed1:	48 89 85 88 fa ff ff 	mov    %rax,-0x578(%rbp)
    eed8:	48 c7 85 90 fa ff ff 	movq   $0x0,-0x570(%rbp)
    eedf:	00 00 00 00 
    eee3:	48 8d 85 80 ef ff ff 	lea    -0x1080(%rbp),%rax
    eeea:	48 83 c0 28          	add    $0x28,%rax
    eeee:	48 89 85 98 fa ff ff 	mov    %rax,-0x568(%rbp)
    eef5:	48 8d 85 80 ef ff ff 	lea    -0x1080(%rbp),%rax
    eefc:	48 89 85 a0 fa ff ff 	mov    %rax,-0x560(%rbp)
    ef03:	48 8d 85 80 ef ff ff 	lea    -0x1080(%rbp),%rax
    ef0a:	48 89 85 a8 fa ff ff 	mov    %rax,-0x558(%rbp)
    ef11:	48 8d 85 80 ef ff ff 	lea    -0x1080(%rbp),%rax
    ef18:	48 89 85 b0 fa ff ff 	mov    %rax,-0x550(%rbp)
    ef1f:	48 8d 85 80 ef ff ff 	lea    -0x1080(%rbp),%rax
    ef26:	48 89 85 b8 fa ff ff 	mov    %rax,-0x548(%rbp)
    ef2d:	48 8d 85 80 ef ff ff 	lea    -0x1080(%rbp),%rax
    ef34:	48 83 c0 08          	add    $0x8,%rax
    ef38:	48 89 85 c0 fa ff ff 	mov    %rax,-0x540(%rbp)
    ef3f:	48 c7 85 c8 fa ff ff 	movq   $0x0,-0x538(%rbp)
    ef46:	00 00 00 00 
    ef4a:	48 c7 85 d0 fa ff ff 	movq   $0x0,-0x530(%rbp)
    ef51:	00 00 00 00 
    ef55:	48 8d 85 80 ef ff ff 	lea    -0x1080(%rbp),%rax
    ef5c:	48 83 c0 08          	add    $0x8,%rax
    ef60:	48 89 85 d8 fa ff ff 	mov    %rax,-0x528(%rbp)
    ef67:	48 8d 85 80 ef ff ff 	lea    -0x1080(%rbp),%rax
    ef6e:	48 89 85 e0 fa ff ff 	mov    %rax,-0x520(%rbp)
    ef75:	48 8d 85 80 ef ff ff 	lea    -0x1080(%rbp),%rax
    ef7c:	48 89 85 e8 fa ff ff 	mov    %rax,-0x518(%rbp)
    ef83:	48 8d 85 80 ef ff ff 	lea    -0x1080(%rbp),%rax
    ef8a:	48 89 85 f0 fa ff ff 	mov    %rax,-0x510(%rbp)
    ef91:	48 8d 85 80 ef ff ff 	lea    -0x1080(%rbp),%rax
    ef98:	48 89 85 f8 fa ff ff 	mov    %rax,-0x508(%rbp)
    ef9f:	48 8d 85 80 ef ff ff 	lea    -0x1080(%rbp),%rax
    efa6:	48 89 85 00 fb ff ff 	mov    %rax,-0x500(%rbp)
    efad:	48 8d 85 80 ef ff ff 	lea    -0x1080(%rbp),%rax
    efb4:	48 89 85 08 fb ff ff 	mov    %rax,-0x4f8(%rbp)
    efbb:	48 8d 85 80 ef ff ff 	lea    -0x1080(%rbp),%rax
    efc2:	48 89 85 10 fb ff ff 	mov    %rax,-0x4f0(%rbp)
    efc9:	48 8d 85 80 ef ff ff 	lea    -0x1080(%rbp),%rax
    efd0:	48 83 c0 08          	add    $0x8,%rax
    efd4:	48 89 85 18 fb ff ff 	mov    %rax,-0x4e8(%rbp)
    efdb:	48 c7 85 20 fb ff ff 	movq   $0x0,-0x4e0(%rbp)
    efe2:	00 00 00 00 
    efe6:	48 c7 85 28 fb ff ff 	movq   $0x0,-0x4d8(%rbp)
    efed:	00 00 00 00 
    eff1:	48 8d 85 80 ef ff ff 	lea    -0x1080(%rbp),%rax
    eff8:	48 89 85 30 fb ff ff 	mov    %rax,-0x4d0(%rbp)
    efff:	48 8d 85 80 ef ff ff 	lea    -0x1080(%rbp),%rax
    f006:	48 83 c0 20          	add    $0x20,%rax
    f00a:	48 89 85 38 fb ff ff 	mov    %rax,-0x4c8(%rbp)
    f011:	48 c7 85 40 fb ff ff 	movq   $0x0,-0x4c0(%rbp)
    f018:	00 00 00 00 
    f01c:	48 8d 85 80 ef ff ff 	lea    -0x1080(%rbp),%rax
    f023:	48 89 85 48 fb ff ff 	mov    %rax,-0x4b8(%rbp)
    f02a:	48 8d 85 80 ef ff ff 	lea    -0x1080(%rbp),%rax
    f031:	48 83 c0 38          	add    $0x38,%rax
    f035:	48 89 85 50 fb ff ff 	mov    %rax,-0x4b0(%rbp)
    f03c:	48 8d 85 80 ef ff ff 	lea    -0x1080(%rbp),%rax
    f043:	48 89 85 58 fb ff ff 	mov    %rax,-0x4a8(%rbp)
    f04a:	48 c7 85 60 fb ff ff 	movq   $0x0,-0x4a0(%rbp)
    f051:	00 00 00 00 
    f055:	48 8d 85 80 ef ff ff 	lea    -0x1080(%rbp),%rax
    f05c:	48 89 85 68 fb ff ff 	mov    %rax,-0x498(%rbp)
    f063:	48 8d 85 80 ef ff ff 	lea    -0x1080(%rbp),%rax
    f06a:	48 89 85 70 fb ff ff 	mov    %rax,-0x490(%rbp)
    f071:	48 8d 85 80 ef ff ff 	lea    -0x1080(%rbp),%rax
    f078:	48 89 85 78 fb ff ff 	mov    %rax,-0x488(%rbp)
    f07f:	48 8d 85 80 ef ff ff 	lea    -0x1080(%rbp),%rax
    f086:	48 83 c0 28          	add    $0x28,%rax
    f08a:	48 89 85 80 fb ff ff 	mov    %rax,-0x480(%rbp)
    f091:	48 8d 85 80 ef ff ff 	lea    -0x1080(%rbp),%rax
    f098:	48 83 c0 20          	add    $0x20,%rax
    f09c:	48 89 85 88 fb ff ff 	mov    %rax,-0x478(%rbp)
    f0a3:	48 8d 85 80 ef ff ff 	lea    -0x1080(%rbp),%rax
    f0aa:	48 89 85 90 fb ff ff 	mov    %rax,-0x470(%rbp)
    f0b1:	48 8d 85 80 ef ff ff 	lea    -0x1080(%rbp),%rax
    f0b8:	48 83 c0 38          	add    $0x38,%rax
    f0bc:	48 89 85 98 fb ff ff 	mov    %rax,-0x468(%rbp)
    f0c3:	48 c7 85 a0 fb ff ff 	movq   $0x0,-0x460(%rbp)
    f0ca:	00 00 00 00 
    f0ce:	48 c7 85 a8 fb ff ff 	movq   $0x0,-0x458(%rbp)
    f0d5:	00 00 00 00 
    f0d9:	48 c7 85 b0 fb ff ff 	movq   $0x0,-0x450(%rbp)
    f0e0:	00 00 00 00 
    f0e4:	48 c7 85 b8 fb ff ff 	movq   $0x0,-0x448(%rbp)
    f0eb:	00 00 00 00 
    f0ef:	48 c7 85 c0 fb ff ff 	movq   $0x0,-0x440(%rbp)
    f0f6:	00 00 00 00 
    f0fa:	48 8d 85 80 ef ff ff 	lea    -0x1080(%rbp),%rax
    f101:	48 89 85 c8 fb ff ff 	mov    %rax,-0x438(%rbp)
    f108:	48 8d 85 80 ef ff ff 	lea    -0x1080(%rbp),%rax
    f10f:	48 89 85 d0 fb ff ff 	mov    %rax,-0x430(%rbp)
    f116:	48 8d 85 80 ef ff ff 	lea    -0x1080(%rbp),%rax
    f11d:	48 89 85 d8 fb ff ff 	mov    %rax,-0x428(%rbp)
    f124:	48 c7 85 e0 fb ff ff 	movq   $0x0,-0x420(%rbp)
    f12b:	00 00 00 00 
    f12f:	48 c7 85 e8 fb ff ff 	movq   $0x0,-0x418(%rbp)
    f136:	00 00 00 00 
    f13a:	48 8d 85 80 ef ff ff 	lea    -0x1080(%rbp),%rax
    f141:	48 89 85 f0 fb ff ff 	mov    %rax,-0x410(%rbp)
    f148:	48 8d 85 80 ef ff ff 	lea    -0x1080(%rbp),%rax
    f14f:	48 83 c0 28          	add    $0x28,%rax
    f153:	48 89 85 f8 fb ff ff 	mov    %rax,-0x408(%rbp)
    f15a:	48 8d 85 80 ef ff ff 	lea    -0x1080(%rbp),%rax
    f161:	48 89 85 00 fc ff ff 	mov    %rax,-0x400(%rbp)
    f168:	48 8d 85 80 ef ff ff 	lea    -0x1080(%rbp),%rax
    f16f:	48 89 85 08 fc ff ff 	mov    %rax,-0x3f8(%rbp)
    f176:	48 8d 85 80 ef ff ff 	lea    -0x1080(%rbp),%rax
    f17d:	48 83 c0 30          	add    $0x30,%rax
    f181:	48 89 85 10 fc ff ff 	mov    %rax,-0x3f0(%rbp)
    f188:	48 8d 85 80 ef ff ff 	lea    -0x1080(%rbp),%rax
    f18f:	48 83 c0 08          	add    $0x8,%rax
    f193:	48 89 85 18 fc ff ff 	mov    %rax,-0x3e8(%rbp)
    f19a:	48 c7 85 20 fc ff ff 	movq   $0x0,-0x3e0(%rbp)
    f1a1:	00 00 00 00 
    f1a5:	48 c7 85 28 fc ff ff 	movq   $0x0,-0x3d8(%rbp)
    f1ac:	00 00 00 00 
    f1b0:	48 8d 85 80 ef ff ff 	lea    -0x1080(%rbp),%rax
    f1b7:	48 89 85 30 fc ff ff 	mov    %rax,-0x3d0(%rbp)
    f1be:	48 8d 85 80 ef ff ff 	lea    -0x1080(%rbp),%rax
    f1c5:	48 89 85 38 fc ff ff 	mov    %rax,-0x3c8(%rbp)
    f1cc:	48 c7 85 40 fc ff ff 	movq   $0x0,-0x3c0(%rbp)
    f1d3:	00 00 00 00 
    f1d7:	48 8d 85 80 ef ff ff 	lea    -0x1080(%rbp),%rax
    f1de:	48 83 c0 18          	add    $0x18,%rax
    f1e2:	48 89 85 48 fc ff ff 	mov    %rax,-0x3b8(%rbp)
    f1e9:	48 c7 85 50 fc ff ff 	movq   $0x0,-0x3b0(%rbp)
    f1f0:	00 00 00 00 
    f1f4:	48 c7 85 58 fc ff ff 	movq   $0x0,-0x3a8(%rbp)
    f1fb:	00 00 00 00 
    f1ff:	48 8d 85 80 ef ff ff 	lea    -0x1080(%rbp),%rax
    f206:	48 89 85 60 fc ff ff 	mov    %rax,-0x3a0(%rbp)
    f20d:	48 8d 85 80 ef ff ff 	lea    -0x1080(%rbp),%rax
    f214:	48 89 85 68 fc ff ff 	mov    %rax,-0x398(%rbp)
    f21b:	48 8d 85 10 f8 ff ff 	lea    -0x7f0(%rbp),%rax
    f222:	48 05 38 01 00 00    	add    $0x138,%rax
    f228:	48 89 85 58 ea ff ff 	mov    %rax,-0x15a8(%rbp)
    f22f:	48 8b 05 12 08 01 00 	mov    0x10812(%rip),%rax        # 1fa48 <g_439>
    f236:	48 8b 00             	mov    (%rax),%rax
    f239:	48 89 85 68 e9 ff ff 	mov    %rax,-0x1698(%rbp)
    f240:	c6 85 74 e8 ff ff 00 	movb   $0x0,-0x178c(%rbp)
    f247:	e9 9c 00 00 00       	jmpq   f2e8 <func_23+0x27d7>
    f24c:	48 c7 85 60 ea ff ff 	movq   $0xfffffffffffffff9,-0x15a0(%rbp)
    f253:	f9 ff ff ff 
    f257:	0f b6 85 94 e8 ff ff 	movzbl -0x176c(%rbp),%eax
    f25e:	0f b6 d0             	movzbl %al,%edx
    f261:	0f b7 85 6c e8 ff ff 	movzwl -0x1794(%rbp),%eax
    f268:	98                   	cwtl   
    f269:	89 d6                	mov    %edx,%esi
    f26b:	89 c7                	mov    %eax,%edi
    f26d:	e8 b3 bc ff ff       	callq  af25 <safe_div_func_uint32_t_u_u>
    f272:	89 c2                	mov    %eax,%edx
    f274:	48 8b 05 9d 07 01 00 	mov    0x1079d(%rip),%rax        # 1fa18 <g_267>
    f27b:	89 10                	mov    %edx,(%rax)
    f27d:	48 8b 05 cc 07 01 00 	mov    0x107cc(%rip),%rax        # 1fa50 <g_545>
    f284:	0f b7 10             	movzwl (%rax),%edx
    f287:	0f b7 05 e6 e1 00 00 	movzwl 0xe1e6(%rip),%eax        # 1d474 <g_1252>
    f28e:	66 39 c2             	cmp    %ax,%dx
    f291:	0f 94 c0             	sete   %al
    f294:	0f b6 c8             	movzbl %al,%ecx
    f297:	48 8d 05 9a 11 01 00 	lea    0x1119a(%rip),%rax        # 20438 <g_1154>
    f29e:	48 8b 00             	mov    (%rax),%rax
    f2a1:	48 8b 00             	mov    (%rax),%rax
    f2a4:	48 8b 00             	mov    (%rax),%rax
    f2a7:	8b 10                	mov    (%rax),%edx
    f2a9:	48 8d 05 88 11 01 00 	lea    0x11188(%rip),%rax        # 20438 <g_1154>
    f2b0:	48 8b 00             	mov    (%rax),%rax
    f2b3:	48 8b 00             	mov    (%rax),%rax
    f2b6:	48 8b 00             	mov    (%rax),%rax
    f2b9:	21 ca                	and    %ecx,%edx
    f2bb:	89 10                	mov    %edx,(%rax)
    f2bd:	48 8b 85 60 ea ff ff 	mov    -0x15a0(%rbp),%rax
    f2c4:	89 c2                	mov    %eax,%edx
    f2c6:	48 8b 85 80 e9 ff ff 	mov    -0x1680(%rbp),%rax
    f2cd:	89 10                	mov    %edx,(%rax)
    f2cf:	0f be 85 74 e8 ff ff 	movsbl -0x178c(%rbp),%eax
    f2d6:	be 01 00 00 00       	mov    $0x1,%esi
    f2db:	89 c7                	mov    %eax,%edi
    f2dd:	e8 d4 b2 ff ff       	callq  a5b6 <safe_add_func_int32_t_s_s>
    f2e2:	88 85 74 e8 ff ff    	mov    %al,-0x178c(%rbp)
    f2e8:	80 bd 74 e8 ff ff 06 	cmpb   $0x6,-0x178c(%rbp)
    f2ef:	0f 84 57 ff ff ff    	je     f24c <func_23+0x273b>
    f2f5:	48 8b 05 64 11 01 00 	mov    0x11164(%rip),%rax        # 20460 <g_1257>
    f2fc:	48 8b 95 58 ea ff ff 	mov    -0x15a8(%rbp),%rdx
    f303:	48 89 10             	mov    %rdx,(%rax)
    f306:	e9 e9 00 00 00       	jmpq   f3f4 <func_23+0x28e3>
    f30b:	c7 85 b4 e8 ff ff 00 	movl   $0x0,-0x174c(%rbp)
    f312:	00 00 00 
    f315:	eb 1e                	jmp    f335 <func_23+0x2824>
    f317:	8b 85 b4 e8 ff ff    	mov    -0x174c(%rbp),%eax
    f31d:	48 98                	cltq   
    f31f:	48 8d 15 52 dd 00 00 	lea    0xdd52(%rip),%rdx        # 1d078 <g_143>
    f326:	48 89 94 c5 10 f8 ff 	mov    %rdx,-0x7f0(%rbp,%rax,8)
    f32d:	ff 
    f32e:	83 85 b4 e8 ff ff 01 	addl   $0x1,-0x174c(%rbp)
    f335:	83 bd b4 e8 ff ff 06 	cmpl   $0x6,-0x174c(%rbp)
    f33c:	7e d9                	jle    f317 <func_23+0x2806>
    f33e:	c7 85 b4 e8 ff ff 00 	movl   $0x0,-0x174c(%rbp)
    f345:	00 00 00 
    f348:	eb 1e                	jmp    f368 <func_23+0x2857>
    f34a:	8b 85 b4 e8 ff ff    	mov    -0x174c(%rbp),%eax
    f350:	48 98                	cltq   
    f352:	48 8d 15 87 20 01 00 	lea    0x12087(%rip),%rdx        # 213e0 <g_1263>
    f359:	48 89 94 c5 80 ef ff 	mov    %rdx,-0x1080(%rbp,%rax,8)
    f360:	ff 
    f361:	83 85 b4 e8 ff ff 01 	addl   $0x1,-0x174c(%rbp)
    f368:	83 bd b4 e8 ff ff 03 	cmpl   $0x3,-0x174c(%rbp)
    f36f:	7e d9                	jle    f34a <func_23+0x2839>
    f371:	48 8b 85 30 f8 ff ff 	mov    -0x7d0(%rbp),%rax
    f378:	48 85 c0             	test   %rax,%rax
    f37b:	0f 94 c2             	sete   %dl
    f37e:	48 8b 05 cb 06 01 00 	mov    0x106cb(%rip),%rax        # 1fa50 <g_545>
    f385:	0f b6 d2             	movzbl %dl,%edx
    f388:	66 89 10             	mov    %dx,(%rax)
    f38b:	0f b7 00             	movzwl (%rax),%eax
    f38e:	0f b7 c0             	movzwl %ax,%eax
    f391:	f7 d0                	not    %eax
    f393:	89 c1                	mov    %eax,%ecx
    f395:	48 8b 05 d4 06 01 00 	mov    0x106d4(%rip),%rax        # 1fa70 <g_786>
    f39c:	48 8b 00             	mov    (%rax),%rax
    f39f:	0f b6 10             	movzbl (%rax),%edx
    f3a2:	48 8b 05 c7 06 01 00 	mov    0x106c7(%rip),%rax        # 1fa70 <g_786>
    f3a9:	48 8b 00             	mov    (%rax),%rax
    f3ac:	09 ca                	or     %ecx,%edx
    f3ae:	88 10                	mov    %dl,(%rax)
    f3b0:	0f b6 00             	movzbl (%rax),%eax
    f3b3:	0f be d0             	movsbl %al,%edx
    f3b6:	48 8b 05 23 20 01 00 	mov    0x12023(%rip),%rax        # 213e0 <g_1263>
    f3bd:	48 89 05 1c 20 01 00 	mov    %rax,0x1201c(%rip)        # 213e0 <g_1263>
    f3c4:	48 8b 05 15 20 01 00 	mov    0x12015(%rip),%rax        # 213e0 <g_1263>
    f3cb:	48 39 85 f0 e9 ff ff 	cmp    %rax,-0x1610(%rbp)
    f3d2:	0f 95 c0             	setne  %al
    f3d5:	0f b6 c0             	movzbl %al,%eax
    f3d8:	39 c2                	cmp    %eax,%edx
    f3da:	0f 9d c0             	setge  %al
    f3dd:	0f b6 d0             	movzbl %al,%edx
    f3e0:	48 8b 85 a8 e9 ff ff 	mov    -0x1658(%rbp),%rax
    f3e7:	8b 00                	mov    (%rax),%eax
    f3e9:	21 c2                	and    %eax,%edx
    f3eb:	48 8b 85 a8 e9 ff ff 	mov    -0x1658(%rbp),%rax
    f3f2:	89 10                	mov    %edx,(%rax)
    f3f4:	8b 85 94 e8 ff ff    	mov    -0x176c(%rbp),%eax
    f3fa:	89 c3                	mov    %eax,%ebx
    f3fc:	0f b6 85 68 e8 ff ff 	movzbl -0x1798(%rbp),%eax
    f403:	0f be d0             	movsbl %al,%edx
    f406:	48 8b 05 ab 05 01 00 	mov    0x105ab(%rip),%rax        # 1f9b8 <g_72>
    f40d:	0f b6 8d 68 e8 ff ff 	movzbl -0x1798(%rbp),%ecx
    f414:	88 08                	mov    %cl,(%rax)
    f416:	0f b6 00             	movzbl (%rax),%eax
    f419:	0f be c0             	movsbl %al,%eax
    f41c:	89 d6                	mov    %edx,%esi
    f41e:	89 c7                	mov    %eax,%edi
    f420:	e8 45 ae ff ff       	callq  a26a <safe_div_func_int8_t_s_s>
    f425:	48 0f be c0          	movsbq %al,%rax
    f429:	48 89 de             	mov    %rbx,%rsi
    f42c:	48 89 c7             	mov    %rax,%rdi
    f42f:	e8 7b bc ff ff       	callq  b0af <safe_div_func_uint64_t_u_u>
    f434:	48 83 bd 60 e8 ff ff 	cmpq   $0x0,-0x17a0(%rbp)
    f43b:	00 
    f43c:	0f 94 c2             	sete   %dl
    f43f:	0f b6 d2             	movzbl %dl,%edx
    f442:	48 39 d0             	cmp    %rdx,%rax
    f445:	72 1a                	jb     f461 <func_23+0x2950>
    f447:	0f b7 85 6c e8 ff ff 	movzwl -0x1794(%rbp),%eax
    f44e:	0f be c0             	movsbl %al,%eax
    f451:	89 c6                	mov    %eax,%esi
    f453:	bf c2 ff ff ff       	mov    $0xffffffc2,%edi
    f458:	e8 77 ad ff ff       	callq  a1d4 <safe_add_func_int8_t_s_s>
    f45d:	84 c0                	test   %al,%al
    f45f:	74 07                	je     f468 <func_23+0x2957>
    f461:	ba 01 00 00 00       	mov    $0x1,%edx
    f466:	eb 05                	jmp    f46d <func_23+0x295c>
    f468:	ba 00 00 00 00       	mov    $0x0,%edx
    f46d:	0f b7 85 6c e8 ff ff 	movzwl -0x1794(%rbp),%eax
    f474:	98                   	cwtl   
    f475:	39 c2                	cmp    %eax,%edx
    f477:	7d 07                	jge    f480 <func_23+0x296f>
    f479:	b8 01 00 00 00       	mov    $0x1,%eax
    f47e:	eb 05                	jmp    f485 <func_23+0x2974>
    f480:	b8 00 00 00 00       	mov    $0x0,%eax
    f485:	98                   	cwtl   
    f486:	be 05 00 00 00       	mov    $0x5,%esi
    f48b:	89 c7                	mov    %eax,%edi
    f48d:	e8 d1 b0 ff ff       	callq  a563 <safe_rshift_func_int16_t_s_u>
    f492:	66 85 c0             	test   %ax,%ax
    f495:	74 7b                	je     f512 <func_23+0x2a01>
    f497:	48 c7 85 58 e9 ff ff 	movq   $0x0,-0x16a8(%rbp)
    f49e:	00 00 00 00 
    f4a2:	48 8d 85 58 e9 ff ff 	lea    -0x16a8(%rbp),%rax
    f4a9:	48 89 85 80 ea ff ff 	mov    %rax,-0x1580(%rbp)
    f4b0:	c7 85 b8 e8 ff ff 00 	movl   $0x0,-0x1748(%rbp)
    f4b7:	00 00 00 
    f4ba:	eb 1b                	jmp    f4d7 <func_23+0x29c6>
    f4bc:	8b 85 b8 e8 ff ff    	mov    -0x1748(%rbp),%eax
    f4c2:	48 98                	cltq   
    f4c4:	48 c7 84 c5 10 f8 ff 	movq   $0x0,-0x7f0(%rbp,%rax,8)
    f4cb:	ff 00 00 00 00 
    f4d0:	83 85 b8 e8 ff ff 01 	addl   $0x1,-0x1748(%rbp)
    f4d7:	83 bd b8 e8 ff ff 00 	cmpl   $0x0,-0x1748(%rbp)
    f4de:	7e dc                	jle    f4bc <func_23+0x29ab>
    f4e0:	48 8b 85 80 ea ff ff 	mov    -0x1580(%rbp),%rax
    f4e7:	48 c7 00 00 00 00 00 	movq   $0x0,(%rax)
    f4ee:	48 8b 05 43 05 01 00 	mov    0x10543(%rip),%rax        # 1fa38 <g_422>
    f4f5:	48 8d 95 90 e8 ff ff 	lea    -0x1770(%rbp),%rdx
    f4fc:	48 89 10             	mov    %rdx,(%rax)
    f4ff:	8b 85 8c e8 ff ff    	mov    -0x1774(%rbp),%eax
    f505:	85 c0                	test   %eax,%eax
    f507:	0f 84 c7 00 00 00    	je     f5d4 <func_23+0x2ac3>
    f50d:	e9 4e f4 ff ff       	jmpq   e960 <func_23+0x1e4f>
    f512:	48 8d 05 f7 db 00 00 	lea    0xdbf7(%rip),%rax        # 1d110 <g_697>
    f519:	48 89 85 40 e9 ff ff 	mov    %rax,-0x16c0(%rbp)
    f520:	48 8d 85 40 e9 ff ff 	lea    -0x16c0(%rbp),%rax
    f527:	48 89 85 48 e9 ff ff 	mov    %rax,-0x16b8(%rbp)
    f52e:	48 8d 85 48 e9 ff ff 	lea    -0x16b8(%rbp),%rax
    f535:	48 89 85 50 e9 ff ff 	mov    %rax,-0x16b0(%rbp)
    f53c:	48 8d 85 50 e9 ff ff 	lea    -0x16b0(%rbp),%rax
    f543:	48 89 85 68 ea ff ff 	mov    %rax,-0x1598(%rbp)
    f54a:	48 c7 85 70 ea ff ff 	movq   $0x0,-0x1590(%rbp)
    f551:	00 00 00 00 
    f555:	48 c7 85 58 e9 ff ff 	movq   $0x0,-0x16a8(%rbp)
    f55c:	00 00 00 00 
    f560:	48 8d 85 58 e9 ff ff 	lea    -0x16a8(%rbp),%rax
    f567:	48 89 85 78 ea ff ff 	mov    %rax,-0x1588(%rbp)
    f56e:	c7 85 ac e8 ff ff 00 	movl   $0x0,-0x1754(%rbp)
    f575:	00 00 00 
    f578:	eb 1e                	jmp    f598 <func_23+0x2a87>
    f57a:	8b 85 ac e8 ff ff    	mov    -0x1754(%rbp),%eax
    f580:	48 98                	cltq   
    f582:	48 8d 15 87 04 01 00 	lea    0x10487(%rip),%rdx        # 1fa10 <g_227+0x10>
    f589:	48 89 94 c5 10 f8 ff 	mov    %rdx,-0x7f0(%rbp,%rax,8)
    f590:	ff 
    f591:	83 85 ac e8 ff ff 01 	addl   $0x1,-0x1754(%rbp)
    f598:	83 bd ac e8 ff ff 03 	cmpl   $0x3,-0x1754(%rbp)
    f59f:	7e d9                	jle    f57a <func_23+0x2a69>
    f5a1:	48 8b 95 50 e9 ff ff 	mov    -0x16b0(%rbp),%rdx
    f5a8:	48 8b 85 68 ea ff ff 	mov    -0x1598(%rbp),%rax
    f5af:	48 89 10             	mov    %rdx,(%rax)
    f5b2:	48 8b 85 68 ea ff ff 	mov    -0x1598(%rbp),%rax
    f5b9:	48 8b 10             	mov    (%rax),%rdx
    f5bc:	48 8b 85 78 ea ff ff 	mov    -0x1588(%rbp),%rax
    f5c3:	48 89 10             	mov    %rdx,(%rax)
    f5c6:	48 8d 85 30 e9 ff ff 	lea    -0x16d0(%rbp),%rax
    f5cd:	48 89 05 2c 04 01 00 	mov    %rax,0x1042c(%rip)        # 1fa00 <g_227>
    f5d4:	66 c7 05 35 db 00 00 	movw   $0x0,0xdb35(%rip)        # 1d112 <g_698>
    f5db:	00 00 
    f5dd:	e9 17 07 00 00       	jmpq   fcf9 <func_23+0x31e8>
    f5e2:	48 8d 85 10 f8 ff ff 	lea    -0x7f0(%rbp),%rax
    f5e9:	48 8d 15 b0 a1 00 00 	lea    0xa1b0(%rip),%rdx        # 197a0 <g_1504+0x73c>
    f5f0:	b9 e0 00 00 00       	mov    $0xe0,%ecx
    f5f5:	48 89 c7             	mov    %rax,%rdi
    f5f8:	48 89 d6             	mov    %rdx,%rsi
    f5fb:	f3 48 a5             	rep movsq %ds:(%rsi),%es:(%rdi)
    f5fe:	c7 85 9c e8 ff ff fd 	movl   $0xfffffffd,-0x1764(%rbp)
    f605:	ff ff ff 
    f608:	c7 85 40 e9 ff ff fb 	movl   $0x360edcfb,-0x16c0(%rbp)
    f60f:	dc 0e 36 
    f612:	c7 85 b0 e8 ff ff 00 	movl   $0x0,-0x1750(%rbp)
    f619:	00 00 00 
    f61c:	eb 46                	jmp    f664 <func_23+0x2b53>
    f61e:	c7 85 a0 e8 ff ff 00 	movl   $0x0,-0x1760(%rbp)
    f625:	00 00 00 
    f628:	eb 2a                	jmp    f654 <func_23+0x2b43>
    f62a:	8b 85 a0 e8 ff ff    	mov    -0x1760(%rbp),%eax
    f630:	48 63 d0             	movslq %eax,%rdx
    f633:	8b 85 b0 e8 ff ff    	mov    -0x1750(%rbp),%eax
    f639:	48 98                	cltq   
    f63b:	48 01 d0             	add    %rdx,%rax
    f63e:	48 8d 15 cb da 00 00 	lea    0xdacb(%rip),%rdx        # 1d110 <g_697>
    f645:	48 89 94 c5 c0 ec ff 	mov    %rdx,-0x1340(%rbp,%rax,8)
    f64c:	ff 
    f64d:	83 85 a0 e8 ff ff 01 	addl   $0x1,-0x1760(%rbp)
    f654:	83 bd a0 e8 ff ff 00 	cmpl   $0x0,-0x1760(%rbp)
    f65b:	7e cd                	jle    f62a <func_23+0x2b19>
    f65d:	83 85 b0 e8 ff ff 01 	addl   $0x1,-0x1750(%rbp)
    f664:	83 bd b0 e8 ff ff 06 	cmpl   $0x6,-0x1750(%rbp)
    f66b:	7e b1                	jle    f61e <func_23+0x2b0d>
    f66d:	8b 05 e5 d9 00 00    	mov    0xd9e5(%rip),%eax        # 1d058 <g_29+0x8>
    f673:	0f b6 c0             	movzbl %al,%eax
    f676:	be ff 00 00 00       	mov    $0xff,%esi
    f67b:	89 c7                	mov    %eax,%edi
    f67d:	e8 11 b5 ff ff       	callq  ab93 <safe_mul_func_uint8_t_u_u>
    f682:	84 c0                	test   %al,%al
    f684:	0f 84 05 06 00 00    	je     fc8f <func_23+0x317e>
    f68a:	c7 85 48 e9 ff ff 35 	movl   $0x9a48d635,-0x16b8(%rbp)
    f691:	d6 48 9a 
    f694:	48 8d 85 90 e8 ff ff 	lea    -0x1770(%rbp),%rax
    f69b:	48 89 85 88 ea ff ff 	mov    %rax,-0x1578(%rbp)
    f6a2:	48 c7 85 58 e9 ff ff 	movq   $0x0,-0x16a8(%rbp)
    f6a9:	00 00 00 00 
    f6ad:	48 8d 85 58 e9 ff ff 	lea    -0x16a8(%rbp),%rax
    f6b4:	48 89 85 90 ea ff ff 	mov    %rax,-0x1570(%rbp)
    f6bb:	c7 85 c8 e8 ff ff 00 	movl   $0x0,-0x1738(%rbp)
    f6c2:	00 00 00 
    f6c5:	83 bd c8 e8 ff ff 17 	cmpl   $0x17,-0x1738(%rbp)
    f6cc:	7e 26                	jle    f6f4 <func_23+0x2be3>
    f6ce:	48 8b 85 c0 fb ff ff 	mov    -0x440(%rbp),%rax
    f6d5:	48 85 c0             	test   %rax,%rax
    f6d8:	75 19                	jne    f6f3 <func_23+0x2be2>
    f6da:	83 bd c4 e8 ff ff 00 	cmpl   $0x0,-0x173c(%rbp)
    f6e1:	74 05                	je     f6e8 <func_23+0x2bd7>
    f6e3:	e9 78 f2 ff ff       	jmpq   e960 <func_23+0x1e4f>
    f6e8:	8b 85 48 e9 ff ff    	mov    -0x16b8(%rbp),%eax
    f6ee:	e9 fb 15 00 00       	jmpq   10cee <func_23+0x41dd>
    f6f3:	90                   	nop
    f6f4:	48 8d 05 3d 0d 01 00 	lea    0x10d3d(%rip),%rax        # 20438 <g_1154>
    f6fb:	48 8b 00             	mov    (%rax),%rax
    f6fe:	48 8b 00             	mov    (%rax),%rax
    f701:	48 8b 18             	mov    (%rax),%rbx
    f704:	0f b6 85 68 e8 ff ff 	movzbl -0x1798(%rbp),%eax
    f70b:	0f be c0             	movsbl %al,%eax
    f70e:	48 8b 95 88 ea ff ff 	mov    -0x1578(%rbp),%rdx
    f715:	8b 8d 94 e8 ff ff    	mov    -0x176c(%rbp),%ecx
    f71b:	89 0a                	mov    %ecx,(%rdx)
    f71d:	89 c6                	mov    %eax,%esi
    f71f:	bf 01 00 00 00       	mov    $0x1,%edi
    f724:	e8 51 b7 ff ff       	callq  ae7a <safe_rshift_func_uint16_t_u_u>
    f729:	41 89 c6             	mov    %eax,%r14d
    f72c:	8b 85 48 e9 ff ff    	mov    -0x16b8(%rbp),%eax
    f732:	41 89 c7             	mov    %eax,%r15d
    f735:	0f b6 85 68 e8 ff ff 	movzbl -0x1798(%rbp),%eax
    f73c:	4c 0f be e0          	movsbq %al,%r12
    f740:	44 8b ad 48 e9 ff ff 	mov    -0x16b8(%rbp),%r13d
    f747:	0f b7 85 6c e8 ff ff 	movzwl -0x1794(%rbp),%eax
    f74e:	0f bf d0             	movswl %ax,%edx
    f751:	0f b6 05 84 d9 00 00 	movzbl 0xd984(%rip),%eax        # 1d0dc <g_224>
    f758:	0f b6 c0             	movzbl %al,%eax
    f75b:	39 c2                	cmp    %eax,%edx
    f75d:	0f 9e c0             	setle  %al
    f760:	0f b6 d0             	movzbl %al,%edx
    f763:	0f b6 05 de d8 00 00 	movzbl 0xd8de(%rip),%eax        # 1d048 <g_13>
    f76a:	0f be c0             	movsbl %al,%eax
    f76d:	39 c2                	cmp    %eax,%edx
    f76f:	0f 9f c0             	setg   %al
    f772:	0f b6 c0             	movzbl %al,%eax
    f775:	89 c7                	mov    %eax,%edi
    f777:	e8 2a b7 ff ff       	callq  aea6 <safe_unary_minus_func_uint32_t_u>
    f77c:	98                   	cwtl   
    f77d:	44 89 ee             	mov    %r13d,%esi
    f780:	89 c7                	mov    %eax,%edi
    f782:	e8 0b ad ff ff       	callq  a492 <safe_lshift_func_int16_t_s_s>
    f787:	66 85 c0             	test   %ax,%ax
    f78a:	74 11                	je     f79d <func_23+0x2c8c>
    f78c:	8b 85 94 e8 ff ff    	mov    -0x176c(%rbp),%eax
    f792:	85 c0                	test   %eax,%eax
    f794:	74 07                	je     f79d <func_23+0x2c8c>
    f796:	b8 01 00 00 00       	mov    $0x1,%eax
    f79b:	eb 05                	jmp    f7a2 <func_23+0x2c91>
    f79d:	b8 00 00 00 00       	mov    $0x0,%eax
    f7a2:	48 98                	cltq   
    f7a4:	4c 89 e6             	mov    %r12,%rsi
    f7a7:	48 89 c7             	mov    %rax,%rdi
    f7aa:	e8 9c b8 ff ff       	callq  b04b <safe_sub_func_uint64_t_u_u>
    f7af:	4c 89 fe             	mov    %r15,%rsi
    f7b2:	48 89 c7             	mov    %rax,%rdi
    f7b5:	e8 ee b0 ff ff       	callq  a8a8 <safe_sub_func_int64_t_s_s>
    f7ba:	ba 58 98 39 e2       	mov    $0xe2399858,%edx
    f7bf:	48 39 d0             	cmp    %rdx,%rax
    f7c2:	0f 9e c0             	setle  %al
    f7c5:	0f b6 d0             	movzbl %al,%edx
    f7c8:	48 8b 85 60 e8 ff ff 	mov    -0x17a0(%rbp),%rax
    f7cf:	8b 00                	mov    (%rax),%eax
    f7d1:	39 c2                	cmp    %eax,%edx
    f7d3:	7e 09                	jle    f7de <func_23+0x2ccd>
    f7d5:	0f b6 85 48 e9 ff ff 	movzbl -0x16b8(%rbp),%eax
    f7dc:	84 c0                	test   %al,%al
    f7de:	0f b6 05 23 d9 00 00 	movzbl 0xd923(%rip),%eax        # 1d108 <g_671>
    f7e5:	48 0f be c0          	movsbq %al,%rax
    f7e9:	48 ba 05 87 9f 01 4b 	movabs $0xc7f34d4b019f8705,%rdx
    f7f0:	4d f3 c7 
    f7f3:	48 39 d0             	cmp    %rdx,%rax
    f7f6:	0f 96 c0             	setbe  %al
    f7f9:	0f b6 d0             	movzbl %al,%edx
    f7fc:	48 83 bd 90 ea ff ff 	cmpq   $0x0,-0x1570(%rbp)
    f803:	00 
    f804:	0f 95 c0             	setne  %al
    f807:	0f b6 c0             	movzbl %al,%eax
    f80a:	89 d6                	mov    %edx,%esi
    f80c:	89 c7                	mov    %eax,%edi
    f80e:	e8 80 b3 ff ff       	callq  ab93 <safe_mul_func_uint8_t_u_u>
    f813:	0f b6 c0             	movzbl %al,%eax
    f816:	44 31 f0             	xor    %r14d,%eax
    f819:	0f b7 c0             	movzwl %ax,%eax
    f81c:	be 02 00 00 00       	mov    $0x2,%esi
    f821:	89 c7                	mov    %eax,%edi
    f823:	e8 20 b6 ff ff       	callq  ae48 <safe_rshift_func_uint16_t_u_s>
    f828:	0f b7 d0             	movzwl %ax,%edx
    f82b:	48 8b 85 c0 fb ff ff 	mov    -0x440(%rbp),%rax
    f832:	48 39 c2             	cmp    %rax,%rdx
    f835:	0f 93 c0             	setae  %al
    f838:	0f b6 c0             	movzbl %al,%eax
    f83b:	4c 8b 25 d6 0a 01 00 	mov    0x10ad6(%rip),%r12        # 20318 <g_968>
    f842:	8b 95 98 e8 ff ff    	mov    -0x1768(%rbp),%edx
    f848:	8b b5 9c e8 ff ff    	mov    -0x1764(%rbp),%esi
    f84e:	48 89 d9             	mov    %rbx,%rcx
    f851:	89 c7                	mov    %eax,%edi
    f853:	e8 bc 14 00 00       	callq  10d14 <func_51>
    f858:	49 89 04 24          	mov    %rax,(%r12)
    f85c:	48 c7 05 b1 d8 00 00 	movq   $0x0,0xd8b1(%rip)        # 1d118 <g_756>
    f863:	00 00 00 00 
    f867:	90                   	nop
    f868:	48 8b 05 a9 d8 00 00 	mov    0xd8a9(%rip),%rax        # 1d118 <g_756>
    f86f:	48 85 c0             	test   %rax,%rax
    f872:	0f 85 05 04 00 00    	jne    fc7d <func_23+0x316c>
    f878:	c7 85 e8 e8 ff ff ff 	movl   $0xffffffff,-0x1718(%rbp)
    f87f:	ff ff ff 
    f882:	c7 85 50 e9 ff ff 0f 	movl   $0x68bf260f,-0x16b0(%rbp)
    f889:	26 bf 68 
    f88c:	c7 85 8c e8 ff ff 00 	movl   $0x0,-0x1774(%rbp)
    f893:	00 00 00 
    f896:	90                   	nop
    f897:	8b 85 8c e8 ff ff    	mov    -0x1774(%rbp),%eax
    f89d:	83 f8 02             	cmp    $0x2,%eax
    f8a0:	0f 87 cc 03 00 00    	ja     fc72 <func_23+0x3161>
    f8a6:	48 8d 85 38 e9 ff ff 	lea    -0x16c8(%rbp),%rax
    f8ad:	48 89 85 80 ef ff ff 	mov    %rax,-0x1080(%rbp)
    f8b4:	48 8d 85 38 e9 ff ff 	lea    -0x16c8(%rbp),%rax
    f8bb:	48 89 85 88 ef ff ff 	mov    %rax,-0x1078(%rbp)
    f8c2:	48 8d 85 38 e9 ff ff 	lea    -0x16c8(%rbp),%rax
    f8c9:	48 89 85 90 ef ff ff 	mov    %rax,-0x1070(%rbp)
    f8d0:	48 8d 85 38 e9 ff ff 	lea    -0x16c8(%rbp),%rax
    f8d7:	48 89 85 98 ef ff ff 	mov    %rax,-0x1068(%rbp)
    f8de:	48 8d 85 38 e9 ff ff 	lea    -0x16c8(%rbp),%rax
    f8e5:	48 89 85 a0 ef ff ff 	mov    %rax,-0x1060(%rbp)
    f8ec:	48 8d 85 38 e9 ff ff 	lea    -0x16c8(%rbp),%rax
    f8f3:	48 89 85 a8 ef ff ff 	mov    %rax,-0x1058(%rbp)
    f8fa:	48 c7 85 b0 ef ff ff 	movq   $0x0,-0x1050(%rbp)
    f901:	00 00 00 00 
    f905:	48 8d 85 38 e9 ff ff 	lea    -0x16c8(%rbp),%rax
    f90c:	48 89 85 b8 ef ff ff 	mov    %rax,-0x1048(%rbp)
    f913:	48 8d 85 38 e9 ff ff 	lea    -0x16c8(%rbp),%rax
    f91a:	48 89 85 c0 ef ff ff 	mov    %rax,-0x1040(%rbp)
    f921:	48 8d 85 38 e9 ff ff 	lea    -0x16c8(%rbp),%rax
    f928:	48 89 85 c8 ef ff ff 	mov    %rax,-0x1038(%rbp)
    f92f:	48 8d 85 38 e9 ff ff 	lea    -0x16c8(%rbp),%rax
    f936:	48 89 85 d0 ef ff ff 	mov    %rax,-0x1030(%rbp)
    f93d:	48 8d 85 38 e9 ff ff 	lea    -0x16c8(%rbp),%rax
    f944:	48 89 85 d8 ef ff ff 	mov    %rax,-0x1028(%rbp)
    f94b:	48 8d 85 38 e9 ff ff 	lea    -0x16c8(%rbp),%rax
    f952:	48 89 85 e0 ef ff ff 	mov    %rax,-0x1020(%rbp)
    f959:	48 8d 85 38 e9 ff ff 	lea    -0x16c8(%rbp),%rax
    f960:	48 89 85 e8 ef ff ff 	mov    %rax,-0x1018(%rbp)
    f967:	48 8d 85 38 e9 ff ff 	lea    -0x16c8(%rbp),%rax
    f96e:	48 89 85 f0 ef ff ff 	mov    %rax,-0x1010(%rbp)
    f975:	48 8d 85 38 e9 ff ff 	lea    -0x16c8(%rbp),%rax
    f97c:	48 89 85 f8 ef ff ff 	mov    %rax,-0x1008(%rbp)
    f983:	48 8d 85 38 e9 ff ff 	lea    -0x16c8(%rbp),%rax
    f98a:	48 89 85 00 f0 ff ff 	mov    %rax,-0x1000(%rbp)
    f991:	48 8d 85 38 e9 ff ff 	lea    -0x16c8(%rbp),%rax
    f998:	48 89 85 08 f0 ff ff 	mov    %rax,-0xff8(%rbp)
    f99f:	48 8d 85 38 e9 ff ff 	lea    -0x16c8(%rbp),%rax
    f9a6:	48 89 85 10 f0 ff ff 	mov    %rax,-0xff0(%rbp)
    f9ad:	48 8d 85 38 e9 ff ff 	lea    -0x16c8(%rbp),%rax
    f9b4:	48 89 85 18 f0 ff ff 	mov    %rax,-0xfe8(%rbp)
    f9bb:	48 c7 85 20 f0 ff ff 	movq   $0x0,-0xfe0(%rbp)
    f9c2:	00 00 00 00 
    f9c6:	48 8d 85 38 e9 ff ff 	lea    -0x16c8(%rbp),%rax
    f9cd:	48 89 85 28 f0 ff ff 	mov    %rax,-0xfd8(%rbp)
    f9d4:	48 8d 85 38 e9 ff ff 	lea    -0x16c8(%rbp),%rax
    f9db:	48 89 85 30 f0 ff ff 	mov    %rax,-0xfd0(%rbp)
    f9e2:	48 c7 85 38 f0 ff ff 	movq   $0x0,-0xfc8(%rbp)
    f9e9:	00 00 00 00 
    f9ed:	48 8d 85 38 e9 ff ff 	lea    -0x16c8(%rbp),%rax
    f9f4:	48 89 85 40 f0 ff ff 	mov    %rax,-0xfc0(%rbp)
    f9fb:	48 8d 85 38 e9 ff ff 	lea    -0x16c8(%rbp),%rax
    fa02:	48 89 85 48 f0 ff ff 	mov    %rax,-0xfb8(%rbp)
    fa09:	48 8d 85 38 e9 ff ff 	lea    -0x16c8(%rbp),%rax
    fa10:	48 89 85 50 f0 ff ff 	mov    %rax,-0xfb0(%rbp)
    fa17:	48 8d 85 38 e9 ff ff 	lea    -0x16c8(%rbp),%rax
    fa1e:	48 89 85 58 f0 ff ff 	mov    %rax,-0xfa8(%rbp)
    fa25:	48 8d 85 38 e9 ff ff 	lea    -0x16c8(%rbp),%rax
    fa2c:	48 89 85 60 f0 ff ff 	mov    %rax,-0xfa0(%rbp)
    fa33:	48 8d 85 38 e9 ff ff 	lea    -0x16c8(%rbp),%rax
    fa3a:	48 89 85 68 f0 ff ff 	mov    %rax,-0xf98(%rbp)
    fa41:	48 8d 85 38 e9 ff ff 	lea    -0x16c8(%rbp),%rax
    fa48:	48 89 85 70 f0 ff ff 	mov    %rax,-0xf90(%rbp)
    fa4f:	48 8d 85 38 e9 ff ff 	lea    -0x16c8(%rbp),%rax
    fa56:	48 89 85 78 f0 ff ff 	mov    %rax,-0xf88(%rbp)
    fa5d:	48 8d 85 38 e9 ff ff 	lea    -0x16c8(%rbp),%rax
    fa64:	48 89 85 80 f0 ff ff 	mov    %rax,-0xf80(%rbp)
    fa6b:	48 8d 85 38 e9 ff ff 	lea    -0x16c8(%rbp),%rax
    fa72:	48 89 85 88 f0 ff ff 	mov    %rax,-0xf78(%rbp)
    fa79:	48 8d 85 38 e9 ff ff 	lea    -0x16c8(%rbp),%rax
    fa80:	48 89 85 90 f0 ff ff 	mov    %rax,-0xf70(%rbp)
    fa87:	48 8d 85 38 e9 ff ff 	lea    -0x16c8(%rbp),%rax
    fa8e:	48 89 85 98 f0 ff ff 	mov    %rax,-0xf68(%rbp)
    fa95:	48 8d 85 38 e9 ff ff 	lea    -0x16c8(%rbp),%rax
    fa9c:	48 89 85 a0 f0 ff ff 	mov    %rax,-0xf60(%rbp)
    faa3:	48 8d 85 38 e9 ff ff 	lea    -0x16c8(%rbp),%rax
    faaa:	48 89 85 a8 f0 ff ff 	mov    %rax,-0xf58(%rbp)
    fab1:	48 8d 85 38 e9 ff ff 	lea    -0x16c8(%rbp),%rax
    fab8:	48 89 85 b0 f0 ff ff 	mov    %rax,-0xf50(%rbp)
    fabf:	48 8d 85 38 e9 ff ff 	lea    -0x16c8(%rbp),%rax
    fac6:	48 89 85 b8 f0 ff ff 	mov    %rax,-0xf48(%rbp)
    facd:	48 8d 85 38 e9 ff ff 	lea    -0x16c8(%rbp),%rax
    fad4:	48 89 85 c0 f0 ff ff 	mov    %rax,-0xf40(%rbp)
    fadb:	48 8d 85 38 e9 ff ff 	lea    -0x16c8(%rbp),%rax
    fae2:	48 89 85 c8 f0 ff ff 	mov    %rax,-0xf38(%rbp)
    fae9:	48 c7 85 d0 f0 ff ff 	movq   $0x0,-0xf30(%rbp)
    faf0:	00 00 00 00 
    faf4:	48 8d 85 38 e9 ff ff 	lea    -0x16c8(%rbp),%rax
    fafb:	48 89 85 d8 f0 ff ff 	mov    %rax,-0xf28(%rbp)
    fb02:	48 8d 85 38 e9 ff ff 	lea    -0x16c8(%rbp),%rax
    fb09:	48 89 85 e0 f0 ff ff 	mov    %rax,-0xf20(%rbp)
    fb10:	48 8d 85 38 e9 ff ff 	lea    -0x16c8(%rbp),%rax
    fb17:	48 89 85 e8 f0 ff ff 	mov    %rax,-0xf18(%rbp)
    fb1e:	48 8d 85 38 e9 ff ff 	lea    -0x16c8(%rbp),%rax
    fb25:	48 89 85 f0 f0 ff ff 	mov    %rax,-0xf10(%rbp)
    fb2c:	48 c7 85 f8 f0 ff ff 	movq   $0x0,-0xf08(%rbp)
    fb33:	00 00 00 00 
    fb37:	48 8d 05 9e d5 00 00 	lea    0xd59e(%rip),%rax        # 1d0dc <g_224>
    fb3e:	48 89 85 c0 eb ff ff 	mov    %rax,-0x1440(%rbp)
    fb45:	48 8d 05 90 d5 00 00 	lea    0xd590(%rip),%rax        # 1d0dc <g_224>
    fb4c:	48 89 85 c8 eb ff ff 	mov    %rax,-0x1438(%rbp)
    fb53:	48 8d 05 82 d5 00 00 	lea    0xd582(%rip),%rax        # 1d0dc <g_224>
    fb5a:	48 89 85 d0 eb ff ff 	mov    %rax,-0x1430(%rbp)
    fb61:	48 8d 05 74 d5 00 00 	lea    0xd574(%rip),%rax        # 1d0dc <g_224>
    fb68:	48 89 85 d8 eb ff ff 	mov    %rax,-0x1428(%rbp)
    fb6f:	8b 05 d3 d8 00 00    	mov    0xd8d3(%rip),%eax        # 1d448 <g_959>
    fb75:	48 63 d8             	movslq %eax,%rbx
    fb78:	48 8b 85 60 e8 ff ff 	mov    -0x17a0(%rbp),%rax
    fb7f:	44 8b 28             	mov    (%rax),%r13d
    fb82:	48 8b 85 60 e8 ff ff 	mov    -0x17a0(%rbp),%rax
    fb89:	44 8b 20             	mov    (%rax),%r12d
    fb8c:	be c5 94 f5 3c       	mov    $0x3cf594c5,%esi
    fb91:	bf 8a 8b 56 41       	mov    $0x41568b8a,%edi
    fb96:	e8 8a b3 ff ff       	callq  af25 <safe_div_func_uint32_t_u_u>
    fb9b:	89 c2                	mov    %eax,%edx
    fb9d:	48 8b 85 e0 e9 ff ff 	mov    -0x1620(%rbp),%rax
    fba4:	88 10                	mov    %dl,(%rax)
    fba6:	48 8b 85 98 e9 ff ff 	mov    -0x1668(%rbp),%rax
    fbad:	c7 00 00 00 00 00    	movl   $0x0,(%rax)
    fbb3:	48 8b 85 98 e9 ff ff 	mov    -0x1668(%rbp),%rax
    fbba:	8b 00                	mov    (%rax),%eax
    fbbc:	0b 85 e8 e8 ff ff    	or     -0x1718(%rbp),%eax
    fbc2:	44 89 e6             	mov    %r12d,%esi
    fbc5:	89 c7                	mov    %eax,%edi
    fbc7:	e8 33 ab ff ff       	callq  a6ff <safe_div_func_int32_t_s_s>
    fbcc:	41 39 c5             	cmp    %eax,%r13d
    fbcf:	0f 9c c0             	setl   %al
    fbd2:	0f b6 c0             	movzbl %al,%eax
    fbd5:	48 89 de             	mov    %rbx,%rsi
    fbd8:	48 89 c7             	mov    %rax,%rdi
    fbdb:	e8 17 ae ff ff       	callq  a9f7 <safe_div_func_int64_t_s_s>
    fbe0:	48 85 c0             	test   %rax,%rax
    fbe3:	74 12                	je     fbf7 <func_23+0x30e6>
    fbe5:	0f b6 85 94 e8 ff ff 	movzbl -0x176c(%rbp),%eax
    fbec:	84 c0                	test   %al,%al
    fbee:	74 07                	je     fbf7 <func_23+0x30e6>
    fbf0:	b8 01 00 00 00       	mov    $0x1,%eax
    fbf5:	eb 05                	jmp    fbfc <func_23+0x30eb>
    fbf7:	b8 00 00 00 00       	mov    $0x0,%eax
    fbfc:	0f b7 c0             	movzwl %ax,%eax
    fbff:	be 01 00 00 00       	mov    $0x1,%esi
    fc04:	89 c7                	mov    %eax,%edi
    fc06:	e8 14 b1 ff ff       	callq  ad1f <safe_sub_func_uint16_t_u_u>
    fc0b:	0f b7 d0             	movzwl %ax,%edx
    fc0e:	48 8b 85 38 e9 ff ff 	mov    -0x16c8(%rbp),%rax
    fc15:	48 89 85 f8 e9 ff ff 	mov    %rax,-0x1608(%rbp)
    fc1c:	48 83 bd f8 e9 ff ff 	cmpq   $0x0,-0x1608(%rbp)
    fc23:	00 
    fc24:	0f 94 c0             	sete   %al
    fc27:	0f b6 c0             	movzbl %al,%eax
    fc2a:	89 d6                	mov    %edx,%esi
    fc2c:	89 c7                	mov    %eax,%edi
    fc2e:	e8 85 b2 ff ff       	callq  aeb8 <safe_add_func_uint32_t_u_u>
    fc33:	0f b6 95 68 e8 ff ff 	movzbl -0x1798(%rbp),%edx
    fc3a:	0f be d2             	movsbl %dl,%edx
    fc3d:	39 d0                	cmp    %edx,%eax
    fc3f:	0f 94 c0             	sete   %al
    fc42:	0f b6 d0             	movzbl %al,%edx
    fc45:	8b 85 9c e8 ff ff    	mov    -0x1764(%rbp),%eax
    fc4b:	21 d0                	and    %edx,%eax
    fc4d:	89 85 9c e8 ff ff    	mov    %eax,-0x1764(%rbp)
    fc53:	8b 95 9c e8 ff ff    	mov    -0x1764(%rbp),%edx
    fc59:	8b 85 98 e8 ff ff    	mov    -0x1768(%rbp),%eax
    fc5f:	21 d0                	and    %edx,%eax
    fc61:	89 85 98 e8 ff ff    	mov    %eax,-0x1768(%rbp)
    fc67:	8b 85 40 e9 ff ff    	mov    -0x16c0(%rbp),%eax
    fc6d:	e9 7c 10 00 00       	jmpq   10cee <func_23+0x41dd>
    fc72:	8b 85 40 e9 ff ff    	mov    -0x16c0(%rbp),%eax
    fc78:	e9 71 10 00 00       	jmpq   10cee <func_23+0x41dd>
    fc7d:	48 8b 85 60 e8 ff ff 	mov    -0x17a0(%rbp),%rax
    fc84:	8b 00                	mov    (%rax),%eax
    fc86:	85 c0                	test   %eax,%eax
    fc88:	74 5e                	je     fce8 <func_23+0x31d7>
    fc8a:	e9 50 10 00 00       	jmpq   10cdf <func_23+0x41ce>
    fc8f:	48 8b 85 60 e8 ff ff 	mov    -0x17a0(%rbp),%rax
    fc96:	8b 00                	mov    (%rax),%eax
    fc98:	85 c0                	test   %eax,%eax
    fc9a:	0f 85 3b 10 00 00    	jne    10cdb <func_23+0x41ca>
    fca0:	48 8b 85 60 e8 ff ff 	mov    -0x17a0(%rbp),%rax
    fca7:	8b 00                	mov    (%rax),%eax
    fca9:	85 c0                	test   %eax,%eax
    fcab:	0f 85 2d 10 00 00    	jne    10cde <func_23+0x41cd>
    fcb1:	48 8b 05 68 fd 00 00 	mov    0xfd68(%rip),%rax        # 1fa20 <g_290>
    fcb8:	8b 00                	mov    (%rax),%eax
    fcba:	85 c0                	test   %eax,%eax
    fcbc:	75 29                	jne    fce7 <func_23+0x31d6>
    fcbe:	48 8b 85 60 e9 ff ff 	mov    -0x16a0(%rbp),%rax
    fcc5:	8b 10                	mov    (%rax),%edx
    fcc7:	48 8b 05 72 07 01 00 	mov    0x10772(%rip),%rax        # 20440 <g_1152>
    fcce:	48 8b 00             	mov    (%rax),%rax
    fcd1:	48 85 c0             	test   %rax,%rax
    fcd4:	0f 94 c0             	sete   %al
    fcd7:	0f b6 c0             	movzbl %al,%eax
    fcda:	21 c2                	and    %eax,%edx
    fcdc:	48 8b 85 60 e9 ff ff 	mov    -0x16a0(%rbp),%rax
    fce3:	89 10                	mov    %edx,(%rax)
    fce5:	eb 01                	jmp    fce8 <func_23+0x31d7>
    fce7:	90                   	nop
    fce8:	0f b7 05 23 d4 00 00 	movzwl 0xd423(%rip),%eax        # 1d112 <g_698>
    fcef:	83 c0 01             	add    $0x1,%eax
    fcf2:	66 89 05 19 d4 00 00 	mov    %ax,0xd419(%rip)        # 1d112 <g_698>
    fcf9:	0f b7 05 12 d4 00 00 	movzwl 0xd412(%rip),%eax        # 1d112 <g_698>
    fd00:	66 83 f8 19          	cmp    $0x19,%ax
    fd04:	0f 8e d8 f8 ff ff    	jle    f5e2 <func_23+0x2ad1>
    fd0a:	e9 d0 0f 00 00       	jmpq   10cdf <func_23+0x41ce>
    fd0f:	48 8d 85 08 e9 ff ff 	lea    -0x16f8(%rbp),%rax
    fd16:	48 89 85 40 e9 ff ff 	mov    %rax,-0x16c0(%rbp)
    fd1d:	c7 85 d4 e8 ff ff 45 	movl   $0xcf785d45,-0x172c(%rbp)
    fd24:	5d 78 cf 
    fd27:	c7 85 d8 e8 ff ff 0f 	movl   $0xceb9c70f,-0x1728(%rbp)
    fd2e:	c7 b9 ce 
    fd31:	48 c7 85 10 f8 ff ff 	movq   $0x0,-0x7f0(%rbp)
    fd38:	00 00 00 00 
    fd3c:	48 8d 85 8c e8 ff ff 	lea    -0x1774(%rbp),%rax
    fd43:	48 89 85 18 f8 ff ff 	mov    %rax,-0x7e8(%rbp)
    fd4a:	48 8d 05 1f d7 00 00 	lea    0xd71f(%rip),%rax        # 1d470 <g_1158>
    fd51:	48 89 85 20 f8 ff ff 	mov    %rax,-0x7e0(%rbp)
    fd58:	48 8d 05 11 d7 00 00 	lea    0xd711(%rip),%rax        # 1d470 <g_1158>
    fd5f:	48 89 85 28 f8 ff ff 	mov    %rax,-0x7d8(%rbp)
    fd66:	48 8d 05 03 d7 00 00 	lea    0xd703(%rip),%rax        # 1d470 <g_1158>
    fd6d:	48 89 85 30 f8 ff ff 	mov    %rax,-0x7d0(%rbp)
    fd74:	48 8d 85 8c e8 ff ff 	lea    -0x1774(%rbp),%rax
    fd7b:	48 89 85 38 f8 ff ff 	mov    %rax,-0x7c8(%rbp)
    fd82:	48 c7 85 40 f8 ff ff 	movq   $0x0,-0x7c0(%rbp)
    fd89:	00 00 00 00 
    fd8d:	48 8d 05 dc d6 00 00 	lea    0xd6dc(%rip),%rax        # 1d470 <g_1158>
    fd94:	48 89 85 48 f8 ff ff 	mov    %rax,-0x7b8(%rbp)
    fd9b:	48 8d 85 8c e8 ff ff 	lea    -0x1774(%rbp),%rax
    fda2:	48 89 85 50 f8 ff ff 	mov    %rax,-0x7b0(%rbp)
    fda9:	48 8d 05 c0 d6 00 00 	lea    0xd6c0(%rip),%rax        # 1d470 <g_1158>
    fdb0:	48 89 85 58 f8 ff ff 	mov    %rax,-0x7a8(%rbp)
    fdb7:	48 8d 85 8c e8 ff ff 	lea    -0x1774(%rbp),%rax
    fdbe:	48 89 85 60 f8 ff ff 	mov    %rax,-0x7a0(%rbp)
    fdc5:	48 8d 05 a4 d6 00 00 	lea    0xd6a4(%rip),%rax        # 1d470 <g_1158>
    fdcc:	48 89 85 68 f8 ff ff 	mov    %rax,-0x798(%rbp)
    fdd3:	48 8d 85 8c e8 ff ff 	lea    -0x1774(%rbp),%rax
    fdda:	48 89 85 70 f8 ff ff 	mov    %rax,-0x790(%rbp)
    fde1:	48 8d 05 88 d6 00 00 	lea    0xd688(%rip),%rax        # 1d470 <g_1158>
    fde8:	48 89 85 78 f8 ff ff 	mov    %rax,-0x788(%rbp)
    fdef:	48 c7 85 80 f8 ff ff 	movq   $0x0,-0x780(%rbp)
    fdf6:	00 00 00 00 
    fdfa:	48 8d 85 8c e8 ff ff 	lea    -0x1774(%rbp),%rax
    fe01:	48 89 85 88 f8 ff ff 	mov    %rax,-0x778(%rbp)
    fe08:	48 8d 85 8c e8 ff ff 	lea    -0x1774(%rbp),%rax
    fe0f:	48 89 85 90 f8 ff ff 	mov    %rax,-0x770(%rbp)
    fe16:	48 8d 85 8c e8 ff ff 	lea    -0x1774(%rbp),%rax
    fe1d:	48 89 85 98 f8 ff ff 	mov    %rax,-0x768(%rbp)
    fe24:	48 8d 85 8c e8 ff ff 	lea    -0x1774(%rbp),%rax
    fe2b:	48 89 85 a0 f8 ff ff 	mov    %rax,-0x760(%rbp)
    fe32:	48 8d 05 37 d6 00 00 	lea    0xd637(%rip),%rax        # 1d470 <g_1158>
    fe39:	48 89 85 a8 f8 ff ff 	mov    %rax,-0x758(%rbp)
    fe40:	48 8d 05 29 d6 00 00 	lea    0xd629(%rip),%rax        # 1d470 <g_1158>
    fe47:	48 89 85 b0 f8 ff ff 	mov    %rax,-0x750(%rbp)
    fe4e:	48 8d 85 8c e8 ff ff 	lea    -0x1774(%rbp),%rax
    fe55:	48 89 85 b8 f8 ff ff 	mov    %rax,-0x748(%rbp)
    fe5c:	48 c7 85 c0 f8 ff ff 	movq   $0x0,-0x740(%rbp)
    fe63:	00 00 00 00 
    fe67:	48 8d 85 8c e8 ff ff 	lea    -0x1774(%rbp),%rax
    fe6e:	48 89 85 c8 f8 ff ff 	mov    %rax,-0x738(%rbp)
    fe75:	48 c7 85 d0 f8 ff ff 	movq   $0x0,-0x730(%rbp)
    fe7c:	00 00 00 00 
    fe80:	48 8d 05 e9 d5 00 00 	lea    0xd5e9(%rip),%rax        # 1d470 <g_1158>
    fe87:	48 89 85 d8 f8 ff ff 	mov    %rax,-0x728(%rbp)
    fe8e:	48 8d 85 8c e8 ff ff 	lea    -0x1774(%rbp),%rax
    fe95:	48 89 85 e0 f8 ff ff 	mov    %rax,-0x720(%rbp)
    fe9c:	48 8d 05 cd d5 00 00 	lea    0xd5cd(%rip),%rax        # 1d470 <g_1158>
    fea3:	48 89 85 e8 f8 ff ff 	mov    %rax,-0x718(%rbp)
    feaa:	48 8d 85 8c e8 ff ff 	lea    -0x1774(%rbp),%rax
    feb1:	48 89 85 f0 f8 ff ff 	mov    %rax,-0x710(%rbp)
    feb8:	48 8d 05 b1 d5 00 00 	lea    0xd5b1(%rip),%rax        # 1d470 <g_1158>
    febf:	48 89 85 f8 f8 ff ff 	mov    %rax,-0x708(%rbp)
    fec6:	48 8d 85 8c e8 ff ff 	lea    -0x1774(%rbp),%rax
    fecd:	48 89 85 00 f9 ff ff 	mov    %rax,-0x700(%rbp)
    fed4:	48 8d 85 8c e8 ff ff 	lea    -0x1774(%rbp),%rax
    fedb:	48 89 85 08 f9 ff ff 	mov    %rax,-0x6f8(%rbp)
    fee2:	48 8d 05 87 d5 00 00 	lea    0xd587(%rip),%rax        # 1d470 <g_1158>
    fee9:	48 89 85 10 f9 ff ff 	mov    %rax,-0x6f0(%rbp)
    fef0:	48 8d 05 79 d5 00 00 	lea    0xd579(%rip),%rax        # 1d470 <g_1158>
    fef7:	48 89 85 18 f9 ff ff 	mov    %rax,-0x6e8(%rbp)
    fefe:	48 8d 85 8c e8 ff ff 	lea    -0x1774(%rbp),%rax
    ff05:	48 89 85 20 f9 ff ff 	mov    %rax,-0x6e0(%rbp)
    ff0c:	48 8d 05 5d d5 00 00 	lea    0xd55d(%rip),%rax        # 1d470 <g_1158>
    ff13:	48 89 85 28 f9 ff ff 	mov    %rax,-0x6d8(%rbp)
    ff1a:	48 c7 85 30 f9 ff ff 	movq   $0x0,-0x6d0(%rbp)
    ff21:	00 00 00 00 
    ff25:	48 8d 05 44 d5 00 00 	lea    0xd544(%rip),%rax        # 1d470 <g_1158>
    ff2c:	48 89 85 38 f9 ff ff 	mov    %rax,-0x6c8(%rbp)
    ff33:	48 8d 85 8c e8 ff ff 	lea    -0x1774(%rbp),%rax
    ff3a:	48 89 85 40 f9 ff ff 	mov    %rax,-0x6c0(%rbp)
    ff41:	48 c7 85 48 f9 ff ff 	movq   $0x0,-0x6b8(%rbp)
    ff48:	00 00 00 00 
    ff4c:	48 8d 05 1d d5 00 00 	lea    0xd51d(%rip),%rax        # 1d470 <g_1158>
    ff53:	48 89 85 50 f9 ff ff 	mov    %rax,-0x6b0(%rbp)
    ff5a:	48 8d 85 8c e8 ff ff 	lea    -0x1774(%rbp),%rax
    ff61:	48 89 85 58 f9 ff ff 	mov    %rax,-0x6a8(%rbp)
    ff68:	48 c7 85 60 f9 ff ff 	movq   $0x0,-0x6a0(%rbp)
    ff6f:	00 00 00 00 
    ff73:	48 c7 85 68 f9 ff ff 	movq   $0x0,-0x698(%rbp)
    ff7a:	00 00 00 00 
    ff7e:	48 8d 85 8c e8 ff ff 	lea    -0x1774(%rbp),%rax
    ff85:	48 89 85 70 f9 ff ff 	mov    %rax,-0x690(%rbp)
    ff8c:	48 8d 85 8c e8 ff ff 	lea    -0x1774(%rbp),%rax
    ff93:	48 89 85 78 f9 ff ff 	mov    %rax,-0x688(%rbp)
    ff9a:	48 8d 05 cf d4 00 00 	lea    0xd4cf(%rip),%rax        # 1d470 <g_1158>
    ffa1:	48 89 85 80 f9 ff ff 	mov    %rax,-0x680(%rbp)
    ffa8:	48 c7 85 88 f9 ff ff 	movq   $0x0,-0x678(%rbp)
    ffaf:	00 00 00 00 
    ffb3:	48 8d 85 8c e8 ff ff 	lea    -0x1774(%rbp),%rax
    ffba:	48 89 85 90 f9 ff ff 	mov    %rax,-0x670(%rbp)
    ffc1:	48 c7 85 98 f9 ff ff 	movq   $0x0,-0x668(%rbp)
    ffc8:	00 00 00 00 
    ffcc:	48 8d 85 8c e8 ff ff 	lea    -0x1774(%rbp),%rax
    ffd3:	48 89 85 a0 f9 ff ff 	mov    %rax,-0x660(%rbp)
    ffda:	48 8d 05 8f d4 00 00 	lea    0xd48f(%rip),%rax        # 1d470 <g_1158>
    ffe1:	48 89 85 a8 f9 ff ff 	mov    %rax,-0x658(%rbp)
    ffe8:	48 8d 05 81 d4 00 00 	lea    0xd481(%rip),%rax        # 1d470 <g_1158>
    ffef:	48 89 85 b0 f9 ff ff 	mov    %rax,-0x650(%rbp)
    fff6:	48 8d 85 8c e8 ff ff 	lea    -0x1774(%rbp),%rax
    fffd:	48 89 85 b8 f9 ff ff 	mov    %rax,-0x648(%rbp)
   10004:	48 8d 85 8c e8 ff ff 	lea    -0x1774(%rbp),%rax
   1000b:	48 89 85 c0 f9 ff ff 	mov    %rax,-0x640(%rbp)
   10012:	48 c7 85 c8 f9 ff ff 	movq   $0x0,-0x638(%rbp)
   10019:	00 00 00 00 
   1001d:	48 8d 85 8c e8 ff ff 	lea    -0x1774(%rbp),%rax
   10024:	48 89 85 d0 f9 ff ff 	mov    %rax,-0x630(%rbp)
   1002b:	48 8d 05 3e d4 00 00 	lea    0xd43e(%rip),%rax        # 1d470 <g_1158>
   10032:	48 89 85 d8 f9 ff ff 	mov    %rax,-0x628(%rbp)
   10039:	48 8d 05 30 d4 00 00 	lea    0xd430(%rip),%rax        # 1d470 <g_1158>
   10040:	48 89 85 e0 f9 ff ff 	mov    %rax,-0x620(%rbp)
   10047:	48 8d 85 8c e8 ff ff 	lea    -0x1774(%rbp),%rax
   1004e:	48 89 85 e8 f9 ff ff 	mov    %rax,-0x618(%rbp)
   10055:	48 c7 85 f0 f9 ff ff 	movq   $0x0,-0x610(%rbp)
   1005c:	00 00 00 00 
   10060:	48 8d 85 8c e8 ff ff 	lea    -0x1774(%rbp),%rax
   10067:	48 89 85 f8 f9 ff ff 	mov    %rax,-0x608(%rbp)
   1006e:	48 8d 85 8c e8 ff ff 	lea    -0x1774(%rbp),%rax
   10075:	48 89 85 00 fa ff ff 	mov    %rax,-0x600(%rbp)
   1007c:	48 8d 85 8c e8 ff ff 	lea    -0x1774(%rbp),%rax
   10083:	48 89 85 08 fa ff ff 	mov    %rax,-0x5f8(%rbp)
   1008a:	48 c7 85 10 fa ff ff 	movq   $0x0,-0x5f0(%rbp)
   10091:	00 00 00 00 
   10095:	48 c7 85 18 fa ff ff 	movq   $0x0,-0x5e8(%rbp)
   1009c:	00 00 00 00 
   100a0:	48 c7 85 20 fa ff ff 	movq   $0x0,-0x5e0(%rbp)
   100a7:	00 00 00 00 
   100ab:	48 c7 85 28 fa ff ff 	movq   $0x0,-0x5d8(%rbp)
   100b2:	00 00 00 00 
   100b6:	48 8d 05 b3 d3 00 00 	lea    0xd3b3(%rip),%rax        # 1d470 <g_1158>
   100bd:	48 89 85 30 fa ff ff 	mov    %rax,-0x5d0(%rbp)
   100c4:	48 8d 85 8c e8 ff ff 	lea    -0x1774(%rbp),%rax
   100cb:	48 89 85 38 fa ff ff 	mov    %rax,-0x5c8(%rbp)
   100d2:	48 c7 85 40 fa ff ff 	movq   $0x0,-0x5c0(%rbp)
   100d9:	00 00 00 00 
   100dd:	48 8d 05 8c d3 00 00 	lea    0xd38c(%rip),%rax        # 1d470 <g_1158>
   100e4:	48 89 85 48 fa ff ff 	mov    %rax,-0x5b8(%rbp)
   100eb:	48 8d 05 7e d3 00 00 	lea    0xd37e(%rip),%rax        # 1d470 <g_1158>
   100f2:	48 89 85 50 fa ff ff 	mov    %rax,-0x5b0(%rbp)
   100f9:	48 8d 05 70 d3 00 00 	lea    0xd370(%rip),%rax        # 1d470 <g_1158>
   10100:	48 89 85 58 fa ff ff 	mov    %rax,-0x5a8(%rbp)
   10107:	48 8d 85 8c e8 ff ff 	lea    -0x1774(%rbp),%rax
   1010e:	48 89 85 60 fa ff ff 	mov    %rax,-0x5a0(%rbp)
   10115:	48 8d 85 8c e8 ff ff 	lea    -0x1774(%rbp),%rax
   1011c:	48 89 85 68 fa ff ff 	mov    %rax,-0x598(%rbp)
   10123:	48 8d 05 46 d3 00 00 	lea    0xd346(%rip),%rax        # 1d470 <g_1158>
   1012a:	48 89 85 70 fa ff ff 	mov    %rax,-0x590(%rbp)
   10131:	48 8d 05 38 d3 00 00 	lea    0xd338(%rip),%rax        # 1d470 <g_1158>
   10138:	48 89 85 78 fa ff ff 	mov    %rax,-0x588(%rbp)
   1013f:	48 c7 85 80 fa ff ff 	movq   $0x0,-0x580(%rbp)
   10146:	00 00 00 00 
   1014a:	48 8d 85 8c e8 ff ff 	lea    -0x1774(%rbp),%rax
   10151:	48 89 85 88 fa ff ff 	mov    %rax,-0x578(%rbp)
   10158:	48 8d 85 8c e8 ff ff 	lea    -0x1774(%rbp),%rax
   1015f:	48 89 85 90 fa ff ff 	mov    %rax,-0x570(%rbp)
   10166:	48 c7 85 98 fa ff ff 	movq   $0x0,-0x568(%rbp)
   1016d:	00 00 00 00 
   10171:	48 8d 85 8c e8 ff ff 	lea    -0x1774(%rbp),%rax
   10178:	48 89 85 a0 fa ff ff 	mov    %rax,-0x560(%rbp)
   1017f:	48 8d 05 ea d2 00 00 	lea    0xd2ea(%rip),%rax        # 1d470 <g_1158>
   10186:	48 89 85 a8 fa ff ff 	mov    %rax,-0x558(%rbp)
   1018d:	48 8d 85 8c e8 ff ff 	lea    -0x1774(%rbp),%rax
   10194:	48 89 85 b0 fa ff ff 	mov    %rax,-0x550(%rbp)
   1019b:	48 8d 85 8c e8 ff ff 	lea    -0x1774(%rbp),%rax
   101a2:	48 89 85 b8 fa ff ff 	mov    %rax,-0x548(%rbp)
   101a9:	48 8d 05 c0 d2 00 00 	lea    0xd2c0(%rip),%rax        # 1d470 <g_1158>
   101b0:	48 89 85 c0 fa ff ff 	mov    %rax,-0x540(%rbp)
   101b7:	48 8d 85 8c e8 ff ff 	lea    -0x1774(%rbp),%rax
   101be:	48 89 85 c8 fa ff ff 	mov    %rax,-0x538(%rbp)
   101c5:	48 8d 05 a4 d2 00 00 	lea    0xd2a4(%rip),%rax        # 1d470 <g_1158>
   101cc:	48 89 85 d0 fa ff ff 	mov    %rax,-0x530(%rbp)
   101d3:	48 8d 85 8c e8 ff ff 	lea    -0x1774(%rbp),%rax
   101da:	48 89 85 d8 fa ff ff 	mov    %rax,-0x528(%rbp)
   101e1:	48 8d 05 88 d2 00 00 	lea    0xd288(%rip),%rax        # 1d470 <g_1158>
   101e8:	48 89 85 e0 fa ff ff 	mov    %rax,-0x520(%rbp)
   101ef:	48 c7 85 e8 fa ff ff 	movq   $0x0,-0x518(%rbp)
   101f6:	00 00 00 00 
   101fa:	48 8d 05 6f d2 00 00 	lea    0xd26f(%rip),%rax        # 1d470 <g_1158>
   10201:	48 89 85 f0 fa ff ff 	mov    %rax,-0x510(%rbp)
   10208:	48 c7 85 f8 fa ff ff 	movq   $0x0,-0x508(%rbp)
   1020f:	00 00 00 00 
   10213:	48 8d 85 8c e8 ff ff 	lea    -0x1774(%rbp),%rax
   1021a:	48 89 85 00 fb ff ff 	mov    %rax,-0x500(%rbp)
   10221:	48 c7 85 08 fb ff ff 	movq   $0x0,-0x4f8(%rbp)
   10228:	00 00 00 00 
   1022c:	48 8d 05 3d d2 00 00 	lea    0xd23d(%rip),%rax        # 1d470 <g_1158>
   10233:	48 89 85 10 fb ff ff 	mov    %rax,-0x4f0(%rbp)
   1023a:	48 c7 85 18 fb ff ff 	movq   $0x0,-0x4e8(%rbp)
   10241:	00 00 00 00 
   10245:	48 8d 85 8c e8 ff ff 	lea    -0x1774(%rbp),%rax
   1024c:	48 89 85 20 fb ff ff 	mov    %rax,-0x4e0(%rbp)
   10253:	48 8d 85 8c e8 ff ff 	lea    -0x1774(%rbp),%rax
   1025a:	48 89 85 28 fb ff ff 	mov    %rax,-0x4d8(%rbp)
   10261:	48 8d 05 08 d2 00 00 	lea    0xd208(%rip),%rax        # 1d470 <g_1158>
   10268:	48 89 85 30 fb ff ff 	mov    %rax,-0x4d0(%rbp)
   1026f:	48 8d 85 8c e8 ff ff 	lea    -0x1774(%rbp),%rax
   10276:	48 89 85 38 fb ff ff 	mov    %rax,-0x4c8(%rbp)
   1027d:	48 8d 05 ec d1 00 00 	lea    0xd1ec(%rip),%rax        # 1d470 <g_1158>
   10284:	48 89 85 40 fb ff ff 	mov    %rax,-0x4c0(%rbp)
   1028b:	48 8d 05 de d1 00 00 	lea    0xd1de(%rip),%rax        # 1d470 <g_1158>
   10292:	48 89 85 48 fb ff ff 	mov    %rax,-0x4b8(%rbp)
   10299:	48 8d 05 d0 d1 00 00 	lea    0xd1d0(%rip),%rax        # 1d470 <g_1158>
   102a0:	48 89 85 50 fb ff ff 	mov    %rax,-0x4b0(%rbp)
   102a7:	48 8d 05 c2 d1 00 00 	lea    0xd1c2(%rip),%rax        # 1d470 <g_1158>
   102ae:	48 89 85 58 fb ff ff 	mov    %rax,-0x4a8(%rbp)
   102b5:	48 c7 85 60 fb ff ff 	movq   $0x0,-0x4a0(%rbp)
   102bc:	00 00 00 00 
   102c0:	48 8d 05 a9 d1 00 00 	lea    0xd1a9(%rip),%rax        # 1d470 <g_1158>
   102c7:	48 89 85 68 fb ff ff 	mov    %rax,-0x498(%rbp)
   102ce:	48 8d 85 8c e8 ff ff 	lea    -0x1774(%rbp),%rax
   102d5:	48 89 85 70 fb ff ff 	mov    %rax,-0x490(%rbp)
   102dc:	48 8d 85 8c e8 ff ff 	lea    -0x1774(%rbp),%rax
   102e3:	48 89 85 78 fb ff ff 	mov    %rax,-0x488(%rbp)
   102ea:	48 8d 05 7f d1 00 00 	lea    0xd17f(%rip),%rax        # 1d470 <g_1158>
   102f1:	48 89 85 80 fb ff ff 	mov    %rax,-0x480(%rbp)
   102f8:	48 c7 85 88 fb ff ff 	movq   $0x0,-0x478(%rbp)
   102ff:	00 00 00 00 
   10303:	48 c7 85 90 fb ff ff 	movq   $0x0,-0x470(%rbp)
   1030a:	00 00 00 00 
   1030e:	48 c7 85 98 fb ff ff 	movq   $0x0,-0x468(%rbp)
   10315:	00 00 00 00 
   10319:	48 8d 05 50 d1 00 00 	lea    0xd150(%rip),%rax        # 1d470 <g_1158>
   10320:	48 89 85 a0 fb ff ff 	mov    %rax,-0x460(%rbp)
   10327:	48 8d 85 8c e8 ff ff 	lea    -0x1774(%rbp),%rax
   1032e:	48 89 85 a8 fb ff ff 	mov    %rax,-0x458(%rbp)
   10335:	48 8d 85 8c e8 ff ff 	lea    -0x1774(%rbp),%rax
   1033c:	48 89 85 b0 fb ff ff 	mov    %rax,-0x450(%rbp)
   10343:	48 8d 85 8c e8 ff ff 	lea    -0x1774(%rbp),%rax
   1034a:	48 89 85 b8 fb ff ff 	mov    %rax,-0x448(%rbp)
   10351:	48 c7 85 c0 fb ff ff 	movq   $0x0,-0x440(%rbp)
   10358:	00 00 00 00 
   1035c:	48 8d 05 0d d1 00 00 	lea    0xd10d(%rip),%rax        # 1d470 <g_1158>
   10363:	48 89 85 c8 fb ff ff 	mov    %rax,-0x438(%rbp)
   1036a:	48 8d 85 8c e8 ff ff 	lea    -0x1774(%rbp),%rax
   10371:	48 89 85 d0 fb ff ff 	mov    %rax,-0x430(%rbp)
   10378:	48 c7 85 d8 fb ff ff 	movq   $0x0,-0x428(%rbp)
   1037f:	00 00 00 00 
   10383:	48 8d 85 8c e8 ff ff 	lea    -0x1774(%rbp),%rax
   1038a:	48 89 85 e0 fb ff ff 	mov    %rax,-0x420(%rbp)
   10391:	48 8d 05 d8 d0 00 00 	lea    0xd0d8(%rip),%rax        # 1d470 <g_1158>
   10398:	48 89 85 e8 fb ff ff 	mov    %rax,-0x418(%rbp)
   1039f:	48 8d 85 8c e8 ff ff 	lea    -0x1774(%rbp),%rax
   103a6:	48 89 85 f0 fb ff ff 	mov    %rax,-0x410(%rbp)
   103ad:	48 8d 05 bc d0 00 00 	lea    0xd0bc(%rip),%rax        # 1d470 <g_1158>
   103b4:	48 89 85 f8 fb ff ff 	mov    %rax,-0x408(%rbp)
   103bb:	48 c7 85 00 fc ff ff 	movq   $0x0,-0x400(%rbp)
   103c2:	00 00 00 00 
   103c6:	48 8d 05 a3 d0 00 00 	lea    0xd0a3(%rip),%rax        # 1d470 <g_1158>
   103cd:	48 89 85 08 fc ff ff 	mov    %rax,-0x3f8(%rbp)
   103d4:	48 c7 85 10 fc ff ff 	movq   $0x0,-0x3f0(%rbp)
   103db:	00 00 00 00 
   103df:	48 8d 85 8c e8 ff ff 	lea    -0x1774(%rbp),%rax
   103e6:	48 89 85 18 fc ff ff 	mov    %rax,-0x3e8(%rbp)
   103ed:	48 c7 85 20 fc ff ff 	movq   $0x0,-0x3e0(%rbp)
   103f4:	00 00 00 00 
   103f8:	48 c7 85 28 fc ff ff 	movq   $0x0,-0x3d8(%rbp)
   103ff:	00 00 00 00 
   10403:	48 8d 05 66 d0 00 00 	lea    0xd066(%rip),%rax        # 1d470 <g_1158>
   1040a:	48 89 85 30 fc ff ff 	mov    %rax,-0x3d0(%rbp)
   10411:	48 8d 85 8c e8 ff ff 	lea    -0x1774(%rbp),%rax
   10418:	48 89 85 38 fc ff ff 	mov    %rax,-0x3c8(%rbp)
   1041f:	48 8d 05 4a d0 00 00 	lea    0xd04a(%rip),%rax        # 1d470 <g_1158>
   10426:	48 89 85 40 fc ff ff 	mov    %rax,-0x3c0(%rbp)
   1042d:	48 8d 85 8c e8 ff ff 	lea    -0x1774(%rbp),%rax
   10434:	48 89 85 48 fc ff ff 	mov    %rax,-0x3b8(%rbp)
   1043b:	48 c7 85 50 fc ff ff 	movq   $0x0,-0x3b0(%rbp)
   10442:	00 00 00 00 
   10446:	48 8d 05 23 d0 00 00 	lea    0xd023(%rip),%rax        # 1d470 <g_1158>
   1044d:	48 89 85 58 fc ff ff 	mov    %rax,-0x3a8(%rbp)
   10454:	48 8d 85 8c e8 ff ff 	lea    -0x1774(%rbp),%rax
   1045b:	48 89 85 60 fc ff ff 	mov    %rax,-0x3a0(%rbp)
   10462:	48 c7 85 68 fc ff ff 	movq   $0x0,-0x398(%rbp)
   10469:	00 00 00 00 
   1046d:	48 8d 85 8c e8 ff ff 	lea    -0x1774(%rbp),%rax
   10474:	48 89 85 70 fc ff ff 	mov    %rax,-0x390(%rbp)
   1047b:	48 8d 05 ee cf 00 00 	lea    0xcfee(%rip),%rax        # 1d470 <g_1158>
   10482:	48 89 85 78 fc ff ff 	mov    %rax,-0x388(%rbp)
   10489:	48 8d 05 e0 cf 00 00 	lea    0xcfe0(%rip),%rax        # 1d470 <g_1158>
   10490:	48 89 85 80 fc ff ff 	mov    %rax,-0x380(%rbp)
   10497:	48 8d 85 8c e8 ff ff 	lea    -0x1774(%rbp),%rax
   1049e:	48 89 85 88 fc ff ff 	mov    %rax,-0x378(%rbp)
   104a5:	48 8d 85 8c e8 ff ff 	lea    -0x1774(%rbp),%rax
   104ac:	48 89 85 90 fc ff ff 	mov    %rax,-0x370(%rbp)
   104b3:	48 8d 85 8c e8 ff ff 	lea    -0x1774(%rbp),%rax
   104ba:	48 89 85 98 fc ff ff 	mov    %rax,-0x368(%rbp)
   104c1:	48 8d 85 8c e8 ff ff 	lea    -0x1774(%rbp),%rax
   104c8:	48 89 85 a0 fc ff ff 	mov    %rax,-0x360(%rbp)
   104cf:	48 c7 85 a8 fc ff ff 	movq   $0x0,-0x358(%rbp)
   104d6:	00 00 00 00 
   104da:	48 8d 85 8c e8 ff ff 	lea    -0x1774(%rbp),%rax
   104e1:	48 89 85 b0 fc ff ff 	mov    %rax,-0x350(%rbp)
   104e8:	48 8d 85 8c e8 ff ff 	lea    -0x1774(%rbp),%rax
   104ef:	48 89 85 b8 fc ff ff 	mov    %rax,-0x348(%rbp)
   104f6:	48 c7 85 c0 fc ff ff 	movq   $0x0,-0x340(%rbp)
   104fd:	00 00 00 00 
   10501:	48 8d 05 68 cf 00 00 	lea    0xcf68(%rip),%rax        # 1d470 <g_1158>
   10508:	48 89 85 c8 fc ff ff 	mov    %rax,-0x338(%rbp)
   1050f:	48 8d 85 8c e8 ff ff 	lea    -0x1774(%rbp),%rax
   10516:	48 89 85 d0 fc ff ff 	mov    %rax,-0x330(%rbp)
   1051d:	48 8d 85 8c e8 ff ff 	lea    -0x1774(%rbp),%rax
   10524:	48 89 85 d8 fc ff ff 	mov    %rax,-0x328(%rbp)
   1052b:	48 8d 05 3e cf 00 00 	lea    0xcf3e(%rip),%rax        # 1d470 <g_1158>
   10532:	48 89 85 e0 fc ff ff 	mov    %rax,-0x320(%rbp)
   10539:	48 8d 05 30 cf 00 00 	lea    0xcf30(%rip),%rax        # 1d470 <g_1158>
   10540:	48 89 85 e8 fc ff ff 	mov    %rax,-0x318(%rbp)
   10547:	48 8d 85 8c e8 ff ff 	lea    -0x1774(%rbp),%rax
   1054e:	48 89 85 f0 fc ff ff 	mov    %rax,-0x310(%rbp)
   10555:	48 c7 85 f8 fc ff ff 	movq   $0x0,-0x308(%rbp)
   1055c:	00 00 00 00 
   10560:	48 8d 05 09 cf 00 00 	lea    0xcf09(%rip),%rax        # 1d470 <g_1158>
   10567:	48 89 85 00 fd ff ff 	mov    %rax,-0x300(%rbp)
   1056e:	48 8d 05 fb ce 00 00 	lea    0xcefb(%rip),%rax        # 1d470 <g_1158>
   10575:	48 89 85 08 fd ff ff 	mov    %rax,-0x2f8(%rbp)
   1057c:	48 c7 85 10 fd ff ff 	movq   $0x0,-0x2f0(%rbp)
   10583:	00 00 00 00 
   10587:	48 8d 05 e2 ce 00 00 	lea    0xcee2(%rip),%rax        # 1d470 <g_1158>
   1058e:	48 89 85 18 fd ff ff 	mov    %rax,-0x2e8(%rbp)
   10595:	48 8d 05 d4 ce 00 00 	lea    0xced4(%rip),%rax        # 1d470 <g_1158>
   1059c:	48 89 85 20 fd ff ff 	mov    %rax,-0x2e0(%rbp)
   105a3:	48 c7 85 28 fd ff ff 	movq   $0x0,-0x2d8(%rbp)
   105aa:	00 00 00 00 
   105ae:	48 c7 85 30 fd ff ff 	movq   $0x0,-0x2d0(%rbp)
   105b5:	00 00 00 00 
   105b9:	48 8d 05 b0 ce 00 00 	lea    0xceb0(%rip),%rax        # 1d470 <g_1158>
   105c0:	48 89 85 38 fd ff ff 	mov    %rax,-0x2c8(%rbp)
   105c7:	48 8d 05 a2 ce 00 00 	lea    0xcea2(%rip),%rax        # 1d470 <g_1158>
   105ce:	48 89 85 40 fd ff ff 	mov    %rax,-0x2c0(%rbp)
   105d5:	48 8d 05 94 ce 00 00 	lea    0xce94(%rip),%rax        # 1d470 <g_1158>
   105dc:	48 89 85 48 fd ff ff 	mov    %rax,-0x2b8(%rbp)
   105e3:	48 8d 05 86 ce 00 00 	lea    0xce86(%rip),%rax        # 1d470 <g_1158>
   105ea:	48 89 85 50 fd ff ff 	mov    %rax,-0x2b0(%rbp)
   105f1:	48 c7 85 58 fd ff ff 	movq   $0x0,-0x2a8(%rbp)
   105f8:	00 00 00 00 
   105fc:	48 c7 85 60 fd ff ff 	movq   $0x0,-0x2a0(%rbp)
   10603:	00 00 00 00 
   10607:	48 c7 85 68 fd ff ff 	movq   $0x0,-0x298(%rbp)
   1060e:	00 00 00 00 
   10612:	48 8d 05 57 ce 00 00 	lea    0xce57(%rip),%rax        # 1d470 <g_1158>
   10619:	48 89 85 70 fd ff ff 	mov    %rax,-0x290(%rbp)
   10620:	48 8d 85 8c e8 ff ff 	lea    -0x1774(%rbp),%rax
   10627:	48 89 85 78 fd ff ff 	mov    %rax,-0x288(%rbp)
   1062e:	48 8d 05 3b ce 00 00 	lea    0xce3b(%rip),%rax        # 1d470 <g_1158>
   10635:	48 89 85 80 fd ff ff 	mov    %rax,-0x280(%rbp)
   1063c:	48 8d 05 2d ce 00 00 	lea    0xce2d(%rip),%rax        # 1d470 <g_1158>
   10643:	48 89 85 88 fd ff ff 	mov    %rax,-0x278(%rbp)
   1064a:	48 8d 05 1f ce 00 00 	lea    0xce1f(%rip),%rax        # 1d470 <g_1158>
   10651:	48 89 85 90 fd ff ff 	mov    %rax,-0x270(%rbp)
   10658:	48 c7 85 98 fd ff ff 	movq   $0x0,-0x268(%rbp)
   1065f:	00 00 00 00 
   10663:	48 8d 05 06 ce 00 00 	lea    0xce06(%rip),%rax        # 1d470 <g_1158>
   1066a:	48 89 85 a0 fd ff ff 	mov    %rax,-0x260(%rbp)
   10671:	48 8d 05 f8 cd 00 00 	lea    0xcdf8(%rip),%rax        # 1d470 <g_1158>
   10678:	48 89 85 a8 fd ff ff 	mov    %rax,-0x258(%rbp)
   1067f:	48 8d 05 ea cd 00 00 	lea    0xcdea(%rip),%rax        # 1d470 <g_1158>
   10686:	48 89 85 b0 fd ff ff 	mov    %rax,-0x250(%rbp)
   1068d:	48 8d 05 dc cd 00 00 	lea    0xcddc(%rip),%rax        # 1d470 <g_1158>
   10694:	48 89 85 b8 fd ff ff 	mov    %rax,-0x248(%rbp)
   1069b:	48 8d 05 ce cd 00 00 	lea    0xcdce(%rip),%rax        # 1d470 <g_1158>
   106a2:	48 89 85 c0 fd ff ff 	mov    %rax,-0x240(%rbp)
   106a9:	48 8d 85 8c e8 ff ff 	lea    -0x1774(%rbp),%rax
   106b0:	48 89 85 c8 fd ff ff 	mov    %rax,-0x238(%rbp)
   106b7:	48 8d 05 b2 cd 00 00 	lea    0xcdb2(%rip),%rax        # 1d470 <g_1158>
   106be:	48 89 85 d0 fd ff ff 	mov    %rax,-0x230(%rbp)
   106c5:	48 8d 05 a4 cd 00 00 	lea    0xcda4(%rip),%rax        # 1d470 <g_1158>
   106cc:	48 89 85 d8 fd ff ff 	mov    %rax,-0x228(%rbp)
   106d3:	48 8d 85 8c e8 ff ff 	lea    -0x1774(%rbp),%rax
   106da:	48 89 85 e0 fd ff ff 	mov    %rax,-0x220(%rbp)
   106e1:	48 c7 85 e8 fd ff ff 	movq   $0x0,-0x218(%rbp)
   106e8:	00 00 00 00 
   106ec:	48 8d 85 8c e8 ff ff 	lea    -0x1774(%rbp),%rax
   106f3:	48 89 85 f0 fd ff ff 	mov    %rax,-0x210(%rbp)
   106fa:	48 8d 85 8c e8 ff ff 	lea    -0x1774(%rbp),%rax
   10701:	48 89 85 f8 fd ff ff 	mov    %rax,-0x208(%rbp)
   10708:	48 8d 05 61 cd 00 00 	lea    0xcd61(%rip),%rax        # 1d470 <g_1158>
   1070f:	48 89 85 00 fe ff ff 	mov    %rax,-0x200(%rbp)
   10716:	48 8d 85 8c e8 ff ff 	lea    -0x1774(%rbp),%rax
   1071d:	48 89 85 08 fe ff ff 	mov    %rax,-0x1f8(%rbp)
   10724:	48 c7 85 10 fe ff ff 	movq   $0x0,-0x1f0(%rbp)
   1072b:	00 00 00 00 
   1072f:	48 8d 05 3a cd 00 00 	lea    0xcd3a(%rip),%rax        # 1d470 <g_1158>
   10736:	48 89 85 18 fe ff ff 	mov    %rax,-0x1e8(%rbp)
   1073d:	48 8d 05 2c cd 00 00 	lea    0xcd2c(%rip),%rax        # 1d470 <g_1158>
   10744:	48 89 85 20 fe ff ff 	mov    %rax,-0x1e0(%rbp)
   1074b:	48 8d 05 1e cd 00 00 	lea    0xcd1e(%rip),%rax        # 1d470 <g_1158>
   10752:	48 89 85 28 fe ff ff 	mov    %rax,-0x1d8(%rbp)
   10759:	48 8d 05 10 cd 00 00 	lea    0xcd10(%rip),%rax        # 1d470 <g_1158>
   10760:	48 89 85 30 fe ff ff 	mov    %rax,-0x1d0(%rbp)
   10767:	48 8d 05 02 cd 00 00 	lea    0xcd02(%rip),%rax        # 1d470 <g_1158>
   1076e:	48 89 85 38 fe ff ff 	mov    %rax,-0x1c8(%rbp)
   10775:	48 8d 85 8c e8 ff ff 	lea    -0x1774(%rbp),%rax
   1077c:	48 89 85 40 fe ff ff 	mov    %rax,-0x1c0(%rbp)
   10783:	48 c7 85 48 fe ff ff 	movq   $0x0,-0x1b8(%rbp)
   1078a:	00 00 00 00 
   1078e:	48 8d 85 8c e8 ff ff 	lea    -0x1774(%rbp),%rax
   10795:	48 89 85 50 fe ff ff 	mov    %rax,-0x1b0(%rbp)
   1079c:	48 8d 05 cd cc 00 00 	lea    0xcccd(%rip),%rax        # 1d470 <g_1158>
   107a3:	48 89 85 58 fe ff ff 	mov    %rax,-0x1a8(%rbp)
   107aa:	48 8d 05 bf cc 00 00 	lea    0xccbf(%rip),%rax        # 1d470 <g_1158>
   107b1:	48 89 85 60 fe ff ff 	mov    %rax,-0x1a0(%rbp)
   107b8:	48 8d 85 8c e8 ff ff 	lea    -0x1774(%rbp),%rax
   107bf:	48 89 85 68 fe ff ff 	mov    %rax,-0x198(%rbp)
   107c6:	48 8d 05 a3 cc 00 00 	lea    0xcca3(%rip),%rax        # 1d470 <g_1158>
   107cd:	48 89 85 70 fe ff ff 	mov    %rax,-0x190(%rbp)
   107d4:	48 8d 05 95 cc 00 00 	lea    0xcc95(%rip),%rax        # 1d470 <g_1158>
   107db:	48 89 85 78 fe ff ff 	mov    %rax,-0x188(%rbp)
   107e2:	48 8d 05 87 cc 00 00 	lea    0xcc87(%rip),%rax        # 1d470 <g_1158>
   107e9:	48 89 85 80 fe ff ff 	mov    %rax,-0x180(%rbp)
   107f0:	48 8d 85 8c e8 ff ff 	lea    -0x1774(%rbp),%rax
   107f7:	48 89 85 88 fe ff ff 	mov    %rax,-0x178(%rbp)
   107fe:	48 8d 05 6b cc 00 00 	lea    0xcc6b(%rip),%rax        # 1d470 <g_1158>
   10805:	48 89 85 90 fe ff ff 	mov    %rax,-0x170(%rbp)
   1080c:	48 8d 85 8c e8 ff ff 	lea    -0x1774(%rbp),%rax
   10813:	48 89 85 98 fe ff ff 	mov    %rax,-0x168(%rbp)
   1081a:	48 c7 85 a0 fe ff ff 	movq   $0x0,-0x160(%rbp)
   10821:	00 00 00 00 
   10825:	48 8d 05 44 cc 00 00 	lea    0xcc44(%rip),%rax        # 1d470 <g_1158>
   1082c:	48 89 85 a8 fe ff ff 	mov    %rax,-0x158(%rbp)
   10833:	48 8d 05 36 cc 00 00 	lea    0xcc36(%rip),%rax        # 1d470 <g_1158>
   1083a:	48 89 85 b0 fe ff ff 	mov    %rax,-0x150(%rbp)
   10841:	48 c7 85 b8 fe ff ff 	movq   $0x0,-0x148(%rbp)
   10848:	00 00 00 00 
   1084c:	48 8d 05 1d cc 00 00 	lea    0xcc1d(%rip),%rax        # 1d470 <g_1158>
   10853:	48 89 85 c0 fe ff ff 	mov    %rax,-0x140(%rbp)
   1085a:	48 8d 05 0f cc 00 00 	lea    0xcc0f(%rip),%rax        # 1d470 <g_1158>
   10861:	48 89 85 c8 fe ff ff 	mov    %rax,-0x138(%rbp)
   10868:	48 c7 85 d0 fe ff ff 	movq   $0x0,-0x130(%rbp)
   1086f:	00 00 00 00 
   10873:	48 8d 85 8c e8 ff ff 	lea    -0x1774(%rbp),%rax
   1087a:	48 89 85 d8 fe ff ff 	mov    %rax,-0x128(%rbp)
   10881:	48 c7 85 e0 fe ff ff 	movq   $0x0,-0x120(%rbp)
   10888:	00 00 00 00 
   1088c:	48 8d 05 dd cb 00 00 	lea    0xcbdd(%rip),%rax        # 1d470 <g_1158>
   10893:	48 89 85 e8 fe ff ff 	mov    %rax,-0x118(%rbp)
   1089a:	48 8d 05 cf cb 00 00 	lea    0xcbcf(%rip),%rax        # 1d470 <g_1158>
   108a1:	48 89 85 f0 fe ff ff 	mov    %rax,-0x110(%rbp)
   108a8:	48 8d 85 8c e8 ff ff 	lea    -0x1774(%rbp),%rax
   108af:	48 89 85 f8 fe ff ff 	mov    %rax,-0x108(%rbp)
   108b6:	48 8d 05 b3 cb 00 00 	lea    0xcbb3(%rip),%rax        # 1d470 <g_1158>
   108bd:	48 89 85 00 ff ff ff 	mov    %rax,-0x100(%rbp)
   108c4:	48 c7 85 08 ff ff ff 	movq   $0x0,-0xf8(%rbp)
   108cb:	00 00 00 00 
   108cf:	48 8d 05 9a cb 00 00 	lea    0xcb9a(%rip),%rax        # 1d470 <g_1158>
   108d6:	48 89 85 10 ff ff ff 	mov    %rax,-0xf0(%rbp)
   108dd:	48 8d 05 8c cb 00 00 	lea    0xcb8c(%rip),%rax        # 1d470 <g_1158>
   108e4:	48 89 85 18 ff ff ff 	mov    %rax,-0xe8(%rbp)
   108eb:	48 8d 05 7e cb 00 00 	lea    0xcb7e(%rip),%rax        # 1d470 <g_1158>
   108f2:	48 89 85 20 ff ff ff 	mov    %rax,-0xe0(%rbp)
   108f9:	48 8d 85 8c e8 ff ff 	lea    -0x1774(%rbp),%rax
   10900:	48 89 85 28 ff ff ff 	mov    %rax,-0xd8(%rbp)
   10907:	48 c7 85 30 ff ff ff 	movq   $0x0,-0xd0(%rbp)
   1090e:	00 00 00 00 
   10912:	48 8d 85 8c e8 ff ff 	lea    -0x1774(%rbp),%rax
   10919:	48 89 85 38 ff ff ff 	mov    %rax,-0xc8(%rbp)
   10920:	48 c7 85 40 ff ff ff 	movq   $0x0,-0xc0(%rbp)
   10927:	00 00 00 00 
   1092b:	48 c7 85 48 ff ff ff 	movq   $0x0,-0xb8(%rbp)
   10932:	00 00 00 00 
   10936:	48 8d 85 8c e8 ff ff 	lea    -0x1774(%rbp),%rax
   1093d:	48 89 85 50 ff ff ff 	mov    %rax,-0xb0(%rbp)
   10944:	48 8d 85 8c e8 ff ff 	lea    -0x1774(%rbp),%rax
   1094b:	48 89 85 58 ff ff ff 	mov    %rax,-0xa8(%rbp)
   10952:	48 8d 85 8c e8 ff ff 	lea    -0x1774(%rbp),%rax
   10959:	48 89 85 60 ff ff ff 	mov    %rax,-0xa0(%rbp)
   10960:	48 8d 05 09 cb 00 00 	lea    0xcb09(%rip),%rax        # 1d470 <g_1158>
   10967:	48 89 85 68 ff ff ff 	mov    %rax,-0x98(%rbp)
   1096e:	48 8d 85 8c e8 ff ff 	lea    -0x1774(%rbp),%rax
   10975:	48 89 85 70 ff ff ff 	mov    %rax,-0x90(%rbp)
   1097c:	48 8d 05 ed ca 00 00 	lea    0xcaed(%rip),%rax        # 1d470 <g_1158>
   10983:	48 89 85 78 ff ff ff 	mov    %rax,-0x88(%rbp)
   1098a:	48 c7 45 80 00 00 00 	movq   $0x0,-0x80(%rbp)
   10991:	00 
   10992:	48 8d 85 8c e8 ff ff 	lea    -0x1774(%rbp),%rax
   10999:	48 89 45 88          	mov    %rax,-0x78(%rbp)
   1099d:	48 c7 45 90 00 00 00 	movq   $0x0,-0x70(%rbp)
   109a4:	00 
   109a5:	48 8d 85 8c e8 ff ff 	lea    -0x1774(%rbp),%rax
   109ac:	48 89 45 98          	mov    %rax,-0x68(%rbp)
   109b0:	48 8d 85 8c e8 ff ff 	lea    -0x1774(%rbp),%rax
   109b7:	48 89 45 a0          	mov    %rax,-0x60(%rbp)
   109bb:	48 8d 85 10 e9 ff ff 	lea    -0x16f0(%rbp),%rax
   109c2:	48 89 85 08 ea ff ff 	mov    %rax,-0x15f8(%rbp)
   109c9:	48 c7 85 10 ea ff ff 	movq   $0xfffffffffffffff7,-0x15f0(%rbp)
   109d0:	f7 ff ff ff 
   109d4:	c7 85 38 e9 ff ff 00 	movl   $0x0,-0x16c8(%rbp)
   109db:	00 00 00 
   109de:	48 8d 85 20 e9 ff ff 	lea    -0x16e0(%rbp),%rax
   109e5:	48 89 85 18 ea ff ff 	mov    %rax,-0x15e8(%rbp)
   109ec:	c7 85 dc e8 ff ff ff 	movl   $0xffffffff,-0x1724(%rbp)
   109f3:	ff ff ff 
   109f6:	66 c7 85 80 e8 ff ff 	movw   $0x450,-0x1780(%rbp)
   109fd:	50 04 
   109ff:	c7 85 a4 e8 ff ff 00 	movl   $0x0,-0x175c(%rbp)
   10a06:	00 00 00 
   10a09:	eb 1a                	jmp    10a25 <func_23+0x3f14>
   10a0b:	8b 85 a4 e8 ff ff    	mov    -0x175c(%rbp),%eax
   10a11:	48 98                	cltq   
   10a13:	c7 84 85 70 eb ff ff 	movl   $0x1,-0x1490(%rbp,%rax,4)
   10a1a:	01 00 00 00 
   10a1e:	83 85 a4 e8 ff ff 01 	addl   $0x1,-0x175c(%rbp)
   10a25:	83 bd a4 e8 ff ff 01 	cmpl   $0x1,-0x175c(%rbp)
   10a2c:	7e dd                	jle    10a0b <func_23+0x3efa>
   10a2e:	66 c7 05 db c6 00 00 	movw   $0xffeb,0xc6db(%rip)        # 1d112 <g_698>
   10a35:	eb ff 
   10a37:	e9 63 02 00 00       	jmpq   10c9f <func_23+0x418e>
   10a3c:	48 8d 85 40 e9 ff ff 	lea    -0x16c0(%rbp),%rax
   10a43:	48 89 85 20 ea ff ff 	mov    %rax,-0x15e0(%rbp)
   10a4a:	48 8d 85 00 ec ff ff 	lea    -0x1400(%rbp),%rax
   10a51:	48 05 b2 00 00 00    	add    $0xb2,%rax
   10a57:	48 89 85 28 ea ff ff 	mov    %rax,-0x15d8(%rbp)
   10a5e:	48 c7 85 c0 ec ff ff 	movq   $0x0,-0x1340(%rbp)
   10a65:	00 00 00 00 
   10a69:	48 c7 85 c8 ec ff ff 	movq   $0x0,-0x1338(%rbp)
   10a70:	00 00 00 00 
   10a74:	48 c7 85 d0 ec ff ff 	movq   $0x0,-0x1330(%rbp)
   10a7b:	00 00 00 00 
   10a7f:	48 c7 85 d8 ec ff ff 	movq   $0x0,-0x1328(%rbp)
   10a86:	00 00 00 00 
   10a8a:	48 c7 85 e0 ec ff ff 	movq   $0x0,-0x1320(%rbp)
   10a91:	00 00 00 00 
   10a95:	48 c7 85 e8 ec ff ff 	movq   $0x0,-0x1318(%rbp)
   10a9c:	00 00 00 00 
   10aa0:	48 c7 85 f0 ec ff ff 	movq   $0x0,-0x1310(%rbp)
   10aa7:	00 00 00 00 
   10aab:	48 c7 85 f8 ec ff ff 	movq   $0x0,-0x1308(%rbp)
   10ab2:	00 00 00 00 
   10ab6:	48 8d 85 88 e8 ff ff 	lea    -0x1778(%rbp),%rax
   10abd:	48 89 85 00 ed ff ff 	mov    %rax,-0x1300(%rbp)
   10ac4:	48 c7 85 08 ed ff ff 	movq   $0x0,-0x12f8(%rbp)
   10acb:	00 00 00 00 
   10acf:	48 c7 85 10 ed ff ff 	movq   $0x0,-0x12f0(%rbp)
   10ad6:	00 00 00 00 
   10ada:	48 8d 85 88 e8 ff ff 	lea    -0x1778(%rbp),%rax
   10ae1:	48 89 85 18 ed ff ff 	mov    %rax,-0x12e8(%rbp)
   10ae8:	48 c7 85 20 ed ff ff 	movq   $0x0,-0x12e0(%rbp)
   10aef:	00 00 00 00 
   10af3:	48 c7 85 28 ed ff ff 	movq   $0x0,-0x12d8(%rbp)
   10afa:	00 00 00 00 
   10afe:	48 c7 85 30 ed ff ff 	movq   $0x0,-0x12d0(%rbp)
   10b05:	00 00 00 00 
   10b09:	48 c7 85 38 ed ff ff 	movq   $0x0,-0x12c8(%rbp)
   10b10:	00 00 00 00 
   10b14:	48 8d 05 55 c9 00 00 	lea    0xc955(%rip),%rax        # 1d470 <g_1158>
   10b1b:	48 89 85 40 ed ff ff 	mov    %rax,-0x12c0(%rbp)
   10b22:	48 c7 85 48 ed ff ff 	movq   $0x0,-0x12b8(%rbp)
   10b29:	00 00 00 00 
   10b2d:	48 c7 85 50 ed ff ff 	movq   $0x0,-0x12b0(%rbp)
   10b34:	00 00 00 00 
   10b38:	48 8d 05 31 c9 00 00 	lea    0xc931(%rip),%rax        # 1d470 <g_1158>
   10b3f:	48 89 85 58 ed ff ff 	mov    %rax,-0x12a8(%rbp)
   10b46:	48 c7 85 60 ed ff ff 	movq   $0x0,-0x12a0(%rbp)
   10b4d:	00 00 00 00 
   10b51:	48 8d 85 88 e8 ff ff 	lea    -0x1778(%rbp),%rax
   10b58:	48 89 85 68 ed ff ff 	mov    %rax,-0x1298(%rbp)
   10b5f:	48 c7 85 70 ed ff ff 	movq   $0x0,-0x1290(%rbp)
   10b66:	00 00 00 00 
   10b6a:	48 c7 85 78 ed ff ff 	movq   $0x0,-0x1288(%rbp)
   10b71:	00 00 00 00 
   10b75:	48 8d 85 88 e8 ff ff 	lea    -0x1778(%rbp),%rax
   10b7c:	48 89 85 80 ed ff ff 	mov    %rax,-0x1280(%rbp)
   10b83:	48 c7 85 88 ed ff ff 	movq   $0x0,-0x1278(%rbp)
   10b8a:	00 00 00 00 
   10b8e:	48 c7 85 90 ed ff ff 	movq   $0x0,-0x1270(%rbp)
   10b95:	00 00 00 00 
   10b99:	48 8d 85 88 e8 ff ff 	lea    -0x1778(%rbp),%rax
   10ba0:	48 89 85 98 ed ff ff 	mov    %rax,-0x1268(%rbp)
   10ba7:	48 8d 05 02 08 01 00 	lea    0x10802(%rip),%rax        # 213b0 <g_423>
   10bae:	48 89 85 30 ea ff ff 	mov    %rax,-0x15d0(%rbp)
   10bb5:	66 c7 85 82 e8 ff ff 	movw   $0xfffc,-0x177e(%rbp)
   10bbc:	fc ff 
   10bbe:	48 8d 85 8c e8 ff ff 	lea    -0x1774(%rbp),%rax
   10bc5:	48 89 85 48 e9 ff ff 	mov    %rax,-0x16b8(%rbp)
   10bcc:	48 8d 85 48 e9 ff ff 	lea    -0x16b8(%rbp),%rax
   10bd3:	48 89 85 38 ea ff ff 	mov    %rax,-0x15c8(%rbp)
   10bda:	c6 85 76 e8 ff ff 01 	movb   $0x1,-0x178a(%rbp)
   10be1:	c7 85 e0 e8 ff ff 39 	movl   $0x4d9b0239,-0x1720(%rbp)
   10be8:	02 9b 4d 
   10beb:	48 c7 85 50 e9 ff ff 	movq   $0x0,-0x16b0(%rbp)
   10bf2:	00 00 00 00 
   10bf6:	48 8d 85 50 e9 ff ff 	lea    -0x16b0(%rbp),%rax
   10bfd:	48 89 85 40 ea ff ff 	mov    %rax,-0x15c0(%rbp)
   10c04:	48 c7 85 48 ea ff ff 	movq   $0x0,-0x15b8(%rbp)
   10c0b:	00 00 00 00 
   10c0f:	48 8d 85 80 ef ff ff 	lea    -0x1080(%rbp),%rax
   10c16:	48 8d 15 c3 cf 00 00 	lea    0xcfc3(%rip),%rdx        # 1dbe0 <g_2043+0x5a0>
   10c1d:	b9 3f 00 00 00       	mov    $0x3f,%ecx
   10c22:	48 89 c7             	mov    %rax,%rdi
   10c25:	48 89 d6             	mov    %rdx,%rsi
   10c28:	f3 48 a5             	rep movsq %ds:(%rsi),%es:(%rdi)
   10c2b:	48 8d 05 fe ed 00 00 	lea    0xedfe(%rip),%rax        # 1fa30 <g_371>
   10c32:	48 89 85 50 ea ff ff 	mov    %rax,-0x15b0(%rbp)
   10c39:	48 8d 05 9c c4 00 00 	lea    0xc49c(%rip),%rax        # 1d0dc <g_224>
   10c40:	48 89 85 58 e9 ff ff 	mov    %rax,-0x16a8(%rbp)
   10c47:	c7 85 a8 e8 ff ff 00 	movl   $0x0,-0x1758(%rbp)
   10c4e:	00 00 00 
   10c51:	eb 1e                	jmp    10c71 <func_23+0x4160>
   10c53:	8b 85 a8 e8 ff ff    	mov    -0x1758(%rbp),%eax
   10c59:	48 98                	cltq   
   10c5b:	48 8d 95 58 e9 ff ff 	lea    -0x16a8(%rbp),%rdx
   10c62:	48 89 94 c5 c0 eb ff 	mov    %rdx,-0x1440(%rbp,%rax,8)
   10c69:	ff 
   10c6a:	83 85 a8 e8 ff ff 01 	addl   $0x1,-0x1758(%rbp)
   10c71:	83 bd a8 e8 ff ff 06 	cmpl   $0x6,-0x1758(%rbp)
   10c78:	7e d9                	jle    10c53 <func_23+0x4142>
   10c7a:	48 8b 15 97 f6 00 00 	mov    0xf697(%rip),%rdx        # 20318 <g_968>
   10c81:	48 8b 05 e0 f7 00 00 	mov    0xf7e0(%rip),%rax        # 20468 <g_1339>
   10c88:	48 8b 12             	mov    (%rdx),%rdx
   10c8b:	48 89 10             	mov    %rdx,(%rax)
   10c8e:	0f b7 05 7d c4 00 00 	movzwl 0xc47d(%rip),%eax        # 1d112 <g_698>
   10c95:	83 e8 01             	sub    $0x1,%eax
   10c98:	66 89 05 73 c4 00 00 	mov    %ax,0xc473(%rip)        # 1d112 <g_698>
   10c9f:	0f b7 05 6c c4 00 00 	movzwl 0xc46c(%rip),%eax        # 1d112 <g_698>
   10ca6:	66 83 f8 e2          	cmp    $0xffe2,%ax
   10caa:	0f 84 8c fd ff ff    	je     10a3c <func_23+0x3f2b>
   10cb0:	0f b7 85 98 eb ff ff 	movzwl -0x1468(%rbp),%eax
   10cb7:	83 e8 01             	sub    $0x1,%eax
   10cba:	66 89 85 98 eb ff ff 	mov    %ax,-0x1468(%rbp)
   10cc1:	48 8b 05 70 f7 00 00 	mov    0xf770(%rip),%rax        # 20438 <g_1154>
   10cc8:	48 8b 00             	mov    (%rax),%rax
   10ccb:	48 8b 00             	mov    (%rax),%rax
   10cce:	48 8b 95 60 e8 ff ff 	mov    -0x17a0(%rbp),%rdx
   10cd5:	8b 12                	mov    (%rdx),%edx
   10cd7:	89 10                	mov    %edx,(%rax)
   10cd9:	eb 04                	jmp    10cdf <func_23+0x41ce>
   10cdb:	90                   	nop
   10cdc:	eb 01                	jmp    10cdf <func_23+0x41ce>
   10cde:	90                   	nop
   10cdf:	48 8b 05 02 f8 00 00 	mov    0xf802(%rip),%rax        # 204e8 <g_1466>
   10ce6:	48 8b 00             	mov    (%rax),%rax
   10ce9:	48 8b 00             	mov    (%rax),%rax
   10cec:	8b 00                	mov    (%rax),%eax
   10cee:	48 8b 5d c8          	mov    -0x38(%rbp),%rbx
   10cf2:	64 48 33 1c 25 28 00 	xor    %fs:0x28,%rbx
   10cf9:	00 00 
   10cfb:	74 05                	je     10d02 <func_23+0x41f1>
   10cfd:	e8 6e 93 ff ff       	callq  a070 <__stack_chk_fail@plt>
   10d02:	48 81 c4 78 17 00 00 	add    $0x1778,%rsp
   10d09:	5b                   	pop    %rbx
   10d0a:	41 5c                	pop    %r12
   10d0c:	41 5d                	pop    %r13
   10d0e:	41 5e                	pop    %r14
   10d10:	41 5f                	pop    %r15
   10d12:	5d                   	pop    %rbp
   10d13:	c3                   	retq   

0000000000010d14 <func_51>:
   10d14:	f3 0f 1e fa          	endbr64 
   10d18:	55                   	push   %rbp
   10d19:	48 89 e5             	mov    %rsp,%rbp
   10d1c:	48 83 ec 70          	sub    $0x70,%rsp
   10d20:	89 7d ac             	mov    %edi,-0x54(%rbp)
   10d23:	89 75 a8             	mov    %esi,-0x58(%rbp)
   10d26:	89 55 a4             	mov    %edx,-0x5c(%rbp)
   10d29:	48 89 4d 98          	mov    %rcx,-0x68(%rbp)
   10d2d:	64 48 8b 04 25 28 00 	mov    %fs:0x28,%rax
   10d34:	00 00 
   10d36:	48 89 45 f8          	mov    %rax,-0x8(%rbp)
   10d3a:	31 c0                	xor    %eax,%eax
   10d3c:	48 c7 45 c8 00 00 00 	movq   $0x0,-0x38(%rbp)
   10d43:	00 
   10d44:	48 8d 05 ad c3 00 00 	lea    0xc3ad(%rip),%rax        # 1d0f8 <g_506>
   10d4b:	48 89 45 c0          	mov    %rax,-0x40(%rbp)
   10d4f:	48 8d 45 c0          	lea    -0x40(%rbp),%rax
   10d53:	48 89 45 d0          	mov    %rax,-0x30(%rbp)
   10d57:	48 8d 45 e0          	lea    -0x20(%rbp),%rax
   10d5b:	48 89 45 d8          	mov    %rax,-0x28(%rbp)
   10d5f:	c7 45 bc 00 00 00 00 	movl   $0x0,-0x44(%rbp)
   10d66:	eb 15                	jmp    10d7d <func_51+0x69>
   10d68:	8b 45 bc             	mov    -0x44(%rbp),%eax
   10d6b:	48 98                	cltq   
   10d6d:	48 8d 15 84 c3 00 00 	lea    0xc384(%rip),%rdx        # 1d0f8 <g_506>
   10d74:	48 89 54 c5 e0       	mov    %rdx,-0x20(%rbp,%rax,8)
   10d79:	83 45 bc 01          	addl   $0x1,-0x44(%rbp)
   10d7d:	83 7d bc 02          	cmpl   $0x2,-0x44(%rbp)
   10d81:	7e e5                	jle    10d68 <func_51+0x54>
   10d83:	48 8b 05 be c6 00 00 	mov    0xc6be(%rip),%rax        # 1d448 <g_959>
   10d8a:	48 8b 45 d0          	mov    -0x30(%rbp),%rax
   10d8e:	48 8d 15 63 c3 00 00 	lea    0xc363(%rip),%rdx        # 1d0f8 <g_506>
   10d95:	48 89 10             	mov    %rdx,(%rax)
   10d98:	48 8b 45 d0          	mov    -0x30(%rbp),%rax
   10d9c:	48 8b 10             	mov    (%rax),%rdx
   10d9f:	48 8b 45 d8          	mov    -0x28(%rbp),%rax
   10da3:	48 89 10             	mov    %rdx,(%rax)
   10da6:	48 8b 45 98          	mov    -0x68(%rbp),%rax
   10daa:	48 8b 4d f8          	mov    -0x8(%rbp),%rcx
   10dae:	64 48 33 0c 25 28 00 	xor    %fs:0x28,%rcx
   10db5:	00 00 
   10db7:	74 05                	je     10dbe <func_51+0xaa>
   10db9:	e8 b2 92 ff ff       	callq  a070 <__stack_chk_fail@plt>
   10dbe:	c9                   	leaveq 
   10dbf:	c3                   	retq   

0000000000010dc0 <func_56>:
   10dc0:	f3 0f 1e fa          	endbr64 
   10dc4:	55                   	push   %rbp
   10dc5:	48 89 e5             	mov    %rsp,%rbp
   10dc8:	41 57                	push   %r15
   10dca:	41 56                	push   %r14
   10dcc:	41 55                	push   %r13
   10dce:	41 54                	push   %r12
   10dd0:	53                   	push   %rbx
   10dd1:	48 81 ec 00 10 00 00 	sub    $0x1000,%rsp
   10dd8:	48 83 0c 24 00       	orq    $0x0,(%rsp)
   10ddd:	48 81 ec c8 0c 00 00 	sub    $0xcc8,%rsp
   10de4:	89 bd 1c e3 ff ff    	mov    %edi,-0x1ce4(%rbp)
   10dea:	64 48 8b 04 25 28 00 	mov    %fs:0x28,%rax
   10df1:	00 00 
   10df3:	48 89 45 c8          	mov    %rax,-0x38(%rbp)
   10df7:	31 c0                	xor    %eax,%eax
   10df9:	48 8d 05 7c c2 00 00 	lea    0xc27c(%rip),%rax        # 1d07c <g_153>
   10e00:	48 89 85 b0 e3 ff ff 	mov    %rax,-0x1c50(%rbp)
   10e07:	48 8d 05 d2 c2 00 00 	lea    0xc2d2(%rip),%rax        # 1d0e0 <g_394>
   10e0e:	48 89 85 78 e3 ff ff 	mov    %rax,-0x1c88(%rbp)
   10e15:	c7 85 2c e3 ff ff 00 	movl   $0x0,-0x1cd4(%rbp)
   10e1c:	00 00 00 
   10e1f:	48 c7 85 80 e3 ff ff 	movq   $0x0,-0x1c80(%rbp)
   10e26:	00 00 00 00 
   10e2a:	48 c7 85 c0 f7 ff ff 	movq   $0x0,-0x840(%rbp)
   10e31:	00 00 00 00 
   10e35:	48 8d 05 08 c2 00 00 	lea    0xc208(%rip),%rax        # 1d044 <g_7>
   10e3c:	48 89 85 c8 f7 ff ff 	mov    %rax,-0x838(%rbp)
   10e43:	48 8d 05 96 c2 00 00 	lea    0xc296(%rip),%rax        # 1d0e0 <g_394>
   10e4a:	48 89 85 d0 f7 ff ff 	mov    %rax,-0x830(%rbp)
   10e51:	48 8d 05 24 c2 00 00 	lea    0xc224(%rip),%rax        # 1d07c <g_153>
   10e58:	48 89 85 d8 f7 ff ff 	mov    %rax,-0x828(%rbp)
   10e5f:	48 8d 05 16 c2 00 00 	lea    0xc216(%rip),%rax        # 1d07c <g_153>
   10e66:	48 89 85 e0 f7 ff ff 	mov    %rax,-0x820(%rbp)
   10e6d:	48 8d 05 e4 c1 00 00 	lea    0xc1e4(%rip),%rax        # 1d058 <g_29+0x8>
   10e74:	48 89 85 e8 f7 ff ff 	mov    %rax,-0x818(%rbp)
   10e7b:	48 c7 85 f0 f7 ff ff 	movq   $0x0,-0x810(%rbp)
   10e82:	00 00 00 00 
   10e86:	48 c7 85 f8 f7 ff ff 	movq   $0x0,-0x808(%rbp)
   10e8d:	00 00 00 00 
   10e91:	48 8d 85 2c e3 ff ff 	lea    -0x1cd4(%rbp),%rax
   10e98:	48 89 85 00 f8 ff ff 	mov    %rax,-0x800(%rbp)
   10e9f:	48 8d 05 d6 c1 00 00 	lea    0xc1d6(%rip),%rax        # 1d07c <g_153>
   10ea6:	48 89 85 08 f8 ff ff 	mov    %rax,-0x7f8(%rbp)
   10ead:	48 c7 85 10 f8 ff ff 	movq   $0x0,-0x7f0(%rbp)
   10eb4:	00 00 00 00 
   10eb8:	48 8d 05 85 c1 00 00 	lea    0xc185(%rip),%rax        # 1d044 <g_7>
   10ebf:	48 89 85 18 f8 ff ff 	mov    %rax,-0x7e8(%rbp)
   10ec6:	48 c7 85 20 f8 ff ff 	movq   $0x0,-0x7e0(%rbp)
   10ecd:	00 00 00 00 
   10ed1:	48 8d 05 08 c2 00 00 	lea    0xc208(%rip),%rax        # 1d0e0 <g_394>
   10ed8:	48 89 85 28 f8 ff ff 	mov    %rax,-0x7d8(%rbp)
   10edf:	48 8d 05 96 c1 00 00 	lea    0xc196(%rip),%rax        # 1d07c <g_153>
   10ee6:	48 89 85 30 f8 ff ff 	mov    %rax,-0x7d0(%rbp)
   10eed:	48 8d 05 88 c1 00 00 	lea    0xc188(%rip),%rax        # 1d07c <g_153>
   10ef4:	48 89 85 38 f8 ff ff 	mov    %rax,-0x7c8(%rbp)
   10efb:	48 8d 05 7a c1 00 00 	lea    0xc17a(%rip),%rax        # 1d07c <g_153>
   10f02:	48 89 85 40 f8 ff ff 	mov    %rax,-0x7c0(%rbp)
   10f09:	48 8d 05 6c c1 00 00 	lea    0xc16c(%rip),%rax        # 1d07c <g_153>
   10f10:	48 89 85 48 f8 ff ff 	mov    %rax,-0x7b8(%rbp)
   10f17:	48 c7 85 50 f8 ff ff 	movq   $0x0,-0x7b0(%rbp)
   10f1e:	00 00 00 00 
   10f22:	48 8d 85 2c e3 ff ff 	lea    -0x1cd4(%rbp),%rax
   10f29:	48 89 85 58 f8 ff ff 	mov    %rax,-0x7a8(%rbp)
   10f30:	48 c7 85 60 f8 ff ff 	movq   $0x0,-0x7a0(%rbp)
   10f37:	00 00 00 00 
   10f3b:	48 8d 05 3a c1 00 00 	lea    0xc13a(%rip),%rax        # 1d07c <g_153>
   10f42:	48 89 85 68 f8 ff ff 	mov    %rax,-0x798(%rbp)
   10f49:	48 8d 05 2c c1 00 00 	lea    0xc12c(%rip),%rax        # 1d07c <g_153>
   10f50:	48 89 85 70 f8 ff ff 	mov    %rax,-0x790(%rbp)
   10f57:	48 8d 85 2c e3 ff ff 	lea    -0x1cd4(%rbp),%rax
   10f5e:	48 89 85 78 f8 ff ff 	mov    %rax,-0x788(%rbp)
   10f65:	48 8d 85 2c e3 ff ff 	lea    -0x1cd4(%rbp),%rax
   10f6c:	48 89 85 80 f8 ff ff 	mov    %rax,-0x780(%rbp)
   10f73:	48 8d 05 66 c1 00 00 	lea    0xc166(%rip),%rax        # 1d0e0 <g_394>
   10f7a:	48 89 85 88 f8 ff ff 	mov    %rax,-0x778(%rbp)
   10f81:	48 8d 05 bc c0 00 00 	lea    0xc0bc(%rip),%rax        # 1d044 <g_7>
   10f88:	48 89 85 90 f8 ff ff 	mov    %rax,-0x770(%rbp)
   10f8f:	48 8d 05 c2 c0 00 00 	lea    0xc0c2(%rip),%rax        # 1d058 <g_29+0x8>
   10f96:	48 89 85 98 f8 ff ff 	mov    %rax,-0x768(%rbp)
   10f9d:	48 8d 05 b4 c0 00 00 	lea    0xc0b4(%rip),%rax        # 1d058 <g_29+0x8>
   10fa4:	48 89 85 a0 f8 ff ff 	mov    %rax,-0x760(%rbp)
   10fab:	48 8d 05 ca c0 00 00 	lea    0xc0ca(%rip),%rax        # 1d07c <g_153>
   10fb2:	48 89 85 a8 f8 ff ff 	mov    %rax,-0x758(%rbp)
   10fb9:	48 c7 85 b0 f8 ff ff 	movq   $0x0,-0x750(%rbp)
   10fc0:	00 00 00 00 
   10fc4:	48 8d 05 8d c0 00 00 	lea    0xc08d(%rip),%rax        # 1d058 <g_29+0x8>
   10fcb:	48 89 85 b8 f8 ff ff 	mov    %rax,-0x748(%rbp)
   10fd2:	48 8d 05 7b c0 00 00 	lea    0xc07b(%rip),%rax        # 1d054 <g_29+0x4>
   10fd9:	48 89 85 c0 f8 ff ff 	mov    %rax,-0x740(%rbp)
   10fe0:	48 c7 85 c8 f8 ff ff 	movq   $0x0,-0x738(%rbp)
   10fe7:	00 00 00 00 
   10feb:	48 8d 05 76 c0 00 00 	lea    0xc076(%rip),%rax        # 1d068 <g_76>
   10ff2:	48 89 85 d0 f8 ff ff 	mov    %rax,-0x730(%rbp)
   10ff9:	48 c7 85 d8 f8 ff ff 	movq   $0x0,-0x728(%rbp)
   11000:	00 00 00 00 
   11004:	48 8d 05 4d c0 00 00 	lea    0xc04d(%rip),%rax        # 1d058 <g_29+0x8>
   1100b:	48 89 85 e0 f8 ff ff 	mov    %rax,-0x720(%rbp)
   11012:	48 8d 05 4f c0 00 00 	lea    0xc04f(%rip),%rax        # 1d068 <g_76>
   11019:	48 89 85 e8 f8 ff ff 	mov    %rax,-0x718(%rbp)
   11020:	48 8d 05 35 c0 00 00 	lea    0xc035(%rip),%rax        # 1d05c <g_29+0xc>
   11027:	48 89 85 f0 f8 ff ff 	mov    %rax,-0x710(%rbp)
   1102e:	48 8d 85 2c e3 ff ff 	lea    -0x1cd4(%rbp),%rax
   11035:	48 89 85 f8 f8 ff ff 	mov    %rax,-0x708(%rbp)
   1103c:	48 8d 85 2c e3 ff ff 	lea    -0x1cd4(%rbp),%rax
   11043:	48 89 85 00 f9 ff ff 	mov    %rax,-0x700(%rbp)
   1104a:	48 8d 85 2c e3 ff ff 	lea    -0x1cd4(%rbp),%rax
   11051:	48 89 85 08 f9 ff ff 	mov    %rax,-0x6f8(%rbp)
   11058:	48 8d 05 e5 bf 00 00 	lea    0xbfe5(%rip),%rax        # 1d044 <g_7>
   1105f:	48 89 85 10 f9 ff ff 	mov    %rax,-0x6f0(%rbp)
   11066:	48 8d 05 eb bf 00 00 	lea    0xbfeb(%rip),%rax        # 1d058 <g_29+0x8>
   1106d:	48 89 85 18 f9 ff ff 	mov    %rax,-0x6e8(%rbp)
   11074:	48 c7 85 20 f9 ff ff 	movq   $0x0,-0x6e0(%rbp)
   1107b:	00 00 00 00 
   1107f:	48 8d 05 d2 bf 00 00 	lea    0xbfd2(%rip),%rax        # 1d058 <g_29+0x8>
   11086:	48 89 85 28 f9 ff ff 	mov    %rax,-0x6d8(%rbp)
   1108d:	48 8d 05 e8 bf 00 00 	lea    0xbfe8(%rip),%rax        # 1d07c <g_153>
   11094:	48 89 85 30 f9 ff ff 	mov    %rax,-0x6d0(%rbp)
   1109b:	48 8d 05 a2 bf 00 00 	lea    0xbfa2(%rip),%rax        # 1d044 <g_7>
   110a2:	48 89 85 38 f9 ff ff 	mov    %rax,-0x6c8(%rbp)
   110a9:	48 8d 05 cc bf 00 00 	lea    0xbfcc(%rip),%rax        # 1d07c <g_153>
   110b0:	48 89 85 40 f9 ff ff 	mov    %rax,-0x6c0(%rbp)
   110b7:	48 c7 85 48 f9 ff ff 	movq   $0x0,-0x6b8(%rbp)
   110be:	00 00 00 00 
   110c2:	48 8d 05 9f bf 00 00 	lea    0xbf9f(%rip),%rax        # 1d068 <g_76>
   110c9:	48 89 85 50 f9 ff ff 	mov    %rax,-0x6b0(%rbp)
   110d0:	48 c7 85 58 f9 ff ff 	movq   $0x0,-0x6a8(%rbp)
   110d7:	00 00 00 00 
   110db:	48 c7 85 60 f9 ff ff 	movq   $0x0,-0x6a0(%rbp)
   110e2:	00 00 00 00 
   110e6:	48 8d 05 6b bf 00 00 	lea    0xbf6b(%rip),%rax        # 1d058 <g_29+0x8>
   110ed:	48 89 85 68 f9 ff ff 	mov    %rax,-0x698(%rbp)
   110f4:	48 8d 05 6d bf 00 00 	lea    0xbf6d(%rip),%rax        # 1d068 <g_76>
   110fb:	48 89 85 70 f9 ff ff 	mov    %rax,-0x690(%rbp)
   11102:	48 8d 85 2c e3 ff ff 	lea    -0x1cd4(%rbp),%rax
   11109:	48 89 85 78 f9 ff ff 	mov    %rax,-0x688(%rbp)
   11110:	48 8d 85 2c e3 ff ff 	lea    -0x1cd4(%rbp),%rax
   11117:	48 89 85 80 f9 ff ff 	mov    %rax,-0x680(%rbp)
   1111e:	48 c7 85 88 f9 ff ff 	movq   $0x0,-0x678(%rbp)
   11125:	00 00 00 00 
   11129:	48 8d 05 38 bf 00 00 	lea    0xbf38(%rip),%rax        # 1d068 <g_76>
   11130:	48 89 85 90 f9 ff ff 	mov    %rax,-0x670(%rbp)
   11137:	48 8d 05 06 bf 00 00 	lea    0xbf06(%rip),%rax        # 1d044 <g_7>
   1113e:	48 89 85 98 f9 ff ff 	mov    %rax,-0x668(%rbp)
   11145:	48 8d 05 30 bf 00 00 	lea    0xbf30(%rip),%rax        # 1d07c <g_153>
   1114c:	48 89 85 a0 f9 ff ff 	mov    %rax,-0x660(%rbp)
   11153:	48 8d 05 fe be 00 00 	lea    0xbefe(%rip),%rax        # 1d058 <g_29+0x8>
   1115a:	48 89 85 a8 f9 ff ff 	mov    %rax,-0x658(%rbp)
   11161:	48 8d 05 f0 be 00 00 	lea    0xbef0(%rip),%rax        # 1d058 <g_29+0x8>
   11168:	48 89 85 b0 f9 ff ff 	mov    %rax,-0x650(%rbp)
   1116f:	48 c7 85 b8 f9 ff ff 	movq   $0x0,-0x648(%rbp)
   11176:	00 00 00 00 
   1117a:	48 c7 85 c0 f9 ff ff 	movq   $0x0,-0x640(%rbp)
   11181:	00 00 00 00 
   11185:	48 8d 85 2c e3 ff ff 	lea    -0x1cd4(%rbp),%rax
   1118c:	48 89 85 c8 f9 ff ff 	mov    %rax,-0x638(%rbp)
   11193:	48 8d 05 aa be 00 00 	lea    0xbeaa(%rip),%rax        # 1d044 <g_7>
   1119a:	48 89 85 d0 f9 ff ff 	mov    %rax,-0x630(%rbp)
   111a1:	48 8d 05 c0 be 00 00 	lea    0xbec0(%rip),%rax        # 1d068 <g_76>
   111a8:	48 89 85 d8 f9 ff ff 	mov    %rax,-0x628(%rbp)
   111af:	48 8d 05 b2 be 00 00 	lea    0xbeb2(%rip),%rax        # 1d068 <g_76>
   111b6:	48 89 85 e0 f9 ff ff 	mov    %rax,-0x620(%rbp)
   111bd:	48 8d 05 98 be 00 00 	lea    0xbe98(%rip),%rax        # 1d05c <g_29+0xc>
   111c4:	48 89 85 e8 f9 ff ff 	mov    %rax,-0x618(%rbp)
   111cb:	48 8d 05 72 be 00 00 	lea    0xbe72(%rip),%rax        # 1d044 <g_7>
   111d2:	48 89 85 f0 f9 ff ff 	mov    %rax,-0x610(%rbp)
   111d9:	48 8d 05 78 be 00 00 	lea    0xbe78(%rip),%rax        # 1d058 <g_29+0x8>
   111e0:	48 89 85 f8 f9 ff ff 	mov    %rax,-0x608(%rbp)
   111e7:	48 8d 05 56 be 00 00 	lea    0xbe56(%rip),%rax        # 1d044 <g_7>
   111ee:	48 89 85 00 fa ff ff 	mov    %rax,-0x600(%rbp)
   111f5:	48 8d 05 5c be 00 00 	lea    0xbe5c(%rip),%rax        # 1d058 <g_29+0x8>
   111fc:	48 89 85 08 fa ff ff 	mov    %rax,-0x5f8(%rbp)
   11203:	48 8d 85 2c e3 ff ff 	lea    -0x1cd4(%rbp),%rax
   1120a:	48 89 85 10 fa ff ff 	mov    %rax,-0x5f0(%rbp)
   11211:	48 8d 05 64 be 00 00 	lea    0xbe64(%rip),%rax        # 1d07c <g_153>
   11218:	48 89 85 18 fa ff ff 	mov    %rax,-0x5e8(%rbp)
   1121f:	48 8d 05 ba be 00 00 	lea    0xbeba(%rip),%rax        # 1d0e0 <g_394>
   11226:	48 89 85 20 fa ff ff 	mov    %rax,-0x5e0(%rbp)
   1122d:	48 8d 05 34 be 00 00 	lea    0xbe34(%rip),%rax        # 1d068 <g_76>
   11234:	48 89 85 28 fa ff ff 	mov    %rax,-0x5d8(%rbp)
   1123b:	48 c7 85 30 fa ff ff 	movq   $0x0,-0x5d0(%rbp)
   11242:	00 00 00 00 
   11246:	48 8d 05 f7 bd 00 00 	lea    0xbdf7(%rip),%rax        # 1d044 <g_7>
   1124d:	48 89 85 38 fa ff ff 	mov    %rax,-0x5c8(%rbp)
   11254:	48 8d 05 01 be 00 00 	lea    0xbe01(%rip),%rax        # 1d05c <g_29+0xc>
   1125b:	48 89 85 40 fa ff ff 	mov    %rax,-0x5c0(%rbp)
   11262:	48 c7 85 48 fa ff ff 	movq   $0x0,-0x5b8(%rbp)
   11269:	00 00 00 00 
   1126d:	48 c7 85 50 fa ff ff 	movq   $0x0,-0x5b0(%rbp)
   11274:	00 00 00 00 
   11278:	48 8d 05 d9 bd 00 00 	lea    0xbdd9(%rip),%rax        # 1d058 <g_29+0x8>
   1127f:	48 89 85 58 fa ff ff 	mov    %rax,-0x5a8(%rbp)
   11286:	48 8d 05 c7 bd 00 00 	lea    0xbdc7(%rip),%rax        # 1d054 <g_29+0x4>
   1128d:	48 89 85 60 fa ff ff 	mov    %rax,-0x5a0(%rbp)
   11294:	48 8d 05 e1 bd 00 00 	lea    0xbde1(%rip),%rax        # 1d07c <g_153>
   1129b:	48 89 85 68 fa ff ff 	mov    %rax,-0x598(%rbp)
   112a2:	48 8d 05 af bd 00 00 	lea    0xbdaf(%rip),%rax        # 1d058 <g_29+0x8>
   112a9:	48 89 85 70 fa ff ff 	mov    %rax,-0x590(%rbp)
   112b0:	48 8d 05 8d bd 00 00 	lea    0xbd8d(%rip),%rax        # 1d044 <g_7>
   112b7:	48 89 85 78 fa ff ff 	mov    %rax,-0x588(%rbp)
   112be:	48 8d 05 7f bd 00 00 	lea    0xbd7f(%rip),%rax        # 1d044 <g_7>
   112c5:	48 89 85 80 fa ff ff 	mov    %rax,-0x580(%rbp)
   112cc:	48 8d 05 71 bd 00 00 	lea    0xbd71(%rip),%rax        # 1d044 <g_7>
   112d3:	48 89 85 88 fa ff ff 	mov    %rax,-0x578(%rbp)
   112da:	48 8d 05 9b bd 00 00 	lea    0xbd9b(%rip),%rax        # 1d07c <g_153>
   112e1:	48 89 85 90 fa ff ff 	mov    %rax,-0x570(%rbp)
   112e8:	48 8d 05 69 bd 00 00 	lea    0xbd69(%rip),%rax        # 1d058 <g_29+0x8>
   112ef:	48 89 85 98 fa ff ff 	mov    %rax,-0x568(%rbp)
   112f6:	48 8d 85 2c e3 ff ff 	lea    -0x1cd4(%rbp),%rax
   112fd:	48 89 85 a0 fa ff ff 	mov    %rax,-0x560(%rbp)
   11304:	48 8d 05 71 bd 00 00 	lea    0xbd71(%rip),%rax        # 1d07c <g_153>
   1130b:	48 89 85 a8 fa ff ff 	mov    %rax,-0x558(%rbp)
   11312:	48 8d 05 2b bd 00 00 	lea    0xbd2b(%rip),%rax        # 1d044 <g_7>
   11319:	48 89 85 b0 fa ff ff 	mov    %rax,-0x550(%rbp)
   11320:	48 8d 05 b9 bd 00 00 	lea    0xbdb9(%rip),%rax        # 1d0e0 <g_394>
   11327:	48 89 85 b8 fa ff ff 	mov    %rax,-0x548(%rbp)
   1132e:	48 8d 05 ab bd 00 00 	lea    0xbdab(%rip),%rax        # 1d0e0 <g_394>
   11335:	48 89 85 c0 fa ff ff 	mov    %rax,-0x540(%rbp)
   1133c:	48 8d 05 39 bd 00 00 	lea    0xbd39(%rip),%rax        # 1d07c <g_153>
   11343:	48 89 85 c8 fa ff ff 	mov    %rax,-0x538(%rbp)
   1134a:	48 8d 05 f3 bc 00 00 	lea    0xbcf3(%rip),%rax        # 1d044 <g_7>
   11351:	48 89 85 d0 fa ff ff 	mov    %rax,-0x530(%rbp)
   11358:	48 8d 85 2c e3 ff ff 	lea    -0x1cd4(%rbp),%rax
   1135f:	48 89 85 d8 fa ff ff 	mov    %rax,-0x528(%rbp)
   11366:	48 8d 05 eb bc 00 00 	lea    0xbceb(%rip),%rax        # 1d058 <g_29+0x8>
   1136d:	48 89 85 e0 fa ff ff 	mov    %rax,-0x520(%rbp)
   11374:	48 c7 85 e8 fa ff ff 	movq   $0x0,-0x518(%rbp)
   1137b:	00 00 00 00 
   1137f:	48 8d 05 d2 bc 00 00 	lea    0xbcd2(%rip),%rax        # 1d058 <g_29+0x8>
   11386:	48 89 85 f0 fa ff ff 	mov    %rax,-0x510(%rbp)
   1138d:	48 8d 05 e8 bc 00 00 	lea    0xbce8(%rip),%rax        # 1d07c <g_153>
   11394:	48 89 85 f8 fa ff ff 	mov    %rax,-0x508(%rbp)
   1139b:	48 8d 05 c6 bc 00 00 	lea    0xbcc6(%rip),%rax        # 1d068 <g_76>
   113a2:	48 89 85 00 fb ff ff 	mov    %rax,-0x500(%rbp)
   113a9:	48 c7 85 08 fb ff ff 	movq   $0x0,-0x4f8(%rbp)
   113b0:	00 00 00 00 
   113b4:	48 8d 05 9d bc 00 00 	lea    0xbc9d(%rip),%rax        # 1d058 <g_29+0x8>
   113bb:	48 89 85 10 fb ff ff 	mov    %rax,-0x4f0(%rbp)
   113c2:	48 c7 85 18 fb ff ff 	movq   $0x0,-0x4e8(%rbp)
   113c9:	00 00 00 00 
   113cd:	48 8d 85 2c e3 ff ff 	lea    -0x1cd4(%rbp),%rax
   113d4:	48 89 85 20 fb ff ff 	mov    %rax,-0x4e0(%rbp)
   113db:	48 c7 85 28 fb ff ff 	movq   $0x0,-0x4d8(%rbp)
   113e2:	00 00 00 00 
   113e6:	48 8d 05 73 bc 00 00 	lea    0xbc73(%rip),%rax        # 1d060 <g_29+0x10>
   113ed:	48 89 85 30 fb ff ff 	mov    %rax,-0x4d0(%rbp)
   113f4:	48 8d 05 5d bc 00 00 	lea    0xbc5d(%rip),%rax        # 1d058 <g_29+0x8>
   113fb:	48 89 85 38 fb ff ff 	mov    %rax,-0x4c8(%rbp)
   11402:	48 8d 05 4f bc 00 00 	lea    0xbc4f(%rip),%rax        # 1d058 <g_29+0x8>
   11409:	48 89 85 40 fb ff ff 	mov    %rax,-0x4c0(%rbp)
   11410:	48 8d 05 41 bc 00 00 	lea    0xbc41(%rip),%rax        # 1d058 <g_29+0x8>
   11417:	48 89 85 48 fb ff ff 	mov    %rax,-0x4b8(%rbp)
   1141e:	48 8d 05 57 bc 00 00 	lea    0xbc57(%rip),%rax        # 1d07c <g_153>
   11425:	48 89 85 50 fb ff ff 	mov    %rax,-0x4b0(%rbp)
   1142c:	48 c7 85 58 fb ff ff 	movq   $0x0,-0x4a8(%rbp)
   11433:	00 00 00 00 
   11437:	48 c7 85 60 fb ff ff 	movq   $0x0,-0x4a0(%rbp)
   1143e:	00 00 00 00 
   11442:	48 8d 05 0f bc 00 00 	lea    0xbc0f(%rip),%rax        # 1d058 <g_29+0x8>
   11449:	48 89 85 68 fb ff ff 	mov    %rax,-0x498(%rbp)
   11450:	48 8d 05 25 bc 00 00 	lea    0xbc25(%rip),%rax        # 1d07c <g_153>
   11457:	48 89 85 70 fb ff ff 	mov    %rax,-0x490(%rbp)
   1145e:	48 8d 05 f7 bb 00 00 	lea    0xbbf7(%rip),%rax        # 1d05c <g_29+0xc>
   11465:	48 89 85 78 fb ff ff 	mov    %rax,-0x488(%rbp)
   1146c:	48 8d 05 e5 bb 00 00 	lea    0xbbe5(%rip),%rax        # 1d058 <g_29+0x8>
   11473:	48 89 85 80 fb ff ff 	mov    %rax,-0x480(%rbp)
   1147a:	48 c7 85 88 fb ff ff 	movq   $0x0,-0x478(%rbp)
   11481:	00 00 00 00 
   11485:	48 8d 05 cc bb 00 00 	lea    0xbbcc(%rip),%rax        # 1d058 <g_29+0x8>
   1148c:	48 89 85 90 fb ff ff 	mov    %rax,-0x470(%rbp)
   11493:	48 8d 05 ce bb 00 00 	lea    0xbbce(%rip),%rax        # 1d068 <g_76>
   1149a:	48 89 85 98 fb ff ff 	mov    %rax,-0x468(%rbp)
   114a1:	48 c7 85 a0 fb ff ff 	movq   $0x0,-0x460(%rbp)
   114a8:	00 00 00 00 
   114ac:	48 8d 05 a5 bb 00 00 	lea    0xbba5(%rip),%rax        # 1d058 <g_29+0x8>
   114b3:	48 89 85 a8 fb ff ff 	mov    %rax,-0x458(%rbp)
   114ba:	48 8d 05 97 bb 00 00 	lea    0xbb97(%rip),%rax        # 1d058 <g_29+0x8>
   114c1:	48 89 85 b0 fb ff ff 	mov    %rax,-0x450(%rbp)
   114c8:	48 c7 85 b8 fb ff ff 	movq   $0x0,-0x448(%rbp)
   114cf:	00 00 00 00 
   114d3:	48 8d 05 7e bb 00 00 	lea    0xbb7e(%rip),%rax        # 1d058 <g_29+0x8>
   114da:	48 89 85 c0 fb ff ff 	mov    %rax,-0x440(%rbp)
   114e1:	48 8d 05 70 bb 00 00 	lea    0xbb70(%rip),%rax        # 1d058 <g_29+0x8>
   114e8:	48 89 85 c8 fb ff ff 	mov    %rax,-0x438(%rbp)
   114ef:	48 8d 05 62 bb 00 00 	lea    0xbb62(%rip),%rax        # 1d058 <g_29+0x8>
   114f6:	48 89 85 d0 fb ff ff 	mov    %rax,-0x430(%rbp)
   114fd:	48 8d 05 54 bb 00 00 	lea    0xbb54(%rip),%rax        # 1d058 <g_29+0x8>
   11504:	48 89 85 d8 fb ff ff 	mov    %rax,-0x428(%rbp)
   1150b:	48 8d 85 2c e3 ff ff 	lea    -0x1cd4(%rbp),%rax
   11512:	48 89 85 e0 fb ff ff 	mov    %rax,-0x420(%rbp)
   11519:	48 8d 05 5c bb 00 00 	lea    0xbb5c(%rip),%rax        # 1d07c <g_153>
   11520:	48 89 85 e8 fb ff ff 	mov    %rax,-0x418(%rbp)
   11527:	48 8d 05 2a bb 00 00 	lea    0xbb2a(%rip),%rax        # 1d058 <g_29+0x8>
   1152e:	48 89 85 f0 fb ff ff 	mov    %rax,-0x410(%rbp)
   11535:	48 8d 05 2c bb 00 00 	lea    0xbb2c(%rip),%rax        # 1d068 <g_76>
   1153c:	48 89 85 f8 fb ff ff 	mov    %rax,-0x408(%rbp)
   11543:	48 8d 05 0e bb 00 00 	lea    0xbb0e(%rip),%rax        # 1d058 <g_29+0x8>
   1154a:	48 89 85 00 fc ff ff 	mov    %rax,-0x400(%rbp)
   11551:	48 c7 85 08 fc ff ff 	movq   $0x0,-0x3f8(%rbp)
   11558:	00 00 00 00 
   1155c:	48 8d 05 e1 ba 00 00 	lea    0xbae1(%rip),%rax        # 1d044 <g_7>
   11563:	48 89 85 10 fc ff ff 	mov    %rax,-0x3f0(%rbp)
   1156a:	48 8d 85 2c e3 ff ff 	lea    -0x1cd4(%rbp),%rax
   11571:	48 89 85 18 fc ff ff 	mov    %rax,-0x3e8(%rbp)
   11578:	48 c7 85 20 fc ff ff 	movq   $0x0,-0x3e0(%rbp)
   1157f:	00 00 00 00 
   11583:	48 8d 05 56 bb 00 00 	lea    0xbb56(%rip),%rax        # 1d0e0 <g_394>
   1158a:	48 89 85 28 fc ff ff 	mov    %rax,-0x3d8(%rbp)
   11591:	48 c7 85 30 fc ff ff 	movq   $0x0,-0x3d0(%rbp)
   11598:	00 00 00 00 
   1159c:	48 8d 05 a1 ba 00 00 	lea    0xbaa1(%rip),%rax        # 1d044 <g_7>
   115a3:	48 89 85 38 fc ff ff 	mov    %rax,-0x3c8(%rbp)
   115aa:	48 c7 85 40 fc ff ff 	movq   $0x0,-0x3c0(%rbp)
   115b1:	00 00 00 00 
   115b5:	48 c7 85 48 fc ff ff 	movq   $0x0,-0x3b8(%rbp)
   115bc:	00 00 00 00 
   115c0:	48 c7 85 50 fc ff ff 	movq   $0x0,-0x3b0(%rbp)
   115c7:	00 00 00 00 
   115cb:	48 8d 05 86 ba 00 00 	lea    0xba86(%rip),%rax        # 1d058 <g_29+0x8>
   115d2:	48 89 85 58 fc ff ff 	mov    %rax,-0x3a8(%rbp)
   115d9:	48 8d 05 00 bb 00 00 	lea    0xbb00(%rip),%rax        # 1d0e0 <g_394>
   115e0:	48 89 85 60 fc ff ff 	mov    %rax,-0x3a0(%rbp)
   115e7:	48 8d 05 8e ba 00 00 	lea    0xba8e(%rip),%rax        # 1d07c <g_153>
   115ee:	48 89 85 68 fc ff ff 	mov    %rax,-0x398(%rbp)
   115f5:	48 8d 05 60 ba 00 00 	lea    0xba60(%rip),%rax        # 1d05c <g_29+0xc>
   115fc:	48 89 85 70 fc ff ff 	mov    %rax,-0x390(%rbp)
   11603:	48 8d 05 5e ba 00 00 	lea    0xba5e(%rip),%rax        # 1d068 <g_76>
   1160a:	48 89 85 78 fc ff ff 	mov    %rax,-0x388(%rbp)
   11611:	48 8d 05 40 ba 00 00 	lea    0xba40(%rip),%rax        # 1d058 <g_29+0x8>
   11618:	48 89 85 80 fc ff ff 	mov    %rax,-0x380(%rbp)
   1161f:	48 8d 05 32 ba 00 00 	lea    0xba32(%rip),%rax        # 1d058 <g_29+0x8>
   11626:	48 89 85 88 fc ff ff 	mov    %rax,-0x378(%rbp)
   1162d:	48 8d 05 48 ba 00 00 	lea    0xba48(%rip),%rax        # 1d07c <g_153>
   11634:	48 89 85 90 fc ff ff 	mov    %rax,-0x370(%rbp)
   1163b:	48 8d 05 16 ba 00 00 	lea    0xba16(%rip),%rax        # 1d058 <g_29+0x8>
   11642:	48 89 85 98 fc ff ff 	mov    %rax,-0x368(%rbp)
   11649:	48 8d 05 2c ba 00 00 	lea    0xba2c(%rip),%rax        # 1d07c <g_153>
   11650:	48 89 85 a0 fc ff ff 	mov    %rax,-0x360(%rbp)
   11657:	48 8d 05 fa b9 00 00 	lea    0xb9fa(%rip),%rax        # 1d058 <g_29+0x8>
   1165e:	48 89 85 a8 fc ff ff 	mov    %rax,-0x358(%rbp)
   11665:	48 c7 85 b0 fc ff ff 	movq   $0x0,-0x350(%rbp)
   1166c:	00 00 00 00 
   11670:	48 8d 05 d9 b9 00 00 	lea    0xb9d9(%rip),%rax        # 1d050 <g_29>
   11677:	48 89 85 b8 fc ff ff 	mov    %rax,-0x348(%rbp)
   1167e:	48 8d 05 bf b9 00 00 	lea    0xb9bf(%rip),%rax        # 1d044 <g_7>
   11685:	48 89 85 c0 fc ff ff 	mov    %rax,-0x340(%rbp)
   1168c:	48 c7 85 c8 fc ff ff 	movq   $0x0,-0x338(%rbp)
   11693:	00 00 00 00 
   11697:	48 8d 05 be b9 00 00 	lea    0xb9be(%rip),%rax        # 1d05c <g_29+0xc>
   1169e:	48 89 85 d0 fc ff ff 	mov    %rax,-0x330(%rbp)
   116a5:	48 8d 05 d0 b9 00 00 	lea    0xb9d0(%rip),%rax        # 1d07c <g_153>
   116ac:	48 89 85 d8 fc ff ff 	mov    %rax,-0x328(%rbp)
   116b3:	48 8d 05 c2 b9 00 00 	lea    0xb9c2(%rip),%rax        # 1d07c <g_153>
   116ba:	48 89 85 e0 fc ff ff 	mov    %rax,-0x320(%rbp)
   116c1:	48 8d 05 90 b9 00 00 	lea    0xb990(%rip),%rax        # 1d058 <g_29+0x8>
   116c8:	48 89 85 e8 fc ff ff 	mov    %rax,-0x318(%rbp)
   116cf:	48 8d 85 2c e3 ff ff 	lea    -0x1cd4(%rbp),%rax
   116d6:	48 89 85 f0 fc ff ff 	mov    %rax,-0x310(%rbp)
   116dd:	48 8d 05 74 b9 00 00 	lea    0xb974(%rip),%rax        # 1d058 <g_29+0x8>
   116e4:	48 89 85 f8 fc ff ff 	mov    %rax,-0x308(%rbp)
   116eb:	48 8d 05 62 b9 00 00 	lea    0xb962(%rip),%rax        # 1d054 <g_29+0x4>
   116f2:	48 89 85 00 fd ff ff 	mov    %rax,-0x300(%rbp)
   116f9:	48 8d 05 58 b9 00 00 	lea    0xb958(%rip),%rax        # 1d058 <g_29+0x8>
   11700:	48 89 85 08 fd ff ff 	mov    %rax,-0x2f8(%rbp)
   11707:	48 8d 05 6e b9 00 00 	lea    0xb96e(%rip),%rax        # 1d07c <g_153>
   1170e:	48 89 85 10 fd ff ff 	mov    %rax,-0x2f0(%rbp)
   11715:	48 c7 85 18 fd ff ff 	movq   $0x0,-0x2e8(%rbp)
   1171c:	00 00 00 00 
   11720:	48 8d 05 1d b9 00 00 	lea    0xb91d(%rip),%rax        # 1d044 <g_7>
   11727:	48 89 85 20 fd ff ff 	mov    %rax,-0x2e0(%rbp)
   1172e:	48 c7 85 28 fd ff ff 	movq   $0x0,-0x2d8(%rbp)
   11735:	00 00 00 00 
   11739:	48 8d 05 04 b9 00 00 	lea    0xb904(%rip),%rax        # 1d044 <g_7>
   11740:	48 89 85 30 fd ff ff 	mov    %rax,-0x2d0(%rbp)
   11747:	48 c7 85 38 fd ff ff 	movq   $0x0,-0x2c8(%rbp)
   1174e:	00 00 00 00 
   11752:	48 c7 85 40 fd ff ff 	movq   $0x0,-0x2c0(%rbp)
   11759:	00 00 00 00 
   1175d:	48 c7 85 48 fd ff ff 	movq   $0x0,-0x2b8(%rbp)
   11764:	00 00 00 00 
   11768:	48 8d 05 e9 b8 00 00 	lea    0xb8e9(%rip),%rax        # 1d058 <g_29+0x8>
   1176f:	48 89 85 50 fd ff ff 	mov    %rax,-0x2b0(%rbp)
   11776:	48 8d 05 db b8 00 00 	lea    0xb8db(%rip),%rax        # 1d058 <g_29+0x8>
   1177d:	48 89 85 58 fd ff ff 	mov    %rax,-0x2a8(%rbp)
   11784:	48 c7 85 60 fd ff ff 	movq   $0x0,-0x2a0(%rbp)
   1178b:	00 00 00 00 
   1178f:	48 c7 85 68 fd ff ff 	movq   $0x0,-0x298(%rbp)
   11796:	00 00 00 00 
   1179a:	48 8d 05 3f b9 00 00 	lea    0xb93f(%rip),%rax        # 1d0e0 <g_394>
   117a1:	48 89 85 70 fd ff ff 	mov    %rax,-0x290(%rbp)
   117a8:	48 8d 05 cd b8 00 00 	lea    0xb8cd(%rip),%rax        # 1d07c <g_153>
   117af:	48 89 85 78 fd ff ff 	mov    %rax,-0x288(%rbp)
   117b6:	48 8d 05 9b b8 00 00 	lea    0xb89b(%rip),%rax        # 1d058 <g_29+0x8>
   117bd:	48 89 85 80 fd ff ff 	mov    %rax,-0x280(%rbp)
   117c4:	48 8d 05 b1 b8 00 00 	lea    0xb8b1(%rip),%rax        # 1d07c <g_153>
   117cb:	48 89 85 88 fd ff ff 	mov    %rax,-0x278(%rbp)
   117d2:	48 8d 05 a3 b8 00 00 	lea    0xb8a3(%rip),%rax        # 1d07c <g_153>
   117d9:	48 89 85 90 fd ff ff 	mov    %rax,-0x270(%rbp)
   117e0:	48 8d 05 71 b8 00 00 	lea    0xb871(%rip),%rax        # 1d058 <g_29+0x8>
   117e7:	48 89 85 98 fd ff ff 	mov    %rax,-0x268(%rbp)
   117ee:	48 8d 05 eb b8 00 00 	lea    0xb8eb(%rip),%rax        # 1d0e0 <g_394>
   117f5:	48 89 85 a0 fd ff ff 	mov    %rax,-0x260(%rbp)
   117fc:	48 8d 05 79 b8 00 00 	lea    0xb879(%rip),%rax        # 1d07c <g_153>
   11803:	48 89 85 a8 fd ff ff 	mov    %rax,-0x258(%rbp)
   1180a:	48 8d 05 57 b8 00 00 	lea    0xb857(%rip),%rax        # 1d068 <g_76>
   11811:	48 89 85 b0 fd ff ff 	mov    %rax,-0x250(%rbp)
   11818:	48 8d 85 2c e3 ff ff 	lea    -0x1cd4(%rbp),%rax
   1181f:	48 89 85 b8 fd ff ff 	mov    %rax,-0x248(%rbp)
   11826:	48 c7 85 c0 fd ff ff 	movq   $0x0,-0x240(%rbp)
   1182d:	00 00 00 00 
   11831:	48 8d 05 0c b8 00 00 	lea    0xb80c(%rip),%rax        # 1d044 <g_7>
   11838:	48 89 85 c8 fd ff ff 	mov    %rax,-0x238(%rbp)
   1183f:	48 8d 05 16 b8 00 00 	lea    0xb816(%rip),%rax        # 1d05c <g_29+0xc>
   11846:	48 89 85 d0 fd ff ff 	mov    %rax,-0x230(%rbp)
   1184d:	48 8d 05 04 b8 00 00 	lea    0xb804(%rip),%rax        # 1d058 <g_29+0x8>
   11854:	48 89 85 d8 fd ff ff 	mov    %rax,-0x228(%rbp)
   1185b:	48 c7 85 e0 fd ff ff 	movq   $0x0,-0x220(%rbp)
   11862:	00 00 00 00 
   11866:	48 8d 05 0f b8 00 00 	lea    0xb80f(%rip),%rax        # 1d07c <g_153>
   1186d:	48 89 85 e8 fd ff ff 	mov    %rax,-0x218(%rbp)
   11874:	48 c7 85 f0 fd ff ff 	movq   $0x0,-0x210(%rbp)
   1187b:	00 00 00 00 
   1187f:	48 8d 05 d2 b7 00 00 	lea    0xb7d2(%rip),%rax        # 1d058 <g_29+0x8>
   11886:	48 89 85 f8 fd ff ff 	mov    %rax,-0x208(%rbp)
   1188d:	48 8d 05 c4 b7 00 00 	lea    0xb7c4(%rip),%rax        # 1d058 <g_29+0x8>
   11894:	48 89 85 00 fe ff ff 	mov    %rax,-0x200(%rbp)
   1189b:	48 c7 85 08 fe ff ff 	movq   $0x0,-0x1f8(%rbp)
   118a2:	00 00 00 00 
   118a6:	48 c7 85 10 fe ff ff 	movq   $0x0,-0x1f0(%rbp)
   118ad:	00 00 00 00 
   118b1:	48 c7 85 18 fe ff ff 	movq   $0x0,-0x1e8(%rbp)
   118b8:	00 00 00 00 
   118bc:	48 8d 05 a5 b7 00 00 	lea    0xb7a5(%rip),%rax        # 1d068 <g_76>
   118c3:	48 89 85 20 fe ff ff 	mov    %rax,-0x1e0(%rbp)
   118ca:	48 8d 05 73 b7 00 00 	lea    0xb773(%rip),%rax        # 1d044 <g_7>
   118d1:	48 89 85 28 fe ff ff 	mov    %rax,-0x1d8(%rbp)
   118d8:	48 8d 05 79 b7 00 00 	lea    0xb779(%rip),%rax        # 1d058 <g_29+0x8>
   118df:	48 89 85 30 fe ff ff 	mov    %rax,-0x1d0(%rbp)
   118e6:	48 8d 05 57 b7 00 00 	lea    0xb757(%rip),%rax        # 1d044 <g_7>
   118ed:	48 89 85 38 fe ff ff 	mov    %rax,-0x1c8(%rbp)
   118f4:	48 8d 05 5d b7 00 00 	lea    0xb75d(%rip),%rax        # 1d058 <g_29+0x8>
   118fb:	48 89 85 40 fe ff ff 	mov    %rax,-0x1c0(%rbp)
   11902:	48 c7 85 48 fe ff ff 	movq   $0x0,-0x1b8(%rbp)
   11909:	00 00 00 00 
   1190d:	48 c7 85 50 fe ff ff 	movq   $0x0,-0x1b0(%rbp)
   11914:	00 00 00 00 
   11918:	48 8d 05 39 b7 00 00 	lea    0xb739(%rip),%rax        # 1d058 <g_29+0x8>
   1191f:	48 89 85 58 fe ff ff 	mov    %rax,-0x1a8(%rbp)
   11926:	48 8d 05 3b b7 00 00 	lea    0xb73b(%rip),%rax        # 1d068 <g_76>
   1192d:	48 89 85 60 fe ff ff 	mov    %rax,-0x1a0(%rbp)
   11934:	48 8d 05 15 b7 00 00 	lea    0xb715(%rip),%rax        # 1d050 <g_29>
   1193b:	48 89 85 68 fe ff ff 	mov    %rax,-0x198(%rbp)
   11942:	48 c7 85 70 fe ff ff 	movq   $0x0,-0x190(%rbp)
   11949:	00 00 00 00 
   1194d:	48 8d 85 2c e3 ff ff 	lea    -0x1cd4(%rbp),%rax
   11954:	48 89 85 78 fe ff ff 	mov    %rax,-0x188(%rbp)
   1195b:	48 8d 05 06 b7 00 00 	lea    0xb706(%rip),%rax        # 1d068 <g_76>
   11962:	48 89 85 80 fe ff ff 	mov    %rax,-0x180(%rbp)
   11969:	48 8d 05 e8 b6 00 00 	lea    0xb6e8(%rip),%rax        # 1d058 <g_29+0x8>
   11970:	48 89 85 88 fe ff ff 	mov    %rax,-0x178(%rbp)
   11977:	48 c7 85 90 fe ff ff 	movq   $0x0,-0x170(%rbp)
   1197e:	00 00 00 00 
   11982:	48 8d 05 d3 b6 00 00 	lea    0xb6d3(%rip),%rax        # 1d05c <g_29+0xc>
   11989:	48 89 85 98 fe ff ff 	mov    %rax,-0x168(%rbp)
   11990:	48 8d 05 c5 b6 00 00 	lea    0xb6c5(%rip),%rax        # 1d05c <g_29+0xc>
   11997:	48 89 85 a0 fe ff ff 	mov    %rax,-0x160(%rbp)
   1199e:	48 c7 85 a8 fe ff ff 	movq   $0x0,-0x158(%rbp)
   119a5:	00 00 00 00 
   119a9:	48 8d 85 2c e3 ff ff 	lea    -0x1cd4(%rbp),%rax
   119b0:	48 89 85 b0 fe ff ff 	mov    %rax,-0x150(%rbp)
   119b7:	48 8d 05 86 b6 00 00 	lea    0xb686(%rip),%rax        # 1d044 <g_7>
   119be:	48 89 85 b8 fe ff ff 	mov    %rax,-0x148(%rbp)
   119c5:	48 c7 85 c0 fe ff ff 	movq   $0x0,-0x140(%rbp)
   119cc:	00 00 00 00 
   119d0:	48 8d 05 6d b6 00 00 	lea    0xb66d(%rip),%rax        # 1d044 <g_7>
   119d7:	48 89 85 c8 fe ff ff 	mov    %rax,-0x138(%rbp)
   119de:	48 8d 05 6f b6 00 00 	lea    0xb66f(%rip),%rax        # 1d054 <g_29+0x4>
   119e5:	48 89 85 d0 fe ff ff 	mov    %rax,-0x130(%rbp)
   119ec:	48 8d 05 51 b6 00 00 	lea    0xb651(%rip),%rax        # 1d044 <g_7>
   119f3:	48 89 85 d8 fe ff ff 	mov    %rax,-0x128(%rbp)
   119fa:	48 c7 85 e0 fe ff ff 	movq   $0x0,-0x120(%rbp)
   11a01:	00 00 00 00 
   11a05:	48 8d 05 4c b6 00 00 	lea    0xb64c(%rip),%rax        # 1d058 <g_29+0x8>
   11a0c:	48 89 85 e8 fe ff ff 	mov    %rax,-0x118(%rbp)
   11a13:	48 8d 85 2c e3 ff ff 	lea    -0x1cd4(%rbp),%rax
   11a1a:	48 89 85 f0 fe ff ff 	mov    %rax,-0x110(%rbp)
   11a21:	48 8d 05 30 b6 00 00 	lea    0xb630(%rip),%rax        # 1d058 <g_29+0x8>
   11a28:	48 89 85 f8 fe ff ff 	mov    %rax,-0x108(%rbp)
   11a2f:	48 8d 85 2c e3 ff ff 	lea    -0x1cd4(%rbp),%rax
   11a36:	48 89 85 00 ff ff ff 	mov    %rax,-0x100(%rbp)
   11a3d:	48 8d 05 24 b6 00 00 	lea    0xb624(%rip),%rax        # 1d068 <g_76>
   11a44:	48 89 85 08 ff ff ff 	mov    %rax,-0xf8(%rbp)
   11a4b:	48 8d 05 0e b6 00 00 	lea    0xb60e(%rip),%rax        # 1d060 <g_29+0x10>
   11a52:	48 89 85 10 ff ff ff 	mov    %rax,-0xf0(%rbp)
   11a59:	48 8d 05 e4 b5 00 00 	lea    0xb5e4(%rip),%rax        # 1d044 <g_7>
   11a60:	48 89 85 18 ff ff ff 	mov    %rax,-0xe8(%rbp)
   11a67:	48 8d 05 ea b5 00 00 	lea    0xb5ea(%rip),%rax        # 1d058 <g_29+0x8>
   11a6e:	48 89 85 20 ff ff ff 	mov    %rax,-0xe0(%rbp)
   11a75:	48 8d 05 c8 b5 00 00 	lea    0xb5c8(%rip),%rax        # 1d044 <g_7>
   11a7c:	48 89 85 28 ff ff ff 	mov    %rax,-0xd8(%rbp)
   11a83:	48 8d 05 d6 b5 00 00 	lea    0xb5d6(%rip),%rax        # 1d060 <g_29+0x10>
   11a8a:	48 89 85 30 ff ff ff 	mov    %rax,-0xd0(%rbp)
   11a91:	48 8d 05 d0 b5 00 00 	lea    0xb5d0(%rip),%rax        # 1d068 <g_76>
   11a98:	48 89 85 38 ff ff ff 	mov    %rax,-0xc8(%rbp)
   11a9f:	48 8d 05 d6 b5 00 00 	lea    0xb5d6(%rip),%rax        # 1d07c <g_153>
   11aa6:	48 89 85 40 ff ff ff 	mov    %rax,-0xc0(%rbp)
   11aad:	48 8d 05 a4 b5 00 00 	lea    0xb5a4(%rip),%rax        # 1d058 <g_29+0x8>
   11ab4:	48 89 85 48 ff ff ff 	mov    %rax,-0xb8(%rbp)
   11abb:	48 8d 05 96 b5 00 00 	lea    0xb596(%rip),%rax        # 1d058 <g_29+0x8>
   11ac2:	48 89 85 50 ff ff ff 	mov    %rax,-0xb0(%rbp)
   11ac9:	48 c7 85 58 ff ff ff 	movq   $0x0,-0xa8(%rbp)
   11ad0:	00 00 00 00 
   11ad4:	48 c7 85 60 ff ff ff 	movq   $0x0,-0xa0(%rbp)
   11adb:	00 00 00 00 
   11adf:	48 8d 05 72 b5 00 00 	lea    0xb572(%rip),%rax        # 1d058 <g_29+0x8>
   11ae6:	48 89 85 68 ff ff ff 	mov    %rax,-0x98(%rbp)
   11aed:	48 8d 05 ec b5 00 00 	lea    0xb5ec(%rip),%rax        # 1d0e0 <g_394>
   11af4:	48 89 85 70 ff ff ff 	mov    %rax,-0x90(%rbp)
   11afb:	48 8d 85 2c e3 ff ff 	lea    -0x1cd4(%rbp),%rax
   11b02:	48 89 85 78 ff ff ff 	mov    %rax,-0x88(%rbp)
   11b09:	48 8d 05 6c b5 00 00 	lea    0xb56c(%rip),%rax        # 1d07c <g_153>
   11b10:	48 89 45 80          	mov    %rax,-0x80(%rbp)
   11b14:	48 c7 45 88 00 00 00 	movq   $0x0,-0x78(%rbp)
   11b1b:	00 
   11b1c:	48 c7 45 90 00 00 00 	movq   $0x0,-0x70(%rbp)
   11b23:	00 
   11b24:	48 8d 05 2d b5 00 00 	lea    0xb52d(%rip),%rax        # 1d058 <g_29+0x8>
   11b2b:	48 89 45 98          	mov    %rax,-0x68(%rbp)
   11b2f:	48 8d 05 46 b5 00 00 	lea    0xb546(%rip),%rax        # 1d07c <g_153>
   11b36:	48 89 45 a0          	mov    %rax,-0x60(%rbp)
   11b3a:	48 8d 05 17 b5 00 00 	lea    0xb517(%rip),%rax        # 1d058 <g_29+0x8>
   11b41:	48 89 45 a8          	mov    %rax,-0x58(%rbp)
   11b45:	48 8d 05 94 b5 00 00 	lea    0xb594(%rip),%rax        # 1d0e0 <g_394>
   11b4c:	48 89 45 b0          	mov    %rax,-0x50(%rbp)
   11b50:	48 8d 05 01 b5 00 00 	lea    0xb501(%rip),%rax        # 1d058 <g_29+0x8>
   11b57:	48 89 45 b8          	mov    %rax,-0x48(%rbp)
   11b5b:	c7 85 30 e3 ff ff f7 	movl   $0xfffffff7,-0x1cd0(%rbp)
   11b62:	ff ff ff 
   11b65:	c7 85 34 e3 ff ff 00 	movl   $0x0,-0x1ccc(%rbp)
   11b6c:	00 00 00 
   11b6f:	48 8d 05 24 f8 00 00 	lea    0xf824(%rip),%rax        # 2139a <g_231>
   11b76:	48 89 85 88 e3 ff ff 	mov    %rax,-0x1c78(%rbp)
   11b7d:	48 8d 85 88 e3 ff ff 	lea    -0x1c78(%rbp),%rax
   11b84:	48 89 85 90 e3 ff ff 	mov    %rax,-0x1c70(%rbp)
   11b8b:	48 c7 85 b8 e3 ff ff 	movq   $0x0,-0x1c48(%rbp)
   11b92:	00 00 00 00 
   11b96:	48 8d 85 90 e3 ff ff 	lea    -0x1c70(%rbp),%rax
   11b9d:	48 89 85 e0 ef ff ff 	mov    %rax,-0x1020(%rbp)
   11ba4:	48 8d 85 90 e3 ff ff 	lea    -0x1c70(%rbp),%rax
   11bab:	48 89 85 e8 ef ff ff 	mov    %rax,-0x1018(%rbp)
   11bb2:	48 c7 85 f0 ef ff ff 	movq   $0x0,-0x1010(%rbp)
   11bb9:	00 00 00 00 
   11bbd:	48 8d 85 90 e3 ff ff 	lea    -0x1c70(%rbp),%rax
   11bc4:	48 89 85 f8 ef ff ff 	mov    %rax,-0x1008(%rbp)
   11bcb:	48 8d 85 90 e3 ff ff 	lea    -0x1c70(%rbp),%rax
   11bd2:	48 89 85 00 f0 ff ff 	mov    %rax,-0x1000(%rbp)
   11bd9:	48 c7 85 08 f0 ff ff 	movq   $0x0,-0xff8(%rbp)
   11be0:	00 00 00 00 
   11be4:	48 8d 85 90 e3 ff ff 	lea    -0x1c70(%rbp),%rax
   11beb:	48 89 85 10 f0 ff ff 	mov    %rax,-0xff0(%rbp)
   11bf2:	48 8d 85 90 e3 ff ff 	lea    -0x1c70(%rbp),%rax
   11bf9:	48 89 85 18 f0 ff ff 	mov    %rax,-0xfe8(%rbp)
   11c00:	48 8d 85 90 e3 ff ff 	lea    -0x1c70(%rbp),%rax
   11c07:	48 89 85 20 f0 ff ff 	mov    %rax,-0xfe0(%rbp)
   11c0e:	48 8d 85 90 e3 ff ff 	lea    -0x1c70(%rbp),%rax
   11c15:	48 89 85 28 f0 ff ff 	mov    %rax,-0xfd8(%rbp)
   11c1c:	48 8d 85 90 e3 ff ff 	lea    -0x1c70(%rbp),%rax
   11c23:	48 89 85 30 f0 ff ff 	mov    %rax,-0xfd0(%rbp)
   11c2a:	48 8d 85 90 e3 ff ff 	lea    -0x1c70(%rbp),%rax
   11c31:	48 89 85 38 f0 ff ff 	mov    %rax,-0xfc8(%rbp)
   11c38:	48 8d 85 90 e3 ff ff 	lea    -0x1c70(%rbp),%rax
   11c3f:	48 89 85 40 f0 ff ff 	mov    %rax,-0xfc0(%rbp)
   11c46:	48 8d 85 90 e3 ff ff 	lea    -0x1c70(%rbp),%rax
   11c4d:	48 89 85 48 f0 ff ff 	mov    %rax,-0xfb8(%rbp)
   11c54:	48 8d 85 90 e3 ff ff 	lea    -0x1c70(%rbp),%rax
   11c5b:	48 89 85 50 f0 ff ff 	mov    %rax,-0xfb0(%rbp)
   11c62:	48 c7 85 58 f0 ff ff 	movq   $0x0,-0xfa8(%rbp)
   11c69:	00 00 00 00 
   11c6d:	48 8d 85 90 e3 ff ff 	lea    -0x1c70(%rbp),%rax
   11c74:	48 89 85 60 f0 ff ff 	mov    %rax,-0xfa0(%rbp)
   11c7b:	48 8d 85 90 e3 ff ff 	lea    -0x1c70(%rbp),%rax
   11c82:	48 89 85 68 f0 ff ff 	mov    %rax,-0xf98(%rbp)
   11c89:	48 8d 85 90 e3 ff ff 	lea    -0x1c70(%rbp),%rax
   11c90:	48 89 85 70 f0 ff ff 	mov    %rax,-0xf90(%rbp)
   11c97:	48 8d 85 90 e3 ff ff 	lea    -0x1c70(%rbp),%rax
   11c9e:	48 89 85 78 f0 ff ff 	mov    %rax,-0xf88(%rbp)
   11ca5:	48 c7 85 80 f0 ff ff 	movq   $0x0,-0xf80(%rbp)
   11cac:	00 00 00 00 
   11cb0:	48 8d 85 90 e3 ff ff 	lea    -0x1c70(%rbp),%rax
   11cb7:	48 89 85 88 f0 ff ff 	mov    %rax,-0xf78(%rbp)
   11cbe:	48 8d 85 90 e3 ff ff 	lea    -0x1c70(%rbp),%rax
   11cc5:	48 89 85 90 f0 ff ff 	mov    %rax,-0xf70(%rbp)
   11ccc:	48 c7 85 98 f0 ff ff 	movq   $0x0,-0xf68(%rbp)
   11cd3:	00 00 00 00 
   11cd7:	48 8d 85 90 e3 ff ff 	lea    -0x1c70(%rbp),%rax
   11cde:	48 89 85 a0 f0 ff ff 	mov    %rax,-0xf60(%rbp)
   11ce5:	48 8d 85 90 e3 ff ff 	lea    -0x1c70(%rbp),%rax
   11cec:	48 89 85 a8 f0 ff ff 	mov    %rax,-0xf58(%rbp)
   11cf3:	48 8d 85 90 e3 ff ff 	lea    -0x1c70(%rbp),%rax
   11cfa:	48 89 85 b0 f0 ff ff 	mov    %rax,-0xf50(%rbp)
   11d01:	48 c7 85 b8 f0 ff ff 	movq   $0x0,-0xf48(%rbp)
   11d08:	00 00 00 00 
   11d0c:	48 8d 85 90 e3 ff ff 	lea    -0x1c70(%rbp),%rax
   11d13:	48 89 85 c0 f0 ff ff 	mov    %rax,-0xf40(%rbp)
   11d1a:	48 c7 85 c8 f0 ff ff 	movq   $0x0,-0xf38(%rbp)
   11d21:	00 00 00 00 
   11d25:	48 8d 85 90 e3 ff ff 	lea    -0x1c70(%rbp),%rax
   11d2c:	48 89 85 d0 f0 ff ff 	mov    %rax,-0xf30(%rbp)
   11d33:	48 c7 85 d8 f0 ff ff 	movq   $0x0,-0xf28(%rbp)
   11d3a:	00 00 00 00 
   11d3e:	48 8d 85 90 e3 ff ff 	lea    -0x1c70(%rbp),%rax
   11d45:	48 89 85 e0 f0 ff ff 	mov    %rax,-0xf20(%rbp)
   11d4c:	48 c7 85 e8 f0 ff ff 	movq   $0x0,-0xf18(%rbp)
   11d53:	00 00 00 00 
   11d57:	48 c7 85 f0 f0 ff ff 	movq   $0x0,-0xf10(%rbp)
   11d5e:	00 00 00 00 
   11d62:	48 8d 85 90 e3 ff ff 	lea    -0x1c70(%rbp),%rax
   11d69:	48 89 85 f8 f0 ff ff 	mov    %rax,-0xf08(%rbp)
   11d70:	48 8d 85 90 e3 ff ff 	lea    -0x1c70(%rbp),%rax
   11d77:	48 89 85 00 f1 ff ff 	mov    %rax,-0xf00(%rbp)
   11d7e:	48 8d 85 90 e3 ff ff 	lea    -0x1c70(%rbp),%rax
   11d85:	48 89 85 08 f1 ff ff 	mov    %rax,-0xef8(%rbp)
   11d8c:	48 8d 85 90 e3 ff ff 	lea    -0x1c70(%rbp),%rax
   11d93:	48 89 85 10 f1 ff ff 	mov    %rax,-0xef0(%rbp)
   11d9a:	48 8d 85 90 e3 ff ff 	lea    -0x1c70(%rbp),%rax
   11da1:	48 89 85 18 f1 ff ff 	mov    %rax,-0xee8(%rbp)
   11da8:	48 8d 85 90 e3 ff ff 	lea    -0x1c70(%rbp),%rax
   11daf:	48 89 85 20 f1 ff ff 	mov    %rax,-0xee0(%rbp)
   11db6:	48 8d 85 90 e3 ff ff 	lea    -0x1c70(%rbp),%rax
   11dbd:	48 89 85 28 f1 ff ff 	mov    %rax,-0xed8(%rbp)
   11dc4:	48 8d 85 90 e3 ff ff 	lea    -0x1c70(%rbp),%rax
   11dcb:	48 89 85 30 f1 ff ff 	mov    %rax,-0xed0(%rbp)
   11dd2:	48 c7 85 38 f1 ff ff 	movq   $0x0,-0xec8(%rbp)
   11dd9:	00 00 00 00 
   11ddd:	48 8d 85 90 e3 ff ff 	lea    -0x1c70(%rbp),%rax
   11de4:	48 89 85 40 f1 ff ff 	mov    %rax,-0xec0(%rbp)
   11deb:	48 8d 85 90 e3 ff ff 	lea    -0x1c70(%rbp),%rax
   11df2:	48 89 85 48 f1 ff ff 	mov    %rax,-0xeb8(%rbp)
   11df9:	48 c7 85 50 f1 ff ff 	movq   $0x0,-0xeb0(%rbp)
   11e00:	00 00 00 00 
   11e04:	48 8d 85 90 e3 ff ff 	lea    -0x1c70(%rbp),%rax
   11e0b:	48 89 85 58 f1 ff ff 	mov    %rax,-0xea8(%rbp)
   11e12:	48 c7 85 60 f1 ff ff 	movq   $0x0,-0xea0(%rbp)
   11e19:	00 00 00 00 
   11e1d:	48 8d 85 90 e3 ff ff 	lea    -0x1c70(%rbp),%rax
   11e24:	48 89 85 68 f1 ff ff 	mov    %rax,-0xe98(%rbp)
   11e2b:	48 c7 85 70 f1 ff ff 	movq   $0x0,-0xe90(%rbp)
   11e32:	00 00 00 00 
   11e36:	48 8d 85 90 e3 ff ff 	lea    -0x1c70(%rbp),%rax
   11e3d:	48 89 85 78 f1 ff ff 	mov    %rax,-0xe88(%rbp)
   11e44:	48 8d 85 90 e3 ff ff 	lea    -0x1c70(%rbp),%rax
   11e4b:	48 89 85 80 f1 ff ff 	mov    %rax,-0xe80(%rbp)
   11e52:	48 8d 85 90 e3 ff ff 	lea    -0x1c70(%rbp),%rax
   11e59:	48 89 85 88 f1 ff ff 	mov    %rax,-0xe78(%rbp)
   11e60:	48 8d 85 90 e3 ff ff 	lea    -0x1c70(%rbp),%rax
   11e67:	48 89 85 90 f1 ff ff 	mov    %rax,-0xe70(%rbp)
   11e6e:	48 8d 85 90 e3 ff ff 	lea    -0x1c70(%rbp),%rax
   11e75:	48 89 85 98 f1 ff ff 	mov    %rax,-0xe68(%rbp)
   11e7c:	48 c7 85 a0 f1 ff ff 	movq   $0x0,-0xe60(%rbp)
   11e83:	00 00 00 00 
   11e87:	48 8d 85 90 e3 ff ff 	lea    -0x1c70(%rbp),%rax
   11e8e:	48 89 85 a8 f1 ff ff 	mov    %rax,-0xe58(%rbp)
   11e95:	48 8d 85 90 e3 ff ff 	lea    -0x1c70(%rbp),%rax
   11e9c:	48 89 85 b0 f1 ff ff 	mov    %rax,-0xe50(%rbp)
   11ea3:	48 8d 85 90 e3 ff ff 	lea    -0x1c70(%rbp),%rax
   11eaa:	48 89 85 b8 f1 ff ff 	mov    %rax,-0xe48(%rbp)
   11eb1:	48 8d 85 90 e3 ff ff 	lea    -0x1c70(%rbp),%rax
   11eb8:	48 89 85 c0 f1 ff ff 	mov    %rax,-0xe40(%rbp)
   11ebf:	48 c7 85 c8 f1 ff ff 	movq   $0x0,-0xe38(%rbp)
   11ec6:	00 00 00 00 
   11eca:	48 8d 85 90 e3 ff ff 	lea    -0x1c70(%rbp),%rax
   11ed1:	48 89 85 d0 f1 ff ff 	mov    %rax,-0xe30(%rbp)
   11ed8:	48 8d 85 90 e3 ff ff 	lea    -0x1c70(%rbp),%rax
   11edf:	48 89 85 d8 f1 ff ff 	mov    %rax,-0xe28(%rbp)
   11ee6:	48 8d 85 90 e3 ff ff 	lea    -0x1c70(%rbp),%rax
   11eed:	48 89 85 e0 f1 ff ff 	mov    %rax,-0xe20(%rbp)
   11ef4:	48 8d 85 90 e3 ff ff 	lea    -0x1c70(%rbp),%rax
   11efb:	48 89 85 e8 f1 ff ff 	mov    %rax,-0xe18(%rbp)
   11f02:	48 8d 85 90 e3 ff ff 	lea    -0x1c70(%rbp),%rax
   11f09:	48 89 85 f0 f1 ff ff 	mov    %rax,-0xe10(%rbp)
   11f10:	48 8d 85 90 e3 ff ff 	lea    -0x1c70(%rbp),%rax
   11f17:	48 89 85 f8 f1 ff ff 	mov    %rax,-0xe08(%rbp)
   11f1e:	48 8d 85 90 e3 ff ff 	lea    -0x1c70(%rbp),%rax
   11f25:	48 89 85 00 f2 ff ff 	mov    %rax,-0xe00(%rbp)
   11f2c:	48 8d 85 90 e3 ff ff 	lea    -0x1c70(%rbp),%rax
   11f33:	48 89 85 08 f2 ff ff 	mov    %rax,-0xdf8(%rbp)
   11f3a:	48 8d 85 90 e3 ff ff 	lea    -0x1c70(%rbp),%rax
   11f41:	48 89 85 10 f2 ff ff 	mov    %rax,-0xdf0(%rbp)
   11f48:	48 8d 85 90 e3 ff ff 	lea    -0x1c70(%rbp),%rax
   11f4f:	48 89 85 18 f2 ff ff 	mov    %rax,-0xde8(%rbp)
   11f56:	48 8d 85 90 e3 ff ff 	lea    -0x1c70(%rbp),%rax
   11f5d:	48 89 85 20 f2 ff ff 	mov    %rax,-0xde0(%rbp)
   11f64:	48 8d 85 90 e3 ff ff 	lea    -0x1c70(%rbp),%rax
   11f6b:	48 89 85 28 f2 ff ff 	mov    %rax,-0xdd8(%rbp)
   11f72:	48 8d 85 90 e3 ff ff 	lea    -0x1c70(%rbp),%rax
   11f79:	48 89 85 30 f2 ff ff 	mov    %rax,-0xdd0(%rbp)
   11f80:	48 8d 85 90 e3 ff ff 	lea    -0x1c70(%rbp),%rax
   11f87:	48 89 85 38 f2 ff ff 	mov    %rax,-0xdc8(%rbp)
   11f8e:	48 c7 85 40 f2 ff ff 	movq   $0x0,-0xdc0(%rbp)
   11f95:	00 00 00 00 
   11f99:	48 8d 85 90 e3 ff ff 	lea    -0x1c70(%rbp),%rax
   11fa0:	48 89 85 48 f2 ff ff 	mov    %rax,-0xdb8(%rbp)
   11fa7:	48 8d 85 90 e3 ff ff 	lea    -0x1c70(%rbp),%rax
   11fae:	48 89 85 50 f2 ff ff 	mov    %rax,-0xdb0(%rbp)
   11fb5:	48 c7 85 58 f2 ff ff 	movq   $0x0,-0xda8(%rbp)
   11fbc:	00 00 00 00 
   11fc0:	48 8d 85 90 e3 ff ff 	lea    -0x1c70(%rbp),%rax
   11fc7:	48 89 85 60 f2 ff ff 	mov    %rax,-0xda0(%rbp)
   11fce:	48 8d 85 90 e3 ff ff 	lea    -0x1c70(%rbp),%rax
   11fd5:	48 89 85 68 f2 ff ff 	mov    %rax,-0xd98(%rbp)
   11fdc:	48 8d 85 90 e3 ff ff 	lea    -0x1c70(%rbp),%rax
   11fe3:	48 89 85 70 f2 ff ff 	mov    %rax,-0xd90(%rbp)
   11fea:	48 c7 85 78 f2 ff ff 	movq   $0x0,-0xd88(%rbp)
   11ff1:	00 00 00 00 
   11ff5:	48 8d 85 90 e3 ff ff 	lea    -0x1c70(%rbp),%rax
   11ffc:	48 89 85 80 f2 ff ff 	mov    %rax,-0xd80(%rbp)
   12003:	48 8d 85 90 e3 ff ff 	lea    -0x1c70(%rbp),%rax
   1200a:	48 89 85 88 f2 ff ff 	mov    %rax,-0xd78(%rbp)
   12011:	48 8d 85 90 e3 ff ff 	lea    -0x1c70(%rbp),%rax
   12018:	48 89 85 90 f2 ff ff 	mov    %rax,-0xd70(%rbp)
   1201f:	48 c7 85 98 f2 ff ff 	movq   $0x0,-0xd68(%rbp)
   12026:	00 00 00 00 
   1202a:	48 8d 85 90 e3 ff ff 	lea    -0x1c70(%rbp),%rax
   12031:	48 89 85 a0 f2 ff ff 	mov    %rax,-0xd60(%rbp)
   12038:	48 c7 85 a8 f2 ff ff 	movq   $0x0,-0xd58(%rbp)
   1203f:	00 00 00 00 
   12043:	48 c7 85 b0 f2 ff ff 	movq   $0x0,-0xd50(%rbp)
   1204a:	00 00 00 00 
   1204e:	48 8d 85 90 e3 ff ff 	lea    -0x1c70(%rbp),%rax
   12055:	48 89 85 b8 f2 ff ff 	mov    %rax,-0xd48(%rbp)
   1205c:	48 c7 85 c0 f2 ff ff 	movq   $0x0,-0xd40(%rbp)
   12063:	00 00 00 00 
   12067:	48 8d 85 90 e3 ff ff 	lea    -0x1c70(%rbp),%rax
   1206e:	48 89 85 c8 f2 ff ff 	mov    %rax,-0xd38(%rbp)
   12075:	48 8d 85 90 e3 ff ff 	lea    -0x1c70(%rbp),%rax
   1207c:	48 89 85 d0 f2 ff ff 	mov    %rax,-0xd30(%rbp)
   12083:	48 8d 85 90 e3 ff ff 	lea    -0x1c70(%rbp),%rax
   1208a:	48 89 85 d8 f2 ff ff 	mov    %rax,-0xd28(%rbp)
   12091:	48 c7 85 e0 f2 ff ff 	movq   $0x0,-0xd20(%rbp)
   12098:	00 00 00 00 
   1209c:	48 8d 85 90 e3 ff ff 	lea    -0x1c70(%rbp),%rax
   120a3:	48 89 85 e8 f2 ff ff 	mov    %rax,-0xd18(%rbp)
   120aa:	48 c7 85 f0 f2 ff ff 	movq   $0x0,-0xd10(%rbp)
   120b1:	00 00 00 00 
   120b5:	48 c7 85 f8 f2 ff ff 	movq   $0x0,-0xd08(%rbp)
   120bc:	00 00 00 00 
   120c0:	48 8d 85 90 e3 ff ff 	lea    -0x1c70(%rbp),%rax
   120c7:	48 89 85 00 f3 ff ff 	mov    %rax,-0xd00(%rbp)
   120ce:	48 8d 85 90 e3 ff ff 	lea    -0x1c70(%rbp),%rax
   120d5:	48 89 85 08 f3 ff ff 	mov    %rax,-0xcf8(%rbp)
   120dc:	48 8d 85 90 e3 ff ff 	lea    -0x1c70(%rbp),%rax
   120e3:	48 89 85 10 f3 ff ff 	mov    %rax,-0xcf0(%rbp)
   120ea:	48 8d 85 90 e3 ff ff 	lea    -0x1c70(%rbp),%rax
   120f1:	48 89 85 18 f3 ff ff 	mov    %rax,-0xce8(%rbp)
   120f8:	48 8d 85 90 e3 ff ff 	lea    -0x1c70(%rbp),%rax
   120ff:	48 89 85 20 f3 ff ff 	mov    %rax,-0xce0(%rbp)
   12106:	48 8d 85 90 e3 ff ff 	lea    -0x1c70(%rbp),%rax
   1210d:	48 89 85 28 f3 ff ff 	mov    %rax,-0xcd8(%rbp)
   12114:	48 8d 85 90 e3 ff ff 	lea    -0x1c70(%rbp),%rax
   1211b:	48 89 85 30 f3 ff ff 	mov    %rax,-0xcd0(%rbp)
   12122:	48 8d 85 90 e3 ff ff 	lea    -0x1c70(%rbp),%rax
   12129:	48 89 85 38 f3 ff ff 	mov    %rax,-0xcc8(%rbp)
   12130:	48 8d 85 90 e3 ff ff 	lea    -0x1c70(%rbp),%rax
   12137:	48 89 85 40 f3 ff ff 	mov    %rax,-0xcc0(%rbp)
   1213e:	48 8d 85 90 e3 ff ff 	lea    -0x1c70(%rbp),%rax
   12145:	48 89 85 48 f3 ff ff 	mov    %rax,-0xcb8(%rbp)
   1214c:	48 8d 85 90 e3 ff ff 	lea    -0x1c70(%rbp),%rax
   12153:	48 89 85 50 f3 ff ff 	mov    %rax,-0xcb0(%rbp)
   1215a:	48 8d 85 90 e3 ff ff 	lea    -0x1c70(%rbp),%rax
   12161:	48 89 85 58 f3 ff ff 	mov    %rax,-0xca8(%rbp)
   12168:	48 c7 85 60 f3 ff ff 	movq   $0x0,-0xca0(%rbp)
   1216f:	00 00 00 00 
   12173:	48 c7 85 68 f3 ff ff 	movq   $0x0,-0xc98(%rbp)
   1217a:	00 00 00 00 
   1217e:	48 c7 85 70 f3 ff ff 	movq   $0x0,-0xc90(%rbp)
   12185:	00 00 00 00 
   12189:	48 c7 85 78 f3 ff ff 	movq   $0x0,-0xc88(%rbp)
   12190:	00 00 00 00 
   12194:	48 8d 85 90 e3 ff ff 	lea    -0x1c70(%rbp),%rax
   1219b:	48 89 85 80 f3 ff ff 	mov    %rax,-0xc80(%rbp)
   121a2:	48 c7 85 88 f3 ff ff 	movq   $0x0,-0xc78(%rbp)
   121a9:	00 00 00 00 
   121ad:	48 8d 85 90 e3 ff ff 	lea    -0x1c70(%rbp),%rax
   121b4:	48 89 85 90 f3 ff ff 	mov    %rax,-0xc70(%rbp)
   121bb:	48 8d 85 90 e3 ff ff 	lea    -0x1c70(%rbp),%rax
   121c2:	48 89 85 98 f3 ff ff 	mov    %rax,-0xc68(%rbp)
   121c9:	48 8d 85 90 e3 ff ff 	lea    -0x1c70(%rbp),%rax
   121d0:	48 89 85 a0 f3 ff ff 	mov    %rax,-0xc60(%rbp)
   121d7:	48 8d 85 90 e3 ff ff 	lea    -0x1c70(%rbp),%rax
   121de:	48 89 85 a8 f3 ff ff 	mov    %rax,-0xc58(%rbp)
   121e5:	48 c7 85 b0 f3 ff ff 	movq   $0x0,-0xc50(%rbp)
   121ec:	00 00 00 00 
   121f0:	48 8d 85 90 e3 ff ff 	lea    -0x1c70(%rbp),%rax
   121f7:	48 89 85 b8 f3 ff ff 	mov    %rax,-0xc48(%rbp)
   121fe:	48 8d 85 90 e3 ff ff 	lea    -0x1c70(%rbp),%rax
   12205:	48 89 85 c0 f3 ff ff 	mov    %rax,-0xc40(%rbp)
   1220c:	48 8d 85 90 e3 ff ff 	lea    -0x1c70(%rbp),%rax
   12213:	48 89 85 c8 f3 ff ff 	mov    %rax,-0xc38(%rbp)
   1221a:	48 c7 85 d0 f3 ff ff 	movq   $0x0,-0xc30(%rbp)
   12221:	00 00 00 00 
   12225:	48 c7 85 d8 f3 ff ff 	movq   $0x0,-0xc28(%rbp)
   1222c:	00 00 00 00 
   12230:	48 8d 85 90 e3 ff ff 	lea    -0x1c70(%rbp),%rax
   12237:	48 89 85 e0 f3 ff ff 	mov    %rax,-0xc20(%rbp)
   1223e:	48 8d 85 90 e3 ff ff 	lea    -0x1c70(%rbp),%rax
   12245:	48 89 85 e8 f3 ff ff 	mov    %rax,-0xc18(%rbp)
   1224c:	48 8d 85 90 e3 ff ff 	lea    -0x1c70(%rbp),%rax
   12253:	48 89 85 f0 f3 ff ff 	mov    %rax,-0xc10(%rbp)
   1225a:	48 8d 85 90 e3 ff ff 	lea    -0x1c70(%rbp),%rax
   12261:	48 89 85 f8 f3 ff ff 	mov    %rax,-0xc08(%rbp)
   12268:	48 c7 85 00 f4 ff ff 	movq   $0x0,-0xc00(%rbp)
   1226f:	00 00 00 00 
   12273:	48 8d 85 90 e3 ff ff 	lea    -0x1c70(%rbp),%rax
   1227a:	48 89 85 08 f4 ff ff 	mov    %rax,-0xbf8(%rbp)
   12281:	48 8d 85 90 e3 ff ff 	lea    -0x1c70(%rbp),%rax
   12288:	48 89 85 10 f4 ff ff 	mov    %rax,-0xbf0(%rbp)
   1228f:	48 c7 85 18 f4 ff ff 	movq   $0x0,-0xbe8(%rbp)
   12296:	00 00 00 00 
   1229a:	48 8d 85 90 e3 ff ff 	lea    -0x1c70(%rbp),%rax
   122a1:	48 89 85 20 f4 ff ff 	mov    %rax,-0xbe0(%rbp)
   122a8:	48 8d 85 90 e3 ff ff 	lea    -0x1c70(%rbp),%rax
   122af:	48 89 85 28 f4 ff ff 	mov    %rax,-0xbd8(%rbp)
   122b6:	48 8d 85 90 e3 ff ff 	lea    -0x1c70(%rbp),%rax
   122bd:	48 89 85 30 f4 ff ff 	mov    %rax,-0xbd0(%rbp)
   122c4:	48 c7 85 38 f4 ff ff 	movq   $0x0,-0xbc8(%rbp)
   122cb:	00 00 00 00 
   122cf:	48 c7 85 40 f4 ff ff 	movq   $0x0,-0xbc0(%rbp)
   122d6:	00 00 00 00 
   122da:	48 8d 85 90 e3 ff ff 	lea    -0x1c70(%rbp),%rax
   122e1:	48 89 85 48 f4 ff ff 	mov    %rax,-0xbb8(%rbp)
   122e8:	48 8d 85 90 e3 ff ff 	lea    -0x1c70(%rbp),%rax
   122ef:	48 89 85 50 f4 ff ff 	mov    %rax,-0xbb0(%rbp)
   122f6:	48 c7 85 58 f4 ff ff 	movq   $0x0,-0xba8(%rbp)
   122fd:	00 00 00 00 
   12301:	48 c7 85 60 f4 ff ff 	movq   $0x0,-0xba0(%rbp)
   12308:	00 00 00 00 
   1230c:	48 c7 85 68 f4 ff ff 	movq   $0x0,-0xb98(%rbp)
   12313:	00 00 00 00 
   12317:	48 8d 85 90 e3 ff ff 	lea    -0x1c70(%rbp),%rax
   1231e:	48 89 85 70 f4 ff ff 	mov    %rax,-0xb90(%rbp)
   12325:	48 8d 85 90 e3 ff ff 	lea    -0x1c70(%rbp),%rax
   1232c:	48 89 85 78 f4 ff ff 	mov    %rax,-0xb88(%rbp)
   12333:	48 8d 85 90 e3 ff ff 	lea    -0x1c70(%rbp),%rax
   1233a:	48 89 85 80 f4 ff ff 	mov    %rax,-0xb80(%rbp)
   12341:	48 8d 85 90 e3 ff ff 	lea    -0x1c70(%rbp),%rax
   12348:	48 89 85 88 f4 ff ff 	mov    %rax,-0xb78(%rbp)
   1234f:	48 8d 85 90 e3 ff ff 	lea    -0x1c70(%rbp),%rax
   12356:	48 89 85 90 f4 ff ff 	mov    %rax,-0xb70(%rbp)
   1235d:	48 8d 85 90 e3 ff ff 	lea    -0x1c70(%rbp),%rax
   12364:	48 89 85 98 f4 ff ff 	mov    %rax,-0xb68(%rbp)
   1236b:	48 8d 85 90 e3 ff ff 	lea    -0x1c70(%rbp),%rax
   12372:	48 89 85 a0 f4 ff ff 	mov    %rax,-0xb60(%rbp)
   12379:	48 8d 85 90 e3 ff ff 	lea    -0x1c70(%rbp),%rax
   12380:	48 89 85 a8 f4 ff ff 	mov    %rax,-0xb58(%rbp)
   12387:	48 8d 85 90 e3 ff ff 	lea    -0x1c70(%rbp),%rax
   1238e:	48 89 85 b0 f4 ff ff 	mov    %rax,-0xb50(%rbp)
   12395:	48 c7 85 b8 f4 ff ff 	movq   $0x0,-0xb48(%rbp)
   1239c:	00 00 00 00 
   123a0:	48 c7 85 c0 f4 ff ff 	movq   $0x0,-0xb40(%rbp)
   123a7:	00 00 00 00 
   123ab:	48 8d 85 90 e3 ff ff 	lea    -0x1c70(%rbp),%rax
   123b2:	48 89 85 c8 f4 ff ff 	mov    %rax,-0xb38(%rbp)
   123b9:	48 8d 85 90 e3 ff ff 	lea    -0x1c70(%rbp),%rax
   123c0:	48 89 85 d0 f4 ff ff 	mov    %rax,-0xb30(%rbp)
   123c7:	48 8d 85 90 e3 ff ff 	lea    -0x1c70(%rbp),%rax
   123ce:	48 89 85 d8 f4 ff ff 	mov    %rax,-0xb28(%rbp)
   123d5:	48 c7 85 e0 f4 ff ff 	movq   $0x0,-0xb20(%rbp)
   123dc:	00 00 00 00 
   123e0:	48 8d 85 90 e3 ff ff 	lea    -0x1c70(%rbp),%rax
   123e7:	48 89 85 e8 f4 ff ff 	mov    %rax,-0xb18(%rbp)
   123ee:	48 8d 85 90 e3 ff ff 	lea    -0x1c70(%rbp),%rax
   123f5:	48 89 85 f0 f4 ff ff 	mov    %rax,-0xb10(%rbp)
   123fc:	48 8d 85 90 e3 ff ff 	lea    -0x1c70(%rbp),%rax
   12403:	48 89 85 f8 f4 ff ff 	mov    %rax,-0xb08(%rbp)
   1240a:	48 c7 85 00 f5 ff ff 	movq   $0x0,-0xb00(%rbp)
   12411:	00 00 00 00 
   12415:	48 8d 85 90 e3 ff ff 	lea    -0x1c70(%rbp),%rax
   1241c:	48 89 85 08 f5 ff ff 	mov    %rax,-0xaf8(%rbp)
   12423:	48 8d 85 90 e3 ff ff 	lea    -0x1c70(%rbp),%rax
   1242a:	48 89 85 10 f5 ff ff 	mov    %rax,-0xaf0(%rbp)
   12431:	48 8d 85 90 e3 ff ff 	lea    -0x1c70(%rbp),%rax
   12438:	48 89 85 18 f5 ff ff 	mov    %rax,-0xae8(%rbp)
   1243f:	48 8d 85 90 e3 ff ff 	lea    -0x1c70(%rbp),%rax
   12446:	48 89 85 20 f5 ff ff 	mov    %rax,-0xae0(%rbp)
   1244d:	48 8d 85 90 e3 ff ff 	lea    -0x1c70(%rbp),%rax
   12454:	48 89 85 28 f5 ff ff 	mov    %rax,-0xad8(%rbp)
   1245b:	48 8d 85 90 e3 ff ff 	lea    -0x1c70(%rbp),%rax
   12462:	48 89 85 30 f5 ff ff 	mov    %rax,-0xad0(%rbp)
   12469:	48 c7 85 38 f5 ff ff 	movq   $0x0,-0xac8(%rbp)
   12470:	00 00 00 00 
   12474:	48 8d 85 90 e3 ff ff 	lea    -0x1c70(%rbp),%rax
   1247b:	48 89 85 40 f5 ff ff 	mov    %rax,-0xac0(%rbp)
   12482:	48 c7 85 48 f5 ff ff 	movq   $0x0,-0xab8(%rbp)
   12489:	00 00 00 00 
   1248d:	48 c7 85 50 f5 ff ff 	movq   $0x0,-0xab0(%rbp)
   12494:	00 00 00 00 
   12498:	48 8d 85 90 e3 ff ff 	lea    -0x1c70(%rbp),%rax
   1249f:	48 89 85 58 f5 ff ff 	mov    %rax,-0xaa8(%rbp)
   124a6:	48 8d 85 90 e3 ff ff 	lea    -0x1c70(%rbp),%rax
   124ad:	48 89 85 60 f5 ff ff 	mov    %rax,-0xaa0(%rbp)
   124b4:	48 8d 85 90 e3 ff ff 	lea    -0x1c70(%rbp),%rax
   124bb:	48 89 85 68 f5 ff ff 	mov    %rax,-0xa98(%rbp)
   124c2:	48 8d 85 90 e3 ff ff 	lea    -0x1c70(%rbp),%rax
   124c9:	48 89 85 70 f5 ff ff 	mov    %rax,-0xa90(%rbp)
   124d0:	48 8d 85 90 e3 ff ff 	lea    -0x1c70(%rbp),%rax
   124d7:	48 89 85 78 f5 ff ff 	mov    %rax,-0xa88(%rbp)
   124de:	48 8d 85 90 e3 ff ff 	lea    -0x1c70(%rbp),%rax
   124e5:	48 89 85 80 f5 ff ff 	mov    %rax,-0xa80(%rbp)
   124ec:	48 8d 85 90 e3 ff ff 	lea    -0x1c70(%rbp),%rax
   124f3:	48 89 85 88 f5 ff ff 	mov    %rax,-0xa78(%rbp)
   124fa:	48 c7 85 90 f5 ff ff 	movq   $0x0,-0xa70(%rbp)
   12501:	00 00 00 00 
   12505:	48 c7 85 98 f5 ff ff 	movq   $0x0,-0xa68(%rbp)
   1250c:	00 00 00 00 
   12510:	48 8d 85 90 e3 ff ff 	lea    -0x1c70(%rbp),%rax
   12517:	48 89 85 a0 f5 ff ff 	mov    %rax,-0xa60(%rbp)
   1251e:	48 8d 85 90 e3 ff ff 	lea    -0x1c70(%rbp),%rax
   12525:	48 89 85 a8 f5 ff ff 	mov    %rax,-0xa58(%rbp)
   1252c:	48 8d 85 90 e3 ff ff 	lea    -0x1c70(%rbp),%rax
   12533:	48 89 85 b0 f5 ff ff 	mov    %rax,-0xa50(%rbp)
   1253a:	48 8d 85 90 e3 ff ff 	lea    -0x1c70(%rbp),%rax
   12541:	48 89 85 b8 f5 ff ff 	mov    %rax,-0xa48(%rbp)
   12548:	48 8d 85 90 e3 ff ff 	lea    -0x1c70(%rbp),%rax
   1254f:	48 89 85 c0 f5 ff ff 	mov    %rax,-0xa40(%rbp)
   12556:	48 8d 85 90 e3 ff ff 	lea    -0x1c70(%rbp),%rax
   1255d:	48 89 85 c8 f5 ff ff 	mov    %rax,-0xa38(%rbp)
   12564:	48 8d 85 90 e3 ff ff 	lea    -0x1c70(%rbp),%rax
   1256b:	48 89 85 d0 f5 ff ff 	mov    %rax,-0xa30(%rbp)
   12572:	48 c7 85 d8 f5 ff ff 	movq   $0x0,-0xa28(%rbp)
   12579:	00 00 00 00 
   1257d:	48 8d 85 90 e3 ff ff 	lea    -0x1c70(%rbp),%rax
   12584:	48 89 85 e0 f5 ff ff 	mov    %rax,-0xa20(%rbp)
   1258b:	48 8d 85 90 e3 ff ff 	lea    -0x1c70(%rbp),%rax
   12592:	48 89 85 e8 f5 ff ff 	mov    %rax,-0xa18(%rbp)
   12599:	48 8d 85 90 e3 ff ff 	lea    -0x1c70(%rbp),%rax
   125a0:	48 89 85 f0 f5 ff ff 	mov    %rax,-0xa10(%rbp)
   125a7:	48 c7 85 f8 f5 ff ff 	movq   $0x0,-0xa08(%rbp)
   125ae:	00 00 00 00 
   125b2:	48 8d 85 90 e3 ff ff 	lea    -0x1c70(%rbp),%rax
   125b9:	48 89 85 00 f6 ff ff 	mov    %rax,-0xa00(%rbp)
   125c0:	48 c7 85 08 f6 ff ff 	movq   $0x0,-0x9f8(%rbp)
   125c7:	00 00 00 00 
   125cb:	48 8d 85 90 e3 ff ff 	lea    -0x1c70(%rbp),%rax
   125d2:	48 89 85 10 f6 ff ff 	mov    %rax,-0x9f0(%rbp)
   125d9:	48 c7 85 18 f6 ff ff 	movq   $0x0,-0x9e8(%rbp)
   125e0:	00 00 00 00 
   125e4:	48 c7 85 20 f6 ff ff 	movq   $0x0,-0x9e0(%rbp)
   125eb:	00 00 00 00 
   125ef:	48 c7 85 28 f6 ff ff 	movq   $0x0,-0x9d8(%rbp)
   125f6:	00 00 00 00 
   125fa:	48 c7 85 30 f6 ff ff 	movq   $0x0,-0x9d0(%rbp)
   12601:	00 00 00 00 
   12605:	48 8d 85 90 e3 ff ff 	lea    -0x1c70(%rbp),%rax
   1260c:	48 89 85 38 f6 ff ff 	mov    %rax,-0x9c8(%rbp)
   12613:	48 8d 85 90 e3 ff ff 	lea    -0x1c70(%rbp),%rax
   1261a:	48 89 85 40 f6 ff ff 	mov    %rax,-0x9c0(%rbp)
   12621:	48 8d 85 90 e3 ff ff 	lea    -0x1c70(%rbp),%rax
   12628:	48 89 85 48 f6 ff ff 	mov    %rax,-0x9b8(%rbp)
   1262f:	48 8d 85 90 e3 ff ff 	lea    -0x1c70(%rbp),%rax
   12636:	48 89 85 50 f6 ff ff 	mov    %rax,-0x9b0(%rbp)
   1263d:	48 8d 85 90 e3 ff ff 	lea    -0x1c70(%rbp),%rax
   12644:	48 89 85 58 f6 ff ff 	mov    %rax,-0x9a8(%rbp)
   1264b:	48 8d 85 90 e3 ff ff 	lea    -0x1c70(%rbp),%rax
   12652:	48 89 85 60 f6 ff ff 	mov    %rax,-0x9a0(%rbp)
   12659:	48 8d 85 90 e3 ff ff 	lea    -0x1c70(%rbp),%rax
   12660:	48 89 85 68 f6 ff ff 	mov    %rax,-0x998(%rbp)
   12667:	48 c7 85 70 f6 ff ff 	movq   $0x0,-0x990(%rbp)
   1266e:	00 00 00 00 
   12672:	48 c7 85 78 f6 ff ff 	movq   $0x0,-0x988(%rbp)
   12679:	00 00 00 00 
   1267d:	48 c7 85 80 f6 ff ff 	movq   $0x0,-0x980(%rbp)
   12684:	00 00 00 00 
   12688:	48 8d 85 90 e3 ff ff 	lea    -0x1c70(%rbp),%rax
   1268f:	48 89 85 88 f6 ff ff 	mov    %rax,-0x978(%rbp)
   12696:	48 c7 85 90 f6 ff ff 	movq   $0x0,-0x970(%rbp)
   1269d:	00 00 00 00 
   126a1:	48 8d 85 90 e3 ff ff 	lea    -0x1c70(%rbp),%rax
   126a8:	48 89 85 98 f6 ff ff 	mov    %rax,-0x968(%rbp)
   126af:	48 8d 85 90 e3 ff ff 	lea    -0x1c70(%rbp),%rax
   126b6:	48 89 85 a0 f6 ff ff 	mov    %rax,-0x960(%rbp)
   126bd:	48 8d 85 90 e3 ff ff 	lea    -0x1c70(%rbp),%rax
   126c4:	48 89 85 a8 f6 ff ff 	mov    %rax,-0x958(%rbp)
   126cb:	48 8d 85 90 e3 ff ff 	lea    -0x1c70(%rbp),%rax
   126d2:	48 89 85 b0 f6 ff ff 	mov    %rax,-0x950(%rbp)
   126d9:	48 8d 85 90 e3 ff ff 	lea    -0x1c70(%rbp),%rax
   126e0:	48 89 85 b8 f6 ff ff 	mov    %rax,-0x948(%rbp)
   126e7:	48 8d 85 90 e3 ff ff 	lea    -0x1c70(%rbp),%rax
   126ee:	48 89 85 c0 f6 ff ff 	mov    %rax,-0x940(%rbp)
   126f5:	48 8d 85 90 e3 ff ff 	lea    -0x1c70(%rbp),%rax
   126fc:	48 89 85 c8 f6 ff ff 	mov    %rax,-0x938(%rbp)
   12703:	48 8d 85 90 e3 ff ff 	lea    -0x1c70(%rbp),%rax
   1270a:	48 89 85 d0 f6 ff ff 	mov    %rax,-0x930(%rbp)
   12711:	48 8d 85 90 e3 ff ff 	lea    -0x1c70(%rbp),%rax
   12718:	48 89 85 d8 f6 ff ff 	mov    %rax,-0x928(%rbp)
   1271f:	48 8d 85 90 e3 ff ff 	lea    -0x1c70(%rbp),%rax
   12726:	48 89 85 e0 f6 ff ff 	mov    %rax,-0x920(%rbp)
   1272d:	48 c7 85 e8 f6 ff ff 	movq   $0x0,-0x918(%rbp)
   12734:	00 00 00 00 
   12738:	48 8d 85 90 e3 ff ff 	lea    -0x1c70(%rbp),%rax
   1273f:	48 89 85 f0 f6 ff ff 	mov    %rax,-0x910(%rbp)
   12746:	48 8d 85 90 e3 ff ff 	lea    -0x1c70(%rbp),%rax
   1274d:	48 89 85 f8 f6 ff ff 	mov    %rax,-0x908(%rbp)
   12754:	48 8d 85 90 e3 ff ff 	lea    -0x1c70(%rbp),%rax
   1275b:	48 89 85 00 f7 ff ff 	mov    %rax,-0x900(%rbp)
   12762:	48 c7 85 08 f7 ff ff 	movq   $0x0,-0x8f8(%rbp)
   12769:	00 00 00 00 
   1276d:	48 8d 85 90 e3 ff ff 	lea    -0x1c70(%rbp),%rax
   12774:	48 89 85 10 f7 ff ff 	mov    %rax,-0x8f0(%rbp)
   1277b:	48 8d 85 90 e3 ff ff 	lea    -0x1c70(%rbp),%rax
   12782:	48 89 85 18 f7 ff ff 	mov    %rax,-0x8e8(%rbp)
   12789:	48 8d 85 90 e3 ff ff 	lea    -0x1c70(%rbp),%rax
   12790:	48 89 85 20 f7 ff ff 	mov    %rax,-0x8e0(%rbp)
   12797:	48 8d 85 90 e3 ff ff 	lea    -0x1c70(%rbp),%rax
   1279e:	48 89 85 28 f7 ff ff 	mov    %rax,-0x8d8(%rbp)
   127a5:	48 c7 85 30 f7 ff ff 	movq   $0x0,-0x8d0(%rbp)
   127ac:	00 00 00 00 
   127b0:	48 8d 85 90 e3 ff ff 	lea    -0x1c70(%rbp),%rax
   127b7:	48 89 85 38 f7 ff ff 	mov    %rax,-0x8c8(%rbp)
   127be:	48 8d 85 90 e3 ff ff 	lea    -0x1c70(%rbp),%rax
   127c5:	48 89 85 40 f7 ff ff 	mov    %rax,-0x8c0(%rbp)
   127cc:	48 8d 85 90 e3 ff ff 	lea    -0x1c70(%rbp),%rax
   127d3:	48 89 85 48 f7 ff ff 	mov    %rax,-0x8b8(%rbp)
   127da:	48 8d 85 90 e3 ff ff 	lea    -0x1c70(%rbp),%rax
   127e1:	48 89 85 50 f7 ff ff 	mov    %rax,-0x8b0(%rbp)
   127e8:	48 8d 85 90 e3 ff ff 	lea    -0x1c70(%rbp),%rax
   127ef:	48 89 85 58 f7 ff ff 	mov    %rax,-0x8a8(%rbp)
   127f6:	48 8d 85 90 e3 ff ff 	lea    -0x1c70(%rbp),%rax
   127fd:	48 89 85 60 f7 ff ff 	mov    %rax,-0x8a0(%rbp)
   12804:	48 8d 85 90 e3 ff ff 	lea    -0x1c70(%rbp),%rax
   1280b:	48 89 85 68 f7 ff ff 	mov    %rax,-0x898(%rbp)
   12812:	48 8d 85 90 e3 ff ff 	lea    -0x1c70(%rbp),%rax
   12819:	48 89 85 70 f7 ff ff 	mov    %rax,-0x890(%rbp)
   12820:	48 8d 85 90 e3 ff ff 	lea    -0x1c70(%rbp),%rax
   12827:	48 89 85 78 f7 ff ff 	mov    %rax,-0x888(%rbp)
   1282e:	48 c7 85 80 f7 ff ff 	movq   $0x0,-0x880(%rbp)
   12835:	00 00 00 00 
   12839:	48 8d 85 90 e3 ff ff 	lea    -0x1c70(%rbp),%rax
   12840:	48 89 85 88 f7 ff ff 	mov    %rax,-0x878(%rbp)
   12847:	48 8d 85 90 e3 ff ff 	lea    -0x1c70(%rbp),%rax
   1284e:	48 89 85 90 f7 ff ff 	mov    %rax,-0x870(%rbp)
   12855:	48 c7 85 98 f7 ff ff 	movq   $0x0,-0x868(%rbp)
   1285c:	00 00 00 00 
   12860:	48 8d 85 90 e3 ff ff 	lea    -0x1c70(%rbp),%rax
   12867:	48 89 85 a0 f7 ff ff 	mov    %rax,-0x860(%rbp)
   1286e:	48 8d 85 90 e3 ff ff 	lea    -0x1c70(%rbp),%rax
   12875:	48 89 85 a8 f7 ff ff 	mov    %rax,-0x858(%rbp)
   1287c:	48 8d 85 90 e3 ff ff 	lea    -0x1c70(%rbp),%rax
   12883:	48 89 85 b0 f7 ff ff 	mov    %rax,-0x850(%rbp)
   1288a:	48 c7 85 b8 f7 ff ff 	movq   $0x0,-0x848(%rbp)
   12891:	00 00 00 00 
   12895:	48 8d 05 24 eb 00 00 	lea    0xeb24(%rip),%rax        # 213c0 <g_806>
   1289c:	48 89 85 70 e4 ff ff 	mov    %rax,-0x1b90(%rbp)
   128a3:	48 8d 85 88 e3 ff ff 	lea    -0x1c78(%rbp),%rax
   128aa:	48 89 85 78 e4 ff ff 	mov    %rax,-0x1b88(%rbp)
   128b1:	48 8d 05 08 eb 00 00 	lea    0xeb08(%rip),%rax        # 213c0 <g_806>
   128b8:	48 89 85 80 e4 ff ff 	mov    %rax,-0x1b80(%rbp)
   128bf:	48 8d 85 88 e3 ff ff 	lea    -0x1c78(%rbp),%rax
   128c6:	48 89 85 88 e4 ff ff 	mov    %rax,-0x1b78(%rbp)
   128cd:	48 8d 05 08 a8 00 00 	lea    0xa808(%rip),%rax        # 1d0dc <g_224>
   128d4:	48 89 85 c0 e3 ff ff 	mov    %rax,-0x1c40(%rbp)
   128db:	48 8d 05 8a a7 00 00 	lea    0xa78a(%rip),%rax        # 1d06c <g_88>
   128e2:	48 89 85 70 e5 ff ff 	mov    %rax,-0x1a90(%rbp)
   128e9:	48 8d 85 30 e3 ff ff 	lea    -0x1cd0(%rbp),%rax
   128f0:	48 89 85 78 e5 ff ff 	mov    %rax,-0x1a88(%rbp)
   128f7:	48 8d 85 30 e3 ff ff 	lea    -0x1cd0(%rbp),%rax
   128fe:	48 89 85 80 e5 ff ff 	mov    %rax,-0x1a80(%rbp)
   12905:	48 8d 85 30 e3 ff ff 	lea    -0x1cd0(%rbp),%rax
   1290c:	48 89 85 88 e5 ff ff 	mov    %rax,-0x1a78(%rbp)
   12913:	48 8d 85 30 e3 ff ff 	lea    -0x1cd0(%rbp),%rax
   1291a:	48 89 85 90 e5 ff ff 	mov    %rax,-0x1a70(%rbp)
   12921:	48 c7 85 98 e5 ff ff 	movq   $0x0,-0x1a68(%rbp)
   12928:	00 00 00 00 
   1292c:	48 8d 85 30 e3 ff ff 	lea    -0x1cd0(%rbp),%rax
   12933:	48 89 85 a0 e5 ff ff 	mov    %rax,-0x1a60(%rbp)
   1293a:	48 c7 85 a8 e5 ff ff 	movq   $0x0,-0x1a58(%rbp)
   12941:	00 00 00 00 
   12945:	48 c7 85 b0 e5 ff ff 	movq   $0x0,-0x1a50(%rbp)
   1294c:	00 00 00 00 
   12950:	48 8d 85 30 e3 ff ff 	lea    -0x1cd0(%rbp),%rax
   12957:	48 89 85 b8 e5 ff ff 	mov    %rax,-0x1a48(%rbp)
   1295e:	48 8d 05 07 a7 00 00 	lea    0xa707(%rip),%rax        # 1d06c <g_88>
   12965:	48 89 85 c0 e5 ff ff 	mov    %rax,-0x1a40(%rbp)
   1296c:	48 8d 85 30 e3 ff ff 	lea    -0x1cd0(%rbp),%rax
   12973:	48 89 85 c8 e5 ff ff 	mov    %rax,-0x1a38(%rbp)
   1297a:	48 8d 85 30 e3 ff ff 	lea    -0x1cd0(%rbp),%rax
   12981:	48 89 85 d0 e5 ff ff 	mov    %rax,-0x1a30(%rbp)
   12988:	48 8d 85 30 e3 ff ff 	lea    -0x1cd0(%rbp),%rax
   1298f:	48 89 85 d8 e5 ff ff 	mov    %rax,-0x1a28(%rbp)
   12996:	48 8d 85 30 e3 ff ff 	lea    -0x1cd0(%rbp),%rax
   1299d:	48 89 85 e0 e5 ff ff 	mov    %rax,-0x1a20(%rbp)
   129a4:	48 c7 85 e8 e5 ff ff 	movq   $0x0,-0x1a18(%rbp)
   129ab:	00 00 00 00 
   129af:	48 8d 85 30 e3 ff ff 	lea    -0x1cd0(%rbp),%rax
   129b6:	48 89 85 f0 e5 ff ff 	mov    %rax,-0x1a10(%rbp)
   129bd:	48 c7 85 f8 e5 ff ff 	movq   $0x0,-0x1a08(%rbp)
   129c4:	00 00 00 00 
   129c8:	48 c7 85 00 e6 ff ff 	movq   $0x0,-0x1a00(%rbp)
   129cf:	00 00 00 00 
   129d3:	48 8d 85 30 e3 ff ff 	lea    -0x1cd0(%rbp),%rax
   129da:	48 89 85 08 e6 ff ff 	mov    %rax,-0x19f8(%rbp)
   129e1:	48 8d 05 84 a6 00 00 	lea    0xa684(%rip),%rax        # 1d06c <g_88>
   129e8:	48 89 85 10 e6 ff ff 	mov    %rax,-0x19f0(%rbp)
   129ef:	48 8d 85 30 e3 ff ff 	lea    -0x1cd0(%rbp),%rax
   129f6:	48 89 85 18 e6 ff ff 	mov    %rax,-0x19e8(%rbp)
   129fd:	48 8d 85 30 e3 ff ff 	lea    -0x1cd0(%rbp),%rax
   12a04:	48 89 85 20 e6 ff ff 	mov    %rax,-0x19e0(%rbp)
   12a0b:	48 8d 85 30 e3 ff ff 	lea    -0x1cd0(%rbp),%rax
   12a12:	48 89 85 28 e6 ff ff 	mov    %rax,-0x19d8(%rbp)
   12a19:	48 8d 85 30 e3 ff ff 	lea    -0x1cd0(%rbp),%rax
   12a20:	48 89 85 30 e6 ff ff 	mov    %rax,-0x19d0(%rbp)
   12a27:	48 c7 85 38 e6 ff ff 	movq   $0x0,-0x19c8(%rbp)
   12a2e:	00 00 00 00 
   12a32:	48 8d 85 30 e3 ff ff 	lea    -0x1cd0(%rbp),%rax
   12a39:	48 89 85 40 e6 ff ff 	mov    %rax,-0x19c0(%rbp)
   12a40:	48 c7 85 48 e6 ff ff 	movq   $0x0,-0x19b8(%rbp)
   12a47:	00 00 00 00 
   12a4b:	48 c7 85 50 e6 ff ff 	movq   $0x0,-0x19b0(%rbp)
   12a52:	00 00 00 00 
   12a56:	48 8d 85 30 e3 ff ff 	lea    -0x1cd0(%rbp),%rax
   12a5d:	48 89 85 58 e6 ff ff 	mov    %rax,-0x19a8(%rbp)
   12a64:	48 8d 05 01 a6 00 00 	lea    0xa601(%rip),%rax        # 1d06c <g_88>
   12a6b:	48 89 85 60 e6 ff ff 	mov    %rax,-0x19a0(%rbp)
   12a72:	48 8d 85 30 e3 ff ff 	lea    -0x1cd0(%rbp),%rax
   12a79:	48 89 85 68 e6 ff ff 	mov    %rax,-0x1998(%rbp)
   12a80:	48 8d 85 30 e3 ff ff 	lea    -0x1cd0(%rbp),%rax
   12a87:	48 89 85 70 e6 ff ff 	mov    %rax,-0x1990(%rbp)
   12a8e:	48 8d 85 30 e3 ff ff 	lea    -0x1cd0(%rbp),%rax
   12a95:	48 89 85 78 e6 ff ff 	mov    %rax,-0x1988(%rbp)
   12a9c:	48 8d 85 30 e3 ff ff 	lea    -0x1cd0(%rbp),%rax
   12aa3:	48 89 85 80 e6 ff ff 	mov    %rax,-0x1980(%rbp)
   12aaa:	48 c7 85 88 e6 ff ff 	movq   $0x0,-0x1978(%rbp)
   12ab1:	00 00 00 00 
   12ab5:	48 8d 85 30 e3 ff ff 	lea    -0x1cd0(%rbp),%rax
   12abc:	48 89 85 90 e6 ff ff 	mov    %rax,-0x1970(%rbp)
   12ac3:	48 c7 85 98 e6 ff ff 	movq   $0x0,-0x1968(%rbp)
   12aca:	00 00 00 00 
   12ace:	48 c7 85 a0 e6 ff ff 	movq   $0x0,-0x1960(%rbp)
   12ad5:	00 00 00 00 
   12ad9:	48 8d 85 30 e3 ff ff 	lea    -0x1cd0(%rbp),%rax
   12ae0:	48 89 85 a8 e6 ff ff 	mov    %rax,-0x1958(%rbp)
   12ae7:	c7 85 38 e3 ff ff 8b 	movl   $0xa7190a8b,-0x1cc8(%rbp)
   12aee:	0a 19 a7 
   12af1:	48 8d 05 0c a6 00 00 	lea    0xa60c(%rip),%rax        # 1d104 <g_569>
   12af8:	48 89 85 20 e5 ff ff 	mov    %rax,-0x1ae0(%rbp)
   12aff:	48 c7 85 28 e5 ff ff 	movq   $0x0,-0x1ad8(%rbp)
   12b06:	00 00 00 00 
   12b0a:	48 8d 05 f3 a5 00 00 	lea    0xa5f3(%rip),%rax        # 1d104 <g_569>
   12b11:	48 89 85 30 e5 ff ff 	mov    %rax,-0x1ad0(%rbp)
   12b18:	48 8d 05 e5 a5 00 00 	lea    0xa5e5(%rip),%rax        # 1d104 <g_569>
   12b1f:	48 89 85 38 e5 ff ff 	mov    %rax,-0x1ac8(%rbp)
   12b26:	48 c7 85 40 e5 ff ff 	movq   $0x0,-0x1ac0(%rbp)
   12b2d:	00 00 00 00 
   12b31:	48 8d 05 cc a5 00 00 	lea    0xa5cc(%rip),%rax        # 1d104 <g_569>
   12b38:	48 89 85 48 e5 ff ff 	mov    %rax,-0x1ab8(%rbp)
   12b3f:	48 8d 05 be a5 00 00 	lea    0xa5be(%rip),%rax        # 1d104 <g_569>
   12b46:	48 89 85 50 e5 ff ff 	mov    %rax,-0x1ab0(%rbp)
   12b4d:	48 c7 85 58 e5 ff ff 	movq   $0x0,-0x1aa8(%rbp)
   12b54:	00 00 00 00 
   12b58:	48 8d 05 a5 a5 00 00 	lea    0xa5a5(%rip),%rax        # 1d104 <g_569>
   12b5f:	48 89 85 60 e5 ff ff 	mov    %rax,-0x1aa0(%rbp)
   12b66:	48 8d 05 97 a5 00 00 	lea    0xa597(%rip),%rax        # 1d104 <g_569>
   12b6d:	48 89 85 68 e5 ff ff 	mov    %rax,-0x1a98(%rbp)
   12b74:	c7 85 40 e3 ff ff 00 	movl   $0x0,-0x1cc0(%rbp)
   12b7b:	00 00 00 
   12b7e:	eb 21                	jmp    12ba1 <func_56+0x1de1>
   12b80:	8b 85 40 e3 ff ff    	mov    -0x1cc0(%rbp),%eax
   12b86:	48 98                	cltq   
   12b88:	48 bb 9d 5d 5a 34 d1 	movabs $0xebe7d6d1345a5d9d,%rbx
   12b8f:	d6 e7 eb 
   12b92:	48 89 9c c5 50 e4 ff 	mov    %rbx,-0x1bb0(%rbp,%rax,8)
   12b99:	ff 
   12b9a:	83 85 40 e3 ff ff 01 	addl   $0x1,-0x1cc0(%rbp)
   12ba1:	83 bd 40 e3 ff ff 02 	cmpl   $0x2,-0x1cc0(%rbp)
   12ba8:	7e d6                	jle    12b80 <func_56+0x1dc0>
   12baa:	8b 85 30 e3 ff ff    	mov    -0x1cd0(%rbp),%eax
   12bb0:	83 c0 01             	add    $0x1,%eax
   12bb3:	89 85 30 e3 ff ff    	mov    %eax,-0x1cd0(%rbp)
   12bb9:	48 8b 85 90 e3 ff ff 	mov    -0x1c70(%rbp),%rax
   12bc0:	48 89 05 b9 ce 00 00 	mov    %rax,0xceb9(%rip)        # 1fa80 <g_805>
   12bc7:	48 8b 05 b2 ce 00 00 	mov    0xceb2(%rip),%rax        # 1fa80 <g_805>
   12bce:	48 89 05 eb d4 00 00 	mov    %rax,0xd4eb(%rip)        # 200c0 <g_807+0x620>
   12bd5:	48 8b 05 e4 d4 00 00 	mov    0xd4e4(%rip),%rax        # 200c0 <g_807+0x620>
   12bdc:	48 89 05 3d d6 00 00 	mov    %rax,0xd63d(%rip)        # 20220 <g_808>
   12be3:	48 8b 15 36 d6 00 00 	mov    0xd636(%rip),%rdx        # 20220 <g_808>
   12bea:	48 8b 85 70 e4 ff ff 	mov    -0x1b90(%rbp),%rax
   12bf1:	48 39 c2             	cmp    %rax,%rdx
   12bf4:	8b 85 1c e3 ff ff    	mov    -0x1ce4(%rbp),%eax
   12bfa:	89 c1                	mov    %eax,%ecx
   12bfc:	0f b6 35 05 a5 00 00 	movzbl 0xa505(%rip),%esi        # 1d108 <g_671>
   12c03:	0f b6 05 2e a4 00 00 	movzbl 0xa42e(%rip),%eax        # 1d038 <g_2+0x8>
   12c0a:	0f b6 d0             	movzbl %al,%edx
   12c0d:	8b 85 1c e3 ff ff    	mov    -0x1ce4(%rbp),%eax
   12c13:	39 c2                	cmp    %eax,%edx
   12c15:	0f 9c c0             	setl   %al
   12c18:	09 f0                	or     %esi,%eax
   12c1a:	89 c2                	mov    %eax,%edx
   12c1c:	48 8b 85 c0 e3 ff ff 	mov    -0x1c40(%rbp),%rax
   12c23:	88 10                	mov    %dl,(%rax)
   12c25:	48 8b 85 b0 e3 ff ff 	mov    -0x1c50(%rbp),%rax
   12c2c:	c7 00 02 00 00 00    	movl   $0x2,(%rax)
   12c32:	89 ce                	mov    %ecx,%esi
   12c34:	bf 02 00 00 00       	mov    $0x2,%edi
   12c39:	e8 7a 82 ff ff       	callq  aeb8 <safe_add_func_uint32_t_u_u>
   12c3e:	48 8b 85 b0 e3 ff ff 	mov    -0x1c50(%rbp),%rax
   12c45:	8b 00                	mov    (%rax),%eax
   12c47:	85 c0                	test   %eax,%eax
   12c49:	74 07                	je     12c52 <func_56+0x1e92>
   12c4b:	ba 01 00 00 00       	mov    $0x1,%edx
   12c50:	eb 05                	jmp    12c57 <func_56+0x1e97>
   12c52:	ba 00 00 00 00       	mov    $0x0,%edx
   12c57:	8b 85 1c e3 ff ff    	mov    -0x1ce4(%rbp),%eax
   12c5d:	39 c2                	cmp    %eax,%edx
   12c5f:	0f 95 c0             	setne  %al
   12c62:	0f b6 c0             	movzbl %al,%eax
   12c65:	8b 15 e5 a3 00 00    	mov    0xa3e5(%rip),%edx        # 1d050 <g_29>
   12c6b:	21 d0                	and    %edx,%eax
   12c6d:	0f b7 d8             	movzwl %ax,%ebx
   12c70:	8b 85 1c e3 ff ff    	mov    -0x1ce4(%rbp),%eax
   12c76:	0f b7 c0             	movzwl %ax,%eax
   12c79:	be ef a2 00 00       	mov    $0xa2ef,%esi
   12c7e:	89 c7                	mov    %eax,%edi
   12c80:	e8 d7 80 ff ff       	callq  ad5c <safe_mod_func_uint16_t_u_u>
   12c85:	0f b7 c0             	movzwl %ax,%eax
   12c88:	89 de                	mov    %ebx,%esi
   12c8a:	89 c7                	mov    %eax,%edi
   12c8c:	e8 fd 80 ff ff       	callq  ad8e <safe_div_func_uint16_t_u_u>
   12c91:	0f b7 c0             	movzwl %ax,%eax
   12c94:	89 85 1c e3 ff ff    	mov    %eax,-0x1ce4(%rbp)
   12c9a:	8b 85 1c e3 ff ff    	mov    -0x1ce4(%rbp),%eax
   12ca0:	85 c0                	test   %eax,%eax
   12ca2:	74 49                	je     12ced <func_56+0x1f2d>
   12ca4:	8b 85 38 e3 ff ff    	mov    -0x1cc8(%rbp),%eax
   12caa:	0f b7 c0             	movzwl %ax,%eax
   12cad:	be 07 00 00 00       	mov    $0x7,%esi
   12cb2:	89 c7                	mov    %eax,%edi
   12cb4:	e8 8f 81 ff ff       	callq  ae48 <safe_rshift_func_uint16_t_u_s>
   12cb9:	48 8b 05 a8 cd 00 00 	mov    0xcda8(%rip),%rax        # 1fa68 <g_770>
   12cc0:	8b 10                	mov    (%rax),%edx
   12cc2:	48 8b 85 b0 e3 ff ff 	mov    -0x1c50(%rbp),%rax
   12cc9:	89 10                	mov    %edx,(%rax)
   12ccb:	48 8b 85 b0 e3 ff ff 	mov    -0x1c50(%rbp),%rax
   12cd2:	8b 08                	mov    (%rax),%ecx
   12cd4:	48 8b 85 78 e3 ff ff 	mov    -0x1c88(%rbp),%rax
   12cdb:	8b 10                	mov    (%rax),%edx
   12cdd:	48 8b 85 78 e3 ff ff 	mov    -0x1c88(%rbp),%rax
   12ce4:	31 ca                	xor    %ecx,%edx
   12ce6:	89 10                	mov    %edx,(%rax)
   12ce8:	e9 87 0e 00 00       	jmpq   13b74 <func_56+0x2db4>
   12ced:	66 c7 85 2a e3 ff ff 	movw   $0x1,-0x1cd6(%rbp)
   12cf4:	01 00 
   12cf6:	c7 85 5c e3 ff ff ff 	movl   $0xffffffff,-0x1ca4(%rbp)
   12cfd:	ff ff ff 
   12d00:	48 8d 05 93 e6 00 00 	lea    0xe693(%rip),%rax        # 2139a <g_231>
   12d07:	48 89 85 d0 e4 ff ff 	mov    %rax,-0x1b30(%rbp)
   12d0e:	48 8d 05 85 e6 00 00 	lea    0xe685(%rip),%rax        # 2139a <g_231>
   12d15:	48 89 85 d8 e4 ff ff 	mov    %rax,-0x1b28(%rbp)
   12d1c:	48 8d 05 77 e6 00 00 	lea    0xe677(%rip),%rax        # 2139a <g_231>
   12d23:	48 89 85 e0 e4 ff ff 	mov    %rax,-0x1b20(%rbp)
   12d2a:	48 8d 05 69 e6 00 00 	lea    0xe669(%rip),%rax        # 2139a <g_231>
   12d31:	48 89 85 e8 e4 ff ff 	mov    %rax,-0x1b18(%rbp)
   12d38:	48 8d 05 5b e6 00 00 	lea    0xe65b(%rip),%rax        # 2139a <g_231>
   12d3f:	48 89 85 f0 e4 ff ff 	mov    %rax,-0x1b10(%rbp)
   12d46:	48 8d 05 4d e6 00 00 	lea    0xe64d(%rip),%rax        # 2139a <g_231>
   12d4d:	48 89 85 f8 e4 ff ff 	mov    %rax,-0x1b08(%rbp)
   12d54:	48 8d 05 3f e6 00 00 	lea    0xe63f(%rip),%rax        # 2139a <g_231>
   12d5b:	48 89 85 00 e5 ff ff 	mov    %rax,-0x1b00(%rbp)
   12d62:	48 8d 05 31 e6 00 00 	lea    0xe631(%rip),%rax        # 2139a <g_231>
   12d69:	48 89 85 08 e5 ff ff 	mov    %rax,-0x1af8(%rbp)
   12d70:	48 8d 05 23 e6 00 00 	lea    0xe623(%rip),%rax        # 2139a <g_231>
   12d77:	48 89 85 10 e5 ff ff 	mov    %rax,-0x1af0(%rbp)
   12d7e:	48 8d 05 57 a3 00 00 	lea    0xa357(%rip),%rax        # 1d0dc <g_224>
   12d85:	48 89 85 a8 e3 ff ff 	mov    %rax,-0x1c58(%rbp)
   12d8c:	48 8d 85 b0 e6 ff ff 	lea    -0x1950(%rbp),%rax
   12d93:	48 8d 15 46 b0 00 00 	lea    0xb046(%rip),%rdx        # 1dde0 <g_2043+0x7a0>
   12d9a:	b9 90 00 00 00       	mov    $0x90,%ecx
   12d9f:	48 89 c7             	mov    %rax,%rdi
   12da2:	48 89 d6             	mov    %rdx,%rsi
   12da5:	f3 48 a5             	rep movsq %ds:(%rsi),%es:(%rdi)
   12da8:	c7 85 60 e3 ff ff 00 	movl   $0x0,-0x1ca0(%rbp)
   12daf:	00 00 00 
   12db2:	c7 85 44 e3 ff ff 00 	movl   $0x0,-0x1cbc(%rbp)
   12db9:	00 00 00 
   12dbc:	eb 1a                	jmp    12dd8 <func_56+0x2018>
   12dbe:	8b 85 44 e3 ff ff    	mov    -0x1cbc(%rbp),%eax
   12dc4:	48 98                	cltq   
   12dc6:	c7 84 85 2c e4 ff ff 	movl   $0xfffffff9,-0x1bd4(%rbp,%rax,4)
   12dcd:	f9 ff ff ff 
   12dd1:	83 85 44 e3 ff ff 01 	addl   $0x1,-0x1cbc(%rbp)
   12dd8:	83 bd 44 e3 ff ff 00 	cmpl   $0x0,-0x1cbc(%rbp)
   12ddf:	7e dd                	jle    12dbe <func_56+0x1ffe>
   12de1:	48 8b 85 78 e3 ff ff 	mov    -0x1c88(%rbp),%rax
   12de8:	8b 00                	mov    (%rax),%eax
   12dea:	85 c0                	test   %eax,%eax
   12dec:	0f 84 84 04 00 00    	je     13276 <func_56+0x24b6>
   12df2:	48 8d 85 2c e3 ff ff 	lea    -0x1cd4(%rbp),%rax
   12df9:	48 89 85 e8 e3 ff ff 	mov    %rax,-0x1c18(%rbp)
   12e00:	c7 85 30 e4 ff ff 23 	movl   $0x2571f123,-0x1bd0(%rbp)
   12e07:	f1 71 25 
   12e0a:	c7 85 34 e4 ff ff 23 	movl   $0x2571f123,-0x1bcc(%rbp)
   12e11:	f1 71 25 
   12e14:	c7 85 38 e4 ff ff 23 	movl   $0x2571f123,-0x1bc8(%rbp)
   12e1b:	f1 71 25 
   12e1e:	c7 85 3c e4 ff ff 23 	movl   $0x2571f123,-0x1bc4(%rbp)
   12e25:	f1 71 25 
   12e28:	c7 85 40 e4 ff ff 23 	movl   $0x2571f123,-0x1bc0(%rbp)
   12e2f:	f1 71 25 
   12e32:	66 c7 05 5d e5 00 00 	movw   $0x0,0xe55d(%rip)        # 21398 <g_101>
   12e39:	00 00 
   12e3b:	e9 59 01 00 00       	jmpq   12f99 <func_56+0x21d9>
   12e40:	c7 85 a0 e3 ff ff 00 	movl   $0x0,-0x1c60(%rbp)
   12e47:	00 00 00 
   12e4a:	48 8b 05 5f cb 00 00 	mov    0xcb5f(%rip),%rax        # 1f9b0 <g_9>
   12e51:	8b 00                	mov    (%rax),%eax
   12e53:	85 c0                	test   %eax,%eax
   12e55:	0f 85 51 01 00 00    	jne    12fac <func_56+0x21ec>
   12e5b:	8b 85 38 e3 ff ff    	mov    -0x1cc8(%rbp),%eax
   12e61:	85 c0                	test   %eax,%eax
   12e63:	74 02                	je     12e67 <func_56+0x20a7>
   12e65:	eb cb                	jmp    12e32 <func_56+0x2072>
   12e67:	c7 05 07 a2 00 00 10 	movl   $0x10,0xa207(%rip)        # 1d078 <g_143>
   12e6e:	00 00 00 
   12e71:	e9 f9 00 00 00       	jmpq   12f6f <func_56+0x21af>
   12e76:	c7 85 6c e3 ff ff 98 	movl   $0xe2d8e598,-0x1c94(%rbp)
   12e7d:	e5 d8 e2 
   12e80:	c7 85 34 e3 ff ff 00 	movl   $0x0,-0x1ccc(%rbp)
   12e87:	00 00 00 
   12e8a:	e9 bf 00 00 00       	jmpq   12f4e <func_56+0x218e>
   12e8f:	c6 85 29 e3 ff ff fe 	movb   $0xfe,-0x1cd7(%rbp)
   12e96:	48 8d 05 7b a2 00 00 	lea    0xa27b(%rip),%rax        # 1d118 <g_756>
   12e9d:	48 89 85 f0 e3 ff ff 	mov    %rax,-0x1c10(%rbp)
   12ea4:	80 bd 29 e3 ff ff 00 	cmpb   $0x0,-0x1cd7(%rbp)
   12eab:	0f 85 ae 00 00 00    	jne    12f5f <func_56+0x219f>
   12eb1:	0f bf 95 2a e3 ff ff 	movswl -0x1cd6(%rbp),%edx
   12eb8:	0f b6 85 a0 e3 ff ff 	movzbl -0x1c60(%rbp),%eax
   12ebf:	0f b6 c0             	movzbl %al,%eax
   12ec2:	89 d6                	mov    %edx,%esi
   12ec4:	89 c7                	mov    %eax,%edi
   12ec6:	e8 5f 76 ff ff       	callq  a52a <safe_rshift_func_int16_t_s_s>
   12ecb:	0f bf d8             	movswl %ax,%ebx
   12ece:	48 8b 85 c0 e3 ff ff 	mov    -0x1c40(%rbp),%rax
   12ed5:	0f b6 00             	movzbl (%rax),%eax
   12ed8:	83 f0 fc             	xor    $0xfffffffc,%eax
   12edb:	89 c2                	mov    %eax,%edx
   12edd:	48 8b 85 c0 e3 ff ff 	mov    -0x1c40(%rbp),%rax
   12ee4:	88 10                	mov    %dl,(%rax)
   12ee6:	48 8b 85 c0 e3 ff ff 	mov    -0x1c40(%rbp),%rax
   12eed:	0f b6 00             	movzbl (%rax),%eax
   12ef0:	0f b6 c0             	movzbl %al,%eax
   12ef3:	39 85 6c e3 ff ff    	cmp    %eax,-0x1c94(%rbp)
   12ef9:	0f 9f c0             	setg   %al
   12efc:	0f b6 c0             	movzbl %al,%eax
   12eff:	48 8b 95 f0 e3 ff ff 	mov    -0x1c10(%rbp),%rdx
   12f06:	48 8b 12             	mov    (%rdx),%rdx
   12f09:	48 8d 4a ff          	lea    -0x1(%rdx),%rcx
   12f0d:	48 8b 95 f0 e3 ff ff 	mov    -0x1c10(%rbp),%rdx
   12f14:	48 89 0a             	mov    %rcx,(%rdx)
   12f17:	89 c6                	mov    %eax,%esi
   12f19:	bf 01 00 00 00       	mov    $0x1,%edi
   12f1e:	e8 e2 76 ff ff       	callq  a605 <safe_sub_func_int32_t_s_s>
   12f23:	09 c3                	or     %eax,%ebx
   12f25:	89 da                	mov    %ebx,%edx
   12f27:	48 8b 85 b0 e3 ff ff 	mov    -0x1c50(%rbp),%rax
   12f2e:	89 10                	mov    %edx,(%rax)
   12f30:	8b 85 34 e3 ff ff    	mov    -0x1ccc(%rbp),%eax
   12f36:	0f be c0             	movsbl %al,%eax
   12f39:	be 07 00 00 00       	mov    $0x7,%esi
   12f3e:	89 c7                	mov    %eax,%edi
   12f40:	e8 8f 72 ff ff       	callq  a1d4 <safe_add_func_int8_t_s_s>
   12f45:	0f be c0             	movsbl %al,%eax
   12f48:	89 85 34 e3 ff ff    	mov    %eax,-0x1ccc(%rbp)
   12f4e:	8b 85 34 e3 ff ff    	mov    -0x1ccc(%rbp),%eax
   12f54:	83 f8 15             	cmp    $0x15,%eax
   12f57:	0f 85 32 ff ff ff    	jne    12e8f <func_56+0x20cf>
   12f5d:	eb 01                	jmp    12f60 <func_56+0x21a0>
   12f5f:	90                   	nop
   12f60:	8b 05 12 a1 00 00    	mov    0xa112(%rip),%eax        # 1d078 <g_143>
   12f66:	83 c0 01             	add    $0x1,%eax
   12f69:	89 05 09 a1 00 00    	mov    %eax,0xa109(%rip)        # 1d078 <g_143>
   12f6f:	8b 05 03 a1 00 00    	mov    0xa103(%rip),%eax        # 1d078 <g_143>
   12f75:	83 f8 16             	cmp    $0x16,%eax
   12f78:	0f 8e f8 fe ff ff    	jle    12e76 <func_56+0x20b6>
   12f7e:	0f b7 05 13 e4 00 00 	movzwl 0xe413(%rip),%eax        # 21398 <g_101>
   12f85:	98                   	cwtl   
   12f86:	be 02 00 00 00       	mov    $0x2,%esi
   12f8b:	89 c7                	mov    %eax,%edi
   12f8d:	e8 21 74 ff ff       	callq  a3b3 <safe_add_func_int16_t_s_s>
   12f92:	66 89 05 ff e3 00 00 	mov    %ax,0xe3ff(%rip)        # 21398 <g_101>
   12f99:	0f b7 05 f8 e3 00 00 	movzwl 0xe3f8(%rip),%eax        # 21398 <g_101>
   12fa0:	66 83 f8 15          	cmp    $0x15,%ax
   12fa4:	0f 84 96 fe ff ff    	je     12e40 <func_56+0x2080>
   12faa:	eb 01                	jmp    12fad <func_56+0x21ed>
   12fac:	90                   	nop
   12fad:	c7 85 1c e3 ff ff 0d 	movl   $0xd,-0x1ce4(%rbp)
   12fb4:	00 00 00 
   12fb7:	e9 a6 02 00 00       	jmpq   13262 <func_56+0x24a2>
   12fbc:	48 8d 85 c0 f7 ff ff 	lea    -0x840(%rbp),%rax
   12fc3:	48 05 08 07 00 00    	add    $0x708,%rax
   12fc9:	48 89 85 90 e4 ff ff 	mov    %rax,-0x1b70(%rbp)
   12fd0:	48 8d 85 c0 f7 ff ff 	lea    -0x840(%rbp),%rax
   12fd7:	48 05 08 07 00 00    	add    $0x708,%rax
   12fdd:	48 89 85 98 e4 ff ff 	mov    %rax,-0x1b68(%rbp)
   12fe4:	48 8d 85 c0 f7 ff ff 	lea    -0x840(%rbp),%rax
   12feb:	48 05 08 07 00 00    	add    $0x708,%rax
   12ff1:	48 89 85 a0 e4 ff ff 	mov    %rax,-0x1b60(%rbp)
   12ff8:	48 8d 85 c0 f7 ff ff 	lea    -0x840(%rbp),%rax
   12fff:	48 05 08 07 00 00    	add    $0x708,%rax
   13005:	48 89 85 a8 e4 ff ff 	mov    %rax,-0x1b58(%rbp)
   1300c:	48 8d 85 c0 f7 ff ff 	lea    -0x840(%rbp),%rax
   13013:	48 05 08 07 00 00    	add    $0x708,%rax
   13019:	48 89 85 b0 e4 ff ff 	mov    %rax,-0x1b50(%rbp)
   13020:	8b 95 1c e3 ff ff    	mov    -0x1ce4(%rbp),%edx
   13026:	48 8b 85 b0 e3 ff ff 	mov    -0x1c50(%rbp),%rax
   1302d:	89 10                	mov    %edx,(%rax)
   1302f:	48 c7 85 e8 e3 ff ff 	movq   $0x0,-0x1c18(%rbp)
   13036:	00 00 00 00 
   1303a:	48 8b 85 78 e3 ff ff 	mov    -0x1c88(%rbp),%rax
   13041:	8b 10                	mov    (%rax),%edx
   13043:	48 8b 85 b0 e3 ff ff 	mov    -0x1c50(%rbp),%rax
   1304a:	89 10                	mov    %edx,(%rax)
   1304c:	66 c7 85 2a e3 ff ff 	movw   $0xffee,-0x1cd6(%rbp)
   13053:	ee ff 
   13055:	e9 e2 01 00 00       	jmpq   1323c <func_56+0x247c>
   1305a:	48 8d 05 1b a0 00 00 	lea    0xa01b(%rip),%rax        # 1d07c <g_153>
   13061:	48 89 85 30 eb ff ff 	mov    %rax,-0x14d0(%rbp)
   13068:	48 8d 05 0d a0 00 00 	lea    0xa00d(%rip),%rax        # 1d07c <g_153>
   1306f:	48 89 85 38 eb ff ff 	mov    %rax,-0x14c8(%rbp)
   13076:	48 8d 05 ff 9f 00 00 	lea    0x9fff(%rip),%rax        # 1d07c <g_153>
   1307d:	48 89 85 40 eb ff ff 	mov    %rax,-0x14c0(%rbp)
   13084:	48 8d 05 f1 9f 00 00 	lea    0x9ff1(%rip),%rax        # 1d07c <g_153>
   1308b:	48 89 85 48 eb ff ff 	mov    %rax,-0x14b8(%rbp)
   13092:	48 8d 05 e3 9f 00 00 	lea    0x9fe3(%rip),%rax        # 1d07c <g_153>
   13099:	48 89 85 50 eb ff ff 	mov    %rax,-0x14b0(%rbp)
   130a0:	48 8d 05 d5 9f 00 00 	lea    0x9fd5(%rip),%rax        # 1d07c <g_153>
   130a7:	48 89 85 58 eb ff ff 	mov    %rax,-0x14a8(%rbp)
   130ae:	48 8d 05 c7 9f 00 00 	lea    0x9fc7(%rip),%rax        # 1d07c <g_153>
   130b5:	48 89 85 60 eb ff ff 	mov    %rax,-0x14a0(%rbp)
   130bc:	c7 85 3c e3 ff ff 01 	movl   $0x1,-0x1cc4(%rbp)
   130c3:	00 00 00 
   130c6:	c7 05 20 a0 00 00 00 	movl   $0x0,0xa020(%rip)        # 1d0f0 <g_448>
   130cd:	00 00 00 
   130d0:	e9 3f 01 00 00       	jmpq   13214 <func_56+0x2454>
   130d5:	48 c7 85 08 e4 ff ff 	movq   $0x0,-0x1bf8(%rbp)
   130dc:	00 00 00 00 
   130e0:	48 8d 05 81 9f 00 00 	lea    0x9f81(%rip),%rax        # 1d068 <g_76>
   130e7:	48 89 85 10 e4 ff ff 	mov    %rax,-0x1bf0(%rbp)
   130ee:	48 8d 05 83 9f 00 00 	lea    0x9f83(%rip),%rax        # 1d078 <g_143>
   130f5:	48 89 85 98 e3 ff ff 	mov    %rax,-0x1c68(%rbp)
   130fc:	48 8d 85 98 e3 ff ff 	lea    -0x1c68(%rbp),%rax
   13103:	48 89 85 18 e4 ff ff 	mov    %rax,-0x1be8(%rbp)
   1310a:	48 8d 05 df 9f 00 00 	lea    0x9fdf(%rip),%rax        # 1d0f0 <g_448>
   13111:	48 89 85 a0 e3 ff ff 	mov    %rax,-0x1c60(%rbp)
   13118:	48 8d 85 a0 e3 ff ff 	lea    -0x1c60(%rbp),%rax
   1311f:	48 89 85 20 e4 ff ff 	mov    %rax,-0x1be0(%rbp)
   13126:	48 8b 05 03 d1 00 00 	mov    0xd103(%rip),%rax        # 20230 <g_844>
   1312d:	48 8d 15 b4 c8 00 00 	lea    0xc8b4(%rip),%rdx        # 1f9e8 <g_184>
   13134:	48 89 10             	mov    %rdx,(%rax)
   13137:	48 c7 85 10 e4 ff ff 	movq   $0x0,-0x1bf0(%rbp)
   1313e:	00 00 00 00 
   13142:	48 8b 85 78 e3 ff ff 	mov    -0x1c88(%rbp),%rax
   13149:	8b 10                	mov    (%rax),%edx
   1314b:	48 8b 85 78 e3 ff ff 	mov    -0x1c88(%rbp),%rax
   13152:	83 f2 01             	xor    $0x1,%edx
   13155:	89 10                	mov    %edx,(%rax)
   13157:	0f b6 05 42 e2 00 00 	movzbl 0xe242(%rip),%eax        # 213a0 <g_257>
   1315e:	48 8d 85 1c e3 ff ff 	lea    -0x1ce4(%rbp),%rax
   13165:	48 89 85 e8 e3 ff ff 	mov    %rax,-0x1c18(%rbp)
   1316c:	48 8b 85 58 eb ff ff 	mov    -0x14a8(%rbp),%rax
   13173:	48 39 85 e8 e3 ff ff 	cmp    %rax,-0x1c18(%rbp)
   1317a:	0f 95 c0             	setne  %al
   1317d:	0f b6 d8             	movzbl %al,%ebx
   13180:	0f b7 85 2a e3 ff ff 	movzwl -0x1cd6(%rbp),%eax
   13187:	0f b7 c0             	movzwl %ax,%eax
   1318a:	be 0d 00 00 00       	mov    $0xd,%esi
   1318f:	89 c7                	mov    %eax,%edi
   13191:	e8 28 7c ff ff       	callq  adbe <safe_lshift_func_uint16_t_u_s>
   13196:	48 8b 85 18 e4 ff ff 	mov    -0x1be8(%rbp),%rax
   1319d:	48 8d 15 4c 9f 00 00 	lea    0x9f4c(%rip),%rdx        # 1d0f0 <g_448>
   131a4:	48 89 10             	mov    %rdx,(%rax)
   131a7:	48 8b 85 18 e4 ff ff 	mov    -0x1be8(%rbp),%rax
   131ae:	48 8b 10             	mov    (%rax),%rdx
   131b1:	48 8b 85 20 e4 ff ff 	mov    -0x1be0(%rbp),%rax
   131b8:	48 89 10             	mov    %rdx,(%rax)
   131bb:	48 8b 85 20 e4 ff ff 	mov    -0x1be0(%rbp),%rax
   131c2:	48 8b 10             	mov    (%rax),%rdx
   131c5:	48 8d 85 38 e3 ff ff 	lea    -0x1cc8(%rbp),%rax
   131cc:	48 39 c2             	cmp    %rax,%rdx
   131cf:	0f 94 c0             	sete   %al
   131d2:	0f b6 c0             	movzbl %al,%eax
   131d5:	39 c3                	cmp    %eax,%ebx
   131d7:	0f 9d c0             	setge  %al
   131da:	0f b6 d0             	movzbl %al,%edx
   131dd:	8b 85 1c e3 ff ff    	mov    -0x1ce4(%rbp),%eax
   131e3:	39 c2                	cmp    %eax,%edx
   131e5:	0f 9e c0             	setle  %al
   131e8:	0f b6 d0             	movzbl %al,%edx
   131eb:	8b 85 38 e4 ff ff    	mov    -0x1bc8(%rbp),%eax
   131f1:	09 d0                	or     %edx,%eax
   131f3:	89 85 38 e4 ff ff    	mov    %eax,-0x1bc8(%rbp)
   131f9:	8b 05 f1 9e 00 00    	mov    0x9ef1(%rip),%eax        # 1d0f0 <g_448>
   131ff:	48 98                	cltq   
   13201:	be 02 00 00 00       	mov    $0x2,%esi
   13206:	48 89 c7             	mov    %rax,%rdi
   13209:	e8 9a 76 ff ff       	callq  a8a8 <safe_sub_func_int64_t_s_s>
   1320e:	89 05 dc 9e 00 00    	mov    %eax,0x9edc(%rip)        # 1d0f0 <g_448>
   13214:	8b 05 d6 9e 00 00    	mov    0x9ed6(%rip),%eax        # 1d0f0 <g_448>
   1321a:	83 f8 e2             	cmp    $0xffffffe2,%eax
   1321d:	0f 8d b2 fe ff ff    	jge    130d5 <func_56+0x2315>
   13223:	8b 85 1c e3 ff ff    	mov    -0x1ce4(%rbp),%eax
   13229:	85 c0                	test   %eax,%eax
   1322b:	0f b7 85 2a e3 ff ff 	movzwl -0x1cd6(%rbp),%eax
   13232:	83 c0 01             	add    $0x1,%eax
   13235:	66 89 85 2a e3 ff ff 	mov    %ax,-0x1cd6(%rbp)
   1323c:	66 83 bd 2a e3 ff ff 	cmpw   $0xfff1,-0x1cd6(%rbp)
   13243:	f1 
   13244:	0f 8c 10 fe ff ff    	jl     1305a <func_56+0x229a>
   1324a:	8b 85 1c e3 ff ff    	mov    -0x1ce4(%rbp),%eax
   13250:	be 09 00 00 00       	mov    $0x9,%esi
   13255:	89 c7                	mov    %eax,%edi
   13257:	e8 a9 73 ff ff       	callq  a605 <safe_sub_func_int32_t_s_s>
   1325c:	89 85 1c e3 ff ff    	mov    %eax,-0x1ce4(%rbp)
   13262:	8b 85 1c e3 ff ff    	mov    -0x1ce4(%rbp),%eax
   13268:	83 f8 f1             	cmp    $0xfffffff1,%eax
   1326b:	0f 8d 4b fd ff ff    	jge    12fbc <func_56+0x21fc>
   13271:	e9 db 04 00 00       	jmpq   13751 <func_56+0x2991>
   13276:	c7 85 48 e3 ff ff 01 	movl   $0x1,-0x1cb8(%rbp)
   1327d:	00 00 00 
   13280:	48 c7 85 c8 e3 ff ff 	movq   $0x0,-0x1c38(%rbp)
   13287:	00 00 00 00 
   1328b:	48 8d 05 5e 9e 00 00 	lea    0x9e5e(%rip),%rax        # 1d0f0 <g_448>
   13292:	48 89 85 d0 e3 ff ff 	mov    %rax,-0x1c30(%rbp)
   13299:	48 8d 85 80 e3 ff ff 	lea    -0x1c80(%rbp),%rax
   132a0:	48 89 85 90 e4 ff ff 	mov    %rax,-0x1b70(%rbp)
   132a7:	48 8d 85 80 e3 ff ff 	lea    -0x1c80(%rbp),%rax
   132ae:	48 89 85 98 e4 ff ff 	mov    %rax,-0x1b68(%rbp)
   132b5:	48 8d 85 80 e3 ff ff 	lea    -0x1c80(%rbp),%rax
   132bc:	48 89 85 a0 e4 ff ff 	mov    %rax,-0x1b60(%rbp)
   132c3:	48 8d 85 80 e3 ff ff 	lea    -0x1c80(%rbp),%rax
   132ca:	48 89 85 a8 e4 ff ff 	mov    %rax,-0x1b58(%rbp)
   132d1:	48 8d 85 80 e3 ff ff 	lea    -0x1c80(%rbp),%rax
   132d8:	48 89 85 b0 e4 ff ff 	mov    %rax,-0x1b50(%rbp)
   132df:	48 8d 85 80 e3 ff ff 	lea    -0x1c80(%rbp),%rax
   132e6:	48 89 85 b8 e4 ff ff 	mov    %rax,-0x1b48(%rbp)
   132ed:	48 8d 85 80 e3 ff ff 	lea    -0x1c80(%rbp),%rax
   132f4:	48 89 85 c0 e4 ff ff 	mov    %rax,-0x1b40(%rbp)
   132fb:	48 8d 85 80 e3 ff ff 	lea    -0x1c80(%rbp),%rax
   13302:	48 89 85 c8 e4 ff ff 	mov    %rax,-0x1b38(%rbp)
   13309:	c7 85 4c e3 ff ff 00 	movl   $0x0,-0x1cb4(%rbp)
   13310:	00 00 00 
   13313:	eb 74                	jmp    13389 <func_56+0x25c9>
   13315:	c7 85 50 e3 ff ff 00 	movl   $0x0,-0x1cb0(%rbp)
   1331c:	00 00 00 
   1331f:	eb 58                	jmp    13379 <func_56+0x25b9>
   13321:	c7 85 54 e3 ff ff 00 	movl   $0x0,-0x1cac(%rbp)
   13328:	00 00 00 
   1332b:	eb 3c                	jmp    13369 <func_56+0x25a9>
   1332d:	8b 85 54 e3 ff ff    	mov    -0x1cac(%rbp),%eax
   13333:	48 63 c8             	movslq %eax,%rcx
   13336:	8b 85 4c e3 ff ff    	mov    -0x1cb4(%rbp),%eax
   1333c:	48 63 d0             	movslq %eax,%rdx
   1333f:	8b 85 50 e3 ff ff    	mov    -0x1cb0(%rbp),%eax
   13345:	48 98                	cltq   
   13347:	48 01 c2             	add    %rax,%rdx
   1334a:	48 89 d0             	mov    %rdx,%rax
   1334d:	48 c1 e0 02          	shl    $0x2,%rax
   13351:	48 01 d0             	add    %rdx,%rax
   13354:	48 01 c8             	add    %rcx,%rax
   13357:	c7 84 85 30 e4 ff ff 	movl   $0x0,-0x1bd0(%rbp,%rax,4)
   1335e:	00 00 00 00 
   13362:	83 85 54 e3 ff ff 01 	addl   $0x1,-0x1cac(%rbp)
   13369:	83 bd 54 e3 ff ff 04 	cmpl   $0x4,-0x1cac(%rbp)
   13370:	7e bb                	jle    1332d <func_56+0x256d>
   13372:	83 85 50 e3 ff ff 01 	addl   $0x1,-0x1cb0(%rbp)
   13379:	83 bd 50 e3 ff ff 00 	cmpl   $0x0,-0x1cb0(%rbp)
   13380:	7e 9f                	jle    13321 <func_56+0x2561>
   13382:	83 85 4c e3 ff ff 01 	addl   $0x1,-0x1cb4(%rbp)
   13389:	83 bd 4c e3 ff ff 00 	cmpl   $0x0,-0x1cb4(%rbp)
   13390:	7e 83                	jle    13315 <func_56+0x2555>
   13392:	66 c7 05 65 9d 00 00 	movw   $0x0,0x9d65(%rip)        # 1d100 <g_546>
   13399:	00 00 
   1339b:	e9 a4 00 00 00       	jmpq   13444 <func_56+0x2684>
   133a0:	48 c7 85 e0 e3 ff ff 	movq   $0x0,-0x1c20(%rbp)
   133a7:	00 00 00 00 
   133ab:	c7 85 30 eb ff ff 02 	movl   $0x5ced5502,-0x14d0(%rbp)
   133b2:	55 ed 5c 
   133b5:	c7 85 34 eb ff ff 02 	movl   $0x5ced5502,-0x14cc(%rbp)
   133bc:	55 ed 5c 
   133bf:	c7 85 38 eb ff ff 02 	movl   $0x5ced5502,-0x14c8(%rbp)
   133c6:	55 ed 5c 
   133c9:	c7 85 3c eb ff ff 02 	movl   $0x5ced5502,-0x14c4(%rbp)
   133d0:	55 ed 5c 
   133d3:	c7 85 40 eb ff ff 02 	movl   $0x5ced5502,-0x14c0(%rbp)
   133da:	55 ed 5c 
   133dd:	c7 85 44 eb ff ff 02 	movl   $0x5ced5502,-0x14bc(%rbp)
   133e4:	55 ed 5c 
   133e7:	c7 85 48 eb ff ff 02 	movl   $0x5ced5502,-0x14b8(%rbp)
   133ee:	55 ed 5c 
   133f1:	c7 85 4c eb ff ff 02 	movl   $0x5ced5502,-0x14b4(%rbp)
   133f8:	55 ed 5c 
   133fb:	c7 85 50 eb ff ff 02 	movl   $0x5ced5502,-0x14b0(%rbp)
   13402:	55 ed 5c 
   13405:	48 8d 05 f8 9c 00 00 	lea    0x9cf8(%rip),%rax        # 1d104 <g_569>
   1340c:	48 89 85 28 e5 ff ff 	mov    %rax,-0x1ad8(%rbp)
   13413:	83 85 48 e3 ff ff 01 	addl   $0x1,-0x1cb8(%rbp)
   1341a:	48 8b 85 78 e3 ff ff 	mov    -0x1c88(%rbp),%rax
   13421:	8b 95 1c e3 ff ff    	mov    -0x1ce4(%rbp),%edx
   13427:	89 10                	mov    %edx,(%rax)
   13429:	0f b7 05 d0 9c 00 00 	movzwl 0x9cd0(%rip),%eax        # 1d100 <g_546>
   13430:	98                   	cwtl   
   13431:	be 02 00 00 00       	mov    $0x2,%esi
   13436:	89 c7                	mov    %eax,%edi
   13438:	e8 76 6f ff ff       	callq  a3b3 <safe_add_func_int16_t_s_s>
   1343d:	66 89 05 bc 9c 00 00 	mov    %ax,0x9cbc(%rip)        # 1d100 <g_546>
   13444:	0f b7 05 b5 9c 00 00 	movzwl 0x9cb5(%rip),%eax        # 1d100 <g_546>
   1344b:	66 83 f8 3c          	cmp    $0x3c,%ax
   1344f:	0f 84 4b ff ff ff    	je     133a0 <func_56+0x25e0>
   13455:	c6 05 ec 9b 00 00 00 	movb   $0x0,0x9bec(%rip)        # 1d048 <g_13>
   1345c:	e9 b6 02 00 00       	jmpq   13717 <func_56+0x2957>
   13461:	48 8d 85 34 e3 ff ff 	lea    -0x1ccc(%rbp),%rax
   13468:	48 89 85 30 eb ff ff 	mov    %rax,-0x14d0(%rbp)
   1346f:	48 8d 85 34 e3 ff ff 	lea    -0x1ccc(%rbp),%rax
   13476:	48 89 85 38 eb ff ff 	mov    %rax,-0x14c8(%rbp)
   1347d:	48 8d 85 34 e3 ff ff 	lea    -0x1ccc(%rbp),%rax
   13484:	48 89 85 40 eb ff ff 	mov    %rax,-0x14c0(%rbp)
   1348b:	48 8d 85 34 e3 ff ff 	lea    -0x1ccc(%rbp),%rax
   13492:	48 89 85 48 eb ff ff 	mov    %rax,-0x14b8(%rbp)
   13499:	48 8d 85 34 e3 ff ff 	lea    -0x1ccc(%rbp),%rax
   134a0:	48 89 85 50 eb ff ff 	mov    %rax,-0x14b0(%rbp)
   134a7:	48 8d 85 34 e3 ff ff 	lea    -0x1ccc(%rbp),%rax
   134ae:	48 89 85 58 eb ff ff 	mov    %rax,-0x14a8(%rbp)
   134b5:	48 8d 85 34 e3 ff ff 	lea    -0x1ccc(%rbp),%rax
   134bc:	48 89 85 60 eb ff ff 	mov    %rax,-0x14a0(%rbp)
   134c3:	48 8d 85 34 e3 ff ff 	lea    -0x1ccc(%rbp),%rax
   134ca:	48 89 85 68 eb ff ff 	mov    %rax,-0x1498(%rbp)
   134d1:	48 8d 85 34 e3 ff ff 	lea    -0x1ccc(%rbp),%rax
   134d8:	48 89 85 70 eb ff ff 	mov    %rax,-0x1490(%rbp)
   134df:	48 8b 85 c8 e3 ff ff 	mov    -0x1c38(%rbp),%rax
   134e6:	48 89 85 f8 e4 ff ff 	mov    %rax,-0x1b08(%rbp)
   134ed:	48 8b 85 f8 e4 ff ff 	mov    -0x1b08(%rbp),%rax
   134f4:	48 85 c0             	test   %rax,%rax
   134f7:	0f 94 c2             	sete   %dl
   134fa:	48 8b 85 78 e3 ff ff 	mov    -0x1c88(%rbp),%rax
   13501:	0f b6 d2             	movzbl %dl,%edx
   13504:	89 10                	mov    %edx,(%rax)
   13506:	8b 10                	mov    (%rax),%edx
   13508:	8b 85 1c e3 ff ff    	mov    -0x1ce4(%rbp),%eax
   1350e:	21 d0                	and    %edx,%eax
   13510:	89 85 1c e3 ff ff    	mov    %eax,-0x1ce4(%rbp)
   13516:	66 c7 05 f1 9b 00 00 	movw   $0xd,0x9bf1(%rip)        # 1d110 <g_697>
   1351d:	0d 00 
   1351f:	e9 d2 01 00 00       	jmpq   136f6 <func_56+0x2936>
   13524:	c7 85 64 e3 ff ff fe 	movl   $0xfffffffe,-0x1c9c(%rbp)
   1352b:	ff ff ff 
   1352e:	c7 85 68 e3 ff ff 01 	movl   $0x1,-0x1c98(%rbp)
   13535:	00 00 00 
   13538:	48 8d 05 d9 9b 00 00 	lea    0x9bd9(%rip),%rax        # 1d118 <g_756>
   1353f:	48 89 85 d8 e3 ff ff 	mov    %rax,-0x1c28(%rbp)
   13546:	48 8d 85 1c e3 ff ff 	lea    -0x1ce4(%rbp),%rax
   1354d:	48 89 85 30 eb ff ff 	mov    %rax,-0x14d0(%rbp)
   13554:	8b 85 5c e3 ff ff    	mov    -0x1ca4(%rbp),%eax
   1355a:	39 85 68 e3 ff ff    	cmp    %eax,-0x1c98(%rbp)
   13560:	0f 94 c0             	sete   %al
   13563:	0f b6 c0             	movzbl %al,%eax
   13566:	8b 95 5c e3 ff ff    	mov    -0x1ca4(%rbp),%edx
   1356c:	89 d6                	mov    %edx,%esi
   1356e:	89 c7                	mov    %eax,%edi
   13570:	e8 18 77 ff ff       	callq  ac8d <safe_rshift_func_uint8_t_u_s>
   13575:	0f b7 85 2a e3 ff ff 	movzwl -0x1cd6(%rbp),%eax
   1357c:	0f b7 d8             	movzwl %ax,%ebx
   1357f:	8b 85 30 e4 ff ff    	mov    -0x1bd0(%rbp),%eax
   13585:	0f b6 c0             	movzbl %al,%eax
   13588:	be 04 00 00 00       	mov    $0x4,%esi
   1358d:	89 c7                	mov    %eax,%edi
   1358f:	e8 f9 76 ff ff       	callq  ac8d <safe_rshift_func_uint8_t_u_s>
   13594:	48 8b 95 d8 e3 ff ff 	mov    -0x1c28(%rbp),%rdx
   1359b:	48 8b 12             	mov    (%rdx),%rdx
   1359e:	0f b6 c0             	movzbl %al,%eax
   135a1:	48 21 c2             	and    %rax,%rdx
   135a4:	48 8b 85 d8 e3 ff ff 	mov    -0x1c28(%rbp),%rax
   135ab:	48 89 10             	mov    %rdx,(%rax)
   135ae:	48 8b 05 6b 9b 00 00 	mov    0x9b6b(%rip),%rax        # 1d120 <g_899>
   135b5:	48 8b 85 78 e3 ff ff 	mov    -0x1c88(%rbp),%rax
   135bc:	8b 08                	mov    (%rax),%ecx
   135be:	8b 95 1c e3 ff ff    	mov    -0x1ce4(%rbp),%edx
   135c4:	48 8b 85 78 e3 ff ff 	mov    -0x1c88(%rbp),%rax
   135cb:	31 ca                	xor    %ecx,%edx
   135cd:	89 10                	mov    %edx,(%rax)
   135cf:	8b 00                	mov    (%rax),%eax
   135d1:	98                   	cwtl   
   135d2:	be 0f 00 00 00       	mov    $0xf,%esi
   135d7:	89 c7                	mov    %eax,%edi
   135d9:	e8 03 6f ff ff       	callq  a4e1 <safe_lshift_func_int16_t_s_u>
   135de:	8b 85 1c e3 ff ff    	mov    -0x1ce4(%rbp),%eax
   135e4:	89 85 1c e3 ff ff    	mov    %eax,-0x1ce4(%rbp)
   135ea:	8b 85 1c e3 ff ff    	mov    -0x1ce4(%rbp),%eax
   135f0:	89 c2                	mov    %eax,%edx
   135f2:	8b 85 30 e4 ff ff    	mov    -0x1bd0(%rbp),%eax
   135f8:	21 d0                	and    %edx,%eax
   135fa:	0f be c0             	movsbl %al,%eax
   135fd:	be 02 00 00 00       	mov    $0x2,%esi
   13602:	89 c7                	mov    %eax,%edi
   13604:	e8 63 6d ff ff       	callq  a36c <safe_rshift_func_int8_t_s_u>
   13609:	48 8b 15 70 c4 00 00 	mov    0xc470(%rip),%rdx        # 1fa80 <g_805>
   13610:	48 8b 12             	mov    (%rdx),%rdx
   13613:	0f b7 0a             	movzwl (%rdx),%ecx
   13616:	66 0f be d0          	movsbw %al,%dx
   1361a:	48 8b 05 5f c4 00 00 	mov    0xc45f(%rip),%rax        # 1fa80 <g_805>
   13621:	48 8b 00             	mov    (%rax),%rax
   13624:	21 ca                	and    %ecx,%edx
   13626:	66 89 10             	mov    %dx,(%rax)
   13629:	0f b7 00             	movzwl (%rax),%eax
   1362c:	66 85 c0             	test   %ax,%ax
   1362f:	74 11                	je     13642 <func_56+0x2882>
   13631:	8b 85 1c e3 ff ff    	mov    -0x1ce4(%rbp),%eax
   13637:	85 c0                	test   %eax,%eax
   13639:	74 07                	je     13642 <func_56+0x2882>
   1363b:	b8 01 00 00 00       	mov    $0x1,%eax
   13640:	eb 05                	jmp    13647 <func_56+0x2887>
   13642:	b8 00 00 00 00       	mov    $0x0,%eax
   13647:	0f b7 c0             	movzwl %ax,%eax
   1364a:	25 20 0d 00 00       	and    $0xd20,%eax
   1364f:	89 de                	mov    %ebx,%esi
   13651:	89 c7                	mov    %eax,%edi
   13653:	e8 e5 76 ff ff       	callq  ad3d <safe_mul_func_uint16_t_u_u>
   13658:	0f be c0             	movsbl %al,%eax
   1365b:	89 c7                	mov    %eax,%edi
   1365d:	e8 5d 6b ff ff       	callq  a1bf <safe_unary_minus_func_int8_t_s>
   13662:	0f be d0             	movsbl %al,%edx
   13665:	0f b7 05 a6 9a 00 00 	movzwl 0x9aa6(%rip),%eax        # 1d112 <g_698>
   1366c:	98                   	cwtl   
   1366d:	31 c2                	xor    %eax,%edx
   1366f:	0f bf 85 2a e3 ff ff 	movswl -0x1cd6(%rbp),%eax
   13676:	39 c2                	cmp    %eax,%edx
   13678:	0f 9c c0             	setl   %al
   1367b:	0f b6 d0             	movzbl %al,%edx
   1367e:	8b 85 64 e3 ff ff    	mov    -0x1c9c(%rbp),%eax
   13684:	0f be c0             	movsbl %al,%eax
   13687:	89 d6                	mov    %edx,%esi
   13689:	89 c7                	mov    %eax,%edi
   1368b:	e8 82 6b ff ff       	callq  a212 <safe_mul_func_int8_t_s_s>
   13690:	48 0f be c0          	movsbq %al,%rax
   13694:	48 89 c6             	mov    %rax,%rsi
   13697:	48 bf fe d3 04 1f 9d 	movabs $0x6f4ca19d1f04d3fe,%rdi
   1369e:	a1 4c 6f 
   136a1:	e8 51 73 ff ff       	callq  a9f7 <safe_div_func_int64_t_s_s>
   136a6:	8b 95 48 e3 ff ff    	mov    -0x1cb8(%rbp),%edx
   136ac:	48 39 d0             	cmp    %rdx,%rax
   136af:	0f 94 c0             	sete   %al
   136b2:	0f b6 c0             	movzbl %al,%eax
   136b5:	48 89 c7             	mov    %rax,%rdi
   136b8:	e8 59 71 ff ff       	callq  a816 <safe_unary_minus_func_int64_t_s>
   136bd:	89 c6                	mov    %eax,%esi
   136bf:	bf 13 4a d9 8c       	mov    $0x8cd94a13,%edi
   136c4:	e8 03 70 ff ff       	callq  a6cc <safe_mod_func_int32_t_s_s>
   136c9:	8b 95 2c e4 ff ff    	mov    -0x1bd4(%rbp),%edx
   136cf:	21 d0                	and    %edx,%eax
   136d1:	89 85 2c e4 ff ff    	mov    %eax,-0x1bd4(%rbp)
   136d7:	0f b7 05 32 9a 00 00 	movzwl 0x9a32(%rip),%eax        # 1d110 <g_697>
   136de:	0f be c0             	movsbl %al,%eax
   136e1:	be 01 00 00 00       	mov    $0x1,%esi
   136e6:	89 c7                	mov    %eax,%edi
   136e8:	e8 e7 6a ff ff       	callq  a1d4 <safe_add_func_int8_t_s_s>
   136ed:	66 98                	cbtw   
   136ef:	66 89 05 1a 9a 00 00 	mov    %ax,0x9a1a(%rip)        # 1d110 <g_697>
   136f6:	0f b7 05 13 9a 00 00 	movzwl 0x9a13(%rip),%eax        # 1d110 <g_697>
   136fd:	66 83 f8 1b          	cmp    $0x1b,%ax
   13701:	0f 86 1d fe ff ff    	jbe    13524 <func_56+0x2764>
   13707:	0f b6 05 3a 99 00 00 	movzbl 0x993a(%rip),%eax        # 1d048 <g_13>
   1370e:	83 e8 01             	sub    $0x1,%eax
   13711:	88 05 31 99 00 00    	mov    %al,0x9931(%rip)        # 1d048 <g_13>
   13717:	0f b6 05 2a 99 00 00 	movzbl 0x992a(%rip),%eax        # 1d048 <g_13>
   1371e:	3c f5                	cmp    $0xf5,%al
   13720:	0f 8d 3b fd ff ff    	jge    13461 <func_56+0x26a1>
   13726:	48 8d 85 2c e4 ff ff 	lea    -0x1bd4(%rbp),%rax
   1372d:	48 89 85 a8 e3 ff ff 	mov    %rax,-0x1c58(%rbp)
   13734:	48 8b 85 a8 e3 ff ff 	mov    -0x1c58(%rbp),%rax
   1373b:	48 89 85 80 e3 ff ff 	mov    %rax,-0x1c80(%rbp)
   13742:	0f b6 05 ff 98 00 00 	movzbl 0x98ff(%rip),%eax        # 1d048 <g_13>
   13749:	0f be c0             	movsbl %al,%eax
   1374c:	e9 2b 04 00 00       	jmpq   13b7c <func_56+0x2dbc>
   13751:	c7 05 95 99 00 00 0d 	movl   $0xd,0x9995(%rip)        # 1d0f0 <g_448>
   13758:	00 00 00 
   1375b:	e9 b4 02 00 00       	jmpq   13a14 <func_56+0x2c54>
   13760:	c7 85 70 e3 ff ff 74 	movl   $0xfe56a974,-0x1c90(%rbp)
   13767:	a9 56 fe 
   1376a:	48 8d 85 30 eb ff ff 	lea    -0x14d0(%rbp),%rax
   13771:	48 8d 15 e8 aa 00 00 	lea    0xaae8(%rip),%rdx        # 1e260 <g_2043+0xc20>
   13778:	b9 96 00 00 00       	mov    $0x96,%ecx
   1377d:	48 89 c7             	mov    %rax,%rdi
   13780:	48 89 d6             	mov    %rdx,%rsi
   13783:	f3 48 a5             	rep movsq %ds:(%rsi),%es:(%rdi)
   13786:	c7 85 74 e3 ff ff 02 	movl   $0x2,-0x1c8c(%rbp)
   1378d:	00 00 00 
   13790:	c7 85 58 e3 ff ff 00 	movl   $0x0,-0x1ca8(%rbp)
   13797:	00 00 00 
   1379a:	eb 1a                	jmp    137b6 <func_56+0x29f6>
   1379c:	8b 85 58 e3 ff ff    	mov    -0x1ca8(%rbp),%eax
   137a2:	48 98                	cltq   
   137a4:	c7 84 85 90 e4 ff ff 	movl   $0x31ef57b3,-0x1b70(%rbp,%rax,4)
   137ab:	b3 57 ef 31 
   137af:	83 85 58 e3 ff ff 01 	addl   $0x1,-0x1ca8(%rbp)
   137b6:	83 bd 58 e3 ff ff 02 	cmpl   $0x2,-0x1ca8(%rbp)
   137bd:	7e dd                	jle    1379c <func_56+0x29dc>
   137bf:	8b 85 1c e3 ff ff    	mov    -0x1ce4(%rbp),%eax
   137c5:	0f be d8             	movsbl %al,%ebx
   137c8:	8b 85 1c e3 ff ff    	mov    -0x1ce4(%rbp),%eax
   137ce:	89 85 18 e3 ff ff    	mov    %eax,-0x1ce8(%rbp)
   137d4:	48 8b 05 75 c2 00 00 	mov    0xc275(%rip),%rax        # 1fa50 <g_545>
   137db:	44 0f b7 30          	movzwl (%rax),%r14d
   137df:	8b 85 1c e3 ff ff    	mov    -0x1ce4(%rbp),%eax
   137e5:	4c 63 e0             	movslq %eax,%r12
   137e8:	48 8b 05 01 9c 00 00 	mov    0x9c01(%rip),%rax        # 1d3f0 <g_921+0x2b0>
   137ef:	48 8b 85 c0 e3 ff ff 	mov    -0x1c40(%rbp),%rax
   137f6:	c6 00 06             	movb   $0x6,(%rax)
   137f9:	8b 85 1c e3 ff ff    	mov    -0x1ce4(%rbp),%eax
   137ff:	83 f8 06             	cmp    $0x6,%eax
   13802:	0f 9e c0             	setle  %al
   13805:	44 0f b6 f8          	movzbl %al,%r15d
   13809:	8b 85 1c e3 ff ff    	mov    -0x1ce4(%rbp),%eax
   1380f:	44 0f b7 e8          	movzwl %ax,%r13d
   13813:	8b 85 70 e3 ff ff    	mov    -0x1c90(%rbp),%eax
   13819:	0f be d0             	movsbl %al,%edx
   1381c:	48 8b 85 b0 e3 ff ff 	mov    -0x1c50(%rbp),%rax
   13823:	8b 08                	mov    (%rax),%ecx
   13825:	48 8b 85 b0 e3 ff ff 	mov    -0x1c50(%rbp),%rax
   1382c:	89 08                	mov    %ecx,(%rax)
   1382e:	8b 85 1c e3 ff ff    	mov    -0x1ce4(%rbp),%eax
   13834:	0f be c0             	movsbl %al,%eax
   13837:	89 d6                	mov    %edx,%esi
   13839:	89 c7                	mov    %eax,%edi
   1383b:	e8 94 69 ff ff       	callq  a1d4 <safe_add_func_int8_t_s_s>
   13840:	66 98                	cbtw   
   13842:	0f b7 c0             	movzwl %ax,%eax
   13845:	44 89 ee             	mov    %r13d,%esi
   13848:	89 c7                	mov    %eax,%edi
   1384a:	e8 0d 75 ff ff       	callq  ad5c <safe_mod_func_uint16_t_u_u>
   1384f:	0f b7 c0             	movzwl %ax,%eax
   13852:	41 39 c7             	cmp    %eax,%r15d
   13855:	0f 9d c0             	setge  %al
   13858:	0f b6 c0             	movzbl %al,%eax
   1385b:	4c 89 e6             	mov    %r12,%rsi
   1385e:	48 89 c7             	mov    %rax,%rdi
   13861:	e8 42 70 ff ff       	callq  a8a8 <safe_sub_func_int64_t_s_s>
   13866:	89 c2                	mov    %eax,%edx
   13868:	0f b7 05 29 db 00 00 	movzwl 0xdb29(%rip),%eax        # 21398 <g_101>
   1386f:	21 d0                	and    %edx,%eax
   13871:	66 89 05 20 db 00 00 	mov    %ax,0xdb20(%rip)        # 21398 <g_101>
   13878:	0f b7 05 19 db 00 00 	movzwl 0xdb19(%rip),%eax        # 21398 <g_101>
   1387f:	66 85 c0             	test   %ax,%ax
   13882:	75 0a                	jne    1388e <func_56+0x2ace>
   13884:	8b 85 2c e4 ff ff    	mov    -0x1bd4(%rbp),%eax
   1388a:	85 c0                	test   %eax,%eax
   1388c:	74 07                	je     13895 <func_56+0x2ad5>
   1388e:	b8 01 00 00 00       	mov    $0x1,%eax
   13893:	eb 05                	jmp    1389a <func_56+0x2ada>
   13895:	b8 00 00 00 00       	mov    $0x0,%eax
   1389a:	0c aa                	or     $0xaa,%al
   1389c:	0f b7 c0             	movzwl %ax,%eax
   1389f:	be 48 f0 00 00       	mov    $0xf048,%esi
   138a4:	89 c7                	mov    %eax,%edi
   138a6:	e8 b1 74 ff ff       	callq  ad5c <safe_mod_func_uint16_t_u_u>
   138ab:	66 41 39 c6          	cmp    %ax,%r14w
   138af:	0f 95 c0             	setne  %al
   138b2:	0f b6 c0             	movzbl %al,%eax
   138b5:	39 85 70 e3 ff ff    	cmp    %eax,-0x1c90(%rbp)
   138bb:	0f 9d c0             	setge  %al
   138be:	0f b6 d0             	movzbl %al,%edx
   138c1:	8b 85 1c e3 ff ff    	mov    -0x1ce4(%rbp),%eax
   138c7:	39 c2                	cmp    %eax,%edx
   138c9:	0f 94 c0             	sete   %al
   138cc:	0f b6 c0             	movzbl %al,%eax
   138cf:	be 17 69 00 00       	mov    $0x6917,%esi
   138d4:	89 c7                	mov    %eax,%edi
   138d6:	e8 1a 6b ff ff       	callq  a3f5 <safe_mul_func_int16_t_s_s>
   138db:	48 8d 05 de da 00 00 	lea    0xdade(%rip),%rax        # 213c0 <g_806>
   138e2:	48 89 05 d7 c6 00 00 	mov    %rax,0xc6d7(%rip)        # 1ffc0 <g_807+0x520>
   138e9:	48 8b 05 d0 c6 00 00 	mov    0xc6d0(%rip),%rax        # 1ffc0 <g_807+0x520>
   138f0:	48 8d 15 c9 da 00 00 	lea    0xdac9(%rip),%rdx        # 213c0 <g_806>
   138f7:	48 39 d0             	cmp    %rdx,%rax
   138fa:	0f 94 c0             	sete   %al
   138fd:	0f b6 c0             	movzbl %al,%eax
   13900:	be 01 00 00 00       	mov    $0x1,%esi
   13905:	89 c7                	mov    %eax,%edi
   13907:	e8 6c 72 ff ff       	callq  ab78 <safe_sub_func_uint8_t_u_u>
   1390c:	8b 95 90 e4 ff ff    	mov    -0x1b70(%rbp),%edx
   13912:	0f b6 c0             	movzbl %al,%eax
   13915:	09 d0                	or     %edx,%eax
   13917:	89 85 90 e4 ff ff    	mov    %eax,-0x1b70(%rbp)
   1391d:	8b 85 90 e4 ff ff    	mov    -0x1b70(%rbp),%eax
   13923:	0f b7 c0             	movzwl %ax,%eax
   13926:	8b b5 18 e3 ff ff    	mov    -0x1ce8(%rbp),%esi
   1392c:	89 c7                	mov    %eax,%edi
   1392e:	e8 d3 74 ff ff       	callq  ae06 <safe_lshift_func_uint16_t_u_u>
   13933:	0f b6 c0             	movzbl %al,%eax
   13936:	be 01 00 00 00       	mov    $0x1,%esi
   1393b:	89 c7                	mov    %eax,%edi
   1393d:	e8 99 72 ff ff       	callq  abdb <safe_div_func_uint8_t_u_u>
   13942:	89 c2                	mov    %eax,%edx
   13944:	48 8b 05 6d c0 00 00 	mov    0xc06d(%rip),%rax        # 1f9b8 <g_72>
   1394b:	88 10                	mov    %dl,(%rax)
   1394d:	0f b6 00             	movzbl (%rax),%eax
   13950:	0f be c0             	movsbl %al,%eax
   13953:	89 de                	mov    %ebx,%esi
   13955:	89 c7                	mov    %eax,%edi
   13957:	e8 78 68 ff ff       	callq  a1d4 <safe_add_func_int8_t_s_s>
   1395c:	0f be d0             	movsbl %al,%edx
   1395f:	48 8b 05 ba c8 00 00 	mov    0xc8ba(%rip),%rax        # 20220 <g_808>
   13966:	48 8b 00             	mov    (%rax),%rax
   13969:	0f b7 00             	movzwl (%rax),%eax
   1396c:	98                   	cwtl   
   1396d:	21 d0                	and    %edx,%eax
   1396f:	31 85 74 e3 ff ff    	xor    %eax,-0x1c8c(%rbp)
   13975:	c6 05 60 97 00 00 1b 	movb   $0x1b,0x9760(%rip)        # 1d0dc <g_224>
   1397c:	eb 70                	jmp    139ee <func_56+0x2c2e>
   1397e:	48 8d 05 53 c0 00 00 	lea    0xc053(%rip),%rax        # 1f9d8 <g_171>
   13985:	48 89 85 f8 e3 ff ff 	mov    %rax,-0x1c08(%rbp)
   1398c:	48 8d 85 78 e3 ff ff 	lea    -0x1c88(%rbp),%rax
   13993:	48 89 85 00 e4 ff ff 	mov    %rax,-0x1c00(%rbp)
   1399a:	48 8d 85 1c e3 ff ff 	lea    -0x1ce4(%rbp),%rax
   139a1:	48 89 85 20 fb ff ff 	mov    %rax,-0x4e0(%rbp)
   139a8:	48 8b 95 20 fb ff ff 	mov    -0x4e0(%rbp),%rdx
   139af:	48 8b 85 f8 e3 ff ff 	mov    -0x1c08(%rbp),%rax
   139b6:	48 89 10             	mov    %rdx,(%rax)
   139b9:	48 8b 85 f8 e3 ff ff 	mov    -0x1c08(%rbp),%rax
   139c0:	48 8b 10             	mov    (%rax),%rdx
   139c3:	48 8b 85 00 e4 ff ff 	mov    -0x1c00(%rbp),%rax
   139ca:	48 89 10             	mov    %rdx,(%rax)
   139cd:	48 8b 85 00 e4 ff ff 	mov    -0x1c00(%rbp),%rax
   139d4:	48 8b 00             	mov    (%rax),%rax
   139d7:	48 89 85 a8 e3 ff ff 	mov    %rax,-0x1c58(%rbp)
   139de:	0f b6 05 f7 96 00 00 	movzbl 0x96f7(%rip),%eax        # 1d0dc <g_224>
   139e5:	83 e8 01             	sub    $0x1,%eax
   139e8:	88 05 ee 96 00 00    	mov    %al,0x96ee(%rip)        # 1d0dc <g_224>
   139ee:	0f b6 05 e7 96 00 00 	movzbl 0x96e7(%rip),%eax        # 1d0dc <g_224>
   139f5:	3c 15                	cmp    $0x15,%al
   139f7:	74 85                	je     1397e <func_56+0x2bbe>
   139f9:	8b 05 f1 96 00 00    	mov    0x96f1(%rip),%eax        # 1d0f0 <g_448>
   139ff:	48 98                	cltq   
   13a01:	be 05 00 00 00       	mov    $0x5,%esi
   13a06:	48 89 c7             	mov    %rax,%rdi
   13a09:	e8 3d 76 ff ff       	callq  b04b <safe_sub_func_uint64_t_u_u>
   13a0e:	89 05 dc 96 00 00    	mov    %eax,0x96dc(%rip)        # 1d0f0 <g_448>
   13a14:	8b 05 d6 96 00 00    	mov    0x96d6(%rip),%eax        # 1d0f0 <g_448>
   13a1a:	83 f8 07             	cmp    $0x7,%eax
   13a1d:	0f 8f 3d fd ff ff    	jg     13760 <func_56+0x29a0>
   13a23:	c7 85 2c e3 ff ff 18 	movl   $0x18,-0x1cd4(%rbp)
   13a2a:	00 00 00 
   13a2d:	90                   	nop
   13a2e:	8b 85 2c e3 ff ff    	mov    -0x1cd4(%rbp),%eax
   13a34:	83 f8 e3             	cmp    $0xffffffe3,%eax
   13a37:	7d 0b                	jge    13a44 <func_56+0x2c84>
   13a39:	8b 05 61 d9 00 00    	mov    0xd961(%rip),%eax        # 213a0 <g_257>
   13a3f:	e9 38 01 00 00       	jmpq   13b7c <func_56+0x2dbc>
   13a44:	be fd ff ff ff       	mov    $0xfffffffd,%esi
   13a49:	bf 00 00 00 00       	mov    $0x0,%edi
   13a4e:	e8 79 6c ff ff       	callq  a6cc <safe_mod_func_int32_t_s_s>
   13a53:	48 8b 05 16 c0 00 00 	mov    0xc016(%rip),%rax        # 1fa70 <g_786>
   13a5a:	48 8b 00             	mov    (%rax),%rax
   13a5d:	0f b6 00             	movzbl (%rax),%eax
   13a60:	0f be c0             	movsbl %al,%eax
   13a63:	be 01 00 00 00       	mov    $0x1,%esi
   13a68:	89 c7                	mov    %eax,%edi
   13a6a:	e8 a3 67 ff ff       	callq  a212 <safe_mul_func_int8_t_s_s>
   13a6f:	83 bd 5c e3 ff ff 00 	cmpl   $0x0,-0x1ca4(%rbp)
   13a76:	75 0d                	jne    13a85 <func_56+0x2cc5>
   13a78:	48 8b 85 b0 e3 ff ff 	mov    -0x1c50(%rbp),%rax
   13a7f:	8b 00                	mov    (%rax),%eax
   13a81:	85 c0                	test   %eax,%eax
   13a83:	74 07                	je     13a8c <func_56+0x2ccc>
   13a85:	b8 01 00 00 00       	mov    $0x1,%eax
   13a8a:	eb 05                	jmp    13a91 <func_56+0x2cd1>
   13a8c:	b8 00 00 00 00       	mov    $0x0,%eax
   13a91:	0f b6 c0             	movzbl %al,%eax
   13a94:	be 01 00 00 00       	mov    $0x1,%esi
   13a99:	89 c7                	mov    %eax,%edi
   13a9b:	e8 3b 71 ff ff       	callq  abdb <safe_div_func_uint8_t_u_u>
   13aa0:	0f b6 c0             	movzbl %al,%eax
   13aa3:	48 be d6 49 a9 be 76 	movabs $0x20ae3376bea949d6,%rsi
   13aaa:	33 ae 20 
   13aad:	48 89 c7             	mov    %rax,%rdi
   13ab0:	e8 cb 75 ff ff       	callq  b080 <safe_mod_func_uint64_t_u_u>
   13ab5:	48 0f bf 95 2a e3 ff 	movswq -0x1cd6(%rbp),%rdx
   13abc:	ff 
   13abd:	48 39 d0             	cmp    %rdx,%rax
   13ac0:	0f 97 c0             	seta   %al
   13ac3:	88 05 69 95 00 00    	mov    %al,0x9569(%rip)        # 1d032 <g_2+0x2>
   13ac9:	0f b6 05 62 95 00 00 	movzbl 0x9562(%rip),%eax        # 1d032 <g_2+0x2>
   13ad0:	3c 57                	cmp    $0x57,%al
   13ad2:	0f 96 c0             	setbe  %al
   13ad5:	0f b6 c0             	movzbl %al,%eax
   13ad8:	39 85 5c e3 ff ff    	cmp    %eax,-0x1ca4(%rbp)
   13ade:	0f 9d c0             	setge  %al
   13ae1:	0f b6 d0             	movzbl %al,%edx
   13ae4:	48 8b 85 58 e4 ff ff 	mov    -0x1ba8(%rbp),%rax
   13aeb:	48 09 d0             	or     %rdx,%rax
   13aee:	09 85 60 e3 ff ff    	or     %eax,-0x1ca0(%rbp)
   13af4:	8b 85 60 e3 ff ff    	mov    -0x1ca0(%rbp),%eax
   13afa:	0f be c0             	movsbl %al,%eax
   13afd:	be 06 00 00 00       	mov    $0x6,%esi
   13b02:	89 c7                	mov    %eax,%edi
   13b04:	e8 2c 68 ff ff       	callq  a335 <safe_rshift_func_int8_t_s_s>
   13b09:	48 0f be d0          	movsbq %al,%rdx
   13b0d:	8b 85 2c e4 ff ff    	mov    -0x1bd4(%rbp),%eax
   13b13:	48 98                	cltq   
   13b15:	48 89 d6             	mov    %rdx,%rsi
   13b18:	48 89 c7             	mov    %rax,%rdi
   13b1b:	e8 94 6e ff ff       	callq  a9b4 <safe_mod_func_int64_t_s_s>
   13b20:	48 8b 15 f9 c6 00 00 	mov    0xc6f9(%rip),%rdx        # 20220 <g_808>
   13b27:	48 8b 12             	mov    (%rdx),%rdx
   13b2a:	0f b7 12             	movzwl (%rdx),%edx
   13b2d:	48 0f bf d2          	movswq %dx,%rdx
   13b31:	48 39 d0             	cmp    %rdx,%rax
   13b34:	0f 95 c0             	setne  %al
   13b37:	0f b6 d8             	movzbl %al,%ebx
   13b3a:	48 8b 85 a8 e3 ff ff 	mov    -0x1c58(%rbp),%rax
   13b41:	c7 00 0b 19 60 bb    	movl   $0xbb60190b,(%rax)
   13b47:	8b 85 2c e4 ff ff    	mov    -0x1bd4(%rbp),%eax
   13b4d:	0f be c0             	movsbl %al,%eax
   13b50:	be 05 00 00 00       	mov    $0x5,%esi
   13b55:	89 c7                	mov    %eax,%edi
   13b57:	e8 45 67 ff ff       	callq  a2a1 <safe_lshift_func_int8_t_s_s>
   13b5c:	89 de                	mov    %ebx,%esi
   13b5e:	bf 01 00 00 00       	mov    $0x1,%edi
   13b63:	e8 fb 69 ff ff       	callq  a563 <safe_rshift_func_int16_t_s_u>
   13b68:	0f bf d0             	movswl %ax,%edx
   13b6b:	48 8b 85 b0 e3 ff ff 	mov    -0x1c50(%rbp),%rax
   13b72:	89 10                	mov    %edx,(%rax)
   13b74:	0f b7 05 37 95 00 00 	movzwl 0x9537(%rip),%eax        # 1d0b2 <g_196+0x12>
   13b7b:	98                   	cwtl   
   13b7c:	48 8b 5d c8          	mov    -0x38(%rbp),%rbx
   13b80:	64 48 33 1c 25 28 00 	xor    %fs:0x28,%rbx
   13b87:	00 00 
   13b89:	74 05                	je     13b90 <func_56+0x2dd0>
   13b8b:	e8 e0 64 ff ff       	callq  a070 <__stack_chk_fail@plt>
   13b90:	48 81 c4 c8 1c 00 00 	add    $0x1cc8,%rsp
   13b97:	5b                   	pop    %rbx
   13b98:	41 5c                	pop    %r12
   13b9a:	41 5d                	pop    %r13
   13b9c:	41 5e                	pop    %r14
   13b9e:	41 5f                	pop    %r15
   13ba0:	5d                   	pop    %rbp
   13ba1:	c3                   	retq   

0000000000013ba2 <func_58>:
   13ba2:	f3 0f 1e fa          	endbr64 
   13ba6:	55                   	push   %rbp
   13ba7:	48 89 e5             	mov    %rsp,%rbp
   13baa:	48 89 7d f8          	mov    %rdi,-0x8(%rbp)
   13bae:	48 8b 05 c3 be 00 00 	mov    0xbec3(%rip),%rax        # 1fa78 <g_785>
   13bb5:	5d                   	pop    %rbp
   13bb6:	c3                   	retq   

0000000000013bb7 <func_60>:
   13bb7:	f3 0f 1e fa          	endbr64 
   13bbb:	55                   	push   %rbp
   13bbc:	48 89 e5             	mov    %rsp,%rbp
   13bbf:	41 57                	push   %r15
   13bc1:	41 56                	push   %r14
   13bc3:	41 55                	push   %r13
   13bc5:	41 54                	push   %r12
   13bc7:	53                   	push   %rbx
   13bc8:	48 81 ec 38 0e 00 00 	sub    $0xe38,%rsp
   13bcf:	89 bd ac f1 ff ff    	mov    %edi,-0xe54(%rbp)
   13bd5:	64 48 8b 04 25 28 00 	mov    %fs:0x28,%rax
   13bdc:	00 00 
   13bde:	48 89 45 c8          	mov    %rax,-0x38(%rbp)
   13be2:	31 c0                	xor    %eax,%eax
   13be4:	48 8d 05 45 be 00 00 	lea    0xbe45(%rip),%rax        # 1fa30 <g_371>
   13beb:	48 89 85 30 f2 ff ff 	mov    %rax,-0xdd0(%rbp)
   13bf2:	c7 85 c4 f1 ff ff fa 	movl   $0xfffffffa,-0xe3c(%rbp)
   13bf9:	ff ff ff 
   13bfc:	48 8d 85 90 f4 ff ff 	lea    -0xb70(%rbp),%rax
   13c03:	48 8d 15 16 ab 00 00 	lea    0xab16(%rip),%rdx        # 1e720 <g_2043+0x10e0>
   13c0a:	b9 93 00 00 00       	mov    $0x93,%ecx
   13c0f:	48 89 c7             	mov    %rax,%rdi
   13c12:	48 89 d6             	mov    %rdx,%rsi
   13c15:	f3 48 a5             	rep movsq %ds:(%rsi),%es:(%rdi)
   13c18:	48 8d 05 79 d7 00 00 	lea    0xd779(%rip),%rax        # 21398 <g_101>
   13c1f:	48 89 85 38 f2 ff ff 	mov    %rax,-0xdc8(%rbp)
   13c26:	c7 85 e0 f2 ff ff 4b 	movl   $0xf89fdd4b,-0xd20(%rbp)
   13c2d:	dd 9f f8 
   13c30:	c7 85 e4 f2 ff ff 02 	movl   $0x2,-0xd1c(%rbp)
   13c37:	00 00 00 
   13c3a:	c7 85 e8 f2 ff ff 4b 	movl   $0xf89fdd4b,-0xd18(%rbp)
   13c41:	dd 9f f8 
   13c44:	c7 85 ec f2 ff ff 02 	movl   $0x2,-0xd14(%rbp)
   13c4b:	00 00 00 
   13c4e:	c7 85 f0 f2 ff ff 4b 	movl   $0xf89fdd4b,-0xd10(%rbp)
   13c55:	dd 9f f8 
   13c58:	c7 85 f4 f2 ff ff 02 	movl   $0x2,-0xd0c(%rbp)
   13c5f:	00 00 00 
   13c62:	c7 85 f8 f2 ff ff 4b 	movl   $0xf89fdd4b,-0xd08(%rbp)
   13c69:	dd 9f f8 
   13c6c:	c7 85 fc f2 ff ff 02 	movl   $0x2,-0xd04(%rbp)
   13c73:	00 00 00 
   13c76:	c7 85 00 f3 ff ff 4b 	movl   $0xf89fdd4b,-0xd00(%rbp)
   13c7d:	dd 9f f8 
   13c80:	c7 85 04 f3 ff ff 33 	movl   $0x1dac633,-0xcfc(%rbp)
   13c87:	c6 da 01 
   13c8a:	c7 85 08 f3 ff ff 33 	movl   $0x1dac633,-0xcf8(%rbp)
   13c91:	c6 da 01 
   13c94:	c7 85 0c f3 ff ff e0 	movl   $0xb4bf6fe0,-0xcf4(%rbp)
   13c9b:	6f bf b4 
   13c9e:	c7 85 10 f3 ff ff e0 	movl   $0xb4bf6fe0,-0xcf0(%rbp)
   13ca5:	6f bf b4 
   13ca8:	c7 85 14 f3 ff ff 33 	movl   $0x1dac633,-0xcec(%rbp)
   13caf:	c6 da 01 
   13cb2:	c7 85 18 f3 ff ff 33 	movl   $0x1dac633,-0xce8(%rbp)
   13cb9:	c6 da 01 
   13cbc:	c7 85 1c f3 ff ff e0 	movl   $0xb4bf6fe0,-0xce4(%rbp)
   13cc3:	6f bf b4 
   13cc6:	c7 85 20 f3 ff ff e0 	movl   $0xb4bf6fe0,-0xce0(%rbp)
   13ccd:	6f bf b4 
   13cd0:	c7 85 24 f3 ff ff 33 	movl   $0x1dac633,-0xcdc(%rbp)
   13cd7:	c6 da 01 
   13cda:	c7 85 28 f3 ff ff 3e 	movl   $0xb522953e,-0xcd8(%rbp)
   13ce1:	95 22 b5 
   13ce4:	c7 85 2c f3 ff ff 02 	movl   $0x2,-0xcd4(%rbp)
   13ceb:	00 00 00 
   13cee:	c7 85 30 f3 ff ff 3e 	movl   $0xb522953e,-0xcd0(%rbp)
   13cf5:	95 22 b5 
   13cf8:	c7 85 34 f3 ff ff 02 	movl   $0x2,-0xccc(%rbp)
   13cff:	00 00 00 
   13d02:	c7 85 38 f3 ff ff 3e 	movl   $0xb522953e,-0xcc8(%rbp)
   13d09:	95 22 b5 
   13d0c:	c7 85 3c f3 ff ff 02 	movl   $0x2,-0xcc4(%rbp)
   13d13:	00 00 00 
   13d16:	c7 85 40 f3 ff ff 3e 	movl   $0xb522953e,-0xcc0(%rbp)
   13d1d:	95 22 b5 
   13d20:	c7 85 44 f3 ff ff 02 	movl   $0x2,-0xcbc(%rbp)
   13d27:	00 00 00 
   13d2a:	c7 85 48 f3 ff ff 3e 	movl   $0xb522953e,-0xcb8(%rbp)
   13d31:	95 22 b5 
   13d34:	c7 85 c8 f1 ff ff fa 	movl   $0xfffffffa,-0xe38(%rbp)
   13d3b:	ff ff ff 
   13d3e:	66 c7 85 c0 f1 ff ff 	movw   $0xfffa,-0xe40(%rbp)
   13d45:	fa ff 
   13d47:	c7 85 cc f1 ff ff 64 	movl   $0xe488b364,-0xe34(%rbp)
   13d4e:	b3 88 e4 
   13d51:	48 8b 05 f8 bc 00 00 	mov    0xbcf8(%rip),%rax        # 1fa50 <g_545>
   13d58:	0f b7 00             	movzwl (%rax),%eax
   13d5b:	0f bf d8             	movswl %ax,%ebx
   13d5e:	48 8b 05 eb bc 00 00 	mov    0xbceb(%rip),%rax        # 1fa50 <g_545>
   13d65:	44 0f b7 20          	movzwl (%rax),%r12d
   13d69:	8b 85 ac f1 ff ff    	mov    -0xe54(%rbp),%eax
   13d6f:	85 c0                	test   %eax,%eax
   13d71:	0f 84 c5 00 00 00    	je     13e3c <func_60+0x285>
   13d77:	8b 85 ac f1 ff ff    	mov    -0xe54(%rbp),%eax
   13d7d:	0f be d0             	movsbl %al,%edx
   13d80:	48 8b 05 69 bc 00 00 	mov    0xbc69(%rip),%rax        # 1f9f0 <g_195>
   13d87:	0f b7 00             	movzwl (%rax),%eax
   13d8a:	8b 85 c4 f1 ff ff    	mov    -0xe3c(%rbp),%eax
   13d90:	85 c0                	test   %eax,%eax
   13d92:	74 07                	je     13d9b <func_60+0x1e4>
   13d94:	be 01 00 00 00       	mov    $0x1,%esi
   13d99:	eb 05                	jmp    13da0 <func_60+0x1e9>
   13d9b:	be 00 00 00 00       	mov    $0x0,%esi
   13da0:	8b 85 c4 f1 ff ff    	mov    -0xe3c(%rbp),%eax
   13da6:	48 63 c8             	movslq %eax,%rcx
   13da9:	48 8b 85 38 f2 ff ff 	mov    -0xdc8(%rbp),%rax
   13db0:	0f b7 00             	movzwl (%rax),%eax
   13db3:	89 c7                	mov    %eax,%edi
   13db5:	89 f0                	mov    %esi,%eax
   13db7:	09 f8                	or     %edi,%eax
   13db9:	89 c6                	mov    %eax,%esi
   13dbb:	48 8b 85 38 f2 ff ff 	mov    -0xdc8(%rbp),%rax
   13dc2:	66 89 30             	mov    %si,(%rax)
   13dc5:	48 8b 85 38 f2 ff ff 	mov    -0xdc8(%rbp),%rax
   13dcc:	0f b7 00             	movzwl (%rax),%eax
   13dcf:	66 35 c0 60          	xor    $0x60c0,%ax
   13dd3:	0f b7 c0             	movzwl %ax,%eax
   13dd6:	48 39 c1             	cmp    %rax,%rcx
   13dd9:	0f 94 c0             	sete   %al
   13ddc:	0f b6 c0             	movzbl %al,%eax
   13ddf:	89 d6                	mov    %edx,%esi
   13de1:	89 c7                	mov    %eax,%edi
   13de3:	e8 2a 64 ff ff       	callq  a212 <safe_mul_func_int8_t_s_s>
   13de8:	84 c0                	test   %al,%al
   13dea:	74 11                	je     13dfd <func_60+0x246>
   13dec:	8b 85 c4 f1 ff ff    	mov    -0xe3c(%rbp),%eax
   13df2:	85 c0                	test   %eax,%eax
   13df4:	74 07                	je     13dfd <func_60+0x246>
   13df6:	b8 01 00 00 00       	mov    $0x1,%eax
   13dfb:	eb 05                	jmp    13e02 <func_60+0x24b>
   13dfd:	b8 00 00 00 00       	mov    $0x0,%eax
   13e02:	0f b6 c0             	movzbl %al,%eax
   13e05:	be 09 00 00 00       	mov    $0x9,%esi
   13e0a:	89 c7                	mov    %eax,%edi
   13e0c:	e8 ca 6d ff ff       	callq  abdb <safe_div_func_uint8_t_u_u>
   13e11:	84 c0                	test   %al,%al
   13e13:	74 11                	je     13e26 <func_60+0x26f>
   13e15:	8b 85 c4 f1 ff ff    	mov    -0xe3c(%rbp),%eax
   13e1b:	85 c0                	test   %eax,%eax
   13e1d:	74 07                	je     13e26 <func_60+0x26f>
   13e1f:	ba 01 00 00 00       	mov    $0x1,%edx
   13e24:	eb 05                	jmp    13e2b <func_60+0x274>
   13e26:	ba 00 00 00 00       	mov    $0x0,%edx
   13e2b:	8b 85 c4 f1 ff ff    	mov    -0xe3c(%rbp),%eax
   13e31:	39 c2                	cmp    %eax,%edx
   13e33:	74 07                	je     13e3c <func_60+0x285>
   13e35:	ba 01 00 00 00       	mov    $0x1,%edx
   13e3a:	eb 05                	jmp    13e41 <func_60+0x28a>
   13e3c:	ba 00 00 00 00       	mov    $0x0,%edx
   13e41:	48 8b 05 70 bb 00 00 	mov    0xbb70(%rip),%rax        # 1f9b8 <g_72>
   13e48:	88 10                	mov    %dl,(%rax)
   13e4a:	0f b6 00             	movzbl (%rax),%eax
   13e4d:	0f b6 d0             	movzbl %al,%edx
   13e50:	48 8d 05 d9 bb 00 00 	lea    0xbbd9(%rip),%rax        # 1fa30 <g_371>
   13e57:	48 89 85 30 f2 ff ff 	mov    %rax,-0xdd0(%rbp)
   13e5e:	48 8d 05 cb bb 00 00 	lea    0xbbcb(%rip),%rax        # 1fa30 <g_371>
   13e65:	48 39 85 30 f2 ff ff 	cmp    %rax,-0xdd0(%rbp)
   13e6c:	0f 94 c0             	sete   %al
   13e6f:	0f b6 c0             	movzbl %al,%eax
   13e72:	89 d6                	mov    %edx,%esi
   13e74:	89 c7                	mov    %eax,%edi
   13e76:	e8 df 6c ff ff       	callq  ab5a <safe_add_func_uint8_t_u_u>
   13e7b:	0f b6 c0             	movzbl %al,%eax
   13e7e:	66 41 39 c4          	cmp    %ax,%r12w
   13e82:	0f 92 c0             	setb   %al
   13e85:	0f b6 c0             	movzbl %al,%eax
   13e88:	89 de                	mov    %ebx,%esi
   13e8a:	89 c7                	mov    %eax,%edi
   13e8c:	e8 c4 65 ff ff       	callq  a455 <safe_div_func_int16_t_s_s>
   13e91:	0f b6 15 44 92 00 00 	movzbl 0x9244(%rip),%edx        # 1d0dc <g_224>
   13e98:	0f b6 d2             	movzbl %dl,%edx
   13e9b:	31 d0                	xor    %edx,%eax
   13e9d:	98                   	cwtl   
   13e9e:	be 0f 00 00 00       	mov    $0xf,%esi
   13ea3:	89 c7                	mov    %eax,%edi
   13ea5:	e8 e8 65 ff ff       	callq  a492 <safe_lshift_func_int16_t_s_s>
   13eaa:	8b 85 ac f1 ff ff    	mov    -0xe54(%rbp),%eax
   13eb0:	85 c0                	test   %eax,%eax
   13eb2:	c7 85 e0 f1 ff ff 4b 	movl   $0xb132464b,-0xe20(%rbp)
   13eb9:	46 32 b1 
   13ebc:	48 8d 05 19 92 00 00 	lea    0x9219(%rip),%rax        # 1d0dc <g_224>
   13ec3:	48 89 85 28 f2 ff ff 	mov    %rax,-0xdd8(%rbp)
   13eca:	c7 85 90 f2 ff ff ff 	movl   $0xffffffff,-0xd70(%rbp)
   13ed1:	ff ff ff 
   13ed4:	c7 85 94 f2 ff ff ff 	movl   $0xffffffff,-0xd6c(%rbp)
   13edb:	ff ff ff 
   13ede:	c7 85 98 f2 ff ff 9d 	movl   $0x3a59d9d,-0xd68(%rbp)
   13ee5:	9d a5 03 
   13ee8:	c7 85 9c f2 ff ff ff 	movl   $0xffffffff,-0xd64(%rbp)
   13eef:	ff ff ff 
   13ef2:	c7 85 a0 f2 ff ff ff 	movl   $0xffffffff,-0xd60(%rbp)
   13ef9:	ff ff ff 
   13efc:	c7 85 a4 f2 ff ff f8 	movl   $0xfffffff8,-0xd5c(%rbp)
   13f03:	ff ff ff 
   13f06:	c7 85 a8 f2 ff ff f8 	movl   $0xfffffff8,-0xd58(%rbp)
   13f0d:	ff ff ff 
   13f10:	c7 85 ac f2 ff ff ff 	movl   $0xffffffff,-0xd54(%rbp)
   13f17:	ff ff ff 
   13f1a:	c7 85 b0 f2 ff ff f8 	movl   $0xfffffff8,-0xd50(%rbp)
   13f21:	ff ff ff 
   13f24:	c7 85 b4 f2 ff ff ff 	movl   $0xffffffff,-0xd4c(%rbp)
   13f2b:	ff ff ff 
   13f2e:	c7 85 b8 f2 ff ff f8 	movl   $0xfffffff8,-0xd48(%rbp)
   13f35:	ff ff ff 
   13f38:	c7 85 bc f2 ff ff f8 	movl   $0xfffffff8,-0xd44(%rbp)
   13f3f:	ff ff ff 
   13f42:	c7 85 c0 f2 ff ff ff 	movl   $0xffffffff,-0xd40(%rbp)
   13f49:	ff ff ff 
   13f4c:	c7 85 c4 f2 ff ff ff 	movl   $0xffffffff,-0xd3c(%rbp)
   13f53:	ff ff ff 
   13f56:	c7 85 c8 f2 ff ff 9d 	movl   $0x3a59d9d,-0xd38(%rbp)
   13f5d:	9d a5 03 
   13f60:	c7 85 cc f2 ff ff ff 	movl   $0xffffffff,-0xd34(%rbp)
   13f67:	ff ff ff 
   13f6a:	c7 85 d0 f2 ff ff ff 	movl   $0xffffffff,-0xd30(%rbp)
   13f71:	ff ff ff 
   13f74:	c7 85 d4 f2 ff ff f8 	movl   $0xfffffff8,-0xd2c(%rbp)
   13f7b:	ff ff ff 
   13f7e:	c7 85 d8 f2 ff ff f8 	movl   $0xfffffff8,-0xd28(%rbp)
   13f85:	ff ff ff 
   13f88:	c7 85 dc f2 ff ff ff 	movl   $0xffffffff,-0xd24(%rbp)
   13f8f:	ff ff ff 
   13f92:	66 c7 85 be f1 ff ff 	movw   $0x2,-0xe42(%rbp)
   13f99:	02 00 
   13f9b:	c7 85 d0 f1 ff ff 00 	movl   $0x0,-0xe30(%rbp)
   13fa2:	00 00 00 
   13fa5:	eb 71                	jmp    14018 <func_60+0x461>
   13fa7:	c7 85 e8 f1 ff ff 00 	movl   $0x0,-0xe18(%rbp)
   13fae:	00 00 00 
   13fb1:	eb 55                	jmp    14008 <func_60+0x451>
   13fb3:	c7 85 e4 f1 ff ff 00 	movl   $0x0,-0xe1c(%rbp)
   13fba:	00 00 00 
   13fbd:	eb 39                	jmp    13ff8 <func_60+0x441>
   13fbf:	8b 85 e4 f1 ff ff    	mov    -0xe1c(%rbp),%eax
   13fc5:	48 98                	cltq   
   13fc7:	8b 95 d0 f1 ff ff    	mov    -0xe30(%rbp),%edx
   13fcd:	48 63 ca             	movslq %edx,%rcx
   13fd0:	8b 95 e8 f1 ff ff    	mov    -0xe18(%rbp),%edx
   13fd6:	48 63 d2             	movslq %edx,%rdx
   13fd9:	48 01 ca             	add    %rcx,%rdx
   13fdc:	48 01 d2             	add    %rdx,%rdx
   13fdf:	48 01 c2             	add    %rax,%rdx
   13fe2:	48 8d 85 c8 f1 ff ff 	lea    -0xe38(%rbp),%rax
   13fe9:	48 89 84 d5 60 f2 ff 	mov    %rax,-0xda0(%rbp,%rdx,8)
   13ff0:	ff 
   13ff1:	83 85 e4 f1 ff ff 01 	addl   $0x1,-0xe1c(%rbp)
   13ff8:	83 bd e4 f1 ff ff 01 	cmpl   $0x1,-0xe1c(%rbp)
   13fff:	7e be                	jle    13fbf <func_60+0x408>
   14001:	83 85 e8 f1 ff ff 01 	addl   $0x1,-0xe18(%rbp)
   14008:	83 bd e8 f1 ff ff 00 	cmpl   $0x0,-0xe18(%rbp)
   1400f:	7e a2                	jle    13fb3 <func_60+0x3fc>
   14011:	83 85 d0 f1 ff ff 01 	addl   $0x1,-0xe30(%rbp)
   14018:	83 bd d0 f1 ff ff 02 	cmpl   $0x2,-0xe30(%rbp)
   1401f:	7e 86                	jle    13fa7 <func_60+0x3f0>
   14021:	c7 05 c5 90 00 00 02 	movl   $0x2,0x90c5(%rip)        # 1d0f0 <g_448>
   14028:	00 00 00 
   1402b:	e9 ab 14 00 00       	jmpq   154db <func_60+0x1924>
   14030:	c7 85 d4 f1 ff ff ff 	movl   $0xffffffff,-0xe2c(%rbp)
   14037:	ff ff ff 
   1403a:	48 8d 05 07 90 00 00 	lea    0x9007(%rip),%rax        # 1d048 <g_13>
   14041:	48 89 85 08 f2 ff ff 	mov    %rax,-0xdf8(%rbp)
   14048:	48 8d 85 c8 f1 ff ff 	lea    -0xe38(%rbp),%rax
   1404f:	48 89 85 10 f2 ff ff 	mov    %rax,-0xdf0(%rbp)
   14056:	c7 05 0c 90 00 00 00 	movl   $0x0,0x900c(%rip)        # 1d06c <g_88>
   1405d:	00 00 00 
   14060:	90                   	nop
   14061:	8b 05 05 90 00 00    	mov    0x9005(%rip),%eax        # 1d06c <g_88>
   14067:	83 f8 02             	cmp    $0x2,%eax
   1406a:	77 39                	ja     140a5 <func_60+0x4ee>
   1406c:	8b 05 7e 90 00 00    	mov    0x907e(%rip),%eax        # 1d0f0 <g_448>
   14072:	8b 15 f4 8f 00 00    	mov    0x8ff4(%rip),%edx        # 1d06c <g_88>
   14078:	83 c2 06             	add    $0x6,%edx
   1407b:	89 d1                	mov    %edx,%ecx
   1407d:	48 63 d0             	movslq %eax,%rdx
   14080:	48 89 d0             	mov    %rdx,%rax
   14083:	48 c1 e0 02          	shl    $0x2,%rax
   14087:	48 01 d0             	add    %rdx,%rax
   1408a:	48 01 c0             	add    %rax,%rax
   1408d:	48 01 c8             	add    %rcx,%rax
   14090:	48 8d 14 00          	lea    (%rax,%rax,1),%rdx
   14094:	48 8d 05 05 90 00 00 	lea    0x9005(%rip),%rax        # 1d0a0 <g_196>
   1409b:	0f b7 04 02          	movzwl (%rdx,%rax,1),%eax
   1409f:	98                   	cwtl   
   140a0:	e9 4a 14 00 00       	jmpq   154ef <func_60+0x1938>
   140a5:	48 c7 05 08 d3 00 00 	movq   $0x2,0xd308(%rip)        # 213b8 <g_537>
   140ac:	02 00 00 00 
   140b0:	90                   	nop
   140b1:	48 8b 05 00 d3 00 00 	mov    0xd300(%rip),%rax        # 213b8 <g_537>
   140b8:	48 85 c0             	test   %rax,%rax
   140bb:	0f 88 0b 14 00 00    	js     154cc <func_60+0x1915>
   140c1:	66 c7 85 52 f2 ff ff 	movw   $0x68bc,-0xdae(%rbp)
   140c8:	bc 68 
   140ca:	66 c7 85 54 f2 ff ff 	movw   $0xbc68,-0xdac(%rbp)
   140d1:	68 bc 
   140d3:	66 c7 85 56 f2 ff ff 	movw   $0x6868,-0xdaa(%rbp)
   140da:	68 68 
   140dc:	c7 85 d8 f1 ff ff 00 	movl   $0x0,-0xe28(%rbp)
   140e3:	00 00 00 
   140e6:	48 c7 85 18 f2 ff ff 	movq   $0x0,-0xde8(%rbp)
   140ed:	00 00 00 00 
   140f1:	48 8d 05 20 90 00 00 	lea    0x9020(%rip),%rax        # 1d118 <g_756>
   140f8:	48 89 85 20 f2 ff ff 	mov    %rax,-0xde0(%rbp)
   140ff:	66 c7 05 92 d2 00 00 	movw   $0x2,0xd292(%rip)        # 2139a <g_231>
   14106:	02 00 
   14108:	e9 9f 11 00 00       	jmpq   152ac <func_60+0x16f5>
   1410d:	c7 85 dc f1 ff ff 00 	movl   $0x0,-0xe24(%rbp)
   14114:	00 00 00 
   14117:	eb 1a                	jmp    14133 <func_60+0x57c>
   14119:	8b 85 dc f1 ff ff    	mov    -0xe24(%rbp),%eax
   1411f:	48 98                	cltq   
   14121:	c7 84 85 58 f2 ff ff 	movl   $0x5fd465b3,-0xda8(%rbp,%rax,4)
   14128:	b3 65 d4 5f 
   1412c:	83 85 dc f1 ff ff 01 	addl   $0x1,-0xe24(%rbp)
   14133:	83 bd dc f1 ff ff 01 	cmpl   $0x1,-0xe24(%rbp)
   1413a:	7e dd                	jle    14119 <func_60+0x562>
   1413c:	0f b7 05 57 d2 00 00 	movzwl 0xd257(%rip),%eax        # 2139a <g_231>
   14143:	98                   	cwtl   
   14144:	48 8b 15 6d d2 00 00 	mov    0xd26d(%rip),%rdx        # 213b8 <g_537>
   1414b:	48 8d 4a 04          	lea    0x4(%rdx),%rcx
   1414f:	48 63 d0             	movslq %eax,%rdx
   14152:	48 89 d0             	mov    %rdx,%rax
   14155:	48 c1 e0 02          	shl    $0x2,%rax
   14159:	48 01 d0             	add    %rdx,%rax
   1415c:	48 01 c0             	add    %rax,%rax
   1415f:	48 01 c8             	add    %rcx,%rax
   14162:	48 8d 14 00          	lea    (%rax,%rax,1),%rdx
   14166:	48 8d 05 33 8f 00 00 	lea    0x8f33(%rip),%rax        # 1d0a0 <g_196>
   1416d:	0f b7 04 02          	movzwl (%rdx,%rax,1),%eax
   14171:	66 85 c0             	test   %ax,%ax
   14174:	0f 84 d1 0f 00 00    	je     1514b <func_60+0x1594>
   1417a:	48 8d 05 57 b8 00 00 	lea    0xb857(%rip),%rax        # 1f9d8 <g_171>
   14181:	48 89 85 f0 f1 ff ff 	mov    %rax,-0xe10(%rbp)
   14188:	48 8d 85 f0 f1 ff ff 	lea    -0xe10(%rbp),%rax
   1418f:	48 89 85 f8 f1 ff ff 	mov    %rax,-0xe08(%rbp)
   14196:	48 8d 85 f8 f1 ff ff 	lea    -0xe08(%rbp),%rax
   1419d:	48 89 85 00 f2 ff ff 	mov    %rax,-0xe00(%rbp)
   141a4:	48 8d 85 00 f2 ff ff 	lea    -0xe00(%rbp),%rax
   141ab:	48 89 85 30 f9 ff ff 	mov    %rax,-0x6d0(%rbp)
   141b2:	48 8d 85 00 f2 ff ff 	lea    -0xe00(%rbp),%rax
   141b9:	48 89 85 38 f9 ff ff 	mov    %rax,-0x6c8(%rbp)
   141c0:	48 8d 85 00 f2 ff ff 	lea    -0xe00(%rbp),%rax
   141c7:	48 89 85 40 f9 ff ff 	mov    %rax,-0x6c0(%rbp)
   141ce:	48 8d 85 00 f2 ff ff 	lea    -0xe00(%rbp),%rax
   141d5:	48 89 85 48 f9 ff ff 	mov    %rax,-0x6b8(%rbp)
   141dc:	48 8d 85 00 f2 ff ff 	lea    -0xe00(%rbp),%rax
   141e3:	48 89 85 50 f9 ff ff 	mov    %rax,-0x6b0(%rbp)
   141ea:	48 8d 85 00 f2 ff ff 	lea    -0xe00(%rbp),%rax
   141f1:	48 89 85 58 f9 ff ff 	mov    %rax,-0x6a8(%rbp)
   141f8:	48 8d 85 00 f2 ff ff 	lea    -0xe00(%rbp),%rax
   141ff:	48 89 85 60 f9 ff ff 	mov    %rax,-0x6a0(%rbp)
   14206:	48 8d 85 00 f2 ff ff 	lea    -0xe00(%rbp),%rax
   1420d:	48 89 85 68 f9 ff ff 	mov    %rax,-0x698(%rbp)
   14214:	48 c7 85 70 f9 ff ff 	movq   $0x0,-0x690(%rbp)
   1421b:	00 00 00 00 
   1421f:	48 8d 85 00 f2 ff ff 	lea    -0xe00(%rbp),%rax
   14226:	48 89 85 78 f9 ff ff 	mov    %rax,-0x688(%rbp)
   1422d:	48 8d 85 00 f2 ff ff 	lea    -0xe00(%rbp),%rax
   14234:	48 89 85 80 f9 ff ff 	mov    %rax,-0x680(%rbp)
   1423b:	48 8d 85 00 f2 ff ff 	lea    -0xe00(%rbp),%rax
   14242:	48 89 85 88 f9 ff ff 	mov    %rax,-0x678(%rbp)
   14249:	48 8d 85 00 f2 ff ff 	lea    -0xe00(%rbp),%rax
   14250:	48 89 85 90 f9 ff ff 	mov    %rax,-0x670(%rbp)
   14257:	48 c7 85 98 f9 ff ff 	movq   $0x0,-0x668(%rbp)
   1425e:	00 00 00 00 
   14262:	48 8d 85 00 f2 ff ff 	lea    -0xe00(%rbp),%rax
   14269:	48 89 85 a0 f9 ff ff 	mov    %rax,-0x660(%rbp)
   14270:	48 8d 85 00 f2 ff ff 	lea    -0xe00(%rbp),%rax
   14277:	48 89 85 a8 f9 ff ff 	mov    %rax,-0x658(%rbp)
   1427e:	48 c7 85 b0 f9 ff ff 	movq   $0x0,-0x650(%rbp)
   14285:	00 00 00 00 
   14289:	48 8d 85 00 f2 ff ff 	lea    -0xe00(%rbp),%rax
   14290:	48 89 85 b8 f9 ff ff 	mov    %rax,-0x648(%rbp)
   14297:	48 8d 85 00 f2 ff ff 	lea    -0xe00(%rbp),%rax
   1429e:	48 89 85 c0 f9 ff ff 	mov    %rax,-0x640(%rbp)
   142a5:	48 8d 85 00 f2 ff ff 	lea    -0xe00(%rbp),%rax
   142ac:	48 89 85 c8 f9 ff ff 	mov    %rax,-0x638(%rbp)
   142b3:	48 8d 85 00 f2 ff ff 	lea    -0xe00(%rbp),%rax
   142ba:	48 89 85 d0 f9 ff ff 	mov    %rax,-0x630(%rbp)
   142c1:	48 8d 85 00 f2 ff ff 	lea    -0xe00(%rbp),%rax
   142c8:	48 89 85 d8 f9 ff ff 	mov    %rax,-0x628(%rbp)
   142cf:	48 8d 85 00 f2 ff ff 	lea    -0xe00(%rbp),%rax
   142d6:	48 89 85 e0 f9 ff ff 	mov    %rax,-0x620(%rbp)
   142dd:	48 8d 85 00 f2 ff ff 	lea    -0xe00(%rbp),%rax
   142e4:	48 89 85 e8 f9 ff ff 	mov    %rax,-0x618(%rbp)
   142eb:	48 8d 85 00 f2 ff ff 	lea    -0xe00(%rbp),%rax
   142f2:	48 89 85 f0 f9 ff ff 	mov    %rax,-0x610(%rbp)
   142f9:	48 8d 85 00 f2 ff ff 	lea    -0xe00(%rbp),%rax
   14300:	48 89 85 f8 f9 ff ff 	mov    %rax,-0x608(%rbp)
   14307:	48 8d 85 00 f2 ff ff 	lea    -0xe00(%rbp),%rax
   1430e:	48 89 85 00 fa ff ff 	mov    %rax,-0x600(%rbp)
   14315:	48 c7 85 08 fa ff ff 	movq   $0x0,-0x5f8(%rbp)
   1431c:	00 00 00 00 
   14320:	48 8d 85 00 f2 ff ff 	lea    -0xe00(%rbp),%rax
   14327:	48 89 85 10 fa ff ff 	mov    %rax,-0x5f0(%rbp)
   1432e:	48 c7 85 18 fa ff ff 	movq   $0x0,-0x5e8(%rbp)
   14335:	00 00 00 00 
   14339:	48 8d 85 00 f2 ff ff 	lea    -0xe00(%rbp),%rax
   14340:	48 89 85 20 fa ff ff 	mov    %rax,-0x5e0(%rbp)
   14347:	48 8d 85 00 f2 ff ff 	lea    -0xe00(%rbp),%rax
   1434e:	48 89 85 28 fa ff ff 	mov    %rax,-0x5d8(%rbp)
   14355:	48 8d 85 00 f2 ff ff 	lea    -0xe00(%rbp),%rax
   1435c:	48 89 85 30 fa ff ff 	mov    %rax,-0x5d0(%rbp)
   14363:	48 8d 85 00 f2 ff ff 	lea    -0xe00(%rbp),%rax
   1436a:	48 89 85 38 fa ff ff 	mov    %rax,-0x5c8(%rbp)
   14371:	48 c7 85 40 fa ff ff 	movq   $0x0,-0x5c0(%rbp)
   14378:	00 00 00 00 
   1437c:	48 c7 85 48 fa ff ff 	movq   $0x0,-0x5b8(%rbp)
   14383:	00 00 00 00 
   14387:	48 8d 85 00 f2 ff ff 	lea    -0xe00(%rbp),%rax
   1438e:	48 89 85 50 fa ff ff 	mov    %rax,-0x5b0(%rbp)
   14395:	48 8d 85 00 f2 ff ff 	lea    -0xe00(%rbp),%rax
   1439c:	48 89 85 58 fa ff ff 	mov    %rax,-0x5a8(%rbp)
   143a3:	48 8d 85 00 f2 ff ff 	lea    -0xe00(%rbp),%rax
   143aa:	48 89 85 60 fa ff ff 	mov    %rax,-0x5a0(%rbp)
   143b1:	48 8d 85 00 f2 ff ff 	lea    -0xe00(%rbp),%rax
   143b8:	48 89 85 68 fa ff ff 	mov    %rax,-0x598(%rbp)
   143bf:	48 8d 85 00 f2 ff ff 	lea    -0xe00(%rbp),%rax
   143c6:	48 89 85 70 fa ff ff 	mov    %rax,-0x590(%rbp)
   143cd:	48 8d 85 00 f2 ff ff 	lea    -0xe00(%rbp),%rax
   143d4:	48 89 85 78 fa ff ff 	mov    %rax,-0x588(%rbp)
   143db:	48 c7 85 80 fa ff ff 	movq   $0x0,-0x580(%rbp)
   143e2:	00 00 00 00 
   143e6:	48 8d 85 00 f2 ff ff 	lea    -0xe00(%rbp),%rax
   143ed:	48 89 85 88 fa ff ff 	mov    %rax,-0x578(%rbp)
   143f4:	48 8d 85 00 f2 ff ff 	lea    -0xe00(%rbp),%rax
   143fb:	48 89 85 90 fa ff ff 	mov    %rax,-0x570(%rbp)
   14402:	48 8d 85 00 f2 ff ff 	lea    -0xe00(%rbp),%rax
   14409:	48 89 85 98 fa ff ff 	mov    %rax,-0x568(%rbp)
   14410:	48 8d 85 00 f2 ff ff 	lea    -0xe00(%rbp),%rax
   14417:	48 89 85 a0 fa ff ff 	mov    %rax,-0x560(%rbp)
   1441e:	48 8d 85 00 f2 ff ff 	lea    -0xe00(%rbp),%rax
   14425:	48 89 85 a8 fa ff ff 	mov    %rax,-0x558(%rbp)
   1442c:	48 8d 85 00 f2 ff ff 	lea    -0xe00(%rbp),%rax
   14433:	48 89 85 b0 fa ff ff 	mov    %rax,-0x550(%rbp)
   1443a:	48 8d 85 00 f2 ff ff 	lea    -0xe00(%rbp),%rax
   14441:	48 89 85 b8 fa ff ff 	mov    %rax,-0x548(%rbp)
   14448:	48 8d 85 00 f2 ff ff 	lea    -0xe00(%rbp),%rax
   1444f:	48 89 85 c0 fa ff ff 	mov    %rax,-0x540(%rbp)
   14456:	48 8d 85 00 f2 ff ff 	lea    -0xe00(%rbp),%rax
   1445d:	48 89 85 c8 fa ff ff 	mov    %rax,-0x538(%rbp)
   14464:	48 8d 85 00 f2 ff ff 	lea    -0xe00(%rbp),%rax
   1446b:	48 89 85 d0 fa ff ff 	mov    %rax,-0x530(%rbp)
   14472:	48 8d 85 00 f2 ff ff 	lea    -0xe00(%rbp),%rax
   14479:	48 89 85 d8 fa ff ff 	mov    %rax,-0x528(%rbp)
   14480:	48 8d 85 00 f2 ff ff 	lea    -0xe00(%rbp),%rax
   14487:	48 89 85 e0 fa ff ff 	mov    %rax,-0x520(%rbp)
   1448e:	48 8d 85 00 f2 ff ff 	lea    -0xe00(%rbp),%rax
   14495:	48 89 85 e8 fa ff ff 	mov    %rax,-0x518(%rbp)
   1449c:	48 8d 85 00 f2 ff ff 	lea    -0xe00(%rbp),%rax
   144a3:	48 89 85 f0 fa ff ff 	mov    %rax,-0x510(%rbp)
   144aa:	48 8d 85 00 f2 ff ff 	lea    -0xe00(%rbp),%rax
   144b1:	48 89 85 f8 fa ff ff 	mov    %rax,-0x508(%rbp)
   144b8:	48 8d 85 00 f2 ff ff 	lea    -0xe00(%rbp),%rax
   144bf:	48 89 85 00 fb ff ff 	mov    %rax,-0x500(%rbp)
   144c6:	48 8d 85 00 f2 ff ff 	lea    -0xe00(%rbp),%rax
   144cd:	48 89 85 08 fb ff ff 	mov    %rax,-0x4f8(%rbp)
   144d4:	48 8d 85 00 f2 ff ff 	lea    -0xe00(%rbp),%rax
   144db:	48 89 85 10 fb ff ff 	mov    %rax,-0x4f0(%rbp)
   144e2:	48 8d 85 00 f2 ff ff 	lea    -0xe00(%rbp),%rax
   144e9:	48 89 85 18 fb ff ff 	mov    %rax,-0x4e8(%rbp)
   144f0:	48 c7 85 20 fb ff ff 	movq   $0x0,-0x4e0(%rbp)
   144f7:	00 00 00 00 
   144fb:	48 8d 85 00 f2 ff ff 	lea    -0xe00(%rbp),%rax
   14502:	48 89 85 28 fb ff ff 	mov    %rax,-0x4d8(%rbp)
   14509:	48 c7 85 30 fb ff ff 	movq   $0x0,-0x4d0(%rbp)
   14510:	00 00 00 00 
   14514:	48 8d 85 00 f2 ff ff 	lea    -0xe00(%rbp),%rax
   1451b:	48 89 85 38 fb ff ff 	mov    %rax,-0x4c8(%rbp)
   14522:	48 8d 85 00 f2 ff ff 	lea    -0xe00(%rbp),%rax
   14529:	48 89 85 40 fb ff ff 	mov    %rax,-0x4c0(%rbp)
   14530:	48 8d 85 00 f2 ff ff 	lea    -0xe00(%rbp),%rax
   14537:	48 89 85 48 fb ff ff 	mov    %rax,-0x4b8(%rbp)
   1453e:	48 8d 85 00 f2 ff ff 	lea    -0xe00(%rbp),%rax
   14545:	48 89 85 50 fb ff ff 	mov    %rax,-0x4b0(%rbp)
   1454c:	48 8d 85 00 f2 ff ff 	lea    -0xe00(%rbp),%rax
   14553:	48 89 85 58 fb ff ff 	mov    %rax,-0x4a8(%rbp)
   1455a:	48 8d 85 00 f2 ff ff 	lea    -0xe00(%rbp),%rax
   14561:	48 89 85 60 fb ff ff 	mov    %rax,-0x4a0(%rbp)
   14568:	48 8d 85 00 f2 ff ff 	lea    -0xe00(%rbp),%rax
   1456f:	48 89 85 68 fb ff ff 	mov    %rax,-0x498(%rbp)
   14576:	48 8d 85 00 f2 ff ff 	lea    -0xe00(%rbp),%rax
   1457d:	48 89 85 70 fb ff ff 	mov    %rax,-0x490(%rbp)
   14584:	48 8d 85 00 f2 ff ff 	lea    -0xe00(%rbp),%rax
   1458b:	48 89 85 78 fb ff ff 	mov    %rax,-0x488(%rbp)
   14592:	48 8d 85 00 f2 ff ff 	lea    -0xe00(%rbp),%rax
   14599:	48 89 85 80 fb ff ff 	mov    %rax,-0x480(%rbp)
   145a0:	48 8d 85 00 f2 ff ff 	lea    -0xe00(%rbp),%rax
   145a7:	48 89 85 88 fb ff ff 	mov    %rax,-0x478(%rbp)
   145ae:	48 c7 85 90 fb ff ff 	movq   $0x0,-0x470(%rbp)
   145b5:	00 00 00 00 
   145b9:	48 8d 85 00 f2 ff ff 	lea    -0xe00(%rbp),%rax
   145c0:	48 89 85 98 fb ff ff 	mov    %rax,-0x468(%rbp)
   145c7:	48 8d 85 00 f2 ff ff 	lea    -0xe00(%rbp),%rax
   145ce:	48 89 85 a0 fb ff ff 	mov    %rax,-0x460(%rbp)
   145d5:	48 8d 85 00 f2 ff ff 	lea    -0xe00(%rbp),%rax
   145dc:	48 89 85 a8 fb ff ff 	mov    %rax,-0x458(%rbp)
   145e3:	48 8d 85 00 f2 ff ff 	lea    -0xe00(%rbp),%rax
   145ea:	48 89 85 b0 fb ff ff 	mov    %rax,-0x450(%rbp)
   145f1:	48 8d 85 00 f2 ff ff 	lea    -0xe00(%rbp),%rax
   145f8:	48 89 85 b8 fb ff ff 	mov    %rax,-0x448(%rbp)
   145ff:	48 8d 85 00 f2 ff ff 	lea    -0xe00(%rbp),%rax
   14606:	48 89 85 c0 fb ff ff 	mov    %rax,-0x440(%rbp)
   1460d:	48 8d 85 00 f2 ff ff 	lea    -0xe00(%rbp),%rax
   14614:	48 89 85 c8 fb ff ff 	mov    %rax,-0x438(%rbp)
   1461b:	48 8d 85 00 f2 ff ff 	lea    -0xe00(%rbp),%rax
   14622:	48 89 85 d0 fb ff ff 	mov    %rax,-0x430(%rbp)
   14629:	48 8d 85 00 f2 ff ff 	lea    -0xe00(%rbp),%rax
   14630:	48 89 85 d8 fb ff ff 	mov    %rax,-0x428(%rbp)
   14637:	48 8d 85 00 f2 ff ff 	lea    -0xe00(%rbp),%rax
   1463e:	48 89 85 e0 fb ff ff 	mov    %rax,-0x420(%rbp)
   14645:	48 8d 85 00 f2 ff ff 	lea    -0xe00(%rbp),%rax
   1464c:	48 89 85 e8 fb ff ff 	mov    %rax,-0x418(%rbp)
   14653:	48 8d 85 00 f2 ff ff 	lea    -0xe00(%rbp),%rax
   1465a:	48 89 85 f0 fb ff ff 	mov    %rax,-0x410(%rbp)
   14661:	48 8d 85 00 f2 ff ff 	lea    -0xe00(%rbp),%rax
   14668:	48 89 85 f8 fb ff ff 	mov    %rax,-0x408(%rbp)
   1466f:	48 c7 85 00 fc ff ff 	movq   $0x0,-0x400(%rbp)
   14676:	00 00 00 00 
   1467a:	48 8d 85 00 f2 ff ff 	lea    -0xe00(%rbp),%rax
   14681:	48 89 85 08 fc ff ff 	mov    %rax,-0x3f8(%rbp)
   14688:	48 8d 85 00 f2 ff ff 	lea    -0xe00(%rbp),%rax
   1468f:	48 89 85 10 fc ff ff 	mov    %rax,-0x3f0(%rbp)
   14696:	48 8d 85 00 f2 ff ff 	lea    -0xe00(%rbp),%rax
   1469d:	48 89 85 18 fc ff ff 	mov    %rax,-0x3e8(%rbp)
   146a4:	48 c7 85 20 fc ff ff 	movq   $0x0,-0x3e0(%rbp)
   146ab:	00 00 00 00 
   146af:	48 8d 85 00 f2 ff ff 	lea    -0xe00(%rbp),%rax
   146b6:	48 89 85 28 fc ff ff 	mov    %rax,-0x3d8(%rbp)
   146bd:	48 8d 85 00 f2 ff ff 	lea    -0xe00(%rbp),%rax
   146c4:	48 89 85 30 fc ff ff 	mov    %rax,-0x3d0(%rbp)
   146cb:	48 c7 85 38 fc ff ff 	movq   $0x0,-0x3c8(%rbp)
   146d2:	00 00 00 00 
   146d6:	48 8d 85 00 f2 ff ff 	lea    -0xe00(%rbp),%rax
   146dd:	48 89 85 40 fc ff ff 	mov    %rax,-0x3c0(%rbp)
   146e4:	48 8d 85 00 f2 ff ff 	lea    -0xe00(%rbp),%rax
   146eb:	48 89 85 48 fc ff ff 	mov    %rax,-0x3b8(%rbp)
   146f2:	48 8d 85 00 f2 ff ff 	lea    -0xe00(%rbp),%rax
   146f9:	48 89 85 50 fc ff ff 	mov    %rax,-0x3b0(%rbp)
   14700:	48 8d 85 00 f2 ff ff 	lea    -0xe00(%rbp),%rax
   14707:	48 89 85 58 fc ff ff 	mov    %rax,-0x3a8(%rbp)
   1470e:	48 8d 85 00 f2 ff ff 	lea    -0xe00(%rbp),%rax
   14715:	48 89 85 60 fc ff ff 	mov    %rax,-0x3a0(%rbp)
   1471c:	48 c7 85 68 fc ff ff 	movq   $0x0,-0x398(%rbp)
   14723:	00 00 00 00 
   14727:	48 c7 85 70 fc ff ff 	movq   $0x0,-0x390(%rbp)
   1472e:	00 00 00 00 
   14732:	48 c7 85 78 fc ff ff 	movq   $0x0,-0x388(%rbp)
   14739:	00 00 00 00 
   1473d:	48 c7 85 80 fc ff ff 	movq   $0x0,-0x380(%rbp)
   14744:	00 00 00 00 
   14748:	48 8d 85 00 f2 ff ff 	lea    -0xe00(%rbp),%rax
   1474f:	48 89 85 88 fc ff ff 	mov    %rax,-0x378(%rbp)
   14756:	48 c7 85 90 fc ff ff 	movq   $0x0,-0x370(%rbp)
   1475d:	00 00 00 00 
   14761:	48 8d 85 00 f2 ff ff 	lea    -0xe00(%rbp),%rax
   14768:	48 89 85 98 fc ff ff 	mov    %rax,-0x368(%rbp)
   1476f:	48 8d 85 00 f2 ff ff 	lea    -0xe00(%rbp),%rax
   14776:	48 89 85 a0 fc ff ff 	mov    %rax,-0x360(%rbp)
   1477d:	48 8d 85 00 f2 ff ff 	lea    -0xe00(%rbp),%rax
   14784:	48 89 85 a8 fc ff ff 	mov    %rax,-0x358(%rbp)
   1478b:	48 8d 85 00 f2 ff ff 	lea    -0xe00(%rbp),%rax
   14792:	48 89 85 b0 fc ff ff 	mov    %rax,-0x350(%rbp)
   14799:	48 8d 85 00 f2 ff ff 	lea    -0xe00(%rbp),%rax
   147a0:	48 89 85 b8 fc ff ff 	mov    %rax,-0x348(%rbp)
   147a7:	48 c7 85 c0 fc ff ff 	movq   $0x0,-0x340(%rbp)
   147ae:	00 00 00 00 
   147b2:	48 8d 85 00 f2 ff ff 	lea    -0xe00(%rbp),%rax
   147b9:	48 89 85 c8 fc ff ff 	mov    %rax,-0x338(%rbp)
   147c0:	48 8d 85 00 f2 ff ff 	lea    -0xe00(%rbp),%rax
   147c7:	48 89 85 d0 fc ff ff 	mov    %rax,-0x330(%rbp)
   147ce:	48 8d 85 00 f2 ff ff 	lea    -0xe00(%rbp),%rax
   147d5:	48 89 85 d8 fc ff ff 	mov    %rax,-0x328(%rbp)
   147dc:	48 8d 85 00 f2 ff ff 	lea    -0xe00(%rbp),%rax
   147e3:	48 89 85 e0 fc ff ff 	mov    %rax,-0x320(%rbp)
   147ea:	48 8d 85 00 f2 ff ff 	lea    -0xe00(%rbp),%rax
   147f1:	48 89 85 e8 fc ff ff 	mov    %rax,-0x318(%rbp)
   147f8:	48 c7 85 f0 fc ff ff 	movq   $0x0,-0x310(%rbp)
   147ff:	00 00 00 00 
   14803:	48 8d 85 00 f2 ff ff 	lea    -0xe00(%rbp),%rax
   1480a:	48 89 85 f8 fc ff ff 	mov    %rax,-0x308(%rbp)
   14811:	48 8d 85 00 f2 ff ff 	lea    -0xe00(%rbp),%rax
   14818:	48 89 85 00 fd ff ff 	mov    %rax,-0x300(%rbp)
   1481f:	48 8d 85 00 f2 ff ff 	lea    -0xe00(%rbp),%rax
   14826:	48 89 85 08 fd ff ff 	mov    %rax,-0x2f8(%rbp)
   1482d:	48 c7 85 10 fd ff ff 	movq   $0x0,-0x2f0(%rbp)
   14834:	00 00 00 00 
   14838:	48 8d 85 00 f2 ff ff 	lea    -0xe00(%rbp),%rax
   1483f:	48 89 85 18 fd ff ff 	mov    %rax,-0x2e8(%rbp)
   14846:	48 c7 85 20 fd ff ff 	movq   $0x0,-0x2e0(%rbp)
   1484d:	00 00 00 00 
   14851:	48 8d 85 00 f2 ff ff 	lea    -0xe00(%rbp),%rax
   14858:	48 89 85 28 fd ff ff 	mov    %rax,-0x2d8(%rbp)
   1485f:	48 8d 85 00 f2 ff ff 	lea    -0xe00(%rbp),%rax
   14866:	48 89 85 30 fd ff ff 	mov    %rax,-0x2d0(%rbp)
   1486d:	48 c7 85 38 fd ff ff 	movq   $0x0,-0x2c8(%rbp)
   14874:	00 00 00 00 
   14878:	48 8d 85 00 f2 ff ff 	lea    -0xe00(%rbp),%rax
   1487f:	48 89 85 40 fd ff ff 	mov    %rax,-0x2c0(%rbp)
   14886:	48 c7 85 48 fd ff ff 	movq   $0x0,-0x2b8(%rbp)
   1488d:	00 00 00 00 
   14891:	48 8d 85 00 f2 ff ff 	lea    -0xe00(%rbp),%rax
   14898:	48 89 85 50 fd ff ff 	mov    %rax,-0x2b0(%rbp)
   1489f:	48 8d 85 00 f2 ff ff 	lea    -0xe00(%rbp),%rax
   148a6:	48 89 85 58 fd ff ff 	mov    %rax,-0x2a8(%rbp)
   148ad:	48 8d 85 00 f2 ff ff 	lea    -0xe00(%rbp),%rax
   148b4:	48 89 85 60 fd ff ff 	mov    %rax,-0x2a0(%rbp)
   148bb:	48 8d 85 00 f2 ff ff 	lea    -0xe00(%rbp),%rax
   148c2:	48 89 85 68 fd ff ff 	mov    %rax,-0x298(%rbp)
   148c9:	48 c7 85 70 fd ff ff 	movq   $0x0,-0x290(%rbp)
   148d0:	00 00 00 00 
   148d4:	48 c7 85 78 fd ff ff 	movq   $0x0,-0x288(%rbp)
   148db:	00 00 00 00 
   148df:	48 8d 85 00 f2 ff ff 	lea    -0xe00(%rbp),%rax
   148e6:	48 89 85 80 fd ff ff 	mov    %rax,-0x280(%rbp)
   148ed:	48 8d 85 00 f2 ff ff 	lea    -0xe00(%rbp),%rax
   148f4:	48 89 85 88 fd ff ff 	mov    %rax,-0x278(%rbp)
   148fb:	48 8d 85 00 f2 ff ff 	lea    -0xe00(%rbp),%rax
   14902:	48 89 85 90 fd ff ff 	mov    %rax,-0x270(%rbp)
   14909:	48 8d 85 00 f2 ff ff 	lea    -0xe00(%rbp),%rax
   14910:	48 89 85 98 fd ff ff 	mov    %rax,-0x268(%rbp)
   14917:	48 8d 85 00 f2 ff ff 	lea    -0xe00(%rbp),%rax
   1491e:	48 89 85 a0 fd ff ff 	mov    %rax,-0x260(%rbp)
   14925:	48 8d 85 00 f2 ff ff 	lea    -0xe00(%rbp),%rax
   1492c:	48 89 85 a8 fd ff ff 	mov    %rax,-0x258(%rbp)
   14933:	48 c7 85 b0 fd ff ff 	movq   $0x0,-0x250(%rbp)
   1493a:	00 00 00 00 
   1493e:	48 8d 85 00 f2 ff ff 	lea    -0xe00(%rbp),%rax
   14945:	48 89 85 b8 fd ff ff 	mov    %rax,-0x248(%rbp)
   1494c:	48 8d 85 00 f2 ff ff 	lea    -0xe00(%rbp),%rax
   14953:	48 89 85 c0 fd ff ff 	mov    %rax,-0x240(%rbp)
   1495a:	48 8d 85 00 f2 ff ff 	lea    -0xe00(%rbp),%rax
   14961:	48 89 85 c8 fd ff ff 	mov    %rax,-0x238(%rbp)
   14968:	48 8d 85 00 f2 ff ff 	lea    -0xe00(%rbp),%rax
   1496f:	48 89 85 d0 fd ff ff 	mov    %rax,-0x230(%rbp)
   14976:	48 8d 85 00 f2 ff ff 	lea    -0xe00(%rbp),%rax
   1497d:	48 89 85 d8 fd ff ff 	mov    %rax,-0x228(%rbp)
   14984:	48 8d 85 00 f2 ff ff 	lea    -0xe00(%rbp),%rax
   1498b:	48 89 85 e0 fd ff ff 	mov    %rax,-0x220(%rbp)
   14992:	48 8d 85 00 f2 ff ff 	lea    -0xe00(%rbp),%rax
   14999:	48 89 85 e8 fd ff ff 	mov    %rax,-0x218(%rbp)
   149a0:	48 8d 85 00 f2 ff ff 	lea    -0xe00(%rbp),%rax
   149a7:	48 89 85 f0 fd ff ff 	mov    %rax,-0x210(%rbp)
   149ae:	48 8d 85 00 f2 ff ff 	lea    -0xe00(%rbp),%rax
   149b5:	48 89 85 f8 fd ff ff 	mov    %rax,-0x208(%rbp)
   149bc:	48 8d 85 00 f2 ff ff 	lea    -0xe00(%rbp),%rax
   149c3:	48 89 85 00 fe ff ff 	mov    %rax,-0x200(%rbp)
   149ca:	48 8d 85 00 f2 ff ff 	lea    -0xe00(%rbp),%rax
   149d1:	48 89 85 08 fe ff ff 	mov    %rax,-0x1f8(%rbp)
   149d8:	48 8d 85 00 f2 ff ff 	lea    -0xe00(%rbp),%rax
   149df:	48 89 85 10 fe ff ff 	mov    %rax,-0x1f0(%rbp)
   149e6:	48 8d 85 00 f2 ff ff 	lea    -0xe00(%rbp),%rax
   149ed:	48 89 85 18 fe ff ff 	mov    %rax,-0x1e8(%rbp)
   149f4:	48 8d 85 00 f2 ff ff 	lea    -0xe00(%rbp),%rax
   149fb:	48 89 85 20 fe ff ff 	mov    %rax,-0x1e0(%rbp)
   14a02:	48 8d 85 00 f2 ff ff 	lea    -0xe00(%rbp),%rax
   14a09:	48 89 85 28 fe ff ff 	mov    %rax,-0x1d8(%rbp)
   14a10:	48 8d 85 00 f2 ff ff 	lea    -0xe00(%rbp),%rax
   14a17:	48 89 85 30 fe ff ff 	mov    %rax,-0x1d0(%rbp)
   14a1e:	48 8d 85 00 f2 ff ff 	lea    -0xe00(%rbp),%rax
   14a25:	48 89 85 38 fe ff ff 	mov    %rax,-0x1c8(%rbp)
   14a2c:	48 8d 85 00 f2 ff ff 	lea    -0xe00(%rbp),%rax
   14a33:	48 89 85 40 fe ff ff 	mov    %rax,-0x1c0(%rbp)
   14a3a:	48 8d 85 00 f2 ff ff 	lea    -0xe00(%rbp),%rax
   14a41:	48 89 85 48 fe ff ff 	mov    %rax,-0x1b8(%rbp)
   14a48:	48 c7 85 50 fe ff ff 	movq   $0x0,-0x1b0(%rbp)
   14a4f:	00 00 00 00 
   14a53:	48 8d 85 00 f2 ff ff 	lea    -0xe00(%rbp),%rax
   14a5a:	48 89 85 58 fe ff ff 	mov    %rax,-0x1a8(%rbp)
   14a61:	48 c7 85 60 fe ff ff 	movq   $0x0,-0x1a0(%rbp)
   14a68:	00 00 00 00 
   14a6c:	48 8d 85 00 f2 ff ff 	lea    -0xe00(%rbp),%rax
   14a73:	48 89 85 68 fe ff ff 	mov    %rax,-0x198(%rbp)
   14a7a:	48 8d 85 00 f2 ff ff 	lea    -0xe00(%rbp),%rax
   14a81:	48 89 85 70 fe ff ff 	mov    %rax,-0x190(%rbp)
   14a88:	48 8d 85 00 f2 ff ff 	lea    -0xe00(%rbp),%rax
   14a8f:	48 89 85 78 fe ff ff 	mov    %rax,-0x188(%rbp)
   14a96:	48 8d 85 00 f2 ff ff 	lea    -0xe00(%rbp),%rax
   14a9d:	48 89 85 80 fe ff ff 	mov    %rax,-0x180(%rbp)
   14aa4:	48 8d 85 00 f2 ff ff 	lea    -0xe00(%rbp),%rax
   14aab:	48 89 85 88 fe ff ff 	mov    %rax,-0x178(%rbp)
   14ab2:	48 8d 85 00 f2 ff ff 	lea    -0xe00(%rbp),%rax
   14ab9:	48 89 85 90 fe ff ff 	mov    %rax,-0x170(%rbp)
   14ac0:	48 8d 85 00 f2 ff ff 	lea    -0xe00(%rbp),%rax
   14ac7:	48 89 85 98 fe ff ff 	mov    %rax,-0x168(%rbp)
   14ace:	48 8d 85 00 f2 ff ff 	lea    -0xe00(%rbp),%rax
   14ad5:	48 89 85 a0 fe ff ff 	mov    %rax,-0x160(%rbp)
   14adc:	48 8d 85 00 f2 ff ff 	lea    -0xe00(%rbp),%rax
   14ae3:	48 89 85 a8 fe ff ff 	mov    %rax,-0x158(%rbp)
   14aea:	48 8d 85 00 f2 ff ff 	lea    -0xe00(%rbp),%rax
   14af1:	48 89 85 b0 fe ff ff 	mov    %rax,-0x150(%rbp)
   14af8:	48 8d 85 00 f2 ff ff 	lea    -0xe00(%rbp),%rax
   14aff:	48 89 85 b8 fe ff ff 	mov    %rax,-0x148(%rbp)
   14b06:	48 c7 85 c0 fe ff ff 	movq   $0x0,-0x140(%rbp)
   14b0d:	00 00 00 00 
   14b11:	48 8d 85 00 f2 ff ff 	lea    -0xe00(%rbp),%rax
   14b18:	48 89 85 c8 fe ff ff 	mov    %rax,-0x138(%rbp)
   14b1f:	48 8d 85 00 f2 ff ff 	lea    -0xe00(%rbp),%rax
   14b26:	48 89 85 d0 fe ff ff 	mov    %rax,-0x130(%rbp)
   14b2d:	48 8d 85 00 f2 ff ff 	lea    -0xe00(%rbp),%rax
   14b34:	48 89 85 d8 fe ff ff 	mov    %rax,-0x128(%rbp)
   14b3b:	48 8d 85 00 f2 ff ff 	lea    -0xe00(%rbp),%rax
   14b42:	48 89 85 e0 fe ff ff 	mov    %rax,-0x120(%rbp)
   14b49:	48 8d 85 00 f2 ff ff 	lea    -0xe00(%rbp),%rax
   14b50:	48 89 85 e8 fe ff ff 	mov    %rax,-0x118(%rbp)
   14b57:	48 8d 85 00 f2 ff ff 	lea    -0xe00(%rbp),%rax
   14b5e:	48 89 85 f0 fe ff ff 	mov    %rax,-0x110(%rbp)
   14b65:	48 8d 85 00 f2 ff ff 	lea    -0xe00(%rbp),%rax
   14b6c:	48 89 85 f8 fe ff ff 	mov    %rax,-0x108(%rbp)
   14b73:	48 8d 85 00 f2 ff ff 	lea    -0xe00(%rbp),%rax
   14b7a:	48 89 85 00 ff ff ff 	mov    %rax,-0x100(%rbp)
   14b81:	48 8d 85 00 f2 ff ff 	lea    -0xe00(%rbp),%rax
   14b88:	48 89 85 08 ff ff ff 	mov    %rax,-0xf8(%rbp)
   14b8f:	48 8d 85 00 f2 ff ff 	lea    -0xe00(%rbp),%rax
   14b96:	48 89 85 10 ff ff ff 	mov    %rax,-0xf0(%rbp)
   14b9d:	48 8d 85 00 f2 ff ff 	lea    -0xe00(%rbp),%rax
   14ba4:	48 89 85 18 ff ff ff 	mov    %rax,-0xe8(%rbp)
   14bab:	48 8d 85 00 f2 ff ff 	lea    -0xe00(%rbp),%rax
   14bb2:	48 89 85 20 ff ff ff 	mov    %rax,-0xe0(%rbp)
   14bb9:	48 8d 85 00 f2 ff ff 	lea    -0xe00(%rbp),%rax
   14bc0:	48 89 85 28 ff ff ff 	mov    %rax,-0xd8(%rbp)
   14bc7:	48 c7 85 30 ff ff ff 	movq   $0x0,-0xd0(%rbp)
   14bce:	00 00 00 00 
   14bd2:	48 8d 85 00 f2 ff ff 	lea    -0xe00(%rbp),%rax
   14bd9:	48 89 85 38 ff ff ff 	mov    %rax,-0xc8(%rbp)
   14be0:	48 8d 85 00 f2 ff ff 	lea    -0xe00(%rbp),%rax
   14be7:	48 89 85 40 ff ff ff 	mov    %rax,-0xc0(%rbp)
   14bee:	48 8d 85 00 f2 ff ff 	lea    -0xe00(%rbp),%rax
   14bf5:	48 89 85 48 ff ff ff 	mov    %rax,-0xb8(%rbp)
   14bfc:	48 c7 85 50 ff ff ff 	movq   $0x0,-0xb0(%rbp)
   14c03:	00 00 00 00 
   14c07:	48 8d 85 00 f2 ff ff 	lea    -0xe00(%rbp),%rax
   14c0e:	48 89 85 58 ff ff ff 	mov    %rax,-0xa8(%rbp)
   14c15:	48 8d 85 00 f2 ff ff 	lea    -0xe00(%rbp),%rax
   14c1c:	48 89 85 60 ff ff ff 	mov    %rax,-0xa0(%rbp)
   14c23:	48 c7 85 68 ff ff ff 	movq   $0x0,-0x98(%rbp)
   14c2a:	00 00 00 00 
   14c2e:	48 8d 85 00 f2 ff ff 	lea    -0xe00(%rbp),%rax
   14c35:	48 89 85 70 ff ff ff 	mov    %rax,-0x90(%rbp)
   14c3c:	48 8d 85 00 f2 ff ff 	lea    -0xe00(%rbp),%rax
   14c43:	48 89 85 78 ff ff ff 	mov    %rax,-0x88(%rbp)
   14c4a:	48 8d 85 00 f2 ff ff 	lea    -0xe00(%rbp),%rax
   14c51:	48 89 45 80          	mov    %rax,-0x80(%rbp)
   14c55:	48 8d 85 00 f2 ff ff 	lea    -0xe00(%rbp),%rax
   14c5c:	48 89 45 88          	mov    %rax,-0x78(%rbp)
   14c60:	48 8d 85 00 f2 ff ff 	lea    -0xe00(%rbp),%rax
   14c67:	48 89 45 90          	mov    %rax,-0x70(%rbp)
   14c6b:	48 c7 45 98 00 00 00 	movq   $0x0,-0x68(%rbp)
   14c72:	00 
   14c73:	48 c7 45 a0 00 00 00 	movq   $0x0,-0x60(%rbp)
   14c7a:	00 
   14c7b:	48 c7 45 a8 00 00 00 	movq   $0x0,-0x58(%rbp)
   14c82:	00 
   14c83:	48 c7 45 b0 00 00 00 	movq   $0x0,-0x50(%rbp)
   14c8a:	00 
   14c8b:	48 8d 85 00 f2 ff ff 	lea    -0xe00(%rbp),%rax
   14c92:	48 89 45 b8          	mov    %rax,-0x48(%rbp)
   14c96:	48 8d 05 95 83 00 00 	lea    0x8395(%rip),%rax        # 1d032 <g_2+0x2>
   14c9d:	48 89 85 50 f3 ff ff 	mov    %rax,-0xcb0(%rbp)
   14ca4:	48 8d 85 c8 f1 ff ff 	lea    -0xe38(%rbp),%rax
   14cab:	48 89 85 58 f3 ff ff 	mov    %rax,-0xca8(%rbp)
   14cb2:	48 8d 05 79 83 00 00 	lea    0x8379(%rip),%rax        # 1d032 <g_2+0x2>
   14cb9:	48 89 85 60 f3 ff ff 	mov    %rax,-0xca0(%rbp)
   14cc0:	48 8d 85 c8 f1 ff ff 	lea    -0xe38(%rbp),%rax
   14cc7:	48 89 85 68 f3 ff ff 	mov    %rax,-0xc98(%rbp)
   14cce:	48 8d 85 c8 f1 ff ff 	lea    -0xe38(%rbp),%rax
   14cd5:	48 89 85 70 f3 ff ff 	mov    %rax,-0xc90(%rbp)
   14cdc:	48 8d 85 c8 f1 ff ff 	lea    -0xe38(%rbp),%rax
   14ce3:	48 89 85 78 f3 ff ff 	mov    %rax,-0xc88(%rbp)
   14cea:	48 8d 85 c8 f1 ff ff 	lea    -0xe38(%rbp),%rax
   14cf1:	48 89 85 80 f3 ff ff 	mov    %rax,-0xc80(%rbp)
   14cf8:	48 8d 85 c8 f1 ff ff 	lea    -0xe38(%rbp),%rax
   14cff:	48 89 85 88 f3 ff ff 	mov    %rax,-0xc78(%rbp)
   14d06:	48 8d 05 25 83 00 00 	lea    0x8325(%rip),%rax        # 1d032 <g_2+0x2>
   14d0d:	48 89 85 90 f3 ff ff 	mov    %rax,-0xc70(%rbp)
   14d14:	48 8d 85 c8 f1 ff ff 	lea    -0xe38(%rbp),%rax
   14d1b:	48 89 85 98 f3 ff ff 	mov    %rax,-0xc68(%rbp)
   14d22:	48 8d 85 c8 f1 ff ff 	lea    -0xe38(%rbp),%rax
   14d29:	48 89 85 a0 f3 ff ff 	mov    %rax,-0xc60(%rbp)
   14d30:	48 8d 05 fb 82 00 00 	lea    0x82fb(%rip),%rax        # 1d032 <g_2+0x2>
   14d37:	48 89 85 a8 f3 ff ff 	mov    %rax,-0xc58(%rbp)
   14d3e:	48 8d 05 ed 82 00 00 	lea    0x82ed(%rip),%rax        # 1d032 <g_2+0x2>
   14d45:	48 89 85 b0 f3 ff ff 	mov    %rax,-0xc50(%rbp)
   14d4c:	48 8d 85 c8 f1 ff ff 	lea    -0xe38(%rbp),%rax
   14d53:	48 89 85 b8 f3 ff ff 	mov    %rax,-0xc48(%rbp)
   14d5a:	48 8d 05 d1 82 00 00 	lea    0x82d1(%rip),%rax        # 1d032 <g_2+0x2>
   14d61:	48 89 85 c0 f3 ff ff 	mov    %rax,-0xc40(%rbp)
   14d68:	48 8d 05 c3 82 00 00 	lea    0x82c3(%rip),%rax        # 1d032 <g_2+0x2>
   14d6f:	48 89 85 c8 f3 ff ff 	mov    %rax,-0xc38(%rbp)
   14d76:	48 8d 85 c8 f1 ff ff 	lea    -0xe38(%rbp),%rax
   14d7d:	48 89 85 d0 f3 ff ff 	mov    %rax,-0xc30(%rbp)
   14d84:	48 8d 85 c8 f1 ff ff 	lea    -0xe38(%rbp),%rax
   14d8b:	48 89 85 d8 f3 ff ff 	mov    %rax,-0xc28(%rbp)
   14d92:	48 8d 05 99 82 00 00 	lea    0x8299(%rip),%rax        # 1d032 <g_2+0x2>
   14d99:	48 89 85 e0 f3 ff ff 	mov    %rax,-0xc20(%rbp)
   14da0:	48 8d 05 8b 82 00 00 	lea    0x828b(%rip),%rax        # 1d032 <g_2+0x2>
   14da7:	48 89 85 e8 f3 ff ff 	mov    %rax,-0xc18(%rbp)
   14dae:	48 8d 05 7d 82 00 00 	lea    0x827d(%rip),%rax        # 1d032 <g_2+0x2>
   14db5:	48 89 85 f0 f3 ff ff 	mov    %rax,-0xc10(%rbp)
   14dbc:	48 8d 85 c8 f1 ff ff 	lea    -0xe38(%rbp),%rax
   14dc3:	48 89 85 f8 f3 ff ff 	mov    %rax,-0xc08(%rbp)
   14dca:	48 8d 85 c8 f1 ff ff 	lea    -0xe38(%rbp),%rax
   14dd1:	48 89 85 00 f4 ff ff 	mov    %rax,-0xc00(%rbp)
   14dd8:	48 8d 05 53 82 00 00 	lea    0x8253(%rip),%rax        # 1d032 <g_2+0x2>
   14ddf:	48 89 85 08 f4 ff ff 	mov    %rax,-0xbf8(%rbp)
   14de6:	48 8d 05 45 82 00 00 	lea    0x8245(%rip),%rax        # 1d032 <g_2+0x2>
   14ded:	48 89 85 10 f4 ff ff 	mov    %rax,-0xbf0(%rbp)
   14df4:	48 8d 85 c8 f1 ff ff 	lea    -0xe38(%rbp),%rax
   14dfb:	48 89 85 18 f4 ff ff 	mov    %rax,-0xbe8(%rbp)
   14e02:	48 8d 05 29 82 00 00 	lea    0x8229(%rip),%rax        # 1d032 <g_2+0x2>
   14e09:	48 89 85 20 f4 ff ff 	mov    %rax,-0xbe0(%rbp)
   14e10:	48 8d 05 1b 82 00 00 	lea    0x821b(%rip),%rax        # 1d032 <g_2+0x2>
   14e17:	48 89 85 28 f4 ff ff 	mov    %rax,-0xbd8(%rbp)
   14e1e:	48 8d 85 c8 f1 ff ff 	lea    -0xe38(%rbp),%rax
   14e25:	48 89 85 30 f4 ff ff 	mov    %rax,-0xbd0(%rbp)
   14e2c:	48 8d 85 c8 f1 ff ff 	lea    -0xe38(%rbp),%rax
   14e33:	48 89 85 38 f4 ff ff 	mov    %rax,-0xbc8(%rbp)
   14e3a:	48 8d 05 f1 81 00 00 	lea    0x81f1(%rip),%rax        # 1d032 <g_2+0x2>
   14e41:	48 89 85 40 f4 ff ff 	mov    %rax,-0xbc0(%rbp)
   14e48:	48 8d 85 c8 f1 ff ff 	lea    -0xe38(%rbp),%rax
   14e4f:	48 89 85 48 f4 ff ff 	mov    %rax,-0xbb8(%rbp)
   14e56:	48 8d 85 c8 f1 ff ff 	lea    -0xe38(%rbp),%rax
   14e5d:	48 89 85 50 f4 ff ff 	mov    %rax,-0xbb0(%rbp)
   14e64:	48 8d 85 c8 f1 ff ff 	lea    -0xe38(%rbp),%rax
   14e6b:	48 89 85 58 f4 ff ff 	mov    %rax,-0xba8(%rbp)
   14e72:	48 8d 85 c8 f1 ff ff 	lea    -0xe38(%rbp),%rax
   14e79:	48 89 85 60 f4 ff ff 	mov    %rax,-0xba0(%rbp)
   14e80:	48 8d 85 c8 f1 ff ff 	lea    -0xe38(%rbp),%rax
   14e87:	48 89 85 68 f4 ff ff 	mov    %rax,-0xb98(%rbp)
   14e8e:	48 8d 85 c8 f1 ff ff 	lea    -0xe38(%rbp),%rax
   14e95:	48 89 85 70 f4 ff ff 	mov    %rax,-0xb90(%rbp)
   14e9c:	48 8d 05 8f 81 00 00 	lea    0x818f(%rip),%rax        # 1d032 <g_2+0x2>
   14ea3:	48 89 85 78 f4 ff ff 	mov    %rax,-0xb88(%rbp)
   14eaa:	48 8d 85 c8 f1 ff ff 	lea    -0xe38(%rbp),%rax
   14eb1:	48 89 85 80 f4 ff ff 	mov    %rax,-0xb80(%rbp)
   14eb8:	48 8d 85 c8 f1 ff ff 	lea    -0xe38(%rbp),%rax
   14ebf:	48 89 85 88 f4 ff ff 	mov    %rax,-0xb78(%rbp)
   14ec6:	8b 05 24 82 00 00    	mov    0x8224(%rip),%eax        # 1d0f0 <g_448>
   14ecc:	83 c0 02             	add    $0x2,%eax
   14ecf:	48 98                	cltq   
   14ed1:	48 8d 14 85 00 00 00 	lea    0x0(,%rax,4),%rdx
   14ed8:	00 
   14ed9:	48 8d 05 70 81 00 00 	lea    0x8170(%rip),%rax        # 1d050 <g_29>
   14ee0:	8b 04 02             	mov    (%rdx,%rax,1),%eax
   14ee3:	89 85 a8 f1 ff ff    	mov    %eax,-0xe58(%rbp)
   14ee9:	0f b7 05 a8 c4 00 00 	movzwl 0xc4a8(%rip),%eax        # 21398 <g_101>
   14ef0:	0f b7 d8             	movzwl %ax,%ebx
   14ef3:	44 8b a5 5c f2 ff ff 	mov    -0xda4(%rbp),%r12d
   14efa:	0f b6 05 40 81 00 00 	movzbl 0x8140(%rip),%eax        # 1d041 <g_2+0x11>
   14f01:	44 0f b6 e8          	movzbl %al,%r13d
   14f05:	0f b7 05 04 82 00 00 	movzwl 0x8204(%rip),%eax        # 1d110 <g_697>
   14f0c:	44 0f be f0          	movsbl %al,%r14d
   14f10:	8b 85 5c f2 ff ff    	mov    -0xda4(%rbp),%eax
   14f16:	44 0f b6 f8          	movzbl %al,%r15d
   14f1a:	8b 05 38 81 00 00    	mov    0x8138(%rip),%eax        # 1d058 <g_29+0x8>
   14f20:	48 63 d0             	movslq %eax,%rdx
   14f23:	48 8b 05 be aa 00 00 	mov    0xaabe(%rip),%rax        # 1f9e8 <g_184>
   14f2a:	48 8b 00             	mov    (%rax),%rax
   14f2d:	48 89 d6             	mov    %rdx,%rsi
   14f30:	48 89 c7             	mov    %rax,%rdi
   14f33:	e8 7c 5a ff ff       	callq  a9b4 <safe_mod_func_int64_t_s_s>
   14f38:	83 c8 59             	or     $0x59,%eax
   14f3b:	0f be c0             	movsbl %al,%eax
   14f3e:	be 07 00 00 00       	mov    $0x7,%esi
   14f43:	89 c7                	mov    %eax,%edi
   14f45:	e8 eb 53 ff ff       	callq  a335 <safe_rshift_func_int8_t_s_s>
   14f4a:	0f b6 c0             	movzbl %al,%eax
   14f4d:	44 89 fe             	mov    %r15d,%esi
   14f50:	89 c7                	mov    %eax,%edi
   14f52:	e8 3c 5c ff ff       	callq  ab93 <safe_mul_func_uint8_t_u_u>
   14f57:	0f be c0             	movsbl %al,%eax
   14f5a:	44 89 f6             	mov    %r14d,%esi
   14f5d:	89 c7                	mov    %eax,%edi
   14f5f:	e8 ae 52 ff ff       	callq  a212 <safe_mul_func_int8_t_s_s>
   14f64:	48 0f be c0          	movsbq %al,%rax
   14f68:	be 06 00 00 00       	mov    $0x6,%esi
   14f6d:	48 89 c7             	mov    %rax,%rdi
   14f70:	e8 b9 60 ff ff       	callq  b02e <safe_add_func_uint64_t_u_u>
   14f75:	0f bf 95 c0 f1 ff ff 	movswl -0xe40(%rbp),%edx
   14f7c:	8b 85 ac f1 ff ff    	mov    -0xe54(%rbp),%eax
   14f82:	39 c2                	cmp    %eax,%edx
   14f84:	0f 94 c0             	sete   %al
   14f87:	88 05 4f 81 00 00    	mov    %al,0x814f(%rip)        # 1d0dc <g_224>
   14f8d:	0f b6 05 48 81 00 00 	movzbl 0x8148(%rip),%eax        # 1d0dc <g_224>
   14f94:	0f b6 c0             	movzbl %al,%eax
   14f97:	44 89 ee             	mov    %r13d,%esi
   14f9a:	89 c7                	mov    %eax,%edi
   14f9c:	e8 1d 5d ff ff       	callq  acbe <safe_rshift_func_uint8_t_u_u>
   14fa1:	0f b6 c0             	movzbl %al,%eax
   14fa4:	89 c7                	mov    %eax,%edi
   14fa6:	e8 eb 55 ff ff       	callq  a596 <safe_unary_minus_func_int32_t_s>
   14fab:	0f be c0             	movsbl %al,%eax
   14fae:	be 9c ff ff ff       	mov    $0xffffff9c,%esi
   14fb3:	89 c7                	mov    %eax,%edi
   14fb5:	e8 58 52 ff ff       	callq  a212 <safe_mul_func_int8_t_s_s>
   14fba:	c6 05 75 80 00 00 00 	movb   $0x0,0x8075(%rip)        # 1d036 <g_2+0x6>
   14fc1:	0f b6 05 6e 80 00 00 	movzbl 0x806e(%rip),%eax        # 1d036 <g_2+0x6>
   14fc8:	89 c2                	mov    %eax,%edx
   14fca:	48 8b 05 e7 a9 00 00 	mov    0xa9e7(%rip),%rax        # 1f9b8 <g_72>
   14fd1:	0f b6 00             	movzbl (%rax),%eax
   14fd4:	31 d0                	xor    %edx,%eax
   14fd6:	0f be c0             	movsbl %al,%eax
   14fd9:	be 07 00 00 00       	mov    $0x7,%esi
   14fde:	89 c7                	mov    %eax,%edi
   14fe0:	e8 bc 52 ff ff       	callq  a2a1 <safe_lshift_func_int8_t_s_s>
   14fe5:	0f be c0             	movsbl %al,%eax
   14fe8:	be 03 00 00 00       	mov    $0x3,%esi
   14fed:	89 c7                	mov    %eax,%edi
   14fef:	e8 36 55 ff ff       	callq  a52a <safe_rshift_func_int16_t_s_s>
   14ff4:	66 3d d7 38          	cmp    $0x38d7,%ax
   14ff8:	0f 9e c0             	setle  %al
   14ffb:	0f b6 c0             	movzbl %al,%eax
   14ffe:	be 0b 00 00 00       	mov    $0xb,%esi
   15003:	89 c7                	mov    %eax,%edi
   15005:	e8 88 54 ff ff       	callq  a492 <safe_lshift_func_int16_t_s_s>
   1500a:	0f bf d0             	movswl %ax,%edx
   1500d:	8b 85 ac f1 ff ff    	mov    -0xe54(%rbp),%eax
   15013:	39 c2                	cmp    %eax,%edx
   15015:	0f 95 c0             	setne  %al
   15018:	88 85 52 f2 ff ff    	mov    %al,-0xdae(%rbp)
   1501e:	0f b6 85 52 f2 ff ff 	movzbl -0xdae(%rbp),%eax
   15025:	0f b6 d0             	movzbl %al,%edx
   15028:	8b 85 ac f1 ff ff    	mov    -0xe54(%rbp),%eax
   1502e:	39 c2                	cmp    %eax,%edx
   15030:	0f 94 c0             	sete   %al
   15033:	0f b6 d0             	movzbl %al,%edx
   15036:	8b 85 ac f1 ff ff    	mov    -0xe54(%rbp),%eax
   1503c:	39 c2                	cmp    %eax,%edx
   1503e:	0f 9c c0             	setl   %al
   15041:	0f b6 c0             	movzbl %al,%eax
   15044:	8b 95 d4 f1 ff ff    	mov    -0xe2c(%rbp),%edx
   1504a:	21 c2                	and    %eax,%edx
   1504c:	8b 85 c8 f1 ff ff    	mov    -0xe38(%rbp),%eax
   15052:	09 d0                	or     %edx,%eax
   15054:	0f b7 c0             	movzwl %ax,%eax
   15057:	44 89 e6             	mov    %r12d,%esi
   1505a:	89 c7                	mov    %eax,%edi
   1505c:	e8 e7 5d ff ff       	callq  ae48 <safe_rshift_func_uint16_t_u_s>
   15061:	0f b7 d0             	movzwl %ax,%edx
   15064:	8b 85 ac f1 ff ff    	mov    -0xe54(%rbp),%eax
   1506a:	39 c2                	cmp    %eax,%edx
   1506c:	74 07                	je     15075 <func_60+0x14be>
   1506e:	ba 01 00 00 00       	mov    $0x1,%edx
   15073:	eb 05                	jmp    1507a <func_60+0x14c3>
   15075:	ba 00 00 00 00       	mov    $0x0,%edx
   1507a:	8b 85 ac f1 ff ff    	mov    -0xe54(%rbp),%eax
   15080:	39 c2                	cmp    %eax,%edx
   15082:	0f 9f c0             	setg   %al
   15085:	0f b6 c0             	movzbl %al,%eax
   15088:	89 c6                	mov    %eax,%esi
   1508a:	bf 01 00 00 00       	mov    $0x1,%edi
   1508f:	e8 61 53 ff ff       	callq  a3f5 <safe_mul_func_int16_t_s_s>
   15094:	66 83 f8 ff          	cmp    $0xffff,%ax
   15098:	0f 94 c0             	sete   %al
   1509b:	0f b6 c0             	movzbl %al,%eax
   1509e:	8b 95 e0 f1 ff ff    	mov    -0xe20(%rbp),%edx
   150a4:	21 d0                	and    %edx,%eax
   150a6:	0f b7 c0             	movzwl %ax,%eax
   150a9:	89 de                	mov    %ebx,%esi
   150ab:	89 c7                	mov    %eax,%edi
   150ad:	e8 0c 5d ff ff       	callq  adbe <safe_lshift_func_uint16_t_u_s>
   150b2:	0f b7 c0             	movzwl %ax,%eax
   150b5:	f7 d0                	not    %eax
   150b7:	39 85 a8 f1 ff ff    	cmp    %eax,-0xe58(%rbp)
   150bd:	0f 95 c1             	setne  %cl
   150c0:	48 8b 05 f1 c2 00 00 	mov    0xc2f1(%rip),%rax        # 213b8 <g_537>
   150c7:	48 8d 50 01          	lea    0x1(%rax),%rdx
   150cb:	0f b6 c1             	movzbl %cl,%eax
   150ce:	48 8d 0c 95 00 00 00 	lea    0x0(,%rdx,4),%rcx
   150d5:	00 
   150d6:	48 8d 15 73 7f 00 00 	lea    0x7f73(%rip),%rdx        # 1d050 <g_29>
   150dd:	89 04 11             	mov    %eax,(%rcx,%rdx,1)
   150e0:	48 83 bd 08 f2 ff ff 	cmpq   $0x0,-0xdf8(%rbp)
   150e7:	00 
   150e8:	0f 95 c0             	setne  %al
   150eb:	0f b6 c0             	movzbl %al,%eax
   150ee:	89 85 d8 f1 ff ff    	mov    %eax,-0xe28(%rbp)
   150f4:	83 bd e0 f1 ff ff 00 	cmpl   $0x0,-0xe20(%rbp)
   150fb:	0f 85 bd 01 00 00    	jne    152be <func_60+0x1707>
   15101:	48 8b 0d b0 c2 00 00 	mov    0xc2b0(%rip),%rcx        # 213b8 <g_537>
   15108:	48 8b 05 a9 c2 00 00 	mov    0xc2a9(%rip),%rax        # 213b8 <g_537>
   1510f:	48 8b 3d a2 c2 00 00 	mov    0xc2a2(%rip),%rdi        # 213b8 <g_537>
   15116:	48 8b b5 f0 f1 ff ff 	mov    -0xe10(%rbp),%rsi
   1511d:	48 89 c2             	mov    %rax,%rdx
   15120:	48 c1 e2 03          	shl    $0x3,%rdx
   15124:	48 29 c2             	sub    %rax,%rdx
   15127:	48 89 c8             	mov    %rcx,%rax
   1512a:	48 c1 e0 02          	shl    $0x2,%rax
   1512e:	48 01 c8             	add    %rcx,%rax
   15131:	48 c1 e0 02          	shl    $0x2,%rax
   15135:	48 01 c8             	add    %rcx,%rax
   15138:	48 01 d0             	add    %rdx,%rax
   1513b:	48 01 f8             	add    %rdi,%rax
   1513e:	48 8b 84 c5 90 f4 ff 	mov    -0xb70(%rbp,%rax,8),%rax
   15145:	ff 
   15146:	48 89 06             	mov    %rax,(%rsi)
   15149:	eb 25                	jmp    15170 <func_60+0x15b9>
   1514b:	c6 85 bd f1 ff ff fd 	movb   $0xfd,-0xe43(%rbp)
   15152:	80 bd bd f1 ff ff 00 	cmpb   $0x0,-0xe43(%rbp)
   15159:	0f 85 62 01 00 00    	jne    152c1 <func_60+0x170a>
   1515f:	48 8b 05 f2 a8 00 00 	mov    0xa8f2(%rip),%rax        # 1fa58 <g_741>
   15166:	48 8b 95 28 f2 ff ff 	mov    -0xdd8(%rbp),%rdx
   1516d:	48 89 10             	mov    %rdx,(%rax)
   15170:	48 8b 05 e1 a8 00 00 	mov    0xa8e1(%rip),%rax        # 1fa58 <g_741>
   15177:	48 8b 00             	mov    (%rax),%rax
   1517a:	48 89 85 10 f2 ff ff 	mov    %rax,-0xdf0(%rbp)
   15181:	8b 15 e5 7e 00 00    	mov    0x7ee5(%rip),%edx        # 1d06c <g_88>
   15187:	0f b7 05 24 7f 00 00 	movzwl 0x7f24(%rip),%eax        # 1d0b2 <g_196+0x12>
   1518e:	0f b6 c0             	movzbl %al,%eax
   15191:	89 d6                	mov    %edx,%esi
   15193:	89 c7                	mov    %eax,%edi
   15195:	e8 24 5b ff ff       	callq  acbe <safe_rshift_func_uint8_t_u_u>
   1519a:	84 c0                	test   %al,%al
   1519c:	74 0b                	je     151a9 <func_60+0x15f2>
   1519e:	8b 85 ac f1 ff ff    	mov    -0xe54(%rbp),%eax
   151a4:	e9 46 03 00 00       	jmpq   154ef <func_60+0x1938>
   151a9:	48 8d 05 68 7f 00 00 	lea    0x7f68(%rip),%rax        # 1d118 <g_756>
   151b0:	48 89 85 40 f2 ff ff 	mov    %rax,-0xdc0(%rbp)
   151b7:	c7 85 ec f1 ff ff b8 	movl   $0x1fde6bb8,-0xe14(%rbp)
   151be:	6b de 1f 
   151c1:	8b 85 ac f1 ff ff    	mov    -0xe54(%rbp),%eax
   151c7:	0f b7 d8             	movzwl %ax,%ebx
   151ca:	8b 95 ac f1 ff ff    	mov    -0xe54(%rbp),%edx
   151d0:	48 8b 05 79 a8 00 00 	mov    0xa879(%rip),%rax        # 1fa50 <g_545>
   151d7:	0f b7 00             	movzwl (%rax),%eax
   151da:	0f b7 c0             	movzwl %ax,%eax
   151dd:	89 d6                	mov    %edx,%esi
   151df:	89 c7                	mov    %eax,%edi
   151e1:	e8 62 5c ff ff       	callq  ae48 <safe_rshift_func_uint16_t_u_s>
   151e6:	0f b7 c0             	movzwl %ax,%eax
   151e9:	89 de                	mov    %ebx,%esi
   151eb:	89 c7                	mov    %eax,%edi
   151ed:	e8 0d 5b ff ff       	callq  acff <safe_add_func_uint16_t_u_u>
   151f2:	0f b7 d0             	movzwl %ax,%edx
   151f5:	8b 85 ac f1 ff ff    	mov    -0xe54(%rbp),%eax
   151fb:	31 c2                	xor    %eax,%edx
   151fd:	8b 85 ac f1 ff ff    	mov    -0xe54(%rbp),%eax
   15203:	89 d6                	mov    %edx,%esi
   15205:	89 c7                	mov    %eax,%edi
   15207:	e8 f3 54 ff ff       	callq  a6ff <safe_div_func_int32_t_s_s>
   1520c:	8b 95 ac f1 ff ff    	mov    -0xe54(%rbp),%edx
   15212:	09 c2                	or     %eax,%edx
   15214:	48 8b 85 40 f2 ff ff 	mov    -0xdc0(%rbp),%rax
   1521b:	48 bb 06 68 27 c5 c1 	movabs $0x41a4d3c1c5276806,%rbx
   15222:	d3 a4 41 
   15225:	48 89 18             	mov    %rbx,(%rax)
   15228:	48 8b 85 40 f2 ff ff 	mov    -0xdc0(%rbp),%rax
   1522f:	48 8b 00             	mov    (%rax),%rax
   15232:	89 85 ec f1 ff ff    	mov    %eax,-0xe14(%rbp)
   15238:	89 d0                	mov    %edx,%eax
   1523a:	0b 85 ec f1 ff ff    	or     -0xe14(%rbp),%eax
   15240:	85 c0                	test   %eax,%eax
   15242:	0f 94 c0             	sete   %al
   15245:	0f b6 c0             	movzbl %al,%eax
   15248:	be 01 00 00 00       	mov    $0x1,%esi
   1524d:	89 c7                	mov    %eax,%edi
   1524f:	e8 e9 5a ff ff       	callq  ad3d <safe_mul_func_uint16_t_u_u>
   15254:	0f b7 d0             	movzwl %ax,%edx
   15257:	48 8b 85 28 f2 ff ff 	mov    -0xdd8(%rbp),%rax
   1525e:	89 10                	mov    %edx,(%rax)
   15260:	66 c7 05 a9 7e 00 00 	movw   $0x0,0x7ea9(%rip)        # 1d112 <g_698>
   15267:	00 00 
   15269:	eb 23                	jmp    1528e <func_60+0x16d7>
   1526b:	48 8b 85 28 f2 ff ff 	mov    -0xdd8(%rbp),%rax
   15272:	8b 10                	mov    (%rax),%edx
   15274:	48 8b 85 28 f2 ff ff 	mov    -0xdd8(%rbp),%rax
   1527b:	89 10                	mov    %edx,(%rax)
   1527d:	0f b7 05 8e 7e 00 00 	movzwl 0x7e8e(%rip),%eax        # 1d112 <g_698>
   15284:	83 c0 01             	add    $0x1,%eax
   15287:	66 89 05 84 7e 00 00 	mov    %ax,0x7e84(%rip)        # 1d112 <g_698>
   1528e:	0f b7 05 7d 7e 00 00 	movzwl 0x7e7d(%rip),%eax        # 1d112 <g_698>
   15295:	66 83 f8 02          	cmp    $0x2,%ax
   15299:	7e d0                	jle    1526b <func_60+0x16b4>
   1529b:	0f b7 05 f8 c0 00 00 	movzwl 0xc0f8(%rip),%eax        # 2139a <g_231>
   152a2:	83 e8 01             	sub    $0x1,%eax
   152a5:	66 89 05 ee c0 00 00 	mov    %ax,0xc0ee(%rip)        # 2139a <g_231>
   152ac:	0f b7 05 e7 c0 00 00 	movzwl 0xc0e7(%rip),%eax        # 2139a <g_231>
   152b3:	66 85 c0             	test   %ax,%ax
   152b6:	0f 89 51 ee ff ff    	jns    1410d <func_60+0x556>
   152bc:	eb 04                	jmp    152c2 <func_60+0x170b>
   152be:	90                   	nop
   152bf:	eb 01                	jmp    152c2 <func_60+0x170b>
   152c1:	90                   	nop
   152c2:	0f b6 05 13 7e 00 00 	movzbl 0x7e13(%rip),%eax        # 1d0dc <g_224>
   152c9:	89 c1                	mov    %eax,%ecx
   152cb:	48 8b 85 78 f2 ff ff 	mov    -0xd88(%rbp),%rax
   152d2:	48 8d 15 66 7d 00 00 	lea    0x7d66(%rip),%rdx        # 1d03f <g_2+0xf>
   152d9:	48 39 d0             	cmp    %rdx,%rax
   152dc:	0f 95 c0             	setne  %al
   152df:	31 c8                	xor    %ecx,%eax
   152e1:	88 05 f5 7d 00 00    	mov    %al,0x7df5(%rip)        # 1d0dc <g_224>
   152e7:	0f b6 05 ee 7d 00 00 	movzbl 0x7dee(%rip),%eax        # 1d0dc <g_224>
   152ee:	0f be c8             	movsbl %al,%ecx
   152f1:	48 8b 15 c0 c0 00 00 	mov    0xc0c0(%rip),%rdx        # 213b8 <g_537>
   152f8:	8b 05 f2 7d 00 00    	mov    0x7df2(%rip),%eax        # 1d0f0 <g_448>
   152fe:	83 c0 06             	add    $0x6,%eax
   15301:	48 63 f0             	movslq %eax,%rsi
   15304:	48 89 d0             	mov    %rdx,%rax
   15307:	48 c1 e0 02          	shl    $0x2,%rax
   1530b:	48 01 d0             	add    %rdx,%rax
   1530e:	48 01 c0             	add    %rax,%rax
   15311:	48 01 f0             	add    %rsi,%rax
   15314:	48 8d 14 00          	lea    (%rax,%rax,1),%rdx
   15318:	48 8d 05 81 7d 00 00 	lea    0x7d81(%rip),%rax        # 1d0a0 <g_196>
   1531f:	0f b7 04 02          	movzwl (%rdx,%rax,1),%eax
   15323:	83 c8 01             	or     $0x1,%eax
   15326:	0f be c0             	movsbl %al,%eax
   15329:	89 ce                	mov    %ecx,%esi
   1532b:	89 c7                	mov    %eax,%edi
   1532d:	e8 c0 4e ff ff       	callq  a1f2 <safe_sub_func_int8_t_s_s>
   15332:	84 c0                	test   %al,%al
   15334:	0f 95 c0             	setne  %al
   15337:	0f b6 d0             	movzbl %al,%edx
   1533a:	8b 85 ac f1 ff ff    	mov    -0xe54(%rbp),%eax
   15340:	85 c0                	test   %eax,%eax
   15342:	0f 95 c0             	setne  %al
   15345:	0f b6 c8             	movzbl %al,%ecx
   15348:	8b 85 c4 f1 ff ff    	mov    -0xe3c(%rbp),%eax
   1534e:	39 c1                	cmp    %eax,%ecx
   15350:	0f 9e c0             	setle  %al
   15353:	0f b6 c0             	movzbl %al,%eax
   15356:	31 d0                	xor    %edx,%eax
   15358:	83 f8 ff             	cmp    $0xffffffff,%eax
   1535b:	0f 9c c0             	setl   %al
   1535e:	0f b6 c0             	movzbl %al,%eax
   15361:	89 c6                	mov    %eax,%esi
   15363:	bf 00 00 00 00       	mov    $0x0,%edi
   15368:	e8 b2 59 ff ff       	callq  ad1f <safe_sub_func_uint16_t_u_u>
   1536d:	66 85 c0             	test   %ax,%ax
   15370:	74 07                	je     15379 <func_60+0x17c2>
   15372:	b8 01 00 00 00       	mov    $0x1,%eax
   15377:	eb 05                	jmp    1537e <func_60+0x17c7>
   15379:	b8 00 00 00 00       	mov    $0x0,%eax
   1537e:	89 85 d8 f1 ff ff    	mov    %eax,-0xe28(%rbp)
   15384:	c7 85 d4 f1 ff ff 00 	movl   $0x0,-0xe2c(%rbp)
   1538b:	00 00 00 
   1538e:	e9 de 00 00 00       	jmpq   15471 <func_60+0x18ba>
   15393:	c7 05 3f 7d 00 00 00 	movl   $0x0,0x7d3f(%rip)        # 1d0dc <g_224>
   1539a:	00 00 00 
   1539d:	eb 20                	jmp    153bf <func_60+0x1808>
   1539f:	8b 85 c4 f1 ff ff    	mov    -0xe3c(%rbp),%eax
   153a5:	35 13 71 5b 02       	xor    $0x25b7113,%eax
   153aa:	89 85 c4 f1 ff ff    	mov    %eax,-0xe3c(%rbp)
   153b0:	8b 05 26 7d 00 00    	mov    0x7d26(%rip),%eax        # 1d0dc <g_224>
   153b6:	83 c0 01             	add    $0x1,%eax
   153b9:	89 05 1d 7d 00 00    	mov    %eax,0x7d1d(%rip)        # 1d0dc <g_224>
   153bf:	8b 05 17 7d 00 00    	mov    0x7d17(%rip),%eax        # 1d0dc <g_224>
   153c5:	83 f8 02             	cmp    $0x2,%eax
   153c8:	7e d5                	jle    1539f <func_60+0x17e8>
   153ca:	66 c7 05 c7 bf 00 00 	movw   $0x0,0xbfc7(%rip)        # 2139a <g_231>
   153d1:	00 00 
   153d3:	90                   	nop
   153d4:	0f b7 05 bf bf 00 00 	movzwl 0xbfbf(%rip),%eax        # 2139a <g_231>
   153db:	66 85 c0             	test   %ax,%ax
   153de:	78 26                	js     15406 <func_60+0x184f>
   153e0:	66 c7 85 c2 f1 ff ff 	movw   $0x5849,-0xe3e(%rbp)
   153e7:	49 58 
   153e9:	48 8b 05 70 a6 00 00 	mov    0xa670(%rip),%rax        # 1fa60 <g_764>
   153f0:	48 8d 95 ac f1 ff ff 	lea    -0xe54(%rbp),%rdx
   153f7:	48 89 10             	mov    %rdx,(%rax)
   153fa:	0f b7 85 c2 f1 ff ff 	movzwl -0xe3e(%rbp),%eax
   15401:	e9 e9 00 00 00       	jmpq   154ef <func_60+0x1938>
   15406:	c7 05 68 7c 00 00 00 	movl   $0x0,0x7c68(%rip)        # 1d078 <g_143>
   1540d:	00 00 00 
   15410:	eb 43                	jmp    15455 <func_60+0x189e>
   15412:	48 8d 85 c4 f1 ff ff 	lea    -0xe3c(%rbp),%rax
   15419:	48 89 85 48 f2 ff ff 	mov    %rax,-0xdb8(%rbp)
   15420:	8b 85 ac f1 ff ff    	mov    -0xe54(%rbp),%eax
   15426:	85 c0                	test   %eax,%eax
   15428:	75 38                	jne    15462 <func_60+0x18ab>
   1542a:	48 8b 05 2f a6 00 00 	mov    0xa62f(%rip),%rax        # 1fa60 <g_764>
   15431:	48 8b 00             	mov    (%rax),%rax
   15434:	48 89 85 48 f2 ff ff 	mov    %rax,-0xdb8(%rbp)
   1543b:	48 8b 05 de a5 00 00 	mov    0xa5de(%rip),%rax        # 1fa20 <g_290>
   15442:	8b 00                	mov    (%rax),%eax
   15444:	85 c0                	test   %eax,%eax
   15446:	8b 05 2c 7c 00 00    	mov    0x7c2c(%rip),%eax        # 1d078 <g_143>
   1544c:	83 c0 01             	add    $0x1,%eax
   1544f:	89 05 23 7c 00 00    	mov    %eax,0x7c23(%rip)        # 1d078 <g_143>
   15455:	8b 05 1d 7c 00 00    	mov    0x7c1d(%rip),%eax        # 1d078 <g_143>
   1545b:	83 f8 02             	cmp    $0x2,%eax
   1545e:	7e b2                	jle    15412 <func_60+0x185b>
   15460:	eb 01                	jmp    15463 <func_60+0x18ac>
   15462:	90                   	nop
   15463:	83 bd d8 f1 ff ff 00 	cmpl   $0x0,-0xe28(%rbp)
   1546a:	83 85 d4 f1 ff ff 01 	addl   $0x1,-0xe2c(%rbp)
   15471:	83 bd d4 f1 ff ff 02 	cmpl   $0x2,-0xe2c(%rbp)
   15478:	0f 86 15 ff ff ff    	jbe    15393 <func_60+0x17dc>
   1547e:	66 83 bd c0 f1 ff ff 	cmpw   $0x0,-0xe40(%rbp)
   15485:	00 
   15486:	79 26                	jns    154ae <func_60+0x18f7>
   15488:	48 8b 85 20 f2 ff ff 	mov    -0xde0(%rbp),%rax
   1548f:	48 c7 00 00 00 00 00 	movq   $0x0,(%rax)
   15496:	48 8b 85 20 f2 ff ff 	mov    -0xde0(%rbp),%rax
   1549d:	48 8b 10             	mov    (%rax),%rdx
   154a0:	0f b6 05 41 7c 00 00 	movzbl 0x7c41(%rip),%eax        # 1d0e8 <g_443>
   154a7:	48 0f be c0          	movsbq %al,%rax
   154ab:	48 39 c2             	cmp    %rax,%rdx
   154ae:	48 8b 05 03 a5 00 00 	mov    0xa503(%rip),%rax        # 1f9b8 <g_72>
   154b5:	0f b6 10             	movzbl (%rax),%edx
   154b8:	48 8b 05 f9 a4 00 00 	mov    0xa4f9(%rip),%rax        # 1f9b8 <g_72>
   154bf:	83 e2 3b             	and    $0x3b,%edx
   154c2:	88 10                	mov    %dl,(%rax)
   154c4:	8b 85 ac f1 ff ff    	mov    -0xe54(%rbp),%eax
   154ca:	eb 23                	jmp    154ef <func_60+0x1938>
   154cc:	8b 05 1e 7c 00 00    	mov    0x7c1e(%rip),%eax        # 1d0f0 <g_448>
   154d2:	83 e8 01             	sub    $0x1,%eax
   154d5:	89 05 15 7c 00 00    	mov    %eax,0x7c15(%rip)        # 1d0f0 <g_448>
   154db:	8b 05 0f 7c 00 00    	mov    0x7c0f(%rip),%eax        # 1d0f0 <g_448>
   154e1:	85 c0                	test   %eax,%eax
   154e3:	0f 89 47 eb ff ff    	jns    14030 <func_60+0x479>
   154e9:	8b 85 c8 f1 ff ff    	mov    -0xe38(%rbp),%eax
   154ef:	48 8b 5d c8          	mov    -0x38(%rbp),%rbx
   154f3:	64 48 33 1c 25 28 00 	xor    %fs:0x28,%rbx
   154fa:	00 00 
   154fc:	74 05                	je     15503 <func_60+0x194c>
   154fe:	e8 6d 4b ff ff       	callq  a070 <__stack_chk_fail@plt>
   15503:	48 81 c4 38 0e 00 00 	add    $0xe38,%rsp
   1550a:	5b                   	pop    %rbx
   1550b:	41 5c                	pop    %r12
   1550d:	41 5d                	pop    %r13
   1550f:	41 5e                	pop    %r14
   15511:	41 5f                	pop    %r15
   15513:	5d                   	pop    %rbp
   15514:	c3                   	retq   

0000000000015515 <func_62>:
   15515:	f3 0f 1e fa          	endbr64 
   15519:	55                   	push   %rbp
   1551a:	48 89 e5             	mov    %rsp,%rbp
   1551d:	41 56                	push   %r14
   1551f:	41 55                	push   %r13
   15521:	41 54                	push   %r12
   15523:	53                   	push   %rbx
   15524:	48 81 ec 20 0a 00 00 	sub    $0xa20,%rsp
   1552b:	89 f8                	mov    %edi,%eax
   1552d:	66 89 85 cc f5 ff ff 	mov    %ax,-0xa34(%rbp)
   15534:	64 48 8b 04 25 28 00 	mov    %fs:0x28,%rax
   1553b:	00 00 
   1553d:	48 89 45 d8          	mov    %rax,-0x28(%rbp)
   15541:	31 c0                	xor    %eax,%eax
   15543:	48 8d 85 40 f9 ff ff 	lea    -0x6c0(%rbp),%rax
   1554a:	48 8d 15 6f 96 00 00 	lea    0x966f(%rip),%rdx        # 1ebc0 <g_2043+0x1580>
   15551:	b9 d2 00 00 00       	mov    $0xd2,%ecx
   15556:	48 89 c7             	mov    %rax,%rdi
   15559:	48 89 d6             	mov    %rdx,%rsi
   1555c:	f3 48 a5             	rep movsq %ds:(%rsi),%es:(%rdi)
   1555f:	48 c7 85 68 f6 ff ff 	movq   $0x0,-0x998(%rbp)
   15566:	00 00 00 00 
   1556a:	48 8d 05 d7 7a 00 00 	lea    0x7ad7(%rip),%rax        # 1d048 <g_13>
   15571:	48 89 85 70 f6 ff ff 	mov    %rax,-0x990(%rbp)
   15578:	c7 85 0c f6 ff ff 11 	movl   $0xc4c67911,-0x9f4(%rbp)
   1557f:	79 c6 c4 
   15582:	48 c7 85 78 f6 ff ff 	movq   $0x0,-0x988(%rbp)
   15589:	00 00 00 00 
   1558d:	c7 85 e8 f5 ff ff f8 	movl   $0xfffffff8,-0xa18(%rbp)
   15594:	ff ff ff 
   15597:	48 8b 85 70 fc ff ff 	mov    -0x390(%rbp),%rax
   1559e:	48 85 c0             	test   %rax,%rax
   155a1:	0f 94 c0             	sete   %al
   155a4:	0f b6 c0             	movzbl %al,%eax
   155a7:	48 89 85 68 f6 ff ff 	mov    %rax,-0x998(%rbp)
   155ae:	48 8b 95 70 fc ff ff 	mov    -0x390(%rbp),%rdx
   155b5:	48 8b 05 14 a4 00 00 	mov    0xa414(%rip),%rax        # 1f9d0 <g_71+0x10>
   155bc:	48 8b 1d 85 a4 00 00 	mov    0xa485(%rip),%rbx        # 1fa48 <g_439>
   155c3:	48 8b 8d 70 f6 ff ff 	mov    -0x990(%rbp),%rcx
   155ca:	48 89 ce             	mov    %rcx,%rsi
   155cd:	48 89 c7             	mov    %rax,%rdi
   155d0:	e8 14 0a 00 00       	callq  15fe9 <func_67>
   155d5:	48 89 03             	mov    %rax,(%rbx)
   155d8:	66 c7 85 cc f5 ff ff 	movw   $0x0,-0xa34(%rbp)
   155df:	00 00 
   155e1:	e9 ca 09 00 00       	jmpq   15fb0 <func_62+0xa9b>
   155e6:	48 8d 05 ad bd 00 00 	lea    0xbdad(%rip),%rax        # 2139a <g_231>
   155ed:	48 89 85 58 f6 ff ff 	mov    %rax,-0x9a8(%rbp)
   155f4:	c7 85 ec f5 ff ff b2 	movl   $0xda03a4b2,-0xa14(%rbp)
   155fb:	a4 03 da 
   155fe:	c7 85 10 f6 ff ff f2 	movl   $0x215c14f2,-0x9f0(%rbp)
   15605:	14 5c 21 
   15608:	c7 85 f0 f5 ff ff 9f 	movl   $0x8a7fce9f,-0xa10(%rbp)
   1560f:	ce 7f 8a 
   15612:	c7 85 14 f6 ff ff 48 	movl   $0x77d48a48,-0x9ec(%rbp)
   15619:	8a d4 77 
   1561c:	c7 85 e0 f5 ff ff ff 	movl   $0xffffffff,-0xa20(%rbp)
   15623:	ff ff ff 
   15626:	c6 85 db f5 ff ff 02 	movb   $0x2,-0xa25(%rbp)
   1562d:	c7 85 f4 f5 ff ff 00 	movl   $0x0,-0xa0c(%rbp)
   15634:	00 00 00 
   15637:	eb 7d                	jmp    156b6 <func_62+0x1a1>
   15639:	c7 85 f8 f5 ff ff 00 	movl   $0x0,-0xa08(%rbp)
   15640:	00 00 00 
   15643:	eb 61                	jmp    156a6 <func_62+0x191>
   15645:	c7 85 fc f5 ff ff 00 	movl   $0x0,-0xa04(%rbp)
   1564c:	00 00 00 
   1564f:	eb 45                	jmp    15696 <func_62+0x181>
   15651:	8b 85 fc f5 ff ff    	mov    -0xa04(%rbp),%eax
   15657:	48 63 f0             	movslq %eax,%rsi
   1565a:	8b 85 f4 f5 ff ff    	mov    -0xa0c(%rbp),%eax
   15660:	48 98                	cltq   
   15662:	8b 95 f8 f5 ff ff    	mov    -0xa08(%rbp),%edx
   15668:	48 63 ca             	movslq %edx,%rcx
   1566b:	48 89 c2             	mov    %rax,%rdx
   1566e:	48 c1 e2 04          	shl    $0x4,%rdx
   15672:	48 29 c2             	sub    %rax,%rdx
   15675:	48 89 c8             	mov    %rcx,%rax
   15678:	48 01 c0             	add    %rax,%rax
   1567b:	48 01 c8             	add    %rcx,%rax
   1567e:	48 01 d0             	add    %rdx,%rax
   15681:	48 01 f0             	add    %rsi,%rax
   15684:	c7 84 85 90 f7 ff ff 	movl   $0x2e998c8f,-0x870(%rbp,%rax,4)
   1568b:	8f 8c 99 2e 
   1568f:	83 85 fc f5 ff ff 01 	addl   $0x1,-0xa04(%rbp)
   15696:	83 bd fc f5 ff ff 02 	cmpl   $0x2,-0xa04(%rbp)
   1569d:	7e b2                	jle    15651 <func_62+0x13c>
   1569f:	83 85 f8 f5 ff ff 01 	addl   $0x1,-0xa08(%rbp)
   156a6:	83 bd f8 f5 ff ff 04 	cmpl   $0x4,-0xa08(%rbp)
   156ad:	7e 96                	jle    15645 <func_62+0x130>
   156af:	83 85 f4 f5 ff ff 01 	addl   $0x1,-0xa0c(%rbp)
   156b6:	83 bd f4 f5 ff ff 06 	cmpl   $0x6,-0xa0c(%rbp)
   156bd:	0f 8e 76 ff ff ff    	jle    15639 <func_62+0x124>
   156c3:	c7 85 f4 f5 ff ff 00 	movl   $0x0,-0xa0c(%rbp)
   156ca:	00 00 00 
   156cd:	eb 25                	jmp    156f4 <func_62+0x1df>
   156cf:	8b 85 f4 f5 ff ff    	mov    -0xa0c(%rbp),%eax
   156d5:	48 98                	cltq   
   156d7:	48 8d 95 40 f9 ff ff 	lea    -0x6c0(%rbp),%rdx
   156de:	48 81 c2 60 05 00 00 	add    $0x560,%rdx
   156e5:	48 89 94 c5 f0 f6 ff 	mov    %rdx,-0x910(%rbp,%rax,8)
   156ec:	ff 
   156ed:	83 85 f4 f5 ff ff 01 	addl   $0x1,-0xa0c(%rbp)
   156f4:	83 bd f4 f5 ff ff 02 	cmpl   $0x2,-0xa0c(%rbp)
   156fb:	7e d2                	jle    156cf <func_62+0x1ba>
   156fd:	c7 05 61 79 00 00 01 	movl   $0x1,0x7961(%rip)        # 1d068 <g_76>
   15704:	00 00 00 
   15707:	eb 2d                	jmp    15736 <func_62+0x221>
   15709:	8b 05 59 79 00 00    	mov    0x7959(%rip),%eax        # 1d068 <g_76>
   1570f:	48 98                	cltq   
   15711:	48 8d 14 85 00 00 00 	lea    0x0(,%rax,4),%rdx
   15718:	00 
   15719:	48 8d 05 30 79 00 00 	lea    0x7930(%rip),%rax        # 1d050 <g_29>
   15720:	8b 04 02             	mov    (%rdx,%rax,1),%eax
   15723:	85 c0                	test   %eax,%eax
   15725:	75 1c                	jne    15743 <func_62+0x22e>
   15727:	8b 05 3b 79 00 00    	mov    0x793b(%rip),%eax        # 1d068 <g_76>
   1572d:	83 c0 01             	add    $0x1,%eax
   15730:	89 05 32 79 00 00    	mov    %eax,0x7932(%rip)        # 1d068 <g_76>
   15736:	8b 05 2c 79 00 00    	mov    0x792c(%rip),%eax        # 1d068 <g_76>
   1573c:	83 f8 05             	cmp    $0x5,%eax
   1573f:	7e c8                	jle    15709 <func_62+0x1f4>
   15741:	eb 01                	jmp    15744 <func_62+0x22f>
   15743:	90                   	nop
   15744:	48 c7 85 68 f6 ff ff 	movq   $0x0,-0x998(%rbp)
   1574b:	00 00 00 00 
   1574f:	48 83 bd 68 f6 ff ff 	cmpq   $0x2,-0x998(%rbp)
   15756:	02 
   15757:	0f 87 11 08 00 00    	ja     15f6e <func_62+0xa59>
   1575d:	48 8d 05 36 bc 00 00 	lea    0xbc36(%rip),%rax        # 2139a <g_231>
   15764:	48 89 85 80 f6 ff ff 	mov    %rax,-0x980(%rbp)
   1576b:	c7 85 18 f6 ff ff 92 	movl   $0x5d105892,-0x9e8(%rbp)
   15772:	58 10 5d 
   15775:	c7 85 e0 f6 ff ff 00 	movl   $0x0,-0x920(%rbp)
   1577c:	00 00 00 
   1577f:	c7 85 e4 f6 ff ff 00 	movl   $0x0,-0x91c(%rbp)
   15786:	00 00 00 
   15789:	c7 85 e8 f6 ff ff 00 	movl   $0x0,-0x918(%rbp)
   15790:	00 00 00 
   15793:	c7 85 ec f6 ff ff 00 	movl   $0x0,-0x914(%rbp)
   1579a:	00 00 00 
   1579d:	c7 85 00 f6 ff ff 00 	movl   $0x0,-0xa00(%rbp)
   157a4:	00 00 00 
   157a7:	eb 1a                	jmp    157c3 <func_62+0x2ae>
   157a9:	8b 85 00 f6 ff ff    	mov    -0xa00(%rbp),%eax
   157af:	48 98                	cltq   
   157b1:	c7 84 85 10 f7 ff ff 	movl   $0x7,-0x8f0(%rbp,%rax,4)
   157b8:	07 00 00 00 
   157bc:	83 85 00 f6 ff ff 01 	addl   $0x1,-0xa00(%rbp)
   157c3:	83 bd 00 f6 ff ff 08 	cmpl   $0x8,-0xa00(%rbp)
   157ca:	7e dd                	jle    157a9 <func_62+0x294>
   157cc:	c7 05 a6 78 00 00 00 	movl   $0x0,0x78a6(%rip)        # 1d07c <g_153>
   157d3:	00 00 00 
   157d6:	e9 67 07 00 00       	jmpq   15f42 <func_62+0xa2d>
   157db:	c6 85 dc f5 ff ff 01 	movb   $0x1,-0xa24(%rbp)
   157e2:	c7 85 1c f6 ff ff 7c 	movl   $0x26780b7c,-0x9e4(%rbp)
   157e9:	0b 78 26 
   157ec:	c6 85 dd f5 ff ff 7a 	movb   $0x7a,-0xa23(%rbp)
   157f3:	c7 85 04 f6 ff ff 00 	movl   $0x0,-0x9fc(%rbp)
   157fa:	00 00 00 
   157fd:	eb 1a                	jmp    15819 <func_62+0x304>
   157ff:	8b 85 04 f6 ff ff    	mov    -0x9fc(%rbp),%eax
   15805:	48 98                	cltq   
   15807:	c7 84 85 d8 f6 ff ff 	movl   $0xeaf15581,-0x928(%rbp,%rax,4)
   1580e:	81 55 f1 ea 
   15812:	83 85 04 f6 ff ff 01 	addl   $0x1,-0x9fc(%rbp)
   15819:	83 bd 04 f6 ff ff 01 	cmpl   $0x1,-0x9fc(%rbp)
   15820:	7e dd                	jle    157ff <func_62+0x2ea>
   15822:	c6 05 b3 78 00 00 00 	movb   $0x0,0x78b3(%rip)        # 1d0dc <g_224>
   15829:	e9 8e 05 00 00       	jmpq   15dbc <func_62+0x8a7>
   1582e:	48 8d 05 3b 78 00 00 	lea    0x783b(%rip),%rax        # 1d070 <g_96>
   15835:	48 89 85 88 f6 ff ff 	mov    %rax,-0x978(%rbp)
   1583c:	48 c7 85 90 f6 ff ff 	movq   $0x0,-0x970(%rbp)
   15843:	00 00 00 00 
   15847:	48 8d 85 58 f6 ff ff 	lea    -0x9a8(%rbp),%rax
   1584e:	48 89 85 98 f6 ff ff 	mov    %rax,-0x968(%rbp)
   15855:	48 8d 05 3e bb 00 00 	lea    0xbb3e(%rip),%rax        # 2139a <g_231>
   1585c:	48 89 85 40 f7 ff ff 	mov    %rax,-0x8c0(%rbp)
   15863:	48 8d 05 30 bb 00 00 	lea    0xbb30(%rip),%rax        # 2139a <g_231>
   1586a:	48 89 85 48 f7 ff ff 	mov    %rax,-0x8b8(%rbp)
   15871:	48 8d 05 22 bb 00 00 	lea    0xbb22(%rip),%rax        # 2139a <g_231>
   15878:	48 89 85 50 f7 ff ff 	mov    %rax,-0x8b0(%rbp)
   1587f:	48 8d 05 14 bb 00 00 	lea    0xbb14(%rip),%rax        # 2139a <g_231>
   15886:	48 89 85 58 f7 ff ff 	mov    %rax,-0x8a8(%rbp)
   1588d:	48 8d 05 06 bb 00 00 	lea    0xbb06(%rip),%rax        # 2139a <g_231>
   15894:	48 89 85 60 f7 ff ff 	mov    %rax,-0x8a0(%rbp)
   1589b:	48 8d 05 f8 ba 00 00 	lea    0xbaf8(%rip),%rax        # 2139a <g_231>
   158a2:	48 89 85 68 f7 ff ff 	mov    %rax,-0x898(%rbp)
   158a9:	48 8d 05 ea ba 00 00 	lea    0xbaea(%rip),%rax        # 2139a <g_231>
   158b0:	48 89 85 70 f7 ff ff 	mov    %rax,-0x890(%rbp)
   158b7:	48 8d 05 dc ba 00 00 	lea    0xbadc(%rip),%rax        # 2139a <g_231>
   158be:	48 89 85 78 f7 ff ff 	mov    %rax,-0x888(%rbp)
   158c5:	48 8d 05 ce ba 00 00 	lea    0xbace(%rip),%rax        # 2139a <g_231>
   158cc:	48 89 85 80 f7 ff ff 	mov    %rax,-0x880(%rbp)
   158d3:	48 8d 05 c0 ba 00 00 	lea    0xbac0(%rip),%rax        # 2139a <g_231>
   158da:	48 89 85 88 f7 ff ff 	mov    %rax,-0x878(%rbp)
   158e1:	c7 85 3c f6 ff ff 07 	movl   $0x7,-0x9c4(%rbp)
   158e8:	00 00 00 
   158eb:	c7 85 40 f6 ff ff fa 	movl   $0xfffffffa,-0x9c0(%rbp)
   158f2:	ff ff ff 
   158f5:	c7 85 44 f6 ff ff 82 	movl   $0xd63c6482,-0x9bc(%rbp)
   158fc:	64 3c d6 
   158ff:	c7 85 48 f6 ff ff 67 	movl   $0x96ec0867,-0x9b8(%rbp)
   15906:	08 ec 96 
   15909:	c7 85 4c f6 ff ff a1 	movl   $0x1891d9a1,-0x9b4(%rbp)
   15910:	d9 91 18 
   15913:	c7 85 50 f6 ff ff 17 	movl   $0xb25a9717,-0x9b0(%rbp)
   1591a:	97 5a b2 
   1591d:	c7 85 54 f6 ff ff ff 	movl   $0xffffffff,-0x9ac(%rbp)
   15924:	ff ff ff 
   15927:	48 b8 42 77 a8 5d cc 	movabs $0x4a262ccc5da87742,%rax
   1592e:	2c 26 4a 
   15931:	48 89 85 a0 f6 ff ff 	mov    %rax,-0x960(%rbp)
   15938:	48 c7 85 60 f6 ff ff 	movq   $0x1,-0x9a0(%rbp)
   1593f:	01 00 00 00 
   15943:	48 8d 05 96 77 00 00 	lea    0x7796(%rip),%rax        # 1d0e0 <g_394>
   1594a:	48 89 85 a8 f6 ff ff 	mov    %rax,-0x958(%rbp)
   15951:	c6 85 df f5 ff ff b4 	movb   $0xb4,-0xa21(%rbp)
   15958:	c7 85 08 f6 ff ff 00 	movl   $0x0,-0x9f8(%rbp)
   1595f:	00 00 00 
   15962:	eb 22                	jmp    15986 <func_62+0x471>
   15964:	8b 85 08 f6 ff ff    	mov    -0x9f8(%rbp),%eax
   1596a:	48 98                	cltq   
   1596c:	48 8d 95 40 f7 ff ff 	lea    -0x8c0(%rbp),%rdx
   15973:	48 83 c2 30          	add    $0x30,%rdx
   15977:	48 89 94 c5 d0 f6 ff 	mov    %rdx,-0x930(%rbp,%rax,8)
   1597e:	ff 
   1597f:	83 85 08 f6 ff ff 01 	addl   $0x1,-0x9f8(%rbp)
   15986:	83 bd 08 f6 ff ff 00 	cmpl   $0x0,-0x9f8(%rbp)
   1598d:	7e d5                	jle    15964 <func_62+0x44f>
   1598f:	48 8b 05 52 77 00 00 	mov    0x7752(%rip),%rax        # 1d0e8 <g_443>
   15996:	8b 05 e0 76 00 00    	mov    0x76e0(%rip),%eax        # 1d07c <g_153>
   1599c:	83 c0 01             	add    $0x1,%eax
   1599f:	48 98                	cltq   
   159a1:	48 8d 14 85 00 00 00 	lea    0x0(,%rax,4),%rdx
   159a8:	00 
   159a9:	48 8d 05 a0 76 00 00 	lea    0x76a0(%rip),%rax        # 1d050 <g_29>
   159b0:	8b 04 02             	mov    (%rdx,%rax,1),%eax
   159b3:	98                   	cwtl   
   159b4:	be 02 00 00 00       	mov    $0x2,%esi
   159b9:	89 c7                	mov    %eax,%edi
   159bb:	e8 21 4b ff ff       	callq  a4e1 <safe_lshift_func_int16_t_s_u>
   159c0:	80 8d dc f5 ff ff 02 	orb    $0x2,-0xa24(%rbp)
   159c7:	66 0f be 95 dc f5 ff 	movsbw -0xa24(%rbp),%dx
   159ce:	ff 
   159cf:	66 39 d0             	cmp    %dx,%ax
   159d2:	0f 9d c0             	setge  %al
   159d5:	0f b6 d8             	movzbl %al,%ebx
   159d8:	8b 05 9e 76 00 00    	mov    0x769e(%rip),%eax        # 1d07c <g_153>
   159de:	83 c0 01             	add    $0x1,%eax
   159e1:	48 98                	cltq   
   159e3:	48 8d 14 85 00 00 00 	lea    0x0(,%rax,4),%rdx
   159ea:	00 
   159eb:	48 8d 05 5e 76 00 00 	lea    0x765e(%rip),%rax        # 1d050 <g_29>
   159f2:	8b 04 02             	mov    (%rdx,%rax,1),%eax
   159f5:	41 89 c4             	mov    %eax,%r12d
   159f8:	be 01 00 00 00       	mov    $0x1,%esi
   159fd:	bf 00 00 00 00       	mov    $0x0,%edi
   15a02:	e8 ad 4f ff ff       	callq  a9b4 <safe_mod_func_int64_t_s_s>
   15a07:	89 c6                	mov    %eax,%esi
   15a09:	48 8b 85 88 f6 ff ff 	mov    -0x978(%rbp),%rax
   15a10:	48 8b 10             	mov    (%rax),%rdx
   15a13:	8b 05 d7 76 00 00    	mov    0x76d7(%rip),%eax        # 1d0f0 <g_448>
   15a19:	48 98                	cltq   
   15a1b:	48 21 c2             	and    %rax,%rdx
   15a1e:	48 8b 85 88 f6 ff ff 	mov    -0x978(%rbp),%rax
   15a25:	48 89 10             	mov    %rdx,(%rax)
   15a28:	48 8b 85 88 f6 ff ff 	mov    -0x978(%rbp),%rax
   15a2f:	48 8b 08             	mov    (%rax),%rcx
   15a32:	48 8b 95 58 f6 ff ff 	mov    -0x9a8(%rbp),%rdx
   15a39:	48 8b 85 98 f6 ff ff 	mov    -0x968(%rbp),%rax
   15a40:	48 89 10             	mov    %rdx,(%rax)
   15a43:	48 8b 85 98 f6 ff ff 	mov    -0x968(%rbp),%rax
   15a4a:	48 8b 00             	mov    (%rax),%rax
   15a4d:	48 89 85 80 f6 ff ff 	mov    %rax,-0x980(%rbp)
   15a54:	48 8d 05 6b 76 00 00 	lea    0x766b(%rip),%rax        # 1d0c6 <g_196+0x26>
   15a5b:	48 39 85 80 f6 ff ff 	cmp    %rax,-0x980(%rbp)
   15a62:	0f 94 c0             	sete   %al
   15a65:	0f b6 c0             	movzbl %al,%eax
   15a68:	48 39 c1             	cmp    %rax,%rcx
   15a6b:	0f 95 c0             	setne  %al
   15a6e:	0f b6 c0             	movzbl %al,%eax
   15a71:	89 c7                	mov    %eax,%edi
   15a73:	e8 58 54 ff ff       	callq  aed0 <safe_sub_func_uint32_t_u_u>
   15a78:	0f be c0             	movsbl %al,%eax
   15a7b:	44 89 e6             	mov    %r12d,%esi
   15a7e:	89 c7                	mov    %eax,%edi
   15a80:	e8 e7 48 ff ff       	callq  a36c <safe_rshift_func_int8_t_s_u>
   15a85:	0f be c0             	movsbl %al,%eax
   15a88:	39 c3                	cmp    %eax,%ebx
   15a8a:	0f 9f c0             	setg   %al
   15a8d:	0f b6 c0             	movzbl %al,%eax
   15a90:	09 85 ec f5 ff ff    	or     %eax,-0xa14(%rbp)
   15a96:	48 83 ad a0 f6 ff ff 	subq   $0x1,-0x960(%rbp)
   15a9d:	01 
   15a9e:	c7 85 f0 f5 ff ff 00 	movl   $0x0,-0xa10(%rbp)
   15aa5:	00 00 00 
   15aa8:	e9 f2 02 00 00       	jmpq   15d9f <func_62+0x88a>
   15aad:	48 8d 05 24 9f 00 00 	lea    0x9f24(%rip),%rax        # 1f9d8 <g_171>
   15ab4:	48 89 85 b0 f6 ff ff 	mov    %rax,-0x950(%rbp)
   15abb:	c7 85 e4 f5 ff ff 55 	movl   $0x2ac46755,-0xa1c(%rbp)
   15ac2:	67 c4 2a 
   15ac5:	48 8d 05 66 75 00 00 	lea    0x7566(%rip),%rax        # 1d032 <g_2+0x2>
   15acc:	48 89 85 b8 f6 ff ff 	mov    %rax,-0x948(%rbp)
   15ad3:	48 8d 85 60 f6 ff ff 	lea    -0x9a0(%rbp),%rax
   15ada:	48 89 85 c0 f6 ff ff 	mov    %rax,-0x940(%rbp)
   15ae1:	48 8d 05 84 75 00 00 	lea    0x7584(%rip),%rax        # 1d06c <g_88>
   15ae8:	48 89 85 c8 f6 ff ff 	mov    %rax,-0x938(%rbp)
   15aef:	0f b7 95 cc f5 ff ff 	movzwl -0xa34(%rbp),%edx
   15af6:	48 8b 85 60 f6 ff ff 	mov    -0x9a0(%rbp),%rax
   15afd:	48 21 d0             	and    %rdx,%rax
   15b00:	48 89 85 60 f6 ff ff 	mov    %rax,-0x9a0(%rbp)
   15b07:	48 8b 05 3a 9f 00 00 	mov    0x9f3a(%rip),%rax        # 1fa48 <g_439>
   15b0e:	48 8b 10             	mov    (%rax),%rdx
   15b11:	48 8b 85 b0 f6 ff ff 	mov    -0x950(%rbp),%rax
   15b18:	48 89 10             	mov    %rdx,(%rax)
   15b1b:	0f b7 9d cc f5 ff ff 	movzwl -0xa34(%rbp),%ebx
   15b22:	48 8b 85 b8 f6 ff ff 	mov    -0x948(%rbp),%rax
   15b29:	0f b6 10             	movzbl (%rax),%edx
   15b2c:	48 8b 85 b8 f6 ff ff 	mov    -0x948(%rbp),%rax
   15b33:	88 10                	mov    %dl,(%rax)
   15b35:	48 8b 85 b8 f6 ff ff 	mov    -0x948(%rbp),%rax
   15b3c:	0f b6 00             	movzbl (%rax),%eax
   15b3f:	84 c0                	test   %al,%al
   15b41:	0f 84 91 00 00 00    	je     15bd8 <func_62+0x6c3>
   15b47:	48 8b 05 a2 9e 00 00 	mov    0x9ea2(%rip),%rax        # 1f9f0 <g_195>
   15b4e:	0f b7 10             	movzwl (%rax),%edx
   15b51:	48 8b 85 80 f6 ff ff 	mov    -0x980(%rbp),%rax
   15b58:	66 89 10             	mov    %dx,(%rax)
   15b5b:	48 8b 85 80 f6 ff ff 	mov    -0x980(%rbp),%rax
   15b62:	0f b7 00             	movzwl (%rax),%eax
   15b65:	0f bf d0             	movswl %ax,%edx
   15b68:	8b 85 f0 f5 ff ff    	mov    -0xa10(%rbp),%eax
   15b6e:	48 98                	cltq   
   15b70:	48 8d 0c c5 00 00 00 	lea    0x0(,%rax,8),%rcx
   15b77:	00 
   15b78:	48 8d 05 81 9e 00 00 	lea    0x9e81(%rip),%rax        # 1fa00 <g_227>
   15b7f:	48 8b 04 01          	mov    (%rcx,%rax,1),%rax
   15b83:	48 85 c0             	test   %rax,%rax
   15b86:	0f 94 c0             	sete   %al
   15b89:	0f b6 c0             	movzbl %al,%eax
   15b8c:	39 c2                	cmp    %eax,%edx
   15b8e:	7e 0c                	jle    15b9c <func_62+0x687>
   15b90:	0f b7 05 5d 75 00 00 	movzwl 0x755d(%rip),%eax        # 1d0f4 <g_470>
   15b97:	66 85 c0             	test   %ax,%ax
   15b9a:	74 07                	je     15ba3 <func_62+0x68e>
   15b9c:	ba 01 00 00 00       	mov    $0x1,%edx
   15ba1:	eb 05                	jmp    15ba8 <func_62+0x693>
   15ba3:	ba 00 00 00 00       	mov    $0x0,%edx
   15ba8:	48 8b 85 b8 f6 ff ff 	mov    -0x948(%rbp),%rax
   15baf:	0f b6 00             	movzbl (%rax),%eax
   15bb2:	89 c1                	mov    %eax,%ecx
   15bb4:	89 d0                	mov    %edx,%eax
   15bb6:	09 c8                	or     %ecx,%eax
   15bb8:	89 c2                	mov    %eax,%edx
   15bba:	48 8b 85 b8 f6 ff ff 	mov    -0x948(%rbp),%rax
   15bc1:	88 10                	mov    %dl,(%rax)
   15bc3:	48 8b 85 b8 f6 ff ff 	mov    -0x948(%rbp),%rax
   15bca:	0f b6 00             	movzbl (%rax),%eax
   15bcd:	84 c0                	test   %al,%al
   15bcf:	74 07                	je     15bd8 <func_62+0x6c3>
   15bd1:	ba 01 00 00 00       	mov    $0x1,%edx
   15bd6:	eb 05                	jmp    15bdd <func_62+0x6c8>
   15bd8:	ba 00 00 00 00       	mov    $0x0,%edx
   15bdd:	8b 05 95 74 00 00    	mov    0x7495(%rip),%eax        # 1d078 <g_143>
   15be3:	09 c2                	or     %eax,%edx
   15be5:	0f b6 85 df f5 ff ff 	movzbl -0xa21(%rbp),%eax
   15bec:	39 c2                	cmp    %eax,%edx
   15bee:	0f 94 c0             	sete   %al
   15bf1:	0f b6 d0             	movzbl %al,%edx
   15bf4:	48 8b 85 c0 f6 ff ff 	mov    -0x940(%rbp),%rax
   15bfb:	48 89 10             	mov    %rdx,(%rax)
   15bfe:	48 8b 85 c0 f6 ff ff 	mov    -0x940(%rbp),%rax
   15c05:	48 8b 10             	mov    (%rax),%rdx
   15c08:	8b 85 18 f6 ff ff    	mov    -0x9e8(%rbp),%eax
   15c0e:	48 98                	cltq   
   15c10:	48 39 c2             	cmp    %rax,%rdx
   15c13:	0f 95 c0             	setne  %al
   15c16:	0f b6 c0             	movzbl %al,%eax
   15c19:	89 c6                	mov    %eax,%esi
   15c1b:	bf 03 00 00 00       	mov    $0x3,%edi
   15c20:	e8 cd 45 ff ff       	callq  a1f2 <safe_sub_func_int8_t_s_s>
   15c25:	48 89 de             	mov    %rbx,%rsi
   15c28:	bf 01 00 00 00       	mov    $0x1,%edi
   15c2d:	e8 19 54 ff ff       	callq  b04b <safe_sub_func_uint64_t_u_u>
   15c32:	48 8b 85 b0 f6 ff ff 	mov    -0x950(%rbp),%rax
   15c39:	48 8b 00             	mov    (%rax),%rax
   15c3c:	48 89 85 a8 f6 ff ff 	mov    %rax,-0x958(%rbp)
   15c43:	48 8b 05 96 9d 00 00 	mov    0x9d96(%rip),%rax        # 1f9e0 <g_170>
   15c4a:	48 8b 00             	mov    (%rax),%rax
   15c4d:	48 39 85 a8 f6 ff ff 	cmp    %rax,-0x958(%rbp)
   15c54:	0f 95 c0             	setne  %al
   15c57:	0f b6 d0             	movzbl %al,%edx
   15c5a:	48 8b 85 c8 f6 ff ff 	mov    -0x938(%rbp),%rax
   15c61:	89 10                	mov    %edx,(%rax)
   15c63:	c7 85 14 f6 ff ff 00 	movl   $0x0,-0x9ec(%rbp)
   15c6a:	00 00 00 
   15c6d:	8b 85 24 f8 ff ff    	mov    -0x7dc(%rbp),%eax
   15c73:	0f bf d0             	movswl %ax,%edx
   15c76:	48 8b 05 73 9d 00 00 	mov    0x9d73(%rip),%rax        # 1f9f0 <g_195>
   15c7d:	0f b7 00             	movzwl (%rax),%eax
   15c80:	8b 8d dc f6 ff ff    	mov    -0x924(%rbp),%ecx
   15c86:	98                   	cwtl   
   15c87:	21 c8                	and    %ecx,%eax
   15c89:	89 85 dc f6 ff ff    	mov    %eax,-0x924(%rbp)
   15c8f:	8b 85 dc f6 ff ff    	mov    -0x924(%rbp),%eax
   15c95:	98                   	cwtl   
   15c96:	89 d6                	mov    %edx,%esi
   15c98:	89 c7                	mov    %eax,%edi
   15c9a:	e8 14 47 ff ff       	callq  a3b3 <safe_add_func_int16_t_s_s>
   15c9f:	66 85 c0             	test   %ax,%ax
   15ca2:	0f 84 c7 00 00 00    	je     15d6f <func_62+0x85a>
   15ca8:	0f b6 05 2d 74 00 00 	movzbl 0x742d(%rip),%eax        # 1d0dc <g_224>
   15caf:	0f b6 d8             	movzbl %al,%ebx
   15cb2:	44 0f b7 a5 cc f5 ff 	movzwl -0xa34(%rbp),%r12d
   15cb9:	ff 
   15cba:	44 0f b7 ad cc f5 ff 	movzwl -0xa34(%rbp),%r13d
   15cc1:	ff 
   15cc2:	44 8b b5 34 f8 ff ff 	mov    -0x7cc(%rbp),%r14d
   15cc9:	0f b7 85 cc f5 ff ff 	movzwl -0xa34(%rbp),%eax
   15cd0:	0f b6 d0             	movzbl %al,%edx
   15cd3:	0f b7 85 cc f5 ff ff 	movzwl -0xa34(%rbp),%eax
   15cda:	0f b6 c0             	movzbl %al,%eax
   15cdd:	89 d6                	mov    %edx,%esi
   15cdf:	89 c7                	mov    %eax,%edi
   15ce1:	e8 92 4e ff ff       	callq  ab78 <safe_sub_func_uint8_t_u_u>
   15ce6:	0f b6 d0             	movzbl %al,%edx
   15ce9:	0f b7 85 cc f5 ff ff 	movzwl -0xa34(%rbp),%eax
   15cf0:	21 d0                	and    %edx,%eax
   15cf2:	44 89 f6             	mov    %r14d,%esi
   15cf5:	89 c7                	mov    %eax,%edi
   15cf7:	e8 ba 48 ff ff       	callq  a5b6 <safe_add_func_int32_t_s_s>
   15cfc:	44 89 ee             	mov    %r13d,%esi
   15cff:	89 c7                	mov    %eax,%edi
   15d01:	e8 c6 49 ff ff       	callq  a6cc <safe_mod_func_int32_t_s_s>
   15d06:	44 89 e6             	mov    %r12d,%esi
   15d09:	89 c7                	mov    %eax,%edi
   15d0b:	e8 a8 51 ff ff       	callq  aeb8 <safe_add_func_uint32_t_u_u>
   15d10:	48 83 bd 78 f6 ff ff 	cmpq   $0x0,-0x988(%rbp)
   15d17:	00 
   15d18:	0f 95 c2             	setne  %dl
   15d1b:	0f b6 ca             	movzbl %dl,%ecx
   15d1e:	48 8b 95 58 f6 ff ff 	mov    -0x9a8(%rbp),%rdx
   15d25:	0f b7 12             	movzwl (%rdx),%edx
   15d28:	09 c2                	or     %eax,%edx
   15d2a:	48 8b 85 58 f6 ff ff 	mov    -0x9a8(%rbp),%rax
   15d31:	66 89 10             	mov    %dx,(%rax)
   15d34:	0f b7 00             	movzwl (%rax),%eax
   15d37:	98                   	cwtl   
   15d38:	31 c1                	xor    %eax,%ecx
   15d3a:	89 ca                	mov    %ecx,%edx
   15d3c:	0f b6 05 99 73 00 00 	movzbl 0x7399(%rip),%eax        # 1d0dc <g_224>
   15d43:	0f b6 c0             	movzbl %al,%eax
   15d46:	31 d0                	xor    %edx,%eax
   15d48:	89 c6                	mov    %eax,%esi
   15d4a:	bf 01 00 00 00       	mov    $0x1,%edi
   15d4f:	e8 4d 45 ff ff       	callq  a2a1 <safe_lshift_func_int8_t_s_s>
   15d54:	48 0f be c0          	movsbq %al,%rax
   15d58:	48 89 de             	mov    %rbx,%rsi
   15d5b:	48 89 c7             	mov    %rax,%rdi
   15d5e:	e8 45 4b ff ff       	callq  a8a8 <safe_sub_func_int64_t_s_s>
   15d63:	48 85 c0             	test   %rax,%rax
   15d66:	74 07                	je     15d6f <func_62+0x85a>
   15d68:	b8 01 00 00 00       	mov    $0x1,%eax
   15d6d:	eb 05                	jmp    15d74 <func_62+0x85f>
   15d6f:	b8 00 00 00 00       	mov    $0x0,%eax
   15d74:	89 85 1c f6 ff ff    	mov    %eax,-0x9e4(%rbp)
   15d7a:	0f b7 85 cc f5 ff ff 	movzwl -0xa34(%rbp),%eax
   15d81:	0b 85 1c f6 ff ff    	or     -0x9e4(%rbp),%eax
   15d87:	83 f8 01             	cmp    $0x1,%eax
   15d8a:	0f 97 c0             	seta   %al
   15d8d:	0f b6 c0             	movzbl %al,%eax
   15d90:	f7 d0                	not    %eax
   15d92:	89 85 40 f6 ff ff    	mov    %eax,-0x9c0(%rbp)
   15d98:	83 85 f0 f5 ff ff 01 	addl   $0x1,-0xa10(%rbp)
   15d9f:	83 bd f0 f5 ff ff 02 	cmpl   $0x2,-0xa10(%rbp)
   15da6:	0f 8e 01 fd ff ff    	jle    15aad <func_62+0x598>
   15dac:	0f b6 05 29 73 00 00 	movzbl 0x7329(%rip),%eax        # 1d0dc <g_224>
   15db3:	83 c0 01             	add    $0x1,%eax
   15db6:	88 05 20 73 00 00    	mov    %al,0x7320(%rip)        # 1d0dc <g_224>
   15dbc:	0f b6 05 19 73 00 00 	movzbl 0x7319(%rip),%eax        # 1d0dc <g_224>
   15dc3:	3c 02                	cmp    $0x2,%al
   15dc5:	0f 86 63 fa ff ff    	jbe    1582e <func_62+0x319>
   15dcb:	48 8b 85 68 f6 ff ff 	mov    -0x998(%rbp),%rax
   15dd2:	48 8d 50 01          	lea    0x1(%rax),%rdx
   15dd6:	8b 05 a0 72 00 00    	mov    0x72a0(%rip),%eax        # 1d07c <g_153>
   15ddc:	48 8d 0c 95 00 00 00 	lea    0x0(,%rdx,4),%rcx
   15de3:	00 
   15de4:	48 8d 15 65 72 00 00 	lea    0x7265(%rip),%rdx        # 1d050 <g_29>
   15deb:	8b 14 11             	mov    (%rcx,%rdx,1),%edx
   15dee:	48 63 c8             	movslq %eax,%rcx
   15df1:	48 8d 34 8d 00 00 00 	lea    0x0(,%rcx,4),%rsi
   15df8:	00 
   15df9:	48 8d 0d 50 72 00 00 	lea    0x7250(%rip),%rcx        # 1d050 <g_29>
   15e00:	89 14 0e             	mov    %edx,(%rsi,%rcx,1)
   15e03:	48 98                	cltq   
   15e05:	48 8d 14 85 00 00 00 	lea    0x0(,%rax,4),%rdx
   15e0c:	00 
   15e0d:	48 8d 05 3c 72 00 00 	lea    0x723c(%rip),%rax        # 1d050 <g_29>
   15e14:	8b 04 02             	mov    (%rdx,%rax,1),%eax
   15e17:	89 c2                	mov    %eax,%edx
   15e19:	0f b6 85 dd f5 ff ff 	movzbl -0xa23(%rbp),%eax
   15e20:	21 d0                	and    %edx,%eax
   15e22:	88 85 dd f5 ff ff    	mov    %al,-0xa23(%rbp)
   15e28:	8b 05 4e 72 00 00    	mov    0x724e(%rip),%eax        # 1d07c <g_153>
   15e2e:	8b 15 48 72 00 00    	mov    0x7248(%rip),%edx        # 1d07c <g_153>
   15e34:	48 98                	cltq   
   15e36:	48 8d 0c 85 00 00 00 	lea    0x0(,%rax,4),%rcx
   15e3d:	00 
   15e3e:	48 8d 05 0b 72 00 00 	lea    0x720b(%rip),%rax        # 1d050 <g_29>
   15e45:	8b 04 01             	mov    (%rcx,%rax,1),%eax
   15e48:	48 63 d2             	movslq %edx,%rdx
   15e4b:	48 8d 0c 95 00 00 00 	lea    0x0(,%rdx,4),%rcx
   15e52:	00 
   15e53:	48 8d 15 f6 71 00 00 	lea    0x71f6(%rip),%rdx        # 1d050 <g_29>
   15e5a:	89 04 11             	mov    %eax,(%rcx,%rdx,1)
   15e5d:	c7 05 75 72 00 00 00 	movl   $0x0,0x7275(%rip)        # 1d0dc <g_224>
   15e64:	00 00 00 
   15e67:	e9 b8 00 00 00       	jmpq   15f24 <func_62+0xa0f>
   15e6c:	c6 85 de f5 ff ff cb 	movb   $0xcb,-0xa22(%rbp)
   15e73:	c7 85 20 f6 ff ff c4 	movl   $0xd4587bc4,-0x9e0(%rbp)
   15e7a:	7b 58 d4 
   15e7d:	c7 85 24 f6 ff ff 1c 	movl   $0xf302081c,-0x9dc(%rbp)
   15e84:	08 02 f3 
   15e87:	c7 85 28 f6 ff ff 10 	movl   $0x48c9e010,-0x9d8(%rbp)
   15e8e:	e0 c9 48 
   15e91:	c7 85 2c f6 ff ff fd 	movl   $0xfffffffd,-0x9d4(%rbp)
   15e98:	ff ff ff 
   15e9b:	c7 85 30 f6 ff ff c7 	movl   $0xcab7abc7,-0x9d0(%rbp)
   15ea2:	ab b7 ca 
   15ea5:	c7 85 34 f6 ff ff 6a 	movl   $0xb413306a,-0x9cc(%rbp)
   15eac:	30 13 b4 
   15eaf:	c7 85 38 f6 ff ff ff 	movl   $0xffffffff,-0x9c8(%rbp)
   15eb6:	ff ff ff 
   15eb9:	80 85 db f5 ff ff 01 	addb   $0x1,-0xa25(%rbp)
   15ec0:	83 ad e8 f5 ff ff 01 	subl   $0x1,-0xa18(%rbp)
   15ec7:	c7 85 e0 f5 ff ff 00 	movl   $0x0,-0xa20(%rbp)
   15ece:	00 00 00 
   15ed1:	90                   	nop
   15ed2:	8b 85 e0 f5 ff ff    	mov    -0xa20(%rbp),%eax
   15ed8:	83 f8 01             	cmp    $0x1,%eax
   15edb:	7f 38                	jg     15f15 <func_62+0xa00>
   15edd:	8b 85 e0 f5 ff ff    	mov    -0xa20(%rbp),%eax
   15ee3:	8b 95 e0 f5 ff ff    	mov    -0xa20(%rbp),%edx
   15ee9:	83 c2 07             	add    $0x7,%edx
   15eec:	48 63 ca             	movslq %edx,%rcx
   15eef:	48 63 d0             	movslq %eax,%rdx
   15ef2:	48 89 d0             	mov    %rdx,%rax
   15ef5:	48 c1 e0 03          	shl    $0x3,%rax
   15ef9:	48 01 d0             	add    %rdx,%rax
   15efc:	48 8d 14 08          	lea    (%rax,%rcx,1),%rdx
   15f00:	48 8d 05 29 71 00 00 	lea    0x7129(%rip),%rax        # 1d030 <g_2>
   15f07:	48 01 d0             	add    %rdx,%rax
   15f0a:	0f b6 00             	movzbl (%rax),%eax
   15f0d:	0f b6 c0             	movzbl %al,%eax
   15f10:	e9 b0 00 00 00       	jmpq   15fc5 <func_62+0xab0>
   15f15:	8b 05 c1 71 00 00    	mov    0x71c1(%rip),%eax        # 1d0dc <g_224>
   15f1b:	83 c0 01             	add    $0x1,%eax
   15f1e:	89 05 b8 71 00 00    	mov    %eax,0x71b8(%rip)        # 1d0dc <g_224>
   15f24:	8b 05 b2 71 00 00    	mov    0x71b2(%rip),%eax        # 1d0dc <g_224>
   15f2a:	83 f8 01             	cmp    $0x1,%eax
   15f2d:	0f 86 39 ff ff ff    	jbe    15e6c <func_62+0x957>
   15f33:	8b 05 43 71 00 00    	mov    0x7143(%rip),%eax        # 1d07c <g_153>
   15f39:	83 c0 01             	add    $0x1,%eax
   15f3c:	89 05 3a 71 00 00    	mov    %eax,0x713a(%rip)        # 1d07c <g_153>
   15f42:	8b 05 34 71 00 00    	mov    0x7134(%rip),%eax        # 1d07c <g_153>
   15f48:	83 f8 02             	cmp    $0x2,%eax
   15f4b:	0f 8e 8a f8 ff ff    	jle    157db <func_62+0x2c6>
   15f51:	0f b7 85 cc f5 ff ff 	movzwl -0xa34(%rbp),%eax
   15f58:	48 98                	cltq   
   15f5a:	48 8d 14 85 00 00 00 	lea    0x0(,%rax,4),%rdx
   15f61:	00 
   15f62:	48 8d 05 e7 70 00 00 	lea    0x70e7(%rip),%rax        # 1d050 <g_29>
   15f69:	8b 04 02             	mov    (%rdx,%rax,1),%eax
   15f6c:	eb 57                	jmp    15fc5 <func_62+0xab0>
   15f6e:	0f b7 85 cc f5 ff ff 	movzwl -0xa34(%rbp),%eax
   15f75:	48 98                	cltq   
   15f77:	48 8d 14 85 00 00 00 	lea    0x0(,%rax,4),%rdx
   15f7e:	00 
   15f7f:	48 8d 05 ca 70 00 00 	lea    0x70ca(%rip),%rax        # 1d050 <g_29>
   15f86:	8b 04 02             	mov    (%rdx,%rax,1),%eax
   15f89:	85 c0                	test   %eax,%eax
   15f8b:	75 1a                	jne    15fa7 <func_62+0xa92>
   15f8d:	48 8b 05 b4 9a 00 00 	mov    0x9ab4(%rip),%rax        # 1fa48 <g_439>
   15f94:	48 c7 00 00 00 00 00 	movq   $0x0,(%rax)
   15f9b:	48 8b 00             	mov    (%rax),%rax
   15f9e:	48 89 85 70 fc ff ff 	mov    %rax,-0x390(%rbp)
   15fa5:	eb 01                	jmp    15fa8 <func_62+0xa93>
   15fa7:	90                   	nop
   15fa8:	66 83 85 cc f5 ff ff 	addw   $0x1,-0xa34(%rbp)
   15faf:	01 
   15fb0:	66 83 bd cc f5 ff ff 	cmpw   $0x5,-0xa34(%rbp)
   15fb7:	05 
   15fb8:	0f 86 28 f6 ff ff    	jbe    155e6 <func_62+0xd1>
   15fbe:	0f b7 85 cc f5 ff ff 	movzwl -0xa34(%rbp),%eax
   15fc5:	48 8b 5d d8          	mov    -0x28(%rbp),%rbx
   15fc9:	64 48 33 1c 25 28 00 	xor    %fs:0x28,%rbx
   15fd0:	00 00 
   15fd2:	74 05                	je     15fd9 <func_62+0xac4>
   15fd4:	e8 97 40 ff ff       	callq  a070 <__stack_chk_fail@plt>
   15fd9:	48 81 c4 20 0a 00 00 	add    $0xa20,%rsp
   15fe0:	5b                   	pop    %rbx
   15fe1:	41 5c                	pop    %r12
   15fe3:	41 5d                	pop    %r13
   15fe5:	41 5e                	pop    %r14
   15fe7:	5d                   	pop    %rbp
   15fe8:	c3                   	retq   

0000000000015fe9 <func_67>:
   15fe9:	f3 0f 1e fa          	endbr64 
   15fed:	55                   	push   %rbp
   15fee:	48 89 e5             	mov    %rsp,%rbp
   15ff1:	41 57                	push   %r15
   15ff3:	41 56                	push   %r14
   15ff5:	41 55                	push   %r13
   15ff7:	41 54                	push   %r12
   15ff9:	53                   	push   %rbx
   15ffa:	48 81 ec f8 0e 00 00 	sub    $0xef8,%rsp
   16001:	48 89 bd f8 f0 ff ff 	mov    %rdi,-0xf08(%rbp)
   16008:	48 89 b5 f0 f0 ff ff 	mov    %rsi,-0xf10(%rbp)
   1600f:	48 89 95 e8 f0 ff ff 	mov    %rdx,-0xf18(%rbp)
   16016:	64 48 8b 04 25 28 00 	mov    %fs:0x28,%rax
   1601d:	00 00 
   1601f:	48 89 45 c8          	mov    %rax,-0x38(%rbp)
   16023:	31 c0                	xor    %eax,%eax
   16025:	48 b8 09 2a c6 a1 c1 	movabs $0xd68f8ac1a1c62a09,%rax
   1602c:	8a 8f d6 
   1602f:	48 89 85 c0 f1 ff ff 	mov    %rax,-0xe40(%rbp)
   16036:	48 8d 05 7b 99 00 00 	lea    0x997b(%rip),%rax        # 1f9b8 <g_72>
   1603d:	48 89 85 c8 f1 ff ff 	mov    %rax,-0xe38(%rbp)
   16044:	c7 85 14 f1 ff ff 47 	movl   $0x30b6dd47,-0xeec(%rbp)
   1604b:	dd b6 30 
   1604e:	c7 85 44 f1 ff ff 00 	movl   $0x0,-0xebc(%rbp)
   16055:	00 00 00 
   16058:	c7 85 18 f1 ff ff 55 	movl   $0x9e83ef55,-0xee8(%rbp)
   1605f:	ef 83 9e 
   16062:	c7 85 1c f1 ff ff 03 	movl   $0x3,-0xee4(%rbp)
   16069:	00 00 00 
   1606c:	48 8d 85 e0 f5 ff ff 	lea    -0xa20(%rbp),%rax
   16073:	48 8d 15 26 3e 00 00 	lea    0x3e26(%rip),%rdx        # 19ea0 <g_1504+0xe3c>
   1607a:	b9 5a 00 00 00       	mov    $0x5a,%ecx
   1607f:	48 89 c7             	mov    %rax,%rdi
   16082:	48 89 d6             	mov    %rdx,%rsi
   16085:	f3 48 a5             	rep movsq %ds:(%rsi),%es:(%rdi)
   16088:	66 c7 85 08 f1 ff ff 	movw   $0x5,-0xef8(%rbp)
   1608f:	05 00 
   16091:	48 8d 05 40 99 00 00 	lea    0x9940(%rip),%rax        # 1f9d8 <g_171>
   16098:	48 89 85 a8 f1 ff ff 	mov    %rax,-0xe58(%rbp)
   1609f:	66 c7 85 0c f1 ff ff 	movw   $0x1,-0xef4(%rbp)
   160a6:	01 00 
   160a8:	48 8d 85 14 f1 ff ff 	lea    -0xeec(%rbp),%rax
   160af:	48 89 85 b0 f1 ff ff 	mov    %rax,-0xe50(%rbp)
   160b6:	c7 85 00 f3 ff ff bc 	movl   $0xe68a2bbc,-0xd00(%rbp)
   160bd:	2b 8a e6 
   160c0:	c7 85 04 f3 ff ff bc 	movl   $0xe68a2bbc,-0xcfc(%rbp)
   160c7:	2b 8a e6 
   160ca:	c7 85 08 f3 ff ff bc 	movl   $0xe68a2bbc,-0xcf8(%rbp)
   160d1:	2b 8a e6 
   160d4:	c7 85 0c f3 ff ff bc 	movl   $0xe68a2bbc,-0xcf4(%rbp)
   160db:	2b 8a e6 
   160de:	c7 85 10 f3 ff ff bc 	movl   $0xe68a2bbc,-0xcf0(%rbp)
   160e5:	2b 8a e6 
   160e8:	48 8d 05 a9 b2 00 00 	lea    0xb2a9(%rip),%rax        # 21398 <g_101>
   160ef:	48 89 85 d0 f1 ff ff 	mov    %rax,-0xe30(%rbp)
   160f6:	48 8d 05 35 6f 00 00 	lea    0x6f35(%rip),%rax        # 1d032 <g_2+0x2>
   160fd:	48 89 85 d8 f1 ff ff 	mov    %rax,-0xe28(%rbp)
   16104:	c7 85 5c f1 ff ff c3 	movl   $0xaec4a3c3,-0xea4(%rbp)
   1610b:	a3 c4 ae 
   1610e:	48 8d 85 18 f1 ff ff 	lea    -0xee8(%rbp),%rax
   16115:	48 89 85 e0 f3 ff ff 	mov    %rax,-0xc20(%rbp)
   1611c:	48 8d 85 18 f1 ff ff 	lea    -0xee8(%rbp),%rax
   16123:	48 89 85 e8 f3 ff ff 	mov    %rax,-0xc18(%rbp)
   1612a:	48 8d 85 18 f1 ff ff 	lea    -0xee8(%rbp),%rax
   16131:	48 89 85 f0 f3 ff ff 	mov    %rax,-0xc10(%rbp)
   16138:	48 8d 85 18 f1 ff ff 	lea    -0xee8(%rbp),%rax
   1613f:	48 89 85 f8 f3 ff ff 	mov    %rax,-0xc08(%rbp)
   16146:	48 8d 85 18 f1 ff ff 	lea    -0xee8(%rbp),%rax
   1614d:	48 89 85 00 f4 ff ff 	mov    %rax,-0xc00(%rbp)
   16154:	48 8d 05 21 6f 00 00 	lea    0x6f21(%rip),%rax        # 1d07c <g_153>
   1615b:	48 89 85 08 f4 ff ff 	mov    %rax,-0xbf8(%rbp)
   16162:	48 8d 05 13 6f 00 00 	lea    0x6f13(%rip),%rax        # 1d07c <g_153>
   16169:	48 89 85 10 f4 ff ff 	mov    %rax,-0xbf0(%rbp)
   16170:	48 8d 05 05 6f 00 00 	lea    0x6f05(%rip),%rax        # 1d07c <g_153>
   16177:	48 89 85 18 f4 ff ff 	mov    %rax,-0xbe8(%rbp)
   1617e:	48 8d 05 f7 6e 00 00 	lea    0x6ef7(%rip),%rax        # 1d07c <g_153>
   16185:	48 89 85 20 f4 ff ff 	mov    %rax,-0xbe0(%rbp)
   1618c:	48 8d 05 e9 6e 00 00 	lea    0x6ee9(%rip),%rax        # 1d07c <g_153>
   16193:	48 89 85 28 f4 ff ff 	mov    %rax,-0xbd8(%rbp)
   1619a:	c6 05 a7 6e 00 00 e9 	movb   $0xe9,0x6ea7(%rip)        # 1d048 <g_13>
   161a1:	e9 6f 14 00 00       	jmpq   17615 <func_67+0x162c>
   161a6:	c7 85 20 f1 ff ff 00 	movl   $0x0,-0xee0(%rbp)
   161ad:	00 00 00 
   161b0:	66 c7 85 0a f1 ff ff 	movw   $0x1,-0xef6(%rbp)
   161b7:	01 00 
   161b9:	c7 85 50 f3 ff ff 35 	movl   $0x35353535,-0xcb0(%rbp)
   161c0:	35 35 35 
   161c3:	c6 85 54 f3 ff ff 35 	movb   $0x35,-0xcac(%rbp)
   161ca:	c7 85 55 f3 ff ff fa 	movl   $0xf5faf5fa,-0xcab(%rbp)
   161d1:	f5 fa f5 
   161d4:	c6 85 59 f3 ff ff fa 	movb   $0xfa,-0xca7(%rbp)
   161db:	c7 85 5a f3 ff ff 35 	movl   $0x35353535,-0xca6(%rbp)
   161e2:	35 35 35 
   161e5:	c6 85 5e f3 ff ff 35 	movb   $0x35,-0xca2(%rbp)
   161ec:	c7 85 5f f3 ff ff fa 	movl   $0xf5faf5fa,-0xca1(%rbp)
   161f3:	f5 fa f5 
   161f6:	c6 85 63 f3 ff ff fa 	movb   $0xfa,-0xc9d(%rbp)
   161fd:	c7 85 64 f3 ff ff 35 	movl   $0x35353535,-0xc9c(%rbp)
   16204:	35 35 35 
   16207:	c6 85 68 f3 ff ff 35 	movb   $0x35,-0xc98(%rbp)
   1620e:	c7 85 69 f3 ff ff fa 	movl   $0xf5faf5fa,-0xc97(%rbp)
   16215:	f5 fa f5 
   16218:	c6 85 6d f3 ff ff fa 	movb   $0xfa,-0xc93(%rbp)
   1621f:	c7 85 6e f3 ff ff 35 	movl   $0x35353535,-0xc92(%rbp)
   16226:	35 35 35 
   16229:	c6 85 72 f3 ff ff 35 	movb   $0x35,-0xc8e(%rbp)
   16230:	c7 85 73 f3 ff ff fa 	movl   $0xf5faf5fa,-0xc8d(%rbp)
   16237:	f5 fa f5 
   1623a:	c6 85 77 f3 ff ff fa 	movb   $0xfa,-0xc89(%rbp)
   16241:	c7 85 78 f3 ff ff 35 	movl   $0x35353535,-0xc88(%rbp)
   16248:	35 35 35 
   1624b:	c6 85 7c f3 ff ff 35 	movb   $0x35,-0xc84(%rbp)
   16252:	c7 85 7d f3 ff ff fa 	movl   $0xf5faf5fa,-0xc83(%rbp)
   16259:	f5 fa f5 
   1625c:	c6 85 81 f3 ff ff fa 	movb   $0xfa,-0xc7f(%rbp)
   16263:	c7 85 34 f1 ff ff 00 	movl   $0x0,-0xecc(%rbp)
   1626a:	00 00 00 
   1626d:	eb 46                	jmp    162b5 <func_67+0x2cc>
   1626f:	c7 85 38 f1 ff ff 00 	movl   $0x0,-0xec8(%rbp)
   16276:	00 00 00 
   16279:	eb 2a                	jmp    162a5 <func_67+0x2bc>
   1627b:	8b 85 38 f1 ff ff    	mov    -0xec8(%rbp),%eax
   16281:	48 98                	cltq   
   16283:	8b 95 34 f1 ff ff    	mov    -0xecc(%rbp),%edx
   16289:	48 63 d2             	movslq %edx,%rdx
   1628c:	48 01 d2             	add    %rdx,%rdx
   1628f:	48 01 d0             	add    %rdx,%rax
   16292:	48 c7 84 c5 80 f4 ff 	movq   $0xfffffffffffffffc,-0xb80(%rbp,%rax,8)
   16299:	ff fc ff ff ff 
   1629e:	83 85 38 f1 ff ff 01 	addl   $0x1,-0xec8(%rbp)
   162a5:	83 bd 38 f1 ff ff 01 	cmpl   $0x1,-0xec8(%rbp)
   162ac:	7e cd                	jle    1627b <func_67+0x292>
   162ae:	83 85 34 f1 ff ff 01 	addl   $0x1,-0xecc(%rbp)
   162b5:	83 bd 34 f1 ff ff 06 	cmpl   $0x6,-0xecc(%rbp)
   162bc:	7e b1                	jle    1626f <func_67+0x286>
   162be:	c7 85 34 f1 ff ff 00 	movl   $0x0,-0xecc(%rbp)
   162c5:	00 00 00 
   162c8:	eb 1a                	jmp    162e4 <func_67+0x2fb>
   162ca:	8b 85 34 f1 ff ff    	mov    -0xecc(%rbp),%eax
   162d0:	48 98                	cltq   
   162d2:	c7 84 85 fc f2 ff ff 	movl   $0x1,-0xd04(%rbp,%rax,4)
   162d9:	01 00 00 00 
   162dd:	83 85 34 f1 ff ff 01 	addl   $0x1,-0xecc(%rbp)
   162e4:	83 bd 34 f1 ff ff 00 	cmpl   $0x0,-0xecc(%rbp)
   162eb:	7e dd                	jle    162ca <func_67+0x2e1>
   162ed:	c7 05 71 6d 00 00 00 	movl   $0x0,0x6d71(%rip)        # 1d068 <g_76>
   162f4:	00 00 00 
   162f7:	e9 63 09 00 00       	jmpq   16c5f <func_67+0xc76>
   162fc:	c7 85 24 f1 ff ff 00 	movl   $0x0,-0xedc(%rbp)
   16303:	00 00 00 
   16306:	c6 85 07 f1 ff ff 01 	movb   $0x1,-0xef9(%rbp)
   1630d:	c7 85 60 f1 ff ff d5 	movl   $0xb46385d5,-0xea0(%rbp)
   16314:	85 63 b4 
   16317:	c7 85 64 f1 ff ff 33 	movl   $0x724abc33,-0xe9c(%rbp)
   1631e:	bc 4a 72 
   16321:	c7 85 68 f1 ff ff 4d 	movl   $0xf58ce94d,-0xe98(%rbp)
   16328:	e9 8c f5 
   1632b:	c7 85 6c f1 ff ff 3b 	movl   $0x47218b3b,-0xe94(%rbp)
   16332:	8b 21 47 
   16335:	c7 85 70 f1 ff ff 00 	movl   $0x0,-0xe90(%rbp)
   1633c:	00 00 00 
   1633f:	c7 85 74 f1 ff ff ff 	movl   $0xffffffff,-0xe8c(%rbp)
   16346:	ff ff ff 
   16349:	c7 85 78 f1 ff ff 00 	movl   $0x0,-0xe88(%rbp)
   16350:	00 00 00 
   16353:	c7 85 7c f1 ff ff ad 	movl   $0x210b18ad,-0xe84(%rbp)
   1635a:	18 0b 21 
   1635d:	c7 85 80 f1 ff ff 05 	movl   $0x5,-0xe80(%rbp)
   16364:	00 00 00 
   16367:	c7 85 28 f1 ff ff 00 	movl   $0x0,-0xed8(%rbp)
   1636e:	00 00 00 
   16371:	c7 85 84 f1 ff ff 56 	movl   $0x800fb456,-0xe7c(%rbp)
   16378:	b4 0f 80 
   1637b:	c7 85 88 f1 ff ff 61 	movl   $0x71310d61,-0xe78(%rbp)
   16382:	0d 31 71 
   16385:	c7 85 8c f1 ff ff ff 	movl   $0xffffffff,-0xe74(%rbp)
   1638c:	ff ff ff 
   1638f:	c7 85 90 f1 ff ff 03 	movl   $0x3,-0xe70(%rbp)
   16396:	00 00 00 
   16399:	c7 85 30 f4 ff ff 02 	movl   $0x2,-0xbd0(%rbp)
   163a0:	00 00 00 
   163a3:	c7 85 34 f4 ff ff 02 	movl   $0x2,-0xbcc(%rbp)
   163aa:	00 00 00 
   163ad:	c7 85 38 f4 ff ff c5 	movl   $0x86e48ec5,-0xbc8(%rbp)
   163b4:	8e e4 86 
   163b7:	c7 85 3c f4 ff ff 70 	movl   $0x8886f470,-0xbc4(%rbp)
   163be:	f4 86 88 
   163c1:	c7 85 40 f4 ff ff c5 	movl   $0x86e48ec5,-0xbc0(%rbp)
   163c8:	8e e4 86 
   163cb:	c7 85 44 f4 ff ff 6c 	movl   $0x67b4f66c,-0xbbc(%rbp)
   163d2:	f6 b4 67 
   163d5:	c7 85 48 f4 ff ff 6c 	movl   $0x67b4f66c,-0xbb8(%rbp)
   163dc:	f6 b4 67 
   163df:	c7 85 4c f4 ff ff 5b 	movl   $0x839e805b,-0xbb4(%rbp)
   163e6:	80 9e 83 
   163e9:	c7 85 50 f4 ff ff 00 	movl   $0x0,-0xbb0(%rbp)
   163f0:	00 00 00 
   163f3:	c7 85 54 f4 ff ff 5b 	movl   $0x839e805b,-0xbac(%rbp)
   163fa:	80 9e 83 
   163fd:	c7 85 58 f4 ff ff 02 	movl   $0x2,-0xba8(%rbp)
   16404:	00 00 00 
   16407:	c7 85 5c f4 ff ff 02 	movl   $0x2,-0xba4(%rbp)
   1640e:	00 00 00 
   16411:	c7 85 60 f4 ff ff c5 	movl   $0x86e48ec5,-0xba0(%rbp)
   16418:	8e e4 86 
   1641b:	c7 85 64 f4 ff ff 70 	movl   $0x8886f470,-0xb9c(%rbp)
   16422:	f4 86 88 
   16425:	c7 85 68 f4 ff ff c5 	movl   $0x86e48ec5,-0xb98(%rbp)
   1642c:	8e e4 86 
   1642f:	c7 85 6c f4 ff ff 6c 	movl   $0x67b4f66c,-0xb94(%rbp)
   16436:	f6 b4 67 
   16439:	c7 85 70 f4 ff ff 6c 	movl   $0x67b4f66c,-0xb90(%rbp)
   16440:	f6 b4 67 
   16443:	c7 85 74 f4 ff ff 5b 	movl   $0x839e805b,-0xb8c(%rbp)
   1644a:	80 9e 83 
   1644d:	c7 85 78 f4 ff ff 00 	movl   $0x0,-0xb88(%rbp)
   16454:	00 00 00 
   16457:	c7 85 7c f4 ff ff 5b 	movl   $0x839e805b,-0xb84(%rbp)
   1645e:	80 9e 83 
   16461:	66 c7 85 0e f1 ff ff 	movw   $0x27c9,-0xef2(%rbp)
   16468:	c9 27 
   1646a:	48 8d 85 b0 f8 ff ff 	lea    -0x750(%rbp),%rax
   16471:	48 8d 15 08 3d 00 00 	lea    0x3d08(%rip),%rdx        # 1a180 <g_1504+0x111c>
   16478:	b9 32 00 00 00       	mov    $0x32,%ecx
   1647d:	48 89 c7             	mov    %rax,%rdi
   16480:	48 89 d6             	mov    %rdx,%rsi
   16483:	f3 48 a5             	rep movsq %ds:(%rsi),%es:(%rdi)
   16486:	c7 85 3c f1 ff ff 00 	movl   $0x0,-0xec4(%rbp)
   1648d:	00 00 00 
   16490:	eb 14                	jmp    164a6 <func_67+0x4bd>
   16492:	8b 85 3c f1 ff ff    	mov    -0xec4(%rbp),%eax
   16498:	48 98                	cltq   
   1649a:	c6 44 05 bf ac       	movb   $0xac,-0x41(%rbp,%rax,1)
   1649f:	83 85 3c f1 ff ff 01 	addl   $0x1,-0xec4(%rbp)
   164a6:	83 bd 3c f1 ff ff 08 	cmpl   $0x8,-0xec4(%rbp)
   164ad:	7e e3                	jle    16492 <func_67+0x4a9>
   164af:	48 8b 05 fa 94 00 00 	mov    0x94fa(%rip),%rax        # 1f9b0 <g_9>
   164b6:	8b 00                	mov    (%rax),%eax
   164b8:	85 c0                	test   %eax,%eax
   164ba:	0f 84 5b 07 00 00    	je     16c1b <func_67+0xc32>
   164c0:	48 8d 05 a5 6b 00 00 	lea    0x6ba5(%rip),%rax        # 1d06c <g_88>
   164c7:	48 89 85 10 f2 ff ff 	mov    %rax,-0xdf0(%rbp)
   164ce:	c7 85 2c f1 ff ff 64 	movl   $0x86a3d864,-0xed4(%rbp)
   164d5:	d8 a3 86 
   164d8:	48 8d 85 14 f1 ff ff 	lea    -0xeec(%rbp),%rax
   164df:	48 89 85 18 f2 ff ff 	mov    %rax,-0xde8(%rbp)
   164e6:	48 8d 85 0a f1 ff ff 	lea    -0xef6(%rbp),%rax
   164ed:	48 89 85 20 f2 ff ff 	mov    %rax,-0xde0(%rbp)
   164f4:	c7 85 40 f1 ff ff 00 	movl   $0x0,-0xec0(%rbp)
   164fb:	00 00 00 
   164fe:	eb 4f                	jmp    1654f <func_67+0x566>
   16500:	c7 85 48 f1 ff ff 00 	movl   $0x0,-0xeb8(%rbp)
   16507:	00 00 00 
   1650a:	eb 33                	jmp    1653f <func_67+0x556>
   1650c:	8b 85 48 f1 ff ff    	mov    -0xeb8(%rbp),%eax
   16512:	48 63 c8             	movslq %eax,%rcx
   16515:	8b 85 40 f1 ff ff    	mov    -0xec0(%rbp),%eax
   1651b:	48 63 d0             	movslq %eax,%rdx
   1651e:	48 89 d0             	mov    %rdx,%rax
   16521:	48 01 c0             	add    %rax,%rax
   16524:	48 01 d0             	add    %rdx,%rax
   16527:	48 01 c0             	add    %rax,%rax
   1652a:	48 01 c8             	add    %rcx,%rax
   1652d:	c7 84 85 f0 f4 ff ff 	movl   $0xfffffffb,-0xb10(%rbp,%rax,4)
   16534:	fb ff ff ff 
   16538:	83 85 48 f1 ff ff 01 	addl   $0x1,-0xeb8(%rbp)
   1653f:	83 bd 48 f1 ff ff 05 	cmpl   $0x5,-0xeb8(%rbp)
   16546:	7e c4                	jle    1650c <func_67+0x523>
   16548:	83 85 40 f1 ff ff 01 	addl   $0x1,-0xec0(%rbp)
   1654f:	83 bd 40 f1 ff ff 05 	cmpl   $0x5,-0xec0(%rbp)
   16556:	7e a8                	jle    16500 <func_67+0x517>
   16558:	48 83 bd c8 f1 ff ff 	cmpq   $0x0,-0xe38(%rbp)
   1655f:	00 
   16560:	0f 94 c0             	sete   %al
   16563:	0f b6 c0             	movzbl %al,%eax
   16566:	48 98                	cltq   
   16568:	48 33 85 c0 f1 ff ff 	xor    -0xe40(%rbp),%rax
   1656f:	48 3d 44 ba 0f 5f    	cmp    $0x5f0fba44,%rax
   16575:	40 0f 97 c6          	seta   %sil
   16579:	48 8b 85 10 f2 ff ff 	mov    -0xdf0(%rbp),%rax
   16580:	8b 00                	mov    (%rax),%eax
   16582:	8d 48 ff             	lea    -0x1(%rax),%ecx
   16585:	48 8b 95 10 f2 ff ff 	mov    -0xdf0(%rbp),%rdx
   1658c:	89 0a                	mov    %ecx,(%rdx)
   1658e:	85 c0                	test   %eax,%eax
   16590:	0f 94 c0             	sete   %al
   16593:	09 f0                	or     %esi,%eax
   16595:	0f b6 c0             	movzbl %al,%eax
   16598:	48 8b 95 c0 f1 ff ff 	mov    -0xe40(%rbp),%rdx
   1659f:	89 c6                	mov    %eax,%esi
   165a1:	89 d7                	mov    %edx,%edi
   165a3:	e8 7d 49 ff ff       	callq  af25 <safe_div_func_uint32_t_u_u>
   165a8:	85 c0                	test   %eax,%eax
   165aa:	0f 84 78 02 00 00    	je     16828 <func_67+0x83f>
   165b0:	66 c7 85 10 f1 ff ff 	movw   $0xd639,-0xef0(%rbp)
   165b7:	39 d6 
   165b9:	48 8d 05 d8 ad 00 00 	lea    0xadd8(%rip),%rax        # 21398 <g_101>
   165c0:	48 89 85 78 f2 ff ff 	mov    %rax,-0xd88(%rbp)
   165c7:	48 8d 85 80 f4 ff ff 	lea    -0xb80(%rbp),%rax
   165ce:	48 83 c0 58          	add    $0x58,%rax
   165d2:	48 89 85 80 f2 ff ff 	mov    %rax,-0xd80(%rbp)
   165d9:	c7 85 30 f1 ff ff 01 	movl   $0x1,-0xed0(%rbp)
   165e0:	00 00 00 
   165e3:	c7 85 20 f3 ff ff 97 	movl   $0x337e7697,-0xce0(%rbp)
   165ea:	76 7e 33 
   165ed:	c7 85 24 f3 ff ff f8 	movl   $0xfffffff8,-0xcdc(%rbp)
   165f4:	ff ff ff 
   165f7:	c7 85 28 f3 ff ff 97 	movl   $0x337e7697,-0xcd8(%rbp)
   165fe:	76 7e 33 
   16601:	c7 85 2c f3 ff ff 97 	movl   $0x337e7697,-0xcd4(%rbp)
   16608:	76 7e 33 
   1660b:	c7 85 30 f3 ff ff f8 	movl   $0xfffffff8,-0xcd0(%rbp)
   16612:	ff ff ff 
   16615:	c7 85 34 f3 ff ff 97 	movl   $0x337e7697,-0xccc(%rbp)
   1661c:	76 7e 33 
   1661f:	48 b8 30 a4 1a dc e9 	movabs $0x5c48bde9dc1aa430,%rax
   16626:	bd 48 5c 
   16629:	48 89 85 88 f2 ff ff 	mov    %rax,-0xd78(%rbp)
   16630:	48 8b 05 39 6a 00 00 	mov    0x6a39(%rip),%rax        # 1d070 <g_96>
   16637:	48 0b 85 c0 f1 ff ff 	or     -0xe40(%rbp),%rax
   1663e:	48 89 05 2b 6a 00 00 	mov    %rax,0x6a2b(%rip)        # 1d070 <g_96>
   16645:	48 8b 05 24 6a 00 00 	mov    0x6a24(%rip),%rax        # 1d070 <g_96>
   1664c:	0f bf d0             	movswl %ax,%edx
   1664f:	48 8b 85 c0 f1 ff ff 	mov    -0xe40(%rbp),%rax
   16656:	98                   	cwtl   
   16657:	89 d6                	mov    %edx,%esi
   16659:	89 c7                	mov    %eax,%edi
   1665b:	e8 53 3d ff ff       	callq  a3b3 <safe_add_func_int16_t_s_s>
   16660:	41 89 c4             	mov    %eax,%r12d
   16663:	8b 85 20 f1 ff ff    	mov    -0xee0(%rbp),%eax
   16669:	0f bf d8             	movswl %ax,%ebx
   1666c:	48 8b 85 e8 f4 ff ff 	mov    -0xb18(%rbp),%rax
   16673:	89 c2                	mov    %eax,%edx
   16675:	48 8b 85 78 f2 ff ff 	mov    -0xd88(%rbp),%rax
   1667c:	66 89 10             	mov    %dx,(%rax)
   1667f:	8b 05 bf 69 00 00    	mov    0x69bf(%rip),%eax        # 1d044 <g_7>
   16685:	48 63 d0             	movslq %eax,%rdx
   16688:	8b 85 2c f1 ff ff    	mov    -0xed4(%rbp),%eax
   1668e:	83 f8 01             	cmp    $0x1,%eax
   16691:	0f 9f c0             	setg   %al
   16694:	0f b6 c8             	movzbl %al,%ecx
   16697:	8b 85 2c f1 ff ff    	mov    -0xed4(%rbp),%eax
   1669d:	21 c8                	and    %ecx,%eax
   1669f:	48 63 c8             	movslq %eax,%rcx
   166a2:	48 8b 85 80 f2 ff ff 	mov    -0xd80(%rbp),%rax
   166a9:	48 89 08             	mov    %rcx,(%rax)
   166ac:	48 8b 85 80 f2 ff ff 	mov    -0xd80(%rbp),%rax
   166b3:	48 8b 00             	mov    (%rax),%rax
   166b6:	48 89 d6             	mov    %rdx,%rsi
   166b9:	48 89 c7             	mov    %rax,%rdi
   166bc:	e8 ee 49 ff ff       	callq  b0af <safe_div_func_uint64_t_u_u>
   166c1:	98                   	cwtl   
   166c2:	89 de                	mov    %ebx,%esi
   166c4:	89 c7                	mov    %eax,%edi
   166c6:	e8 08 3d ff ff       	callq  a3d3 <safe_sub_func_int16_t_s_s>
   166cb:	66 41 39 c4          	cmp    %ax,%r12w
   166cf:	0f 9d c0             	setge  %al
   166d2:	0f b6 d0             	movzbl %al,%edx
   166d5:	0f b7 85 10 f1 ff ff 	movzwl -0xef0(%rbp),%eax
   166dc:	48 89 d6             	mov    %rdx,%rsi
   166df:	48 89 c7             	mov    %rax,%rdi
   166e2:	e8 c1 41 ff ff       	callq  a8a8 <safe_sub_func_int64_t_s_s>
   166e7:	48 85 c0             	test   %rax,%rax
   166ea:	0f 84 de 00 00 00    	je     167ce <func_67+0x7e5>
   166f0:	66 c7 85 12 f1 ff ff 	movw   $0xa81,-0xeee(%rbp)
   166f7:	81 0a 
   166f9:	c7 85 b8 f1 ff ff 8b 	movl   $0x84e0758b,-0xe48(%rbp)
   16700:	75 e0 84 
   16703:	48 8d 85 30 f1 ff ff 	lea    -0xed0(%rbp),%rax
   1670a:	48 89 85 90 f2 ff ff 	mov    %rax,-0xd70(%rbp)
   16711:	48 8d 85 b8 f1 ff ff 	lea    -0xe48(%rbp),%rax
   16718:	48 89 85 98 f2 ff ff 	mov    %rax,-0xd68(%rbp)
   1671f:	48 8d 85 24 f1 ff ff 	lea    -0xedc(%rbp),%rax
   16726:	48 89 85 a0 f2 ff ff 	mov    %rax,-0xd60(%rbp)
   1672d:	48 8d 85 30 f1 ff ff 	lea    -0xed0(%rbp),%rax
   16734:	48 89 85 a8 f2 ff ff 	mov    %rax,-0xd58(%rbp)
   1673b:	48 c7 85 b0 f2 ff ff 	movq   $0x0,-0xd50(%rbp)
   16742:	00 00 00 00 
   16746:	48 8d 05 0b 69 00 00 	lea    0x690b(%rip),%rax        # 1d058 <g_29+0x8>
   1674d:	48 89 85 b8 f2 ff ff 	mov    %rax,-0xd48(%rbp)
   16754:	48 8d 85 14 f1 ff ff 	lea    -0xeec(%rbp),%rax
   1675b:	48 89 85 c0 f2 ff ff 	mov    %rax,-0xd40(%rbp)
   16762:	48 8d 85 2c f1 ff ff 	lea    -0xed4(%rbp),%rax
   16769:	48 89 85 c8 f2 ff ff 	mov    %rax,-0xd38(%rbp)
   16770:	48 c7 85 90 f3 ff ff 	movq   $0x0,-0xc70(%rbp)
   16777:	00 00 00 00 
   1677b:	48 c7 85 98 f3 ff ff 	movq   $0x0,-0xc68(%rbp)
   16782:	00 00 00 00 
   16786:	48 c7 85 a0 f3 ff ff 	movq   $0x0,-0xc60(%rbp)
   1678d:	00 00 00 00 
   16791:	48 c7 85 a8 f3 ff ff 	movq   $0x0,-0xc58(%rbp)
   16798:	00 00 00 00 
   1679c:	8b 85 20 f1 ff ff    	mov    -0xee0(%rbp),%eax
   167a2:	85 c0                	test   %eax,%eax
   167a4:	0f 85 c4 04 00 00    	jne    16c6e <func_67+0xc85>
   167aa:	0f b7 85 12 f1 ff ff 	movzwl -0xeee(%rbp),%eax
   167b1:	83 e8 01             	sub    $0x1,%eax
   167b4:	66 89 85 12 f1 ff ff 	mov    %ax,-0xeee(%rbp)
   167bb:	83 85 60 f1 ff ff 01 	addl   $0x1,-0xea0(%rbp)
   167c2:	48 8b 85 e8 f0 ff ff 	mov    -0xf18(%rbp),%rax
   167c9:	e9 44 0f 00 00       	jmpq   17712 <func_67+0x1729>
   167ce:	48 c7 85 90 f3 ff ff 	movq   $0x0,-0xc70(%rbp)
   167d5:	00 00 00 00 
   167d9:	48 c7 85 98 f3 ff ff 	movq   $0x0,-0xc68(%rbp)
   167e0:	00 00 00 00 
   167e4:	48 c7 85 a0 f3 ff ff 	movq   $0x0,-0xc60(%rbp)
   167eb:	00 00 00 00 
   167ef:	48 c7 85 a8 f3 ff ff 	movq   $0x0,-0xc58(%rbp)
   167f6:	00 00 00 00 
   167fa:	48 83 ad 88 f2 ff ff 	subq   $0x1,-0xd78(%rbp)
   16801:	01 
   16802:	48 8b 85 18 f2 ff ff 	mov    -0xde8(%rbp),%rax
   16809:	8b 10                	mov    (%rax),%edx
   1680b:	8b 85 20 f3 ff ff    	mov    -0xce0(%rbp),%eax
   16811:	31 c2                	xor    %eax,%edx
   16813:	48 8b 85 18 f2 ff ff 	mov    -0xde8(%rbp),%rax
   1681a:	89 10                	mov    %edx,(%rax)
   1681c:	48 8d 05 41 68 00 00 	lea    0x6841(%rip),%rax        # 1d064 <g_29+0x14>
   16823:	e9 ea 0e 00 00       	jmpq   17712 <func_67+0x1729>
   16828:	48 8d 85 28 f1 ff ff 	lea    -0xed8(%rbp),%rax
   1682f:	48 89 85 28 f2 ff ff 	mov    %rax,-0xdd8(%rbp)
   16836:	48 8d 85 1c f1 ff ff 	lea    -0xee4(%rbp),%rax
   1683d:	48 89 85 30 f2 ff ff 	mov    %rax,-0xdd0(%rbp)
   16844:	48 c7 85 38 f2 ff ff 	movq   $0x0,-0xdc8(%rbp)
   1684b:	00 00 00 00 
   1684f:	c7 85 94 f1 ff ff 01 	movl   $0x1,-0xe6c(%rbp)
   16856:	00 00 00 
   16859:	48 8d 05 f8 67 00 00 	lea    0x67f8(%rip),%rax        # 1d058 <g_29+0x8>
   16860:	48 89 85 40 f2 ff ff 	mov    %rax,-0xdc0(%rbp)
   16867:	48 8d 85 20 f1 ff ff 	lea    -0xee0(%rbp),%rax
   1686e:	48 89 85 48 f2 ff ff 	mov    %rax,-0xdb8(%rbp)
   16875:	48 8d 85 18 f1 ff ff 	lea    -0xee8(%rbp),%rax
   1687c:	48 89 85 50 f2 ff ff 	mov    %rax,-0xdb0(%rbp)
   16883:	48 8d 85 14 f1 ff ff 	lea    -0xeec(%rbp),%rax
   1688a:	48 89 85 90 f3 ff ff 	mov    %rax,-0xc70(%rbp)
   16891:	48 8d 85 14 f1 ff ff 	lea    -0xeec(%rbp),%rax
   16898:	48 89 85 98 f3 ff ff 	mov    %rax,-0xc68(%rbp)
   1689f:	48 8d 85 14 f1 ff ff 	lea    -0xeec(%rbp),%rax
   168a6:	48 89 85 a0 f3 ff ff 	mov    %rax,-0xc60(%rbp)
   168ad:	48 8d 85 14 f1 ff ff 	lea    -0xeec(%rbp),%rax
   168b4:	48 89 85 a8 f3 ff ff 	mov    %rax,-0xc58(%rbp)
   168bb:	48 8d 85 14 f1 ff ff 	lea    -0xeec(%rbp),%rax
   168c2:	48 89 85 b0 f3 ff ff 	mov    %rax,-0xc50(%rbp)
   168c9:	48 8d 85 14 f1 ff ff 	lea    -0xeec(%rbp),%rax
   168d0:	48 89 85 b8 f3 ff ff 	mov    %rax,-0xc48(%rbp)
   168d7:	48 8d 85 14 f1 ff ff 	lea    -0xeec(%rbp),%rax
   168de:	48 89 85 c0 f3 ff ff 	mov    %rax,-0xc40(%rbp)
   168e5:	48 8d 85 14 f1 ff ff 	lea    -0xeec(%rbp),%rax
   168ec:	48 89 85 c8 f3 ff ff 	mov    %rax,-0xc38(%rbp)
   168f3:	66 c7 85 20 f3 ff ff 	movw   $0xcb41,-0xce0(%rbp)
   168fa:	41 cb 
   168fc:	66 c7 85 22 f3 ff ff 	movw   $0xcb41,-0xcde(%rbp)
   16903:	41 cb 
   16905:	66 c7 85 24 f3 ff ff 	movw   $0xcb41,-0xcdc(%rbp)
   1690c:	41 cb 
   1690e:	66 c7 85 26 f3 ff ff 	movw   $0xcb41,-0xcda(%rbp)
   16915:	41 cb 
   16917:	66 c7 85 28 f3 ff ff 	movw   $0xcb41,-0xcd8(%rbp)
   1691e:	41 cb 
   16920:	66 c7 85 2a f3 ff ff 	movw   $0xcb41,-0xcd6(%rbp)
   16927:	41 cb 
   16929:	66 c7 85 2c f3 ff ff 	movw   $0xcb41,-0xcd4(%rbp)
   16930:	41 cb 
   16932:	66 c7 85 2e f3 ff ff 	movw   $0xcb41,-0xcd2(%rbp)
   16939:	41 cb 
   1693b:	66 c7 85 30 f3 ff ff 	movw   $0xcb41,-0xcd0(%rbp)
   16942:	41 cb 
   16944:	66 c7 85 32 f3 ff ff 	movw   $0xcb41,-0xcce(%rbp)
   1694b:	41 cb 
   1694d:	48 8d 05 1c 67 00 00 	lea    0x671c(%rip),%rax        # 1d070 <g_96>
   16954:	48 89 85 58 f2 ff ff 	mov    %rax,-0xda8(%rbp)
   1695b:	48 8d 85 08 f1 ff ff 	lea    -0xef8(%rbp),%rax
   16962:	48 89 85 60 f2 ff ff 	mov    %rax,-0xda0(%rbp)
   16969:	48 8d 85 0a f1 ff ff 	lea    -0xef6(%rbp),%rax
   16970:	48 89 85 68 f2 ff ff 	mov    %rax,-0xd98(%rbp)
   16977:	48 8d 05 1a aa 00 00 	lea    0xaa1a(%rip),%rax        # 21398 <g_101>
   1697e:	48 89 85 70 f2 ff ff 	mov    %rax,-0xd90(%rbp)
   16985:	0f b7 85 22 f3 ff ff 	movzwl -0xcde(%rbp),%eax
   1698c:	83 e8 01             	sub    $0x1,%eax
   1698f:	66 89 85 22 f3 ff ff 	mov    %ax,-0xcde(%rbp)
   16996:	48 8b 05 43 90 00 00 	mov    0x9043(%rip),%rax        # 1f9e0 <g_170>
   1699d:	48 8d 15 c4 66 00 00 	lea    0x66c4(%rip),%rdx        # 1d068 <g_76>
   169a4:	48 89 10             	mov    %rdx,(%rax)
   169a7:	0f b6 05 9a 66 00 00 	movzbl 0x669a(%rip),%eax        # 1d048 <g_13>
   169ae:	66 98                	cbtw   
   169b0:	0f b7 d8             	movzwl %ax,%ebx
   169b3:	44 8b a5 fc f2 ff ff 	mov    -0xd04(%rbp),%r12d
   169ba:	8b 85 fc f2 ff ff    	mov    -0xd04(%rbp),%eax
   169c0:	85 c0                	test   %eax,%eax
   169c2:	0f 85 da 00 00 00    	jne    16aa2 <func_67+0xab9>
   169c8:	48 8b 05 19 90 00 00 	mov    0x9019(%rip),%rax        # 1f9e8 <g_184>
   169cf:	8b 05 93 66 00 00    	mov    0x6693(%rip),%eax        # 1d068 <g_76>
   169d5:	48 63 d0             	movslq %eax,%rdx
   169d8:	48 8b 85 58 f2 ff ff 	mov    -0xda8(%rbp),%rax
   169df:	48 89 10             	mov    %rdx,(%rax)
   169e2:	48 8b 85 58 f2 ff ff 	mov    -0xda8(%rbp),%rax
   169e9:	48 8b 00             	mov    (%rax),%rax
   169ec:	48 ba 7d 30 7d 43 be 	movabs $0xb8b1b7be437d307d,%rdx
   169f3:	b7 b1 b8 
   169f6:	48 39 d0             	cmp    %rdx,%rax
   169f9:	0f 95 c0             	setne  %al
   169fc:	0f b6 c0             	movzbl %al,%eax
   169ff:	48 8b 95 18 f2 ff ff 	mov    -0xde8(%rbp),%rdx
   16a06:	8b 12                	mov    (%rdx),%edx
   16a08:	89 c6                	mov    %eax,%esi
   16a0a:	89 d7                	mov    %edx,%edi
   16a0c:	e8 bf 44 ff ff       	callq  aed0 <safe_sub_func_uint32_t_u_u>
   16a11:	be ff ff ff ff       	mov    $0xffffffff,%esi
   16a16:	89 c7                	mov    %eax,%edi
   16a18:	e8 99 3b ff ff       	callq  a5b6 <safe_add_func_int32_t_s_s>
   16a1d:	ba 00 00 00 00       	mov    $0x0,%edx
   16a22:	48 8b 85 60 f2 ff ff 	mov    -0xda0(%rbp),%rax
   16a29:	0f b7 00             	movzwl (%rax),%eax
   16a2c:	21 c2                	and    %eax,%edx
   16a2e:	48 8b 85 60 f2 ff ff 	mov    -0xda0(%rbp),%rax
   16a35:	66 89 10             	mov    %dx,(%rax)
   16a38:	48 8b 85 60 f2 ff ff 	mov    -0xda0(%rbp),%rax
   16a3f:	0f b7 08             	movzwl (%rax),%ecx
   16a42:	48 8b 85 28 f2 ff ff 	mov    -0xdd8(%rbp),%rax
   16a49:	8b 00                	mov    (%rax),%eax
   16a4b:	85 c0                	test   %eax,%eax
   16a4d:	75 0b                	jne    16a5a <func_67+0xa71>
   16a4f:	0f b6 85 6e f3 ff ff 	movzbl -0xc92(%rbp),%eax
   16a56:	84 c0                	test   %al,%al
   16a58:	74 07                	je     16a61 <func_67+0xa78>
   16a5a:	b8 01 00 00 00       	mov    $0x1,%eax
   16a5f:	eb 05                	jmp    16a66 <func_67+0xa7d>
   16a61:	b8 00 00 00 00       	mov    $0x0,%eax
   16a66:	83 e0 01             	and    $0x1,%eax
   16a69:	48 8b 95 68 f2 ff ff 	mov    -0xd98(%rbp),%rdx
   16a70:	0f b7 12             	movzwl (%rdx),%edx
   16a73:	31 d1                	xor    %edx,%ecx
   16a75:	48 8b 95 68 f2 ff ff 	mov    -0xd98(%rbp),%rdx
   16a7c:	66 89 0a             	mov    %cx,(%rdx)
   16a7f:	48 8b 95 68 f2 ff ff 	mov    -0xd98(%rbp),%rdx
   16a86:	0f b7 12             	movzwl (%rdx),%edx
   16a89:	0f bf ca             	movswl %dx,%ecx
   16a8c:	0f b7 15 05 a9 00 00 	movzwl 0xa905(%rip),%edx        # 21398 <g_101>
   16a93:	0f b7 d2             	movzwl %dx,%edx
   16a96:	21 ca                	and    %ecx,%edx
   16a98:	83 fa f9             	cmp    $0xfffffff9,%edx
   16a9b:	0f 94 c2             	sete   %dl
   16a9e:	31 d0                	xor    %edx,%eax
   16aa0:	84 c0                	test   %al,%al
   16aa2:	44 89 e6             	mov    %r12d,%esi
   16aa5:	bf 00 00 00 00       	mov    $0x0,%edi
   16aaa:	e8 0f 43 ff ff       	callq  adbe <safe_lshift_func_uint16_t_u_s>
   16aaf:	0f b7 d0             	movzwl %ax,%edx
   16ab2:	48 8b 85 f8 f0 ff ff 	mov    -0xf08(%rbp),%rax
   16ab9:	48 8b 00             	mov    (%rax),%rax
   16abc:	0f b6 00             	movzbl (%rax),%eax
   16abf:	0f be c0             	movsbl %al,%eax
   16ac2:	39 c2                	cmp    %eax,%edx
   16ac4:	0f 9e c0             	setle  %al
   16ac7:	0f b6 d0             	movzbl %al,%edx
   16aca:	48 8b 85 70 f2 ff ff 	mov    -0xd90(%rbp),%rax
   16ad1:	66 89 10             	mov    %dx,(%rax)
   16ad4:	48 8b 85 70 f2 ff ff 	mov    -0xd90(%rbp),%rax
   16adb:	0f b7 00             	movzwl (%rax),%eax
   16ade:	0f b7 c0             	movzwl %ax,%eax
   16ae1:	89 de                	mov    %ebx,%esi
   16ae3:	89 c7                	mov    %eax,%edi
   16ae5:	e8 53 42 ff ff       	callq  ad3d <safe_mul_func_uint16_t_u_u>
   16aea:	be 07 00 00 00       	mov    $0x7,%esi
   16aef:	bf 01 00 00 00       	mov    $0x1,%edi
   16af4:	e8 0c 41 ff ff       	callq  ac05 <safe_lshift_func_uint8_t_u_s>
   16af9:	0f b6 45 c5          	movzbl -0x3b(%rbp),%eax
   16afd:	0f be d0             	movsbl %al,%edx
   16b00:	48 8b 85 40 f2 ff ff 	mov    -0xdc0(%rbp),%rax
   16b07:	89 10                	mov    %edx,(%rax)
   16b09:	48 8b 85 40 f2 ff ff 	mov    -0xdc0(%rbp),%rax
   16b10:	8b 00                	mov    (%rax),%eax
   16b12:	48 63 d0             	movslq %eax,%rdx
   16b15:	48 8b 85 e8 f8 ff ff 	mov    -0x718(%rbp),%rax
   16b1c:	48 39 c2             	cmp    %rax,%rdx
   16b1f:	0f 97 c0             	seta   %al
   16b22:	0f b6 d0             	movzbl %al,%edx
   16b25:	0f b6 05 06 65 00 00 	movzbl 0x6506(%rip),%eax        # 1d032 <g_2+0x2>
   16b2c:	0f b6 c0             	movzbl %al,%eax
   16b2f:	31 c2                	xor    %eax,%edx
   16b31:	48 8b 85 30 f2 ff ff 	mov    -0xdd0(%rbp),%rax
   16b38:	89 10                	mov    %edx,(%rax)
   16b3a:	c7 85 24 f1 ff ff 00 	movl   $0x0,-0xedc(%rbp)
   16b41:	00 00 00 
   16b44:	e9 c1 00 00 00       	jmpq   16c0a <func_67+0xc21>
   16b49:	66 c7 85 0a f1 ff ff 	movw   $0x1,-0xef6(%rbp)
   16b50:	01 00 
   16b52:	90                   	nop
   16b53:	0f b7 85 0a f1 ff ff 	movzwl -0xef6(%rbp),%eax
   16b5a:	66 85 c0             	test   %ax,%ax
   16b5d:	78 59                	js     16bb8 <func_67+0xbcf>
   16b5f:	0f b7 85 0a f1 ff ff 	movzwl -0xef6(%rbp),%eax
   16b66:	98                   	cwtl   
   16b67:	0f b7 95 0a f1 ff ff 	movzwl -0xef6(%rbp),%edx
   16b6e:	0f bf d2             	movswl %dx,%edx
   16b71:	8d 72 06             	lea    0x6(%rdx),%esi
   16b74:	0f b7 95 0a f1 ff ff 	movzwl -0xef6(%rbp),%edx
   16b7b:	0f bf d2             	movswl %dx,%edx
   16b7e:	83 c2 04             	add    $0x4,%edx
   16b81:	48 63 ca             	movslq %edx,%rcx
   16b84:	48 98                	cltq   
   16b86:	48 63 d6             	movslq %esi,%rdx
   16b89:	48 6b f0 5a          	imul   $0x5a,%rax,%rsi
   16b8d:	48 89 d0             	mov    %rdx,%rax
   16b90:	48 c1 e0 03          	shl    $0x3,%rax
   16b94:	48 01 d0             	add    %rdx,%rax
   16b97:	48 01 f0             	add    %rsi,%rax
   16b9a:	48 01 c8             	add    %rcx,%rax
   16b9d:	8b 84 85 e0 f5 ff ff 	mov    -0xa20(%rbp,%rax,4),%eax
   16ba4:	85 c0                	test   %eax,%eax
   16ba6:	75 0f                	jne    16bb7 <func_67+0xbce>
   16ba8:	48 8b 05 31 8e 00 00 	mov    0x8e31(%rip),%rax        # 1f9e0 <g_170>
   16baf:	48 8b 00             	mov    (%rax),%rax
   16bb2:	e9 5b 0b 00 00       	jmpq   17712 <func_67+0x1729>
   16bb7:	90                   	nop
   16bb8:	c7 85 2c f1 ff ff 00 	movl   $0x0,-0xed4(%rbp)
   16bbf:	00 00 00 
   16bc2:	eb 2c                	jmp    16bf0 <func_67+0xc07>
   16bc4:	48 8b 05 25 8e 00 00 	mov    0x8e25(%rip),%rax        # 1f9f0 <g_195>
   16bcb:	48 39 85 20 f2 ff ff 	cmp    %rax,-0xde0(%rbp)
   16bd2:	0f 94 c0             	sete   %al
   16bd5:	0f b6 d0             	movzbl %al,%edx
   16bd8:	48 8b 85 18 f2 ff ff 	mov    -0xde8(%rbp),%rax
   16bdf:	89 10                	mov    %edx,(%rax)
   16be1:	8b 85 2c f1 ff ff    	mov    -0xed4(%rbp),%eax
   16be7:	83 c0 01             	add    $0x1,%eax
   16bea:	89 85 2c f1 ff ff    	mov    %eax,-0xed4(%rbp)
   16bf0:	8b 85 2c f1 ff ff    	mov    -0xed4(%rbp),%eax
   16bf6:	83 f8 08             	cmp    $0x8,%eax
   16bf9:	7e c9                	jle    16bc4 <func_67+0xbdb>
   16bfb:	8b 85 24 f1 ff ff    	mov    -0xedc(%rbp),%eax
   16c01:	83 c0 01             	add    $0x1,%eax
   16c04:	89 85 24 f1 ff ff    	mov    %eax,-0xedc(%rbp)
   16c0a:	8b 85 24 f1 ff ff    	mov    -0xedc(%rbp),%eax
   16c10:	83 f8 1b             	cmp    $0x1b,%eax
   16c13:	0f 84 30 ff ff ff    	je     16b49 <func_67+0xb60>
   16c19:	eb 26                	jmp    16c41 <func_67+0xc58>
   16c1b:	48 8d 05 b6 8d 00 00 	lea    0x8db6(%rip),%rax        # 1f9d8 <g_171>
   16c22:	48 89 85 08 f2 ff ff 	mov    %rax,-0xdf8(%rbp)
   16c29:	48 8b 85 08 f2 ff ff 	mov    -0xdf8(%rbp),%rax
   16c30:	48 8d 95 e0 f5 ff ff 	lea    -0xa20(%rbp),%rdx
   16c37:	48 81 c2 9c 00 00 00 	add    $0x9c,%rdx
   16c3e:	48 89 10             	mov    %rdx,(%rax)
   16c41:	8b 05 21 64 00 00    	mov    0x6421(%rip),%eax        # 1d068 <g_76>
   16c47:	0f be c0             	movsbl %al,%eax
   16c4a:	be 06 00 00 00       	mov    $0x6,%esi
   16c4f:	89 c7                	mov    %eax,%edi
   16c51:	e8 9c 35 ff ff       	callq  a1f2 <safe_sub_func_int8_t_s_s>
   16c56:	0f be c0             	movsbl %al,%eax
   16c59:	89 05 09 64 00 00    	mov    %eax,0x6409(%rip)        # 1d068 <g_76>
   16c5f:	8b 05 03 64 00 00    	mov    0x6403(%rip),%eax        # 1d068 <g_76>
   16c65:	83 f8 ea             	cmp    $0xffffffea,%eax
   16c68:	0f 8d 8e f6 ff ff    	jge    162fc <func_67+0x313>
   16c6e:	48 8b 85 b0 f4 ff ff 	mov    -0xb50(%rbp),%rax
   16c75:	48 85 c0             	test   %rax,%rax
   16c78:	0f 84 81 00 00 00    	je     16cff <func_67+0xd16>
   16c7e:	c7 85 44 f1 ff ff 00 	movl   $0x0,-0xebc(%rbp)
   16c85:	00 00 00 
   16c88:	eb 67                	jmp    16cf1 <func_67+0xd08>
   16c8a:	66 c7 05 05 a7 00 00 	movw   $0x0,0xa705(%rip)        # 21398 <g_101>
   16c91:	00 00 
   16c93:	eb 48                	jmp    16cdd <func_67+0xcf4>
   16c95:	0f b7 05 fc a6 00 00 	movzwl 0xa6fc(%rip),%eax        # 21398 <g_101>
   16c9c:	0f b7 c0             	movzwl %ax,%eax
   16c9f:	48 63 c8             	movslq %eax,%rcx
   16ca2:	8b 85 44 f1 ff ff    	mov    -0xebc(%rbp),%eax
   16ca8:	48 63 d0             	movslq %eax,%rdx
   16cab:	48 89 d0             	mov    %rdx,%rax
   16cae:	48 c1 e0 02          	shl    $0x2,%rax
   16cb2:	48 01 d0             	add    %rdx,%rax
   16cb5:	48 01 c0             	add    %rax,%rax
   16cb8:	48 01 c8             	add    %rcx,%rax
   16cbb:	48 8d 14 00          	lea    (%rax,%rax,1),%rdx
   16cbf:	48 8d 05 da 63 00 00 	lea    0x63da(%rip),%rax        # 1d0a0 <g_196>
   16cc6:	66 c7 04 02 33 51    	movw   $0x5133,(%rdx,%rax,1)
   16ccc:	0f b7 05 c5 a6 00 00 	movzwl 0xa6c5(%rip),%eax        # 21398 <g_101>
   16cd3:	83 c0 01             	add    $0x1,%eax
   16cd6:	66 89 05 bb a6 00 00 	mov    %ax,0xa6bb(%rip)        # 21398 <g_101>
   16cdd:	0f b7 05 b4 a6 00 00 	movzwl 0xa6b4(%rip),%eax        # 21398 <g_101>
   16ce4:	66 83 f8 09          	cmp    $0x9,%ax
   16ce8:	76 ab                	jbe    16c95 <func_67+0xcac>
   16cea:	83 85 44 f1 ff ff 01 	addl   $0x1,-0xebc(%rbp)
   16cf1:	83 bd 44 f1 ff ff 02 	cmpl   $0x2,-0xebc(%rbp)
   16cf8:	7e 90                	jle    16c8a <func_67+0xca1>
   16cfa:	e9 fa 08 00 00       	jmpq   175f9 <func_67+0x1610>
   16cff:	48 8d 85 a8 f1 ff ff 	lea    -0xe58(%rbp),%rax
   16d06:	48 89 85 d0 f2 ff ff 	mov    %rax,-0xd30(%rbp)
   16d0d:	c7 85 4c f1 ff ff cf 	movl   $0xcb2a54cf,-0xeb4(%rbp)
   16d14:	54 2a cb 
   16d17:	48 c7 85 b8 f1 ff ff 	movq   $0x0,-0xe48(%rbp)
   16d1e:	00 00 00 00 
   16d22:	c7 85 50 f1 ff ff 87 	movl   $0x6bf25087,-0xeb0(%rbp)
   16d29:	50 f2 6b 
   16d2c:	0f b6 05 08 63 00 00 	movzbl 0x6308(%rip),%eax        # 1d03b <g_2+0xb>
   16d33:	0f b6 d8             	movzbl %al,%ebx
   16d36:	0f b6 05 43 63 00 00 	movzbl 0x6343(%rip),%eax        # 1d080 <g_178>
   16d3d:	4c 0f be e0          	movsbq %al,%r12
   16d41:	0f b6 85 6e f3 ff ff 	movzbl -0xc92(%rbp),%eax
   16d48:	44 0f be e8          	movsbl %al,%r13d
   16d4c:	48 8b 95 a8 f1 ff ff 	mov    -0xe58(%rbp),%rdx
   16d53:	48 8b 85 d0 f2 ff ff 	mov    -0xd30(%rbp),%rax
   16d5a:	48 89 10             	mov    %rdx,(%rax)
   16d5d:	48 8b 85 a8 f1 ff ff 	mov    -0xe58(%rbp),%rax
   16d64:	48 8b 00             	mov    (%rax),%rax
   16d67:	8b 00                	mov    (%rax),%eax
   16d69:	98                   	cwtl   
   16d6a:	be 62 29 00 00       	mov    $0x2962,%esi
   16d6f:	89 c7                	mov    %eax,%edi
   16d71:	e8 df 36 ff ff       	callq  a455 <safe_div_func_int16_t_s_s>
   16d76:	0f be c0             	movsbl %al,%eax
   16d79:	89 c7                	mov    %eax,%edi
   16d7b:	e8 3f 34 ff ff       	callq  a1bf <safe_unary_minus_func_int8_t_s>
   16d80:	0f be c0             	movsbl %al,%eax
   16d83:	39 85 4c f1 ff ff    	cmp    %eax,-0xeb4(%rbp)
   16d89:	0f 9e c0             	setle  %al
   16d8c:	0f b6 c0             	movzbl %al,%eax
   16d8f:	44 89 ee             	mov    %r13d,%esi
   16d92:	89 c7                	mov    %eax,%edi
   16d94:	e8 1f 41 ff ff       	callq  aeb8 <safe_add_func_uint32_t_u_u>
   16d99:	89 c0                	mov    %eax,%eax
   16d9b:	4c 89 e6             	mov    %r12,%rsi
   16d9e:	48 89 c7             	mov    %rax,%rdi
   16da1:	e8 02 3b ff ff       	callq  a8a8 <safe_sub_func_int64_t_s_s>
   16da6:	0f be c0             	movsbl %al,%eax
   16da9:	89 de                	mov    %ebx,%esi
   16dab:	89 c7                	mov    %eax,%edi
   16dad:	e8 ba 35 ff ff       	callq  a36c <safe_rshift_func_int8_t_s_u>
   16db2:	0f b7 05 df a5 00 00 	movzwl 0xa5df(%rip),%eax        # 21398 <g_101>
   16db9:	66 85 c0             	test   %ax,%ax
   16dbc:	74 1a                	je     16dd8 <func_67+0xdef>
   16dbe:	48 8b 85 d0 f2 ff ff 	mov    -0xd30(%rbp),%rax
   16dc5:	48 8b 00             	mov    (%rax),%rax
   16dc8:	48 8b 00             	mov    (%rax),%rax
   16dcb:	8b 00                	mov    (%rax),%eax
   16dcd:	85 c0                	test   %eax,%eax
   16dcf:	74 07                	je     16dd8 <func_67+0xdef>
   16dd1:	ba 01 00 00 00       	mov    $0x1,%edx
   16dd6:	eb 05                	jmp    16ddd <func_67+0xdf4>
   16dd8:	ba 00 00 00 00       	mov    $0x0,%edx
   16ddd:	8b 05 61 62 00 00    	mov    0x6261(%rip),%eax        # 1d044 <g_7>
   16de3:	39 c2                	cmp    %eax,%edx
   16de5:	0f 9d c0             	setge  %al
   16de8:	0f b6 d8             	movzbl %al,%ebx
   16deb:	48 be 99 d3 b4 00 76 	movabs $0x50ca5d7600b4d399,%rsi
   16df2:	5d ca 50 
   16df5:	48 bf 06 b7 d4 29 56 	movabs $0xae7c6b5629d4b706,%rdi
   16dfc:	6b 7c ae 
   16dff:	e8 ab 42 ff ff       	callq  b0af <safe_div_func_uint64_t_u_u>
   16e04:	98                   	cwtl   
   16e05:	be 01 00 00 00       	mov    $0x1,%esi
   16e0a:	89 c7                	mov    %eax,%edi
   16e0c:	e8 52 37 ff ff       	callq  a563 <safe_rshift_func_int16_t_s_u>
   16e11:	98                   	cwtl   
   16e12:	89 de                	mov    %ebx,%esi
   16e14:	89 c7                	mov    %eax,%edi
   16e16:	e8 da 35 ff ff       	callq  a3f5 <safe_mul_func_int16_t_s_s>
   16e1b:	f7 d0                	not    %eax
   16e1d:	0f b6 c0             	movzbl %al,%eax
   16e20:	be 28 00 00 00       	mov    $0x28,%esi
   16e25:	89 c7                	mov    %eax,%edi
   16e27:	e8 af 3d ff ff       	callq  abdb <safe_div_func_uint8_t_u_u>
   16e2c:	84 c0                	test   %al,%al
   16e2e:	0f 84 2a 06 00 00    	je     1745e <func_67+0x1475>
   16e34:	48 8d 85 b8 f1 ff ff 	lea    -0xe48(%rbp),%rax
   16e3b:	48 89 85 f0 f4 ff ff 	mov    %rax,-0xb10(%rbp)
   16e42:	48 8d 85 b8 f1 ff ff 	lea    -0xe48(%rbp),%rax
   16e49:	48 89 85 f8 f4 ff ff 	mov    %rax,-0xb08(%rbp)
   16e50:	48 8d 85 b8 f1 ff ff 	lea    -0xe48(%rbp),%rax
   16e57:	48 89 85 00 f5 ff ff 	mov    %rax,-0xb00(%rbp)
   16e5e:	48 c7 85 08 f5 ff ff 	movq   $0x0,-0xaf8(%rbp)
   16e65:	00 00 00 00 
   16e69:	48 c7 85 10 f5 ff ff 	movq   $0x0,-0xaf0(%rbp)
   16e70:	00 00 00 00 
   16e74:	48 8d 85 b8 f1 ff ff 	lea    -0xe48(%rbp),%rax
   16e7b:	48 89 85 18 f5 ff ff 	mov    %rax,-0xae8(%rbp)
   16e82:	48 8d 85 b8 f1 ff ff 	lea    -0xe48(%rbp),%rax
   16e89:	48 89 85 20 f5 ff ff 	mov    %rax,-0xae0(%rbp)
   16e90:	48 8d 85 b8 f1 ff ff 	lea    -0xe48(%rbp),%rax
   16e97:	48 89 85 28 f5 ff ff 	mov    %rax,-0xad8(%rbp)
   16e9e:	48 c7 85 30 f5 ff ff 	movq   $0x0,-0xad0(%rbp)
   16ea5:	00 00 00 00 
   16ea9:	48 8d 85 b8 f1 ff ff 	lea    -0xe48(%rbp),%rax
   16eb0:	48 89 85 38 f5 ff ff 	mov    %rax,-0xac8(%rbp)
   16eb7:	48 8d 85 b8 f1 ff ff 	lea    -0xe48(%rbp),%rax
   16ebe:	48 89 85 40 f5 ff ff 	mov    %rax,-0xac0(%rbp)
   16ec5:	48 c7 85 48 f5 ff ff 	movq   $0x0,-0xab8(%rbp)
   16ecc:	00 00 00 00 
   16ed0:	48 8d 85 b8 f1 ff ff 	lea    -0xe48(%rbp),%rax
   16ed7:	48 89 85 50 f5 ff ff 	mov    %rax,-0xab0(%rbp)
   16ede:	48 8d 85 b8 f1 ff ff 	lea    -0xe48(%rbp),%rax
   16ee5:	48 89 85 58 f5 ff ff 	mov    %rax,-0xaa8(%rbp)
   16eec:	48 8d 85 b8 f1 ff ff 	lea    -0xe48(%rbp),%rax
   16ef3:	48 89 85 60 f5 ff ff 	mov    %rax,-0xaa0(%rbp)
   16efa:	48 8d 85 b8 f1 ff ff 	lea    -0xe48(%rbp),%rax
   16f01:	48 89 85 68 f5 ff ff 	mov    %rax,-0xa98(%rbp)
   16f08:	48 8d 85 b8 f1 ff ff 	lea    -0xe48(%rbp),%rax
   16f0f:	48 89 85 70 f5 ff ff 	mov    %rax,-0xa90(%rbp)
   16f16:	48 c7 85 78 f5 ff ff 	movq   $0x0,-0xa88(%rbp)
   16f1d:	00 00 00 00 
   16f21:	48 8d 85 b8 f1 ff ff 	lea    -0xe48(%rbp),%rax
   16f28:	48 89 85 80 f5 ff ff 	mov    %rax,-0xa80(%rbp)
   16f2f:	48 8d 85 b8 f1 ff ff 	lea    -0xe48(%rbp),%rax
   16f36:	48 89 85 88 f5 ff ff 	mov    %rax,-0xa78(%rbp)
   16f3d:	48 8d 85 b8 f1 ff ff 	lea    -0xe48(%rbp),%rax
   16f44:	48 89 85 90 f5 ff ff 	mov    %rax,-0xa70(%rbp)
   16f4b:	48 c7 85 98 f5 ff ff 	movq   $0x0,-0xa68(%rbp)
   16f52:	00 00 00 00 
   16f56:	48 8d 85 b8 f1 ff ff 	lea    -0xe48(%rbp),%rax
   16f5d:	48 89 85 a0 f5 ff ff 	mov    %rax,-0xa60(%rbp)
   16f64:	48 8d 85 b8 f1 ff ff 	lea    -0xe48(%rbp),%rax
   16f6b:	48 89 85 a8 f5 ff ff 	mov    %rax,-0xa58(%rbp)
   16f72:	48 8d 85 b8 f1 ff ff 	lea    -0xe48(%rbp),%rax
   16f79:	48 89 85 b0 f5 ff ff 	mov    %rax,-0xa50(%rbp)
   16f80:	48 8d 85 b8 f1 ff ff 	lea    -0xe48(%rbp),%rax
   16f87:	48 89 85 b8 f5 ff ff 	mov    %rax,-0xa48(%rbp)
   16f8e:	48 8d 85 b8 f1 ff ff 	lea    -0xe48(%rbp),%rax
   16f95:	48 89 85 c0 f5 ff ff 	mov    %rax,-0xa40(%rbp)
   16f9c:	48 8d 85 b8 f1 ff ff 	lea    -0xe48(%rbp),%rax
   16fa3:	48 89 85 c8 f5 ff ff 	mov    %rax,-0xa38(%rbp)
   16faa:	48 8d 85 b8 f1 ff ff 	lea    -0xe48(%rbp),%rax
   16fb1:	48 89 85 d0 f5 ff ff 	mov    %rax,-0xa30(%rbp)
   16fb8:	48 c7 85 d8 f5 ff ff 	movq   $0x0,-0xa28(%rbp)
   16fbf:	00 00 00 00 
   16fc3:	48 8d 85 b0 f8 ff ff 	lea    -0x750(%rbp),%rax
   16fca:	48 8d 15 8f 82 00 00 	lea    0x828f(%rip),%rdx        # 1f260 <g_2043+0x1c20>
   16fd1:	b9 e1 00 00 00       	mov    $0xe1,%ecx
   16fd6:	48 89 c7             	mov    %rax,%rdi
   16fd9:	48 89 d6             	mov    %rdx,%rsi
   16fdc:	f3 48 a5             	rep movsq %ds:(%rsi),%es:(%rdi)
   16fdf:	48 8d 85 08 f1 ff ff 	lea    -0xef8(%rbp),%rax
   16fe6:	48 89 85 90 f3 ff ff 	mov    %rax,-0xc70(%rbp)
   16fed:	48 8d 85 08 f1 ff ff 	lea    -0xef8(%rbp),%rax
   16ff4:	48 89 85 98 f3 ff ff 	mov    %rax,-0xc68(%rbp)
   16ffb:	48 8d 85 08 f1 ff ff 	lea    -0xef8(%rbp),%rax
   17002:	48 89 85 a0 f3 ff ff 	mov    %rax,-0xc60(%rbp)
   17009:	48 8d 85 08 f1 ff ff 	lea    -0xef8(%rbp),%rax
   17010:	48 89 85 a8 f3 ff ff 	mov    %rax,-0xc58(%rbp)
   17017:	48 8d 85 08 f1 ff ff 	lea    -0xef8(%rbp),%rax
   1701e:	48 89 85 b0 f3 ff ff 	mov    %rax,-0xc50(%rbp)
   17025:	48 8d 85 08 f1 ff ff 	lea    -0xef8(%rbp),%rax
   1702c:	48 89 85 b8 f3 ff ff 	mov    %rax,-0xc48(%rbp)
   17033:	48 8d 85 08 f1 ff ff 	lea    -0xef8(%rbp),%rax
   1703a:	48 89 85 c0 f3 ff ff 	mov    %rax,-0xc40(%rbp)
   17041:	48 8d 85 08 f1 ff ff 	lea    -0xef8(%rbp),%rax
   17048:	48 89 85 c8 f3 ff ff 	mov    %rax,-0xc38(%rbp)
   1704f:	48 8d 85 08 f1 ff ff 	lea    -0xef8(%rbp),%rax
   17056:	48 89 85 d0 f3 ff ff 	mov    %rax,-0xc30(%rbp)
   1705d:	c7 85 98 f1 ff ff fe 	movl   $0xfffffffe,-0xe68(%rbp)
   17064:	ff ff ff 
   17067:	c7 85 9c f1 ff ff 5d 	movl   $0xef0d5d5d,-0xe64(%rbp)
   1706e:	5d 0d ef 
   17071:	48 c7 85 e0 f2 ff ff 	movq   $0x0,-0xd20(%rbp)
   17078:	00 00 00 00 
   1707c:	48 c7 85 30 f4 ff ff 	movq   $0x0,-0xbd0(%rbp)
   17083:	00 00 00 00 
   17087:	48 8d 05 de 5f 00 00 	lea    0x5fde(%rip),%rax        # 1d06c <g_88>
   1708e:	48 89 85 38 f4 ff ff 	mov    %rax,-0xbc8(%rbp)
   17095:	48 8d 05 d0 5f 00 00 	lea    0x5fd0(%rip),%rax        # 1d06c <g_88>
   1709c:	48 89 85 40 f4 ff ff 	mov    %rax,-0xbc0(%rbp)
   170a3:	48 8d 05 c2 5f 00 00 	lea    0x5fc2(%rip),%rax        # 1d06c <g_88>
   170aa:	48 89 85 48 f4 ff ff 	mov    %rax,-0xbb8(%rbp)
   170b1:	48 c7 85 50 f4 ff ff 	movq   $0x0,-0xbb0(%rbp)
   170b8:	00 00 00 00 
   170bc:	48 c7 85 58 f4 ff ff 	movq   $0x0,-0xba8(%rbp)
   170c3:	00 00 00 00 
   170c7:	48 8d 05 9e 5f 00 00 	lea    0x5f9e(%rip),%rax        # 1d06c <g_88>
   170ce:	48 89 85 60 f4 ff ff 	mov    %rax,-0xba0(%rbp)
   170d5:	48 8d 05 90 5f 00 00 	lea    0x5f90(%rip),%rax        # 1d06c <g_88>
   170dc:	48 89 85 68 f4 ff ff 	mov    %rax,-0xb98(%rbp)
   170e3:	48 8d 05 82 5f 00 00 	lea    0x5f82(%rip),%rax        # 1d06c <g_88>
   170ea:	48 89 85 70 f4 ff ff 	mov    %rax,-0xb90(%rbp)
   170f1:	48 c7 85 78 f4 ff ff 	movq   $0x0,-0xb88(%rbp)
   170f8:	00 00 00 00 
   170fc:	48 8b 85 a8 f1 ff ff 	mov    -0xe58(%rbp),%rax
   17103:	48 8b 10             	mov    (%rax),%rdx
   17106:	48 8b 05 d3 88 00 00 	mov    0x88d3(%rip),%rax        # 1f9e0 <g_170>
   1710d:	48 8b 00             	mov    (%rax),%rax
   17110:	48 39 c2             	cmp    %rax,%rdx
   17113:	0f 94 c0             	sete   %al
   17116:	0f b6 d0             	movzbl %al,%edx
   17119:	48 8b 85 b8 f1 ff ff 	mov    -0xe48(%rbp),%rax
   17120:	48 89 05 d9 88 00 00 	mov    %rax,0x88d9(%rip)        # 1fa00 <g_227>
   17127:	48 8b 0d d2 88 00 00 	mov    0x88d2(%rip),%rcx        # 1fa00 <g_227>
   1712e:	48 8b 85 b8 f1 ff ff 	mov    -0xe48(%rbp),%rax
   17135:	48 39 c1             	cmp    %rax,%rcx
   17138:	0f 95 c0             	setne  %al
   1713b:	0f b6 c0             	movzbl %al,%eax
   1713e:	39 c2                	cmp    %eax,%edx
   17140:	0f 9d c0             	setge  %al
   17143:	0f b6 c0             	movzbl %al,%eax
   17146:	89 c2                	mov    %eax,%edx
   17148:	0f b7 05 49 a2 00 00 	movzwl 0xa249(%rip),%eax        # 21398 <g_101>
   1714f:	09 d0                	or     %edx,%eax
   17151:	66 89 05 40 a2 00 00 	mov    %ax,0xa240(%rip)        # 21398 <g_101>
   17158:	0f b7 05 3b a2 00 00 	movzwl 0xa23b(%rip),%eax        # 2139a <g_231>
   1715f:	66 89 05 34 a2 00 00 	mov    %ax,0xa234(%rip)        # 2139a <g_231>
   17166:	44 0f b7 2d 2c a2 00 	movzwl 0xa22c(%rip),%r13d        # 2139a <g_231>
   1716d:	00 
   1716e:	48 8b 85 f0 f0 ff ff 	mov    -0xf10(%rbp),%rax
   17175:	0f b6 00             	movzbl (%rax),%eax
   17178:	0f be d8             	movsbl %al,%ebx
   1717b:	44 8b a5 98 f1 ff ff 	mov    -0xe68(%rbp),%r12d
   17182:	8b 05 e4 5e 00 00    	mov    0x5ee4(%rip),%eax        # 1d06c <g_88>
   17188:	41 89 c6             	mov    %eax,%r14d
   1718b:	48 8b 85 a8 f1 ff ff 	mov    -0xe58(%rbp),%rax
   17192:	48 8b 00             	mov    (%rax),%rax
   17195:	8b 00                	mov    (%rax),%eax
   17197:	41 89 c7             	mov    %eax,%r15d
   1719a:	48 8b 85 f8 f0 ff ff 	mov    -0xf08(%rbp),%rax
   171a1:	48 8b 00             	mov    (%rax),%rax
   171a4:	0f b6 00             	movzbl (%rax),%eax
   171a7:	0f b6 d0             	movzbl %al,%edx
   171aa:	48 8b 85 a8 f1 ff ff 	mov    -0xe58(%rbp),%rax
   171b1:	48 8b 00             	mov    (%rax),%rax
   171b4:	8b 00                	mov    (%rax),%eax
   171b6:	0f b6 c0             	movzbl %al,%eax
   171b9:	89 d6                	mov    %edx,%esi
   171bb:	89 c7                	mov    %eax,%edi
   171bd:	e8 d1 39 ff ff       	callq  ab93 <safe_mul_func_uint8_t_u_u>
   171c2:	0f b6 c0             	movzbl %al,%eax
   171c5:	be 0a 00 00 00       	mov    $0xa,%esi
   171ca:	89 c7                	mov    %eax,%edi
   171cc:	e8 35 3c ff ff       	callq  ae06 <safe_lshift_func_uint16_t_u_u>
   171d1:	0f b7 d0             	movzwl %ax,%edx
   171d4:	48 8b 05 fd 87 00 00 	mov    0x87fd(%rip),%rax        # 1f9d8 <g_171>
   171db:	8b 00                	mov    (%rax),%eax
   171dd:	31 d0                	xor    %edx,%eax
   171df:	44 89 fe             	mov    %r15d,%esi
   171e2:	89 c7                	mov    %eax,%edi
   171e4:	e8 cf 3c ff ff       	callq  aeb8 <safe_add_func_uint32_t_u_u>
   171e9:	0f b6 c0             	movzbl %al,%eax
   171ec:	89 c7                	mov    %eax,%edi
   171ee:	e8 52 39 ff ff       	callq  ab45 <safe_unary_minus_func_uint8_t_u>
   171f3:	0f b6 d0             	movzbl %al,%edx
   171f6:	48 8b 85 f0 f0 ff ff 	mov    -0xf10(%rbp),%rax
   171fd:	0f b6 00             	movzbl (%rax),%eax
   17200:	0f be c0             	movsbl %al,%eax
   17203:	39 c2                	cmp    %eax,%edx
   17205:	0f 94 c2             	sete   %dl
   17208:	48 8b 85 d0 f2 ff ff 	mov    -0xd30(%rbp),%rax
   1720f:	48 8b 00             	mov    (%rax),%rax
   17212:	48 8b 00             	mov    (%rax),%rax
   17215:	0f b6 d2             	movzbl %dl,%edx
   17218:	89 10                	mov    %edx,(%rax)
   1721a:	8b 00                	mov    (%rax),%eax
   1721c:	48 98                	cltq   
   1721e:	4c 89 f6             	mov    %r14,%rsi
   17221:	48 89 c7             	mov    %rax,%rdi
   17224:	e8 8b 37 ff ff       	callq  a9b4 <safe_mod_func_int64_t_s_s>
   17229:	48 8b 85 f8 f0 ff ff 	mov    -0xf08(%rbp),%rax
   17230:	48 8b 00             	mov    (%rax),%rax
   17233:	0f b6 00             	movzbl (%rax),%eax
   17236:	0f be c0             	movsbl %al,%eax
   17239:	44 89 e6             	mov    %r12d,%esi
   1723c:	89 c7                	mov    %eax,%edi
   1723e:	e8 29 31 ff ff       	callq  a36c <safe_rshift_func_int8_t_s_u>
   17243:	0f be c0             	movsbl %al,%eax
   17246:	89 85 98 f1 ff ff    	mov    %eax,-0xe68(%rbp)
   1724c:	8b 85 98 f1 ff ff    	mov    -0xe68(%rbp),%eax
   17252:	0f be c0             	movsbl %al,%eax
   17255:	89 de                	mov    %ebx,%esi
   17257:	89 c7                	mov    %eax,%edi
   17259:	e8 d7 30 ff ff       	callq  a335 <safe_rshift_func_int8_t_s_s>
   1725e:	66 98                	cbtw   
   17260:	66 41 39 c5          	cmp    %ax,%r13w
   17264:	0f 9d c0             	setge  %al
   17267:	0f b6 c0             	movzbl %al,%eax
   1726a:	be 02 00 00 00       	mov    $0x2,%esi
   1726f:	89 c7                	mov    %eax,%edi
   17271:	e8 17 3a ff ff       	callq  ac8d <safe_rshift_func_uint8_t_u_s>
   17276:	0f b6 d0             	movzbl %al,%edx
   17279:	8b 05 f9 5d 00 00    	mov    0x5df9(%rip),%eax        # 1d078 <g_143>
   1727f:	39 c2                	cmp    %eax,%edx
   17281:	7e 17                	jle    1729a <func_67+0x12b1>
   17283:	48 8b 85 a8 f1 ff ff 	mov    -0xe58(%rbp),%rax
   1728a:	48 8b 00             	mov    (%rax),%rax
   1728d:	8b 00                	mov    (%rax),%eax
   1728f:	85 c0                	test   %eax,%eax
   17291:	74 07                	je     1729a <func_67+0x12b1>
   17293:	b8 01 00 00 00       	mov    $0x1,%eax
   17298:	eb 05                	jmp    1729f <func_67+0x12b6>
   1729a:	b8 00 00 00 00       	mov    $0x0,%eax
   1729f:	23 85 9c f1 ff ff    	and    -0xe64(%rbp),%eax
   172a5:	89 c2                	mov    %eax,%edx
   172a7:	8b 85 fc f2 ff ff    	mov    -0xd04(%rbp),%eax
   172ad:	31 d0                	xor    %edx,%eax
   172af:	48 63 d0             	movslq %eax,%rdx
   172b2:	48 8b 05 b7 5d 00 00 	mov    0x5db7(%rip),%rax        # 1d070 <g_96>
   172b9:	48 39 c2             	cmp    %rax,%rdx
   172bc:	b8 00 00 00 00       	mov    $0x0,%eax
   172c1:	89 c2                	mov    %eax,%edx
   172c3:	8b 05 b3 5d 00 00    	mov    0x5db3(%rip),%eax        # 1d07c <g_153>
   172c9:	09 d0                	or     %edx,%eax
   172cb:	89 05 ab 5d 00 00    	mov    %eax,0x5dab(%rip)        # 1d07c <g_153>
   172d1:	8b 05 a5 5d 00 00    	mov    0x5da5(%rip),%eax        # 1d07c <g_153>
   172d7:	09 85 4c f1 ff ff    	or     %eax,-0xeb4(%rbp)
   172dd:	48 c7 05 88 5d 00 00 	movq   $0x1,0x5d88(%rip)        # 1d070 <g_96>
   172e4:	01 00 00 00 
   172e8:	e9 a2 00 00 00       	jmpq   1738f <func_67+0x13a6>
   172ed:	c7 85 54 f1 ff ff 07 	movl   $0x4d81c507,-0xeac(%rbp)
   172f4:	c5 81 4d 
   172f7:	c7 85 4c f1 ff ff 04 	movl   $0x4,-0xeb4(%rbp)
   172fe:	00 00 00 
   17301:	eb 71                	jmp    17374 <func_67+0x138b>
   17303:	c7 85 a4 f1 ff ff 08 	movl   $0x8,-0xe5c(%rbp)
   1730a:	00 00 00 
   1730d:	c7 85 58 f1 ff ff 00 	movl   $0x0,-0xea8(%rbp)
   17314:	00 00 00 
   17317:	eb 25                	jmp    1733e <func_67+0x1355>
   17319:	8b 85 58 f1 ff ff    	mov    -0xea8(%rbp),%eax
   1731f:	48 98                	cltq   
   17321:	48 8d 95 e0 f5 ff ff 	lea    -0xa20(%rbp),%rdx
   17328:	48 81 c2 fc 00 00 00 	add    $0xfc,%rdx
   1732f:	48 89 94 c5 20 f3 ff 	mov    %rdx,-0xce0(%rbp,%rax,8)
   17336:	ff 
   17337:	83 85 58 f1 ff ff 01 	addl   $0x1,-0xea8(%rbp)
   1733e:	83 bd 58 f1 ff ff 05 	cmpl   $0x5,-0xea8(%rbp)
   17345:	7e d2                	jle    17319 <func_67+0x1330>
   17347:	c7 85 98 f1 ff ff 40 	movl   $0x51550140,-0xe68(%rbp)
   1734e:	01 55 51 
   17351:	48 8b 05 80 86 00 00 	mov    0x8680(%rip),%rax        # 1f9d8 <g_171>
   17358:	c7 00 3f 9f 74 6c    	movl   $0x6c749f3f,(%rax)
   1735e:	8b 00                	mov    (%rax),%eax
   17360:	21 85 54 f1 ff ff    	and    %eax,-0xeac(%rbp)
   17366:	83 ad a4 f1 ff ff 01 	subl   $0x1,-0xe5c(%rbp)
   1736d:	83 ad 4c f1 ff ff 01 	subl   $0x1,-0xeb4(%rbp)
   17374:	83 bd 4c f1 ff ff 00 	cmpl   $0x0,-0xeb4(%rbp)
   1737b:	7f 86                	jg     17303 <func_67+0x131a>
   1737d:	48 8b 05 ec 5c 00 00 	mov    0x5cec(%rip),%rax        # 1d070 <g_96>
   17384:	48 83 c0 01          	add    $0x1,%rax
   17388:	48 89 05 e1 5c 00 00 	mov    %rax,0x5ce1(%rip)        # 1d070 <g_96>
   1738f:	48 8b 05 da 5c 00 00 	mov    0x5cda(%rip),%rax        # 1d070 <g_96>
   17396:	48 83 f8 04          	cmp    $0x4,%rax
   1739a:	0f 8e 4d ff ff ff    	jle    172ed <func_67+0x1304>
   173a0:	0f b6 05 90 5c 00 00 	movzbl 0x5c90(%rip),%eax        # 1d037 <g_2+0x7>
   173a7:	0f b6 d8             	movzbl %al,%ebx
   173aa:	48 8b 05 ef 9f 00 00 	mov    0x9fef(%rip),%rax        # 213a0 <g_257>
   173b1:	48 8b 85 d0 f2 ff ff 	mov    -0xd30(%rbp),%rax
   173b8:	48 8b 00             	mov    (%rax),%rax
   173bb:	48 8b 00             	mov    (%rax),%rax
   173be:	8b 00                	mov    (%rax),%eax
   173c0:	48 63 d0             	movslq %eax,%rdx
   173c3:	48 8b 05 be 5c 00 00 	mov    0x5cbe(%rip),%rax        # 1d088 <g_185>
   173ca:	48 39 c2             	cmp    %rax,%rdx
   173cd:	7c 30                	jl     173ff <func_67+0x1416>
   173cf:	0f b6 85 7d f3 ff ff 	movzbl -0xc83(%rbp),%eax
   173d6:	0f be c0             	movsbl %al,%eax
   173d9:	be 09 00 00 00       	mov    $0x9,%esi
   173de:	89 c7                	mov    %eax,%edi
   173e0:	e8 2d 2e ff ff       	callq  a212 <safe_mul_func_int8_t_s_s>
   173e5:	0f be c0             	movsbl %al,%eax
   173e8:	be 00 00 00 00       	mov    $0x0,%esi
   173ed:	89 c7                	mov    %eax,%edi
   173ef:	e8 11 32 ff ff       	callq  a605 <safe_sub_func_int32_t_s_s>
   173f4:	85 c0                	test   %eax,%eax
   173f6:	74 07                	je     173ff <func_67+0x1416>
   173f8:	ba 01 00 00 00       	mov    $0x1,%edx
   173fd:	eb 05                	jmp    17404 <func_67+0x141b>
   173ff:	ba 00 00 00 00       	mov    $0x0,%edx
   17404:	48 8b 85 d0 f2 ff ff 	mov    -0xd30(%rbp),%rax
   1740b:	48 8b 00             	mov    (%rax),%rax
   1740e:	48 8b 00             	mov    (%rax),%rax
   17411:	89 10                	mov    %edx,(%rax)
   17413:	44 8b 20             	mov    (%rax),%r12d
   17416:	0f b7 85 0c f1 ff ff 	movzwl -0xef4(%rbp),%eax
   1741d:	0f b6 c0             	movzbl %al,%eax
   17420:	89 c6                	mov    %eax,%esi
   17422:	bf c5 00 00 00       	mov    $0xc5,%edi
   17427:	e8 af 37 ff ff       	callq  abdb <safe_div_func_uint8_t_u_u>
   1742c:	0f b6 c0             	movzbl %al,%eax
   1742f:	41 39 c4             	cmp    %eax,%r12d
   17432:	0f 9f c0             	setg   %al
   17435:	0f b6 c0             	movzbl %al,%eax
   17438:	89 de                	mov    %ebx,%esi
   1743a:	89 c7                	mov    %eax,%edi
   1743c:	e8 07 3a ff ff       	callq  ae48 <safe_rshift_func_uint16_t_u_s>
   17441:	89 c2                	mov    %eax,%edx
   17443:	48 8b 05 ce 85 00 00 	mov    0x85ce(%rip),%rax        # 1fa18 <g_267>
   1744a:	0f b7 d2             	movzwl %dx,%edx
   1744d:	89 10                	mov    %edx,(%rax)
   1744f:	c7 85 4c f1 ff ff 0f 	movl   $0xf,-0xeb4(%rbp)
   17456:	00 00 00 
   17459:	e9 82 01 00 00       	jmpq   175e0 <func_67+0x15f7>
   1745e:	48 c7 85 d8 f2 ff ff 	movq   $0x0,-0xd28(%rbp)
   17465:	00 00 00 00 
   17469:	48 8b 85 d8 f2 ff ff 	mov    -0xd28(%rbp),%rax
   17470:	e9 9d 02 00 00       	jmpq   17712 <func_67+0x1729>
   17475:	48 c7 85 e8 f2 ff ff 	movq   $0x0,-0xd18(%rbp)
   1747c:	00 00 00 00 
   17480:	48 8d 85 b0 f1 ff ff 	lea    -0xe50(%rbp),%rax
   17487:	48 89 85 f0 f2 ff ff 	mov    %rax,-0xd10(%rbp)
   1748e:	c7 85 a0 f1 ff ff 7a 	movl   $0x33688d7a,-0xe60(%rbp)
   17495:	8d 68 33 
   17498:	8b 05 ba 5b 00 00    	mov    0x5bba(%rip),%eax        # 1d058 <g_29+0x8>
   1749e:	85 c0                	test   %eax,%eax
   174a0:	0f 84 cc 00 00 00    	je     17572 <func_67+0x1589>
   174a6:	48 8b 85 d0 f2 ff ff 	mov    -0xd30(%rbp),%rax
   174ad:	48 c7 00 00 00 00 00 	movq   $0x0,(%rax)
   174b4:	48 8b 85 d0 f2 ff ff 	mov    -0xd30(%rbp),%rax
   174bb:	48 8b 00             	mov    (%rax),%rax
   174be:	48 85 c0             	test   %rax,%rax
   174c1:	74 11                	je     174d4 <func_67+0x14eb>
   174c3:	8b 85 20 f1 ff ff    	mov    -0xee0(%rbp),%eax
   174c9:	85 c0                	test   %eax,%eax
   174cb:	74 07                	je     174d4 <func_67+0x14eb>
   174cd:	bb 01 00 00 00       	mov    $0x1,%ebx
   174d2:	eb 05                	jmp    174d9 <func_67+0x14f0>
   174d4:	bb 00 00 00 00       	mov    $0x0,%ebx
   174d9:	be 06 00 00 00       	mov    $0x6,%esi
   174de:	bf 01 00 00 00       	mov    $0x1,%edi
   174e3:	e8 84 2e ff ff       	callq  a36c <safe_rshift_func_int8_t_s_u>
   174e8:	48 8b 95 b0 f1 ff ff 	mov    -0xe50(%rbp),%rdx
   174ef:	48 8b 85 f0 f2 ff ff 	mov    -0xd10(%rbp),%rax
   174f6:	48 89 10             	mov    %rdx,(%rax)
   174f9:	48 8b 85 f0 f2 ff ff 	mov    -0xd10(%rbp),%rax
   17500:	48 8b 00             	mov    (%rax),%rax
   17503:	48 8d 15 62 5b 00 00 	lea    0x5b62(%rip),%rdx        # 1d06c <g_88>
   1750a:	48 39 d0             	cmp    %rdx,%rax
   1750d:	0f 95 c0             	setne  %al
   17510:	0f b6 d0             	movzbl %al,%edx
   17513:	48 8b 05 9e 84 00 00 	mov    0x849e(%rip),%rax        # 1f9b8 <g_72>
   1751a:	0f b6 00             	movzbl (%rax),%eax
   1751d:	66 98                	cbtw   
   1751f:	31 d0                	xor    %edx,%eax
   17521:	0f b7 c0             	movzwl %ax,%eax
   17524:	be 0f 00 00 00       	mov    $0xf,%esi
   17529:	89 c7                	mov    %eax,%edi
   1752b:	e8 18 39 ff ff       	callq  ae48 <safe_rshift_func_uint16_t_u_s>
   17530:	0f b7 c0             	movzwl %ax,%eax
   17533:	be 02 00 00 00       	mov    $0x2,%esi
   17538:	48 89 c7             	mov    %rax,%rdi
   1753b:	e8 40 3b ff ff       	callq  b080 <safe_mod_func_uint64_t_u_u>
   17540:	48 f7 d0             	not    %rax
   17543:	48 89 c2             	mov    %rax,%rdx
   17546:	8b 85 a0 f1 ff ff    	mov    -0xe60(%rbp),%eax
   1754c:	48 98                	cltq   
   1754e:	48 39 c2             	cmp    %rax,%rdx
   17551:	0f 97 c0             	seta   %al
   17554:	0f b6 c0             	movzbl %al,%eax
   17557:	39 c3                	cmp    %eax,%ebx
   17559:	0f 9d c0             	setge  %al
   1755c:	0f b6 c0             	movzbl %al,%eax
   1755f:	be 0d 00 00 00       	mov    $0xd,%esi
   17564:	89 c7                	mov    %eax,%edi
   17566:	e8 bf 2f ff ff       	callq  a52a <safe_rshift_func_int16_t_s_s>
   1756b:	b8 01 00 00 00       	mov    $0x1,%eax
   17570:	eb 05                	jmp    17577 <func_67+0x158e>
   17572:	b8 00 00 00 00       	mov    $0x0,%eax
   17577:	be fb ff ff ff       	mov    $0xfffffffb,%esi
   1757c:	89 c7                	mov    %eax,%edi
   1757e:	e8 49 31 ff ff       	callq  a6cc <safe_mod_func_int32_t_s_s>
   17583:	8b 85 a0 f1 ff ff    	mov    -0xe60(%rbp),%eax
   17589:	09 85 50 f1 ff ff    	or     %eax,-0xeb0(%rbp)
   1758f:	48 c7 85 c0 f1 ff ff 	movq   $0xffffffffffffffe6,-0xe40(%rbp)
   17596:	e6 ff ff ff 
   1759a:	48 83 bd c0 f1 ff ff 	cmpq   $0x6,-0xe40(%rbp)
   175a1:	06 
   175a2:	74 0c                	je     175b0 <func_67+0x15c7>
   175a4:	48 8b 85 e8 f0 ff ff 	mov    -0xf18(%rbp),%rax
   175ab:	e9 62 01 00 00       	jmpq   17712 <func_67+0x1729>
   175b0:	48 8b 05 69 84 00 00 	mov    0x8469(%rip),%rax        # 1fa20 <g_290>
   175b7:	8b 08                	mov    (%rax),%ecx
   175b9:	48 8b 15 18 84 00 00 	mov    0x8418(%rip),%rdx        # 1f9d8 <g_171>
   175c0:	8b 12                	mov    (%rdx),%edx
   175c2:	21 ca                	and    %ecx,%edx
   175c4:	89 10                	mov    %edx,(%rax)
   175c6:	8b 85 4c f1 ff ff    	mov    -0xeb4(%rbp),%eax
   175cc:	98                   	cwtl   
   175cd:	be 01 00 00 00       	mov    $0x1,%esi
   175d2:	89 c7                	mov    %eax,%edi
   175d4:	e8 da 2d ff ff       	callq  a3b3 <safe_add_func_int16_t_s_s>
   175d9:	98                   	cwtl   
   175da:	89 85 4c f1 ff ff    	mov    %eax,-0xeb4(%rbp)
   175e0:	83 bd 4c f1 ff ff 1c 	cmpl   $0x1c,-0xeb4(%rbp)
   175e7:	0f 85 88 fe ff ff    	jne    17475 <func_67+0x148c>
   175ed:	48 8b 85 e8 f0 ff ff 	mov    -0xf18(%rbp),%rax
   175f4:	e9 19 01 00 00       	jmpq   17712 <func_67+0x1729>
   175f9:	0f b6 05 48 5a 00 00 	movzbl 0x5a48(%rip),%eax        # 1d048 <g_13>
   17600:	0f be c0             	movsbl %al,%eax
   17603:	be 07 00 00 00       	mov    $0x7,%esi
   17608:	89 c7                	mov    %eax,%edi
   1760a:	e8 a7 2f ff ff       	callq  a5b6 <safe_add_func_int32_t_s_s>
   1760f:	88 05 33 5a 00 00    	mov    %al,0x5a33(%rip)        # 1d048 <g_13>
   17615:	0f b6 05 2c 5a 00 00 	movzbl 0x5a2c(%rip),%eax        # 1d048 <g_13>
   1761c:	3c f9                	cmp    $0xf9,%al
   1761e:	0f 8d 82 eb ff ff    	jge    161a6 <func_67+0x1bd>
   17624:	c7 85 44 f1 ff ff 05 	movl   $0x5,-0xebc(%rbp)
   1762b:	00 00 00 
   1762e:	e9 cb 00 00 00       	jmpq   176fe <func_67+0x1715>
   17633:	48 b8 47 ef b6 67 05 	movabs $0xe8953b0567b6ef47,%rax
   1763a:	3b 95 e8 
   1763d:	48 89 85 e0 f1 ff ff 	mov    %rax,-0xe20(%rbp)
   17644:	48 c7 85 e8 f1 ff ff 	movq   $0x0,-0xe18(%rbp)
   1764b:	00 00 00 00 
   1764f:	48 8d 05 42 9d 00 00 	lea    0x9d42(%rip),%rax        # 21398 <g_101>
   17656:	48 89 85 f0 f1 ff ff 	mov    %rax,-0xe10(%rbp)
   1765d:	48 8d 05 c4 83 00 00 	lea    0x83c4(%rip),%rax        # 1fa28 <g_306>
   17664:	48 89 85 b0 f8 ff ff 	mov    %rax,-0x750(%rbp)
   1766b:	48 8d 05 b6 83 00 00 	lea    0x83b6(%rip),%rax        # 1fa28 <g_306>
   17672:	48 89 85 b8 f8 ff ff 	mov    %rax,-0x748(%rbp)
   17679:	48 8d 05 a8 83 00 00 	lea    0x83a8(%rip),%rax        # 1fa28 <g_306>
   17680:	48 89 85 c0 f8 ff ff 	mov    %rax,-0x740(%rbp)
   17687:	48 8d 05 9a 83 00 00 	lea    0x839a(%rip),%rax        # 1fa28 <g_306>
   1768e:	48 89 85 c8 f8 ff ff 	mov    %rax,-0x738(%rbp)
   17695:	48 8d 05 8c 83 00 00 	lea    0x838c(%rip),%rax        # 1fa28 <g_306>
   1769c:	48 89 85 d0 f8 ff ff 	mov    %rax,-0x730(%rbp)
   176a3:	48 8d 05 7e 83 00 00 	lea    0x837e(%rip),%rax        # 1fa28 <g_306>
   176aa:	48 89 85 d8 f8 ff ff 	mov    %rax,-0x728(%rbp)
   176b1:	48 8d 05 70 83 00 00 	lea    0x8370(%rip),%rax        # 1fa28 <g_306>
   176b8:	48 89 85 e0 f8 ff ff 	mov    %rax,-0x720(%rbp)
   176bf:	48 8d 05 62 83 00 00 	lea    0x8362(%rip),%rax        # 1fa28 <g_306>
   176c6:	48 89 85 e8 f8 ff ff 	mov    %rax,-0x718(%rbp)
   176cd:	48 8d 05 54 83 00 00 	lea    0x8354(%rip),%rax        # 1fa28 <g_306>
   176d4:	48 89 85 f0 f8 ff ff 	mov    %rax,-0x710(%rbp)
   176db:	48 8d 05 59 59 00 00 	lea    0x5959(%rip),%rax        # 1d03b <g_2+0xb>
   176e2:	48 89 85 f8 f1 ff ff 	mov    %rax,-0xe08(%rbp)
   176e9:	48 8d 85 b0 f1 ff ff 	lea    -0xe50(%rbp),%rax
   176f0:	48 89 85 00 f2 ff ff 	mov    %rax,-0xe00(%rbp)
   176f7:	83 ad 44 f1 ff ff 01 	subl   $0x1,-0xebc(%rbp)
   176fe:	83 bd 44 f1 ff ff 00 	cmpl   $0x0,-0xebc(%rbp)
   17705:	0f 89 28 ff ff ff    	jns    17633 <func_67+0x164a>
   1770b:	48 8b 85 e8 f0 ff ff 	mov    -0xf18(%rbp),%rax
   17712:	48 8b 5d c8          	mov    -0x38(%rbp),%rbx
   17716:	64 48 33 1c 25 28 00 	xor    %fs:0x28,%rbx
   1771d:	00 00 
   1771f:	74 05                	je     17726 <func_67+0x173d>
   17721:	e8 4a 29 ff ff       	callq  a070 <__stack_chk_fail@plt>
   17726:	48 81 c4 f8 0e 00 00 	add    $0xef8,%rsp
   1772d:	5b                   	pop    %rbx
   1772e:	41 5c                	pop    %r12
   17730:	41 5d                	pop    %r13
   17732:	41 5e                	pop    %r14
   17734:	41 5f                	pop    %r15
   17736:	5d                   	pop    %rbp
   17737:	c3                   	retq   

0000000000017738 <main>:
   17738:	f3 0f 1e fa          	endbr64 
   1773c:	55                   	push   %rbp
   1773d:	48 89 e5             	mov    %rsp,%rbp
   17740:	48 83 ec 20          	sub    $0x20,%rsp
   17744:	89 7d ec             	mov    %edi,-0x14(%rbp)
   17747:	48 89 75 e0          	mov    %rsi,-0x20(%rbp)
   1774b:	c7 45 fc 00 00 00 00 	movl   $0x0,-0x4(%rbp)
   17752:	83 7d ec 02          	cmpl   $0x2,-0x14(%rbp)
   17756:	75 25                	jne    1777d <main+0x45>
   17758:	48 8b 45 e0          	mov    -0x20(%rbp),%rax
   1775c:	48 83 c0 08          	add    $0x8,%rax
   17760:	48 8b 00             	mov    (%rax),%rax
   17763:	48 8d 35 a6 2b 00 00 	lea    0x2ba6(%rip),%rsi        # 1a310 <g_1504+0x12ac>
   1776a:	48 89 c7             	mov    %rax,%rdi
   1776d:	e8 1e 29 ff ff       	callq  a090 <strcmp@plt>
   17772:	85 c0                	test   %eax,%eax
   17774:	75 07                	jne    1777d <main+0x45>
   17776:	c7 45 fc 01 00 00 00 	movl   $0x1,-0x4(%rbp)
   1777d:	e8 07 2a ff ff       	callq  a189 <platform_main_begin>
   17782:	e8 11 3e ff ff       	callq  b598 <crc32_gentab>
   17787:	e8 29 40 ff ff       	callq  b7b5 <func_1>
   1778c:	c7 45 f0 00 00 00 00 	movl   $0x0,-0x10(%rbp)
   17793:	eb 72                	jmp    17807 <main+0xcf>
   17795:	c7 45 f4 00 00 00 00 	movl   $0x0,-0xc(%rbp)
   1779c:	eb 5f                	jmp    177fd <main+0xc5>
   1779e:	8b 45 f4             	mov    -0xc(%rbp),%eax
   177a1:	48 63 c8             	movslq %eax,%rcx
   177a4:	8b 45 f0             	mov    -0x10(%rbp),%eax
   177a7:	48 63 d0             	movslq %eax,%rdx
   177aa:	48 89 d0             	mov    %rdx,%rax
   177ad:	48 c1 e0 03          	shl    $0x3,%rax
   177b1:	48 01 d0             	add    %rdx,%rax
   177b4:	48 8d 14 08          	lea    (%rax,%rcx,1),%rdx
   177b8:	48 8d 05 71 58 00 00 	lea    0x5871(%rip),%rax        # 1d030 <g_2>
   177bf:	48 01 d0             	add    %rdx,%rax
   177c2:	0f b6 00             	movzbl (%rax),%eax
   177c5:	0f b6 c0             	movzbl %al,%eax
   177c8:	8b 55 fc             	mov    -0x4(%rbp),%edx
   177cb:	48 8d 35 40 2b 00 00 	lea    0x2b40(%rip),%rsi        # 1a312 <g_1504+0x12ae>
   177d2:	48 89 c7             	mov    %rax,%rdi
   177d5:	e8 19 3f ff ff       	callq  b6f3 <transparent_crc>
   177da:	83 7d fc 00          	cmpl   $0x0,-0x4(%rbp)
   177de:	74 19                	je     177f9 <main+0xc1>
   177e0:	8b 55 f4             	mov    -0xc(%rbp),%edx
   177e3:	8b 45 f0             	mov    -0x10(%rbp),%eax
   177e6:	89 c6                	mov    %eax,%esi
   177e8:	48 8d 3d 2d 2b 00 00 	lea    0x2b2d(%rip),%rdi        # 1a31c <g_1504+0x12b8>
   177ef:	b8 00 00 00 00       	mov    $0x0,%eax
   177f4:	e8 87 28 ff ff       	callq  a080 <printf@plt>
   177f9:	83 45 f4 01          	addl   $0x1,-0xc(%rbp)
   177fd:	83 7d f4 08          	cmpl   $0x8,-0xc(%rbp)
   17801:	7e 9b                	jle    1779e <main+0x66>
   17803:	83 45 f0 01          	addl   $0x1,-0x10(%rbp)
   17807:	83 7d f0 01          	cmpl   $0x1,-0x10(%rbp)
   1780b:	7e 88                	jle    17795 <main+0x5d>
   1780d:	8b 05 31 58 00 00    	mov    0x5831(%rip),%eax        # 1d044 <g_7>
   17813:	48 98                	cltq   
   17815:	8b 55 fc             	mov    -0x4(%rbp),%edx
   17818:	48 8d 35 0f 2b 00 00 	lea    0x2b0f(%rip),%rsi        # 1a32e <g_1504+0x12ca>
   1781f:	48 89 c7             	mov    %rax,%rdi
   17822:	e8 cc 3e ff ff       	callq  b6f3 <transparent_crc>
   17827:	0f b6 05 1a 58 00 00 	movzbl 0x581a(%rip),%eax        # 1d048 <g_13>
   1782e:	48 0f be c0          	movsbq %al,%rax
   17832:	8b 55 fc             	mov    -0x4(%rbp),%edx
   17835:	48 8d 35 f6 2a 00 00 	lea    0x2af6(%rip),%rsi        # 1a332 <g_1504+0x12ce>
   1783c:	48 89 c7             	mov    %rax,%rdi
   1783f:	e8 af 3e ff ff       	callq  b6f3 <transparent_crc>
   17844:	c7 45 f0 00 00 00 00 	movl   $0x0,-0x10(%rbp)
   1784b:	eb 4b                	jmp    17898 <main+0x160>
   1784d:	8b 45 f0             	mov    -0x10(%rbp),%eax
   17850:	48 98                	cltq   
   17852:	48 8d 14 85 00 00 00 	lea    0x0(,%rax,4),%rdx
   17859:	00 
   1785a:	48 8d 05 ef 57 00 00 	lea    0x57ef(%rip),%rax        # 1d050 <g_29>
   17861:	8b 04 02             	mov    (%rdx,%rax,1),%eax
   17864:	48 98                	cltq   
   17866:	8b 55 fc             	mov    -0x4(%rbp),%edx
   17869:	48 8d 35 c7 2a 00 00 	lea    0x2ac7(%rip),%rsi        # 1a337 <g_1504+0x12d3>
   17870:	48 89 c7             	mov    %rax,%rdi
   17873:	e8 7b 3e ff ff       	callq  b6f3 <transparent_crc>
   17878:	83 7d fc 00          	cmpl   $0x0,-0x4(%rbp)
   1787c:	74 16                	je     17894 <main+0x15c>
   1787e:	8b 45 f0             	mov    -0x10(%rbp),%eax
   17881:	89 c6                	mov    %eax,%esi
   17883:	48 8d 3d b5 2a 00 00 	lea    0x2ab5(%rip),%rdi        # 1a33f <g_1504+0x12db>
   1788a:	b8 00 00 00 00       	mov    $0x0,%eax
   1788f:	e8 ec 27 ff ff       	callq  a080 <printf@plt>
   17894:	83 45 f0 01          	addl   $0x1,-0x10(%rbp)
   17898:	83 7d f0 05          	cmpl   $0x5,-0x10(%rbp)
   1789c:	7e af                	jle    1784d <main+0x115>
   1789e:	8b 05 c4 57 00 00    	mov    0x57c4(%rip),%eax        # 1d068 <g_76>
   178a4:	48 98                	cltq   
   178a6:	8b 55 fc             	mov    -0x4(%rbp),%edx
   178a9:	48 8d 35 9d 2a 00 00 	lea    0x2a9d(%rip),%rsi        # 1a34d <g_1504+0x12e9>
   178b0:	48 89 c7             	mov    %rax,%rdi
   178b3:	e8 3b 3e ff ff       	callq  b6f3 <transparent_crc>
   178b8:	8b 05 ae 57 00 00    	mov    0x57ae(%rip),%eax        # 1d06c <g_88>
   178be:	89 c1                	mov    %eax,%ecx
   178c0:	8b 45 fc             	mov    -0x4(%rbp),%eax
   178c3:	89 c2                	mov    %eax,%edx
   178c5:	48 8d 35 86 2a 00 00 	lea    0x2a86(%rip),%rsi        # 1a352 <g_1504+0x12ee>
   178cc:	48 89 cf             	mov    %rcx,%rdi
   178cf:	e8 1f 3e ff ff       	callq  b6f3 <transparent_crc>
   178d4:	48 8b 05 95 57 00 00 	mov    0x5795(%rip),%rax        # 1d070 <g_96>
   178db:	48 89 c1             	mov    %rax,%rcx
   178de:	8b 45 fc             	mov    -0x4(%rbp),%eax
   178e1:	89 c2                	mov    %eax,%edx
   178e3:	48 8d 35 6d 2a 00 00 	lea    0x2a6d(%rip),%rsi        # 1a357 <g_1504+0x12f3>
   178ea:	48 89 cf             	mov    %rcx,%rdi
   178ed:	e8 01 3e ff ff       	callq  b6f3 <transparent_crc>
   178f2:	0f b7 05 9f 9a 00 00 	movzwl 0x9a9f(%rip),%eax        # 21398 <g_101>
   178f9:	0f b7 c0             	movzwl %ax,%eax
   178fc:	8b 55 fc             	mov    -0x4(%rbp),%edx
   178ff:	48 8d 35 56 2a 00 00 	lea    0x2a56(%rip),%rsi        # 1a35c <g_1504+0x12f8>
   17906:	48 89 c7             	mov    %rax,%rdi
   17909:	e8 e5 3d ff ff       	callq  b6f3 <transparent_crc>
   1790e:	8b 05 64 57 00 00    	mov    0x5764(%rip),%eax        # 1d078 <g_143>
   17914:	48 98                	cltq   
   17916:	8b 55 fc             	mov    -0x4(%rbp),%edx
   17919:	48 8d 35 42 2a 00 00 	lea    0x2a42(%rip),%rsi        # 1a362 <g_1504+0x12fe>
   17920:	48 89 c7             	mov    %rax,%rdi
   17923:	e8 cb 3d ff ff       	callq  b6f3 <transparent_crc>
   17928:	8b 05 4e 57 00 00    	mov    0x574e(%rip),%eax        # 1d07c <g_153>
   1792e:	48 98                	cltq   
   17930:	8b 55 fc             	mov    -0x4(%rbp),%edx
   17933:	48 8d 35 2e 2a 00 00 	lea    0x2a2e(%rip),%rsi        # 1a368 <g_1504+0x1304>
   1793a:	48 89 c7             	mov    %rax,%rdi
   1793d:	e8 b1 3d ff ff       	callq  b6f3 <transparent_crc>
   17942:	0f b6 05 37 57 00 00 	movzbl 0x5737(%rip),%eax        # 1d080 <g_178>
   17949:	48 0f be c0          	movsbq %al,%rax
   1794d:	8b 55 fc             	mov    -0x4(%rbp),%edx
   17950:	48 8d 35 17 2a 00 00 	lea    0x2a17(%rip),%rsi        # 1a36e <g_1504+0x130a>
   17957:	48 89 c7             	mov    %rax,%rdi
   1795a:	e8 94 3d ff ff       	callq  b6f3 <transparent_crc>
   1795f:	48 8b 05 22 57 00 00 	mov    0x5722(%rip),%rax        # 1d088 <g_185>
   17966:	48 89 c1             	mov    %rax,%rcx
   17969:	8b 45 fc             	mov    -0x4(%rbp),%eax
   1796c:	89 c2                	mov    %eax,%edx
   1796e:	48 8d 35 02 2a 00 00 	lea    0x2a02(%rip),%rsi        # 1a377 <g_1504+0x1313>
   17975:	48 89 cf             	mov    %rcx,%rdi
   17978:	e8 76 3d ff ff       	callq  b6f3 <transparent_crc>
   1797d:	c7 45 f0 00 00 00 00 	movl   $0x0,-0x10(%rbp)
   17984:	eb 77                	jmp    179fd <main+0x2c5>
   17986:	c7 45 f4 00 00 00 00 	movl   $0x0,-0xc(%rbp)
   1798d:	eb 64                	jmp    179f3 <main+0x2bb>
   1798f:	8b 45 f4             	mov    -0xc(%rbp),%eax
   17992:	48 63 c8             	movslq %eax,%rcx
   17995:	8b 45 f0             	mov    -0x10(%rbp),%eax
   17998:	48 63 d0             	movslq %eax,%rdx
   1799b:	48 89 d0             	mov    %rdx,%rax
   1799e:	48 c1 e0 02          	shl    $0x2,%rax
   179a2:	48 01 d0             	add    %rdx,%rax
   179a5:	48 01 c0             	add    %rax,%rax
   179a8:	48 01 c8             	add    %rcx,%rax
   179ab:	48 8d 14 00          	lea    (%rax,%rax,1),%rdx
   179af:	48 8d 05 ea 56 00 00 	lea    0x56ea(%rip),%rax        # 1d0a0 <g_196>
   179b6:	0f b7 04 02          	movzwl (%rdx,%rax,1),%eax
   179ba:	48 0f bf c0          	movswq %ax,%rax
   179be:	8b 55 fc             	mov    -0x4(%rbp),%edx
   179c1:	48 8d 35 b5 29 00 00 	lea    0x29b5(%rip),%rsi        # 1a37d <g_1504+0x1319>
   179c8:	48 89 c7             	mov    %rax,%rdi
   179cb:	e8 23 3d ff ff       	callq  b6f3 <transparent_crc>
   179d0:	83 7d fc 00          	cmpl   $0x0,-0x4(%rbp)
   179d4:	74 19                	je     179ef <main+0x2b7>
   179d6:	8b 55 f4             	mov    -0xc(%rbp),%edx
   179d9:	8b 45 f0             	mov    -0x10(%rbp),%eax
   179dc:	89 c6                	mov    %eax,%esi
   179de:	48 8d 3d 37 29 00 00 	lea    0x2937(%rip),%rdi        # 1a31c <g_1504+0x12b8>
   179e5:	b8 00 00 00 00       	mov    $0x0,%eax
   179ea:	e8 91 26 ff ff       	callq  a080 <printf@plt>
   179ef:	83 45 f4 01          	addl   $0x1,-0xc(%rbp)
   179f3:	83 7d f4 09          	cmpl   $0x9,-0xc(%rbp)
   179f7:	7e 96                	jle    1798f <main+0x257>
   179f9:	83 45 f0 01          	addl   $0x1,-0x10(%rbp)
   179fd:	83 7d f0 02          	cmpl   $0x2,-0x10(%rbp)
   17a01:	7e 83                	jle    17986 <main+0x24e>
   17a03:	8b 05 d3 56 00 00    	mov    0x56d3(%rip),%eax        # 1d0dc <g_224>
   17a09:	89 c1                	mov    %eax,%ecx
   17a0b:	8b 45 fc             	mov    -0x4(%rbp),%eax
   17a0e:	89 c2                	mov    %eax,%edx
   17a10:	48 8d 35 72 29 00 00 	lea    0x2972(%rip),%rsi        # 1a389 <g_1504+0x1325>
   17a17:	48 89 cf             	mov    %rcx,%rdi
   17a1a:	e8 d4 3c ff ff       	callq  b6f3 <transparent_crc>
   17a1f:	0f b6 05 b6 56 00 00 	movzbl 0x56b6(%rip),%eax        # 1d0dc <g_224>
   17a26:	0f b6 c0             	movzbl %al,%eax
   17a29:	8b 55 fc             	mov    -0x4(%rbp),%edx
   17a2c:	48 8d 35 5f 29 00 00 	lea    0x295f(%rip),%rsi        # 1a392 <g_1504+0x132e>
   17a33:	48 89 c7             	mov    %rax,%rdi
   17a36:	e8 b8 3c ff ff       	callq  b6f3 <transparent_crc>
   17a3b:	8b 05 9b 56 00 00    	mov    0x569b(%rip),%eax        # 1d0dc <g_224>
   17a41:	48 98                	cltq   
   17a43:	8b 55 fc             	mov    -0x4(%rbp),%edx
   17a46:	48 8d 35 4e 29 00 00 	lea    0x294e(%rip),%rsi        # 1a39b <g_1504+0x1337>
   17a4d:	48 89 c7             	mov    %rax,%rdi
   17a50:	e8 9e 3c ff ff       	callq  b6f3 <transparent_crc>
   17a55:	0f b7 05 3e 99 00 00 	movzwl 0x993e(%rip),%eax        # 2139a <g_231>
   17a5c:	48 0f bf c0          	movswq %ax,%rax
   17a60:	8b 55 fc             	mov    -0x4(%rbp),%edx
   17a63:	48 8d 35 3a 29 00 00 	lea    0x293a(%rip),%rsi        # 1a3a4 <g_1504+0x1340>
   17a6a:	48 89 c7             	mov    %rax,%rdi
   17a6d:	e8 81 3c ff ff       	callq  b6f3 <transparent_crc>
   17a72:	8b 05 28 99 00 00    	mov    0x9928(%rip),%eax        # 213a0 <g_257>
   17a78:	48 98                	cltq   
   17a7a:	8b 55 fc             	mov    -0x4(%rbp),%edx
   17a7d:	48 8d 35 26 29 00 00 	lea    0x2926(%rip),%rsi        # 1a3aa <g_1504+0x1346>
   17a84:	48 89 c7             	mov    %rax,%rdi
   17a87:	e8 67 3c ff ff       	callq  b6f3 <transparent_crc>
   17a8c:	0f b6 05 0d 99 00 00 	movzbl 0x990d(%rip),%eax        # 213a0 <g_257>
   17a93:	48 0f be c0          	movsbq %al,%rax
   17a97:	8b 55 fc             	mov    -0x4(%rbp),%edx
   17a9a:	48 8d 35 12 29 00 00 	lea    0x2912(%rip),%rsi        # 1a3b3 <g_1504+0x134f>
   17aa1:	48 89 c7             	mov    %rax,%rdi
   17aa4:	e8 4a 3c ff ff       	callq  b6f3 <transparent_crc>
   17aa9:	8b 05 31 56 00 00    	mov    0x5631(%rip),%eax        # 1d0e0 <g_394>
   17aaf:	48 98                	cltq   
   17ab1:	8b 55 fc             	mov    -0x4(%rbp),%edx
   17ab4:	48 8d 35 01 29 00 00 	lea    0x2901(%rip),%rsi        # 1a3bc <g_1504+0x1358>
   17abb:	48 89 c7             	mov    %rax,%rdi
   17abe:	e8 30 3c ff ff       	callq  b6f3 <transparent_crc>
   17ac3:	8b 05 1f 56 00 00    	mov    0x561f(%rip),%eax        # 1d0e8 <g_443>
   17ac9:	48 98                	cltq   
   17acb:	8b 55 fc             	mov    -0x4(%rbp),%edx
   17ace:	48 8d 35 ed 28 00 00 	lea    0x28ed(%rip),%rsi        # 1a3c2 <g_1504+0x135e>
   17ad5:	48 89 c7             	mov    %rax,%rdi
   17ad8:	e8 16 3c ff ff       	callq  b6f3 <transparent_crc>
   17add:	0f b6 05 04 56 00 00 	movzbl 0x5604(%rip),%eax        # 1d0e8 <g_443>
   17ae4:	48 0f be c0          	movsbq %al,%rax
   17ae8:	8b 55 fc             	mov    -0x4(%rbp),%edx
   17aeb:	48 8d 35 d9 28 00 00 	lea    0x28d9(%rip),%rsi        # 1a3cb <g_1504+0x1367>
   17af2:	48 89 c7             	mov    %rax,%rdi
   17af5:	e8 f9 3b ff ff       	callq  b6f3 <transparent_crc>
   17afa:	8b 05 f0 55 00 00    	mov    0x55f0(%rip),%eax        # 1d0f0 <g_448>
   17b00:	48 98                	cltq   
   17b02:	8b 55 fc             	mov    -0x4(%rbp),%edx
   17b05:	48 8d 35 c8 28 00 00 	lea    0x28c8(%rip),%rsi        # 1a3d4 <g_1504+0x1370>
   17b0c:	48 89 c7             	mov    %rax,%rdi
   17b0f:	e8 df 3b ff ff       	callq  b6f3 <transparent_crc>
   17b14:	0f b7 05 d9 55 00 00 	movzwl 0x55d9(%rip),%eax        # 1d0f4 <g_470>
   17b1b:	48 0f bf c0          	movswq %ax,%rax
   17b1f:	8b 55 fc             	mov    -0x4(%rbp),%edx
   17b22:	48 8d 35 b1 28 00 00 	lea    0x28b1(%rip),%rsi        # 1a3da <g_1504+0x1376>
   17b29:	48 89 c7             	mov    %rax,%rdi
   17b2c:	e8 c2 3b ff ff       	callq  b6f3 <transparent_crc>
   17b31:	8b 05 c1 55 00 00    	mov    0x55c1(%rip),%eax        # 1d0f8 <g_506>
   17b37:	48 98                	cltq   
   17b39:	8b 55 fc             	mov    -0x4(%rbp),%edx
   17b3c:	48 8d 35 9d 28 00 00 	lea    0x289d(%rip),%rsi        # 1a3e0 <g_1504+0x137c>
   17b43:	48 89 c7             	mov    %rax,%rdi
   17b46:	e8 a8 3b ff ff       	callq  b6f3 <transparent_crc>
   17b4b:	0f b6 05 a6 55 00 00 	movzbl 0x55a6(%rip),%eax        # 1d0f8 <g_506>
   17b52:	48 0f be c0          	movsbq %al,%rax
   17b56:	8b 55 fc             	mov    -0x4(%rbp),%edx
   17b59:	48 8d 35 89 28 00 00 	lea    0x2889(%rip),%rsi        # 1a3e9 <g_1504+0x1385>
   17b60:	48 89 c7             	mov    %rax,%rdi
   17b63:	e8 8b 3b ff ff       	callq  b6f3 <transparent_crc>
   17b68:	48 8b 05 49 98 00 00 	mov    0x9849(%rip),%rax        # 213b8 <g_537>
   17b6f:	48 89 c1             	mov    %rax,%rcx
   17b72:	8b 45 fc             	mov    -0x4(%rbp),%eax
   17b75:	89 c2                	mov    %eax,%edx
   17b77:	48 8d 35 74 28 00 00 	lea    0x2874(%rip),%rsi        # 1a3f2 <g_1504+0x138e>
   17b7e:	48 89 cf             	mov    %rcx,%rdi
   17b81:	e8 6d 3b ff ff       	callq  b6f3 <transparent_crc>
   17b86:	0f b7 05 73 55 00 00 	movzwl 0x5573(%rip),%eax        # 1d100 <g_546>
   17b8d:	0f b7 c0             	movzwl %ax,%eax
   17b90:	8b 55 fc             	mov    -0x4(%rbp),%edx
   17b93:	48 8d 35 5e 28 00 00 	lea    0x285e(%rip),%rsi        # 1a3f8 <g_1504+0x1394>
   17b9a:	48 89 c7             	mov    %rax,%rdi
   17b9d:	e8 51 3b ff ff       	callq  b6f3 <transparent_crc>
   17ba2:	8b 05 5c 55 00 00    	mov    0x555c(%rip),%eax        # 1d104 <g_569>
   17ba8:	89 c1                	mov    %eax,%ecx
   17baa:	8b 45 fc             	mov    -0x4(%rbp),%eax
   17bad:	89 c2                	mov    %eax,%edx
   17baf:	48 8d 35 48 28 00 00 	lea    0x2848(%rip),%rsi        # 1a3fe <g_1504+0x139a>
   17bb6:	48 89 cf             	mov    %rcx,%rdi
   17bb9:	e8 35 3b ff ff       	callq  b6f3 <transparent_crc>
   17bbe:	8b 05 40 55 00 00    	mov    0x5540(%rip),%eax        # 1d104 <g_569>
   17bc4:	48 98                	cltq   
   17bc6:	8b 55 fc             	mov    -0x4(%rbp),%edx
   17bc9:	48 8d 35 37 28 00 00 	lea    0x2837(%rip),%rsi        # 1a407 <g_1504+0x13a3>
   17bd0:	48 89 c7             	mov    %rax,%rdi
   17bd3:	e8 1b 3b ff ff       	callq  b6f3 <transparent_crc>
   17bd8:	0f b6 05 29 55 00 00 	movzbl 0x5529(%rip),%eax        # 1d108 <g_671>
   17bdf:	48 0f be c0          	movsbq %al,%rax
   17be3:	8b 55 fc             	mov    -0x4(%rbp),%edx
   17be6:	48 8d 35 23 28 00 00 	lea    0x2823(%rip),%rsi        # 1a410 <g_1504+0x13ac>
   17bed:	48 89 c7             	mov    %rax,%rdi
   17bf0:	e8 fe 3a ff ff       	callq  b6f3 <transparent_crc>
   17bf5:	0f b7 05 14 55 00 00 	movzwl 0x5514(%rip),%eax        # 1d110 <g_697>
   17bfc:	0f b7 c0             	movzwl %ax,%eax
   17bff:	8b 55 fc             	mov    -0x4(%rbp),%edx
   17c02:	48 8d 35 10 28 00 00 	lea    0x2810(%rip),%rsi        # 1a419 <g_1504+0x13b5>
   17c09:	48 89 c7             	mov    %rax,%rdi
   17c0c:	e8 e2 3a ff ff       	callq  b6f3 <transparent_crc>
   17c11:	0f b7 05 fa 54 00 00 	movzwl 0x54fa(%rip),%eax        # 1d112 <g_698>
   17c18:	48 0f bf c0          	movswq %ax,%rax
   17c1c:	8b 55 fc             	mov    -0x4(%rbp),%edx
   17c1f:	48 8d 35 f9 27 00 00 	lea    0x27f9(%rip),%rsi        # 1a41f <g_1504+0x13bb>
   17c26:	48 89 c7             	mov    %rax,%rdi
   17c29:	e8 c5 3a ff ff       	callq  b6f3 <transparent_crc>
   17c2e:	48 8b 05 e3 54 00 00 	mov    0x54e3(%rip),%rax        # 1d118 <g_756>
   17c35:	8b 55 fc             	mov    -0x4(%rbp),%edx
   17c38:	48 8d 35 e6 27 00 00 	lea    0x27e6(%rip),%rsi        # 1a425 <g_1504+0x13c1>
   17c3f:	48 89 c7             	mov    %rax,%rdi
   17c42:	e8 ac 3a ff ff       	callq  b6f3 <transparent_crc>
   17c47:	8b 05 d3 54 00 00    	mov    0x54d3(%rip),%eax        # 1d120 <g_899>
   17c4d:	48 98                	cltq   
   17c4f:	8b 55 fc             	mov    -0x4(%rbp),%edx
   17c52:	48 8d 35 d2 27 00 00 	lea    0x27d2(%rip),%rsi        # 1a42b <g_1504+0x13c7>
   17c59:	48 89 c7             	mov    %rax,%rdi
   17c5c:	e8 92 3a ff ff       	callq  b6f3 <transparent_crc>
   17c61:	0f b6 05 b8 54 00 00 	movzbl 0x54b8(%rip),%eax        # 1d120 <g_899>
   17c68:	48 0f be c0          	movsbq %al,%rax
   17c6c:	8b 55 fc             	mov    -0x4(%rbp),%edx
   17c6f:	48 8d 35 be 27 00 00 	lea    0x27be(%rip),%rsi        # 1a434 <g_1504+0x13d0>
   17c76:	48 89 c7             	mov    %rax,%rdi
   17c79:	e8 75 3a ff ff       	callq  b6f3 <transparent_crc>
   17c7e:	c7 45 f0 00 00 00 00 	movl   $0x0,-0x10(%rbp)
   17c85:	e9 e7 00 00 00       	jmpq   17d71 <main+0x639>
   17c8a:	c7 45 f4 00 00 00 00 	movl   $0x0,-0xc(%rbp)
   17c91:	e9 cd 00 00 00       	jmpq   17d63 <main+0x62b>
   17c96:	c7 45 f8 00 00 00 00 	movl   $0x0,-0x8(%rbp)
   17c9d:	e9 b3 00 00 00       	jmpq   17d55 <main+0x61d>
   17ca2:	8b 45 f8             	mov    -0x8(%rbp),%eax
   17ca5:	48 98                	cltq   
   17ca7:	8b 55 f0             	mov    -0x10(%rbp),%edx
   17caa:	48 63 ca             	movslq %edx,%rcx
   17cad:	8b 55 f4             	mov    -0xc(%rbp),%edx
   17cb0:	48 63 d2             	movslq %edx,%rdx
   17cb3:	48 c1 e1 02          	shl    $0x2,%rcx
   17cb7:	48 01 ca             	add    %rcx,%rdx
   17cba:	48 c1 e2 02          	shl    $0x2,%rdx
   17cbe:	48 01 d0             	add    %rdx,%rax
   17cc1:	48 8d 14 c5 00 00 00 	lea    0x0(,%rax,8),%rdx
   17cc8:	00 
   17cc9:	48 8d 05 70 54 00 00 	lea    0x5470(%rip),%rax        # 1d140 <g_921>
   17cd0:	8b 04 02             	mov    (%rdx,%rax,1),%eax
   17cd3:	48 98                	cltq   
   17cd5:	8b 55 fc             	mov    -0x4(%rbp),%edx
   17cd8:	48 8d 35 5e 27 00 00 	lea    0x275e(%rip),%rsi        # 1a43d <g_1504+0x13d9>
   17cdf:	48 89 c7             	mov    %rax,%rdi
   17ce2:	e8 0c 3a ff ff       	callq  b6f3 <transparent_crc>
   17ce7:	8b 45 f8             	mov    -0x8(%rbp),%eax
   17cea:	48 98                	cltq   
   17cec:	8b 55 f0             	mov    -0x10(%rbp),%edx
   17cef:	48 63 ca             	movslq %edx,%rcx
   17cf2:	8b 55 f4             	mov    -0xc(%rbp),%edx
   17cf5:	48 63 d2             	movslq %edx,%rdx
   17cf8:	48 c1 e1 02          	shl    $0x2,%rcx
   17cfc:	48 01 ca             	add    %rcx,%rdx
   17cff:	48 c1 e2 02          	shl    $0x2,%rdx
   17d03:	48 01 d0             	add    %rdx,%rax
   17d06:	48 8d 14 c5 00 00 00 	lea    0x0(,%rax,8),%rdx
   17d0d:	00 
   17d0e:	48 8d 05 2b 54 00 00 	lea    0x542b(%rip),%rax        # 1d140 <g_921>
   17d15:	0f b6 04 02          	movzbl (%rdx,%rax,1),%eax
   17d19:	48 0f be c0          	movsbq %al,%rax
   17d1d:	8b 55 fc             	mov    -0x4(%rbp),%edx
   17d20:	48 8d 35 28 27 00 00 	lea    0x2728(%rip),%rsi        # 1a44f <g_1504+0x13eb>
   17d27:	48 89 c7             	mov    %rax,%rdi
   17d2a:	e8 c4 39 ff ff       	callq  b6f3 <transparent_crc>
   17d2f:	83 7d fc 00          	cmpl   $0x0,-0x4(%rbp)
   17d33:	74 1c                	je     17d51 <main+0x619>
   17d35:	8b 4d f8             	mov    -0x8(%rbp),%ecx
   17d38:	8b 55 f4             	mov    -0xc(%rbp),%edx
   17d3b:	8b 45 f0             	mov    -0x10(%rbp),%eax
   17d3e:	89 c6                	mov    %eax,%esi
   17d40:	48 8d 3d 1a 27 00 00 	lea    0x271a(%rip),%rdi        # 1a461 <g_1504+0x13fd>
   17d47:	b8 00 00 00 00       	mov    $0x0,%eax
   17d4c:	e8 2f 23 ff ff       	callq  a080 <printf@plt>
   17d51:	83 45 f8 01          	addl   $0x1,-0x8(%rbp)
   17d55:	83 7d f8 03          	cmpl   $0x3,-0x8(%rbp)
   17d59:	0f 8e 43 ff ff ff    	jle    17ca2 <main+0x56a>
   17d5f:	83 45 f4 01          	addl   $0x1,-0xc(%rbp)
   17d63:	83 7d f4 03          	cmpl   $0x3,-0xc(%rbp)
   17d67:	0f 8e 29 ff ff ff    	jle    17c96 <main+0x55e>
   17d6d:	83 45 f0 01          	addl   $0x1,-0x10(%rbp)
   17d71:	83 7d f0 05          	cmpl   $0x5,-0x10(%rbp)
   17d75:	0f 8e 0f ff ff ff    	jle    17c8a <main+0x552>
   17d7b:	0f b6 05 d6 12 00 00 	movzbl 0x12d6(%rip),%eax        # 19058 <g_952>
   17d82:	48 0f be c0          	movsbq %al,%rax
   17d86:	8b 55 fc             	mov    -0x4(%rbp),%edx
   17d89:	48 8d 35 e7 26 00 00 	lea    0x26e7(%rip),%rsi        # 1a477 <g_1504+0x1413>
   17d90:	48 89 c7             	mov    %rax,%rdi
   17d93:	e8 5b 39 ff ff       	callq  b6f3 <transparent_crc>
   17d98:	0f b6 05 a1 56 00 00 	movzbl 0x56a1(%rip),%eax        # 1d440 <g_955>
   17d9f:	48 0f be c0          	movsbq %al,%rax
   17da3:	8b 55 fc             	mov    -0x4(%rbp),%edx
   17da6:	48 8d 35 d3 26 00 00 	lea    0x26d3(%rip),%rsi        # 1a480 <g_1504+0x141c>
   17dad:	48 89 c7             	mov    %rax,%rdi
   17db0:	e8 3e 39 ff ff       	callq  b6f3 <transparent_crc>
   17db5:	8b 05 8d 56 00 00    	mov    0x568d(%rip),%eax        # 1d448 <g_959>
   17dbb:	48 98                	cltq   
   17dbd:	8b 55 fc             	mov    -0x4(%rbp),%edx
   17dc0:	48 8d 35 bf 26 00 00 	lea    0x26bf(%rip),%rsi        # 1a486 <g_1504+0x1422>
   17dc7:	48 89 c7             	mov    %rax,%rdi
   17dca:	e8 24 39 ff ff       	callq  b6f3 <transparent_crc>
   17dcf:	0f b6 05 72 56 00 00 	movzbl 0x5672(%rip),%eax        # 1d448 <g_959>
   17dd6:	48 0f be c0          	movsbq %al,%rax
   17dda:	8b 55 fc             	mov    -0x4(%rbp),%edx
   17ddd:	48 8d 35 ab 26 00 00 	lea    0x26ab(%rip),%rsi        # 1a48f <g_1504+0x142b>
   17de4:	48 89 c7             	mov    %rax,%rdi
   17de7:	e8 07 39 ff ff       	callq  b6f3 <transparent_crc>
   17dec:	8b 05 5e 56 00 00    	mov    0x565e(%rip),%eax        # 1d450 <g_998>
   17df2:	48 98                	cltq   
   17df4:	8b 55 fc             	mov    -0x4(%rbp),%edx
   17df7:	48 8d 35 9a 26 00 00 	lea    0x269a(%rip),%rsi        # 1a498 <g_1504+0x1434>
   17dfe:	48 89 c7             	mov    %rax,%rdi
   17e01:	e8 ed 38 ff ff       	callq  b6f3 <transparent_crc>
   17e06:	0f b6 05 43 56 00 00 	movzbl 0x5643(%rip),%eax        # 1d450 <g_998>
   17e0d:	48 0f be c0          	movsbq %al,%rax
   17e11:	8b 55 fc             	mov    -0x4(%rbp),%edx
   17e14:	48 8d 35 86 26 00 00 	lea    0x2686(%rip),%rsi        # 1a4a1 <g_1504+0x143d>
   17e1b:	48 89 c7             	mov    %rax,%rdi
   17e1e:	e8 d0 38 ff ff       	callq  b6f3 <transparent_crc>
   17e23:	0f b7 05 2e 56 00 00 	movzwl 0x562e(%rip),%eax        # 1d458 <g_1003>
   17e2a:	48 0f bf c0          	movswq %ax,%rax
   17e2e:	8b 55 fc             	mov    -0x4(%rbp),%edx
   17e31:	48 8d 35 72 26 00 00 	lea    0x2672(%rip),%rsi        # 1a4aa <g_1504+0x1446>
   17e38:	48 89 c7             	mov    %rax,%rdi
   17e3b:	e8 b3 38 ff ff       	callq  b6f3 <transparent_crc>
   17e40:	0f b6 05 19 56 00 00 	movzbl 0x5619(%rip),%eax        # 1d460 <g_1083>
   17e47:	48 0f be c0          	movsbq %al,%rax
   17e4b:	8b 55 fc             	mov    -0x4(%rbp),%edx
   17e4e:	48 8d 35 5c 26 00 00 	lea    0x265c(%rip),%rsi        # 1a4b1 <g_1504+0x144d>
   17e55:	48 89 c7             	mov    %rax,%rdi
   17e58:	e8 96 38 ff ff       	callq  b6f3 <transparent_crc>
   17e5d:	8b 05 05 56 00 00    	mov    0x5605(%rip),%eax        # 1d468 <g_1141>
   17e63:	48 98                	cltq   
   17e65:	8b 55 fc             	mov    -0x4(%rbp),%edx
   17e68:	48 8d 35 4c 26 00 00 	lea    0x264c(%rip),%rsi        # 1a4bb <g_1504+0x1457>
   17e6f:	48 89 c7             	mov    %rax,%rdi
   17e72:	e8 7c 38 ff ff       	callq  b6f3 <transparent_crc>
   17e77:	0f b6 05 ea 55 00 00 	movzbl 0x55ea(%rip),%eax        # 1d468 <g_1141>
   17e7e:	48 0f be c0          	movsbq %al,%rax
   17e82:	8b 55 fc             	mov    -0x4(%rbp),%edx
   17e85:	48 8d 35 39 26 00 00 	lea    0x2639(%rip),%rsi        # 1a4c5 <g_1504+0x1461>
   17e8c:	48 89 c7             	mov    %rax,%rdi
   17e8f:	e8 5f 38 ff ff       	callq  b6f3 <transparent_crc>
   17e94:	8b 05 d6 55 00 00    	mov    0x55d6(%rip),%eax        # 1d470 <g_1158>
   17e9a:	89 c1                	mov    %eax,%ecx
   17e9c:	8b 45 fc             	mov    -0x4(%rbp),%eax
   17e9f:	89 c2                	mov    %eax,%edx
   17ea1:	48 8d 35 27 26 00 00 	lea    0x2627(%rip),%rsi        # 1a4cf <g_1504+0x146b>
   17ea8:	48 89 cf             	mov    %rcx,%rdi
   17eab:	e8 43 38 ff ff       	callq  b6f3 <transparent_crc>
   17eb0:	8b 05 ba 55 00 00    	mov    0x55ba(%rip),%eax        # 1d470 <g_1158>
   17eb6:	48 98                	cltq   
   17eb8:	8b 55 fc             	mov    -0x4(%rbp),%edx
   17ebb:	48 8d 35 17 26 00 00 	lea    0x2617(%rip),%rsi        # 1a4d9 <g_1504+0x1475>
   17ec2:	48 89 c7             	mov    %rax,%rdi
   17ec5:	e8 29 38 ff ff       	callq  b6f3 <transparent_crc>
   17eca:	b8 01 00 00 00       	mov    $0x1,%eax
   17ecf:	48 0f be c0          	movsbq %al,%rax
   17ed3:	8b 55 fc             	mov    -0x4(%rbp),%edx
   17ed6:	48 8d 35 06 26 00 00 	lea    0x2606(%rip),%rsi        # 1a4e3 <g_1504+0x147f>
   17edd:	48 89 c7             	mov    %rax,%rdi
   17ee0:	e8 0e 38 ff ff       	callq  b6f3 <transparent_crc>
   17ee5:	0f b7 05 88 55 00 00 	movzwl 0x5588(%rip),%eax        # 1d474 <g_1252>
   17eec:	0f b7 c0             	movzwl %ax,%eax
   17eef:	8b 55 fc             	mov    -0x4(%rbp),%edx
   17ef2:	48 8d 35 f1 25 00 00 	lea    0x25f1(%rip),%rsi        # 1a4ea <g_1504+0x1486>
   17ef9:	48 89 c7             	mov    %rax,%rdi
   17efc:	e8 f2 37 ff ff       	callq  b6f3 <transparent_crc>
   17f01:	48 8b 05 70 55 00 00 	mov    0x5570(%rip),%rax        # 1d478 <g_1354>
   17f08:	48 89 c1             	mov    %rax,%rcx
   17f0b:	8b 45 fc             	mov    -0x4(%rbp),%eax
   17f0e:	89 c2                	mov    %eax,%edx
   17f10:	48 8d 35 da 25 00 00 	lea    0x25da(%rip),%rsi        # 1a4f1 <g_1504+0x148d>
   17f17:	48 89 cf             	mov    %rcx,%rdi
   17f1a:	e8 d4 37 ff ff       	callq  b6f3 <transparent_crc>
   17f1f:	8b 05 5b 55 00 00    	mov    0x555b(%rip),%eax        # 1d480 <g_1378>
   17f25:	89 c1                	mov    %eax,%ecx
   17f27:	8b 45 fc             	mov    -0x4(%rbp),%eax
   17f2a:	89 c2                	mov    %eax,%edx
   17f2c:	48 8d 35 c5 25 00 00 	lea    0x25c5(%rip),%rsi        # 1a4f8 <g_1504+0x1494>
   17f33:	48 89 cf             	mov    %rcx,%rdi
   17f36:	e8 b8 37 ff ff       	callq  b6f3 <transparent_crc>
   17f3b:	0f b6 05 3e 55 00 00 	movzbl 0x553e(%rip),%eax        # 1d480 <g_1378>
   17f42:	0f b6 c0             	movzbl %al,%eax
   17f45:	8b 55 fc             	mov    -0x4(%rbp),%edx
   17f48:	48 8d 35 b3 25 00 00 	lea    0x25b3(%rip),%rsi        # 1a502 <g_1504+0x149e>
   17f4f:	48 89 c7             	mov    %rax,%rdi
   17f52:	e8 9c 37 ff ff       	callq  b6f3 <transparent_crc>
   17f57:	8b 05 23 55 00 00    	mov    0x5523(%rip),%eax        # 1d480 <g_1378>
   17f5d:	48 98                	cltq   
   17f5f:	8b 55 fc             	mov    -0x4(%rbp),%edx
   17f62:	48 8d 35 a3 25 00 00 	lea    0x25a3(%rip),%rsi        # 1a50c <g_1504+0x14a8>
   17f69:	48 89 c7             	mov    %rax,%rdi
   17f6c:	e8 82 37 ff ff       	callq  b6f3 <transparent_crc>
   17f71:	8b 05 0d 55 00 00    	mov    0x550d(%rip),%eax        # 1d484 <g_1469>
   17f77:	89 c1                	mov    %eax,%ecx
   17f79:	8b 45 fc             	mov    -0x4(%rbp),%eax
   17f7c:	89 c2                	mov    %eax,%edx
   17f7e:	48 8d 35 91 25 00 00 	lea    0x2591(%rip),%rsi        # 1a516 <g_1504+0x14b2>
   17f85:	48 89 cf             	mov    %rcx,%rdi
   17f88:	e8 66 37 ff ff       	callq  b6f3 <transparent_crc>
   17f8d:	0f b6 05 f0 54 00 00 	movzbl 0x54f0(%rip),%eax        # 1d484 <g_1469>
   17f94:	0f b6 c0             	movzbl %al,%eax
   17f97:	8b 55 fc             	mov    -0x4(%rbp),%edx
   17f9a:	48 8d 35 7f 25 00 00 	lea    0x257f(%rip),%rsi        # 1a520 <g_1504+0x14bc>
   17fa1:	48 89 c7             	mov    %rax,%rdi
   17fa4:	e8 4a 37 ff ff       	callq  b6f3 <transparent_crc>
   17fa9:	8b 05 d5 54 00 00    	mov    0x54d5(%rip),%eax        # 1d484 <g_1469>
   17faf:	48 98                	cltq   
   17fb1:	8b 55 fc             	mov    -0x4(%rbp),%edx
   17fb4:	48 8d 35 6f 25 00 00 	lea    0x256f(%rip),%rsi        # 1a52a <g_1504+0x14c6>
   17fbb:	48 89 c7             	mov    %rax,%rdi
   17fbe:	e8 30 37 ff ff       	callq  b6f3 <transparent_crc>
   17fc3:	b8 98 38 c7 fd       	mov    $0xfdc73898,%eax
   17fc8:	48 98                	cltq   
   17fca:	8b 55 fc             	mov    -0x4(%rbp),%edx
   17fcd:	48 8d 35 60 25 00 00 	lea    0x2560(%rip),%rsi        # 1a534 <g_1504+0x14d0>
   17fd4:	48 89 c7             	mov    %rax,%rdi
   17fd7:	e8 17 37 ff ff       	callq  b6f3 <transparent_crc>
   17fdc:	0f b7 05 0d 94 00 00 	movzwl 0x940d(%rip),%eax        # 213f0 <g_1541>
   17fe3:	0f b7 c0             	movzwl %ax,%eax
   17fe6:	8b 55 fc             	mov    -0x4(%rbp),%edx
   17fe9:	48 8d 35 4b 25 00 00 	lea    0x254b(%rip),%rsi        # 1a53b <g_1504+0x14d7>
   17ff0:	48 89 c7             	mov    %rax,%rdi
   17ff3:	e8 fb 36 ff ff       	callq  b6f3 <transparent_crc>
   17ff8:	0f b6 05 89 54 00 00 	movzbl 0x5489(%rip),%eax        # 1d488 <g_1585>
   17fff:	48 0f be c0          	movsbq %al,%rax
   18003:	8b 55 fc             	mov    -0x4(%rbp),%edx
   18006:	48 8d 35 35 25 00 00 	lea    0x2535(%rip),%rsi        # 1a542 <g_1504+0x14de>
   1800d:	48 89 c7             	mov    %rax,%rdi
   18010:	e8 de 36 ff ff       	callq  b6f3 <transparent_crc>
   18015:	8b 05 75 54 00 00    	mov    0x5475(%rip),%eax        # 1d490 <g_1612>
   1801b:	48 98                	cltq   
   1801d:	8b 55 fc             	mov    -0x4(%rbp),%edx
   18020:	48 8d 35 25 25 00 00 	lea    0x2525(%rip),%rsi        # 1a54c <g_1504+0x14e8>
   18027:	48 89 c7             	mov    %rax,%rdi
   1802a:	e8 c4 36 ff ff       	callq  b6f3 <transparent_crc>
   1802f:	48 8b 05 62 54 00 00 	mov    0x5462(%rip),%rax        # 1d498 <g_1613>
   18036:	8b 55 fc             	mov    -0x4(%rbp),%edx
   18039:	48 8d 35 13 25 00 00 	lea    0x2513(%rip),%rsi        # 1a553 <g_1504+0x14ef>
   18040:	48 89 c7             	mov    %rax,%rdi
   18043:	e8 ab 36 ff ff       	callq  b6f3 <transparent_crc>
   18048:	0f b6 05 a9 93 00 00 	movzbl 0x93a9(%rip),%eax        # 213f8 <g_1623>
   1804f:	48 0f be c0          	movsbq %al,%rax
   18053:	8b 55 fc             	mov    -0x4(%rbp),%edx
   18056:	48 8d 35 fd 24 00 00 	lea    0x24fd(%rip),%rsi        # 1a55a <g_1504+0x14f6>
   1805d:	48 89 c7             	mov    %rax,%rdi
   18060:	e8 8e 36 ff ff       	callq  b6f3 <transparent_crc>
   18065:	0f b7 05 34 54 00 00 	movzwl 0x5434(%rip),%eax        # 1d4a0 <g_1698>
   1806c:	48 0f bf c0          	movswq %ax,%rax
   18070:	8b 55 fc             	mov    -0x4(%rbp),%edx
   18073:	48 8d 35 ea 24 00 00 	lea    0x24ea(%rip),%rsi        # 1a564 <g_1504+0x1500>
   1807a:	48 89 c7             	mov    %rax,%rdi
   1807d:	e8 71 36 ff ff       	callq  b6f3 <transparent_crc>
   18082:	8b 05 1c 54 00 00    	mov    0x541c(%rip),%eax        # 1d4a4 <g_1719>
   18088:	48 98                	cltq   
   1808a:	8b 55 fc             	mov    -0x4(%rbp),%edx
   1808d:	48 8d 35 d7 24 00 00 	lea    0x24d7(%rip),%rsi        # 1a56b <g_1504+0x1507>
   18094:	48 89 c7             	mov    %rax,%rdi
   18097:	e8 57 36 ff ff       	callq  b6f3 <transparent_crc>
   1809c:	c7 45 f0 00 00 00 00 	movl   $0x0,-0x10(%rbp)
   180a3:	eb 4b                	jmp    180f0 <main+0x9b8>
   180a5:	8b 45 f0             	mov    -0x10(%rbp),%eax
   180a8:	48 98                	cltq   
   180aa:	48 8d 14 85 00 00 00 	lea    0x0(,%rax,4),%rdx
   180b1:	00 
   180b2:	48 8d 05 ef 53 00 00 	lea    0x53ef(%rip),%rax        # 1d4a8 <g_1722>
   180b9:	8b 04 02             	mov    (%rdx,%rax,1),%eax
   180bc:	48 98                	cltq   
   180be:	8b 55 fc             	mov    -0x4(%rbp),%edx
   180c1:	48 8d 35 aa 24 00 00 	lea    0x24aa(%rip),%rsi        # 1a572 <g_1504+0x150e>
   180c8:	48 89 c7             	mov    %rax,%rdi
   180cb:	e8 23 36 ff ff       	callq  b6f3 <transparent_crc>
   180d0:	83 7d fc 00          	cmpl   $0x0,-0x4(%rbp)
   180d4:	74 16                	je     180ec <main+0x9b4>
   180d6:	8b 45 f0             	mov    -0x10(%rbp),%eax
   180d9:	89 c6                	mov    %eax,%esi
   180db:	48 8d 3d 5d 22 00 00 	lea    0x225d(%rip),%rdi        # 1a33f <g_1504+0x12db>
   180e2:	b8 00 00 00 00       	mov    $0x0,%eax
   180e7:	e8 94 1f ff ff       	callq  a080 <printf@plt>
   180ec:	83 45 f0 01          	addl   $0x1,-0x10(%rbp)
   180f0:	83 7d f0 01          	cmpl   $0x1,-0x10(%rbp)
   180f4:	7e af                	jle    180a5 <main+0x96d>
   180f6:	c7 45 f0 00 00 00 00 	movl   $0x0,-0x10(%rbp)
   180fd:	e9 17 01 00 00       	jmpq   18219 <main+0xae1>
   18102:	c7 45 f4 00 00 00 00 	movl   $0x0,-0xc(%rbp)
   18109:	e9 fd 00 00 00       	jmpq   1820b <main+0xad3>
   1810e:	c7 45 f8 00 00 00 00 	movl   $0x0,-0x8(%rbp)
   18115:	e9 e3 00 00 00       	jmpq   181fd <main+0xac5>
   1811a:	8b 45 f8             	mov    -0x8(%rbp),%eax
   1811d:	48 63 f0             	movslq %eax,%rsi
   18120:	8b 45 f0             	mov    -0x10(%rbp),%eax
   18123:	48 98                	cltq   
   18125:	8b 55 f4             	mov    -0xc(%rbp),%edx
   18128:	48 63 ca             	movslq %edx,%rcx
   1812b:	48 89 c2             	mov    %rax,%rdx
   1812e:	48 01 d2             	add    %rdx,%rdx
   18131:	48 01 c2             	add    %rax,%rdx
   18134:	48 8d 04 95 00 00 00 	lea    0x0(,%rdx,4),%rax
   1813b:	00 
   1813c:	48 89 c2             	mov    %rax,%rdx
   1813f:	48 89 c8             	mov    %rcx,%rax
   18142:	48 01 c0             	add    %rax,%rax
   18145:	48 01 c8             	add    %rcx,%rax
   18148:	48 01 c0             	add    %rax,%rax
   1814b:	48 01 d0             	add    %rdx,%rax
   1814e:	48 01 f0             	add    %rsi,%rax
   18151:	48 8d 14 c5 00 00 00 	lea    0x0(,%rax,8),%rdx
   18158:	00 
   18159:	48 8d 05 60 53 00 00 	lea    0x5360(%rip),%rax        # 1d4c0 <g_1744>
   18160:	8b 04 02             	mov    (%rdx,%rax,1),%eax
   18163:	48 98                	cltq   
   18165:	8b 55 fc             	mov    -0x4(%rbp),%edx
   18168:	48 8d 35 0d 24 00 00 	lea    0x240d(%rip),%rsi        # 1a57c <g_1504+0x1518>
   1816f:	48 89 c7             	mov    %rax,%rdi
   18172:	e8 7c 35 ff ff       	callq  b6f3 <transparent_crc>
   18177:	8b 45 f8             	mov    -0x8(%rbp),%eax
   1817a:	48 63 f0             	movslq %eax,%rsi
   1817d:	8b 45 f0             	mov    -0x10(%rbp),%eax
   18180:	48 98                	cltq   
   18182:	8b 55 f4             	mov    -0xc(%rbp),%edx
   18185:	48 63 ca             	movslq %edx,%rcx
   18188:	48 89 c2             	mov    %rax,%rdx
   1818b:	48 01 d2             	add    %rdx,%rdx
   1818e:	48 01 c2             	add    %rax,%rdx
   18191:	48 8d 04 95 00 00 00 	lea    0x0(,%rdx,4),%rax
   18198:	00 
   18199:	48 89 c2             	mov    %rax,%rdx
   1819c:	48 89 c8             	mov    %rcx,%rax
   1819f:	48 01 c0             	add    %rax,%rax
   181a2:	48 01 c8             	add    %rcx,%rax
   181a5:	48 01 c0             	add    %rax,%rax
   181a8:	48 01 d0             	add    %rdx,%rax
   181ab:	48 01 f0             	add    %rsi,%rax
   181ae:	48 8d 14 c5 00 00 00 	lea    0x0(,%rax,8),%rdx
   181b5:	00 
   181b6:	48 8d 05 03 53 00 00 	lea    0x5303(%rip),%rax        # 1d4c0 <g_1744>
   181bd:	0f b6 04 02          	movzbl (%rdx,%rax,1),%eax
   181c1:	48 0f be c0          	movsbq %al,%rax
   181c5:	8b 55 fc             	mov    -0x4(%rbp),%edx
   181c8:	48 8d 35 c0 23 00 00 	lea    0x23c0(%rip),%rsi        # 1a58f <g_1504+0x152b>
   181cf:	48 89 c7             	mov    %rax,%rdi
   181d2:	e8 1c 35 ff ff       	callq  b6f3 <transparent_crc>
   181d7:	83 7d fc 00          	cmpl   $0x0,-0x4(%rbp)
   181db:	74 1c                	je     181f9 <main+0xac1>
   181dd:	8b 4d f8             	mov    -0x8(%rbp),%ecx
   181e0:	8b 55 f4             	mov    -0xc(%rbp),%edx
   181e3:	8b 45 f0             	mov    -0x10(%rbp),%eax
   181e6:	89 c6                	mov    %eax,%esi
   181e8:	48 8d 3d 72 22 00 00 	lea    0x2272(%rip),%rdi        # 1a461 <g_1504+0x13fd>
   181ef:	b8 00 00 00 00       	mov    $0x0,%eax
   181f4:	e8 87 1e ff ff       	callq  a080 <printf@plt>
   181f9:	83 45 f8 01          	addl   $0x1,-0x8(%rbp)
   181fd:	83 7d f8 05          	cmpl   $0x5,-0x8(%rbp)
   18201:	0f 8e 13 ff ff ff    	jle    1811a <main+0x9e2>
   18207:	83 45 f4 01          	addl   $0x1,-0xc(%rbp)
   1820b:	83 7d f4 01          	cmpl   $0x1,-0xc(%rbp)
   1820f:	0f 8e f9 fe ff ff    	jle    1810e <main+0x9d6>
   18215:	83 45 f0 01          	addl   $0x1,-0x10(%rbp)
   18219:	83 7d f0 02          	cmpl   $0x2,-0x10(%rbp)
   1821d:	0f 8e df fe ff ff    	jle    18102 <main+0x9ca>
   18223:	c7 45 f0 00 00 00 00 	movl   $0x0,-0x10(%rbp)
   1822a:	eb 79                	jmp    182a5 <main+0xb6d>
   1822c:	8b 45 f0             	mov    -0x10(%rbp),%eax
   1822f:	48 98                	cltq   
   18231:	48 8d 14 c5 00 00 00 	lea    0x0(,%rax,8),%rdx
   18238:	00 
   18239:	48 8d 05 a0 53 00 00 	lea    0x53a0(%rip),%rax        # 1d5e0 <g_1788>
   18240:	8b 04 02             	mov    (%rdx,%rax,1),%eax
   18243:	48 98                	cltq   
   18245:	8b 55 fc             	mov    -0x4(%rbp),%edx
   18248:	48 8d 35 53 23 00 00 	lea    0x2353(%rip),%rsi        # 1a5a2 <g_1504+0x153e>
   1824f:	48 89 c7             	mov    %rax,%rdi
   18252:	e8 9c 34 ff ff       	callq  b6f3 <transparent_crc>
   18257:	8b 45 f0             	mov    -0x10(%rbp),%eax
   1825a:	48 98                	cltq   
   1825c:	48 8d 14 c5 00 00 00 	lea    0x0(,%rax,8),%rdx
   18263:	00 
   18264:	48 8d 05 75 53 00 00 	lea    0x5375(%rip),%rax        # 1d5e0 <g_1788>
   1826b:	0f b6 04 02          	movzbl (%rdx,%rax,1),%eax
   1826f:	48 0f be c0          	movsbq %al,%rax
   18273:	8b 55 fc             	mov    -0x4(%rbp),%edx
   18276:	48 8d 35 32 23 00 00 	lea    0x2332(%rip),%rsi        # 1a5af <g_1504+0x154b>
   1827d:	48 89 c7             	mov    %rax,%rdi
   18280:	e8 6e 34 ff ff       	callq  b6f3 <transparent_crc>
   18285:	83 7d fc 00          	cmpl   $0x0,-0x4(%rbp)
   18289:	74 16                	je     182a1 <main+0xb69>
   1828b:	8b 45 f0             	mov    -0x10(%rbp),%eax
   1828e:	89 c6                	mov    %eax,%esi
   18290:	48 8d 3d a8 20 00 00 	lea    0x20a8(%rip),%rdi        # 1a33f <g_1504+0x12db>
   18297:	b8 00 00 00 00       	mov    $0x0,%eax
   1829c:	e8 df 1d ff ff       	callq  a080 <printf@plt>
   182a1:	83 45 f0 01          	addl   $0x1,-0x10(%rbp)
   182a5:	83 7d f0 05          	cmpl   $0x5,-0x10(%rbp)
   182a9:	7e 81                	jle    1822c <main+0xaf4>
   182ab:	0f b6 05 5e 53 00 00 	movzbl 0x535e(%rip),%eax        # 1d610 <g_1795>
   182b2:	48 0f be c0          	movsbq %al,%rax
   182b6:	8b 55 fc             	mov    -0x4(%rbp),%edx
   182b9:	48 8d 35 fc 22 00 00 	lea    0x22fc(%rip),%rsi        # 1a5bc <g_1504+0x1558>
   182c0:	48 89 c7             	mov    %rax,%rdi
   182c3:	e8 2b 34 ff ff       	callq  b6f3 <transparent_crc>
   182c8:	c7 45 f0 00 00 00 00 	movl   $0x0,-0x10(%rbp)
   182cf:	eb 69                	jmp    1833a <main+0xc02>
   182d1:	c7 45 f4 00 00 00 00 	movl   $0x0,-0xc(%rbp)
   182d8:	eb 56                	jmp    18330 <main+0xbf8>
   182da:	8b 45 f4             	mov    -0xc(%rbp),%eax
   182dd:	48 63 d0             	movslq %eax,%rdx
   182e0:	8b 45 f0             	mov    -0x10(%rbp),%eax
   182e3:	48 98                	cltq   
   182e5:	48 01 d0             	add    %rdx,%rax
   182e8:	48 8d 14 00          	lea    (%rax,%rax,1),%rdx
   182ec:	48 8d 05 25 53 00 00 	lea    0x5325(%rip),%rax        # 1d618 <g_1838>
   182f3:	0f b7 04 02          	movzwl (%rdx,%rax,1),%eax
   182f7:	48 0f bf c0          	movswq %ax,%rax
   182fb:	8b 55 fc             	mov    -0x4(%rbp),%edx
   182fe:	48 8d 35 c1 22 00 00 	lea    0x22c1(%rip),%rsi        # 1a5c6 <g_1504+0x1562>
   18305:	48 89 c7             	mov    %rax,%rdi
   18308:	e8 e6 33 ff ff       	callq  b6f3 <transparent_crc>
   1830d:	83 7d fc 00          	cmpl   $0x0,-0x4(%rbp)
   18311:	74 19                	je     1832c <main+0xbf4>
   18313:	8b 55 f4             	mov    -0xc(%rbp),%edx
   18316:	8b 45 f0             	mov    -0x10(%rbp),%eax
   18319:	89 c6                	mov    %eax,%esi
   1831b:	48 8d 3d fa 1f 00 00 	lea    0x1ffa(%rip),%rdi        # 1a31c <g_1504+0x12b8>
   18322:	b8 00 00 00 00       	mov    $0x0,%eax
   18327:	e8 54 1d ff ff       	callq  a080 <printf@plt>
   1832c:	83 45 f4 01          	addl   $0x1,-0xc(%rbp)
   18330:	83 7d f4 00          	cmpl   $0x0,-0xc(%rbp)
   18334:	7e a4                	jle    182da <main+0xba2>
   18336:	83 45 f0 01          	addl   $0x1,-0x10(%rbp)
   1833a:	83 7d f0 06          	cmpl   $0x6,-0x10(%rbp)
   1833e:	7e 91                	jle    182d1 <main+0xb99>
   18340:	8b 05 e2 52 00 00    	mov    0x52e2(%rip),%eax        # 1d628 <g_1880>
   18346:	48 98                	cltq   
   18348:	8b 55 fc             	mov    -0x4(%rbp),%edx
   1834b:	48 8d 35 81 22 00 00 	lea    0x2281(%rip),%rsi        # 1a5d3 <g_1504+0x156f>
   18352:	48 89 c7             	mov    %rax,%rdi
   18355:	e8 99 33 ff ff       	callq  b6f3 <transparent_crc>
   1835a:	8b 05 cc 52 00 00    	mov    0x52cc(%rip),%eax        # 1d62c <g_1934>
   18360:	89 c1                	mov    %eax,%ecx
   18362:	8b 45 fc             	mov    -0x4(%rbp),%eax
   18365:	89 c2                	mov    %eax,%edx
   18367:	48 8d 35 6c 22 00 00 	lea    0x226c(%rip),%rsi        # 1a5da <g_1504+0x1576>
   1836e:	48 89 cf             	mov    %rcx,%rdi
   18371:	e8 7d 33 ff ff       	callq  b6f3 <transparent_crc>
   18376:	8b 05 b4 52 00 00    	mov    0x52b4(%rip),%eax        # 1d630 <g_1956>
   1837c:	89 c1                	mov    %eax,%ecx
   1837e:	8b 45 fc             	mov    -0x4(%rbp),%eax
   18381:	89 c2                	mov    %eax,%edx
   18383:	48 8d 35 57 22 00 00 	lea    0x2257(%rip),%rsi        # 1a5e1 <g_1504+0x157d>
   1838a:	48 89 cf             	mov    %rcx,%rdi
   1838d:	e8 61 33 ff ff       	callq  b6f3 <transparent_crc>
   18392:	8b 05 9c 52 00 00    	mov    0x529c(%rip),%eax        # 1d634 <g_1972>
   18398:	89 c1                	mov    %eax,%ecx
   1839a:	8b 45 fc             	mov    -0x4(%rbp),%eax
   1839d:	89 c2                	mov    %eax,%edx
   1839f:	48 8d 35 42 22 00 00 	lea    0x2242(%rip),%rsi        # 1a5e8 <g_1504+0x1584>
   183a6:	48 89 cf             	mov    %rcx,%rdi
   183a9:	e8 45 33 ff ff       	callq  b6f3 <transparent_crc>
   183ae:	8b 05 84 52 00 00    	mov    0x5284(%rip),%eax        # 1d638 <g_1993>
   183b4:	89 c1                	mov    %eax,%ecx
   183b6:	8b 45 fc             	mov    -0x4(%rbp),%eax
   183b9:	89 c2                	mov    %eax,%edx
   183bb:	48 8d 35 2d 22 00 00 	lea    0x222d(%rip),%rsi        # 1a5ef <g_1504+0x158b>
   183c2:	48 89 cf             	mov    %rcx,%rdi
   183c5:	e8 29 33 ff ff       	callq  b6f3 <transparent_crc>
   183ca:	8b 05 68 52 00 00    	mov    0x5268(%rip),%eax        # 1d638 <g_1993>
   183d0:	48 98                	cltq   
   183d2:	8b 55 fc             	mov    -0x4(%rbp),%edx
   183d5:	48 8d 35 1d 22 00 00 	lea    0x221d(%rip),%rsi        # 1a5f9 <g_1504+0x1595>
   183dc:	48 89 c7             	mov    %rax,%rdi
   183df:	e8 0f 33 ff ff       	callq  b6f3 <transparent_crc>
   183e4:	8b 05 52 52 00 00    	mov    0x5252(%rip),%eax        # 1d63c <g_1999>
   183ea:	48 98                	cltq   
   183ec:	8b 55 fc             	mov    -0x4(%rbp),%edx
   183ef:	48 8d 35 0d 22 00 00 	lea    0x220d(%rip),%rsi        # 1a603 <g_1504+0x159f>
   183f6:	48 89 c7             	mov    %rax,%rdi
   183f9:	e8 f5 32 ff ff       	callq  b6f3 <transparent_crc>
   183fe:	8b 05 3c 52 00 00    	mov    0x523c(%rip),%eax        # 1d640 <g_2043>
   18404:	48 98                	cltq   
   18406:	8b 55 fc             	mov    -0x4(%rbp),%edx
   18409:	48 8d 35 fa 21 00 00 	lea    0x21fa(%rip),%rsi        # 1a60a <g_1504+0x15a6>
   18410:	48 89 c7             	mov    %rax,%rdi
   18413:	e8 db 32 ff ff       	callq  b6f3 <transparent_crc>
   18418:	0f b6 05 21 52 00 00 	movzbl 0x5221(%rip),%eax        # 1d640 <g_2043>
   1841f:	48 0f be c0          	movsbq %al,%rax
   18423:	8b 55 fc             	mov    -0x4(%rbp),%edx
   18426:	48 8d 35 e7 21 00 00 	lea    0x21e7(%rip),%rsi        # 1a614 <g_1504+0x15b0>
   1842d:	48 89 c7             	mov    %rax,%rdi
   18430:	e8 be 32 ff ff       	callq  b6f3 <transparent_crc>
   18435:	8b 05 e5 4b 00 00    	mov    0x4be5(%rip),%eax        # 1d020 <crc32_context>
   1843b:	f7 d0                	not    %eax
   1843d:	89 c2                	mov    %eax,%edx
   1843f:	8b 45 fc             	mov    -0x4(%rbp),%eax
   18442:	89 c6                	mov    %eax,%esi
   18444:	89 d7                	mov    %edx,%edi
   18446:	e8 49 1d ff ff       	callq  a194 <platform_main_end>
   1844b:	b8 00 00 00 00       	mov    $0x0,%eax
   18450:	c9                   	leaveq 
   18451:	c3                   	retq   
   18452:	66 2e 0f 1f 84 00 00 	nopw   %cs:0x0(%rax,%rax,1)
   18459:	00 00 00 
   1845c:	0f 1f 40 00          	nopl   0x0(%rax)

0000000000018460 <__libc_csu_init>:
   18460:	f3 0f 1e fa          	endbr64 
   18464:	41 57                	push   %r15
   18466:	4c 8d 3d 83 48 00 00 	lea    0x4883(%rip),%r15        # 1ccf0 <__frame_dummy_init_array_entry>
   1846d:	41 56                	push   %r14
   1846f:	49 89 d6             	mov    %rdx,%r14
   18472:	41 55                	push   %r13
   18474:	49 89 f5             	mov    %rsi,%r13
   18477:	41 54                	push   %r12
   18479:	41 89 fc             	mov    %edi,%r12d
   1847c:	55                   	push   %rbp
   1847d:	48 8d 2d 74 48 00 00 	lea    0x4874(%rip),%rbp        # 1ccf8 <__do_global_dtors_aux_fini_array_entry>
   18484:	53                   	push   %rbx
   18485:	4c 29 fd             	sub    %r15,%rbp
   18488:	48 83 ec 08          	sub    $0x8,%rsp
   1848c:	e8 6f 1b ff ff       	callq  a000 <_init>
   18491:	48 c1 fd 03          	sar    $0x3,%rbp
   18495:	74 1f                	je     184b6 <__libc_csu_init+0x56>
   18497:	31 db                	xor    %ebx,%ebx
   18499:	0f 1f 80 00 00 00 00 	nopl   0x0(%rax)
   184a0:	4c 89 f2             	mov    %r14,%rdx
   184a3:	4c 89 ee             	mov    %r13,%rsi
   184a6:	44 89 e7             	mov    %r12d,%edi
   184a9:	41 ff 14 df          	callq  *(%r15,%rbx,8)
   184ad:	48 83 c3 01          	add    $0x1,%rbx
   184b1:	48 39 dd             	cmp    %rbx,%rbp
   184b4:	75 ea                	jne    184a0 <__libc_csu_init+0x40>
   184b6:	48 83 c4 08          	add    $0x8,%rsp
   184ba:	5b                   	pop    %rbx
   184bb:	5d                   	pop    %rbp
   184bc:	41 5c                	pop    %r12
   184be:	41 5d                	pop    %r13
   184c0:	41 5e                	pop    %r14
   184c2:	41 5f                	pop    %r15
   184c4:	c3                   	retq   
   184c5:	66 66 2e 0f 1f 84 00 	data16 nopw %cs:0x0(%rax,%rax,1)
   184cc:	00 00 00 00 

00000000000184d0 <__libc_csu_fini>:
   184d0:	f3 0f 1e fa          	endbr64 
   184d4:	c3                   	retq   
