


Disassembly of section .text:

00000000000080a0 <_start>:
    80a0:	f3 0f 1e fa          	endbr64 
    80a4:	31 ed                	xor    %ebp,%ebp
    80a6:	49 89 d1             	mov    %rdx,%r9
    80a9:	5e                   	pop    %rsi
    80aa:	48 89 e2             	mov    %rsp,%rdx
    80ad:	48 83 e4 f0          	and    $0xfffffffffffffff0,%rsp
    80b1:	50                   	push   %rax
    80b2:	54                   	push   %rsp
    80b3:	4c 8d 05 16 a4 00 00 	lea    0xa416(%rip),%r8        # 124d0 <__libc_csu_fini>
    80ba:	48 8d 0d 9f a3 00 00 	lea    0xa39f(%rip),%rcx        # 12460 <__libc_csu_init>
    80c1:	48 8d 3d 92 96 00 00 	lea    0x9692(%rip),%rdi        # 1175a <main>
    80c8:	ff 15 02 ef 00 00    	callq  *0xef02(%rip)        # 16fd0 <__libc_start_main@GLIBC_2.2.5>
    80ce:	f4                   	hlt    
    80cf:	90                   	nop

00000000000080d0 <deregister_tm_clones>:
    80d0:	48 8d 3d 29 1f 01 00 	lea    0x11f29(%rip),%rdi        # 1a000 <__TMC_END__>
    80d7:	48 8d 05 22 1f 01 00 	lea    0x11f22(%rip),%rax        # 1a000 <__TMC_END__>
    80de:	48 39 f8             	cmp    %rdi,%rax
    80e1:	74 15                	je     80f8 <deregister_tm_clones+0x28>
    80e3:	48 8b 05 de ee 00 00 	mov    0xeede(%rip),%rax        # 16fc8 <_ITM_deregisterTMCloneTable>
    80ea:	48 85 c0             	test   %rax,%rax
    80ed:	74 09                	je     80f8 <deregister_tm_clones+0x28>
    80ef:	ff e0                	jmpq   *%rax
    80f1:	0f 1f 80 00 00 00 00 	nopl   0x0(%rax)
    80f8:	c3                   	retq   
    80f9:	0f 1f 80 00 00 00 00 	nopl   0x0(%rax)

0000000000008100 <register_tm_clones>:
    8100:	48 8d 3d f9 1e 01 00 	lea    0x11ef9(%rip),%rdi        # 1a000 <__TMC_END__>
    8107:	48 8d 35 f2 1e 01 00 	lea    0x11ef2(%rip),%rsi        # 1a000 <__TMC_END__>
    810e:	48 29 fe             	sub    %rdi,%rsi
    8111:	48 89 f0             	mov    %rsi,%rax
    8114:	48 c1 ee 3f          	shr    $0x3f,%rsi
    8118:	48 c1 f8 03          	sar    $0x3,%rax
    811c:	48 01 c6             	add    %rax,%rsi
    811f:	48 d1 fe             	sar    %rsi
    8122:	74 14                	je     8138 <register_tm_clones+0x38>
    8124:	48 8b 05 b5 ee 00 00 	mov    0xeeb5(%rip),%rax        # 16fe0 <_ITM_registerTMCloneTable>
    812b:	48 85 c0             	test   %rax,%rax
    812e:	74 08                	je     8138 <register_tm_clones+0x38>
    8130:	ff e0                	jmpq   *%rax
    8132:	66 0f 1f 44 00 00    	nopw   0x0(%rax,%rax,1)
    8138:	c3                   	retq   
    8139:	0f 1f 80 00 00 00 00 	nopl   0x0(%rax)

0000000000008140 <__do_global_dtors_aux>:
    8140:	f3 0f 1e fa          	endbr64 
    8144:	80 3d b5 1e 01 00 00 	cmpb   $0x0,0x11eb5(%rip)        # 1a000 <__TMC_END__>
    814b:	75 2b                	jne    8178 <__do_global_dtors_aux+0x38>
    814d:	55                   	push   %rbp
    814e:	48 83 3d 92 ee 00 00 	cmpq   $0x0,0xee92(%rip)        # 16fe8 <__cxa_finalize@GLIBC_2.2.5>
    8155:	00 
    8156:	48 89 e5             	mov    %rsp,%rbp
    8159:	74 0c                	je     8167 <__do_global_dtors_aux+0x27>
    815b:	48 8b 3d a6 ee 00 00 	mov    0xeea6(%rip),%rdi        # 17008 <__dso_handle>
    8162:	e8 f9 fe ff ff       	callq  8060 <__cxa_finalize@plt>
    8167:	e8 64 ff ff ff       	callq  80d0 <deregister_tm_clones>
    816c:	c6 05 8d 1e 01 00 01 	movb   $0x1,0x11e8d(%rip)        # 1a000 <__TMC_END__>
    8173:	5d                   	pop    %rbp
    8174:	c3                   	retq   
    8175:	0f 1f 00             	nopl   (%rax)
    8178:	c3                   	retq   
    8179:	0f 1f 80 00 00 00 00 	nopl   0x0(%rax)

0000000000008180 <frame_dummy>:
    8180:	f3 0f 1e fa          	endbr64 
    8184:	e9 77 ff ff ff       	jmpq   8100 <register_tm_clones>

0000000000008189 <platform_main_begin>:
    8189:	f3 0f 1e fa          	endbr64 
    818d:	55                   	push   %rbp
    818e:	48 89 e5             	mov    %rsp,%rbp
    8191:	90                   	nop
    8192:	5d                   	pop    %rbp
    8193:	c3                   	retq   

0000000000008194 <platform_main_end>:
    8194:	f3 0f 1e fa          	endbr64 
    8198:	55                   	push   %rbp
    8199:	48 89 e5             	mov    %rsp,%rbp
    819c:	48 83 ec 10          	sub    $0x10,%rsp
    81a0:	89 7d fc             	mov    %edi,-0x4(%rbp)
    81a3:	89 75 f8             	mov    %esi,-0x8(%rbp)
    81a6:	8b 45 fc             	mov    -0x4(%rbp),%eax
    81a9:	89 c6                	mov    %eax,%esi
    81ab:	48 8d 3d 6e ae 00 00 	lea    0xae6e(%rip),%rdi        # 13020 <_IO_stdin_used+0x20>
    81b2:	b8 00 00 00 00       	mov    $0x0,%eax
    81b7:	e8 c4 fe ff ff       	callq  8080 <printf@plt>
    81bc:	90                   	nop
    81bd:	c9                   	leaveq 
    81be:	c3                   	retq   

00000000000081bf <safe_unary_minus_func_int8_t_s>:
    81bf:	f3 0f 1e fa          	endbr64 
    81c3:	55                   	push   %rbp
    81c4:	48 89 e5             	mov    %rsp,%rbp
    81c7:	89 f8                	mov    %edi,%eax
    81c9:	88 45 fc             	mov    %al,-0x4(%rbp)
    81cc:	0f b6 45 fc          	movzbl -0x4(%rbp),%eax
    81d0:	f7 d8                	neg    %eax
    81d2:	5d                   	pop    %rbp
    81d3:	c3                   	retq   

00000000000081d4 <safe_add_func_int8_t_s_s>:
    81d4:	f3 0f 1e fa          	endbr64 
    81d8:	55                   	push   %rbp
    81d9:	48 89 e5             	mov    %rsp,%rbp
    81dc:	89 fa                	mov    %edi,%edx
    81de:	89 f0                	mov    %esi,%eax
    81e0:	88 55 fc             	mov    %dl,-0x4(%rbp)
    81e3:	88 45 f8             	mov    %al,-0x8(%rbp)
    81e6:	0f b6 55 fc          	movzbl -0x4(%rbp),%edx
    81ea:	0f b6 45 f8          	movzbl -0x8(%rbp),%eax
    81ee:	01 d0                	add    %edx,%eax
    81f0:	5d                   	pop    %rbp
    81f1:	c3                   	retq   

00000000000081f2 <safe_sub_func_int8_t_s_s>:
    81f2:	f3 0f 1e fa          	endbr64 
    81f6:	55                   	push   %rbp
    81f7:	48 89 e5             	mov    %rsp,%rbp
    81fa:	89 fa                	mov    %edi,%edx
    81fc:	89 f0                	mov    %esi,%eax
    81fe:	88 55 fc             	mov    %dl,-0x4(%rbp)
    8201:	88 45 f8             	mov    %al,-0x8(%rbp)
    8204:	0f b6 55 fc          	movzbl -0x4(%rbp),%edx
    8208:	0f b6 45 f8          	movzbl -0x8(%rbp),%eax
    820c:	29 c2                	sub    %eax,%edx
    820e:	89 d0                	mov    %edx,%eax
    8210:	5d                   	pop    %rbp
    8211:	c3                   	retq   

0000000000008212 <safe_mul_func_int8_t_s_s>:
    8212:	f3 0f 1e fa          	endbr64 
    8216:	55                   	push   %rbp
    8217:	48 89 e5             	mov    %rsp,%rbp
    821a:	89 fa                	mov    %edi,%edx
    821c:	89 f0                	mov    %esi,%eax
    821e:	88 55 fc             	mov    %dl,-0x4(%rbp)
    8221:	88 45 f8             	mov    %al,-0x8(%rbp)
    8224:	0f b6 45 fc          	movzbl -0x4(%rbp),%eax
    8228:	0f b6 55 f8          	movzbl -0x8(%rbp),%edx
    822c:	0f af c2             	imul   %edx,%eax
    822f:	5d                   	pop    %rbp
    8230:	c3                   	retq   

0000000000008231 <safe_mod_func_int8_t_s_s>:
    8231:	f3 0f 1e fa          	endbr64 
    8235:	55                   	push   %rbp
    8236:	48 89 e5             	mov    %rsp,%rbp
    8239:	89 fa                	mov    %edi,%edx
    823b:	89 f0                	mov    %esi,%eax
    823d:	88 55 fc             	mov    %dl,-0x4(%rbp)
    8240:	88 45 f8             	mov    %al,-0x8(%rbp)
    8243:	80 7d f8 00          	cmpb   $0x0,-0x8(%rbp)
    8247:	74 1b                	je     8264 <safe_mod_func_int8_t_s_s+0x33>
    8249:	80 7d fc 80          	cmpb   $0x80,-0x4(%rbp)
    824d:	75 06                	jne    8255 <safe_mod_func_int8_t_s_s+0x24>
    824f:	80 7d f8 ff          	cmpb   $0xff,-0x8(%rbp)
    8253:	74 0f                	je     8264 <safe_mod_func_int8_t_s_s+0x33>
    8255:	0f be 45 fc          	movsbl -0x4(%rbp),%eax
    8259:	0f be 4d f8          	movsbl -0x8(%rbp),%ecx
    825d:	99                   	cltd   
    825e:	f7 f9                	idiv   %ecx
    8260:	89 d0                	mov    %edx,%eax
    8262:	eb 04                	jmp    8268 <safe_mod_func_int8_t_s_s+0x37>
    8264:	0f b6 45 fc          	movzbl -0x4(%rbp),%eax
    8268:	5d                   	pop    %rbp
    8269:	c3                   	retq   

000000000000826a <safe_div_func_int8_t_s_s>:
    826a:	f3 0f 1e fa          	endbr64 
    826e:	55                   	push   %rbp
    826f:	48 89 e5             	mov    %rsp,%rbp
    8272:	89 fa                	mov    %edi,%edx
    8274:	89 f0                	mov    %esi,%eax
    8276:	88 55 fc             	mov    %dl,-0x4(%rbp)
    8279:	88 45 f8             	mov    %al,-0x8(%rbp)
    827c:	80 7d f8 00          	cmpb   $0x0,-0x8(%rbp)
    8280:	74 19                	je     829b <safe_div_func_int8_t_s_s+0x31>
    8282:	80 7d fc 80          	cmpb   $0x80,-0x4(%rbp)
    8286:	75 06                	jne    828e <safe_div_func_int8_t_s_s+0x24>
    8288:	80 7d f8 ff          	cmpb   $0xff,-0x8(%rbp)
    828c:	74 0d                	je     829b <safe_div_func_int8_t_s_s+0x31>
    828e:	0f be 45 fc          	movsbl -0x4(%rbp),%eax
    8292:	0f be 4d f8          	movsbl -0x8(%rbp),%ecx
    8296:	99                   	cltd   
    8297:	f7 f9                	idiv   %ecx
    8299:	eb 04                	jmp    829f <safe_div_func_int8_t_s_s+0x35>
    829b:	0f b6 45 fc          	movzbl -0x4(%rbp),%eax
    829f:	5d                   	pop    %rbp
    82a0:	c3                   	retq   

00000000000082a1 <safe_lshift_func_int8_t_s_s>:
    82a1:	f3 0f 1e fa          	endbr64 
    82a5:	55                   	push   %rbp
    82a6:	48 89 e5             	mov    %rsp,%rbp
    82a9:	89 f8                	mov    %edi,%eax
    82ab:	89 75 f8             	mov    %esi,-0x8(%rbp)
    82ae:	88 45 fc             	mov    %al,-0x4(%rbp)
    82b1:	80 7d fc 00          	cmpb   $0x0,-0x4(%rbp)
    82b5:	78 31                	js     82e8 <safe_lshift_func_int8_t_s_s+0x47>
    82b7:	83 7d f8 00          	cmpl   $0x0,-0x8(%rbp)
    82bb:	78 2b                	js     82e8 <safe_lshift_func_int8_t_s_s+0x47>
    82bd:	83 7d f8 1f          	cmpl   $0x1f,-0x8(%rbp)
    82c1:	7f 25                	jg     82e8 <safe_lshift_func_int8_t_s_s+0x47>
    82c3:	0f be 55 fc          	movsbl -0x4(%rbp),%edx
    82c7:	8b 45 f8             	mov    -0x8(%rbp),%eax
    82ca:	be 7f 00 00 00       	mov    $0x7f,%esi
    82cf:	89 c1                	mov    %eax,%ecx
    82d1:	d3 fe                	sar    %cl,%esi
    82d3:	89 f0                	mov    %esi,%eax
    82d5:	39 c2                	cmp    %eax,%edx
    82d7:	7f 0f                	jg     82e8 <safe_lshift_func_int8_t_s_s+0x47>
    82d9:	0f be 55 fc          	movsbl -0x4(%rbp),%edx
    82dd:	8b 45 f8             	mov    -0x8(%rbp),%eax
    82e0:	89 c1                	mov    %eax,%ecx
    82e2:	d3 e2                	shl    %cl,%edx
    82e4:	89 d0                	mov    %edx,%eax
    82e6:	eb 04                	jmp    82ec <safe_lshift_func_int8_t_s_s+0x4b>
    82e8:	0f b6 45 fc          	movzbl -0x4(%rbp),%eax
    82ec:	5d                   	pop    %rbp
    82ed:	c3                   	retq   

00000000000082ee <safe_lshift_func_int8_t_s_u>:
    82ee:	f3 0f 1e fa          	endbr64 
    82f2:	55                   	push   %rbp
    82f3:	48 89 e5             	mov    %rsp,%rbp
    82f6:	89 f8                	mov    %edi,%eax
    82f8:	89 75 f8             	mov    %esi,-0x8(%rbp)
    82fb:	88 45 fc             	mov    %al,-0x4(%rbp)
    82fe:	80 7d fc 00          	cmpb   $0x0,-0x4(%rbp)
    8302:	78 2b                	js     832f <safe_lshift_func_int8_t_s_u+0x41>
    8304:	83 7d f8 1f          	cmpl   $0x1f,-0x8(%rbp)
    8308:	77 25                	ja     832f <safe_lshift_func_int8_t_s_u+0x41>
    830a:	0f be 55 fc          	movsbl -0x4(%rbp),%edx
    830e:	8b 45 f8             	mov    -0x8(%rbp),%eax
    8311:	be 7f 00 00 00       	mov    $0x7f,%esi
    8316:	89 c1                	mov    %eax,%ecx
    8318:	d3 fe                	sar    %cl,%esi
    831a:	89 f0                	mov    %esi,%eax
    831c:	39 c2                	cmp    %eax,%edx
    831e:	7f 0f                	jg     832f <safe_lshift_func_int8_t_s_u+0x41>
    8320:	0f be 55 fc          	movsbl -0x4(%rbp),%edx
    8324:	8b 45 f8             	mov    -0x8(%rbp),%eax
    8327:	89 c1                	mov    %eax,%ecx
    8329:	d3 e2                	shl    %cl,%edx
    832b:	89 d0                	mov    %edx,%eax
    832d:	eb 04                	jmp    8333 <safe_lshift_func_int8_t_s_u+0x45>
    832f:	0f b6 45 fc          	movzbl -0x4(%rbp),%eax
    8333:	5d                   	pop    %rbp
    8334:	c3                   	retq   

0000000000008335 <safe_rshift_func_int8_t_s_s>:
    8335:	f3 0f 1e fa          	endbr64 
    8339:	55                   	push   %rbp
    833a:	48 89 e5             	mov    %rsp,%rbp
    833d:	89 f8                	mov    %edi,%eax
    833f:	89 75 f8             	mov    %esi,-0x8(%rbp)
    8342:	88 45 fc             	mov    %al,-0x4(%rbp)
    8345:	80 7d fc 00          	cmpb   $0x0,-0x4(%rbp)
    8349:	78 1b                	js     8366 <safe_rshift_func_int8_t_s_s+0x31>
    834b:	83 7d f8 00          	cmpl   $0x0,-0x8(%rbp)
    834f:	78 15                	js     8366 <safe_rshift_func_int8_t_s_s+0x31>
    8351:	83 7d f8 1f          	cmpl   $0x1f,-0x8(%rbp)
    8355:	7f 0f                	jg     8366 <safe_rshift_func_int8_t_s_s+0x31>
    8357:	0f be 55 fc          	movsbl -0x4(%rbp),%edx
    835b:	8b 45 f8             	mov    -0x8(%rbp),%eax
    835e:	89 c1                	mov    %eax,%ecx
    8360:	d3 fa                	sar    %cl,%edx
    8362:	89 d0                	mov    %edx,%eax
    8364:	eb 04                	jmp    836a <safe_rshift_func_int8_t_s_s+0x35>
    8366:	0f b6 45 fc          	movzbl -0x4(%rbp),%eax
    836a:	5d                   	pop    %rbp
    836b:	c3                   	retq   

000000000000836c <safe_rshift_func_int8_t_s_u>:
    836c:	f3 0f 1e fa          	endbr64 
    8370:	55                   	push   %rbp
    8371:	48 89 e5             	mov    %rsp,%rbp
    8374:	89 f8                	mov    %edi,%eax
    8376:	89 75 f8             	mov    %esi,-0x8(%rbp)
    8379:	88 45 fc             	mov    %al,-0x4(%rbp)
    837c:	80 7d fc 00          	cmpb   $0x0,-0x4(%rbp)
    8380:	78 15                	js     8397 <safe_rshift_func_int8_t_s_u+0x2b>
    8382:	83 7d f8 1f          	cmpl   $0x1f,-0x8(%rbp)
    8386:	77 0f                	ja     8397 <safe_rshift_func_int8_t_s_u+0x2b>
    8388:	0f be 55 fc          	movsbl -0x4(%rbp),%edx
    838c:	8b 45 f8             	mov    -0x8(%rbp),%eax
    838f:	89 c1                	mov    %eax,%ecx
    8391:	d3 fa                	sar    %cl,%edx
    8393:	89 d0                	mov    %edx,%eax
    8395:	eb 04                	jmp    839b <safe_rshift_func_int8_t_s_u+0x2f>
    8397:	0f b6 45 fc          	movzbl -0x4(%rbp),%eax
    839b:	5d                   	pop    %rbp
    839c:	c3                   	retq   

000000000000839d <safe_unary_minus_func_int16_t_s>:
    839d:	f3 0f 1e fa          	endbr64 
    83a1:	55                   	push   %rbp
    83a2:	48 89 e5             	mov    %rsp,%rbp
    83a5:	89 f8                	mov    %edi,%eax
    83a7:	66 89 45 fc          	mov    %ax,-0x4(%rbp)
    83ab:	0f b7 45 fc          	movzwl -0x4(%rbp),%eax
    83af:	f7 d8                	neg    %eax
    83b1:	5d                   	pop    %rbp
    83b2:	c3                   	retq   

00000000000083b3 <safe_add_func_int16_t_s_s>:
    83b3:	f3 0f 1e fa          	endbr64 
    83b7:	55                   	push   %rbp
    83b8:	48 89 e5             	mov    %rsp,%rbp
    83bb:	89 fa                	mov    %edi,%edx
    83bd:	89 f0                	mov    %esi,%eax
    83bf:	66 89 55 fc          	mov    %dx,-0x4(%rbp)
    83c3:	66 89 45 f8          	mov    %ax,-0x8(%rbp)
    83c7:	0f b7 55 fc          	movzwl -0x4(%rbp),%edx
    83cb:	0f b7 45 f8          	movzwl -0x8(%rbp),%eax
    83cf:	01 d0                	add    %edx,%eax
    83d1:	5d                   	pop    %rbp
    83d2:	c3                   	retq   

00000000000083d3 <safe_sub_func_int16_t_s_s>:
    83d3:	f3 0f 1e fa          	endbr64 
    83d7:	55                   	push   %rbp
    83d8:	48 89 e5             	mov    %rsp,%rbp
    83db:	89 fa                	mov    %edi,%edx
    83dd:	89 f0                	mov    %esi,%eax
    83df:	66 89 55 fc          	mov    %dx,-0x4(%rbp)
    83e3:	66 89 45 f8          	mov    %ax,-0x8(%rbp)
    83e7:	0f b7 55 fc          	movzwl -0x4(%rbp),%edx
    83eb:	0f b7 45 f8          	movzwl -0x8(%rbp),%eax
    83ef:	29 c2                	sub    %eax,%edx
    83f1:	89 d0                	mov    %edx,%eax
    83f3:	5d                   	pop    %rbp
    83f4:	c3                   	retq   

00000000000083f5 <safe_mul_func_int16_t_s_s>:
    83f5:	f3 0f 1e fa          	endbr64 
    83f9:	55                   	push   %rbp
    83fa:	48 89 e5             	mov    %rsp,%rbp
    83fd:	89 fa                	mov    %edi,%edx
    83ff:	89 f0                	mov    %esi,%eax
    8401:	66 89 55 fc          	mov    %dx,-0x4(%rbp)
    8405:	66 89 45 f8          	mov    %ax,-0x8(%rbp)
    8409:	0f b7 55 fc          	movzwl -0x4(%rbp),%edx
    840d:	0f b7 45 f8          	movzwl -0x8(%rbp),%eax
    8411:	0f af c2             	imul   %edx,%eax
    8414:	5d                   	pop    %rbp
    8415:	c3                   	retq   

0000000000008416 <safe_mod_func_int16_t_s_s>:
    8416:	f3 0f 1e fa          	endbr64 
    841a:	55                   	push   %rbp
    841b:	48 89 e5             	mov    %rsp,%rbp
    841e:	89 fa                	mov    %edi,%edx
    8420:	89 f0                	mov    %esi,%eax
    8422:	66 89 55 fc          	mov    %dx,-0x4(%rbp)
    8426:	66 89 45 f8          	mov    %ax,-0x8(%rbp)
    842a:	66 83 7d f8 00       	cmpw   $0x0,-0x8(%rbp)
    842f:	74 1e                	je     844f <safe_mod_func_int16_t_s_s+0x39>
    8431:	66 81 7d fc 00 80    	cmpw   $0x8000,-0x4(%rbp)
    8437:	75 07                	jne    8440 <safe_mod_func_int16_t_s_s+0x2a>
    8439:	66 83 7d f8 ff       	cmpw   $0xffff,-0x8(%rbp)
    843e:	74 0f                	je     844f <safe_mod_func_int16_t_s_s+0x39>
    8440:	0f bf 45 fc          	movswl -0x4(%rbp),%eax
    8444:	0f bf 4d f8          	movswl -0x8(%rbp),%ecx
    8448:	99                   	cltd   
    8449:	f7 f9                	idiv   %ecx
    844b:	89 d0                	mov    %edx,%eax
    844d:	eb 04                	jmp    8453 <safe_mod_func_int16_t_s_s+0x3d>
    844f:	0f b7 45 fc          	movzwl -0x4(%rbp),%eax
    8453:	5d                   	pop    %rbp
    8454:	c3                   	retq   

0000000000008455 <safe_div_func_int16_t_s_s>:
    8455:	f3 0f 1e fa          	endbr64 
    8459:	55                   	push   %rbp
    845a:	48 89 e5             	mov    %rsp,%rbp
    845d:	89 fa                	mov    %edi,%edx
    845f:	89 f0                	mov    %esi,%eax
    8461:	66 89 55 fc          	mov    %dx,-0x4(%rbp)
    8465:	66 89 45 f8          	mov    %ax,-0x8(%rbp)
    8469:	66 83 7d f8 00       	cmpw   $0x0,-0x8(%rbp)
    846e:	74 1c                	je     848c <safe_div_func_int16_t_s_s+0x37>
    8470:	66 81 7d fc 00 80    	cmpw   $0x8000,-0x4(%rbp)
    8476:	75 07                	jne    847f <safe_div_func_int16_t_s_s+0x2a>
    8478:	66 83 7d f8 ff       	cmpw   $0xffff,-0x8(%rbp)
    847d:	74 0d                	je     848c <safe_div_func_int16_t_s_s+0x37>
    847f:	0f bf 45 fc          	movswl -0x4(%rbp),%eax
    8483:	0f bf 4d f8          	movswl -0x8(%rbp),%ecx
    8487:	99                   	cltd   
    8488:	f7 f9                	idiv   %ecx
    848a:	eb 04                	jmp    8490 <safe_div_func_int16_t_s_s+0x3b>
    848c:	0f b7 45 fc          	movzwl -0x4(%rbp),%eax
    8490:	5d                   	pop    %rbp
    8491:	c3                   	retq   

0000000000008492 <safe_lshift_func_int16_t_s_s>:
    8492:	f3 0f 1e fa          	endbr64 
    8496:	55                   	push   %rbp
    8497:	48 89 e5             	mov    %rsp,%rbp
    849a:	89 f8                	mov    %edi,%eax
    849c:	89 75 f8             	mov    %esi,-0x8(%rbp)
    849f:	66 89 45 fc          	mov    %ax,-0x4(%rbp)
    84a3:	66 83 7d fc 00       	cmpw   $0x0,-0x4(%rbp)
    84a8:	78 31                	js     84db <safe_lshift_func_int16_t_s_s+0x49>
    84aa:	83 7d f8 00          	cmpl   $0x0,-0x8(%rbp)
    84ae:	78 2b                	js     84db <safe_lshift_func_int16_t_s_s+0x49>
    84b0:	83 7d f8 1f          	cmpl   $0x1f,-0x8(%rbp)
    84b4:	7f 25                	jg     84db <safe_lshift_func_int16_t_s_s+0x49>
    84b6:	0f bf 55 fc          	movswl -0x4(%rbp),%edx
    84ba:	8b 45 f8             	mov    -0x8(%rbp),%eax
    84bd:	be ff 7f 00 00       	mov    $0x7fff,%esi
    84c2:	89 c1                	mov    %eax,%ecx
    84c4:	d3 fe                	sar    %cl,%esi
    84c6:	89 f0                	mov    %esi,%eax
    84c8:	39 c2                	cmp    %eax,%edx
    84ca:	7f 0f                	jg     84db <safe_lshift_func_int16_t_s_s+0x49>
    84cc:	0f bf 55 fc          	movswl -0x4(%rbp),%edx
    84d0:	8b 45 f8             	mov    -0x8(%rbp),%eax
    84d3:	89 c1                	mov    %eax,%ecx
    84d5:	d3 e2                	shl    %cl,%edx
    84d7:	89 d0                	mov    %edx,%eax
    84d9:	eb 04                	jmp    84df <safe_lshift_func_int16_t_s_s+0x4d>
    84db:	0f b7 45 fc          	movzwl -0x4(%rbp),%eax
    84df:	5d                   	pop    %rbp
    84e0:	c3                   	retq   

00000000000084e1 <safe_lshift_func_int16_t_s_u>:
    84e1:	f3 0f 1e fa          	endbr64 
    84e5:	55                   	push   %rbp
    84e6:	48 89 e5             	mov    %rsp,%rbp
    84e9:	89 f8                	mov    %edi,%eax
    84eb:	89 75 f8             	mov    %esi,-0x8(%rbp)
    84ee:	66 89 45 fc          	mov    %ax,-0x4(%rbp)
    84f2:	66 83 7d fc 00       	cmpw   $0x0,-0x4(%rbp)
    84f7:	78 2b                	js     8524 <safe_lshift_func_int16_t_s_u+0x43>
    84f9:	83 7d f8 1f          	cmpl   $0x1f,-0x8(%rbp)
    84fd:	77 25                	ja     8524 <safe_lshift_func_int16_t_s_u+0x43>
    84ff:	0f bf 55 fc          	movswl -0x4(%rbp),%edx
    8503:	8b 45 f8             	mov    -0x8(%rbp),%eax
    8506:	be ff 7f 00 00       	mov    $0x7fff,%esi
    850b:	89 c1                	mov    %eax,%ecx
    850d:	d3 fe                	sar    %cl,%esi
    850f:	89 f0                	mov    %esi,%eax
    8511:	39 c2                	cmp    %eax,%edx
    8513:	7f 0f                	jg     8524 <safe_lshift_func_int16_t_s_u+0x43>
    8515:	0f bf 55 fc          	movswl -0x4(%rbp),%edx
    8519:	8b 45 f8             	mov    -0x8(%rbp),%eax
    851c:	89 c1                	mov    %eax,%ecx
    851e:	d3 e2                	shl    %cl,%edx
    8520:	89 d0                	mov    %edx,%eax
    8522:	eb 04                	jmp    8528 <safe_lshift_func_int16_t_s_u+0x47>
    8524:	0f b7 45 fc          	movzwl -0x4(%rbp),%eax
    8528:	5d                   	pop    %rbp
    8529:	c3                   	retq   

000000000000852a <safe_rshift_func_int16_t_s_s>:
    852a:	f3 0f 1e fa          	endbr64 
    852e:	55                   	push   %rbp
    852f:	48 89 e5             	mov    %rsp,%rbp
    8532:	89 f8                	mov    %edi,%eax
    8534:	89 75 f8             	mov    %esi,-0x8(%rbp)
    8537:	66 89 45 fc          	mov    %ax,-0x4(%rbp)
    853b:	66 83 7d fc 00       	cmpw   $0x0,-0x4(%rbp)
    8540:	78 1b                	js     855d <safe_rshift_func_int16_t_s_s+0x33>
    8542:	83 7d f8 00          	cmpl   $0x0,-0x8(%rbp)
    8546:	78 15                	js     855d <safe_rshift_func_int16_t_s_s+0x33>
    8548:	83 7d f8 1f          	cmpl   $0x1f,-0x8(%rbp)
    854c:	7f 0f                	jg     855d <safe_rshift_func_int16_t_s_s+0x33>
    854e:	0f bf 55 fc          	movswl -0x4(%rbp),%edx
    8552:	8b 45 f8             	mov    -0x8(%rbp),%eax
    8555:	89 c1                	mov    %eax,%ecx
    8557:	d3 fa                	sar    %cl,%edx
    8559:	89 d0                	mov    %edx,%eax
    855b:	eb 04                	jmp    8561 <safe_rshift_func_int16_t_s_s+0x37>
    855d:	0f b7 45 fc          	movzwl -0x4(%rbp),%eax
    8561:	5d                   	pop    %rbp
    8562:	c3                   	retq   

0000000000008563 <safe_rshift_func_int16_t_s_u>:
    8563:	f3 0f 1e fa          	endbr64 
    8567:	55                   	push   %rbp
    8568:	48 89 e5             	mov    %rsp,%rbp
    856b:	89 f8                	mov    %edi,%eax
    856d:	89 75 f8             	mov    %esi,-0x8(%rbp)
    8570:	66 89 45 fc          	mov    %ax,-0x4(%rbp)
    8574:	66 83 7d fc 00       	cmpw   $0x0,-0x4(%rbp)
    8579:	78 15                	js     8590 <safe_rshift_func_int16_t_s_u+0x2d>
    857b:	83 7d f8 1f          	cmpl   $0x1f,-0x8(%rbp)
    857f:	77 0f                	ja     8590 <safe_rshift_func_int16_t_s_u+0x2d>
    8581:	0f bf 55 fc          	movswl -0x4(%rbp),%edx
    8585:	8b 45 f8             	mov    -0x8(%rbp),%eax
    8588:	89 c1                	mov    %eax,%ecx
    858a:	d3 fa                	sar    %cl,%edx
    858c:	89 d0                	mov    %edx,%eax
    858e:	eb 04                	jmp    8594 <safe_rshift_func_int16_t_s_u+0x31>
    8590:	0f b7 45 fc          	movzwl -0x4(%rbp),%eax
    8594:	5d                   	pop    %rbp
    8595:	c3                   	retq   

0000000000008596 <safe_unary_minus_func_int32_t_s>:
    8596:	f3 0f 1e fa          	endbr64 
    859a:	55                   	push   %rbp
    859b:	48 89 e5             	mov    %rsp,%rbp
    859e:	89 7d fc             	mov    %edi,-0x4(%rbp)
    85a1:	81 7d fc 00 00 00 80 	cmpl   $0x80000000,-0x4(%rbp)
    85a8:	74 07                	je     85b1 <safe_unary_minus_func_int32_t_s+0x1b>
    85aa:	8b 45 fc             	mov    -0x4(%rbp),%eax
    85ad:	f7 d8                	neg    %eax
    85af:	eb 03                	jmp    85b4 <safe_unary_minus_func_int32_t_s+0x1e>
    85b1:	8b 45 fc             	mov    -0x4(%rbp),%eax
    85b4:	5d                   	pop    %rbp
    85b5:	c3                   	retq   

00000000000085b6 <safe_add_func_int32_t_s_s>:
    85b6:	f3 0f 1e fa          	endbr64 
    85ba:	55                   	push   %rbp
    85bb:	48 89 e5             	mov    %rsp,%rbp
    85be:	89 7d fc             	mov    %edi,-0x4(%rbp)
    85c1:	89 75 f8             	mov    %esi,-0x8(%rbp)
    85c4:	83 7d fc 00          	cmpl   $0x0,-0x4(%rbp)
    85c8:	7e 13                	jle    85dd <safe_add_func_int32_t_s_s+0x27>
    85ca:	83 7d f8 00          	cmpl   $0x0,-0x8(%rbp)
    85ce:	7e 0d                	jle    85dd <safe_add_func_int32_t_s_s+0x27>
    85d0:	b8 ff ff ff 7f       	mov    $0x7fffffff,%eax
    85d5:	2b 45 f8             	sub    -0x8(%rbp),%eax
    85d8:	39 45 fc             	cmp    %eax,-0x4(%rbp)
    85db:	7f 23                	jg     8600 <safe_add_func_int32_t_s_s+0x4a>
    85dd:	83 7d fc 00          	cmpl   $0x0,-0x4(%rbp)
    85e1:	79 13                	jns    85f6 <safe_add_func_int32_t_s_s+0x40>
    85e3:	83 7d f8 00          	cmpl   $0x0,-0x8(%rbp)
    85e7:	79 0d                	jns    85f6 <safe_add_func_int32_t_s_s+0x40>
    85e9:	b8 00 00 00 80       	mov    $0x80000000,%eax
    85ee:	2b 45 f8             	sub    -0x8(%rbp),%eax
    85f1:	39 45 fc             	cmp    %eax,-0x4(%rbp)
    85f4:	7c 0a                	jl     8600 <safe_add_func_int32_t_s_s+0x4a>
    85f6:	8b 55 fc             	mov    -0x4(%rbp),%edx
    85f9:	8b 45 f8             	mov    -0x8(%rbp),%eax
    85fc:	01 d0                	add    %edx,%eax
    85fe:	eb 03                	jmp    8603 <safe_add_func_int32_t_s_s+0x4d>
    8600:	8b 45 fc             	mov    -0x4(%rbp),%eax
    8603:	5d                   	pop    %rbp
    8604:	c3                   	retq   

0000000000008605 <safe_sub_func_int32_t_s_s>:
    8605:	f3 0f 1e fa          	endbr64 
    8609:	55                   	push   %rbp
    860a:	48 89 e5             	mov    %rsp,%rbp
    860d:	89 7d fc             	mov    %edi,-0x4(%rbp)
    8610:	89 75 f8             	mov    %esi,-0x8(%rbp)
    8613:	8b 45 fc             	mov    -0x4(%rbp),%eax
    8616:	33 45 f8             	xor    -0x8(%rbp),%eax
    8619:	89 c2                	mov    %eax,%edx
    861b:	8b 45 fc             	mov    -0x4(%rbp),%eax
    861e:	33 45 f8             	xor    -0x8(%rbp),%eax
    8621:	25 00 00 00 80       	and    $0x80000000,%eax
    8626:	33 45 fc             	xor    -0x4(%rbp),%eax
    8629:	2b 45 f8             	sub    -0x8(%rbp),%eax
    862c:	33 45 f8             	xor    -0x8(%rbp),%eax
    862f:	21 d0                	and    %edx,%eax
    8631:	85 c0                	test   %eax,%eax
    8633:	78 08                	js     863d <safe_sub_func_int32_t_s_s+0x38>
    8635:	8b 45 fc             	mov    -0x4(%rbp),%eax
    8638:	2b 45 f8             	sub    -0x8(%rbp),%eax
    863b:	eb 03                	jmp    8640 <safe_sub_func_int32_t_s_s+0x3b>
    863d:	8b 45 fc             	mov    -0x4(%rbp),%eax
    8640:	5d                   	pop    %rbp
    8641:	c3                   	retq   

0000000000008642 <safe_mul_func_int32_t_s_s>:
    8642:	f3 0f 1e fa          	endbr64 
    8646:	55                   	push   %rbp
    8647:	48 89 e5             	mov    %rsp,%rbp
    864a:	89 7d fc             	mov    %edi,-0x4(%rbp)
    864d:	89 75 f8             	mov    %esi,-0x8(%rbp)
    8650:	83 7d fc 00          	cmpl   $0x0,-0x4(%rbp)
    8654:	7e 14                	jle    866a <safe_mul_func_int32_t_s_s+0x28>
    8656:	83 7d f8 00          	cmpl   $0x0,-0x8(%rbp)
    865a:	7e 0e                	jle    866a <safe_mul_func_int32_t_s_s+0x28>
    865c:	b8 ff ff ff 7f       	mov    $0x7fffffff,%eax
    8661:	99                   	cltd   
    8662:	f7 7d f8             	idivl  -0x8(%rbp)
    8665:	39 45 fc             	cmp    %eax,-0x4(%rbp)
    8668:	7f 5d                	jg     86c7 <safe_mul_func_int32_t_s_s+0x85>
    866a:	83 7d fc 00          	cmpl   $0x0,-0x4(%rbp)
    866e:	7e 14                	jle    8684 <safe_mul_func_int32_t_s_s+0x42>
    8670:	83 7d f8 00          	cmpl   $0x0,-0x8(%rbp)
    8674:	7f 0e                	jg     8684 <safe_mul_func_int32_t_s_s+0x42>
    8676:	b8 00 00 00 80       	mov    $0x80000000,%eax
    867b:	99                   	cltd   
    867c:	f7 7d fc             	idivl  -0x4(%rbp)
    867f:	39 45 f8             	cmp    %eax,-0x8(%rbp)
    8682:	7c 43                	jl     86c7 <safe_mul_func_int32_t_s_s+0x85>
    8684:	83 7d fc 00          	cmpl   $0x0,-0x4(%rbp)
    8688:	7f 14                	jg     869e <safe_mul_func_int32_t_s_s+0x5c>
    868a:	83 7d f8 00          	cmpl   $0x0,-0x8(%rbp)
    868e:	7e 0e                	jle    869e <safe_mul_func_int32_t_s_s+0x5c>
    8690:	b8 00 00 00 80       	mov    $0x80000000,%eax
    8695:	99                   	cltd   
    8696:	f7 7d f8             	idivl  -0x8(%rbp)
    8699:	39 45 fc             	cmp    %eax,-0x4(%rbp)
    869c:	7c 29                	jl     86c7 <safe_mul_func_int32_t_s_s+0x85>
    869e:	83 7d fc 00          	cmpl   $0x0,-0x4(%rbp)
    86a2:	7f 1a                	jg     86be <safe_mul_func_int32_t_s_s+0x7c>
    86a4:	83 7d f8 00          	cmpl   $0x0,-0x8(%rbp)
    86a8:	7f 14                	jg     86be <safe_mul_func_int32_t_s_s+0x7c>
    86aa:	83 7d fc 00          	cmpl   $0x0,-0x4(%rbp)
    86ae:	74 0e                	je     86be <safe_mul_func_int32_t_s_s+0x7c>
    86b0:	b8 ff ff ff 7f       	mov    $0x7fffffff,%eax
    86b5:	99                   	cltd   
    86b6:	f7 7d fc             	idivl  -0x4(%rbp)
    86b9:	39 45 f8             	cmp    %eax,-0x8(%rbp)
    86bc:	7c 09                	jl     86c7 <safe_mul_func_int32_t_s_s+0x85>
    86be:	8b 45 fc             	mov    -0x4(%rbp),%eax
    86c1:	0f af 45 f8          	imul   -0x8(%rbp),%eax
    86c5:	eb 03                	jmp    86ca <safe_mul_func_int32_t_s_s+0x88>
    86c7:	8b 45 fc             	mov    -0x4(%rbp),%eax
    86ca:	5d                   	pop    %rbp
    86cb:	c3                   	retq   

00000000000086cc <safe_mod_func_int32_t_s_s>:
    86cc:	f3 0f 1e fa          	endbr64 
    86d0:	55                   	push   %rbp
    86d1:	48 89 e5             	mov    %rsp,%rbp
    86d4:	89 7d fc             	mov    %edi,-0x4(%rbp)
    86d7:	89 75 f8             	mov    %esi,-0x8(%rbp)
    86da:	83 7d f8 00          	cmpl   $0x0,-0x8(%rbp)
    86de:	74 1a                	je     86fa <safe_mod_func_int32_t_s_s+0x2e>
    86e0:	81 7d fc 00 00 00 80 	cmpl   $0x80000000,-0x4(%rbp)
    86e7:	75 06                	jne    86ef <safe_mod_func_int32_t_s_s+0x23>
    86e9:	83 7d f8 ff          	cmpl   $0xffffffff,-0x8(%rbp)
    86ed:	74 0b                	je     86fa <safe_mod_func_int32_t_s_s+0x2e>
    86ef:	8b 45 fc             	mov    -0x4(%rbp),%eax
    86f2:	99                   	cltd   
    86f3:	f7 7d f8             	idivl  -0x8(%rbp)
    86f6:	89 d0                	mov    %edx,%eax
    86f8:	eb 03                	jmp    86fd <safe_mod_func_int32_t_s_s+0x31>
    86fa:	8b 45 fc             	mov    -0x4(%rbp),%eax
    86fd:	5d                   	pop    %rbp
    86fe:	c3                   	retq   

00000000000086ff <safe_div_func_int32_t_s_s>:
    86ff:	f3 0f 1e fa          	endbr64 
    8703:	55                   	push   %rbp
    8704:	48 89 e5             	mov    %rsp,%rbp
    8707:	89 7d fc             	mov    %edi,-0x4(%rbp)
    870a:	89 75 f8             	mov    %esi,-0x8(%rbp)
    870d:	83 7d f8 00          	cmpl   $0x0,-0x8(%rbp)
    8711:	74 18                	je     872b <safe_div_func_int32_t_s_s+0x2c>
    8713:	81 7d fc 00 00 00 80 	cmpl   $0x80000000,-0x4(%rbp)
    871a:	75 06                	jne    8722 <safe_div_func_int32_t_s_s+0x23>
    871c:	83 7d f8 ff          	cmpl   $0xffffffff,-0x8(%rbp)
    8720:	74 09                	je     872b <safe_div_func_int32_t_s_s+0x2c>
    8722:	8b 45 fc             	mov    -0x4(%rbp),%eax
    8725:	99                   	cltd   
    8726:	f7 7d f8             	idivl  -0x8(%rbp)
    8729:	eb 03                	jmp    872e <safe_div_func_int32_t_s_s+0x2f>
    872b:	8b 45 fc             	mov    -0x4(%rbp),%eax
    872e:	5d                   	pop    %rbp
    872f:	c3                   	retq   

0000000000008730 <safe_lshift_func_int32_t_s_s>:
    8730:	f3 0f 1e fa          	endbr64 
    8734:	55                   	push   %rbp
    8735:	48 89 e5             	mov    %rsp,%rbp
    8738:	89 7d fc             	mov    %edi,-0x4(%rbp)
    873b:	89 75 f8             	mov    %esi,-0x8(%rbp)
    873e:	83 7d fc 00          	cmpl   $0x0,-0x4(%rbp)
    8742:	78 2d                	js     8771 <safe_lshift_func_int32_t_s_s+0x41>
    8744:	83 7d f8 00          	cmpl   $0x0,-0x8(%rbp)
    8748:	78 27                	js     8771 <safe_lshift_func_int32_t_s_s+0x41>
    874a:	83 7d f8 1f          	cmpl   $0x1f,-0x8(%rbp)
    874e:	7f 21                	jg     8771 <safe_lshift_func_int32_t_s_s+0x41>
    8750:	8b 45 f8             	mov    -0x8(%rbp),%eax
    8753:	ba ff ff ff 7f       	mov    $0x7fffffff,%edx
    8758:	89 c1                	mov    %eax,%ecx
    875a:	d3 fa                	sar    %cl,%edx
    875c:	89 d0                	mov    %edx,%eax
    875e:	39 45 fc             	cmp    %eax,-0x4(%rbp)
    8761:	7f 0e                	jg     8771 <safe_lshift_func_int32_t_s_s+0x41>
    8763:	8b 45 f8             	mov    -0x8(%rbp),%eax
    8766:	8b 55 fc             	mov    -0x4(%rbp),%edx
    8769:	89 c1                	mov    %eax,%ecx
    876b:	d3 e2                	shl    %cl,%edx
    876d:	89 d0                	mov    %edx,%eax
    876f:	eb 03                	jmp    8774 <safe_lshift_func_int32_t_s_s+0x44>
    8771:	8b 45 fc             	mov    -0x4(%rbp),%eax
    8774:	5d                   	pop    %rbp
    8775:	c3                   	retq   

0000000000008776 <safe_lshift_func_int32_t_s_u>:
    8776:	f3 0f 1e fa          	endbr64 
    877a:	55                   	push   %rbp
    877b:	48 89 e5             	mov    %rsp,%rbp
    877e:	89 7d fc             	mov    %edi,-0x4(%rbp)
    8781:	89 75 f8             	mov    %esi,-0x8(%rbp)
    8784:	83 7d fc 00          	cmpl   $0x0,-0x4(%rbp)
    8788:	78 27                	js     87b1 <safe_lshift_func_int32_t_s_u+0x3b>
    878a:	83 7d f8 1f          	cmpl   $0x1f,-0x8(%rbp)
    878e:	77 21                	ja     87b1 <safe_lshift_func_int32_t_s_u+0x3b>
    8790:	8b 45 f8             	mov    -0x8(%rbp),%eax
    8793:	ba ff ff ff 7f       	mov    $0x7fffffff,%edx
    8798:	89 c1                	mov    %eax,%ecx
    879a:	d3 fa                	sar    %cl,%edx
    879c:	89 d0                	mov    %edx,%eax
    879e:	39 45 fc             	cmp    %eax,-0x4(%rbp)
    87a1:	7f 0e                	jg     87b1 <safe_lshift_func_int32_t_s_u+0x3b>
    87a3:	8b 45 f8             	mov    -0x8(%rbp),%eax
    87a6:	8b 55 fc             	mov    -0x4(%rbp),%edx
    87a9:	89 c1                	mov    %eax,%ecx
    87ab:	d3 e2                	shl    %cl,%edx
    87ad:	89 d0                	mov    %edx,%eax
    87af:	eb 03                	jmp    87b4 <safe_lshift_func_int32_t_s_u+0x3e>
    87b1:	8b 45 fc             	mov    -0x4(%rbp),%eax
    87b4:	5d                   	pop    %rbp
    87b5:	c3                   	retq   

00000000000087b6 <safe_rshift_func_int32_t_s_s>:
    87b6:	f3 0f 1e fa          	endbr64 
    87ba:	55                   	push   %rbp
    87bb:	48 89 e5             	mov    %rsp,%rbp
    87be:	89 7d fc             	mov    %edi,-0x4(%rbp)
    87c1:	89 75 f8             	mov    %esi,-0x8(%rbp)
    87c4:	83 7d fc 00          	cmpl   $0x0,-0x4(%rbp)
    87c8:	78 1a                	js     87e4 <safe_rshift_func_int32_t_s_s+0x2e>
    87ca:	83 7d f8 00          	cmpl   $0x0,-0x8(%rbp)
    87ce:	78 14                	js     87e4 <safe_rshift_func_int32_t_s_s+0x2e>
    87d0:	83 7d f8 1f          	cmpl   $0x1f,-0x8(%rbp)
    87d4:	7f 0e                	jg     87e4 <safe_rshift_func_int32_t_s_s+0x2e>
    87d6:	8b 45 f8             	mov    -0x8(%rbp),%eax
    87d9:	8b 55 fc             	mov    -0x4(%rbp),%edx
    87dc:	89 c1                	mov    %eax,%ecx
    87de:	d3 fa                	sar    %cl,%edx
    87e0:	89 d0                	mov    %edx,%eax
    87e2:	eb 03                	jmp    87e7 <safe_rshift_func_int32_t_s_s+0x31>
    87e4:	8b 45 fc             	mov    -0x4(%rbp),%eax
    87e7:	5d                   	pop    %rbp
    87e8:	c3                   	retq   

00000000000087e9 <safe_rshift_func_int32_t_s_u>:
    87e9:	f3 0f 1e fa          	endbr64 
    87ed:	55                   	push   %rbp
    87ee:	48 89 e5             	mov    %rsp,%rbp
    87f1:	89 7d fc             	mov    %edi,-0x4(%rbp)
    87f4:	89 75 f8             	mov    %esi,-0x8(%rbp)
    87f7:	83 7d fc 00          	cmpl   $0x0,-0x4(%rbp)
    87fb:	78 14                	js     8811 <safe_rshift_func_int32_t_s_u+0x28>
    87fd:	83 7d f8 1f          	cmpl   $0x1f,-0x8(%rbp)
    8801:	77 0e                	ja     8811 <safe_rshift_func_int32_t_s_u+0x28>
    8803:	8b 45 f8             	mov    -0x8(%rbp),%eax
    8806:	8b 55 fc             	mov    -0x4(%rbp),%edx
    8809:	89 c1                	mov    %eax,%ecx
    880b:	d3 fa                	sar    %cl,%edx
    880d:	89 d0                	mov    %edx,%eax
    880f:	eb 03                	jmp    8814 <safe_rshift_func_int32_t_s_u+0x2b>
    8811:	8b 45 fc             	mov    -0x4(%rbp),%eax
    8814:	5d                   	pop    %rbp
    8815:	c3                   	retq   

0000000000008816 <safe_unary_minus_func_int64_t_s>:
    8816:	f3 0f 1e fa          	endbr64 
    881a:	55                   	push   %rbp
    881b:	48 89 e5             	mov    %rsp,%rbp
    881e:	48 89 7d f8          	mov    %rdi,-0x8(%rbp)
    8822:	48 b8 00 00 00 00 00 	movabs $0x8000000000000000,%rax
    8829:	00 00 80 
    882c:	48 39 45 f8          	cmp    %rax,-0x8(%rbp)
    8830:	74 09                	je     883b <safe_unary_minus_func_int64_t_s+0x25>
    8832:	48 8b 45 f8          	mov    -0x8(%rbp),%rax
    8836:	48 f7 d8             	neg    %rax
    8839:	eb 04                	jmp    883f <safe_unary_minus_func_int64_t_s+0x29>
    883b:	48 8b 45 f8          	mov    -0x8(%rbp),%rax
    883f:	5d                   	pop    %rbp
    8840:	c3                   	retq   

0000000000008841 <safe_add_func_int64_t_s_s>:
    8841:	f3 0f 1e fa          	endbr64 
    8845:	55                   	push   %rbp
    8846:	48 89 e5             	mov    %rsp,%rbp
    8849:	48 89 7d f8          	mov    %rdi,-0x8(%rbp)
    884d:	48 89 75 f0          	mov    %rsi,-0x10(%rbp)
    8851:	48 83 7d f8 00       	cmpq   $0x0,-0x8(%rbp)
    8856:	7e 1b                	jle    8873 <safe_add_func_int64_t_s_s+0x32>
    8858:	48 83 7d f0 00       	cmpq   $0x0,-0x10(%rbp)
    885d:	7e 14                	jle    8873 <safe_add_func_int64_t_s_s+0x32>
    885f:	48 b8 ff ff ff ff ff 	movabs $0x7fffffffffffffff,%rax
    8866:	ff ff 7f 
    8869:	48 2b 45 f0          	sub    -0x10(%rbp),%rax
    886d:	48 39 45 f8          	cmp    %rax,-0x8(%rbp)
    8871:	7f 2f                	jg     88a2 <safe_add_func_int64_t_s_s+0x61>
    8873:	48 83 7d f8 00       	cmpq   $0x0,-0x8(%rbp)
    8878:	79 1b                	jns    8895 <safe_add_func_int64_t_s_s+0x54>
    887a:	48 83 7d f0 00       	cmpq   $0x0,-0x10(%rbp)
    887f:	79 14                	jns    8895 <safe_add_func_int64_t_s_s+0x54>
    8881:	48 b8 00 00 00 00 00 	movabs $0x8000000000000000,%rax
    8888:	00 00 80 
    888b:	48 2b 45 f0          	sub    -0x10(%rbp),%rax
    888f:	48 39 45 f8          	cmp    %rax,-0x8(%rbp)
    8893:	7c 0d                	jl     88a2 <safe_add_func_int64_t_s_s+0x61>
    8895:	48 8b 55 f8          	mov    -0x8(%rbp),%rdx
    8899:	48 8b 45 f0          	mov    -0x10(%rbp),%rax
    889d:	48 01 d0             	add    %rdx,%rax
    88a0:	eb 04                	jmp    88a6 <safe_add_func_int64_t_s_s+0x65>
    88a2:	48 8b 45 f8          	mov    -0x8(%rbp),%rax
    88a6:	5d                   	pop    %rbp
    88a7:	c3                   	retq   

00000000000088a8 <safe_sub_func_int64_t_s_s>:
    88a8:	f3 0f 1e fa          	endbr64 
    88ac:	55                   	push   %rbp
    88ad:	48 89 e5             	mov    %rsp,%rbp
    88b0:	48 89 7d f8          	mov    %rdi,-0x8(%rbp)
    88b4:	48 89 75 f0          	mov    %rsi,-0x10(%rbp)
    88b8:	48 8b 45 f8          	mov    -0x8(%rbp),%rax
    88bc:	48 33 45 f0          	xor    -0x10(%rbp),%rax
    88c0:	48 89 c2             	mov    %rax,%rdx
    88c3:	48 8b 45 f8          	mov    -0x8(%rbp),%rax
    88c7:	48 33 45 f0          	xor    -0x10(%rbp),%rax
    88cb:	48 b9 00 00 00 00 00 	movabs $0x8000000000000000,%rcx
    88d2:	00 00 80 
    88d5:	48 21 c8             	and    %rcx,%rax
    88d8:	48 33 45 f8          	xor    -0x8(%rbp),%rax
    88dc:	48 2b 45 f0          	sub    -0x10(%rbp),%rax
    88e0:	48 33 45 f0          	xor    -0x10(%rbp),%rax
    88e4:	48 21 d0             	and    %rdx,%rax
    88e7:	48 85 c0             	test   %rax,%rax
    88ea:	78 0a                	js     88f6 <safe_sub_func_int64_t_s_s+0x4e>
    88ec:	48 8b 45 f8          	mov    -0x8(%rbp),%rax
    88f0:	48 2b 45 f0          	sub    -0x10(%rbp),%rax
    88f4:	eb 04                	jmp    88fa <safe_sub_func_int64_t_s_s+0x52>
    88f6:	48 8b 45 f8          	mov    -0x8(%rbp),%rax
    88fa:	5d                   	pop    %rbp
    88fb:	c3                   	retq   

00000000000088fc <safe_mul_func_int64_t_s_s>:
    88fc:	f3 0f 1e fa          	endbr64 
    8900:	55                   	push   %rbp
    8901:	48 89 e5             	mov    %rsp,%rbp
    8904:	48 89 7d f8          	mov    %rdi,-0x8(%rbp)
    8908:	48 89 75 f0          	mov    %rsi,-0x10(%rbp)
    890c:	48 83 7d f8 00       	cmpq   $0x0,-0x8(%rbp)
    8911:	7e 1d                	jle    8930 <safe_mul_func_int64_t_s_s+0x34>
    8913:	48 83 7d f0 00       	cmpq   $0x0,-0x10(%rbp)
    8918:	7e 16                	jle    8930 <safe_mul_func_int64_t_s_s+0x34>
    891a:	48 b8 ff ff ff ff ff 	movabs $0x7fffffffffffffff,%rax
    8921:	ff ff 7f 
    8924:	48 99                	cqto   
    8926:	48 f7 7d f0          	idivq  -0x10(%rbp)
    892a:	48 39 45 f8          	cmp    %rax,-0x8(%rbp)
    892e:	7f 7e                	jg     89ae <safe_mul_func_int64_t_s_s+0xb2>
    8930:	48 83 7d f8 00       	cmpq   $0x0,-0x8(%rbp)
    8935:	7e 1d                	jle    8954 <safe_mul_func_int64_t_s_s+0x58>
    8937:	48 83 7d f0 00       	cmpq   $0x0,-0x10(%rbp)
    893c:	7f 16                	jg     8954 <safe_mul_func_int64_t_s_s+0x58>
    893e:	48 b8 00 00 00 00 00 	movabs $0x8000000000000000,%rax
    8945:	00 00 80 
    8948:	48 99                	cqto   
    894a:	48 f7 7d f8          	idivq  -0x8(%rbp)
    894e:	48 39 45 f0          	cmp    %rax,-0x10(%rbp)
    8952:	7c 5a                	jl     89ae <safe_mul_func_int64_t_s_s+0xb2>
    8954:	48 83 7d f8 00       	cmpq   $0x0,-0x8(%rbp)
    8959:	7f 1d                	jg     8978 <safe_mul_func_int64_t_s_s+0x7c>
    895b:	48 83 7d f0 00       	cmpq   $0x0,-0x10(%rbp)
    8960:	7e 16                	jle    8978 <safe_mul_func_int64_t_s_s+0x7c>
    8962:	48 b8 00 00 00 00 00 	movabs $0x8000000000000000,%rax
    8969:	00 00 80 
    896c:	48 99                	cqto   
    896e:	48 f7 7d f0          	idivq  -0x10(%rbp)
    8972:	48 39 45 f8          	cmp    %rax,-0x8(%rbp)
    8976:	7c 36                	jl     89ae <safe_mul_func_int64_t_s_s+0xb2>
    8978:	48 83 7d f8 00       	cmpq   $0x0,-0x8(%rbp)
    897d:	7f 24                	jg     89a3 <safe_mul_func_int64_t_s_s+0xa7>
    897f:	48 83 7d f0 00       	cmpq   $0x0,-0x10(%rbp)
    8984:	7f 1d                	jg     89a3 <safe_mul_func_int64_t_s_s+0xa7>
    8986:	48 83 7d f8 00       	cmpq   $0x0,-0x8(%rbp)
    898b:	74 16                	je     89a3 <safe_mul_func_int64_t_s_s+0xa7>
    898d:	48 b8 ff ff ff ff ff 	movabs $0x7fffffffffffffff,%rax
    8994:	ff ff 7f 
    8997:	48 99                	cqto   
    8999:	48 f7 7d f8          	idivq  -0x8(%rbp)
    899d:	48 39 45 f0          	cmp    %rax,-0x10(%rbp)
    89a1:	7c 0b                	jl     89ae <safe_mul_func_int64_t_s_s+0xb2>
    89a3:	48 8b 45 f8          	mov    -0x8(%rbp),%rax
    89a7:	48 0f af 45 f0       	imul   -0x10(%rbp),%rax
    89ac:	eb 04                	jmp    89b2 <safe_mul_func_int64_t_s_s+0xb6>
    89ae:	48 8b 45 f8          	mov    -0x8(%rbp),%rax
    89b2:	5d                   	pop    %rbp
    89b3:	c3                   	retq   

00000000000089b4 <safe_mod_func_int64_t_s_s>:
    89b4:	f3 0f 1e fa          	endbr64 
    89b8:	55                   	push   %rbp
    89b9:	48 89 e5             	mov    %rsp,%rbp
    89bc:	48 89 7d f8          	mov    %rdi,-0x8(%rbp)
    89c0:	48 89 75 f0          	mov    %rsi,-0x10(%rbp)
    89c4:	48 83 7d f0 00       	cmpq   $0x0,-0x10(%rbp)
    89c9:	74 26                	je     89f1 <safe_mod_func_int64_t_s_s+0x3d>
    89cb:	48 b8 00 00 00 00 00 	movabs $0x8000000000000000,%rax
    89d2:	00 00 80 
    89d5:	48 39 45 f8          	cmp    %rax,-0x8(%rbp)
    89d9:	75 07                	jne    89e2 <safe_mod_func_int64_t_s_s+0x2e>
    89db:	48 83 7d f0 ff       	cmpq   $0xffffffffffffffff,-0x10(%rbp)
    89e0:	74 0f                	je     89f1 <safe_mod_func_int64_t_s_s+0x3d>
    89e2:	48 8b 45 f8          	mov    -0x8(%rbp),%rax
    89e6:	48 99                	cqto   
    89e8:	48 f7 7d f0          	idivq  -0x10(%rbp)
    89ec:	48 89 d0             	mov    %rdx,%rax
    89ef:	eb 04                	jmp    89f5 <safe_mod_func_int64_t_s_s+0x41>
    89f1:	48 8b 45 f8          	mov    -0x8(%rbp),%rax
    89f5:	5d                   	pop    %rbp
    89f6:	c3                   	retq   

00000000000089f7 <safe_div_func_int64_t_s_s>:
    89f7:	f3 0f 1e fa          	endbr64 
    89fb:	55                   	push   %rbp
    89fc:	48 89 e5             	mov    %rsp,%rbp
    89ff:	48 89 7d f8          	mov    %rdi,-0x8(%rbp)
    8a03:	48 89 75 f0          	mov    %rsi,-0x10(%rbp)
    8a07:	48 83 7d f0 00       	cmpq   $0x0,-0x10(%rbp)
    8a0c:	74 23                	je     8a31 <safe_div_func_int64_t_s_s+0x3a>
    8a0e:	48 b8 00 00 00 00 00 	movabs $0x8000000000000000,%rax
    8a15:	00 00 80 
    8a18:	48 39 45 f8          	cmp    %rax,-0x8(%rbp)
    8a1c:	75 07                	jne    8a25 <safe_div_func_int64_t_s_s+0x2e>
    8a1e:	48 83 7d f0 ff       	cmpq   $0xffffffffffffffff,-0x10(%rbp)
    8a23:	74 0c                	je     8a31 <safe_div_func_int64_t_s_s+0x3a>
    8a25:	48 8b 45 f8          	mov    -0x8(%rbp),%rax
    8a29:	48 99                	cqto   
    8a2b:	48 f7 7d f0          	idivq  -0x10(%rbp)
    8a2f:	eb 04                	jmp    8a35 <safe_div_func_int64_t_s_s+0x3e>
    8a31:	48 8b 45 f8          	mov    -0x8(%rbp),%rax
    8a35:	5d                   	pop    %rbp
    8a36:	c3                   	retq   

0000000000008a37 <safe_lshift_func_int64_t_s_s>:
    8a37:	f3 0f 1e fa          	endbr64 
    8a3b:	55                   	push   %rbp
    8a3c:	48 89 e5             	mov    %rsp,%rbp
    8a3f:	48 89 7d f8          	mov    %rdi,-0x8(%rbp)
    8a43:	89 75 f4             	mov    %esi,-0xc(%rbp)
    8a46:	48 83 7d f8 00       	cmpq   $0x0,-0x8(%rbp)
    8a4b:	78 38                	js     8a85 <safe_lshift_func_int64_t_s_s+0x4e>
    8a4d:	83 7d f4 00          	cmpl   $0x0,-0xc(%rbp)
    8a51:	78 32                	js     8a85 <safe_lshift_func_int64_t_s_s+0x4e>
    8a53:	83 7d f4 1f          	cmpl   $0x1f,-0xc(%rbp)
    8a57:	7f 2c                	jg     8a85 <safe_lshift_func_int64_t_s_s+0x4e>
    8a59:	8b 45 f4             	mov    -0xc(%rbp),%eax
    8a5c:	48 ba ff ff ff ff ff 	movabs $0x7fffffffffffffff,%rdx
    8a63:	ff ff 7f 
    8a66:	89 c1                	mov    %eax,%ecx
    8a68:	48 d3 fa             	sar    %cl,%rdx
    8a6b:	48 89 d0             	mov    %rdx,%rax
    8a6e:	48 39 45 f8          	cmp    %rax,-0x8(%rbp)
    8a72:	7f 11                	jg     8a85 <safe_lshift_func_int64_t_s_s+0x4e>
    8a74:	8b 45 f4             	mov    -0xc(%rbp),%eax
    8a77:	48 8b 55 f8          	mov    -0x8(%rbp),%rdx
    8a7b:	89 c1                	mov    %eax,%ecx
    8a7d:	48 d3 e2             	shl    %cl,%rdx
    8a80:	48 89 d0             	mov    %rdx,%rax
    8a83:	eb 04                	jmp    8a89 <safe_lshift_func_int64_t_s_s+0x52>
    8a85:	48 8b 45 f8          	mov    -0x8(%rbp),%rax
    8a89:	5d                   	pop    %rbp
    8a8a:	c3                   	retq   

0000000000008a8b <safe_lshift_func_int64_t_s_u>:
    8a8b:	f3 0f 1e fa          	endbr64 
    8a8f:	55                   	push   %rbp
    8a90:	48 89 e5             	mov    %rsp,%rbp
    8a93:	48 89 7d f8          	mov    %rdi,-0x8(%rbp)
    8a97:	89 75 f4             	mov    %esi,-0xc(%rbp)
    8a9a:	48 83 7d f8 00       	cmpq   $0x0,-0x8(%rbp)
    8a9f:	78 32                	js     8ad3 <safe_lshift_func_int64_t_s_u+0x48>
    8aa1:	83 7d f4 1f          	cmpl   $0x1f,-0xc(%rbp)
    8aa5:	77 2c                	ja     8ad3 <safe_lshift_func_int64_t_s_u+0x48>
    8aa7:	8b 45 f4             	mov    -0xc(%rbp),%eax
    8aaa:	48 ba ff ff ff ff ff 	movabs $0x7fffffffffffffff,%rdx
    8ab1:	ff ff 7f 
    8ab4:	89 c1                	mov    %eax,%ecx
    8ab6:	48 d3 fa             	sar    %cl,%rdx
    8ab9:	48 89 d0             	mov    %rdx,%rax
    8abc:	48 39 45 f8          	cmp    %rax,-0x8(%rbp)
    8ac0:	7f 11                	jg     8ad3 <safe_lshift_func_int64_t_s_u+0x48>
    8ac2:	8b 45 f4             	mov    -0xc(%rbp),%eax
    8ac5:	48 8b 55 f8          	mov    -0x8(%rbp),%rdx
    8ac9:	89 c1                	mov    %eax,%ecx
    8acb:	48 d3 e2             	shl    %cl,%rdx
    8ace:	48 89 d0             	mov    %rdx,%rax
    8ad1:	eb 04                	jmp    8ad7 <safe_lshift_func_int64_t_s_u+0x4c>
    8ad3:	48 8b 45 f8          	mov    -0x8(%rbp),%rax
    8ad7:	5d                   	pop    %rbp
    8ad8:	c3                   	retq   

0000000000008ad9 <safe_rshift_func_int64_t_s_s>:
    8ad9:	f3 0f 1e fa          	endbr64 
    8add:	55                   	push   %rbp
    8ade:	48 89 e5             	mov    %rsp,%rbp
    8ae1:	48 89 7d f8          	mov    %rdi,-0x8(%rbp)
    8ae5:	89 75 f4             	mov    %esi,-0xc(%rbp)
    8ae8:	48 83 7d f8 00       	cmpq   $0x0,-0x8(%rbp)
    8aed:	78 1d                	js     8b0c <safe_rshift_func_int64_t_s_s+0x33>
    8aef:	83 7d f4 00          	cmpl   $0x0,-0xc(%rbp)
    8af3:	78 17                	js     8b0c <safe_rshift_func_int64_t_s_s+0x33>
    8af5:	83 7d f4 1f          	cmpl   $0x1f,-0xc(%rbp)
    8af9:	7f 11                	jg     8b0c <safe_rshift_func_int64_t_s_s+0x33>
    8afb:	8b 45 f4             	mov    -0xc(%rbp),%eax
    8afe:	48 8b 55 f8          	mov    -0x8(%rbp),%rdx
    8b02:	89 c1                	mov    %eax,%ecx
    8b04:	48 d3 fa             	sar    %cl,%rdx
    8b07:	48 89 d0             	mov    %rdx,%rax
    8b0a:	eb 04                	jmp    8b10 <safe_rshift_func_int64_t_s_s+0x37>
    8b0c:	48 8b 45 f8          	mov    -0x8(%rbp),%rax
    8b10:	5d                   	pop    %rbp
    8b11:	c3                   	retq   

0000000000008b12 <safe_rshift_func_int64_t_s_u>:
    8b12:	f3 0f 1e fa          	endbr64 
    8b16:	55                   	push   %rbp
    8b17:	48 89 e5             	mov    %rsp,%rbp
    8b1a:	48 89 7d f8          	mov    %rdi,-0x8(%rbp)
    8b1e:	89 75 f4             	mov    %esi,-0xc(%rbp)
    8b21:	48 83 7d f8 00       	cmpq   $0x0,-0x8(%rbp)
    8b26:	78 17                	js     8b3f <safe_rshift_func_int64_t_s_u+0x2d>
    8b28:	83 7d f4 1f          	cmpl   $0x1f,-0xc(%rbp)
    8b2c:	77 11                	ja     8b3f <safe_rshift_func_int64_t_s_u+0x2d>
    8b2e:	8b 45 f4             	mov    -0xc(%rbp),%eax
    8b31:	48 8b 55 f8          	mov    -0x8(%rbp),%rdx
    8b35:	89 c1                	mov    %eax,%ecx
    8b37:	48 d3 fa             	sar    %cl,%rdx
    8b3a:	48 89 d0             	mov    %rdx,%rax
    8b3d:	eb 04                	jmp    8b43 <safe_rshift_func_int64_t_s_u+0x31>
    8b3f:	48 8b 45 f8          	mov    -0x8(%rbp),%rax
    8b43:	5d                   	pop    %rbp
    8b44:	c3                   	retq   

0000000000008b45 <safe_unary_minus_func_uint8_t_u>:
    8b45:	f3 0f 1e fa          	endbr64 
    8b49:	55                   	push   %rbp
    8b4a:	48 89 e5             	mov    %rsp,%rbp
    8b4d:	89 f8                	mov    %edi,%eax
    8b4f:	88 45 fc             	mov    %al,-0x4(%rbp)
    8b52:	0f b6 45 fc          	movzbl -0x4(%rbp),%eax
    8b56:	f7 d8                	neg    %eax
    8b58:	5d                   	pop    %rbp
    8b59:	c3                   	retq   

0000000000008b5a <safe_add_func_uint8_t_u_u>:
    8b5a:	f3 0f 1e fa          	endbr64 
    8b5e:	55                   	push   %rbp
    8b5f:	48 89 e5             	mov    %rsp,%rbp
    8b62:	89 fa                	mov    %edi,%edx
    8b64:	89 f0                	mov    %esi,%eax
    8b66:	88 55 fc             	mov    %dl,-0x4(%rbp)
    8b69:	88 45 f8             	mov    %al,-0x8(%rbp)
    8b6c:	0f b6 55 fc          	movzbl -0x4(%rbp),%edx
    8b70:	0f b6 45 f8          	movzbl -0x8(%rbp),%eax
    8b74:	01 d0                	add    %edx,%eax
    8b76:	5d                   	pop    %rbp
    8b77:	c3                   	retq   

0000000000008b78 <safe_sub_func_uint8_t_u_u>:
    8b78:	f3 0f 1e fa          	endbr64 
    8b7c:	55                   	push   %rbp
    8b7d:	48 89 e5             	mov    %rsp,%rbp
    8b80:	89 fa                	mov    %edi,%edx
    8b82:	89 f0                	mov    %esi,%eax
    8b84:	88 55 fc             	mov    %dl,-0x4(%rbp)
    8b87:	88 45 f8             	mov    %al,-0x8(%rbp)
    8b8a:	0f b6 45 fc          	movzbl -0x4(%rbp),%eax
    8b8e:	2a 45 f8             	sub    -0x8(%rbp),%al
    8b91:	5d                   	pop    %rbp
    8b92:	c3                   	retq   

0000000000008b93 <safe_mul_func_uint8_t_u_u>:
    8b93:	f3 0f 1e fa          	endbr64 
    8b97:	55                   	push   %rbp
    8b98:	48 89 e5             	mov    %rsp,%rbp
    8b9b:	89 fa                	mov    %edi,%edx
    8b9d:	89 f0                	mov    %esi,%eax
    8b9f:	88 55 fc             	mov    %dl,-0x4(%rbp)
    8ba2:	88 45 f8             	mov    %al,-0x8(%rbp)
    8ba5:	0f b6 45 fc          	movzbl -0x4(%rbp),%eax
    8ba9:	f6 65 f8             	mulb   -0x8(%rbp)
    8bac:	5d                   	pop    %rbp
    8bad:	c3                   	retq   

0000000000008bae <safe_mod_func_uint8_t_u_u>:
    8bae:	f3 0f 1e fa          	endbr64 
    8bb2:	55                   	push   %rbp
    8bb3:	48 89 e5             	mov    %rsp,%rbp
    8bb6:	89 fa                	mov    %edi,%edx
    8bb8:	89 f0                	mov    %esi,%eax
    8bba:	88 55 fc             	mov    %dl,-0x4(%rbp)
    8bbd:	88 45 f8             	mov    %al,-0x8(%rbp)
    8bc0:	80 7d f8 00          	cmpb   $0x0,-0x8(%rbp)
    8bc4:	74 0f                	je     8bd5 <safe_mod_func_uint8_t_u_u+0x27>
    8bc6:	0f b6 45 fc          	movzbl -0x4(%rbp),%eax
    8bca:	0f b6 c0             	movzbl %al,%eax
    8bcd:	f6 75 f8             	divb   -0x8(%rbp)
    8bd0:	0f b6 c4             	movzbl %ah,%eax
    8bd3:	eb 04                	jmp    8bd9 <safe_mod_func_uint8_t_u_u+0x2b>
    8bd5:	0f b6 45 fc          	movzbl -0x4(%rbp),%eax
    8bd9:	5d                   	pop    %rbp
    8bda:	c3                   	retq   

0000000000008bdb <safe_div_func_uint8_t_u_u>:
    8bdb:	f3 0f 1e fa          	endbr64 
    8bdf:	55                   	push   %rbp
    8be0:	48 89 e5             	mov    %rsp,%rbp
    8be3:	89 fa                	mov    %edi,%edx
    8be5:	89 f0                	mov    %esi,%eax
    8be7:	88 55 fc             	mov    %dl,-0x4(%rbp)
    8bea:	88 45 f8             	mov    %al,-0x8(%rbp)
    8bed:	80 7d f8 00          	cmpb   $0x0,-0x8(%rbp)
    8bf1:	74 0c                	je     8bff <safe_div_func_uint8_t_u_u+0x24>
    8bf3:	0f b6 45 fc          	movzbl -0x4(%rbp),%eax
    8bf7:	0f b6 c0             	movzbl %al,%eax
    8bfa:	f6 75 f8             	divb   -0x8(%rbp)
    8bfd:	eb 04                	jmp    8c03 <safe_div_func_uint8_t_u_u+0x28>
    8bff:	0f b6 45 fc          	movzbl -0x4(%rbp),%eax
    8c03:	5d                   	pop    %rbp
    8c04:	c3                   	retq   

0000000000008c05 <safe_lshift_func_uint8_t_u_s>:
    8c05:	f3 0f 1e fa          	endbr64 
    8c09:	55                   	push   %rbp
    8c0a:	48 89 e5             	mov    %rsp,%rbp
    8c0d:	89 f8                	mov    %edi,%eax
    8c0f:	89 75 f8             	mov    %esi,-0x8(%rbp)
    8c12:	88 45 fc             	mov    %al,-0x4(%rbp)
    8c15:	83 7d f8 00          	cmpl   $0x0,-0x8(%rbp)
    8c19:	78 2b                	js     8c46 <safe_lshift_func_uint8_t_u_s+0x41>
    8c1b:	83 7d f8 1f          	cmpl   $0x1f,-0x8(%rbp)
    8c1f:	7f 25                	jg     8c46 <safe_lshift_func_uint8_t_u_s+0x41>
    8c21:	0f b6 55 fc          	movzbl -0x4(%rbp),%edx
    8c25:	8b 45 f8             	mov    -0x8(%rbp),%eax
    8c28:	be ff 00 00 00       	mov    $0xff,%esi
    8c2d:	89 c1                	mov    %eax,%ecx
    8c2f:	d3 fe                	sar    %cl,%esi
    8c31:	89 f0                	mov    %esi,%eax
    8c33:	39 c2                	cmp    %eax,%edx
    8c35:	7f 0f                	jg     8c46 <safe_lshift_func_uint8_t_u_s+0x41>
    8c37:	0f b6 55 fc          	movzbl -0x4(%rbp),%edx
    8c3b:	8b 45 f8             	mov    -0x8(%rbp),%eax
    8c3e:	89 c1                	mov    %eax,%ecx
    8c40:	d3 e2                	shl    %cl,%edx
    8c42:	89 d0                	mov    %edx,%eax
    8c44:	eb 04                	jmp    8c4a <safe_lshift_func_uint8_t_u_s+0x45>
    8c46:	0f b6 45 fc          	movzbl -0x4(%rbp),%eax
    8c4a:	5d                   	pop    %rbp
    8c4b:	c3                   	retq   

0000000000008c4c <safe_lshift_func_uint8_t_u_u>:
    8c4c:	f3 0f 1e fa          	endbr64 
    8c50:	55                   	push   %rbp
    8c51:	48 89 e5             	mov    %rsp,%rbp
    8c54:	89 f8                	mov    %edi,%eax
    8c56:	89 75 f8             	mov    %esi,-0x8(%rbp)
    8c59:	88 45 fc             	mov    %al,-0x4(%rbp)
    8c5c:	83 7d f8 1f          	cmpl   $0x1f,-0x8(%rbp)
    8c60:	77 25                	ja     8c87 <safe_lshift_func_uint8_t_u_u+0x3b>
    8c62:	0f b6 55 fc          	movzbl -0x4(%rbp),%edx
    8c66:	8b 45 f8             	mov    -0x8(%rbp),%eax
    8c69:	be ff 00 00 00       	mov    $0xff,%esi
    8c6e:	89 c1                	mov    %eax,%ecx
    8c70:	d3 fe                	sar    %cl,%esi
    8c72:	89 f0                	mov    %esi,%eax
    8c74:	39 c2                	cmp    %eax,%edx
    8c76:	7f 0f                	jg     8c87 <safe_lshift_func_uint8_t_u_u+0x3b>
    8c78:	0f b6 55 fc          	movzbl -0x4(%rbp),%edx
    8c7c:	8b 45 f8             	mov    -0x8(%rbp),%eax
    8c7f:	89 c1                	mov    %eax,%ecx
    8c81:	d3 e2                	shl    %cl,%edx
    8c83:	89 d0                	mov    %edx,%eax
    8c85:	eb 04                	jmp    8c8b <safe_lshift_func_uint8_t_u_u+0x3f>
    8c87:	0f b6 45 fc          	movzbl -0x4(%rbp),%eax
    8c8b:	5d                   	pop    %rbp
    8c8c:	c3                   	retq   

0000000000008c8d <safe_rshift_func_uint8_t_u_s>:
    8c8d:	f3 0f 1e fa          	endbr64 
    8c91:	55                   	push   %rbp
    8c92:	48 89 e5             	mov    %rsp,%rbp
    8c95:	89 f8                	mov    %edi,%eax
    8c97:	89 75 f8             	mov    %esi,-0x8(%rbp)
    8c9a:	88 45 fc             	mov    %al,-0x4(%rbp)
    8c9d:	83 7d f8 00          	cmpl   $0x0,-0x8(%rbp)
    8ca1:	78 15                	js     8cb8 <safe_rshift_func_uint8_t_u_s+0x2b>
    8ca3:	83 7d f8 1f          	cmpl   $0x1f,-0x8(%rbp)
    8ca7:	7f 0f                	jg     8cb8 <safe_rshift_func_uint8_t_u_s+0x2b>
    8ca9:	0f b6 55 fc          	movzbl -0x4(%rbp),%edx
    8cad:	8b 45 f8             	mov    -0x8(%rbp),%eax
    8cb0:	89 c1                	mov    %eax,%ecx
    8cb2:	d3 fa                	sar    %cl,%edx
    8cb4:	89 d0                	mov    %edx,%eax
    8cb6:	eb 04                	jmp    8cbc <safe_rshift_func_uint8_t_u_s+0x2f>
    8cb8:	0f b6 45 fc          	movzbl -0x4(%rbp),%eax
    8cbc:	5d                   	pop    %rbp
    8cbd:	c3                   	retq   

0000000000008cbe <safe_rshift_func_uint8_t_u_u>:
    8cbe:	f3 0f 1e fa          	endbr64 
    8cc2:	55                   	push   %rbp
    8cc3:	48 89 e5             	mov    %rsp,%rbp
    8cc6:	89 f8                	mov    %edi,%eax
    8cc8:	89 75 f8             	mov    %esi,-0x8(%rbp)
    8ccb:	88 45 fc             	mov    %al,-0x4(%rbp)
    8cce:	83 7d f8 1f          	cmpl   $0x1f,-0x8(%rbp)
    8cd2:	77 0f                	ja     8ce3 <safe_rshift_func_uint8_t_u_u+0x25>
    8cd4:	0f b6 55 fc          	movzbl -0x4(%rbp),%edx
    8cd8:	8b 45 f8             	mov    -0x8(%rbp),%eax
    8cdb:	89 c1                	mov    %eax,%ecx
    8cdd:	d3 fa                	sar    %cl,%edx
    8cdf:	89 d0                	mov    %edx,%eax
    8ce1:	eb 04                	jmp    8ce7 <safe_rshift_func_uint8_t_u_u+0x29>
    8ce3:	0f b6 45 fc          	movzbl -0x4(%rbp),%eax
    8ce7:	5d                   	pop    %rbp
    8ce8:	c3                   	retq   

0000000000008ce9 <safe_unary_minus_func_uint16_t_u>:
    8ce9:	f3 0f 1e fa          	endbr64 
    8ced:	55                   	push   %rbp
    8cee:	48 89 e5             	mov    %rsp,%rbp
    8cf1:	89 f8                	mov    %edi,%eax
    8cf3:	66 89 45 fc          	mov    %ax,-0x4(%rbp)
    8cf7:	0f b7 45 fc          	movzwl -0x4(%rbp),%eax
    8cfb:	f7 d8                	neg    %eax
    8cfd:	5d                   	pop    %rbp
    8cfe:	c3                   	retq   

0000000000008cff <safe_add_func_uint16_t_u_u>:
    8cff:	f3 0f 1e fa          	endbr64 
    8d03:	55                   	push   %rbp
    8d04:	48 89 e5             	mov    %rsp,%rbp
    8d07:	89 fa                	mov    %edi,%edx
    8d09:	89 f0                	mov    %esi,%eax
    8d0b:	66 89 55 fc          	mov    %dx,-0x4(%rbp)
    8d0f:	66 89 45 f8          	mov    %ax,-0x8(%rbp)
    8d13:	0f b7 55 fc          	movzwl -0x4(%rbp),%edx
    8d17:	0f b7 45 f8          	movzwl -0x8(%rbp),%eax
    8d1b:	01 d0                	add    %edx,%eax
    8d1d:	5d                   	pop    %rbp
    8d1e:	c3                   	retq   

0000000000008d1f <safe_sub_func_uint16_t_u_u>:
    8d1f:	f3 0f 1e fa          	endbr64 
    8d23:	55                   	push   %rbp
    8d24:	48 89 e5             	mov    %rsp,%rbp
    8d27:	89 fa                	mov    %edi,%edx
    8d29:	89 f0                	mov    %esi,%eax
    8d2b:	66 89 55 fc          	mov    %dx,-0x4(%rbp)
    8d2f:	66 89 45 f8          	mov    %ax,-0x8(%rbp)
    8d33:	0f b7 45 fc          	movzwl -0x4(%rbp),%eax
    8d37:	66 2b 45 f8          	sub    -0x8(%rbp),%ax
    8d3b:	5d                   	pop    %rbp
    8d3c:	c3                   	retq   

0000000000008d3d <safe_mul_func_uint16_t_u_u>:
    8d3d:	f3 0f 1e fa          	endbr64 
    8d41:	55                   	push   %rbp
    8d42:	48 89 e5             	mov    %rsp,%rbp
    8d45:	89 fa                	mov    %edi,%edx
    8d47:	89 f0                	mov    %esi,%eax
    8d49:	66 89 55 fc          	mov    %dx,-0x4(%rbp)
    8d4d:	66 89 45 f8          	mov    %ax,-0x8(%rbp)
    8d51:	0f b7 45 fc          	movzwl -0x4(%rbp),%eax
    8d55:	66 0f af 45 f8       	imul   -0x8(%rbp),%ax
    8d5a:	5d                   	pop    %rbp
    8d5b:	c3                   	retq   

0000000000008d5c <safe_mod_func_uint16_t_u_u>:
    8d5c:	f3 0f 1e fa          	endbr64 
    8d60:	55                   	push   %rbp
    8d61:	48 89 e5             	mov    %rsp,%rbp
    8d64:	89 fa                	mov    %edi,%edx
    8d66:	89 f0                	mov    %esi,%eax
    8d68:	66 89 55 fc          	mov    %dx,-0x4(%rbp)
    8d6c:	66 89 45 f8          	mov    %ax,-0x8(%rbp)
    8d70:	66 83 7d f8 00       	cmpw   $0x0,-0x8(%rbp)
    8d75:	74 11                	je     8d88 <safe_mod_func_uint16_t_u_u+0x2c>
    8d77:	0f b7 45 fc          	movzwl -0x4(%rbp),%eax
    8d7b:	ba 00 00 00 00       	mov    $0x0,%edx
    8d80:	66 f7 75 f8          	divw   -0x8(%rbp)
    8d84:	89 d0                	mov    %edx,%eax
    8d86:	eb 04                	jmp    8d8c <safe_mod_func_uint16_t_u_u+0x30>
    8d88:	0f b7 45 fc          	movzwl -0x4(%rbp),%eax
    8d8c:	5d                   	pop    %rbp
    8d8d:	c3                   	retq   

0000000000008d8e <safe_div_func_uint16_t_u_u>:
    8d8e:	f3 0f 1e fa          	endbr64 
    8d92:	55                   	push   %rbp
    8d93:	48 89 e5             	mov    %rsp,%rbp
    8d96:	89 fa                	mov    %edi,%edx
    8d98:	89 f0                	mov    %esi,%eax
    8d9a:	66 89 55 fc          	mov    %dx,-0x4(%rbp)
    8d9e:	66 89 45 f8          	mov    %ax,-0x8(%rbp)
    8da2:	66 83 7d f8 00       	cmpw   $0x0,-0x8(%rbp)
    8da7:	74 0f                	je     8db8 <safe_div_func_uint16_t_u_u+0x2a>
    8da9:	0f b7 45 fc          	movzwl -0x4(%rbp),%eax
    8dad:	ba 00 00 00 00       	mov    $0x0,%edx
    8db2:	66 f7 75 f8          	divw   -0x8(%rbp)
    8db6:	eb 04                	jmp    8dbc <safe_div_func_uint16_t_u_u+0x2e>
    8db8:	0f b7 45 fc          	movzwl -0x4(%rbp),%eax
    8dbc:	5d                   	pop    %rbp
    8dbd:	c3                   	retq   

0000000000008dbe <safe_lshift_func_uint16_t_u_s>:
    8dbe:	f3 0f 1e fa          	endbr64 
    8dc2:	55                   	push   %rbp
    8dc3:	48 89 e5             	mov    %rsp,%rbp
    8dc6:	89 f8                	mov    %edi,%eax
    8dc8:	89 75 f8             	mov    %esi,-0x8(%rbp)
    8dcb:	66 89 45 fc          	mov    %ax,-0x4(%rbp)
    8dcf:	83 7d f8 00          	cmpl   $0x0,-0x8(%rbp)
    8dd3:	78 2b                	js     8e00 <safe_lshift_func_uint16_t_u_s+0x42>
    8dd5:	83 7d f8 1f          	cmpl   $0x1f,-0x8(%rbp)
    8dd9:	7f 25                	jg     8e00 <safe_lshift_func_uint16_t_u_s+0x42>
    8ddb:	0f b7 55 fc          	movzwl -0x4(%rbp),%edx
    8ddf:	8b 45 f8             	mov    -0x8(%rbp),%eax
    8de2:	be ff ff 00 00       	mov    $0xffff,%esi
    8de7:	89 c1                	mov    %eax,%ecx
    8de9:	d3 fe                	sar    %cl,%esi
    8deb:	89 f0                	mov    %esi,%eax
    8ded:	39 c2                	cmp    %eax,%edx
    8def:	7f 0f                	jg     8e00 <safe_lshift_func_uint16_t_u_s+0x42>
    8df1:	0f b7 55 fc          	movzwl -0x4(%rbp),%edx
    8df5:	8b 45 f8             	mov    -0x8(%rbp),%eax
    8df8:	89 c1                	mov    %eax,%ecx
    8dfa:	d3 e2                	shl    %cl,%edx
    8dfc:	89 d0                	mov    %edx,%eax
    8dfe:	eb 04                	jmp    8e04 <safe_lshift_func_uint16_t_u_s+0x46>
    8e00:	0f b7 45 fc          	movzwl -0x4(%rbp),%eax
    8e04:	5d                   	pop    %rbp
    8e05:	c3                   	retq   

0000000000008e06 <safe_lshift_func_uint16_t_u_u>:
    8e06:	f3 0f 1e fa          	endbr64 
    8e0a:	55                   	push   %rbp
    8e0b:	48 89 e5             	mov    %rsp,%rbp
    8e0e:	89 f8                	mov    %edi,%eax
    8e10:	89 75 f8             	mov    %esi,-0x8(%rbp)
    8e13:	66 89 45 fc          	mov    %ax,-0x4(%rbp)
    8e17:	83 7d f8 1f          	cmpl   $0x1f,-0x8(%rbp)
    8e1b:	77 25                	ja     8e42 <safe_lshift_func_uint16_t_u_u+0x3c>
    8e1d:	0f b7 55 fc          	movzwl -0x4(%rbp),%edx
    8e21:	8b 45 f8             	mov    -0x8(%rbp),%eax
    8e24:	be ff ff 00 00       	mov    $0xffff,%esi
    8e29:	89 c1                	mov    %eax,%ecx
    8e2b:	d3 fe                	sar    %cl,%esi
    8e2d:	89 f0                	mov    %esi,%eax
    8e2f:	39 c2                	cmp    %eax,%edx
    8e31:	7f 0f                	jg     8e42 <safe_lshift_func_uint16_t_u_u+0x3c>
    8e33:	0f b7 55 fc          	movzwl -0x4(%rbp),%edx
    8e37:	8b 45 f8             	mov    -0x8(%rbp),%eax
    8e3a:	89 c1                	mov    %eax,%ecx
    8e3c:	d3 e2                	shl    %cl,%edx
    8e3e:	89 d0                	mov    %edx,%eax
    8e40:	eb 04                	jmp    8e46 <safe_lshift_func_uint16_t_u_u+0x40>
    8e42:	0f b7 45 fc          	movzwl -0x4(%rbp),%eax
    8e46:	5d                   	pop    %rbp
    8e47:	c3                   	retq   

0000000000008e48 <safe_rshift_func_uint16_t_u_s>:
    8e48:	f3 0f 1e fa          	endbr64 
    8e4c:	55                   	push   %rbp
    8e4d:	48 89 e5             	mov    %rsp,%rbp
    8e50:	89 f8                	mov    %edi,%eax
    8e52:	89 75 f8             	mov    %esi,-0x8(%rbp)
    8e55:	66 89 45 fc          	mov    %ax,-0x4(%rbp)
    8e59:	83 7d f8 00          	cmpl   $0x0,-0x8(%rbp)
    8e5d:	78 15                	js     8e74 <safe_rshift_func_uint16_t_u_s+0x2c>
    8e5f:	83 7d f8 1f          	cmpl   $0x1f,-0x8(%rbp)
    8e63:	7f 0f                	jg     8e74 <safe_rshift_func_uint16_t_u_s+0x2c>
    8e65:	0f b7 55 fc          	movzwl -0x4(%rbp),%edx
    8e69:	8b 45 f8             	mov    -0x8(%rbp),%eax
    8e6c:	89 c1                	mov    %eax,%ecx
    8e6e:	d3 fa                	sar    %cl,%edx
    8e70:	89 d0                	mov    %edx,%eax
    8e72:	eb 04                	jmp    8e78 <safe_rshift_func_uint16_t_u_s+0x30>
    8e74:	0f b7 45 fc          	movzwl -0x4(%rbp),%eax
    8e78:	5d                   	pop    %rbp
    8e79:	c3                   	retq   

0000000000008e7a <safe_rshift_func_uint16_t_u_u>:
    8e7a:	f3 0f 1e fa          	endbr64 
    8e7e:	55                   	push   %rbp
    8e7f:	48 89 e5             	mov    %rsp,%rbp
    8e82:	89 f8                	mov    %edi,%eax
    8e84:	89 75 f8             	mov    %esi,-0x8(%rbp)
    8e87:	66 89 45 fc          	mov    %ax,-0x4(%rbp)
    8e8b:	83 7d f8 1f          	cmpl   $0x1f,-0x8(%rbp)
    8e8f:	77 0f                	ja     8ea0 <safe_rshift_func_uint16_t_u_u+0x26>
    8e91:	0f b7 55 fc          	movzwl -0x4(%rbp),%edx
    8e95:	8b 45 f8             	mov    -0x8(%rbp),%eax
    8e98:	89 c1                	mov    %eax,%ecx
    8e9a:	d3 fa                	sar    %cl,%edx
    8e9c:	89 d0                	mov    %edx,%eax
    8e9e:	eb 04                	jmp    8ea4 <safe_rshift_func_uint16_t_u_u+0x2a>
    8ea0:	0f b7 45 fc          	movzwl -0x4(%rbp),%eax
    8ea4:	5d                   	pop    %rbp
    8ea5:	c3                   	retq   

0000000000008ea6 <safe_unary_minus_func_uint32_t_u>:
    8ea6:	f3 0f 1e fa          	endbr64 
    8eaa:	55                   	push   %rbp
    8eab:	48 89 e5             	mov    %rsp,%rbp
    8eae:	89 7d fc             	mov    %edi,-0x4(%rbp)
    8eb1:	8b 45 fc             	mov    -0x4(%rbp),%eax
    8eb4:	f7 d8                	neg    %eax
    8eb6:	5d                   	pop    %rbp
    8eb7:	c3                   	retq   

0000000000008eb8 <safe_add_func_uint32_t_u_u>:
    8eb8:	f3 0f 1e fa          	endbr64 
    8ebc:	55                   	push   %rbp
    8ebd:	48 89 e5             	mov    %rsp,%rbp
    8ec0:	89 7d fc             	mov    %edi,-0x4(%rbp)
    8ec3:	89 75 f8             	mov    %esi,-0x8(%rbp)
    8ec6:	8b 55 fc             	mov    -0x4(%rbp),%edx
    8ec9:	8b 45 f8             	mov    -0x8(%rbp),%eax
    8ecc:	01 d0                	add    %edx,%eax
    8ece:	5d                   	pop    %rbp
    8ecf:	c3                   	retq   

0000000000008ed0 <safe_sub_func_uint32_t_u_u>:
    8ed0:	f3 0f 1e fa          	endbr64 
    8ed4:	55                   	push   %rbp
    8ed5:	48 89 e5             	mov    %rsp,%rbp
    8ed8:	89 7d fc             	mov    %edi,-0x4(%rbp)
    8edb:	89 75 f8             	mov    %esi,-0x8(%rbp)
    8ede:	8b 45 fc             	mov    -0x4(%rbp),%eax
    8ee1:	2b 45 f8             	sub    -0x8(%rbp),%eax
    8ee4:	5d                   	pop    %rbp
    8ee5:	c3                   	retq   

0000000000008ee6 <safe_mul_func_uint32_t_u_u>:
    8ee6:	f3 0f 1e fa          	endbr64 
    8eea:	55                   	push   %rbp
    8eeb:	48 89 e5             	mov    %rsp,%rbp
    8eee:	89 7d fc             	mov    %edi,-0x4(%rbp)
    8ef1:	89 75 f8             	mov    %esi,-0x8(%rbp)
    8ef4:	8b 45 fc             	mov    -0x4(%rbp),%eax
    8ef7:	0f af 45 f8          	imul   -0x8(%rbp),%eax
    8efb:	5d                   	pop    %rbp
    8efc:	c3                   	retq   

0000000000008efd <safe_mod_func_uint32_t_u_u>:
    8efd:	f3 0f 1e fa          	endbr64 
    8f01:	55                   	push   %rbp
    8f02:	48 89 e5             	mov    %rsp,%rbp
    8f05:	89 7d fc             	mov    %edi,-0x4(%rbp)
    8f08:	89 75 f8             	mov    %esi,-0x8(%rbp)
    8f0b:	83 7d f8 00          	cmpl   $0x0,-0x8(%rbp)
    8f0f:	74 0f                	je     8f20 <safe_mod_func_uint32_t_u_u+0x23>
    8f11:	8b 45 fc             	mov    -0x4(%rbp),%eax
    8f14:	ba 00 00 00 00       	mov    $0x0,%edx
    8f19:	f7 75 f8             	divl   -0x8(%rbp)
    8f1c:	89 d0                	mov    %edx,%eax
    8f1e:	eb 03                	jmp    8f23 <safe_mod_func_uint32_t_u_u+0x26>
    8f20:	8b 45 fc             	mov    -0x4(%rbp),%eax
    8f23:	5d                   	pop    %rbp
    8f24:	c3                   	retq   

0000000000008f25 <safe_div_func_uint32_t_u_u>:
    8f25:	f3 0f 1e fa          	endbr64 
    8f29:	55                   	push   %rbp
    8f2a:	48 89 e5             	mov    %rsp,%rbp
    8f2d:	89 7d fc             	mov    %edi,-0x4(%rbp)
    8f30:	89 75 f8             	mov    %esi,-0x8(%rbp)
    8f33:	83 7d f8 00          	cmpl   $0x0,-0x8(%rbp)
    8f37:	74 0d                	je     8f46 <safe_div_func_uint32_t_u_u+0x21>
    8f39:	8b 45 fc             	mov    -0x4(%rbp),%eax
    8f3c:	ba 00 00 00 00       	mov    $0x0,%edx
    8f41:	f7 75 f8             	divl   -0x8(%rbp)
    8f44:	eb 03                	jmp    8f49 <safe_div_func_uint32_t_u_u+0x24>
    8f46:	8b 45 fc             	mov    -0x4(%rbp),%eax
    8f49:	5d                   	pop    %rbp
    8f4a:	c3                   	retq   

0000000000008f4b <safe_lshift_func_uint32_t_u_s>:
    8f4b:	f3 0f 1e fa          	endbr64 
    8f4f:	55                   	push   %rbp
    8f50:	48 89 e5             	mov    %rsp,%rbp
    8f53:	89 7d fc             	mov    %edi,-0x4(%rbp)
    8f56:	89 75 f8             	mov    %esi,-0x8(%rbp)
    8f59:	83 7d f8 00          	cmpl   $0x0,-0x8(%rbp)
    8f5d:	78 27                	js     8f86 <safe_lshift_func_uint32_t_u_s+0x3b>
    8f5f:	83 7d f8 1f          	cmpl   $0x1f,-0x8(%rbp)
    8f63:	7f 21                	jg     8f86 <safe_lshift_func_uint32_t_u_s+0x3b>
    8f65:	8b 45 f8             	mov    -0x8(%rbp),%eax
    8f68:	ba ff ff ff ff       	mov    $0xffffffff,%edx
    8f6d:	89 c1                	mov    %eax,%ecx
    8f6f:	d3 ea                	shr    %cl,%edx
    8f71:	89 d0                	mov    %edx,%eax
    8f73:	39 45 fc             	cmp    %eax,-0x4(%rbp)
    8f76:	77 0e                	ja     8f86 <safe_lshift_func_uint32_t_u_s+0x3b>
    8f78:	8b 45 f8             	mov    -0x8(%rbp),%eax
    8f7b:	8b 55 fc             	mov    -0x4(%rbp),%edx
    8f7e:	89 c1                	mov    %eax,%ecx
    8f80:	d3 e2                	shl    %cl,%edx
    8f82:	89 d0                	mov    %edx,%eax
    8f84:	eb 03                	jmp    8f89 <safe_lshift_func_uint32_t_u_s+0x3e>
    8f86:	8b 45 fc             	mov    -0x4(%rbp),%eax
    8f89:	5d                   	pop    %rbp
    8f8a:	c3                   	retq   

0000000000008f8b <safe_lshift_func_uint32_t_u_u>:
    8f8b:	f3 0f 1e fa          	endbr64 
    8f8f:	55                   	push   %rbp
    8f90:	48 89 e5             	mov    %rsp,%rbp
    8f93:	89 7d fc             	mov    %edi,-0x4(%rbp)
    8f96:	89 75 f8             	mov    %esi,-0x8(%rbp)
    8f99:	83 7d f8 1f          	cmpl   $0x1f,-0x8(%rbp)
    8f9d:	77 21                	ja     8fc0 <safe_lshift_func_uint32_t_u_u+0x35>
    8f9f:	8b 45 f8             	mov    -0x8(%rbp),%eax
    8fa2:	ba ff ff ff ff       	mov    $0xffffffff,%edx
    8fa7:	89 c1                	mov    %eax,%ecx
    8fa9:	d3 ea                	shr    %cl,%edx
    8fab:	89 d0                	mov    %edx,%eax
    8fad:	39 45 fc             	cmp    %eax,-0x4(%rbp)
    8fb0:	77 0e                	ja     8fc0 <safe_lshift_func_uint32_t_u_u+0x35>
    8fb2:	8b 45 f8             	mov    -0x8(%rbp),%eax
    8fb5:	8b 55 fc             	mov    -0x4(%rbp),%edx
    8fb8:	89 c1                	mov    %eax,%ecx
    8fba:	d3 e2                	shl    %cl,%edx
    8fbc:	89 d0                	mov    %edx,%eax
    8fbe:	eb 03                	jmp    8fc3 <safe_lshift_func_uint32_t_u_u+0x38>
    8fc0:	8b 45 fc             	mov    -0x4(%rbp),%eax
    8fc3:	5d                   	pop    %rbp
    8fc4:	c3                   	retq   

0000000000008fc5 <safe_rshift_func_uint32_t_u_s>:
    8fc5:	f3 0f 1e fa          	endbr64 
    8fc9:	55                   	push   %rbp
    8fca:	48 89 e5             	mov    %rsp,%rbp
    8fcd:	89 7d fc             	mov    %edi,-0x4(%rbp)
    8fd0:	89 75 f8             	mov    %esi,-0x8(%rbp)
    8fd3:	83 7d f8 00          	cmpl   $0x0,-0x8(%rbp)
    8fd7:	78 14                	js     8fed <safe_rshift_func_uint32_t_u_s+0x28>
    8fd9:	83 7d f8 1f          	cmpl   $0x1f,-0x8(%rbp)
    8fdd:	7f 0e                	jg     8fed <safe_rshift_func_uint32_t_u_s+0x28>
    8fdf:	8b 45 f8             	mov    -0x8(%rbp),%eax
    8fe2:	8b 55 fc             	mov    -0x4(%rbp),%edx
    8fe5:	89 c1                	mov    %eax,%ecx
    8fe7:	d3 ea                	shr    %cl,%edx
    8fe9:	89 d0                	mov    %edx,%eax
    8feb:	eb 03                	jmp    8ff0 <safe_rshift_func_uint32_t_u_s+0x2b>
    8fed:	8b 45 fc             	mov    -0x4(%rbp),%eax
    8ff0:	5d                   	pop    %rbp
    8ff1:	c3                   	retq   

0000000000008ff2 <safe_rshift_func_uint32_t_u_u>:
    8ff2:	f3 0f 1e fa          	endbr64 
    8ff6:	55                   	push   %rbp
    8ff7:	48 89 e5             	mov    %rsp,%rbp
    8ffa:	89 7d fc             	mov    %edi,-0x4(%rbp)
    8ffd:	89 75 f8             	mov    %esi,-0x8(%rbp)
    9000:	83 7d f8 1f          	cmpl   $0x1f,-0x8(%rbp)
    9004:	77 0e                	ja     9014 <safe_rshift_func_uint32_t_u_u+0x22>
    9006:	8b 45 f8             	mov    -0x8(%rbp),%eax
    9009:	8b 55 fc             	mov    -0x4(%rbp),%edx
    900c:	89 c1                	mov    %eax,%ecx
    900e:	d3 ea                	shr    %cl,%edx
    9010:	89 d0                	mov    %edx,%eax
    9012:	eb 03                	jmp    9017 <safe_rshift_func_uint32_t_u_u+0x25>
    9014:	8b 45 fc             	mov    -0x4(%rbp),%eax
    9017:	5d                   	pop    %rbp
    9018:	c3                   	retq   

0000000000009019 <safe_unary_minus_func_uint64_t_u>:
    9019:	f3 0f 1e fa          	endbr64 
    901d:	55                   	push   %rbp
    901e:	48 89 e5             	mov    %rsp,%rbp
    9021:	48 89 7d f8          	mov    %rdi,-0x8(%rbp)
    9025:	48 8b 45 f8          	mov    -0x8(%rbp),%rax
    9029:	48 f7 d8             	neg    %rax
    902c:	5d                   	pop    %rbp
    902d:	c3                   	retq   

000000000000902e <safe_add_func_uint64_t_u_u>:
    902e:	f3 0f 1e fa          	endbr64 
    9032:	55                   	push   %rbp
    9033:	48 89 e5             	mov    %rsp,%rbp
    9036:	48 89 7d f8          	mov    %rdi,-0x8(%rbp)
    903a:	48 89 75 f0          	mov    %rsi,-0x10(%rbp)
    903e:	48 8b 55 f8          	mov    -0x8(%rbp),%rdx
    9042:	48 8b 45 f0          	mov    -0x10(%rbp),%rax
    9046:	48 01 d0             	add    %rdx,%rax
    9049:	5d                   	pop    %rbp
    904a:	c3                   	retq   

000000000000904b <safe_sub_func_uint64_t_u_u>:
    904b:	f3 0f 1e fa          	endbr64 
    904f:	55                   	push   %rbp
    9050:	48 89 e5             	mov    %rsp,%rbp
    9053:	48 89 7d f8          	mov    %rdi,-0x8(%rbp)
    9057:	48 89 75 f0          	mov    %rsi,-0x10(%rbp)
    905b:	48 8b 45 f8          	mov    -0x8(%rbp),%rax
    905f:	48 2b 45 f0          	sub    -0x10(%rbp),%rax
    9063:	5d                   	pop    %rbp
    9064:	c3                   	retq   

0000000000009065 <safe_mul_func_uint64_t_u_u>:
    9065:	f3 0f 1e fa          	endbr64 
    9069:	55                   	push   %rbp
    906a:	48 89 e5             	mov    %rsp,%rbp
    906d:	48 89 7d f8          	mov    %rdi,-0x8(%rbp)
    9071:	48 89 75 f0          	mov    %rsi,-0x10(%rbp)
    9075:	48 8b 45 f8          	mov    -0x8(%rbp),%rax
    9079:	48 0f af 45 f0       	imul   -0x10(%rbp),%rax
    907e:	5d                   	pop    %rbp
    907f:	c3                   	retq   

0000000000009080 <safe_mod_func_uint64_t_u_u>:
    9080:	f3 0f 1e fa          	endbr64 
    9084:	55                   	push   %rbp
    9085:	48 89 e5             	mov    %rsp,%rbp
    9088:	48 89 7d f8          	mov    %rdi,-0x8(%rbp)
    908c:	48 89 75 f0          	mov    %rsi,-0x10(%rbp)
    9090:	48 83 7d f0 00       	cmpq   $0x0,-0x10(%rbp)
    9095:	74 12                	je     90a9 <safe_mod_func_uint64_t_u_u+0x29>
    9097:	48 8b 45 f8          	mov    -0x8(%rbp),%rax
    909b:	ba 00 00 00 00       	mov    $0x0,%edx
    90a0:	48 f7 75 f0          	divq   -0x10(%rbp)
    90a4:	48 89 d0             	mov    %rdx,%rax
    90a7:	eb 04                	jmp    90ad <safe_mod_func_uint64_t_u_u+0x2d>
    90a9:	48 8b 45 f8          	mov    -0x8(%rbp),%rax
    90ad:	5d                   	pop    %rbp
    90ae:	c3                   	retq   

00000000000090af <safe_div_func_uint64_t_u_u>:
    90af:	f3 0f 1e fa          	endbr64 
    90b3:	55                   	push   %rbp
    90b4:	48 89 e5             	mov    %rsp,%rbp
    90b7:	48 89 7d f8          	mov    %rdi,-0x8(%rbp)
    90bb:	48 89 75 f0          	mov    %rsi,-0x10(%rbp)
    90bf:	48 83 7d f0 00       	cmpq   $0x0,-0x10(%rbp)
    90c4:	74 0f                	je     90d5 <safe_div_func_uint64_t_u_u+0x26>
    90c6:	48 8b 45 f8          	mov    -0x8(%rbp),%rax
    90ca:	ba 00 00 00 00       	mov    $0x0,%edx
    90cf:	48 f7 75 f0          	divq   -0x10(%rbp)
    90d3:	eb 04                	jmp    90d9 <safe_div_func_uint64_t_u_u+0x2a>
    90d5:	48 8b 45 f8          	mov    -0x8(%rbp),%rax
    90d9:	5d                   	pop    %rbp
    90da:	c3                   	retq   

00000000000090db <safe_lshift_func_uint64_t_u_s>:
    90db:	f3 0f 1e fa          	endbr64 
    90df:	55                   	push   %rbp
    90e0:	48 89 e5             	mov    %rsp,%rbp
    90e3:	48 89 7d f8          	mov    %rdi,-0x8(%rbp)
    90e7:	89 75 f4             	mov    %esi,-0xc(%rbp)
    90ea:	83 7d f4 00          	cmpl   $0x0,-0xc(%rbp)
    90ee:	78 2f                	js     911f <safe_lshift_func_uint64_t_u_s+0x44>
    90f0:	83 7d f4 1f          	cmpl   $0x1f,-0xc(%rbp)
    90f4:	7f 29                	jg     911f <safe_lshift_func_uint64_t_u_s+0x44>
    90f6:	8b 45 f4             	mov    -0xc(%rbp),%eax
    90f9:	48 c7 c2 ff ff ff ff 	mov    $0xffffffffffffffff,%rdx
    9100:	89 c1                	mov    %eax,%ecx
    9102:	48 d3 ea             	shr    %cl,%rdx
    9105:	48 89 d0             	mov    %rdx,%rax
    9108:	48 39 45 f8          	cmp    %rax,-0x8(%rbp)
    910c:	77 11                	ja     911f <safe_lshift_func_uint64_t_u_s+0x44>
    910e:	8b 45 f4             	mov    -0xc(%rbp),%eax
    9111:	48 8b 55 f8          	mov    -0x8(%rbp),%rdx
    9115:	89 c1                	mov    %eax,%ecx
    9117:	48 d3 e2             	shl    %cl,%rdx
    911a:	48 89 d0             	mov    %rdx,%rax
    911d:	eb 04                	jmp    9123 <safe_lshift_func_uint64_t_u_s+0x48>
    911f:	48 8b 45 f8          	mov    -0x8(%rbp),%rax
    9123:	5d                   	pop    %rbp
    9124:	c3                   	retq   

0000000000009125 <safe_lshift_func_uint64_t_u_u>:
    9125:	f3 0f 1e fa          	endbr64 
    9129:	55                   	push   %rbp
    912a:	48 89 e5             	mov    %rsp,%rbp
    912d:	48 89 7d f8          	mov    %rdi,-0x8(%rbp)
    9131:	89 75 f4             	mov    %esi,-0xc(%rbp)
    9134:	83 7d f4 1f          	cmpl   $0x1f,-0xc(%rbp)
    9138:	77 29                	ja     9163 <safe_lshift_func_uint64_t_u_u+0x3e>
    913a:	8b 45 f4             	mov    -0xc(%rbp),%eax
    913d:	48 c7 c2 ff ff ff ff 	mov    $0xffffffffffffffff,%rdx
    9144:	89 c1                	mov    %eax,%ecx
    9146:	48 d3 ea             	shr    %cl,%rdx
    9149:	48 89 d0             	mov    %rdx,%rax
    914c:	48 39 45 f8          	cmp    %rax,-0x8(%rbp)
    9150:	77 11                	ja     9163 <safe_lshift_func_uint64_t_u_u+0x3e>
    9152:	8b 45 f4             	mov    -0xc(%rbp),%eax
    9155:	48 8b 55 f8          	mov    -0x8(%rbp),%rdx
    9159:	89 c1                	mov    %eax,%ecx
    915b:	48 d3 e2             	shl    %cl,%rdx
    915e:	48 89 d0             	mov    %rdx,%rax
    9161:	eb 04                	jmp    9167 <safe_lshift_func_uint64_t_u_u+0x42>
    9163:	48 8b 45 f8          	mov    -0x8(%rbp),%rax
    9167:	5d                   	pop    %rbp
    9168:	c3                   	retq   

0000000000009169 <safe_rshift_func_uint64_t_u_s>:
    9169:	f3 0f 1e fa          	endbr64 
    916d:	55                   	push   %rbp
    916e:	48 89 e5             	mov    %rsp,%rbp
    9171:	48 89 7d f8          	mov    %rdi,-0x8(%rbp)
    9175:	89 75 f4             	mov    %esi,-0xc(%rbp)
    9178:	83 7d f4 00          	cmpl   $0x0,-0xc(%rbp)
    917c:	78 17                	js     9195 <safe_rshift_func_uint64_t_u_s+0x2c>
    917e:	83 7d f4 1f          	cmpl   $0x1f,-0xc(%rbp)
    9182:	7f 11                	jg     9195 <safe_rshift_func_uint64_t_u_s+0x2c>
    9184:	8b 45 f4             	mov    -0xc(%rbp),%eax
    9187:	48 8b 55 f8          	mov    -0x8(%rbp),%rdx
    918b:	89 c1                	mov    %eax,%ecx
    918d:	48 d3 ea             	shr    %cl,%rdx
    9190:	48 89 d0             	mov    %rdx,%rax
    9193:	eb 04                	jmp    9199 <safe_rshift_func_uint64_t_u_s+0x30>
    9195:	48 8b 45 f8          	mov    -0x8(%rbp),%rax
    9199:	5d                   	pop    %rbp
    919a:	c3                   	retq   

000000000000919b <safe_rshift_func_uint64_t_u_u>:
    919b:	f3 0f 1e fa          	endbr64 
    919f:	55                   	push   %rbp
    91a0:	48 89 e5             	mov    %rsp,%rbp
    91a3:	48 89 7d f8          	mov    %rdi,-0x8(%rbp)
    91a7:	89 75 f4             	mov    %esi,-0xc(%rbp)
    91aa:	83 7d f4 1f          	cmpl   $0x1f,-0xc(%rbp)
    91ae:	77 11                	ja     91c1 <safe_rshift_func_uint64_t_u_u+0x26>
    91b0:	8b 45 f4             	mov    -0xc(%rbp),%eax
    91b3:	48 8b 55 f8          	mov    -0x8(%rbp),%rdx
    91b7:	89 c1                	mov    %eax,%ecx
    91b9:	48 d3 ea             	shr    %cl,%rdx
    91bc:	48 89 d0             	mov    %rdx,%rax
    91bf:	eb 04                	jmp    91c5 <safe_rshift_func_uint64_t_u_u+0x2a>
    91c1:	48 8b 45 f8          	mov    -0x8(%rbp),%rax
    91c5:	5d                   	pop    %rbp
    91c6:	c3                   	retq   

00000000000091c7 <safe_add_func_float_f_f>:
    91c7:	f3 0f 1e fa          	endbr64 
    91cb:	55                   	push   %rbp
    91cc:	48 89 e5             	mov    %rsp,%rbp
    91cf:	f3 0f 11 45 fc       	movss  %xmm0,-0x4(%rbp)
    91d4:	f3 0f 11 4d f8       	movss  %xmm1,-0x8(%rbp)
    91d9:	f3 0f 10 4d fc       	movss  -0x4(%rbp),%xmm1
    91de:	f3 0f 10 05 12 b3 00 	movss  0xb312(%rip),%xmm0        # 144f8 <g_2689+0x1494>
    91e5:	00 
    91e6:	f3 0f 59 c8          	mulss  %xmm0,%xmm1
    91ea:	f3 0f 10 55 f8       	movss  -0x8(%rbp),%xmm2
    91ef:	f3 0f 10 05 01 b3 00 	movss  0xb301(%rip),%xmm0        # 144f8 <g_2689+0x1494>
    91f6:	00 
    91f7:	f3 0f 59 c2          	mulss  %xmm2,%xmm0
    91fb:	f3 0f 58 c1          	addss  %xmm1,%xmm0
    91ff:	f3 0f 10 0d f9 b2 00 	movss  0xb2f9(%rip),%xmm1        # 14500 <g_2689+0x149c>
    9206:	00 
    9207:	0f 54 c1             	andps  %xmm1,%xmm0
    920a:	0f 2f 05 ff b2 00 00 	comiss 0xb2ff(%rip),%xmm0        # 14510 <g_2689+0x14ac>
    9211:	76 07                	jbe    921a <safe_add_func_float_f_f+0x53>
    9213:	f3 0f 10 45 fc       	movss  -0x4(%rbp),%xmm0
    9218:	eb 0a                	jmp    9224 <safe_add_func_float_f_f+0x5d>
    921a:	f3 0f 10 45 fc       	movss  -0x4(%rbp),%xmm0
    921f:	f3 0f 58 45 f8       	addss  -0x8(%rbp),%xmm0
    9224:	5d                   	pop    %rbp
    9225:	c3                   	retq   

0000000000009226 <safe_sub_func_float_f_f>:
    9226:	f3 0f 1e fa          	endbr64 
    922a:	55                   	push   %rbp
    922b:	48 89 e5             	mov    %rsp,%rbp
    922e:	f3 0f 11 45 fc       	movss  %xmm0,-0x4(%rbp)
    9233:	f3 0f 11 4d f8       	movss  %xmm1,-0x8(%rbp)
    9238:	f3 0f 10 4d fc       	movss  -0x4(%rbp),%xmm1
    923d:	f3 0f 10 05 b3 b2 00 	movss  0xb2b3(%rip),%xmm0        # 144f8 <g_2689+0x1494>
    9244:	00 
    9245:	f3 0f 59 c1          	mulss  %xmm1,%xmm0
    9249:	f3 0f 10 55 f8       	movss  -0x8(%rbp),%xmm2
    924e:	f3 0f 10 0d a2 b2 00 	movss  0xb2a2(%rip),%xmm1        # 144f8 <g_2689+0x1494>
    9255:	00 
    9256:	f3 0f 59 ca          	mulss  %xmm2,%xmm1
    925a:	f3 0f 5c c1          	subss  %xmm1,%xmm0
    925e:	f3 0f 10 0d 9a b2 00 	movss  0xb29a(%rip),%xmm1        # 14500 <g_2689+0x149c>
    9265:	00 
    9266:	0f 54 c1             	andps  %xmm1,%xmm0
    9269:	0f 2f 05 a0 b2 00 00 	comiss 0xb2a0(%rip),%xmm0        # 14510 <g_2689+0x14ac>
    9270:	76 07                	jbe    9279 <safe_sub_func_float_f_f+0x53>
    9272:	f3 0f 10 45 fc       	movss  -0x4(%rbp),%xmm0
    9277:	eb 0a                	jmp    9283 <safe_sub_func_float_f_f+0x5d>
    9279:	f3 0f 10 45 fc       	movss  -0x4(%rbp),%xmm0
    927e:	f3 0f 5c 45 f8       	subss  -0x8(%rbp),%xmm0
    9283:	5d                   	pop    %rbp
    9284:	c3                   	retq   

0000000000009285 <safe_mul_func_float_f_f>:
    9285:	f3 0f 1e fa          	endbr64 
    9289:	55                   	push   %rbp
    928a:	48 89 e5             	mov    %rsp,%rbp
    928d:	f3 0f 11 45 fc       	movss  %xmm0,-0x4(%rbp)
    9292:	f3 0f 11 4d f8       	movss  %xmm1,-0x8(%rbp)
    9297:	f3 0f 10 4d fc       	movss  -0x4(%rbp),%xmm1
    929c:	f3 0f 10 05 70 b2 00 	movss  0xb270(%rip),%xmm0        # 14514 <g_2689+0x14b0>
    92a3:	00 
    92a4:	f3 0f 59 c8          	mulss  %xmm0,%xmm1
    92a8:	f3 0f 10 55 f8       	movss  -0x8(%rbp),%xmm2
    92ad:	f3 0f 10 05 63 b2 00 	movss  0xb263(%rip),%xmm0        # 14518 <g_2689+0x14b4>
    92b4:	00 
    92b5:	f3 0f 59 c2          	mulss  %xmm2,%xmm0
    92b9:	f3 0f 59 c1          	mulss  %xmm1,%xmm0
    92bd:	f3 0f 10 0d 3b b2 00 	movss  0xb23b(%rip),%xmm1        # 14500 <g_2689+0x149c>
    92c4:	00 
    92c5:	0f 54 c1             	andps  %xmm1,%xmm0
    92c8:	0f 2f 05 4d b2 00 00 	comiss 0xb24d(%rip),%xmm0        # 1451c <g_2689+0x14b8>
    92cf:	76 07                	jbe    92d8 <safe_mul_func_float_f_f+0x53>
    92d1:	f3 0f 10 45 fc       	movss  -0x4(%rbp),%xmm0
    92d6:	eb 0a                	jmp    92e2 <safe_mul_func_float_f_f+0x5d>
    92d8:	f3 0f 10 45 fc       	movss  -0x4(%rbp),%xmm0
    92dd:	f3 0f 59 45 f8       	mulss  -0x8(%rbp),%xmm0
    92e2:	5d                   	pop    %rbp
    92e3:	c3                   	retq   

00000000000092e4 <safe_div_func_float_f_f>:
    92e4:	f3 0f 1e fa          	endbr64 
    92e8:	55                   	push   %rbp
    92e9:	48 89 e5             	mov    %rsp,%rbp
    92ec:	f3 0f 11 45 fc       	movss  %xmm0,-0x4(%rbp)
    92f1:	f3 0f 11 4d f8       	movss  %xmm1,-0x8(%rbp)
    92f6:	f3 0f 10 45 f8       	movss  -0x8(%rbp),%xmm0
    92fb:	f3 0f 10 0d fd b1 00 	movss  0xb1fd(%rip),%xmm1        # 14500 <g_2689+0x149c>
    9302:	00 
    9303:	0f 54 c8             	andps  %xmm0,%xmm1
    9306:	f3 0f 10 05 12 b2 00 	movss  0xb212(%rip),%xmm0        # 14520 <g_2689+0x14bc>
    930d:	00 
    930e:	0f 2f c1             	comiss %xmm1,%xmm0
    9311:	0f 97 c0             	seta   %al
    9314:	83 f0 01             	xor    $0x1,%eax
    9317:	84 c0                	test   %al,%al
    9319:	75 56                	jne    9371 <safe_div_func_float_f_f+0x8d>
    931b:	66 0f ef c0          	pxor   %xmm0,%xmm0
    931f:	0f 2e 45 f8          	ucomiss -0x8(%rbp),%xmm0
    9323:	7a 0a                	jp     932f <safe_div_func_float_f_f+0x4b>
    9325:	66 0f ef c0          	pxor   %xmm0,%xmm0
    9329:	0f 2e 45 f8          	ucomiss -0x8(%rbp),%xmm0
    932d:	74 4e                	je     937d <safe_div_func_float_f_f+0x99>
    932f:	f3 0f 10 4d fc       	movss  -0x4(%rbp),%xmm1
    9334:	f3 0f 10 05 e8 b1 00 	movss  0xb1e8(%rip),%xmm0        # 14524 <g_2689+0x14c0>
    933b:	00 
    933c:	f3 0f 59 c1          	mulss  %xmm1,%xmm0
    9340:	f3 0f 10 55 f8       	movss  -0x8(%rbp),%xmm2
    9345:	f3 0f 10 0d db b1 00 	movss  0xb1db(%rip),%xmm1        # 14528 <g_2689+0x14c4>
    934c:	00 
    934d:	f3 0f 59 ca          	mulss  %xmm2,%xmm1
    9351:	f3 0f 5e c1          	divss  %xmm1,%xmm0
    9355:	f3 0f 10 0d a3 b1 00 	movss  0xb1a3(%rip),%xmm1        # 14500 <g_2689+0x149c>
    935c:	00 
    935d:	0f 54 c1             	andps  %xmm1,%xmm0
    9360:	0f 2f 05 c5 b1 00 00 	comiss 0xb1c5(%rip),%xmm0        # 1452c <g_2689+0x14c8>
    9367:	0f 97 c0             	seta   %al
    936a:	83 f0 01             	xor    $0x1,%eax
    936d:	84 c0                	test   %al,%al
    936f:	74 0c                	je     937d <safe_div_func_float_f_f+0x99>
    9371:	f3 0f 10 45 fc       	movss  -0x4(%rbp),%xmm0
    9376:	f3 0f 5e 45 f8       	divss  -0x8(%rbp),%xmm0
    937b:	eb 05                	jmp    9382 <safe_div_func_float_f_f+0x9e>
    937d:	f3 0f 10 45 fc       	movss  -0x4(%rbp),%xmm0
    9382:	5d                   	pop    %rbp
    9383:	c3                   	retq   

0000000000009384 <safe_add_func_double_f_f>:
    9384:	f3 0f 1e fa          	endbr64 
    9388:	55                   	push   %rbp
    9389:	48 89 e5             	mov    %rsp,%rbp
    938c:	f2 0f 11 45 f8       	movsd  %xmm0,-0x8(%rbp)
    9391:	f2 0f 11 4d f0       	movsd  %xmm1,-0x10(%rbp)
    9396:	f2 0f 10 4d f8       	movsd  -0x8(%rbp),%xmm1
    939b:	f2 0f 10 05 8d b1 00 	movsd  0xb18d(%rip),%xmm0        # 14530 <g_2689+0x14cc>
    93a2:	00 
    93a3:	f2 0f 59 c8          	mulsd  %xmm0,%xmm1
    93a7:	f2 0f 10 55 f0       	movsd  -0x10(%rbp),%xmm2
    93ac:	f2 0f 10 05 7c b1 00 	movsd  0xb17c(%rip),%xmm0        # 14530 <g_2689+0x14cc>
    93b3:	00 
    93b4:	f2 0f 59 c2          	mulsd  %xmm2,%xmm0
    93b8:	f2 0f 58 c1          	addsd  %xmm1,%xmm0
    93bc:	f3 0f 7e 0d 7c b1 00 	movq   0xb17c(%rip),%xmm1        # 14540 <g_2689+0x14dc>
    93c3:	00 
    93c4:	66 0f 54 c1          	andpd  %xmm1,%xmm0
    93c8:	66 0f 2f 05 80 b1 00 	comisd 0xb180(%rip),%xmm0        # 14550 <g_2689+0x14ec>
    93cf:	00 
    93d0:	76 07                	jbe    93d9 <safe_add_func_double_f_f+0x55>
    93d2:	f2 0f 10 45 f8       	movsd  -0x8(%rbp),%xmm0
    93d7:	eb 0a                	jmp    93e3 <safe_add_func_double_f_f+0x5f>
    93d9:	f2 0f 10 45 f8       	movsd  -0x8(%rbp),%xmm0
    93de:	f2 0f 58 45 f0       	addsd  -0x10(%rbp),%xmm0
    93e3:	5d                   	pop    %rbp
    93e4:	c3                   	retq   

00000000000093e5 <safe_sub_func_double_f_f>:
    93e5:	f3 0f 1e fa          	endbr64 
    93e9:	55                   	push   %rbp
    93ea:	48 89 e5             	mov    %rsp,%rbp
    93ed:	f2 0f 11 45 f8       	movsd  %xmm0,-0x8(%rbp)
    93f2:	f2 0f 11 4d f0       	movsd  %xmm1,-0x10(%rbp)
    93f7:	f2 0f 10 4d f8       	movsd  -0x8(%rbp),%xmm1
    93fc:	f2 0f 10 05 2c b1 00 	movsd  0xb12c(%rip),%xmm0        # 14530 <g_2689+0x14cc>
    9403:	00 
    9404:	f2 0f 59 c1          	mulsd  %xmm1,%xmm0
    9408:	f2 0f 10 55 f0       	movsd  -0x10(%rbp),%xmm2
    940d:	f2 0f 10 0d 1b b1 00 	movsd  0xb11b(%rip),%xmm1        # 14530 <g_2689+0x14cc>
    9414:	00 
    9415:	f2 0f 59 ca          	mulsd  %xmm2,%xmm1
    9419:	f2 0f 5c c1          	subsd  %xmm1,%xmm0
    941d:	f3 0f 7e 0d 1b b1 00 	movq   0xb11b(%rip),%xmm1        # 14540 <g_2689+0x14dc>
    9424:	00 
    9425:	66 0f 54 c1          	andpd  %xmm1,%xmm0
    9429:	66 0f 2f 05 1f b1 00 	comisd 0xb11f(%rip),%xmm0        # 14550 <g_2689+0x14ec>
    9430:	00 
    9431:	76 07                	jbe    943a <safe_sub_func_double_f_f+0x55>
    9433:	f2 0f 10 45 f8       	movsd  -0x8(%rbp),%xmm0
    9438:	eb 0a                	jmp    9444 <safe_sub_func_double_f_f+0x5f>
    943a:	f2 0f 10 45 f8       	movsd  -0x8(%rbp),%xmm0
    943f:	f2 0f 5c 45 f0       	subsd  -0x10(%rbp),%xmm0
    9444:	5d                   	pop    %rbp
    9445:	c3                   	retq   

0000000000009446 <safe_mul_func_double_f_f>:
    9446:	f3 0f 1e fa          	endbr64 
    944a:	55                   	push   %rbp
    944b:	48 89 e5             	mov    %rsp,%rbp
    944e:	f2 0f 11 45 f8       	movsd  %xmm0,-0x8(%rbp)
    9453:	f2 0f 11 4d f0       	movsd  %xmm1,-0x10(%rbp)
    9458:	f2 0f 10 4d f8       	movsd  -0x8(%rbp),%xmm1
    945d:	f2 0f 10 05 f3 b0 00 	movsd  0xb0f3(%rip),%xmm0        # 14558 <g_2689+0x14f4>
    9464:	00 
    9465:	f2 0f 59 c8          	mulsd  %xmm0,%xmm1
    9469:	f2 0f 10 55 f0       	movsd  -0x10(%rbp),%xmm2
    946e:	f2 0f 10 05 ea b0 00 	movsd  0xb0ea(%rip),%xmm0        # 14560 <g_2689+0x14fc>
    9475:	00 
    9476:	f2 0f 59 c2          	mulsd  %xmm2,%xmm0
    947a:	f2 0f 59 c1          	mulsd  %xmm1,%xmm0
    947e:	f3 0f 7e 0d ba b0 00 	movq   0xb0ba(%rip),%xmm1        # 14540 <g_2689+0x14dc>
    9485:	00 
    9486:	66 0f 54 c1          	andpd  %xmm1,%xmm0
    948a:	66 0f 2f 05 d6 b0 00 	comisd 0xb0d6(%rip),%xmm0        # 14568 <g_2689+0x1504>
    9491:	00 
    9492:	76 07                	jbe    949b <safe_mul_func_double_f_f+0x55>
    9494:	f2 0f 10 45 f8       	movsd  -0x8(%rbp),%xmm0
    9499:	eb 0a                	jmp    94a5 <safe_mul_func_double_f_f+0x5f>
    949b:	f2 0f 10 45 f8       	movsd  -0x8(%rbp),%xmm0
    94a0:	f2 0f 59 45 f0       	mulsd  -0x10(%rbp),%xmm0
    94a5:	5d                   	pop    %rbp
    94a6:	c3                   	retq   

00000000000094a7 <safe_div_func_double_f_f>:
    94a7:	f3 0f 1e fa          	endbr64 
    94ab:	55                   	push   %rbp
    94ac:	48 89 e5             	mov    %rsp,%rbp
    94af:	f2 0f 11 45 f8       	movsd  %xmm0,-0x8(%rbp)
    94b4:	f2 0f 11 4d f0       	movsd  %xmm1,-0x10(%rbp)
    94b9:	f2 0f 10 45 f0       	movsd  -0x10(%rbp),%xmm0
    94be:	f3 0f 7e 0d 7a b0 00 	movq   0xb07a(%rip),%xmm1        # 14540 <g_2689+0x14dc>
    94c5:	00 
    94c6:	66 0f 54 c8          	andpd  %xmm0,%xmm1
    94ca:	f2 0f 10 05 9e b0 00 	movsd  0xb09e(%rip),%xmm0        # 14570 <g_2689+0x150c>
    94d1:	00 
    94d2:	66 0f 2f c1          	comisd %xmm1,%xmm0
    94d6:	0f 97 c0             	seta   %al
    94d9:	83 f0 01             	xor    $0x1,%eax
    94dc:	84 c0                	test   %al,%al
    94de:	75 5a                	jne    953a <safe_div_func_double_f_f+0x93>
    94e0:	66 0f ef c0          	pxor   %xmm0,%xmm0
    94e4:	66 0f 2e 45 f0       	ucomisd -0x10(%rbp),%xmm0
    94e9:	7a 0b                	jp     94f6 <safe_div_func_double_f_f+0x4f>
    94eb:	66 0f ef c0          	pxor   %xmm0,%xmm0
    94ef:	66 0f 2e 45 f0       	ucomisd -0x10(%rbp),%xmm0
    94f4:	74 50                	je     9546 <safe_div_func_double_f_f+0x9f>
    94f6:	f2 0f 10 4d f8       	movsd  -0x8(%rbp),%xmm1
    94fb:	f2 0f 10 05 75 b0 00 	movsd  0xb075(%rip),%xmm0        # 14578 <g_2689+0x1514>
    9502:	00 
    9503:	f2 0f 59 c1          	mulsd  %xmm1,%xmm0
    9507:	f2 0f 10 55 f0       	movsd  -0x10(%rbp),%xmm2
    950c:	f2 0f 10 0d 6c b0 00 	movsd  0xb06c(%rip),%xmm1        # 14580 <g_2689+0x151c>
    9513:	00 
    9514:	f2 0f 59 ca          	mulsd  %xmm2,%xmm1
    9518:	f2 0f 5e c1          	divsd  %xmm1,%xmm0
    951c:	f3 0f 7e 0d 1c b0 00 	movq   0xb01c(%rip),%xmm1        # 14540 <g_2689+0x14dc>
    9523:	00 
    9524:	66 0f 54 c1          	andpd  %xmm1,%xmm0
    9528:	66 0f 2f 05 58 b0 00 	comisd 0xb058(%rip),%xmm0        # 14588 <g_2689+0x1524>
    952f:	00 
    9530:	0f 97 c0             	seta   %al
    9533:	83 f0 01             	xor    $0x1,%eax
    9536:	84 c0                	test   %al,%al
    9538:	74 0c                	je     9546 <safe_div_func_double_f_f+0x9f>
    953a:	f2 0f 10 45 f8       	movsd  -0x8(%rbp),%xmm0
    953f:	f2 0f 5e 45 f0       	divsd  -0x10(%rbp),%xmm0
    9544:	eb 05                	jmp    954b <safe_div_func_double_f_f+0xa4>
    9546:	f2 0f 10 45 f8       	movsd  -0x8(%rbp),%xmm0
    954b:	5d                   	pop    %rbp
    954c:	c3                   	retq   

000000000000954d <safe_convert_func_float_to_int32_t>:
    954d:	f3 0f 1e fa          	endbr64 
    9551:	55                   	push   %rbp
    9552:	48 89 e5             	mov    %rsp,%rbp
    9555:	f3 0f 11 45 fc       	movss  %xmm0,-0x4(%rbp)
    955a:	f3 0f 10 05 2e b0 00 	movss  0xb02e(%rip),%xmm0        # 14590 <g_2689+0x152c>
    9561:	00 
    9562:	0f 2f 45 fc          	comiss -0x4(%rbp),%xmm0
    9566:	0f 93 c0             	setae  %al
    9569:	83 f0 01             	xor    $0x1,%eax
    956c:	84 c0                	test   %al,%al
    956e:	74 21                	je     9591 <safe_convert_func_float_to_int32_t+0x44>
    9570:	f3 0f 10 45 fc       	movss  -0x4(%rbp),%xmm0
    9575:	0f 2f 05 18 b0 00 00 	comiss 0xb018(%rip),%xmm0        # 14594 <g_2689+0x1530>
    957c:	0f 93 c0             	setae  %al
    957f:	83 f0 01             	xor    $0x1,%eax
    9582:	84 c0                	test   %al,%al
    9584:	74 0b                	je     9591 <safe_convert_func_float_to_int32_t+0x44>
    9586:	f3 0f 10 45 fc       	movss  -0x4(%rbp),%xmm0
    958b:	f3 0f 2c c0          	cvttss2si %xmm0,%eax
    958f:	eb 05                	jmp    9596 <safe_convert_func_float_to_int32_t+0x49>
    9591:	b8 ff ff ff 7f       	mov    $0x7fffffff,%eax
    9596:	5d                   	pop    %rbp
    9597:	c3                   	retq   

0000000000009598 <crc32_gentab>:
    9598:	f3 0f 1e fa          	endbr64 
    959c:	55                   	push   %rbp
    959d:	48 89 e5             	mov    %rsp,%rbp
    95a0:	c7 45 fc 20 83 b8 ed 	movl   $0xedb88320,-0x4(%rbp)
    95a7:	c7 45 f4 00 00 00 00 	movl   $0x0,-0xc(%rbp)
    95ae:	eb 51                	jmp    9601 <crc32_gentab+0x69>
    95b0:	8b 45 f4             	mov    -0xc(%rbp),%eax
    95b3:	89 45 f0             	mov    %eax,-0x10(%rbp)
    95b6:	c7 45 f8 08 00 00 00 	movl   $0x8,-0x8(%rbp)
    95bd:	eb 1e                	jmp    95dd <crc32_gentab+0x45>
    95bf:	8b 45 f0             	mov    -0x10(%rbp),%eax
    95c2:	83 e0 01             	and    $0x1,%eax
    95c5:	85 c0                	test   %eax,%eax
    95c7:	74 0d                	je     95d6 <crc32_gentab+0x3e>
    95c9:	8b 45 f0             	mov    -0x10(%rbp),%eax
    95cc:	d1 e8                	shr    %eax
    95ce:	33 45 fc             	xor    -0x4(%rbp),%eax
    95d1:	89 45 f0             	mov    %eax,-0x10(%rbp)
    95d4:	eb 03                	jmp    95d9 <crc32_gentab+0x41>
    95d6:	d1 6d f0             	shrl   -0x10(%rbp)
    95d9:	83 6d f8 01          	subl   $0x1,-0x8(%rbp)
    95dd:	83 7d f8 00          	cmpl   $0x0,-0x8(%rbp)
    95e1:	7f dc                	jg     95bf <crc32_gentab+0x27>
    95e3:	8b 45 f4             	mov    -0xc(%rbp),%eax
    95e6:	48 98                	cltq   
    95e8:	48 8d 0c 85 00 00 00 	lea    0x0(,%rax,4),%rcx
    95ef:	00 
    95f0:	48 8d 15 29 0a 01 00 	lea    0x10a29(%rip),%rdx        # 1a020 <crc32_tab>
    95f7:	8b 45 f0             	mov    -0x10(%rbp),%eax
    95fa:	89 04 11             	mov    %eax,(%rcx,%rdx,1)
    95fd:	83 45 f4 01          	addl   $0x1,-0xc(%rbp)
    9601:	81 7d f4 ff 00 00 00 	cmpl   $0xff,-0xc(%rbp)
    9608:	7e a6                	jle    95b0 <crc32_gentab+0x18>
    960a:	90                   	nop
    960b:	90                   	nop
    960c:	5d                   	pop    %rbp
    960d:	c3                   	retq   

000000000000960e <crc32_byte>:
    960e:	f3 0f 1e fa          	endbr64 
    9612:	55                   	push   %rbp
    9613:	48 89 e5             	mov    %rsp,%rbp
    9616:	89 f8                	mov    %edi,%eax
    9618:	88 45 fc             	mov    %al,-0x4(%rbp)
    961b:	8b 05 ff d9 00 00    	mov    0xd9ff(%rip),%eax        # 17020 <crc32_context>
    9621:	c1 e8 08             	shr    $0x8,%eax
    9624:	89 c1                	mov    %eax,%ecx
    9626:	0f b6 55 fc          	movzbl -0x4(%rbp),%edx
    962a:	8b 05 f0 d9 00 00    	mov    0xd9f0(%rip),%eax        # 17020 <crc32_context>
    9630:	31 d0                	xor    %edx,%eax
    9632:	0f b6 c0             	movzbl %al,%eax
    9635:	89 c0                	mov    %eax,%eax
    9637:	48 8d 14 85 00 00 00 	lea    0x0(,%rax,4),%rdx
    963e:	00 
    963f:	48 8d 05 da 09 01 00 	lea    0x109da(%rip),%rax        # 1a020 <crc32_tab>
    9646:	8b 04 02             	mov    (%rdx,%rax,1),%eax
    9649:	31 c8                	xor    %ecx,%eax
    964b:	89 05 cf d9 00 00    	mov    %eax,0xd9cf(%rip)        # 17020 <crc32_context>
    9651:	90                   	nop
    9652:	5d                   	pop    %rbp
    9653:	c3                   	retq   

0000000000009654 <crc32_8bytes>:
    9654:	f3 0f 1e fa          	endbr64 
    9658:	55                   	push   %rbp
    9659:	48 89 e5             	mov    %rsp,%rbp
    965c:	48 83 ec 08          	sub    $0x8,%rsp
    9660:	48 89 7d f8          	mov    %rdi,-0x8(%rbp)
    9664:	48 8b 45 f8          	mov    -0x8(%rbp),%rax
    9668:	0f b6 c0             	movzbl %al,%eax
    966b:	89 c7                	mov    %eax,%edi
    966d:	e8 9c ff ff ff       	callq  960e <crc32_byte>
    9672:	48 8b 45 f8          	mov    -0x8(%rbp),%rax
    9676:	48 c1 e8 08          	shr    $0x8,%rax
    967a:	0f b6 c0             	movzbl %al,%eax
    967d:	89 c7                	mov    %eax,%edi
    967f:	e8 8a ff ff ff       	callq  960e <crc32_byte>
    9684:	48 8b 45 f8          	mov    -0x8(%rbp),%rax
    9688:	48 c1 e8 10          	shr    $0x10,%rax
    968c:	0f b6 c0             	movzbl %al,%eax
    968f:	89 c7                	mov    %eax,%edi
    9691:	e8 78 ff ff ff       	callq  960e <crc32_byte>
    9696:	48 8b 45 f8          	mov    -0x8(%rbp),%rax
    969a:	48 c1 e8 18          	shr    $0x18,%rax
    969e:	0f b6 c0             	movzbl %al,%eax
    96a1:	89 c7                	mov    %eax,%edi
    96a3:	e8 66 ff ff ff       	callq  960e <crc32_byte>
    96a8:	48 8b 45 f8          	mov    -0x8(%rbp),%rax
    96ac:	48 c1 e8 20          	shr    $0x20,%rax
    96b0:	0f b6 c0             	movzbl %al,%eax
    96b3:	89 c7                	mov    %eax,%edi
    96b5:	e8 54 ff ff ff       	callq  960e <crc32_byte>
    96ba:	48 8b 45 f8          	mov    -0x8(%rbp),%rax
    96be:	48 c1 e8 28          	shr    $0x28,%rax
    96c2:	0f b6 c0             	movzbl %al,%eax
    96c5:	89 c7                	mov    %eax,%edi
    96c7:	e8 42 ff ff ff       	callq  960e <crc32_byte>
    96cc:	48 8b 45 f8          	mov    -0x8(%rbp),%rax
    96d0:	48 c1 e8 30          	shr    $0x30,%rax
    96d4:	0f b6 c0             	movzbl %al,%eax
    96d7:	89 c7                	mov    %eax,%edi
    96d9:	e8 30 ff ff ff       	callq  960e <crc32_byte>
    96de:	48 8b 45 f8          	mov    -0x8(%rbp),%rax
    96e2:	48 c1 e8 38          	shr    $0x38,%rax
    96e6:	0f b6 c0             	movzbl %al,%eax
    96e9:	89 c7                	mov    %eax,%edi
    96eb:	e8 1e ff ff ff       	callq  960e <crc32_byte>
    96f0:	90                   	nop
    96f1:	c9                   	leaveq 
    96f2:	c3                   	retq   

00000000000096f3 <transparent_crc>:
    96f3:	f3 0f 1e fa          	endbr64 
    96f7:	55                   	push   %rbp
    96f8:	48 89 e5             	mov    %rsp,%rbp
    96fb:	48 83 ec 20          	sub    $0x20,%rsp
    96ff:	48 89 7d f8          	mov    %rdi,-0x8(%rbp)
    9703:	48 89 75 f0          	mov    %rsi,-0x10(%rbp)
    9707:	89 55 ec             	mov    %edx,-0x14(%rbp)
    970a:	48 8b 45 f8          	mov    -0x8(%rbp),%rax
    970e:	48 89 c7             	mov    %rax,%rdi
    9711:	e8 3e ff ff ff       	callq  9654 <crc32_8bytes>
    9716:	83 7d ec 00          	cmpl   $0x0,-0x14(%rbp)
    971a:	74 22                	je     973e <transparent_crc+0x4b>
    971c:	8b 05 fe d8 00 00    	mov    0xd8fe(%rip),%eax        # 17020 <crc32_context>
    9722:	f7 d0                	not    %eax
    9724:	89 c2                	mov    %eax,%edx
    9726:	48 8b 45 f0          	mov    -0x10(%rbp),%rax
    972a:	48 89 c6             	mov    %rax,%rsi
    972d:	48 8d 3d fc 98 00 00 	lea    0x98fc(%rip),%rdi        # 13030 <_IO_stdin_used+0x30>
    9734:	b8 00 00 00 00       	mov    $0x0,%eax
    9739:	e8 42 e9 ff ff       	callq  8080 <printf@plt>
    973e:	90                   	nop
    973f:	c9                   	leaveq 
    9740:	c3                   	retq   

0000000000009741 <transparent_crc_bytes>:
    9741:	f3 0f 1e fa          	endbr64 
    9745:	55                   	push   %rbp
    9746:	48 89 e5             	mov    %rsp,%rbp
    9749:	48 83 ec 30          	sub    $0x30,%rsp
    974d:	48 89 7d e8          	mov    %rdi,-0x18(%rbp)
    9751:	89 75 e4             	mov    %esi,-0x1c(%rbp)
    9754:	48 89 55 d8          	mov    %rdx,-0x28(%rbp)
    9758:	89 4d e0             	mov    %ecx,-0x20(%rbp)
    975b:	c7 45 fc 00 00 00 00 	movl   $0x0,-0x4(%rbp)
    9762:	eb 1e                	jmp    9782 <transparent_crc_bytes+0x41>
    9764:	8b 45 fc             	mov    -0x4(%rbp),%eax
    9767:	48 63 d0             	movslq %eax,%rdx
    976a:	48 8b 45 e8          	mov    -0x18(%rbp),%rax
    976e:	48 01 d0             	add    %rdx,%rax
    9771:	0f b6 00             	movzbl (%rax),%eax
    9774:	0f b6 c0             	movzbl %al,%eax
    9777:	89 c7                	mov    %eax,%edi
    9779:	e8 90 fe ff ff       	callq  960e <crc32_byte>
    977e:	83 45 fc 01          	addl   $0x1,-0x4(%rbp)
    9782:	8b 45 fc             	mov    -0x4(%rbp),%eax
    9785:	3b 45 e4             	cmp    -0x1c(%rbp),%eax
    9788:	7c da                	jl     9764 <transparent_crc_bytes+0x23>
    978a:	83 7d e0 00          	cmpl   $0x0,-0x20(%rbp)
    978e:	74 22                	je     97b2 <transparent_crc_bytes+0x71>
    9790:	8b 05 8a d8 00 00    	mov    0xd88a(%rip),%eax        # 17020 <crc32_context>
    9796:	f7 d0                	not    %eax
    9798:	89 c2                	mov    %eax,%edx
    979a:	48 8b 45 d8          	mov    -0x28(%rbp),%rax
    979e:	48 89 c6             	mov    %rax,%rsi
    97a1:	48 8d 3d 88 98 00 00 	lea    0x9888(%rip),%rdi        # 13030 <_IO_stdin_used+0x30>
    97a8:	b8 00 00 00 00       	mov    $0x0,%eax
    97ad:	e8 ce e8 ff ff       	callq  8080 <printf@plt>
    97b2:	90                   	nop
    97b3:	c9                   	leaveq 
    97b4:	c3                   	retq   

00000000000097b5 <func_1>:
    97b5:	f3 0f 1e fa          	endbr64 
    97b9:	55                   	push   %rbp
    97ba:	48 89 e5             	mov    %rsp,%rbp
    97bd:	41 57                	push   %r15
    97bf:	41 56                	push   %r14
    97c1:	41 55                	push   %r13
    97c3:	41 54                	push   %r12
    97c5:	53                   	push   %rbx
    97c6:	48 81 ec 00 10 00 00 	sub    $0x1000,%rsp
    97cd:	48 83 0c 24 00       	orq    $0x0,(%rsp)
    97d2:	48 81 ec 08 04 00 00 	sub    $0x408,%rsp
    97d9:	64 48 8b 04 25 28 00 	mov    %fs:0x28,%rax
    97e0:	00 00 
    97e2:	48 89 45 c8          	mov    %rax,-0x38(%rbp)
    97e6:	31 c0                	xor    %eax,%eax
    97e8:	48 8d 85 70 f4 ff ff 	lea    -0xb90(%rbp),%rax
    97ef:	48 8d 15 8a 98 00 00 	lea    0x988a(%rip),%rdx        # 13080 <g_2689+0x1c>
    97f6:	b9 38 00 00 00       	mov    $0x38,%ecx
    97fb:	48 89 c7             	mov    %rax,%rdi
    97fe:	48 89 d6             	mov    %rdx,%rsi
    9801:	f3 48 a5             	rep movsq %ds:(%rsi),%es:(%rdi)
    9804:	66 c7 85 e4 eb ff ff 	movw   $0x0,-0x141c(%rbp)
    980b:	00 00 
    980d:	66 c7 85 e6 eb ff ff 	movw   $0xfffb,-0x141a(%rbp)
    9814:	fb ff 
    9816:	c7 85 00 ec ff ff ff 	movl   $0xffffffff,-0x1400(%rbp)
    981d:	ff ff ff 
    9820:	c7 85 04 ec ff ff 09 	movl   $0x9,-0x13fc(%rbp)
    9827:	00 00 00 
    982a:	48 8d 85 f0 f2 ff ff 	lea    -0xd10(%rbp),%rax
    9831:	48 8d 15 88 db 00 00 	lea    0xdb88(%rip),%rdx        # 173c0 <g_2888+0x10>
    9838:	b9 30 00 00 00       	mov    $0x30,%ecx
    983d:	48 89 c7             	mov    %rax,%rdi
    9840:	48 89 d6             	mov    %rdx,%rsi
    9843:	f3 48 a5             	rep movsq %ds:(%rsi),%es:(%rdi)
    9846:	48 8d 05 db 0b 01 00 	lea    0x10bdb(%rip),%rax        # 1a428 <g_200>
    984d:	48 89 85 78 ec ff ff 	mov    %rax,-0x1388(%rbp)
    9854:	48 8d 85 78 ec ff ff 	lea    -0x1388(%rbp),%rax
    985b:	48 89 85 d0 ec ff ff 	mov    %rax,-0x1330(%rbp)
    9862:	48 8d 85 78 ec ff ff 	lea    -0x1388(%rbp),%rax
    9869:	48 89 85 20 fa ff ff 	mov    %rax,-0x5e0(%rbp)
    9870:	48 8d 85 78 ec ff ff 	lea    -0x1388(%rbp),%rax
    9877:	48 89 85 28 fa ff ff 	mov    %rax,-0x5d8(%rbp)
    987e:	48 c7 85 30 fa ff ff 	movq   $0x0,-0x5d0(%rbp)
    9885:	00 00 00 00 
    9889:	48 8d 85 78 ec ff ff 	lea    -0x1388(%rbp),%rax
    9890:	48 89 85 38 fa ff ff 	mov    %rax,-0x5c8(%rbp)
    9897:	48 8d 85 78 ec ff ff 	lea    -0x1388(%rbp),%rax
    989e:	48 89 85 40 fa ff ff 	mov    %rax,-0x5c0(%rbp)
    98a5:	48 8d 85 78 ec ff ff 	lea    -0x1388(%rbp),%rax
    98ac:	48 89 85 48 fa ff ff 	mov    %rax,-0x5b8(%rbp)
    98b3:	48 8d 85 78 ec ff ff 	lea    -0x1388(%rbp),%rax
    98ba:	48 89 85 50 fa ff ff 	mov    %rax,-0x5b0(%rbp)
    98c1:	48 8d 85 78 ec ff ff 	lea    -0x1388(%rbp),%rax
    98c8:	48 89 85 58 fa ff ff 	mov    %rax,-0x5a8(%rbp)
    98cf:	48 c7 85 60 fa ff ff 	movq   $0x0,-0x5a0(%rbp)
    98d6:	00 00 00 00 
    98da:	48 8d 85 78 ec ff ff 	lea    -0x1388(%rbp),%rax
    98e1:	48 89 85 68 fa ff ff 	mov    %rax,-0x598(%rbp)
    98e8:	48 8d 85 78 ec ff ff 	lea    -0x1388(%rbp),%rax
    98ef:	48 89 85 70 fa ff ff 	mov    %rax,-0x590(%rbp)
    98f6:	48 8d 85 78 ec ff ff 	lea    -0x1388(%rbp),%rax
    98fd:	48 89 85 78 fa ff ff 	mov    %rax,-0x588(%rbp)
    9904:	48 8d 85 78 ec ff ff 	lea    -0x1388(%rbp),%rax
    990b:	48 89 85 80 fa ff ff 	mov    %rax,-0x580(%rbp)
    9912:	48 8d 85 78 ec ff ff 	lea    -0x1388(%rbp),%rax
    9919:	48 89 85 88 fa ff ff 	mov    %rax,-0x578(%rbp)
    9920:	48 8d 85 78 ec ff ff 	lea    -0x1388(%rbp),%rax
    9927:	48 89 85 90 fa ff ff 	mov    %rax,-0x570(%rbp)
    992e:	48 c7 85 98 fa ff ff 	movq   $0x0,-0x568(%rbp)
    9935:	00 00 00 00 
    9939:	48 8d 85 78 ec ff ff 	lea    -0x1388(%rbp),%rax
    9940:	48 89 85 a0 fa ff ff 	mov    %rax,-0x560(%rbp)
    9947:	48 8d 85 78 ec ff ff 	lea    -0x1388(%rbp),%rax
    994e:	48 89 85 a8 fa ff ff 	mov    %rax,-0x558(%rbp)
    9955:	48 8d 85 78 ec ff ff 	lea    -0x1388(%rbp),%rax
    995c:	48 89 85 b0 fa ff ff 	mov    %rax,-0x550(%rbp)
    9963:	48 8d 85 78 ec ff ff 	lea    -0x1388(%rbp),%rax
    996a:	48 89 85 b8 fa ff ff 	mov    %rax,-0x548(%rbp)
    9971:	48 8d 85 78 ec ff ff 	lea    -0x1388(%rbp),%rax
    9978:	48 89 85 c0 fa ff ff 	mov    %rax,-0x540(%rbp)
    997f:	48 c7 85 c8 fa ff ff 	movq   $0x0,-0x538(%rbp)
    9986:	00 00 00 00 
    998a:	48 8d 85 78 ec ff ff 	lea    -0x1388(%rbp),%rax
    9991:	48 89 85 d0 fa ff ff 	mov    %rax,-0x530(%rbp)
    9998:	48 8d 85 78 ec ff ff 	lea    -0x1388(%rbp),%rax
    999f:	48 89 85 d8 fa ff ff 	mov    %rax,-0x528(%rbp)
    99a6:	48 c7 85 e0 fa ff ff 	movq   $0x0,-0x520(%rbp)
    99ad:	00 00 00 00 
    99b1:	48 8d 85 78 ec ff ff 	lea    -0x1388(%rbp),%rax
    99b8:	48 89 85 e8 fa ff ff 	mov    %rax,-0x518(%rbp)
    99bf:	48 8d 85 78 ec ff ff 	lea    -0x1388(%rbp),%rax
    99c6:	48 89 85 f0 fa ff ff 	mov    %rax,-0x510(%rbp)
    99cd:	48 8d 85 78 ec ff ff 	lea    -0x1388(%rbp),%rax
    99d4:	48 89 85 f8 fa ff ff 	mov    %rax,-0x508(%rbp)
    99db:	48 8d 85 78 ec ff ff 	lea    -0x1388(%rbp),%rax
    99e2:	48 89 85 00 fb ff ff 	mov    %rax,-0x500(%rbp)
    99e9:	48 8d 85 78 ec ff ff 	lea    -0x1388(%rbp),%rax
    99f0:	48 89 85 08 fb ff ff 	mov    %rax,-0x4f8(%rbp)
    99f7:	48 8d 85 78 ec ff ff 	lea    -0x1388(%rbp),%rax
    99fe:	48 89 85 10 fb ff ff 	mov    %rax,-0x4f0(%rbp)
    9a05:	48 8d 85 78 ec ff ff 	lea    -0x1388(%rbp),%rax
    9a0c:	48 89 85 18 fb ff ff 	mov    %rax,-0x4e8(%rbp)
    9a13:	48 8d 85 78 ec ff ff 	lea    -0x1388(%rbp),%rax
    9a1a:	48 89 85 20 fb ff ff 	mov    %rax,-0x4e0(%rbp)
    9a21:	48 8d 85 78 ec ff ff 	lea    -0x1388(%rbp),%rax
    9a28:	48 89 85 28 fb ff ff 	mov    %rax,-0x4d8(%rbp)
    9a2f:	48 8d 85 78 ec ff ff 	lea    -0x1388(%rbp),%rax
    9a36:	48 89 85 30 fb ff ff 	mov    %rax,-0x4d0(%rbp)
    9a3d:	48 8d 85 78 ec ff ff 	lea    -0x1388(%rbp),%rax
    9a44:	48 89 85 38 fb ff ff 	mov    %rax,-0x4c8(%rbp)
    9a4b:	48 c7 85 40 fb ff ff 	movq   $0x0,-0x4c0(%rbp)
    9a52:	00 00 00 00 
    9a56:	48 8d 85 78 ec ff ff 	lea    -0x1388(%rbp),%rax
    9a5d:	48 89 85 48 fb ff ff 	mov    %rax,-0x4b8(%rbp)
    9a64:	48 8d 85 78 ec ff ff 	lea    -0x1388(%rbp),%rax
    9a6b:	48 89 85 50 fb ff ff 	mov    %rax,-0x4b0(%rbp)
    9a72:	48 c7 85 58 fb ff ff 	movq   $0x0,-0x4a8(%rbp)
    9a79:	00 00 00 00 
    9a7d:	48 8d 85 78 ec ff ff 	lea    -0x1388(%rbp),%rax
    9a84:	48 89 85 60 fb ff ff 	mov    %rax,-0x4a0(%rbp)
    9a8b:	48 8d 85 78 ec ff ff 	lea    -0x1388(%rbp),%rax
    9a92:	48 89 85 68 fb ff ff 	mov    %rax,-0x498(%rbp)
    9a99:	48 8d 85 78 ec ff ff 	lea    -0x1388(%rbp),%rax
    9aa0:	48 89 85 70 fb ff ff 	mov    %rax,-0x490(%rbp)
    9aa7:	48 8d 85 78 ec ff ff 	lea    -0x1388(%rbp),%rax
    9aae:	48 89 85 78 fb ff ff 	mov    %rax,-0x488(%rbp)
    9ab5:	48 8d 85 78 ec ff ff 	lea    -0x1388(%rbp),%rax
    9abc:	48 89 85 80 fb ff ff 	mov    %rax,-0x480(%rbp)
    9ac3:	48 c7 85 88 fb ff ff 	movq   $0x0,-0x478(%rbp)
    9aca:	00 00 00 00 
    9ace:	48 8d 85 78 ec ff ff 	lea    -0x1388(%rbp),%rax
    9ad5:	48 89 85 90 fb ff ff 	mov    %rax,-0x470(%rbp)
    9adc:	48 8d 85 78 ec ff ff 	lea    -0x1388(%rbp),%rax
    9ae3:	48 89 85 98 fb ff ff 	mov    %rax,-0x468(%rbp)
    9aea:	48 8d 85 78 ec ff ff 	lea    -0x1388(%rbp),%rax
    9af1:	48 89 85 a0 fb ff ff 	mov    %rax,-0x460(%rbp)
    9af8:	48 8d 85 78 ec ff ff 	lea    -0x1388(%rbp),%rax
    9aff:	48 89 85 a8 fb ff ff 	mov    %rax,-0x458(%rbp)
    9b06:	48 8d 85 78 ec ff ff 	lea    -0x1388(%rbp),%rax
    9b0d:	48 89 85 b0 fb ff ff 	mov    %rax,-0x450(%rbp)
    9b14:	48 c7 85 b8 fb ff ff 	movq   $0x0,-0x448(%rbp)
    9b1b:	00 00 00 00 
    9b1f:	48 8d 85 78 ec ff ff 	lea    -0x1388(%rbp),%rax
    9b26:	48 89 85 c0 fb ff ff 	mov    %rax,-0x440(%rbp)
    9b2d:	48 8d 85 78 ec ff ff 	lea    -0x1388(%rbp),%rax
    9b34:	48 89 85 c8 fb ff ff 	mov    %rax,-0x438(%rbp)
    9b3b:	48 c7 85 d0 fb ff ff 	movq   $0x0,-0x430(%rbp)
    9b42:	00 00 00 00 
    9b46:	48 8d 85 78 ec ff ff 	lea    -0x1388(%rbp),%rax
    9b4d:	48 89 85 d8 fb ff ff 	mov    %rax,-0x428(%rbp)
    9b54:	48 8d 85 78 ec ff ff 	lea    -0x1388(%rbp),%rax
    9b5b:	48 89 85 e0 fb ff ff 	mov    %rax,-0x420(%rbp)
    9b62:	48 8d 85 78 ec ff ff 	lea    -0x1388(%rbp),%rax
    9b69:	48 89 85 e8 fb ff ff 	mov    %rax,-0x418(%rbp)
    9b70:	48 8d 85 78 ec ff ff 	lea    -0x1388(%rbp),%rax
    9b77:	48 89 85 f0 fb ff ff 	mov    %rax,-0x410(%rbp)
    9b7e:	48 8d 85 78 ec ff ff 	lea    -0x1388(%rbp),%rax
    9b85:	48 89 85 f8 fb ff ff 	mov    %rax,-0x408(%rbp)
    9b8c:	48 8d 85 78 ec ff ff 	lea    -0x1388(%rbp),%rax
    9b93:	48 89 85 00 fc ff ff 	mov    %rax,-0x400(%rbp)
    9b9a:	48 8d 85 78 ec ff ff 	lea    -0x1388(%rbp),%rax
    9ba1:	48 89 85 08 fc ff ff 	mov    %rax,-0x3f8(%rbp)
    9ba8:	48 8d 85 78 ec ff ff 	lea    -0x1388(%rbp),%rax
    9baf:	48 89 85 10 fc ff ff 	mov    %rax,-0x3f0(%rbp)
    9bb6:	48 8d 85 78 ec ff ff 	lea    -0x1388(%rbp),%rax
    9bbd:	48 89 85 18 fc ff ff 	mov    %rax,-0x3e8(%rbp)
    9bc4:	48 8d 85 78 ec ff ff 	lea    -0x1388(%rbp),%rax
    9bcb:	48 89 85 20 fc ff ff 	mov    %rax,-0x3e0(%rbp)
    9bd2:	48 8d 85 78 ec ff ff 	lea    -0x1388(%rbp),%rax
    9bd9:	48 89 85 28 fc ff ff 	mov    %rax,-0x3d8(%rbp)
    9be0:	48 c7 85 30 fc ff ff 	movq   $0x0,-0x3d0(%rbp)
    9be7:	00 00 00 00 
    9beb:	48 8d 85 78 ec ff ff 	lea    -0x1388(%rbp),%rax
    9bf2:	48 89 85 38 fc ff ff 	mov    %rax,-0x3c8(%rbp)
    9bf9:	48 8d 85 78 ec ff ff 	lea    -0x1388(%rbp),%rax
    9c00:	48 89 85 40 fc ff ff 	mov    %rax,-0x3c0(%rbp)
    9c07:	48 c7 85 48 fc ff ff 	movq   $0x0,-0x3b8(%rbp)
    9c0e:	00 00 00 00 
    9c12:	48 8d 85 78 ec ff ff 	lea    -0x1388(%rbp),%rax
    9c19:	48 89 85 50 fc ff ff 	mov    %rax,-0x3b0(%rbp)
    9c20:	48 8d 85 78 ec ff ff 	lea    -0x1388(%rbp),%rax
    9c27:	48 89 85 58 fc ff ff 	mov    %rax,-0x3a8(%rbp)
    9c2e:	48 8d 85 78 ec ff ff 	lea    -0x1388(%rbp),%rax
    9c35:	48 89 85 60 fc ff ff 	mov    %rax,-0x3a0(%rbp)
    9c3c:	48 8d 85 78 ec ff ff 	lea    -0x1388(%rbp),%rax
    9c43:	48 89 85 68 fc ff ff 	mov    %rax,-0x398(%rbp)
    9c4a:	48 8d 85 78 ec ff ff 	lea    -0x1388(%rbp),%rax
    9c51:	48 89 85 70 fc ff ff 	mov    %rax,-0x390(%rbp)
    9c58:	48 c7 85 78 fc ff ff 	movq   $0x0,-0x388(%rbp)
    9c5f:	00 00 00 00 
    9c63:	48 8d 85 78 ec ff ff 	lea    -0x1388(%rbp),%rax
    9c6a:	48 89 85 80 fc ff ff 	mov    %rax,-0x380(%rbp)
    9c71:	48 8d 85 78 ec ff ff 	lea    -0x1388(%rbp),%rax
    9c78:	48 89 85 88 fc ff ff 	mov    %rax,-0x378(%rbp)
    9c7f:	48 8d 85 78 ec ff ff 	lea    -0x1388(%rbp),%rax
    9c86:	48 89 85 90 fc ff ff 	mov    %rax,-0x370(%rbp)
    9c8d:	48 8d 85 78 ec ff ff 	lea    -0x1388(%rbp),%rax
    9c94:	48 89 85 98 fc ff ff 	mov    %rax,-0x368(%rbp)
    9c9b:	48 8d 85 78 ec ff ff 	lea    -0x1388(%rbp),%rax
    9ca2:	48 89 85 a0 fc ff ff 	mov    %rax,-0x360(%rbp)
    9ca9:	48 c7 85 a8 fc ff ff 	movq   $0x0,-0x358(%rbp)
    9cb0:	00 00 00 00 
    9cb4:	48 8d 85 78 ec ff ff 	lea    -0x1388(%rbp),%rax
    9cbb:	48 89 85 b0 fc ff ff 	mov    %rax,-0x350(%rbp)
    9cc2:	48 8d 85 78 ec ff ff 	lea    -0x1388(%rbp),%rax
    9cc9:	48 89 85 b8 fc ff ff 	mov    %rax,-0x348(%rbp)
    9cd0:	48 c7 85 c0 fc ff ff 	movq   $0x0,-0x340(%rbp)
    9cd7:	00 00 00 00 
    9cdb:	48 8d 85 78 ec ff ff 	lea    -0x1388(%rbp),%rax
    9ce2:	48 89 85 c8 fc ff ff 	mov    %rax,-0x338(%rbp)
    9ce9:	48 8d 85 78 ec ff ff 	lea    -0x1388(%rbp),%rax
    9cf0:	48 89 85 d0 fc ff ff 	mov    %rax,-0x330(%rbp)
    9cf7:	48 8d 85 78 ec ff ff 	lea    -0x1388(%rbp),%rax
    9cfe:	48 89 85 d8 fc ff ff 	mov    %rax,-0x328(%rbp)
    9d05:	48 8d 85 78 ec ff ff 	lea    -0x1388(%rbp),%rax
    9d0c:	48 89 85 e0 fc ff ff 	mov    %rax,-0x320(%rbp)
    9d13:	48 8d 85 78 ec ff ff 	lea    -0x1388(%rbp),%rax
    9d1a:	48 89 85 e8 fc ff ff 	mov    %rax,-0x318(%rbp)
    9d21:	48 8d 85 78 ec ff ff 	lea    -0x1388(%rbp),%rax
    9d28:	48 89 85 f0 fc ff ff 	mov    %rax,-0x310(%rbp)
    9d2f:	48 8d 85 78 ec ff ff 	lea    -0x1388(%rbp),%rax
    9d36:	48 89 85 f8 fc ff ff 	mov    %rax,-0x308(%rbp)
    9d3d:	48 8d 85 78 ec ff ff 	lea    -0x1388(%rbp),%rax
    9d44:	48 89 85 00 fd ff ff 	mov    %rax,-0x300(%rbp)
    9d4b:	48 8d 85 78 ec ff ff 	lea    -0x1388(%rbp),%rax
    9d52:	48 89 85 08 fd ff ff 	mov    %rax,-0x2f8(%rbp)
    9d59:	48 8d 85 78 ec ff ff 	lea    -0x1388(%rbp),%rax
    9d60:	48 89 85 10 fd ff ff 	mov    %rax,-0x2f0(%rbp)
    9d67:	48 8d 85 78 ec ff ff 	lea    -0x1388(%rbp),%rax
    9d6e:	48 89 85 18 fd ff ff 	mov    %rax,-0x2e8(%rbp)
    9d75:	48 c7 85 20 fd ff ff 	movq   $0x0,-0x2e0(%rbp)
    9d7c:	00 00 00 00 
    9d80:	48 8d 85 78 ec ff ff 	lea    -0x1388(%rbp),%rax
    9d87:	48 89 85 28 fd ff ff 	mov    %rax,-0x2d8(%rbp)
    9d8e:	48 8d 85 78 ec ff ff 	lea    -0x1388(%rbp),%rax
    9d95:	48 89 85 30 fd ff ff 	mov    %rax,-0x2d0(%rbp)
    9d9c:	48 c7 85 38 fd ff ff 	movq   $0x0,-0x2c8(%rbp)
    9da3:	00 00 00 00 
    9da7:	48 8d 85 78 ec ff ff 	lea    -0x1388(%rbp),%rax
    9dae:	48 89 85 40 fd ff ff 	mov    %rax,-0x2c0(%rbp)
    9db5:	48 8d 85 78 ec ff ff 	lea    -0x1388(%rbp),%rax
    9dbc:	48 89 85 48 fd ff ff 	mov    %rax,-0x2b8(%rbp)
    9dc3:	48 8d 85 78 ec ff ff 	lea    -0x1388(%rbp),%rax
    9dca:	48 89 85 50 fd ff ff 	mov    %rax,-0x2b0(%rbp)
    9dd1:	48 8d 85 78 ec ff ff 	lea    -0x1388(%rbp),%rax
    9dd8:	48 89 85 58 fd ff ff 	mov    %rax,-0x2a8(%rbp)
    9ddf:	48 8d 85 78 ec ff ff 	lea    -0x1388(%rbp),%rax
    9de6:	48 89 85 60 fd ff ff 	mov    %rax,-0x2a0(%rbp)
    9ded:	48 c7 85 68 fd ff ff 	movq   $0x0,-0x298(%rbp)
    9df4:	00 00 00 00 
    9df8:	48 8d 85 78 ec ff ff 	lea    -0x1388(%rbp),%rax
    9dff:	48 89 85 70 fd ff ff 	mov    %rax,-0x290(%rbp)
    9e06:	48 8d 85 78 ec ff ff 	lea    -0x1388(%rbp),%rax
    9e0d:	48 89 85 78 fd ff ff 	mov    %rax,-0x288(%rbp)
    9e14:	48 8d 85 78 ec ff ff 	lea    -0x1388(%rbp),%rax
    9e1b:	48 89 85 80 fd ff ff 	mov    %rax,-0x280(%rbp)
    9e22:	48 8d 85 78 ec ff ff 	lea    -0x1388(%rbp),%rax
    9e29:	48 89 85 88 fd ff ff 	mov    %rax,-0x278(%rbp)
    9e30:	48 8d 85 78 ec ff ff 	lea    -0x1388(%rbp),%rax
    9e37:	48 89 85 90 fd ff ff 	mov    %rax,-0x270(%rbp)
    9e3e:	48 c7 85 98 fd ff ff 	movq   $0x0,-0x268(%rbp)
    9e45:	00 00 00 00 
    9e49:	48 8d 85 78 ec ff ff 	lea    -0x1388(%rbp),%rax
    9e50:	48 89 85 a0 fd ff ff 	mov    %rax,-0x260(%rbp)
    9e57:	48 8d 85 78 ec ff ff 	lea    -0x1388(%rbp),%rax
    9e5e:	48 89 85 a8 fd ff ff 	mov    %rax,-0x258(%rbp)
    9e65:	48 c7 85 b0 fd ff ff 	movq   $0x0,-0x250(%rbp)
    9e6c:	00 00 00 00 
    9e70:	48 8d 85 78 ec ff ff 	lea    -0x1388(%rbp),%rax
    9e77:	48 89 85 b8 fd ff ff 	mov    %rax,-0x248(%rbp)
    9e7e:	48 8d 85 78 ec ff ff 	lea    -0x1388(%rbp),%rax
    9e85:	48 89 85 c0 fd ff ff 	mov    %rax,-0x240(%rbp)
    9e8c:	48 8d 85 78 ec ff ff 	lea    -0x1388(%rbp),%rax
    9e93:	48 89 85 c8 fd ff ff 	mov    %rax,-0x238(%rbp)
    9e9a:	48 8d 85 78 ec ff ff 	lea    -0x1388(%rbp),%rax
    9ea1:	48 89 85 d0 fd ff ff 	mov    %rax,-0x230(%rbp)
    9ea8:	48 8d 85 78 ec ff ff 	lea    -0x1388(%rbp),%rax
    9eaf:	48 89 85 d8 fd ff ff 	mov    %rax,-0x228(%rbp)
    9eb6:	48 8d 85 78 ec ff ff 	lea    -0x1388(%rbp),%rax
    9ebd:	48 89 85 e0 fd ff ff 	mov    %rax,-0x220(%rbp)
    9ec4:	48 8d 85 78 ec ff ff 	lea    -0x1388(%rbp),%rax
    9ecb:	48 89 85 e8 fd ff ff 	mov    %rax,-0x218(%rbp)
    9ed2:	48 8d 85 78 ec ff ff 	lea    -0x1388(%rbp),%rax
    9ed9:	48 89 85 f0 fd ff ff 	mov    %rax,-0x210(%rbp)
    9ee0:	48 8d 85 78 ec ff ff 	lea    -0x1388(%rbp),%rax
    9ee7:	48 89 85 f8 fd ff ff 	mov    %rax,-0x208(%rbp)
    9eee:	48 8d 85 78 ec ff ff 	lea    -0x1388(%rbp),%rax
    9ef5:	48 89 85 00 fe ff ff 	mov    %rax,-0x200(%rbp)
    9efc:	48 8d 85 78 ec ff ff 	lea    -0x1388(%rbp),%rax
    9f03:	48 89 85 08 fe ff ff 	mov    %rax,-0x1f8(%rbp)
    9f0a:	48 c7 85 10 fe ff ff 	movq   $0x0,-0x1f0(%rbp)
    9f11:	00 00 00 00 
    9f15:	48 8d 85 78 ec ff ff 	lea    -0x1388(%rbp),%rax
    9f1c:	48 89 85 18 fe ff ff 	mov    %rax,-0x1e8(%rbp)
    9f23:	48 8d 85 78 ec ff ff 	lea    -0x1388(%rbp),%rax
    9f2a:	48 89 85 20 fe ff ff 	mov    %rax,-0x1e0(%rbp)
    9f31:	48 c7 85 28 fe ff ff 	movq   $0x0,-0x1d8(%rbp)
    9f38:	00 00 00 00 
    9f3c:	48 8d 85 78 ec ff ff 	lea    -0x1388(%rbp),%rax
    9f43:	48 89 85 30 fe ff ff 	mov    %rax,-0x1d0(%rbp)
    9f4a:	48 8d 85 78 ec ff ff 	lea    -0x1388(%rbp),%rax
    9f51:	48 89 85 38 fe ff ff 	mov    %rax,-0x1c8(%rbp)
    9f58:	48 8d 85 78 ec ff ff 	lea    -0x1388(%rbp),%rax
    9f5f:	48 89 85 40 fe ff ff 	mov    %rax,-0x1c0(%rbp)
    9f66:	48 8d 85 78 ec ff ff 	lea    -0x1388(%rbp),%rax
    9f6d:	48 89 85 48 fe ff ff 	mov    %rax,-0x1b8(%rbp)
    9f74:	48 8d 85 78 ec ff ff 	lea    -0x1388(%rbp),%rax
    9f7b:	48 89 85 50 fe ff ff 	mov    %rax,-0x1b0(%rbp)
    9f82:	48 c7 85 58 fe ff ff 	movq   $0x0,-0x1a8(%rbp)
    9f89:	00 00 00 00 
    9f8d:	48 8d 85 78 ec ff ff 	lea    -0x1388(%rbp),%rax
    9f94:	48 89 85 60 fe ff ff 	mov    %rax,-0x1a0(%rbp)
    9f9b:	48 8d 85 78 ec ff ff 	lea    -0x1388(%rbp),%rax
    9fa2:	48 89 85 68 fe ff ff 	mov    %rax,-0x198(%rbp)
    9fa9:	48 8d 85 78 ec ff ff 	lea    -0x1388(%rbp),%rax
    9fb0:	48 89 85 70 fe ff ff 	mov    %rax,-0x190(%rbp)
    9fb7:	48 8d 85 78 ec ff ff 	lea    -0x1388(%rbp),%rax
    9fbe:	48 89 85 78 fe ff ff 	mov    %rax,-0x188(%rbp)
    9fc5:	48 8d 85 78 ec ff ff 	lea    -0x1388(%rbp),%rax
    9fcc:	48 89 85 80 fe ff ff 	mov    %rax,-0x180(%rbp)
    9fd3:	48 c7 85 88 fe ff ff 	movq   $0x0,-0x178(%rbp)
    9fda:	00 00 00 00 
    9fde:	48 8d 85 78 ec ff ff 	lea    -0x1388(%rbp),%rax
    9fe5:	48 89 85 90 fe ff ff 	mov    %rax,-0x170(%rbp)
    9fec:	48 8d 85 78 ec ff ff 	lea    -0x1388(%rbp),%rax
    9ff3:	48 89 85 98 fe ff ff 	mov    %rax,-0x168(%rbp)
    9ffa:	48 c7 85 a0 fe ff ff 	movq   $0x0,-0x160(%rbp)
    a001:	00 00 00 00 
    a005:	48 8d 85 78 ec ff ff 	lea    -0x1388(%rbp),%rax
    a00c:	48 89 85 a8 fe ff ff 	mov    %rax,-0x158(%rbp)
    a013:	48 8d 85 78 ec ff ff 	lea    -0x1388(%rbp),%rax
    a01a:	48 89 85 b0 fe ff ff 	mov    %rax,-0x150(%rbp)
    a021:	48 8d 85 78 ec ff ff 	lea    -0x1388(%rbp),%rax
    a028:	48 89 85 b8 fe ff ff 	mov    %rax,-0x148(%rbp)
    a02f:	48 8d 85 78 ec ff ff 	lea    -0x1388(%rbp),%rax
    a036:	48 89 85 c0 fe ff ff 	mov    %rax,-0x140(%rbp)
    a03d:	48 8d 85 78 ec ff ff 	lea    -0x1388(%rbp),%rax
    a044:	48 89 85 c8 fe ff ff 	mov    %rax,-0x138(%rbp)
    a04b:	48 8d 85 78 ec ff ff 	lea    -0x1388(%rbp),%rax
    a052:	48 89 85 d0 fe ff ff 	mov    %rax,-0x130(%rbp)
    a059:	48 8d 85 78 ec ff ff 	lea    -0x1388(%rbp),%rax
    a060:	48 89 85 d8 fe ff ff 	mov    %rax,-0x128(%rbp)
    a067:	48 8d 85 78 ec ff ff 	lea    -0x1388(%rbp),%rax
    a06e:	48 89 85 e0 fe ff ff 	mov    %rax,-0x120(%rbp)
    a075:	48 8d 85 78 ec ff ff 	lea    -0x1388(%rbp),%rax
    a07c:	48 89 85 e8 fe ff ff 	mov    %rax,-0x118(%rbp)
    a083:	48 8d 85 78 ec ff ff 	lea    -0x1388(%rbp),%rax
    a08a:	48 89 85 f0 fe ff ff 	mov    %rax,-0x110(%rbp)
    a091:	48 8d 85 78 ec ff ff 	lea    -0x1388(%rbp),%rax
    a098:	48 89 85 f8 fe ff ff 	mov    %rax,-0x108(%rbp)
    a09f:	48 c7 85 00 ff ff ff 	movq   $0x0,-0x100(%rbp)
    a0a6:	00 00 00 00 
    a0aa:	48 8d 85 78 ec ff ff 	lea    -0x1388(%rbp),%rax
    a0b1:	48 89 85 08 ff ff ff 	mov    %rax,-0xf8(%rbp)
    a0b8:	48 8d 85 78 ec ff ff 	lea    -0x1388(%rbp),%rax
    a0bf:	48 89 85 10 ff ff ff 	mov    %rax,-0xf0(%rbp)
    a0c6:	48 c7 85 18 ff ff ff 	movq   $0x0,-0xe8(%rbp)
    a0cd:	00 00 00 00 
    a0d1:	48 8d 85 78 ec ff ff 	lea    -0x1388(%rbp),%rax
    a0d8:	48 89 85 20 ff ff ff 	mov    %rax,-0xe0(%rbp)
    a0df:	48 8d 85 78 ec ff ff 	lea    -0x1388(%rbp),%rax
    a0e6:	48 89 85 28 ff ff ff 	mov    %rax,-0xd8(%rbp)
    a0ed:	48 8d 85 78 ec ff ff 	lea    -0x1388(%rbp),%rax
    a0f4:	48 89 85 30 ff ff ff 	mov    %rax,-0xd0(%rbp)
    a0fb:	48 8d 85 78 ec ff ff 	lea    -0x1388(%rbp),%rax
    a102:	48 89 85 38 ff ff ff 	mov    %rax,-0xc8(%rbp)
    a109:	48 8d 85 78 ec ff ff 	lea    -0x1388(%rbp),%rax
    a110:	48 89 85 40 ff ff ff 	mov    %rax,-0xc0(%rbp)
    a117:	48 c7 85 48 ff ff ff 	movq   $0x0,-0xb8(%rbp)
    a11e:	00 00 00 00 
    a122:	48 8d 85 78 ec ff ff 	lea    -0x1388(%rbp),%rax
    a129:	48 89 85 50 ff ff ff 	mov    %rax,-0xb0(%rbp)
    a130:	48 8d 85 78 ec ff ff 	lea    -0x1388(%rbp),%rax
    a137:	48 89 85 58 ff ff ff 	mov    %rax,-0xa8(%rbp)
    a13e:	48 8d 85 78 ec ff ff 	lea    -0x1388(%rbp),%rax
    a145:	48 89 85 60 ff ff ff 	mov    %rax,-0xa0(%rbp)
    a14c:	48 8d 85 78 ec ff ff 	lea    -0x1388(%rbp),%rax
    a153:	48 89 85 68 ff ff ff 	mov    %rax,-0x98(%rbp)
    a15a:	48 8d 85 78 ec ff ff 	lea    -0x1388(%rbp),%rax
    a161:	48 89 85 70 ff ff ff 	mov    %rax,-0x90(%rbp)
    a168:	48 c7 85 78 ff ff ff 	movq   $0x0,-0x88(%rbp)
    a16f:	00 00 00 00 
    a173:	48 8d 85 78 ec ff ff 	lea    -0x1388(%rbp),%rax
    a17a:	48 89 45 80          	mov    %rax,-0x80(%rbp)
    a17e:	48 8d 85 78 ec ff ff 	lea    -0x1388(%rbp),%rax
    a185:	48 89 45 88          	mov    %rax,-0x78(%rbp)
    a189:	48 c7 45 90 00 00 00 	movq   $0x0,-0x70(%rbp)
    a190:	00 
    a191:	48 8d 85 78 ec ff ff 	lea    -0x1388(%rbp),%rax
    a198:	48 89 45 98          	mov    %rax,-0x68(%rbp)
    a19c:	48 8d 85 78 ec ff ff 	lea    -0x1388(%rbp),%rax
    a1a3:	48 89 45 a0          	mov    %rax,-0x60(%rbp)
    a1a7:	48 8d 85 78 ec ff ff 	lea    -0x1388(%rbp),%rax
    a1ae:	48 89 45 a8          	mov    %rax,-0x58(%rbp)
    a1b2:	48 8d 85 78 ec ff ff 	lea    -0x1388(%rbp),%rax
    a1b9:	48 89 45 b0          	mov    %rax,-0x50(%rbp)
    a1bd:	48 8d 85 78 ec ff ff 	lea    -0x1388(%rbp),%rax
    a1c4:	48 89 45 b8          	mov    %rax,-0x48(%rbp)
    a1c8:	c7 85 08 ec ff ff a3 	movl   $0xd4f525a3,-0x13f8(%rbp)
    a1cf:	25 f5 d4 
    a1d2:	48 8d 05 ff f8 00 00 	lea    0xf8ff(%rip),%rax        # 19ad8 <g_1234>
    a1d9:	48 89 85 70 ef ff ff 	mov    %rax,-0x1090(%rbp)
    a1e0:	48 c7 85 78 ef ff ff 	movq   $0x0,-0x1088(%rbp)
    a1e7:	00 00 00 00 
    a1eb:	48 8d 05 e6 f8 00 00 	lea    0xf8e6(%rip),%rax        # 19ad8 <g_1234>
    a1f2:	48 89 85 80 ef ff ff 	mov    %rax,-0x1080(%rbp)
    a1f9:	48 c7 85 88 ef ff ff 	movq   $0x0,-0x1078(%rbp)
    a200:	00 00 00 00 
    a204:	48 8d 05 cd f8 00 00 	lea    0xf8cd(%rip),%rax        # 19ad8 <g_1234>
    a20b:	48 89 85 90 ef ff ff 	mov    %rax,-0x1070(%rbp)
    a212:	48 c7 85 98 ef ff ff 	movq   $0x0,-0x1068(%rbp)
    a219:	00 00 00 00 
    a21d:	48 8d 05 b4 f8 00 00 	lea    0xf8b4(%rip),%rax        # 19ad8 <g_1234>
    a224:	48 89 85 a0 ef ff ff 	mov    %rax,-0x1060(%rbp)
    a22b:	48 c7 85 a8 ef ff ff 	movq   $0x0,-0x1058(%rbp)
    a232:	00 00 00 00 
    a236:	48 8d 05 9b f8 00 00 	lea    0xf89b(%rip),%rax        # 19ad8 <g_1234>
    a23d:	48 89 85 b0 ef ff ff 	mov    %rax,-0x1050(%rbp)
    a244:	48 b8 4a 65 d3 08 f4 	movabs $0x9f113bf408d3654a,%rax
    a24b:	3b 11 9f 
    a24e:	48 89 85 d8 ec ff ff 	mov    %rax,-0x1328(%rbp)
    a255:	66 c7 85 e8 eb ff ff 	movw   $0x9,-0x1418(%rbp)
    a25c:	09 00 
    a25e:	c7 85 0c ec ff ff fb 	movl   $0xfffffffb,-0x13f4(%rbp)
    a265:	ff ff ff 
    a268:	48 b8 9a 7e 9f 3a e3 	movabs $0x9584b6e33a9f7e9a,%rax
    a26f:	b6 84 95 
    a272:	48 89 85 e0 ec ff ff 	mov    %rax,-0x1320(%rbp)
    a279:	48 c7 85 e8 ec ff ff 	movq   $0x0,-0x1318(%rbp)
    a280:	00 00 00 00 
    a284:	48 8d 85 60 f0 ff ff 	lea    -0xfa0(%rbp),%rax
    a28b:	48 8d 15 ae 8f 00 00 	lea    0x8fae(%rip),%rdx        # 13240 <g_2689+0x1dc>
    a292:	b9 24 00 00 00       	mov    $0x24,%ecx
    a297:	48 89 c7             	mov    %rax,%rdi
    a29a:	48 89 d6             	mov    %rdx,%rsi
    a29d:	f3 48 a5             	rep movsq %ds:(%rsi),%es:(%rdi)
    a2a0:	66 c7 85 ea eb ff ff 	movw   $0xfffa,-0x1416(%rbp)
    a2a7:	fa ff 
    a2a9:	c7 85 40 ee ff ff 94 	movl   $0xf3617394,-0x11c0(%rbp)
    a2b0:	73 61 f3 
    a2b3:	c7 85 44 ee ff ff 94 	movl   $0xf3617394,-0x11bc(%rbp)
    a2ba:	73 61 f3 
    a2bd:	c7 85 48 ee ff ff 94 	movl   $0xf3617394,-0x11b8(%rbp)
    a2c4:	73 61 f3 
    a2c7:	c7 85 4c ee ff ff 94 	movl   $0xf3617394,-0x11b4(%rbp)
    a2ce:	73 61 f3 
    a2d1:	c7 85 50 ee ff ff 94 	movl   $0xf3617394,-0x11b0(%rbp)
    a2d8:	73 61 f3 
    a2db:	c7 85 54 ee ff ff 94 	movl   $0xf3617394,-0x11ac(%rbp)
    a2e2:	73 61 f3 
    a2e5:	48 8d 05 44 cd 00 00 	lea    0xcd44(%rip),%rax        # 17030 <g_6>
    a2ec:	48 89 85 80 ee ff ff 	mov    %rax,-0x1180(%rbp)
    a2f3:	48 8d 05 36 cd 00 00 	lea    0xcd36(%rip),%rax        # 17030 <g_6>
    a2fa:	48 89 85 88 ee ff ff 	mov    %rax,-0x1178(%rbp)
    a301:	48 8d 05 28 cd 00 00 	lea    0xcd28(%rip),%rax        # 17030 <g_6>
    a308:	48 89 85 90 ee ff ff 	mov    %rax,-0x1170(%rbp)
    a30f:	48 8d 05 1a cd 00 00 	lea    0xcd1a(%rip),%rax        # 17030 <g_6>
    a316:	48 89 85 98 ee ff ff 	mov    %rax,-0x1168(%rbp)
    a31d:	48 8d 05 0c cd 00 00 	lea    0xcd0c(%rip),%rax        # 17030 <g_6>
    a324:	48 89 85 a0 ee ff ff 	mov    %rax,-0x1160(%rbp)
    a32b:	48 8d 05 66 01 01 00 	lea    0x10166(%rip),%rax        # 1a498 <g_1819>
    a332:	48 89 85 80 ec ff ff 	mov    %rax,-0x1380(%rbp)
    a339:	48 8d 85 80 ec ff ff 	lea    -0x1380(%rbp),%rax
    a340:	48 89 85 88 ec ff ff 	mov    %rax,-0x1378(%rbp)
    a347:	48 8d 85 88 ec ff ff 	lea    -0x1378(%rbp),%rax
    a34e:	48 89 85 30 ef ff ff 	mov    %rax,-0x10d0(%rbp)
    a355:	48 c7 85 38 ef ff ff 	movq   $0x0,-0x10c8(%rbp)
    a35c:	00 00 00 00 
    a360:	48 8d 85 88 ec ff ff 	lea    -0x1378(%rbp),%rax
    a367:	48 89 85 40 ef ff ff 	mov    %rax,-0x10c0(%rbp)
    a36e:	48 8d 85 88 ec ff ff 	lea    -0x1378(%rbp),%rax
    a375:	48 89 85 48 ef ff ff 	mov    %rax,-0x10b8(%rbp)
    a37c:	48 c7 85 50 ef ff ff 	movq   $0x0,-0x10b0(%rbp)
    a383:	00 00 00 00 
    a387:	48 8d 85 88 ec ff ff 	lea    -0x1378(%rbp),%rax
    a38e:	48 89 85 58 ef ff ff 	mov    %rax,-0x10a8(%rbp)
    a395:	48 8d 85 88 ec ff ff 	lea    -0x1378(%rbp),%rax
    a39c:	48 89 85 60 ef ff ff 	mov    %rax,-0x10a0(%rbp)
    a3a3:	48 c7 85 68 ef ff ff 	movq   $0x0,-0x1098(%rbp)
    a3aa:	00 00 00 00 
    a3ae:	c7 85 10 ec ff ff e2 	movl   $0x398b15e2,-0x13f0(%rbp)
    a3b5:	15 8b 39 
    a3b8:	c6 85 de eb ff ff fd 	movb   $0xfd,-0x1422(%rbp)
    a3bf:	48 8d 05 4a f7 00 00 	lea    0xf74a(%rip),%rax        # 19b10 <g_1720+0x10>
    a3c6:	48 89 85 c0 ef ff ff 	mov    %rax,-0x1040(%rbp)
    a3cd:	48 8d 05 2c f7 00 00 	lea    0xf72c(%rip),%rax        # 19b00 <g_1720>
    a3d4:	48 89 85 c8 ef ff ff 	mov    %rax,-0x1038(%rbp)
    a3db:	48 8d 05 2e f7 00 00 	lea    0xf72e(%rip),%rax        # 19b10 <g_1720+0x10>
    a3e2:	48 89 85 d0 ef ff ff 	mov    %rax,-0x1030(%rbp)
    a3e9:	48 8d 05 28 f7 00 00 	lea    0xf728(%rip),%rax        # 19b18 <g_1720+0x18>
    a3f0:	48 89 85 d8 ef ff ff 	mov    %rax,-0x1028(%rbp)
    a3f7:	48 8d 05 1a f7 00 00 	lea    0xf71a(%rip),%rax        # 19b18 <g_1720+0x18>
    a3fe:	48 89 85 e0 ef ff ff 	mov    %rax,-0x1020(%rbp)
    a405:	48 8d 05 04 f7 00 00 	lea    0xf704(%rip),%rax        # 19b10 <g_1720+0x10>
    a40c:	48 89 85 e8 ef ff ff 	mov    %rax,-0x1018(%rbp)
    a413:	48 8d 05 e6 f6 00 00 	lea    0xf6e6(%rip),%rax        # 19b00 <g_1720>
    a41a:	48 89 85 f0 ef ff ff 	mov    %rax,-0x1010(%rbp)
    a421:	48 8d 05 e8 f6 00 00 	lea    0xf6e8(%rip),%rax        # 19b10 <g_1720+0x10>
    a428:	48 89 85 f8 ef ff ff 	mov    %rax,-0x1008(%rbp)
    a42f:	48 8d 05 e2 f6 00 00 	lea    0xf6e2(%rip),%rax        # 19b18 <g_1720+0x18>
    a436:	48 89 85 00 f0 ff ff 	mov    %rax,-0x1000(%rbp)
    a43d:	48 8d 05 d4 f6 00 00 	lea    0xf6d4(%rip),%rax        # 19b18 <g_1720+0x18>
    a444:	48 89 85 08 f0 ff ff 	mov    %rax,-0xff8(%rbp)
    a44b:	48 8d 85 c0 ef ff ff 	lea    -0x1040(%rbp),%rax
    a452:	48 83 c0 10          	add    $0x10,%rax
    a456:	48 89 85 90 ec ff ff 	mov    %rax,-0x1370(%rbp)
    a45d:	48 8d 85 90 ec ff ff 	lea    -0x1370(%rbp),%rax
    a464:	48 89 85 f0 ec ff ff 	mov    %rax,-0x1310(%rbp)
    a46b:	c7 05 bb cb 00 00 03 	movl   $0x3,0xcbbb(%rip)        # 17030 <g_6>
    a472:	00 00 00 
    a475:	e9 5c 03 00 00       	jmpq   a7d6 <func_1+0x1021>
    a47a:	48 c7 85 08 ee ff ff 	movq   $0x0,-0x11f8(%rbp)
    a481:	00 00 00 00 
    a485:	c7 85 70 ec ff ff ff 	movl   $0xffffffff,-0x1390(%rbp)
    a48c:	ff ff ff 
    a48f:	48 8d 05 ee ff 00 00 	lea    0xffee(%rip),%rax        # 1a484 <g_1109>
    a496:	48 89 85 10 ee ff ff 	mov    %rax,-0x11f0(%rbp)
    a49d:	48 8d 05 94 f6 00 00 	lea    0xf694(%rip),%rax        # 19b38 <g_1720+0x38>
    a4a4:	48 89 85 b8 ec ff ff 	mov    %rax,-0x1348(%rbp)
    a4ab:	48 8d 85 b8 ec ff ff 	lea    -0x1348(%rbp),%rax
    a4b2:	48 89 85 18 ee ff ff 	mov    %rax,-0x11e8(%rbp)
    a4b9:	c7 85 74 ec ff ff ff 	movl   $0xffffffff,-0x138c(%rbp)
    a4c0:	ff ff ff 
    a4c3:	48 8d 05 de f4 00 00 	lea    0xf4de(%rip),%rax        # 199a8 <g_978>
    a4ca:	48 89 85 20 ee ff ff 	mov    %rax,-0x11e0(%rbp)
    a4d1:	48 c7 85 80 f1 ff ff 	movq   $0x0,-0xe80(%rbp)
    a4d8:	00 00 00 00 
    a4dc:	48 8d 05 a9 ff 00 00 	lea    0xffa9(%rip),%rax        # 1a48c <g_1438>
    a4e3:	48 89 85 88 f1 ff ff 	mov    %rax,-0xe78(%rbp)
    a4ea:	48 c7 85 90 f1 ff ff 	movq   $0x0,-0xe70(%rbp)
    a4f1:	00 00 00 00 
    a4f5:	48 8d 05 90 ff 00 00 	lea    0xff90(%rip),%rax        # 1a48c <g_1438>
    a4fc:	48 89 85 98 f1 ff ff 	mov    %rax,-0xe68(%rbp)
    a503:	48 8d 05 82 ff 00 00 	lea    0xff82(%rip),%rax        # 1a48c <g_1438>
    a50a:	48 89 85 a0 f1 ff ff 	mov    %rax,-0xe60(%rbp)
    a511:	48 c7 85 a8 f1 ff ff 	movq   $0x0,-0xe58(%rbp)
    a518:	00 00 00 00 
    a51c:	48 8d 05 69 ff 00 00 	lea    0xff69(%rip),%rax        # 1a48c <g_1438>
    a523:	48 89 85 b0 f1 ff ff 	mov    %rax,-0xe50(%rbp)
    a52a:	48 c7 85 b8 f1 ff ff 	movq   $0x0,-0xe48(%rbp)
    a531:	00 00 00 00 
    a535:	48 8d 05 50 ff 00 00 	lea    0xff50(%rip),%rax        # 1a48c <g_1438>
    a53c:	48 89 85 c0 f1 ff ff 	mov    %rax,-0xe40(%rbp)
    a543:	48 c7 85 c8 f1 ff ff 	movq   $0x0,-0xe38(%rbp)
    a54a:	00 00 00 00 
    a54e:	48 c7 85 d0 f1 ff ff 	movq   $0x0,-0xe30(%rbp)
    a555:	00 00 00 00 
    a559:	48 8d 05 2c ff 00 00 	lea    0xff2c(%rip),%rax        # 1a48c <g_1438>
    a560:	48 89 85 d8 f1 ff ff 	mov    %rax,-0xe28(%rbp)
    a567:	48 c7 85 e0 f1 ff ff 	movq   $0x0,-0xe20(%rbp)
    a56e:	00 00 00 00 
    a572:	48 8d 05 13 ff 00 00 	lea    0xff13(%rip),%rax        # 1a48c <g_1438>
    a579:	48 89 85 e8 f1 ff ff 	mov    %rax,-0xe18(%rbp)
    a580:	48 8d 05 05 ff 00 00 	lea    0xff05(%rip),%rax        # 1a48c <g_1438>
    a587:	48 89 85 f0 f1 ff ff 	mov    %rax,-0xe10(%rbp)
    a58e:	48 c7 85 f8 f1 ff ff 	movq   $0x0,-0xe08(%rbp)
    a595:	00 00 00 00 
    a599:	48 b8 ff 83 cc e7 4f 	movabs $0x301034fe7cc83ff,%rax
    a5a0:	03 01 03 
    a5a3:	48 89 85 30 f6 ff ff 	mov    %rax,-0x9d0(%rbp)
    a5aa:	48 b8 ff cc 04 cb 4f 	movabs $0xff03ff4fcb04ccff,%rax
    a5b1:	ff 03 ff 
    a5b4:	48 89 85 38 f6 ff ff 	mov    %rax,-0x9c8(%rbp)
    a5bb:	48 b8 ff 01 d1 03 96 	movabs $0x96f9f99603d101ff,%rax
    a5c2:	f9 f9 96 
    a5c5:	48 89 85 40 f6 ff ff 	mov    %rax,-0x9c0(%rbp)
    a5cc:	48 b8 fb cb cb fb ff 	movabs $0xcc1501fffbcbcbfb,%rax
    a5d3:	01 15 cc 
    a5d6:	48 89 85 48 f6 ff ff 	mov    %rax,-0x9b8(%rbp)
    a5dd:	48 b8 4f 96 fb 01 06 	movabs $0x483000601fb964f,%rax
    a5e4:	00 83 04 
    a5e7:	48 89 85 50 f6 ff ff 	mov    %rax,-0x9b0(%rbp)
    a5ee:	48 b8 00 96 0e 03 ff 	movabs $0xd1ff01ff030e9600,%rax
    a5f5:	01 ff d1 
    a5f8:	48 89 85 58 f6 ff ff 	mov    %rax,-0x9a8(%rbp)
    a5ff:	48 b8 ff cb 06 f9 15 	movabs $0xcb06f915f906cbff,%rax
    a606:	f9 06 cb 
    a609:	48 89 85 60 f6 ff ff 	mov    %rax,-0x9a0(%rbp)
    a610:	48 b8 ff 01 7b 15 03 	movabs $0xfb2fff03157b01ff,%rax
    a617:	ff 2f fb 
    a61a:	48 89 85 68 f6 ff ff 	mov    %rax,-0x998(%rbp)
    a621:	48 b8 f9 cc 01 83 ff 	movabs $0xe2f03ff8301ccf9,%rax
    a628:	03 2f 0e 
    a62b:	48 89 85 70 f6 ff ff 	mov    %rax,-0x990(%rbp)
    a632:	48 b8 e7 83 7b ff ff 	movabs $0xdada2fffff7b83e7,%rax
    a639:	2f da da 
    a63c:	48 89 85 78 f6 ff ff 	mov    %rax,-0x988(%rbp)
    a643:	48 b8 ff 2f da da 2f 	movabs $0xff03ff2fdada2fff,%rax
    a64a:	ff 03 ff 
    a64d:	48 89 85 80 f6 ff ff 	mov    %rax,-0x980(%rbp)
    a654:	48 b8 f9 83 fb 0e 15 	movabs $0xd14f7a150efb83f9,%rax
    a65b:	7a 4f d1 
    a65e:	48 89 85 88 f6 ff ff 	mov    %rax,-0x978(%rbp)
    a665:	48 b8 09 00 96 0e 03 	movabs $0xff01ff030e960009,%rax
    a66c:	ff 01 ff 
    a66f:	48 89 85 90 f6 ff ff 	mov    %rax,-0x970(%rbp)
    a676:	48 b8 e7 03 f9 da a1 	movabs $0xdaa101a1daf903e7,%rax
    a67d:	01 a1 da 
    a680:	48 89 85 98 f6 ff ff 	mov    %rax,-0x968(%rbp)
    a687:	48 b8 83 06 83 03 d1 	movabs $0xfb15ffd103830683,%rax
    a68e:	ff 15 fb 
    a691:	48 89 85 a0 f6 ff ff 	mov    %rax,-0x960(%rbp)
    a698:	48 b8 ff 09 ff 4f cc 	movabs $0x96d1dacc4fff09ff,%rax
    a69f:	da d1 96 
    a6a2:	48 89 85 a8 f6 ff ff 	mov    %rax,-0x958(%rbp)
    a6a9:	48 b8 ff c5 ff 01 d1 	movabs $0xf99603d101ffc5ff,%rax
    a6b0:	03 96 f9 
    a6b3:	48 89 85 b0 f6 ff ff 	mov    %rax,-0x950(%rbp)
    a6ba:	48 b8 83 ff 7b a1 a1 	movabs $0x83ff7ba1a17bff83,%rax
    a6c1:	7b ff 83 
    a6c4:	48 89 85 b8 f6 ff ff 	mov    %rax,-0x948(%rbp)
    a6cb:	48 b8 e7 0e 04 15 03 	movabs $0xfff9000315040ee7,%rax
    a6d2:	00 f9 ff 
    a6d5:	48 89 85 c0 f6 ff ff 	mov    %rax,-0x940(%rbp)
    a6dc:	48 b8 09 ff ff d1 15 	movabs $0xffcb0015d1ffff09,%rax
    a6e3:	00 cb ff 
    a6e6:	48 89 85 c8 f6 ff ff 	mov    %rax,-0x938(%rbp)
    a6ed:	48 b8 f9 0e cc 96 2f 	movabs $0x7b047b2f96cc0ef9,%rax
    a6f4:	7b 04 7b 
    a6f7:	48 89 85 d0 f6 ff ff 	mov    %rax,-0x930(%rbp)
    a6fe:	48 b8 ff ff 2f ff ff 	movabs $0x4c503ffff2fffff,%rax
    a705:	03 c5 04 
    a708:	48 89 85 d8 f6 ff ff 	mov    %rax,-0x928(%rbp)
    a70f:	48 b8 cb c5 01 f9 7a 	movabs $0xfffbda7af901c5cb,%rax
    a716:	da fb ff 
    a719:	48 89 85 e0 f6 ff ff 	mov    %rax,-0x920(%rbp)
    a720:	48 b8 a1 09 01 cb ff 	movabs $0xccc5ffffcb0109a1,%rax
    a727:	ff c5 cc 
    a72a:	48 89 85 e8 f6 ff ff 	mov    %rax,-0x918(%rbp)
    a731:	48 b8 7a 06 2f 04 01 	movabs $0x2f040101042f067a,%rax
    a738:	01 04 2f 
    a73b:	48 89 85 f0 f6 ff ff 	mov    %rax,-0x910(%rbp)
    a742:	48 b8 03 03 cc c5 ff 	movabs $0x1cbffffc5cc0303,%rax
    a749:	ff cb 01 
    a74c:	48 89 85 f8 f6 ff ff 	mov    %rax,-0x908(%rbp)
    a753:	48 b8 cc 00 ff fb da 	movabs $0x1f97adafbff00cc,%rax
    a75a:	7a f9 01 
    a75d:	48 89 85 00 f7 ff ff 	mov    %rax,-0x900(%rbp)
    a764:	48 b8 00 83 04 c5 03 	movabs $0x2fffff03c5048300,%rax
    a76b:	ff ff 2f 
    a76e:	48 89 85 08 f7 ff ff 	mov    %rax,-0x8f8(%rbp)
    a775:	48 b8 96 2f 7b 04 7b 	movabs $0xcc962f7b047b2f96,%rax
    a77c:	2f 96 cc 
    a77f:	48 89 85 10 f7 ff ff 	mov    %rax,-0x8f0(%rbp)
    a786:	48 b8 04 4f ff cb 00 	movabs $0xffd11500cbff4f04,%rax
    a78d:	15 d1 ff 
    a790:	48 89 85 18 f7 ff ff 	mov    %rax,-0x8e8(%rbp)
    a797:	48 b8 ff ff ff f9 00 	movabs $0x4150300f9ffffff,%rax
    a79e:	03 15 04 
    a7a1:	48 89 85 20 f7 ff ff 	mov    %rax,-0x8e0(%rbp)
    a7a8:	48 b8 04 d1 83 ff 7b 	movabs $0x7ba1a17bff83d104,%rax
    a7af:	a1 a1 7b 
    a7b2:	48 89 85 28 f7 ff ff 	mov    %rax,-0x8d8(%rbp)
    a7b9:	48 8d 05 30 f0 00 00 	lea    0xf030(%rip),%rax        # 197f0 <g_651>
    a7c0:	48 89 85 28 ee ff ff 	mov    %rax,-0x11d8(%rbp)
    a7c7:	8b 05 63 c8 00 00    	mov    0xc863(%rip),%eax        # 17030 <g_6>
    a7cd:	83 e8 01             	sub    $0x1,%eax
    a7d0:	89 05 5a c8 00 00    	mov    %eax,0xc85a(%rip)        # 17030 <g_6>
    a7d6:	8b 05 54 c8 00 00    	mov    0xc854(%rip),%eax        # 17030 <g_6>
    a7dc:	85 c0                	test   %eax,%eax
    a7de:	0f 89 96 fc ff ff    	jns    a47a <func_1+0xcc5>
    a7e4:	b8 09 00 00 00       	mov    $0x9,%eax
    a7e9:	0f bf d8             	movswl %ax,%ebx
    a7ec:	0f b7 85 e6 eb ff ff 	movzwl -0x141a(%rbp),%eax
    a7f3:	41 89 c7             	mov    %eax,%r15d
    a7f6:	0f b7 85 5e f5 ff ff 	movzwl -0xaa2(%rbp),%eax
    a7fd:	44 0f b7 e8          	movzwl %ax,%r13d
    a801:	8b 85 04 ec ff ff    	mov    -0x13fc(%rbp),%eax
    a807:	0f be c0             	movsbl %al,%eax
    a80a:	be 00 00 00 00       	mov    $0x0,%esi
    a80f:	89 c7                	mov    %eax,%edi
    a811:	e8 fc d9 ff ff       	callq  8212 <safe_mul_func_int8_t_s_s>
    a816:	0f b6 c0             	movzbl %al,%eax
    a819:	be 01 00 00 00       	mov    $0x1,%esi
    a81e:	89 c7                	mov    %eax,%edi
    a820:	e8 68 e4 ff ff       	callq  8c8d <safe_rshift_func_uint8_t_u_s>
    a825:	44 0f b6 f0          	movzbl %al,%r14d
    a829:	48 8b 05 d0 ef 00 00 	mov    0xefd0(%rip),%rax        # 19800 <g_762>
    a830:	0f b7 00             	movzwl (%rax),%eax
    a833:	44 0f bf e0          	movswl %ax,%r12d
    a837:	48 8b 05 72 f1 00 00 	mov    0xf172(%rip),%rax        # 199b0 <g_1029>
    a83e:	c7 00 01 00 00 00    	movl   $0x1,(%rax)
    a844:	8b 00                	mov    (%rax),%eax
    a846:	8b 95 08 ec ff ff    	mov    -0x13f8(%rbp),%edx
    a84c:	89 d6                	mov    %edx,%esi
    a84e:	89 c7                	mov    %eax,%edi
    a850:	e8 b0 dd ff ff       	callq  8605 <safe_sub_func_int32_t_s_s>
    a855:	98                   	cwtl   
    a856:	44 89 e6             	mov    %r12d,%esi
    a859:	89 c7                	mov    %eax,%edi
    a85b:	e8 b6 db ff ff       	callq  8416 <safe_mod_func_int16_t_s_s>
    a860:	be ff ff 00 00       	mov    $0xffff,%esi
    a865:	bf 00 00 00 00       	mov    $0x0,%edi
    a86a:	e8 b0 e4 ff ff       	callq  8d1f <safe_sub_func_uint16_t_u_u>
    a86f:	89 c2                	mov    %eax,%edx
    a871:	48 8b 05 e0 f2 00 00 	mov    0xf2e0(%rip),%rax        # 19b58 <g_1805>
    a878:	48 8b 00             	mov    (%rax),%rax
    a87b:	48 8b 00             	mov    (%rax),%rax
    a87e:	0f b7 d2             	movzwl %dx,%edx
    a881:	48 89 10             	mov    %rdx,(%rax)
    a884:	48 8b 00             	mov    (%rax),%rax
    a887:	49 39 c6             	cmp    %rax,%r14
    a88a:	0f 94 c0             	sete   %al
    a88d:	0f b6 c0             	movzbl %al,%eax
    a890:	48 39 85 e0 ec ff ff 	cmp    %rax,-0x1320(%rbp)
    a897:	0f 94 c0             	sete   %al
    a89a:	0f b6 c0             	movzbl %al,%eax
    a89d:	39 85 0c ec ff ff    	cmp    %eax,-0x13f4(%rbp)
    a8a3:	0f 9e c0             	setle  %al
    a8a6:	0f b6 c0             	movzbl %al,%eax
    a8a9:	48 33 85 e0 ec ff ff 	xor    -0x1320(%rbp),%rax
    a8b0:	49 39 c5             	cmp    %rax,%r13
    a8b3:	0f 95 c0             	setne  %al
    a8b6:	0f b6 c0             	movzbl %al,%eax
    a8b9:	48 39 85 d8 ec ff ff 	cmp    %rax,-0x1328(%rbp)
    a8c0:	7e 0a                	jle    a8cc <func_1+0x1117>
    a8c2:	66 83 bd e4 eb ff ff 	cmpw   $0x0,-0x141c(%rbp)
    a8c9:	00 
    a8ca:	74 07                	je     a8d3 <func_1+0x111e>
    a8cc:	b8 01 00 00 00       	mov    $0x1,%eax
    a8d1:	eb 05                	jmp    a8d8 <func_1+0x1123>
    a8d3:	b8 00 00 00 00       	mov    $0x0,%eax
    a8d8:	44 09 f8             	or     %r15d,%eax
    a8db:	0f be c0             	movsbl %al,%eax
    a8de:	89 de                	mov    %ebx,%esi
    a8e0:	89 c7                	mov    %eax,%edi
    a8e2:	e8 4e da ff ff       	callq  8335 <safe_rshift_func_int8_t_s_s>
    a8e7:	0f b6 c0             	movzbl %al,%eax
    a8ea:	be 00 00 00 00       	mov    $0x0,%esi
    a8ef:	89 c7                	mov    %eax,%edi
    a8f1:	e8 97 e3 ff ff       	callq  8c8d <safe_rshift_func_uint8_t_u_s>
    a8f6:	0f b6 c0             	movzbl %al,%eax
    a8f9:	0b 85 0c ec ff ff    	or     -0x13f4(%rbp),%eax
    a8ff:	85 c0                	test   %eax,%eax
    a901:	0f 84 ea 0c 00 00    	je     b5f1 <func_1+0x1e3c>
    a907:	48 b8 8a 70 bb 32 f2 	movabs $0x62ff7ff232bb708a,%rax
    a90e:	7f ff 62 
    a911:	48 89 85 18 ed ff ff 	mov    %rax,-0x12e8(%rbp)
    a918:	48 8d 05 89 f0 00 00 	lea    0xf089(%rip),%rax        # 199a8 <g_978>
    a91f:	48 89 85 98 ec ff ff 	mov    %rax,-0x1368(%rbp)
    a926:	48 8d 85 98 ec ff ff 	lea    -0x1368(%rbp),%rax
    a92d:	48 89 85 20 ed ff ff 	mov    %rax,-0x12e0(%rbp)
    a934:	48 c7 85 c0 ec ff ff 	movq   $0x0,-0x1340(%rbp)
    a93b:	00 00 00 00 
    a93f:	c7 85 18 ec ff ff 00 	movl   $0x0,-0x13e8(%rbp)
    a946:	00 00 00 
    a949:	c6 85 37 ee ff ff 01 	movb   $0x1,-0x11c9(%rbp)
    a950:	c6 85 38 ee ff ff 18 	movb   $0x18,-0x11c8(%rbp)
    a957:	c6 85 39 ee ff ff 01 	movb   $0x1,-0x11c7(%rbp)
    a95e:	c6 85 3a ee ff ff 18 	movb   $0x18,-0x11c6(%rbp)
    a965:	c6 85 3b ee ff ff 01 	movb   $0x1,-0x11c5(%rbp)
    a96c:	c6 85 3c ee ff ff 18 	movb   $0x18,-0x11c4(%rbp)
    a973:	c6 85 3d ee ff ff 01 	movb   $0x1,-0x11c3(%rbp)
    a97a:	c6 85 3e ee ff ff 18 	movb   $0x18,-0x11c2(%rbp)
    a981:	c6 85 3f ee ff ff 01 	movb   $0x1,-0x11c1(%rbp)
    a988:	c7 85 1c ec ff ff 2f 	movl   $0x678aa32f,-0x13e4(%rbp)
    a98f:	a3 8a 67 
    a992:	c7 85 20 ec ff ff a8 	movl   $0x9eaacea8,-0x13e0(%rbp)
    a999:	ce aa 9e 
    a99c:	48 c7 85 28 ed ff ff 	movq   $0xfffffffffffffffb,-0x12d8(%rbp)
    a9a3:	fb ff ff ff 
    a9a7:	c7 85 24 ec ff ff 39 	movl   $0x1da36639,-0x13dc(%rbp)
    a9ae:	66 a3 1d 
    a9b1:	c7 85 28 ec ff ff 00 	movl   $0x0,-0x13d8(%rbp)
    a9b8:	00 00 00 
    a9bb:	48 8d 05 32 c8 00 00 	lea    0xc832(%rip),%rax        # 171f4 <g_859+0x14>
    a9c2:	48 89 85 30 ed ff ff 	mov    %rax,-0x12d0(%rbp)
    a9c9:	c7 85 2c ec ff ff e5 	movl   $0x5687efe5,-0x13d4(%rbp)
    a9d0:	ef 87 56 
    a9d3:	c7 85 30 ec ff ff 70 	movl   $0x32566770,-0x13d0(%rbp)
    a9da:	67 56 32 
    a9dd:	c7 85 34 ec ff ff 01 	movl   $0x1,-0x13cc(%rbp)
    a9e4:	00 00 00 
    a9e7:	48 8d 05 ea f0 00 00 	lea    0xf0ea(%rip),%rax        # 19ad8 <g_1234>
    a9ee:	48 89 85 38 ed ff ff 	mov    %rax,-0x12c8(%rbp)
    a9f5:	48 8d 05 30 c9 00 00 	lea    0xc930(%rip),%rax        # 1732c <g_2651>
    a9fc:	48 89 85 40 ed ff ff 	mov    %rax,-0x12c0(%rbp)
    aa03:	c7 85 f4 eb ff ff 00 	movl   $0x0,-0x140c(%rbp)
    aa0a:	00 00 00 
    aa0d:	66 c7 85 ec eb ff ff 	movw   $0xfffc,-0x1414(%rbp)
    aa14:	fc ff 
    aa16:	48 8d 85 90 ec ff ff 	lea    -0x1370(%rbp),%rax
    aa1d:	48 89 85 b0 ee ff ff 	mov    %rax,-0x1150(%rbp)
    aa24:	48 8d 85 90 ec ff ff 	lea    -0x1370(%rbp),%rax
    aa2b:	48 89 85 b8 ee ff ff 	mov    %rax,-0x1148(%rbp)
    aa32:	48 c7 85 c0 ee ff ff 	movq   $0x0,-0x1140(%rbp)
    aa39:	00 00 00 00 
    aa3d:	48 8d 85 90 ec ff ff 	lea    -0x1370(%rbp),%rax
    aa44:	48 89 85 c8 ee ff ff 	mov    %rax,-0x1138(%rbp)
    aa4b:	48 c7 85 d0 ee ff ff 	movq   $0x0,-0x1130(%rbp)
    aa52:	00 00 00 00 
    aa56:	48 c7 85 d8 ee ff ff 	movq   $0x0,-0x1128(%rbp)
    aa5d:	00 00 00 00 
    aa61:	48 8d 85 90 ec ff ff 	lea    -0x1370(%rbp),%rax
    aa68:	48 89 85 e0 ee ff ff 	mov    %rax,-0x1120(%rbp)
    aa6f:	48 8d 85 f4 eb ff ff 	lea    -0x140c(%rbp),%rax
    aa76:	48 89 85 48 ed ff ff 	mov    %rax,-0x12b8(%rbp)
    aa7d:	c7 85 38 ec ff ff 81 	movl   $0x6c8b9881,-0x13c8(%rbp)
    aa84:	98 8b 6c 
    aa87:	48 b8 18 86 b0 73 69 	movabs $0x3f5de6973b08618,%rax
    aa8e:	de f5 03 
    aa91:	48 89 85 50 ed ff ff 	mov    %rax,-0x12b0(%rbp)
    aa98:	48 b8 b2 41 96 88 c0 	movabs $0x91f2d1c0889641b2,%rax
    aa9f:	d1 f2 91 
    aaa2:	48 89 85 58 ed ff ff 	mov    %rax,-0x12a8(%rbp)
    aaa9:	66 c7 85 ee eb ff ff 	movw   $0xffff,-0x1412(%rbp)
    aab0:	ff ff 
    aab2:	48 8d 05 47 ed 00 00 	lea    0xed47(%rip),%rax        # 19800 <g_762>
    aab9:	48 89 85 10 f0 ff ff 	mov    %rax,-0xff0(%rbp)
    aac0:	48 8d 05 39 ed 00 00 	lea    0xed39(%rip),%rax        # 19800 <g_762>
    aac7:	48 89 85 18 f0 ff ff 	mov    %rax,-0xfe8(%rbp)
    aace:	48 8d 05 2b ed 00 00 	lea    0xed2b(%rip),%rax        # 19800 <g_762>
    aad5:	48 89 85 20 f0 ff ff 	mov    %rax,-0xfe0(%rbp)
    aadc:	48 8d 05 1d ed 00 00 	lea    0xed1d(%rip),%rax        # 19800 <g_762>
    aae3:	48 89 85 28 f0 ff ff 	mov    %rax,-0xfd8(%rbp)
    aaea:	48 8d 05 0f ed 00 00 	lea    0xed0f(%rip),%rax        # 19800 <g_762>
    aaf1:	48 89 85 30 f0 ff ff 	mov    %rax,-0xfd0(%rbp)
    aaf8:	48 8d 05 01 ed 00 00 	lea    0xed01(%rip),%rax        # 19800 <g_762>
    aaff:	48 89 85 38 f0 ff ff 	mov    %rax,-0xfc8(%rbp)
    ab06:	48 8d 05 f3 ec 00 00 	lea    0xecf3(%rip),%rax        # 19800 <g_762>
    ab0d:	48 89 85 40 f0 ff ff 	mov    %rax,-0xfc0(%rbp)
    ab14:	48 8d 05 e5 ec 00 00 	lea    0xece5(%rip),%rax        # 19800 <g_762>
    ab1b:	48 89 85 48 f0 ff ff 	mov    %rax,-0xfb8(%rbp)
    ab22:	48 8d 05 d7 ec 00 00 	lea    0xecd7(%rip),%rax        # 19800 <g_762>
    ab29:	48 89 85 50 f0 ff ff 	mov    %rax,-0xfb0(%rbp)
    ab30:	48 8d 05 c9 ec 00 00 	lea    0xecc9(%rip),%rax        # 19800 <g_762>
    ab37:	48 89 85 58 f0 ff ff 	mov    %rax,-0xfa8(%rbp)
    ab3e:	48 8d 85 10 f0 ff ff 	lea    -0xff0(%rbp),%rax
    ab45:	48 83 c0 38          	add    $0x38,%rax
    ab49:	48 89 85 60 ed ff ff 	mov    %rax,-0x12a0(%rbp)
    ab50:	48 c7 85 68 ed ff ff 	movq   $0x1,-0x1298(%rbp)
    ab57:	01 00 00 00 
    ab5b:	c7 85 3c ec ff ff a1 	movl   $0xc71dda1,-0x13c4(%rbp)
    ab62:	dd 71 0c 
    ab65:	66 c7 05 fa c6 00 00 	movw   $0x1c,0xc6fa(%rip)        # 17268 <g_2101>
    ab6c:	1c 00 
    ab6e:	90                   	nop
    ab6f:	0f b7 05 f2 c6 00 00 	movzwl 0xc6f2(%rip),%eax        # 17268 <g_2101>
    ab76:	66 83 f8 17          	cmp    $0x17,%ax
    ab7a:	0f 85 1c 01 00 00    	jne    ac9c <func_1+0x14e7>
    ab80:	66 c7 85 f0 eb ff ff 	movw   $0x5,-0x1410(%rbp)
    ab87:	05 00 
    ab89:	48 8b 85 18 ed ff ff 	mov    -0x12e8(%rbp),%rax
    ab90:	89 c3                	mov    %eax,%ebx
    ab92:	48 83 bd 20 ed ff ff 	cmpq   $0x0,-0x12e0(%rbp)
    ab99:	00 
    ab9a:	0f 95 c0             	setne  %al
    ab9d:	0f b6 d0             	movzbl %al,%edx
    aba0:	48 8b 05 b1 ef 00 00 	mov    0xefb1(%rip),%rax        # 19b58 <g_1805>
    aba7:	48 8b 00             	mov    (%rax),%rax
    abaa:	48 8b 00             	mov    (%rax),%rax
    abad:	48 8b 00             	mov    (%rax),%rax
    abb0:	48 89 d6             	mov    %rdx,%rsi
    abb3:	48 89 c7             	mov    %rax,%rdi
    abb6:	e8 86 dc ff ff       	callq  8841 <safe_add_func_int64_t_s_s>
    abbb:	89 de                	mov    %ebx,%esi
    abbd:	89 c7                	mov    %eax,%edi
    abbf:	e8 08 db ff ff       	callq  86cc <safe_mod_func_int32_t_s_s>
    abc4:	48 8b 05 25 ec 00 00 	mov    0xec25(%rip),%rax        # 197f0 <g_651>
    abcb:	48 8b 00             	mov    (%rax),%rax
    abce:	0f b7 00             	movzwl (%rax),%eax
    abd1:	0f bf d8             	movswl %ax,%ebx
    abd4:	66 83 bd e6 eb ff ff 	cmpw   $0xfffc,-0x141a(%rbp)
    abdb:	fc 
    abdc:	0f 9c c0             	setl   %al
    abdf:	0f b6 c0             	movzbl %al,%eax
    abe2:	be d2 00 00 00       	mov    $0xd2,%esi
    abe7:	89 c7                	mov    %eax,%edi
    abe9:	e8 ed df ff ff       	callq  8bdb <safe_div_func_uint8_t_u_u>
    abee:	0f be c0             	movsbl %al,%eax
    abf1:	89 c6                	mov    %eax,%esi
    abf3:	bf 20 00 00 00       	mov    $0x20,%edi
    abf8:	e8 d7 d5 ff ff       	callq  81d4 <safe_add_func_int8_t_s_s>
    abfd:	8b 85 0c ec ff ff    	mov    -0x13f4(%rbp),%eax
    ac03:	89 c2                	mov    %eax,%edx
    ac05:	0f b7 85 f0 eb ff ff 	movzwl -0x1410(%rbp),%eax
    ac0c:	09 d0                	or     %edx,%eax
    ac0e:	98                   	cwtl   
    ac0f:	89 de                	mov    %ebx,%esi
    ac11:	89 c7                	mov    %eax,%edi
    ac13:	e8 9b d7 ff ff       	callq  83b3 <safe_add_func_int16_t_s_s>
    ac18:	66 85 c0             	test   %ax,%ax
    ac1b:	75 0a                	jne    ac27 <func_1+0x1472>
    ac1d:	66 83 bd f0 eb ff ff 	cmpw   $0x0,-0x1410(%rbp)
    ac24:	00 
    ac25:	74 07                	je     ac2e <func_1+0x1479>
    ac27:	b8 01 00 00 00       	mov    $0x1,%eax
    ac2c:	eb 05                	jmp    ac33 <func_1+0x147e>
    ac2e:	b8 00 00 00 00       	mov    $0x0,%eax
    ac33:	48 98                	cltq   
    ac35:	48 89 85 c0 f0 ff ff 	mov    %rax,-0xf40(%rbp)
    ac3c:	48 8b 85 c0 f0 ff ff 	mov    -0xf40(%rbp),%rax
    ac43:	48 85 c0             	test   %rax,%rax
    ac46:	74 0f                	je     ac57 <func_1+0x14a2>
    ac48:	0f b7 85 ae f5 ff ff 	movzwl -0xa52(%rbp),%eax
    ac4f:	0f b7 c0             	movzwl %ax,%eax
    ac52:	e9 7a 0a 00 00       	jmpq   b6d1 <func_1+0x1f1c>
    ac57:	66 c7 85 f2 eb ff ff 	movw   $0x5185,-0x140e(%rbp)
    ac5e:	85 51 
    ac60:	0f b7 95 f0 eb ff ff 	movzwl -0x1410(%rbp),%edx
    ac67:	0f bf 85 ea eb ff ff 	movswl -0x1416(%rbp),%eax
    ac6e:	39 c2                	cmp    %eax,%edx
    ac70:	0f 9c c0             	setl   %al
    ac73:	0f b6 c0             	movzbl %al,%eax
    ac76:	48 09 85 c0 ec ff ff 	or     %rax,-0x1340(%rbp)
    ac7d:	48 8b 05 ec f0 00 00 	mov    0xf0ec(%rip),%rax        # 19d70 <g_2212>
    ac84:	48 8b 00             	mov    (%rax),%rax
    ac87:	48 8b 95 c0 ec ff ff 	mov    -0x1340(%rbp),%rdx
    ac8e:	89 10                	mov    %edx,(%rax)
    ac90:	0f b7 85 f2 eb ff ff 	movzwl -0x140e(%rbp),%eax
    ac97:	e9 35 0a 00 00       	jmpq   b6d1 <func_1+0x1f1c>
    ac9c:	66 c7 05 0b c5 00 00 	movw   $0x0,0xc50b(%rip)        # 171b0 <g_616>
    aca3:	00 00 
    aca5:	e9 27 07 00 00       	jmpq   b3d1 <func_1+0x1c1c>
    acaa:	48 8d 05 97 c4 00 00 	lea    0xc497(%rip),%rax        # 17148 <g_283>
    acb1:	48 89 85 a0 ec ff ff 	mov    %rax,-0x1360(%rbp)
    acb8:	c7 85 5c ec ff ff da 	movl   $0x981355da,-0x13a4(%rbp)
    acbf:	55 13 98 
    acc2:	c7 85 60 ec ff ff ff 	movl   $0xffffffff,-0x13a0(%rbp)
    acc9:	ff ff ff 
    accc:	48 8d 85 30 f6 ff ff 	lea    -0x9d0(%rbp),%rax
    acd3:	48 8d 15 86 86 00 00 	lea    0x8686(%rip),%rdx        # 13360 <g_2689+0x2fc>
    acda:	b9 7e 00 00 00       	mov    $0x7e,%ecx
    acdf:	48 89 c7             	mov    %rax,%rdi
    ace2:	48 89 d6             	mov    %rdx,%rsi
    ace5:	f3 48 a5             	rep movsq %ds:(%rsi),%es:(%rdi)
    ace8:	c6 05 af c4 00 00 00 	movb   $0x0,0xc4af(%rip)        # 1719e <g_556>
    acef:	e9 7c 04 00 00       	jmpq   b170 <func_1+0x19bb>
    acf4:	c7 85 64 ec ff ff 00 	movl   $0x0,-0x139c(%rbp)
    acfb:	00 00 00 
    acfe:	48 c7 85 c8 ec ff ff 	movq   $0x1,-0x1338(%rbp)
    ad05:	01 00 00 00 
    ad09:	c6 85 e3 eb ff ff 4f 	movb   $0x4f,-0x141d(%rbp)
    ad10:	c7 85 68 ec ff ff 76 	movl   $0xadcfec76,-0x1398(%rbp)
    ad17:	ec cf ad 
    ad1a:	c7 85 6c ec ff ff 19 	movl   $0xfe298319,-0x1394(%rbp)
    ad21:	83 29 fe 
    ad24:	48 8d 85 80 f1 ff ff 	lea    -0xe80(%rbp),%rax
    ad2b:	48 8d 15 2e 8a 00 00 	lea    0x8a2e(%rip),%rdx        # 13760 <g_2689+0x6fc>
    ad32:	b9 2d 00 00 00       	mov    $0x2d,%ecx
    ad37:	48 89 c7             	mov    %rax,%rdi
    ad3a:	48 89 d6             	mov    %rdx,%rsi
    ad3d:	f3 48 a5             	rep movsq %ds:(%rsi),%es:(%rdi)
    ad40:	48 c7 85 b8 ed ff ff 	movq   $0xfffffffffffffffa,-0x1248(%rbp)
    ad47:	fa ff ff ff 
    ad4b:	c7 85 f8 eb ff ff 00 	movl   $0x0,-0x1408(%rbp)
    ad52:	00 00 00 
    ad55:	eb 1b                	jmp    ad72 <func_1+0x15bd>
    ad57:	8b 85 f8 eb ff ff    	mov    -0x1408(%rbp),%eax
    ad5d:	48 98                	cltq   
    ad5f:	48 c7 84 c5 f0 ee ff 	movq   $0x0,-0x1110(%rbp,%rax,8)
    ad66:	ff 00 00 00 00 
    ad6b:	83 85 f8 eb ff ff 01 	addl   $0x1,-0x1408(%rbp)
    ad72:	83 bd f8 eb ff ff 06 	cmpl   $0x6,-0x1408(%rbp)
    ad79:	7e dc                	jle    ad57 <func_1+0x15a2>
    ad7b:	c7 85 f8 eb ff ff 00 	movl   $0x0,-0x1408(%rbp)
    ad82:	00 00 00 
    ad85:	eb 1b                	jmp    ada2 <func_1+0x15ed>
    ad87:	8b 85 f8 eb ff ff    	mov    -0x1408(%rbp),%eax
    ad8d:	48 98                	cltq   
    ad8f:	48 c7 84 c5 60 ee ff 	movq   $0x0,-0x11a0(%rbp,%rax,8)
    ad96:	ff 00 00 00 00 
    ad9b:	83 85 f8 eb ff ff 01 	addl   $0x1,-0x1408(%rbp)
    ada2:	83 bd f8 eb ff ff 02 	cmpl   $0x2,-0x1408(%rbp)
    ada9:	7e dc                	jle    ad87 <func_1+0x15d2>
    adab:	48 8b 05 46 f7 00 00 	mov    0xf746(%rip),%rax        # 1a4f8 <g_2433+0x18>
    adb2:	48 8b 05 57 f7 00 00 	mov    0xf757(%rip),%rax        # 1a510 <g_2434>
    adb9:	48 89 05 50 f7 00 00 	mov    %rax,0xf750(%rip)        # 1a510 <g_2434>
    adc0:	0f b6 05 d7 c3 00 00 	movzbl 0xc3d7(%rip),%eax        # 1719e <g_556>
    adc7:	0f be c0             	movsbl %al,%eax
    adca:	48 98                	cltq   
    adcc:	48 8d 14 85 00 00 00 	lea    0x0(,%rax,4),%rdx
    add3:	00 
    add4:	48 8d 05 85 c2 00 00 	lea    0xc285(%rip),%rax        # 17060 <g_29>
    addb:	8b 04 02             	mov    (%rdx,%rax,1),%eax
    adde:	3d 9a 46 00 00       	cmp    $0x469a,%eax
    ade3:	0f 84 2e 01 00 00    	je     af17 <func_1+0x1762>
    ade9:	48 8d 05 14 c4 00 00 	lea    0xc414(%rip),%rax        # 17204 <g_1416>
    adf0:	48 89 85 b0 ec ff ff 	mov    %rax,-0x1350(%rbp)
    adf7:	48 8d 85 b0 ec ff ff 	lea    -0x1350(%rbp),%rax
    adfe:	48 89 85 b8 ec ff ff 	mov    %rax,-0x1348(%rbp)
    ae05:	48 8d 85 b8 ec ff ff 	lea    -0x1348(%rbp),%rax
    ae0c:	48 89 85 e0 ed ff ff 	mov    %rax,-0x1220(%rbp)
    ae13:	0f b6 05 84 c3 00 00 	movzbl 0xc384(%rip),%eax        # 1719e <g_556>
    ae1a:	0f be c0             	movsbl %al,%eax
    ae1d:	48 98                	cltq   
    ae1f:	48 8d 14 85 00 00 00 	lea    0x0(,%rax,4),%rdx
    ae26:	00 
    ae27:	48 8d 05 32 c2 00 00 	lea    0xc232(%rip),%rax        # 17060 <g_29>
    ae2e:	8b 04 02             	mov    (%rdx,%rax,1),%eax
    ae31:	85 c0                	test   %eax,%eax
    ae33:	0f 85 48 03 00 00    	jne    b181 <func_1+0x19cc>
    ae39:	48 c7 05 ac c2 00 00 	movq   $0xffffffffffffffec,0xc2ac(%rip)        # 170f0 <g_74>
    ae40:	ec ff ff ff 
    ae44:	e9 b8 00 00 00       	jmpq   af01 <func_1+0x174c>
    ae49:	48 c7 85 e8 ed ff ff 	movq   $0x0,-0x1218(%rbp)
    ae50:	00 00 00 00 
    ae54:	48 8d 85 a0 ec ff ff 	lea    -0x1360(%rbp),%rax
    ae5b:	48 89 85 f0 ed ff ff 	mov    %rax,-0x1210(%rbp)
    ae62:	48 8d 05 ef c3 00 00 	lea    0xc3ef(%rip),%rax        # 17258 <g_1943>
    ae69:	48 89 85 f8 ed ff ff 	mov    %rax,-0x1208(%rbp)
    ae70:	48 8b 95 a0 ec ff ff 	mov    -0x1360(%rbp),%rdx
    ae77:	48 8b 85 f0 ed ff ff 	mov    -0x1210(%rbp),%rax
    ae7e:	48 89 10             	mov    %rdx,(%rax)
    ae81:	48 8b 05 60 e9 00 00 	mov    0xe960(%rip),%rax        # 197e8 <g_652>
    ae88:	0f b7 00             	movzwl (%rax),%eax
    ae8b:	98                   	cwtl   
    ae8c:	be f6 ff ff ff       	mov    $0xfffffff6,%esi
    ae91:	89 c7                	mov    %eax,%edi
    ae93:	e8 1b d5 ff ff       	callq  83b3 <safe_add_func_int16_t_s_s>
    ae98:	66 85 c0             	test   %ax,%ax
    ae9b:	75 09                	jne    aea6 <func_1+0x16f1>
    ae9d:	83 bd 08 ec ff ff 00 	cmpl   $0x0,-0x13f8(%rbp)
    aea4:	74 07                	je     aead <func_1+0x16f8>
    aea6:	ba 01 00 00 00       	mov    $0x1,%edx
    aeab:	eb 05                	jmp    aeb2 <func_1+0x16fd>
    aead:	ba 00 00 00 00       	mov    $0x0,%edx
    aeb2:	48 8b 05 47 e9 00 00 	mov    0xe947(%rip),%rax        # 19800 <g_762>
    aeb9:	0f b7 00             	movzwl (%rax),%eax
    aebc:	0f b7 c0             	movzwl %ax,%eax
    aebf:	31 d0                	xor    %edx,%eax
    aec1:	48 63 d0             	movslq %eax,%rdx
    aec4:	48 8b 85 f8 ed ff ff 	mov    -0x1208(%rbp),%rax
    aecb:	48 89 10             	mov    %rdx,(%rax)
    aece:	48 83 bd e0 ed ff ff 	cmpq   $0x0,-0x1220(%rbp)
    aed5:	00 
    aed6:	0f 94 c2             	sete   %dl
    aed9:	48 8b 05 98 e5 00 00 	mov    0xe598(%rip),%rax        # 19478 <g_105>
    aee0:	0f b6 d2             	movzbl %dl,%edx
    aee3:	89 10                	mov    %edx,(%rax)
    aee5:	48 8b 05 04 c2 00 00 	mov    0xc204(%rip),%rax        # 170f0 <g_74>
    aeec:	be 04 00 00 00       	mov    $0x4,%esi
    aef1:	89 c7                	mov    %eax,%edi
    aef3:	e8 be d6 ff ff       	callq  85b6 <safe_add_func_int32_t_s_s>
    aef8:	48 98                	cltq   
    aefa:	48 89 05 ef c1 00 00 	mov    %rax,0xc1ef(%rip)        # 170f0 <g_74>
    af01:	48 8b 05 e8 c1 00 00 	mov    0xc1e8(%rip),%rax        # 170f0 <g_74>
    af08:	48 83 f8 21          	cmp    $0x21,%rax
    af0c:	0f 87 37 ff ff ff    	ja     ae49 <func_1+0x1694>
    af12:	e9 db 00 00 00       	jmpq   aff2 <func_1+0x183d>
    af17:	48 8d 05 d2 e8 00 00 	lea    0xe8d2(%rip),%rax        # 197f0 <g_651>
    af1e:	48 89 85 c0 ed ff ff 	mov    %rax,-0x1240(%rbp)
    af25:	48 c7 85 c8 ed ff ff 	movq   $0x0,-0x1238(%rbp)
    af2c:	00 00 00 00 
    af30:	48 8d 05 b9 e8 00 00 	lea    0xe8b9(%rip),%rax        # 197f0 <g_651>
    af37:	48 89 85 a8 ec ff ff 	mov    %rax,-0x1358(%rbp)
    af3e:	48 8d 85 a8 ec ff ff 	lea    -0x1358(%rbp),%rax
    af45:	48 89 85 d0 ed ff ff 	mov    %rax,-0x1230(%rbp)
    af4c:	48 8b 85 d0 ed ff ff 	mov    -0x1230(%rbp),%rax
    af53:	48 8b 95 c0 ed ff ff 	mov    -0x1240(%rbp),%rdx
    af5a:	48 89 10             	mov    %rdx,(%rax)
    af5d:	0f b7 05 04 c3 00 00 	movzwl 0xc304(%rip),%eax        # 17268 <g_2101>
    af64:	66 85 c0             	test   %ax,%ax
    af67:	74 05                	je     af6e <func_1+0x17b9>
    af69:	e9 f7 fb ff ff       	jmpq   ab65 <func_1+0x13b0>
    af6e:	c6 05 e5 c1 00 00 00 	movb   $0x0,0xc1e5(%rip)        # 1715a <g_396>
    af75:	eb 68                	jmp    afdf <func_1+0x182a>
    af77:	48 8d 05 fa e4 00 00 	lea    0xe4fa(%rip),%rax        # 19478 <g_105>
    af7e:	48 89 85 b0 ec ff ff 	mov    %rax,-0x1350(%rbp)
    af85:	48 8d 85 b0 ec ff ff 	lea    -0x1350(%rbp),%rax
    af8c:	48 89 85 b8 ec ff ff 	mov    %rax,-0x1348(%rbp)
    af93:	48 8d 85 b8 ec ff ff 	lea    -0x1348(%rbp),%rax
    af9a:	48 89 85 d8 ed ff ff 	mov    %rax,-0x1228(%rbp)
    afa1:	48 8b 05 a0 eb 00 00 	mov    0xeba0(%rip),%rax        # 19b48 <g_1756>
    afa8:	48 8b 00             	mov    (%rax),%rax
    afab:	48 89 85 90 ee ff ff 	mov    %rax,-0x1170(%rbp)
    afb2:	48 8b 95 b8 ec ff ff 	mov    -0x1348(%rbp),%rdx
    afb9:	48 8b 85 d8 ed ff ff 	mov    -0x1228(%rbp),%rax
    afc0:	48 89 10             	mov    %rdx,(%rax)
    afc3:	0f b6 05 90 c1 00 00 	movzbl 0xc190(%rip),%eax        # 1715a <g_396>
    afca:	0f be c0             	movsbl %al,%eax
    afcd:	be 01 00 00 00       	mov    $0x1,%esi
    afd2:	89 c7                	mov    %eax,%edi
    afd4:	e8 f7 de ff ff       	callq  8ed0 <safe_sub_func_uint32_t_u_u>
    afd9:	88 05 7b c1 00 00    	mov    %al,0xc17b(%rip)        # 1715a <g_396>
    afdf:	0f b6 05 74 c1 00 00 	movzbl 0xc174(%rip),%eax        # 1715a <g_396>
    afe6:	3c e7                	cmp    $0xe7,%al
    afe8:	75 8d                	jne    af77 <func_1+0x17c2>
    afea:	48 83 ad c8 ec ff ff 	subq   $0x1,-0x1338(%rbp)
    aff1:	01 
    aff2:	0f b7 05 9f c1 00 00 	movzwl 0xc19f(%rip),%eax        # 17198 <g_549>
    aff9:	0f bf d8             	movswl %ax,%ebx
    affc:	48 8b 85 a0 ec ff ff 	mov    -0x1360(%rbp),%rax
    b003:	8b 00                	mov    (%rax),%eax
    b005:	4c 63 e8             	movslq %eax,%r13
    b008:	48 8b 05 69 e4 00 00 	mov    0xe469(%rip),%rax        # 19478 <g_105>
    b00f:	44 8b 20             	mov    (%rax),%r12d
    b012:	be ff ff ff ff       	mov    $0xffffffff,%esi
    b017:	bf 00 00 00 00       	mov    $0x0,%edi
    b01c:	e8 04 df ff ff       	callq  8f25 <safe_div_func_uint32_t_u_u>
    b021:	0f b6 c0             	movzbl %al,%eax
    b024:	8b 95 64 ec ff ff    	mov    -0x139c(%rbp),%edx
    b02a:	89 d6                	mov    %edx,%esi
    b02c:	89 c7                	mov    %eax,%edi
    b02e:	e8 d2 db ff ff       	callq  8c05 <safe_lshift_func_uint8_t_u_s>
    b033:	48 8b 05 c6 e7 00 00 	mov    0xe7c6(%rip),%rax        # 19800 <g_762>
    b03a:	8b 95 68 ec ff ff    	mov    -0x1398(%rbp),%edx
    b040:	66 89 10             	mov    %dx,(%rax)
    b043:	0f b7 00             	movzwl (%rax),%eax
    b046:	0f b7 d0             	movzwl %ax,%edx
    b049:	48 8b 85 a0 ec ff ff 	mov    -0x1360(%rbp),%rax
    b050:	8b 00                	mov    (%rax),%eax
    b052:	31 d0                	xor    %edx,%eax
    b054:	44 89 e6             	mov    %r12d,%esi
    b057:	89 c7                	mov    %eax,%edi
    b059:	e8 a1 d6 ff ff       	callq  86ff <safe_div_func_int32_t_s_s>
    b05e:	48 98                	cltq   
    b060:	48 be 3a 3f f8 b8 ae 	movabs $0x4b34d7aeb8f83f3a,%rsi
    b067:	d7 34 4b 
    b06a:	48 89 c7             	mov    %rax,%rdi
    b06d:	e8 42 d9 ff ff       	callq  89b4 <safe_mod_func_int64_t_s_s>
    b072:	49 39 c5             	cmp    %rax,%r13
    b075:	0f 9f c0             	setg   %al
    b078:	0f b6 c0             	movzbl %al,%eax
    b07b:	8b 95 18 ec ff ff    	mov    -0x13e8(%rbp),%edx
    b081:	89 d6                	mov    %edx,%esi
    b083:	89 c7                	mov    %eax,%edi
    b085:	e8 7b db ff ff       	callq  8c05 <safe_lshift_func_uint8_t_u_s>
    b08a:	0f b6 c0             	movzbl %al,%eax
    b08d:	be fe ff ff ff       	mov    $0xfffffffe,%esi
    b092:	89 c7                	mov    %eax,%edi
    b094:	e8 bc d3 ff ff       	callq  8455 <safe_div_func_int16_t_s_s>
    b099:	98                   	cwtl   
    b09a:	89 de                	mov    %ebx,%esi
    b09c:	89 c7                	mov    %eax,%edi
    b09e:	e8 3e d4 ff ff       	callq  84e1 <safe_lshift_func_int16_t_s_u>
    b0a3:	48 8b 85 a0 ec ff ff 	mov    -0x1360(%rbp),%rax
    b0aa:	8b 00                	mov    (%rax),%eax
    b0ac:	39 85 64 ec ff ff    	cmp    %eax,-0x139c(%rbp)
    b0b2:	0f 9c c0             	setl   %al
    b0b5:	0f b6 c0             	movzbl %al,%eax
    b0b8:	48 39 85 c8 ec ff ff 	cmp    %rax,-0x1338(%rbp)
    b0bf:	0f 97 c0             	seta   %al
    b0c2:	0f b6 c0             	movzbl %al,%eax
    b0c5:	be 03 00 00 00       	mov    $0x3,%esi
    b0ca:	89 c7                	mov    %eax,%edi
    b0cc:	e8 59 d4 ff ff       	callq  852a <safe_rshift_func_int16_t_s_s>
    b0d1:	0f b7 c0             	movzwl %ax,%eax
    b0d4:	be 02 00 00 00       	mov    $0x2,%esi
    b0d9:	89 c7                	mov    %eax,%edi
    b0db:	e8 de dc ff ff       	callq  8dbe <safe_lshift_func_uint16_t_u_s>
    b0e0:	0f b7 c0             	movzwl %ax,%eax
    b0e3:	48 39 85 c8 ec ff ff 	cmp    %rax,-0x1338(%rbp)
    b0ea:	0f 97 c0             	seta   %al
    b0ed:	88 05 67 c0 00 00    	mov    %al,0xc067(%rip)        # 1715a <g_396>
    b0f3:	0f b6 05 60 c0 00 00 	movzbl 0xc060(%rip),%eax        # 1715a <g_396>
    b0fa:	0f be d0             	movsbl %al,%edx
    b0fd:	48 8b 85 a0 ec ff ff 	mov    -0x1360(%rbp),%rax
    b104:	8b 00                	mov    (%rax),%eax
    b106:	39 c2                	cmp    %eax,%edx
    b108:	0f 9c c2             	setl   %dl
    b10b:	48 8b 05 66 e3 00 00 	mov    0xe366(%rip),%rax        # 19478 <g_105>
    b112:	0f b6 d2             	movzbl %dl,%edx
    b115:	89 10                	mov    %edx,(%rax)
    b117:	8b 00                	mov    (%rax),%eax
    b119:	85 c0                	test   %eax,%eax
    b11b:	74 20                	je     b13d <func_1+0x1988>
    b11d:	48 8b 05 54 e3 00 00 	mov    0xe354(%rip),%rax        # 19478 <g_105>
    b124:	8b 08                	mov    (%rax),%ecx
    b126:	0f b7 85 82 f1 ff ff 	movzwl -0xe7e(%rbp),%eax
    b12d:	0f bf d0             	movswl %ax,%edx
    b130:	48 8b 05 41 e3 00 00 	mov    0xe341(%rip),%rax        # 19478 <g_105>
    b137:	21 ca                	and    %ecx,%edx
    b139:	89 10                	mov    %edx,(%rax)
    b13b:	eb 23                	jmp    b160 <func_1+0x19ab>
    b13d:	48 c7 85 00 ee ff ff 	movq   $0x1,-0x1200(%rbp)
    b144:	01 00 00 00 
    b148:	48 8b 05 29 ea 00 00 	mov    0xea29(%rip),%rax        # 19b78 <g_2062>
    b14f:	48 8b 00             	mov    (%rax),%rax
    b152:	8b 00                	mov    (%rax),%eax
    b154:	85 c0                	test   %eax,%eax
    b156:	75 2c                	jne    b184 <func_1+0x19cf>
    b158:	48 83 85 b8 ed ff ff 	addq   $0x1,-0x1248(%rbp)
    b15f:	01 
    b160:	0f b6 05 37 c0 00 00 	movzbl 0xc037(%rip),%eax        # 1719e <g_556>
    b167:	83 c0 01             	add    $0x1,%eax
    b16a:	88 05 2e c0 00 00    	mov    %al,0xc02e(%rip)        # 1719e <g_556>
    b170:	0f b6 05 27 c0 00 00 	movzbl 0xc027(%rip),%eax        # 1719e <g_556>
    b177:	3c 09                	cmp    $0x9,%al
    b179:	0f 8e 75 fb ff ff    	jle    acf4 <func_1+0x153f>
    b17f:	eb 04                	jmp    b185 <func_1+0x19d0>
    b181:	90                   	nop
    b182:	eb 01                	jmp    b185 <func_1+0x19d0>
    b184:	90                   	nop
    b185:	48 8b 85 c0 ec ff ff 	mov    -0x1340(%rbp),%rax
    b18c:	0f b6 d8             	movzbl %al,%ebx
    b18f:	48 8b 85 18 ed ff ff 	mov    -0x12e8(%rbp),%rax
    b196:	41 89 c5             	mov    %eax,%r13d
    b199:	48 8b 85 a0 ec ff ff 	mov    -0x1360(%rbp),%rax
    b1a0:	8b 00                	mov    (%rax),%eax
    b1a2:	4c 63 e0             	movslq %eax,%r12
    b1a5:	8b 95 18 ec ff ff    	mov    -0x13e8(%rbp),%edx
    b1ab:	48 8b 85 a0 ec ff ff 	mov    -0x1360(%rbp),%rax
    b1b2:	8b 00                	mov    (%rax),%eax
    b1b4:	0f b6 c0             	movzbl %al,%eax
    b1b7:	89 d6                	mov    %edx,%esi
    b1b9:	89 c7                	mov    %eax,%edi
    b1bb:	e8 fe da ff ff       	callq  8cbe <safe_rshift_func_uint8_t_u_u>
    b1c0:	0f b6 c0             	movzbl %al,%eax
    b1c3:	4c 89 e6             	mov    %r12,%rsi
    b1c6:	48 89 c7             	mov    %rax,%rdi
    b1c9:	e8 b2 de ff ff       	callq  9080 <safe_mod_func_uint64_t_u_u>
    b1ce:	89 85 5c ec ff ff    	mov    %eax,-0x13a4(%rbp)
    b1d4:	48 8b 05 cd e2 00 00 	mov    0xe2cd(%rip),%rax        # 194a8 <g_154>
    b1db:	8b 00                	mov    (%rax),%eax
    b1dd:	41 89 c4             	mov    %eax,%r12d
    b1e0:	48 8b 85 a0 ec ff ff 	mov    -0x1360(%rbp),%rax
    b1e7:	8b 00                	mov    (%rax),%eax
    b1e9:	48 63 d0             	movslq %eax,%rdx
    b1ec:	48 8b 85 a0 ec ff ff 	mov    -0x1360(%rbp),%rax
    b1f3:	8b 00                	mov    (%rax),%eax
    b1f5:	48 98                	cltq   
    b1f7:	48 89 d6             	mov    %rdx,%rsi
    b1fa:	48 89 c7             	mov    %rax,%rdi
    b1fd:	e8 7e de ff ff       	callq  9080 <safe_mod_func_uint64_t_u_u>
    b202:	0f b6 c0             	movzbl %al,%eax
    b205:	be 07 00 00 00       	mov    $0x7,%esi
    b20a:	89 c7                	mov    %eax,%edi
    b20c:	e8 ad da ff ff       	callq  8cbe <safe_rshift_func_uint8_t_u_u>
    b211:	0f b6 c0             	movzbl %al,%eax
    b214:	44 89 e6             	mov    %r12d,%esi
    b217:	89 c7                	mov    %eax,%edi
    b219:	e8 e7 d3 ff ff       	callq  8605 <safe_sub_func_int32_t_s_s>
    b21e:	48 8b 95 a0 ec ff ff 	mov    -0x1360(%rbp),%rdx
    b225:	8b 12                	mov    (%rdx),%edx
    b227:	39 d0                	cmp    %edx,%eax
    b229:	74 11                	je     b23c <func_1+0x1a87>
    b22b:	48 83 bd c0 ec ff ff 	cmpq   $0x0,-0x1340(%rbp)
    b232:	00 
    b233:	74 07                	je     b23c <func_1+0x1a87>
    b235:	b8 01 00 00 00       	mov    $0x1,%eax
    b23a:	eb 05                	jmp    b241 <func_1+0x1a8c>
    b23c:	b8 00 00 00 00       	mov    $0x0,%eax
    b241:	39 85 5c ec ff ff    	cmp    %eax,-0x13a4(%rbp)
    b247:	0f 9f c2             	setg   %dl
    b24a:	48 8b 05 5f e7 00 00 	mov    0xe75f(%rip),%rax        # 199b0 <g_1029>
    b251:	0f b6 d2             	movzbl %dl,%edx
    b254:	89 10                	mov    %edx,(%rax)
    b256:	8b 00                	mov    (%rax),%eax
    b258:	48 98                	cltq   
    b25a:	48 39 85 18 ed ff ff 	cmp    %rax,-0x12e8(%rbp)
    b261:	0f 94 c0             	sete   %al
    b264:	0f b6 c0             	movzbl %al,%eax
    b267:	44 89 ee             	mov    %r13d,%esi
    b26a:	89 c7                	mov    %eax,%edi
    b26c:	e8 1c da ff ff       	callq  8c8d <safe_rshift_func_uint8_t_u_s>
    b271:	0f b6 c0             	movzbl %al,%eax
    b274:	be 01 00 00 00       	mov    $0x1,%esi
    b279:	48 89 c7             	mov    %rax,%rdi
    b27c:	e8 ca dd ff ff       	callq  904b <safe_sub_func_uint64_t_u_u>
    b281:	0f b6 c0             	movzbl %al,%eax
    b284:	8b 95 18 ec ff ff    	mov    -0x13e8(%rbp),%edx
    b28a:	89 d6                	mov    %edx,%esi
    b28c:	89 c7                	mov    %eax,%edi
    b28e:	e8 fa d9 ff ff       	callq  8c8d <safe_rshift_func_uint8_t_u_s>
    b293:	0f b6 d0             	movzbl %al,%edx
    b296:	48 8b 05 63 e5 00 00 	mov    0xe563(%rip),%rax        # 19800 <g_762>
    b29d:	0f b7 00             	movzwl (%rax),%eax
    b2a0:	0f b7 c0             	movzwl %ax,%eax
    b2a3:	09 c2                	or     %eax,%edx
    b2a5:	48 8b 05 54 e5 00 00 	mov    0xe554(%rip),%rax        # 19800 <g_762>
    b2ac:	0f b7 00             	movzwl (%rax),%eax
    b2af:	0f b7 c0             	movzwl %ax,%eax
    b2b2:	89 d6                	mov    %edx,%esi
    b2b4:	89 c7                	mov    %eax,%edi
    b2b6:	e8 03 db ff ff       	callq  8dbe <safe_lshift_func_uint16_t_u_s>
    b2bb:	8b 85 60 ec ff ff    	mov    -0x13a0(%rbp),%eax
    b2c1:	0f b6 c0             	movzbl %al,%eax
    b2c4:	89 de                	mov    %ebx,%esi
    b2c6:	89 c7                	mov    %eax,%edi
    b2c8:	e8 8d d8 ff ff       	callq  8b5a <safe_add_func_uint8_t_u_u>
    b2cd:	48 8b 05 9c ea 00 00 	mov    0xea9c(%rip),%rax        # 19d70 <g_2212>
    b2d4:	48 8b 00             	mov    (%rax),%rax
    b2d7:	8b 10                	mov    (%rax),%edx
    b2d9:	8b 85 94 f8 ff ff    	mov    -0x76c(%rbp),%eax
    b2df:	31 d0                	xor    %edx,%eax
    b2e1:	89 85 94 f8 ff ff    	mov    %eax,-0x76c(%rbp)
    b2e7:	48 8b 05 ba e6 00 00 	mov    0xe6ba(%rip),%rax        # 199a8 <g_978>
    b2ee:	48 8b 10             	mov    (%rax),%rdx
    b2f1:	48 8b 05 b0 e6 00 00 	mov    0xe6b0(%rip),%rax        # 199a8 <g_978>
    b2f8:	48 8b 00             	mov    (%rax),%rax
    b2fb:	0f b6 12             	movzbl (%rdx),%edx
    b2fe:	88 10                	mov    %dl,(%rax)
    b300:	0f b6 00             	movzbl (%rax),%eax
    b303:	0f b6 c0             	movzbl %al,%eax
    b306:	be 03 00 00 00       	mov    $0x3,%esi
    b30b:	89 c7                	mov    %eax,%edi
    b30d:	e8 f3 d8 ff ff       	callq  8c05 <safe_lshift_func_uint8_t_u_s>
    b312:	0f b6 c0             	movzbl %al,%eax
    b315:	be 04 00 00 00       	mov    $0x4,%esi
    b31a:	89 c7                	mov    %eax,%edi
    b31c:	e8 9d d9 ff ff       	callq  8cbe <safe_rshift_func_uint8_t_u_u>
    b321:	84 c0                	test   %al,%al
    b323:	74 46                	je     b36b <func_1+0x1bb6>
    b325:	be 2f 9c 7d 25       	mov    $0x257d9c2f,%esi
    b32a:	bf 01 00 00 00       	mov    $0x1,%edi
    b32f:	e8 82 d2 ff ff       	callq  85b6 <safe_add_func_int32_t_s_s>
    b334:	0f b7 c0             	movzwl %ax,%eax
    b337:	89 c6                	mov    %eax,%esi
    b339:	bf b2 d2 00 00       	mov    $0xd2b2,%edi
    b33e:	e8 fa d9 ff ff       	callq  8d3d <safe_mul_func_uint16_t_u_u>
    b343:	98                   	cwtl   
    b344:	be ca dd ff ff       	mov    $0xffffddca,%esi
    b349:	89 c7                	mov    %eax,%edi
    b34b:	e8 a5 d0 ff ff       	callq  83f5 <safe_mul_func_int16_t_s_s>
    b350:	48 8b 05 09 ea 00 00 	mov    0xea09(%rip),%rax        # 19d60 <g_2138>
    b357:	48 8b 00             	mov    (%rax),%rax
    b35a:	48 8b 00             	mov    (%rax),%rax
    b35d:	8b 00                	mov    (%rax),%eax
    b35f:	83 f8 ff             	cmp    $0xffffffff,%eax
    b362:	75 07                	jne    b36b <func_1+0x1bb6>
    b364:	b8 01 00 00 00       	mov    $0x1,%eax
    b369:	eb 05                	jmp    b370 <func_1+0x1bbb>
    b36b:	b8 00 00 00 00       	mov    $0x0,%eax
    b370:	89 c6                	mov    %eax,%esi
    b372:	bf ba 47 30 cf       	mov    $0xcf3047ba,%edi
    b377:	e8 54 db ff ff       	callq  8ed0 <safe_sub_func_uint32_t_u_u>
    b37c:	0f b6 95 3a ee ff ff 	movzbl -0x11c6(%rbp),%edx
    b383:	0f be d2             	movsbl %dl,%edx
    b386:	39 d0                	cmp    %edx,%eax
    b388:	0f 95 c0             	setne  %al
    b38b:	0f b6 c0             	movzbl %al,%eax
    b38e:	48 8b 95 18 ed ff ff 	mov    -0x12e8(%rbp),%rdx
    b395:	48 89 d6             	mov    %rdx,%rsi
    b398:	48 89 c7             	mov    %rax,%rdi
    b39b:	e8 0f dd ff ff       	callq  90af <safe_div_func_uint64_t_u_u>
    b3a0:	48 89 c2             	mov    %rax,%rdx
    b3a3:	48 8b 05 96 e7 00 00 	mov    0xe796(%rip),%rax        # 19b40 <g_1755>
    b3aa:	48 8b 00             	mov    (%rax),%rax
    b3ad:	8b 08                	mov    (%rax),%ecx
    b3af:	09 ca                	or     %ecx,%edx
    b3b1:	89 10                	mov    %edx,(%rax)
    b3b3:	0f b7 05 f6 bd 00 00 	movzwl 0xbdf6(%rip),%eax        # 171b0 <g_616>
    b3ba:	0f b7 c0             	movzwl %ax,%eax
    b3bd:	be 03 00 00 00       	mov    $0x3,%esi
    b3c2:	48 89 c7             	mov    %rax,%rdi
    b3c5:	e8 77 d4 ff ff       	callq  8841 <safe_add_func_int64_t_s_s>
    b3ca:	66 89 05 df bd 00 00 	mov    %ax,0xbddf(%rip)        # 171b0 <g_616>
    b3d1:	0f b7 05 d8 bd 00 00 	movzwl 0xbdd8(%rip),%eax        # 171b0 <g_616>
    b3d8:	66 83 f8 0f          	cmp    $0xf,%ax
    b3dc:	0f 85 c8 f8 ff ff    	jne    acaa <func_1+0x14f5>
    b3e2:	48 c7 85 c0 ec ff ff 	movq   $0x0,-0x1340(%rbp)
    b3e9:	00 00 00 00 
    b3ed:	e9 ec 01 00 00       	jmpq   b5de <func_1+0x1e29>
    b3f2:	c7 85 40 ec ff ff fe 	movl   $0xfffffffe,-0x13c0(%rbp)
    b3f9:	ff ff ff 
    b3fc:	c7 85 44 ec ff ff 71 	movl   $0x89383471,-0x13bc(%rbp)
    b403:	34 38 89 
    b406:	c6 85 df eb ff ff 00 	movb   $0x0,-0x1421(%rbp)
    b40d:	48 c7 85 70 ed ff ff 	movq   $0x0,-0x1290(%rbp)
    b414:	00 00 00 00 
    b418:	48 8d 05 3b bd 00 00 	lea    0xbd3b(%rip),%rax        # 1715a <g_396>
    b41f:	48 89 85 78 ed ff ff 	mov    %rax,-0x1288(%rbp)
    b426:	48 8d 05 23 bd 00 00 	lea    0xbd23(%rip),%rax        # 17150 <g_332>
    b42d:	48 89 85 80 ed ff ff 	mov    %rax,-0x1280(%rbp)
    b434:	48 b8 21 d9 6f 75 a2 	movabs $0xa041fca2756fd921,%rax
    b43b:	fc 41 a0 
    b43e:	48 89 85 88 ed ff ff 	mov    %rax,-0x1278(%rbp)
    b445:	c7 85 48 ec ff ff 01 	movl   $0x1,-0x13b8(%rbp)
    b44c:	00 00 00 
    b44f:	48 b8 65 77 8b a3 1f 	movabs $0x9e6741fa38b7765,%rax
    b456:	74 e6 09 
    b459:	48 89 85 90 ed ff ff 	mov    %rax,-0x1270(%rbp)
    b460:	c6 85 e0 eb ff ff 02 	movb   $0x2,-0x1420(%rbp)
    b467:	c6 85 e1 eb ff ff 00 	movb   $0x0,-0x141f(%rbp)
    b46e:	48 c7 85 b8 ec ff ff 	movq   $0x0,-0x1348(%rbp)
    b475:	00 00 00 00 
    b479:	48 8d 85 b8 ec ff ff 	lea    -0x1348(%rbp),%rax
    b480:	48 89 85 80 f1 ff ff 	mov    %rax,-0xe80(%rbp)
    b487:	48 8d 85 b8 ec ff ff 	lea    -0x1348(%rbp),%rax
    b48e:	48 89 85 88 f1 ff ff 	mov    %rax,-0xe78(%rbp)
    b495:	48 8d 85 b8 ec ff ff 	lea    -0x1348(%rbp),%rax
    b49c:	48 89 85 90 f1 ff ff 	mov    %rax,-0xe70(%rbp)
    b4a3:	48 8d 85 b8 ec ff ff 	lea    -0x1348(%rbp),%rax
    b4aa:	48 89 85 98 f1 ff ff 	mov    %rax,-0xe68(%rbp)
    b4b1:	c7 85 4c ec ff ff cd 	movl   $0x55c2acd,-0x13b4(%rbp)
    b4b8:	2a 5c 05 
    b4bb:	48 8d 05 06 e0 00 00 	lea    0xe006(%rip),%rax        # 194c8 <g_440>
    b4c2:	48 89 85 98 ed ff ff 	mov    %rax,-0x1268(%rbp)
    b4c9:	c7 85 50 ec ff ff 00 	movl   $0x0,-0x13b0(%rbp)
    b4d0:	00 00 00 
    b4d3:	48 8d 05 c6 bc 00 00 	lea    0xbcc6(%rip),%rax        # 171a0 <g_577>
    b4da:	48 89 85 a0 ed ff ff 	mov    %rax,-0x1260(%rbp)
    b4e1:	c7 85 54 ec ff ff c5 	movl   $0xeb6bc0c5,-0x13ac(%rbp)
    b4e8:	c0 6b eb 
    b4eb:	48 c7 85 a8 ed ff ff 	movq   $0x1,-0x1258(%rbp)
    b4f2:	01 00 00 00 
    b4f6:	48 8d 05 67 bd 00 00 	lea    0xbd67(%rip),%rax        # 17264 <g_2052>
    b4fd:	48 89 85 30 f6 ff ff 	mov    %rax,-0x9d0(%rbp)
    b504:	48 8d 05 59 bd 00 00 	lea    0xbd59(%rip),%rax        # 17264 <g_2052>
    b50b:	48 89 85 38 f6 ff ff 	mov    %rax,-0x9c8(%rbp)
    b512:	48 8d 05 4b bd 00 00 	lea    0xbd4b(%rip),%rax        # 17264 <g_2052>
    b519:	48 89 85 40 f6 ff ff 	mov    %rax,-0x9c0(%rbp)
    b520:	48 8d 05 3d bd 00 00 	lea    0xbd3d(%rip),%rax        # 17264 <g_2052>
    b527:	48 89 85 48 f6 ff ff 	mov    %rax,-0x9b8(%rbp)
    b52e:	48 8d 05 2f bd 00 00 	lea    0xbd2f(%rip),%rax        # 17264 <g_2052>
    b535:	48 89 85 50 f6 ff ff 	mov    %rax,-0x9b0(%rbp)
    b53c:	48 8d 05 21 bd 00 00 	lea    0xbd21(%rip),%rax        # 17264 <g_2052>
    b543:	48 89 85 58 f6 ff ff 	mov    %rax,-0x9a8(%rbp)
    b54a:	48 8d 05 13 bd 00 00 	lea    0xbd13(%rip),%rax        # 17264 <g_2052>
    b551:	48 89 85 60 f6 ff ff 	mov    %rax,-0x9a0(%rbp)
    b558:	48 8d 05 05 bd 00 00 	lea    0xbd05(%rip),%rax        # 17264 <g_2052>
    b55f:	48 89 85 68 f6 ff ff 	mov    %rax,-0x998(%rbp)
    b566:	48 8d 05 f7 bc 00 00 	lea    0xbcf7(%rip),%rax        # 17264 <g_2052>
    b56d:	48 89 85 70 f6 ff ff 	mov    %rax,-0x990(%rbp)
    b574:	c6 85 e2 eb ff ff 19 	movb   $0x19,-0x141e(%rbp)
    b57b:	c7 85 58 ec ff ff 0e 	movl   $0xda99090e,-0x13a8(%rbp)
    b582:	09 99 da 
    b585:	48 8d 05 2c e4 00 00 	lea    0xe42c(%rip),%rax        # 199b8 <g_1214>
    b58c:	48 89 85 b0 ed ff ff 	mov    %rax,-0x1250(%rbp)
    b593:	c7 85 fc eb ff ff 00 	movl   $0x0,-0x1404(%rbp)
    b59a:	00 00 00 
    b59d:	eb 1e                	jmp    b5bd <func_1+0x1e08>
    b59f:	8b 85 fc eb ff ff    	mov    -0x1404(%rbp),%eax
    b5a5:	48 98                	cltq   
    b5a7:	48 8d 15 3a e2 00 00 	lea    0xe23a(%rip),%rdx        # 197e8 <g_652>
    b5ae:	48 89 94 c5 f0 ee ff 	mov    %rdx,-0x1110(%rbp,%rax,8)
    b5b5:	ff 
    b5b6:	83 85 fc eb ff ff 01 	addl   $0x1,-0x1404(%rbp)
    b5bd:	83 bd fc eb ff ff 02 	cmpl   $0x2,-0x1404(%rbp)
    b5c4:	7e d9                	jle    b59f <func_1+0x1dea>
    b5c6:	0f b6 85 df eb ff ff 	movzbl -0x1421(%rbp),%eax
    b5cd:	83 c0 01             	add    $0x1,%eax
    b5d0:	88 85 df eb ff ff    	mov    %al,-0x1421(%rbp)
    b5d6:	48 83 85 c0 ec ff ff 	addq   $0x1,-0x1340(%rbp)
    b5dd:	01 
    b5de:	48 83 bd c0 ec ff ff 	cmpq   $0x7,-0x1340(%rbp)
    b5e5:	07 
    b5e6:	0f 86 06 fe ff ff    	jbe    b3f2 <func_1+0x1c3d>
    b5ec:	e9 d7 00 00 00       	jmpq   b6c8 <func_1+0x1f13>
    b5f1:	48 b8 2f 06 93 37 9c 	movabs $0xaf016a9c3793062f,%rax
    b5f8:	6a 01 af 
    b5fb:	48 89 85 f8 ec ff ff 	mov    %rax,-0x1308(%rbp)
    b602:	c7 85 14 ec ff ff 00 	movl   $0x0,-0x13ec(%rbp)
    b609:	00 00 00 
    b60c:	48 c7 85 00 ed ff ff 	movq   $0x0,-0x1300(%rbp)
    b613:	00 00 00 00 
    b617:	48 c7 85 08 ed ff ff 	movq   $0x0,-0x12f8(%rbp)
    b61e:	00 00 00 00 
    b622:	48 8d 05 db bb 00 00 	lea    0xbbdb(%rip),%rax        # 17204 <g_1416>
    b629:	48 89 85 10 ed ff ff 	mov    %rax,-0x12f0(%rbp)
    b630:	48 8b 85 f8 ec ff ff 	mov    -0x1308(%rbp),%rax
    b637:	0f be d8             	movsbl %al,%ebx
    b63a:	48 8b 85 f8 ec ff ff 	mov    -0x1308(%rbp),%rax
    b641:	89 85 14 ec ff ff    	mov    %eax,-0x13ec(%rbp)
    b647:	48 8b 05 52 e3 00 00 	mov    0xe352(%rip),%rax        # 199a0 <g_979>
    b64e:	8b 95 14 ec ff ff    	mov    -0x13ec(%rbp),%edx
    b654:	88 10                	mov    %dl,(%rax)
    b656:	48 83 bd f8 ec ff ff 	cmpq   $0x0,-0x1308(%rbp)
    b65d:	00 
    b65e:	48 8b 95 f8 ec ff ff 	mov    -0x1308(%rbp),%rdx
    b665:	48 83 bd 00 ed ff ff 	cmpq   $0x0,-0x1300(%rbp)
    b66c:	00 
    b66d:	0f 94 c0             	sete   %al
    b670:	0f b6 c0             	movzbl %al,%eax
    b673:	48 39 85 f8 ec ff ff 	cmp    %rax,-0x1308(%rbp)
    b67a:	0f 94 c0             	sete   %al
    b67d:	0f b6 c0             	movzbl %al,%eax
    b680:	48 89 d6             	mov    %rdx,%rsi
    b683:	48 89 c7             	mov    %rax,%rdi
    b686:	e8 29 d3 ff ff       	callq  89b4 <safe_mod_func_int64_t_s_s>
    b68b:	0f b6 c0             	movzbl %al,%eax
    b68e:	be 06 00 00 00       	mov    $0x6,%esi
    b693:	89 c7                	mov    %eax,%edi
    b695:	e8 6b d5 ff ff       	callq  8c05 <safe_lshift_func_uint8_t_u_s>
    b69a:	48 8b 95 10 ed ff ff 	mov    -0x12f0(%rbp),%rdx
    b6a1:	88 02                	mov    %al,(%rdx)
    b6a3:	89 de                	mov    %ebx,%esi
    b6a5:	bf 00 00 00 00       	mov    $0x0,%edi
    b6aa:	e8 bb cb ff ff       	callq  826a <safe_div_func_int8_t_s_s>
    b6af:	b9 01 00 00 00       	mov    $0x1,%ecx
    b6b4:	48 8b 05 f5 e2 00 00 	mov    0xe2f5(%rip),%rax        # 199b0 <g_1029>
    b6bb:	8b 10                	mov    (%rax),%edx
    b6bd:	48 8b 05 ec e2 00 00 	mov    0xe2ec(%rip),%rax        # 199b0 <g_1029>
    b6c4:	31 ca                	xor    %ecx,%edx
    b6c6:	89 10                	mov    %edx,(%rax)
    b6c8:	48 8b 05 d9 dd 00 00 	mov    0xddd9(%rip),%rax        # 194a8 <g_154>
    b6cf:	8b 00                	mov    (%rax),%eax
    b6d1:	48 8b 5d c8          	mov    -0x38(%rbp),%rbx
    b6d5:	64 48 33 1c 25 28 00 	xor    %fs:0x28,%rbx
    b6dc:	00 00 
    b6de:	74 05                	je     b6e5 <func_1+0x1f30>
    b6e0:	e8 8b c9 ff ff       	callq  8070 <__stack_chk_fail@plt>
    b6e5:	48 81 c4 08 14 00 00 	add    $0x1408,%rsp
    b6ec:	5b                   	pop    %rbx
    b6ed:	41 5c                	pop    %r12
    b6ef:	41 5d                	pop    %r13
    b6f1:	41 5e                	pop    %r14
    b6f3:	41 5f                	pop    %r15
    b6f5:	5d                   	pop    %rbp
    b6f6:	c3                   	retq   

000000000000b6f7 <func_7>:
    b6f7:	f3 0f 1e fa          	endbr64 
    b6fb:	55                   	push   %rbp
    b6fc:	48 89 e5             	mov    %rsp,%rbp
    b6ff:	41 56                	push   %r14
    b701:	41 55                	push   %r13
    b703:	41 54                	push   %r12
    b705:	53                   	push   %rbx
    b706:	48 81 ec 40 04 00 00 	sub    $0x440,%rsp
    b70d:	89 f9                	mov    %edi,%ecx
    b70f:	48 89 b5 a0 fb ff ff 	mov    %rsi,-0x460(%rbp)
    b716:	89 d0                	mov    %edx,%eax
    b718:	89 ca                	mov    %ecx,%edx
    b71a:	88 95 ac fb ff ff    	mov    %dl,-0x454(%rbp)
    b720:	88 85 a8 fb ff ff    	mov    %al,-0x458(%rbp)
    b726:	64 48 8b 04 25 28 00 	mov    %fs:0x28,%rax
    b72d:	00 00 
    b72f:	48 89 45 d8          	mov    %rax,-0x28(%rbp)
    b733:	31 c0                	xor    %eax,%eax
    b735:	48 c7 85 e0 fb ff ff 	movq   $0x0,-0x420(%rbp)
    b73c:	00 00 00 00 
    b740:	48 8d 05 2d ba 00 00 	lea    0xba2d(%rip),%rax        # 17174 <g_495+0x4>
    b747:	48 89 85 e8 fb ff ff 	mov    %rax,-0x418(%rbp)
    b74e:	48 c7 85 d0 fb ff ff 	movq   $0x0,-0x430(%rbp)
    b755:	00 00 00 00 
    b759:	48 8d 85 d0 fb ff ff 	lea    -0x430(%rbp),%rax
    b760:	48 89 85 d8 fb ff ff 	mov    %rax,-0x428(%rbp)
    b767:	48 8d 85 d8 fb ff ff 	lea    -0x428(%rbp),%rax
    b76e:	48 89 85 f0 fb ff ff 	mov    %rax,-0x410(%rbp)
    b775:	48 8d 05 4c dd 00 00 	lea    0xdd4c(%rip),%rax        # 194c8 <g_440>
    b77c:	48 89 85 f8 fb ff ff 	mov    %rax,-0x408(%rbp)
    b783:	48 8d 05 2e e2 00 00 	lea    0xe22e(%rip),%rax        # 199b8 <g_1214>
    b78a:	48 89 85 00 fc ff ff 	mov    %rax,-0x400(%rbp)
    b791:	48 8d 05 08 dd 00 00 	lea    0xdd08(%rip),%rax        # 194a0 <g_146+0x20>
    b798:	48 89 85 08 fc ff ff 	mov    %rax,-0x3f8(%rbp)
    b79f:	c7 85 bc fb ff ff 07 	movl   $0x7,-0x444(%rbp)
    b7a6:	00 00 00 
    b7a9:	c7 85 c0 fb ff ff 9c 	movl   $0xc562979c,-0x440(%rbp)
    b7b0:	97 62 c5 
    b7b3:	c7 85 c4 fb ff ff f9 	movl   $0xfffffff9,-0x43c(%rbp)
    b7ba:	ff ff ff 
    b7bd:	c7 85 60 fc ff ff ff 	movl   $0xffffffff,-0x3a0(%rbp)
    b7c4:	ff ff ff 
    b7c7:	c7 85 64 fc ff ff ec 	movl   $0x651048ec,-0x39c(%rbp)
    b7ce:	48 10 65 
    b7d1:	c7 85 68 fc ff ff ec 	movl   $0x651048ec,-0x398(%rbp)
    b7d8:	48 10 65 
    b7db:	c7 85 6c fc ff ff ff 	movl   $0xffffffff,-0x394(%rbp)
    b7e2:	ff ff ff 
    b7e5:	c7 85 70 fc ff ff ec 	movl   $0x651048ec,-0x390(%rbp)
    b7ec:	48 10 65 
    b7ef:	c7 85 74 fc ff ff ff 	movl   $0xffffffff,-0x38c(%rbp)
    b7f6:	ff ff ff 
    b7f9:	c7 85 78 fc ff ff ec 	movl   $0x651048ec,-0x388(%rbp)
    b800:	48 10 65 
    b803:	c7 85 7c fc ff ff ec 	movl   $0x651048ec,-0x384(%rbp)
    b80a:	48 10 65 
    b80d:	c7 85 80 fc ff ff ff 	movl   $0xffffffff,-0x380(%rbp)
    b814:	ff ff ff 
    b817:	c7 85 84 fc ff ff ff 	movl   $0xffffffff,-0x37c(%rbp)
    b81e:	ff ff ff 
    b821:	c7 85 88 fc ff ff 08 	movl   $0x8,-0x378(%rbp)
    b828:	00 00 00 
    b82b:	c7 85 8c fc ff ff ff 	movl   $0xffffffff,-0x374(%rbp)
    b832:	ff ff ff 
    b835:	c7 85 90 fc ff ff ff 	movl   $0xffffffff,-0x370(%rbp)
    b83c:	ff ff ff 
    b83f:	c7 85 94 fc ff ff ec 	movl   $0x651048ec,-0x36c(%rbp)
    b846:	48 10 65 
    b849:	c7 85 98 fc ff ff ec 	movl   $0x651048ec,-0x368(%rbp)
    b850:	48 10 65 
    b853:	c7 85 9c fc ff ff ff 	movl   $0xffffffff,-0x364(%rbp)
    b85a:	ff ff ff 
    b85d:	c7 85 a0 fc ff ff ec 	movl   $0x651048ec,-0x360(%rbp)
    b864:	48 10 65 
    b867:	c7 85 a4 fc ff ff ff 	movl   $0xffffffff,-0x35c(%rbp)
    b86e:	ff ff ff 
    b871:	c7 85 a8 fc ff ff ec 	movl   $0x651048ec,-0x358(%rbp)
    b878:	48 10 65 
    b87b:	c7 85 ac fc ff ff ec 	movl   $0x651048ec,-0x354(%rbp)
    b882:	48 10 65 
    b885:	c7 85 b0 fc ff ff ff 	movl   $0xffffffff,-0x350(%rbp)
    b88c:	ff ff ff 
    b88f:	c7 85 b4 fc ff ff ff 	movl   $0xffffffff,-0x34c(%rbp)
    b896:	ff ff ff 
    b899:	c7 85 b8 fc ff ff 08 	movl   $0x8,-0x348(%rbp)
    b8a0:	00 00 00 
    b8a3:	c7 85 bc fc ff ff ff 	movl   $0xffffffff,-0x344(%rbp)
    b8aa:	ff ff ff 
    b8ad:	c7 85 c0 fc ff ff ff 	movl   $0xffffffff,-0x340(%rbp)
    b8b4:	ff ff ff 
    b8b7:	c7 85 c4 fc ff ff ec 	movl   $0x651048ec,-0x33c(%rbp)
    b8be:	48 10 65 
    b8c1:	c7 85 c8 fc ff ff ec 	movl   $0x651048ec,-0x338(%rbp)
    b8c8:	48 10 65 
    b8cb:	c7 85 cc fc ff ff ff 	movl   $0xffffffff,-0x334(%rbp)
    b8d2:	ff ff ff 
    b8d5:	c7 85 c8 fb ff ff a8 	movl   $0x691509a8,-0x438(%rbp)
    b8dc:	09 15 69 
    b8df:	48 c7 85 10 fc ff ff 	movq   $0x1,-0x3f0(%rbp)
    b8e6:	01 00 00 00 
    b8ea:	48 8d 05 d7 eb 00 00 	lea    0xebd7(%rip),%rax        # 1a4c8 <g_2055>
    b8f1:	48 89 85 18 fc ff ff 	mov    %rax,-0x3e8(%rbp)
    b8f8:	48 8d 85 40 fc ff ff 	lea    -0x3c0(%rbp),%rax
    b8ff:	48 83 c0 08          	add    $0x8,%rax
    b903:	48 89 85 20 fc ff ff 	mov    %rax,-0x3e0(%rbp)
    b90a:	c7 85 b8 fb ff ff 00 	movl   $0x0,-0x448(%rbp)
    b911:	00 00 00 
    b914:	eb 1a                	jmp    b930 <func_7+0x239>
    b916:	8b 85 b8 fb ff ff    	mov    -0x448(%rbp),%eax
    b91c:	48 98                	cltq   
    b91e:	c7 84 85 40 fc ff ff 	movl   $0x6,-0x3c0(%rbp,%rax,4)
    b925:	06 00 00 00 
    b929:	83 85 b8 fb ff ff 01 	addl   $0x1,-0x448(%rbp)
    b930:	83 bd b8 fb ff ff 04 	cmpl   $0x4,-0x448(%rbp)
    b937:	7e dd                	jle    b916 <func_7+0x21f>
    b939:	c7 05 3d eb 00 00 f6 	movl   $0xfffffff6,0xeb3d(%rip)        # 1a480 <g_893>
    b940:	ff ff ff 
    b943:	90                   	nop
    b944:	8b 05 36 eb 00 00    	mov    0xeb36(%rip),%eax        # 1a480 <g_893>
    b94a:	83 f8 07             	cmp    $0x7,%eax
    b94d:	0f 87 1c 02 00 00    	ja     bb6f <func_7+0x478>
    b953:	48 c7 85 28 fc ff ff 	movq   $0xffffffffffffffff,-0x3d8(%rbp)
    b95a:	ff ff ff ff 
    b95e:	c7 85 cc fb ff ff 01 	movl   $0x1,-0x434(%rbp)
    b965:	00 00 00 
    b968:	c6 85 b7 fb ff ff 01 	movb   $0x1,-0x449(%rbp)
    b96f:	48 8d 05 82 b7 00 00 	lea    0xb782(%rip),%rax        # 170f8 <g_75>
    b976:	48 89 85 30 fc ff ff 	mov    %rax,-0x3d0(%rbp)
    b97d:	66 c7 05 d2 b7 00 00 	movw   $0x0,0xb7d2(%rip)        # 17158 <g_374>
    b984:	00 00 
    b986:	e9 97 00 00 00       	jmpq   ba22 <func_7+0x32b>
    b98b:	48 c7 85 38 fc ff ff 	movq   $0x0,-0x3c8(%rbp)
    b992:	00 00 00 00 
    b996:	48 8d 85 d0 fc ff ff 	lea    -0x330(%rbp),%rax
    b99d:	48 8d 15 9c bb 00 00 	lea    0xbb9c(%rip),%rdx        # 17540 <g_2888+0x190>
    b9a4:	b9 60 00 00 00       	mov    $0x60,%ecx
    b9a9:	48 89 c7             	mov    %rax,%rdi
    b9ac:	48 89 d6             	mov    %rdx,%rsi
    b9af:	f3 48 a5             	rep movsq %ds:(%rsi),%es:(%rdi)
    b9b2:	48 c7 05 93 b7 00 00 	movq   $0x0,0xb793(%rip)        # 17150 <g_332>
    b9b9:	00 00 00 00 
    b9bd:	eb 30                	jmp    b9ef <func_7+0x2f8>
    b9bf:	48 8b 05 8a b7 00 00 	mov    0xb78a(%rip),%rax        # 17150 <g_332>
    b9c6:	48 8d 14 c5 00 00 00 	lea    0x0(,%rax,8),%rdx
    b9cd:	00 
    b9ce:	48 8d 05 2b e1 00 00 	lea    0xe12b(%rip),%rax        # 19b00 <g_1720>
    b9d5:	48 c7 04 02 00 00 00 	movq   $0x0,(%rdx,%rax,1)
    b9dc:	00 
    b9dd:	48 8b 05 6c b7 00 00 	mov    0xb76c(%rip),%rax        # 17150 <g_332>
    b9e4:	48 83 c0 01          	add    $0x1,%rax
    b9e8:	48 89 05 61 b7 00 00 	mov    %rax,0xb761(%rip)        # 17150 <g_332>
    b9ef:	48 8b 05 5a b7 00 00 	mov    0xb75a(%rip),%rax        # 17150 <g_332>
    b9f6:	48 83 f8 07          	cmp    $0x7,%rax
    b9fa:	76 c3                	jbe    b9bf <func_7+0x2c8>
    b9fc:	48 83 85 e0 fb ff ff 	addq   $0x1,-0x420(%rbp)
    ba03:	01 
    ba04:	0f b7 05 4d b7 00 00 	movzwl 0xb74d(%rip),%eax        # 17158 <g_374>
    ba0b:	0f b7 c0             	movzwl %ax,%eax
    ba0e:	be 01 00 00 00       	mov    $0x1,%esi
    ba13:	48 89 c7             	mov    %rax,%rdi
    ba16:	e8 26 ce ff ff       	callq  8841 <safe_add_func_int64_t_s_s>
    ba1b:	66 89 05 36 b7 00 00 	mov    %ax,0xb736(%rip)        # 17158 <g_374>
    ba22:	0f b7 05 2f b7 00 00 	movzwl 0xb72f(%rip),%eax        # 17158 <g_374>
    ba29:	66 83 f8 0c          	cmp    $0xc,%ax
    ba2d:	0f 87 58 ff ff ff    	ja     b98b <func_7+0x294>
    ba33:	0f b6 9d ac fb ff ff 	movzbl -0x454(%rbp),%ebx
    ba3a:	44 0f b6 a5 ac fb ff 	movzbl -0x454(%rbp),%r12d
    ba41:	ff 
    ba42:	48 8b 85 a0 fb ff ff 	mov    -0x460(%rbp),%rax
    ba49:	41 89 c5             	mov    %eax,%r13d
    ba4c:	8b 05 0e b8 00 00    	mov    0xb80e(%rip),%eax        # 17260 <g_2001>
    ba52:	48 8b 85 e0 fb ff ff 	mov    -0x420(%rbp),%rax
    ba59:	41 89 c6             	mov    %eax,%r14d
    ba5c:	0f b6 85 a8 fb ff ff 	movzbl -0x458(%rbp),%eax
    ba63:	0f b6 c0             	movzbl %al,%eax
    ba66:	be 95 00 00 00       	mov    $0x95,%esi
    ba6b:	89 c7                	mov    %eax,%edi
    ba6d:	e8 21 d1 ff ff       	callq  8b93 <safe_mul_func_uint8_t_u_u>
    ba72:	0f b6 d0             	movzbl %al,%edx
    ba75:	48 8b 85 a0 fb ff ff 	mov    -0x460(%rbp),%rax
    ba7c:	0f b6 c0             	movzbl %al,%eax
    ba7f:	89 d6                	mov    %edx,%esi
    ba81:	89 c7                	mov    %eax,%edi
    ba83:	e8 f0 d0 ff ff       	callq  8b78 <safe_sub_func_uint8_t_u_u>
    ba88:	0f b6 c0             	movzbl %al,%eax
    ba8b:	be f9 ff ff ff       	mov    $0xfffffff9,%esi
    ba90:	89 c7                	mov    %eax,%edi
    ba92:	e8 66 d4 ff ff       	callq  8efd <safe_mod_func_uint32_t_u_u>
    ba97:	0f b7 d0             	movzwl %ax,%edx
    ba9a:	0f b6 85 b7 fb ff ff 	movzbl -0x449(%rbp),%eax
    baa1:	89 d6                	mov    %edx,%esi
    baa3:	89 c7                	mov    %eax,%edi
    baa5:	e8 75 d2 ff ff       	callq  8d1f <safe_sub_func_uint16_t_u_u>
    baaa:	0f b7 d0             	movzwl %ax,%edx
    baad:	0f b6 85 ac fb ff ff 	movzbl -0x454(%rbp),%eax
    bab4:	09 d0                	or     %edx,%eax
    bab6:	48 98                	cltq   
    bab8:	48 39 85 e0 fb ff ff 	cmp    %rax,-0x420(%rbp)
    babf:	0f 93 c0             	setae  %al
    bac2:	0f b6 c0             	movzbl %al,%eax
    bac5:	44 89 f6             	mov    %r14d,%esi
    bac8:	89 c7                	mov    %eax,%edi
    baca:	e8 56 d4 ff ff       	callq  8f25 <safe_div_func_uint32_t_u_u>
    bacf:	89 c1                	mov    %eax,%ecx
    bad1:	48 8b 05 d0 d9 00 00 	mov    0xd9d0(%rip),%rax        # 194a8 <g_154>
    bad8:	0f be 95 a8 fb ff ff 	movsbl -0x458(%rbp),%edx
    badf:	89 10                	mov    %edx,(%rax)
    bae1:	8b 00                	mov    (%rax),%eax
    bae3:	89 ce                	mov    %ecx,%esi
    bae5:	89 c7                	mov    %eax,%edi
    bae7:	e8 e4 d3 ff ff       	callq  8ed0 <safe_sub_func_uint32_t_u_u>
    baec:	48 8b 85 30 fc ff ff 	mov    -0x3d0(%rbp),%rax
    baf3:	c7 00 00 00 00 00    	movl   $0x0,(%rax)
    baf9:	48 8b 85 30 fc ff ff 	mov    -0x3d0(%rbp),%rax
    bb00:	8b 00                	mov    (%rax),%eax
    bb02:	44 89 ee             	mov    %r13d,%esi
    bb05:	89 c7                	mov    %eax,%edi
    bb07:	e8 19 d4 ff ff       	callq  8f25 <safe_div_func_uint32_t_u_u>
    bb0c:	98                   	cwtl   
    bb0d:	44 89 e6             	mov    %r12d,%esi
    bb10:	89 c7                	mov    %eax,%edi
    bb12:	e8 7b c9 ff ff       	callq  8492 <safe_lshift_func_int16_t_s_s>
    bb17:	66 3d b8 00          	cmp    $0xb8,%ax
    bb1b:	48 89 de             	mov    %rbx,%rsi
    bb1e:	48 bf ef d6 e9 0e fa 	movabs $0xb75bdfa0ee9d6ef,%rdi
    bb25:	bd 75 0b 
    bb28:	e8 7b cd ff ff       	callq  88a8 <safe_sub_func_int64_t_s_s>
    bb2d:	48 8b 15 cc dc 00 00 	mov    0xdccc(%rip),%rdx        # 19800 <g_762>
    bb34:	0f b7 12             	movzwl (%rdx),%edx
    bb37:	0f b7 d2             	movzwl %dx,%edx
    bb3a:	48 39 d0             	cmp    %rdx,%rax
    bb3d:	0f 94 c0             	sete   %al
    bb40:	0f b6 c0             	movzbl %al,%eax
    bb43:	be 03 00 00 00       	mov    $0x3,%esi
    bb48:	89 c7                	mov    %eax,%edi
    bb4a:	e8 b7 d2 ff ff       	callq  8e06 <safe_lshift_func_uint16_t_u_u>
    bb4f:	48 8b 15 62 d9 00 00 	mov    0xd962(%rip),%rdx        # 194b8 <g_382>
    bb56:	8b 0a                	mov    (%rdx),%ecx
    bb58:	0f b7 d0             	movzwl %ax,%edx
    bb5b:	48 8b 05 56 d9 00 00 	mov    0xd956(%rip),%rax        # 194b8 <g_382>
    bb62:	09 ca                	or     %ecx,%edx
    bb64:	89 10                	mov    %edx,(%rax)
    bb66:	48 8b 85 a0 fb ff ff 	mov    -0x460(%rbp),%rax
    bb6d:	eb 07                	jmp    bb76 <func_7+0x47f>
    bb6f:	0f b6 85 ac fb ff ff 	movzbl -0x454(%rbp),%eax
    bb76:	48 8b 5d d8          	mov    -0x28(%rbp),%rbx
    bb7a:	64 48 33 1c 25 28 00 	xor    %fs:0x28,%rbx
    bb81:	00 00 
    bb83:	74 05                	je     bb8a <func_7+0x493>
    bb85:	e8 e6 c4 ff ff       	callq  8070 <__stack_chk_fail@plt>
    bb8a:	48 81 c4 40 04 00 00 	add    $0x440,%rsp
    bb91:	5b                   	pop    %rbx
    bb92:	41 5c                	pop    %r12
    bb94:	41 5d                	pop    %r13
    bb96:	41 5e                	pop    %r14
    bb98:	5d                   	pop    %rbp
    bb99:	c3                   	retq   

000000000000bb9a <func_12>:
    bb9a:	f3 0f 1e fa          	endbr64 
    bb9e:	55                   	push   %rbp
    bb9f:	48 89 e5             	mov    %rsp,%rbp
    bba2:	41 57                	push   %r15
    bba4:	41 56                	push   %r14
    bba6:	41 55                	push   %r13
    bba8:	41 54                	push   %r12
    bbaa:	53                   	push   %rbx
    bbab:	48 81 ec b8 0a 00 00 	sub    $0xab8,%rsp
    bbb2:	89 f1                	mov    %esi,%ecx
    bbb4:	89 d0                	mov    %edx,%eax
    bbb6:	89 fa                	mov    %edi,%edx
    bbb8:	66 89 95 3c f5 ff ff 	mov    %dx,-0xac4(%rbp)
    bbbf:	89 ca                	mov    %ecx,%edx
    bbc1:	66 89 95 38 f5 ff ff 	mov    %dx,-0xac8(%rbp)
    bbc8:	66 89 85 34 f5 ff ff 	mov    %ax,-0xacc(%rbp)
    bbcf:	64 48 8b 04 25 28 00 	mov    %fs:0x28,%rax
    bbd6:	00 00 
    bbd8:	48 89 45 c8          	mov    %rax,-0x38(%rbp)
    bbdc:	31 c0                	xor    %eax,%eax
    bbde:	c7 85 5c f5 ff ff 06 	movl   $0x6,-0xaa4(%rbp)
    bbe5:	00 00 00 
    bbe8:	48 b8 2c 43 ad 18 5d 	movabs $0x89bd6f5d18ad432c,%rax
    bbef:	6f bd 89 
    bbf2:	48 89 85 b0 f5 ff ff 	mov    %rax,-0xa50(%rbp)
    bbf9:	c7 85 80 f7 ff ff dc 	movl   $0x246dd7dc,-0x880(%rbp)
    bc00:	d7 6d 24 
    bc03:	c7 85 84 f7 ff ff 65 	movl   $0x54e16665,-0x87c(%rbp)
    bc0a:	66 e1 54 
    bc0d:	c7 85 88 f7 ff ff 29 	movl   $0x1f5d3529,-0x878(%rbp)
    bc14:	35 5d 1f 
    bc17:	c7 85 8c f7 ff ff f8 	movl   $0xfffffff8,-0x874(%rbp)
    bc1e:	ff ff ff 
    bc21:	c7 85 90 f7 ff ff 02 	movl   $0x2,-0x870(%rbp)
    bc28:	00 00 00 
    bc2b:	c7 85 94 f7 ff ff 86 	movl   $0x907e8286,-0x86c(%rbp)
    bc32:	82 7e 90 
    bc35:	c7 85 98 f7 ff ff 86 	movl   $0x907e8286,-0x868(%rbp)
    bc3c:	82 7e 90 
    bc3f:	c7 85 9c f7 ff ff 02 	movl   $0x2,-0x864(%rbp)
    bc46:	00 00 00 
    bc49:	c7 85 a0 f7 ff ff f8 	movl   $0xfffffff8,-0x860(%rbp)
    bc50:	ff ff ff 
    bc53:	c7 85 a4 f7 ff ff 29 	movl   $0x1f5d3529,-0x85c(%rbp)
    bc5a:	35 5d 1f 
    bc5d:	c7 85 a8 f7 ff ff f8 	movl   $0xfffffff8,-0x858(%rbp)
    bc64:	ff ff ff 
    bc67:	c7 85 ac f7 ff ff f8 	movl   $0xfffffff8,-0x854(%rbp)
    bc6e:	ff ff ff 
    bc71:	c7 85 b0 f7 ff ff d8 	movl   $0x804b8ed8,-0x850(%rbp)
    bc78:	8e 4b 80 
    bc7b:	c7 85 b4 f7 ff ff 29 	movl   $0x1f5d3529,-0x84c(%rbp)
    bc82:	35 5d 1f 
    bc85:	c7 85 b8 f7 ff ff aa 	movl   $0x89782aa,-0x848(%rbp)
    bc8c:	82 97 08 
    bc8f:	c7 85 bc f7 ff ff ff 	movl   $0xffffffff,-0x844(%rbp)
    bc96:	ff ff ff 
    bc99:	c7 85 c0 f7 ff ff 02 	movl   $0x2,-0x840(%rbp)
    bca0:	00 00 00 
    bca3:	c7 85 c4 f7 ff ff 89 	movl   $0x4201c389,-0x83c(%rbp)
    bcaa:	c3 01 42 
    bcad:	c7 85 c8 f7 ff ff d9 	movl   $0xbed2f1d9,-0x838(%rbp)
    bcb4:	f1 d2 be 
    bcb7:	c7 85 cc f7 ff ff db 	movl   $0x6302e3db,-0x834(%rbp)
    bcbe:	e3 02 63 
    bcc1:	c7 85 d0 f7 ff ff 89 	movl   $0x4201c389,-0x830(%rbp)
    bcc8:	c3 01 42 
    bccb:	c7 85 d4 f7 ff ff 25 	movl   $0x3f302f25,-0x82c(%rbp)
    bcd2:	2f 30 3f 
    bcd5:	c7 85 d8 f7 ff ff 02 	movl   $0x2,-0x828(%rbp)
    bcdc:	00 00 00 
    bcdf:	c7 85 dc f7 ff ff f6 	movl   $0xfffffff6,-0x824(%rbp)
    bce6:	ff ff ff 
    bce9:	c7 85 e0 f7 ff ff 00 	movl   $0x0,-0x820(%rbp)
    bcf0:	00 00 00 
    bcf3:	c7 85 e4 f7 ff ff f6 	movl   $0xfffffff6,-0x81c(%rbp)
    bcfa:	ff ff ff 
    bcfd:	c7 85 e8 f7 ff ff 02 	movl   $0x2,-0x818(%rbp)
    bd04:	00 00 00 
    bd07:	c7 85 ec f7 ff ff 25 	movl   $0x3f302f25,-0x814(%rbp)
    bd0e:	2f 30 3f 
    bd11:	c7 85 f0 f7 ff ff 89 	movl   $0x4201c389,-0x810(%rbp)
    bd18:	c3 01 42 
    bd1b:	c7 85 f4 f7 ff ff f8 	movl   $0xfffffff8,-0x80c(%rbp)
    bd22:	ff ff ff 
    bd25:	c7 85 f8 f7 ff ff 65 	movl   $0x54e16665,-0x808(%rbp)
    bd2c:	66 e1 54 
    bd2f:	c7 85 fc f7 ff ff f8 	movl   $0xfffffff8,-0x804(%rbp)
    bd36:	ff ff ff 
    bd39:	c7 85 00 f8 ff ff d9 	movl   $0xbed2f1d9,-0x800(%rbp)
    bd40:	f1 d2 be 
    bd43:	c7 85 04 f8 ff ff aa 	movl   $0x89782aa,-0x7fc(%rbp)
    bd4a:	82 97 08 
    bd4d:	c7 85 08 f8 ff ff db 	movl   $0x6302e3db,-0x7f8(%rbp)
    bd54:	e3 02 63 
    bd57:	c7 85 0c f8 ff ff f7 	movl   $0xfffffff7,-0x7f4(%rbp)
    bd5e:	ff ff ff 
    bd61:	c7 85 10 f8 ff ff 86 	movl   $0x907e8286,-0x7f0(%rbp)
    bd68:	82 7e 90 
    bd6b:	c7 85 14 f8 ff ff 00 	movl   $0x0,-0x7ec(%rbp)
    bd72:	00 00 00 
    bd75:	c7 85 18 f8 ff ff 00 	movl   $0x0,-0x7e8(%rbp)
    bd7c:	00 00 00 
    bd7f:	c7 85 1c f8 ff ff 86 	movl   $0x907e8286,-0x7e4(%rbp)
    bd86:	82 7e 90 
    bd89:	c7 85 20 f8 ff ff 25 	movl   $0x3f302f25,-0x7e0(%rbp)
    bd90:	2f 30 3f 
    bd93:	c7 85 24 f8 ff ff 65 	movl   $0x54e16665,-0x7dc(%rbp)
    bd9a:	66 e1 54 
    bd9d:	c7 85 28 f8 ff ff aa 	movl   $0x89782aa,-0x7d8(%rbp)
    bda4:	82 97 08 
    bda7:	c7 85 2c f8 ff ff aa 	movl   $0x89782aa,-0x7d4(%rbp)
    bdae:	82 97 08 
    bdb1:	c7 85 30 f8 ff ff 65 	movl   $0x54e16665,-0x7d0(%rbp)
    bdb8:	66 e1 54 
    bdbb:	c7 85 34 f8 ff ff 25 	movl   $0x3f302f25,-0x7cc(%rbp)
    bdc2:	2f 30 3f 
    bdc5:	c7 85 38 f8 ff ff dc 	movl   $0x246dd7dc,-0x7c8(%rbp)
    bdcc:	d7 6d 24 
    bdcf:	c7 85 3c f8 ff ff f7 	movl   $0xfffffff7,-0x7c4(%rbp)
    bdd6:	ff ff ff 
    bdd9:	c7 85 40 f8 ff ff 89 	movl   $0x4201c389,-0x7c0(%rbp)
    bde0:	c3 01 42 
    bde3:	c7 85 44 f8 ff ff ff 	movl   $0xffffffff,-0x7bc(%rbp)
    bdea:	ff ff ff 
    bded:	c7 85 48 f8 ff ff ff 	movl   $0xffffffff,-0x7b8(%rbp)
    bdf4:	ff ff ff 
    bdf7:	c7 85 4c f8 ff ff 00 	movl   $0x0,-0x7b4(%rbp)
    bdfe:	00 00 00 
    be01:	c7 85 50 f8 ff ff f8 	movl   $0xfffffff8,-0x7b0(%rbp)
    be08:	ff ff ff 
    be0b:	c7 85 54 f8 ff ff f6 	movl   $0xfffffff6,-0x7ac(%rbp)
    be12:	ff ff ff 
    be15:	c7 85 58 f8 ff ff d9 	movl   $0xbed2f1d9,-0x7a8(%rbp)
    be1c:	f1 d2 be 
    be1f:	c7 85 5c f8 ff ff d8 	movl   $0x804b8ed8,-0x7a4(%rbp)
    be26:	8e 4b 80 
    be29:	c7 85 60 f8 ff ff 25 	movl   $0x3f302f25,-0x7a0(%rbp)
    be30:	2f 30 3f 
    be33:	c7 85 64 f8 ff ff d8 	movl   $0x804b8ed8,-0x79c(%rbp)
    be3a:	8e 4b 80 
    be3d:	c7 85 68 f8 ff ff d9 	movl   $0xbed2f1d9,-0x798(%rbp)
    be44:	f1 d2 be 
    be47:	c7 85 6c f8 ff ff f6 	movl   $0xfffffff6,-0x794(%rbp)
    be4e:	ff ff ff 
    be51:	c7 85 48 f5 ff ff ff 	movl   $0xffffffff,-0xab8(%rbp)
    be58:	ff ff ff 
    be5b:	c7 85 60 f5 ff ff fe 	movl   $0xfffffffe,-0xaa0(%rbp)
    be62:	ff ff ff 
    be65:	48 8d 05 6c dc 00 00 	lea    0xdc6c(%rip),%rax        # 19ad8 <g_1234>
    be6c:	48 89 85 78 f5 ff ff 	mov    %rax,-0xa88(%rbp)
    be73:	48 8d 85 78 f5 ff ff 	lea    -0xa88(%rbp),%rax
    be7a:	48 89 85 b8 f5 ff ff 	mov    %rax,-0xa48(%rbp)
    be81:	48 8d 05 28 d6 00 00 	lea    0xd628(%rip),%rax        # 194b0 <g_198>
    be88:	48 89 85 c0 f5 ff ff 	mov    %rax,-0xa40(%rbp)
    be8f:	c7 85 64 f5 ff ff ed 	movl   $0x2b6579ed,-0xa9c(%rbp)
    be96:	79 65 2b 
    be99:	48 c7 85 c8 f5 ff ff 	movq   $0x0,-0xa38(%rbp)
    bea0:	00 00 00 00 
    bea4:	48 8d 05 0d d6 00 00 	lea    0xd60d(%rip),%rax        # 194b8 <g_382>
    beab:	48 89 85 d0 f5 ff ff 	mov    %rax,-0xa30(%rbp)
    beb2:	c7 85 68 f5 ff ff 22 	movl   $0x7d381622,-0xa98(%rbp)
    beb9:	16 38 7d 
    bebc:	48 8d 85 80 fd ff ff 	lea    -0x280(%rbp),%rax
    bec3:	48 8d 15 76 b9 00 00 	lea    0xb976(%rip),%rdx        # 17840 <g_2888+0x490>
    beca:	b9 48 00 00 00       	mov    $0x48,%ecx
    becf:	48 89 c7             	mov    %rax,%rdi
    bed2:	48 89 d6             	mov    %rdx,%rsi
    bed5:	f3 48 a5             	rep movsq %ds:(%rsi),%es:(%rdi)
    bed8:	48 8d 05 81 71 00 00 	lea    0x7181(%rip),%rax        # 13060 <g_1969>
    bedf:	48 89 85 80 f5 ff ff 	mov    %rax,-0xa80(%rbp)
    bee6:	48 8d 85 80 f5 ff ff 	lea    -0xa80(%rbp),%rax
    beed:	48 89 85 d0 f6 ff ff 	mov    %rax,-0x930(%rbp)
    bef4:	48 8d 85 80 f5 ff ff 	lea    -0xa80(%rbp),%rax
    befb:	48 89 85 d8 f6 ff ff 	mov    %rax,-0x928(%rbp)
    bf02:	48 8d 85 80 f5 ff ff 	lea    -0xa80(%rbp),%rax
    bf09:	48 89 85 e0 f6 ff ff 	mov    %rax,-0x920(%rbp)
    bf10:	48 8d 85 80 f5 ff ff 	lea    -0xa80(%rbp),%rax
    bf17:	48 89 85 e8 f6 ff ff 	mov    %rax,-0x918(%rbp)
    bf1e:	48 8d 85 80 f5 ff ff 	lea    -0xa80(%rbp),%rax
    bf25:	48 89 85 f0 f6 ff ff 	mov    %rax,-0x910(%rbp)
    bf2c:	48 8d 85 80 f5 ff ff 	lea    -0xa80(%rbp),%rax
    bf33:	48 89 85 f8 f6 ff ff 	mov    %rax,-0x908(%rbp)
    bf3a:	48 8d 85 80 f5 ff ff 	lea    -0xa80(%rbp),%rax
    bf41:	48 89 85 00 f7 ff ff 	mov    %rax,-0x900(%rbp)
    bf48:	48 8d 85 80 f5 ff ff 	lea    -0xa80(%rbp),%rax
    bf4f:	48 89 85 08 f7 ff ff 	mov    %rax,-0x8f8(%rbp)
    bf56:	48 8d 85 80 f5 ff ff 	lea    -0xa80(%rbp),%rax
    bf5d:	48 89 85 10 f7 ff ff 	mov    %rax,-0x8f0(%rbp)
    bf64:	48 8d 85 80 f5 ff ff 	lea    -0xa80(%rbp),%rax
    bf6b:	48 89 85 18 f7 ff ff 	mov    %rax,-0x8e8(%rbp)
    bf72:	48 8d 05 e1 b1 00 00 	lea    0xb1e1(%rip),%rax        # 1715a <g_396>
    bf79:	48 89 85 d8 f5 ff ff 	mov    %rax,-0xa28(%rbp)
    bf80:	48 c7 85 e0 f5 ff ff 	movq   $0x0,-0xa20(%rbp)
    bf87:	00 00 00 00 
    bf8b:	48 8d 85 70 f8 ff ff 	lea    -0x790(%rbp),%rax
    bf92:	48 8d 15 e7 ba 00 00 	lea    0xbae7(%rip),%rdx        # 17a80 <g_2888+0x6d0>
    bf99:	b9 30 00 00 00       	mov    $0x30,%ecx
    bf9e:	48 89 c7             	mov    %rax,%rdi
    bfa1:	48 89 d6             	mov    %rdx,%rsi
    bfa4:	f3 48 a5             	rep movsq %ds:(%rsi),%es:(%rdi)
    bfa7:	48 8d 85 f0 f9 ff ff 	lea    -0x610(%rbp),%rax
    bfae:	48 8d 15 2b 79 00 00 	lea    0x792b(%rip),%rdx        # 138e0 <g_2689+0x87c>
    bfb5:	b9 34 00 00 00       	mov    $0x34,%ecx
    bfba:	48 89 c7             	mov    %rax,%rdi
    bfbd:	48 89 d6             	mov    %rdx,%rsi
    bfc0:	f3 48 a5             	rep movsq %ds:(%rsi),%es:(%rdi)
    bfc3:	48 89 f2             	mov    %rsi,%rdx
    bfc6:	48 89 f8             	mov    %rdi,%rax
    bfc9:	8b 0a                	mov    (%rdx),%ecx
    bfcb:	89 08                	mov    %ecx,(%rax)
    bfcd:	0f b7 85 38 f5 ff ff 	movzwl -0xac8(%rbp),%eax
    bfd4:	48 0f bf d8          	movswq %ax,%rbx
    bfd8:	66 83 bd 3c f5 ff ff 	cmpw   $0x0,-0xac4(%rbp)
    bfdf:	00 
    bfe0:	0f 85 54 01 00 00    	jne    c13a <func_12+0x5a0>
    bfe6:	8b 85 5c f5 ff ff    	mov    -0xaa4(%rbp),%eax
    bfec:	48 89 85 28 f5 ff ff 	mov    %rax,-0xad8(%rbp)
    bff3:	4c 0f bf a5 3c f5 ff 	movswq -0xac4(%rbp),%r12
    bffa:	ff 
    bffb:	8b 85 5c f5 ff ff    	mov    -0xaa4(%rbp),%eax
    c001:	44 0f bf e8          	movswl %ax,%r13d
    c005:	44 8b b5 5c f5 ff ff 	mov    -0xaa4(%rbp),%r14d
    c00c:	0f b7 85 3c f5 ff ff 	movzwl -0xac4(%rbp),%eax
    c013:	44 0f b7 f8          	movzwl %ax,%r15d
    c017:	48 8b 05 a2 d9 00 00 	mov    0xd9a2(%rip),%rax        # 199c0 <g_1213>
    c01e:	48 8b 00             	mov    (%rax),%rax
    c021:	48 8b 00             	mov    (%rax),%rax
    c024:	48 8b 00             	mov    (%rax),%rax
    c027:	8b 95 5c f5 ff ff    	mov    -0xaa4(%rbp),%edx
    c02d:	88 10                	mov    %dl,(%rax)
    c02f:	0f b6 00             	movzbl (%rax),%eax
    c032:	0f b6 c0             	movzbl %al,%eax
    c035:	89 c6                	mov    %eax,%esi
    c037:	bf 44 00 00 00       	mov    $0x44,%edi
    c03c:	e8 ad c2 ff ff       	callq  82ee <safe_lshift_func_int8_t_s_u>
    c041:	0f b6 c0             	movzbl %al,%eax
    c044:	be 7d 00 00 00       	mov    $0x7d,%esi
    c049:	89 c7                	mov    %eax,%edi
    c04b:	e8 43 cb ff ff       	callq  8b93 <safe_mul_func_uint8_t_u_u>
    c050:	84 c0                	test   %al,%al
    c052:	75 0a                	jne    c05e <func_12+0x4c4>
    c054:	48 83 bd b0 f5 ff ff 	cmpq   $0x0,-0xa50(%rbp)
    c05b:	00 
    c05c:	74 07                	je     c065 <func_12+0x4cb>
    c05e:	b8 01 00 00 00       	mov    $0x1,%eax
    c063:	eb 05                	jmp    c06a <func_12+0x4d0>
    c065:	b8 00 00 00 00       	mov    $0x0,%eax
    c06a:	48 98                	cltq   
    c06c:	be 01 00 00 00       	mov    $0x1,%esi
    c071:	48 89 c7             	mov    %rax,%rdi
    c074:	e8 b5 cf ff ff       	callq  902e <safe_add_func_uint64_t_u_u>
    c079:	0f b7 c0             	movzwl %ax,%eax
    c07c:	44 89 fe             	mov    %r15d,%esi
    c07f:	89 c7                	mov    %eax,%edi
    c081:	e8 08 cd ff ff       	callq  8d8e <safe_div_func_uint16_t_u_u>
    c086:	4c 89 f6             	mov    %r14,%rsi
    c089:	bf 00 00 00 00       	mov    $0x0,%edi
    c08e:	e8 9b cf ff ff       	callq  902e <safe_add_func_uint64_t_u_u>
    c093:	0f b7 95 34 f5 ff ff 	movzwl -0xacc(%rbp),%edx
    c09a:	0f b7 d2             	movzwl %dx,%edx
    c09d:	48 39 d0             	cmp    %rdx,%rax
    c0a0:	0f 96 c0             	setbe  %al
    c0a3:	0f b6 d0             	movzbl %al,%edx
    c0a6:	0f bf 85 3c f5 ff ff 	movswl -0xac4(%rbp),%eax
    c0ad:	39 c2                	cmp    %eax,%edx
    c0af:	0f 9c c0             	setl   %al
    c0b2:	0f b6 c0             	movzbl %al,%eax
    c0b5:	44 89 ee             	mov    %r13d,%esi
    c0b8:	89 c7                	mov    %eax,%edi
    c0ba:	e8 36 c3 ff ff       	callq  83f5 <safe_mul_func_int16_t_s_s>
    c0bf:	0f b7 05 cc b0 00 00 	movzwl 0xb0cc(%rip),%eax        # 17192 <g_545+0xa>
    c0c6:	0f b6 d0             	movzbl %al,%edx
    c0c9:	0f b7 85 34 f5 ff ff 	movzwl -0xacc(%rbp),%eax
    c0d0:	0f b7 c0             	movzwl %ax,%eax
    c0d3:	39 85 5c f5 ff ff    	cmp    %eax,-0xaa4(%rbp)
    c0d9:	0f 94 c0             	sete   %al
    c0dc:	0f b6 c0             	movzbl %al,%eax
    c0df:	89 d6                	mov    %edx,%esi
    c0e1:	89 c7                	mov    %eax,%edi
    c0e3:	e8 f3 ca ff ff       	callq  8bdb <safe_div_func_uint8_t_u_u>
    c0e8:	8b 95 c4 f7 ff ff    	mov    -0x83c(%rbp),%edx
    c0ee:	0f b6 c0             	movzbl %al,%eax
    c0f1:	31 d0                	xor    %edx,%eax
    c0f3:	89 85 c4 f7 ff ff    	mov    %eax,-0x83c(%rbp)
    c0f9:	48 8b 05 50 da 00 00 	mov    0xda50(%rip),%rax        # 19b50 <g_1806>
    c100:	48 8b 00             	mov    (%rax),%rax
    c103:	48 8b 10             	mov    (%rax),%rdx
    c106:	0f b7 85 38 f5 ff ff 	movzwl -0xac8(%rbp),%eax
    c10d:	48 0f bf c0          	movswq %ax,%rax
    c111:	48 39 c2             	cmp    %rax,%rdx
    c114:	0f 95 c0             	setne  %al
    c117:	0f b6 c0             	movzbl %al,%eax
    c11a:	4c 89 e6             	mov    %r12,%rsi
    c11d:	48 89 c7             	mov    %rax,%rdi
    c120:	e8 83 c7 ff ff       	callq  88a8 <safe_sub_func_int64_t_s_s>
    c125:	48 39 85 28 f5 ff ff 	cmp    %rax,-0xad8(%rbp)
    c12c:	0f 95 c0             	setne  %al
    c12f:	0f b6 c0             	movzbl %al,%eax
    c132:	39 85 5c f5 ff ff    	cmp    %eax,-0xaa4(%rbp)
    c138:	73 07                	jae    c141 <func_12+0x5a7>
    c13a:	b8 01 00 00 00       	mov    $0x1,%eax
    c13f:	eb 05                	jmp    c146 <func_12+0x5ac>
    c141:	b8 00 00 00 00       	mov    $0x0,%eax
    c146:	48 98                	cltq   
    c148:	48 89 de             	mov    %rbx,%rsi
    c14b:	48 89 c7             	mov    %rax,%rdi
    c14e:	e8 61 c8 ff ff       	callq  89b4 <safe_mod_func_int64_t_s_s>
    c153:	89 c2                	mov    %eax,%edx
    c155:	8b 85 5c f5 ff ff    	mov    -0xaa4(%rbp),%eax
    c15b:	0f b7 c0             	movzwl %ax,%eax
    c15e:	89 d6                	mov    %edx,%esi
    c160:	89 c7                	mov    %eax,%edi
    c162:	e8 e1 cc ff ff       	callq  8e48 <safe_rshift_func_uint16_t_u_s>
    c167:	48 be d7 6e a5 15 ae 	movabs $0x7f3019ae15a56ed7,%rsi
    c16e:	19 30 7f 
    c171:	bf 9d 68 3a 78       	mov    $0x783a689d,%edi
    c176:	e8 c6 c6 ff ff       	callq  8841 <safe_add_func_int64_t_s_s>
    c17b:	8b 85 5c f5 ff ff    	mov    -0xaa4(%rbp),%eax
    c181:	be 09 00 00 00       	mov    $0x9,%esi
    c186:	89 c7                	mov    %eax,%edi
    c188:	e8 29 c4 ff ff       	callq  85b6 <safe_add_func_int32_t_s_s>
    c18d:	be 0f 04 b7 eb       	mov    $0xebb7040f,%esi
    c192:	89 c7                	mov    %eax,%edi
    c194:	e8 1d c4 ff ff       	callq  85b6 <safe_add_func_int32_t_s_s>
    c199:	21 85 48 f5 ff ff    	and    %eax,-0xab8(%rbp)
    c19f:	8b 85 48 f5 ff ff    	mov    -0xab8(%rbp),%eax
    c1a5:	0f b7 c8             	movzwl %ax,%ecx
    c1a8:	48 8b 05 51 d6 00 00 	mov    0xd651(%rip),%rax        # 19800 <g_762>
    c1af:	0f b7 10             	movzwl (%rax),%edx
    c1b2:	8d 72 ff             	lea    -0x1(%rdx),%esi
    c1b5:	66 89 30             	mov    %si,(%rax)
    c1b8:	0f b7 c2             	movzwl %dx,%eax
    c1bb:	89 ce                	mov    %ecx,%esi
    c1bd:	89 c7                	mov    %eax,%edi
    c1bf:	e8 79 cb ff ff       	callq  8d3d <safe_mul_func_uint16_t_u_u>
    c1c4:	66 85 c0             	test   %ax,%ax
    c1c7:	0f 84 e4 06 00 00    	je     c8b1 <func_12+0xd17>
    c1cd:	48 8d 05 20 b0 00 00 	lea    0xb020(%rip),%rax        # 171f4 <g_859+0x14>
    c1d4:	48 89 85 20 f6 ff ff 	mov    %rax,-0x9e0(%rbp)
    c1db:	48 8d 05 ae ae 00 00 	lea    0xaeae(%rip),%rax        # 17090 <g_32>
    c1e2:	48 89 85 28 f6 ff ff 	mov    %rax,-0x9d8(%rbp)
    c1e9:	48 8d 05 a0 ae 00 00 	lea    0xaea0(%rip),%rax        # 17090 <g_32>
    c1f0:	48 89 85 30 f6 ff ff 	mov    %rax,-0x9d0(%rbp)
    c1f7:	48 8d 05 ba ae 00 00 	lea    0xaeba(%rip),%rax        # 170b8 <g_64+0x18>
    c1fe:	48 89 85 38 f6 ff ff 	mov    %rax,-0x9c8(%rbp)
    c205:	c7 85 20 f7 ff ff f3 	movl   $0xfd616cf3,-0x8e0(%rbp)
    c20c:	6c 61 fd 
    c20f:	c7 85 24 f7 ff ff f3 	movl   $0xfd616cf3,-0x8dc(%rbp)
    c216:	6c 61 fd 
    c219:	c7 85 28 f7 ff ff 96 	movl   $0x762c9096,-0x8d8(%rbp)
    c220:	90 2c 76 
    c223:	c7 85 2c f7 ff ff f3 	movl   $0xfd616cf3,-0x8d4(%rbp)
    c22a:	6c 61 fd 
    c22d:	c7 85 30 f7 ff ff f3 	movl   $0xfd616cf3,-0x8d0(%rbp)
    c234:	6c 61 fd 
    c237:	c7 85 34 f7 ff ff 96 	movl   $0x762c9096,-0x8cc(%rbp)
    c23e:	90 2c 76 
    c241:	c7 85 38 f7 ff ff f3 	movl   $0xfd616cf3,-0x8c8(%rbp)
    c248:	6c 61 fd 
    c24b:	c7 85 3c f7 ff ff 1b 	movl   $0x761591b,-0x8c4(%rbp)
    c252:	59 61 07 
    c255:	c7 85 40 f7 ff ff 01 	movl   $0x1,-0x8c0(%rbp)
    c25c:	00 00 00 
    c25f:	c7 85 44 f7 ff ff 01 	movl   $0x1,-0x8bc(%rbp)
    c266:	00 00 00 
    c269:	c7 85 48 f7 ff ff 1b 	movl   $0x761591b,-0x8b8(%rbp)
    c270:	59 61 07 
    c273:	c7 85 4c f7 ff ff 01 	movl   $0x1,-0x8b4(%rbp)
    c27a:	00 00 00 
    c27d:	c7 85 50 f7 ff ff 01 	movl   $0x1,-0x8b0(%rbp)
    c284:	00 00 00 
    c287:	c7 85 54 f7 ff ff 1b 	movl   $0x761591b,-0x8ac(%rbp)
    c28e:	59 61 07 
    c291:	c7 85 58 f7 ff ff 01 	movl   $0x1,-0x8a8(%rbp)
    c298:	00 00 00 
    c29b:	c7 85 5c f7 ff ff f3 	movl   $0xfd616cf3,-0x8a4(%rbp)
    c2a2:	6c 61 fd 
    c2a5:	c7 85 60 f7 ff ff 01 	movl   $0x1,-0x8a0(%rbp)
    c2ac:	00 00 00 
    c2af:	c7 85 64 f7 ff ff 01 	movl   $0x1,-0x89c(%rbp)
    c2b6:	00 00 00 
    c2b9:	c7 85 68 f7 ff ff f3 	movl   $0xfd616cf3,-0x898(%rbp)
    c2c0:	6c 61 fd 
    c2c3:	c7 85 6c f7 ff ff 01 	movl   $0x1,-0x894(%rbp)
    c2ca:	00 00 00 
    c2cd:	c7 85 70 f7 ff ff 01 	movl   $0x1,-0x890(%rbp)
    c2d4:	00 00 00 
    c2d7:	48 c7 85 72 f6 ff ff 	movq   $0x0,-0x98e(%rbp)
    c2de:	00 00 00 00 
    c2e2:	c7 85 7a f6 ff ff 00 	movl   $0x0,-0x986(%rbp)
    c2e9:	00 00 00 
    c2ec:	66 c7 85 7e f6 ff ff 	movw   $0x0,-0x982(%rbp)
    c2f3:	00 00 
    c2f5:	48 c7 85 40 f6 ff ff 	movq   $0x0,-0x9c0(%rbp)
    c2fc:	00 00 00 00 
    c300:	48 8d 05 91 d1 00 00 	lea    0xd191(%rip),%rax        # 19498 <g_146+0x18>
    c307:	48 89 85 48 f6 ff ff 	mov    %rax,-0x9b8(%rbp)
    c30e:	48 8d 05 1d ae 00 00 	lea    0xae1d(%rip),%rax        # 17132 <g_149>
    c315:	48 89 85 50 f6 ff ff 	mov    %rax,-0x9b0(%rbp)
    c31c:	c7 85 70 f5 ff ff 04 	movl   $0x4,-0xa90(%rbp)
    c323:	00 00 00 
    c326:	c7 85 4c f5 ff ff 00 	movl   $0x0,-0xab4(%rbp)
    c32d:	00 00 00 
    c330:	eb 1e                	jmp    c350 <func_12+0x7b6>
    c332:	8b 85 4c f5 ff ff    	mov    -0xab4(%rbp),%eax
    c338:	48 98                	cltq   
    c33a:	48 8d 15 77 ad 00 00 	lea    0xad77(%rip),%rdx        # 170b8 <g_64+0x18>
    c341:	48 89 94 c5 80 f6 ff 	mov    %rdx,-0x980(%rbp,%rax,8)
    c348:	ff 
    c349:	83 85 4c f5 ff ff 01 	addl   $0x1,-0xab4(%rbp)
    c350:	83 bd 4c f5 ff ff 08 	cmpl   $0x8,-0xab4(%rbp)
    c357:	7e d9                	jle    c332 <func_12+0x798>
    c359:	90                   	nop
    c35a:	c7 05 98 ad 00 00 00 	movl   $0x0,0xad98(%rip)        # 170fc <g_92>
    c361:	00 00 00 
    c364:	eb 66                	jmp    c3cc <func_12+0x832>
    c366:	c6 05 d7 ad 00 00 00 	movb   $0x0,0xadd7(%rip)        # 17144 <g_242>
    c36d:	eb 43                	jmp    c3b2 <func_12+0x818>
    c36f:	8b 05 87 ad 00 00    	mov    0xad87(%rip),%eax        # 170fc <g_92>
    c375:	0f b6 15 c8 ad 00 00 	movzbl 0xadc8(%rip),%edx        # 17144 <g_242>
    c37c:	0f b6 d2             	movzbl %dl,%edx
    c37f:	48 63 ca             	movslq %edx,%rcx
    c382:	48 63 d0             	movslq %eax,%rdx
    c385:	48 89 d0             	mov    %rdx,%rax
    c388:	48 01 c0             	add    %rax,%rax
    c38b:	48 01 d0             	add    %rdx,%rax
    c38e:	48 01 c0             	add    %rax,%rax
    c391:	48 8d 14 08          	lea    (%rax,%rcx,1),%rdx
    c395:	48 8d 05 84 ae 00 00 	lea    0xae84(%rip),%rax        # 17220 <g_1531>
    c39c:	48 01 d0             	add    %rdx,%rax
    c39f:	c6 00 68             	movb   $0x68,(%rax)
    c3a2:	0f b6 05 9b ad 00 00 	movzbl 0xad9b(%rip),%eax        # 17144 <g_242>
    c3a9:	83 c0 01             	add    $0x1,%eax
    c3ac:	88 05 92 ad 00 00    	mov    %al,0xad92(%rip)        # 17144 <g_242>
    c3b2:	0f b6 05 8b ad 00 00 	movzbl 0xad8b(%rip),%eax        # 17144 <g_242>
    c3b9:	3c 05                	cmp    $0x5,%al
    c3bb:	76 b2                	jbe    c36f <func_12+0x7d5>
    c3bd:	8b 05 39 ad 00 00    	mov    0xad39(%rip),%eax        # 170fc <g_92>
    c3c3:	83 c0 01             	add    $0x1,%eax
    c3c6:	89 05 30 ad 00 00    	mov    %eax,0xad30(%rip)        # 170fc <g_92>
    c3cc:	8b 05 2a ad 00 00    	mov    0xad2a(%rip),%eax        # 170fc <g_92>
    c3d2:	83 f8 07             	cmp    $0x7,%eax
    c3d5:	7e 8f                	jle    c366 <func_12+0x7cc>
    c3d7:	0f b7 85 74 f6 ff ff 	movzwl -0x98c(%rbp),%eax
    c3de:	83 e8 01             	sub    $0x1,%eax
    c3e1:	66 89 85 74 f6 ff ff 	mov    %ax,-0x98c(%rbp)
    c3e8:	c7 05 8e e0 00 00 00 	movl   $0x0,0xe08e(%rip)        # 1a480 <g_893>
    c3ef:	00 00 00 
    c3f2:	e9 a7 04 00 00       	jmpq   c89e <func_12+0xd04>
    c3f7:	c7 85 50 f5 ff ff 02 	movl   $0x2,-0xab0(%rbp)
    c3fe:	00 00 00 
    c401:	48 8d 05 18 d7 00 00 	lea    0xd718(%rip),%rax        # 19b20 <g_1720+0x20>
    c408:	48 89 85 98 f5 ff ff 	mov    %rax,-0xa68(%rbp)
    c40f:	48 8d 85 98 f5 ff ff 	lea    -0xa68(%rbp),%rax
    c416:	48 89 85 a0 f5 ff ff 	mov    %rax,-0xa60(%rbp)
    c41d:	48 8d 85 a0 f5 ff ff 	lea    -0xa60(%rbp),%rax
    c424:	48 89 85 58 f6 ff ff 	mov    %rax,-0x9a8(%rbp)
    c42b:	48 c7 05 02 ad 00 00 	movq   $0x0,0xad02(%rip)        # 17138 <g_186>
    c432:	00 00 00 00 
    c436:	e9 4b 02 00 00       	jmpq   c686 <func_12+0xaec>
    c43b:	c7 85 74 f5 ff ff ff 	movl   $0xffffffff,-0xa8c(%rbp)
    c442:	ff ff ff 
    c445:	48 c7 85 68 f6 ff ff 	movq   $0x0,-0x998(%rbp)
    c44c:	00 00 00 00 
    c450:	66 c7 05 f7 ad 00 00 	movw   $0x0,0xadf7(%rip)        # 17250 <g_1623>
    c457:	00 00 
    c459:	e9 06 02 00 00       	jmpq   c664 <func_12+0xaca>
    c45e:	48 c7 85 a8 f5 ff ff 	movq   $0x0,-0xa58(%rbp)
    c465:	00 00 00 00 
    c469:	48 8d 85 a8 f5 ff ff 	lea    -0xa58(%rbp),%rax
    c470:	48 89 85 a0 fb ff ff 	mov    %rax,-0x460(%rbp)
    c477:	48 8d 85 a8 f5 ff ff 	lea    -0xa58(%rbp),%rax
    c47e:	48 89 85 a8 fb ff ff 	mov    %rax,-0x458(%rbp)
    c485:	48 8d 85 a8 f5 ff ff 	lea    -0xa58(%rbp),%rax
    c48c:	48 89 85 b0 fb ff ff 	mov    %rax,-0x450(%rbp)
    c493:	48 8d 85 a8 f5 ff ff 	lea    -0xa58(%rbp),%rax
    c49a:	48 89 85 b8 fb ff ff 	mov    %rax,-0x448(%rbp)
    c4a1:	48 8d 85 a8 f5 ff ff 	lea    -0xa58(%rbp),%rax
    c4a8:	48 89 85 c0 fb ff ff 	mov    %rax,-0x440(%rbp)
    c4af:	48 8d 85 a8 f5 ff ff 	lea    -0xa58(%rbp),%rax
    c4b6:	48 89 85 c8 fb ff ff 	mov    %rax,-0x438(%rbp)
    c4bd:	48 8d 85 a8 f5 ff ff 	lea    -0xa58(%rbp),%rax
    c4c4:	48 89 85 d0 fb ff ff 	mov    %rax,-0x430(%rbp)
    c4cb:	48 8d 85 a8 f5 ff ff 	lea    -0xa58(%rbp),%rax
    c4d2:	48 89 85 d8 fb ff ff 	mov    %rax,-0x428(%rbp)
    c4d9:	48 8d 85 a8 f5 ff ff 	lea    -0xa58(%rbp),%rax
    c4e0:	48 89 85 e0 fb ff ff 	mov    %rax,-0x420(%rbp)
    c4e7:	48 8d 85 a8 f5 ff ff 	lea    -0xa58(%rbp),%rax
    c4ee:	48 89 85 e8 fb ff ff 	mov    %rax,-0x418(%rbp)
    c4f5:	48 8d 85 a8 f5 ff ff 	lea    -0xa58(%rbp),%rax
    c4fc:	48 89 85 f0 fb ff ff 	mov    %rax,-0x410(%rbp)
    c503:	48 8d 85 a8 f5 ff ff 	lea    -0xa58(%rbp),%rax
    c50a:	48 89 85 f8 fb ff ff 	mov    %rax,-0x408(%rbp)
    c511:	48 8d 85 a8 f5 ff ff 	lea    -0xa58(%rbp),%rax
    c518:	48 89 85 00 fc ff ff 	mov    %rax,-0x400(%rbp)
    c51f:	48 8d 85 a8 f5 ff ff 	lea    -0xa58(%rbp),%rax
    c526:	48 89 85 08 fc ff ff 	mov    %rax,-0x3f8(%rbp)
    c52d:	48 8d 85 a8 f5 ff ff 	lea    -0xa58(%rbp),%rax
    c534:	48 89 85 10 fc ff ff 	mov    %rax,-0x3f0(%rbp)
    c53b:	48 8d 85 a8 f5 ff ff 	lea    -0xa58(%rbp),%rax
    c542:	48 89 85 18 fc ff ff 	mov    %rax,-0x3e8(%rbp)
    c549:	48 8d 85 a8 f5 ff ff 	lea    -0xa58(%rbp),%rax
    c550:	48 89 85 20 fc ff ff 	mov    %rax,-0x3e0(%rbp)
    c557:	48 8d 85 a8 f5 ff ff 	lea    -0xa58(%rbp),%rax
    c55e:	48 89 85 28 fc ff ff 	mov    %rax,-0x3d8(%rbp)
    c565:	48 8d 85 a8 f5 ff ff 	lea    -0xa58(%rbp),%rax
    c56c:	48 89 85 30 fc ff ff 	mov    %rax,-0x3d0(%rbp)
    c573:	48 8d 85 a8 f5 ff ff 	lea    -0xa58(%rbp),%rax
    c57a:	48 89 85 38 fc ff ff 	mov    %rax,-0x3c8(%rbp)
    c581:	48 8d 85 a8 f5 ff ff 	lea    -0xa58(%rbp),%rax
    c588:	48 89 85 40 fc ff ff 	mov    %rax,-0x3c0(%rbp)
    c58f:	48 8d 85 a8 f5 ff ff 	lea    -0xa58(%rbp),%rax
    c596:	48 89 85 48 fc ff ff 	mov    %rax,-0x3b8(%rbp)
    c59d:	48 8d 85 a8 f5 ff ff 	lea    -0xa58(%rbp),%rax
    c5a4:	48 89 85 50 fc ff ff 	mov    %rax,-0x3b0(%rbp)
    c5ab:	48 8d 85 a8 f5 ff ff 	lea    -0xa58(%rbp),%rax
    c5b2:	48 89 85 58 fc ff ff 	mov    %rax,-0x3a8(%rbp)
    c5b9:	48 8d 85 a8 f5 ff ff 	lea    -0xa58(%rbp),%rax
    c5c0:	48 89 85 60 fc ff ff 	mov    %rax,-0x3a0(%rbp)
    c5c7:	48 8d 85 a8 f5 ff ff 	lea    -0xa58(%rbp),%rax
    c5ce:	48 89 85 68 fc ff ff 	mov    %rax,-0x398(%rbp)
    c5d5:	48 8d 85 a8 f5 ff ff 	lea    -0xa58(%rbp),%rax
    c5dc:	48 89 85 70 fc ff ff 	mov    %rax,-0x390(%rbp)
    c5e3:	48 8d 85 a8 f5 ff ff 	lea    -0xa58(%rbp),%rax
    c5ea:	48 89 85 78 fc ff ff 	mov    %rax,-0x388(%rbp)
    c5f1:	48 8d 85 a8 f5 ff ff 	lea    -0xa58(%rbp),%rax
    c5f8:	48 89 85 80 fc ff ff 	mov    %rax,-0x380(%rbp)
    c5ff:	48 8d 85 a8 f5 ff ff 	lea    -0xa58(%rbp),%rax
    c606:	48 89 85 88 fc ff ff 	mov    %rax,-0x378(%rbp)
    c60d:	83 ad 50 f5 ff ff 01 	subl   $0x1,-0xab0(%rbp)
    c614:	48 8b 85 48 f6 ff ff 	mov    -0x9b8(%rbp),%rax
    c61b:	48 3b 85 68 f6 ff ff 	cmp    -0x998(%rbp),%rax
    c622:	0f 94 c0             	sete   %al
    c625:	0f b6 d0             	movzbl %al,%edx
    c628:	48 c7 85 40 f6 ff ff 	movq   $0x0,-0x9c0(%rbp)
    c62f:	00 00 00 00 
    c633:	48 83 bd 58 f6 ff ff 	cmpq   $0x0,-0x9a8(%rbp)
    c63a:	00 
    c63b:	0f 94 c0             	sete   %al
    c63e:	0f b6 c0             	movzbl %al,%eax
    c641:	89 d6                	mov    %edx,%esi
    c643:	89 c7                	mov    %eax,%edi
    c645:	e8 6c bf ff ff       	callq  85b6 <safe_add_func_int32_t_s_s>
    c64a:	48 8b 95 28 f6 ff ff 	mov    -0x9d8(%rbp),%rdx
    c651:	89 02                	mov    %eax,(%rdx)
    c653:	0f b7 05 f6 ab 00 00 	movzwl 0xabf6(%rip),%eax        # 17250 <g_1623>
    c65a:	83 e8 01             	sub    $0x1,%eax
    c65d:	66 89 05 ec ab 00 00 	mov    %ax,0xabec(%rip)        # 17250 <g_1623>
    c664:	0f b7 05 e5 ab 00 00 	movzwl 0xabe5(%rip),%eax        # 17250 <g_1623>
    c66b:	66 85 c0             	test   %ax,%ax
    c66e:	0f 89 ea fd ff ff    	jns    c45e <func_12+0x8c4>
    c674:	48 8b 05 bd aa 00 00 	mov    0xaabd(%rip),%rax        # 17138 <g_186>
    c67b:	48 83 e8 01          	sub    $0x1,%rax
    c67f:	48 89 05 b2 aa 00 00 	mov    %rax,0xaab2(%rip)        # 17138 <g_186>
    c686:	48 8b 05 ab aa 00 00 	mov    0xaaab(%rip),%rax        # 17138 <g_186>
    c68d:	48 85 c0             	test   %rax,%rax
    c690:	0f 89 a5 fd ff ff    	jns    c43b <func_12+0x8a1>
    c696:	48 83 bd 50 f6 ff ff 	cmpq   $0x0,-0x9b0(%rbp)
    c69d:	00 
    c69e:	0f 95 c0             	setne  %al
    c6a1:	0f b6 c0             	movzbl %al,%eax
    c6a4:	89 c7                	mov    %eax,%edi
    c6a6:	e8 3e c6 ff ff       	callq  8ce9 <safe_unary_minus_func_uint16_t_u>
    c6ab:	48 8b 05 06 d3 00 00 	mov    0xd306(%rip),%rax        # 199b8 <g_1214>
    c6b2:	48 8b 00             	mov    (%rax),%rax
    c6b5:	48 8b 00             	mov    (%rax),%rax
    c6b8:	0f b6 00             	movzbl (%rax),%eax
    c6bb:	0f be d8             	movsbl %al,%ebx
    c6be:	0f b7 85 38 f5 ff ff 	movzwl -0xac8(%rbp),%eax
    c6c5:	0f bf d0             	movswl %ax,%edx
    c6c8:	0f b7 85 38 f5 ff ff 	movzwl -0xac8(%rbp),%eax
    c6cf:	66 85 c0             	test   %ax,%ax
    c6d2:	0f 95 c0             	setne  %al
    c6d5:	0f b6 c0             	movzbl %al,%eax
    c6d8:	89 85 60 f5 ff ff    	mov    %eax,-0xaa0(%rbp)
    c6de:	48 8b 05 1b d1 00 00 	mov    0xd11b(%rip),%rax        # 19800 <g_762>
    c6e5:	8b 8d 60 f5 ff ff    	mov    -0xaa0(%rbp),%ecx
    c6eb:	66 89 08             	mov    %cx,(%rax)
    c6ee:	0f b7 00             	movzwl (%rax),%eax
    c6f1:	0f b7 c0             	movzwl %ax,%eax
    c6f4:	89 d6                	mov    %edx,%esi
    c6f6:	89 c7                	mov    %eax,%edi
    c6f8:	e8 7d c7 ff ff       	callq  8e7a <safe_rshift_func_uint16_t_u_u>
    c6fd:	0f b7 95 34 f5 ff ff 	movzwl -0xacc(%rbp),%edx
    c704:	09 d0                	or     %edx,%eax
    c706:	0f b7 c0             	movzwl %ax,%eax
    c709:	39 85 70 f5 ff ff    	cmp    %eax,-0xa90(%rbp)
    c70f:	7c 13                	jl     c724 <func_12+0xb8a>
    c711:	0f b7 85 34 f5 ff ff 	movzwl -0xacc(%rbp),%eax
    c718:	66 85 c0             	test   %ax,%ax
    c71b:	74 07                	je     c724 <func_12+0xb8a>
    c71d:	b8 01 00 00 00       	mov    $0x1,%eax
    c722:	eb 05                	jmp    c729 <func_12+0xb8f>
    c724:	b8 00 00 00 00       	mov    $0x0,%eax
    c729:	48 63 d0             	movslq %eax,%rdx
    c72c:	48 8b 05 1d d4 00 00 	mov    0xd41d(%rip),%rax        # 19b50 <g_1806>
    c733:	48 8b 00             	mov    (%rax),%rax
    c736:	48 8b 00             	mov    (%rax),%rax
    c739:	48 39 c2             	cmp    %rax,%rdx
    c73c:	0f 9e c0             	setle  %al
    c73f:	0f b6 c0             	movzbl %al,%eax
    c742:	89 c6                	mov    %eax,%esi
    c744:	bf 26 00 00 00       	mov    $0x26,%edi
    c749:	e8 c4 ba ff ff       	callq  8212 <safe_mul_func_int8_t_s_s>
    c74e:	0f be d0             	movsbl %al,%edx
    c751:	48 8b 85 20 f6 ff ff 	mov    -0x9e0(%rbp),%rax
    c758:	8b 00                	mov    (%rax),%eax
    c75a:	39 c2                	cmp    %eax,%edx
    c75c:	7e 0d                	jle    c76b <func_12+0xbd1>
    c75e:	48 8b 05 9b d0 00 00 	mov    0xd09b(%rip),%rax        # 19800 <g_762>
    c765:	0f b7 00             	movzwl (%rax),%eax
    c768:	66 85 c0             	test   %ax,%ax
    c76b:	89 de                	mov    %ebx,%esi
    c76d:	bf f6 ff ff ff       	mov    $0xfffffff6,%edi
    c772:	e8 7b ba ff ff       	callq  81f2 <safe_sub_func_int8_t_s_s>
    c777:	83 c8 04             	or     $0x4,%eax
    c77a:	48 0f be d0          	movsbq %al,%rdx
    c77e:	48 8b 05 33 cd 00 00 	mov    0xcd33(%rip),%rax        # 194b8 <g_382>
    c785:	8b 00                	mov    (%rax),%eax
    c787:	89 c1                	mov    %eax,%ecx
    c789:	89 d0                	mov    %edx,%eax
    c78b:	21 c1                	and    %eax,%ecx
    c78d:	89 ca                	mov    %ecx,%edx
    c78f:	48 8b 05 22 cd 00 00 	mov    0xcd22(%rip),%rax        # 194b8 <g_382>
    c796:	89 10                	mov    %edx,(%rax)
    c798:	48 8b 05 b1 d3 00 00 	mov    0xd3b1(%rip),%rax        # 19b50 <g_1806>
    c79f:	48 8b 00             	mov    (%rax),%rax
    c7a2:	48 c7 00 00 00 00 00 	movq   $0x0,(%rax)
    c7a9:	48 8b 85 20 f6 ff ff 	mov    -0x9e0(%rbp),%rax
    c7b0:	c7 00 00 00 00 00    	movl   $0x0,(%rax)
    c7b6:	0f b7 05 93 aa 00 00 	movzwl 0xaa93(%rip),%eax        # 17250 <g_1623>
    c7bd:	66 85 c0             	test   %ax,%ax
    c7c0:	74 05                	je     c7c7 <func_12+0xc2d>
    c7c2:	e9 93 fb ff ff       	jmpq   c35a <func_12+0x7c0>
    c7c7:	66 c7 05 88 a9 00 00 	movw   $0x0,0xa988(%rip)        # 17158 <g_374>
    c7ce:	00 00 
    c7d0:	e9 aa 00 00 00       	jmpq   c87f <func_12+0xce5>
    c7d5:	48 8d 85 a0 fb ff ff 	lea    -0x460(%rbp),%rax
    c7dc:	48 8d 15 1d b4 00 00 	lea    0xb41d(%rip),%rdx        # 17c00 <g_2888+0x850>
    c7e3:	b9 38 00 00 00       	mov    $0x38,%ecx
    c7e8:	48 89 c7             	mov    %rax,%rdi
    c7eb:	48 89 d6             	mov    %rdx,%rsi
    c7ee:	f3 48 a5             	rep movsq %ds:(%rsi),%es:(%rdi)
    c7f1:	48 8b 05 90 d1 00 00 	mov    0xd190(%rip),%rax        # 19988 <g_824>
    c7f8:	48 8b 00             	mov    (%rax),%rax
    c7fb:	48 8b 95 30 fd ff ff 	mov    -0x2d0(%rbp),%rdx
    c802:	48 89 10             	mov    %rdx,(%rax)
    c805:	c6 05 78 dc 00 00 00 	movb   $0x0,0xdc78(%rip)        # 1a484 <g_1109>
    c80c:	eb 52                	jmp    c860 <func_12+0xcc6>
    c80e:	48 8d 85 80 f6 ff ff 	lea    -0x980(%rbp),%rax
    c815:	48 83 c0 28          	add    $0x28,%rax
    c819:	48 89 85 60 f6 ff ff 	mov    %rax,-0x9a0(%rbp)
    c820:	48 8b 05 91 cc 00 00 	mov    0xcc91(%rip),%rax        # 194b8 <g_382>
    c827:	8b 00                	mov    (%rax),%eax
    c829:	85 c0                	test   %eax,%eax
    c82b:	75 40                	jne    c86d <func_12+0xcd3>
    c82d:	48 8b 85 b8 f5 ff ff 	mov    -0xa48(%rbp),%rax
    c834:	48 89 05 75 dc 00 00 	mov    %rax,0xdc75(%rip)        # 1a4b0 <g_1917+0x10>
    c83b:	48 8b 85 60 f6 ff ff 	mov    -0x9a0(%rbp),%rax
    c842:	48 8d 95 20 f7 ff ff 	lea    -0x8e0(%rbp),%rdx
    c849:	48 83 c2 4c          	add    $0x4c,%rdx
    c84d:	48 89 10             	mov    %rdx,(%rax)
    c850:	0f b6 05 2d dc 00 00 	movzbl 0xdc2d(%rip),%eax        # 1a484 <g_1109>
    c857:	83 c0 01             	add    $0x1,%eax
    c85a:	88 05 24 dc 00 00    	mov    %al,0xdc24(%rip)        # 1a484 <g_1109>
    c860:	0f b6 05 1d dc 00 00 	movzbl 0xdc1d(%rip),%eax        # 1a484 <g_1109>
    c867:	84 c0                	test   %al,%al
    c869:	74 a3                	je     c80e <func_12+0xc74>
    c86b:	eb 01                	jmp    c86e <func_12+0xcd4>
    c86d:	90                   	nop
    c86e:	0f b7 05 e3 a8 00 00 	movzwl 0xa8e3(%rip),%eax        # 17158 <g_374>
    c875:	83 c0 01             	add    $0x1,%eax
    c878:	66 89 05 d9 a8 00 00 	mov    %ax,0xa8d9(%rip)        # 17158 <g_374>
    c87f:	0f b7 05 d2 a8 00 00 	movzwl 0xa8d2(%rip),%eax        # 17158 <g_374>
    c886:	66 85 c0             	test   %ax,%ax
    c889:	0f 84 46 ff ff ff    	je     c7d5 <func_12+0xc3b>
    c88f:	8b 05 eb db 00 00    	mov    0xdbeb(%rip),%eax        # 1a480 <g_893>
    c895:	83 c0 01             	add    $0x1,%eax
    c898:	89 05 e2 db 00 00    	mov    %eax,0xdbe2(%rip)        # 1a480 <g_893>
    c89e:	8b 05 dc db 00 00    	mov    0xdbdc(%rip),%eax        # 1a480 <g_893>
    c8a4:	85 c0                	test   %eax,%eax
    c8a6:	0f 84 4b fb ff ff    	je     c3f7 <func_12+0x85d>
    c8ac:	e9 65 03 00 00       	jmpq   cc16 <func_12+0x107c>
    c8b1:	48 c7 85 88 f5 ff ff 	movq   $0x0,-0xa78(%rbp)
    c8b8:	00 00 00 00 
    c8bc:	48 8d 85 88 f5 ff ff 	lea    -0xa78(%rbp),%rax
    c8c3:	48 89 85 90 f5 ff ff 	mov    %rax,-0xa70(%rbp)
    c8ca:	48 8d 85 90 f5 ff ff 	lea    -0xa70(%rbp),%rax
    c8d1:	48 89 85 e8 f5 ff ff 	mov    %rax,-0xa18(%rbp)
    c8d8:	66 c7 85 46 f5 ff ff 	movw   $0xffff,-0xaba(%rbp)
    c8df:	ff ff 
    c8e1:	c7 85 54 f5 ff ff a3 	movl   $0x35d1cea3,-0xaac(%rbp)
    c8e8:	ce d1 35 
    c8eb:	48 c7 85 98 f5 ff ff 	movq   $0x0,-0xa68(%rbp)
    c8f2:	00 00 00 00 
    c8f6:	48 8d 85 98 f5 ff ff 	lea    -0xa68(%rbp),%rax
    c8fd:	48 89 85 a0 f5 ff ff 	mov    %rax,-0xa60(%rbp)
    c904:	48 8d 85 a0 f5 ff ff 	lea    -0xa60(%rbp),%rax
    c90b:	48 89 85 f0 f5 ff ff 	mov    %rax,-0xa10(%rbp)
    c912:	48 c7 85 f8 f5 ff ff 	movq   $0xfffffffffffffff6,-0xa08(%rbp)
    c919:	f6 ff ff ff 
    c91d:	c7 85 58 f5 ff ff ff 	movl   $0xffffffff,-0xaa8(%rbp)
    c924:	ff ff ff 
    c927:	c7 85 48 f5 ff ff 00 	movl   $0x0,-0xab8(%rbp)
    c92e:	00 00 00 
    c931:	e9 d3 02 00 00       	jmpq   cc09 <func_12+0x106f>
    c936:	48 8d 05 73 cb 00 00 	lea    0xcb73(%rip),%rax        # 194b0 <g_198>
    c93d:	48 89 85 00 f6 ff ff 	mov    %rax,-0xa00(%rbp)
    c944:	48 8d 95 a0 fb ff ff 	lea    -0x460(%rbp),%rdx
    c94b:	b8 00 00 00 00       	mov    $0x0,%eax
    c950:	b9 3c 00 00 00       	mov    $0x3c,%ecx
    c955:	48 89 d7             	mov    %rdx,%rdi
    c958:	f3 48 ab             	rep stos %rax,%es:(%rdi)
    c95b:	48 8d 05 6e d1 00 00 	lea    0xd16e(%rip),%rax        # 19ad0 <g_1235>
    c962:	48 89 85 a8 f5 ff ff 	mov    %rax,-0xa58(%rbp)
    c969:	48 8d 85 a8 f5 ff ff 	lea    -0xa58(%rbp),%rax
    c970:	48 89 85 08 f6 ff ff 	mov    %rax,-0x9f8(%rbp)
    c977:	48 8d 05 42 d0 00 00 	lea    0xd042(%rip),%rax        # 199c0 <g_1213>
    c97e:	48 89 85 10 f6 ff ff 	mov    %rax,-0x9f0(%rbp)
    c985:	48 8d 05 1c a8 00 00 	lea    0xa81c(%rip),%rax        # 171a8 <g_615>
    c98c:	48 89 85 18 f6 ff ff 	mov    %rax,-0x9e8(%rbp)
    c993:	c7 85 6c f5 ff ff 06 	movl   $0x6,-0xa94(%rbp)
    c99a:	00 00 00 
    c99d:	0f b7 85 38 f5 ff ff 	movzwl -0xac8(%rbp),%eax
    c9a4:	48 0f bf d8          	movswq %ax,%rbx
    c9a8:	48 8b 05 99 d1 00 00 	mov    0xd199(%rip),%rax        # 19b48 <g_1756>
    c9af:	48 8b 00             	mov    (%rax),%rax
    c9b2:	8b 00                	mov    (%rax),%eax
    c9b4:	4c 63 e0             	movslq %eax,%r12
    c9b7:	0f bf 95 46 f5 ff ff 	movswl -0xaba(%rbp),%edx
    c9be:	48 83 bd c8 f5 ff ff 	cmpq   $0x0,-0xa38(%rbp)
    c9c5:	00 
    c9c6:	0f 95 c0             	setne  %al
    c9c9:	0f b6 c0             	movzbl %al,%eax
    c9cc:	89 d6                	mov    %edx,%esi
    c9ce:	89 c7                	mov    %eax,%edi
    c9d0:	e8 28 c5 ff ff       	callq  8efd <safe_mod_func_uint32_t_u_u>
    c9d5:	3d 92 9b 00 00       	cmp    $0x9b92,%eax
    c9da:	0f 94 c0             	sete   %al
    c9dd:	0f b6 c0             	movzbl %al,%eax
    c9e0:	89 85 c4 f7 ff ff    	mov    %eax,-0x83c(%rbp)
    c9e6:	48 8b 05 db ca 00 00 	mov    0xcadb(%rip),%rax        # 194c8 <g_440>
    c9ed:	48 c7 00 00 00 00 00 	movq   $0x0,(%rax)
    c9f4:	48 8b 00             	mov    (%rax),%rax
    c9f7:	48 89 85 c0 f5 ff ff 	mov    %rax,-0xa40(%rbp)
    c9fe:	48 8b 85 c0 f5 ff ff 	mov    -0xa40(%rbp),%rax
    ca05:	48 3b 85 00 f6 ff ff 	cmp    -0xa00(%rbp),%rax
    ca0c:	0f b7 85 38 f5 ff ff 	movzwl -0xac8(%rbp),%eax
    ca13:	0f bf d0             	movswl %ax,%edx
    ca16:	48 8b 05 8b ca 00 00 	mov    0xca8b(%rip),%rax        # 194a8 <g_154>
    ca1d:	8b 00                	mov    (%rax),%eax
    ca1f:	39 c2                	cmp    %eax,%edx
    ca21:	48 83 bd b0 f5 ff ff 	cmpq   $0x1,-0xa50(%rbp)
    ca28:	01 
    ca29:	75 09                	jne    ca34 <func_12+0xe9a>
    ca2b:	83 bd 64 f5 ff ff 00 	cmpl   $0x0,-0xa9c(%rbp)
    ca32:	74 07                	je     ca3b <func_12+0xea1>
    ca34:	b8 01 00 00 00       	mov    $0x1,%eax
    ca39:	eb 05                	jmp    ca40 <func_12+0xea6>
    ca3b:	b8 00 00 00 00       	mov    $0x0,%eax
    ca40:	21 85 54 f5 ff ff    	and    %eax,-0xaac(%rbp)
    ca46:	8b 85 54 f5 ff ff    	mov    -0xaac(%rbp),%eax
    ca4c:	48 98                	cltq   
    ca4e:	48 89 c7             	mov    %rax,%rdi
    ca51:	e8 c0 bd ff ff       	callq  8816 <safe_unary_minus_func_int64_t_s>
    ca56:	49 39 c4             	cmp    %rax,%r12
    ca59:	48 89 de             	mov    %rbx,%rsi
    ca5c:	bf 00 00 00 00       	mov    $0x0,%edi
    ca61:	e8 e5 c5 ff ff       	callq  904b <safe_sub_func_uint64_t_u_u>
    ca66:	48 85 c0             	test   %rax,%rax
    ca69:	74 0d                	je     ca78 <func_12+0xede>
    ca6b:	48 8b 05 76 cd 00 00 	mov    0xcd76(%rip),%rax        # 197e8 <g_652>
    ca72:	0f b7 00             	movzwl (%rax),%eax
    ca75:	66 85 c0             	test   %ax,%ax
    ca78:	48 c7 85 e8 f5 ff ff 	movq   $0x0,-0xa18(%rbp)
    ca7f:	00 00 00 00 
    ca83:	48 83 bd e8 f5 ff ff 	cmpq   $0x0,-0xa18(%rbp)
    ca8a:	00 
    ca8b:	0f 95 c2             	setne  %dl
    ca8e:	48 8b 85 f0 f5 ff ff 	mov    -0xa10(%rbp),%rax
    ca95:	48 3b 85 10 f6 ff ff 	cmp    -0x9f0(%rbp),%rax
    ca9c:	0f 95 c0             	setne  %al
    ca9f:	21 d0                	and    %edx,%eax
    caa1:	0f b6 d0             	movzbl %al,%edx
    caa4:	0f bf 85 46 f5 ff ff 	movswl -0xaba(%rbp),%eax
    caab:	39 c2                	cmp    %eax,%edx
    caad:	7e 0c                	jle    cabb <func_12+0xf21>
    caaf:	48 b8 64 13 92 73 03 	movabs $0xdf0cb30373921364,%rax
    cab6:	b3 0c df 
    cab9:	eb 0a                	jmp    cac5 <func_12+0xf2b>
    cabb:	48 b8 65 13 92 73 03 	movabs $0xdf0cb30373921365,%rax
    cac2:	b3 0c df 
    cac5:	48 89 05 8c a7 00 00 	mov    %rax,0xa78c(%rip)        # 17258 <g_1943>
    cacc:	81 b5 58 f5 ff ff a9 	xorl   $0x485b7aa9,-0xaa8(%rbp)
    cad3:	7a 5b 48 
    cad6:	48 8b 05 03 cd 00 00 	mov    0xcd03(%rip),%rax        # 197e0 <g_542>
    cadd:	48 8b 10             	mov    (%rax),%rdx
    cae0:	48 8d 85 38 f5 ff ff 	lea    -0xac8(%rbp),%rax
    cae7:	48 39 c2             	cmp    %rax,%rdx
    caea:	0f 95 c0             	setne  %al
    caed:	0f b6 c8             	movzbl %al,%ecx
    caf0:	48 8b 85 18 f6 ff ff 	mov    -0x9e8(%rbp),%rax
    caf7:	48 8b 10             	mov    (%rax),%rdx
    cafa:	48 63 c1             	movslq %ecx,%rax
    cafd:	48 09 c2             	or     %rax,%rdx
    cb00:	48 8b 85 18 f6 ff ff 	mov    -0x9e8(%rbp),%rax
    cb07:	48 89 10             	mov    %rdx,(%rax)
    cb0a:	0f b7 85 38 f5 ff ff 	movzwl -0xac8(%rbp),%eax
    cb11:	0f bf d8             	movswl %ax,%ebx
    cb14:	8b 85 6c f5 ff ff    	mov    -0xa94(%rbp),%eax
    cb1a:	0f bf d0             	movswl %ax,%edx
    cb1d:	0f bf 85 46 f5 ff ff 	movswl -0xaba(%rbp),%eax
    cb24:	89 d6                	mov    %edx,%esi
    cb26:	89 c7                	mov    %eax,%edi
    cb28:	e8 28 b9 ff ff       	callq  8455 <safe_div_func_int16_t_s_s>
    cb2d:	66 39 85 3c f5 ff ff 	cmp    %ax,-0xac4(%rbp)
    cb34:	0f 9c c0             	setl   %al
    cb37:	0f b6 d0             	movzbl %al,%edx
    cb3a:	0f b7 85 34 f5 ff ff 	movzwl -0xacc(%rbp),%eax
    cb41:	0f b7 c0             	movzwl %ax,%eax
    cb44:	09 d0                	or     %edx,%eax
    cb46:	85 c0                	test   %eax,%eax
    cb48:	74 13                	je     cb5d <func_12+0xfc3>
    cb4a:	0f b7 85 34 f5 ff ff 	movzwl -0xacc(%rbp),%eax
    cb51:	66 85 c0             	test   %ax,%ax
    cb54:	74 07                	je     cb5d <func_12+0xfc3>
    cb56:	b8 01 00 00 00       	mov    $0x1,%eax
    cb5b:	eb 05                	jmp    cb62 <func_12+0xfc8>
    cb5d:	b8 00 00 00 00       	mov    $0x0,%eax
    cb62:	3b 85 6c f5 ff ff    	cmp    -0xa94(%rbp),%eax
    cb68:	0f 9c c0             	setl   %al
    cb6b:	0f b6 c0             	movzbl %al,%eax
    cb6e:	48 0b 85 f8 f5 ff ff 	or     -0xa08(%rbp),%rax
    cb75:	48 89 c2             	mov    %rax,%rdx
    cb78:	48 8b 05 a1 c8 00 00 	mov    0xc8a1(%rip),%rax        # 19420 <g_91>
    cb7f:	8b 00                	mov    (%rax),%eax
    cb81:	48 98                	cltq   
    cb83:	48 39 c2             	cmp    %rax,%rdx
    cb86:	0f 97 c0             	seta   %al
    cb89:	0f b6 d0             	movzbl %al,%edx
    cb8c:	0f bf 85 3c f5 ff ff 	movswl -0xac4(%rbp),%eax
    cb93:	39 c2                	cmp    %eax,%edx
    cb95:	0f 9c c0             	setl   %al
    cb98:	0f b6 c0             	movzbl %al,%eax
    cb9b:	89 de                	mov    %ebx,%esi
    cb9d:	89 c7                	mov    %eax,%edi
    cb9f:	e8 2f b8 ff ff       	callq  83d3 <safe_sub_func_int16_t_s_s>
    cba4:	66 83 f8 4a          	cmp    $0x4a,%ax
    cba8:	0f 9e c0             	setle  %al
    cbab:	0f b6 d0             	movzbl %al,%edx
    cbae:	0f b7 85 34 f5 ff ff 	movzwl -0xacc(%rbp),%eax
    cbb5:	0f b7 c0             	movzwl %ax,%eax
    cbb8:	39 c2                	cmp    %eax,%edx
    cbba:	0f 9c c2             	setl   %dl
    cbbd:	48 8b 05 fc cd 00 00 	mov    0xcdfc(%rip),%rax        # 199c0 <g_1213>
    cbc4:	48 8b 00             	mov    (%rax),%rax
    cbc7:	48 8b 00             	mov    (%rax),%rax
    cbca:	48 8b 00             	mov    (%rax),%rax
    cbcd:	88 10                	mov    %dl,(%rax)
    cbcf:	0f b6 00             	movzbl (%rax),%eax
    cbd2:	0f b6 d0             	movzbl %al,%edx
    cbd5:	0f b7 85 38 f5 ff ff 	movzwl -0xac8(%rbp),%eax
    cbdc:	98                   	cwtl   
    cbdd:	39 c2                	cmp    %eax,%edx
    cbdf:	0f 9d c0             	setge  %al
    cbe2:	0f b6 c0             	movzbl %al,%eax
    cbe5:	31 85 54 f5 ff ff    	xor    %eax,-0xaac(%rbp)
    cbeb:	8b 85 48 f5 ff ff    	mov    -0xab8(%rbp),%eax
    cbf1:	0f b6 c0             	movzbl %al,%eax
    cbf4:	be 05 00 00 00       	mov    $0x5,%esi
    cbf9:	89 c7                	mov    %eax,%edi
    cbfb:	e8 78 bf ff ff       	callq  8b78 <safe_sub_func_uint8_t_u_u>
    cc00:	0f b6 c0             	movzbl %al,%eax
    cc03:	89 85 48 f5 ff ff    	mov    %eax,-0xab8(%rbp)
    cc09:	83 bd 48 f5 ff ff f5 	cmpl   $0xfffffff5,-0xab8(%rbp)
    cc10:	0f 8c 20 fd ff ff    	jl     c936 <func_12+0xd9c>
    cc16:	48 8b 15 23 cf 00 00 	mov    0xcf23(%rip),%rdx        # 19b40 <g_1755>
    cc1d:	48 8b 05 24 cf 00 00 	mov    0xcf24(%rip),%rax        # 19b48 <g_1756>
    cc24:	48 8b 12             	mov    (%rdx),%rdx
    cc27:	48 89 10             	mov    %rdx,(%rax)
    cc2a:	48 8b 10             	mov    (%rax),%rdx
    cc2d:	48 8b 85 d0 f5 ff ff 	mov    -0xa30(%rbp),%rax
    cc34:	48 89 10             	mov    %rdx,(%rax)
    cc37:	0f bf 95 3c f5 ff ff 	movswl -0xac4(%rbp),%edx
    cc3e:	0f b7 85 34 f5 ff ff 	movzwl -0xacc(%rbp),%eax
    cc45:	0f b7 c0             	movzwl %ax,%eax
    cc48:	09 c2                	or     %eax,%edx
    cc4a:	89 95 28 f5 ff ff    	mov    %edx,-0xad8(%rbp)
    cc50:	48 8b 05 49 cd 00 00 	mov    0xcd49(%rip),%rax        # 199a0 <g_979>
    cc57:	0f b6 10             	movzbl (%rax),%edx
    cc5a:	8d 4a ff             	lea    -0x1(%rdx),%ecx
    cc5d:	88 08                	mov    %cl,(%rax)
    cc5f:	44 0f b6 f2          	movzbl %dl,%r14d
    cc63:	0f b7 85 3c f5 ff ff 	movzwl -0xac4(%rbp),%eax
    cc6a:	0f be d8             	movsbl %al,%ebx
    cc6d:	48 8b 05 74 cb 00 00 	mov    0xcb74(%rip),%rax        # 197e8 <g_652>
    cc74:	0f b7 00             	movzwl (%rax),%eax
    cc77:	88 85 33 f5 ff ff    	mov    %al,-0xacd(%rbp)
    cc7d:	48 8b 85 d0 f5 ff ff 	mov    -0xa30(%rbp),%rax
    cc84:	48 8b 00             	mov    (%rax),%rax
    cc87:	8b 00                	mov    (%rax),%eax
    cc89:	44 0f b6 e0          	movzbl %al,%r12d
    cc8d:	48 8b 05 6c cb 00 00 	mov    0xcb6c(%rip),%rax        # 19800 <g_762>
    cc94:	0f b7 00             	movzwl (%rax),%eax
    cc97:	44 0f bf e8          	movswl %ax,%r13d
    cc9b:	48 8b 95 68 fe ff ff 	mov    -0x198(%rbp),%rdx
    cca2:	48 8b 05 47 cb 00 00 	mov    0xcb47(%rip),%rax        # 197f0 <g_651>
    cca9:	48 8b 00             	mov    (%rax),%rax
    ccac:	48 89 05 bd ce 00 00 	mov    %rax,0xcebd(%rip)        # 19b70 <g_1970>
    ccb3:	48 8b 05 b6 ce 00 00 	mov    0xceb6(%rip),%rax        # 19b70 <g_1970>
    ccba:	48 39 c2             	cmp    %rax,%rdx
    ccbd:	0f 94 c0             	sete   %al
    ccc0:	44 0f b6 f8          	movzbl %al,%r15d
    ccc4:	8b 05 f6 d7 00 00    	mov    0xd7f6(%rip),%eax        # 1a4c0 <g_1974>
    ccca:	48 8b 85 d0 f5 ff ff 	mov    -0xa30(%rbp),%rax
    ccd1:	48 8b 00             	mov    (%rax),%rax
    ccd4:	8b 00                	mov    (%rax),%eax
    ccd6:	89 c2                	mov    %eax,%edx
    ccd8:	48 8b 85 d8 f5 ff ff 	mov    -0xa28(%rbp),%rax
    ccdf:	88 10                	mov    %dl,(%rax)
    cce1:	48 8b 85 d8 f5 ff ff 	mov    -0xa28(%rbp),%rax
    cce8:	0f b6 00             	movzbl (%rax),%eax
    cceb:	0f be c0             	movsbl %al,%eax
    ccee:	89 c6                	mov    %eax,%esi
    ccf0:	bf ff ff ff ff       	mov    $0xffffffff,%edi
    ccf5:	e8 18 b5 ff ff       	callq  8212 <safe_mul_func_int8_t_s_s>
    ccfa:	0f be c0             	movsbl %al,%eax
    ccfd:	41 39 c7             	cmp    %eax,%r15d
    cd00:	0f 9e c0             	setle  %al
    cd03:	0f b6 d0             	movzbl %al,%edx
    cd06:	8b 85 68 f5 ff ff    	mov    -0xa98(%rbp),%eax
    cd0c:	89 d6                	mov    %edx,%esi
    cd0e:	89 c7                	mov    %eax,%edi
    cd10:	e8 a1 b8 ff ff       	callq  85b6 <safe_add_func_int32_t_s_s>
    cd15:	85 c0                	test   %eax,%eax
    cd17:	74 07                	je     cd20 <func_12+0x1186>
    cd19:	b8 01 00 00 00       	mov    $0x1,%eax
    cd1e:	eb 05                	jmp    cd25 <func_12+0x118b>
    cd20:	b8 00 00 00 00       	mov    $0x0,%eax
    cd25:	98                   	cwtl   
    cd26:	44 89 ee             	mov    %r13d,%esi
    cd29:	89 c7                	mov    %eax,%edi
    cd2b:	e8 a3 b6 ff ff       	callq  83d3 <safe_sub_func_int16_t_s_s>
    cd30:	0f b7 95 38 f5 ff ff 	movzwl -0xac8(%rbp),%edx
    cd37:	48 8b 05 12 ce 00 00 	mov    0xce12(%rip),%rax        # 19b50 <g_1806>
    cd3e:	48 8b 00             	mov    (%rax),%rax
    cd41:	48 8b 08             	mov    (%rax),%rcx
    cd44:	48 0f bf d2          	movswq %dx,%rdx
    cd48:	48 09 ca             	or     %rcx,%rdx
    cd4b:	48 89 10             	mov    %rdx,(%rax)
    cd4e:	48 8b 85 d0 f5 ff ff 	mov    -0xa30(%rbp),%rax
    cd55:	48 8b 00             	mov    (%rax),%rax
    cd58:	8b 00                	mov    (%rax),%eax
    cd5a:	83 f8 01             	cmp    $0x1,%eax
    cd5d:	0f 9f c0             	setg   %al
    cd60:	0f b6 c0             	movzbl %al,%eax
    cd63:	44 89 e6             	mov    %r12d,%esi
    cd66:	89 c7                	mov    %eax,%edi
    cd68:	e8 26 be ff ff       	callq  8b93 <safe_mul_func_uint8_t_u_u>
    cd6d:	22 85 33 f5 ff ff    	and    -0xacd(%rbp),%al
    cd73:	0f be c0             	movsbl %al,%eax
    cd76:	89 de                	mov    %ebx,%esi
    cd78:	89 c7                	mov    %eax,%edi
    cd7a:	e8 55 b4 ff ff       	callq  81d4 <safe_add_func_int8_t_s_s>
    cd7f:	0f be d0             	movsbl %al,%edx
    cd82:	8b 05 c0 a3 00 00    	mov    0xa3c0(%rip),%eax        # 17148 <g_283>
    cd88:	21 d0                	and    %edx,%eax
    cd8a:	41 39 c6             	cmp    %eax,%r14d
    cd8d:	0f 9e c0             	setle  %al
    cd90:	0f b6 d0             	movzbl %al,%edx
    cd93:	48 8b 05 de c6 00 00 	mov    0xc6de(%rip),%rax        # 19478 <g_105>
    cd9a:	33 95 28 f5 ff ff    	xor    -0xad8(%rbp),%edx
    cda0:	89 10                	mov    %edx,(%rax)
    cda2:	0f b7 85 e0 fa ff ff 	movzwl -0x520(%rbp),%eax
    cda9:	83 c0 01             	add    $0x1,%eax
    cdac:	66 89 85 e0 fa ff ff 	mov    %ax,-0x520(%rbp)
    cdb3:	0f b7 85 34 f5 ff ff 	movzwl -0xacc(%rbp),%eax
    cdba:	0f b7 c0             	movzwl %ax,%eax
    cdbd:	48 8b 5d c8          	mov    -0x38(%rbp),%rbx
    cdc1:	64 48 33 1c 25 28 00 	xor    %fs:0x28,%rbx
    cdc8:	00 00 
    cdca:	74 05                	je     cdd1 <func_12+0x1237>
    cdcc:	e8 9f b2 ff ff       	callq  8070 <__stack_chk_fail@plt>
    cdd1:	48 81 c4 b8 0a 00 00 	add    $0xab8,%rsp
    cdd8:	5b                   	pop    %rbx
    cdd9:	41 5c                	pop    %r12
    cddb:	41 5d                	pop    %r13
    cddd:	41 5e                	pop    %r14
    cddf:	41 5f                	pop    %r15
    cde1:	5d                   	pop    %rbp
    cde2:	c3                   	retq   

000000000000cde3 <func_21>:
    cde3:	f3 0f 1e fa          	endbr64 
    cde7:	55                   	push   %rbp
    cde8:	48 89 e5             	mov    %rsp,%rbp
    cdeb:	41 54                	push   %r12
    cded:	53                   	push   %rbx
    cdee:	48 81 ec d0 0b 00 00 	sub    $0xbd0,%rsp
    cdf5:	89 f8                	mov    %edi,%eax
    cdf7:	89 b5 28 f4 ff ff    	mov    %esi,-0xbd8(%rbp)
    cdfd:	89 95 24 f4 ff ff    	mov    %edx,-0xbdc(%rbp)
    ce03:	66 89 85 2c f4 ff ff 	mov    %ax,-0xbd4(%rbp)
    ce0a:	64 48 8b 04 25 28 00 	mov    %fs:0x28,%rax
    ce11:	00 00 
    ce13:	48 89 45 e8          	mov    %rax,-0x18(%rbp)
    ce17:	31 c0                	xor    %eax,%eax
    ce19:	48 8d 05 18 a3 00 00 	lea    0xa318(%rip),%rax        # 17138 <g_186>
    ce20:	48 89 85 70 f5 ff ff 	mov    %rax,-0xa90(%rbp)
    ce27:	48 8d 05 0a a3 00 00 	lea    0xa30a(%rip),%rax        # 17138 <g_186>
    ce2e:	48 89 85 78 f5 ff ff 	mov    %rax,-0xa88(%rbp)
    ce35:	48 8d 05 24 a3 00 00 	lea    0xa324(%rip),%rax        # 17160 <g_421>
    ce3c:	48 89 85 80 f5 ff ff 	mov    %rax,-0xa80(%rbp)
    ce43:	48 8d 05 ee a2 00 00 	lea    0xa2ee(%rip),%rax        # 17138 <g_186>
    ce4a:	48 89 85 88 f5 ff ff 	mov    %rax,-0xa78(%rbp)
    ce51:	48 8d 05 e0 a2 00 00 	lea    0xa2e0(%rip),%rax        # 17138 <g_186>
    ce58:	48 89 85 90 f5 ff ff 	mov    %rax,-0xa70(%rbp)
    ce5f:	48 8d 05 fa a2 00 00 	lea    0xa2fa(%rip),%rax        # 17160 <g_421>
    ce66:	48 89 85 98 f5 ff ff 	mov    %rax,-0xa68(%rbp)
    ce6d:	48 8d 05 c4 a2 00 00 	lea    0xa2c4(%rip),%rax        # 17138 <g_186>
    ce74:	48 89 85 a0 f5 ff ff 	mov    %rax,-0xa60(%rbp)
    ce7b:	48 8d 05 b6 a2 00 00 	lea    0xa2b6(%rip),%rax        # 17138 <g_186>
    ce82:	48 89 85 a8 f5 ff ff 	mov    %rax,-0xa58(%rbp)
    ce89:	48 8d 05 d0 a2 00 00 	lea    0xa2d0(%rip),%rax        # 17160 <g_421>
    ce90:	48 89 85 b0 f5 ff ff 	mov    %rax,-0xa50(%rbp)
    ce97:	48 8d 05 9a a2 00 00 	lea    0xa29a(%rip),%rax        # 17138 <g_186>
    ce9e:	48 89 85 b8 f5 ff ff 	mov    %rax,-0xa48(%rbp)
    cea5:	48 8d 85 70 f5 ff ff 	lea    -0xa90(%rbp),%rax
    ceac:	48 83 c0 38          	add    $0x38,%rax
    ceb0:	48 89 85 70 f4 ff ff 	mov    %rax,-0xb90(%rbp)
    ceb7:	48 c7 85 68 f4 ff ff 	movq   $0x0,-0xb98(%rbp)
    cebe:	00 00 00 00 
    cec2:	48 8d 85 68 f4 ff ff 	lea    -0xb98(%rbp),%rax
    cec9:	48 89 85 c0 f5 ff ff 	mov    %rax,-0xa40(%rbp)
    ced0:	48 8d 85 68 f4 ff ff 	lea    -0xb98(%rbp),%rax
    ced7:	48 89 85 c8 f5 ff ff 	mov    %rax,-0xa38(%rbp)
    cede:	48 8d 85 68 f4 ff ff 	lea    -0xb98(%rbp),%rax
    cee5:	48 89 85 d0 f5 ff ff 	mov    %rax,-0xa30(%rbp)
    ceec:	48 8d 85 68 f4 ff ff 	lea    -0xb98(%rbp),%rax
    cef3:	48 89 85 d8 f5 ff ff 	mov    %rax,-0xa28(%rbp)
    cefa:	48 8d 85 68 f4 ff ff 	lea    -0xb98(%rbp),%rax
    cf01:	48 89 85 e0 f5 ff ff 	mov    %rax,-0xa20(%rbp)
    cf08:	48 8d 85 68 f4 ff ff 	lea    -0xb98(%rbp),%rax
    cf0f:	48 89 85 e8 f5 ff ff 	mov    %rax,-0xa18(%rbp)
    cf16:	48 8d 85 68 f4 ff ff 	lea    -0xb98(%rbp),%rax
    cf1d:	48 89 85 f0 f5 ff ff 	mov    %rax,-0xa10(%rbp)
    cf24:	48 8d 85 68 f4 ff ff 	lea    -0xb98(%rbp),%rax
    cf2b:	48 89 85 f8 f5 ff ff 	mov    %rax,-0xa08(%rbp)
    cf32:	48 8d 85 68 f4 ff ff 	lea    -0xb98(%rbp),%rax
    cf39:	48 89 85 00 f6 ff ff 	mov    %rax,-0xa00(%rbp)
    cf40:	48 8d 85 68 f4 ff ff 	lea    -0xb98(%rbp),%rax
    cf47:	48 89 85 08 f6 ff ff 	mov    %rax,-0x9f8(%rbp)
    cf4e:	48 8d 85 90 f8 ff ff 	lea    -0x770(%rbp),%rax
    cf55:	48 8d 15 64 ae 00 00 	lea    0xae64(%rip),%rdx        # 17dc0 <g_2888+0xa10>
    cf5c:	b9 6c 00 00 00       	mov    $0x6c,%ecx
    cf61:	48 89 c7             	mov    %rax,%rdi
    cf64:	48 89 d6             	mov    %rdx,%rsi
    cf67:	f3 48 a5             	rep movsq %ds:(%rsi),%es:(%rdi)
    cf6a:	c7 85 44 f4 ff ff 5e 	movl   $0x2b31785e,-0xbbc(%rbp)
    cf71:	78 31 2b 
    cf74:	48 8d 85 90 f8 ff ff 	lea    -0x770(%rbp),%rax
    cf7b:	48 05 18 03 00 00    	add    $0x318,%rax
    cf81:	48 89 85 78 f4 ff ff 	mov    %rax,-0xb88(%rbp)
    cf88:	48 8d 85 c0 f5 ff ff 	lea    -0xa40(%rbp),%rax
    cf8f:	48 83 c0 10          	add    $0x10,%rax
    cf93:	48 89 85 80 f4 ff ff 	mov    %rax,-0xb80(%rbp)
    cf9a:	48 8d 05 0f a2 00 00 	lea    0xa20f(%rip),%rax        # 171b0 <g_616>
    cfa1:	48 89 85 88 f4 ff ff 	mov    %rax,-0xb78(%rbp)
    cfa8:	c6 85 3f f4 ff ff fd 	movb   $0xfd,-0xbc1(%rbp)
    cfaf:	c7 85 58 f4 ff ff ae 	movl   $0x2cbf76ae,-0xba8(%rbp)
    cfb6:	76 bf 2c 
    cfb9:	c7 85 d0 f4 ff ff 00 	movl   $0x0,-0xb30(%rbp)
    cfc0:	00 00 00 
    cfc3:	c7 85 d4 f4 ff ff 00 	movl   $0x0,-0xb2c(%rbp)
    cfca:	00 00 00 
    cfcd:	c7 85 d8 f4 ff ff 00 	movl   $0x0,-0xb28(%rbp)
    cfd4:	00 00 00 
    cfd7:	c7 85 dc f4 ff ff 00 	movl   $0x0,-0xb24(%rbp)
    cfde:	00 00 00 
    cfe1:	66 c7 85 40 f4 ff ff 	movw   $0xfaef,-0xbc0(%rbp)
    cfe8:	ef fa 
    cfea:	c7 85 5c f4 ff ff 39 	movl   $0x16c6d739,-0xba4(%rbp)
    cff1:	d7 c6 16 
    cff4:	48 8d 85 44 f4 ff ff 	lea    -0xbbc(%rbp),%rax
    cffb:	48 89 85 90 f4 ff ff 	mov    %rax,-0xb70(%rbp)
    d002:	c7 85 50 f4 ff ff 00 	movl   $0x0,-0xbb0(%rbp)
    d009:	00 00 00 
    d00c:	eb 1e                	jmp    d02c <func_21+0x249>
    d00e:	8b 85 50 f4 ff ff    	mov    -0xbb0(%rbp),%eax
    d014:	48 98                	cltq   
    d016:	48 8d 15 53 a1 00 00 	lea    0xa153(%rip),%rdx        # 17170 <g_495>
    d01d:	48 89 94 c5 20 f5 ff 	mov    %rdx,-0xae0(%rbp,%rax,8)
    d024:	ff 
    d025:	83 85 50 f4 ff ff 01 	addl   $0x1,-0xbb0(%rbp)
    d02c:	83 bd 50 f4 ff ff 03 	cmpl   $0x3,-0xbb0(%rbp)
    d033:	7e d9                	jle    d00e <func_21+0x22b>
    d035:	48 8b 95 80 f5 ff ff 	mov    -0xa80(%rbp),%rdx
    d03c:	48 8b 85 70 f4 ff ff 	mov    -0xb90(%rbp),%rax
    d043:	48 89 10             	mov    %rdx,(%rax)
    d046:	48 8b 85 70 f4 ff ff 	mov    -0xb90(%rbp),%rax
    d04d:	48 8b 00             	mov    (%rax),%rax
    d050:	48 89 05 a9 ca 00 00 	mov    %rax,0xcaa9(%rip)        # 19b00 <g_1720>
    d057:	48 8b 15 a2 ca 00 00 	mov    0xcaa2(%rip),%rdx        # 19b00 <g_1720>
    d05e:	48 8b 85 a8 fb ff ff 	mov    -0x458(%rbp),%rax
    d065:	48 39 c2             	cmp    %rax,%rdx
    d068:	0f 94 c0             	sete   %al
    d06b:	0f b6 d8             	movzbl %al,%ebx
    d06e:	c7 85 44 f4 ff ff 16 	movl   $0x16,-0xbbc(%rbp)
    d075:	00 00 00 
    d078:	8b 85 28 f4 ff ff    	mov    -0xbd8(%rbp),%eax
    d07e:	be 06 00 00 00       	mov    $0x6,%esi
    d083:	48 89 c7             	mov    %rax,%rdi
    d086:	e8 29 b9 ff ff       	callq  89b4 <safe_mod_func_int64_t_s_s>
    d08b:	89 c2                	mov    %eax,%edx
    d08d:	48 8b 05 1c c9 00 00 	mov    0xc91c(%rip),%rax        # 199b0 <g_1029>
    d094:	31 da                	xor    %ebx,%edx
    d096:	89 10                	mov    %edx,(%rax)
    d098:	c6 05 a5 a0 00 00 00 	movb   $0x0,0xa0a5(%rip)        # 17144 <g_242>
    d09f:	eb 42                	jmp    d0e3 <func_21+0x300>
    d0a1:	48 8b 05 10 c4 00 00 	mov    0xc410(%rip),%rax        # 194b8 <g_382>
    d0a8:	8b 08                	mov    (%rax),%ecx
    d0aa:	0f bf 95 2c f4 ff ff 	movswl -0xbd4(%rbp),%edx
    d0b1:	48 8b 05 00 c4 00 00 	mov    0xc400(%rip),%rax        # 194b8 <g_382>
    d0b8:	09 ca                	or     %ecx,%edx
    d0ba:	89 10                	mov    %edx,(%rax)
    d0bc:	48 8b 15 ed c8 00 00 	mov    0xc8ed(%rip),%rdx        # 199b0 <g_1029>
    d0c3:	8b 00                	mov    (%rax),%eax
    d0c5:	89 02                	mov    %eax,(%rdx)
    d0c7:	0f b6 05 76 a0 00 00 	movzbl 0xa076(%rip),%eax        # 17144 <g_242>
    d0ce:	0f b6 c0             	movzbl %al,%eax
    d0d1:	be 06 00 00 00       	mov    $0x6,%esi
    d0d6:	89 c7                	mov    %eax,%edi
    d0d8:	e8 22 bc ff ff       	callq  8cff <safe_add_func_uint16_t_u_u>
    d0dd:	88 05 61 a0 00 00    	mov    %al,0xa061(%rip)        # 17144 <g_242>
    d0e3:	0f b6 05 5a a0 00 00 	movzbl 0xa05a(%rip),%eax        # 17144 <g_242>
    d0ea:	3c 29                	cmp    $0x29,%al
    d0ec:	77 b3                	ja     d0a1 <func_21+0x2be>
    d0ee:	48 0f bf 95 2c f4 ff 	movswq -0xbd4(%rbp),%rdx
    d0f5:	ff 
    d0f6:	8b 8d 44 f4 ff ff    	mov    -0xbbc(%rbp),%ecx
    d0fc:	48 8b 05 a5 c3 00 00 	mov    0xc3a5(%rip),%rax        # 194a8 <g_154>
    d103:	89 08                	mov    %ecx,(%rax)
    d105:	b8 00 00 00 00       	mov    $0x0,%eax
    d10a:	48 98                	cltq   
    d10c:	48 89 d6             	mov    %rdx,%rsi
    d10f:	48 89 c7             	mov    %rax,%rdi
    d112:	e8 e0 b8 ff ff       	callq  89f7 <safe_div_func_int64_t_s_s>
    d117:	48 89 c2             	mov    %rax,%rdx
    d11a:	48 8b 05 97 c3 00 00 	mov    0xc397(%rip),%rax        # 194b8 <g_382>
    d121:	89 10                	mov    %edx,(%rax)
    d123:	8b 08                	mov    (%rax),%ecx
    d125:	48 8b 05 c4 c9 00 00 	mov    0xc9c4(%rip),%rax        # 19af0 <g_1581>
    d12c:	48 8b 00             	mov    (%rax),%rax
    d12f:	8b 10                	mov    (%rax),%edx
    d131:	09 ca                	or     %ecx,%edx
    d133:	89 10                	mov    %edx,(%rax)
    d135:	66 c7 85 2c f4 ff ff 	movw   $0x0,-0xbd4(%rbp)
    d13c:	00 00 
    d13e:	e9 ce 0a 00 00       	jmpq   dc11 <func_21+0xe2e>
    d143:	48 8d 05 7e c3 00 00 	lea    0xc37e(%rip),%rax        # 194c8 <g_440>
    d14a:	48 89 85 98 f4 ff ff 	mov    %rax,-0xb68(%rbp)
    d151:	c7 85 48 f4 ff ff f7 	movl   $0xfffffff7,-0xbb8(%rbp)
    d158:	ff ff ff 
    d15b:	c7 85 40 f5 ff ff 01 	movl   $0x1,-0xac0(%rbp)
    d162:	00 00 00 
    d165:	c7 85 44 f5 ff ff 01 	movl   $0x1,-0xabc(%rbp)
    d16c:	00 00 00 
    d16f:	c7 85 48 f5 ff ff 01 	movl   $0x1,-0xab8(%rbp)
    d176:	00 00 00 
    d179:	c7 85 4c f5 ff ff 01 	movl   $0x1,-0xab4(%rbp)
    d180:	00 00 00 
    d183:	c7 85 50 f5 ff ff 01 	movl   $0x1,-0xab0(%rbp)
    d18a:	00 00 00 
    d18d:	c7 85 54 f5 ff ff 01 	movl   $0x1,-0xaac(%rbp)
    d194:	00 00 00 
    d197:	c7 85 58 f5 ff ff 01 	movl   $0x1,-0xaa8(%rbp)
    d19e:	00 00 00 
    d1a1:	c7 85 5c f5 ff ff 01 	movl   $0x1,-0xaa4(%rbp)
    d1a8:	00 00 00 
    d1ab:	c7 85 60 f5 ff ff 01 	movl   $0x1,-0xaa0(%rbp)
    d1b2:	00 00 00 
    d1b5:	c7 85 64 f5 ff ff 01 	movl   $0x1,-0xa9c(%rbp)
    d1bc:	00 00 00 
    d1bf:	c7 85 00 f5 ff ff 4b 	movl   $0xecb2004b,-0xb00(%rbp)
    d1c6:	00 b2 ec 
    d1c9:	c7 85 04 f5 ff ff 4b 	movl   $0xecb2004b,-0xafc(%rbp)
    d1d0:	00 b2 ec 
    d1d3:	c7 85 08 f5 ff ff 4b 	movl   $0xecb2004b,-0xaf8(%rbp)
    d1da:	00 b2 ec 
    d1dd:	c7 85 0c f5 ff ff 4b 	movl   $0xecb2004b,-0xaf4(%rbp)
    d1e4:	00 b2 ec 
    d1e7:	c7 85 10 f5 ff ff 4b 	movl   $0xecb2004b,-0xaf0(%rbp)
    d1ee:	00 b2 ec 
    d1f1:	c7 85 14 f5 ff ff 4b 	movl   $0xecb2004b,-0xaec(%rbp)
    d1f8:	00 b2 ec 
    d1fb:	c7 85 18 f5 ff ff 4b 	movl   $0xecb2004b,-0xae8(%rbp)
    d202:	00 b2 ec 
    d205:	48 8d 85 10 f6 ff ff 	lea    -0x9f0(%rbp),%rax
    d20c:	48 8d 15 0d af 00 00 	lea    0xaf0d(%rip),%rdx        # 18120 <g_2888+0xd70>
    d213:	b9 50 00 00 00       	mov    $0x50,%ecx
    d218:	48 89 c7             	mov    %rax,%rdi
    d21b:	48 89 d6             	mov    %rdx,%rsi
    d21e:	f3 48 a5             	rep movsq %ds:(%rsi),%es:(%rdi)
    d221:	48 8d 05 98 c7 00 00 	lea    0xc798(%rip),%rax        # 199c0 <g_1213>
    d228:	48 89 85 a0 f4 ff ff 	mov    %rax,-0xb60(%rbp)
    d22f:	83 bd 28 f4 ff ff 00 	cmpl   $0x0,-0xbd8(%rbp)
    d236:	0f 85 e5 09 00 00    	jne    dc21 <func_21+0xe3e>
    d23c:	48 8b 05 75 c2 00 00 	mov    0xc275(%rip),%rax        # 194b8 <g_382>
    d243:	8b 95 44 f4 ff ff    	mov    -0xbbc(%rbp),%edx
    d249:	89 10                	mov    %edx,(%rax)
    d24b:	c6 05 b2 9f 00 00 00 	movb   $0x0,0x9fb2(%rip)        # 17204 <g_1416>
    d252:	e9 9a 09 00 00       	jmpq   dbf1 <func_21+0xe0e>
    d257:	66 c7 85 e0 f4 ff ff 	movw   $0x7164,-0xb20(%rbp)
    d25e:	64 71 
    d260:	66 c7 85 e2 f4 ff ff 	movw   $0xba27,-0xb1e(%rbp)
    d267:	27 ba 
    d269:	66 c7 85 e4 f4 ff ff 	movw   $0x7164,-0xb1c(%rbp)
    d270:	64 71 
    d272:	66 c7 85 e6 f4 ff ff 	movw   $0x1,-0xb1a(%rbp)
    d279:	01 00 
    d27b:	66 c7 85 e8 f4 ff ff 	movw   $0x1,-0xb18(%rbp)
    d282:	01 00 
    d284:	66 c7 85 ea f4 ff ff 	movw   $0x7164,-0xb16(%rbp)
    d28b:	64 71 
    d28d:	66 c7 85 ec f4 ff ff 	movw   $0xba27,-0xb14(%rbp)
    d294:	27 ba 
    d296:	66 c7 85 ee f4 ff ff 	movw   $0x7164,-0xb12(%rbp)
    d29d:	64 71 
    d29f:	66 c7 85 f0 f4 ff ff 	movw   $0x1,-0xb10(%rbp)
    d2a6:	01 00 
    d2a8:	66 c7 85 f2 f4 ff ff 	movw   $0x1,-0xb0e(%rbp)
    d2af:	01 00 
    d2b1:	c7 85 4c f4 ff ff b3 	movl   $0x67f8bfb3,-0xbb4(%rbp)
    d2b8:	bf f8 67 
    d2bb:	48 c7 85 a8 f4 ff ff 	movq   $0x0,-0xb58(%rbp)
    d2c2:	00 00 00 00 
    d2c6:	48 8d 05 e3 c6 00 00 	lea    0xc6e3(%rip),%rax        # 199b0 <g_1029>
    d2cd:	48 89 85 b0 f4 ff ff 	mov    %rax,-0xb50(%rbp)
    d2d4:	c7 85 60 f4 ff ff 1b 	movl   $0xd96e011b,-0xba0(%rbp)
    d2db:	01 6e d9 
    d2de:	66 c7 85 42 f4 ff ff 	movw   $0x0,-0xbbe(%rbp)
    d2e5:	00 00 
    d2e7:	c6 05 64 9f 00 00 02 	movb   $0x2,0x9f64(%rip)        # 17252 <g_1712>
    d2ee:	eb 76                	jmp    d366 <func_21+0x583>
    d2f0:	48 8d 85 f0 fb ff ff 	lea    -0x410(%rbp),%rax
    d2f7:	48 8d 15 a2 67 00 00 	lea    0x67a2(%rip),%rdx        # 13aa0 <g_2689+0xa3c>
    d2fe:	b9 7e 00 00 00       	mov    $0x7e,%ecx
    d303:	48 89 c7             	mov    %rax,%rdi
    d306:	48 89 d6             	mov    %rdx,%rsi
    d309:	f3 48 a5             	rep movsq %ds:(%rsi),%es:(%rdi)
    d30c:	48 8d 05 ed 9e 00 00 	lea    0x9eed(%rip),%rax        # 17200 <g_998>
    d313:	48 89 85 b8 f4 ff ff 	mov    %rax,-0xb48(%rbp)
    d31a:	c7 85 54 f4 ff ff 00 	movl   $0x0,-0xbac(%rbp)
    d321:	00 00 00 
    d324:	eb 1e                	jmp    d344 <func_21+0x561>
    d326:	8b 85 54 f4 ff ff    	mov    -0xbac(%rbp),%eax
    d32c:	48 98                	cltq   
    d32e:	48 8d 15 fd 9d 00 00 	lea    0x9dfd(%rip),%rdx        # 17132 <g_149>
    d335:	48 89 94 c5 c8 f4 ff 	mov    %rdx,-0xb38(%rbp,%rax,8)
    d33c:	ff 
    d33d:	83 85 54 f4 ff ff 01 	addl   $0x1,-0xbac(%rbp)
    d344:	83 bd 54 f4 ff ff 00 	cmpl   $0x0,-0xbac(%rbp)
    d34b:	7e d9                	jle    d326 <func_21+0x543>
    d34d:	83 bd 28 f4 ff ff 00 	cmpl   $0x0,-0xbd8(%rbp)
    d354:	75 21                	jne    d377 <func_21+0x594>
    d356:	0f b6 05 f5 9e 00 00 	movzbl 0x9ef5(%rip),%eax        # 17252 <g_1712>
    d35d:	83 e8 01             	sub    $0x1,%eax
    d360:	88 05 ec 9e 00 00    	mov    %al,0x9eec(%rip)        # 17252 <g_1712>
    d366:	0f b6 05 e5 9e 00 00 	movzbl 0x9ee5(%rip),%eax        # 17252 <g_1712>
    d36d:	84 c0                	test   %al,%al
    d36f:	0f 89 7b ff ff ff    	jns    d2f0 <func_21+0x50d>
    d375:	eb 01                	jmp    d378 <func_21+0x595>
    d377:	90                   	nop
    d378:	48 8b 85 b0 f4 ff ff 	mov    -0xb50(%rbp),%rax
    d37f:	48 8d 95 44 f4 ff ff 	lea    -0xbbc(%rbp),%rdx
    d386:	48 89 10             	mov    %rdx,(%rax)
    d389:	8b 85 04 f5 ff ff    	mov    -0xafc(%rbp),%eax
    d38f:	48 63 d8             	movslq %eax,%rbx
    d392:	48 8b 05 ff d0 00 00 	mov    0xd0ff(%rip),%rax        # 1a498 <g_1819>
    d399:	48 85 c0             	test   %rax,%rax
    d39c:	75 67                	jne    d405 <func_21+0x622>
    d39e:	8b 85 24 f4 ff ff    	mov    -0xbdc(%rbp),%eax
    d3a4:	44 0f b6 e0          	movzbl %al,%r12d
    d3a8:	8b 85 28 f4 ff ff    	mov    -0xbd8(%rbp),%eax
    d3ae:	0f bf d0             	movswl %ax,%edx
    d3b1:	48 8b 05 00 c1 00 00 	mov    0xc100(%rip),%rax        # 194b8 <g_382>
    d3b8:	8b 00                	mov    (%rax),%eax
    d3ba:	39 85 28 f4 ff ff    	cmp    %eax,-0xbd8(%rbp)
    d3c0:	0f 92 c0             	setb   %al
    d3c3:	0f b6 c0             	movzbl %al,%eax
    d3c6:	89 d6                	mov    %edx,%esi
    d3c8:	89 c7                	mov    %eax,%edi
    d3ca:	e8 26 b0 ff ff       	callq  83f5 <safe_mul_func_int16_t_s_s>
    d3cf:	0f bf d0             	movswl %ax,%edx
    d3d2:	8b 85 48 f4 ff ff    	mov    -0xbb8(%rbp),%eax
    d3d8:	39 c2                	cmp    %eax,%edx
    d3da:	75 17                	jne    d3f3 <func_21+0x610>
    d3dc:	48 8b 85 b0 f4 ff ff 	mov    -0xb50(%rbp),%rax
    d3e3:	48 8b 00             	mov    (%rax),%rax
    d3e6:	8b 00                	mov    (%rax),%eax
    d3e8:	85 c0                	test   %eax,%eax
    d3ea:	74 07                	je     d3f3 <func_21+0x610>
    d3ec:	b8 01 00 00 00       	mov    $0x1,%eax
    d3f1:	eb 05                	jmp    d3f8 <func_21+0x615>
    d3f3:	b8 00 00 00 00       	mov    $0x0,%eax
    d3f8:	0f b6 c0             	movzbl %al,%eax
    d3fb:	44 89 e6             	mov    %r12d,%esi
    d3fe:	89 c7                	mov    %eax,%edi
    d400:	e8 d6 b7 ff ff       	callq  8bdb <safe_div_func_uint8_t_u_u>
    d405:	8b 85 44 f4 ff ff    	mov    -0xbbc(%rbp),%eax
    d40b:	0f be c0             	movsbl %al,%eax
    d40e:	be 01 00 00 00       	mov    $0x1,%esi
    d413:	89 c7                	mov    %eax,%edi
    d415:	e8 f8 ad ff ff       	callq  8212 <safe_mul_func_int8_t_s_s>
    d41a:	48 0f be c0          	movsbq %al,%rax
    d41e:	48 89 de             	mov    %rbx,%rsi
    d421:	48 89 c7             	mov    %rax,%rdi
    d424:	e8 7f b4 ff ff       	callq  88a8 <safe_sub_func_int64_t_s_s>
    d429:	89 c2                	mov    %eax,%edx
    d42b:	8b 85 28 f4 ff ff    	mov    -0xbd8(%rbp),%eax
    d431:	0f be c0             	movsbl %al,%eax
    d434:	89 d6                	mov    %edx,%esi
    d436:	89 c7                	mov    %eax,%edi
    d438:	e8 f8 ae ff ff       	callq  8335 <safe_rshift_func_int8_t_s_s>
    d43d:	84 c0                	test   %al,%al
    d43f:	0f 84 3f 07 00 00    	je     db84 <func_21+0xda1>
    d445:	48 8d 05 a4 9c 00 00 	lea    0x9ca4(%rip),%rax        # 170f0 <g_74>
    d44c:	48 89 85 c0 f4 ff ff 	mov    %rax,-0xb40(%rbp)
    d453:	48 8d 05 ee 9c 00 00 	lea    0x9cee(%rip),%rax        # 17148 <g_283>
    d45a:	48 89 85 f0 fb ff ff 	mov    %rax,-0x410(%rbp)
    d461:	48 8d 05 e0 9b 00 00 	lea    0x9be0(%rip),%rax        # 17048 <g_6+0x18>
    d468:	48 89 85 f8 fb ff ff 	mov    %rax,-0x408(%rbp)
    d46f:	48 8d 85 40 f5 ff ff 	lea    -0xac0(%rbp),%rax
    d476:	48 83 c0 24          	add    $0x24,%rax
    d47a:	48 89 85 00 fc ff ff 	mov    %rax,-0x400(%rbp)
    d481:	48 8d 85 40 f5 ff ff 	lea    -0xac0(%rbp),%rax
    d488:	48 83 c0 24          	add    $0x24,%rax
    d48c:	48 89 85 08 fc ff ff 	mov    %rax,-0x3f8(%rbp)
    d493:	48 8d 85 40 f5 ff ff 	lea    -0xac0(%rbp),%rax
    d49a:	48 83 c0 24          	add    $0x24,%rax
    d49e:	48 89 85 10 fc ff ff 	mov    %rax,-0x3f0(%rbp)
    d4a5:	48 c7 85 18 fc ff ff 	movq   $0x0,-0x3e8(%rbp)
    d4ac:	00 00 00 00 
    d4b0:	48 c7 85 20 fc ff ff 	movq   $0x0,-0x3e0(%rbp)
    d4b7:	00 00 00 00 
    d4bb:	48 8d 05 86 9c 00 00 	lea    0x9c86(%rip),%rax        # 17148 <g_283>
    d4c2:	48 89 85 28 fc ff ff 	mov    %rax,-0x3d8(%rbp)
    d4c9:	48 8d 05 c0 9b 00 00 	lea    0x9bc0(%rip),%rax        # 17090 <g_32>
    d4d0:	48 89 85 30 fc ff ff 	mov    %rax,-0x3d0(%rbp)
    d4d7:	48 8d 85 40 f5 ff ff 	lea    -0xac0(%rbp),%rax
    d4de:	48 83 c0 24          	add    $0x24,%rax
    d4e2:	48 89 85 38 fc ff ff 	mov    %rax,-0x3c8(%rbp)
    d4e9:	48 c7 85 40 fc ff ff 	movq   $0x0,-0x3c0(%rbp)
    d4f0:	00 00 00 00 
    d4f4:	48 8d 85 48 f4 ff ff 	lea    -0xbb8(%rbp),%rax
    d4fb:	48 89 85 48 fc ff ff 	mov    %rax,-0x3b8(%rbp)
    d502:	48 8d 05 eb 9c 00 00 	lea    0x9ceb(%rip),%rax        # 171f4 <g_859+0x14>
    d509:	48 89 85 50 fc ff ff 	mov    %rax,-0x3b0(%rbp)
    d510:	48 c7 85 58 fc ff ff 	movq   $0x0,-0x3a8(%rbp)
    d517:	00 00 00 00 
    d51b:	48 8d 85 44 f4 ff ff 	lea    -0xbbc(%rbp),%rax
    d522:	48 89 85 60 fc ff ff 	mov    %rax,-0x3a0(%rbp)
    d529:	48 c7 85 68 fc ff ff 	movq   $0x0,-0x398(%rbp)
    d530:	00 00 00 00 
    d534:	48 c7 85 70 fc ff ff 	movq   $0x0,-0x390(%rbp)
    d53b:	00 00 00 00 
    d53f:	48 c7 85 78 fc ff ff 	movq   $0x0,-0x388(%rbp)
    d546:	00 00 00 00 
    d54a:	48 8d 85 40 f5 ff ff 	lea    -0xac0(%rbp),%rax
    d551:	48 89 85 80 fc ff ff 	mov    %rax,-0x380(%rbp)
    d558:	48 8d 85 40 f5 ff ff 	lea    -0xac0(%rbp),%rax
    d55f:	48 83 c0 24          	add    $0x24,%rax
    d563:	48 89 85 88 fc ff ff 	mov    %rax,-0x378(%rbp)
    d56a:	48 8d 85 40 f5 ff ff 	lea    -0xac0(%rbp),%rax
    d571:	48 89 85 90 fc ff ff 	mov    %rax,-0x370(%rbp)
    d578:	48 8d 85 48 f4 ff ff 	lea    -0xbb8(%rbp),%rax
    d57f:	48 89 85 98 fc ff ff 	mov    %rax,-0x368(%rbp)
    d586:	48 8d 05 0b 9b 00 00 	lea    0x9b0b(%rip),%rax        # 17098 <g_34>
    d58d:	48 89 85 a0 fc ff ff 	mov    %rax,-0x360(%rbp)
    d594:	48 8d 05 fd 9a 00 00 	lea    0x9afd(%rip),%rax        # 17098 <g_34>
    d59b:	48 89 85 a8 fc ff ff 	mov    %rax,-0x358(%rbp)
    d5a2:	48 8d 85 48 f4 ff ff 	lea    -0xbb8(%rbp),%rax
    d5a9:	48 89 85 b0 fc ff ff 	mov    %rax,-0x350(%rbp)
    d5b0:	48 8d 85 44 f4 ff ff 	lea    -0xbbc(%rbp),%rax
    d5b7:	48 89 85 b8 fc ff ff 	mov    %rax,-0x348(%rbp)
    d5be:	48 c7 85 c0 fc ff ff 	movq   $0x0,-0x340(%rbp)
    d5c5:	00 00 00 00 
    d5c9:	48 8d 85 40 f5 ff ff 	lea    -0xac0(%rbp),%rax
    d5d0:	48 83 c0 24          	add    $0x24,%rax
    d5d4:	48 89 85 c8 fc ff ff 	mov    %rax,-0x338(%rbp)
    d5db:	48 8d 05 b6 9a 00 00 	lea    0x9ab6(%rip),%rax        # 17098 <g_34>
    d5e2:	48 89 85 d0 fc ff ff 	mov    %rax,-0x330(%rbp)
    d5e9:	48 8d 05 58 9a 00 00 	lea    0x9a58(%rip),%rax        # 17048 <g_6+0x18>
    d5f0:	48 89 85 d8 fc ff ff 	mov    %rax,-0x328(%rbp)
    d5f7:	48 8d 85 4c f4 ff ff 	lea    -0xbb4(%rbp),%rax
    d5fe:	48 89 85 e0 fc ff ff 	mov    %rax,-0x320(%rbp)
    d605:	48 8d 05 3c 9a 00 00 	lea    0x9a3c(%rip),%rax        # 17048 <g_6+0x18>
    d60c:	48 89 85 e8 fc ff ff 	mov    %rax,-0x318(%rbp)
    d613:	48 c7 85 f0 fc ff ff 	movq   $0x0,-0x310(%rbp)
    d61a:	00 00 00 00 
    d61e:	48 8d 85 40 f5 ff ff 	lea    -0xac0(%rbp),%rax
    d625:	48 89 85 f8 fc ff ff 	mov    %rax,-0x308(%rbp)
    d62c:	48 c7 85 00 fd ff ff 	movq   $0x0,-0x300(%rbp)
    d633:	00 00 00 00 
    d637:	48 8d 05 52 9a 00 00 	lea    0x9a52(%rip),%rax        # 17090 <g_32>
    d63e:	48 89 85 08 fd ff ff 	mov    %rax,-0x2f8(%rbp)
    d645:	48 8d 05 a8 9b 00 00 	lea    0x9ba8(%rip),%rax        # 171f4 <g_859+0x14>
    d64c:	48 89 85 10 fd ff ff 	mov    %rax,-0x2f0(%rbp)
    d653:	48 8d 85 40 f5 ff ff 	lea    -0xac0(%rbp),%rax
    d65a:	48 83 c0 24          	add    $0x24,%rax
    d65e:	48 89 85 18 fd ff ff 	mov    %rax,-0x2e8(%rbp)
    d665:	48 c7 85 20 fd ff ff 	movq   $0x0,-0x2e0(%rbp)
    d66c:	00 00 00 00 
    d670:	48 c7 85 28 fd ff ff 	movq   $0x0,-0x2d8(%rbp)
    d677:	00 00 00 00 
    d67b:	48 8d 85 4c f4 ff ff 	lea    -0xbb4(%rbp),%rax
    d682:	48 89 85 30 fd ff ff 	mov    %rax,-0x2d0(%rbp)
    d689:	48 8d 05 00 9a 00 00 	lea    0x9a00(%rip),%rax        # 17090 <g_32>
    d690:	48 89 85 38 fd ff ff 	mov    %rax,-0x2c8(%rbp)
    d697:	48 c7 85 40 fd ff ff 	movq   $0x0,-0x2c0(%rbp)
    d69e:	00 00 00 00 
    d6a2:	48 8d 05 e7 99 00 00 	lea    0x99e7(%rip),%rax        # 17090 <g_32>
    d6a9:	48 89 85 48 fd ff ff 	mov    %rax,-0x2b8(%rbp)
    d6b0:	48 8d 85 4c f4 ff ff 	lea    -0xbb4(%rbp),%rax
    d6b7:	48 89 85 50 fd ff ff 	mov    %rax,-0x2b0(%rbp)
    d6be:	48 8d 85 44 f4 ff ff 	lea    -0xbbc(%rbp),%rax
    d6c5:	48 89 85 58 fd ff ff 	mov    %rax,-0x2a8(%rbp)
    d6cc:	48 8d 05 75 9a 00 00 	lea    0x9a75(%rip),%rax        # 17148 <g_283>
    d6d3:	48 89 85 60 fd ff ff 	mov    %rax,-0x2a0(%rbp)
    d6da:	48 c7 85 68 fd ff ff 	movq   $0x0,-0x298(%rbp)
    d6e1:	00 00 00 00 
    d6e5:	48 8d 85 40 f5 ff ff 	lea    -0xac0(%rbp),%rax
    d6ec:	48 83 c0 24          	add    $0x24,%rax
    d6f0:	48 89 85 70 fd ff ff 	mov    %rax,-0x290(%rbp)
    d6f7:	48 c7 85 78 fd ff ff 	movq   $0x0,-0x288(%rbp)
    d6fe:	00 00 00 00 
    d702:	48 8d 85 40 f5 ff ff 	lea    -0xac0(%rbp),%rax
    d709:	48 89 85 80 fd ff ff 	mov    %rax,-0x280(%rbp)
    d710:	48 8d 05 31 9a 00 00 	lea    0x9a31(%rip),%rax        # 17148 <g_283>
    d717:	48 89 85 88 fd ff ff 	mov    %rax,-0x278(%rbp)
    d71e:	48 8d 85 40 f5 ff ff 	lea    -0xac0(%rbp),%rax
    d725:	48 83 c0 24          	add    $0x24,%rax
    d729:	48 89 85 90 fd ff ff 	mov    %rax,-0x270(%rbp)
    d730:	48 8d 85 40 f5 ff ff 	lea    -0xac0(%rbp),%rax
    d737:	48 83 c0 24          	add    $0x24,%rax
    d73b:	48 89 85 98 fd ff ff 	mov    %rax,-0x268(%rbp)
    d742:	48 c7 85 a0 fd ff ff 	movq   $0x0,-0x260(%rbp)
    d749:	00 00 00 00 
    d74d:	48 c7 85 a8 fd ff ff 	movq   $0x0,-0x258(%rbp)
    d754:	00 00 00 00 
    d758:	48 8d 85 4c f4 ff ff 	lea    -0xbb4(%rbp),%rax
    d75f:	48 89 85 b0 fd ff ff 	mov    %rax,-0x250(%rbp)
    d766:	48 c7 85 b8 fd ff ff 	movq   $0x0,-0x248(%rbp)
    d76d:	00 00 00 00 
    d771:	48 8d 05 d0 99 00 00 	lea    0x99d0(%rip),%rax        # 17148 <g_283>
    d778:	48 89 85 c0 fd ff ff 	mov    %rax,-0x240(%rbp)
    d77f:	48 c7 85 c8 fd ff ff 	movq   $0x0,-0x238(%rbp)
    d786:	00 00 00 00 
    d78a:	48 c7 85 d0 fd ff ff 	movq   $0x0,-0x230(%rbp)
    d791:	00 00 00 00 
    d795:	48 8d 85 40 f5 ff ff 	lea    -0xac0(%rbp),%rax
    d79c:	48 83 c0 24          	add    $0x24,%rax
    d7a0:	48 89 85 d8 fd ff ff 	mov    %rax,-0x228(%rbp)
    d7a7:	48 8d 85 40 f5 ff ff 	lea    -0xac0(%rbp),%rax
    d7ae:	48 83 c0 24          	add    $0x24,%rax
    d7b2:	48 89 85 e0 fd ff ff 	mov    %rax,-0x220(%rbp)
    d7b9:	48 c7 85 e8 fd ff ff 	movq   $0x0,-0x218(%rbp)
    d7c0:	00 00 00 00 
    d7c4:	48 8d 85 4c f4 ff ff 	lea    -0xbb4(%rbp),%rax
    d7cb:	48 89 85 f0 fd ff ff 	mov    %rax,-0x210(%rbp)
    d7d2:	48 c7 85 f8 fd ff ff 	movq   $0x0,-0x208(%rbp)
    d7d9:	00 00 00 00 
    d7dd:	48 8d 85 40 f5 ff ff 	lea    -0xac0(%rbp),%rax
    d7e4:	48 83 c0 24          	add    $0x24,%rax
    d7e8:	48 89 85 00 fe ff ff 	mov    %rax,-0x200(%rbp)
    d7ef:	48 c7 85 08 fe ff ff 	movq   $0x0,-0x1f8(%rbp)
    d7f6:	00 00 00 00 
    d7fa:	48 8d 85 40 f5 ff ff 	lea    -0xac0(%rbp),%rax
    d801:	48 83 c0 24          	add    $0x24,%rax
    d805:	48 89 85 10 fe ff ff 	mov    %rax,-0x1f0(%rbp)
    d80c:	48 8d 05 35 99 00 00 	lea    0x9935(%rip),%rax        # 17148 <g_283>
    d813:	48 89 85 18 fe ff ff 	mov    %rax,-0x1e8(%rbp)
    d81a:	48 8d 05 d3 99 00 00 	lea    0x99d3(%rip),%rax        # 171f4 <g_859+0x14>
    d821:	48 89 85 20 fe ff ff 	mov    %rax,-0x1e0(%rbp)
    d828:	48 8d 05 61 98 00 00 	lea    0x9861(%rip),%rax        # 17090 <g_32>
    d82f:	48 89 85 28 fe ff ff 	mov    %rax,-0x1d8(%rbp)
    d836:	48 c7 85 30 fe ff ff 	movq   $0x0,-0x1d0(%rbp)
    d83d:	00 00 00 00 
    d841:	48 8d 85 4c f4 ff ff 	lea    -0xbb4(%rbp),%rax
    d848:	48 89 85 38 fe ff ff 	mov    %rax,-0x1c8(%rbp)
    d84f:	48 c7 85 40 fe ff ff 	movq   $0x0,-0x1c0(%rbp)
    d856:	00 00 00 00 
    d85a:	48 c7 85 48 fe ff ff 	movq   $0x0,-0x1b8(%rbp)
    d861:	00 00 00 00 
    d865:	48 8d 85 44 f4 ff ff 	lea    -0xbbc(%rbp),%rax
    d86c:	48 89 85 50 fe ff ff 	mov    %rax,-0x1b0(%rbp)
    d873:	48 8d 85 40 f5 ff ff 	lea    -0xac0(%rbp),%rax
    d87a:	48 89 85 58 fe ff ff 	mov    %rax,-0x1a8(%rbp)
    d881:	48 8d 85 40 f5 ff ff 	lea    -0xac0(%rbp),%rax
    d888:	48 83 c0 24          	add    $0x24,%rax
    d88c:	48 89 85 60 fe ff ff 	mov    %rax,-0x1a0(%rbp)
    d893:	48 8d 85 40 f5 ff ff 	lea    -0xac0(%rbp),%rax
    d89a:	48 83 c0 24          	add    $0x24,%rax
    d89e:	48 89 85 68 fe ff ff 	mov    %rax,-0x198(%rbp)
    d8a5:	48 8d 85 44 f4 ff ff 	lea    -0xbbc(%rbp),%rax
    d8ac:	48 89 85 70 fe ff ff 	mov    %rax,-0x190(%rbp)
    d8b3:	48 8d 05 3a 99 00 00 	lea    0x993a(%rip),%rax        # 171f4 <g_859+0x14>
    d8ba:	48 89 85 78 fe ff ff 	mov    %rax,-0x188(%rbp)
    d8c1:	48 8d 85 44 f4 ff ff 	lea    -0xbbc(%rbp),%rax
    d8c8:	48 89 85 80 fe ff ff 	mov    %rax,-0x180(%rbp)
    d8cf:	48 8d 05 72 98 00 00 	lea    0x9872(%rip),%rax        # 17148 <g_283>
    d8d6:	48 89 85 88 fe ff ff 	mov    %rax,-0x178(%rbp)
    d8dd:	48 c7 85 90 fe ff ff 	movq   $0x0,-0x170(%rbp)
    d8e4:	00 00 00 00 
    d8e8:	48 8d 85 44 f4 ff ff 	lea    -0xbbc(%rbp),%rax
    d8ef:	48 89 85 98 fe ff ff 	mov    %rax,-0x168(%rbp)
    d8f6:	48 8d 85 40 f5 ff ff 	lea    -0xac0(%rbp),%rax
    d8fd:	48 83 c0 24          	add    $0x24,%rax
    d901:	48 89 85 a0 fe ff ff 	mov    %rax,-0x160(%rbp)
    d908:	48 8d 85 4c f4 ff ff 	lea    -0xbb4(%rbp),%rax
    d90f:	48 89 85 a8 fe ff ff 	mov    %rax,-0x158(%rbp)
    d916:	48 8d 05 d7 98 00 00 	lea    0x98d7(%rip),%rax        # 171f4 <g_859+0x14>
    d91d:	48 89 85 b0 fe ff ff 	mov    %rax,-0x150(%rbp)
    d924:	48 8d 05 6d 97 00 00 	lea    0x976d(%rip),%rax        # 17098 <g_34>
    d92b:	48 89 85 b8 fe ff ff 	mov    %rax,-0x148(%rbp)
    d932:	48 c7 85 c0 fe ff ff 	movq   $0x0,-0x140(%rbp)
    d939:	00 00 00 00 
    d93d:	48 8d 85 40 f5 ff ff 	lea    -0xac0(%rbp),%rax
    d944:	48 89 85 c8 fe ff ff 	mov    %rax,-0x138(%rbp)
    d94b:	48 8d 05 3e 97 00 00 	lea    0x973e(%rip),%rax        # 17090 <g_32>
    d952:	48 89 85 d0 fe ff ff 	mov    %rax,-0x130(%rbp)
    d959:	48 c7 85 d8 fe ff ff 	movq   $0x0,-0x128(%rbp)
    d960:	00 00 00 00 
    d964:	48 8d 05 dd 96 00 00 	lea    0x96dd(%rip),%rax        # 17048 <g_6+0x18>
    d96b:	48 89 85 e0 fe ff ff 	mov    %rax,-0x120(%rbp)
    d972:	48 8d 05 7b 98 00 00 	lea    0x987b(%rip),%rax        # 171f4 <g_859+0x14>
    d979:	48 89 85 e8 fe ff ff 	mov    %rax,-0x118(%rbp)
    d980:	48 8d 85 40 f5 ff ff 	lea    -0xac0(%rbp),%rax
    d987:	48 83 c0 24          	add    $0x24,%rax
    d98b:	48 89 85 f0 fe ff ff 	mov    %rax,-0x110(%rbp)
    d992:	48 8d 85 4c f4 ff ff 	lea    -0xbb4(%rbp),%rax
    d999:	48 89 85 f8 fe ff ff 	mov    %rax,-0x108(%rbp)
    d9a0:	48 8d 05 f1 96 00 00 	lea    0x96f1(%rip),%rax        # 17098 <g_34>
    d9a7:	48 89 85 00 ff ff ff 	mov    %rax,-0x100(%rbp)
    d9ae:	48 8d 85 4c f4 ff ff 	lea    -0xbb4(%rbp),%rax
    d9b5:	48 89 85 08 ff ff ff 	mov    %rax,-0xf8(%rbp)
    d9bc:	48 c7 85 10 ff ff ff 	movq   $0x0,-0xf0(%rbp)
    d9c3:	00 00 00 00 
    d9c7:	48 c7 85 18 ff ff ff 	movq   $0x0,-0xe8(%rbp)
    d9ce:	00 00 00 00 
    d9d2:	48 8d 85 44 f4 ff ff 	lea    -0xbbc(%rbp),%rax
    d9d9:	48 89 85 20 ff ff ff 	mov    %rax,-0xe0(%rbp)
    d9e0:	48 8d 85 40 f5 ff ff 	lea    -0xac0(%rbp),%rax
    d9e7:	48 83 c0 24          	add    $0x24,%rax
    d9eb:	48 89 85 28 ff ff ff 	mov    %rax,-0xd8(%rbp)
    d9f2:	48 8d 85 4c f4 ff ff 	lea    -0xbb4(%rbp),%rax
    d9f9:	48 89 85 30 ff ff ff 	mov    %rax,-0xd0(%rbp)
    da00:	48 8d 05 41 97 00 00 	lea    0x9741(%rip),%rax        # 17148 <g_283>
    da07:	48 89 85 38 ff ff ff 	mov    %rax,-0xc8(%rbp)
    da0e:	48 c7 85 40 ff ff ff 	movq   $0x0,-0xc0(%rbp)
    da15:	00 00 00 00 
    da19:	48 8d 85 40 f5 ff ff 	lea    -0xac0(%rbp),%rax
    da20:	48 89 85 48 ff ff ff 	mov    %rax,-0xb8(%rbp)
    da27:	48 c7 85 50 ff ff ff 	movq   $0x0,-0xb0(%rbp)
    da2e:	00 00 00 00 
    da32:	48 8d 05 0f 96 00 00 	lea    0x960f(%rip),%rax        # 17048 <g_6+0x18>
    da39:	48 89 85 58 ff ff ff 	mov    %rax,-0xa8(%rbp)
    da40:	48 c7 85 60 ff ff ff 	movq   $0x0,-0xa0(%rbp)
    da47:	00 00 00 00 
    da4b:	48 c7 85 68 ff ff ff 	movq   $0x0,-0x98(%rbp)
    da52:	00 00 00 00 
    da56:	48 c7 85 70 ff ff ff 	movq   $0x0,-0x90(%rbp)
    da5d:	00 00 00 00 
    da61:	48 8d 85 40 f5 ff ff 	lea    -0xac0(%rbp),%rax
    da68:	48 83 c0 24          	add    $0x24,%rax
    da6c:	48 89 85 78 ff ff ff 	mov    %rax,-0x88(%rbp)
    da73:	48 8d 05 1e 96 00 00 	lea    0x961e(%rip),%rax        # 17098 <g_34>
    da7a:	48 89 45 80          	mov    %rax,-0x80(%rbp)
    da7e:	48 8d 85 40 f5 ff ff 	lea    -0xac0(%rbp),%rax
    da85:	48 83 c0 24          	add    $0x24,%rax
    da89:	48 89 45 88          	mov    %rax,-0x78(%rbp)
    da8d:	48 c7 45 90 00 00 00 	movq   $0x0,-0x70(%rbp)
    da94:	00 
    da95:	48 c7 45 98 00 00 00 	movq   $0x0,-0x68(%rbp)
    da9c:	00 
    da9d:	48 c7 45 a0 00 00 00 	movq   $0x0,-0x60(%rbp)
    daa4:	00 
    daa5:	48 c7 45 a8 00 00 00 	movq   $0x0,-0x58(%rbp)
    daac:	00 
    daad:	c7 85 64 f4 ff ff 00 	movl   $0x0,-0xb9c(%rbp)
    dab4:	00 00 00 
    dab7:	48 8b 05 9a c0 00 00 	mov    0xc09a(%rip),%rax        # 19b58 <g_1805>
    dabe:	48 8b 00             	mov    (%rax),%rax
    dac1:	48 8b 00             	mov    (%rax),%rax
    dac4:	48 8b 00             	mov    (%rax),%rax
    dac7:	48 89 c1             	mov    %rax,%rcx
    daca:	48 8b 95 40 f6 ff ff 	mov    -0x9c0(%rbp),%rdx
    dad1:	48 8b 85 30 f5 ff ff 	mov    -0xad0(%rbp),%rax
    dad8:	48 39 c2             	cmp    %rax,%rdx
    dadb:	0f 94 c0             	sete   %al
    dade:	0f b6 c0             	movzbl %al,%eax
    dae1:	f7 d0                	not    %eax
    dae3:	23 85 28 f4 ff ff    	and    -0xbd8(%rbp),%eax
    dae9:	89 c2                	mov    %eax,%edx
    daeb:	48 8b 85 c0 f4 ff ff 	mov    -0xb40(%rbp),%rax
    daf2:	48 89 10             	mov    %rdx,(%rax)
    daf5:	48 8b 85 c0 f4 ff ff 	mov    -0xb40(%rbp),%rax
    dafc:	48 8b 00             	mov    (%rax),%rax
    daff:	48 39 c1             	cmp    %rax,%rcx
    db02:	0f 94 c0             	sete   %al
    db05:	0f b6 c0             	movzbl %al,%eax
    db08:	f7 d0                	not    %eax
    db0a:	89 c1                	mov    %eax,%ecx
    db0c:	48 8b 05 65 b9 00 00 	mov    0xb965(%rip),%rax        # 19478 <g_105>
    db13:	8b 10                	mov    (%rax),%edx
    db15:	48 8b 05 5c b9 00 00 	mov    0xb95c(%rip),%rax        # 19478 <g_105>
    db1c:	09 ca                	or     %ecx,%edx
    db1e:	89 10                	mov    %edx,(%rax)
    db20:	8b 00                	mov    (%rax),%eax
    db22:	89 85 14 f5 ff ff    	mov    %eax,-0xaec(%rbp)
    db28:	0f b7 85 40 f4 ff ff 	movzwl -0xbc0(%rbp),%eax
    db2f:	83 c0 01             	add    $0x1,%eax
    db32:	66 89 85 40 f4 ff ff 	mov    %ax,-0xbc0(%rbp)
    db39:	c7 05 49 c9 00 00 00 	movl   $0x0,0xc949(%rip)        # 1a48c <g_1438>
    db40:	00 00 00 
    db43:	eb 21                	jmp    db66 <func_21+0xd83>
    db45:	8b 05 41 c9 00 00    	mov    0xc941(%rip),%eax        # 1a48c <g_1438>
    db4b:	89 c0                	mov    %eax,%eax
    db4d:	66 c7 84 45 e0 f4 ff 	movw   $0x5371,-0xb20(%rbp,%rax,2)
    db54:	ff 71 53 
    db57:	8b 05 2f c9 00 00    	mov    0xc92f(%rip),%eax        # 1a48c <g_1438>
    db5d:	83 c0 01             	add    $0x1,%eax
    db60:	89 05 26 c9 00 00    	mov    %eax,0xc926(%rip)        # 1a48c <g_1438>
    db66:	8b 05 20 c9 00 00    	mov    0xc920(%rip),%eax        # 1a48c <g_1438>
    db6c:	83 f8 09             	cmp    $0x9,%eax
    db6f:	76 d4                	jbe    db45 <func_21+0xd62>
    db71:	0f b7 85 42 f4 ff ff 	movzwl -0xbbe(%rbp),%eax
    db78:	83 e8 01             	sub    $0x1,%eax
    db7b:	66 89 85 42 f4 ff ff 	mov    %ax,-0xbbe(%rbp)
    db82:	eb 4c                	jmp    dbd0 <func_21+0xded>
    db84:	48 8d 85 f0 fb ff ff 	lea    -0x410(%rbp),%rax
    db8b:	48 8d 15 0e a8 00 00 	lea    0xa80e(%rip),%rdx        # 183a0 <g_2888+0xff0>
    db92:	b9 64 00 00 00       	mov    $0x64,%ecx
    db97:	48 89 c7             	mov    %rax,%rdi
    db9a:	48 89 d6             	mov    %rdx,%rsi
    db9d:	f3 48 a5             	rep movsq %ds:(%rsi),%es:(%rdi)
    dba0:	48 8b 05 09 be 00 00 	mov    0xbe09(%rip),%rax        # 199b0 <g_1029>
    dba7:	8b 08                	mov    (%rax),%ecx
    dba9:	48 8b 85 10 fd ff ff 	mov    -0x2f0(%rbp),%rax
    dbb0:	48 39 85 a0 f4 ff ff 	cmp    %rax,-0xb60(%rbp)
    dbb7:	0f 94 c0             	sete   %al
    dbba:	0f b6 c0             	movzbl %al,%eax
    dbbd:	0b 85 5c f4 ff ff    	or     -0xba4(%rbp),%eax
    dbc3:	89 c2                	mov    %eax,%edx
    dbc5:	48 8b 05 e4 bd 00 00 	mov    0xbde4(%rip),%rax        # 199b0 <g_1029>
    dbcc:	31 ca                	xor    %ecx,%edx
    dbce:	89 10                	mov    %edx,(%rax)
    dbd0:	48 8b 05 19 bf 00 00 	mov    0xbf19(%rip),%rax        # 19af0 <g_1581>
    dbd7:	48 8b 00             	mov    (%rax),%rax
    dbda:	48 89 85 90 f4 ff ff 	mov    %rax,-0xb70(%rbp)
    dbe1:	0f b6 05 1c 96 00 00 	movzbl 0x961c(%rip),%eax        # 17204 <g_1416>
    dbe8:	83 c0 01             	add    $0x1,%eax
    dbeb:	88 05 13 96 00 00    	mov    %al,0x9613(%rip)        # 17204 <g_1416>
    dbf1:	0f b6 05 0c 96 00 00 	movzbl 0x960c(%rip),%eax        # 17204 <g_1416>
    dbf8:	3c 02                	cmp    $0x2,%al
    dbfa:	0f 86 57 f6 ff ff    	jbe    d257 <func_21+0x474>
    dc00:	0f b7 85 2c f4 ff ff 	movzwl -0xbd4(%rbp),%eax
    dc07:	83 c0 01             	add    $0x1,%eax
    dc0a:	66 89 85 2c f4 ff ff 	mov    %ax,-0xbd4(%rbp)
    dc11:	66 83 bd 2c f4 ff ff 	cmpw   $0x2,-0xbd4(%rbp)
    dc18:	02 
    dc19:	0f 8e 24 f5 ff ff    	jle    d143 <func_21+0x360>
    dc1f:	eb 01                	jmp    dc22 <func_21+0xe3f>
    dc21:	90                   	nop
    dc22:	8b 85 28 f4 ff ff    	mov    -0xbd8(%rbp),%eax
    dc28:	48 8b 5d e8          	mov    -0x18(%rbp),%rbx
    dc2c:	64 48 33 1c 25 28 00 	xor    %fs:0x28,%rbx
    dc33:	00 00 
    dc35:	74 05                	je     dc3c <func_21+0xe59>
    dc37:	e8 34 a4 ff ff       	callq  8070 <__stack_chk_fail@plt>
    dc3c:	48 81 c4 d0 0b 00 00 	add    $0xbd0,%rsp
    dc43:	5b                   	pop    %rbx
    dc44:	41 5c                	pop    %r12
    dc46:	5d                   	pop    %rbp
    dc47:	c3                   	retq   

000000000000dc48 <func_26>:
    dc48:	f3 0f 1e fa          	endbr64 
    dc4c:	55                   	push   %rbp
    dc4d:	48 89 e5             	mov    %rsp,%rbp
    dc50:	41 57                	push   %r15
    dc52:	41 56                	push   %r14
    dc54:	41 55                	push   %r13
    dc56:	41 54                	push   %r12
    dc58:	53                   	push   %rbx
    dc59:	48 81 ec f8 03 00 00 	sub    $0x3f8,%rsp
    dc60:	89 f8                	mov    %edi,%eax
    dc62:	66 89 85 0c fc ff ff 	mov    %ax,-0x3f4(%rbp)
    dc69:	64 48 8b 04 25 28 00 	mov    %fs:0x28,%rax
    dc70:	00 00 
    dc72:	48 89 45 c8          	mov    %rax,-0x38(%rbp)
    dc76:	31 c0                	xor    %eax,%eax
    dc78:	c7 85 a0 fe ff ff 00 	movl   $0x0,-0x160(%rbp)
    dc7f:	00 00 00 
    dc82:	c7 85 a4 fe ff ff 00 	movl   $0x0,-0x15c(%rbp)
    dc89:	00 00 00 
    dc8c:	c7 85 a8 fe ff ff f1 	movl   $0x1ee4cff1,-0x158(%rbp)
    dc93:	cf e4 1e 
    dc96:	c7 85 ac fe ff ff f1 	movl   $0x1ee4cff1,-0x154(%rbp)
    dc9d:	cf e4 1e 
    dca0:	c7 85 b0 fe ff ff 00 	movl   $0x0,-0x150(%rbp)
    dca7:	00 00 00 
    dcaa:	c7 85 b4 fe ff ff 6a 	movl   $0xb8cff26a,-0x14c(%rbp)
    dcb1:	f2 cf b8 
    dcb4:	c7 85 b8 fe ff ff 49 	movl   $0x44d99649,-0x148(%rbp)
    dcbb:	96 d9 44 
    dcbe:	c7 85 bc fe ff ff 6a 	movl   $0xb8cff26a,-0x144(%rbp)
    dcc5:	f2 cf b8 
    dcc8:	c7 85 c0 fe ff ff 49 	movl   $0x44d99649,-0x140(%rbp)
    dccf:	96 d9 44 
    dcd2:	c7 85 c4 fe ff ff 6a 	movl   $0xb8cff26a,-0x13c(%rbp)
    dcd9:	f2 cf b8 
    dcdc:	c7 85 c8 fe ff ff 00 	movl   $0x0,-0x138(%rbp)
    dce3:	00 00 00 
    dce6:	c7 85 cc fe ff ff f1 	movl   $0x1ee4cff1,-0x134(%rbp)
    dced:	cf e4 1e 
    dcf0:	c7 85 d0 fe ff ff f1 	movl   $0x1ee4cff1,-0x130(%rbp)
    dcf7:	cf e4 1e 
    dcfa:	c7 85 d4 fe ff ff 00 	movl   $0x0,-0x12c(%rbp)
    dd01:	00 00 00 
    dd04:	c7 85 d8 fe ff ff 00 	movl   $0x0,-0x128(%rbp)
    dd0b:	00 00 00 
    dd0e:	c7 85 dc fe ff ff fd 	movl   $0xfffffffd,-0x124(%rbp)
    dd15:	ff ff ff 
    dd18:	c7 85 e0 fe ff ff 49 	movl   $0x44d99649,-0x120(%rbp)
    dd1f:	96 d9 44 
    dd22:	c7 85 e4 fe ff ff fd 	movl   $0xfffffffd,-0x11c(%rbp)
    dd29:	ff ff ff 
    dd2c:	c7 85 e8 fe ff ff 49 	movl   $0x44d99649,-0x118(%rbp)
    dd33:	96 d9 44 
    dd36:	c7 85 ec fe ff ff fd 	movl   $0xfffffffd,-0x114(%rbp)
    dd3d:	ff ff ff 
    dd40:	c7 85 f0 fe ff ff 00 	movl   $0x0,-0x110(%rbp)
    dd47:	00 00 00 
    dd4a:	c7 85 f4 fe ff ff 00 	movl   $0x0,-0x10c(%rbp)
    dd51:	00 00 00 
    dd54:	c7 85 f8 fe ff ff f1 	movl   $0x1ee4cff1,-0x108(%rbp)
    dd5b:	cf e4 1e 
    dd5e:	c7 85 fc fe ff ff f1 	movl   $0x1ee4cff1,-0x104(%rbp)
    dd65:	cf e4 1e 
    dd68:	c7 85 00 ff ff ff 00 	movl   $0x0,-0x100(%rbp)
    dd6f:	00 00 00 
    dd72:	48 c7 85 a8 fc ff ff 	movq   $0x0,-0x358(%rbp)
    dd79:	00 00 00 00 
    dd7d:	48 8d 05 ac 92 00 00 	lea    0x92ac(%rip),%rax        # 17030 <g_6>
    dd84:	48 89 85 d0 fc ff ff 	mov    %rax,-0x330(%rbp)
    dd8b:	c7 85 38 fc ff ff 01 	movl   $0x1,-0x3c8(%rbp)
    dd92:	00 00 00 
    dd95:	c7 85 3c fc ff ff 8b 	movl   $0xfefd2b8b,-0x3c4(%rbp)
    dd9c:	2b fd fe 
    dd9f:	c7 85 1c fc ff ff 81 	movl   $0x1d86de81,-0x3e4(%rbp)
    dda6:	de 86 1d 
    dda9:	c7 85 40 fc ff ff 5a 	movl   $0xad17c55a,-0x3c0(%rbp)
    ddb0:	c5 17 ad 
    ddb3:	c7 85 44 fc ff ff e4 	movl   $0xc0adc5e4,-0x3bc(%rbp)
    ddba:	c5 ad c0 
    ddbd:	c7 85 48 fc ff ff 37 	movl   $0x19c6f037,-0x3b8(%rbp)
    ddc4:	f0 c6 19 
    ddc7:	c7 85 c0 fd ff ff 90 	movl   $0xe1b20090,-0x240(%rbp)
    ddce:	00 b2 e1 
    ddd1:	c7 85 c4 fd ff ff 01 	movl   $0x1,-0x23c(%rbp)
    ddd8:	00 00 00 
    dddb:	c7 85 c8 fd ff ff 90 	movl   $0xe1b20090,-0x238(%rbp)
    dde2:	00 b2 e1 
    dde5:	c7 85 cc fd ff ff 01 	movl   $0x1,-0x234(%rbp)
    ddec:	00 00 00 
    ddef:	c7 85 d0 fd ff ff 90 	movl   $0xe1b20090,-0x230(%rbp)
    ddf6:	00 b2 e1 
    ddf9:	c7 85 4c fc ff ff 5f 	movl   $0x5b0e815f,-0x3b4(%rbp)
    de00:	81 0e 5b 
    de03:	48 8d 05 e6 92 00 00 	lea    0x92e6(%rip),%rax        # 170f0 <g_74>
    de0a:	48 89 85 d8 fc ff ff 	mov    %rax,-0x328(%rbp)
    de11:	48 8d 05 60 b6 00 00 	lea    0xb660(%rip),%rax        # 19478 <g_105>
    de18:	48 89 85 b0 fc ff ff 	mov    %rax,-0x350(%rbp)
    de1f:	48 8d 85 b0 fc ff ff 	lea    -0x350(%rbp),%rax
    de26:	48 89 85 e0 fc ff ff 	mov    %rax,-0x320(%rbp)
    de2d:	66 c7 85 0c fc ff ff 	movw   $0x0,-0x3f4(%rbp)
    de34:	00 00 
    de36:	e9 26 0f 00 00       	jmpq   ed61 <func_26+0x1119>
    de3b:	66 c7 85 18 fc ff ff 	movw   $0x3,-0x3e8(%rbp)
    de42:	03 00 
    de44:	c7 85 50 fc ff ff ff 	movl   $0xffffffff,-0x3b0(%rbp)
    de4b:	ff ff ff 
    de4e:	c7 85 54 fc ff ff 00 	movl   $0x0,-0x3ac(%rbp)
    de55:	00 00 00 
    de58:	c7 85 10 ff ff ff 01 	movl   $0x1,-0xf0(%rbp)
    de5f:	00 00 00 
    de62:	c7 85 14 ff ff ff ff 	movl   $0xffffffff,-0xec(%rbp)
    de69:	ff ff ff 
    de6c:	c7 85 18 ff ff ff 01 	movl   $0x1,-0xe8(%rbp)
    de73:	00 00 00 
    de76:	c7 85 1c ff ff ff 09 	movl   $0x9,-0xe4(%rbp)
    de7d:	00 00 00 
    de80:	c7 85 20 ff ff ff 64 	movl   $0x49e23864,-0xe0(%rbp)
    de87:	38 e2 49 
    de8a:	c7 85 24 ff ff ff e8 	movl   $0x5d790de8,-0xdc(%rbp)
    de91:	0d 79 5d 
    de94:	c7 85 28 ff ff ff 00 	movl   $0x0,-0xd8(%rbp)
    de9b:	00 00 00 
    de9e:	c7 85 2c ff ff ff ff 	movl   $0xffffffff,-0xd4(%rbp)
    dea5:	ff ff ff 
    dea8:	c7 85 30 ff ff ff 00 	movl   $0x0,-0xd0(%rbp)
    deaf:	00 00 00 
    deb2:	c7 85 34 ff ff ff 01 	movl   $0x1,-0xcc(%rbp)
    deb9:	00 00 00 
    debc:	c7 85 38 ff ff ff cb 	movl   $0x22415ecb,-0xc8(%rbp)
    dec3:	5e 41 22 
    dec6:	c7 85 3c ff ff ff 00 	movl   $0x0,-0xc4(%rbp)
    decd:	00 00 00 
    ded0:	c7 85 40 ff ff ff 06 	movl   $0x6,-0xc0(%rbp)
    ded7:	00 00 00 
    deda:	c7 85 44 ff ff ff 00 	movl   $0x0,-0xbc(%rbp)
    dee1:	00 00 00 
    dee4:	c7 85 48 ff ff ff cb 	movl   $0x22415ecb,-0xb8(%rbp)
    deeb:	5e 41 22 
    deee:	c7 85 4c ff ff ff 01 	movl   $0x1,-0xb4(%rbp)
    def5:	00 00 00 
    def8:	c7 85 50 ff ff ff 01 	movl   $0x1,-0xb0(%rbp)
    deff:	00 00 00 
    df02:	c7 85 54 ff ff ff ff 	movl   $0xffffffff,-0xac(%rbp)
    df09:	ff ff ff 
    df0c:	c7 85 58 ff ff ff 01 	movl   $0x1,-0xa8(%rbp)
    df13:	00 00 00 
    df16:	c7 85 5c ff ff ff 00 	movl   $0x0,-0xa4(%rbp)
    df1d:	00 00 00 
    df20:	c7 85 60 ff ff ff 06 	movl   $0x6,-0xa0(%rbp)
    df27:	00 00 00 
    df2a:	c7 85 64 ff ff ff 01 	movl   $0x1,-0x9c(%rbp)
    df31:	00 00 00 
    df34:	c7 85 68 ff ff ff e8 	movl   $0x5d790de8,-0x98(%rbp)
    df3b:	0d 79 5d 
    df3e:	c7 85 6c ff ff ff cb 	movl   $0x22415ecb,-0x94(%rbp)
    df45:	5e 41 22 
    df48:	c7 85 70 ff ff ff e8 	movl   $0x5d790de8,-0x90(%rbp)
    df4f:	0d 79 5d 
    df52:	c7 85 74 ff ff ff 01 	movl   $0x1,-0x8c(%rbp)
    df59:	00 00 00 
    df5c:	c7 85 78 ff ff ff 06 	movl   $0x6,-0x88(%rbp)
    df63:	00 00 00 
    df66:	c7 85 7c ff ff ff 06 	movl   $0x6,-0x84(%rbp)
    df6d:	00 00 00 
    df70:	c7 45 80 06 00 00 00 	movl   $0x6,-0x80(%rbp)
    df77:	c7 45 84 ff ff ff ff 	movl   $0xffffffff,-0x7c(%rbp)
    df7e:	c7 45 88 09 00 00 00 	movl   $0x9,-0x78(%rbp)
    df85:	c7 45 8c ff ff ff ff 	movl   $0xffffffff,-0x74(%rbp)
    df8c:	c7 45 90 00 00 00 00 	movl   $0x0,-0x70(%rbp)
    df93:	c7 45 94 cb 5e 41 22 	movl   $0x22415ecb,-0x6c(%rbp)
    df9a:	c7 45 98 01 00 00 00 	movl   $0x1,-0x68(%rbp)
    dfa1:	c7 45 9c cb 5e 41 22 	movl   $0x22415ecb,-0x64(%rbp)
    dfa8:	c7 45 a0 06 00 00 00 	movl   $0x6,-0x60(%rbp)
    dfaf:	c7 45 a4 01 00 00 00 	movl   $0x1,-0x5c(%rbp)
    dfb6:	c7 45 a8 00 00 00 00 	movl   $0x0,-0x58(%rbp)
    dfbd:	c7 45 ac 00 00 00 00 	movl   $0x0,-0x54(%rbp)
    dfc4:	c7 45 b0 01 00 00 00 	movl   $0x1,-0x50(%rbp)
    dfcb:	c7 45 b4 06 00 00 00 	movl   $0x6,-0x4c(%rbp)
    dfd2:	c7 45 b8 09 00 00 00 	movl   $0x9,-0x48(%rbp)
    dfd9:	c7 45 bc 00 00 00 00 	movl   $0x0,-0x44(%rbp)
    dfe0:	c7 45 c0 64 38 e2 49 	movl   $0x49e23864,-0x40(%rbp)
    dfe7:	c6 85 12 fc ff ff 00 	movb   $0x0,-0x3ee(%rbp)
    dfee:	48 8d 05 d3 b4 00 00 	lea    0xb4d3(%rip),%rax        # 194c8 <g_440>
    dff5:	48 89 85 e8 fc ff ff 	mov    %rax,-0x318(%rbp)
    dffc:	66 c7 85 1a fc ff ff 	movw   $0xcc7d,-0x3e6(%rbp)
    e003:	7d cc 
    e005:	c6 85 13 fc ff ff fb 	movb   $0xfb,-0x3ed(%rbp)
    e00c:	48 8d 85 a8 fc ff ff 	lea    -0x358(%rbp),%rax
    e013:	48 89 85 b8 fc ff ff 	mov    %rax,-0x348(%rbp)
    e01a:	48 8d 85 b8 fc ff ff 	lea    -0x348(%rbp),%rax
    e021:	48 89 85 c0 fc ff ff 	mov    %rax,-0x340(%rbp)
    e028:	c6 85 14 fc ff ff 23 	movb   $0x23,-0x3ec(%rbp)
    e02f:	c7 05 57 90 00 00 00 	movl   $0x0,0x9057(%rip)        # 17090 <g_32>
    e036:	00 00 00 
    e039:	e9 3b 06 00 00       	jmpq   e679 <func_26+0xa31>
    e03e:	c6 85 15 fc ff ff 00 	movb   $0x0,-0x3eb(%rbp)
    e045:	c7 85 58 fc ff ff 71 	movl   $0x1b089f71,-0x3a8(%rbp)
    e04c:	9f 08 1b 
    e04f:	c7 85 5c fc ff ff 48 	movl   $0xc0157248,-0x3a4(%rbp)
    e056:	72 15 c0 
    e059:	c7 85 60 fc ff ff 00 	movl   $0x0,-0x3a0(%rbp)
    e060:	00 00 00 
    e063:	c7 85 64 fc ff ff 07 	movl   $0x7,-0x39c(%rbp)
    e06a:	00 00 00 
    e06d:	c7 85 68 fc ff ff 00 	movl   $0x0,-0x398(%rbp)
    e074:	00 00 00 
    e077:	c7 85 6c fc ff ff 41 	movl   $0x633e1941,-0x394(%rbp)
    e07e:	19 3e 63 
    e081:	c7 85 70 fc ff ff 00 	movl   $0x0,-0x390(%rbp)
    e088:	00 00 00 
    e08b:	c7 85 74 fc ff ff a6 	movl   $0x80cd24a6,-0x38c(%rbp)
    e092:	24 cd 80 
    e095:	c7 85 78 fc ff ff 02 	movl   $0x2,-0x388(%rbp)
    e09c:	00 00 00 
    e09f:	c7 85 7c fc ff ff fa 	movl   $0xfffffffa,-0x384(%rbp)
    e0a6:	ff ff ff 
    e0a9:	c7 85 10 fe ff ff ff 	movl   $0xf72530ff,-0x1f0(%rbp)
    e0b0:	30 25 f7 
    e0b3:	66 c7 85 14 fe ff ff 	movw   $0x0,-0x1ec(%rbp)
    e0ba:	00 00 
    e0bc:	c7 85 16 fe ff ff f7 	movl   $0xf70000f7,-0x1ea(%rbp)
    e0c3:	00 00 f7 
    e0c6:	66 c7 85 1a fe ff ff 	movw   $0x3025,-0x1e6(%rbp)
    e0cd:	25 30 
    e0cf:	c7 85 1c fe ff ff ff 	movl   $0x306e6eff,-0x1e4(%rbp)
    e0d6:	6e 6e 30 
    e0d9:	66 c7 85 20 fe ff ff 	movw   $0xfdfd,-0x1e0(%rbp)
    e0e0:	fd fd 
    e0e2:	c7 85 22 fe ff ff fd 	movl   $0x25f825fd,-0x1de(%rbp)
    e0e9:	25 f8 25 
    e0ec:	66 c7 85 26 fe ff ff 	movw   $0xfffd,-0x1da(%rbp)
    e0f3:	fd ff 
    e0f5:	c7 85 28 fe ff ff fd 	movl   $0x1fd6efd,-0x1d8(%rbp)
    e0fc:	6e fd 01 
    e0ff:	66 c7 85 2c fe ff ff 	movw   $0x6e25,-0x1d4(%rbp)
    e106:	25 6e 
    e108:	c7 85 2e fe ff ff 6e 	movl   $0x6e6e006e,-0x1d2(%rbp)
    e10f:	00 6e 6e 
    e112:	66 c7 85 32 fe ff ff 	movw   $0x6e00,-0x1ce(%rbp)
    e119:	00 6e 
    e11b:	c7 85 34 fe ff ff 01 	movl   $0xfdfd3001,-0x1cc(%rbp)
    e122:	30 fd fd 
    e125:	66 c7 85 38 fe ff ff 	movw   $0xff6e,-0x1c8(%rbp)
    e12c:	6e ff 
    e12e:	c7 85 3a fe ff ff 00 	movl   $0x6ef8fd00,-0x1c6(%rbp)
    e135:	fd f8 6e 
    e138:	66 c7 85 3e fe ff ff 	movw   $0xfdf8,-0x1c2(%rbp)
    e13f:	f8 fd 
    e141:	c7 85 80 fc ff ff f9 	movl   $0xfffffff9,-0x380(%rbp)
    e148:	ff ff ff 
    e14b:	c7 85 84 fc ff ff 40 	movl   $0x1714540,-0x37c(%rbp)
    e152:	45 71 01 
    e155:	c7 85 88 fc ff ff ff 	movl   $0xffffffff,-0x378(%rbp)
    e15c:	ff ff ff 
    e15f:	c7 85 8c fc ff ff 3e 	movl   $0x7b61373e,-0x374(%rbp)
    e166:	37 61 7b 
    e169:	c7 85 90 fc ff ff cd 	movl   $0xf6f7dacd,-0x370(%rbp)
    e170:	da f7 f6 
    e173:	c7 85 94 fc ff ff df 	movl   $0x3b3e4fdf,-0x36c(%rbp)
    e17a:	4f 3e 3b 
    e17d:	c7 85 98 fc ff ff 07 	movl   $0x7,-0x368(%rbp)
    e184:	00 00 00 
    e187:	c7 85 24 fc ff ff 00 	movl   $0x0,-0x3dc(%rbp)
    e18e:	00 00 00 
    e191:	eb 1a                	jmp    e1ad <func_26+0x565>
    e193:	8b 85 24 fc ff ff    	mov    -0x3dc(%rbp),%eax
    e199:	48 98                	cltq   
    e19b:	c7 84 85 a4 fd ff ff 	movl   $0xffffffff,-0x25c(%rbp,%rax,4)
    e1a2:	ff ff ff ff 
    e1a6:	83 85 24 fc ff ff 01 	addl   $0x1,-0x3dc(%rbp)
    e1ad:	83 bd 24 fc ff ff 02 	cmpl   $0x2,-0x3dc(%rbp)
    e1b4:	7e dd                	jle    e193 <func_26+0x54b>
    e1b6:	c7 05 d8 8e 00 00 00 	movl   $0x0,0x8ed8(%rip)        # 17098 <g_34>
    e1bd:	00 00 00 
    e1c0:	e9 7a 04 00 00       	jmpq   e63f <func_26+0x9f7>
    e1c5:	48 8d 05 ec 8e 00 00 	lea    0x8eec(%rip),%rax        # 170b8 <g_64+0x18>
    e1cc:	48 89 85 f0 fc ff ff 	mov    %rax,-0x310(%rbp)
    e1d3:	48 8d 85 a8 fc ff ff 	lea    -0x358(%rbp),%rax
    e1da:	48 89 85 f8 fc ff ff 	mov    %rax,-0x308(%rbp)
    e1e1:	48 c7 85 00 fd ff ff 	movq   $0x0,-0x300(%rbp)
    e1e8:	00 00 00 00 
    e1ec:	48 8d 05 3d 8e 00 00 	lea    0x8e3d(%rip),%rax        # 17030 <g_6>
    e1f3:	48 89 85 c8 fc ff ff 	mov    %rax,-0x338(%rbp)
    e1fa:	48 8d 85 c8 fc ff ff 	lea    -0x338(%rbp),%rax
    e201:	48 89 85 08 fd ff ff 	mov    %rax,-0x2f8(%rbp)
    e208:	48 8d 05 e1 8e 00 00 	lea    0x8ee1(%rip),%rax        # 170f0 <g_74>
    e20f:	48 89 85 10 fd ff ff 	mov    %rax,-0x2f0(%rbp)
    e216:	48 8d 05 81 8f 00 00 	lea    0x8f81(%rip),%rax        # 1719e <g_556>
    e21d:	48 89 85 18 fd ff ff 	mov    %rax,-0x2e8(%rbp)
    e224:	48 c7 85 20 fd ff ff 	movq   $0x0,-0x2e0(%rbp)
    e22b:	00 00 00 00 
    e22f:	48 8d 05 17 90 00 00 	lea    0x9017(%rip),%rax        # 1724d <g_1531+0x2d>
    e236:	48 89 85 28 fd ff ff 	mov    %rax,-0x2d8(%rbp)
    e23d:	48 c7 85 30 fd ff ff 	movq   $0x0,-0x2d0(%rbp)
    e244:	00 00 00 00 
    e248:	48 8d 05 a9 8f 00 00 	lea    0x8fa9(%rip),%rax        # 171f8 <g_859+0x18>
    e24f:	48 89 85 38 fd ff ff 	mov    %rax,-0x2c8(%rbp)
    e256:	48 8d 05 8b 8f 00 00 	lea    0x8f8b(%rip),%rax        # 171e8 <g_859+0x8>
    e25d:	48 89 85 40 fd ff ff 	mov    %rax,-0x2c0(%rbp)
    e264:	48 8d 05 4d 8e 00 00 	lea    0x8e4d(%rip),%rax        # 170b8 <g_64+0x18>
    e26b:	48 89 85 48 fd ff ff 	mov    %rax,-0x2b8(%rbp)
    e272:	48 8d 05 cf 8e 00 00 	lea    0x8ecf(%rip),%rax        # 17148 <g_283>
    e279:	48 89 85 50 fd ff ff 	mov    %rax,-0x2b0(%rbp)
    e280:	c7 85 20 fc ff ff ce 	movl   $0xb623d2ce,-0x3e0(%rbp)
    e287:	d2 23 b6 
    e28a:	c7 85 e0 fd ff ff fc 	movl   $0xc0fc53fc,-0x220(%rbp)
    e291:	53 fc c0 
    e294:	66 c7 85 e4 fd ff ff 	movw   $0xfcc0,-0x21c(%rbp)
    e29b:	c0 fc 
    e29d:	c6 85 e6 fd ff ff 53 	movb   $0x53,-0x21a(%rbp)
    e2a4:	c7 85 e7 fd ff ff 01 	movl   $0xfefe0001,-0x219(%rbp)
    e2ab:	00 fe fe 
    e2ae:	66 c7 85 eb fd ff ff 	movw   $0x100,-0x215(%rbp)
    e2b5:	00 01 
    e2b7:	c6 85 ed fd ff ff 00 	movb   $0x0,-0x213(%rbp)
    e2be:	c7 85 ee fd ff ff fc 	movl   $0xfcc0c0fc,-0x212(%rbp)
    e2c5:	c0 c0 fc 
    e2c8:	66 c7 85 f2 fd ff ff 	movw   $0xfc53,-0x20e(%rbp)
    e2cf:	53 fc 
    e2d1:	c6 85 f4 fd ff ff c0 	movb   $0xc0,-0x20c(%rbp)
    e2d8:	c7 85 f5 fd ff ff 01 	movl   $0xfe010101,-0x20b(%rbp)
    e2df:	01 01 fe 
    e2e2:	66 c7 85 f9 fd ff ff 	movw   $0x101,-0x207(%rbp)
    e2e9:	01 01 
    e2eb:	c6 85 fb fd ff ff 01 	movb   $0x1,-0x205(%rbp)
    e2f2:	c7 85 fc fd ff ff 00 	movl   $0xc004c000,-0x204(%rbp)
    e2f9:	c0 04 c0 
    e2fc:	66 c7 85 00 fe ff ff 	movw   $0x0,-0x200(%rbp)
    e303:	00 00 
    e305:	c6 85 02 fe ff ff c0 	movb   $0xc0,-0x1fe(%rbp)
    e30c:	c7 85 28 fc ff ff 00 	movl   $0x0,-0x3d8(%rbp)
    e313:	00 00 00 
    e316:	eb 49                	jmp    e361 <func_26+0x719>
    e318:	c7 85 2c fc ff ff 00 	movl   $0x0,-0x3d4(%rbp)
    e31f:	00 00 00 
    e322:	eb 2d                	jmp    e351 <func_26+0x709>
    e324:	8b 85 2c fc ff ff    	mov    -0x3d4(%rbp),%eax
    e32a:	48 98                	cltq   
    e32c:	8b 95 28 fc ff ff    	mov    -0x3d8(%rbp),%edx
    e332:	48 63 d2             	movslq %edx,%rdx
    e335:	48 01 d2             	add    %rdx,%rdx
    e338:	48 01 c2             	add    %rax,%rdx
    e33b:	48 8d 85 20 fc ff ff 	lea    -0x3e0(%rbp),%rax
    e342:	48 89 84 d5 b0 fd ff 	mov    %rax,-0x250(%rbp,%rdx,8)
    e349:	ff 
    e34a:	83 85 2c fc ff ff 01 	addl   $0x1,-0x3d4(%rbp)
    e351:	83 bd 2c fc ff ff 01 	cmpl   $0x1,-0x3d4(%rbp)
    e358:	7e ca                	jle    e324 <func_26+0x6dc>
    e35a:	83 85 28 fc ff ff 01 	addl   $0x1,-0x3d8(%rbp)
    e361:	83 bd 28 fc ff ff 00 	cmpl   $0x0,-0x3d8(%rbp)
    e368:	7e ae                	jle    e318 <func_26+0x6d0>
    e36a:	c7 85 28 fc ff ff 00 	movl   $0x0,-0x3d8(%rbp)
    e371:	00 00 00 
    e374:	eb 4e                	jmp    e3c4 <func_26+0x77c>
    e376:	c7 85 2c fc ff ff 00 	movl   $0x0,-0x3d4(%rbp)
    e37d:	00 00 00 
    e380:	eb 32                	jmp    e3b4 <func_26+0x76c>
    e382:	8b 85 2c fc ff ff    	mov    -0x3d4(%rbp),%eax
    e388:	48 63 c8             	movslq %eax,%rcx
    e38b:	8b 85 28 fc ff ff    	mov    -0x3d8(%rbp),%eax
    e391:	48 63 d0             	movslq %eax,%rdx
    e394:	48 89 d0             	mov    %rdx,%rax
    e397:	48 01 c0             	add    %rax,%rax
    e39a:	48 01 d0             	add    %rdx,%rax
    e39d:	48 01 c0             	add    %rax,%rax
    e3a0:	48 01 c8             	add    %rcx,%rax
    e3a3:	66 c7 84 45 40 fe ff 	movw   $0x9,-0x1c0(%rbp,%rax,2)
    e3aa:	ff 09 00 
    e3ad:	83 85 2c fc ff ff 01 	addl   $0x1,-0x3d4(%rbp)
    e3b4:	83 bd 2c fc ff ff 05 	cmpl   $0x5,-0x3d4(%rbp)
    e3bb:	7e c5                	jle    e382 <func_26+0x73a>
    e3bd:	83 85 28 fc ff ff 01 	addl   $0x1,-0x3d8(%rbp)
    e3c4:	83 bd 28 fc ff ff 07 	cmpl   $0x7,-0x3d8(%rbp)
    e3cb:	7e a9                	jle    e376 <func_26+0x72e>
    e3cd:	8b 05 bd 8c 00 00    	mov    0x8cbd(%rip),%eax        # 17090 <g_32>
    e3d3:	0f b7 95 0c fc ff ff 	movzwl -0x3f4(%rbp),%edx
    e3da:	48 63 ca             	movslq %edx,%rcx
    e3dd:	48 63 d0             	movslq %eax,%rdx
    e3e0:	48 89 d0             	mov    %rdx,%rax
    e3e3:	48 c1 e0 02          	shl    $0x2,%rax
    e3e7:	48 01 d0             	add    %rdx,%rax
    e3ea:	48 01 c8             	add    %rcx,%rax
    e3ed:	8b 84 85 a0 fe ff ff 	mov    -0x160(%rbp,%rax,4),%eax
    e3f4:	85 c0                	test   %eax,%eax
    e3f6:	0f 85 54 02 00 00    	jne    e650 <func_26+0xa08>
    e3fc:	0f b7 85 0c fc ff ff 	movzwl -0x3f4(%rbp),%eax
    e403:	0f b6 c0             	movzbl %al,%eax
    e406:	89 85 08 fc ff ff    	mov    %eax,-0x3f8(%rbp)
    e40c:	0f b7 9d 0c fc ff ff 	movzwl -0x3f4(%rbp),%ebx
    e413:	44 8b 35 e6 8d 00 00 	mov    0x8de6(%rip),%r14d        # 17200 <g_998>
    e41a:	48 8b 85 d0 fc ff ff 	mov    -0x330(%rbp),%rax
    e421:	44 8b 28             	mov    (%rax),%r13d
    e424:	44 0f b7 a5 0c fc ff 	movzwl -0x3f4(%rbp),%r12d
    e42b:	ff 
    e42c:	8b 05 fe 8b 00 00    	mov    0x8bfe(%rip),%eax        # 17030 <g_6>
    e432:	48 98                	cltq   
    e434:	48 89 85 00 fc ff ff 	mov    %rax,-0x400(%rbp)
    e43b:	0f b7 85 0c fc ff ff 	movzwl -0x3f4(%rbp),%eax
    e442:	0f b6 c0             	movzbl %al,%eax
    e445:	89 85 fc fb ff ff    	mov    %eax,-0x404(%rbp)
    e44b:	44 0f b7 bd 0c fc ff 	movzwl -0x3f4(%rbp),%r15d
    e452:	ff 
    e453:	8b 05 37 8c 00 00    	mov    0x8c37(%rip),%eax        # 17090 <g_32>
    e459:	89 85 f8 fb ff ff    	mov    %eax,-0x408(%rbp)
    e45f:	8b 05 df 8b 00 00    	mov    0x8bdf(%rip),%eax        # 17044 <g_6+0x14>
    e465:	89 85 f4 fb ff ff    	mov    %eax,-0x40c(%rbp)
    e46b:	0f b7 85 0c fc ff ff 	movzwl -0x3f4(%rbp),%eax
    e472:	0f be c0             	movsbl %al,%eax
    e475:	89 85 f0 fb ff ff    	mov    %eax,-0x410(%rbp)
    e47b:	8b 05 bf 8b 00 00    	mov    0x8bbf(%rip),%eax        # 17040 <g_6+0x10>
    e481:	85 c0                	test   %eax,%eax
    e483:	0f 85 c1 00 00 00    	jne    e54a <func_26+0x902>
    e489:	0f b7 95 0c fc ff ff 	movzwl -0x3f4(%rbp),%edx
    e490:	48 8b 85 f0 fc ff ff 	mov    -0x310(%rbp),%rax
    e497:	89 10                	mov    %edx,(%rax)
    e499:	48 8b 85 f0 fc ff ff 	mov    -0x310(%rbp),%rax
    e4a0:	8b 00                	mov    (%rax),%eax
    e4a2:	89 85 ec fb ff ff    	mov    %eax,-0x414(%rbp)
    e4a8:	0f b7 85 18 fc ff ff 	movzwl -0x3e8(%rbp),%eax
    e4af:	0f be c8             	movsbl %al,%ecx
    e4b2:	48 8b 95 a8 fc ff ff 	mov    -0x358(%rbp),%rdx
    e4b9:	48 8b 85 f8 fc ff ff 	mov    -0x308(%rbp),%rax
    e4c0:	48 89 10             	mov    %rdx,(%rax)
    e4c3:	48 8b 85 f8 fc ff ff 	mov    -0x308(%rbp),%rax
    e4ca:	48 8b 10             	mov    (%rax),%rdx
    e4cd:	48 8b 85 08 fd ff ff 	mov    -0x2f8(%rbp),%rax
    e4d4:	48 89 10             	mov    %rdx,(%rax)
    e4d7:	89 ce                	mov    %ecx,%esi
    e4d9:	bf 00 00 00 00       	mov    $0x0,%edi
    e4de:	e8 87 9d ff ff       	callq  826a <safe_div_func_int8_t_s_s>
    e4e3:	0f be c0             	movsbl %al,%eax
    e4e6:	0b 85 ec fb ff ff    	or     -0x414(%rbp),%eax
    e4ec:	48 63 d0             	movslq %eax,%rdx
    e4ef:	48 8b 85 10 fd ff ff 	mov    -0x2f0(%rbp),%rax
    e4f6:	48 89 10             	mov    %rdx,(%rax)
    e4f9:	48 8b 85 10 fd ff ff 	mov    -0x2f0(%rbp),%rax
    e500:	48 8b 10             	mov    (%rax),%rdx
    e503:	0f b7 85 0c fc ff ff 	movzwl -0x3f4(%rbp),%eax
    e50a:	48 39 c2             	cmp    %rax,%rdx
    e50d:	0f 93 c0             	setae  %al
    e510:	0f b6 d0             	movzbl %al,%edx
    e513:	8b 05 7f 8b 00 00    	mov    0x8b7f(%rip),%eax        # 17098 <g_34>
    e519:	39 c2                	cmp    %eax,%edx
    e51b:	0f 9f c0             	setg   %al
    e51e:	0f b6 c0             	movzbl %al,%eax
    e521:	be 7f 00 00 00       	mov    $0x7f,%esi
    e526:	89 c7                	mov    %eax,%edi
    e528:	e8 a7 9c ff ff       	callq  81d4 <safe_add_func_int8_t_s_s>
    e52d:	84 c0                	test   %al,%al
    e52f:	75 08                	jne    e539 <func_26+0x8f1>
    e531:	8b 05 61 8b 00 00    	mov    0x8b61(%rip),%eax        # 17098 <g_34>
    e537:	85 c0                	test   %eax,%eax
    e539:	8b 15 a1 8b 00 00    	mov    0x8ba1(%rip),%edx        # 170e0 <g_64+0x40>
    e53f:	0f b7 85 0c fc ff ff 	movzwl -0x3f4(%rbp),%eax
    e546:	39 c2                	cmp    %eax,%edx
    e548:	7e 07                	jle    e551 <func_26+0x909>
    e54a:	b8 01 00 00 00       	mov    $0x1,%eax
    e54f:	eb 05                	jmp    e556 <func_26+0x90e>
    e551:	b8 00 00 00 00       	mov    $0x0,%eax
    e556:	89 05 9c 8b 00 00    	mov    %eax,0x8b9c(%rip)        # 170f8 <g_75>
    e55c:	8b 05 96 8b 00 00    	mov    0x8b96(%rip),%eax        # 170f8 <g_75>
    e562:	8b 8d f8 fb ff ff    	mov    -0x408(%rbp),%ecx
    e568:	8b 95 f4 fb ff ff    	mov    -0x40c(%rbp),%edx
    e56e:	8b b5 f0 fb ff ff    	mov    -0x410(%rbp),%esi
    e574:	89 c7                	mov    %eax,%edi
    e576:	e8 49 2c 00 00       	callq  111c4 <func_56>
    e57b:	48 8b 85 10 fd ff ff 	mov    -0x2f0(%rbp),%rax
    e582:	48 c7 00 00 00 00 00 	movq   $0x0,(%rax)
    e589:	48 8b 85 10 fd ff ff 	mov    -0x2f0(%rbp),%rax
    e590:	48 8b 30             	mov    (%rax),%rsi
    e593:	0f b7 85 0c fc ff ff 	movzwl -0x3f4(%rbp),%eax
    e59a:	4c 8b 85 00 fc ff ff 	mov    -0x400(%rbp),%r8
    e5a1:	8b 8d fc fb ff ff    	mov    -0x404(%rbp),%ecx
    e5a7:	44 89 fa             	mov    %r15d,%edx
    e5aa:	89 c7                	mov    %eax,%edi
    e5ac:	e8 03 1f 00 00       	callq  104b4 <func_50>
    e5b1:	48 89 c7             	mov    %rax,%rdi
    e5b4:	e8 4c 16 00 00       	callq  fc05 <func_47>
    e5b9:	0f b7 85 0c fc ff ff 	movzwl -0x3f4(%rbp),%eax
    e5c0:	44 89 f1             	mov    %r14d,%ecx
    e5c3:	44 89 ea             	mov    %r13d,%edx
    e5c6:	44 89 e6             	mov    %r12d,%esi
    e5c9:	89 c7                	mov    %eax,%edi
    e5cb:	e8 2c 08 00 00       	callq  edfc <func_42>
    e5d0:	0f be b5 15 fc ff ff 	movsbl -0x3eb(%rbp),%esi
    e5d7:	8b 05 4f 8a 00 00    	mov    0x8a4f(%rip),%eax        # 1702c <g_5>
    e5dd:	0f b6 c0             	movzbl %al,%eax
    e5e0:	44 8b 85 08 fc ff ff 	mov    -0x3f8(%rbp),%r8d
    e5e7:	48 89 d9             	mov    %rbx,%rcx
    e5ea:	ba f6 ff 00 00       	mov    $0xfff6,%edx
    e5ef:	89 c7                	mov    %eax,%edi
    e5f1:	e8 ab 07 00 00       	callq  eda1 <func_35>
    e5f6:	48 8b 95 18 fd ff ff 	mov    -0x2e8(%rbp),%rdx
    e5fd:	88 02                	mov    %al,(%rdx)
    e5ff:	48 8b 85 18 fd ff ff 	mov    -0x2e8(%rbp),%rax
    e606:	0f b6 10             	movzbl (%rax),%edx
    e609:	48 8b 85 28 fd ff ff 	mov    -0x2d8(%rbp),%rax
    e610:	88 10                	mov    %dl,(%rax)
    e612:	48 8b 05 9f ae 00 00 	mov    0xae9f(%rip),%rax        # 194b8 <g_382>
    e619:	c7 00 01 00 00 00    	movl   $0x1,(%rax)
    e61f:	0f b7 85 4a fe ff ff 	movzwl -0x1b6(%rbp),%eax
    e626:	83 e8 01             	sub    $0x1,%eax
    e629:	66 89 85 4a fe ff ff 	mov    %ax,-0x1b6(%rbp)
    e630:	8b 05 62 8a 00 00    	mov    0x8a62(%rip),%eax        # 17098 <g_34>
    e636:	83 c0 01             	add    $0x1,%eax
    e639:	89 05 59 8a 00 00    	mov    %eax,0x8a59(%rip)        # 17098 <g_34>
    e63f:	8b 05 53 8a 00 00    	mov    0x8a53(%rip),%eax        # 17098 <g_34>
    e645:	83 f8 04             	cmp    $0x4,%eax
    e648:	0f 8e 77 fb ff ff    	jle    e1c5 <func_26+0x57d>
    e64e:	eb 01                	jmp    e651 <func_26+0xa09>
    e650:	90                   	nop
    e651:	66 83 bd 0c fc ff ff 	cmpw   $0x0,-0x3f4(%rbp)
    e658:	00 
    e659:	75 2f                	jne    e68a <func_26+0xa42>
    e65b:	48 8b 05 56 ae 00 00 	mov    0xae56(%rip),%rax        # 194b8 <g_382>
    e662:	8b 95 74 fc ff ff    	mov    -0x38c(%rbp),%edx
    e668:	89 10                	mov    %edx,(%rax)
    e66a:	8b 05 20 8a 00 00    	mov    0x8a20(%rip),%eax        # 17090 <g_32>
    e670:	83 c0 01             	add    $0x1,%eax
    e673:	89 05 17 8a 00 00    	mov    %eax,0x8a17(%rip)        # 17090 <g_32>
    e679:	8b 05 11 8a 00 00    	mov    0x8a11(%rip),%eax        # 17090 <g_32>
    e67f:	83 f8 04             	cmp    $0x4,%eax
    e682:	0f 8e b6 f9 ff ff    	jle    e03e <func_26+0x3f6>
    e688:	eb 01                	jmp    e68b <func_26+0xa43>
    e68a:	90                   	nop
    e68b:	66 83 bd 0c fc ff ff 	cmpw   $0x0,-0x3f4(%rbp)
    e692:	00 
    e693:	0f 85 d8 06 00 00    	jne    ed71 <func_26+0x1129>
    e699:	48 8b 05 18 ae 00 00 	mov    0xae18(%rip),%rax        # 194b8 <g_382>
    e6a0:	8b 00                	mov    (%rax),%eax
    e6a2:	85 c0                	test   %eax,%eax
    e6a4:	0f 85 ca 06 00 00    	jne    ed74 <func_26+0x112c>
    e6aa:	c7 05 cc bd 00 00 00 	movl   $0x0,0xbdcc(%rip)        # 1a480 <g_893>
    e6b1:	00 00 00 
    e6b4:	e9 91 06 00 00       	jmpq   ed4a <func_26+0x1102>
    e6b9:	66 c7 85 16 fc ff ff 	movw   $0xfc5c,-0x3ea(%rbp)
    e6c0:	5c fc 
    e6c2:	48 8d 05 ff ad 00 00 	lea    0xadff(%rip),%rax        # 194c8 <g_440>
    e6c9:	48 89 85 58 fd ff ff 	mov    %rax,-0x2a8(%rbp)
    e6d0:	48 8d 05 83 8a 00 00 	lea    0x8a83(%rip),%rax        # 1715a <g_396>
    e6d7:	48 89 85 60 fd ff ff 	mov    %rax,-0x2a0(%rbp)
    e6de:	48 8d 05 03 b1 00 00 	lea    0xb103(%rip),%rax        # 197e8 <g_652>
    e6e5:	48 89 85 68 fd ff ff 	mov    %rax,-0x298(%rbp)
    e6ec:	c7 85 9c fc ff ff 07 	movl   $0x7,-0x364(%rbp)
    e6f3:	00 00 00 
    e6f6:	48 8d 05 b3 b2 00 00 	lea    0xb2b3(%rip),%rax        # 199b0 <g_1029>
    e6fd:	48 89 85 c8 fc ff ff 	mov    %rax,-0x338(%rbp)
    e704:	48 8d 85 c8 fc ff ff 	lea    -0x338(%rbp),%rax
    e70b:	48 89 85 70 fd ff ff 	mov    %rax,-0x290(%rbp)
    e712:	48 8d 85 c0 fc ff ff 	lea    -0x340(%rbp),%rax
    e719:	48 89 85 78 fd ff ff 	mov    %rax,-0x288(%rbp)
    e720:	48 c7 85 80 fd ff ff 	movq   $0x0,-0x280(%rbp)
    e727:	00 00 00 00 
    e72b:	48 8d 05 2e 8a 00 00 	lea    0x8a2e(%rip),%rax        # 17160 <g_421>
    e732:	48 89 85 88 fd ff ff 	mov    %rax,-0x278(%rbp)
    e739:	48 8d 85 1c fc ff ff 	lea    -0x3e4(%rbp),%rax
    e740:	48 89 85 10 fe ff ff 	mov    %rax,-0x1f0(%rbp)
    e747:	48 8d 85 1c fc ff ff 	lea    -0x3e4(%rbp),%rax
    e74e:	48 89 85 18 fe ff ff 	mov    %rax,-0x1e8(%rbp)
    e755:	48 8d 85 1c fc ff ff 	lea    -0x3e4(%rbp),%rax
    e75c:	48 89 85 20 fe ff ff 	mov    %rax,-0x1e0(%rbp)
    e763:	48 8d 85 1c fc ff ff 	lea    -0x3e4(%rbp),%rax
    e76a:	48 89 85 28 fe ff ff 	mov    %rax,-0x1d8(%rbp)
    e771:	c7 85 30 fc ff ff 00 	movl   $0x0,-0x3d0(%rbp)
    e778:	00 00 00 
    e77b:	eb 1e                	jmp    e79b <func_26+0xb53>
    e77d:	8b 85 30 fc ff ff    	mov    -0x3d0(%rbp),%eax
    e783:	48 98                	cltq   
    e785:	48 8d 15 0c ad 00 00 	lea    0xad0c(%rip),%rdx        # 19498 <g_146+0x18>
    e78c:	48 89 94 c5 40 fe ff 	mov    %rdx,-0x1c0(%rbp,%rax,8)
    e793:	ff 
    e794:	83 85 30 fc ff ff 01 	addl   $0x1,-0x3d0(%rbp)
    e79b:	83 bd 30 fc ff ff 04 	cmpl   $0x4,-0x3d0(%rbp)
    e7a2:	7e d9                	jle    e77d <func_26+0xb35>
    e7a4:	66 c7 05 03 8a 00 00 	movw   $0x1,0x8a03(%rip)        # 171b0 <g_616>
    e7ab:	01 00 
    e7ad:	eb 30                	jmp    e7df <func_26+0xb97>
    e7af:	48 8b 05 ea b1 00 00 	mov    0xb1ea(%rip),%rax        # 199a0 <g_979>
    e7b6:	0f b6 10             	movzbl (%rax),%edx
    e7b9:	48 8b 05 f0 b1 00 00 	mov    0xb1f0(%rip),%rax        # 199b0 <g_1029>
    e7c0:	0f b6 d2             	movzbl %dl,%edx
    e7c3:	89 10                	mov    %edx,(%rax)
    e7c5:	8b 00                	mov    (%rax),%eax
    e7c7:	66 89 85 16 fc ff ff 	mov    %ax,-0x3ea(%rbp)
    e7ce:	0f b7 05 db 89 00 00 	movzwl 0x89db(%rip),%eax        # 171b0 <g_616>
    e7d5:	83 c0 01             	add    $0x1,%eax
    e7d8:	66 89 05 d1 89 00 00 	mov    %ax,0x89d1(%rip)        # 171b0 <g_616>
    e7df:	0f b7 05 ca 89 00 00 	movzwl 0x89ca(%rip),%eax        # 171b0 <g_616>
    e7e6:	66 83 f8 04          	cmp    $0x4,%ax
    e7ea:	76 c3                	jbe    e7af <func_26+0xb67>
    e7ec:	48 8b 05 b5 b1 00 00 	mov    0xb1b5(%rip),%rax        # 199a8 <g_978>
    e7f3:	48 8b 00             	mov    (%rax),%rax
    e7f6:	0f b6 00             	movzbl (%rax),%eax
    e7f9:	0f b6 d8             	movzbl %al,%ebx
    e7fc:	66 83 bd 0c fc ff ff 	cmpw   $0x0,-0x3f4(%rbp)
    e803:	00 
    e804:	0f 84 1f 01 00 00    	je     e929 <func_26+0xce1>
    e80a:	8b 45 bc             	mov    -0x44(%rbp),%eax
    e80d:	44 0f b7 e0          	movzwl %ax,%r12d
    e811:	0f be 85 12 fc ff ff 	movsbl -0x3ee(%rbp),%eax
    e818:	89 c6                	mov    %eax,%esi
    e81a:	bf 00 00 00 00       	mov    $0x0,%edi
    e81f:	e8 0d 9a ff ff       	callq  8231 <safe_mod_func_int8_t_s_s>
    e824:	83 c8 34             	or     $0x34,%eax
    e827:	0f be d0             	movsbl %al,%edx
    e82a:	0f b7 85 0c fc ff ff 	movzwl -0x3f4(%rbp),%eax
    e831:	98                   	cwtl   
    e832:	89 d6                	mov    %edx,%esi
    e834:	89 c7                	mov    %eax,%edi
    e836:	e8 ba 9b ff ff       	callq  83f5 <safe_mul_func_int16_t_s_s>
    e83b:	0f bf d0             	movswl %ax,%edx
    e83e:	48 8b 85 d0 fc ff ff 	mov    -0x330(%rbp),%rax
    e845:	8b 00                	mov    (%rax),%eax
    e847:	39 c2                	cmp    %eax,%edx
    e849:	0f 94 c0             	sete   %al
    e84c:	0f b6 c0             	movzbl %al,%eax
    e84f:	89 c6                	mov    %eax,%esi
    e851:	bf 73 65 00 00       	mov    $0x6573,%edi
    e856:	e8 a4 a4 ff ff       	callq  8cff <safe_add_func_uint16_t_u_u>
    e85b:	89 c2                	mov    %eax,%edx
    e85d:	48 8b 85 60 fd ff ff 	mov    -0x2a0(%rbp),%rax
    e864:	88 10                	mov    %dl,(%rax)
    e866:	48 8b 85 60 fd ff ff 	mov    -0x2a0(%rbp),%rax
    e86d:	0f b6 00             	movzbl (%rax),%eax
    e870:	0f be d0             	movsbl %al,%edx
    e873:	0f b7 05 b8 88 00 00 	movzwl 0x88b8(%rip),%eax        # 17132 <g_149>
    e87a:	0f be c0             	movsbl %al,%eax
    e87d:	89 d6                	mov    %edx,%esi
    e87f:	89 c7                	mov    %eax,%edi
    e881:	e8 8c 99 ff ff       	callq  8212 <safe_mul_func_int8_t_s_s>
    e886:	66 98                	cbtw   
    e888:	66 39 85 1a fc ff ff 	cmp    %ax,-0x3e6(%rbp)
    e88f:	75 07                	jne    e898 <func_26+0xc50>
    e891:	ba 01 00 00 00       	mov    $0x1,%edx
    e896:	eb 05                	jmp    e89d <func_26+0xc55>
    e898:	ba 00 00 00 00       	mov    $0x0,%edx
    e89d:	0f be 85 12 fc ff ff 	movsbl -0x3ee(%rbp),%eax
    e8a4:	89 d6                	mov    %edx,%esi
    e8a6:	89 c7                	mov    %eax,%edi
    e8a8:	e8 0b a6 ff ff       	callq  8eb8 <safe_add_func_uint32_t_u_u>
    e8ad:	0f b7 c0             	movzwl %ax,%eax
    e8b0:	44 89 e6             	mov    %r12d,%esi
    e8b3:	89 c7                	mov    %eax,%edi
    e8b5:	e8 65 a4 ff ff       	callq  8d1f <safe_sub_func_uint16_t_u_u>
    e8ba:	0f b7 d0             	movzwl %ax,%edx
    e8bd:	0f be 85 13 fc ff ff 	movsbl -0x3ed(%rbp),%eax
    e8c4:	39 c2                	cmp    %eax,%edx
    e8c6:	7d 11                	jge    e8d9 <func_26+0xc91>
    e8c8:	66 83 bd 0c fc ff ff 	cmpw   $0x0,-0x3f4(%rbp)
    e8cf:	00 
    e8d0:	74 07                	je     e8d9 <func_26+0xc91>
    e8d2:	b8 01 00 00 00       	mov    $0x1,%eax
    e8d7:	eb 05                	jmp    e8de <func_26+0xc96>
    e8d9:	b8 00 00 00 00       	mov    $0x0,%eax
    e8de:	44 0f b7 e0          	movzwl %ax,%r12d
    e8e2:	48 8b 05 b7 b0 00 00 	mov    0xb0b7(%rip),%rax        # 199a0 <g_979>
    e8e9:	0f b6 00             	movzbl (%rax),%eax
    e8ec:	0f b6 d0             	movzbl %al,%edx
    e8ef:	48 8b 05 f2 b1 00 00 	mov    0xb1f2(%rip),%rax        # 19ae8 <g_1514>
    e8f6:	48 8b 8d 58 fd ff ff 	mov    -0x2a8(%rbp),%rcx
    e8fd:	48 89 08             	mov    %rcx,(%rax)
    e900:	48 8b 00             	mov    (%rax),%rax
    e903:	48 39 85 e8 fc ff ff 	cmp    %rax,-0x318(%rbp)
    e90a:	0f 95 c0             	setne  %al
    e90d:	0f b6 c0             	movzbl %al,%eax
    e910:	89 d6                	mov    %edx,%esi
    e912:	89 c7                	mov    %eax,%edi
    e914:	e8 7a a2 ff ff       	callq  8b93 <safe_mul_func_uint8_t_u_u>
    e919:	0f b6 c0             	movzbl %al,%eax
    e91c:	44 89 e6             	mov    %r12d,%esi
    e91f:	89 c7                	mov    %eax,%edi
    e921:	e8 36 a4 ff ff       	callq  8d5c <safe_mod_func_uint16_t_u_u>
    e926:	66 85 c0             	test   %ax,%ax
    e929:	48 83 bd 68 fd ff ff 	cmpq   $0x0,-0x298(%rbp)
    e930:	00 
    e931:	0f 94 c0             	sete   %al
    e934:	0f b6 d0             	movzbl %al,%edx
    e937:	0f b7 85 16 fc ff ff 	movzwl -0x3ea(%rbp),%eax
    e93e:	31 c2                	xor    %eax,%edx
    e940:	48 8b 05 d9 aa 00 00 	mov    0xaad9(%rip),%rax        # 19420 <g_91>
    e947:	8b 00                	mov    (%rax),%eax
    e949:	39 c2                	cmp    %eax,%edx
    e94b:	0f 9e c0             	setle  %al
    e94e:	0f b6 c0             	movzbl %al,%eax
    e951:	89 de                	mov    %ebx,%esi
    e953:	89 c7                	mov    %eax,%edi
    e955:	e8 1e a2 ff ff       	callq  8b78 <safe_sub_func_uint8_t_u_u>
    e95a:	0f b6 c0             	movzbl %al,%eax
    e95d:	89 85 9c fc ff ff    	mov    %eax,-0x364(%rbp)
    e963:	8b 85 9c fc ff ff    	mov    -0x364(%rbp),%eax
    e969:	0f be c0             	movsbl %al,%eax
    e96c:	be 26 00 00 00       	mov    $0x26,%esi
    e971:	89 c7                	mov    %eax,%edi
    e973:	e8 9a 98 ff ff       	callq  8212 <safe_mul_func_int8_t_s_s>
    e978:	84 c0                	test   %al,%al
    e97a:	0f 84 47 02 00 00    	je     ebc7 <func_26+0xf7f>
    e980:	c6 85 11 fc ff ff df 	movb   $0xdf,-0x3ef(%rbp)
    e987:	c7 85 a4 fc ff ff ff 	movl   $0xffffffff,-0x35c(%rbp)
    e98e:	ff ff ff 
    e991:	c6 05 6c 88 00 00 01 	movb   $0x1,0x886c(%rip)        # 17204 <g_1416>
    e998:	e9 19 02 00 00       	jmpq   ebb6 <func_26+0xf6e>
    e99d:	48 c7 85 90 fd ff ff 	movq   $0x0,-0x270(%rbp)
    e9a4:	00 00 00 00 
    e9a8:	48 8d 05 a1 87 00 00 	lea    0x87a1(%rip),%rax        # 17150 <g_332>
    e9af:	48 89 85 98 fd ff ff 	mov    %rax,-0x268(%rbp)
    e9b6:	c7 85 34 fc ff ff 00 	movl   $0x0,-0x3cc(%rbp)
    e9bd:	00 00 00 
    e9c0:	eb 1a                	jmp    e9dc <func_26+0xd94>
    e9c2:	8b 85 34 fc ff ff    	mov    -0x3cc(%rbp),%eax
    e9c8:	48 98                	cltq   
    e9ca:	c7 84 85 e0 fd ff ff 	movl   $0x3340a2f8,-0x220(%rbp,%rax,4)
    e9d1:	f8 a2 40 33 
    e9d5:	83 85 34 fc ff ff 01 	addl   $0x1,-0x3cc(%rbp)
    e9dc:	83 bd 34 fc ff ff 01 	cmpl   $0x1,-0x3cc(%rbp)
    e9e3:	7e dd                	jle    e9c2 <func_26+0xd7a>
    e9e5:	8b 85 a4 fc ff ff    	mov    -0x35c(%rbp),%eax
    e9eb:	0f b7 d8             	movzwl %ax,%ebx
    e9ee:	44 0f b7 a5 0c fc ff 	movzwl -0x3f4(%rbp),%r12d
    e9f5:	ff 
    e9f6:	44 0f b7 ad 0c fc ff 	movzwl -0x3f4(%rbp),%r13d
    e9fd:	ff 
    e9fe:	8b 45 bc             	mov    -0x44(%rbp),%eax
    ea01:	85 c0                	test   %eax,%eax
    ea03:	74 2f                	je     ea34 <func_26+0xdec>
    ea05:	48 8b 05 9c af 00 00 	mov    0xaf9c(%rip),%rax        # 199a8 <g_978>
    ea0c:	48 8b 00             	mov    (%rax),%rax
    ea0f:	c6 00 a0             	movb   $0xa0,(%rax)
    ea12:	0f b6 00             	movzbl (%rax),%eax
    ea15:	30 85 11 fc ff ff    	xor    %al,-0x3ef(%rbp)
    ea1b:	0f be 95 11 fc ff ff 	movsbl -0x3ef(%rbp),%edx
    ea22:	0f b7 85 0c fc ff ff 	movzwl -0x3f4(%rbp),%eax
    ea29:	39 c2                	cmp    %eax,%edx
    ea2b:	7c 07                	jl     ea34 <func_26+0xdec>
    ea2d:	b8 01 00 00 00       	mov    $0x1,%eax
    ea32:	eb 05                	jmp    ea39 <func_26+0xdf1>
    ea34:	b8 00 00 00 00       	mov    $0x0,%eax
    ea39:	3b 85 9c fc ff ff    	cmp    -0x364(%rbp),%eax
    ea3f:	0f 9c c0             	setl   %al
    ea42:	0f b6 d0             	movzbl %al,%edx
    ea45:	48 8b 85 d0 fc ff ff 	mov    -0x330(%rbp),%rax
    ea4c:	8b 00                	mov    (%rax),%eax
    ea4e:	98                   	cwtl   
    ea4f:	89 d6                	mov    %edx,%esi
    ea51:	89 c7                	mov    %eax,%edi
    ea53:	e8 9d 99 ff ff       	callq  83f5 <safe_mul_func_int16_t_s_s>
    ea58:	44 89 ee             	mov    %r13d,%esi
    ea5b:	bf 8a ff ff ff       	mov    $0xffffff8a,%edi
    ea60:	e8 d0 98 ff ff       	callq  8335 <safe_rshift_func_int8_t_s_s>
    ea65:	0f be c0             	movsbl %al,%eax
    ea68:	44 89 e6             	mov    %r12d,%esi
    ea6b:	89 c7                	mov    %eax,%edi
    ea6d:	e8 b8 9a ff ff       	callq  852a <safe_rshift_func_int16_t_s_s>
    ea72:	be 0c 00 00 00       	mov    $0xc,%esi
    ea77:	bf 3b 00 00 00       	mov    $0x3b,%edi
    ea7c:	e8 a9 9a ff ff       	callq  852a <safe_rshift_func_int16_t_s_s>
    ea81:	be 00 00 00 00       	mov    $0x0,%esi
    ea86:	bf 01 00 00 00       	mov    $0x1,%edi
    ea8b:	e8 a5 98 ff ff       	callq  8335 <safe_rshift_func_int8_t_s_s>
    ea90:	0f be d0             	movsbl %al,%edx
    ea93:	66 83 bd 16 fc ff ff 	cmpw   $0xffff,-0x3ea(%rbp)
    ea9a:	ff 
    ea9b:	0f 94 c0             	sete   %al
    ea9e:	0f b6 c0             	movzbl %al,%eax
    eaa1:	89 d6                	mov    %edx,%esi
    eaa3:	89 c7                	mov    %eax,%edi
    eaa5:	e8 14 a3 ff ff       	callq  8dbe <safe_lshift_func_uint16_t_u_s>
    eaaa:	0f b7 c8             	movzwl %ax,%ecx
    eaad:	48 8b 05 f4 a9 00 00 	mov    0xa9f4(%rip),%rax        # 194a8 <g_154>
    eab4:	8b 10                	mov    (%rax),%edx
    eab6:	8d 72 01             	lea    0x1(%rdx),%esi
    eab9:	89 30                	mov    %esi,(%rax)
    eabb:	48 8b 05 f6 a9 00 00 	mov    0xa9f6(%rip),%rax        # 194b8 <g_382>
    eac2:	8b 00                	mov    (%rax),%eax
    eac4:	09 d0                	or     %edx,%eax
    eac6:	89 ce                	mov    %ecx,%esi
    eac8:	89 c7                	mov    %eax,%edi
    eaca:	e8 fd 9b ff ff       	callq  86cc <safe_mod_func_int32_t_s_s>
    eacf:	0f b7 c0             	movzwl %ax,%eax
    ead2:	89 de                	mov    %ebx,%esi
    ead4:	89 c7                	mov    %eax,%edi
    ead6:	e8 44 a2 ff ff       	callq  8d1f <safe_sub_func_uint16_t_u_u>
    eadb:	89 c2                	mov    %eax,%edx
    eadd:	48 8b 05 cc ae 00 00 	mov    0xaecc(%rip),%rax        # 199b0 <g_1029>
    eae4:	0f b7 d2             	movzwl %dx,%edx
    eae7:	89 10                	mov    %edx,(%rax)
    eae9:	48 8b 05 10 ad 00 00 	mov    0xad10(%rip),%rax        # 19800 <g_762>
    eaf0:	0f b7 00             	movzwl (%rax),%eax
    eaf3:	0f bf d8             	movswl %ax,%ebx
    eaf6:	48 8b 05 7b a9 00 00 	mov    0xa97b(%rip),%rax        # 19478 <g_105>
    eafd:	8b 00                	mov    (%rax),%eax
    eaff:	89 c6                	mov    %eax,%esi
    eb01:	bf a4 ea 56 c1       	mov    $0xc156eaa4,%edi
    eb06:	e8 ab 9a ff ff       	callq  85b6 <safe_add_func_int32_t_s_s>
    eb0b:	89 c7                	mov    %eax,%edi
    eb0d:	48 8b 85 c0 fc ff ff 	mov    -0x340(%rbp),%rax
    eb14:	48 39 85 70 fd ff ff 	cmp    %rax,-0x290(%rbp)
    eb1b:	0f 94 c0             	sete   %al
    eb1e:	0f b6 c8             	movzbl %al,%ecx
    eb21:	48 8b 85 d0 fc ff ff 	mov    -0x330(%rbp),%rax
    eb28:	8b 00                	mov    (%rax),%eax
    eb2a:	f7 d0                	not    %eax
    eb2c:	48 63 f0             	movslq %eax,%rsi
    eb2f:	8b 85 e4 fd ff ff    	mov    -0x21c(%rbp),%eax
    eb35:	48 63 d0             	movslq %eax,%rdx
    eb38:	48 8b 85 98 fd ff ff 	mov    -0x268(%rbp),%rax
    eb3f:	48 89 10             	mov    %rdx,(%rax)
    eb42:	48 8b 85 98 fd ff ff 	mov    -0x268(%rbp),%rax
    eb49:	48 8b 00             	mov    (%rax),%rax
    eb4c:	48 39 c6             	cmp    %rax,%rsi
    eb4f:	0f 92 c2             	setb   %dl
    eb52:	48 8b 05 8f ac 00 00 	mov    0xac8f(%rip),%rax        # 197e8 <g_652>
    eb59:	0f b6 d2             	movzbl %dl,%edx
    eb5c:	66 89 10             	mov    %dx,(%rax)
    eb5f:	0f b7 00             	movzwl (%rax),%eax
    eb62:	98                   	cwtl   
    eb63:	39 c1                	cmp    %eax,%ecx
    eb65:	0f 9d c0             	setge  %al
    eb68:	0f b6 c0             	movzbl %al,%eax
    eb6b:	31 f8                	xor    %edi,%eax
    eb6d:	98                   	cwtl   
    eb6e:	89 de                	mov    %ebx,%esi
    eb70:	89 c7                	mov    %eax,%edi
    eb72:	e8 9f 98 ff ff       	callq  8416 <safe_mod_func_int16_t_s_s>
    eb77:	0f b6 05 c2 85 00 00 	movzbl 0x85c2(%rip),%eax        # 17140 <g_199>
    eb7e:	84 c0                	test   %al,%al
    eb80:	75 09                	jne    eb8b <func_26+0xf43>
    eb82:	80 bd 14 fc ff ff 00 	cmpb   $0x0,-0x3ec(%rbp)
    eb89:	74 07                	je     eb92 <func_26+0xf4a>
    eb8b:	ba 01 00 00 00       	mov    $0x1,%edx
    eb90:	eb 05                	jmp    eb97 <func_26+0xf4f>
    eb92:	ba 00 00 00 00       	mov    $0x0,%edx
    eb97:	48 8b 85 70 fd ff ff 	mov    -0x290(%rbp),%rax
    eb9e:	48 8b 00             	mov    (%rax),%rax
    eba1:	48 8b 00             	mov    (%rax),%rax
    eba4:	89 10                	mov    %edx,(%rax)
    eba6:	0f b6 05 57 86 00 00 	movzbl 0x8657(%rip),%eax        # 17204 <g_1416>
    ebad:	83 c0 01             	add    $0x1,%eax
    ebb0:	88 05 4e 86 00 00    	mov    %al,0x864e(%rip)        # 17204 <g_1416>
    ebb6:	0f b6 05 47 86 00 00 	movzbl 0x8647(%rip),%eax        # 17204 <g_1416>
    ebbd:	3c 04                	cmp    $0x4,%al
    ebbf:	0f 86 d8 fd ff ff    	jbe    e99d <func_26+0xd55>
    ebc5:	eb 1f                	jmp    ebe6 <func_26+0xf9e>
    ebc7:	c7 85 a0 fc ff ff 00 	movl   $0x0,-0x360(%rbp)
    ebce:	00 00 00 
    ebd1:	83 85 a0 fc ff ff 01 	addl   $0x1,-0x360(%rbp)
    ebd8:	48 8b 85 d0 fc ff ff 	mov    -0x330(%rbp),%rax
    ebdf:	8b 00                	mov    (%rax),%eax
    ebe1:	e9 95 01 00 00       	jmpq   ed7b <func_26+0x1133>
    ebe6:	44 0f b7 a5 0c fc ff 	movzwl -0x3f4(%rbp),%r12d
    ebed:	ff 
    ebee:	48 8b 85 d8 fc ff ff 	mov    -0x328(%rbp),%rax
    ebf5:	48 89 05 8c a8 00 00 	mov    %rax,0xa88c(%rip)        # 19488 <g_146+0x8>
    ebfc:	48 8b 05 85 a8 00 00 	mov    0xa885(%rip),%rax        # 19488 <g_146+0x8>
    ec03:	48 8d 15 e6 84 00 00 	lea    0x84e6(%rip),%rdx        # 170f0 <g_74>
    ec0a:	48 39 d0             	cmp    %rdx,%rax
    ec0d:	0f 94 c0             	sete   %al
    ec10:	44 0f b6 e8          	movzbl %al,%r13d
    ec14:	8b 05 12 84 00 00    	mov    0x8412(%rip),%eax        # 1702c <g_5>
    ec1a:	4c 63 f0             	movslq %eax,%r14
    ec1d:	48 8b 05 94 a8 00 00 	mov    0xa894(%rip),%rax        # 194b8 <g_382>
    ec24:	8b 00                	mov    (%rax),%eax
    ec26:	89 c3                	mov    %eax,%ebx
    ec28:	48 8b 05 d1 ab 00 00 	mov    0xabd1(%rip),%rax        # 19800 <g_762>
    ec2f:	0f b7 00             	movzwl (%rax),%eax
    ec32:	98                   	cwtl   
    ec33:	48 8b 95 78 fd ff ff 	mov    -0x288(%rbp),%rdx
    ec3a:	48 8b 8d e0 fc ff ff 	mov    -0x320(%rbp),%rcx
    ec41:	48 89 0a             	mov    %rcx,(%rdx)
    ec44:	48 8b 95 78 fd ff ff 	mov    -0x288(%rbp),%rdx
    ec4b:	48 8b 0a             	mov    (%rdx),%rcx
    ec4e:	48 8d 95 c8 fc ff ff 	lea    -0x338(%rbp),%rdx
    ec55:	48 39 d1             	cmp    %rdx,%rcx
    ec58:	0f 95 c1             	setne  %cl
    ec5b:	48 8b 15 46 a8 00 00 	mov    0xa846(%rip),%rdx        # 194a8 <g_154>
    ec62:	0f b6 c9             	movzbl %cl,%ecx
    ec65:	89 0a                	mov    %ecx,(%rdx)
    ec67:	89 c6                	mov    %eax,%esi
    ec69:	bf 00 00 00 00       	mov    $0x0,%edi
    ec6e:	e8 40 97 ff ff       	callq  83b3 <safe_add_func_int16_t_s_s>
    ec73:	48 8b 05 2e ad 00 00 	mov    0xad2e(%rip),%rax        # 199a8 <g_978>
    ec7a:	48 8b 00             	mov    (%rax),%rax
    ec7d:	0f b6 00             	movzbl (%rax),%eax
    ec80:	0f b6 d0             	movzbl %al,%edx
    ec83:	0f b6 05 c8 85 00 00 	movzbl 0x85c8(%rip),%eax        # 17252 <g_1712>
    ec8a:	0f be c0             	movsbl %al,%eax
    ec8d:	39 c2                	cmp    %eax,%edx
    ec8f:	0f 9f c0             	setg   %al
    ec92:	0f b6 c0             	movzbl %al,%eax
    ec95:	89 de                	mov    %ebx,%esi
    ec97:	89 c7                	mov    %eax,%edi
    ec99:	e8 5f a2 ff ff       	callq  8efd <safe_mod_func_uint32_t_u_u>
    ec9e:	89 c2                	mov    %eax,%edx
    eca0:	48 8b 85 88 fd ff ff 	mov    -0x278(%rbp),%rax
    eca7:	48 89 10             	mov    %rdx,(%rax)
    ecaa:	48 8b 85 88 fd ff ff 	mov    -0x278(%rbp),%rax
    ecb1:	48 8b 10             	mov    (%rax),%rdx
    ecb4:	48 8b 85 e0 fc ff ff 	mov    -0x320(%rbp),%rax
    ecbb:	48 8b 00             	mov    (%rax),%rax
    ecbe:	48 8b 00             	mov    (%rax),%rax
    ecc1:	89 10                	mov    %edx,(%rax)
    ecc3:	8b 00                	mov    (%rax),%eax
    ecc5:	48 63 d8             	movslq %eax,%rbx
    ecc8:	48 8b 85 70 fd ff ff 	mov    -0x290(%rbp),%rax
    eccf:	48 8b 00             	mov    (%rax),%rax
    ecd2:	48 8b 00             	mov    (%rax),%rax
    ecd5:	8b 00                	mov    (%rax),%eax
    ecd7:	0f b7 d0             	movzwl %ax,%edx
    ecda:	48 8b 85 70 fd ff ff 	mov    -0x290(%rbp),%rax
    ece1:	48 8b 00             	mov    (%rax),%rax
    ece4:	48 8b 00             	mov    (%rax),%rax
    ece7:	8b 00                	mov    (%rax),%eax
    ece9:	0f b7 c0             	movzwl %ax,%eax
    ecec:	89 d6                	mov    %edx,%esi
    ecee:	89 c7                	mov    %eax,%edi
    ecf0:	e8 48 a0 ff ff       	callq  8d3d <safe_mul_func_uint16_t_u_u>
    ecf5:	0f b7 c0             	movzwl %ax,%eax
    ecf8:	48 89 de             	mov    %rbx,%rsi
    ecfb:	48 89 c7             	mov    %rax,%rdi
    ecfe:	e8 7d a3 ff ff       	callq  9080 <safe_mod_func_uint64_t_u_u>
    ed03:	49 39 c6             	cmp    %rax,%r14
    ed06:	0f 96 c0             	setbe  %al
    ed09:	0f b6 d0             	movzbl %al,%edx
    ed0c:	0f b6 05 55 84 00 00 	movzbl 0x8455(%rip),%eax        # 17168 <g_455>
    ed13:	0f b6 c0             	movzbl %al,%eax
    ed16:	09 d0                	or     %edx,%eax
    ed18:	44 31 e8             	xor    %r13d,%eax
    ed1b:	44 21 e0             	and    %r12d,%eax
    ed1e:	83 f8 ff             	cmp    $0xffffffff,%eax
    ed21:	0f 9c c2             	setl   %dl
    ed24:	48 8b 85 c8 fc ff ff 	mov    -0x338(%rbp),%rax
    ed2b:	48 8b 00             	mov    (%rax),%rax
    ed2e:	0f b6 d2             	movzbl %dl,%edx
    ed31:	89 10                	mov    %edx,(%rax)
    ed33:	8b 00                	mov    (%rax),%eax
    ed35:	89 85 50 ff ff ff    	mov    %eax,-0xb0(%rbp)
    ed3b:	8b 05 3f b7 00 00    	mov    0xb73f(%rip),%eax        # 1a480 <g_893>
    ed41:	83 c0 01             	add    $0x1,%eax
    ed44:	89 05 36 b7 00 00    	mov    %eax,0xb736(%rip)        # 1a480 <g_893>
    ed4a:	8b 05 30 b7 00 00    	mov    0xb730(%rip),%eax        # 1a480 <g_893>
    ed50:	83 f8 04             	cmp    $0x4,%eax
    ed53:	0f 86 60 f9 ff ff    	jbe    e6b9 <func_26+0xa71>
    ed59:	66 83 85 0c fc ff ff 	addw   $0x1,-0x3f4(%rbp)
    ed60:	01 
    ed61:	66 83 bd 0c fc ff ff 	cmpw   $0x4,-0x3f4(%rbp)
    ed68:	04 
    ed69:	0f 86 cc f0 ff ff    	jbe    de3b <func_26+0x1f3>
    ed6f:	eb 04                	jmp    ed75 <func_26+0x112d>
    ed71:	90                   	nop
    ed72:	eb 01                	jmp    ed75 <func_26+0x112d>
    ed74:	90                   	nop
    ed75:	8b 05 a1 83 00 00    	mov    0x83a1(%rip),%eax        # 1711c <g_140+0x1c>
    ed7b:	48 8b 5d c8          	mov    -0x38(%rbp),%rbx
    ed7f:	64 48 33 1c 25 28 00 	xor    %fs:0x28,%rbx
    ed86:	00 00 
    ed88:	74 05                	je     ed8f <func_26+0x1147>
    ed8a:	e8 e1 92 ff ff       	callq  8070 <__stack_chk_fail@plt>
    ed8f:	48 81 c4 f8 03 00 00 	add    $0x3f8,%rsp
    ed96:	5b                   	pop    %rbx
    ed97:	41 5c                	pop    %r12
    ed99:	41 5d                	pop    %r13
    ed9b:	41 5e                	pop    %r14
    ed9d:	41 5f                	pop    %r15
    ed9f:	5d                   	pop    %rbp
    eda0:	c3                   	retq   

000000000000eda1 <func_35>:
    eda1:	f3 0f 1e fa          	endbr64 
    eda5:	55                   	push   %rbp
    eda6:	48 89 e5             	mov    %rsp,%rbp
    eda9:	89 d0                	mov    %edx,%eax
    edab:	48 89 4d d8          	mov    %rcx,-0x28(%rbp)
    edaf:	44 89 c1             	mov    %r8d,%ecx
    edb2:	89 fa                	mov    %edi,%edx
    edb4:	88 55 ec             	mov    %dl,-0x14(%rbp)
    edb7:	89 f2                	mov    %esi,%edx
    edb9:	66 89 55 e8          	mov    %dx,-0x18(%rbp)
    edbd:	66 89 45 e4          	mov    %ax,-0x1c(%rbp)
    edc1:	89 c8                	mov    %ecx,%eax
    edc3:	88 45 e0             	mov    %al,-0x20(%rbp)
    edc6:	48 8d 05 27 84 00 00 	lea    0x8427(%rip),%rax        # 171f4 <g_859+0x14>
    edcd:	48 89 45 f0          	mov    %rax,-0x10(%rbp)
    edd1:	48 c7 45 f8 00 00 00 	movq   $0x0,-0x8(%rbp)
    edd8:	00 
    edd9:	48 8b 05 10 ad 00 00 	mov    0xad10(%rip),%rax        # 19af0 <g_1581>
    ede0:	48 8b 55 f0          	mov    -0x10(%rbp),%rdx
    ede4:	48 89 10             	mov    %rdx,(%rax)
    ede7:	48 8b 45 d8          	mov    -0x28(%rbp),%rax
    edeb:	89 c2                	mov    %eax,%edx
    eded:	48 8b 45 f0          	mov    -0x10(%rbp),%rax
    edf1:	89 10                	mov    %edx,(%rax)
    edf3:	0f b6 05 8a b6 00 00 	movzbl 0xb68a(%rip),%eax        # 1a484 <g_1109>
    edfa:	5d                   	pop    %rbp
    edfb:	c3                   	retq   

000000000000edfc <func_42>:
    edfc:	f3 0f 1e fa          	endbr64 
    ee00:	55                   	push   %rbp
    ee01:	48 89 e5             	mov    %rsp,%rbp
    ee04:	41 54                	push   %r12
    ee06:	53                   	push   %rbx
    ee07:	48 81 ec 00 10 00 00 	sub    $0x1000,%rsp
    ee0e:	48 83 0c 24 00       	orq    $0x0,(%rsp)
    ee13:	48 81 ec 50 02 00 00 	sub    $0x250,%rsp
    ee1a:	89 bd ac ed ff ff    	mov    %edi,-0x1254(%rbp)
    ee20:	89 b5 a8 ed ff ff    	mov    %esi,-0x1258(%rbp)
    ee26:	89 95 a4 ed ff ff    	mov    %edx,-0x125c(%rbp)
    ee2c:	89 8d a0 ed ff ff    	mov    %ecx,-0x1260(%rbp)
    ee32:	64 48 8b 04 25 28 00 	mov    %fs:0x28,%rax
    ee39:	00 00 
    ee3b:	48 89 45 e8          	mov    %rax,-0x18(%rbp)
    ee3f:	31 c0                	xor    %eax,%eax
    ee41:	c6 85 b1 ed ff ff fb 	movb   $0xfb,-0x124f(%rbp)
    ee48:	c7 85 b4 ed ff ff ee 	movl   $0xbf5997ee,-0x124c(%rbp)
    ee4f:	97 59 bf 
    ee52:	48 8d 05 57 ab 00 00 	lea    0xab57(%rip),%rax        # 199b0 <g_1029>
    ee59:	48 89 85 08 ee ff ff 	mov    %rax,-0x11f8(%rbp)
    ee60:	48 8d 85 08 ee ff ff 	lea    -0x11f8(%rbp),%rax
    ee67:	48 89 85 20 ee ff ff 	mov    %rax,-0x11e0(%rbp)
    ee6e:	48 8d 85 80 f2 ff ff 	lea    -0xd80(%rbp),%rax
    ee75:	48 8d 15 44 98 00 00 	lea    0x9844(%rip),%rdx        # 186c0 <g_2888+0x1310>
    ee7c:	b9 3f 00 00 00       	mov    $0x3f,%ecx
    ee81:	48 89 c7             	mov    %rax,%rdi
    ee84:	48 89 d6             	mov    %rdx,%rsi
    ee87:	f3 48 a5             	rep movsq %ds:(%rsi),%es:(%rdi)
    ee8a:	48 8d 05 f3 b5 00 00 	lea    0xb5f3(%rip),%rax        # 1a484 <g_1109>
    ee91:	48 89 85 28 ee ff ff 	mov    %rax,-0x11d8(%rbp)
    ee98:	c7 85 c4 ed ff ff ff 	movl   $0xffffffff,-0x123c(%rbp)
    ee9f:	ff ff ff 
    eea2:	c7 85 c8 ed ff ff 7d 	movl   $0xdcfb7b7d,-0x1238(%rbp)
    eea9:	7b fb dc 
    eeac:	c7 85 cc ed ff ff 2d 	movl   $0x63457e2d,-0x1234(%rbp)
    eeb3:	7e 45 63 
    eeb6:	48 8d 85 10 f1 ff ff 	lea    -0xef0(%rbp),%rax
    eebd:	48 8d 15 dc 4f 00 00 	lea    0x4fdc(%rip),%rdx        # 13ea0 <g_2689+0xe3c>
    eec4:	b9 2d 00 00 00       	mov    $0x2d,%ecx
    eec9:	48 89 c7             	mov    %rax,%rdi
    eecc:	48 89 d6             	mov    %rdx,%rsi
    eecf:	f3 48 a5             	rep movsq %ds:(%rsi),%es:(%rdi)
    eed2:	c7 85 d0 ed ff ff fe 	movl   $0xfffffffe,-0x1230(%rbp)
    eed9:	ff ff ff 
    eedc:	48 b8 df e8 9e ce c1 	movabs $0xe1f9f0c1ce9ee8df,%rax
    eee3:	f0 f9 e1 
    eee6:	48 89 85 30 ee ff ff 	mov    %rax,-0x11d0(%rbp)
    eeed:	66 c7 85 b2 ed ff ff 	movw   $0x1,-0x124e(%rbp)
    eef4:	01 00 
    eef6:	48 b8 02 59 60 a9 91 	movabs $0x89eef791a9605902,%rax
    eefd:	f7 ee 89 
    ef00:	48 89 85 38 ee ff ff 	mov    %rax,-0x11c8(%rbp)
    ef07:	48 c7 85 40 ee ff ff 	movq   $0xfffffffffffffffa,-0x11c0(%rbp)
    ef0e:	fa ff ff ff 
    ef12:	48 8d 85 80 f6 ff ff 	lea    -0x980(%rbp),%rax
    ef19:	48 8d 15 a0 99 00 00 	lea    0x99a0(%rip),%rdx        # 188c0 <g_2888+0x1510>
    ef20:	b9 8c 00 00 00       	mov    $0x8c,%ecx
    ef25:	48 89 c7             	mov    %rax,%rdi
    ef28:	48 89 d6             	mov    %rdx,%rsi
    ef2b:	f3 48 a5             	rep movsq %ds:(%rsi),%es:(%rdi)
    ef2e:	c7 85 d4 ed ff ff 01 	movl   $0x1,-0x122c(%rbp)
    ef35:	00 00 00 
    ef38:	48 8d 05 a1 ab 00 00 	lea    0xaba1(%rip),%rax        # 19ae0 <g_1515>
    ef3f:	48 89 85 48 ee ff ff 	mov    %rax,-0x11b8(%rbp)
    ef46:	c7 85 d8 ed ff ff 00 	movl   $0x0,-0x1228(%rbp)
    ef4d:	00 00 00 
    ef50:	c7 85 bc ed ff ff 00 	movl   $0x0,-0x1244(%rbp)
    ef57:	00 00 00 
    ef5a:	eb 1e                	jmp    ef7a <func_42+0x17e>
    ef5c:	8b 85 bc ed ff ff    	mov    -0x1244(%rbp),%eax
    ef62:	48 98                	cltq   
    ef64:	48 8d 15 3d a5 00 00 	lea    0xa53d(%rip),%rdx        # 194a8 <g_154>
    ef6b:	48 89 94 c5 f0 ee ff 	mov    %rdx,-0x1110(%rbp,%rax,8)
    ef72:	ff 
    ef73:	83 85 bc ed ff ff 01 	addl   $0x1,-0x1244(%rbp)
    ef7a:	83 bd bc ed ff ff 03 	cmpl   $0x3,-0x1244(%rbp)
    ef81:	7e d9                	jle    ef5c <func_42+0x160>
    ef83:	c7 85 bc ed ff ff 00 	movl   $0x0,-0x1244(%rbp)
    ef8a:	00 00 00 
    ef8d:	eb 1e                	jmp    efad <func_42+0x1b1>
    ef8f:	8b 85 bc ed ff ff    	mov    -0x1244(%rbp),%eax
    ef95:	48 98                	cltq   
    ef97:	48 8d 15 0a a9 00 00 	lea    0xa90a(%rip),%rdx        # 198a8 <g_825+0x88>
    ef9e:	48 89 94 c5 50 ef ff 	mov    %rdx,-0x10b0(%rbp,%rax,8)
    efa5:	ff 
    efa6:	83 85 bc ed ff ff 01 	addl   $0x1,-0x1244(%rbp)
    efad:	83 bd bc ed ff ff 08 	cmpl   $0x8,-0x1244(%rbp)
    efb4:	7e d9                	jle    ef8f <func_42+0x193>
    efb6:	c7 85 bc ed ff ff 00 	movl   $0x0,-0x1244(%rbp)
    efbd:	00 00 00 
    efc0:	eb 1e                	jmp    efe0 <func_42+0x1e4>
    efc2:	8b 85 bc ed ff ff    	mov    -0x1244(%rbp),%eax
    efc8:	48 98                	cltq   
    efca:	48 8d 15 87 81 00 00 	lea    0x8187(%rip),%rdx        # 17158 <g_374>
    efd1:	48 89 94 c5 10 ef ff 	mov    %rdx,-0x10f0(%rbp,%rax,8)
    efd8:	ff 
    efd9:	83 85 bc ed ff ff 01 	addl   $0x1,-0x1244(%rbp)
    efe0:	83 bd bc ed ff ff 06 	cmpl   $0x6,-0x1244(%rbp)
    efe7:	7e d9                	jle    efc2 <func_42+0x1c6>
    efe9:	c7 85 bc ed ff ff 00 	movl   $0x0,-0x1244(%rbp)
    eff0:	00 00 00 
    eff3:	eb 1e                	jmp    f013 <func_42+0x217>
    eff5:	8b 85 bc ed ff ff    	mov    -0x1244(%rbp),%eax
    effb:	48 98                	cltq   
    effd:	48 8d 15 cc aa 00 00 	lea    0xaacc(%rip),%rdx        # 19ad0 <g_1235>
    f004:	48 89 94 c5 b0 ee ff 	mov    %rdx,-0x1150(%rbp,%rax,8)
    f00b:	ff 
    f00c:	83 85 bc ed ff ff 01 	addl   $0x1,-0x1244(%rbp)
    f013:	83 bd bc ed ff ff 01 	cmpl   $0x1,-0x1244(%rbp)
    f01a:	7e d9                	jle    eff5 <func_42+0x1f9>
    f01c:	c7 85 a4 ed ff ff 00 	movl   $0x0,-0x125c(%rbp)
    f023:	00 00 00 
    f026:	e9 8d 0b 00 00       	jmpq   fbb8 <func_42+0xdbc>
    f02b:	48 8d 05 8a 81 00 00 	lea    0x818a(%rip),%rax        # 171bc <g_680+0x4>
    f032:	48 89 85 50 ee ff ff 	mov    %rax,-0x11b0(%rbp)
    f039:	48 c7 85 20 f0 ff ff 	movq   $0x0,-0xfe0(%rbp)
    f040:	00 00 00 00 
    f044:	48 8d 05 f5 80 00 00 	lea    0x80f5(%rip),%rax        # 17140 <g_199>
    f04b:	48 89 85 28 f0 ff ff 	mov    %rax,-0xfd8(%rbp)
    f052:	48 c7 85 30 f0 ff ff 	movq   $0x0,-0xfd0(%rbp)
    f059:	00 00 00 00 
    f05d:	48 c7 85 38 f0 ff ff 	movq   $0x0,-0xfc8(%rbp)
    f064:	00 00 00 00 
    f068:	48 8d 05 d1 80 00 00 	lea    0x80d1(%rip),%rax        # 17140 <g_199>
    f06f:	48 89 85 40 f0 ff ff 	mov    %rax,-0xfc0(%rbp)
    f076:	48 c7 85 48 f0 ff ff 	movq   $0x0,-0xfb8(%rbp)
    f07d:	00 00 00 00 
    f081:	48 c7 85 50 f0 ff ff 	movq   $0x0,-0xfb0(%rbp)
    f088:	00 00 00 00 
    f08c:	48 8d 05 ad 80 00 00 	lea    0x80ad(%rip),%rax        # 17140 <g_199>
    f093:	48 89 85 58 f0 ff ff 	mov    %rax,-0xfa8(%rbp)
    f09a:	48 c7 85 60 f0 ff ff 	movq   $0x0,-0xfa0(%rbp)
    f0a1:	00 00 00 00 
    f0a5:	48 c7 85 68 f0 ff ff 	movq   $0x0,-0xf98(%rbp)
    f0ac:	00 00 00 00 
    f0b0:	48 8d 05 89 80 00 00 	lea    0x8089(%rip),%rax        # 17140 <g_199>
    f0b7:	48 89 85 70 f0 ff ff 	mov    %rax,-0xf90(%rbp)
    f0be:	48 c7 85 78 f0 ff ff 	movq   $0x0,-0xf88(%rbp)
    f0c5:	00 00 00 00 
    f0c9:	48 c7 85 80 f0 ff ff 	movq   $0x0,-0xf80(%rbp)
    f0d0:	00 00 00 00 
    f0d4:	48 8d 05 65 80 00 00 	lea    0x8065(%rip),%rax        # 17140 <g_199>
    f0db:	48 89 85 88 f0 ff ff 	mov    %rax,-0xf78(%rbp)
    f0e2:	48 c7 85 90 f0 ff ff 	movq   $0x0,-0xf70(%rbp)
    f0e9:	00 00 00 00 
    f0ed:	48 c7 85 98 f0 ff ff 	movq   $0x0,-0xf68(%rbp)
    f0f4:	00 00 00 00 
    f0f8:	48 8d 05 41 80 00 00 	lea    0x8041(%rip),%rax        # 17140 <g_199>
    f0ff:	48 89 85 a0 f0 ff ff 	mov    %rax,-0xf60(%rbp)
    f106:	48 c7 85 a8 f0 ff ff 	movq   $0x0,-0xf58(%rbp)
    f10d:	00 00 00 00 
    f111:	48 c7 85 b0 f0 ff ff 	movq   $0x0,-0xf50(%rbp)
    f118:	00 00 00 00 
    f11c:	48 8d 05 1d 80 00 00 	lea    0x801d(%rip),%rax        # 17140 <g_199>
    f123:	48 89 85 b8 f0 ff ff 	mov    %rax,-0xf48(%rbp)
    f12a:	48 c7 85 c0 f0 ff ff 	movq   $0x0,-0xf40(%rbp)
    f131:	00 00 00 00 
    f135:	48 c7 85 c8 f0 ff ff 	movq   $0x0,-0xf38(%rbp)
    f13c:	00 00 00 00 
    f140:	48 8d 05 f9 7f 00 00 	lea    0x7ff9(%rip),%rax        # 17140 <g_199>
    f147:	48 89 85 d0 f0 ff ff 	mov    %rax,-0xf30(%rbp)
    f14e:	48 c7 85 d8 f0 ff ff 	movq   $0x0,-0xf28(%rbp)
    f155:	00 00 00 00 
    f159:	48 c7 85 e0 f0 ff ff 	movq   $0x0,-0xf20(%rbp)
    f160:	00 00 00 00 
    f164:	48 8d 05 d5 7f 00 00 	lea    0x7fd5(%rip),%rax        # 17140 <g_199>
    f16b:	48 89 85 e8 f0 ff ff 	mov    %rax,-0xf18(%rbp)
    f172:	48 c7 85 f0 f0 ff ff 	movq   $0x0,-0xf10(%rbp)
    f179:	00 00 00 00 
    f17d:	48 c7 85 f8 f0 ff ff 	movq   $0x0,-0xf08(%rbp)
    f184:	00 00 00 00 
    f188:	48 8d 05 b1 7f 00 00 	lea    0x7fb1(%rip),%rax        # 17140 <g_199>
    f18f:	48 89 85 00 f1 ff ff 	mov    %rax,-0xf00(%rbp)
    f196:	48 c7 85 08 f1 ff ff 	movq   $0x0,-0xef8(%rbp)
    f19d:	00 00 00 00 
    f1a1:	c7 85 b8 ed ff ff 08 	movl   $0x8,-0x1248(%rbp)
    f1a8:	00 00 00 
    f1ab:	48 8d 85 b4 ed ff ff 	lea    -0x124c(%rbp),%rax
    f1b2:	48 89 85 58 ee ff ff 	mov    %rax,-0x11a8(%rbp)
    f1b9:	48 c7 85 60 ee ff ff 	movq   $0x0,-0x11a0(%rbp)
    f1c0:	00 00 00 00 
    f1c4:	48 8d 85 08 ee ff ff 	lea    -0x11f8(%rbp),%rax
    f1cb:	48 89 85 68 ee ff ff 	mov    %rax,-0x1198(%rbp)
    f1d2:	48 8d 85 e0 fa ff ff 	lea    -0x520(%rbp),%rax
    f1d9:	48 8d 15 40 9b 00 00 	lea    0x9b40(%rip),%rdx        # 18d20 <g_2888+0x1970>
    f1e0:	b9 a0 00 00 00       	mov    $0xa0,%ecx
    f1e5:	48 89 c7             	mov    %rax,%rdi
    f1e8:	48 89 d6             	mov    %rdx,%rsi
    f1eb:	f3 48 a5             	rep movsq %ds:(%rsi),%es:(%rdi)
    f1ee:	48 c7 85 80 f4 ff ff 	movq   $0x0,-0xb80(%rbp)
    f1f5:	00 00 00 00 
    f1f9:	48 8d 85 e0 fa ff ff 	lea    -0x520(%rbp),%rax
    f200:	48 05 b0 00 00 00    	add    $0xb0,%rax
    f206:	48 89 85 88 f4 ff ff 	mov    %rax,-0xb78(%rbp)
    f20d:	48 c7 85 90 f4 ff ff 	movq   $0x0,-0xb70(%rbp)
    f214:	00 00 00 00 
    f218:	48 8d 85 e0 fa ff ff 	lea    -0x520(%rbp),%rax
    f21f:	48 05 b0 00 00 00    	add    $0xb0,%rax
    f225:	48 89 85 98 f4 ff ff 	mov    %rax,-0xb68(%rbp)
    f22c:	48 c7 85 a0 f4 ff ff 	movq   $0x0,-0xb60(%rbp)
    f233:	00 00 00 00 
    f237:	48 c7 85 a8 f4 ff ff 	movq   $0x0,-0xb58(%rbp)
    f23e:	00 00 00 00 
    f242:	48 8d 85 e0 fa ff ff 	lea    -0x520(%rbp),%rax
    f249:	48 05 e0 01 00 00    	add    $0x1e0,%rax
    f24f:	48 89 85 b0 f4 ff ff 	mov    %rax,-0xb50(%rbp)
    f256:	48 8d 85 e0 fa ff ff 	lea    -0x520(%rbp),%rax
    f25d:	48 05 e0 01 00 00    	add    $0x1e0,%rax
    f263:	48 89 85 b8 f4 ff ff 	mov    %rax,-0xb48(%rbp)
    f26a:	48 8d 85 e0 fa ff ff 	lea    -0x520(%rbp),%rax
    f271:	48 05 e0 01 00 00    	add    $0x1e0,%rax
    f277:	48 89 85 c0 f4 ff ff 	mov    %rax,-0xb40(%rbp)
    f27e:	48 8d 85 e0 fa ff ff 	lea    -0x520(%rbp),%rax
    f285:	48 05 b0 00 00 00    	add    $0xb0,%rax
    f28b:	48 89 85 c8 f4 ff ff 	mov    %rax,-0xb38(%rbp)
    f292:	48 8d 85 e0 fa ff ff 	lea    -0x520(%rbp),%rax
    f299:	48 05 e0 01 00 00    	add    $0x1e0,%rax
    f29f:	48 89 85 d0 f4 ff ff 	mov    %rax,-0xb30(%rbp)
    f2a6:	48 8d 85 e0 fa ff ff 	lea    -0x520(%rbp),%rax
    f2ad:	48 05 e0 01 00 00    	add    $0x1e0,%rax
    f2b3:	48 89 85 d8 f4 ff ff 	mov    %rax,-0xb28(%rbp)
    f2ba:	48 8d 85 e0 fa ff ff 	lea    -0x520(%rbp),%rax
    f2c1:	48 05 b0 00 00 00    	add    $0xb0,%rax
    f2c7:	48 89 85 e0 f4 ff ff 	mov    %rax,-0xb20(%rbp)
    f2ce:	48 8d 85 e0 fa ff ff 	lea    -0x520(%rbp),%rax
    f2d5:	48 05 e0 01 00 00    	add    $0x1e0,%rax
    f2db:	48 89 85 e8 f4 ff ff 	mov    %rax,-0xb18(%rbp)
    f2e2:	48 c7 85 f0 f4 ff ff 	movq   $0x0,-0xb10(%rbp)
    f2e9:	00 00 00 00 
    f2ed:	48 8d 85 e0 fa ff ff 	lea    -0x520(%rbp),%rax
    f2f4:	48 05 b0 00 00 00    	add    $0xb0,%rax
    f2fa:	48 89 85 f8 f4 ff ff 	mov    %rax,-0xb08(%rbp)
    f301:	48 8d 85 e0 fa ff ff 	lea    -0x520(%rbp),%rax
    f308:	48 05 e0 01 00 00    	add    $0x1e0,%rax
    f30e:	48 89 85 00 f5 ff ff 	mov    %rax,-0xb00(%rbp)
    f315:	48 c7 85 08 f5 ff ff 	movq   $0x0,-0xaf8(%rbp)
    f31c:	00 00 00 00 
    f320:	48 8d 85 e0 fa ff ff 	lea    -0x520(%rbp),%rax
    f327:	48 05 e0 01 00 00    	add    $0x1e0,%rax
    f32d:	48 89 85 10 f5 ff ff 	mov    %rax,-0xaf0(%rbp)
    f334:	48 8d 85 e0 fa ff ff 	lea    -0x520(%rbp),%rax
    f33b:	48 05 e0 01 00 00    	add    $0x1e0,%rax
    f341:	48 89 85 18 f5 ff ff 	mov    %rax,-0xae8(%rbp)
    f348:	48 8d 85 e0 fa ff ff 	lea    -0x520(%rbp),%rax
    f34f:	48 05 e0 01 00 00    	add    $0x1e0,%rax
    f355:	48 89 85 20 f5 ff ff 	mov    %rax,-0xae0(%rbp)
    f35c:	48 c7 85 28 f5 ff ff 	movq   $0x0,-0xad8(%rbp)
    f363:	00 00 00 00 
    f367:	48 8d 85 e0 fa ff ff 	lea    -0x520(%rbp),%rax
    f36e:	48 05 e0 01 00 00    	add    $0x1e0,%rax
    f374:	48 89 85 30 f5 ff ff 	mov    %rax,-0xad0(%rbp)
    f37b:	48 8d 85 e0 fa ff ff 	lea    -0x520(%rbp),%rax
    f382:	48 05 e0 01 00 00    	add    $0x1e0,%rax
    f388:	48 89 85 38 f5 ff ff 	mov    %rax,-0xac8(%rbp)
    f38f:	48 8d 85 e0 fa ff ff 	lea    -0x520(%rbp),%rax
    f396:	48 05 b0 00 00 00    	add    $0xb0,%rax
    f39c:	48 89 85 40 f5 ff ff 	mov    %rax,-0xac0(%rbp)
    f3a3:	48 c7 85 48 f5 ff ff 	movq   $0x0,-0xab8(%rbp)
    f3aa:	00 00 00 00 
    f3ae:	48 c7 85 50 f5 ff ff 	movq   $0x0,-0xab0(%rbp)
    f3b5:	00 00 00 00 
    f3b9:	48 8d 85 e0 fa ff ff 	lea    -0x520(%rbp),%rax
    f3c0:	48 05 e0 01 00 00    	add    $0x1e0,%rax
    f3c6:	48 89 85 58 f5 ff ff 	mov    %rax,-0xaa8(%rbp)
    f3cd:	48 8d 85 e0 fa ff ff 	lea    -0x520(%rbp),%rax
    f3d4:	48 05 e0 01 00 00    	add    $0x1e0,%rax
    f3da:	48 89 85 60 f5 ff ff 	mov    %rax,-0xaa0(%rbp)
    f3e1:	48 c7 85 68 f5 ff ff 	movq   $0x0,-0xa98(%rbp)
    f3e8:	00 00 00 00 
    f3ec:	48 c7 85 70 f5 ff ff 	movq   $0x0,-0xa90(%rbp)
    f3f3:	00 00 00 00 
    f3f7:	48 8d 85 e0 fa ff ff 	lea    -0x520(%rbp),%rax
    f3fe:	48 05 b0 00 00 00    	add    $0xb0,%rax
    f404:	48 89 85 78 f5 ff ff 	mov    %rax,-0xa88(%rbp)
    f40b:	48 8d 85 e0 fa ff ff 	lea    -0x520(%rbp),%rax
    f412:	48 05 e0 01 00 00    	add    $0x1e0,%rax
    f418:	48 89 85 80 f5 ff ff 	mov    %rax,-0xa80(%rbp)
    f41f:	48 8d 85 e0 fa ff ff 	lea    -0x520(%rbp),%rax
    f426:	48 05 e0 01 00 00    	add    $0x1e0,%rax
    f42c:	48 89 85 88 f5 ff ff 	mov    %rax,-0xa78(%rbp)
    f433:	48 c7 85 90 f5 ff ff 	movq   $0x0,-0xa70(%rbp)
    f43a:	00 00 00 00 
    f43e:	48 8d 85 e0 fa ff ff 	lea    -0x520(%rbp),%rax
    f445:	48 05 e0 01 00 00    	add    $0x1e0,%rax
    f44b:	48 89 85 98 f5 ff ff 	mov    %rax,-0xa68(%rbp)
    f452:	48 8d 85 e0 fa ff ff 	lea    -0x520(%rbp),%rax
    f459:	48 05 e0 01 00 00    	add    $0x1e0,%rax
    f45f:	48 89 85 a0 f5 ff ff 	mov    %rax,-0xa60(%rbp)
    f466:	48 8d 85 e0 fa ff ff 	lea    -0x520(%rbp),%rax
    f46d:	48 05 e0 01 00 00    	add    $0x1e0,%rax
    f473:	48 89 85 a8 f5 ff ff 	mov    %rax,-0xa58(%rbp)
    f47a:	48 c7 85 b0 f5 ff ff 	movq   $0x0,-0xa50(%rbp)
    f481:	00 00 00 00 
    f485:	48 8d 85 e0 fa ff ff 	lea    -0x520(%rbp),%rax
    f48c:	48 05 e0 01 00 00    	add    $0x1e0,%rax
    f492:	48 89 85 b8 f5 ff ff 	mov    %rax,-0xa48(%rbp)
    f499:	48 8d 85 e0 fa ff ff 	lea    -0x520(%rbp),%rax
    f4a0:	48 05 b0 00 00 00    	add    $0xb0,%rax
    f4a6:	48 89 85 c0 f5 ff ff 	mov    %rax,-0xa40(%rbp)
    f4ad:	48 c7 85 c8 f5 ff ff 	movq   $0x0,-0xa38(%rbp)
    f4b4:	00 00 00 00 
    f4b8:	48 8d 85 e0 fa ff ff 	lea    -0x520(%rbp),%rax
    f4bf:	48 05 e0 01 00 00    	add    $0x1e0,%rax
    f4c5:	48 89 85 d0 f5 ff ff 	mov    %rax,-0xa30(%rbp)
    f4cc:	48 8d 85 e0 fa ff ff 	lea    -0x520(%rbp),%rax
    f4d3:	48 05 b0 00 00 00    	add    $0xb0,%rax
    f4d9:	48 89 85 d8 f5 ff ff 	mov    %rax,-0xa28(%rbp)
    f4e0:	48 8d 85 e0 fa ff ff 	lea    -0x520(%rbp),%rax
    f4e7:	48 05 e0 01 00 00    	add    $0x1e0,%rax
    f4ed:	48 89 85 e0 f5 ff ff 	mov    %rax,-0xa20(%rbp)
    f4f4:	48 8d 85 e0 fa ff ff 	lea    -0x520(%rbp),%rax
    f4fb:	48 05 e0 01 00 00    	add    $0x1e0,%rax
    f501:	48 89 85 e8 f5 ff ff 	mov    %rax,-0xa18(%rbp)
    f508:	48 8d 85 e0 fa ff ff 	lea    -0x520(%rbp),%rax
    f50f:	48 05 b0 00 00 00    	add    $0xb0,%rax
    f515:	48 89 85 f0 f5 ff ff 	mov    %rax,-0xa10(%rbp)
    f51c:	48 8d 85 e0 fa ff ff 	lea    -0x520(%rbp),%rax
    f523:	48 05 e0 01 00 00    	add    $0x1e0,%rax
    f529:	48 89 85 f8 f5 ff ff 	mov    %rax,-0xa08(%rbp)
    f530:	48 8d 85 e0 fa ff ff 	lea    -0x520(%rbp),%rax
    f537:	48 05 e0 01 00 00    	add    $0x1e0,%rax
    f53d:	48 89 85 00 f6 ff ff 	mov    %rax,-0xa00(%rbp)
    f544:	48 8d 85 e0 fa ff ff 	lea    -0x520(%rbp),%rax
    f54b:	48 05 e0 01 00 00    	add    $0x1e0,%rax
    f551:	48 89 85 08 f6 ff ff 	mov    %rax,-0x9f8(%rbp)
    f558:	48 c7 85 10 f6 ff ff 	movq   $0x0,-0x9f0(%rbp)
    f55f:	00 00 00 00 
    f563:	48 c7 85 18 f6 ff ff 	movq   $0x0,-0x9e8(%rbp)
    f56a:	00 00 00 00 
    f56e:	48 8d 85 e0 fa ff ff 	lea    -0x520(%rbp),%rax
    f575:	48 05 b0 00 00 00    	add    $0xb0,%rax
    f57b:	48 89 85 20 f6 ff ff 	mov    %rax,-0x9e0(%rbp)
    f582:	48 c7 85 28 f6 ff ff 	movq   $0x0,-0x9d8(%rbp)
    f589:	00 00 00 00 
    f58d:	48 8d 85 e0 fa ff ff 	lea    -0x520(%rbp),%rax
    f594:	48 05 b0 00 00 00    	add    $0xb0,%rax
    f59a:	48 89 85 30 f6 ff ff 	mov    %rax,-0x9d0(%rbp)
    f5a1:	48 c7 85 38 f6 ff ff 	movq   $0x0,-0x9c8(%rbp)
    f5a8:	00 00 00 00 
    f5ac:	48 8d 85 e0 fa ff ff 	lea    -0x520(%rbp),%rax
    f5b3:	48 05 e0 01 00 00    	add    $0x1e0,%rax
    f5b9:	48 89 85 40 f6 ff ff 	mov    %rax,-0x9c0(%rbp)
    f5c0:	48 c7 85 48 f6 ff ff 	movq   $0x0,-0x9b8(%rbp)
    f5c7:	00 00 00 00 
    f5cb:	48 8d 85 e0 fa ff ff 	lea    -0x520(%rbp),%rax
    f5d2:	48 05 e0 01 00 00    	add    $0x1e0,%rax
    f5d8:	48 89 85 50 f6 ff ff 	mov    %rax,-0x9b0(%rbp)
    f5df:	48 8d 85 e0 fa ff ff 	lea    -0x520(%rbp),%rax
    f5e6:	48 05 e0 01 00 00    	add    $0x1e0,%rax
    f5ec:	48 89 85 58 f6 ff ff 	mov    %rax,-0x9a8(%rbp)
    f5f3:	48 c7 85 60 f6 ff ff 	movq   $0x0,-0x9a0(%rbp)
    f5fa:	00 00 00 00 
    f5fe:	48 c7 85 68 f6 ff ff 	movq   $0x0,-0x998(%rbp)
    f605:	00 00 00 00 
    f609:	48 c7 85 70 f6 ff ff 	movq   $0x0,-0x990(%rbp)
    f610:	00 00 00 00 
    f614:	48 c7 85 78 f6 ff ff 	movq   $0x0,-0x988(%rbp)
    f61b:	00 00 00 00 
    f61f:	48 8d 85 80 f4 ff ff 	lea    -0xb80(%rbp),%rax
    f626:	48 05 70 01 00 00    	add    $0x170,%rax
    f62c:	48 89 85 70 ee ff ff 	mov    %rax,-0x1190(%rbp)
    f633:	c7 85 dc ed ff ff f0 	movl   $0xe491b8f0,-0x1224(%rbp)
    f63a:	b8 91 e4 
    f63d:	48 8d 05 7c 9e 00 00 	lea    0x9e7c(%rip),%rax        # 194c0 <g_441>
    f644:	48 89 85 78 ee ff ff 	mov    %rax,-0x1188(%rbp)
    f64b:	c7 85 c0 ed ff ff 00 	movl   $0x0,-0x1240(%rbp)
    f652:	00 00 00 
    f655:	eb 1a                	jmp    f671 <func_42+0x875>
    f657:	8b 85 c0 ed ff ff    	mov    -0x1240(%rbp),%eax
    f65d:	48 98                	cltq   
    f65f:	c7 84 85 c0 ee ff ff 	movl   $0xf8dd4c89,-0x1140(%rbp,%rax,4)
    f666:	89 4c dd f8 
    f66a:	83 85 c0 ed ff ff 01 	addl   $0x1,-0x1240(%rbp)
    f671:	83 bd c0 ed ff ff 03 	cmpl   $0x3,-0x1240(%rbp)
    f678:	7e dd                	jle    f657 <func_42+0x85b>
    f67a:	c7 85 c0 ed ff ff 00 	movl   $0x0,-0x1240(%rbp)
    f681:	00 00 00 
    f684:	eb 1a                	jmp    f6a0 <func_42+0x8a4>
    f686:	8b 85 c0 ed ff ff    	mov    -0x1240(%rbp),%eax
    f68c:	48 98                	cltq   
    f68e:	c7 84 85 ac ee ff ff 	movl   $0xc89aa39,-0x1154(%rbp,%rax,4)
    f695:	39 aa 89 0c 
    f699:	83 85 c0 ed ff ff 01 	addl   $0x1,-0x1240(%rbp)
    f6a0:	83 bd c0 ed ff ff 00 	cmpl   $0x0,-0x1240(%rbp)
    f6a7:	7e dd                	jle    f686 <func_42+0x88a>
    f6a9:	c7 05 45 7a 00 00 00 	movl   $0x0,0x7a45(%rip)        # 170f8 <g_75>
    f6b0:	00 00 00 
    f6b3:	90                   	nop
    f6b4:	8b 05 3e 7a 00 00    	mov    0x7a3e(%rip),%eax        # 170f8 <g_75>
    f6ba:	85 c0                	test   %eax,%eax
    f6bc:	75 17                	jne    f6d5 <func_42+0x8d9>
    f6be:	48 c7 85 a0 ee ff ff 	movq   $0x1,-0x1160(%rbp)
    f6c5:	01 00 00 00 
    f6c9:	48 8b 85 a0 ee ff ff 	mov    -0x1160(%rbp),%rax
    f6d0:	e9 10 05 00 00       	jmpq   fbe5 <func_42+0xde9>
    f6d5:	8b 85 b4 ed ff ff    	mov    -0x124c(%rbp),%eax
    f6db:	0f b7 d8             	movzwl %ax,%ebx
    f6de:	48 8b 05 c3 a2 00 00 	mov    0xa2c3(%rip),%rax        # 199a8 <g_978>
    f6e5:	48 8b 00             	mov    (%rax),%rax
    f6e8:	c6 00 f8             	movb   $0xf8,(%rax)
    f6eb:	0f b6 10             	movzbl (%rax),%edx
    f6ee:	48 8b 85 50 ee ff ff 	mov    -0x11b0(%rbp),%rax
    f6f5:	88 10                	mov    %dl,(%rax)
    f6f7:	48 8b 85 50 ee ff ff 	mov    -0x11b0(%rbp),%rax
    f6fe:	0f b6 00             	movzbl (%rax),%eax
    f701:	88 85 b1 ed ff ff    	mov    %al,-0x124f(%rbp)
    f707:	66 44 0f be a5 b1 ed 	movsbw -0x124f(%rbp),%r12w
    f70e:	ff ff 
    f710:	48 8b 05 e9 a0 00 00 	mov    0xa0e9(%rip),%rax        # 19800 <g_762>
    f717:	8b 95 ac ed ff ff    	mov    -0x1254(%rbp),%edx
    f71d:	66 89 10             	mov    %dx,(%rax)
    f720:	0f b7 00             	movzwl (%rax),%eax
    f723:	66 85 c0             	test   %ax,%ax
    f726:	75 09                	jne    f731 <func_42+0x935>
    f728:	83 bd a8 ed ff ff 00 	cmpl   $0x0,-0x1258(%rbp)
    f72f:	74 07                	je     f738 <func_42+0x93c>
    f731:	b8 01 00 00 00       	mov    $0x1,%eax
    f736:	eb 05                	jmp    f73d <func_42+0x941>
    f738:	b8 00 00 00 00       	mov    $0x0,%eax
    f73d:	0f b7 c0             	movzwl %ax,%eax
    f740:	be 08 00 00 00       	mov    $0x8,%esi
    f745:	89 c7                	mov    %eax,%edi
    f747:	e8 ba 96 ff ff       	callq  8e06 <safe_lshift_func_uint16_t_u_u>
    f74c:	83 bd a4 ed ff ff 01 	cmpl   $0x1,-0x125c(%rbp)
    f753:	0f 9f c0             	setg   %al
    f756:	0f b6 d0             	movzbl %al,%edx
    f759:	8b 85 b8 ed ff ff    	mov    -0x1248(%rbp),%eax
    f75f:	48 98                	cltq   
    f761:	48 89 d6             	mov    %rdx,%rsi
    f764:	48 89 c7             	mov    %rax,%rdi
    f767:	e8 3c 91 ff ff       	callq  88a8 <safe_sub_func_int64_t_s_s>
    f76c:	44 31 e0             	xor    %r12d,%eax
    f76f:	0f b7 c0             	movzwl %ax,%eax
    f772:	25 76 9f 00 00       	and    $0x9f76,%eax
    f777:	89 de                	mov    %ebx,%esi
    f779:	89 c7                	mov    %eax,%edi
    f77b:	e8 bd 95 ff ff       	callq  8d3d <safe_mul_func_uint16_t_u_u>
    f780:	89 c2                	mov    %eax,%edx
    f782:	48 8b 05 2f 9d 00 00 	mov    0x9d2f(%rip),%rax        # 194b8 <g_382>
    f789:	0f b7 d2             	movzwl %dx,%edx
    f78c:	89 10                	mov    %edx,(%rax)
    f78e:	c7 85 a8 ed ff ff 00 	movl   $0x0,-0x1258(%rbp)
    f795:	00 00 00 
    f798:	e9 df 01 00 00       	jmpq   f97c <func_42+0xb80>
    f79d:	48 8d 05 94 79 00 00 	lea    0x7994(%rip),%rax        # 17138 <g_186>
    f7a4:	48 89 85 10 ee ff ff 	mov    %rax,-0x11f0(%rbp)
    f7ab:	48 8d 85 10 ee ff ff 	lea    -0x11f0(%rbp),%rax
    f7b2:	48 89 85 18 ee ff ff 	mov    %rax,-0x11e8(%rbp)
    f7b9:	c7 85 00 ee ff ff 00 	movl   $0x0,-0x1200(%rbp)
    f7c0:	00 00 00 
    f7c3:	c6 05 7a 79 00 00 00 	movb   $0x0,0x797a(%rip)        # 17144 <g_242>
    f7ca:	90                   	nop
    f7cb:	0f b6 05 72 79 00 00 	movzbl 0x7972(%rip),%eax        # 17144 <g_242>
    f7d2:	3c 1b                	cmp    $0x1b,%al
    f7d4:	76 5a                	jbe    f830 <func_42+0xa34>
    f7d6:	c7 85 04 ee ff ff 7c 	movl   $0x2c20e37c,-0x11fc(%rbp)
    f7dd:	e3 20 2c 
    f7e0:	c7 05 96 ac 00 00 00 	movl   $0x0,0xac96(%rip)        # 1a480 <g_893>
    f7e7:	00 00 00 
    f7ea:	eb 2e                	jmp    f81a <func_42+0xa1e>
    f7ec:	48 8d 85 18 ee ff ff 	lea    -0x11e8(%rbp),%rax
    f7f3:	48 89 85 98 ee ff ff 	mov    %rax,-0x1168(%rbp)
    f7fa:	48 8b 95 18 ee ff ff 	mov    -0x11e8(%rbp),%rdx
    f801:	48 8b 85 98 ee ff ff 	mov    -0x1168(%rbp),%rax
    f808:	48 89 10             	mov    %rdx,(%rax)
    f80b:	8b 05 6f ac 00 00    	mov    0xac6f(%rip),%eax        # 1a480 <g_893>
    f811:	83 c0 01             	add    $0x1,%eax
    f814:	89 05 66 ac 00 00    	mov    %eax,0xac66(%rip)        # 1a480 <g_893>
    f81a:	8b 05 60 ac 00 00    	mov    0xac60(%rip),%eax        # 1a480 <g_893>
    f820:	83 f8 01             	cmp    $0x1,%eax
    f823:	76 c7                	jbe    f7ec <func_42+0x9f0>
    f825:	8b 85 04 ee ff ff    	mov    -0x11fc(%rbp),%eax
    f82b:	e9 b5 03 00 00       	jmpq   fbe5 <func_42+0xde9>
    f830:	66 0f be 85 b1 ed ff 	movsbw -0x124f(%rbp),%ax
    f837:	ff 
    f838:	0f b7 d8             	movzwl %ax,%ebx
    f83b:	44 8b a5 a0 ed ff ff 	mov    -0x1260(%rbp),%r12d
    f842:	8b 05 e8 77 00 00    	mov    0x77e8(%rip),%eax        # 17030 <g_6>
    f848:	0f be c0             	movsbl %al,%eax
    f84b:	89 c6                	mov    %eax,%esi
    f84d:	bf ff ff ff ff       	mov    $0xffffffff,%edi
    f852:	e8 13 8a ff ff       	callq  826a <safe_div_func_int8_t_s_s>
    f857:	0f be c0             	movsbl %al,%eax
    f85a:	be f9 ff ff ff       	mov    $0xfffffff9,%esi
    f85f:	89 c7                	mov    %eax,%edi
    f861:	e8 99 8e ff ff       	callq  86ff <safe_div_func_int32_t_s_s>
    f866:	0b 85 a0 ed ff ff    	or     -0x1260(%rbp),%eax
    f86c:	89 c2                	mov    %eax,%edx
    f86e:	8b 85 a8 ed ff ff    	mov    -0x1258(%rbp),%eax
    f874:	89 d1                	mov    %edx,%ecx
    f876:	21 c1                	and    %eax,%ecx
    f878:	48 8b 05 21 a1 00 00 	mov    0xa121(%rip),%rax        # 199a0 <g_979>
    f87f:	0f b6 10             	movzbl (%rax),%edx
    f882:	48 8b 05 17 a1 00 00 	mov    0xa117(%rip),%rax        # 199a0 <g_979>
    f889:	21 ca                	and    %ecx,%edx
    f88b:	88 10                	mov    %dl,(%rax)
    f88d:	0f b6 00             	movzbl (%rax),%eax
    f890:	0f b6 c0             	movzbl %al,%eax
    f893:	be 41 00 00 00       	mov    $0x41,%esi
    f898:	89 c7                	mov    %eax,%edi
    f89a:	e8 bb 92 ff ff       	callq  8b5a <safe_add_func_uint8_t_u_u>
    f89f:	0f b6 c0             	movzbl %al,%eax
    f8a2:	33 85 ac ed ff ff    	xor    -0x1254(%rbp),%eax
    f8a8:	89 c2                	mov    %eax,%edx
    f8aa:	0f be 85 b1 ed ff ff 	movsbl -0x124f(%rbp),%eax
    f8b1:	31 d0                	xor    %edx,%eax
    f8b3:	89 c0                	mov    %eax,%eax
    f8b5:	4c 89 e6             	mov    %r12,%rsi
    f8b8:	48 89 c7             	mov    %rax,%rdi
    f8bb:	e8 f4 90 ff ff       	callq  89b4 <safe_mod_func_int64_t_s_s>
    f8c0:	83 bd 00 ee ff ff 00 	cmpl   $0x0,-0x1200(%rbp)
    f8c7:	0f 94 c0             	sete   %al
    f8ca:	0f b6 d0             	movzbl %al,%edx
    f8cd:	8b 85 a0 ed ff ff    	mov    -0x1260(%rbp),%eax
    f8d3:	89 d6                	mov    %edx,%esi
    f8d5:	89 c7                	mov    %eax,%edi
    f8d7:	e8 f4 95 ff ff       	callq  8ed0 <safe_sub_func_uint32_t_u_u>
    f8dc:	0f b7 c0             	movzwl %ax,%eax
    f8df:	be 0e 00 00 00       	mov    $0xe,%esi
    f8e4:	89 c7                	mov    %eax,%edi
    f8e6:	e8 5d 95 ff ff       	callq  8e48 <safe_rshift_func_uint16_t_u_s>
    f8eb:	8b 85 b8 ed ff ff    	mov    -0x1248(%rbp),%eax
    f8f1:	39 85 a4 ed ff ff    	cmp    %eax,-0x125c(%rbp)
    f8f7:	48 8b 05 b2 a0 00 00 	mov    0xa0b2(%rip),%rax        # 199b0 <g_1029>
    f8fe:	48 89 85 58 ee ff ff 	mov    %rax,-0x11a8(%rbp)
    f905:	48 8d 85 b8 ed ff ff 	lea    -0x1248(%rbp),%rax
    f90c:	48 39 85 58 ee ff ff 	cmp    %rax,-0x11a8(%rbp)
    f913:	0f 94 c2             	sete   %dl
    f916:	48 8b 05 e3 9e 00 00 	mov    0x9ee3(%rip),%rax        # 19800 <g_762>
    f91d:	0f b7 00             	movzwl (%rax),%eax
    f920:	66 3d 6e fe          	cmp    $0xfe6e,%ax
    f924:	0f 97 c0             	seta   %al
    f927:	0f b6 c0             	movzbl %al,%eax
    f92a:	39 85 a8 ed ff ff    	cmp    %eax,-0x1258(%rbp)
    f930:	0f 9c c0             	setl   %al
    f933:	31 d0                	xor    %edx,%eax
    f935:	0f b6 c0             	movzbl %al,%eax
    f938:	be 0a 00 00 00       	mov    $0xa,%esi
    f93d:	89 c7                	mov    %eax,%edi
    f93f:	e8 36 95 ff ff       	callq  8e7a <safe_rshift_func_uint16_t_u_u>
    f944:	98                   	cwtl   
    f945:	89 c6                	mov    %eax,%esi
    f947:	bf be 1b 00 00       	mov    $0x1bbe,%edi
    f94c:	e8 a4 8a ff ff       	callq  83f5 <safe_mul_func_int16_t_s_s>
    f951:	98                   	cwtl   
    f952:	39 85 00 ee ff ff    	cmp    %eax,-0x1200(%rbp)
    f958:	0f 9e c0             	setle  %al
    f95b:	0f b6 c0             	movzbl %al,%eax
    f95e:	89 de                	mov    %ebx,%esi
    f960:	89 c7                	mov    %eax,%edi
    f962:	e8 f5 93 ff ff       	callq  8d5c <safe_mod_func_uint16_t_u_u>
    f967:	89 c2                	mov    %eax,%edx
    f969:	48 8b 05 40 a0 00 00 	mov    0xa040(%rip),%rax        # 199b0 <g_1029>
    f970:	0f b7 d2             	movzwl %dx,%edx
    f973:	89 10                	mov    %edx,(%rax)
    f975:	83 ad a8 ed ff ff 01 	subl   $0x1,-0x1258(%rbp)
    f97c:	83 bd a8 ed ff ff ff 	cmpl   $0xffffffff,-0x1258(%rbp)
    f983:	0f 8c 14 fe ff ff    	jl     f79d <func_42+0x9a1>
    f989:	66 c7 05 c6 77 00 00 	movw   $0x0,0x77c6(%rip)        # 17158 <g_374>
    f990:	00 00 
    f992:	e9 f5 01 00 00       	jmpq   fb8c <func_42+0xd90>
    f997:	48 8d 05 ea 9a 00 00 	lea    0x9aea(%rip),%rax        # 19488 <g_146+0x8>
    f99e:	48 89 85 80 ee ff ff 	mov    %rax,-0x1180(%rbp)
    f9a5:	c7 85 e0 ed ff ff 6f 	movl   $0x37d9796f,-0x1220(%rbp)
    f9ac:	79 d9 37 
    f9af:	48 8d 05 9a 77 00 00 	lea    0x779a(%rip),%rax        # 17150 <g_332>
    f9b6:	48 89 85 a0 ef ff ff 	mov    %rax,-0x1060(%rbp)
    f9bd:	48 8d 05 2c 77 00 00 	lea    0x772c(%rip),%rax        # 170f0 <g_74>
    f9c4:	48 89 85 a8 ef ff ff 	mov    %rax,-0x1058(%rbp)
    f9cb:	48 8d 05 d6 77 00 00 	lea    0x77d6(%rip),%rax        # 171a8 <g_615>
    f9d2:	48 89 85 b0 ef ff ff 	mov    %rax,-0x1050(%rbp)
    f9d9:	48 8d 05 10 77 00 00 	lea    0x7710(%rip),%rax        # 170f0 <g_74>
    f9e0:	48 89 85 b8 ef ff ff 	mov    %rax,-0x1048(%rbp)
    f9e7:	48 8d 05 62 77 00 00 	lea    0x7762(%rip),%rax        # 17150 <g_332>
    f9ee:	48 89 85 c0 ef ff ff 	mov    %rax,-0x1040(%rbp)
    f9f5:	48 8d 05 54 77 00 00 	lea    0x7754(%rip),%rax        # 17150 <g_332>
    f9fc:	48 89 85 c8 ef ff ff 	mov    %rax,-0x1038(%rbp)
    fa03:	48 8d 05 9e 77 00 00 	lea    0x779e(%rip),%rax        # 171a8 <g_615>
    fa0a:	48 89 85 d0 ef ff ff 	mov    %rax,-0x1030(%rbp)
    fa11:	48 8d 05 38 77 00 00 	lea    0x7738(%rip),%rax        # 17150 <g_332>
    fa18:	48 89 85 d8 ef ff ff 	mov    %rax,-0x1028(%rbp)
    fa1f:	48 8d 05 2a 77 00 00 	lea    0x772a(%rip),%rax        # 17150 <g_332>
    fa26:	48 89 85 e0 ef ff ff 	mov    %rax,-0x1020(%rbp)
    fa2d:	48 8d 05 1c 76 00 00 	lea    0x761c(%rip),%rax        # 17050 <g_25>
    fa34:	48 89 85 e8 ef ff ff 	mov    %rax,-0x1018(%rbp)
    fa3b:	48 8d 05 ae 76 00 00 	lea    0x76ae(%rip),%rax        # 170f0 <g_74>
    fa42:	48 89 85 f0 ef ff ff 	mov    %rax,-0x1010(%rbp)
    fa49:	48 c7 85 f8 ef ff ff 	movq   $0x0,-0x1008(%rbp)
    fa50:	00 00 00 00 
    fa54:	48 8d 05 4d 77 00 00 	lea    0x774d(%rip),%rax        # 171a8 <g_615>
    fa5b:	48 89 85 00 f0 ff ff 	mov    %rax,-0x1000(%rbp)
    fa62:	48 8d 05 3f 77 00 00 	lea    0x773f(%rip),%rax        # 171a8 <g_615>
    fa69:	48 89 85 08 f0 ff ff 	mov    %rax,-0xff8(%rbp)
    fa70:	48 c7 85 10 f0 ff ff 	movq   $0x0,-0xff0(%rbp)
    fa77:	00 00 00 00 
    fa7b:	c7 85 10 ee ff ff 01 	movl   $0x1,-0x11f0(%rbp)
    fa82:	00 00 00 
    fa85:	c7 85 e4 ed ff ff 02 	movl   $0x2,-0x121c(%rbp)
    fa8c:	00 00 00 
    fa8f:	48 8d 85 10 ee ff ff 	lea    -0x11f0(%rbp),%rax
    fa96:	48 89 85 88 ee ff ff 	mov    %rax,-0x1178(%rbp)
    fa9d:	48 8d 05 04 9f 00 00 	lea    0x9f04(%rip),%rax        # 199a8 <g_978>
    faa4:	48 89 85 18 ee ff ff 	mov    %rax,-0x11e8(%rbp)
    faab:	48 8d 85 18 ee ff ff 	lea    -0x11e8(%rbp),%rax
    fab2:	48 89 85 90 ee ff ff 	mov    %rax,-0x1170(%rbp)
    fab9:	c7 85 e8 ed ff ff 31 	movl   $0x362abd31,-0x1218(%rbp)
    fac0:	bd 2a 36 
    fac3:	c7 85 ec ed ff ff fc 	movl   $0xfffffffc,-0x1214(%rbp)
    faca:	ff ff ff 
    facd:	c7 85 f0 ed ff ff 07 	movl   $0x7,-0x1210(%rbp)
    fad4:	00 00 00 
    fad7:	c7 85 f4 ed ff ff 14 	movl   $0xb4fcae14,-0x120c(%rbp)
    fade:	ae fc b4 
    fae1:	c7 85 f8 ed ff ff b1 	movl   $0xb136efb1,-0x1208(%rbp)
    fae8:	ef 36 b1 
    faeb:	c7 85 fc ed ff ff 07 	movl   $0x7,-0x1204(%rbp)
    faf2:	00 00 00 
    faf5:	c7 85 d0 ee ff ff 04 	movl   $0x4,-0x1130(%rbp)
    fafc:	00 00 00 
    faff:	c7 85 d4 ee ff ff f9 	movl   $0xfffffff9,-0x112c(%rbp)
    fb06:	ff ff ff 
    fb09:	c7 85 d8 ee ff ff f9 	movl   $0xfffffff9,-0x1128(%rbp)
    fb10:	ff ff ff 
    fb13:	c7 85 dc ee ff ff 04 	movl   $0x4,-0x1124(%rbp)
    fb1a:	00 00 00 
    fb1d:	c7 85 e0 ee ff ff f9 	movl   $0xfffffff9,-0x1120(%rbp)
    fb24:	ff ff ff 
    fb27:	c7 85 e4 ee ff ff f9 	movl   $0xfffffff9,-0x111c(%rbp)
    fb2e:	ff ff ff 
    fb31:	48 8b 85 80 ee ff ff 	mov    -0x1180(%rbp),%rax
    fb38:	48 8d 15 69 76 00 00 	lea    0x7669(%rip),%rdx        # 171a8 <g_615>
    fb3f:	48 89 10             	mov    %rdx,(%rax)
    fb42:	48 8b 85 80 ee ff ff 	mov    -0x1180(%rbp),%rax
    fb49:	48 8b 00             	mov    (%rax),%rax
    fb4c:	48 39 85 60 ee ff ff 	cmp    %rax,-0x11a0(%rbp)
    fb53:	0f 94 c0             	sete   %al
    fb56:	0f b6 c8             	movzbl %al,%ecx
    fb59:	48 8b 05 58 99 00 00 	mov    0x9958(%rip),%rax        # 194b8 <g_382>
    fb60:	8b 10                	mov    (%rax),%edx
    fb62:	48 8b 05 4f 99 00 00 	mov    0x994f(%rip),%rax        # 194b8 <g_382>
    fb69:	09 ca                	or     %ecx,%edx
    fb6b:	89 10                	mov    %edx,(%rax)
    fb6d:	0f b7 05 e4 75 00 00 	movzwl 0x75e4(%rip),%eax        # 17158 <g_374>
    fb74:	0f be c0             	movsbl %al,%eax
    fb77:	be 02 00 00 00       	mov    $0x2,%esi
    fb7c:	89 c7                	mov    %eax,%edi
    fb7e:	e8 51 86 ff ff       	callq  81d4 <safe_add_func_int8_t_s_s>
    fb83:	66 98                	cbtw   
    fb85:	66 89 05 cc 75 00 00 	mov    %ax,0x75cc(%rip)        # 17158 <g_374>
    fb8c:	0f b7 05 c5 75 00 00 	movzwl 0x75c5(%rip),%eax        # 17158 <g_374>
    fb93:	66 83 f8 1a          	cmp    $0x1a,%ax
    fb97:	0f 84 fa fd ff ff    	je     f997 <func_42+0xb9b>
    fb9d:	8b 85 a4 ed ff ff    	mov    -0x125c(%rbp),%eax
    fba3:	48 98                	cltq   
    fba5:	be 06 00 00 00       	mov    $0x6,%esi
    fbaa:	48 89 c7             	mov    %rax,%rdi
    fbad:	e8 99 94 ff ff       	callq  904b <safe_sub_func_uint64_t_u_u>
    fbb2:	89 85 a4 ed ff ff    	mov    %eax,-0x125c(%rbp)
    fbb8:	83 bd a4 ed ff ff f4 	cmpl   $0xfffffff4,-0x125c(%rbp)
    fbbf:	0f 8c 66 f4 ff ff    	jl     f02b <func_42+0x22f>
    fbc5:	48 8b 85 20 ee ff ff 	mov    -0x11e0(%rbp),%rax
    fbcc:	48 8b 10             	mov    (%rax),%rdx
    fbcf:	48 8b 85 08 ee ff ff 	mov    -0x11f8(%rbp),%rax
    fbd6:	48 8b 12             	mov    (%rdx),%rdx
    fbd9:	48 89 10             	mov    %rdx,(%rax)
    fbdc:	48 8b 05 d5 98 00 00 	mov    0x98d5(%rip),%rax        # 194b8 <g_382>
    fbe3:	8b 00                	mov    (%rax),%eax
    fbe5:	48 8b 5d e8          	mov    -0x18(%rbp),%rbx
    fbe9:	64 48 33 1c 25 28 00 	xor    %fs:0x28,%rbx
    fbf0:	00 00 
    fbf2:	74 05                	je     fbf9 <func_42+0xdfd>
    fbf4:	e8 77 84 ff ff       	callq  8070 <__stack_chk_fail@plt>
    fbf9:	48 81 c4 50 12 00 00 	add    $0x1250,%rsp
    fc00:	5b                   	pop    %rbx
    fc01:	41 5c                	pop    %r12
    fc03:	5d                   	pop    %rbp
    fc04:	c3                   	retq   

000000000000fc05 <func_47>:
    fc05:	f3 0f 1e fa          	endbr64 
    fc09:	55                   	push   %rbp
    fc0a:	48 89 e5             	mov    %rsp,%rbp
    fc0d:	41 55                	push   %r13
    fc0f:	41 54                	push   %r12
    fc11:	53                   	push   %rbx
    fc12:	48 81 ec b8 03 00 00 	sub    $0x3b8,%rsp
    fc19:	48 89 bd 38 fc ff ff 	mov    %rdi,-0x3c8(%rbp)
    fc20:	64 48 8b 04 25 28 00 	mov    %fs:0x28,%rax
    fc27:	00 00 
    fc29:	48 89 45 d8          	mov    %rax,-0x28(%rbp)
    fc2d:	31 c0                	xor    %eax,%eax
    fc2f:	c7 45 cb 02 02 02 02 	movl   $0x2020202,-0x35(%rbp)
    fc36:	c6 45 cf 02          	movb   $0x2,-0x31(%rbp)
    fc3a:	48 8d 05 5d 75 00 00 	lea    0x755d(%rip),%rax        # 1719e <g_556>
    fc41:	48 89 85 b0 fc ff ff 	mov    %rax,-0x350(%rbp)
    fc48:	c7 85 60 fc ff ff ff 	movl   $0xffffffff,-0x3a0(%rbp)
    fc4f:	ff ff ff 
    fc52:	c7 85 64 fc ff ff c4 	movl   $0x55fb4fc4,-0x39c(%rbp)
    fc59:	4f fb 55 
    fc5c:	c7 85 68 fc ff ff fe 	movl   $0xfffffffe,-0x398(%rbp)
    fc63:	ff ff ff 
    fc66:	48 8d 05 43 98 00 00 	lea    0x9843(%rip),%rax        # 194b0 <g_198>
    fc6d:	48 89 85 b8 fc ff ff 	mov    %rax,-0x348(%rbp)
    fc74:	48 8d 05 55 98 00 00 	lea    0x9855(%rip),%rax        # 194d0 <g_494>
    fc7b:	48 89 85 c0 fc ff ff 	mov    %rax,-0x340(%rbp)
    fc82:	48 8d 05 ef 97 00 00 	lea    0x97ef(%rip),%rax        # 19478 <g_105>
    fc89:	48 89 85 a0 fc ff ff 	mov    %rax,-0x360(%rbp)
    fc90:	48 8d 85 a0 fc ff ff 	lea    -0x360(%rbp),%rax
    fc97:	48 89 85 c8 fc ff ff 	mov    %rax,-0x338(%rbp)
    fc9e:	48 8d 05 8b 74 00 00 	lea    0x748b(%rip),%rax        # 17130 <g_144>
    fca5:	48 89 85 d0 fc ff ff 	mov    %rax,-0x330(%rbp)
    fcac:	c7 85 6c fc ff ff f6 	movl   $0xfffffff6,-0x394(%rbp)
    fcb3:	ff ff ff 
    fcb6:	66 c7 85 4e fc ff ff 	movw   $0x4,-0x3b2(%rbp)
    fcbd:	04 00 
    fcbf:	48 8d 05 c2 97 00 00 	lea    0x97c2(%rip),%rax        # 19488 <g_146+0x8>
    fcc6:	48 89 85 d8 fc ff ff 	mov    %rax,-0x328(%rbp)
    fccd:	66 c7 85 50 fc ff ff 	movw   $0x6c76,-0x3b0(%rbp)
    fcd4:	76 6c 
    fcd6:	c7 85 b0 fd ff ff fd 	movl   $0xfffffffd,-0x250(%rbp)
    fcdd:	ff ff ff 
    fce0:	c7 85 b4 fd ff ff f6 	movl   $0xfffffff6,-0x24c(%rbp)
    fce7:	ff ff ff 
    fcea:	c7 85 b8 fd ff ff fd 	movl   $0xfffffffd,-0x248(%rbp)
    fcf1:	ff ff ff 
    fcf4:	c7 85 bc fd ff ff f6 	movl   $0xfffffff6,-0x244(%rbp)
    fcfb:	ff ff ff 
    fcfe:	c7 85 c0 fd ff ff fd 	movl   $0xfffffffd,-0x240(%rbp)
    fd05:	ff ff ff 
    fd08:	c7 85 c4 fd ff ff 50 	movl   $0x4e8aa550,-0x23c(%rbp)
    fd0f:	a5 8a 4e 
    fd12:	c7 85 c8 fd ff ff 50 	movl   $0x4e8aa550,-0x238(%rbp)
    fd19:	a5 8a 4e 
    fd1c:	c7 85 cc fd ff ff f9 	movl   $0xfffffff9,-0x234(%rbp)
    fd23:	ff ff ff 
    fd26:	c7 85 d0 fd ff ff f9 	movl   $0xfffffff9,-0x230(%rbp)
    fd2d:	ff ff ff 
    fd30:	c7 85 d4 fd ff ff 50 	movl   $0x4e8aa550,-0x22c(%rbp)
    fd37:	a5 8a 4e 
    fd3a:	c7 85 d8 fd ff ff 00 	movl   $0x0,-0x228(%rbp)
    fd41:	00 00 00 
    fd44:	c7 85 dc fd ff ff f6 	movl   $0xfffffff6,-0x224(%rbp)
    fd4b:	ff ff ff 
    fd4e:	c7 85 e0 fd ff ff 00 	movl   $0x0,-0x220(%rbp)
    fd55:	00 00 00 
    fd58:	c7 85 e4 fd ff ff f6 	movl   $0xfffffff6,-0x21c(%rbp)
    fd5f:	ff ff ff 
    fd62:	c7 85 e8 fd ff ff 00 	movl   $0x0,-0x218(%rbp)
    fd69:	00 00 00 
    fd6c:	c7 85 ec fd ff ff 50 	movl   $0x4e8aa550,-0x214(%rbp)
    fd73:	a5 8a 4e 
    fd76:	c7 85 f0 fd ff ff f9 	movl   $0xfffffff9,-0x210(%rbp)
    fd7d:	ff ff ff 
    fd80:	c7 85 f4 fd ff ff f9 	movl   $0xfffffff9,-0x20c(%rbp)
    fd87:	ff ff ff 
    fd8a:	c7 85 f8 fd ff ff 50 	movl   $0x4e8aa550,-0x208(%rbp)
    fd91:	a5 8a 4e 
    fd94:	c7 85 fc fd ff ff 50 	movl   $0x4e8aa550,-0x204(%rbp)
    fd9b:	a5 8a 4e 
    fd9e:	c7 85 00 fe ff ff fd 	movl   $0xfffffffd,-0x200(%rbp)
    fda5:	ff ff ff 
    fda8:	c7 85 04 fe ff ff f6 	movl   $0xfffffff6,-0x1fc(%rbp)
    fdaf:	ff ff ff 
    fdb2:	c7 85 08 fe ff ff fd 	movl   $0xfffffffd,-0x1f8(%rbp)
    fdb9:	ff ff ff 
    fdbc:	c7 85 0c fe ff ff f6 	movl   $0xfffffff6,-0x1f4(%rbp)
    fdc3:	ff ff ff 
    fdc6:	c7 85 10 fe ff ff fd 	movl   $0xfffffffd,-0x1f0(%rbp)
    fdcd:	ff ff ff 
    fdd0:	c7 85 14 fe ff ff 50 	movl   $0x4e8aa550,-0x1ec(%rbp)
    fdd7:	a5 8a 4e 
    fdda:	c7 85 18 fe ff ff 50 	movl   $0x4e8aa550,-0x1e8(%rbp)
    fde1:	a5 8a 4e 
    fde4:	c7 85 1c fe ff ff f9 	movl   $0xfffffff9,-0x1e4(%rbp)
    fdeb:	ff ff ff 
    fdee:	c7 85 20 fe ff ff f9 	movl   $0xfffffff9,-0x1e0(%rbp)
    fdf5:	ff ff ff 
    fdf8:	c7 85 24 fe ff ff 50 	movl   $0x4e8aa550,-0x1dc(%rbp)
    fdff:	a5 8a 4e 
    fe02:	c7 85 28 fe ff ff 00 	movl   $0x0,-0x1d8(%rbp)
    fe09:	00 00 00 
    fe0c:	c7 85 2c fe ff ff f6 	movl   $0xfffffff6,-0x1d4(%rbp)
    fe13:	ff ff ff 
    fe16:	c7 85 30 fe ff ff 00 	movl   $0x0,-0x1d0(%rbp)
    fe1d:	00 00 00 
    fe20:	c7 85 34 fe ff ff f6 	movl   $0xfffffff6,-0x1cc(%rbp)
    fe27:	ff ff ff 
    fe2a:	c7 85 38 fe ff ff 00 	movl   $0x0,-0x1c8(%rbp)
    fe31:	00 00 00 
    fe34:	c7 85 3c fe ff ff 50 	movl   $0x4e8aa550,-0x1c4(%rbp)
    fe3b:	a5 8a 4e 
    fe3e:	c7 85 40 fe ff ff f9 	movl   $0xfffffff9,-0x1c0(%rbp)
    fe45:	ff ff ff 
    fe48:	c7 85 44 fe ff ff f9 	movl   $0xfffffff9,-0x1bc(%rbp)
    fe4f:	ff ff ff 
    fe52:	c7 85 48 fe ff ff 50 	movl   $0x4e8aa550,-0x1b8(%rbp)
    fe59:	a5 8a 4e 
    fe5c:	c7 85 4c fe ff ff 50 	movl   $0x4e8aa550,-0x1b4(%rbp)
    fe63:	a5 8a 4e 
    fe66:	c7 85 50 fe ff ff fd 	movl   $0xfffffffd,-0x1b0(%rbp)
    fe6d:	ff ff ff 
    fe70:	c7 85 54 fe ff ff f6 	movl   $0xfffffff6,-0x1ac(%rbp)
    fe77:	ff ff ff 
    fe7a:	c7 85 58 fe ff ff fd 	movl   $0xfffffffd,-0x1a8(%rbp)
    fe81:	ff ff ff 
    fe84:	c7 85 5c fe ff ff f6 	movl   $0xfffffff6,-0x1a4(%rbp)
    fe8b:	ff ff ff 
    fe8e:	c7 85 60 fe ff ff fd 	movl   $0xfffffffd,-0x1a0(%rbp)
    fe95:	ff ff ff 
    fe98:	c7 85 64 fe ff ff 50 	movl   $0x4e8aa550,-0x19c(%rbp)
    fe9f:	a5 8a 4e 
    fea2:	c7 85 68 fe ff ff 50 	movl   $0x4e8aa550,-0x198(%rbp)
    fea9:	a5 8a 4e 
    feac:	c7 85 6c fe ff ff f9 	movl   $0xfffffff9,-0x194(%rbp)
    feb3:	ff ff ff 
    feb6:	c7 85 70 fe ff ff f9 	movl   $0xfffffff9,-0x190(%rbp)
    febd:	ff ff ff 
    fec0:	c7 85 74 fe ff ff 50 	movl   $0x4e8aa550,-0x18c(%rbp)
    fec7:	a5 8a 4e 
    feca:	48 8d 05 cf 9a 00 00 	lea    0x9acf(%rip),%rax        # 199a0 <g_979>
    fed1:	48 89 85 e0 fc ff ff 	mov    %rax,-0x320(%rbp)
    fed8:	48 c7 85 e8 fc ff ff 	movq   $0x0,-0x318(%rbp)
    fedf:	00 00 00 00 
    fee3:	66 c7 85 52 fc ff ff 	movw   $0xfffe,-0x3ae(%rbp)
    feea:	fe ff 
    feec:	48 8d 85 b0 fd ff ff 	lea    -0x250(%rbp),%rax
    fef3:	48 83 e8 80          	sub    $0xffffffffffffff80,%rax
    fef7:	48 89 85 f0 fc ff ff 	mov    %rax,-0x310(%rbp)
    fefe:	c7 85 54 fc ff ff 00 	movl   $0x0,-0x3ac(%rbp)
    ff05:	00 00 00 
    ff08:	eb 42                	jmp    ff4c <func_47+0x347>
    ff0a:	c7 85 58 fc ff ff 00 	movl   $0x0,-0x3a8(%rbp)
    ff11:	00 00 00 
    ff14:	eb 26                	jmp    ff3c <func_47+0x337>
    ff16:	8b 85 58 fc ff ff    	mov    -0x3a8(%rbp),%eax
    ff1c:	48 63 d0             	movslq %eax,%rdx
    ff1f:	8b 85 54 fc ff ff    	mov    -0x3ac(%rbp),%eax
    ff25:	48 98                	cltq   
    ff27:	48 01 d0             	add    %rdx,%rax
    ff2a:	c7 84 85 40 fd ff ff 	movl   $0x4,-0x2c0(%rbp,%rax,4)
    ff31:	04 00 00 00 
    ff35:	83 85 58 fc ff ff 01 	addl   $0x1,-0x3a8(%rbp)
    ff3c:	83 bd 58 fc ff ff 00 	cmpl   $0x0,-0x3a8(%rbp)
    ff43:	7e d1                	jle    ff16 <func_47+0x311>
    ff45:	83 85 54 fc ff ff 01 	addl   $0x1,-0x3ac(%rbp)
    ff4c:	83 bd 54 fc ff ff 03 	cmpl   $0x3,-0x3ac(%rbp)
    ff53:	7e b5                	jle    ff0a <func_47+0x305>
    ff55:	48 c7 85 38 fc ff ff 	movq   $0xfffffffffffffff2,-0x3c8(%rbp)
    ff5c:	f2 ff ff ff 
    ff60:	e9 da 01 00 00       	jmpq   1013f <func_47+0x53a>
    ff65:	48 8d 05 50 72 00 00 	lea    0x7250(%rip),%rax        # 171bc <g_680+0x4>
    ff6c:	48 89 85 10 fd ff ff 	mov    %rax,-0x2f0(%rbp)
    ff73:	48 8d 05 fe 71 00 00 	lea    0x71fe(%rip),%rax        # 17178 <g_495+0x8>
    ff7a:	48 89 85 18 fd ff ff 	mov    %rax,-0x2e8(%rbp)
    ff81:	c7 85 90 fc ff ff 8c 	movl   $0x28d64a8c,-0x370(%rbp)
    ff88:	4a d6 28 
    ff8b:	48 c7 85 20 fd ff ff 	movq   $0xfffffffffffffff7,-0x2e0(%rbp)
    ff92:	f7 ff ff ff 
    ff96:	c7 85 94 fc ff ff f6 	movl   $0xfffffff6,-0x36c(%rbp)
    ff9d:	ff ff ff 
    ffa0:	48 8d 05 f9 71 00 00 	lea    0x71f9(%rip),%rax        # 171a0 <g_577>
    ffa7:	48 89 85 28 fd ff ff 	mov    %rax,-0x2d8(%rbp)
    ffae:	48 8d 85 38 fd ff ff 	lea    -0x2c8(%rbp),%rax
    ffb5:	48 89 85 30 fd ff ff 	mov    %rax,-0x2d0(%rbp)
    ffbc:	c7 85 98 fc ff ff 01 	movl   $0x1,-0x368(%rbp)
    ffc3:	00 00 00 
    ffc6:	c7 85 9c fc ff ff 99 	movl   $0xf0bdb899,-0x364(%rbp)
    ffcd:	b8 bd f0 
    ffd0:	48 8d 85 80 fe ff ff 	lea    -0x180(%rbp),%rax
    ffd7:	48 8d 15 42 40 00 00 	lea    0x4042(%rip),%rdx        # 14020 <g_2689+0xfbc>
    ffde:	b9 28 00 00 00       	mov    $0x28,%ecx
    ffe3:	48 89 c7             	mov    %rax,%rdi
    ffe6:	48 89 d6             	mov    %rdx,%rsi
    ffe9:	f3 48 a5             	rep movsq %ds:(%rsi),%es:(%rdi)
    ffec:	c7 85 50 fd ff ff 01 	movl   $0xfed8fe01,-0x2b0(%rbp)
    fff3:	fe d8 fe 
    fff6:	66 c7 85 54 fd ff ff 	movw   $0x401,-0x2ac(%rbp)
    fffd:	01 04 
    ffff:	c7 85 56 fd ff ff fe 	movl   $0x40401fe,-0x2aa(%rbp)
   10006:	01 04 04 
   10009:	66 c7 85 5a fd ff ff 	movw   $0xfe01,-0x2a6(%rbp)
   10010:	01 fe 
   10012:	c7 85 5c fd ff ff 00 	movl   $0x100fe00,-0x2a4(%rbp)
   10019:	fe 00 01 
   1001c:	66 c7 85 60 fd ff ff 	movw   $0xfe00,-0x2a0(%rbp)
   10023:	00 fe 
   10025:	c7 85 62 fd ff ff 00 	movl   $0xd8040000,-0x29e(%rbp)
   1002c:	00 04 d8 
   1002f:	66 c7 85 66 fd ff ff 	movw   $0x4d8,-0x29a(%rbp)
   10036:	d8 04 
   10038:	c7 85 68 fd ff ff 00 	movl   $0x1d80000,-0x298(%rbp)
   1003f:	00 d8 01 
   10042:	66 c7 85 6c fd ff ff 	movw   $0x100,-0x294(%rbp)
   10049:	00 01 
   1004b:	c7 85 6e fd ff ff 00 	movl   $0x4000000,-0x292(%rbp)
   10052:	00 00 04 
   10055:	66 c7 85 72 fd ff ff 	movw   $0xd8d8,-0x28e(%rbp)
   1005c:	d8 d8 
   1005e:	c7 85 74 fd ff ff fe 	movl   $0xfe0000fe,-0x28c(%rbp)
   10065:	00 00 fe 
   10068:	66 c7 85 78 fd ff ff 	movw   $0x100,-0x288(%rbp)
   1006f:	00 01 
   10071:	c7 85 7a fd ff ff 01 	movl   $0xfed8fe01,-0x286(%rbp)
   10078:	fe d8 fe 
   1007b:	66 c7 85 7e fd ff ff 	movw   $0x401,-0x282(%rbp)
   10082:	01 04 
   10084:	c7 85 80 fd ff ff fe 	movl   $0x40401fe,-0x280(%rbp)
   1008b:	01 04 04 
   1008e:	66 c7 85 84 fd ff ff 	movw   $0xfe01,-0x27c(%rbp)
   10095:	01 fe 
   10097:	c7 85 86 fd ff ff 00 	movl   $0x100fe00,-0x27a(%rbp)
   1009e:	fe 00 01 
   100a1:	66 c7 85 8a fd ff ff 	movw   $0xfe00,-0x276(%rbp)
   100a8:	00 fe 
   100aa:	c7 85 8c fd ff ff 00 	movl   $0xd8040000,-0x274(%rbp)
   100b1:	00 04 d8 
   100b4:	66 c7 85 90 fd ff ff 	movw   $0x4d8,-0x270(%rbp)
   100bb:	d8 04 
   100bd:	c7 85 92 fd ff ff 00 	movl   $0x1d80000,-0x26e(%rbp)
   100c4:	00 d8 01 
   100c7:	66 c7 85 96 fd ff ff 	movw   $0x100,-0x26a(%rbp)
   100ce:	00 01 
   100d0:	c7 85 98 fd ff ff 00 	movl   $0x4000000,-0x268(%rbp)
   100d7:	00 00 04 
   100da:	66 c7 85 9c fd ff ff 	movw   $0xd8d8,-0x264(%rbp)
   100e1:	d8 d8 
   100e3:	c7 85 9e fd ff ff fe 	movl   $0xfe0000fe,-0x262(%rbp)
   100ea:	00 00 fe 
   100ed:	66 c7 85 a2 fd ff ff 	movw   $0x100,-0x25e(%rbp)
   100f4:	00 01 
   100f6:	48 b8 83 f9 f9 83 f9 	movabs $0xf983f9f983f9f983,%rax
   100fd:	f9 83 f9 
   10100:	48 89 45 d0          	mov    %rax,-0x30(%rbp)
   10104:	c7 85 5c fc ff ff 00 	movl   $0x0,-0x3a4(%rbp)
   1010b:	00 00 00 
   1010e:	eb 1e                	jmp    1012e <func_47+0x529>
   10110:	8b 85 5c fc ff ff    	mov    -0x3a4(%rbp),%eax
   10116:	48 98                	cltq   
   10118:	48 8d 15 a9 93 00 00 	lea    0x93a9(%rip),%rdx        # 194c8 <g_440>
   1011f:	48 89 94 c5 38 fd ff 	mov    %rdx,-0x2c8(%rbp,%rax,8)
   10126:	ff 
   10127:	83 85 5c fc ff ff 01 	addl   $0x1,-0x3a4(%rbp)
   1012e:	83 bd 5c fc ff ff 00 	cmpl   $0x0,-0x3a4(%rbp)
   10135:	7e d9                	jle    10110 <func_47+0x50b>
   10137:	48 83 85 38 fc ff ff 	addq   $0x1,-0x3c8(%rbp)
   1013e:	01 
   1013f:	48 83 bd 38 fc ff ff 	cmpq   $0xa,-0x3c8(%rbp)
   10146:	0a 
   10147:	0f 85 18 fe ff ff    	jne    ff65 <func_47+0x360>
   1014d:	8b 85 70 fe ff ff    	mov    -0x190(%rbp),%eax
   10153:	48 63 d8             	movslq %eax,%rbx
   10156:	48 8b 15 8b 96 00 00 	mov    0x968b(%rip),%rdx        # 197e8 <g_652>
   1015d:	48 8b 05 84 96 00 00 	mov    0x9684(%rip),%rax        # 197e8 <g_652>
   10164:	0f b7 12             	movzwl (%rdx),%edx
   10167:	66 89 10             	mov    %dx,(%rax)
   1016a:	0f b7 00             	movzwl (%rax),%eax
   1016d:	89 c1                	mov    %eax,%ecx
   1016f:	48 8b 85 c8 fc ff ff 	mov    -0x338(%rbp),%rax
   10176:	48 8b 00             	mov    (%rax),%rax
   10179:	48 8b 00             	mov    (%rax),%rax
   1017c:	8b 00                	mov    (%rax),%eax
   1017e:	89 c2                	mov    %eax,%edx
   10180:	48 8b 85 d0 fc ff ff 	mov    -0x330(%rbp),%rax
   10187:	66 89 10             	mov    %dx,(%rax)
   1018a:	48 8b 85 d0 fc ff ff 	mov    -0x330(%rbp),%rax
   10191:	0f b7 00             	movzwl (%rax),%eax
   10194:	21 c1                	and    %eax,%ecx
   10196:	89 ca                	mov    %ecx,%edx
   10198:	48 8b 85 b0 fc ff ff 	mov    -0x350(%rbp),%rax
   1019f:	88 10                	mov    %dl,(%rax)
   101a1:	48 8b 85 b0 fc ff ff 	mov    -0x350(%rbp),%rax
   101a8:	0f b6 00             	movzbl (%rax),%eax
   101ab:	0f be c0             	movsbl %al,%eax
   101ae:	8b 95 6c fc ff ff    	mov    -0x394(%rbp),%edx
   101b4:	89 d6                	mov    %edx,%esi
   101b6:	89 c7                	mov    %eax,%edi
   101b8:	e8 e4 80 ff ff       	callq  82a1 <safe_lshift_func_int8_t_s_s>
   101bd:	48 8b 05 8c 6e 00 00 	mov    0x6e8c(%rip),%rax        # 17050 <g_25>
   101c4:	41 89 c4             	mov    %eax,%r12d
   101c7:	48 8b 85 a0 fc ff ff 	mov    -0x360(%rbp),%rax
   101ce:	48 8b 00             	mov    (%rax),%rax
   101d1:	8b 00                	mov    (%rax),%eax
   101d3:	41 89 c5             	mov    %eax,%r13d
   101d6:	0f b7 95 50 fc ff ff 	movzwl -0x3b0(%rbp),%edx
   101dd:	48 8b 85 b0 fc ff ff 	mov    -0x350(%rbp),%rax
   101e4:	0f b6 00             	movzbl (%rax),%eax
   101e7:	83 f0 f1             	xor    $0xfffffff1,%eax
   101ea:	89 c1                	mov    %eax,%ecx
   101ec:	48 8b 85 b0 fc ff ff 	mov    -0x350(%rbp),%rax
   101f3:	88 08                	mov    %cl,(%rax)
   101f5:	48 8d 05 8c 92 00 00 	lea    0x928c(%rip),%rax        # 19488 <g_146+0x8>
   101fc:	48 39 85 d8 fc ff ff 	cmp    %rax,-0x328(%rbp)
   10203:	0f 95 c0             	setne  %al
   10206:	0f b6 c8             	movzbl %al,%ecx
   10209:	48 8b 85 a0 fc ff ff 	mov    -0x360(%rbp),%rax
   10210:	48 8b 00             	mov    (%rax),%rax
   10213:	8b 00                	mov    (%rax),%eax
   10215:	39 c1                	cmp    %eax,%ecx
   10217:	0f 95 c0             	setne  %al
   1021a:	0f b6 c8             	movzbl %al,%ecx
   1021d:	48 8b 85 c8 fc ff ff 	mov    -0x338(%rbp),%rax
   10224:	48 8b 00             	mov    (%rax),%rax
   10227:	48 8b 00             	mov    (%rax),%rax
   1022a:	8b 00                	mov    (%rax),%eax
   1022c:	39 c1                	cmp    %eax,%ecx
   1022e:	0f 9e c0             	setle  %al
   10231:	0f b6 c0             	movzbl %al,%eax
   10234:	48 23 85 38 fc ff ff 	and    -0x3c8(%rbp),%rax
   1023b:	48 39 85 38 fc ff ff 	cmp    %rax,-0x3c8(%rbp)
   10242:	0f 92 c0             	setb   %al
   10245:	0f b6 c0             	movzbl %al,%eax
   10248:	89 d6                	mov    %edx,%esi
   1024a:	89 c7                	mov    %eax,%edi
   1024c:	e8 90 82 ff ff       	callq  84e1 <safe_lshift_func_int16_t_s_u>
   10251:	b8 01 00 00 00       	mov    $0x1,%eax
   10256:	0f be c0             	movsbl %al,%eax
   10259:	44 89 ee             	mov    %r13d,%esi
   1025c:	89 c7                	mov    %eax,%edi
   1025e:	e8 09 81 ff ff       	callq  836c <safe_rshift_func_int8_t_s_u>
   10263:	f7 d0                	not    %eax
   10265:	c0 e8 07             	shr    $0x7,%al
   10268:	0f b6 c0             	movzbl %al,%eax
   1026b:	44 89 e6             	mov    %r12d,%esi
   1026e:	89 c7                	mov    %eax,%edi
   10270:	e8 f7 80 ff ff       	callq  836c <safe_rshift_func_int8_t_s_u>
   10275:	48 8b 05 d4 6e 00 00 	mov    0x6ed4(%rip),%rax        # 17150 <g_332>
   1027c:	48 3d ff 00 00 00    	cmp    $0xff,%rax
   10282:	0f 94 c0             	sete   %al
   10285:	0f b6 c0             	movzbl %al,%eax
   10288:	be 00 00 00 00       	mov    $0x0,%esi
   1028d:	89 c7                	mov    %eax,%edi
   1028f:	e8 fe 81 ff ff       	callq  8492 <safe_lshift_func_int16_t_s_s>
   10294:	48 8b 85 a0 fc ff ff 	mov    -0x360(%rbp),%rax
   1029b:	48 8b 00             	mov    (%rax),%rax
   1029e:	8b 00                	mov    (%rax),%eax
   102a0:	48 98                	cltq   
   102a2:	48 89 de             	mov    %rbx,%rsi
   102a5:	48 89 c7             	mov    %rax,%rdi
   102a8:	e8 81 8d ff ff       	callq  902e <safe_add_func_uint64_t_u_u>
   102ad:	48 85 c0             	test   %rax,%rax
   102b0:	0f 84 e2 00 00 00    	je     10398 <func_47+0x793>
   102b6:	48 8d 05 0b 92 00 00 	lea    0x920b(%rip),%rax        # 194c8 <g_440>
   102bd:	48 89 85 a8 fc ff ff 	mov    %rax,-0x358(%rbp)
   102c4:	48 8d 85 a8 fc ff ff 	lea    -0x358(%rbp),%rax
   102cb:	48 89 85 f8 fc ff ff 	mov    %rax,-0x308(%rbp)
   102d2:	48 c7 85 00 fd ff ff 	movq   $0x0,-0x300(%rbp)
   102d9:	00 00 00 00 
   102dd:	c7 85 70 fc ff ff 88 	movl   $0x8e9c3088,-0x390(%rbp)
   102e4:	30 9c 8e 
   102e7:	c7 85 74 fc ff ff 50 	movl   $0x92d36950,-0x38c(%rbp)
   102ee:	69 d3 92 
   102f1:	c7 85 78 fc ff ff f4 	movl   $0xfa93f9f4,-0x388(%rbp)
   102f8:	f9 93 fa 
   102fb:	48 c7 85 80 fe ff ff 	movq   $0xfffffffffffffff6,-0x180(%rbp)
   10302:	f6 ff ff ff 
   10306:	48 c7 85 88 fe ff ff 	movq   $0xfffffffffffffff6,-0x178(%rbp)
   1030d:	f6 ff ff ff 
   10311:	48 c7 85 90 fe ff ff 	movq   $0xfffffffffffffff6,-0x170(%rbp)
   10318:	f6 ff ff ff 
   1031c:	48 c7 85 98 fe ff ff 	movq   $0xfffffffffffffff6,-0x168(%rbp)
   10323:	f6 ff ff ff 
   10327:	48 c7 85 a0 fe ff ff 	movq   $0xfffffffffffffff6,-0x160(%rbp)
   1032e:	f6 ff ff ff 
   10332:	c6 05 2f 6e 00 00 00 	movb   $0x0,0x6e2f(%rip)        # 17168 <g_455>
   10339:	eb 50                	jmp    1038b <func_47+0x786>
   1033b:	c7 85 7c fc ff ff 06 	movl   $0x6,-0x384(%rbp)
   10342:	00 00 00 
   10345:	c7 85 80 fc ff ff 15 	movl   $0x37b24e15,-0x380(%rbp)
   1034c:	4e b2 37 
   1034f:	c7 85 84 fc ff ff 88 	movl   $0x36ca2388,-0x37c(%rbp)
   10356:	23 ca 36 
   10359:	c7 85 88 fc ff ff ff 	movl   $0xffffffff,-0x378(%rbp)
   10360:	ff ff ff 
   10363:	c7 85 8c fc ff ff fd 	movl   $0xfffffffd,-0x374(%rbp)
   1036a:	ff ff ff 
   1036d:	48 8d 05 34 96 00 00 	lea    0x9634(%rip),%rax        # 199a8 <g_978>
   10374:	48 89 85 08 fd ff ff 	mov    %rax,-0x2f8(%rbp)
   1037b:	0f b6 05 e6 6d 00 00 	movzbl 0x6de6(%rip),%eax        # 17168 <g_455>
   10382:	83 c0 01             	add    $0x1,%eax
   10385:	88 05 dd 6d 00 00    	mov    %al,0x6ddd(%rip)        # 17168 <g_455>
   1038b:	0f b6 05 d6 6d 00 00 	movzbl 0x6dd6(%rip),%eax        # 17168 <g_455>
   10392:	3c 34                	cmp    $0x34,%al
   10394:	75 a5                	jne    1033b <func_47+0x736>
   10396:	eb 0c                	jmp    103a4 <func_47+0x79f>
   10398:	48 8b 85 38 fc ff ff 	mov    -0x3c8(%rbp),%rax
   1039f:	e9 ee 00 00 00       	jmpq   10492 <func_47+0x88d>
   103a4:	48 83 bd e8 fc ff ff 	cmpq   $0x0,-0x318(%rbp)
   103ab:	00 
   103ac:	0f 95 c0             	setne  %al
   103af:	0f b6 d8             	movzbl %al,%ebx
   103b2:	44 0f b7 a5 52 fc ff 	movzwl -0x3ae(%rbp),%r12d
   103b9:	ff 
   103ba:	48 8b 85 38 fc ff ff 	mov    -0x3c8(%rbp),%rax
   103c1:	89 c2                	mov    %eax,%edx
   103c3:	48 8b 85 38 fc ff ff 	mov    -0x3c8(%rbp),%rax
   103ca:	89 d6                	mov    %edx,%esi
   103cc:	89 c7                	mov    %eax,%edi
   103ce:	e8 e3 81 ff ff       	callq  85b6 <safe_add_func_int32_t_s_s>
   103d3:	83 f8 ff             	cmp    $0xffffffff,%eax
   103d6:	0f 94 c0             	sete   %al
   103d9:	0f b6 c0             	movzbl %al,%eax
   103dc:	be 03 00 00 00       	mov    $0x3,%esi
   103e1:	89 c7                	mov    %eax,%edi
   103e3:	e8 1d 88 ff ff       	callq  8c05 <safe_lshift_func_uint8_t_u_s>
   103e8:	0f be c0             	movsbl %al,%eax
   103eb:	be 01 00 00 00       	mov    $0x1,%esi
   103f0:	89 c7                	mov    %eax,%edi
   103f2:	e8 1b 7e ff ff       	callq  8212 <safe_mul_func_int8_t_s_s>
   103f7:	0f be c0             	movsbl %al,%eax
   103fa:	41 39 c4             	cmp    %eax,%r12d
   103fd:	0f 94 c0             	sete   %al
   10400:	0f b6 c0             	movzbl %al,%eax
   10403:	39 c3                	cmp    %eax,%ebx
   10405:	7c 11                	jl     10418 <func_47+0x813>
   10407:	48 8b 85 c8 fc ff ff 	mov    -0x338(%rbp),%rax
   1040e:	48 8b 00             	mov    (%rax),%rax
   10411:	48 8b 00             	mov    (%rax),%rax
   10414:	8b 00                	mov    (%rax),%eax
   10416:	85 c0                	test   %eax,%eax
   10418:	48 8b 85 38 fc ff ff 	mov    -0x3c8(%rbp),%rax
   1041f:	be 00 00 00 00       	mov    $0x0,%esi
   10424:	48 89 c7             	mov    %rax,%rdi
   10427:	e8 02 8c ff ff       	callq  902e <safe_add_func_uint64_t_u_u>
   1042c:	48 89 c2             	mov    %rax,%rdx
   1042f:	48 8b 85 b0 fc ff ff 	mov    -0x350(%rbp),%rax
   10436:	0f b6 00             	movzbl (%rax),%eax
   10439:	89 c1                	mov    %eax,%ecx
   1043b:	89 d0                	mov    %edx,%eax
   1043d:	31 c8                	xor    %ecx,%eax
   1043f:	89 c2                	mov    %eax,%edx
   10441:	48 8b 85 b0 fc ff ff 	mov    -0x350(%rbp),%rax
   10448:	88 10                	mov    %dl,(%rax)
   1044a:	48 8b 05 67 90 00 00 	mov    0x9067(%rip),%rax        # 194b8 <g_382>
   10451:	c7 00 00 00 00 00    	movl   $0x0,(%rax)
   10457:	8b 00                	mov    (%rax),%eax
   10459:	85 c0                	test   %eax,%eax
   1045b:	ba 01 00 00 00       	mov    $0x1,%edx
   10460:	48 8b 85 a0 fc ff ff 	mov    -0x360(%rbp),%rax
   10467:	48 8b 00             	mov    (%rax),%rax
   1046a:	8b 00                	mov    (%rax),%eax
   1046c:	39 c2                	cmp    %eax,%edx
   1046e:	48 8b 05 03 90 00 00 	mov    0x9003(%rip),%rax        # 19478 <g_105>
   10475:	8b 10                	mov    (%rax),%edx
   10477:	48 8b 85 f0 fc ff ff 	mov    -0x310(%rbp),%rax
   1047e:	8b 00                	mov    (%rax),%eax
   10480:	09 c2                	or     %eax,%edx
   10482:	48 8b 85 f0 fc ff ff 	mov    -0x310(%rbp),%rax
   10489:	89 10                	mov    %edx,(%rax)
   1048b:	48 8b 85 38 fc ff ff 	mov    -0x3c8(%rbp),%rax
   10492:	48 8b 5d d8          	mov    -0x28(%rbp),%rbx
   10496:	64 48 33 1c 25 28 00 	xor    %fs:0x28,%rbx
   1049d:	00 00 
   1049f:	74 05                	je     104a6 <func_47+0x8a1>
   104a1:	e8 ca 7b ff ff       	callq  8070 <__stack_chk_fail@plt>
   104a6:	48 81 c4 b8 03 00 00 	add    $0x3b8,%rsp
   104ad:	5b                   	pop    %rbx
   104ae:	41 5c                	pop    %r12
   104b0:	41 5d                	pop    %r13
   104b2:	5d                   	pop    %rbp
   104b3:	c3                   	retq   

00000000000104b4 <func_50>:
   104b4:	f3 0f 1e fa          	endbr64 
   104b8:	55                   	push   %rbp
   104b9:	48 89 e5             	mov    %rsp,%rbp
   104bc:	53                   	push   %rbx
   104bd:	48 81 ec 18 08 00 00 	sub    $0x818,%rsp
   104c4:	89 bd fc f7 ff ff    	mov    %edi,-0x804(%rbp)
   104ca:	48 89 b5 f0 f7 ff ff 	mov    %rsi,-0x810(%rbp)
   104d1:	89 d0                	mov    %edx,%eax
   104d3:	89 ca                	mov    %ecx,%edx
   104d5:	4c 89 85 e0 f7 ff ff 	mov    %r8,-0x820(%rbp)
   104dc:	66 89 85 f8 f7 ff ff 	mov    %ax,-0x808(%rbp)
   104e3:	89 d0                	mov    %edx,%eax
   104e5:	88 85 ec f7 ff ff    	mov    %al,-0x814(%rbp)
   104eb:	64 48 8b 04 25 28 00 	mov    %fs:0x28,%rax
   104f2:	00 00 
   104f4:	48 89 45 e8          	mov    %rax,-0x18(%rbp)
   104f8:	31 c0                	xor    %eax,%eax
   104fa:	48 c7 85 28 f8 ff ff 	movq   $0x0,-0x7d8(%rbp)
   10501:	00 00 00 00 
   10505:	c7 85 0c f8 ff ff 66 	movl   $0xa34cb066,-0x7f4(%rbp)
   1050c:	b0 4c a3 
   1050f:	c7 85 10 f8 ff ff 02 	movl   $0x2,-0x7f0(%rbp)
   10516:	00 00 00 
   10519:	48 8d 05 10 6c 00 00 	lea    0x6c10(%rip),%rax        # 17130 <g_144>
   10520:	48 89 85 48 f8 ff ff 	mov    %rax,-0x7b8(%rbp)
   10527:	48 8d 85 28 f8 ff ff 	lea    -0x7d8(%rbp),%rax
   1052e:	48 89 85 c0 fc ff ff 	mov    %rax,-0x340(%rbp)
   10535:	48 c7 85 c8 fc ff ff 	movq   $0x0,-0x338(%rbp)
   1053c:	00 00 00 00 
   10540:	48 c7 85 d0 fc ff ff 	movq   $0x0,-0x330(%rbp)
   10547:	00 00 00 00 
   1054b:	48 8d 85 28 f8 ff ff 	lea    -0x7d8(%rbp),%rax
   10552:	48 89 85 d8 fc ff ff 	mov    %rax,-0x328(%rbp)
   10559:	48 8d 85 28 f8 ff ff 	lea    -0x7d8(%rbp),%rax
   10560:	48 89 85 e0 fc ff ff 	mov    %rax,-0x320(%rbp)
   10567:	48 8d 85 28 f8 ff ff 	lea    -0x7d8(%rbp),%rax
   1056e:	48 89 85 e8 fc ff ff 	mov    %rax,-0x318(%rbp)
   10575:	48 8d 85 28 f8 ff ff 	lea    -0x7d8(%rbp),%rax
   1057c:	48 89 85 f0 fc ff ff 	mov    %rax,-0x310(%rbp)
   10583:	48 8d 85 28 f8 ff ff 	lea    -0x7d8(%rbp),%rax
   1058a:	48 89 85 f8 fc ff ff 	mov    %rax,-0x308(%rbp)
   10591:	48 8d 85 28 f8 ff ff 	lea    -0x7d8(%rbp),%rax
   10598:	48 89 85 00 fd ff ff 	mov    %rax,-0x300(%rbp)
   1059f:	48 8d 85 28 f8 ff ff 	lea    -0x7d8(%rbp),%rax
   105a6:	48 89 85 08 fd ff ff 	mov    %rax,-0x2f8(%rbp)
   105ad:	48 8d 85 28 f8 ff ff 	lea    -0x7d8(%rbp),%rax
   105b4:	48 89 85 10 fd ff ff 	mov    %rax,-0x2f0(%rbp)
   105bb:	48 8d 85 28 f8 ff ff 	lea    -0x7d8(%rbp),%rax
   105c2:	48 89 85 18 fd ff ff 	mov    %rax,-0x2e8(%rbp)
   105c9:	48 8d 85 28 f8 ff ff 	lea    -0x7d8(%rbp),%rax
   105d0:	48 89 85 20 fd ff ff 	mov    %rax,-0x2e0(%rbp)
   105d7:	48 8d 85 28 f8 ff ff 	lea    -0x7d8(%rbp),%rax
   105de:	48 89 85 28 fd ff ff 	mov    %rax,-0x2d8(%rbp)
   105e5:	48 8d 85 28 f8 ff ff 	lea    -0x7d8(%rbp),%rax
   105ec:	48 89 85 30 fd ff ff 	mov    %rax,-0x2d0(%rbp)
   105f3:	48 8d 85 28 f8 ff ff 	lea    -0x7d8(%rbp),%rax
   105fa:	48 89 85 38 fd ff ff 	mov    %rax,-0x2c8(%rbp)
   10601:	48 8d 85 28 f8 ff ff 	lea    -0x7d8(%rbp),%rax
   10608:	48 89 85 40 fd ff ff 	mov    %rax,-0x2c0(%rbp)
   1060f:	48 8d 85 28 f8 ff ff 	lea    -0x7d8(%rbp),%rax
   10616:	48 89 85 48 fd ff ff 	mov    %rax,-0x2b8(%rbp)
   1061d:	48 c7 85 50 fd ff ff 	movq   $0x0,-0x2b0(%rbp)
   10624:	00 00 00 00 
   10628:	48 c7 85 58 fd ff ff 	movq   $0x0,-0x2a8(%rbp)
   1062f:	00 00 00 00 
   10633:	48 8d 85 28 f8 ff ff 	lea    -0x7d8(%rbp),%rax
   1063a:	48 89 85 60 fd ff ff 	mov    %rax,-0x2a0(%rbp)
   10641:	48 8d 85 28 f8 ff ff 	lea    -0x7d8(%rbp),%rax
   10648:	48 89 85 68 fd ff ff 	mov    %rax,-0x298(%rbp)
   1064f:	48 8d 85 28 f8 ff ff 	lea    -0x7d8(%rbp),%rax
   10656:	48 89 85 70 fd ff ff 	mov    %rax,-0x290(%rbp)
   1065d:	48 c7 85 78 fd ff ff 	movq   $0x0,-0x288(%rbp)
   10664:	00 00 00 00 
   10668:	48 c7 85 80 fd ff ff 	movq   $0x0,-0x280(%rbp)
   1066f:	00 00 00 00 
   10673:	48 8d 85 28 f8 ff ff 	lea    -0x7d8(%rbp),%rax
   1067a:	48 89 85 88 fd ff ff 	mov    %rax,-0x278(%rbp)
   10681:	48 8d 85 28 f8 ff ff 	lea    -0x7d8(%rbp),%rax
   10688:	48 89 85 90 fd ff ff 	mov    %rax,-0x270(%rbp)
   1068f:	48 8d 85 28 f8 ff ff 	lea    -0x7d8(%rbp),%rax
   10696:	48 89 85 98 fd ff ff 	mov    %rax,-0x268(%rbp)
   1069d:	48 8d 85 28 f8 ff ff 	lea    -0x7d8(%rbp),%rax
   106a4:	48 89 85 a0 fd ff ff 	mov    %rax,-0x260(%rbp)
   106ab:	48 8d 85 28 f8 ff ff 	lea    -0x7d8(%rbp),%rax
   106b2:	48 89 85 a8 fd ff ff 	mov    %rax,-0x258(%rbp)
   106b9:	48 c7 85 b0 fd ff ff 	movq   $0x0,-0x250(%rbp)
   106c0:	00 00 00 00 
   106c4:	48 8d 85 28 f8 ff ff 	lea    -0x7d8(%rbp),%rax
   106cb:	48 89 85 b8 fd ff ff 	mov    %rax,-0x248(%rbp)
   106d2:	48 8d 85 28 f8 ff ff 	lea    -0x7d8(%rbp),%rax
   106d9:	48 89 85 c0 fd ff ff 	mov    %rax,-0x240(%rbp)
   106e0:	48 8d 85 28 f8 ff ff 	lea    -0x7d8(%rbp),%rax
   106e7:	48 89 85 c8 fd ff ff 	mov    %rax,-0x238(%rbp)
   106ee:	48 c7 85 d0 fd ff ff 	movq   $0x0,-0x230(%rbp)
   106f5:	00 00 00 00 
   106f9:	48 c7 85 d8 fd ff ff 	movq   $0x0,-0x228(%rbp)
   10700:	00 00 00 00 
   10704:	48 8d 85 28 f8 ff ff 	lea    -0x7d8(%rbp),%rax
   1070b:	48 89 85 e0 fd ff ff 	mov    %rax,-0x220(%rbp)
   10712:	48 8d 85 28 f8 ff ff 	lea    -0x7d8(%rbp),%rax
   10719:	48 89 85 e8 fd ff ff 	mov    %rax,-0x218(%rbp)
   10720:	48 8d 85 28 f8 ff ff 	lea    -0x7d8(%rbp),%rax
   10727:	48 89 85 f0 fd ff ff 	mov    %rax,-0x210(%rbp)
   1072e:	48 8d 85 28 f8 ff ff 	lea    -0x7d8(%rbp),%rax
   10735:	48 89 85 f8 fd ff ff 	mov    %rax,-0x208(%rbp)
   1073c:	48 8d 85 28 f8 ff ff 	lea    -0x7d8(%rbp),%rax
   10743:	48 89 85 00 fe ff ff 	mov    %rax,-0x200(%rbp)
   1074a:	48 8d 85 28 f8 ff ff 	lea    -0x7d8(%rbp),%rax
   10751:	48 89 85 08 fe ff ff 	mov    %rax,-0x1f8(%rbp)
   10758:	48 8d 85 28 f8 ff ff 	lea    -0x7d8(%rbp),%rax
   1075f:	48 89 85 10 fe ff ff 	mov    %rax,-0x1f0(%rbp)
   10766:	48 c7 85 18 fe ff ff 	movq   $0x0,-0x1e8(%rbp)
   1076d:	00 00 00 00 
   10771:	48 c7 85 20 fe ff ff 	movq   $0x0,-0x1e0(%rbp)
   10778:	00 00 00 00 
   1077c:	48 c7 85 28 fe ff ff 	movq   $0x0,-0x1d8(%rbp)
   10783:	00 00 00 00 
   10787:	48 8d 85 28 f8 ff ff 	lea    -0x7d8(%rbp),%rax
   1078e:	48 89 85 30 fe ff ff 	mov    %rax,-0x1d0(%rbp)
   10795:	48 8d 85 28 f8 ff ff 	lea    -0x7d8(%rbp),%rax
   1079c:	48 89 85 38 fe ff ff 	mov    %rax,-0x1c8(%rbp)
   107a3:	48 8d 85 28 f8 ff ff 	lea    -0x7d8(%rbp),%rax
   107aa:	48 89 85 40 fe ff ff 	mov    %rax,-0x1c0(%rbp)
   107b1:	48 8d 85 28 f8 ff ff 	lea    -0x7d8(%rbp),%rax
   107b8:	48 89 85 48 fe ff ff 	mov    %rax,-0x1b8(%rbp)
   107bf:	48 8d 85 28 f8 ff ff 	lea    -0x7d8(%rbp),%rax
   107c6:	48 89 85 50 fe ff ff 	mov    %rax,-0x1b0(%rbp)
   107cd:	48 8d 85 28 f8 ff ff 	lea    -0x7d8(%rbp),%rax
   107d4:	48 89 85 58 fe ff ff 	mov    %rax,-0x1a8(%rbp)
   107db:	48 8d 85 28 f8 ff ff 	lea    -0x7d8(%rbp),%rax
   107e2:	48 89 85 60 fe ff ff 	mov    %rax,-0x1a0(%rbp)
   107e9:	48 8d 85 28 f8 ff ff 	lea    -0x7d8(%rbp),%rax
   107f0:	48 89 85 68 fe ff ff 	mov    %rax,-0x198(%rbp)
   107f7:	48 8d 85 28 f8 ff ff 	lea    -0x7d8(%rbp),%rax
   107fe:	48 89 85 70 fe ff ff 	mov    %rax,-0x190(%rbp)
   10805:	48 8d 85 28 f8 ff ff 	lea    -0x7d8(%rbp),%rax
   1080c:	48 89 85 78 fe ff ff 	mov    %rax,-0x188(%rbp)
   10813:	48 8d 85 28 f8 ff ff 	lea    -0x7d8(%rbp),%rax
   1081a:	48 89 85 80 fe ff ff 	mov    %rax,-0x180(%rbp)
   10821:	48 8d 85 28 f8 ff ff 	lea    -0x7d8(%rbp),%rax
   10828:	48 89 85 88 fe ff ff 	mov    %rax,-0x178(%rbp)
   1082f:	48 8d 85 28 f8 ff ff 	lea    -0x7d8(%rbp),%rax
   10836:	48 89 85 90 fe ff ff 	mov    %rax,-0x170(%rbp)
   1083d:	48 8d 85 28 f8 ff ff 	lea    -0x7d8(%rbp),%rax
   10844:	48 89 85 98 fe ff ff 	mov    %rax,-0x168(%rbp)
   1084b:	48 8d 85 28 f8 ff ff 	lea    -0x7d8(%rbp),%rax
   10852:	48 89 85 a0 fe ff ff 	mov    %rax,-0x160(%rbp)
   10859:	48 8d 85 28 f8 ff ff 	lea    -0x7d8(%rbp),%rax
   10860:	48 89 85 a8 fe ff ff 	mov    %rax,-0x158(%rbp)
   10867:	48 8d 85 28 f8 ff ff 	lea    -0x7d8(%rbp),%rax
   1086e:	48 89 85 b0 fe ff ff 	mov    %rax,-0x150(%rbp)
   10875:	48 8d 85 28 f8 ff ff 	lea    -0x7d8(%rbp),%rax
   1087c:	48 89 85 b8 fe ff ff 	mov    %rax,-0x148(%rbp)
   10883:	48 8d 85 28 f8 ff ff 	lea    -0x7d8(%rbp),%rax
   1088a:	48 89 85 c0 fe ff ff 	mov    %rax,-0x140(%rbp)
   10891:	48 8d 85 28 f8 ff ff 	lea    -0x7d8(%rbp),%rax
   10898:	48 89 85 c8 fe ff ff 	mov    %rax,-0x138(%rbp)
   1089f:	48 8d 85 28 f8 ff ff 	lea    -0x7d8(%rbp),%rax
   108a6:	48 89 85 d0 fe ff ff 	mov    %rax,-0x130(%rbp)
   108ad:	48 8d 85 28 f8 ff ff 	lea    -0x7d8(%rbp),%rax
   108b4:	48 89 85 d8 fe ff ff 	mov    %rax,-0x128(%rbp)
   108bb:	48 8d 85 28 f8 ff ff 	lea    -0x7d8(%rbp),%rax
   108c2:	48 89 85 e0 fe ff ff 	mov    %rax,-0x120(%rbp)
   108c9:	48 c7 85 e8 fe ff ff 	movq   $0x0,-0x118(%rbp)
   108d0:	00 00 00 00 
   108d4:	48 c7 85 f0 fe ff ff 	movq   $0x0,-0x110(%rbp)
   108db:	00 00 00 00 
   108df:	48 c7 85 f8 fe ff ff 	movq   $0x0,-0x108(%rbp)
   108e6:	00 00 00 00 
   108ea:	48 8d 85 28 f8 ff ff 	lea    -0x7d8(%rbp),%rax
   108f1:	48 89 85 00 ff ff ff 	mov    %rax,-0x100(%rbp)
   108f8:	48 8d 85 28 f8 ff ff 	lea    -0x7d8(%rbp),%rax
   108ff:	48 89 85 08 ff ff ff 	mov    %rax,-0xf8(%rbp)
   10906:	48 8d 85 28 f8 ff ff 	lea    -0x7d8(%rbp),%rax
   1090d:	48 89 85 10 ff ff ff 	mov    %rax,-0xf0(%rbp)
   10914:	48 8d 85 28 f8 ff ff 	lea    -0x7d8(%rbp),%rax
   1091b:	48 89 85 18 ff ff ff 	mov    %rax,-0xe8(%rbp)
   10922:	48 8d 85 28 f8 ff ff 	lea    -0x7d8(%rbp),%rax
   10929:	48 89 85 20 ff ff ff 	mov    %rax,-0xe0(%rbp)
   10930:	48 8d 85 28 f8 ff ff 	lea    -0x7d8(%rbp),%rax
   10937:	48 89 85 28 ff ff ff 	mov    %rax,-0xd8(%rbp)
   1093e:	48 8d 85 28 f8 ff ff 	lea    -0x7d8(%rbp),%rax
   10945:	48 89 85 30 ff ff ff 	mov    %rax,-0xd0(%rbp)
   1094c:	48 c7 85 38 ff ff ff 	movq   $0x0,-0xc8(%rbp)
   10953:	00 00 00 00 
   10957:	48 c7 85 40 ff ff ff 	movq   $0x0,-0xc0(%rbp)
   1095e:	00 00 00 00 
   10962:	48 8d 85 28 f8 ff ff 	lea    -0x7d8(%rbp),%rax
   10969:	48 89 85 48 ff ff ff 	mov    %rax,-0xb8(%rbp)
   10970:	48 8d 85 28 f8 ff ff 	lea    -0x7d8(%rbp),%rax
   10977:	48 89 85 50 ff ff ff 	mov    %rax,-0xb0(%rbp)
   1097e:	48 8d 85 28 f8 ff ff 	lea    -0x7d8(%rbp),%rax
   10985:	48 89 85 58 ff ff ff 	mov    %rax,-0xa8(%rbp)
   1098c:	48 c7 85 60 ff ff ff 	movq   $0x0,-0xa0(%rbp)
   10993:	00 00 00 00 
   10997:	48 8d 85 28 f8 ff ff 	lea    -0x7d8(%rbp),%rax
   1099e:	48 89 85 68 ff ff ff 	mov    %rax,-0x98(%rbp)
   109a5:	48 8d 85 28 f8 ff ff 	lea    -0x7d8(%rbp),%rax
   109ac:	48 89 85 70 ff ff ff 	mov    %rax,-0x90(%rbp)
   109b3:	48 c7 85 78 ff ff ff 	movq   $0x0,-0x88(%rbp)
   109ba:	00 00 00 00 
   109be:	48 8d 85 28 f8 ff ff 	lea    -0x7d8(%rbp),%rax
   109c5:	48 89 45 80          	mov    %rax,-0x80(%rbp)
   109c9:	48 8d 85 28 f8 ff ff 	lea    -0x7d8(%rbp),%rax
   109d0:	48 89 45 88          	mov    %rax,-0x78(%rbp)
   109d4:	48 8d 85 28 f8 ff ff 	lea    -0x7d8(%rbp),%rax
   109db:	48 89 45 90          	mov    %rax,-0x70(%rbp)
   109df:	48 8d 85 28 f8 ff ff 	lea    -0x7d8(%rbp),%rax
   109e6:	48 89 45 98          	mov    %rax,-0x68(%rbp)
   109ea:	48 c7 45 a0 00 00 00 	movq   $0x0,-0x60(%rbp)
   109f1:	00 
   109f2:	48 8d 85 28 f8 ff ff 	lea    -0x7d8(%rbp),%rax
   109f9:	48 89 45 a8          	mov    %rax,-0x58(%rbp)
   109fd:	48 8d 85 28 f8 ff ff 	lea    -0x7d8(%rbp),%rax
   10a04:	48 89 45 b0          	mov    %rax,-0x50(%rbp)
   10a08:	48 8d 85 28 f8 ff ff 	lea    -0x7d8(%rbp),%rax
   10a0f:	48 89 45 b8          	mov    %rax,-0x48(%rbp)
   10a13:	48 8d 85 28 f8 ff ff 	lea    -0x7d8(%rbp),%rax
   10a1a:	48 89 45 c0          	mov    %rax,-0x40(%rbp)
   10a1e:	48 8d 85 28 f8 ff ff 	lea    -0x7d8(%rbp),%rax
   10a25:	48 89 45 c8          	mov    %rax,-0x38(%rbp)
   10a29:	48 8d 85 28 f8 ff ff 	lea    -0x7d8(%rbp),%rax
   10a30:	48 89 45 d0          	mov    %rax,-0x30(%rbp)
   10a34:	48 8d 85 28 f8 ff ff 	lea    -0x7d8(%rbp),%rax
   10a3b:	48 89 45 d8          	mov    %rax,-0x28(%rbp)
   10a3f:	48 c7 85 50 f8 ff ff 	movq   $0x0,-0x7b0(%rbp)
   10a46:	00 00 00 00 
   10a4a:	48 8d 05 e1 66 00 00 	lea    0x66e1(%rip),%rax        # 17132 <g_149>
   10a51:	48 89 85 58 f8 ff ff 	mov    %rax,-0x7a8(%rbp)
   10a58:	48 8d 05 99 66 00 00 	lea    0x6699(%rip),%rax        # 170f8 <g_75>
   10a5f:	48 89 85 60 f8 ff ff 	mov    %rax,-0x7a0(%rbp)
   10a66:	48 8d 05 4b 66 00 00 	lea    0x664b(%rip),%rax        # 170b8 <g_64+0x18>
   10a6d:	48 89 85 68 f8 ff ff 	mov    %rax,-0x798(%rbp)
   10a74:	48 8d 85 d0 f8 ff ff 	lea    -0x730(%rbp),%rax
   10a7b:	48 8d 15 de 36 00 00 	lea    0x36de(%rip),%rdx        # 14160 <g_2689+0x10fc>
   10a82:	b9 24 00 00 00       	mov    $0x24,%ecx
   10a87:	48 89 c7             	mov    %rax,%rdi
   10a8a:	48 89 d6             	mov    %rdx,%rsi
   10a8d:	f3 48 a5             	rep movsq %ds:(%rsi),%es:(%rdi)
   10a90:	48 8d 05 91 99 00 00 	lea    0x9991(%rip),%rax        # 1a428 <g_200>
   10a97:	48 89 85 70 f8 ff ff 	mov    %rax,-0x790(%rbp)
   10a9e:	c7 85 18 f8 ff ff 00 	movl   $0x0,-0x7e8(%rbp)
   10aa5:	00 00 00 
   10aa8:	48 c7 85 78 f8 ff ff 	movq   $0x0,-0x788(%rbp)
   10aaf:	00 00 00 00 
   10ab3:	c6 85 09 f8 ff ff 00 	movb   $0x0,-0x7f7(%rbp)
   10aba:	c7 85 1c f8 ff ff 49 	movl   $0x2e92f049,-0x7e4(%rbp)
   10ac1:	f0 92 2e 
   10ac4:	c7 85 14 f8 ff ff 00 	movl   $0x0,-0x7ec(%rbp)
   10acb:	00 00 00 
   10ace:	eb 1b                	jmp    10aeb <func_50+0x637>
   10ad0:	8b 85 14 f8 ff ff    	mov    -0x7ec(%rbp),%eax
   10ad6:	48 98                	cltq   
   10ad8:	48 c7 84 c5 c0 f8 ff 	movq   $0xfffffffffffffffa,-0x740(%rbp,%rax,8)
   10adf:	ff fa ff ff ff 
   10ae4:	83 85 14 f8 ff ff 01 	addl   $0x1,-0x7ec(%rbp)
   10aeb:	83 bd 14 f8 ff ff 01 	cmpl   $0x1,-0x7ec(%rbp)
   10af2:	7e dc                	jle    10ad0 <func_50+0x61c>
   10af4:	8b 85 10 f8 ff ff    	mov    -0x7f0(%rbp),%eax
   10afa:	0f be d8             	movsbl %al,%ebx
   10afd:	8b 85 10 f8 ff ff    	mov    -0x7f0(%rbp),%eax
   10b03:	48 98                	cltq   
   10b05:	25 ee f9 e9 c1       	and    $0xc1e9f9ee,%eax
   10b0a:	48 89 c2             	mov    %rax,%rdx
   10b0d:	8b 05 1d 65 00 00    	mov    0x651d(%rip),%eax        # 17030 <g_6>
   10b13:	48 98                	cltq   
   10b15:	48 89 d6             	mov    %rdx,%rsi
   10b18:	48 89 c7             	mov    %rax,%rdi
   10b1b:	e8 8f 85 ff ff       	callq  90af <safe_div_func_uint64_t_u_u>
   10b20:	8b 15 f6 65 00 00    	mov    0x65f6(%rip),%edx        # 1711c <g_140+0x1c>
   10b26:	21 d0                	and    %edx,%eax
   10b28:	89 05 ee 65 00 00    	mov    %eax,0x65ee(%rip)        # 1711c <g_140+0x1c>
   10b2e:	48 8b 85 48 f8 ff ff 	mov    -0x7b8(%rbp),%rax
   10b35:	0f b7 00             	movzwl (%rax),%eax
   10b38:	8b 15 52 65 00 00    	mov    0x6552(%rip),%edx        # 17090 <g_32>
   10b3e:	09 c2                	or     %eax,%edx
   10b40:	48 8b 85 48 f8 ff ff 	mov    -0x7b8(%rbp),%rax
   10b47:	66 89 10             	mov    %dx,(%rax)
   10b4a:	48 8b 85 48 f8 ff ff 	mov    -0x7b8(%rbp),%rax
   10b51:	0f b7 00             	movzwl (%rax),%eax
   10b54:	98                   	cwtl   
   10b55:	be 09 00 00 00       	mov    $0x9,%esi
   10b5a:	89 c7                	mov    %eax,%edi
   10b5c:	e8 72 78 ff ff       	callq  83d3 <safe_sub_func_int16_t_s_s>
   10b61:	48 c7 05 1c 89 00 00 	movq   $0x0,0x891c(%rip)        # 19488 <g_146+0x8>
   10b68:	00 00 00 00 
   10b6c:	48 8b 05 15 89 00 00 	mov    0x8915(%rip),%rax        # 19488 <g_146+0x8>
   10b73:	48 8d 15 76 65 00 00 	lea    0x6576(%rip),%rdx        # 170f0 <g_74>
   10b7a:	48 39 d0             	cmp    %rdx,%rax
   10b7d:	0f 94 c0             	sete   %al
   10b80:	0f b6 d0             	movzbl %al,%edx
   10b83:	8b 85 10 f8 ff ff    	mov    -0x7f0(%rbp),%eax
   10b89:	39 c2                	cmp    %eax,%edx
   10b8b:	0f 94 c0             	sete   %al
   10b8e:	0f b6 d0             	movzbl %al,%edx
   10b91:	8b 85 0c f8 ff ff    	mov    -0x7f4(%rbp),%eax
   10b97:	89 d6                	mov    %edx,%esi
   10b99:	89 c7                	mov    %eax,%edi
   10b9b:	e8 16 7a ff ff       	callq  85b6 <safe_add_func_int32_t_s_s>
   10ba0:	48 63 d0             	movslq %eax,%rdx
   10ba3:	48 8b 05 a6 64 00 00 	mov    0x64a6(%rip),%rax        # 17050 <g_25>
   10baa:	48 09 d0             	or     %rdx,%rax
   10bad:	48 89 c7             	mov    %rax,%rdi
   10bb0:	e8 61 7c ff ff       	callq  8816 <safe_unary_minus_func_int64_t_s>
   10bb5:	48 89 05 34 65 00 00 	mov    %rax,0x6534(%rip)        # 170f0 <g_74>
   10bbc:	48 8b 15 2d 65 00 00 	mov    0x652d(%rip),%rdx        # 170f0 <g_74>
   10bc3:	48 8b 05 86 64 00 00 	mov    0x6486(%rip),%rax        # 17050 <g_25>
   10bca:	48 39 c2             	cmp    %rax,%rdx
   10bcd:	0f 92 c0             	setb   %al
   10bd0:	0f b6 d0             	movzbl %al,%edx
   10bd3:	48 8b 85 58 f8 ff ff 	mov    -0x7a8(%rbp),%rax
   10bda:	66 89 10             	mov    %dx,(%rax)
   10bdd:	48 8b 85 60 f8 ff ff 	mov    -0x7a0(%rbp),%rax
   10be4:	c7 00 00 00 00 00    	movl   $0x0,(%rax)
   10bea:	48 8b 85 60 f8 ff ff 	mov    -0x7a0(%rbp),%rax
   10bf1:	8b 00                	mov    (%rax),%eax
   10bf3:	83 f8 02             	cmp    $0x2,%eax
   10bf6:	0f 95 c0             	setne  %al
   10bf9:	0f b6 c0             	movzbl %al,%eax
   10bfc:	be 06 00 00 00       	mov    $0x6,%esi
   10c01:	89 c7                	mov    %eax,%edi
   10c03:	e8 85 80 ff ff       	callq  8c8d <safe_rshift_func_uint8_t_u_s>
   10c08:	0f b6 d0             	movzbl %al,%edx
   10c0b:	48 8b 85 28 f8 ff ff 	mov    -0x7d8(%rbp),%rax
   10c12:	48 85 c0             	test   %rax,%rax
   10c15:	0f 94 c0             	sete   %al
   10c18:	0f b6 c0             	movzbl %al,%eax
   10c1b:	89 d6                	mov    %edx,%esi
   10c1d:	89 c7                	mov    %eax,%edi
   10c1f:	e8 bd 78 ff ff       	callq  84e1 <safe_lshift_func_int16_t_s_u>
   10c24:	0f be c0             	movsbl %al,%eax
   10c27:	be a3 ff ff ff       	mov    $0xffffffa3,%esi
   10c2c:	89 c7                	mov    %eax,%edi
   10c2e:	e8 bf 75 ff ff       	callq  81f2 <safe_sub_func_int8_t_s_s>
   10c33:	8b 95 10 f8 ff ff    	mov    -0x7f0(%rbp),%edx
   10c39:	09 d0                	or     %edx,%eax
   10c3b:	0f be c0             	movsbl %al,%eax
   10c3e:	89 de                	mov    %ebx,%esi
   10c40:	89 c7                	mov    %eax,%edi
   10c42:	e8 ea 75 ff ff       	callq  8231 <safe_mod_func_int8_t_s_s>
   10c47:	0f be d0             	movsbl %al,%edx
   10c4a:	48 8b 85 68 f8 ff ff 	mov    -0x798(%rbp),%rax
   10c51:	89 10                	mov    %edx,(%rax)
   10c53:	c7 85 10 f8 ff ff 00 	movl   $0x0,-0x7f0(%rbp)
   10c5a:	00 00 00 
   10c5d:	e9 2e 05 00 00       	jmpq   11190 <func_50+0xcdc>
   10c62:	48 c7 85 80 f8 ff ff 	movq   $0x0,-0x780(%rbp)
   10c69:	00 00 00 00 
   10c6d:	c7 85 20 f8 ff ff 4d 	movl   $0x1da5914d,-0x7e0(%rbp)
   10c74:	91 a5 1d 
   10c77:	48 8d 85 10 f8 ff ff 	lea    -0x7f0(%rbp),%rax
   10c7e:	48 89 85 30 f8 ff ff 	mov    %rax,-0x7d0(%rbp)
   10c85:	48 8d 05 a6 64 00 00 	lea    0x64a6(%rip),%rax        # 17132 <g_149>
   10c8c:	48 89 85 88 f8 ff ff 	mov    %rax,-0x778(%rbp)
   10c93:	48 8d 85 c0 f8 ff ff 	lea    -0x740(%rbp),%rax
   10c9a:	48 89 85 90 f8 ff ff 	mov    %rax,-0x770(%rbp)
   10ca1:	c7 85 24 f8 ff ff b7 	movl   $0x9eb90cb7,-0x7dc(%rbp)
   10ca8:	0c b9 9e 
   10cab:	48 8d 85 d0 f8 ff ff 	lea    -0x730(%rbp),%rax
   10cb2:	48 05 a8 00 00 00    	add    $0xa8,%rax
   10cb8:	48 89 85 98 f8 ff ff 	mov    %rax,-0x768(%rbp)
   10cbf:	48 8d 05 02 88 00 00 	lea    0x8802(%rip),%rax        # 194c8 <g_440>
   10cc6:	48 89 85 a0 f8 ff ff 	mov    %rax,-0x760(%rbp)
   10ccd:	48 8d 85 10 f8 ff ff 	lea    -0x7f0(%rbp),%rax
   10cd4:	48 89 85 38 f8 ff ff 	mov    %rax,-0x7c8(%rbp)
   10cdb:	48 8d 85 30 f8 ff ff 	lea    -0x7d0(%rbp),%rax
   10ce2:	48 89 85 f0 f9 ff ff 	mov    %rax,-0x610(%rbp)
   10ce9:	48 8d 85 30 f8 ff ff 	lea    -0x7d0(%rbp),%rax
   10cf0:	48 89 85 f8 f9 ff ff 	mov    %rax,-0x608(%rbp)
   10cf7:	48 8d 85 30 f8 ff ff 	lea    -0x7d0(%rbp),%rax
   10cfe:	48 89 85 00 fa ff ff 	mov    %rax,-0x600(%rbp)
   10d05:	48 c7 85 08 fa ff ff 	movq   $0x0,-0x5f8(%rbp)
   10d0c:	00 00 00 00 
   10d10:	48 c7 85 10 fa ff ff 	movq   $0x0,-0x5f0(%rbp)
   10d17:	00 00 00 00 
   10d1b:	48 8d 85 30 f8 ff ff 	lea    -0x7d0(%rbp),%rax
   10d22:	48 89 85 18 fa ff ff 	mov    %rax,-0x5e8(%rbp)
   10d29:	48 c7 85 20 fa ff ff 	movq   $0x0,-0x5e0(%rbp)
   10d30:	00 00 00 00 
   10d34:	48 c7 85 28 fa ff ff 	movq   $0x0,-0x5d8(%rbp)
   10d3b:	00 00 00 00 
   10d3f:	48 8d 85 30 f8 ff ff 	lea    -0x7d0(%rbp),%rax
   10d46:	48 89 85 30 fa ff ff 	mov    %rax,-0x5d0(%rbp)
   10d4d:	48 c7 85 38 fa ff ff 	movq   $0x0,-0x5c8(%rbp)
   10d54:	00 00 00 00 
   10d58:	48 c7 85 40 fa ff ff 	movq   $0x0,-0x5c0(%rbp)
   10d5f:	00 00 00 00 
   10d63:	48 8d 85 30 f8 ff ff 	lea    -0x7d0(%rbp),%rax
   10d6a:	48 89 85 48 fa ff ff 	mov    %rax,-0x5b8(%rbp)
   10d71:	48 8d 85 30 f8 ff ff 	lea    -0x7d0(%rbp),%rax
   10d78:	48 89 85 50 fa ff ff 	mov    %rax,-0x5b0(%rbp)
   10d7f:	48 c7 85 58 fa ff ff 	movq   $0x0,-0x5a8(%rbp)
   10d86:	00 00 00 00 
   10d8a:	48 8d 85 30 f8 ff ff 	lea    -0x7d0(%rbp),%rax
   10d91:	48 89 85 60 fa ff ff 	mov    %rax,-0x5a0(%rbp)
   10d98:	48 8d 85 30 f8 ff ff 	lea    -0x7d0(%rbp),%rax
   10d9f:	48 89 85 68 fa ff ff 	mov    %rax,-0x598(%rbp)
   10da6:	48 8d 85 30 f8 ff ff 	lea    -0x7d0(%rbp),%rax
   10dad:	48 89 85 70 fa ff ff 	mov    %rax,-0x590(%rbp)
   10db4:	48 8d 85 30 f8 ff ff 	lea    -0x7d0(%rbp),%rax
   10dbb:	48 89 85 78 fa ff ff 	mov    %rax,-0x588(%rbp)
   10dc2:	48 c7 85 80 fa ff ff 	movq   $0x0,-0x580(%rbp)
   10dc9:	00 00 00 00 
   10dcd:	48 c7 85 88 fa ff ff 	movq   $0x0,-0x578(%rbp)
   10dd4:	00 00 00 00 
   10dd8:	48 8d 85 30 f8 ff ff 	lea    -0x7d0(%rbp),%rax
   10ddf:	48 89 85 90 fa ff ff 	mov    %rax,-0x570(%rbp)
   10de6:	48 c7 85 98 fa ff ff 	movq   $0x0,-0x568(%rbp)
   10ded:	00 00 00 00 
   10df1:	48 c7 85 a0 fa ff ff 	movq   $0x0,-0x560(%rbp)
   10df8:	00 00 00 00 
   10dfc:	48 8d 85 30 f8 ff ff 	lea    -0x7d0(%rbp),%rax
   10e03:	48 89 85 a8 fa ff ff 	mov    %rax,-0x558(%rbp)
   10e0a:	48 c7 85 b0 fa ff ff 	movq   $0x0,-0x550(%rbp)
   10e11:	00 00 00 00 
   10e15:	48 c7 85 b8 fa ff ff 	movq   $0x0,-0x548(%rbp)
   10e1c:	00 00 00 00 
   10e20:	48 8d 85 30 f8 ff ff 	lea    -0x7d0(%rbp),%rax
   10e27:	48 89 85 c0 fa ff ff 	mov    %rax,-0x540(%rbp)
   10e2e:	48 8d 85 30 f8 ff ff 	lea    -0x7d0(%rbp),%rax
   10e35:	48 89 85 c8 fa ff ff 	mov    %rax,-0x538(%rbp)
   10e3c:	48 c7 85 d0 fa ff ff 	movq   $0x0,-0x530(%rbp)
   10e43:	00 00 00 00 
   10e47:	48 8d 85 30 f8 ff ff 	lea    -0x7d0(%rbp),%rax
   10e4e:	48 89 85 d8 fa ff ff 	mov    %rax,-0x528(%rbp)
   10e55:	48 8d 85 30 f8 ff ff 	lea    -0x7d0(%rbp),%rax
   10e5c:	48 89 85 e0 fa ff ff 	mov    %rax,-0x520(%rbp)
   10e63:	48 8d 85 30 f8 ff ff 	lea    -0x7d0(%rbp),%rax
   10e6a:	48 89 85 e8 fa ff ff 	mov    %rax,-0x518(%rbp)
   10e71:	48 8d 85 30 f8 ff ff 	lea    -0x7d0(%rbp),%rax
   10e78:	48 89 85 f0 fa ff ff 	mov    %rax,-0x510(%rbp)
   10e7f:	48 c7 85 f8 fa ff ff 	movq   $0x0,-0x508(%rbp)
   10e86:	00 00 00 00 
   10e8a:	48 c7 85 00 fb ff ff 	movq   $0x0,-0x500(%rbp)
   10e91:	00 00 00 00 
   10e95:	48 8d 85 30 f8 ff ff 	lea    -0x7d0(%rbp),%rax
   10e9c:	48 89 85 08 fb ff ff 	mov    %rax,-0x4f8(%rbp)
   10ea3:	48 c7 85 10 fb ff ff 	movq   $0x0,-0x4f0(%rbp)
   10eaa:	00 00 00 00 
   10eae:	48 c7 85 18 fb ff ff 	movq   $0x0,-0x4e8(%rbp)
   10eb5:	00 00 00 00 
   10eb9:	48 8d 85 30 f8 ff ff 	lea    -0x7d0(%rbp),%rax
   10ec0:	48 89 85 20 fb ff ff 	mov    %rax,-0x4e0(%rbp)
   10ec7:	48 c7 85 28 fb ff ff 	movq   $0x0,-0x4d8(%rbp)
   10ece:	00 00 00 00 
   10ed2:	48 c7 85 30 fb ff ff 	movq   $0x0,-0x4d0(%rbp)
   10ed9:	00 00 00 00 
   10edd:	48 8d 85 30 f8 ff ff 	lea    -0x7d0(%rbp),%rax
   10ee4:	48 89 85 38 fb ff ff 	mov    %rax,-0x4c8(%rbp)
   10eeb:	48 8d 85 30 f8 ff ff 	lea    -0x7d0(%rbp),%rax
   10ef2:	48 89 85 40 fb ff ff 	mov    %rax,-0x4c0(%rbp)
   10ef9:	48 c7 85 48 fb ff ff 	movq   $0x0,-0x4b8(%rbp)
   10f00:	00 00 00 00 
   10f04:	48 8d 85 30 f8 ff ff 	lea    -0x7d0(%rbp),%rax
   10f0b:	48 89 85 50 fb ff ff 	mov    %rax,-0x4b0(%rbp)
   10f12:	48 8d 85 30 f8 ff ff 	lea    -0x7d0(%rbp),%rax
   10f19:	48 89 85 58 fb ff ff 	mov    %rax,-0x4a8(%rbp)
   10f20:	48 8d 85 30 f8 ff ff 	lea    -0x7d0(%rbp),%rax
   10f27:	48 89 85 60 fb ff ff 	mov    %rax,-0x4a0(%rbp)
   10f2e:	48 8d 85 30 f8 ff ff 	lea    -0x7d0(%rbp),%rax
   10f35:	48 89 85 68 fb ff ff 	mov    %rax,-0x498(%rbp)
   10f3c:	48 8d 85 38 f8 ff ff 	lea    -0x7c8(%rbp),%rax
   10f43:	48 89 85 70 fb ff ff 	mov    %rax,-0x490(%rbp)
   10f4a:	48 c7 85 78 fb ff ff 	movq   $0x0,-0x488(%rbp)
   10f51:	00 00 00 00 
   10f55:	48 c7 85 80 fb ff ff 	movq   $0x0,-0x480(%rbp)
   10f5c:	00 00 00 00 
   10f60:	48 c7 85 88 fb ff ff 	movq   $0x0,-0x478(%rbp)
   10f67:	00 00 00 00 
   10f6b:	48 8d 85 38 f8 ff ff 	lea    -0x7c8(%rbp),%rax
   10f72:	48 89 85 90 fb ff ff 	mov    %rax,-0x470(%rbp)
   10f79:	48 c7 85 98 fb ff ff 	movq   $0x0,-0x468(%rbp)
   10f80:	00 00 00 00 
   10f84:	48 8d 85 38 f8 ff ff 	lea    -0x7c8(%rbp),%rax
   10f8b:	48 89 85 a0 fb ff ff 	mov    %rax,-0x460(%rbp)
   10f92:	48 8d 85 38 f8 ff ff 	lea    -0x7c8(%rbp),%rax
   10f99:	48 89 85 a8 fb ff ff 	mov    %rax,-0x458(%rbp)
   10fa0:	48 c7 85 b0 fb ff ff 	movq   $0x0,-0x450(%rbp)
   10fa7:	00 00 00 00 
   10fab:	48 8d 85 38 f8 ff ff 	lea    -0x7c8(%rbp),%rax
   10fb2:	48 89 85 b8 fb ff ff 	mov    %rax,-0x448(%rbp)
   10fb9:	48 c7 85 c0 fb ff ff 	movq   $0x0,-0x440(%rbp)
   10fc0:	00 00 00 00 
   10fc4:	48 c7 85 c8 fb ff ff 	movq   $0x0,-0x438(%rbp)
   10fcb:	00 00 00 00 
   10fcf:	48 8d 85 38 f8 ff ff 	lea    -0x7c8(%rbp),%rax
   10fd6:	48 89 85 d0 fb ff ff 	mov    %rax,-0x430(%rbp)
   10fdd:	48 8d 85 38 f8 ff ff 	lea    -0x7c8(%rbp),%rax
   10fe4:	48 89 85 d8 fb ff ff 	mov    %rax,-0x428(%rbp)
   10feb:	48 c7 85 e0 fb ff ff 	movq   $0x0,-0x420(%rbp)
   10ff2:	00 00 00 00 
   10ff6:	48 8d 85 38 f8 ff ff 	lea    -0x7c8(%rbp),%rax
   10ffd:	48 89 85 e8 fb ff ff 	mov    %rax,-0x418(%rbp)
   11004:	48 c7 85 f0 fb ff ff 	movq   $0x0,-0x410(%rbp)
   1100b:	00 00 00 00 
   1100f:	48 c7 85 f8 fb ff ff 	movq   $0x0,-0x408(%rbp)
   11016:	00 00 00 00 
   1101a:	48 c7 85 00 fc ff ff 	movq   $0x0,-0x400(%rbp)
   11021:	00 00 00 00 
   11025:	48 8d 85 38 f8 ff ff 	lea    -0x7c8(%rbp),%rax
   1102c:	48 89 85 08 fc ff ff 	mov    %rax,-0x3f8(%rbp)
   11033:	48 c7 85 10 fc ff ff 	movq   $0x0,-0x3f0(%rbp)
   1103a:	00 00 00 00 
   1103e:	48 8d 85 38 f8 ff ff 	lea    -0x7c8(%rbp),%rax
   11045:	48 89 85 18 fc ff ff 	mov    %rax,-0x3e8(%rbp)
   1104c:	48 8d 85 38 f8 ff ff 	lea    -0x7c8(%rbp),%rax
   11053:	48 89 85 20 fc ff ff 	mov    %rax,-0x3e0(%rbp)
   1105a:	48 c7 85 28 fc ff ff 	movq   $0x0,-0x3d8(%rbp)
   11061:	00 00 00 00 
   11065:	48 8d 85 38 f8 ff ff 	lea    -0x7c8(%rbp),%rax
   1106c:	48 89 85 30 fc ff ff 	mov    %rax,-0x3d0(%rbp)
   11073:	48 c7 85 38 fc ff ff 	movq   $0x0,-0x3c8(%rbp)
   1107a:	00 00 00 00 
   1107e:	48 c7 85 40 fc ff ff 	movq   $0x0,-0x3c0(%rbp)
   11085:	00 00 00 00 
   11089:	48 8d 85 38 f8 ff ff 	lea    -0x7c8(%rbp),%rax
   11090:	48 89 85 48 fc ff ff 	mov    %rax,-0x3b8(%rbp)
   11097:	48 8d 85 38 f8 ff ff 	lea    -0x7c8(%rbp),%rax
   1109e:	48 89 85 50 fc ff ff 	mov    %rax,-0x3b0(%rbp)
   110a5:	48 c7 85 58 fc ff ff 	movq   $0x0,-0x3a8(%rbp)
   110ac:	00 00 00 00 
   110b0:	48 8d 85 38 f8 ff ff 	lea    -0x7c8(%rbp),%rax
   110b7:	48 89 85 60 fc ff ff 	mov    %rax,-0x3a0(%rbp)
   110be:	48 c7 85 68 fc ff ff 	movq   $0x0,-0x398(%rbp)
   110c5:	00 00 00 00 
   110c9:	48 c7 85 70 fc ff ff 	movq   $0x0,-0x390(%rbp)
   110d0:	00 00 00 00 
   110d4:	48 c7 85 78 fc ff ff 	movq   $0x0,-0x388(%rbp)
   110db:	00 00 00 00 
   110df:	48 8d 85 38 f8 ff ff 	lea    -0x7c8(%rbp),%rax
   110e6:	48 89 85 80 fc ff ff 	mov    %rax,-0x380(%rbp)
   110ed:	48 c7 85 88 fc ff ff 	movq   $0x0,-0x378(%rbp)
   110f4:	00 00 00 00 
   110f8:	48 8d 85 38 f8 ff ff 	lea    -0x7c8(%rbp),%rax
   110ff:	48 89 85 90 fc ff ff 	mov    %rax,-0x370(%rbp)
   11106:	48 8d 85 38 f8 ff ff 	lea    -0x7c8(%rbp),%rax
   1110d:	48 89 85 98 fc ff ff 	mov    %rax,-0x368(%rbp)
   11114:	48 c7 85 a0 fc ff ff 	movq   $0x0,-0x360(%rbp)
   1111b:	00 00 00 00 
   1111f:	48 8d 85 38 f8 ff ff 	lea    -0x7c8(%rbp),%rax
   11126:	48 89 85 a8 fc ff ff 	mov    %rax,-0x358(%rbp)
   1112d:	48 c7 85 b0 fc ff ff 	movq   $0x0,-0x350(%rbp)
   11134:	00 00 00 00 
   11138:	48 c7 85 b8 fc ff ff 	movq   $0x0,-0x348(%rbp)
   1113f:	00 00 00 00 
   11143:	48 c7 85 a8 f8 ff ff 	movq   $0x0,-0x758(%rbp)
   1114a:	00 00 00 00 
   1114e:	48 8d 85 0c f8 ff ff 	lea    -0x7f4(%rbp),%rax
   11155:	48 89 85 b0 f8 ff ff 	mov    %rax,-0x750(%rbp)
   1115c:	66 c7 85 0a f8 ff ff 	movw   $0x1,-0x7f6(%rbp)
   11163:	01 00 
   11165:	48 8d 05 ec 5f 00 00 	lea    0x5fec(%rip),%rax        # 17158 <g_374>
   1116c:	48 89 85 40 f8 ff ff 	mov    %rax,-0x7c0(%rbp)
   11173:	48 8d 85 40 f8 ff ff 	lea    -0x7c0(%rbp),%rax
   1117a:	48 89 85 b8 f8 ff ff 	mov    %rax,-0x748(%rbp)
   11181:	8b 85 10 f8 ff ff    	mov    -0x7f0(%rbp),%eax
   11187:	83 c0 01             	add    $0x1,%eax
   1118a:	89 85 10 f8 ff ff    	mov    %eax,-0x7f0(%rbp)
   11190:	8b 85 10 f8 ff ff    	mov    -0x7f0(%rbp),%eax
   11196:	83 f8 01             	cmp    $0x1,%eax
   11199:	0f 8e c3 fa ff ff    	jle    10c62 <func_50+0x7ae>
   1119f:	0f b7 85 f8 f7 ff ff 	movzwl -0x808(%rbp),%eax
   111a6:	48 8b 5d e8          	mov    -0x18(%rbp),%rbx
   111aa:	64 48 33 1c 25 28 00 	xor    %fs:0x28,%rbx
   111b1:	00 00 
   111b3:	74 05                	je     111ba <func_50+0xd06>
   111b5:	e8 b6 6e ff ff       	callq  8070 <__stack_chk_fail@plt>
   111ba:	48 81 c4 18 08 00 00 	add    $0x818,%rsp
   111c1:	5b                   	pop    %rbx
   111c2:	5d                   	pop    %rbp
   111c3:	c3                   	retq   

00000000000111c4 <func_56>:
   111c4:	f3 0f 1e fa          	endbr64 
   111c8:	55                   	push   %rbp
   111c9:	48 89 e5             	mov    %rsp,%rbp
   111cc:	53                   	push   %rbx
   111cd:	48 81 ec 88 03 00 00 	sub    $0x388,%rsp
   111d4:	89 bd 7c fc ff ff    	mov    %edi,-0x384(%rbp)
   111da:	89 f0                	mov    %esi,%eax
   111dc:	89 95 74 fc ff ff    	mov    %edx,-0x38c(%rbp)
   111e2:	89 8d 70 fc ff ff    	mov    %ecx,-0x390(%rbp)
   111e8:	88 85 78 fc ff ff    	mov    %al,-0x388(%rbp)
   111ee:	64 48 8b 04 25 28 00 	mov    %fs:0x28,%rax
   111f5:	00 00 
   111f7:	48 89 45 e8          	mov    %rax,-0x18(%rbp)
   111fb:	31 c0                	xor    %eax,%eax
   111fd:	48 8d 85 e0 fd ff ff 	lea    -0x220(%rbp),%rax
   11204:	48 8d 15 15 80 00 00 	lea    0x8015(%rip),%rdx        # 19220 <g_2888+0x1e70>
   1120b:	b9 40 00 00 00       	mov    $0x40,%ecx
   11210:	48 89 c7             	mov    %rax,%rdi
   11213:	48 89 d6             	mov    %rdx,%rsi
   11216:	f3 48 a5             	rep movsq %ds:(%rsi),%es:(%rdi)
   11219:	48 8d 05 78 5e 00 00 	lea    0x5e78(%rip),%rax        # 17098 <g_34>
   11220:	48 89 85 a0 fc ff ff 	mov    %rax,-0x360(%rbp)
   11227:	48 8d 05 62 5e 00 00 	lea    0x5e62(%rip),%rax        # 17090 <g_32>
   1122e:	48 89 85 98 fc ff ff 	mov    %rax,-0x368(%rbp)
   11235:	c7 85 8c fc ff ff 00 	movl   $0x0,-0x374(%rbp)
   1123c:	00 00 00 
   1123f:	eb 25                	jmp    11266 <func_56+0xa2>
   11241:	8b 85 8c fc ff ff    	mov    -0x374(%rbp),%eax
   11247:	48 98                	cltq   
   11249:	48 8d 95 e0 fd ff ff 	lea    -0x220(%rbp),%rdx
   11250:	48 81 c2 c8 01 00 00 	add    $0x1c8,%rdx
   11257:	48 89 94 c5 d0 fc ff 	mov    %rdx,-0x330(%rbp,%rax,8)
   1125e:	ff 
   1125f:	83 85 8c fc ff ff 01 	addl   $0x1,-0x374(%rbp)
   11266:	83 bd 8c fc ff ff 02 	cmpl   $0x2,-0x374(%rbp)
   1126d:	7e d2                	jle    11241 <func_56+0x7d>
   1126f:	90                   	nop
   11270:	81 bd 7c fc ff ff fe 	cmpl   $0xfe,-0x384(%rbp)
   11277:	00 00 00 
   1127a:	0f 96 c0             	setbe  %al
   1127d:	0f b6 d0             	movzbl %al,%edx
   11280:	8b 05 26 5e 00 00    	mov    0x5e26(%rip),%eax        # 170ac <g_64+0xc>
   11286:	98                   	cwtl   
   11287:	89 d6                	mov    %edx,%esi
   11289:	89 c7                	mov    %eax,%edi
   1128b:	e8 02 72 ff ff       	callq  8492 <safe_lshift_func_int16_t_s_s>
   11290:	98                   	cwtl   
   11291:	89 85 74 fc ff ff    	mov    %eax,-0x38c(%rbp)
   11297:	c7 85 7c fc ff ff 00 	movl   $0x0,-0x384(%rbp)
   1129e:	00 00 00 
   112a1:	e9 72 04 00 00       	jmpq   11718 <func_56+0x554>
   112a6:	48 8d 05 43 5e 00 00 	lea    0x5e43(%rip),%rax        # 170f0 <g_74>
   112ad:	48 89 85 a8 fc ff ff 	mov    %rax,-0x358(%rbp)
   112b4:	c7 85 90 fc ff ff ff 	movl   $0xffffffff,-0x370(%rbp)
   112bb:	ff ff ff 
   112be:	48 8d 05 f3 5d 00 00 	lea    0x5df3(%rip),%rax        # 170b8 <g_64+0x18>
   112c5:	48 89 85 b0 fc ff ff 	mov    %rax,-0x350(%rbp)
   112cc:	48 83 bd a0 fc ff ff 	cmpq   $0x0,-0x360(%rbp)
   112d3:	00 
   112d4:	0f 94 c0             	sete   %al
   112d7:	0f b6 c0             	movzbl %al,%eax
   112da:	f7 d0                	not    %eax
   112dc:	89 85 74 fc ff ff    	mov    %eax,-0x38c(%rbp)
   112e2:	83 bd 7c fc ff ff 00 	cmpl   $0x0,-0x384(%rbp)
   112e9:	74 2d                	je     11318 <func_56+0x154>
   112eb:	48 8d 05 fe 5d 00 00 	lea    0x5dfe(%rip),%rax        # 170f0 <g_74>
   112f2:	48 89 85 c0 fc ff ff 	mov    %rax,-0x340(%rbp)
   112f9:	48 8b 85 a8 fc ff ff 	mov    -0x358(%rbp),%rax
   11300:	48 3b 85 c0 fc ff ff 	cmp    -0x340(%rbp),%rax
   11307:	0f 95 c0             	setne  %al
   1130a:	0f b6 c0             	movzbl %al,%eax
   1130d:	89 85 90 fc ff ff    	mov    %eax,-0x370(%rbp)
   11313:	e9 eb 00 00 00       	jmpq   11403 <func_56+0x23f>
   11318:	48 b8 c0 54 23 9c c9 	movabs $0x225765c99c2354c0,%rax
   1131f:	65 57 22 
   11322:	48 89 85 b8 fc ff ff 	mov    %rax,-0x348(%rbp)
   11329:	c7 85 94 fc ff ff 03 	movl   $0x3,-0x36c(%rbp)
   11330:	00 00 00 
   11333:	8b 05 57 5d 00 00    	mov    0x5d57(%rip),%eax        # 17090 <g_32>
   11339:	98                   	cwtl   
   1133a:	89 c6                	mov    %eax,%esi
   1133c:	bf b4 36 00 00       	mov    $0x36b4,%edi
   11341:	e8 8d 70 ff ff       	callq  83d3 <safe_sub_func_int16_t_s_s>
   11346:	8b 85 7c fc ff ff    	mov    -0x384(%rbp),%eax
   1134c:	35 2c 46 00 00       	xor    $0x462c,%eax
   11351:	89 85 90 fc ff ff    	mov    %eax,-0x370(%rbp)
   11357:	48 8b 05 fa 80 00 00 	mov    0x80fa(%rip),%rax        # 19458 <g_90+0x18>
   1135e:	48 8d 15 bb 80 00 00 	lea    0x80bb(%rip),%rdx        # 19420 <g_91>
   11365:	48 39 d0             	cmp    %rdx,%rax
   11368:	74 5f                	je     113c9 <func_56+0x205>
   1136a:	8b 85 70 fc ff ff    	mov    -0x390(%rbp),%eax
   11370:	0f be d8             	movsbl %al,%ebx
   11373:	8b 85 7c fc ff ff    	mov    -0x384(%rbp),%eax
   11379:	0f b7 d0             	movzwl %ax,%edx
   1137c:	8b 85 74 fc ff ff    	mov    -0x38c(%rbp),%eax
   11382:	0f b7 c0             	movzwl %ax,%eax
   11385:	89 d6                	mov    %edx,%esi
   11387:	89 c7                	mov    %eax,%edi
   11389:	e8 ce 79 ff ff       	callq  8d5c <safe_mod_func_uint16_t_u_u>
   1138e:	0f be c0             	movsbl %al,%eax
   11391:	89 de                	mov    %ebx,%esi
   11393:	89 c7                	mov    %eax,%edi
   11395:	e8 78 6e ff ff       	callq  8212 <safe_mul_func_int8_t_s_s>
   1139a:	0f be c0             	movsbl %al,%eax
   1139d:	89 85 94 fc ff ff    	mov    %eax,-0x36c(%rbp)
   113a3:	8b 85 94 fc ff ff    	mov    -0x36c(%rbp),%eax
   113a9:	0f b7 c0             	movzwl %ax,%eax
   113ac:	8b 95 70 fc ff ff    	mov    -0x390(%rbp),%edx
   113b2:	89 d6                	mov    %edx,%esi
   113b4:	89 c7                	mov    %eax,%edi
   113b6:	e8 bf 7a ff ff       	callq  8e7a <safe_rshift_func_uint16_t_u_u>
   113bb:	0f b7 c0             	movzwl %ax,%eax
   113be:	48 23 85 b8 fc ff ff 	and    -0x348(%rbp),%rax
   113c5:	48 83 f8 01          	cmp    $0x1,%rax
   113c9:	8b 85 90 fc ff ff    	mov    -0x370(%rbp),%eax
   113cf:	39 85 70 fc ff ff    	cmp    %eax,-0x390(%rbp)
   113d5:	0f 96 c0             	setbe  %al
   113d8:	0f b6 c0             	movzbl %al,%eax
   113db:	be 05 00 00 00       	mov    $0x5,%esi
   113e0:	89 c7                	mov    %eax,%edi
   113e2:	e8 ba 6e ff ff       	callq  82a1 <safe_lshift_func_int8_t_s_s>
   113e7:	48 83 bd a8 fc ff ff 	cmpq   $0x0,-0x358(%rbp)
   113ee:	00 
   113ef:	0f 94 c0             	sete   %al
   113f2:	0f b6 d0             	movzbl %al,%edx
   113f5:	8b 05 bd 5c 00 00    	mov    0x5cbd(%rip),%eax        # 170b8 <g_64+0x18>
   113fb:	09 d0                	or     %edx,%eax
   113fd:	89 05 b5 5c 00 00    	mov    %eax,0x5cb5(%rip)        # 170b8 <g_64+0x18>
   11403:	48 c7 05 e2 5c 00 00 	movq   $0x0,0x5ce2(%rip)        # 170f0 <g_74>
   1140a:	00 00 00 00 
   1140e:	e9 c8 02 00 00       	jmpq   116db <func_56+0x517>
   11413:	48 8d 85 e0 fd ff ff 	lea    -0x220(%rbp),%rax
   1141a:	48 05 18 01 00 00    	add    $0x118,%rax
   11420:	48 89 85 f0 fc ff ff 	mov    %rax,-0x310(%rbp)
   11427:	48 8d 85 e0 fd ff ff 	lea    -0x220(%rbp),%rax
   1142e:	48 05 18 01 00 00    	add    $0x118,%rax
   11434:	48 89 85 f8 fc ff ff 	mov    %rax,-0x308(%rbp)
   1143b:	48 8d 85 e0 fd ff ff 	lea    -0x220(%rbp),%rax
   11442:	48 05 b8 00 00 00    	add    $0xb8,%rax
   11448:	48 89 85 00 fd ff ff 	mov    %rax,-0x300(%rbp)
   1144f:	48 8d 85 e0 fd ff ff 	lea    -0x220(%rbp),%rax
   11456:	48 05 c8 01 00 00    	add    $0x1c8,%rax
   1145c:	48 89 85 08 fd ff ff 	mov    %rax,-0x2f8(%rbp)
   11463:	48 c7 85 10 fd ff ff 	movq   $0x0,-0x2f0(%rbp)
   1146a:	00 00 00 00 
   1146e:	48 8d 85 98 fc ff ff 	lea    -0x368(%rbp),%rax
   11475:	48 89 85 18 fd ff ff 	mov    %rax,-0x2e8(%rbp)
   1147c:	48 8d 85 e0 fd ff ff 	lea    -0x220(%rbp),%rax
   11483:	48 89 85 20 fd ff ff 	mov    %rax,-0x2e0(%rbp)
   1148a:	48 8d 85 e0 fd ff ff 	lea    -0x220(%rbp),%rax
   11491:	48 89 85 28 fd ff ff 	mov    %rax,-0x2d8(%rbp)
   11498:	48 8d 85 98 fc ff ff 	lea    -0x368(%rbp),%rax
   1149f:	48 89 85 30 fd ff ff 	mov    %rax,-0x2d0(%rbp)
   114a6:	48 8d 85 98 fc ff ff 	lea    -0x368(%rbp),%rax
   114ad:	48 89 85 38 fd ff ff 	mov    %rax,-0x2c8(%rbp)
   114b4:	48 8d 85 98 fc ff ff 	lea    -0x368(%rbp),%rax
   114bb:	48 89 85 40 fd ff ff 	mov    %rax,-0x2c0(%rbp)
   114c2:	48 8d 85 e0 fd ff ff 	lea    -0x220(%rbp),%rax
   114c9:	48 05 c8 01 00 00    	add    $0x1c8,%rax
   114cf:	48 89 85 48 fd ff ff 	mov    %rax,-0x2b8(%rbp)
   114d6:	48 8d 85 e0 fd ff ff 	lea    -0x220(%rbp),%rax
   114dd:	48 05 48 01 00 00    	add    $0x148,%rax
   114e3:	48 89 85 50 fd ff ff 	mov    %rax,-0x2b0(%rbp)
   114ea:	48 8d 85 e0 fd ff ff 	lea    -0x220(%rbp),%rax
   114f1:	48 05 48 01 00 00    	add    $0x148,%rax
   114f7:	48 89 85 58 fd ff ff 	mov    %rax,-0x2a8(%rbp)
   114fe:	48 8d 85 e0 fd ff ff 	lea    -0x220(%rbp),%rax
   11505:	48 05 c8 01 00 00    	add    $0x1c8,%rax
   1150b:	48 89 85 60 fd ff ff 	mov    %rax,-0x2a0(%rbp)
   11512:	48 8d 85 98 fc ff ff 	lea    -0x368(%rbp),%rax
   11519:	48 89 85 68 fd ff ff 	mov    %rax,-0x298(%rbp)
   11520:	48 8d 85 e0 fd ff ff 	lea    -0x220(%rbp),%rax
   11527:	48 89 85 70 fd ff ff 	mov    %rax,-0x290(%rbp)
   1152e:	48 8d 85 e0 fd ff ff 	lea    -0x220(%rbp),%rax
   11535:	48 05 c8 01 00 00    	add    $0x1c8,%rax
   1153b:	48 89 85 78 fd ff ff 	mov    %rax,-0x288(%rbp)
   11542:	48 8d 85 e0 fd ff ff 	lea    -0x220(%rbp),%rax
   11549:	48 05 c8 01 00 00    	add    $0x1c8,%rax
   1154f:	48 89 85 80 fd ff ff 	mov    %rax,-0x280(%rbp)
   11556:	48 8d 85 e0 fd ff ff 	lea    -0x220(%rbp),%rax
   1155d:	48 05 c8 01 00 00    	add    $0x1c8,%rax
   11563:	48 89 85 88 fd ff ff 	mov    %rax,-0x278(%rbp)
   1156a:	48 8d 85 e0 fd ff ff 	lea    -0x220(%rbp),%rax
   11571:	48 05 c8 01 00 00    	add    $0x1c8,%rax
   11577:	48 89 85 90 fd ff ff 	mov    %rax,-0x270(%rbp)
   1157e:	48 8d 85 e0 fd ff ff 	lea    -0x220(%rbp),%rax
   11585:	48 05 18 01 00 00    	add    $0x118,%rax
   1158b:	48 89 85 98 fd ff ff 	mov    %rax,-0x268(%rbp)
   11592:	48 8d 85 e0 fd ff ff 	lea    -0x220(%rbp),%rax
   11599:	48 05 c8 01 00 00    	add    $0x1c8,%rax
   1159f:	48 89 85 a0 fd ff ff 	mov    %rax,-0x260(%rbp)
   115a6:	48 8d 85 e0 fd ff ff 	lea    -0x220(%rbp),%rax
   115ad:	48 05 48 01 00 00    	add    $0x148,%rax
   115b3:	48 89 85 a8 fd ff ff 	mov    %rax,-0x258(%rbp)
   115ba:	48 8d 85 e0 fd ff ff 	lea    -0x220(%rbp),%rax
   115c1:	48 05 b8 00 00 00    	add    $0xb8,%rax
   115c7:	48 89 85 b0 fd ff ff 	mov    %rax,-0x250(%rbp)
   115ce:	48 c7 85 b8 fd ff ff 	movq   $0x0,-0x248(%rbp)
   115d5:	00 00 00 00 
   115d9:	48 8d 85 98 fc ff ff 	lea    -0x368(%rbp),%rax
   115e0:	48 89 85 c0 fd ff ff 	mov    %rax,-0x240(%rbp)
   115e7:	48 8d 85 e0 fd ff ff 	lea    -0x220(%rbp),%rax
   115ee:	48 05 c8 01 00 00    	add    $0x1c8,%rax
   115f4:	48 89 85 c8 fd ff ff 	mov    %rax,-0x238(%rbp)
   115fb:	48 8d 85 98 fc ff ff 	lea    -0x368(%rbp),%rax
   11602:	48 89 85 d0 fd ff ff 	mov    %rax,-0x230(%rbp)
   11609:	48 c7 85 d8 fd ff ff 	movq   $0x0,-0x228(%rbp)
   11610:	00 00 00 00 
   11614:	48 8d 05 35 5a 00 00 	lea    0x5a35(%rip),%rax        # 17050 <g_25>
   1161b:	48 89 85 c8 fc ff ff 	mov    %rax,-0x338(%rbp)
   11622:	48 8b 85 98 fc ff ff 	mov    -0x368(%rbp),%rax
   11629:	48 89 05 48 7e 00 00 	mov    %rax,0x7e48(%rip)        # 19478 <g_105>
   11630:	48 8b 85 b0 fc ff ff 	mov    -0x350(%rbp),%rax
   11637:	8b 00                	mov    (%rax),%eax
   11639:	0f bf d0             	movswl %ax,%edx
   1163c:	48 83 bd b0 fc ff ff 	cmpq   $0x0,-0x350(%rbp)
   11643:	00 
   11644:	0f 95 c0             	setne  %al
   11647:	0f b6 c0             	movzbl %al,%eax
   1164a:	89 d6                	mov    %edx,%esi
   1164c:	89 c7                	mov    %eax,%edi
   1164e:	e8 02 6e ff ff       	callq  8455 <safe_div_func_int16_t_s_s>
   11653:	0f bf d0             	movswl %ax,%edx
   11656:	48 8b 85 b0 fc ff ff 	mov    -0x350(%rbp),%rax
   1165d:	89 10                	mov    %edx,(%rax)
   1165f:	8b 05 93 5a 00 00    	mov    0x5a93(%rip),%eax        # 170f8 <g_75>
   11665:	89 c1                	mov    %eax,%ecx
   11667:	0f be 95 78 fc ff ff 	movsbl -0x388(%rbp),%edx
   1166e:	48 8b 05 03 7e 00 00 	mov    0x7e03(%rip),%rax        # 19478 <g_105>
   11675:	8b 00                	mov    (%rax),%eax
   11677:	39 c2                	cmp    %eax,%edx
   11679:	0f 9f c0             	setg   %al
   1167c:	0f b6 c0             	movzbl %al,%eax
   1167f:	89 ce                	mov    %ecx,%esi
   11681:	89 c7                	mov    %eax,%edi
   11683:	e8 7d 75 ff ff       	callq  8c05 <safe_lshift_func_uint8_t_u_s>
   11688:	0f b6 c0             	movzbl %al,%eax
   1168b:	be 01 00 00 00       	mov    $0x1,%esi
   11690:	48 89 c7             	mov    %rax,%rdi
   11693:	e8 1c 73 ff ff       	callq  89b4 <safe_mod_func_int64_t_s_s>
   11698:	8b 05 9e 59 00 00    	mov    0x599e(%rip),%eax        # 1703c <g_6+0xc>
   1169e:	85 c0                	test   %eax,%eax
   116a0:	74 07                	je     116a9 <func_56+0x4e5>
   116a2:	b8 01 00 00 00       	mov    $0x1,%eax
   116a7:	eb 05                	jmp    116ae <func_56+0x4ea>
   116a9:	b8 00 00 00 00       	mov    $0x0,%eax
   116ae:	be 03 00 00 00       	mov    $0x3,%esi
   116b3:	89 c7                	mov    %eax,%edi
   116b5:	e8 fc 6e ff ff       	callq  85b6 <safe_add_func_int32_t_s_s>
   116ba:	21 85 90 fc ff ff    	and    %eax,-0x370(%rbp)
   116c0:	48 8b 05 29 5a 00 00 	mov    0x5a29(%rip),%rax        # 170f0 <g_74>
   116c7:	be 04 00 00 00       	mov    $0x4,%esi
   116cc:	48 89 c7             	mov    %rax,%rdi
   116cf:	e8 6d 71 ff ff       	callq  8841 <safe_add_func_int64_t_s_s>
   116d4:	48 89 05 15 5a 00 00 	mov    %rax,0x5a15(%rip)        # 170f0 <g_74>
   116db:	48 8b 05 0e 5a 00 00 	mov    0x5a0e(%rip),%rax        # 170f0 <g_74>
   116e2:	48 83 f8 34          	cmp    $0x34,%rax
   116e6:	0f 86 27 fd ff ff    	jbe    11413 <func_56+0x24f>
   116ec:	83 bd 90 fc ff ff 00 	cmpl   $0x0,-0x370(%rbp)
   116f3:	74 05                	je     116fa <func_56+0x536>
   116f5:	e9 76 fb ff ff       	jmpq   11270 <func_56+0xac>
   116fa:	8b 85 7c fc ff ff    	mov    -0x384(%rbp),%eax
   11700:	0f b6 c0             	movzbl %al,%eax
   11703:	be 01 00 00 00       	mov    $0x1,%esi
   11708:	89 c7                	mov    %eax,%edi
   1170a:	e8 4b 74 ff ff       	callq  8b5a <safe_add_func_uint8_t_u_u>
   1170f:	0f b6 c0             	movzbl %al,%eax
   11712:	89 85 7c fc ff ff    	mov    %eax,-0x384(%rbp)
   11718:	83 bd 7c fc ff ff 07 	cmpl   $0x7,-0x384(%rbp)
   1171f:	0f 86 81 fb ff ff    	jbe    112a6 <func_56+0xe2>
   11725:	48 8b 85 98 fc ff ff 	mov    -0x368(%rbp),%rax
   1172c:	48 89 05 45 7d 00 00 	mov    %rax,0x7d45(%rip)        # 19478 <g_105>
   11733:	48 8b 05 3e 7d 00 00 	mov    0x7d3e(%rip),%rax        # 19478 <g_105>
   1173a:	8b 00                	mov    (%rax),%eax
   1173c:	48 8b 5d e8          	mov    -0x18(%rbp),%rbx
   11740:	64 48 33 1c 25 28 00 	xor    %fs:0x28,%rbx
   11747:	00 00 
   11749:	74 05                	je     11750 <func_56+0x58c>
   1174b:	e8 20 69 ff ff       	callq  8070 <__stack_chk_fail@plt>
   11750:	48 81 c4 88 03 00 00 	add    $0x388,%rsp
   11757:	5b                   	pop    %rbx
   11758:	5d                   	pop    %rbp
   11759:	c3                   	retq   

000000000001175a <main>:
   1175a:	f3 0f 1e fa          	endbr64 
   1175e:	55                   	push   %rbp
   1175f:	48 89 e5             	mov    %rsp,%rbp
   11762:	48 83 ec 20          	sub    $0x20,%rsp
   11766:	89 7d ec             	mov    %edi,-0x14(%rbp)
   11769:	48 89 75 e0          	mov    %rsi,-0x20(%rbp)
   1176d:	c7 45 fc 00 00 00 00 	movl   $0x0,-0x4(%rbp)
   11774:	83 7d ec 02          	cmpl   $0x2,-0x14(%rbp)
   11778:	75 25                	jne    1179f <main+0x45>
   1177a:	48 8b 45 e0          	mov    -0x20(%rbp),%rax
   1177e:	48 83 c0 08          	add    $0x8,%rax
   11782:	48 8b 00             	mov    (%rax),%rax
   11785:	48 8d 35 f4 2a 00 00 	lea    0x2af4(%rip),%rsi        # 14280 <g_2689+0x121c>
   1178c:	48 89 c7             	mov    %rax,%rdi
   1178f:	e8 fc 68 ff ff       	callq  8090 <strcmp@plt>
   11794:	85 c0                	test   %eax,%eax
   11796:	75 07                	jne    1179f <main+0x45>
   11798:	c7 45 fc 01 00 00 00 	movl   $0x1,-0x4(%rbp)
   1179f:	e8 e5 69 ff ff       	callq  8189 <platform_main_begin>
   117a4:	e8 ef 7d ff ff       	callq  9598 <crc32_gentab>
   117a9:	e8 07 80 ff ff       	callq  97b5 <func_1>
   117ae:	8b 05 70 58 00 00    	mov    0x5870(%rip),%eax        # 17024 <g_3>
   117b4:	48 98                	cltq   
   117b6:	8b 55 fc             	mov    -0x4(%rbp),%edx
   117b9:	48 8d 35 c2 2a 00 00 	lea    0x2ac2(%rip),%rsi        # 14282 <g_2689+0x121e>
   117c0:	48 89 c7             	mov    %rax,%rdi
   117c3:	e8 2b 7f ff ff       	callq  96f3 <transparent_crc>
   117c8:	8b 05 5a 58 00 00    	mov    0x585a(%rip),%eax        # 17028 <g_4>
   117ce:	48 98                	cltq   
   117d0:	8b 55 fc             	mov    -0x4(%rbp),%edx
   117d3:	48 8d 35 ac 2a 00 00 	lea    0x2aac(%rip),%rsi        # 14286 <g_2689+0x1222>
   117da:	48 89 c7             	mov    %rax,%rdi
   117dd:	e8 11 7f ff ff       	callq  96f3 <transparent_crc>
   117e2:	8b 05 44 58 00 00    	mov    0x5844(%rip),%eax        # 1702c <g_5>
   117e8:	48 98                	cltq   
   117ea:	8b 55 fc             	mov    -0x4(%rbp),%edx
   117ed:	48 8d 35 96 2a 00 00 	lea    0x2a96(%rip),%rsi        # 1428a <g_2689+0x1226>
   117f4:	48 89 c7             	mov    %rax,%rdi
   117f7:	e8 f7 7e ff ff       	callq  96f3 <transparent_crc>
   117fc:	c7 45 f0 00 00 00 00 	movl   $0x0,-0x10(%rbp)
   11803:	eb 4b                	jmp    11850 <main+0xf6>
   11805:	8b 45 f0             	mov    -0x10(%rbp),%eax
   11808:	48 98                	cltq   
   1180a:	48 8d 14 85 00 00 00 	lea    0x0(,%rax,4),%rdx
   11811:	00 
   11812:	48 8d 05 17 58 00 00 	lea    0x5817(%rip),%rax        # 17030 <g_6>
   11819:	8b 04 02             	mov    (%rdx,%rax,1),%eax
   1181c:	48 98                	cltq   
   1181e:	8b 55 fc             	mov    -0x4(%rbp),%edx
   11821:	48 8d 35 66 2a 00 00 	lea    0x2a66(%rip),%rsi        # 1428e <g_2689+0x122a>
   11828:	48 89 c7             	mov    %rax,%rdi
   1182b:	e8 c3 7e ff ff       	callq  96f3 <transparent_crc>
   11830:	83 7d fc 00          	cmpl   $0x0,-0x4(%rbp)
   11834:	74 16                	je     1184c <main+0xf2>
   11836:	8b 45 f0             	mov    -0x10(%rbp),%eax
   11839:	89 c6                	mov    %eax,%esi
   1183b:	48 8d 3d 53 2a 00 00 	lea    0x2a53(%rip),%rdi        # 14295 <g_2689+0x1231>
   11842:	b8 00 00 00 00       	mov    $0x0,%eax
   11847:	e8 34 68 ff ff       	callq  8080 <printf@plt>
   1184c:	83 45 f0 01          	addl   $0x1,-0x10(%rbp)
   11850:	83 7d f0 06          	cmpl   $0x6,-0x10(%rbp)
   11854:	7e af                	jle    11805 <main+0xab>
   11856:	48 8b 05 f3 57 00 00 	mov    0x57f3(%rip),%rax        # 17050 <g_25>
   1185d:	8b 55 fc             	mov    -0x4(%rbp),%edx
   11860:	48 8d 35 3c 2a 00 00 	lea    0x2a3c(%rip),%rsi        # 142a3 <g_2689+0x123f>
   11867:	48 89 c7             	mov    %rax,%rdi
   1186a:	e8 84 7e ff ff       	callq  96f3 <transparent_crc>
   1186f:	c7 45 f0 00 00 00 00 	movl   $0x0,-0x10(%rbp)
   11876:	eb 4b                	jmp    118c3 <main+0x169>
   11878:	8b 45 f0             	mov    -0x10(%rbp),%eax
   1187b:	48 98                	cltq   
   1187d:	48 8d 14 85 00 00 00 	lea    0x0(,%rax,4),%rdx
   11884:	00 
   11885:	48 8d 05 d4 57 00 00 	lea    0x57d4(%rip),%rax        # 17060 <g_29>
   1188c:	8b 04 02             	mov    (%rdx,%rax,1),%eax
   1188f:	48 98                	cltq   
   11891:	8b 55 fc             	mov    -0x4(%rbp),%edx
   11894:	48 8d 35 0d 2a 00 00 	lea    0x2a0d(%rip),%rsi        # 142a8 <g_2689+0x1244>
   1189b:	48 89 c7             	mov    %rax,%rdi
   1189e:	e8 50 7e ff ff       	callq  96f3 <transparent_crc>
   118a3:	83 7d fc 00          	cmpl   $0x0,-0x4(%rbp)
   118a7:	74 16                	je     118bf <main+0x165>
   118a9:	8b 45 f0             	mov    -0x10(%rbp),%eax
   118ac:	89 c6                	mov    %eax,%esi
   118ae:	48 8d 3d e0 29 00 00 	lea    0x29e0(%rip),%rdi        # 14295 <g_2689+0x1231>
   118b5:	b8 00 00 00 00       	mov    $0x0,%eax
   118ba:	e8 c1 67 ff ff       	callq  8080 <printf@plt>
   118bf:	83 45 f0 01          	addl   $0x1,-0x10(%rbp)
   118c3:	83 7d f0 09          	cmpl   $0x9,-0x10(%rbp)
   118c7:	7e af                	jle    11878 <main+0x11e>
   118c9:	8b 05 b9 57 00 00    	mov    0x57b9(%rip),%eax        # 17088 <g_30>
   118cf:	48 98                	cltq   
   118d1:	8b 55 fc             	mov    -0x4(%rbp),%edx
   118d4:	48 8d 35 d5 29 00 00 	lea    0x29d5(%rip),%rsi        # 142b0 <g_2689+0x124c>
   118db:	48 89 c7             	mov    %rax,%rdi
   118de:	e8 10 7e ff ff       	callq  96f3 <transparent_crc>
   118e3:	8b 05 a3 57 00 00    	mov    0x57a3(%rip),%eax        # 1708c <g_31>
   118e9:	48 98                	cltq   
   118eb:	8b 55 fc             	mov    -0x4(%rbp),%edx
   118ee:	48 8d 35 c0 29 00 00 	lea    0x29c0(%rip),%rsi        # 142b5 <g_2689+0x1251>
   118f5:	48 89 c7             	mov    %rax,%rdi
   118f8:	e8 f6 7d ff ff       	callq  96f3 <transparent_crc>
   118fd:	8b 05 8d 57 00 00    	mov    0x578d(%rip),%eax        # 17090 <g_32>
   11903:	48 98                	cltq   
   11905:	8b 55 fc             	mov    -0x4(%rbp),%edx
   11908:	48 8d 35 ab 29 00 00 	lea    0x29ab(%rip),%rsi        # 142ba <g_2689+0x1256>
   1190f:	48 89 c7             	mov    %rax,%rdi
   11912:	e8 dc 7d ff ff       	callq  96f3 <transparent_crc>
   11917:	8b 05 77 57 00 00    	mov    0x5777(%rip),%eax        # 17094 <g_33>
   1191d:	48 98                	cltq   
   1191f:	8b 55 fc             	mov    -0x4(%rbp),%edx
   11922:	48 8d 35 96 29 00 00 	lea    0x2996(%rip),%rsi        # 142bf <g_2689+0x125b>
   11929:	48 89 c7             	mov    %rax,%rdi
   1192c:	e8 c2 7d ff ff       	callq  96f3 <transparent_crc>
   11931:	8b 05 61 57 00 00    	mov    0x5761(%rip),%eax        # 17098 <g_34>
   11937:	48 98                	cltq   
   11939:	8b 55 fc             	mov    -0x4(%rbp),%edx
   1193c:	48 8d 35 81 29 00 00 	lea    0x2981(%rip),%rsi        # 142c4 <g_2689+0x1260>
   11943:	48 89 c7             	mov    %rax,%rdi
   11946:	e8 a8 7d ff ff       	callq  96f3 <transparent_crc>
   1194b:	c7 45 f0 00 00 00 00 	movl   $0x0,-0x10(%rbp)
   11952:	eb 6d                	jmp    119c1 <main+0x267>
   11954:	c7 45 f4 00 00 00 00 	movl   $0x0,-0xc(%rbp)
   1195b:	eb 5a                	jmp    119b7 <main+0x25d>
   1195d:	8b 45 f4             	mov    -0xc(%rbp),%eax
   11960:	48 98                	cltq   
   11962:	8b 55 f0             	mov    -0x10(%rbp),%edx
   11965:	48 63 d2             	movslq %edx,%rdx
   11968:	48 01 d2             	add    %rdx,%rdx
   1196b:	48 01 d0             	add    %rdx,%rax
   1196e:	48 8d 14 85 00 00 00 	lea    0x0(,%rax,4),%rdx
   11975:	00 
   11976:	48 8d 05 23 57 00 00 	lea    0x5723(%rip),%rax        # 170a0 <g_64>
   1197d:	8b 04 02             	mov    (%rdx,%rax,1),%eax
   11980:	48 98                	cltq   
   11982:	8b 55 fc             	mov    -0x4(%rbp),%edx
   11985:	48 8d 35 3d 29 00 00 	lea    0x293d(%rip),%rsi        # 142c9 <g_2689+0x1265>
   1198c:	48 89 c7             	mov    %rax,%rdi
   1198f:	e8 5f 7d ff ff       	callq  96f3 <transparent_crc>
   11994:	83 7d fc 00          	cmpl   $0x0,-0x4(%rbp)
   11998:	74 19                	je     119b3 <main+0x259>
   1199a:	8b 55 f4             	mov    -0xc(%rbp),%edx
   1199d:	8b 45 f0             	mov    -0x10(%rbp),%eax
   119a0:	89 c6                	mov    %eax,%esi
   119a2:	48 8d 3d 2b 29 00 00 	lea    0x292b(%rip),%rdi        # 142d4 <g_2689+0x1270>
   119a9:	b8 00 00 00 00       	mov    $0x0,%eax
   119ae:	e8 cd 66 ff ff       	callq  8080 <printf@plt>
   119b3:	83 45 f4 01          	addl   $0x1,-0xc(%rbp)
   119b7:	83 7d f4 01          	cmpl   $0x1,-0xc(%rbp)
   119bb:	7e a0                	jle    1195d <main+0x203>
   119bd:	83 45 f0 01          	addl   $0x1,-0x10(%rbp)
   119c1:	83 7d f0 09          	cmpl   $0x9,-0x10(%rbp)
   119c5:	7e 8d                	jle    11954 <main+0x1fa>
   119c7:	48 8b 05 22 57 00 00 	mov    0x5722(%rip),%rax        # 170f0 <g_74>
   119ce:	8b 55 fc             	mov    -0x4(%rbp),%edx
   119d1:	48 8d 35 0e 29 00 00 	lea    0x290e(%rip),%rsi        # 142e6 <g_2689+0x1282>
   119d8:	48 89 c7             	mov    %rax,%rdi
   119db:	e8 13 7d ff ff       	callq  96f3 <transparent_crc>
   119e0:	8b 05 12 57 00 00    	mov    0x5712(%rip),%eax        # 170f8 <g_75>
   119e6:	89 c1                	mov    %eax,%ecx
   119e8:	8b 45 fc             	mov    -0x4(%rbp),%eax
   119eb:	89 c2                	mov    %eax,%edx
   119ed:	48 8d 35 f7 28 00 00 	lea    0x28f7(%rip),%rsi        # 142eb <g_2689+0x1287>
   119f4:	48 89 cf             	mov    %rcx,%rdi
   119f7:	e8 f7 7c ff ff       	callq  96f3 <transparent_crc>
   119fc:	8b 05 fa 56 00 00    	mov    0x56fa(%rip),%eax        # 170fc <g_92>
   11a02:	48 98                	cltq   
   11a04:	8b 55 fc             	mov    -0x4(%rbp),%edx
   11a07:	48 8d 35 e2 28 00 00 	lea    0x28e2(%rip),%rsi        # 142f0 <g_2689+0x128c>
   11a0e:	48 89 c7             	mov    %rax,%rdi
   11a11:	e8 dd 7c ff ff       	callq  96f3 <transparent_crc>
   11a16:	c7 45 f0 00 00 00 00 	movl   $0x0,-0x10(%rbp)
   11a1d:	e9 b9 00 00 00       	jmpq   11adb <main+0x381>
   11a22:	c7 45 f4 00 00 00 00 	movl   $0x0,-0xc(%rbp)
   11a29:	e9 9f 00 00 00       	jmpq   11acd <main+0x373>
   11a2e:	c7 45 f8 00 00 00 00 	movl   $0x0,-0x8(%rbp)
   11a35:	e9 85 00 00 00       	jmpq   11abf <main+0x365>
   11a3a:	8b 45 f8             	mov    -0x8(%rbp),%eax
   11a3d:	48 63 f0             	movslq %eax,%rsi
   11a40:	8b 45 f0             	mov    -0x10(%rbp),%eax
   11a43:	48 98                	cltq   
   11a45:	8b 55 f4             	mov    -0xc(%rbp),%edx
   11a48:	48 63 ca             	movslq %edx,%rcx
   11a4b:	48 89 c2             	mov    %rax,%rdx
   11a4e:	48 01 d2             	add    %rdx,%rdx
   11a51:	48 01 c2             	add    %rax,%rdx
   11a54:	48 8d 04 95 00 00 00 	lea    0x0(,%rdx,4),%rax
   11a5b:	00 
   11a5c:	48 89 c2             	mov    %rax,%rdx
   11a5f:	48 89 c8             	mov    %rcx,%rax
   11a62:	48 01 c0             	add    %rax,%rax
   11a65:	48 01 c8             	add    %rcx,%rax
   11a68:	48 01 c0             	add    %rax,%rax
   11a6b:	48 01 d0             	add    %rdx,%rax
   11a6e:	48 01 f0             	add    %rsi,%rax
   11a71:	48 8d 14 85 00 00 00 	lea    0x0(,%rax,4),%rdx
   11a78:	00 
   11a79:	48 8d 05 80 56 00 00 	lea    0x5680(%rip),%rax        # 17100 <g_140>
   11a80:	8b 04 02             	mov    (%rdx,%rax,1),%eax
   11a83:	89 c1                	mov    %eax,%ecx
   11a85:	8b 45 fc             	mov    -0x4(%rbp),%eax
   11a88:	89 c2                	mov    %eax,%edx
   11a8a:	48 8d 35 64 28 00 00 	lea    0x2864(%rip),%rsi        # 142f5 <g_2689+0x1291>
   11a91:	48 89 cf             	mov    %rcx,%rdi
   11a94:	e8 5a 7c ff ff       	callq  96f3 <transparent_crc>
   11a99:	83 7d fc 00          	cmpl   $0x0,-0x4(%rbp)
   11a9d:	74 1c                	je     11abb <main+0x361>
   11a9f:	8b 4d f8             	mov    -0x8(%rbp),%ecx
   11aa2:	8b 55 f4             	mov    -0xc(%rbp),%edx
   11aa5:	8b 45 f0             	mov    -0x10(%rbp),%eax
   11aa8:	89 c6                	mov    %eax,%esi
   11aaa:	48 8d 3d 53 28 00 00 	lea    0x2853(%rip),%rdi        # 14304 <g_2689+0x12a0>
   11ab1:	b8 00 00 00 00       	mov    $0x0,%eax
   11ab6:	e8 c5 65 ff ff       	callq  8080 <printf@plt>
   11abb:	83 45 f8 01          	addl   $0x1,-0x8(%rbp)
   11abf:	83 7d f8 05          	cmpl   $0x5,-0x8(%rbp)
   11ac3:	0f 8e 71 ff ff ff    	jle    11a3a <main+0x2e0>
   11ac9:	83 45 f4 01          	addl   $0x1,-0xc(%rbp)
   11acd:	83 7d f4 01          	cmpl   $0x1,-0xc(%rbp)
   11ad1:	0f 8e 57 ff ff ff    	jle    11a2e <main+0x2d4>
   11ad7:	83 45 f0 01          	addl   $0x1,-0x10(%rbp)
   11adb:	83 7d f0 00          	cmpl   $0x0,-0x10(%rbp)
   11adf:	0f 8e 3d ff ff ff    	jle    11a22 <main+0x2c8>
   11ae5:	0f b7 05 44 56 00 00 	movzwl 0x5644(%rip),%eax        # 17130 <g_144>
   11aec:	48 0f bf c0          	movswq %ax,%rax
   11af0:	8b 55 fc             	mov    -0x4(%rbp),%edx
   11af3:	48 8d 35 20 28 00 00 	lea    0x2820(%rip),%rsi        # 1431a <g_2689+0x12b6>
   11afa:	48 89 c7             	mov    %rax,%rdi
   11afd:	e8 f1 7b ff ff       	callq  96f3 <transparent_crc>
   11b02:	c7 45 f0 00 00 00 00 	movl   $0x0,-0x10(%rbp)
   11b09:	eb 4a                	jmp    11b55 <main+0x3fb>
   11b0b:	8b 45 f0             	mov    -0x10(%rbp),%eax
   11b0e:	48 98                	cltq   
   11b10:	48 8d 14 00          	lea    (%rax,%rax,1),%rdx
   11b14:	48 8d 05 17 56 00 00 	lea    0x5617(%rip),%rax        # 17132 <g_149>
   11b1b:	0f b7 04 02          	movzwl (%rdx,%rax,1),%eax
   11b1f:	48 0f bf c0          	movswq %ax,%rax
   11b23:	8b 55 fc             	mov    -0x4(%rbp),%edx
   11b26:	48 8d 35 f3 27 00 00 	lea    0x27f3(%rip),%rsi        # 14320 <g_2689+0x12bc>
   11b2d:	48 89 c7             	mov    %rax,%rdi
   11b30:	e8 be 7b ff ff       	callq  96f3 <transparent_crc>
   11b35:	83 7d fc 00          	cmpl   $0x0,-0x4(%rbp)
   11b39:	74 16                	je     11b51 <main+0x3f7>
   11b3b:	8b 45 f0             	mov    -0x10(%rbp),%eax
   11b3e:	89 c6                	mov    %eax,%esi
   11b40:	48 8d 3d 4e 27 00 00 	lea    0x274e(%rip),%rdi        # 14295 <g_2689+0x1231>
   11b47:	b8 00 00 00 00       	mov    $0x0,%eax
   11b4c:	e8 2f 65 ff ff       	callq  8080 <printf@plt>
   11b51:	83 45 f0 01          	addl   $0x1,-0x10(%rbp)
   11b55:	83 7d f0 00          	cmpl   $0x0,-0x10(%rbp)
   11b59:	7e b0                	jle    11b0b <main+0x3b1>
   11b5b:	0f b6 05 d2 55 00 00 	movzbl 0x55d2(%rip),%eax        # 17134 <g_156>
   11b62:	0f b6 c0             	movzbl %al,%eax
   11b65:	8b 55 fc             	mov    -0x4(%rbp),%edx
   11b68:	48 8d 35 ba 27 00 00 	lea    0x27ba(%rip),%rsi        # 14329 <g_2689+0x12c5>
   11b6f:	48 89 c7             	mov    %rax,%rdi
   11b72:	e8 7c 7b ff ff       	callq  96f3 <transparent_crc>
   11b77:	48 8b 05 ba 55 00 00 	mov    0x55ba(%rip),%rax        # 17138 <g_186>
   11b7e:	48 89 c1             	mov    %rax,%rcx
   11b81:	8b 45 fc             	mov    -0x4(%rbp),%eax
   11b84:	89 c2                	mov    %eax,%edx
   11b86:	48 8d 35 a5 27 00 00 	lea    0x27a5(%rip),%rsi        # 14332 <g_2689+0x12ce>
   11b8d:	48 89 cf             	mov    %rcx,%rdi
   11b90:	e8 5e 7b ff ff       	callq  96f3 <transparent_crc>
   11b95:	0f b6 05 a4 55 00 00 	movzbl 0x55a4(%rip),%eax        # 17140 <g_199>
   11b9c:	0f b6 c0             	movzbl %al,%eax
   11b9f:	8b 55 fc             	mov    -0x4(%rbp),%edx
   11ba2:	48 8d 35 8f 27 00 00 	lea    0x278f(%rip),%rsi        # 14338 <g_2689+0x12d4>
   11ba9:	48 89 c7             	mov    %rax,%rdi
   11bac:	e8 42 7b ff ff       	callq  96f3 <transparent_crc>
   11bb1:	0f b6 05 8c 55 00 00 	movzbl 0x558c(%rip),%eax        # 17144 <g_242>
   11bb8:	0f b6 c0             	movzbl %al,%eax
   11bbb:	8b 55 fc             	mov    -0x4(%rbp),%edx
   11bbe:	48 8d 35 7c 27 00 00 	lea    0x277c(%rip),%rsi        # 14341 <g_2689+0x12dd>
   11bc5:	48 89 c7             	mov    %rax,%rdi
   11bc8:	e8 26 7b ff ff       	callq  96f3 <transparent_crc>
   11bcd:	8b 05 75 55 00 00    	mov    0x5575(%rip),%eax        # 17148 <g_283>
   11bd3:	48 98                	cltq   
   11bd5:	8b 55 fc             	mov    -0x4(%rbp),%edx
   11bd8:	48 8d 35 68 27 00 00 	lea    0x2768(%rip),%rsi        # 14347 <g_2689+0x12e3>
   11bdf:	48 89 c7             	mov    %rax,%rdi
   11be2:	e8 0c 7b ff ff       	callq  96f3 <transparent_crc>
   11be7:	48 8b 05 62 55 00 00 	mov    0x5562(%rip),%rax        # 17150 <g_332>
   11bee:	8b 55 fc             	mov    -0x4(%rbp),%edx
   11bf1:	48 8d 35 55 27 00 00 	lea    0x2755(%rip),%rsi        # 1434d <g_2689+0x12e9>
   11bf8:	48 89 c7             	mov    %rax,%rdi
   11bfb:	e8 f3 7a ff ff       	callq  96f3 <transparent_crc>
   11c00:	0f b7 05 51 55 00 00 	movzwl 0x5551(%rip),%eax        # 17158 <g_374>
   11c07:	0f b7 c0             	movzwl %ax,%eax
   11c0a:	8b 55 fc             	mov    -0x4(%rbp),%edx
   11c0d:	48 8d 35 3f 27 00 00 	lea    0x273f(%rip),%rsi        # 14353 <g_2689+0x12ef>
   11c14:	48 89 c7             	mov    %rax,%rdi
   11c17:	e8 d7 7a ff ff       	callq  96f3 <transparent_crc>
   11c1c:	0f b6 05 37 55 00 00 	movzbl 0x5537(%rip),%eax        # 1715a <g_396>
   11c23:	48 0f be c0          	movsbq %al,%rax
   11c27:	8b 55 fc             	mov    -0x4(%rbp),%edx
   11c2a:	48 8d 35 28 27 00 00 	lea    0x2728(%rip),%rsi        # 14359 <g_2689+0x12f5>
   11c31:	48 89 c7             	mov    %rax,%rdi
   11c34:	e8 ba 7a ff ff       	callq  96f3 <transparent_crc>
   11c39:	48 8b 05 20 55 00 00 	mov    0x5520(%rip),%rax        # 17160 <g_421>
   11c40:	48 89 c1             	mov    %rax,%rcx
   11c43:	8b 45 fc             	mov    -0x4(%rbp),%eax
   11c46:	89 c2                	mov    %eax,%edx
   11c48:	48 8d 35 10 27 00 00 	lea    0x2710(%rip),%rsi        # 1435f <g_2689+0x12fb>
   11c4f:	48 89 cf             	mov    %rcx,%rdi
   11c52:	e8 9c 7a ff ff       	callq  96f3 <transparent_crc>
   11c57:	0f b6 05 0a 55 00 00 	movzbl 0x550a(%rip),%eax        # 17168 <g_455>
   11c5e:	0f b6 c0             	movzbl %al,%eax
   11c61:	8b 55 fc             	mov    -0x4(%rbp),%edx
   11c64:	48 8d 35 fa 26 00 00 	lea    0x26fa(%rip),%rsi        # 14365 <g_2689+0x1301>
   11c6b:	48 89 c7             	mov    %rax,%rdi
   11c6e:	e8 80 7a ff ff       	callq  96f3 <transparent_crc>
   11c73:	c7 45 f0 00 00 00 00 	movl   $0x0,-0x10(%rbp)
   11c7a:	eb 4b                	jmp    11cc7 <main+0x56d>
   11c7c:	8b 45 f0             	mov    -0x10(%rbp),%eax
   11c7f:	48 98                	cltq   
   11c81:	48 8d 14 85 00 00 00 	lea    0x0(,%rax,4),%rdx
   11c88:	00 
   11c89:	48 8d 05 e0 54 00 00 	lea    0x54e0(%rip),%rax        # 17170 <g_495>
   11c90:	8b 04 02             	mov    (%rdx,%rax,1),%eax
   11c93:	48 98                	cltq   
   11c95:	8b 55 fc             	mov    -0x4(%rbp),%edx
   11c98:	48 8d 35 cf 26 00 00 	lea    0x26cf(%rip),%rsi        # 1436e <g_2689+0x130a>
   11c9f:	48 89 c7             	mov    %rax,%rdi
   11ca2:	e8 4c 7a ff ff       	callq  96f3 <transparent_crc>
   11ca7:	83 7d fc 00          	cmpl   $0x0,-0x4(%rbp)
   11cab:	74 16                	je     11cc3 <main+0x569>
   11cad:	8b 45 f0             	mov    -0x10(%rbp),%eax
   11cb0:	89 c6                	mov    %eax,%esi
   11cb2:	48 8d 3d dc 25 00 00 	lea    0x25dc(%rip),%rdi        # 14295 <g_2689+0x1231>
   11cb9:	b8 00 00 00 00       	mov    $0x0,%eax
   11cbe:	e8 bd 63 ff ff       	callq  8080 <printf@plt>
   11cc3:	83 45 f0 01          	addl   $0x1,-0x10(%rbp)
   11cc7:	83 7d f0 04          	cmpl   $0x4,-0x10(%rbp)
   11ccb:	7e af                	jle    11c7c <main+0x522>
   11ccd:	0f b7 05 5c 87 00 00 	movzwl 0x875c(%rip),%eax        # 1a430 <g_544>
   11cd4:	48 0f bf c0          	movswq %ax,%rax
   11cd8:	8b 55 fc             	mov    -0x4(%rbp),%edx
   11cdb:	48 8d 35 95 26 00 00 	lea    0x2695(%rip),%rsi        # 14377 <g_2689+0x1313>
   11ce2:	48 89 c7             	mov    %rax,%rdi
   11ce5:	e8 09 7a ff ff       	callq  96f3 <transparent_crc>
   11cea:	c7 45 f0 00 00 00 00 	movl   $0x0,-0x10(%rbp)
   11cf1:	eb 73                	jmp    11d66 <main+0x60c>
   11cf3:	c7 45 f4 00 00 00 00 	movl   $0x0,-0xc(%rbp)
   11cfa:	eb 60                	jmp    11d5c <main+0x602>
   11cfc:	8b 45 f4             	mov    -0xc(%rbp),%eax
   11cff:	48 63 c8             	movslq %eax,%rcx
   11d02:	8b 45 f0             	mov    -0x10(%rbp),%eax
   11d05:	48 63 d0             	movslq %eax,%rdx
   11d08:	48 89 d0             	mov    %rdx,%rax
   11d0b:	48 01 c0             	add    %rax,%rax
   11d0e:	48 01 d0             	add    %rdx,%rax
   11d11:	48 01 c8             	add    %rcx,%rax
   11d14:	48 8d 14 00          	lea    (%rax,%rax,1),%rdx
   11d18:	48 8d 05 69 54 00 00 	lea    0x5469(%rip),%rax        # 17188 <g_545>
   11d1f:	0f b7 04 02          	movzwl (%rdx,%rax,1),%eax
   11d23:	48 0f bf c0          	movswq %ax,%rax
   11d27:	8b 55 fc             	mov    -0x4(%rbp),%edx
   11d2a:	48 8d 35 4c 26 00 00 	lea    0x264c(%rip),%rsi        # 1437d <g_2689+0x1319>
   11d31:	48 89 c7             	mov    %rax,%rdi
   11d34:	e8 ba 79 ff ff       	callq  96f3 <transparent_crc>
   11d39:	83 7d fc 00          	cmpl   $0x0,-0x4(%rbp)
   11d3d:	74 19                	je     11d58 <main+0x5fe>
   11d3f:	8b 55 f4             	mov    -0xc(%rbp),%edx
   11d42:	8b 45 f0             	mov    -0x10(%rbp),%eax
   11d45:	89 c6                	mov    %eax,%esi
   11d47:	48 8d 3d 86 25 00 00 	lea    0x2586(%rip),%rdi        # 142d4 <g_2689+0x1270>
   11d4e:	b8 00 00 00 00       	mov    $0x0,%eax
   11d53:	e8 28 63 ff ff       	callq  8080 <printf@plt>
   11d58:	83 45 f4 01          	addl   $0x1,-0xc(%rbp)
   11d5c:	83 7d f4 02          	cmpl   $0x2,-0xc(%rbp)
   11d60:	7e 9a                	jle    11cfc <main+0x5a2>
   11d62:	83 45 f0 01          	addl   $0x1,-0x10(%rbp)
   11d66:	83 7d f0 01          	cmpl   $0x1,-0x10(%rbp)
   11d6a:	7e 87                	jle    11cf3 <main+0x599>
   11d6c:	0f b7 05 21 54 00 00 	movzwl 0x5421(%rip),%eax        # 17194 <g_546>
   11d73:	48 0f bf c0          	movswq %ax,%rax
   11d77:	8b 55 fc             	mov    -0x4(%rbp),%edx
   11d7a:	48 8d 35 08 26 00 00 	lea    0x2608(%rip),%rsi        # 14389 <g_2689+0x1325>
   11d81:	48 89 c7             	mov    %rax,%rdi
   11d84:	e8 6a 79 ff ff       	callq  96f3 <transparent_crc>
   11d89:	0f b7 05 06 54 00 00 	movzwl 0x5406(%rip),%eax        # 17196 <g_547>
   11d90:	48 0f bf c0          	movswq %ax,%rax
   11d94:	8b 55 fc             	mov    -0x4(%rbp),%edx
   11d97:	48 8d 35 f1 25 00 00 	lea    0x25f1(%rip),%rsi        # 1438f <g_2689+0x132b>
   11d9e:	48 89 c7             	mov    %rax,%rdi
   11da1:	e8 4d 79 ff ff       	callq  96f3 <transparent_crc>
   11da6:	0f b7 05 85 86 00 00 	movzwl 0x8685(%rip),%eax        # 1a432 <g_548>
   11dad:	48 0f bf c0          	movswq %ax,%rax
   11db1:	8b 55 fc             	mov    -0x4(%rbp),%edx
   11db4:	48 8d 35 da 25 00 00 	lea    0x25da(%rip),%rsi        # 14395 <g_2689+0x1331>
   11dbb:	48 89 c7             	mov    %rax,%rdi
   11dbe:	e8 30 79 ff ff       	callq  96f3 <transparent_crc>
   11dc3:	0f b7 05 ce 53 00 00 	movzwl 0x53ce(%rip),%eax        # 17198 <g_549>
   11dca:	48 0f bf c0          	movswq %ax,%rax
   11dce:	8b 55 fc             	mov    -0x4(%rbp),%edx
   11dd1:	48 8d 35 c3 25 00 00 	lea    0x25c3(%rip),%rsi        # 1439b <g_2689+0x1337>
   11dd8:	48 89 c7             	mov    %rax,%rdi
   11ddb:	e8 13 79 ff ff       	callq  96f3 <transparent_crc>
   11de0:	0f b7 05 b3 53 00 00 	movzwl 0x53b3(%rip),%eax        # 1719a <g_550>
   11de7:	48 0f bf c0          	movswq %ax,%rax
   11deb:	8b 55 fc             	mov    -0x4(%rbp),%edx
   11dee:	48 8d 35 ac 25 00 00 	lea    0x25ac(%rip),%rsi        # 143a1 <g_2689+0x133d>
   11df5:	48 89 c7             	mov    %rax,%rdi
   11df8:	e8 f6 78 ff ff       	callq  96f3 <transparent_crc>
   11dfd:	0f b7 05 98 53 00 00 	movzwl 0x5398(%rip),%eax        # 1719c <g_551>
   11e04:	48 0f bf c0          	movswq %ax,%rax
   11e08:	8b 55 fc             	mov    -0x4(%rbp),%edx
   11e0b:	48 8d 35 95 25 00 00 	lea    0x2595(%rip),%rsi        # 143a7 <g_2689+0x1343>
   11e12:	48 89 c7             	mov    %rax,%rdi
   11e15:	e8 d9 78 ff ff       	callq  96f3 <transparent_crc>
   11e1a:	0f b6 05 7d 53 00 00 	movzbl 0x537d(%rip),%eax        # 1719e <g_556>
   11e21:	48 0f be c0          	movsbq %al,%rax
   11e25:	8b 55 fc             	mov    -0x4(%rbp),%edx
   11e28:	48 8d 35 7e 25 00 00 	lea    0x257e(%rip),%rsi        # 143ad <g_2689+0x1349>
   11e2f:	48 89 c7             	mov    %rax,%rdi
   11e32:	e8 bc 78 ff ff       	callq  96f3 <transparent_crc>
   11e37:	0f b7 05 62 53 00 00 	movzwl 0x5362(%rip),%eax        # 171a0 <g_577>
   11e3e:	0f b7 c0             	movzwl %ax,%eax
   11e41:	8b 55 fc             	mov    -0x4(%rbp),%edx
   11e44:	48 8d 35 68 25 00 00 	lea    0x2568(%rip),%rsi        # 143b3 <g_2689+0x134f>
   11e4b:	48 89 c7             	mov    %rax,%rdi
   11e4e:	e8 a0 78 ff ff       	callq  96f3 <transparent_crc>
   11e53:	48 8b 05 4e 53 00 00 	mov    0x534e(%rip),%rax        # 171a8 <g_615>
   11e5a:	8b 55 fc             	mov    -0x4(%rbp),%edx
   11e5d:	48 8d 35 55 25 00 00 	lea    0x2555(%rip),%rsi        # 143b9 <g_2689+0x1355>
   11e64:	48 89 c7             	mov    %rax,%rdi
   11e67:	e8 87 78 ff ff       	callq  96f3 <transparent_crc>
   11e6c:	0f b7 05 3d 53 00 00 	movzwl 0x533d(%rip),%eax        # 171b0 <g_616>
   11e73:	0f b7 c0             	movzwl %ax,%eax
   11e76:	8b 55 fc             	mov    -0x4(%rbp),%edx
   11e79:	48 8d 35 3f 25 00 00 	lea    0x253f(%rip),%rsi        # 143bf <g_2689+0x135b>
   11e80:	48 89 c7             	mov    %rax,%rdi
   11e83:	e8 6b 78 ff ff       	callq  96f3 <transparent_crc>
   11e88:	c7 45 f0 00 00 00 00 	movl   $0x0,-0x10(%rbp)
   11e8f:	eb 4d                	jmp    11ede <main+0x784>
   11e91:	8b 45 f0             	mov    -0x10(%rbp),%eax
   11e94:	48 98                	cltq   
   11e96:	48 8d 14 85 00 00 00 	lea    0x0(,%rax,4),%rdx
   11e9d:	00 
   11e9e:	48 8d 05 13 53 00 00 	lea    0x5313(%rip),%rax        # 171b8 <g_680>
   11ea5:	0f b6 04 02          	movzbl (%rdx,%rax,1),%eax
   11ea9:	0f b6 c0             	movzbl %al,%eax
   11eac:	8b 55 fc             	mov    -0x4(%rbp),%edx
   11eaf:	48 8d 35 0f 25 00 00 	lea    0x250f(%rip),%rsi        # 143c5 <g_2689+0x1361>
   11eb6:	48 89 c7             	mov    %rax,%rdi
   11eb9:	e8 35 78 ff ff       	callq  96f3 <transparent_crc>
   11ebe:	83 7d fc 00          	cmpl   $0x0,-0x4(%rbp)
   11ec2:	74 16                	je     11eda <main+0x780>
   11ec4:	8b 45 f0             	mov    -0x10(%rbp),%eax
   11ec7:	89 c6                	mov    %eax,%esi
   11ec9:	48 8d 3d c5 23 00 00 	lea    0x23c5(%rip),%rdi        # 14295 <g_2689+0x1231>
   11ed0:	b8 00 00 00 00       	mov    $0x0,%eax
   11ed5:	e8 a6 61 ff ff       	callq  8080 <printf@plt>
   11eda:	83 45 f0 01          	addl   $0x1,-0x10(%rbp)
   11ede:	83 7d f0 02          	cmpl   $0x2,-0x10(%rbp)
   11ee2:	7e ad                	jle    11e91 <main+0x737>
   11ee4:	b8 6f 53 f3 25       	mov    $0x25f3536f,%eax
   11ee9:	89 c1                	mov    %eax,%ecx
   11eeb:	8b 45 fc             	mov    -0x4(%rbp),%eax
   11eee:	89 c2                	mov    %eax,%edx
   11ef0:	48 8d 35 da 24 00 00 	lea    0x24da(%rip),%rsi        # 143d1 <g_2689+0x136d>
   11ef7:	48 89 cf             	mov    %rcx,%rdi
   11efa:	e8 f4 77 ff ff       	callq  96f3 <transparent_crc>
   11eff:	0f b6 05 42 85 00 00 	movzbl 0x8542(%rip),%eax        # 1a448 <g_827>
   11f06:	0f b6 c0             	movzbl %al,%eax
   11f09:	8b 55 fc             	mov    -0x4(%rbp),%edx
   11f0c:	48 8d 35 c4 24 00 00 	lea    0x24c4(%rip),%rsi        # 143d7 <g_2689+0x1373>
   11f13:	48 89 c7             	mov    %rax,%rdi
   11f16:	e8 d8 77 ff ff       	callq  96f3 <transparent_crc>
   11f1b:	c7 45 f0 00 00 00 00 	movl   $0x0,-0x10(%rbp)
   11f22:	eb 4b                	jmp    11f6f <main+0x815>
   11f24:	8b 45 f0             	mov    -0x10(%rbp),%eax
   11f27:	48 98                	cltq   
   11f29:	48 8d 14 85 00 00 00 	lea    0x0(,%rax,4),%rdx
   11f30:	00 
   11f31:	48 8d 05 a8 52 00 00 	lea    0x52a8(%rip),%rax        # 171e0 <g_859>
   11f38:	8b 04 02             	mov    (%rdx,%rax,1),%eax
   11f3b:	48 98                	cltq   
   11f3d:	8b 55 fc             	mov    -0x4(%rbp),%edx
   11f40:	48 8d 35 99 24 00 00 	lea    0x2499(%rip),%rsi        # 143e0 <g_2689+0x137c>
   11f47:	48 89 c7             	mov    %rax,%rdi
   11f4a:	e8 a4 77 ff ff       	callq  96f3 <transparent_crc>
   11f4f:	83 7d fc 00          	cmpl   $0x0,-0x4(%rbp)
   11f53:	74 16                	je     11f6b <main+0x811>
   11f55:	8b 45 f0             	mov    -0x10(%rbp),%eax
   11f58:	89 c6                	mov    %eax,%esi
   11f5a:	48 8d 3d 34 23 00 00 	lea    0x2334(%rip),%rdi        # 14295 <g_2689+0x1231>
   11f61:	b8 00 00 00 00       	mov    $0x0,%eax
   11f66:	e8 15 61 ff ff       	callq  8080 <printf@plt>
   11f6b:	83 45 f0 01          	addl   $0x1,-0x10(%rbp)
   11f6f:	83 7d f0 07          	cmpl   $0x7,-0x10(%rbp)
   11f73:	7e af                	jle    11f24 <main+0x7ca>
   11f75:	48 b9 94 79 c2 70 d4 	movabs $0x69b19d470c27994,%rcx
   11f7c:	19 9b 06 
   11f7f:	8b 45 fc             	mov    -0x4(%rbp),%eax
   11f82:	89 c2                	mov    %eax,%edx
   11f84:	48 8d 35 5e 24 00 00 	lea    0x245e(%rip),%rsi        # 143e9 <g_2689+0x1385>
   11f8b:	48 89 cf             	mov    %rcx,%rdi
   11f8e:	e8 60 77 ff ff       	callq  96f3 <transparent_crc>
   11f93:	8b 05 e7 84 00 00    	mov    0x84e7(%rip),%eax        # 1a480 <g_893>
   11f99:	89 c1                	mov    %eax,%ecx
   11f9b:	8b 45 fc             	mov    -0x4(%rbp),%eax
   11f9e:	89 c2                	mov    %eax,%edx
   11fa0:	48 8d 35 48 24 00 00 	lea    0x2448(%rip),%rsi        # 143ef <g_2689+0x138b>
   11fa7:	48 89 cf             	mov    %rcx,%rdi
   11faa:	e8 44 77 ff ff       	callq  96f3 <transparent_crc>
   11faf:	8b 05 4b 52 00 00    	mov    0x524b(%rip),%eax        # 17200 <g_998>
   11fb5:	89 c1                	mov    %eax,%ecx
   11fb7:	8b 45 fc             	mov    -0x4(%rbp),%eax
   11fba:	89 c2                	mov    %eax,%edx
   11fbc:	48 8d 35 32 24 00 00 	lea    0x2432(%rip),%rsi        # 143f5 <g_2689+0x1391>
   11fc3:	48 89 cf             	mov    %rcx,%rdi
   11fc6:	e8 28 77 ff ff       	callq  96f3 <transparent_crc>
   11fcb:	0f b6 05 b2 84 00 00 	movzbl 0x84b2(%rip),%eax        # 1a484 <g_1109>
   11fd2:	0f b6 c0             	movzbl %al,%eax
   11fd5:	8b 55 fc             	mov    -0x4(%rbp),%edx
   11fd8:	48 8d 35 1c 24 00 00 	lea    0x241c(%rip),%rsi        # 143fb <g_2689+0x1397>
   11fdf:	48 89 c7             	mov    %rax,%rdi
   11fe2:	e8 0c 77 ff ff       	callq  96f3 <transparent_crc>
   11fe7:	8b 05 9b 84 00 00    	mov    0x849b(%rip),%eax        # 1a488 <g_1411>
   11fed:	48 98                	cltq   
   11fef:	8b 55 fc             	mov    -0x4(%rbp),%edx
   11ff2:	48 8d 35 0c 24 00 00 	lea    0x240c(%rip),%rsi        # 14405 <g_2689+0x13a1>
   11ff9:	48 89 c7             	mov    %rax,%rdi
   11ffc:	e8 f2 76 ff ff       	callq  96f3 <transparent_crc>
   12001:	0f b6 05 fc 51 00 00 	movzbl 0x51fc(%rip),%eax        # 17204 <g_1416>
   12008:	0f b6 c0             	movzbl %al,%eax
   1200b:	8b 55 fc             	mov    -0x4(%rbp),%edx
   1200e:	48 8d 35 f7 23 00 00 	lea    0x23f7(%rip),%rsi        # 1440c <g_2689+0x13a8>
   12015:	48 89 c7             	mov    %rax,%rdi
   12018:	e8 d6 76 ff ff       	callq  96f3 <transparent_crc>
   1201d:	8b 05 69 84 00 00    	mov    0x8469(%rip),%eax        # 1a48c <g_1438>
   12023:	89 c1                	mov    %eax,%ecx
   12025:	8b 45 fc             	mov    -0x4(%rbp),%eax
   12028:	89 c2                	mov    %eax,%edx
   1202a:	48 8d 35 e5 23 00 00 	lea    0x23e5(%rip),%rsi        # 14416 <g_2689+0x13b2>
   12031:	48 89 cf             	mov    %rcx,%rdi
   12034:	e8 ba 76 ff ff       	callq  96f3 <transparent_crc>
   12039:	c7 45 f0 00 00 00 00 	movl   $0x0,-0x10(%rbp)
   12040:	eb 75                	jmp    120b7 <main+0x95d>
   12042:	c7 45 f4 00 00 00 00 	movl   $0x0,-0xc(%rbp)
   12049:	eb 62                	jmp    120ad <main+0x953>
   1204b:	8b 45 f4             	mov    -0xc(%rbp),%eax
   1204e:	48 63 c8             	movslq %eax,%rcx
   12051:	8b 45 f0             	mov    -0x10(%rbp),%eax
   12054:	48 63 d0             	movslq %eax,%rdx
   12057:	48 89 d0             	mov    %rdx,%rax
   1205a:	48 01 c0             	add    %rax,%rax
   1205d:	48 01 d0             	add    %rdx,%rax
   12060:	48 01 c0             	add    %rax,%rax
   12063:	48 8d 14 08          	lea    (%rax,%rcx,1),%rdx
   12067:	48 8d 05 b2 51 00 00 	lea    0x51b2(%rip),%rax        # 17220 <g_1531>
   1206e:	48 01 d0             	add    %rdx,%rax
   12071:	0f b6 00             	movzbl (%rax),%eax
   12074:	48 0f be c0          	movsbq %al,%rax
   12078:	8b 55 fc             	mov    -0x4(%rbp),%edx
   1207b:	48 8d 35 9b 23 00 00 	lea    0x239b(%rip),%rsi        # 1441d <g_2689+0x13b9>
   12082:	48 89 c7             	mov    %rax,%rdi
   12085:	e8 69 76 ff ff       	callq  96f3 <transparent_crc>
   1208a:	83 7d fc 00          	cmpl   $0x0,-0x4(%rbp)
   1208e:	74 19                	je     120a9 <main+0x94f>
   12090:	8b 55 f4             	mov    -0xc(%rbp),%edx
   12093:	8b 45 f0             	mov    -0x10(%rbp),%eax
   12096:	89 c6                	mov    %eax,%esi
   12098:	48 8d 3d 35 22 00 00 	lea    0x2235(%rip),%rdi        # 142d4 <g_2689+0x1270>
   1209f:	b8 00 00 00 00       	mov    $0x0,%eax
   120a4:	e8 d7 5f ff ff       	callq  8080 <printf@plt>
   120a9:	83 45 f4 01          	addl   $0x1,-0xc(%rbp)
   120ad:	83 7d f4 05          	cmpl   $0x5,-0xc(%rbp)
   120b1:	7e 98                	jle    1204b <main+0x8f1>
   120b3:	83 45 f0 01          	addl   $0x1,-0x10(%rbp)
   120b7:	83 7d f0 07          	cmpl   $0x7,-0x10(%rbp)
   120bb:	7e 85                	jle    12042 <main+0x8e8>
   120bd:	0f b7 05 8c 51 00 00 	movzwl 0x518c(%rip),%eax        # 17250 <g_1623>
   120c4:	48 0f bf c0          	movswq %ax,%rax
   120c8:	8b 55 fc             	mov    -0x4(%rbp),%edx
   120cb:	48 8d 35 58 23 00 00 	lea    0x2358(%rip),%rsi        # 1442a <g_2689+0x13c6>
   120d2:	48 89 c7             	mov    %rax,%rdi
   120d5:	e8 19 76 ff ff       	callq  96f3 <transparent_crc>
   120da:	0f b6 05 71 51 00 00 	movzbl 0x5171(%rip),%eax        # 17252 <g_1712>
   120e1:	48 0f be c0          	movsbq %al,%rax
   120e5:	8b 55 fc             	mov    -0x4(%rbp),%edx
   120e8:	48 8d 35 42 23 00 00 	lea    0x2342(%rip),%rsi        # 14431 <g_2689+0x13cd>
   120ef:	48 89 c7             	mov    %rax,%rdi
   120f2:	e8 fc 75 ff ff       	callq  96f3 <transparent_crc>
   120f7:	48 8b 05 5a 51 00 00 	mov    0x515a(%rip),%rax        # 17258 <g_1943>
   120fe:	8b 55 fc             	mov    -0x4(%rbp),%edx
   12101:	48 8d 35 30 23 00 00 	lea    0x2330(%rip),%rsi        # 14438 <g_2689+0x13d4>
   12108:	48 89 c7             	mov    %rax,%rdi
   1210b:	e8 e3 75 ff ff       	callq  96f3 <transparent_crc>
   12110:	b8 09 00 00 00       	mov    $0x9,%eax
   12115:	48 0f bf c0          	movswq %ax,%rax
   12119:	8b 55 fc             	mov    -0x4(%rbp),%edx
   1211c:	48 8d 35 1c 23 00 00 	lea    0x231c(%rip),%rsi        # 1443f <g_2689+0x13db>
   12123:	48 89 c7             	mov    %rax,%rdi
   12126:	e8 c8 75 ff ff       	callq  96f3 <transparent_crc>
   1212b:	b8 fd ff ff ff       	mov    $0xfffffffd,%eax
   12130:	48 0f bf c0          	movswq %ax,%rax
   12134:	8b 55 fc             	mov    -0x4(%rbp),%edx
   12137:	48 8d 35 08 23 00 00 	lea    0x2308(%rip),%rsi        # 14446 <g_2689+0x13e2>
   1213e:	48 89 c7             	mov    %rax,%rdi
   12141:	e8 ad 75 ff ff       	callq  96f3 <transparent_crc>
   12146:	0f b6 05 73 83 00 00 	movzbl 0x8373(%rip),%eax        # 1a4c0 <g_1974>
   1214d:	0f b6 c0             	movzbl %al,%eax
   12150:	8b 55 fc             	mov    -0x4(%rbp),%edx
   12153:	48 8d 35 f3 22 00 00 	lea    0x22f3(%rip),%rsi        # 1444d <g_2689+0x13e9>
   1215a:	48 89 c7             	mov    %rax,%rdi
   1215d:	e8 91 75 ff ff       	callq  96f3 <transparent_crc>
   12162:	0f b6 05 f7 50 00 00 	movzbl 0x50f7(%rip),%eax        # 17260 <g_2001>
   12169:	0f b6 c0             	movzbl %al,%eax
   1216c:	8b 55 fc             	mov    -0x4(%rbp),%edx
   1216f:	48 8d 35 e1 22 00 00 	lea    0x22e1(%rip),%rsi        # 14457 <g_2689+0x13f3>
   12176:	48 89 c7             	mov    %rax,%rdi
   12179:	e8 75 75 ff ff       	callq  96f3 <transparent_crc>
   1217e:	0f b6 05 df 50 00 00 	movzbl 0x50df(%rip),%eax        # 17264 <g_2052>
   12185:	0f b6 c0             	movzbl %al,%eax
   12188:	8b 55 fc             	mov    -0x4(%rbp),%edx
   1218b:	48 8d 35 cf 22 00 00 	lea    0x22cf(%rip),%rsi        # 14461 <g_2689+0x13fd>
   12192:	48 89 c7             	mov    %rax,%rdi
   12195:	e8 59 75 ff ff       	callq  96f3 <transparent_crc>
   1219a:	0f b7 05 c7 50 00 00 	movzwl 0x50c7(%rip),%eax        # 17268 <g_2101>
   121a1:	0f b7 c0             	movzwl %ax,%eax
   121a4:	8b 55 fc             	mov    -0x4(%rbp),%edx
   121a7:	48 8d 35 bd 22 00 00 	lea    0x22bd(%rip),%rsi        # 1446b <g_2689+0x1407>
   121ae:	48 89 c7             	mov    %rax,%rdi
   121b1:	e8 3d 75 ff ff       	callq  96f3 <transparent_crc>
   121b6:	8b 05 b0 50 00 00    	mov    0x50b0(%rip),%eax        # 1726c <g_2158>
   121bc:	89 c1                	mov    %eax,%ecx
   121be:	8b 45 fc             	mov    -0x4(%rbp),%eax
   121c1:	89 c2                	mov    %eax,%edx
   121c3:	48 8d 35 a8 22 00 00 	lea    0x22a8(%rip),%rsi        # 14472 <g_2689+0x140e>
   121ca:	48 89 cf             	mov    %rcx,%rdi
   121cd:	e8 21 75 ff ff       	callq  96f3 <transparent_crc>
   121d2:	0f b6 05 97 50 00 00 	movzbl 0x5097(%rip),%eax        # 17270 <g_2200>
   121d9:	48 0f be c0          	movsbq %al,%rax
   121dd:	8b 55 fc             	mov    -0x4(%rbp),%edx
   121e0:	48 8d 35 92 22 00 00 	lea    0x2292(%rip),%rsi        # 14479 <g_2689+0x1415>
   121e7:	48 89 c7             	mov    %rax,%rdi
   121ea:	e8 04 75 ff ff       	callq  96f3 <transparent_crc>
   121ef:	0f b6 05 7e 50 00 00 	movzbl 0x507e(%rip),%eax        # 17274 <g_2219>
   121f6:	0f b6 c0             	movzbl %al,%eax
   121f9:	8b 55 fc             	mov    -0x4(%rbp),%edx
   121fc:	48 8d 35 7d 22 00 00 	lea    0x227d(%rip),%rsi        # 14480 <g_2689+0x141c>
   12203:	48 89 c7             	mov    %rax,%rdi
   12206:	e8 e8 74 ff ff       	callq  96f3 <transparent_crc>
   1220b:	c7 45 f0 00 00 00 00 	movl   $0x0,-0x10(%rbp)
   12212:	eb 79                	jmp    1228d <main+0xb33>
   12214:	c7 45 f4 00 00 00 00 	movl   $0x0,-0xc(%rbp)
   1221b:	eb 66                	jmp    12283 <main+0xb29>
   1221d:	8b 45 f4             	mov    -0xc(%rbp),%eax
   12220:	48 63 c8             	movslq %eax,%rcx
   12223:	8b 45 f0             	mov    -0x10(%rbp),%eax
   12226:	48 63 d0             	movslq %eax,%rdx
   12229:	48 89 d0             	mov    %rdx,%rax
   1222c:	48 01 c0             	add    %rax,%rax
   1222f:	48 01 d0             	add    %rdx,%rax
   12232:	48 01 c0             	add    %rax,%rax
   12235:	48 01 c8             	add    %rcx,%rax
   12238:	48 8d 14 85 00 00 00 	lea    0x0(,%rax,4),%rdx
   1223f:	00 
   12240:	48 8d 05 39 50 00 00 	lea    0x5039(%rip),%rax        # 17280 <g_2223>
   12247:	0f b6 04 02          	movzbl (%rdx,%rax,1),%eax
   1224b:	0f b6 c0             	movzbl %al,%eax
   1224e:	8b 55 fc             	mov    -0x4(%rbp),%edx
   12251:	48 8d 35 32 22 00 00 	lea    0x2232(%rip),%rsi        # 1448a <g_2689+0x1426>
   12258:	48 89 c7             	mov    %rax,%rdi
   1225b:	e8 93 74 ff ff       	callq  96f3 <transparent_crc>
   12260:	83 7d fc 00          	cmpl   $0x0,-0x4(%rbp)
   12264:	74 19                	je     1227f <main+0xb25>
   12266:	8b 55 f4             	mov    -0xc(%rbp),%edx
   12269:	8b 45 f0             	mov    -0x10(%rbp),%eax
   1226c:	89 c6                	mov    %eax,%esi
   1226e:	48 8d 3d 5f 20 00 00 	lea    0x205f(%rip),%rdi        # 142d4 <g_2689+0x1270>
   12275:	b8 00 00 00 00       	mov    $0x0,%eax
   1227a:	e8 01 5e ff ff       	callq  8080 <printf@plt>
   1227f:	83 45 f4 01          	addl   $0x1,-0xc(%rbp)
   12283:	83 7d f4 05          	cmpl   $0x5,-0xc(%rbp)
   12287:	7e 94                	jle    1221d <main+0xac3>
   12289:	83 45 f0 01          	addl   $0x1,-0x10(%rbp)
   1228d:	83 7d f0 05          	cmpl   $0x5,-0x10(%rbp)
   12291:	7e 81                	jle    12214 <main+0xaba>
   12293:	0f b7 05 76 50 00 00 	movzwl 0x5076(%rip),%eax        # 17310 <g_2248>
   1229a:	0f b7 c0             	movzwl %ax,%eax
   1229d:	8b 55 fc             	mov    -0x4(%rbp),%edx
   122a0:	48 8d 35 f3 21 00 00 	lea    0x21f3(%rip),%rsi        # 1449a <g_2689+0x1436>
   122a7:	48 89 c7             	mov    %rax,%rdi
   122aa:	e8 44 74 ff ff       	callq  96f3 <transparent_crc>
   122af:	48 8b 05 62 50 00 00 	mov    0x5062(%rip),%rax        # 17318 <g_2289>
   122b6:	48 89 c1             	mov    %rax,%rcx
   122b9:	8b 45 fc             	mov    -0x4(%rbp),%eax
   122bc:	89 c2                	mov    %eax,%edx
   122be:	48 8d 35 dc 21 00 00 	lea    0x21dc(%rip),%rsi        # 144a1 <g_2689+0x143d>
   122c5:	48 89 cf             	mov    %rcx,%rdi
   122c8:	e8 26 74 ff ff       	callq  96f3 <transparent_crc>
   122cd:	48 8b 05 4c 50 00 00 	mov    0x504c(%rip),%rax        # 17320 <g_2345>
   122d4:	48 89 c1             	mov    %rax,%rcx
   122d7:	8b 45 fc             	mov    -0x4(%rbp),%eax
   122da:	89 c2                	mov    %eax,%edx
   122dc:	48 8d 35 c5 21 00 00 	lea    0x21c5(%rip),%rsi        # 144a8 <g_2689+0x1444>
   122e3:	48 89 cf             	mov    %rcx,%rdi
   122e6:	e8 08 74 ff ff       	callq  96f3 <transparent_crc>
   122eb:	0f b6 05 36 50 00 00 	movzbl 0x5036(%rip),%eax        # 17328 <g_2596>
   122f2:	0f b6 c0             	movzbl %al,%eax
   122f5:	8b 55 fc             	mov    -0x4(%rbp),%edx
   122f8:	48 8d 35 b0 21 00 00 	lea    0x21b0(%rip),%rsi        # 144af <g_2689+0x144b>
   122ff:	48 89 c7             	mov    %rax,%rdi
   12302:	e8 ec 73 ff ff       	callq  96f3 <transparent_crc>
   12307:	0f b7 05 1e 50 00 00 	movzwl 0x501e(%rip),%eax        # 1732c <g_2651>
   1230e:	48 0f bf c0          	movswq %ax,%rax
   12312:	8b 55 fc             	mov    -0x4(%rbp),%edx
   12315:	48 8d 35 9d 21 00 00 	lea    0x219d(%rip),%rsi        # 144b9 <g_2689+0x1455>
   1231c:	48 89 c7             	mov    %rax,%rdi
   1231f:	e8 cf 73 ff ff       	callq  96f3 <transparent_crc>
   12324:	0f b6 05 03 50 00 00 	movzbl 0x5003(%rip),%eax        # 1732e <g_2672>
   1232b:	48 0f be c0          	movsbq %al,%rax
   1232f:	8b 55 fc             	mov    -0x4(%rbp),%edx
   12332:	48 8d 35 87 21 00 00 	lea    0x2187(%rip),%rsi        # 144c0 <g_2689+0x145c>
   12339:	48 89 c7             	mov    %rax,%rdi
   1233c:	e8 b2 73 ff ff       	callq  96f3 <transparent_crc>
   12341:	b8 fa ff ff ff       	mov    $0xfffffffa,%eax
   12346:	89 c1                	mov    %eax,%ecx
   12348:	8b 45 fc             	mov    -0x4(%rbp),%eax
   1234b:	89 c2                	mov    %eax,%edx
   1234d:	48 8d 35 73 21 00 00 	lea    0x2173(%rip),%rsi        # 144c7 <g_2689+0x1463>
   12354:	48 89 cf             	mov    %rcx,%rdi
   12357:	e8 97 73 ff ff       	callq  96f3 <transparent_crc>
   1235c:	0f b6 05 cd 4f 00 00 	movzbl 0x4fcd(%rip),%eax        # 17330 <g_2772>
   12363:	0f b6 c0             	movzbl %al,%eax
   12366:	8b 55 fc             	mov    -0x4(%rbp),%edx
   12369:	48 8d 35 5e 21 00 00 	lea    0x215e(%rip),%rsi        # 144ce <g_2689+0x146a>
   12370:	48 89 c7             	mov    %rax,%rdi
   12373:	e8 7b 73 ff ff       	callq  96f3 <transparent_crc>
   12378:	8b 05 b6 4f 00 00    	mov    0x4fb6(%rip),%eax        # 17334 <g_2820>
   1237e:	89 c1                	mov    %eax,%ecx
   12380:	8b 45 fc             	mov    -0x4(%rbp),%eax
   12383:	89 c2                	mov    %eax,%edx
   12385:	48 8d 35 4c 21 00 00 	lea    0x214c(%rip),%rsi        # 144d8 <g_2689+0x1474>
   1238c:	48 89 cf             	mov    %rcx,%rdi
   1238f:	e8 5f 73 ff ff       	callq  96f3 <transparent_crc>
   12394:	c7 45 f0 00 00 00 00 	movl   $0x0,-0x10(%rbp)
   1239b:	eb 77                	jmp    12414 <main+0xcba>
   1239d:	c7 45 f4 00 00 00 00 	movl   $0x0,-0xc(%rbp)
   123a4:	eb 64                	jmp    1240a <main+0xcb0>
   123a6:	8b 45 f4             	mov    -0xc(%rbp),%eax
   123a9:	48 63 c8             	movslq %eax,%rcx
   123ac:	8b 45 f0             	mov    -0x10(%rbp),%eax
   123af:	48 63 d0             	movslq %eax,%rdx
   123b2:	48 89 d0             	mov    %rdx,%rax
   123b5:	48 c1 e0 03          	shl    $0x3,%rax
   123b9:	48 29 d0             	sub    %rdx,%rax
   123bc:	48 01 c8             	add    %rcx,%rax
   123bf:	48 8d 14 85 00 00 00 	lea    0x0(,%rax,4),%rdx
   123c6:	00 
   123c7:	48 8d 05 72 4f 00 00 	lea    0x4f72(%rip),%rax        # 17340 <g_2851>
   123ce:	0f b6 04 02          	movzbl (%rdx,%rax,1),%eax
   123d2:	0f b6 c0             	movzbl %al,%eax
   123d5:	8b 55 fc             	mov    -0x4(%rbp),%edx
   123d8:	48 8d 35 00 21 00 00 	lea    0x2100(%rip),%rsi        # 144df <g_2689+0x147b>
   123df:	48 89 c7             	mov    %rax,%rdi
   123e2:	e8 0c 73 ff ff       	callq  96f3 <transparent_crc>
   123e7:	83 7d fc 00          	cmpl   $0x0,-0x4(%rbp)
   123eb:	74 19                	je     12406 <main+0xcac>
   123ed:	8b 55 f4             	mov    -0xc(%rbp),%edx
   123f0:	8b 45 f0             	mov    -0x10(%rbp),%eax
   123f3:	89 c6                	mov    %eax,%esi
   123f5:	48 8d 3d d8 1e 00 00 	lea    0x1ed8(%rip),%rdi        # 142d4 <g_2689+0x1270>
   123fc:	b8 00 00 00 00       	mov    $0x0,%eax
   12401:	e8 7a 5c ff ff       	callq  8080 <printf@plt>
   12406:	83 45 f4 01          	addl   $0x1,-0xc(%rbp)
   1240a:	83 7d f4 06          	cmpl   $0x6,-0xc(%rbp)
   1240e:	7e 96                	jle    123a6 <main+0xc4c>
   12410:	83 45 f0 01          	addl   $0x1,-0x10(%rbp)
   12414:	83 7d f0 03          	cmpl   $0x3,-0x10(%rbp)
   12418:	7e 83                	jle    1239d <main+0xc43>
   1241a:	0f b7 05 8f 4f 00 00 	movzwl 0x4f8f(%rip),%eax        # 173b0 <g_2888>
   12421:	48 0f bf c0          	movswq %ax,%rax
   12425:	8b 55 fc             	mov    -0x4(%rbp),%edx
   12428:	48 8d 35 c0 20 00 00 	lea    0x20c0(%rip),%rsi        # 144ef <g_2689+0x148b>
   1242f:	48 89 c7             	mov    %rax,%rdi
   12432:	e8 bc 72 ff ff       	callq  96f3 <transparent_crc>
   12437:	8b 05 e3 4b 00 00    	mov    0x4be3(%rip),%eax        # 17020 <crc32_context>
   1243d:	f7 d0                	not    %eax
   1243f:	89 c2                	mov    %eax,%edx
   12441:	8b 45 fc             	mov    -0x4(%rbp),%eax
   12444:	89 c6                	mov    %eax,%esi
   12446:	89 d7                	mov    %edx,%edi
   12448:	e8 47 5d ff ff       	callq  8194 <platform_main_end>
   1244d:	b8 00 00 00 00       	mov    $0x0,%eax
   12452:	c9                   	leaveq 
   12453:	c3                   	retq   
   12454:	66 2e 0f 1f 84 00 00 	nopw   %cs:0x0(%rax,%rax,1)
   1245b:	00 00 00 
   1245e:	66 90                	xchg   %ax,%ax

0000000000012460 <__libc_csu_init>:
   12460:	f3 0f 1e fa          	endbr64 
   12464:	41 57                	push   %r15
   12466:	4c 8d 3d 83 47 00 00 	lea    0x4783(%rip),%r15        # 16bf0 <__frame_dummy_init_array_entry>
   1246d:	41 56                	push   %r14
   1246f:	49 89 d6             	mov    %rdx,%r14
   12472:	41 55                	push   %r13
   12474:	49 89 f5             	mov    %rsi,%r13
   12477:	41 54                	push   %r12
   12479:	41 89 fc             	mov    %edi,%r12d
   1247c:	55                   	push   %rbp
   1247d:	48 8d 2d 74 47 00 00 	lea    0x4774(%rip),%rbp        # 16bf8 <__do_global_dtors_aux_fini_array_entry>
   12484:	53                   	push   %rbx
   12485:	4c 29 fd             	sub    %r15,%rbp
   12488:	48 83 ec 08          	sub    $0x8,%rsp
   1248c:	e8 6f 5b ff ff       	callq  8000 <_init>
   12491:	48 c1 fd 03          	sar    $0x3,%rbp
   12495:	74 1f                	je     124b6 <__libc_csu_init+0x56>
   12497:	31 db                	xor    %ebx,%ebx
   12499:	0f 1f 80 00 00 00 00 	nopl   0x0(%rax)
   124a0:	4c 89 f2             	mov    %r14,%rdx
   124a3:	4c 89 ee             	mov    %r13,%rsi
   124a6:	44 89 e7             	mov    %r12d,%edi
   124a9:	41 ff 14 df          	callq  *(%r15,%rbx,8)
   124ad:	48 83 c3 01          	add    $0x1,%rbx
   124b1:	48 39 dd             	cmp    %rbx,%rbp
   124b4:	75 ea                	jne    124a0 <__libc_csu_init+0x40>
   124b6:	48 83 c4 08          	add    $0x8,%rsp
   124ba:	5b                   	pop    %rbx
   124bb:	5d                   	pop    %rbp
   124bc:	41 5c                	pop    %r12
   124be:	41 5d                	pop    %r13
   124c0:	41 5e                	pop    %r14
   124c2:	41 5f                	pop    %r15
   124c4:	c3                   	retq   
   124c5:	66 66 2e 0f 1f 84 00 	data16 nopw %cs:0x0(%rax,%rax,1)
   124cc:	00 00 00 00 

00000000000124d0 <__libc_csu_fini>:
   124d0:	f3 0f 1e fa          	endbr64 
   124d4:	c3                   	retq   
